; Listing generated by Microsoft (R) Optimizing Compiler Version 19.44.35225.0 

	TITLE	C:\IAGOS\server\v18\Source\Output\WorldServer\Release\action.obj
	.686P
	.XMM
	include listing.inc
	.model	flat

INCLUDELIB LIBCMT
INCLUDELIB OLDNAMES

PUBLIC	?__empty_global_delete@@YAXPAX@Z		; __empty_global_delete
PUBLIC	?__empty_global_delete@@YAXPAXI@Z		; __empty_global_delete
PUBLIC	??0exception@std@@QAE@ABV01@@Z			; std::exception::exception
PUBLIC	??1exception@std@@UAE@XZ			; std::exception::~exception
PUBLIC	?what@exception@std@@UBEPBDXZ			; std::exception::what
PUBLIC	??_Gexception@std@@UAEPAXI@Z			; std::exception::`scalar deleting destructor'
PUBLIC	??0bad_alloc@std@@QAE@ABV01@@Z			; std::bad_alloc::bad_alloc
PUBLIC	??_Gbad_alloc@std@@UAEPAXI@Z			; std::bad_alloc::`scalar deleting destructor'
PUBLIC	??0bad_array_new_length@std@@QAE@XZ		; std::bad_array_new_length::bad_array_new_length
PUBLIC	??1bad_array_new_length@std@@UAE@XZ		; std::bad_array_new_length::~bad_array_new_length
PUBLIC	??0bad_array_new_length@std@@QAE@ABV01@@Z	; std::bad_array_new_length::bad_array_new_length
PUBLIC	??_Gbad_array_new_length@std@@UAEPAXI@Z		; std::bad_array_new_length::`scalar deleting destructor'
PUBLIC	?_Throw_bad_array_new_length@std@@YAXXZ		; std::_Throw_bad_array_new_length
PUBLIC	?_Tidy@?$deque@PAUtagACTMSG@@V?$allocator@PAUtagACTMSG@@@std@@@std@@AAEXXZ ; std::deque<tagACTMSG *,std::allocator<tagACTMSG *> >::_Tidy
PUBLIC	??0?$CActMsgq@UtagACTMSG@@@@QAE@XZ		; CActMsgq<tagACTMSG>::CActMsgq<tagACTMSG>
PUBLIC	??1?$CActMsgq@UtagACTMSG@@@@UAE@XZ		; CActMsgq<tagACTMSG>::~CActMsgq<tagACTMSG>
PUBLIC	??_G?$CActMsgq@UtagACTMSG@@@@UAEPAXI@Z		; CActMsgq<tagACTMSG>::`scalar deleting destructor'
PUBLIC	??1CMeleeAtkMsgq@@UAE@XZ			; CMeleeAtkMsgq::~CMeleeAtkMsgq
PUBLIC	??_GCMeleeAtkMsgq@@UAEPAXI@Z			; CMeleeAtkMsgq::`scalar deleting destructor'
PUBLIC	?_Tidy@?$deque@PAUtagMAGICATKMSG@@V?$allocator@PAUtagMAGICATKMSG@@@std@@@std@@AAEXXZ ; std::deque<tagMAGICATKMSG *,std::allocator<tagMAGICATKMSG *> >::_Tidy
PUBLIC	??0?$CActMsgq@UtagMAGICATKMSG@@@@QAE@XZ		; CActMsgq<tagMAGICATKMSG>::CActMsgq<tagMAGICATKMSG>
PUBLIC	??1?$CActMsgq@UtagMAGICATKMSG@@@@UAE@XZ		; CActMsgq<tagMAGICATKMSG>::~CActMsgq<tagMAGICATKMSG>
PUBLIC	??_G?$CActMsgq@UtagMAGICATKMSG@@@@UAEPAXI@Z	; CActMsgq<tagMAGICATKMSG>::`scalar deleting destructor'
PUBLIC	??1CMagicAtkMsgq@@UAE@XZ			; CMagicAtkMsgq::~CMagicAtkMsgq
PUBLIC	??_GCMagicAtkMsgq@@UAEPAXI@Z			; CMagicAtkMsgq::`scalar deleting destructor'
PUBLIC	??0CAction@@QAE@XZ				; CAction::CAction
PUBLIC	??0CAction@@QAE@PAVCMover@@@Z			; CAction::CAction
PUBLIC	??1CAction@@UAE@XZ				; CAction::~CAction
PUBLIC	?GetWorld@CAction@@QAEPAVCWorld@@XZ		; CAction::GetWorld
PUBLIC	?Init@CAction@@QAEXXZ				; CAction::Init
PUBLIC	?AddStateFlag@CAction@@QAEXK@Z			; CAction::AddStateFlag
PUBLIC	?RemoveStateFlag@CAction@@QAEXK@Z		; CAction::RemoveStateFlag
PUBLIC	?ClearState@CAction@@QAEXXZ			; CAction::ClearState
PUBLIC	?ResetState@CAction@@QAEXK@Z			; CAction::ResetState
PUBLIC	?OnEndMoveState@CAction@@QAEXXZ			; CAction::OnEndMoveState
PUBLIC	?OnEndTurnState@CAction@@QAEXXZ			; CAction::OnEndTurnState
PUBLIC	?OnEndLookState@CAction@@QAEXXZ			; CAction::OnEndLookState
PUBLIC	?OnEndJumpState@CAction@@QAEXK@Z		; CAction::OnEndJumpState
PUBLIC	?OnEndAttackState@CAction@@QAEXK@Z		; CAction::OnEndAttackState
PUBLIC	?OnEndDamageState@CAction@@QAEXXZ		; CAction::OnEndDamageState
PUBLIC	?OnEndActionState@CAction@@QAEXXZ		; CAction::OnEndActionState
PUBLIC	?SendActMsg@CAction@@UAEHW4OBJMSG@@HHHHH@Z	; CAction::SendActMsg
PUBLIC	?ProcessState@CAction@@UAEXKM@Z			; CAction::ProcessState
PUBLIC	?Render@CAction@@UAEHPAUIDirect3DDevice9@@PAUD3DXMATRIX@@@Z ; CAction::Render
PUBLIC	?ProcessAtkMsg@CAction@@AAEXXZ			; CAction::ProcessAtkMsg
PUBLIC	??_GCAction@@UAEPAXI@Z				; CAction::`scalar deleting destructor'
PUBLIC	??$_Allocate_manually_vector_aligned@U_Default_allocate_traits@std@@@std@@YAPAXI@Z ; std::_Allocate_manually_vector_aligned<std::_Default_allocate_traits>
PUBLIC	??_7exception@std@@6B@				; std::exception::`vftable'
PUBLIC	??_C@_0BC@EOODALEL@Unknown?5exception@		; `string'
PUBLIC	??_7bad_alloc@std@@6B@				; std::bad_alloc::`vftable'
PUBLIC	??_7bad_array_new_length@std@@6B@		; std::bad_array_new_length::`vftable'
PUBLIC	??_C@_0BF@KINCDENJ@bad?5array?5new?5length@	; `string'
PUBLIC	??_R0?AVexception@std@@@8			; std::exception `RTTI Type Descriptor'
PUBLIC	__CT??_R0?AVexception@std@@@8??0exception@std@@QAE@ABV01@@Z12
PUBLIC	__TI3?AVbad_array_new_length@std@@
PUBLIC	__CTA3?AVbad_array_new_length@std@@
PUBLIC	??_R0?AVbad_array_new_length@std@@@8		; std::bad_array_new_length `RTTI Type Descriptor'
PUBLIC	__CT??_R0?AVbad_array_new_length@std@@@8??0bad_array_new_length@std@@QAE@ABV01@@Z12
PUBLIC	??_R0?AVbad_alloc@std@@@8			; std::bad_alloc `RTTI Type Descriptor'
PUBLIC	__CT??_R0?AVbad_alloc@std@@@8??0bad_alloc@std@@QAE@ABV01@@Z12
PUBLIC	??_7?$CActMsgq@UtagACTMSG@@@@6B@		; CActMsgq<tagACTMSG>::`vftable'
PUBLIC	??_7CMeleeAtkMsgq@@6B@				; CMeleeAtkMsgq::`vftable'
PUBLIC	??_7?$CActMsgq@UtagMAGICATKMSG@@@@6B@		; CActMsgq<tagMAGICATKMSG>::`vftable'
PUBLIC	??_7CMagicAtkMsgq@@6B@				; CMagicAtkMsgq::`vftable'
PUBLIC	??_7CAction@@6B@				; CAction::`vftable'
PUBLIC	??_R4exception@std@@6B@				; std::exception::`RTTI Complete Object Locator'
PUBLIC	??_R3exception@std@@8				; std::exception::`RTTI Class Hierarchy Descriptor'
PUBLIC	??_R2exception@std@@8				; std::exception::`RTTI Base Class Array'
PUBLIC	??_R1A@?0A@EA@exception@std@@8			; std::exception::`RTTI Base Class Descriptor at (0,-1,0,64)'
PUBLIC	??_R4bad_array_new_length@std@@6B@		; std::bad_array_new_length::`RTTI Complete Object Locator'
PUBLIC	??_R3bad_array_new_length@std@@8		; std::bad_array_new_length::`RTTI Class Hierarchy Descriptor'
PUBLIC	??_R2bad_array_new_length@std@@8		; std::bad_array_new_length::`RTTI Base Class Array'
PUBLIC	??_R1A@?0A@EA@bad_array_new_length@std@@8	; std::bad_array_new_length::`RTTI Base Class Descriptor at (0,-1,0,64)'
PUBLIC	??_R1A@?0A@EA@bad_alloc@std@@8			; std::bad_alloc::`RTTI Base Class Descriptor at (0,-1,0,64)'
PUBLIC	??_R3bad_alloc@std@@8				; std::bad_alloc::`RTTI Class Hierarchy Descriptor'
PUBLIC	??_R2bad_alloc@std@@8				; std::bad_alloc::`RTTI Base Class Array'
PUBLIC	??_R4bad_alloc@std@@6B@				; std::bad_alloc::`RTTI Complete Object Locator'
PUBLIC	??_R4CMeleeAtkMsgq@@6B@				; CMeleeAtkMsgq::`RTTI Complete Object Locator'
PUBLIC	??_R0?AVCMeleeAtkMsgq@@@8			; CMeleeAtkMsgq `RTTI Type Descriptor'
PUBLIC	??_R3CMeleeAtkMsgq@@8				; CMeleeAtkMsgq::`RTTI Class Hierarchy Descriptor'
PUBLIC	??_R2CMeleeAtkMsgq@@8				; CMeleeAtkMsgq::`RTTI Base Class Array'
PUBLIC	??_R1A@?0A@EA@CMeleeAtkMsgq@@8			; CMeleeAtkMsgq::`RTTI Base Class Descriptor at (0,-1,0,64)'
PUBLIC	??_R1A@?0A@EA@?$CActMsgq@UtagACTMSG@@@@8	; CActMsgq<tagACTMSG>::`RTTI Base Class Descriptor at (0,-1,0,64)'
PUBLIC	??_R0?AV?$CActMsgq@UtagACTMSG@@@@@8		; CActMsgq<tagACTMSG> `RTTI Type Descriptor'
PUBLIC	??_R3?$CActMsgq@UtagACTMSG@@@@8			; CActMsgq<tagACTMSG>::`RTTI Class Hierarchy Descriptor'
PUBLIC	??_R2?$CActMsgq@UtagACTMSG@@@@8			; CActMsgq<tagACTMSG>::`RTTI Base Class Array'
PUBLIC	??_R4?$CActMsgq@UtagACTMSG@@@@6B@		; CActMsgq<tagACTMSG>::`RTTI Complete Object Locator'
PUBLIC	??_R4CMagicAtkMsgq@@6B@				; CMagicAtkMsgq::`RTTI Complete Object Locator'
PUBLIC	??_R0?AVCMagicAtkMsgq@@@8			; CMagicAtkMsgq `RTTI Type Descriptor'
PUBLIC	??_R3CMagicAtkMsgq@@8				; CMagicAtkMsgq::`RTTI Class Hierarchy Descriptor'
PUBLIC	??_R2CMagicAtkMsgq@@8				; CMagicAtkMsgq::`RTTI Base Class Array'
PUBLIC	??_R1A@?0A@EA@CMagicAtkMsgq@@8			; CMagicAtkMsgq::`RTTI Base Class Descriptor at (0,-1,0,64)'
PUBLIC	??_R1A@?0A@EA@?$CActMsgq@UtagMAGICATKMSG@@@@8	; CActMsgq<tagMAGICATKMSG>::`RTTI Base Class Descriptor at (0,-1,0,64)'
PUBLIC	??_R0?AV?$CActMsgq@UtagMAGICATKMSG@@@@@8	; CActMsgq<tagMAGICATKMSG> `RTTI Type Descriptor'
PUBLIC	??_R3?$CActMsgq@UtagMAGICATKMSG@@@@8		; CActMsgq<tagMAGICATKMSG>::`RTTI Class Hierarchy Descriptor'
PUBLIC	??_R2?$CActMsgq@UtagMAGICATKMSG@@@@8		; CActMsgq<tagMAGICATKMSG>::`RTTI Base Class Array'
PUBLIC	??_R4?$CActMsgq@UtagMAGICATKMSG@@@@6B@		; CActMsgq<tagMAGICATKMSG>::`RTTI Complete Object Locator'
PUBLIC	??_C@_0EI@HGFDNHGL@CAction?3?3ClearState?5?3?5?$LO?F?A?w?$LF?$LF?5?$LJ?$LK@ ; `string'
PUBLIC	??_R4CAction@@6B@				; CAction::`RTTI Complete Object Locator'
PUBLIC	??_R0?AVCAction@@@8				; CAction `RTTI Type Descriptor'
PUBLIC	??_R3CAction@@8					; CAction::`RTTI Class Hierarchy Descriptor'
PUBLIC	??_R2CAction@@8					; CAction::`RTTI Base Class Array'
PUBLIC	??_R1A@?0A@EA@CAction@@8			; CAction::`RTTI Base Class Descriptor at (0,-1,0,64)'
EXTRN	??2@YAPAXI@Z:PROC				; operator new
EXTRN	??3@YAXPAXI@Z:PROC				; operator delete
EXTRN	__invoke_watson:PROC
EXTRN	___std_exception_copy:PROC
EXTRN	___std_exception_destroy:PROC
EXTRN	??_Eexception@std@@UAEPAXI@Z:PROC		; std::exception::`vector deleting destructor'
EXTRN	??_Ebad_alloc@std@@UAEPAXI@Z:PROC		; std::bad_alloc::`vector deleting destructor'
EXTRN	??_Ebad_array_new_length@std@@UAEPAXI@Z:PROC	; std::bad_array_new_length::`vector deleting destructor'
EXTRN	?Error@@YAPBDPBDZZ:PROC				; Error
EXTRN	??_E?$CActMsgq@UtagACTMSG@@@@UAEPAXI@Z:PROC	; CActMsgq<tagACTMSG>::`vector deleting destructor'
EXTRN	?Process@CMeleeAtkMsgq@@QAEHPAVCAction@@@Z:PROC	; CMeleeAtkMsgq::Process
EXTRN	??_ECMeleeAtkMsgq@@UAEPAXI@Z:PROC		; CMeleeAtkMsgq::`vector deleting destructor'
EXTRN	??_E?$CActMsgq@UtagMAGICATKMSG@@@@UAEPAXI@Z:PROC ; CActMsgq<tagMAGICATKMSG>::`vector deleting destructor'
EXTRN	?Process@CMagicAtkMsgq@@QAEHPAVCMover@@@Z:PROC	; CMagicAtkMsgq::Process
EXTRN	??_ECMagicAtkMsgq@@UAEPAXI@Z:PROC		; CMagicAtkMsgq::`vector deleting destructor'
EXTRN	??_ECAction@@UAEPAXI@Z:PROC			; CAction::`vector deleting destructor'
EXTRN	?OnActEndMeleeSkill@CMover@@QAEXXZ:PROC		; CMover::OnActEndMeleeSkill
EXTRN	?OnActEndMagicSkill@CMover@@QAEXXZ:PROC		; CMover::OnActEndMagicSkill
EXTRN	?OnActEndJump4@CMover@@QAEXXZ:PROC		; CMover::OnActEndJump4
EXTRN	@__security_check_cookie@4:PROC
EXTRN	__CxxThrowException@8:PROC
EXTRN	___CxxFrameHandler3:PROC
EXTRN	??_7type_info@@6B@:QWORD			; type_info::`vftable'
EXTRN	___security_cookie:DWORD
;	COMDAT ??_R1A@?0A@EA@CAction@@8
rdata$r	SEGMENT
??_R1A@?0A@EA@CAction@@8 DD FLAT:??_R0?AVCAction@@@8	; CAction::`RTTI Base Class Descriptor at (0,-1,0,64)'
	DD	00H
	DD	00H
	DD	0ffffffffH
	DD	00H
	DD	040H
	DD	FLAT:??_R3CAction@@8
rdata$r	ENDS
;	COMDAT ??_R2CAction@@8
rdata$r	SEGMENT
??_R2CAction@@8 DD FLAT:??_R1A@?0A@EA@CAction@@8	; CAction::`RTTI Base Class Array'
rdata$r	ENDS
;	COMDAT ??_R3CAction@@8
rdata$r	SEGMENT
??_R3CAction@@8 DD 00H					; CAction::`RTTI Class Hierarchy Descriptor'
	DD	00H
	DD	01H
	DD	FLAT:??_R2CAction@@8
rdata$r	ENDS
;	COMDAT ??_R0?AVCAction@@@8
data$rs	SEGMENT
??_R0?AVCAction@@@8 DD FLAT:??_7type_info@@6B@		; CAction `RTTI Type Descriptor'
	DD	00H
	DB	'.?AVCAction@@', 00H
data$rs	ENDS
;	COMDAT ??_R4CAction@@6B@
rdata$r	SEGMENT
??_R4CAction@@6B@ DD 00H				; CAction::`RTTI Complete Object Locator'
	DD	00H
	DD	00H
	DD	FLAT:??_R0?AVCAction@@@8
	DD	FLAT:??_R3CAction@@8
rdata$r	ENDS
;	COMDAT ??_C@_0EI@HGFDNHGL@CAction?3?3ClearState?5?3?5?$LO?F?A?w?$LF?$LF?5?$LJ?$LK@
CONST	SEGMENT
??_C@_0EI@HGFDNHGL@CAction?3?3ClearState?5?3?5?$LO?F?A?w?$LF?$LF?5?$LJ?$LK@ DB 'C'
	DB	'Action::ClearState : ', 0beH, 0c6H, 0c1H, 0f7H, 0b5H, 0b5H, ' '
	DB	0b9H, 0baH, 0b0H, 0a1H, ' ', 0c5H, 0acH, 0b8H, 0aeH, 0beH, 0eeH
	DB	0b5H, 0c7H, 0c1H, 0f6H, ' ', 0beH, 0caH, 0c0H, 0baH, ' ', 0b0H
	DB	0aaH, 0c0H, 0ccH, ' ', 0c0H, 0d6H, 0b4H, 0d9H, '. %08x, %08x', 00H ; `string'
CONST	ENDS
;	COMDAT ??_R4?$CActMsgq@UtagMAGICATKMSG@@@@6B@
rdata$r	SEGMENT
??_R4?$CActMsgq@UtagMAGICATKMSG@@@@6B@ DD 00H		; CActMsgq<tagMAGICATKMSG>::`RTTI Complete Object Locator'
	DD	00H
	DD	00H
	DD	FLAT:??_R0?AV?$CActMsgq@UtagMAGICATKMSG@@@@@8
	DD	FLAT:??_R3?$CActMsgq@UtagMAGICATKMSG@@@@8
rdata$r	ENDS
;	COMDAT ??_R2?$CActMsgq@UtagMAGICATKMSG@@@@8
rdata$r	SEGMENT
??_R2?$CActMsgq@UtagMAGICATKMSG@@@@8 DD FLAT:??_R1A@?0A@EA@?$CActMsgq@UtagMAGICATKMSG@@@@8 ; CActMsgq<tagMAGICATKMSG>::`RTTI Base Class Array'
rdata$r	ENDS
;	COMDAT ??_R3?$CActMsgq@UtagMAGICATKMSG@@@@8
rdata$r	SEGMENT
??_R3?$CActMsgq@UtagMAGICATKMSG@@@@8 DD 00H		; CActMsgq<tagMAGICATKMSG>::`RTTI Class Hierarchy Descriptor'
	DD	00H
	DD	01H
	DD	FLAT:??_R2?$CActMsgq@UtagMAGICATKMSG@@@@8
rdata$r	ENDS
;	COMDAT ??_R0?AV?$CActMsgq@UtagMAGICATKMSG@@@@@8
data$rs	SEGMENT
??_R0?AV?$CActMsgq@UtagMAGICATKMSG@@@@@8 DD FLAT:??_7type_info@@6B@ ; CActMsgq<tagMAGICATKMSG> `RTTI Type Descriptor'
	DD	00H
	DB	'.?AV?$CActMsgq@UtagMAGICATKMSG@@@@', 00H
data$rs	ENDS
;	COMDAT ??_R1A@?0A@EA@?$CActMsgq@UtagMAGICATKMSG@@@@8
rdata$r	SEGMENT
??_R1A@?0A@EA@?$CActMsgq@UtagMAGICATKMSG@@@@8 DD FLAT:??_R0?AV?$CActMsgq@UtagMAGICATKMSG@@@@@8 ; CActMsgq<tagMAGICATKMSG>::`RTTI Base Class Descriptor at (0,-1,0,64)'
	DD	00H
	DD	00H
	DD	0ffffffffH
	DD	00H
	DD	040H
	DD	FLAT:??_R3?$CActMsgq@UtagMAGICATKMSG@@@@8
rdata$r	ENDS
;	COMDAT ??_R1A@?0A@EA@CMagicAtkMsgq@@8
rdata$r	SEGMENT
??_R1A@?0A@EA@CMagicAtkMsgq@@8 DD FLAT:??_R0?AVCMagicAtkMsgq@@@8 ; CMagicAtkMsgq::`RTTI Base Class Descriptor at (0,-1,0,64)'
	DD	01H
	DD	00H
	DD	0ffffffffH
	DD	00H
	DD	040H
	DD	FLAT:??_R3CMagicAtkMsgq@@8
rdata$r	ENDS
;	COMDAT ??_R2CMagicAtkMsgq@@8
rdata$r	SEGMENT
??_R2CMagicAtkMsgq@@8 DD FLAT:??_R1A@?0A@EA@CMagicAtkMsgq@@8 ; CMagicAtkMsgq::`RTTI Base Class Array'
	DD	FLAT:??_R1A@?0A@EA@?$CActMsgq@UtagMAGICATKMSG@@@@8
rdata$r	ENDS
;	COMDAT ??_R3CMagicAtkMsgq@@8
rdata$r	SEGMENT
??_R3CMagicAtkMsgq@@8 DD 00H				; CMagicAtkMsgq::`RTTI Class Hierarchy Descriptor'
	DD	00H
	DD	02H
	DD	FLAT:??_R2CMagicAtkMsgq@@8
rdata$r	ENDS
;	COMDAT ??_R0?AVCMagicAtkMsgq@@@8
data$rs	SEGMENT
??_R0?AVCMagicAtkMsgq@@@8 DD FLAT:??_7type_info@@6B@	; CMagicAtkMsgq `RTTI Type Descriptor'
	DD	00H
	DB	'.?AVCMagicAtkMsgq@@', 00H
data$rs	ENDS
;	COMDAT ??_R4CMagicAtkMsgq@@6B@
rdata$r	SEGMENT
??_R4CMagicAtkMsgq@@6B@ DD 00H				; CMagicAtkMsgq::`RTTI Complete Object Locator'
	DD	00H
	DD	00H
	DD	FLAT:??_R0?AVCMagicAtkMsgq@@@8
	DD	FLAT:??_R3CMagicAtkMsgq@@8
rdata$r	ENDS
;	COMDAT ??_R4?$CActMsgq@UtagACTMSG@@@@6B@
rdata$r	SEGMENT
??_R4?$CActMsgq@UtagACTMSG@@@@6B@ DD 00H		; CActMsgq<tagACTMSG>::`RTTI Complete Object Locator'
	DD	00H
	DD	00H
	DD	FLAT:??_R0?AV?$CActMsgq@UtagACTMSG@@@@@8
	DD	FLAT:??_R3?$CActMsgq@UtagACTMSG@@@@8
rdata$r	ENDS
;	COMDAT ??_R2?$CActMsgq@UtagACTMSG@@@@8
rdata$r	SEGMENT
??_R2?$CActMsgq@UtagACTMSG@@@@8 DD FLAT:??_R1A@?0A@EA@?$CActMsgq@UtagACTMSG@@@@8 ; CActMsgq<tagACTMSG>::`RTTI Base Class Array'
rdata$r	ENDS
;	COMDAT ??_R3?$CActMsgq@UtagACTMSG@@@@8
rdata$r	SEGMENT
??_R3?$CActMsgq@UtagACTMSG@@@@8 DD 00H			; CActMsgq<tagACTMSG>::`RTTI Class Hierarchy Descriptor'
	DD	00H
	DD	01H
	DD	FLAT:??_R2?$CActMsgq@UtagACTMSG@@@@8
rdata$r	ENDS
;	COMDAT ??_R0?AV?$CActMsgq@UtagACTMSG@@@@@8
data$rs	SEGMENT
??_R0?AV?$CActMsgq@UtagACTMSG@@@@@8 DD FLAT:??_7type_info@@6B@ ; CActMsgq<tagACTMSG> `RTTI Type Descriptor'
	DD	00H
	DB	'.?AV?$CActMsgq@UtagACTMSG@@@@', 00H
data$rs	ENDS
;	COMDAT ??_R1A@?0A@EA@?$CActMsgq@UtagACTMSG@@@@8
rdata$r	SEGMENT
??_R1A@?0A@EA@?$CActMsgq@UtagACTMSG@@@@8 DD FLAT:??_R0?AV?$CActMsgq@UtagACTMSG@@@@@8 ; CActMsgq<tagACTMSG>::`RTTI Base Class Descriptor at (0,-1,0,64)'
	DD	00H
	DD	00H
	DD	0ffffffffH
	DD	00H
	DD	040H
	DD	FLAT:??_R3?$CActMsgq@UtagACTMSG@@@@8
rdata$r	ENDS
;	COMDAT ??_R1A@?0A@EA@CMeleeAtkMsgq@@8
rdata$r	SEGMENT
??_R1A@?0A@EA@CMeleeAtkMsgq@@8 DD FLAT:??_R0?AVCMeleeAtkMsgq@@@8 ; CMeleeAtkMsgq::`RTTI Base Class Descriptor at (0,-1,0,64)'
	DD	01H
	DD	00H
	DD	0ffffffffH
	DD	00H
	DD	040H
	DD	FLAT:??_R3CMeleeAtkMsgq@@8
rdata$r	ENDS
;	COMDAT ??_R2CMeleeAtkMsgq@@8
rdata$r	SEGMENT
??_R2CMeleeAtkMsgq@@8 DD FLAT:??_R1A@?0A@EA@CMeleeAtkMsgq@@8 ; CMeleeAtkMsgq::`RTTI Base Class Array'
	DD	FLAT:??_R1A@?0A@EA@?$CActMsgq@UtagACTMSG@@@@8
rdata$r	ENDS
;	COMDAT ??_R3CMeleeAtkMsgq@@8
rdata$r	SEGMENT
??_R3CMeleeAtkMsgq@@8 DD 00H				; CMeleeAtkMsgq::`RTTI Class Hierarchy Descriptor'
	DD	00H
	DD	02H
	DD	FLAT:??_R2CMeleeAtkMsgq@@8
rdata$r	ENDS
;	COMDAT ??_R0?AVCMeleeAtkMsgq@@@8
data$rs	SEGMENT
??_R0?AVCMeleeAtkMsgq@@@8 DD FLAT:??_7type_info@@6B@	; CMeleeAtkMsgq `RTTI Type Descriptor'
	DD	00H
	DB	'.?AVCMeleeAtkMsgq@@', 00H
data$rs	ENDS
;	COMDAT ??_R4CMeleeAtkMsgq@@6B@
rdata$r	SEGMENT
??_R4CMeleeAtkMsgq@@6B@ DD 00H				; CMeleeAtkMsgq::`RTTI Complete Object Locator'
	DD	00H
	DD	00H
	DD	FLAT:??_R0?AVCMeleeAtkMsgq@@@8
	DD	FLAT:??_R3CMeleeAtkMsgq@@8
rdata$r	ENDS
;	COMDAT ??_R4bad_alloc@std@@6B@
rdata$r	SEGMENT
??_R4bad_alloc@std@@6B@ DD 00H				; std::bad_alloc::`RTTI Complete Object Locator'
	DD	00H
	DD	00H
	DD	FLAT:??_R0?AVbad_alloc@std@@@8
	DD	FLAT:??_R3bad_alloc@std@@8
rdata$r	ENDS
;	COMDAT ??_R2bad_alloc@std@@8
rdata$r	SEGMENT
??_R2bad_alloc@std@@8 DD FLAT:??_R1A@?0A@EA@bad_alloc@std@@8 ; std::bad_alloc::`RTTI Base Class Array'
	DD	FLAT:??_R1A@?0A@EA@exception@std@@8
rdata$r	ENDS
;	COMDAT ??_R3bad_alloc@std@@8
rdata$r	SEGMENT
??_R3bad_alloc@std@@8 DD 00H				; std::bad_alloc::`RTTI Class Hierarchy Descriptor'
	DD	00H
	DD	02H
	DD	FLAT:??_R2bad_alloc@std@@8
rdata$r	ENDS
;	COMDAT ??_R1A@?0A@EA@bad_alloc@std@@8
rdata$r	SEGMENT
??_R1A@?0A@EA@bad_alloc@std@@8 DD FLAT:??_R0?AVbad_alloc@std@@@8 ; std::bad_alloc::`RTTI Base Class Descriptor at (0,-1,0,64)'
	DD	01H
	DD	00H
	DD	0ffffffffH
	DD	00H
	DD	040H
	DD	FLAT:??_R3bad_alloc@std@@8
rdata$r	ENDS
;	COMDAT ??_R1A@?0A@EA@bad_array_new_length@std@@8
rdata$r	SEGMENT
??_R1A@?0A@EA@bad_array_new_length@std@@8 DD FLAT:??_R0?AVbad_array_new_length@std@@@8 ; std::bad_array_new_length::`RTTI Base Class Descriptor at (0,-1,0,64)'
	DD	02H
	DD	00H
	DD	0ffffffffH
	DD	00H
	DD	040H
	DD	FLAT:??_R3bad_array_new_length@std@@8
rdata$r	ENDS
;	COMDAT ??_R2bad_array_new_length@std@@8
rdata$r	SEGMENT
??_R2bad_array_new_length@std@@8 DD FLAT:??_R1A@?0A@EA@bad_array_new_length@std@@8 ; std::bad_array_new_length::`RTTI Base Class Array'
	DD	FLAT:??_R1A@?0A@EA@bad_alloc@std@@8
	DD	FLAT:??_R1A@?0A@EA@exception@std@@8
rdata$r	ENDS
;	COMDAT ??_R3bad_array_new_length@std@@8
rdata$r	SEGMENT
??_R3bad_array_new_length@std@@8 DD 00H			; std::bad_array_new_length::`RTTI Class Hierarchy Descriptor'
	DD	00H
	DD	03H
	DD	FLAT:??_R2bad_array_new_length@std@@8
rdata$r	ENDS
;	COMDAT ??_R4bad_array_new_length@std@@6B@
rdata$r	SEGMENT
??_R4bad_array_new_length@std@@6B@ DD 00H		; std::bad_array_new_length::`RTTI Complete Object Locator'
	DD	00H
	DD	00H
	DD	FLAT:??_R0?AVbad_array_new_length@std@@@8
	DD	FLAT:??_R3bad_array_new_length@std@@8
rdata$r	ENDS
;	COMDAT ??_R1A@?0A@EA@exception@std@@8
rdata$r	SEGMENT
??_R1A@?0A@EA@exception@std@@8 DD FLAT:??_R0?AVexception@std@@@8 ; std::exception::`RTTI Base Class Descriptor at (0,-1,0,64)'
	DD	00H
	DD	00H
	DD	0ffffffffH
	DD	00H
	DD	040H
	DD	FLAT:??_R3exception@std@@8
rdata$r	ENDS
;	COMDAT ??_R2exception@std@@8
rdata$r	SEGMENT
??_R2exception@std@@8 DD FLAT:??_R1A@?0A@EA@exception@std@@8 ; std::exception::`RTTI Base Class Array'
rdata$r	ENDS
;	COMDAT ??_R3exception@std@@8
rdata$r	SEGMENT
??_R3exception@std@@8 DD 00H				; std::exception::`RTTI Class Hierarchy Descriptor'
	DD	00H
	DD	01H
	DD	FLAT:??_R2exception@std@@8
rdata$r	ENDS
;	COMDAT ??_R4exception@std@@6B@
rdata$r	SEGMENT
??_R4exception@std@@6B@ DD 00H				; std::exception::`RTTI Complete Object Locator'
	DD	00H
	DD	00H
	DD	FLAT:??_R0?AVexception@std@@@8
	DD	FLAT:??_R3exception@std@@8
rdata$r	ENDS
;	COMDAT ??_7CAction@@6B@
CONST	SEGMENT
??_7CAction@@6B@ DD FLAT:??_R4CAction@@6B@		; CAction::`vftable'
	DD	FLAT:??_ECAction@@UAEPAXI@Z
	DD	FLAT:?SendActMsg@CAction@@UAEHW4OBJMSG@@HHHHH@Z
	DD	FLAT:?ProcessState@CAction@@UAEXKM@Z
	DD	FLAT:?Render@CAction@@UAEHPAUIDirect3DDevice9@@PAUD3DXMATRIX@@@Z
CONST	ENDS
;	COMDAT ??_7CMagicAtkMsgq@@6B@
CONST	SEGMENT
??_7CMagicAtkMsgq@@6B@ DD FLAT:??_R4CMagicAtkMsgq@@6B@	; CMagicAtkMsgq::`vftable'
	DD	FLAT:??_ECMagicAtkMsgq@@UAEPAXI@Z
CONST	ENDS
;	COMDAT ??_7?$CActMsgq@UtagMAGICATKMSG@@@@6B@
CONST	SEGMENT
??_7?$CActMsgq@UtagMAGICATKMSG@@@@6B@ DD FLAT:??_R4?$CActMsgq@UtagMAGICATKMSG@@@@6B@ ; CActMsgq<tagMAGICATKMSG>::`vftable'
	DD	FLAT:??_E?$CActMsgq@UtagMAGICATKMSG@@@@UAEPAXI@Z
CONST	ENDS
;	COMDAT ??_7CMeleeAtkMsgq@@6B@
CONST	SEGMENT
??_7CMeleeAtkMsgq@@6B@ DD FLAT:??_R4CMeleeAtkMsgq@@6B@	; CMeleeAtkMsgq::`vftable'
	DD	FLAT:??_ECMeleeAtkMsgq@@UAEPAXI@Z
CONST	ENDS
;	COMDAT ??_7?$CActMsgq@UtagACTMSG@@@@6B@
CONST	SEGMENT
??_7?$CActMsgq@UtagACTMSG@@@@6B@ DD FLAT:??_R4?$CActMsgq@UtagACTMSG@@@@6B@ ; CActMsgq<tagACTMSG>::`vftable'
	DD	FLAT:??_E?$CActMsgq@UtagACTMSG@@@@UAEPAXI@Z
CONST	ENDS
;	COMDAT __CT??_R0?AVbad_alloc@std@@@8??0bad_alloc@std@@QAE@ABV01@@Z12
xdata$x	SEGMENT
__CT??_R0?AVbad_alloc@std@@@8??0bad_alloc@std@@QAE@ABV01@@Z12 DD 010H
	DD	FLAT:??_R0?AVbad_alloc@std@@@8
	DD	00H
	DD	0ffffffffH
	ORG $+4
	DD	0cH
	DD	FLAT:??0bad_alloc@std@@QAE@ABV01@@Z
xdata$x	ENDS
;	COMDAT ??_R0?AVbad_alloc@std@@@8
data$r	SEGMENT
??_R0?AVbad_alloc@std@@@8 DD FLAT:??_7type_info@@6B@	; std::bad_alloc `RTTI Type Descriptor'
	DD	00H
	DB	'.?AVbad_alloc@std@@', 00H
data$r	ENDS
;	COMDAT __CT??_R0?AVbad_array_new_length@std@@@8??0bad_array_new_length@std@@QAE@ABV01@@Z12
xdata$x	SEGMENT
__CT??_R0?AVbad_array_new_length@std@@@8??0bad_array_new_length@std@@QAE@ABV01@@Z12 DD 00H
	DD	FLAT:??_R0?AVbad_array_new_length@std@@@8
	DD	00H
	DD	0ffffffffH
	ORG $+4
	DD	0cH
	DD	FLAT:??0bad_array_new_length@std@@QAE@ABV01@@Z
xdata$x	ENDS
;	COMDAT ??_R0?AVbad_array_new_length@std@@@8
data$r	SEGMENT
??_R0?AVbad_array_new_length@std@@@8 DD FLAT:??_7type_info@@6B@ ; std::bad_array_new_length `RTTI Type Descriptor'
	DD	00H
	DB	'.?AVbad_array_new_length@std@@', 00H
data$r	ENDS
;	COMDAT __CTA3?AVbad_array_new_length@std@@
xdata$x	SEGMENT
__CTA3?AVbad_array_new_length@std@@ DD 03H
	DD	FLAT:__CT??_R0?AVbad_array_new_length@std@@@8??0bad_array_new_length@std@@QAE@ABV01@@Z12
	DD	FLAT:__CT??_R0?AVbad_alloc@std@@@8??0bad_alloc@std@@QAE@ABV01@@Z12
	DD	FLAT:__CT??_R0?AVexception@std@@@8??0exception@std@@QAE@ABV01@@Z12
xdata$x	ENDS
;	COMDAT __TI3?AVbad_array_new_length@std@@
xdata$x	SEGMENT
__TI3?AVbad_array_new_length@std@@ DD 00H
	DD	FLAT:??1bad_array_new_length@std@@UAE@XZ
	DD	00H
	DD	FLAT:__CTA3?AVbad_array_new_length@std@@
xdata$x	ENDS
;	COMDAT __CT??_R0?AVexception@std@@@8??0exception@std@@QAE@ABV01@@Z12
xdata$x	SEGMENT
__CT??_R0?AVexception@std@@@8??0exception@std@@QAE@ABV01@@Z12 DD 00H
	DD	FLAT:??_R0?AVexception@std@@@8
	DD	00H
	DD	0ffffffffH
	ORG $+4
	DD	0cH
	DD	FLAT:??0exception@std@@QAE@ABV01@@Z
xdata$x	ENDS
;	COMDAT ??_R0?AVexception@std@@@8
data$r	SEGMENT
??_R0?AVexception@std@@@8 DD FLAT:??_7type_info@@6B@	; std::exception `RTTI Type Descriptor'
	DD	00H
	DB	'.?AVexception@std@@', 00H
data$r	ENDS
;	COMDAT ??_C@_0BF@KINCDENJ@bad?5array?5new?5length@
CONST	SEGMENT
??_C@_0BF@KINCDENJ@bad?5array?5new?5length@ DB 'bad array new length', 00H ; `string'
CONST	ENDS
;	COMDAT ??_7bad_array_new_length@std@@6B@
CONST	SEGMENT
??_7bad_array_new_length@std@@6B@ DD FLAT:??_R4bad_array_new_length@std@@6B@ ; std::bad_array_new_length::`vftable'
	DD	FLAT:??_Ebad_array_new_length@std@@UAEPAXI@Z
	DD	FLAT:?what@exception@std@@UBEPBDXZ
CONST	ENDS
;	COMDAT ??_7bad_alloc@std@@6B@
CONST	SEGMENT
??_7bad_alloc@std@@6B@ DD FLAT:??_R4bad_alloc@std@@6B@	; std::bad_alloc::`vftable'
	DD	FLAT:??_Ebad_alloc@std@@UAEPAXI@Z
	DD	FLAT:?what@exception@std@@UBEPBDXZ
CONST	ENDS
;	COMDAT ??_C@_0BC@EOODALEL@Unknown?5exception@
CONST	SEGMENT
??_C@_0BC@EOODALEL@Unknown?5exception@ DB 'Unknown exception', 00H ; `string'
CONST	ENDS
;	COMDAT ??_7exception@std@@6B@
CONST	SEGMENT
??_7exception@std@@6B@ DD FLAT:??_R4exception@std@@6B@	; std::exception::`vftable'
	DD	FLAT:??_Eexception@std@@UAEPAXI@Z
	DD	FLAT:?what@exception@std@@UBEPBDXZ
CONST	ENDS
;	COMDAT xdata$x
xdata$x	SEGMENT
__unwindtable$??0CAction@@QAE@PAVCMover@@@Z DD 0ffffffffH
	DD	FLAT:__unwindfunclet$??0CAction@@QAE@PAVCMover@@@Z$0
__ehfuncinfo$??0CAction@@QAE@PAVCMover@@@Z DD 019930522H
	DD	01H
	DD	FLAT:__unwindtable$??0CAction@@QAE@PAVCMover@@@Z
	DD	2 DUP(00H)
	DD	2 DUP(00H)
	DD	00H
	DD	01H
xdata$x	ENDS
;	COMDAT xdata$x
xdata$x	SEGMENT
__unwindtable$??0CAction@@QAE@XZ DD 0ffffffffH
	DD	FLAT:__unwindfunclet$??0CAction@@QAE@XZ$0
__ehfuncinfo$??0CAction@@QAE@XZ DD 019930522H
	DD	01H
	DD	FLAT:__unwindtable$??0CAction@@QAE@XZ
	DD	2 DUP(00H)
	DD	2 DUP(00H)
	DD	00H
	DD	01H
xdata$x	ENDS
; Function compile flags: /Ogtp
; File C:\Program Files\Microsoft Visual Studio\2022\Professional\VC\Tools\MSVC\14.44.35207\include\xmemory
;	COMDAT ??$_Allocate_manually_vector_aligned@U_Default_allocate_traits@std@@@std@@YAPAXI@Z
_TEXT	SEGMENT
__Bytes$ = 8						; size = 4
??$_Allocate_manually_vector_aligned@U_Default_allocate_traits@std@@@std@@YAPAXI@Z PROC ; std::_Allocate_manually_vector_aligned<std::_Default_allocate_traits>, COMDAT

; 182  : __declspec(allocator) void* _Allocate_manually_vector_aligned(const size_t _Bytes) {

  00000	55		 push	 ebp
  00001	8b ec		 mov	 ebp, esp

; 183  :     // allocate _Bytes manually aligned to at least _Big_allocation_alignment
; 184  :     const size_t _Block_size = _Non_user_size + _Bytes;

  00003	8b 45 08	 mov	 eax, DWORD PTR __Bytes$[ebp]
  00006	8d 48 23	 lea	 ecx, DWORD PTR [eax+35]

; 185  :     if (_Block_size <= _Bytes) {

  00009	3b c8		 cmp	 ecx, eax
  0000b	0f 86 00 00 00
	00		 jbe	 ?_Throw_bad_array_new_length@std@@YAXXZ ; std::_Throw_bad_array_new_length

; 136  :         return ::operator new(_Bytes);

  00011	51		 push	 ecx
  00012	e8 00 00 00 00	 call	 ??2@YAPAXI@Z		; operator new

; 186  :         _Throw_bad_array_new_length(); // add overflow
; 187  :     }
; 188  : 
; 189  :     const uintptr_t _Ptr_container = reinterpret_cast<uintptr_t>(_Traits::_Allocate(_Block_size));

  00017	8b c8		 mov	 ecx, eax

; 136  :         return ::operator new(_Bytes);

  00019	83 c4 04	 add	 esp, 4

; 190  :     _STL_VERIFY(_Ptr_container != 0, "invalid argument"); // validate even in release since we're doing p[-1]

  0001c	85 c9		 test	 ecx, ecx
  0001e	74 0b		 je	 SHORT $LN9@Allocate_m

; 191  :     void* const _Ptr = reinterpret_cast<void*>((_Ptr_container + _Non_user_size) & ~(_Big_allocation_alignment - 1));

  00020	8d 41 23	 lea	 eax, DWORD PTR [ecx+35]
  00023	83 e0 e0	 and	 eax, -32		; ffffffe0H

; 192  :     static_cast<uintptr_t*>(_Ptr)[-1] = _Ptr_container;

  00026	89 48 fc	 mov	 DWORD PTR [eax-4], ecx

; 193  : 
; 194  : #ifdef _DEBUG
; 195  :     static_cast<uintptr_t*>(_Ptr)[-2] = _Big_allocation_sentinel;
; 196  : #endif // defined(_DEBUG)
; 197  :     return _Ptr;
; 198  : }

  00029	5d		 pop	 ebp
  0002a	c3		 ret	 0
$LN9@Allocate_m:

; 190  :     _STL_VERIFY(_Ptr_container != 0, "invalid argument"); // validate even in release since we're doing p[-1]

  0002b	6a 00		 push	 0
  0002d	6a 00		 push	 0
  0002f	6a 00		 push	 0
  00031	6a 00		 push	 0
  00033	6a 00		 push	 0
  00035	e8 00 00 00 00	 call	 __invoke_watson
$LN7@Allocate_m:
  0003a	cc		 int	 3
??$_Allocate_manually_vector_aligned@U_Default_allocate_traits@std@@@std@@YAPAXI@Z ENDP ; std::_Allocate_manually_vector_aligned<std::_Default_allocate_traits>
_TEXT	ENDS
; Function compile flags: /Ogtp
;	COMDAT ??_GCAction@@UAEPAXI@Z
_TEXT	SEGMENT
___flags$ = 8						; size = 4
??_GCAction@@UAEPAXI@Z PROC				; CAction::`scalar deleting destructor', COMDAT
; _this$ = ecx
  00000	55		 push	 ebp
  00001	8b ec		 mov	 ebp, esp
  00003	56		 push	 esi
  00004	8b f1		 mov	 esi, ecx
  00006	e8 00 00 00 00	 call	 ??1CAction@@UAE@XZ	; CAction::~CAction
  0000b	f6 45 08 01	 test	 BYTE PTR ___flags$[ebp], 1
  0000f	74 0b		 je	 SHORT $LN5@scalar
  00011	6a 40		 push	 64			; 00000040H
  00013	56		 push	 esi
  00014	e8 00 00 00 00	 call	 ??3@YAXPAXI@Z		; operator delete
  00019	83 c4 08	 add	 esp, 8
$LN5@scalar:
  0001c	8b c6		 mov	 eax, esi
  0001e	5e		 pop	 esi
  0001f	5d		 pop	 ebp
  00020	c2 04 00	 ret	 4
??_GCAction@@UAEPAXI@Z ENDP				; CAction::`scalar deleting destructor'
_TEXT	ENDS
; Function compile flags: /Ogtp
; File C:\IAGOS\server\v18\Source\Source\_aiinterface\action.cpp
;	COMDAT ?ProcessAtkMsg@CAction@@AAEXXZ
_TEXT	SEGMENT
?ProcessAtkMsg@CAction@@AAEXXZ PROC			; CAction::ProcessAtkMsg, COMDAT
; _this$ = ecx

; 57   : {

  00000	56		 push	 esi
  00001	8b f1		 mov	 esi, ecx

; 58   : 	if( !m_qMeleeAtkMsg.Process( this ) )

  00003	56		 push	 esi
  00004	8d 4e 10	 lea	 ecx, DWORD PTR [esi+16]
  00007	e8 00 00 00 00	 call	 ?Process@CMeleeAtkMsgq@@QAEHPAVCAction@@@Z ; CMeleeAtkMsgq::Process
  0000c	85 c0		 test	 eax, eax
  0000e	75 0b		 jne	 SHORT $LN2@ProcessAtk

; 59   : 		m_qMagicAtkMsg.Process( GetMover() );

  00010	ff 76 0c	 push	 DWORD PTR [esi+12]
  00013	8d 4e 28	 lea	 ecx, DWORD PTR [esi+40]
  00016	e8 00 00 00 00	 call	 ?Process@CMagicAtkMsgq@@QAEHPAVCMover@@@Z ; CMagicAtkMsgq::Process
$LN2@ProcessAtk:

; 60   : }

  0001b	5e		 pop	 esi
  0001c	c3		 ret	 0
?ProcessAtkMsg@CAction@@AAEXXZ ENDP			; CAction::ProcessAtkMsg
_TEXT	ENDS
; Function compile flags: /Ogtp
; File C:\IAGOS\server\v18\Source\Source\_AIInterface\Action.h
;	COMDAT ?Render@CAction@@UAEHPAUIDirect3DDevice9@@PAUD3DXMATRIX@@@Z
_TEXT	SEGMENT
_pd3dDevice$ = 8					; size = 4
_pmatWorld$ = 12					; size = 4
?Render@CAction@@UAEHPAUIDirect3DDevice9@@PAUD3DXMATRIX@@@Z PROC ; CAction::Render, COMDAT
; _this$ = ecx

; 338  : 	virtual	BOOL	Render( LPDIRECT3DDEVICE9 pd3dDevice, D3DXMATRIX* pmatWorld = NULL ) { return TRUE; }

  00000	b8 01 00 00 00	 mov	 eax, 1
  00005	c2 08 00	 ret	 8
?Render@CAction@@UAEHPAUIDirect3DDevice9@@PAUD3DXMATRIX@@@Z ENDP ; CAction::Render
_TEXT	ENDS
; Function compile flags: /Ogtp
; File C:\IAGOS\server\v18\Source\Source\_AIInterface\Action.h
;	COMDAT ?ProcessState@CAction@@UAEXKM@Z
_TEXT	SEGMENT
_dwState$ = 8						; size = 4
_fSpeed$ = 12						; size = 4
?ProcessState@CAction@@UAEXKM@Z PROC			; CAction::ProcessState, COMDAT
; _this$ = ecx

; 337  : 	virtual	void	ProcessState( DWORD dwState, float fSpeed ) { }

  00000	c2 08 00	 ret	 8
?ProcessState@CAction@@UAEXKM@Z ENDP			; CAction::ProcessState
_TEXT	ENDS
; Function compile flags: /Ogtp
; File C:\IAGOS\server\v18\Source\Source\_AIInterface\Action.h
;	COMDAT ?SendActMsg@CAction@@UAEHW4OBJMSG@@HHHHH@Z
_TEXT	SEGMENT
_dwMsg$ = 8						; size = 4
_nParam1$ = 12						; size = 4
_nParam2$ = 16						; size = 4
_nParam3$ = 20						; size = 4
_nParam4$ = 24						; size = 4
_nParam5$ = 28						; size = 4
?SendActMsg@CAction@@UAEHW4OBJMSG@@HHHHH@Z PROC		; CAction::SendActMsg, COMDAT
; _this$ = ecx

; 336  : 	virtual	int		SendActMsg( OBJMSG dwMsg, int nParam1 = 0, int nParam2 = 0, int nParam3 = 0, int nParam4 = 0, int nParam5 = 0 )	{	return( 1 );	}

  00000	b8 01 00 00 00	 mov	 eax, 1
  00005	c2 18 00	 ret	 24			; 00000018H
?SendActMsg@CAction@@UAEHW4OBJMSG@@HHHHH@Z ENDP		; CAction::SendActMsg
_TEXT	ENDS
; Function compile flags: /Ogtp
; File C:\IAGOS\server\v18\Source\Source\_aiinterface\action.cpp
;	COMDAT ?OnEndActionState@CAction@@QAEXXZ
_TEXT	SEGMENT
?OnEndActionState@CAction@@QAEXXZ PROC			; CAction::OnEndActionState, COMDAT
; _this$ = ecx

; 144  : 	// ŔĚ°÷żˇ ±×żÜ ÇĘżäÇŃ ÄÚµĺ¸¦ łÖŔ¸ĽŔ.
; 145  : }

  00000	c2 00 00	 ret	 0
?OnEndActionState@CAction@@QAEXXZ ENDP			; CAction::OnEndActionState
_TEXT	ENDS
; Function compile flags: /Ogtp
; File C:\IAGOS\server\v18\Source\Source\_aiinterface\action.cpp
;	COMDAT ?OnEndDamageState@CAction@@QAEXXZ
_TEXT	SEGMENT
?OnEndDamageState@CAction@@QAEXXZ PROC			; CAction::OnEndDamageState, COMDAT
; _this$ = ecx

; 139  : 	// ŔĚ°÷żˇ ±×żÜ ÇĘżäÇŃ ÄÚµĺ¸¦ łÖŔ¸ĽŔ.
; 140  : }

  00000	c2 00 00	 ret	 0
?OnEndDamageState@CAction@@QAEXXZ ENDP			; CAction::OnEndDamageState
_TEXT	ENDS
; Function compile flags: /Ogtp
; File C:\IAGOS\server\v18\Source\Source\_aiinterface\action.cpp
; File C:\Program Files\Microsoft Visual Studio\2022\Professional\VC\Tools\MSVC\14.44.35207\include\deque
; File C:\IAGOS\server\v18\Source\Source\_AIInterface\Action.h
; File C:\Program Files\Microsoft Visual Studio\2022\Professional\VC\Tools\MSVC\14.44.35207\include\deque
; File C:\IAGOS\server\v18\Source\Source\_AIInterface\Action.h
; File C:\IAGOS\server\v18\Source\Source\_aiinterface\action.cpp
;	COMDAT ?OnEndAttackState@CAction@@QAEXK@Z
_TEXT	SEGMENT
_dwState$ = 8						; size = 4
?OnEndAttackState@CAction@@QAEXK@Z PROC			; CAction::OnEndAttackState, COMDAT
; _this$ = ecx

; 102  : {

  00000	55		 push	 ebp
  00001	8b ec		 mov	 ebp, esp

; 103  : 	// ŔĚ°÷żˇ ±×żÜ ÇĘżäÇŃ ÄÚµĺ¸¦ łÖŔ¸ĽŔ.
; 104  : 	switch( dwState & OBJSTA_ATK_ALL )

  00003	8b 45 08	 mov	 eax, DWORD PTR _dwState$[ebp]
  00006	25 00 00 ff 00	 and	 eax, 16711680		; 00ff0000H
  0000b	3d 00 00 06 00	 cmp	 eax, 393216		; 00060000H
  00010	77 2f		 ja	 SHORT $LN17@OnEndAttac
  00012	74 44		 je	 SHORT $LN4@OnEndAttac
  00014	3d 00 00 03 00	 cmp	 eax, 196608		; 00030000H
  00019	77 14		 ja	 SHORT $LN18@OnEndAttac
  0001b	74 3b		 je	 SHORT $LN4@OnEndAttac
  0001d	3d 00 00 01 00	 cmp	 eax, 65536		; 00010000H
  00022	74 34		 je	 SHORT $LN4@OnEndAttac
  00024	3d 00 00 02 00	 cmp	 eax, 131072		; 00020000H
  00029	74 2d		 je	 SHORT $LN4@OnEndAttac

; 133  : 		break;
; 134  : 	}
; 135  : }

  0002b	5d		 pop	 ebp
  0002c	c2 04 00	 ret	 4
$LN18@OnEndAttac:

; 103  : 	// ŔĚ°÷żˇ ±×żÜ ÇĘżäÇŃ ÄÚµĺ¸¦ łÖŔ¸ĽŔ.
; 104  : 	switch( dwState & OBJSTA_ATK_ALL )

  0002f	3d 00 00 04 00	 cmp	 eax, 262144		; 00040000H
  00034	74 22		 je	 SHORT $LN4@OnEndAttac
  00036	3d 00 00 05 00	 cmp	 eax, 327680		; 00050000H
  0003b	74 1b		 je	 SHORT $LN4@OnEndAttac

; 133  : 		break;
; 134  : 	}
; 135  : }

  0003d	5d		 pop	 ebp
  0003e	c2 04 00	 ret	 4
$LN17@OnEndAttac:

; 103  : 	// ŔĚ°÷żˇ ±×żÜ ÇĘżäÇŃ ÄÚµĺ¸¦ łÖŔ¸ĽŔ.
; 104  : 	switch( dwState & OBJSTA_ATK_ALL )

  00041	3d 00 00 09 00	 cmp	 eax, 589824		; 00090000H
  00046	77 49		 ja	 SHORT $LN19@OnEndAttac
  00048	74 3b		 je	 SHORT $LN14@OnEndAttac
  0004a	3d 00 00 07 00	 cmp	 eax, 458752		; 00070000H
  0004f	74 07		 je	 SHORT $LN4@OnEndAttac
  00051	3d 00 00 08 00	 cmp	 eax, 524288		; 00080000H
  00056	75 48		 jne	 SHORT $LN2@OnEndAttac
$LN4@OnEndAttac:

; 105  : 	{
; 106  : 	case OBJSTA_ATK1:
; 107  : 	case OBJSTA_ATK2:
; 108  : 	case OBJSTA_ATK3:
; 109  : 	case OBJSTA_ATK4:
; 110  : 	case OBJSTA_ATK_MAGIC1:
; 111  : 	case OBJSTA_ATK_RANGE1:
; 112  : 	case OBJSTA_RANGE3:
; 113  : 	case OBJSTA_RANGE4:
; 114  : #ifdef __WORLDSERVER
; 115  : 		if( m_pMover->IsPlayer() && m_pMover->IsFly() )	

  00058	8b 41 0c	 mov	 eax, DWORD PTR [ecx+12]
  0005b	83 b8 30 02 00
	00 00		 cmp	 DWORD PTR [eax+560], 0
  00062	74 0c		 je	 SHORT $LN12@OnEndAttac
  00064	8b 80 38 02 00
	00		 mov	 eax, DWORD PTR [eax+568]
  0006a	f6 40 08 08	 test	 BYTE PTR [eax+8], 8
  0006e	75 30		 jne	 SHORT $LN2@OnEndAttac
$LN12@OnEndAttac:
; File C:\Program Files\Microsoft Visual Studio\2022\Professional\VC\Tools\MSVC\14.44.35207\include\deque

; 971  :         return _Mysize() == 0;

  00070	83 79 24 00	 cmp	 DWORD PTR [ecx+36], 0
; File C:\IAGOS\server\v18\Source\Source\_AIInterface\Action.h

; 341  : 	BOOL			IsAtkMsgEmpty()	{	return( m_qMeleeAtkMsg.IsEmpty() && m_qMagicAtkMsg.IsEmpty() );	}

  00074	75 06		 jne	 SHORT $LN38@OnEndAttac
; File C:\Program Files\Microsoft Visual Studio\2022\Professional\VC\Tools\MSVC\14.44.35207\include\deque

; 971  :         return _Mysize() == 0;

  00076	83 79 3c 00	 cmp	 DWORD PTR [ecx+60], 0
; File C:\IAGOS\server\v18\Source\Source\_AIInterface\Action.h

; 341  : 	BOOL			IsAtkMsgEmpty()	{	return( m_qMeleeAtkMsg.IsEmpty() && m_qMagicAtkMsg.IsEmpty() );	}

  0007a	74 24		 je	 SHORT $LN2@OnEndAttac
$LN38@OnEndAttac:
; File C:\IAGOS\server\v18\Source\Source\_aiinterface\action.cpp

; 119  : 			ProcessAtkMsg();

  0007c	e8 00 00 00 00	 call	 ?ProcessAtkMsg@CAction@@AAEXXZ ; CAction::ProcessAtkMsg

; 133  : 		break;
; 134  : 	}
; 135  : }

  00081	5d		 pop	 ebp
  00082	c2 04 00	 ret	 4
$LN14@OnEndAttac:

; 120  : #else // worldserver
; 121  : 		if( m_pMover->IsActiveMover() == FALSE )
; 122  : 		{
; 123  : 			if( !IsAtkMsgEmpty() )
; 124  : 				ProcessAtkMsg();
; 125  : 		}
; 126  : #endif // not worldserver
; 127  : 		break;
; 128  : 	case OBJSTA_ATK_MELEESKILL:
; 129  : 		m_pMover->OnActEndMeleeSkill();		// ±ŮÁ˘˝şĹł µżŔŰ łˇł˛.

  00085	8b 49 0c	 mov	 ecx, DWORD PTR [ecx+12]
  00088	e8 00 00 00 00	 call	 ?OnActEndMeleeSkill@CMover@@QAEXXZ ; CMover::OnActEndMeleeSkill

; 133  : 		break;
; 134  : 	}
; 135  : }

  0008d	5d		 pop	 ebp
  0008e	c2 04 00	 ret	 4
$LN19@OnEndAttac:

; 103  : 	// ŔĚ°÷żˇ ±×żÜ ÇĘżäÇŃ ÄÚµĺ¸¦ łÖŔ¸ĽŔ.
; 104  : 	switch( dwState & OBJSTA_ATK_ALL )

  00091	3d 00 00 0d 00	 cmp	 eax, 851968		; 000d0000H
  00096	75 08		 jne	 SHORT $LN2@OnEndAttac

; 130  : 		break;
; 131  : 	case OBJSTA_ATK_MAGICSKILL:
; 132  : 		m_pMover->OnActEndMagicSkill();		// ¸¶ąý˝şĹł µżŔŰ łˇł˛.

  00098	8b 49 0c	 mov	 ecx, DWORD PTR [ecx+12]
  0009b	e8 00 00 00 00	 call	 ?OnActEndMagicSkill@CMover@@QAEXXZ ; CMover::OnActEndMagicSkill
$LN2@OnEndAttac:

; 133  : 		break;
; 134  : 	}
; 135  : }

  000a0	5d		 pop	 ebp
  000a1	c2 04 00	 ret	 4
?OnEndAttackState@CAction@@QAEXK@Z ENDP			; CAction::OnEndAttackState
_TEXT	ENDS
; Function compile flags: /Ogtp
; File C:\IAGOS\server\v18\Source\Source\_aiinterface\action.cpp
;	COMDAT ?OnEndJumpState@CAction@@QAEXK@Z
_TEXT	SEGMENT
_dwState$ = 8						; size = 4
?OnEndJumpState@CAction@@QAEXK@Z PROC			; CAction::OnEndJumpState, COMDAT
; _this$ = ecx

; 91   : {

  00000	55		 push	 ebp
  00001	8b ec		 mov	 ebp, esp

; 92   : 	// ŔĚ°÷żˇ ±×żÜ ÇĘżäÇŃ ÄÚµĺ¸¦ łÖŔ¸ĽŔ.
; 93   : 	switch( dwState & OBJSTA_JUMP_ALL )

  00003	8b 45 08	 mov	 eax, DWORD PTR _dwState$[ebp]
  00006	25 00 f0 00 00	 and	 eax, 61440		; 0000f000H
  0000b	3d 00 80 00 00	 cmp	 eax, 32768		; 00008000H
  00010	75 08		 jne	 SHORT $LN2@OnEndJumpS

; 94   : 	{
; 95   : 	case OBJSTA_SJUMP4:		// ÂřÁö µżŔŰ Áß.
; 96   : 		m_pMover->OnActEndJump4();

  00012	8b 49 0c	 mov	 ecx, DWORD PTR [ecx+12]
  00015	e8 00 00 00 00	 call	 ?OnActEndJump4@CMover@@QAEXXZ ; CMover::OnActEndJump4
$LN2@OnEndJumpS:

; 97   : 		break;
; 98   : 	}
; 99   : }

  0001a	5d		 pop	 ebp
  0001b	c2 04 00	 ret	 4
?OnEndJumpState@CAction@@QAEXK@Z ENDP			; CAction::OnEndJumpState
_TEXT	ENDS
; Function compile flags: /Ogtp
; File C:\IAGOS\server\v18\Source\Source\_aiinterface\action.cpp
;	COMDAT ?OnEndLookState@CAction@@QAEXXZ
_TEXT	SEGMENT
?OnEndLookState@CAction@@QAEXXZ PROC			; CAction::OnEndLookState, COMDAT
; _this$ = ecx

; 87   : 	// ŔĚ°÷żˇ ±×żÜ ÇĘżäÇŃ ÄÚµĺ¸¦ łÖŔ¸ĽŔ.
; 88   : }

  00000	c2 00 00	 ret	 0
?OnEndLookState@CAction@@QAEXXZ ENDP			; CAction::OnEndLookState
_TEXT	ENDS
; Function compile flags: /Ogtp
; File C:\IAGOS\server\v18\Source\Source\_aiinterface\action.cpp
;	COMDAT ?OnEndTurnState@CAction@@QAEXXZ
_TEXT	SEGMENT
?OnEndTurnState@CAction@@QAEXXZ PROC			; CAction::OnEndTurnState, COMDAT
; _this$ = ecx

; 82   : 	// ŔĚ°÷żˇ ±×żÜ ÇĘżäÇŃ ÄÚµĺ¸¦ łÖŔ¸ĽŔ.
; 83   : }

  00000	c2 00 00	 ret	 0
?OnEndTurnState@CAction@@QAEXXZ ENDP			; CAction::OnEndTurnState
_TEXT	ENDS
; Function compile flags: /Ogtp
; File C:\IAGOS\server\v18\Source\Source\_aiinterface\action.cpp
;	COMDAT ?OnEndMoveState@CAction@@QAEXXZ
_TEXT	SEGMENT
?OnEndMoveState@CAction@@QAEXXZ PROC			; CAction::OnEndMoveState, COMDAT
; _this$ = ecx

; 71   : 	// ŔĚ°÷żˇ ±×żÜ ÇĘżäÇŃ ÄÚµĺ¸¦ łÖŔ¸ĽŔ.
; 72   : 	switch( m_dwState & OBJSTA_MOVE_ALL )

  00000	80 79 04 03	 cmp	 BYTE PTR [ecx+4], 3
  00004	75 04		 jne	 SHORT $LN2@OnEndMoveS

; 73   : 	{
; 74   : 	case OBJSTA_SIT:		// ÂřÁö µżŔŰ Áß.
; 75   : 		m_dwStateFlag &= (~OBJSTAF_SIT);

  00006	83 61 08 fb	 and	 DWORD PTR [ecx+8], -5	; fffffffbH
$LN2@OnEndMoveS:

; 76   : 		break;
; 77   : 	}	
; 78   : }

  0000a	c3		 ret	 0
?OnEndMoveState@CAction@@QAEXXZ ENDP			; CAction::OnEndMoveState
_TEXT	ENDS
; Function compile flags: /Ogtp
; File C:\IAGOS\server\v18\Source\Source\_aiinterface\action.cpp
;	COMDAT ?ResetState@CAction@@QAEXK@Z
_TEXT	SEGMENT
_dw$1$ = -4						; size = 4
_dwState$ = 8						; size = 4
?ResetState@CAction@@QAEXK@Z PROC			; CAction::ResetState, COMDAT
; _this$ = ecx

; 164  : { 

  00000	55		 push	 ebp
  00001	8b ec		 mov	 ebp, esp
  00003	51		 push	 ecx
  00004	53		 push	 ebx

; 165  : 	DWORD dw	= m_dwState;
; 166  : 	if( dwState & OBJSTA_MOVE_ALL )

  00005	8b 5d 08	 mov	 ebx, DWORD PTR _dwState$[ebp]
  00008	56		 push	 esi
  00009	8b f1		 mov	 esi, ecx
  0000b	57		 push	 edi
  0000c	8b fb		 mov	 edi, ebx
  0000e	f7 d7		 not	 edi
  00010	8b 56 04	 mov	 edx, DWORD PTR [esi+4]
  00013	89 55 fc	 mov	 DWORD PTR _dw$1$[ebp], edx
  00016	84 db		 test	 bl, bl
  00018	74 10		 je	 SHORT $LN10@ResetState

; 167  : 	{
; 168  : 		OnEndMoveState();				// ÇÚµé·Ż ČŁĂâ

  0001a	e8 00 00 00 00	 call	 ?OnEndMoveState@CAction@@QAEXXZ ; CAction::OnEndMoveState

; 169  : 		m_dwState &= (~dwState);		// ÇŘ´ç şńĆ®°Ş Ĺ¬¸®ľî.

  0001f	21 7e 04	 and	 DWORD PTR [esi+4], edi
  00022	8b 4e 04	 mov	 ecx, DWORD PTR [esi+4]
  00025	8b 55 fc	 mov	 edx, DWORD PTR _dw$1$[ebp]
  00028	eb 02		 jmp	 SHORT $LN2@ResetState
$LN10@ResetState:
  0002a	8b ca		 mov	 ecx, edx
$LN2@ResetState:

; 170  : 	}
; 171  : 	
; 172  : 	if( dwState & OBJSTA_TURN_ALL )

  0002c	f7 c3 00 03 00
	00		 test	 ebx, 768		; 00000300H
  00032	74 09		 je	 SHORT $LN3@ResetState

; 173  : 	{
; 174  : 		OnEndTurnState();
; 175  : 		m_dwState &= (~dwState);		// ÇŘ´ç şńĆ®°Ş Ĺ¬¸®ľî.

  00034	8b c7		 mov	 eax, edi
  00036	23 c1		 and	 eax, ecx
  00038	89 46 04	 mov	 DWORD PTR [esi+4], eax
  0003b	8b c8		 mov	 ecx, eax
$LN3@ResetState:

; 176  : 	}
; 177  : 	
; 178  : 	if( dwState & OBJSTA_LOOK_ALL )

  0003d	f7 c3 00 0c 00
	00		 test	 ebx, 3072		; 00000c00H
  00043	74 09		 je	 SHORT $LN4@ResetState

; 179  : 	{
; 180  : 		OnEndLookState();
; 181  : 		m_dwState &= (~dwState);		// ÇŘ´ç şńĆ®°Ş Ĺ¬¸®ľî.

  00045	8b c7		 mov	 eax, edi
  00047	23 c1		 and	 eax, ecx
  00049	89 46 04	 mov	 DWORD PTR [esi+4], eax
  0004c	8b c8		 mov	 ecx, eax
$LN4@ResetState:

; 182  : 	}
; 183  : 	
; 184  : 	if( dwState & OBJSTA_JUMP_ALL )

  0004e	f7 c3 00 f0 00
	00		 test	 ebx, 61440		; 0000f000H
  00054	74 0f		 je	 SHORT $LN5@ResetState

; 185  : 	{
; 186  : 		m_dwState &= (~dwState);		// ÇŘ´ç şńĆ®°Ş Ĺ¬¸®ľî.

  00056	8b c7		 mov	 eax, edi
  00058	23 c1		 and	 eax, ecx

; 187  : 		OnEndJumpState( dw );

  0005a	8b ce		 mov	 ecx, esi
  0005c	52		 push	 edx
  0005d	89 46 04	 mov	 DWORD PTR [esi+4], eax
  00060	e8 00 00 00 00	 call	 ?OnEndJumpState@CAction@@QAEXK@Z ; CAction::OnEndJumpState
$LN5@ResetState:

; 188  : 	}
; 189  : 	
; 190  : 	if( dwState &	OBJSTA_ATK_ALL )

  00065	f7 c3 00 00 ff
	00		 test	 ebx, 16711680		; 00ff0000H
  0006b	74 0d		 je	 SHORT $LN6@ResetState

; 191  : 	{
; 192  : 		m_dwState &= (~dwState);		// ÇŘ´ç şńĆ®°Ş Ĺ¬¸®ľî.
; 193  : 		OnEndAttackState(dw);

  0006d	ff 75 fc	 push	 DWORD PTR _dw$1$[ebp]
  00070	21 7e 04	 and	 DWORD PTR [esi+4], edi
  00073	8b ce		 mov	 ecx, esi
  00075	e8 00 00 00 00	 call	 ?OnEndAttackState@CAction@@QAEXK@Z ; CAction::OnEndAttackState
$LN6@ResetState:

; 194  : 	}
; 195  : 	
; 196  : 	if( dwState &	OBJSTA_DMG_ALL )

  0007a	f7 c3 00 00 00
	0f		 test	 ebx, 251658240		; 0f000000H
  00080	74 03		 je	 SHORT $LN12@ResetState

; 197  : 	{
; 198  : 		OnEndDamageState();
; 199  : 		m_dwState &= (~dwState);		// ÇŘ´ç şńĆ®°Ş Ĺ¬¸®ľî.

  00082	21 7e 04	 and	 DWORD PTR [esi+4], edi
$LN12@ResetState:

; 200  : 	}
; 201  : 	
; 202  : 	if( dwState & OBJSTA_ACTION_ALL )

  00085	f7 c3 00 00 00
	f0		 test	 ebx, -268435456		; f0000000H
  0008b	74 03		 je	 SHORT $LN8@ResetState

; 203  : 	{
; 204  : 		OnEndActionState();
; 205  : 		m_dwState &= (~dwState);

  0008d	21 7e 04	 and	 DWORD PTR [esi+4], edi
$LN8@ResetState:
  00090	5f		 pop	 edi

; 206  : 	}
; 207  : }

  00091	5e		 pop	 esi
  00092	5b		 pop	 ebx
  00093	8b e5		 mov	 esp, ebp
  00095	5d		 pop	 ebp
  00096	c2 04 00	 ret	 4
?ResetState@CAction@@QAEXK@Z ENDP			; CAction::ResetState
_TEXT	ENDS
; Function compile flags: /Ogtp
; File C:\IAGOS\server\v18\Source\Source\_aiinterface\action.cpp
;	COMDAT ?ClearState@CAction@@QAEXXZ
_TEXT	SEGMENT
?ClearState@CAction@@QAEXXZ PROC			; CAction::ClearState, COMDAT
; _this$ = ecx

; 148  : {

  00000	56		 push	 esi
  00001	8b f1		 mov	 esi, ecx
  00003	57		 push	 edi

; 149  : 	DWORD dwState = m_dwState;
; 150  : 	// 0xFFFFFFFF ·Î ÇŃ˛¨ąřżˇ ¸®ĽÂ ˝ĂĹ°Áö ¸»°Í.
; 151  : //	ResetState( OBJSTA_MOVE_ALL | OBJSTA_TURN_ALL | OBJSTA_LOOK_ALL | OBJSTA_JUMP_ALL | OBJSTA_ATK_ALL | OBJSTA_DMG_ALL );
; 152  : 	ResetState( OBJSTA_ALL );

  00004	6a ff		 push	 -1
  00006	8b 7e 04	 mov	 edi, DWORD PTR [esi+4]
  00009	e8 00 00 00 00	 call	 ?ResetState@CAction@@QAEXK@Z ; CAction::ResetState

; 153  : 	
; 154  : 	if( m_dwState )

  0000e	8b 46 04	 mov	 eax, DWORD PTR [esi+4]
  00011	85 c0		 test	 eax, eax
  00013	74 16		 je	 SHORT $LN2@ClearState

; 155  : 	{
; 156  : 		Error( "CAction::ClearState : ľĆÁ÷µµ ąş°ˇ Ĺ¬¸®ľîµÇÁö ľĘŔş °ŞŔĚ ŔÖ´Ů. %08x, %08x", dwState, m_dwState );

  00015	50		 push	 eax
  00016	57		 push	 edi
  00017	68 00 00 00 00	 push	 OFFSET ??_C@_0EI@HGFDNHGL@CAction?3?3ClearState?5?3?5?$LO?F?A?w?$LF?$LF?5?$LJ?$LK@
  0001c	e8 00 00 00 00	 call	 ?Error@@YAPBDPBDZZ	; Error
  00021	83 c4 0c	 add	 esp, 12			; 0000000cH

; 157  : 		m_dwState = 0; 

  00024	c7 46 04 00 00
	00 00		 mov	 DWORD PTR [esi+4], 0
$LN2@ClearState:

; 158  : 	}
; 159  : }

  0002b	5f		 pop	 edi
  0002c	5e		 pop	 esi
  0002d	c3		 ret	 0
?ClearState@CAction@@QAEXXZ ENDP			; CAction::ClearState
_TEXT	ENDS
; Function compile flags: /Ogtp
; File C:\IAGOS\server\v18\Source\Source\_aiinterface\action.cpp
;	COMDAT ?RemoveStateFlag@CAction@@QAEXK@Z
_TEXT	SEGMENT
_dwFlag$ = 8						; size = 4
?RemoveStateFlag@CAction@@QAEXK@Z PROC			; CAction::RemoveStateFlag, COMDAT
; _this$ = ecx

; 44   : {

  00000	55		 push	 ebp
  00001	8b ec		 mov	 ebp, esp

; 45   : #ifdef __BS_EFFECT_LUA
; 46   : 	// »óĹÂ°ˇ ÇŘÁ¦µÉ°ćżě luażˇĽ­ ČŁĂâÇŃ ¸đµç »óĹÂČż°ú¸¦ ÇŘÁ¦ÇŃ´Ů.
; 47   : 	if( dwFlag & OBJSTAF_COMBAT )
; 48   : 	{
; 49   : 		//ŔüĹő »óĹÂČż°ú ÇŘÁ¦
; 50   : 		CSfxModelMng::GetThis()->SubData( m_pMover->GetId(), OBJSTAF_COMBAT );
; 51   : 	}
; 52   : #endif //__BS_EFFECT_LUA
; 53   : 	m_dwStateFlag &= (~dwFlag);

  00003	8b 45 08	 mov	 eax, DWORD PTR _dwFlag$[ebp]
  00006	f7 d0		 not	 eax
  00008	21 41 08	 and	 DWORD PTR [ecx+8], eax

; 54   : }

  0000b	5d		 pop	 ebp
  0000c	c2 04 00	 ret	 4
?RemoveStateFlag@CAction@@QAEXK@Z ENDP			; CAction::RemoveStateFlag
_TEXT	ENDS
; Function compile flags: /Ogtp
; File C:\IAGOS\server\v18\Source\Source\_aiinterface\action.cpp
;	COMDAT ?AddStateFlag@CAction@@QAEXK@Z
_TEXT	SEGMENT
_dwFlag$ = 8						; size = 4
?AddStateFlag@CAction@@QAEXK@Z PROC			; CAction::AddStateFlag, COMDAT
; _this$ = ecx

; 30   : {

  00000	55		 push	 ebp
  00001	8b ec		 mov	 ebp, esp

; 31   : #ifdef __BS_EFFECT_LUA
; 32   : 	//»óĹÂ°ˇ Ăß°ˇµÉ °ćżě ĂÖĂĘŔÎ°ćżěżˇ Čż°ú¸¦ ąß»ý˝ĂĹ˛´Ů.
; 33   : 	if( dwFlag & OBJSTAF_COMBAT && !IsStateFlag( OBJSTAF_COMBAT ) )	
; 34   : 	{
; 35   : 		// ¸¸ľŕ ŔüĹő»óĹÂ·Î ĂłŔ˝ µąŔÔÇĎ´Â°Ĺ¶ó¸é »óĹÂş° Čż°ú¸¦ ČŁĂâÇŃ´Ů. ŔĎ´Ü npc·ů¸¸ 
; 36   : 		if( m_pMover->IsNPC( ) )
; 37   : 			run_lua_sfx( OBJSTAF_COMBAT, m_pMover->GetId(), m_pMover->GetNameO3D() );
; 38   : 	}
; 39   : #endif //__BS_EFFECT_LUA
; 40   : 	m_dwStateFlag |= dwFlag; 

  00003	8b 45 08	 mov	 eax, DWORD PTR _dwFlag$[ebp]
  00006	09 41 08	 or	 DWORD PTR [ecx+8], eax

; 41   : }

  00009	5d		 pop	 ebp
  0000a	c2 04 00	 ret	 4
?AddStateFlag@CAction@@QAEXK@Z ENDP			; CAction::AddStateFlag
_TEXT	ENDS
; Function compile flags: /Ogtp
; File C:\IAGOS\server\v18\Source\Source\_aiinterface\action.cpp
;	COMDAT ?Init@CAction@@QAEXXZ
_TEXT	SEGMENT
?Init@CAction@@QAEXXZ PROC				; CAction::Init, COMDAT
; _this$ = ecx

; 24   : 	m_pMover		= NULL;

  00000	c7 41 0c 00 00
	00 00		 mov	 DWORD PTR [ecx+12], 0

; 25   : 	m_dwState		= 0;

  00007	c7 41 04 00 00
	00 00		 mov	 DWORD PTR [ecx+4], 0

; 26   : 	m_dwStateFlag	= 0;

  0000e	c7 41 08 00 00
	00 00		 mov	 DWORD PTR [ecx+8], 0

; 27   : }

  00015	c3		 ret	 0
?Init@CAction@@QAEXXZ ENDP				; CAction::Init
_TEXT	ENDS
; Function compile flags: /Ogtp
; File C:\IAGOS\server\v18\Source\Source\_aiinterface\action.cpp
;	COMDAT ?GetWorld@CAction@@QAEPAVCWorld@@XZ
_TEXT	SEGMENT
?GetWorld@CAction@@QAEPAVCWorld@@XZ PROC		; CAction::GetWorld, COMDAT
; _this$ = ecx

; 65   : 	return m_pMover->GetWorld(); 

  00000	8b 41 0c	 mov	 eax, DWORD PTR [ecx+12]
  00003	8b 80 6c 01 00
	00		 mov	 eax, DWORD PTR [eax+364]

; 66   : }

  00009	c3		 ret	 0
?GetWorld@CAction@@QAEPAVCWorld@@XZ ENDP		; CAction::GetWorld
_TEXT	ENDS
; Function compile flags: /Ogtp
; File C:\IAGOS\server\v18\Source\Source\_aiinterface\action.cpp
; File C:\IAGOS\server\v18\Source\Source\_AIInterface\Action.h
; File C:\IAGOS\server\v18\Source\Source\_aiinterface\action.cpp
; File C:\IAGOS\server\v18\Source\Source\_AIInterface\Action.h
; File C:\IAGOS\server\v18\Source\Source\_aiinterface\action.cpp
; File C:\IAGOS\server\v18\Source\Source\_AIInterface\Action.h
; File C:\IAGOS\server\v18\Source\Source\_aiinterface\action.cpp
;	COMDAT ??1CAction@@UAE@XZ
_TEXT	SEGMENT
??1CAction@@UAE@XZ PROC					; CAction::~CAction, COMDAT
; _this$ = ecx

; 19   : {

  00000	56		 push	 esi
  00001	8b f1		 mov	 esi, ecx

; 20   : }

  00003	8d 4e 28	 lea	 ecx, DWORD PTR [esi+40]
; File C:\IAGOS\server\v18\Source\Source\_AIInterface\Action.h

; 201  : 	virtual	~CMagicAtkMsgq()	{}

  00006	c7 01 00 00 00
	00		 mov	 DWORD PTR [ecx], OFFSET ??_7CMagicAtkMsgq@@6B@
; File C:\IAGOS\server\v18\Source\Source\_aiinterface\action.cpp

; 19   : {

  0000c	c7 06 00 00 00
	00		 mov	 DWORD PTR [esi], OFFSET ??_7CAction@@6B@
; File C:\IAGOS\server\v18\Source\Source\_AIInterface\Action.h

; 201  : 	virtual	~CMagicAtkMsgq()	{}

  00012	e8 00 00 00 00	 call	 ??1?$CActMsgq@UtagMAGICATKMSG@@@@UAE@XZ ; CActMsgq<tagMAGICATKMSG>::~CActMsgq<tagMAGICATKMSG>
; File C:\IAGOS\server\v18\Source\Source\_aiinterface\action.cpp

; 20   : }

  00017	8d 4e 10	 lea	 ecx, DWORD PTR [esi+16]
; File C:\IAGOS\server\v18\Source\Source\_AIInterface\Action.h

; 171  : 	virtual ~CMeleeAtkMsgq() {}

  0001a	c7 01 00 00 00
	00		 mov	 DWORD PTR [ecx], OFFSET ??_7CMeleeAtkMsgq@@6B@
  00020	5e		 pop	 esi
  00021	e9 00 00 00 00	 jmp	 ??1?$CActMsgq@UtagACTMSG@@@@UAE@XZ ; CActMsgq<tagACTMSG>::~CActMsgq<tagACTMSG>
??1CAction@@UAE@XZ ENDP					; CAction::~CAction
_TEXT	ENDS
; Function compile flags: /Ogtp
; File C:\IAGOS\server\v18\Source\Source\_aiinterface\action.cpp
; File C:\IAGOS\server\v18\Source\Source\_AIInterface\Action.h
; File C:\IAGOS\server\v18\Source\Source\_aiinterface\action.cpp
; File C:\IAGOS\server\v18\Source\Source\_AIInterface\Action.h
; File C:\IAGOS\server\v18\Source\Source\_aiinterface\action.cpp
; File C:\IAGOS\server\v18\Source\Source\_AIInterface\Action.h
; File C:\IAGOS\server\v18\Source\Source\_aiinterface\action.cpp
; File C:\IAGOS\server\v18\Source\Source\_AIInterface\Action.h
; File C:\IAGOS\server\v18\Source\Source\_aiinterface\action.cpp
; File C:\IAGOS\server\v18\Source\Source\_AIInterface\Action.h
; File C:\IAGOS\server\v18\Source\Source\_aiinterface\action.cpp
;	COMDAT ??0CAction@@QAE@PAVCMover@@@Z
_TEXT	SEGMENT
_this$ = -20						; size = 4
_this$ = -20						; size = 4
_this$ = -16						; size = 4
__$EHRec$ = -12						; size = 12
_pMover$ = 8						; size = 4
??0CAction@@QAE@PAVCMover@@@Z PROC			; CAction::CAction, COMDAT
; _this$ = ecx

; 13   : { 

  00000	55		 push	 ebp
  00001	8b ec		 mov	 ebp, esp
  00003	6a ff		 push	 -1
  00005	68 00 00 00 00	 push	 __ehhandler$??0CAction@@QAE@PAVCMover@@@Z
  0000a	64 a1 00 00 00
	00		 mov	 eax, DWORD PTR fs:0
  00010	50		 push	 eax
  00011	83 ec 08	 sub	 esp, 8
  00014	56		 push	 esi
  00015	57		 push	 edi
  00016	a1 00 00 00 00	 mov	 eax, DWORD PTR ___security_cookie
  0001b	33 c5		 xor	 eax, ebp
  0001d	50		 push	 eax
  0001e	8d 45 f4	 lea	 eax, DWORD PTR __$EHRec$[ebp]
  00021	64 a3 00 00 00
	00		 mov	 DWORD PTR fs:0, eax
  00027	8b f9		 mov	 edi, ecx
  00029	89 7d f0	 mov	 DWORD PTR _this$[ebp], edi
  0002c	8d 77 10	 lea	 esi, DWORD PTR [edi+16]
  0002f	c7 07 00 00 00
	00		 mov	 DWORD PTR [edi], OFFSET ??_7CAction@@6B@
; File C:\IAGOS\server\v18\Source\Source\_AIInterface\Action.h

; 170  : 	CMeleeAtkMsgq()	{}

  00035	8b ce		 mov	 ecx, esi
; File C:\IAGOS\server\v18\Source\Source\_aiinterface\action.cpp

; 13   : { 

  00037	89 75 ec	 mov	 DWORD PTR _this$[ebp], esi
; File C:\IAGOS\server\v18\Source\Source\_AIInterface\Action.h

; 170  : 	CMeleeAtkMsgq()	{}

  0003a	e8 00 00 00 00	 call	 ??0?$CActMsgq@UtagACTMSG@@@@QAE@XZ ; CActMsgq<tagACTMSG>::CActMsgq<tagACTMSG>
  0003f	c7 06 00 00 00
	00		 mov	 DWORD PTR [esi], OFFSET ??_7CMeleeAtkMsgq@@6B@
; File C:\IAGOS\server\v18\Source\Source\_aiinterface\action.cpp

; 13   : { 

  00045	8d 77 28	 lea	 esi, DWORD PTR [edi+40]
  00048	c7 45 fc 00 00
	00 00		 mov	 DWORD PTR __$EHRec$[ebp+8], 0
; File C:\IAGOS\server\v18\Source\Source\_AIInterface\Action.h

; 200  : 	CMagicAtkMsgq()	{}

  0004f	8b ce		 mov	 ecx, esi
; File C:\IAGOS\server\v18\Source\Source\_aiinterface\action.cpp

; 13   : { 

  00051	89 75 ec	 mov	 DWORD PTR _this$[ebp], esi
; File C:\IAGOS\server\v18\Source\Source\_AIInterface\Action.h

; 200  : 	CMagicAtkMsgq()	{}

  00054	e8 00 00 00 00	 call	 ??0?$CActMsgq@UtagMAGICATKMSG@@@@QAE@XZ ; CActMsgq<tagMAGICATKMSG>::CActMsgq<tagMAGICATKMSG>
; File C:\IAGOS\server\v18\Source\Source\_aiinterface\action.cpp

; 14   : 	Init();

  00059	8b cf		 mov	 ecx, edi
; File C:\IAGOS\server\v18\Source\Source\_AIInterface\Action.h

; 200  : 	CMagicAtkMsgq()	{}

  0005b	c7 06 00 00 00
	00		 mov	 DWORD PTR [esi], OFFSET ??_7CMagicAtkMsgq@@6B@
; File C:\IAGOS\server\v18\Source\Source\_aiinterface\action.cpp

; 14   : 	Init();

  00061	e8 00 00 00 00	 call	 ?Init@CAction@@QAEXXZ	; CAction::Init

; 15   : 	m_pMover = pMover;

  00066	8b 45 08	 mov	 eax, DWORD PTR _pMover$[ebp]
  00069	89 47 0c	 mov	 DWORD PTR [edi+12], eax

; 16   : }

  0006c	8b c7		 mov	 eax, edi
  0006e	8b 4d f4	 mov	 ecx, DWORD PTR __$EHRec$[ebp]
  00071	64 89 0d 00 00
	00 00		 mov	 DWORD PTR fs:0, ecx
  00078	59		 pop	 ecx
  00079	5f		 pop	 edi
  0007a	5e		 pop	 esi
  0007b	8b e5		 mov	 esp, ebp
  0007d	5d		 pop	 ebp
  0007e	c2 04 00	 ret	 4
_TEXT	ENDS
;	COMDAT text$x
text$x	SEGMENT
__unwindfunclet$??0CAction@@QAE@PAVCMover@@@Z$0:
  00000	8b 4d f0	 mov	 ecx, DWORD PTR _this$[ebp]
  00003	83 c1 10	 add	 ecx, 16			; 00000010H
  00006	e9 00 00 00 00	 jmp	 ??1CMeleeAtkMsgq@@UAE@XZ ; CMeleeAtkMsgq::~CMeleeAtkMsgq
  0000b	cc		 int	 3
  0000c	cc		 int	 3
  0000d	cc		 int	 3
  0000e	cc		 int	 3
  0000f	cc		 int	 3
__ehhandler$??0CAction@@QAE@PAVCMover@@@Z:
  00010	90		 npad	 1
  00011	90		 npad	 1
  00012	8b 54 24 08	 mov	 edx, DWORD PTR [esp+8]
  00016	8d 42 0c	 lea	 eax, DWORD PTR [edx+12]
  00019	8b 4a ec	 mov	 ecx, DWORD PTR [edx-20]
  0001c	33 c8		 xor	 ecx, eax
  0001e	e8 00 00 00 00	 call	 @__security_check_cookie@4
  00023	b8 00 00 00 00	 mov	 eax, OFFSET __ehfuncinfo$??0CAction@@QAE@PAVCMover@@@Z
  00028	e9 00 00 00 00	 jmp	 ___CxxFrameHandler3
text$x	ENDS
??0CAction@@QAE@PAVCMover@@@Z ENDP			; CAction::CAction
; Function compile flags: /Ogtp
; File C:\IAGOS\server\v18\Source\Source\_aiinterface\action.cpp
; File C:\IAGOS\server\v18\Source\Source\_AIInterface\Action.h
; File C:\IAGOS\server\v18\Source\Source\_aiinterface\action.cpp
; File C:\IAGOS\server\v18\Source\Source\_AIInterface\Action.h
; File C:\IAGOS\server\v18\Source\Source\_aiinterface\action.cpp
; File C:\IAGOS\server\v18\Source\Source\_AIInterface\Action.h
; File C:\IAGOS\server\v18\Source\Source\_aiinterface\action.cpp
; File C:\IAGOS\server\v18\Source\Source\_AIInterface\Action.h
; File C:\IAGOS\server\v18\Source\Source\_aiinterface\action.cpp
; File C:\IAGOS\server\v18\Source\Source\_AIInterface\Action.h
; File C:\IAGOS\server\v18\Source\Source\_aiinterface\action.cpp
;	COMDAT ??0CAction@@QAE@XZ
_TEXT	SEGMENT
_this$ = -20						; size = 4
_this$ = -20						; size = 4
_this$ = -16						; size = 4
__$EHRec$ = -12						; size = 12
??0CAction@@QAE@XZ PROC					; CAction::CAction, COMDAT
; _this$ = ecx

; 9    : {

  00000	55		 push	 ebp
  00001	8b ec		 mov	 ebp, esp
  00003	6a ff		 push	 -1
  00005	68 00 00 00 00	 push	 __ehhandler$??0CAction@@QAE@XZ
  0000a	64 a1 00 00 00
	00		 mov	 eax, DWORD PTR fs:0
  00010	50		 push	 eax
  00011	83 ec 08	 sub	 esp, 8
  00014	56		 push	 esi
  00015	57		 push	 edi
  00016	a1 00 00 00 00	 mov	 eax, DWORD PTR ___security_cookie
  0001b	33 c5		 xor	 eax, ebp
  0001d	50		 push	 eax
  0001e	8d 45 f4	 lea	 eax, DWORD PTR __$EHRec$[ebp]
  00021	64 a3 00 00 00
	00		 mov	 DWORD PTR fs:0, eax
  00027	8b f9		 mov	 edi, ecx
  00029	89 7d f0	 mov	 DWORD PTR _this$[ebp], edi
  0002c	8d 77 10	 lea	 esi, DWORD PTR [edi+16]
  0002f	c7 07 00 00 00
	00		 mov	 DWORD PTR [edi], OFFSET ??_7CAction@@6B@
; File C:\IAGOS\server\v18\Source\Source\_AIInterface\Action.h

; 170  : 	CMeleeAtkMsgq()	{}

  00035	8b ce		 mov	 ecx, esi
; File C:\IAGOS\server\v18\Source\Source\_aiinterface\action.cpp

; 9    : {

  00037	89 75 ec	 mov	 DWORD PTR _this$[ebp], esi
; File C:\IAGOS\server\v18\Source\Source\_AIInterface\Action.h

; 170  : 	CMeleeAtkMsgq()	{}

  0003a	e8 00 00 00 00	 call	 ??0?$CActMsgq@UtagACTMSG@@@@QAE@XZ ; CActMsgq<tagACTMSG>::CActMsgq<tagACTMSG>
  0003f	c7 06 00 00 00
	00		 mov	 DWORD PTR [esi], OFFSET ??_7CMeleeAtkMsgq@@6B@
; File C:\IAGOS\server\v18\Source\Source\_aiinterface\action.cpp

; 9    : {

  00045	8d 77 28	 lea	 esi, DWORD PTR [edi+40]
  00048	c7 45 fc 00 00
	00 00		 mov	 DWORD PTR __$EHRec$[ebp+8], 0
; File C:\IAGOS\server\v18\Source\Source\_AIInterface\Action.h

; 200  : 	CMagicAtkMsgq()	{}

  0004f	8b ce		 mov	 ecx, esi
; File C:\IAGOS\server\v18\Source\Source\_aiinterface\action.cpp

; 9    : {

  00051	89 75 ec	 mov	 DWORD PTR _this$[ebp], esi
; File C:\IAGOS\server\v18\Source\Source\_AIInterface\Action.h

; 200  : 	CMagicAtkMsgq()	{}

  00054	e8 00 00 00 00	 call	 ??0?$CActMsgq@UtagMAGICATKMSG@@@@QAE@XZ ; CActMsgq<tagMAGICATKMSG>::CActMsgq<tagMAGICATKMSG>
; File C:\IAGOS\server\v18\Source\Source\_aiinterface\action.cpp

; 10   : 	Init();

  00059	8b cf		 mov	 ecx, edi
; File C:\IAGOS\server\v18\Source\Source\_AIInterface\Action.h

; 200  : 	CMagicAtkMsgq()	{}

  0005b	c7 06 00 00 00
	00		 mov	 DWORD PTR [esi], OFFSET ??_7CMagicAtkMsgq@@6B@
; File C:\IAGOS\server\v18\Source\Source\_aiinterface\action.cpp

; 10   : 	Init();

  00061	e8 00 00 00 00	 call	 ?Init@CAction@@QAEXXZ	; CAction::Init

; 11   : }

  00066	8b c7		 mov	 eax, edi
  00068	8b 4d f4	 mov	 ecx, DWORD PTR __$EHRec$[ebp]
  0006b	64 89 0d 00 00
	00 00		 mov	 DWORD PTR fs:0, ecx
  00072	59		 pop	 ecx
  00073	5f		 pop	 edi
  00074	5e		 pop	 esi
  00075	8b e5		 mov	 esp, ebp
  00077	5d		 pop	 ebp
  00078	c3		 ret	 0
_TEXT	ENDS
;	COMDAT text$x
text$x	SEGMENT
__unwindfunclet$??0CAction@@QAE@XZ$0:
  00000	8b 4d f0	 mov	 ecx, DWORD PTR _this$[ebp]
  00003	83 c1 10	 add	 ecx, 16			; 00000010H
  00006	e9 00 00 00 00	 jmp	 ??1CMeleeAtkMsgq@@UAE@XZ ; CMeleeAtkMsgq::~CMeleeAtkMsgq
  0000b	cc		 int	 3
  0000c	cc		 int	 3
  0000d	cc		 int	 3
  0000e	cc		 int	 3
  0000f	cc		 int	 3
__ehhandler$??0CAction@@QAE@XZ:
  00010	90		 npad	 1
  00011	90		 npad	 1
  00012	8b 54 24 08	 mov	 edx, DWORD PTR [esp+8]
  00016	8d 42 0c	 lea	 eax, DWORD PTR [edx+12]
  00019	8b 4a ec	 mov	 ecx, DWORD PTR [edx-20]
  0001c	33 c8		 xor	 ecx, eax
  0001e	e8 00 00 00 00	 call	 @__security_check_cookie@4
  00023	b8 00 00 00 00	 mov	 eax, OFFSET __ehfuncinfo$??0CAction@@QAE@XZ
  00028	e9 00 00 00 00	 jmp	 ___CxxFrameHandler3
text$x	ENDS
??0CAction@@QAE@XZ ENDP					; CAction::CAction
; Function compile flags: /Ogtp
; File C:\IAGOS\server\v18\Source\Source\_AIInterface\Action.h
;	COMDAT ??_GCMagicAtkMsgq@@UAEPAXI@Z
_TEXT	SEGMENT
___flags$ = 8						; size = 4
??_GCMagicAtkMsgq@@UAEPAXI@Z PROC			; CMagicAtkMsgq::`scalar deleting destructor', COMDAT
; _this$ = ecx
  00000	55		 push	 ebp
  00001	8b ec		 mov	 ebp, esp

; 201  : 	virtual	~CMagicAtkMsgq()	{}

  00003	56		 push	 esi
  00004	8b f1		 mov	 esi, ecx
  00006	c7 06 00 00 00
	00		 mov	 DWORD PTR [esi], OFFSET ??_7CMagicAtkMsgq@@6B@
  0000c	e8 00 00 00 00	 call	 ??1?$CActMsgq@UtagMAGICATKMSG@@@@UAE@XZ ; CActMsgq<tagMAGICATKMSG>::~CActMsgq<tagMAGICATKMSG>
  00011	f6 45 08 01	 test	 BYTE PTR ___flags$[ebp], 1
  00015	74 0b		 je	 SHORT $LN10@scalar
  00017	6a 18		 push	 24			; 00000018H
  00019	56		 push	 esi
  0001a	e8 00 00 00 00	 call	 ??3@YAXPAXI@Z		; operator delete
  0001f	83 c4 08	 add	 esp, 8
$LN10@scalar:
  00022	8b c6		 mov	 eax, esi
  00024	5e		 pop	 esi
  00025	5d		 pop	 ebp
  00026	c2 04 00	 ret	 4
??_GCMagicAtkMsgq@@UAEPAXI@Z ENDP			; CMagicAtkMsgq::`scalar deleting destructor'
_TEXT	ENDS
; Function compile flags: /Ogtp
; File C:\IAGOS\server\v18\Source\Source\_AIInterface\Action.h
;	COMDAT ??1CMagicAtkMsgq@@UAE@XZ
_TEXT	SEGMENT
??1CMagicAtkMsgq@@UAE@XZ PROC				; CMagicAtkMsgq::~CMagicAtkMsgq, COMDAT
; _this$ = ecx

; 201  : 	virtual	~CMagicAtkMsgq()	{}

  00000	c7 01 00 00 00
	00		 mov	 DWORD PTR [ecx], OFFSET ??_7CMagicAtkMsgq@@6B@
  00006	e9 00 00 00 00	 jmp	 ??1?$CActMsgq@UtagMAGICATKMSG@@@@UAE@XZ ; CActMsgq<tagMAGICATKMSG>::~CActMsgq<tagMAGICATKMSG>
??1CMagicAtkMsgq@@UAE@XZ ENDP				; CMagicAtkMsgq::~CMagicAtkMsgq
_TEXT	ENDS
; Function compile flags: /Ogtp
;	COMDAT ??_G?$CActMsgq@UtagMAGICATKMSG@@@@UAEPAXI@Z
_TEXT	SEGMENT
___flags$ = 8						; size = 4
??_G?$CActMsgq@UtagMAGICATKMSG@@@@UAEPAXI@Z PROC	; CActMsgq<tagMAGICATKMSG>::`scalar deleting destructor', COMDAT
; _this$ = ecx
  00000	55		 push	 ebp
  00001	8b ec		 mov	 ebp, esp
  00003	56		 push	 esi
  00004	8b f1		 mov	 esi, ecx
  00006	e8 00 00 00 00	 call	 ??1?$CActMsgq@UtagMAGICATKMSG@@@@UAE@XZ ; CActMsgq<tagMAGICATKMSG>::~CActMsgq<tagMAGICATKMSG>
  0000b	f6 45 08 01	 test	 BYTE PTR ___flags$[ebp], 1
  0000f	74 0b		 je	 SHORT $LN5@scalar
  00011	6a 18		 push	 24			; 00000018H
  00013	56		 push	 esi
  00014	e8 00 00 00 00	 call	 ??3@YAXPAXI@Z		; operator delete
  00019	83 c4 08	 add	 esp, 8
$LN5@scalar:
  0001c	8b c6		 mov	 eax, esi
  0001e	5e		 pop	 esi
  0001f	5d		 pop	 ebp
  00020	c2 04 00	 ret	 4
??_G?$CActMsgq@UtagMAGICATKMSG@@@@UAEPAXI@Z ENDP	; CActMsgq<tagMAGICATKMSG>::`scalar deleting destructor'
_TEXT	ENDS
; Function compile flags: /Ogtp
; File C:\IAGOS\server\v18\Source\Source\_AIInterface\Action.h
; File C:\Program Files\Microsoft Visual Studio\2022\Professional\VC\Tools\MSVC\14.44.35207\include\xmemory
; File C:\IAGOS\server\v18\Source\Source\_AIInterface\Action.h
; File C:\Program Files\Microsoft Visual Studio\2022\Professional\VC\Tools\MSVC\14.44.35207\include\deque
; File C:\IAGOS\server\v18\Source\Source\_AIInterface\Action.h
; File C:\Program Files\Microsoft Visual Studio\2022\Professional\VC\Tools\MSVC\14.44.35207\include\xmemory
; File C:\Program Files\Microsoft Visual Studio\2022\Professional\VC\Tools\MSVC\14.44.35207\include\deque
; File C:\IAGOS\server\v18\Source\Source\_AIInterface\Action.h
; File C:\Program Files\Microsoft Visual Studio\2022\Professional\VC\Tools\MSVC\14.44.35207\include\deque
; File C:\IAGOS\server\v18\Source\Source\_AIInterface\Action.h
; File C:\Program Files\Microsoft Visual Studio\2022\Professional\VC\Tools\MSVC\14.44.35207\include\deque
; File C:\Program Files\Microsoft Visual Studio\2022\Professional\VC\Tools\MSVC\14.44.35207\include\utility
; File C:\Program Files\Microsoft Visual Studio\2022\Professional\VC\Tools\MSVC\14.44.35207\include\xmemory
; File C:\Program Files\Microsoft Visual Studio\2022\Professional\VC\Tools\MSVC\14.44.35207\include\utility
; File C:\Program Files\Microsoft Visual Studio\2022\Professional\VC\Tools\MSVC\14.44.35207\include\xmemory
; File C:\IAGOS\server\v18\Source\Source\_AIInterface\Action.h
;	COMDAT ??1?$CActMsgq@UtagMAGICATKMSG@@@@UAE@XZ
_TEXT	SEGMENT
??1?$CActMsgq@UtagMAGICATKMSG@@@@UAE@XZ PROC		; CActMsgq<tagMAGICATKMSG>::~CActMsgq<tagMAGICATKMSG>, COMDAT
; _this$ = ecx

; 112  : {

  00000	53		 push	 ebx
  00001	56		 push	 esi

; 113  : 	for( deque<T*>::iterator i = m_qpam.begin(); i != m_qpam.end(); ++i )

  00002	8d 71 04	 lea	 esi, DWORD PTR [ecx+4]
  00005	c7 01 00 00 00
	00		 mov	 DWORD PTR [ecx], OFFSET ??_7?$CActMsgq@UtagMAGICATKMSG@@@@6B@
; File C:\Program Files\Microsoft Visual Studio\2022\Professional\VC\Tools\MSVC\14.44.35207\include\xmemory

; 1301 :             _Myproxy = _Parent->_Myproxy;

  0000b	8b 1e		 mov	 ebx, DWORD PTR [esi]
; File C:\IAGOS\server\v18\Source\Source\_AIInterface\Action.h

; 112  : {

  0000d	57		 push	 edi
; File C:\Program Files\Microsoft Visual Studio\2022\Professional\VC\Tools\MSVC\14.44.35207\include\deque

; 252  :     _Deque_const_iterator(_Size_type _Off, const _Container_base12* _Pdeque) noexcept : _Myoff(_Off) {

  0000e	8b 7e 0c	 mov	 edi, DWORD PTR [esi+12]
$LL4@CActMsgq:

; 911  :         return iterator(_Myoff() + _Mysize(), _STD addressof(_Get_data()));

  00011	8b 46 0c	 mov	 eax, DWORD PTR [esi+12]
  00014	03 46 10	 add	 eax, DWORD PTR [esi+16]

; 353  :         return this->_Myoff == _Right._Myoff;

  00017	3b f8		 cmp	 edi, eax
; File C:\IAGOS\server\v18\Source\Source\_AIInterface\Action.h

; 113  : 	for( deque<T*>::iterator i = m_qpam.begin(); i != m_qpam.end(); ++i )

  00019	74 30		 je	 SHORT $LN3@CActMsgq
; File C:\Program Files\Microsoft Visual Studio\2022\Professional\VC\Tools\MSVC\14.44.35207\include\xmemory

; 1309 :         return _Myproxy ? _Myproxy->_Mycont : nullptr;

  0001b	85 db		 test	 ebx, ebx
  0001d	74 04		 je	 SHORT $LN67@CActMsgq
  0001f	8b 0b		 mov	 ecx, DWORD PTR [ebx]
  00021	eb 02		 jmp	 SHORT $LN68@CActMsgq
$LN67@CActMsgq:
  00023	33 c9		 xor	 ecx, ecx
$LN68@CActMsgq:
; File C:\Program Files\Microsoft Visual Studio\2022\Professional\VC\Tools\MSVC\14.44.35207\include\deque

; 572  :         return static_cast<_Map_difference_type>((_Off / _Block_size) & (_Mapsize - 1));

  00025	8b 41 08	 mov	 eax, DWORD PTR [ecx+8]
  00028	8b d7		 mov	 edx, edi
  0002a	48		 dec	 eax
  0002b	c1 ea 02	 shr	 edx, 2
  0002e	23 d0		 and	 edx, eax
; File C:\IAGOS\server\v18\Source\Source\_AIInterface\Action.h

; 114  : 		safe_delete( *i );

  00030	8b 41 04	 mov	 eax, DWORD PTR [ecx+4]
; File C:\Program Files\Microsoft Visual Studio\2022\Professional\VC\Tools\MSVC\14.44.35207\include\deque

; 583  :         const auto _Block_off = static_cast<difference_type>(_Off % _Block_size);

  00033	8b cf		 mov	 ecx, edi
  00035	83 e1 03	 and	 ecx, 3
; File C:\IAGOS\server\v18\Source\Source\_AIInterface\Action.h

; 114  : 		safe_delete( *i );

  00038	6a 18		 push	 24			; 00000018H
  0003a	8b 04 90	 mov	 eax, DWORD PTR [eax+edx*4]
  0003d	ff 34 88	 push	 DWORD PTR [eax+ecx*4]
  00040	e8 00 00 00 00	 call	 ??3@YAXPAXI@Z		; operator delete
  00045	83 c4 08	 add	 esp, 8
; File C:\Program Files\Microsoft Visual Studio\2022\Professional\VC\Tools\MSVC\14.44.35207\include\deque

; 278  :         ++_Myoff;

  00048	47		 inc	 edi
  00049	eb c6		 jmp	 SHORT $LL4@CActMsgq
$LN3@CActMsgq:

; 1576 :         _Tidy();

  0004b	8b ce		 mov	 ecx, esi
  0004d	e8 00 00 00 00	 call	 ?_Tidy@?$deque@PAUtagMAGICATKMSG@@V?$allocator@PAUtagMAGICATKMSG@@@std@@@std@@AAEXXZ ; std::deque<tagMAGICATKMSG *,std::allocator<tagMAGICATKMSG *> >::_Tidy

; 774  :         _Tidy();

  00052	8b ce		 mov	 ecx, esi
  00054	e8 00 00 00 00	 call	 ?_Tidy@?$deque@PAUtagMAGICATKMSG@@V?$allocator@PAUtagMAGICATKMSG@@@std@@@std@@AAEXXZ ; std::deque<tagMAGICATKMSG *,std::allocator<tagMAGICATKMSG *> >::_Tidy
; File C:\Program Files\Microsoft Visual Studio\2022\Professional\VC\Tools\MSVC\14.44.35207\include\utility

; 773  :     _Ty _Old_val = static_cast<_Ty&&>(_Val);

  00059	8b 06		 mov	 eax, DWORD PTR [esi]
; File C:\Program Files\Microsoft Visual Studio\2022\Professional\VC\Tools\MSVC\14.44.35207\include\xmemory

; 289  :         ::operator delete(_Ptr, _Bytes);

  0005b	6a 08		 push	 8
  0005d	50		 push	 eax
; File C:\Program Files\Microsoft Visual Studio\2022\Professional\VC\Tools\MSVC\14.44.35207\include\utility

; 774  :     _Val         = static_cast<_Other&&>(_New_val);

  0005e	c7 06 00 00 00
	00		 mov	 DWORD PTR [esi], 0
; File C:\Program Files\Microsoft Visual Studio\2022\Professional\VC\Tools\MSVC\14.44.35207\include\xmemory

; 289  :         ::operator delete(_Ptr, _Bytes);

  00064	e8 00 00 00 00	 call	 ??3@YAXPAXI@Z		; operator delete
  00069	83 c4 08	 add	 esp, 8
  0006c	5f		 pop	 edi
  0006d	5e		 pop	 esi
  0006e	5b		 pop	 ebx
; File C:\IAGOS\server\v18\Source\Source\_AIInterface\Action.h

; 116  : }

  0006f	c3		 ret	 0
??1?$CActMsgq@UtagMAGICATKMSG@@@@UAE@XZ ENDP		; CActMsgq<tagMAGICATKMSG>::~CActMsgq<tagMAGICATKMSG>
_TEXT	ENDS
; Function compile flags: /Ogtp
; File C:\IAGOS\server\v18\Source\Source\_AIInterface\Action.h
; File C:\Program Files\Microsoft Visual Studio\2022\Professional\VC\Tools\MSVC\14.44.35207\include\xmemory
; File C:\IAGOS\server\v18\Source\Source\_AIInterface\Action.h
; File C:\Program Files\Microsoft Visual Studio\2022\Professional\VC\Tools\MSVC\14.44.35207\include\xmemory
; File C:\Program Files\Microsoft Visual Studio\2022\Professional\VC\Tools\MSVC\14.44.35207\include\deque
; File C:\Program Files\Microsoft Visual Studio\2022\Professional\VC\Tools\MSVC\14.44.35207\include\xmemory
; File C:\IAGOS\server\v18\Source\Source\_AIInterface\Action.h
;	COMDAT ??0?$CActMsgq@UtagMAGICATKMSG@@@@QAE@XZ
_TEXT	SEGMENT
_this$ = -4						; size = 4
??0?$CActMsgq@UtagMAGICATKMSG@@@@QAE@XZ PROC		; CActMsgq<tagMAGICATKMSG>::CActMsgq<tagMAGICATKMSG>, COMDAT
; _this$ = ecx

; 108  : {

  00000	55		 push	 ebp
  00001	8b ec		 mov	 ebp, esp
  00003	51		 push	 ecx
  00004	56		 push	 esi
  00005	57		 push	 edi
  00006	8b f9		 mov	 edi, ecx
  00008	8d 77 04	 lea	 esi, DWORD PTR [edi+4]
  0000b	89 7d fc	 mov	 DWORD PTR _this$[ebp], edi
; File C:\Program Files\Microsoft Visual Studio\2022\Professional\VC\Tools\MSVC\14.44.35207\include\xmemory

; 136  :         return ::operator new(_Bytes);

  0000e	6a 08		 push	 8
; File C:\IAGOS\server\v18\Source\Source\_AIInterface\Action.h

; 108  : {

  00010	c7 07 00 00 00
	00		 mov	 DWORD PTR [edi], OFFSET ??_7?$CActMsgq@UtagMAGICATKMSG@@@@6B@
; File C:\Program Files\Microsoft Visual Studio\2022\Professional\VC\Tools\MSVC\14.44.35207\include\xmemory

; 1235 :     _Container_proxy* _Myproxy = nullptr;

  00016	c7 06 00 00 00
	00		 mov	 DWORD PTR [esi], 0
; File C:\Program Files\Microsoft Visual Studio\2022\Professional\VC\Tools\MSVC\14.44.35207\include\deque

; 556  :     _Deque_val() noexcept : _Map(), _Mapsize(0), _Myoff(0), _Mysize(0) {}

  0001c	c7 46 04 00 00
	00 00		 mov	 DWORD PTR [esi+4], 0
  00023	c7 46 08 00 00
	00 00		 mov	 DWORD PTR [esi+8], 0
  0002a	c7 46 0c 00 00
	00 00		 mov	 DWORD PTR [esi+12], 0
  00031	c7 46 10 00 00
	00 00		 mov	 DWORD PTR [esi+16], 0
; File C:\Program Files\Microsoft Visual Studio\2022\Professional\VC\Tools\MSVC\14.44.35207\include\xmemory

; 136  :         return ::operator new(_Bytes);

  00038	e8 00 00 00 00	 call	 ??2@YAPAXI@Z		; operator new
  0003d	83 c4 04	 add	 esp, 4

; 1205 :     mutable _Iterator_base12* _Myfirstiter = nullptr;

  00040	c7 40 04 00 00
	00 00		 mov	 DWORD PTR [eax+4], 0

; 1222 :         _Myproxy            = _New_proxy;

  00047	89 06		 mov	 DWORD PTR [esi], eax

; 1223 :         _New_proxy->_Mycont = this;

  00049	89 30		 mov	 DWORD PTR [eax], esi
; File C:\IAGOS\server\v18\Source\Source\_AIInterface\Action.h

; 109  : }

  0004b	8b c7		 mov	 eax, edi
  0004d	5f		 pop	 edi
  0004e	5e		 pop	 esi
  0004f	8b e5		 mov	 esp, ebp
  00051	5d		 pop	 ebp
  00052	c3		 ret	 0
??0?$CActMsgq@UtagMAGICATKMSG@@@@QAE@XZ ENDP		; CActMsgq<tagMAGICATKMSG>::CActMsgq<tagMAGICATKMSG>
_TEXT	ENDS
; Function compile flags: /Ogtp
; File C:\Program Files\Microsoft Visual Studio\2022\Professional\VC\Tools\MSVC\14.44.35207\include\deque
; File C:\Program Files\Microsoft Visual Studio\2022\Professional\VC\Tools\MSVC\14.44.35207\include\xmemory
; File C:\Program Files\Microsoft Visual Studio\2022\Professional\VC\Tools\MSVC\14.44.35207\include\deque
; File C:\Program Files\Microsoft Visual Studio\2022\Professional\VC\Tools\MSVC\14.44.35207\include\xmemory
; File C:\Program Files\Microsoft Visual Studio\2022\Professional\VC\Tools\MSVC\14.44.35207\include\deque
; File C:\Program Files\Microsoft Visual Studio\2022\Professional\VC\Tools\MSVC\14.44.35207\include\xmemory
; File C:\Program Files\Microsoft Visual Studio\2022\Professional\VC\Tools\MSVC\14.44.35207\include\deque
;	COMDAT ?_Tidy@?$deque@PAUtagMAGICATKMSG@@V?$allocator@PAUtagMAGICATKMSG@@@std@@@std@@AAEXXZ
_TEXT	SEGMENT
?_Tidy@?$deque@PAUtagMAGICATKMSG@@V?$allocator@PAUtagMAGICATKMSG@@@std@@@std@@AAEXXZ PROC ; std::deque<tagMAGICATKMSG *,std::allocator<tagMAGICATKMSG *> >::_Tidy, COMDAT
; _this$ = ecx

; 1670 :     void _Tidy() noexcept { // free all storage

  00000	57		 push	 edi
  00001	8b f9		 mov	 edi, ecx

; 971  :         return _Mysize() == 0;

  00003	8b 4f 10	 mov	 ecx, DWORD PTR [edi+16]
  00006	85 c9		 test	 ecx, ecx

; 1671 :         _Orphan_all();
; 1672 : 
; 1673 :         while (!empty()) {

  00008	74 15		 je	 SHORT $LN65@Tidy
  0000a	66 0f 1f 44 00
	00		 npad	 6
$LL2@Tidy:

; 1513 :         if (--_Mysize() == 0) {

  00010	8d 41 ff	 lea	 eax, DWORD PTR [ecx-1]
  00013	89 47 10	 mov	 DWORD PTR [edi+16], eax
  00016	8b c8		 mov	 ecx, eax
  00018	85 c0		 test	 eax, eax
  0001a	75 f4		 jne	 SHORT $LL2@Tidy

; 1514 :             _Myoff() = 0;

  0001c	89 47 0c	 mov	 DWORD PTR [edi+12], eax
$LN65@Tidy:

; 1674 :             pop_back();
; 1675 :         }
; 1676 : 
; 1677 :         if (_Map() != nullptr) {

  0001f	83 7f 04 00	 cmp	 DWORD PTR [edi+4], 0
  00023	74 61		 je	 SHORT $LN25@Tidy
  00025	56		 push	 esi

; 1654 :         for (auto _Block = _Map_distance(); _Block > 0;) { // free storage for a block and destroy pointer

  00026	8b 77 08	 mov	 esi, DWORD PTR [edi+8]
  00029	85 f6		 test	 esi, esi
  0002b	7e 1d		 jle	 SHORT $LN62@Tidy
  0002d	0f 1f 00	 npad	 3
$LL23@Tidy:

; 1655 :             --_Block;
; 1656 :             auto& _Block_ptr = _Map()[_Block];
; 1657 :             if (_Block_ptr) { // free block

  00030	8b 47 04	 mov	 eax, DWORD PTR [edi+4]
  00033	4e		 dec	 esi
  00034	8b 04 b0	 mov	 eax, DWORD PTR [eax+esi*4]
  00037	85 c0		 test	 eax, eax
  00039	74 0b		 je	 SHORT $LN21@Tidy
; File C:\Program Files\Microsoft Visual Studio\2022\Professional\VC\Tools\MSVC\14.44.35207\include\xmemory

; 289  :         ::operator delete(_Ptr, _Bytes);

  0003b	6a 10		 push	 16			; 00000010H
  0003d	50		 push	 eax
  0003e	e8 00 00 00 00	 call	 ??3@YAXPAXI@Z		; operator delete
  00043	83 c4 08	 add	 esp, 8
$LN21@Tidy:
; File C:\Program Files\Microsoft Visual Studio\2022\Professional\VC\Tools\MSVC\14.44.35207\include\deque

; 1654 :         for (auto _Block = _Map_distance(); _Block > 0;) { // free storage for a block and destroy pointer

  00046	85 f6		 test	 esi, esi
  00048	7f e6		 jg	 SHORT $LL23@Tidy
$LN62@Tidy:
; File C:\Program Files\Microsoft Visual Studio\2022\Professional\VC\Tools\MSVC\14.44.35207\include\xmemory

; 985  :         _STD _Deallocate<_New_alignof<_Ty>>(_Ptr, sizeof(_Ty) * _Count);

  0004a	8b 4f 08	 mov	 ecx, DWORD PTR [edi+8]
  0004d	8b 47 04	 mov	 eax, DWORD PTR [edi+4]
  00050	c1 e1 02	 shl	 ecx, 2
  00053	5e		 pop	 esi

; 284  :         if (_Bytes >= _Big_allocation_threshold) {

  00054	81 f9 00 10 00
	00		 cmp	 ecx, 4096		; 00001000H
  0005a	72 12		 jb	 SHORT $LN51@Tidy

; 205  :     const uintptr_t _Ptr_container   = _Ptr_user[-1];

  0005c	8b 50 fc	 mov	 edx, DWORD PTR [eax-4]
  0005f	83 c1 23	 add	 ecx, 35			; 00000023H

; 206  : 
; 207  :     // If the following asserts, it likely means that we are performing
; 208  :     // an aligned delete on memory coming from an unaligned allocation.
; 209  :     _STL_ASSERT(_Ptr_user[-2] == _Big_allocation_sentinel, "invalid argument");
; 210  : 
; 211  :     // Extra paranoia on aligned allocation/deallocation; ensure _Ptr_container is
; 212  :     // in range [_Min_back_shift, _Non_user_size]
; 213  : #ifdef _DEBUG
; 214  :     constexpr uintptr_t _Min_back_shift = 2 * sizeof(void*);
; 215  : #else // ^^^ defined(_DEBUG) / !defined(_DEBUG) vvv
; 216  :     constexpr uintptr_t _Min_back_shift = sizeof(void*);
; 217  : #endif // ^^^ !defined(_DEBUG) ^^^
; 218  :     const uintptr_t _Back_shift = reinterpret_cast<uintptr_t>(_Ptr) - _Ptr_container;

  00062	2b c2		 sub	 eax, edx

; 219  :     _STL_VERIFY(_Back_shift >= _Min_back_shift && _Back_shift <= _Non_user_size, "invalid argument");

  00064	83 c0 fc	 add	 eax, -4			; fffffffcH
  00067	83 f8 1f	 cmp	 eax, 31			; 0000001fH
  0006a	77 1c		 ja	 SHORT $LN50@Tidy

; 220  :     _Ptr = reinterpret_cast<void*>(_Ptr_container);

  0006c	8b c2		 mov	 eax, edx
$LN51@Tidy:

; 289  :         ::operator delete(_Ptr, _Bytes);

  0006e	51		 push	 ecx
  0006f	50		 push	 eax
  00070	e8 00 00 00 00	 call	 ??3@YAXPAXI@Z		; operator delete
  00075	83 c4 08	 add	 esp, 8
; File C:\Program Files\Microsoft Visual Studio\2022\Professional\VC\Tools\MSVC\14.44.35207\include\deque

; 1666 :         _Map()     = nullptr;

  00078	c7 47 04 00 00
	00 00		 mov	 DWORD PTR [edi+4], 0

; 1667 :         _Mapsize() = 0;

  0007f	c7 47 08 00 00
	00 00		 mov	 DWORD PTR [edi+8], 0
$LN25@Tidy:
  00086	5f		 pop	 edi

; 1682 :     }

  00087	c3		 ret	 0
$LN50@Tidy:
; File C:\Program Files\Microsoft Visual Studio\2022\Professional\VC\Tools\MSVC\14.44.35207\include\xmemory

; 219  :     _STL_VERIFY(_Back_shift >= _Min_back_shift && _Back_shift <= _Non_user_size, "invalid argument");

  00088	6a 00		 push	 0
  0008a	6a 00		 push	 0
  0008c	6a 00		 push	 0
  0008e	6a 00		 push	 0
  00090	6a 00		 push	 0
  00092	e8 00 00 00 00	 call	 __invoke_watson
$LN74@Tidy:
  00097	cc		 int	 3
?_Tidy@?$deque@PAUtagMAGICATKMSG@@V?$allocator@PAUtagMAGICATKMSG@@@std@@@std@@AAEXXZ ENDP ; std::deque<tagMAGICATKMSG *,std::allocator<tagMAGICATKMSG *> >::_Tidy
_TEXT	ENDS
; Function compile flags: /Ogtp
; File C:\IAGOS\server\v18\Source\Source\_AIInterface\Action.h
;	COMDAT ??_GCMeleeAtkMsgq@@UAEPAXI@Z
_TEXT	SEGMENT
___flags$ = 8						; size = 4
??_GCMeleeAtkMsgq@@UAEPAXI@Z PROC			; CMeleeAtkMsgq::`scalar deleting destructor', COMDAT
; _this$ = ecx
  00000	55		 push	 ebp
  00001	8b ec		 mov	 ebp, esp

; 171  : 	virtual ~CMeleeAtkMsgq() {}

  00003	56		 push	 esi
  00004	8b f1		 mov	 esi, ecx
  00006	c7 06 00 00 00
	00		 mov	 DWORD PTR [esi], OFFSET ??_7CMeleeAtkMsgq@@6B@
  0000c	e8 00 00 00 00	 call	 ??1?$CActMsgq@UtagACTMSG@@@@UAE@XZ ; CActMsgq<tagACTMSG>::~CActMsgq<tagACTMSG>
  00011	f6 45 08 01	 test	 BYTE PTR ___flags$[ebp], 1
  00015	74 0b		 je	 SHORT $LN10@scalar
  00017	6a 18		 push	 24			; 00000018H
  00019	56		 push	 esi
  0001a	e8 00 00 00 00	 call	 ??3@YAXPAXI@Z		; operator delete
  0001f	83 c4 08	 add	 esp, 8
$LN10@scalar:
  00022	8b c6		 mov	 eax, esi
  00024	5e		 pop	 esi
  00025	5d		 pop	 ebp
  00026	c2 04 00	 ret	 4
??_GCMeleeAtkMsgq@@UAEPAXI@Z ENDP			; CMeleeAtkMsgq::`scalar deleting destructor'
_TEXT	ENDS
; Function compile flags: /Ogtp
; File C:\IAGOS\server\v18\Source\Source\_AIInterface\Action.h
;	COMDAT ??1CMeleeAtkMsgq@@UAE@XZ
_TEXT	SEGMENT
??1CMeleeAtkMsgq@@UAE@XZ PROC				; CMeleeAtkMsgq::~CMeleeAtkMsgq, COMDAT
; _this$ = ecx

; 171  : 	virtual ~CMeleeAtkMsgq() {}

  00000	c7 01 00 00 00
	00		 mov	 DWORD PTR [ecx], OFFSET ??_7CMeleeAtkMsgq@@6B@
  00006	e9 00 00 00 00	 jmp	 ??1?$CActMsgq@UtagACTMSG@@@@UAE@XZ ; CActMsgq<tagACTMSG>::~CActMsgq<tagACTMSG>
??1CMeleeAtkMsgq@@UAE@XZ ENDP				; CMeleeAtkMsgq::~CMeleeAtkMsgq
_TEXT	ENDS
; Function compile flags: /Ogtp
;	COMDAT ??_G?$CActMsgq@UtagACTMSG@@@@UAEPAXI@Z
_TEXT	SEGMENT
___flags$ = 8						; size = 4
??_G?$CActMsgq@UtagACTMSG@@@@UAEPAXI@Z PROC		; CActMsgq<tagACTMSG>::`scalar deleting destructor', COMDAT
; _this$ = ecx
  00000	55		 push	 ebp
  00001	8b ec		 mov	 ebp, esp
  00003	56		 push	 esi
  00004	8b f1		 mov	 esi, ecx
  00006	e8 00 00 00 00	 call	 ??1?$CActMsgq@UtagACTMSG@@@@UAE@XZ ; CActMsgq<tagACTMSG>::~CActMsgq<tagACTMSG>
  0000b	f6 45 08 01	 test	 BYTE PTR ___flags$[ebp], 1
  0000f	74 0b		 je	 SHORT $LN5@scalar
  00011	6a 18		 push	 24			; 00000018H
  00013	56		 push	 esi
  00014	e8 00 00 00 00	 call	 ??3@YAXPAXI@Z		; operator delete
  00019	83 c4 08	 add	 esp, 8
$LN5@scalar:
  0001c	8b c6		 mov	 eax, esi
  0001e	5e		 pop	 esi
  0001f	5d		 pop	 ebp
  00020	c2 04 00	 ret	 4
??_G?$CActMsgq@UtagACTMSG@@@@UAEPAXI@Z ENDP		; CActMsgq<tagACTMSG>::`scalar deleting destructor'
_TEXT	ENDS
; Function compile flags: /Ogtp
; File C:\IAGOS\server\v18\Source\Source\_AIInterface\Action.h
; File C:\Program Files\Microsoft Visual Studio\2022\Professional\VC\Tools\MSVC\14.44.35207\include\xmemory
; File C:\IAGOS\server\v18\Source\Source\_AIInterface\Action.h
; File C:\Program Files\Microsoft Visual Studio\2022\Professional\VC\Tools\MSVC\14.44.35207\include\deque
; File C:\IAGOS\server\v18\Source\Source\_AIInterface\Action.h
; File C:\Program Files\Microsoft Visual Studio\2022\Professional\VC\Tools\MSVC\14.44.35207\include\xmemory
; File C:\Program Files\Microsoft Visual Studio\2022\Professional\VC\Tools\MSVC\14.44.35207\include\deque
; File C:\IAGOS\server\v18\Source\Source\_AIInterface\Action.h
; File C:\Program Files\Microsoft Visual Studio\2022\Professional\VC\Tools\MSVC\14.44.35207\include\deque
; File C:\IAGOS\server\v18\Source\Source\_AIInterface\Action.h
; File C:\Program Files\Microsoft Visual Studio\2022\Professional\VC\Tools\MSVC\14.44.35207\include\deque
; File C:\Program Files\Microsoft Visual Studio\2022\Professional\VC\Tools\MSVC\14.44.35207\include\utility
; File C:\Program Files\Microsoft Visual Studio\2022\Professional\VC\Tools\MSVC\14.44.35207\include\xmemory
; File C:\Program Files\Microsoft Visual Studio\2022\Professional\VC\Tools\MSVC\14.44.35207\include\utility
; File C:\Program Files\Microsoft Visual Studio\2022\Professional\VC\Tools\MSVC\14.44.35207\include\xmemory
; File C:\IAGOS\server\v18\Source\Source\_AIInterface\Action.h
;	COMDAT ??1?$CActMsgq@UtagACTMSG@@@@UAE@XZ
_TEXT	SEGMENT
??1?$CActMsgq@UtagACTMSG@@@@UAE@XZ PROC			; CActMsgq<tagACTMSG>::~CActMsgq<tagACTMSG>, COMDAT
; _this$ = ecx

; 112  : {

  00000	53		 push	 ebx
  00001	56		 push	 esi

; 113  : 	for( deque<T*>::iterator i = m_qpam.begin(); i != m_qpam.end(); ++i )

  00002	8d 71 04	 lea	 esi, DWORD PTR [ecx+4]
  00005	c7 01 00 00 00
	00		 mov	 DWORD PTR [ecx], OFFSET ??_7?$CActMsgq@UtagACTMSG@@@@6B@
; File C:\Program Files\Microsoft Visual Studio\2022\Professional\VC\Tools\MSVC\14.44.35207\include\xmemory

; 1301 :             _Myproxy = _Parent->_Myproxy;

  0000b	8b 1e		 mov	 ebx, DWORD PTR [esi]
; File C:\IAGOS\server\v18\Source\Source\_AIInterface\Action.h

; 112  : {

  0000d	57		 push	 edi
; File C:\Program Files\Microsoft Visual Studio\2022\Professional\VC\Tools\MSVC\14.44.35207\include\deque

; 252  :     _Deque_const_iterator(_Size_type _Off, const _Container_base12* _Pdeque) noexcept : _Myoff(_Off) {

  0000e	8b 7e 0c	 mov	 edi, DWORD PTR [esi+12]
$LL4@CActMsgq:

; 911  :         return iterator(_Myoff() + _Mysize(), _STD addressof(_Get_data()));

  00011	8b 46 0c	 mov	 eax, DWORD PTR [esi+12]
  00014	03 46 10	 add	 eax, DWORD PTR [esi+16]

; 353  :         return this->_Myoff == _Right._Myoff;

  00017	3b f8		 cmp	 edi, eax
; File C:\IAGOS\server\v18\Source\Source\_AIInterface\Action.h

; 113  : 	for( deque<T*>::iterator i = m_qpam.begin(); i != m_qpam.end(); ++i )

  00019	74 30		 je	 SHORT $LN3@CActMsgq
; File C:\Program Files\Microsoft Visual Studio\2022\Professional\VC\Tools\MSVC\14.44.35207\include\xmemory

; 1309 :         return _Myproxy ? _Myproxy->_Mycont : nullptr;

  0001b	85 db		 test	 ebx, ebx
  0001d	74 04		 je	 SHORT $LN67@CActMsgq
  0001f	8b 0b		 mov	 ecx, DWORD PTR [ebx]
  00021	eb 02		 jmp	 SHORT $LN68@CActMsgq
$LN67@CActMsgq:
  00023	33 c9		 xor	 ecx, ecx
$LN68@CActMsgq:
; File C:\Program Files\Microsoft Visual Studio\2022\Professional\VC\Tools\MSVC\14.44.35207\include\deque

; 572  :         return static_cast<_Map_difference_type>((_Off / _Block_size) & (_Mapsize - 1));

  00025	8b 41 08	 mov	 eax, DWORD PTR [ecx+8]
  00028	8b d7		 mov	 edx, edi
  0002a	48		 dec	 eax
  0002b	c1 ea 02	 shr	 edx, 2
  0002e	23 d0		 and	 edx, eax
; File C:\IAGOS\server\v18\Source\Source\_AIInterface\Action.h

; 114  : 		safe_delete( *i );

  00030	8b 41 04	 mov	 eax, DWORD PTR [ecx+4]
; File C:\Program Files\Microsoft Visual Studio\2022\Professional\VC\Tools\MSVC\14.44.35207\include\deque

; 583  :         const auto _Block_off = static_cast<difference_type>(_Off % _Block_size);

  00033	8b cf		 mov	 ecx, edi
  00035	83 e1 03	 and	 ecx, 3
; File C:\IAGOS\server\v18\Source\Source\_AIInterface\Action.h

; 114  : 		safe_delete( *i );

  00038	6a 10		 push	 16			; 00000010H
  0003a	8b 04 90	 mov	 eax, DWORD PTR [eax+edx*4]
  0003d	ff 34 88	 push	 DWORD PTR [eax+ecx*4]
  00040	e8 00 00 00 00	 call	 ??3@YAXPAXI@Z		; operator delete
  00045	83 c4 08	 add	 esp, 8
; File C:\Program Files\Microsoft Visual Studio\2022\Professional\VC\Tools\MSVC\14.44.35207\include\deque

; 278  :         ++_Myoff;

  00048	47		 inc	 edi
  00049	eb c6		 jmp	 SHORT $LL4@CActMsgq
$LN3@CActMsgq:

; 1576 :         _Tidy();

  0004b	8b ce		 mov	 ecx, esi
  0004d	e8 00 00 00 00	 call	 ?_Tidy@?$deque@PAUtagACTMSG@@V?$allocator@PAUtagACTMSG@@@std@@@std@@AAEXXZ ; std::deque<tagACTMSG *,std::allocator<tagACTMSG *> >::_Tidy

; 774  :         _Tidy();

  00052	8b ce		 mov	 ecx, esi
  00054	e8 00 00 00 00	 call	 ?_Tidy@?$deque@PAUtagACTMSG@@V?$allocator@PAUtagACTMSG@@@std@@@std@@AAEXXZ ; std::deque<tagACTMSG *,std::allocator<tagACTMSG *> >::_Tidy
; File C:\Program Files\Microsoft Visual Studio\2022\Professional\VC\Tools\MSVC\14.44.35207\include\utility

; 773  :     _Ty _Old_val = static_cast<_Ty&&>(_Val);

  00059	8b 06		 mov	 eax, DWORD PTR [esi]
; File C:\Program Files\Microsoft Visual Studio\2022\Professional\VC\Tools\MSVC\14.44.35207\include\xmemory

; 289  :         ::operator delete(_Ptr, _Bytes);

  0005b	6a 08		 push	 8
  0005d	50		 push	 eax
; File C:\Program Files\Microsoft Visual Studio\2022\Professional\VC\Tools\MSVC\14.44.35207\include\utility

; 774  :     _Val         = static_cast<_Other&&>(_New_val);

  0005e	c7 06 00 00 00
	00		 mov	 DWORD PTR [esi], 0
; File C:\Program Files\Microsoft Visual Studio\2022\Professional\VC\Tools\MSVC\14.44.35207\include\xmemory

; 289  :         ::operator delete(_Ptr, _Bytes);

  00064	e8 00 00 00 00	 call	 ??3@YAXPAXI@Z		; operator delete
  00069	83 c4 08	 add	 esp, 8
  0006c	5f		 pop	 edi
  0006d	5e		 pop	 esi
  0006e	5b		 pop	 ebx
; File C:\IAGOS\server\v18\Source\Source\_AIInterface\Action.h

; 116  : }

  0006f	c3		 ret	 0
??1?$CActMsgq@UtagACTMSG@@@@UAE@XZ ENDP			; CActMsgq<tagACTMSG>::~CActMsgq<tagACTMSG>
_TEXT	ENDS
; Function compile flags: /Ogtp
; File C:\IAGOS\server\v18\Source\Source\_AIInterface\Action.h
; File C:\Program Files\Microsoft Visual Studio\2022\Professional\VC\Tools\MSVC\14.44.35207\include\xmemory
; File C:\IAGOS\server\v18\Source\Source\_AIInterface\Action.h
; File C:\Program Files\Microsoft Visual Studio\2022\Professional\VC\Tools\MSVC\14.44.35207\include\xmemory
; File C:\Program Files\Microsoft Visual Studio\2022\Professional\VC\Tools\MSVC\14.44.35207\include\deque
; File C:\Program Files\Microsoft Visual Studio\2022\Professional\VC\Tools\MSVC\14.44.35207\include\xmemory
; File C:\IAGOS\server\v18\Source\Source\_AIInterface\Action.h
;	COMDAT ??0?$CActMsgq@UtagACTMSG@@@@QAE@XZ
_TEXT	SEGMENT
_this$ = -4						; size = 4
??0?$CActMsgq@UtagACTMSG@@@@QAE@XZ PROC			; CActMsgq<tagACTMSG>::CActMsgq<tagACTMSG>, COMDAT
; _this$ = ecx

; 108  : {

  00000	55		 push	 ebp
  00001	8b ec		 mov	 ebp, esp
  00003	51		 push	 ecx
  00004	56		 push	 esi
  00005	57		 push	 edi
  00006	8b f9		 mov	 edi, ecx
  00008	8d 77 04	 lea	 esi, DWORD PTR [edi+4]
  0000b	89 7d fc	 mov	 DWORD PTR _this$[ebp], edi
; File C:\Program Files\Microsoft Visual Studio\2022\Professional\VC\Tools\MSVC\14.44.35207\include\xmemory

; 136  :         return ::operator new(_Bytes);

  0000e	6a 08		 push	 8
; File C:\IAGOS\server\v18\Source\Source\_AIInterface\Action.h

; 108  : {

  00010	c7 07 00 00 00
	00		 mov	 DWORD PTR [edi], OFFSET ??_7?$CActMsgq@UtagACTMSG@@@@6B@
; File C:\Program Files\Microsoft Visual Studio\2022\Professional\VC\Tools\MSVC\14.44.35207\include\xmemory

; 1235 :     _Container_proxy* _Myproxy = nullptr;

  00016	c7 06 00 00 00
	00		 mov	 DWORD PTR [esi], 0
; File C:\Program Files\Microsoft Visual Studio\2022\Professional\VC\Tools\MSVC\14.44.35207\include\deque

; 556  :     _Deque_val() noexcept : _Map(), _Mapsize(0), _Myoff(0), _Mysize(0) {}

  0001c	c7 46 04 00 00
	00 00		 mov	 DWORD PTR [esi+4], 0
  00023	c7 46 08 00 00
	00 00		 mov	 DWORD PTR [esi+8], 0
  0002a	c7 46 0c 00 00
	00 00		 mov	 DWORD PTR [esi+12], 0
  00031	c7 46 10 00 00
	00 00		 mov	 DWORD PTR [esi+16], 0
; File C:\Program Files\Microsoft Visual Studio\2022\Professional\VC\Tools\MSVC\14.44.35207\include\xmemory

; 136  :         return ::operator new(_Bytes);

  00038	e8 00 00 00 00	 call	 ??2@YAPAXI@Z		; operator new
  0003d	83 c4 04	 add	 esp, 4

; 1205 :     mutable _Iterator_base12* _Myfirstiter = nullptr;

  00040	c7 40 04 00 00
	00 00		 mov	 DWORD PTR [eax+4], 0

; 1222 :         _Myproxy            = _New_proxy;

  00047	89 06		 mov	 DWORD PTR [esi], eax

; 1223 :         _New_proxy->_Mycont = this;

  00049	89 30		 mov	 DWORD PTR [eax], esi
; File C:\IAGOS\server\v18\Source\Source\_AIInterface\Action.h

; 109  : }

  0004b	8b c7		 mov	 eax, edi
  0004d	5f		 pop	 edi
  0004e	5e		 pop	 esi
  0004f	8b e5		 mov	 esp, ebp
  00051	5d		 pop	 ebp
  00052	c3		 ret	 0
??0?$CActMsgq@UtagACTMSG@@@@QAE@XZ ENDP			; CActMsgq<tagACTMSG>::CActMsgq<tagACTMSG>
_TEXT	ENDS
; Function compile flags: /Ogtp
; File C:\Program Files\Microsoft Visual Studio\2022\Professional\VC\Tools\MSVC\14.44.35207\include\deque
; File C:\Program Files\Microsoft Visual Studio\2022\Professional\VC\Tools\MSVC\14.44.35207\include\xmemory
; File C:\Program Files\Microsoft Visual Studio\2022\Professional\VC\Tools\MSVC\14.44.35207\include\deque
; File C:\Program Files\Microsoft Visual Studio\2022\Professional\VC\Tools\MSVC\14.44.35207\include\xmemory
; File C:\Program Files\Microsoft Visual Studio\2022\Professional\VC\Tools\MSVC\14.44.35207\include\deque
; File C:\Program Files\Microsoft Visual Studio\2022\Professional\VC\Tools\MSVC\14.44.35207\include\xmemory
; File C:\Program Files\Microsoft Visual Studio\2022\Professional\VC\Tools\MSVC\14.44.35207\include\deque
;	COMDAT ?_Tidy@?$deque@PAUtagACTMSG@@V?$allocator@PAUtagACTMSG@@@std@@@std@@AAEXXZ
_TEXT	SEGMENT
?_Tidy@?$deque@PAUtagACTMSG@@V?$allocator@PAUtagACTMSG@@@std@@@std@@AAEXXZ PROC ; std::deque<tagACTMSG *,std::allocator<tagACTMSG *> >::_Tidy, COMDAT
; _this$ = ecx

; 1670 :     void _Tidy() noexcept { // free all storage

  00000	57		 push	 edi
  00001	8b f9		 mov	 edi, ecx

; 971  :         return _Mysize() == 0;

  00003	8b 4f 10	 mov	 ecx, DWORD PTR [edi+16]
  00006	85 c9		 test	 ecx, ecx

; 1671 :         _Orphan_all();
; 1672 : 
; 1673 :         while (!empty()) {

  00008	74 15		 je	 SHORT $LN65@Tidy
  0000a	66 0f 1f 44 00
	00		 npad	 6
$LL2@Tidy:

; 1513 :         if (--_Mysize() == 0) {

  00010	8d 41 ff	 lea	 eax, DWORD PTR [ecx-1]
  00013	89 47 10	 mov	 DWORD PTR [edi+16], eax
  00016	8b c8		 mov	 ecx, eax
  00018	85 c0		 test	 eax, eax
  0001a	75 f4		 jne	 SHORT $LL2@Tidy

; 1514 :             _Myoff() = 0;

  0001c	89 47 0c	 mov	 DWORD PTR [edi+12], eax
$LN65@Tidy:

; 1674 :             pop_back();
; 1675 :         }
; 1676 : 
; 1677 :         if (_Map() != nullptr) {

  0001f	83 7f 04 00	 cmp	 DWORD PTR [edi+4], 0
  00023	74 61		 je	 SHORT $LN25@Tidy
  00025	56		 push	 esi

; 1654 :         for (auto _Block = _Map_distance(); _Block > 0;) { // free storage for a block and destroy pointer

  00026	8b 77 08	 mov	 esi, DWORD PTR [edi+8]
  00029	85 f6		 test	 esi, esi
  0002b	7e 1d		 jle	 SHORT $LN62@Tidy
  0002d	0f 1f 00	 npad	 3
$LL23@Tidy:

; 1655 :             --_Block;
; 1656 :             auto& _Block_ptr = _Map()[_Block];
; 1657 :             if (_Block_ptr) { // free block

  00030	8b 47 04	 mov	 eax, DWORD PTR [edi+4]
  00033	4e		 dec	 esi
  00034	8b 04 b0	 mov	 eax, DWORD PTR [eax+esi*4]
  00037	85 c0		 test	 eax, eax
  00039	74 0b		 je	 SHORT $LN21@Tidy
; File C:\Program Files\Microsoft Visual Studio\2022\Professional\VC\Tools\MSVC\14.44.35207\include\xmemory

; 289  :         ::operator delete(_Ptr, _Bytes);

  0003b	6a 10		 push	 16			; 00000010H
  0003d	50		 push	 eax
  0003e	e8 00 00 00 00	 call	 ??3@YAXPAXI@Z		; operator delete
  00043	83 c4 08	 add	 esp, 8
$LN21@Tidy:
; File C:\Program Files\Microsoft Visual Studio\2022\Professional\VC\Tools\MSVC\14.44.35207\include\deque

; 1654 :         for (auto _Block = _Map_distance(); _Block > 0;) { // free storage for a block and destroy pointer

  00046	85 f6		 test	 esi, esi
  00048	7f e6		 jg	 SHORT $LL23@Tidy
$LN62@Tidy:
; File C:\Program Files\Microsoft Visual Studio\2022\Professional\VC\Tools\MSVC\14.44.35207\include\xmemory

; 985  :         _STD _Deallocate<_New_alignof<_Ty>>(_Ptr, sizeof(_Ty) * _Count);

  0004a	8b 4f 08	 mov	 ecx, DWORD PTR [edi+8]
  0004d	8b 47 04	 mov	 eax, DWORD PTR [edi+4]
  00050	c1 e1 02	 shl	 ecx, 2
  00053	5e		 pop	 esi

; 284  :         if (_Bytes >= _Big_allocation_threshold) {

  00054	81 f9 00 10 00
	00		 cmp	 ecx, 4096		; 00001000H
  0005a	72 12		 jb	 SHORT $LN51@Tidy

; 205  :     const uintptr_t _Ptr_container   = _Ptr_user[-1];

  0005c	8b 50 fc	 mov	 edx, DWORD PTR [eax-4]
  0005f	83 c1 23	 add	 ecx, 35			; 00000023H

; 206  : 
; 207  :     // If the following asserts, it likely means that we are performing
; 208  :     // an aligned delete on memory coming from an unaligned allocation.
; 209  :     _STL_ASSERT(_Ptr_user[-2] == _Big_allocation_sentinel, "invalid argument");
; 210  : 
; 211  :     // Extra paranoia on aligned allocation/deallocation; ensure _Ptr_container is
; 212  :     // in range [_Min_back_shift, _Non_user_size]
; 213  : #ifdef _DEBUG
; 214  :     constexpr uintptr_t _Min_back_shift = 2 * sizeof(void*);
; 215  : #else // ^^^ defined(_DEBUG) / !defined(_DEBUG) vvv
; 216  :     constexpr uintptr_t _Min_back_shift = sizeof(void*);
; 217  : #endif // ^^^ !defined(_DEBUG) ^^^
; 218  :     const uintptr_t _Back_shift = reinterpret_cast<uintptr_t>(_Ptr) - _Ptr_container;

  00062	2b c2		 sub	 eax, edx

; 219  :     _STL_VERIFY(_Back_shift >= _Min_back_shift && _Back_shift <= _Non_user_size, "invalid argument");

  00064	83 c0 fc	 add	 eax, -4			; fffffffcH
  00067	83 f8 1f	 cmp	 eax, 31			; 0000001fH
  0006a	77 1c		 ja	 SHORT $LN50@Tidy

; 220  :     _Ptr = reinterpret_cast<void*>(_Ptr_container);

  0006c	8b c2		 mov	 eax, edx
$LN51@Tidy:

; 289  :         ::operator delete(_Ptr, _Bytes);

  0006e	51		 push	 ecx
  0006f	50		 push	 eax
  00070	e8 00 00 00 00	 call	 ??3@YAXPAXI@Z		; operator delete
  00075	83 c4 08	 add	 esp, 8
; File C:\Program Files\Microsoft Visual Studio\2022\Professional\VC\Tools\MSVC\14.44.35207\include\deque

; 1666 :         _Map()     = nullptr;

  00078	c7 47 04 00 00
	00 00		 mov	 DWORD PTR [edi+4], 0

; 1667 :         _Mapsize() = 0;

  0007f	c7 47 08 00 00
	00 00		 mov	 DWORD PTR [edi+8], 0
$LN25@Tidy:
  00086	5f		 pop	 edi

; 1682 :     }

  00087	c3		 ret	 0
$LN50@Tidy:
; File C:\Program Files\Microsoft Visual Studio\2022\Professional\VC\Tools\MSVC\14.44.35207\include\xmemory

; 219  :     _STL_VERIFY(_Back_shift >= _Min_back_shift && _Back_shift <= _Non_user_size, "invalid argument");

  00088	6a 00		 push	 0
  0008a	6a 00		 push	 0
  0008c	6a 00		 push	 0
  0008e	6a 00		 push	 0
  00090	6a 00		 push	 0
  00092	e8 00 00 00 00	 call	 __invoke_watson
$LN74@Tidy:
  00097	cc		 int	 3
?_Tidy@?$deque@PAUtagACTMSG@@V?$allocator@PAUtagACTMSG@@@std@@@std@@AAEXXZ ENDP ; std::deque<tagACTMSG *,std::allocator<tagACTMSG *> >::_Tidy
_TEXT	ENDS
; Function compile flags: /Ogtp
; File C:\Program Files\Microsoft Visual Studio\2022\Professional\VC\Tools\MSVC\14.44.35207\include\xmemory
;	COMDAT ?_Throw_bad_array_new_length@std@@YAXXZ
_TEXT	SEGMENT
$T1 = -12						; size = 12
?_Throw_bad_array_new_length@std@@YAXXZ PROC		; std::_Throw_bad_array_new_length, COMDAT

; 107  : [[noreturn]] inline void _Throw_bad_array_new_length() {

  00000	55		 push	 ebp
  00001	8b ec		 mov	 ebp, esp
  00003	83 ec 0c	 sub	 esp, 12			; 0000000cH

; 108  :     _THROW(bad_array_new_length{});

  00006	8d 4d f4	 lea	 ecx, DWORD PTR $T1[ebp]
  00009	e8 00 00 00 00	 call	 ??0bad_array_new_length@std@@QAE@XZ ; std::bad_array_new_length::bad_array_new_length
  0000e	68 00 00 00 00	 push	 OFFSET __TI3?AVbad_array_new_length@std@@
  00013	8d 45 f4	 lea	 eax, DWORD PTR $T1[ebp]
  00016	50		 push	 eax
  00017	e8 00 00 00 00	 call	 __CxxThrowException@8
$LN3@Throw_bad_:
  0001c	cc		 int	 3
?_Throw_bad_array_new_length@std@@YAXXZ ENDP		; std::_Throw_bad_array_new_length
_TEXT	ENDS
; Function compile flags: /Ogtp
; File C:\Program Files\Microsoft Visual Studio\2022\Professional\VC\Tools\MSVC\14.44.35207\include\vcruntime_exception.h
;	COMDAT ??_Gbad_array_new_length@std@@UAEPAXI@Z
_TEXT	SEGMENT
___flags$ = 8						; size = 4
??_Gbad_array_new_length@std@@UAEPAXI@Z PROC		; std::bad_array_new_length::`scalar deleting destructor', COMDAT
; _this$ = ecx
  00000	55		 push	 ebp
  00001	8b ec		 mov	 ebp, esp

; 90   :     {

  00003	56		 push	 esi
  00004	8b f1		 mov	 esi, ecx

; 91   :         __std_exception_destroy(&_Data);

  00006	8d 46 04	 lea	 eax, DWORD PTR [esi+4]
  00009	c7 06 00 00 00
	00		 mov	 DWORD PTR [esi], OFFSET ??_7exception@std@@6B@
  0000f	50		 push	 eax
  00010	e8 00 00 00 00	 call	 ___std_exception_destroy
  00015	83 c4 04	 add	 esp, 4
  00018	f6 45 08 01	 test	 BYTE PTR ___flags$[ebp], 1
  0001c	74 0b		 je	 SHORT $LN18@scalar
  0001e	6a 0c		 push	 12			; 0000000cH
  00020	56		 push	 esi
  00021	e8 00 00 00 00	 call	 ??3@YAXPAXI@Z		; operator delete
  00026	83 c4 08	 add	 esp, 8
$LN18@scalar:
  00029	8b c6		 mov	 eax, esi
  0002b	5e		 pop	 esi
  0002c	5d		 pop	 ebp
  0002d	c2 04 00	 ret	 4
??_Gbad_array_new_length@std@@UAEPAXI@Z ENDP		; std::bad_array_new_length::`scalar deleting destructor'
_TEXT	ENDS
; Function compile flags: /Ogtp
; File C:\Program Files\Microsoft Visual Studio\2022\Professional\VC\Tools\MSVC\14.44.35207\include\vcruntime_exception.h
;	COMDAT ??0bad_array_new_length@std@@QAE@ABV01@@Z
_TEXT	SEGMENT
___that$ = 8						; size = 4
??0bad_array_new_length@std@@QAE@ABV01@@Z PROC		; std::bad_array_new_length::bad_array_new_length, COMDAT
; _this$ = ecx
  00000	55		 push	 ebp
  00001	8b ec		 mov	 ebp, esp

; 73   :     {

  00003	56		 push	 esi
  00004	8b f1		 mov	 esi, ecx
  00006	0f 57 c0	 xorps	 xmm0, xmm0

; 72   :         : _Data()

  00009	8d 46 04	 lea	 eax, DWORD PTR [esi+4]

; 74   :         __std_exception_copy(&_Other._Data, &_Data);

  0000c	50		 push	 eax
  0000d	c7 06 00 00 00
	00		 mov	 DWORD PTR [esi], OFFSET ??_7exception@std@@6B@
  00013	66 0f d6 00	 movq	 QWORD PTR [eax], xmm0
  00017	8b 45 08	 mov	 eax, DWORD PTR ___that$[ebp]
  0001a	83 c0 04	 add	 eax, 4
  0001d	50		 push	 eax
  0001e	e8 00 00 00 00	 call	 ___std_exception_copy
  00023	83 c4 08	 add	 esp, 8
  00026	c7 06 00 00 00
	00		 mov	 DWORD PTR [esi], OFFSET ??_7bad_array_new_length@std@@6B@
  0002c	8b c6		 mov	 eax, esi
  0002e	5e		 pop	 esi
  0002f	5d		 pop	 ebp
  00030	c2 04 00	 ret	 4
??0bad_array_new_length@std@@QAE@ABV01@@Z ENDP		; std::bad_array_new_length::bad_array_new_length
_TEXT	ENDS
; Function compile flags: /Ogtp
; File C:\Program Files\Microsoft Visual Studio\2022\Professional\VC\Tools\MSVC\14.44.35207\include\vcruntime_exception.h
;	COMDAT ??1bad_array_new_length@std@@UAE@XZ
_TEXT	SEGMENT
??1bad_array_new_length@std@@UAE@XZ PROC		; std::bad_array_new_length::~bad_array_new_length, COMDAT
; _this$ = ecx

; 91   :         __std_exception_destroy(&_Data);

  00000	8d 41 04	 lea	 eax, DWORD PTR [ecx+4]
  00003	c7 01 00 00 00
	00		 mov	 DWORD PTR [ecx], OFFSET ??_7exception@std@@6B@
  00009	50		 push	 eax
  0000a	e8 00 00 00 00	 call	 ___std_exception_destroy
  0000f	59		 pop	 ecx
  00010	c3		 ret	 0
??1bad_array_new_length@std@@UAE@XZ ENDP		; std::bad_array_new_length::~bad_array_new_length
_TEXT	ENDS
; Function compile flags: /Ogtp
; File C:\Program Files\Microsoft Visual Studio\2022\Professional\VC\Tools\MSVC\14.44.35207\include\vcruntime_exception.h
;	COMDAT ??0bad_array_new_length@std@@QAE@XZ
_TEXT	SEGMENT
??0bad_array_new_length@std@@QAE@XZ PROC		; std::bad_array_new_length::bad_array_new_length, COMDAT
; _this$ = ecx

; 144  :     {

  00000	0f 57 c0	 xorps	 xmm0, xmm0

; 145  :     }

  00003	8b c1		 mov	 eax, ecx

; 66   :         : _Data()

  00005	66 0f d6 41 04	 movq	 QWORD PTR [ecx+4], xmm0

; 67   :     {
; 68   :         _Data._What = _Message;

  0000a	c7 41 04 00 00
	00 00		 mov	 DWORD PTR [ecx+4], OFFSET ??_C@_0BF@KINCDENJ@bad?5array?5new?5length@

; 144  :     {

  00011	c7 01 00 00 00
	00		 mov	 DWORD PTR [ecx], OFFSET ??_7bad_array_new_length@std@@6B@

; 145  :     }

  00017	c3		 ret	 0
??0bad_array_new_length@std@@QAE@XZ ENDP		; std::bad_array_new_length::bad_array_new_length
_TEXT	ENDS
; Function compile flags: /Ogtp
; File C:\Program Files\Microsoft Visual Studio\2022\Professional\VC\Tools\MSVC\14.44.35207\include\vcruntime_exception.h
;	COMDAT ??_Gbad_alloc@std@@UAEPAXI@Z
_TEXT	SEGMENT
___flags$ = 8						; size = 4
??_Gbad_alloc@std@@UAEPAXI@Z PROC			; std::bad_alloc::`scalar deleting destructor', COMDAT
; _this$ = ecx
  00000	55		 push	 ebp
  00001	8b ec		 mov	 ebp, esp

; 90   :     {

  00003	56		 push	 esi
  00004	8b f1		 mov	 esi, ecx

; 91   :         __std_exception_destroy(&_Data);

  00006	8d 46 04	 lea	 eax, DWORD PTR [esi+4]
  00009	c7 06 00 00 00
	00		 mov	 DWORD PTR [esi], OFFSET ??_7exception@std@@6B@
  0000f	50		 push	 eax
  00010	e8 00 00 00 00	 call	 ___std_exception_destroy
  00015	83 c4 04	 add	 esp, 4
  00018	f6 45 08 01	 test	 BYTE PTR ___flags$[ebp], 1
  0001c	74 0b		 je	 SHORT $LN13@scalar
  0001e	6a 0c		 push	 12			; 0000000cH
  00020	56		 push	 esi
  00021	e8 00 00 00 00	 call	 ??3@YAXPAXI@Z		; operator delete
  00026	83 c4 08	 add	 esp, 8
$LN13@scalar:
  00029	8b c6		 mov	 eax, esi
  0002b	5e		 pop	 esi
  0002c	5d		 pop	 ebp
  0002d	c2 04 00	 ret	 4
??_Gbad_alloc@std@@UAEPAXI@Z ENDP			; std::bad_alloc::`scalar deleting destructor'
_TEXT	ENDS
; Function compile flags: /Ogtp
; File C:\Program Files\Microsoft Visual Studio\2022\Professional\VC\Tools\MSVC\14.44.35207\include\vcruntime_exception.h
;	COMDAT ??0bad_alloc@std@@QAE@ABV01@@Z
_TEXT	SEGMENT
___that$ = 8						; size = 4
??0bad_alloc@std@@QAE@ABV01@@Z PROC			; std::bad_alloc::bad_alloc, COMDAT
; _this$ = ecx
  00000	55		 push	 ebp
  00001	8b ec		 mov	 ebp, esp

; 73   :     {

  00003	56		 push	 esi
  00004	8b f1		 mov	 esi, ecx
  00006	0f 57 c0	 xorps	 xmm0, xmm0

; 72   :         : _Data()

  00009	8d 46 04	 lea	 eax, DWORD PTR [esi+4]

; 74   :         __std_exception_copy(&_Other._Data, &_Data);

  0000c	50		 push	 eax
  0000d	c7 06 00 00 00
	00		 mov	 DWORD PTR [esi], OFFSET ??_7exception@std@@6B@
  00013	66 0f d6 00	 movq	 QWORD PTR [eax], xmm0
  00017	8b 45 08	 mov	 eax, DWORD PTR ___that$[ebp]
  0001a	83 c0 04	 add	 eax, 4
  0001d	50		 push	 eax
  0001e	e8 00 00 00 00	 call	 ___std_exception_copy
  00023	83 c4 08	 add	 esp, 8
  00026	c7 06 00 00 00
	00		 mov	 DWORD PTR [esi], OFFSET ??_7bad_alloc@std@@6B@
  0002c	8b c6		 mov	 eax, esi
  0002e	5e		 pop	 esi
  0002f	5d		 pop	 ebp
  00030	c2 04 00	 ret	 4
??0bad_alloc@std@@QAE@ABV01@@Z ENDP			; std::bad_alloc::bad_alloc
_TEXT	ENDS
; Function compile flags: /Ogtp
; File C:\Program Files\Microsoft Visual Studio\2022\Professional\VC\Tools\MSVC\14.44.35207\include\vcruntime_exception.h
;	COMDAT ??_Gexception@std@@UAEPAXI@Z
_TEXT	SEGMENT
___flags$ = 8						; size = 4
??_Gexception@std@@UAEPAXI@Z PROC			; std::exception::`scalar deleting destructor', COMDAT
; _this$ = ecx
  00000	55		 push	 ebp
  00001	8b ec		 mov	 ebp, esp

; 90   :     {

  00003	56		 push	 esi
  00004	8b f1		 mov	 esi, ecx

; 91   :         __std_exception_destroy(&_Data);

  00006	8d 46 04	 lea	 eax, DWORD PTR [esi+4]
  00009	c7 06 00 00 00
	00		 mov	 DWORD PTR [esi], OFFSET ??_7exception@std@@6B@
  0000f	50		 push	 eax
  00010	e8 00 00 00 00	 call	 ___std_exception_destroy
  00015	83 c4 04	 add	 esp, 4
  00018	f6 45 08 01	 test	 BYTE PTR ___flags$[ebp], 1
  0001c	74 0b		 je	 SHORT $LN8@scalar
  0001e	6a 0c		 push	 12			; 0000000cH
  00020	56		 push	 esi
  00021	e8 00 00 00 00	 call	 ??3@YAXPAXI@Z		; operator delete
  00026	83 c4 08	 add	 esp, 8
$LN8@scalar:
  00029	8b c6		 mov	 eax, esi
  0002b	5e		 pop	 esi
  0002c	5d		 pop	 ebp
  0002d	c2 04 00	 ret	 4
??_Gexception@std@@UAEPAXI@Z ENDP			; std::exception::`scalar deleting destructor'
_TEXT	ENDS
; Function compile flags: /Ogtp
; File C:\Program Files\Microsoft Visual Studio\2022\Professional\VC\Tools\MSVC\14.44.35207\include\vcruntime_exception.h
;	COMDAT ?what@exception@std@@UBEPBDXZ
_TEXT	SEGMENT
?what@exception@std@@UBEPBDXZ PROC			; std::exception::what, COMDAT
; _this$ = ecx

; 96   :         return _Data._What ? _Data._What : "Unknown exception";

  00000	8b 49 04	 mov	 ecx, DWORD PTR [ecx+4]
  00003	b8 00 00 00 00	 mov	 eax, OFFSET ??_C@_0BC@EOODALEL@Unknown?5exception@
  00008	85 c9		 test	 ecx, ecx
  0000a	0f 45 c1	 cmovne	 eax, ecx

; 97   :     }

  0000d	c3		 ret	 0
?what@exception@std@@UBEPBDXZ ENDP			; std::exception::what
_TEXT	ENDS
; Function compile flags: /Ogtp
; File C:\Program Files\Microsoft Visual Studio\2022\Professional\VC\Tools\MSVC\14.44.35207\include\vcruntime_exception.h
;	COMDAT ??1exception@std@@UAE@XZ
_TEXT	SEGMENT
??1exception@std@@UAE@XZ PROC				; std::exception::~exception, COMDAT
; _this$ = ecx

; 91   :         __std_exception_destroy(&_Data);

  00000	8d 41 04	 lea	 eax, DWORD PTR [ecx+4]
  00003	c7 01 00 00 00
	00		 mov	 DWORD PTR [ecx], OFFSET ??_7exception@std@@6B@
  00009	50		 push	 eax
  0000a	e8 00 00 00 00	 call	 ___std_exception_destroy
  0000f	59		 pop	 ecx

; 92   :     }

  00010	c3		 ret	 0
??1exception@std@@UAE@XZ ENDP				; std::exception::~exception
_TEXT	ENDS
; Function compile flags: /Ogtp
; File C:\Program Files\Microsoft Visual Studio\2022\Professional\VC\Tools\MSVC\14.44.35207\include\vcruntime_exception.h
;	COMDAT ??0exception@std@@QAE@ABV01@@Z
_TEXT	SEGMENT
__Other$ = 8						; size = 4
??0exception@std@@QAE@ABV01@@Z PROC			; std::exception::exception, COMDAT
; _this$ = ecx

; 73   :     {

  00000	55		 push	 ebp
  00001	8b ec		 mov	 ebp, esp
  00003	56		 push	 esi
  00004	8b f1		 mov	 esi, ecx
  00006	0f 57 c0	 xorps	 xmm0, xmm0
  00009	8d 46 04	 lea	 eax, DWORD PTR [esi+4]

; 74   :         __std_exception_copy(&_Other._Data, &_Data);

  0000c	50		 push	 eax
  0000d	c7 06 00 00 00
	00		 mov	 DWORD PTR [esi], OFFSET ??_7exception@std@@6B@
  00013	66 0f d6 00	 movq	 QWORD PTR [eax], xmm0
  00017	8b 45 08	 mov	 eax, DWORD PTR __Other$[ebp]
  0001a	83 c0 04	 add	 eax, 4
  0001d	50		 push	 eax
  0001e	e8 00 00 00 00	 call	 ___std_exception_copy
  00023	83 c4 08	 add	 esp, 8

; 75   :     }

  00026	8b c6		 mov	 eax, esi
  00028	5e		 pop	 esi
  00029	5d		 pop	 ebp
  0002a	c2 04 00	 ret	 4
??0exception@std@@QAE@ABV01@@Z ENDP			; std::exception::exception
_TEXT	ENDS
; Function compile flags: /Ogtp
; File C:\IAGOS\server\v18\Source\Source\_aiinterface\action.cpp
;	COMDAT ?__empty_global_delete@@YAXPAXI@Z
_TEXT	SEGMENT
___formal$ = 8						; size = 4
___formal$ = 12						; size = 4
?__empty_global_delete@@YAXPAXI@Z PROC			; __empty_global_delete, COMDAT

  00000	c2 00 00	 ret	 0
?__empty_global_delete@@YAXPAXI@Z ENDP			; __empty_global_delete
_TEXT	ENDS
; Function compile flags: /Ogtp
; File C:\IAGOS\server\v18\Source\Source\_aiinterface\action.cpp
;	COMDAT ?__empty_global_delete@@YAXPAX@Z
_TEXT	SEGMENT
___formal$ = 8						; size = 4
?__empty_global_delete@@YAXPAX@Z PROC			; __empty_global_delete, COMDAT

  00000	c2 00 00	 ret	 0
?__empty_global_delete@@YAXPAX@Z ENDP			; __empty_global_delete
_TEXT	ENDS
END
