; Listing generated by Microsoft (R) Optimizing Compiler Version 19.44.35225.0 

	TITLE	C:\IAGOS\server\v18\Source\Output\WorldServer\Release\ActionMoverState2.obj
	.686P
	.XMM
	include listing.inc
	.model	flat

INCLUDELIB LIBCMT
INCLUDELIB OLDNAMES

CONST	SEGMENT
?piecewise_construct@std@@3Upiecewise_construct_t@1@B	ORG $+1 ; std::piecewise_construct
CONST	ENDS
PUBLIC	?__empty_global_delete@@YAXPAX@Z		; __empty_global_delete
PUBLIC	?__empty_global_delete@@YAXPAXI@Z		; __empty_global_delete
PUBLIC	??0D3DXVECTOR3@@QAE@XZ				; D3DXVECTOR3::D3DXVECTOR3
PUBLIC	?_ProcessStateAttack2@CActionMover@@QAEXKH@Z	; CActionMover::_ProcessStateAttack2
PUBLIC	?ProcessState2@CActionMover@@QAEXPAVCMover@@KM@Z ; CActionMover::ProcessState2
PUBLIC	?ProcessFlyMove@CActionMover@@QAEXXZ		; CActionMover::ProcessFlyMove
PUBLIC	??_C@_0BM@HMFGHCP@?$CFs?5min?3?$CFd?0?5max?3?$CFd?0?5index?3?$CFd@ ; `string'
PUBLIC	??_C@_0BI@BEIFNGEL@GetItemProp?5range_error@	; `string'
PUBLIC	??_C@_0CL@CDHFNKEE@ProcessState2?$CI?$CJ?3?5?$CFs?0?5m_dwRideIt@ ; `string'
PUBLIC	__real@332bcc76
PUBLIC	__real@3c23d70a
PUBLIC	__real@3c8efa35
PUBLIC	__real@3e99999a
PUBLIC	__real@3ea8f5c3
PUBLIC	__real@3f222132
PUBLIC	__real@3f400000
PUBLIC	__real@3f7c28f6
PUBLIC	__real@3f7d2f1b
PUBLIC	__real@3f99999a
PUBLIC	__real@40000000
PUBLIC	__real@40200000
PUBLIC	__real@41855555
PUBLIC	__real@42340000
PUBLIC	__real@c2340000
PUBLIC	__xmm@80000000800000008000000080000000
EXTRN	_D3DXVec3Normalize@8:PROC
EXTRN	?Error@@YAPBDPBDZZ:PROC				; Error
EXTRN	?AddAngleX@CObj@@QAEXM@Z:PROC			; CObj::AddAngleX
EXTRN	?AddAngle@CObj@@QAEXM@Z:PROC			; CObj::AddAngle
EXTRN	?GetMover@CProject@@QAEPAVCMover@@K@Z:PROC	; CProject::GetMover
EXTRN	?RemoveStateFlag@CAction@@QAEXK@Z:PROC		; CAction::RemoveStateFlag
EXTRN	?ResetState@CAction@@QAEXK@Z:PROC		; CAction::ResetState
EXTRN	?ProcessStateAttackMagic@CActionMover@@QAEXKH@Z:PROC ; CActionMover::ProcessStateAttackMagic
EXTRN	?AddSendActMsg@CUserMng@@QAEXPAVCMover@@W4OBJMSG@@HHH@Z:PROC ; CUserMng::AddSendActMsg
EXTRN	@__security_check_cookie@4:PROC
EXTRN	__libm_sse2_cos_precise:PROC
EXTRN	__libm_sse2_sin_precise:PROC
EXTRN	?prj@@3VCProject@@A:BYTE			; prj
EXTRN	?g_UserMng@@3VCUserMng@@A:BYTE			; g_UserMng
EXTRN	___security_cookie:DWORD
EXTRN	__fltused:DWORD
;	COMDAT __xmm@80000000800000008000000080000000
CONST	SEGMENT
__xmm@80000000800000008000000080000000 DB 00H, 00H, 00H, 080H, 00H, 00H, 00H
	DB	080H, 00H, 00H, 00H, 080H, 00H, 00H, 00H, 080H
CONST	ENDS
;	COMDAT __real@c2340000
CONST	SEGMENT
__real@c2340000 DD 0c2340000r			; -45
CONST	ENDS
;	COMDAT __real@42340000
CONST	SEGMENT
__real@42340000 DD 042340000r			; 45
CONST	ENDS
;	COMDAT __real@41855555
CONST	SEGMENT
__real@41855555 DD 041855555r			; 16.6667
CONST	ENDS
;	COMDAT __real@40200000
CONST	SEGMENT
__real@40200000 DD 040200000r			; 2.5
CONST	ENDS
;	COMDAT __real@40000000
CONST	SEGMENT
__real@40000000 DD 040000000r			; 2
CONST	ENDS
;	COMDAT __real@3f99999a
CONST	SEGMENT
__real@3f99999a DD 03f99999ar			; 1.2
CONST	ENDS
;	COMDAT __real@3f7d2f1b
CONST	SEGMENT
__real@3f7d2f1b DD 03f7d2f1br			; 0.989
CONST	ENDS
;	COMDAT __real@3f7c28f6
CONST	SEGMENT
__real@3f7c28f6 DD 03f7c28f6r			; 0.985
CONST	ENDS
;	COMDAT __real@3f400000
CONST	SEGMENT
__real@3f400000 DD 03f400000r			; 0.75
CONST	ENDS
;	COMDAT __real@3f222132
CONST	SEGMENT
__real@3f222132 DD 03f222132r			; 0.633319
CONST	ENDS
;	COMDAT __real@3ea8f5c3
CONST	SEGMENT
__real@3ea8f5c3 DD 03ea8f5c3r			; 0.33
CONST	ENDS
;	COMDAT __real@3e99999a
CONST	SEGMENT
__real@3e99999a DD 03e99999ar			; 0.3
CONST	ENDS
;	COMDAT __real@3c8efa35
CONST	SEGMENT
__real@3c8efa35 DD 03c8efa35r			; 0.0174533
CONST	ENDS
;	COMDAT __real@3c23d70a
CONST	SEGMENT
__real@3c23d70a DD 03c23d70ar			; 0.01
CONST	ENDS
;	COMDAT __real@332bcc76
CONST	SEGMENT
__real@332bcc76 DD 0332bcc76r			; 4e-08
CONST	ENDS
;	COMDAT ??_C@_0CL@CDHFNKEE@ProcessState2?$CI?$CJ?3?5?$CFs?0?5m_dwRideIt@
CONST	SEGMENT
??_C@_0CL@CDHFNKEE@ProcessState2?$CI?$CJ?3?5?$CFs?0?5m_dwRideIt@ DB 'Proc'
	DB	'essState2(): %s, m_dwRideItemIdx == %d', 00H ; `string'
CONST	ENDS
;	COMDAT ??_C@_0BI@BEIFNGEL@GetItemProp?5range_error@
CONST	SEGMENT
??_C@_0BI@BEIFNGEL@GetItemProp?5range_error@ DB 'GetItemProp range_error', 00H ; `string'
CONST	ENDS
;	COMDAT ??_C@_0BM@HMFGHCP@?$CFs?5min?3?$CFd?0?5max?3?$CFd?0?5index?3?$CFd@
CONST	SEGMENT
??_C@_0BM@HMFGHCP@?$CFs?5min?3?$CFd?0?5max?3?$CFd?0?5index?3?$CFd@ DB '%s'
	DB	' min:%d, max:%d, index:%d', 00H		; `string'
CONST	ENDS
; Function compile flags: /Ogtp
; File C:\IAGOS\server\v18\Source\Source\_AIInterface\ActionMoverState2.cpp
; File C:\IAGOS\server\v18\Source\Source\DX_SDK\d3dx9math.inl
; File C:\IAGOS\server\v18\Source\Source\_AIInterface\ActionMoverState2.cpp
; File C:\IAGOS\server\v18\Source\Source\DX_SDK\d3dx9math.inl
; File C:\IAGOS\server\v18\Source\Source\_AIInterface\ActionMoverState2.cpp
; File C:\Program Files (x86)\Windows Kits\10\Include\10.0.26100.0\ucrt\corecrt_math.h
; File C:\IAGOS\server\v18\Source\Source\_AIInterface\ActionMoverState2.cpp
; File C:\Program Files (x86)\Windows Kits\10\Include\10.0.26100.0\ucrt\corecrt_math.h
; File C:\IAGOS\server\v18\Source\Source\_AIInterface\ActionMoverState2.cpp
; File C:\Program Files (x86)\Windows Kits\10\Include\10.0.26100.0\ucrt\corecrt_math.h
; File C:\IAGOS\server\v18\Source\Source\_AIInterface\ActionMoverState2.cpp
; File C:\Program Files (x86)\Windows Kits\10\Include\10.0.26100.0\ucrt\corecrt_math.h
; File C:\IAGOS\server\v18\Source\Source\_AIInterface\ActionMoverState2.cpp
; File C:\IAGOS\server\v18\Source\Source\DX_SDK\d3dx9math.inl
; File C:\IAGOS\server\v18\Source\Source\_AIInterface\ActionMoverState2.cpp
; File C:\IAGOS\server\v18\Source\Source\DX_SDK\d3dx9math.inl
; File C:\IAGOS\server\v18\Source\Source\_AIInterface\ActionMoverState2.cpp
; File C:\IAGOS\server\v18\Source\Source\DX_SDK\d3dx9math.inl
; File C:\IAGOS\server\v18\Source\Source\_AIInterface\ActionMoverState2.cpp
; File C:\IAGOS\server\v18\Source\Source\DX_SDK\d3dx9math.inl
; File C:\IAGOS\server\v18\Source\Source\_AIInterface\ActionMoverState2.cpp
; File C:\IAGOS\server\v18\Source\Source\DX_SDK\d3dx9math.inl
; File C:\IAGOS\server\v18\Source\Source\_AIInterface\ActionMoverState2.cpp
; File C:\IAGOS\server\v18\Source\Source\DX_SDK\d3dx9math.inl
; File C:\IAGOS\server\v18\Source\Source\_AIInterface\ActionMoverState2.cpp
; File C:\IAGOS\server\v18\Source\Source\DX_SDK\d3dx9math.inl
; File C:\IAGOS\server\v18\Source\Source\_AIInterface\ActionMoverState2.cpp
; File C:\IAGOS\server\v18\Source\Source\DX_SDK\d3dx9math.inl
; File C:\IAGOS\server\v18\Source\Source\_AIInterface\ActionMoverState2.cpp
; File C:\IAGOS\server\v18\Source\Source\DX_SDK\d3dx9math.inl
; File C:\IAGOS\server\v18\Source\Source\_AIInterface\ActionMoverState2.cpp
;	COMDAT ?ProcessFlyMove@CActionMover@@QAEXXZ
_TEXT	SEGMENT
_vAcc$1$ = -56						; size = 4
_fLenSq$1$ = -52					; size = 4
_fDist$1$ = -48						; size = 4
_vAcc$2$ = -48						; size = 4
_fAccPwr$1$ = -44					; size = 4
_vAccNorm$1 = -40					; size = 12
tv774 = -36						; size = 8
_vDeltaNorm$2 = -28					; size = 12
tv775 = -24						; size = 8
_vAcc$3 = -16						; size = 12
__$ArrayPad$ = -4					; size = 4
?ProcessFlyMove@CActionMover@@QAEXXZ PROC		; CActionMover::ProcessFlyMove, COMDAT
; _this$ = ecx

; 344  : {

  00000	55		 push	 ebp
  00001	8b ec		 mov	 ebp, esp
  00003	83 ec 38	 sub	 esp, 56			; 00000038H
  00006	a1 00 00 00 00	 mov	 eax, DWORD PTR ___security_cookie
  0000b	33 c5		 xor	 eax, ebp
  0000d	89 45 fc	 mov	 DWORD PTR __$ArrayPad$[ebp], eax
  00010	56		 push	 esi
  00011	8b f1		 mov	 esi, ecx
; File C:\IAGOS\server\v18\Source\Source\DX_SDK\d3dx9math.inl

; 1698 :     return pV->x * pV->x + pV->y * pV->y + pV->z * pV->z;

  00013	f3 0f 10 4e 54	 movss	 xmm1, DWORD PTR [esi+84]
  00018	f3 0f 10 56 50	 movss	 xmm2, DWORD PTR [esi+80]
  0001d	f3 0f 10 46 58	 movss	 xmm0, DWORD PTR [esi+88]
  00022	f3 0f 59 d2	 mulss	 xmm2, xmm2
  00026	f3 0f 59 c9	 mulss	 xmm1, xmm1
  0002a	f3 0f 59 c0	 mulss	 xmm0, xmm0
  0002e	f3 0f 58 d1	 addss	 xmm2, xmm1
  00032	0f 57 c9	 xorps	 xmm1, xmm1
  00035	f3 0f 58 d0	 addss	 xmm2, xmm0
; File C:\IAGOS\server\v18\Source\Source\_AIInterface\ActionMoverState2.cpp

; 349  : 	if( fLenSq == 0.0f && (GetStateFlag() & OBJSTAF_ACC ) == 0 )	  

  00039	0f 2e d1	 ucomiss xmm2, xmm1
; File C:\IAGOS\server\v18\Source\Source\DX_SDK\d3dx9math.inl

; 1698 :     return pV->x * pV->x + pV->y * pV->y + pV->z * pV->z;

  0003c	f3 0f 11 55 cc	 movss	 DWORD PTR _fLenSq$1$[ebp], xmm2
; File C:\IAGOS\server\v18\Source\Source\_AIInterface\ActionMoverState2.cpp

; 349  : 	if( fLenSq == 0.0f && (GetStateFlag() & OBJSTAF_ACC ) == 0 )	  

  00041	9f		 lahf
  00042	f6 c4 44	 test	 ah, 68			; 00000044H
  00045	7a 0a		 jp	 SHORT $LN40@ProcessFly
  00047	f6 46 08 10	 test	 BYTE PTR [esi+8], 16	; 00000010H
  0004b	0f 84 c9 02 00
	00		 je	 $LN11@ProcessFly
$LN40@ProcessFly:
  00051	8b 46 08	 mov	 eax, DWORD PTR [esi+8]

; 350  : 		return;										// 멈춤 상태면 리턴 
; 351  : 
; 352  : 	CMover* pMover = m_pMover;
; 353  : 	FLOAT fAccPwr = m_fAccPower;

  00054	f3 0f 10 4e 4c	 movss	 xmm1, DWORD PTR [esi+76]
  00059	25 90 00 00 00	 and	 eax, 144		; 00000090H
  0005e	f3 0f 11 4d d4	 movss	 DWORD PTR _fAccPwr$1$[ebp], xmm1
  00063	57		 push	 edi
  00064	8b 7e 0c	 mov	 edi, DWORD PTR [esi+12]
  00067	3c 90		 cmp	 al, 144			; 00000090H

; 354  : 
; 355  : #ifdef __CLIENT
; 356  : 	ProcessFlyTracking();
; 357  : #endif // client
; 358  : 	
; 359  : 	// 터보모드 처리 
; 360  : 	if( (GetStateFlag() & OBJSTAF_TURBO) && (GetStateFlag() & OBJSTAF_ACC) )		// 터보모드 & 전진중

  00069	75 63		 jne	 SHORT $LN5@ProcessFly

; 361  : 	{
; 362  : 	#ifdef __WORLDSERVER
; 363  : 		pMover->m_tmAccFuel	=  (int)( pMover->m_tmAccFuel - (1000.0f / (float)FRAME_PER_SEC) );		// 1/60만큼 깎음

  0006b	66 0f 6e 87 7c
	06 00 00	 movd	 xmm0, DWORD PTR [edi+1660]
  00073	0f 5b c0	 cvtdq2ps xmm0, xmm0
  00076	f3 0f 5c 05 00
	00 00 00	 subss	 xmm0, DWORD PTR __real@41855555
  0007e	f3 0f 2c c0	 cvttss2si eax, xmm0
  00082	89 87 7c 06 00
	00		 mov	 DWORD PTR [edi+1660], eax

; 364  : 	#endif
; 365  : 		if( pMover->m_tmAccFuel <= 0 )				// 가속연료가 다 떨어지면

  00088	85 c0		 test	 eax, eax
  0008a	7f 35		 jg	 SHORT $LN4@ProcessFly

; 366  : 		{
; 367  : 			pMover->m_tmAccFuel = 0;
; 368  : 			SendActMsg( OBJMSG_MODE_TURBO_OFF );	// 터보모드 중지 

  0008c	6a 00		 push	 0
  0008e	6a 00		 push	 0
  00090	6a 00		 push	 0
  00092	6a 00		 push	 0
  00094	c7 87 7c 06 00
	00 00 00 00 00	 mov	 DWORD PTR [edi+1660], 0
  0009e	8b 06		 mov	 eax, DWORD PTR [esi]
  000a0	6a 00		 push	 0
  000a2	6a 19		 push	 25			; 00000019H
  000a4	ff 50 04	 call	 DWORD PTR [eax+4]

; 369  : 		#ifdef __WORLDSERVER
; 370  : 			g_UserMng.AddSendActMsg( pMover, OBJMSG_MODE_TURBO_OFF );

  000a7	6a 00		 push	 0
  000a9	6a 00		 push	 0
  000ab	6a 00		 push	 0
  000ad	6a 19		 push	 25			; 00000019H
  000af	57		 push	 edi
  000b0	b9 00 00 00 00	 mov	 ecx, OFFSET ?g_UserMng@@3VCUserMng@@A ; g_UserMng
  000b5	e8 00 00 00 00	 call	 ?AddSendActMsg@CUserMng@@QAEXPAVCMover@@W4OBJMSG@@HHH@Z ; CUserMng::AddSendActMsg

; 371  : 		#endif
; 372  : 		}

  000ba	f3 0f 10 4d d4	 movss	 xmm1, DWORD PTR _fAccPwr$1$[ebp]
  000bf	eb 0d		 jmp	 SHORT $LN5@ProcessFly
$LN4@ProcessFly:

; 373  : 		else
; 374  : 			fAccPwr *= 1.2f;						// 가속연료가 남아있다면 터보모드

  000c1	f3 0f 59 0d 00
	00 00 00	 mulss	 xmm1, DWORD PTR __real@3f99999a
  000c9	f3 0f 11 4d d4	 movss	 DWORD PTR _fAccPwr$1$[ebp], xmm1
$LN5@ProcessFly:

; 375  : 	}
; 376  : 
; 377  : #ifdef __CLIENT
; 378  : 	ProcessFlyParticle( fLenSq );
; 379  : #endif
; 380  : 
; 381  : 	// 관성처리 
; 382  : 	if( fAccPwr > 0.0f )

  000ce	0f 57 c0	 xorps	 xmm0, xmm0
  000d1	0f 2f c8	 comiss	 xmm1, xmm0
  000d4	0f 86 bd 01 00
	00		 jbe	 $LN10@ProcessFly

; 383  : 	{
; 384  : 		// 힘벡터 생성
; 385  : 		FLOAT fAngX  = D3DXToRadian( pMover->GetAngleX() );		

  000da	f3 0f 10 47 1c	 movss	 xmm0, DWORD PTR [edi+28]
  000df	f3 0f 59 05 00
	00 00 00	 mulss	 xmm0, DWORD PTR __real@3c8efa35
; File C:\Program Files (x86)\Windows Kits\10\Include\10.0.26100.0\ucrt\corecrt_math.h

; 683  :             return (float)cos(_X);

  000e7	0f 5a c0	 cvtps2pd xmm0, xmm0
  000ea	f2 0f 11 45 dc	 movsd	 QWORD PTR tv774[ebp], xmm0
  000ef	e8 00 00 00 00	 call	 __libm_sse2_cos_precise
  000f4	f2 0f 5a c0	 cvtsd2ss xmm0, xmm0
; File C:\IAGOS\server\v18\Source\Source\_AIInterface\ActionMoverState2.cpp

; 387  : 		FLOAT fDist  = cosf(fAngX) * fAccPwr;		

  000f8	f3 0f 59 45 d4	 mulss	 xmm0, DWORD PTR _fAccPwr$1$[ebp]
  000fd	f3 0f 11 45 d0	 movss	 DWORD PTR _fDist$1$[ebp], xmm0
  00102	f3 0f 10 47 18	 movss	 xmm0, DWORD PTR [edi+24]
  00107	f3 0f 59 05 00
	00 00 00	 mulss	 xmm0, DWORD PTR __real@3c8efa35
; File C:\Program Files (x86)\Windows Kits\10\Include\10.0.26100.0\ucrt\corecrt_math.h

; 789  :             return (float)sin(_X);

  0010f	0f 5a c0	 cvtps2pd xmm0, xmm0
  00112	f2 0f 11 45 e8	 movsd	 QWORD PTR tv775[ebp], xmm0
  00117	e8 00 00 00 00	 call	 __libm_sse2_sin_precise
  0011c	f2 0f 5a c0	 cvtsd2ss xmm0, xmm0
; File C:\IAGOS\server\v18\Source\Source\_AIInterface\ActionMoverState2.cpp

; 390  : 		vAcc.x = sinf( fAng ) * fDist;

  00120	f3 0f 59 45 d0	 mulss	 xmm0, DWORD PTR _fDist$1$[ebp]
  00125	f3 0f 11 45 c8	 movss	 DWORD PTR _vAcc$1$[ebp], xmm0
  0012a	f3 0f 11 45 f0	 movss	 DWORD PTR _vAcc$3[ebp], xmm0
; File C:\Program Files (x86)\Windows Kits\10\Include\10.0.26100.0\ucrt\corecrt_math.h

; 683  :             return (float)cos(_X);

  0012f	f2 0f 10 45 e8	 movsd	 xmm0, QWORD PTR tv775[ebp]
  00134	e8 00 00 00 00	 call	 __libm_sse2_cos_precise
  00139	f2 0f 5a c0	 cvtsd2ss xmm0, xmm0
; File C:\IAGOS\server\v18\Source\Source\_AIInterface\ActionMoverState2.cpp

; 391  : 		vAcc.z = -cosf( fAng ) * fDist;

  0013d	0f 57 05 00 00
	00 00		 xorps	 xmm0, DWORD PTR __xmm@80000000800000008000000080000000
  00144	f3 0f 59 45 d0	 mulss	 xmm0, DWORD PTR _fDist$1$[ebp]
  00149	f3 0f 11 45 d0	 movss	 DWORD PTR _vAcc$2$[ebp], xmm0
  0014e	f3 0f 11 45 f8	 movss	 DWORD PTR _vAcc$3[ebp+8], xmm0
; File C:\Program Files (x86)\Windows Kits\10\Include\10.0.26100.0\ucrt\corecrt_math.h

; 789  :             return (float)sin(_X);

  00153	f2 0f 10 45 dc	 movsd	 xmm0, QWORD PTR tv774[ebp]
  00158	e8 00 00 00 00	 call	 __libm_sse2_sin_precise
  0015d	0f 57 db	 xorps	 xmm3, xmm3
  00160	f2 0f 5a d8	 cvtsd2ss xmm3, xmm0
; File C:\IAGOS\server\v18\Source\Source\_AIInterface\ActionMoverState2.cpp

; 395  : 		if( fLenSq > 0.01f )

  00164	f3 0f 10 45 cc	 movss	 xmm0, DWORD PTR _fLenSq$1$[ebp]
  00169	0f 2f 05 00 00
	00 00		 comiss	 xmm0, DWORD PTR __real@3c23d70a
  00170	0f 57 1d 00 00
	00 00		 xorps	 xmm3, DWORD PTR __xmm@80000000800000008000000080000000
  00177	f3 0f 59 5d d4	 mulss	 xmm3, DWORD PTR _fAccPwr$1$[ebp]
  0017c	f3 0f 11 5d f4	 movss	 DWORD PTR _vAcc$3[ebp+4], xmm3
  00181	0f 86 a4 00 00
	00		 jbe	 $LN42@ProcessFly

; 396  : 		{
; 397  : 			D3DXVECTOR3 vDeltaNorm, vAccNorm;
; 398  : 			D3DXVec3Normalize( &vDeltaNorm, &m_vDelta );

  00187	8d 46 50	 lea	 eax, DWORD PTR [esi+80]
  0018a	50		 push	 eax
  0018b	8d 45 e4	 lea	 eax, DWORD PTR _vDeltaNorm$2[ebp]
  0018e	50		 push	 eax
  0018f	e8 00 00 00 00	 call	 _D3DXVec3Normalize@8

; 399  : 			D3DXVec3Normalize( &vAccNorm, &vAcc );

  00194	8d 45 f0	 lea	 eax, DWORD PTR _vAcc$3[ebp]
  00197	50		 push	 eax
  00198	8d 45 d8	 lea	 eax, DWORD PTR _vAccNorm$1[ebp]
  0019b	50		 push	 eax
  0019c	e8 00 00 00 00	 call	 _D3DXVec3Normalize@8
; File C:\IAGOS\server\v18\Source\Source\DX_SDK\d3dx9math.inl

; 1709 :     return pV1->x * pV2->x + pV1->y * pV2->y + pV1->z * pV2->z;

  001a1	f3 0f 10 45 d8	 movss	 xmm0, DWORD PTR _vAccNorm$1[ebp]
  001a6	f3 0f 59 45 e4	 mulss	 xmm0, DWORD PTR _vDeltaNorm$2[ebp]
  001ab	f3 0f 10 4d dc	 movss	 xmm1, DWORD PTR _vAccNorm$1[ebp+4]
  001b0	f3 0f 59 4d e8	 mulss	 xmm1, DWORD PTR _vDeltaNorm$2[ebp+4]
; File C:\IAGOS\server\v18\Source\Source\_AIInterface\ActionMoverState2.cpp

; 402  : 			if( fDot < 0.633319f )					// 이전코드: cosf(70.0f)  값으로는 대략 50도 

  001b5	f3 0f 10 6d f0	 movss	 xmm5, DWORD PTR _vAcc$3[ebp]
  001ba	f3 0f 10 5d f4	 movss	 xmm3, DWORD PTR _vAcc$3[ebp+4]
  001bf	f3 0f 10 55 f8	 movss	 xmm2, DWORD PTR _vAcc$3[ebp+8]
; File C:\IAGOS\server\v18\Source\Source\DX_SDK\d3dx9math.inl

; 1709 :     return pV1->x * pV2->x + pV1->y * pV2->y + pV1->z * pV2->z;

  001c4	f3 0f 58 c8	 addss	 xmm1, xmm0
  001c8	f3 0f 10 45 e0	 movss	 xmm0, DWORD PTR _vAccNorm$1[ebp+8]
  001cd	f3 0f 59 45 ec	 mulss	 xmm0, DWORD PTR _vDeltaNorm$2[ebp+8]
  001d2	f3 0f 58 c8	 addss	 xmm1, xmm0
; File C:\IAGOS\server\v18\Source\Source\_AIInterface\ActionMoverState2.cpp

; 402  : 			if( fDot < 0.633319f )					// 이전코드: cosf(70.0f)  값으로는 대략 50도 

  001d6	f3 0f 10 05 00
	00 00 00	 movss	 xmm0, DWORD PTR __real@3f222132
  001de	0f 2f c1	 comiss	 xmm0, xmm1
  001e1	76 52		 jbe	 SHORT $LN8@ProcessFly
; File C:\IAGOS\server\v18\Source\Source\DX_SDK\d3dx9math.inl

; 342  :     x *= f;

  001e3	f3 0f 10 05 00
	00 00 00	 movss	 xmm0, DWORD PTR __real@40000000
  001eb	f3 0f 10 0d 00
	00 00 00	 movss	 xmm1, DWORD PTR __real@3f7c28f6
  001f3	f3 0f 59 e8	 mulss	 xmm5, xmm0

; 343  :     y *= f;

  001f7	f3 0f 59 d8	 mulss	 xmm3, xmm0

; 344  :     z *= f;

  001fb	f3 0f 59 d0	 mulss	 xmm2, xmm0

; 342  :     x *= f;

  001ff	f3 0f 10 46 50	 movss	 xmm0, DWORD PTR [esi+80]
  00204	f3 0f 59 c1	 mulss	 xmm0, xmm1
  00208	f3 0f 11 46 50	 movss	 DWORD PTR [esi+80], xmm0

; 343  :     y *= f;

  0020d	f3 0f 10 46 54	 movss	 xmm0, DWORD PTR [esi+84]
  00212	f3 0f 59 c1	 mulss	 xmm0, xmm1
  00216	f3 0f 11 46 54	 movss	 DWORD PTR [esi+84], xmm0

; 344  :     z *= f;

  0021b	f3 0f 10 46 58	 movss	 xmm0, DWORD PTR [esi+88]
  00220	f3 0f 59 c1	 mulss	 xmm0, xmm1
  00224	f3 0f 11 46 58	 movss	 DWORD PTR [esi+88], xmm0
; File C:\IAGOS\server\v18\Source\Source\_AIInterface\ActionMoverState2.cpp

; 402  : 			if( fDot < 0.633319f )					// 이전코드: cosf(70.0f)  값으로는 대략 50도 

  00229	eb 0a		 jmp	 SHORT $LN8@ProcessFly
$LN42@ProcessFly:

; 395  : 		if( fLenSq > 0.01f )

  0022b	f3 0f 10 55 d0	 movss	 xmm2, DWORD PTR _vAcc$2$[ebp]
  00230	f3 0f 10 6d c8	 movss	 xmm5, DWORD PTR _vAcc$1$[ebp]
$LN8@ProcessFly:

; 420  : 		if( GetStateFlag() & OBJSTAF_TURBO )		// 터보모드에선 MAX속도가 1.1배

  00235	f6 46 08 80	 test	 BYTE PTR [esi+8], 128	; 00000080H
; File C:\IAGOS\server\v18\Source\Source\DX_SDK\d3dx9math.inl

; 1698 :     return pV->x * pV->x + pV->y * pV->y + pV->z * pV->z;

  00239	f3 0f 10 76 50	 movss	 xmm6, DWORD PTR [esi+80]
  0023e	f3 0f 10 4e 54	 movss	 xmm1, DWORD PTR [esi+84]
  00243	0f 28 e6	 movaps	 xmm4, xmm6
  00246	f3 0f 10 46 58	 movss	 xmm0, DWORD PTR [esi+88]
  0024b	f3 0f 59 e6	 mulss	 xmm4, xmm6
  0024f	f3 0f 59 c9	 mulss	 xmm1, xmm1
  00253	f3 0f 59 c0	 mulss	 xmm0, xmm0
  00257	f3 0f 58 e1	 addss	 xmm4, xmm1
  0025b	f3 0f 58 e0	 addss	 xmm4, xmm0
; File C:\IAGOS\server\v18\Source\Source\_AIInterface\ActionMoverState2.cpp

; 419  : 		float fMaxSpeed = 0.3f;

  0025f	f3 0f 10 05 00
	00 00 00	 movss	 xmm0, DWORD PTR __real@3e99999a

; 420  : 		if( GetStateFlag() & OBJSTAF_TURBO )		// 터보모드에선 MAX속도가 1.1배

  00267	74 08		 je	 SHORT $LN9@ProcessFly

; 421  : 			fMaxSpeed *= 1.1f;

  00269	f3 0f 10 05 00
	00 00 00	 movss	 xmm0, DWORD PTR __real@3ea8f5c3
$LN9@ProcessFly:

; 422  : 			
; 423  : 		if( fLenSq < (fMaxSpeed * fMaxSpeed) )		// 일정이상 속도를 넘지 않게 하자.

  00271	f3 0f 59 c0	 mulss	 xmm0, xmm0
  00275	0f 2f c4	 comiss	 xmm0, xmm4
  00278	76 1d		 jbe	 SHORT $LN10@ProcessFly
; File C:\IAGOS\server\v18\Source\Source\DX_SDK\d3dx9math.inl

; 325  :     y += v.y;

  0027a	f3 0f 58 5e 54	 addss	 xmm3, DWORD PTR [esi+84]

; 326  :     z += v.z;

  0027f	f3 0f 58 56 58	 addss	 xmm2, DWORD PTR [esi+88]
  00284	f3 0f 58 f5	 addss	 xmm6, xmm5
  00288	f3 0f 11 5e 54	 movss	 DWORD PTR [esi+84], xmm3
  0028d	f3 0f 11 56 58	 movss	 DWORD PTR [esi+88], xmm2
  00292	f3 0f 11 76 50	 movss	 DWORD PTR [esi+80], xmm6
$LN10@ProcessFly:

; 342  :     x *= f;

  00297	f3 0f 10 05 00
	00 00 00	 movss	 xmm0, DWORD PTR __real@3f7d2f1b
  0029f	0f 57 e4	 xorps	 xmm4, xmm4
  002a2	f3 0f 10 56 50	 movss	 xmm2, DWORD PTR [esi+80]

; 343  :     y *= f;

  002a7	f3 0f 10 4e 54	 movss	 xmm1, DWORD PTR [esi+84]

; 344  :     z *= f;

  002ac	f3 0f 10 5e 58	 movss	 xmm3, DWORD PTR [esi+88]
  002b1	f3 0f 59 d0	 mulss	 xmm2, xmm0
; File C:\IAGOS\server\v18\Source\Source\_AIInterface\ActionMoverState2.cpp

; 431  : 	if( m_fAccPower == 0.0f && fLenSq < 0.0002f * 0.0002f )		

  002b5	5f		 pop	 edi
; File C:\IAGOS\server\v18\Source\Source\DX_SDK\d3dx9math.inl

; 343  :     y *= f;

  002b6	f3 0f 59 c8	 mulss	 xmm1, xmm0

; 344  :     z *= f;

  002ba	f3 0f 59 d8	 mulss	 xmm3, xmm0
; File C:\IAGOS\server\v18\Source\Source\_AIInterface\ActionMoverState2.cpp

; 431  : 	if( m_fAccPower == 0.0f && fLenSq < 0.0002f * 0.0002f )		

  002be	f3 0f 10 46 4c	 movss	 xmm0, DWORD PTR [esi+76]
  002c3	0f 2e c4	 ucomiss xmm0, xmm4
; File C:\IAGOS\server\v18\Source\Source\DX_SDK\d3dx9math.inl

; 342  :     x *= f;

  002c6	f3 0f 11 56 50	 movss	 DWORD PTR [esi+80], xmm2

; 343  :     y *= f;

  002cb	f3 0f 11 4e 54	 movss	 DWORD PTR [esi+84], xmm1
; File C:\IAGOS\server\v18\Source\Source\_AIInterface\ActionMoverState2.cpp

; 431  : 	if( m_fAccPower == 0.0f && fLenSq < 0.0002f * 0.0002f )		

  002d0	9f		 lahf
; File C:\IAGOS\server\v18\Source\Source\DX_SDK\d3dx9math.inl

; 344  :     z *= f;

  002d1	f3 0f 11 5e 58	 movss	 DWORD PTR [esi+88], xmm3
; File C:\IAGOS\server\v18\Source\Source\_AIInterface\ActionMoverState2.cpp

; 431  : 	if( m_fAccPower == 0.0f && fLenSq < 0.0002f * 0.0002f )		

  002d6	f6 c4 44	 test	 ah, 68			; 00000044H
  002d9	7a 3f		 jp	 SHORT $LN11@ProcessFly
  002db	f3 0f 10 05 00
	00 00 00	 movss	 xmm0, DWORD PTR __real@332bcc76
; File C:\IAGOS\server\v18\Source\Source\DX_SDK\d3dx9math.inl

; 1698 :     return pV->x * pV->x + pV->y * pV->y + pV->z * pV->z;

  002e3	f3 0f 59 c9	 mulss	 xmm1, xmm1
  002e7	f3 0f 59 d2	 mulss	 xmm2, xmm2
  002eb	f3 0f 59 db	 mulss	 xmm3, xmm3
  002ef	f3 0f 58 ca	 addss	 xmm1, xmm2
  002f3	f3 0f 58 cb	 addss	 xmm1, xmm3
; File C:\IAGOS\server\v18\Source\Source\_AIInterface\ActionMoverState2.cpp

; 431  : 	if( m_fAccPower == 0.0f && fLenSq < 0.0002f * 0.0002f )		

  002f7	0f 2f c1	 comiss	 xmm0, xmm1
  002fa	76 1e		 jbe	 SHORT $LN11@ProcessFly

; 432  : 	{
; 433  : 		fLenSq = 0;
; 434  : 		m_vDelta = D3DXVECTOR3( 0.0f, 0.0f, 0.0f );		

  002fc	c7 46 50 00 00
	00 00		 mov	 DWORD PTR [esi+80], 0

; 435  : 		RemoveStateFlag( OBJSTAF_ACC );				// 가속상태 해제 

  00303	8b ce		 mov	 ecx, esi
  00305	c7 46 54 00 00
	00 00		 mov	 DWORD PTR [esi+84], 0
  0030c	6a 10		 push	 16			; 00000010H
  0030e	c7 46 58 00 00
	00 00		 mov	 DWORD PTR [esi+88], 0
  00315	e8 00 00 00 00	 call	 ?RemoveStateFlag@CAction@@QAEXK@Z ; CAction::RemoveStateFlag
$LN11@ProcessFly:

; 436  : 	}
; 437  : 
; 438  : #ifdef __CLIENT
; 439  : 	if( pMover->IsActiveMover() )
; 440  : 	{
; 441  : 		g_nFlySpeed = (int)( (sqrt(fLenSq) * 60.0f) * 60.0f * 60.0f );
; 442  : 		g_nFlySpeed	= (int)( g_nFlySpeed / 200.0f );
; 443  : 	}
; 444  : #endif
; 445  : }

  0031a	8b 4d fc	 mov	 ecx, DWORD PTR __$ArrayPad$[ebp]
  0031d	33 cd		 xor	 ecx, ebp
  0031f	5e		 pop	 esi
  00320	e8 00 00 00 00	 call	 @__security_check_cookie@4
  00325	8b e5		 mov	 esp, ebp
  00327	5d		 pop	 ebp
  00328	c3		 ret	 0
?ProcessFlyMove@CActionMover@@QAEXXZ ENDP		; CActionMover::ProcessFlyMove
_TEXT	ENDS
; Function compile flags: /Ogtp
; File C:\IAGOS\server\v18\Source\Source\_AIInterface\ActionMoverState2.cpp
; File C:\IAGOS\server\v18\Source\Source\_Common\Project.h
; File C:\IAGOS\server\v18\Source\Source\_Common\data.h
; File C:\IAGOS\server\v18\Source\Source\_AIInterface\ActionMoverState2.cpp
; File C:\IAGOS\server\v18\Source\Source\_AIInterface\Action.h
; File C:\IAGOS\server\v18\Source\Source\_AIInterface\ActionMoverState2.cpp
; File C:\IAGOS\server\v18\Source\Source\_AIInterface\Action.h
; File C:\IAGOS\server\v18\Source\Source\_AIInterface\ActionMoverState2.cpp
; File C:\IAGOS\server\v18\Source\Source\_AIInterface\Action.h
; File C:\IAGOS\server\v18\Source\Source\_AIInterface\ActionMoverState2.cpp
; File C:\IAGOS\server\v18\Source\Source\_Common\Project.h
; File C:\IAGOS\server\v18\Source\Source\_AIInterface\ActionMoverState2.cpp
;	COMDAT ?ProcessState2@CActionMover@@QAEXPAVCMover@@KM@Z
_TEXT	SEGMENT
_pMover$ = 8						; size = 4
$T1 = 8							; size = 4
tv517 = 8						; size = 4
_dwState$ = 12						; size = 4
_fSpeed$ = 16						; size = 4
?ProcessState2@CActionMover@@QAEXPAVCMover@@KM@Z PROC	; CActionMover::ProcessState2, COMDAT
; _this$ = ecx

; 453  : {

  00000	55		 push	 ebp
  00001	8b ec		 mov	 ebp, esp
  00003	56		 push	 esi
  00004	8b f1		 mov	 esi, ecx
  00006	57		 push	 edi

; 454  : 	int nParam = 0;
; 455  : 	float fAng = pMover->GetAngleX();

  00007	8b 7d 08	 mov	 edi, DWORD PTR _pMover$[ebp]

; 456  : 	CModelObject* pModel = (CModelObject*)pMover->m_pModel;
; 457  : 
; 458  : 	ItemProp* pItemProp = prj.GetItemProp( m_pMover->m_dwRideItemIdx );

  0000a	8b 46 0c	 mov	 eax, DWORD PTR [esi+12]
  0000d	f3 0f 10 4f 1c	 movss	 xmm1, DWORD PTR [edi+28]
  00012	8b 97 78 01 00
	00		 mov	 edx, DWORD PTR [edi+376]
  00018	8b 88 e4 14 00
	00		 mov	 ecx, DWORD PTR [eax+5348]
; File C:\IAGOS\server\v18\Source\Source\_Common\Project.h

; 1389 : 	VERIFY_RANGE_ASSERT( nIndex, 0, m_aPropItem.GetSize(), "GetItemProp range_error", NULL );

  0001e	a1 40 02 00 00	 mov	 eax, DWORD PTR ?prj@@3VCProject@@A+576
  00023	85 c9		 test	 ecx, ecx
  00025	0f 88 91 02 00
	00		 js	 $LN45@ProcessSta
  0002b	3b c8		 cmp	 ecx, eax
  0002d	0f 8d 89 02 00
	00		 jge	 $LN45@ProcessSta
; File C:\IAGOS\server\v18\Source\Source\_Common\data.h

; 270  : 	if( dwIndex >= (DWORD)m_nMaxIndex )

  00033	72 04		 jb	 SHORT $LN50@ProcessSta

; 271  : 		return NULL;

  00035	33 c9		 xor	 ecx, ecx
  00037	eb 08		 jmp	 SHORT $LN93@ProcessSta
$LN50@ProcessSta:

; 272  : 	return (T*) m_apOffset[ dwIndex ];

  00039	a1 30 02 00 00	 mov	 eax, DWORD PTR ?prj@@3VCProject@@A+560
  0003e	8b 0c 88	 mov	 ecx, DWORD PTR [eax+ecx*4]
$LN93@ProcessSta:
; File C:\IAGOS\server\v18\Source\Source\_AIInterface\ActionMoverState2.cpp

; 459  : 	if( !pItemProp )

  00041	89 4d 08	 mov	 DWORD PTR $T1[ebp], ecx
  00044	85 c9		 test	 ecx, ecx
  00046	0f 84 86 02 00
	00		 je	 $LN58@ProcessSta

; 462  : 		return;
; 463  : 	}
; 464  : 
; 465  : 	switch( dwState )

  0004c	8b 45 0c	 mov	 eax, DWORD PTR _dwState$[ebp]
  0004f	3d 00 00 01 00	 cmp	 eax, 65536		; 00010000H
  00054	0f 87 c5 01 00
	00		 ja	 $LN37@ProcessSta
  0005a	0f 84 e1 01 00
	00		 je	 $LN26@ProcessSta
  00060	3d 00 02 00 00	 cmp	 eax, 512		; 00000200H
  00065	0f 87 47 01 00
	00		 ja	 $LN38@ProcessSta
  0006b	0f 84 ec 00 00
	00		 je	 $LN19@ProcessSta
  00071	83 e8 01	 sub	 eax, 1
  00074	0f 84 95 00 00
	00		 je	 $LN5@ProcessSta
  0007a	83 e8 03	 sub	 eax, 3
  0007d	74 59		 je	 SHORT $LN11@ProcessSta
  0007f	2d fc 00 00 00	 sub	 eax, 252		; 000000fcH
  00084	0f 85 64 02 00
	00		 jne	 $LN32@ProcessSta

; 492  : 	// 좌/우 돌기
; 493  : 	case OBJSTA_LTURN:
; 494  : 		{
; 495  : 			float fTurnAng = m_fTurnAngle;
; 496  : 			if( (GetStateFlag() & OBJSTAF_ACC) == 0 )		// 가속상태가 아닐때는 2배로 빨리 돈다.

  0008a	f6 46 08 10	 test	 BYTE PTR [esi+8], 16	; 00000010H
  0008e	f3 0f 10 86 84
	00 00 00	 movss	 xmm0, DWORD PTR [esi+132]
  00096	75 08		 jne	 SHORT $LN17@ProcessSta

; 497  : 				fTurnAng *= 2.5f;

  00098	f3 0f 59 05 00
	00 00 00	 mulss	 xmm0, DWORD PTR __real@40200000
$LN17@ProcessSta:

; 498  : 			pMover->AddAngle( fTurnAng );

  000a0	51		 push	 ecx
  000a1	8b cf		 mov	 ecx, edi
  000a3	f3 0f 11 04 24	 movss	 DWORD PTR [esp], xmm0
  000a8	e8 00 00 00 00	 call	 ?AddAngle@CObj@@QAEXM@Z	; CObj::AddAngle
; File C:\IAGOS\server\v18\Source\Source\_AIInterface\Action.h

; 322  : 	BOOL			IsActAttack()		{ return m_dwState & OBJSTA_ATK_ALL; }

  000ad	f7 46 04 00 00
	ff 00		 test	 DWORD PTR [esi+4], 16711680 ; 00ff0000H
; File C:\IAGOS\server\v18\Source\Source\_AIInterface\ActionMoverState2.cpp

; 500  : 		if( IsActAttack() )	break;

  000b4	0f 85 34 02 00
	00		 jne	 $LN32@ProcessSta

; 501  : 		pMover->SetMotion( pItemProp->dwUseMotion + MTA_FLTURN1, ANILOOP_LOOP, MOP_FIXED );

  000ba	8b 45 08	 mov	 eax, DWORD PTR $T1[ebp]
  000bd	8b cf		 mov	 ecx, edi
  000bf	8b 17		 mov	 edx, DWORD PTR [edi]
  000c1	6a 02		 push	 2
  000c3	6a 04		 push	 4
  000c5	8b 80 b8 01 00
	00		 mov	 eax, DWORD PTR [eax+440]
  000cb	83 c0 03	 add	 eax, 3
  000ce	50		 push	 eax
  000cf	ff 52 04	 call	 DWORD PTR [edx+4]
  000d2	5f		 pop	 edi

; 547  : 				}
; 548  : 			}
; 549  : 		#endif
; 550  : 		break;
; 551  : 	}
; 552  : }

  000d3	5e		 pop	 esi
  000d4	5d		 pop	 ebp
  000d5	c2 0c 00	 ret	 12			; 0000000cH
$LN11@ProcessSta:
  000d8	f7 46 04 00 03
	ff 00		 test	 DWORD PTR [esi+4], 16712448 ; 00ff0300H

; 475  : 				if( pMover->m_pRide )	
; 476  : 					pMover->m_pRide->m_fFrameCurrent = 0;
; 477  : 		}
; 478  : 		break;
; 479  : 	// 전진
; 480  : 	case OBJSTA_FMOVE:
; 481  : 		// 무버가 타고있는 아이템의 인덱스에서 추진력을 꺼내옴.
; 482  : 		m_fAccPower = pItemProp->fFlightSpeed * 0.75f;

  000df	f3 0f 10 81 1c
	02 00 00	 movss	 xmm0, DWORD PTR [ecx+540]
  000e7	f3 0f 59 05 00
	00 00 00	 mulss	 xmm0, DWORD PTR __real@3f400000
  000ef	f3 0f 11 46 4c	 movss	 DWORD PTR [esi+76], xmm0

; 483  : 
; 484  : 		if( GetState() & OBJSTA_ATK_ALL )	break;

  000f4	0f 85 f4 01 00
	00		 jne	 $LN32@ProcessSta

; 485  : 		if( GetState() & OBJSTA_TURN_ALL )	break;
; 486  : 		{
; 487  : 			if( pMover->SetMotion( pItemProp->dwUseMotion + MTA_FRUNNING1, ANILOOP_LOOP, MOP_FIXED ) == TRUE )		// 대기상태

  000fa	8b 17		 mov	 edx, DWORD PTR [edi]
  000fc	8b 81 b8 01 00
	00		 mov	 eax, DWORD PTR [ecx+440]
  00102	6a 02		 push	 2
  00104	83 c0 07	 add	 eax, 7
  00107	6a 04		 push	 4
  00109	50		 push	 eax
  0010a	8b 42 04	 mov	 eax, DWORD PTR [edx+4]

; 488  : 				if( pMover->m_pRide )		
; 489  : 					pMover->m_pRide->m_fFrameCurrent = 0;
; 490  : 		}
; 491  : 		break;

  0010d	eb 23		 jmp	 SHORT $LN95@ProcessSta
$LN5@ProcessSta:
  0010f	f7 46 04 00 03
	ff 0f		 test	 DWORD PTR [esi+4], 268370688 ; 0fff0300H

; 466  : 	{
; 467  : 	// 제자리 대기 / 정지
; 468  : 	case OBJSTA_STAND:
; 469  : 		m_fAccPower = 0;		// 대기/정지상태에선 힘을 더이상 가하지 않는다.

  00116	c7 46 4c 00 00
	00 00		 mov	 DWORD PTR [esi+76], 0

; 470  : 		if( GetState() & OBJSTA_ATK_ALL )	break;

  0011d	0f 85 cb 01 00
	00		 jne	 $LN32@ProcessSta

; 471  : 		if( GetState() & OBJSTA_TURN_ALL )	break;
; 472  : 		if( GetState() & OBJSTA_DMG_ALL )	break;
; 473  : 		{
; 474  : 			if( pMover->SetMotion( pItemProp->dwUseMotion + MTA_FSTAND1, ANILOOP_LOOP, MOP_FIXED ) == TRUE )		// 대기상태

  00123	8b 07		 mov	 eax, DWORD PTR [edi]
  00125	6a 02		 push	 2
  00127	6a 04		 push	 4
  00129	ff b1 b8 01 00
	00		 push	 DWORD PTR [ecx+440]
  0012f	8b 40 04	 mov	 eax, DWORD PTR [eax+4]
$LN95@ProcessSta:

; 547  : 				}
; 548  : 			}
; 549  : 		#endif
; 550  : 		break;
; 551  : 	}
; 552  : }

  00132	8b cf		 mov	 ecx, edi
  00134	ff d0		 call	 eax
  00136	83 f8 01	 cmp	 eax, 1
  00139	0f 85 af 01 00
	00		 jne	 $LN32@ProcessSta
  0013f	8b 87 e8 14 00
	00		 mov	 eax, DWORD PTR [edi+5352]
  00145	85 c0		 test	 eax, eax
  00147	0f 84 a1 01 00
	00		 je	 $LN32@ProcessSta
  0014d	5f		 pop	 edi
  0014e	c7 80 a0 00 00
	00 00 00 00 00	 mov	 DWORD PTR [eax+160], 0
  00158	5e		 pop	 esi
  00159	5d		 pop	 ebp
  0015a	c2 0c 00	 ret	 12			; 0000000cH
$LN19@ProcessSta:

; 502  : 		
; 503  : 		break;
; 504  : 	case OBJSTA_RTURN:
; 505  : 		{
; 506  : 			float fTurnAng = m_fTurnAngle;
; 507  : 			if( (GetStateFlag() & OBJSTAF_ACC) == 0 )		// 가속상태가 아닐때는 2배로 빨리 돈다.

  0015d	f6 46 08 10	 test	 BYTE PTR [esi+8], 16	; 00000010H
  00161	f3 0f 10 86 84
	00 00 00	 movss	 xmm0, DWORD PTR [esi+132]
  00169	75 08		 jne	 SHORT $LN20@ProcessSta

; 508  : 				fTurnAng *= 2.5f;

  0016b	f3 0f 59 05 00
	00 00 00	 mulss	 xmm0, DWORD PTR __real@40200000
$LN20@ProcessSta:

; 509  : 			pMover->AddAngle( -fTurnAng );

  00173	0f 57 05 00 00
	00 00		 xorps	 xmm0, DWORD PTR __xmm@80000000800000008000000080000000
  0017a	51		 push	 ecx
  0017b	8b cf		 mov	 ecx, edi
  0017d	f3 0f 11 04 24	 movss	 DWORD PTR [esp], xmm0
  00182	e8 00 00 00 00	 call	 ?AddAngle@CObj@@QAEXM@Z	; CObj::AddAngle
; File C:\IAGOS\server\v18\Source\Source\_AIInterface\Action.h

; 322  : 	BOOL			IsActAttack()		{ return m_dwState & OBJSTA_ATK_ALL; }

  00187	f7 46 04 00 00
	ff 00		 test	 DWORD PTR [esi+4], 16711680 ; 00ff0000H
; File C:\IAGOS\server\v18\Source\Source\_AIInterface\ActionMoverState2.cpp

; 511  : 		if( IsActAttack() )	break;

  0018e	0f 85 5a 01 00
	00		 jne	 $LN32@ProcessSta

; 512  : 		pMover->SetMotion( pItemProp->dwUseMotion + MTA_FRTURN1, ANILOOP_LOOP, MOP_FIXED );

  00194	8b 45 08	 mov	 eax, DWORD PTR $T1[ebp]
  00197	8b cf		 mov	 ecx, edi
  00199	8b 17		 mov	 edx, DWORD PTR [edi]
  0019b	6a 02		 push	 2
  0019d	6a 04		 push	 4
  0019f	8b 80 b8 01 00
	00		 mov	 eax, DWORD PTR [eax+440]
  001a5	83 c0 05	 add	 eax, 5
  001a8	50		 push	 eax
  001a9	ff 52 04	 call	 DWORD PTR [edx+4]
  001ac	5f		 pop	 edi

; 547  : 				}
; 548  : 			}
; 549  : 		#endif
; 550  : 		break;
; 551  : 	}
; 552  : }

  001ad	5e		 pop	 esi
  001ae	5d		 pop	 ebp
  001af	c2 0c 00	 ret	 12			; 0000000cH
$LN38@ProcessSta:

; 462  : 		return;
; 463  : 	}
; 464  : 
; 465  : 	switch( dwState )

  001b2	3d 00 04 00 00	 cmp	 eax, 1024		; 00000400H
  001b7	74 37		 je	 SHORT $LN22@ProcessSta
  001b9	3d 00 08 00 00	 cmp	 eax, 2048		; 00000800H
  001be	0f 85 2a 01 00
	00		 jne	 $LN32@ProcessSta

; 517  : 		break;
; 518  : 	case OBJSTA_LOOKDOWN:
; 519  : 		if( fAng < 45.0f )

  001c4	f3 0f 10 05 00
	00 00 00	 movss	 xmm0, DWORD PTR __real@42340000
  001cc	0f 2f c1	 comiss	 xmm0, xmm1
  001cf	0f 86 19 01 00
	00		 jbe	 $LN32@ProcessSta

; 520  : 			pMover->AddAngleX( pItemProp->fFlightTBAngle );

  001d5	f3 0f 10 81 24
	02 00 00	 movss	 xmm0, DWORD PTR [ecx+548]
  001dd	51		 push	 ecx
  001de	8b cf		 mov	 ecx, edi
  001e0	f3 0f 11 04 24	 movss	 DWORD PTR [esp], xmm0
  001e5	e8 00 00 00 00	 call	 ?AddAngleX@CObj@@QAEXM@Z ; CObj::AddAngleX
  001ea	5f		 pop	 edi

; 547  : 				}
; 548  : 			}
; 549  : 		#endif
; 550  : 		break;
; 551  : 	}
; 552  : }

  001eb	5e		 pop	 esi
  001ec	5d		 pop	 ebp
  001ed	c2 0c 00	 ret	 12			; 0000000cH
$LN22@ProcessSta:

; 513  : 		break;
; 514  : 	case OBJSTA_LOOKUP:
; 515  : 		if( fAng > -45.0f )

  001f0	0f 2f 0d 00 00
	00 00		 comiss	 xmm1, DWORD PTR __real@c2340000
  001f7	0f 86 f1 00 00
	00		 jbe	 $LN32@ProcessSta

; 516  : 			pMover->AddAngleX( -pItemProp->fFlightTBAngle );

  001fd	f3 0f 10 81 24
	02 00 00	 movss	 xmm0, DWORD PTR [ecx+548]
  00205	0f 57 05 00 00
	00 00		 xorps	 xmm0, DWORD PTR __xmm@80000000800000008000000080000000
  0020c	51		 push	 ecx
  0020d	8b cf		 mov	 ecx, edi
  0020f	f3 0f 11 04 24	 movss	 DWORD PTR [esp], xmm0
  00214	e8 00 00 00 00	 call	 ?AddAngleX@CObj@@QAEXM@Z ; CObj::AddAngleX
  00219	5f		 pop	 edi

; 547  : 				}
; 548  : 			}
; 549  : 		#endif
; 550  : 		break;
; 551  : 	}
; 552  : }

  0021a	5e		 pop	 esi
  0021b	5d		 pop	 ebp
  0021c	c2 0c 00	 ret	 12			; 0000000cH
$LN37@ProcessSta:

; 462  : 		return;
; 463  : 	}
; 464  : 
; 465  : 	switch( dwState )

  0021f	3d 00 00 05 00	 cmp	 eax, 327680		; 00050000H
  00224	77 3b		 ja	 SHORT $LN39@ProcessSta
  00226	74 29		 je	 SHORT $LN30@ProcessSta
  00228	3d 00 00 02 00	 cmp	 eax, 131072		; 00020000H
  0022d	74 12		 je	 SHORT $LN26@ProcessSta
  0022f	3d 00 00 03 00	 cmp	 eax, 196608		; 00030000H
  00234	74 0b		 je	 SHORT $LN26@ProcessSta
  00236	3d 00 00 04 00	 cmp	 eax, 262144		; 00040000H
  0023b	0f 85 ad 00 00
	00		 jne	 $LN32@ProcessSta
$LN26@ProcessSta:

; 521  : 		break;
; 522  : 	//--------- 공격 ---------------------------
; 523  : 	case OBJSTA_ATK1:
; 524  : 	case OBJSTA_ATK2:
; 525  : 	case OBJSTA_ATK3:
; 526  : 	case OBJSTA_ATK4:
; 527  : 		_ProcessStateAttack2( dwState, nParam );

  00241	6a 00		 push	 0
  00243	50		 push	 eax
  00244	8b ce		 mov	 ecx, esi
  00246	e8 00 00 00 00	 call	 ?_ProcessStateAttack2@CActionMover@@QAEXKH@Z ; CActionMover::_ProcessStateAttack2
  0024b	5f		 pop	 edi

; 547  : 				}
; 548  : 			}
; 549  : 		#endif
; 550  : 		break;
; 551  : 	}
; 552  : }

  0024c	5e		 pop	 esi
  0024d	5d		 pop	 ebp
  0024e	c2 0c 00	 ret	 12			; 0000000cH
$LN30@ProcessSta:

; 528  : 		break;
; 529  : 	case OBJSTA_ATK_MAGIC1:		// 원거리 완드 공격.
; 530  : 		ProcessStateAttackMagic( dwState, nParam );

  00251	6a 00		 push	 0
  00253	50		 push	 eax
  00254	8b ce		 mov	 ecx, esi
  00256	e8 00 00 00 00	 call	 ?ProcessStateAttackMagic@CActionMover@@QAEXKH@Z ; CActionMover::ProcessStateAttackMagic
  0025b	5f		 pop	 edi

; 547  : 				}
; 548  : 			}
; 549  : 		#endif
; 550  : 		break;
; 551  : 	}
; 552  : }

  0025c	5e		 pop	 esi
  0025d	5d		 pop	 ebp
  0025e	c2 0c 00	 ret	 12			; 0000000cH
$LN39@ProcessSta:

; 462  : 		return;
; 463  : 	}
; 464  : 
; 465  : 	switch( dwState )

  00261	3d 00 00 00 01	 cmp	 eax, 16777216		; 01000000H
  00266	74 39		 je	 SHORT $LN31@ProcessSta
  00268	3d 00 00 00 08	 cmp	 eax, 134217728		; 08000000H
  0026d	75 7f		 jne	 SHORT $LN32@ProcessSta

; 537  : 		break;
; 538  : 	case OBJSTA_DEAD:	// 죽어 널부러진 상태
; 539  : 		#ifdef __WORLDSERVER
; 540  : 			if( !pMover->IsPlayer() ) 

  0026f	83 bf 30 02 00
	00 00		 cmp	 DWORD PTR [edi+560], 0
  00276	75 76		 jne	 SHORT $LN32@ProcessSta

; 541  : 			{
; 542  : 				m_nDeadCnt--;

  00278	83 86 a0 00 00
	00 ff		 add	 DWORD PTR [esi+160], -1

; 543  : 				if( m_nDeadCnt < 0 )

  0027f	79 6d		 jns	 SHORT $LN32@ProcessSta
; File C:\IAGOS\server\v18\Source\Source\_AIInterface\Action.h

; 292  : 	void			SetState( DWORD dwType, DWORD dwState )	{ ResetState(dwType);	m_dwState |= dwState; }

  00281	68 00 00 00 0f	 push	 251658240		; 0f000000H
  00286	8b ce		 mov	 ecx, esi
  00288	e8 00 00 00 00	 call	 ?ResetState@CAction@@QAEXK@Z ; CAction::ResetState
  0028d	81 4e 04 00 00
	00 09		 or	 DWORD PTR [esi+4], 150994944 ; 09000000H
  00294	5f		 pop	 edi
; File C:\IAGOS\server\v18\Source\Source\_AIInterface\ActionMoverState2.cpp

; 546  : 					m_nCount = 0;

  00295	c7 46 40 00 00
	00 00		 mov	 DWORD PTR [esi+64], 0

; 547  : 				}
; 548  : 			}
; 549  : 		#endif
; 550  : 		break;
; 551  : 	}
; 552  : }

  0029c	5e		 pop	 esi
  0029d	5d		 pop	 ebp
  0029e	c2 0c 00	 ret	 12			; 0000000cH
$LN31@ProcessSta:

; 531  : 		break;
; 532  : 
; 533  : 	//----------- 데미지 -------------------------
; 534  : 	case OBJSTA_DMG:
; 535  : 		if( pModel->IsEndFrame() )	

  002a1	83 ba 9c 00 00
	00 00		 cmp	 DWORD PTR [edx+156], 0
  002a8	74 44		 je	 SHORT $LN32@ProcessSta

; 536  : 			ResetState( OBJSTA_DMG_ALL );

  002aa	68 00 00 00 0f	 push	 251658240		; 0f000000H
  002af	8b ce		 mov	 ecx, esi
  002b1	e8 00 00 00 00	 call	 ?ResetState@CAction@@QAEXK@Z ; CAction::ResetState
  002b6	5f		 pop	 edi

; 547  : 				}
; 548  : 			}
; 549  : 		#endif
; 550  : 		break;
; 551  : 	}
; 552  : }

  002b7	5e		 pop	 esi
  002b8	5d		 pop	 ebp
  002b9	c2 0c 00	 ret	 12			; 0000000cH
$LN45@ProcessSta:
; File C:\IAGOS\server\v18\Source\Source\_Common\Project.h

; 579  : 	LPCTSTR szErr = Error( _T( "%s min:%d, max:%d, index:%d" ), szMsg, nMin, nMax, nIndex ); 

  002bc	51		 push	 ecx
  002bd	50		 push	 eax
  002be	6a 00		 push	 0
  002c0	68 00 00 00 00	 push	 OFFSET ??_C@_0BI@BEIFNGEL@GetItemProp?5range_error@
  002c5	68 00 00 00 00	 push	 OFFSET ??_C@_0BM@HMFGHCP@?$CFs?5min?3?$CFd?0?5max?3?$CFd?0?5index?3?$CFd@
  002ca	e8 00 00 00 00	 call	 ?Error@@YAPBDPBDZZ	; Error
  002cf	83 c4 14	 add	 esp, 20			; 00000014H
$LN58@ProcessSta:
; File C:\IAGOS\server\v18\Source\Source\_AIInterface\ActionMoverState2.cpp

; 461  : 		Error( "ProcessState2(): %s, m_dwRideItemIdx == %d", m_pMover->m_szName, m_pMover->m_dwRideItemIdx );

  002d2	8b 46 0c	 mov	 eax, DWORD PTR [esi+12]
  002d5	ff b0 e4 14 00
	00		 push	 DWORD PTR [eax+5348]
  002db	05 ec 14 00 00	 add	 eax, 5356		; 000014ecH
  002e0	50		 push	 eax
  002e1	68 00 00 00 00	 push	 OFFSET ??_C@_0CL@CDHFNKEE@ProcessState2?$CI?$CJ?3?5?$CFs?0?5m_dwRideIt@
  002e6	e8 00 00 00 00	 call	 ?Error@@YAPBDPBDZZ	; Error
  002eb	83 c4 0c	 add	 esp, 12			; 0000000cH
$LN32@ProcessSta:

; 547  : 				}
; 548  : 			}
; 549  : 		#endif
; 550  : 		break;
; 551  : 	}
; 552  : }

  002ee	5f		 pop	 edi
  002ef	5e		 pop	 esi
  002f0	5d		 pop	 ebp
  002f1	c2 0c 00	 ret	 12			; 0000000cH
?ProcessState2@CActionMover@@QAEXPAVCMover@@KM@Z ENDP	; CActionMover::ProcessState2
_TEXT	ENDS
; Function compile flags: /Ogtp
; File C:\IAGOS\server\v18\Source\Source\_AIInterface\ActionMoverState2.cpp
; File C:\IAGOS\server\v18\Source\Source\_Common\Obj.h
; File C:\IAGOS\server\v18\Source\Source\_AIInterface\Action.h
; File C:\IAGOS\server\v18\Source\Source\_Common\Mover.h
; File C:\IAGOS\server\v18\Source\Source\_AIInterface\ActionMover.h
; File C:\IAGOS\server\v18\Source\Source\_AIInterface\ActionMoverState2.cpp
;	COMDAT ?_ProcessStateAttack2@CActionMover@@QAEXKH@Z
_TEXT	SEGMENT
_pMover$1$ = -4						; size = 4
_dwState$ = 8						; size = 4
_nParam$ = 12						; size = 4
?_ProcessStateAttack2@CActionMover@@QAEXKH@Z PROC	; CActionMover::_ProcessStateAttack2, COMDAT
; _this$ = ecx

; 558  : {

  00000	55		 push	 ebp
  00001	8b ec		 mov	 ebp, esp
  00003	51		 push	 ecx

; 559  : 	CMover* pMover = m_pMover;
; 560  : 	CModelObject	*pModel = (CModelObject *)pMover->m_pModel;
; 561  : 	
; 562  : 	switch( dwState )

  00004	81 7d 08 00 00
	01 00		 cmp	 DWORD PTR _dwState$[ebp], 65536 ; 00010000H
  0000b	53		 push	 ebx
  0000c	8b d9		 mov	 ebx, ecx
  0000e	56		 push	 esi
  0000f	8b 43 0c	 mov	 eax, DWORD PTR [ebx+12]
  00012	89 45 fc	 mov	 DWORD PTR _pMover$1$[ebp], eax
  00015	8b b0 78 01 00
	00		 mov	 esi, DWORD PTR [eax+376]
  0001b	0f 85 c6 00 00
	00		 jne	 $LN10@ProcessSta

; 563  : 	{
; 564  : 	case OBJSTA_ATK1:
; 565  : 		if( pModel->IsEndFrame() )

  00021	83 be 9c 00 00
	00 00		 cmp	 DWORD PTR [esi+156], 0
  00028	74 0a		 je	 SHORT $LN5@ProcessSta

; 566  : 			ResetState( OBJSTA_ATK_ALL );

  0002a	68 00 00 ff 00	 push	 16711680		; 00ff0000H
  0002f	e8 00 00 00 00	 call	 ?ResetState@CAction@@QAEXK@Z ; CAction::ResetState
$LN5@ProcessSta:

; 567  : 
; 568  : 		if( pModel->m_nPause > 0 )

  00034	8b 86 94 00 00
	00		 mov	 eax, DWORD PTR [esi+148]
  0003a	85 c0		 test	 eax, eax
  0003c	7e 0f		 jle	 SHORT $LN6@ProcessSta

; 569  : 		{
; 570  : 			--pModel->m_nPause;

  0003e	48		 dec	 eax
  0003f	89 86 94 00 00
	00		 mov	 DWORD PTR [esi+148], eax
  00045	5e		 pop	 esi

; 599  : 				}
; 600  : 					
; 601  : 			}
; 602  : 		}
; 603  : 		break;
; 604  : 	}
; 605  : }

  00046	5b		 pop	 ebx
  00047	8b e5		 mov	 esp, ebp
  00049	5d		 pop	 ebp
  0004a	c2 08 00	 ret	 8
$LN6@ProcessSta:

; 571  : 		} 
; 572  : 		else
; 573  : 		{
; 574  : 			if( pModel->IsAttrHit() )

  0004d	8b 06		 mov	 eax, DWORD PTR [esi]
  0004f	8b ce		 mov	 ecx, esi
  00051	ff 50 24	 call	 DWORD PTR [eax+36]
  00054	85 c0		 test	 eax, eax
  00056	0f 84 8b 00 00
	00		 je	 $LN10@ProcessSta

; 575  : 			{
; 576  : 				CMover* pHitObj	= prj.GetMover( m_objidHit );

  0005c	57		 push	 edi
  0005d	ff b3 a4 00 00
	00		 push	 DWORD PTR [ebx+164]
  00063	b9 00 00 00 00	 mov	 ecx, OFFSET ?prj@@3VCProject@@A ; prj
  00068	e8 00 00 00 00	 call	 ?GetMover@CProject@@QAEPAVCMover@@K@Z ; CProject::GetMover
  0006d	8b f8		 mov	 edi, eax
; File C:\IAGOS\server\v18\Source\Source\_Common\Obj.h

; 327  : 	return pObj && ( pObj->IsDelete() == FALSE ); 

  0006f	85 ff		 test	 edi, edi
  00071	74 73		 je	 SHORT $LN43@ProcessSta

; 180  : 	BOOL			IsDelete()	{ return (m_dwFlags & OBJ_FLAG_DELETE);  }

  00073	f6 47 04 01	 test	 BYTE PTR [edi+4], 1

; 327  : 	return pObj && ( pObj->IsDelete() == FALSE ); 

  00077	75 6d		 jne	 SHORT $LN43@ProcessSta
; File C:\IAGOS\server\v18\Source\Source\_AIInterface\Action.h

; 310  : 	BOOL			IsDie() { return (m_dwState & OBJSTA_DIE_ALL) ? TRUE : FALSE; }

  00079	8b 8f 38 02 00
	00		 mov	 ecx, DWORD PTR [edi+568]
; File C:\IAGOS\server\v18\Source\Source\_Common\Mover.h

; 1250 : 	BOOL			IsDie() { return m_pActMover->IsDie() || m_nHitPoint == 0; }

  0007f	f7 41 04 00 00
	00 08		 test	 DWORD PTR [ecx+4], 134217728 ; 08000000H
  00086	75 5e		 jne	 SHORT $LN43@ProcessSta
  00088	83 bf f8 05 00
	00 00		 cmp	 DWORD PTR [edi+1528], 0
  0008f	74 55		 je	 SHORT $LN43@ProcessSta
; File C:\IAGOS\server\v18\Source\Source\_AIInterface\ActionMover.h

; 134  : 	int				SendDamage( DWORD dwAtkFlags, OBJID idSender, int nParam = 0, BOOL bTarget = TRUE, int nReflect = 0 )	{	return SendActMsg( OBJMSG_DAMAGE, dwAtkFlags, idSender, nParam, bTarget, nReflect );	}

  00091	8b 55 fc	 mov	 edx, DWORD PTR _pMover$1$[ebp]
  00094	8b 01		 mov	 eax, DWORD PTR [ecx]
  00096	6a 00		 push	 0
  00098	6a 01		 push	 1
  0009a	6a 00		 push	 0
  0009c	ff b2 bc 01 00
	00		 push	 DWORD PTR [edx+444]
  000a2	6a 01		 push	 1
  000a4	6a 29		 push	 41			; 00000029H
  000a6	ff 50 04	 call	 DWORD PTR [eax+4]
; File C:\IAGOS\server\v18\Source\Source\_AIInterface\ActionMoverState2.cpp

; 581  : 				if( bSuccess == FALSE )

  000a9	85 c0		 test	 eax, eax
  000ab	74 39		 je	 SHORT $LN43@ProcessSta

; 582  : 					return;
; 583  : 			#ifdef __CLIENT
; 584  : 				ItemProp* pItemProp = pMover->GetActiveHandItemProp();
; 585  : 				if( pItemProp )
; 586  : 				{
; 587  : 					D3DXVECTOR3 v = pMover->GetPos();
; 588  : 					PLAYSND( pItemProp->dwSndAttack1, &v );
; 589  : 				}
; 590  : 			#endif
; 591  : 				if( GetMover()->IsPlayer() )

  000ad	8b 43 0c	 mov	 eax, DWORD PTR [ebx+12]
  000b0	83 b8 30 02 00
	00 00		 cmp	 DWORD PTR [eax+560], 0
  000b7	74 13		 je	 SHORT $LN12@ProcessSta

; 592  : 				{
; 593  : 					pModel->m_nPause = 5;	// frame 멈춤

  000b9	5f		 pop	 edi
  000ba	c7 86 94 00 00
	00 05 00 00 00	 mov	 DWORD PTR [esi+148], 5
  000c4	5e		 pop	 esi

; 599  : 				}
; 600  : 					
; 601  : 			}
; 602  : 		}
; 603  : 		break;
; 604  : 	}
; 605  : }

  000c5	5b		 pop	 ebx
  000c6	8b e5		 mov	 esp, ebp
  000c8	5d		 pop	 ebp
  000c9	c2 08 00	 ret	 8
$LN12@ProcessSta:

; 594  : 				}
; 595  : 				else
; 596  : 				{
; 597  : 					pModel->m_nPause = 0;	// 몬스터는 멈추지 않음

  000cc	c7 86 94 00 00
	00 00 00 00 00	 mov	 DWORD PTR [esi+148], 0

; 598  : 					pHitObj->m_pModel->m_nPause = 0;

  000d6	8b 87 78 01 00
	00		 mov	 eax, DWORD PTR [edi+376]
  000dc	c7 80 94 00 00
	00 00 00 00 00	 mov	 DWORD PTR [eax+148], 0
$LN43@ProcessSta:
  000e6	5f		 pop	 edi
$LN10@ProcessSta:
  000e7	5e		 pop	 esi

; 599  : 				}
; 600  : 					
; 601  : 			}
; 602  : 		}
; 603  : 		break;
; 604  : 	}
; 605  : }

  000e8	5b		 pop	 ebx
  000e9	8b e5		 mov	 esp, ebp
  000eb	5d		 pop	 ebp
  000ec	c2 08 00	 ret	 8
?_ProcessStateAttack2@CActionMover@@QAEXKH@Z ENDP	; CActionMover::_ProcessStateAttack2
_TEXT	ENDS
; Function compile flags: /Ogtp
; File C:\IAGOS\server\v18\Source\Source\DX_SDK\d3dx9math.h
;	COMDAT ??0D3DXVECTOR3@@QAE@XZ
_TEXT	SEGMENT
??0D3DXVECTOR3@@QAE@XZ PROC				; D3DXVECTOR3::D3DXVECTOR3, COMDAT
; _this$ = ecx

; 165  :     D3DXVECTOR3() {};

  00000	8b c1		 mov	 eax, ecx
  00002	c3		 ret	 0
??0D3DXVECTOR3@@QAE@XZ ENDP				; D3DXVECTOR3::D3DXVECTOR3
_TEXT	ENDS
; Function compile flags: /Ogtp
; File C:\IAGOS\server\v18\Source\Source\_AIInterface\ActionMoverState2.cpp
;	COMDAT ?__empty_global_delete@@YAXPAXI@Z
_TEXT	SEGMENT
___formal$ = 8						; size = 4
___formal$ = 12						; size = 4
?__empty_global_delete@@YAXPAXI@Z PROC			; __empty_global_delete, COMDAT

  00000	c2 00 00	 ret	 0
?__empty_global_delete@@YAXPAXI@Z ENDP			; __empty_global_delete
_TEXT	ENDS
; Function compile flags: /Ogtp
; File C:\IAGOS\server\v18\Source\Source\_AIInterface\ActionMoverState2.cpp
;	COMDAT ?__empty_global_delete@@YAXPAX@Z
_TEXT	SEGMENT
___formal$ = 8						; size = 4
?__empty_global_delete@@YAXPAX@Z PROC			; __empty_global_delete, COMDAT

  00000	c2 00 00	 ret	 0
?__empty_global_delete@@YAXPAX@Z ENDP			; __empty_global_delete
_TEXT	ENDS
END
