; Listing generated by Microsoft (R) Optimizing Compiler Version 19.44.35225.0 

	TITLE	C:\IAGOS\server\v18\Source\Output\WorldServer\Release\ActionMoverMsg2.obj
	.686P
	.XMM
	include listing.inc
	.model	flat

INCLUDELIB LIBCMT
INCLUDELIB OLDNAMES

CONST	SEGMENT
?piecewise_construct@std@@3Upiecewise_construct_t@1@B	ORG $+1 ; std::piecewise_construct
CONST	ENDS
PUBLIC	?__empty_global_delete@@YAXPAX@Z		; __empty_global_delete
PUBLIC	?__empty_global_delete@@YAXPAXI@Z		; __empty_global_delete
PUBLIC	?ProcessActMsg2@CActionMover@@QAEHPAVCMover@@W4OBJMSG@@HHHHH@Z ; CActionMover::ProcessActMsg2
PUBLIC	??_C@_0BM@HMFGHCP@?$CFs?5min?3?$CFd?0?5max?3?$CFd?0?5index?3?$CFd@ ; `string'
PUBLIC	??_C@_0BI@BEIFNGEL@GetItemProp?5range_error@	; `string'
PUBLIC	??_C@_0CI@HDDPLMLA@ItemProp?5is?5NULL?5in?5ProcessActM@ ; `string'
PUBLIC	??_C@_0CG@ONFHINID@ItemProp?5is?5NULL?5in?5ProcessActM@ ; `string'
PUBLIC	??_C@_0BA@HBEACJOH@OBJMSG_TURNMOVE@		; `string'
PUBLIC	__real@3c8efa35
PUBLIC	__real@3dcccccd
PUBLIC	__real@3f800000
PUBLIC	__real@42c80000
PUBLIC	__xmm@80000000800000008000000080000000
EXTRN	?Error@@YAPBDPBDZZ:PROC				; Error
EXTRN	?SetAngleX@CObj@@QAEXM@Z:PROC			; CObj::SetAngleX
EXTRN	?SetAngle@CObj@@QAEXM@Z:PROC			; CObj::SetAngle
EXTRN	?GetMover@CProject@@QAEPAVCMover@@K@Z:PROC	; CProject::GetMover
EXTRN	?AddStateFlag@CAction@@QAEXK@Z:PROC		; CAction::AddStateFlag
EXTRN	?RemoveStateFlag@CAction@@QAEXK@Z:PROC		; CAction::RemoveStateFlag
EXTRN	?ClearState@CAction@@QAEXXZ:PROC		; CAction::ClearState
EXTRN	?ResetState@CAction@@QAEXK@Z:PROC		; CAction::ResetState
EXTRN	?_ProcessMsgDmg@CActionMover@@QAEKKPAVCMover@@KHHH@Z:PROC ; CActionMover::_ProcessMsgDmg
EXTRN	?PreProcessDamage@CActionMover@@QAEPAVCMover@@PAV2@KHH@Z:PROC ; CActionMover::PreProcessDamage
EXTRN	?IsSteal@CMover@@QAEHPAV1@@Z:PROC		; CMover::IsSteal
EXTRN	?PostAIMsg@CMover@@QAEXKKKK@Z:PROC		; CMover::PostAIMsg
EXTRN	?SetJJim@CMover@@QAEXPAV1@@Z:PROC		; CMover::SetJJim
EXTRN	?RemoveInvisible@CMover@@QAEXXZ:PROC		; CMover::RemoveInvisible
EXTRN	?GetHeightAttribute@CWorld@@QAEHMM@Z:PROC	; CWorld::GetHeightAttribute
EXTRN	?GetState@CFlyffEvent@@QAEEH@Z:PROC		; CFlyffEvent::GetState
EXTRN	__libm_sse2_cos_precise:PROC
EXTRN	__libm_sse2_sin_precise:PROC
EXTRN	?prj@@3VCProject@@A:BYTE			; prj
EXTRN	?g_eLocal@@3VCFlyffEvent@@A:BYTE		; g_eLocal
EXTRN	__fltused:DWORD
;	COMDAT __xmm@80000000800000008000000080000000
CONST	SEGMENT
__xmm@80000000800000008000000080000000 DB 00H, 00H, 00H, 080H, 00H, 00H, 00H
	DB	080H, 00H, 00H, 00H, 080H, 00H, 00H, 00H, 080H
CONST	ENDS
;	COMDAT __real@42c80000
CONST	SEGMENT
__real@42c80000 DD 042c80000r			; 100
CONST	ENDS
;	COMDAT __real@3f800000
CONST	SEGMENT
__real@3f800000 DD 03f800000r			; 1
CONST	ENDS
;	COMDAT __real@3dcccccd
CONST	SEGMENT
__real@3dcccccd DD 03dcccccdr			; 0.1
CONST	ENDS
;	COMDAT __real@3c8efa35
CONST	SEGMENT
__real@3c8efa35 DD 03c8efa35r			; 0.0174533
CONST	ENDS
;	COMDAT ??_C@_0BA@HBEACJOH@OBJMSG_TURNMOVE@
CONST	SEGMENT
??_C@_0BA@HBEACJOH@OBJMSG_TURNMOVE@ DB 'OBJMSG_TURNMOVE', 00H ; `string'
CONST	ENDS
;	COMDAT ??_C@_0CG@ONFHINID@ItemProp?5is?5NULL?5in?5ProcessActM@
CONST	SEGMENT
??_C@_0CG@ONFHINID@ItemProp?5is?5NULL?5in?5ProcessActM@ DB 'ItemProp is N'
	DB	'ULL in ProcessActMsg2()', 0aH, 00H		; `string'
CONST	ENDS
;	COMDAT ??_C@_0CI@HDDPLMLA@ItemProp?5is?5NULL?5in?5ProcessActM@
CONST	SEGMENT
??_C@_0CI@HDDPLMLA@ItemProp?5is?5NULL?5in?5ProcessActM@ DB 'ItemProp is N'
	DB	'ULL in ProcessActMsg2() %d', 00H		; `string'
CONST	ENDS
;	COMDAT ??_C@_0BI@BEIFNGEL@GetItemProp?5range_error@
CONST	SEGMENT
??_C@_0BI@BEIFNGEL@GetItemProp?5range_error@ DB 'GetItemProp range_error', 00H ; `string'
CONST	ENDS
;	COMDAT ??_C@_0BM@HMFGHCP@?$CFs?5min?3?$CFd?0?5max?3?$CFd?0?5index?3?$CFd@
CONST	SEGMENT
??_C@_0BM@HMFGHCP@?$CFs?5min?3?$CFd?0?5max?3?$CFd?0?5index?3?$CFd@ DB '%s'
	DB	' min:%d, max:%d, index:%d', 00H		; `string'
CONST	ENDS
; Function compile flags: /Ogtp
; File C:\IAGOS\server\v18\Source\Source\_aiinterface\ActionMoverMsg2.cpp
; File C:\IAGOS\server\v18\Source\Source\_Common\Project.h
; File C:\IAGOS\server\v18\Source\Source\_Common\data.h
; File C:\IAGOS\server\v18\Source\Source\_Common\Project.h
; File C:\IAGOS\server\v18\Source\Source\_aiinterface\ActionMoverMsg2.cpp
; File C:\IAGOS\server\v18\Source\Source\_AIInterface\Action.h
; File C:\IAGOS\server\v18\Source\Source\_aiinterface\ActionMoverMsg2.cpp
; File C:\IAGOS\server\v18\Source\Source\_AIInterface\Action.h
; File C:\IAGOS\server\v18\Source\Source\_aiinterface\ActionMoverMsg2.cpp
; File C:\IAGOS\server\v18\Source\Source\_AIInterface\Action.h
; File C:\IAGOS\server\v18\Source\Source\_aiinterface\ActionMoverMsg2.cpp
; File C:\IAGOS\server\v18\Source\Source\_AIInterface\Action.h
; File C:\IAGOS\server\v18\Source\Source\_aiinterface\ActionMoverMsg2.cpp
; File C:\IAGOS\server\v18\Source\Source\_AIInterface\Action.h
; File C:\IAGOS\server\v18\Source\Source\_aiinterface\ActionMoverMsg2.cpp
; File C:\IAGOS\server\v18\Source\Source\_AIInterface\Action.h
; File C:\IAGOS\server\v18\Source\Source\_aiinterface\ActionMoverMsg2.cpp
; File C:\IAGOS\server\v18\Source\Source\_Common\Mover.h
; File C:\IAGOS\server\v18\Source\Source\_aiinterface\ActionMoverMsg2.cpp
; File C:\IAGOS\server\v18\Source\Source\_Common\Mover.h
; File C:\IAGOS\server\v18\Source\Source\_aiinterface\ActionMoverMsg2.cpp
; File C:\IAGOS\server\v18\Source\Source\_Common\Mover.h
; File C:\IAGOS\server\v18\Source\Source\_aiinterface\ActionMoverMsg2.cpp
; File C:\IAGOS\server\v18\Source\Source\_AIInterface\Action.h
; File C:\IAGOS\server\v18\Source\Source\_aiinterface\ActionMoverMsg2.cpp
; File C:\IAGOS\server\v18\Source\Source\_AIInterface\Action.h
; File C:\IAGOS\server\v18\Source\Source\_aiinterface\ActionMoverMsg2.cpp
; File C:\IAGOS\server\v18\Source\Source\_AIInterface\Action.h
; File C:\IAGOS\server\v18\Source\Source\_aiinterface\ActionMoverMsg2.cpp
; File C:\IAGOS\server\v18\Source\Source\_AIInterface\Action.h
; File C:\IAGOS\server\v18\Source\Source\_aiinterface\ActionMoverMsg2.cpp
; File C:\IAGOS\server\v18\Source\Source\_AIInterface\Action.h
; File C:\IAGOS\server\v18\Source\Source\_aiinterface\ActionMoverMsg2.cpp
; File C:\IAGOS\server\v18\Source\Source\_AIInterface\Action.h
; File C:\IAGOS\server\v18\Source\Source\_aiinterface\ActionMoverMsg2.cpp
; File C:\IAGOS\server\v18\Source\Source\_AIInterface\Action.h
; File C:\IAGOS\server\v18\Source\Source\_aiinterface\ActionMoverMsg2.cpp
; File C:\IAGOS\server\v18\Source\Source\_AIInterface\Action.h
; File C:\IAGOS\server\v18\Source\Source\_aiinterface\ActionMoverMsg2.cpp
; File C:\IAGOS\server\v18\Source\Source\_AIInterface\Action.h
; File C:\IAGOS\server\v18\Source\Source\_aiinterface\ActionMoverMsg2.cpp
; File C:\IAGOS\server\v18\Source\Source\_AIInterface\Action.h
; File C:\IAGOS\server\v18\Source\Source\_aiinterface\ActionMoverMsg2.cpp
; File C:\IAGOS\server\v18\Source\Source\_AIInterface\Action.h
; File C:\IAGOS\server\v18\Source\Source\_aiinterface\ActionMoverMsg2.cpp
; File C:\IAGOS\server\v18\Source\Source\_AIInterface\Action.h
; File C:\IAGOS\server\v18\Source\Source\_aiinterface\ActionMoverMsg2.cpp
; File C:\IAGOS\server\v18\Source\Source\_AIInterface\Action.h
; File C:\IAGOS\server\v18\Source\Source\_aiinterface\ActionMoverMsg2.cpp
; File C:\IAGOS\server\v18\Source\Source\_AIInterface\Action.h
; File C:\IAGOS\server\v18\Source\Source\_aiinterface\ActionMoverMsg2.cpp
; File C:\IAGOS\server\v18\Source\Source\_AIInterface\Action.h
; File C:\IAGOS\server\v18\Source\Source\_aiinterface\ActionMoverMsg2.cpp
; File C:\IAGOS\server\v18\Source\Source\_AIInterface\Action.h
; File C:\IAGOS\server\v18\Source\Source\_aiinterface\ActionMoverMsg2.cpp
; File C:\IAGOS\server\v18\Source\Source\_AIInterface\Action.h
; File C:\IAGOS\server\v18\Source\Source\_aiinterface\ActionMoverMsg2.cpp
; File C:\IAGOS\server\v18\Source\Source\_AIInterface\Action.h
; File C:\IAGOS\server\v18\Source\Source\_aiinterface\ActionMoverMsg2.cpp
; File C:\IAGOS\server\v18\Source\Source\_Common\Obj.h
; File C:\IAGOS\server\v18\Source\Source\_Common\Mover.h
; File C:\IAGOS\server\v18\Source\Source\_aiinterface\ActionMoverMsg2.cpp
; File C:\IAGOS\server\v18\Source\Source\_AIInterface\Action.h
; File C:\IAGOS\server\v18\Source\Source\_aiinterface\ActionMoverMsg2.cpp
; File C:\IAGOS\server\v18\Source\Source\_AIInterface\Action.h
; File C:\IAGOS\server\v18\Source\Source\_aiinterface\ActionMoverMsg2.cpp
; File C:\IAGOS\server\v18\Source\Source\_Common\Obj.h
; File C:\IAGOS\server\v18\Source\Source\_aiinterface\ActionMoverMsg2.cpp
; File C:\IAGOS\server\v18\Source\Source\_AIInterface\Action.h
; File C:\IAGOS\server\v18\Source\Source\_aiinterface\ActionMoverMsg2.cpp
; File C:\IAGOS\server\v18\Source\Source\_AIInterface\Action.h
; File C:\IAGOS\server\v18\Source\Source\_aiinterface\ActionMoverMsg2.cpp
; File C:\IAGOS\server\v18\Source\Source\_AIInterface\Action.h
; File C:\IAGOS\server\v18\Source\Source\_aiinterface\ActionMoverMsg2.cpp
; File C:\IAGOS\server\v18\Source\Source\_Common\Obj.h
; File C:\IAGOS\server\v18\Source\Source\_aiinterface\ActionMoverMsg2.cpp
; File C:\IAGOS\server\v18\Source\Source\_Common\Obj.h
; File C:\IAGOS\server\v18\Source\Source\_aiinterface\ActionMoverMsg2.cpp
; File C:\IAGOS\server\v18\Source\Source\_Common\Mover.h
; File C:\IAGOS\server\v18\Source\Source\_aiinterface\ActionMoverMsg2.cpp
; File C:\IAGOS\server\v18\Source\Source\_AIInterface\Action.h
; File C:\IAGOS\server\v18\Source\Source\_aiinterface\ActionMoverMsg2.cpp
; File C:\IAGOS\server\v18\Source\Source\_AIInterface\Action.h
; File C:\IAGOS\server\v18\Source\Source\_aiinterface\ActionMoverMsg2.cpp
; File C:\Program Files (x86)\Windows Kits\10\Include\10.0.26100.0\ucrt\corecrt_math.h
; File C:\IAGOS\server\v18\Source\Source\_aiinterface\ActionMoverMsg2.cpp
; File C:\Program Files (x86)\Windows Kits\10\Include\10.0.26100.0\ucrt\corecrt_math.h
; File C:\IAGOS\server\v18\Source\Source\_aiinterface\ActionMoverMsg2.cpp
; File C:\Program Files (x86)\Windows Kits\10\Include\10.0.26100.0\ucrt\corecrt_math.h
; File C:\IAGOS\server\v18\Source\Source\_aiinterface\ActionMoverMsg2.cpp
; File C:\Program Files (x86)\Windows Kits\10\Include\10.0.26100.0\ucrt\corecrt_math.h
; File C:\IAGOS\server\v18\Source\Source\_aiinterface\ActionMoverMsg2.cpp
; File C:\Program Files (x86)\Windows Kits\10\Include\10.0.26100.0\ucrt\corecrt_math.h
; File C:\IAGOS\server\v18\Source\Source\_aiinterface\ActionMoverMsg2.cpp
; File C:\Program Files (x86)\Windows Kits\10\Include\10.0.26100.0\ucrt\corecrt_math.h
; File C:\IAGOS\server\v18\Source\Source\_aiinterface\ActionMoverMsg2.cpp
;	COMDAT ?ProcessActMsg2@CActionMover@@QAEHPAVCMover@@W4OBJMSG@@HHHHH@Z
_TEXT	SEGMENT
$T1 = -24						; size = 12
$T2 = -12						; size = 12
_pMover$ = 8						; size = 4
_ret$3 = 8						; size = 4
tv1022 = 8						; size = 4
_fDist$1$ = 8						; size = 4
_dwMsg$ = 12						; size = 4
_nParam1$ = 16						; size = 4
tv1570 = 16						; size = 4
_pHitObj$1$ = 16					; size = 4
_pHitObj$1$ = 16					; size = 4
_fTurnAngle$1$ = 16					; size = 4
_fTurnAngle$1$ = 16					; size = 4
_nParam2$ = 20						; size = 4
tv1563 = 20						; size = 4
_pAttacker$1$ = 20					; size = 4
_nParam3$ = 24						; size = 4
_nParam4$ = 28						; size = 4
_nParam5$ = 32						; size = 4
?ProcessActMsg2@CActionMover@@QAEHPAVCMover@@W4OBJMSG@@HHHHH@Z PROC ; CActionMover::ProcessActMsg2, COMDAT
; _this$ = ecx

; 31   : {

  00000	55		 push	 ebp
  00001	8b ec		 mov	 ebp, esp
  00003	83 ec 18	 sub	 esp, 24			; 00000018H
  00006	56		 push	 esi
  00007	57		 push	 edi
  00008	8b f9		 mov	 edi, ecx

; 32   : 	ItemProp* pItemProp = prj.GetItemProp( m_pMover->m_dwRideItemIdx );

  0000a	8b 47 0c	 mov	 eax, DWORD PTR [edi+12]
  0000d	8b 88 e4 14 00
	00		 mov	 ecx, DWORD PTR [eax+5348]
; File C:\IAGOS\server\v18\Source\Source\_Common\Project.h

; 1389 : 	VERIFY_RANGE_ASSERT( nIndex, 0, m_aPropItem.GetSize(), "GetItemProp range_error", NULL );

  00013	a1 40 02 00 00	 mov	 eax, DWORD PTR ?prj@@3VCProject@@A+576
  00018	85 c9		 test	 ecx, ecx
  0001a	78 10		 js	 SHORT $LN92@ProcessAct
  0001c	3b c8		 cmp	 ecx, eax
  0001e	7d 0c		 jge	 SHORT $LN92@ProcessAct
; File C:\IAGOS\server\v18\Source\Source\_Common\data.h

; 270  : 	if( dwIndex >= (DWORD)m_nMaxIndex )

  00020	73 20		 jae	 SHORT $LN297@ProcessAct

; 271  : 		return NULL;
; 272  : 	return (T*) m_apOffset[ dwIndex ];

  00022	a1 30 02 00 00	 mov	 eax, DWORD PTR ?prj@@3VCProject@@A+560
  00027	8b 34 88	 mov	 esi, DWORD PTR [eax+ecx*4]
; File C:\IAGOS\server\v18\Source\Source\_Common\Project.h

; 1390 : 	return m_aPropItem.GetAt( nIndex ); 

  0002a	eb 18		 jmp	 SHORT $LN87@ProcessAct
$LN92@ProcessAct:

; 579  : 	LPCTSTR szErr = Error( _T( "%s min:%d, max:%d, index:%d" ), szMsg, nMin, nMax, nIndex ); 

  0002c	51		 push	 ecx
  0002d	50		 push	 eax
  0002e	6a 00		 push	 0
  00030	68 00 00 00 00	 push	 OFFSET ??_C@_0BI@BEIFNGEL@GetItemProp?5range_error@
  00035	68 00 00 00 00	 push	 OFFSET ??_C@_0BM@HMFGHCP@?$CFs?5min?3?$CFd?0?5max?3?$CFd?0?5index?3?$CFd@
  0003a	e8 00 00 00 00	 call	 ?Error@@YAPBDPBDZZ	; Error
  0003f	83 c4 14	 add	 esp, 20			; 00000014H
$LN297@ProcessAct:
; File C:\IAGOS\server\v18\Source\Source\_aiinterface\ActionMoverMsg2.cpp

; 34   : 	switch( dwMsg )

  00042	33 f6		 xor	 esi, esi
$LN87@ProcessAct:
  00044	8b 45 0c	 mov	 eax, DWORD PTR _dwMsg$[ebp]
  00047	48		 dec	 eax
  00048	83 f8 2e	 cmp	 eax, 46			; 0000002eH
  0004b	0f 87 86 09 00
	00		 ja	 $LN85@ProcessAct
  00051	0f b6 80 00 00
	00 00		 movzx	 eax, BYTE PTR $LN237@ProcessAct[eax]
  00058	ff 24 85 00 00
	00 00		 jmp	 DWORD PTR $LN238@ProcessAct[eax*4]
$LN4@ProcessAct:
; File C:\IAGOS\server\v18\Source\Source\_AIInterface\Action.h

; 300  : 	DWORD			GetMoveState() { return m_dwState & OBJSTA_MOVE_ALL; }

  0005f	8b 47 04	 mov	 eax, DWORD PTR [edi+4]
  00062	25 ff 00 00 00	 and	 eax, 255		; 000000ffH
; File C:\IAGOS\server\v18\Source\Source\_aiinterface\ActionMoverMsg2.cpp

; 42   : 			if( (GetMoveState() == OBJSTA_FMOVE) || (GetMoveState() == OBJSTA_BMOVE) )	// 전/후진중일때 제자리에 세운다.

  00067	83 f8 04	 cmp	 eax, 4
  0006a	74 05		 je	 SHORT $LN6@ProcessAct
  0006c	83 f8 05	 cmp	 eax, 5
  0006f	75 0c		 jne	 SHORT $LN5@ProcessAct
$LN6@ProcessAct:

; 43   : 		#endif //__Y_INTERFACE_VER3
; 44   : 			{
; 45   : 				ResetState( OBJSTA_MOVE_ALL );		

  00071	68 ff 00 00 00	 push	 255			; 000000ffH
  00076	8b cf		 mov	 ecx, edi
  00078	e8 00 00 00 00	 call	 ?ResetState@CAction@@QAEXK@Z ; CAction::ResetState
$LN5@ProcessAct:
; File C:\IAGOS\server\v18\Source\Source\_AIInterface\Action.h

; 300  : 	DWORD			GetMoveState() { return m_dwState & OBJSTA_MOVE_ALL; }

  0007d	8b 47 04	 mov	 eax, DWORD PTR [edi+4]
; File C:\IAGOS\server\v18\Source\Source\_aiinterface\ActionMoverMsg2.cpp

; 47   : 			if( GetMoveState() == OBJSTA_STAND )	return 0;	// 이미 대기상태이면 취소

  00080	3c 01		 cmp	 al, 1
  00082	0f 84 7d 08 00
	00		 je	 $LN212@ProcessAct
; File C:\IAGOS\server\v18\Source\Source\_AIInterface\Action.h

; 322  : 	BOOL			IsActAttack()		{ return m_dwState & OBJSTA_ATK_ALL; }

  00088	a9 00 00 ff 00	 test	 eax, 16711680		; 00ff0000H
; File C:\IAGOS\server\v18\Source\Source\_aiinterface\ActionMoverMsg2.cpp

; 48   : 			if( IsActAttack() )		return -2;	// 공격 동작상태면 취소

  0008d	0f 85 e7 07 00
	00		 jne	 $LN217@ProcessAct
; File C:\IAGOS\server\v18\Source\Source\_AIInterface\Action.h

; 324  : 	BOOL			IsActTurn()		{ return m_dwState & OBJSTA_TURN_ALL; }

  00093	a9 00 03 00 00	 test	 eax, 768		; 00000300H
; File C:\IAGOS\server\v18\Source\Source\_aiinterface\ActionMoverMsg2.cpp

; 49   : 			if( IsActTurn() )		return 0;

  00098	0f 85 67 08 00
	00		 jne	 $LN212@ProcessAct

; 50   : 			if( !pItemProp )

  0009e	85 f6		 test	 esi, esi
  000a0	75 2e		 jne	 SHORT $LN10@ProcessAct

; 51   : 				Error( "ItemProp is NULL in ProcessActMsg2() %d", m_pMover->m_dwRideItemIdx );

  000a2	8b 47 0c	 mov	 eax, DWORD PTR [edi+12]
  000a5	ff b0 e4 14 00
	00		 push	 DWORD PTR [eax+5348]
  000ab	68 00 00 00 00	 push	 OFFSET ??_C@_0CI@HDDPLMLA@ItemProp?5is?5NULL?5in?5ProcessActM@
  000b0	e8 00 00 00 00	 call	 ?Error@@YAPBDPBDZZ	; Error
  000b5	83 c4 08	 add	 esp, 8
  000b8	8b cf		 mov	 ecx, edi
  000ba	68 ff 00 00 00	 push	 255			; 000000ffH
  000bf	e8 00 00 00 00	 call	 ?ResetState@CAction@@QAEXK@Z ; CAction::ResetState
  000c4	83 4f 04 01	 or	 DWORD PTR [edi+4], 1
  000c8	8b 45 08	 mov	 eax, DWORD PTR _ret$3[ebp]
  000cb	8b 7d 08	 mov	 edi, DWORD PTR _pMover$[ebp]
  000ce	eb 26		 jmp	 SHORT $LN11@ProcessAct
$LN10@ProcessAct:
; File C:\IAGOS\server\v18\Source\Source\_AIInterface\Action.h

; 293  : 	void			SetMoveState( DWORD dwState ) { ResetState(OBJSTA_MOVE_ALL);	m_dwState |= dwState; }

  000d0	68 ff 00 00 00	 push	 255			; 000000ffH
  000d5	8b cf		 mov	 ecx, edi
  000d7	e8 00 00 00 00	 call	 ?ResetState@CAction@@QAEXK@Z ; CAction::ResetState
  000dc	83 4f 04 01	 or	 DWORD PTR [edi+4], 1
; File C:\IAGOS\server\v18\Source\Source\_aiinterface\ActionMoverMsg2.cpp

; 55   : 				ret = pMover->SetMotion( pItemProp->dwUseMotion + MTA_FSTAND1, ANILOOP_LOOP, MOP_FIXED );		// 애니메이션 설정

  000e0	8b 7d 08	 mov	 edi, DWORD PTR _pMover$[ebp]
  000e3	8b cf		 mov	 ecx, edi
  000e5	6a 02		 push	 2
  000e7	6a 04		 push	 4
  000e9	ff b6 b8 01 00
	00		 push	 DWORD PTR [esi+440]
  000ef	8b 07		 mov	 eax, DWORD PTR [edi]
  000f1	8b 40 04	 mov	 eax, DWORD PTR [eax+4]
  000f4	ff d0		 call	 eax
$LN11@ProcessAct:

; 56   : 			if( ret == TRUE )

  000f6	83 f8 01	 cmp	 eax, 1
  000f9	0f 85 d8 08 00
	00		 jne	 $LN85@ProcessAct

; 57   : 				if( pMover->m_pRide )	pMover->m_pRide->m_fFrameCurrent	= 0;

  000ff	8b 87 e8 14 00
	00		 mov	 eax, DWORD PTR [edi+5352]
  00105	85 c0		 test	 eax, eax
  00107	0f 84 ca 08 00
	00		 je	 $LN85@ProcessAct
  0010d	5f		 pop	 edi
  0010e	c7 80 a0 00 00
	00 00 00 00 00	 mov	 DWORD PTR [eax+160], 0

; 356  : 	return 1;

  00118	b8 01 00 00 00	 mov	 eax, 1

; 357  : }

  0011d	5e		 pop	 esi
  0011e	8b e5		 mov	 esp, ebp
  00120	5d		 pop	 ebp
  00121	c2 1c 00	 ret	 28			; 0000001cH
$LN14@ProcessAct:
; File C:\IAGOS\server\v18\Source\Source\_AIInterface\Action.h

; 300  : 	DWORD			GetMoveState() { return m_dwState & OBJSTA_MOVE_ALL; }

  00124	8b 47 04	 mov	 eax, DWORD PTR [edi+4]
  00127	25 ff 00 00 00	 and	 eax, 255		; 000000ffH
; File C:\IAGOS\server\v18\Source\Source\_aiinterface\ActionMoverMsg2.cpp

; 65   : 		if( (GetMoveState() == OBJSTA_FMOVE) || (GetMoveState() == OBJSTA_BMOVE) )	// 전/후진중일때 제자리에 세운다.

  0012c	83 f8 04	 cmp	 eax, 4
  0012f	74 09		 je	 SHORT $LN17@ProcessAct
  00131	83 f8 05	 cmp	 eax, 5
  00134	0f 85 9d 08 00
	00		 jne	 $LN85@ProcessAct
$LN17@ProcessAct:
; File C:\IAGOS\server\v18\Source\Source\_Common\Mover.h

; 1030 : 	void			ClearDestObj()     	{ m_idDest = NULL_ID; m_fArrivalRange = 0.0f; }

  0013a	8b 45 08	 mov	 eax, DWORD PTR _pMover$[ebp]
; File C:\IAGOS\server\v18\Source\Source\_aiinterface\ActionMoverMsg2.cpp

; 69   : 			SendActMsg( OBJMSG_ACC_STOP );		// 가속 중지

  0013d	8b cf		 mov	 ecx, edi
  0013f	6a 00		 push	 0
  00141	6a 00		 push	 0
  00143	6a 00		 push	 0
; File C:\IAGOS\server\v18\Source\Source\_Common\Mover.h

; 1030 : 	void			ClearDestObj()     	{ m_idDest = NULL_ID; m_fArrivalRange = 0.0f; }

  00145	c7 80 58 02 00
	00 ff ff ff ff	 mov	 DWORD PTR [eax+600], -1
  0014f	c7 80 54 02 00
	00 00 00 00 00	 mov	 DWORD PTR [eax+596], 0

; 1031 : 	void			ClearDestPos()		{ m_vDestPos = D3DXVECTOR3( 0.0f, 0.0f, 0.0f ); }		

  00159	c7 80 5c 02 00
	00 00 00 00 00	 mov	 DWORD PTR [eax+604], 0
  00163	c7 80 60 02 00
	00 00 00 00 00	 mov	 DWORD PTR [eax+608], 0
; File C:\IAGOS\server\v18\Source\Source\_aiinterface\ActionMoverMsg2.cpp

; 69   : 			SendActMsg( OBJMSG_ACC_STOP );		// 가속 중지

  0016d	6a 00		 push	 0
; File C:\IAGOS\server\v18\Source\Source\_Common\Mover.h

; 1031 : 	void			ClearDestPos()		{ m_vDestPos = D3DXVECTOR3( 0.0f, 0.0f, 0.0f ); }		

  0016f	c7 80 64 02 00
	00 00 00 00 00	 mov	 DWORD PTR [eax+612], 0
; File C:\IAGOS\server\v18\Source\Source\_aiinterface\ActionMoverMsg2.cpp

; 69   : 			SendActMsg( OBJMSG_ACC_STOP );		// 가속 중지

  00179	8b 07		 mov	 eax, DWORD PTR [edi]
  0017b	6a 00		 push	 0
  0017d	6a 1c		 push	 28			; 0000001cH
  0017f	ff 50 04	 call	 DWORD PTR [eax+4]

; 70   : 			ResetState( OBJSTA_MOVE_ALL );		

  00182	68 ff 00 00 00	 push	 255			; 000000ffH
  00187	8b cf		 mov	 ecx, edi
  00189	e8 00 00 00 00	 call	 ?ResetState@CAction@@QAEXK@Z ; CAction::ResetState
  0018e	5f		 pop	 edi

; 356  : 	return 1;

  0018f	b8 01 00 00 00	 mov	 eax, 1

; 357  : }

  00194	5e		 pop	 esi
  00195	8b e5		 mov	 esp, ebp
  00197	5d		 pop	 ebp
  00198	c2 1c 00	 ret	 28			; 0000001cH
$LN18@ProcessAct:

; 71   : 		}
; 72   : 		break;
; 73   : 		// 전진해라!
; 74   : 	case OBJMSG_FORWARD:
; 75   : 		if( GetMoveState() == OBJSTA_FMOVE )	return 0;// 이미 전진상태면 추가로 처리 하지 않음

  0019b	80 7f 04 04	 cmp	 BYTE PTR [edi+4], 4
  0019f	0f 84 60 07 00
	00		 je	 $LN212@ProcessAct
; File C:\IAGOS\server\v18\Source\Source\_AIInterface\Action.h

; 293  : 	void			SetMoveState( DWORD dwState ) { ResetState(OBJSTA_MOVE_ALL);	m_dwState |= dwState; }

  001a5	68 ff 00 00 00	 push	 255			; 000000ffH
  001aa	8b cf		 mov	 ecx, edi
  001ac	e8 00 00 00 00	 call	 ?ResetState@CAction@@QAEXK@Z ; CAction::ResetState
  001b1	8b 47 04	 mov	 eax, DWORD PTR [edi+4]
  001b4	83 c8 04	 or	 eax, 4
  001b7	89 47 04	 mov	 DWORD PTR [edi+4], eax

; 324  : 	BOOL			IsActTurn()		{ return m_dwState & OBJSTA_TURN_ALL; }

  001ba	a9 00 03 ff 00	 test	 eax, 16712448		; 00ff0300H
; File C:\IAGOS\server\v18\Source\Source\_aiinterface\ActionMoverMsg2.cpp

; 77   : 		if( IsActTurn() )	break;

  001bf	0f 85 12 08 00
	00		 jne	 $LN85@ProcessAct

; 78   : 		if( GetState() & OBJSTA_ATK_ALL )	
; 79   : 			return 1;
; 80   : 		if( !pItemProp )

  001c5	85 f6		 test	 esi, esi
  001c7	75 0d		 jne	 SHORT $LN22@ProcessAct

; 81   : 			Error( "ItemProp is NULL in ProcessActMsg2()\n" );

  001c9	68 00 00 00 00	 push	 OFFSET ??_C@_0CG@ONFHINID@ItemProp?5is?5NULL?5in?5ProcessActM@
  001ce	e8 00 00 00 00	 call	 ?Error@@YAPBDPBDZZ	; Error
  001d3	83 c4 04	 add	 esp, 4
$LN22@ProcessAct:

; 82   : 		pMover->SetMotion( pItemProp->dwUseMotion + MTA_FRUNNING1, ANILOOP_LOOP, MOP_FIXED );	// 일단은 다 대기 동작으로 쓴다

  001d6	8b 4d 08	 mov	 ecx, DWORD PTR _pMover$[ebp]
  001d9	8b 86 b8 01 00
	00		 mov	 eax, DWORD PTR [esi+440]
  001df	6a 02		 push	 2
  001e1	6a 04		 push	 4
  001e3	8b 11		 mov	 edx, DWORD PTR [ecx]
  001e5	83 c0 07	 add	 eax, 7
  001e8	50		 push	 eax
  001e9	ff 52 04	 call	 DWORD PTR [edx+4]
  001ec	5f		 pop	 edi

; 356  : 	return 1;

  001ed	b8 01 00 00 00	 mov	 eax, 1

; 357  : }

  001f2	5e		 pop	 esi
  001f3	8b e5		 mov	 esp, ebp
  001f5	5d		 pop	 ebp
  001f6	c2 1c 00	 ret	 28			; 0000001cH
$LN23@ProcessAct:
  001f9	66 0f 6e 4d 10	 movd	 xmm1, DWORD PTR _nParam1$[ebp]

; 87   : 		FLOAT fTurnAngle = (FLOAT) nParam1 / 100.0f;

  001fe	0f 5b c9	 cvtdq2ps xmm1, xmm1
; File C:\IAGOS\server\v18\Source\Source\_AIInterface\Action.h

; 301  : 	DWORD			GetTurnState() { return m_dwState & OBJSTA_TURN_ALL; }

  00201	8b 47 04	 mov	 eax, DWORD PTR [edi+4]
  00204	25 00 03 00 00	 and	 eax, 768		; 00000300H
; File C:\IAGOS\server\v18\Source\Source\_aiinterface\ActionMoverMsg2.cpp

; 87   : 		FLOAT fTurnAngle = (FLOAT) nParam1 / 100.0f;

  00209	f3 0f 5e 0d 00
	00 00 00	 divss	 xmm1, DWORD PTR __real@42c80000
  00211	f3 0f 11 4d 10	 movss	 DWORD PTR _fTurnAngle$1$[ebp], xmm1

; 88   : 		if( GetTurnState() == OBJSTA_LTURN && m_fTurnAngle == fTurnAngle )	return 0;

  00216	3d 00 01 00 00	 cmp	 eax, 256		; 00000100H
  0021b	75 15		 jne	 SHORT $LN207@ProcessAct
  0021d	f3 0f 10 87 84
	00 00 00	 movss	 xmm0, DWORD PTR [edi+132]
  00225	0f 2e c1	 ucomiss xmm0, xmm1
  00228	9f		 lahf
  00229	f6 c4 44	 test	 ah, 68			; 00000044H
  0022c	0f 8b d3 06 00
	00		 jnp	 $LN212@ProcessAct
$LN207@ProcessAct:
; File C:\IAGOS\server\v18\Source\Source\_AIInterface\Action.h

; 294  : 	void			SetTurnState( DWORD dwState ) { ResetState(OBJSTA_TURN_ALL);	m_dwState |= dwState; }

  00232	68 00 03 00 00	 push	 768			; 00000300H
  00237	8b cf		 mov	 ecx, edi
; File C:\IAGOS\server\v18\Source\Source\_aiinterface\ActionMoverMsg2.cpp

; 89   : 		m_fTurnAngle = fTurnAngle;

  00239	f3 0f 11 8f 84
	00 00 00	 movss	 DWORD PTR [edi+132], xmm1
; File C:\IAGOS\server\v18\Source\Source\_AIInterface\Action.h

; 294  : 	void			SetTurnState( DWORD dwState ) { ResetState(OBJSTA_TURN_ALL);	m_dwState |= dwState; }

  00241	e8 00 00 00 00	 call	 ?ResetState@CAction@@QAEXK@Z ; CAction::ResetState
  00246	8b 47 04	 mov	 eax, DWORD PTR [edi+4]
  00249	0d 00 01 00 00	 or	 eax, 256		; 00000100H
  0024e	89 47 04	 mov	 DWORD PTR [edi+4], eax
; File C:\IAGOS\server\v18\Source\Source\_aiinterface\ActionMoverMsg2.cpp

; 91   : 		if( GetState() & OBJSTA_ATK_ALL )	return 0;

  00251	a9 00 00 ff 00	 test	 eax, 16711680		; 00ff0000H
  00256	0f 85 a9 06 00
	00		 jne	 $LN212@ProcessAct

; 92   : 		if( !pItemProp )

  0025c	85 f6		 test	 esi, esi
  0025e	75 0d		 jne	 SHORT $LN26@ProcessAct

; 93   : 			Error( "ItemProp is NULL in ProcessActMsg2()\n" );

  00260	68 00 00 00 00	 push	 OFFSET ??_C@_0CG@ONFHINID@ItemProp?5is?5NULL?5in?5ProcessActM@
  00265	e8 00 00 00 00	 call	 ?Error@@YAPBDPBDZZ	; Error
  0026a	83 c4 04	 add	 esp, 4
$LN26@ProcessAct:

; 94   : 		if( fTurnAngle > 1.0f )

  0026d	f3 0f 10 45 10	 movss	 xmm0, DWORD PTR _fTurnAngle$1$[ebp]
  00272	0f 2f 05 00 00
	00 00		 comiss	 xmm0, DWORD PTR __real@3f800000
  00279	0f 86 58 07 00
	00		 jbe	 $LN85@ProcessAct

; 95   : 			pMover->SetMotion( pItemProp->dwUseMotion + MTA_FLTURN1, ANILOOP_LOOP, MOP_FIXED );

  0027f	8b 4d 08	 mov	 ecx, DWORD PTR _pMover$[ebp]
  00282	8b 86 b8 01 00
	00		 mov	 eax, DWORD PTR [esi+440]
  00288	6a 02		 push	 2
  0028a	6a 04		 push	 4
  0028c	8b 11		 mov	 edx, DWORD PTR [ecx]
  0028e	83 c0 03	 add	 eax, 3
  00291	50		 push	 eax
  00292	ff 52 04	 call	 DWORD PTR [edx+4]
  00295	5f		 pop	 edi

; 356  : 	return 1;

  00296	b8 01 00 00 00	 mov	 eax, 1

; 357  : }

  0029b	5e		 pop	 esi
  0029c	8b e5		 mov	 esp, ebp
  0029e	5d		 pop	 ebp
  0029f	c2 1c 00	 ret	 28			; 0000001cH
$LN28@ProcessAct:
  002a2	66 0f 6e 4d 10	 movd	 xmm1, DWORD PTR _nParam1$[ebp]

; 100  : 		FLOAT fTurnAngle = (FLOAT) nParam1 / 100.0f;

  002a7	0f 5b c9	 cvtdq2ps xmm1, xmm1
; File C:\IAGOS\server\v18\Source\Source\_AIInterface\Action.h

; 301  : 	DWORD			GetTurnState() { return m_dwState & OBJSTA_TURN_ALL; }

  002aa	8b 47 04	 mov	 eax, DWORD PTR [edi+4]
  002ad	25 00 03 00 00	 and	 eax, 768		; 00000300H
; File C:\IAGOS\server\v18\Source\Source\_aiinterface\ActionMoverMsg2.cpp

; 100  : 		FLOAT fTurnAngle = (FLOAT) nParam1 / 100.0f;

  002b2	f3 0f 5e 0d 00
	00 00 00	 divss	 xmm1, DWORD PTR __real@42c80000
  002ba	f3 0f 11 4d 10	 movss	 DWORD PTR _fTurnAngle$1$[ebp], xmm1

; 101  : 		if( GetTurnState() == OBJSTA_RTURN && m_fTurnAngle == fTurnAngle )	return 0;

  002bf	3d 00 02 00 00	 cmp	 eax, 512		; 00000200H
  002c4	75 15		 jne	 SHORT $LN208@ProcessAct
  002c6	f3 0f 10 87 84
	00 00 00	 movss	 xmm0, DWORD PTR [edi+132]
  002ce	0f 2e c1	 ucomiss xmm0, xmm1
  002d1	9f		 lahf
  002d2	f6 c4 44	 test	 ah, 68			; 00000044H
  002d5	0f 8b 2a 06 00
	00		 jnp	 $LN212@ProcessAct
$LN208@ProcessAct:
; File C:\IAGOS\server\v18\Source\Source\_AIInterface\Action.h

; 294  : 	void			SetTurnState( DWORD dwState ) { ResetState(OBJSTA_TURN_ALL);	m_dwState |= dwState; }

  002db	68 00 03 00 00	 push	 768			; 00000300H
  002e0	8b cf		 mov	 ecx, edi
; File C:\IAGOS\server\v18\Source\Source\_aiinterface\ActionMoverMsg2.cpp

; 102  : 		m_fTurnAngle = fTurnAngle;

  002e2	f3 0f 11 8f 84
	00 00 00	 movss	 DWORD PTR [edi+132], xmm1
; File C:\IAGOS\server\v18\Source\Source\_AIInterface\Action.h

; 294  : 	void			SetTurnState( DWORD dwState ) { ResetState(OBJSTA_TURN_ALL);	m_dwState |= dwState; }

  002ea	e8 00 00 00 00	 call	 ?ResetState@CAction@@QAEXK@Z ; CAction::ResetState
  002ef	8b 47 04	 mov	 eax, DWORD PTR [edi+4]
  002f2	0d 00 02 00 00	 or	 eax, 512		; 00000200H
  002f7	89 47 04	 mov	 DWORD PTR [edi+4], eax
; File C:\IAGOS\server\v18\Source\Source\_aiinterface\ActionMoverMsg2.cpp

; 104  : 		if( GetState() & OBJSTA_ATK_ALL )	return 0;	// 공격중엔 회전모션 하지 않음.

  002fa	a9 00 00 ff 00	 test	 eax, 16711680		; 00ff0000H
  002ff	0f 85 00 06 00
	00		 jne	 $LN212@ProcessAct

; 105  : 		if( !pItemProp )

  00305	85 f6		 test	 esi, esi
  00307	75 0d		 jne	 SHORT $LN31@ProcessAct

; 106  : 			Error( "ItemProp is NULL in ProcessActMsg2()\n" );

  00309	68 00 00 00 00	 push	 OFFSET ??_C@_0CG@ONFHINID@ItemProp?5is?5NULL?5in?5ProcessActM@
  0030e	e8 00 00 00 00	 call	 ?Error@@YAPBDPBDZZ	; Error
  00313	83 c4 04	 add	 esp, 4
$LN31@ProcessAct:

; 107  : 		if( fTurnAngle > 1.0f )

  00316	f3 0f 10 45 10	 movss	 xmm0, DWORD PTR _fTurnAngle$1$[ebp]
  0031b	0f 2f 05 00 00
	00 00		 comiss	 xmm0, DWORD PTR __real@3f800000
  00322	0f 86 af 06 00
	00		 jbe	 $LN85@ProcessAct

; 108  : 			pMover->SetMotion( pItemProp->dwUseMotion + MTA_FRTURN1, ANILOOP_LOOP, MOP_FIXED );

  00328	8b 4d 08	 mov	 ecx, DWORD PTR _pMover$[ebp]
  0032b	8b 86 b8 01 00
	00		 mov	 eax, DWORD PTR [esi+440]
  00331	6a 02		 push	 2
  00333	6a 04		 push	 4
  00335	8b 11		 mov	 edx, DWORD PTR [ecx]
  00337	83 c0 05	 add	 eax, 5
  0033a	50		 push	 eax
  0033b	ff 52 04	 call	 DWORD PTR [edx+4]
  0033e	5f		 pop	 edi

; 356  : 	return 1;

  0033f	b8 01 00 00 00	 mov	 eax, 1

; 357  : }

  00344	5e		 pop	 esi
  00345	8b e5		 mov	 esp, ebp
  00347	5d		 pop	 ebp
  00348	c2 1c 00	 ret	 28			; 0000001cH
$LN33@ProcessAct:
; File C:\IAGOS\server\v18\Source\Source\_AIInterface\Action.h

; 301  : 	DWORD			GetTurnState() { return m_dwState & OBJSTA_TURN_ALL; }

  0034b	f7 47 04 00 03
	00 00		 test	 DWORD PTR [edi+4], 768	; 00000300H
; File C:\IAGOS\server\v18\Source\Source\_aiinterface\ActionMoverMsg2.cpp

; 112  : 		if( GetTurnState() == 0 )		return 0;		// 이미 턴 상태가 없다면 처리 안함

  00352	0f 84 ad 05 00
	00		 je	 $LN212@ProcessAct
; File C:\IAGOS\server\v18\Source\Source\_AIInterface\Action.h

; 294  : 	void			SetTurnState( DWORD dwState ) { ResetState(OBJSTA_TURN_ALL);	m_dwState |= dwState; }

  00358	68 00 03 00 00	 push	 768			; 00000300H
  0035d	8b cf		 mov	 ecx, edi
; File C:\IAGOS\server\v18\Source\Source\_aiinterface\ActionMoverMsg2.cpp

; 113  : 		m_fTurnAngle = 0.0f;

  0035f	c7 87 84 00 00
	00 00 00 00 00	 mov	 DWORD PTR [edi+132], 0
; File C:\IAGOS\server\v18\Source\Source\_AIInterface\Action.h

; 294  : 	void			SetTurnState( DWORD dwState ) { ResetState(OBJSTA_TURN_ALL);	m_dwState |= dwState; }

  00369	e8 00 00 00 00	 call	 ?ResetState@CAction@@QAEXK@Z ; CAction::ResetState
; File C:\IAGOS\server\v18\Source\Source\_aiinterface\ActionMoverMsg2.cpp

; 115  : 		if( GetState() & OBJSTA_ATK_ALL )	return 0;

  0036e	f7 47 04 00 00
	ff 00		 test	 DWORD PTR [edi+4], 16711680 ; 00ff0000H
  00375	0f 85 8a 05 00
	00		 jne	 $LN212@ProcessAct

; 116  : 		if( !pItemProp )

  0037b	85 f6		 test	 esi, esi
  0037d	75 0d		 jne	 SHORT $LN36@ProcessAct

; 117  : 			Error( "ItemProp is NULL in ProcessActMsg2()\n" );

  0037f	68 00 00 00 00	 push	 OFFSET ??_C@_0CG@ONFHINID@ItemProp?5is?5NULL?5in?5ProcessActM@
  00384	e8 00 00 00 00	 call	 ?Error@@YAPBDPBDZZ	; Error
  00389	83 c4 04	 add	 esp, 4
$LN36@ProcessAct:

; 118  : 		if( GetMoveState() == OBJSTA_FMOVE )

  0038c	80 7f 04 04	 cmp	 BYTE PTR [edi+4], 4
; File C:\IAGOS\server\v18\Source\Source\_AIInterface\Action.h

; 300  : 	DWORD			GetMoveState() { return m_dwState & OBJSTA_MOVE_ALL; }

  00390	8b 4d 08	 mov	 ecx, DWORD PTR _pMover$[ebp]
  00393	8b 96 b8 01 00
	00		 mov	 edx, DWORD PTR [esi+440]
; File C:\IAGOS\server\v18\Source\Source\_aiinterface\ActionMoverMsg2.cpp

; 118  : 		if( GetMoveState() == OBJSTA_FMOVE )

  00399	6a 02		 push	 2
  0039b	6a 04		 push	 4
; File C:\IAGOS\server\v18\Source\Source\_AIInterface\Action.h

; 300  : 	DWORD			GetMoveState() { return m_dwState & OBJSTA_MOVE_ALL; }

  0039d	8b 01		 mov	 eax, DWORD PTR [ecx]
  0039f	8b 70 04	 mov	 esi, DWORD PTR [eax+4]
; File C:\IAGOS\server\v18\Source\Source\_aiinterface\ActionMoverMsg2.cpp

; 118  : 		if( GetMoveState() == OBJSTA_FMOVE )

  003a2	75 13		 jne	 SHORT $LN37@ProcessAct

; 119  : 			pMover->SetMotion( pItemProp->dwUseMotion + MTA_FRUNNING1, ANILOOP_LOOP, MOP_FIXED );

  003a4	8d 42 07	 lea	 eax, DWORD PTR [edx+7]
  003a7	50		 push	 eax
  003a8	ff d6		 call	 esi
  003aa	5f		 pop	 edi

; 356  : 	return 1;

  003ab	b8 01 00 00 00	 mov	 eax, 1

; 357  : }

  003b0	5e		 pop	 esi
  003b1	8b e5		 mov	 esp, ebp
  003b3	5d		 pop	 ebp
  003b4	c2 1c 00	 ret	 28			; 0000001cH
$LN37@ProcessAct:

; 120  : 		else
; 121  : 			pMover->SetMotion( pItemProp->dwUseMotion + MTA_FSTAND1, ANILOOP_LOOP, MOP_FIXED );

  003b7	52		 push	 edx
  003b8	ff d6		 call	 esi
  003ba	5f		 pop	 edi

; 356  : 	return 1;

  003bb	b8 01 00 00 00	 mov	 eax, 1

; 357  : }

  003c0	5e		 pop	 esi
  003c1	8b e5		 mov	 esp, ebp
  003c3	5d		 pop	 ebp
  003c4	c2 1c 00	 ret	 28			; 0000001cH
$LN39@ProcessAct:
; File C:\IAGOS\server\v18\Source\Source\_AIInterface\Action.h

; 302  : 	DWORD			GetLookState() { return m_dwState & OBJSTA_LOOK_ALL; }

  003c7	8b 47 04	 mov	 eax, DWORD PTR [edi+4]
  003ca	25 00 0c 00 00	 and	 eax, 3072		; 00000c00H
; File C:\IAGOS\server\v18\Source\Source\_aiinterface\ActionMoverMsg2.cpp

; 125  : 		if( GetLookState() == OBJSTA_LOOKUP )	return 0;

  003cf	3d 00 04 00 00	 cmp	 eax, 1024		; 00000400H
  003d4	0f 84 2b 05 00
	00		 je	 $LN212@ProcessAct
; File C:\IAGOS\server\v18\Source\Source\_AIInterface\Action.h

; 294  : 	void			SetTurnState( DWORD dwState ) { ResetState(OBJSTA_TURN_ALL);	m_dwState |= dwState; }

  003da	68 00 03 00 00	 push	 768			; 00000300H
  003df	8b cf		 mov	 ecx, edi
  003e1	e8 00 00 00 00	 call	 ?ResetState@CAction@@QAEXK@Z ; CAction::ResetState
  003e6	81 4f 04 00 04
	00 00		 or	 DWORD PTR [edi+4], 1024	; 00000400H
; File C:\IAGOS\server\v18\Source\Source\_aiinterface\ActionMoverMsg2.cpp

; 356  : 	return 1;

  003ed	b8 01 00 00 00	 mov	 eax, 1
  003f2	5f		 pop	 edi

; 357  : }

  003f3	5e		 pop	 esi
  003f4	8b e5		 mov	 esp, ebp
  003f6	5d		 pop	 ebp
  003f7	c2 1c 00	 ret	 28			; 0000001cH
$LN41@ProcessAct:
; File C:\IAGOS\server\v18\Source\Source\_AIInterface\Action.h

; 302  : 	DWORD			GetLookState() { return m_dwState & OBJSTA_LOOK_ALL; }

  003fa	8b 47 04	 mov	 eax, DWORD PTR [edi+4]
  003fd	25 00 0c 00 00	 and	 eax, 3072		; 00000c00H
; File C:\IAGOS\server\v18\Source\Source\_aiinterface\ActionMoverMsg2.cpp

; 129  : 		if( GetLookState() == OBJSTA_LOOKDOWN )	return 0;

  00402	3d 00 08 00 00	 cmp	 eax, 2048		; 00000800H
  00407	0f 84 f8 04 00
	00		 je	 $LN212@ProcessAct
; File C:\IAGOS\server\v18\Source\Source\_AIInterface\Action.h

; 295  : 	void			SetLookState( DWORD dwState ) { ResetState(OBJSTA_LOOK_ALL);	m_dwState |= dwState; }

  0040d	68 00 0c 00 00	 push	 3072			; 00000c00H
  00412	8b cf		 mov	 ecx, edi
  00414	e8 00 00 00 00	 call	 ?ResetState@CAction@@QAEXK@Z ; CAction::ResetState
  00419	81 4f 04 00 08
	00 00		 or	 DWORD PTR [edi+4], 2048	; 00000800H
; File C:\IAGOS\server\v18\Source\Source\_aiinterface\ActionMoverMsg2.cpp

; 356  : 	return 1;

  00420	b8 01 00 00 00	 mov	 eax, 1
  00425	5f		 pop	 edi

; 357  : }

  00426	5e		 pop	 esi
  00427	8b e5		 mov	 esp, ebp
  00429	5d		 pop	 ebp
  0042a	c2 1c 00	 ret	 28			; 0000001cH
$LN43@ProcessAct:
; File C:\IAGOS\server\v18\Source\Source\_AIInterface\Action.h

; 302  : 	DWORD			GetLookState() { return m_dwState & OBJSTA_LOOK_ALL; }

  0042d	f7 47 04 00 0c
	00 00		 test	 DWORD PTR [edi+4], 3072	; 00000c00H
  00434	8d 47 04	 lea	 eax, DWORD PTR [edi+4]
; File C:\IAGOS\server\v18\Source\Source\_aiinterface\ActionMoverMsg2.cpp

; 133  : 		if( GetLookState() == 0 )		return 0;

  00437	0f 84 c8 04 00
	00		 je	 $LN212@ProcessAct
; File C:\IAGOS\server\v18\Source\Source\_AIInterface\Action.h

; 295  : 	void			SetLookState( DWORD dwState ) { ResetState(OBJSTA_LOOK_ALL);	m_dwState |= dwState; }

  0043d	68 00 0c 00 00	 push	 3072			; 00000c00H
  00442	8b cf		 mov	 ecx, edi
  00444	e8 00 00 00 00	 call	 ?ResetState@CAction@@QAEXK@Z ; CAction::ResetState
  00449	5f		 pop	 edi
; File C:\IAGOS\server\v18\Source\Source\_aiinterface\ActionMoverMsg2.cpp

; 356  : 	return 1;

  0044a	b8 01 00 00 00	 mov	 eax, 1

; 357  : }

  0044f	5e		 pop	 esi
  00450	8b e5		 mov	 esp, ebp
  00452	5d		 pop	 ebp
  00453	c2 1c 00	 ret	 28			; 0000001cH
$LN45@ProcessAct:

; 134  : 		SetLookState( 0 );		// 룩 중지
; 135  : 		break;
; 136  : 
; 137  : 	// 공격
; 138  : 	case OBJMSG_ATK1:	// 공격 1
; 139  : 		{
; 140  : 			if( (GetState() & OBJSTA_ATK_ALL) == OBJSTA_ATK1 )	// 이미 공격중이면 리턴

  00456	8b 47 04	 mov	 eax, DWORD PTR [edi+4]
  00459	25 00 00 ff 00	 and	 eax, 16711680		; 00ff0000H
  0045e	3d 00 00 01 00	 cmp	 eax, 65536		; 00010000H
  00463	0f 84 9c 04 00
	00		 je	 $LN212@ProcessAct

; 141  : 				return 0;
; 142  : 			m_objidHit	= (OBJID)nParam1;	// 타겟의 아이디.

  00469	8b 45 10	 mov	 eax, DWORD PTR _nParam1$[ebp]

; 143  : 			CMover* pHitObj	= prj.GetMover( m_objidHit );

  0046c	b9 00 00 00 00	 mov	 ecx, OFFSET ?prj@@3VCProject@@A ; prj
  00471	50		 push	 eax
  00472	89 87 a4 00 00
	00		 mov	 DWORD PTR [edi+164], eax
  00478	e8 00 00 00 00	 call	 ?GetMover@CProject@@QAEPAVCMover@@K@Z ; CProject::GetMover
  0047d	89 45 10	 mov	 DWORD PTR _pHitObj$1$[ebp], eax
; File C:\IAGOS\server\v18\Source\Source\_Common\Obj.h

; 327  : 	return pObj && ( pObj->IsDelete() == FALSE ); 

  00480	85 c0		 test	 eax, eax
  00482	0f 84 f2 03 00
	00		 je	 $LN217@ProcessAct

; 180  : 	BOOL			IsDelete()	{ return (m_dwFlags & OBJ_FLAG_DELETE);  }

  00488	f6 40 04 01	 test	 BYTE PTR [eax+4], 1

; 327  : 	return pObj && ( pObj->IsDelete() == FALSE ); 

  0048c	0f 85 e8 03 00
	00		 jne	 $LN217@ProcessAct
; File C:\IAGOS\server\v18\Source\Source\_Common\Mover.h

; 1250 : 	BOOL			IsDie() { return m_pActMover->IsDie() || m_nHitPoint == 0; }

  00492	8b 88 38 02 00
	00		 mov	 ecx, DWORD PTR [eax+568]
  00498	f7 41 04 00 00
	00 08		 test	 DWORD PTR [ecx+4], 134217728 ; 08000000H
  0049f	0f 85 d5 03 00
	00		 jne	 $LN217@ProcessAct
  004a5	83 b8 f8 05 00
	00 00		 cmp	 DWORD PTR [eax+1528], 0
  004ac	0f 84 c8 03 00
	00		 je	 $LN217@ProcessAct
; File C:\IAGOS\server\v18\Source\Source\_aiinterface\ActionMoverMsg2.cpp

; 151  : 			if( !g_eLocal.GetState( EVE_STEAL ) )

  004b2	6a 0d		 push	 13			; 0000000dH
  004b4	b9 00 00 00 00	 mov	 ecx, OFFSET ?g_eLocal@@3VCFlyffEvent@@A ; g_eLocal
  004b9	e8 00 00 00 00	 call	 ?GetState@CFlyffEvent@@QAEEH@Z ; CFlyffEvent::GetState
  004be	84 c0		 test	 al, al
  004c0	75 13		 jne	 SHORT $LN50@ProcessAct

; 152  : 			{
; 153  : 				if( pMover->IsSteal( pHitObj ) )	// pHitObj를 스틸하려하면 이공격은 무시.

  004c2	ff 75 10	 push	 DWORD PTR _pHitObj$1$[ebp]
  004c5	8b 4d 08	 mov	 ecx, DWORD PTR _pMover$[ebp]
  004c8	e8 00 00 00 00	 call	 ?IsSteal@CMover@@QAEHPAV1@@Z ; CMover::IsSteal
  004cd	85 c0		 test	 eax, eax
  004cf	0f 85 a5 03 00
	00		 jne	 $LN217@ProcessAct
$LN50@ProcessAct:

; 154  : 					return -2;
; 155  : 			}
; 156  : #endif
; 157  : 			
; 158  : 			AddStateFlag( OBJSTAF_COMBAT );	// 전투모드로 전환.

  004d5	6a 01		 push	 1
  004d7	8b cf		 mov	 ecx, edi
  004d9	e8 00 00 00 00	 call	 ?AddStateFlag@CAction@@QAEXK@Z ; CAction::AddStateFlag
; File C:\IAGOS\server\v18\Source\Source\_AIInterface\Action.h

; 292  : 	void			SetState( DWORD dwType, DWORD dwState )	{ ResetState(dwType);	m_dwState |= dwState; }

  004de	68 00 00 ff 00	 push	 16711680		; 00ff0000H
  004e3	8b cf		 mov	 ecx, edi
  004e5	e8 00 00 00 00	 call	 ?ResetState@CAction@@QAEXK@Z ; CAction::ResetState
  004ea	81 4f 04 00 00
	01 00		 or	 DWORD PTR [edi+4], 65536 ; 00010000H
; File C:\IAGOS\server\v18\Source\Source\_aiinterface\ActionMoverMsg2.cpp

; 160  : 			if( pItemProp )

  004f1	85 f6		 test	 esi, esi
  004f3	74 1a		 je	 SHORT $LN51@ProcessAct

; 161  : 				pMover->SetMotion( pItemProp->dwUseMotion + MTA_FATK1, ANILOOP_1PLAY, MOP_NO_TRANS | MOP_SWDFORCE | MOP_FIXED );		// 최초 메시지 입력시 동작 설정

  004f5	8b 7d 08	 mov	 edi, DWORD PTR _pMover$[ebp]
$LN298@ProcessAct:

; 356  : 	return 1;

  004f8	8b 86 b8 01 00
	00		 mov	 eax, DWORD PTR [esi+440]
  004fe	8b cf		 mov	 ecx, edi
  00500	8b 17		 mov	 edx, DWORD PTR [edi]
  00502	83 c0 0a	 add	 eax, 10			; 0000000aH
  00505	6a 07		 push	 7
  00507	6a 01		 push	 1
  00509	50		 push	 eax
  0050a	ff 52 04	 call	 DWORD PTR [edx+4]
  0050d	eb 10		 jmp	 SHORT $LN52@ProcessAct
$LN51@ProcessAct:

; 162  : 			else
; 163  : 				Error( "ItemProp is NULL in ProcessActMsg2()\n" );

  0050f	68 00 00 00 00	 push	 OFFSET ??_C@_0CG@ONFHINID@ItemProp?5is?5NULL?5in?5ProcessActM@
  00514	e8 00 00 00 00	 call	 ?Error@@YAPBDPBDZZ	; Error
  00519	8b 7d 08	 mov	 edi, DWORD PTR _pMover$[ebp]
  0051c	83 c4 04	 add	 esp, 4
$LN52@ProcessAct:

; 356  : 	return 1;

  0051f	8b 4d 10	 mov	 ecx, DWORD PTR _pHitObj$1$[ebp]
  00522	57		 push	 edi
  00523	e8 00 00 00 00	 call	 ?SetJJim@CMover@@QAEXPAV1@@Z ; CMover::SetJJim
  00528	8b cf		 mov	 ecx, edi
  0052a	e8 00 00 00 00	 call	 ?RemoveInvisible@CMover@@QAEXXZ ; CMover::RemoveInvisible
  0052f	5f		 pop	 edi
  00530	b8 01 00 00 00	 mov	 eax, 1

; 357  : }

  00535	5e		 pop	 esi
  00536	8b e5		 mov	 esp, ebp
  00538	5d		 pop	 ebp
  00539	c2 1c 00	 ret	 28			; 0000001cH
$LN53@ProcessAct:
; File C:\IAGOS\server\v18\Source\Source\_AIInterface\Action.h

; 314  : 	BOOL			IsAction() { return (m_dwState & OBJSTA_ACTION_ALL) ? TRUE : FALSE; }

  0053c	f7 47 04 00 00
	ff f0		 test	 DWORD PTR [edi+4], -251723776 ; f0ff0000H
; File C:\IAGOS\server\v18\Source\Source\_aiinterface\ActionMoverMsg2.cpp

; 176  : 			if( IsAction() )	return 0;

  00543	0f 85 bc 03 00
	00		 jne	 $LN212@ProcessAct

; 177  : 			if( GetState() & OBJSTA_ATK_ALL )	return 0;		// 이미 공격동작을 하고 있으면 취소.
; 178  : 			if( !pItemProp )

  00549	85 f6		 test	 esi, esi
  0054b	75 0d		 jne	 SHORT $LN56@ProcessAct

; 179  : 				Error( "ItemProp is NULL in ProcessActMsg2()\n" );

  0054d	68 00 00 00 00	 push	 OFFSET ??_C@_0CG@ONFHINID@ItemProp?5is?5NULL?5in?5ProcessActM@
  00552	e8 00 00 00 00	 call	 ?Error@@YAPBDPBDZZ	; Error
  00557	83 c4 04	 add	 esp, 4
$LN56@ProcessAct:

; 180  : 			CMover* pHitObj		= prj.GetMover( nParam1 );

  0055a	ff 75 10	 push	 DWORD PTR _nParam1$[ebp]
  0055d	b9 00 00 00 00	 mov	 ecx, OFFSET ?prj@@3VCProject@@A ; prj
  00562	e8 00 00 00 00	 call	 ?GetMover@CProject@@QAEPAVCMover@@K@Z ; CProject::GetMover
  00567	89 45 10	 mov	 DWORD PTR _pHitObj$1$[ebp], eax
; File C:\IAGOS\server\v18\Source\Source\_Common\Obj.h

; 327  : 	return pObj && ( pObj->IsDelete() == FALSE ); 

  0056a	85 c0		 test	 eax, eax
  0056c	0f 84 94 00 00
	00		 je	 $LN209@ProcessAct

; 180  : 	BOOL			IsDelete()	{ return (m_dwFlags & OBJ_FLAG_DELETE);  }

  00572	f6 40 04 01	 test	 BYTE PTR [eax+4], 1

; 327  : 	return pObj && ( pObj->IsDelete() == FALSE ); 

  00576	0f 85 8a 00 00
	00		 jne	 $LN209@ProcessAct
; File C:\IAGOS\server\v18\Source\Source\_aiinterface\ActionMoverMsg2.cpp

; 184  : 			if( !g_eLocal.GetState( EVE_STEAL ) )

  0057c	6a 0d		 push	 13			; 0000000dH
  0057e	b9 00 00 00 00	 mov	 ecx, OFFSET ?g_eLocal@@3VCFlyffEvent@@A ; g_eLocal
  00583	e8 00 00 00 00	 call	 ?GetState@CFlyffEvent@@QAEEH@Z ; CFlyffEvent::GetState
  00588	84 c0		 test	 al, al
  0058a	75 13		 jne	 SHORT $LN59@ProcessAct

; 185  : 			{
; 186  : 				if( pMover->IsSteal( pHitObj ) )	// pHitObj를 스틸하려하면 이공격은 무시.

  0058c	ff 75 10	 push	 DWORD PTR _pHitObj$1$[ebp]
  0058f	8b 4d 08	 mov	 ecx, DWORD PTR _pMover$[ebp]
  00592	e8 00 00 00 00	 call	 ?IsSteal@CMover@@QAEHPAV1@@Z ; CMover::IsSteal
  00597	85 c0		 test	 eax, eax
  00599	0f 85 db 02 00
	00		 jne	 $LN217@ProcessAct
$LN59@ProcessAct:
; File C:\IAGOS\server\v18\Source\Source\_AIInterface\Action.h

; 323  : 	BOOL			IsActDamage()		{ return m_dwState & OBJSTA_DMG_ALL; }

  0059f	f7 47 04 00 00
	00 0f		 test	 DWORD PTR [edi+4], 251658240 ; 0f000000H
; File C:\IAGOS\server\v18\Source\Source\_aiinterface\ActionMoverMsg2.cpp

; 190  : 			if( IsActDamage() )

  005a6	74 0c		 je	 SHORT $LN60@ProcessAct

; 191  : 				ResetState( OBJSTA_DMG_ALL );

  005a8	68 00 00 00 0f	 push	 251658240		; 0f000000H
  005ad	8b cf		 mov	 ecx, edi
  005af	e8 00 00 00 00	 call	 ?ResetState@CAction@@QAEXK@Z ; CAction::ResetState
$LN60@ProcessAct:

; 192  : 			AddStateFlag( OBJSTAF_COMBAT );	// 전투모드로 전환.

  005b4	6a 01		 push	 1
  005b6	8b cf		 mov	 ecx, edi
  005b8	e8 00 00 00 00	 call	 ?AddStateFlag@CAction@@QAEXK@Z ; CAction::AddStateFlag

; 193  : 			
; 194  : 			SendActMsg( OBJMSG_STOP_TURN );

  005bd	8b 07		 mov	 eax, DWORD PTR [edi]
  005bf	8b cf		 mov	 ecx, edi
  005c1	6a 00		 push	 0
  005c3	6a 00		 push	 0
  005c5	6a 00		 push	 0
  005c7	6a 00		 push	 0
  005c9	6a 00		 push	 0
  005cb	6a 0a		 push	 10			; 0000000aH
  005cd	ff 50 04	 call	 DWORD PTR [eax+4]

; 195  : 			SendActMsg( OBJMSG_STAND );

  005d0	8b 07		 mov	 eax, DWORD PTR [edi]
  005d2	8b cf		 mov	 ecx, edi
  005d4	6a 00		 push	 0
  005d6	6a 00		 push	 0
  005d8	6a 00		 push	 0
  005da	6a 00		 push	 0
  005dc	6a 00		 push	 0
  005de	6a 03		 push	 3
  005e0	ff 50 04	 call	 DWORD PTR [eax+4]
; File C:\IAGOS\server\v18\Source\Source\_AIInterface\Action.h

; 292  : 	void			SetState( DWORD dwType, DWORD dwState )	{ ResetState(dwType);	m_dwState |= dwState; }

  005e3	68 00 00 ff 00	 push	 16711680		; 00ff0000H
  005e8	8b cf		 mov	 ecx, edi
  005ea	e8 00 00 00 00	 call	 ?ResetState@CAction@@QAEXK@Z ; CAction::ResetState
  005ef	81 4f 04 00 00
	05 00		 or	 DWORD PTR [edi+4], 327680 ; 00050000H
; File C:\IAGOS\server\v18\Source\Source\_aiinterface\ActionMoverMsg2.cpp

; 197  : 			if( pItemProp )

  005f6	8b 7d 08	 mov	 edi, DWORD PTR _pMover$[ebp]
  005f9	85 f6		 test	 esi, esi
  005fb	0f 84 1e ff ff
	ff		 je	 $LN52@ProcessAct

; 198  : 				pMover->SetMotion( pItemProp->dwUseMotion + MTA_FATK1, ANILOOP_1PLAY, MOP_NO_TRANS | MOP_SWDFORCE | MOP_FIXED );		// 
; 199  : 			pHitObj->SetJJim( pMover );
; 200  : 			pMover->RemoveInvisible();
; 201  : 			
; 202  : 		}
; 203  : 		break;

  00601	e9 f2 fe ff ff	 jmp	 $LN298@ProcessAct
$LN209@ProcessAct:
  00606	5f		 pop	 edi

; 181  : 			if( IsInvalidObj( pHitObj ) )	return -1;

  00607	83 c8 ff	 or	 eax, -1

; 357  : }

  0060a	5e		 pop	 esi
  0060b	8b e5		 mov	 esp, ebp
  0060d	5d		 pop	 ebp
  0060e	c2 1c 00	 ret	 28			; 0000001cH
$LN63@ProcessAct:

; 204  : 		
; 205  : 
; 206  : 	// 점프
; 207  : 	case OBJMSG_JUMP:
; 208  : 		break;
; 209  : 	case OBJMSG_DAMAGE:
; 210  : 		{
; 211  : 			CMover* pAttacker = PreProcessDamage( pMover, (OBJID)nParam2, nParam4, nParam5 );

  00611	8b 75 20	 mov	 esi, DWORD PTR _nParam5$[ebp]
  00614	8b cf		 mov	 ecx, edi
  00616	56		 push	 esi
  00617	ff 75 1c	 push	 DWORD PTR _nParam4$[ebp]
  0061a	ff 75 14	 push	 DWORD PTR _nParam2$[ebp]
  0061d	ff 75 08	 push	 DWORD PTR _pMover$[ebp]
  00620	e8 00 00 00 00	 call	 ?PreProcessDamage@CActionMover@@QAEPAVCMover@@PAV2@KHH@Z ; CActionMover::PreProcessDamage
  00625	89 45 14	 mov	 DWORD PTR _pAttacker$1$[ebp], eax

; 212  : 			if( pAttacker == NULL )

  00628	85 c0		 test	 eax, eax
  0062a	0f 84 d5 02 00
	00		 je	 $LN212@ProcessAct

; 213  : 				return 0;
; 214  : 
; 215  : 			int nDamage = _ProcessMsgDmg( dwMsg, pAttacker, (DWORD)nParam1, nParam3, nParam4, nParam5 );

  00630	56		 push	 esi
  00631	ff 75 1c	 push	 DWORD PTR _nParam4$[ebp]
  00634	8b cf		 mov	 ecx, edi
  00636	ff 75 18	 push	 DWORD PTR _nParam3$[ebp]
  00639	ff 75 10	 push	 DWORD PTR _nParam1$[ebp]
  0063c	50		 push	 eax
  0063d	ff 75 0c	 push	 DWORD PTR _dwMsg$[ebp]
  00640	e8 00 00 00 00	 call	 ?_ProcessMsgDmg@CActionMover@@QAEKKPAVCMover@@KHHH@Z ; CActionMover::_ProcessMsgDmg

; 216  : #if __VER >= 10	// __METEONYKER_0608
; 217  : 			pMover->PostAIMsg( AIMSG_DAMAGE, pAttacker->GetId(), nDamage );

  00645	8b 7d 14	 mov	 edi, DWORD PTR _pAttacker$1$[ebp]
  00648	8b f0		 mov	 esi, eax
  0064a	8b 4d 08	 mov	 ecx, DWORD PTR _pMover$[ebp]
  0064d	6a 00		 push	 0
  0064f	56		 push	 esi
  00650	ff b7 bc 01 00
	00		 push	 DWORD PTR [edi+444]
  00656	6a 08		 push	 8
  00658	e8 00 00 00 00	 call	 ?PostAIMsg@CMover@@QAEXKKKK@Z ; CMover::PostAIMsg

; 218  : #endif	// __METEONYKER_0608
; 219  : 			pAttacker->RemoveInvisible();

  0065d	8b cf		 mov	 ecx, edi
  0065f	e8 00 00 00 00	 call	 ?RemoveInvisible@CMover@@QAEXXZ ; CMover::RemoveInvisible
  00664	5f		 pop	 edi

; 220  : 			return nDamage;

  00665	8b c6		 mov	 eax, esi

; 357  : }

  00667	5e		 pop	 esi
  00668	8b e5		 mov	 esp, ebp
  0066a	5d		 pop	 ebp
  0066b	c2 1c 00	 ret	 28			; 0000001cH
$LN65@ProcessAct:

; 221  : 		}
; 222  : 		break;
; 223  : 	case OBJMSG_DIE:
; 224  : 	#ifdef __WORLDSERVER
; 225  : 		pMover->PostAIMsg( AIMSG_DIE, nParam2 );

  0066e	8b 75 08	 mov	 esi, DWORD PTR _pMover$[ebp]
  00671	8b ce		 mov	 ecx, esi
  00673	6a 00		 push	 0
  00675	6a 00		 push	 0
  00677	ff 75 14	 push	 DWORD PTR _nParam2$[ebp]
  0067a	6a 09		 push	 9
  0067c	e8 00 00 00 00	 call	 ?PostAIMsg@CMover@@QAEXKKKK@Z ; CMover::PostAIMsg

; 226  : 	#endif
; 227  : 		SendActMsg( OBJMSG_STAND );	// 죽을땐 제자리에 서라

  00681	8b 07		 mov	 eax, DWORD PTR [edi]
  00683	8b cf		 mov	 ecx, edi
  00685	6a 00		 push	 0
  00687	6a 00		 push	 0
  00689	6a 00		 push	 0
  0068b	6a 00		 push	 0
  0068d	6a 00		 push	 0
  0068f	6a 03		 push	 3
  00691	ff 50 04	 call	 DWORD PTR [eax+4]

; 228  : 		ResetState( OBJSTA_TURN_ALL );	// 죽을땐 턴 없애라.

  00694	68 00 03 00 00	 push	 768			; 00000300H
  00699	8b cf		 mov	 ecx, edi
  0069b	e8 00 00 00 00	 call	 ?ResetState@CAction@@QAEXK@Z ; CAction::ResetState
; File C:\IAGOS\server\v18\Source\Source\_AIInterface\Action.h

; 292  : 	void			SetState( DWORD dwType, DWORD dwState )	{ ResetState(dwType);	m_dwState |= dwState; }

  006a0	68 00 00 00 0f	 push	 251658240		; 0f000000H
  006a5	8b cf		 mov	 ecx, edi
  006a7	e8 00 00 00 00	 call	 ?ResetState@CAction@@QAEXK@Z ; CAction::ResetState
  006ac	81 4f 04 00 00
	00 08		 or	 DWORD PTR [edi+4], 134217728 ; 08000000H
; File C:\IAGOS\server\v18\Source\Source\_aiinterface\ActionMoverMsg2.cpp

; 234  : 			if( pAttacker )

  006b3	8b 4d 14	 mov	 ecx, DWORD PTR _nParam2$[ebp]
  006b6	c7 47 58 00 00
	00 00		 mov	 DWORD PTR [edi+88], 0
  006bd	c7 47 50 00 00
	00 00		 mov	 DWORD PTR [edi+80], 0
  006c4	85 c9		 test	 ecx, ecx
  006c6	74 51		 je	 SHORT $LN68@ProcessAct

; 235  : 			{
; 236  : 				if( pMover->IsPlayer() && pAttacker->IsPlayer() )	// 죽은놈과 죽인놈이 플레이어고

  006c8	83 be 30 02 00
	00 00		 cmp	 DWORD PTR [esi+560], 0
  006cf	74 48		 je	 SHORT $LN68@ProcessAct
  006d1	83 b9 30 02 00
	00 00		 cmp	 DWORD PTR [ecx+560], 0
  006d8	74 3f		 je	 SHORT $LN68@ProcessAct

; 237  : 				{
; 238  : 					if( pMover->m_nDuel == 1 && pMover->m_idDuelOther == pAttacker->GetId() )	// 둘이 듀얼중이었으면

  006da	83 be 3c 07 00
	00 01		 cmp	 DWORD PTR [esi+1852], 1
  006e1	75 36		 jne	 SHORT $LN68@ProcessAct
  006e3	8b 86 40 07 00
	00		 mov	 eax, DWORD PTR [esi+1856]
  006e9	3b 81 bc 01 00
	00		 cmp	 eax, DWORD PTR [ecx+444]
  006ef	75 28		 jne	 SHORT $LN68@ProcessAct

; 239  : 					{
; 240  : 						pMover->m_nDuel		= 0;	// 어느한쪽이 죽으면 듀얼모드 해제

  006f1	c7 86 3c 07 00
	00 00 00 00 00	 mov	 DWORD PTR [esi+1852], 0

; 241  : 						pAttacker->m_nDuel	= 0;

  006fb	c7 81 3c 07 00
	00 00 00 00 00	 mov	 DWORD PTR [ecx+1852], 0

; 242  : 
; 243  : 						TRACE( "m_nDuel		= 0		// OBJMSG_DIE	// ProcessActMsg2\n" );
; 244  : 
; 245  : 						pMover->m_idDuelOther = NULL_ID;

  00705	c7 86 40 07 00
	00 ff ff ff ff	 mov	 DWORD PTR [esi+1856], -1

; 246  : 						pAttacker->m_idDuelOther = NULL_ID;

  0070f	c7 81 40 07 00
	00 ff ff ff ff	 mov	 DWORD PTR [ecx+1856], -1
$LN68@ProcessAct:

; 247  : 					}
; 248  : 				}
; 249  : 			}
; 250  : 		}
; 251  : 		
; 252  : 		pMover->SetMotion( MTI_DIE1, ANILOOP_CONT );

  00719	8b 06		 mov	 eax, DWORD PTR [esi]
  0071b	8b ce		 mov	 ecx, esi
  0071d	6a 00		 push	 0
  0071f	6a 02		 push	 2
  00721	6a 08		 push	 8
  00723	ff 50 04	 call	 DWORD PTR [eax+4]

; 253  : 		if( !pMover->IsPlayer() ) 

  00726	83 be 30 02 00
	00 00		 cmp	 DWORD PTR [esi+560], 0
  0072d	0f 85 a4 02 00
	00		 jne	 $LN85@ProcessAct

; 254  : 		{
; 255  : 		#ifdef __WORLDSERVER
; 256  : 			m_nDeadCnt	= 60*3;	// 5 sec

  00733	c7 87 a0 00 00
	00 b4 00 00 00	 mov	 DWORD PTR [edi+160], 180 ; 000000b4H

; 356  : 	return 1;

  0073d	b8 01 00 00 00	 mov	 eax, 1
  00742	5f		 pop	 edi

; 357  : }

  00743	5e		 pop	 esi
  00744	8b e5		 mov	 esp, ebp
  00746	5d		 pop	 ebp
  00747	c2 1c 00	 ret	 28			; 0000001cH
$LN70@ProcessAct:

; 257  : 		#endif // WorldServer
; 258  : 		}
; 259  : 		break;
; 260  : 
; 261  : 	case OBJMSG_ACC_START:
; 262  : // 비행연료 
; 263  : //		if( pMover->m_nFuel <= 0 )
; 264  : //			return 0;
; 265  : 		AddStateFlag( OBJSTAF_ACC );

  0074a	6a 10		 push	 16			; 00000010H
  0074c	8b cf		 mov	 ecx, edi
  0074e	e8 00 00 00 00	 call	 ?AddStateFlag@CAction@@QAEXK@Z ; CAction::AddStateFlag
  00753	5f		 pop	 edi

; 356  : 	return 1;

  00754	b8 01 00 00 00	 mov	 eax, 1

; 357  : }

  00759	5e		 pop	 esi
  0075a	8b e5		 mov	 esp, ebp
  0075c	5d		 pop	 ebp
  0075d	c2 1c 00	 ret	 28			; 0000001cH
$LN71@ProcessAct:

; 266  : 		break;
; 267  : 	case OBJMSG_ACC_STOP:
; 268  : 		RemoveStateFlag( OBJSTAF_ACC );

  00760	6a 10		 push	 16			; 00000010H
  00762	8b cf		 mov	 ecx, edi
  00764	e8 00 00 00 00	 call	 ?RemoveStateFlag@CAction@@QAEXK@Z ; CAction::RemoveStateFlag
  00769	5f		 pop	 edi

; 356  : 	return 1;

  0076a	b8 01 00 00 00	 mov	 eax, 1

; 357  : }

  0076f	5e		 pop	 esi
  00770	8b e5		 mov	 esp, ebp
  00772	5d		 pop	 ebp
  00773	c2 1c 00	 ret	 28			; 0000001cH
$LN72@ProcessAct:

; 269  : 		break;
; 270  : 
; 271  : 	case OBJMSG_MODE_GROUND:
; 272  : 		if( nParam3 == 0 )

  00776	83 7d 18 00	 cmp	 DWORD PTR _nParam3$[ebp], 0
  0077a	8b 75 08	 mov	 esi, DWORD PTR _pMover$[ebp]
  0077d	75 4f		 jne	 SHORT $LN75@ProcessAct

; 273  : 		{
; 274  : 			CWorld* pWorld	= pMover->GetWorld();
; 275  : 			if( pWorld )

  0077f	8b 8e 6c 01 00
	00		 mov	 ecx, DWORD PTR [esi+364]
  00785	85 c9		 test	 ecx, ecx
  00787	74 45		 je	 SHORT $LN75@ProcessAct
; File C:\IAGOS\server\v18\Source\Source\_Common\Obj.h

; 215  : 	D3DXVECTOR3		GetPos()	{ return m_vPos; }

  00789	f3 0f 7e 86 60
	01 00 00	 movq	 xmm0, QWORD PTR [esi+352]
; File C:\IAGOS\server\v18\Source\Source\_aiinterface\ActionMoverMsg2.cpp

; 277  : 				int nAttr = pMover->GetWorld()->GetHeightAttribute( pMover->GetPos().x, pMover->GetPos().z );		// 이동할 위치의 속성 읽음.

  00791	83 ec 08	 sub	 esp, 8
; File C:\IAGOS\server\v18\Source\Source\_Common\Obj.h

; 215  : 	D3DXVECTOR3		GetPos()	{ return m_vPos; }

  00794	8b 86 68 01 00
	00		 mov	 eax, DWORD PTR [esi+360]
  0079a	66 0f d6 45 f4	 movq	 QWORD PTR $T2[ebp], xmm0
  0079f	f3 0f 7e c0	 movq	 xmm0, xmm0
  007a3	66 0f d6 45 e8	 movq	 QWORD PTR $T1[ebp], xmm0
  007a8	89 45 fc	 mov	 DWORD PTR $T2[ebp+8], eax
; File C:\IAGOS\server\v18\Source\Source\_aiinterface\ActionMoverMsg2.cpp

; 277  : 				int nAttr = pMover->GetWorld()->GetHeightAttribute( pMover->GetPos().x, pMover->GetPos().z );		// 이동할 위치의 속성 읽음.

  007ab	f3 0f 10 45 fc	 movss	 xmm0, DWORD PTR $T2[ebp+8]
  007b0	f3 0f 11 44 24
	04		 movss	 DWORD PTR [esp+4], xmm0
  007b6	f3 0f 10 45 e8	 movss	 xmm0, DWORD PTR $T1[ebp]
  007bb	f3 0f 11 04 24	 movss	 DWORD PTR [esp], xmm0
  007c0	e8 00 00 00 00	 call	 ?GetHeightAttribute@CWorld@@QAEHMM@Z ; CWorld::GetHeightAttribute

; 278  : 				if( nAttr == HATTR_NOWALK )		// 걷기 금지 지역에서 내리려고하면 못내린다.

  007c5	83 f8 01	 cmp	 eax, 1
  007c8	0f 84 37 01 00
	00		 je	 $LN212@ProcessAct
$LN75@ProcessAct:

; 279  : 					return 0;
; 280  : 			}
; 281  : 		}
; 282  : 		RemoveStateFlag( OBJSTAF_FLY );

  007ce	6a 08		 push	 8
  007d0	8b cf		 mov	 ecx, edi
  007d2	e8 00 00 00 00	 call	 ?RemoveStateFlag@CAction@@QAEXK@Z ; CAction::RemoveStateFlag

; 283  : 		RemoveStateFlag( OBJSTAF_ACC );		// 가속 정지.

  007d7	6a 10		 push	 16			; 00000010H
  007d9	8b cf		 mov	 ecx, edi
  007db	e8 00 00 00 00	 call	 ?RemoveStateFlag@CAction@@QAEXK@Z ; CAction::RemoveStateFlag

; 284  : 		ClearState();

  007e0	8b cf		 mov	 ecx, edi
  007e2	e8 00 00 00 00	 call	 ?ClearState@CAction@@QAEXXZ ; CAction::ClearState

; 285  : #ifdef __CLIENT
; 286  : 		if( pMover->IsActiveMover() && g_WndMng.m_pWndWorld )
; 287  : 		{
; 288  : 			g_WndMng.m_pWndWorld->SetMouseMode( 0 );		// 비행모드 해제되면 FPS모드해제
; 289  : 			g_WndMng.m_pWndWorld->m_fRollAng = 0;
; 290  : 		}
; 291  : #endif		
; 292  : 
; 293  : #ifndef __JEFF_9_20
; 294  : #ifdef __WORLDSERVER
; 295  : 		if( pMover->IsPlayer() )
; 296  : 		{
; 297  : 			((CUser*)pMover)->SetFlyTimeOff();
; 298  : 		}
; 299  : #endif // __WORLDSERVER
; 300  : #endif	// __JEFF_9_20
; 301  : 		pMover->SetAngleX(0);

  007e7	51		 push	 ecx
  007e8	8b ce		 mov	 ecx, esi
  007ea	c7 04 24 00 00
	00 00		 mov	 DWORD PTR [esp], 0
  007f1	e8 00 00 00 00	 call	 ?SetAngleX@CObj@@QAEXM@Z ; CObj::SetAngleX

; 302  : 		#ifdef __CLIENT
; 303  : 		if( m_pMover == CMover::GetActiveMover() )
; 304  : 			g_Neuz.m_camera.Lock();
; 305  : 		#endif
; 306  : 		m_pMover->SetRide( NULL );

  007f6	8b 47 0c	 mov	 eax, DWORD PTR [edi+12]
  007f9	5f		 pop	 edi

; 357  : }

  007fa	5e		 pop	 esi
; File C:\IAGOS\server\v18\Source\Source\_Common\Mover.h

; 1043 : 	void			SetRide( CModel *pModel, int nRideItemIdx = 0 ) { m_dwRideItemIdx = nRideItemIdx; m_pRide = (CModelObject*)pModel; 	};

  007fb	c7 80 e4 14 00
	00 00 00 00 00	 mov	 DWORD PTR [eax+5348], 0
  00805	c7 80 e8 14 00
	00 00 00 00 00	 mov	 DWORD PTR [eax+5352], 0
; File C:\IAGOS\server\v18\Source\Source\_aiinterface\ActionMoverMsg2.cpp

; 356  : 	return 1;

  0080f	b8 01 00 00 00	 mov	 eax, 1

; 357  : }

  00814	8b e5		 mov	 esp, ebp
  00816	5d		 pop	 ebp
  00817	c2 1c 00	 ret	 28			; 0000001cH
$LN76@ProcessAct:

; 307  : 		break;
; 308  : 	case OBJMSG_MODE_TURBO_ON:		// 터보모드 상태.
; 309  : 		if( GetStateFlag() & OBJSTAF_TURBO )		return 0;		// 이미 실행중

  0081a	f6 47 08 80	 test	 BYTE PTR [edi+8], 128	; 00000080H
  0081e	0f 85 e1 00 00
	00		 jne	 $LN212@ProcessAct

; 310  : 		if( pMover->m_tmAccFuel <= 0 )	return 0;				// 가속연료없으면 터보 못함.

  00824	8b 45 08	 mov	 eax, DWORD PTR _pMover$[ebp]
  00827	83 b8 7c 06 00
	00 00		 cmp	 DWORD PTR [eax+1660], 0
  0082e	0f 8e d1 00 00
	00		 jle	 $LN212@ProcessAct

; 311  : 		AddStateFlag( OBJSTAF_TURBO );

  00834	68 80 00 00 00	 push	 128			; 00000080H
  00839	8b cf		 mov	 ecx, edi
  0083b	e8 00 00 00 00	 call	 ?AddStateFlag@CAction@@QAEXK@Z ; CAction::AddStateFlag
  00840	5f		 pop	 edi

; 356  : 	return 1;

  00841	b8 01 00 00 00	 mov	 eax, 1

; 357  : }

  00846	5e		 pop	 esi
  00847	8b e5		 mov	 esp, ebp
  00849	5d		 pop	 ebp
  0084a	c2 1c 00	 ret	 28			; 0000001cH
$LN79@ProcessAct:

; 312  : 		break;
; 313  : 	case OBJMSG_MODE_TURBO_OFF:		// 터보모드 해제.
; 314  : 		if( (GetStateFlag() & OBJSTAF_TURBO) == 0 )		return 0;		// 이미 해제

  0084d	f6 47 08 80	 test	 BYTE PTR [edi+8], 128	; 00000080H
  00851	0f 84 ae 00 00
	00		 je	 $LN212@ProcessAct

; 315  : 		RemoveStateFlag( OBJSTAF_TURBO );

  00857	68 80 00 00 00	 push	 128			; 00000080H
  0085c	8b cf		 mov	 ecx, edi
  0085e	e8 00 00 00 00	 call	 ?RemoveStateFlag@CAction@@QAEXK@Z ; CAction::RemoveStateFlag
  00863	5f		 pop	 edi

; 356  : 	return 1;

  00864	b8 01 00 00 00	 mov	 eax, 1

; 357  : }

  00869	5e		 pop	 esi
  0086a	8b e5		 mov	 esp, ebp
  0086c	5d		 pop	 ebp
  0086d	c2 1c 00	 ret	 28			; 0000001cH
$LN81@ProcessAct:
; File C:\IAGOS\server\v18\Source\Source\_AIInterface\Action.h

; 322  : 	BOOL			IsActAttack()		{ return m_dwState & OBJSTA_ATK_ALL; }

  00870	8b 47 04	 mov	 eax, DWORD PTR [edi+4]
  00873	a9 00 00 ff 00	 test	 eax, 16711680		; 00ff0000H
; File C:\IAGOS\server\v18\Source\Source\_aiinterface\ActionMoverMsg2.cpp

; 321  : 		if( IsActAttack() )	return -2;

  00878	74 0d		 je	 SHORT $LN82@ProcessAct
$LN217@ProcessAct:
  0087a	5f		 pop	 edi
  0087b	b8 fe ff ff ff	 mov	 eax, -2			; fffffffeH

; 357  : }

  00880	5e		 pop	 esi
  00881	8b e5		 mov	 esp, ebp
  00883	5d		 pop	 ebp
  00884	c2 1c 00	 ret	 28			; 0000001cH
$LN82@ProcessAct:
; File C:\IAGOS\server\v18\Source\Source\_AIInterface\Action.h

; 323  : 	BOOL			IsActDamage()		{ return m_dwState & OBJSTA_DMG_ALL; }

  00887	a9 00 00 00 0f	 test	 eax, 251658240		; 0f000000H
; File C:\IAGOS\server\v18\Source\Source\_aiinterface\ActionMoverMsg2.cpp

; 322  : 		if( IsActDamage() )	return -3;

  0088c	74 0d		 je	 SHORT $LN83@ProcessAct
  0088e	5f		 pop	 edi
  0088f	b8 fd ff ff ff	 mov	 eax, -3			; fffffffdH

; 357  : }

  00894	5e		 pop	 esi
  00895	8b e5		 mov	 esp, ebp
  00897	5d		 pop	 ebp
  00898	c2 1c 00	 ret	 28			; 0000001cH
$LN83@ProcessAct:

; 323  : 		SendActMsg( OBJMSG_STOP_TURN );

  0089b	8b 07		 mov	 eax, DWORD PTR [edi]
  0089d	8b cf		 mov	 ecx, edi
  0089f	6a 00		 push	 0
  008a1	6a 00		 push	 0
  008a3	6a 00		 push	 0
  008a5	6a 00		 push	 0
  008a7	6a 00		 push	 0
  008a9	6a 0a		 push	 10			; 0000000aH
  008ab	ff 50 04	 call	 DWORD PTR [eax+4]

; 324  : 		SendActMsg( OBJMSG_ACC_START );

  008ae	8b 07		 mov	 eax, DWORD PTR [edi]
  008b0	8b cf		 mov	 ecx, edi
  008b2	6a 00		 push	 0
  008b4	6a 00		 push	 0
  008b6	6a 00		 push	 0
  008b8	6a 00		 push	 0
  008ba	6a 00		 push	 0
  008bc	6a 1b		 push	 27			; 0000001bH
  008be	ff 50 04	 call	 DWORD PTR [eax+4]
  008c1	66 0f 6e 4d 10	 movd	 xmm1, DWORD PTR _nParam1$[ebp]

; 325  : 		pMover->SetAngle( (float)nParam1 );

  008c6	8b 75 08	 mov	 esi, DWORD PTR _pMover$[ebp]
  008c9	0f 5b c9	 cvtdq2ps xmm1, xmm1
  008cc	51		 push	 ecx
  008cd	8b ce		 mov	 ecx, esi
  008cf	f3 0f 11 0c 24	 movss	 DWORD PTR [esp], xmm1
  008d4	e8 00 00 00 00	 call	 ?SetAngle@CObj@@QAEXM@Z	; CObj::SetAngle
  008d9	66 0f 6e 4d 14	 movd	 xmm1, DWORD PTR _nParam2$[ebp]

; 326  : 		pMover->SetAngleX( (float)nParam2 );

  008de	0f 5b c9	 cvtdq2ps xmm1, xmm1
  008e1	51		 push	 ecx
  008e2	8b ce		 mov	 ecx, esi
  008e4	f3 0f 11 0c 24	 movss	 DWORD PTR [esp], xmm1
  008e9	e8 00 00 00 00	 call	 ?SetAngleX@CObj@@QAEXM@Z ; CObj::SetAngleX

; 331  : 			int nRemnant	= pMover->m_uRemnantCorrFrm;

  008ee	8b b6 78 02 00
	00		 mov	 esi, DWORD PTR [esi+632]

; 332  : 			if( nRemnant == 0 )

  008f4	85 f6		 test	 esi, esi
  008f6	75 17		 jne	 SHORT $LN84@ProcessAct

; 333  : 			{
; 334  : 				Error( "OBJMSG_TURNMOVE" );

  008f8	68 00 00 00 00	 push	 OFFSET ??_C@_0BA@HBEACJOH@OBJMSG_TURNMOVE@
  008fd	e8 00 00 00 00	 call	 ?Error@@YAPBDPBDZZ	; Error
  00902	83 c4 04	 add	 esp, 4
$LN212@ProcessAct:

; 357  : }

  00905	5f		 pop	 edi
  00906	33 c0		 xor	 eax, eax
  00908	5e		 pop	 esi
  00909	8b e5		 mov	 esp, ebp
  0090b	5d		 pop	 ebp
  0090c	c2 1c 00	 ret	 28			; 0000001cH
$LN84@ProcessAct:
  0090f	0f 57 c0	 xorps	 xmm0, xmm0

; 327  : 
; 328  : 		{
; 329  : 			float fAng	= D3DXToRadian( nParam1 );
; 330  : 			float fAngX		= D3DXToRadian( nParam2 );

  00912	f3 0f 2a 45 14	 cvtsi2ss xmm0, DWORD PTR _nParam2$[ebp]
  00917	f3 0f 59 05 00
	00 00 00	 mulss	 xmm0, DWORD PTR __real@3c8efa35
  0091f	f3 0f 11 45 14	 movss	 DWORD PTR tv1563[ebp], xmm0
; File C:\Program Files (x86)\Windows Kits\10\Include\10.0.26100.0\ucrt\corecrt_math.h

; 683  :             return (float)cos(_X);

  00924	0f 5a c0	 cvtps2pd xmm0, xmm0
  00927	e8 00 00 00 00	 call	 __libm_sse2_cos_precise
; File C:\IAGOS\server\v18\Source\Source\_aiinterface\ActionMoverMsg2.cpp

; 337  : 			float f		= 2.0f * m_fDistance / ( 0.10f * nRemnant * nRemnant );

  0092c	f3 0f 10 97 90
	00 00 00	 movss	 xmm2, DWORD PTR [edi+144]
  00934	0f 57 c9	 xorps	 xmm1, xmm1
  00937	f3 0f 2a ce	 cvtsi2ss xmm1, esi
; File C:\Program Files (x86)\Windows Kits\10\Include\10.0.26100.0\ucrt\corecrt_math.h

; 683  :             return (float)cos(_X);

  0093b	0f 57 db	 xorps	 xmm3, xmm3
; File C:\IAGOS\server\v18\Source\Source\_aiinterface\ActionMoverMsg2.cpp

; 337  : 			float f		= 2.0f * m_fDistance / ( 0.10f * nRemnant * nRemnant );

  0093e	f3 0f 58 d2	 addss	 xmm2, xmm2
; File C:\Program Files (x86)\Windows Kits\10\Include\10.0.26100.0\ucrt\corecrt_math.h

; 683  :             return (float)cos(_X);

  00942	f2 0f 5a d8	 cvtsd2ss xmm3, xmm0
; File C:\IAGOS\server\v18\Source\Source\_aiinterface\ActionMoverMsg2.cpp

; 337  : 			float f		= 2.0f * m_fDistance / ( 0.10f * nRemnant * nRemnant );

  00946	0f 28 c1	 movaps	 xmm0, xmm1
  00949	f3 0f 59 05 00
	00 00 00	 mulss	 xmm0, DWORD PTR __real@3dcccccd
  00951	f3 0f 59 c1	 mulss	 xmm0, xmm1
  00955	f3 0f 5e d0	 divss	 xmm2, xmm0
  00959	0f 57 c0	 xorps	 xmm0, xmm0
  0095c	f3 0f 2a 45 10	 cvtsi2ss xmm0, DWORD PTR _nParam1$[ebp]

; 338  : 			float fDist	= cosf( fAngX ) * f;

  00961	f3 0f 59 da	 mulss	 xmm3, xmm2
  00965	f3 0f 59 05 00
	00 00 00	 mulss	 xmm0, DWORD PTR __real@3c8efa35
  0096d	f3 0f 11 5d 08	 movss	 DWORD PTR _fDist$1$[ebp], xmm3
  00972	f3 0f 11 45 10	 movss	 DWORD PTR tv1570[ebp], xmm0
; File C:\Program Files (x86)\Windows Kits\10\Include\10.0.26100.0\ucrt\corecrt_math.h

; 789  :             return (float)sin(_X);

  00977	0f 5a c0	 cvtps2pd xmm0, xmm0
  0097a	e8 00 00 00 00	 call	 __libm_sse2_sin_precise
  0097f	0f 57 c9	 xorps	 xmm1, xmm1
  00982	f2 0f 5a c8	 cvtsd2ss xmm1, xmm0
; File C:\IAGOS\server\v18\Source\Source\_aiinterface\ActionMoverMsg2.cpp

; 339  : 			m_vDelta.x		= sinf( fAng ) * fDist;

  00986	f3 0f 59 4d 08	 mulss	 xmm1, DWORD PTR _fDist$1$[ebp]
  0098b	f3 0f 11 4f 50	 movss	 DWORD PTR [edi+80], xmm1
; File C:\Program Files (x86)\Windows Kits\10\Include\10.0.26100.0\ucrt\corecrt_math.h

; 683  :             return (float)cos(_X);

  00990	f3 0f 10 4d 10	 movss	 xmm1, DWORD PTR tv1570[ebp]
  00995	0f 5a c1	 cvtps2pd xmm0, xmm1
  00998	e8 00 00 00 00	 call	 __libm_sse2_cos_precise
  0099d	0f 57 c9	 xorps	 xmm1, xmm1
  009a0	f2 0f 5a c8	 cvtsd2ss xmm1, xmm0
; File C:\IAGOS\server\v18\Source\Source\_aiinterface\ActionMoverMsg2.cpp

; 340  : 			m_vDelta.z		= -cosf( fAng ) * fDist;

  009a4	0f 57 0d 00 00
	00 00		 xorps	 xmm1, DWORD PTR __xmm@80000000800000008000000080000000
  009ab	f3 0f 59 4d 08	 mulss	 xmm1, DWORD PTR _fDist$1$[ebp]
  009b0	f3 0f 11 4f 58	 movss	 DWORD PTR [edi+88], xmm1
; File C:\Program Files (x86)\Windows Kits\10\Include\10.0.26100.0\ucrt\corecrt_math.h

; 789  :             return (float)sin(_X);

  009b5	f3 0f 10 4d 14	 movss	 xmm1, DWORD PTR tv1563[ebp]
  009ba	0f 5a c1	 cvtps2pd xmm0, xmm1
  009bd	e8 00 00 00 00	 call	 __libm_sse2_sin_precise
  009c2	f2 0f 5a c0	 cvtsd2ss xmm0, xmm0
; File C:\IAGOS\server\v18\Source\Source\_aiinterface\ActionMoverMsg2.cpp

; 341  : 			m_vDelta.y		= -sinf( fAngX ) * ( f * cosf( fAngX ) );

  009c6	0f 57 05 00 00
	00 00		 xorps	 xmm0, DWORD PTR __xmm@80000000800000008000000080000000
  009cd	f3 0f 59 45 08	 mulss	 xmm0, DWORD PTR _fDist$1$[ebp]
  009d2	f3 0f 11 47 54	 movss	 DWORD PTR [edi+84], xmm0
$LN85@ProcessAct:

; 356  : 	return 1;

  009d7	5f		 pop	 edi
  009d8	b8 01 00 00 00	 mov	 eax, 1

; 357  : }

  009dd	5e		 pop	 esi
  009de	8b e5		 mov	 esp, ebp
  009e0	5d		 pop	 ebp
  009e1	c2 1c 00	 ret	 28			; 0000001cH
$LN238@ProcessAct:
  009e4	00 00 00 00	 DD	 $LN18@ProcessAct
  009e8	00 00 00 00	 DD	 $LN4@ProcessAct
  009ec	00 00 00 00	 DD	 $LN14@ProcessAct
  009f0	00 00 00 00	 DD	 $LN23@ProcessAct
  009f4	00 00 00 00	 DD	 $LN28@ProcessAct
  009f8	00 00 00 00	 DD	 $LN33@ProcessAct
  009fc	00 00 00 00	 DD	 $LN72@ProcessAct
  00a00	00 00 00 00	 DD	 $LN76@ProcessAct
  00a04	00 00 00 00	 DD	 $LN79@ProcessAct
  00a08	00 00 00 00	 DD	 $LN70@ProcessAct
  00a0c	00 00 00 00	 DD	 $LN71@ProcessAct
  00a10	00 00 00 00	 DD	 $LN45@ProcessAct
  00a14	00 00 00 00	 DD	 $LN53@ProcessAct
  00a18	00 00 00 00	 DD	 $LN65@ProcessAct
  00a1c	00 00 00 00	 DD	 $LN63@ProcessAct
  00a20	00 00 00 00	 DD	 $LN39@ProcessAct
  00a24	00 00 00 00	 DD	 $LN41@ProcessAct
  00a28	00 00 00 00	 DD	 $LN43@ProcessAct
  00a2c	00 00 00 00	 DD	 $LN81@ProcessAct
  00a30	00 00 00 00	 DD	 $LN85@ProcessAct
$LN237@ProcessAct:
  00a34	00		 DB	 0
  00a35	13		 DB	 19			; 00000013H
  00a36	01		 DB	 1
  00a37	13		 DB	 19			; 00000013H
  00a38	13		 DB	 19			; 00000013H
  00a39	02		 DB	 2
  00a3a	02		 DB	 2
  00a3b	03		 DB	 3
  00a3c	04		 DB	 4
  00a3d	05		 DB	 5
  00a3e	13		 DB	 19			; 00000013H
  00a3f	13		 DB	 19			; 00000013H
  00a40	13		 DB	 19			; 00000013H
  00a41	13		 DB	 19			; 00000013H
  00a42	13		 DB	 19			; 00000013H
  00a43	13		 DB	 19			; 00000013H
  00a44	13		 DB	 19			; 00000013H
  00a45	13		 DB	 19			; 00000013H
  00a46	13		 DB	 19			; 00000013H
  00a47	13		 DB	 19			; 00000013H
  00a48	13		 DB	 19			; 00000013H
  00a49	13		 DB	 19			; 00000013H
  00a4a	06		 DB	 6
  00a4b	07		 DB	 7
  00a4c	08		 DB	 8
  00a4d	13		 DB	 19			; 00000013H
  00a4e	09		 DB	 9
  00a4f	0a		 DB	 10			; 0000000aH
  00a50	0b		 DB	 11			; 0000000bH
  00a51	13		 DB	 19			; 00000013H
  00a52	13		 DB	 19			; 00000013H
  00a53	13		 DB	 19			; 00000013H
  00a54	13		 DB	 19			; 00000013H
  00a55	13		 DB	 19			; 00000013H
  00a56	13		 DB	 19			; 00000013H
  00a57	0c		 DB	 12			; 0000000cH
  00a58	13		 DB	 19			; 00000013H
  00a59	13		 DB	 19			; 00000013H
  00a5a	13		 DB	 19			; 00000013H
  00a5b	0d		 DB	 13			; 0000000dH
  00a5c	0e		 DB	 14			; 0000000eH
  00a5d	13		 DB	 19			; 00000013H
  00a5e	0f		 DB	 15			; 0000000fH
  00a5f	10		 DB	 16			; 00000010H
  00a60	11		 DB	 17			; 00000011H
  00a61	13		 DB	 19			; 00000013H
  00a62	12		 DB	 18			; 00000012H
?ProcessActMsg2@CActionMover@@QAEHPAVCMover@@W4OBJMSG@@HHHHH@Z ENDP ; CActionMover::ProcessActMsg2
_TEXT	ENDS
; Function compile flags: /Ogtp
; File C:\IAGOS\server\v18\Source\Source\_aiinterface\ActionMoverMsg2.cpp
;	COMDAT ?__empty_global_delete@@YAXPAXI@Z
_TEXT	SEGMENT
___formal$ = 8						; size = 4
___formal$ = 12						; size = 4
?__empty_global_delete@@YAXPAXI@Z PROC			; __empty_global_delete, COMDAT

  00000	c2 00 00	 ret	 0
?__empty_global_delete@@YAXPAXI@Z ENDP			; __empty_global_delete
_TEXT	ENDS
; Function compile flags: /Ogtp
; File C:\IAGOS\server\v18\Source\Source\_aiinterface\ActionMoverMsg2.cpp
;	COMDAT ?__empty_global_delete@@YAXPAX@Z
_TEXT	SEGMENT
___formal$ = 8						; size = 4
?__empty_global_delete@@YAXPAX@Z PROC			; __empty_global_delete, COMDAT

  00000	c2 00 00	 ret	 0
?__empty_global_delete@@YAXPAX@Z ENDP			; __empty_global_delete
_TEXT	ENDS
END
