; Listing generated by Microsoft (R) Optimizing Compiler Version 19.44.35225.0 

	TITLE	C:\IAGOS\server\v18\Source\Output\WorldServer\Release\ActionMoverCollision.obj
	.686P
	.XMM
	include listing.inc
	.model	flat

INCLUDELIB LIBCMT
INCLUDELIB OLDNAMES

PUBLIC	?__empty_global_delete@@YAXPAX@Z		; __empty_global_delete
PUBLIC	?__empty_global_delete@@YAXPAXI@Z		; __empty_global_delete
PUBLIC	??0D3DXVECTOR3@@QAE@XZ				; D3DXVECTOR3::D3DXVECTOR3
PUBLIC	?ProcessCollisionFly@CActionMover@@QAEHPAUD3DXVECTOR3@@@Z ; CActionMover::ProcessCollisionFly
PUBLIC	?ProcessCollisionGround@CActionMover@@QAEHPAUD3DXVECTOR3@@@Z ; CActionMover::ProcessCollisionGround
PUBLIC	?CanCollisionFly@@YAHPAVCMover@@@Z		; CanCollisionFly
PUBLIC	__real@00000000
PUBLIC	__real@3a83126f
PUBLIC	__real@3e19999a
PUBLIC	__real@3e1d89d9
PUBLIC	__real@3e800000
PUBLIC	__real@3ecccccd
PUBLIC	__real@3f000000
PUBLIC	__real@3f266666
PUBLIC	__real@3f333333
PUBLIC	__real@3f800000
PUBLIC	__real@3fc00000
PUBLIC	__real@3ff33333
PUBLIC	__real@40800000
PUBLIC	__real@40d00000
PUBLIC	__real@41200000
PUBLIC	__real@bdcccccd
EXTRN	?SetIAObjLink@CCtrl@@QAEXPAVCShip@@@Z:PROC	; CCtrl::SetIAObjLink
EXTRN	?GetWorld@CAction@@QAEPAVCWorld@@XZ:PROC	; CAction::GetWorld
EXTRN	?ResetState@CAction@@QAEXK@Z:PROC		; CAction::ResetState
EXTRN	?PostAIMsg@CMover@@QAEXKKKK@Z:PROC		; CMover::PostAIMsg
EXTRN	?UnequipRide@CMover@@QAEXXZ:PROC		; CMover::UnequipRide
EXTRN	?DoDie@CMover@@QAEHPAVCCtrl@@K@Z:PROC		; CMover::DoDie
EXTRN	?OnActDrop@CMover@@QAEXXZ:PROC			; CMover::OnActDrop
EXTRN	?OnActIALanding@CMover@@QAEXPAVCObj@@ABUD3DXVECTOR3@@@Z:PROC ; CMover::OnActIALanding
EXTRN	?GetFullHeight@CWorld@@QAEMABUD3DXVECTOR3@@@Z:PROC ; CWorld::GetFullHeight
EXTRN	?GetOverHeightForPlayer@CWorld@@QAEMAAUD3DXVECTOR3@@PAVCObj@@@Z:PROC ; CWorld::GetOverHeightForPlayer
EXTRN	?GetOverHeight@CWorld@@QAEMAAUD3DXVECTOR3@@PAVCObj@@@Z:PROC ; CWorld::GetOverHeight
EXTRN	?GetWaterHeight@CWorld@@QAEPAUWATERHEIGHT@@HH@Z:PROC ; CWorld::GetWaterHeight
EXTRN	?GetHeightAttribute@CWorld@@QAEHMM@Z:PROC	; CWorld::GetHeightAttribute
EXTRN	?ProcessCollision@CWorld@@QAEHPAUD3DXVECTOR3@@ABU2@1HH@Z:PROC ; CWorld::ProcessCollision
EXTRN	?ProcessCollisionReflection@CWorld@@QAEHPAUD3DXVECTOR3@@ABU2@1H@Z:PROC ; CWorld::ProcessCollisionReflection
EXTRN	?ProcessUnderCollision@CWorld@@QAEMPAUD3DXVECTOR3@@PAPAVCObj@@AAU2@@Z:PROC ; CWorld::ProcessUnderCollision
EXTRN	@__security_check_cookie@4:PROC
EXTRN	__libm_sse2_sqrt_precise:PROC
EXTRN	?m_bCollision@CObj@@2HA:DWORD			; CObj::m_bCollision
EXTRN	___security_cookie:DWORD
EXTRN	__fltused:DWORD
;	COMDAT __real@bdcccccd
CONST	SEGMENT
__real@bdcccccd DD 0bdcccccdr			; -0.1
CONST	ENDS
;	COMDAT __real@41200000
CONST	SEGMENT
__real@41200000 DD 041200000r			; 10
CONST	ENDS
;	COMDAT __real@40d00000
CONST	SEGMENT
__real@40d00000 DD 040d00000r			; 6.5
CONST	ENDS
;	COMDAT __real@40800000
CONST	SEGMENT
__real@40800000 DD 040800000r			; 4
CONST	ENDS
;	COMDAT __real@3ff33333
CONST	SEGMENT
__real@3ff33333 DD 03ff33333r			; 1.9
CONST	ENDS
;	COMDAT __real@3fc00000
CONST	SEGMENT
__real@3fc00000 DD 03fc00000r			; 1.5
CONST	ENDS
;	COMDAT __real@3f800000
CONST	SEGMENT
__real@3f800000 DD 03f800000r			; 1
CONST	ENDS
;	COMDAT __real@3f333333
CONST	SEGMENT
__real@3f333333 DD 03f333333r			; 0.7
CONST	ENDS
;	COMDAT __real@3f266666
CONST	SEGMENT
__real@3f266666 DD 03f266666r			; 0.65
CONST	ENDS
;	COMDAT __real@3f000000
CONST	SEGMENT
__real@3f000000 DD 03f000000r			; 0.5
CONST	ENDS
;	COMDAT __real@3ecccccd
CONST	SEGMENT
__real@3ecccccd DD 03ecccccdr			; 0.4
CONST	ENDS
;	COMDAT __real@3e800000
CONST	SEGMENT
__real@3e800000 DD 03e800000r			; 0.25
CONST	ENDS
;	COMDAT __real@3e1d89d9
CONST	SEGMENT
__real@3e1d89d9 DD 03e1d89d9r			; 0.153846
CONST	ENDS
;	COMDAT __real@3e19999a
CONST	SEGMENT
__real@3e19999a DD 03e19999ar			; 0.15
CONST	ENDS
;	COMDAT __real@3a83126f
CONST	SEGMENT
__real@3a83126f DD 03a83126fr			; 0.001
CONST	ENDS
;	COMDAT __real@00000000
CONST	SEGMENT
__real@00000000 DD 000000000r			; 0
CONST	ENDS
; Function compile flags: /Ogtp
; File C:\IAGOS\server\v18\Source\Source\_aiinterface\ActionMoverCollision.cpp
; File C:\IAGOS\server\v18\Source\Source\_Common\Mover.h
; File C:\IAGOS\server\v18\Source\Source\_aiinterface\ActionMoverCollision.cpp
; File C:\IAGOS\server\v18\Source\Source\_Common\Mover.h
; File C:\IAGOS\server\v18\Source\Source\_aiinterface\ActionMoverCollision.cpp
;	COMDAT ?CanCollisionFly@@YAHPAVCMover@@@Z
_TEXT	SEGMENT
_pMover$ = 8						; size = 4
?CanCollisionFly@@YAHPAVCMover@@@Z PROC			; CanCollisionFly, COMDAT

; 7    : {

  00000	55		 push	 ebp
  00001	8b ec		 mov	 ebp, esp
; File C:\IAGOS\server\v18\Source\Source\_Common\Mover.h

; 1015 : 	BOOL			IsNPC()				{ return !m_bPlayer; }

  00003	8b 4d 08	 mov	 ecx, DWORD PTR _pMover$[ebp]
  00006	83 b9 30 02 00
	00 00		 cmp	 DWORD PTR [ecx+560], 0
; File C:\IAGOS\server\v18\Source\Source\_aiinterface\ActionMoverCollision.cpp

; 12   : 	if( pMover->IsNPC() || pMover->IsEmptyDest() )

  0000d	74 32		 je	 SHORT $LN3@CanCollisi
; File C:\IAGOS\server\v18\Source\Source\_Common\Mover.h

; 1036 : 	BOOL			IsEmptyDestPos()	{ return m_vDestPos.x == 0.0f && m_vDestPos.z == 0.0f; }

  0000f	f3 0f 10 81 5c
	02 00 00	 movss	 xmm0, DWORD PTR [ecx+604]
  00017	0f 57 c9	 xorps	 xmm1, xmm1
  0001a	0f 2e c1	 ucomiss xmm0, xmm1
  0001d	9f		 lahf
  0001e	f6 c4 44	 test	 ah, 68			; 00000044H
  00021	7a 1a		 jp	 SHORT $LN17@CanCollisi
  00023	f3 0f 10 81 64
	02 00 00	 movss	 xmm0, DWORD PTR [ecx+612]
  0002b	0f 2e c1	 ucomiss xmm0, xmm1
  0002e	9f		 lahf
  0002f	f6 c4 44	 test	 ah, 68			; 00000044H
  00032	7a 09		 jp	 SHORT $LN17@CanCollisi

; 1035 : 	BOOL			IsEmptyDestObj()	{ return m_idDest == NULL_ID; }

  00034	83 b9 58 02 00
	00 ff		 cmp	 DWORD PTR [ecx+600], -1

; 1037 : 	BOOL			IsEmptyDest()		{ return IsEmptyDestPos() && IsEmptyDestObj(); }

  0003b	74 04		 je	 SHORT $LN3@CanCollisi
$LN17@CanCollisi:
; File C:\IAGOS\server\v18\Source\Source\_aiinterface\ActionMoverCollision.cpp

; 15   : 	return FALSE;

  0003d	33 c0		 xor	 eax, eax

; 16   : }

  0003f	5d		 pop	 ebp
  00040	c3		 ret	 0
$LN3@CanCollisi:

; 13   : 		return TRUE;

  00041	b8 01 00 00 00	 mov	 eax, 1

; 16   : }

  00046	5d		 pop	 ebp
  00047	c3		 ret	 0
?CanCollisionFly@@YAHPAVCMover@@@Z ENDP			; CanCollisionFly
_TEXT	ENDS
; Function compile flags: /Ogtp
; File C:\IAGOS\server\v18\Source\Source\_aiinterface\ActionMoverCollision.cpp
; File C:\IAGOS\server\v18\Source\Source\DX_SDK\d3dx9math.inl
; File C:\IAGOS\server\v18\Source\Source\_aiinterface\ActionMoverCollision.cpp
; File C:\IAGOS\server\v18\Source\Source\DX_SDK\d3dx9math.inl
; File C:\IAGOS\server\v18\Source\Source\_aiinterface\ActionMoverCollision.cpp
; File C:\IAGOS\server\v18\Source\Source\DX_SDK\d3dx9math.inl
; File C:\IAGOS\server\v18\Source\Source\_aiinterface\ActionMoverCollision.cpp
; File C:\IAGOS\server\v18\Source\Source\DX_SDK\d3dx9math.inl
; File C:\IAGOS\server\v18\Source\Source\_aiinterface\ActionMoverCollision.cpp
; File C:\IAGOS\server\v18\Source\Source\DX_SDK\d3dx9math.inl
; File C:\Program Files (x86)\Windows Kits\10\Include\10.0.26100.0\ucrt\corecrt_math.h
; File C:\IAGOS\server\v18\Source\Source\_aiinterface\ActionMoverCollision.cpp
; File C:\IAGOS\server\v18\Source\Source\DX_SDK\d3dx9math.inl
; File C:\IAGOS\server\v18\Source\Source\_aiinterface\ActionMoverCollision.cpp
; File C:\IAGOS\server\v18\Source\Source\DX_SDK\d3dx9math.inl
; File C:\Program Files (x86)\Windows Kits\10\Include\10.0.26100.0\ucrt\corecrt_math.h
; File C:\IAGOS\server\v18\Source\Source\_aiinterface\ActionMoverCollision.cpp
; File C:\Program Files (x86)\Windows Kits\10\Include\10.0.26100.0\ucrt\corecrt_math.h
; File C:\IAGOS\server\v18\Source\Source\_aiinterface\ActionMoverCollision.cpp
; File C:\IAGOS\server\v18\Source\Source\_Common\World.h
; File C:\IAGOS\server\v18\Source\Source\_aiinterface\ActionMoverCollision.cpp
; File C:\IAGOS\server\v18\Source\Source\_Common\World.h
; File C:\IAGOS\server\v18\Source\Source\_aiinterface\ActionMoverCollision.cpp
; File C:\IAGOS\server\v18\Source\Source\_Common\World.h
; File C:\IAGOS\server\v18\Source\Source\_aiinterface\ActionMoverCollision.cpp
; File C:\IAGOS\server\v18\Source\Source\_Common\World.h
; File C:\IAGOS\server\v18\Source\Source\_aiinterface\ActionMoverCollision.cpp
; File C:\IAGOS\server\v18\Source\Source\_Common\World.h
; File C:\IAGOS\server\v18\Source\Source\_aiinterface\ActionMoverCollision.cpp
; File C:\IAGOS\server\v18\Source\Source\_AIInterface\Action.h
; File C:\IAGOS\server\v18\Source\Source\_aiinterface\ActionMoverCollision.cpp
; File C:\IAGOS\server\v18\Source\Source\DX_SDK\d3dx9math.inl
; File C:\IAGOS\server\v18\Source\Source\_aiinterface\ActionMoverCollision.cpp
; File C:\IAGOS\server\v18\Source\Source\DX_SDK\d3dx9math.inl
; File C:\IAGOS\server\v18\Source\Source\_aiinterface\ActionMoverCollision.cpp
; File C:\IAGOS\server\v18\Source\Source\DX_SDK\d3dx9math.inl
; File C:\IAGOS\server\v18\Source\Source\_aiinterface\ActionMoverCollision.cpp
; File C:\IAGOS\server\v18\Source\Source\DX_SDK\d3dx9math.inl
; File C:\IAGOS\server\v18\Source\Source\_aiinterface\ActionMoverCollision.cpp
; File C:\IAGOS\server\v18\Source\Source\DX_SDK\d3dx9math.inl
; File C:\IAGOS\server\v18\Source\Source\_aiinterface\ActionMoverCollision.cpp
; File C:\IAGOS\server\v18\Source\Source\DX_SDK\d3dx9math.inl
; File C:\IAGOS\server\v18\Source\Source\_aiinterface\ActionMoverCollision.cpp
; File C:\IAGOS\server\v18\Source\Source\_AIInterface\Action.h
; File C:\IAGOS\server\v18\Source\Source\_aiinterface\ActionMoverCollision.cpp
; File C:\IAGOS\server\v18\Source\Source\_Common\Mover.h
; File C:\IAGOS\server\v18\Source\Source\_aiinterface\ActionMoverCollision.cpp
; File C:\IAGOS\server\v18\Source\Source\_AIInterface\Action.h
; File C:\IAGOS\server\v18\Source\Source\_aiinterface\ActionMoverCollision.cpp
;	COMDAT ?ProcessCollisionGround@CActionMover@@QAEHPAUD3DXVECTOR3@@@Z
_TEXT	SEGMENT
_pObjColl$1 = -60					; size = 4
_h$2 = -60						; size = 4
$T3 = -60						; size = 4
_vDeltaXZ$5$ = -60					; size = 4
_pWorld$1$ = -56					; size = 4
_fResult$1$ = -52					; size = 4
_bCollision$1$ = -48					; size = 4
$T4 = -48						; size = 4
_h$5 = -44						; size = 4
_vDeltaXZ$3$ = -44					; size = 4
_vDelta$ = -40						; size = 12
_vDeltaXZ$6 = -28					; size = 12
_vSlide$7 = -28						; size = 12
_vKneePos$8 = -16					; size = 12
$T9 = -16						; size = 12
$T10 = -16						; size = 12
__$ArrayPad$ = -4					; size = 4
_pPos$ = 8						; size = 4
?ProcessCollisionGround@CActionMover@@QAEHPAUD3DXVECTOR3@@@Z PROC ; CActionMover::ProcessCollisionGround, COMDAT
; _this$ = ecx

; 128  : {

  00000	55		 push	 ebp
  00001	8b ec		 mov	 ebp, esp
  00003	83 e4 f8	 and	 esp, -8			; fffffff8H
  00006	83 ec 3c	 sub	 esp, 60			; 0000003cH
  00009	a1 00 00 00 00	 mov	 eax, DWORD PTR ___security_cookie
  0000e	33 c4		 xor	 eax, esp
  00010	89 44 24 38	 mov	 DWORD PTR __$ArrayPad$[esp+60], eax
  00014	53		 push	 ebx
  00015	56		 push	 esi
  00016	8b 75 08	 mov	 esi, DWORD PTR _pPos$[ebp]
  00019	57		 push	 edi
  0001a	8b f9		 mov	 edi, ecx

; 129  : 	CMover*			pMover = m_pMover;
; 130  : 	CModelObject	*pModel = (CModelObject *)pMover->m_pModel;
; 131  : 	D3DXVECTOR3		vDelta = m_vDeltaAccu;
; 132  : 	BOOL			fResult = FALSE;

  0001c	c7 44 24 14 00
	00 00 00	 mov	 DWORD PTR _fResult$1$[esp+72], 0
  00024	f3 0f 7e 47 68	 movq	 xmm0, QWORD PTR [edi+104]
  00029	8b 47 70	 mov	 eax, DWORD PTR [edi+112]
  0002c	8b 5f 0c	 mov	 ebx, DWORD PTR [edi+12]
  0002f	66 0f d6 44 24
	20		 movq	 QWORD PTR _vDelta$[esp+72], xmm0
  00035	89 44 24 28	 mov	 DWORD PTR _vDelta$[esp+80], eax

; 133  : 	CWorld*			pWorld = GetWorld();

  00039	e8 00 00 00 00	 call	 ?GetWorld@CAction@@QAEPAVCWorld@@XZ ; CAction::GetWorld

; 134  : 
; 135  : 	if( m_bMove )	

  0003e	83 bf b8 00 00
	00 00		 cmp	 DWORD PTR [edi+184], 0
  00045	8b c8		 mov	 ecx, eax
  00047	f3 0f 10 0d 00
	00 00 00	 movss	 xmm1, DWORD PTR __real@3e800000
  0004f	89 4c 24 10	 mov	 DWORD PTR _pWorld$1$[esp+72], ecx
  00053	0f 84 06 03 00
	00		 je	 $LN21@ProcessCol

; 195  : 		if( CObj::m_bCollision && bColl ) 

  00059	83 3d 00 00 00
	00 00		 cmp	 DWORD PTR ?m_bCollision@CObj@@2HA, 0 ; CObj::m_bCollision
  00060	0f 57 e4	 xorps	 xmm4, xmm4
  00063	f3 0f 7e 06	 movq	 xmm0, QWORD PTR [esi]
  00067	0f 57 ed	 xorps	 xmm5, xmm5
; File C:\IAGOS\server\v18\Source\Source\DX_SDK\d3dx9math.inl

; 342  :     x *= f;

  0006a	f3 0f 10 54 24
	20		 movss	 xmm2, DWORD PTR _vDelta$[esp+72]

; 344  :     z *= f;

  00070	f3 0f 10 5c 24
	28		 movss	 xmm3, DWORD PTR _vDelta$[esp+80]
  00076	f3 0f 59 15 00
	00 00 00	 mulss	 xmm2, DWORD PTR __real@40d00000
; File C:\IAGOS\server\v18\Source\Source\_aiinterface\ActionMoverCollision.cpp

; 139  : 		vKneePos = *pPos;	

  0007e	8b 46 08	 mov	 eax, DWORD PTR [esi+8]
; File C:\IAGOS\server\v18\Source\Source\DX_SDK\d3dx9math.inl

; 344  :     z *= f;

  00081	f3 0f 59 1d 00
	00 00 00	 mulss	 xmm3, DWORD PTR __real@40d00000
; File C:\IAGOS\server\v18\Source\Source\_aiinterface\ActionMoverCollision.cpp

; 139  : 		vKneePos = *pPos;	

  00089	89 44 24 40	 mov	 DWORD PTR _vKneePos$8[esp+80], eax
  0008d	66 0f d6 44 24
	38		 movq	 QWORD PTR _vKneePos$8[esp+72], xmm0

; 140  : 		vKneePos.y += 0.4f;		// 무릎높이

  00093	f3 0f 10 44 24
	3c		 movss	 xmm0, DWORD PTR _vKneePos$8[esp+76]
  00099	f3 0f 58 05 00
	00 00 00	 addss	 xmm0, DWORD PTR __real@3ecccccd
; File C:\IAGOS\server\v18\Source\Source\DX_SDK\d3dx9math.inl

; 351  :     FLOAT fInv = 1.0f / f;

  000a1	f3 0f 59 d1	 mulss	 xmm2, xmm1

; 353  :     y *= fInv;

  000a5	f3 0f 59 d9	 mulss	 xmm3, xmm1
; File C:\IAGOS\server\v18\Source\Source\_aiinterface\ActionMoverCollision.cpp

; 140  : 		vKneePos.y += 0.4f;		// 무릎높이

  000a9	f3 0f 11 44 24
	3c		 movss	 DWORD PTR _vKneePos$8[esp+76], xmm0
; File C:\IAGOS\server\v18\Source\Source\DX_SDK\d3dx9math.inl

; 351  :     FLOAT fInv = 1.0f / f;

  000af	f3 0f 11 54 24
	18		 movss	 DWORD PTR $T4[esp+72], xmm2

; 352  :     x *= fInv;

  000b5	f3 0f 11 54 24
	2c		 movss	 DWORD PTR _vDeltaXZ$6[esp+72], xmm2

; 353  :     y *= fInv;

  000bb	f3 0f 11 64 24
	1c		 movss	 DWORD PTR _vDeltaXZ$3$[esp+72], xmm4
  000c1	f3 0f 11 64 24
	30		 movss	 DWORD PTR _vDeltaXZ$6[esp+76], xmm4
  000c7	f3 0f 11 5c 24
	0c		 movss	 DWORD PTR _vDeltaXZ$5$[esp+72], xmm3

; 354  :     z *= fInv;

  000cd	f3 0f 11 5c 24
	34		 movss	 DWORD PTR _vDeltaXZ$6[esp+80], xmm3
; File C:\IAGOS\server\v18\Source\Source\_aiinterface\ActionMoverCollision.cpp

; 195  : 		if( CObj::m_bCollision && bColl ) 

  000d3	0f 84 88 00 00
	00		 je	 $LN108@ProcessCol
; File C:\IAGOS\server\v18\Source\Source\DX_SDK\d3dx9math.inl

; 1684 :     return sqrtf(pV->x * pV->x + pV->y * pV->y + pV->z * pV->z);

  000d9	0f 28 ca	 movaps	 xmm1, xmm2
  000dc	0f 28 c3	 movaps	 xmm0, xmm3
  000df	f3 0f 59 ca	 mulss	 xmm1, xmm2
  000e3	f3 0f 59 c3	 mulss	 xmm0, xmm3
  000e7	f3 0f 58 cd	 addss	 xmm1, xmm5
  000eb	f3 0f 58 c8	 addss	 xmm1, xmm0
; File C:\Program Files (x86)\Windows Kits\10\Include\10.0.26100.0\ucrt\corecrt_math.h

; 799  :             return (float)sqrt(_X);

  000ef	0f 5a c1	 cvtps2pd xmm0, xmm1
  000f2	0f 57 c9	 xorps	 xmm1, xmm1
  000f5	66 0f 2e c8	 ucomisd xmm1, xmm0
  000f9	77 06		 ja	 SHORT $LN109@ProcessCol
  000fb	f2 0f 51 c0	 sqrtsd	 xmm0, xmm0
  000ff	eb 05		 jmp	 SHORT $LN110@ProcessCol
$LN109@ProcessCol:
  00101	e8 00 00 00 00	 call	 __libm_sse2_sqrt_precise
$LN110@ProcessCol:
  00106	f2 0f 5a c0	 cvtsd2ss xmm0, xmm0
; File C:\IAGOS\server\v18\Source\Source\_aiinterface\ActionMoverCollision.cpp

; 198  : 			if( fLen != 0.0f )

  0010a	0f 2e 05 00 00
	00 00		 ucomiss xmm0, DWORD PTR __real@00000000
  00111	9f		 lahf
  00112	f6 c4 44	 test	 ah, 68			; 00000044H
  00115	7b 38		 jnp	 SHORT $LN101@ProcessCol

; 199  : 			{	/*
; 200  : 				FLOAT fR = 1.0f;
; 201  : 				if( fLen < 0.65f )							// 이 길이가 0.65f 보다도 짧으면
; 202  : 				{
; 203  : 					fR = 0.65f / fLen;						// 몇배나 작은지 계산해서
; 204  : 					vDeltaXZ *= fR;							// 벡터를 그만큼 늘여줌.
; 205  : 				}*/
; 206  : #ifdef __LAYER_1015
; 207  : 				fResult	= pWorld->ProcessCollision( &vDeltaXZ, vKneePos, vDeltaXZ, 0, pMover->GetLayer() );

  00117	ff b3 b8 01 00
	00		 push	 DWORD PTR [ebx+440]
  0011d	8b 4c 24 14	 mov	 ecx, DWORD PTR _pWorld$1$[esp+76]
  00121	8d 44 24 30	 lea	 eax, DWORD PTR _vDeltaXZ$6[esp+76]
  00125	6a 00		 push	 0
  00127	50		 push	 eax
  00128	8d 44 24 44	 lea	 eax, DWORD PTR _vKneePos$8[esp+84]
  0012c	50		 push	 eax
  0012d	8d 44 24 3c	 lea	 eax, DWORD PTR _vDeltaXZ$6[esp+88]
  00131	50		 push	 eax
  00132	e8 00 00 00 00	 call	 ?ProcessCollision@CWorld@@QAEHPAUD3DXVECTOR3@@ABU2@1HH@Z ; CWorld::ProcessCollision
  00137	f3 0f 10 5c 24
	34		 movss	 xmm3, DWORD PTR _vDeltaXZ$6[esp+80]
  0013d	f3 0f 10 64 24
	30		 movss	 xmm4, DWORD PTR _vDeltaXZ$6[esp+76]
  00143	f3 0f 10 54 24
	2c		 movss	 xmm2, DWORD PTR _vDeltaXZ$6[esp+72]
  00149	89 44 24 14	 mov	 DWORD PTR _fResult$1$[esp+72], eax
  0014d	eb 14		 jmp	 SHORT $LN12@ProcessCol
$LN101@ProcessCol:

; 198  : 			if( fLen != 0.0f )

  0014f	f3 0f 10 54 24
	18		 movss	 xmm2, DWORD PTR $T4[esp+72]
  00155	f3 0f 10 5c 24
	0c		 movss	 xmm3, DWORD PTR _vDeltaXZ$5$[esp+72]
  0015b	f3 0f 10 64 24
	1c		 movss	 xmm4, DWORD PTR _vDeltaXZ$3$[esp+72]
$LN108@ProcessCol:
; File C:\IAGOS\server\v18\Source\Source\DX_SDK\d3dx9math.inl

; 342  :     x *= f;

  00161	33 c0		 xor	 eax, eax
$LN12@ProcessCol:
  00163	f3 0f 10 0d 00
	00 00 00	 movss	 xmm1, DWORD PTR __real@40800000

; 351  :     FLOAT fInv = 1.0f / f;

  0016b	f3 0f 10 05 00
	00 00 00	 movss	 xmm0, DWORD PTR __real@3e1d89d9

; 342  :     x *= f;

  00173	f3 0f 59 d1	 mulss	 xmm2, xmm1

; 343  :     y *= f;

  00177	f3 0f 59 e1	 mulss	 xmm4, xmm1

; 344  :     z *= f;

  0017b	f3 0f 59 d9	 mulss	 xmm3, xmm1

; 351  :     FLOAT fInv = 1.0f / f;

  0017f	f3 0f 59 d0	 mulss	 xmm2, xmm0

; 352  :     x *= fInv;

  00183	f3 0f 59 e0	 mulss	 xmm4, xmm0

; 353  :     y *= fInv;

  00187	f3 0f 59 d8	 mulss	 xmm3, xmm0
  0018b	f3 0f 11 54 24
	18		 movss	 DWORD PTR $T4[esp+72], xmm2
  00191	f3 0f 11 54 24
	2c		 movss	 DWORD PTR _vDeltaXZ$6[esp+72], xmm2
  00197	f3 0f 11 64 24
	30		 movss	 DWORD PTR _vDeltaXZ$6[esp+76], xmm4
  0019d	f3 0f 11 5c 24
	0c		 movss	 DWORD PTR _vDeltaXZ$5$[esp+72], xmm3

; 354  :     z *= fInv;

  001a3	f3 0f 11 5c 24
	34		 movss	 DWORD PTR _vDeltaXZ$6[esp+80], xmm3
; File C:\IAGOS\server\v18\Source\Source\_aiinterface\ActionMoverCollision.cpp

; 226  : 		if(fResult && (D3DXVec3Length(&vDeltaXZ) > 0.15f))

  001a9	85 c0		 test	 eax, eax
  001ab	74 6a		 je	 SHORT $LN13@ProcessCol
; File C:\IAGOS\server\v18\Source\Source\DX_SDK\d3dx9math.inl

; 1684 :     return sqrtf(pV->x * pV->x + pV->y * pV->y + pV->z * pV->z);

  001ad	0f 28 ca	 movaps	 xmm1, xmm2
  001b0	f3 0f 59 e4	 mulss	 xmm4, xmm4
  001b4	f3 0f 59 ca	 mulss	 xmm1, xmm2
  001b8	0f 28 c3	 movaps	 xmm0, xmm3
  001bb	f3 0f 59 c3	 mulss	 xmm0, xmm3
  001bf	f3 0f 58 cc	 addss	 xmm1, xmm4
  001c3	f3 0f 58 c8	 addss	 xmm1, xmm0
; File C:\Program Files (x86)\Windows Kits\10\Include\10.0.26100.0\ucrt\corecrt_math.h

; 799  :             return (float)sqrt(_X);

  001c7	0f 5a c1	 cvtps2pd xmm0, xmm1
  001ca	0f 57 c9	 xorps	 xmm1, xmm1
  001cd	66 0f 2e c8	 ucomisd xmm1, xmm0
  001d1	77 06		 ja	 SHORT $LN111@ProcessCol
  001d3	f2 0f 51 c0	 sqrtsd	 xmm0, xmm0
  001d7	eb 05		 jmp	 SHORT $LN112@ProcessCol
$LN111@ProcessCol:
  001d9	e8 00 00 00 00	 call	 __libm_sse2_sqrt_precise
$LN112@ProcessCol:
; File C:\IAGOS\server\v18\Source\Source\_aiinterface\ActionMoverCollision.cpp

; 226  : 		if(fResult && (D3DXVec3Length(&vDeltaXZ) > 0.15f))

  001de	f3 0f 10 54 24
	18		 movss	 xmm2, DWORD PTR $T4[esp+72]
; File C:\Program Files (x86)\Windows Kits\10\Include\10.0.26100.0\ucrt\corecrt_math.h

; 799  :             return (float)sqrt(_X);

  001e4	f2 0f 5a c0	 cvtsd2ss xmm0, xmm0
; File C:\IAGOS\server\v18\Source\Source\_aiinterface\ActionMoverCollision.cpp

; 226  : 		if(fResult && (D3DXVec3Length(&vDeltaXZ) > 0.15f))

  001e8	0f 2f 05 00 00
	00 00		 comiss	 xmm0, DWORD PTR __real@3e19999a
  001ef	76 26		 jbe	 SHORT $LN13@ProcessCol

; 227  : 		{
; 228  : 			vDeltaXZ.y = m_vDeltaAccu.y = m_vDelta.y = 0;
; 229  : 			m_vDelta.x = vDeltaXZ.x;
; 230  : 			m_vDelta.z = vDeltaXZ.z;

  001f1	f3 0f 10 44 24
	0c		 movss	 xmm0, DWORD PTR _vDeltaXZ$5$[esp+72]
  001f7	c7 47 54 00 00
	00 00		 mov	 DWORD PTR [edi+84], 0
  001fe	c7 47 6c 00 00
	00 00		 mov	 DWORD PTR [edi+108], 0
  00205	c7 44 24 30 00
	00 00 00	 mov	 DWORD PTR _vDeltaXZ$6[esp+76], 0
  0020d	f3 0f 11 57 50	 movss	 DWORD PTR [edi+80], xmm2
  00212	f3 0f 11 47 58	 movss	 DWORD PTR [edi+88], xmm0
$LN13@ProcessCol:

; 236  : 		pPos->x += vDeltaXZ.x;

  00217	f3 0f 58 16	 addss	 xmm2, DWORD PTR [esi]
; File C:\IAGOS\server\v18\Source\Source\_Common\World.h

; 763  : 	if( x < WLD_EXTRA_WIDTH ) 

  0021b	f3 0f 10 05 00
	00 00 00	 movss	 xmm0, DWORD PTR __real@41200000
; File C:\IAGOS\server\v18\Source\Source\_aiinterface\ActionMoverCollision.cpp

; 233  : 		BOOL bCollision = FALSE;

  00223	c7 44 24 18 00
	00 00 00	 mov	 DWORD PTR _bCollision$1$[esp+72], 0
; File C:\IAGOS\server\v18\Source\Source\_Common\World.h

; 763  : 	if( x < WLD_EXTRA_WIDTH ) 

  0022b	0f 2f c2	 comiss	 xmm0, xmm2
; File C:\IAGOS\server\v18\Source\Source\_aiinterface\ActionMoverCollision.cpp

; 236  : 		pPos->x += vDeltaXZ.x;

  0022e	f3 0f 11 16	 movss	 DWORD PTR [esi], xmm2
; File C:\IAGOS\server\v18\Source\Source\_Common\World.h

; 763  : 	if( x < WLD_EXTRA_WIDTH ) 

  00232	76 16		 jbe	 SHORT $LN63@ProcessCol

; 764  : 		x = WLD_EXTRA_WIDTH;

  00234	8b 4c 24 10	 mov	 ecx, DWORD PTR _pWorld$1$[esp+72]
  00238	0f 28 d0	 movaps	 xmm2, xmm0
  0023b	c7 06 00 00 20
	41		 mov	 DWORD PTR [esi], 1092616192 ; 41200000H
  00241	8d 41 14	 lea	 eax, DWORD PTR [ecx+20]
  00244	89 44 24 0c	 mov	 DWORD PTR $T3[esp+72], eax
  00248	eb 30		 jmp	 SHORT $LN65@ProcessCol
$LN63@ProcessCol:

; 765  : 	else
; 766  : 	{
; 767  : 		float fMax = WORLD_WIDTH * m_iMPU - WLD_EXTRA_WIDTH;

  0024a	8b 44 24 10	 mov	 eax, DWORD PTR _pWorld$1$[esp+72]
  0024e	8d 48 14	 lea	 ecx, DWORD PTR [eax+20]
  00251	8b 40 0c	 mov	 eax, DWORD PTR [eax+12]
  00254	0f af 01	 imul	 eax, DWORD PTR [ecx]
  00257	89 4c 24 0c	 mov	 DWORD PTR $T3[esp+72], ecx
  0025b	66 0f 6e c8	 movd	 xmm1, eax
  0025f	0f 5b c9	 cvtdq2ps xmm1, xmm1
  00262	f3 0f 5c c8	 subss	 xmm1, xmm0

; 768  : 		if( x > fMax )	

  00266	0f 2f d1	 comiss	 xmm2, xmm1
  00269	76 0b		 jbe	 SHORT $LN102@ProcessCol

; 769  : 			x = fMax;

  0026b	f3 0f 11 0e	 movss	 DWORD PTR [esi], xmm1
  0026f	0f 28 d1	 movaps	 xmm2, xmm1
  00272	89 4c 24 0c	 mov	 DWORD PTR $T3[esp+72], ecx
$LN102@ProcessCol:
; File C:\IAGOS\server\v18\Source\Source\_aiinterface\ActionMoverCollision.cpp

; 238  : 		int nAttr = pWorld->GetHeightAttribute( pPos->x, pPos->z );		// 이동할 위치의 속성 읽음.

  00276	8b 4c 24 10	 mov	 ecx, DWORD PTR _pWorld$1$[esp+72]
$LN65@ProcessCol:
  0027a	f3 0f 10 46 08	 movss	 xmm0, DWORD PTR [esi+8]
  0027f	83 ec 08	 sub	 esp, 8
  00282	f3 0f 11 44 24
	04		 movss	 DWORD PTR [esp+4], xmm0
  00288	f3 0f 11 14 24	 movss	 DWORD PTR [esp], xmm2
  0028d	e8 00 00 00 00	 call	 ?GetHeightAttribute@CWorld@@QAEHMM@Z ; CWorld::GetHeightAttribute

; 239  : 		switch( nAttr )

  00292	83 e8 01	 sub	 eax, 1
  00295	74 05		 je	 SHORT $LN14@ProcessCol
  00297	83 e8 02	 sub	 eax, 2
  0029a	75 1f		 jne	 SHORT $LN16@ProcessCol
$LN14@ProcessCol:

; 240  : 		{
; 241  : 		case HATTR_NOWALK:	// 걷기 금지
; 242  : 		case HATTR_NOMOVE:	// 이동 금지.
; 243  : 			if( pMover->GetIAObjLink() == NULL )	// 배를 타고 있을때는 지상에서의 속성이 무시된다.

  0029c	83 bb c0 01 00
	00 00		 cmp	 DWORD PTR [ebx+448], 0
  002a3	75 16		 jne	 SHORT $LN16@ProcessCol

; 244  : 			{
; 245  : 				pPos->x -= vDeltaXZ.x;		// 이동하려는 곳이 이동 금지 구역이면 좌표를 다시 뺌

  002a5	f3 0f 10 06	 movss	 xmm0, DWORD PTR [esi]
  002a9	f3 0f 5c 44 24
	2c		 subss	 xmm0, DWORD PTR _vDeltaXZ$6[esp+72]

; 246  : 				bCollision = TRUE;

  002af	c7 44 24 18 01
	00 00 00	 mov	 DWORD PTR _bCollision$1$[esp+72], 1
  002b7	f3 0f 11 06	 movss	 DWORD PTR [esi], xmm0
$LN16@ProcessCol:

; 252  : 		pPos->z += vDeltaXZ.z;

  002bb	f3 0f 10 4c 24
	34		 movss	 xmm1, DWORD PTR _vDeltaXZ$6[esp+80]
  002c1	f3 0f 58 4e 08	 addss	 xmm1, DWORD PTR [esi+8]
; File C:\IAGOS\server\v18\Source\Source\_Common\World.h

; 775  : 	if( z < WLD_EXTRA_WIDTH ) 

  002c6	f3 0f 10 05 00
	00 00 00	 movss	 xmm0, DWORD PTR __real@41200000
  002ce	0f 2f c1	 comiss	 xmm0, xmm1
; File C:\IAGOS\server\v18\Source\Source\_aiinterface\ActionMoverCollision.cpp

; 252  : 		pPos->z += vDeltaXZ.z;

  002d1	f3 0f 11 4e 08	 movss	 DWORD PTR [esi+8], xmm1
; File C:\IAGOS\server\v18\Source\Source\_Common\World.h

; 775  : 	if( z < WLD_EXTRA_WIDTH ) 

  002d6	76 09		 jbe	 SHORT $LN68@ProcessCol

; 776  : 		z = WLD_EXTRA_WIDTH;

  002d8	c7 46 08 00 00
	20 41		 mov	 DWORD PTR [esi+8], 1092616192 ; 41200000H
  002df	eb 29		 jmp	 SHORT $LN70@ProcessCol
$LN68@ProcessCol:

; 777  : 	else
; 778  : 	{
; 779  : 		float fMax = WORLD_HEIGHT * m_iMPU - WLD_EXTRA_WIDTH;

  002e1	8b 44 24 10	 mov	 eax, DWORD PTR _pWorld$1$[esp+72]
  002e5	8b 4c 24 0c	 mov	 ecx, DWORD PTR $T3[esp+72]
  002e9	8b 40 10	 mov	 eax, DWORD PTR [eax+16]
  002ec	0f af 01	 imul	 eax, DWORD PTR [ecx]
  002ef	66 0f 6e d0	 movd	 xmm2, eax
  002f3	0f 5b d2	 cvtdq2ps xmm2, xmm2
  002f6	f3 0f 5c d0	 subss	 xmm2, xmm0

; 780  : 		if( z > fMax )	

  002fa	0f 28 c1	 movaps	 xmm0, xmm1
  002fd	0f 2f ca	 comiss	 xmm1, xmm2
  00300	76 08		 jbe	 SHORT $LN70@ProcessCol

; 781  : 			z = fMax;

  00302	f3 0f 11 56 08	 movss	 DWORD PTR [esi+8], xmm2
  00307	0f 28 c2	 movaps	 xmm0, xmm2
$LN70@ProcessCol:
; File C:\IAGOS\server\v18\Source\Source\_aiinterface\ActionMoverCollision.cpp

; 254  : 		nAttr = pWorld->GetHeightAttribute( pPos->x, pPos->z );		// 이동할 위치의 속성 읽음.

  0030a	8b 4c 24 10	 mov	 ecx, DWORD PTR _pWorld$1$[esp+72]
  0030e	83 ec 08	 sub	 esp, 8
  00311	f3 0f 11 44 24
	04		 movss	 DWORD PTR [esp+4], xmm0
  00317	f3 0f 10 06	 movss	 xmm0, DWORD PTR [esi]
  0031b	f3 0f 11 04 24	 movss	 DWORD PTR [esp], xmm0
  00320	e8 00 00 00 00	 call	 ?GetHeightAttribute@CWorld@@QAEHMM@Z ; CWorld::GetHeightAttribute

; 255  : 		switch( nAttr )	

  00325	83 e8 01	 sub	 eax, 1
  00328	0f 84 33 01 00
	00		 je	 $LN17@ProcessCol
  0032e	83 e8 02	 sub	 eax, 2
  00331	0f 84 2a 01 00
	00		 je	 $LN17@ProcessCol
  00337	83 e8 01	 sub	 eax, 1
  0033a	75 09		 jne	 SHORT $LN19@ProcessCol

; 262  : 				bCollision = TRUE;
; 263  : 			}
; 264  : 			break;
; 265  : 		case HATTR_DIE:		// 이영역에 들어가면 죽음. - die는 x, z가 다 더해지고 난후에 검사해야 한다.
; 266  : 			pMover->DoDie( NULL );

  0033c	50		 push	 eax
  0033d	50		 push	 eax
  0033e	8b cb		 mov	 ecx, ebx
  00340	e8 00 00 00 00	 call	 ?DoDie@CMover@@QAEHPAVCCtrl@@K@Z ; CMover::DoDie
$LN19@ProcessCol:

; 267  : 			break;
; 268  : 		}
; 269  : 		
; 270  : 	#ifdef __WORLDSERVER
; 271  : 		if( bCollision )

  00345	83 7c 24 18 00	 cmp	 DWORD PTR _bCollision$1$[esp+72], 0
  0034a	74 0f		 je	 SHORT $LN103@ProcessCol
$LN97@ProcessCol:

; 272  : 			pMover->PostAIMsg( AIMSG_COLLISION );

  0034c	6a 00		 push	 0
  0034e	6a 00		 push	 0
  00350	6a 00		 push	 0
  00352	6a 0a		 push	 10			; 0000000aH
  00354	8b cb		 mov	 ecx, ebx
  00356	e8 00 00 00 00	 call	 ?PostAIMsg@CMover@@QAEXKKKK@Z ; CMover::PostAIMsg
$LN103@ProcessCol:
; File C:\IAGOS\server\v18\Source\Source\_AIInterface\Action.h

; 304  : 	DWORD			GetDmgState() { return m_dwState & OBJSTA_DMG_ALL; }

  0035b	8b 4c 24 10	 mov	 ecx, DWORD PTR _pWorld$1$[esp+72]
$LN21@ProcessCol:
  0035f	8b 47 04	 mov	 eax, DWORD PTR [edi+4]
  00362	25 00 00 00 0f	 and	 eax, 251658240		; 0f000000H
; File C:\IAGOS\server\v18\Source\Source\_aiinterface\ActionMoverCollision.cpp

; 277  : 	if( GetDmgState() == OBJSTA_DISAPPEAR )		// 죽어 사라지는 중엔 지형충돌검사 안함.

  00367	3d 00 00 00 09	 cmp	 eax, 150994944		; 09000000H
  0036c	0f 84 5d 01 00
	00		 je	 $LN98@ProcessCol

; 278  : 		return fResult;
; 279  : 
; 280  : 	if( vDelta.y < 0.0f )		// 좌표가 내려갔음

  00372	f3 0f 10 44 24
	24		 movss	 xmm0, DWORD PTR _vDelta$[esp+76]
  00378	0f 57 c9	 xorps	 xmm1, xmm1
  0037b	0f 2f c8	 comiss	 xmm1, xmm0
  0037e	0f 86 e9 01 00
	00		 jbe	 $LN23@ProcessCol

; 281  : 	{
; 282  : 		if( m_bGround == 1 )	// 바닥에 그냥 서있는 상태(m_bGround == 1)는 추가적으로 충돌검사 할필요 없다.

  00384	83 7f 44 01	 cmp	 DWORD PTR [edi+68], 1
  00388	0f 84 41 01 00
	00		 je	 $LN98@ProcessCol
; File C:\IAGOS\server\v18\Source\Source\DX_SDK\d3dx9math.inl

; 300  :     x = fx;

  0038e	f3 0f 10 06	 movss	 xmm0, DWORD PTR [esi]
; File C:\IAGOS\server\v18\Source\Source\_aiinterface\ActionMoverCollision.cpp

; 292  : 		FLOAT h = pWorld->ProcessUnderCollision( &vSlide, &pObjColl, D3DXVECTOR3( pPos->x, pPos->y + 1.0f, pPos->z ) );

  00392	8d 44 24 38	 lea	 eax, DWORD PTR $T9[esp+72]
; File C:\IAGOS\server\v18\Source\Source\DX_SDK\d3dx9math.inl

; 300  :     x = fx;

  00396	f3 0f 11 44 24
	38		 movss	 DWORD PTR $T9[esp+72], xmm0
; File C:\IAGOS\server\v18\Source\Source\_aiinterface\ActionMoverCollision.cpp

; 292  : 		FLOAT h = pWorld->ProcessUnderCollision( &vSlide, &pObjColl, D3DXVECTOR3( pPos->x, pPos->y + 1.0f, pPos->z ) );

  0039c	f3 0f 10 46 04	 movss	 xmm0, DWORD PTR [esi+4]
  003a1	f3 0f 58 05 00
	00 00 00	 addss	 xmm0, DWORD PTR __real@3f800000
  003a9	50		 push	 eax
  003aa	8d 44 24 10	 lea	 eax, DWORD PTR _pObjColl$1[esp+76]
; File C:\IAGOS\server\v18\Source\Source\DX_SDK\d3dx9math.inl

; 300  :     x = fx;

  003ae	c7 44 24 30 00
	00 00 00	 mov	 DWORD PTR _vSlide$7[esp+76], 0
; File C:\IAGOS\server\v18\Source\Source\_aiinterface\ActionMoverCollision.cpp

; 292  : 		FLOAT h = pWorld->ProcessUnderCollision( &vSlide, &pObjColl, D3DXVECTOR3( pPos->x, pPos->y + 1.0f, pPos->z ) );

  003b6	50		 push	 eax
  003b7	8d 44 24 34	 lea	 eax, DWORD PTR _vSlide$7[esp+80]
; File C:\IAGOS\server\v18\Source\Source\DX_SDK\d3dx9math.inl

; 301  :     y = fy;

  003bb	c7 44 24 38 00
	00 00 00	 mov	 DWORD PTR _vSlide$7[esp+84], 0
  003c3	f3 0f 11 44 24
	44		 movss	 DWORD PTR $T9[esp+84], xmm0

; 302  :     z = fz;

  003c9	f3 0f 10 46 08	 movss	 xmm0, DWORD PTR [esi+8]
; File C:\IAGOS\server\v18\Source\Source\_aiinterface\ActionMoverCollision.cpp

; 292  : 		FLOAT h = pWorld->ProcessUnderCollision( &vSlide, &pObjColl, D3DXVECTOR3( pPos->x, pPos->y + 1.0f, pPos->z ) );

  003ce	50		 push	 eax
; File C:\IAGOS\server\v18\Source\Source\DX_SDK\d3dx9math.inl

; 302  :     z = fz;

  003cf	c7 44 24 40 00
	00 00 00	 mov	 DWORD PTR _vSlide$7[esp+92], 0
; File C:\IAGOS\server\v18\Source\Source\_aiinterface\ActionMoverCollision.cpp

; 291  : 		CObj *pObjColl = NULL;

  003d7	c7 44 24 18 00
	00 00 00	 mov	 DWORD PTR _pObjColl$1[esp+84], 0
; File C:\IAGOS\server\v18\Source\Source\DX_SDK\d3dx9math.inl

; 302  :     z = fz;

  003df	f3 0f 11 44 24
	4c		 movss	 DWORD PTR $T9[esp+92], xmm0
; File C:\IAGOS\server\v18\Source\Source\_aiinterface\ActionMoverCollision.cpp

; 292  : 		FLOAT h = pWorld->ProcessUnderCollision( &vSlide, &pObjColl, D3DXVECTOR3( pPos->x, pPos->y + 1.0f, pPos->z ) );

  003e5	e8 00 00 00 00	 call	 ?ProcessUnderCollision@CWorld@@QAEMPAUD3DXVECTOR3@@PAPAVCObj@@AAU2@@Z ; CWorld::ProcessUnderCollision

; 293  : 		m_fCurrentHeight = h;
; 294  : 
; 295  : 		pPos->y += vDelta.y;

  003ea	f3 0f 10 4c 24
	24		 movss	 xmm1, DWORD PTR _vDelta$[esp+76]

; 296  : 		
; 297  : 		BOOL bLanding = FALSE;

  003f0	33 d2		 xor	 edx, edx
  003f2	d9 5c 24 1c	 fstp	 DWORD PTR _h$5[esp+72]
  003f6	f3 0f 10 54 24
	1c		 movss	 xmm2, DWORD PTR _h$5[esp+72]
  003fc	0f 28 c1	 movaps	 xmm0, xmm1
  003ff	f3 0f 11 97 80
	00 00 00	 movss	 DWORD PTR [edi+128], xmm2
  00407	f3 0f 58 46 04	 addss	 xmm0, DWORD PTR [esi+4]
  0040c	f3 0f 11 46 04	 movss	 DWORD PTR [esi+4], xmm0
; File C:\IAGOS\server\v18\Source\Source\_AIInterface\Action.h

; 303  : 	DWORD			GetJumpState() { return m_dwState & OBJSTA_JUMP_ALL; }

  00411	8b 4f 04	 mov	 ecx, DWORD PTR [edi+4]
  00414	8b c1		 mov	 eax, ecx
  00416	25 00 f0 00 00	 and	 eax, 61440		; 0000f000H
; File C:\IAGOS\server\v18\Source\Source\_aiinterface\ActionMoverCollision.cpp

; 298  : 		if( GetJumpState() == OBJSTA_SJUMP3 )	// 하강동작 상태였을때

  0041b	3d 00 70 00 00	 cmp	 eax, 28672		; 00007000H
  00420	75 61		 jne	 SHORT $LN26@ProcessCol

; 299  : 		{
; 300  :  			if( pPos->y < h )	// 바닥에 닿으면

  00422	0f 2f d0	 comiss	 xmm2, xmm0
  00425	b8 01 00 00 00	 mov	 eax, 1
  0042a	0f 47 d0	 cmova	 edx, eax

; 320  : 				}
; 321  : 			} 
; 322  : 			else				// 발아래 0.25지점내에 바닥이 있다면 그냥 발바닥 붙여줌
; 323  : 				bLanding = TRUE;
; 324  : 		} 
; 325  : 		
; 326  : 		if( bLanding )			// 착지? 

  0042d	85 d2		 test	 edx, edx
  0042f	0f 84 9a 00 00
	00		 je	 $LN98@ProcessCol
$LN96@ProcessCol:
; File C:\IAGOS\server\v18\Source\Source\_Common\Mover.h

; 1015 : 	BOOL			IsNPC()				{ return !m_bPlayer; }

  00435	83 bb 30 02 00
	00 00		 cmp	 DWORD PTR [ebx+560], 0
; File C:\IAGOS\server\v18\Source\Source\_aiinterface\ActionMoverCollision.cpp

; 329  : 			BOOL bReturn	= pMover->IsNPC() && pMover->GetSpeedFactor() > 1.9F;

  0043c	0f 85 a5 00 00
	00		 jne	 $LN46@ProcessCol
  00442	f3 0f 10 83 08
	07 00 00	 movss	 xmm0, DWORD PTR [ebx+1800]
  0044a	0f 2f 05 00 00
	00 00		 comiss	 xmm0, DWORD PTR __real@3ff33333
  00451	0f 86 90 00 00
	00		 jbe	 $LN46@ProcessCol
  00457	b9 01 00 00 00	 mov	 ecx, 1
  0045c	e9 88 00 00 00	 jmp	 $LN47@ProcessCol
$LN17@ProcessCol:

; 256  : 		{
; 257  : 		case HATTR_NOWALK:	// 걷기 금지
; 258  : 		case HATTR_NOMOVE:	// 이동 금지.
; 259  : 			if( pMover->GetIAObjLink() == NULL )

  00461	83 bb c0 01 00
	00 00		 cmp	 DWORD PTR [ebx+448], 0
  00468	0f 85 d7 fe ff
	ff		 jne	 $LN19@ProcessCol

; 260  : 			{
; 261  : 				pPos->z -= vDeltaXZ.z;

  0046e	f3 0f 10 46 08	 movss	 xmm0, DWORD PTR [esi+8]
  00473	f3 0f 5c 44 24
	34		 subss	 xmm0, DWORD PTR _vDeltaXZ$6[esp+80]
  00479	f3 0f 11 46 08	 movss	 DWORD PTR [esi+8], xmm0
  0047e	e9 c9 fe ff ff	 jmp	 $LN97@ProcessCol
$LN26@ProcessCol:

; 301  : 				bLanding = TRUE;
; 302  : 		} 
; 303  : 		else	
; 304  : 		{
; 305  : 			// 그냥 좌표만 내려가고 있던상태( 비탈길을 내려간다거나.  걸어다가 빠졌다거나)
; 306  : 			if( pPos->y - 0.25f > h )		// 발바닥 아래 xx지점을 더 내려서 검사했는데도 바닥보다 높다면 

  00483	f3 0f 5c 05 00
	00 00 00	 subss	 xmm0, DWORD PTR __real@3e800000
  0048b	0f 2f c2	 comiss	 xmm0, xmm2
  0048e	76 a5		 jbe	 SHORT $LN96@ProcessCol

; 307  : 			{
; 308  : 				if( vDelta.y < -0.1f )		// 떨어지는 속도가 0.x보다 클때만 하강동작.  살짝 떨어지는건 걍 좌표만 내려감.

  00490	f3 0f 10 05 00
	00 00 00	 movss	 xmm0, DWORD PTR __real@bdcccccd
  00498	0f 2f c1	 comiss	 xmm0, xmm1
  0049b	76 32		 jbe	 SHORT $LN98@ProcessCol

; 309  : 				{
; 310  : 					#if __VER >= 11 // __SYS_COLLECTING
; 311  : 						if( (GetState() & OBJSTA_COLLECT)== 0 )

  0049d	f7 c1 00 00 00
	10		 test	 ecx, 268435456		; 10000000H
  004a3	75 23		 jne	 SHORT $LN33@ProcessCol

; 312  : 					#endif
; 313  : 
; 314  : #if __VER >= 15 // __BS_FIXED_KNOCKBACK
; 315  : 						if( pMover->IsPlayer() && !( GetDmgState() & OBJSTA_DMG_FLY_ALL ) )			//몬스터는 하강 애니 없음 

  004a5	39 93 30 02 00
	00		 cmp	 DWORD PTR [ebx+560], edx
  004ab	74 1b		 je	 SHORT $LN33@ProcessCol
  004ad	f7 c1 00 00 00
	02		 test	 ecx, 33554432		; 02000000H
  004b3	75 13		 jne	 SHORT $LN33@ProcessCol
; File C:\IAGOS\server\v18\Source\Source\_AIInterface\Action.h

; 296  : 	void			SetJumpState( DWORD dwState ) { ResetState(OBJSTA_JUMP_ALL);	m_dwState |= dwState; }

  004b5	68 00 f0 00 00	 push	 61440			; 0000f000H
  004ba	8b cf		 mov	 ecx, edi
  004bc	e8 00 00 00 00	 call	 ?ResetState@CAction@@QAEXK@Z ; CAction::ResetState
  004c1	81 4f 04 00 70
	00 00		 or	 DWORD PTR [edi+4], 28672 ; 00007000H
$LN33@ProcessCol:
; File C:\IAGOS\server\v18\Source\Source\_aiinterface\ActionMoverCollision.cpp

; 319  : 					pMover->OnActDrop();				// 이벤트 호출

  004c8	8b cb		 mov	 ecx, ebx
  004ca	e8 00 00 00 00	 call	 ?OnActDrop@CMover@@QAEXXZ ; CMover::OnActDrop
$LN98@ProcessCol:

; 381  : 		{
; 382  : 			pPos->y = h - 1.5f ;	// y좌표 보정
; 383  : 			m_vDelta.y = -0.01f;	// 올라가던거 멈춤
; 384  : 			fResult = TRUE;			// 충돌 
; 385  : 		}
; 386  : 	}
; 387  : 	
; 388  : 	return fResult;
; 389  : }

  004cf	8b 44 24 14	 mov	 eax, DWORD PTR _fResult$1$[esp+72]
  004d3	5f		 pop	 edi
  004d4	5e		 pop	 esi
  004d5	5b		 pop	 ebx
  004d6	8b 4c 24 38	 mov	 ecx, DWORD PTR __$ArrayPad$[esp+60]
  004da	33 cc		 xor	 ecx, esp
  004dc	e8 00 00 00 00	 call	 @__security_check_cookie@4
  004e1	8b e5		 mov	 esp, ebp
  004e3	5d		 pop	 ebp
  004e4	c2 04 00	 ret	 4
$LN46@ProcessCol:

; 329  : 			BOOL bReturn	= pMover->IsNPC() && pMover->GetSpeedFactor() > 1.9F;

  004e7	33 c9		 xor	 ecx, ecx
$LN47@ProcessCol:

; 330  : #endif	// __JEFF_11_6
; 331  : 			if( vSlide.y
; 332  : #ifdef __JEFF_11_6
; 333  : 				&& !bReturn

  004e9	f3 0f 10 44 24
	30		 movss	 xmm0, DWORD PTR _vSlide$7[esp+76]
  004ef	0f 2e 05 00 00
	00 00		 ucomiss xmm0, DWORD PTR __real@00000000
  004f6	9f		 lahf
  004f7	f6 c4 44	 test	 ah, 68			; 00000044H
  004fa	7b 2a		 jnp	 SHORT $LN35@ProcessCol
  004fc	85 c9		 test	 ecx, ecx
  004fe	75 26		 jne	 SHORT $LN35@ProcessCol

; 334  : #endif	// __JEFF_11_6
; 335  : 				)
; 336  : 			{
; 337  : 				*pPos = vSlide;

  00500	f3 0f 7e 44 24
	2c		 movq	 xmm0, QWORD PTR _vSlide$7[esp+72]
  00506	8b 44 24 34	 mov	 eax, DWORD PTR _vSlide$7[esp+80]

; 338  : 				m_bGround = 2;	// 땅에 닿긴 했는데 미끄러 지고 있다.
; 339  : 			#ifdef __WORLDSERVER
; 340  : 				pMover->PostAIMsg( AIMSG_COLLISION );

  0050a	51		 push	 ecx
  0050b	51		 push	 ecx
  0050c	51		 push	 ecx
  0050d	66 0f d6 06	 movq	 QWORD PTR [esi], xmm0
  00511	8b cb		 mov	 ecx, ebx
  00513	89 46 08	 mov	 DWORD PTR [esi+8], eax
  00516	6a 0a		 push	 10			; 0000000aH
  00518	c7 47 44 02 00
	00 00		 mov	 DWORD PTR [edi+68], 2
  0051f	e8 00 00 00 00	 call	 ?PostAIMsg@CMover@@QAEXKKKK@Z ; CMover::PostAIMsg

; 341  : 			#endif
; 342  : 			} 

  00524	eb 0c		 jmp	 SHORT $LN36@ProcessCol
$LN35@ProcessCol:

; 343  : 			else
; 344  : 			{
; 345  : 				pPos->y = h;

  00526	f3 0f 11 56 04	 movss	 DWORD PTR [esi+4], xmm2

; 346  : 				m_bGround = 1;	// 미끄러 지지 않고 있다.

  0052b	c7 47 44 01 00
	00 00		 mov	 DWORD PTR [edi+68], 1
$LN36@ProcessCol:

; 347  : 			}
; 348  : 
; 349  : 			if( pObjColl )

  00532	8b 44 24 0c	 mov	 eax, DWORD PTR _pObjColl$1[esp+72]
  00536	85 c0		 test	 eax, eax
  00538	74 1e		 je	 SHORT $LN37@ProcessCol

; 350  : 			{
; 351  : 				if( pObjColl->GetType()	== OT_SHIP )	// 착지한 오브젝트가 SHIP이면

  0053a	83 b8 70 01 00
	00 07		 cmp	 DWORD PTR [eax+368], 7
  00541	75 15		 jne	 SHORT $LN37@ProcessCol

; 352  : 					pMover->OnActIALanding( pObjColl, *pPos );

  00543	56		 push	 esi
  00544	50		 push	 eax
  00545	8b cb		 mov	 ecx, ebx
  00547	e8 00 00 00 00	 call	 ?OnActIALanding@CMover@@QAEXPAVCObj@@ABUD3DXVECTOR3@@@Z ; CMover::OnActIALanding

; 358  : 			
; 359  : 			m_vDelta.y = 0;

  0054c	c7 47 54 00 00
	00 00		 mov	 DWORD PTR [edi+84], 0

; 360  : 		}
; 361  : 	} 

  00553	e9 77 ff ff ff	 jmp	 $LN98@ProcessCol
$LN37@ProcessCol:

; 353  : 				else
; 354  : 					pMover->SetIAObjLink( NULL );
; 355  : 			} 
; 356  : 			else
; 357  : 				pMover->SetIAObjLink( NULL );	// 착지 했는데 오브젝트가 아니면 IA에서 내린걸로 간주.

  00558	6a 00		 push	 0
  0055a	8b cb		 mov	 ecx, ebx
  0055c	e8 00 00 00 00	 call	 ?SetIAObjLink@CCtrl@@QAEXPAVCShip@@@Z ; CCtrl::SetIAObjLink

; 358  : 			
; 359  : 			m_vDelta.y = 0;

  00561	c7 47 54 00 00
	00 00		 mov	 DWORD PTR [edi+84], 0

; 360  : 		}
; 361  : 	} 

  00568	e9 62 ff ff ff	 jmp	 $LN98@ProcessCol
$LN23@ProcessCol:

; 362  : 	else if( vDelta.y > 0 )			// 좌표가 올라갔음

  0056d	0f 2f c1	 comiss	 xmm0, xmm1
  00570	0f 86 59 ff ff
	ff		 jbe	 $LN98@ProcessCol

; 363  : 	{
; 364  : #if __VER >= 15 // __BOUND_BOX_COLLISION
; 365  : 		FLOAT h = 65535.0f;			// pPos위치의 천장 높이
; 366  : 		if( pMover->IsPlayer() )

  00576	83 bb 30 02 00
	00 00		 cmp	 DWORD PTR [ebx+560], 0
  0057d	8d 44 24 38	 lea	 eax, DWORD PTR $T10[esp+72]
  00581	f3 0f 10 46 04	 movss	 xmm0, DWORD PTR [esi+4]
  00586	f3 0f 58 05 00
	00 00 00	 addss	 xmm0, DWORD PTR __real@3fc00000
  0058e	f3 0f 10 0e	 movss	 xmm1, DWORD PTR [esi]
  00592	f3 0f 10 56 08	 movss	 xmm2, DWORD PTR [esi+8]
  00597	53		 push	 ebx
  00598	f3 0f 11 4c 24
	3c		 movss	 DWORD PTR $T10[esp+76], xmm1
  0059e	f3 0f 11 44 24
	40		 movss	 DWORD PTR $T10[esp+80], xmm0
  005a4	f3 0f 11 54 24
	44		 movss	 DWORD PTR $T10[esp+84], xmm2
  005aa	50		 push	 eax
  005ab	74 07		 je	 SHORT $LN42@ProcessCol

; 367  : 		{
; 368  : 			h = pWorld->GetOverHeightForPlayer( D3DXVECTOR3( pPos->x, pPos->y + 1.5f, pPos->z ), pMover );

  005ad	e8 00 00 00 00	 call	 ?GetOverHeightForPlayer@CWorld@@QAEMAAUD3DXVECTOR3@@PAVCObj@@@Z ; CWorld::GetOverHeightForPlayer

; 369  : 		}

  005b2	eb 05		 jmp	 SHORT $LN113@ProcessCol
$LN42@ProcessCol:

; 370  : 		else
; 371  : 		{
; 372  : 			h = pWorld->GetOverHeight( D3DXVECTOR3( pPos->x, pPos->y + 1.5f, pPos->z ), pMover );

  005b4	e8 00 00 00 00	 call	 ?GetOverHeight@CWorld@@QAEMAAUD3DXVECTOR3@@PAVCObj@@@Z ; CWorld::GetOverHeight
$LN113@ProcessCol:

; 373  : 		}
; 374  : #else // __BOUND_BOX_COLLISION
; 375  : 		// pPos위치의 천장 높이
; 376  : 		FLOAT h	= pWorld->GetOverHeight( D3DXVECTOR3( pPos->x, pPos->y + 1.5f, pPos->z ) );
; 377  : #endif // __BOUND_BOX_COLLISION
; 378  : 			
; 379  : 		pPos->y += vDelta.y;		// 운동량을 더해줌

  005b9	f3 0f 10 44 24
	24		 movss	 xmm0, DWORD PTR _vDelta$[esp+76]
  005bf	f3 0f 58 46 04	 addss	 xmm0, DWORD PTR [esi+4]

; 380  : 		if( pPos->y + 1.5f > h )	// 머리 부분이 천장에 닿았으면 

  005c4	f3 0f 10 15 00
	00 00 00	 movss	 xmm2, DWORD PTR __real@3fc00000
  005cc	d9 5c 24 0c	 fstp	 DWORD PTR _h$2[esp+72]
  005d0	f3 0f 10 4c 24
	0c		 movss	 xmm1, DWORD PTR _h$2[esp+72]
  005d6	f3 0f 11 46 04	 movss	 DWORD PTR [esi+4], xmm0
  005db	f3 0f 58 c2	 addss	 xmm0, xmm2
  005df	0f 2f c1	 comiss	 xmm0, xmm1
  005e2	0f 86 e7 fe ff
	ff		 jbe	 $LN98@ProcessCol

; 381  : 		{
; 382  : 			pPos->y = h - 1.5f ;	// y좌표 보정
; 383  : 			m_vDelta.y = -0.01f;	// 올라가던거 멈춤
; 384  : 			fResult = TRUE;			// 충돌 
; 385  : 		}
; 386  : 	}
; 387  : 	
; 388  : 	return fResult;
; 389  : }

  005e8	8b 4c 24 44	 mov	 ecx, DWORD PTR __$ArrayPad$[esp+72]
  005ec	f3 0f 5c ca	 subss	 xmm1, xmm2
  005f0	b8 01 00 00 00	 mov	 eax, 1
  005f5	f3 0f 11 4e 04	 movss	 DWORD PTR [esi+4], xmm1
  005fa	c7 47 54 0a d7
	23 bc		 mov	 DWORD PTR [edi+84], -1138501878 ; bc23d70aH
  00601	5f		 pop	 edi
  00602	5e		 pop	 esi
  00603	5b		 pop	 ebx
  00604	33 cc		 xor	 ecx, esp
  00606	e8 00 00 00 00	 call	 @__security_check_cookie@4
  0060b	8b e5		 mov	 esp, ebp
  0060d	5d		 pop	 ebp
  0060e	c2 04 00	 ret	 4
?ProcessCollisionGround@CActionMover@@QAEHPAUD3DXVECTOR3@@@Z ENDP ; CActionMover::ProcessCollisionGround
_TEXT	ENDS
; Function compile flags: /Ogtp
; File C:\IAGOS\server\v18\Source\Source\_aiinterface\ActionMoverCollision.cpp
; File C:\IAGOS\server\v18\Source\Source\DX_SDK\d3dx9math.inl
; File C:\IAGOS\server\v18\Source\Source\_aiinterface\ActionMoverCollision.cpp
; File C:\IAGOS\server\v18\Source\Source\DX_SDK\d3dx9math.inl
; File C:\IAGOS\server\v18\Source\Source\_aiinterface\ActionMoverCollision.cpp
; File C:\IAGOS\server\v18\Source\Source\DX_SDK\d3dx9math.inl
; File C:\Program Files (x86)\Windows Kits\10\Include\10.0.26100.0\ucrt\corecrt_math.h
; File C:\IAGOS\server\v18\Source\Source\_aiinterface\ActionMoverCollision.cpp
; File C:\IAGOS\server\v18\Source\Source\DX_SDK\d3dx9math.inl
; File C:\IAGOS\server\v18\Source\Source\_aiinterface\ActionMoverCollision.cpp
; File C:\IAGOS\server\v18\Source\Source\DX_SDK\d3dx9math.inl
; File C:\IAGOS\server\v18\Source\Source\_aiinterface\ActionMoverCollision.cpp
; File C:\IAGOS\server\v18\Source\Source\DX_SDK\d3dx9math.inl
; File C:\IAGOS\server\v18\Source\Source\_aiinterface\ActionMoverCollision.cpp
; File C:\IAGOS\server\v18\Source\Source\_Common\World.h
; File C:\IAGOS\server\v18\Source\Source\_aiinterface\ActionMoverCollision.cpp
; File C:\IAGOS\server\v18\Source\Source\_Common\World.h
; File C:\IAGOS\server\v18\Source\Source\_aiinterface\ActionMoverCollision.cpp
; File C:\IAGOS\server\v18\Source\Source\_Common\World.h
; File C:\IAGOS\server\v18\Source\Source\_aiinterface\ActionMoverCollision.cpp
; File C:\IAGOS\server\v18\Source\Source\_Common\World.h
; File C:\IAGOS\server\v18\Source\Source\_aiinterface\ActionMoverCollision.cpp
; File C:\IAGOS\server\v18\Source\Source\_Common\World.h
; File C:\IAGOS\server\v18\Source\Source\_aiinterface\ActionMoverCollision.cpp
; File C:\IAGOS\server\v18\Source\Source\DX_SDK\d3dx9math.inl
; File C:\IAGOS\server\v18\Source\Source\_aiinterface\ActionMoverCollision.cpp
; File C:\IAGOS\server\v18\Source\Source\DX_SDK\d3dx9math.inl
; File C:\IAGOS\server\v18\Source\Source\_aiinterface\ActionMoverCollision.cpp
; File C:\IAGOS\server\v18\Source\Source\DX_SDK\d3dx9math.inl
; File C:\IAGOS\server\v18\Source\Source\_aiinterface\ActionMoverCollision.cpp
; File C:\IAGOS\server\v18\Source\Source\_Common\World.h
; File C:\IAGOS\server\v18\Source\Source\_aiinterface\ActionMoverCollision.cpp
;	COMDAT ?ProcessCollisionFly@CActionMover@@QAEHPAUD3DXVECTOR3@@@Z
_TEXT	SEGMENT
_fResult$1$ = -52					; size = 4
$T1 = -48						; size = 4
_fR$1$ = -48						; size = 4
_pMover$1$ = -44					; size = 4
_vDir$2 = -40						; size = 12
$T3 = -40						; size = 12
_vDelta$ = -28						; size = 12
_vStart$ = -16						; size = 12
__$ArrayPad$ = -4					; size = 4
_pPos$ = 8						; size = 4
?ProcessCollisionFly@CActionMover@@QAEHPAUD3DXVECTOR3@@@Z PROC ; CActionMover::ProcessCollisionFly, COMDAT
; _this$ = ecx

; 22   : {

  00000	55		 push	 ebp
  00001	8b ec		 mov	 ebp, esp
  00003	83 e4 f8	 and	 esp, -8			; fffffff8H
  00006	83 ec 34	 sub	 esp, 52			; 00000034H
  00009	a1 00 00 00 00	 mov	 eax, DWORD PTR ___security_cookie
  0000e	33 c4		 xor	 eax, esp
  00010	89 44 24 30	 mov	 DWORD PTR __$ArrayPad$[esp+52], eax
  00014	53		 push	 ebx
  00015	8b d9		 mov	 ebx, ecx
  00017	0f 57 c9	 xorps	 xmm1, xmm1
  0001a	56		 push	 esi
  0001b	8b 75 08	 mov	 esi, DWORD PTR _pPos$[ebp]
  0001e	57		 push	 edi

; 23   : 	if( m_fAccPower == 0.0f && m_vDeltaAccu == D3DXVECTOR3( 0.0f, 0.0f, 0.0f ) )	// 정지상태?

  0001f	f3 0f 10 43 4c	 movss	 xmm0, DWORD PTR [ebx+76]
  00024	8d 4b 68	 lea	 ecx, DWORD PTR [ebx+104]
  00027	0f 2e c1	 ucomiss xmm0, xmm1
  0002a	89 4c 24 10	 mov	 DWORD PTR $T1[esp+64], ecx
  0002e	9f		 lahf
  0002f	f6 c4 44	 test	 ah, 68			; 00000044H
  00032	7a 3f		 jp	 SHORT $LN57@ProcessCol
; File C:\IAGOS\server\v18\Source\Source\DX_SDK\d3dx9math.inl

; 410  :     return x == v.x && y == v.y && z == v.z;

  00034	f3 0f 10 01	 movss	 xmm0, DWORD PTR [ecx]
  00038	0f 2e c1	 ucomiss xmm0, xmm1
  0003b	9f		 lahf
  0003c	f6 c4 44	 test	 ah, 68			; 00000044H
  0003f	7a 36		 jp	 SHORT $LN6@ProcessCol
  00041	f3 0f 10 43 6c	 movss	 xmm0, DWORD PTR [ebx+108]
  00046	0f 2e c1	 ucomiss xmm0, xmm1
  00049	9f		 lahf
  0004a	f6 c4 44	 test	 ah, 68			; 00000044H
  0004d	7a 28		 jp	 SHORT $LN6@ProcessCol
  0004f	f3 0f 10 43 70	 movss	 xmm0, DWORD PTR [ebx+112]
  00054	0f 2e c1	 ucomiss xmm0, xmm1
  00057	9f		 lahf
  00058	f6 c4 44	 test	 ah, 68			; 00000044H
  0005b	7a 1a		 jp	 SHORT $LN6@ProcessCol
; File C:\IAGOS\server\v18\Source\Source\_aiinterface\ActionMoverCollision.cpp

; 24   : 		return FALSE;

  0005d	33 c0		 xor	 eax, eax

; 113  : 			{
; 114  : 				pPos->y = m_fCurrentHeight;
; 115  : 				fResult = TRUE;
; 116  : 			}
; 117  : 		}
; 118  : 	}
; 119  : 
; 120  : 	return fResult;
; 121  : }

  0005f	5f		 pop	 edi
  00060	5e		 pop	 esi
  00061	5b		 pop	 ebx
  00062	8b 4c 24 30	 mov	 ecx, DWORD PTR __$ArrayPad$[esp+52]
  00066	33 cc		 xor	 ecx, esp
  00068	e8 00 00 00 00	 call	 @__security_check_cookie@4
  0006d	8b e5		 mov	 esp, ebp
  0006f	5d		 pop	 ebp
  00070	c2 04 00	 ret	 4
$LN57@ProcessCol:
  00073	89 4c 24 10	 mov	 DWORD PTR $T1[esp+64], ecx
$LN6@ProcessCol:

; 25   : 
; 26   : 	CMover*		pMover = m_pMover;

  00077	8b 43 0c	 mov	 eax, DWORD PTR [ebx+12]

; 27   : 	D3DXVECTOR3	vStart = *pPos;

  0007a	f3 0f 7e 06	 movq	 xmm0, QWORD PTR [esi]
  0007e	89 44 24 14	 mov	 DWORD PTR _pMover$1$[esp+64], eax
  00082	8b 46 08	 mov	 eax, DWORD PTR [esi+8]
  00085	66 0f d6 44 24
	30		 movq	 QWORD PTR _vStart$[esp+64], xmm0

; 28   : 	D3DXVECTOR3 vDelta = m_vDeltaAccu;

  0008b	f3 0f 7e 01	 movq	 xmm0, QWORD PTR [ecx]
  0008f	89 44 24 38	 mov	 DWORD PTR _vStart$[esp+72], eax
  00093	8b 41 08	 mov	 eax, DWORD PTR [ecx+8]

; 29   : 	CWorld*		pWorld = GetWorld();

  00096	8b cb		 mov	 ecx, ebx
  00098	66 0f d6 44 24
	24		 movq	 QWORD PTR _vDelta$[esp+64], xmm0
  0009e	89 44 24 2c	 mov	 DWORD PTR _vDelta$[esp+72], eax
  000a2	e8 00 00 00 00	 call	 ?GetWorld@CAction@@QAEPAVCWorld@@XZ ; CAction::GetWorld

; 30   : 
; 31   : 	pMover->SetIAObjLink( NULL );

  000a7	8b 4c 24 14	 mov	 ecx, DWORD PTR _pMover$1$[esp+64]
  000ab	8b f8		 mov	 edi, eax
  000ad	6a 00		 push	 0
  000af	e8 00 00 00 00	 call	 ?SetIAObjLink@CCtrl@@QAEXPAVCShip@@@Z ; CCtrl::SetIAObjLink

; 32   : 	vStart.y += 0.5f;				// vStart 지면의 좌표 + 0.5 = 빗자루 높이

  000b4	f3 0f 10 44 24
	34		 movss	 xmm0, DWORD PTR _vStart$[esp+68]
  000ba	f3 0f 58 05 00
	00 00 00	 addss	 xmm0, DWORD PTR __real@3f000000

; 33   : 	
; 34   : 	BOOL fResult = FALSE;
; 35   : 	if( CanCollisionFly( pMover) )

  000c2	ff 74 24 14	 push	 DWORD PTR _pMover$1$[esp+64]
  000c6	c7 44 24 10 00
	00 00 00	 mov	 DWORD PTR _fResult$1$[esp+68], 0
  000ce	f3 0f 11 44 24
	38		 movss	 DWORD PTR _vStart$[esp+72], xmm0
  000d4	e8 00 00 00 00	 call	 ?CanCollisionFly@@YAHPAVCMover@@@Z ; CanCollisionFly
  000d9	83 c4 04	 add	 esp, 4
  000dc	85 c0		 test	 eax, eax
  000de	0f 84 64 01 00
	00		 je	 $LN60@ProcessCol

; 37   : 		D3DXVECTOR3 vDir = m_vDeltaAccu;

  000e4	8b 44 24 10	 mov	 eax, DWORD PTR $T1[esp+64]
  000e8	f3 0f 7e 00	 movq	 xmm0, QWORD PTR [eax]
  000ec	8b 40 08	 mov	 eax, DWORD PTR [eax+8]
  000ef	66 0f d6 44 24
	18		 movq	 QWORD PTR _vDir$2[esp+64], xmm0
; File C:\IAGOS\server\v18\Source\Source\DX_SDK\d3dx9math.inl

; 342  :     x *= f;

  000f5	f3 0f 10 05 00
	00 00 00	 movss	 xmm0, DWORD PTR __real@3e800000
  000fd	f3 0f 10 54 24
	18		 movss	 xmm2, DWORD PTR _vDir$2[esp+64]

; 343  :     y *= f;

  00103	f3 0f 10 5c 24
	1c		 movss	 xmm3, DWORD PTR _vDir$2[esp+68]
  00109	f3 0f 59 d8	 mulss	 xmm3, xmm0
; File C:\IAGOS\server\v18\Source\Source\_aiinterface\ActionMoverCollision.cpp

; 37   : 		D3DXVECTOR3 vDir = m_vDeltaAccu;

  0010d	89 44 24 20	 mov	 DWORD PTR _vDir$2[esp+72], eax
; File C:\IAGOS\server\v18\Source\Source\DX_SDK\d3dx9math.inl

; 344  :     z *= f;

  00111	f3 0f 10 64 24
	20		 movss	 xmm4, DWORD PTR _vDir$2[esp+72]
  00117	f3 0f 59 d0	 mulss	 xmm2, xmm0
  0011b	f3 0f 59 e0	 mulss	 xmm4, xmm0
  0011f	0f 28 cb	 movaps	 xmm1, xmm3

; 1684 :     return sqrtf(pV->x * pV->x + pV->y * pV->y + pV->z * pV->z);

  00122	0f 28 c2	 movaps	 xmm0, xmm2

; 344  :     z *= f;

  00125	f3 0f 59 cb	 mulss	 xmm1, xmm3

; 1684 :     return sqrtf(pV->x * pV->x + pV->y * pV->y + pV->z * pV->z);

  00129	f3 0f 59 c2	 mulss	 xmm0, xmm2

; 342  :     x *= f;

  0012d	f3 0f 11 54 24
	18		 movss	 DWORD PTR _vDir$2[esp+64], xmm2

; 343  :     y *= f;

  00133	f3 0f 11 5c 24
	1c		 movss	 DWORD PTR _vDir$2[esp+68], xmm3

; 1684 :     return sqrtf(pV->x * pV->x + pV->y * pV->y + pV->z * pV->z);

  00139	f3 0f 58 c8	 addss	 xmm1, xmm0

; 344  :     z *= f;

  0013d	f3 0f 11 64 24
	20		 movss	 DWORD PTR _vDir$2[esp+72], xmm4

; 1684 :     return sqrtf(pV->x * pV->x + pV->y * pV->y + pV->z * pV->z);

  00143	0f 28 c4	 movaps	 xmm0, xmm4
  00146	f3 0f 59 c4	 mulss	 xmm0, xmm4
  0014a	f3 0f 58 c8	 addss	 xmm1, xmm0
; File C:\Program Files (x86)\Windows Kits\10\Include\10.0.26100.0\ucrt\corecrt_math.h

; 799  :             return (float)sqrt(_X);

  0014e	0f 5a c1	 cvtps2pd xmm0, xmm1
  00151	0f 57 c9	 xorps	 xmm1, xmm1
  00154	66 0f 2e c8	 ucomisd xmm1, xmm0
  00158	77 06		 ja	 SHORT $LN64@ProcessCol
  0015a	f2 0f 51 c0	 sqrtsd	 xmm0, xmm0
  0015e	eb 05		 jmp	 SHORT $LN65@ProcessCol
$LN64@ProcessCol:
  00160	e8 00 00 00 00	 call	 __libm_sse2_sqrt_precise
$LN65@ProcessCol:
  00165	0f 57 c9	 xorps	 xmm1, xmm1
  00168	f2 0f 5a c8	 cvtsd2ss xmm1, xmm0
; File C:\IAGOS\server\v18\Source\Source\_aiinterface\ActionMoverCollision.cpp

; 42   : 		if( fLen > 0.001f )

  0016c	0f 2f 0d 00 00
	00 00		 comiss	 xmm1, DWORD PTR __real@3a83126f
  00173	0f 86 cf 00 00
	00		 jbe	 $LN60@ProcessCol

; 43   : 		{
; 44   : 			FLOAT fR = 1.0f;

  00179	f3 0f 10 05 00
	00 00 00	 movss	 xmm0, DWORD PTR __real@3f800000
  00181	f3 0f 11 44 24
	10		 movss	 DWORD PTR _fR$1$[esp+64], xmm0

; 45   : 			if( fLen < 0.65f )							// 이 길이가 0.65f 보다도 짧으면

  00187	f3 0f 10 05 00
	00 00 00	 movss	 xmm0, DWORD PTR __real@3f266666
  0018f	0f 2f c1	 comiss	 xmm0, xmm1
  00192	76 3a		 jbe	 SHORT $LN9@ProcessCol

; 46   : 			{
; 47   : 				fR = 0.65f / fLen;						// 몇배나 작은지 계산해서

  00194	f3 0f 5e c1	 divss	 xmm0, xmm1
  00198	f3 0f 10 4c 24
	18		 movss	 xmm1, DWORD PTR _vDir$2[esp+64]
  0019e	f3 0f 59 c8	 mulss	 xmm1, xmm0
  001a2	f3 0f 11 44 24
	10		 movss	 DWORD PTR _fR$1$[esp+64], xmm0
; File C:\IAGOS\server\v18\Source\Source\DX_SDK\d3dx9math.inl

; 342  :     x *= f;

  001a8	f3 0f 11 4c 24
	18		 movss	 DWORD PTR _vDir$2[esp+64], xmm1
  001ae	f3 0f 10 4c 24
	1c		 movss	 xmm1, DWORD PTR _vDir$2[esp+68]
  001b4	f3 0f 59 c8	 mulss	 xmm1, xmm0

; 343  :     y *= f;

  001b8	f3 0f 11 4c 24
	1c		 movss	 DWORD PTR _vDir$2[esp+68], xmm1
  001be	f3 0f 10 4c 24
	20		 movss	 xmm1, DWORD PTR _vDir$2[esp+72]
  001c4	f3 0f 59 c8	 mulss	 xmm1, xmm0

; 344  :     z *= f;

  001c8	f3 0f 11 4c 24
	20		 movss	 DWORD PTR _vDir$2[esp+72], xmm1
$LN9@ProcessCol:
; File C:\IAGOS\server\v18\Source\Source\_aiinterface\ActionMoverCollision.cpp

; 50   : 			fResult	= pWorld->ProcessCollisionReflection( &vDelta, vStart, vDir, 0 );

  001ce	6a 00		 push	 0
  001d0	8d 44 24 1c	 lea	 eax, DWORD PTR _vDir$2[esp+68]
  001d4	8b cf		 mov	 ecx, edi
  001d6	50		 push	 eax
  001d7	8d 44 24 38	 lea	 eax, DWORD PTR _vStart$[esp+72]
  001db	50		 push	 eax
  001dc	8d 44 24 30	 lea	 eax, DWORD PTR _vDelta$[esp+76]
  001e0	50		 push	 eax
  001e1	e8 00 00 00 00	 call	 ?ProcessCollisionReflection@CWorld@@QAEHPAUD3DXVECTOR3@@ABU2@1H@Z ; CWorld::ProcessCollisionReflection
  001e6	89 44 24 0c	 mov	 DWORD PTR _fResult$1$[esp+64], eax

; 51   : 			if( fResult )	

  001ea	85 c0		 test	 eax, eax
  001ec	74 5a		 je	 SHORT $LN60@ProcessCol
; File C:\IAGOS\server\v18\Source\Source\DX_SDK\d3dx9math.inl

; 351  :     FLOAT fInv = 1.0f / f;

  001ee	f3 0f 10 0d 00
	00 00 00	 movss	 xmm1, DWORD PTR __real@3f800000
  001f6	f3 0f 5e 4c 24
	10		 divss	 xmm1, DWORD PTR _fR$1$[esp+64]

; 352  :     x *= fInv;
; 353  :     y *= fInv;
; 354  :     z *= fInv;

  001fc	f3 0f 10 05 00
	00 00 00	 movss	 xmm0, DWORD PTR __real@3f333333
  00204	0f 28 d1	 movaps	 xmm2, xmm1
  00207	0f 28 d9	 movaps	 xmm3, xmm1
  0020a	f3 0f 59 54 24
	24		 mulss	 xmm2, DWORD PTR _vDelta$[esp+64]
  00210	f3 0f 59 5c 24
	28		 mulss	 xmm3, DWORD PTR _vDelta$[esp+68]
  00216	f3 0f 59 4c 24
	2c		 mulss	 xmm1, DWORD PTR _vDelta$[esp+72]
  0021c	f3 0f 59 d0	 mulss	 xmm2, xmm0

; 342  :     x *= f;

  00220	f3 0f 59 d8	 mulss	 xmm3, xmm0

; 343  :     y *= f;

  00224	f3 0f 59 c8	 mulss	 xmm1, xmm0
; File C:\IAGOS\server\v18\Source\Source\_aiinterface\ActionMoverCollision.cpp

; 55   : 				m_vDelta = vDelta;

  00228	0f 28 c2	 movaps	 xmm0, xmm2
  0022b	0f 14 c3	 unpcklps xmm0, xmm3
  0022e	66 0f d6 43 50	 movq	 QWORD PTR [ebx+80], xmm0
; File C:\IAGOS\server\v18\Source\Source\DX_SDK\d3dx9math.inl

; 344  :     z *= f;

  00233	f3 0f 11 4c 24
	2c		 movss	 DWORD PTR _vDelta$[esp+72], xmm1
; File C:\IAGOS\server\v18\Source\Source\_aiinterface\ActionMoverCollision.cpp

; 55   : 				m_vDelta = vDelta;

  00239	8b 44 24 2c	 mov	 eax, DWORD PTR _vDelta$[esp+72]
  0023d	66 0f d6 44 24
	24		 movq	 QWORD PTR _vDelta$[esp+64], xmm0
  00243	89 43 58	 mov	 DWORD PTR [ebx+88], eax
  00246	eb 0c		 jmp	 SHORT $LN10@ProcessCol
$LN60@ProcessCol:

; 51   : 			if( fResult )	

  00248	f3 0f 10 5c 24
	28		 movss	 xmm3, DWORD PTR _vDelta$[esp+68]
  0024e	f3 0f 10 54 24
	24		 movss	 xmm2, DWORD PTR _vDelta$[esp+64]
$LN10@ProcessCol:

; 62   : 
; 63   : 	// 2. x축 더함
; 64   : 	pPos->x += vDelta.x;

  00254	f3 0f 58 16	 addss	 xmm2, DWORD PTR [esi]
  00258	f3 0f 58 5e 04	 addss	 xmm3, DWORD PTR [esi+4]
; File C:\IAGOS\server\v18\Source\Source\_Common\World.h

; 763  : 	if( x < WLD_EXTRA_WIDTH ) 

  0025d	f3 0f 10 05 00
	00 00 00	 movss	 xmm0, DWORD PTR __real@41200000
  00265	0f 2f c2	 comiss	 xmm0, xmm2
; File C:\IAGOS\server\v18\Source\Source\_aiinterface\ActionMoverCollision.cpp

; 61   : 	pPos->y += vDelta.y;

  00268	f3 0f 11 5e 04	 movss	 DWORD PTR [esi+4], xmm3

; 62   : 
; 63   : 	// 2. x축 더함
; 64   : 	pPos->x += vDelta.x;

  0026d	f3 0f 11 16	 movss	 DWORD PTR [esi], xmm2
; File C:\IAGOS\server\v18\Source\Source\_Common\World.h

; 763  : 	if( x < WLD_EXTRA_WIDTH ) 

  00271	76 0b		 jbe	 SHORT $LN43@ProcessCol

; 764  : 		x = WLD_EXTRA_WIDTH;

  00273	c7 06 00 00 20
	41		 mov	 DWORD PTR [esi], 1092616192 ; 41200000H
  00279	0f 28 d0	 movaps	 xmm2, xmm0
  0027c	eb 1e		 jmp	 SHORT $LN45@ProcessCol
$LN43@ProcessCol:

; 765  : 	else
; 766  : 	{
; 767  : 		float fMax = WORLD_WIDTH * m_iMPU - WLD_EXTRA_WIDTH;

  0027e	8b 47 14	 mov	 eax, DWORD PTR [edi+20]
  00281	0f af 47 0c	 imul	 eax, DWORD PTR [edi+12]
  00285	66 0f 6e c8	 movd	 xmm1, eax
  00289	0f 5b c9	 cvtdq2ps xmm1, xmm1
  0028c	f3 0f 5c c8	 subss	 xmm1, xmm0

; 768  : 		if( x > fMax )	

  00290	0f 2f d1	 comiss	 xmm2, xmm1
  00293	76 07		 jbe	 SHORT $LN45@ProcessCol

; 769  : 			x = fMax;

  00295	f3 0f 11 0e	 movss	 DWORD PTR [esi], xmm1
  00299	0f 28 d1	 movaps	 xmm2, xmm1
$LN45@ProcessCol:
; File C:\IAGOS\server\v18\Source\Source\_aiinterface\ActionMoverCollision.cpp

; 66   : 	int nAttr = pWorld->GetHeightAttribute( pPos->x, pPos->z );		// 이동할 위치의 속성 읽음.

  0029c	f3 0f 10 46 08	 movss	 xmm0, DWORD PTR [esi+8]
  002a1	83 ec 08	 sub	 esp, 8
  002a4	8b cf		 mov	 ecx, edi
  002a6	f3 0f 11 44 24
	04		 movss	 DWORD PTR [esp+4], xmm0
  002ac	f3 0f 11 14 24	 movss	 DWORD PTR [esp], xmm2
  002b1	e8 00 00 00 00	 call	 ?GetHeightAttribute@CWorld@@QAEHMM@Z ; CWorld::GetHeightAttribute

; 67   : 	switch( nAttr )

  002b6	f3 0f 10 5c 24
	24		 movss	 xmm3, DWORD PTR _vDelta$[esp+64]
  002bc	83 f8 03	 cmp	 eax, 3
  002bf	75 0c		 jne	 SHORT $LN58@ProcessCol

; 68   : 	{
; 69   : 	case HATTR_NOMOVE:	// 이동 금지.
; 70   : 		pPos->x -= vDelta.x;		// 이동하려는 곳이 이동 금지 구역이면 좌표를 다시 뺌

  002c1	f3 0f 10 06	 movss	 xmm0, DWORD PTR [esi]
  002c5	f3 0f 5c c3	 subss	 xmm0, xmm3
  002c9	f3 0f 11 06	 movss	 DWORD PTR [esi], xmm0
$LN58@ProcessCol:

; 75   : 	pPos->z += vDelta.z;

  002cd	f3 0f 10 64 24
	2c		 movss	 xmm4, DWORD PTR _vDelta$[esp+72]
; File C:\IAGOS\server\v18\Source\Source\_Common\World.h

; 775  : 	if( z < WLD_EXTRA_WIDTH ) 

  002d3	f3 0f 10 05 00
	00 00 00	 movss	 xmm0, DWORD PTR __real@41200000
; File C:\IAGOS\server\v18\Source\Source\_aiinterface\ActionMoverCollision.cpp

; 75   : 	pPos->z += vDelta.z;

  002db	0f 28 cc	 movaps	 xmm1, xmm4
  002de	f3 0f 58 4e 08	 addss	 xmm1, DWORD PTR [esi+8]
; File C:\IAGOS\server\v18\Source\Source\_Common\World.h

; 775  : 	if( z < WLD_EXTRA_WIDTH ) 

  002e3	0f 2f c1	 comiss	 xmm0, xmm1
; File C:\IAGOS\server\v18\Source\Source\_aiinterface\ActionMoverCollision.cpp

; 75   : 	pPos->z += vDelta.z;

  002e6	f3 0f 11 4e 08	 movss	 DWORD PTR [esi+8], xmm1
; File C:\IAGOS\server\v18\Source\Source\_Common\World.h

; 775  : 	if( z < WLD_EXTRA_WIDTH ) 

  002eb	76 09		 jbe	 SHORT $LN48@ProcessCol

; 776  : 		z = WLD_EXTRA_WIDTH;

  002ed	c7 46 08 00 00
	20 41		 mov	 DWORD PTR [esi+8], 1092616192 ; 41200000H
  002f4	eb 22		 jmp	 SHORT $LN50@ProcessCol
$LN48@ProcessCol:

; 777  : 	else
; 778  : 	{
; 779  : 		float fMax = WORLD_HEIGHT * m_iMPU - WLD_EXTRA_WIDTH;

  002f6	8b 47 14	 mov	 eax, DWORD PTR [edi+20]
  002f9	0f af 47 10	 imul	 eax, DWORD PTR [edi+16]
  002fd	66 0f 6e d0	 movd	 xmm2, eax
  00301	0f 5b d2	 cvtdq2ps xmm2, xmm2
  00304	f3 0f 5c d0	 subss	 xmm2, xmm0

; 780  : 		if( z > fMax )	

  00308	0f 28 c1	 movaps	 xmm0, xmm1
  0030b	0f 2f ca	 comiss	 xmm1, xmm2
  0030e	76 08		 jbe	 SHORT $LN50@ProcessCol

; 781  : 			z = fMax;

  00310	f3 0f 11 56 08	 movss	 DWORD PTR [esi+8], xmm2
  00315	0f 28 c2	 movaps	 xmm0, xmm2
$LN50@ProcessCol:
; File C:\IAGOS\server\v18\Source\Source\_aiinterface\ActionMoverCollision.cpp

; 77   : 	if( pWorld->m_bFly )

  00318	83 bf 04 93 08
	00 00		 cmp	 DWORD PTR [edi+561924], 0
  0031f	74 53		 je	 SHORT $LN16@ProcessCol

; 78   : 		nAttr = pWorld->GetHeightAttribute( pPos->x, pPos->z );		

  00321	83 ec 08	 sub	 esp, 8
  00324	8b cf		 mov	 ecx, edi
  00326	f3 0f 11 44 24
	04		 movss	 DWORD PTR [esp+4], xmm0
  0032c	f3 0f 10 06	 movss	 xmm0, DWORD PTR [esi]
  00330	f3 0f 11 04 24	 movss	 DWORD PTR [esp], xmm0
  00335	e8 00 00 00 00	 call	 ?GetHeightAttribute@CWorld@@QAEHMM@Z ; CWorld::GetHeightAttribute

; 79   : 	else
; 80   : 		nAttr = HATTR_NOFLY;
; 81   : 
; 82   : 	switch( nAttr )

  0033a	83 e8 02	 sub	 eax, 2
  0033d	74 29		 je	 SHORT $LN61@ProcessCol
  0033f	83 e8 01	 sub	 eax, 1
  00342	74 12		 je	 SHORT $LN14@ProcessCol
  00344	83 e8 01	 sub	 eax, 1
  00347	75 5e		 jne	 SHORT $LN4@ProcessCol

; 87   : 	case HATTR_DIE:		// 이영역에 들어가면 죽음.
; 88   : 		pMover->DoDie( NULL );

  00349	8b 4c 24 14	 mov	 ecx, DWORD PTR _pMover$1$[esp+64]
  0034d	50		 push	 eax
  0034e	50		 push	 eax
  0034f	e8 00 00 00 00	 call	 ?DoDie@CMover@@QAEHPAVCCtrl@@K@Z ; CMover::DoDie

; 89   : 		break;

  00354	eb 51		 jmp	 SHORT $LN4@ProcessCol
$LN14@ProcessCol:

; 83   : 	{
; 84   : 	case HATTR_NOMOVE:	// 이동 금지.
; 85   : 		pPos->z -= vDelta.z;		// 이동하려는 곳이 이동 금지 구역이면 좌표를 다시 뺌

  00356	f3 0f 10 46 08	 movss	 xmm0, DWORD PTR [esi+8]
  0035b	f3 0f 5c 44 24
	2c		 subss	 xmm0, DWORD PTR _vDelta$[esp+72]
  00361	f3 0f 11 46 08	 movss	 DWORD PTR [esi+8], xmm0

; 86   : 		break;

  00366	eb 3f		 jmp	 SHORT $LN4@ProcessCol
$LN61@ProcessCol:

; 79   : 	else
; 80   : 		nAttr = HATTR_NOFLY;
; 81   : 
; 82   : 	switch( nAttr )

  00368	f3 0f 10 64 24
	2c		 movss	 xmm4, DWORD PTR _vDelta$[esp+72]
  0036e	f3 0f 10 5c 24
	24		 movss	 xmm3, DWORD PTR _vDelta$[esp+64]
$LN16@ProcessCol:

; 90   : 	case HATTR_NOFLY:	// 비행 금지 - 자동으로 비행모드 풀림.
; 91   : 		pPos->x -= vDelta.x;

  00374	f3 0f 10 06	 movss	 xmm0, DWORD PTR [esi]

; 92   : 		pPos->z -= vDelta.z;		// 이동하려는 곳이 이동 금지 구역이면 좌표를 다시 뺌
; 93   : 		pPos->y -= vDelta.y;
; 94   : 		pMover->UnequipRide();

  00378	8b 4c 24 14	 mov	 ecx, DWORD PTR _pMover$1$[esp+64]
  0037c	f3 0f 5c c3	 subss	 xmm0, xmm3
  00380	f3 0f 11 06	 movss	 DWORD PTR [esi], xmm0
  00384	f3 0f 10 46 08	 movss	 xmm0, DWORD PTR [esi+8]
  00389	f3 0f 5c c4	 subss	 xmm0, xmm4
  0038d	f3 0f 11 46 08	 movss	 DWORD PTR [esi+8], xmm0
  00392	f3 0f 10 46 04	 movss	 xmm0, DWORD PTR [esi+4]
  00397	f3 0f 5c 44 24
	28		 subss	 xmm0, DWORD PTR _vDelta$[esp+68]
  0039d	f3 0f 11 46 04	 movss	 DWORD PTR [esi+4], xmm0
  003a2	e8 00 00 00 00	 call	 ?UnequipRide@CMover@@QAEXXZ ; CMover::UnequipRide
$LN4@ProcessCol:
; File C:\IAGOS\server\v18\Source\Source\DX_SDK\d3dx9math.inl

; 300  :     x = fx;

  003a7	f3 0f 10 06	 movss	 xmm0, DWORD PTR [esi]
; File C:\IAGOS\server\v18\Source\Source\_aiinterface\ActionMoverCollision.cpp

; 98   : 	m_fCurrentHeight = pWorld->GetFullHeight( D3DXVECTOR3(pPos->x, pPos->y + 1.0f, pPos->z) );

  003ab	8d 44 24 18	 lea	 eax, DWORD PTR $T3[esp+64]
; File C:\IAGOS\server\v18\Source\Source\DX_SDK\d3dx9math.inl

; 300  :     x = fx;

  003af	f3 0f 11 44 24
	18		 movss	 DWORD PTR $T3[esp+64], xmm0
; File C:\IAGOS\server\v18\Source\Source\_aiinterface\ActionMoverCollision.cpp

; 98   : 	m_fCurrentHeight = pWorld->GetFullHeight( D3DXVECTOR3(pPos->x, pPos->y + 1.0f, pPos->z) );

  003b5	8b cf		 mov	 ecx, edi
  003b7	f3 0f 10 46 04	 movss	 xmm0, DWORD PTR [esi+4]
  003bc	f3 0f 58 05 00
	00 00 00	 addss	 xmm0, DWORD PTR __real@3f800000
  003c4	50		 push	 eax
; File C:\IAGOS\server\v18\Source\Source\DX_SDK\d3dx9math.inl

; 301  :     y = fy;

  003c5	f3 0f 11 44 24
	20		 movss	 DWORD PTR $T3[esp+72], xmm0

; 302  :     z = fz;

  003cb	f3 0f 10 46 08	 movss	 xmm0, DWORD PTR [esi+8]
  003d0	f3 0f 11 44 24
	24		 movss	 DWORD PTR $T3[esp+76], xmm0
; File C:\IAGOS\server\v18\Source\Source\_aiinterface\ActionMoverCollision.cpp

; 98   : 	m_fCurrentHeight = pWorld->GetFullHeight( D3DXVECTOR3(pPos->x, pPos->y + 1.0f, pPos->z) );

  003d6	e8 00 00 00 00	 call	 ?GetFullHeight@CWorld@@QAEMABUD3DXVECTOR3@@@Z ; CWorld::GetFullHeight
  003db	d9 9b 80 00 00
	00		 fstp	 DWORD PTR [ebx+128]

; 99   : 
; 100  : 	if( pPos->y > pWorld->m_fMaxHeight )

  003e1	f3 0f 10 8f 10
	51 08 00	 movss	 xmm1, DWORD PTR [edi+545040]
  003e9	f3 0f 10 46 04	 movss	 xmm0, DWORD PTR [esi+4]
  003ee	0f 2f c1	 comiss	 xmm0, xmm1
  003f1	76 1d		 jbe	 SHORT $LN17@ProcessCol

; 101  : 		pPos->y = pWorld->m_fMaxHeight;

  003f3	f3 0f 11 4e 04	 movss	 DWORD PTR [esi+4], xmm1
$LN63@ProcessCol:

; 109  : 		}
; 110  : 		else
; 111  : 		{
; 112  : 			if( pPos->y < m_fCurrentHeight )		

  003f8	8b 44 24 0c	 mov	 eax, DWORD PTR _fResult$1$[esp+64]
$LN1@ProcessCol:

; 113  : 			{
; 114  : 				pPos->y = m_fCurrentHeight;
; 115  : 				fResult = TRUE;
; 116  : 			}
; 117  : 		}
; 118  : 	}
; 119  : 
; 120  : 	return fResult;
; 121  : }

  003fc	5f		 pop	 edi
  003fd	5e		 pop	 esi
  003fe	5b		 pop	 ebx
  003ff	8b 4c 24 30	 mov	 ecx, DWORD PTR __$ArrayPad$[esp+52]
  00403	33 cc		 xor	 ecx, esp
  00405	e8 00 00 00 00	 call	 @__security_check_cookie@4
  0040a	8b e5		 mov	 esp, ebp
  0040c	5d		 pop	 ebp
  0040d	c2 04 00	 ret	 4
$LN17@ProcessCol:
; File C:\IAGOS\server\v18\Source\Source\_Common\World.h

; 466  : 	LPWATERHEIGHT	GetWaterHeight( const D3DXVECTOR3& vPos )	{ return GetWaterHeight( (int)vPos.x, (int)vPos.z ); }

  00410	f3 0f 2c 46 08	 cvttss2si eax, DWORD PTR [esi+8]
  00415	8b cf		 mov	 ecx, edi
  00417	50		 push	 eax
  00418	f3 0f 2c 06	 cvttss2si eax, DWORD PTR [esi]
  0041c	50		 push	 eax
  0041d	e8 00 00 00 00	 call	 ?GetWaterHeight@CWorld@@QAEPAUWATERHEIGHT@@HH@Z ; CWorld::GetWaterHeight
; File C:\IAGOS\server\v18\Source\Source\_aiinterface\ActionMoverCollision.cpp

; 105  : 		if( pWaterHeight && pWaterHeight->byWaterTexture == WTYPE_CLOUD && m_fCurrentHeight == 0.0f )	

  00422	85 c0		 test	 eax, eax
  00424	74 45		 je	 SHORT $LN19@ProcessCol
  00426	80 78 01 01	 cmp	 BYTE PTR [eax+1], 1
  0042a	75 3f		 jne	 SHORT $LN19@ProcessCol
  0042c	f3 0f 10 83 80
	00 00 00	 movss	 xmm0, DWORD PTR [ebx+128]
  00434	0f 57 c9	 xorps	 xmm1, xmm1
  00437	0f 2e c1	 ucomiss xmm0, xmm1
  0043a	9f		 lahf
  0043b	f6 c4 44	 test	 ah, 68			; 00000044H
  0043e	7a 2b		 jp	 SHORT $LN19@ProcessCol

; 106  : 		{
; 107  : 			if( pPos->y < pWorld->m_fMinHeight )		

  00440	f3 0f 10 87 14
	51 08 00	 movss	 xmm0, DWORD PTR [edi+545044]
  00448	0f 2f 46 04	 comiss	 xmm0, DWORD PTR [esi+4]
  0044c	8b 44 24 0c	 mov	 eax, DWORD PTR _fResult$1$[esp+64]
  00450	76 aa		 jbe	 SHORT $LN1@ProcessCol

; 108  : 				pPos->y = pWorld->m_fMinHeight;

  00452	f3 0f 11 46 04	 movss	 DWORD PTR [esi+4], xmm0

; 113  : 			{
; 114  : 				pPos->y = m_fCurrentHeight;
; 115  : 				fResult = TRUE;
; 116  : 			}
; 117  : 		}
; 118  : 	}
; 119  : 
; 120  : 	return fResult;
; 121  : }

  00457	5f		 pop	 edi
  00458	5e		 pop	 esi
  00459	5b		 pop	 ebx
  0045a	8b 4c 24 30	 mov	 ecx, DWORD PTR __$ArrayPad$[esp+52]
  0045e	33 cc		 xor	 ecx, esp
  00460	e8 00 00 00 00	 call	 @__security_check_cookie@4
  00465	8b e5		 mov	 esp, ebp
  00467	5d		 pop	 ebp
  00468	c2 04 00	 ret	 4
$LN19@ProcessCol:

; 109  : 		}
; 110  : 		else
; 111  : 		{
; 112  : 			if( pPos->y < m_fCurrentHeight )		

  0046b	f3 0f 10 83 80
	00 00 00	 movss	 xmm0, DWORD PTR [ebx+128]
  00473	0f 2f 46 04	 comiss	 xmm0, DWORD PTR [esi+4]
  00477	0f 86 7b ff ff
	ff		 jbe	 $LN63@ProcessCol

; 113  : 			{
; 114  : 				pPos->y = m_fCurrentHeight;
; 115  : 				fResult = TRUE;
; 116  : 			}
; 117  : 		}
; 118  : 	}
; 119  : 
; 120  : 	return fResult;
; 121  : }

  0047d	8b 4c 24 3c	 mov	 ecx, DWORD PTR __$ArrayPad$[esp+64]
  00481	b8 01 00 00 00	 mov	 eax, 1
  00486	5f		 pop	 edi
  00487	f3 0f 11 46 04	 movss	 DWORD PTR [esi+4], xmm0
  0048c	5e		 pop	 esi
  0048d	5b		 pop	 ebx
  0048e	33 cc		 xor	 ecx, esp
  00490	e8 00 00 00 00	 call	 @__security_check_cookie@4
  00495	8b e5		 mov	 esp, ebp
  00497	5d		 pop	 ebp
  00498	c2 04 00	 ret	 4
?ProcessCollisionFly@CActionMover@@QAEHPAUD3DXVECTOR3@@@Z ENDP ; CActionMover::ProcessCollisionFly
_TEXT	ENDS
; Function compile flags: /Ogtp
; File C:\IAGOS\server\v18\Source\Source\DX_SDK\d3dx9math.h
;	COMDAT ??0D3DXVECTOR3@@QAE@XZ
_TEXT	SEGMENT
??0D3DXVECTOR3@@QAE@XZ PROC				; D3DXVECTOR3::D3DXVECTOR3, COMDAT
; _this$ = ecx

; 165  :     D3DXVECTOR3() {};

  00000	8b c1		 mov	 eax, ecx
  00002	c3		 ret	 0
??0D3DXVECTOR3@@QAE@XZ ENDP				; D3DXVECTOR3::D3DXVECTOR3
_TEXT	ENDS
; Function compile flags: /Ogtp
; File C:\IAGOS\server\v18\Source\Source\_aiinterface\ActionMoverCollision.cpp
;	COMDAT ?__empty_global_delete@@YAXPAXI@Z
_TEXT	SEGMENT
___formal$ = 8						; size = 4
___formal$ = 12						; size = 4
?__empty_global_delete@@YAXPAXI@Z PROC			; __empty_global_delete, COMDAT

  00000	c2 00 00	 ret	 0
?__empty_global_delete@@YAXPAXI@Z ENDP			; __empty_global_delete
_TEXT	ENDS
; Function compile flags: /Ogtp
; File C:\IAGOS\server\v18\Source\Source\_aiinterface\ActionMoverCollision.cpp
;	COMDAT ?__empty_global_delete@@YAXPAX@Z
_TEXT	SEGMENT
___formal$ = 8						; size = 4
?__empty_global_delete@@YAXPAX@Z PROC			; __empty_global_delete, COMDAT

  00000	c2 00 00	 ret	 0
?__empty_global_delete@@YAXPAX@Z ENDP			; __empty_global_delete
_TEXT	ENDS
END
