; Listing generated by Microsoft (R) Optimizing Compiler Version 19.44.35225.0 

	TITLE	C:\IAGOS\server\v18\Source\Output\WorldServer\Release\ActionMoverMsg.obj
	.686P
	.XMM
	include listing.inc
	.model	flat

INCLUDELIB LIBCMT
INCLUDELIB OLDNAMES

CONST	SEGMENT
?piecewise_construct@std@@3Upiecewise_construct_t@1@B	ORG $+1 ; std::piecewise_construct
CONST	ENDS
PUBLIC	?__empty_global_delete@@YAXPAX@Z		; __empty_global_delete
PUBLIC	?__empty_global_delete@@YAXPAXI@Z		; __empty_global_delete
PUBLIC	?AtlThrowImpl@ATL@@YGXJ@Z			; ATL::AtlThrowImpl
PUBLIC	??1?$CSimpleStringT@D$0A@@ATL@@QAE@XZ		; ATL::CSimpleStringT<char,0>::~CSimpleStringT<char,0>
PUBLIC	?SetString@?$CSimpleStringT@D$0A@@ATL@@QAEXPBDH@Z ; ATL::CSimpleStringT<char,0>::SetString
PUBLIC	?ThrowMemoryException@?$CSimpleStringT@D$0A@@ATL@@KAXXZ ; ATL::CSimpleStringT<char,0>::ThrowMemoryException
PUBLIC	?Fork@?$CSimpleStringT@D$0A@@ATL@@AAEXH@Z	; ATL::CSimpleStringT<char,0>::Fork
PUBLIC	?PrepareWrite2@?$CSimpleStringT@D$0A@@ATL@@AAEXH@Z ; ATL::CSimpleStringT<char,0>::PrepareWrite2
PUBLIC	?Reallocate@?$CSimpleStringT@D$0A@@ATL@@AAEXH@Z	; ATL::CSimpleStringT<char,0>::Reallocate
PUBLIC	??1?$CStringT@DV?$StrTraitMFC@DV?$ChTraitsCRT@D@ATL@@@@@ATL@@QAE@XZ ; ATL::CStringT<char,StrTraitMFC<char,ATL::ChTraitsCRT<char> > >::~CStringT<char,StrTraitMFC<char,ATL::ChTraitsCRT<char> > >
PUBLIC	?LoadStringA@?$CStringT@DV?$StrTraitMFC@DV?$ChTraitsCRT@D@ATL@@@@@ATL@@QAEHI@Z ; ATL::CStringT<char,StrTraitMFC<char,ATL::ChTraitsCRT<char> > >::LoadStringA
PUBLIC	?GetDegree@@YAMABUD3DXVECTOR3@@0@Z		; GetDegree
PUBLIC	?GetItemProp@CProject@@QAEPAUItemProp@@H@Z	; CProject::GetItemProp
PUBLIC	?GetPropA@CItemElem@@QAEPAUItemProp@@XZ		; CItemElem::GetPropA
PUBLIC	?ForcedSet@CActionMover@@QAEXAAUD3DXVECTOR3@@KKH@Z ; CActionMover::ForcedSet
PUBLIC	?ForcedSet2@CActionMover@@QAEXAAUD3DXVECTOR3@@MMKKH@Z ; CActionMover::ForcedSet2
PUBLIC	?DefaultSet@CActionMover@@QAEXXZ		; CActionMover::DefaultSet
PUBLIC	?HalfForcedSet@CActionMover@@QAEXAAUD3DXVECTOR3@@MM@Z ; CActionMover::HalfForcedSet
PUBLIC	?ProcessActMsg1@CActionMover@@QAEHPAVCMover@@W4OBJMSG@@HHHHH@Z ; CActionMover::ProcessActMsg1
PUBLIC	?PreProcessDamage@CActionMover@@QAEPAVCMover@@PAV2@KHH@Z ; CActionMover::PreProcessDamage
PUBLIC	?GetPropA@CMover@@QAEPAUMoverProp@@XZ		; CMover::GetPropA
PUBLIC	?IsDie@CMover@@QAEHXZ				; CMover::IsDie
PUBLIC	??_C@_0BM@HMFGHCP@?$CFs?5min?3?$CFd?0?5max?3?$CFd?0?5index?3?$CFd@ ; `string'
PUBLIC	??_C@_0BI@BEIFNGEL@GetItemProp?5range_error@	; `string'
PUBLIC	??_C@_0BJ@GKPOBPPI@GetMoverProp?5range_error@	; `string'
PUBLIC	??_C@_0CP@ELGGLPDI@ForcedSet?5?3?5dwState?$DN0x?$CF08x?0?5dwS@ ; `string'
PUBLIC	??_C@_0DA@DHAGLFHI@ForcedSet2?5?3?5dwState?$DN0x?$CF08x?0?5dw@ ; `string'
PUBLIC	??_C@_05PJLLPND@stand@				; `string'
PUBLIC	__real@42652ee0
PUBLIC	__real@428551ec
PUBLIC	__real@43b40000
PUBLIC	__xmm@41f00000000000000000000000000000
PUBLIC	__xmm@80000000800000008000000080000000
EXTRN	__invalid_parameter_noinfo:PROC
EXTRN	__errno:PROC
EXTRN	__imp__GetTickCount@0:PROC
EXTRN	__imp__LoadResource@8:PROC
EXTRN	__imp__LockResource@4:PROC
EXTRN	__imp__SizeofResource@8:PROC
EXTRN	__imp__FindResourceW@12:PROC
EXTRN	__imp__WideCharToMultiByte@32:PROC
EXTRN	?AfxThrowMemoryException@@YGXXZ:PROC		; AfxThrowMemoryException
EXTRN	?AfxThrowOleException@@YGXJ@Z:PROC		; AfxThrowOleException
EXTRN	?AfxFindStringResourceHandle@@YGPAUHINSTANCE__@@I@Z:PROC ; AfxFindStringResourceHandle
EXTRN	?AfxGetStringManager@@YGPAUIAtlStringMgr@ATL@@XZ:PROC ; AfxGetStringManager
EXTRN	_D3DXVec3Normalize@8:PROC
EXTRN	?Error@@YAPBDPBDZZ:PROC				; Error
EXTRN	?LoadModel@CModelMng@@QAEPAVCModel@@PAUIDirect3DDevice9@@HHH@Z:PROC ; CModelMng::LoadModel
EXTRN	?SetAngleX@CObj@@QAEXM@Z:PROC			; CObj::SetAngleX
EXTRN	?SetAngle@CObj@@QAEXM@Z:PROC			; CObj::SetAngle
EXTRN	?GetCtrl@CProject@@QAEPAVCCtrl@@K@Z:PROC	; CProject::GetCtrl
EXTRN	?GetMover@CProject@@QAEPAVCMover@@K@Z:PROC	; CProject::GetMover
EXTRN	?GetMotionFileName@CModelObject@@QBE?AV?$CStringT@DV?$StrTraitMFC@DV?$ChTraitsCRT@D@ATL@@@@@ATL@@ABV23@@Z:PROC ; CModelObject::GetMotionFileName
EXTRN	?SetMotionBlending@CModelObject@@QAEXH@Z:PROC	; CModelObject::SetMotionBlending
EXTRN	?LoadMotion@CModelObject@@QAEHPBD@Z:PROC	; CModelObject::LoadMotion
EXTRN	?AddStateFlag@CAction@@QAEXK@Z:PROC		; CAction::AddStateFlag
EXTRN	?RemoveStateFlag@CAction@@QAEXK@Z:PROC		; CAction::RemoveStateFlag
EXTRN	?ClearState@CAction@@QAEXXZ:PROC		; CAction::ClearState
EXTRN	?ResetState@CAction@@QAEXK@Z:PROC		; CAction::ResetState
EXTRN	?DoDamageFly@CActionMover@@QAEXMMM@Z:PROC	; CActionMover::DoDamageFly
EXTRN	?_ProcessMsgDmg@CActionMover@@QAEKKPAVCMover@@KHHH@Z:PROC ; CActionMover::_ProcessMsgDmg
EXTRN	?IsSteal@CMover@@QAEHPAV1@@Z:PROC		; CMover::IsSteal
EXTRN	?ClearDuel@CMover@@QAEXXZ:PROC			; CMover::ClearDuel
EXTRN	?PostAIMsg@CMover@@QAEXKKKK@Z:PROC		; CMover::PostAIMsg
EXTRN	?GetWeaponItem@CMover@@QAEPAVCItemElem@@H@Z:PROC ; CMover::GetWeaponItem
EXTRN	?GetAdjParam@CMover@@QAEHH@Z:PROC		; CMover::GetAdjParam
EXTRN	?GetHitType@CMover@@QAE?AW4HITTYPE@@PAV1@HH@Z:PROC ; CMover::GetHitType
EXTRN	?GetAttackSpeed@CMover@@QAEMXZ:PROC		; CMover::GetAttackSpeed
EXTRN	?CanFlyByAttack@CMover@@QAEHXZ:PROC		; CMover::CanFlyByAttack
EXTRN	?GetAttackResult@CMover@@QAEHPAV1@K@Z:PROC	; CMover::GetAttackResult
EXTRN	?SetJJim@CMover@@QAEXPAV1@@Z:PROC		; CMover::SetJJim
EXTRN	?RemoveInvisible@CMover@@QAEXXZ:PROC		; CMover::RemoveInvisible
EXTRN	?OnActFMove@CMover@@QAEXXZ:PROC			; CMover::OnActFMove
EXTRN	?OnAttackStart@CMover@@QAEXPAV1@W4OBJMSG@@@Z:PROC ; CMover::OnAttackStart
EXTRN	?GetHeightAttribute@CWorld@@QAEHMM@Z:PROC	; CWorld::GetHeightAttribute
EXTRN	?GetState@CFlyffEvent@@QAEEH@Z:PROC		; CFlyffEvent::GetState
EXTRN	?GetParty@CPartyMng@@QAEPAVCParty@@K@Z:PROC	; CPartyMng::GetParty
EXTRN	?AddSetDuel@CUser@@QAEXPAVCMover@@@Z:PROC	; CUser::AddSetDuel
EXTRN	?GetUserByPlayerID@CUserMng@@QAEPAVCUser@@K@Z:PROC ; CUserMng::GetUserByPlayerID
EXTRN	?GetInstance@CCreateMonster@@SAPAV1@XZ:PROC	; CCreateMonster::GetInstance
EXTRN	?IsAttackAble@CCreateMonster@@QAEHPAVCUser@@PAVCMover@@H@Z:PROC ; CCreateMonster::IsAttackAble
EXTRN	@__security_check_cookie@4:PROC
EXTRN	___CxxFrameHandler3:PROC
EXTRN	__ftol3:PROC
EXTRN	__libm_sse2_acos_precise:PROC
EXTRN	__libm_sse2_cos_precise:PROC
EXTRN	__libm_sse2_sin_precise:PROC
EXTRN	_memcpy:PROC
EXTRN	_memmove:PROC
EXTRN	_memset:PROC
EXTRN	?prj@@3VCProject@@A:BYTE			; prj
EXTRN	?g_eLocal@@3VCFlyffEvent@@A:BYTE		; g_eLocal
EXTRN	?g_PartyMng@@3VCPartyMng@@A:BYTE		; g_PartyMng
EXTRN	?g_UserMng@@3VCUserMng@@A:BYTE			; g_UserMng
EXTRN	___security_cookie:DWORD
EXTRN	__fltused:DWORD
;	COMDAT __xmm@80000000800000008000000080000000
CONST	SEGMENT
__xmm@80000000800000008000000080000000 DB 00H, 00H, 00H, 080H, 00H, 00H, 00H
	DB	080H, 00H, 00H, 00H, 080H, 00H, 00H, 00H, 080H
CONST	ENDS
;	COMDAT __xmm@41f00000000000000000000000000000
CONST	SEGMENT
__xmm@41f00000000000000000000000000000 DB 00H, 00H, 00H, 00H, 00H, 00H, 00H
	DB	00H, 00H, 00H, 00H, 00H, 00H, 00H, 0f0H, 'A'
CONST	ENDS
;	COMDAT __real@43b40000
CONST	SEGMENT
__real@43b40000 DD 043b40000r			; 360
CONST	ENDS
;	COMDAT __real@428551ec
CONST	SEGMENT
__real@428551ec DD 0428551ecr			; 66.66
CONST	ENDS
;	COMDAT __real@42652ee0
CONST	SEGMENT
__real@42652ee0 DD 042652ee0r			; 57.2958
CONST	ENDS
;	COMDAT ??_C@_05PJLLPND@stand@
CONST	SEGMENT
??_C@_05PJLLPND@stand@ DB 'stand', 00H			; `string'
CONST	ENDS
;	COMDAT ??_C@_0DA@DHAGLFHI@ForcedSet2?5?3?5dwState?$DN0x?$CF08x?0?5dw@
CONST	SEGMENT
??_C@_0DA@DHAGLFHI@ForcedSet2?5?3?5dwState?$DN0x?$CF08x?0?5dw@ DB 'Forced'
	DB	'Set2 : dwState=0x%08x, dwStateFlag=0x%08x', 00H ; `string'
CONST	ENDS
;	COMDAT ??_C@_0CP@ELGGLPDI@ForcedSet?5?3?5dwState?$DN0x?$CF08x?0?5dwS@
CONST	SEGMENT
??_C@_0CP@ELGGLPDI@ForcedSet?5?3?5dwState?$DN0x?$CF08x?0?5dwS@ DB 'Forced'
	DB	'Set : dwState=0x%08x, dwStateFlag=0x%08x', 00H ; `string'
CONST	ENDS
;	COMDAT ??_C@_0BJ@GKPOBPPI@GetMoverProp?5range_error@
CONST	SEGMENT
??_C@_0BJ@GKPOBPPI@GetMoverProp?5range_error@ DB 'GetMoverProp range_erro'
	DB	'r', 00H					; `string'
CONST	ENDS
;	COMDAT ??_C@_0BI@BEIFNGEL@GetItemProp?5range_error@
CONST	SEGMENT
??_C@_0BI@BEIFNGEL@GetItemProp?5range_error@ DB 'GetItemProp range_error', 00H ; `string'
CONST	ENDS
;	COMDAT ??_C@_0BM@HMFGHCP@?$CFs?5min?3?$CFd?0?5max?3?$CFd?0?5index?3?$CFd@
CONST	SEGMENT
??_C@_0BM@HMFGHCP@?$CFs?5min?3?$CFd?0?5max?3?$CFd?0?5index?3?$CFd@ DB '%s'
	DB	' min:%d, max:%d, index:%d', 00H		; `string'
CONST	ENDS
;	COMDAT xdata$x
xdata$x	SEGMENT
__unwindtable$?ProcessActMsg1@CActionMover@@QAEHPAVCMover@@W4OBJMSG@@HHHHH@Z DD 0ffffffffH
	DD	FLAT:__unwindfunclet$?ProcessActMsg1@CActionMover@@QAEHPAVCMover@@W4OBJMSG@@HHHHH@Z$2
	DD	0ffffffffH
	DD	FLAT:__unwindfunclet$?ProcessActMsg1@CActionMover@@QAEHPAVCMover@@W4OBJMSG@@HHHHH@Z$0
	DD	01H
	DD	FLAT:__unwindfunclet$?ProcessActMsg1@CActionMover@@QAEHPAVCMover@@W4OBJMSG@@HHHHH@Z$1
	DD	0ffffffffH
	DD	FLAT:__unwindfunclet$?ProcessActMsg1@CActionMover@@QAEHPAVCMover@@W4OBJMSG@@HHHHH@Z$1
__ehfuncinfo$?ProcessActMsg1@CActionMover@@QAEHPAVCMover@@W4OBJMSG@@HHHHH@Z DD 019930522H
	DD	04H
	DD	FLAT:__unwindtable$?ProcessActMsg1@CActionMover@@QAEHPAVCMover@@W4OBJMSG@@HHHHH@Z
	DD	2 DUP(00H)
	DD	2 DUP(00H)
	DD	00H
	DD	01H
xdata$x	ENDS
;	COMDAT xdata$x
xdata$x	SEGMENT
__unwindtable$??0?$CStringT@DV?$StrTraitMFC@DV?$ChTraitsCRT@D@ATL@@@@@ATL@@QAE@PBD@Z DD 0ffffffffH
	DD	FLAT:__unwindfunclet$??0?$CStringT@DV?$StrTraitMFC@DV?$ChTraitsCRT@D@ATL@@@@@ATL@@QAE@PBD@Z$0
__ehfuncinfo$??0?$CStringT@DV?$StrTraitMFC@DV?$ChTraitsCRT@D@ATL@@@@@ATL@@QAE@PBD@Z DD 019930522H
	DD	01H
	DD	FLAT:__unwindtable$??0?$CStringT@DV?$StrTraitMFC@DV?$ChTraitsCRT@D@ATL@@@@@ATL@@QAE@PBD@Z
	DD	2 DUP(00H)
	DD	2 DUP(00H)
	DD	00H
	DD	01H
xdata$x	ENDS
; Function compile flags: /Ogtp
; File C:\IAGOS\server\v18\Source\Source\_Common\Mover.h
;	COMDAT ?IsDie@CMover@@QAEHXZ
_TEXT	SEGMENT
?IsDie@CMover@@QAEHXZ PROC				; CMover::IsDie, COMDAT
; _this$ = ecx

; 1250 : 	BOOL			IsDie() { return m_pActMover->IsDie() || m_nHitPoint == 0; }

  00000	8b 81 38 02 00
	00		 mov	 eax, DWORD PTR [ecx+568]
  00006	f7 40 04 00 00
	00 08		 test	 DWORD PTR [eax+4], 134217728 ; 08000000H
  0000d	75 0c		 jne	 SHORT $LN3@IsDie
  0000f	83 b9 f8 05 00
	00 00		 cmp	 DWORD PTR [ecx+1528], 0
  00016	74 03		 je	 SHORT $LN3@IsDie
  00018	33 c0		 xor	 eax, eax
  0001a	c3		 ret	 0
$LN3@IsDie:
  0001b	b8 01 00 00 00	 mov	 eax, 1
  00020	c3		 ret	 0
?IsDie@CMover@@QAEHXZ ENDP				; CMover::IsDie
_TEXT	ENDS
; Function compile flags: /Ogtp
; File C:\IAGOS\server\v18\Source\Source\_Common\Mover.h
; File C:\IAGOS\server\v18\Source\Source\_Common\Project.h
; File C:\IAGOS\server\v18\Source\Source\_Common\Mover.h
; File C:\IAGOS\server\v18\Source\Source\_Common\Project.h
; File C:\IAGOS\server\v18\Source\Source\_Common\Mover.h
;	COMDAT ?GetPropA@CMover@@QAEPAUMoverProp@@XZ
_TEXT	SEGMENT
?GetPropA@CMover@@QAEPAUMoverProp@@XZ PROC		; CMover::GetPropA, COMDAT
; _this$ = ecx

; 1020 : 	MoverProp*		GetProp() { return prj.GetMoverProp( m_dwIndex ); }	// 객체의 프로퍼티 얻기 	

  00000	8b 81 74 01 00
	00		 mov	 eax, DWORD PTR [ecx+372]
; File C:\IAGOS\server\v18\Source\Source\_Common\Project.h

; 1406 : 	VERIFY_RANGE( nIndex, 0, m_nMoverPropSize, "GetMoverProp range_error", NULL );

  00006	8b 0d b4 01 00
	00		 mov	 ecx, DWORD PTR ?prj@@3VCProject@@A+436
  0000c	85 c0		 test	 eax, eax
  0000e	78 11		 js	 SHORT $LN8@GetPropA
  00010	3b c1		 cmp	 eax, ecx
  00012	7d 0d		 jge	 SHORT $LN8@GetPropA

; 1407 : 	return m_pPropMover + nIndex;

  00014	69 c0 90 06 00
	00		 imul	 eax, eax, 1680
  0001a	03 05 b8 01 00
	00		 add	 eax, DWORD PTR ?prj@@3VCProject@@A+440
; File C:\IAGOS\server\v18\Source\Source\_Common\Mover.h

; 1020 : 	MoverProp*		GetProp() { return prj.GetMoverProp( m_dwIndex ); }	// 객체의 프로퍼티 얻기 	

  00020	c3		 ret	 0
$LN8@GetPropA:
; File C:\IAGOS\server\v18\Source\Source\_Common\Project.h

; 579  : 	LPCTSTR szErr = Error( _T( "%s min:%d, max:%d, index:%d" ), szMsg, nMin, nMax, nIndex ); 

  00021	50		 push	 eax
  00022	51		 push	 ecx
  00023	6a 00		 push	 0
  00025	68 00 00 00 00	 push	 OFFSET ??_C@_0BJ@GKPOBPPI@GetMoverProp?5range_error@
  0002a	68 00 00 00 00	 push	 OFFSET ??_C@_0BM@HMFGHCP@?$CFs?5min?3?$CFd?0?5max?3?$CFd?0?5index?3?$CFd@
  0002f	e8 00 00 00 00	 call	 ?Error@@YAPBDPBDZZ	; Error
  00034	83 c4 14	 add	 esp, 20			; 00000014H
; File C:\IAGOS\server\v18\Source\Source\_Common\Mover.h

; 1020 : 	MoverProp*		GetProp() { return prj.GetMoverProp( m_dwIndex ); }	// 객체의 프로퍼티 얻기 	

  00037	33 c0		 xor	 eax, eax
  00039	c3		 ret	 0
?GetPropA@CMover@@QAEPAUMoverProp@@XZ ENDP		; CMover::GetPropA
_TEXT	ENDS
; Function compile flags: /Ogtp
; File C:\IAGOS\server\v18\Source\Source\_aiinterface\ActionMoverMsg.cpp
; File C:\IAGOS\server\v18\Source\Source\_Common\Obj.h
; File C:\IAGOS\server\v18\Source\Source\_aiinterface\ActionMoverMsg.cpp
; File C:\IAGOS\server\v18\Source\Source\_Common\Mover.h
; File C:\IAGOS\server\v18\Source\Source\_aiinterface\ActionMoverMsg.cpp
;	COMDAT ?PreProcessDamage@CActionMover@@QAEPAVCMover@@PAV2@KHH@Z
_TEXT	SEGMENT
_pMover$ = 8						; size = 4
_idAttacker$ = 12					; size = 4
_bTarget$ = 16						; size = 4
_nReflect$ = 20						; size = 4
?PreProcessDamage@CActionMover@@QAEPAVCMover@@PAV2@KHH@Z PROC ; CActionMover::PreProcessDamage, COMDAT
; _this$ = ecx

; 1200 : {

  00000	55		 push	 ebp
  00001	8b ec		 mov	 ebp, esp
  00003	56		 push	 esi
  00004	57		 push	 edi

; 1201 : 	if( pMover->m_dwMode & MATCHLESS_MODE )		// 무적이면 여기서 리턴.	

  00005	8b 7d 08	 mov	 edi, DWORD PTR _pMover$[ebp]
  00008	f6 87 40 02 00
	00 01		 test	 BYTE PTR [edi+576], 1
  0000f	75 70		 jne	 SHORT $LN5@PreProcess

; 1202 : 		return NULL;
; 1203 : #if __VER >= 10 // __LEGEND	//	10차 전승시스템	Neuz, World, Trans
; 1204 : 	if( pMover->GetAdjParam( DST_CHRSTATE ) & CHS_SETSTONE)

  00011	6a 40		 push	 64			; 00000040H
  00013	8b cf		 mov	 ecx, edi
  00015	e8 00 00 00 00	 call	 ?GetAdjParam@CMover@@QAEHH@Z ; CMover::GetAdjParam
  0001a	a9 00 00 10 00	 test	 eax, 1048576		; 00100000H
  0001f	75 60		 jne	 SHORT $LN5@PreProcess

; 1205 : 		return NULL;
; 1206 : #endif	//__LEGEND	//	10차 전승시스템	Neuz, World, Trans
; 1207 : 
; 1208 : 	CCtrl* pCtrl = prj.GetCtrl( idAttacker );	// 공격자 

  00021	ff 75 0c	 push	 DWORD PTR _idAttacker$[ebp]
  00024	b9 00 00 00 00	 mov	 ecx, OFFSET ?prj@@3VCProject@@A ; prj
  00029	e8 00 00 00 00	 call	 ?GetCtrl@CProject@@QAEPAVCCtrl@@K@Z ; CProject::GetCtrl
  0002e	8b f0		 mov	 esi, eax
; File C:\IAGOS\server\v18\Source\Source\_Common\Obj.h

; 327  : 	return pObj && ( pObj->IsDelete() == FALSE ); 

  00030	85 f6		 test	 esi, esi
  00032	74 4d		 je	 SHORT $LN5@PreProcess

; 180  : 	BOOL			IsDelete()	{ return (m_dwFlags & OBJ_FLAG_DELETE);  }

  00034	f6 46 04 01	 test	 BYTE PTR [esi+4], 1

; 327  : 	return pObj && ( pObj->IsDelete() == FALSE ); 

  00038	75 47		 jne	 SHORT $LN5@PreProcess
; File C:\IAGOS\server\v18\Source\Source\_aiinterface\ActionMoverMsg.cpp

; 1213 : 	if( pCtrl->GetType() == OT_MOVER )

  0003a	83 be 70 01 00
	00 05		 cmp	 DWORD PTR [esi+368], 5
  00041	75 3e		 jne	 SHORT $LN5@PreProcess
; File C:\IAGOS\server\v18\Source\Source\_Common\Mover.h

; 1015 : 	BOOL			IsNPC()				{ return !m_bPlayer; }

  00043	83 bf 30 02 00
	00 00		 cmp	 DWORD PTR [edi+560], 0
; File C:\IAGOS\server\v18\Source\Source\_aiinterface\ActionMoverMsg.cpp

; 1218 : 	if( pMover->IsNPC() )						// 맞는넘이 NPC고

  0004a	75 14		 jne	 SHORT $LN8@PreProcess

; 1219 : 	{
; 1220 : 		MoverProp *pProp = pMover->GetProp();

  0004c	8b cf		 mov	 ecx, edi
  0004e	e8 00 00 00 00	 call	 ?GetPropA@CMover@@QAEPAUMoverProp@@XZ ; CMover::GetPropA

; 1221 : 		if( pProp && pProp->bKillable != 1 )	// 죽이기가 불가능 한넘이면 여기서 리턴.

  00053	85 c0		 test	 eax, eax
  00055	74 09		 je	 SHORT $LN8@PreProcess
  00057	83 b8 6c 01 00
	00 01		 cmp	 DWORD PTR [eax+364], 1
  0005e	75 21		 jne	 SHORT $LN5@PreProcess
$LN8@PreProcess:

; 1222 : 			return NULL;
; 1223 : 	}
; 1224 : 
; 1225 : #ifdef __WORLDSERVER
; 1226 : 	HITTYPE ht = pAttacker->GetHitType( pMover, bTarget, nReflect );

  00060	ff 75 14	 push	 DWORD PTR _nReflect$[ebp]
  00063	8b ce		 mov	 ecx, esi
  00065	ff 75 10	 push	 DWORD PTR _bTarget$[ebp]
  00068	57		 push	 edi
  00069	e8 00 00 00 00	 call	 ?GetHitType@CMover@@QAE?AW4HITTYPE@@PAV1@HH@Z ; CMover::GetHitType

; 1227 : 	if( ht == HITTYPE_FAIL )

  0006e	85 c0		 test	 eax, eax
  00070	74 0f		 je	 SHORT $LN5@PreProcess

; 1228 : 		return 0;
; 1229 : #if __VER < 10	// __METEONYKER_0608
; 1230 : 	pMover->PostAIMsg( AIMSG_DAMAGE, idAttacker ); 
; 1231 : #endif	// __METEONYKER_0608
; 1232 : 
; 1233 : #endif
; 1234 : 
; 1235 : 	pAttacker->RemoveInvisible();

  00072	8b ce		 mov	 ecx, esi
  00074	e8 00 00 00 00	 call	 ?RemoveInvisible@CMover@@QAEXXZ ; CMover::RemoveInvisible
  00079	5f		 pop	 edi

; 1236 : 	return pAttacker;

  0007a	8b c6		 mov	 eax, esi

; 1237 : }

  0007c	5e		 pop	 esi
  0007d	5d		 pop	 ebp
  0007e	c2 10 00	 ret	 16			; 00000010H
$LN5@PreProcess:
  00081	5f		 pop	 edi

; 1214 : 		pAttacker = (CMover*)pCtrl; 
; 1215 : 	else
; 1216 : 		return NULL;							

  00082	33 c0		 xor	 eax, eax

; 1237 : }

  00084	5e		 pop	 esi
  00085	5d		 pop	 ebp
  00086	c2 10 00	 ret	 16			; 00000010H
?PreProcessDamage@CActionMover@@QAEPAVCMover@@PAV2@KHH@Z ENDP ; CActionMover::PreProcessDamage
_TEXT	ENDS
; Function compile flags: /Ogtp
; File C:\IAGOS\server\v18\Source\Source\_aiinterface\ActionMoverMsg.cpp
; File C:\IAGOS\server\v18\Source\Source\_AIInterface\Action.h
; File C:\IAGOS\server\v18\Source\Source\_aiinterface\ActionMoverMsg.cpp
; File C:\IAGOS\server\v18\Source\Source\_AIInterface\Action.h
; File C:\IAGOS\server\v18\Source\Source\_aiinterface\ActionMoverMsg.cpp
; File C:\IAGOS\server\v18\Source\Source\_AIInterface\Action.h
; File C:\IAGOS\server\v18\Source\Source\_aiinterface\ActionMoverMsg.cpp
; File C:\IAGOS\server\v18\Source\Source\_AIInterface\Action.h
; File C:\IAGOS\server\v18\Source\Source\_aiinterface\ActionMoverMsg.cpp
; File C:\IAGOS\server\v18\Source\Source\_AIInterface\Action.h
; File C:\IAGOS\server\v18\Source\Source\_aiinterface\ActionMoverMsg.cpp
; File C:\IAGOS\server\v18\Source\Source\_AIInterface\Action.h
; File C:\IAGOS\server\v18\Source\Source\_aiinterface\ActionMoverMsg.cpp
; File C:\IAGOS\server\v18\Source\Source\_AIInterface\Action.h
; File C:\IAGOS\server\v18\Source\Source\_aiinterface\ActionMoverMsg.cpp
; File C:\IAGOS\server\v18\Source\Source\_AIInterface\Action.h
; File C:\IAGOS\server\v18\Source\Source\_aiinterface\ActionMoverMsg.cpp
; File C:\IAGOS\server\v18\Source\Source\_Common\Mover.h
; File C:\IAGOS\server\v18\Source\Source\_aiinterface\ActionMoverMsg.cpp
; File C:\IAGOS\server\v18\Source\Source\_AIInterface\Action.h
; File C:\IAGOS\server\v18\Source\Source\_aiinterface\ActionMoverMsg.cpp
; File C:\IAGOS\server\v18\Source\Source\_AIInterface\Action.h
; File C:\IAGOS\server\v18\Source\Source\_aiinterface\ActionMoverMsg.cpp
; File C:\IAGOS\server\v18\Source\Source\_AIInterface\Action.h
; File C:\IAGOS\server\v18\Source\Source\_aiinterface\ActionMoverMsg.cpp
; File C:\IAGOS\server\v18\Source\Source\_AIInterface\Action.h
; File C:\IAGOS\server\v18\Source\Source\_aiinterface\ActionMoverMsg.cpp
; File C:\IAGOS\server\v18\Source\Source\_AIInterface\Action.h
; File C:\IAGOS\server\v18\Source\Source\_aiinterface\ActionMoverMsg.cpp
; File C:\IAGOS\server\v18\Source\Source\_AIInterface\Action.h
; File C:\IAGOS\server\v18\Source\Source\_aiinterface\ActionMoverMsg.cpp
; File C:\IAGOS\server\v18\Source\Source\_AIInterface\Action.h
; File C:\IAGOS\server\v18\Source\Source\_aiinterface\ActionMoverMsg.cpp
; File C:\IAGOS\server\v18\Source\Source\_AIInterface\Action.h
; File C:\IAGOS\server\v18\Source\Source\_aiinterface\ActionMoverMsg.cpp
; File C:\IAGOS\server\v18\Source\Source\_AIInterface\Action.h
; File C:\IAGOS\server\v18\Source\Source\_aiinterface\ActionMoverMsg.cpp
; File C:\IAGOS\server\v18\Source\Source\_AIInterface\Action.h
; File C:\IAGOS\server\v18\Source\Source\_aiinterface\ActionMoverMsg.cpp
; File C:\IAGOS\server\v18\Source\Source\_AIInterface\Action.h
; File C:\IAGOS\server\v18\Source\Source\_aiinterface\ActionMoverMsg.cpp
; File C:\IAGOS\server\v18\Source\Source\_AIInterface\Action.h
; File C:\IAGOS\server\v18\Source\Source\_aiinterface\ActionMoverMsg.cpp
; File C:\IAGOS\server\v18\Source\Source\_AIInterface\Action.h
; File C:\IAGOS\server\v18\Source\Source\_aiinterface\ActionMoverMsg.cpp
; File C:\IAGOS\server\v18\Source\Source\_AIInterface\Action.h
; File C:\IAGOS\server\v18\Source\Source\_aiinterface\ActionMoverMsg.cpp
; File C:\IAGOS\server\v18\Source\Source\_AIInterface\Action.h
; File C:\IAGOS\server\v18\Source\Source\_aiinterface\ActionMoverMsg.cpp
; File C:\IAGOS\server\v18\Source\Source\_AIInterface\Action.h
; File C:\IAGOS\server\v18\Source\Source\_aiinterface\ActionMoverMsg.cpp
; File C:\IAGOS\server\v18\Source\Source\_AIInterface\Action.h
; File C:\IAGOS\server\v18\Source\Source\_aiinterface\ActionMoverMsg.cpp
; File C:\IAGOS\server\v18\Source\Source\_AIInterface\Action.h
; File C:\IAGOS\server\v18\Source\Source\_aiinterface\ActionMoverMsg.cpp
; File C:\IAGOS\server\v18\Source\Source\_AIInterface\Action.h
; File C:\IAGOS\server\v18\Source\Source\_aiinterface\ActionMoverMsg.cpp
; File C:\IAGOS\server\v18\Source\Source\_AIInterface\Action.h
; File C:\IAGOS\server\v18\Source\Source\_aiinterface\ActionMoverMsg.cpp
; File C:\IAGOS\server\v18\Source\Source\_AIInterface\Action.h
; File C:\IAGOS\server\v18\Source\Source\_aiinterface\ActionMoverMsg.cpp
; File C:\IAGOS\server\v18\Source\Source\_AIInterface\Action.h
; File C:\IAGOS\server\v18\Source\Source\_aiinterface\ActionMoverMsg.cpp
; File C:\IAGOS\server\v18\Source\Source\_AIInterface\Action.h
; File C:\IAGOS\server\v18\Source\Source\_aiinterface\ActionMoverMsg.cpp
; File C:\IAGOS\server\v18\Source\Source\_AIInterface\Action.h
; File C:\IAGOS\server\v18\Source\Source\_aiinterface\ActionMoverMsg.cpp
; File C:\IAGOS\server\v18\Source\Source\_AIInterface\Action.h
; File C:\IAGOS\server\v18\Source\Source\_aiinterface\ActionMoverMsg.cpp
; File C:\IAGOS\server\v18\Source\Source\_AIInterface\Action.h
; File C:\IAGOS\server\v18\Source\Source\_aiinterface\ActionMoverMsg.cpp
; File C:\IAGOS\server\v18\Source\Source\_AIInterface\Action.h
; File C:\IAGOS\server\v18\Source\Source\_aiinterface\ActionMoverMsg.cpp
; File C:\IAGOS\server\v18\Source\Source\_AIInterface\Action.h
; File C:\IAGOS\server\v18\Source\Source\_aiinterface\ActionMoverMsg.cpp
; File C:\IAGOS\server\v18\Source\Source\_AIInterface\Action.h
; File C:\IAGOS\server\v18\Source\Source\_aiinterface\ActionMoverMsg.cpp
; File C:\IAGOS\server\v18\Source\Source\_AIInterface\Action.h
; File C:\IAGOS\server\v18\Source\Source\_aiinterface\ActionMoverMsg.cpp
; File C:\IAGOS\server\v18\Source\Source\_AIInterface\Action.h
; File C:\IAGOS\server\v18\Source\Source\_aiinterface\ActionMoverMsg.cpp
; File C:\IAGOS\server\v18\Source\Source\_AIInterface\Action.h
; File C:\IAGOS\server\v18\Source\Source\_aiinterface\ActionMoverMsg.cpp
; File C:\IAGOS\server\v18\Source\Source\_AIInterface\Action.h
; File C:\IAGOS\server\v18\Source\Source\_aiinterface\ActionMoverMsg.cpp
; File C:\IAGOS\server\v18\Source\Source\_AIInterface\Action.h
; File C:\IAGOS\server\v18\Source\Source\_aiinterface\ActionMoverMsg.cpp
; File C:\IAGOS\server\v18\Source\Source\_AIInterface\Action.h
; File C:\IAGOS\server\v18\Source\Source\_aiinterface\ActionMoverMsg.cpp
; File C:\IAGOS\server\v18\Source\Source\_AIInterface\Action.h
; File C:\IAGOS\server\v18\Source\Source\_aiinterface\ActionMoverMsg.cpp
; File C:\IAGOS\server\v18\Source\Source\_AIInterface\Action.h
; File C:\IAGOS\server\v18\Source\Source\_aiinterface\ActionMoverMsg.cpp
; File C:\IAGOS\server\v18\Source\Source\_AIInterface\Action.h
; File C:\IAGOS\server\v18\Source\Source\_aiinterface\ActionMoverMsg.cpp
; File C:\IAGOS\server\v18\Source\Source\_AIInterface\Action.h
; File C:\IAGOS\server\v18\Source\Source\_aiinterface\ActionMoverMsg.cpp
; File C:\IAGOS\server\v18\Source\Source\_AIInterface\Action.h
; File C:\IAGOS\server\v18\Source\Source\_aiinterface\ActionMoverMsg.cpp
; File C:\IAGOS\server\v18\Source\Source\_AIInterface\Action.h
; File C:\IAGOS\server\v18\Source\Source\_aiinterface\ActionMoverMsg.cpp
; File C:\IAGOS\server\v18\Source\Source\_AIInterface\Action.h
; File C:\IAGOS\server\v18\Source\Source\_aiinterface\ActionMoverMsg.cpp
; File C:\IAGOS\server\v18\Source\Source\_AIInterface\Action.h
; File C:\IAGOS\server\v18\Source\Source\_aiinterface\ActionMoverMsg.cpp
; File C:\IAGOS\server\v18\Source\Source\_AIInterface\Action.h
; File C:\IAGOS\server\v18\Source\Source\_aiinterface\ActionMoverMsg.cpp
; File C:\IAGOS\server\v18\Source\Source\_AIInterface\Action.h
; File C:\IAGOS\server\v18\Source\Source\_aiinterface\ActionMoverMsg.cpp
; File C:\IAGOS\server\v18\Source\Source\_AIInterface\Action.h
; File C:\IAGOS\server\v18\Source\Source\_aiinterface\ActionMoverMsg.cpp
; File C:\IAGOS\server\v18\Source\Source\_AIInterface\Action.h
; File C:\IAGOS\server\v18\Source\Source\_aiinterface\ActionMoverMsg.cpp
; File C:\IAGOS\server\v18\Source\Source\_AIInterface\Action.h
; File C:\IAGOS\server\v18\Source\Source\_aiinterface\ActionMoverMsg.cpp
; File C:\IAGOS\server\v18\Source\Source\_AIInterface\Action.h
; File C:\IAGOS\server\v18\Source\Source\_aiinterface\ActionMoverMsg.cpp
; File C:\IAGOS\server\v18\Source\Source\_AIInterface\Action.h
; File C:\IAGOS\server\v18\Source\Source\_aiinterface\ActionMoverMsg.cpp
; File C:\IAGOS\server\v18\Source\Source\_AIInterface\Action.h
; File C:\IAGOS\server\v18\Source\Source\_aiinterface\ActionMoverMsg.cpp
; File C:\IAGOS\server\v18\Source\Source\_AIInterface\Action.h
; File C:\IAGOS\server\v18\Source\Source\_aiinterface\ActionMoverMsg.cpp
; File C:\IAGOS\server\v18\Source\Source\_AIInterface\Action.h
; File C:\IAGOS\server\v18\Source\Source\_aiinterface\ActionMoverMsg.cpp
; File C:\IAGOS\server\v18\Source\Source\_AIInterface\Action.h
; File C:\IAGOS\server\v18\Source\Source\_aiinterface\ActionMoverMsg.cpp
; File C:\IAGOS\server\v18\Source\Source\_AIInterface\Action.h
; File C:\IAGOS\server\v18\Source\Source\_aiinterface\ActionMoverMsg.cpp
; File C:\IAGOS\server\v18\Source\Source\_AIInterface\Action.h
; File C:\IAGOS\server\v18\Source\Source\_aiinterface\ActionMoverMsg.cpp
; File C:\IAGOS\server\v18\Source\Source\_AIInterface\Action.h
; File C:\IAGOS\server\v18\Source\Source\_aiinterface\ActionMoverMsg.cpp
; File C:\IAGOS\server\v18\Source\Source\_AIInterface\Action.h
; File C:\IAGOS\server\v18\Source\Source\_aiinterface\ActionMoverMsg.cpp
; File C:\IAGOS\server\v18\Source\Source\_AIInterface\Action.h
; File C:\IAGOS\server\v18\Source\Source\_aiinterface\ActionMoverMsg.cpp
; File C:\IAGOS\server\v18\Source\Source\_Common\Obj.h
; File C:\IAGOS\server\v18\Source\Source\_aiinterface\ActionMoverMsg.cpp
; File C:\IAGOS\server\v18\Source\Source\_AIInterface\Action.h
; File C:\IAGOS\server\v18\Source\Source\_aiinterface\ActionMoverMsg.cpp
; File C:\IAGOS\server\v18\Source\Source\_AIInterface\Action.h
; File C:\IAGOS\server\v18\Source\Source\_aiinterface\ActionMoverMsg.cpp
; File C:\IAGOS\server\v18\Source\Source\_AIInterface\Action.h
; File C:\IAGOS\server\v18\Source\Source\_aiinterface\ActionMoverMsg.cpp
; File C:\IAGOS\server\v18\Source\Source\_AIInterface\Action.h
; File C:\IAGOS\server\v18\Source\Source\_aiinterface\ActionMoverMsg.cpp
; File C:\IAGOS\server\v18\Source\Source\_Common\Obj.h
; File C:\IAGOS\server\v18\Source\Source\_aiinterface\ActionMoverMsg.cpp
; File C:\IAGOS\server\v18\Source\Source\_AIInterface\Action.h
; File C:\IAGOS\server\v18\Source\Source\_aiinterface\ActionMoverMsg.cpp
; File C:\IAGOS\server\v18\Source\Source\_AIInterface\Action.h
; File C:\IAGOS\server\v18\Source\Source\_aiinterface\ActionMoverMsg.cpp
; File C:\IAGOS\server\v18\Source\Source\_AIInterface\Action.h
; File C:\IAGOS\server\v18\Source\Source\_aiinterface\ActionMoverMsg.cpp
; File C:\IAGOS\server\v18\Source\Source\_AIInterface\Action.h
; File C:\IAGOS\server\v18\Source\Source\_aiinterface\ActionMoverMsg.cpp
; File C:\IAGOS\server\v18\Source\Source\_Common\Obj.h
; File C:\IAGOS\server\v18\Source\Source\_aiinterface\ActionMoverMsg.cpp
; File C:\IAGOS\server\v18\Source\Source\_AIInterface\Action.h
; File C:\IAGOS\server\v18\Source\Source\_aiinterface\ActionMoverMsg.cpp
; File C:\IAGOS\server\v18\Source\Source\_AIInterface\Action.h
; File C:\IAGOS\server\v18\Source\Source\_aiinterface\ActionMoverMsg.cpp
; File C:\IAGOS\server\v18\Source\Source\_AIInterface\Action.h
; File C:\IAGOS\server\v18\Source\Source\_aiinterface\ActionMoverMsg.cpp
; File C:\IAGOS\server\v18\Source\Source\_AIInterface\Action.h
; File C:\IAGOS\server\v18\Source\Source\_aiinterface\ActionMoverMsg.cpp
; File C:\IAGOS\server\v18\Source\Source\_AIInterface\Action.h
; File C:\IAGOS\server\v18\Source\Source\_aiinterface\ActionMoverMsg.cpp
; File C:\IAGOS\server\v18\Source\Source\_AIInterface\Action.h
; File C:\IAGOS\server\v18\Source\Source\_aiinterface\ActionMoverMsg.cpp
; File C:\IAGOS\server\v18\Source\Source\_Common\Obj.h
; File C:\IAGOS\server\v18\Source\Source\_aiinterface\ActionMoverMsg.cpp
; File C:\IAGOS\server\v18\Source\Source\_Common\Obj.h
; File C:\IAGOS\server\v18\Source\Source\_aiinterface\ActionMoverMsg.cpp
; File C:\IAGOS\server\v18\Source\Source\_Common\Obj.h
; File C:\IAGOS\server\v18\Source\Source\_aiinterface\ActionMoverMsg.cpp
; File C:\IAGOS\server\v18\Source\Source\_AIInterface\Action.h
; File C:\IAGOS\server\v18\Source\Source\_aiinterface\ActionMoverMsg.cpp
; File C:\IAGOS\server\v18\Source\Source\_AIInterface\Action.h
; File C:\IAGOS\server\v18\Source\Source\_aiinterface\ActionMoverMsg.cpp
; File C:\IAGOS\server\v18\Source\Source\_AIInterface\Action.h
; File C:\IAGOS\server\v18\Source\Source\_aiinterface\ActionMoverMsg.cpp
; File C:\IAGOS\server\v18\Source\Source\_Common\Obj.h
; File C:\IAGOS\server\v18\Source\Source\_aiinterface\ActionMoverMsg.cpp
; File C:\IAGOS\server\v18\Source\Source\_Common\Obj.h
; File C:\IAGOS\server\v18\Source\Source\_aiinterface\ActionMoverMsg.cpp
; File C:\IAGOS\server\v18\Source\Source\_AIInterface\Action.h
; File C:\IAGOS\server\v18\Source\Source\_aiinterface\ActionMoverMsg.cpp
; File C:\IAGOS\server\v18\Source\Source\_Common\Obj.h
; File C:\IAGOS\server\v18\Source\Source\_aiinterface\ActionMoverMsg.cpp
; File C:\IAGOS\server\v18\Source\Source\_AIInterface\Action.h
; File C:\IAGOS\server\v18\Source\Source\_aiinterface\ActionMoverMsg.cpp
; File C:\IAGOS\server\v18\Source\Source\_AIInterface\Action.h
; File C:\IAGOS\server\v18\Source\Source\_aiinterface\ActionMoverMsg.cpp
; File C:\IAGOS\server\v18\Source\Source\_AIInterface\Action.h
; File C:\IAGOS\server\v18\Source\Source\_aiinterface\ActionMoverMsg.cpp
; File C:\IAGOS\server\v18\Source\Source\_Common\Obj.h
; File C:\IAGOS\server\v18\Source\Source\_aiinterface\ActionMoverMsg.cpp
; File C:\IAGOS\server\v18\Source\Source\_AIInterface\Action.h
; File C:\IAGOS\server\v18\Source\Source\_aiinterface\ActionMoverMsg.cpp
; File C:\IAGOS\server\v18\Source\Source\_AIInterface\Action.h
; File C:\IAGOS\server\v18\Source\Source\_aiinterface\ActionMoverMsg.cpp
; File C:\IAGOS\server\v18\Source\Source\_Common\Obj.h
; File C:\IAGOS\server\v18\Source\Source\_aiinterface\ActionMoverMsg.cpp
; File C:\IAGOS\server\v18\Source\Source\_Common\Obj.h
; File C:\IAGOS\server\v18\Source\Source\_aiinterface\ActionMoverMsg.cpp
; File C:\IAGOS\server\v18\Source\Source\_Common\Mover.h
; File C:\IAGOS\server\v18\Source\Source\_aiinterface\ActionMoverMsg.cpp
; File C:\IAGOS\server\v18\Source\Source\_AIInterface\Action.h
; File C:\IAGOS\server\v18\Source\Source\_aiinterface\ActionMoverMsg.cpp
; File C:\IAGOS\server\v18\Source\Source\_AIInterface\Action.h
; File C:\IAGOS\server\v18\Source\Source\_aiinterface\ActionMoverMsg.cpp
; File C:\IAGOS\server\v18\Source\Source\_AIInterface\Action.h
; File C:\IAGOS\server\v18\Source\Source\_aiinterface\ActionMoverMsg.cpp
; File C:\IAGOS\server\v18\Source\Source\_AIInterface\Action.h
; File C:\IAGOS\server\v18\Source\Source\_aiinterface\ActionMoverMsg.cpp
; File C:\IAGOS\server\v18\Source\Source\_AIInterface\Action.h
; File C:\IAGOS\server\v18\Source\Source\_aiinterface\ActionMoverMsg.cpp
; File C:\IAGOS\server\v18\Source\Source\_AIInterface\Action.h
; File C:\IAGOS\server\v18\Source\Source\_aiinterface\ActionMoverMsg.cpp
; File C:\IAGOS\server\v18\Source\Source\_AIInterface\Action.h
; File C:\IAGOS\server\v18\Source\Source\_aiinterface\ActionMoverMsg.cpp
; File C:\IAGOS\server\v18\Source\Source\_AIInterface\Action.h
; File C:\IAGOS\server\v18\Source\Source\_aiinterface\ActionMoverMsg.cpp
; File C:\IAGOS\server\v18\Source\Source\_AIInterface\Action.h
; File C:\IAGOS\server\v18\Source\Source\_aiinterface\ActionMoverMsg.cpp
; File C:\IAGOS\server\v18\Source\Source\_Common\Obj.h
; File C:\IAGOS\server\v18\Source\Source\_aiinterface\ActionMoverMsg.cpp
; File C:\IAGOS\server\v18\Source\Source\_Common\Obj.h
; File C:\IAGOS\server\v18\Source\Source\_aiinterface\ActionMoverMsg.cpp
; File C:\Program Files\Microsoft Visual Studio\2022\Professional\VC\Tools\MSVC\14.44.35207\atlmfc\include\afxstr.h
; File C:\Program Files\Microsoft Visual Studio\2022\Professional\VC\Tools\MSVC\14.44.35207\atlmfc\include\atlsimpstr.h
; File C:\Program Files\Microsoft Visual Studio\2022\Professional\VC\Tools\MSVC\14.44.35207\atlmfc\include\cstringt.h
; File C:\Program Files\Microsoft Visual Studio\2022\Professional\VC\Tools\MSVC\14.44.35207\atlmfc\include\atlsimpstr.h
; File C:\IAGOS\server\v18\Source\Source\_aiinterface\ActionMoverMsg.cpp
; File C:\IAGOS\server\v18\Source\Source\_Common\Mover.h
; File C:\IAGOS\server\v18\Source\Source\_aiinterface\ActionMoverMsg.cpp
; File C:\IAGOS\server\v18\Source\Source\_AIInterface\Action.h
; File C:\IAGOS\server\v18\Source\Source\_aiinterface\ActionMoverMsg.cpp
; File C:\IAGOS\server\v18\Source\Source\_AIInterface\Action.h
; File C:\IAGOS\server\v18\Source\Source\_aiinterface\ActionMoverMsg.cpp
; File C:\Program Files\Microsoft Visual Studio\2022\Professional\VC\Tools\MSVC\14.44.35207\atlmfc\include\atlsimpstr.h
; File C:\IAGOS\server\v18\Source\Source\_aiinterface\ActionMoverMsg.cpp
;	COMDAT ?ProcessActMsg1@CActionMover@@QAEHPAVCMover@@W4OBJMSG@@HHHHH@Z
_TEXT	SEGMENT
$T2 = -40						; size = 12
$T3 = -40						; size = 12
$T4 = -40						; size = 12
$T5 = -28						; size = 12
$T6 = -28						; size = 12
$T7 = -28						; size = 12
_this$1$ = -16						; size = 4
__$EHRec$ = -12						; size = 12
_pMover$ = 8						; size = 4
_pModel$1$ = 8						; size = 4
_dwMsg$ = 12						; size = 4
tv2950 = 16						; size = 4
_nParam1$ = 16						; size = 4
tv1197 = 16						; size = 4
$T8 = 16						; size = 4
_pHitObj$1$ = 16					; size = 4
_pHitObj$1$ = 16					; size = 4
_strMotion$9 = 20					; size = 4
_nParam2$ = 20						; size = 4
tv4566 = 20						; size = 4
_pItemElem$1$ = 20					; size = 4
_pHitObj$1$ = 20					; size = 4
_nLoop$1$ = 20						; size = 4
_pAttacker$1$ = 20					; size = 4
_pHitObj$1$ = 24					; size = 4
_dwMotion$1$ = 24					; size = 4
_nParam3$ = 24						; size = 4
_pParty2$1$ = 24					; size = 4
_pParty$1$ = 24						; size = 4
_nParam4$ = 28						; size = 4
_pHitObj$1$ = 28					; size = 4
_pHitObj$1$ = 32					; size = 4
_nParam5$ = 32						; size = 4
?ProcessActMsg1@CActionMover@@QAEHPAVCMover@@W4OBJMSG@@HHHHH@Z PROC ; CActionMover::ProcessActMsg1, COMDAT
; _this$ = ecx

; 102  : {

  00000	55		 push	 ebp
  00001	8b ec		 mov	 ebp, esp
  00003	6a ff		 push	 -1
  00005	68 00 00 00 00	 push	 __ehhandler$?ProcessActMsg1@CActionMover@@QAEHPAVCMover@@W4OBJMSG@@HHHHH@Z
  0000a	64 a1 00 00 00
	00		 mov	 eax, DWORD PTR fs:0
  00010	50		 push	 eax
  00011	83 ec 1c	 sub	 esp, 28			; 0000001cH
  00014	53		 push	 ebx
  00015	56		 push	 esi
  00016	57		 push	 edi
  00017	a1 00 00 00 00	 mov	 eax, DWORD PTR ___security_cookie
  0001c	33 c5		 xor	 eax, ebp
  0001e	50		 push	 eax
  0001f	8d 45 f4	 lea	 eax, DWORD PTR __$EHRec$[ebp]
  00022	64 a3 00 00 00
	00		 mov	 DWORD PTR fs:0, eax
  00028	8b f1		 mov	 esi, ecx
  0002a	89 75 f0	 mov	 DWORD PTR _this$1$[ebp], esi
  0002d	8b 7d 08	 mov	 edi, DWORD PTR _pMover$[ebp]

; 103  : 	CModelObject* pModel = (CModelObject*)pMover->m_pModel;
; 104  : 
; 105  : 	switch( dwMsg )

  00030	8b 5d 0c	 mov	 ebx, DWORD PTR _dwMsg$[ebp]
  00033	8b 87 78 01 00
	00		 mov	 eax, DWORD PTR [edi+376]
  00039	89 45 08	 mov	 DWORD PTR _pModel$1$[ebp], eax
  0003c	8d 43 ff	 lea	 eax, DWORD PTR [ebx-1]
  0003f	83 f8 36	 cmp	 eax, 54			; 00000036H
  00042	0f 87 99 17 00
	00		 ja	 $LN2@ProcessAct
  00048	0f b6 80 00 00
	00 00		 movzx	 eax, BYTE PTR $LN931@ProcessAct[eax]
  0004f	ff 24 85 00 00
	00 00		 jmp	 DWORD PTR $LN932@ProcessAct[eax*4]
$LN14@ProcessAct:
; File C:\IAGOS\server\v18\Source\Source\_AIInterface\Action.h

; 300  : 	DWORD			GetMoveState() { return m_dwState & OBJSTA_MOVE_ALL; }

  00056	8b 46 04	 mov	 eax, DWORD PTR [esi+4]
  00059	25 ff 00 00 00	 and	 eax, 255		; 000000ffH
; File C:\IAGOS\server\v18\Source\Source\_aiinterface\ActionMoverMsg.cpp

; 112  : 		if( (GetMoveState() == OBJSTA_FMOVE) || (GetMoveState() == OBJSTA_BMOVE) )	// 전/후진중일때 제자리에 세운다.

  0005e	83 f8 04	 cmp	 eax, 4
  00061	74 05		 je	 SHORT $LN16@ProcessAct
  00063	83 f8 05	 cmp	 eax, 5
  00066	75 3a		 jne	 SHORT $LN17@ProcessAct
$LN16@ProcessAct:

; 113  : #endif //__Y_INTERFACE_VER3
; 114  : 		{
; 115  : 			ResetState( OBJSTA_MOVE_ALL );		

  00068	68 ff 00 00 00	 push	 255			; 000000ffH
  0006d	e8 00 00 00 00	 call	 ?ResetState@CAction@@QAEXK@Z ; CAction::ResetState

; 116  : 			m_vDelta.x = m_vDelta.z = 0;

  00072	c7 46 58 00 00
	00 00		 mov	 DWORD PTR [esi+88], 0
  00079	c7 46 50 00 00
	00 00		 mov	 DWORD PTR [esi+80], 0

; 117  : 			if( pMover->IsFlyingNPC() )

  00080	f7 87 3c 02 00
	00 00 00 01 00	 test	 DWORD PTR [edi+572], 65536 ; 00010000H
  0008a	74 16		 je	 SHORT $LN17@ProcessAct

; 118  : 			{
; 119  : 				m_vDelta.y = 0;
; 120  : 				pMover->SetAngleX(0);

  0008c	51		 push	 ecx
  0008d	8b cf		 mov	 ecx, edi
  0008f	c7 46 54 00 00
	00 00		 mov	 DWORD PTR [esi+84], 0
  00096	c7 04 24 00 00
	00 00		 mov	 DWORD PTR [esp], 0
  0009d	e8 00 00 00 00	 call	 ?SetAngleX@CObj@@QAEXM@Z ; CObj::SetAngleX
$LN17@ProcessAct:
; File C:\IAGOS\server\v18\Source\Source\_AIInterface\Action.h

; 300  : 	DWORD			GetMoveState() { return m_dwState & OBJSTA_MOVE_ALL; }

  000a2	8b 46 04	 mov	 eax, DWORD PTR [esi+4]
  000a5	0f b6 c8	 movzx	 ecx, al
; File C:\IAGOS\server\v18\Source\Source\_aiinterface\ActionMoverMsg.cpp

; 124  : 		if( GetMoveState() == OBJSTA_STAND )	return 0;

  000a8	83 f9 01	 cmp	 ecx, 1
  000ab	0f 84 fe 00 00
	00		 je	 $LN777@ProcessAct

; 125  : 		if( GetMoveState() == OBJSTA_PICKUP )	return 0;

  000b1	83 f9 08	 cmp	 ecx, 8
  000b4	0f 84 f5 00 00
	00		 je	 $LN777@ProcessAct
; File C:\IAGOS\server\v18\Source\Source\_AIInterface\Action.h

; 321  : 	BOOL			IsActJump()		{ return m_dwState & OBJSTA_JUMP_ALL; }

  000ba	a9 00 f0 00 00	 test	 eax, 61440		; 0000f000H
; File C:\IAGOS\server\v18\Source\Source\_aiinterface\ActionMoverMsg.cpp

; 126  : 		if( IsActJump() )		return -1;

  000bf	0f 85 33 0f 00
	00		 jne	 $LN817@ProcessAct
; File C:\IAGOS\server\v18\Source\Source\_AIInterface\Action.h

; 322  : 	BOOL			IsActAttack()		{ return m_dwState & OBJSTA_ATK_ALL; }

  000c5	a9 00 00 ff 00	 test	 eax, 16711680		; 00ff0000H
; File C:\IAGOS\server\v18\Source\Source\_aiinterface\ActionMoverMsg.cpp

; 127  : 		if( IsActAttack() )		return -2;

  000ca	0f 85 45 11 00
	00		 jne	 $LN809@ProcessAct
; File C:\IAGOS\server\v18\Source\Source\_AIInterface\Action.h

; 323  : 	BOOL			IsActDamage()		{ return m_dwState & OBJSTA_DMG_ALL; }

  000d0	a9 00 00 00 0f	 test	 eax, 251658240		; 0f000000H
; File C:\IAGOS\server\v18\Source\Source\_aiinterface\ActionMoverMsg.cpp

; 128  : 		if( IsActDamage() )		return -3;

  000d5	0f 85 04 0f 00
	00		 jne	 $LN818@ProcessAct

; 129  : 		if( IsDie() )			return -4;

  000db	a9 00 00 00 08	 test	 eax, 134217728		; 08000000H
  000e0	74 19		 je	 SHORT $LN23@ProcessAct
  000e2	b8 fc ff ff ff	 mov	 eax, -4			; fffffffcH

; 1179 : }

  000e7	8b 4d f4	 mov	 ecx, DWORD PTR __$EHRec$[ebp]
  000ea	64 89 0d 00 00
	00 00		 mov	 DWORD PTR fs:0, ecx
  000f1	59		 pop	 ecx
  000f2	5f		 pop	 edi
  000f3	5e		 pop	 esi
  000f4	5b		 pop	 ebx
  000f5	8b e5		 mov	 esp, ebp
  000f7	5d		 pop	 ebp
  000f8	c2 1c 00	 ret	 28			; 0000001cH
$LN23@ProcessAct:
; File C:\IAGOS\server\v18\Source\Source\_AIInterface\Action.h

; 314  : 	BOOL			IsAction() { return (m_dwState & OBJSTA_ACTION_ALL) ? TRUE : FALSE; }

  000fb	a9 00 00 00 f0	 test	 eax, -268435456		; f0000000H
; File C:\IAGOS\server\v18\Source\Source\_aiinterface\ActionMoverMsg.cpp

; 130  : 		if( IsAction() )		return 0;

  00100	0f 85 a9 00 00
	00		 jne	 $LN777@ProcessAct
; File C:\IAGOS\server\v18\Source\Source\_AIInterface\Action.h

; 293  : 	void			SetMoveState( DWORD dwState ) { ResetState(OBJSTA_MOVE_ALL);	m_dwState |= dwState; }

  00106	68 ff 00 00 00	 push	 255			; 000000ffH
  0010b	8b ce		 mov	 ecx, esi
  0010d	e8 00 00 00 00	 call	 ?ResetState@CAction@@QAEXK@Z ; CAction::ResetState
  00112	83 4e 04 01	 or	 DWORD PTR [esi+4], 1
; File C:\IAGOS\server\v18\Source\Source\_aiinterface\ActionMoverMsg.cpp

; 132  : 		pMover->SetMotion( MTI_STAND );

  00116	8b cf		 mov	 ecx, edi
  00118	8b 07		 mov	 eax, DWORD PTR [edi]
  0011a	6a 00		 push	 0
  0011c	6a 04		 push	 4
  0011e	6a 00		 push	 0
  00120	ff 50 04	 call	 DWORD PTR [eax+4]

; 133  : 		RemoveStateFlag( OBJSTAF_ETC );

  00123	6a 20		 push	 32			; 00000020H
  00125	8b ce		 mov	 ecx, esi
  00127	e8 00 00 00 00	 call	 ?RemoveStateFlag@CAction@@QAEXK@Z ; CAction::RemoveStateFlag

; 134  : 		break;

  0012c	e9 b0 16 00 00	 jmp	 $LN2@ProcessAct
$LN25@ProcessAct:
; File C:\IAGOS\server\v18\Source\Source\_AIInterface\Action.h

; 300  : 	DWORD			GetMoveState() { return m_dwState & OBJSTA_MOVE_ALL; }

  00131	8b 46 04	 mov	 eax, DWORD PTR [esi+4]
  00134	25 ff 00 00 00	 and	 eax, 255		; 000000ffH
; File C:\IAGOS\server\v18\Source\Source\_aiinterface\ActionMoverMsg.cpp

; 140  : 		if( (GetMoveState() == OBJSTA_FMOVE) || (GetMoveState() == OBJSTA_BMOVE) )	// 전/후진중일때 제자리에 세운다.

  00139	83 f8 04	 cmp	 eax, 4
  0013c	74 05		 je	 SHORT $LN28@ProcessAct
  0013e	83 f8 05	 cmp	 eax, 5
  00141	75 3a		 jne	 SHORT $LN29@ProcessAct
$LN28@ProcessAct:

; 141  : 	#endif //__Y_INTERFACE_VER3
; 142  : 		{
; 143  : 			ResetState( OBJSTA_MOVE_ALL );		

  00143	68 ff 00 00 00	 push	 255			; 000000ffH
  00148	e8 00 00 00 00	 call	 ?ResetState@CAction@@QAEXK@Z ; CAction::ResetState

; 144  : 			m_vDelta.x = m_vDelta.z = 0;

  0014d	c7 46 58 00 00
	00 00		 mov	 DWORD PTR [esi+88], 0
  00154	c7 46 50 00 00
	00 00		 mov	 DWORD PTR [esi+80], 0

; 145  : 			if( pMover->IsFlyingNPC() )

  0015b	f7 87 3c 02 00
	00 00 00 01 00	 test	 DWORD PTR [edi+572], 65536 ; 00010000H
  00165	74 16		 je	 SHORT $LN29@ProcessAct

; 146  : 			{
; 147  : 				m_vDelta.y = 0;
; 148  : 				pMover->SetAngleX(0);

  00167	51		 push	 ecx
  00168	8b cf		 mov	 ecx, edi
  0016a	c7 46 54 00 00
	00 00		 mov	 DWORD PTR [esi+84], 0
  00171	c7 04 24 00 00
	00 00		 mov	 DWORD PTR [esp], 0
  00178	e8 00 00 00 00	 call	 ?SetAngleX@CObj@@QAEXM@Z ; CObj::SetAngleX
$LN29@ProcessAct:
; File C:\IAGOS\server\v18\Source\Source\_Common\Mover.h

; 1030 : 	void			ClearDestObj()     	{ m_idDest = NULL_ID; m_fArrivalRange = 0.0f; }

  0017d	c7 87 58 02 00
	00 ff ff ff ff	 mov	 DWORD PTR [edi+600], -1
  00187	c7 87 54 02 00
	00 00 00 00 00	 mov	 DWORD PTR [edi+596], 0

; 1031 : 	void			ClearDestPos()		{ m_vDestPos = D3DXVECTOR3( 0.0f, 0.0f, 0.0f ); }		

  00191	c7 87 5c 02 00
	00 00 00 00 00	 mov	 DWORD PTR [edi+604], 0
  0019b	c7 87 60 02 00
	00 00 00 00 00	 mov	 DWORD PTR [edi+608], 0
  001a5	c7 87 64 02 00
	00 00 00 00 00	 mov	 DWORD PTR [edi+612], 0
$LN777@ProcessAct:
; File C:\IAGOS\server\v18\Source\Source\_aiinterface\ActionMoverMsg.cpp

; 1179 : }

  001af	33 c0		 xor	 eax, eax
  001b1	8b 4d f4	 mov	 ecx, DWORD PTR __$EHRec$[ebp]
  001b4	64 89 0d 00 00
	00 00		 mov	 DWORD PTR fs:0, ecx
  001bb	59		 pop	 ecx
  001bc	5f		 pop	 edi
  001bd	5e		 pop	 esi
  001be	5b		 pop	 ebx
  001bf	8b e5		 mov	 esp, ebp
  001c1	5d		 pop	 ebp
  001c2	c2 1c 00	 ret	 28			; 0000001cH
$LN30@ProcessAct:

; 149  : 			}
; 150  : 		}
; 151  : 		pMover->ClearDest();
; 152  : 		return 0;	// ControlGround에서 키입력없을때 STOP을 부르는데 거기서 리턴값을 맞추기 위해 이렇게 했음. 
; 153  : 		break;
; 154  : 	case OBJMSG_SITDOWN:
; 155  : 		if( GetStateFlag() & OBJSTAF_SIT )	return 0;		// 이미 앉은모드면 리턴 - 플래그로 검사하지 말고 state로 직접검사하자.

  001c5	f6 46 08 04	 test	 BYTE PTR [esi+8], 4
  001c9	75 e4		 jne	 SHORT $LN777@ProcessAct

; 156  : 
; 157  : 		if( nParam3 == 0 )

  001cb	83 7d 18 00	 cmp	 DWORD PTR _nParam3$[ebp], 0
  001cf	75 11		 jne	 SHORT $LN765@ProcessAct
; File C:\IAGOS\server\v18\Source\Source\_AIInterface\Action.h

; 321  : 	BOOL			IsActJump()		{ return m_dwState & OBJSTA_JUMP_ALL; }

  001d1	8b 46 04	 mov	 eax, DWORD PTR [esi+4]
  001d4	a9 00 f0 ff 0f	 test	 eax, 268431360		; 0ffff000H
; File C:\IAGOS\server\v18\Source\Source\_aiinterface\ActionMoverMsg.cpp

; 159  : 			if( IsActJump() )	return 0;

  001d9	75 d4		 jne	 SHORT $LN777@ProcessAct
; File C:\IAGOS\server\v18\Source\Source\_AIInterface\Action.h

; 314  : 	BOOL			IsAction() { return (m_dwState & OBJSTA_ACTION_ALL) ? TRUE : FALSE; }

  001db	a9 00 00 00 f0	 test	 eax, -268435456		; f0000000H
; File C:\IAGOS\server\v18\Source\Source\_aiinterface\ActionMoverMsg.cpp

; 162  : 			if( IsAction() )	return 0;

  001e0	75 cd		 jne	 SHORT $LN777@ProcessAct
$LN765@ProcessAct:

; 163  : 		#ifdef __CLIENT
; 164  : 			if( pMover->IsActiveMover() && (pMover->m_dwReqFlag & REQ_USESKILL) )	return 0;		// 서버로부터 useskill응답이 오기전까진 액션해선 안됨.
; 165  : 		#endif	// __CLIENT
; 166  : 		}
; 167  : 		AddStateFlag( OBJSTAF_SIT );		

  001e2	6a 04		 push	 4
  001e4	e8 00 00 00 00	 call	 ?AddStateFlag@CAction@@QAEXK@Z ; CAction::AddStateFlag

; 168  : 		SendActMsg( OBJMSG_STOP );

  001e9	8b 06		 mov	 eax, DWORD PTR [esi]
  001eb	8b ce		 mov	 ecx, esi
  001ed	6a 00		 push	 0
  001ef	6a 00		 push	 0
  001f1	6a 00		 push	 0
  001f3	6a 00		 push	 0
  001f5	6a 00		 push	 0
  001f7	6a 06		 push	 6
  001f9	ff 50 04	 call	 DWORD PTR [eax+4]

; 169  : 		pMover->SetMotion( MTI_SIT, ANILOOP_CONT );		// 앉기 모션시작

  001fc	8b 07		 mov	 eax, DWORD PTR [edi]
  001fe	8b cf		 mov	 ecx, edi
  00200	6a 00		 push	 0
  00202	6a 02		 push	 2
  00204	6a 14		 push	 20			; 00000014H
  00206	ff 50 04	 call	 DWORD PTR [eax+4]
; File C:\IAGOS\server\v18\Source\Source\_AIInterface\Action.h

; 293  : 	void			SetMoveState( DWORD dwState ) { ResetState(OBJSTA_MOVE_ALL);	m_dwState |= dwState; }

  00209	68 ff 00 00 00	 push	 255			; 000000ffH
  0020e	8b ce		 mov	 ecx, esi
  00210	e8 00 00 00 00	 call	 ?ResetState@CAction@@QAEXK@Z ; CAction::ResetState
  00215	83 4e 04 03	 or	 DWORD PTR [esi+4], 3
; File C:\IAGOS\server\v18\Source\Source\_aiinterface\ActionMoverMsg.cpp

; 171  : 		break;

  00219	e9 c3 15 00 00	 jmp	 $LN2@ProcessAct
$LN37@ProcessAct:

; 172  : 	case OBJMSG_STANDUP:
; 173  : 		if( (GetStateFlag() & OBJSTAF_SIT) == 0 )	return 0;	

  0021e	f6 46 08 04	 test	 BYTE PTR [esi+8], 4
  00222	74 8b		 je	 SHORT $LN777@ProcessAct

; 174  : 
; 175  : 		if( nParam3 == 0 )

  00224	83 7d 18 00	 cmp	 DWORD PTR _nParam3$[ebp], 0
  00228	75 19		 jne	 SHORT $LN766@ProcessAct
; File C:\IAGOS\server\v18\Source\Source\_AIInterface\Action.h

; 321  : 	BOOL			IsActJump()		{ return m_dwState & OBJSTA_JUMP_ALL; }

  0022a	8b 46 04	 mov	 eax, DWORD PTR [esi+4]
  0022d	a9 00 f0 ff 0f	 test	 eax, 268431360		; 0ffff000H
; File C:\IAGOS\server\v18\Source\Source\_aiinterface\ActionMoverMsg.cpp

; 177  : 			if( IsActJump() )	return 0;

  00232	0f 85 77 ff ff
	ff		 jne	 $LN777@ProcessAct
; File C:\IAGOS\server\v18\Source\Source\_AIInterface\Action.h

; 314  : 	BOOL			IsAction() { return (m_dwState & OBJSTA_ACTION_ALL) ? TRUE : FALSE; }

  00238	a9 00 00 00 f0	 test	 eax, -268435456		; f0000000H
; File C:\IAGOS\server\v18\Source\Source\_aiinterface\ActionMoverMsg.cpp

; 180  : 			if( IsAction() )	return 0;

  0023d	0f 85 6c ff ff
	ff		 jne	 $LN777@ProcessAct
$LN766@ProcessAct:
; File C:\IAGOS\server\v18\Source\Source\_AIInterface\Action.h

; 293  : 	void			SetMoveState( DWORD dwState ) { ResetState(OBJSTA_MOVE_ALL);	m_dwState |= dwState; }

  00243	68 ff 00 00 00	 push	 255			; 000000ffH
  00248	e8 00 00 00 00	 call	 ?ResetState@CAction@@QAEXK@Z ; CAction::ResetState
  0024d	83 4e 04 03	 or	 DWORD PTR [esi+4], 3
; File C:\IAGOS\server\v18\Source\Source\_aiinterface\ActionMoverMsg.cpp

; 186  : 		AddStateFlag( OBJSTAF_SIT );		 

  00251	8b ce		 mov	 ecx, esi
  00253	6a 04		 push	 4
  00255	e8 00 00 00 00	 call	 ?AddStateFlag@CAction@@QAEXK@Z ; CAction::AddStateFlag

; 187  : 		pMover->SetMotion( MTI_GETUP, ANILOOP_CONT );

  0025a	6a 00		 push	 0
  0025c	6a 02		 push	 2
  0025e	6a 16		 push	 22			; 00000016H

; 188  : 		break;

  00260	e9 75 15 00 00	 jmp	 $LN937@ProcessAct
$LN44@ProcessAct:

; 189  : 	case OBJMSG_PICKUP:
; 190  : 		if( IsSit() )	return 0;

  00265	f6 46 08 04	 test	 BYTE PTR [esi+8], 4
  00269	0f 85 40 ff ff
	ff		 jne	 $LN777@ProcessAct
; File C:\IAGOS\server\v18\Source\Source\_AIInterface\Action.h

; 314  : 	BOOL			IsAction() { return (m_dwState & OBJSTA_ACTION_ALL) ? TRUE : FALSE; }

  0026f	8b 46 04	 mov	 eax, DWORD PTR [esi+4]
  00272	a9 00 f0 ff ff	 test	 eax, -4096		; fffff000H
; File C:\IAGOS\server\v18\Source\Source\_aiinterface\ActionMoverMsg.cpp

; 191  : 		if( IsAction() )	return 0;

  00277	0f 85 32 ff ff
	ff		 jne	 $LN777@ProcessAct

; 192  : 		if( IsActJump() )	return 0;
; 193  : 		if( IsActAttack() )	return 0;
; 194  : 		if( IsActDamage() )	return 0;
; 195  : #ifdef __CLIENT
; 196  : 		if( pMover->IsActiveMover() )
; 197  : 		{
; 198  : 			if( pMover->m_dwReqFlag & REQ_USESKILL )	return 0;		// 서버로부터 useskill응답이 오기전까진 액션해선 안됨.
; 199  : 			if( pMover->m_dwReqFlag & REQ_MOTION )		return 0;	// 서버로부터 모션 응답이 오기전까지 액션 금지.
; 200  : 		}
; 201  : #endif	// __CLIENT
; 202  : 		if( GetMoveState() == OBJSTA_PICKUP )	return 0;	// 이미 집고 있으면 추가로 실행되지 않게 .

  0027d	3c 08		 cmp	 al, 8
  0027f	0f 84 2a ff ff
	ff		 je	 $LN777@ProcessAct
; File C:\IAGOS\server\v18\Source\Source\_AIInterface\Action.h

; 293  : 	void			SetMoveState( DWORD dwState ) { ResetState(OBJSTA_MOVE_ALL);	m_dwState |= dwState; }

  00285	68 ff 00 00 00	 push	 255			; 000000ffH
  0028a	e8 00 00 00 00	 call	 ?ResetState@CAction@@QAEXK@Z ; CAction::ResetState
  0028f	83 4e 04 08	 or	 DWORD PTR [esi+4], 8
; File C:\IAGOS\server\v18\Source\Source\_aiinterface\ActionMoverMsg.cpp

; 204  : 		pMover->SetMotion( MTI_PICKUP, ANILOOP_1PLAY, MOP_FIXED );

  00293	6a 02		 push	 2
  00295	6a 01		 push	 1
  00297	6a 79		 push	 121			; 00000079H

; 205  : 		break;

  00299	e9 3c 15 00 00	 jmp	 $LN937@ProcessAct
$LN51@ProcessAct:

; 206  : 
; 207  : 	case OBJMSG_COLLECT:
; 208  : 		
; 209  : 		//if( IsSit() )		return 0;
; 210  : 		//if( IsAction() )	return 0;
; 211  : 		//if( IsActJump() )	return 0;
; 212  : 		//if( IsActAttack() )	return 0;
; 213  : 		//if( IsActDamage() )	return 0;
; 214  : 		//SetState( OBJSTA_ACTION_ALL, OBJSTA_COLLECT );
; 215  : 		//pMover->SetMotion( MTI_COLLECT, ANILOOP_LOOP, MOP_FIXED );
; 216  : 		//pMover->RemoveInvisible();
; 217  : 		
; 218  : 		// 康	// 채집
; 219  : 		ClearState();

  0029e	e8 00 00 00 00	 call	 ?ClearState@CAction@@QAEXXZ ; CAction::ClearState

; 220  : 		ResetState( OBJSTA_ACTION_ALL );

  002a3	68 00 00 00 f0	 push	 -268435456		; f0000000H
  002a8	8b ce		 mov	 ecx, esi
  002aa	e8 00 00 00 00	 call	 ?ResetState@CAction@@QAEXK@Z ; CAction::ResetState
; File C:\IAGOS\server\v18\Source\Source\_AIInterface\Action.h

; 292  : 	void			SetState( DWORD dwType, DWORD dwState )	{ ResetState(dwType);	m_dwState |= dwState; }

  002af	68 00 00 00 f0	 push	 -268435456		; f0000000H
  002b4	8b ce		 mov	 ecx, esi
  002b6	e8 00 00 00 00	 call	 ?ResetState@CAction@@QAEXK@Z ; CAction::ResetState
  002bb	81 4e 04 00 00
	00 10		 or	 DWORD PTR [esi+4], 268435456 ; 10000000H
; File C:\IAGOS\server\v18\Source\Source\_aiinterface\ActionMoverMsg.cpp

; 223  : 		pMover->SetMotion( MTI_COLLECT, ANILOOP_LOOP, MOP_FIXED );

  002c2	8b cf		 mov	 ecx, edi
  002c4	8b 07		 mov	 eax, DWORD PTR [edi]
  002c6	81 8f 44 02 00
	00 00 07 00 00	 or	 DWORD PTR [edi+580], 1792 ; 00000700H
  002d0	6a 02		 push	 2
  002d2	6a 04		 push	 4
  002d4	68 8e 00 00 00	 push	 142			; 0000008eH
  002d9	ff 50 04	 call	 DWORD PTR [eax+4]

; 224  : 		pMover->RemoveInvisible();

  002dc	8b cf		 mov	 ecx, edi
  002de	e8 00 00 00 00	 call	 ?RemoveInvisible@CMover@@QAEXXZ ; CMover::RemoveInvisible

; 225  : 		break;

  002e3	e9 f9 14 00 00	 jmp	 $LN2@ProcessAct
$LN52@ProcessAct:
; File C:\IAGOS\server\v18\Source\Source\_AIInterface\Action.h

; 292  : 	void			SetState( DWORD dwType, DWORD dwState )	{ ResetState(dwType);	m_dwState |= dwState; }

  002e8	68 00 00 00 f0	 push	 -268435456		; f0000000H
  002ed	e8 00 00 00 00	 call	 ?ResetState@CAction@@QAEXK@Z ; CAction::ResetState
  002f2	81 4e 04 00 00
	00 40		 or	 DWORD PTR [esi+4], 1073741824 ; 40000000H
; File C:\IAGOS\server\v18\Source\Source\_aiinterface\ActionMoverMsg.cpp

; 230  : 		pMover->m_wStunCnt = (short)nParam1;			// 얼마동안이나 스턴상태가 되느냐.

  002f9	66 8b 45 10	 mov	 ax, WORD PTR _nParam1$[ebp]
  002fd	81 8f 44 02 00
	00 00 07 00 00	 or	 DWORD PTR [edi+580], 1792 ; 00000700H
  00307	66 89 87 c4 06
	00 00		 mov	 WORD PTR [edi+1732], ax

; 231  : 
; 232  : 		if( GetState() == OBJSTA_STAND )

  0030e	83 7e 04 01	 cmp	 DWORD PTR [esi+4], 1
  00312	0f 85 c9 14 00
	00		 jne	 $LN2@ProcessAct

; 233  : 			pMover->SetMotion( MTI_GROGGY, ANILOOP_LOOP, MOP_FIXED );		// 아무것도 안하는 스탠딩 상태면 스턴 모션 내자.

  00318	6a 02		 push	 2
  0031a	6a 04		 push	 4
  0031c	6a 0c		 push	 12			; 0000000cH

; 234  : 		break;

  0031e	e9 b7 14 00 00	 jmp	 $LN937@ProcessAct
$LN54@ProcessAct:
; File C:\IAGOS\server\v18\Source\Source\_AIInterface\Action.h

; 321  : 	BOOL			IsActJump()		{ return m_dwState & OBJSTA_JUMP_ALL; }

  00323	f7 46 04 00 f0
	00 00		 test	 DWORD PTR [esi+4], 61440 ; 0000f000H
; File C:\IAGOS\server\v18\Source\Source\_aiinterface\ActionMoverMsg.cpp

; 237  : 		if( IsActJump() )	return 0;

  0032a	0f 85 7f fe ff
	ff		 jne	 $LN777@ProcessAct

; 238  : 
; 239  : 		// 무적이면 여기서 리턴.
; 240  : 		if( pMover->m_dwMode & MATCHLESS_MODE )		

  00330	f6 87 40 02 00
	00 01		 test	 BYTE PTR [edi+576], 1
  00337	0f 85 72 fe ff
	ff		 jne	 $LN777@ProcessAct

; 241  : 			return 0;
; 242  : 		
; 243  : 		pMover->m_dwFlag |= MVRF_NOACTION;				// 액션 금지 상태로 전환.

  0033d	81 8f 44 02 00
	00 00 07 00 00	 or	 DWORD PTR [edi+580], 1792 ; 00000700H

; 244  : 		
; 245  : 		if( GetState() != OBJSTA_DMG_FLY )

  00347	81 7e 04 00 00
	00 02		 cmp	 DWORD PTR [esi+4], 33554432 ; 02000000H
  0034e	0f 84 8d 14 00
	00		 je	 $LN2@ProcessAct
; File C:\IAGOS\server\v18\Source\Source\_AIInterface\Action.h

; 292  : 	void			SetState( DWORD dwType, DWORD dwState )	{ ResetState(dwType);	m_dwState |= dwState; }

  00354	68 00 00 00 0f	 push	 251658240		; 0f000000H
  00359	e8 00 00 00 00	 call	 ?ResetState@CAction@@QAEXK@Z ; CAction::ResetState
  0035e	81 4e 04 00 00
	00 02		 or	 DWORD PTR [esi+4], 33554432 ; 02000000H
; File C:\IAGOS\server\v18\Source\Source\_aiinterface\ActionMoverMsg.cpp

; 248  : 			pMover->SetMotion( MTI_DMGFLY, ANILOOP_LOOP, MOP_FIXED );

  00365	6a 02		 push	 2
  00367	6a 04		 push	 4
  00369	6a 0b		 push	 11			; 0000000bH

; 249  : 		}
; 250  : 		break;

  0036b	e9 6a 14 00 00	 jmp	 $LN937@ProcessAct
$LN58@ProcessAct:

; 251  : 		
; 252  : 	// 전진해라!
; 253  : 	case OBJMSG_TURNMOVE:
; 254  : 		if( GetMoveState() == OBJSTA_FMOVE && (int)pMover->GetAngle() == nParam1 )	return 0;	// 전진 상태이며 각도가 같으면 메시지 무효 

  00370	80 7e 04 04	 cmp	 BYTE PTR [esi+4], 4
  00374	8b 5d 10	 mov	 ebx, DWORD PTR _nParam1$[ebp]
  00377	75 0d		 jne	 SHORT $LN59@ProcessAct
  00379	f3 0f 2c 47 18	 cvttss2si eax, DWORD PTR [edi+24]
  0037e	3b c3		 cmp	 eax, ebx
  00380	0f 84 29 fe ff
	ff		 je	 $LN777@ProcessAct
$LN59@ProcessAct:

; 255  : 		if( pMover->m_dwFlag & MVRF_NOMOVE )	

  00386	f7 87 44 02 00
	00 00 01 00 00	 test	 DWORD PTR [edi+580], 256 ; 00000100H
  00390	0f 85 19 fe ff
	ff		 jne	 $LN777@ProcessAct

; 256  : 			return 0;		// 이동금지 상태면 걍 리턴.
; 257  : #if __VER >= 10 // __LEGEND	//	10차 전승시스템	Neuz, World, Trans
; 258  : 		if( pMover->GetAdjParam( DST_CHRSTATE ) & CHS_LOOT)			return 0;

  00396	6a 40		 push	 64			; 00000040H
  00398	8b cf		 mov	 ecx, edi
  0039a	e8 00 00 00 00	 call	 ?GetAdjParam@CMover@@QAEHH@Z ; CMover::GetAdjParam
  0039f	a9 00 00 08 00	 test	 eax, 524288		; 00080000H
  003a4	0f 85 05 fe ff
	ff		 jne	 $LN777@ProcessAct

; 259  : #endif	//__LEGEND	//	10차 전승시스템	Neuz, World, Trans
; 260  : 		
; 261  : 		if( GetState() & OBJSTA_DMG_FLY_ALL )	// 날라가는 동작중이면 취소

  003aa	8b 46 04	 mov	 eax, DWORD PTR [esi+4]
  003ad	a9 00 00 00 02	 test	 eax, 33554432		; 02000000H
  003b2	0f 85 f7 fd ff
	ff		 jne	 $LN777@ProcessAct
; File C:\IAGOS\server\v18\Source\Source\_AIInterface\Action.h

; 322  : 	BOOL			IsActAttack()		{ return m_dwState & OBJSTA_ATK_ALL; }

  003b8	a9 00 00 ff 00	 test	 eax, 16711680		; 00ff0000H
; File C:\IAGOS\server\v18\Source\Source\_aiinterface\ActionMoverMsg.cpp

; 264  : 		if( IsActAttack() )		return -2;

  003bd	0f 85 52 0e 00
	00		 jne	 $LN809@ProcessAct
; File C:\IAGOS\server\v18\Source\Source\_AIInterface\Action.h

; 304  : 	DWORD			GetDmgState() { return m_dwState & OBJSTA_DMG_ALL; }

  003c3	25 00 00 00 0f	 and	 eax, 251658240		; 0f000000H
; File C:\IAGOS\server\v18\Source\Source\_aiinterface\ActionMoverMsg.cpp

; 265  : 		if( GetDmgState() == OBJSTA_DMG )	// 피격 중 명령이면 피격 상태를 클리어 시킨다.

  003c8	3d 00 00 00 01	 cmp	 eax, 16777216		; 01000000H
  003cd	75 0e		 jne	 SHORT $LN64@ProcessAct

; 266  : 			ResetState( OBJSTA_DMG_ALL );

  003cf	68 00 00 00 0f	 push	 251658240		; 0f000000H
  003d4	8b ce		 mov	 ecx, esi
  003d6	e8 00 00 00 00	 call	 ?ResetState@CAction@@QAEXK@Z ; CAction::ResetState
  003db	eb 08		 jmp	 SHORT $LN66@ProcessAct
$LN64@ProcessAct:

; 267  : 		else if( GetState() & OBJSTA_DMG_ALL )	// 그외 피격동작은 다 취소

  003dd	85 c0		 test	 eax, eax
  003df	0f 85 fa 0b 00
	00		 jne	 $LN818@ProcessAct
$LN66@ProcessAct:
  003e5	66 0f 6e c3	 movd	 xmm0, ebx

; 268  : 			return -3;
; 269  : 		pMover->SetAngle( (float)nParam1 );

  003e9	0f 5b c0	 cvtdq2ps xmm0, xmm0
  003ec	51		 push	 ecx
  003ed	8b cf		 mov	 ecx, edi
  003ef	f3 0f 11 04 24	 movss	 DWORD PTR [esp], xmm0
  003f4	e8 00 00 00 00	 call	 ?SetAngle@CObj@@QAEXM@Z	; CObj::SetAngle

; 270  : 		if( pMover->IsFlyingNPC() )

  003f9	f7 87 3c 02 00
	00 00 00 01 00	 test	 DWORD PTR [edi+572], 65536 ; 00010000H
  00403	74 15		 je	 SHORT $LN67@ProcessAct

; 271  : 			pMover->SetAngleX( (float)nParam2 );

  00405	66 0f 6e 45 14	 movd	 xmm0, DWORD PTR _nParam2$[ebp]
  0040a	0f 5b c0	 cvtdq2ps xmm0, xmm0
  0040d	51		 push	 ecx
  0040e	8b cf		 mov	 ecx, edi
  00410	f3 0f 11 04 24	 movss	 DWORD PTR [esp], xmm0
  00415	e8 00 00 00 00	 call	 ?SetAngleX@CObj@@QAEXM@Z ; CObj::SetAngleX
$LN67@ProcessAct:

; 272  : 		SendActMsg( OBJMSG_STOP_TURN );

  0041a	8b 06		 mov	 eax, DWORD PTR [esi]
  0041c	8b ce		 mov	 ecx, esi
  0041e	6a 00		 push	 0
  00420	6a 00		 push	 0
  00422	6a 00		 push	 0
  00424	6a 00		 push	 0
  00426	6a 00		 push	 0
  00428	6a 0a		 push	 10			; 0000000aH
  0042a	ff 50 04	 call	 DWORD PTR [eax+4]

; 273  : 		SendActMsg( OBJMSG_FORWARD );

  0042d	8b 06		 mov	 eax, DWORD PTR [esi]
  0042f	8b ce		 mov	 ecx, esi
  00431	6a 00		 push	 0
  00433	6a 00		 push	 0
  00435	6a 00		 push	 0
  00437	6a 00		 push	 0
  00439	6a 00		 push	 0
  0043b	6a 01		 push	 1
  0043d	ff 50 04	 call	 DWORD PTR [eax+4]

; 274  : 		break;

  00440	e9 9c 13 00 00	 jmp	 $LN2@ProcessAct
$LN68@ProcessAct:

; 275  : 	case OBJMSG_TURNMOVE2:
; 276  : 		if( GetMoveState() == OBJSTA_FMOVE && (int)pMover->GetAngle() == nParam1 )	return 0;	// 전진 상태이며 각도가 같으면 메시지 무효 

  00445	80 7e 04 04	 cmp	 BYTE PTR [esi+4], 4
  00449	8b 5d 10	 mov	 ebx, DWORD PTR _nParam1$[ebp]
  0044c	75 0d		 jne	 SHORT $LN69@ProcessAct
  0044e	f3 0f 2c 47 18	 cvttss2si eax, DWORD PTR [edi+24]
  00453	3b c3		 cmp	 eax, ebx
  00455	0f 84 54 fd ff
	ff		 je	 $LN777@ProcessAct
$LN69@ProcessAct:

; 277  : 		if( pMover->m_dwFlag & MVRF_NOMOVE )	return 0;		// 이동금지 상태면 걍 리턴.

  0045b	f7 87 44 02 00
	00 00 01 00 00	 test	 DWORD PTR [edi+580], 256 ; 00000100H
  00465	0f 85 44 fd ff
	ff		 jne	 $LN777@ProcessAct

; 278  : #if __VER >= 10 // __LEGEND	//	10차 전승시스템	Neuz, World, Trans
; 279  : 		if( pMover->GetAdjParam( DST_CHRSTATE ) & CHS_LOOT)			return 0;

  0046b	6a 40		 push	 64			; 00000040H
  0046d	8b cf		 mov	 ecx, edi
  0046f	e8 00 00 00 00	 call	 ?GetAdjParam@CMover@@QAEHH@Z ; CMover::GetAdjParam
  00474	a9 00 00 08 00	 test	 eax, 524288		; 00080000H
  00479	0f 85 30 fd ff
	ff		 jne	 $LN777@ProcessAct
; File C:\IAGOS\server\v18\Source\Source\_AIInterface\Action.h

; 314  : 	BOOL			IsAction() { return (m_dwState & OBJSTA_ACTION_ALL) ? TRUE : FALSE; }

  0047f	8b 46 04	 mov	 eax, DWORD PTR [esi+4]
  00482	a9 00 00 00 f2	 test	 eax, -234881024		; f2000000H
; File C:\IAGOS\server\v18\Source\Source\_aiinterface\ActionMoverMsg.cpp

; 282  : 		if( IsAction() )	return 0;

  00487	0f 85 22 fd ff
	ff		 jne	 $LN777@ProcessAct
; File C:\IAGOS\server\v18\Source\Source\_AIInterface\Action.h

; 321  : 	BOOL			IsActJump()		{ return m_dwState & OBJSTA_JUMP_ALL; }

  0048d	a9 00 f0 00 00	 test	 eax, 61440		; 0000f000H
; File C:\IAGOS\server\v18\Source\Source\_aiinterface\ActionMoverMsg.cpp

; 287  : 		if( IsActJump() )	return -1;	// 점프거나 공격 상태면 메시지 무효 처리

  00492	0f 85 60 0b 00
	00		 jne	 $LN817@ProcessAct
; File C:\IAGOS\server\v18\Source\Source\_AIInterface\Action.h

; 322  : 	BOOL			IsActAttack()		{ return m_dwState & OBJSTA_ATK_ALL; }

  00498	a9 00 00 ff 00	 test	 eax, 16711680		; 00ff0000H
; File C:\IAGOS\server\v18\Source\Source\_aiinterface\ActionMoverMsg.cpp

; 288  : 		if( IsActAttack() )		return -2;

  0049d	0f 85 72 0d 00
	00		 jne	 $LN809@ProcessAct
; File C:\IAGOS\server\v18\Source\Source\_AIInterface\Action.h

; 304  : 	DWORD			GetDmgState() { return m_dwState & OBJSTA_DMG_ALL; }

  004a3	25 00 00 00 0f	 and	 eax, 251658240		; 0f000000H
; File C:\IAGOS\server\v18\Source\Source\_aiinterface\ActionMoverMsg.cpp

; 289  : 		if( GetDmgState() == OBJSTA_DMG )	// 피격 중 명령이면 피격 상태를 클리어 시킨다.

  004a8	3d 00 00 00 01	 cmp	 eax, 16777216		; 01000000H
  004ad	75 0e		 jne	 SHORT $LN76@ProcessAct

; 290  : 			ResetState( OBJSTA_DMG_ALL );

  004af	68 00 00 00 0f	 push	 251658240		; 0f000000H
  004b4	8b ce		 mov	 ecx, esi
  004b6	e8 00 00 00 00	 call	 ?ResetState@CAction@@QAEXK@Z ; CAction::ResetState
  004bb	eb 08		 jmp	 SHORT $LN78@ProcessAct
$LN76@ProcessAct:

; 291  : 		else if( GetState() & OBJSTA_DMG_ALL )	// 그외 피격동작은 다 취소

  004bd	85 c0		 test	 eax, eax
  004bf	0f 85 1a 0b 00
	00		 jne	 $LN818@ProcessAct
$LN78@ProcessAct:
  004c5	66 0f 6e c3	 movd	 xmm0, ebx

; 292  : 			return -3;
; 293  : 		pMover->SetAngle( (float)nParam1 );

  004c9	0f 5b c0	 cvtdq2ps xmm0, xmm0
  004cc	51		 push	 ecx
  004cd	8b cf		 mov	 ecx, edi
  004cf	f3 0f 11 04 24	 movss	 DWORD PTR [esp], xmm0
  004d4	e8 00 00 00 00	 call	 ?SetAngle@CObj@@QAEXM@Z	; CObj::SetAngle

; 294  : 		if( pMover->IsFlyingNPC() )

  004d9	f7 87 3c 02 00
	00 00 00 01 00	 test	 DWORD PTR [edi+572], 65536 ; 00010000H
  004e3	74 15		 je	 SHORT $LN79@ProcessAct

; 295  : 			pMover->SetAngleX( (float)nParam2 );

  004e5	66 0f 6e 45 14	 movd	 xmm0, DWORD PTR _nParam2$[ebp]
  004ea	0f 5b c0	 cvtdq2ps xmm0, xmm0
  004ed	51		 push	 ecx
  004ee	8b cf		 mov	 ecx, edi
  004f0	f3 0f 11 04 24	 movss	 DWORD PTR [esp], xmm0
  004f5	e8 00 00 00 00	 call	 ?SetAngleX@CObj@@QAEXM@Z ; CObj::SetAngleX
$LN79@ProcessAct:

; 296  : 		SendActMsg( OBJMSG_STOP_TURN );

  004fa	8b 06		 mov	 eax, DWORD PTR [esi]
  004fc	8b ce		 mov	 ecx, esi
  004fe	6a 00		 push	 0
  00500	6a 00		 push	 0
  00502	6a 00		 push	 0
  00504	6a 00		 push	 0
  00506	6a 00		 push	 0
  00508	6a 0a		 push	 10			; 0000000aH
  0050a	ff 50 04	 call	 DWORD PTR [eax+4]

; 297  : 		SendActMsg( OBJMSG_BACKWARD );

  0050d	8b 06		 mov	 eax, DWORD PTR [esi]
  0050f	8b ce		 mov	 ecx, esi
  00511	6a 00		 push	 0
  00513	6a 00		 push	 0
  00515	6a 00		 push	 0
  00517	6a 00		 push	 0
  00519	6a 00		 push	 0
  0051b	6a 02		 push	 2
  0051d	ff 50 04	 call	 DWORD PTR [eax+4]

; 298  : 		break;

  00520	e9 bc 12 00 00	 jmp	 $LN2@ProcessAct
$LN80@ProcessAct:
; File C:\IAGOS\server\v18\Source\Source\_AIInterface\Action.h

; 321  : 	BOOL			IsActJump()		{ return m_dwState & OBJSTA_JUMP_ALL; }

  00525	8b 46 04	 mov	 eax, DWORD PTR [esi+4]
  00528	a9 00 f0 00 00	 test	 eax, 61440		; 0000f000H
; File C:\IAGOS\server\v18\Source\Source\_aiinterface\ActionMoverMsg.cpp

; 356  : 		if( IsActJump() )	return -1;

  0052d	0f 85 c5 0a 00
	00		 jne	 $LN817@ProcessAct
; File C:\IAGOS\server\v18\Source\Source\_AIInterface\Action.h

; 322  : 	BOOL			IsActAttack()		{ return m_dwState & OBJSTA_ATK_ALL; }

  00533	a9 00 00 ff 00	 test	 eax, 16711680		; 00ff0000H
; File C:\IAGOS\server\v18\Source\Source\_aiinterface\ActionMoverMsg.cpp

; 357  : 		if( IsActAttack() )		return -2;

  00538	0f 85 d7 0c 00
	00		 jne	 $LN809@ProcessAct
; File C:\IAGOS\server\v18\Source\Source\_AIInterface\Action.h

; 304  : 	DWORD			GetDmgState() { return m_dwState & OBJSTA_DMG_ALL; }

  0053e	25 00 00 00 0f	 and	 eax, 251658240		; 0f000000H
; File C:\IAGOS\server\v18\Source\Source\_aiinterface\ActionMoverMsg.cpp

; 358  : 		if( GetDmgState() == OBJSTA_DMG )	// 피격 중 명령이면 피격 상태를 클리어 시킨다.

  00543	3d 00 00 00 01	 cmp	 eax, 16777216		; 01000000H
  00548	75 0c		 jne	 SHORT $LN83@ProcessAct

; 359  : 			ResetState( OBJSTA_DMG_ALL );

  0054a	68 00 00 00 0f	 push	 251658240		; 0f000000H
  0054f	e8 00 00 00 00	 call	 ?ResetState@CAction@@QAEXK@Z ; CAction::ResetState
  00554	eb 08		 jmp	 SHORT $LN85@ProcessAct
$LN83@ProcessAct:

; 360  : 		else if( GetState() & OBJSTA_DMG_ALL )	// 그외 피격동작은 다 취소

  00556	85 c0		 test	 eax, eax
  00558	0f 85 81 0a 00
	00		 jne	 $LN818@ProcessAct
$LN85@ProcessAct:

; 361  : 				return -3;
; 362  : 		if( GetMoveState() == OBJSTA_FMOVE )	return 0;	// 이미 전진상태면 추가로 처리 하지 않음

  0055e	80 7e 04 04	 cmp	 BYTE PTR [esi+4], 4
  00562	0f 84 47 fc ff
	ff		 je	 $LN777@ProcessAct

; 363  : 		if( IsSit() )		return 0;		// 리턴 0으로 해도 되나?.

  00568	f6 46 08 04	 test	 BYTE PTR [esi+8], 4
  0056c	0f 85 3d fc ff
	ff		 jne	 $LN777@ProcessAct

; 364  : 		if( pMover->m_dwFlag & MVRF_NOMOVE )	return 0;		// 이동금지 상태면 걍 리턴.

  00572	f7 87 44 02 00
	00 00 01 00 00	 test	 DWORD PTR [edi+580], 256 ; 00000100H
  0057c	0f 85 2d fc ff
	ff		 jne	 $LN777@ProcessAct

; 365  : #if __VER >= 10 // __LEGEND	//	10차 전승시스템	Neuz, World, Trans
; 366  : 		if( pMover->GetAdjParam( DST_CHRSTATE ) & CHS_LOOT)			return 0;

  00582	6a 40		 push	 64			; 00000040H
  00584	8b cf		 mov	 ecx, edi
  00586	e8 00 00 00 00	 call	 ?GetAdjParam@CMover@@QAEHH@Z ; CMover::GetAdjParam
  0058b	a9 00 00 08 00	 test	 eax, 524288		; 00080000H
  00590	0f 85 19 fc ff
	ff		 jne	 $LN777@ProcessAct
; File C:\IAGOS\server\v18\Source\Source\_AIInterface\Action.h

; 293  : 	void			SetMoveState( DWORD dwState ) { ResetState(OBJSTA_MOVE_ALL);	m_dwState |= dwState; }

  00596	68 ff 00 00 00	 push	 255			; 000000ffH
  0059b	8b ce		 mov	 ecx, esi
  0059d	e8 00 00 00 00	 call	 ?ResetState@CAction@@QAEXK@Z ; CAction::ResetState
  005a2	83 4e 04 04	 or	 DWORD PTR [esi+4], 4
; File C:\IAGOS\server\v18\Source\Source\_aiinterface\ActionMoverMsg.cpp

; 370  : 		if( IsStateFlag( OBJSTAF_WALK ) )	// 걷는모드

  005a6	8b cf		 mov	 ecx, edi
  005a8	f6 46 08 02	 test	 BYTE PTR [esi+8], 2
  005ac	8b 07		 mov	 eax, DWORD PTR [edi]
  005ae	6a 00		 push	 0
  005b0	6a 04		 push	 4
  005b2	8b 40 04	 mov	 eax, DWORD PTR [eax+4]
  005b5	74 10		 je	 SHORT $LN90@ProcessAct

; 371  : 		{
; 372  : 			pMover->SetMotion( MTI_WALK );	

  005b7	6a 03		 push	 3
  005b9	ff d0		 call	 eax

; 378  : 		}
; 379  : 		pMover->OnActFMove();

  005bb	8b cf		 mov	 ecx, edi
  005bd	e8 00 00 00 00	 call	 ?OnActFMove@CMover@@QAEXXZ ; CMover::OnActFMove

; 380  : 		break;

  005c2	e9 1a 12 00 00	 jmp	 $LN2@ProcessAct
$LN90@ProcessAct:

; 373  : 		} 
; 374  : 		else
; 375  : 		{
; 376  : 			if( pMover->SetMotion( MTI_RUN ) )

  005c7	6a 05		 push	 5
  005c9	ff d0		 call	 eax
  005cb	85 c0		 test	 eax, eax
  005cd	74 0a		 je	 SHORT $LN92@ProcessAct

; 377  : 				pModel->SetMotionBlending( TRUE );

  005cf	8b 4d 08	 mov	 ecx, DWORD PTR _pModel$1$[ebp]
  005d2	6a 01		 push	 1
  005d4	e8 00 00 00 00	 call	 ?SetMotionBlending@CModelObject@@QAEXH@Z ; CModelObject::SetMotionBlending
$LN92@ProcessAct:

; 378  : 		}
; 379  : 		pMover->OnActFMove();

  005d9	8b cf		 mov	 ecx, edi
  005db	e8 00 00 00 00	 call	 ?OnActFMove@CMover@@QAEXXZ ; CMover::OnActFMove

; 380  : 		break;

  005e0	e9 fc 11 00 00	 jmp	 $LN2@ProcessAct
$LN94@ProcessAct:
; File C:\IAGOS\server\v18\Source\Source\_AIInterface\Action.h

; 321  : 	BOOL			IsActJump()		{ return m_dwState & OBJSTA_JUMP_ALL; }

  005e5	8b 46 04	 mov	 eax, DWORD PTR [esi+4]
  005e8	a9 00 f0 00 00	 test	 eax, 61440		; 0000f000H
; File C:\IAGOS\server\v18\Source\Source\_aiinterface\ActionMoverMsg.cpp

; 404  : 		if( IsActJump() )	return -1;	// if jump, x

  005ed	0f 85 05 0a 00
	00		 jne	 $LN817@ProcessAct
; File C:\IAGOS\server\v18\Source\Source\_AIInterface\Action.h

; 322  : 	BOOL			IsActAttack()		{ return m_dwState & OBJSTA_ATK_ALL; }

  005f3	a9 00 00 ff 00	 test	 eax, 16711680		; 00ff0000H
; File C:\IAGOS\server\v18\Source\Source\_aiinterface\ActionMoverMsg.cpp

; 405  : 		if( IsActAttack() )		return -2;	// 공격동작중이면 취소됨.

  005f8	0f 85 17 0c 00
	00		 jne	 $LN809@ProcessAct
; File C:\IAGOS\server\v18\Source\Source\_AIInterface\Action.h

; 323  : 	BOOL			IsActDamage()		{ return m_dwState & OBJSTA_DMG_ALL; }

  005fe	a9 00 00 00 0f	 test	 eax, 251658240		; 0f000000H
; File C:\IAGOS\server\v18\Source\Source\_aiinterface\ActionMoverMsg.cpp

; 406  : 		if( IsActDamage() )		return -3;

  00603	0f 85 d6 09 00
	00		 jne	 $LN818@ProcessAct

; 407  : 		if( GetMoveState() == OBJSTA_BMOVE )	return 0;

  00609	3c 05		 cmp	 al, 5
  0060b	0f 84 9e fb ff
	ff		 je	 $LN777@ProcessAct

; 408  : 		if( IsSit() )		return 0;		// 리턴 0으로 해도 되나?.

  00611	f6 46 08 04	 test	 BYTE PTR [esi+8], 4
  00615	0f 85 94 fb ff
	ff		 jne	 $LN777@ProcessAct
; File C:\IAGOS\server\v18\Source\Source\_AIInterface\Action.h

; 314  : 	BOOL			IsAction() { return (m_dwState & OBJSTA_ACTION_ALL) ? TRUE : FALSE; }

  0061b	a9 00 00 00 f0	 test	 eax, -268435456		; f0000000H
; File C:\IAGOS\server\v18\Source\Source\_aiinterface\ActionMoverMsg.cpp

; 409  : 		if( IsAction() )	return 0;

  00620	0f 85 89 fb ff
	ff		 jne	 $LN777@ProcessAct

; 410  : 		if( pMover->m_dwFlag & MVRF_NOMOVE )	return 0;		// 이동금지 상태면 걍 리턴.

  00626	f7 87 44 02 00
	00 00 01 00 00	 test	 DWORD PTR [edi+580], 256 ; 00000100H
  00630	0f 85 79 fb ff
	ff		 jne	 $LN777@ProcessAct

; 411  : #if __VER >= 10 // __LEGEND	//	10차 전승시스템	Neuz, World, Trans
; 412  : 		if( pMover->GetAdjParam( DST_CHRSTATE ) & CHS_LOOT)			return 0;

  00636	6a 40		 push	 64			; 00000040H
  00638	8b cf		 mov	 ecx, edi
  0063a	e8 00 00 00 00	 call	 ?GetAdjParam@CMover@@QAEHH@Z ; CMover::GetAdjParam
  0063f	a9 00 00 08 00	 test	 eax, 524288		; 00080000H
  00644	0f 85 65 fb ff
	ff		 jne	 $LN777@ProcessAct
; File C:\IAGOS\server\v18\Source\Source\_AIInterface\Action.h

; 293  : 	void			SetMoveState( DWORD dwState ) { ResetState(OBJSTA_MOVE_ALL);	m_dwState |= dwState; }

  0064a	68 ff 00 00 00	 push	 255			; 000000ffH
  0064f	8b ce		 mov	 ecx, esi
  00651	e8 00 00 00 00	 call	 ?ResetState@CAction@@QAEXK@Z ; CAction::ResetState
  00656	83 4e 04 05	 or	 DWORD PTR [esi+4], 5
; File C:\IAGOS\server\v18\Source\Source\_aiinterface\ActionMoverMsg.cpp

; 416  : 		pMover->SetMotion( MTI_WALK );		

  0065a	6a 00		 push	 0
  0065c	6a 04		 push	 4
  0065e	6a 03		 push	 3

; 417  : 		break;

  00660	e9 75 11 00 00	 jmp	 $LN937@ProcessAct
$LN103@ProcessAct:
; File C:\IAGOS\server\v18\Source\Source\_AIInterface\Action.h

; 321  : 	BOOL			IsActJump()		{ return m_dwState & OBJSTA_JUMP_ALL; }

  00665	8b 46 04	 mov	 eax, DWORD PTR [esi+4]
  00668	a9 00 f0 00 00	 test	 eax, 61440		; 0000f000H
; File C:\IAGOS\server\v18\Source\Source\_aiinterface\ActionMoverMsg.cpp

; 420  : 		if( IsActJump() )	return -1;

  0066d	0f 85 85 09 00
	00		 jne	 $LN817@ProcessAct
; File C:\IAGOS\server\v18\Source\Source\_AIInterface\Action.h

; 322  : 	BOOL			IsActAttack()		{ return m_dwState & OBJSTA_ATK_ALL; }

  00673	a9 00 00 ff 00	 test	 eax, 16711680		; 00ff0000H
; File C:\IAGOS\server\v18\Source\Source\_aiinterface\ActionMoverMsg.cpp

; 421  : 		if( IsActAttack() )		return -2;

  00678	0f 85 97 0b 00
	00		 jne	 $LN809@ProcessAct
; File C:\IAGOS\server\v18\Source\Source\_AIInterface\Action.h

; 304  : 	DWORD			GetDmgState() { return m_dwState & OBJSTA_DMG_ALL; }

  0067e	25 00 00 00 0f	 and	 eax, 251658240		; 0f000000H
; File C:\IAGOS\server\v18\Source\Source\_aiinterface\ActionMoverMsg.cpp

; 422  : 		if( GetDmgState() == OBJSTA_DMG )	// 피격 중 명령이면 피격 상태를 클리어 시킨다.

  00683	3d 00 00 00 01	 cmp	 eax, 16777216		; 01000000H
  00688	75 0c		 jne	 SHORT $LN106@ProcessAct

; 423  : 			ResetState( OBJSTA_DMG_ALL );

  0068a	68 00 00 00 0f	 push	 251658240		; 0f000000H
  0068f	e8 00 00 00 00	 call	 ?ResetState@CAction@@QAEXK@Z ; CAction::ResetState
  00694	eb 08		 jmp	 SHORT $LN108@ProcessAct
$LN106@ProcessAct:

; 424  : 		else if( GetState() & OBJSTA_DMG_ALL )	// 그외 피격동작은 다 취소

  00696	85 c0		 test	 eax, eax
  00698	0f 85 41 09 00
	00		 jne	 $LN818@ProcessAct
$LN108@ProcessAct:
; File C:\IAGOS\server\v18\Source\Source\_AIInterface\Action.h

; 301  : 	DWORD			GetTurnState() { return m_dwState & OBJSTA_TURN_ALL; }

  0069e	8b 4e 04	 mov	 ecx, DWORD PTR [esi+4]
  006a1	8b c1		 mov	 eax, ecx
  006a3	25 00 03 00 00	 and	 eax, 768		; 00000300H
; File C:\IAGOS\server\v18\Source\Source\_aiinterface\ActionMoverMsg.cpp

; 426  : 		if( GetTurnState() == OBJSTA_LTURN )	return 0;

  006a8	3d 00 01 00 00	 cmp	 eax, 256		; 00000100H
  006ad	0f 84 fc fa ff
	ff		 je	 $LN777@ProcessAct

; 427  : 		if( IsSit() )		return 0;		// 리턴 0으로 해도 되나?.

  006b3	f6 46 08 04	 test	 BYTE PTR [esi+8], 4
  006b7	0f 85 f2 fa ff
	ff		 jne	 $LN777@ProcessAct
; File C:\IAGOS\server\v18\Source\Source\_AIInterface\Action.h

; 314  : 	BOOL			IsAction() { return (m_dwState & OBJSTA_ACTION_ALL) ? TRUE : FALSE; }

  006bd	f7 c1 00 00 00
	f0		 test	 ecx, -268435456		; f0000000H
; File C:\IAGOS\server\v18\Source\Source\_aiinterface\ActionMoverMsg.cpp

; 428  : 		if( IsAction() )	return 0;

  006c3	0f 85 e6 fa ff
	ff		 jne	 $LN777@ProcessAct

; 429  : 		if( pMover->m_dwFlag & MVRF_NOMOVE )	return 0;		// 이동금지 상태면 걍 리턴.

  006c9	f7 87 44 02 00
	00 00 01 00 00	 test	 DWORD PTR [edi+580], 256 ; 00000100H
  006d3	0f 85 d6 fa ff
	ff		 jne	 $LN777@ProcessAct

; 430  : #if __VER >= 10 // __LEGEND	//	10차 전승시스템	Neuz, World, Trans
; 431  : 		if( pMover->GetAdjParam( DST_CHRSTATE ) & CHS_LOOT)			return 0;

  006d9	6a 40		 push	 64			; 00000040H
  006db	8b cf		 mov	 ecx, edi
  006dd	e8 00 00 00 00	 call	 ?GetAdjParam@CMover@@QAEHH@Z ; CMover::GetAdjParam
  006e2	a9 00 00 08 00	 test	 eax, 524288		; 00080000H
  006e7	0f 85 c2 fa ff
	ff		 jne	 $LN777@ProcessAct
; File C:\IAGOS\server\v18\Source\Source\_AIInterface\Action.h

; 294  : 	void			SetTurnState( DWORD dwState ) { ResetState(OBJSTA_TURN_ALL);	m_dwState |= dwState; }

  006ed	68 00 03 00 00	 push	 768			; 00000300H
  006f2	8b ce		 mov	 ecx, esi
  006f4	e8 00 00 00 00	 call	 ?ResetState@CAction@@QAEXK@Z ; CAction::ResetState
  006f9	81 4e 04 00 01
	00 00		 or	 DWORD PTR [esi+4], 256	; 00000100H
; File C:\IAGOS\server\v18\Source\Source\_aiinterface\ActionMoverMsg.cpp

; 435  : 		break;

  00700	e9 dc 10 00 00	 jmp	 $LN2@ProcessAct
$LN114@ProcessAct:
; File C:\IAGOS\server\v18\Source\Source\_AIInterface\Action.h

; 321  : 	BOOL			IsActJump()		{ return m_dwState & OBJSTA_JUMP_ALL; }

  00705	8b 46 04	 mov	 eax, DWORD PTR [esi+4]
  00708	a9 00 f0 00 00	 test	 eax, 61440		; 0000f000H
; File C:\IAGOS\server\v18\Source\Source\_aiinterface\ActionMoverMsg.cpp

; 437  : 		if( IsActJump() )	return -1;

  0070d	0f 85 e5 08 00
	00		 jne	 $LN817@ProcessAct
; File C:\IAGOS\server\v18\Source\Source\_AIInterface\Action.h

; 322  : 	BOOL			IsActAttack()		{ return m_dwState & OBJSTA_ATK_ALL; }

  00713	a9 00 00 ff 00	 test	 eax, 16711680		; 00ff0000H
; File C:\IAGOS\server\v18\Source\Source\_aiinterface\ActionMoverMsg.cpp

; 438  : 		if( IsActAttack() )		return -2;

  00718	0f 85 f7 0a 00
	00		 jne	 $LN809@ProcessAct
; File C:\IAGOS\server\v18\Source\Source\_AIInterface\Action.h

; 304  : 	DWORD			GetDmgState() { return m_dwState & OBJSTA_DMG_ALL; }

  0071e	25 00 00 00 0f	 and	 eax, 251658240		; 0f000000H
; File C:\IAGOS\server\v18\Source\Source\_aiinterface\ActionMoverMsg.cpp

; 439  : 		if( GetDmgState() == OBJSTA_DMG )	// 피격 중 명령이면 피격 상태를 클리어 시킨다.

  00723	3d 00 00 00 01	 cmp	 eax, 16777216		; 01000000H
  00728	75 0c		 jne	 SHORT $LN117@ProcessAct

; 440  : 			ResetState( OBJSTA_DMG_ALL );

  0072a	68 00 00 00 0f	 push	 251658240		; 0f000000H
  0072f	e8 00 00 00 00	 call	 ?ResetState@CAction@@QAEXK@Z ; CAction::ResetState
  00734	eb 08		 jmp	 SHORT $LN119@ProcessAct
$LN117@ProcessAct:

; 441  : 		else if( GetState() & OBJSTA_DMG_ALL )	// 그외 피격동작은 다 취소

  00736	85 c0		 test	 eax, eax
  00738	0f 85 a1 08 00
	00		 jne	 $LN818@ProcessAct
$LN119@ProcessAct:
; File C:\IAGOS\server\v18\Source\Source\_AIInterface\Action.h

; 301  : 	DWORD			GetTurnState() { return m_dwState & OBJSTA_TURN_ALL; }

  0073e	8b 4e 04	 mov	 ecx, DWORD PTR [esi+4]
  00741	8b c1		 mov	 eax, ecx
  00743	25 00 03 00 00	 and	 eax, 768		; 00000300H
; File C:\IAGOS\server\v18\Source\Source\_aiinterface\ActionMoverMsg.cpp

; 443  : 		if( GetTurnState() == OBJSTA_RTURN )	return 0;

  00748	3d 00 02 00 00	 cmp	 eax, 512		; 00000200H
  0074d	0f 84 5c fa ff
	ff		 je	 $LN777@ProcessAct

; 444  : 		if( IsSit() )		return 0;		// 리턴 0으로 해도 되나?.

  00753	f6 46 08 04	 test	 BYTE PTR [esi+8], 4
  00757	0f 85 52 fa ff
	ff		 jne	 $LN777@ProcessAct
; File C:\IAGOS\server\v18\Source\Source\_AIInterface\Action.h

; 314  : 	BOOL			IsAction() { return (m_dwState & OBJSTA_ACTION_ALL) ? TRUE : FALSE; }

  0075d	f7 c1 00 00 00
	f0		 test	 ecx, -268435456		; f0000000H
; File C:\IAGOS\server\v18\Source\Source\_aiinterface\ActionMoverMsg.cpp

; 445  : 		if( IsAction() )	return 0;

  00763	0f 85 46 fa ff
	ff		 jne	 $LN777@ProcessAct

; 446  : 		if( pMover->m_dwFlag & MVRF_NOMOVE )	return 0;		// 이동금지 상태면 걍 리턴.

  00769	f7 87 44 02 00
	00 00 01 00 00	 test	 DWORD PTR [edi+580], 256 ; 00000100H
  00773	0f 85 36 fa ff
	ff		 jne	 $LN777@ProcessAct

; 447  : #if __VER >= 10 // __LEGEND	//	10차 전승시스템	Neuz, World, Trans
; 448  : 		if( pMover->GetAdjParam( DST_CHRSTATE ) & CHS_LOOT)			return 0;

  00779	6a 40		 push	 64			; 00000040H
  0077b	8b cf		 mov	 ecx, edi
  0077d	e8 00 00 00 00	 call	 ?GetAdjParam@CMover@@QAEHH@Z ; CMover::GetAdjParam
  00782	a9 00 00 08 00	 test	 eax, 524288		; 00080000H
  00787	0f 85 22 fa ff
	ff		 jne	 $LN777@ProcessAct
; File C:\IAGOS\server\v18\Source\Source\_AIInterface\Action.h

; 294  : 	void			SetTurnState( DWORD dwState ) { ResetState(OBJSTA_TURN_ALL);	m_dwState |= dwState; }

  0078d	68 00 03 00 00	 push	 768			; 00000300H
  00792	8b ce		 mov	 ecx, esi
  00794	e8 00 00 00 00	 call	 ?ResetState@CAction@@QAEXK@Z ; CAction::ResetState
  00799	81 4e 04 00 02
	00 00		 or	 DWORD PTR [esi+4], 512	; 00000200H
; File C:\IAGOS\server\v18\Source\Source\_aiinterface\ActionMoverMsg.cpp

; 452  : 		break;

  007a0	e9 3c 10 00 00	 jmp	 $LN2@ProcessAct
$LN125@ProcessAct:
; File C:\IAGOS\server\v18\Source\Source\_AIInterface\Action.h

; 301  : 	DWORD			GetTurnState() { return m_dwState & OBJSTA_TURN_ALL; }

  007a5	f7 46 04 00 03
	00 00		 test	 DWORD PTR [esi+4], 768	; 00000300H
  007ac	8d 46 04	 lea	 eax, DWORD PTR [esi+4]
; File C:\IAGOS\server\v18\Source\Source\_aiinterface\ActionMoverMsg.cpp

; 454  : 		if( GetTurnState() == 0 )		return 0;		// 이미 턴 상태가 없다면 처리 안함

  007af	0f 84 fa f9 ff
	ff		 je	 $LN777@ProcessAct
; File C:\IAGOS\server\v18\Source\Source\_AIInterface\Action.h

; 294  : 	void			SetTurnState( DWORD dwState ) { ResetState(OBJSTA_TURN_ALL);	m_dwState |= dwState; }

  007b5	68 00 03 00 00	 push	 768			; 00000300H
  007ba	e8 00 00 00 00	 call	 ?ResetState@CAction@@QAEXK@Z ; CAction::ResetState
; File C:\IAGOS\server\v18\Source\Source\_aiinterface\ActionMoverMsg.cpp

; 456  : 		break;

  007bf	e9 1d 10 00 00	 jmp	 $LN2@ProcessAct
$LN127@ProcessAct:
; File C:\IAGOS\server\v18\Source\Source\_AIInterface\Action.h

; 321  : 	BOOL			IsActJump()		{ return m_dwState & OBJSTA_JUMP_ALL; }

  007c4	8b 46 04	 mov	 eax, DWORD PTR [esi+4]
  007c7	a9 00 f0 00 00	 test	 eax, 61440		; 0000f000H
; File C:\IAGOS\server\v18\Source\Source\_aiinterface\ActionMoverMsg.cpp

; 460  : 		if( IsActJump() )	return -1;

  007cc	0f 85 26 08 00
	00		 jne	 $LN817@ProcessAct
; File C:\IAGOS\server\v18\Source\Source\_AIInterface\Action.h

; 322  : 	BOOL			IsActAttack()		{ return m_dwState & OBJSTA_ATK_ALL; }

  007d2	a9 00 00 ff 00	 test	 eax, 16711680		; 00ff0000H
; File C:\IAGOS\server\v18\Source\Source\_aiinterface\ActionMoverMsg.cpp

; 461  : 		if( IsActAttack() )		return -2;

  007d7	0f 85 38 0a 00
	00		 jne	 $LN809@ProcessAct
; File C:\IAGOS\server\v18\Source\Source\_AIInterface\Action.h

; 304  : 	DWORD			GetDmgState() { return m_dwState & OBJSTA_DMG_ALL; }

  007dd	25 00 00 00 0f	 and	 eax, 251658240		; 0f000000H
; File C:\IAGOS\server\v18\Source\Source\_aiinterface\ActionMoverMsg.cpp

; 462  : 		if( GetDmgState() == OBJSTA_DMG )	// 피격 중 명령이면 피격 상태를 클리어 시킨다.

  007e2	3d 00 00 00 01	 cmp	 eax, 16777216		; 01000000H
  007e7	75 0c		 jne	 SHORT $LN130@ProcessAct

; 463  : 			ResetState( OBJSTA_DMG_ALL );

  007e9	68 00 00 00 0f	 push	 251658240		; 0f000000H
  007ee	e8 00 00 00 00	 call	 ?ResetState@CAction@@QAEXK@Z ; CAction::ResetState
  007f3	eb 08		 jmp	 SHORT $LN132@ProcessAct
$LN130@ProcessAct:

; 464  : 		else if( GetState() & OBJSTA_DMG_ALL )	// 그외 피격동작은 다 취소

  007f5	85 c0		 test	 eax, eax
  007f7	0f 85 e2 07 00
	00		 jne	 $LN818@ProcessAct
$LN132@ProcessAct:

; 465  : 			return -3;
; 466  : 		if( GetTurnState() == OBJSTA_LOOKUP )	return 0;
; 467  : 		if( IsSit() )		return 0;		// 리턴 0으로 해도 되나?.

  007fd	f6 46 08 04	 test	 BYTE PTR [esi+8], 4
  00801	0f 85 a8 f9 ff
	ff		 jne	 $LN777@ProcessAct
; File C:\IAGOS\server\v18\Source\Source\_AIInterface\Action.h

; 314  : 	BOOL			IsAction() { return (m_dwState & OBJSTA_ACTION_ALL) ? TRUE : FALSE; }

  00807	f7 46 04 00 00
	00 f0		 test	 DWORD PTR [esi+4], -268435456 ; f0000000H
; File C:\IAGOS\server\v18\Source\Source\_aiinterface\ActionMoverMsg.cpp

; 468  : 		if( IsAction() )	return 0;

  0080e	0f 85 9b f9 ff
	ff		 jne	 $LN777@ProcessAct

; 469  : 		if( pMover->m_dwFlag & MVRF_NOMOVE )	return 0;		// 이동금지 상태면 걍 리턴.

  00814	f7 87 44 02 00
	00 00 01 00 00	 test	 DWORD PTR [edi+580], 256 ; 00000100H
  0081e	0f 85 8b f9 ff
	ff		 jne	 $LN777@ProcessAct

; 470  : #if __VER >= 10 // __LEGEND	//	10차 전승시스템	Neuz, World, Trans
; 471  : 		if( pMover->GetAdjParam( DST_CHRSTATE ) & CHS_LOOT)			return 0;

  00824	6a 40		 push	 64			; 00000040H
  00826	8b cf		 mov	 ecx, edi
  00828	e8 00 00 00 00	 call	 ?GetAdjParam@CMover@@QAEHH@Z ; CMover::GetAdjParam
  0082d	a9 00 00 08 00	 test	 eax, 524288		; 00080000H
  00832	0f 85 77 f9 ff
	ff		 jne	 $LN777@ProcessAct
; File C:\IAGOS\server\v18\Source\Source\_AIInterface\Action.h

; 295  : 	void			SetLookState( DWORD dwState ) { ResetState(OBJSTA_LOOK_ALL);	m_dwState |= dwState; }

  00838	68 00 0c 00 00	 push	 3072			; 00000c00H
  0083d	8b ce		 mov	 ecx, esi
  0083f	e8 00 00 00 00	 call	 ?ResetState@CAction@@QAEXK@Z ; CAction::ResetState
  00844	81 4e 04 00 04
	00 00		 or	 DWORD PTR [esi+4], 1024	; 00000400H
; File C:\IAGOS\server\v18\Source\Source\_aiinterface\ActionMoverMsg.cpp

; 475  : 		break;

  0084b	e9 91 0f 00 00	 jmp	 $LN2@ProcessAct
$LN138@ProcessAct:
; File C:\IAGOS\server\v18\Source\Source\_AIInterface\Action.h

; 321  : 	BOOL			IsActJump()		{ return m_dwState & OBJSTA_JUMP_ALL; }

  00850	8b 46 04	 mov	 eax, DWORD PTR [esi+4]
  00853	a9 00 f0 00 00	 test	 eax, 61440		; 0000f000H
; File C:\IAGOS\server\v18\Source\Source\_aiinterface\ActionMoverMsg.cpp

; 477  : 		if( IsActJump() )	return -1;

  00858	0f 85 9a 07 00
	00		 jne	 $LN817@ProcessAct
; File C:\IAGOS\server\v18\Source\Source\_AIInterface\Action.h

; 322  : 	BOOL			IsActAttack()		{ return m_dwState & OBJSTA_ATK_ALL; }

  0085e	a9 00 00 ff 00	 test	 eax, 16711680		; 00ff0000H
; File C:\IAGOS\server\v18\Source\Source\_aiinterface\ActionMoverMsg.cpp

; 478  : 		if( IsActAttack() )		return -2;

  00863	0f 85 ac 09 00
	00		 jne	 $LN809@ProcessAct
; File C:\IAGOS\server\v18\Source\Source\_AIInterface\Action.h

; 304  : 	DWORD			GetDmgState() { return m_dwState & OBJSTA_DMG_ALL; }

  00869	25 00 00 00 0f	 and	 eax, 251658240		; 0f000000H
; File C:\IAGOS\server\v18\Source\Source\_aiinterface\ActionMoverMsg.cpp

; 479  : 		if( GetDmgState() == OBJSTA_DMG )	// 피격 중 명령이면 피격 상태를 클리어 시킨다.

  0086e	3d 00 00 00 01	 cmp	 eax, 16777216		; 01000000H
  00873	75 0c		 jne	 SHORT $LN141@ProcessAct

; 480  : 			ResetState( OBJSTA_DMG_ALL );

  00875	68 00 00 00 0f	 push	 251658240		; 0f000000H
  0087a	e8 00 00 00 00	 call	 ?ResetState@CAction@@QAEXK@Z ; CAction::ResetState
  0087f	eb 08		 jmp	 SHORT $LN143@ProcessAct
$LN141@ProcessAct:

; 481  : 		else if( GetState() & OBJSTA_DMG_ALL )	// 그외 피격동작은 다 취소

  00881	85 c0		 test	 eax, eax
  00883	0f 85 56 07 00
	00		 jne	 $LN818@ProcessAct
$LN143@ProcessAct:

; 482  : 			return -3;
; 483  : 		if( GetTurnState() == OBJSTA_LOOKDOWN )	return 0;
; 484  : 		if( IsSit() )		return 0;		// 리턴 0으로 해도 되나?.

  00889	f6 46 08 04	 test	 BYTE PTR [esi+8], 4
  0088d	0f 85 1c f9 ff
	ff		 jne	 $LN777@ProcessAct
; File C:\IAGOS\server\v18\Source\Source\_AIInterface\Action.h

; 314  : 	BOOL			IsAction() { return (m_dwState & OBJSTA_ACTION_ALL) ? TRUE : FALSE; }

  00893	f7 46 04 00 00
	00 f0		 test	 DWORD PTR [esi+4], -268435456 ; f0000000H
; File C:\IAGOS\server\v18\Source\Source\_aiinterface\ActionMoverMsg.cpp

; 485  : 		if( IsAction() )	return 0;

  0089a	0f 85 0f f9 ff
	ff		 jne	 $LN777@ProcessAct

; 486  : 		if( pMover->m_dwFlag & MVRF_NOMOVE )	return 0;		// 이동금지 상태면 걍 리턴.

  008a0	f7 87 44 02 00
	00 00 01 00 00	 test	 DWORD PTR [edi+580], 256 ; 00000100H
  008aa	0f 85 ff f8 ff
	ff		 jne	 $LN777@ProcessAct

; 487  : #if __VER >= 10 // __LEGEND	//	10차 전승시스템	Neuz, World, Trans
; 488  : 		if( pMover->GetAdjParam( DST_CHRSTATE ) & CHS_LOOT)			return 0;

  008b0	6a 40		 push	 64			; 00000040H
  008b2	8b cf		 mov	 ecx, edi
  008b4	e8 00 00 00 00	 call	 ?GetAdjParam@CMover@@QAEHH@Z ; CMover::GetAdjParam
  008b9	a9 00 00 08 00	 test	 eax, 524288		; 00080000H
  008be	0f 85 eb f8 ff
	ff		 jne	 $LN777@ProcessAct
; File C:\IAGOS\server\v18\Source\Source\_AIInterface\Action.h

; 295  : 	void			SetLookState( DWORD dwState ) { ResetState(OBJSTA_LOOK_ALL);	m_dwState |= dwState; }

  008c4	68 00 0c 00 00	 push	 3072			; 00000c00H
  008c9	8b ce		 mov	 ecx, esi
  008cb	e8 00 00 00 00	 call	 ?ResetState@CAction@@QAEXK@Z ; CAction::ResetState
  008d0	81 4e 04 00 08
	00 00		 or	 DWORD PTR [esi+4], 2048	; 00000800H
; File C:\IAGOS\server\v18\Source\Source\_aiinterface\ActionMoverMsg.cpp

; 492  : 		break;

  008d7	e9 05 0f 00 00	 jmp	 $LN2@ProcessAct
$LN149@ProcessAct:
; File C:\IAGOS\server\v18\Source\Source\_AIInterface\Action.h

; 302  : 	DWORD			GetLookState() { return m_dwState & OBJSTA_LOOK_ALL; }

  008dc	f7 46 04 00 0c
	00 00		 test	 DWORD PTR [esi+4], 3072	; 00000c00H
  008e3	8d 46 04	 lea	 eax, DWORD PTR [esi+4]
; File C:\IAGOS\server\v18\Source\Source\_aiinterface\ActionMoverMsg.cpp

; 494  : 		if( GetLookState() == 0 )		return 0;

  008e6	0f 84 c3 f8 ff
	ff		 je	 $LN777@ProcessAct
; File C:\IAGOS\server\v18\Source\Source\_AIInterface\Action.h

; 295  : 	void			SetLookState( DWORD dwState ) { ResetState(OBJSTA_LOOK_ALL);	m_dwState |= dwState; }

  008ec	68 00 0c 00 00	 push	 3072			; 00000c00H
  008f1	e8 00 00 00 00	 call	 ?ResetState@CAction@@QAEXK@Z ; CAction::ResetState
; File C:\IAGOS\server\v18\Source\Source\_aiinterface\ActionMoverMsg.cpp

; 496  : 		break;

  008f6	e9 e6 0e 00 00	 jmp	 $LN2@ProcessAct
$LN151@ProcessAct:
; File C:\IAGOS\server\v18\Source\Source\_AIInterface\Action.h

; 321  : 	BOOL			IsActJump()		{ return m_dwState & OBJSTA_JUMP_ALL; }

  008fb	8b 46 04	 mov	 eax, DWORD PTR [esi+4]
  008fe	a9 00 f0 00 00	 test	 eax, 61440		; 0000f000H
; File C:\IAGOS\server\v18\Source\Source\_aiinterface\ActionMoverMsg.cpp

; 499  : 		if( IsActJump() )		return 0;

  00903	0f 85 a6 f8 ff
	ff		 jne	 $LN777@ProcessAct
; File C:\IAGOS\server\v18\Source\Source\_AIInterface\Action.h

; 322  : 	BOOL			IsActAttack()		{ return m_dwState & OBJSTA_ATK_ALL; }

  00909	a9 00 00 ff 00	 test	 eax, 16711680		; 00ff0000H
; File C:\IAGOS\server\v18\Source\Source\_aiinterface\ActionMoverMsg.cpp

; 500  : 		if( IsActAttack() )		return -2;

  0090e	0f 85 01 09 00
	00		 jne	 $LN809@ProcessAct
; File C:\IAGOS\server\v18\Source\Source\_AIInterface\Action.h

; 323  : 	BOOL			IsActDamage()		{ return m_dwState & OBJSTA_DMG_ALL; }

  00914	a9 00 00 00 0f	 test	 eax, 251658240		; 0f000000H
; File C:\IAGOS\server\v18\Source\Source\_aiinterface\ActionMoverMsg.cpp

; 501  : 		if( IsActDamage() )		return -3;

  00919	0f 85 c0 06 00
	00		 jne	 $LN818@ProcessAct

; 502  : 		if( IsSit() )			return 0;		// 리턴 0으로 해도 되나?.

  0091f	f6 46 08 04	 test	 BYTE PTR [esi+8], 4
  00923	0f 85 86 f8 ff
	ff		 jne	 $LN777@ProcessAct
; File C:\IAGOS\server\v18\Source\Source\_AIInterface\Action.h

; 314  : 	BOOL			IsAction() { return (m_dwState & OBJSTA_ACTION_ALL) ? TRUE : FALSE; }

  00929	a9 00 00 00 f0	 test	 eax, -268435456		; f0000000H
; File C:\IAGOS\server\v18\Source\Source\_aiinterface\ActionMoverMsg.cpp

; 503  : 		if( IsAction() )		return 0;

  0092e	0f 85 7b f8 ff
	ff		 jne	 $LN777@ProcessAct

; 504  : 		if( pMover->m_dwFlag & MVRF_NOMOVE )	return 0;		// 이동금지 상태면 걍 리턴.

  00934	f7 87 44 02 00
	00 00 01 00 00	 test	 DWORD PTR [edi+580], 256 ; 00000100H
  0093e	0f 85 6b f8 ff
	ff		 jne	 $LN777@ProcessAct

; 505  : #if __VER >= 10 // __LEGEND	//	10차 전승시스템	Neuz, World, Trans
; 506  : 		if( pMover->GetAdjParam( DST_CHRSTATE ) & CHS_LOOT)			return 0;

  00944	6a 40		 push	 64			; 00000040H
  00946	8b cf		 mov	 ecx, edi
  00948	e8 00 00 00 00	 call	 ?GetAdjParam@CMover@@QAEHH@Z ; CMover::GetAdjParam
  0094d	a9 00 00 08 00	 test	 eax, 524288		; 00080000H
  00952	0f 85 57 f8 ff
	ff		 jne	 $LN777@ProcessAct

; 507  : #endif	//__LEGEND	//	10차 전승시스템	Neuz, World, Trans
; 508  : 
; 509  : #ifdef __CLIENT
; 510  : 		if( pMover->IsActiveMover() )
; 511  : 		{
; 512  : 			if( pMover->m_dwReqFlag & REQ_USESKILL )	return 0;	// 서버로부터 useskill응답이 오기전까진 점프해선 안됨.
; 513  : 			if( pMover->m_dwReqFlag & REQ_MOTION )		return 0;	// 서버로부터 모션 응답이 오기전까지 점프 금지.
; 514  : 		}
; 515  : #endif	// __CLIENT
; 516  : 		SendActMsg( OBJMSG_STOP_TURN );

  00958	8b 06		 mov	 eax, DWORD PTR [esi]
  0095a	8b ce		 mov	 ecx, esi
  0095c	6a 00		 push	 0
  0095e	6a 00		 push	 0
  00960	6a 00		 push	 0
  00962	6a 00		 push	 0
  00964	6a 00		 push	 0
  00966	6a 0a		 push	 10			; 0000000aH
  00968	ff 50 04	 call	 DWORD PTR [eax+4]
; File C:\IAGOS\server\v18\Source\Source\_AIInterface\Action.h

; 296  : 	void			SetJumpState( DWORD dwState ) { ResetState(OBJSTA_JUMP_ALL);	m_dwState |= dwState; }

  0096b	68 00 f0 00 00	 push	 61440			; 0000f000H
  00970	8b ce		 mov	 ecx, esi
  00972	e8 00 00 00 00	 call	 ?ResetState@CAction@@QAEXK@Z ; CAction::ResetState
  00977	8b 46 04	 mov	 eax, DWORD PTR [esi+4]
  0097a	0d 00 50 00 00	 or	 eax, 20480		; 00005000H
  0097f	89 46 04	 mov	 DWORD PTR [esi+4], eax
; File C:\IAGOS\server\v18\Source\Source\_aiinterface\ActionMoverMsg.cpp

; 518  : 		if( (GetState() & OBJSTA_COLLECT)== 0 ) pMover->SetMotion( MTI_JUMP1, ANILOOP_1PLAY );

  00982	a9 00 00 00 10	 test	 eax, 268435456		; 10000000H
  00987	75 0d		 jne	 SHORT $LN159@ProcessAct
  00989	8b 07		 mov	 eax, DWORD PTR [edi]
  0098b	8b cf		 mov	 ecx, edi
  0098d	6a 00		 push	 0
  0098f	6a 01		 push	 1
  00991	6a 0d		 push	 13			; 0000000dH
  00993	ff 50 04	 call	 DWORD PTR [eax+4]
$LN159@ProcessAct:

; 519  : 		pModel->SetMotionBlending( FALSE );

  00996	8b 4d 08	 mov	 ecx, DWORD PTR _pModel$1$[ebp]
  00999	6a 00		 push	 0
  0099b	e8 00 00 00 00	 call	 ?SetMotionBlending@CModelObject@@QAEXH@Z ; CModelObject::SetMotionBlending

; 520  : 		break;

  009a0	e9 3c 0e 00 00	 jmp	 $LN2@ProcessAct
$LN160@ProcessAct:
; File C:\IAGOS\server\v18\Source\Source\_AIInterface\Action.h

; 314  : 	BOOL			IsAction() { return (m_dwState & OBJSTA_ACTION_ALL) ? TRUE : FALSE; }

  009a5	f7 46 04 00 00
	00 f0		 test	 DWORD PTR [esi+4], -268435456 ; f0000000H
; File C:\IAGOS\server\v18\Source\Source\_aiinterface\ActionMoverMsg.cpp

; 524  : 			if( IsAction() )	return 0;

  009ac	0f 85 fd f7 ff
	ff		 jne	 $LN777@ProcessAct

; 525  : 			if( IsSit() )		// 앉아있는상태였으면 해제

  009b2	f6 46 08 04	 test	 BYTE PTR [esi+8], 4
  009b6	74 0a		 je	 SHORT $LN162@ProcessAct

; 526  : 				ResetState( OBJSTA_MOVE_ALL );

  009b8	68 ff 00 00 00	 push	 255			; 000000ffH
  009bd	e8 00 00 00 00	 call	 ?ResetState@CAction@@QAEXK@Z ; CAction::ResetState
$LN162@ProcessAct:

; 527  : 			if( GetState() & OBJSTA_ATK_ALL )	return 0;		// 이미 공격동작을 하고 있으면 취소.

  009c2	f7 46 04 00 00
	ff 00		 test	 DWORD PTR [esi+4], 16711680 ; 00ff0000H
  009c9	0f 85 e0 f7 ff
	ff		 jne	 $LN777@ProcessAct

; 528  : 			if( pMover->m_dwFlag & MVRF_NOATTACK )	return -1;		// 공격금지 상태면 걍 리턴.

  009cf	f7 87 44 02 00
	00 00 02 00 00	 test	 DWORD PTR [edi+580], 512 ; 00000200H
  009d9	0f 85 19 06 00
	00		 jne	 $LN817@ProcessAct

; 529  : 			if( pMover->IsMode( NO_ATTACK_MODE ) ) return -1;

  009df	f6 87 40 02 00
	00 40		 test	 BYTE PTR [edi+576], 64	; 00000040H
  009e6	0f 85 0c 06 00
	00		 jne	 $LN817@ProcessAct

; 530  : 			CMover* pHitObj		= prj.GetMover( nParam1 );

  009ec	ff 75 10	 push	 DWORD PTR _nParam1$[ebp]
  009ef	b9 00 00 00 00	 mov	 ecx, OFFSET ?prj@@3VCProject@@A ; prj
  009f4	e8 00 00 00 00	 call	 ?GetMover@CProject@@QAEPAVCMover@@K@Z ; CProject::GetMover
  009f9	89 45 10	 mov	 DWORD PTR _pHitObj$1$[ebp], eax
; File C:\IAGOS\server\v18\Source\Source\_Common\Obj.h

; 327  : 	return pObj && ( pObj->IsDelete() == FALSE ); 

  009fc	85 c0		 test	 eax, eax
  009fe	0f 84 f4 05 00
	00		 je	 $LN817@ProcessAct

; 180  : 	BOOL			IsDelete()	{ return (m_dwFlags & OBJ_FLAG_DELETE);  }

  00a04	f6 40 04 01	 test	 BYTE PTR [eax+4], 1

; 327  : 	return pObj && ( pObj->IsDelete() == FALSE ); 

  00a08	0f 85 ea 05 00
	00		 jne	 $LN817@ProcessAct
; File C:\IAGOS\server\v18\Source\Source\_aiinterface\ActionMoverMsg.cpp

; 532  : 			if( pHitObj->IsDie() )	return -1;

  00a0e	8b c8		 mov	 ecx, eax
  00a10	e8 00 00 00 00	 call	 ?IsDie@CMover@@QAEHXZ	; CMover::IsDie
  00a15	85 c0		 test	 eax, eax
  00a17	0f 85 db 05 00
	00		 jne	 $LN817@ProcessAct

; 533  : #ifdef __WORLDSERVER
; 534  : 			if( !g_eLocal.GetState( EVE_STEAL ) )

  00a1d	6a 0d		 push	 13			; 0000000dH
  00a1f	b9 00 00 00 00	 mov	 ecx, OFFSET ?g_eLocal@@3VCFlyffEvent@@A ; g_eLocal
  00a24	e8 00 00 00 00	 call	 ?GetState@CFlyffEvent@@QAEEH@Z ; CFlyffEvent::GetState
  00a29	84 c0		 test	 al, al
  00a2b	75 12		 jne	 SHORT $LN169@ProcessAct

; 535  : 			{
; 536  : 				if( pMover->IsSteal( pHitObj ) )	// pHitObj를 스틸하려하면 이공격은 무시.

  00a2d	ff 75 10	 push	 DWORD PTR _pHitObj$1$[ebp]
  00a30	8b cf		 mov	 ecx, edi
  00a32	e8 00 00 00 00	 call	 ?IsSteal@CMover@@QAEHPAV1@@Z ; CMover::IsSteal
  00a37	85 c0		 test	 eax, eax
  00a39	0f 85 b9 05 00
	00		 jne	 $LN817@ProcessAct
$LN169@ProcessAct:
; File C:\IAGOS\server\v18\Source\Source\_AIInterface\Action.h

; 323  : 	BOOL			IsActDamage()		{ return m_dwState & OBJSTA_DMG_ALL; }

  00a3f	f7 46 04 00 00
	00 0f		 test	 DWORD PTR [esi+4], 251658240 ; 0f000000H
; File C:\IAGOS\server\v18\Source\Source\_aiinterface\ActionMoverMsg.cpp

; 540  : 			if( IsActDamage() )

  00a46	74 0c		 je	 SHORT $LN170@ProcessAct

; 541  : 				ResetState( OBJSTA_DMG_ALL );

  00a48	68 00 00 00 0f	 push	 251658240		; 0f000000H
  00a4d	8b ce		 mov	 ecx, esi
  00a4f	e8 00 00 00 00	 call	 ?ResetState@CAction@@QAEXK@Z ; CAction::ResetState
$LN170@ProcessAct:
; File C:\IAGOS\server\v18\Source\Source\_AIInterface\Action.h

; 308  : 	BOOL			IsStateFlag( DWORD dwStateFlag ) { return ( m_dwStateFlag & dwStateFlag ) ? TRUE : FALSE; }

  00a54	f6 46 08 01	 test	 BYTE PTR [esi+8], 1
; File C:\IAGOS\server\v18\Source\Source\_aiinterface\ActionMoverMsg.cpp

; 542  : 			if( IsStateFlag( OBJSTAF_COMBAT ) == FALSE )

  00a58	75 13		 jne	 SHORT $LN171@ProcessAct

; 543  : 				SendActMsg( OBJMSG_MODE_COMBAT );

  00a5a	8b 06		 mov	 eax, DWORD PTR [esi]
  00a5c	8b ce		 mov	 ecx, esi
  00a5e	6a 00		 push	 0
  00a60	6a 00		 push	 0
  00a62	6a 00		 push	 0
  00a64	6a 00		 push	 0
  00a66	6a 00		 push	 0
  00a68	6a 12		 push	 18			; 00000012H
  00a6a	ff 50 04	 call	 DWORD PTR [eax+4]
$LN171@ProcessAct:

; 544  : 		
; 545  : 			SendActMsg( OBJMSG_STOP_TURN );

  00a6d	8b 06		 mov	 eax, DWORD PTR [esi]
  00a6f	8b ce		 mov	 ecx, esi
  00a71	6a 00		 push	 0
  00a73	6a 00		 push	 0
  00a75	6a 00		 push	 0
  00a77	6a 00		 push	 0
  00a79	6a 00		 push	 0
  00a7b	6a 0a		 push	 10			; 0000000aH
  00a7d	ff 50 04	 call	 DWORD PTR [eax+4]

; 546  : 			SendActMsg( OBJMSG_STAND );

  00a80	8b 06		 mov	 eax, DWORD PTR [esi]
  00a82	8b ce		 mov	 ecx, esi
  00a84	6a 00		 push	 0
  00a86	6a 00		 push	 0
  00a88	6a 00		 push	 0
  00a8a	6a 00		 push	 0
  00a8c	6a 00		 push	 0
  00a8e	6a 03		 push	 3
  00a90	ff 50 04	 call	 DWORD PTR [eax+4]
; File C:\IAGOS\server\v18\Source\Source\_AIInterface\Action.h

; 292  : 	void			SetState( DWORD dwType, DWORD dwState )	{ ResetState(dwType);	m_dwState |= dwState; }

  00a93	68 00 00 ff 00	 push	 16711680		; 00ff0000H
  00a98	8b ce		 mov	 ecx, esi
  00a9a	e8 00 00 00 00	 call	 ?ResetState@CAction@@QAEXK@Z ; CAction::ResetState
  00a9f	81 4e 04 00 00
	05 00		 or	 DWORD PTR [esi+4], 327680 ; 00050000H
; File C:\IAGOS\server\v18\Source\Source\_aiinterface\ActionMoverMsg.cpp

; 548  : 			pMover->SetMotion( MTI_ATK1, ANILOOP_1PLAY );		// 완드동작이 없으므로 공격동작으로 대신함.

  00aa6	8b cf		 mov	 ecx, edi
  00aa8	8b 07		 mov	 eax, DWORD PTR [edi]
  00aaa	6a 00		 push	 0
  00aac	6a 01		 push	 1
  00aae	6a 17		 push	 23			; 00000017H
  00ab0	ff 50 04	 call	 DWORD PTR [eax+4]

; 549  : 			pHitObj->SetJJim( pMover );

  00ab3	8b 75 10	 mov	 esi, DWORD PTR _pHitObj$1$[ebp]
  00ab6	8b ce		 mov	 ecx, esi
  00ab8	57		 push	 edi
  00ab9	e8 00 00 00 00	 call	 ?SetJJim@CMover@@QAEXPAV1@@Z ; CMover::SetJJim

; 550  : 			pMover->m_nAtkCnt = 1;		// 카운트 시작.
; 551  : 			pMover->OnAttackStart( pHitObj, dwMsg );			// 공격시작 핸들러.

  00abe	53		 push	 ebx
  00abf	56		 push	 esi
  00ac0	8b cf		 mov	 ecx, edi
  00ac2	c7 87 a8 06 00
	00 01 00 00 00	 mov	 DWORD PTR [edi+1704], 1
  00acc	e8 00 00 00 00	 call	 ?OnAttackStart@CMover@@QAEXPAV1@W4OBJMSG@@@Z ; CMover::OnAttackStart

; 552  : 		}
; 553  : 		break;

  00ad1	e9 0b 0d 00 00	 jmp	 $LN2@ProcessAct
$LN172@ProcessAct:
; File C:\IAGOS\server\v18\Source\Source\_AIInterface\Action.h

; 314  : 	BOOL			IsAction() { return (m_dwState & OBJSTA_ACTION_ALL) ? TRUE : FALSE; }

  00ad6	f7 46 04 00 00
	00 f0		 test	 DWORD PTR [esi+4], -268435456 ; f0000000H
; File C:\IAGOS\server\v18\Source\Source\_aiinterface\ActionMoverMsg.cpp

; 557  : 			if( IsAction() )	return 0;

  00add	0f 85 cc f6 ff
	ff		 jne	 $LN777@ProcessAct

; 558  : 			if( pMover->m_dwFlag & MVRF_NOATTACK )	return -1;		// 공격금지 상태면 걍 리턴.

  00ae3	f7 87 44 02 00
	00 00 02 00 00	 test	 DWORD PTR [edi+580], 512 ; 00000200H
  00aed	0f 85 05 05 00
	00		 jne	 $LN817@ProcessAct

; 559  : 			if( pMover->IsMode( NO_ATTACK_MODE ) ) return -1;

  00af3	f6 87 40 02 00
	00 40		 test	 BYTE PTR [edi+576], 64	; 00000040H
  00afa	0f 85 f8 04 00
	00		 jne	 $LN817@ProcessAct

; 560  : 			if( IsSit() )		// 앉아있는상태였으면 해제

  00b00	f6 46 08 04	 test	 BYTE PTR [esi+8], 4
  00b04	74 0a		 je	 SHORT $LN176@ProcessAct

; 561  : 				ResetState( OBJSTA_MOVE_ALL );

  00b06	68 ff 00 00 00	 push	 255			; 000000ffH
  00b0b	e8 00 00 00 00	 call	 ?ResetState@CAction@@QAEXK@Z ; CAction::ResetState
$LN176@ProcessAct:

; 562  : 			if( GetState() & OBJSTA_ATK_ALL )	return 0;		// 이미 공격동작을 하고 있으면 취소.

  00b10	f7 46 04 00 00
	ff 00		 test	 DWORD PTR [esi+4], 16711680 ; 00ff0000H
  00b17	0f 85 92 f6 ff
	ff		 jne	 $LN777@ProcessAct

; 563  : 			CMover* pHitObj		= prj.GetMover( nParam1 );

  00b1d	ff 75 10	 push	 DWORD PTR _nParam1$[ebp]
  00b20	b9 00 00 00 00	 mov	 ecx, OFFSET ?prj@@3VCProject@@A ; prj
  00b25	e8 00 00 00 00	 call	 ?GetMover@CProject@@QAEPAVCMover@@K@Z ; CProject::GetMover
  00b2a	89 45 18	 mov	 DWORD PTR _pHitObj$1$[ebp], eax
; File C:\IAGOS\server\v18\Source\Source\_Common\Obj.h

; 327  : 	return pObj && ( pObj->IsDelete() == FALSE ); 

  00b2d	85 c0		 test	 eax, eax
  00b2f	0f 84 c3 04 00
	00		 je	 $LN817@ProcessAct

; 180  : 	BOOL			IsDelete()	{ return (m_dwFlags & OBJ_FLAG_DELETE);  }

  00b35	f6 40 04 01	 test	 BYTE PTR [eax+4], 1

; 327  : 	return pObj && ( pObj->IsDelete() == FALSE ); 

  00b39	0f 85 b9 04 00
	00		 jne	 $LN817@ProcessAct
; File C:\IAGOS\server\v18\Source\Source\_aiinterface\ActionMoverMsg.cpp

; 566  : 			if( pHitObj->IsDie() )

  00b3f	8b c8		 mov	 ecx, eax
  00b41	e8 00 00 00 00	 call	 ?IsDie@CMover@@QAEHXZ	; CMover::IsDie
  00b46	85 c0		 test	 eax, eax
  00b48	0f 85 aa 04 00
	00		 jne	 $LN817@ProcessAct

; 567  : 				return -1;
; 568  : 
; 569  : 			m_idTarget = (DWORD)nParam1;		// 공격 타겟.

  00b4e	8b 45 10	 mov	 eax, DWORD PTR _nParam1$[ebp]

; 570  : 
; 571  : #ifdef __WORLDSERVER
; 572  : 			if( !g_eLocal.GetState( EVE_STEAL ) )

  00b51	b9 00 00 00 00	 mov	 ecx, OFFSET ?g_eLocal@@3VCFlyffEvent@@A ; g_eLocal
  00b56	6a 0d		 push	 13			; 0000000dH
  00b58	89 86 88 00 00
	00		 mov	 DWORD PTR [esi+136], eax
  00b5e	e8 00 00 00 00	 call	 ?GetState@CFlyffEvent@@QAEEH@Z ; CFlyffEvent::GetState
  00b63	84 c0		 test	 al, al
  00b65	75 12		 jne	 SHORT $LN181@ProcessAct

; 573  : 			{
; 574  : 				if( pMover->IsSteal( pHitObj ) )	// pHitObj를 스틸하려하면 이공격은 무시.

  00b67	ff 75 18	 push	 DWORD PTR _pHitObj$1$[ebp]
  00b6a	8b cf		 mov	 ecx, edi
  00b6c	e8 00 00 00 00	 call	 ?IsSteal@CMover@@QAEHPAV1@@Z ; CMover::IsSteal
  00b71	85 c0		 test	 eax, eax
  00b73	0f 85 7f 04 00
	00		 jne	 $LN817@ProcessAct
$LN181@ProcessAct:
; File C:\IAGOS\server\v18\Source\Source\_AIInterface\Action.h

; 304  : 	DWORD			GetDmgState() { return m_dwState & OBJSTA_DMG_ALL; }

  00b79	8b 46 04	 mov	 eax, DWORD PTR [esi+4]
  00b7c	25 00 00 00 0f	 and	 eax, 251658240		; 0f000000H
; File C:\IAGOS\server\v18\Source\Source\_aiinterface\ActionMoverMsg.cpp

; 578  : 			if( GetDmgState() == OBJSTA_DMG )	// 피격 중 공격명령이면 피격 상태를 클리어 시킨다.

  00b81	3d 00 00 00 01	 cmp	 eax, 16777216		; 01000000H
  00b86	75 0e		 jne	 SHORT $LN182@ProcessAct

; 579  : 				ResetState( OBJSTA_DMG_ALL );

  00b88	68 00 00 00 0f	 push	 251658240		; 0f000000H
  00b8d	8b ce		 mov	 ecx, esi
  00b8f	e8 00 00 00 00	 call	 ?ResetState@CAction@@QAEXK@Z ; CAction::ResetState
  00b94	eb 08		 jmp	 SHORT $LN184@ProcessAct
$LN182@ProcessAct:

; 580  : 			else if( GetState() & OBJSTA_DMG_ALL )	// 그외 피격동작은 다 취소

  00b96	85 c0		 test	 eax, eax
  00b98	0f 85 5a 04 00
	00		 jne	 $LN817@ProcessAct
$LN184@ProcessAct:
; File C:\IAGOS\server\v18\Source\Source\_AIInterface\Action.h

; 308  : 	BOOL			IsStateFlag( DWORD dwStateFlag ) { return ( m_dwStateFlag & dwStateFlag ) ? TRUE : FALSE; }

  00b9e	f6 46 08 01	 test	 BYTE PTR [esi+8], 1
; File C:\IAGOS\server\v18\Source\Source\_aiinterface\ActionMoverMsg.cpp

; 582  : 			if( IsStateFlag( OBJSTAF_COMBAT ) == FALSE )

  00ba2	75 13		 jne	 SHORT $LN185@ProcessAct

; 583  : 				SendActMsg( OBJMSG_MODE_COMBAT );

  00ba4	8b 06		 mov	 eax, DWORD PTR [esi]
  00ba6	8b ce		 mov	 ecx, esi
  00ba8	6a 00		 push	 0
  00baa	6a 00		 push	 0
  00bac	6a 00		 push	 0
  00bae	6a 00		 push	 0
  00bb0	6a 00		 push	 0
  00bb2	6a 12		 push	 18			; 00000012H
  00bb4	ff 50 04	 call	 DWORD PTR [eax+4]
$LN185@ProcessAct:
; File C:\IAGOS\server\v18\Source\Source\_AIInterface\Action.h

; 292  : 	void			SetState( DWORD dwType, DWORD dwState )	{ ResetState(dwType);	m_dwState |= dwState; }

  00bb7	68 00 00 ff 00	 push	 16711680		; 00ff0000H
  00bbc	8b ce		 mov	 ecx, esi
  00bbe	e8 00 00 00 00	 call	 ?ResetState@CAction@@QAEXK@Z ; CAction::ResetState
  00bc3	81 4e 04 00 00
	06 00		 or	 DWORD PTR [esi+4], 393216 ; 00060000H
; File C:\IAGOS\server\v18\Source\Source\_aiinterface\ActionMoverMsg.cpp

; 589  : 			pMover->SetMotion( nUseMotion, ANILOOP_1PLAY );		// 완드동작이 없으므로 공격동작으로 대신함.

  00bca	8b cf		 mov	 ecx, edi
  00bcc	8b 07		 mov	 eax, DWORD PTR [edi]
  00bce	6a 00		 push	 0
  00bd0	6a 01		 push	 1
  00bd2	ff 75 14	 push	 DWORD PTR _nParam2$[ebp]
  00bd5	ff 50 04	 call	 DWORD PTR [eax+4]

; 590  : 			pHitObj->SetJJim( pMover );			// 공격이 시작되면 타겟에다가 내가 찜했다는걸 표시.

  00bd8	8b 75 18	 mov	 esi, DWORD PTR _pHitObj$1$[ebp]
  00bdb	8b ce		 mov	 ecx, esi
  00bdd	57		 push	 edi
  00bde	e8 00 00 00 00	 call	 ?SetJJim@CMover@@QAEXPAV1@@Z ; CMover::SetJJim

; 591  : 			pMover->OnAttackStart( pHitObj, dwMsg );			// 공격시작 핸들러.

  00be3	53		 push	 ebx
  00be4	56		 push	 esi
  00be5	8b cf		 mov	 ecx, edi
  00be7	e8 00 00 00 00	 call	 ?OnAttackStart@CMover@@QAEXPAV1@W4OBJMSG@@@Z ; CMover::OnAttackStart

; 592  : 			pMover->m_nAtkCnt = 1;		// 카운트 시작.

  00bec	c7 87 a8 06 00
	00 01 00 00 00	 mov	 DWORD PTR [edi+1704], 1

; 593  : 		}
; 594  : 		break;

  00bf6	e9 e6 0b 00 00	 jmp	 $LN2@ProcessAct
$LN186@ProcessAct:
; File C:\IAGOS\server\v18\Source\Source\_AIInterface\Action.h

; 314  : 	BOOL			IsAction() { return (m_dwState & OBJSTA_ACTION_ALL) ? TRUE : FALSE; }

  00bfb	f7 46 04 00 00
	00 f0		 test	 DWORD PTR [esi+4], -268435456 ; f0000000H
; File C:\IAGOS\server\v18\Source\Source\_aiinterface\ActionMoverMsg.cpp

; 601  : 			if( IsAction() )

  00c02	0f 85 a7 f5 ff
	ff		 jne	 $LN777@ProcessAct

; 602  : 				return 0;
; 603  : 			if( pMover->m_dwFlag & MVRF_NOATTACK )

  00c08	f7 87 44 02 00
	00 00 02 00 00	 test	 DWORD PTR [edi+580], 512 ; 00000200H
  00c12	0f 85 fd 05 00
	00		 jne	 $LN809@ProcessAct

; 604  : 				return -2;		// 공격금지 상태면 걍 리턴.
; 605  : 			if( pMover->IsMode( NO_ATTACK_MODE ) )

  00c18	f6 87 40 02 00
	00 40		 test	 BYTE PTR [edi+576], 64	; 00000040H
  00c1f	0f 85 f0 05 00
	00		 jne	 $LN809@ProcessAct

; 606  : 				return -2;
; 607  : 
; 608  : #ifdef __CLIENT
; 609  : 			if( pMover->IsActiveMover() )
; 610  : #endif
; 611  : 			{
; 612  : 				// 기본은 오른손 검사( 완드용 )
; 613  : 				CItemElem* pItemElem = pMover->GetWeaponItem();

  00c25	6a 0a		 push	 10			; 0000000aH
  00c27	8b cf		 mov	 ecx, edi
  00c29	e8 00 00 00 00	 call	 ?GetWeaponItem@CMover@@QAEPAVCItemElem@@H@Z ; CMover::GetWeaponItem
  00c2e	89 45 14	 mov	 DWORD PTR _pItemElem$1$[ebp], eax

; 614  : #ifdef __CROSSBOW
; 615  : 				if( pItemElem && (pItemElem->GetProp()->dwItemKind3 == IK3_WAND || pItemElem->GetProp()->dwItemKind3 == IK3_BOW || pItemElem->GetProp()->dwItemKind3 == IK3_CROSSBOW ))

  00c31	85 c0		 test	 eax, eax
  00c33	74 35		 je	 SHORT $LN193@ProcessAct
  00c35	8b c8		 mov	 ecx, eax
  00c37	e8 00 00 00 00	 call	 ?GetPropA@CItemElem@@QAEPAUItemProp@@XZ ; CItemElem::GetPropA
  00c3c	83 78 78 06	 cmp	 DWORD PTR [eax+120], 6
  00c40	0f 84 cf 05 00
	00		 je	 $LN809@ProcessAct
  00c46	8b 4d 14	 mov	 ecx, DWORD PTR _pItemElem$1$[ebp]
  00c49	e8 00 00 00 00	 call	 ?GetPropA@CItemElem@@QAEPAUItemProp@@XZ ; CItemElem::GetPropA
  00c4e	83 78 78 0c	 cmp	 DWORD PTR [eax+120], 12	; 0000000cH
  00c52	0f 84 bd 05 00
	00		 je	 $LN809@ProcessAct
  00c58	8b 4d 14	 mov	 ecx, DWORD PTR _pItemElem$1$[ebp]
  00c5b	e8 00 00 00 00	 call	 ?GetPropA@CItemElem@@QAEPAUItemProp@@XZ ; CItemElem::GetPropA
  00c60	83 78 78 0e	 cmp	 DWORD PTR [eax+120], 14	; 0000000eH
  00c64	0f 84 ab 05 00
	00		 je	 $LN809@ProcessAct
$LN193@ProcessAct:

; 616  : #else // __CROSSBOW
; 617  : 				if( pItemElem && (pItemElem->GetProp()->dwItemKind3 == IK3_WAND || pItemElem->GetProp()->dwItemKind3 == IK3_BOW ) )
; 618  : #endif // __CROSSBOW	
; 619  : 					return -2;
; 620  : 			}
; 621  : 				
; 622  : 			CMover* pHitObj		= prj.GetMover( nParam1 );

  00c6a	ff 75 10	 push	 DWORD PTR _nParam1$[ebp]
  00c6d	b9 00 00 00 00	 mov	 ecx, OFFSET ?prj@@3VCProject@@A ; prj
  00c72	e8 00 00 00 00	 call	 ?GetMover@CProject@@QAEPAVCMover@@K@Z ; CProject::GetMover
  00c77	89 45 14	 mov	 DWORD PTR _pHitObj$1$[ebp], eax
; File C:\IAGOS\server\v18\Source\Source\_Common\Obj.h

; 327  : 	return pObj && ( pObj->IsDelete() == FALSE ); 

  00c7a	85 c0		 test	 eax, eax
  00c7c	0f 84 76 03 00
	00		 je	 $LN817@ProcessAct

; 180  : 	BOOL			IsDelete()	{ return (m_dwFlags & OBJ_FLAG_DELETE);  }

  00c82	f6 40 04 01	 test	 BYTE PTR [eax+4], 1

; 327  : 	return pObj && ( pObj->IsDelete() == FALSE ); 

  00c86	0f 85 6c 03 00
	00		 jne	 $LN817@ProcessAct
; File C:\IAGOS\server\v18\Source\Source\_aiinterface\ActionMoverMsg.cpp

; 634  : 			if( !g_eLocal.GetState( EVE_STEAL ) )

  00c8c	8b 45 10	 mov	 eax, DWORD PTR _nParam1$[ebp]
  00c8f	b9 00 00 00 00	 mov	 ecx, OFFSET ?g_eLocal@@3VCFlyffEvent@@A ; g_eLocal
  00c94	6a 0d		 push	 13			; 0000000dH
  00c96	89 86 88 00 00
	00		 mov	 DWORD PTR [esi+136], eax
  00c9c	e8 00 00 00 00	 call	 ?GetState@CFlyffEvent@@QAEEH@Z ; CFlyffEvent::GetState
  00ca1	84 c0		 test	 al, al
  00ca3	75 12		 jne	 SHORT $LN197@ProcessAct

; 635  : 			{
; 636  : 				if( pMover->IsSteal( pHitObj ) )	// pHitObj를 스틸하려하면 이공격은 무시.

  00ca5	ff 75 14	 push	 DWORD PTR _pHitObj$1$[ebp]
  00ca8	8b cf		 mov	 ecx, edi
  00caa	e8 00 00 00 00	 call	 ?IsSteal@CMover@@QAEHPAV1@@Z ; CMover::IsSteal
  00caf	85 c0		 test	 eax, eax
  00cb1	0f 85 5e 05 00
	00		 jne	 $LN809@ProcessAct
$LN197@ProcessAct:

; 637  : 					return -2;
; 638  : 			}
; 639  : #endif
; 640  : 			if( pHitObj->m_pActMover->IsDie() )	return( -1 );

  00cb7	8b 45 14	 mov	 eax, DWORD PTR _pHitObj$1$[ebp]
  00cba	8b 80 38 02 00
	00		 mov	 eax, DWORD PTR [eax+568]
  00cc0	f7 40 04 00 00
	00 08		 test	 DWORD PTR [eax+4], 134217728 ; 08000000H
  00cc7	0f 85 2b 03 00
	00		 jne	 $LN817@ProcessAct

; 641  : 			if( GetState() & OBJSTA_ATK_ALL )	return( 0 );	// 이미 공격중이면 리턴

  00ccd	f7 46 04 00 00
	ff 00		 test	 DWORD PTR [esi+4], 16711680 ; 00ff0000H
  00cd4	0f 85 d5 f4 ff
	ff		 jne	 $LN777@ProcessAct

; 642  : 			if( IsSit() )		// 앉아있는상태였으면 해제

  00cda	f6 46 08 04	 test	 BYTE PTR [esi+8], 4
  00cde	74 0c		 je	 SHORT $LN200@ProcessAct

; 643  : 				ResetState( OBJSTA_MOVE_ALL );

  00ce0	68 ff 00 00 00	 push	 255			; 000000ffH
  00ce5	8b ce		 mov	 ecx, esi
  00ce7	e8 00 00 00 00	 call	 ?ResetState@CAction@@QAEXK@Z ; CAction::ResetState
$LN200@ProcessAct:
; File C:\IAGOS\server\v18\Source\Source\_AIInterface\Action.h

; 304  : 	DWORD			GetDmgState() { return m_dwState & OBJSTA_DMG_ALL; }

  00cec	8b 46 04	 mov	 eax, DWORD PTR [esi+4]
  00cef	25 00 00 00 0f	 and	 eax, 251658240		; 0f000000H
; File C:\IAGOS\server\v18\Source\Source\_aiinterface\ActionMoverMsg.cpp

; 644  : 			if( GetDmgState() == OBJSTA_DMG )	// 피격 중 공격명령이면 피격 상태를 클리어 시킨다.

  00cf4	3d 00 00 00 01	 cmp	 eax, 16777216		; 01000000H
  00cf9	75 0e		 jne	 SHORT $LN201@ProcessAct

; 645  : 				ResetState( OBJSTA_DMG_ALL );

  00cfb	68 00 00 00 0f	 push	 251658240		; 0f000000H
  00d00	8b ce		 mov	 ecx, esi
  00d02	e8 00 00 00 00	 call	 ?ResetState@CAction@@QAEXK@Z ; CAction::ResetState
  00d07	eb 08		 jmp	 SHORT $LN203@ProcessAct
$LN201@ProcessAct:

; 646  : 			else
; 647  : 			if( GetState() & OBJSTA_DMG_ALL )	// 그외 피격동작은 다 취소

  00d09	85 c0		 test	 eax, eax
  00d0b	0f 85 ce 02 00
	00		 jne	 $LN818@ProcessAct
$LN203@ProcessAct:
; File C:\IAGOS\server\v18\Source\Source\_AIInterface\Action.h

; 308  : 	BOOL			IsStateFlag( DWORD dwStateFlag ) { return ( m_dwStateFlag & dwStateFlag ) ? TRUE : FALSE; }

  00d11	f6 46 08 01	 test	 BYTE PTR [esi+8], 1
; File C:\IAGOS\server\v18\Source\Source\_aiinterface\ActionMoverMsg.cpp

; 649  : 			if( IsStateFlag( OBJSTAF_COMBAT ) == FALSE )

  00d15	75 13		 jne	 SHORT $LN204@ProcessAct

; 650  : 				SendActMsg( OBJMSG_MODE_COMBAT );

  00d17	8b 06		 mov	 eax, DWORD PTR [esi]
  00d19	8b ce		 mov	 ecx, esi
  00d1b	6a 00		 push	 0
  00d1d	6a 00		 push	 0
  00d1f	6a 00		 push	 0
  00d21	6a 00		 push	 0
  00d23	6a 00		 push	 0
  00d25	6a 12		 push	 18			; 00000012H
  00d27	ff 50 04	 call	 DWORD PTR [eax+4]
$LN204@ProcessAct:

; 651  : 			SendActMsg( OBJMSG_STOP_TURN );	// 공격할땐 턴을 정지시킴

  00d2a	8b 06		 mov	 eax, DWORD PTR [esi]
  00d2c	8b ce		 mov	 ecx, esi
  00d2e	6a 00		 push	 0
  00d30	6a 00		 push	 0
  00d32	6a 00		 push	 0
  00d34	6a 00		 push	 0
  00d36	6a 00		 push	 0
  00d38	6a 0a		 push	 10			; 0000000aH
  00d3a	ff 50 04	 call	 DWORD PTR [eax+4]

; 652  : 			SendActMsg( OBJMSG_STAND );

  00d3d	8b 06		 mov	 eax, DWORD PTR [esi]
  00d3f	8b ce		 mov	 ecx, esi
  00d41	6a 00		 push	 0
  00d43	6a 00		 push	 0
  00d45	6a 00		 push	 0
  00d47	6a 00		 push	 0
  00d49	6a 00		 push	 0
  00d4b	6a 03		 push	 3
  00d4d	ff 50 04	 call	 DWORD PTR [eax+4]

; 653  : 			
; 654  : 
; 655  : 			DWORD dwOption = MOP_SWDFORCE | MOP_NO_TRANS;
; 656  : 			
; 657  : #ifdef __XSLOW1018
; 658  : 			int nMin, nTemp;
; 659  : 			pMover->GetHitMinMax( &nMin, &nTemp );
; 660  : 			if( dwMsg == OBJMSG_ATK3 || dwMsg == OBJMSG_ATK4 )
; 661  : 				if( pMover->GetLevel() >= 12 && pHitObj->GetHitPoint() < (int)(nMin * 1.5f) )
; 662  : 					dwOption |= MOP_HITSLOW;
; 663  : #endif // xSlow1018
; 664  : 			if( pMover->IsPlayer() )

  00d50	83 bf 30 02 00
	00 00		 cmp	 DWORD PTR [edi+560], 0
  00d57	74 0d		 je	 SHORT $LN205@ProcessAct

; 665  : 				pMover->m_fAniSpeed = pMover->GetAttackSpeed();

  00d59	8b cf		 mov	 ecx, edi
  00d5b	e8 00 00 00 00	 call	 ?GetAttackSpeed@CMover@@QAEMXZ ; CMover::GetAttackSpeed
  00d60	d9 9f 50 02 00
	00		 fstp	 DWORD PTR [edi+592]
$LN205@ProcessAct:

; 666  : 			
; 667  : 			switch( dwMsg )

  00d66	8d 43 e3	 lea	 eax, DWORD PTR [ebx-29]
  00d69	83 f8 03	 cmp	 eax, 3
  00d6c	77 78		 ja	 SHORT $LN4@ProcessAct
  00d6e	ff 24 85 00 00
	00 00		 jmp	 DWORD PTR $LN933@ProcessAct[eax*4]
$LN206@ProcessAct:
; File C:\IAGOS\server\v18\Source\Source\_AIInterface\Action.h

; 292  : 	void			SetState( DWORD dwType, DWORD dwState )	{ ResetState(dwType);	m_dwState |= dwState; }

  00d75	68 00 00 ff 00	 push	 16711680		; 00ff0000H
  00d7a	8b ce		 mov	 ecx, esi
  00d7c	e8 00 00 00 00	 call	 ?ResetState@CAction@@QAEXK@Z ; CAction::ResetState
  00d81	81 4e 04 00 00
	01 00		 or	 DWORD PTR [esi+4], 65536 ; 00010000H
; File C:\IAGOS\server\v18\Source\Source\_aiinterface\ActionMoverMsg.cpp

; 671  : 					pMover->SetMotion( MTI_ATK1, ANILOOP_1PLAY, dwOption );		// 최초 메시지 입력시 동작 설정

  00d88	6a 05		 push	 5
  00d8a	6a 01		 push	 1
  00d8c	6a 17		 push	 23			; 00000017H

; 672  : 					break;

  00d8e	eb 4f		 jmp	 SHORT $LN938@ProcessAct
$LN207@ProcessAct:
; File C:\IAGOS\server\v18\Source\Source\_AIInterface\Action.h

; 292  : 	void			SetState( DWORD dwType, DWORD dwState )	{ ResetState(dwType);	m_dwState |= dwState; }

  00d90	68 00 00 ff 00	 push	 16711680		; 00ff0000H
  00d95	8b ce		 mov	 ecx, esi
  00d97	e8 00 00 00 00	 call	 ?ResetState@CAction@@QAEXK@Z ; CAction::ResetState
  00d9c	81 4e 04 00 00
	02 00		 or	 DWORD PTR [esi+4], 131072 ; 00020000H
; File C:\IAGOS\server\v18\Source\Source\_aiinterface\ActionMoverMsg.cpp

; 675  : 					pMover->SetMotion( MTI_ATK2, ANILOOP_1PLAY, dwOption );		// 최초 메시지 입력시 동작 설정

  00da3	6a 05		 push	 5
  00da5	6a 01		 push	 1
  00da7	6a 18		 push	 24			; 00000018H

; 676  : 					break;

  00da9	eb 34		 jmp	 SHORT $LN938@ProcessAct
$LN208@ProcessAct:
; File C:\IAGOS\server\v18\Source\Source\_AIInterface\Action.h

; 292  : 	void			SetState( DWORD dwType, DWORD dwState )	{ ResetState(dwType);	m_dwState |= dwState; }

  00dab	68 00 00 ff 00	 push	 16711680		; 00ff0000H
  00db0	8b ce		 mov	 ecx, esi
  00db2	e8 00 00 00 00	 call	 ?ResetState@CAction@@QAEXK@Z ; CAction::ResetState
  00db7	81 4e 04 00 00
	03 00		 or	 DWORD PTR [esi+4], 196608 ; 00030000H
; File C:\IAGOS\server\v18\Source\Source\_aiinterface\ActionMoverMsg.cpp

; 679  : 					pMover->SetMotion( MTI_ATK3, ANILOOP_1PLAY, dwOption );		// 최초 메시지 입력시 동작 설정

  00dbe	6a 05		 push	 5
  00dc0	6a 01		 push	 1
  00dc2	6a 19		 push	 25			; 00000019H

; 680  : 					break;

  00dc4	eb 19		 jmp	 SHORT $LN938@ProcessAct
$LN209@ProcessAct:
; File C:\IAGOS\server\v18\Source\Source\_AIInterface\Action.h

; 292  : 	void			SetState( DWORD dwType, DWORD dwState )	{ ResetState(dwType);	m_dwState |= dwState; }

  00dc6	68 00 00 ff 00	 push	 16711680		; 00ff0000H
  00dcb	8b ce		 mov	 ecx, esi
  00dcd	e8 00 00 00 00	 call	 ?ResetState@CAction@@QAEXK@Z ; CAction::ResetState
  00dd2	81 4e 04 00 00
	04 00		 or	 DWORD PTR [esi+4], 262144 ; 00040000H
; File C:\IAGOS\server\v18\Source\Source\_aiinterface\ActionMoverMsg.cpp

; 683  : 					pMover->SetMotion( MTI_ATK4, ANILOOP_1PLAY, dwOption );		// 최초 메시지 입력시 동작 설정

  00dd9	6a 05		 push	 5
  00ddb	6a 01		 push	 1
  00ddd	6a 1a		 push	 26			; 0000001aH
$LN938@ProcessAct:
; File C:\IAGOS\server\v18\Source\Source\_Common\Obj.h

; 215  : 	D3DXVECTOR3		GetPos()	{ return m_vPos; }

  00ddf	8b 07		 mov	 eax, DWORD PTR [edi]
  00de1	8b cf		 mov	 ecx, edi
  00de3	ff 50 04	 call	 DWORD PTR [eax+4]
$LN4@ProcessAct:
  00de6	8b 45 14	 mov	 eax, DWORD PTR _pHitObj$1$[ebp]
  00de9	f3 0f 7e 80 60
	01 00 00	 movq	 xmm0, QWORD PTR [eax+352]
  00df1	8b 80 68 01 00
	00		 mov	 eax, DWORD PTR [eax+360]
  00df7	89 45 e0	 mov	 DWORD PTR $T2[ebp+8], eax
  00dfa	8b 46 0c	 mov	 eax, DWORD PTR [esi+12]
  00dfd	66 0f d6 45 d8	 movq	 QWORD PTR $T2[ebp], xmm0
  00e02	f3 0f 7e 80 60
	01 00 00	 movq	 xmm0, QWORD PTR [eax+352]
  00e0a	8b 80 68 01 00
	00		 mov	 eax, DWORD PTR [eax+360]
  00e10	89 45 ec	 mov	 DWORD PTR $T5[ebp+8], eax
; File C:\IAGOS\server\v18\Source\Source\_aiinterface\ActionMoverMsg.cpp

; 686  : 			pMover->SetAngle( GetDegree( pHitObj->GetPos(), m_pMover->GetPos() ) );

  00e13	8d 45 e4	 lea	 eax, DWORD PTR $T5[ebp]
  00e16	50		 push	 eax
  00e17	8d 45 d8	 lea	 eax, DWORD PTR $T2[ebp]
; File C:\IAGOS\server\v18\Source\Source\_Common\Obj.h

; 215  : 	D3DXVECTOR3		GetPos()	{ return m_vPos; }

  00e1a	66 0f d6 45 e4	 movq	 QWORD PTR $T5[ebp], xmm0
; File C:\IAGOS\server\v18\Source\Source\_aiinterface\ActionMoverMsg.cpp

; 686  : 			pMover->SetAngle( GetDegree( pHitObj->GetPos(), m_pMover->GetPos() ) );

  00e1f	50		 push	 eax
  00e20	e8 00 00 00 00	 call	 ?GetDegree@@YAMABUD3DXVECTOR3@@0@Z ; GetDegree
  00e25	83 c4 04	 add	 esp, 4
  00e28	8b cf		 mov	 ecx, edi
  00e2a	d9 1c 24	 fstp	 DWORD PTR [esp]
  00e2d	e8 00 00 00 00	 call	 ?SetAngle@CObj@@QAEXM@Z	; CObj::SetAngle

; 687  : 			pHitObj->SetJJim( pMover );

  00e32	8b 4d 14	 mov	 ecx, DWORD PTR _pHitObj$1$[ebp]
  00e35	57		 push	 edi
  00e36	e8 00 00 00 00	 call	 ?SetJJim@CMover@@QAEXPAV1@@Z ; CMover::SetJJim

; 688  : 
; 689  : 			pMover->m_nAtkCnt = 1;		// 카운트 시작.
; 690  : 			pMover->OnAttackStart( pHitObj, dwMsg );			// 공격시작 핸들러.

  00e3b	53		 push	 ebx
  00e3c	8b 5d 14	 mov	 ebx, DWORD PTR _pHitObj$1$[ebp]
  00e3f	8b cf		 mov	 ecx, edi
  00e41	53		 push	 ebx
  00e42	c7 87 a8 06 00
	00 01 00 00 00	 mov	 DWORD PTR [edi+1704], 1
  00e4c	e8 00 00 00 00	 call	 ?OnAttackStart@CMover@@QAEXPAV1@W4OBJMSG@@@Z ; CMover::OnAttackStart

; 691  : 			m_objidHit	= (OBJID)nParam1;	// 타겟의 아이디.	

  00e51	8b 45 10	 mov	 eax, DWORD PTR _nParam1$[ebp]
  00e54	89 86 a4 00 00
	00		 mov	 DWORD PTR [esi+164], eax

; 692  : 
; 693  : 			m_dwAtkFlags	= (DWORD)LOWORD( (DWORD)nParam3 );

  00e5a	0f b7 45 18	 movzx	 eax, WORD PTR _nParam3$[ebp]
  00e5e	89 86 94 00 00
	00		 mov	 DWORD PTR [esi+148], eax

; 694  : #ifdef __WORLDSERVER
; 695  : 			if( m_dwAtkFlags == 0 ) 

  00e64	85 c0		 test	 eax, eax
  00e66	0f 85 7a 09 00
	00		 jne	 $LN1@ProcessAct

; 696  : 			{
; 697  : 				if( pMover->GetAttackResult( pHitObj, dwOption ) )		// 공격 성공률을 얻는다.

  00e6c	6a 05		 push	 5
  00e6e	53		 push	 ebx
  00e6f	8b cf		 mov	 ecx, edi
  00e71	e8 00 00 00 00	 call	 ?GetAttackResult@CMover@@QAEHPAV1@K@Z ; CMover::GetAttackResult
  00e76	85 c0		 test	 eax, eax
  00e78	74 0f		 je	 SHORT $LN211@ProcessAct

; 698  : 					m_dwAtkFlags = AF_GENERIC;

  00e7a	c7 86 94 00 00
	00 01 00 00 00	 mov	 DWORD PTR [esi+148], 1
  00e84	e9 58 09 00 00	 jmp	 $LN2@ProcessAct
$LN211@ProcessAct:

; 699  : 				else
; 700  : 					m_dwAtkFlags = AF_MISS;

  00e89	c7 86 94 00 00
	00 02 00 00 00	 mov	 DWORD PTR [esi+148], 2
  00e93	b8 02 00 00 00	 mov	 eax, 2

; 1179 : }

  00e98	8b 4d f4	 mov	 ecx, DWORD PTR __$EHRec$[ebp]
  00e9b	64 89 0d 00 00
	00 00		 mov	 DWORD PTR fs:0, ecx
  00ea2	59		 pop	 ecx
  00ea3	5f		 pop	 edi
  00ea4	5e		 pop	 esi
  00ea5	5b		 pop	 ebx
  00ea6	8b e5		 mov	 esp, ebp
  00ea8	5d		 pop	 ebp
  00ea9	c2 1c 00	 ret	 28			; 0000001cH
$LN213@ProcessAct:

; 701  : 			}
; 702  : #else
; 703  : 			m_dwAtkFlags = AF_GENERIC;		// 구조가 좀 이상한데. 클라에서는 명중판정을 하지 않으므로 무조건 평타명중으로 인정.
; 704  : #endif
; 705  : 			
; 706  : 			return( (int)m_dwAtkFlags );
; 707  : 			break;
; 708  : 		}	
; 709  : 	// 몬스터들의 특수공격.
; 710  : 	case OBJMSG_SP_ATK1:
; 711  : 	case OBJMSG_SP_ATK2:
; 712  : 		{
; 713  : 			CMover* pHitObj		= prj.GetMover( nParam1 );

  00eac	ff 75 10	 push	 DWORD PTR _nParam1$[ebp]
  00eaf	b9 00 00 00 00	 mov	 ecx, OFFSET ?prj@@3VCProject@@A ; prj
  00eb4	e8 00 00 00 00	 call	 ?GetMover@CProject@@QAEPAVCMover@@K@Z ; CProject::GetMover
  00eb9	89 45 10	 mov	 DWORD PTR _pHitObj$1$[ebp], eax
; File C:\IAGOS\server\v18\Source\Source\_Common\Obj.h

; 327  : 	return pObj && ( pObj->IsDelete() == FALSE ); 

  00ebc	85 c0		 test	 eax, eax
  00ebe	0f 84 34 01 00
	00		 je	 $LN817@ProcessAct

; 180  : 	BOOL			IsDelete()	{ return (m_dwFlags & OBJ_FLAG_DELETE);  }

  00ec4	f6 40 04 01	 test	 BYTE PTR [eax+4], 1

; 327  : 	return pObj && ( pObj->IsDelete() == FALSE ); 

  00ec8	0f 85 2a 01 00
	00		 jne	 $LN817@ProcessAct
; File C:\IAGOS\server\v18\Source\Source\_aiinterface\ActionMoverMsg.cpp

; 717  : 			if( pHitObj->m_pActMover->IsDie() )	return( -1 );

  00ece	8b 88 38 02 00
	00		 mov	 ecx, DWORD PTR [eax+568]
  00ed4	f7 41 04 00 00
	00 08		 test	 DWORD PTR [ecx+4], 134217728 ; 08000000H
  00edb	0f 85 17 01 00
	00		 jne	 $LN817@ProcessAct

; 718  : 			if( GetState() & OBJSTA_ATK_ALL )	return( 0 );	// 이미 공격중이면 리턴

  00ee1	8b 46 04	 mov	 eax, DWORD PTR [esi+4]
  00ee4	a9 00 00 ff 00	 test	 eax, 16711680		; 00ff0000H
  00ee9	0f 85 c0 f2 ff
	ff		 jne	 $LN777@ProcessAct

; 719  : 			if( pMover->m_dwFlag & MVRF_NOATTACK )	return 0;		// 공격금지 상태면 걍 리턴.

  00eef	f7 87 44 02 00
	00 00 02 00 00	 test	 DWORD PTR [edi+580], 512 ; 00000200H
  00ef9	0f 85 b0 f2 ff
	ff		 jne	 $LN777@ProcessAct
; File C:\IAGOS\server\v18\Source\Source\_AIInterface\Action.h

; 304  : 	DWORD			GetDmgState() { return m_dwState & OBJSTA_DMG_ALL; }

  00eff	25 00 00 00 0f	 and	 eax, 251658240		; 0f000000H
; File C:\IAGOS\server\v18\Source\Source\_aiinterface\ActionMoverMsg.cpp

; 720  : 			if( GetDmgState() == OBJSTA_DMG )	// 피격 중 공격명령이면 피격 상태를 클리어 시킨다.

  00f04	3d 00 00 00 01	 cmp	 eax, 16777216		; 01000000H
  00f09	0f 85 c8 00 00
	00		 jne	 $LN219@ProcessAct

; 721  : 				ResetState( OBJSTA_DMG_ALL );

  00f0f	68 00 00 00 0f	 push	 251658240		; 0f000000H
  00f14	8b ce		 mov	 ecx, esi
  00f16	e8 00 00 00 00	 call	 ?ResetState@CAction@@QAEXK@Z ; CAction::ResetState
$LN221@ProcessAct:
; File C:\IAGOS\server\v18\Source\Source\_AIInterface\Action.h

; 308  : 	BOOL			IsStateFlag( DWORD dwStateFlag ) { return ( m_dwStateFlag & dwStateFlag ) ? TRUE : FALSE; }

  00f1b	f6 46 08 01	 test	 BYTE PTR [esi+8], 1
; File C:\IAGOS\server\v18\Source\Source\_aiinterface\ActionMoverMsg.cpp

; 725  : 			if( IsStateFlag( OBJSTAF_COMBAT ) == FALSE )

  00f1f	75 13		 jne	 SHORT $LN222@ProcessAct

; 726  : 				SendActMsg( OBJMSG_MODE_COMBAT );

  00f21	8b 06		 mov	 eax, DWORD PTR [esi]
  00f23	8b ce		 mov	 ecx, esi
  00f25	6a 00		 push	 0
  00f27	6a 00		 push	 0
  00f29	6a 00		 push	 0
  00f2b	6a 00		 push	 0
  00f2d	6a 00		 push	 0
  00f2f	6a 12		 push	 18			; 00000012H
  00f31	ff 50 04	 call	 DWORD PTR [eax+4]
$LN222@ProcessAct:

; 727  : 			SendActMsg( OBJMSG_STOP_TURN );	// 공격할땐 턴을 정지시킴

  00f34	8b 06		 mov	 eax, DWORD PTR [esi]
  00f36	8b ce		 mov	 ecx, esi
  00f38	6a 00		 push	 0
  00f3a	6a 00		 push	 0
  00f3c	6a 00		 push	 0
  00f3e	6a 00		 push	 0
  00f40	6a 00		 push	 0
  00f42	6a 0a		 push	 10			; 0000000aH
  00f44	ff 50 04	 call	 DWORD PTR [eax+4]

; 728  : 			SendActMsg( OBJMSG_STAND );

  00f47	8b 06		 mov	 eax, DWORD PTR [esi]
  00f49	8b ce		 mov	 ecx, esi
  00f4b	6a 00		 push	 0
  00f4d	6a 00		 push	 0
  00f4f	6a 00		 push	 0
  00f51	6a 00		 push	 0
  00f53	6a 00		 push	 0
  00f55	6a 03		 push	 3
  00f57	ff 50 04	 call	 DWORD PTR [eax+4]
; File C:\IAGOS\server\v18\Source\Source\_AIInterface\Action.h

; 292  : 	void			SetState( DWORD dwType, DWORD dwState )	{ ResetState(dwType);	m_dwState |= dwState; }

  00f5a	68 00 00 ff 00	 push	 16711680		; 00ff0000H
  00f5f	8b ce		 mov	 ecx, esi
  00f61	e8 00 00 00 00	 call	 ?ResetState@CAction@@QAEXK@Z ; CAction::ResetState
  00f66	81 4e 04 00 00
	10 00		 or	 DWORD PTR [esi+4], 1048576 ; 00100000H
; File C:\IAGOS\server\v18\Source\Source\_aiinterface\ActionMoverMsg.cpp

; 732  : 			pMover->SetMotion( nUseMotion, ANILOOP_1PLAY, dwOption );		// 최초 메시지 입력시 동작 설정

  00f6d	8b cf		 mov	 ecx, edi
  00f6f	8b 07		 mov	 eax, DWORD PTR [edi]
  00f71	6a 01		 push	 1
  00f73	6a 01		 push	 1
  00f75	ff 75 18	 push	 DWORD PTR _nParam3$[ebp]
  00f78	ff 50 04	 call	 DWORD PTR [eax+4]
; File C:\IAGOS\server\v18\Source\Source\_Common\Obj.h

; 215  : 	D3DXVECTOR3		GetPos()	{ return m_vPos; }

  00f7b	8b 45 10	 mov	 eax, DWORD PTR _pHitObj$1$[ebp]
  00f7e	f3 0f 7e 80 60
	01 00 00	 movq	 xmm0, QWORD PTR [eax+352]
  00f86	8b 80 68 01 00
	00		 mov	 eax, DWORD PTR [eax+360]
  00f8c	89 45 ec	 mov	 DWORD PTR $T6[ebp+8], eax
  00f8f	8b 46 0c	 mov	 eax, DWORD PTR [esi+12]
  00f92	66 0f d6 45 e4	 movq	 QWORD PTR $T6[ebp], xmm0
  00f97	f3 0f 7e 80 60
	01 00 00	 movq	 xmm0, QWORD PTR [eax+352]
  00f9f	8b 80 68 01 00
	00		 mov	 eax, DWORD PTR [eax+360]
  00fa5	89 45 e0	 mov	 DWORD PTR $T3[ebp+8], eax
; File C:\IAGOS\server\v18\Source\Source\_aiinterface\ActionMoverMsg.cpp

; 733  : 			pMover->SetAngle( GetDegree( pHitObj->GetPos(), m_pMover->GetPos() ) );

  00fa8	8d 45 d8	 lea	 eax, DWORD PTR $T3[ebp]
  00fab	50		 push	 eax
  00fac	8d 45 e4	 lea	 eax, DWORD PTR $T6[ebp]
; File C:\IAGOS\server\v18\Source\Source\_Common\Obj.h

; 215  : 	D3DXVECTOR3		GetPos()	{ return m_vPos; }

  00faf	66 0f d6 45 d8	 movq	 QWORD PTR $T3[ebp], xmm0
; File C:\IAGOS\server\v18\Source\Source\_aiinterface\ActionMoverMsg.cpp

; 733  : 			pMover->SetAngle( GetDegree( pHitObj->GetPos(), m_pMover->GetPos() ) );

  00fb4	50		 push	 eax
  00fb5	e8 00 00 00 00	 call	 ?GetDegree@@YAMABUD3DXVECTOR3@@0@Z ; GetDegree
  00fba	83 c4 04	 add	 esp, 4
  00fbd	8b cf		 mov	 ecx, edi
  00fbf	d9 1c 24	 fstp	 DWORD PTR [esp]
  00fc2	e8 00 00 00 00	 call	 ?SetAngle@CObj@@QAEXM@Z	; CObj::SetAngle

; 734  : 			pMover->OnAttackStart( pHitObj, dwMsg );			// 공격시작 핸들러.

  00fc7	53		 push	 ebx
  00fc8	ff 75 10	 push	 DWORD PTR _pHitObj$1$[ebp]
  00fcb	8b cf		 mov	 ecx, edi
  00fcd	e8 00 00 00 00	 call	 ?OnAttackStart@CMover@@QAEXPAV1@W4OBJMSG@@@Z ; CMover::OnAttackStart

; 735  : 			return 1;

  00fd2	e9 0a 08 00 00	 jmp	 $LN2@ProcessAct
$LN219@ProcessAct:

; 722  : 			else
; 723  : 			if( GetState() & OBJSTA_DMG_ALL )	// 그외 피격동작은 다 취소

  00fd7	85 c0		 test	 eax, eax
  00fd9	0f 84 3c ff ff
	ff		 je	 $LN221@ProcessAct
$LN818@ProcessAct:

; 724  : 				return -3;

  00fdf	b8 fd ff ff ff	 mov	 eax, -3			; fffffffdH

; 1179 : }

  00fe4	8b 4d f4	 mov	 ecx, DWORD PTR __$EHRec$[ebp]
  00fe7	64 89 0d 00 00
	00 00		 mov	 DWORD PTR fs:0, ecx
  00fee	59		 pop	 ecx
  00fef	5f		 pop	 edi
  00ff0	5e		 pop	 esi
  00ff1	5b		 pop	 ebx
  00ff2	8b e5		 mov	 esp, ebp
  00ff4	5d		 pop	 ebp
  00ff5	c2 1c 00	 ret	 28			; 0000001cH
$LN817@ProcessAct:

; 717  : 			if( pHitObj->m_pActMover->IsDie() )	return( -1 );

  00ff8	83 c8 ff	 or	 eax, -1

; 1179 : }

  00ffb	8b 4d f4	 mov	 ecx, DWORD PTR __$EHRec$[ebp]
  00ffe	64 89 0d 00 00
	00 00		 mov	 DWORD PTR fs:0, ecx
  01005	59		 pop	 ecx
  01006	5f		 pop	 edi
  01007	5e		 pop	 esi
  01008	5b		 pop	 ebx
  01009	8b e5		 mov	 esp, ebp
  0100b	5d		 pop	 ebp
  0100c	c2 1c 00	 ret	 28			; 0000001cH
$LN223@ProcessAct:
; File C:\IAGOS\server\v18\Source\Source\_AIInterface\Action.h

; 314  : 	BOOL			IsAction() { return (m_dwState & OBJSTA_ACTION_ALL) ? TRUE : FALSE; }

  0100f	f7 46 04 00 00
	00 f0		 test	 DWORD PTR [esi+4], -268435456 ; f0000000H
; File C:\IAGOS\server\v18\Source\Source\_aiinterface\ActionMoverMsg.cpp

; 742  : 			if( IsAction() )	return -2;	

  01016	0f 85 f9 01 00
	00		 jne	 $LN809@ProcessAct

; 743  : 			if( pMover->m_dwFlag & MVRF_NOATTACK )	return -2;		// 공격금지 상태면 걍 리턴.

  0101c	f7 87 44 02 00
	00 00 02 00 00	 test	 DWORD PTR [edi+580], 512 ; 00000200H
  01026	0f 85 e9 01 00
	00		 jne	 $LN809@ProcessAct

; 744  : 			CMover* pHitObj		= prj.GetMover( nParam2 );

  0102c	ff 75 14	 push	 DWORD PTR _nParam2$[ebp]
  0102f	b9 00 00 00 00	 mov	 ecx, OFFSET ?prj@@3VCProject@@A ; prj
  01034	e8 00 00 00 00	 call	 ?GetMover@CProject@@QAEPAVCMover@@K@Z ; CProject::GetMover
  01039	89 45 1c	 mov	 DWORD PTR _pHitObj$1$[ebp], eax
; File C:\IAGOS\server\v18\Source\Source\_Common\Obj.h

; 327  : 	return pObj && ( pObj->IsDelete() == FALSE ); 

  0103c	85 c0		 test	 eax, eax
  0103e	0f 84 d1 01 00
	00		 je	 $LN809@ProcessAct

; 180  : 	BOOL			IsDelete()	{ return (m_dwFlags & OBJ_FLAG_DELETE);  }

  01044	f6 40 04 01	 test	 BYTE PTR [eax+4], 1

; 327  : 	return pObj && ( pObj->IsDelete() == FALSE ); 

  01048	0f 85 c7 01 00
	00		 jne	 $LN809@ProcessAct
; File C:\IAGOS\server\v18\Source\Source\_aiinterface\ActionMoverMsg.cpp

; 747  : 			if( GetState() & OBJSTA_ATK_RANGE1 )

  0104e	f7 46 04 00 00
	06 00		 test	 DWORD PTR [esi+4], 393216 ; 00060000H
  01055	74 0c		 je	 SHORT $LN227@ProcessAct

; 748  : 				ResetState( OBJSTA_ATK_RANGE1 );

  01057	68 00 00 06 00	 push	 393216			; 00060000H
  0105c	8b ce		 mov	 ecx, esi
  0105e	e8 00 00 00 00	 call	 ?ResetState@CAction@@QAEXK@Z ; CAction::ResetState
$LN227@ProcessAct:

; 749  : 			if( GetState() & OBJSTA_ATK_ALL )	return -2;	// 이미 공격중이면 리턴. 서버에선 씹히지 않게 하자.

  01063	f7 46 04 00 00
	ff 00		 test	 DWORD PTR [esi+4], 16711680 ; 00ff0000H
  0106a	0f 85 a5 01 00
	00		 jne	 $LN809@ProcessAct

; 750  : 			pMover->m_dwMotion = -1;	// 나머지 경우는 간단하게 생각하기 위해 모두 클리어 시키고 스킬만 실행하자.
; 751  : 			ClearState();				// 상태 클리어하고 다시 맞춤,.

  01070	8b ce		 mov	 ecx, esi
  01072	c7 87 d8 02 00
	00 ff ff ff ff	 mov	 DWORD PTR [edi+728], -1
  0107c	e8 00 00 00 00	 call	 ?ClearState@CAction@@QAEXXZ ; CAction::ClearState
; File C:\IAGOS\server\v18\Source\Source\_AIInterface\Action.h

; 292  : 	void			SetState( DWORD dwType, DWORD dwState )	{ ResetState(dwType);	m_dwState |= dwState; }

  01081	68 00 00 ff 00	 push	 16711680		; 00ff0000H
  01086	8b ce		 mov	 ecx, esi
  01088	e8 00 00 00 00	 call	 ?ResetState@CAction@@QAEXK@Z ; CAction::ResetState
; File C:\IAGOS\server\v18\Source\Source\_aiinterface\ActionMoverMsg.cpp

; 758  : 			DWORD dwMotion = (DWORD)nParam1;

  0108d	8b 45 10	 mov	 eax, DWORD PTR _nParam1$[ebp]
; File C:\IAGOS\server\v18\Source\Source\_AIInterface\Action.h

; 292  : 	void			SetState( DWORD dwType, DWORD dwState )	{ ResetState(dwType);	m_dwState |= dwState; }

  01090	81 4e 04 00 00
	09 00		 or	 DWORD PTR [esi+4], 589824 ; 00090000H
; File C:\IAGOS\server\v18\Source\Source\_aiinterface\ActionMoverMsg.cpp

; 758  : 			DWORD dwMotion = (DWORD)nParam1;

  01097	89 45 18	 mov	 DWORD PTR _dwMotion$1$[ebp], eax

; 759  : 			int	nLoop = ANILOOP_1PLAY;
; 760  : 
; 761  : 			int	nSkill = pMover->GetActParam( 0 );

  0109a	8b 87 b0 11 00
	00		 mov	 eax, DWORD PTR [edi+4528]
  010a0	c7 45 14 01 00
	00 00		 mov	 DWORD PTR _nLoop$1$[ebp], 1

; 762  : 			if( nSkill == SI_BLD_DOUBLESW_SILENTSTRIKE || nSkill == SI_ACR_YOYO_COUNTER )

  010a7	3d 8a 00 00 00	 cmp	 eax, 138		; 0000008aH
  010ac	74 07		 je	 SHORT $LN230@ProcessAct
  010ae	3d cc 00 00 00	 cmp	 eax, 204		; 000000ccH
  010b3	75 07		 jne	 SHORT $LN229@ProcessAct
$LN230@ProcessAct:

; 763  : 				nLoop = ANILOOP_CONT;

  010b5	c7 45 14 02 00
	00 00		 mov	 DWORD PTR _nLoop$1$[ebp], 2
$LN229@ProcessAct:

; 764  : 
; 765  : #ifdef __CLIENT			
; 766  : 			if( pMover->HasBuffByIk3( IK3_TEXT_DISGUISE ) )
; 767  : 				dwMotion = MTI_ATK1;
; 768  : #endif
; 769  : #ifdef __CROSSBOW
; 770  : 			CItemElem* pItemElem = pMover->GetWeaponItem();

  010bc	6a 0a		 push	 10			; 0000000aH
  010be	8b cf		 mov	 ecx, edi
  010c0	e8 00 00 00 00	 call	 ?GetWeaponItem@CMover@@QAEPAVCItemElem@@H@Z ; CMover::GetWeaponItem

; 771  : 			if( pItemElem && ( pItemElem->GetProp()->dwItemKind3 == IK3_CROSSBOW ))

  010c5	85 c0		 test	 eax, eax
  010c7	74 18		 je	 SHORT $LN231@ProcessAct
  010c9	8b c8		 mov	 ecx, eax
  010cb	e8 00 00 00 00	 call	 ?GetPropA@CItemElem@@QAEPAUItemProp@@XZ ; CItemElem::GetPropA
  010d0	83 78 78 0e	 cmp	 DWORD PTR [eax+120], 14	; 0000000eH
  010d4	75 0b		 jne	 SHORT $LN231@ProcessAct

; 772  : 				dwMotion += 200;

  010d6	8b 45 10	 mov	 eax, DWORD PTR _nParam1$[ebp]
  010d9	05 c8 00 00 00	 add	 eax, 200		; 000000c8H
  010de	89 45 18	 mov	 DWORD PTR _dwMotion$1$[ebp], eax
$LN231@ProcessAct:

; 773  : #endif // __CROSSBOW
; 774  : 
; 775  : 			pMover->SetMotion( dwMotion, nLoop, MOP_SWDFORCE | MOP_NO_TRANS | MOP_FIXED );		// 해당 동작애니 시작.

  010e1	8b 07		 mov	 eax, DWORD PTR [edi]
  010e3	8b cf		 mov	 ecx, edi
  010e5	6a 07		 push	 7
  010e7	ff 75 14	 push	 DWORD PTR _nLoop$1$[ebp]
  010ea	ff 75 18	 push	 DWORD PTR _dwMotion$1$[ebp]
  010ed	ff 50 04	 call	 DWORD PTR [eax+4]

; 776  : 			pMover->OnAttackStart( pHitObj, dwMsg );			// 공격시작 핸들러.

  010f0	53		 push	 ebx
  010f1	ff 75 1c	 push	 DWORD PTR _pHitObj$1$[ebp]
$LN942@ProcessAct:

; 1179 : }

  010f4	8b cf		 mov	 ecx, edi
  010f6	e8 00 00 00 00	 call	 ?OnAttackStart@CMover@@QAEXPAV1@W4OBJMSG@@@Z ; CMover::OnAttackStart
  010fb	c7 86 9c 00 00
	00 00 00 00 00	 mov	 DWORD PTR [esi+156], 0
  01105	e9 d7 06 00 00	 jmp	 $LN2@ProcessAct
$LN232@ProcessAct:
; File C:\IAGOS\server\v18\Source\Source\_AIInterface\Action.h

; 314  : 	BOOL			IsAction() { return (m_dwState & OBJSTA_ACTION_ALL) ? TRUE : FALSE; }

  0110a	f7 46 04 00 00
	00 f0		 test	 DWORD PTR [esi+4], -268435456 ; f0000000H
; File C:\IAGOS\server\v18\Source\Source\_aiinterface\ActionMoverMsg.cpp

; 786  : 			if( IsAction() )	return -2;

  01111	0f 85 fe 00 00
	00		 jne	 $LN809@ProcessAct

; 787  : 			if( pMover->m_dwFlag & MVRF_NOATTACK )	return -2;		// 공격금지 상태면 걍 리턴.

  01117	f7 87 44 02 00
	00 00 02 00 00	 test	 DWORD PTR [edi+580], 512 ; 00000200H
  01121	0f 85 ee 00 00
	00		 jne	 $LN809@ProcessAct

; 788  : 			CMover* pHitObj		= prj.GetMover( nParam2 );

  01127	ff 75 14	 push	 DWORD PTR _nParam2$[ebp]
  0112a	b9 00 00 00 00	 mov	 ecx, OFFSET ?prj@@3VCProject@@A ; prj
  0112f	e8 00 00 00 00	 call	 ?GetMover@CProject@@QAEPAVCMover@@K@Z ; CProject::GetMover
  01134	89 45 20	 mov	 DWORD PTR _pHitObj$1$[ebp], eax
; File C:\IAGOS\server\v18\Source\Source\_Common\Obj.h

; 327  : 	return pObj && ( pObj->IsDelete() == FALSE ); 

  01137	85 c0		 test	 eax, eax
  01139	0f 84 d6 00 00
	00		 je	 $LN809@ProcessAct

; 180  : 	BOOL			IsDelete()	{ return (m_dwFlags & OBJ_FLAG_DELETE);  }

  0113f	f6 40 04 01	 test	 BYTE PTR [eax+4], 1

; 327  : 	return pObj && ( pObj->IsDelete() == FALSE ); 

  01143	0f 85 cc 00 00
	00		 jne	 $LN809@ProcessAct
; File C:\IAGOS\server\v18\Source\Source\_aiinterface\ActionMoverMsg.cpp

; 791  : 			if( GetState() & OBJSTA_ATK_ALL )	return -2;	// 이미 공격중이면 리턴

  01149	f7 46 04 00 00
	ff 00		 test	 DWORD PTR [esi+4], 16711680 ; 00ff0000H
  01150	0f 85 bf 00 00
	00		 jne	 $LN809@ProcessAct

; 792  : 		#endif  
; 793  : 
; 794  : 			pMover->m_dwMotion = -1;	
; 795  : 			ClearState();				// 상태 클리어하고 다시 맞춤.

  01156	8b ce		 mov	 ecx, esi
  01158	c7 87 d8 02 00
	00 ff ff ff ff	 mov	 DWORD PTR [edi+728], -1
  01162	e8 00 00 00 00	 call	 ?ClearState@CAction@@QAEXXZ ; CAction::ClearState

; 796  : 
; 797  : 			m_nCastingTime	= nParam3 * 4;	// ProcessAction은 서버/클라 호출 회수 동일하므로, SEC1 사용이 적당하지 않다.

  01167	8b 4d 18	 mov	 ecx, DWORD PTR _nParam3$[ebp]
  0116a	66 0f 6e c1	 movd	 xmm0, ecx
  0116e	8d 04 8d 00 00
	00 00		 lea	 eax, DWORD PTR [ecx*4]

; 798  : 
; 799  : #if __VER >= 10 // __LEGEND	//	9차 전승시스템	Neuz, World, Trans
; 800  : 			m_dwCastingEndTick = (DWORD)( GetTickCount() + nParam3 * 66.66F );

  01175	0f 5b c0	 cvtdq2ps xmm0, xmm0
  01178	89 86 a8 00 00
	00		 mov	 DWORD PTR [esi+168], eax
  0117e	f3 0f 59 05 00
	00 00 00	 mulss	 xmm0, DWORD PTR __real@428551ec
  01186	f3 0f 11 45 14	 movss	 DWORD PTR tv4566[ebp], xmm0
  0118b	ff 15 00 00 00
	00		 call	 DWORD PTR __imp__GetTickCount@0
  01191	66 0f 6e c0	 movd	 xmm0, eax
  01195	f3 0f e6 c0	 cvtdq2pd xmm0, xmm0
  01199	c1 e8 1f	 shr	 eax, 31			; 0000001fH
  0119c	f2 0f 58 04 c5
	00 00 00 00	 addsd	 xmm0, QWORD PTR __xmm@41f00000000000000000000000000000[eax*8]
  011a5	66 0f 5a c0	 cvtpd2ps xmm0, xmm0
  011a9	f3 0f 58 45 14	 addss	 xmm0, DWORD PTR tv4566[ebp]
  011ae	e8 00 00 00 00	 call	 __ftol3

; 801  : 			m_nCastingTick	= (int)( nParam3 * 66.66F );
; 802  : 			m_nCastingSKillID = nParam4;
; 803  : #endif	//__LEGEND	//	9차 전승시스템	Neuz, World, Trans
; 804  : 			if( m_nCastingTime > 0 )	// 캐스팅 타임이 있을때만...

  011b3	83 be a8 00 00
	00 00		 cmp	 DWORD PTR [esi+168], 0
  011ba	8b ce		 mov	 ecx, esi
  011bc	89 86 ac 00 00
	00		 mov	 DWORD PTR [esi+172], eax
  011c2	f3 0f 2c 45 14	 cvttss2si eax, DWORD PTR tv4566[ebp]
  011c7	68 00 00 ff 00	 push	 16711680		; 00ff0000H
  011cc	89 86 b4 00 00
	00		 mov	 DWORD PTR [esi+180], eax
  011d2	8b 45 1c	 mov	 eax, DWORD PTR _nParam4$[ebp]
  011d5	89 86 b0 00 00
	00		 mov	 DWORD PTR [esi+176], eax
  011db	7e 15		 jle	 SHORT $LN238@ProcessAct

; 805  : 			{
; 806  : 				m_nCount	= 0;	// 전체 캐스팅 타임은 동작1+동작2의 합이어야 하므로 여기서 카운터를 초기화 한다.

  011dd	c7 46 40 00 00
	00 00		 mov	 DWORD PTR [esi+64], 0
; File C:\IAGOS\server\v18\Source\Source\_AIInterface\Action.h

; 292  : 	void			SetState( DWORD dwType, DWORD dwState )	{ ResetState(dwType);	m_dwState |= dwState; }

  011e4	e8 00 00 00 00	 call	 ?ResetState@CAction@@QAEXK@Z ; CAction::ResetState
  011e9	81 4e 04 00 00
	0b 00		 or	 DWORD PTR [esi+4], 720896 ; 000b0000H
; File C:\IAGOS\server\v18\Source\Source\_aiinterface\ActionMoverMsg.cpp

; 808  : 			}

  011f0	eb 0c		 jmp	 SHORT $LN239@ProcessAct
$LN238@ProcessAct:
; File C:\IAGOS\server\v18\Source\Source\_AIInterface\Action.h

; 292  : 	void			SetState( DWORD dwType, DWORD dwState )	{ ResetState(dwType);	m_dwState |= dwState; }

  011f2	e8 00 00 00 00	 call	 ?ResetState@CAction@@QAEXK@Z ; CAction::ResetState
  011f7	81 4e 04 00 00
	0d 00		 or	 DWORD PTR [esi+4], 851968 ; 000d0000H
$LN239@ProcessAct:
; File C:\IAGOS\server\v18\Source\Source\_aiinterface\ActionMoverMsg.cpp

; 817  : 			pMover->SetMotion( nParam1, ANILOOP_1PLAY, MOP_SWDFORCE | MOP_NO_TRANS | MOP_FIXED );		// 해당 동작애니 시작.

  011fe	8b 07		 mov	 eax, DWORD PTR [edi]
  01200	8b cf		 mov	 ecx, edi
  01202	6a 07		 push	 7
  01204	6a 01		 push	 1
  01206	ff 75 10	 push	 DWORD PTR _nParam1$[ebp]
  01209	ff 50 04	 call	 DWORD PTR [eax+4]

; 818  : 			pMover->OnAttackStart( pHitObj, dwMsg );			// 공격시작 핸들러.

  0120c	53		 push	 ebx
  0120d	ff 75 20	 push	 DWORD PTR _pHitObj$1$[ebp]

; 819  : 			m_nMotionHitCount = 0;
; 820  : 			break;

  01210	e9 df fe ff ff	 jmp	 $LN942@ProcessAct
$LN809@ProcessAct:

; 791  : 			if( GetState() & OBJSTA_ATK_ALL )	return -2;	// 이미 공격중이면 리턴

  01215	b8 fe ff ff ff	 mov	 eax, -2			; fffffffeH

; 1179 : }

  0121a	8b 4d f4	 mov	 ecx, DWORD PTR __$EHRec$[ebp]
  0121d	64 89 0d 00 00
	00 00		 mov	 DWORD PTR fs:0, ecx
  01224	59		 pop	 ecx
  01225	5f		 pop	 edi
  01226	5e		 pop	 esi
  01227	5b		 pop	 ebx
  01228	8b e5		 mov	 esp, ebp
  0122a	5d		 pop	 ebp
  0122b	c2 1c 00	 ret	 28			; 0000001cH
$LN240@ProcessAct:

; 821  : 		}
; 822  : 			
; 823  : 
; 824  : 	//-------------------- 맞았다.
; 825  : 	case OBJMSG_DAMAGE:
; 826  : 	case OBJMSG_DAMAGE_FORCE:	// 강공격에 맞았다. 날아감.
; 827  : 		{
; 828  : 			CMover* pAttacker = PreProcessDamage( pMover, (OBJID)nParam2, nParam4, nParam5 );

  0122e	ff 75 20	 push	 DWORD PTR _nParam5$[ebp]
  01231	ff 75 1c	 push	 DWORD PTR _nParam4$[ebp]
  01234	ff 75 14	 push	 DWORD PTR _nParam2$[ebp]
  01237	57		 push	 edi
  01238	e8 00 00 00 00	 call	 ?PreProcessDamage@CActionMover@@QAEPAVCMover@@PAV2@KHH@Z ; CActionMover::PreProcessDamage
  0123d	89 45 14	 mov	 DWORD PTR _pAttacker$1$[ebp], eax

; 829  : 			if( pAttacker == NULL )

  01240	85 c0		 test	 eax, eax
  01242	0f 84 67 ef ff
	ff		 je	 $LN777@ProcessAct

; 830  : 				return 0;
; 831  : 
; 832  : 			if( dwMsg == OBJMSG_DAMAGE_FORCE )			// 강공격으로 들어왔을때

  01248	83 fb 2a	 cmp	 ebx, 42			; 0000002aH
  0124b	75 14		 jne	 SHORT $LN244@ProcessAct

; 833  : 				if( pMover->CanFlyByAttack() == FALSE )	// 날아가지 못하는 상태면.

  0124d	8b cf		 mov	 ecx, edi
  0124f	e8 00 00 00 00	 call	 ?CanFlyByAttack@CMover@@QAEHXZ ; CMover::CanFlyByAttack
  01254	85 c0		 test	 eax, eax
  01256	b9 29 00 00 00	 mov	 ecx, 41			; 00000029H
  0125b	8b 45 14	 mov	 eax, DWORD PTR _pAttacker$1$[ebp]
  0125e	0f 44 d9	 cmove	 ebx, ecx
$LN244@ProcessAct:

; 834  : 					dwMsg = OBJMSG_DAMAGE;				// 일반 데미지로 바꿈.
; 835  : 
; 836  : 			// 실제 가격한 데미지를 리턴함.
; 837  : 			int nDamage = _ProcessMsgDmg( dwMsg, pAttacker, (DWORD)nParam1, nParam3, nParam4, nParam5 );	

  01261	ff 75 20	 push	 DWORD PTR _nParam5$[ebp]
  01264	8b ce		 mov	 ecx, esi
  01266	ff 75 1c	 push	 DWORD PTR _nParam4$[ebp]
  01269	ff 75 18	 push	 DWORD PTR _nParam3$[ebp]
  0126c	ff 75 10	 push	 DWORD PTR _nParam1$[ebp]
  0126f	50		 push	 eax
  01270	53		 push	 ebx
  01271	e8 00 00 00 00	 call	 ?_ProcessMsgDmg@CActionMover@@QAEKKPAVCMover@@KHHH@Z ; CActionMover::_ProcessMsgDmg

; 838  : #if __VER >= 10	// __METEONYKER_0608
; 839  : #ifdef __WORLDSERVER
; 840  : #if __VER >= 12 // __NEW_ITEMCREATEMON_SERVER
; 841  : 			if( pAttacker->IsPlayer() && CCreateMonster::GetInstance()->IsAttackAble( static_cast<CUser*>(pAttacker), pMover ) )

  01276	8b 75 14	 mov	 esi, DWORD PTR _pAttacker$1$[ebp]
  01279	8b d8		 mov	 ebx, eax
  0127b	83 be 30 02 00
	00 00		 cmp	 DWORD PTR [esi+560], 0
  01282	74 26		 je	 SHORT $LN245@ProcessAct
  01284	6a 00		 push	 0
  01286	57		 push	 edi
  01287	56		 push	 esi
  01288	e8 00 00 00 00	 call	 ?GetInstance@CCreateMonster@@SAPAV1@XZ ; CCreateMonster::GetInstance
  0128d	8b c8		 mov	 ecx, eax
  0128f	e8 00 00 00 00	 call	 ?IsAttackAble@CCreateMonster@@QAEHPAVCUser@@PAVCMover@@H@Z ; CCreateMonster::IsAttackAble
  01294	85 c0		 test	 eax, eax
  01296	74 12		 je	 SHORT $LN245@ProcessAct

; 842  : #endif // __NEW_ITEMCREATEMON_SERVER
; 843  : #endif // __WORLDSERVER
; 844  : 				pMover->PostAIMsg( AIMSG_DAMAGE, pAttacker->GetId(), nDamage );

  01298	6a 00		 push	 0
  0129a	53		 push	 ebx
  0129b	ff b6 bc 01 00
	00		 push	 DWORD PTR [esi+444]
  012a1	8b cf		 mov	 ecx, edi
  012a3	6a 08		 push	 8
  012a5	e8 00 00 00 00	 call	 ?PostAIMsg@CMover@@QAEXKKKK@Z ; CMover::PostAIMsg
$LN245@ProcessAct:

; 845  : #endif	// __METEONYKER_0608
; 846  : 			return nDamage;

  012aa	8b c3		 mov	 eax, ebx

; 1179 : }

  012ac	8b 4d f4	 mov	 ecx, DWORD PTR __$EHRec$[ebp]
  012af	64 89 0d 00 00
	00 00		 mov	 DWORD PTR fs:0, ecx
  012b6	59		 pop	 ecx
  012b7	5f		 pop	 edi
  012b8	5e		 pop	 esi
  012b9	5b		 pop	 ebx
  012ba	8b e5		 mov	 esp, ebp
  012bc	5d		 pop	 ebp
  012bd	c2 1c 00	 ret	 28			; 0000001cH
$LN246@ProcessAct:

; 847  : 		}
; 848  : 		break;
; 849  : 
; 850  : 	// HP가 0이 된 순간 호출
; 851  : 	case OBJMSG_DIE:
; 852  : 	{
; 853  : 		if( IsSit() )						// 앉아있는상태였으면 해제

  012c0	f6 46 08 04	 test	 BYTE PTR [esi+8], 4
  012c4	74 0a		 je	 SHORT $LN247@ProcessAct

; 854  : 			ResetState( OBJSTA_MOVE_ALL );

  012c6	68 ff 00 00 00	 push	 255			; 000000ffH
  012cb	e8 00 00 00 00	 call	 ?ResetState@CAction@@QAEXK@Z ; CAction::ResetState
$LN247@ProcessAct:

; 855  : 		
; 856  : 		ClearState();						// 죽을땐 다른 동작 하고 있던거 다 클리어 시켜버리자.

  012d0	8b ce		 mov	 ecx, esi
  012d2	e8 00 00 00 00	 call	 ?ClearState@CAction@@QAEXXZ ; CAction::ClearState

; 857  : 		m_vDelta.x = m_vDelta.z = 0;		// 죽었으면 델타값 클리어.
; 858  : 
; 859  : 		pMover->RemoveInvisible();

  012d7	8b cf		 mov	 ecx, edi
  012d9	c7 46 58 00 00
	00 00		 mov	 DWORD PTR [esi+88], 0
  012e0	c7 46 50 00 00
	00 00		 mov	 DWORD PTR [esi+80], 0
  012e7	e8 00 00 00 00	 call	 ?RemoveInvisible@CMover@@QAEXXZ ; CMover::RemoveInvisible

; 860  : #ifdef __WORLDSERVER
; 861  : 		pMover->PostAIMsg( AIMSG_DIE, nParam2 );

  012ec	8b 5d 14	 mov	 ebx, DWORD PTR _nParam2$[ebp]
  012ef	8b cf		 mov	 ecx, edi
  012f1	6a 00		 push	 0
  012f3	6a 00		 push	 0
  012f5	53		 push	 ebx
  012f6	6a 09		 push	 9
  012f8	e8 00 00 00 00	 call	 ?PostAIMsg@CMover@@QAEXKKKK@Z ; CMover::PostAIMsg

; 862  : #endif
; 863  : 		CMover *pAttacker = (CMover *)nParam2;	
; 864  : 		if( pAttacker )

  012fd	85 db		 test	 ebx, ebx
  012ff	0f 84 69 01 00
	00		 je	 $LN258@ProcessAct

; 865  : 		{
; 866  : 			if( pMover->IsPlayer() && pAttacker->IsPlayer() )	// 죽은놈과 죽인놈이 플레이어고

  01305	83 bf 30 02 00
	00 00		 cmp	 DWORD PTR [edi+560], 0
  0130c	0f 84 31 01 00
	00		 je	 $LN10@ProcessAct
  01312	83 bb 30 02 00
	00 00		 cmp	 DWORD PTR [ebx+560], 0
  01319	0f 84 2d 01 00
	00		 je	 $LN940@ProcessAct

; 867  : 			{
; 868  : #ifdef __WORLDSERVER
; 869  : 				if( pMover->m_nDuel == 1 && pMover->m_idDuelOther == pAttacker->GetId() )	// 둘이 듀얼중이었으면

  0131f	8b 87 3c 07 00
	00		 mov	 eax, DWORD PTR [edi+1852]
  01325	83 f8 01	 cmp	 eax, 1
  01328	75 35		 jne	 SHORT $LN250@ProcessAct
  0132a	8b 87 40 07 00
	00		 mov	 eax, DWORD PTR [edi+1856]
  01330	3b 83 bc 01 00
	00		 cmp	 eax, DWORD PTR [ebx+444]
  01336	0f 85 07 01 00
	00		 jne	 $LN10@ProcessAct

; 870  : 				{
; 871  : 					pMover->ClearDuel();

  0133c	8b cf		 mov	 ecx, edi
  0133e	e8 00 00 00 00	 call	 ?ClearDuel@CMover@@QAEXXZ ; CMover::ClearDuel

; 872  : 					pAttacker->ClearDuel();

  01343	8b cb		 mov	 ecx, ebx
  01345	e8 00 00 00 00	 call	 ?ClearDuel@CMover@@QAEXXZ ; CMover::ClearDuel

; 873  : 					((CUser*)pMover)->AddSetDuel( pMover );

  0134a	57		 push	 edi
  0134b	8b cf		 mov	 ecx, edi
  0134d	e8 00 00 00 00	 call	 ?AddSetDuel@CUser@@QAEXPAVCMover@@@Z ; CUser::AddSetDuel

; 874  : 					((CUser*)pAttacker)->AddSetDuel( pAttacker );

  01352	53		 push	 ebx
  01353	8b cb		 mov	 ecx, ebx
  01355	e8 00 00 00 00	 call	 ?AddSetDuel@CUser@@QAEXPAVCMover@@@Z ; CUser::AddSetDuel

; 875  : 				}

  0135a	e9 e4 00 00 00	 jmp	 $LN10@ProcessAct
$LN250@ProcessAct:

; 876  : 				else if( pMover->m_nDuel == 2 && pMover->m_idDuelParty == pAttacker->m_idparty )

  0135f	83 f8 02	 cmp	 eax, 2
  01362	0f 85 db 00 00
	00		 jne	 $LN10@ProcessAct
  01368	8b 87 44 07 00
	00		 mov	 eax, DWORD PTR [edi+1860]
  0136e	3b 83 10 07 00
	00		 cmp	 eax, DWORD PTR [ebx+1808]
  01374	0f 85 c9 00 00
	00		 jne	 $LN10@ProcessAct

; 877  : 				{
; 878  : 					pMover->m_nDuelState	= 300;		
; 879  : 					CMover *pMember;
; 880  : 					CParty* pParty	= g_PartyMng.GetParty( pMover->m_idparty );

  0137a	ff b7 10 07 00
	00		 push	 DWORD PTR [edi+1808]
  01380	b9 00 00 00 00	 mov	 ecx, OFFSET ?g_PartyMng@@3VCPartyMng@@A ; g_PartyMng
  01385	c7 87 38 07 00
	00 2c 01 00 00	 mov	 DWORD PTR [edi+1848], 300 ; 0000012cH
  0138f	e8 00 00 00 00	 call	 ?GetParty@CPartyMng@@QAEPAVCParty@@K@Z ; CPartyMng::GetParty
  01394	89 45 18	 mov	 DWORD PTR _pParty$1$[ebp], eax

; 881  : 
; 882  : 					if( pParty )

  01397	8d 8f 44 07 00
	00		 lea	 ecx, DWORD PTR [edi+1860]
  0139d	85 c0		 test	 eax, eax
  0139f	74 48		 je	 SHORT $LN7@ProcessAct

; 883  : 					{
; 884  : 						for( int i = 0; i < pParty->m_nSizeofMember; i ++ )

  013a1	83 b8 cc 01 00
	00 00		 cmp	 DWORD PTR [eax+460], 0
  013a8	7e 3f		 jle	 SHORT $LN7@ProcessAct
  013aa	8d 58 28	 lea	 ebx, DWORD PTR [eax+40]
  013ad	33 f6		 xor	 esi, esi
  013af	90		 npad	 1
$LL8@ProcessAct:

; 885  : 						{
; 886  : 							pMember = (CMover *)g_UserMng.GetUserByPlayerID( pParty->m_aMember[i].m_uPlayerId );

  013b0	ff 33		 push	 DWORD PTR [ebx]
  013b2	b9 00 00 00 00	 mov	 ecx, OFFSET ?g_UserMng@@3VCUserMng@@A ; g_UserMng
  013b7	e8 00 00 00 00	 call	 ?GetUserByPlayerID@CUserMng@@QAEPAVCUser@@K@Z ; CUserMng::GetUserByPlayerID
; File C:\IAGOS\server\v18\Source\Source\_Common\Obj.h

; 327  : 	return pObj && ( pObj->IsDelete() == FALSE ); 

  013bc	85 c0		 test	 eax, eax
  013be	74 0e		 je	 SHORT $LN6@ProcessAct

; 180  : 	BOOL			IsDelete()	{ return (m_dwFlags & OBJ_FLAG_DELETE);  }

  013c0	f6 40 04 01	 test	 BYTE PTR [eax+4], 1

; 327  : 	return pObj && ( pObj->IsDelete() == FALSE ); 

  013c4	75 08		 jne	 SHORT $LN6@ProcessAct
; File C:\IAGOS\server\v18\Source\Source\_aiinterface\ActionMoverMsg.cpp

; 888  : 								((CUser*)pMember)->AddSetDuel( pMover );

  013c6	57		 push	 edi
  013c7	8b c8		 mov	 ecx, eax
  013c9	e8 00 00 00 00	 call	 ?AddSetDuel@CUser@@QAEXPAVCMover@@@Z ; CUser::AddSetDuel
$LN6@ProcessAct:

; 883  : 					{
; 884  : 						for( int i = 0; i < pParty->m_nSizeofMember; i ++ )

  013ce	8b 45 18	 mov	 eax, DWORD PTR _pParty$1$[ebp]
  013d1	46		 inc	 esi
  013d2	83 c3 1c	 add	 ebx, 28			; 0000001cH
  013d5	3b b0 cc 01 00
	00		 cmp	 esi, DWORD PTR [eax+460]
  013db	7c d3		 jl	 SHORT $LL8@ProcessAct
  013dd	8b 75 f0	 mov	 esi, DWORD PTR _this$1$[ebp]
  013e0	8d 8f 44 07 00
	00		 lea	 ecx, DWORD PTR [edi+1860]
  013e6	8b 5d 14	 mov	 ebx, DWORD PTR _nParam2$[ebp]
$LN7@ProcessAct:

; 889  : 						}
; 890  : 					}
; 891  : 
; 892  : 					CParty* pParty2		= g_PartyMng.GetParty( pMover->m_idDuelParty );

  013e9	ff 31		 push	 DWORD PTR [ecx]
  013eb	b9 00 00 00 00	 mov	 ecx, OFFSET ?g_PartyMng@@3VCPartyMng@@A ; g_PartyMng
  013f0	e8 00 00 00 00	 call	 ?GetParty@CPartyMng@@QAEPAVCParty@@K@Z ; CPartyMng::GetParty
  013f5	89 45 18	 mov	 DWORD PTR _pParty2$1$[ebp], eax

; 893  : 					if( pParty2 )

  013f8	85 c0		 test	 eax, eax
  013fa	74 47		 je	 SHORT $LN10@ProcessAct

; 894  : 					{
; 895  : 						for( int i = 0; i < pParty2->m_nSizeofMember; i ++ )

  013fc	83 b8 cc 01 00
	00 00		 cmp	 DWORD PTR [eax+460], 0
  01403	7e 3e		 jle	 SHORT $LN10@ProcessAct
  01405	8d 70 28	 lea	 esi, DWORD PTR [eax+40]
  01408	33 db		 xor	 ebx, ebx
  0140a	66 0f 1f 44 00
	00		 npad	 6
$LL11@ProcessAct:

; 896  : 						{
; 897  : 							pMember = (CMover *)g_UserMng.GetUserByPlayerID( pParty2->m_aMember[i].m_uPlayerId );

  01410	ff 36		 push	 DWORD PTR [esi]
  01412	b9 00 00 00 00	 mov	 ecx, OFFSET ?g_UserMng@@3VCUserMng@@A ; g_UserMng
  01417	e8 00 00 00 00	 call	 ?GetUserByPlayerID@CUserMng@@QAEPAVCUser@@K@Z ; CUserMng::GetUserByPlayerID
; File C:\IAGOS\server\v18\Source\Source\_Common\Obj.h

; 327  : 	return pObj && ( pObj->IsDelete() == FALSE ); 

  0141c	85 c0		 test	 eax, eax
  0141e	74 0e		 je	 SHORT $LN9@ProcessAct

; 180  : 	BOOL			IsDelete()	{ return (m_dwFlags & OBJ_FLAG_DELETE);  }

  01420	f6 40 04 01	 test	 BYTE PTR [eax+4], 1

; 327  : 	return pObj && ( pObj->IsDelete() == FALSE ); 

  01424	75 08		 jne	 SHORT $LN9@ProcessAct
; File C:\IAGOS\server\v18\Source\Source\_aiinterface\ActionMoverMsg.cpp

; 899  : 								((CUser*)pMember)->AddSetDuel( pMover );

  01426	57		 push	 edi
  01427	8b c8		 mov	 ecx, eax
  01429	e8 00 00 00 00	 call	 ?AddSetDuel@CUser@@QAEXPAVCMover@@@Z ; CUser::AddSetDuel
$LN9@ProcessAct:

; 894  : 					{
; 895  : 						for( int i = 0; i < pParty2->m_nSizeofMember; i ++ )

  0142e	8b 45 18	 mov	 eax, DWORD PTR _pParty2$1$[ebp]
  01431	43		 inc	 ebx
  01432	83 c6 1c	 add	 esi, 28			; 0000001cH
  01435	3b 98 cc 01 00
	00		 cmp	 ebx, DWORD PTR [eax+460]
  0143b	7c d3		 jl	 SHORT $LL11@ProcessAct
  0143d	8b 75 f0	 mov	 esi, DWORD PTR _this$1$[ebp]
  01440	8b 5d 14	 mov	 ebx, DWORD PTR _nParam2$[ebp]
$LN10@ProcessAct:
; File C:\IAGOS\server\v18\Source\Source\_Common\Mover.h

; 1015 : 	BOOL			IsNPC()				{ return !m_bPlayer; }

  01443	83 bb 30 02 00
	00 00		 cmp	 DWORD PTR [ebx+560], 0
; File C:\IAGOS\server\v18\Source\Source\_aiinterface\ActionMoverMsg.cpp

; 906  : 			if( pAttacker->IsNPC() )	// 공격자가 몹.

  0144a	75 22		 jne	 SHORT $LN258@ProcessAct
$LN940@ProcessAct:

; 907  : 			{	// 날때린몹의 어태커가 나일경우는 죽기전에 클리어시켜준다.
; 908  : 				if( pAttacker->m_idAttacker == pMover->GetId() )	// 공격한몹을 친사람이 나일경우는 스틸체크 해제.

  0144c	8b 83 94 06 00
	00		 mov	 eax, DWORD PTR [ebx+1684]
  01452	3b 87 bc 01 00
	00		 cmp	 eax, DWORD PTR [edi+444]
  01458	75 14		 jne	 SHORT $LN258@ProcessAct

; 909  : 				{
; 910  : 					pAttacker->m_idAttacker = NULL_ID;

  0145a	c7 83 94 06 00
	00 ff ff ff ff	 mov	 DWORD PTR [ebx+1684], -1

; 911  : 					pAttacker->m_idTargeter = NULL_ID;

  01464	c7 83 98 06 00
	00 ff ff ff ff	 mov	 DWORD PTR [ebx+1688], -1
$LN258@ProcessAct:

; 912  : 				}
; 913  : 			}
; 914  : 		}
; 915  : 		
; 916  : 		switch( nParam1 )

  0146e	8b 45 10	 mov	 eax, DWORD PTR _nParam1$[ebp]
  01471	83 e8 29	 sub	 eax, 41			; 00000029H
  01474	74 4f		 je	 SHORT $LN261@ProcessAct
  01476	83 e8 01	 sub	 eax, 1
  01479	75 4a		 jne	 SHORT $LN261@ProcessAct
; File C:\IAGOS\server\v18\Source\Source\_AIInterface\Action.h

; 292  : 	void			SetState( DWORD dwType, DWORD dwState )	{ ResetState(dwType);	m_dwState |= dwState; }

  0147b	68 00 00 00 0f	 push	 251658240		; 0f000000H
  01480	8b ce		 mov	 ecx, esi
  01482	e8 00 00 00 00	 call	 ?ResetState@CAction@@QAEXK@Z ; CAction::ResetState
  01487	81 4e 04 00 00
	00 02		 or	 DWORD PTR [esi+4], 33554432 ; 02000000H
; File C:\IAGOS\server\v18\Source\Source\_aiinterface\ActionMoverMsg.cpp

; 966  : 			pMover->SetMotion( MTI_DMGFLY, ANILOOP_CONT );

  0148e	8b cf		 mov	 ecx, edi
  01490	8b 07		 mov	 eax, DWORD PTR [edi]
  01492	6a 00		 push	 0
  01494	6a 02		 push	 2
  01496	6a 0b		 push	 11			; 0000000bH
  01498	ff 50 04	 call	 DWORD PTR [eax+4]

; 967  : 			if( pAttacker )

  0149b	85 db		 test	 ebx, ebx
  0149d	74 46		 je	 SHORT $LN12@ProcessAct

; 968  : 				DoDamageFly( pAttacker->GetAngle(), 145.0f, 0.25f );	// 어태커가 보는쪽으로 날려보냄.

  0149f	f3 0f 10 43 18	 movss	 xmm0, DWORD PTR [ebx+24]
  014a4	83 ec 0c	 sub	 esp, 12			; 0000000cH
  014a7	8b ce		 mov	 ecx, esi
  014a9	c7 44 24 08 00
	00 80 3e	 mov	 DWORD PTR [esp+8], 1048576000 ; 3e800000H
  014b1	c7 44 24 04 00
	00 11 43	 mov	 DWORD PTR [esp+4], 1125187584 ; 43110000H
  014b9	f3 0f 11 04 24	 movss	 DWORD PTR [esp], xmm0
  014be	e8 00 00 00 00	 call	 ?DoDamageFly@CActionMover@@QAEXMMM@Z ; CActionMover::DoDamageFly

; 969  : 			}
; 970  : 			break;

  014c3	eb 20		 jmp	 SHORT $LN12@ProcessAct
$LN261@ProcessAct:
; File C:\IAGOS\server\v18\Source\Source\_AIInterface\Action.h

; 292  : 	void			SetState( DWORD dwType, DWORD dwState )	{ ResetState(dwType);	m_dwState |= dwState; }

  014c5	68 00 00 00 0f	 push	 251658240		; 0f000000H
  014ca	8b ce		 mov	 ecx, esi
  014cc	e8 00 00 00 00	 call	 ?ResetState@CAction@@QAEXK@Z ; CAction::ResetState
  014d1	81 4e 04 00 00
	00 08		 or	 DWORD PTR [esi+4], 134217728 ; 08000000H
; File C:\IAGOS\server\v18\Source\Source\_aiinterface\ActionMoverMsg.cpp

; 975  : 			pMover->SetMotion( MTI_DIE1, ANILOOP_CONT );

  014d8	8b cf		 mov	 ecx, edi
  014da	8b 07		 mov	 eax, DWORD PTR [edi]
  014dc	6a 00		 push	 0
  014de	6a 02		 push	 2
  014e0	6a 08		 push	 8
  014e2	ff 50 04	 call	 DWORD PTR [eax+4]
$LN12@ProcessAct:

; 976  : 			break;
; 977  : 
; 978  : 		}
; 979  : 
; 980  : 		if( !pMover->IsPlayer() )	// 몬스터일 경우.

  014e5	83 bf 30 02 00
	00 00		 cmp	 DWORD PTR [edi+560], 0
  014ec	0f 85 ef 02 00
	00		 jne	 $LN2@ProcessAct

; 981  : 		{
; 982  : 		#ifdef __WORLDSERVER			
; 983  : 			m_nDeadCnt	= 60*3;	// 디폴트 - 3초 후에 없어짐.
; 984  : 			MoverProp *pProp = pMover->GetProp();

  014f2	8b cf		 mov	 ecx, edi
  014f4	c7 86 a0 00 00
	00 b4 00 00 00	 mov	 DWORD PTR [esi+160], 180 ; 000000b4H
  014fe	e8 00 00 00 00	 call	 ?GetPropA@CMover@@QAEPAUMoverProp@@XZ ; CMover::GetPropA

; 985  : 			if( pProp )
; 986  : 			{
; 987  : 				/*
; 988  : 				if( pProp->dwSourceMaterial != NULL_ID || pProp->dwClass == RANK_MATERIAL )	// 자원 몹이면..
; 989  : 				{
; 990  : 					if( pProp->dwHoldingTime == NULL_ID )
; 991  : 						Error( "%s 의 MoverProp::dwHoldingTime 값이 -1", pMover->GetName() );
; 992  : 					m_nDeadCnt = (int)(60.0f * (pProp->dwHoldingTime / 1000.0f));
; 993  : 					if( pProp->dwHoldingTime < 10000 )		// 10초 이하일때
; 994  : 						Error( "dwHoldingTime : %d %s", pProp->dwHoldingTime, pMover->GetName() );
; 995  : 					pMover->m_nCollectOwnCnt = PROCESS_COUNT * 40;
; 996  : 					CMover *pAttacker = (CMover *)nParam2;	
; 997  : 					if( pAttacker )
; 998  : 						pMover->m_idCollecter = pAttacker->GetId();		// 공격자가 소유자가 된다.
; 999  : 					
; 1000 : 				}
; 1001 : 				{
; 1002 : 					if( pProp->dwSourceMaterial == NULL_ID && pProp->dwClass == RANK_MATERIAL )	// 자원몹인데 자원값이 없는경우
; 1003 : 						Error( "OBJMSG_DIE : %s %d", pMover->GetName(), pProp->dwSourceMaterial );
; 1004 : 					if( pProp->dwSourceMaterial != NULL_ID && pProp->dwClass != RANK_MATERIAL )	// 자원몹이 아닌데 자원값이 있는경우.
; 1005 : 						Error( "OBJMSG_DIE 2 : %s %d", pMover->GetName(), pProp->dwSourceMaterial );
; 1006 : 				}
; 1007 : 				*/
; 1008 : 			}
; 1009 : 		#endif // WorldServer
; 1010 : 		}
; 1011 : 		break;

  01503	e9 d9 02 00 00	 jmp	 $LN2@ProcessAct
$LN265@ProcessAct:
; File C:\IAGOS\server\v18\Source\Source\_AIInterface\Action.h

; 292  : 	void			SetState( DWORD dwType, DWORD dwState )	{ ResetState(dwType);	m_dwState |= dwState; }

  01508	68 00 00 00 f0	 push	 -268435456		; f0000000H
  0150d	e8 00 00 00 00	 call	 ?ResetState@CAction@@QAEXK@Z ; CAction::ResetState
  01512	81 4e 04 00 00
	00 20		 or	 DWORD PTR [esi+4], 536870912 ; 20000000H
; File C:\IAGOS\server\v18\Source\Source\_aiinterface\ActionMoverMsg.cpp

; 1016 : 		pMover->SetMotion( MTI_APPEAR2, ANILOOP_1PLAY, MOP_FIXED | MOP_NO_TRANS );

  01519	6a 06		 push	 6
  0151b	6a 01		 push	 1
  0151d	68 90 00 00 00	 push	 144			; 00000090H

; 1017 : 		break;

  01522	e9 b3 02 00 00	 jmp	 $LN937@ProcessAct
$LN266@ProcessAct:

; 1018 : 	//---- 모드전환 ------------------------
; 1019 : 	case OBJMSG_MODE_COMBAT:
; 1020 : 		if( GetStateFlag() & OBJSTAF_COMBAT )	return 0;		// 이미 전투모드면 리턴

  01527	8b 46 08	 mov	 eax, DWORD PTR [esi+8]
  0152a	a8 01		 test	 al, 1
  0152c	0f 85 7d ec ff
	ff		 jne	 $LN777@ProcessAct
; File C:\IAGOS\server\v18\Source\Source\_AIInterface\Action.h

; 321  : 	BOOL			IsActJump()		{ return m_dwState & OBJSTA_JUMP_ALL; }

  01532	f7 46 04 00 f0
	ff ff		 test	 DWORD PTR [esi+4], -4096 ; fffff000H
; File C:\IAGOS\server\v18\Source\Source\_aiinterface\ActionMoverMsg.cpp

; 1021 : 		if( IsActJump() )	return 0;

  01539	0f 85 70 ec ff
	ff		 jne	 $LN777@ProcessAct

; 1022 : 		if( IsActAttack() )	return 0;
; 1023 : 		if( IsActDamage() )	return 0;
; 1024 : 		if( IsSit() )		return 0;

  0153f	a8 04		 test	 al, 4
  01541	0f 85 68 ec ff
	ff		 jne	 $LN777@ProcessAct

; 1025 : 		if( IsAction() )	return 0;
; 1026 : 		AddStateFlag( OBJSTAF_COMBAT );	// 전투모드로 서라가 아니고 전투모드로 바꿔라기땜에 서다 명령은 발생시키지 않는다.

  01547	6a 01		 push	 1
  01549	e8 00 00 00 00	 call	 ?AddStateFlag@CAction@@QAEXK@Z ; CAction::AddStateFlag
$LN941@ProcessAct:

; 1179 : }

  0154e	6a 00		 push	 0
  01550	6a 04		 push	 4
  01552	c7 87 d8 02 00
	00 ff ff ff ff	 mov	 DWORD PTR [edi+728], -1
  0155c	6a 00		 push	 0
  0155e	e9 77 02 00 00	 jmp	 $LN937@ProcessAct
$LN273@ProcessAct:

; 1027 : 		pMover->m_dwMotion = -1;	// 같은 모션을 하라고 한거라 모션이 안바뀌므로 이렇게...
; 1028 : 		pMover->SetMotion( MTI_STAND );
; 1029 : 		break;
; 1030 : 	case OBJMSG_MODE_PEACE:
; 1031 : 		if( (GetStateFlag() & OBJSTAF_COMBAT) == 0 )	return 0;

  01563	8b 46 08	 mov	 eax, DWORD PTR [esi+8]
  01566	a8 01		 test	 al, 1
  01568	0f 84 41 ec ff
	ff		 je	 $LN777@ProcessAct
; File C:\IAGOS\server\v18\Source\Source\_AIInterface\Action.h

; 321  : 	BOOL			IsActJump()		{ return m_dwState & OBJSTA_JUMP_ALL; }

  0156e	f7 46 04 00 f0
	ff ff		 test	 DWORD PTR [esi+4], -4096 ; fffff000H
; File C:\IAGOS\server\v18\Source\Source\_aiinterface\ActionMoverMsg.cpp

; 1032 : 		if( IsActJump() )	return 0;

  01575	0f 85 34 ec ff
	ff		 jne	 $LN777@ProcessAct

; 1033 : 		if( IsActAttack() )	return 0;
; 1034 : 		if( IsActDamage() )	return 0;
; 1035 : 		if( IsSit() )		return 0;

  0157b	a8 04		 test	 al, 4
  0157d	0f 85 2c ec ff
	ff		 jne	 $LN777@ProcessAct

; 1036 : 		if( IsAction() )	return 0;
; 1037 : 		RemoveStateFlag( OBJSTAF_COMBAT );

  01583	6a 01		 push	 1
  01585	e8 00 00 00 00	 call	 ?RemoveStateFlag@CAction@@QAEXK@Z ; CAction::RemoveStateFlag

; 1038 : 		pMover->m_dwMotion = -1;
; 1039 : 		pMover->SetMotion( MTI_STAND );
; 1040 : 		break;

  0158a	eb c2		 jmp	 SHORT $LN941@ProcessAct
$LN280@ProcessAct:

; 1041 : 	case OBJMSG_MODE_WALK:
; 1042 : 		if( IsSit() )		return 0;

  0158c	f6 46 08 06	 test	 BYTE PTR [esi+8], 6
  01590	0f 85 19 ec ff
	ff		 jne	 $LN777@ProcessAct
; File C:\IAGOS\server\v18\Source\Source\_AIInterface\Action.h

; 314  : 	BOOL			IsAction() { return (m_dwState & OBJSTA_ACTION_ALL) ? TRUE : FALSE; }

  01596	f7 46 04 00 00
	00 f0		 test	 DWORD PTR [esi+4], -268435456 ; f0000000H
; File C:\IAGOS\server\v18\Source\Source\_aiinterface\ActionMoverMsg.cpp

; 1043 : 		if( IsAction() )	return 0;

  0159d	0f 85 0c ec ff
	ff		 jne	 $LN777@ProcessAct

; 1044 : 		if( GetStateFlag() & OBJSTAF_WALK )	return 0;		// 이미 걷기모드면 리턴
; 1045 : 		AddStateFlag( OBJSTAF_WALK );

  015a3	6a 02		 push	 2
  015a5	e8 00 00 00 00	 call	 ?AddStateFlag@CAction@@QAEXK@Z ; CAction::AddStateFlag

; 1046 : 		break;

  015aa	e9 32 02 00 00	 jmp	 $LN2@ProcessAct
$LN284@ProcessAct:
; File C:\IAGOS\server\v18\Source\Source\_AIInterface\Action.h

; 311  : 	BOOL			IsSit() { return (m_dwStateFlag & OBJSTAF_SIT) ? TRUE : FALSE; }

  015af	8b 46 08	 mov	 eax, DWORD PTR [esi+8]
; File C:\IAGOS\server\v18\Source\Source\_aiinterface\ActionMoverMsg.cpp

; 1048 : 		if( IsSit() )		return 0;

  015b2	a8 04		 test	 al, 4
  015b4	0f 85 f5 eb ff
	ff		 jne	 $LN777@ProcessAct
; File C:\IAGOS\server\v18\Source\Source\_AIInterface\Action.h

; 314  : 	BOOL			IsAction() { return (m_dwState & OBJSTA_ACTION_ALL) ? TRUE : FALSE; }

  015ba	f7 46 04 00 00
	00 f0		 test	 DWORD PTR [esi+4], -268435456 ; f0000000H
; File C:\IAGOS\server\v18\Source\Source\_aiinterface\ActionMoverMsg.cpp

; 1049 : 		if( IsAction() )	return 0;

  015c1	0f 85 e8 eb ff
	ff		 jne	 $LN777@ProcessAct

; 1050 : 		if( (GetStateFlag() & OBJSTAF_WALK) == 0 )	return 0;		// 

  015c7	a8 02		 test	 al, 2
  015c9	0f 84 e0 eb ff
	ff		 je	 $LN777@ProcessAct

; 1051 : 		RemoveStateFlag( OBJSTAF_WALK );

  015cf	6a 02		 push	 2
  015d1	e8 00 00 00 00	 call	 ?RemoveStateFlag@CAction@@QAEXK@Z ; CAction::RemoveStateFlag

; 1052 : 		break;

  015d6	e9 06 02 00 00	 jmp	 $LN2@ProcessAct
$LN288@ProcessAct:

; 1053 : 	case OBJMSG_MODE_FLY:
; 1054 : 	{
; 1055 : 		if( nParam3 == 0 )

  015db	83 7d 18 00	 cmp	 DWORD PTR _nParam3$[ebp], 0
  015df	0f 85 8a 00 00
	00		 jne	 $LN296@ProcessAct

; 1056 : 		{
; 1057 : 			if( IsSit() )		return 0;

  015e5	f6 46 08 04	 test	 BYTE PTR [esi+8], 4
  015e9	0f 85 c0 eb ff
	ff		 jne	 $LN777@ProcessAct
; File C:\IAGOS\server\v18\Source\Source\_AIInterface\Action.h

; 314  : 	BOOL			IsAction() { return (m_dwState & OBJSTA_ACTION_ALL) ? TRUE : FALSE; }

  015ef	f7 46 04 00 00
	ff f0		 test	 DWORD PTR [esi+4], -251723776 ; f0ff0000H
; File C:\IAGOS\server\v18\Source\Source\_aiinterface\ActionMoverMsg.cpp

; 1058 : 			if( IsAction() )	return 0;

  015f6	0f 85 b3 eb ff
	ff		 jne	 $LN777@ProcessAct

; 1059 : 			if( IsActAttack() )	return 0;
; 1060 : 			if( pMover->m_dwFlag & MVRF_NOMOVE )	return 0;		// 이동금지 상태면 걍 리턴.

  015fc	f7 87 44 02 00
	00 00 01 00 00	 test	 DWORD PTR [edi+580], 256 ; 00000100H
  01606	0f 85 a3 eb ff
	ff		 jne	 $LN777@ProcessAct

; 1061 : #if __VER >= 10 // __LEGEND	//	10차 전승시스템	Neuz, World, Trans
; 1062 : 			if( pMover->GetAdjParam( DST_CHRSTATE ) & CHS_LOOT)			return 0;

  0160c	6a 40		 push	 64			; 00000040H
  0160e	8b cf		 mov	 ecx, edi
  01610	e8 00 00 00 00	 call	 ?GetAdjParam@CMover@@QAEHH@Z ; CMover::GetAdjParam
  01615	a9 00 00 08 00	 test	 eax, 524288		; 00080000H
  0161a	0f 85 8f eb ff
	ff		 jne	 $LN777@ProcessAct

; 1063 : #endif	//__LEGEND	//	10차 전승시스템	Neuz, World, Trans
; 1064 : 
; 1065 : 			{
; 1066 : 				CWorld* pWorld	= pMover->GetWorld();

  01620	8b 8f 6c 01 00
	00		 mov	 ecx, DWORD PTR [edi+364]

; 1067 : 				if( pWorld )

  01626	85 c9		 test	 ecx, ecx
  01628	74 45		 je	 SHORT $LN296@ProcessAct
; File C:\IAGOS\server\v18\Source\Source\_Common\Obj.h

; 215  : 	D3DXVECTOR3		GetPos()	{ return m_vPos; }

  0162a	f3 0f 7e 87 60
	01 00 00	 movq	 xmm0, QWORD PTR [edi+352]
; File C:\IAGOS\server\v18\Source\Source\_aiinterface\ActionMoverMsg.cpp

; 1069 : 					int nAttr = pMover->GetWorld()->GetHeightAttribute( pMover->GetPos().x, pMover->GetPos().z );		// 이동할 위치의 속성 읽음.

  01632	83 ec 08	 sub	 esp, 8
; File C:\IAGOS\server\v18\Source\Source\_Common\Obj.h

; 215  : 	D3DXVECTOR3		GetPos()	{ return m_vPos; }

  01635	8b 87 68 01 00
	00		 mov	 eax, DWORD PTR [edi+360]
  0163b	66 0f d6 45 d8	 movq	 QWORD PTR $T4[ebp], xmm0
  01640	f3 0f 7e c0	 movq	 xmm0, xmm0
  01644	66 0f d6 45 e4	 movq	 QWORD PTR $T7[ebp], xmm0
  01649	89 45 e0	 mov	 DWORD PTR $T4[ebp+8], eax
; File C:\IAGOS\server\v18\Source\Source\_aiinterface\ActionMoverMsg.cpp

; 1069 : 					int nAttr = pMover->GetWorld()->GetHeightAttribute( pMover->GetPos().x, pMover->GetPos().z );		// 이동할 위치의 속성 읽음.

  0164c	f3 0f 10 45 e0	 movss	 xmm0, DWORD PTR $T4[ebp+8]
  01651	f3 0f 11 44 24
	04		 movss	 DWORD PTR [esp+4], xmm0
  01657	f3 0f 10 45 e4	 movss	 xmm0, DWORD PTR $T7[ebp]
  0165c	f3 0f 11 04 24	 movss	 DWORD PTR [esp], xmm0
  01661	e8 00 00 00 00	 call	 ?GetHeightAttribute@CWorld@@QAEHMM@Z ; CWorld::GetHeightAttribute

; 1070 : 					if( nAttr == HATTR_NOFLY )		// 비행 금지 지역에서 타려고 하면 못탄다.

  01666	83 f8 02	 cmp	 eax, 2
  01669	0f 84 40 eb ff
	ff		 je	 $LN777@ProcessAct
$LN296@ProcessAct:

; 1071 : 						return 0;
; 1072 : 				}
; 1073 : 			}
; 1074 : 		}
; 1075 : 		AddStateFlag( OBJSTAF_FLY );

  0166f	6a 08		 push	 8
  01671	8b ce		 mov	 ecx, esi
  01673	e8 00 00 00 00	 call	 ?AddStateFlag@CAction@@QAEXK@Z ; CAction::AddStateFlag

; 1076 : 		ItemProp *pItemProp = prj.GetItemProp( nParam1 );	// 빗자루 프로퍼티.

  01678	8b 5d 10	 mov	 ebx, DWORD PTR _nParam1$[ebp]
  0167b	b9 00 00 00 00	 mov	 ecx, OFFSET ?prj@@3VCProject@@A ; prj
  01680	53		 push	 ebx
  01681	e8 00 00 00 00	 call	 ?GetItemProp@CProject@@QAEPAUItemProp@@H@Z ; CProject::GetItemProp

; 1077 : 		if( pItemProp )

  01686	85 c0		 test	 eax, eax
  01688	74 15		 je	 SHORT $LN298@ProcessAct

; 1078 : 		{
; 1079 : 			if( pMover->m_nFuel == -1 )		// 초기값이면

  0168a	83 bf 78 06 00
	00 ff		 cmp	 DWORD PTR [edi+1656], -1
  01691	75 0c		 jne	 SHORT $LN298@ProcessAct

; 1080 : 				pMover->m_nFuel = (int)pItemProp->dwFFuelReMax;	// 빗자루 최대 연료량을 세팅.

  01693	8b 80 2c 02 00
	00		 mov	 eax, DWORD PTR [eax+556]
  01699	89 87 78 06 00
	00		 mov	 DWORD PTR [edi+1656], eax
$LN298@ProcessAct:

; 1081 : 			// -1일때만 세팅해야지 연료를 반쯤 쓰다가 빗자루를 바꿔도 새로 세팅 되지 않는다.
; 1082 : 		}
; 1083 : #ifndef __JEFF_9_20
; 1084 : #ifdef __WORLDSERVER
; 1085 : 		if( pMover->IsPlayer() )
; 1086 : 		{
; 1087 : 			((CUser*)pMover)->SetFlyTimeOn();
; 1088 : 		}
; 1089 : #endif // __WORLDSERVER
; 1090 : #endif	// __JEFF_9_20
; 1091 : 		ClearState();

  0169f	8b ce		 mov	 ecx, esi
  016a1	e8 00 00 00 00	 call	 ?ClearState@CAction@@QAEXXZ ; CAction::ClearState

; 1092 : #ifdef __CLIENT
; 1093 : 		if( m_pMover == CMover::GetActiveMover() )
; 1094 : 		{
; 1095 : 			m_pMover->GetWorld()->SetObjFocus( NULL );	// 비행직전에 기존타겟팅을 클리어해준다.
; 1096 : 			g_Neuz.m_camera.Unlock();
; 1097 : 			g_WndMng.m_pWndTaskBar->OnCancelSkill();	// 비행직전엔 스킬바 사용 취소.
; 1098 : 		}
; 1099 : #endif
; 1100 : 
; 1101 : 		CModel* pModel = prj.m_modelMng.LoadModel( D3DDEVICE, OT_ITEM, (DWORD) nParam1 );

  016a6	6a 00		 push	 0
  016a8	53		 push	 ebx
  016a9	6a 04		 push	 4
  016ab	6a 00		 push	 0
  016ad	b9 68 00 00 00	 mov	 ecx, OFFSET ?prj@@3VCProject@@A+104
  016b2	e8 00 00 00 00	 call	 ?LoadModel@CModelMng@@QAEPAVCModel@@PAUIDirect3DDevice9@@HHH@Z ; CModelMng::LoadModel
  016b7	8b f8		 mov	 edi, eax

; 1102 : #if __VER >= 14 // __WING_ITEM
; 1103 : 		CModelObject* pModelObject = (CModelObject*)pModel;
; 1104 : 		if( pModelObject->m_pBone )

  016b9	83 bf 84 2a 00
	00 00		 cmp	 DWORD PTR [edi+10884], 0
  016c0	74 7b		 je	 SHORT $LN299@ProcessAct
; File C:\Program Files\Microsoft Visual Studio\2022\Professional\VC\Tools\MSVC\14.44.35207\atlmfc\include\afxstr.h

; 56   : 		return( AfxGetStringManager() );

  016c2	e8 00 00 00 00	 call	 ?AfxGetStringManager@@YGPAUIAtlStringMgr@ATL@@XZ ; AfxGetStringManager
  016c7	8b c8		 mov	 ecx, eax
; File C:\Program Files\Microsoft Visual Studio\2022\Professional\VC\Tools\MSVC\14.44.35207\atlmfc\include\atlsimpstr.h

; 209  : 		ATLENSURE( pStringMgr != NULL );

  016c9	85 c9		 test	 ecx, ecx
  016cb	0f 84 29 01 00
	00		 je	 $LN944@ProcessAct

; 210  : 		CStringData* pData = pStringMgr->GetNilString();

  016d1	8b 01		 mov	 eax, DWORD PTR [ecx]
  016d3	ff 50 0c	 call	 DWORD PTR [eax+12]

; 211  : 		Attach( pData );

  016d6	83 c0 10	 add	 eax, 16			; 00000010H
  016d9	89 45 10	 mov	 DWORD PTR $T8[ebp], eax
; File C:\Program Files\Microsoft Visual Studio\2022\Professional\VC\Tools\MSVC\14.44.35207\atlmfc\include\cstringt.h

; 2712 : 		if( (pv != NULL) && IS_INTRESOURCE( pv ) )

  016dc	b8 00 00 00 00	 mov	 eax, OFFSET ??_C@_05PJLLPND@stand@

; 1052 : 		CThisSimpleString( StringTraits::GetDefaultManager() )

  016e1	c7 45 fc 00 00
	00 00		 mov	 DWORD PTR __$EHRec$[ebp+8], 0

; 2712 : 		if( (pv != NULL) && IS_INTRESOURCE( pv ) )

  016e8	8d 4d 10	 lea	 ecx, DWORD PTR $T8[ebp]
  016eb	a9 00 00 ff ff	 test	 eax, -65536		; ffff0000H
  016f0	75 0b		 jne	 SHORT $LN764@ProcessAct

; 2713 : 		{
; 2714 : 			UINT nID = LOWORD( reinterpret_cast< DWORD_PTR >( pv ) );

  016f2	0f b7 c0	 movzx	 eax, ax

; 2715 : 			(nID);
; 2716 : #ifdef _ATL_USE_WINAPI_FAMILY_DESKTOP_APP
; 2717 : 			if( !LoadString( nID ) )

  016f5	50		 push	 eax
  016f6	e8 00 00 00 00	 call	 ?LoadStringA@?$CStringT@DV?$StrTraitMFC@DV?$ChTraitsCRT@D@ATL@@@@@ATL@@QAEHI@Z ; ATL::CStringT<char,StrTraitMFC<char,ATL::ChTraitsCRT<char> > >::LoadStringA

; 1054 : 		if( !CheckImplicitLoad( pszSrc ) )

  016fb	eb 0c		 jmp	 SHORT $LN466@ProcessAct
$LN764@ProcessAct:
; File C:\Program Files\Microsoft Visual Studio\2022\Professional\VC\Tools\MSVC\14.44.35207\atlmfc\include\atlsimpstr.h

; 606  : 		SetString( pszSrc, StringLength( pszSrc ) );

  016fd	6a 05		 push	 5
  016ff	68 00 00 00 00	 push	 OFFSET ??_C@_05PJLLPND@stand@
  01704	e8 00 00 00 00	 call	 ?SetString@?$CSimpleStringT@D$0A@@ATL@@QAEXPBDH@Z ; ATL::CSimpleStringT<char,0>::SetString
$LN466@ProcessAct:
; File C:\IAGOS\server\v18\Source\Source\_aiinterface\ActionMoverMsg.cpp

; 1106 : 			CString strMotion = pModelObject->GetMotionFileName( _T("stand") );

  01709	8d 45 10	 lea	 eax, DWORD PTR $T8[ebp]
  0170c	c7 45 fc 01 00
	00 00		 mov	 DWORD PTR __$EHRec$[ebp+8], 1
  01713	50		 push	 eax
  01714	8d 45 14	 lea	 eax, DWORD PTR _strMotion$9[ebp]
  01717	8b cf		 mov	 ecx, edi
  01719	50		 push	 eax
  0171a	e8 00 00 00 00	 call	 ?GetMotionFileName@CModelObject@@QBE?AV?$CStringT@DV?$StrTraitMFC@DV?$ChTraitsCRT@D@ATL@@@@@ATL@@ABV23@@Z ; CModelObject::GetMotionFileName
  0171f	8d 4d 10	 lea	 ecx, DWORD PTR $T8[ebp]
  01722	c6 45 fc 03	 mov	 BYTE PTR __$EHRec$[ebp+8], 3
  01726	e8 00 00 00 00	 call	 ??1?$CStringT@DV?$StrTraitMFC@DV?$ChTraitsCRT@D@ATL@@@@@ATL@@QAE@XZ ; ATL::CStringT<char,StrTraitMFC<char,ATL::ChTraitsCRT<char> > >::~CStringT<char,StrTraitMFC<char,ATL::ChTraitsCRT<char> > >

; 1107 : 			assert( strMotion != _T("") );
; 1108 : 			pModelObject->LoadMotion( strMotion );

  0172b	ff 75 14	 push	 DWORD PTR _strMotion$9[ebp]
  0172e	8b cf		 mov	 ecx, edi
  01730	e8 00 00 00 00	 call	 ?LoadMotion@CModelObject@@QAEHPBD@Z ; CModelObject::LoadMotion

; 1109 : 		}

  01735	8d 4d 14	 lea	 ecx, DWORD PTR _strMotion$9[ebp]
  01738	e8 00 00 00 00	 call	 ??1?$CStringT@DV?$StrTraitMFC@DV?$ChTraitsCRT@D@ATL@@@@@ATL@@QAE@XZ ; ATL::CStringT<char,StrTraitMFC<char,ATL::ChTraitsCRT<char> > >::~CStringT<char,StrTraitMFC<char,ATL::ChTraitsCRT<char> > >
$LN299@ProcessAct:

; 1110 : #endif // __WING_ITEM
; 1111 : 		m_pMover->SetRide( pModel, (DWORD) nParam1 );

  0173d	8b 46 0c	 mov	 eax, DWORD PTR [esi+12]
; File C:\IAGOS\server\v18\Source\Source\_Common\Mover.h

; 1043 : 	void			SetRide( CModel *pModel, int nRideItemIdx = 0 ) { m_dwRideItemIdx = nRideItemIdx; m_pRide = (CModelObject*)pModel; 	};

  01740	89 98 e4 14 00
	00		 mov	 DWORD PTR [eax+5348], ebx
  01746	89 b8 e8 14 00
	00		 mov	 DWORD PTR [eax+5352], edi
; File C:\IAGOS\server\v18\Source\Source\_aiinterface\ActionMoverMsg.cpp

; 1112 : 		break;

  0174c	e9 90 00 00 00	 jmp	 $LN2@ProcessAct
$LN300@ProcessAct:

; 1113 : 	}
; 1114 : 	case OBJMSG_MOTION:		// 단순 모션 플레이
; 1115 : 		{
; 1116 : 			if( IsSit() )		return 0;

  01751	f6 46 08 04	 test	 BYTE PTR [esi+8], 4
  01755	0f 85 54 ea ff
	ff		 jne	 $LN777@ProcessAct
; File C:\IAGOS\server\v18\Source\Source\_AIInterface\Action.h

; 314  : 	BOOL			IsAction() { return (m_dwState & OBJSTA_ACTION_ALL) ? TRUE : FALSE; }

  0175b	f7 46 04 00 f0
	ff ff		 test	 DWORD PTR [esi+4], -4096 ; fffff000H
; File C:\IAGOS\server\v18\Source\Source\_aiinterface\ActionMoverMsg.cpp

; 1117 : 			if( IsAction() )	return 0;

  01762	0f 85 47 ea ff
	ff		 jne	 $LN777@ProcessAct

; 1118 : 			if( IsActJump() )	return 0;
; 1119 : 			if( IsActAttack() )	return 0;
; 1120 : 			if( IsActDamage() )	return 0;
; 1121 : 			if( pMover->m_dwFlag & MVRF_NOMOVE )	return 0;		// 이동금지 상태면 걍 리턴.

  01768	f7 87 44 02 00
	00 00 01 00 00	 test	 DWORD PTR [edi+580], 256 ; 00000100H
  01772	0f 85 37 ea ff
	ff		 jne	 $LN777@ProcessAct

; 1122 : #if __VER >= 10 // __LEGEND	//	10차 전승시스템	Neuz, World, Trans
; 1123 : 		if( pMover->GetAdjParam( DST_CHRSTATE ) & CHS_LOOT)			return 0;

  01778	6a 40		 push	 64			; 00000040H
  0177a	8b cf		 mov	 ecx, edi
  0177c	e8 00 00 00 00	 call	 ?GetAdjParam@CMover@@QAEHH@Z ; CMover::GetAdjParam
  01781	a9 00 00 08 00	 test	 eax, 524288		; 00080000H
  01786	0f 85 23 ea ff
	ff		 jne	 $LN777@ProcessAct

; 1124 : #endif	//__LEGEND	//	10차 전승시스템	Neuz, World, Trans
; 1125 : 
; 1126 : 			AddStateFlag( OBJSTAF_ETC );		// 단순 모션 플레이 상태

  0178c	6a 20		 push	 32			; 00000020H
  0178e	8b ce		 mov	 ecx, esi
  01790	e8 00 00 00 00	 call	 ?AddStateFlag@CAction@@QAEXK@Z ; CAction::AddStateFlag

; 1127 : 			m_nMotionEx = nParam1;				// 모션 인덱스

  01795	8b 4d 10	 mov	 ecx, DWORD PTR _nParam1$[ebp]
  01798	89 8e 8c 00 00
	00		 mov	 DWORD PTR [esi+140], ecx

; 1128 : 			int nPlayMode = nParam2;			// 루핑 모드.
; 1129 : 			if( m_nMotionEx != -1 )

  0179e	83 f9 ff	 cmp	 ecx, -1
  017a1	74 0d		 je	 SHORT $LN308@ProcessAct

; 1130 : 				pMover->SetMotion( m_nMotionEx, nPlayMode, MOP_FIXED/* | MOP_SWDFORCE*/ );

  017a3	8b 07		 mov	 eax, DWORD PTR [edi]
  017a5	6a 02		 push	 2
  017a7	ff 75 14	 push	 DWORD PTR _nParam2$[ebp]
  017aa	51		 push	 ecx
  017ab	8b cf		 mov	 ecx, edi
  017ad	ff 50 04	 call	 DWORD PTR [eax+4]
$LN308@ProcessAct:

; 1131 : 
; 1132 : 			pMover->RemoveInvisible();

  017b0	8b cf		 mov	 ecx, edi
  017b2	e8 00 00 00 00	 call	 ?RemoveInvisible@CMover@@QAEXXZ ; CMover::RemoveInvisible

; 1133 : 		}
; 1134 : 		break;

  017b7	eb 28		 jmp	 SHORT $LN2@ProcessAct
$LN309@ProcessAct:

; 1135 : 	// 일반 액션.
; 1136 : 	case OBJMSG_RESURRECTION:		// 부활.
; 1137 : 		ClearState();

  017b9	e8 00 00 00 00	 call	 ?ClearState@CAction@@QAEXXZ ; CAction::ClearState
; File C:\IAGOS\server\v18\Source\Source\_AIInterface\Action.h

; 292  : 	void			SetState( DWORD dwType, DWORD dwState )	{ ResetState(dwType);	m_dwState |= dwState; }

  017be	68 00 00 00 0f	 push	 251658240		; 0f000000H
  017c3	8b ce		 mov	 ecx, esi
  017c5	e8 00 00 00 00	 call	 ?ResetState@CAction@@QAEXK@Z ; CAction::ResetState
  017ca	81 4e 04 00 00
	00 0c		 or	 DWORD PTR [esi+4], 201326592 ; 0c000000H
; File C:\IAGOS\server\v18\Source\Source\_aiinterface\ActionMoverMsg.cpp

; 1139 : 		pMover->SetMotion( MTI_ASS_RESURRECTION, ANILOOP_1PLAY, MOP_FIXED );

  017d1	6a 02		 push	 2
  017d3	6a 01		 push	 1
  017d5	68 19 04 00 00	 push	 1049			; 00000419H
$LN937@ProcessAct:

; 1179 : }

  017da	8b 07		 mov	 eax, DWORD PTR [edi]
  017dc	8b cf		 mov	 ecx, edi
  017de	ff 50 04	 call	 DWORD PTR [eax+4]
$LN2@ProcessAct:
  017e1	b8 01 00 00 00	 mov	 eax, 1
$LN1@ProcessAct:
  017e6	8b 4d f4	 mov	 ecx, DWORD PTR __$EHRec$[ebp]
  017e9	64 89 0d 00 00
	00 00		 mov	 DWORD PTR fs:0, ecx
  017f0	59		 pop	 ecx
  017f1	5f		 pop	 edi
  017f2	5e		 pop	 esi
  017f3	5b		 pop	 ebx
  017f4	8b e5		 mov	 esp, ebp
  017f6	5d		 pop	 ebp
  017f7	c2 1c 00	 ret	 28			; 0000001cH
$LN944@ProcessAct:
; File C:\Program Files\Microsoft Visual Studio\2022\Professional\VC\Tools\MSVC\14.44.35207\atlmfc\include\atlsimpstr.h

; 209  : 		ATLENSURE( pStringMgr != NULL );

  017fa	68 05 40 00 80	 push	 -2147467259		; 80004005H
  017ff	e8 00 00 00 00	 call	 ?AtlThrowImpl@ATL@@YGXJ@Z ; ATL::AtlThrowImpl
$LN936@ProcessAct:
$LN932@ProcessAct:
; File C:\IAGOS\server\v18\Source\Source\_aiinterface\ActionMoverMsg.cpp

; 1179 : }

  01804	00 00 00 00	 DD	 $LN80@ProcessAct
  01808	00 00 00 00	 DD	 $LN94@ProcessAct
  0180c	00 00 00 00	 DD	 $LN14@ProcessAct
  01810	00 00 00 00	 DD	 $LN30@ProcessAct
  01814	00 00 00 00	 DD	 $LN37@ProcessAct
  01818	00 00 00 00	 DD	 $LN25@ProcessAct
  0181c	00 00 00 00	 DD	 $LN103@ProcessAct
  01820	00 00 00 00	 DD	 $LN114@ProcessAct
  01824	00 00 00 00	 DD	 $LN125@ProcessAct
  01828	00 00 00 00	 DD	 $LN44@ProcessAct
  0182c	00 00 00 00	 DD	 $LN309@ProcessAct
  01830	00 00 00 00	 DD	 $LN51@ProcessAct
  01834	00 00 00 00	 DD	 $LN265@ProcessAct
  01838	00 00 00 00	 DD	 $LN52@ProcessAct
  0183c	00 00 00 00	 DD	 $LN151@ProcessAct
  01840	00 00 00 00	 DD	 $LN266@ProcessAct
  01844	00 00 00 00	 DD	 $LN273@ProcessAct
  01848	00 00 00 00	 DD	 $LN280@ProcessAct
  0184c	00 00 00 00	 DD	 $LN284@ProcessAct
  01850	00 00 00 00	 DD	 $LN288@ProcessAct
  01854	00 00 00 00	 DD	 $LN186@ProcessAct
  01858	00 00 00 00	 DD	 $LN213@ProcessAct
  0185c	00 00 00 00	 DD	 $LN172@ProcessAct
  01860	00 00 00 00	 DD	 $LN160@ProcessAct
  01864	00 00 00 00	 DD	 $LN223@ProcessAct
  01868	00 00 00 00	 DD	 $LN232@ProcessAct
  0186c	00 00 00 00	 DD	 $LN246@ProcessAct
  01870	00 00 00 00	 DD	 $LN240@ProcessAct
  01874	00 00 00 00	 DD	 $LN127@ProcessAct
  01878	00 00 00 00	 DD	 $LN138@ProcessAct
  0187c	00 00 00 00	 DD	 $LN149@ProcessAct
  01880	00 00 00 00	 DD	 $LN300@ProcessAct
  01884	00 00 00 00	 DD	 $LN58@ProcessAct
  01888	00 00 00 00	 DD	 $LN68@ProcessAct
  0188c	00 00 00 00	 DD	 $LN54@ProcessAct
  01890	00 00 00 00	 DD	 $LN2@ProcessAct
$LN931@ProcessAct:
  01894	00		 DB	 0
  01895	01		 DB	 1
  01896	02		 DB	 2
  01897	03		 DB	 3
  01898	04		 DB	 4
  01899	05		 DB	 5
  0189a	05		 DB	 5
  0189b	06		 DB	 6
  0189c	07		 DB	 7
  0189d	08		 DB	 8
  0189e	09		 DB	 9
  0189f	0a		 DB	 10			; 0000000aH
  018a0	0b		 DB	 11			; 0000000bH
  018a1	0c		 DB	 12			; 0000000cH
  018a2	23		 DB	 35			; 00000023H
  018a3	0d		 DB	 13			; 0000000dH
  018a4	0e		 DB	 14			; 0000000eH
  018a5	0f		 DB	 15			; 0000000fH
  018a6	10		 DB	 16			; 00000010H
  018a7	11		 DB	 17			; 00000011H
  018a8	12		 DB	 18			; 00000012H
  018a9	13		 DB	 19			; 00000013H
  018aa	23		 DB	 35			; 00000023H
  018ab	23		 DB	 35			; 00000023H
  018ac	23		 DB	 35			; 00000023H
  018ad	23		 DB	 35			; 00000023H
  018ae	23		 DB	 35			; 00000023H
  018af	23		 DB	 35			; 00000023H
  018b0	14		 DB	 20			; 00000014H
  018b1	14		 DB	 20			; 00000014H
  018b2	14		 DB	 20			; 00000014H
  018b3	14		 DB	 20			; 00000014H
  018b4	15		 DB	 21			; 00000015H
  018b5	15		 DB	 21			; 00000015H
  018b6	16		 DB	 22			; 00000016H
  018b7	17		 DB	 23			; 00000017H
  018b8	18		 DB	 24			; 00000018H
  018b9	19		 DB	 25			; 00000019H
  018ba	19		 DB	 25			; 00000019H
  018bb	1a		 DB	 26			; 0000001aH
  018bc	1b		 DB	 27			; 0000001bH
  018bd	1b		 DB	 27			; 0000001bH
  018be	1c		 DB	 28			; 0000001cH
  018bf	1d		 DB	 29			; 0000001dH
  018c0	1e		 DB	 30			; 0000001eH
  018c1	1f		 DB	 31			; 0000001fH
  018c2	20		 DB	 32			; 00000020H
  018c3	21		 DB	 33			; 00000021H
  018c4	23		 DB	 35			; 00000023H
  018c5	23		 DB	 35			; 00000023H
  018c6	23		 DB	 35			; 00000023H
  018c7	23		 DB	 35			; 00000023H
  018c8	23		 DB	 35			; 00000023H
  018c9	23		 DB	 35			; 00000023H
  018ca	22		 DB	 34			; 00000022H
  018cb	90		 npad	 1
$LN933@ProcessAct:
  018cc	00 00 00 00	 DD	 $LN206@ProcessAct
  018d0	00 00 00 00	 DD	 $LN207@ProcessAct
  018d4	00 00 00 00	 DD	 $LN208@ProcessAct
  018d8	00 00 00 00	 DD	 $LN209@ProcessAct
_TEXT	ENDS
;	COMDAT text$x
text$x	SEGMENT
__unwindfunclet$?ProcessActMsg1@CActionMover@@QAEHPAVCMover@@W4OBJMSG@@HHHHH@Z$2:
  00000	8d 4d 10	 lea	 ecx, DWORD PTR $T8[ebp]
  00003	e9 00 00 00 00	 jmp	 ??1?$CSimpleStringT@D$0A@@ATL@@QAE@XZ ; ATL::CSimpleStringT<char,0>::~CSimpleStringT<char,0>
__unwindfunclet$?ProcessActMsg1@CActionMover@@QAEHPAVCMover@@W4OBJMSG@@HHHHH@Z$0:
  00008	8d 4d 10	 lea	 ecx, DWORD PTR $T8[ebp]
  0000b	e9 00 00 00 00	 jmp	 ??1?$CStringT@DV?$StrTraitMFC@DV?$ChTraitsCRT@D@ATL@@@@@ATL@@QAE@XZ ; ATL::CStringT<char,StrTraitMFC<char,ATL::ChTraitsCRT<char> > >::~CStringT<char,StrTraitMFC<char,ATL::ChTraitsCRT<char> > >
__unwindfunclet$?ProcessActMsg1@CActionMover@@QAEHPAVCMover@@W4OBJMSG@@HHHHH@Z$1:
  00010	8d 4d 14	 lea	 ecx, DWORD PTR _strMotion$9[ebp]
  00013	e9 00 00 00 00	 jmp	 ??1?$CStringT@DV?$StrTraitMFC@DV?$ChTraitsCRT@D@ATL@@@@@ATL@@QAE@XZ ; ATL::CStringT<char,StrTraitMFC<char,ATL::ChTraitsCRT<char> > >::~CStringT<char,StrTraitMFC<char,ATL::ChTraitsCRT<char> > >
  00018	cc		 int	 3
  00019	cc		 int	 3
  0001a	cc		 int	 3
  0001b	cc		 int	 3
  0001c	cc		 int	 3
__ehhandler$?ProcessActMsg1@CActionMover@@QAEHPAVCMover@@W4OBJMSG@@HHHHH@Z:
  0001d	90		 npad	 1
  0001e	90		 npad	 1
  0001f	8b 54 24 08	 mov	 edx, DWORD PTR [esp+8]
  00023	8d 42 0c	 lea	 eax, DWORD PTR [edx+12]
  00026	8b 4a d4	 mov	 ecx, DWORD PTR [edx-44]
  00029	33 c8		 xor	 ecx, eax
  0002b	e8 00 00 00 00	 call	 @__security_check_cookie@4
  00030	b8 00 00 00 00	 mov	 eax, OFFSET __ehfuncinfo$?ProcessActMsg1@CActionMover@@QAEHPAVCMover@@W4OBJMSG@@HHHHH@Z
  00035	e9 00 00 00 00	 jmp	 ___CxxFrameHandler3
text$x	ENDS
?ProcessActMsg1@CActionMover@@QAEHPAVCMover@@W4OBJMSG@@HHHHH@Z ENDP ; CActionMover::ProcessActMsg1
; Function compile flags: /Ogtp
; File C:\IAGOS\server\v18\Source\Source\_aiinterface\ActionMoverMsg.cpp
;	COMDAT ?HalfForcedSet@CActionMover@@QAEXAAUD3DXVECTOR3@@MM@Z
_TEXT	SEGMENT
_vd$ = 8						; size = 4
_fAccPower$ = 12					; size = 4
_fTurnAngle$ = 16					; size = 4
?HalfForcedSet@CActionMover@@QAEXAAUD3DXVECTOR3@@MM@Z PROC ; CActionMover::HalfForcedSet, COMDAT
; _this$ = ecx

; 83   : {

  00000	55		 push	 ebp
  00001	8b ec		 mov	 ebp, esp

; 84   : 	m_vDelta	 = vd;

  00003	8b 45 08	 mov	 eax, DWORD PTR _vd$[ebp]
  00006	f3 0f 7e 00	 movq	 xmm0, QWORD PTR [eax]
  0000a	66 0f d6 41 50	 movq	 QWORD PTR [ecx+80], xmm0
  0000f	8b 40 08	 mov	 eax, DWORD PTR [eax+8]

; 85   : 	m_fAccPower	 = fAccPower;

  00012	f3 0f 10 45 0c	 movss	 xmm0, DWORD PTR _fAccPower$[ebp]
  00017	f3 0f 11 41 4c	 movss	 DWORD PTR [ecx+76], xmm0

; 86   : 	m_fTurnAngle = fTurnAngle;

  0001c	f3 0f 10 45 10	 movss	 xmm0, DWORD PTR _fTurnAngle$[ebp]
  00021	89 41 58	 mov	 DWORD PTR [ecx+88], eax
  00024	f3 0f 11 81 84
	00 00 00	 movss	 DWORD PTR [ecx+132], xmm0

; 87   : 	DefaultSet();

  0002c	e8 00 00 00 00	 call	 ?DefaultSet@CActionMover@@QAEXXZ ; CActionMover::DefaultSet

; 88   : }

  00031	5d		 pop	 ebp
  00032	c2 0c 00	 ret	 12			; 0000000cH
?HalfForcedSet@CActionMover@@QAEXAAUD3DXVECTOR3@@MM@Z ENDP ; CActionMover::HalfForcedSet
_TEXT	ENDS
; Function compile flags: /Ogtp
; File C:\IAGOS\server\v18\Source\Source\_aiinterface\ActionMoverMsg.cpp
;	COMDAT ?DefaultSet@CActionMover@@QAEXXZ
_TEXT	SEGMENT
?DefaultSet@CActionMover@@QAEXXZ PROC			; CActionMover::DefaultSet, COMDAT
; _this$ = ecx

; 92   : 	m_pMover->m_fCrrSpd	= 0.0f;

  00000	8b 41 0c	 mov	 eax, DWORD PTR [ecx+12]
  00003	c7 80 4c 02 00
	00 00 00 00 00	 mov	 DWORD PTR [eax+588], 0

; 93   : }

  0000d	c3		 ret	 0
?DefaultSet@CActionMover@@QAEXXZ ENDP			; CActionMover::DefaultSet
_TEXT	ENDS
; Function compile flags: /Ogtp
; File C:\IAGOS\server\v18\Source\Source\_aiinterface\ActionMoverMsg.cpp
;	COMDAT ?ForcedSet2@CActionMover@@QAEXAAUD3DXVECTOR3@@MMKKH@Z
_TEXT	SEGMENT
_vDelta$ = 8						; size = 4
_fAccPower$ = 12					; size = 4
_fTurnAngle$ = 16					; size = 4
_dwState$ = 20						; size = 4
_dwStateFlag$ = 24					; size = 4
_nMotionEx$ = 28					; size = 4
?ForcedSet2@CActionMover@@QAEXAAUD3DXVECTOR3@@MMKKH@Z PROC ; CActionMover::ForcedSet2, COMDAT
; _this$ = ecx

; 62   : {

  00000	55		 push	 ebp
  00001	8b ec		 mov	 ebp, esp
  00003	56		 push	 esi
  00004	8b f1		 mov	 esi, ecx

; 63   : 	if( ( GetStateFlag() & OBJSTAF_FLY ) == 0 && ( dwStateFlag & OBJSTAF_FLY ) )

  00006	8b 4d 18	 mov	 ecx, DWORD PTR _dwStateFlag$[ebp]
  00009	8b c1		 mov	 eax, ecx
  0000b	83 e0 08	 and	 eax, 8
  0000e	f6 46 08 08	 test	 BYTE PTR [esi+8], 8
  00012	75 06		 jne	 SHORT $LN8@ForcedSet2
  00014	85 c0		 test	 eax, eax
  00016	75 7a		 jne	 SHORT $LN6@ForcedSet2
  00018	eb 04		 jmp	 SHORT $LN3@ForcedSet2
$LN8@ForcedSet2:

; 64   : 		return;
; 65   : 	if( ( GetStateFlag() & OBJSTAF_FLY ) && ( dwStateFlag & OBJSTAF_FLY ) == 0 )

  0001a	85 c0		 test	 eax, eax
  0001c	74 74		 je	 SHORT $LN6@ForcedSet2
$LN3@ForcedSet2:

; 66   : 		return;
; 67   : 
; 68   : 	m_vDelta = vDelta;

  0001e	8b 45 08	 mov	 eax, DWORD PTR _vDelta$[ebp]
  00021	57		 push	 edi

; 69   : 	m_fAccPower	= fAccPower;
; 70   : 	m_fTurnAngle	= fTurnAngle;
; 71   : 	__ForceSetState( dwState );

  00022	8b 7d 14	 mov	 edi, DWORD PTR _dwState$[ebp]

; 72   : 	ClearStateFlag();
; 73   : 	AddStateFlag( dwStateFlag );

  00025	51		 push	 ecx
  00026	f3 0f 7e 00	 movq	 xmm0, QWORD PTR [eax]
  0002a	8b ce		 mov	 ecx, esi
  0002c	66 0f d6 46 50	 movq	 QWORD PTR [esi+80], xmm0
  00031	8b 40 08	 mov	 eax, DWORD PTR [eax+8]
  00034	f3 0f 10 45 0c	 movss	 xmm0, DWORD PTR _fAccPower$[ebp]
  00039	f3 0f 11 46 4c	 movss	 DWORD PTR [esi+76], xmm0
  0003e	f3 0f 10 45 10	 movss	 xmm0, DWORD PTR _fTurnAngle$[ebp]
  00043	89 46 58	 mov	 DWORD PTR [esi+88], eax
  00046	f3 0f 11 86 84
	00 00 00	 movss	 DWORD PTR [esi+132], xmm0
  0004e	89 7e 04	 mov	 DWORD PTR [esi+4], edi
  00051	c7 46 08 00 00
	00 00		 mov	 DWORD PTR [esi+8], 0
  00058	e8 00 00 00 00	 call	 ?AddStateFlag@CAction@@QAEXK@Z ; CAction::AddStateFlag

; 74   : 	m_nMotionEx = nMotionEx;

  0005d	8b 45 1c	 mov	 eax, DWORD PTR _nMotionEx$[ebp]

; 75   : 	DefaultSet();

  00060	8b ce		 mov	 ecx, esi
  00062	89 86 8c 00 00
	00		 mov	 DWORD PTR [esi+140], eax
  00068	e8 00 00 00 00	 call	 ?DefaultSet@CActionMover@@QAEXXZ ; CActionMover::DefaultSet

; 76   : 	if( (GetStateFlag() & OBJSTAF_SIT) && (dwState != OBJSTA_SIT))	// IsSit()인데

  0006d	8b 46 08	 mov	 eax, DWORD PTR [esi+8]
  00070	a8 04		 test	 al, 4
  00072	74 07		 je	 SHORT $LN9@ForcedSet2
  00074	83 ff 03	 cmp	 edi, 3
  00077	74 18		 je	 SHORT $LN14@ForcedSet2

; 77   : 		Error( "ForcedSet2 : dwState=0x%08x, dwStateFlag=0x%08x", GetState(), GetStateFlag() );

  00079	eb 05		 jmp	 SHORT $LN15@ForcedSet2
$LN9@ForcedSet2:

; 78   : 	else if( (GetStateFlag() & OBJSTAF_SIT) == 0 && (dwState == OBJSTA_SIT) )	// IsSit()아닌데 SIT이면

  0007b	83 ff 03	 cmp	 edi, 3
  0007e	75 11		 jne	 SHORT $LN14@ForcedSet2
$LN15@ForcedSet2:

; 79   : 		Error( "ForcedSet2 : dwState=0x%08x, dwStateFlag=0x%08x", GetState(), GetStateFlag() );

  00080	50		 push	 eax
  00081	ff 76 04	 push	 DWORD PTR [esi+4]
  00084	68 00 00 00 00	 push	 OFFSET ??_C@_0DA@DHAGLFHI@ForcedSet2?5?3?5dwState?$DN0x?$CF08x?0?5dw@
  00089	e8 00 00 00 00	 call	 ?Error@@YAPBDPBDZZ	; Error
  0008e	83 c4 0c	 add	 esp, 12			; 0000000cH
$LN14@ForcedSet2:
  00091	5f		 pop	 edi
$LN6@ForcedSet2:
  00092	5e		 pop	 esi

; 80   : }

  00093	5d		 pop	 ebp
  00094	c2 18 00	 ret	 24			; 00000018H
?ForcedSet2@CActionMover@@QAEXAAUD3DXVECTOR3@@MMKKH@Z ENDP ; CActionMover::ForcedSet2
_TEXT	ENDS
; Function compile flags: /Ogtp
; File C:\IAGOS\server\v18\Source\Source\_aiinterface\ActionMoverMsg.cpp
;	COMDAT ?ForcedSet@CActionMover@@QAEXAAUD3DXVECTOR3@@KKH@Z
_TEXT	SEGMENT
_vDelta$ = 8						; size = 4
_dwState$ = 12						; size = 4
_dwStateFlag$ = 16					; size = 4
_nMotionEx$ = 20					; size = 4
?ForcedSet@CActionMover@@QAEXAAUD3DXVECTOR3@@KKH@Z PROC	; CActionMover::ForcedSet, COMDAT
; _this$ = ecx

; 36   : {

  00000	55		 push	 ebp
  00001	8b ec		 mov	 ebp, esp
  00003	53		 push	 ebx
  00004	8b 5d 0c	 mov	 ebx, DWORD PTR _dwState$[ebp]
  00007	56		 push	 esi
  00008	8b f1		 mov	 esi, ecx
  0000a	8b 4d 10	 mov	 ecx, DWORD PTR _dwStateFlag$[ebp]

; 37   : 	if( ( GetStateFlag() & OBJSTAF_FLY ) == 0 && ( dwStateFlag & OBJSTAF_FLY ) )

  0000d	8b c1		 mov	 eax, ecx
  0000f	83 e0 08	 and	 eax, 8
  00012	8b 56 08	 mov	 edx, DWORD PTR [esi+8]
  00015	f6 c2 08	 test	 dl, 8
  00018	75 06		 jne	 SHORT $LN15@ForcedSet
  0001a	85 c0		 test	 eax, eax
  0001c	75 75		 jne	 SHORT $LN1@ForcedSet
  0001e	eb 04		 jmp	 SHORT $LN3@ForcedSet
$LN15@ForcedSet:

; 38   : 		return;
; 39   : 	if( ( GetStateFlag() & OBJSTAF_FLY ) && ( dwStateFlag & OBJSTAF_FLY ) == 0 )

  00020	85 c0		 test	 eax, eax
  00022	74 6f		 je	 SHORT $LN1@ForcedSet
$LN3@ForcedSet:

; 40   : 		return;
; 41   : 	if( ( GetStateFlag() & OBJSTAF_SIT ) == 0 && ( dwStateFlag & OBJSTAF_SIT ) )

  00024	8b c1		 mov	 eax, ecx
  00026	83 e0 04	 and	 eax, 4
  00029	f6 c2 04	 test	 dl, 4
  0002c	75 06		 jne	 SHORT $LN14@ForcedSet
  0002e	85 c0		 test	 eax, eax
  00030	75 61		 jne	 SHORT $LN1@ForcedSet
  00032	eb 04		 jmp	 SHORT $LN5@ForcedSet
$LN14@ForcedSet:

; 42   : 		return;
; 43   : 	if( ( GetStateFlag() & OBJSTAF_SIT ) && ( dwStateFlag & OBJSTAF_SIT ) == 0 )

  00034	85 c0		 test	 eax, eax
  00036	74 5b		 je	 SHORT $LN1@ForcedSet
$LN5@ForcedSet:

; 44   : 		return;
; 45   : 
; 46   : 	m_vDelta = vDelta;

  00038	8b 45 08	 mov	 eax, DWORD PTR _vDelta$[ebp]

; 47   : 	__ForceSetState( dwState );	// 여기 이외엔 이함수 사용하지 말것.
; 48   : 			
; 49   : 	ClearStateFlag();
; 50   : 	AddStateFlag( dwStateFlag );

  0003b	51		 push	 ecx
  0003c	8b ce		 mov	 ecx, esi
  0003e	f3 0f 7e 00	 movq	 xmm0, QWORD PTR [eax]
  00042	66 0f d6 46 50	 movq	 QWORD PTR [esi+80], xmm0
  00047	8b 40 08	 mov	 eax, DWORD PTR [eax+8]
  0004a	89 46 58	 mov	 DWORD PTR [esi+88], eax
  0004d	89 5e 04	 mov	 DWORD PTR [esi+4], ebx
  00050	c7 46 08 00 00
	00 00		 mov	 DWORD PTR [esi+8], 0
  00057	e8 00 00 00 00	 call	 ?AddStateFlag@CAction@@QAEXK@Z ; CAction::AddStateFlag

; 51   : 
; 52   : 	if( (GetStateFlag() & OBJSTAF_SIT) && ((dwState & OBJSTA_MOVE_ALL) != OBJSTA_SIT) )	// IsSit()인데

  0005c	8b 46 08	 mov	 eax, DWORD PTR [esi+8]
  0005f	0f b6 cb	 movzx	 ecx, bl
  00062	a8 04		 test	 al, 4
  00064	74 07		 je	 SHORT $LN12@ForcedSet
  00066	83 f9 03	 cmp	 ecx, 3
  00069	74 18		 je	 SHORT $LN8@ForcedSet

; 53   : 		Error( "ForcedSet : dwState=0x%08x, dwStateFlag=0x%08x", GetState(), GetStateFlag() );

  0006b	eb 05		 jmp	 SHORT $LN21@ForcedSet
$LN12@ForcedSet:

; 54   : 	else if( (GetStateFlag() & OBJSTAF_SIT) == 0 && ((dwState & OBJSTA_MOVE_ALL) == OBJSTA_SIT) )	// IsSit()아닌데 SIT이면

  0006d	83 f9 03	 cmp	 ecx, 3
  00070	75 11		 jne	 SHORT $LN8@ForcedSet
$LN21@ForcedSet:

; 55   : 		Error( "ForcedSet : dwState=0x%08x, dwStateFlag=0x%08x", GetState(), GetStateFlag() );
; 56   : 
; 57   : 	m_nMotionEx = nMotionEx;

  00072	50		 push	 eax
  00073	ff 76 04	 push	 DWORD PTR [esi+4]
  00076	68 00 00 00 00	 push	 OFFSET ??_C@_0CP@ELGGLPDI@ForcedSet?5?3?5dwState?$DN0x?$CF08x?0?5dwS@
  0007b	e8 00 00 00 00	 call	 ?Error@@YAPBDPBDZZ	; Error
  00080	83 c4 0c	 add	 esp, 12			; 0000000cH
$LN8@ForcedSet:
  00083	8b 45 14	 mov	 eax, DWORD PTR _nMotionEx$[ebp]

; 58   : 	DefaultSet();

  00086	8b ce		 mov	 ecx, esi
  00088	89 86 8c 00 00
	00		 mov	 DWORD PTR [esi+140], eax
  0008e	e8 00 00 00 00	 call	 ?DefaultSet@CActionMover@@QAEXXZ ; CActionMover::DefaultSet
$LN1@ForcedSet:

; 59   : }

  00093	5e		 pop	 esi
  00094	5b		 pop	 ebx
  00095	5d		 pop	 ebp
  00096	c2 10 00	 ret	 16			; 00000010H
?ForcedSet@CActionMover@@QAEXAAUD3DXVECTOR3@@KKH@Z ENDP	; CActionMover::ForcedSet
_TEXT	ENDS
; Function compile flags: /Ogtp
; File C:\IAGOS\server\v18\Source\Source\_Common\Item.h
; File C:\IAGOS\server\v18\Source\Source\_Common\Project.h
; File C:\IAGOS\server\v18\Source\Source\_Common\data.h
; File C:\IAGOS\server\v18\Source\Source\_Common\Item.h
; File C:\IAGOS\server\v18\Source\Source\_Common\Project.h
; File C:\IAGOS\server\v18\Source\Source\_Common\Item.h
;	COMDAT ?GetPropA@CItemElem@@QAEPAUItemProp@@XZ
_TEXT	SEGMENT
?GetPropA@CItemElem@@QAEPAUItemProp@@XZ PROC		; CItemElem::GetPropA, COMDAT
; _this$ = ecx

; 230  : 	ItemProp*	GetProp()	{	return prj.GetItemProp( m_dwItemId );	}

  00000	8b 49 0c	 mov	 ecx, DWORD PTR [ecx+12]
; File C:\IAGOS\server\v18\Source\Source\_Common\Project.h

; 1389 : 	VERIFY_RANGE_ASSERT( nIndex, 0, m_aPropItem.GetSize(), "GetItemProp range_error", NULL );

  00003	a1 40 02 00 00	 mov	 eax, DWORD PTR ?prj@@3VCProject@@A+576
  00008	85 c9		 test	 ecx, ecx
  0000a	78 0f		 js	 SHORT $LN8@GetPropA
  0000c	3b c8		 cmp	 ecx, eax
  0000e	7d 0b		 jge	 SHORT $LN8@GetPropA
; File C:\IAGOS\server\v18\Source\Source\_Common\data.h

; 270  : 	if( dwIndex >= (DWORD)m_nMaxIndex )

  00010	73 1f		 jae	 SHORT $LN15@GetPropA

; 271  : 		return NULL;
; 272  : 	return (T*) m_apOffset[ dwIndex ];

  00012	a1 30 02 00 00	 mov	 eax, DWORD PTR ?prj@@3VCProject@@A+560
  00017	8b 04 88	 mov	 eax, DWORD PTR [eax+ecx*4]
; File C:\IAGOS\server\v18\Source\Source\_Common\Item.h

; 230  : 	ItemProp*	GetProp()	{	return prj.GetItemProp( m_dwItemId );	}

  0001a	c3		 ret	 0
$LN8@GetPropA:
; File C:\IAGOS\server\v18\Source\Source\_Common\Project.h

; 579  : 	LPCTSTR szErr = Error( _T( "%s min:%d, max:%d, index:%d" ), szMsg, nMin, nMax, nIndex ); 

  0001b	51		 push	 ecx
  0001c	50		 push	 eax
  0001d	6a 00		 push	 0
  0001f	68 00 00 00 00	 push	 OFFSET ??_C@_0BI@BEIFNGEL@GetItemProp?5range_error@
  00024	68 00 00 00 00	 push	 OFFSET ??_C@_0BM@HMFGHCP@?$CFs?5min?3?$CFd?0?5max?3?$CFd?0?5index?3?$CFd@
  00029	e8 00 00 00 00	 call	 ?Error@@YAPBDPBDZZ	; Error
  0002e	83 c4 14	 add	 esp, 20			; 00000014H
$LN15@GetPropA:
; File C:\IAGOS\server\v18\Source\Source\_Common\Item.h

; 230  : 	ItemProp*	GetProp()	{	return prj.GetItemProp( m_dwItemId );	}

  00031	33 c0		 xor	 eax, eax
  00033	c3		 ret	 0
?GetPropA@CItemElem@@QAEPAUItemProp@@XZ ENDP		; CItemElem::GetPropA
_TEXT	ENDS
; Function compile flags: /Ogtp
; File C:\IAGOS\server\v18\Source\Source\_Common\Project.h
; File C:\IAGOS\server\v18\Source\Source\_Common\data.h
; File C:\IAGOS\server\v18\Source\Source\_Common\Project.h
;	COMDAT ?GetItemProp@CProject@@QAEPAUItemProp@@H@Z
_TEXT	SEGMENT
_nIndex$ = 8						; size = 4
?GetItemProp@CProject@@QAEPAUItemProp@@H@Z PROC		; CProject::GetItemProp, COMDAT
; _this$ = ecx

; 1388 : { 

  00000	55		 push	 ebp
  00001	8b ec		 mov	 ebp, esp

; 1389 : 	VERIFY_RANGE_ASSERT( nIndex, 0, m_aPropItem.GetSize(), "GetItemProp range_error", NULL );

  00003	8b 55 08	 mov	 edx, DWORD PTR _nIndex$[ebp]
  00006	56		 push	 esi
  00007	85 d2		 test	 edx, edx
  00009	78 18		 js	 SHORT $LN14@GetItemPro
  0000b	3b 91 40 02 00
	00		 cmp	 edx, DWORD PTR [ecx+576]
  00011	7d 10		 jge	 SHORT $LN14@GetItemPro
; File C:\IAGOS\server\v18\Source\Source\_Common\data.h

; 270  : 	if( dwIndex >= (DWORD)m_nMaxIndex )

  00013	73 29		 jae	 SHORT $LN18@GetItemPro

; 271  : 		return NULL;
; 272  : 	return (T*) m_apOffset[ dwIndex ];

  00015	8b 81 30 02 00
	00		 mov	 eax, DWORD PTR [ecx+560]
  0001b	5e		 pop	 esi
  0001c	8b 04 90	 mov	 eax, DWORD PTR [eax+edx*4]
; File C:\IAGOS\server\v18\Source\Source\_Common\Project.h

; 1391 : }

  0001f	5d		 pop	 ebp
  00020	c2 04 00	 ret	 4
$LN14@GetItemPro:

; 579  : 	LPCTSTR szErr = Error( _T( "%s min:%d, max:%d, index:%d" ), szMsg, nMin, nMax, nIndex ); 

  00023	52		 push	 edx
  00024	ff b1 40 02 00
	00		 push	 DWORD PTR [ecx+576]
  0002a	6a 00		 push	 0
  0002c	68 00 00 00 00	 push	 OFFSET ??_C@_0BI@BEIFNGEL@GetItemProp?5range_error@
  00031	68 00 00 00 00	 push	 OFFSET ??_C@_0BM@HMFGHCP@?$CFs?5min?3?$CFd?0?5max?3?$CFd?0?5index?3?$CFd@
  00036	e8 00 00 00 00	 call	 ?Error@@YAPBDPBDZZ	; Error
  0003b	83 c4 14	 add	 esp, 20			; 00000014H
$LN18@GetItemPro:

; 1391 : }

  0003e	33 c0		 xor	 eax, eax
  00040	5e		 pop	 esi
  00041	5d		 pop	 ebp
  00042	c2 04 00	 ret	 4
?GetItemProp@CProject@@QAEPAUItemProp@@H@Z ENDP		; CProject::GetItemProp
_TEXT	ENDS
; Function compile flags: /Ogtp
; File C:\IAGOS\server\v18\Source\Source\_Common\Obj.h
; File C:\Program Files (x86)\Windows Kits\10\Include\10.0.26100.0\ucrt\corecrt_math.h
; File C:\IAGOS\server\v18\Source\Source\DX_SDK\d3dx9math.inl
; File C:\Program Files (x86)\Windows Kits\10\Include\10.0.26100.0\ucrt\corecrt_math.h
; File C:\IAGOS\server\v18\Source\Source\DX_SDK\d3dx9math.inl
; File C:\Program Files (x86)\Windows Kits\10\Include\10.0.26100.0\ucrt\corecrt_math.h
; File C:\IAGOS\server\v18\Source\Source\_Common\Obj.h
; File C:\IAGOS\server\v18\Source\Source\DX_SDK\d3dx9math.inl
; File C:\IAGOS\server\v18\Source\Source\_Common\Obj.h
; File C:\IAGOS\server\v18\Source\Source\DX_SDK\d3dx9math.inl
; File C:\Program Files (x86)\Windows Kits\10\Include\10.0.26100.0\ucrt\corecrt_math.h
; File C:\IAGOS\server\v18\Source\Source\_Common\Obj.h
;	COMDAT ?GetDegree@@YAMABUD3DXVECTOR3@@0@Z
_TEXT	SEGMENT
_fDegree$ = -32						; size = 4
_vDir1$ = -28						; size = 12
_vDir2$ = -16						; size = 12
__$ArrayPad$ = -4					; size = 4
_vDestPos$ = 8						; size = 4
_vSrcPos$ = 12						; size = 4
?GetDegree@@YAMABUD3DXVECTOR3@@0@Z PROC			; GetDegree, COMDAT

; 289  : {

  00000	55		 push	 ebp
  00001	8b ec		 mov	 ebp, esp
  00003	83 ec 20	 sub	 esp, 32			; 00000020H
  00006	a1 00 00 00 00	 mov	 eax, DWORD PTR ___security_cookie
  0000b	33 c5		 xor	 eax, ebp
  0000d	89 45 fc	 mov	 DWORD PTR __$ArrayPad$[ebp], eax
  00010	56		 push	 esi
  00011	8b 75 08	 mov	 esi, DWORD PTR _vDestPos$[ebp]
  00014	0f 57 c0	 xorps	 xmm0, xmm0
  00017	57		 push	 edi
  00018	8b 7d 0c	 mov	 edi, DWORD PTR _vSrcPos$[ebp]
; File C:\Program Files (x86)\Windows Kits\10\Include\10.0.26100.0\ucrt\corecrt_math.h

; 789  :             return (float)sin(_X);

  0001b	e8 00 00 00 00	 call	 __libm_sse2_sin_precise
  00020	0f 57 c9	 xorps	 xmm1, xmm1
; File C:\IAGOS\server\v18\Source\Source\DX_SDK\d3dx9math.inl

; 301  :     y = fy;

  00023	c7 45 e8 00 00
	00 00		 mov	 DWORD PTR _vDir1$[ebp+4], 0
; File C:\Program Files (x86)\Windows Kits\10\Include\10.0.26100.0\ucrt\corecrt_math.h

; 789  :             return (float)sin(_X);

  0002a	f2 0f 5a c8	 cvtsd2ss xmm1, xmm0
  0002e	0f 57 c0	 xorps	 xmm0, xmm0
; File C:\IAGOS\server\v18\Source\Source\DX_SDK\d3dx9math.inl

; 300  :     x = fx;

  00031	f3 0f 11 4d e4	 movss	 DWORD PTR _vDir1$[ebp], xmm1
; File C:\Program Files (x86)\Windows Kits\10\Include\10.0.26100.0\ucrt\corecrt_math.h

; 683  :             return (float)cos(_X);

  00036	e8 00 00 00 00	 call	 __libm_sse2_cos_precise
  0003b	f2 0f 5a c0	 cvtsd2ss xmm0, xmm0
; File C:\IAGOS\server\v18\Source\Source\_Common\Obj.h

; 294  : 	D3DXVec3Normalize( &vDir1, &vDir1 );

  0003f	8d 45 e4	 lea	 eax, DWORD PTR _vDir1$[ebp]
  00042	c7 45 f4 00 00
	00 00		 mov	 DWORD PTR _vDir2$[ebp+4], 0
  00049	50		 push	 eax
  0004a	50		 push	 eax

; 282  : 	FLOAT fz = -cosf( fTheta ) * fVelocity;

  0004b	0f 57 05 00 00
	00 00		 xorps	 xmm0, DWORD PTR __xmm@80000000800000008000000080000000
; File C:\IAGOS\server\v18\Source\Source\DX_SDK\d3dx9math.inl

; 302  :     z = fz;

  00052	f3 0f 11 45 ec	 movss	 DWORD PTR _vDir1$[ebp+8], xmm0

; 383  :     return D3DXVECTOR3(x - v.x, y - v.y, z - v.z);

  00057	f3 0f 10 06	 movss	 xmm0, DWORD PTR [esi]
  0005b	f3 0f 5c 07	 subss	 xmm0, DWORD PTR [edi]

; 300  :     x = fx;

  0005f	f3 0f 11 45 f0	 movss	 DWORD PTR _vDir2$[ebp], xmm0

; 383  :     return D3DXVECTOR3(x - v.x, y - v.y, z - v.z);

  00064	f3 0f 10 46 08	 movss	 xmm0, DWORD PTR [esi+8]
  00069	f3 0f 5c 47 08	 subss	 xmm0, DWORD PTR [edi+8]

; 302  :     z = fz;

  0006e	f3 0f 11 45 f8	 movss	 DWORD PTR _vDir2$[ebp+8], xmm0
; File C:\IAGOS\server\v18\Source\Source\_Common\Obj.h

; 294  : 	D3DXVec3Normalize( &vDir1, &vDir1 );

  00073	e8 00 00 00 00	 call	 _D3DXVec3Normalize@8

; 295  : 	D3DXVec3Normalize( &vDir2, &vDir2 );

  00078	8d 45 f0	 lea	 eax, DWORD PTR _vDir2$[ebp]
  0007b	50		 push	 eax
  0007c	50		 push	 eax
  0007d	e8 00 00 00 00	 call	 _D3DXVec3Normalize@8
; File C:\IAGOS\server\v18\Source\Source\DX_SDK\d3dx9math.inl

; 1709 :     return pV1->x * pV2->x + pV1->y * pV2->y + pV1->z * pV2->z;

  00082	f3 0f 10 4d e4	 movss	 xmm1, DWORD PTR _vDir1$[ebp]
  00087	f3 0f 10 45 e8	 movss	 xmm0, DWORD PTR _vDir1$[ebp+4]
  0008c	f3 0f 59 45 f4	 mulss	 xmm0, DWORD PTR _vDir2$[ebp+4]
  00091	f3 0f 59 4d f0	 mulss	 xmm1, DWORD PTR _vDir2$[ebp]
  00096	f3 0f 58 c8	 addss	 xmm1, xmm0
  0009a	f3 0f 10 45 f8	 movss	 xmm0, DWORD PTR _vDir2$[ebp+8]
  0009f	f3 0f 59 45 ec	 mulss	 xmm0, DWORD PTR _vDir1$[ebp+8]
  000a4	f3 0f 58 c8	 addss	 xmm1, xmm0
; File C:\Program Files (x86)\Windows Kits\10\Include\10.0.26100.0\ucrt\corecrt_math.h

; 658  :             return (float)acos(_X);

  000a8	0f 5a c1	 cvtps2pd xmm0, xmm1
  000ab	e8 00 00 00 00	 call	 __libm_sse2_acos_precise
  000b0	0f 57 c9	 xorps	 xmm1, xmm1
  000b3	f2 0f 5a c8	 cvtsd2ss xmm1, xmm0
; File C:\IAGOS\server\v18\Source\Source\_Common\Obj.h

; 299  : 	if( vDir2.x < 0.0f )

  000b7	5f		 pop	 edi
  000b8	5e		 pop	 esi
  000b9	0f 57 c0	 xorps	 xmm0, xmm0
  000bc	0f 2f 45 f0	 comiss	 xmm0, DWORD PTR _vDir2$[ebp]
  000c0	f3 0f 59 0d 00
	00 00 00	 mulss	 xmm1, DWORD PTR __real@42652ee0
  000c8	f3 0f 11 4d e0	 movss	 DWORD PTR _fDegree$[ebp], xmm1
  000cd	76 11		 jbe	 SHORT $LN21@GetDegree

; 300  : 		fDegree = 360.0f - fDegree;

  000cf	f3 0f 10 05 00
	00 00 00	 movss	 xmm0, DWORD PTR __real@43b40000
  000d7	f3 0f 5c c1	 subss	 xmm0, xmm1
  000db	f3 0f 11 45 e0	 movss	 DWORD PTR _fDegree$[ebp], xmm0
$LN21@GetDegree:

; 301  : 	else
; 302  : 		fDegree = fDegree;
; 303  : 	return fDegree;
; 304  : }

  000e0	8b 4d fc	 mov	 ecx, DWORD PTR __$ArrayPad$[ebp]
  000e3	d9 45 e0	 fld	 DWORD PTR _fDegree$[ebp]
  000e6	33 cd		 xor	 ecx, ebp
  000e8	e8 00 00 00 00	 call	 @__security_check_cookie@4
  000ed	8b e5		 mov	 esp, ebp
  000ef	5d		 pop	 ebp
  000f0	c3		 ret	 0
?GetDegree@@YAMABUD3DXVECTOR3@@0@Z ENDP			; GetDegree
_TEXT	ENDS
; Function compile flags: /Ogtp
; File C:\Program Files\Microsoft Visual Studio\2022\Professional\VC\Tools\MSVC\14.44.35207\atlmfc\include\cstringt.h
; File C:\Program Files\Microsoft Visual Studio\2022\Professional\VC\Tools\MSVC\14.44.35207\atlmfc\include\afxstr.h
; File C:\Program Files\Microsoft Visual Studio\2022\Professional\VC\Tools\MSVC\14.44.35207\atlmfc\include\cstringt.h
; File C:\Program Files\Microsoft Visual Studio\2022\Professional\VC\Tools\MSVC\14.44.35207\atlmfc\include\afxstr.h
; File C:\Program Files\Microsoft Visual Studio\2022\Professional\VC\Tools\MSVC\14.44.35207\atlmfc\include\cstringt.h
; File C:\Program Files\Microsoft Visual Studio\2022\Professional\VC\Tools\MSVC\14.44.35207\atlmfc\include\atlcore.h
; File C:\Program Files\Microsoft Visual Studio\2022\Professional\VC\Tools\MSVC\14.44.35207\atlmfc\include\cstringt.h
; File C:\Program Files\Microsoft Visual Studio\2022\Professional\VC\Tools\MSVC\14.44.35207\atlmfc\include\atlsimpstr.h
; File C:\Program Files\Microsoft Visual Studio\2022\Professional\VC\Tools\MSVC\14.44.35207\atlmfc\include\cstringt.h
; File C:\Program Files\Microsoft Visual Studio\2022\Professional\VC\Tools\MSVC\14.44.35207\atlmfc\include\atlsimpstr.h
; File C:\Program Files\Microsoft Visual Studio\2022\Professional\VC\Tools\MSVC\14.44.35207\atlmfc\include\cstringt.h
; File C:\Program Files\Microsoft Visual Studio\2022\Professional\VC\Tools\MSVC\14.44.35207\atlmfc\include\atlsimpstr.h
; File C:\Program Files\Microsoft Visual Studio\2022\Professional\VC\Tools\MSVC\14.44.35207\atlmfc\include\cstringt.h
; File C:\Program Files\Microsoft Visual Studio\2022\Professional\VC\Tools\MSVC\14.44.35207\atlmfc\include\atlsimpstr.h
; File C:\Program Files\Microsoft Visual Studio\2022\Professional\VC\Tools\MSVC\14.44.35207\atlmfc\include\cstringt.h
;	COMDAT ?LoadStringA@?$CStringT@DV?$StrTraitMFC@DV?$ChTraitsCRT@D@ATL@@@@@ATL@@QAEHI@Z
_TEXT	SEGMENT
_this$1$ = -4						; size = 4
_nID$ = 8						; size = 4
_hResource$1$ = 8					; size = 4
?LoadStringA@?$CStringT@DV?$StrTraitMFC@DV?$ChTraitsCRT@D@ATL@@@@@ATL@@QAEHI@Z PROC ; ATL::CStringT<char,StrTraitMFC<char,ATL::ChTraitsCRT<char> > >::LoadStringA, COMDAT
; _this$ = ecx

; 2340 : 	{

  00000	55		 push	 ebp
  00001	8b ec		 mov	 ebp, esp
  00003	51		 push	 ecx
  00004	53		 push	 ebx
  00005	57		 push	 edi
; File C:\Program Files\Microsoft Visual Studio\2022\Professional\VC\Tools\MSVC\14.44.35207\atlmfc\include\afxstr.h

; 51   : 		return( AfxFindStringResourceHandle( nID ) );

  00006	8b 7d 08	 mov	 edi, DWORD PTR _nID$[ebp]
  00009	57		 push	 edi
; File C:\Program Files\Microsoft Visual Studio\2022\Professional\VC\Tools\MSVC\14.44.35207\atlmfc\include\cstringt.h

; 2340 : 	{

  0000a	89 4d fc	 mov	 DWORD PTR _this$1$[ebp], ecx
; File C:\Program Files\Microsoft Visual Studio\2022\Professional\VC\Tools\MSVC\14.44.35207\atlmfc\include\afxstr.h

; 51   : 		return( AfxFindStringResourceHandle( nID ) );

  0000d	e8 00 00 00 00	 call	 ?AfxFindStringResourceHandle@@YGPAUHINSTANCE__@@I@Z ; AfxFindStringResourceHandle
; File C:\Program Files\Microsoft Visual Studio\2022\Professional\VC\Tools\MSVC\14.44.35207\atlmfc\include\cstringt.h

; 2341 : 		HINSTANCE hInstance = StringTraits::FindStringResourceInstance( nID );

  00012	8b d8		 mov	 ebx, eax

; 2342 : 		if( hInstance == NULL )

  00014	85 db		 test	 ebx, ebx
  00016	75 08		 jne	 SHORT $LN2@LoadString

; 2348 : 	}

  00018	5f		 pop	 edi
  00019	5b		 pop	 ebx
  0001a	8b e5		 mov	 esp, ebp
  0001c	5d		 pop	 ebp
  0001d	c2 04 00	 ret	 4
$LN2@LoadString:
; File C:\Program Files\Microsoft Visual Studio\2022\Professional\VC\Tools\MSVC\14.44.35207\atlmfc\include\atlcore.h

; 380  : 	hResource = ::FindResourceW(hInstance, MAKEINTRESOURCEW( (((id>>4)+1) & static_cast<WORD>(~0)) ), (LPWSTR) RT_STRING);

  00020	8b c7		 mov	 eax, edi
  00022	c1 e8 04	 shr	 eax, 4
  00025	56		 push	 esi
  00026	40		 inc	 eax
  00027	6a 06		 push	 6
  00029	0f b7 c0	 movzx	 eax, ax
  0002c	50		 push	 eax
  0002d	53		 push	 ebx
  0002e	ff 15 00 00 00
	00		 call	 DWORD PTR __imp__FindResourceW@12
  00034	89 45 08	 mov	 DWORD PTR _hResource$1$[ebp], eax

; 381  : 	if( hResource == NULL )

  00037	85 c0		 test	 eax, eax
  00039	0f 84 cc 00 00
	00		 je	 $LN51@LoadString

; 338  : 	hGlobal = ::LoadResource( hInstance, hResource );

  0003f	50		 push	 eax
  00040	53		 push	 ebx
  00041	ff 15 00 00 00
	00		 call	 DWORD PTR __imp__LoadResource@8

; 339  : 	if( hGlobal == NULL )

  00047	85 c0		 test	 eax, eax
  00049	75 04		 jne	 SHORT $LN15@LoadString

; 340  : 	{
; 341  : 		return( NULL );

  0004b	33 f6		 xor	 esi, esi
  0004d	eb 43		 jmp	 SHORT $LN18@LoadString
$LN15@LoadString:

; 342  : 	}
; 343  : 
; 344  : 	pImage = (const ATLSTRINGRESOURCEIMAGE*)::LockResource( hGlobal );

  0004f	50		 push	 eax
  00050	ff 15 00 00 00
	00		 call	 DWORD PTR __imp__LockResource@4
  00056	8b f0		 mov	 esi, eax

; 345  : 	if( pImage == NULL )

  00058	85 f6		 test	 esi, esi
  0005a	74 36		 je	 SHORT $LN18@LoadString
$LN16@LoadString:

; 346  : 	{
; 347  : 		return( NULL );
; 348  : 	}
; 349  : 
; 350  : 	nResourceSize = ::SizeofResource( hInstance, hResource );

  0005c	ff 75 08	 push	 DWORD PTR _hResource$1$[ebp]
  0005f	53		 push	 ebx
  00060	ff 15 00 00 00
	00		 call	 DWORD PTR __imp__SizeofResource@8

; 351  : 	pImageEnd = (const ATLSTRINGRESOURCEIMAGE*)(LPBYTE( pImage )+nResourceSize);

  00066	8d 0c 06	 lea	 ecx, DWORD PTR [esi+eax]

; 352  : 	iIndex = id&0x000f;

  00069	83 e7 0f	 and	 edi, 15			; 0000000fH

; 353  : 
; 354  : 	while( (iIndex > 0) && (pImage < pImageEnd) )

  0006c	76 14		 jbe	 SHORT $LN14@LoadString
  0006e	66 90		 npad	 2
$LL13@LoadString:
  00070	3b f1		 cmp	 esi, ecx
  00072	73 12		 jae	 SHORT $LN50@LoadString

; 355  : 	{
; 356  : 		pImage = (const ATLSTRINGRESOURCEIMAGE*)(LPBYTE( pImage )+(sizeof( ATLSTRINGRESOURCEIMAGE )+(pImage->nLength*sizeof( WCHAR ))));

  00074	0f b7 06	 movzx	 eax, WORD PTR [esi]
  00077	8d 34 46	 lea	 esi, DWORD PTR [esi+eax*2]
  0007a	83 c6 02	 add	 esi, 2

; 357  : 		iIndex--;

  0007d	83 ef 01	 sub	 edi, 1
  00080	75 ee		 jne	 SHORT $LL13@LoadString
$LN14@LoadString:

; 358  : 	}
; 359  : 	if( pImage >= pImageEnd )

  00082	3b f1		 cmp	 esi, ecx
  00084	72 04		 jb	 SHORT $LN17@LoadString
$LN50@LoadString:

; 360  : 	{
; 361  : 		return( NULL );

  00086	33 f6		 xor	 esi, esi
  00088	eb 08		 jmp	 SHORT $LN18@LoadString
$LN17@LoadString:

; 362  : 	}
; 363  : 	if( pImage->nLength == 0 )

  0008a	33 c0		 xor	 eax, eax
  0008c	66 39 06	 cmp	 WORD PTR [esi], ax
  0008f	0f 44 f0	 cmove	 esi, eax
$LN18@LoadString:
; File C:\Program Files\Microsoft Visual Studio\2022\Professional\VC\Tools\MSVC\14.44.35207\atlmfc\include\cstringt.h

; 2356 : 		if( pImage == NULL )

  00092	85 f6		 test	 esi, esi
  00094	74 75		 je	 SHORT $LN51@LoadString

; 2359 : 		}
; 2360 : 
; 2361 : 		int nLength = StringTraits::GetBaseTypeLength( pImage->achString, pImage->nLength );

  00096	0f b7 06	 movzx	 eax, WORD PTR [esi]
  00099	8d 4e 02	 lea	 ecx, DWORD PTR [esi+2]

; 350  : 		return ::WideCharToMultiByte( _AtlGetConversionACP(), 0, pszSource, nLength, NULL, 0, NULL, NULL );

  0009c	6a 00		 push	 0
  0009e	6a 00		 push	 0
  000a0	6a 00		 push	 0
  000a2	6a 00		 push	 0
  000a4	50		 push	 eax
  000a5	51		 push	 ecx
  000a6	6a 00		 push	 0
  000a8	6a 03		 push	 3
  000aa	ff 15 00 00 00
	00		 call	 DWORD PTR __imp__WideCharToMultiByte@32

; 2361 : 		int nLength = StringTraits::GetBaseTypeLength( pImage->achString, pImage->nLength );

  000b0	8b f8		 mov	 edi, eax
; File C:\Program Files\Microsoft Visual Studio\2022\Professional\VC\Tools\MSVC\14.44.35207\atlmfc\include\atlsimpstr.h

; 808  : 		if (nLength < 0)

  000b2	85 ff		 test	 edi, edi
  000b4	78 60		 js	 SHORT $LN38@LoadString

; 804  : 		return( reinterpret_cast< CStringData* >( m_pszData )-1 );

  000b6	8b 5d fc	 mov	 ebx, DWORD PTR _this$1$[ebp]

; 812  : 		int nShared = 1-pOldData->nRefs;  // nShared < 0 means true, >= 0 means false

  000b9	ba 01 00 00 00	 mov	 edx, 1

; 804  : 		return( reinterpret_cast< CStringData* >( m_pszData )-1 );

  000be	8b 0b		 mov	 ecx, DWORD PTR [ebx]

; 812  : 		int nShared = 1-pOldData->nRefs;  // nShared < 0 means true, >= 0 means false

  000c0	2b 51 fc	 sub	 edx, DWORD PTR [ecx-4]

; 813  : 		int nTooShort = pOldData->nAllocLength-nLength;  // nTooShort < 0 means true, >= 0 means false

  000c3	8b 49 f8	 mov	 ecx, DWORD PTR [ecx-8]
  000c6	2b cf		 sub	 ecx, edi

; 814  : 		if( (nShared|nTooShort) < 0 )  // If either sign bit is set (i.e. either is less than zero), we need to copy data

  000c8	0b d1		 or	 edx, ecx
  000ca	7d 08		 jge	 SHORT $LN26@LoadString

; 815  : 		{
; 816  : 			PrepareWrite2( nLength );

  000cc	57		 push	 edi
  000cd	8b cb		 mov	 ecx, ebx
  000cf	e8 00 00 00 00	 call	 ?PrepareWrite2@?$CSimpleStringT@D$0A@@ATL@@AAEXH@Z ; ATL::CSimpleStringT<char,0>::PrepareWrite2
$LN26@LoadString:
; File C:\Program Files\Microsoft Visual Studio\2022\Professional\VC\Tools\MSVC\14.44.35207\atlmfc\include\cstringt.h

; 2363 : 		StringTraits::ConvertToBaseType( pszBuffer, nLength, pImage->achString, pImage->nLength );

  000d4	0f b7 06	 movzx	 eax, WORD PTR [esi]

; 372  : 		::WideCharToMultiByte( _AtlGetConversionACP(), 0, pszSrc, nSrcLength, pszDest, nDestLength, NULL, NULL );

  000d7	6a 00		 push	 0
  000d9	6a 00		 push	 0
  000db	57		 push	 edi
  000dc	ff 33		 push	 DWORD PTR [ebx]
  000de	50		 push	 eax
  000df	8d 46 02	 lea	 eax, DWORD PTR [esi+2]
  000e2	50		 push	 eax
  000e3	6a 00		 push	 0
  000e5	6a 03		 push	 3
  000e7	ff 15 00 00 00
	00		 call	 DWORD PTR __imp__WideCharToMultiByte@32
; File C:\Program Files\Microsoft Visual Studio\2022\Professional\VC\Tools\MSVC\14.44.35207\atlmfc\include\atlsimpstr.h

; 875  : 		if( nLength < 0 || nLength > GetData()->nAllocLength)

  000ed	8b 03		 mov	 eax, DWORD PTR [ebx]
  000ef	3b 78 f8	 cmp	 edi, DWORD PTR [eax-8]
  000f2	7f 22		 jg	 SHORT $LN38@LoadString

; 877  : 
; 878  : 		GetData()->nDataLength = nLength;

  000f4	89 78 f4	 mov	 DWORD PTR [eax-12], edi

; 879  : 		m_pszData[nLength] = 0;

  000f7	8b 03		 mov	 eax, DWORD PTR [ebx]
; File C:\Program Files\Microsoft Visual Studio\2022\Professional\VC\Tools\MSVC\14.44.35207\atlmfc\include\cstringt.h

; 2347 : 		return( LoadString( hInstance, nID ) );

  000f9	5e		 pop	 esi
; File C:\Program Files\Microsoft Visual Studio\2022\Professional\VC\Tools\MSVC\14.44.35207\atlmfc\include\atlsimpstr.h

; 879  : 		m_pszData[nLength] = 0;

  000fa	c6 04 07 00	 mov	 BYTE PTR [edi+eax], 0
; File C:\Program Files\Microsoft Visual Studio\2022\Professional\VC\Tools\MSVC\14.44.35207\atlmfc\include\cstringt.h

; 2366 : 		return( TRUE );

  000fe	b8 01 00 00 00	 mov	 eax, 1
  00103	5f		 pop	 edi

; 2348 : 	}

  00104	5b		 pop	 ebx
  00105	8b e5		 mov	 esp, ebp
  00107	5d		 pop	 ebp
  00108	c2 04 00	 ret	 4
$LN51@LoadString:

; 2347 : 		return( LoadString( hInstance, nID ) );

  0010b	5e		 pop	 esi
  0010c	5f		 pop	 edi

; 2358 : 			return( FALSE );

  0010d	33 c0		 xor	 eax, eax

; 2348 : 	}

  0010f	5b		 pop	 ebx
  00110	8b e5		 mov	 esp, ebp
  00112	5d		 pop	 ebp
  00113	c2 04 00	 ret	 4
$LN38@LoadString:
; File C:\Program Files\Microsoft Visual Studio\2022\Professional\VC\Tools\MSVC\14.44.35207\atlmfc\include\atlsimpstr.h

; 876  : 			AtlThrow(E_INVALIDARG);

  00116	68 57 00 07 80	 push	 -2147024809		; 80070057H
  0011b	e8 00 00 00 00	 call	 ?AtlThrowImpl@ATL@@YGXJ@Z ; ATL::AtlThrowImpl
$LN63@LoadString:
  00120	cc		 int	 3
?LoadStringA@?$CStringT@DV?$StrTraitMFC@DV?$ChTraitsCRT@D@ATL@@@@@ATL@@QAEHI@Z ENDP ; ATL::CStringT<char,StrTraitMFC<char,ATL::ChTraitsCRT<char> > >::LoadStringA
_TEXT	ENDS
; Function compile flags: /Ogtp
; File C:\Program Files\Microsoft Visual Studio\2022\Professional\VC\Tools\MSVC\14.44.35207\atlmfc\include\cstringt.h
; File C:\Program Files\Microsoft Visual Studio\2022\Professional\VC\Tools\MSVC\14.44.35207\atlmfc\include\atlsimpstr.h
; File C:\Program Files\Microsoft Visual Studio\2022\Professional\VC\Tools\MSVC\14.44.35207\atlmfc\include\cstringt.h
;	COMDAT ??1?$CStringT@DV?$StrTraitMFC@DV?$ChTraitsCRT@D@ATL@@@@@ATL@@QAE@XZ
_TEXT	SEGMENT
??1?$CStringT@DV?$StrTraitMFC@DV?$ChTraitsCRT@D@ATL@@@@@ATL@@QAE@XZ PROC ; ATL::CStringT<char,StrTraitMFC<char,ATL::ChTraitsCRT<char> > >::~CStringT<char,StrTraitMFC<char,ATL::ChTraitsCRT<char> > >, COMDAT
; _this$ = ecx
; File C:\Program Files\Microsoft Visual Studio\2022\Professional\VC\Tools\MSVC\14.44.35207\atlmfc\include\atlsimpstr.h

; 804  : 		return( reinterpret_cast< CStringData* >( m_pszData )-1 );

  00000	8b 11		 mov	 edx, DWORD PTR [ecx]

; 92   : 		if( _InterlockedDecrement( &nRefs ) <= 0 )

  00002	83 c8 ff	 or	 eax, -1

; 804  : 		return( reinterpret_cast< CStringData* >( m_pszData )-1 );

  00005	83 ea 10	 sub	 edx, 16			; 00000010H

; 92   : 		if( _InterlockedDecrement( &nRefs ) <= 0 )

  00008	f0 0f c1 42 0c	 lock	  xadd	 DWORD PTR [edx+12], eax
  0000d	48		 dec	 eax
  0000e	85 c0		 test	 eax, eax
  00010	7f 08		 jg	 SHORT $LN8@CStringT

; 93   : 		{
; 94   : 			pStringMgr->Free( this );

  00012	8b 0a		 mov	 ecx, DWORD PTR [edx]
  00014	52		 push	 edx
  00015	8b 01		 mov	 eax, DWORD PTR [ecx]
  00017	ff 50 04	 call	 DWORD PTR [eax+4]
$LN8@CStringT:
; File C:\Program Files\Microsoft Visual Studio\2022\Professional\VC\Tools\MSVC\14.44.35207\atlmfc\include\cstringt.h

; 1303 : 	}

  0001a	c3		 ret	 0
??1?$CStringT@DV?$StrTraitMFC@DV?$ChTraitsCRT@D@ATL@@@@@ATL@@QAE@XZ ENDP ; ATL::CStringT<char,StrTraitMFC<char,ATL::ChTraitsCRT<char> > >::~CStringT<char,StrTraitMFC<char,ATL::ChTraitsCRT<char> > >
_TEXT	ENDS
; Function compile flags: /Ogtp
; File C:\Program Files\Microsoft Visual Studio\2022\Professional\VC\Tools\MSVC\14.44.35207\atlmfc\include\atlsimpstr.h
;	COMDAT ?Reallocate@?$CSimpleStringT@D$0A@@ATL@@AAEXH@Z
_TEXT	SEGMENT
_nLength$ = 8						; size = 4
?Reallocate@?$CSimpleStringT@D$0A@@ATL@@AAEXH@Z PROC	; ATL::CSimpleStringT<char,0>::Reallocate, COMDAT
; _this$ = ecx

; 853  : 	{

  00000	55		 push	 ebp
  00001	8b ec		 mov	 ebp, esp
  00003	56		 push	 esi

; 854  : 		CStringData* pOldData = GetData();
; 855  : 		ATLASSERT( pOldData->nAllocLength < nLength );
; 856  : 		IAtlStringMgr* pStringMgr = pOldData->pStringMgr;
; 857  : 		if ( pOldData->nAllocLength >= nLength || nLength <= 0)

  00004	8b 75 08	 mov	 esi, DWORD PTR _nLength$[ebp]
  00007	57		 push	 edi
  00008	8b f9		 mov	 edi, ecx

; 804  : 		return( reinterpret_cast< CStringData* >( m_pszData )-1 );

  0000a	8b 17		 mov	 edx, DWORD PTR [edi]
  0000c	83 ea 10	 sub	 edx, 16			; 00000010H

; 854  : 		CStringData* pOldData = GetData();
; 855  : 		ATLASSERT( pOldData->nAllocLength < nLength );
; 856  : 		IAtlStringMgr* pStringMgr = pOldData->pStringMgr;
; 857  : 		if ( pOldData->nAllocLength >= nLength || nLength <= 0)

  0000f	39 72 08	 cmp	 DWORD PTR [edx+8], esi
  00012	7d 1e		 jge	 SHORT $LN3@Reallocate
  00014	85 f6		 test	 esi, esi
  00016	7e 1a		 jle	 SHORT $LN3@Reallocate

; 860  : 			return;
; 861  : 		}
; 862  : 		CStringData* pNewData = pStringMgr->Reallocate( pOldData, nLength, sizeof( XCHAR ) );

  00018	8b 0a		 mov	 ecx, DWORD PTR [edx]
  0001a	6a 01		 push	 1
  0001c	56		 push	 esi
  0001d	52		 push	 edx
  0001e	8b 01		 mov	 eax, DWORD PTR [ecx]
  00020	ff 50 08	 call	 DWORD PTR [eax+8]

; 863  : 		if( pNewData == NULL )

  00023	85 c0		 test	 eax, eax
  00025	74 0b		 je	 SHORT $LN3@Reallocate

; 864  : 		{
; 865  : 			ThrowMemoryException();
; 866  : 		}
; 867  : 		Attach( pNewData );

  00027	83 c0 10	 add	 eax, 16			; 00000010H
  0002a	89 07		 mov	 DWORD PTR [edi], eax
  0002c	5f		 pop	 edi
  0002d	5e		 pop	 esi

; 868  : 	}

  0002e	5d		 pop	 ebp
  0002f	c2 04 00	 ret	 4
$LN3@Reallocate:

; 858  : 		{
; 859  : 			ThrowMemoryException();

  00032	e8 00 00 00 00	 call	 ?ThrowMemoryException@?$CSimpleStringT@D$0A@@ATL@@KAXXZ ; ATL::CSimpleStringT<char,0>::ThrowMemoryException
$LN12@Reallocate:
  00037	cc		 int	 3
?Reallocate@?$CSimpleStringT@D$0A@@ATL@@AAEXH@Z ENDP	; ATL::CSimpleStringT<char,0>::Reallocate
_TEXT	ENDS
; Function compile flags: /Ogtp
; File C:\Program Files\Microsoft Visual Studio\2022\Professional\VC\Tools\MSVC\14.44.35207\atlmfc\include\atlsimpstr.h
;	COMDAT ?PrepareWrite2@?$CSimpleStringT@D$0A@@ATL@@AAEXH@Z
_TEXT	SEGMENT
_nLength$ = 8						; size = 4
?PrepareWrite2@?$CSimpleStringT@D$0A@@ATL@@AAEXH@Z PROC	; ATL::CSimpleStringT<char,0>::PrepareWrite2, COMDAT
; _this$ = ecx

; 822  : 	{

  00000	55		 push	 ebp
  00001	8b ec		 mov	 ebp, esp
  00003	56		 push	 esi

; 823  : 		CStringData* pOldData = GetData();
; 824  : 		if( pOldData->nDataLength > nLength )

  00004	8b 75 08	 mov	 esi, DWORD PTR _nLength$[ebp]
  00007	57		 push	 edi
  00008	8b f9		 mov	 edi, ecx

; 804  : 		return( reinterpret_cast< CStringData* >( m_pszData )-1 );

  0000a	8b 0f		 mov	 ecx, DWORD PTR [edi]

; 823  : 		CStringData* pOldData = GetData();
; 824  : 		if( pOldData->nDataLength > nLength )

  0000c	39 71 f4	 cmp	 DWORD PTR [ecx-12], esi
  0000f	0f 4f 71 f4	 cmovg	 esi, DWORD PTR [ecx-12]

; 77   : 		return( nRefs > 1 );

  00013	83 79 fc 01	 cmp	 DWORD PTR [ecx-4], 1

; 825  : 		{
; 826  : 			nLength = pOldData->nDataLength;
; 827  : 		}
; 828  : 		if( pOldData->IsShared() )

  00017	7e 0e		 jle	 SHORT $LN3@PrepareWri

; 829  : 		{
; 830  : 			Fork( nLength );

  00019	56		 push	 esi
  0001a	8b cf		 mov	 ecx, edi
  0001c	e8 00 00 00 00	 call	 ?Fork@?$CSimpleStringT@D$0A@@ATL@@AAEXH@Z ; ATL::CSimpleStringT<char,0>::Fork
  00021	5f		 pop	 edi

; 850  : 		}
; 851  : 	}

  00022	5e		 pop	 esi
  00023	5d		 pop	 ebp
  00024	c2 04 00	 ret	 4
$LN3@PrepareWri:

; 831  : 		}
; 832  : 		else if( pOldData->nAllocLength < nLength )

  00027	8b 49 f8	 mov	 ecx, DWORD PTR [ecx-8]
  0002a	3b ce		 cmp	 ecx, esi
  0002c	7d 25		 jge	 SHORT $LN5@PrepareWri

; 833  : 		{
; 834  : 			// Grow exponentially, until we hit 1G, then by 1M thereafter.
; 835  : 			int nNewLength = pOldData->nAllocLength;
; 836  : 			if( nNewLength > 1024 * 1024 * 1024 )

  0002e	81 f9 00 00 00
	40		 cmp	 ecx, 1073741824		; 40000000H
  00034	7e 07		 jle	 SHORT $LN6@PrepareWri

; 837  : 			{
; 838  : 				nNewLength += 1024 * 1024;

  00036	b8 00 00 10 00	 mov	 eax, 1048576		; 00100000H

; 839  : 			}

  0003b	eb 07		 jmp	 SHORT $LN7@PrepareWri
$LN6@PrepareWri:

; 840  : 			else
; 841  : 			{
; 842  : 				// Exponential growth factor is 1.5.
; 843  : 				nNewLength = nNewLength + nNewLength / 2;

  0003d	8b c1		 mov	 eax, ecx
  0003f	99		 cdq
  00040	2b c2		 sub	 eax, edx
  00042	d1 f8		 sar	 eax, 1
$LN7@PrepareWri:

; 844  : 			}
; 845  : 			if( nNewLength < nLength )

  00044	03 c1		 add	 eax, ecx

; 846  : 			{
; 847  : 				nNewLength = nLength;
; 848  : 			}
; 849  : 			Reallocate( nNewLength );

  00046	8b cf		 mov	 ecx, edi
  00048	3b c6		 cmp	 eax, esi
  0004a	0f 4d f0	 cmovge	 esi, eax
  0004d	56		 push	 esi
  0004e	e8 00 00 00 00	 call	 ?Reallocate@?$CSimpleStringT@D$0A@@ATL@@AAEXH@Z ; ATL::CSimpleStringT<char,0>::Reallocate
$LN5@PrepareWri:

; 850  : 		}
; 851  : 	}

  00053	5f		 pop	 edi
  00054	5e		 pop	 esi
  00055	5d		 pop	 ebp
  00056	c2 04 00	 ret	 4
?PrepareWrite2@?$CSimpleStringT@D$0A@@ATL@@AAEXH@Z ENDP	; ATL::CSimpleStringT<char,0>::PrepareWrite2
_TEXT	ENDS
; Function compile flags: /Ogtp
; File C:\Program Files\Microsoft Visual Studio\2022\Professional\VC\Tools\MSVC\14.44.35207\atlmfc\include\atlsimpstr.h
; File C:\Program Files (x86)\Windows Kits\10\Include\10.0.26100.0\ucrt\corecrt_memcpy_s.h
; File C:\Program Files\Microsoft Visual Studio\2022\Professional\VC\Tools\MSVC\14.44.35207\atlmfc\include\atlsimpstr.h
;	COMDAT ?Fork@?$CSimpleStringT@D$0A@@ATL@@AAEXH@Z
_TEXT	SEGMENT
_this$1$ = -12						; size = 4
_nOldLength$1$ = -8					; size = 4
__Source$1$ = -4					; size = 4
_nLength$ = 8						; size = 4
_pNewData$1$ = 8					; size = 4
?Fork@?$CSimpleStringT@D$0A@@ATL@@AAEXH@Z PROC		; ATL::CSimpleStringT<char,0>::Fork, COMDAT
; _this$ = ecx

; 787  : 	{

  00000	55		 push	 ebp
  00001	8b ec		 mov	 ebp, esp
  00003	83 ec 0c	 sub	 esp, 12			; 0000000cH
  00006	8b c1		 mov	 eax, ecx
  00008	89 45 f4	 mov	 DWORD PTR _this$1$[ebp], eax
  0000b	53		 push	 ebx
  0000c	56		 push	 esi

; 804  : 		return( reinterpret_cast< CStringData* >( m_pszData )-1 );

  0000d	8b 00		 mov	 eax, DWORD PTR [eax]

; 790  : 		CStringData* pNewData = pOldData->pStringMgr->Clone()->Allocate( nLength, sizeof( XCHAR ) );

  0000f	8b 48 f0	 mov	 ecx, DWORD PTR [eax-16]

; 804  : 		return( reinterpret_cast< CStringData* >( m_pszData )-1 );

  00012	8d 58 f0	 lea	 ebx, DWORD PTR [eax-16]
  00015	89 45 fc	 mov	 DWORD PTR __Source$1$[ebp], eax

; 787  : 	{

  00018	57		 push	 edi

; 788  : 		CStringData* pOldData = GetData();
; 789  : 		int nOldLength = pOldData->nDataLength;

  00019	8b 7b 04	 mov	 edi, DWORD PTR [ebx+4]

; 790  : 		CStringData* pNewData = pOldData->pStringMgr->Clone()->Allocate( nLength, sizeof( XCHAR ) );

  0001c	8b 01		 mov	 eax, DWORD PTR [ecx]
  0001e	89 7d f8	 mov	 DWORD PTR _nOldLength$1$[ebp], edi
  00021	ff 50 10	 call	 DWORD PTR [eax+16]
  00024	8b 75 08	 mov	 esi, DWORD PTR _nLength$[ebp]
  00027	8b c8		 mov	 ecx, eax
  00029	6a 01		 push	 1
  0002b	56		 push	 esi
  0002c	8b 10		 mov	 edx, DWORD PTR [eax]
  0002e	ff 12		 call	 DWORD PTR [edx]
  00030	89 45 08	 mov	 DWORD PTR _pNewData$1$[ebp], eax

; 791  : 		if( pNewData == NULL )

  00033	85 c0		 test	 eax, eax
  00035	74 6c		 je	 SHORT $LN25@Fork

; 794  : 		}
; 795  : 		int nCharsToCopy = ((nOldLength < nLength) ? nOldLength : nLength)+1;  // Copy '\0'

  00037	3b fe		 cmp	 edi, esi
  00039	0f 4c f7	 cmovl	 esi, edi

; 796  : 		memcpy_s( PXSTR( pNewData->data() ), nCharsToCopy * sizeof( XCHAR ),

  0003c	8d 78 10	 lea	 edi, DWORD PTR [eax+16]
  0003f	83 c6 01	 add	 esi, 1
; File C:\Program Files (x86)\Windows Kits\10\Include\10.0.26100.0\ucrt\corecrt_memcpy_s.h

; 47   :         if (_SourceSize == 0)

  00042	74 33		 je	 SHORT $LN11@Fork

; 48   :         {
; 49   :             return 0;
; 50   :         }
; 51   : 
; 52   :         _CRT_MEMCPY_S_VALIDATE_RETURN_ERRCODE(_Destination != NULL, EINVAL);

  00044	85 ff		 test	 edi, edi
  00046	74 1f		 je	 SHORT $LN23@Fork

; 53   :         if (_Source == NULL || _DestinationSize < _SourceSize)

  00048	8b 45 fc	 mov	 eax, DWORD PTR __Source$1$[ebp]
  0004b	56		 push	 esi
  0004c	85 c0		 test	 eax, eax
  0004e	74 0c		 je	 SHORT $LN10@Fork

; 56   : 
; 57   :             _CRT_MEMCPY_S_VALIDATE_RETURN_ERRCODE(_Source != NULL,                 EINVAL);
; 58   :             _CRT_MEMCPY_S_VALIDATE_RETURN_ERRCODE(_DestinationSize >= _SourceSize, ERANGE);
; 59   : 
; 60   :             // Unreachable, but required to suppress /analyze warnings:
; 61   :             return EINVAL;
; 62   :         }
; 63   :         memcpy(_Destination, _Source, _SourceSize);

  00050	50		 push	 eax
  00051	57		 push	 edi
  00052	e8 00 00 00 00	 call	 _memcpy
  00057	83 c4 0c	 add	 esp, 12			; 0000000cH
  0005a	eb 1b		 jmp	 SHORT $LN11@Fork
$LN10@Fork:

; 54   :         {
; 55   :             memset(_Destination, 0, _DestinationSize);

  0005c	6a 00		 push	 0
  0005e	57		 push	 edi
  0005f	e8 00 00 00 00	 call	 _memset
  00064	83 c4 0c	 add	 esp, 12			; 0000000cH
$LN23@Fork:
; File C:\Program Files\Microsoft Visual Studio\2022\Professional\VC\Tools\MSVC\14.44.35207\atlmfc\include\atlsimpstr.h

; 798  : 		pNewData->nDataLength = nOldLength;

  00067	e8 00 00 00 00	 call	 __errno
  0006c	c7 00 16 00 00
	00		 mov	 DWORD PTR [eax], 22	; 00000016H
  00072	e8 00 00 00 00	 call	 __invalid_parameter_noinfo
$LN11@Fork:
  00077	8b 4d 08	 mov	 ecx, DWORD PTR _pNewData$1$[ebp]
  0007a	8b 45 f8	 mov	 eax, DWORD PTR _nOldLength$1$[ebp]
  0007d	89 41 04	 mov	 DWORD PTR [ecx+4], eax

; 92   : 		if( _InterlockedDecrement( &nRefs ) <= 0 )

  00080	83 c8 ff	 or	 eax, -1
  00083	f0 0f c1 43 0c	 lock	  xadd	 DWORD PTR [ebx+12], eax
  00088	48		 dec	 eax
  00089	85 c0		 test	 eax, eax
  0008b	7f 08		 jg	 SHORT $LN15@Fork

; 93   : 		{
; 94   : 			pStringMgr->Free( this );

  0008d	8b 0b		 mov	 ecx, DWORD PTR [ebx]
  0008f	53		 push	 ebx
  00090	8b 01		 mov	 eax, DWORD PTR [ecx]
  00092	ff 50 04	 call	 DWORD PTR [eax+4]
$LN15@Fork:

; 799  : 		pOldData->Release();
; 800  : 		Attach( pNewData );

  00095	8b 45 f4	 mov	 eax, DWORD PTR _this$1$[ebp]
  00098	89 38		 mov	 DWORD PTR [eax], edi

; 801  : 	}

  0009a	5f		 pop	 edi
  0009b	5e		 pop	 esi
  0009c	5b		 pop	 ebx
  0009d	8b e5		 mov	 esp, ebp
  0009f	5d		 pop	 ebp
  000a0	c2 04 00	 ret	 4
$LN25@Fork:

; 792  : 		{
; 793  : 			ThrowMemoryException();

  000a3	e8 00 00 00 00	 call	 ?ThrowMemoryException@?$CSimpleStringT@D$0A@@ATL@@KAXXZ ; ATL::CSimpleStringT<char,0>::ThrowMemoryException
$LN22@Fork:
  000a8	cc		 int	 3
?Fork@?$CSimpleStringT@D$0A@@ATL@@AAEXH@Z ENDP		; ATL::CSimpleStringT<char,0>::Fork
_TEXT	ENDS
; Function compile flags: /Ogtp
; File C:\Program Files\Microsoft Visual Studio\2022\Professional\VC\Tools\MSVC\14.44.35207\atlmfc\include\atlsimpstr.h
;	COMDAT ?ThrowMemoryException@?$CSimpleStringT@D$0A@@ATL@@KAXXZ
_TEXT	SEGMENT
?ThrowMemoryException@?$CSimpleStringT@D$0A@@ATL@@KAXXZ PROC ; ATL::CSimpleStringT<char,0>::ThrowMemoryException, COMDAT

; 777  : 		AtlThrow( E_OUTOFMEMORY );

  00000	68 0e 00 07 80	 push	 -2147024882		; 8007000eH
  00005	e8 00 00 00 00	 call	 ?AtlThrowImpl@ATL@@YGXJ@Z ; ATL::AtlThrowImpl
$LN3@ThrowMemor:
  0000a	cc		 int	 3
?ThrowMemoryException@?$CSimpleStringT@D$0A@@ATL@@KAXXZ ENDP ; ATL::CSimpleStringT<char,0>::ThrowMemoryException
_TEXT	ENDS
; Function compile flags: /Ogtp
; File C:\Program Files\Microsoft Visual Studio\2022\Professional\VC\Tools\MSVC\14.44.35207\atlmfc\include\atlsimpstr.h
; File C:\Program Files (x86)\Windows Kits\10\Include\10.0.26100.0\ucrt\corecrt_memcpy_s.h
; File C:\Program Files\Microsoft Visual Studio\2022\Professional\VC\Tools\MSVC\14.44.35207\atlmfc\include\atlsimpstr.h
; File C:\Program Files (x86)\Windows Kits\10\Include\10.0.26100.0\ucrt\corecrt_memcpy_s.h
; File C:\Program Files\Microsoft Visual Studio\2022\Professional\VC\Tools\MSVC\14.44.35207\atlmfc\include\atlsimpstr.h
;	COMDAT ?SetString@?$CSimpleStringT@D$0A@@ATL@@QAEXPBDH@Z
_TEXT	SEGMENT
_pszSrc$ = 8						; size = 4
_nOldLength$1$ = 8					; size = 4
_nLength$ = 12						; size = 4
_nOffset$1$ = 12					; size = 4
?SetString@?$CSimpleStringT@D$0A@@ATL@@QAEXPBDH@Z PROC	; ATL::CSimpleStringT<char,0>::SetString, COMDAT
; _this$ = ecx

; 611  : 	{

  00000	55		 push	 ebp
  00001	8b ec		 mov	 ebp, esp
  00003	56		 push	 esi

; 612  : 		if( nLength == 0 )

  00004	8b 75 0c	 mov	 esi, DWORD PTR _nLength$[ebp]
  00007	57		 push	 edi
  00008	8b f9		 mov	 edi, ecx
  0000a	85 f6		 test	 esi, esi
  0000c	75 58		 jne	 SHORT $LN2@SetString

; 804  : 		return( reinterpret_cast< CStringData* >( m_pszData )-1 );

  0000e	8b 07		 mov	 eax, DWORD PTR [edi]

; 443  : 		if( pOldData->nDataLength == 0 )

  00010	83 78 f4 00	 cmp	 DWORD PTR [eax-12], 0

; 804  : 		return( reinterpret_cast< CStringData* >( m_pszData )-1 );

  00014	8d 50 f0	 lea	 edx, DWORD PTR [eax-16]

; 442  : 		IAtlStringMgr* pStringMgr = pOldData->pStringMgr;

  00017	8b 32		 mov	 esi, DWORD PTR [edx]

; 443  : 		if( pOldData->nDataLength == 0 )

  00019	74 1f		 je	 SHORT $LN72@SetString

; 73   : 		return nRefs < 0;

  0001b	83 7a 0c 00	 cmp	 DWORD PTR [edx+12], 0
  0001f	8d 4a 0c	 lea	 ecx, DWORD PTR [edx+12]

; 448  : 		if( pOldData->IsLocked() )

  00022	7d 1c		 jge	 SHORT $LN10@SetString

; 875  : 		if( nLength < 0 || nLength > GetData()->nAllocLength)

  00024	83 78 f8 00	 cmp	 DWORD PTR [eax-8], 0
  00028	0f 8c 0b 01 00
	00		 jl	 $LN71@SetString

; 877  : 
; 878  : 		GetData()->nDataLength = nLength;

  0002e	c7 40 f4 00 00
	00 00		 mov	 DWORD PTR [eax-12], 0

; 879  : 		m_pszData[nLength] = 0;

  00035	8b 07		 mov	 eax, DWORD PTR [edi]
  00037	c6 00 00	 mov	 BYTE PTR [eax], 0
$LN72@SetString:
  0003a	5f		 pop	 edi

; 638  : 			else
; 639  : 			{
; 640  : 				memcpy_s( pszBuffer, GetAllocLength() * sizeof( XCHAR ), pszSrc, nLength * sizeof( XCHAR ));
; 641  : 			}
; 642  : 			ReleaseBufferSetLength( nLength );
; 643  : 		}
; 644  : 	}

  0003b	5e		 pop	 esi
  0003c	5d		 pop	 ebp
  0003d	c2 08 00	 ret	 8
$LN10@SetString:

; 92   : 		if( _InterlockedDecrement( &nRefs ) <= 0 )

  00040	83 c8 ff	 or	 eax, -1
  00043	f0 0f c1 01	 lock	  xadd	 DWORD PTR [ecx], eax
  00047	48		 dec	 eax
  00048	85 c0		 test	 eax, eax
  0004a	7f 08		 jg	 SHORT $LN27@SetString

; 93   : 		{
; 94   : 			pStringMgr->Free( this );

  0004c	8b 0a		 mov	 ecx, DWORD PTR [edx]
  0004e	52		 push	 edx
  0004f	8b 01		 mov	 eax, DWORD PTR [ecx]
  00051	ff 50 04	 call	 DWORD PTR [eax+4]
$LN27@SetString:

; 456  : 			CStringData* pNewData = pStringMgr->GetNilString();

  00054	8b 06		 mov	 eax, DWORD PTR [esi]
  00056	8b ce		 mov	 ecx, esi
  00058	ff 50 0c	 call	 DWORD PTR [eax+12]

; 457  : 			Attach( pNewData );

  0005b	83 c0 10	 add	 eax, 16			; 00000010H
  0005e	89 07		 mov	 DWORD PTR [edi], eax
  00060	5f		 pop	 edi

; 638  : 			else
; 639  : 			{
; 640  : 				memcpy_s( pszBuffer, GetAllocLength() * sizeof( XCHAR ), pszSrc, nLength * sizeof( XCHAR ));
; 641  : 			}
; 642  : 			ReleaseBufferSetLength( nLength );
; 643  : 		}
; 644  : 	}

  00061	5e		 pop	 esi
  00062	5d		 pop	 ebp
  00063	c2 08 00	 ret	 8
$LN2@SetString:
  00066	53		 push	 ebx

; 613  : 		{
; 614  : 			Empty();
; 615  : 		}
; 616  : 		else
; 617  : 		{
; 618  : 			// It is possible that pszSrc points to a location inside of our
; 619  : 			// buffer.  GetBuffer() might change m_pszData if (1) the buffer
; 620  : 			// is shared or (2) the buffer is too small to hold the new
; 621  : 			// string.  We detect this aliasing, and modify pszSrc to point
; 622  : 			// into the newly allocated buffer instead.
; 623  : 
; 624  : 			if(pszSrc == NULL)

  00067	8b 5d 08	 mov	 ebx, DWORD PTR _pszSrc$[ebp]
  0006a	85 db		 test	 ebx, ebx
  0006c	0f 84 c7 00 00
	00		 je	 $LN71@SetString

; 523  : 		return( GetData()->nDataLength );

  00072	8b 07		 mov	 eax, DWORD PTR [edi]

; 625  : 				AtlThrow(E_INVALIDARG);
; 626  : 
; 627  : 			UINT nOldLength = GetLength();
; 628  : 			UINT_PTR nOffset = pszSrc-GetString();

  00074	8b d3		 mov	 edx, ebx
  00076	2b d0		 sub	 edx, eax
  00078	89 55 0c	 mov	 DWORD PTR _nOffset$1$[ebp], edx
  0007b	8b 48 f4	 mov	 ecx, DWORD PTR [eax-12]
  0007e	89 4d 08	 mov	 DWORD PTR _nOldLength$1$[ebp], ecx

; 808  : 		if (nLength < 0)

  00081	85 f6		 test	 esi, esi
  00083	0f 88 b0 00 00
	00		 js	 $LN71@SetString

; 809  : 			AtlThrow(E_INVALIDARG);
; 810  : 
; 811  : 		CStringData* pOldData = GetData();
; 812  : 		int nShared = 1-pOldData->nRefs;  // nShared < 0 means true, >= 0 means false

  00089	b9 01 00 00 00	 mov	 ecx, 1
  0008e	2b 48 fc	 sub	 ecx, DWORD PTR [eax-4]

; 813  : 		int nTooShort = pOldData->nAllocLength-nLength;  // nTooShort < 0 means true, >= 0 means false

  00091	8b 40 f8	 mov	 eax, DWORD PTR [eax-8]
  00094	2b c6		 sub	 eax, esi

; 814  : 		if( (nShared|nTooShort) < 0 )  // If either sign bit is set (i.e. either is less than zero), we need to copy data

  00096	0b c8		 or	 ecx, eax
  00098	7d 0b		 jge	 SHORT $LN38@SetString

; 815  : 		{
; 816  : 			PrepareWrite2( nLength );

  0009a	56		 push	 esi
  0009b	8b cf		 mov	 ecx, edi
  0009d	e8 00 00 00 00	 call	 ?PrepareWrite2@?$CSimpleStringT@D$0A@@ATL@@AAEXH@Z ; ATL::CSimpleStringT<char,0>::PrepareWrite2
  000a2	8b 55 0c	 mov	 edx, DWORD PTR _nOffset$1$[ebp]
$LN38@SetString:

; 629  : 			// If 0 <= nOffset <= nOldLength, then pszSrc points into our
; 630  : 			// buffer
; 631  : 
; 632  : 			PXSTR pszBuffer = GetBuffer( nLength );

  000a5	8b 07		 mov	 eax, DWORD PTR [edi]
  000a7	8b 48 f8	 mov	 ecx, DWORD PTR [eax-8]

; 633  : 			if( nOffset <= nOldLength )

  000aa	3b 55 08	 cmp	 edx, DWORD PTR _nOldLength$1$[ebp]
  000ad	77 35		 ja	 SHORT $LN5@SetString

; 634  : 			{
; 635  : 				CopyCharsOverlapped( pszBuffer, GetAllocLength(),

  000af	03 d0		 add	 edx, eax
; File C:\Program Files (x86)\Windows Kits\10\Include\10.0.26100.0\ucrt\corecrt_memcpy_s.h

; 81   :         _CRT_MEMCPY_S_VALIDATE_RETURN_ERRCODE(_Destination != NULL,            EINVAL);

  000b1	85 c0		 test	 eax, eax
  000b3	75 0d		 jne	 SHORT $LN51@SetString
  000b5	e8 00 00 00 00	 call	 __errno
  000ba	c7 00 16 00 00
	00		 mov	 DWORD PTR [eax], 22	; 00000016H
  000c0	eb 5b		 jmp	 SHORT $LN97@SetString
$LN51@SetString:

; 82   :         _CRT_MEMCPY_S_VALIDATE_RETURN_ERRCODE(_Source != NULL,                 EINVAL);

  000c2	85 d2		 test	 edx, edx
  000c4	75 0d		 jne	 SHORT $LN52@SetString
  000c6	e8 00 00 00 00	 call	 __errno
  000cb	c7 00 16 00 00
	00		 mov	 DWORD PTR [eax], 22	; 00000016H
  000d1	eb 4a		 jmp	 SHORT $LN97@SetString
$LN52@SetString:

; 83   :         _CRT_MEMCPY_S_VALIDATE_RETURN_ERRCODE(_DestinationSize >= _SourceSize, ERANGE);

  000d3	3b ce		 cmp	 ecx, esi
  000d5	72 3b		 jb	 SHORT $LN98@SetString

; 84   : 
; 85   :         memmove(_Destination, _Source, _SourceSize);

  000d7	56		 push	 esi
  000d8	52		 push	 edx
  000d9	50		 push	 eax
  000da	e8 00 00 00 00	 call	 _memmove
  000df	83 c4 0c	 add	 esp, 12			; 0000000cH
; File C:\Program Files\Microsoft Visual Studio\2022\Professional\VC\Tools\MSVC\14.44.35207\atlmfc\include\atlsimpstr.h

; 637  : 			}

  000e2	eb 3e		 jmp	 SHORT $LN65@SetString
$LN5@SetString:
; File C:\Program Files (x86)\Windows Kits\10\Include\10.0.26100.0\ucrt\corecrt_memcpy_s.h

; 52   :         _CRT_MEMCPY_S_VALIDATE_RETURN_ERRCODE(_Destination != NULL, EINVAL);

  000e4	85 c0		 test	 eax, eax
  000e6	75 0d		 jne	 SHORT $LN61@SetString
  000e8	e8 00 00 00 00	 call	 __errno
  000ed	c7 00 16 00 00
	00		 mov	 DWORD PTR [eax], 22	; 00000016H
  000f3	eb 28		 jmp	 SHORT $LN97@SetString
$LN61@SetString:

; 53   :         if (_Source == NULL || _DestinationSize < _SourceSize)

  000f5	3b ce		 cmp	 ecx, esi
  000f7	72 0d		 jb	 SHORT $LN63@SetString

; 56   : 
; 57   :             _CRT_MEMCPY_S_VALIDATE_RETURN_ERRCODE(_Source != NULL,                 EINVAL);
; 58   :             _CRT_MEMCPY_S_VALIDATE_RETURN_ERRCODE(_DestinationSize >= _SourceSize, ERANGE);
; 59   : 
; 60   :             // Unreachable, but required to suppress /analyze warnings:
; 61   :             return EINVAL;
; 62   :         }
; 63   :         memcpy(_Destination, _Source, _SourceSize);

  000f9	56		 push	 esi
  000fa	53		 push	 ebx
  000fb	50		 push	 eax
  000fc	e8 00 00 00 00	 call	 _memcpy
  00101	83 c4 0c	 add	 esp, 12			; 0000000cH
  00104	eb 1c		 jmp	 SHORT $LN65@SetString
$LN63@SetString:

; 54   :         {
; 55   :             memset(_Destination, 0, _DestinationSize);

  00106	51		 push	 ecx
  00107	6a 00		 push	 0
  00109	50		 push	 eax
  0010a	e8 00 00 00 00	 call	 _memset
  0010f	83 c4 0c	 add	 esp, 12			; 0000000cH
$LN98@SetString:
; File C:\Program Files\Microsoft Visual Studio\2022\Professional\VC\Tools\MSVC\14.44.35207\atlmfc\include\atlsimpstr.h

; 875  : 		if( nLength < 0 || nLength > GetData()->nAllocLength)

  00112	e8 00 00 00 00	 call	 __errno
  00117	c7 00 22 00 00
	00		 mov	 DWORD PTR [eax], 34	; 00000022H
$LN97@SetString:
  0011d	e8 00 00 00 00	 call	 __invalid_parameter_noinfo
$LN65@SetString:
  00122	8b 07		 mov	 eax, DWORD PTR [edi]
  00124	5b		 pop	 ebx
  00125	3b 70 f8	 cmp	 esi, DWORD PTR [eax-8]
  00128	7f 0f		 jg	 SHORT $LN71@SetString

; 877  : 
; 878  : 		GetData()->nDataLength = nLength;

  0012a	89 70 f4	 mov	 DWORD PTR [eax-12], esi

; 879  : 		m_pszData[nLength] = 0;

  0012d	8b 07		 mov	 eax, DWORD PTR [edi]
  0012f	5f		 pop	 edi
  00130	c6 04 06 00	 mov	 BYTE PTR [esi+eax], 0

; 638  : 			else
; 639  : 			{
; 640  : 				memcpy_s( pszBuffer, GetAllocLength() * sizeof( XCHAR ), pszSrc, nLength * sizeof( XCHAR ));
; 641  : 			}
; 642  : 			ReleaseBufferSetLength( nLength );
; 643  : 		}
; 644  : 	}

  00134	5e		 pop	 esi
  00135	5d		 pop	 ebp
  00136	c2 08 00	 ret	 8
$LN71@SetString:

; 876  : 			AtlThrow(E_INVALIDARG);

  00139	68 57 00 07 80	 push	 -2147024809		; 80070057H
  0013e	e8 00 00 00 00	 call	 ?AtlThrowImpl@ATL@@YGXJ@Z ; ATL::AtlThrowImpl
$LN96@SetString:
  00143	cc		 int	 3
?SetString@?$CSimpleStringT@D$0A@@ATL@@QAEXPBDH@Z ENDP	; ATL::CSimpleStringT<char,0>::SetString
_TEXT	ENDS
; Function compile flags: /Ogtp
; File C:\Program Files\Microsoft Visual Studio\2022\Professional\VC\Tools\MSVC\14.44.35207\atlmfc\include\atlsimpstr.h
;	COMDAT ??1?$CSimpleStringT@D$0A@@ATL@@QAE@XZ
_TEXT	SEGMENT
??1?$CSimpleStringT@D$0A@@ATL@@QAE@XZ PROC		; ATL::CSimpleStringT<char,0>::~CSimpleStringT<char,0>, COMDAT
; _this$ = ecx

; 804  : 		return( reinterpret_cast< CStringData* >( m_pszData )-1 );

  00000	8b 11		 mov	 edx, DWORD PTR [ecx]

; 92   : 		if( _InterlockedDecrement( &nRefs ) <= 0 )

  00002	83 c8 ff	 or	 eax, -1

; 804  : 		return( reinterpret_cast< CStringData* >( m_pszData )-1 );

  00005	83 ea 10	 sub	 edx, 16			; 00000010H

; 92   : 		if( _InterlockedDecrement( &nRefs ) <= 0 )

  00008	f0 0f c1 42 0c	 lock	  xadd	 DWORD PTR [edx+12], eax
  0000d	48		 dec	 eax
  0000e	85 c0		 test	 eax, eax
  00010	7f 08		 jg	 SHORT $LN6@CSimpleStr

; 93   : 		{
; 94   : 			pStringMgr->Free( this );

  00012	8b 0a		 mov	 ecx, DWORD PTR [edx]
  00014	52		 push	 edx
  00015	8b 01		 mov	 eax, DWORD PTR [ecx]
  00017	ff 50 04	 call	 DWORD PTR [eax+4]
$LN6@CSimpleStr:

; 265  : 		CStringData* pData = GetData();
; 266  : 		pData->Release();
; 267  : 	}

  0001a	c3		 ret	 0
??1?$CSimpleStringT@D$0A@@ATL@@QAE@XZ ENDP		; ATL::CSimpleStringT<char,0>::~CSimpleStringT<char,0>
_TEXT	ENDS
; Function compile flags: /Ogtp
; File C:\Program Files\Microsoft Visual Studio\2022\Professional\VC\Tools\MSVC\14.44.35207\atlmfc\include\atlexcept.h
;	COMDAT ?AtlThrowImpl@ATL@@YGXJ@Z
_TEXT	SEGMENT
_hr$ = 8						; size = 4
?AtlThrowImpl@ATL@@YGXJ@Z PROC				; ATL::AtlThrowImpl, COMDAT

; 69   : {

  00000	55		 push	 ebp
  00001	8b ec		 mov	 ebp, esp

; 70   : 	ATLTRACE(atlTraceException, 0, _T("AtlThrow: hr = 0x%x\n"), hr );
; 71   : #ifdef _AFX
; 72   : 	if( hr == E_OUTOFMEMORY )

  00003	8b 45 08	 mov	 eax, DWORD PTR _hr$[ebp]
  00006	3d 0e 00 07 80	 cmp	 eax, -2147024882	; 8007000eH
  0000b	75 05		 jne	 SHORT $LN2@AtlThrowIm

; 73   : 	{
; 74   : 		AfxThrowMemoryException();

  0000d	e8 00 00 00 00	 call	 ?AfxThrowMemoryException@@YGXXZ ; AfxThrowMemoryException
$LN2@AtlThrowIm:

; 75   : 	}
; 76   : 	else
; 77   : 	{
; 78   : 		AfxThrowOleException( hr );

  00012	50		 push	 eax
  00013	e8 00 00 00 00	 call	 ?AfxThrowOleException@@YGXJ@Z ; AfxThrowOleException
$LN5@AtlThrowIm:
  00018	cc		 int	 3
?AtlThrowImpl@ATL@@YGXJ@Z ENDP				; ATL::AtlThrowImpl
_TEXT	ENDS
; Function compile flags: /Ogtp
; File C:\IAGOS\server\v18\Source\Source\_aiinterface\ActionMoverMsg.cpp
;	COMDAT ?__empty_global_delete@@YAXPAXI@Z
_TEXT	SEGMENT
___formal$ = 8						; size = 4
___formal$ = 12						; size = 4
?__empty_global_delete@@YAXPAXI@Z PROC			; __empty_global_delete, COMDAT

  00000	c2 00 00	 ret	 0
?__empty_global_delete@@YAXPAXI@Z ENDP			; __empty_global_delete
_TEXT	ENDS
; Function compile flags: /Ogtp
; File C:\IAGOS\server\v18\Source\Source\_aiinterface\ActionMoverMsg.cpp
;	COMDAT ?__empty_global_delete@@YAXPAX@Z
_TEXT	SEGMENT
___formal$ = 8						; size = 4
?__empty_global_delete@@YAXPAX@Z PROC			; __empty_global_delete, COMDAT

  00000	c2 00 00	 ret	 0
?__empty_global_delete@@YAXPAX@Z ENDP			; __empty_global_delete
_TEXT	ENDS
END
