; Listing generated by Microsoft (R) Optimizing Compiler Version 19.44.35225.0 

	TITLE	C:\IAGOS\server\v18\Source\Output\WorldServer\Release\ActionMoverState.obj
	.686P
	.XMM
	include listing.inc
	.model	flat

INCLUDELIB LIBCMT
INCLUDELIB OLDNAMES

CONST	SEGMENT
?piecewise_construct@std@@3Upiecewise_construct_t@1@B	ORG $+1 ; std::piecewise_construct
CONST	ENDS
PUBLIC	?__empty_global_delete@@YAXPAX@Z		; __empty_global_delete
PUBLIC	?__empty_global_delete@@YAXPAXI@Z		; __empty_global_delete
PUBLIC	??0D3DXVECTOR3@@QAE@XZ				; D3DXVECTOR3::D3DXVECTOR3
PUBLIC	?_ProcessStateAttack@CActionMover@@QAEXKH@Z	; CActionMover::_ProcessStateAttack
PUBLIC	?ProcessStateAttackSP@CActionMover@@QAEXKH@Z	; CActionMover::ProcessStateAttackSP
PUBLIC	?ProcessStateAttackMagic@CActionMover@@QAEXKH@Z	; CActionMover::ProcessStateAttackMagic
PUBLIC	?ProcessStateAttackRange@CActionMover@@QAEXKH@Z	; CActionMover::ProcessStateAttackRange
PUBLIC	?ProcessStateMeleeSkill@CActionMover@@QAEXKH@Z	; CActionMover::ProcessStateMeleeSkill
PUBLIC	?ProcessStateMagicSkill@CActionMover@@QAEXKH@Z	; CActionMover::ProcessStateMagicSkill
PUBLIC	?ProcessStateMagicCasting@CActionMover@@QAEXKH@Z ; CActionMover::ProcessStateMagicCasting
PUBLIC	?ProcessState1@CActionMover@@QAEXPAVCMover@@KM@Z ; CActionMover::ProcessState1
PUBLIC	??_C@_0BH@GPIKPBBH@ProcessStateMeleeSkill@	; `string'
PUBLIC	??_C@_0BH@NAELOPMF@ProcessStateMagicSkill@	; `string'
PUBLIC	__real@3c8efa35
PUBLIC	__real@3e4ccccd
PUBLIC	__real@3e800000
PUBLIC	__real@3eb33333
PUBLIC	__real@3f266666
PUBLIC	__real@3f400000
PUBLIC	__real@40a00000
PUBLIC	__real@42340000
PUBLIC	__real@447a0000
PUBLIC	__real@c2340000
PUBLIC	__xmm@80000000800000008000000080000000
EXTRN	?AddAngleX@CObj@@QAEXM@Z:PROC			; CObj::AddAngleX
EXTRN	?Delete@CObj@@QAEXXZ:PROC			; CObj::Delete
EXTRN	?AddAngle@CObj@@QAEXM@Z:PROC			; CObj::AddAngle
EXTRN	?GetMover@CProject@@QAEPAVCMover@@K@Z:PROC	; CProject::GetMover
EXTRN	?SetMotionBlending@CModelObject@@QAEXH@Z:PROC	; CModelObject::SetMotionBlending
EXTRN	?RemoveStateFlag@CAction@@QAEXK@Z:PROC		; CAction::RemoveStateFlag
EXTRN	?ResetState@CAction@@QAEXK@Z:PROC		; CAction::ResetState
EXTRN	?SetHonorAdd@CMover@@QAEXHHH@Z:PROC		; CMover::SetHonorAdd
EXTRN	?PostAIMsg@CMover@@QAEXKKKK@Z:PROC		; CMover::PostAIMsg
EXTRN	?GetParam@CMover@@QAEHHH@Z:PROC			; CMover::GetParam
EXTRN	?ResetDestParam@CMover@@QAEXHHH@Z:PROC		; CMover::ResetDestParam
EXTRN	?GetAdjParam@CMover@@QAEHH@Z:PROC		; CMover::GetAdjParam
EXTRN	?OnMeleeSkill@CMover@@QAEHHH@Z:PROC		; CMover::OnMeleeSkill
EXTRN	?OnMagicSkill@CMover@@QAEHHH@Z:PROC		; CMover::OnMagicSkill
EXTRN	?OnAttackRange@CMover@@QAEHXZ:PROC		; CMover::OnAttackRange
EXTRN	?OnAttackMelee@CMover@@QAEHKPAV1@@Z:PROC	; CMover::OnAttackMelee
EXTRN	?OnAttackMeleeContinue@CMover@@QAEHK@Z:PROC	; CMover::OnAttackMeleeContinue
EXTRN	?OnAttackMagic@CMover@@QAEHXZ:PROC		; CMover::OnAttackMagic
EXTRN	?OnAttackSP@CMover@@QAEHXZ:PROC			; CMover::OnAttackSP
EXTRN	?OnEndMeleeAttack@CMover@@QAEXK@Z:PROC		; CMover::OnEndMeleeAttack
EXTRN	?OnActLanding@CMover@@QAEXXZ:PROC		; CMover::OnActLanding
EXTRN	__libm_sse2_cos_precise:PROC
EXTRN	__libm_sse2_sin_precise:PROC
EXTRN	?g_next@@3KA:DWORD				; g_next
EXTRN	?prj@@3VCProject@@A:BYTE			; prj
EXTRN	?g_nProcessCnt@@3HA:DWORD			; g_nProcessCnt
EXTRN	__fltused:DWORD
;	COMDAT __xmm@80000000800000008000000080000000
CONST	SEGMENT
__xmm@80000000800000008000000080000000 DB 00H, 00H, 00H, 080H, 00H, 00H, 00H
	DB	080H, 00H, 00H, 00H, 080H, 00H, 00H, 00H, 080H
CONST	ENDS
;	COMDAT __real@c2340000
CONST	SEGMENT
__real@c2340000 DD 0c2340000r			; -45
CONST	ENDS
;	COMDAT __real@447a0000
CONST	SEGMENT
__real@447a0000 DD 0447a0000r			; 1000
CONST	ENDS
;	COMDAT __real@42340000
CONST	SEGMENT
__real@42340000 DD 042340000r			; 45
CONST	ENDS
;	COMDAT __real@40a00000
CONST	SEGMENT
__real@40a00000 DD 040a00000r			; 5
CONST	ENDS
;	COMDAT __real@3f400000
CONST	SEGMENT
__real@3f400000 DD 03f400000r			; 0.75
CONST	ENDS
;	COMDAT __real@3f266666
CONST	SEGMENT
__real@3f266666 DD 03f266666r			; 0.65
CONST	ENDS
;	COMDAT __real@3eb33333
CONST	SEGMENT
__real@3eb33333 DD 03eb33333r			; 0.35
CONST	ENDS
;	COMDAT __real@3e800000
CONST	SEGMENT
__real@3e800000 DD 03e800000r			; 0.25
CONST	ENDS
;	COMDAT __real@3e4ccccd
CONST	SEGMENT
__real@3e4ccccd DD 03e4ccccdr			; 0.2
CONST	ENDS
;	COMDAT __real@3c8efa35
CONST	SEGMENT
__real@3c8efa35 DD 03c8efa35r			; 0.0174533
CONST	ENDS
;	COMDAT ??_C@_0BH@NAELOPMF@ProcessStateMagicSkill@
CONST	SEGMENT
??_C@_0BH@NAELOPMF@ProcessStateMagicSkill@ DB 'ProcessStateMagicSkill', 00H ; `string'
CONST	ENDS
;	COMDAT ??_C@_0BH@GPIKPBBH@ProcessStateMeleeSkill@
CONST	SEGMENT
??_C@_0BH@GPIKPBBH@ProcessStateMeleeSkill@ DB 'ProcessStateMeleeSkill', 00H ; `string'
CONST	ENDS
; Function compile flags: /Ogtp
; File C:\IAGOS\server\v18\Source\Source\_aiinterface\ActionMoverState.cpp
; File C:\IAGOS\server\v18\Source\Source\_Common\xUtil.h
; File C:\IAGOS\server\v18\Source\Source\_aiinterface\ActionMoverState.cpp
; File C:\IAGOS\server\v18\Source\Source\_Common\xUtil.h
; File C:\IAGOS\server\v18\Source\Source\_aiinterface\ActionMoverState.cpp
; File C:\IAGOS\server\v18\Source\Source\_Common\XUtil3D.h
; File C:\Program Files (x86)\Windows Kits\10\Include\10.0.26100.0\ucrt\corecrt_math.h
; File C:\IAGOS\server\v18\Source\Source\_Common\XUtil3D.h
; File C:\Program Files (x86)\Windows Kits\10\Include\10.0.26100.0\ucrt\corecrt_math.h
; File C:\IAGOS\server\v18\Source\Source\_Common\XUtil3D.h
; File C:\Program Files (x86)\Windows Kits\10\Include\10.0.26100.0\ucrt\corecrt_math.h
; File C:\IAGOS\server\v18\Source\Source\_Common\XUtil3D.h
; File C:\Program Files (x86)\Windows Kits\10\Include\10.0.26100.0\ucrt\corecrt_math.h
; File C:\IAGOS\server\v18\Source\Source\_Common\XUtil3D.h
; File C:\IAGOS\server\v18\Source\Source\_aiinterface\ActionMoverState.cpp
; File C:\Program Files (x86)\Windows Kits\10\Include\10.0.26100.0\ucrt\corecrt_math.h
; File C:\IAGOS\server\v18\Source\Source\_aiinterface\ActionMoverState.cpp
; File C:\Program Files (x86)\Windows Kits\10\Include\10.0.26100.0\ucrt\corecrt_math.h
; File C:\IAGOS\server\v18\Source\Source\_aiinterface\ActionMoverState.cpp
; File C:\IAGOS\server\v18\Source\Source\_Common\XUtil3D.h
; File C:\Program Files (x86)\Windows Kits\10\Include\10.0.26100.0\ucrt\corecrt_math.h
; File C:\IAGOS\server\v18\Source\Source\_Common\XUtil3D.h
; File C:\Program Files (x86)\Windows Kits\10\Include\10.0.26100.0\ucrt\corecrt_math.h
; File C:\IAGOS\server\v18\Source\Source\_Common\XUtil3D.h
; File C:\Program Files (x86)\Windows Kits\10\Include\10.0.26100.0\ucrt\corecrt_math.h
; File C:\IAGOS\server\v18\Source\Source\_Common\XUtil3D.h
; File C:\Program Files (x86)\Windows Kits\10\Include\10.0.26100.0\ucrt\corecrt_math.h
; File C:\IAGOS\server\v18\Source\Source\_Common\XUtil3D.h
; File C:\IAGOS\server\v18\Source\Source\_aiinterface\ActionMoverState.cpp
; File C:\Program Files (x86)\Windows Kits\10\Include\10.0.26100.0\ucrt\corecrt_math.h
; File C:\IAGOS\server\v18\Source\Source\_aiinterface\ActionMoverState.cpp
; File C:\Program Files (x86)\Windows Kits\10\Include\10.0.26100.0\ucrt\corecrt_math.h
; File C:\IAGOS\server\v18\Source\Source\_aiinterface\ActionMoverState.cpp
; File C:\IAGOS\server\v18\Source\Source\_AIInterface\Action.h
; File C:\IAGOS\server\v18\Source\Source\_aiinterface\ActionMoverState.cpp
; File C:\Program Files (x86)\Windows Kits\10\Include\10.0.26100.0\ucrt\corecrt_math.h
; File C:\IAGOS\server\v18\Source\Source\_aiinterface\ActionMoverState.cpp
; File C:\Program Files (x86)\Windows Kits\10\Include\10.0.26100.0\ucrt\corecrt_math.h
; File C:\IAGOS\server\v18\Source\Source\_aiinterface\ActionMoverState.cpp
; File C:\Program Files (x86)\Windows Kits\10\Include\10.0.26100.0\ucrt\corecrt_math.h
; File C:\IAGOS\server\v18\Source\Source\_aiinterface\ActionMoverState.cpp
; File C:\Program Files (x86)\Windows Kits\10\Include\10.0.26100.0\ucrt\corecrt_math.h
; File C:\IAGOS\server\v18\Source\Source\_aiinterface\ActionMoverState.cpp
; File C:\IAGOS\server\v18\Source\Source\_AIInterface\Action.h
; File C:\IAGOS\server\v18\Source\Source\_aiinterface\ActionMoverState.cpp
; File C:\IAGOS\server\v18\Source\Source\_AIInterface\Action.h
; File C:\IAGOS\server\v18\Source\Source\_aiinterface\ActionMoverState.cpp
; File C:\IAGOS\server\v18\Source\Source\_AIInterface\Action.h
; File C:\IAGOS\server\v18\Source\Source\_aiinterface\ActionMoverState.cpp
; File C:\IAGOS\server\v18\Source\Source\_AIInterface\Action.h
; File C:\IAGOS\server\v18\Source\Source\_aiinterface\ActionMoverState.cpp
; File C:\IAGOS\server\v18\Source\Source\_AIInterface\Action.h
; File C:\IAGOS\server\v18\Source\Source\_aiinterface\ActionMoverState.cpp
; File C:\IAGOS\server\v18\Source\Source\_AIInterface\Action.h
; File C:\IAGOS\server\v18\Source\Source\_aiinterface\ActionMoverState.cpp
; File C:\IAGOS\server\v18\Source\Source\_AIInterface\Action.h
; File C:\IAGOS\server\v18\Source\Source\_aiinterface\ActionMoverState.cpp
; File C:\IAGOS\server\v18\Source\Source\_AIInterface\Action.h
; File C:\IAGOS\server\v18\Source\Source\_aiinterface\ActionMoverState.cpp
; File C:\IAGOS\server\v18\Source\Source\_AIInterface\Action.h
; File C:\IAGOS\server\v18\Source\Source\_aiinterface\ActionMoverState.cpp
; File C:\IAGOS\server\v18\Source\Source\_AIInterface\Action.h
; File C:\IAGOS\server\v18\Source\Source\_aiinterface\ActionMoverState.cpp
; File C:\IAGOS\server\v18\Source\Source\_AIInterface\Action.h
; File C:\IAGOS\server\v18\Source\Source\_aiinterface\ActionMoverState.cpp
; File C:\IAGOS\server\v18\Source\Source\_AIInterface\Action.h
; File C:\IAGOS\server\v18\Source\Source\_aiinterface\ActionMoverState.cpp
;	COMDAT ?ProcessState1@CActionMover@@QAEXPAVCMover@@KM@Z
_TEXT	SEGMENT
tv1987 = -16						; size = 8
tv1988 = -16						; size = 8
tv1986 = -8						; size = 8
tv1989 = -8						; size = 8
_pModel$1$ = -4						; size = 4
_pMover$ = 8						; size = 4
_fTheta$1$ = 8						; size = 4
_fDist$1$ = 8						; size = 4
_fDist$1$ = 8						; size = 4
_dwState$ = 12						; size = 4
_fSpeed$ = 16						; size = 4
tv1993 = 16						; size = 4
tv2018 = 16						; size = 4
_fSpeed$1$ = 16						; size = 4
?ProcessState1@CActionMover@@QAEXPAVCMover@@KM@Z PROC	; CActionMover::ProcessState1, COMDAT
; _this$ = ecx

; 33   : {

  00000	55		 push	 ebp
  00001	8b ec		 mov	 ebp, esp
  00003	83 ec 10	 sub	 esp, 16			; 00000010H

; 34   : 	int nParam = 0;
; 35   : 	FLOAT fTheta = D3DXToRadian( pMover->GetAngle() );
; 36   : 	CModelObject* pModel = (CModelObject*)pMover->m_pModel;
; 37   : 
; 38   : 	switch( dwState )

  00006	8b 45 0c	 mov	 eax, DWORD PTR _dwState$[ebp]
  00009	56		 push	 esi
  0000a	8b f1		 mov	 esi, ecx
  0000c	57		 push	 edi
  0000d	8b 7d 08	 mov	 edi, DWORD PTR _pMover$[ebp]
  00010	f3 0f 10 47 18	 movss	 xmm0, DWORD PTR [edi+24]
  00015	f3 0f 59 05 00
	00 00 00	 mulss	 xmm0, DWORD PTR __real@3c8efa35
  0001d	8b 8f 78 01 00
	00		 mov	 ecx, DWORD PTR [edi+376]
  00023	89 4d fc	 mov	 DWORD PTR _pModel$1$[ebp], ecx
  00026	f3 0f 11 45 08	 movss	 DWORD PTR _fTheta$1$[ebp], xmm0
  0002b	3d 00 01 00 00	 cmp	 eax, 256		; 00000100H
  00030	0f 87 7d 04 00
	00		 ja	 $LN118@ProcessSta
  00036	0f 84 53 04 00
	00		 je	 $LN55@ProcessSta
  0003c	48		 dec	 eax
  0003d	83 f8 07	 cmp	 eax, 7
  00040	0f 87 ba 0a 00
	00		 ja	 $LN54@ProcessSta
  00046	ff 24 85 00 00
	00 00		 jmp	 DWORD PTR $LN203@ProcessSta[eax*4]
$LN4@ProcessSta:

; 39   : 	{
; 40   : 	// БҰАЪё® ҙлұв
; 41   : 	case OBJSTA_STAND:
; 42   : 		if( GetState() == OBJSTA_STAND )		// ҝАБч јӯАЦҙВ »уЕВҝЎјӯёё јӯАЦҙВ өҝАЫА» јцЗа

  0004d	83 7e 04 01	 cmp	 DWORD PTR [esi+4], 1
  00051	0f 85 bb 00 00
	00		 jne	 $LN15@ProcessSta

; 43   : 		{
; 44   : 			if( GetStateFlag() & OBJSTAF_ETC )

  00057	8b 46 08	 mov	 eax, DWORD PTR [esi+8]
  0005a	83 e0 20	 and	 eax, 32			; 00000020H

; 45   : 			{
; 46   : #ifdef __CLIENT
; 47   : 				switch( pModel->m_nLoop )
; 48   : 				{
; 49   : 				case ANILOOP_1PLAY:
; 50   : 					if( pModel->IsEndFrame() )
; 51   : 						RemoveStateFlag( OBJSTAF_ETC );
; 52   : 					break;
; 53   : 				case ANILOOP_CONT:
; 54   : 				case ANILOOP_LOOP:
; 55   : 					if( pMover->IsActiveMover() && g_WndMng.m_pWndWorld->m_bLButtonDown )		// ё¶ҝмҪә Е¬ёҜЗПёй З®ёІ.
; 56   : 					{
; 57   : 						if( pModel->IsEndFrame() )
; 58   : 							RemoveStateFlag( OBJSTAF_ETC );
; 59   : 					}
; 60   : 					break;
; 61   : 				}
; 62   : #else // client
; 63   : 				if( pModel->IsEndFrame() )

  0005d	83 b9 9c 00 00
	00 00		 cmp	 DWORD PTR [ecx+156], 0
  00064	0f 84 a8 00 00
	00		 je	 $LN15@ProcessSta

; 43   : 		{
; 44   : 			if( GetStateFlag() & OBJSTAF_ETC )

  0006a	85 c0		 test	 eax, eax
  0006c	74 0e		 je	 SHORT $LN6@ProcessSta

; 64   : 					RemoveStateFlag( OBJSTAF_ETC );

  0006e	6a 20		 push	 32			; 00000020H
  00070	8b ce		 mov	 ecx, esi
  00072	e8 00 00 00 00	 call	 ?RemoveStateFlag@CAction@@QAEXK@Z ; CAction::RemoveStateFlag

; 65   : #endif // not client
; 66   : 			} 

  00077	e9 96 00 00 00	 jmp	 $LN15@ProcessSta
$LN6@ProcessSta:

; 67   : 			else
; 68   : 			{
; 69   : 				if( pModel->IsEndFrame() )
; 70   : 				{
; 71   : 					if( pMover->IsStateMode( STATE_BASEMOTION_MODE ) )

  0007c	f6 87 48 02 00
	00 04		 test	 BYTE PTR [edi+584], 4
  00083	6a 00		 push	 0
  00085	74 0d		 je	 SHORT $LN10@ProcessSta

; 72   : 					{
; 73   : 						pMover->SetMotion( MTI_STAND );		// ЖтИӯёрөе јӯАЦұв

  00087	8b 07		 mov	 eax, DWORD PTR [edi]
  00089	8b cf		 mov	 ecx, edi
  0008b	6a 04		 push	 4
  0008d	6a 00		 push	 0
  0008f	ff 50 04	 call	 DWORD PTR [eax+4]

; 74   : 					} else

  00092	eb 7e		 jmp	 SHORT $LN15@ProcessSta
$LN10@ProcessSta:
; File C:\IAGOS\server\v18\Source\Source\_Common\xUtil.h

; 16   : 	g_next = g_next * 1103515245 + 12345;// + nRandomSeed[ i++ ];

  00094	69 0d 00 00 00
	00 6d 4e c6 41	 imul	 ecx, DWORD PTR ?g_next@@3KA, 1103515245 ; g_next

; 22   : 	return  xRand() % num;

  0009e	b8 59 17 b7 d1	 mov	 eax, -776530087		; d1b71759H

; 16   : 	g_next = g_next * 1103515245 + 12345;// + nRandomSeed[ i++ ];

  000a3	81 c1 39 30 00
	00		 add	 ecx, 12345		; 00003039H

; 22   : 	return  xRand() % num;

  000a9	f7 e1		 mul	 ecx

; 16   : 	g_next = g_next * 1103515245 + 12345;// + nRandomSeed[ i++ ];

  000ab	89 0d 00 00 00
	00		 mov	 DWORD PTR ?g_next@@3KA, ecx ; g_next

; 22   : 	return  xRand() % num;

  000b1	c1 ea 0c	 shr	 edx, 12			; 0000000cH
  000b4	69 c2 88 13 00
	00		 imul	 eax, edx, 5000
  000ba	2b c8		 sub	 ecx, eax
; File C:\IAGOS\server\v18\Source\Source\_aiinterface\ActionMoverState.cpp

; 76   : 						if( xRandom( 5000 ) < 2 )

  000bc	83 f9 02	 cmp	 ecx, 2
  000bf	73 0d		 jae	 SHORT $LN12@ProcessSta

; 77   : 							pMover->SetMotion( MTI_IDLE2, ANILOOP_1PLAY ); // idle2 ҫЧјЗ 

  000c1	8b 07		 mov	 eax, DWORD PTR [edi]
  000c3	8b cf		 mov	 ecx, edi
  000c5	6a 01		 push	 1
  000c7	6a 02		 push	 2
  000c9	ff 50 04	 call	 DWORD PTR [eax+4]
  000cc	eb 44		 jmp	 SHORT $LN15@ProcessSta
$LN12@ProcessSta:
; File C:\IAGOS\server\v18\Source\Source\_Common\xUtil.h

; 16   : 	g_next = g_next * 1103515245 + 12345;// + nRandomSeed[ i++ ];

  000ce	69 0d 00 00 00
	00 6d 4e c6 41	 imul	 ecx, DWORD PTR ?g_next@@3KA, 1103515245 ; g_next
  000d8	81 c1 39 30 00
	00		 add	 ecx, 12345		; 00003039H
  000de	89 0d 00 00 00
	00		 mov	 DWORD PTR ?g_next@@3KA, ecx ; g_next

; 22   : 	return  xRand() % num;

  000e4	8b 07		 mov	 eax, DWORD PTR [edi]
  000e6	8b 40 04	 mov	 eax, DWORD PTR [eax+4]
  000e9	89 45 10	 mov	 DWORD PTR tv2018[ebp], eax
  000ec	b8 d3 4d 62 10	 mov	 eax, 274877907		; 10624dd3H
  000f1	f7 e1		 mul	 ecx
  000f3	c1 ea 07	 shr	 edx, 7
  000f6	69 c2 d0 07 00
	00		 imul	 eax, edx, 2000
  000fc	2b c8		 sub	 ecx, eax
; File C:\IAGOS\server\v18\Source\Source\_aiinterface\ActionMoverState.cpp

; 79   : 						if( xRandom( 2000 ) < 2 )

  000fe	83 f9 02	 cmp	 ecx, 2
  00101	8b cf		 mov	 ecx, edi
  00103	73 06		 jae	 SHORT $LN14@ProcessSta

; 80   : 							pMover->SetMotion( MTI_IDLE1, ANILOOP_1PLAY ); // idle2 ҫЧјЗ 

  00105	6a 01		 push	 1
  00107	6a 01		 push	 1
  00109	eb 04		 jmp	 SHORT $LN299@ProcessSta
$LN14@ProcessSta:

; 81   : 						else
; 82   : 							pMover->SetMotion( MTI_STAND );		// ЖтИӯёрөе јӯАЦұв

  0010b	6a 04		 push	 4
  0010d	6a 00		 push	 0
$LN299@ProcessSta:

; 83   : 					}
; 84   : 				}
; 85   : 			}
; 86   : 		}
; 87   : 		if( m_bGround && m_vDelta.y <= 0 )		// ¶ҘҝЎ јӯАЦА»¶§ STAND°Ў өйҫоҝАёй ёШГг, »уҪВБЯАП¶© Ground»уЕВ°Ў ҫЖҙФ.

  0010f	ff 55 10	 call	 DWORD PTR tv2018[ebp]
$LN15@ProcessSta:
  00112	83 7e 44 00	 cmp	 DWORD PTR [esi+68], 0
  00116	0f 84 e4 09 00
	00		 je	 $LN54@ProcessSta
  0011c	0f 57 c0	 xorps	 xmm0, xmm0
  0011f	0f 2f 46 54	 comiss	 xmm0, DWORD PTR [esi+84]
  00123	0f 82 d7 09 00
	00		 jb	 $LN54@ProcessSta

; 88   : 			m_vDelta.x = m_vDelta.z = 0;

  00129	5f		 pop	 edi
  0012a	c7 46 58 00 00
	00 00		 mov	 DWORD PTR [esi+88], 0
  00131	c7 46 50 00 00
	00 00		 mov	 DWORD PTR [esi+80], 0

; 596  : }

  00138	5e		 pop	 esi
  00139	8b e5		 mov	 esp, ebp
  0013b	5d		 pop	 ebp
  0013c	c2 0c 00	 ret	 12			; 0000000cH
$LN17@ProcessSta:

; 89   : 		break;
; 90   : #ifdef __Y_INTERFACE_VER3		
; 91   : 		// БВГшАьБш
; 92   : 	case OBJSTA_LMOVE:
; 93   : 		{
; 94   : 			if( pMover->m_dwFlag & MVRF_NOMOVE )	
; 95   : 				break;		// АМөҝұЭБц »уЕВёй °Б ё®ЕП.
; 96   : #if __VER >= 10 // __LEGEND	//	10Вч АьҪВҪГҪәЕЫ	Neuz, World, Trans
; 97   : 			if( pMover->GetAdjParam( DST_CHRSTATE ) & CHS_LOOT)			break;
; 98   : #endif	//__LEGEND	//	10Вч АьҪВҪГҪәЕЫ	Neuz, World, Trans
; 99   : 
; 100  : 			
; 101  : 			FLOAT fT = pMover->GetAngle();
; 102  : 
; 103  : 			fT += 90.0f;
; 104  : 			if( fT > 360.0f )
; 105  : 				fT -= 360.0f;
; 106  : 			
; 107  : 			fT = D3DXToRadian(fT);
; 108  : 
; 109  : 			if( IsStateFlag( OBJSTAF_WALK ) )		// °ИҙВёрөе
; 110  : 			{				
; 111  : 				m_vDelta.x	= sinf( fT ) * (fSpeed/4.0f);
; 112  : 				m_vDelta.z	= -cos( fT ) * (fSpeed/4.0f);				
; 113  : 
; 114  : 				if( GetState() != OBJSTA_LMOVE )		break;		// АьБшБЯАП¶§ёё өҝАЫ іӘҝИ
; 115  : 				if( IsStateFlag( OBJSTAF_COMBAT ) )	// АьЕхёрөе
; 116  : 					pMover->SetMotion( MTI_WALK );		// АьЕхёрөе·О °Иұв
; 117  : 				else
; 118  : 					pMover->SetMotion( MTI_WALK );		// °Б °Иұв
; 119  : 			} else
; 120  : 			{
; 121  : 				if( pMover->m_dwTypeFlag & OBJTYPE_FLYING )
; 122  : 				{
; 123  : 					FLOAT fAngXZ = pMover->GetAngle();
; 124  : 					FLOAT fAngH  = pMover->GetAngleX();
; 125  : 					AngleToVector( &m_vDelta, fAngXZ, -fAngH, fSpeed );
; 126  : 				} else
; 127  : 				{
; 128  : 					m_vDelta.x = sinf(fT) * fSpeed;
; 129  : 					m_vDelta.z = -cosf(fT) * fSpeed;
; 130  : 				}
; 131  : 				if( GetState() != OBJSTA_LMOVE )		break;		// АьБшБЯАП¶§ёё өҝАЫ іӘҝИ
; 132  : 				pMover->SetMotion( MTI_RUN );
; 133  : 			}
; 134  : #ifdef __CLIENT		
; 135  : 			if( pMover->IsNPC() )
; 136  : 				if( pModel->IsAttrHit() )
; 137  : 					GetWorld()->m_pCamera->SetQuake( 15 );
; 138  : #endif // CLIENT
; 139  : 		}
; 140  : 		break;
; 141  : 		// ҝмГшАьБш
; 142  : 	case OBJSTA_RMOVE:
; 143  : 		{
; 144  : 			if( pMover->m_dwFlag & MVRF_NOMOVE )	
; 145  : 				break;		// АМөҝұЭБц »уЕВёй °Б ё®ЕП.
; 146  : #if __VER >= 10 // __LEGEND	//	10Вч АьҪВҪГҪәЕЫ	Neuz, World, Trans
; 147  : 			if( pMover->GetAdjParam( DST_CHRSTATE ) & CHS_LOOT)			break;
; 148  : #endif	//__LEGEND	//	10Вч АьҪВҪГҪәЕЫ	Neuz, World, Trans
; 149  : 
; 150  : 
; 151  : 			FLOAT fT = pMover->GetAngle();
; 152  : 
; 153  : 			fT -= 90.0f;
; 154  : 			if( fT < 0 )
; 155  : 				fT += 360.0f;
; 156  : 			
; 157  : 			fT = D3DXToRadian(fT);			
; 158  : 			
; 159  : 			if( IsStateFlag( OBJSTAF_WALK ) )		// °ИҙВёрөе
; 160  : 			{
; 161  : 				m_vDelta.x = sinf(fT) * (fSpeed/4.0f);		// °ИҙВҙЩ....
; 162  : 				m_vDelta.z = -cosf(fT) * (fSpeed/4.0f);
; 163  : 				
; 164  : 				if( GetState() != OBJSTA_RMOVE )		break;		// АьБшБЯАП¶§ёё өҝАЫ іӘҝИ
; 165  : 				if( IsStateFlag( OBJSTAF_COMBAT ) )	// АьЕхёрөе
; 166  : 					pMover->SetMotion( MTI_WALK );		// АьЕхёрөе·О °Иұв
; 167  : 				else
; 168  : 					pMover->SetMotion( MTI_WALK );		// °Б °Иұв
; 169  : 			} else
; 170  : 			{
; 171  : 				if( pMover->m_dwTypeFlag & OBJTYPE_FLYING )
; 172  : 				{
; 173  : 					FLOAT fAngXZ = pMover->GetAngle();
; 174  : 					FLOAT fAngH  = pMover->GetAngleX();
; 175  : 					AngleToVector( &m_vDelta, fAngXZ, -fAngH, fSpeed );
; 176  : 				} else
; 177  : 				{
; 178  : 					m_vDelta.x = sinf(fT) * fSpeed;
; 179  : 					m_vDelta.z = -cosf(fT) * fSpeed;
; 180  : 				}
; 181  : 				if( GetState() != OBJSTA_RMOVE )		break;		// АьБшБЯАП¶§ёё өҝАЫ іӘҝИ
; 182  : 				pMover->SetMotion( MTI_RUN );
; 183  : 			}
; 184  : #ifdef __CLIENT		
; 185  : 			if( pMover->IsNPC() )
; 186  : 				if( pModel->IsAttrHit() )
; 187  : 					GetWorld()->m_pCamera->SetQuake( 15 );
; 188  : #endif // CLIENT
; 189  : 		}
; 190  : 		break;
; 191  : #endif //__Y_INTERFACE_VER3
; 192  : 
; 193  : 	// АьБш
; 194  : 	case OBJSTA_FMOVE:
; 195  : 		{
; 196  : 			if( pMover->m_dwFlag & MVRF_NOMOVE )	

  0013f	f7 87 44 02 00
	00 00 01 00 00	 test	 DWORD PTR [edi+580], 256 ; 00000100H
  00149	0f 85 b1 09 00
	00		 jne	 $LN54@ProcessSta

; 197  : 				break;		// АМөҝұЭБц »уЕВёй °Б ё®ЕП.
; 198  : #if __VER >= 10 // __LEGEND	//	10Вч АьҪВҪГҪәЕЫ	Neuz, World, Trans
; 199  : 			if( pMover->GetAdjParam( DST_CHRSTATE ) & CHS_LOOT)			break;

  0014f	6a 40		 push	 64			; 00000040H
  00151	8b cf		 mov	 ecx, edi
  00153	e8 00 00 00 00	 call	 ?GetAdjParam@CMover@@QAEHH@Z ; CMover::GetAdjParam
  00158	a9 00 00 08 00	 test	 eax, 524288		; 00080000H
  0015d	0f 85 9d 09 00
	00		 jne	 $LN54@ProcessSta

; 200  : #endif	//__LEGEND	//	10Вч АьҪВҪГҪәЕЫ	Neuz, World, Trans
; 201  : 
; 202  : 			
; 203  : 		if( IsStateFlag( OBJSTAF_WALK ) )		// °ИҙВёрөе

  00163	8b 87 3c 02 00
	00		 mov	 eax, DWORD PTR [edi+572]
  00169	25 00 00 01 00	 and	 eax, 65536		; 00010000H
  0016e	f6 46 08 02	 test	 BYTE PTR [esi+8], 2
  00172	0f 84 20 01 00
	00		 je	 $LN20@ProcessSta

; 204  : 		{
; 205  : 			if( pMover->m_dwTypeFlag & OBJTYPE_FLYING )

  00178	f3 0f 10 45 10	 movss	 xmm0, DWORD PTR _fSpeed$[ebp]
  0017d	f3 0f 59 05 00
	00 00 00	 mulss	 xmm0, DWORD PTR __real@3e800000
  00185	f3 0f 11 45 10	 movss	 DWORD PTR _fSpeed$1$[ebp], xmm0
  0018a	85 c0		 test	 eax, eax
  0018c	0f 84 a5 00 00
	00		 je	 $LN22@ProcessSta

; 206  : 			{
; 207  : 				FLOAT fAngXZ = pMover->GetAngle();
; 208  : 				FLOAT fAngH  = pMover->GetAngleX();
; 209  : 				AngleToVector( &m_vDelta, fAngXZ, -fAngH, fSpeed/4.0f );

  00192	f3 0f 10 47 1c	 movss	 xmm0, DWORD PTR [edi+28]
  00197	0f 57 05 00 00
	00 00		 xorps	 xmm0, DWORD PTR __xmm@80000000800000008000000080000000
; File C:\IAGOS\server\v18\Source\Source\_Common\XUtil3D.h

; 30   : 	fAngH  = D3DXToRadian(fAngH);

  0019e	f3 0f 59 05 00
	00 00 00	 mulss	 xmm0, DWORD PTR __real@3c8efa35

; 31   : 	fDist = cosf(-fAngH) * fSpeed;

  001a6	0f 57 05 00 00
	00 00		 xorps	 xmm0, DWORD PTR __xmm@80000000800000008000000080000000
; File C:\Program Files (x86)\Windows Kits\10\Include\10.0.26100.0\ucrt\corecrt_math.h

; 683  :             return (float)cos(_X);

  001ad	f3 0f 5a c0	 cvtss2sd xmm0, xmm0
  001b1	f2 0f 11 45 f0	 movsd	 QWORD PTR tv1987[ebp], xmm0
  001b6	e8 00 00 00 00	 call	 __libm_sse2_cos_precise
  001bb	f2 0f 5a c0	 cvtsd2ss xmm0, xmm0
; File C:\IAGOS\server\v18\Source\Source\_Common\XUtil3D.h

; 31   : 	fDist = cosf(-fAngH) * fSpeed;

  001bf	f3 0f 59 45 10	 mulss	 xmm0, DWORD PTR _fSpeed$1$[ebp]
  001c4	f3 0f 11 45 08	 movss	 DWORD PTR _fDist$1$[ebp], xmm0
  001c9	f3 0f 10 47 18	 movss	 xmm0, DWORD PTR [edi+24]
  001ce	f3 0f 59 05 00
	00 00 00	 mulss	 xmm0, DWORD PTR __real@3c8efa35
; File C:\Program Files (x86)\Windows Kits\10\Include\10.0.26100.0\ucrt\corecrt_math.h

; 789  :             return (float)sin(_X);

  001d6	0f 5a c0	 cvtps2pd xmm0, xmm0
  001d9	f2 0f 11 45 f8	 movsd	 QWORD PTR tv1989[ebp], xmm0
  001de	e8 00 00 00 00	 call	 __libm_sse2_sin_precise
  001e3	0f 57 c9	 xorps	 xmm1, xmm1
  001e6	f2 0f 5a c8	 cvtsd2ss xmm1, xmm0

; 683  :             return (float)cos(_X);

  001ea	f2 0f 10 45 f8	 movsd	 xmm0, QWORD PTR tv1989[ebp]
; File C:\IAGOS\server\v18\Source\Source\_Common\XUtil3D.h

; 32   : 	vDelta->x = sinf(fAngXZ) * fDist;

  001ef	f3 0f 59 4d 08	 mulss	 xmm1, DWORD PTR _fDist$1$[ebp]
  001f4	f3 0f 11 4e 50	 movss	 DWORD PTR [esi+80], xmm1
; File C:\Program Files (x86)\Windows Kits\10\Include\10.0.26100.0\ucrt\corecrt_math.h

; 683  :             return (float)cos(_X);

  001f9	e8 00 00 00 00	 call	 __libm_sse2_cos_precise
  001fe	0f 57 c9	 xorps	 xmm1, xmm1
  00201	f2 0f 5a c8	 cvtsd2ss xmm1, xmm0

; 789  :             return (float)sin(_X);

  00205	f2 0f 10 45 f0	 movsd	 xmm0, QWORD PTR tv1987[ebp]
; File C:\IAGOS\server\v18\Source\Source\_Common\XUtil3D.h

; 33   : 	vDelta->z = -cosf(fAngXZ) * fDist;

  0020a	0f 57 0d 00 00
	00 00		 xorps	 xmm1, DWORD PTR __xmm@80000000800000008000000080000000
  00211	f3 0f 59 4d 08	 mulss	 xmm1, DWORD PTR _fDist$1$[ebp]
  00216	f3 0f 11 4e 58	 movss	 DWORD PTR [esi+88], xmm1
; File C:\Program Files (x86)\Windows Kits\10\Include\10.0.26100.0\ucrt\corecrt_math.h

; 789  :             return (float)sin(_X);

  0021b	e8 00 00 00 00	 call	 __libm_sse2_sin_precise
  00220	f2 0f 5a c0	 cvtsd2ss xmm0, xmm0
; File C:\IAGOS\server\v18\Source\Source\_Common\XUtil3D.h

; 34   : 	vDelta->y = -sinf(-fAngH) * fSpeed;

  00224	0f 57 05 00 00
	00 00		 xorps	 xmm0, DWORD PTR __xmm@80000000800000008000000080000000
  0022b	f3 0f 59 45 10	 mulss	 xmm0, DWORD PTR _fSpeed$1$[ebp]
  00230	f3 0f 11 46 54	 movss	 DWORD PTR [esi+84], xmm0
; File C:\IAGOS\server\v18\Source\Source\_aiinterface\ActionMoverState.cpp

; 210  : 			} else

  00235	eb 40		 jmp	 SHORT $LN23@ProcessSta
$LN22@ProcessSta:
  00237	f3 0f 10 45 08	 movss	 xmm0, DWORD PTR _fTheta$1$[ebp]
; File C:\Program Files (x86)\Windows Kits\10\Include\10.0.26100.0\ucrt\corecrt_math.h

; 789  :             return (float)sin(_X);

  0023c	0f 5a c0	 cvtps2pd xmm0, xmm0
  0023f	e8 00 00 00 00	 call	 __libm_sse2_sin_precise
  00244	0f 57 c9	 xorps	 xmm1, xmm1
  00247	f2 0f 5a c8	 cvtsd2ss xmm1, xmm0
; File C:\IAGOS\server\v18\Source\Source\_aiinterface\ActionMoverState.cpp

; 212  : 				m_vDelta.x = sinf(fTheta) * (fSpeed/4.0f);		// °ИҙВҙЩ....

  0024b	f3 0f 59 4d 10	 mulss	 xmm1, DWORD PTR _fSpeed$1$[ebp]
  00250	f3 0f 11 4e 50	 movss	 DWORD PTR [esi+80], xmm1
; File C:\Program Files (x86)\Windows Kits\10\Include\10.0.26100.0\ucrt\corecrt_math.h

; 683  :             return (float)cos(_X);

  00255	f3 0f 10 4d 08	 movss	 xmm1, DWORD PTR _fTheta$1$[ebp]
  0025a	0f 5a c1	 cvtps2pd xmm0, xmm1
  0025d	e8 00 00 00 00	 call	 __libm_sse2_cos_precise
  00262	f2 0f 5a c0	 cvtsd2ss xmm0, xmm0
; File C:\IAGOS\server\v18\Source\Source\_aiinterface\ActionMoverState.cpp

; 213  : 				m_vDelta.z = -cosf(fTheta) * (fSpeed/4.0f);

  00266	0f 57 05 00 00
	00 00		 xorps	 xmm0, DWORD PTR __xmm@80000000800000008000000080000000
  0026d	f3 0f 59 45 10	 mulss	 xmm0, DWORD PTR _fSpeed$1$[ebp]
  00272	f3 0f 11 46 58	 movss	 DWORD PTR [esi+88], xmm0
$LN23@ProcessSta:

; 214  : 			}
; 215  : 			if( GetState() != OBJSTA_FMOVE )		break;		// АьБшБЯАП¶§ёё өҝАЫ іӘҝИ

  00277	83 7e 04 04	 cmp	 DWORD PTR [esi+4], 4
  0027b	0f 85 7f 08 00
	00		 jne	 $LN54@ProcessSta

; 596  : }

  00281	8b 07		 mov	 eax, DWORD PTR [edi]
  00283	8b cf		 mov	 ecx, edi
  00285	6a 00		 push	 0
  00287	6a 04		 push	 4
  00289	6a 03		 push	 3
  0028b	8b 40 04	 mov	 eax, DWORD PTR [eax+4]
  0028e	ff d0		 call	 eax
  00290	5f		 pop	 edi
  00291	5e		 pop	 esi
  00292	8b e5		 mov	 esp, ebp
  00294	5d		 pop	 ebp
  00295	c2 0c 00	 ret	 12			; 0000000cH
$LN20@ProcessSta:

; 216  : 			if( IsStateFlag( OBJSTAF_COMBAT ) )	// АьЕхёрөе
; 217  : 				pMover->SetMotion( MTI_WALK );		// АьЕхёрөе·О °Иұв
; 218  : 			else
; 219  : 				pMover->SetMotion( MTI_WALK );		// °Б °Иұв
; 220  : 		} else
; 221  : 		{
; 222  : 			if( pMover->m_dwTypeFlag & OBJTYPE_FLYING )

  00298	85 c0		 test	 eax, eax
  0029a	0f 84 a5 00 00
	00		 je	 $LN27@ProcessSta

; 223  : 			{
; 224  : 				FLOAT fAngXZ = pMover->GetAngle();
; 225  : 				FLOAT fAngH  = pMover->GetAngleX();
; 226  : 				AngleToVector( &m_vDelta, fAngXZ, -fAngH, fSpeed );

  002a0	f3 0f 10 47 1c	 movss	 xmm0, DWORD PTR [edi+28]
  002a5	0f 57 05 00 00
	00 00		 xorps	 xmm0, DWORD PTR __xmm@80000000800000008000000080000000
; File C:\IAGOS\server\v18\Source\Source\_Common\XUtil3D.h

; 30   : 	fAngH  = D3DXToRadian(fAngH);

  002ac	f3 0f 59 05 00
	00 00 00	 mulss	 xmm0, DWORD PTR __real@3c8efa35

; 31   : 	fDist = cosf(-fAngH) * fSpeed;

  002b4	0f 57 05 00 00
	00 00		 xorps	 xmm0, DWORD PTR __xmm@80000000800000008000000080000000
; File C:\Program Files (x86)\Windows Kits\10\Include\10.0.26100.0\ucrt\corecrt_math.h

; 683  :             return (float)cos(_X);

  002bb	f3 0f 5a c0	 cvtss2sd xmm0, xmm0
  002bf	f2 0f 11 45 f8	 movsd	 QWORD PTR tv1986[ebp], xmm0
  002c4	e8 00 00 00 00	 call	 __libm_sse2_cos_precise
  002c9	f2 0f 5a c0	 cvtsd2ss xmm0, xmm0
; File C:\IAGOS\server\v18\Source\Source\_Common\XUtil3D.h

; 31   : 	fDist = cosf(-fAngH) * fSpeed;

  002cd	f3 0f 59 45 10	 mulss	 xmm0, DWORD PTR _fSpeed$[ebp]
  002d2	f3 0f 11 45 08	 movss	 DWORD PTR _fDist$1$[ebp], xmm0
  002d7	f3 0f 10 47 18	 movss	 xmm0, DWORD PTR [edi+24]
  002dc	f3 0f 59 05 00
	00 00 00	 mulss	 xmm0, DWORD PTR __real@3c8efa35
; File C:\Program Files (x86)\Windows Kits\10\Include\10.0.26100.0\ucrt\corecrt_math.h

; 789  :             return (float)sin(_X);

  002e4	0f 5a c0	 cvtps2pd xmm0, xmm0
  002e7	f2 0f 11 45 f0	 movsd	 QWORD PTR tv1988[ebp], xmm0
  002ec	e8 00 00 00 00	 call	 __libm_sse2_sin_precise
  002f1	0f 57 c9	 xorps	 xmm1, xmm1
  002f4	f2 0f 5a c8	 cvtsd2ss xmm1, xmm0

; 683  :             return (float)cos(_X);

  002f8	f2 0f 10 45 f0	 movsd	 xmm0, QWORD PTR tv1988[ebp]
; File C:\IAGOS\server\v18\Source\Source\_Common\XUtil3D.h

; 32   : 	vDelta->x = sinf(fAngXZ) * fDist;

  002fd	f3 0f 59 4d 08	 mulss	 xmm1, DWORD PTR _fDist$1$[ebp]
  00302	f3 0f 11 4e 50	 movss	 DWORD PTR [esi+80], xmm1
; File C:\Program Files (x86)\Windows Kits\10\Include\10.0.26100.0\ucrt\corecrt_math.h

; 683  :             return (float)cos(_X);

  00307	e8 00 00 00 00	 call	 __libm_sse2_cos_precise
  0030c	0f 57 c9	 xorps	 xmm1, xmm1
  0030f	f2 0f 5a c8	 cvtsd2ss xmm1, xmm0

; 789  :             return (float)sin(_X);

  00313	f2 0f 10 45 f8	 movsd	 xmm0, QWORD PTR tv1986[ebp]
; File C:\IAGOS\server\v18\Source\Source\_Common\XUtil3D.h

; 33   : 	vDelta->z = -cosf(fAngXZ) * fDist;

  00318	0f 57 0d 00 00
	00 00		 xorps	 xmm1, DWORD PTR __xmm@80000000800000008000000080000000
  0031f	f3 0f 59 4d 08	 mulss	 xmm1, DWORD PTR _fDist$1$[ebp]
  00324	f3 0f 11 4e 58	 movss	 DWORD PTR [esi+88], xmm1
; File C:\Program Files (x86)\Windows Kits\10\Include\10.0.26100.0\ucrt\corecrt_math.h

; 789  :             return (float)sin(_X);

  00329	e8 00 00 00 00	 call	 __libm_sse2_sin_precise
  0032e	f2 0f 5a c0	 cvtsd2ss xmm0, xmm0
; File C:\IAGOS\server\v18\Source\Source\_Common\XUtil3D.h

; 34   : 	vDelta->y = -sinf(-fAngH) * fSpeed;

  00332	0f 57 05 00 00
	00 00		 xorps	 xmm0, DWORD PTR __xmm@80000000800000008000000080000000
  00339	f3 0f 59 45 10	 mulss	 xmm0, DWORD PTR _fSpeed$[ebp]
  0033e	f3 0f 11 46 54	 movss	 DWORD PTR [esi+84], xmm0
; File C:\IAGOS\server\v18\Source\Source\_aiinterface\ActionMoverState.cpp

; 227  : 			} else

  00343	eb 40		 jmp	 SHORT $LN28@ProcessSta
$LN27@ProcessSta:
  00345	f3 0f 10 45 08	 movss	 xmm0, DWORD PTR _fTheta$1$[ebp]
; File C:\Program Files (x86)\Windows Kits\10\Include\10.0.26100.0\ucrt\corecrt_math.h

; 789  :             return (float)sin(_X);

  0034a	0f 5a c0	 cvtps2pd xmm0, xmm0
  0034d	e8 00 00 00 00	 call	 __libm_sse2_sin_precise
  00352	0f 57 c9	 xorps	 xmm1, xmm1
  00355	f2 0f 5a c8	 cvtsd2ss xmm1, xmm0
; File C:\IAGOS\server\v18\Source\Source\_aiinterface\ActionMoverState.cpp

; 229  : 				m_vDelta.x = sinf(fTheta) * fSpeed;

  00359	f3 0f 59 4d 10	 mulss	 xmm1, DWORD PTR _fSpeed$[ebp]
  0035e	f3 0f 11 4e 50	 movss	 DWORD PTR [esi+80], xmm1
; File C:\Program Files (x86)\Windows Kits\10\Include\10.0.26100.0\ucrt\corecrt_math.h

; 683  :             return (float)cos(_X);

  00363	f3 0f 10 4d 08	 movss	 xmm1, DWORD PTR _fTheta$1$[ebp]
  00368	0f 5a c1	 cvtps2pd xmm0, xmm1
  0036b	e8 00 00 00 00	 call	 __libm_sse2_cos_precise
  00370	f2 0f 5a c0	 cvtsd2ss xmm0, xmm0
; File C:\IAGOS\server\v18\Source\Source\_aiinterface\ActionMoverState.cpp

; 230  : 				m_vDelta.z = -cosf(fTheta) * fSpeed;

  00374	0f 57 05 00 00
	00 00		 xorps	 xmm0, DWORD PTR __xmm@80000000800000008000000080000000
  0037b	f3 0f 59 45 10	 mulss	 xmm0, DWORD PTR _fSpeed$[ebp]
  00380	f3 0f 11 46 58	 movss	 DWORD PTR [esi+88], xmm0
$LN28@ProcessSta:

; 231  : 			}
; 232  : 			if( GetState() != OBJSTA_FMOVE )		break;		// АьБшБЯАП¶§ёё өҝАЫ іӘҝИ

  00385	83 7e 04 04	 cmp	 DWORD PTR [esi+4], 4
  00389	0f 85 71 07 00
	00		 jne	 $LN54@ProcessSta

; 233  : 			pMover->SetMotion( MTI_RUN );

  0038f	8b 07		 mov	 eax, DWORD PTR [edi]
  00391	8b cf		 mov	 ecx, edi
  00393	6a 00		 push	 0
  00395	6a 04		 push	 4
  00397	6a 05		 push	 5
  00399	ff 50 04	 call	 DWORD PTR [eax+4]
  0039c	5f		 pop	 edi

; 596  : }

  0039d	5e		 pop	 esi
  0039e	8b e5		 mov	 esp, ebp
  003a0	5d		 pop	 ebp
  003a1	c2 0c 00	 ret	 12			; 0000000cH
$LN30@ProcessSta:
; File C:\IAGOS\server\v18\Source\Source\_AIInterface\Action.h

; 323  : 	BOOL			IsActDamage()		{ return m_dwState & OBJSTA_DMG_ALL; }

  003a4	f7 46 04 00 00
	00 0f		 test	 DWORD PTR [esi+4], 251658240 ; 0f000000H
; File C:\IAGOS\server\v18\Source\Source\_aiinterface\ActionMoverState.cpp

; 255  : 		if( IsActDamage() )	break;

  003ab	0f 85 4f 07 00
	00		 jne	 $LN54@ProcessSta

; 256  : 		m_vDelta.x =  sinf(fTheta) * (-fSpeed/5.0f);

  003b1	f3 0f 10 4d 10	 movss	 xmm1, DWORD PTR _fSpeed$[ebp]
  003b6	0f 57 0d 00 00
	00 00		 xorps	 xmm1, DWORD PTR __xmm@80000000800000008000000080000000
  003bd	f3 0f 5e 0d 00
	00 00 00	 divss	 xmm1, DWORD PTR __real@40a00000
; File C:\Program Files (x86)\Windows Kits\10\Include\10.0.26100.0\ucrt\corecrt_math.h

; 789  :             return (float)sin(_X);

  003c5	0f 5a c0	 cvtps2pd xmm0, xmm0
; File C:\IAGOS\server\v18\Source\Source\_aiinterface\ActionMoverState.cpp

; 256  : 		m_vDelta.x =  sinf(fTheta) * (-fSpeed/5.0f);

  003c8	f3 0f 11 4d 10	 movss	 DWORD PTR tv1993[ebp], xmm1
; File C:\Program Files (x86)\Windows Kits\10\Include\10.0.26100.0\ucrt\corecrt_math.h

; 789  :             return (float)sin(_X);

  003cd	e8 00 00 00 00	 call	 __libm_sse2_sin_precise
  003d2	0f 57 c9	 xorps	 xmm1, xmm1
  003d5	f2 0f 5a c8	 cvtsd2ss xmm1, xmm0
; File C:\IAGOS\server\v18\Source\Source\_aiinterface\ActionMoverState.cpp

; 256  : 		m_vDelta.x =  sinf(fTheta) * (-fSpeed/5.0f);

  003d9	f3 0f 59 4d 10	 mulss	 xmm1, DWORD PTR tv1993[ebp]
  003de	f3 0f 11 4e 50	 movss	 DWORD PTR [esi+80], xmm1
; File C:\Program Files (x86)\Windows Kits\10\Include\10.0.26100.0\ucrt\corecrt_math.h

; 683  :             return (float)cos(_X);

  003e3	f3 0f 10 4d 08	 movss	 xmm1, DWORD PTR _fTheta$1$[ebp]
  003e8	0f 5a c1	 cvtps2pd xmm0, xmm1
  003eb	e8 00 00 00 00	 call	 __libm_sse2_cos_precise
; File C:\IAGOS\server\v18\Source\Source\_aiinterface\ActionMoverState.cpp

; 258  : 		if( GetState() != OBJSTA_BMOVE )		break;		// АьБшБЯАП¶§ёё өҝАЫ іӘҝИ

  003f0	83 7e 04 05	 cmp	 DWORD PTR [esi+4], 5
; File C:\Program Files (x86)\Windows Kits\10\Include\10.0.26100.0\ucrt\corecrt_math.h

; 683  :             return (float)cos(_X);

  003f4	f2 0f 5a c0	 cvtsd2ss xmm0, xmm0
; File C:\IAGOS\server\v18\Source\Source\_aiinterface\ActionMoverState.cpp

; 257  : 		m_vDelta.z = -cosf(fTheta) * (-fSpeed/5.0f);

  003f8	0f 57 05 00 00
	00 00		 xorps	 xmm0, DWORD PTR __xmm@80000000800000008000000080000000
  003ff	f3 0f 59 45 10	 mulss	 xmm0, DWORD PTR tv1993[ebp]
  00404	f3 0f 11 46 58	 movss	 DWORD PTR [esi+88], xmm0

; 258  : 		if( GetState() != OBJSTA_BMOVE )		break;		// АьБшБЯАП¶§ёё өҝАЫ іӘҝИ

  00409	0f 85 f1 06 00
	00		 jne	 $LN54@ProcessSta

; 596  : }

  0040f	8b 07		 mov	 eax, DWORD PTR [edi]
  00411	8b cf		 mov	 ecx, edi
  00413	6a 00		 push	 0
  00415	6a 04		 push	 4
  00417	6a 04		 push	 4
  00419	8b 40 04	 mov	 eax, DWORD PTR [eax+4]
  0041c	ff d0		 call	 eax
  0041e	5f		 pop	 edi
  0041f	5e		 pop	 esi
  00420	8b e5		 mov	 esp, ebp
  00422	5d		 pop	 ebp
  00423	c2 0c 00	 ret	 12			; 0000000cH
$LN37@ProcessSta:

; 259  : 		if( IsStateFlag( OBJSTAF_COMBAT ) )		
; 260  : 			pMover->SetMotion( MTI_BACK );	// АьЕхёрөе·О °Иұв
; 261  : 		else
; 262  : 			pMover->SetMotion( MTI_BACK );			// °Б °Иұв
; 263  : 		break;
; 264  : 	// јцЖтАМөҝ
; 265  : 	case OBJSTA_LEFT:
; 266  : 	case OBJSTA_RIGHT:
; 267  : 		break;
; 268  : 	// ҫЙҫЖАЦҙВ ёрјЗБЯ.
; 269  : 	case OBJSTA_SIT:
; 270  : 		if( pMover->m_dwMotion == MTI_SIT )		// ҫЙҙВБЯ

  00426	8b 87 d8 02 00
	00		 mov	 eax, DWORD PTR [edi+728]
  0042c	83 f8 14	 cmp	 eax, 20			; 00000014H
  0042f	75 09		 jne	 SHORT $LN38@ProcessSta

; 271  : 		{
; 272  : 			if( pModel->IsEndFrame() )		// ҫЙҙВёрјЗ іЎіІ.

  00431	83 b9 9c 00 00
	00 00		 cmp	 DWORD PTR [ecx+156], 0

; 273  : 			{
; 274  : 				pMover->SetMotion( MTI_SITSTAND, ANILOOP_LOOP );
; 275  : #ifdef __CLIENT
; 276  : 				if( g_Party.IsMember( pMover->m_idPlayer) && g_Party.m_nModeTime[PARTY_STRETCHING_MODE] )
; 277  : 				{
; 278  : 					D3DXVECTOR3 v = pMover->GetPos();
; 279  : 					
; 280  : 					ItemProp* pItemProp = prj.GetPartySkill( ST_STRETCHING );
; 281  : 					
; 282  : 					CSfx *pSfx = CreateSfx( g_Neuz.m_pd3dDevice, pItemProp->dwSfxObj, v, pMover->GetId() );	// ёУё®А§ҝЎ sfx»эјә.
; 283  : 					
; 284  : 					if( pSfx )
; 285  : 						pSfx->SetScale( D3DXVECTOR3(1.0f, 1.0f, 1.0f) );
; 286  : 				}
; 287  : #endif	// __CLIENT
; 288  : 			}
; 289  : 		} else

  00438	eb 19		 jmp	 SHORT $LN302@ProcessSta
$LN38@ProcessSta:

; 290  : 		if( pMover->m_dwMotion == MTI_GETUP )		// АПҫоіӘҙВБЯ

  0043a	83 f8 16	 cmp	 eax, 22			; 00000016H
  0043d	75 11		 jne	 SHORT $LN41@ProcessSta

; 291  : 		{
; 292  : 			if( pModel->IsEndFrame() )

  0043f	83 b9 9c 00 00
	00 00		 cmp	 DWORD PTR [ecx+156], 0
  00446	75 33		 jne	 SHORT $LN201@ProcessSta

; 596  : }

  00448	5f		 pop	 edi
  00449	5e		 pop	 esi
  0044a	8b e5		 mov	 esp, ebp
  0044c	5d		 pop	 ebp
  0044d	c2 0c 00	 ret	 12			; 0000000cH
$LN41@ProcessSta:

; 293  : 			{
; 294  : 				ResetState( OBJSTA_MOVE_ALL );		// ҫЙҙВ»уЕВ іЎ
; 295  : 			}
; 296  : 		} else
; 297  : 		if( pMover->m_dwMotion != MTI_SITSTAND )

  00450	83 f8 15	 cmp	 eax, 21			; 00000015H
$LN302@ProcessSta:

; 596  : }

  00453	0f 84 a7 06 00
	00		 je	 $LN54@ProcessSta
  00459	8b 07		 mov	 eax, DWORD PTR [edi]
  0045b	8b cf		 mov	 ecx, edi
  0045d	6a 00		 push	 0
  0045f	6a 04		 push	 4
  00461	6a 15		 push	 21			; 00000015H
  00463	ff 50 04	 call	 DWORD PTR [eax+4]
  00466	5f		 pop	 edi
  00467	5e		 pop	 esi
  00468	8b e5		 mov	 esp, ebp
  0046a	5d		 pop	 ebp
  0046b	c2 0c 00	 ret	 12			; 0000000cH
$LN45@ProcessSta:

; 298  : 			pMover->SetMotion( MTI_SITSTAND, ANILOOP_LOOP );	// ҝЎ·ҜіөА»°жҝмҝЎ.
; 299  : 		
; 300  : 		
; 301  : 		break;
; 302  : 	case OBJSTA_PICKUP:
; 303  : 		if( pModel->IsEndFrame() )

  0046e	83 b9 9c 00 00
	00 00		 cmp	 DWORD PTR [ecx+156], 0
  00475	0f 84 85 06 00
	00		 je	 $LN54@ProcessSta
$LN201@ProcessSta:

; 304  : 		{
; 305  : 			ResetState( OBJSTA_MOVE_ALL );

  0047b	68 ff 00 00 00	 push	 255			; 000000ffH

; 596  : }

  00480	8b ce		 mov	 ecx, esi
  00482	e8 00 00 00 00	 call	 ?ResetState@CAction@@QAEXK@Z ; CAction::ResetState
  00487	5f		 pop	 edi
  00488	5e		 pop	 esi
  00489	8b e5		 mov	 esp, ebp
  0048b	5d		 pop	 ebp
  0048c	c2 0c 00	 ret	 12			; 0000000cH
$LN55@ProcessSta:
; File C:\IAGOS\server\v18\Source\Source\_AIInterface\Action.h

; 322  : 	BOOL			IsActAttack()		{ return m_dwState & OBJSTA_ATK_ALL; }

  0048f	f7 46 04 00 00
	ff 00		 test	 DWORD PTR [esi+4], 16711680 ; 00ff0000H
; File C:\IAGOS\server\v18\Source\Source\_aiinterface\ActionMoverState.cpp

; 359  : 		if( IsActAttack() )		break;

  00496	0f 85 64 06 00
	00		 jne	 $LN54@ProcessSta

; 360  : 		pMover->AddAngle( 4 );

  0049c	51		 push	 ecx
  0049d	8b cf		 mov	 ecx, edi
  0049f	c7 04 24 00 00
	80 40		 mov	 DWORD PTR [esp], 1082130432 ; 40800000H
  004a6	e8 00 00 00 00	 call	 ?AddAngle@CObj@@QAEXM@Z	; CObj::AddAngle
  004ab	5f		 pop	 edi

; 596  : }

  004ac	5e		 pop	 esi
  004ad	8b e5		 mov	 esp, ebp
  004af	5d		 pop	 ebp
  004b0	c2 0c 00	 ret	 12			; 0000000cH
$LN118@ProcessSta:

; 34   : 	int nParam = 0;
; 35   : 	FLOAT fTheta = D3DXToRadian( pMover->GetAngle() );
; 36   : 	CModelObject* pModel = (CModelObject*)pMover->m_pModel;
; 37   : 
; 38   : 	switch( dwState )

  004b3	3d 00 00 0b 00	 cmp	 eax, 720896		; 000b0000H
  004b8	0f 87 22 03 00
	00		 ja	 $LN119@ProcessSta
  004be	0f 84 73 03 00
	00		 je	 $LN94@ProcessSta
  004c4	3d 00 00 01 00	 cmp	 eax, 65536		; 00010000H
  004c9	0f 87 95 02 00
	00		 ja	 $LN120@ProcessSta
  004cf	0f 84 b1 02 00
	00		 je	 $LN85@ProcessSta
  004d5	3d 00 50 00 00	 cmp	 eax, 20480		; 00005000H
  004da	0f 87 11 01 00
	00		 ja	 $LN121@ProcessSta
  004e0	0f 84 a9 00 00
	00		 je	 $LN65@ProcessSta
  004e6	3d 00 02 00 00	 cmp	 eax, 512		; 00000200H
  004eb	74 7e		 je	 SHORT $LN57@ProcessSta
  004ed	3d 00 04 00 00	 cmp	 eax, 1024		; 00000400H
  004f2	74 41		 je	 SHORT $LN59@ProcessSta
  004f4	3d 00 08 00 00	 cmp	 eax, 2048		; 00000800H
  004f9	0f 85 01 06 00
	00		 jne	 $LN54@ProcessSta
; File C:\IAGOS\server\v18\Source\Source\_AIInterface\Action.h

; 322  : 	BOOL			IsActAttack()		{ return m_dwState & OBJSTA_ATK_ALL; }

  004ff	f7 46 04 00 00
	ff 00		 test	 DWORD PTR [esi+4], 16711680 ; 00ff0000H
; File C:\IAGOS\server\v18\Source\Source\_aiinterface\ActionMoverState.cpp

; 373  : 		if( IsActAttack() )		break;

  00506	0f 85 f4 05 00
	00		 jne	 $LN54@ProcessSta

; 374  : 		if( pMover->GetAngleX() < 45.0f )

  0050c	f3 0f 10 05 00
	00 00 00	 movss	 xmm0, DWORD PTR __real@42340000
  00514	0f 2f 47 1c	 comiss	 xmm0, DWORD PTR [edi+28]
  00518	0f 86 e2 05 00
	00		 jbe	 $LN54@ProcessSta

; 375  : 			pMover->AddAngleX( 1 );

  0051e	51		 push	 ecx
  0051f	8b cf		 mov	 ecx, edi
  00521	c7 04 24 00 00
	80 3f		 mov	 DWORD PTR [esp], 1065353216 ; 3f800000H
  00528	e8 00 00 00 00	 call	 ?AddAngleX@CObj@@QAEXM@Z ; CObj::AddAngleX
  0052d	5f		 pop	 edi

; 596  : }

  0052e	5e		 pop	 esi
  0052f	8b e5		 mov	 esp, ebp
  00531	5d		 pop	 ebp
  00532	c2 0c 00	 ret	 12			; 0000000cH
$LN59@ProcessSta:
; File C:\IAGOS\server\v18\Source\Source\_AIInterface\Action.h

; 322  : 	BOOL			IsActAttack()		{ return m_dwState & OBJSTA_ATK_ALL; }

  00535	f7 46 04 00 00
	ff 00		 test	 DWORD PTR [esi+4], 16711680 ; 00ff0000H
; File C:\IAGOS\server\v18\Source\Source\_aiinterface\ActionMoverState.cpp

; 368  : 		if( IsActAttack() )		break;

  0053c	0f 85 be 05 00
	00		 jne	 $LN54@ProcessSta

; 369  : 		if( pMover->GetAngleX() > -45.0f )

  00542	f3 0f 10 47 1c	 movss	 xmm0, DWORD PTR [edi+28]
  00547	0f 2f 05 00 00
	00 00		 comiss	 xmm0, DWORD PTR __real@c2340000
  0054e	0f 86 ac 05 00
	00		 jbe	 $LN54@ProcessSta

; 370  : 			pMover->AddAngleX( -1 );

  00554	51		 push	 ecx
  00555	8b cf		 mov	 ecx, edi
  00557	c7 04 24 00 00
	80 bf		 mov	 DWORD PTR [esp], -1082130432 ; bf800000H
  0055e	e8 00 00 00 00	 call	 ?AddAngleX@CObj@@QAEXM@Z ; CObj::AddAngleX
  00563	5f		 pop	 edi

; 596  : }

  00564	5e		 pop	 esi
  00565	8b e5		 mov	 esp, ebp
  00567	5d		 pop	 ebp
  00568	c2 0c 00	 ret	 12			; 0000000cH
$LN57@ProcessSta:
; File C:\IAGOS\server\v18\Source\Source\_AIInterface\Action.h

; 322  : 	BOOL			IsActAttack()		{ return m_dwState & OBJSTA_ATK_ALL; }

  0056b	f7 46 04 00 00
	ff 00		 test	 DWORD PTR [esi+4], 16711680 ; 00ff0000H
; File C:\IAGOS\server\v18\Source\Source\_aiinterface\ActionMoverState.cpp

; 363  : 		if( IsActAttack() )		break;

  00572	0f 85 88 05 00
	00		 jne	 $LN54@ProcessSta

; 364  : 		pMover->AddAngle( -4 );

  00578	51		 push	 ecx
  00579	8b cf		 mov	 ecx, edi
  0057b	c7 04 24 00 00
	80 c0		 mov	 DWORD PTR [esp], -1065353216 ; c0800000H
  00582	e8 00 00 00 00	 call	 ?AddAngle@CObj@@QAEXM@Z	; CObj::AddAngle
  00587	5f		 pop	 edi

; 596  : }

  00588	5e		 pop	 esi
  00589	8b e5		 mov	 esp, ebp
  0058b	5d		 pop	 ebp
  0058c	c2 0c 00	 ret	 12			; 0000000cH
$LN65@ProcessSta:

; 376  : 		break;
; 377  : 		
; 378  : 	// БЎЗБ-№Яұёё§
; 379  : 	case OBJSTA_SJUMP1:
; 380  : 		if( pMover->m_dwFlag & MVRF_NOMOVE )	break;		// АМөҝұЭБц »уЕВёй °Б ё®ЕП.

  0058f	f7 87 44 02 00
	00 00 01 00 00	 test	 DWORD PTR [edi+580], 256 ; 00000100H
  00599	0f 85 61 05 00
	00		 jne	 $LN54@ProcessSta
; File C:\IAGOS\server\v18\Source\Source\_AIInterface\Action.h

; 296  : 	void			SetJumpState( DWORD dwState ) { ResetState(OBJSTA_JUMP_ALL);	m_dwState |= dwState; }

  0059f	68 00 f0 00 00	 push	 61440			; 0000f000H
  005a4	8b ce		 mov	 ecx, esi
  005a6	e8 00 00 00 00	 call	 ?ResetState@CAction@@QAEXK@Z ; CAction::ResetState
  005ab	81 4e 04 00 60
	00 00		 or	 DWORD PTR [esi+4], 24576 ; 00006000H
; File C:\IAGOS\server\v18\Source\Source\_aiinterface\ActionMoverState.cpp

; 382  : 		m_vDelta.y = 0.2f + (pMover->GetParam( DST_JUMPING, 0 ) / 1000.0f);

  005b2	8b cf		 mov	 ecx, edi
  005b4	6a 00		 push	 0
  005b6	6a 44		 push	 68			; 00000044H
  005b8	e8 00 00 00 00	 call	 ?GetParam@CMover@@QAEHHH@Z ; CMover::GetParam

; 383  : 		if( (GetState() & OBJSTA_COLLECT)== 0 )

  005bd	f7 46 04 00 00
	00 10		 test	 DWORD PTR [esi+4], 268435456 ; 10000000H
  005c4	66 0f 6e c0	 movd	 xmm0, eax
  005c8	0f 5b c0	 cvtdq2ps xmm0, xmm0
  005cb	f3 0f 5e 05 00
	00 00 00	 divss	 xmm0, DWORD PTR __real@447a0000
  005d3	f3 0f 58 05 00
	00 00 00	 addss	 xmm0, DWORD PTR __real@3e4ccccd
  005db	f3 0f 11 46 54	 movss	 DWORD PTR [esi+84], xmm0
  005e0	0f 85 6c 01 00
	00		 jne	 $LN72@ProcessSta

; 384  : 		{
; 385  : 			pMover->SetMotion( MTI_JUMP2, ANILOOP_CONT );	// »уҪВөҝАЫ АьИҜ

  005e6	6a 00		 push	 0
  005e8	6a 02		 push	 2
  005ea	6a 0e		 push	 14			; 0000000eH

; 426  : 		if( GetState() & OBJSTA_DMG_ALL )	

  005ec	e9 5a 01 00 00	 jmp	 $LN301@ProcessSta
$LN121@ProcessSta:

; 34   : 	int nParam = 0;
; 35   : 	FLOAT fTheta = D3DXToRadian( pMover->GetAngle() );
; 36   : 	CModelObject* pModel = (CModelObject*)pMover->m_pModel;
; 37   : 
; 38   : 	switch( dwState )

  005f1	3d 00 60 00 00	 cmp	 eax, 24576		; 00006000H
  005f6	0f 84 fa 00 00
	00		 je	 $LN68@ProcessSta
  005fc	3d 00 70 00 00	 cmp	 eax, 28672		; 00007000H
  00601	74 62		 je	 SHORT $LN73@ProcessSta
  00603	3d 00 80 00 00	 cmp	 eax, 32768		; 00008000H
  00608	0f 85 f2 04 00
	00		 jne	 $LN54@ProcessSta

; 417  : 			{
; 418  : 				pModel->SetMotionBlending( FALSE );		// ВшБц өҝАЫАә ән·»өщА» ЗПБц ҫКҙВ°Ф АЪҝ¬Ҫә·ҙҙЩ.
; 419  : 			}
; 420  : 		}
; 421  : 		break;
; 422  : 	// БЎЗБ-ВшБц
; 423  : 	case OBJSTA_SJUMP4:
; 424  : 		//if( pMover->m_dwFlag & MVRF_NOMOVE )	break;		// АМөҝұЭБц »уЕВёй °Б ё®ЕП.
; 425  : 		ResetState( OBJSTA_JUMP_ALL );

  0060e	68 00 f0 00 00	 push	 61440			; 0000f000H
  00613	8b ce		 mov	 ecx, esi
  00615	e8 00 00 00 00	 call	 ?ResetState@CAction@@QAEXK@Z ; CAction::ResetState

; 426  : 		if( GetState() & OBJSTA_DMG_ALL )	

  0061a	f7 46 04 00 00
	00 0f		 test	 DWORD PTR [esi+4], 251658240 ; 0f000000H
  00621	75 2e		 jne	 SHORT $LN199@ProcessSta

; 427  : 		{
; 428  : 			ResetState( OBJSTA_JUMP_ALL );
; 429  : 			break;		// өҘ№МБц БЯАМҫъАёёй ВшБц »уЕВ ЗШБҰҪГЕ°°н іЎіҝ.
; 430  : 		}
; 431  : 		if( pModel->IsEndFrame() )		// ВшБцөҝАЫ ҙЩ іЎіӘёй БЎЗБ»уЕВ ЗШБҰ

  00623	8b 4d fc	 mov	 ecx, DWORD PTR _pModel$1$[ebp]
  00626	83 b9 9c 00 00
	00 00		 cmp	 DWORD PTR [ecx+156], 0
  0062d	75 22		 jne	 SHORT $LN199@ProcessSta

; 434  : 			break;
; 435  : 		}
; 436  : #if __VER >= 13 // __HONORABLE_TITLE			// ҙЮАО
; 437  : 	#ifdef __WORLDSERVER
; 438  : #ifndef __MAINSERVER
; 439  : if(!pMover->IsPlayer())
; 440  : 	FILEOUT( "..\\HonorError.txt", "processstate1()AddHonorListAck()\n" );
; 441  : #endif // __MAINSERVER
; 442  : 		if(pMover->IsPlayer() )

  0062f	83 bf 30 02 00
	00 00		 cmp	 DWORD PTR [edi+560], 0
  00636	0f 84 c4 04 00
	00		 je	 $LN54@ProcessSta

; 443  :             ((CUser*)pMover)->SetHonorAdd(HS_JUMP,HI_COUNT_CHECK);

  0063c	6a 00		 push	 0
  0063e	6a 02		 push	 2
  00640	6a 50		 push	 80			; 00000050H
  00642	8b cf		 mov	 ecx, edi
  00644	e8 00 00 00 00	 call	 ?SetHonorAdd@CMover@@QAEXHHH@Z ; CMover::SetHonorAdd
  00649	5f		 pop	 edi

; 596  : }

  0064a	5e		 pop	 esi
  0064b	8b e5		 mov	 esp, ebp
  0064d	5d		 pop	 ebp
  0064e	c2 0c 00	 ret	 12			; 0000000cH
$LN199@ProcessSta:

; 432  : 		{
; 433  : 			ResetState( OBJSTA_JUMP_ALL );

  00651	68 00 f0 00 00	 push	 61440			; 0000f000H

; 596  : }

  00656	8b ce		 mov	 ecx, esi
  00658	e8 00 00 00 00	 call	 ?ResetState@CAction@@QAEXK@Z ; CAction::ResetState
  0065d	5f		 pop	 edi
  0065e	5e		 pop	 esi
  0065f	8b e5		 mov	 esp, ebp
  00661	5d		 pop	 ebp
  00662	c2 0c 00	 ret	 12			; 0000000cH
$LN73@ProcessSta:

; 401  : 		}
; 402  : 		break;
; 403  : 	// БЎЗБ-ЗП°ӯ
; 404  : 	case OBJSTA_SJUMP3:
; 405  : 		if( pMover->m_dwFlag & MVRF_NOMOVE )	break;		// АМөҝұЭБц »уЕВёй °Б ё®ЕП.

  00665	f7 87 44 02 00
	00 00 01 00 00	 test	 DWORD PTR [edi+580], 256 ; 00000100H
  0066f	0f 85 8b 04 00
	00		 jne	 $LN54@ProcessSta

; 406  : 		if( (GetState() & OBJSTA_DMG_ALL) == 0 || (GetState() & OBJSTA_COLLECT)== 0 )			// өҘ№МБцБЯАМ ҫЖҙТ¶§ёё ЗП°ӯөҝАЫ әҜИҜ.

  00675	f7 46 04 00 00
	00 0f		 test	 DWORD PTR [esi+4], 251658240 ; 0f000000H
  0067c	0f 95 c1	 setne	 cl
  0067f	0f ba 66 04 1c	 bt	 DWORD PTR [esi+4], 28	; 0000001cH
  00684	0f 92 c0	 setb	 al
  00687	84 c8		 test	 cl, al
  00689	75 1e		 jne	 SHORT $LN77@ProcessSta

; 407  : 		{
; 408  : 			if( TRUE == pMover->SetMotion( MTI_JUMP3, ANILOOP_CONT ) )	// ЗП°ӯөҝАЫ АьИҜ

  0068b	8b 07		 mov	 eax, DWORD PTR [edi]
  0068d	8b cf		 mov	 ecx, edi
  0068f	6a 00		 push	 0
  00691	6a 02		 push	 2
  00693	6a 0f		 push	 15			; 0000000fH
  00695	8b 40 04	 mov	 eax, DWORD PTR [eax+4]
  00698	ff d0		 call	 eax
  0069a	83 f8 01	 cmp	 eax, 1
  0069d	75 0a		 jne	 SHORT $LN77@ProcessSta

; 409  : 				pModel->SetMotionBlending( FALSE );

  0069f	8b 4d fc	 mov	 ecx, DWORD PTR _pModel$1$[ebp]
  006a2	6a 00		 push	 0
  006a4	e8 00 00 00 00	 call	 ?SetMotionBlending@CModelObject@@QAEXH@Z ; CModelObject::SetMotionBlending
$LN77@ProcessSta:

; 410  : 		}
; 411  : 		if( m_bGround )		// №ЩҙЪҝЎ ҙкҫТАёёй ВшБц»уЕВ·О іСҫо°Ё

  006a9	83 7e 44 00	 cmp	 DWORD PTR [esi+68], 0
  006ad	0f 84 4d 04 00
	00		 je	 $LN54@ProcessSta
; File C:\IAGOS\server\v18\Source\Source\_AIInterface\Action.h

; 296  : 	void			SetJumpState( DWORD dwState ) { ResetState(OBJSTA_JUMP_ALL);	m_dwState |= dwState; }

  006b3	68 00 f0 00 00	 push	 61440			; 0000f000H
  006b8	8b ce		 mov	 ecx, esi
  006ba	e8 00 00 00 00	 call	 ?ResetState@CAction@@QAEXK@Z ; CAction::ResetState
  006bf	81 4e 04 00 80
	00 00		 or	 DWORD PTR [esi+4], 32768 ; 00008000H
; File C:\IAGOS\server\v18\Source\Source\_aiinterface\ActionMoverState.cpp

; 414  : 			pMover->OnActLanding();			// ВшБц ЗЪөй·Ҝ ДЭ.

  006c6	8b cf		 mov	 ecx, edi
  006c8	e8 00 00 00 00	 call	 ?OnActLanding@CMover@@QAEXXZ ; CMover::OnActLanding

; 415  : 			if( GetState() & OBJSTA_DMG_ALL)	break;		// өҘ№МБц»уЕВ¶уёй ВшБц өҝАЫ ЗПБц ҫКАҪ.

  006cd	f7 46 04 00 00
	00 0f		 test	 DWORD PTR [esi+4], 251658240 ; 0f000000H
  006d4	0f 85 26 04 00
	00		 jne	 $LN54@ProcessSta

; 416  : 			if( TRUE == pMover->SetMotion( MTI_JUMP4, ANILOOP_1PLAY ) )	// ВшБцөҝАЫ АьИҜ

  006da	8b 07		 mov	 eax, DWORD PTR [edi]
  006dc	8b cf		 mov	 ecx, edi
  006de	6a 00		 push	 0
  006e0	6a 01		 push	 1
  006e2	6a 10		 push	 16			; 00000010H
  006e4	8b 40 04	 mov	 eax, DWORD PTR [eax+4]
  006e7	ff d0		 call	 eax
  006e9	83 f8 01	 cmp	 eax, 1
  006ec	74 64		 je	 SHORT $LN72@ProcessSta

; 596  : }

  006ee	5f		 pop	 edi
  006ef	5e		 pop	 esi
  006f0	8b e5		 mov	 esp, ebp
  006f2	5d		 pop	 ebp
  006f3	c2 0c 00	 ret	 12			; 0000000cH
$LN68@ProcessSta:

; 386  : 		}
; 387  : 		pModel->SetMotionBlending( FALSE );
; 388  : 		break;
; 389  : 	// БЎЗБ-»уҪВ
; 390  : 	case OBJSTA_SJUMP2:
; 391  : 		if( pMover->m_dwFlag & MVRF_NOMOVE )	break;		// АМөҝұЭБц »уЕВёй °Б ё®ЕП.

  006f6	f7 87 44 02 00
	00 00 01 00 00	 test	 DWORD PTR [edi+580], 256 ; 00000100H
  00700	0f 85 fa 03 00
	00		 jne	 $LN54@ProcessSta

; 392  : 		if( (GetState() & OBJSTA_COLLECT)== 0 )

  00706	f7 46 04 00 00
	00 10		 test	 DWORD PTR [esi+4], 268435456 ; 10000000H
  0070d	75 0d		 jne	 SHORT $LN70@ProcessSta

; 393  : 		{
; 394  : 			pMover->SetMotion( MTI_JUMP2, ANILOOP_CONT );	// »уҪВөҝАЫ АьИҜ

  0070f	8b 07		 mov	 eax, DWORD PTR [edi]
  00711	8b cf		 mov	 ecx, edi
  00713	6a 00		 push	 0
  00715	6a 02		 push	 2
  00717	6a 0e		 push	 14			; 0000000eH
  00719	ff 50 04	 call	 DWORD PTR [eax+4]
$LN70@ProcessSta:

; 395  : 		}
; 396  : 		if( m_vDelta.y <= 0 )		// ҫЖ·Ў·О ¶іҫоБцұв ҪГАЫЗЯАёёй ЗП°ӯАё·О АьИҜ

  0071c	0f 57 c0	 xorps	 xmm0, xmm0
  0071f	0f 2f 46 54	 comiss	 xmm0, DWORD PTR [esi+84]
  00723	0f 82 d7 03 00
	00		 jb	 $LN54@ProcessSta
; File C:\IAGOS\server\v18\Source\Source\_AIInterface\Action.h

; 296  : 	void			SetJumpState( DWORD dwState ) { ResetState(OBJSTA_JUMP_ALL);	m_dwState |= dwState; }

  00729	68 00 f0 00 00	 push	 61440			; 0000f000H
  0072e	8b ce		 mov	 ecx, esi
  00730	e8 00 00 00 00	 call	 ?ResetState@CAction@@QAEXK@Z ; CAction::ResetState
  00735	81 4e 04 00 70
	00 00		 or	 DWORD PTR [esi+4], 28672 ; 00007000H
; File C:\IAGOS\server\v18\Source\Source\_aiinterface\ActionMoverState.cpp

; 399  : 			if( (GetState() & OBJSTA_COLLECT)== 0 ) pMover->SetMotion( MTI_JUMP3, ANILOOP_CONT );

  0073c	f7 46 04 00 00
	00 10		 test	 DWORD PTR [esi+4], 268435456 ; 10000000H
  00743	75 0d		 jne	 SHORT $LN72@ProcessSta
  00745	6a 00		 push	 0
  00747	6a 02		 push	 2
  00749	6a 0f		 push	 15			; 0000000fH
$LN301@ProcessSta:

; 400  : 			pModel->SetMotionBlending( FALSE );

  0074b	8b 07		 mov	 eax, DWORD PTR [edi]
  0074d	8b cf		 mov	 ecx, edi
  0074f	ff 50 04	 call	 DWORD PTR [eax+4]
$LN72@ProcessSta:
  00752	8b 4d fc	 mov	 ecx, DWORD PTR _pModel$1$[ebp]
  00755	6a 00		 push	 0
  00757	e8 00 00 00 00	 call	 ?SetMotionBlending@CModelObject@@QAEXH@Z ; CModelObject::SetMotionBlending
  0075c	5f		 pop	 edi

; 596  : }

  0075d	5e		 pop	 esi
  0075e	8b e5		 mov	 esp, ebp
  00760	5d		 pop	 ebp
  00761	c2 0c 00	 ret	 12			; 0000000cH
$LN120@ProcessSta:

; 34   : 	int nParam = 0;
; 35   : 	FLOAT fTheta = D3DXToRadian( pMover->GetAngle() );
; 36   : 	CModelObject* pModel = (CModelObject*)pMover->m_pModel;
; 37   : 
; 38   : 	switch( dwState )

  00764	3d 00 00 05 00	 cmp	 eax, 327680		; 00050000H
  00769	77 3f		 ja	 SHORT $LN122@ProcessSta
  0076b	74 2b		 je	 SHORT $LN91@ProcessSta
  0076d	3d 00 00 02 00	 cmp	 eax, 131072		; 00020000H
  00772	74 12		 je	 SHORT $LN85@ProcessSta
  00774	3d 00 00 03 00	 cmp	 eax, 196608		; 00030000H
  00779	74 0b		 je	 SHORT $LN85@ProcessSta
  0077b	3d 00 00 04 00	 cmp	 eax, 262144		; 00040000H
  00780	0f 85 7a 03 00
	00		 jne	 $LN54@ProcessSta
$LN85@ProcessSta:

; 444  : 	#endif	// __WORLDSERVER
; 445  : #endif	// __HONORABLE_TITLE			// ҙЮАО
; 446  : 		break;
; 447  : 	//--------- °ш°Э ---------------------------
; 448  : 	case OBJSTA_ATK1:
; 449  : 	case OBJSTA_ATK2:
; 450  : 	case OBJSTA_ATK3:
; 451  : 	case OBJSTA_ATK4:
; 452  : 		_ProcessStateAttack( dwState, nParam );

  00786	6a 00		 push	 0
  00788	50		 push	 eax
  00789	8b ce		 mov	 ecx, esi
  0078b	e8 00 00 00 00	 call	 ?_ProcessStateAttack@CActionMover@@QAEXKH@Z ; CActionMover::_ProcessStateAttack
  00790	5f		 pop	 edi

; 596  : }

  00791	5e		 pop	 esi
  00792	8b e5		 mov	 esp, ebp
  00794	5d		 pop	 ebp
  00795	c2 0c 00	 ret	 12			; 0000000cH
$LN91@ProcessSta:

; 458  : 		break;
; 459  : 
; 460  : 	//--------- ё¶№э ---------------------------
; 461  : 	case OBJSTA_ATK_MAGIC1:
; 462  : 		ProcessStateAttackMagic( dwState, nParam );

  00798	6a 00		 push	 0
  0079a	50		 push	 eax
  0079b	8b ce		 mov	 ecx, esi
  0079d	e8 00 00 00 00	 call	 ?ProcessStateAttackMagic@CActionMover@@QAEXKH@Z ; CActionMover::ProcessStateAttackMagic
  007a2	5f		 pop	 edi

; 596  : }

  007a3	5e		 pop	 esi
  007a4	8b e5		 mov	 esp, ebp
  007a6	5d		 pop	 ebp
  007a7	c2 0c 00	 ret	 12			; 0000000cH
$LN122@ProcessSta:

; 34   : 	int nParam = 0;
; 35   : 	FLOAT fTheta = D3DXToRadian( pMover->GetAngle() );
; 36   : 	CModelObject* pModel = (CModelObject*)pMover->m_pModel;
; 37   : 
; 38   : 	switch( dwState )

  007aa	3d 00 00 06 00	 cmp	 eax, 393216		; 00060000H
  007af	74 1d		 je	 SHORT $LN92@ProcessSta
  007b1	3d 00 00 09 00	 cmp	 eax, 589824		; 00090000H
  007b6	0f 85 44 03 00
	00		 jne	 $LN54@ProcessSta

; 467  : 		break;
; 468  : 		
; 469  : 	case OBJSTA_ATK_MELEESKILL:
; 470  : 		ProcessStateMeleeSkill( dwState, nParam );

  007bc	6a 00		 push	 0
  007be	50		 push	 eax
  007bf	8b ce		 mov	 ecx, esi
  007c1	e8 00 00 00 00	 call	 ?ProcessStateMeleeSkill@CActionMover@@QAEXKH@Z ; CActionMover::ProcessStateMeleeSkill
  007c6	5f		 pop	 edi

; 596  : }

  007c7	5e		 pop	 esi
  007c8	8b e5		 mov	 esp, ebp
  007ca	5d		 pop	 ebp
  007cb	c2 0c 00	 ret	 12			; 0000000cH
$LN92@ProcessSta:

; 463  : 		break;
; 464  : 	//--------- ҝш°Её® №°ё®°ш°Э ------------------
; 465  : 	case OBJSTA_ATK_RANGE1:
; 466  : 		ProcessStateAttackRange( dwState, nParam );

  007ce	6a 00		 push	 0
  007d0	50		 push	 eax
  007d1	8b ce		 mov	 ecx, esi
  007d3	e8 00 00 00 00	 call	 ?ProcessStateAttackRange@CActionMover@@QAEXKH@Z ; CActionMover::ProcessStateAttackRange
  007d8	5f		 pop	 edi

; 596  : }

  007d9	5e		 pop	 esi
  007da	8b e5		 mov	 esp, ebp
  007dc	5d		 pop	 ebp
  007dd	c2 0c 00	 ret	 12			; 0000000cH
$LN119@ProcessSta:

; 34   : 	int nParam = 0;
; 35   : 	FLOAT fTheta = D3DXToRadian( pMover->GetAngle() );
; 36   : 	CModelObject* pModel = (CModelObject*)pMover->m_pModel;
; 37   : 
; 38   : 	switch( dwState )

  007e0	3d 00 00 00 03	 cmp	 eax, 50331648		; 03000000H
  007e5	0f 87 78 01 00
	00		 ja	 $LN123@ProcessSta
  007eb	0f 84 12 01 00
	00		 je	 $LN103@ProcessSta
  007f1	3d 00 00 20 00	 cmp	 eax, 2097152		; 00200000H
  007f6	77 51		 ja	 SHORT $LN124@ProcessSta
  007f8	74 19		 je	 SHORT $LN89@ProcessSta
  007fa	3d 00 00 0c 00	 cmp	 eax, 786432		; 000c0000H
  007ff	74 36		 je	 SHORT $LN94@ProcessSta
  00801	3d 00 00 0d 00	 cmp	 eax, 851968		; 000d0000H
  00806	74 1d		 je	 SHORT $LN96@ProcessSta
  00808	3d 00 00 10 00	 cmp	 eax, 1048576		; 00100000H
  0080d	0f 85 ed 02 00
	00		 jne	 $LN54@ProcessSta
$LN89@ProcessSta:

; 453  : 		break;
; 454  : 		
; 455  : 	case OBJSTA_SP_ATK1:
; 456  : 	case OBJSTA_SP_ATK2:
; 457  : 		ProcessStateAttackSP( dwState, nParam );

  00813	6a 00		 push	 0
  00815	50		 push	 eax
  00816	8b ce		 mov	 ecx, esi
  00818	e8 00 00 00 00	 call	 ?ProcessStateAttackSP@CActionMover@@QAEXKH@Z ; CActionMover::ProcessStateAttackSP
  0081d	5f		 pop	 edi

; 596  : }

  0081e	5e		 pop	 esi
  0081f	8b e5		 mov	 esp, ebp
  00821	5d		 pop	 ebp
  00822	c2 0c 00	 ret	 12			; 0000000cH
$LN96@ProcessSta:

; 475  : 		break;
; 476  : 	case OBJSTA_ATK_MAGICSKILL:
; 477  : 		ProcessStateMagicSkill( dwState, nParam );

  00825	6a 00		 push	 0
  00827	50		 push	 eax
  00828	8b ce		 mov	 ecx, esi
  0082a	e8 00 00 00 00	 call	 ?ProcessStateMagicSkill@CActionMover@@QAEXKH@Z ; CActionMover::ProcessStateMagicSkill
  0082f	5f		 pop	 edi

; 596  : }

  00830	5e		 pop	 esi
  00831	8b e5		 mov	 esp, ebp
  00833	5d		 pop	 ebp
  00834	c2 0c 00	 ret	 12			; 0000000cH
$LN94@ProcessSta:

; 471  : 		break;
; 472  : 	case OBJSTA_ATK_CASTING1:
; 473  : 	case OBJSTA_ATK_CASTING2:
; 474  : 		ProcessStateMagicCasting( dwState, nParam );

  00837	6a 00		 push	 0
  00839	50		 push	 eax
  0083a	8b ce		 mov	 ecx, esi
  0083c	e8 00 00 00 00	 call	 ?ProcessStateMagicCasting@CActionMover@@QAEXKH@Z ; CActionMover::ProcessStateMagicCasting
  00841	5f		 pop	 edi

; 596  : }

  00842	5e		 pop	 esi
  00843	8b e5		 mov	 esp, ebp
  00845	5d		 pop	 ebp
  00846	c2 0c 00	 ret	 12			; 0000000cH
$LN124@ProcessSta:

; 34   : 	int nParam = 0;
; 35   : 	FLOAT fTheta = D3DXToRadian( pMover->GetAngle() );
; 36   : 	CModelObject* pModel = (CModelObject*)pMover->m_pModel;
; 37   : 
; 38   : 	switch( dwState )

  00849	3d 00 00 00 01	 cmp	 eax, 16777216		; 01000000H
  0084e	0f 84 8e 00 00
	00		 je	 $LN97@ProcessSta
  00854	3d 00 00 00 02	 cmp	 eax, 33554432		; 02000000H
  00859	0f 85 a1 02 00
	00		 jne	 $LN54@ProcessSta

; 478  : 		break;
; 479  : 		
; 480  : 	//----------- өҘ№МБц -------------------------
; 481  : 	case OBJSTA_DMG:
; 482  : 		if( pModel->IsEndFrame() )	
; 483  : 		{
; 484  : 			ResetState( OBJSTA_DMG_ALL );
; 485  : 		}
; 486  : 		break;
; 487  : 	case OBJSTA_DMG_FLY:
; 488  : 		if( m_bGround )

  0085f	83 7e 44 00	 cmp	 DWORD PTR [esi+68], 0
  00863	0f 84 97 02 00
	00		 je	 $LN54@ProcessSta

; 489  : 		{
; 490  : 			if( (GetState() & OBJSTA_STUN) )

  00869	f7 46 04 00 00
	00 40		 test	 DWORD PTR [esi+4], 1073741824 ; 40000000H
  00870	74 10		 je	 SHORT $LN101@ProcessSta

; 491  : 			{
; 492  : 				ResetState( OBJSTA_DMG_FLY );			// ҫЧјЗ»уЕВөө ЗШБҰЗСҙЩ.

  00872	50		 push	 eax

; 596  : }

  00873	8b ce		 mov	 ecx, esi
  00875	e8 00 00 00 00	 call	 ?ResetState@CAction@@QAEXK@Z ; CAction::ResetState
  0087a	5f		 pop	 edi
  0087b	5e		 pop	 esi
  0087c	8b e5		 mov	 esp, ebp
  0087e	5d		 pop	 ebp
  0087f	c2 0c 00	 ret	 12			; 0000000cH
$LN101@ProcessSta:

; 493  : 				break;
; 494  : 			}
; 495  : 			
; 496  : 			if( m_vDelta.y == 0 )	// ГіАҪ ¶г¶§өө m_bGround°Ў 1АМұв¶«ҝЎ ЗП°ӯЗП°н АЦА»¶§ №ЩҙЪҝЎ ҙкАә°Нёё АҜИҝ!

  00882	f3 0f 10 4e 54	 movss	 xmm1, DWORD PTR [esi+84]
  00887	0f 57 c0	 xorps	 xmm0, xmm0
  0088a	0f 2e c8	 ucomiss xmm1, xmm0
  0088d	9f		 lahf
  0088e	f6 c4 44	 test	 ah, 68			; 00000044H
  00891	0f 8a 69 02 00
	00		 jp	 $LN54@ProcessSta
; File C:\IAGOS\server\v18\Source\Source\_AIInterface\Action.h

; 292  : 	void			SetState( DWORD dwType, DWORD dwState )	{ ResetState(dwType);	m_dwState |= dwState; }

  00897	68 00 00 00 0f	 push	 251658240		; 0f000000H
  0089c	8b ce		 mov	 ecx, esi
; File C:\IAGOS\server\v18\Source\Source\_aiinterface\ActionMoverState.cpp

; 498  : 				m_vDelta.x = m_vDelta.z = 0;	// ¶іҫоБцёй °Б јУөө ҫшҫЦАЪ.

  0089e	c7 46 58 00 00
	00 00		 mov	 DWORD PTR [esi+88], 0
  008a5	c7 46 50 00 00
	00 00		 mov	 DWORD PTR [esi+80], 0

; 499  : 				m_vDeltaE.x = m_vDelta.x;	// m_vDeltaEҙВ АЪөҝАыАё·О ё¶ВыАМ °и»көИҙЩ.

  008ac	c7 46 5c 00 00
	00 00		 mov	 DWORD PTR [esi+92], 0

; 500  : 				m_vDeltaE.z = m_vDelta.z;

  008b3	c7 46 64 00 00
	00 00		 mov	 DWORD PTR [esi+100], 0

; 501  : #if __VER >= 15 // __BS_FIXED_KNOCKBACK
; 502  : 				m_vDelta.y = 0.04f;

  008ba	c7 46 54 0a d7
	23 3d		 mov	 DWORD PTR [esi+84], 1025758986 ; 3d23d70aH
; File C:\IAGOS\server\v18\Source\Source\_AIInterface\Action.h

; 292  : 	void			SetState( DWORD dwType, DWORD dwState )	{ ResetState(dwType);	m_dwState |= dwState; }

  008c1	e8 00 00 00 00	 call	 ?ResetState@CAction@@QAEXK@Z ; CAction::ResetState
  008c6	81 4e 04 00 00
	00 03		 or	 DWORD PTR [esi+4], 50331648 ; 03000000H
; File C:\IAGOS\server\v18\Source\Source\_aiinterface\ActionMoverState.cpp

; 507  : 				pMover->SetMotion( MTI_DMGDIE, ANILOOP_CONT );		// ЕРҪв! ¶іҫоБшИД ҫІ·ҜБ®АЦҙВ ёрҪА

  008cd	8b cf		 mov	 ecx, edi
  008cf	8b 07		 mov	 eax, DWORD PTR [edi]
  008d1	6a 00		 push	 0
  008d3	6a 02		 push	 2
  008d5	6a 0a		 push	 10			; 0000000aH
  008d7	ff 50 04	 call	 DWORD PTR [eax+4]
  008da	5f		 pop	 edi

; 596  : }

  008db	5e		 pop	 esi
  008dc	8b e5		 mov	 esp, ebp
  008de	5d		 pop	 ebp
  008df	c2 0c 00	 ret	 12			; 0000000cH
$LN97@ProcessSta:
  008e2	83 b9 9c 00 00
	00 00		 cmp	 DWORD PTR [ecx+156], 0
  008e9	0f 84 11 02 00
	00		 je	 $LN54@ProcessSta
  008ef	68 00 00 00 0f	 push	 251658240		; 0f000000H
  008f4	8b ce		 mov	 ecx, esi
  008f6	e8 00 00 00 00	 call	 ?ResetState@CAction@@QAEXK@Z ; CAction::ResetState
  008fb	5f		 pop	 edi
  008fc	5e		 pop	 esi
  008fd	8b e5		 mov	 esp, ebp
  008ff	5d		 pop	 ebp
  00900	c2 0c 00	 ret	 12			; 0000000cH
$LN103@ProcessSta:

; 508  : 				break;
; 509  : 			}
; 510  : 		}
; 511  : 		break;
; 512  : 	// ¶ҘҝЎ ЕРҪв ¶іҫоБц°н іӯИД №МІф·ҜБцҙВ БЯ
; 513  : 	case OBJSTA_DMG_DIE:
; 514  : 		m_vDelta.x = 0;

  00903	c7 46 50 00 00
	00 00		 mov	 DWORD PTR [esi+80], 0

; 515  : 		m_vDelta.z = 0;

  0090a	c7 46 58 00 00
	00 00		 mov	 DWORD PTR [esi+88], 0

; 516  : 		
; 517  : 		if( pModel->IsEndFrame() )		// ЗБ·№АУАМ іЎіӘёй БЧҫо іОәО·ҜБш »уЕВ. ёрјЗАә ЗцАз ёрјЗ ұЧҙл·О АМҫоБь.

  00911	83 b9 9c 00 00
	00 00		 cmp	 DWORD PTR [ecx+156], 0
  00918	0f 84 e2 01 00
	00		 je	 $LN54@ProcessSta

; 518  : 		{
; 519  : 			if( pMover->m_nHitPoint > 0 )	// №ЩҙЪҝЎ ¶іҫоБц°н іӯИД HP°Ў іІҫЖ АЦАёёй 

  0091e	83 bf f8 05 00
	00 00		 cmp	 DWORD PTR [edi+1528], 0
  00925	8b ce		 mov	 ecx, esi
  00927	68 00 00 00 0f	 push	 251658240		; 0f000000H
  0092c	7e 21		 jle	 SHORT $LN105@ProcessSta
; File C:\IAGOS\server\v18\Source\Source\_AIInterface\Action.h

; 292  : 	void			SetState( DWORD dwType, DWORD dwState )	{ ResetState(dwType);	m_dwState |= dwState; }

  0092e	e8 00 00 00 00	 call	 ?ResetState@CAction@@QAEXK@Z ; CAction::ResetState
  00933	81 4e 04 00 00
	00 06		 or	 DWORD PTR [esi+4], 100663296 ; 06000000H
; File C:\IAGOS\server\v18\Source\Source\_aiinterface\ActionMoverState.cpp

; 596  : }

  0093a	8b cf		 mov	 ecx, edi
  0093c	8b 07		 mov	 eax, DWORD PTR [edi]
  0093e	6a 00		 push	 0
  00940	6a 01		 push	 1
  00942	6a 09		 push	 9
  00944	ff 50 04	 call	 DWORD PTR [eax+4]
  00947	5f		 pop	 edi
  00948	5e		 pop	 esi
  00949	8b e5		 mov	 esp, ebp
  0094b	5d		 pop	 ebp
  0094c	c2 0c 00	 ret	 12			; 0000000cH
$LN105@ProcessSta:
; File C:\IAGOS\server\v18\Source\Source\_AIInterface\Action.h

; 292  : 	void			SetState( DWORD dwType, DWORD dwState )	{ ResetState(dwType);	m_dwState |= dwState; }

  0094f	e8 00 00 00 00	 call	 ?ResetState@CAction@@QAEXK@Z ; CAction::ResetState
  00954	81 4e 04 00 00
	00 08		 or	 DWORD PTR [esi+4], 134217728 ; 08000000H
  0095b	5f		 pop	 edi
; File C:\IAGOS\server\v18\Source\Source\_aiinterface\ActionMoverState.cpp

; 596  : }

  0095c	5e		 pop	 esi
  0095d	8b e5		 mov	 esp, ebp
  0095f	5d		 pop	 ebp
  00960	c2 0c 00	 ret	 12			; 0000000cH
$LN123@ProcessSta:

; 34   : 	int nParam = 0;
; 35   : 	FLOAT fTheta = D3DXToRadian( pMover->GetAngle() );
; 36   : 	CModelObject* pModel = (CModelObject*)pMover->m_pModel;
; 37   : 
; 38   : 	switch( dwState )

  00963	3d 00 00 00 0c	 cmp	 eax, 201326592		; 0c000000H
  00968	0f 87 d2 00 00
	00		 ja	 $LN125@ProcessSta
  0096e	0f 84 6e ff ff
	ff		 je	 $LN97@ProcessSta
  00974	3d 00 00 00 06	 cmp	 eax, 100663296		; 06000000H
  00979	0f 84 8a 00 00
	00		 je	 $LN107@ProcessSta
  0097f	3d 00 00 00 08	 cmp	 eax, 134217728		; 08000000H
  00984	74 24		 je	 SHORT $LN109@ProcessSta
  00986	3d 00 00 00 09	 cmp	 eax, 150994944		; 09000000H
  0098b	0f 85 6f 01 00
	00		 jne	 $LN54@ProcessSta

; 565  : 			}
; 566  : 		} 
; 567  :  #endif // WORLDSERVER
; 568  : 
; 569  : #ifdef __CLIENT
; 570  : 		if( pMover->IsNPC() )
; 571  : 		{
; 572  : 			if( pModel->IsAttrQuake() )	// БЧА»¶§ Дф.
; 573  : 			{
; 574  : 				if( pMover->GetProp()->dwClass == RANK_MATERIAL )
; 575  : 					GetWorld()->m_pCamera->SetQuake( 60, 1.0f );
; 576  : 				else
; 577  : 					GetWorld()->m_pCamera->SetQuake( 15 );
; 578  : 			}
; 579  : 		}
; 580  : #endif	// __CLIENT
; 581  : 		break;
; 582  : 	case OBJSTA_DISAPPEAR:	// »з¶уБцҙВ »уЕВ
; 583  : #ifndef __CLIENT
; 584  : 		if( m_nCount > FRAME_PER_SEC )	// 1ГКИД »з¶уБь

  00991	83 7e 40 3c	 cmp	 DWORD PTR [esi+64], 60	; 0000003cH
  00995	0f 8e 65 01 00
	00		 jle	 $LN54@ProcessSta

; 585  : //		if( m_nCount++ > SEC1 )
; 586  : 		{
; 587  : 			pMover->Delete();

  0099b	8b cf		 mov	 ecx, edi
  0099d	e8 00 00 00 00	 call	 ?Delete@CObj@@QAEXXZ	; CObj::Delete
  009a2	5f		 pop	 edi

; 596  : }

  009a3	5e		 pop	 esi
  009a4	8b e5		 mov	 esp, ebp
  009a6	5d		 pop	 ebp
  009a7	c2 0c 00	 ret	 12			; 0000000cH
$LN109@ProcessSta:

; 538  : 		}
; 539  : 		break;
; 540  : 	case OBJSTA_DEAD:	// БЧҫо іОәО·ҜБш »уЕВ
; 541  : 		if( pModel->m_nLoop != ANILOOP_CONT )	// °ијУ БЧҫоіОәО·ҜБцҙВ Зц»у¶«ҝЎ ¶«»§Гіё® ЗЯҙЩ ҝмЗПЗПЗПЗП

  009aa	83 b9 b4 00 00
	00 02		 cmp	 DWORD PTR [ecx+180], 2
  009b1	74 0a		 je	 SHORT $LN110@ProcessSta

; 542  : 			pModel->m_nLoop = ANILOOP_CONT;

  009b3	c7 81 b4 00 00
	00 02 00 00 00	 mov	 DWORD PTR [ecx+180], 2
$LN110@ProcessSta:

; 543  : 
; 544  : 		pMover->m_dwFlag &= (~MVRF_NOACTION);		// ҫЧјЗұЭБцөө ЗШБҰЗП°н

  009bd	81 a7 44 02 00
	00 ff f8 ff ff	 and	 DWORD PTR [edi+580], -1793 ; fffff8ffH

; 545  :  #ifdef __WORLDSERVER
; 546  : 		// Е¬¶уҝЎјұ ҝАәкБ§Ж® БцҝмҙВ°Ф өы·О ҝА№З·О АМәОәРА» јцЗаЗТ ЗКҝд ҫшҙЩ.
; 547  : 		if( !pMover->IsPlayer() ) 

  009c7	83 bf 30 02 00
	00 00		 cmp	 DWORD PTR [edi+560], 0
  009ce	0f 85 2c 01 00
	00		 jne	 $LN54@ProcessSta

; 548  : 		{
; 549  : 			m_nDeadCnt--;

  009d4	ff 8e a0 00 00
	00		 dec	 DWORD PTR [esi+160]

; 550  : 			/*
; 551  : 			if( pMover->IsResourceMonster() )		// АЪҝшАМ АЦҙВ ёуҪәЕНіД
; 552  : 			{				
; 553  : 				if( pMover->m_nResource == 0 )		// АЪҝшАМ ҙЩ ¶іҫоБііД
; 554  : 				{
; 555  : 					if( m_nDeadCnt > 10800 - 200 )	// іӘЕёіӯБц ҫуё¶ ҫИөИ°ЗөҘ №ъҪб АЪҝшАМ ¶іҫоБіҙЩёй №ә°Ў АЯёшөИ°ЕҙЩ.
; 556  : 						Error( "OBJSTA_DEAD:%d %s", m_nDeadCnt, pMover->GetName() );
; 557  : 					m_nDeadCnt = 0;			// АЪҝшАМ ҙЩ ¶іҫоБіАёёй АМБҰ ҫшҫоБ®ҫЯБв~
; 558  : 				}
; 559  : 			}
; 560  : 			*/
; 561  : 			if( m_nDeadCnt <= 0 )

  009da	83 be a0 00 00
	00 00		 cmp	 DWORD PTR [esi+160], 0
  009e1	0f 8f 19 01 00
	00		 jg	 $LN54@ProcessSta
; File C:\IAGOS\server\v18\Source\Source\_AIInterface\Action.h

; 292  : 	void			SetState( DWORD dwType, DWORD dwState )	{ ResetState(dwType);	m_dwState |= dwState; }

  009e7	68 00 00 00 0f	 push	 251658240		; 0f000000H
  009ec	8b ce		 mov	 ecx, esi
  009ee	e8 00 00 00 00	 call	 ?ResetState@CAction@@QAEXK@Z ; CAction::ResetState
  009f3	81 4e 04 00 00
	00 09		 or	 DWORD PTR [esi+4], 150994944 ; 09000000H
  009fa	5f		 pop	 edi
; File C:\IAGOS\server\v18\Source\Source\_aiinterface\ActionMoverState.cpp

; 564  : 				m_nCount = 0;

  009fb	c7 46 40 00 00
	00 00		 mov	 DWORD PTR [esi+64], 0

; 596  : }

  00a02	5e		 pop	 esi
  00a03	8b e5		 mov	 esp, ebp
  00a05	5d		 pop	 ebp
  00a06	c2 0c 00	 ret	 12			; 0000000cH
$LN107@ProcessSta:

; 520  : 			{
; 521  : 				TRACE( "\r\n" );
; 522  : 				SetState( OBJSTA_DMG_ALL, OBJSTA_DMG_LIVE );	// ҙЩҪГ АПҫоіӘ°н
; 523  : 				pMover->SetMotion( MTI_DMGLIVE, ANILOOP_1PLAY );	// АПҫоіӘҙВ ёрјЗ
; 524  : 			} 
; 525  : 			else
; 526  : 			{
; 527  : 				SetState( OBJSTA_DMG_ALL, OBJSTA_DEAD );		// HP°Ў ҫшАёёй №Щ·О БЧАҪ.
; 528  : 			}
; 529  : 		}
; 530  : 		break;
; 531  : 	// ҫІ·ҜБіҙЩ АПҫоіӘҙВ »уЕВ - өҘ№МБц БЯАё·О Гіё®.
; 532  : 	case OBJSTA_DMG_LIVE:
; 533  : 		if( pModel->IsEndFrame() )

  00a09	83 b9 9c 00 00
	00 00		 cmp	 DWORD PTR [ecx+156], 0
  00a10	0f 84 ea 00 00
	00		 je	 $LN54@ProcessSta

; 534  : 		{
; 535  : 			pMover->m_dwFlag &= (~MVRF_NOACTION);		// ҫЧјЗұЭБцөө ЗШБҰЗП°н

  00a16	81 a7 44 02 00
	00 ff f8 ff ff	 and	 DWORD PTR [edi+580], -1793 ; fffff8ffH

; 536  : 			ResetState( OBJSTA_DMG_ALL );	// ЗБ·№АУ іЎіӘёй Е¬ё®ҫо.

  00a20	8b ce		 mov	 ecx, esi
  00a22	68 00 00 00 0f	 push	 251658240		; 0f000000H
  00a27	e8 00 00 00 00	 call	 ?ResetState@CAction@@QAEXK@Z ; CAction::ResetState

; 537  : 			ResetState( OBJSTA_ATK_ALL );

  00a2c	68 00 00 ff 00	 push	 16711680		; 00ff0000H

; 596  : }

  00a31	8b ce		 mov	 ecx, esi
  00a33	e8 00 00 00 00	 call	 ?ResetState@CAction@@QAEXK@Z ; CAction::ResetState
  00a38	5f		 pop	 edi
  00a39	5e		 pop	 esi
  00a3a	8b e5		 mov	 esp, ebp
  00a3c	5d		 pop	 ebp
  00a3d	c2 0c 00	 ret	 12			; 0000000cH
$LN125@ProcessSta:

; 34   : 	int nParam = 0;
; 35   : 	FLOAT fTheta = D3DXToRadian( pMover->GetAngle() );
; 36   : 	CModelObject* pModel = (CModelObject*)pMover->m_pModel;
; 37   : 
; 38   : 	switch( dwState )

  00a40	3d 00 00 00 20	 cmp	 eax, 536870912		; 20000000H
  00a45	0f 84 91 00 00
	00		 je	 $LN53@ProcessSta
  00a4b	3d 00 00 00 40	 cmp	 eax, 1073741824		; 40000000H
  00a50	0f 85 aa 00 00
	00		 jne	 $LN54@ProcessSta

; 306  : 		}
; 307  : 		break;
; 308  : 	case OBJSTA_COLLECT:
; 309  : 		/*
; 310  : 		if( pMover->IsNPC() )
; 311  : 		{
; 312  : 			Error( "OBJSTA_COLLECT : Аў ёуҪәЕН°Ў ГӨБэАё·О өйҫоҝФҙЩ %s", pMover->GetName() );
; 313  : 			break;
; 314  : 		}
; 315  :  #ifdef __WORLDSERVER
; 316  : 		if( pMover->OnActCollecting() == TRUE || IsMove() )		// ГӨБэөҝАЫАМ іЎіӘёй / ГӨБэЗПҙЩ ҝтБчАМёй.
; 317  : 		{
; 318  : 			ResetState( OBJSTA_ACTION_ALL );			// ЗШБҰ
; 319  : 			g_UserMng.AddHdr( (CUser *)pMover, SNAPSHOTTYPE_STOP_COLLECT );	// ГӨБэіЎіІ.
; 320  : 		}
; 321  :  #elif defined(__CLIENT)
; 322  : 		pMover->OnActCollecting();
; 323  :  #endif
; 324  : 		*/
; 325  : 		// ёрјЗАә Б¶°ЗАМ іЎіҜ¶§ұоБц °ијУ №Эә№өК.
; 326  : 		break;
; 327  : 	case OBJSTA_STUN:
; 328  : 		if( pMover->m_dwMotion != MTI_GROGGY )		// ұЧ·Оұв ёрјЗАМ ө№°н АЦБц ҫКА»¶§

  00a56	83 bf d8 02 00
	00 0c		 cmp	 DWORD PTR [edi+728], 12	; 0000000cH
  00a5d	74 1c		 je	 SHORT $LN50@ProcessSta

; 329  : 			if( (GetState() & (~OBJSTA_ACTION_ALL)) != OBJSTA_NOT_STAND )		// ҫЖ№«°Нөө ҫИЗП°н ҙлұвЗПҙВ »уЕВҝЎјұ ұЧ·Оұв ёрјЗАё·О ҙЩҪГ өЗө№·Б іхАЪ.

  00a5f	8b 46 04	 mov	 eax, DWORD PTR [esi+4]
  00a62	25 ff ff ff 0f	 and	 eax, 268435455		; 0fffffffH
  00a67	3d fe 00 00 00	 cmp	 eax, 254		; 000000feH
  00a6c	74 0d		 je	 SHORT $LN50@ProcessSta

; 330  : 				pMover->SetMotion( MTI_GROGGY, ANILOOP_LOOP, MOP_FIXED );

  00a6e	8b 07		 mov	 eax, DWORD PTR [edi]
  00a70	8b cf		 mov	 ecx, edi
  00a72	6a 02		 push	 2
  00a74	6a 04		 push	 4
  00a76	6a 0c		 push	 12			; 0000000cH
  00a78	ff 50 04	 call	 DWORD PTR [eax+4]
$LN50@ProcessSta:

; 331  : 
; 332  : #ifdef __SLEEPING_FIX
; 333  : 		if ((pMover->GetAdjParam(DST_CHRSTATE) & CHS_STUN) == 0 || (pMover->GetAdjParam(DST_CHRSTATE) & CHS_SLEEPING) == 0)

  00a7b	6a 40		 push	 64			; 00000040H
  00a7d	8b cf		 mov	 ecx, edi
  00a7f	e8 00 00 00 00	 call	 ?GetAdjParam@CMover@@QAEHH@Z ; CMover::GetAdjParam
  00a84	a8 08		 test	 al, 8
  00a86	74 10		 je	 SHORT $LN52@ProcessSta
  00a88	6a 40		 push	 64			; 00000040H
  00a8a	8b cf		 mov	 ecx, edi
  00a8c	e8 00 00 00 00	 call	 ?GetAdjParam@CMover@@QAEHH@Z ; CMover::GetAdjParam
  00a91	a9 00 00 20 00	 test	 eax, 2097152		; 00200000H
  00a96	75 68		 jne	 SHORT $LN54@ProcessSta
$LN52@ProcessSta:

; 334  : #else
; 335  : 		if ((pMover->GetAdjParam(DST_CHRSTATE) & CHS_STUN) == 0)		// ҪәЕП»уЕВ°Ў іЎіөАёёй
; 336  : #endif
; 337  : 		{
; 338  : 			pMover->m_wStunCnt = 0;						// ҪәЕПД«ҝоЖ® ЗШБҰ.
; 339  : 			pMover->m_dwFlag &= (~MVRF_NOACTION);		// ҫЧјЗұЭБцөө ЗШБҰЗП°н

  00a98	81 a7 44 02 00
	00 ff f8 ff ff	 and	 DWORD PTR [edi+580], -1793 ; fffff8ffH
  00aa2	33 c0		 xor	 eax, eax

; 340  : 			ResetState( OBJSTA_ACTION_ALL );			// ҫЧјЗ»уЕВөө ЗШБҰЗСҙЩ.

  00aa4	68 00 00 00 f0	 push	 -268435456		; f0000000H
  00aa9	8b ce		 mov	 ecx, esi
  00aab	66 89 87 c4 06
	00 00		 mov	 WORD PTR [edi+1732], ax
  00ab2	e8 00 00 00 00	 call	 ?ResetState@CAction@@QAEXK@Z ; CAction::ResetState

; 341  : #ifdef __SLEEPING_FIX
; 342  : 			pMover->ResetDestParam(DST_CHRSTATE, CHS_STUN, FALSE);

  00ab7	6a 00		 push	 0
  00ab9	6a 08		 push	 8
  00abb	6a 40		 push	 64			; 00000040H
  00abd	8b cf		 mov	 ecx, edi
  00abf	e8 00 00 00 00	 call	 ?ResetDestParam@CMover@@QAEXHHH@Z ; CMover::ResetDestParam

; 343  : 			pMover->ResetDestParam(DST_CHRSTATE, CHS_SLEEPING, FALSE);

  00ac4	6a 00		 push	 0
  00ac6	68 00 00 20 00	 push	 2097152			; 00200000H
  00acb	6a 40		 push	 64			; 00000040H
  00acd	8b cf		 mov	 ecx, edi
  00acf	e8 00 00 00 00	 call	 ?ResetDestParam@CMover@@QAEXHHH@Z ; CMover::ResetDestParam
  00ad4	5f		 pop	 edi

; 596  : }

  00ad5	5e		 pop	 esi
  00ad6	8b e5		 mov	 esp, ebp
  00ad8	5d		 pop	 ebp
  00ad9	c2 0c 00	 ret	 12			; 0000000cH
$LN53@ProcessSta:

; 344  : #endif
; 345  : 		}
; 346  : 		break;
; 347  : 
; 348  : 	case OBJSTA_APPEAR:  // өоАеҫА.
; 349  : 		if( pModel->IsEndFrame() )

  00adc	83 b9 9c 00 00
	00 00		 cmp	 DWORD PTR [ecx+156], 0
  00ae3	74 1b		 je	 SHORT $LN54@ProcessSta

; 350  : 		{
; 351  : 		#ifdef __WORLDSERVER
; 352  : 			pMover->PostAIMsg( AIMSG_END_APPEAR );		// өоАеҫА ҫЦҙПёЮАМјЗАМ іЎіөАҪА» ҫЛёІ.

  00ae5	6a 00		 push	 0
  00ae7	6a 00		 push	 0
  00ae9	6a 00		 push	 0
  00aeb	6a 10		 push	 16			; 00000010H
  00aed	8b cf		 mov	 ecx, edi
  00aef	e8 00 00 00 00	 call	 ?PostAIMsg@CMover@@QAEXKKKK@Z ; CMover::PostAIMsg

; 353  : 		#endif
; 354  : 			ResetState( OBJSTA_ACTION_ALL );

  00af4	68 00 00 00 f0	 push	 -268435456		; f0000000H

; 596  : }

  00af9	8b ce		 mov	 ecx, esi
  00afb	e8 00 00 00 00	 call	 ?ResetState@CAction@@QAEXK@Z ; CAction::ResetState
$LN54@ProcessSta:
  00b00	5f		 pop	 edi
  00b01	5e		 pop	 esi
  00b02	8b e5		 mov	 esp, ebp
  00b04	5d		 pop	 ebp
  00b05	c2 0c 00	 ret	 12			; 0000000cH
$LN203@ProcessSta:
  00b08	00 00 00 00	 DD	 $LN4@ProcessSta
  00b0c	00 00 00 00	 DD	 $LN54@ProcessSta
  00b10	00 00 00 00	 DD	 $LN37@ProcessSta
  00b14	00 00 00 00	 DD	 $LN17@ProcessSta
  00b18	00 00 00 00	 DD	 $LN30@ProcessSta
  00b1c	00 00 00 00	 DD	 $LN54@ProcessSta
  00b20	00 00 00 00	 DD	 $LN54@ProcessSta
  00b24	00 00 00 00	 DD	 $LN45@ProcessSta
?ProcessState1@CActionMover@@QAEXPAVCMover@@KM@Z ENDP	; CActionMover::ProcessState1
_TEXT	ENDS
; Function compile flags: /Ogtp
; File C:\IAGOS\server\v18\Source\Source\_aiinterface\ActionMoverState.cpp
; File C:\IAGOS\server\v18\Source\Source\_AIInterface\Action.h
; File C:\IAGOS\server\v18\Source\Source\_aiinterface\ActionMoverState.cpp
; File C:\IAGOS\server\v18\Source\Source\_AIInterface\Action.h
; File C:\IAGOS\server\v18\Source\Source\_aiinterface\ActionMoverState.cpp
;	COMDAT ?ProcessStateMagicCasting@CActionMover@@QAEXKH@Z
_TEXT	SEGMENT
_dwState$ = 8						; size = 4
_nParam$ = 12						; size = 4
?ProcessStateMagicCasting@CActionMover@@QAEXKH@Z PROC	; CActionMover::ProcessStateMagicCasting, COMDAT
; _this$ = ecx

; 696  : {

  00000	55		 push	 ebp
  00001	8b ec		 mov	 ebp, esp

; 697  : 	CMover* pMover = m_pMover;
; 698  : 	CModelObject *pModel = (CModelObject *)pMover->m_pModel;
; 699  : 	
; 700  : 	if( dwState == OBJSTA_ATK_CASTING1 )	// ЖИА» өйҫоҝГё®ҙВ БЯ

  00003	8b 45 08	 mov	 eax, DWORD PTR _dwState$[ebp]
  00006	56		 push	 esi
  00007	8b f1		 mov	 esi, ecx
  00009	8b 4e 0c	 mov	 ecx, DWORD PTR [esi+12]
  0000c	3d 00 00 0b 00	 cmp	 eax, 720896		; 000b0000H
  00011	75 38		 jne	 SHORT $LN2@ProcessSta

; 701  : 	{
; 702  : 		if( pModel->IsEndFrame() )	// ҫЦҙПёЮАМјЗАМ іЎіөҙЩёй ҙЩАҪ.

  00013	8b 81 78 01 00
	00		 mov	 eax, DWORD PTR [ecx+376]
  00019	83 b8 9c 00 00
	00 00		 cmp	 DWORD PTR [eax+156], 0
  00020	74 5f		 je	 SHORT $LN6@ProcessSta

; 703  : 		{
; 704  : 			pMover->SetMotion( pMover->m_dwMotion + 1, ANILOOP_LOOP, MOP_SWDFORCE | MOP_NO_TRANS | MOP_FIXED );		// ҙЩАҪ өҝАЫАё·О

  00022	8b 81 d8 02 00
	00		 mov	 eax, DWORD PTR [ecx+728]
  00028	8b 11		 mov	 edx, DWORD PTR [ecx]
  0002a	40		 inc	 eax
  0002b	6a 07		 push	 7
  0002d	6a 04		 push	 4
  0002f	50		 push	 eax
  00030	ff 52 04	 call	 DWORD PTR [edx+4]
; File C:\IAGOS\server\v18\Source\Source\_AIInterface\Action.h

; 292  : 	void			SetState( DWORD dwType, DWORD dwState )	{ ResetState(dwType);	m_dwState |= dwState; }

  00033	68 00 00 ff 00	 push	 16711680		; 00ff0000H
  00038	8b ce		 mov	 ecx, esi
  0003a	e8 00 00 00 00	 call	 ?ResetState@CAction@@QAEXK@Z ; CAction::ResetState
  0003f	81 4e 04 00 00
	0c 00		 or	 DWORD PTR [esi+4], 786432 ; 000c0000H
  00046	5e		 pop	 esi
; File C:\IAGOS\server\v18\Source\Source\_aiinterface\ActionMoverState.cpp

; 734  : }

  00047	5d		 pop	 ebp
  00048	c2 08 00	 ret	 8
$LN2@ProcessSta:

; 705  : //			m_nCount = 0;
; 706  : 			SetState( OBJSTA_ATK_ALL, OBJSTA_ATK_CASTING2 );
; 707  : 		}
; 708  : 	} 
; 709  : 	else if( dwState == OBJSTA_ATK_CASTING2 )	// ҪГАьҪГ°Ј өф·№АМБЯ

  0004b	3d 00 00 0c 00	 cmp	 eax, 786432		; 000c0000H
  00050	75 2f		 jne	 SHORT $LN6@ProcessSta

; 710  : 	{
; 711  : //		if( ++m_nCount >= m_nCastingTime )
; 712  : 		if( m_nCount >= ( m_nCastingTime ) )

  00052	8b 46 40	 mov	 eax, DWORD PTR [esi+64]
  00055	3b 86 a8 00 00
	00		 cmp	 eax, DWORD PTR [esi+168]
  0005b	7c 24		 jl	 SHORT $LN6@ProcessSta

; 713  : 		{
; 714  : 			int dwMotion = pMover->m_dwMotion + 1;

  0005d	8b 81 d8 02 00
	00		 mov	 eax, DWORD PTR [ecx+728]

; 715  : 		#ifdef __CLIENT
; 716  : 			if( pMover->HasBuffByIk3( IK3_TEXT_DISGUISE ) )
; 717  : 				dwMotion = MTI_ATK1;
; 718  : 		#endif
; 719  : 			pMover->SetMotion( dwMotion, ANILOOP_1PLAY, MOP_SWDFORCE | MOP_NO_TRANS | MOP_FIXED );		// ҙЩАҪ өҝАЫАё·О

  00063	8b 11		 mov	 edx, DWORD PTR [ecx]
  00065	40		 inc	 eax
  00066	6a 07		 push	 7
  00068	6a 01		 push	 1
  0006a	50		 push	 eax
  0006b	ff 52 04	 call	 DWORD PTR [edx+4]
; File C:\IAGOS\server\v18\Source\Source\_AIInterface\Action.h

; 292  : 	void			SetState( DWORD dwType, DWORD dwState )	{ ResetState(dwType);	m_dwState |= dwState; }

  0006e	68 00 00 ff 00	 push	 16711680		; 00ff0000H
  00073	8b ce		 mov	 ecx, esi
  00075	e8 00 00 00 00	 call	 ?ResetState@CAction@@QAEXK@Z ; CAction::ResetState
  0007a	81 4e 04 00 00
	0d 00		 or	 DWORD PTR [esi+4], 851968 ; 000d0000H
$LN6@ProcessSta:
  00081	5e		 pop	 esi
; File C:\IAGOS\server\v18\Source\Source\_aiinterface\ActionMoverState.cpp

; 734  : }

  00082	5d		 pop	 ebp
  00083	c2 08 00	 ret	 8
?ProcessStateMagicCasting@CActionMover@@QAEXKH@Z ENDP	; CActionMover::ProcessStateMagicCasting
_TEXT	ENDS
; Function compile flags: /Ogtp
; File C:\IAGOS\server\v18\Source\Source\_aiinterface\ActionMoverState.cpp
;	COMDAT ?ProcessStateMagicSkill@CActionMover@@QAEXKH@Z
_TEXT	SEGMENT
_pSkillProp$1 = -8					; size = 4
_pAddSkillProp$2 = -4					; size = 4
_dwState$ = 8						; size = 4
_nParam$ = 12						; size = 4
?ProcessStateMagicSkill@CActionMover@@QAEXKH@Z PROC	; CActionMover::ProcessStateMagicSkill, COMDAT
; _this$ = ecx

; 739  : {

  00000	55		 push	 ebp
  00001	8b ec		 mov	 ebp, esp
  00003	83 ec 08	 sub	 esp, 8
  00006	53		 push	 ebx
  00007	56		 push	 esi
  00008	8b f1		 mov	 esi, ecx
  0000a	57		 push	 edi

; 740  : 	CMover* pMover = m_pMover;

  0000b	8b 7e 0c	 mov	 edi, DWORD PTR [esi+12]

; 741  : 	CModelObject *pModel = (CModelObject *)pMover->m_pModel;

  0000e	8b 9f 78 01 00
	00		 mov	 ebx, DWORD PTR [edi+376]

; 742  : 	
; 743  : 	if( pModel->IsEndFrame() )	// ҫЦҙПёЮАМјЗАМ іЎіөҙЩёй »уЕВ ЗШБҰ

  00014	83 bb 9c 00 00
	00 00		 cmp	 DWORD PTR [ebx+156], 0
  0001b	74 13		 je	 SHORT $LN2@ProcessSta

; 744  : 	{
; 745  : 		ResetState( OBJSTA_ATK_ALL );

  0001d	68 00 00 ff 00	 push	 16711680		; 00ff0000H
  00022	e8 00 00 00 00	 call	 ?ResetState@CAction@@QAEXK@Z ; CAction::ResetState
  00027	5f		 pop	 edi

; 779  : 		}
; 780  : 		
; 781  : 	}
; 782  : }

  00028	5e		 pop	 esi
  00029	5b		 pop	 ebx
  0002a	8b e5		 mov	 esp, ebp
  0002c	5d		 pop	 ebp
  0002d	c2 08 00	 ret	 8
$LN2@ProcessSta:

; 746  : 		return;
; 747  : 	}
; 748  : 
; 749  : 	if( (g_nProcessCnt & 3) == 0 )

  00030	f6 05 00 00 00
	00 03		 test	 BYTE PTR ?g_nProcessCnt@@3HA, 3
  00037	75 1a		 jne	 SHORT $LN4@ProcessSta

; 750  : 	{
; 751  : 		if( m_nShootCnt > 0 )		// ҝ¬јУ№Я»з°Ў јјЖГөЗёй

  00039	83 be 98 00 00
	00 00		 cmp	 DWORD PTR [esi+152], 0
  00040	7e 11		 jle	 SHORT $LN4@ProcessSta

; 752  : 		{
; 753  : 			pMover->OnMagicSkill( 0 );	// ҙЩҪГ №Я»зҪГЕ°°н

  00042	6a 01		 push	 1
  00044	6a 00		 push	 0
  00046	8b cf		 mov	 ecx, edi
  00048	e8 00 00 00 00	 call	 ?OnMagicSkill@CMover@@QAEHHH@Z ; CMover::OnMagicSkill

; 754  : 			m_nShootCnt--;		// °іјц ЗПіӘҫҝ »ӯ.

  0004d	ff 8e 98 00 00
	00		 dec	 DWORD PTR [esi+152]
$LN4@ProcessSta:

; 755  : 		}
; 756  : 	}
; 757  : 
; 758  : 	if( pModel->IsAttrHit() )	// ЗцАз ЗБ·№АУҝЎ ЕёБЎАМ АЦҙВ°Ў?

  00053	8b 03		 mov	 eax, DWORD PTR [ebx]
  00055	8b cb		 mov	 ecx, ebx
  00057	ff 50 24	 call	 DWORD PTR [eax+36]
  0005a	85 c0		 test	 eax, eax
  0005c	74 61		 je	 SHORT $LN8@ProcessSta

; 759  : 	{
; 760  : 		pMover->OnMagicSkill( 0, m_nMotionHitCount );	// №«№цАЗ ЗЪөй·ҜёҰ ИЈГв.

  0005e	ff b6 9c 00 00
	00		 push	 DWORD PTR [esi+156]
  00064	8b cf		 mov	 ecx, edi
  00066	6a 00		 push	 0
  00068	e8 00 00 00 00	 call	 ?OnMagicSkill@CMover@@QAEHHH@Z ; CMover::OnMagicSkill

; 761  : 		m_nMotionHitCount++;

  0006d	ff 86 9c 00 00
	00		 inc	 DWORD PTR [esi+156]

; 762  : 		
; 763  : 		if( pMover->GetAct() != OBJACT_USESKILL )	

  00073	83 bf ac 11 00
	00 05		 cmp	 DWORD PTR [edi+4524], 5
  0007a	75 43		 jne	 SHORT $LN8@ProcessSta

; 764  : 			return;	// ҪәЕі»зҝлИД ЕёБЎАМ өЗұвАьҝЎ ҙЩёҘ ён·ЙАё·О №ЩІп°жҝм. АМ·ұ»уИІАМ ҝНјұ ҫИөИҙЩ.
; 765  : 		int		nSkill = pMover->GetActParam(0);
; 766  : 		OBJID	idTarget = pMover->GetActParam(1);
; 767  : 		DWORD	dwLevel = pMover->GetActParam(3);
; 768  : 		
; 769  : 		ItemProp* pSkillProp = NULL;
; 770  : 		AddSkillProp* pAddSkillProp = NULL;
; 771  : 		BOOL bRet = pMover->GetSkillProp( &pSkillProp, &pAddSkillProp, nSkill, dwLevel, "ProcessStateMagicSkill" );

  0007c	8b 07		 mov	 eax, DWORD PTR [edi]
  0007e	8d 4d fc	 lea	 ecx, DWORD PTR _pAddSkillProp$2[ebp]
  00081	68 00 00 00 00	 push	 OFFSET ??_C@_0BH@NAELOPMF@ProcessStateMagicSkill@
  00086	ff b7 bc 11 00
	00		 push	 DWORD PTR [edi+4540]
  0008c	c7 45 f8 00 00
	00 00		 mov	 DWORD PTR _pSkillProp$1[ebp], 0
  00093	ff b7 b0 11 00
	00		 push	 DWORD PTR [edi+4528]
  00099	c7 45 fc 00 00
	00 00		 mov	 DWORD PTR _pAddSkillProp$2[ebp], 0
  000a0	51		 push	 ecx
  000a1	8d 4d f8	 lea	 ecx, DWORD PTR _pSkillProp$1[ebp]
  000a4	51		 push	 ecx
  000a5	8b cf		 mov	 ecx, edi
  000a7	ff 50 30	 call	 DWORD PTR [eax+48]

; 772  : 		if( bRet == FALSE )

  000aa	85 c0		 test	 eax, eax
  000ac	74 11		 je	 SHORT $LN8@ProcessSta

; 773  : 			return;
; 774  : 		
; 775  : 		if( pAddSkillProp->nSkillCount > 0 )		// ё¶№эҪәЕіАЗ °жҝм №Я»зГј°іјц°Ў АЦА»¶§.

  000ae	8b 45 fc	 mov	 eax, DWORD PTR _pAddSkillProp$2[ebp]
  000b1	8b 40 74	 mov	 eax, DWORD PTR [eax+116]
  000b4	85 c0		 test	 eax, eax
  000b6	7e 07		 jle	 SHORT $LN8@ProcessSta

; 776  : 		{
; 777  : 			m_nShootCnt = pAddSkillProp->nSkillCount;		// ДіҪәЖГ№Я»зөҝАЫ АМИД xxЗБ·№АУҝЎ ЗС№шҫҝ Вч·К·О №Я»з.
; 778  : 			m_nShootCnt --;		// ҝ©ұвјӯ АМ№М ЗПіӘ №Я»зЗЯАёҙП ЗПіӘ »©БЦҙВ°Ф ёВҙЩ.

  000b8	48		 dec	 eax
  000b9	89 86 98 00 00
	00		 mov	 DWORD PTR [esi+152], eax
$LN8@ProcessSta:

; 779  : 		}
; 780  : 		
; 781  : 	}
; 782  : }

  000bf	5f		 pop	 edi
  000c0	5e		 pop	 esi
  000c1	5b		 pop	 ebx
  000c2	8b e5		 mov	 esp, ebp
  000c4	5d		 pop	 ebp
  000c5	c2 08 00	 ret	 8
?ProcessStateMagicSkill@CActionMover@@QAEXKH@Z ENDP	; CActionMover::ProcessStateMagicSkill
_TEXT	ENDS
; Function compile flags: /Ogtp
; File C:\IAGOS\server\v18\Source\Source\_aiinterface\ActionMoverState.cpp
; File C:\IAGOS\server\v18\Source\Source\_Common\XUtil3D.h
; File C:\Program Files (x86)\Windows Kits\10\Include\10.0.26100.0\ucrt\corecrt_math.h
; File C:\IAGOS\server\v18\Source\Source\_Common\XUtil3D.h
; File C:\IAGOS\server\v18\Source\Source\_AIInterface\ActionMover.h
; File C:\Program Files (x86)\Windows Kits\10\Include\10.0.26100.0\ucrt\corecrt_math.h
; File C:\IAGOS\server\v18\Source\Source\_Common\XUtil3D.h
; File C:\IAGOS\server\v18\Source\Source\_aiinterface\ActionMoverState.cpp
; File C:\IAGOS\server\v18\Source\Source\_Common\XUtil3D.h
; File C:\Program Files (x86)\Windows Kits\10\Include\10.0.26100.0\ucrt\corecrt_math.h
; File C:\IAGOS\server\v18\Source\Source\_Common\XUtil3D.h
; File C:\IAGOS\server\v18\Source\Source\_AIInterface\ActionMover.h
; File C:\Program Files (x86)\Windows Kits\10\Include\10.0.26100.0\ucrt\corecrt_math.h
; File C:\IAGOS\server\v18\Source\Source\_Common\XUtil3D.h
; File C:\IAGOS\server\v18\Source\Source\_aiinterface\ActionMoverState.cpp
;	COMDAT ?ProcessStateMeleeSkill@CActionMover@@QAEXKH@Z
_TEXT	SEGMENT
tv556 = -12						; size = 8
tv557 = -12						; size = 8
_pSkillProp$1 = -8					; size = 4
_nSkill$1$ = -8						; size = 4
_pAddSkillProp$2 = -4					; size = 4
_pMover$1$ = -4						; size = 4
_dwState$ = 8						; size = 4
_nParam$ = 12						; size = 4
?ProcessStateMeleeSkill@CActionMover@@QAEXKH@Z PROC	; CActionMover::ProcessStateMeleeSkill, COMDAT
; _this$ = ecx

; 603  : {

  00000	55		 push	 ebp
  00001	8b ec		 mov	 ebp, esp
  00003	83 ec 0c	 sub	 esp, 12			; 0000000cH
  00006	56		 push	 esi
  00007	8b f1		 mov	 esi, ecx
  00009	57		 push	 edi

; 604  : 	CMover* pMover = m_pMover;

  0000a	8b 46 0c	 mov	 eax, DWORD PTR [esi+12]
  0000d	89 45 fc	 mov	 DWORD PTR _pMover$1$[ebp], eax

; 605  : 	CModelObject *pModel = (CModelObject *)pMover->m_pModel;
; 606  : 
; 607  : 	int nSkill = pMover->GetActParam(0);

  00010	8b 88 b0 11 00
	00		 mov	 ecx, DWORD PTR [eax+4528]
  00016	8b b8 78 01 00
	00		 mov	 edi, DWORD PTR [eax+376]
  0001c	89 4d f8	 mov	 DWORD PTR _nSkill$1$[ebp], ecx

; 608  : 
; 609  : 	if( nSkill == SI_ACR_YOYO_COUNTER )	// ҪОАМ·ұ ҪәЖ®¶уАМЕ©ҙВ ҝ№ҝЬҙЩ.

  0001f	81 f9 cc 00 00
	00		 cmp	 ecx, 204		; 000000ccH
  00025	74 63		 je	 SHORT $LN7@ProcessSta

; 610  : 	{
; 611  : 	}
; 612  : 	else		
; 613  : 	if( nSkill == SI_BLD_DOUBLESW_SILENTSTRIKE )	// ҪОАМ·ұ ҪәЖ®¶уАМЕ©ҙВ ҝ№ҝЬҙЩ.

  00027	81 f9 8a 00 00
	00		 cmp	 ecx, 138		; 0000008aH
  0002d	75 1d		 jne	 SHORT $LN4@ProcessSta

; 614  : 	{
; 615  : 		if( pModel->IsEndFrame() )

  0002f	83 bf 9c 00 00
	00 00		 cmp	 DWORD PTR [edi+156], 0
  00036	74 52		 je	 SHORT $LN7@ProcessSta

; 616  : 		{
; 617  : 			ResetState( OBJSTA_ATK_ALL );

  00038	68 00 00 ff 00	 push	 16711680		; 00ff0000H
  0003d	8b ce		 mov	 ecx, esi
  0003f	e8 00 00 00 00	 call	 ?ResetState@CAction@@QAEXK@Z ; CAction::ResetState
  00044	5f		 pop	 edi

; 685  : 			}
; 686  : 		}
; 687  : 	}
; 688  : }

  00045	5e		 pop	 esi
  00046	8b e5		 mov	 esp, ebp
  00048	5d		 pop	 ebp
  00049	c2 08 00	 ret	 8
$LN4@ProcessSta:
  0004c	66 0f 6e 8f a8
	00 00 00	 movd	 xmm1, DWORD PTR [edi+168]

; 618  : 			return;
; 619  : 		}
; 620  : 	} 
; 621  : 	else
; 622  : 	{
; 623  : 		if( pModel->m_fFrameCurrent >= (pModel->m_nFrameMax * 0.65f) )	// өҝАЫДөҪҪ ЗТ¶§ АМ№ж№эё»°н ҙЩёҘ№ж№эАё·О ЗПАЪ!!!!!!!!!!!!!!!!!!!!!

  00054	f3 0f 10 87 a0
	00 00 00	 movss	 xmm0, DWORD PTR [edi+160]
  0005c	0f 5b c9	 cvtdq2ps xmm1, xmm1
  0005f	f3 0f 59 0d 00
	00 00 00	 mulss	 xmm1, DWORD PTR __real@3f266666
  00067	0f 2f c1	 comiss	 xmm0, xmm1
  0006a	72 1e		 jb	 SHORT $LN7@ProcessSta

; 624  : 		{
; 625  : 			pModel->m_bEndFrame = TRUE;		// ҫЦҙПёҰ БЯ°ЈҝЎ БЯҙЬҪГДЧАё№З·О №ЭөеҪГ АМ°Й TRUE·О ЗШБаҫЯ ЗСҙЩ.
; 626  : 			ResetState( OBJSTA_ATK_ALL );

  0006c	68 00 00 ff 00	 push	 16711680		; 00ff0000H
  00071	8b ce		 mov	 ecx, esi
  00073	c7 87 9c 00 00
	00 01 00 00 00	 mov	 DWORD PTR [edi+156], 1
  0007d	e8 00 00 00 00	 call	 ?ResetState@CAction@@QAEXK@Z ; CAction::ResetState
  00082	5f		 pop	 edi

; 685  : 			}
; 686  : 		}
; 687  : 	}
; 688  : }

  00083	5e		 pop	 esi
  00084	8b e5		 mov	 esp, ebp
  00086	5d		 pop	 ebp
  00087	c2 08 00	 ret	 8
$LN7@ProcessSta:

; 627  : 			return;
; 628  : 		}
; 629  : 	}
; 630  : 
; 631  : 	if( (g_nProcessCnt & 3) == 0 )

  0008a	f6 05 00 00 00
	00 03		 test	 BYTE PTR ?g_nProcessCnt@@3HA, 3
  00091	75 1a		 jne	 SHORT $LN9@ProcessSta

; 632  : 	{
; 633  : 		if( m_nShootCnt > 0 )			// ҝ¬јУ№Я»з°Ў јјЖГөЗёй

  00093	83 be 98 00 00
	00 00		 cmp	 DWORD PTR [esi+152], 0
  0009a	7e 11		 jle	 SHORT $LN9@ProcessSta

; 634  : 		{
; 635  : 			pMover->OnMeleeSkill( 0 );	// ҙЩҪГ №Я»зҪГЕ°°н

  0009c	6a 01		 push	 1
  0009e	6a 00		 push	 0
  000a0	8b c8		 mov	 ecx, eax
  000a2	e8 00 00 00 00	 call	 ?OnMeleeSkill@CMover@@QAEHHH@Z ; CMover::OnMeleeSkill

; 636  : 			m_nShootCnt--;				// °іјц ЗПіӘҫҝ »ӯ.

  000a7	ff 8e 98 00 00
	00		 dec	 DWORD PTR [esi+152]
$LN9@ProcessSta:

; 637  : 		}
; 638  : 	}
; 639  : 	
; 640  : 
; 641  : 	if( pModel->m_nPause > 0 )

  000ad	8b 87 94 00 00
	00		 mov	 eax, DWORD PTR [edi+148]
  000b3	85 c0		 test	 eax, eax
  000b5	7e 0f		 jle	 SHORT $LN10@ProcessSta

; 642  : 	{
; 643  : 		pModel->m_nPause --;

  000b7	48		 dec	 eax
  000b8	89 87 94 00 00
	00		 mov	 DWORD PTR [edi+148], eax
  000be	5f		 pop	 edi

; 685  : 			}
; 686  : 		}
; 687  : 	}
; 688  : }

  000bf	5e		 pop	 esi
  000c0	8b e5		 mov	 esp, ebp
  000c2	5d		 pop	 ebp
  000c3	c2 08 00	 ret	 8
$LN10@ProcessSta:

; 644  : 	} 
; 645  : 	else
; 646  : 	{
; 647  : 		if( pModel->IsAttrHit() )	// ЗцАз ЗБ·№АУҝЎ Её°ЭјУјәАМ АЦҙВ°Ў?

  000c6	8b 07		 mov	 eax, DWORD PTR [edi]
  000c8	8b cf		 mov	 ecx, edi
  000ca	8b 40 24	 mov	 eax, DWORD PTR [eax+36]
  000cd	ff d0		 call	 eax
  000cf	85 c0		 test	 eax, eax
  000d1	0f 84 22 01 00
	00		 je	 $LN18@ProcessSta

; 648  : 		{
; 649  : 			if( nSkill == SI_BLD_DOUBLESW_SILENTSTRIKE )	// ҪОАМ·ұ ҪәЖ®¶уАМЕ©ҙВ ҝ№ҝЬҙЩ.

  000d7	8b 45 f8	 mov	 eax, DWORD PTR _nSkill$1$[ebp]
  000da	8b 7d fc	 mov	 edi, DWORD PTR _pMover$1$[ebp]
  000dd	3d 8a 00 00 00	 cmp	 eax, 138		; 0000008aH
  000e2	75 54		 jne	 SHORT $LN13@ProcessSta
; File C:\IAGOS\server\v18\Source\Source\_Common\XUtil3D.h

; 39   : 	fAngXZ = D3DXToRadian(fAngXZ);

  000e4	f3 0f 10 47 18	 movss	 xmm0, DWORD PTR [edi+24]
  000e9	f3 0f 59 05 00
	00 00 00	 mulss	 xmm0, DWORD PTR __real@3c8efa35
; File C:\Program Files (x86)\Windows Kits\10\Include\10.0.26100.0\ucrt\corecrt_math.h

; 789  :             return (float)sin(_X);

  000f1	0f 5a c0	 cvtps2pd xmm0, xmm0
  000f4	f2 0f 11 45 f4	 movsd	 QWORD PTR tv557[ebp], xmm0
  000f9	e8 00 00 00 00	 call	 __libm_sse2_sin_precise
  000fe	0f 57 c9	 xorps	 xmm1, xmm1
  00101	f2 0f 5a c8	 cvtsd2ss xmm1, xmm0
; File C:\IAGOS\server\v18\Source\Source\_Common\XUtil3D.h

; 40   : 	vDelta->x = sinf(fAngXZ) * fSpeed;

  00105	f3 0f 59 0d 00
	00 00 00	 mulss	 xmm1, DWORD PTR __real@3f400000
; File C:\IAGOS\server\v18\Source\Source\_AIInterface\ActionMover.h

; 132  : 	void			SetExternalForce( const D3DXVECTOR3 &vForce ) { m_vDeltaE = vForce; }		// ҝЬәОҝЎјӯ °ЎЗШБцҙВ Иы.

  0010d	f3 0f 11 4e 5c	 movss	 DWORD PTR [esi+92], xmm1
  00112	c7 46 60 00 00
	00 00		 mov	 DWORD PTR [esi+96], 0
; File C:\Program Files (x86)\Windows Kits\10\Include\10.0.26100.0\ucrt\corecrt_math.h

; 683  :             return (float)cos(_X);

  00119	f2 0f 10 45 f4	 movsd	 xmm0, QWORD PTR tv557[ebp]
  0011e	e8 00 00 00 00	 call	 __libm_sse2_cos_precise
  00123	f2 0f 5a c0	 cvtsd2ss xmm0, xmm0
; File C:\IAGOS\server\v18\Source\Source\_Common\XUtil3D.h

; 41   : 	vDelta->z = -cosf(fAngXZ) * fSpeed;

  00127	0f 57 05 00 00
	00 00		 xorps	 xmm0, DWORD PTR __xmm@80000000800000008000000080000000
  0012e	f3 0f 59 05 00
	00 00 00	 mulss	 xmm0, DWORD PTR __real@3f400000
; File C:\IAGOS\server\v18\Source\Source\_aiinterface\ActionMoverState.cpp

; 654  : 			} 

  00136	eb 59		 jmp	 SHORT $LN58@ProcessSta
$LN13@ProcessSta:

; 655  : 			else if( nSkill == SI_BIL_KNU_BELIALSMESHING )	// әЈё®ҫЛ ҪәёЕҪМөө ҫХАё·О АьБш.

  00138	3d 98 00 00 00	 cmp	 eax, 152		; 00000098H
  0013d	75 57		 jne	 SHORT $LN15@ProcessSta
; File C:\IAGOS\server\v18\Source\Source\_Common\XUtil3D.h

; 39   : 	fAngXZ = D3DXToRadian(fAngXZ);

  0013f	f3 0f 10 47 18	 movss	 xmm0, DWORD PTR [edi+24]
  00144	f3 0f 59 05 00
	00 00 00	 mulss	 xmm0, DWORD PTR __real@3c8efa35
; File C:\Program Files (x86)\Windows Kits\10\Include\10.0.26100.0\ucrt\corecrt_math.h

; 789  :             return (float)sin(_X);

  0014c	0f 5a c0	 cvtps2pd xmm0, xmm0
  0014f	f2 0f 11 45 f4	 movsd	 QWORD PTR tv556[ebp], xmm0
  00154	e8 00 00 00 00	 call	 __libm_sse2_sin_precise
  00159	0f 57 c9	 xorps	 xmm1, xmm1
  0015c	f2 0f 5a c8	 cvtsd2ss xmm1, xmm0
; File C:\IAGOS\server\v18\Source\Source\_Common\XUtil3D.h

; 40   : 	vDelta->x = sinf(fAngXZ) * fSpeed;

  00160	f3 0f 59 0d 00
	00 00 00	 mulss	 xmm1, DWORD PTR __real@3eb33333
; File C:\IAGOS\server\v18\Source\Source\_AIInterface\ActionMover.h

; 132  : 	void			SetExternalForce( const D3DXVECTOR3 &vForce ) { m_vDeltaE = vForce; }		// ҝЬәОҝЎјӯ °ЎЗШБцҙВ Иы.

  00168	f3 0f 11 4e 5c	 movss	 DWORD PTR [esi+92], xmm1
  0016d	c7 46 60 00 00
	00 00		 mov	 DWORD PTR [esi+96], 0
; File C:\Program Files (x86)\Windows Kits\10\Include\10.0.26100.0\ucrt\corecrt_math.h

; 683  :             return (float)cos(_X);

  00174	f2 0f 10 45 f4	 movsd	 xmm0, QWORD PTR tv556[ebp]
  00179	e8 00 00 00 00	 call	 __libm_sse2_cos_precise
  0017e	f2 0f 5a c0	 cvtsd2ss xmm0, xmm0
; File C:\IAGOS\server\v18\Source\Source\_Common\XUtil3D.h

; 41   : 	vDelta->z = -cosf(fAngXZ) * fSpeed;

  00182	0f 57 05 00 00
	00 00		 xorps	 xmm0, DWORD PTR __xmm@80000000800000008000000080000000
  00189	f3 0f 59 05 00
	00 00 00	 mulss	 xmm0, DWORD PTR __real@3eb33333
$LN58@ProcessSta:
; File C:\IAGOS\server\v18\Source\Source\_aiinterface\ActionMoverState.cpp

; 662  : 			pMover->OnMeleeSkill( 0, m_nMotionHitCount );	// №«№цАЗ ЗЪөй·ҜёҰ ИЈГв.

  00191	f3 0f 11 46 64	 movss	 DWORD PTR [esi+100], xmm0
$LN15@ProcessSta:
  00196	ff b6 9c 00 00
	00		 push	 DWORD PTR [esi+156]
  0019c	8b cf		 mov	 ecx, edi
  0019e	6a 00		 push	 0
  001a0	e8 00 00 00 00	 call	 ?OnMeleeSkill@CMover@@QAEHHH@Z ; CMover::OnMeleeSkill

; 663  : 			m_nMotionHitCount++;

  001a5	ff 86 9c 00 00
	00		 inc	 DWORD PTR [esi+156]

; 664  : 
; 665  : #ifdef __CLIENT			
; 666  : 			pModel->m_nPause = 4;	// frame ёШГг - Е¬¶уАП°жҝмёё ёШГЯАЪ.
; 667  : #endif
; 668  : 
; 669  : 			if( pMover->GetAct() != OBJACT_USESKILL )	

  001ab	83 bf ac 11 00
	00 05		 cmp	 DWORD PTR [edi+4524], 5
  001b2	75 45		 jne	 SHORT $LN18@ProcessSta

; 670  : 				return;	// ҪәЕі»зҝлИД ЕёБЎАМ өЗұвАьҝЎ ҙЩёҘ ён·ЙАё·О №ЩІп°жҝм. АМ·ұ»уИІАМ ҝНјұ ҫИөИҙЩ.
; 671  : 			int		nSkill = pMover->GetActParam(0);
; 672  : 			OBJID	idTarget = pMover->GetActParam(1);
; 673  : 			DWORD	dwLevel = pMover->GetActParam(3);
; 674  : 			
; 675  : 			ItemProp* pSkillProp = NULL;
; 676  : 			AddSkillProp* pAddSkillProp = NULL;
; 677  : 			BOOL bRet = pMover->GetSkillProp( &pSkillProp, &pAddSkillProp, nSkill, dwLevel, "ProcessStateMeleeSkill" );

  001b4	8b 07		 mov	 eax, DWORD PTR [edi]
  001b6	8d 4d fc	 lea	 ecx, DWORD PTR _pAddSkillProp$2[ebp]
  001b9	68 00 00 00 00	 push	 OFFSET ??_C@_0BH@GPIKPBBH@ProcessStateMeleeSkill@
  001be	ff b7 bc 11 00
	00		 push	 DWORD PTR [edi+4540]
  001c4	c7 45 f8 00 00
	00 00		 mov	 DWORD PTR _pSkillProp$1[ebp], 0
  001cb	ff b7 b0 11 00
	00		 push	 DWORD PTR [edi+4528]
  001d1	8b 40 30	 mov	 eax, DWORD PTR [eax+48]
  001d4	51		 push	 ecx
  001d5	8d 4d f8	 lea	 ecx, DWORD PTR _pSkillProp$1[ebp]
  001d8	c7 45 fc 00 00
	00 00		 mov	 DWORD PTR _pAddSkillProp$2[ebp], 0
  001df	51		 push	 ecx
  001e0	8b cf		 mov	 ecx, edi
  001e2	ff d0		 call	 eax

; 678  : 			if( bRet == FALSE )

  001e4	85 c0		 test	 eax, eax
  001e6	74 11		 je	 SHORT $LN18@ProcessSta

; 679  : 				return;
; 680  : 			
; 681  : 			if( pAddSkillProp->nSkillCount > 0 )		// ё¶№эҪәЕіАЗ °жҝм №Я»зГј°іјц°Ў АЦА»¶§.

  001e8	8b 45 fc	 mov	 eax, DWORD PTR _pAddSkillProp$2[ebp]
  001eb	8b 40 74	 mov	 eax, DWORD PTR [eax+116]
  001ee	85 c0		 test	 eax, eax
  001f0	7e 07		 jle	 SHORT $LN18@ProcessSta

; 682  : 			{
; 683  : 				m_nShootCnt = pAddSkillProp->nSkillCount;		// ДіҪәЖГ№Я»зөҝАЫ АМИД xxЗБ·№АУҝЎ ЗС№шҫҝ Вч·К·О №Я»з.
; 684  : 				m_nShootCnt --;		// ҝ©ұвјӯ АМ№М ЗПіӘ №Я»зЗЯАёҙП ЗПіӘ »©БЦҙВ°Ф ёВҙЩ.

  001f2	48		 dec	 eax
  001f3	89 86 98 00 00
	00		 mov	 DWORD PTR [esi+152], eax
$LN18@ProcessSta:

; 685  : 			}
; 686  : 		}
; 687  : 	}
; 688  : }

  001f9	5f		 pop	 edi
  001fa	5e		 pop	 esi
  001fb	8b e5		 mov	 esp, ebp
  001fd	5d		 pop	 ebp
  001fe	c2 08 00	 ret	 8
?ProcessStateMeleeSkill@CActionMover@@QAEXKH@Z ENDP	; CActionMover::ProcessStateMeleeSkill
_TEXT	ENDS
; Function compile flags: /Ogtp
; File C:\IAGOS\server\v18\Source\Source\_aiinterface\ActionMoverState.cpp
; File C:\IAGOS\server\v18\Source\Source\_Common\Obj.h
; File C:\IAGOS\server\v18\Source\Source\_Common\Mover.h
; File C:\IAGOS\server\v18\Source\Source\_aiinterface\ActionMoverState.cpp
;	COMDAT ?ProcessStateAttackRange@CActionMover@@QAEXKH@Z
_TEXT	SEGMENT
_dwState$ = 8						; size = 4
_nParam$ = 12						; size = 4
?ProcessStateAttackRange@CActionMover@@QAEXKH@Z PROC	; CActionMover::ProcessStateAttackRange, COMDAT
; _this$ = ecx

; 1168 : {

  00000	55		 push	 ebp
  00001	8b ec		 mov	 ebp, esp

; 1171 : 	
; 1172 : 	switch( dwState )

  00003	81 7d 08 00 00
	06 00		 cmp	 DWORD PTR _dwState$[ebp], 393216 ; 00060000H
  0000a	57		 push	 edi
  0000b	8b f9		 mov	 edi, ecx
  0000d	75 6b		 jne	 SHORT $LN7@ProcessSta

; 1169 : 	CMover* pMover = m_pMover;

  0000f	53		 push	 ebx
  00010	56		 push	 esi
  00011	8b 77 0c	 mov	 esi, DWORD PTR [edi+12]

; 1170 : 	CModelObject	*pModel = (CModelObject *)pMover->m_pModel;

  00014	8b 9e 78 01 00
	00		 mov	 ebx, DWORD PTR [esi+376]

; 1173 : 	{
; 1174 : 	case OBJSTA_ATK_RANGE1:
; 1175 : 		// өҝАЫАМ іЎіӘёй »уЕВ ЗШБҰ
; 1176 : 		if( pModel->IsEndFrame() )

  0001a	83 bb 9c 00 00
	00 00		 cmp	 DWORD PTR [ebx+156], 0
  00021	74 0a		 je	 SHORT $LN5@ProcessSta

; 1177 : 		{
; 1178 : 			ResetState( OBJSTA_ATK_ALL );

  00023	68 00 00 ff 00	 push	 16711680		; 00ff0000H
  00028	e8 00 00 00 00	 call	 ?ResetState@CAction@@QAEXK@Z ; CAction::ResetState
$LN5@ProcessSta:

; 1179 : 		}
; 1180 : 		if( pModel->IsAttrHit() )			// ЗцАз ЗБ·№АУҝЎ Её°ЭјУјәАМ АЦҙВ°Ў? 

  0002d	8b 03		 mov	 eax, DWORD PTR [ebx]
  0002f	8b cb		 mov	 ecx, ebx
  00031	ff 50 24	 call	 DWORD PTR [eax+36]
  00034	85 c0		 test	 eax, eax
  00036	74 40		 je	 SHORT $LN29@ProcessSta

; 1181 : 		{
; 1182 : 			pMover->m_dwFlag |= MVRF_HITCONT;	

  00038	83 8e 44 02 00
	00 20		 or	 DWORD PTR [esi+580], 32	; 00000020H

; 1183 : 			CMover* pHitObj	= prj.GetMover( m_idTarget );

  0003f	b9 00 00 00 00	 mov	 ecx, OFFSET ?prj@@3VCProject@@A ; prj
  00044	ff b7 88 00 00
	00		 push	 DWORD PTR [edi+136]
  0004a	e8 00 00 00 00	 call	 ?GetMover@CProject@@QAEPAVCMover@@K@Z ; CProject::GetMover
; File C:\IAGOS\server\v18\Source\Source\_Common\Obj.h

; 327  : 	return pObj && ( pObj->IsDelete() == FALSE ); 

  0004f	85 c0		 test	 eax, eax
  00051	74 25		 je	 SHORT $LN29@ProcessSta

; 180  : 	BOOL			IsDelete()	{ return (m_dwFlags & OBJ_FLAG_DELETE);  }

  00053	f6 40 04 01	 test	 BYTE PTR [eax+4], 1

; 327  : 	return pObj && ( pObj->IsDelete() == FALSE ); 

  00057	75 1f		 jne	 SHORT $LN29@ProcessSta
; File C:\IAGOS\server\v18\Source\Source\_Common\Mover.h

; 1251 : 	BOOL			IsLive() { return m_pActMover->IsDie() == FALSE || m_nHitPoint > 0; }		// && ёҰ  ||·О №ЩІеАҪ.  !=ёҰ >·О №ЩІЮ

  00059	8b 90 38 02 00
	00		 mov	 edx, DWORD PTR [eax+568]
  0005f	f7 42 04 00 00
	00 08		 test	 DWORD PTR [edx+4], 134217728 ; 08000000H
  00066	74 09		 je	 SHORT $LN21@ProcessSta
  00068	83 b8 f8 05 00
	00 00		 cmp	 DWORD PTR [eax+1528], 0
  0006f	7e 07		 jle	 SHORT $LN29@ProcessSta
$LN21@ProcessSta:
; File C:\IAGOS\server\v18\Source\Source\_aiinterface\ActionMoverState.cpp

; 1186 : 				pMover->OnAttackRange();

  00071	8b ce		 mov	 ecx, esi
  00073	e8 00 00 00 00	 call	 ?OnAttackRange@CMover@@QAEHXZ ; CMover::OnAttackRange
$LN29@ProcessSta:
  00078	5e		 pop	 esi
  00079	5b		 pop	 ebx
$LN7@ProcessSta:
  0007a	5f		 pop	 edi

; 1187 : 		}
; 1188 : 		break;
; 1189 : 	}
; 1190 : 
; 1191 : }

  0007b	5d		 pop	 ebp
  0007c	c2 08 00	 ret	 8
?ProcessStateAttackRange@CActionMover@@QAEXKH@Z ENDP	; CActionMover::ProcessStateAttackRange
_TEXT	ENDS
; Function compile flags: /Ogtp
; File C:\IAGOS\server\v18\Source\Source\_aiinterface\ActionMoverState.cpp
;	COMDAT ?ProcessStateAttackMagic@CActionMover@@QAEXKH@Z
_TEXT	SEGMENT
_dwState$ = 8						; size = 4
_nParam$ = 12						; size = 4
?ProcessStateAttackMagic@CActionMover@@QAEXKH@Z PROC	; CActionMover::ProcessStateAttackMagic, COMDAT
; _this$ = ecx

; 1145 : {

  00000	55		 push	 ebp
  00001	8b ec		 mov	 ebp, esp

; 1148 : 	
; 1149 : 	switch( dwState )

  00003	81 7d 08 00 00
	05 00		 cmp	 DWORD PTR _dwState$[ebp], 327680 ; 00050000H
  0000a	75 32		 jne	 SHORT $LN6@ProcessSta

; 1146 : 	CMover* pMover = m_pMover;

  0000c	56		 push	 esi
  0000d	57		 push	 edi
  0000e	8b 79 0c	 mov	 edi, DWORD PTR [ecx+12]

; 1147 : 	CModelObject	*pModel = (CModelObject *)pMover->m_pModel;

  00011	8b b7 78 01 00
	00		 mov	 esi, DWORD PTR [edi+376]

; 1150 : 	{
; 1151 : 	case OBJSTA_ATK_MAGIC1:
; 1152 : 		if( pModel->IsEndFrame() )

  00017	83 be 9c 00 00
	00 00		 cmp	 DWORD PTR [esi+156], 0
  0001e	74 0a		 je	 SHORT $LN5@ProcessSta

; 1153 : 			ResetState( OBJSTA_ATK_ALL );

  00020	68 00 00 ff 00	 push	 16711680		; 00ff0000H
  00025	e8 00 00 00 00	 call	 ?ResetState@CAction@@QAEXK@Z ; CAction::ResetState
$LN5@ProcessSta:

; 1154 : 
; 1155 : 		if( pModel->IsAttrHit() )			// ЗцАз ЗБ·№АУҝЎ Её°ЭјУјәАМ АЦҙВ°Ў? 

  0002a	8b 06		 mov	 eax, DWORD PTR [esi]
  0002c	8b ce		 mov	 ecx, esi
  0002e	ff 50 24	 call	 DWORD PTR [eax+36]
  00031	85 c0		 test	 eax, eax
  00033	74 07		 je	 SHORT $LN11@ProcessSta

; 1156 : 		{
; 1157 : 			pMover->OnAttackMagic();		// №«№цАЗ ҝПөе°ш°Э ЗЪөй·ҜёҰ ИЈГв.

  00035	8b cf		 mov	 ecx, edi
  00037	e8 00 00 00 00	 call	 ?OnAttackMagic@CMover@@QAEHXZ ; CMover::OnAttackMagic
$LN11@ProcessSta:
  0003c	5f		 pop	 edi
  0003d	5e		 pop	 esi
$LN6@ProcessSta:

; 1158 : 		}
; 1159 : 		break;
; 1160 : 	}
; 1161 : }

  0003e	5d		 pop	 ebp
  0003f	c2 08 00	 ret	 8
?ProcessStateAttackMagic@CActionMover@@QAEXKH@Z ENDP	; CActionMover::ProcessStateAttackMagic
_TEXT	ENDS
; Function compile flags: /Ogtp
; File C:\IAGOS\server\v18\Source\Source\_aiinterface\ActionMoverState.cpp
;	COMDAT ?ProcessStateAttackSP@CActionMover@@QAEXKH@Z
_TEXT	SEGMENT
_dwState$ = 8						; size = 4
_nParam$ = 12						; size = 4
?ProcessStateAttackSP@CActionMover@@QAEXKH@Z PROC	; CActionMover::ProcessStateAttackSP, COMDAT
; _this$ = ecx

; 1120 : {

  00000	55		 push	 ebp
  00001	8b ec		 mov	 ebp, esp

; 1123 : 	
; 1124 : 	switch( dwState )

  00003	8b 45 08	 mov	 eax, DWORD PTR _dwState$[ebp]
  00006	3d 00 00 10 00	 cmp	 eax, 1048576		; 00100000H
  0000b	74 07		 je	 SHORT $LN4@ProcessSta
  0000d	3d 00 00 20 00	 cmp	 eax, 2097152		; 00200000H
  00012	75 32		 jne	 SHORT $LN7@ProcessSta
$LN4@ProcessSta:
  00014	56		 push	 esi
  00015	57		 push	 edi

; 1121 : 	CMover* pMover = m_pMover;

  00016	8b 79 0c	 mov	 edi, DWORD PTR [ecx+12]

; 1122 : 	CModelObject	*pModel = (CModelObject *)pMover->m_pModel;

  00019	8b b7 78 01 00
	00		 mov	 esi, DWORD PTR [edi+376]

; 1125 : 	{
; 1126 : 	case OBJSTA_SP_ATK1:
; 1127 : 	case OBJSTA_SP_ATK2:
; 1128 : 		if( pModel->IsEndFrame() )

  0001f	83 be 9c 00 00
	00 00		 cmp	 DWORD PTR [esi+156], 0
  00026	74 0a		 je	 SHORT $LN6@ProcessSta

; 1129 : 		{
; 1130 : 			ResetState( OBJSTA_ATK_ALL );

  00028	68 00 00 ff 00	 push	 16711680		; 00ff0000H
  0002d	e8 00 00 00 00	 call	 ?ResetState@CAction@@QAEXK@Z ; CAction::ResetState
$LN6@ProcessSta:

; 1131 : 		}
; 1132 : 		if( pModel->IsAttrHit() )			// ЗцАз ЗБ·№АУҝЎ Её°ЭјУјәАМ АЦҙВ°Ў? 

  00032	8b 06		 mov	 eax, DWORD PTR [esi]
  00034	8b ce		 mov	 ecx, esi
  00036	ff 50 24	 call	 DWORD PTR [eax+36]
  00039	85 c0		 test	 eax, eax
  0003b	74 07		 je	 SHORT $LN12@ProcessSta

; 1133 : 		{
; 1134 : 			pMover->OnAttackSP();		// №«№цАЗ ЖҜјц°ш°Э ЗЪөй·ҜёҰ ИЈГв.

  0003d	8b cf		 mov	 ecx, edi
  0003f	e8 00 00 00 00	 call	 ?OnAttackSP@CMover@@QAEHXZ ; CMover::OnAttackSP
$LN12@ProcessSta:
  00044	5f		 pop	 edi
  00045	5e		 pop	 esi
$LN7@ProcessSta:

; 1135 : 		}
; 1136 : 		break;
; 1137 : 	}
; 1138 : }

  00046	5d		 pop	 ebp
  00047	c2 08 00	 ret	 8
?ProcessStateAttackSP@CActionMover@@QAEXKH@Z ENDP	; CActionMover::ProcessStateAttackSP
_TEXT	ENDS
; Function compile flags: /Ogtp
; File C:\IAGOS\server\v18\Source\Source\_aiinterface\ActionMoverState.cpp
; File C:\IAGOS\server\v18\Source\Source\_Common\Obj.h
; File C:\IAGOS\server\v18\Source\Source\_Common\Mover.h
; File C:\IAGOS\server\v18\Source\Source\_aiinterface\ActionMoverState.cpp
;	COMDAT ?_ProcessStateAttack@CActionMover@@QAEXKH@Z
_TEXT	SEGMENT
_this$1$ = -8						; size = 4
_pModel$1$ = -4						; size = 4
_dwState$ = 8						; size = 4
_nParam$ = 12						; size = 4
?_ProcessStateAttack@CActionMover@@QAEXKH@Z PROC	; CActionMover::_ProcessStateAttack, COMDAT
; _this$ = ecx

; 788  : {

  00000	55		 push	 ebp
  00001	8b ec		 mov	 ebp, esp
  00003	83 ec 08	 sub	 esp, 8
  00006	56		 push	 esi

; 789  : 
; 790  : 	CMover* pMover = m_pMover;
; 791  : 	CModelObject	*pModel = (CModelObject *)pMover->m_pModel;
; 792  : 
; 793  : 	switch( dwState )

  00007	8b 75 08	 mov	 esi, DWORD PTR _dwState$[ebp]
  0000a	89 4d f8	 mov	 DWORD PTR _this$1$[ebp], ecx
  0000d	57		 push	 edi
  0000e	8b 79 0c	 mov	 edi, DWORD PTR [ecx+12]
  00011	8b 87 78 01 00
	00		 mov	 eax, DWORD PTR [edi+376]
  00017	89 45 fc	 mov	 DWORD PTR _pModel$1$[ebp], eax
  0001a	81 fe 00 00 03
	00		 cmp	 esi, 196608		; 00030000H
  00020	77 1a		 ja	 SHORT $LN32@ProcessSta
  00022	74 24		 je	 SHORT $LN8@ProcessSta
  00024	81 fe 00 00 01
	00		 cmp	 esi, 65536		; 00010000H
  0002a	74 1c		 je	 SHORT $LN8@ProcessSta
  0002c	81 fe 00 00 02
	00		 cmp	 esi, 131072		; 00020000H
  00032	74 14		 je	 SHORT $LN8@ProcessSta

; 1098 : 				}
; 1099 : 			} // is hitattr ?
; 1100 : 
; 1101 : 		#if defined(__CLIENT)
; 1102 : 			if( pModel->IsAttrQuake() )
; 1103 : 			{
; 1104 : 				if( pMover->m_dwIndex == MI_BIGMUSCLE || 
; 1105 : 					pMover->m_dwIndex == MI_KRRR || 
; 1106 : 					pMover->m_dwIndex == MI_MUSHMOOT )
; 1107 : 					pMover->GetWorld()->m_pCamera->SetQuake( 60, 0.7f );	
; 1108 : 			}
; 1109 : 		#endif // defined(__CLIENT)
; 1110 : 			
; 1111 : 		}
; 1112 : 		break;
; 1113 : 	}
; 1114 : }

  00034	5f		 pop	 edi
  00035	5e		 pop	 esi
  00036	8b e5		 mov	 esp, ebp
  00038	5d		 pop	 ebp
  00039	c2 08 00	 ret	 8
$LN32@ProcessSta:

; 789  : 
; 790  : 	CMover* pMover = m_pMover;
; 791  : 	CModelObject	*pModel = (CModelObject *)pMover->m_pModel;
; 792  : 
; 793  : 	switch( dwState )

  0003c	81 fe 00 00 04
	00		 cmp	 esi, 262144		; 00040000H
  00042	0f 85 2f 01 00
	00		 jne	 $LN28@ProcessSta
$LN8@ProcessSta:

; 794  : 	{
; 795  : 	case OBJSTA_ATK1:
; 796  : 	case OBJSTA_ATK2:
; 797  : 	case OBJSTA_ATK3:
; 798  : 	case OBJSTA_ATK4:
; 799  : 		// °ш°ЭөҝАЫАМ іЎіӘёй °ш°Э»уЕВ ЗШБҰ
; 800  : 		if( pMover->IsPlayer() )

  00048	83 bf 30 02 00
	00 00		 cmp	 DWORD PTR [edi+560], 0
  0004f	53		 push	 ebx
  00050	74 52		 je	 SHORT $LN12@ProcessSta

; 801  : 		{
; 802  : 			int		nReqLevel = 0;		// ҙЩАҪ ҝ¬Её·О іСҫо°Ўұв А§ЗС ЗКҝд·№ә§.
; 803  : 			OBJMSG	dwNextMsg = OBJMSG_ATK2;
; 804  : 			switch( dwState )

  00052	81 fe 00 00 03
	00		 cmp	 esi, 196608		; 00030000H
  00058	77 1d		 ja	 SHORT $LN31@ProcessSta
  0005a	74 23		 je	 SHORT $LN14@ProcessSta
  0005c	81 fe 00 00 01
	00		 cmp	 esi, 65536		; 00010000H
  00062	74 1b		 je	 SHORT $LN14@ProcessSta
  00064	81 fe 00 00 02
	00		 cmp	 esi, 131072		; 00020000H
  0006a	74 13		 je	 SHORT $LN14@ProcessSta

; 824  : 				#ifdef __CLIENT
; 825  : 					if( GetMover()->IsActiveMover() )
; 826  : 					{
; 827  : 						if( (pMover->GetLevel() >= nReqLevel) && ((m_dwCtrlMsg & CTRLMSG_LDOWN) || ((CWndWorld *)g_WndMng.m_pWndWorld)->m_bAutoAttack) )	// Бчҫч·№ә§ XАМ»уАМёй ҙЩАҪҝ¬Её°ЎҙЙ
; 828  : 						{
; 829  : 							ItemProp* pItemProp = pMover->GetActiveHandItemProp();
; 830  : 							if( pItemProp && pItemProp->dwItemKind3 == IK3_YOYO )
; 831  : 							{
; 832  : 								if( dwState == OBJSTA_ATK2 || dwState == OBJSTA_ATK3 || dwState == OBJSTA_ATK4 )
; 833  : 									break;
; 834  : 							}
; 835  : 
; 836  : 							CMover* pHitObj	= prj.GetMover( m_objidHit );
; 837  : 							if( IsValidObj( (CObj*)pHitObj ) &&		// ҙЩАҪ ҪәЕіАМ ҝ№ҫаөЗҫоАЦАёёй ҝ©ұвјӯ іЎіҪҙЩ.
; 838  : 								g_WndMng.m_pWndWorld->GetNextSkill() == NEXTSKILL_NONE ) 
; 839  : 							{
; 840  : 								int nError	= SendActMsg( dwNextMsg, m_objidHit, MAKELONG( 0, 0 ), MAKELONG( 0, 0 ) );
; 841  : 								if( nError > 0 )	
; 842  : 								{
; 843  : #ifdef __HACK_1023
; 844  : 									ItemProp* pHandItemProp		= pMover->GetActiveHandItemProp();
; 845  : 									FLOAT fVal	= pHandItemProp? pHandItemProp->fAttackSpeed: 0.0F;
; 846  : 									g_DPlay.SendMeleeAttack ( dwNextMsg, m_objidHit, MAKELONG( 0, 0 ), MAKELONG( 0, (WORD)nError ), fVal );
; 847  : #else	// __HACK_1023
; 848  : 									g_DPlay.SendMeleeAttack ( dwNextMsg, m_objidHit, MAKELONG( 0, 0 ), MAKELONG( 0, (WORD)nError ) );
; 849  : #endif	// __HACK_1023
; 850  : 								}
; 851  : 							} else
; 852  : 								m_objidHit = NULL_ID;
; 853  : 						}
; 854  : 					}
; 855  : 				#endif	// CLIENT
; 856  : 				}
; 857  : 				break;
; 858  : 			}
; 859  : 		} 

  0006c	8d 9f 44 02 00
	00		 lea	 ebx, DWORD PTR [edi+580]
  00072	e9 84 00 00 00	 jmp	 $LN24@ProcessSta
$LN31@ProcessSta:

; 801  : 		{
; 802  : 			int		nReqLevel = 0;		// ҙЩАҪ ҝ¬Её·О іСҫо°Ўұв А§ЗС ЗКҝд·№ә§.
; 803  : 			OBJMSG	dwNextMsg = OBJMSG_ATK2;
; 804  : 			switch( dwState )

  00077	81 fe 00 00 04
	00		 cmp	 esi, 262144		; 00040000H
  0007d	75 1d		 jne	 SHORT $LN22@ProcessSta
$LN14@ProcessSta:

; 805  : 			{
; 806  : 			case OBJSTA_ATK1:	
; 807  : 			case OBJSTA_ATK2:	
; 808  : 			case OBJSTA_ATK3:	
; 809  : 			case OBJSTA_ATK4:	
; 810  : 
; 811  : 				switch( dwState )
; 812  : 				{
; 813  : 				case OBJSTA_ATK1:	nReqLevel = 2;	dwNextMsg = OBJMSG_ATK2;	break;
; 814  : 				case OBJSTA_ATK2:	nReqLevel = 8;	dwNextMsg = OBJMSG_ATK3;	break;
; 815  : 				case OBJSTA_ATK3:	nReqLevel = 12;	dwNextMsg = OBJMSG_ATK4;	break;
; 816  : 				case OBJSTA_ATK4:	nReqLevel = 999;	dwNextMsg = OBJMSG_ATK1;	break;
; 817  : 				}
; 818  : 				if( pModel->IsEndFrame() )		// ҫЦҙПёЮАМјЗАМ іЎіөҙЩ. ҝ¬Её·О іСҫо°ҘІ«Бц ё»І«Бц.

  0007f	83 b8 9c 00 00
	00 00		 cmp	 DWORD PTR [eax+156], 0
  00086	74 14		 je	 SHORT $LN22@ProcessSta

; 819  : 				{
; 820  : 				#ifdef __WORLDSERVER					
; 821  : 					m_objidHit = NULL_ID;
; 822  : 				#endif
; 823  : 					ResetState( OBJSTA_ATK_ALL );

  00088	68 00 00 ff 00	 push	 16711680		; 00ff0000H
  0008d	c7 81 a4 00 00
	00 ff ff ff ff	 mov	 DWORD PTR [ecx+164], -1
  00097	e8 00 00 00 00	 call	 ?ResetState@CAction@@QAEXK@Z ; CAction::ResetState
$LN22@ProcessSta:

; 824  : 				#ifdef __CLIENT
; 825  : 					if( GetMover()->IsActiveMover() )
; 826  : 					{
; 827  : 						if( (pMover->GetLevel() >= nReqLevel) && ((m_dwCtrlMsg & CTRLMSG_LDOWN) || ((CWndWorld *)g_WndMng.m_pWndWorld)->m_bAutoAttack) )	// Бчҫч·№ә§ XАМ»уАМёй ҙЩАҪҝ¬Её°ЎҙЙ
; 828  : 						{
; 829  : 							ItemProp* pItemProp = pMover->GetActiveHandItemProp();
; 830  : 							if( pItemProp && pItemProp->dwItemKind3 == IK3_YOYO )
; 831  : 							{
; 832  : 								if( dwState == OBJSTA_ATK2 || dwState == OBJSTA_ATK3 || dwState == OBJSTA_ATK4 )
; 833  : 									break;
; 834  : 							}
; 835  : 
; 836  : 							CMover* pHitObj	= prj.GetMover( m_objidHit );
; 837  : 							if( IsValidObj( (CObj*)pHitObj ) &&		// ҙЩАҪ ҪәЕіАМ ҝ№ҫаөЗҫоАЦАёёй ҝ©ұвјӯ іЎіҪҙЩ.
; 838  : 								g_WndMng.m_pWndWorld->GetNextSkill() == NEXTSKILL_NONE ) 
; 839  : 							{
; 840  : 								int nError	= SendActMsg( dwNextMsg, m_objidHit, MAKELONG( 0, 0 ), MAKELONG( 0, 0 ) );
; 841  : 								if( nError > 0 )	
; 842  : 								{
; 843  : #ifdef __HACK_1023
; 844  : 									ItemProp* pHandItemProp		= pMover->GetActiveHandItemProp();
; 845  : 									FLOAT fVal	= pHandItemProp? pHandItemProp->fAttackSpeed: 0.0F;
; 846  : 									g_DPlay.SendMeleeAttack ( dwNextMsg, m_objidHit, MAKELONG( 0, 0 ), MAKELONG( 0, (WORD)nError ), fVal );
; 847  : #else	// __HACK_1023
; 848  : 									g_DPlay.SendMeleeAttack ( dwNextMsg, m_objidHit, MAKELONG( 0, 0 ), MAKELONG( 0, (WORD)nError ) );
; 849  : #endif	// __HACK_1023
; 850  : 								}
; 851  : 							} else
; 852  : 								m_objidHit = NULL_ID;
; 853  : 						}
; 854  : 					}
; 855  : 				#endif	// CLIENT
; 856  : 				}
; 857  : 				break;
; 858  : 			}
; 859  : 		} 

  0009c	8d 9f 44 02 00
	00		 lea	 ebx, DWORD PTR [edi+580]
  000a2	eb 57		 jmp	 SHORT $LN24@ProcessSta
$LN12@ProcessSta:

; 860  : 		else	
; 861  : 		// monster
; 862  : 		{
; 863  : 		#ifdef __CLIENT
; 864  : 			if( pMover->m_dwIndex == MI_CLOCKWORK1 )
; 865  : 			{
; 866  : 				if( dwState == OBJSTA_ATK3 )
; 867  : 				{
; 868  : 					if( (pMover->m_dwFlag & MVRF_LASERCHARGE) == 0 )	// ·№АМАъГжАь АМЖеЖ®°Ў ҫЖБч »эјә ҫИөЗҫъАҪ.
; 869  : 					{
; 870  : 						// АМё¶ҝЎјӯ ұв ёрАёұв АМЖеЖ®.
; 871  : 						CSfx *pSfx = CreateSfx( D3DDEVICE, XI_NPCSP1DIRAMP, pMover->GetPos(), pMover->GetId(), D3DXVECTOR3(0,0,0), NULL_ID, -1 );			
; 872  : 						if( pSfx )
; 873  : 						{
; 874  : 							pSfx->SetScale( D3DXVECTOR3( 2.0f, 2.0f, 2.0f ) );
; 875  : 							pMover->m_dwFlag |= MVRF_LASERCHARGE;
; 876  : 						}
; 877  : 					}
; 878  : 				}
; 879  : 			}
; 880  : 			else
; 881  : 			if( pMover->m_dwIndex == MI_BIGMUSCLE )
; 882  : 			{
; 883  : 			}
; 884  : 			else
; 885  : 			if( pMover->m_dwIndex == MI_KRRR )
; 886  : 			{
; 887  : 			}
; 888  : 			else
; 889  : 			if( pMover->m_dwIndex == MI_MUSHMOOT )
; 890  : 			{
; 891  : 				if( dwState == OBJSTA_ATK3 )
; 892  : 				{
; 893  : 					if( (pMover->m_dwFlag & MVRF_LASERCHARGE) == 0 )	// ·№АМАъГжАь АМЖеЖ®°Ў ҫЖБч »эјә ҫИөЗҫъАҪ.
; 894  : 					{
; 895  : 						// АМё¶ҝЎјӯ ұв ёрАёұв АМЖеЖ®.
; 896  : 						CSfxMushmootCharge *pSfx = (CSfxMushmootCharge*)CreateSfx( D3DDEVICE, XI_SKILL_MUSHMOOT_CHARGE, pMover->GetPos(), pMover->GetId(), D3DXVECTOR3(0,0,0), NULL_ID, -1 );			
; 897  : 						if( pSfx )
; 898  : 						{
; 899  : 							pSfx->m_nEventPos = 0;
; 900  : 							pSfx->SetScale( D3DXVECTOR3( 2.0f, 2.0f, 2.0f ) );
; 901  : 							pMover->m_dwFlag |= MVRF_LASERCHARGE;
; 902  : 						}
; 903  : 					}
; 904  : 				}
; 905  : 				else
; 906  : 				if( dwState == OBJSTA_ATK4 )
; 907  : 				{
; 908  : 					if( (pMover->m_dwFlag & MVRF_LASERCHARGE) == 0 )	// ·№АМАъГжАь АМЖеЖ®°Ў ҫЖБч »эјә ҫИөЗҫъАҪ.
; 909  : 					{
; 910  : 						CSfxMushmootCharge *pSfx = NULL;
; 911  : 						// АМё¶ҝЎјӯ ұв ёрАёұв АМЖеЖ®.
; 912  : 						pSfx = (CSfxMushmootCharge*)CreateSfx( D3DDEVICE, XI_SKILL_MUSHMOOT_CHARGE, pMover->GetPos(), pMover->GetId(), D3DXVECTOR3(0,0,0), NULL_ID, -1 );			
; 913  : 						if( pSfx )
; 914  : 						{
; 915  : 							pSfx->m_nEventPos = 1;
; 916  : 							pSfx->SetScale( D3DXVECTOR3( 2.0f, 2.0f, 2.0f ) );
; 917  : 							pMover->m_dwFlag |= MVRF_LASERCHARGE;
; 918  : 						}
; 919  : 						pSfx = (CSfxMushmootCharge*)CreateSfx( D3DDEVICE, XI_SKILL_MUSHMOOT_CHARGE, pMover->GetPos(), pMover->GetId(), D3DXVECTOR3(0,0,0), NULL_ID, -1 );			
; 920  : 						if( pSfx )
; 921  : 						{
; 922  : 							pSfx->m_nEventPos = 2;
; 923  : 							pSfx->SetScale( D3DXVECTOR3( 2.0f, 2.0f, 2.0f ) );
; 924  : 							pMover->m_dwFlag |= MVRF_LASERCHARGE;
; 925  : 						}
; 926  : 						pSfx = (CSfxMushmootCharge*)CreateSfx( D3DDEVICE, XI_SKILL_MUSHMOOT_CHARGE, pMover->GetPos(), pMover->GetId(), D3DXVECTOR3(0,0,0), NULL_ID, -1 );			
; 927  : 						if( pSfx )
; 928  : 						{
; 929  : 							pSfx->m_nEventPos = 3;
; 930  : 							pSfx->SetScale( D3DXVECTOR3( 2.0f, 2.0f, 2.0f ) );
; 931  : 							pMover->m_dwFlag |= MVRF_LASERCHARGE;
; 932  : 						}
; 933  : 						pSfx = (CSfxMushmootCharge*)CreateSfx( D3DDEVICE, XI_SKILL_MUSHMOOT_CHARGE, pMover->GetPos(), pMover->GetId(), D3DXVECTOR3(0,0,0), NULL_ID, -1 );			
; 934  : 						if( pSfx )
; 935  : 						{
; 936  : 							pSfx->m_nEventPos = 4;
; 937  : 							pSfx->SetScale( D3DXVECTOR3( 2.0f, 2.0f, 2.0f ) );
; 938  : 							pMover->m_dwFlag |= MVRF_LASERCHARGE;
; 939  : 						}
; 940  : 					}
; 941  : 				}
; 942  : 			}	
; 943  : 		#endif // Client
; 944  : 			if( pMover->m_dwFlag & MVRF_HITCONT )

  000a4	f6 87 44 02 00
	00 20		 test	 BYTE PTR [edi+580], 32	; 00000020H
  000ab	8d 9f 44 02 00
	00		 lea	 ebx, DWORD PTR [edi+580]
  000b1	74 0b		 je	 SHORT $LN23@ProcessSta

; 945  : 				pMover->OnAttackMeleeContinue( dwState );

  000b3	56		 push	 esi
  000b4	8b cf		 mov	 ecx, edi
  000b6	e8 00 00 00 00	 call	 ?OnAttackMeleeContinue@CMover@@QAEHK@Z ; CMover::OnAttackMeleeContinue
  000bb	8b 45 fc	 mov	 eax, DWORD PTR _pModel$1$[ebp]
$LN23@ProcessSta:

; 946  : 
; 947  : 			if( pModel->IsEndFrame() )

  000be	83 b8 9c 00 00
	00 00		 cmp	 DWORD PTR [eax+156], 0
  000c5	74 34		 je	 SHORT $LN24@ProcessSta

; 948  : 			{
; 949  : 				pMover->OnEndMeleeAttack( dwState );

  000c7	56		 push	 esi
  000c8	8b cf		 mov	 ecx, edi
  000ca	e8 00 00 00 00	 call	 ?OnEndMeleeAttack@CMover@@QAEXK@Z ; CMover::OnEndMeleeAttack

; 950  : 				pMover->m_dwFlag &= (~MVRF_HITCONT);		// ҫЦҙПіЎіөАёёй ЗГ·ў ЗШБҰ.
; 951  : 				pMover->m_dwFlag &= (~MVRF_LASERCHARGE);	// ҫЦҙПіЎіөАёёй ЗГ·ў ЗШБҰ.
; 952  : 				m_objidHit	= NULL_ID;

  000cf	8b 45 f8	 mov	 eax, DWORD PTR _this$1$[ebp]

; 953  : 				ResetState( OBJSTA_ATK_ALL );

  000d2	8b c8		 mov	 ecx, eax
  000d4	83 23 9f	 and	 DWORD PTR [ebx], -97	; ffffff9fH
  000d7	68 00 00 ff 00	 push	 16711680		; 00ff0000H
  000dc	c7 80 a4 00 00
	00 ff ff ff ff	 mov	 DWORD PTR [eax+164], -1
  000e6	e8 00 00 00 00	 call	 ?ResetState@CAction@@QAEXK@Z ; CAction::ResetState

; 954  : 			#ifdef __CLIENT
; 955  : 				extern CPartsLaser g_Laser;
; 956  : 				g_Laser.m_bActive = FALSE;		// ҫЦҙП іЎіӘёй ·№АМАъ ЗШБҰ(¶«»§)
; 957  : 			#endif
; 958  : 				pMover->m_pActMover->m_nMotionHitCount = 0;

  000eb	8b 87 38 02 00
	00		 mov	 eax, DWORD PTR [edi+568]
  000f1	c7 80 9c 00 00
	00 00 00 00 00	 mov	 DWORD PTR [eax+156], 0
$LN24@ProcessSta:

; 959  : 			}
; 960  : 		}
; 961  : 		
; 962  : 		if( pModel->m_nPause > 0 )

  000fb	8b 4d fc	 mov	 ecx, DWORD PTR _pModel$1$[ebp]
  000fe	83 b9 94 00 00
	00 00		 cmp	 DWORD PTR [ecx+148], 0
  00105	7e 25		 jle	 SHORT $LN25@ProcessSta

; 963  : 		{
; 964  : 			CMover* pHitObj	= prj.GetMover( m_idTarget );

  00107	8b 45 f8	 mov	 eax, DWORD PTR _this$1$[ebp]
  0010a	b9 00 00 00 00	 mov	 ecx, OFFSET ?prj@@3VCProject@@A ; prj
  0010f	ff b0 88 00 00
	00		 push	 DWORD PTR [eax+136]
  00115	e8 00 00 00 00	 call	 ?GetMover@CProject@@QAEPAVCMover@@K@Z ; CProject::GetMover

; 965  : 		#ifdef __CLIENT
; 966  : 			D3DXVECTOR3 vDist = pMover->GetPos() - CMover::GetActiveMover()->GetPos();
; 967  : 			float fDistSq = D3DXVec3LengthSq( &vDist );
; 968  : 			if( pHitObj && pMover->IsPlayer() && fDistSq < 32.0f * 32.0f )		// ёЦё®АЦҙВірАә ЖДЖјЕ¬ »эјәҫИЗФ.
; 969  : 			{
; 970  : 				int i;
; 971  : 				D3DXVECTOR3	vPos = pHitObj->GetPos();
; 972  : 
; 973  : 				D3DXVECTOR3 vLocal;
; 974  : 				AngleToVectorXZ( &vLocal, pMover->GetAngle(), 1.0f );		// ёрјЗ №жЗвВКАё·О 1№МЕНБцБЎҝЎ ЖДЖјЕ¬ »эјә.
; 975  : 				vLocal += pMover->GetPos();
; 976  : 				vPos = vLocal;
; 977  : 
; 978  : 				vPos.y += 0.7f;
; 979  : 				D3DXVECTOR3 vVel;
; 980  : 				float	fAngXZ, fAngH;
; 981  : 				float	fSpeed;
; 982  : 				float	fDist;
; 983  : 				float	fMoverAngle = pMover->GetAngle();
; 984  : 				CParticles *pParticles = NULL;
; 985  : 
; 986  : 				int nOption = 0;
; 987  : 				int nEffLevel = 0;
; 988  : 				if( pMover->IsActiveMover() )
; 989  : 				{
; 990  : 					CItemElem *pItemElem = pMover->GetWeaponItem();
; 991  : 					if( pItemElem )
; 992  : 						nOption = pItemElem->GetAbilityOption();
; 993  : 				} else
; 994  : 				{	// Её ЗГ·№АМҫоҙВ ЖдАМЕ©ҫЖАМЕЫАМ№З·О ҝ©ұвјӯҝЎјӯ °ӘА» »©ҝВҙЩ.
; 995  : 					nOption = pMover->m_aEquipInfo[PARTS_RWEAPON].nOption & 0xFF;
; 996  : 				}
; 997  : 
; 998  : 				if( nOption == 10 )
; 999  : 					nEffLevel = 5;
; 1000 : 				else if( nOption == 9 )
; 1001 : 					nEffLevel = 4;
; 1002 : 				else if( nOption == 8 )
; 1003 : 					nEffLevel = 3;
; 1004 : 				else if( nOption == 7 )
; 1005 : 					nEffLevel = 2;
; 1006 : 				else if( nOption >= 4 )	// 4 ~ 6
; 1007 : 					nEffLevel = 1;
; 1008 : 				else 
; 1009 : 					nEffLevel = 0;
; 1010 : 					
; 1011 : 				for( i = 0; i < 1; i ++ )
; 1012 : 				{
; 1013 : 					fAngXZ = xRandomF(360);
; 1014 : 					
; 1015 : 					fAngXZ = D3DXToRadian( fAngXZ );
; 1016 : 					fAngH = 15.0f + xRandomF(45);
; 1017 : 					fAngH = D3DXToRadian( fAngH );
; 1018 : 					fSpeed = (0.1f + xRandomF(0.03f));// / 1.0f;
; 1019 : 					
; 1020 : 					fDist = cosf(-fAngH) * fSpeed;
; 1021 : 					vVel.x = sinf(fAngXZ) * fDist;
; 1022 : 					vVel.z = -cosf(fAngXZ) * fDist;
; 1023 : 					vVel.y = -sinf(-fAngH) * fSpeed;
; 1024 : 					if( g_Option.m_bSFXRenderOff != TRUE )
; 1025 : 					{
; 1026 : 						if( nEffLevel == 5 )
; 1027 : 						{
; 1028 : 							pParticles = g_ParticleMng.CreateParticle( nEffLevel + xRandom(6), vPos, vVel, CMover::GetActiveMover()->GetPos().y );
; 1029 : 						} else
; 1030 : 							pParticles = g_ParticleMng.CreateParticle( nEffLevel, vPos, vVel, CMover::GetActiveMover()->GetPos().y );
; 1031 : 					}
; 1032 : 					if( pParticles )
; 1033 : 						pParticles->m_bGravity = TRUE;
; 1034 : 				}
; 1035 : 			}
; 1036 : 		#endif // CLIENT
; 1037 : 		
; 1038 : 		// ЖчБоД«ҝоЖ®°Ў ҙЩ іЎіӘёй өЪ·О №Рё®ұв ҪГАЫ
; 1039 : 		// 2006.09.16 raiders ё·ҫЖөТ. АМАҜ: CActionMoverАЗ m_fAccAngҙВ »зҝлЗПБц ҫКҙВ әҜјц
; 1040 : 			--pModel->m_nPause; 

  0011a	8b 45 fc	 mov	 eax, DWORD PTR _pModel$1$[ebp]
  0011d	5b		 pop	 ebx
  0011e	5f		 pop	 edi

; 1098 : 				}
; 1099 : 			} // is hitattr ?
; 1100 : 
; 1101 : 		#if defined(__CLIENT)
; 1102 : 			if( pModel->IsAttrQuake() )
; 1103 : 			{
; 1104 : 				if( pMover->m_dwIndex == MI_BIGMUSCLE || 
; 1105 : 					pMover->m_dwIndex == MI_KRRR || 
; 1106 : 					pMover->m_dwIndex == MI_MUSHMOOT )
; 1107 : 					pMover->GetWorld()->m_pCamera->SetQuake( 60, 0.7f );	
; 1108 : 			}
; 1109 : 		#endif // defined(__CLIENT)
; 1110 : 			
; 1111 : 		}
; 1112 : 		break;
; 1113 : 	}
; 1114 : }

  0011f	5e		 pop	 esi
  00120	ff 88 94 00 00
	00		 dec	 DWORD PTR [eax+148]
  00126	8b e5		 mov	 esp, ebp
  00128	5d		 pop	 ebp
  00129	c2 08 00	 ret	 8
$LN25@ProcessSta:

; 1041 : //			if( --pModel->m_nPause == 0 )		
; 1042 : //			{
; 1043 : //				if( pHitObj )
; 1044 : //					pHitObj->m_pActMover->m_fAccAng = pMover->GetAngle();				// ¶§ё°ірАМ әё°нАЦҙВ №жЗвАё·О №РёІ
; 1045 : //			}
; 1046 : 		// Pause > 0 
; 1047 : 		} else
; 1048 : 		{
; 1049 : 		#if defined(__CLIENT)
; 1050 : 			ItemProp* pItemProp = pMover->GetActiveHandItemProp();
; 1051 : 
; 1052 : 			// ҝдҝдҙВ АП№Э №Рё® ЖтЕёҝНҙВ ҙЩёЈ°Ф
; 1053 : 			// ИзөйёІИҝ°ъ(Quake)ёҰ ұвБШАё·О №Я»зГјёҰ №Я»зЗП°н
; 1054 : 			// ҪЗБҰ Иҝ°ъГіё®(өҘёЮБц, АМЖеЖ®)ҙВ Её°ЭјУјәҝЎјӯ Гіё®ЗСҙЩ.
; 1055 : 			if( pMover->IsPlayer() && pItemProp && pItemProp->dwItemKind3 == IK3_YOYO && pModel->IsAttrQuake() )
; 1056 : 			{
; 1057 : 				CMover* pHitObj	= prj.GetMover( m_idTarget );
; 1058 : 				if( IsInvalidObj(pHitObj) )
; 1059 : 					break;
; 1060 : 
; 1061 : 				DWORD dwSfxObj = pItemProp->dwSfxObj2;
; 1062 : 				
; 1063 : 				if( dwSfxObj == NULL_ID )	
; 1064 : 					break;
; 1065 : 				
; 1066 : 				D3DXVECTOR3 vPos;
; 1067 : 				D3DXVECTOR3 vLocal;
; 1068 : 				D3DXVECTOR3 vPosSrc   = pMover->GetPos() + D3DXVECTOR3( 0.0f, 1.0f, 0.0f ); // №Я»з БцБЎА» АУАЗ·О ҝГ·ББШҙЩ. ¶«»§ 
; 1069 : 				D3DXVECTOR3 vPosDest  = pHitObj->GetPos() + D3DXVECTOR3( 0.0f, 1.0f, 0.0f ); // ёсЗҘ БцБЎА» АУАЗ·О ҝГ·ББШҙЩ. ¶«»§ 
; 1070 : 				
; 1071 : 				CSfx* pSfx = NULL;
; 1072 : 				
; 1073 : 				if( pMover->m_dwMotion == MTI_ATK1 )
; 1074 : 				{
; 1075 : 					pModel->GetHandPos( &vPos, PARTS_RWEAPON, pMover->GetMatrixWorld() );
; 1076 : 					pSfx = CreateSfxYoYo( D3DDEVICE, dwSfxObj, vPos, pMover->GetId(), vPosDest );	
; 1077 : 					((CSfxItemYoyoAtk*)pSfx)->MakePath(PARTS_RWEAPON);					
; 1078 : 				}
; 1079 : 				else
; 1080 : 				if( pMover->m_dwMotion == MTI_ATK2 )
; 1081 : 				{
; 1082 : 					pModel->GetHandPos( &vPos, PARTS_LWEAPON, pMover->GetMatrixWorld() );
; 1083 : 					pSfx = CreateSfxYoYo( D3DDEVICE, dwSfxObj, vPos, pMover->GetId(), vPosDest );	
; 1084 : 					((CSfxItemYoyoAtk*)pSfx)->MakePath(PARTS_LWEAPON);
; 1085 : 				}
; 1086 : 			}
; 1087 : 		#endif //__CLIENT
; 1088 : 
; 1089 : 			if( pModel->IsAttrHit() )	// ЗцАз ЗБ·№АУҝЎ Её°ЭјУјәАМ АЦҙВ°Ў?

  0012c	8b 01		 mov	 eax, DWORD PTR [ecx]
  0012e	ff 50 24	 call	 DWORD PTR [eax+36]
  00131	85 c0		 test	 eax, eax
  00133	74 41		 je	 SHORT $LN62@ProcessSta

; 1090 : 			{
; 1091 : 				pMover->m_dwFlag |= MVRF_HITCONT;
; 1092 : 				
; 1093 : 				CMover* pHitObj	= prj.GetMover( m_idTarget );

  00135	8b 45 f8	 mov	 eax, DWORD PTR _this$1$[ebp]
  00138	b9 00 00 00 00	 mov	 ecx, OFFSET ?prj@@3VCProject@@A ; prj
  0013d	83 0b 20	 or	 DWORD PTR [ebx], 32	; 00000020H
  00140	ff b0 88 00 00
	00		 push	 DWORD PTR [eax+136]
  00146	e8 00 00 00 00	 call	 ?GetMover@CProject@@QAEPAVCMover@@K@Z ; CProject::GetMover
; File C:\IAGOS\server\v18\Source\Source\_Common\Obj.h

; 327  : 	return pObj && ( pObj->IsDelete() == FALSE ); 

  0014b	85 c0		 test	 eax, eax
  0014d	74 27		 je	 SHORT $LN62@ProcessSta

; 180  : 	BOOL			IsDelete()	{ return (m_dwFlags & OBJ_FLAG_DELETE);  }

  0014f	f6 40 04 01	 test	 BYTE PTR [eax+4], 1

; 327  : 	return pObj && ( pObj->IsDelete() == FALSE ); 

  00153	75 21		 jne	 SHORT $LN62@ProcessSta
; File C:\IAGOS\server\v18\Source\Source\_Common\Mover.h

; 1251 : 	BOOL			IsLive() { return m_pActMover->IsDie() == FALSE || m_nHitPoint > 0; }		// && ёҰ  ||·О №ЩІеАҪ.  !=ёҰ >·О №ЩІЮ

  00155	8b 90 38 02 00
	00		 mov	 edx, DWORD PTR [eax+568]
  0015b	f7 42 04 00 00
	00 08		 test	 DWORD PTR [edx+4], 134217728 ; 08000000H
  00162	74 09		 je	 SHORT $LN45@ProcessSta
  00164	83 b8 f8 05 00
	00 00		 cmp	 DWORD PTR [eax+1528], 0
  0016b	7e 09		 jle	 SHORT $LN62@ProcessSta
$LN45@ProcessSta:
; File C:\IAGOS\server\v18\Source\Source\_aiinterface\ActionMoverState.cpp

; 1097 : 					pMover->OnAttackMelee( dwState, pHitObj );

  0016d	50		 push	 eax
  0016e	56		 push	 esi
  0016f	8b cf		 mov	 ecx, edi
  00171	e8 00 00 00 00	 call	 ?OnAttackMelee@CMover@@QAEHKPAV1@@Z ; CMover::OnAttackMelee
$LN62@ProcessSta:
  00176	5b		 pop	 ebx
$LN28@ProcessSta:
  00177	5f		 pop	 edi

; 1098 : 				}
; 1099 : 			} // is hitattr ?
; 1100 : 
; 1101 : 		#if defined(__CLIENT)
; 1102 : 			if( pModel->IsAttrQuake() )
; 1103 : 			{
; 1104 : 				if( pMover->m_dwIndex == MI_BIGMUSCLE || 
; 1105 : 					pMover->m_dwIndex == MI_KRRR || 
; 1106 : 					pMover->m_dwIndex == MI_MUSHMOOT )
; 1107 : 					pMover->GetWorld()->m_pCamera->SetQuake( 60, 0.7f );	
; 1108 : 			}
; 1109 : 		#endif // defined(__CLIENT)
; 1110 : 			
; 1111 : 		}
; 1112 : 		break;
; 1113 : 	}
; 1114 : }

  00178	5e		 pop	 esi
  00179	8b e5		 mov	 esp, ebp
  0017b	5d		 pop	 ebp
  0017c	c2 08 00	 ret	 8
?_ProcessStateAttack@CActionMover@@QAEXKH@Z ENDP	; CActionMover::_ProcessStateAttack
_TEXT	ENDS
; Function compile flags: /Ogtp
; File C:\IAGOS\server\v18\Source\Source\DX_SDK\d3dx9math.h
;	COMDAT ??0D3DXVECTOR3@@QAE@XZ
_TEXT	SEGMENT
??0D3DXVECTOR3@@QAE@XZ PROC				; D3DXVECTOR3::D3DXVECTOR3, COMDAT
; _this$ = ecx

; 165  :     D3DXVECTOR3() {};

  00000	8b c1		 mov	 eax, ecx
  00002	c3		 ret	 0
??0D3DXVECTOR3@@QAE@XZ ENDP				; D3DXVECTOR3::D3DXVECTOR3
_TEXT	ENDS
; Function compile flags: /Ogtp
; File C:\IAGOS\server\v18\Source\Source\_aiinterface\ActionMoverState.cpp
;	COMDAT ?__empty_global_delete@@YAXPAXI@Z
_TEXT	SEGMENT
___formal$ = 8						; size = 4
___formal$ = 12						; size = 4
?__empty_global_delete@@YAXPAXI@Z PROC			; __empty_global_delete, COMDAT

  00000	c2 00 00	 ret	 0
?__empty_global_delete@@YAXPAXI@Z ENDP			; __empty_global_delete
_TEXT	ENDS
; Function compile flags: /Ogtp
; File C:\IAGOS\server\v18\Source\Source\_aiinterface\ActionMoverState.cpp
;	COMDAT ?__empty_global_delete@@YAXPAX@Z
_TEXT	SEGMENT
___formal$ = 8						; size = 4
?__empty_global_delete@@YAXPAX@Z PROC			; __empty_global_delete, COMDAT

  00000	c2 00 00	 ret	 0
?__empty_global_delete@@YAXPAX@Z ENDP			; __empty_global_delete
_TEXT	ENDS
END
