; Listing generated by Microsoft (R) Optimizing Compiler Version 19.44.35225.0 

	TITLE	C:\IAGOS\server\v18\Source\Output\WorldServer\Release\actionmover.obj
	.686P
	.XMM
	include listing.inc
	.model	flat

INCLUDELIB LIBCMT
INCLUDELIB OLDNAMES

CONST	SEGMENT
?piecewise_construct@std@@3Upiecewise_construct_t@1@B	ORG $+1 ; std::piecewise_construct
CONST	ENDS
PUBLIC	?__empty_global_delete@@YAXPAX@Z		; __empty_global_delete
PUBLIC	?__empty_global_delete@@YAXPAXI@Z		; __empty_global_delete
PUBLIC	??0D3DXVECTOR3@@QAE@XZ				; D3DXVECTOR3::D3DXVECTOR3
PUBLIC	?RemoveHead@?$CActMsgq@UtagACTMSG@@@@QAEXXZ	; CActMsgq<tagACTMSG>::RemoveHead
PUBLIC	?GetHead@?$CActMsgq@UtagACTMSG@@@@QAEPAUtagACTMSG@@XZ ; CActMsgq<tagACTMSG>::GetHead
PUBLIC	?Process@CMeleeAtkMsgq@@QAEHPAVCAction@@@Z	; CMeleeAtkMsgq::Process
PUBLIC	?RemoveHead@?$CActMsgq@UtagMAGICATKMSG@@@@QAEXXZ ; CActMsgq<tagMAGICATKMSG>::RemoveHead
PUBLIC	?GetHead@?$CActMsgq@UtagMAGICATKMSG@@@@QAEPAUtagMAGICATKMSG@@XZ ; CActMsgq<tagMAGICATKMSG>::GetHead
PUBLIC	?Process@CMagicAtkMsgq@@QAEHPAVCMover@@@Z	; CMagicAtkMsgq::Process
PUBLIC	?Render@CAction@@UAEHPAUIDirect3DDevice9@@PAUD3DXMATRIX@@@Z ; CAction::Render
PUBLIC	??0CActionMover@@QAE@XZ				; CActionMover::CActionMover
PUBLIC	??0CActionMover@@QAE@PAVCMover@@@Z		; CActionMover::CActionMover
PUBLIC	??1CActionMover@@UAE@XZ				; CActionMover::~CActionMover
PUBLIC	?SendActMsg@CActionMover@@UAEHW4OBJMSG@@HHHHH@Z	; CActionMover::SendActMsg
PUBLIC	?ProcessState@CActionMover@@UAEXKM@Z		; CActionMover::ProcessState
PUBLIC	?DoDamageFly@CActionMover@@QAEXMMM@Z		; CActionMover::DoDamageFly
PUBLIC	?SendDamageForce@CActionMover@@QAEHKKHH@Z	; CActionMover::SendDamageForce
PUBLIC	?ProcessPreAction@CActionMover@@QAEXXZ		; CActionMover::ProcessPreAction
PUBLIC	?ProcessAction@CActionMover@@QAEHPBUD3DXVECTOR3@@@Z ; CActionMover::ProcessAction
PUBLIC	?ProcessCollision@CActionMover@@QAEHPAUD3DXVECTOR3@@@Z ; CActionMover::ProcessCollision
PUBLIC	?Init@CActionMover@@IAEXXZ			; CActionMover::Init
PUBLIC	?Destroy@CActionMover@@IAEXXZ			; CActionMover::Destroy
PUBLIC	??_GCActionMover@@UAEPAXI@Z			; CActionMover::`scalar deleting destructor'
PUBLIC	??_C@_0BM@HMFGHCP@?$CFs?5min?3?$CFd?0?5max?3?$CFd?0?5index?3?$CFd@ ; `string'
PUBLIC	??_C@_0BJ@GKPOBPPI@GetMoverProp?5range_error@	; `string'
PUBLIC	??_7CActionMover@@6B@				; CActionMover::`vftable'
PUBLIC	??_R4CActionMover@@6B@				; CActionMover::`RTTI Complete Object Locator'
PUBLIC	??_R0?AVCActionMover@@@8			; CActionMover `RTTI Type Descriptor'
PUBLIC	??_R3CActionMover@@8				; CActionMover::`RTTI Class Hierarchy Descriptor'
PUBLIC	??_R2CActionMover@@8				; CActionMover::`RTTI Base Class Array'
PUBLIC	??_R1A@?0A@EA@CActionMover@@8			; CActionMover::`RTTI Base Class Descriptor at (0,-1,0,64)'
PUBLIC	??_R1A@?0A@EA@CAction@@8			; CAction::`RTTI Base Class Descriptor at (0,-1,0,64)'
PUBLIC	??_R0?AVCAction@@@8				; CAction `RTTI Type Descriptor'
PUBLIC	??_R3CAction@@8					; CAction::`RTTI Class Hierarchy Descriptor'
PUBLIC	??_R2CAction@@8					; CAction::`RTTI Base Class Array'
PUBLIC	__real@3ba3d70a
PUBLIC	__real@3c23d70a
PUBLIC	__real@3c8efa35
PUBLIC	__real@3f50624de0000000
PUBLIC	__real@3f666666
PUBLIC	__real@bf000000
PUBLIC	__xmm@7fffffffffffffff7fffffffffffffff
EXTRN	??3@YAXPAXI@Z:PROC				; operator delete
EXTRN	?Error@@YAPBDPBDZZ:PROC				; Error
EXTRN	?GetCtrl@CProject@@QAEPAVCCtrl@@K@Z:PROC	; CProject::GetCtrl
EXTRN	??0CAction@@QAE@XZ:PROC				; CAction::CAction
EXTRN	??0CAction@@QAE@PAVCMover@@@Z:PROC		; CAction::CAction
EXTRN	??1CAction@@UAE@XZ:PROC				; CAction::~CAction
EXTRN	?ProcessActMsg1@CActionMover@@QAEHPAVCMover@@W4OBJMSG@@HHHHH@Z:PROC ; CActionMover::ProcessActMsg1
EXTRN	?ProcessActMsg2@CActionMover@@QAEHPAVCMover@@W4OBJMSG@@HHHHH@Z:PROC ; CActionMover::ProcessActMsg2
EXTRN	?ProcessState1@CActionMover@@QAEXPAVCMover@@KM@Z:PROC ; CActionMover::ProcessState1
EXTRN	?ProcessState2@CActionMover@@QAEXPAVCMover@@KM@Z:PROC ; CActionMover::ProcessState2
EXTRN	?ProcessFlyMove@CActionMover@@QAEXXZ:PROC	; CActionMover::ProcessFlyMove
EXTRN	?ProcessCollisionFly@CActionMover@@QAEHPAUD3DXVECTOR3@@@Z:PROC ; CActionMover::ProcessCollisionFly
EXTRN	?ProcessCollisionGround@CActionMover@@QAEHPAUD3DXVECTOR3@@@Z:PROC ; CActionMover::ProcessCollisionGround
EXTRN	??_ECActionMover@@UAEPAXI@Z:PROC		; CActionMover::`vector deleting destructor'
EXTRN	?GetSpeed@CMover@@QAEMM@Z:PROC			; CMover::GetSpeed
EXTRN	?DoAttackMagic@CMover@@QAEHPAVCObj@@HH@Z:PROC	; CMover::DoAttackMagic
EXTRN	?DoAttackRange@CMover@@QAEHPAVCObj@@KH@Z:PROC	; CMover::DoAttackRange
EXTRN	__libm_sse2_cos_precise:PROC
EXTRN	__libm_sse2_sin_precise:PROC
EXTRN	??_7type_info@@6B@:QWORD			; type_info::`vftable'
EXTRN	?prj@@3VCProject@@A:BYTE			; prj
EXTRN	__fltused:DWORD
;	COMDAT __xmm@7fffffffffffffff7fffffffffffffff
CONST	SEGMENT
__xmm@7fffffffffffffff7fffffffffffffff DB 0ffH, 0ffH, 0ffH, 0ffH, 0ffH, 0ffH
	DB	0ffH, 07fH, 0ffH, 0ffH, 0ffH, 0ffH, 0ffH, 0ffH, 0ffH, 07fH
CONST	ENDS
;	COMDAT __real@bf000000
CONST	SEGMENT
__real@bf000000 DD 0bf000000r			; -0.5
CONST	ENDS
;	COMDAT __real@3f666666
CONST	SEGMENT
__real@3f666666 DD 03f666666r			; 0.9
CONST	ENDS
;	COMDAT __real@3f50624de0000000
CONST	SEGMENT
__real@3f50624de0000000 DQ 03f50624de0000000r	; 0.001
CONST	ENDS
;	COMDAT __real@3c8efa35
CONST	SEGMENT
__real@3c8efa35 DD 03c8efa35r			; 0.0174533
CONST	ENDS
;	COMDAT __real@3c23d70a
CONST	SEGMENT
__real@3c23d70a DD 03c23d70ar			; 0.01
CONST	ENDS
;	COMDAT __real@3ba3d70a
CONST	SEGMENT
__real@3ba3d70a DD 03ba3d70ar			; 0.005
CONST	ENDS
;	COMDAT ??_R2CAction@@8
rdata$r	SEGMENT
??_R2CAction@@8 DD FLAT:??_R1A@?0A@EA@CAction@@8	; CAction::`RTTI Base Class Array'
rdata$r	ENDS
;	COMDAT ??_R3CAction@@8
rdata$r	SEGMENT
??_R3CAction@@8 DD 00H					; CAction::`RTTI Class Hierarchy Descriptor'
	DD	00H
	DD	01H
	DD	FLAT:??_R2CAction@@8
rdata$r	ENDS
;	COMDAT ??_R0?AVCAction@@@8
data$rs	SEGMENT
??_R0?AVCAction@@@8 DD FLAT:??_7type_info@@6B@		; CAction `RTTI Type Descriptor'
	DD	00H
	DB	'.?AVCAction@@', 00H
data$rs	ENDS
;	COMDAT ??_R1A@?0A@EA@CAction@@8
rdata$r	SEGMENT
??_R1A@?0A@EA@CAction@@8 DD FLAT:??_R0?AVCAction@@@8	; CAction::`RTTI Base Class Descriptor at (0,-1,0,64)'
	DD	00H
	DD	00H
	DD	0ffffffffH
	DD	00H
	DD	040H
	DD	FLAT:??_R3CAction@@8
rdata$r	ENDS
;	COMDAT ??_R1A@?0A@EA@CActionMover@@8
rdata$r	SEGMENT
??_R1A@?0A@EA@CActionMover@@8 DD FLAT:??_R0?AVCActionMover@@@8 ; CActionMover::`RTTI Base Class Descriptor at (0,-1,0,64)'
	DD	01H
	DD	00H
	DD	0ffffffffH
	DD	00H
	DD	040H
	DD	FLAT:??_R3CActionMover@@8
rdata$r	ENDS
;	COMDAT ??_R2CActionMover@@8
rdata$r	SEGMENT
??_R2CActionMover@@8 DD FLAT:??_R1A@?0A@EA@CActionMover@@8 ; CActionMover::`RTTI Base Class Array'
	DD	FLAT:??_R1A@?0A@EA@CAction@@8
rdata$r	ENDS
;	COMDAT ??_R3CActionMover@@8
rdata$r	SEGMENT
??_R3CActionMover@@8 DD 00H				; CActionMover::`RTTI Class Hierarchy Descriptor'
	DD	00H
	DD	02H
	DD	FLAT:??_R2CActionMover@@8
rdata$r	ENDS
;	COMDAT ??_R0?AVCActionMover@@@8
data$rs	SEGMENT
??_R0?AVCActionMover@@@8 DD FLAT:??_7type_info@@6B@	; CActionMover `RTTI Type Descriptor'
	DD	00H
	DB	'.?AVCActionMover@@', 00H
data$rs	ENDS
;	COMDAT ??_R4CActionMover@@6B@
rdata$r	SEGMENT
??_R4CActionMover@@6B@ DD 00H				; CActionMover::`RTTI Complete Object Locator'
	DD	00H
	DD	00H
	DD	FLAT:??_R0?AVCActionMover@@@8
	DD	FLAT:??_R3CActionMover@@8
rdata$r	ENDS
;	COMDAT ??_7CActionMover@@6B@
CONST	SEGMENT
??_7CActionMover@@6B@ DD FLAT:??_R4CActionMover@@6B@	; CActionMover::`vftable'
	DD	FLAT:??_ECActionMover@@UAEPAXI@Z
	DD	FLAT:?SendActMsg@CActionMover@@UAEHW4OBJMSG@@HHHHH@Z
	DD	FLAT:?ProcessState@CActionMover@@UAEXKM@Z
	DD	FLAT:?Render@CAction@@UAEHPAUIDirect3DDevice9@@PAUD3DXMATRIX@@@Z
CONST	ENDS
;	COMDAT ??_C@_0BJ@GKPOBPPI@GetMoverProp?5range_error@
CONST	SEGMENT
??_C@_0BJ@GKPOBPPI@GetMoverProp?5range_error@ DB 'GetMoverProp range_erro'
	DB	'r', 00H					; `string'
CONST	ENDS
;	COMDAT ??_C@_0BM@HMFGHCP@?$CFs?5min?3?$CFd?0?5max?3?$CFd?0?5index?3?$CFd@
CONST	SEGMENT
??_C@_0BM@HMFGHCP@?$CFs?5min?3?$CFd?0?5max?3?$CFd?0?5index?3?$CFd@ DB '%s'
	DB	' min:%d, max:%d, index:%d', 00H		; `string'
CONST	ENDS
; Function compile flags: /Ogtp
;	COMDAT ??_GCActionMover@@UAEPAXI@Z
_TEXT	SEGMENT
___flags$ = 8						; size = 4
??_GCActionMover@@UAEPAXI@Z PROC			; CActionMover::`scalar deleting destructor', COMDAT
; _this$ = ecx
  00000	55		 push	 ebp
  00001	8b ec		 mov	 ebp, esp
  00003	56		 push	 esi
  00004	8b f1		 mov	 esi, ecx
  00006	e8 00 00 00 00	 call	 ??1CActionMover@@UAE@XZ	; CActionMover::~CActionMover
  0000b	f6 45 08 01	 test	 BYTE PTR ___flags$[ebp], 1
  0000f	74 0e		 je	 SHORT $LN5@scalar
  00011	68 bc 00 00 00	 push	 188			; 000000bcH
  00016	56		 push	 esi
  00017	e8 00 00 00 00	 call	 ??3@YAXPAXI@Z		; operator delete
  0001c	83 c4 08	 add	 esp, 8
$LN5@scalar:
  0001f	8b c6		 mov	 eax, esi
  00021	5e		 pop	 esi
  00022	5d		 pop	 ebp
  00023	c2 04 00	 ret	 4
??_GCActionMover@@UAEPAXI@Z ENDP			; CActionMover::`scalar deleting destructor'
_TEXT	ENDS
; Function compile flags: /Ogtp
; File C:\IAGOS\server\v18\Source\Source\_aiinterface\actionmover.cpp
;	COMDAT ?Destroy@CActionMover@@IAEXXZ
_TEXT	SEGMENT
?Destroy@CActionMover@@IAEXXZ PROC			; CActionMover::Destroy, COMDAT
; _this$ = ecx

; 169  : #ifdef __CLIENT
; 170  : 	if( m_pTail )
; 171  : 		g_TailEffectMng.Delete( m_pTail );
; 172  : 	m_pTail = NULL;
; 173  : #endif
; 174  : }

  00000	c2 00 00	 ret	 0
?Destroy@CActionMover@@IAEXXZ ENDP			; CActionMover::Destroy
_TEXT	ENDS
; Function compile flags: /Ogtp
; File C:\IAGOS\server\v18\Source\Source\_aiinterface\actionmover.cpp
;	COMDAT ?Init@CActionMover@@IAEXXZ
_TEXT	SEGMENT
?Init@CActionMover@@IAEXXZ PROC				; CActionMover::Init, COMDAT
; _this$ = ecx

; 132  : 	m_nCount		= 0;

  00000	c7 41 40 00 00
	00 00		 mov	 DWORD PTR [ecx+64], 0

; 133  : 	m_idTarget		= NULL_ID;

  00007	c7 81 88 00 00
	00 ff ff ff ff	 mov	 DWORD PTR [ecx+136], -1

; 134  : 	m_objidHit		= NULL_ID;

  00011	c7 81 a4 00 00
	00 ff ff ff ff	 mov	 DWORD PTR [ecx+164], -1

; 135  : 	m_fTurnAngle	= 0.0f;

  0001b	c7 81 84 00 00
	00 00 00 00 00	 mov	 DWORD PTR [ecx+132], 0

; 136  : 	m_fAccPower		= 0;

  00025	c7 41 4c 00 00
	00 00		 mov	 DWORD PTR [ecx+76], 0

; 137  : 	m_fSpeed		= 0;		// 이것은 뛸때 this의 스피드를 말한다.  공중에선 적용되지 않음. 몬스터도 기본 뛰는게 된다,.

  0002c	c7 41 48 00 00
	00 00		 mov	 DWORD PTR [ecx+72], 0

; 138  : 	m_vDelta.x		= m_vDelta.y = m_vDelta.z = 0;

  00033	c7 41 58 00 00
	00 00		 mov	 DWORD PTR [ecx+88], 0
  0003a	c7 41 54 00 00
	00 00		 mov	 DWORD PTR [ecx+84], 0
  00041	c7 41 50 00 00
	00 00		 mov	 DWORD PTR [ecx+80], 0

; 139  : 	m_vDeltaE.x		= m_vDeltaE.y = m_vDeltaE.z = 0;

  00048	c7 41 64 00 00
	00 00		 mov	 DWORD PTR [ecx+100], 0
  0004f	c7 41 60 00 00
	00 00		 mov	 DWORD PTR [ecx+96], 0
  00056	c7 41 5c 00 00
	00 00		 mov	 DWORD PTR [ecx+92], 0

; 140  : 	m_nMotionEx		= -1;

  0005d	c7 81 8c 00 00
	00 ff ff ff ff	 mov	 DWORD PTR [ecx+140], -1

; 141  : 	m_bGround		= 0;

  00067	c7 41 44 00 00
	00 00		 mov	 DWORD PTR [ecx+68], 0

; 142  : 	m_bMove			= 0;

  0006e	c7 81 b8 00 00
	00 00 00 00 00	 mov	 DWORD PTR [ecx+184], 0

; 143  : 	m_dwAtkFlags	= 0;

  00078	c7 81 94 00 00
	00 00 00 00 00	 mov	 DWORD PTR [ecx+148], 0

; 144  : 	m_nCastingTime	= 0;

  00082	c7 81 a8 00 00
	00 00 00 00 00	 mov	 DWORD PTR [ecx+168], 0

; 145  : #if __VER >= 10 // __LEGEND	//	9차 전승시스템	Neuz, World, Trans
; 146  : 	m_dwCastingEndTick	= 0;

  0008c	c7 81 ac 00 00
	00 00 00 00 00	 mov	 DWORD PTR [ecx+172], 0

; 147  : 	m_nCastingTick	= 0;

  00096	c7 81 b4 00 00
	00 00 00 00 00	 mov	 DWORD PTR [ecx+180], 0

; 148  : 	m_nCastingSKillID = 0;

  000a0	c7 81 b0 00 00
	00 00 00 00 00	 mov	 DWORD PTR [ecx+176], 0

; 149  : #endif	//__LEGEND	//	9차 전승시스템	Neuz, World, Trans
; 150  : 	m_fDistance		= 0.0f;

  000aa	c7 81 90 00 00
	00 00 00 00 00	 mov	 DWORD PTR [ecx+144], 0

; 151  : 	m_nShootCnt		= 0;

  000b4	c7 81 98 00 00
	00 00 00 00 00	 mov	 DWORD PTR [ecx+152], 0

; 152  : 	m_nMotionHitCount = 0;

  000be	c7 81 9c 00 00
	00 00 00 00 00	 mov	 DWORD PTR [ecx+156], 0

; 153  : 	m_fCurrentHeight = 0.0f;

  000c8	c7 81 80 00 00
	00 00 00 00 00	 mov	 DWORD PTR [ecx+128], 0

; 154  : 	
; 155  : 
; 156  : #ifdef __WORLDSERVER
; 157  : 	m_nDeadCnt		= 0;	

  000d2	c7 81 a0 00 00
	00 00 00 00 00	 mov	 DWORD PTR [ecx+160], 0

; 158  : #endif
; 159  : 
; 160  : #ifdef __CLIENT
; 161  : 	m_dwCtrlMsg		= 0;
; 162  : 	m_pTail			= NULL;
; 163  : #endif
; 164  : 	m_vDeltaAccu	= m_vPosLast	= D3DXVECTOR3( 0.0f, 0.0f, 0.0f );

  000dc	c7 41 74 00 00
	00 00		 mov	 DWORD PTR [ecx+116], 0
  000e3	c7 41 78 00 00
	00 00		 mov	 DWORD PTR [ecx+120], 0
  000ea	c7 41 7c 00 00
	00 00		 mov	 DWORD PTR [ecx+124], 0
  000f1	f3 0f 7e 41 74	 movq	 xmm0, QWORD PTR [ecx+116]
  000f6	8b 41 7c	 mov	 eax, DWORD PTR [ecx+124]
  000f9	66 0f d6 41 68	 movq	 QWORD PTR [ecx+104], xmm0
  000fe	89 41 70	 mov	 DWORD PTR [ecx+112], eax

; 165  : }

  00101	c3		 ret	 0
?Init@CActionMover@@IAEXXZ ENDP				; CActionMover::Init
_TEXT	ENDS
; Function compile flags: /Ogtp
; File C:\IAGOS\server\v18\Source\Source\_aiinterface\actionmover.cpp
; File C:\IAGOS\server\v18\Source\Source\_Common\Project.h
; File C:\IAGOS\server\v18\Source\Source\_aiinterface\actionmover.cpp
; File C:\IAGOS\server\v18\Source\Source\_Common\Mover.h
; File C:\IAGOS\server\v18\Source\Source\_Common\Project.h
; File C:\IAGOS\server\v18\Source\Source\_aiinterface\actionmover.cpp
;	COMDAT ?ProcessCollision@CActionMover@@QAEHPAUD3DXVECTOR3@@@Z
_TEXT	SEGMENT
_vPos$ = 8						; size = 4
?ProcessCollision@CActionMover@@QAEHPAUD3DXVECTOR3@@@Z PROC ; CActionMover::ProcessCollision, COMDAT
; _this$ = ecx

; 177  : {

  00000	55		 push	 ebp
  00001	8b ec		 mov	 ebp, esp
  00003	56		 push	 esi
  00004	8b f1		 mov	 esi, ecx
; File C:\IAGOS\server\v18\Source\Source\_Common\Project.h

; 1406 : 	VERIFY_RANGE( nIndex, 0, m_nMoverPropSize, "GetMoverProp range_error", NULL );

  00006	8b 0d b4 01 00
	00		 mov	 ecx, DWORD PTR ?prj@@3VCProject@@A+436
; File C:\IAGOS\server\v18\Source\Source\_aiinterface\actionmover.cpp

; 177  : {

  0000c	57		 push	 edi
; File C:\IAGOS\server\v18\Source\Source\_Common\Mover.h

; 1020 : 	MoverProp*		GetProp() { return prj.GetMoverProp( m_dwIndex ); }	// 객체의 프로퍼티 얻기 	

  0000d	8b 46 0c	 mov	 eax, DWORD PTR [esi+12]
  00010	8b 80 74 01 00
	00		 mov	 eax, DWORD PTR [eax+372]
; File C:\IAGOS\server\v18\Source\Source\_Common\Project.h

; 1406 : 	VERIFY_RANGE( nIndex, 0, m_nMoverPropSize, "GetMoverProp range_error", NULL );

  00016	85 c0		 test	 eax, eax
  00018	78 12		 js	 SHORT $LN15@ProcessCol
  0001a	3b c1		 cmp	 eax, ecx
  0001c	7d 0e		 jge	 SHORT $LN15@ProcessCol

; 1407 : 	return m_pPropMover + nIndex;

  0001e	69 c0 90 06 00
	00		 imul	 eax, eax, 1680
  00024	03 05 b8 01 00
	00		 add	 eax, DWORD PTR ?prj@@3VCProject@@A+440
  0002a	eb 18		 jmp	 SHORT $LN10@ProcessCol
$LN15@ProcessCol:

; 579  : 	LPCTSTR szErr = Error( _T( "%s min:%d, max:%d, index:%d" ), szMsg, nMin, nMax, nIndex ); 

  0002c	50		 push	 eax
  0002d	51		 push	 ecx
  0002e	6a 00		 push	 0
  00030	68 00 00 00 00	 push	 OFFSET ??_C@_0BJ@GKPOBPPI@GetMoverProp?5range_error@
  00035	68 00 00 00 00	 push	 OFFSET ??_C@_0BM@HMFGHCP@?$CFs?5min?3?$CFd?0?5max?3?$CFd?0?5index?3?$CFd@
  0003a	e8 00 00 00 00	 call	 ?Error@@YAPBDPBDZZ	; Error
  0003f	83 c4 14	 add	 esp, 20			; 00000014H

; 1406 : 	VERIFY_RANGE( nIndex, 0, m_nMoverPropSize, "GetMoverProp range_error", NULL );

  00042	33 c0		 xor	 eax, eax
$LN10@ProcessCol:
; File C:\IAGOS\server\v18\Source\Source\_aiinterface\actionmover.cpp

; 183  : 	if( IsFly() || pProp->dwFlying == 1 )

  00044	f6 46 08 08	 test	 BYTE PTR [esi+8], 8
  00048	75 16		 jne	 SHORT $LN21@ProcessCol
  0004a	83 b8 10 01 00
	00 01		 cmp	 DWORD PTR [eax+272], 1
  00051	74 0d		 je	 SHORT $LN21@ProcessCol

; 190  : 	else
; 191  : 		f	= ProcessCollisionGround( vPos );

  00053	8b 7d 08	 mov	 edi, DWORD PTR _vPos$[ebp]
  00056	8b ce		 mov	 ecx, esi
  00058	57		 push	 edi
  00059	e8 00 00 00 00	 call	 ?ProcessCollisionGround@CActionMover@@QAEHPAUD3DXVECTOR3@@@Z ; CActionMover::ProcessCollisionGround
  0005e	eb 0b		 jmp	 SHORT $LN26@ProcessCol
$LN21@ProcessCol:

; 184  : 		bFly = TRUE;
; 185  : 	else 
; 186  : 		bFly = FALSE;
; 187  : 	
; 188  : 	if( bFly )
; 189  : 		f	= ProcessCollisionFly( vPos );

  00060	8b 7d 08	 mov	 edi, DWORD PTR _vPos$[ebp]
  00063	8b ce		 mov	 ecx, esi
  00065	57		 push	 edi
  00066	e8 00 00 00 00	 call	 ?ProcessCollisionFly@CActionMover@@QAEHPAUD3DXVECTOR3@@@Z ; CActionMover::ProcessCollisionFly
$LN26@ProcessCol:

; 192  : 	m_vPosLast = *vPos;		// 마지막 좌표값을 받아둠

  0006b	f3 0f 7e 07	 movq	 xmm0, QWORD PTR [edi]
  0006f	8b c8		 mov	 ecx, eax
  00071	66 0f d6 46 74	 movq	 QWORD PTR [esi+116], xmm0
  00076	8b 47 08	 mov	 eax, DWORD PTR [edi+8]
  00079	89 46 7c	 mov	 DWORD PTR [esi+124], eax

; 193  : 
; 194  : 	return( f );

  0007c	8b c1		 mov	 eax, ecx
  0007e	5f		 pop	 edi
  0007f	5e		 pop	 esi

; 195  : }

  00080	5d		 pop	 ebp
  00081	c2 04 00	 ret	 4
?ProcessCollision@CActionMover@@QAEHPAUD3DXVECTOR3@@@Z ENDP ; CActionMover::ProcessCollision
_TEXT	ENDS
; Function compile flags: /Ogtp
; File C:\IAGOS\server\v18\Source\Source\_aiinterface\actionmover.cpp
; File C:\IAGOS\server\v18\Source\Source\_AIInterface\Action.h
; File C:\IAGOS\server\v18\Source\Source\_aiinterface\actionmover.cpp
; File C:\IAGOS\server\v18\Source\Source\_AIInterface\Action.h
; File C:\IAGOS\server\v18\Source\Source\_aiinterface\actionmover.cpp
; File C:\IAGOS\server\v18\Source\Source\DX_SDK\d3dx9math.inl
; File C:\IAGOS\server\v18\Source\Source\_aiinterface\actionmover.cpp
; File C:\IAGOS\server\v18\Source\Source\DX_SDK\d3dx9math.inl
; File C:\IAGOS\server\v18\Source\Source\_aiinterface\actionmover.cpp
; File C:\IAGOS\server\v18\Source\Source\DX_SDK\d3dx9math.inl
; File C:\IAGOS\server\v18\Source\Source\_aiinterface\actionmover.cpp
;	COMDAT ?ProcessAction@CActionMover@@QAEHPBUD3DXVECTOR3@@@Z
_TEXT	SEGMENT
_fSpeed$1 = -4						; size = 4
_vPos$ = 8						; size = 4
?ProcessAction@CActionMover@@QAEHPBUD3DXVECTOR3@@@Z PROC ; CActionMover::ProcessAction, COMDAT
; _this$ = ecx

; 211  : {

  00000	55		 push	 ebp
  00001	8b ec		 mov	 ebp, esp
  00003	51		 push	 ecx
  00004	56		 push	 esi
  00005	8b f1		 mov	 esi, ecx

; 212  : 	CMover* pMover = m_pMover;
; 213  : 
; 214  : 	if( IsFly() == FALSE )

  00007	f6 46 08 08	 test	 BYTE PTR [esi+8], 8
  0000b	8b 4e 0c	 mov	 ecx, DWORD PTR [esi+12]
  0000e	75 0e		 jne	 SHORT $LN48@ProcessAct

; 215  : 		m_vDelta.x	= m_vDelta.z	= 0.0f;		

  00010	c7 46 58 00 00
	00 00		 mov	 DWORD PTR [esi+88], 0
  00017	c7 46 50 00 00
	00 00		 mov	 DWORD PTR [esi+80], 0
$LN48@ProcessAct:

; 216  : //	m_vDelta.x	= m_vDelta.z = m_vDelta.y	= 0.0f;		
; 217  : 	
; 218  : 	BOOL bFly = FALSE;
; 219  : 	if( pMover->IsFlyingNPC() )		// 비행형 무버인가.

  0001e	57		 push	 edi
  0001f	8b b9 3c 02 00
	00		 mov	 edi, DWORD PTR [ecx+572]
  00025	81 e7 00 00 01
	00		 and	 edi, 65536		; 00010000H

; 220  : 		bFly = TRUE;
; 221  : 
; 222  : 	// 아무것도 아닌상태
; 223  : 	if( GetState() == 0 ) 

  0002b	83 7e 04 00	 cmp	 DWORD PTR [esi+4], 0
  0002f	75 18		 jne	 SHORT $LN4@ProcessAct

; 224  : 	{
; 225  : 		SendActMsg( OBJMSG_STAND );

  00031	8b 06		 mov	 eax, DWORD PTR [esi]
  00033	8b ce		 mov	 ecx, esi
  00035	6a 00		 push	 0
  00037	6a 00		 push	 0
  00039	6a 00		 push	 0
  0003b	6a 00		 push	 0
  0003d	6a 00		 push	 0
  0003f	6a 03		 push	 3
  00041	ff 50 04	 call	 DWORD PTR [eax+4]

; 226  : 	#ifdef __CLIENT
; 227  : 		if( pMover->IsActiveMover() )
; 228  : 		{
; 229  : 			if( IsFly() )
; 230  : 				g_DPlay.SendPlayerMoved2();
; 231  : 		}
; 232  : 	#endif	// __CLIENT
; 233  : 	}

  00044	e9 e5 00 00 00	 jmp	 $LN12@ProcessAct
$LN4@ProcessAct:

; 234  : 	else
; 235  : 	{
; 236  : 		float fSpeed = pMover->GetSpeed( m_fSpeed );

  00049	f3 0f 10 46 48	 movss	 xmm0, DWORD PTR [esi+72]
  0004e	51		 push	 ecx
  0004f	f3 0f 11 04 24	 movss	 DWORD PTR [esp], xmm0
  00054	e8 00 00 00 00	 call	 ?GetSpeed@CMover@@QAEMM@Z ; CMover::GetSpeed

; 237  : 
; 238  : 		//--------- 상태 처리 ----------------------------
; 239  : 		// 기본적으로 여러가지 상태가 섞일 수 있다.
; 240  : 		// 대기상태와 / 이동중상태를 처리
; 241  : 		if( GetState() & OBJSTA_MOVE_ALL )

  00059	8b 4e 04	 mov	 ecx, DWORD PTR [esi+4]
  0005c	d9 5d fc	 fstp	 DWORD PTR _fSpeed$1[ebp]
  0005f	81 e1 ff 00 00
	00		 and	 ecx, 255		; 000000ffH
  00065	74 13		 je	 SHORT $LN6@ProcessAct

; 242  : 		{
; 243  : 			ProcessState( GetState() & OBJSTA_MOVE_ALL, fSpeed );

  00067	f3 0f 10 45 fc	 movss	 xmm0, DWORD PTR _fSpeed$1[ebp]
  0006c	8b 06		 mov	 eax, DWORD PTR [esi]
  0006e	51		 push	 ecx
  0006f	f3 0f 11 04 24	 movss	 DWORD PTR [esp], xmm0
  00074	51		 push	 ecx
  00075	8b ce		 mov	 ecx, esi
  00077	ff 50 08	 call	 DWORD PTR [eax+8]
$LN6@ProcessAct:

; 244  : 		}
; 245  : 		
; 246  : 		if( GetState() & OBJSTA_TURN_ALL )

  0007a	8b 4e 04	 mov	 ecx, DWORD PTR [esi+4]
  0007d	81 e1 00 03 00
	00		 and	 ecx, 768		; 00000300H
  00083	74 13		 je	 SHORT $LN7@ProcessAct

; 247  : 		{
; 248  : 			ProcessState( GetState() & OBJSTA_TURN_ALL, fSpeed );

  00085	f3 0f 10 45 fc	 movss	 xmm0, DWORD PTR _fSpeed$1[ebp]
  0008a	8b 06		 mov	 eax, DWORD PTR [esi]
  0008c	51		 push	 ecx
  0008d	f3 0f 11 04 24	 movss	 DWORD PTR [esp], xmm0
  00092	51		 push	 ecx
  00093	8b ce		 mov	 ecx, esi
  00095	ff 50 08	 call	 DWORD PTR [eax+8]
$LN7@ProcessAct:

; 249  : 		}
; 250  : 		
; 251  : 		if( GetState() & OBJSTA_LOOK_ALL )

  00098	8b 4e 04	 mov	 ecx, DWORD PTR [esi+4]
  0009b	81 e1 00 0c 00
	00		 and	 ecx, 3072		; 00000c00H
  000a1	74 13		 je	 SHORT $LN8@ProcessAct

; 252  : 		{
; 253  : 			ProcessState( GetState() & OBJSTA_LOOK_ALL, fSpeed );

  000a3	f3 0f 10 45 fc	 movss	 xmm0, DWORD PTR _fSpeed$1[ebp]
  000a8	8b 06		 mov	 eax, DWORD PTR [esi]
  000aa	51		 push	 ecx
  000ab	f3 0f 11 04 24	 movss	 DWORD PTR [esp], xmm0
  000b0	51		 push	 ecx
  000b1	8b ce		 mov	 ecx, esi
  000b3	ff 50 08	 call	 DWORD PTR [eax+8]
$LN8@ProcessAct:

; 254  : 		}
; 255  : 		
; 256  : 		if( GetState() & OBJSTA_JUMP_ALL )

  000b6	8b 4e 04	 mov	 ecx, DWORD PTR [esi+4]
  000b9	81 e1 00 f0 00
	00		 and	 ecx, 61440		; 0000f000H
  000bf	74 13		 je	 SHORT $LN9@ProcessAct

; 257  : 		{
; 258  : 			ProcessState( GetState() & OBJSTA_JUMP_ALL, fSpeed );

  000c1	f3 0f 10 45 fc	 movss	 xmm0, DWORD PTR _fSpeed$1[ebp]
  000c6	8b 06		 mov	 eax, DWORD PTR [esi]
  000c8	51		 push	 ecx
  000c9	f3 0f 11 04 24	 movss	 DWORD PTR [esp], xmm0
  000ce	51		 push	 ecx
  000cf	8b ce		 mov	 ecx, esi
  000d1	ff 50 08	 call	 DWORD PTR [eax+8]
$LN9@ProcessAct:

; 259  : 		}
; 260  : 		
; 261  : 		if( GetState() & OBJSTA_ATK_ALL )

  000d4	8b 4e 04	 mov	 ecx, DWORD PTR [esi+4]
  000d7	81 e1 00 00 ff
	00		 and	 ecx, 16711680		; 00ff0000H
  000dd	74 13		 je	 SHORT $LN10@ProcessAct

; 262  : 		{
; 263  : 			ProcessState( GetState() & OBJSTA_ATK_ALL, fSpeed );

  000df	f3 0f 10 45 fc	 movss	 xmm0, DWORD PTR _fSpeed$1[ebp]
  000e4	8b 06		 mov	 eax, DWORD PTR [esi]
  000e6	51		 push	 ecx
  000e7	f3 0f 11 04 24	 movss	 DWORD PTR [esp], xmm0
  000ec	51		 push	 ecx
  000ed	8b ce		 mov	 ecx, esi
  000ef	ff 50 08	 call	 DWORD PTR [eax+8]
$LN10@ProcessAct:

; 264  : 		}
; 265  : 		
; 266  : 		if( GetState() & OBJSTA_DMG_ALL )

  000f2	8b 4e 04	 mov	 ecx, DWORD PTR [esi+4]
  000f5	81 e1 00 00 00
	0f		 and	 ecx, 251658240		; 0f000000H
  000fb	74 13		 je	 SHORT $LN11@ProcessAct

; 267  : 		{
; 268  : 			ProcessState( GetState() & OBJSTA_DMG_ALL, fSpeed );

  000fd	f3 0f 10 45 fc	 movss	 xmm0, DWORD PTR _fSpeed$1[ebp]
  00102	8b 06		 mov	 eax, DWORD PTR [esi]
  00104	51		 push	 ecx
  00105	f3 0f 11 04 24	 movss	 DWORD PTR [esp], xmm0
  0010a	51		 push	 ecx
  0010b	8b ce		 mov	 ecx, esi
  0010d	ff 50 08	 call	 DWORD PTR [eax+8]
$LN11@ProcessAct:

; 269  : 		}
; 270  : 		
; 271  : 		if( GetState() & OBJSTA_ACTION_ALL )

  00110	8b 4e 04	 mov	 ecx, DWORD PTR [esi+4]
  00113	81 e1 00 00 00
	f0		 and	 ecx, -268435456		; f0000000H
  00119	74 13		 je	 SHORT $LN12@ProcessAct

; 272  : 		{
; 273  : 			ProcessState( GetState() & OBJSTA_ACTION_ALL, fSpeed );

  0011b	f3 0f 10 45 fc	 movss	 xmm0, DWORD PTR _fSpeed$1[ebp]
  00120	8b 06		 mov	 eax, DWORD PTR [esi]
  00122	51		 push	 ecx
  00123	f3 0f 11 04 24	 movss	 DWORD PTR [esp], xmm0
  00128	51		 push	 ecx
  00129	8b ce		 mov	 ecx, esi
  0012b	ff 50 08	 call	 DWORD PTR [eax+8]
$LN12@ProcessAct:

; 274  : 		}
; 275  : 	}
; 276  : 
; 277  : 	m_bMove = 1;
; 278  : 	if( m_vDelta.x == 0 && m_vDelta.z == 0 )	// x,z좌표 이동이 없다. 움직이지 않았음

  0012e	f3 0f 10 46 50	 movss	 xmm0, DWORD PTR [esi+80]
  00133	0f 57 db	 xorps	 xmm3, xmm3
  00136	0f 2e c3	 ucomiss xmm0, xmm3
  00139	c7 86 b8 00 00
	00 01 00 00 00	 mov	 DWORD PTR [esi+184], 1
  00143	b9 01 00 00 00	 mov	 ecx, 1
  00148	9f		 lahf
  00149	f6 c4 44	 test	 ah, 68			; 00000044H
  0014c	7a 44		 jp	 SHORT $LN14@ProcessAct
  0014e	f3 0f 10 46 58	 movss	 xmm0, DWORD PTR [esi+88]
  00153	0f 2e c3	 ucomiss xmm0, xmm3
  00156	9f		 lahf
  00157	f6 c4 44	 test	 ah, 68			; 00000044H
  0015a	7a 36		 jp	 SHORT $LN14@ProcessAct

; 279  : 		if( m_vDeltaE.x == 0 && m_vDeltaE.y == 0 && m_vDeltaE.z == 0 )

  0015c	f3 0f 10 46 5c	 movss	 xmm0, DWORD PTR [esi+92]
  00161	0f 2e c3	 ucomiss xmm0, xmm3
  00164	9f		 lahf
  00165	f6 c4 44	 test	 ah, 68			; 00000044H
  00168	7a 28		 jp	 SHORT $LN14@ProcessAct
  0016a	f3 0f 10 46 60	 movss	 xmm0, DWORD PTR [esi+96]
  0016f	0f 2e c3	 ucomiss xmm0, xmm3
  00172	9f		 lahf
  00173	f6 c4 44	 test	 ah, 68			; 00000044H
  00176	7a 1a		 jp	 SHORT $LN14@ProcessAct
  00178	f3 0f 10 46 64	 movss	 xmm0, DWORD PTR [esi+100]
  0017d	0f 2e c3	 ucomiss xmm0, xmm3
  00180	9f		 lahf
  00181	f6 c4 44	 test	 ah, 68			; 00000044H
  00184	7a 0c		 jp	 SHORT $LN14@ProcessAct

; 280  : 			m_bMove = 0;

  00186	c7 86 b8 00 00
	00 00 00 00 00	 mov	 DWORD PTR [esi+184], 0
  00190	33 c9		 xor	 ecx, ecx
$LN14@ProcessAct:

; 281  : 	
; 282  : 	if( m_vDelta.y != 0 || m_bMove )			// delta x, y, z값에 변경이 있었다면 "서있다" 해제

  00192	f3 0f 10 4e 54	 movss	 xmm1, DWORD PTR [esi+84]
  00197	0f 2e cb	 ucomiss xmm1, xmm3
  0019a	9f		 lahf
  0019b	f6 c4 44	 test	 ah, 68			; 00000044H
  0019e	7a 25		 jp	 SHORT $LN17@ProcessAct
  001a0	85 c9		 test	 ecx, ecx
  001a2	75 21		 jne	 SHORT $LN17@ProcessAct

; 284  : 	else if( fabs(vPos->y - m_vPosLast.y) > 0.001f )

  001a4	8b 45 08	 mov	 eax, DWORD PTR _vPos$[ebp]
  001a7	f3 0f 10 40 04	 movss	 xmm0, DWORD PTR [eax+4]
  001ac	f3 0f 5c 46 78	 subss	 xmm0, DWORD PTR [esi+120]
  001b1	0f 5a c0	 cvtps2pd xmm0, xmm0
  001b4	0f 54 05 00 00
	00 00		 andps	 xmm0, QWORD PTR __xmm@7fffffffffffffff7fffffffffffffff
  001bb	66 0f 2f 05 00
	00 00 00	 comisd	 xmm0, QWORD PTR __real@3f50624de0000000
  001c3	76 07		 jbe	 SHORT $LN18@ProcessAct
$LN17@ProcessAct:

; 283  : 		m_bGround = 0;	

  001c5	c7 46 44 00 00
	00 00		 mov	 DWORD PTR [esi+68], 0
$LN18@ProcessAct:

; 285  : 		m_bGround = 0;
; 286  : 	
; 287  : 	if( IsFly() == FALSE )	

  001cc	f6 46 08 08	 test	 BYTE PTR [esi+8], 8
  001d0	75 3c		 jne	 SHORT $LN19@ProcessAct

; 290  : 		if( !bFly && GetDmgState() != OBJSTA_DISAPPEAR )		// 죽어 사라져가는 중엔 중력처리 안함

  001d2	85 ff		 test	 edi, edi
  001d4	75 3f		 jne	 SHORT $LN20@ProcessAct
; File C:\IAGOS\server\v18\Source\Source\_AIInterface\Action.h

; 304  : 	DWORD			GetDmgState() { return m_dwState & OBJSTA_DMG_ALL; }

  001d6	8b 46 04	 mov	 eax, DWORD PTR [esi+4]
  001d9	25 00 00 00 0f	 and	 eax, 251658240		; 0f000000H
; File C:\IAGOS\server\v18\Source\Source\_aiinterface\actionmover.cpp

; 290  : 		if( !bFly && GetDmgState() != OBJSTA_DISAPPEAR )		// 죽어 사라져가는 중엔 중력처리 안함

  001de	3d 00 00 00 09	 cmp	 eax, 150994944		; 09000000H
  001e3	74 30		 je	 SHORT $LN20@ProcessAct

; 291  : 		{
; 292  : 			if( m_bGround != 1 )		// 땅에 서있는 경우가 아닐때만, 중력 처리

  001e5	83 7e 44 01	 cmp	 DWORD PTR [esi+68], 1
  001e9	74 2a		 je	 SHORT $LN20@ProcessAct

; 293  : 			{
; 294  : 				m_vDelta.y -= 0.005f;

  001eb	f3 0f 5c 0d 00
	00 00 00	 subss	 xmm1, DWORD PTR __real@3ba3d70a

; 295  : 				if( m_vDelta.y < -0.50f )		

  001f3	f3 0f 10 05 00
	00 00 00	 movss	 xmm0, DWORD PTR __real@bf000000
  001fb	0f 2f c1	 comiss	 xmm0, xmm1
  001fe	f3 0f 11 4e 54	 movss	 DWORD PTR [esi+84], xmm1
  00203	76 10		 jbe	 SHORT $LN20@ProcessAct

; 296  : 					m_vDelta.y = -0.50f;

  00205	c7 46 54 00 00
	00 bf		 mov	 DWORD PTR [esi+84], -1090519040 ; bf000000H

; 297  : 			}
; 298  : 		}
; 299  : 	} 

  0020c	eb 07		 jmp	 SHORT $LN20@ProcessAct
$LN19@ProcessAct:

; 300  : 	else
; 301  : 		ProcessFlyMove();

  0020e	8b ce		 mov	 ecx, esi
  00210	e8 00 00 00 00	 call	 ?ProcessFlyMove@CActionMover@@QAEXXZ ; CActionMover::ProcessFlyMove
$LN20@ProcessAct:
; File C:\IAGOS\server\v18\Source\Source\_AIInterface\Action.h

; 310  : 	BOOL			IsDie() { return (m_dwState & OBJSTA_DIE_ALL) ? TRUE : FALSE; }

  00215	8b 46 04	 mov	 eax, DWORD PTR [esi+4]
  00218	5f		 pop	 edi
; File C:\IAGOS\server\v18\Source\Source\_aiinterface\actionmover.cpp

; 303  : 	if( IsDie() )	

  00219	a9 00 00 00 08	 test	 eax, 134217728		; 08000000H
  0021e	74 15		 je	 SHORT $LN49@ProcessAct

; 304  : 		m_vDeltaE.x = m_vDeltaE.y = m_vDeltaE.z = 0;

  00220	c7 46 64 00 00
	00 00		 mov	 DWORD PTR [esi+100], 0
  00227	c7 46 60 00 00
	00 00		 mov	 DWORD PTR [esi+96], 0
  0022e	c7 46 5c 00 00
	00 00		 mov	 DWORD PTR [esi+92], 0
$LN49@ProcessAct:
; File C:\IAGOS\server\v18\Source\Source\DX_SDK\d3dx9math.inl

; 324  :     x += v.x;

  00235	f3 0f 10 56 5c	 movss	 xmm2, DWORD PTR [esi+92]

; 325  :     y += v.y;

  0023a	f3 0f 10 4e 54	 movss	 xmm1, DWORD PTR [esi+84]
  0023f	f3 0f 58 56 50	 addss	 xmm2, DWORD PTR [esi+80]
  00244	f3 0f 11 56 50	 movss	 DWORD PTR [esi+80], xmm2
  00249	f3 0f 58 4e 60	 addss	 xmm1, DWORD PTR [esi+96]

; 324  :     x += v.x;

  0024e	f3 0f 58 56 68	 addss	 xmm2, DWORD PTR [esi+104]

; 325  :     y += v.y;

  00253	f3 0f 11 4e 54	 movss	 DWORD PTR [esi+84], xmm1

; 326  :     z += v.z;

  00258	f3 0f 10 46 64	 movss	 xmm0, DWORD PTR [esi+100]

; 324  :     x += v.x;

  0025d	f3 0f 11 56 68	 movss	 DWORD PTR [esi+104], xmm2

; 326  :     z += v.z;

  00262	f3 0f 58 46 58	 addss	 xmm0, DWORD PTR [esi+88]

; 325  :     y += v.y;

  00267	f3 0f 58 4e 6c	 addss	 xmm1, DWORD PTR [esi+108]

; 326  :     z += v.z;

  0026c	f3 0f 11 46 58	 movss	 DWORD PTR [esi+88], xmm0

; 325  :     y += v.y;

  00271	f3 0f 11 4e 6c	 movss	 DWORD PTR [esi+108], xmm1

; 326  :     z += v.z;

  00276	f3 0f 58 46 70	 addss	 xmm0, DWORD PTR [esi+112]
  0027b	f3 0f 11 46 70	 movss	 DWORD PTR [esi+112], xmm0
; File C:\IAGOS\server\v18\Source\Source\_aiinterface\actionmover.cpp

; 320  : 	if( (GetState() & OBJSTA_DMG_FLY) == 0 )

  00280	a9 00 00 00 02	 test	 eax, 33554432		; 02000000H
  00285	75 78		 jne	 SHORT $LN25@ProcessAct
; File C:\IAGOS\server\v18\Source\Source\DX_SDK\d3dx9math.inl

; 1698 :     return pV->x * pV->x + pV->y * pV->y + pV->z * pV->z;

  00287	f3 0f 10 66 5c	 movss	 xmm4, DWORD PTR [esi+92]
  0028c	f3 0f 10 56 60	 movss	 xmm2, DWORD PTR [esi+96]
  00291	0f 28 cc	 movaps	 xmm1, xmm4
  00294	f3 0f 10 46 64	 movss	 xmm0, DWORD PTR [esi+100]
  00299	f3 0f 59 cc	 mulss	 xmm1, xmm4
  0029d	f3 0f 59 d2	 mulss	 xmm2, xmm2
  002a1	f3 0f 59 c0	 mulss	 xmm0, xmm0
  002a5	f3 0f 58 ca	 addss	 xmm1, xmm2
  002a9	f3 0f 58 c8	 addss	 xmm1, xmm0
; File C:\IAGOS\server\v18\Source\Source\_aiinterface\actionmover.cpp

; 323  : 		if(D3DXVec3LengthSq(&m_vDeltaE) < 0.01f) 

  002ad	f3 0f 10 05 00
	00 00 00	 movss	 xmm0, DWORD PTR __real@3c23d70a
  002b5	0f 2f c1	 comiss	 xmm0, xmm1
  002b8	76 18		 jbe	 SHORT $LN26@ProcessAct

; 324  : 		{
; 325  : 			m_vDeltaE.x = 0.0f; m_vDeltaE.y = 0.0f; m_vDeltaE.z = 0.0f;

  002ba	c7 46 5c 00 00
	00 00		 mov	 DWORD PTR [esi+92], 0
  002c1	0f 57 e4	 xorps	 xmm4, xmm4
  002c4	c7 46 60 00 00
	00 00		 mov	 DWORD PTR [esi+96], 0
  002cb	c7 46 64 00 00
	00 00		 mov	 DWORD PTR [esi+100], 0
$LN26@ProcessAct:
; File C:\IAGOS\server\v18\Source\Source\DX_SDK\d3dx9math.inl

; 342  :     x *= f;

  002d2	f3 0f 10 0d 00
	00 00 00	 movss	 xmm1, DWORD PTR __real@3f666666

; 343  :     y *= f;

  002da	f3 0f 10 46 60	 movss	 xmm0, DWORD PTR [esi+96]
  002df	f3 0f 59 c1	 mulss	 xmm0, xmm1
  002e3	f3 0f 59 e1	 mulss	 xmm4, xmm1
  002e7	f3 0f 11 46 60	 movss	 DWORD PTR [esi+96], xmm0

; 344  :     z *= f;

  002ec	f3 0f 10 46 64	 movss	 xmm0, DWORD PTR [esi+100]
  002f1	f3 0f 59 c1	 mulss	 xmm0, xmm1
  002f5	f3 0f 11 66 5c	 movss	 DWORD PTR [esi+92], xmm4
  002fa	f3 0f 11 46 64	 movss	 DWORD PTR [esi+100], xmm0
$LN25@ProcessAct:
; File C:\IAGOS\server\v18\Source\Source\_aiinterface\actionmover.cpp

; 331  : 	m_nCount++;

  002ff	ff 46 40	 inc	 DWORD PTR [esi+64]

; 332  : 
; 333  : 	return 1;

  00302	b8 01 00 00 00	 mov	 eax, 1
  00307	5e		 pop	 esi

; 334  : }

  00308	8b e5		 mov	 esp, ebp
  0030a	5d		 pop	 ebp
  0030b	c2 04 00	 ret	 4
?ProcessAction@CActionMover@@QAEHPBUD3DXVECTOR3@@@Z ENDP ; CActionMover::ProcessAction
_TEXT	ENDS
; Function compile flags: /Ogtp
; File C:\IAGOS\server\v18\Source\Source\_aiinterface\actionmover.cpp
;	COMDAT ?ProcessPreAction@CActionMover@@QAEXXZ
_TEXT	SEGMENT
?ProcessPreAction@CActionMover@@QAEXXZ PROC		; CActionMover::ProcessPreAction, COMDAT
; _this$ = ecx

; 202  : 	m_vDeltaAccu.x	= m_vDeltaAccu.y	= m_vDeltaAccu.z	= 0.0f;

  00000	c7 41 70 00 00
	00 00		 mov	 DWORD PTR [ecx+112], 0
  00007	c7 41 6c 00 00
	00 00		 mov	 DWORD PTR [ecx+108], 0
  0000e	c7 41 68 00 00
	00 00		 mov	 DWORD PTR [ecx+104], 0

; 203  : }

  00015	c3		 ret	 0
?ProcessPreAction@CActionMover@@QAEXXZ ENDP		; CActionMover::ProcessPreAction
_TEXT	ENDS
; Function compile flags: /Ogtp
; File C:\IAGOS\server\v18\Source\Source\_aiinterface\actionmover.cpp
; File C:\IAGOS\server\v18\Source\Source\_Common\Project.h
; File C:\IAGOS\server\v18\Source\Source\_aiinterface\actionmover.cpp
; File C:\IAGOS\server\v18\Source\Source\_Common\Mover.h
; File C:\IAGOS\server\v18\Source\Source\_Common\Project.h
; File C:\IAGOS\server\v18\Source\Source\_Common\Mover.h
; File C:\IAGOS\server\v18\Source\Source\_aiinterface\actionmover.cpp
; File C:\IAGOS\server\v18\Source\Source\_Common\Project.h
; File C:\IAGOS\server\v18\Source\Source\_aiinterface\actionmover.cpp
;	COMDAT ?SendDamageForce@CActionMover@@QAEHKKHH@Z
_TEXT	SEGMENT
_dwAtkFlags$ = 8					; size = 4
_idSender$ = 12						; size = 4
_nParam$ = 16						; size = 4
_bTarget$ = 20						; size = 4
?SendDamageForce@CActionMover@@QAEHKKHH@Z PROC		; CActionMover::SendDamageForce, COMDAT
; _this$ = ecx

; 457  : {

  00000	55		 push	 ebp
  00001	8b ec		 mov	 ebp, esp
; File C:\IAGOS\server\v18\Source\Source\_Common\Project.h

; 1406 : 	VERIFY_RANGE( nIndex, 0, m_nMoverPropSize, "GetMoverProp range_error", NULL );

  00003	8b 15 b4 01 00
	00		 mov	 edx, DWORD PTR ?prj@@3VCProject@@A+436
; File C:\IAGOS\server\v18\Source\Source\_aiinterface\actionmover.cpp

; 457  : {

  00009	56		 push	 esi
  0000a	8b f1		 mov	 esi, ecx
; File C:\IAGOS\server\v18\Source\Source\_Common\Mover.h

; 1020 : 	MoverProp*		GetProp() { return prj.GetMoverProp( m_dwIndex ); }	// 객체의 프로퍼티 얻기 	

  0000c	8b 46 0c	 mov	 eax, DWORD PTR [esi+12]
  0000f	8b 80 74 01 00
	00		 mov	 eax, DWORD PTR [eax+372]
; File C:\IAGOS\server\v18\Source\Source\_Common\Project.h

; 1406 : 	VERIFY_RANGE( nIndex, 0, m_nMoverPropSize, "GetMoverProp range_error", NULL );

  00015	85 c0		 test	 eax, eax
  00017	78 35		 js	 SHORT $LN15@SendDamage
  00019	3b c2		 cmp	 eax, edx
  0001b	7d 31		 jge	 SHORT $LN15@SendDamage

; 1407 : 	return m_pPropMover + nIndex;

  0001d	69 c0 90 06 00
	00		 imul	 eax, eax, 1680
  00023	03 05 b8 01 00
	00		 add	 eax, DWORD PTR ?prj@@3VCProject@@A+440
; File C:\IAGOS\server\v18\Source\Source\_Common\Mover.h

; 630  : 			return( pProp && pProp->dwClass == dwClass );

  00029	74 39		 je	 SHORT $LN6@SendDamage
  0002b	83 b8 94 00 00
	00 05		 cmp	 DWORD PTR [eax+148], 5
  00032	75 30		 jne	 SHORT $LN6@SendDamage
; File C:\IAGOS\server\v18\Source\Source\_aiinterface\actionmover.cpp

; 461  : 		return SendActMsg( OBJMSG_DAMAGE, dwAtkFlags, idSender, nParam, bTarget );

  00034	8b 06		 mov	 eax, DWORD PTR [esi]
  00036	6a 00		 push	 0
  00038	ff 75 14	 push	 DWORD PTR _bTarget$[ebp]
  0003b	ff 75 10	 push	 DWORD PTR _nParam$[ebp]
  0003e	ff 75 0c	 push	 DWORD PTR _idSender$[ebp]
  00041	ff 75 08	 push	 DWORD PTR _dwAtkFlags$[ebp]
  00044	6a 29		 push	 41			; 00000029H

; 466  : }

  00046	ff 50 04	 call	 DWORD PTR [eax+4]
  00049	5e		 pop	 esi
  0004a	5d		 pop	 ebp
  0004b	c2 10 00	 ret	 16			; 00000010H
$LN15@SendDamage:
; File C:\IAGOS\server\v18\Source\Source\_Common\Project.h

; 579  : 	LPCTSTR szErr = Error( _T( "%s min:%d, max:%d, index:%d" ), szMsg, nMin, nMax, nIndex ); 

  0004e	50		 push	 eax
  0004f	52		 push	 edx
  00050	6a 00		 push	 0
  00052	68 00 00 00 00	 push	 OFFSET ??_C@_0BJ@GKPOBPPI@GetMoverProp?5range_error@
  00057	68 00 00 00 00	 push	 OFFSET ??_C@_0BM@HMFGHCP@?$CFs?5min?3?$CFd?0?5max?3?$CFd?0?5index?3?$CFd@
  0005c	e8 00 00 00 00	 call	 ?Error@@YAPBDPBDZZ	; Error
  00061	83 c4 14	 add	 esp, 20			; 00000014H
$LN6@SendDamage:
; File C:\IAGOS\server\v18\Source\Source\_aiinterface\actionmover.cpp

; 466  : }

  00064	8b 06		 mov	 eax, DWORD PTR [esi]
  00066	8b ce		 mov	 ecx, esi
  00068	6a 00		 push	 0
  0006a	ff 75 14	 push	 DWORD PTR _bTarget$[ebp]
  0006d	ff 75 10	 push	 DWORD PTR _nParam$[ebp]
  00070	ff 75 0c	 push	 DWORD PTR _idSender$[ebp]
  00073	ff 75 08	 push	 DWORD PTR _dwAtkFlags$[ebp]
  00076	6a 2a		 push	 42			; 0000002aH
  00078	ff 50 04	 call	 DWORD PTR [eax+4]
  0007b	5e		 pop	 esi
  0007c	5d		 pop	 ebp
  0007d	c2 10 00	 ret	 16			; 00000010H
?SendDamageForce@CActionMover@@QAEHKKHH@Z ENDP		; CActionMover::SendDamageForce
_TEXT	ENDS
; Function compile flags: /Ogtp
; File C:\IAGOS\server\v18\Source\Source\_aiinterface\actionmover.cpp
; File C:\Program Files (x86)\Windows Kits\10\Include\10.0.26100.0\ucrt\corecrt_math.h
; File C:\IAGOS\server\v18\Source\Source\_aiinterface\actionmover.cpp
; File C:\Program Files (x86)\Windows Kits\10\Include\10.0.26100.0\ucrt\corecrt_math.h
; File C:\IAGOS\server\v18\Source\Source\_aiinterface\actionmover.cpp
; File C:\Program Files (x86)\Windows Kits\10\Include\10.0.26100.0\ucrt\corecrt_math.h
; File C:\IAGOS\server\v18\Source\Source\_aiinterface\actionmover.cpp
; File C:\Program Files (x86)\Windows Kits\10\Include\10.0.26100.0\ucrt\corecrt_math.h
; File C:\IAGOS\server\v18\Source\Source\_aiinterface\actionmover.cpp
; File C:\Program Files (x86)\Windows Kits\10\Include\10.0.26100.0\ucrt\corecrt_math.h
; File C:\IAGOS\server\v18\Source\Source\_aiinterface\actionmover.cpp
;	COMDAT ?DoDamageFly@CActionMover@@QAEXMMM@Z
_TEXT	SEGMENT
tv223 = -8						; size = 8
tv224 = -8						; size = 8
_fAngleXZ$ = 8						; size = 4
_fAngleY$ = 12						; size = 4
_fPower$ = 16						; size = 4
_fDist$1$ = 16						; size = 4
?DoDamageFly@CActionMover@@QAEXMMM@Z PROC		; CActionMover::DoDamageFly, COMDAT
; _this$ = ecx

; 447  : {

  00000	55		 push	 ebp
  00001	8b ec		 mov	 ebp, esp
  00003	83 ec 08	 sub	 esp, 8

; 448  : 	float fTheta = D3DXToRadian( fAngleXZ );
; 449  : 	float fTheta2 = D3DXToRadian( fAngleY );

  00006	f3 0f 10 45 0c	 movss	 xmm0, DWORD PTR _fAngleY$[ebp]
  0000b	f3 0f 59 05 00
	00 00 00	 mulss	 xmm0, DWORD PTR __real@3c8efa35
  00013	56		 push	 esi
  00014	8b f1		 mov	 esi, ecx
; File C:\Program Files (x86)\Windows Kits\10\Include\10.0.26100.0\ucrt\corecrt_math.h

; 683  :             return (float)cos(_X);

  00016	0f 5a c0	 cvtps2pd xmm0, xmm0
  00019	f2 0f 11 45 f8	 movsd	 QWORD PTR tv223[ebp], xmm0
  0001e	e8 00 00 00 00	 call	 __libm_sse2_cos_precise
; File C:\IAGOS\server\v18\Source\Source\_aiinterface\actionmover.cpp

; 450  : 	m_vDelta.y += -cosf( fTheta2 ) * fPower;

  00023	f3 0f 10 4e 54	 movss	 xmm1, DWORD PTR [esi+84]
; File C:\Program Files (x86)\Windows Kits\10\Include\10.0.26100.0\ucrt\corecrt_math.h

; 683  :             return (float)cos(_X);

  00028	0f 57 d2	 xorps	 xmm2, xmm2
  0002b	f2 0f 5a d0	 cvtsd2ss xmm2, xmm0

; 789  :             return (float)sin(_X);

  0002f	f2 0f 10 45 f8	 movsd	 xmm0, QWORD PTR tv223[ebp]
; File C:\IAGOS\server\v18\Source\Source\_aiinterface\actionmover.cpp

; 450  : 	m_vDelta.y += -cosf( fTheta2 ) * fPower;

  00034	f3 0f 59 55 10	 mulss	 xmm2, DWORD PTR _fPower$[ebp]
  00039	f3 0f 5c ca	 subss	 xmm1, xmm2
  0003d	f3 0f 11 4e 54	 movss	 DWORD PTR [esi+84], xmm1
; File C:\Program Files (x86)\Windows Kits\10\Include\10.0.26100.0\ucrt\corecrt_math.h

; 789  :             return (float)sin(_X);

  00042	e8 00 00 00 00	 call	 __libm_sse2_sin_precise
  00047	f2 0f 5a c0	 cvtsd2ss xmm0, xmm0
; File C:\IAGOS\server\v18\Source\Source\_aiinterface\actionmover.cpp

; 451  : 	float fDist = sinf( fTheta2 ) * fPower;

  0004b	f3 0f 59 45 10	 mulss	 xmm0, DWORD PTR _fPower$[ebp]
  00050	f3 0f 11 45 10	 movss	 DWORD PTR _fDist$1$[ebp], xmm0
  00055	f3 0f 10 45 08	 movss	 xmm0, DWORD PTR _fAngleXZ$[ebp]
  0005a	f3 0f 59 05 00
	00 00 00	 mulss	 xmm0, DWORD PTR __real@3c8efa35
; File C:\Program Files (x86)\Windows Kits\10\Include\10.0.26100.0\ucrt\corecrt_math.h

; 789  :             return (float)sin(_X);

  00062	0f 5a c0	 cvtps2pd xmm0, xmm0
  00065	f2 0f 11 45 f8	 movsd	 QWORD PTR tv224[ebp], xmm0
  0006a	e8 00 00 00 00	 call	 __libm_sse2_sin_precise
  0006f	0f 57 c9	 xorps	 xmm1, xmm1
  00072	f2 0f 5a c8	 cvtsd2ss xmm1, xmm0

; 683  :             return (float)cos(_X);

  00076	f2 0f 10 45 f8	 movsd	 xmm0, QWORD PTR tv224[ebp]
; File C:\IAGOS\server\v18\Source\Source\_aiinterface\actionmover.cpp

; 452  : 	m_vDeltaE.x += sinf( fTheta ) * fDist;

  0007b	f3 0f 59 4d 10	 mulss	 xmm1, DWORD PTR _fDist$1$[ebp]
  00080	f3 0f 58 4e 5c	 addss	 xmm1, DWORD PTR [esi+92]
  00085	f3 0f 11 4e 5c	 movss	 DWORD PTR [esi+92], xmm1
; File C:\Program Files (x86)\Windows Kits\10\Include\10.0.26100.0\ucrt\corecrt_math.h

; 683  :             return (float)cos(_X);

  0008a	e8 00 00 00 00	 call	 __libm_sse2_cos_precise
  0008f	0f 57 c9	 xorps	 xmm1, xmm1
  00092	f2 0f 5a c8	 cvtsd2ss xmm1, xmm0
; File C:\IAGOS\server\v18\Source\Source\_aiinterface\actionmover.cpp

; 453  : 	m_vDeltaE.z += -cosf( fTheta ) * fDist;

  00096	f3 0f 10 46 64	 movss	 xmm0, DWORD PTR [esi+100]
  0009b	f3 0f 59 4d 10	 mulss	 xmm1, DWORD PTR _fDist$1$[ebp]
  000a0	f3 0f 5c c1	 subss	 xmm0, xmm1
  000a4	f3 0f 11 46 64	 movss	 DWORD PTR [esi+100], xmm0
  000a9	5e		 pop	 esi

; 454  : }

  000aa	8b e5		 mov	 esp, ebp
  000ac	5d		 pop	 ebp
  000ad	c2 0c 00	 ret	 12			; 0000000cH
?DoDamageFly@CActionMover@@QAEXMMM@Z ENDP		; CActionMover::DoDamageFly
_TEXT	ENDS
; Function compile flags: /Ogtp
; File C:\IAGOS\server\v18\Source\Source\_aiinterface\actionmover.cpp
;	COMDAT ?ProcessState@CActionMover@@UAEXKM@Z
_TEXT	SEGMENT
_dwState$ = 8						; size = 4
_fSpeed$ = 12						; size = 4
?ProcessState@CActionMover@@UAEXKM@Z PROC		; CActionMover::ProcessState, COMDAT
; _this$ = ecx

; 345  : { 

  00000	55		 push	 ebp
  00001	8b ec		 mov	 ebp, esp

; 346  : 	if( IsFly() )

  00003	f6 41 08 08	 test	 BYTE PTR [ecx+8], 8
  00007	f3 0f 10 45 0c	 movss	 xmm0, DWORD PTR _fSpeed$[ebp]
  0000c	8b 41 0c	 mov	 eax, DWORD PTR [ecx+12]
  0000f	51		 push	 ecx
  00010	f3 0f 11 04 24	 movss	 DWORD PTR [esp], xmm0
  00015	ff 75 08	 push	 DWORD PTR _dwState$[ebp]
  00018	50		 push	 eax
  00019	74 09		 je	 SHORT $LN2@ProcessSta

; 347  : 		ProcessState2( m_pMover, dwState, fSpeed );

  0001b	e8 00 00 00 00	 call	 ?ProcessState2@CActionMover@@QAEXPAVCMover@@KM@Z ; CActionMover::ProcessState2

; 350  : }

  00020	5d		 pop	 ebp
  00021	c2 08 00	 ret	 8
$LN2@ProcessSta:

; 348  : 	else
; 349  : 		ProcessState1( m_pMover, dwState, fSpeed );

  00024	e8 00 00 00 00	 call	 ?ProcessState1@CActionMover@@QAEXPAVCMover@@KM@Z ; CActionMover::ProcessState1

; 350  : }

  00029	5d		 pop	 ebp
  0002a	c2 08 00	 ret	 8
?ProcessState@CActionMover@@UAEXKM@Z ENDP		; CActionMover::ProcessState
_TEXT	ENDS
; Function compile flags: /Ogtp
; File C:\IAGOS\server\v18\Source\Source\_aiinterface\actionmover.cpp
;	COMDAT ?SendActMsg@CActionMover@@UAEHW4OBJMSG@@HHHHH@Z
_TEXT	SEGMENT
_dwMsg$ = 8						; size = 4
_nParam1$ = 12						; size = 4
_nParam2$ = 16						; size = 4
_nParam3$ = 20						; size = 4
_nParam4$ = 24						; size = 4
_nParam5$ = 28						; size = 4
?SendActMsg@CActionMover@@UAEHW4OBJMSG@@HHHHH@Z PROC	; CActionMover::SendActMsg, COMDAT
; _this$ = ecx

; 338  : {	

  00000	55		 push	 ebp
  00001	8b ec		 mov	 ebp, esp

; 339  : 	if( IsFly() )

  00003	f6 41 08 08	 test	 BYTE PTR [ecx+8], 8
  00007	ff 75 1c	 push	 DWORD PTR _nParam5$[ebp]
  0000a	8b 41 0c	 mov	 eax, DWORD PTR [ecx+12]
  0000d	ff 75 18	 push	 DWORD PTR _nParam4$[ebp]
  00010	ff 75 14	 push	 DWORD PTR _nParam3$[ebp]
  00013	ff 75 10	 push	 DWORD PTR _nParam2$[ebp]
  00016	ff 75 0c	 push	 DWORD PTR _nParam1$[ebp]
  00019	ff 75 08	 push	 DWORD PTR _dwMsg$[ebp]
  0001c	50		 push	 eax
  0001d	74 09		 je	 SHORT $LN2@SendActMsg

; 340  : 		return ProcessActMsg2( m_pMover, dwMsg, nParam1, nParam2, nParam3, nParam4, nParam5 );

  0001f	e8 00 00 00 00	 call	 ?ProcessActMsg2@CActionMover@@QAEHPAVCMover@@W4OBJMSG@@HHHHH@Z ; CActionMover::ProcessActMsg2

; 342  : }

  00024	5d		 pop	 ebp
  00025	c2 18 00	 ret	 24			; 00000018H
$LN2@SendActMsg:

; 341  : 	return ProcessActMsg1( m_pMover, dwMsg, nParam1, nParam2, nParam3, nParam4, nParam5 );

  00028	e8 00 00 00 00	 call	 ?ProcessActMsg1@CActionMover@@QAEHPAVCMover@@W4OBJMSG@@HHHHH@Z ; CActionMover::ProcessActMsg1

; 342  : }

  0002d	5d		 pop	 ebp
  0002e	c2 18 00	 ret	 24			; 00000018H
?SendActMsg@CActionMover@@UAEHW4OBJMSG@@HHHHH@Z ENDP	; CActionMover::SendActMsg
_TEXT	ENDS
; Function compile flags: /Ogtp
; File C:\IAGOS\server\v18\Source\Source\_aiinterface\actionmover.cpp
;	COMDAT ??1CActionMover@@UAE@XZ
_TEXT	SEGMENT
??1CActionMover@@UAE@XZ PROC				; CActionMover::~CActionMover, COMDAT
; _this$ = ecx

; 126  : {

  00000	c7 01 00 00 00
	00		 mov	 DWORD PTR [ecx], OFFSET ??_7CActionMover@@6B@

; 127  : 	Destroy();
; 128  : }

  00006	e9 00 00 00 00	 jmp	 ??1CAction@@UAE@XZ	; CAction::~CAction
??1CActionMover@@UAE@XZ ENDP				; CActionMover::~CActionMover
_TEXT	ENDS
; Function compile flags: /Ogtp
; File C:\IAGOS\server\v18\Source\Source\_aiinterface\actionmover.cpp
;	COMDAT ??0CActionMover@@QAE@PAVCMover@@@Z
_TEXT	SEGMENT
_this$ = -4						; size = 4
_pMover$ = 8						; size = 4
??0CActionMover@@QAE@PAVCMover@@@Z PROC			; CActionMover::CActionMover, COMDAT
; _this$ = ecx

; 121  : {

  00000	55		 push	 ebp
  00001	8b ec		 mov	 ebp, esp
  00003	51		 push	 ecx
  00004	56		 push	 esi
  00005	ff 75 08	 push	 DWORD PTR _pMover$[ebp]
  00008	8b f1		 mov	 esi, ecx
  0000a	89 75 fc	 mov	 DWORD PTR _this$[ebp], esi
  0000d	e8 00 00 00 00	 call	 ??0CAction@@QAE@PAVCMover@@@Z ; CAction::CAction

; 122  : 	Init();

  00012	8b ce		 mov	 ecx, esi
  00014	c7 06 00 00 00
	00		 mov	 DWORD PTR [esi], OFFSET ??_7CActionMover@@6B@
  0001a	e8 00 00 00 00	 call	 ?Init@CActionMover@@IAEXXZ ; CActionMover::Init

; 123  : }

  0001f	8b c6		 mov	 eax, esi
  00021	5e		 pop	 esi
  00022	8b e5		 mov	 esp, ebp
  00024	5d		 pop	 ebp
  00025	c2 04 00	 ret	 4
??0CActionMover@@QAE@PAVCMover@@@Z ENDP			; CActionMover::CActionMover
_TEXT	ENDS
; Function compile flags: /Ogtp
; File C:\IAGOS\server\v18\Source\Source\_aiinterface\actionmover.cpp
;	COMDAT ??0CActionMover@@QAE@XZ
_TEXT	SEGMENT
_this$ = -4						; size = 4
??0CActionMover@@QAE@XZ PROC				; CActionMover::CActionMover, COMDAT
; _this$ = ecx

; 117  : {

  00000	55		 push	 ebp
  00001	8b ec		 mov	 ebp, esp
  00003	51		 push	 ecx
  00004	56		 push	 esi
  00005	8b f1		 mov	 esi, ecx
  00007	89 75 fc	 mov	 DWORD PTR _this$[ebp], esi
  0000a	e8 00 00 00 00	 call	 ??0CAction@@QAE@XZ	; CAction::CAction

; 118  : 	Init();

  0000f	8b ce		 mov	 ecx, esi
  00011	c7 06 00 00 00
	00		 mov	 DWORD PTR [esi], OFFSET ??_7CActionMover@@6B@
  00017	e8 00 00 00 00	 call	 ?Init@CActionMover@@IAEXXZ ; CActionMover::Init

; 119  : }

  0001c	8b c6		 mov	 eax, esi
  0001e	5e		 pop	 esi
  0001f	8b e5		 mov	 esp, ebp
  00021	5d		 pop	 ebp
  00022	c3		 ret	 0
??0CActionMover@@QAE@XZ ENDP				; CActionMover::CActionMover
_TEXT	ENDS
; Function compile flags: /Ogtp
; File C:\IAGOS\server\v18\Source\Source\_AIInterface\Action.h
;	COMDAT ?Render@CAction@@UAEHPAUIDirect3DDevice9@@PAUD3DXMATRIX@@@Z
_TEXT	SEGMENT
_pd3dDevice$ = 8					; size = 4
_pmatWorld$ = 12					; size = 4
?Render@CAction@@UAEHPAUIDirect3DDevice9@@PAUD3DXMATRIX@@@Z PROC ; CAction::Render, COMDAT
; _this$ = ecx

; 338  : 	virtual	BOOL	Render( LPDIRECT3DDEVICE9 pd3dDevice, D3DXMATRIX* pmatWorld = NULL ) { return TRUE; }

  00000	b8 01 00 00 00	 mov	 eax, 1
  00005	c2 08 00	 ret	 8
?Render@CAction@@UAEHPAUIDirect3DDevice9@@PAUD3DXMATRIX@@@Z ENDP ; CAction::Render
_TEXT	ENDS
; Function compile flags: /Ogtp
; File C:\IAGOS\server\v18\Source\Source\_aiinterface\actionmover.cpp
;	COMDAT ?Process@CMagicAtkMsgq@@QAEHPAVCMover@@@Z
_TEXT	SEGMENT
_pMover$ = 8						; size = 4
?Process@CMagicAtkMsgq@@QAEHPAVCMover@@@Z PROC		; CMagicAtkMsgq::Process, COMDAT
; _this$ = ecx

; 60   : {

  00000	55		 push	 ebp
  00001	8b ec		 mov	 ebp, esp
  00003	53		 push	 ebx
  00004	56		 push	 esi
  00005	57		 push	 edi
  00006	8b f9		 mov	 edi, ecx

; 61   : #ifndef __WORLDSERVER
; 62   : 	if( pMover->IsActiveMover() )
; 63   : 		return( FALSE );
; 64   : #endif	// __WORLDSERVER
; 65   : 
; 66   : 	LPMAGICATKMSG pMagicAtkMsg	= GetHead();

  00008	e8 00 00 00 00	 call	 ?GetHead@?$CActMsgq@UtagMAGICATKMSG@@@@QAEPAUtagMAGICATKMSG@@XZ ; CActMsgq<tagMAGICATKMSG>::GetHead
  0000d	8b f0		 mov	 esi, eax

; 67   : 	int nError;
; 68   : 	CCtrl* pObj;
; 69   : 	while( pMagicAtkMsg )

  0000f	85 f6		 test	 esi, esi
  00011	74 5c		 je	 SHORT $LN3@Process
  00013	8b 5d 08	 mov	 ebx, DWORD PTR _pMover$[ebp]
  00016	66 66 0f 1f 84
	00 00 00 00 00	 npad	 10
$LL2@Process:

; 70   : 	{
; 71   : 		pObj	= prj.GetCtrl( pMagicAtkMsg->nParam1 );

  00020	ff 76 04	 push	 DWORD PTR [esi+4]
  00023	b9 00 00 00 00	 mov	 ecx, OFFSET ?prj@@3VCProject@@A ; prj
  00028	e8 00 00 00 00	 call	 ?GetCtrl@CProject@@QAEPAVCCtrl@@K@Z ; CProject::GetCtrl

; 72   : 		if( pMagicAtkMsg->nParam2 == 0 )

  0002d	83 7e 08 00	 cmp	 DWORD PTR [esi+8], 0
  00031	8b 4e 14	 mov	 ecx, DWORD PTR [esi+20]
  00034	51		 push	 ecx
  00035	8b cb		 mov	 ecx, ebx
  00037	75 0b		 jne	 SHORT $LN4@Process

; 73   : 			nError = pMover->DoAttackMagic( pObj, pMagicAtkMsg->nMagicPower, pMagicAtkMsg->idSfxHit );

  00039	ff 76 10	 push	 DWORD PTR [esi+16]
  0003c	50		 push	 eax
  0003d	e8 00 00 00 00	 call	 ?DoAttackMagic@CMover@@QAEHPAVCObj@@HH@Z ; CMover::DoAttackMagic
  00042	eb 09		 jmp	 SHORT $LN5@Process
$LN4@Process:

; 74   : 		else
; 75   : 			nError = pMover->DoAttackRange( pObj, pMagicAtkMsg->nParam3, pMagicAtkMsg->idSfxHit );

  00044	ff 76 0c	 push	 DWORD PTR [esi+12]
  00047	50		 push	 eax
  00048	e8 00 00 00 00	 call	 ?DoAttackRange@CMover@@QAEHPAVCObj@@KH@Z ; CMover::DoAttackRange
$LN5@Process:

; 76   : 
; 77   : 		if( nError == 1 ) 

  0004d	83 f8 01	 cmp	 eax, 1
  00050	74 26		 je	 SHORT $LN13@Process

; 80   : 			return( TRUE );
; 81   : 		}
; 82   : 		else if( nError == 0 ) 

  00052	85 c0		 test	 eax, eax
  00054	74 19		 je	 SHORT $LN3@Process

; 83   : 		{
; 84   : 			return( FALSE );
; 85   : 		}
; 86   : 		else if( nError == -1 ) 

  00056	83 f8 ff	 cmp	 eax, -1
  00059	75 10		 jne	 SHORT $LN10@Process

; 87   : 		{
; 88   : 			RemoveHead();

  0005b	8b cf		 mov	 ecx, edi
  0005d	e8 00 00 00 00	 call	 ?RemoveHead@?$CActMsgq@UtagMAGICATKMSG@@@@QAEXXZ ; CActMsgq<tagMAGICATKMSG>::RemoveHead

; 89   : 			pMagicAtkMsg	= GetHead();

  00062	8b cf		 mov	 ecx, edi
  00064	e8 00 00 00 00	 call	 ?GetHead@?$CActMsgq@UtagMAGICATKMSG@@@@QAEPAUtagMAGICATKMSG@@XZ ; CActMsgq<tagMAGICATKMSG>::GetHead
  00069	8b f0		 mov	 esi, eax
$LN10@Process:

; 67   : 	int nError;
; 68   : 	CCtrl* pObj;
; 69   : 	while( pMagicAtkMsg )

  0006b	85 f6		 test	 esi, esi
  0006d	75 b1		 jne	 SHORT $LL2@Process
$LN3@Process:
  0006f	5f		 pop	 edi

; 90   : 		}
; 91   : 	}
; 92   : 	return( FALSE );
; 93   : }

  00070	5e		 pop	 esi
  00071	33 c0		 xor	 eax, eax
  00073	5b		 pop	 ebx
  00074	5d		 pop	 ebp
  00075	c2 04 00	 ret	 4
$LN13@Process:

; 78   : 		{
; 79   : 			RemoveHead();

  00078	8b cf		 mov	 ecx, edi
  0007a	e8 00 00 00 00	 call	 ?RemoveHead@?$CActMsgq@UtagMAGICATKMSG@@@@QAEXXZ ; CActMsgq<tagMAGICATKMSG>::RemoveHead
  0007f	5f		 pop	 edi

; 90   : 		}
; 91   : 	}
; 92   : 	return( FALSE );
; 93   : }

  00080	5e		 pop	 esi
  00081	b8 01 00 00 00	 mov	 eax, 1
  00086	5b		 pop	 ebx
  00087	5d		 pop	 ebp
  00088	c2 04 00	 ret	 4
?Process@CMagicAtkMsgq@@QAEHPAVCMover@@@Z ENDP		; CMagicAtkMsgq::Process
_TEXT	ENDS
; Function compile flags: /Ogtp
; File C:\IAGOS\server\v18\Source\Source\_AIInterface\Action.h
; File C:\Program Files\Microsoft Visual Studio\2022\Professional\VC\Tools\MSVC\14.44.35207\include\deque
; File C:\IAGOS\server\v18\Source\Source\_AIInterface\Action.h
; File C:\Program Files\Microsoft Visual Studio\2022\Professional\VC\Tools\MSVC\14.44.35207\include\deque
; File C:\IAGOS\server\v18\Source\Source\_AIInterface\Action.h
;	COMDAT ?GetHead@?$CActMsgq@UtagMAGICATKMSG@@@@QAEPAUtagMAGICATKMSG@@XZ
_TEXT	SEGMENT
?GetHead@?$CActMsgq@UtagMAGICATKMSG@@@@QAEPAUtagMAGICATKMSG@@XZ PROC ; CActMsgq<tagMAGICATKMSG>::GetHead, COMDAT
; _this$ = ecx

; 148  : {

  00000	56		 push	 esi
  00001	8b f1		 mov	 esi, ecx
; File C:\Program Files\Microsoft Visual Studio\2022\Professional\VC\Tools\MSVC\14.44.35207\include\deque

; 971  :         return _Mysize() == 0;

  00003	83 7e 14 00	 cmp	 DWORD PTR [esi+20], 0
; File C:\IAGOS\server\v18\Source\Source\_AIInterface\Action.h

; 149  : 	return( IsEmpty()? NULL: m_qpam.front() );

  00007	75 04		 jne	 SHORT $LN3@GetHead
  00009	33 c0		 xor	 eax, eax
  0000b	5e		 pop	 esi

; 150  : }

  0000c	c3		 ret	 0
$LN3@GetHead:
; File C:\Program Files\Microsoft Visual Studio\2022\Professional\VC\Tools\MSVC\14.44.35207\include\deque

; 1766 :         return _Get_data()._Subscript(_Myoff() + _Pos);

  0000d	8b 56 10	 mov	 edx, DWORD PTR [esi+16]

; 572  :         return static_cast<_Map_difference_type>((_Off / _Block_size) & (_Mapsize - 1));

  00010	8b ca		 mov	 ecx, edx
  00012	8b 46 0c	 mov	 eax, DWORD PTR [esi+12]

; 577  :         const auto _Block_off = static_cast<difference_type>(_Off % _Block_size);

  00015	83 e2 03	 and	 edx, 3

; 572  :         return static_cast<_Map_difference_type>((_Off / _Block_size) & (_Mapsize - 1));

  00018	48		 dec	 eax
  00019	c1 e9 02	 shr	 ecx, 2
  0001c	23 c8		 and	 ecx, eax
; File C:\IAGOS\server\v18\Source\Source\_AIInterface\Action.h

; 149  : 	return( IsEmpty()? NULL: m_qpam.front() );

  0001e	8b 46 08	 mov	 eax, DWORD PTR [esi+8]
  00021	5e		 pop	 esi
  00022	8b 04 88	 mov	 eax, DWORD PTR [eax+ecx*4]
  00025	8b 04 90	 mov	 eax, DWORD PTR [eax+edx*4]

; 150  : }

  00028	c3		 ret	 0
?GetHead@?$CActMsgq@UtagMAGICATKMSG@@@@QAEPAUtagMAGICATKMSG@@XZ ENDP ; CActMsgq<tagMAGICATKMSG>::GetHead
_TEXT	ENDS
; Function compile flags: /Ogtp
; File C:\IAGOS\server\v18\Source\Source\_AIInterface\Action.h
; File C:\Program Files\Microsoft Visual Studio\2022\Professional\VC\Tools\MSVC\14.44.35207\include\deque
; File C:\IAGOS\server\v18\Source\Source\_AIInterface\Action.h
; File C:\Program Files\Microsoft Visual Studio\2022\Professional\VC\Tools\MSVC\14.44.35207\include\deque
; File C:\IAGOS\server\v18\Source\Source\_AIInterface\Action.h
; File C:\Program Files\Microsoft Visual Studio\2022\Professional\VC\Tools\MSVC\14.44.35207\include\deque
; File C:\IAGOS\server\v18\Source\Source\_AIInterface\Action.h
; File C:\Program Files\Microsoft Visual Studio\2022\Professional\VC\Tools\MSVC\14.44.35207\include\deque
; File C:\IAGOS\server\v18\Source\Source\_AIInterface\Action.h
;	COMDAT ?RemoveHead@?$CActMsgq@UtagMAGICATKMSG@@@@QAEXXZ
_TEXT	SEGMENT
tv289 = -4						; size = 4
?RemoveHead@?$CActMsgq@UtagMAGICATKMSG@@@@QAEXXZ PROC	; CActMsgq<tagMAGICATKMSG>::RemoveHead, COMDAT
; _this$ = ecx

; 129  : {

  00000	55		 push	 ebp
  00001	8b ec		 mov	 ebp, esp
  00003	51		 push	 ecx
  00004	56		 push	 esi
  00005	8b f1		 mov	 esi, ecx
; File C:\Program Files\Microsoft Visual Studio\2022\Professional\VC\Tools\MSVC\14.44.35207\include\deque

; 971  :         return _Mysize() == 0;

  00007	83 7e 14 00	 cmp	 DWORD PTR [esi+20], 0
; File C:\IAGOS\server\v18\Source\Source\_AIInterface\Action.h

; 130  : 	if( !IsEmpty() )

  0000b	74 39		 je	 SHORT $LN23@RemoveHead
; File C:\Program Files\Microsoft Visual Studio\2022\Professional\VC\Tools\MSVC\14.44.35207\include\deque

; 1766 :         return _Get_data()._Subscript(_Myoff() + _Pos);

  0000d	8b 56 10	 mov	 edx, DWORD PTR [esi+16]

; 572  :         return static_cast<_Map_difference_type>((_Off / _Block_size) & (_Mapsize - 1));

  00010	8b ca		 mov	 ecx, edx
  00012	8b 46 0c	 mov	 eax, DWORD PTR [esi+12]

; 577  :         const auto _Block_off = static_cast<difference_type>(_Off % _Block_size);

  00015	83 e2 03	 and	 edx, 3

; 572  :         return static_cast<_Map_difference_type>((_Off / _Block_size) & (_Mapsize - 1));

  00018	48		 dec	 eax
  00019	c1 e9 02	 shr	 ecx, 2
  0001c	23 c8		 and	 ecx, eax
; File C:\IAGOS\server\v18\Source\Source\_AIInterface\Action.h

; 132  : 		safe_delete( m_qpam.front() );

  0001e	8b 46 08	 mov	 eax, DWORD PTR [esi+8]
  00021	6a 18		 push	 24			; 00000018H
  00023	8b 04 88	 mov	 eax, DWORD PTR [eax+ecx*4]
  00026	ff 34 90	 push	 DWORD PTR [eax+edx*4]
  00029	e8 00 00 00 00	 call	 ??3@YAXPAXI@Z		; operator delete
  0002e	83 c4 08	 add	 esp, 8
; File C:\Program Files\Microsoft Visual Studio\2022\Professional\VC\Tools\MSVC\14.44.35207\include\deque

; 1496 :         if (--_Mysize() == 0) {

  00031	83 46 14 ff	 add	 DWORD PTR [esi+20], -1
  00035	75 0c		 jne	 SHORT $LN22@RemoveHead

; 1497 :             _Myoff() = 0;

  00037	c7 46 10 00 00
	00 00		 mov	 DWORD PTR [esi+16], 0
  0003e	5e		 pop	 esi
; File C:\IAGOS\server\v18\Source\Source\_AIInterface\Action.h

; 135  : }

  0003f	8b e5		 mov	 esp, ebp
  00041	5d		 pop	 ebp
  00042	c3		 ret	 0
$LN22@RemoveHead:
; File C:\Program Files\Microsoft Visual Studio\2022\Professional\VC\Tools\MSVC\14.44.35207\include\deque

; 1499 :             ++_Myoff();

  00043	ff 46 10	 inc	 DWORD PTR [esi+16]
$LN23@RemoveHead:
  00046	5e		 pop	 esi
; File C:\IAGOS\server\v18\Source\Source\_AIInterface\Action.h

; 135  : }

  00047	8b e5		 mov	 esp, ebp
  00049	5d		 pop	 ebp
  0004a	c3		 ret	 0
?RemoveHead@?$CActMsgq@UtagMAGICATKMSG@@@@QAEXXZ ENDP	; CActMsgq<tagMAGICATKMSG>::RemoveHead
_TEXT	ENDS
; Function compile flags: /Ogtp
; File C:\IAGOS\server\v18\Source\Source\_aiinterface\actionmover.cpp
;	COMDAT ?Process@CMeleeAtkMsgq@@QAEHPAVCAction@@@Z
_TEXT	SEGMENT
_pActMover$ = 8						; size = 4
?Process@CMeleeAtkMsgq@@QAEHPAVCAction@@@Z PROC		; CMeleeAtkMsgq::Process, COMDAT
; _this$ = ecx

; 33   : {

  00000	55		 push	 ebp
  00001	8b ec		 mov	 ebp, esp
  00003	53		 push	 ebx
  00004	56		 push	 esi
  00005	57		 push	 edi
  00006	8b f9		 mov	 edi, ecx

; 34   : #ifdef __CLIENT
; 35   : 	if( pActMover->GetMover()->IsActiveMover() )
; 36   : 		return FALSE;
; 37   : #endif	// __CLIENT
; 38   : 
; 39   : 	LPACTMSG lpActMsg	= GetHead();

  00008	e8 00 00 00 00	 call	 ?GetHead@?$CActMsgq@UtagACTMSG@@@@QAEPAUtagACTMSG@@XZ ; CActMsgq<tagACTMSG>::GetHead
  0000d	8b f0		 mov	 esi, eax

; 40   : 	int nError;
; 41   : 	while( lpActMsg )

  0000f	85 f6		 test	 esi, esi
  00011	74 35		 je	 SHORT $LN3@Process
  00013	8b 5d 08	 mov	 ebx, DWORD PTR _pActMover$[ebp]
$LL2@Process:

; 42   : 	{
; 43   : 		nError	= pActMover->SendActMsg( (OBJMSG)lpActMsg->dwMsg, lpActMsg->nParam1, lpActMsg->nParam2, lpActMsg->nParam3 );

  00016	8b 03		 mov	 eax, DWORD PTR [ebx]
  00018	8b cb		 mov	 ecx, ebx
  0001a	6a 00		 push	 0
  0001c	6a 00		 push	 0
  0001e	ff 76 0c	 push	 DWORD PTR [esi+12]
  00021	ff 76 08	 push	 DWORD PTR [esi+8]
  00024	ff 76 04	 push	 DWORD PTR [esi+4]
  00027	ff 36		 push	 DWORD PTR [esi]
  00029	ff 50 04	 call	 DWORD PTR [eax+4]

; 44   : 		if( nError > 0 ) {

  0002c	85 c0		 test	 eax, eax
  0002e	7f 21		 jg	 SHORT $LN11@Process

; 46   : 			return( TRUE );
; 47   : 		}
; 48   : 		else if( nError == 0 ) {

  00030	74 16		 je	 SHORT $LN3@Process

; 49   : 			return( FALSE );
; 50   : 		}
; 51   : 		else if( nError < 0 ) {

  00032	79 10		 jns	 SHORT $LN8@Process

; 52   : 			RemoveHead();

  00034	8b cf		 mov	 ecx, edi
  00036	e8 00 00 00 00	 call	 ?RemoveHead@?$CActMsgq@UtagACTMSG@@@@QAEXXZ ; CActMsgq<tagACTMSG>::RemoveHead

; 53   : 			lpActMsg	= GetHead();

  0003b	8b cf		 mov	 ecx, edi
  0003d	e8 00 00 00 00	 call	 ?GetHead@?$CActMsgq@UtagACTMSG@@@@QAEPAUtagACTMSG@@XZ ; CActMsgq<tagACTMSG>::GetHead
  00042	8b f0		 mov	 esi, eax
$LN8@Process:

; 40   : 	int nError;
; 41   : 	while( lpActMsg )

  00044	85 f6		 test	 esi, esi
  00046	75 ce		 jne	 SHORT $LL2@Process
$LN3@Process:
  00048	5f		 pop	 edi

; 54   : 		}
; 55   : 	}
; 56   : 	return( FALSE );
; 57   : }

  00049	5e		 pop	 esi
  0004a	33 c0		 xor	 eax, eax
  0004c	5b		 pop	 ebx
  0004d	5d		 pop	 ebp
  0004e	c2 04 00	 ret	 4
$LN11@Process:

; 45   : 			RemoveHead();

  00051	8b cf		 mov	 ecx, edi
  00053	e8 00 00 00 00	 call	 ?RemoveHead@?$CActMsgq@UtagACTMSG@@@@QAEXXZ ; CActMsgq<tagACTMSG>::RemoveHead
  00058	5f		 pop	 edi

; 54   : 		}
; 55   : 	}
; 56   : 	return( FALSE );
; 57   : }

  00059	5e		 pop	 esi
  0005a	b8 01 00 00 00	 mov	 eax, 1
  0005f	5b		 pop	 ebx
  00060	5d		 pop	 ebp
  00061	c2 04 00	 ret	 4
?Process@CMeleeAtkMsgq@@QAEHPAVCAction@@@Z ENDP		; CMeleeAtkMsgq::Process
_TEXT	ENDS
; Function compile flags: /Ogtp
; File C:\IAGOS\server\v18\Source\Source\_AIInterface\Action.h
; File C:\Program Files\Microsoft Visual Studio\2022\Professional\VC\Tools\MSVC\14.44.35207\include\deque
; File C:\IAGOS\server\v18\Source\Source\_AIInterface\Action.h
; File C:\Program Files\Microsoft Visual Studio\2022\Professional\VC\Tools\MSVC\14.44.35207\include\deque
; File C:\IAGOS\server\v18\Source\Source\_AIInterface\Action.h
;	COMDAT ?GetHead@?$CActMsgq@UtagACTMSG@@@@QAEPAUtagACTMSG@@XZ
_TEXT	SEGMENT
?GetHead@?$CActMsgq@UtagACTMSG@@@@QAEPAUtagACTMSG@@XZ PROC ; CActMsgq<tagACTMSG>::GetHead, COMDAT
; _this$ = ecx

; 148  : {

  00000	56		 push	 esi
  00001	8b f1		 mov	 esi, ecx
; File C:\Program Files\Microsoft Visual Studio\2022\Professional\VC\Tools\MSVC\14.44.35207\include\deque

; 971  :         return _Mysize() == 0;

  00003	83 7e 14 00	 cmp	 DWORD PTR [esi+20], 0
; File C:\IAGOS\server\v18\Source\Source\_AIInterface\Action.h

; 149  : 	return( IsEmpty()? NULL: m_qpam.front() );

  00007	75 04		 jne	 SHORT $LN3@GetHead
  00009	33 c0		 xor	 eax, eax
  0000b	5e		 pop	 esi

; 150  : }

  0000c	c3		 ret	 0
$LN3@GetHead:
; File C:\Program Files\Microsoft Visual Studio\2022\Professional\VC\Tools\MSVC\14.44.35207\include\deque

; 1766 :         return _Get_data()._Subscript(_Myoff() + _Pos);

  0000d	8b 56 10	 mov	 edx, DWORD PTR [esi+16]

; 572  :         return static_cast<_Map_difference_type>((_Off / _Block_size) & (_Mapsize - 1));

  00010	8b ca		 mov	 ecx, edx
  00012	8b 46 0c	 mov	 eax, DWORD PTR [esi+12]

; 577  :         const auto _Block_off = static_cast<difference_type>(_Off % _Block_size);

  00015	83 e2 03	 and	 edx, 3

; 572  :         return static_cast<_Map_difference_type>((_Off / _Block_size) & (_Mapsize - 1));

  00018	48		 dec	 eax
  00019	c1 e9 02	 shr	 ecx, 2
  0001c	23 c8		 and	 ecx, eax
; File C:\IAGOS\server\v18\Source\Source\_AIInterface\Action.h

; 149  : 	return( IsEmpty()? NULL: m_qpam.front() );

  0001e	8b 46 08	 mov	 eax, DWORD PTR [esi+8]
  00021	5e		 pop	 esi
  00022	8b 04 88	 mov	 eax, DWORD PTR [eax+ecx*4]
  00025	8b 04 90	 mov	 eax, DWORD PTR [eax+edx*4]

; 150  : }

  00028	c3		 ret	 0
?GetHead@?$CActMsgq@UtagACTMSG@@@@QAEPAUtagACTMSG@@XZ ENDP ; CActMsgq<tagACTMSG>::GetHead
_TEXT	ENDS
; Function compile flags: /Ogtp
; File C:\IAGOS\server\v18\Source\Source\_AIInterface\Action.h
; File C:\Program Files\Microsoft Visual Studio\2022\Professional\VC\Tools\MSVC\14.44.35207\include\deque
; File C:\IAGOS\server\v18\Source\Source\_AIInterface\Action.h
; File C:\Program Files\Microsoft Visual Studio\2022\Professional\VC\Tools\MSVC\14.44.35207\include\deque
; File C:\IAGOS\server\v18\Source\Source\_AIInterface\Action.h
; File C:\Program Files\Microsoft Visual Studio\2022\Professional\VC\Tools\MSVC\14.44.35207\include\deque
; File C:\IAGOS\server\v18\Source\Source\_AIInterface\Action.h
; File C:\Program Files\Microsoft Visual Studio\2022\Professional\VC\Tools\MSVC\14.44.35207\include\deque
; File C:\IAGOS\server\v18\Source\Source\_AIInterface\Action.h
;	COMDAT ?RemoveHead@?$CActMsgq@UtagACTMSG@@@@QAEXXZ
_TEXT	SEGMENT
tv289 = -4						; size = 4
?RemoveHead@?$CActMsgq@UtagACTMSG@@@@QAEXXZ PROC	; CActMsgq<tagACTMSG>::RemoveHead, COMDAT
; _this$ = ecx

; 129  : {

  00000	55		 push	 ebp
  00001	8b ec		 mov	 ebp, esp
  00003	51		 push	 ecx
  00004	56		 push	 esi
  00005	8b f1		 mov	 esi, ecx
; File C:\Program Files\Microsoft Visual Studio\2022\Professional\VC\Tools\MSVC\14.44.35207\include\deque

; 971  :         return _Mysize() == 0;

  00007	83 7e 14 00	 cmp	 DWORD PTR [esi+20], 0
; File C:\IAGOS\server\v18\Source\Source\_AIInterface\Action.h

; 130  : 	if( !IsEmpty() )

  0000b	74 39		 je	 SHORT $LN23@RemoveHead
; File C:\Program Files\Microsoft Visual Studio\2022\Professional\VC\Tools\MSVC\14.44.35207\include\deque

; 1766 :         return _Get_data()._Subscript(_Myoff() + _Pos);

  0000d	8b 56 10	 mov	 edx, DWORD PTR [esi+16]

; 572  :         return static_cast<_Map_difference_type>((_Off / _Block_size) & (_Mapsize - 1));

  00010	8b ca		 mov	 ecx, edx
  00012	8b 46 0c	 mov	 eax, DWORD PTR [esi+12]

; 577  :         const auto _Block_off = static_cast<difference_type>(_Off % _Block_size);

  00015	83 e2 03	 and	 edx, 3

; 572  :         return static_cast<_Map_difference_type>((_Off / _Block_size) & (_Mapsize - 1));

  00018	48		 dec	 eax
  00019	c1 e9 02	 shr	 ecx, 2
  0001c	23 c8		 and	 ecx, eax
; File C:\IAGOS\server\v18\Source\Source\_AIInterface\Action.h

; 132  : 		safe_delete( m_qpam.front() );

  0001e	8b 46 08	 mov	 eax, DWORD PTR [esi+8]
  00021	6a 10		 push	 16			; 00000010H
  00023	8b 04 88	 mov	 eax, DWORD PTR [eax+ecx*4]
  00026	ff 34 90	 push	 DWORD PTR [eax+edx*4]
  00029	e8 00 00 00 00	 call	 ??3@YAXPAXI@Z		; operator delete
  0002e	83 c4 08	 add	 esp, 8
; File C:\Program Files\Microsoft Visual Studio\2022\Professional\VC\Tools\MSVC\14.44.35207\include\deque

; 1496 :         if (--_Mysize() == 0) {

  00031	83 46 14 ff	 add	 DWORD PTR [esi+20], -1
  00035	75 0c		 jne	 SHORT $LN22@RemoveHead

; 1497 :             _Myoff() = 0;

  00037	c7 46 10 00 00
	00 00		 mov	 DWORD PTR [esi+16], 0
  0003e	5e		 pop	 esi
; File C:\IAGOS\server\v18\Source\Source\_AIInterface\Action.h

; 135  : }

  0003f	8b e5		 mov	 esp, ebp
  00041	5d		 pop	 ebp
  00042	c3		 ret	 0
$LN22@RemoveHead:
; File C:\Program Files\Microsoft Visual Studio\2022\Professional\VC\Tools\MSVC\14.44.35207\include\deque

; 1499 :             ++_Myoff();

  00043	ff 46 10	 inc	 DWORD PTR [esi+16]
$LN23@RemoveHead:
  00046	5e		 pop	 esi
; File C:\IAGOS\server\v18\Source\Source\_AIInterface\Action.h

; 135  : }

  00047	8b e5		 mov	 esp, ebp
  00049	5d		 pop	 ebp
  0004a	c3		 ret	 0
?RemoveHead@?$CActMsgq@UtagACTMSG@@@@QAEXXZ ENDP	; CActMsgq<tagACTMSG>::RemoveHead
_TEXT	ENDS
; Function compile flags: /Ogtp
; File C:\IAGOS\server\v18\Source\Source\DX_SDK\d3dx9math.h
;	COMDAT ??0D3DXVECTOR3@@QAE@XZ
_TEXT	SEGMENT
??0D3DXVECTOR3@@QAE@XZ PROC				; D3DXVECTOR3::D3DXVECTOR3, COMDAT
; _this$ = ecx

; 165  :     D3DXVECTOR3() {};

  00000	8b c1		 mov	 eax, ecx
  00002	c3		 ret	 0
??0D3DXVECTOR3@@QAE@XZ ENDP				; D3DXVECTOR3::D3DXVECTOR3
_TEXT	ENDS
; Function compile flags: /Ogtp
; File C:\IAGOS\server\v18\Source\Source\_aiinterface\actionmover.cpp
;	COMDAT ?__empty_global_delete@@YAXPAXI@Z
_TEXT	SEGMENT
___formal$ = 8						; size = 4
___formal$ = 12						; size = 4
?__empty_global_delete@@YAXPAXI@Z PROC			; __empty_global_delete, COMDAT

  00000	c2 00 00	 ret	 0
?__empty_global_delete@@YAXPAXI@Z ENDP			; __empty_global_delete
_TEXT	ENDS
; Function compile flags: /Ogtp
; File C:\IAGOS\server\v18\Source\Source\_aiinterface\actionmover.cpp
;	COMDAT ?__empty_global_delete@@YAXPAX@Z
_TEXT	SEGMENT
___formal$ = 8						; size = 4
?__empty_global_delete@@YAXPAX@Z PROC			; __empty_global_delete, COMDAT

  00000	c2 00 00	 ret	 0
?__empty_global_delete@@YAXPAX@Z ENDP			; __empty_global_delete
_TEXT	ENDS
END
