; Listing generated by Microsoft (R) Optimizing Compiler Version 19.44.35225.0 

	TITLE	C:\IAGOS\server\v18\Source\Output\WorldServer\Release\AIBear.obj
	.686P
	.XMM
	include listing.inc
	.model	flat

INCLUDELIB LIBCMT
INCLUDELIB OLDNAMES

PUBLIC	?stateMap@CAIBear@@2USTATEMAP@@B		; CAIBear::stateMap
EXTRN	?stateMap@CAIInterface@@2USTATEMAP@@B:QWORD	; CAIInterface::stateMap
CONST	SEGMENT
?stateMap@CAIBear@@2USTATEMAP@@B DD FLAT:?stateMap@CAIInterface@@2USTATEMAP@@B ; CAIBear::stateMap
	DD	FLAT:?stateMapEntries@CAIBear@@2QBUSTATEMAP_ENTRIES@@B
?piecewise_construct@std@@3Upiecewise_construct_t@1@B	ORG $+1 ; std::piecewise_construct
CONST	ENDS
PUBLIC	?__empty_global_delete@@YAXPAX@Z		; __empty_global_delete
PUBLIC	?__empty_global_delete@@YAXPAXI@Z		; __empty_global_delete
PUBLIC	??0D3DXVECTOR3@@QAE@XZ				; D3DXVECTOR3::D3DXVECTOR3
PUBLIC	??1CTimer@@UAE@XZ				; CTimer::~CTimer
PUBLIC	??_GCTimer@@UAEPAXI@Z				; CTimer::`scalar deleting destructor'
PUBLIC	?GetText@CProject@@QAEPBDK@Z			; CProject::GetText
PUBLIC	?IsReturnToBegin@CAIInterface@@UAEHXZ		; CAIInterface::IsReturnToBegin
PUBLIC	?MoveProcessIdle@CAIBear@@AAEHXZ		; CAIBear::MoveProcessIdle
PUBLIC	?MoveProcessRage@CAIBear@@AAEHXZ		; CAIBear::MoveProcessRage
PUBLIC	?SelectTarget@CAIBear@@AAEHXZ			; CAIBear::SelectTarget
PUBLIC	?Init@CAIBear@@AAEXXZ				; CAIBear::Init
PUBLIC	?Destroy@CAIBear@@AAEXXZ			; CAIBear::Destroy
PUBLIC	??0CAIBear@@QAE@XZ				; CAIBear::CAIBear
PUBLIC	??0CAIBear@@QAE@PAVCObj@@@Z			; CAIBear::CAIBear
PUBLIC	??1CAIBear@@UAE@XZ				; CAIBear::~CAIBear
PUBLIC	?InitAI@CAIBear@@UAEXXZ				; CAIBear::InitAI
PUBLIC	?SummonMonster@CAIBear@@QAEXKUD3DXVECTOR3@@@Z	; CAIBear::SummonMonster
PUBLIC	?StateInit@CAIBear@@QAEHABUAIMSG@@@Z		; CAIBear::StateInit
PUBLIC	?StateIdle@CAIBear@@QAEHABUAIMSG@@@Z		; CAIBear::StateIdle
PUBLIC	?StateRage@CAIBear@@QAEHABUAIMSG@@@Z		; CAIBear::StateRage
PUBLIC	?GetStateMap@CAIBear@@UBEPBUSTATEMAP@@XZ	; CAIBear::GetStateMap
PUBLIC	??_GCAIBear@@UAEPAXI@Z				; CAIBear::`scalar deleting destructor'
PUBLIC	??_C@_00CNPNBAHC@@				; `string'
PUBLIC	??_7CTimer@@6B@					; CTimer::`vftable'
PUBLIC	??_C@_0BM@HMFGHCP@?$CFs?5min?3?$CFd?0?5max?3?$CFd?0?5index?3?$CFd@ ; `string'
PUBLIC	??_C@_0BJ@GKPOBPPI@GetMoverProp?5range_error@	; `string'
PUBLIC	??_C@_0BE@OHDBLHOM@GetText?5range_error@	; `string'
PUBLIC	??_C@_05KKCIMGE@error@				; `string'
PUBLIC	??_R4CTimer@@6B@				; CTimer::`RTTI Complete Object Locator'
PUBLIC	??_R0?AVCTimer@@@8				; CTimer `RTTI Type Descriptor'
PUBLIC	??_R3CTimer@@8					; CTimer::`RTTI Class Hierarchy Descriptor'
PUBLIC	??_R2CTimer@@8					; CTimer::`RTTI Base Class Array'
PUBLIC	??_R1A@?0A@EA@CTimer@@8				; CTimer::`RTTI Base Class Descriptor at (0,-1,0,64)'
PUBLIC	?stateMapEntries@CAIBear@@2QBUSTATEMAP_ENTRIES@@B ; CAIBear::stateMapEntries
PUBLIC	??_7CAIBear@@6B@				; CAIBear::`vftable'
PUBLIC	??_C@_0DE@LJNKFOIH@CAIBear?3?3StateRage?5?9?5AIMSG_ARRI@ ; `string'
PUBLIC	??_C@_0CL@FACONPFG@CAIBear?3?3StateRage?5?3?5AIMSG_ATTA@ ; `string'
PUBLIC	??_R4CAIBear@@6B@				; CAIBear::`RTTI Complete Object Locator'
PUBLIC	??_R0?AVCAIBear@@@8				; CAIBear `RTTI Type Descriptor'
PUBLIC	??_R3CAIBear@@8					; CAIBear::`RTTI Class Hierarchy Descriptor'
PUBLIC	??_R2CAIBear@@8					; CAIBear::`RTTI Base Class Array'
PUBLIC	??_R1A@?0A@EA@CAIBear@@8			; CAIBear::`RTTI Base Class Descriptor at (0,-1,0,64)'
PUBLIC	??_R1A@?0A@EA@CAIInterface@@8			; CAIInterface::`RTTI Base Class Descriptor at (0,-1,0,64)'
PUBLIC	??_R0?AVCAIInterface@@@8			; CAIInterface `RTTI Type Descriptor'
PUBLIC	??_R3CAIInterface@@8				; CAIInterface::`RTTI Class Hierarchy Descriptor'
PUBLIC	??_R2CAIInterface@@8				; CAIInterface::`RTTI Base Class Array'
PUBLIC	__real@3c8efa35
PUBLIC	__real@40000000
PUBLIC	__real@40800000
PUBLIC	__real@40e00000
PUBLIC	__real@41200000
PUBLIC	__real@42000000
PUBLIC	__real@c0000000
PUBLIC	__xmm@80000000800000008000000080000000
EXTRN	??3@YAXPAXI@Z:PROC				; operator delete
EXTRN	__imp__timeGetTime@0:PROC
EXTRN	??0CTimer@@QAE@XZ:PROC				; CTimer::CTimer
EXTRN	?Set@CTimer@@QAEXMH@Z:PROC			; CTimer::Set
EXTRN	?Reset@CTimer@@UAEXXZ:PROC			; CTimer::Reset
EXTRN	?Over@CTimer@@UAEHXZ:PROC			; CTimer::Over
EXTRN	??_ECTimer@@UAEPAXI@Z:PROC			; CTimer::`vector deleting destructor'
EXTRN	?xRandomF@@YAMM@Z:PROC				; xRandomF
EXTRN	?Error@@YAPBDPBDZZ:PROC				; Error
EXTRN	?UpdateLocalMatrix@CObj@@QAEXXZ:PROC		; CObj::UpdateLocalMatrix
EXTRN	?SetPos@CObj@@QAEXABUD3DXVECTOR3@@@Z:PROC	; CObj::SetPos
EXTRN	?GetRadiusXZ@CObj@@QAEMXZ:PROC			; CObj::GetRadiusXZ
EXTRN	?GetMover@CProject@@QAEPAVCMover@@K@Z:PROC	; CProject::GetMover
EXTRN	?ResetState@CAction@@QAEXK@Z:PROC		; CAction::ResetState
EXTRN	??0CAIInterface@@QAE@XZ:PROC			; CAIInterface::CAIInterface
EXTRN	??0CAIInterface@@QAE@PAVCObj@@@Z:PROC		; CAIInterface::CAIInterface
EXTRN	??1CAIInterface@@UAE@XZ:PROC			; CAIInterface::~CAIInterface
EXTRN	?RouteMessage@CAIInterface@@UAEXXZ:PROC		; CAIInterface::RouteMessage
EXTRN	?SendAIMsg@CAIInterface@@UAEXKKKK@Z:PROC	; CAIInterface::SendAIMsg
EXTRN	?PostAIMsg@CAIInterface@@UAEXKKKK@Z:PROC	; CAIInterface::PostAIMsg
EXTRN	?ScanTarget@CAIInterface@@IAEPAVCMover@@PAVCObj@@HHKKH@Z:PROC ; CAIInterface::ScanTarget
EXTRN	?ScanTargetStrong@CAIInterface@@IAEPAVCMover@@PAVCObj@@M@Z:PROC ; CAIInterface::ScanTargetStrong
EXTRN	?ScanTargetOverHealer@CAIInterface@@IAEPAVCMover@@PAVCObj@@M@Z:PROC ; CAIInterface::ScanTargetOverHealer
EXTRN	?GetName@CMover@@QAEPBDH@Z:PROC			; CMover::GetName
EXTRN	?GetJob@CMover@@QAEHXZ:PROC			; CMover::GetJob
EXTRN	?GetHitPointPercent@CMover@@QAEHH@Z:PROC	; CMover::GetHitPointPercent
EXTRN	?CMD_SetMeleeAttack@CMover@@QAEXKM@Z:PROC	; CMover::CMD_SetMeleeAttack
EXTRN	?DoAttackMelee@CMover@@QAEHPAV1@W4OBJMSG@@K@Z:PROC ; CMover::DoAttackMelee
EXTRN	?AddObj@CWorld@@QAEHPAVCObj@@HH@Z:PROC		; CWorld::AddObj
EXTRN	?CreateObj@@YAPAVCObj@@PAUIDirect3DDevice9@@KKH@Z:PROC ; CreateObj
EXTRN	??_ECAIBear@@UAEPAXI@Z:PROC			; CAIBear::`vector deleting destructor'
EXTRN	?AddWorldShout@CUserMng@@QAEXPBD0UD3DXVECTOR3@@PAVCWorld@@@Z:PROC ; CUserMng::AddWorldShout
EXTRN	?SendCaption@CDPCoreClient@@QAEXPBDKH@Z:PROC	; CDPCoreClient::SendCaption
EXTRN	@__security_check_cookie@4:PROC
EXTRN	___CxxFrameHandler3:PROC
EXTRN	__libm_sse2_cos_precise:PROC
EXTRN	__libm_sse2_sin_precise:PROC
EXTRN	??_7type_info@@6B@:QWORD			; type_info::`vftable'
EXTRN	?g_next@@3KA:DWORD				; g_next
EXTRN	?prj@@3VCProject@@A:BYTE			; prj
EXTRN	?g_UserMng@@3VCUserMng@@A:BYTE			; g_UserMng
EXTRN	?g_DPCoreClient@@3VCDPCoreClient@@A:BYTE	; g_DPCoreClient
EXTRN	___security_cookie:DWORD
EXTRN	__fltused:DWORD
;	COMDAT __xmm@80000000800000008000000080000000
CONST	SEGMENT
__xmm@80000000800000008000000080000000 DB 00H, 00H, 00H, 080H, 00H, 00H, 00H
	DB	080H, 00H, 00H, 00H, 080H, 00H, 00H, 00H, 080H
CONST	ENDS
;	COMDAT __real@c0000000
CONST	SEGMENT
__real@c0000000 DD 0c0000000r			; -2
CONST	ENDS
;	COMDAT __real@42000000
CONST	SEGMENT
__real@42000000 DD 042000000r			; 32
CONST	ENDS
;	COMDAT __real@41200000
CONST	SEGMENT
__real@41200000 DD 041200000r			; 10
CONST	ENDS
;	COMDAT __real@40e00000
CONST	SEGMENT
__real@40e00000 DD 040e00000r			; 7
CONST	ENDS
;	COMDAT __real@40800000
CONST	SEGMENT
__real@40800000 DD 040800000r			; 4
CONST	ENDS
;	COMDAT __real@40000000
CONST	SEGMENT
__real@40000000 DD 040000000r			; 2
CONST	ENDS
;	COMDAT __real@3c8efa35
CONST	SEGMENT
__real@3c8efa35 DD 03c8efa35r			; 0.0174533
CONST	ENDS
;	COMDAT ??_R2CAIInterface@@8
rdata$r	SEGMENT
??_R2CAIInterface@@8 DD FLAT:??_R1A@?0A@EA@CAIInterface@@8 ; CAIInterface::`RTTI Base Class Array'
rdata$r	ENDS
;	COMDAT ??_R3CAIInterface@@8
rdata$r	SEGMENT
??_R3CAIInterface@@8 DD 00H				; CAIInterface::`RTTI Class Hierarchy Descriptor'
	DD	00H
	DD	01H
	DD	FLAT:??_R2CAIInterface@@8
rdata$r	ENDS
;	COMDAT ??_R0?AVCAIInterface@@@8
data$rs	SEGMENT
??_R0?AVCAIInterface@@@8 DD FLAT:??_7type_info@@6B@	; CAIInterface `RTTI Type Descriptor'
	DD	00H
	DB	'.?AVCAIInterface@@', 00H
data$rs	ENDS
;	COMDAT ??_R1A@?0A@EA@CAIInterface@@8
rdata$r	SEGMENT
??_R1A@?0A@EA@CAIInterface@@8 DD FLAT:??_R0?AVCAIInterface@@@8 ; CAIInterface::`RTTI Base Class Descriptor at (0,-1,0,64)'
	DD	00H
	DD	00H
	DD	0ffffffffH
	DD	00H
	DD	040H
	DD	FLAT:??_R3CAIInterface@@8
rdata$r	ENDS
;	COMDAT ??_R1A@?0A@EA@CAIBear@@8
rdata$r	SEGMENT
??_R1A@?0A@EA@CAIBear@@8 DD FLAT:??_R0?AVCAIBear@@@8	; CAIBear::`RTTI Base Class Descriptor at (0,-1,0,64)'
	DD	01H
	DD	00H
	DD	0ffffffffH
	DD	00H
	DD	040H
	DD	FLAT:??_R3CAIBear@@8
rdata$r	ENDS
;	COMDAT ??_R2CAIBear@@8
rdata$r	SEGMENT
??_R2CAIBear@@8 DD FLAT:??_R1A@?0A@EA@CAIBear@@8	; CAIBear::`RTTI Base Class Array'
	DD	FLAT:??_R1A@?0A@EA@CAIInterface@@8
rdata$r	ENDS
;	COMDAT ??_R3CAIBear@@8
rdata$r	SEGMENT
??_R3CAIBear@@8 DD 00H					; CAIBear::`RTTI Class Hierarchy Descriptor'
	DD	00H
	DD	02H
	DD	FLAT:??_R2CAIBear@@8
rdata$r	ENDS
;	COMDAT ??_R0?AVCAIBear@@@8
data$rs	SEGMENT
??_R0?AVCAIBear@@@8 DD FLAT:??_7type_info@@6B@		; CAIBear `RTTI Type Descriptor'
	DD	00H
	DB	'.?AVCAIBear@@', 00H
data$rs	ENDS
;	COMDAT ??_R4CAIBear@@6B@
rdata$r	SEGMENT
??_R4CAIBear@@6B@ DD 00H				; CAIBear::`RTTI Complete Object Locator'
	DD	00H
	DD	00H
	DD	FLAT:??_R0?AVCAIBear@@@8
	DD	FLAT:??_R3CAIBear@@8
rdata$r	ENDS
;	COMDAT ??_C@_0CL@FACONPFG@CAIBear?3?3StateRage?5?3?5AIMSG_ATTA@
CONST	SEGMENT
??_C@_0CL@FACONPFG@CAIBear?3?3StateRage?5?3?5AIMSG_ATTA@ DB 'CAIBear::Sta'
	DB	'teRage : AIMSG_ATTACK_MELEE %d', 00H	; `string'
CONST	ENDS
;	COMDAT ??_C@_0DE@LJNKFOIH@CAIBear?3?3StateRage?5?9?5AIMSG_ARRI@
CONST	SEGMENT
??_C@_0DE@LJNKFOIH@CAIBear?3?3StateRage?5?9?5AIMSG_ARRI@ DB 'CAIBear::Sta'
	DB	'teRage - AIMSG_ARRIVAL m_nAttackType=%d', 00H ; `string'
CONST	ENDS
;	COMDAT ??_7CAIBear@@6B@
CONST	SEGMENT
??_7CAIBear@@6B@ DD FLAT:??_R4CAIBear@@6B@		; CAIBear::`vftable'
	DD	FLAT:?GetStateMap@CAIBear@@UBEPBUSTATEMAP@@XZ
	DD	FLAT:??_ECAIBear@@UAEPAXI@Z
	DD	FLAT:?RouteMessage@CAIInterface@@UAEXXZ
	DD	FLAT:?SendAIMsg@CAIInterface@@UAEXKKKK@Z
	DD	FLAT:?PostAIMsg@CAIInterface@@UAEXKKKK@Z
	DD	FLAT:?InitAI@CAIBear@@UAEXXZ
	DD	FLAT:?IsReturnToBegin@CAIInterface@@UAEHXZ
CONST	ENDS
_DATA	SEGMENT
?stateMapEntries@CAIBear@@2QBUSTATEMAP_ENTRIES@@B DD 01H ; CAIBear::stateMapEntries
	ORG $+4
	DD	FLAT:?StateInit@CAIBear@@QAEHABUAIMSG@@@Z
	DD	00H
	DD	00H
	DD	00H
	DD	03H
	DB	4 DUP(00H)
	DD	FLAT:?StateIdle@CAIBear@@QAEHABUAIMSG@@@Z
	DD	00H
	DD	00H
	DD	00H
	DD	04H
	DB	4 DUP(00H)
	DD	FLAT:?StateRage@CAIBear@@QAEHABUAIMSG@@@Z
	DD	00H
	DD	00H
	DD	00H
	DD	05H
	DB	4 DUP(00H)
	DD	FLAT:?StateRage@CAIBear@@QAEHABUAIMSG@@@Z
	DD	00H
	DD	00H
	DD	00H
	DD	00H
	DB	4 DUP(00H)
	DD	00H
	DD	00H
	DD	00H
	DD	0ffffffffH
_DATA	ENDS
;	COMDAT ??_R1A@?0A@EA@CTimer@@8
rdata$r	SEGMENT
??_R1A@?0A@EA@CTimer@@8 DD FLAT:??_R0?AVCTimer@@@8	; CTimer::`RTTI Base Class Descriptor at (0,-1,0,64)'
	DD	00H
	DD	00H
	DD	0ffffffffH
	DD	00H
	DD	040H
	DD	FLAT:??_R3CTimer@@8
rdata$r	ENDS
;	COMDAT ??_R2CTimer@@8
rdata$r	SEGMENT
??_R2CTimer@@8 DD FLAT:??_R1A@?0A@EA@CTimer@@8		; CTimer::`RTTI Base Class Array'
rdata$r	ENDS
;	COMDAT ??_R3CTimer@@8
rdata$r	SEGMENT
??_R3CTimer@@8 DD 00H					; CTimer::`RTTI Class Hierarchy Descriptor'
	DD	00H
	DD	01H
	DD	FLAT:??_R2CTimer@@8
rdata$r	ENDS
;	COMDAT ??_R0?AVCTimer@@@8
data$rs	SEGMENT
??_R0?AVCTimer@@@8 DD FLAT:??_7type_info@@6B@		; CTimer `RTTI Type Descriptor'
	DD	00H
	DB	'.?AVCTimer@@', 00H
data$rs	ENDS
;	COMDAT ??_R4CTimer@@6B@
rdata$r	SEGMENT
??_R4CTimer@@6B@ DD 00H					; CTimer::`RTTI Complete Object Locator'
	DD	00H
	DD	00H
	DD	FLAT:??_R0?AVCTimer@@@8
	DD	FLAT:??_R3CTimer@@8
rdata$r	ENDS
;	COMDAT ??_C@_05KKCIMGE@error@
CONST	SEGMENT
??_C@_05KKCIMGE@error@ DB 'error', 00H			; `string'
CONST	ENDS
;	COMDAT ??_C@_0BE@OHDBLHOM@GetText?5range_error@
CONST	SEGMENT
??_C@_0BE@OHDBLHOM@GetText?5range_error@ DB 'GetText range_error', 00H ; `string'
CONST	ENDS
;	COMDAT ??_C@_0BJ@GKPOBPPI@GetMoverProp?5range_error@
CONST	SEGMENT
??_C@_0BJ@GKPOBPPI@GetMoverProp?5range_error@ DB 'GetMoverProp range_erro'
	DB	'r', 00H					; `string'
CONST	ENDS
;	COMDAT ??_C@_0BM@HMFGHCP@?$CFs?5min?3?$CFd?0?5max?3?$CFd?0?5index?3?$CFd@
CONST	SEGMENT
??_C@_0BM@HMFGHCP@?$CFs?5min?3?$CFd?0?5max?3?$CFd?0?5index?3?$CFd@ DB '%s'
	DB	' min:%d, max:%d, index:%d', 00H		; `string'
CONST	ENDS
;	COMDAT ??_7CTimer@@6B@
CONST	SEGMENT
??_7CTimer@@6B@ DD FLAT:??_R4CTimer@@6B@		; CTimer::`vftable'
	DD	FLAT:??_ECTimer@@UAEPAXI@Z
	DD	FLAT:?Reset@CTimer@@UAEXXZ
	DD	FLAT:?Over@CTimer@@UAEHXZ
CONST	ENDS
;	COMDAT ??_C@_00CNPNBAHC@@
CONST	SEGMENT
??_C@_00CNPNBAHC@@ DB 00H				; `string'
CONST	ENDS
;	COMDAT xdata$x
xdata$x	SEGMENT
__unwindtable$??0CAIBear@@QAE@PAVCObj@@@Z DD 0ffffffffH
	DD	FLAT:__unwindfunclet$??0CAIBear@@QAE@PAVCObj@@@Z$0
__ehfuncinfo$??0CAIBear@@QAE@PAVCObj@@@Z DD 019930522H
	DD	01H
	DD	FLAT:__unwindtable$??0CAIBear@@QAE@PAVCObj@@@Z
	DD	2 DUP(00H)
	DD	2 DUP(00H)
	DD	00H
	DD	01H
xdata$x	ENDS
;	COMDAT xdata$x
xdata$x	SEGMENT
__unwindtable$??0CAIBear@@QAE@XZ DD 0ffffffffH
	DD	FLAT:__unwindfunclet$??0CAIBear@@QAE@XZ$0
__ehfuncinfo$??0CAIBear@@QAE@XZ DD 019930522H
	DD	01H
	DD	FLAT:__unwindtable$??0CAIBear@@QAE@XZ
	DD	2 DUP(00H)
	DD	2 DUP(00H)
	DD	00H
	DD	01H
xdata$x	ENDS
; Function compile flags: /Ogtp
;	COMDAT ??_GCAIBear@@UAEPAXI@Z
_TEXT	SEGMENT
___flags$ = 8						; size = 4
??_GCAIBear@@UAEPAXI@Z PROC				; CAIBear::`scalar deleting destructor', COMDAT
; _this$ = ecx
  00000	55		 push	 ebp
  00001	8b ec		 mov	 ebp, esp
  00003	56		 push	 esi
  00004	8b f1		 mov	 esi, ecx
  00006	e8 00 00 00 00	 call	 ??1CAIBear@@UAE@XZ	; CAIBear::~CAIBear
  0000b	f6 45 08 01	 test	 BYTE PTR ___flags$[ebp], 1
  0000f	74 0e		 je	 SHORT $LN5@scalar
  00011	68 b0 00 00 00	 push	 176			; 000000b0H
  00016	56		 push	 esi
  00017	e8 00 00 00 00	 call	 ??3@YAXPAXI@Z		; operator delete
  0001c	83 c4 08	 add	 esp, 8
$LN5@scalar:
  0001f	8b c6		 mov	 eax, esi
  00021	5e		 pop	 esi
  00022	5d		 pop	 ebp
  00023	c2 04 00	 ret	 4
??_GCAIBear@@UAEPAXI@Z ENDP				; CAIBear::`scalar deleting destructor'
_TEXT	ENDS
; Function compile flags: /Ogtp
; File C:\IAGOS\server\v18\Source\Source\_AIInterface\AIBear.cpp
;	COMDAT ?GetStateMap@CAIBear@@UBEPBUSTATEMAP@@XZ
_TEXT	SEGMENT
?GetStateMap@CAIBear@@UBEPBUSTATEMAP@@XZ PROC		; CAIBear::GetStateMap, COMDAT
; _this$ = ecx

; 36   : BEGIN_AISTATE_MAP( CAIBear, CAIInterface )

  00000	b8 00 00 00 00	 mov	 eax, OFFSET ?stateMap@CAIBear@@2USTATEMAP@@B ; CAIBear::stateMap
  00005	c3		 ret	 0
?GetStateMap@CAIBear@@UBEPBUSTATEMAP@@XZ ENDP		; CAIBear::GetStateMap
_TEXT	ENDS
; Function compile flags: /Ogtp
; File C:\IAGOS\server\v18\Source\Source\_AIInterface\AIBear.cpp
; File C:\IAGOS\server\v18\Source\Source\_Common\Mover.h
; File C:\IAGOS\server\v18\Source\Source\_Common\Project.h
; File C:\IAGOS\server\v18\Source\Source\_AIInterface\AIBear.cpp
; File C:\IAGOS\server\v18\Source\Source\_Common\xUtil.h
; File C:\IAGOS\server\v18\Source\Source\_AIInterface\AIBear.cpp
; File C:\IAGOS\server\v18\Source\Source\_Common\Mover.h
; File C:\IAGOS\server\v18\Source\Source\_Common\Obj.h
; File C:\IAGOS\server\v18\Source\Source\_Common\Mover.h
; File C:\IAGOS\server\v18\Source\Source\_AIInterface\AIBear.cpp
; File C:\IAGOS\server\v18\Source\Source\_Common\Obj.h
; File C:\IAGOS\server\v18\Source\Source\_AIInterface\AIBear.cpp
; File C:\IAGOS\server\v18\Source\Source\_Common\Obj.h
; File C:\IAGOS\server\v18\Source\Source\_AIInterface\AIBear.cpp
; File C:\IAGOS\server\v18\Source\Source\_Common\Obj.h
; File C:\IAGOS\server\v18\Source\Source\_AIInterface\AIBear.cpp
; File C:\IAGOS\server\v18\Source\Source\_Common\Obj.h
; File C:\IAGOS\server\v18\Source\Source\_AIInterface\AIBear.cpp
; File C:\IAGOS\server\v18\Source\Source\_Common\xUtil.h
; File C:\IAGOS\server\v18\Source\Source\_AIInterface\AIBear.cpp
; File C:\IAGOS\server\v18\Source\Source\_Common\xUtil.h
; File C:\IAGOS\server\v18\Source\Source\_AIInterface\AIBear.cpp
;	COMDAT ?StateRage@CAIBear@@QAEHABUAIMSG@@@Z
_TEXT	SEGMENT
_vPos$1 = -12						; size = 12
_msg$ = 8						; size = 4
_dwItemID$1$ = 8					; size = 4
?StateRage@CAIBear@@QAEHABUAIMSG@@@Z PROC		; CAIBear::StateRage, COMDAT
; _this$ = ecx

; 516  : {

  00000	55		 push	 ebp
  00001	8b ec		 mov	 ebp, esp
  00003	83 ec 0c	 sub	 esp, 12			; 0000000cH
  00006	53		 push	 ebx
  00007	56		 push	 esi
  00008	8b f1		 mov	 esi, ecx

; 517  : 	CMover* pMover = GetMover();
; 518  : 	CWorld* pWorld = GetWorld();
; 519  : 	
; 520  : 	BeginAIHandler( )
; 521  : 		
; 522  : 	///////////////////////////////////////////////////////////////////////////////////////////////////
; 523  : 	OnMessage( AIMSG_INIT ) 

  0000a	8b 4d 08	 mov	 ecx, DWORD PTR _msg$[ebp]
  0000d	57		 push	 edi
  0000e	8b 01		 mov	 eax, DWORD PTR [ecx]
  00010	8b 5e 30	 mov	 ebx, DWORD PTR [esi+48]
  00013	83 f8 01	 cmp	 eax, 1
  00016	0f 84 16 03 00
	00		 je	 $LN48@StateRage

; 524  : 
; 525  : 	///////////////////////////////////////////////////////////////////////////////////////////////////
; 526  : 	OnMessage( AIMSG_PROCESS ) 

  0001c	83 f8 02	 cmp	 eax, 2
  0001f	75 15		 jne	 SHORT $LN14@StateRage

; 527  : 		MoveProcessRage();

  00021	8b ce		 mov	 ecx, esi
  00023	e8 00 00 00 00	 call	 ?MoveProcessRage@CAIBear@@AAEHXZ ; CAIBear::MoveProcessRage

; 649  : 				
; 650  : 		
; 651  : 	///////////////////////////////////////////////////////////////////////////////////////////////////
; 652  : 	OnMessage( AIMSG_EXIT )	
; 653  : //		SendAIMsg( AIMSG_SETPROCESS, FALSE );
; 654  : 	
; 655  : 	EndAIHandler( )
; 656  : 	return TRUE;
; 657  : }

  00028	b8 01 00 00 00	 mov	 eax, 1
  0002d	5f		 pop	 edi
  0002e	5e		 pop	 esi
  0002f	5b		 pop	 ebx
  00030	8b e5		 mov	 esp, ebp
  00032	5d		 pop	 ebp
  00033	c2 04 00	 ret	 4
$LN14@StateRage:

; 528  : 		
; 529  : 	///////////////////////////////////////////////////////////////////////////////////////////////////
; 530  : 	OnMessage( AIMSG_DAMAGE ) 

  00036	83 f8 08	 cmp	 eax, 8
  00039	75 17		 jne	 SHORT $LN16@StateRage

; 531  : 		// 나에게 데미지 많이 준놈들을 기억하고 있자. 나중에 응징하자.
; 532  : 		m_idLastAttacker = msg.dwParam1;

  0003b	8b 41 04	 mov	 eax, DWORD PTR [ecx+4]
  0003e	89 86 a4 00 00
	00		 mov	 DWORD PTR [esi+164], eax

; 649  : 				
; 650  : 		
; 651  : 	///////////////////////////////////////////////////////////////////////////////////////////////////
; 652  : 	OnMessage( AIMSG_EXIT )	
; 653  : //		SendAIMsg( AIMSG_SETPROCESS, FALSE );
; 654  : 	
; 655  : 	EndAIHandler( )
; 656  : 	return TRUE;
; 657  : }

  00044	b8 01 00 00 00	 mov	 eax, 1
  00049	5f		 pop	 edi
  0004a	5e		 pop	 esi
  0004b	5b		 pop	 ebx
  0004c	8b e5		 mov	 esp, ebp
  0004e	5d		 pop	 ebp
  0004f	c2 04 00	 ret	 4
$LN16@StateRage:

; 533  : 	
; 534  : 	///////////////////////////////////////////////////////////////////////////////////////////////////
; 535  : 	OnMessage( AIMSG_DIE ) 

  00052	83 f8 09	 cmp	 eax, 9
  00055	75 1d		 jne	 SHORT $LN18@StateRage

; 536  : 		SendAIMsg( AIMSG_EXIT );

  00057	8b 06		 mov	 eax, DWORD PTR [esi]
  00059	8b ce		 mov	 ecx, esi
  0005b	6a 00		 push	 0
  0005d	6a 00		 push	 0
  0005f	6a 00		 push	 0
  00061	6a 12		 push	 18			; 00000012H
  00063	ff 50 0c	 call	 DWORD PTR [eax+12]

; 649  : 				
; 650  : 		
; 651  : 	///////////////////////////////////////////////////////////////////////////////////////////////////
; 652  : 	OnMessage( AIMSG_EXIT )	
; 653  : //		SendAIMsg( AIMSG_SETPROCESS, FALSE );
; 654  : 	
; 655  : 	EndAIHandler( )
; 656  : 	return TRUE;
; 657  : }

  00066	b8 01 00 00 00	 mov	 eax, 1
  0006b	5f		 pop	 edi
  0006c	5e		 pop	 esi
  0006d	5b		 pop	 ebx
  0006e	8b e5		 mov	 esp, ebp
  00070	5d		 pop	 ebp
  00071	c2 04 00	 ret	 4
$LN18@StateRage:

; 537  : 	
; 538  : 	///////////////////////////////////////////////////////////////////////////////////////////////////
; 539  : 	OnMessage( AIMSG_COLLISION )

  00074	83 f8 0a	 cmp	 eax, 10			; 0000000aH
  00077	0f 84 b5 02 00
	00		 je	 $LN48@StateRage

; 540  : 		
; 541  : 	///////////////////////////////////////////////////////////////////////////////////////////////////
; 542  : 	OnMessage( AIMSG_ARRIVAL )

  0007d	83 f8 0b	 cmp	 eax, 11			; 0000000bH
  00080	0f 85 1e 02 00
	00		 jne	 $LN22@StateRage
; File C:\IAGOS\server\v18\Source\Source\_Common\Mover.h

; 1020 : 	MoverProp*		GetProp() { return prj.GetMoverProp( m_dwIndex ); }	// 객체의 프로퍼티 얻기 	

  00086	8b 83 74 01 00
	00		 mov	 eax, DWORD PTR [ebx+372]
; File C:\IAGOS\server\v18\Source\Source\_Common\Project.h

; 1406 : 	VERIFY_RANGE( nIndex, 0, m_nMoverPropSize, "GetMoverProp range_error", NULL );

  0008c	8b 0d b4 01 00
	00		 mov	 ecx, DWORD PTR ?prj@@3VCProject@@A+436
  00092	85 c0		 test	 eax, eax
  00094	78 12		 js	 SHORT $LN59@StateRage
  00096	3b c1		 cmp	 eax, ecx
  00098	7d 0e		 jge	 SHORT $LN59@StateRage

; 1407 : 	return m_pPropMover + nIndex;

  0009a	69 c8 90 06 00
	00		 imul	 ecx, eax, 1680
  000a0	03 0d b8 01 00
	00		 add	 ecx, DWORD PTR ?prj@@3VCProject@@A+440
  000a6	eb 18		 jmp	 SHORT $LN54@StateRage
$LN59@StateRage:

; 579  : 	LPCTSTR szErr = Error( _T( "%s min:%d, max:%d, index:%d" ), szMsg, nMin, nMax, nIndex ); 

  000a8	50		 push	 eax
  000a9	51		 push	 ecx
  000aa	6a 00		 push	 0
  000ac	68 00 00 00 00	 push	 OFFSET ??_C@_0BJ@GKPOBPPI@GetMoverProp?5range_error@
  000b1	68 00 00 00 00	 push	 OFFSET ??_C@_0BM@HMFGHCP@?$CFs?5min?3?$CFd?0?5max?3?$CFd?0?5index?3?$CFd@
  000b6	e8 00 00 00 00	 call	 ?Error@@YAPBDPBDZZ	; Error
  000bb	83 c4 14	 add	 esp, 20			; 00000014H

; 1406 : 	VERIFY_RANGE( nIndex, 0, m_nMoverPropSize, "GetMoverProp range_error", NULL );

  000be	33 c9		 xor	 ecx, ecx
$LN54@StateRage:
; File C:\IAGOS\server\v18\Source\Source\_AIInterface\AIBear.cpp

; 548  : 		switch( m_nAttackType )

  000c0	8b 56 7c	 mov	 edx, DWORD PTR [esi+124]
  000c3	8b c2		 mov	 eax, edx
  000c5	83 e8 01	 sub	 eax, 1
  000c8	74 47		 je	 SHORT $LN24@StateRage
  000ca	83 e8 01	 sub	 eax, 1
  000cd	74 35		 je	 SHORT $LN27@StateRage
  000cf	83 e8 01	 sub	 eax, 1
  000d2	74 23		 je	 SHORT $LN28@StateRage

; 562  : 		default:
; 563  : 			Error( "CAIBear::StateRage - AIMSG_ARRIVAL m_nAttackType=%d", m_nAttackType );

  000d4	52		 push	 edx
  000d5	68 00 00 00 00	 push	 OFFSET ??_C@_0DE@LJNKFOIH@CAIBear?3?3StateRage?5?9?5AIMSG_ARRI@
  000da	e8 00 00 00 00	 call	 ?Error@@YAPBDPBDZZ	; Error
  000df	83 c4 08	 add	 esp, 8
$LN74@StateRage:

; 649  : 				
; 650  : 		
; 651  : 	///////////////////////////////////////////////////////////////////////////////////////////////////
; 652  : 	OnMessage( AIMSG_EXIT )	
; 653  : //		SendAIMsg( AIMSG_SETPROCESS, FALSE );
; 654  : 	
; 655  : 	EndAIHandler( )
; 656  : 	return TRUE;
; 657  : }

  000e2	c7 46 78 01 00
	00 00		 mov	 DWORD PTR [esi+120], 1
  000e9	b8 01 00 00 00	 mov	 eax, 1
  000ee	5f		 pop	 edi
  000ef	5e		 pop	 esi
  000f0	5b		 pop	 ebx
  000f1	8b e5		 mov	 esp, ebp
  000f3	5d		 pop	 ebp
  000f4	c2 04 00	 ret	 4
$LN28@StateRage:

; 561  : 		case CAT_BUFFTIME:		 dwMsg = OBJMSG_ATK4;	dwItemID = pProp->dwAtk3;	break;

  000f7	8b 81 b8 00 00
	00		 mov	 eax, DWORD PTR [ecx+184]
  000fd	bf 20 00 00 00	 mov	 edi, 32			; 00000020H
  00102	eb 31		 jmp	 SHORT $LN119@StateRage
$LN27@StateRage:

; 558  : 			}
; 559  : 			break;
; 560  : 		case CAT_LOOT:			 dwMsg = OBJMSG_ATK3;	dwItemID = pProp->dwAtk2;	break;

  00104	8b 81 b4 00 00
	00		 mov	 eax, DWORD PTR [ecx+180]
  0010a	bf 1f 00 00 00	 mov	 edi, 31			; 0000001fH
  0010f	eb 24		 jmp	 SHORT $LN119@StateRage
$LN24@StateRage:
; File C:\IAGOS\server\v18\Source\Source\_Common\xUtil.h

; 16   : 	g_next = g_next * 1103515245 + 12345;// + nRandomSeed[ i++ ];

  00111	69 3d 00 00 00
	00 6d 4e c6 41	 imul	 edi, DWORD PTR ?g_next@@3KA, 1103515245 ; g_next
  0011b	81 c7 39 30 00
	00		 add	 edi, 12345		; 00003039H
  00121	89 3d 00 00 00
	00		 mov	 DWORD PTR ?g_next@@3KA, edi ; g_next
; File C:\IAGOS\server\v18\Source\Source\_AIInterface\AIBear.cpp

; 557  : 				dwItemID = pProp->dwAtk1;

  00127	f7 d7		 not	 edi
  00129	8b 81 b0 00 00
	00		 mov	 eax, DWORD PTR [ecx+176]
  0012f	83 e7 01	 and	 edi, 1
  00132	83 c7 1d	 add	 edi, 29			; 0000001dH
$LN119@StateRage:

; 564  : 		}
; 565  : 
; 566  : 		if( dwMsg )
; 567  : 		{
; 568  : 			if( m_idTarget != NULL_ID )

  00135	89 45 08	 mov	 DWORD PTR _dwItemID$1$[ebp], eax
  00138	8b 86 90 00 00
	00		 mov	 eax, DWORD PTR [esi+144]
  0013e	83 f8 ff	 cmp	 eax, -1
  00141	0f 84 eb 01 00
	00		 je	 $LN48@StateRage
; File C:\IAGOS\server\v18\Source\Source\_Common\Mover.h

; 1764 : 	CMover *pTarget = (CMover *)prj.GetMover( idTarget );

  00147	50		 push	 eax
  00148	b9 00 00 00 00	 mov	 ecx, OFFSET ?prj@@3VCProject@@A ; prj
  0014d	e8 00 00 00 00	 call	 ?GetMover@CProject@@QAEPAVCMover@@K@Z ; CProject::GetMover
; File C:\IAGOS\server\v18\Source\Source\_Common\Obj.h

; 327  : 	return pObj && ( pObj->IsDelete() == FALSE ); 

  00152	85 c0		 test	 eax, eax
  00154	74 8c		 je	 SHORT $LN74@StateRage

; 180  : 	BOOL			IsDelete()	{ return (m_dwFlags & OBJ_FLAG_DELETE);  }

  00156	f6 40 04 01	 test	 BYTE PTR [eax+4], 1

; 327  : 	return pObj && ( pObj->IsDelete() == FALSE ); 

  0015a	75 86		 jne	 SHORT $LN74@StateRage
; File C:\IAGOS\server\v18\Source\Source\_Common\Mover.h

; 1768 : 	return DoAttackMelee( pTarget, dwMsg, dwItemID );

  0015c	ff 75 08	 push	 DWORD PTR _dwItemID$1$[ebp]
  0015f	8b cb		 mov	 ecx, ebx
  00161	57		 push	 edi
  00162	50		 push	 eax
  00163	e8 00 00 00 00	 call	 ?DoAttackMelee@CMover@@QAEHPAV1@W4OBJMSG@@K@Z ; CMover::DoAttackMelee
; File C:\IAGOS\server\v18\Source\Source\_AIInterface\AIBear.cpp

; 570  : 				if( pMover->DoAttackMelee( m_idTarget, dwMsg, dwItemID ) == 1 )

  00168	83 f8 01	 cmp	 eax, 1
  0016b	0f 85 71 ff ff
	ff		 jne	 $LN74@StateRage

; 571  : 				{
; 572  : 					m_nEvent = EPT_ATTACKING;		// 공격상태 전환.

  00171	c7 46 78 02 00
	00 00		 mov	 DWORD PTR [esi+120], 2

; 573  : 					m_tmTimeOver = timeGetTime();	// 공격시작후 타임오버 계산용

  00178	ff 15 00 00 00
	00		 call	 DWORD PTR __imp__timeGetTime@0

; 574  : 
; 575  : 					CMover *pTarget = NULL;
; 576  : 					pTarget = prj.GetMover( m_idTarget );

  0017e	ff b6 90 00 00
	00		 push	 DWORD PTR [esi+144]
  00184	b9 00 00 00 00	 mov	 ecx, OFFSET ?prj@@3VCProject@@A ; prj
  00189	89 86 8c 00 00
	00		 mov	 DWORD PTR [esi+140], eax
  0018f	e8 00 00 00 00	 call	 ?GetMover@CProject@@QAEPAVCMover@@K@Z ; CProject::GetMover

; 577  : 					
; 578  : 					// 이벤트 메세지
; 579  : 					// 보스몬스터가 유저에게 말을 한다.
; 580  : 					switch( m_nAttackType )

  00194	8b 56 7c	 mov	 edx, DWORD PTR [esi+124]
  00197	8b f8		 mov	 edi, eax
  00199	83 ea 02	 sub	 edx, 2
  0019c	0f 84 b0 00 00
	00		 je	 $LN36@StateRage
  001a2	83 ea 01	 sub	 edx, 1
  001a5	0f 85 87 01 00
	00		 jne	 $LN48@StateRage

; 594  : 							g_DPCoreClient.SendCaption( prj.GetText(TID_GAME_BOSS_MUSHMOOT_MSG_03), pMover->GetWorld()->GetID() );

  001ab	8b 93 6c 01 00
	00		 mov	 edx, DWORD PTR [ebx+364]
  001b1	b9 00 00 00 00	 mov	 ecx, OFFSET ?prj@@3VCProject@@A ; prj
  001b6	6a 00		 push	 0
  001b8	ff 32		 push	 DWORD PTR [edx]
  001ba	68 d8 0b 00 00	 push	 3032			; 00000bd8H
  001bf	e8 00 00 00 00	 call	 ?GetText@CProject@@QAEPBDK@Z ; CProject::GetText
  001c4	50		 push	 eax
  001c5	b9 00 00 00 00	 mov	 ecx, OFFSET ?g_DPCoreClient@@3VCDPCoreClient@@A ; g_DPCoreClient
  001ca	e8 00 00 00 00	 call	 ?SendCaption@CDPCoreClient@@QAEXPBDKH@Z ; CDPCoreClient::SendCaption
; File C:\IAGOS\server\v18\Source\Source\_Common\Obj.h

; 215  : 	D3DXVECTOR3		GetPos()	{ return m_vPos; }

  001cf	f3 0f 7e 87 60
	01 00 00	 movq	 xmm0, QWORD PTR [edi+352]
  001d7	8b 87 68 01 00
	00		 mov	 eax, DWORD PTR [edi+360]
; File C:\IAGOS\server\v18\Source\Source\_AIInterface\AIBear.cpp

; 594  : 							g_DPCoreClient.SendCaption( prj.GetText(TID_GAME_BOSS_MUSHMOOT_MSG_03), pMover->GetWorld()->GetID() );

  001dd	bf 03 00 00 00	 mov	 edi, 3
; File C:\IAGOS\server\v18\Source\Source\_Common\Obj.h

; 215  : 	D3DXVECTOR3		GetPos()	{ return m_vPos; }

  001e2	66 0f d6 45 f4	 movq	 QWORD PTR _vPos$1[ebp], xmm0
  001e7	89 45 fc	 mov	 DWORD PTR _vPos$1[ebp+8], eax
  001ea	66 0f 1f 44 00
	00		 npad	 6
$LL6@StateRage:
; File C:\IAGOS\server\v18\Source\Source\_AIInterface\AIBear.cpp

; 602  : 								vPos.x += xRandomF( 9.0f ) + -4.0f;

  001f0	51		 push	 ecx
  001f1	c7 04 24 00 00
	10 41		 mov	 DWORD PTR [esp], 1091567616 ; 41100000H
  001f8	e8 00 00 00 00	 call	 ?xRandomF@@YAMM@Z	; xRandomF
  001fd	d8 25 00 00 00
	00		 fsub	 DWORD PTR __real@40800000

; 603  : 								vPos.z += xRandomF( 9.0f ) + -4.0f;

  00203	c7 04 24 00 00
	10 41		 mov	 DWORD PTR [esp], 1091567616 ; 41100000H
  0020a	d8 45 f4	 fadd	 DWORD PTR _vPos$1[ebp]
  0020d	d9 5d f4	 fstp	 DWORD PTR _vPos$1[ebp]
  00210	e8 00 00 00 00	 call	 ?xRandomF@@YAMM@Z	; xRandomF
  00215	d8 25 00 00 00
	00		 fsub	 DWORD PTR __real@40800000

; 604  : 								SummonMonster( MI_SMALL_MUSHPOIE, vPos );

  0021b	83 ec 08	 sub	 esp, 8
  0021e	8b cc		 mov	 ecx, esp
  00220	f3 0f 7e 45 f4	 movq	 xmm0, QWORD PTR _vPos$1[ebp]
  00225	d8 45 fc	 fadd	 DWORD PTR _vPos$1[ebp+8]
  00228	68 a8 00 00 00	 push	 168			; 000000a8H
  0022d	66 0f d6 01	 movq	 QWORD PTR [ecx], xmm0
  00231	d9 5d fc	 fstp	 DWORD PTR _vPos$1[ebp+8]
  00234	8b 45 fc	 mov	 eax, DWORD PTR _vPos$1[ebp+8]
  00237	89 41 08	 mov	 DWORD PTR [ecx+8], eax
  0023a	8b ce		 mov	 ecx, esi
  0023c	e8 00 00 00 00	 call	 ?SummonMonster@CAIBear@@QAEXKUD3DXVECTOR3@@@Z ; CAIBear::SummonMonster
  00241	83 ef 01	 sub	 edi, 1
  00244	75 aa		 jne	 SHORT $LL6@StateRage

; 649  : 				
; 650  : 		
; 651  : 	///////////////////////////////////////////////////////////////////////////////////////////////////
; 652  : 	OnMessage( AIMSG_EXIT )	
; 653  : //		SendAIMsg( AIMSG_SETPROCESS, FALSE );
; 654  : 	
; 655  : 	EndAIHandler( )
; 656  : 	return TRUE;
; 657  : }

  00246	8d 47 01	 lea	 eax, DWORD PTR [edi+1]
  00249	5f		 pop	 edi
  0024a	5e		 pop	 esi
  0024b	5b		 pop	 ebx
  0024c	8b e5		 mov	 esp, ebp
  0024e	5d		 pop	 ebp
  0024f	c2 04 00	 ret	 4
$LN36@StateRage:

; 588  : 							g_UserMng.AddWorldShout( pMover->GetName(), prj.GetText(TID_GAME_BOSS_MUSHMOOT_MSG_02),

  00252	ff b3 6c 01 00
	00		 push	 DWORD PTR [ebx+364]
; File C:\IAGOS\server\v18\Source\Source\_Common\Obj.h

; 215  : 	D3DXVECTOR3		GetPos()	{ return m_vPos; }

  00258	f3 0f 7e 83 60
	01 00 00	 movq	 xmm0, QWORD PTR [ebx+352]
; File C:\IAGOS\server\v18\Source\Source\_AIInterface\AIBear.cpp

; 588  : 							g_UserMng.AddWorldShout( pMover->GetName(), prj.GetText(TID_GAME_BOSS_MUSHMOOT_MSG_02),

  00260	b9 00 00 00 00	 mov	 ecx, OFFSET ?prj@@3VCProject@@A ; prj
; File C:\IAGOS\server\v18\Source\Source\_Common\Obj.h

; 215  : 	D3DXVECTOR3		GetPos()	{ return m_vPos; }

  00265	8b 93 68 01 00
	00		 mov	 edx, DWORD PTR [ebx+360]
; File C:\IAGOS\server\v18\Source\Source\_AIInterface\AIBear.cpp

; 588  : 							g_UserMng.AddWorldShout( pMover->GetName(), prj.GetText(TID_GAME_BOSS_MUSHMOOT_MSG_02),

  0026b	83 ec 0c	 sub	 esp, 12			; 0000000cH
  0026e	8b c4		 mov	 eax, esp
  00270	68 d7 0b 00 00	 push	 3031			; 00000bd7H
  00275	66 0f d6 00	 movq	 QWORD PTR [eax], xmm0
  00279	89 50 08	 mov	 DWORD PTR [eax+8], edx
  0027c	e8 00 00 00 00	 call	 ?GetText@CProject@@QAEPBDK@Z ; CProject::GetText
  00281	50		 push	 eax
  00282	6a 00		 push	 0
  00284	8b cb		 mov	 ecx, ebx
  00286	e8 00 00 00 00	 call	 ?GetName@CMover@@QAEPBDH@Z ; CMover::GetName
  0028b	50		 push	 eax
  0028c	b9 00 00 00 00	 mov	 ecx, OFFSET ?g_UserMng@@3VCUserMng@@A ; g_UserMng
  00291	e8 00 00 00 00	 call	 ?AddWorldShout@CUserMng@@QAEXPBD0UD3DXVECTOR3@@PAVCWorld@@@Z ; CUserMng::AddWorldShout

; 649  : 				
; 650  : 		
; 651  : 	///////////////////////////////////////////////////////////////////////////////////////////////////
; 652  : 	OnMessage( AIMSG_EXIT )	
; 653  : //		SendAIMsg( AIMSG_SETPROCESS, FALSE );
; 654  : 	
; 655  : 	EndAIHandler( )
; 656  : 	return TRUE;
; 657  : }

  00296	b8 01 00 00 00	 mov	 eax, 1
  0029b	5f		 pop	 edi
  0029c	5e		 pop	 esi
  0029d	5b		 pop	 ebx
  0029e	8b e5		 mov	 esp, ebp
  002a0	5d		 pop	 ebp
  002a1	c2 04 00	 ret	 4
$LN22@StateRage:

; 605  : 							}							
; 606  : 						}
; 607  : 						break;
; 608  : 					}
; 609  : 					
; 610  : 				} else
; 611  : 					m_nEvent = EPT_MOVING;			// 공격이 실패해서 다시 대기상태로 돌아감.
; 612  : 			}
; 613  : 		} else
; 614  : 			m_nEvent = EPT_MOVING;		// 비정상적인 상태. 원래대로 돌림.
; 615  : 	}
; 616  : 
; 617  : 	
; 618  : 
; 619  : 	///////////////////////////////////////////////////////////////////////////////////////////////////
; 620  : 	OnMessage( AIMSG_ATTACK_MELEE )

  002a4	83 f8 0e	 cmp	 eax, 14			; 0000000eH
  002a7	75 30		 jne	 SHORT $LN38@StateRage

; 621  : 		switch( m_nAttackType )			// 선택된 공격 패턴.

  002a9	8b 4e 7c	 mov	 ecx, DWORD PTR [esi+124]
  002ac	8b c1		 mov	 eax, ecx
  002ae	83 e8 01	 sub	 eax, 1
  002b1	74 7f		 je	 SHORT $LN48@StateRage
  002b3	83 e8 01	 sub	 eax, 1
  002b6	74 7a		 je	 SHORT $LN48@StateRage
  002b8	83 e8 01	 sub	 eax, 1
  002bb	74 75		 je	 SHORT $LN48@StateRage

; 622  : 		{
; 623  : 		case CAT_NORMAL:
; 624  : 			// 폭발 이펙트 생성지점 계산.
; 625  : 			// 폭발 이펙트 생성;
; 626  : 			// 범위 공격;
; 627  : 			break;
; 628  : 		case CAT_LOOT:
; 629  : 			// 미사일 오브젝트 생성;
; 630  : 			break;
; 631  : 		case CAT_BUFFTIME:		// 밟는 공격 타점.
; 632  : 			// 범위 데미지;
; 633  : 			break;
; 634  : 		default:
; 635  : 			Error( "CAIBear::StateRage : AIMSG_ATTACK_MELEE %d", m_nAttackType );

  002bd	51		 push	 ecx
  002be	68 00 00 00 00	 push	 OFFSET ??_C@_0CL@FACONPFG@CAIBear?3?3StateRage?5?3?5AIMSG_ATTA@
  002c3	e8 00 00 00 00	 call	 ?Error@@YAPBDPBDZZ	; Error
  002c8	83 c4 08	 add	 esp, 8

; 649  : 				
; 650  : 		
; 651  : 	///////////////////////////////////////////////////////////////////////////////////////////////////
; 652  : 	OnMessage( AIMSG_EXIT )	
; 653  : //		SendAIMsg( AIMSG_SETPROCESS, FALSE );
; 654  : 	
; 655  : 	EndAIHandler( )
; 656  : 	return TRUE;
; 657  : }

  002cb	b8 01 00 00 00	 mov	 eax, 1
  002d0	5f		 pop	 edi
  002d1	5e		 pop	 esi
  002d2	5b		 pop	 ebx
  002d3	8b e5		 mov	 esp, ebp
  002d5	5d		 pop	 ebp
  002d6	c2 04 00	 ret	 4
$LN38@StateRage:

; 636  : 			break;
; 637  : 		}
; 638  : 	
; 639  : 	///////////////////////////////////////////////////////////////////////////////////////////////////
; 640  : 	OnMessage( AIMSG_END_APPEAR )	

  002d9	83 f8 10	 cmp	 eax, 16			; 00000010H
  002dc	0f 84 00 fe ff
	ff		 je	 $LN74@StateRage

; 641  : 		m_nEvent = EPT_MOVING;		// 등장상태가 끝나면 감시/이동상태로 전환.
; 642  : 
; 643  : 	///////////////////////////////////////////////////////////////////////////////////////////////////
; 644  : 	OnMessage( AIMSG_END_MELEEATTACK )	

  002e2	83 f8 0f	 cmp	 eax, 15			; 0000000fH
  002e5	75 4b		 jne	 SHORT $LN48@StateRage

; 645  : 		m_nEvent = EPT_MOVING;				// 이동상태로 전환.

  002e7	c7 46 78 01 00
	00 00		 mov	 DWORD PTR [esi+120], 1

; 646  : 		m_tmReattack = timeGetTime();		// 리어택 타임 리셋;

  002ee	ff 15 00 00 00
	00		 call	 DWORD PTR __imp__timeGetTime@0
  002f4	89 86 80 00 00
	00		 mov	 DWORD PTR [esi+128], eax
; File C:\IAGOS\server\v18\Source\Source\_Common\xUtil.h

; 16   : 	g_next = g_next * 1103515245 + 12345;// + nRandomSeed[ i++ ];

  002fa	b8 d3 4d 62 10	 mov	 eax, 274877907		; 10624dd3H
  002ff	69 0d 00 00 00
	00 6d 4e c6 41	 imul	 ecx, DWORD PTR ?g_next@@3KA, 1103515245 ; g_next
  00309	81 c1 39 30 00
	00		 add	 ecx, 12345		; 00003039H
  0030f	f7 e1		 mul	 ecx
  00311	89 0d 00 00 00
	00		 mov	 DWORD PTR ?g_next@@3KA, ecx ; g_next
  00317	c1 ea 07	 shr	 edx, 7

; 22   : 	return  xRand() % num;

  0031a	69 c2 d0 07 00
	00		 imul	 eax, edx, 2000
; File C:\IAGOS\server\v18\Source\Source\_AIInterface\AIBear.cpp

; 648  : 		m_idTarget = NULL_ID;				// 타겟을 클리어.

  00320	c7 86 90 00 00
	00 ff ff ff ff	 mov	 DWORD PTR [esi+144], -1
; File C:\IAGOS\server\v18\Source\Source\_Common\xUtil.h

; 22   : 	return  xRand() % num;

  0032a	2b c8		 sub	 ecx, eax
; File C:\IAGOS\server\v18\Source\Source\_AIInterface\AIBear.cpp

; 647  : 		m_tmAddReattack = xRandom( 2000 );	// x초 범위내에서 리어택이 단축될 수 있다.

  0032c	89 8e 84 00 00
	00		 mov	 DWORD PTR [esi+132], ecx
$LN48@StateRage:

; 649  : 				
; 650  : 		
; 651  : 	///////////////////////////////////////////////////////////////////////////////////////////////////
; 652  : 	OnMessage( AIMSG_EXIT )	
; 653  : //		SendAIMsg( AIMSG_SETPROCESS, FALSE );
; 654  : 	
; 655  : 	EndAIHandler( )
; 656  : 	return TRUE;
; 657  : }

  00332	5f		 pop	 edi
  00333	5e		 pop	 esi
  00334	b8 01 00 00 00	 mov	 eax, 1
  00339	5b		 pop	 ebx
  0033a	8b e5		 mov	 esp, ebp
  0033c	5d		 pop	 ebp
  0033d	c2 04 00	 ret	 4
?StateRage@CAIBear@@QAEHABUAIMSG@@@Z ENDP		; CAIBear::StateRage
_TEXT	ENDS
; Function compile flags: /Ogtp
; File C:\IAGOS\server\v18\Source\Source\_AIInterface\AIBear.cpp
;	COMDAT ?StateIdle@CAIBear@@QAEHABUAIMSG@@@Z
_TEXT	SEGMENT
_msg$ = 8						; size = 4
?StateIdle@CAIBear@@QAEHABUAIMSG@@@Z PROC		; CAIBear::StateIdle, COMDAT
; _this$ = ecx

; 125  : {

  00000	55		 push	 ebp
  00001	8b ec		 mov	 ebp, esp

; 126  : 	CMover* pMover = GetMover();
; 127  : 	CWorld* pWorld = GetWorld();
; 128  : 	
; 129  : 	BeginAIHandler( )
; 130  : 		
; 131  : 	///////////////////////////////////////////////////////////////////////////////////////////////////
; 132  : 	OnMessage( AIMSG_INIT ) 

  00003	8b 45 08	 mov	 eax, DWORD PTR _msg$[ebp]
  00006	8b 00		 mov	 eax, DWORD PTR [eax]
  00008	83 f8 01	 cmp	 eax, 1
  0000b	75 16		 jne	 SHORT $LN4@StateIdle
$LN24@StateIdle:

; 145  : 		SendAIMsg( AIMSG_EXIT );
; 146  : 	
; 147  : 	///////////////////////////////////////////////////////////////////////////////////////////////////
; 148  : 	OnMessage( AIMSG_COLLISION )
; 149  : 	
; 150  : 	///////////////////////////////////////////////////////////////////////////////////////////////////
; 151  : 	OnMessage( AIMSG_ARRIVAL )
; 152  : 		
; 153  : 		///////////////////////////////////////////////////////////////////////////////////////////////////
; 154  : 	OnMessage( AIMSG_EXIT )	
; 155  : //		SendAIMsg( AIMSG_SETPROCESS, FALSE );
; 156  : 		
; 157  : 	EndAIHandler( )
; 158  : 			return TRUE;
; 159  : }

  0000d	8b 01		 mov	 eax, DWORD PTR [ecx]
  0000f	6a 00		 push	 0
  00011	6a ff		 push	 -1
  00013	6a 04		 push	 4
  00015	6a 04		 push	 4
  00017	ff 50 0c	 call	 DWORD PTR [eax+12]
  0001a	b8 01 00 00 00	 mov	 eax, 1
  0001f	5d		 pop	 ebp
  00020	c2 04 00	 ret	 4
$LN4@StateIdle:

; 133  : ////		SendAIMsg( AIMSG_SETPROCESS, TRUE );
; 134  : 		SendAIMsg( AIMSG_SETSTATE, STATE_RAGE, NULL_ID );	// 보스는 IDLE패턴이 없다. 바로 공격에 들어간다.
; 135  : 	///////////////////////////////////////////////////////////////////////////////////////////////////
; 136  : 	OnMessage( AIMSG_PROCESS ) 

  00023	83 f8 02	 cmp	 eax, 2
  00026	74 17		 je	 SHORT $LN16@StateIdle

; 137  : 		MoveProcessIdle();
; 138  : 	
; 139  : 	///////////////////////////////////////////////////////////////////////////////////////////////////
; 140  : 	OnMessage( AIMSG_DAMAGE ) 

  00028	83 f8 08	 cmp	 eax, 8
  0002b	74 e0		 je	 SHORT $LN24@StateIdle

; 141  : 		SendAIMsg( AIMSG_SETSTATE, STATE_RAGE, NULL_ID );
; 142  : 	
; 143  : 	///////////////////////////////////////////////////////////////////////////////////////////////////
; 144  : 	OnMessage( AIMSG_DIE ) 

  0002d	83 f8 09	 cmp	 eax, 9
  00030	75 0d		 jne	 SHORT $LN16@StateIdle

; 145  : 		SendAIMsg( AIMSG_EXIT );
; 146  : 	
; 147  : 	///////////////////////////////////////////////////////////////////////////////////////////////////
; 148  : 	OnMessage( AIMSG_COLLISION )
; 149  : 	
; 150  : 	///////////////////////////////////////////////////////////////////////////////////////////////////
; 151  : 	OnMessage( AIMSG_ARRIVAL )
; 152  : 		
; 153  : 		///////////////////////////////////////////////////////////////////////////////////////////////////
; 154  : 	OnMessage( AIMSG_EXIT )	
; 155  : //		SendAIMsg( AIMSG_SETPROCESS, FALSE );
; 156  : 		
; 157  : 	EndAIHandler( )
; 158  : 			return TRUE;
; 159  : }

  00032	8b 01		 mov	 eax, DWORD PTR [ecx]
  00034	6a 00		 push	 0
  00036	6a 00		 push	 0
  00038	6a 00		 push	 0
  0003a	6a 12		 push	 18			; 00000012H
  0003c	ff 50 0c	 call	 DWORD PTR [eax+12]
$LN16@StateIdle:
  0003f	b8 01 00 00 00	 mov	 eax, 1
  00044	5d		 pop	 ebp
  00045	c2 04 00	 ret	 4
?StateIdle@CAIBear@@QAEHABUAIMSG@@@Z ENDP		; CAIBear::StateIdle
_TEXT	ENDS
; Function compile flags: /Ogtp
; File C:\IAGOS\server\v18\Source\Source\_AIInterface\AIBear.cpp
;	COMDAT ?StateInit@CAIBear@@QAEHABUAIMSG@@@Z
_TEXT	SEGMENT
_msg$ = 8						; size = 4
?StateInit@CAIBear@@QAEHABUAIMSG@@@Z PROC		; CAIBear::StateInit, COMDAT
; _this$ = ecx

; 104  : 	return TRUE;

  00000	b8 01 00 00 00	 mov	 eax, 1

; 105  : }

  00005	c2 04 00	 ret	 4
?StateInit@CAIBear@@QAEHABUAIMSG@@@Z ENDP		; CAIBear::StateInit
_TEXT	ENDS
; Function compile flags: /Ogtp
; File C:\IAGOS\server\v18\Source\Source\_AIInterface\AIBear.cpp
;	COMDAT ?SummonMonster@CAIBear@@QAEXKUD3DXVECTOR3@@@Z
_TEXT	SEGMENT
_dwObjIndex$ = 8					; size = 4
_vPos$ = 12						; size = 12
?SummonMonster@CAIBear@@QAEXKUD3DXVECTOR3@@@Z PROC	; CAIBear::SummonMonster, COMDAT
; _this$ = ecx

; 316  : {

  00000	55		 push	 ebp
  00001	8b ec		 mov	 ebp, esp
  00003	8b 45 08	 mov	 eax, DWORD PTR _dwObjIndex$[ebp]
  00006	56		 push	 esi
  00007	57		 push	 edi

; 317  : 	CObj* pObj	= CreateObj( D3DDEVICE, OT_MOVER, dwObjIndex );

  00008	6a 01		 push	 1
  0000a	50		 push	 eax
  0000b	6a 05		 push	 5
  0000d	6a 00		 push	 0
  0000f	8b f9		 mov	 edi, ecx
  00011	e8 00 00 00 00	 call	 ?CreateObj@@YAPAVCObj@@PAUIDirect3DDevice9@@KKH@Z ; CreateObj
  00016	8b f0		 mov	 esi, eax
  00018	83 c4 10	 add	 esp, 16			; 00000010H

; 318  : 	if( pObj )

  0001b	85 f6		 test	 esi, esi
  0001d	74 4f		 je	 SHORT $LN2@SummonMons

; 319  : 	{
; 320  : 		pObj->SetPos( vPos );

  0001f	8d 45 0c	 lea	 eax, DWORD PTR _vPos$[ebp]
  00022	8b ce		 mov	 ecx, esi
  00024	50		 push	 eax
  00025	e8 00 00 00 00	 call	 ?SetPos@CObj@@QAEXABUD3DXVECTOR3@@@Z ; CObj::SetPos

; 321  : 		pObj->InitMotion( MTI_STAND );

  0002a	8b 16		 mov	 edx, DWORD PTR [esi]
  0002c	8b ce		 mov	 ecx, esi
  0002e	6a 00		 push	 0
  00030	ff 52 08	 call	 DWORD PTR [edx+8]

; 322  : 		pObj->UpdateLocalMatrix();

  00033	8b ce		 mov	 ecx, esi
  00035	e8 00 00 00 00	 call	 ?UpdateLocalMatrix@CObj@@QAEXXZ ; CObj::UpdateLocalMatrix

; 323  : 		((CMover*)pObj)->m_bActiveAttack = 1;		
; 324  : 		((CMover*)pObj)->SetGold(((CMover*)pObj)->GetLevel()*15);  // 몬스터 생성시 기본 페냐를 설정

  0003a	8b 86 d8 05 00
	00		 mov	 eax, DWORD PTR [esi+1496]
  00040	8b c8		 mov	 ecx, eax
  00042	c1 e1 04	 shl	 ecx, 4
  00045	2b c8		 sub	 ecx, eax
  00047	c7 86 68 06 00
	00 01 00 00 00	 mov	 DWORD PTR [esi+1640], 1
  00051	89 8e e0 14 00
	00		 mov	 DWORD PTR [esi+5344], ecx

; 325  : 
; 326  : 		GetWorld()->ADDOBJ( pObj, TRUE, GetMover()->GetLayer() );

  00057	8b 4f 30	 mov	 ecx, DWORD PTR [edi+48]
  0005a	ff b1 b8 01 00
	00		 push	 DWORD PTR [ecx+440]
  00060	8b 89 6c 01 00
	00		 mov	 ecx, DWORD PTR [ecx+364]
  00066	6a 01		 push	 1
  00068	56		 push	 esi
  00069	e8 00 00 00 00	 call	 ?AddObj@CWorld@@QAEHPAVCObj@@HH@Z ; CWorld::AddObj
$LN2@SummonMons:

; 327  : 	}
; 328  : }

  0006e	5f		 pop	 edi
  0006f	5e		 pop	 esi
  00070	5d		 pop	 ebp
  00071	c2 10 00	 ret	 16			; 00000010H
?SummonMonster@CAIBear@@QAEXKUD3DXVECTOR3@@@Z ENDP	; CAIBear::SummonMonster
_TEXT	ENDS
; Function compile flags: /Ogtp
; File C:\IAGOS\server\v18\Source\Source\_AIInterface\AIBear.cpp
; File C:\IAGOS\server\v18\Source\Source\_Common\Obj.h
; File C:\IAGOS\server\v18\Source\Source\_AIInterface\AIBear.cpp
;	COMDAT ?InitAI@CAIBear@@UAEXXZ
_TEXT	SEGMENT
?InitAI@CAIBear@@UAEXXZ PROC				; CAIBear::InitAI, COMDAT
; _this$ = ecx

; 93   : {

  00000	56		 push	 esi
  00001	8b f1		 mov	 esi, ecx

; 94   : 	m_cTimeBuff.Set( SEC(30) );

  00003	6a 00		 push	 0
  00005	51		 push	 ecx
  00006	c7 04 24 00 60
	ea 46		 mov	 DWORD PTR [esp], 1189765120 ; 46ea6000H
  0000d	8d 4e 38	 lea	 ecx, DWORD PTR [esi+56]
  00010	e8 00 00 00 00	 call	 ?Set@CTimer@@QAEXMH@Z	; CTimer::Set
; File C:\IAGOS\server\v18\Source\Source\_Common\Obj.h

; 215  : 	D3DXVECTOR3		GetPos()	{ return m_vPos; }

  00015	8b 46 30	 mov	 eax, DWORD PTR [esi+48]
; File C:\IAGOS\server\v18\Source\Source\_AIInterface\AIBear.cpp

; 96   : 	PostAIMsg( AIMSG_SETSTATE, STATE_RAGE, NULL_ID );	// 최초 대기상태로 초기화.

  00018	8b ce		 mov	 ecx, esi
  0001a	6a 00		 push	 0
  0001c	6a ff		 push	 -1
  0001e	6a 04		 push	 4
  00020	f3 0f 7e 80 60
	01 00 00	 movq	 xmm0, QWORD PTR [eax+352]
  00028	66 0f d6 46 6c	 movq	 QWORD PTR [esi+108], xmm0
  0002d	8b 80 68 01 00
	00		 mov	 eax, DWORD PTR [eax+360]
  00033	89 46 74	 mov	 DWORD PTR [esi+116], eax
  00036	8b 06		 mov	 eax, DWORD PTR [esi]
  00038	6a 04		 push	 4
  0003a	ff 50 10	 call	 DWORD PTR [eax+16]
  0003d	5e		 pop	 esi

; 97   : #ifdef __INTERNALSERVER
; 98   : 	DEBUGOUT2( "CAIBear start" );
; 99   : #endif
; 100  : }

  0003e	c3		 ret	 0
?InitAI@CAIBear@@UAEXXZ ENDP				; CAIBear::InitAI
_TEXT	ENDS
; Function compile flags: /Ogtp
; File C:\IAGOS\server\v18\Source\Source\_AIInterface\AIBear.cpp
;	COMDAT ??1CAIBear@@UAE@XZ
_TEXT	SEGMENT
??1CAIBear@@UAE@XZ PROC					; CAIBear::~CAIBear, COMDAT
; _this$ = ecx

; 69   : {

  00000	c7 01 00 00 00
	00		 mov	 DWORD PTR [ecx], OFFSET ??_7CAIBear@@6B@

; 70   : 	Destroy();
; 71   : }

  00006	c7 41 38 00 00
	00 00		 mov	 DWORD PTR [ecx+56], OFFSET ??_7CTimer@@6B@
  0000d	e9 00 00 00 00	 jmp	 ??1CAIInterface@@UAE@XZ	; CAIInterface::~CAIInterface
??1CAIBear@@UAE@XZ ENDP					; CAIBear::~CAIBear
_TEXT	ENDS
; Function compile flags: /Ogtp
; File C:\IAGOS\server\v18\Source\Source\_AIInterface\AIBear.cpp
;	COMDAT ??0CAIBear@@QAE@PAVCObj@@@Z
_TEXT	SEGMENT
_this$ = -16						; size = 4
__$EHRec$ = -12						; size = 12
_pObj$ = 8						; size = 4
??0CAIBear@@QAE@PAVCObj@@@Z PROC			; CAIBear::CAIBear, COMDAT
; _this$ = ecx

; 64   : {

  00000	55		 push	 ebp
  00001	8b ec		 mov	 ebp, esp
  00003	6a ff		 push	 -1
  00005	68 00 00 00 00	 push	 __ehhandler$??0CAIBear@@QAE@PAVCObj@@@Z
  0000a	64 a1 00 00 00
	00		 mov	 eax, DWORD PTR fs:0
  00010	50		 push	 eax
  00011	51		 push	 ecx
  00012	56		 push	 esi
  00013	a1 00 00 00 00	 mov	 eax, DWORD PTR ___security_cookie
  00018	33 c5		 xor	 eax, ebp
  0001a	50		 push	 eax
  0001b	8d 45 f4	 lea	 eax, DWORD PTR __$EHRec$[ebp]
  0001e	64 a3 00 00 00
	00		 mov	 DWORD PTR fs:0, eax
  00024	8b f1		 mov	 esi, ecx
  00026	89 75 f0	 mov	 DWORD PTR _this$[ebp], esi

; 63   : CAIBear::CAIBear( CObj* pObj ) : CAIInterface( pObj )

  00029	ff 75 08	 push	 DWORD PTR _pObj$[ebp]
  0002c	e8 00 00 00 00	 call	 ??0CAIInterface@@QAE@PAVCObj@@@Z ; CAIInterface::CAIInterface

; 64   : {

  00031	8d 4e 38	 lea	 ecx, DWORD PTR [esi+56]
  00034	c7 45 fc 00 00
	00 00		 mov	 DWORD PTR __$EHRec$[ebp+8], 0
  0003b	c7 06 00 00 00
	00		 mov	 DWORD PTR [esi], OFFSET ??_7CAIBear@@6B@
  00041	e8 00 00 00 00	 call	 ??0CTimer@@QAE@XZ	; CTimer::CTimer

; 65   : 	Init();

  00046	8b ce		 mov	 ecx, esi
  00048	e8 00 00 00 00	 call	 ?Init@CAIBear@@AAEXXZ	; CAIBear::Init

; 66   : }

  0004d	8b c6		 mov	 eax, esi
  0004f	8b 4d f4	 mov	 ecx, DWORD PTR __$EHRec$[ebp]
  00052	64 89 0d 00 00
	00 00		 mov	 DWORD PTR fs:0, ecx
  00059	59		 pop	 ecx
  0005a	5e		 pop	 esi
  0005b	8b e5		 mov	 esp, ebp
  0005d	5d		 pop	 ebp
  0005e	c2 04 00	 ret	 4
_TEXT	ENDS
;	COMDAT text$x
text$x	SEGMENT
__unwindfunclet$??0CAIBear@@QAE@PAVCObj@@@Z$0:
  00000	8b 4d f0	 mov	 ecx, DWORD PTR _this$[ebp]
  00003	e9 00 00 00 00	 jmp	 ??1CAIInterface@@UAE@XZ	; CAIInterface::~CAIInterface
  00008	cc		 int	 3
  00009	cc		 int	 3
  0000a	cc		 int	 3
  0000b	cc		 int	 3
  0000c	cc		 int	 3
__ehhandler$??0CAIBear@@QAE@PAVCObj@@@Z:
  0000d	90		 npad	 1
  0000e	90		 npad	 1
  0000f	8b 54 24 08	 mov	 edx, DWORD PTR [esp+8]
  00013	8d 42 0c	 lea	 eax, DWORD PTR [edx+12]
  00016	8b 4a f4	 mov	 ecx, DWORD PTR [edx-12]
  00019	33 c8		 xor	 ecx, eax
  0001b	e8 00 00 00 00	 call	 @__security_check_cookie@4
  00020	b8 00 00 00 00	 mov	 eax, OFFSET __ehfuncinfo$??0CAIBear@@QAE@PAVCObj@@@Z
  00025	e9 00 00 00 00	 jmp	 ___CxxFrameHandler3
text$x	ENDS
??0CAIBear@@QAE@PAVCObj@@@Z ENDP			; CAIBear::CAIBear
; Function compile flags: /Ogtp
; File C:\IAGOS\server\v18\Source\Source\_AIInterface\AIBear.cpp
;	COMDAT ??0CAIBear@@QAE@XZ
_TEXT	SEGMENT
_this$ = -16						; size = 4
__$EHRec$ = -12						; size = 12
??0CAIBear@@QAE@XZ PROC					; CAIBear::CAIBear, COMDAT
; _this$ = ecx

; 60   : {

  00000	55		 push	 ebp
  00001	8b ec		 mov	 ebp, esp
  00003	6a ff		 push	 -1
  00005	68 00 00 00 00	 push	 __ehhandler$??0CAIBear@@QAE@XZ
  0000a	64 a1 00 00 00
	00		 mov	 eax, DWORD PTR fs:0
  00010	50		 push	 eax
  00011	51		 push	 ecx
  00012	56		 push	 esi
  00013	a1 00 00 00 00	 mov	 eax, DWORD PTR ___security_cookie
  00018	33 c5		 xor	 eax, ebp
  0001a	50		 push	 eax
  0001b	8d 45 f4	 lea	 eax, DWORD PTR __$EHRec$[ebp]
  0001e	64 a3 00 00 00
	00		 mov	 DWORD PTR fs:0, eax
  00024	8b f1		 mov	 esi, ecx
  00026	89 75 f0	 mov	 DWORD PTR _this$[ebp], esi
  00029	e8 00 00 00 00	 call	 ??0CAIInterface@@QAE@XZ	; CAIInterface::CAIInterface
  0002e	8d 4e 38	 lea	 ecx, DWORD PTR [esi+56]
  00031	c7 45 fc 00 00
	00 00		 mov	 DWORD PTR __$EHRec$[ebp+8], 0
  00038	c7 06 00 00 00
	00		 mov	 DWORD PTR [esi], OFFSET ??_7CAIBear@@6B@
  0003e	e8 00 00 00 00	 call	 ??0CTimer@@QAE@XZ	; CTimer::CTimer

; 61   : 	Init();

  00043	8b ce		 mov	 ecx, esi
  00045	e8 00 00 00 00	 call	 ?Init@CAIBear@@AAEXXZ	; CAIBear::Init

; 62   : }

  0004a	8b c6		 mov	 eax, esi
  0004c	8b 4d f4	 mov	 ecx, DWORD PTR __$EHRec$[ebp]
  0004f	64 89 0d 00 00
	00 00		 mov	 DWORD PTR fs:0, ecx
  00056	59		 pop	 ecx
  00057	5e		 pop	 esi
  00058	8b e5		 mov	 esp, ebp
  0005a	5d		 pop	 ebp
  0005b	c3		 ret	 0
_TEXT	ENDS
;	COMDAT text$x
text$x	SEGMENT
__unwindfunclet$??0CAIBear@@QAE@XZ$0:
  00000	8b 4d f0	 mov	 ecx, DWORD PTR _this$[ebp]
  00003	e9 00 00 00 00	 jmp	 ??1CAIInterface@@UAE@XZ	; CAIInterface::~CAIInterface
  00008	cc		 int	 3
  00009	cc		 int	 3
  0000a	cc		 int	 3
  0000b	cc		 int	 3
  0000c	cc		 int	 3
__ehhandler$??0CAIBear@@QAE@XZ:
  0000d	90		 npad	 1
  0000e	90		 npad	 1
  0000f	8b 54 24 08	 mov	 edx, DWORD PTR [esp+8]
  00013	8d 42 0c	 lea	 eax, DWORD PTR [edx+12]
  00016	8b 4a f4	 mov	 ecx, DWORD PTR [edx-12]
  00019	33 c8		 xor	 ecx, eax
  0001b	e8 00 00 00 00	 call	 @__security_check_cookie@4
  00020	b8 00 00 00 00	 mov	 eax, OFFSET __ehfuncinfo$??0CAIBear@@QAE@XZ
  00025	e9 00 00 00 00	 jmp	 ___CxxFrameHandler3
text$x	ENDS
??0CAIBear@@QAE@XZ ENDP					; CAIBear::CAIBear
; Function compile flags: /Ogtp
; File C:\IAGOS\server\v18\Source\Source\_AIInterface\AIBear.cpp
;	COMDAT ?Destroy@CAIBear@@AAEXXZ
_TEXT	SEGMENT
?Destroy@CAIBear@@AAEXXZ PROC				; CAIBear::Destroy, COMDAT
; _this$ = ecx

; 90   : }

  00000	c2 00 00	 ret	 0
?Destroy@CAIBear@@AAEXXZ ENDP				; CAIBear::Destroy
_TEXT	ENDS
; Function compile flags: /Ogtp
; File C:\IAGOS\server\v18\Source\Source\_AIInterface\AIBear.cpp
;	COMDAT ?Init@CAIBear@@AAEXXZ
_TEXT	SEGMENT
?Init@CAIBear@@AAEXXZ PROC				; CAIBear::Init, COMDAT
; _this$ = ecx

; 74   : {

  00000	56		 push	 esi
  00001	8b f1		 mov	 esi, ecx

; 75   : 	m_vPosBegin.x = m_vPosBegin.y = m_vPosBegin.z = 0;

  00003	c7 46 74 00 00
	00 00		 mov	 DWORD PTR [esi+116], 0
  0000a	c7 46 70 00 00
	00 00		 mov	 DWORD PTR [esi+112], 0
  00011	c7 46 6c 00 00
	00 00		 mov	 DWORD PTR [esi+108], 0

; 76   : 	m_nEvent = EPT_READY;

  00018	c7 46 78 00 00
	00 00		 mov	 DWORD PTR [esi+120], 0

; 77   : 	m_nAttackType = 0;

  0001f	c7 46 7c 00 00
	00 00		 mov	 DWORD PTR [esi+124], 0

; 78   : 	m_tmReattack = m_tmAddReattack = m_tmTrace = m_tmTimeOver = timeGetTime();

  00026	ff 15 00 00 00
	00		 call	 DWORD PTR __imp__timeGetTime@0
  0002c	89 86 8c 00 00
	00		 mov	 DWORD PTR [esi+140], eax
  00032	0f 57 c0	 xorps	 xmm0, xmm0
  00035	89 86 88 00 00
	00		 mov	 DWORD PTR [esi+136], eax
  0003b	89 86 84 00 00
	00		 mov	 DWORD PTR [esi+132], eax
  00041	89 86 80 00 00
	00		 mov	 DWORD PTR [esi+128], eax

; 79   : 	m_idTarget = NULL_ID;

  00047	c7 86 90 00 00
	00 ff ff ff ff	 mov	 DWORD PTR [esi+144], -1

; 80   : 	m_vTarget.x = m_vTarget.y = m_vTarget.z = 0;

  00051	c7 86 9c 00 00
	00 00 00 00 00	 mov	 DWORD PTR [esi+156], 0
  0005b	c7 86 98 00 00
	00 00 00 00 00	 mov	 DWORD PTR [esi+152], 0
  00065	c7 86 94 00 00
	00 00 00 00 00	 mov	 DWORD PTR [esi+148], 0

; 81   : 	m_idLastAttacker = NULL_ID;

  0006f	c7 86 a4 00 00
	00 ff ff ff ff	 mov	 DWORD PTR [esi+164], -1

; 82   : 	m_bDefenseMode = FALSE;

  00079	c7 86 a8 00 00
	00 00 00 00 00	 mov	 DWORD PTR [esi+168], 0

; 83   : 	m_nAppearCnt = 0;

  00083	c7 86 a0 00 00
	00 00 00 00 00	 mov	 DWORD PTR [esi+160], 0

; 84   : 
; 85   : 	memset( m_bEventFlag, 0, sizeof(BOOL)*5 );

  0008d	0f 11 46 58	 movups	 XMMWORD PTR [esi+88], xmm0
  00091	c7 46 68 00 00
	00 00		 mov	 DWORD PTR [esi+104], 0
  00098	5e		 pop	 esi

; 86   : }

  00099	c3		 ret	 0
?Init@CAIBear@@AAEXXZ ENDP				; CAIBear::Init
_TEXT	ENDS
; Function compile flags: /Ogtp
; File C:\IAGOS\server\v18\Source\Source\_AIInterface\AIBear.cpp
; File C:\IAGOS\server\v18\Source\Source\_Common\Mover.h
; File C:\IAGOS\server\v18\Source\Source\_Common\Obj.h
; File C:\IAGOS\server\v18\Source\Source\DX_SDK\d3dx9math.inl
; File C:\IAGOS\server\v18\Source\Source\_Common\Obj.h
; File C:\IAGOS\server\v18\Source\Source\DX_SDK\d3dx9math.inl
; File C:\IAGOS\server\v18\Source\Source\_AIInterface\AIBear.cpp
; File C:\IAGOS\server\v18\Source\Source\_Common\xUtil.h
; File C:\IAGOS\server\v18\Source\Source\_AIInterface\AIBear.cpp
; File C:\IAGOS\server\v18\Source\Source\_Common\xUtil.h
; File C:\IAGOS\server\v18\Source\Source\_Common\Obj.h
; File C:\IAGOS\server\v18\Source\Source\_AIInterface\AIBear.cpp
;	COMDAT ?SelectTarget@CAIBear@@AAEHXZ
_TEXT	SEGMENT
$T1 = -28						; size = 12
$T2 = -16						; size = 12
_fRadius$ = -4						; size = 4
_dwNum$1$ = -4						; size = 4
_fRadiusSq$1$ = -4					; size = 4
?SelectTarget@CAIBear@@AAEHXZ PROC			; CAIBear::SelectTarget, COMDAT
; _this$ = ecx

; 162  : {

  00000	55		 push	 ebp
  00001	8b ec		 mov	 ebp, esp
  00003	83 ec 1c	 sub	 esp, 28			; 0000001cH
  00006	53		 push	 ebx
  00007	56		 push	 esi
  00008	8b f1		 mov	 esi, ecx
  0000a	57		 push	 edi

; 163  : 	CMover	*pMover = GetMover();

  0000b	8b 5e 30	 mov	 ebx, DWORD PTR [esi+48]

; 164  : 	CWorld	*pWorld = GetWorld();
; 165  : 	CModelObject *pModel = (CModelObject *)pMover->GetModel();
; 166  : 
; 167  : 	FLOAT fRadius = pMover->GetRadiusXZ();		// this의 반지름

  0000e	8b cb		 mov	 ecx, ebx
  00010	e8 00 00 00 00	 call	 ?GetRadiusXZ@CObj@@QAEMXZ ; CObj::GetRadiusXZ

; 168  : 	FLOAT fRadiusSq = fRadius * fRadius;		// 반지름Sq버전.
; 169  : 	
; 170  : 	CMover *pLastAttacker = prj.GetMover( m_idLastAttacker );

  00015	ff b6 a4 00 00
	00		 push	 DWORD PTR [esi+164]
  0001b	d9 5d fc	 fstp	 DWORD PTR _fRadius$[ebp]
  0001e	f3 0f 10 45 fc	 movss	 xmm0, DWORD PTR _fRadius$[ebp]
  00023	b9 00 00 00 00	 mov	 ecx, OFFSET ?prj@@3VCProject@@A ; prj
  00028	f3 0f 59 c0	 mulss	 xmm0, xmm0
  0002c	f3 0f 11 45 fc	 movss	 DWORD PTR _fRadiusSq$1$[ebp], xmm0
  00031	e8 00 00 00 00	 call	 ?GetMover@CProject@@QAEPAVCMover@@K@Z ; CProject::GetMover
  00036	8b f8		 mov	 edi, eax

; 171  : 	if( pLastAttacker == NULL || (pLastAttacker && pLastAttacker->IsDie()) )			// LastAttacker가 없어졌으면 타겟 다시 잡을 수 있도록 하자.

  00038	85 ff		 test	 edi, edi
  0003a	0f 84 88 00 00
	00		 je	 $LN4@SelectTarg
; File C:\IAGOS\server\v18\Source\Source\_Common\Mover.h

; 1250 : 	BOOL			IsDie() { return m_pActMover->IsDie() || m_nHitPoint == 0; }

  00040	8b 8f 38 02 00
	00		 mov	 ecx, DWORD PTR [edi+568]
  00046	f7 41 04 00 00
	00 08		 test	 DWORD PTR [ecx+4], 134217728 ; 08000000H
  0004d	75 79		 jne	 SHORT $LN4@SelectTarg
  0004f	83 bf f8 05 00
	00 00		 cmp	 DWORD PTR [edi+1528], 0
  00056	74 70		 je	 SHORT $LN4@SelectTarg
; File C:\IAGOS\server\v18\Source\Source\_Common\Obj.h

; 215  : 	D3DXVECTOR3		GetPos()	{ return m_vPos; }

  00058	f3 0f 7e 83 60
	01 00 00	 movq	 xmm0, QWORD PTR [ebx+352]
  00060	8b 83 68 01 00
	00		 mov	 eax, DWORD PTR [ebx+360]
  00066	66 0f d6 45 e4	 movq	 QWORD PTR $T1[ebp], xmm0
  0006b	f3 0f 7e 87 60
	01 00 00	 movq	 xmm0, QWORD PTR [edi+352]
  00073	66 0f d6 45 f0	 movq	 QWORD PTR $T2[ebp], xmm0
; File C:\IAGOS\server\v18\Source\Source\DX_SDK\d3dx9math.inl

; 383  :     return D3DXVECTOR3(x - v.x, y - v.y, z - v.z);

  00078	f3 0f 10 4d f0	 movss	 xmm1, DWORD PTR $T2[ebp]
  0007d	f3 0f 10 55 f4	 movss	 xmm2, DWORD PTR $T2[ebp+4]
  00082	f3 0f 5c 55 e8	 subss	 xmm2, DWORD PTR $T1[ebp+4]
  00087	f3 0f 5c 4d e4	 subss	 xmm1, DWORD PTR $T1[ebp]
; File C:\IAGOS\server\v18\Source\Source\_Common\Obj.h

; 215  : 	D3DXVECTOR3		GetPos()	{ return m_vPos; }

  0008c	89 45 ec	 mov	 DWORD PTR $T1[ebp+8], eax
  0008f	8b 87 68 01 00
	00		 mov	 eax, DWORD PTR [edi+360]
  00095	89 45 f8	 mov	 DWORD PTR $T2[ebp+8], eax
; File C:\IAGOS\server\v18\Source\Source\DX_SDK\d3dx9math.inl

; 383  :     return D3DXVECTOR3(x - v.x, y - v.y, z - v.z);

  00098	f3 0f 10 45 f8	 movss	 xmm0, DWORD PTR $T2[ebp+8]
  0009d	f3 0f 5c 45 ec	 subss	 xmm0, DWORD PTR $T1[ebp+8]

; 302  :     z = fz;

  000a2	f3 0f 59 d2	 mulss	 xmm2, xmm2

; 1698 :     return pV->x * pV->x + pV->y * pV->y + pV->z * pV->z;

  000a6	f3 0f 59 c9	 mulss	 xmm1, xmm1
  000aa	f3 0f 59 c0	 mulss	 xmm0, xmm0
  000ae	f3 0f 58 d1	 addss	 xmm2, xmm1
  000b2	f3 0f 58 d0	 addss	 xmm2, xmm0
; File C:\IAGOS\server\v18\Source\Source\_AIInterface\AIBear.cpp

; 179  : 		if( fDistSq >= fRadiusSq * 10.0f )				// 라스트어태커가 내 반지름의 10배이상 떨어져있으면

  000b6	f3 0f 10 45 fc	 movss	 xmm0, DWORD PTR _fRadiusSq$1$[ebp]
  000bb	f3 0f 59 05 00
	00 00 00	 mulss	 xmm0, DWORD PTR __real@41200000
  000c3	0f 2f d0	 comiss	 xmm2, xmm0
  000c6	72 0c		 jb	 SHORT $LN5@SelectTarg
$LN4@SelectTarg:

; 180  : 		{
; 181  : 			// 타겟 포기
; 182  : #ifdef __INTERNALSERVER
; 183  : 			CString str;
; 184  : 			str.Format( "LastAtker(%s)가 너무 멀어서(%5.2f) 타겟포기함", pLastAttacker->GetName(), sqrt(fDistSq) );
; 185  : 			DEBUGOUT2( str, "boss(CAIBear).txt" );
; 186  : #endif
; 187  : 			
; 188  : 			m_idLastAttacker = NULL_ID;
; 189  : 			pLastAttacker = NULL;
; 190  : 		}
; 191  : 	}
; 192  : 
; 193  : 
; 194  : 	m_idTarget = NULL_ID;

  000c8	33 ff		 xor	 edi, edi
  000ca	c7 86 a4 00 00
	00 ff ff ff ff	 mov	 DWORD PTR [esi+164], -1
$LN5@SelectTarg:

; 195  : 	m_vTarget.x = m_vTarget.y = m_vTarget.z = 0;	// 일단 이건 안쓰는걸로 하자.
; 196  : 
; 197  : 	if( m_idLastAttacker == NULL_ID )		// 아직 날 때린쉐리가 없다.

  000d4	83 be a4 00 00
	00 ff		 cmp	 DWORD PTR [esi+164], -1
  000db	c7 86 90 00 00
	00 ff ff ff ff	 mov	 DWORD PTR [esi+144], -1
  000e5	c7 86 9c 00 00
	00 00 00 00 00	 mov	 DWORD PTR [esi+156], 0
  000ef	c7 86 98 00 00
	00 00 00 00 00	 mov	 DWORD PTR [esi+152], 0
  000f9	c7 86 94 00 00
	00 00 00 00 00	 mov	 DWORD PTR [esi+148], 0
  00103	75 3f		 jne	 SHORT $LN6@SelectTarg

; 198  : 	{
; 199  : 		CMover* pTarget = NULL;
; 200  : 		pTarget = ScanTarget( pMover, 40, JOB_ALL );		// 40미터 반경내에서 아무나 고른다.

  00105	6a 00		 push	 0
  00107	6a 00		 push	 0
  00109	6a 00		 push	 0
  0010b	6a 28		 push	 40			; 00000028H
  0010d	6a 28		 push	 40			; 00000028H
  0010f	53		 push	 ebx
  00110	8b ce		 mov	 ecx, esi
  00112	e8 00 00 00 00	 call	 ?ScanTarget@CAIInterface@@IAEPAVCMover@@PAVCObj@@HHKKH@Z ; CAIInterface::ScanTarget

; 201  : 		if( pTarget )

  00117	85 c0		 test	 eax, eax
  00119	74 20		 je	 SHORT $LN8@SelectTarg

; 202  : 		{
; 203  : 			// this가 비행형 몬스터거나 || 타겟이 비행중이 아닐때만 공격.
; 204  : 			if( pMover->IsFlyingNPC() || pTarget->m_pActMover->IsFly() == FALSE )	

  0011b	f7 83 3c 02 00
	00 00 00 01 00	 test	 DWORD PTR [ebx+572], 65536 ; 00010000H
  00125	0f 85 9f 00 00
	00		 jne	 $LN12@SelectTarg
  0012b	8b 88 38 02 00
	00		 mov	 ecx, DWORD PTR [eax+568]
  00131	f6 41 08 08	 test	 BYTE PTR [ecx+8], 8
  00135	0f 84 8f 00 00
	00		 je	 $LN12@SelectTarg
$LN8@SelectTarg:
  0013b	5f		 pop	 edi

; 309  : }

  0013c	5e		 pop	 esi
  0013d	33 c0		 xor	 eax, eax
  0013f	5b		 pop	 ebx
  00140	8b e5		 mov	 esp, ebp
  00142	5d		 pop	 ebp
  00143	c3		 ret	 0
$LN6@SelectTarg:
; File C:\IAGOS\server\v18\Source\Source\_Common\xUtil.h

; 16   : 	g_next = g_next * 1103515245 + 12345;// + nRandomSeed[ i++ ];

  00144	69 0d 00 00 00
	00 6d 4e c6 41	 imul	 ecx, DWORD PTR ?g_next@@3KA, 1103515245 ; g_next

; 22   : 	return  xRand() % num;

  0014e	b8 1f 85 eb 51	 mov	 eax, 1374389535		; 51eb851fH

; 16   : 	g_next = g_next * 1103515245 + 12345;// + nRandomSeed[ i++ ];

  00153	81 c1 39 30 00
	00		 add	 ecx, 12345		; 00003039H

; 22   : 	return  xRand() % num;

  00159	f7 e1		 mul	 ecx

; 16   : 	g_next = g_next * 1103515245 + 12345;// + nRandomSeed[ i++ ];

  0015b	89 0d 00 00 00
	00		 mov	 DWORD PTR ?g_next@@3KA, ecx ; g_next

; 22   : 	return  xRand() % num;

  00161	c1 ea 05	 shr	 edx, 5
  00164	6b c2 64	 imul	 eax, edx, 100
; File C:\IAGOS\server\v18\Source\Source\_AIInterface\AIBear.cpp

; 222  : 		DWORD dwAggroRate = 50;

  00167	ba 32 00 00 00	 mov	 edx, 50			; 00000032H
; File C:\IAGOS\server\v18\Source\Source\_Common\xUtil.h

; 22   : 	return  xRand() % num;

  0016c	2b c8		 sub	 ecx, eax
  0016e	89 4d fc	 mov	 DWORD PTR _dwNum$1$[ebp], ecx
; File C:\IAGOS\server\v18\Source\Source\_Common\Obj.h

; 327  : 	return pObj && ( pObj->IsDelete() == FALSE ); 

  00171	85 ff		 test	 edi, edi
  00173	74 20		 je	 SHORT $LN14@SelectTarg

; 180  : 	BOOL			IsDelete()	{ return (m_dwFlags & OBJ_FLAG_DELETE);  }

  00175	f6 47 04 01	 test	 BYTE PTR [edi+4], 1

; 327  : 	return pObj && ( pObj->IsDelete() == FALSE ); 

  00179	75 1a		 jne	 SHORT $LN14@SelectTarg
; File C:\IAGOS\server\v18\Source\Source\_AIInterface\AIBear.cpp

; 226  : 			if( pLastAttacker->GetJob() == JOB_MERCENARY )		// 마지막으로 날때린 쉐리가 머서면 어그로 좀더 주자.

  0017b	8b cf		 mov	 ecx, edi
  0017d	e8 00 00 00 00	 call	 ?GetJob@CMover@@QAEHXZ	; CMover::GetJob
  00182	b9 46 00 00 00	 mov	 ecx, 70			; 00000046H
  00187	83 f8 01	 cmp	 eax, 1
  0018a	ba 32 00 00 00	 mov	 edx, 50			; 00000032H
  0018f	0f 44 d1	 cmove	 edx, ecx
  00192	8b 4d fc	 mov	 ecx, DWORD PTR _dwNum$1$[ebp]
$LN14@SelectTarg:

; 227  : 				dwAggroRate = 70;
; 228  : 		}
; 229  : 		if( dwNum < dwAggroRate )		

  00195	3b ca		 cmp	 ecx, edx
  00197	72 7a		 jb	 SHORT $LN25@SelectTarg

; 230  : 		{
; 231  : 			// dwAggroRate% 확률로 마지막으로 날 때린넘 공격.
; 232  : 			m_idTarget = m_idLastAttacker;		// 날 공격한 쉐리를 타겟으로 지정하자.
; 233  : 		} else
; 234  : 		if( dwNum < 75 )

  00199	83 f9 4b	 cmp	 ecx, 75			; 0000004bH
  0019c	73 44		 jae	 SHORT $LN17@SelectTarg

; 235  : 		{
; 236  : 			// 50미터 반경내에서 가장 쎈넘을 잡자.
; 237  : 			CMover *pTarget = ScanTargetStrong( pMover, 50 );		

  0019e	51		 push	 ecx
  0019f	c7 04 24 00 00
	48 42		 mov	 DWORD PTR [esp], 1112014848 ; 42480000H
  001a6	8b ce		 mov	 ecx, esi
  001a8	53		 push	 ebx
  001a9	e8 00 00 00 00	 call	 ?ScanTargetStrong@CAIInterface@@IAEPAVCMover@@PAVCObj@@M@Z ; CAIInterface::ScanTargetStrong

; 238  : 			if( pTarget )

  001ae	85 c0		 test	 eax, eax
  001b0	74 61		 je	 SHORT $LN25@SelectTarg

; 239  : 			{
; 240  : 				// this가 비행형 몬스터거나 || 타겟이 비행중이 아닐때만 공격.
; 241  : 				if( pMover->IsFlyingNPC() || pTarget->m_pActMover->IsFly() == FALSE )	

  001b2	f7 83 3c 02 00
	00 00 00 01 00	 test	 DWORD PTR [ebx+572], 65536 ; 00010000H
  001bc	75 0c		 jne	 SHORT $LN12@SelectTarg
  001be	8b 88 38 02 00
	00		 mov	 ecx, DWORD PTR [eax+568]
  001c4	f6 41 08 08	 test	 BYTE PTR [ecx+8], 8
  001c8	75 49		 jne	 SHORT $LN25@SelectTarg
$LN12@SelectTarg:

; 263  : 				{
; 264  : 					m_idTarget = pTarget->GetId();
; 265  : #ifdef __INTERNALSERVER
; 266  : 					CString str;
; 267  : 					str.Format( "OverHealer:%s", pTarget->GetName() );
; 268  : 					DEBUGOUT2( str, "boss(CAIBear).txt" );
; 269  : #endif
; 270  : 				}
; 271  : 				else
; 272  : 					m_idTarget = m_idLastAttacker;		// 타겟이 공격하기가 여의치 않으면 마지막으로 때린쉐리 공격하자.
; 273  : 			} else
; 274  : 				m_idTarget = m_idLastAttacker;		// 타겟이 공격하기가 여의치 않으면 마지막으로 때린쉐리 공격하자.
; 275  : 		}
; 276  : #ifdef __INTERNALSERVER
; 277  : 		{
; 278  : 			CMover *pTarget = prj.GetMover( m_idTarget );
; 279  : 			CMover *pMover = prj.GetMover( m_idLastAttacker );
; 280  : 			CString str;
; 281  : 			if( pMover )
; 282  : 			{
; 283  : 				if( pTarget )
; 284  : 					str.Format( "rand:%d LastAttacker:%s SelectTarget:%s", dwNum, pMover->GetName(), pTarget->GetName() );
; 285  : 				else
; 286  : 					str.Format( "rand:%d LastAttacker:%s SelectTarget:%s", dwNum, pMover->GetName(), "없음" );
; 287  : 				DEBUGOUT2( str, "boss(CAIBear).txt" );
; 288  : 			} else
; 289  : 			{
; 290  : 				if( pTarget )
; 291  : 					str.Format( "rand:%d LastAttacker:%s SelectTarget:%s", dwNum, "없음.", pTarget->GetName() );
; 292  : 				else
; 293  : 					str.Format( "rand:%d LastAttacker:%s SelectTarget:%s", dwNum, "없음.", "없음" );
; 294  : 				
; 295  : 				DEBUGOUT2( str, "boss(CAIBear).txt" );
; 296  : 			}
; 297  : 
; 298  : 		}
; 299  : #endif
; 300  : 	}
; 301  : 
; 302  : 	// 적절한 공격대상을 정하자.
; 303  : 	// .가장 마지막으로 날 때린넘 - 50%. - 골고루 공격한다는 느낌을 줌.
; 304  : 	// .나에게 가장 위협적인넘(데미지를 많이 주는넘 혹은 가장 강한 넘) - 25%
; 305  : 	// .오버힐 하는 어시 - 25%.
; 306  : 	// .떼거리로 가장 몰려있는 구역의 중앙에 있는넘. - 10% - 일단 이건 나중에
; 307  : 
; 308  : 	return TRUE;

  001ca	8b 80 bc 01 00
	00		 mov	 eax, DWORD PTR [eax+444]
  001d0	5f		 pop	 edi
  001d1	89 86 90 00 00
	00		 mov	 DWORD PTR [esi+144], eax
  001d7	b8 01 00 00 00	 mov	 eax, 1

; 309  : }

  001dc	5e		 pop	 esi
  001dd	5b		 pop	 ebx
  001de	8b e5		 mov	 esp, ebp
  001e0	5d		 pop	 ebp
  001e1	c3		 ret	 0
$LN17@SelectTarg:

; 242  : 				{
; 243  : 					m_idTarget = pTarget->GetId();
; 244  : #ifdef __INTERNALSERVER
; 245  : 					CString str;
; 246  : 					str.Format( "Leader:%s %d", pTarget->GetName(), pTarget->GetLevel() );
; 247  : 					DEBUGOUT2( str, "boss(CAIBear).txt" );
; 248  : #endif
; 249  : 				}
; 250  : 				else
; 251  : 					m_idTarget = m_idLastAttacker;		// 타겟이 공격하기가 여의치 않으면 마지막으로 때린쉐리 공격하자.
; 252  : 			} else
; 253  : 				m_idTarget = m_idLastAttacker;		// 타겟이 공격하기가 여의치 않으면 마지막으로 때린쉐리 공격하자.
; 254  : 		} else
; 255  : 		if( dwNum < 100 )

  001e2	83 f9 64	 cmp	 ecx, 100		; 00000064H
  001e5	73 38		 jae	 SHORT $LN26@SelectTarg

; 256  : 		{
; 257  : 			// 오버힐하는 어시를 죽이자.
; 258  : 			CMover *pTarget = ScanTargetOverHealer( pMover, 50 );		

  001e7	51		 push	 ecx
  001e8	c7 04 24 00 00
	48 42		 mov	 DWORD PTR [esp], 1112014848 ; 42480000H
  001ef	8b ce		 mov	 ecx, esi
  001f1	53		 push	 ebx
  001f2	e8 00 00 00 00	 call	 ?ScanTargetOverHealer@CAIInterface@@IAEPAVCMover@@PAVCObj@@M@Z ; CAIInterface::ScanTargetOverHealer

; 259  : 			if( pTarget )

  001f7	85 c0		 test	 eax, eax
  001f9	74 18		 je	 SHORT $LN25@SelectTarg

; 260  : 			{
; 261  : 				// this가 비행형 몬스터거나 || 타겟이 비행중이 아닐때만 공격.
; 262  : 				if( pMover->IsFlyingNPC() || pTarget->m_pActMover->IsFly() == FALSE )	

  001fb	f7 83 3c 02 00
	00 00 00 01 00	 test	 DWORD PTR [ebx+572], 65536 ; 00010000H
  00205	75 c3		 jne	 SHORT $LN12@SelectTarg
  00207	8b 88 38 02 00
	00		 mov	 ecx, DWORD PTR [eax+568]
  0020d	f6 41 08 08	 test	 BYTE PTR [ecx+8], 8
  00211	74 b7		 je	 SHORT $LN12@SelectTarg
$LN25@SelectTarg:

; 263  : 				{
; 264  : 					m_idTarget = pTarget->GetId();
; 265  : #ifdef __INTERNALSERVER
; 266  : 					CString str;
; 267  : 					str.Format( "OverHealer:%s", pTarget->GetName() );
; 268  : 					DEBUGOUT2( str, "boss(CAIBear).txt" );
; 269  : #endif
; 270  : 				}
; 271  : 				else
; 272  : 					m_idTarget = m_idLastAttacker;		// 타겟이 공격하기가 여의치 않으면 마지막으로 때린쉐리 공격하자.
; 273  : 			} else
; 274  : 				m_idTarget = m_idLastAttacker;		// 타겟이 공격하기가 여의치 않으면 마지막으로 때린쉐리 공격하자.
; 275  : 		}
; 276  : #ifdef __INTERNALSERVER
; 277  : 		{
; 278  : 			CMover *pTarget = prj.GetMover( m_idTarget );
; 279  : 			CMover *pMover = prj.GetMover( m_idLastAttacker );
; 280  : 			CString str;
; 281  : 			if( pMover )
; 282  : 			{
; 283  : 				if( pTarget )
; 284  : 					str.Format( "rand:%d LastAttacker:%s SelectTarget:%s", dwNum, pMover->GetName(), pTarget->GetName() );
; 285  : 				else
; 286  : 					str.Format( "rand:%d LastAttacker:%s SelectTarget:%s", dwNum, pMover->GetName(), "없음" );
; 287  : 				DEBUGOUT2( str, "boss(CAIBear).txt" );
; 288  : 			} else
; 289  : 			{
; 290  : 				if( pTarget )
; 291  : 					str.Format( "rand:%d LastAttacker:%s SelectTarget:%s", dwNum, "없음.", pTarget->GetName() );
; 292  : 				else
; 293  : 					str.Format( "rand:%d LastAttacker:%s SelectTarget:%s", dwNum, "없음.", "없음" );
; 294  : 				
; 295  : 				DEBUGOUT2( str, "boss(CAIBear).txt" );
; 296  : 			}
; 297  : 
; 298  : 		}
; 299  : #endif
; 300  : 	}
; 301  : 
; 302  : 	// 적절한 공격대상을 정하자.
; 303  : 	// .가장 마지막으로 날 때린넘 - 50%. - 골고루 공격한다는 느낌을 줌.
; 304  : 	// .나에게 가장 위협적인넘(데미지를 많이 주는넘 혹은 가장 강한 넘) - 25%
; 305  : 	// .오버힐 하는 어시 - 25%.
; 306  : 	// .떼거리로 가장 몰려있는 구역의 중앙에 있는넘. - 10% - 일단 이건 나중에
; 307  : 
; 308  : 	return TRUE;

  00213	8b 86 a4 00 00
	00		 mov	 eax, DWORD PTR [esi+164]
  00219	89 86 90 00 00
	00		 mov	 DWORD PTR [esi+144], eax
$LN26@SelectTarg:

; 309  : }

  0021f	5f		 pop	 edi
  00220	5e		 pop	 esi
  00221	b8 01 00 00 00	 mov	 eax, 1
  00226	5b		 pop	 ebx
  00227	8b e5		 mov	 esp, ebp
  00229	5d		 pop	 ebp
  0022a	c3		 ret	 0
?SelectTarget@CAIBear@@AAEHXZ ENDP			; CAIBear::SelectTarget
_TEXT	ENDS
; Function compile flags: /Ogtp
; File C:\IAGOS\server\v18\Source\Source\_AIInterface\AIBear.cpp
; File C:\IAGOS\server\v18\Source\Source\_Common\Project.h
; File C:\IAGOS\server\v18\Source\Source\_Common\data.h
; File C:\IAGOS\server\v18\Source\Source\_Common\Project.h
; File C:\IAGOS\server\v18\Source\Source\_AIInterface\AIBear.cpp
; File C:\IAGOS\server\v18\Source\Source\_Common\Obj.h
; File C:\IAGOS\server\v18\Source\Source\_Common\XUtil3D.h
; File C:\IAGOS\server\v18\Source\Source\_Common\Obj.h
; File C:\Program Files (x86)\Windows Kits\10\Include\10.0.26100.0\ucrt\corecrt_math.h
; File C:\IAGOS\server\v18\Source\Source\_Common\XUtil3D.h
; File C:\IAGOS\server\v18\Source\Source\_AIInterface\AIBear.cpp
; File C:\Program Files (x86)\Windows Kits\10\Include\10.0.26100.0\ucrt\corecrt_math.h
; File C:\IAGOS\server\v18\Source\Source\_AIInterface\AIBear.cpp
; File C:\IAGOS\server\v18\Source\Source\DX_SDK\d3dx9math.inl
; File C:\IAGOS\server\v18\Source\Source\_Common\XUtil3D.h
; File C:\IAGOS\server\v18\Source\Source\DX_SDK\d3dx9math.inl
; File C:\IAGOS\server\v18\Source\Source\_Common\XUtil3D.h
; File C:\IAGOS\server\v18\Source\Source\DX_SDK\d3dx9math.inl
; File C:\IAGOS\server\v18\Source\Source\_AIInterface\AIBear.cpp
; File C:\IAGOS\server\v18\Source\Source\DX_SDK\d3dx9math.inl
; File C:\IAGOS\server\v18\Source\Source\_AIInterface\AIBear.cpp
; File C:\IAGOS\server\v18\Source\Source\_Common\XUtil3D.h
; File C:\IAGOS\server\v18\Source\Source\_AIInterface\AIBear.cpp
; File C:\Program Files (x86)\Windows Kits\10\Include\10.0.26100.0\ucrt\corecrt_math.h
; File C:\IAGOS\server\v18\Source\Source\_Common\XUtil3D.h
; File C:\IAGOS\server\v18\Source\Source\DX_SDK\d3dx9math.inl
; File C:\Program Files (x86)\Windows Kits\10\Include\10.0.26100.0\ucrt\corecrt_math.h
; File C:\IAGOS\server\v18\Source\Source\_AIInterface\AIBear.cpp
; File C:\Program Files (x86)\Windows Kits\10\Include\10.0.26100.0\ucrt\corecrt_math.h
; File C:\IAGOS\server\v18\Source\Source\_AIInterface\AIBear.cpp
; File C:\IAGOS\server\v18\Source\Source\DX_SDK\d3dx9math.inl
; File C:\IAGOS\server\v18\Source\Source\_Common\XUtil3D.h
; File C:\IAGOS\server\v18\Source\Source\DX_SDK\d3dx9math.inl
; File C:\IAGOS\server\v18\Source\Source\_AIInterface\AIBear.cpp
; File C:\IAGOS\server\v18\Source\Source\DX_SDK\d3dx9math.inl
; File C:\IAGOS\server\v18\Source\Source\_AIInterface\AIBear.cpp
; File C:\IAGOS\server\v18\Source\Source\_AIInterface\Action.h
; File C:\IAGOS\server\v18\Source\Source\_AIInterface\AIBear.cpp
; File C:\IAGOS\server\v18\Source\Source\_Common\Mover.h
; File C:\IAGOS\server\v18\Source\Source\_AIInterface\AIBear.cpp
; File C:\IAGOS\server\v18\Source\Source\_Common\Obj.h
; File C:\IAGOS\server\v18\Source\Source\_AIInterface\AIBear.cpp
; File C:\IAGOS\server\v18\Source\Source\_Common\Obj.h
; File C:\IAGOS\server\v18\Source\Source\_AIInterface\AIBear.cpp
; File C:\IAGOS\server\v18\Source\Source\_Common\Obj.h
; File C:\IAGOS\server\v18\Source\Source\DX_SDK\d3dx9math.inl
; File C:\IAGOS\server\v18\Source\Source\_Common\Obj.h
; File C:\IAGOS\server\v18\Source\Source\_AIInterface\AIBear.cpp
; File C:\IAGOS\server\v18\Source\Source\DX_SDK\d3dx9math.inl
; File C:\IAGOS\server\v18\Source\Source\_AIInterface\AIBear.cpp
; File C:\IAGOS\server\v18\Source\Source\DX_SDK\d3dx9math.inl
; File C:\IAGOS\server\v18\Source\Source\_AIInterface\AIBear.cpp
; File C:\IAGOS\server\v18\Source\Source\DX_SDK\d3dx9math.inl
; File C:\IAGOS\server\v18\Source\Source\_AIInterface\AIBear.cpp
; File C:\IAGOS\server\v18\Source\Source\DX_SDK\d3dx9math.inl
; File C:\IAGOS\server\v18\Source\Source\_AIInterface\AIBear.cpp
; File C:\IAGOS\server\v18\Source\Source\_Common\xUtil.h
; File C:\IAGOS\server\v18\Source\Source\_AIInterface\AIBear.cpp
; File C:\IAGOS\server\v18\Source\Source\_Common\Timer.h
; File C:\IAGOS\server\v18\Source\Source\_AIInterface\AIBear.cpp
; File C:\IAGOS\server\v18\Source\Source\_Common\Timer.h
; File C:\IAGOS\server\v18\Source\Source\_AIInterface\AIBear.cpp
;	COMDAT ?MoveProcessRage@CAIBear@@AAEHXZ
_TEXT	SEGMENT
tv1065 = -64						; size = 16
tv1068 = -64						; size = 16
$T1 = -60						; size = 12
_vPos$2 = -36						; size = 12
_vTarget$3 = -36					; size = 12
tv1020 = -24						; size = 8
tv1021 = -24						; size = 8
_fRadiusSq$1$ = -20					; size = 4
tv1005 = -16						; size = 4
_fRadius$4 = -12					; size = 4
tv1006 = -12						; size = 4
_pMover$1$ = -12					; size = 4
tv1004 = -8						; size = 4
_pModel$1$ = -8						; size = 4
_bEnd$1$ = -8						; size = 4
_pTarget$1$ = -4					; size = 4
_vPos$4$ = -4						; size = 4
_fArrivalRange$1$ = -4					; size = 4
?MoveProcessRage@CAIBear@@AAEHXZ PROC			; CAIBear::MoveProcessRage, COMDAT
; _this$ = ecx

; 331  : {

  00000	53		 push	 ebx
  00001	8b dc		 mov	 ebx, esp
  00003	83 ec 08	 sub	 esp, 8
  00006	83 e4 f0	 and	 esp, -16		; fffffff0H
  00009	83 c4 04	 add	 esp, 4
  0000c	55		 push	 ebp
  0000d	8b 6b 04	 mov	 ebp, DWORD PTR [ebx+4]
  00010	89 6c 24 04	 mov	 DWORD PTR [esp+4], ebp
  00014	8b ec		 mov	 ebp, esp
  00016	83 ec 48	 sub	 esp, 72			; 00000048H
  00019	56		 push	 esi
  0001a	57		 push	 edi
  0001b	8b f9		 mov	 edi, ecx

; 332  : 	CMover	*pMover = GetMover();
; 333  : 	CWorld	*pWorld = GetWorld();
; 334  : 	CModelObject *pModel = (CModelObject *)pMover->GetModel();
; 335  : 
; 336  : 	// 이벤트 메세지
; 337  : 	// 보스몬스터가 유저에게 말을 한다.
; 338  : 	CMover * pTarget = NULL;
; 339  : 	
; 340  : 	if( m_bEventFlag[0] == FALSE )

  0001d	83 7f 58 00	 cmp	 DWORD PTR [edi+88], 0
  00021	8b 77 30	 mov	 esi, DWORD PTR [edi+48]
  00024	89 75 f4	 mov	 DWORD PTR _pMover$1$[ebp], esi
  00027	8b 8e 78 01 00
	00		 mov	 ecx, DWORD PTR [esi+376]
  0002d	89 4d f8	 mov	 DWORD PTR _pModel$1$[ebp], ecx
  00030	0f 85 cf 01 00
	00		 jne	 $LN3@MoveProces

; 341  : 	{
; 342  : 		pTarget = ScanTarget( pMover, 80, JOB_ALL );		// 80미터 반경내에서 아무나 고른다.

  00036	6a 00		 push	 0
  00038	6a 00		 push	 0
  0003a	6a 00		 push	 0
  0003c	6a 28		 push	 40			; 00000028H
  0003e	6a 50		 push	 80			; 00000050H
  00040	56		 push	 esi
  00041	8b cf		 mov	 ecx, edi
  00043	e8 00 00 00 00	 call	 ?ScanTarget@CAIInterface@@IAEPAVCMover@@PAVCObj@@HHKKH@Z ; CAIInterface::ScanTarget
  00048	89 45 fc	 mov	 DWORD PTR _pTarget$1$[ebp], eax

; 343  : 
; 344  : 		if( pTarget )

  0004b	85 c0		 test	 eax, eax
  0004d	0f 84 af 01 00
	00		 je	 $LN107@MoveProces

; 345  : 		{
; 346  : 			m_bEventFlag[0] = TRUE;

  00053	c7 47 58 01 00
	00 00		 mov	 DWORD PTR [edi+88], 1
; File C:\IAGOS\server\v18\Source\Source\_Common\Project.h

; 1427 : 	VERIFY_RANGE( (int)( dwIndex ), 0, m_colorText.GetSize(), "GetText range_error", "error" );

  0005a	8b 0d ac 02 00
	00		 mov	 ecx, DWORD PTR ?prj@@3VCProject@@A+684
  00060	81 f9 d6 0b 00
	00		 cmp	 ecx, 3030		; 00000bd6H
  00066	7f 21		 jg	 SHORT $LN37@MoveProces

; 579  : 	LPCTSTR szErr = Error( _T( "%s min:%d, max:%d, index:%d" ), szMsg, nMin, nMax, nIndex ); 

  00068	68 d6 0b 00 00	 push	 3030			; 00000bd6H
  0006d	51		 push	 ecx
  0006e	6a 00		 push	 0
  00070	68 00 00 00 00	 push	 OFFSET ??_C@_0BE@OHDBLHOM@GetText?5range_error@
  00075	68 00 00 00 00	 push	 OFFSET ??_C@_0BM@HMFGHCP@?$CFs?5min?3?$CFd?0?5max?3?$CFd?0?5index?3?$CFd@
  0007a	e8 00 00 00 00	 call	 ?Error@@YAPBDPBDZZ	; Error
  0007f	83 c4 14	 add	 esp, 20			; 00000014H

; 1427 : 	VERIFY_RANGE( (int)( dwIndex ), 0, m_colorText.GetSize(), "GetText range_error", "error" );

  00082	b9 00 00 00 00	 mov	 ecx, OFFSET ??_C@_05KKCIMGE@error@
  00087	eb 1b		 jmp	 SHORT $LN36@MoveProces
$LN37@MoveProces:
; File C:\IAGOS\server\v18\Source\Source\_Common\data.h

; 270  : 	if( dwIndex >= (DWORD)m_nMaxIndex )

  00089	76 14		 jbe	 SHORT $LN102@MoveProces

; 271  : 		return NULL;
; 272  : 	return (T*) m_apOffset[ dwIndex ];

  0008b	a1 9c 02 00 00	 mov	 eax, DWORD PTR ?prj@@3VCProject@@A+668
  00090	8b 88 58 2f 00
	00		 mov	 ecx, DWORD PTR [eax+12120]
; File C:\IAGOS\server\v18\Source\Source\_Common\Project.h

; 1428 : 	if( m_colorText.GetAt( dwIndex ) == NULL )

  00096	85 c9		 test	 ecx, ecx
  00098	74 05		 je	 SHORT $LN102@MoveProces

; 1430 : 	return m_colorText.GetAt( dwIndex )->lpszData; 

  0009a	8b 49 04	 mov	 ecx, DWORD PTR [ecx+4]
  0009d	eb 05		 jmp	 SHORT $LN36@MoveProces
$LN102@MoveProces:

; 1429 : 		return "";

  0009f	b9 00 00 00 00	 mov	 ecx, OFFSET ??_C@_00CNPNBAHC@@
$LN36@MoveProces:
; File C:\IAGOS\server\v18\Source\Source\_AIInterface\AIBear.cpp

; 348  : 			g_DPCoreClient.SendCaption( prj.GetText(TID_GAME_BOSS_MUSHMOOT_MSG_01), pTarget->GetWorld()->GetID() );	

  000a4	8b 45 fc	 mov	 eax, DWORD PTR _pTarget$1$[ebp]
  000a7	6a 00		 push	 0
  000a9	8b 80 6c 01 00
	00		 mov	 eax, DWORD PTR [eax+364]
  000af	ff 30		 push	 DWORD PTR [eax]
  000b1	51		 push	 ecx
  000b2	b9 00 00 00 00	 mov	 ecx, OFFSET ?g_DPCoreClient@@3VCDPCoreClient@@A ; g_DPCoreClient
  000b7	e8 00 00 00 00	 call	 ?SendCaption@CDPCoreClient@@QAEXPBDKH@Z ; CDPCoreClient::SendCaption
; File C:\IAGOS\server\v18\Source\Source\_Common\Obj.h

; 215  : 	D3DXVECTOR3		GetPos()	{ return m_vPos; }

  000bc	8b 4d fc	 mov	 ecx, DWORD PTR _pTarget$1$[ebp]
  000bf	f3 0f 7e 81 60
	01 00 00	 movq	 xmm0, QWORD PTR [ecx+352]
  000c7	8b 81 68 01 00
	00		 mov	 eax, DWORD PTR [ecx+360]
  000cd	66 0f d6 45 dc	 movq	 QWORD PTR _vPos$2[ebp], xmm0
; File C:\IAGOS\server\v18\Source\Source\_Common\XUtil3D.h

; 39   : 	fAngXZ = D3DXToRadian(fAngXZ);

  000d2	f3 0f 10 41 18	 movss	 xmm0, DWORD PTR [ecx+24]
  000d7	f3 0f 59 05 00
	00 00 00	 mulss	 xmm0, DWORD PTR __real@3c8efa35
; File C:\IAGOS\server\v18\Source\Source\_Common\Obj.h

; 215  : 	D3DXVECTOR3		GetPos()	{ return m_vPos; }

  000df	89 45 e4	 mov	 DWORD PTR _vPos$2[ebp+8], eax
; File C:\Program Files (x86)\Windows Kits\10\Include\10.0.26100.0\ucrt\corecrt_math.h

; 789  :             return (float)sin(_X);

  000e2	0f 5a c0	 cvtps2pd xmm0, xmm0
  000e5	f2 0f 11 45 e8	 movsd	 QWORD PTR tv1021[ebp], xmm0
  000ea	e8 00 00 00 00	 call	 __libm_sse2_sin_precise
  000ef	f2 0f 5a c0	 cvtsd2ss xmm0, xmm0
  000f3	0f 11 45 c0	 movups	 XMMWORD PTR tv1068[ebp], xmm0

; 683  :             return (float)cos(_X);

  000f7	f2 0f 10 45 e8	 movsd	 xmm0, QWORD PTR tv1021[ebp]
  000fc	e8 00 00 00 00	 call	 __libm_sse2_cos_precise
; File C:\IAGOS\server\v18\Source\Source\_Common\XUtil3D.h

; 40   : 	vDelta->x = sinf(fAngXZ) * fSpeed;

  00101	0f 10 55 c0	 movups	 xmm2, XMMWORD PTR tv1068[ebp]
; File C:\IAGOS\server\v18\Source\Source\_AIInterface\AIBear.cpp

; 356  : 			SummonMonster( MI_SMALL_MUSHPOIE, vPos );

  00105	83 ec 0c	 sub	 esp, 12			; 0000000cH
; File C:\Program Files (x86)\Windows Kits\10\Include\10.0.26100.0\ucrt\corecrt_math.h

; 683  :             return (float)cos(_X);

  00108	0f 57 c9	 xorps	 xmm1, xmm1
  0010b	0f 57 db	 xorps	 xmm3, xmm3
  0010e	f2 0f 5a c8	 cvtsd2ss xmm1, xmm0
; File C:\IAGOS\server\v18\Source\Source\_AIInterface\AIBear.cpp

; 356  : 			SummonMonster( MI_SMALL_MUSHPOIE, vPos );

  00112	8b cc		 mov	 ecx, esp
  00114	68 a8 00 00 00	 push	 168			; 000000a8H
; File C:\IAGOS\server\v18\Source\Source\DX_SDK\d3dx9math.inl

; 324  :     x += v.x;

  00119	f3 0f 10 45 e0	 movss	 xmm0, DWORD PTR _vPos$2[ebp+4]
; File C:\IAGOS\server\v18\Source\Source\_Common\XUtil3D.h

; 40   : 	vDelta->x = sinf(fAngXZ) * fSpeed;

  0011e	f3 0f 58 d2	 addss	 xmm2, xmm2

; 41   : 	vDelta->z = -cosf(fAngXZ) * fSpeed;

  00122	0f 57 0d 00 00
	00 00		 xorps	 xmm1, DWORD PTR __xmm@80000000800000008000000080000000
; File C:\IAGOS\server\v18\Source\Source\DX_SDK\d3dx9math.inl

; 324  :     x += v.x;

  00129	f3 0f 58 c3	 addss	 xmm0, xmm3
; File C:\IAGOS\server\v18\Source\Source\_Common\XUtil3D.h

; 41   : 	vDelta->z = -cosf(fAngXZ) * fSpeed;

  0012d	f3 0f 58 c9	 addss	 xmm1, xmm1

; 42   : 	vDelta->y = 0;

  00131	f3 0f 58 55 dc	 addss	 xmm2, DWORD PTR _vPos$2[ebp]
; File C:\IAGOS\server\v18\Source\Source\DX_SDK\d3dx9math.inl

; 325  :     y += v.y;

  00136	f3 0f 58 4d e4	 addss	 xmm1, DWORD PTR _vPos$2[ebp+8]
; File C:\IAGOS\server\v18\Source\Source\_AIInterface\AIBear.cpp

; 356  : 			SummonMonster( MI_SMALL_MUSHPOIE, vPos );

  0013b	0f 14 d0	 unpcklps xmm2, xmm0
  0013e	66 0f d6 11	 movq	 QWORD PTR [ecx], xmm2
; File C:\IAGOS\server\v18\Source\Source\DX_SDK\d3dx9math.inl

; 326  :     z += v.z;

  00142	f3 0f 11 4d e4	 movss	 DWORD PTR _vPos$2[ebp+8], xmm1
; File C:\IAGOS\server\v18\Source\Source\_AIInterface\AIBear.cpp

; 356  : 			SummonMonster( MI_SMALL_MUSHPOIE, vPos );

  00147	8b 45 e4	 mov	 eax, DWORD PTR _vPos$2[ebp+8]
  0014a	89 41 08	 mov	 DWORD PTR [ecx+8], eax
  0014d	8b cf		 mov	 ecx, edi
  0014f	e8 00 00 00 00	 call	 ?SummonMonster@CAIBear@@QAEXKUD3DXVECTOR3@@@Z ; CAIBear::SummonMonster

; 358  : 			vPos = pTarget->GetPos();

  00154	8b 4d fc	 mov	 ecx, DWORD PTR _pTarget$1$[ebp]
  00157	f3 0f 7e 81 60
	01 00 00	 movq	 xmm0, QWORD PTR [ecx+352]
  0015f	8b 81 68 01 00
	00		 mov	 eax, DWORD PTR [ecx+360]
  00165	66 0f d6 45 dc	 movq	 QWORD PTR _vPos$2[ebp], xmm0
; File C:\IAGOS\server\v18\Source\Source\_Common\XUtil3D.h

; 39   : 	fAngXZ = D3DXToRadian(fAngXZ);

  0016a	f3 0f 10 41 18	 movss	 xmm0, DWORD PTR [ecx+24]
  0016f	f3 0f 59 05 00
	00 00 00	 mulss	 xmm0, DWORD PTR __real@3c8efa35
; File C:\IAGOS\server\v18\Source\Source\_AIInterface\AIBear.cpp

; 358  : 			vPos = pTarget->GetPos();

  00177	89 45 e4	 mov	 DWORD PTR _vPos$2[ebp+8], eax
; File C:\Program Files (x86)\Windows Kits\10\Include\10.0.26100.0\ucrt\corecrt_math.h

; 789  :             return (float)sin(_X);

  0017a	0f 5a c0	 cvtps2pd xmm0, xmm0
  0017d	f2 0f 11 45 e8	 movsd	 QWORD PTR tv1020[ebp], xmm0
  00182	e8 00 00 00 00	 call	 __libm_sse2_sin_precise
  00187	0f 57 c9	 xorps	 xmm1, xmm1
  0018a	f2 0f 5a c8	 cvtsd2ss xmm1, xmm0
; File C:\IAGOS\server\v18\Source\Source\_Common\XUtil3D.h

; 42   : 	vDelta->y = 0;

  0018e	f3 0f 10 45 dc	 movss	 xmm0, DWORD PTR _vPos$2[ebp]
  00193	f3 0f 59 0d 00
	00 00 00	 mulss	 xmm1, DWORD PTR __real@40000000
  0019b	f3 0f 5c c1	 subss	 xmm0, xmm1
  0019f	0f 57 c9	 xorps	 xmm1, xmm1
  001a2	0f 29 45 c0	 movaps	 XMMWORD PTR tv1065[ebp], xmm0
; File C:\IAGOS\server\v18\Source\Source\DX_SDK\d3dx9math.inl

; 324  :     x += v.x;

  001a6	f3 0f 10 45 e0	 movss	 xmm0, DWORD PTR _vPos$2[ebp+4]
  001ab	f3 0f 58 c1	 addss	 xmm0, xmm1
  001af	f3 0f 11 45 fc	 movss	 DWORD PTR _vPos$4$[ebp], xmm0
; File C:\Program Files (x86)\Windows Kits\10\Include\10.0.26100.0\ucrt\corecrt_math.h

; 683  :             return (float)cos(_X);

  001b4	f2 0f 10 45 e8	 movsd	 xmm0, QWORD PTR tv1020[ebp]
  001b9	e8 00 00 00 00	 call	 __libm_sse2_cos_precise
  001be	0f 57 c9	 xorps	 xmm1, xmm1
; File C:\IAGOS\server\v18\Source\Source\_AIInterface\AIBear.cpp

; 362  : 			SummonMonster( MI_SMALL_MUSHPOIE, vPos );	

  001c1	83 ec 0c	 sub	 esp, 12			; 0000000cH
; File C:\Program Files (x86)\Windows Kits\10\Include\10.0.26100.0\ucrt\corecrt_math.h

; 683  :             return (float)cos(_X);

  001c4	f2 0f 5a c8	 cvtsd2ss xmm1, xmm0
; File C:\IAGOS\server\v18\Source\Source\_AIInterface\AIBear.cpp

; 362  : 			SummonMonster( MI_SMALL_MUSHPOIE, vPos );	

  001c8	8b cc		 mov	 ecx, esp
  001ca	68 a8 00 00 00	 push	 168			; 000000a8H
; File C:\IAGOS\server\v18\Source\Source\DX_SDK\d3dx9math.inl

; 325  :     y += v.y;

  001cf	f3 0f 10 45 e4	 movss	 xmm0, DWORD PTR _vPos$2[ebp+8]
; File C:\IAGOS\server\v18\Source\Source\_Common\XUtil3D.h

; 41   : 	vDelta->z = -cosf(fAngXZ) * fSpeed;

  001d4	f3 0f 59 0d 00
	00 00 00	 mulss	 xmm1, DWORD PTR __real@c0000000
; File C:\IAGOS\server\v18\Source\Source\DX_SDK\d3dx9math.inl

; 325  :     y += v.y;

  001dc	f3 0f 5c c1	 subss	 xmm0, xmm1
; File C:\IAGOS\server\v18\Source\Source\_AIInterface\AIBear.cpp

; 362  : 			SummonMonster( MI_SMALL_MUSHPOIE, vPos );	

  001e0	0f 28 4d c0	 movaps	 xmm1, XMMWORD PTR tv1065[ebp]
; File C:\IAGOS\server\v18\Source\Source\DX_SDK\d3dx9math.inl

; 326  :     z += v.z;

  001e4	f3 0f 11 45 e4	 movss	 DWORD PTR _vPos$2[ebp+8], xmm0
; File C:\IAGOS\server\v18\Source\Source\_AIInterface\AIBear.cpp

; 362  : 			SummonMonster( MI_SMALL_MUSHPOIE, vPos );	

  001e9	f3 0f 10 45 fc	 movss	 xmm0, DWORD PTR _vPos$4$[ebp]
  001ee	8b 45 e4	 mov	 eax, DWORD PTR _vPos$2[ebp+8]
  001f1	0f 14 c8	 unpcklps xmm1, xmm0
  001f4	66 0f d6 09	 movq	 QWORD PTR [ecx], xmm1
  001f8	89 41 08	 mov	 DWORD PTR [ecx+8], eax
  001fb	8b cf		 mov	 ecx, edi
  001fd	e8 00 00 00 00	 call	 ?SummonMonster@CAIBear@@QAEXKUD3DXVECTOR3@@@Z ; CAIBear::SummonMonster
$LN107@MoveProces:

; 363  : 		}
; 364  : 	}
; 365  : 
; 366  : 	if( m_nEvent == EPT_READY )

  00202	8b 4d f8	 mov	 ecx, DWORD PTR _pModel$1$[ebp]
$LN3@MoveProces:
  00205	8b 47 78	 mov	 eax, DWORD PTR [edi+120]
  00208	85 c0		 test	 eax, eax
  0020a	75 79		 jne	 SHORT $LN4@MoveProces

; 368  : 		if( pMover->m_pActMover->m_bGround == 1 && pMover->m_pActMover->GetActionState() != OBJSTA_APPEAR )		// 바닥에 떨어지면..

  0020c	8b 8e 38 02 00
	00		 mov	 ecx, DWORD PTR [esi+568]
  00212	83 79 44 01	 cmp	 DWORD PTR [ecx+68], 1
  00216	75 24		 jne	 SHORT $LN77@MoveProces
; File C:\IAGOS\server\v18\Source\Source\_AIInterface\Action.h

; 305  : 	DWORD			GetActionState() { return m_dwState & OBJSTA_ACTION_ALL; }

  00218	8b 41 04	 mov	 eax, DWORD PTR [ecx+4]
  0021b	25 00 00 00 f0	 and	 eax, -268435456		; f0000000H
; File C:\IAGOS\server\v18\Source\Source\_AIInterface\AIBear.cpp

; 368  : 		if( pMover->m_pActMover->m_bGround == 1 && pMover->m_pActMover->GetActionState() != OBJSTA_APPEAR )		// 바닥에 떨어지면..

  00220	3d 00 00 00 20	 cmp	 eax, 536870912		; 20000000H
  00225	74 15		 je	 SHORT $LN77@MoveProces
; File C:\IAGOS\server\v18\Source\Source\_Common\Mover.h

; 1785 : 	if( m_pActMover )	

  00227	85 c9		 test	 ecx, ecx
  00229	74 11		 je	 SHORT $LN77@MoveProces

; 1786 : 		return m_pActMover->SendActMsg( dwMsg, nParam1, nParam2, nParam3, nParam4 );	

  0022b	8b 01		 mov	 eax, DWORD PTR [ecx]
  0022d	6a 00		 push	 0
  0022f	6a 00		 push	 0
  00231	6a 00		 push	 0
  00233	6a 00		 push	 0
  00235	6a 00		 push	 0
  00237	6a 0e		 push	 14			; 0000000eH
  00239	ff 50 04	 call	 DWORD PTR [eax+4]
$LN77@MoveProces:
; File C:\IAGOS\server\v18\Source\Source\_AIInterface\AIBear.cpp

; 370  : 		if( ++m_nAppearCnt >= PROCESS_COUNT * 5 )		// 

  0023c	8b 87 a0 00 00
	00		 mov	 eax, DWORD PTR [edi+160]
  00242	40		 inc	 eax
  00243	89 87 a0 00 00
	00		 mov	 DWORD PTR [edi+160], eax
  00249	83 f8 4b	 cmp	 eax, 75			; 0000004bH
  0024c	7c 29		 jl	 SHORT $LN17@MoveProces

; 371  : 		{
; 372  : 			PostAIMsg( AIMSG_END_APPEAR );		// 등장씬 애니메이션이 끝났음을 알림.

  0024e	8b 07		 mov	 eax, DWORD PTR [edi]
  00250	8b cf		 mov	 ecx, edi
  00252	6a 00		 push	 0
  00254	6a 00		 push	 0
  00256	6a 00		 push	 0
  00258	6a 10		 push	 16			; 00000010H
  0025a	ff 50 10	 call	 DWORD PTR [eax+16]

; 373  : 			pMover->m_pActMover->ResetState( OBJSTA_ACTION_ALL );

  0025d	8b 8e 38 02 00
	00		 mov	 ecx, DWORD PTR [esi+568]
  00263	68 00 00 00 f0	 push	 -268435456		; f0000000H
  00268	e8 00 00 00 00	 call	 ?ResetState@CAction@@QAEXK@Z ; CAction::ResetState

; 374  : 			m_nAppearCnt = 0;

  0026d	c7 87 a0 00 00
	00 00 00 00 00	 mov	 DWORD PTR [edi+160], 0
$LN17@MoveProces:

; 488  : 
; 489  : #ifdef __INTERNALSERVER
; 490  : 			{
; 491  : 				CString strType;
; 492  : 				switch( m_nAttackType )
; 493  : 				{
; 494  : 				case CAT_NORMAL:		strType = "기본";	break;
; 495  : 				case CAT_LOOT:		strType = "두손내려침-광역";	break;
; 496  : 				case CAT_BUFFTIME:		strType = "한손 내려침";	break;
; 497  : 				}
; 498  : 				CString str;
; 499  : 				str.Format( "AtkType:%s Dist:%5.2f", strType, sqrt(fDistSq) );
; 500  : 				DEBUGOUT2( str, "boss(CAIBear).txt" );
; 501  : 			}
; 502  : #endif							
; 503  : 		} else	// 리어택 타이밍에 공격.
; 504  : 		{
; 505  : 			// 공격하기 적절한 위치로 이동하자.
; 506  : 		}
; 507  : 	}
; 508  : 
; 509  : 	return TRUE;

  00277	b8 01 00 00 00	 mov	 eax, 1

; 510  : }

  0027c	5f		 pop	 edi
  0027d	5e		 pop	 esi
  0027e	8b e5		 mov	 esp, ebp
  00280	5d		 pop	 ebp
  00281	8b e3		 mov	 esp, ebx
  00283	5b		 pop	 ebx
  00284	c3		 ret	 0
$LN4@MoveProces:

; 375  : 		}
; 376  : 		// 아무것도 안함.
; 377  : 	} else
; 378  : 	// 공격중 애니.
; 379  : 	if( m_nEvent == EPT_ATTACKING )

  00285	83 f8 02	 cmp	 eax, 2
  00288	75 71		 jne	 SHORT $LN8@MoveProces

; 380  : 	{
; 381  : 		BOOL bEnd = FALSE;
; 382  : 
; 383  : 		if( pMover->m_dwMotion == MTI_STAND || pModel->IsEndFrame()	)

  0028a	83 be d8 02 00
	00 00		 cmp	 DWORD PTR [esi+728], 0
  00291	c7 45 f8 00 00
	00 00		 mov	 DWORD PTR _bEnd$1$[ebp], 0
  00298	74 09		 je	 SHORT $LN11@MoveProces
  0029a	83 b9 9c 00 00
	00 00		 cmp	 DWORD PTR [ecx+156], 0
  002a1	74 07		 je	 SHORT $LN10@MoveProces
$LN11@MoveProces:

; 384  : 		{
; 385  : 			bEnd = TRUE;		// 공격 프레임 끝났는가. - 여기다 이걸 안넣어도 되는데 만약 공격동작의 끝을 놓치는 일이 생길때를 대비해서 넣어두면 조타.

  002a3	c7 45 f8 01 00
	00 00		 mov	 DWORD PTR _bEnd$1$[ebp], 1
$LN10@MoveProces:

; 386  : 		}
; 387  : 		if( timeGetTime() >= m_tmTimeOver + SEC(15) )				// 공격시작한지 10초이상오버됐으면 걍 끝남.

  002aa	8b b7 8c 00 00
	00		 mov	 esi, DWORD PTR [edi+140]
  002b0	81 c6 98 3a 00
	00		 add	 esi, 15000		; 00003a98H
  002b6	ff 15 00 00 00
	00		 call	 DWORD PTR __imp__timeGetTime@0
  002bc	3b c6		 cmp	 eax, esi
  002be	73 06		 jae	 SHORT $LN104@MoveProces

; 388  : 			bEnd = TRUE;
; 389  : 		if( bEnd )

  002c0	83 7d f8 00	 cmp	 DWORD PTR _bEnd$1$[ebp], 0
  002c4	74 b1		 je	 SHORT $LN17@MoveProces
$LN104@MoveProces:

; 390  : 		{
; 391  : 			m_nEvent = EPT_MOVING;				// 이동상태로 전환.

  002c6	c7 47 78 01 00
	00 00		 mov	 DWORD PTR [edi+120], 1

; 392  : 			m_tmReattack = timeGetTime();		// 리어택 타임 리셋;

  002cd	ff 15 00 00 00
	00		 call	 DWORD PTR __imp__timeGetTime@0
  002d3	89 87 80 00 00
	00		 mov	 DWORD PTR [edi+128], eax

; 488  : 
; 489  : #ifdef __INTERNALSERVER
; 490  : 			{
; 491  : 				CString strType;
; 492  : 				switch( m_nAttackType )
; 493  : 				{
; 494  : 				case CAT_NORMAL:		strType = "기본";	break;
; 495  : 				case CAT_LOOT:		strType = "두손내려침-광역";	break;
; 496  : 				case CAT_BUFFTIME:		strType = "한손 내려침";	break;
; 497  : 				}
; 498  : 				CString str;
; 499  : 				str.Format( "AtkType:%s Dist:%5.2f", strType, sqrt(fDistSq) );
; 500  : 				DEBUGOUT2( str, "boss(CAIBear).txt" );
; 501  : 			}
; 502  : #endif							
; 503  : 		} else	// 리어택 타이밍에 공격.
; 504  : 		{
; 505  : 			// 공격하기 적절한 위치로 이동하자.
; 506  : 		}
; 507  : 	}
; 508  : 
; 509  : 	return TRUE;

  002d9	b8 01 00 00 00	 mov	 eax, 1
  002de	c7 87 84 00 00
	00 d0 07 00 00	 mov	 DWORD PTR [edi+132], 2000 ; 000007d0H
  002e8	c7 87 90 00 00
	00 ff ff ff ff	 mov	 DWORD PTR [edi+144], -1

; 510  : }

  002f2	5f		 pop	 edi
  002f3	5e		 pop	 esi
  002f4	8b e5		 mov	 esp, ebp
  002f6	5d		 pop	 ebp
  002f7	8b e3		 mov	 esp, ebx
  002f9	5b		 pop	 ebx
  002fa	c3		 ret	 0
$LN8@MoveProces:

; 393  : 			m_tmAddReattack = 2000; // xRandom( 2000 );	// x초 범위내에서 리어택이 단축될 수 있다.
; 394  : 			m_idTarget = NULL_ID;				// 타겟을 클리어.
; 395  : 		} 
; 396  : 	} else
; 397  : 	// 공격을 위해 추격중.
; 398  : 	if( m_nEvent == EPT_TRACKING )

  002fb	83 f8 03	 cmp	 eax, 3
  002fe	75 57		 jne	 SHORT $LN14@MoveProces

; 399  : 	{
; 400  : 		if( timeGetTime() >= m_tmTrace + 3000 )		// 추적을 시작한지 3초가 지나면 추적을 포기

  00300	8b b7 88 00 00
	00		 mov	 esi, DWORD PTR [edi+136]
  00306	81 c6 b8 0b 00
	00		 add	 esi, 3000		; 00000bb8H
  0030c	ff 15 00 00 00
	00		 call	 DWORD PTR __imp__timeGetTime@0
  00312	3b c6		 cmp	 eax, esi
  00314	0f 82 5d ff ff
	ff		 jb	 $LN17@MoveProces

; 401  : 		{
; 402  : 			m_nEvent = EPT_MOVING;

  0031a	c7 47 78 01 00
	00 00		 mov	 DWORD PTR [edi+120], 1

; 488  : 
; 489  : #ifdef __INTERNALSERVER
; 490  : 			{
; 491  : 				CString strType;
; 492  : 				switch( m_nAttackType )
; 493  : 				{
; 494  : 				case CAT_NORMAL:		strType = "기본";	break;
; 495  : 				case CAT_LOOT:		strType = "두손내려침-광역";	break;
; 496  : 				case CAT_BUFFTIME:		strType = "한손 내려침";	break;
; 497  : 				}
; 498  : 				CString str;
; 499  : 				str.Format( "AtkType:%s Dist:%5.2f", strType, sqrt(fDistSq) );
; 500  : 				DEBUGOUT2( str, "boss(CAIBear).txt" );
; 501  : 			}
; 502  : #endif							
; 503  : 		} else	// 리어택 타이밍에 공격.
; 504  : 		{
; 505  : 			// 공격하기 적절한 위치로 이동하자.
; 506  : 		}
; 507  : 	}
; 508  : 
; 509  : 	return TRUE;

  00321	b8 01 00 00 00	 mov	 eax, 1
  00326	c7 87 90 00 00
	00 00 00 00 00	 mov	 DWORD PTR [edi+144], 0
  00330	c7 87 9c 00 00
	00 00 00 00 00	 mov	 DWORD PTR [edi+156], 0
  0033a	c7 87 98 00 00
	00 00 00 00 00	 mov	 DWORD PTR [edi+152], 0
  00344	c7 87 94 00 00
	00 00 00 00 00	 mov	 DWORD PTR [edi+148], 0

; 510  : }

  0034e	5f		 pop	 edi
  0034f	5e		 pop	 esi
  00350	8b e5		 mov	 esp, ebp
  00352	5d		 pop	 ebp
  00353	8b e3		 mov	 esp, ebx
  00355	5b		 pop	 ebx
  00356	c3		 ret	 0
$LN14@MoveProces:

; 403  : 			m_idTarget = NULL;			// 여기서 이걸 클리어 해줘야 아래에서 SelectTarget()을 다시 한다 .
; 404  : 			m_vTarget.x = m_vTarget.y = m_vTarget.z = 0;
; 405  : 		}
; 406  : 	} else	
; 407  : 	//------------- 공격중이 아님. --------------------
; 408  : 	{
; 409  : 
; 410  : 		if( timeGetTime() >= m_tmReattack + (2000 - m_tmAddReattack) )		// 리어택 시간이 됐는가?  기본적으로 5초간격에 AddReattack으로 줄어들 수 있음.

  00357	8b b7 80 00 00
	00		 mov	 esi, DWORD PTR [edi+128]
  0035d	2b b7 84 00 00
	00		 sub	 esi, DWORD PTR [edi+132]
  00363	81 c6 d0 07 00
	00		 add	 esi, 2000		; 000007d0H
  00369	ff 15 00 00 00
	00		 call	 DWORD PTR __imp__timeGetTime@0
  0036f	3b c6		 cmp	 eax, esi
  00371	0f 82 00 ff ff
	ff		 jb	 $LN17@MoveProces

; 411  : 		{
; 412  : 			FLOAT fRadius = pMover->GetRadiusXZ();		// this의 반지름

  00377	8b 75 f4	 mov	 esi, DWORD PTR _pMover$1$[ebp]
  0037a	8b ce		 mov	 ecx, esi
  0037c	e8 00 00 00 00	 call	 ?GetRadiusXZ@CObj@@QAEMXZ ; CObj::GetRadiusXZ

; 413  : 			FLOAT fRadiusSq = fRadius * fRadius;		// 반지름Sq버전.
; 414  : 			
; 415  : 			if( m_idTarget == NULL_ID &&										// 공격대상이 정해지지 않았고

  00381	83 bf 90 00 00
	00 ff		 cmp	 DWORD PTR [edi+144], -1
  00388	d9 5d f4	 fstp	 DWORD PTR _fRadius$4[ebp]
  0038b	f3 0f 10 45 f4	 movss	 xmm0, DWORD PTR _fRadius$4[ebp]
  00390	0f 28 c8	 movaps	 xmm1, xmm0
  00393	f3 0f 11 45 fc	 movss	 DWORD PTR _fArrivalRange$1$[ebp], xmm0
  00398	f3 0f 59 c8	 mulss	 xmm1, xmm0
  0039c	f3 0f 11 4d ec	 movss	 DWORD PTR _fRadiusSq$1$[ebp], xmm1
  003a1	0f 57 c9	 xorps	 xmm1, xmm1
  003a4	75 45		 jne	 SHORT $LN20@MoveProces
  003a6	f3 0f 10 87 94
	00 00 00	 movss	 xmm0, DWORD PTR [edi+148]
  003ae	0f 2e c1	 ucomiss xmm0, xmm1
  003b1	9f		 lahf
  003b2	f6 c4 44	 test	 ah, 68			; 00000044H
  003b5	7a 34		 jp	 SHORT $LN20@MoveProces
  003b7	f3 0f 10 87 98
	00 00 00	 movss	 xmm0, DWORD PTR [edi+152]
  003bf	0f 2e c1	 ucomiss xmm0, xmm1
  003c2	9f		 lahf
  003c3	f6 c4 44	 test	 ah, 68			; 00000044H
  003c6	7a 23		 jp	 SHORT $LN20@MoveProces
  003c8	f3 0f 10 87 9c
	00 00 00	 movss	 xmm0, DWORD PTR [edi+156]
  003d0	0f 2e c1	 ucomiss xmm0, xmm1
  003d3	9f		 lahf
  003d4	f6 c4 44	 test	 ah, 68			; 00000044H
  003d7	7a 12		 jp	 SHORT $LN20@MoveProces

; 416  : 				(m_vTarget.x == 0 && m_vTarget.y == 0 && m_vTarget.z == 0) )	// 공격위치도 정해지지 않았다.
; 417  : 			{
; 418  : 				// 어떤 쉐리를 공격할까....? 를 선정함.
; 419  : 				if( SelectTarget() == FALSE )

  003d9	8b cf		 mov	 ecx, edi
  003db	e8 00 00 00 00	 call	 ?SelectTarget@CAIBear@@AAEHXZ ; CAIBear::SelectTarget
  003e0	85 c0		 test	 eax, eax
  003e2	0f 84 da 01 00
	00		 je	 $LN25@MoveProces
  003e8	0f 57 c9	 xorps	 xmm1, xmm1
$LN20@MoveProces:

; 420  : 					return FALSE;
; 421  : 			}
; 422  : 
; 423  : 			D3DXVECTOR3	vTarget;
; 424  : 			FLOAT	fDistSq = 0;					// 공격지점과 this의 거리.
; 425  : 			CMover *pTarget = NULL;
; 426  : 			if( m_idTarget != NULL_ID )		// 타겟오브젝이 있을때

  003eb	8b 87 90 00 00
	00		 mov	 eax, DWORD PTR [edi+144]
  003f1	83 f8 ff	 cmp	 eax, -1
  003f4	74 2d		 je	 SHORT $LN21@MoveProces

; 427  : 			{
; 428  : 				pTarget = prj.GetMover( m_idTarget );

  003f6	50		 push	 eax
  003f7	b9 00 00 00 00	 mov	 ecx, OFFSET ?prj@@3VCProject@@A ; prj
  003fc	e8 00 00 00 00	 call	 ?GetMover@CProject@@QAEPAVCMover@@K@Z ; CProject::GetMover
; File C:\IAGOS\server\v18\Source\Source\_Common\Obj.h

; 327  : 	return pObj && ( pObj->IsDelete() == FALSE ); 

  00401	85 c0		 test	 eax, eax
  00403	0f 84 af 01 00
	00		 je	 $LN27@MoveProces

; 180  : 	BOOL			IsDelete()	{ return (m_dwFlags & OBJ_FLAG_DELETE);  }

  00409	f6 40 04 01	 test	 BYTE PTR [eax+4], 1

; 327  : 	return pObj && ( pObj->IsDelete() == FALSE ); 

  0040d	0f 85 a5 01 00
	00		 jne	 $LN27@MoveProces
; File C:\IAGOS\server\v18\Source\Source\_AIInterface\AIBear.cpp

; 430  : 					vTarget = pTarget->GetPos();		// 공격좌표는 타겟무버의 좌표

  00413	f3 0f 7e 80 60
	01 00 00	 movq	 xmm0, QWORD PTR [eax+352]
  0041b	8b 80 68 01 00
	00		 mov	 eax, DWORD PTR [eax+360]

; 431  : 				else
; 432  : 				{
; 433  : 					m_idTarget = NULL_ID;
; 434  : 					return FALSE;		// 타겟이 거시기 하면 걍리턴.
; 435  : 				}
; 436  : 			} else

  00421	eb 4d		 jmp	 SHORT $LN108@MoveProces
$LN21@MoveProces:

; 437  : 			if( m_vTarget.x && m_vTarget.y && m_vTarget.z )		// 공격 좌표로 설정되어 있을때.

  00423	f3 0f 10 87 94
	00 00 00	 movss	 xmm0, DWORD PTR [edi+148]
  0042b	0f 2e c1	 ucomiss xmm0, xmm1
  0042e	9f		 lahf
  0042f	f6 c4 44	 test	 ah, 68			; 00000044H
  00432	0f 8b 8a 01 00
	00		 jnp	 $LN25@MoveProces
  00438	f3 0f 10 87 98
	00 00 00	 movss	 xmm0, DWORD PTR [edi+152]
  00440	0f 2e c1	 ucomiss xmm0, xmm1
  00443	9f		 lahf
  00444	f6 c4 44	 test	 ah, 68			; 00000044H
  00447	0f 8b 75 01 00
	00		 jnp	 $LN25@MoveProces
  0044d	f3 0f 10 87 9c
	00 00 00	 movss	 xmm0, DWORD PTR [edi+156]
  00455	0f 2e c1	 ucomiss xmm0, xmm1
  00458	9f		 lahf
  00459	f6 c4 44	 test	 ah, 68			; 00000044H
  0045c	0f 8b 60 01 00
	00		 jnp	 $LN25@MoveProces

; 438  : 			{
; 439  : 				vTarget = m_vTarget;

  00462	f3 0f 7e 87 94
	00 00 00	 movq	 xmm0, QWORD PTR [edi+148]
  0046a	8b 87 9c 00 00
	00		 mov	 eax, DWORD PTR [edi+156]
$LN108@MoveProces:
; File C:\IAGOS\server\v18\Source\Source\_Common\Obj.h

; 215  : 	D3DXVECTOR3		GetPos()	{ return m_vPos; }

  00470	66 0f d6 45 dc	 movq	 QWORD PTR _vTarget$3[ebp], xmm0
; File C:\IAGOS\server\v18\Source\Source\_AIInterface\AIBear.cpp

; 450  : 			int ppp = pMover->GetHitPointPercent();

  00475	8b ce		 mov	 ecx, esi
; File C:\IAGOS\server\v18\Source\Source\_Common\Obj.h

; 215  : 	D3DXVECTOR3		GetPos()	{ return m_vPos; }

  00477	f3 0f 7e 86 60
	01 00 00	 movq	 xmm0, QWORD PTR [esi+352]
  0047f	66 0f d6 45 c4	 movq	 QWORD PTR $T1[ebp], xmm0
; File C:\IAGOS\server\v18\Source\Source\DX_SDK\d3dx9math.inl

; 383  :     return D3DXVECTOR3(x - v.x, y - v.y, z - v.z);

  00484	f3 0f 10 45 dc	 movss	 xmm0, DWORD PTR _vTarget$3[ebp]
  00489	f3 0f 5c 45 c4	 subss	 xmm0, DWORD PTR $T1[ebp]
; File C:\IAGOS\server\v18\Source\Source\_Common\Obj.h

; 215  : 	D3DXVECTOR3		GetPos()	{ return m_vPos; }

  0048e	89 45 e4	 mov	 DWORD PTR _vTarget$3[ebp+8], eax
  00491	8b 86 68 01 00
	00		 mov	 eax, DWORD PTR [esi+360]
  00497	89 45 cc	 mov	 DWORD PTR $T1[ebp+8], eax
; File C:\IAGOS\server\v18\Source\Source\_AIInterface\AIBear.cpp

; 450  : 			int ppp = pMover->GetHitPointPercent();

  0049a	6a 64		 push	 100			; 00000064H
; File C:\IAGOS\server\v18\Source\Source\DX_SDK\d3dx9math.inl

; 383  :     return D3DXVECTOR3(x - v.x, y - v.y, z - v.z);

  0049c	f3 0f 11 45 f8	 movss	 DWORD PTR tv1004[ebp], xmm0
  004a1	f3 0f 10 45 e0	 movss	 xmm0, DWORD PTR _vTarget$3[ebp+4]
  004a6	f3 0f 5c 45 c8	 subss	 xmm0, DWORD PTR $T1[ebp+4]
  004ab	f3 0f 11 45 f4	 movss	 DWORD PTR tv1006[ebp], xmm0
  004b0	f3 0f 10 45 e4	 movss	 xmm0, DWORD PTR _vTarget$3[ebp+8]
  004b5	f3 0f 5c 45 cc	 subss	 xmm0, DWORD PTR $T1[ebp+8]
  004ba	f3 0f 11 45 f0	 movss	 DWORD PTR tv1005[ebp], xmm0
; File C:\IAGOS\server\v18\Source\Source\_AIInterface\AIBear.cpp

; 450  : 			int ppp = pMover->GetHitPointPercent();

  004bf	e8 00 00 00 00	 call	 ?GetHitPointPercent@CMover@@QAEHH@Z ; CMover::GetHitPointPercent
; File C:\IAGOS\server\v18\Source\Source\DX_SDK\d3dx9math.inl

; 1698 :     return pV->x * pV->x + pV->y * pV->y + pV->z * pV->z;

  004c4	f3 0f 10 45 f8	 movss	 xmm0, DWORD PTR tv1004[ebp]
; File C:\IAGOS\server\v18\Source\Source\_AIInterface\AIBear.cpp

; 450  : 			int ppp = pMover->GetHitPointPercent();

  004c9	f3 0f 10 4d f4	 movss	 xmm1, DWORD PTR tv1006[ebp]
; File C:\IAGOS\server\v18\Source\Source\DX_SDK\d3dx9math.inl

; 1698 :     return pV->x * pV->x + pV->y * pV->y + pV->z * pV->z;

  004ce	f3 0f 59 c0	 mulss	 xmm0, xmm0
; File C:\IAGOS\server\v18\Source\Source\_AIInterface\AIBear.cpp

; 450  : 			int ppp = pMover->GetHitPointPercent();

  004d2	f3 0f 59 c9	 mulss	 xmm1, xmm1
; File C:\IAGOS\server\v18\Source\Source\DX_SDK\d3dx9math.inl

; 1698 :     return pV->x * pV->x + pV->y * pV->y + pV->z * pV->z;

  004d6	f3 0f 58 c8	 addss	 xmm1, xmm0
  004da	f3 0f 10 45 f0	 movss	 xmm0, DWORD PTR tv1005[ebp]
  004df	f3 0f 59 c0	 mulss	 xmm0, xmm0
  004e3	f3 0f 58 c8	 addss	 xmm1, xmm0
; File C:\IAGOS\server\v18\Source\Source\_AIInterface\AIBear.cpp

; 453  : 			if( fDistSq < fRadiusSq * 32.0f )		// 근거리면.

  004e7	f3 0f 10 45 ec	 movss	 xmm0, DWORD PTR _fRadiusSq$1$[ebp]
  004ec	f3 0f 59 05 00
	00 00 00	 mulss	 xmm0, DWORD PTR __real@42000000
  004f4	0f 2f c1	 comiss	 xmm0, xmm1
  004f7	0f 86 bb 00 00
	00		 jbe	 $LN27@MoveProces
; File C:\IAGOS\server\v18\Source\Source\_Common\xUtil.h

; 16   : 	g_next = g_next * 1103515245 + 12345;// + nRandomSeed[ i++ ];

  004fd	69 0d 00 00 00
	00 6d 4e c6 41	 imul	 ecx, DWORD PTR ?g_next@@3KA, 1103515245 ; g_next

; 22   : 	return  xRand() % num;

  00507	b8 1f 85 eb 51	 mov	 eax, 1374389535		; 51eb851fH

; 16   : 	g_next = g_next * 1103515245 + 12345;// + nRandomSeed[ i++ ];

  0050c	81 c1 39 30 00
	00		 add	 ecx, 12345		; 00003039H

; 22   : 	return  xRand() % num;

  00512	f7 e1		 mul	 ecx

; 16   : 	g_next = g_next * 1103515245 + 12345;// + nRandomSeed[ i++ ];

  00514	89 0d 00 00 00
	00		 mov	 DWORD PTR ?g_next@@3KA, ecx ; g_next

; 22   : 	return  xRand() % num;

  0051a	c1 ea 05	 shr	 edx, 5
  0051d	6b c2 64	 imul	 eax, edx, 100
  00520	2b c8		 sub	 ecx, eax
; File C:\IAGOS\server\v18\Source\Source\_AIInterface\AIBear.cpp

; 457  : 				if( dwRate > 85 )

  00522	83 f9 55	 cmp	 ecx, 85			; 00000055H
  00525	76 0f		 jbe	 SHORT $LN29@MoveProces

; 458  : 				{
; 459  : 					if( m_nAttackType != CAT_LOOT )

  00527	83 7f 7c 02	 cmp	 DWORD PTR [edi+124], 2
  0052b	74 1d		 je	 SHORT $LN30@MoveProces

; 460  : 					{
; 461  : 						m_nAttackType = CAT_LOOT;

  0052d	c7 47 7c 02 00
	00 00		 mov	 DWORD PTR [edi+124], 2

; 462  : 						fArrivalRange = 7.0f;		
; 463  : 					}
; 464  : 				}

  00534	eb 07		 jmp	 SHORT $LN109@MoveProces
$LN29@MoveProces:

; 465  : 				else
; 466  : 				{
; 467  : 					m_nAttackType = CAT_NORMAL;		// 앞발로 밟기.

  00536	c7 47 7c 01 00
	00 00		 mov	 DWORD PTR [edi+124], 1
$LN109@MoveProces:

; 478  : 			if( m_cTimeBuff.IsTimeOut() )

  0053d	f3 0f 10 05 00
	00 00 00	 movss	 xmm0, DWORD PTR __real@40e00000
  00545	f3 0f 11 45 fc	 movss	 DWORD PTR _fArrivalRange$1$[ebp], xmm0
$LN30@MoveProces:
; File C:\IAGOS\server\v18\Source\Source\_Common\Timer.h

; 28   : 	BOOL	IsTimeOut( void )	{	return Over();	}

  0054a	8b 47 38	 mov	 eax, DWORD PTR [edi+56]
; File C:\IAGOS\server\v18\Source\Source\_AIInterface\AIBear.cpp

; 478  : 			if( m_cTimeBuff.IsTimeOut() )

  0054d	8d 4f 38	 lea	 ecx, DWORD PTR [edi+56]
; File C:\IAGOS\server\v18\Source\Source\_Common\Timer.h

; 28   : 	BOOL	IsTimeOut( void )	{	return Over();	}

  00550	8b 40 08	 mov	 eax, DWORD PTR [eax+8]
  00553	ff d0		 call	 eax
; File C:\IAGOS\server\v18\Source\Source\_AIInterface\AIBear.cpp

; 478  : 			if( m_cTimeBuff.IsTimeOut() )

  00555	85 c0		 test	 eax, eax
  00557	74 26		 je	 SHORT $LN32@MoveProces

; 479  : 			{
; 480  : 				m_nAttackType = CAT_BUFFTIME;
; 481  : 				m_cTimeBuff.Set( SEC(30) );

  00559	6a 00		 push	 0
  0055b	51		 push	 ecx
  0055c	8d 4f 38	 lea	 ecx, DWORD PTR [edi+56]
  0055f	c7 47 7c 03 00
	00 00		 mov	 DWORD PTR [edi+124], 3
  00566	c7 04 24 00 60
	ea 46		 mov	 DWORD PTR [esp], 1189765120 ; 46ea6000H
  0056d	e8 00 00 00 00	 call	 ?Set@CTimer@@QAEXMH@Z	; CTimer::Set

; 482  : 				fArrivalRange = 10.0f;	

  00572	f3 0f 10 05 00
	00 00 00	 movss	 xmm0, DWORD PTR __real@41200000
  0057a	f3 0f 11 45 fc	 movss	 DWORD PTR _fArrivalRange$1$[ebp], xmm0
$LN32@MoveProces:

; 483  : 			}
; 484  : 				
; 485  : 			m_tmTrace = timeGetTime();		// 추적 시작한 시간.

  0057f	ff 15 00 00 00
	00		 call	 DWORD PTR __imp__timeGetTime@0

; 486  : 			m_nEvent = EPT_TRACKING;		// 공격추격상태 전환.
; 487  : 			pMover->CMD_SetMeleeAttack( m_idTarget, fArrivalRange );		// 공격반경은 this의 반지름 크기정도가 적당하다.

  00585	f3 0f 10 45 fc	 movss	 xmm0, DWORD PTR _fArrivalRange$1$[ebp]
  0058a	51		 push	 ecx
  0058b	f3 0f 11 04 24	 movss	 DWORD PTR [esp], xmm0
  00590	8b ce		 mov	 ecx, esi
  00592	ff b7 90 00 00
	00		 push	 DWORD PTR [edi+144]
  00598	89 87 88 00 00
	00		 mov	 DWORD PTR [edi+136], eax
  0059e	c7 47 78 03 00
	00 00		 mov	 DWORD PTR [edi+120], 3
  005a5	e8 00 00 00 00	 call	 ?CMD_SetMeleeAttack@CMover@@QAEXKM@Z ; CMover::CMD_SetMeleeAttack

; 488  : 
; 489  : #ifdef __INTERNALSERVER
; 490  : 			{
; 491  : 				CString strType;
; 492  : 				switch( m_nAttackType )
; 493  : 				{
; 494  : 				case CAT_NORMAL:		strType = "기본";	break;
; 495  : 				case CAT_LOOT:		strType = "두손내려침-광역";	break;
; 496  : 				case CAT_BUFFTIME:		strType = "한손 내려침";	break;
; 497  : 				}
; 498  : 				CString str;
; 499  : 				str.Format( "AtkType:%s Dist:%5.2f", strType, sqrt(fDistSq) );
; 500  : 				DEBUGOUT2( str, "boss(CAIBear).txt" );
; 501  : 			}
; 502  : #endif							
; 503  : 		} else	// 리어택 타이밍에 공격.
; 504  : 		{
; 505  : 			// 공격하기 적절한 위치로 이동하자.
; 506  : 		}
; 507  : 	}
; 508  : 
; 509  : 	return TRUE;

  005aa	b8 01 00 00 00	 mov	 eax, 1

; 510  : }

  005af	5f		 pop	 edi
  005b0	5e		 pop	 esi
  005b1	8b e5		 mov	 esp, ebp
  005b3	5d		 pop	 ebp
  005b4	8b e3		 mov	 esp, ebx
  005b6	5b		 pop	 ebx
  005b7	c3		 ret	 0
$LN27@MoveProces:

; 468  : 					fArrivalRange = 7.0f;				// 딱붙어서 밟아야 한다.
; 469  : 				}
; 470  : 			} 
; 471  : 			else
; 472  : 			{
; 473  : 				// 엄청 멀리 떨어져있는넘은 포기.
; 474  : 				m_idTarget = NULL_ID;

  005b8	c7 87 90 00 00
	00 ff ff ff ff	 mov	 DWORD PTR [edi+144], -1
$LN25@MoveProces:

; 510  : }

  005c2	5f		 pop	 edi
  005c3	33 c0		 xor	 eax, eax
  005c5	5e		 pop	 esi
  005c6	8b e5		 mov	 esp, ebp
  005c8	5d		 pop	 ebp
  005c9	8b e3		 mov	 esp, ebx
  005cb	5b		 pop	 ebx
  005cc	c3		 ret	 0
?MoveProcessRage@CAIBear@@AAEHXZ ENDP			; CAIBear::MoveProcessRage
_TEXT	ENDS
; Function compile flags: /Ogtp
; File C:\IAGOS\server\v18\Source\Source\_AIInterface\AIBear.cpp
;	COMDAT ?MoveProcessIdle@CAIBear@@AAEHXZ
_TEXT	SEGMENT
?MoveProcessIdle@CAIBear@@AAEHXZ PROC			; CAIBear::MoveProcessIdle, COMDAT
; _this$ = ecx

; 109  : #ifdef __MOVER_STATE_EFFECT
; 110  : 	CMover* pMover = GetMover();
; 111  : 
; 112  : 	if( IsValidObj( pMover ) == TRUE && pMover->m_pActMover->IsStateFlag( OBJSTAF_COMBAT ) == TRUE )
; 113  : 	{
; 114  : 		if( pMover->m_pActMover->SendActMsg( OBJMSG_MODE_PEACE ) == TRUE )
; 115  : 		{
; 116  : 			g_UserMng.AddSendActMsg( pMover, OBJMSG_MODE_PEACE );
; 117  : 		}
; 118  : 	}
; 119  : #endif // __MOVER_STATE_EFFECT
; 120  : 
; 121  : 	return TRUE;

  00000	b8 01 00 00 00	 mov	 eax, 1

; 122  : }

  00005	c3		 ret	 0
?MoveProcessIdle@CAIBear@@AAEHXZ ENDP			; CAIBear::MoveProcessIdle
_TEXT	ENDS
; Function compile flags: /Ogtp
; File C:\IAGOS\server\v18\Source\Source\_AIInterface\AIInterface.h
;	COMDAT ?IsReturnToBegin@CAIInterface@@UAEHXZ
_TEXT	SEGMENT
?IsReturnToBegin@CAIInterface@@UAEHXZ PROC		; CAIInterface::IsReturnToBegin, COMDAT
; _this$ = ecx

; 121  : 	virtual		BOOL	IsReturnToBegin( void )		{	return FALSE;	}

  00000	33 c0		 xor	 eax, eax
  00002	c3		 ret	 0
?IsReturnToBegin@CAIInterface@@UAEHXZ ENDP		; CAIInterface::IsReturnToBegin
_TEXT	ENDS
; Function compile flags: /Ogtp
; File C:\IAGOS\server\v18\Source\Source\_Common\Project.h
; File C:\IAGOS\server\v18\Source\Source\_Common\data.h
; File C:\IAGOS\server\v18\Source\Source\_Common\Project.h
;	COMDAT ?GetText@CProject@@QAEPBDK@Z
_TEXT	SEGMENT
_dwIndex$ = 8						; size = 4
?GetText@CProject@@QAEPBDK@Z PROC			; CProject::GetText, COMDAT
; _this$ = ecx

; 1426 : { 

  00000	55		 push	 ebp
  00001	8b ec		 mov	 ebp, esp

; 1427 : 	VERIFY_RANGE( (int)( dwIndex ), 0, m_colorText.GetSize(), "GetText range_error", "error" );

  00003	8b 55 08	 mov	 edx, DWORD PTR _dwIndex$[ebp]
  00006	56		 push	 esi
  00007	85 d2		 test	 edx, edx
  00009	78 29		 js	 SHORT $LN19@GetText
  0000b	3b 91 ac 02 00
	00		 cmp	 edx, DWORD PTR [ecx+684]
  00011	7d 21		 jge	 SHORT $LN19@GetText
; File C:\IAGOS\server\v18\Source\Source\_Common\data.h

; 270  : 	if( dwIndex >= (DWORD)m_nMaxIndex )

  00013	73 15		 jae	 SHORT $LN18@GetText

; 271  : 		return NULL;
; 272  : 	return (T*) m_apOffset[ dwIndex ];

  00015	8b 81 9c 02 00
	00		 mov	 eax, DWORD PTR [ecx+668]
  0001b	8b 04 90	 mov	 eax, DWORD PTR [eax+edx*4]
; File C:\IAGOS\server\v18\Source\Source\_Common\Project.h

; 1428 : 	if( m_colorText.GetAt( dwIndex ) == NULL )

  0001e	85 c0		 test	 eax, eax
  00020	74 08		 je	 SHORT $LN18@GetText

; 1430 : 	return m_colorText.GetAt( dwIndex )->lpszData; 

  00022	8b 40 04	 mov	 eax, DWORD PTR [eax+4]
  00025	5e		 pop	 esi

; 1431 : }

  00026	5d		 pop	 ebp
  00027	c2 04 00	 ret	 4
$LN18@GetText:

; 1429 : 		return "";

  0002a	b8 00 00 00 00	 mov	 eax, OFFSET ??_C@_00CNPNBAHC@@
  0002f	5e		 pop	 esi

; 1431 : }

  00030	5d		 pop	 ebp
  00031	c2 04 00	 ret	 4
$LN19@GetText:

; 579  : 	LPCTSTR szErr = Error( _T( "%s min:%d, max:%d, index:%d" ), szMsg, nMin, nMax, nIndex ); 

  00034	52		 push	 edx
  00035	ff b1 ac 02 00
	00		 push	 DWORD PTR [ecx+684]
  0003b	6a 00		 push	 0
  0003d	68 00 00 00 00	 push	 OFFSET ??_C@_0BE@OHDBLHOM@GetText?5range_error@
  00042	68 00 00 00 00	 push	 OFFSET ??_C@_0BM@HMFGHCP@?$CFs?5min?3?$CFd?0?5max?3?$CFd?0?5index?3?$CFd@
  00047	e8 00 00 00 00	 call	 ?Error@@YAPBDPBDZZ	; Error
  0004c	83 c4 14	 add	 esp, 20			; 00000014H

; 1427 : 	VERIFY_RANGE( (int)( dwIndex ), 0, m_colorText.GetSize(), "GetText range_error", "error" );

  0004f	b8 00 00 00 00	 mov	 eax, OFFSET ??_C@_05KKCIMGE@error@
  00054	5e		 pop	 esi

; 1431 : }

  00055	5d		 pop	 ebp
  00056	c2 04 00	 ret	 4
?GetText@CProject@@QAEPBDK@Z ENDP			; CProject::GetText
_TEXT	ENDS
; Function compile flags: /Ogtp
;	COMDAT ??_GCTimer@@UAEPAXI@Z
_TEXT	SEGMENT
___flags$ = 8						; size = 4
??_GCTimer@@UAEPAXI@Z PROC				; CTimer::`scalar deleting destructor', COMDAT
; _this$ = ecx
  00000	55		 push	 ebp
  00001	8b ec		 mov	 ebp, esp
  00003	f6 45 08 01	 test	 BYTE PTR ___flags$[ebp], 1
  00007	56		 push	 esi
  00008	8b f1		 mov	 esi, ecx
  0000a	c7 06 00 00 00
	00		 mov	 DWORD PTR [esi], OFFSET ??_7CTimer@@6B@
  00010	74 0b		 je	 SHORT $LN5@scalar
  00012	6a 20		 push	 32			; 00000020H
  00014	56		 push	 esi
  00015	e8 00 00 00 00	 call	 ??3@YAXPAXI@Z		; operator delete
  0001a	83 c4 08	 add	 esp, 8
$LN5@scalar:
  0001d	8b c6		 mov	 eax, esi
  0001f	5e		 pop	 esi
  00020	5d		 pop	 ebp
  00021	c2 04 00	 ret	 4
??_GCTimer@@UAEPAXI@Z ENDP				; CTimer::`scalar deleting destructor'
_TEXT	ENDS
; Function compile flags: /Ogtp
; File C:\IAGOS\server\v18\Source\Source\_Common\Timer.h
;	COMDAT ??1CTimer@@UAE@XZ
_TEXT	SEGMENT
??1CTimer@@UAE@XZ PROC					; CTimer::~CTimer, COMDAT
; _this$ = ecx

; 19   : 	virtual ~CTimer()	{}

  00000	c7 01 00 00 00
	00		 mov	 DWORD PTR [ecx], OFFSET ??_7CTimer@@6B@
  00006	c3		 ret	 0
??1CTimer@@UAE@XZ ENDP					; CTimer::~CTimer
_TEXT	ENDS
; Function compile flags: /Ogtp
; File C:\IAGOS\server\v18\Source\Source\DX_SDK\d3dx9math.h
;	COMDAT ??0D3DXVECTOR3@@QAE@XZ
_TEXT	SEGMENT
??0D3DXVECTOR3@@QAE@XZ PROC				; D3DXVECTOR3::D3DXVECTOR3, COMDAT
; _this$ = ecx

; 165  :     D3DXVECTOR3() {};

  00000	8b c1		 mov	 eax, ecx
  00002	c3		 ret	 0
??0D3DXVECTOR3@@QAE@XZ ENDP				; D3DXVECTOR3::D3DXVECTOR3
_TEXT	ENDS
; Function compile flags: /Ogtp
; File C:\IAGOS\server\v18\Source\Source\_AIInterface\AIBear.cpp
;	COMDAT ?__empty_global_delete@@YAXPAXI@Z
_TEXT	SEGMENT
___formal$ = 8						; size = 4
___formal$ = 12						; size = 4
?__empty_global_delete@@YAXPAXI@Z PROC			; __empty_global_delete, COMDAT

  00000	c2 00 00	 ret	 0
?__empty_global_delete@@YAXPAXI@Z ENDP			; __empty_global_delete
_TEXT	ENDS
; Function compile flags: /Ogtp
; File C:\IAGOS\server\v18\Source\Source\_AIInterface\AIBear.cpp
;	COMDAT ?__empty_global_delete@@YAXPAX@Z
_TEXT	SEGMENT
___formal$ = 8						; size = 4
?__empty_global_delete@@YAXPAX@Z PROC			; __empty_global_delete, COMDAT

  00000	c2 00 00	 ret	 0
?__empty_global_delete@@YAXPAX@Z ENDP			; __empty_global_delete
_TEXT	ENDS
END
