; Listing generated by Microsoft (R) Optimizing Compiler Version 19.44.35225.0 

	TITLE	C:\IAGOS\server\v18\Source\Output\WorldServer\Release\AIBigMuscle.obj
	.686P
	.XMM
	include listing.inc
	.model	flat

INCLUDELIB LIBCMT
INCLUDELIB OLDNAMES

PUBLIC	?stateMap@CAIBigMuscle@@2USTATEMAP@@B		; CAIBigMuscle::stateMap
EXTRN	?stateMap@CAIInterface@@2USTATEMAP@@B:QWORD	; CAIInterface::stateMap
CONST	SEGMENT
?stateMap@CAIBigMuscle@@2USTATEMAP@@B DD FLAT:?stateMap@CAIInterface@@2USTATEMAP@@B ; CAIBigMuscle::stateMap
	DD	FLAT:?stateMapEntries@CAIBigMuscle@@2QBUSTATEMAP_ENTRIES@@B
?piecewise_construct@std@@3Upiecewise_construct_t@1@B	ORG $+1 ; std::piecewise_construct
CONST	ENDS
PUBLIC	?__empty_global_delete@@YAXPAX@Z		; __empty_global_delete
PUBLIC	?__empty_global_delete@@YAXPAXI@Z		; __empty_global_delete
PUBLIC	___local_stdio_printf_options
PUBLIC	_sprintf
PUBLIC	??0D3DXVECTOR3@@QAE@XZ				; D3DXVECTOR3::D3DXVECTOR3
PUBLIC	?GetText@CProject@@QAEPBDK@Z			; CProject::GetText
PUBLIC	?IsReturnToBegin@CAIInterface@@UAEHXZ		; CAIInterface::IsReturnToBegin
PUBLIC	?MoveProcessIdle@CAIBigMuscle@@AAEHXZ		; CAIBigMuscle::MoveProcessIdle
PUBLIC	?MoveProcessRage@CAIBigMuscle@@AAEHXZ		; CAIBigMuscle::MoveProcessRage
PUBLIC	?SelectTarget@CAIBigMuscle@@AAEHXZ		; CAIBigMuscle::SelectTarget
PUBLIC	?Init@CAIBigMuscle@@AAEXXZ			; CAIBigMuscle::Init
PUBLIC	?Destroy@CAIBigMuscle@@AAEXXZ			; CAIBigMuscle::Destroy
PUBLIC	??0CAIBigMuscle@@QAE@XZ				; CAIBigMuscle::CAIBigMuscle
PUBLIC	??0CAIBigMuscle@@QAE@PAVCObj@@@Z		; CAIBigMuscle::CAIBigMuscle
PUBLIC	??1CAIBigMuscle@@UAE@XZ				; CAIBigMuscle::~CAIBigMuscle
PUBLIC	?InitAI@CAIBigMuscle@@UAEXXZ			; CAIBigMuscle::InitAI
PUBLIC	?StateInit@CAIBigMuscle@@QAEHABUAIMSG@@@Z	; CAIBigMuscle::StateInit
PUBLIC	?StateIdle@CAIBigMuscle@@QAEHABUAIMSG@@@Z	; CAIBigMuscle::StateIdle
PUBLIC	?StateRage@CAIBigMuscle@@QAEHABUAIMSG@@@Z	; CAIBigMuscle::StateRage
PUBLIC	?GetStateMap@CAIBigMuscle@@UBEPBUSTATEMAP@@XZ	; CAIBigMuscle::GetStateMap
PUBLIC	??_GCAIBigMuscle@@UAEPAXI@Z			; CAIBigMuscle::`scalar deleting destructor'
PUBLIC	?_OptionsStorage@?1??__local_stdio_printf_options@@9@4_KA ; `__local_stdio_printf_options'::`2'::_OptionsStorage
PUBLIC	??_C@_00CNPNBAHC@@				; `string'
PUBLIC	??_C@_0BM@HMFGHCP@?$CFs?5min?3?$CFd?0?5max?3?$CFd?0?5index?3?$CFd@ ; `string'
PUBLIC	??_C@_0BJ@GKPOBPPI@GetMoverProp?5range_error@	; `string'
PUBLIC	??_C@_0BE@OHDBLHOM@GetText?5range_error@	; `string'
PUBLIC	??_C@_05KKCIMGE@error@				; `string'
PUBLIC	?stateMapEntries@CAIBigMuscle@@2QBUSTATEMAP_ENTRIES@@B ; CAIBigMuscle::stateMapEntries
PUBLIC	??_7CAIBigMuscle@@6B@				; CAIBigMuscle::`vftable'
PUBLIC	??_C@_0BO@KPFKDMKF@CAIBigMuscle?3?3MoveProcessRage@ ; `string'
PUBLIC	??_C@_0DJ@OEFAFLLJ@CAIBigMuscle?3?3StateRage?5?9?5AIMSG@ ; `string'
PUBLIC	??_C@_0DA@MINNGBKP@CAIBigMuscle?3?3StateRage?5?3?5AIMSG@ ; `string'
PUBLIC	??_R4CAIBigMuscle@@6B@				; CAIBigMuscle::`RTTI Complete Object Locator'
PUBLIC	??_R0?AVCAIBigMuscle@@@8			; CAIBigMuscle `RTTI Type Descriptor'
PUBLIC	??_R3CAIBigMuscle@@8				; CAIBigMuscle::`RTTI Class Hierarchy Descriptor'
PUBLIC	??_R2CAIBigMuscle@@8				; CAIBigMuscle::`RTTI Base Class Array'
PUBLIC	??_R1A@?0A@EA@CAIBigMuscle@@8			; CAIBigMuscle::`RTTI Base Class Descriptor at (0,-1,0,64)'
PUBLIC	??_R1A@?0A@EA@CAIInterface@@8			; CAIInterface::`RTTI Base Class Descriptor at (0,-1,0,64)'
PUBLIC	??_R0?AVCAIInterface@@@8			; CAIInterface `RTTI Type Descriptor'
PUBLIC	??_R3CAIInterface@@8				; CAIInterface::`RTTI Class Hierarchy Descriptor'
PUBLIC	??_R2CAIInterface@@8				; CAIInterface::`RTTI Base Class Array'
PUBLIC	__real@40800000
PUBLIC	__real@40a00000
PUBLIC	__real@40c00000
PUBLIC	__real@41200000
PUBLIC	__real@41700000
EXTRN	??3@YAXPAXI@Z:PROC				; operator delete
EXTRN	___stdio_common_vsprintf:PROC
EXTRN	__imp__timeGetTime@0:PROC
EXTRN	?Error@@YAPBDPBDZZ:PROC				; Error
EXTRN	?GetRadiusXZ@CObj@@QAEMXZ:PROC			; CObj::GetRadiusXZ
EXTRN	?ApplySkillAround@CCtrl@@QAEXPAV1@HPAUItemProp@@PAUAddSkillProp@@_NHMH@Z:PROC ; CCtrl::ApplySkillAround
EXTRN	?GetMover@CProject@@QAEPAVCMover@@K@Z:PROC	; CProject::GetMover
EXTRN	?ResetState@CAction@@QAEXK@Z:PROC		; CAction::ResetState
EXTRN	??0CAIInterface@@QAE@XZ:PROC			; CAIInterface::CAIInterface
EXTRN	??0CAIInterface@@QAE@PAVCObj@@@Z:PROC		; CAIInterface::CAIInterface
EXTRN	??1CAIInterface@@UAE@XZ:PROC			; CAIInterface::~CAIInterface
EXTRN	?RouteMessage@CAIInterface@@UAEXXZ:PROC		; CAIInterface::RouteMessage
EXTRN	?SendAIMsg@CAIInterface@@UAEXKKKK@Z:PROC	; CAIInterface::SendAIMsg
EXTRN	?PostAIMsg@CAIInterface@@UAEXKKKK@Z:PROC	; CAIInterface::PostAIMsg
EXTRN	?ScanTarget@CAIInterface@@IAEPAVCMover@@PAVCObj@@HHKKH@Z:PROC ; CAIInterface::ScanTarget
EXTRN	?ScanTargetStrong@CAIInterface@@IAEPAVCMover@@PAVCObj@@M@Z:PROC ; CAIInterface::ScanTargetStrong
EXTRN	?ScanTargetOverHealer@CAIInterface@@IAEPAVCMover@@PAVCObj@@M@Z:PROC ; CAIInterface::ScanTargetOverHealer
EXTRN	?GetName@CMover@@QAEPBDH@Z:PROC			; CMover::GetName
EXTRN	?GetJob@CMover@@QAEHXZ:PROC			; CMover::GetJob
EXTRN	?CMD_SetMeleeAttack@CMover@@QAEXKM@Z:PROC	; CMover::CMD_SetMeleeAttack
EXTRN	?DoAttackMelee@CMover@@QAEHPAV1@W4OBJMSG@@K@Z:PROC ; CMover::DoAttackMelee
EXTRN	??_ECAIBigMuscle@@UAEPAXI@Z:PROC		; CAIBigMuscle::`vector deleting destructor'
EXTRN	?AddWorldShout@CUserMng@@QAEXPBD0UD3DXVECTOR3@@PAVCWorld@@@Z:PROC ; CUserMng::AddWorldShout
EXTRN	?AddCreateSfxObj@CUserMng@@QAEXPAVCCtrl@@KMMMH@Z:PROC ; CUserMng::AddCreateSfxObj
EXTRN	?AddCommonPlace@CUserMng@@QAEXPAVCCtrl@@E@Z:PROC ; CUserMng::AddCommonPlace
EXTRN	?SendCaption@CDPCoreClient@@QAEXPBDKH@Z:PROC	; CDPCoreClient::SendCaption
EXTRN	@__security_check_cookie@4:PROC
EXTRN	_memset:PROC
EXTRN	??_7type_info@@6B@:QWORD			; type_info::`vftable'
EXTRN	?g_next@@3KA:DWORD				; g_next
EXTRN	?prj@@3VCProject@@A:BYTE			; prj
EXTRN	?g_UserMng@@3VCUserMng@@A:BYTE			; g_UserMng
EXTRN	?g_DPCoreClient@@3VCDPCoreClient@@A:BYTE	; g_DPCoreClient
EXTRN	___security_cookie:DWORD
EXTRN	__fltused:DWORD
;	COMDAT ?_OptionsStorage@?1??__local_stdio_printf_options@@9@4_KA
_BSS	SEGMENT
?_OptionsStorage@?1??__local_stdio_printf_options@@9@4_KA DQ 01H DUP (?) ; `__local_stdio_printf_options'::`2'::_OptionsStorage
_BSS	ENDS
;	COMDAT __real@41700000
CONST	SEGMENT
__real@41700000 DD 041700000r			; 15
CONST	ENDS
;	COMDAT __real@41200000
CONST	SEGMENT
__real@41200000 DD 041200000r			; 10
CONST	ENDS
;	COMDAT __real@40c00000
CONST	SEGMENT
__real@40c00000 DD 040c00000r			; 6
CONST	ENDS
;	COMDAT __real@40a00000
CONST	SEGMENT
__real@40a00000 DD 040a00000r			; 5
CONST	ENDS
;	COMDAT __real@40800000
CONST	SEGMENT
__real@40800000 DD 040800000r			; 4
CONST	ENDS
;	COMDAT ??_R2CAIInterface@@8
rdata$r	SEGMENT
??_R2CAIInterface@@8 DD FLAT:??_R1A@?0A@EA@CAIInterface@@8 ; CAIInterface::`RTTI Base Class Array'
rdata$r	ENDS
;	COMDAT ??_R3CAIInterface@@8
rdata$r	SEGMENT
??_R3CAIInterface@@8 DD 00H				; CAIInterface::`RTTI Class Hierarchy Descriptor'
	DD	00H
	DD	01H
	DD	FLAT:??_R2CAIInterface@@8
rdata$r	ENDS
;	COMDAT ??_R0?AVCAIInterface@@@8
data$rs	SEGMENT
??_R0?AVCAIInterface@@@8 DD FLAT:??_7type_info@@6B@	; CAIInterface `RTTI Type Descriptor'
	DD	00H
	DB	'.?AVCAIInterface@@', 00H
data$rs	ENDS
;	COMDAT ??_R1A@?0A@EA@CAIInterface@@8
rdata$r	SEGMENT
??_R1A@?0A@EA@CAIInterface@@8 DD FLAT:??_R0?AVCAIInterface@@@8 ; CAIInterface::`RTTI Base Class Descriptor at (0,-1,0,64)'
	DD	00H
	DD	00H
	DD	0ffffffffH
	DD	00H
	DD	040H
	DD	FLAT:??_R3CAIInterface@@8
rdata$r	ENDS
;	COMDAT ??_R1A@?0A@EA@CAIBigMuscle@@8
rdata$r	SEGMENT
??_R1A@?0A@EA@CAIBigMuscle@@8 DD FLAT:??_R0?AVCAIBigMuscle@@@8 ; CAIBigMuscle::`RTTI Base Class Descriptor at (0,-1,0,64)'
	DD	01H
	DD	00H
	DD	0ffffffffH
	DD	00H
	DD	040H
	DD	FLAT:??_R3CAIBigMuscle@@8
rdata$r	ENDS
;	COMDAT ??_R2CAIBigMuscle@@8
rdata$r	SEGMENT
??_R2CAIBigMuscle@@8 DD FLAT:??_R1A@?0A@EA@CAIBigMuscle@@8 ; CAIBigMuscle::`RTTI Base Class Array'
	DD	FLAT:??_R1A@?0A@EA@CAIInterface@@8
rdata$r	ENDS
;	COMDAT ??_R3CAIBigMuscle@@8
rdata$r	SEGMENT
??_R3CAIBigMuscle@@8 DD 00H				; CAIBigMuscle::`RTTI Class Hierarchy Descriptor'
	DD	00H
	DD	02H
	DD	FLAT:??_R2CAIBigMuscle@@8
rdata$r	ENDS
;	COMDAT ??_R0?AVCAIBigMuscle@@@8
data$rs	SEGMENT
??_R0?AVCAIBigMuscle@@@8 DD FLAT:??_7type_info@@6B@	; CAIBigMuscle `RTTI Type Descriptor'
	DD	00H
	DB	'.?AVCAIBigMuscle@@', 00H
data$rs	ENDS
;	COMDAT ??_R4CAIBigMuscle@@6B@
rdata$r	SEGMENT
??_R4CAIBigMuscle@@6B@ DD 00H				; CAIBigMuscle::`RTTI Complete Object Locator'
	DD	00H
	DD	00H
	DD	FLAT:??_R0?AVCAIBigMuscle@@@8
	DD	FLAT:??_R3CAIBigMuscle@@8
rdata$r	ENDS
;	COMDAT ??_C@_0DA@MINNGBKP@CAIBigMuscle?3?3StateRage?5?3?5AIMSG@
CONST	SEGMENT
??_C@_0DA@MINNGBKP@CAIBigMuscle?3?3StateRage?5?3?5AIMSG@ DB 'CAIBigMuscle'
	DB	'::StateRage : AIMSG_ATTACK_MELEE %d', 00H	; `string'
CONST	ENDS
;	COMDAT ??_C@_0DJ@OEFAFLLJ@CAIBigMuscle?3?3StateRage?5?9?5AIMSG@
CONST	SEGMENT
??_C@_0DJ@OEFAFLLJ@CAIBigMuscle?3?3StateRage?5?9?5AIMSG@ DB 'CAIBigMuscle'
	DB	'::StateRage - AIMSG_ARRIVAL m_nAttackType=%d', 00H ; `string'
CONST	ENDS
;	COMDAT ??_C@_0BO@KPFKDMKF@CAIBigMuscle?3?3MoveProcessRage@
CONST	SEGMENT
??_C@_0BO@KPFKDMKF@CAIBigMuscle?3?3MoveProcessRage@ DB 'CAIBigMuscle::Mov'
	DB	'eProcessRage', 00H				; `string'
CONST	ENDS
;	COMDAT ??_7CAIBigMuscle@@6B@
CONST	SEGMENT
??_7CAIBigMuscle@@6B@ DD FLAT:??_R4CAIBigMuscle@@6B@	; CAIBigMuscle::`vftable'
	DD	FLAT:?GetStateMap@CAIBigMuscle@@UBEPBUSTATEMAP@@XZ
	DD	FLAT:??_ECAIBigMuscle@@UAEPAXI@Z
	DD	FLAT:?RouteMessage@CAIInterface@@UAEXXZ
	DD	FLAT:?SendAIMsg@CAIInterface@@UAEXKKKK@Z
	DD	FLAT:?PostAIMsg@CAIInterface@@UAEXKKKK@Z
	DD	FLAT:?InitAI@CAIBigMuscle@@UAEXXZ
	DD	FLAT:?IsReturnToBegin@CAIInterface@@UAEHXZ
CONST	ENDS
_DATA	SEGMENT
?stateMapEntries@CAIBigMuscle@@2QBUSTATEMAP_ENTRIES@@B DD 01H ; CAIBigMuscle::stateMapEntries
	ORG $+4
	DD	FLAT:?StateInit@CAIBigMuscle@@QAEHABUAIMSG@@@Z
	DD	00H
	DD	00H
	DD	00H
	DD	03H
	DB	4 DUP(00H)
	DD	FLAT:?StateIdle@CAIBigMuscle@@QAEHABUAIMSG@@@Z
	DD	00H
	DD	00H
	DD	00H
	DD	04H
	DB	4 DUP(00H)
	DD	FLAT:?StateRage@CAIBigMuscle@@QAEHABUAIMSG@@@Z
	DD	00H
	DD	00H
	DD	00H
	DD	05H
	DB	4 DUP(00H)
	DD	FLAT:?StateRage@CAIBigMuscle@@QAEHABUAIMSG@@@Z
	DD	00H
	DD	00H
	DD	00H
	DD	00H
	DB	4 DUP(00H)
	DD	00H
	DD	00H
	DD	00H
	DD	0ffffffffH
_DATA	ENDS
;	COMDAT ??_C@_05KKCIMGE@error@
CONST	SEGMENT
??_C@_05KKCIMGE@error@ DB 'error', 00H			; `string'
CONST	ENDS
;	COMDAT ??_C@_0BE@OHDBLHOM@GetText?5range_error@
CONST	SEGMENT
??_C@_0BE@OHDBLHOM@GetText?5range_error@ DB 'GetText range_error', 00H ; `string'
CONST	ENDS
;	COMDAT ??_C@_0BJ@GKPOBPPI@GetMoverProp?5range_error@
CONST	SEGMENT
??_C@_0BJ@GKPOBPPI@GetMoverProp?5range_error@ DB 'GetMoverProp range_erro'
	DB	'r', 00H					; `string'
CONST	ENDS
;	COMDAT ??_C@_0BM@HMFGHCP@?$CFs?5min?3?$CFd?0?5max?3?$CFd?0?5index?3?$CFd@
CONST	SEGMENT
??_C@_0BM@HMFGHCP@?$CFs?5min?3?$CFd?0?5max?3?$CFd?0?5index?3?$CFd@ DB '%s'
	DB	' min:%d, max:%d, index:%d', 00H		; `string'
CONST	ENDS
;	COMDAT ??_C@_00CNPNBAHC@@
CONST	SEGMENT
??_C@_00CNPNBAHC@@ DB 00H				; `string'
CONST	ENDS
; Function compile flags: /Ogtp
;	COMDAT ??_GCAIBigMuscle@@UAEPAXI@Z
_TEXT	SEGMENT
___flags$ = 8						; size = 4
??_GCAIBigMuscle@@UAEPAXI@Z PROC			; CAIBigMuscle::`scalar deleting destructor', COMDAT
; _this$ = ecx
  00000	55		 push	 ebp
  00001	8b ec		 mov	 ebp, esp
  00003	56		 push	 esi
  00004	8b f1		 mov	 esi, ecx
  00006	e8 00 00 00 00	 call	 ??1CAIBigMuscle@@UAE@XZ	; CAIBigMuscle::~CAIBigMuscle
  0000b	f6 45 08 01	 test	 BYTE PTR ___flags$[ebp], 1
  0000f	74 0e		 je	 SHORT $LN5@scalar
  00011	68 90 00 00 00	 push	 144			; 00000090H
  00016	56		 push	 esi
  00017	e8 00 00 00 00	 call	 ??3@YAXPAXI@Z		; operator delete
  0001c	83 c4 08	 add	 esp, 8
$LN5@scalar:
  0001f	8b c6		 mov	 eax, esi
  00021	5e		 pop	 esi
  00022	5d		 pop	 ebp
  00023	c2 04 00	 ret	 4
??_GCAIBigMuscle@@UAEPAXI@Z ENDP			; CAIBigMuscle::`scalar deleting destructor'
_TEXT	ENDS
; Function compile flags: /Ogtp
; File C:\IAGOS\server\v18\Source\Source\_AIInterface\AIBigMuscle.cpp
;	COMDAT ?GetStateMap@CAIBigMuscle@@UBEPBUSTATEMAP@@XZ
_TEXT	SEGMENT
?GetStateMap@CAIBigMuscle@@UBEPBUSTATEMAP@@XZ PROC	; CAIBigMuscle::GetStateMap, COMDAT
; _this$ = ecx

; 37   : BEGIN_AISTATE_MAP( CAIBigMuscle, CAIInterface )

  00000	b8 00 00 00 00	 mov	 eax, OFFSET ?stateMap@CAIBigMuscle@@2USTATEMAP@@B ; CAIBigMuscle::stateMap
  00005	c3		 ret	 0
?GetStateMap@CAIBigMuscle@@UBEPBUSTATEMAP@@XZ ENDP	; CAIBigMuscle::GetStateMap
_TEXT	ENDS
; Function compile flags: /Ogtp
; File C:\IAGOS\server\v18\Source\Source\_AIInterface\AIBigMuscle.cpp
; File C:\IAGOS\server\v18\Source\Source\_Common\Mover.h
; File C:\IAGOS\server\v18\Source\Source\_Common\Project.h
; File C:\IAGOS\server\v18\Source\Source\_AIInterface\AIBigMuscle.cpp
; File C:\IAGOS\server\v18\Source\Source\_Common\Mover.h
; File C:\IAGOS\server\v18\Source\Source\_Common\Obj.h
; File C:\IAGOS\server\v18\Source\Source\_Common\Mover.h
; File C:\IAGOS\server\v18\Source\Source\_AIInterface\AIBigMuscle.cpp
; File C:\IAGOS\server\v18\Source\Source\_Common\Obj.h
; File C:\IAGOS\server\v18\Source\Source\_AIInterface\AIBigMuscle.cpp
; File C:\IAGOS\server\v18\Source\Source\_Common\Obj.h
; File C:\IAGOS\server\v18\Source\Source\_AIInterface\AIBigMuscle.cpp
; File C:\IAGOS\server\v18\Source\Source\_Common\Obj.h
; File C:\IAGOS\server\v18\Source\Source\_AIInterface\AIBigMuscle.cpp
; File C:\IAGOS\server\v18\Source\Source\_Common\Obj.h
; File C:\IAGOS\server\v18\Source\Source\_AIInterface\AIBigMuscle.cpp
; File C:\IAGOS\server\v18\Source\Source\_Common\xUtil.h
; File C:\IAGOS\server\v18\Source\Source\_AIInterface\AIBigMuscle.cpp
; File C:\IAGOS\server\v18\Source\Source\_Common\xUtil.h
; File C:\IAGOS\server\v18\Source\Source\_AIInterface\AIBigMuscle.cpp
;	COMDAT ?StateRage@CAIBigMuscle@@QAEHABUAIMSG@@@Z
_TEXT	SEGMENT
_pMover$1$ = -136					; size = 4
_szChar$1 = -132					; size = 128
__$ArrayPad$ = -4					; size = 4
_msg$ = 8						; size = 4
?StateRage@CAIBigMuscle@@QAEHABUAIMSG@@@Z PROC		; CAIBigMuscle::StateRage, COMDAT
; _this$ = ecx

; 530  : {

  00000	55		 push	 ebp
  00001	8b ec		 mov	 ebp, esp
  00003	81 ec 88 00 00
	00		 sub	 esp, 136		; 00000088H
  00009	a1 00 00 00 00	 mov	 eax, DWORD PTR ___security_cookie
  0000e	33 c5		 xor	 eax, ebp
  00010	89 45 fc	 mov	 DWORD PTR __$ArrayPad$[ebp], eax
  00013	53		 push	 ebx
  00014	56		 push	 esi
  00015	8b f1		 mov	 esi, ecx

; 531  : 	CMover* pMover = GetMover();
; 532  : 	CWorld* pWorld = GetWorld();
; 533  : 	
; 534  : 	BeginAIHandler( )
; 535  : 		
; 536  : 	///////////////////////////////////////////////////////////////////////////////////////////////////
; 537  : 	OnMessage( AIMSG_INIT ) 

  00017	8b 4d 08	 mov	 ecx, DWORD PTR _msg$[ebp]
  0001a	57		 push	 edi
  0001b	8b 01		 mov	 eax, DWORD PTR [ecx]
  0001d	8b 56 30	 mov	 edx, DWORD PTR [esi+48]
  00020	89 95 78 ff ff
	ff		 mov	 DWORD PTR _pMover$1$[ebp], edx
  00026	83 f8 01	 cmp	 eax, 1
  00029	0f 84 8d 02 00
	00		 je	 $LN48@StateRage

; 538  : 
; 539  : 	///////////////////////////////////////////////////////////////////////////////////////////////////
; 540  : 	OnMessage( AIMSG_PROCESS ) 

  0002f	83 f8 02	 cmp	 eax, 2
  00032	75 0c		 jne	 SHORT $LN12@StateRage

; 541  : 		MoveProcessRage();

  00034	8b ce		 mov	 ecx, esi
  00036	e8 00 00 00 00	 call	 ?MoveProcessRage@CAIBigMuscle@@AAEHXZ ; CAIBigMuscle::MoveProcessRage

; 542  : 		
; 543  : 	///////////////////////////////////////////////////////////////////////////////////////////////////
; 544  : 	OnMessage( AIMSG_DAMAGE ) 

  0003b	e9 7c 02 00 00	 jmp	 $LN48@StateRage
$LN12@StateRage:
  00040	83 f8 08	 cmp	 eax, 8
  00043	75 0e		 jne	 SHORT $LN14@StateRage

; 545  : 		// 나에게 데미지 많이 준놈들을 기억하고 있자. 나중에 응징하자.
; 546  : 		m_idLastAttacker = msg.dwParam1;

  00045	8b 41 04	 mov	 eax, DWORD PTR [ecx+4]
  00048	89 86 84 00 00
	00		 mov	 DWORD PTR [esi+132], eax

; 547  : 	
; 548  : 	///////////////////////////////////////////////////////////////////////////////////////////////////
; 549  : 	OnMessage( AIMSG_DIE ) 

  0004e	e9 69 02 00 00	 jmp	 $LN48@StateRage
$LN14@StateRage:
  00053	83 f8 09	 cmp	 eax, 9
  00056	75 14		 jne	 SHORT $LN16@StateRage

; 550  : 		SendAIMsg( AIMSG_EXIT );

  00058	8b 06		 mov	 eax, DWORD PTR [esi]
  0005a	8b ce		 mov	 ecx, esi
  0005c	6a 00		 push	 0
  0005e	6a 00		 push	 0
  00060	6a 00		 push	 0
  00062	6a 12		 push	 18			; 00000012H
  00064	ff 50 0c	 call	 DWORD PTR [eax+12]

; 551  : 	
; 552  : 	///////////////////////////////////////////////////////////////////////////////////////////////////
; 553  : 	OnMessage( AIMSG_COLLISION )

  00067	e9 50 02 00 00	 jmp	 $LN48@StateRage
$LN16@StateRage:
  0006c	83 f8 0a	 cmp	 eax, 10			; 0000000aH
  0006f	0f 84 47 02 00
	00		 je	 $LN48@StateRage

; 554  : 		
; 555  : 	///////////////////////////////////////////////////////////////////////////////////////////////////
; 556  : 	OnMessage( AIMSG_ARRIVAL )

  00075	83 f8 0b	 cmp	 eax, 11			; 0000000bH
  00078	0f 85 cb 01 00
	00		 jne	 $LN20@StateRage
; File C:\IAGOS\server\v18\Source\Source\_Common\Mover.h

; 1020 : 	MoverProp*		GetProp() { return prj.GetMoverProp( m_dwIndex ); }	// 객체의 프로퍼티 얻기 	

  0007e	8b 82 74 01 00
	00		 mov	 eax, DWORD PTR [edx+372]
; File C:\IAGOS\server\v18\Source\Source\_Common\Project.h

; 1406 : 	VERIFY_RANGE( nIndex, 0, m_nMoverPropSize, "GetMoverProp range_error", NULL );

  00084	8b 0d b4 01 00
	00		 mov	 ecx, DWORD PTR ?prj@@3VCProject@@A+436
  0008a	85 c0		 test	 eax, eax
  0008c	78 12		 js	 SHORT $LN59@StateRage
  0008e	3b c1		 cmp	 eax, ecx
  00090	7d 0e		 jge	 SHORT $LN59@StateRage

; 1407 : 	return m_pPropMover + nIndex;

  00092	69 c0 90 06 00
	00		 imul	 eax, eax, 1680
  00098	03 05 b8 01 00
	00		 add	 eax, DWORD PTR ?prj@@3VCProject@@A+440
  0009e	eb 18		 jmp	 SHORT $LN54@StateRage
$LN59@StateRage:

; 579  : 	LPCTSTR szErr = Error( _T( "%s min:%d, max:%d, index:%d" ), szMsg, nMin, nMax, nIndex ); 

  000a0	50		 push	 eax
  000a1	51		 push	 ecx
  000a2	6a 00		 push	 0
  000a4	68 00 00 00 00	 push	 OFFSET ??_C@_0BJ@GKPOBPPI@GetMoverProp?5range_error@
  000a9	68 00 00 00 00	 push	 OFFSET ??_C@_0BM@HMFGHCP@?$CFs?5min?3?$CFd?0?5max?3?$CFd?0?5index?3?$CFd@
  000ae	e8 00 00 00 00	 call	 ?Error@@YAPBDPBDZZ	; Error
  000b3	83 c4 14	 add	 esp, 20			; 00000014H

; 1406 : 	VERIFY_RANGE( nIndex, 0, m_nMoverPropSize, "GetMoverProp range_error", NULL );

  000b6	33 c0		 xor	 eax, eax
$LN54@StateRage:
; File C:\IAGOS\server\v18\Source\Source\_AIInterface\AIBigMuscle.cpp

; 562  : 		switch( m_nAttackType )

  000b8	8b 4e 5c	 mov	 ecx, DWORD PTR [esi+92]
  000bb	8d 51 ff	 lea	 edx, DWORD PTR [ecx-1]
  000be	83 fa 03	 cmp	 edx, 3
  000c1	0f 87 6b 01 00
	00		 ja	 $LN26@StateRage
  000c7	ff 24 95 00 00
	00 00		 jmp	 DWORD PTR $LN87@StateRage[edx*4]
$LN22@StateRage:

; 563  : 		{
; 564  : 		case CAT_NORMAL:			dwMsg = OBJMSG_ATK1;	dwItemID = pProp->dwAtk1;	break;

  000ce	8b 98 b0 00 00
	00		 mov	 ebx, DWORD PTR [eax+176]
  000d4	bf 1d 00 00 00	 mov	 edi, 29			; 0000001dH
  000d9	eb 25		 jmp	 SHORT $LN83@StateRage
$LN23@StateRage:

; 565  : 		case CAT_NORMAL2:			dwMsg = OBJMSG_ATK2;	dwItemID = pProp->dwAtk1;	break;

  000db	8b 98 b0 00 00
	00		 mov	 ebx, DWORD PTR [eax+176]
  000e1	bf 1e 00 00 00	 mov	 edi, 30			; 0000001eH
  000e6	eb 18		 jmp	 SHORT $LN83@StateRage
$LN24@StateRage:

; 566  : 		case CAT_QUAKEDOUBLE:		dwMsg = OBJMSG_ATK3;	dwItemID = pProp->dwAtk3;	break;

  000e8	8b 98 b8 00 00
	00		 mov	 ebx, DWORD PTR [eax+184]
  000ee	bf 1f 00 00 00	 mov	 edi, 31			; 0000001fH
  000f3	eb 0b		 jmp	 SHORT $LN83@StateRage
$LN25@StateRage:

; 567  : 		case CAT_QUAKE_ONE:			dwMsg = OBJMSG_ATK4;	dwItemID = pProp->dwAtk2;	break;

  000f5	8b 98 b4 00 00
	00		 mov	 ebx, DWORD PTR [eax+180]
  000fb	bf 20 00 00 00	 mov	 edi, 32			; 00000020H
$LN83@StateRage:

; 570  : 		}
; 571  : 
; 572  : 		if( dwMsg )
; 573  : 		{
; 574  : 			if( m_idTarget != NULL_ID )

  00100	8b 46 70	 mov	 eax, DWORD PTR [esi+112]
  00103	83 f8 ff	 cmp	 eax, -1
  00106	0f 84 b0 01 00
	00		 je	 $LN48@StateRage
; File C:\IAGOS\server\v18\Source\Source\_Common\Mover.h

; 1764 : 	CMover *pTarget = (CMover *)prj.GetMover( idTarget );

  0010c	50		 push	 eax
  0010d	b9 00 00 00 00	 mov	 ecx, OFFSET ?prj@@3VCProject@@A ; prj
  00112	e8 00 00 00 00	 call	 ?GetMover@CProject@@QAEPAVCMover@@K@Z ; CProject::GetMover
; File C:\IAGOS\server\v18\Source\Source\_Common\Obj.h

; 327  : 	return pObj && ( pObj->IsDelete() == FALSE ); 

  00117	85 c0		 test	 eax, eax
  00119	0f 84 21 01 00
	00		 je	 $LN70@StateRage

; 180  : 	BOOL			IsDelete()	{ return (m_dwFlags & OBJ_FLAG_DELETE);  }

  0011f	f6 40 04 01	 test	 BYTE PTR [eax+4], 1

; 327  : 	return pObj && ( pObj->IsDelete() == FALSE ); 

  00123	0f 85 17 01 00
	00		 jne	 $LN70@StateRage
; File C:\IAGOS\server\v18\Source\Source\_Common\Mover.h

; 1768 : 	return DoAttackMelee( pTarget, dwMsg, dwItemID );

  00129	53		 push	 ebx
  0012a	8b 9d 78 ff ff
	ff		 mov	 ebx, DWORD PTR _pMover$1$[ebp]
  00130	8b cb		 mov	 ecx, ebx
  00132	57		 push	 edi
  00133	50		 push	 eax
  00134	e8 00 00 00 00	 call	 ?DoAttackMelee@CMover@@QAEHPAV1@W4OBJMSG@@K@Z ; CMover::DoAttackMelee
; File C:\IAGOS\server\v18\Source\Source\_AIInterface\AIBigMuscle.cpp

; 576  : 				if( pMover->DoAttackMelee( m_idTarget, dwMsg, dwItemID ) == 1 )

  00139	83 f8 01	 cmp	 eax, 1
  0013c	0f 85 fe 00 00
	00		 jne	 $LN70@StateRage

; 577  : 				{
; 578  : 					m_nEvent = EPT_ATTACKING;		// 공격상태 전환.

  00142	c7 46 58 02 00
	00 00		 mov	 DWORD PTR [esi+88], 2

; 579  : 					m_tmTimeOver = timeGetTime();	// 공격시작후 타임오버 계산용

  00149	ff 15 00 00 00
	00		 call	 DWORD PTR __imp__timeGetTime@0

; 580  : 
; 581  : 					CMover *pTarget = NULL;
; 582  : 					pTarget = prj.GetMover( m_idTarget );

  0014f	ff 76 70	 push	 DWORD PTR [esi+112]
  00152	b9 00 00 00 00	 mov	 ecx, OFFSET ?prj@@3VCProject@@A ; prj
  00157	89 46 6c	 mov	 DWORD PTR [esi+108], eax
  0015a	e8 00 00 00 00	 call	 ?GetMover@CProject@@QAEPAVCMover@@K@Z ; CProject::GetMover
  0015f	8b f8		 mov	 edi, eax

; 583  : 
; 584  : 					// 이벤트 메세지
; 585  : 					// 보스몬스터가 유저에게 말을 한다.
; 586  : 					switch( m_nAttackType )

  00161	8b 46 5c	 mov	 eax, DWORD PTR [esi+92]
  00164	83 e8 03	 sub	 eax, 3
  00167	74 42		 je	 SHORT $LN35@StateRage
  00169	83 e8 01	 sub	 eax, 1
  0016c	0f 85 4a 01 00
	00		 jne	 $LN48@StateRage

; 587  : 					{
; 588  : 					case CAT_NORMAL:	
; 589  : 						{
; 590  : 						}
; 591  : 						break;
; 592  : 					case CAT_QUAKEDOUBLE:
; 593  : 						{
; 594  : 							// 이벤트 메세지
; 595  : 							// 보스몬스터가 유저에게 말을 한다.
; 596  : 							if( pTarget )

  00172	85 ff		 test	 edi, edi
  00174	0f 84 42 01 00
	00		 je	 $LN48@StateRage

; 598  : 								g_UserMng.AddWorldShout( pMover->GetName(), prj.GetText(TID_GAME_BOSS_BIGMUSCLE_MSG_04),

  0017a	ff b7 6c 01 00
	00		 push	 DWORD PTR [edi+364]
; File C:\IAGOS\server\v18\Source\Source\_Common\Obj.h

; 215  : 	D3DXVECTOR3		GetPos()	{ return m_vPos; }

  00180	f3 0f 7e 87 60
	01 00 00	 movq	 xmm0, QWORD PTR [edi+352]
; File C:\IAGOS\server\v18\Source\Source\_AIInterface\AIBigMuscle.cpp

; 598  : 								g_UserMng.AddWorldShout( pMover->GetName(), prj.GetText(TID_GAME_BOSS_BIGMUSCLE_MSG_04),

  00188	b9 00 00 00 00	 mov	 ecx, OFFSET ?prj@@3VCProject@@A ; prj
; File C:\IAGOS\server\v18\Source\Source\_Common\Obj.h

; 215  : 	D3DXVECTOR3		GetPos()	{ return m_vPos; }

  0018d	8b 97 68 01 00
	00		 mov	 edx, DWORD PTR [edi+360]
; File C:\IAGOS\server\v18\Source\Source\_AIInterface\AIBigMuscle.cpp

; 598  : 								g_UserMng.AddWorldShout( pMover->GetName(), prj.GetText(TID_GAME_BOSS_BIGMUSCLE_MSG_04),

  00193	83 ec 0c	 sub	 esp, 12			; 0000000cH
  00196	8b c4		 mov	 eax, esp
  00198	68 d4 0b 00 00	 push	 3028			; 00000bd4H
  0019d	66 0f d6 00	 movq	 QWORD PTR [eax], xmm0
  001a1	89 50 08	 mov	 DWORD PTR [eax+8], edx
  001a4	e8 00 00 00 00	 call	 ?GetText@CProject@@QAEPBDK@Z ; CProject::GetText

; 599  : 									pTarget->GetPos(), pTarget->GetWorld() );
; 600  : 							}
; 601  : 						}
; 602  : 						break;

  001a9	eb 6d		 jmp	 SHORT $LN110@StateRage
$LN35@StateRage:

; 603  : 					case CAT_QUAKE_ONE:
; 604  : 						{
; 605  : 							if( pTarget )

  001ab	85 ff		 test	 edi, edi
  001ad	0f 84 09 01 00
	00		 je	 $LN48@StateRage

; 606  : 							{
; 607  : 								TCHAR szChar[128] = { 0 };

  001b3	68 80 00 00 00	 push	 128			; 00000080H
  001b8	8d 85 7c ff ff
	ff		 lea	 eax, DWORD PTR _szChar$1[ebp]
  001be	6a 00		 push	 0
  001c0	50		 push	 eax
  001c1	e8 00 00 00 00	 call	 _memset
  001c6	83 c4 0c	 add	 esp, 12			; 0000000cH

; 608  : 								sprintf( szChar, prj.GetText(TID_GAME_BOSS_BIGMUSCLE_MSG_05), pTarget->GetName() );

  001c9	8b cf		 mov	 ecx, edi
  001cb	6a 00		 push	 0
  001cd	e8 00 00 00 00	 call	 ?GetName@CMover@@QAEPBDH@Z ; CMover::GetName
  001d2	50		 push	 eax
  001d3	68 d5 0b 00 00	 push	 3029			; 00000bd5H
  001d8	b9 00 00 00 00	 mov	 ecx, OFFSET ?prj@@3VCProject@@A ; prj
  001dd	e8 00 00 00 00	 call	 ?GetText@CProject@@QAEPBDK@Z ; CProject::GetText
  001e2	50		 push	 eax
  001e3	8d 85 7c ff ff
	ff		 lea	 eax, DWORD PTR _szChar$1[ebp]
  001e9	50		 push	 eax
  001ea	e8 00 00 00 00	 call	 _sprintf
; File C:\IAGOS\server\v18\Source\Source\_Common\Obj.h

; 215  : 	D3DXVECTOR3		GetPos()	{ return m_vPos; }

  001ef	f3 0f 7e 87 60
	01 00 00	 movq	 xmm0, QWORD PTR [edi+352]
; File C:\IAGOS\server\v18\Source\Source\_AIInterface\AIBigMuscle.cpp

; 608  : 								sprintf( szChar, prj.GetText(TID_GAME_BOSS_BIGMUSCLE_MSG_05), pTarget->GetName() );

  001f7	83 c4 0c	 add	 esp, 12			; 0000000cH
; File C:\IAGOS\server\v18\Source\Source\_Common\Obj.h

; 215  : 	D3DXVECTOR3		GetPos()	{ return m_vPos; }

  001fa	8b 8f 68 01 00
	00		 mov	 ecx, DWORD PTR [edi+360]
; File C:\IAGOS\server\v18\Source\Source\_AIInterface\AIBigMuscle.cpp

; 609  : 								g_UserMng.AddWorldShout( pMover->GetName(), szChar,

  00200	ff b7 6c 01 00
	00		 push	 DWORD PTR [edi+364]
  00206	83 ec 0c	 sub	 esp, 12			; 0000000cH
  00209	8b c4		 mov	 eax, esp
  0020b	66 0f d6 00	 movq	 QWORD PTR [eax], xmm0
  0020f	89 48 08	 mov	 DWORD PTR [eax+8], ecx
  00212	8d 85 7c ff ff
	ff		 lea	 eax, DWORD PTR _szChar$1[ebp]
$LN110@StateRage:

; 660  : //		SendAIMsg( AIMSG_SETPROCESS, FALSE );
; 661  : 	
; 662  : 	EndAIHandler( )
; 663  : 
; 664  : 	return TRUE;
; 665  : }

  00218	50		 push	 eax
  00219	6a 00		 push	 0
  0021b	8b cb		 mov	 ecx, ebx
  0021d	e8 00 00 00 00	 call	 ?GetName@CMover@@QAEPBDH@Z ; CMover::GetName
  00222	50		 push	 eax
  00223	b9 00 00 00 00	 mov	 ecx, OFFSET ?g_UserMng@@3VCUserMng@@A ; g_UserMng
  00228	e8 00 00 00 00	 call	 ?AddWorldShout@CUserMng@@QAEXPBD0UD3DXVECTOR3@@PAVCWorld@@@Z ; CUserMng::AddWorldShout
  0022d	e9 8a 00 00 00	 jmp	 $LN48@StateRage
$LN26@StateRage:

; 568  : 		default:
; 569  : 			Error( "CAIBigMuscle::StateRage - AIMSG_ARRIVAL m_nAttackType=%d", m_nAttackType );

  00232	51		 push	 ecx
  00233	68 00 00 00 00	 push	 OFFSET ??_C@_0DJ@OEFAFLLJ@CAIBigMuscle?3?3StateRage?5?9?5AIMSG@
  00238	e8 00 00 00 00	 call	 ?Error@@YAPBDPBDZZ	; Error
  0023d	83 c4 08	 add	 esp, 8
$LN70@StateRage:

; 660  : //		SendAIMsg( AIMSG_SETPROCESS, FALSE );
; 661  : 	
; 662  : 	EndAIHandler( )
; 663  : 
; 664  : 	return TRUE;
; 665  : }

  00240	c7 46 58 01 00
	00 00		 mov	 DWORD PTR [esi+88], 1
  00247	eb 73		 jmp	 SHORT $LN48@StateRage
$LN20@StateRage:

; 610  : 									pTarget->GetPos(), pTarget->GetWorld() );
; 611  : 							}
; 612  : 						}
; 613  : 						break;
; 614  : 					}					
; 615  : 				} else
; 616  : 					m_nEvent = EPT_MOVING;			// 공격이 실패해서 다시 대기상태로 돌아감.
; 617  : 			}
; 618  : 		} else
; 619  : 			m_nEvent = EPT_MOVING;		// 비정상적인 상태. 원래대로 돌림.
; 620  : 	}
; 621  : 
; 622  : 	
; 623  : 
; 624  : 	///////////////////////////////////////////////////////////////////////////////////////////////////
; 625  : 	OnMessage( AIMSG_ATTACK_MELEE )

  00249	83 f8 0e	 cmp	 eax, 14			; 0000000eH
  0024c	75 22		 jne	 SHORT $LN37@StateRage

; 626  : 		switch( m_nAttackType )			// 선택된 공격 패턴.

  0024e	8b 46 5c	 mov	 eax, DWORD PTR [esi+92]
  00251	8d 48 ff	 lea	 ecx, DWORD PTR [eax-1]
  00254	83 f9 03	 cmp	 ecx, 3
  00257	77 07		 ja	 SHORT $LN43@StateRage
  00259	ff 24 8d 00 00
	00 00		 jmp	 DWORD PTR $LN88@StateRage[ecx*4]
$LN43@StateRage:

; 627  : 		{
; 628  : 		case CAT_NORMAL:
; 629  : 			// 폭발 이펙트 생성지점 계산.
; 630  : 			// 폭발 이펙트 생성;
; 631  : 			// 범위 공격;
; 632  : 			break;
; 633  : 		case CAT_QUAKEDOUBLE:
; 634  : 			// 미사일 오브젝트 생성;
; 635  : 			break;
; 636  : 		case CAT_QUAKE_ONE:		// 밟는 공격 타점.
; 637  : 			// 범위 데미지;
; 638  : 			break;
; 639  : 		case CAT_NORMAL2:
; 640  : 			break;			
; 641  : 		default:
; 642  : 			Error( "CAIBigMuscle::StateRage : AIMSG_ATTACK_MELEE %d", m_nAttackType );

  00260	50		 push	 eax
  00261	68 00 00 00 00	 push	 OFFSET ??_C@_0DA@MINNGBKP@CAIBigMuscle?3?3StateRage?5?3?5AIMSG@
  00266	e8 00 00 00 00	 call	 ?Error@@YAPBDPBDZZ	; Error
  0026b	83 c4 08	 add	 esp, 8

; 656  : 				
; 657  : 		
; 658  : 	///////////////////////////////////////////////////////////////////////////////////////////////////
; 659  : 	OnMessage( AIMSG_EXIT )	

  0026e	eb 4c		 jmp	 SHORT $LN48@StateRage
$LN37@StateRage:

; 643  : 			break;
; 644  : 		}
; 645  : 	
; 646  : 	///////////////////////////////////////////////////////////////////////////////////////////////////
; 647  : 	OnMessage( AIMSG_END_APPEAR )	

  00270	83 f8 10	 cmp	 eax, 16			; 00000010H
  00273	74 cb		 je	 SHORT $LN70@StateRage

; 648  : 		m_nEvent = EPT_MOVING;		// 등장상태가 끝나면 감시/이동상태로 전환.
; 649  : 
; 650  : 	///////////////////////////////////////////////////////////////////////////////////////////////////
; 651  : 	OnMessage( AIMSG_END_MELEEATTACK )	

  00275	83 f8 0f	 cmp	 eax, 15			; 0000000fH
  00278	75 42		 jne	 SHORT $LN48@StateRage

; 652  : 		m_nEvent = EPT_MOVING;				// 이동상태로 전환.

  0027a	c7 46 58 01 00
	00 00		 mov	 DWORD PTR [esi+88], 1

; 653  : 		m_tmReattack = timeGetTime();		// 리어택 타임 리셋;

  00281	ff 15 00 00 00
	00		 call	 DWORD PTR __imp__timeGetTime@0
  00287	89 46 60	 mov	 DWORD PTR [esi+96], eax
; File C:\IAGOS\server\v18\Source\Source\_Common\xUtil.h

; 16   : 	g_next = g_next * 1103515245 + 12345;// + nRandomSeed[ i++ ];

  0028a	b8 d3 4d 62 10	 mov	 eax, 274877907		; 10624dd3H
  0028f	69 0d 00 00 00
	00 6d 4e c6 41	 imul	 ecx, DWORD PTR ?g_next@@3KA, 1103515245 ; g_next
  00299	81 c1 39 30 00
	00		 add	 ecx, 12345		; 00003039H
  0029f	f7 e1		 mul	 ecx
  002a1	89 0d 00 00 00
	00		 mov	 DWORD PTR ?g_next@@3KA, ecx ; g_next
  002a7	c1 ea 07	 shr	 edx, 7

; 22   : 	return  xRand() % num;

  002aa	69 c2 d0 07 00
	00		 imul	 eax, edx, 2000
; File C:\IAGOS\server\v18\Source\Source\_AIInterface\AIBigMuscle.cpp

; 655  : 		m_idTarget = NULL_ID;				// 타겟을 클리어.

  002b0	c7 46 70 ff ff
	ff ff		 mov	 DWORD PTR [esi+112], -1
; File C:\IAGOS\server\v18\Source\Source\_Common\xUtil.h

; 22   : 	return  xRand() % num;

  002b7	2b c8		 sub	 ecx, eax
; File C:\IAGOS\server\v18\Source\Source\_AIInterface\AIBigMuscle.cpp

; 654  : 		m_tmAddReattack = xRandom( 2000 );	// x초 범위내에서 리어택이 단축될 수 있다.

  002b9	89 4e 64	 mov	 DWORD PTR [esi+100], ecx
$LN48@StateRage:

; 660  : //		SendAIMsg( AIMSG_SETPROCESS, FALSE );
; 661  : 	
; 662  : 	EndAIHandler( )
; 663  : 
; 664  : 	return TRUE;
; 665  : }

  002bc	8b 4d fc	 mov	 ecx, DWORD PTR __$ArrayPad$[ebp]
  002bf	b8 01 00 00 00	 mov	 eax, 1
  002c4	5f		 pop	 edi
  002c5	5e		 pop	 esi
  002c6	33 cd		 xor	 ecx, ebp
  002c8	5b		 pop	 ebx
  002c9	e8 00 00 00 00	 call	 @__security_check_cookie@4
  002ce	8b e5		 mov	 esp, ebp
  002d0	5d		 pop	 ebp
  002d1	c2 04 00	 ret	 4
$LN87@StateRage:
  002d4	00 00 00 00	 DD	 $LN22@StateRage
  002d8	00 00 00 00	 DD	 $LN23@StateRage
  002dc	00 00 00 00	 DD	 $LN25@StateRage
  002e0	00 00 00 00	 DD	 $LN24@StateRage
$LN88@StateRage:
  002e4	00 00 00 00	 DD	 $LN48@StateRage
  002e8	00 00 00 00	 DD	 $LN48@StateRage
  002ec	00 00 00 00	 DD	 $LN48@StateRage
  002f0	00 00 00 00	 DD	 $LN48@StateRage
?StateRage@CAIBigMuscle@@QAEHABUAIMSG@@@Z ENDP		; CAIBigMuscle::StateRage
_TEXT	ENDS
; Function compile flags: /Ogtp
; File C:\IAGOS\server\v18\Source\Source\_AIInterface\AIBigMuscle.cpp
;	COMDAT ?StateIdle@CAIBigMuscle@@QAEHABUAIMSG@@@Z
_TEXT	SEGMENT
_msg$ = 8						; size = 4
?StateIdle@CAIBigMuscle@@QAEHABUAIMSG@@@Z PROC		; CAIBigMuscle::StateIdle, COMDAT
; _this$ = ecx

; 126  : {

  00000	55		 push	 ebp
  00001	8b ec		 mov	 ebp, esp

; 127  : 	CMover* pMover = GetMover();
; 128  : 	CWorld* pWorld = GetWorld();
; 129  : 	
; 130  : 	BeginAIHandler( )
; 131  : 		
; 132  : 	///////////////////////////////////////////////////////////////////////////////////////////////////
; 133  : 	OnMessage( AIMSG_INIT ) 

  00003	8b 45 08	 mov	 eax, DWORD PTR _msg$[ebp]
  00006	8b 00		 mov	 eax, DWORD PTR [eax]
  00008	83 f8 01	 cmp	 eax, 1
  0000b	75 16		 jne	 SHORT $LN4@StateIdle
$LN24@StateIdle:

; 146  : 		SendAIMsg( AIMSG_EXIT );
; 147  : 	
; 148  : 	///////////////////////////////////////////////////////////////////////////////////////////////////
; 149  : 	OnMessage( AIMSG_COLLISION )
; 150  : 	
; 151  : 	///////////////////////////////////////////////////////////////////////////////////////////////////
; 152  : 	OnMessage( AIMSG_ARRIVAL )
; 153  : 		
; 154  : 		///////////////////////////////////////////////////////////////////////////////////////////////////
; 155  : 	OnMessage( AIMSG_EXIT )	
; 156  : //		SendAIMsg( AIMSG_SETPROCESS, FALSE );
; 157  : 		
; 158  : 	EndAIHandler( )
; 159  : 			return TRUE;
; 160  : }

  0000d	8b 01		 mov	 eax, DWORD PTR [ecx]
  0000f	6a 00		 push	 0
  00011	6a ff		 push	 -1
  00013	6a 04		 push	 4
  00015	6a 04		 push	 4
  00017	ff 50 0c	 call	 DWORD PTR [eax+12]
  0001a	b8 01 00 00 00	 mov	 eax, 1
  0001f	5d		 pop	 ebp
  00020	c2 04 00	 ret	 4
$LN4@StateIdle:

; 134  : ////		SendAIMsg( AIMSG_SETPROCESS, TRUE );
; 135  : 		SendAIMsg( AIMSG_SETSTATE, STATE_RAGE, NULL_ID );	// 보스는 IDLE패턴이 없다. 바로 공격에 들어간다.
; 136  : 	///////////////////////////////////////////////////////////////////////////////////////////////////
; 137  : 	OnMessage( AIMSG_PROCESS ) 

  00023	83 f8 02	 cmp	 eax, 2
  00026	74 17		 je	 SHORT $LN16@StateIdle

; 138  : 		MoveProcessIdle();
; 139  : 	
; 140  : 	///////////////////////////////////////////////////////////////////////////////////////////////////
; 141  : 	OnMessage( AIMSG_DAMAGE ) 

  00028	83 f8 08	 cmp	 eax, 8
  0002b	74 e0		 je	 SHORT $LN24@StateIdle

; 142  : 		SendAIMsg( AIMSG_SETSTATE, STATE_RAGE, NULL_ID );
; 143  : 	
; 144  : 	///////////////////////////////////////////////////////////////////////////////////////////////////
; 145  : 	OnMessage( AIMSG_DIE ) 

  0002d	83 f8 09	 cmp	 eax, 9
  00030	75 0d		 jne	 SHORT $LN16@StateIdle

; 146  : 		SendAIMsg( AIMSG_EXIT );
; 147  : 	
; 148  : 	///////////////////////////////////////////////////////////////////////////////////////////////////
; 149  : 	OnMessage( AIMSG_COLLISION )
; 150  : 	
; 151  : 	///////////////////////////////////////////////////////////////////////////////////////////////////
; 152  : 	OnMessage( AIMSG_ARRIVAL )
; 153  : 		
; 154  : 		///////////////////////////////////////////////////////////////////////////////////////////////////
; 155  : 	OnMessage( AIMSG_EXIT )	
; 156  : //		SendAIMsg( AIMSG_SETPROCESS, FALSE );
; 157  : 		
; 158  : 	EndAIHandler( )
; 159  : 			return TRUE;
; 160  : }

  00032	8b 01		 mov	 eax, DWORD PTR [ecx]
  00034	6a 00		 push	 0
  00036	6a 00		 push	 0
  00038	6a 00		 push	 0
  0003a	6a 12		 push	 18			; 00000012H
  0003c	ff 50 0c	 call	 DWORD PTR [eax+12]
$LN16@StateIdle:
  0003f	b8 01 00 00 00	 mov	 eax, 1
  00044	5d		 pop	 ebp
  00045	c2 04 00	 ret	 4
?StateIdle@CAIBigMuscle@@QAEHABUAIMSG@@@Z ENDP		; CAIBigMuscle::StateIdle
_TEXT	ENDS
; Function compile flags: /Ogtp
; File C:\IAGOS\server\v18\Source\Source\_AIInterface\AIBigMuscle.cpp
;	COMDAT ?StateInit@CAIBigMuscle@@QAEHABUAIMSG@@@Z
_TEXT	SEGMENT
_msg$ = 8						; size = 4
?StateInit@CAIBigMuscle@@QAEHABUAIMSG@@@Z PROC		; CAIBigMuscle::StateInit, COMDAT
; _this$ = ecx

; 105  : 	return TRUE;

  00000	b8 01 00 00 00	 mov	 eax, 1

; 106  : }

  00005	c2 04 00	 ret	 4
?StateInit@CAIBigMuscle@@QAEHABUAIMSG@@@Z ENDP		; CAIBigMuscle::StateInit
_TEXT	ENDS
; Function compile flags: /Ogtp
; File C:\IAGOS\server\v18\Source\Source\_AIInterface\AIBigMuscle.cpp
; File C:\IAGOS\server\v18\Source\Source\_Common\Obj.h
; File C:\IAGOS\server\v18\Source\Source\_AIInterface\AIBigMuscle.cpp
;	COMDAT ?InitAI@CAIBigMuscle@@UAEXXZ
_TEXT	SEGMENT
?InitAI@CAIBigMuscle@@UAEXXZ PROC			; CAIBigMuscle::InitAI, COMDAT
; _this$ = ecx
; File C:\IAGOS\server\v18\Source\Source\_Common\Obj.h

; 215  : 	D3DXVECTOR3		GetPos()	{ return m_vPos; }

  00000	8b 41 30	 mov	 eax, DWORD PTR [ecx+48]
; File C:\IAGOS\server\v18\Source\Source\_AIInterface\AIBigMuscle.cpp

; 96   : 	PostAIMsg( AIMSG_SETSTATE, STATE_RAGE, NULL_ID );	// 최초 대기상태로 초기화.

  00003	6a 00		 push	 0
  00005	6a ff		 push	 -1
  00007	6a 04		 push	 4
  00009	f3 0f 7e 80 60
	01 00 00	 movq	 xmm0, QWORD PTR [eax+352]
  00011	66 0f d6 41 4c	 movq	 QWORD PTR [ecx+76], xmm0
  00016	8b 80 68 01 00
	00		 mov	 eax, DWORD PTR [eax+360]
  0001c	89 41 54	 mov	 DWORD PTR [ecx+84], eax
  0001f	8b 01		 mov	 eax, DWORD PTR [ecx]
  00021	6a 04		 push	 4
  00023	ff 50 10	 call	 DWORD PTR [eax+16]

; 97   : 
; 98   : #ifdef __INTERNALSERVER
; 99   : 	DEBUGOUT2( "ClockWorks start" );
; 100  : #endif
; 101  : }

  00026	c3		 ret	 0
?InitAI@CAIBigMuscle@@UAEXXZ ENDP			; CAIBigMuscle::InitAI
_TEXT	ENDS
; Function compile flags: /Ogtp
; File C:\IAGOS\server\v18\Source\Source\_AIInterface\AIBigMuscle.cpp
;	COMDAT ??1CAIBigMuscle@@UAE@XZ
_TEXT	SEGMENT
??1CAIBigMuscle@@UAE@XZ PROC				; CAIBigMuscle::~CAIBigMuscle, COMDAT
; _this$ = ecx

; 70   : {

  00000	c7 01 00 00 00
	00		 mov	 DWORD PTR [ecx], OFFSET ??_7CAIBigMuscle@@6B@

; 71   : 	Destroy();
; 72   : }

  00006	e9 00 00 00 00	 jmp	 ??1CAIInterface@@UAE@XZ	; CAIInterface::~CAIInterface
??1CAIBigMuscle@@UAE@XZ ENDP				; CAIBigMuscle::~CAIBigMuscle
_TEXT	ENDS
; Function compile flags: /Ogtp
; File C:\IAGOS\server\v18\Source\Source\_AIInterface\AIBigMuscle.cpp
;	COMDAT ??0CAIBigMuscle@@QAE@PAVCObj@@@Z
_TEXT	SEGMENT
_this$ = -4						; size = 4
_pObj$ = 8						; size = 4
??0CAIBigMuscle@@QAE@PAVCObj@@@Z PROC			; CAIBigMuscle::CAIBigMuscle, COMDAT
; _this$ = ecx

; 65   : {

  00000	55		 push	 ebp
  00001	8b ec		 mov	 ebp, esp
  00003	51		 push	 ecx
  00004	56		 push	 esi
  00005	ff 75 08	 push	 DWORD PTR _pObj$[ebp]
  00008	8b f1		 mov	 esi, ecx
  0000a	89 75 fc	 mov	 DWORD PTR _this$[ebp], esi
  0000d	e8 00 00 00 00	 call	 ??0CAIInterface@@QAE@PAVCObj@@@Z ; CAIInterface::CAIInterface

; 66   : 	Init();

  00012	8b ce		 mov	 ecx, esi
  00014	c7 06 00 00 00
	00		 mov	 DWORD PTR [esi], OFFSET ??_7CAIBigMuscle@@6B@
  0001a	e8 00 00 00 00	 call	 ?Init@CAIBigMuscle@@AAEXXZ ; CAIBigMuscle::Init

; 67   : }

  0001f	8b c6		 mov	 eax, esi
  00021	5e		 pop	 esi
  00022	8b e5		 mov	 esp, ebp
  00024	5d		 pop	 ebp
  00025	c2 04 00	 ret	 4
??0CAIBigMuscle@@QAE@PAVCObj@@@Z ENDP			; CAIBigMuscle::CAIBigMuscle
_TEXT	ENDS
; Function compile flags: /Ogtp
; File C:\IAGOS\server\v18\Source\Source\_AIInterface\AIBigMuscle.cpp
;	COMDAT ??0CAIBigMuscle@@QAE@XZ
_TEXT	SEGMENT
_this$ = -4						; size = 4
??0CAIBigMuscle@@QAE@XZ PROC				; CAIBigMuscle::CAIBigMuscle, COMDAT
; _this$ = ecx

; 61   : {

  00000	55		 push	 ebp
  00001	8b ec		 mov	 ebp, esp
  00003	51		 push	 ecx
  00004	56		 push	 esi
  00005	8b f1		 mov	 esi, ecx
  00007	89 75 fc	 mov	 DWORD PTR _this$[ebp], esi
  0000a	e8 00 00 00 00	 call	 ??0CAIInterface@@QAE@XZ	; CAIInterface::CAIInterface

; 62   : 	Init();

  0000f	8b ce		 mov	 ecx, esi
  00011	c7 06 00 00 00
	00		 mov	 DWORD PTR [esi], OFFSET ??_7CAIBigMuscle@@6B@
  00017	e8 00 00 00 00	 call	 ?Init@CAIBigMuscle@@AAEXXZ ; CAIBigMuscle::Init

; 63   : }

  0001c	8b c6		 mov	 eax, esi
  0001e	5e		 pop	 esi
  0001f	8b e5		 mov	 esp, ebp
  00021	5d		 pop	 ebp
  00022	c3		 ret	 0
??0CAIBigMuscle@@QAE@XZ ENDP				; CAIBigMuscle::CAIBigMuscle
_TEXT	ENDS
; Function compile flags: /Ogtp
; File C:\IAGOS\server\v18\Source\Source\_AIInterface\AIBigMuscle.cpp
;	COMDAT ?Destroy@CAIBigMuscle@@AAEXXZ
_TEXT	SEGMENT
?Destroy@CAIBigMuscle@@AAEXXZ PROC			; CAIBigMuscle::Destroy, COMDAT
; _this$ = ecx

; 91   : }

  00000	c2 00 00	 ret	 0
?Destroy@CAIBigMuscle@@AAEXXZ ENDP			; CAIBigMuscle::Destroy
_TEXT	ENDS
; Function compile flags: /Ogtp
; File C:\IAGOS\server\v18\Source\Source\_AIInterface\AIBigMuscle.cpp
;	COMDAT ?Init@CAIBigMuscle@@AAEXXZ
_TEXT	SEGMENT
?Init@CAIBigMuscle@@AAEXXZ PROC				; CAIBigMuscle::Init, COMDAT
; _this$ = ecx

; 75   : {

  00000	56		 push	 esi
  00001	8b f1		 mov	 esi, ecx

; 76   : 	m_vPosBegin.x = m_vPosBegin.y = m_vPosBegin.z = 0;

  00003	c7 46 54 00 00
	00 00		 mov	 DWORD PTR [esi+84], 0
  0000a	c7 46 50 00 00
	00 00		 mov	 DWORD PTR [esi+80], 0
  00011	c7 46 4c 00 00
	00 00		 mov	 DWORD PTR [esi+76], 0

; 77   : 	m_nEvent = EPT_READY;

  00018	c7 46 58 00 00
	00 00		 mov	 DWORD PTR [esi+88], 0

; 78   : 	m_nAttackType = 0;

  0001f	c7 46 5c 00 00
	00 00		 mov	 DWORD PTR [esi+92], 0

; 79   : 	m_tmReattack = m_tmAddReattack = m_tmTrace = m_tmTimeOver = timeGetTime();

  00026	ff 15 00 00 00
	00		 call	 DWORD PTR __imp__timeGetTime@0
  0002c	89 46 6c	 mov	 DWORD PTR [esi+108], eax
  0002f	0f 57 c0	 xorps	 xmm0, xmm0
  00032	89 46 68	 mov	 DWORD PTR [esi+104], eax
  00035	89 46 64	 mov	 DWORD PTR [esi+100], eax
  00038	89 46 60	 mov	 DWORD PTR [esi+96], eax

; 80   : 	m_idTarget = NULL_ID;

  0003b	c7 46 70 ff ff
	ff ff		 mov	 DWORD PTR [esi+112], -1

; 81   : 	m_vTarget.x = m_vTarget.y = m_vTarget.z = 0;

  00042	c7 46 7c 00 00
	00 00		 mov	 DWORD PTR [esi+124], 0
  00049	c7 46 78 00 00
	00 00		 mov	 DWORD PTR [esi+120], 0
  00050	c7 46 74 00 00
	00 00		 mov	 DWORD PTR [esi+116], 0

; 82   : 	m_idLastAttacker = NULL_ID;

  00057	c7 86 84 00 00
	00 ff ff ff ff	 mov	 DWORD PTR [esi+132], -1

; 83   : 	m_bDefenseMode = FALSE;

  00061	c7 86 88 00 00
	00 00 00 00 00	 mov	 DWORD PTR [esi+136], 0

; 84   : 	m_nAppearCnt = 0;

  0006b	c7 86 80 00 00
	00 00 00 00 00	 mov	 DWORD PTR [esi+128], 0

; 85   : 
; 86   : 	memset( m_bEventFlag, 0, sizeof(BOOL)*5 );

  00075	0f 11 46 38	 movups	 XMMWORD PTR [esi+56], xmm0
  00079	c7 46 48 00 00
	00 00		 mov	 DWORD PTR [esi+72], 0
  00080	5e		 pop	 esi

; 87   : }

  00081	c3		 ret	 0
?Init@CAIBigMuscle@@AAEXXZ ENDP				; CAIBigMuscle::Init
_TEXT	ENDS
; Function compile flags: /Ogtp
; File C:\IAGOS\server\v18\Source\Source\_AIInterface\AIBigMuscle.cpp
; File C:\IAGOS\server\v18\Source\Source\_Common\Mover.h
; File C:\IAGOS\server\v18\Source\Source\_Common\Obj.h
; File C:\IAGOS\server\v18\Source\Source\DX_SDK\d3dx9math.inl
; File C:\IAGOS\server\v18\Source\Source\_Common\Obj.h
; File C:\IAGOS\server\v18\Source\Source\DX_SDK\d3dx9math.inl
; File C:\IAGOS\server\v18\Source\Source\_AIInterface\AIBigMuscle.cpp
; File C:\IAGOS\server\v18\Source\Source\_Common\xUtil.h
; File C:\IAGOS\server\v18\Source\Source\_AIInterface\AIBigMuscle.cpp
; File C:\IAGOS\server\v18\Source\Source\_Common\xUtil.h
; File C:\IAGOS\server\v18\Source\Source\_Common\Obj.h
; File C:\IAGOS\server\v18\Source\Source\_AIInterface\AIBigMuscle.cpp
;	COMDAT ?SelectTarget@CAIBigMuscle@@AAEHXZ
_TEXT	SEGMENT
$T1 = -28						; size = 12
$T2 = -16						; size = 12
_fRadius$ = -4						; size = 4
_dwNum$1$ = -4						; size = 4
_fRadiusSq$1$ = -4					; size = 4
?SelectTarget@CAIBigMuscle@@AAEHXZ PROC			; CAIBigMuscle::SelectTarget, COMDAT
; _this$ = ecx

; 163  : {

  00000	55		 push	 ebp
  00001	8b ec		 mov	 ebp, esp
  00003	83 ec 1c	 sub	 esp, 28			; 0000001cH
  00006	53		 push	 ebx
  00007	56		 push	 esi
  00008	8b f1		 mov	 esi, ecx
  0000a	57		 push	 edi

; 164  : 	CMover	*pMover = GetMover();

  0000b	8b 5e 30	 mov	 ebx, DWORD PTR [esi+48]

; 165  : 	CWorld	*pWorld = GetWorld();
; 166  : 	CModelObject *pModel = (CModelObject *)pMover->GetModel();
; 167  : 
; 168  : 	FLOAT fRadius = pMover->GetRadiusXZ();		// this의 반지름

  0000e	8b cb		 mov	 ecx, ebx
  00010	e8 00 00 00 00	 call	 ?GetRadiusXZ@CObj@@QAEMXZ ; CObj::GetRadiusXZ

; 169  : 	FLOAT fRadiusSq = fRadius * fRadius;		// 반지름Sq버전.
; 170  : 	
; 171  : 	CMover *pLastAttacker = prj.GetMover( m_idLastAttacker );

  00015	ff b6 84 00 00
	00		 push	 DWORD PTR [esi+132]
  0001b	d9 5d fc	 fstp	 DWORD PTR _fRadius$[ebp]
  0001e	f3 0f 10 45 fc	 movss	 xmm0, DWORD PTR _fRadius$[ebp]
  00023	b9 00 00 00 00	 mov	 ecx, OFFSET ?prj@@3VCProject@@A ; prj
  00028	f3 0f 59 c0	 mulss	 xmm0, xmm0
  0002c	f3 0f 11 45 fc	 movss	 DWORD PTR _fRadiusSq$1$[ebp], xmm0
  00031	e8 00 00 00 00	 call	 ?GetMover@CProject@@QAEPAVCMover@@K@Z ; CProject::GetMover
  00036	8b f8		 mov	 edi, eax

; 172  : 	
; 173  : 	if( pLastAttacker && pLastAttacker->IsDie() )

  00038	85 ff		 test	 edi, edi
  0003a	0f 84 8a 00 00
	00		 je	 $LN71@SelectTarg
; File C:\IAGOS\server\v18\Source\Source\_Common\Mover.h

; 1250 : 	BOOL			IsDie() { return m_pActMover->IsDie() || m_nHitPoint == 0; }

  00040	8b 8f 38 02 00
	00		 mov	 ecx, DWORD PTR [edi+568]
  00046	f7 41 04 00 00
	00 08		 test	 DWORD PTR [ecx+4], 134217728 ; 08000000H
  0004d	75 79		 jne	 SHORT $LN73@SelectTarg
  0004f	83 bf f8 05 00
	00 00		 cmp	 DWORD PTR [edi+1528], 0
  00056	74 70		 je	 SHORT $LN73@SelectTarg
; File C:\IAGOS\server\v18\Source\Source\_Common\Obj.h

; 215  : 	D3DXVECTOR3		GetPos()	{ return m_vPos; }

  00058	f3 0f 7e 83 60
	01 00 00	 movq	 xmm0, QWORD PTR [ebx+352]
  00060	8b 83 68 01 00
	00		 mov	 eax, DWORD PTR [ebx+360]
  00066	66 0f d6 45 e4	 movq	 QWORD PTR $T1[ebp], xmm0
  0006b	f3 0f 7e 87 60
	01 00 00	 movq	 xmm0, QWORD PTR [edi+352]
  00073	66 0f d6 45 f0	 movq	 QWORD PTR $T2[ebp], xmm0
; File C:\IAGOS\server\v18\Source\Source\DX_SDK\d3dx9math.inl

; 383  :     return D3DXVECTOR3(x - v.x, y - v.y, z - v.z);

  00078	f3 0f 10 4d f0	 movss	 xmm1, DWORD PTR $T2[ebp]
  0007d	f3 0f 10 55 f4	 movss	 xmm2, DWORD PTR $T2[ebp+4]
  00082	f3 0f 5c 55 e8	 subss	 xmm2, DWORD PTR $T1[ebp+4]
  00087	f3 0f 5c 4d e4	 subss	 xmm1, DWORD PTR $T1[ebp]
; File C:\IAGOS\server\v18\Source\Source\_Common\Obj.h

; 215  : 	D3DXVECTOR3		GetPos()	{ return m_vPos; }

  0008c	89 45 ec	 mov	 DWORD PTR $T1[ebp+8], eax
  0008f	8b 87 68 01 00
	00		 mov	 eax, DWORD PTR [edi+360]
  00095	89 45 f8	 mov	 DWORD PTR $T2[ebp+8], eax
; File C:\IAGOS\server\v18\Source\Source\DX_SDK\d3dx9math.inl

; 383  :     return D3DXVECTOR3(x - v.x, y - v.y, z - v.z);

  00098	f3 0f 10 45 f8	 movss	 xmm0, DWORD PTR $T2[ebp+8]
  0009d	f3 0f 5c 45 ec	 subss	 xmm0, DWORD PTR $T1[ebp+8]

; 302  :     z = fz;

  000a2	f3 0f 59 d2	 mulss	 xmm2, xmm2

; 1698 :     return pV->x * pV->x + pV->y * pV->y + pV->z * pV->z;

  000a6	f3 0f 59 c9	 mulss	 xmm1, xmm1
  000aa	f3 0f 59 c0	 mulss	 xmm0, xmm0
  000ae	f3 0f 58 d1	 addss	 xmm2, xmm1
  000b2	f3 0f 58 d0	 addss	 xmm2, xmm0
; File C:\IAGOS\server\v18\Source\Source\_AIInterface\AIBigMuscle.cpp

; 186  : 		if( fDistSq >= fRadiusSq * 10.0f )				// 라스트어태커가 내 반지름의 10배이상 떨어져있으면

  000b6	f3 0f 10 45 fc	 movss	 xmm0, DWORD PTR _fRadiusSq$1$[ebp]
  000bb	f3 0f 59 05 00
	00 00 00	 mulss	 xmm0, DWORD PTR __real@41200000
  000c3	0f 2f d0	 comiss	 xmm2, xmm0
  000c6	72 0c		 jb	 SHORT $LN5@SelectTarg
$LN73@SelectTarg:

; 187  : 		{
; 188  : 			// 타겟 포기
; 189  : #ifdef __INTERNALSERVER
; 190  : 			CString str;
; 191  : 			str.Format( "LastAtker(%s)가 너무 멀어서(%5.2f) 타겟포기함", pLastAttacker->GetName(), sqrt(fDistSq) );
; 192  : 			DEBUGOUT2( str, "boss(BigMuscle).txt" );
; 193  : #endif
; 194  : 			
; 195  : 			m_idLastAttacker = NULL_ID;
; 196  : 			pLastAttacker = NULL;
; 197  : 		}
; 198  : 	}
; 199  : 
; 200  : 
; 201  : 	m_idTarget = NULL_ID;

  000c8	33 ff		 xor	 edi, edi
$LN71@SelectTarg:
  000ca	c7 86 84 00 00
	00 ff ff ff ff	 mov	 DWORD PTR [esi+132], -1
$LN5@SelectTarg:

; 202  : 	m_vTarget.x = m_vTarget.y = m_vTarget.z = 0;	// 일단 이건 안쓰는걸로 하자.
; 203  : 
; 204  : 	if( m_idLastAttacker == NULL_ID )		// 아직 날 때린쉐리가 없다.

  000d4	83 be 84 00 00
	00 ff		 cmp	 DWORD PTR [esi+132], -1
  000db	c7 46 70 ff ff
	ff ff		 mov	 DWORD PTR [esi+112], -1
  000e2	c7 46 7c 00 00
	00 00		 mov	 DWORD PTR [esi+124], 0
  000e9	c7 46 78 00 00
	00 00		 mov	 DWORD PTR [esi+120], 0
  000f0	c7 46 74 00 00
	00 00		 mov	 DWORD PTR [esi+116], 0
  000f7	75 3f		 jne	 SHORT $LN6@SelectTarg

; 205  : 	{
; 206  : 		CMover* pTarget = NULL;
; 207  : 		pTarget = ScanTarget( pMover, 40, JOB_ALL );		// 40미터 반경내에서 아무나 고른다.

  000f9	6a 00		 push	 0
  000fb	6a 00		 push	 0
  000fd	6a 00		 push	 0
  000ff	6a 28		 push	 40			; 00000028H
  00101	6a 28		 push	 40			; 00000028H
  00103	53		 push	 ebx
  00104	8b ce		 mov	 ecx, esi
  00106	e8 00 00 00 00	 call	 ?ScanTarget@CAIInterface@@IAEPAVCMover@@PAVCObj@@HHKKH@Z ; CAIInterface::ScanTarget

; 208  : 		if( pTarget )

  0010b	85 c0		 test	 eax, eax
  0010d	74 20		 je	 SHORT $LN8@SelectTarg

; 209  : 		{
; 210  : 			// this가 비행형 몬스터거나 || 타겟이 비행중이 아닐때만 공격.
; 211  : 			if( pMover->IsFlyingNPC() || pTarget->m_pActMover->IsFly() == FALSE )	

  0010f	f7 83 3c 02 00
	00 00 00 01 00	 test	 DWORD PTR [ebx+572], 65536 ; 00010000H
  00119	0f 85 9f 00 00
	00		 jne	 $LN12@SelectTarg
  0011f	8b 88 38 02 00
	00		 mov	 ecx, DWORD PTR [eax+568]
  00125	f6 41 08 08	 test	 BYTE PTR [ecx+8], 8
  00129	0f 84 8f 00 00
	00		 je	 $LN12@SelectTarg
$LN8@SelectTarg:
  0012f	5f		 pop	 edi

; 316  : }

  00130	5e		 pop	 esi
  00131	33 c0		 xor	 eax, eax
  00133	5b		 pop	 ebx
  00134	8b e5		 mov	 esp, ebp
  00136	5d		 pop	 ebp
  00137	c3		 ret	 0
$LN6@SelectTarg:
; File C:\IAGOS\server\v18\Source\Source\_Common\xUtil.h

; 16   : 	g_next = g_next * 1103515245 + 12345;// + nRandomSeed[ i++ ];

  00138	69 0d 00 00 00
	00 6d 4e c6 41	 imul	 ecx, DWORD PTR ?g_next@@3KA, 1103515245 ; g_next

; 22   : 	return  xRand() % num;

  00142	b8 1f 85 eb 51	 mov	 eax, 1374389535		; 51eb851fH

; 16   : 	g_next = g_next * 1103515245 + 12345;// + nRandomSeed[ i++ ];

  00147	81 c1 39 30 00
	00		 add	 ecx, 12345		; 00003039H

; 22   : 	return  xRand() % num;

  0014d	f7 e1		 mul	 ecx

; 16   : 	g_next = g_next * 1103515245 + 12345;// + nRandomSeed[ i++ ];

  0014f	89 0d 00 00 00
	00		 mov	 DWORD PTR ?g_next@@3KA, ecx ; g_next

; 22   : 	return  xRand() % num;

  00155	c1 ea 05	 shr	 edx, 5
  00158	6b c2 64	 imul	 eax, edx, 100
; File C:\IAGOS\server\v18\Source\Source\_AIInterface\AIBigMuscle.cpp

; 229  : 		DWORD dwAggroRate = 50;

  0015b	ba 32 00 00 00	 mov	 edx, 50			; 00000032H
; File C:\IAGOS\server\v18\Source\Source\_Common\xUtil.h

; 22   : 	return  xRand() % num;

  00160	2b c8		 sub	 ecx, eax
  00162	89 4d fc	 mov	 DWORD PTR _dwNum$1$[ebp], ecx
; File C:\IAGOS\server\v18\Source\Source\_Common\Obj.h

; 327  : 	return pObj && ( pObj->IsDelete() == FALSE ); 

  00165	85 ff		 test	 edi, edi
  00167	74 20		 je	 SHORT $LN14@SelectTarg

; 180  : 	BOOL			IsDelete()	{ return (m_dwFlags & OBJ_FLAG_DELETE);  }

  00169	f6 47 04 01	 test	 BYTE PTR [edi+4], 1

; 327  : 	return pObj && ( pObj->IsDelete() == FALSE ); 

  0016d	75 1a		 jne	 SHORT $LN14@SelectTarg
; File C:\IAGOS\server\v18\Source\Source\_AIInterface\AIBigMuscle.cpp

; 233  : 			if( pLastAttacker->GetJob() == JOB_MERCENARY )		// 마지막으로 날때린 쉐리가 머서면 어그로 좀더 주자.

  0016f	8b cf		 mov	 ecx, edi
  00171	e8 00 00 00 00	 call	 ?GetJob@CMover@@QAEHXZ	; CMover::GetJob
  00176	b9 46 00 00 00	 mov	 ecx, 70			; 00000046H
  0017b	83 f8 01	 cmp	 eax, 1
  0017e	ba 32 00 00 00	 mov	 edx, 50			; 00000032H
  00183	0f 44 d1	 cmove	 edx, ecx
  00186	8b 4d fc	 mov	 ecx, DWORD PTR _dwNum$1$[ebp]
$LN14@SelectTarg:

; 234  : 				dwAggroRate = 70;
; 235  : 		}
; 236  : 		if( dwNum < dwAggroRate )		

  00189	3b ca		 cmp	 ecx, edx
  0018b	72 77		 jb	 SHORT $LN25@SelectTarg

; 237  : 		{
; 238  : 			// dwAggroRate% 확률로 마지막으로 날 때린넘 공격.
; 239  : 			m_idTarget = m_idLastAttacker;		// 날 공격한 쉐리를 타겟으로 지정하자.
; 240  : 		} else
; 241  : 		if( dwNum < 75 )

  0018d	83 f9 4b	 cmp	 ecx, 75			; 0000004bH
  00190	73 41		 jae	 SHORT $LN17@SelectTarg

; 242  : 		{
; 243  : 			// 50미터 반경내에서 가장 쎈넘을 잡자.
; 244  : 			CMover *pTarget = ScanTargetStrong( pMover, 50 );		

  00192	51		 push	 ecx
  00193	c7 04 24 00 00
	48 42		 mov	 DWORD PTR [esp], 1112014848 ; 42480000H
  0019a	8b ce		 mov	 ecx, esi
  0019c	53		 push	 ebx
  0019d	e8 00 00 00 00	 call	 ?ScanTargetStrong@CAIInterface@@IAEPAVCMover@@PAVCObj@@M@Z ; CAIInterface::ScanTargetStrong

; 245  : 			if( pTarget )

  001a2	85 c0		 test	 eax, eax
  001a4	74 5e		 je	 SHORT $LN25@SelectTarg

; 246  : 			{
; 247  : 				// this가 비행형 몬스터거나 || 타겟이 비행중이 아닐때만 공격.
; 248  : 				if( pMover->IsFlyingNPC() || pTarget->m_pActMover->IsFly() == FALSE )	

  001a6	f7 83 3c 02 00
	00 00 00 01 00	 test	 DWORD PTR [ebx+572], 65536 ; 00010000H
  001b0	75 0c		 jne	 SHORT $LN12@SelectTarg
  001b2	8b 88 38 02 00
	00		 mov	 ecx, DWORD PTR [eax+568]
  001b8	f6 41 08 08	 test	 BYTE PTR [ecx+8], 8
  001bc	75 46		 jne	 SHORT $LN25@SelectTarg
$LN12@SelectTarg:

; 270  : 				{
; 271  : 					m_idTarget = pTarget->GetId();
; 272  : #ifdef __INTERNALSERVER
; 273  : 					CString str;
; 274  : 					str.Format( "OverHealer:%s", pTarget->GetName() );
; 275  : 					DEBUGOUT2( str, "boss(BigMuscle).txt" );
; 276  : #endif
; 277  : 				}
; 278  : 				else
; 279  : 					m_idTarget = m_idLastAttacker;		// 타겟이 공격하기가 여의치 않으면 마지막으로 때린쉐리 공격하자.
; 280  : 			} else
; 281  : 				m_idTarget = m_idLastAttacker;		// 타겟이 공격하기가 여의치 않으면 마지막으로 때린쉐리 공격하자.
; 282  : 		}
; 283  : #ifdef __INTERNALSERVER
; 284  : 		{
; 285  : 			CMover *pTarget = prj.GetMover( m_idTarget );
; 286  : 			CMover *pMover = prj.GetMover( m_idLastAttacker );
; 287  : 			CString str;
; 288  : 			if( pMover )
; 289  : 			{
; 290  : 				if( pTarget )
; 291  : 					str.Format( "rand:%d LastAttacker:%s SelectTarget:%s", dwNum, pMover->GetName(), pTarget->GetName() );
; 292  : 				else
; 293  : 					str.Format( "rand:%d LastAttacker:%s SelectTarget:%s", dwNum, pMover->GetName(), "없음" );
; 294  : 				DEBUGOUT2( str, "boss(BigMuscle).txt" );
; 295  : 			} else
; 296  : 			{
; 297  : 				if( pTarget )
; 298  : 					str.Format( "rand:%d LastAttacker:%s SelectTarget:%s", dwNum, "없음.", pTarget->GetName() );
; 299  : 				else
; 300  : 					str.Format( "rand:%d LastAttacker:%s SelectTarget:%s", dwNum, "없음.", "없음" );
; 301  : 				
; 302  : 				DEBUGOUT2( str, "boss(BigMuscle).txt" );
; 303  : 			}
; 304  : 
; 305  : 		}
; 306  : #endif
; 307  : 	}
; 308  : 
; 309  : 	// 적절한 공격대상을 정하자.
; 310  : 	// .가장 마지막으로 날 때린넘 - 50%. - 골고루 공격한다는 느낌을 줌.
; 311  : 	// .나에게 가장 위협적인넘(데미지를 많이 주는넘 혹은 가장 강한 넘) - 25%
; 312  : 	// .오버힐 하는 어시 - 25%.
; 313  : 	// .떼거리로 가장 몰려있는 구역의 중앙에 있는넘. - 10% - 일단 이건 나중에
; 314  : 
; 315  : 	return TRUE;

  001be	8b 80 bc 01 00
	00		 mov	 eax, DWORD PTR [eax+444]
  001c4	5f		 pop	 edi
  001c5	89 46 70	 mov	 DWORD PTR [esi+112], eax
  001c8	b8 01 00 00 00	 mov	 eax, 1

; 316  : }

  001cd	5e		 pop	 esi
  001ce	5b		 pop	 ebx
  001cf	8b e5		 mov	 esp, ebp
  001d1	5d		 pop	 ebp
  001d2	c3		 ret	 0
$LN17@SelectTarg:

; 249  : 				{
; 250  : 					m_idTarget = pTarget->GetId();
; 251  : #ifdef __INTERNALSERVER
; 252  : 					CString str;
; 253  : 					str.Format( "Leader:%s %d", pTarget->GetName(), pTarget->GetLevel() );
; 254  : 					DEBUGOUT2( str, "boss(BigMuscle).txt" );
; 255  : #endif
; 256  : 				}
; 257  : 				else
; 258  : 					m_idTarget = m_idLastAttacker;		// 타겟이 공격하기가 여의치 않으면 마지막으로 때린쉐리 공격하자.
; 259  : 			} else
; 260  : 				m_idTarget = m_idLastAttacker;		// 타겟이 공격하기가 여의치 않으면 마지막으로 때린쉐리 공격하자.
; 261  : 		} else
; 262  : 		if( dwNum < 100 )

  001d3	83 f9 64	 cmp	 ecx, 100		; 00000064H
  001d6	73 35		 jae	 SHORT $LN26@SelectTarg

; 263  : 		{
; 264  : 			// 오버힐하는 어시를 죽이자.
; 265  : 			CMover *pTarget = ScanTargetOverHealer( pMover, 50 );		

  001d8	51		 push	 ecx
  001d9	c7 04 24 00 00
	48 42		 mov	 DWORD PTR [esp], 1112014848 ; 42480000H
  001e0	8b ce		 mov	 ecx, esi
  001e2	53		 push	 ebx
  001e3	e8 00 00 00 00	 call	 ?ScanTargetOverHealer@CAIInterface@@IAEPAVCMover@@PAVCObj@@M@Z ; CAIInterface::ScanTargetOverHealer

; 266  : 			if( pTarget )

  001e8	85 c0		 test	 eax, eax
  001ea	74 18		 je	 SHORT $LN25@SelectTarg

; 267  : 			{
; 268  : 				// this가 비행형 몬스터거나 || 타겟이 비행중이 아닐때만 공격.
; 269  : 				if( pMover->IsFlyingNPC() || pTarget->m_pActMover->IsFly() == FALSE )	

  001ec	f7 83 3c 02 00
	00 00 00 01 00	 test	 DWORD PTR [ebx+572], 65536 ; 00010000H
  001f6	75 c6		 jne	 SHORT $LN12@SelectTarg
  001f8	8b 88 38 02 00
	00		 mov	 ecx, DWORD PTR [eax+568]
  001fe	f6 41 08 08	 test	 BYTE PTR [ecx+8], 8
  00202	74 ba		 je	 SHORT $LN12@SelectTarg
$LN25@SelectTarg:

; 270  : 				{
; 271  : 					m_idTarget = pTarget->GetId();
; 272  : #ifdef __INTERNALSERVER
; 273  : 					CString str;
; 274  : 					str.Format( "OverHealer:%s", pTarget->GetName() );
; 275  : 					DEBUGOUT2( str, "boss(BigMuscle).txt" );
; 276  : #endif
; 277  : 				}
; 278  : 				else
; 279  : 					m_idTarget = m_idLastAttacker;		// 타겟이 공격하기가 여의치 않으면 마지막으로 때린쉐리 공격하자.
; 280  : 			} else
; 281  : 				m_idTarget = m_idLastAttacker;		// 타겟이 공격하기가 여의치 않으면 마지막으로 때린쉐리 공격하자.
; 282  : 		}
; 283  : #ifdef __INTERNALSERVER
; 284  : 		{
; 285  : 			CMover *pTarget = prj.GetMover( m_idTarget );
; 286  : 			CMover *pMover = prj.GetMover( m_idLastAttacker );
; 287  : 			CString str;
; 288  : 			if( pMover )
; 289  : 			{
; 290  : 				if( pTarget )
; 291  : 					str.Format( "rand:%d LastAttacker:%s SelectTarget:%s", dwNum, pMover->GetName(), pTarget->GetName() );
; 292  : 				else
; 293  : 					str.Format( "rand:%d LastAttacker:%s SelectTarget:%s", dwNum, pMover->GetName(), "없음" );
; 294  : 				DEBUGOUT2( str, "boss(BigMuscle).txt" );
; 295  : 			} else
; 296  : 			{
; 297  : 				if( pTarget )
; 298  : 					str.Format( "rand:%d LastAttacker:%s SelectTarget:%s", dwNum, "없음.", pTarget->GetName() );
; 299  : 				else
; 300  : 					str.Format( "rand:%d LastAttacker:%s SelectTarget:%s", dwNum, "없음.", "없음" );
; 301  : 				
; 302  : 				DEBUGOUT2( str, "boss(BigMuscle).txt" );
; 303  : 			}
; 304  : 
; 305  : 		}
; 306  : #endif
; 307  : 	}
; 308  : 
; 309  : 	// 적절한 공격대상을 정하자.
; 310  : 	// .가장 마지막으로 날 때린넘 - 50%. - 골고루 공격한다는 느낌을 줌.
; 311  : 	// .나에게 가장 위협적인넘(데미지를 많이 주는넘 혹은 가장 강한 넘) - 25%
; 312  : 	// .오버힐 하는 어시 - 25%.
; 313  : 	// .떼거리로 가장 몰려있는 구역의 중앙에 있는넘. - 10% - 일단 이건 나중에
; 314  : 
; 315  : 	return TRUE;

  00204	8b 86 84 00 00
	00		 mov	 eax, DWORD PTR [esi+132]
  0020a	89 46 70	 mov	 DWORD PTR [esi+112], eax
$LN26@SelectTarg:

; 316  : }

  0020d	5f		 pop	 edi
  0020e	5e		 pop	 esi
  0020f	b8 01 00 00 00	 mov	 eax, 1
  00214	5b		 pop	 ebx
  00215	8b e5		 mov	 esp, ebp
  00217	5d		 pop	 ebp
  00218	c3		 ret	 0
?SelectTarget@CAIBigMuscle@@AAEHXZ ENDP			; CAIBigMuscle::SelectTarget
_TEXT	ENDS
; Function compile flags: /Ogtp
; File C:\IAGOS\server\v18\Source\Source\_AIInterface\AIBigMuscle.cpp
; File C:\IAGOS\server\v18\Source\Source\_Common\Project.h
; File C:\IAGOS\server\v18\Source\Source\_Common\data.h
; File C:\IAGOS\server\v18\Source\Source\_Common\Project.h
; File C:\IAGOS\server\v18\Source\Source\_AIInterface\AIBigMuscle.cpp
; File C:\IAGOS\server\v18\Source\Source\_Common\Obj.h
; File C:\IAGOS\server\v18\Source\Source\_Common\Project.h
; File C:\IAGOS\server\v18\Source\Source\_Common\Obj.h
; File C:\IAGOS\server\v18\Source\Source\_Common\Project.h
; File C:\IAGOS\server\v18\Source\Source\_Common\data.h
; File C:\IAGOS\server\v18\Source\Source\_Common\Project.h
; File C:\IAGOS\server\v18\Source\Source\_AIInterface\AIBigMuscle.cpp
; File C:\IAGOS\server\v18\Source\Source\_Common\Obj.h
; File C:\IAGOS\server\v18\Source\Source\_Common\Project.h
; File C:\IAGOS\server\v18\Source\Source\_Common\Obj.h
; File C:\IAGOS\server\v18\Source\Source\_Common\Project.h
; File C:\IAGOS\server\v18\Source\Source\_Common\data.h
; File C:\IAGOS\server\v18\Source\Source\_Common\Project.h
; File C:\IAGOS\server\v18\Source\Source\_AIInterface\AIBigMuscle.cpp
; File C:\IAGOS\server\v18\Source\Source\_AIInterface\Action.h
; File C:\IAGOS\server\v18\Source\Source\_AIInterface\AIBigMuscle.cpp
; File C:\IAGOS\server\v18\Source\Source\_Common\Mover.h
; File C:\IAGOS\server\v18\Source\Source\_AIInterface\AIBigMuscle.cpp
; File C:\IAGOS\server\v18\Source\Source\_Common\Obj.h
; File C:\IAGOS\server\v18\Source\Source\_AIInterface\AIBigMuscle.cpp
; File C:\IAGOS\server\v18\Source\Source\_Common\Obj.h
; File C:\IAGOS\server\v18\Source\Source\DX_SDK\d3dx9math.inl
; File C:\IAGOS\server\v18\Source\Source\_Common\Obj.h
; File C:\IAGOS\server\v18\Source\Source\DX_SDK\d3dx9math.inl
; File C:\IAGOS\server\v18\Source\Source\_Common\Obj.h
; File C:\IAGOS\server\v18\Source\Source\DX_SDK\d3dx9math.inl
; File C:\IAGOS\server\v18\Source\Source\_Common\Obj.h
; File C:\IAGOS\server\v18\Source\Source\DX_SDK\d3dx9math.inl
; File C:\IAGOS\server\v18\Source\Source\_AIInterface\AIBigMuscle.cpp
; File C:\IAGOS\server\v18\Source\Source\DX_SDK\d3dx9math.inl
; File C:\IAGOS\server\v18\Source\Source\_AIInterface\AIBigMuscle.cpp
; File C:\IAGOS\server\v18\Source\Source\_Common\xUtil.h
; File C:\IAGOS\server\v18\Source\Source\_AIInterface\AIBigMuscle.cpp
; File C:\IAGOS\server\v18\Source\Source\_Common\xUtil.h
; File C:\IAGOS\server\v18\Source\Source\_AIInterface\AIBigMuscle.cpp
; File C:\IAGOS\server\v18\Source\Source\_Common\xUtil.h
; File C:\IAGOS\server\v18\Source\Source\_AIInterface\AIBigMuscle.cpp
;	COMDAT ?MoveProcessRage@CAIBigMuscle@@AAEHXZ
_TEXT	SEGMENT
$T1 = -40						; size = 12
_vTarget$2 = -28					; size = 12
$T3 = -24						; size = 8
$T4 = -24						; size = 8
_pSkillProp$5 = -16					; size = 4
_fRadius$6 = -16					; size = 4
_fRadiusSq$1$ = -16					; size = 4
_pAddSkillProp$7 = -12					; size = 4
tv1100 = -12						; size = 4
$T8 = -8						; size = 4
$T9 = -8						; size = 4
_pModel$1$ = -4						; size = 4
_fArrivalRange$1$ = -4					; size = 4
?MoveProcessRage@CAIBigMuscle@@AAEHXZ PROC		; CAIBigMuscle::MoveProcessRage, COMDAT
; _this$ = ecx

; 322  : {

  00000	55		 push	 ebp
  00001	8b ec		 mov	 ebp, esp
  00003	83 ec 28	 sub	 esp, 40			; 00000028H
  00006	53		 push	 ebx
  00007	56		 push	 esi
  00008	57		 push	 edi
  00009	8b f9		 mov	 edi, ecx

; 323  : 	CMover	*pMover = GetMover();
; 324  : 	CWorld	*pWorld = GetWorld();
; 325  : 	CModelObject *pModel = (CModelObject *)pMover->GetModel();
; 326  : /*
; 327  : 	if( m_bDefenseMode == FALSE && pMover->GetHitPointPercent() <= 100 )		// 20%이하로 피가 빠지면
; 328  : 	{
; 329  : 		m_bDefenseMode = TRUE;
; 330  : 		pMover->SetDestParam( DST_ADJDEF_RATE, 800, NULL_CHGPARAM );			// 방어도 30%증가.
; 331  : #ifdef __INTERNALSERVER
; 332  : //		Error( "보스의 방어도가 증가되었음. 엔터를 치시고 계속 즐겜을 하시오" );
; 333  : #endif
; 334  : 	}
; 335  : */
; 336  : 	
; 337  : 	// 이벤트 메세지
; 338  : 	// 보스몬스터가 유저에게 말을 한다.
; 339  : 	CMover * pTarget = NULL;
; 340  : 	
; 341  : 	if( m_bEventFlag[0] == FALSE )

  0000b	83 7f 38 00	 cmp	 DWORD PTR [edi+56], 0
  0000f	8b 5f 30	 mov	 ebx, DWORD PTR [edi+48]
  00012	8b 8b 78 01 00
	00		 mov	 ecx, DWORD PTR [ebx+376]
  00018	89 4d fc	 mov	 DWORD PTR _pModel$1$[ebp], ecx
  0001b	0f 85 13 02 00
	00		 jne	 $LN4@MoveProces

; 342  : 	{
; 343  : 		pTarget = ScanTarget( pMover, 80, JOB_ALL );		// 80미터 반경내에서 아무나 고른다.

  00021	6a 00		 push	 0
  00023	6a 00		 push	 0
  00025	6a 00		 push	 0
  00027	6a 28		 push	 40			; 00000028H
  00029	6a 50		 push	 80			; 00000050H
  0002b	53		 push	 ebx
  0002c	8b cf		 mov	 ecx, edi
  0002e	e8 00 00 00 00	 call	 ?ScanTarget@CAIInterface@@IAEPAVCMover@@PAVCObj@@HHKKH@Z ; CAIInterface::ScanTarget
  00033	8b f0		 mov	 esi, eax

; 344  : 
; 345  : 		if( pTarget )

  00035	85 f6		 test	 esi, esi
  00037	0f 84 f4 01 00
	00		 je	 $LN136@MoveProces

; 346  : 		{
; 347  : 			m_bEventFlag[0] = TRUE;

  0003d	c7 47 38 01 00
	00 00		 mov	 DWORD PTR [edi+56], 1
; File C:\IAGOS\server\v18\Source\Source\_Common\Project.h

; 1427 : 	VERIFY_RANGE( (int)( dwIndex ), 0, m_colorText.GetSize(), "GetText range_error", "error" );

  00044	a1 ac 02 00 00	 mov	 eax, DWORD PTR ?prj@@3VCProject@@A+684
  00049	3d d1 0b 00 00	 cmp	 eax, 3025		; 00000bd1H
  0004e	7f 21		 jg	 SHORT $LN42@MoveProces

; 579  : 	LPCTSTR szErr = Error( _T( "%s min:%d, max:%d, index:%d" ), szMsg, nMin, nMax, nIndex ); 

  00050	68 d1 0b 00 00	 push	 3025			; 00000bd1H
  00055	50		 push	 eax
  00056	6a 00		 push	 0
  00058	68 00 00 00 00	 push	 OFFSET ??_C@_0BE@OHDBLHOM@GetText?5range_error@
  0005d	68 00 00 00 00	 push	 OFFSET ??_C@_0BM@HMFGHCP@?$CFs?5min?3?$CFd?0?5max?3?$CFd?0?5index?3?$CFd@
  00062	e8 00 00 00 00	 call	 ?Error@@YAPBDPBDZZ	; Error
  00067	83 c4 14	 add	 esp, 20			; 00000014H

; 1427 : 	VERIFY_RANGE( (int)( dwIndex ), 0, m_colorText.GetSize(), "GetText range_error", "error" );

  0006a	b9 00 00 00 00	 mov	 ecx, OFFSET ??_C@_05KKCIMGE@error@
  0006f	eb 1b		 jmp	 SHORT $LN41@MoveProces
$LN42@MoveProces:
; File C:\IAGOS\server\v18\Source\Source\_Common\data.h

; 270  : 	if( dwIndex >= (DWORD)m_nMaxIndex )

  00071	76 14		 jbe	 SHORT $LN127@MoveProces

; 271  : 		return NULL;
; 272  : 	return (T*) m_apOffset[ dwIndex ];

  00073	a1 9c 02 00 00	 mov	 eax, DWORD PTR ?prj@@3VCProject@@A+668
  00078	8b 88 44 2f 00
	00		 mov	 ecx, DWORD PTR [eax+12100]
; File C:\IAGOS\server\v18\Source\Source\_Common\Project.h

; 1428 : 	if( m_colorText.GetAt( dwIndex ) == NULL )

  0007e	85 c9		 test	 ecx, ecx
  00080	74 05		 je	 SHORT $LN127@MoveProces

; 1430 : 	return m_colorText.GetAt( dwIndex )->lpszData; 

  00082	8b 49 04	 mov	 ecx, DWORD PTR [ecx+4]
  00085	eb 05		 jmp	 SHORT $LN41@MoveProces
$LN127@MoveProces:

; 1429 : 		return "";

  00087	b9 00 00 00 00	 mov	 ecx, OFFSET ??_C@_00CNPNBAHC@@
$LN41@MoveProces:
; File C:\IAGOS\server\v18\Source\Source\_AIInterface\AIBigMuscle.cpp

; 349  : 			g_DPCoreClient.SendCaption( prj.GetText(TID_GAME_BOSS_BIGMUSCLE_MSG_01), pTarget->GetWorld()->GetID() );	

  0008c	8b 86 6c 01 00
	00		 mov	 eax, DWORD PTR [esi+364]
  00092	6a 00		 push	 0
  00094	ff 30		 push	 DWORD PTR [eax]
  00096	51		 push	 ecx
  00097	b9 00 00 00 00	 mov	 ecx, OFFSET ?g_DPCoreClient@@3VCDPCoreClient@@A ; g_DPCoreClient
  0009c	e8 00 00 00 00	 call	 ?SendCaption@CDPCoreClient@@QAEXPBDKH@Z ; CDPCoreClient::SendCaption
; File C:\IAGOS\server\v18\Source\Source\_Common\Obj.h

; 215  : 	D3DXVECTOR3		GetPos()	{ return m_vPos; }

  000a1	8b 86 68 01 00
	00		 mov	 eax, DWORD PTR [esi+360]
  000a7	f3 0f 7e 86 60
	01 00 00	 movq	 xmm0, QWORD PTR [esi+352]
  000af	89 45 f8	 mov	 DWORD PTR $T8[ebp], eax
; File C:\IAGOS\server\v18\Source\Source\_Common\Project.h

; 1427 : 	VERIFY_RANGE( (int)( dwIndex ), 0, m_colorText.GetSize(), "GetText range_error", "error" );

  000b2	a1 ac 02 00 00	 mov	 eax, DWORD PTR ?prj@@3VCProject@@A+684
; File C:\IAGOS\server\v18\Source\Source\_Common\Obj.h

; 215  : 	D3DXVECTOR3		GetPos()	{ return m_vPos; }

  000b7	66 0f d6 45 e8	 movq	 QWORD PTR $T3[ebp], xmm0
; File C:\IAGOS\server\v18\Source\Source\_Common\Project.h

; 1427 : 	VERIFY_RANGE( (int)( dwIndex ), 0, m_colorText.GetSize(), "GetText range_error", "error" );

  000bc	3d d2 0b 00 00	 cmp	 eax, 3026		; 00000bd2H
  000c1	7f 26		 jg	 SHORT $LN60@MoveProces

; 579  : 	LPCTSTR szErr = Error( _T( "%s min:%d, max:%d, index:%d" ), szMsg, nMin, nMax, nIndex ); 

  000c3	68 d2 0b 00 00	 push	 3026			; 00000bd2H
  000c8	50		 push	 eax
  000c9	6a 00		 push	 0
  000cb	68 00 00 00 00	 push	 OFFSET ??_C@_0BE@OHDBLHOM@GetText?5range_error@
  000d0	68 00 00 00 00	 push	 OFFSET ??_C@_0BM@HMFGHCP@?$CFs?5min?3?$CFd?0?5max?3?$CFd?0?5index?3?$CFd@
  000d5	e8 00 00 00 00	 call	 ?Error@@YAPBDPBDZZ	; Error

; 1427 : 	VERIFY_RANGE( (int)( dwIndex ), 0, m_colorText.GetSize(), "GetText range_error", "error" );

  000da	f3 0f 7e 45 e8	 movq	 xmm0, QWORD PTR $T3[ebp]

; 579  : 	LPCTSTR szErr = Error( _T( "%s min:%d, max:%d, index:%d" ), szMsg, nMin, nMax, nIndex ); 

  000df	83 c4 14	 add	 esp, 20			; 00000014H

; 1427 : 	VERIFY_RANGE( (int)( dwIndex ), 0, m_colorText.GetSize(), "GetText range_error", "error" );

  000e2	b9 00 00 00 00	 mov	 ecx, OFFSET ??_C@_05KKCIMGE@error@
  000e7	eb 1b		 jmp	 SHORT $LN59@MoveProces
$LN60@MoveProces:
; File C:\IAGOS\server\v18\Source\Source\_Common\data.h

; 270  : 	if( dwIndex >= (DWORD)m_nMaxIndex )

  000e9	76 14		 jbe	 SHORT $LN128@MoveProces

; 271  : 		return NULL;
; 272  : 	return (T*) m_apOffset[ dwIndex ];

  000eb	a1 9c 02 00 00	 mov	 eax, DWORD PTR ?prj@@3VCProject@@A+668
  000f0	8b 88 48 2f 00
	00		 mov	 ecx, DWORD PTR [eax+12104]
; File C:\IAGOS\server\v18\Source\Source\_Common\Project.h

; 1428 : 	if( m_colorText.GetAt( dwIndex ) == NULL )

  000f6	85 c9		 test	 ecx, ecx
  000f8	74 05		 je	 SHORT $LN128@MoveProces

; 1430 : 	return m_colorText.GetAt( dwIndex )->lpszData; 

  000fa	8b 49 04	 mov	 ecx, DWORD PTR [ecx+4]
  000fd	eb 05		 jmp	 SHORT $LN59@MoveProces
$LN128@MoveProces:

; 1429 : 		return "";

  000ff	b9 00 00 00 00	 mov	 ecx, OFFSET ??_C@_00CNPNBAHC@@
$LN59@MoveProces:
; File C:\IAGOS\server\v18\Source\Source\_AIInterface\AIBigMuscle.cpp

; 351  : 			g_UserMng.AddWorldShout( pMover->GetName(), prj.GetText(TID_GAME_BOSS_BIGMUSCLE_MSG_02),

  00104	ff b6 6c 01 00
	00		 push	 DWORD PTR [esi+364]
  0010a	8b 55 f8	 mov	 edx, DWORD PTR $T8[ebp]
  0010d	83 ec 0c	 sub	 esp, 12			; 0000000cH
  00110	8b c4		 mov	 eax, esp
  00112	51		 push	 ecx
  00113	66 0f d6 00	 movq	 QWORD PTR [eax], xmm0
  00117	8b cb		 mov	 ecx, ebx
  00119	6a 00		 push	 0
  0011b	89 50 08	 mov	 DWORD PTR [eax+8], edx
  0011e	e8 00 00 00 00	 call	 ?GetName@CMover@@QAEPBDH@Z ; CMover::GetName
  00123	50		 push	 eax
  00124	b9 00 00 00 00	 mov	 ecx, OFFSET ?g_UserMng@@3VCUserMng@@A ; g_UserMng
  00129	e8 00 00 00 00	 call	 ?AddWorldShout@CUserMng@@QAEXPBD0UD3DXVECTOR3@@PAVCWorld@@@Z ; CUserMng::AddWorldShout
; File C:\IAGOS\server\v18\Source\Source\_Common\Obj.h

; 215  : 	D3DXVECTOR3		GetPos()	{ return m_vPos; }

  0012e	8b 86 68 01 00
	00		 mov	 eax, DWORD PTR [esi+360]
  00134	f3 0f 7e 86 60
	01 00 00	 movq	 xmm0, QWORD PTR [esi+352]
  0013c	89 45 f8	 mov	 DWORD PTR $T9[ebp], eax
; File C:\IAGOS\server\v18\Source\Source\_Common\Project.h

; 1427 : 	VERIFY_RANGE( (int)( dwIndex ), 0, m_colorText.GetSize(), "GetText range_error", "error" );

  0013f	a1 ac 02 00 00	 mov	 eax, DWORD PTR ?prj@@3VCProject@@A+684
; File C:\IAGOS\server\v18\Source\Source\_Common\Obj.h

; 215  : 	D3DXVECTOR3		GetPos()	{ return m_vPos; }

  00144	66 0f d6 45 e8	 movq	 QWORD PTR $T4[ebp], xmm0
; File C:\IAGOS\server\v18\Source\Source\_Common\Project.h

; 1427 : 	VERIFY_RANGE( (int)( dwIndex ), 0, m_colorText.GetSize(), "GetText range_error", "error" );

  00149	3d d3 0b 00 00	 cmp	 eax, 3027		; 00000bd3H
  0014e	7f 26		 jg	 SHORT $LN78@MoveProces

; 579  : 	LPCTSTR szErr = Error( _T( "%s min:%d, max:%d, index:%d" ), szMsg, nMin, nMax, nIndex ); 

  00150	68 d3 0b 00 00	 push	 3027			; 00000bd3H
  00155	50		 push	 eax
  00156	6a 00		 push	 0
  00158	68 00 00 00 00	 push	 OFFSET ??_C@_0BE@OHDBLHOM@GetText?5range_error@
  0015d	68 00 00 00 00	 push	 OFFSET ??_C@_0BM@HMFGHCP@?$CFs?5min?3?$CFd?0?5max?3?$CFd?0?5index?3?$CFd@
  00162	e8 00 00 00 00	 call	 ?Error@@YAPBDPBDZZ	; Error

; 1427 : 	VERIFY_RANGE( (int)( dwIndex ), 0, m_colorText.GetSize(), "GetText range_error", "error" );

  00167	f3 0f 7e 45 e8	 movq	 xmm0, QWORD PTR $T4[ebp]

; 579  : 	LPCTSTR szErr = Error( _T( "%s min:%d, max:%d, index:%d" ), szMsg, nMin, nMax, nIndex ); 

  0016c	83 c4 14	 add	 esp, 20			; 00000014H

; 1427 : 	VERIFY_RANGE( (int)( dwIndex ), 0, m_colorText.GetSize(), "GetText range_error", "error" );

  0016f	b9 00 00 00 00	 mov	 ecx, OFFSET ??_C@_05KKCIMGE@error@
  00174	eb 1b		 jmp	 SHORT $LN77@MoveProces
$LN78@MoveProces:
; File C:\IAGOS\server\v18\Source\Source\_Common\data.h

; 270  : 	if( dwIndex >= (DWORD)m_nMaxIndex )

  00176	76 14		 jbe	 SHORT $LN129@MoveProces

; 271  : 		return NULL;
; 272  : 	return (T*) m_apOffset[ dwIndex ];

  00178	a1 9c 02 00 00	 mov	 eax, DWORD PTR ?prj@@3VCProject@@A+668
  0017d	8b 88 4c 2f 00
	00		 mov	 ecx, DWORD PTR [eax+12108]
; File C:\IAGOS\server\v18\Source\Source\_Common\Project.h

; 1428 : 	if( m_colorText.GetAt( dwIndex ) == NULL )

  00183	85 c9		 test	 ecx, ecx
  00185	74 05		 je	 SHORT $LN129@MoveProces

; 1430 : 	return m_colorText.GetAt( dwIndex )->lpszData; 

  00187	8b 49 04	 mov	 ecx, DWORD PTR [ecx+4]
  0018a	eb 05		 jmp	 SHORT $LN77@MoveProces
$LN129@MoveProces:

; 1429 : 		return "";

  0018c	b9 00 00 00 00	 mov	 ecx, OFFSET ??_C@_00CNPNBAHC@@
$LN77@MoveProces:
; File C:\IAGOS\server\v18\Source\Source\_AIInterface\AIBigMuscle.cpp

; 353  : 			g_UserMng.AddWorldShout( pMover->GetName(), prj.GetText(TID_GAME_BOSS_BIGMUSCLE_MSG_03),

  00191	ff b6 6c 01 00
	00		 push	 DWORD PTR [esi+364]
  00197	8b 55 f8	 mov	 edx, DWORD PTR $T9[ebp]
  0019a	83 ec 0c	 sub	 esp, 12			; 0000000cH
  0019d	8b c4		 mov	 eax, esp
  0019f	51		 push	 ecx
  001a0	66 0f d6 00	 movq	 QWORD PTR [eax], xmm0
  001a4	8b cb		 mov	 ecx, ebx
  001a6	6a 00		 push	 0
  001a8	89 50 08	 mov	 DWORD PTR [eax+8], edx
  001ab	e8 00 00 00 00	 call	 ?GetName@CMover@@QAEPBDH@Z ; CMover::GetName
  001b0	50		 push	 eax
  001b1	b9 00 00 00 00	 mov	 ecx, OFFSET ?g_UserMng@@3VCUserMng@@A ; g_UserMng
  001b6	e8 00 00 00 00	 call	 ?AddWorldShout@CUserMng@@QAEXPBD0UD3DXVECTOR3@@PAVCWorld@@@Z ; CUserMng::AddWorldShout

; 354  : 					pTarget->GetPos(), pTarget->GetWorld() );
; 355  : 			
; 356  : 			g_UserMng.AddCreateSfxObj( pTarget, XI_SKILL_DROP_DUST_RAIN );

  001bb	6a 00		 push	 0
  001bd	83 ec 0c	 sub	 esp, 12			; 0000000cH
  001c0	b9 00 00 00 00	 mov	 ecx, OFFSET ?g_UserMng@@3VCUserMng@@A ; g_UserMng
  001c5	c7 44 24 08 00
	00 00 00	 mov	 DWORD PTR [esp+8], 0
  001cd	c7 44 24 04 00
	00 00 00	 mov	 DWORD PTR [esp+4], 0
  001d5	c7 04 24 00 00
	00 00		 mov	 DWORD PTR [esp], 0
  001dc	68 d1 06 00 00	 push	 1745			; 000006d1H
  001e1	56		 push	 esi
  001e2	e8 00 00 00 00	 call	 ?AddCreateSfxObj@CUserMng@@QAEXPAVCCtrl@@KMMMH@Z ; CUserMng::AddCreateSfxObj

; 357  : 			g_UserMng.AddCommonPlace( pTarget, COMMONPLACE_QUAKE );

  001e7	6a 02		 push	 2
  001e9	56		 push	 esi
  001ea	b9 00 00 00 00	 mov	 ecx, OFFSET ?g_UserMng@@3VCUserMng@@A ; g_UserMng
  001ef	e8 00 00 00 00	 call	 ?AddCommonPlace@CUserMng@@QAEXPAVCCtrl@@E@Z ; CUserMng::AddCommonPlace

; 358  : 
; 359  : 			ItemProp *pSkillProp;
; 360  : 			AddSkillProp *pAddSkillProp;
; 361  : 			BOOL bSuccess = pMover->GetSkillProp( &pSkillProp, &pAddSkillProp, SI_GEN_BLEEDING, 10, "CAIBigMuscle::MoveProcessRage" );

  001f4	8b 03		 mov	 eax, DWORD PTR [ebx]
  001f6	8d 4d f4	 lea	 ecx, DWORD PTR _pAddSkillProp$7[ebp]
  001f9	68 00 00 00 00	 push	 OFFSET ??_C@_0BO@KPFKDMKF@CAIBigMuscle?3?3MoveProcessRage@
  001fe	6a 0a		 push	 10			; 0000000aH
  00200	68 e4 00 00 00	 push	 228			; 000000e4H
  00205	51		 push	 ecx
  00206	8d 4d f0	 lea	 ecx, DWORD PTR _pSkillProp$5[ebp]
  00209	51		 push	 ecx
  0020a	8b cb		 mov	 ecx, ebx
  0020c	ff 50 30	 call	 DWORD PTR [eax+48]

; 362  : 			if( bSuccess )

  0020f	85 c0		 test	 eax, eax
  00211	74 1e		 je	 SHORT $LN136@MoveProces

; 363  : 				pMover->ApplySkillAround( pMover, OBJTYPE_PLAYER, pSkillProp, pAddSkillProp , false, FALSE, 255.0f );										

  00213	6a 00		 push	 0
  00215	51		 push	 ecx
  00216	c7 04 24 00 00
	7f 43		 mov	 DWORD PTR [esp], 1132396544 ; 437f0000H
  0021d	8b cb		 mov	 ecx, ebx
  0021f	6a 00		 push	 0
  00221	6a 00		 push	 0
  00223	ff 75 f4	 push	 DWORD PTR _pAddSkillProp$7[ebp]
  00226	ff 75 f0	 push	 DWORD PTR _pSkillProp$5[ebp]
  00229	6a 01		 push	 1
  0022b	53		 push	 ebx
  0022c	e8 00 00 00 00	 call	 ?ApplySkillAround@CCtrl@@QAEXPAV1@HPAUItemProp@@PAUAddSkillProp@@_NHMH@Z ; CCtrl::ApplySkillAround
$LN136@MoveProces:

; 364  : 		}
; 365  : 	}
; 366  : 
; 367  : 
; 368  : 	if( m_nEvent == EPT_READY )

  00231	8b 4d fc	 mov	 ecx, DWORD PTR _pModel$1$[ebp]
$LN4@MoveProces:
  00234	8b 47 58	 mov	 eax, DWORD PTR [edi+88]
  00237	85 c0		 test	 eax, eax
  00239	75 7b		 jne	 SHORT $LN5@MoveProces

; 370  : 		if( pMover->m_pActMover->m_bGround == 1 && pMover->m_pActMover->GetActionState() != OBJSTA_APPEAR )		// 바닥에 떨어지면..

  0023b	8b 8b 38 02 00
	00		 mov	 ecx, DWORD PTR [ebx+568]
  00241	83 79 44 01	 cmp	 DWORD PTR [ecx+68], 1
  00245	75 24		 jne	 SHORT $LN96@MoveProces
; File C:\IAGOS\server\v18\Source\Source\_AIInterface\Action.h

; 305  : 	DWORD			GetActionState() { return m_dwState & OBJSTA_ACTION_ALL; }

  00247	8b 41 04	 mov	 eax, DWORD PTR [ecx+4]
  0024a	25 00 00 00 f0	 and	 eax, -268435456		; f0000000H
; File C:\IAGOS\server\v18\Source\Source\_AIInterface\AIBigMuscle.cpp

; 370  : 		if( pMover->m_pActMover->m_bGround == 1 && pMover->m_pActMover->GetActionState() != OBJSTA_APPEAR )		// 바닥에 떨어지면..

  0024f	3d 00 00 00 20	 cmp	 eax, 536870912		; 20000000H
  00254	74 15		 je	 SHORT $LN96@MoveProces
; File C:\IAGOS\server\v18\Source\Source\_Common\Mover.h

; 1785 : 	if( m_pActMover )	

  00256	85 c9		 test	 ecx, ecx
  00258	74 11		 je	 SHORT $LN96@MoveProces

; 1786 : 		return m_pActMover->SendActMsg( dwMsg, nParam1, nParam2, nParam3, nParam4 );	

  0025a	8b 01		 mov	 eax, DWORD PTR [ecx]
  0025c	6a 00		 push	 0
  0025e	6a 00		 push	 0
  00260	6a 00		 push	 0
  00262	6a 00		 push	 0
  00264	6a 00		 push	 0
  00266	6a 0e		 push	 14			; 0000000eH
  00268	ff 50 04	 call	 DWORD PTR [eax+4]
$LN96@MoveProces:
; File C:\IAGOS\server\v18\Source\Source\_AIInterface\AIBigMuscle.cpp

; 372  : 		if( ++m_nAppearCnt >= PROCESS_COUNT * 5 )		// 

  0026b	8b 87 80 00 00
	00		 mov	 eax, DWORD PTR [edi+128]
  00271	40		 inc	 eax
  00272	89 87 80 00 00
	00		 mov	 DWORD PTR [edi+128], eax
  00278	83 f8 4b	 cmp	 eax, 75			; 0000004bH
  0027b	0f 8c 20 03 00
	00		 jl	 $LN18@MoveProces

; 373  : 		{
; 374  : 			PostAIMsg( AIMSG_END_APPEAR );		// 등장씬 애니메이션이 끝났음을 알림.

  00281	8b 07		 mov	 eax, DWORD PTR [edi]
  00283	8b cf		 mov	 ecx, edi
  00285	6a 00		 push	 0
  00287	6a 00		 push	 0
  00289	6a 00		 push	 0
  0028b	6a 10		 push	 16			; 00000010H
  0028d	ff 50 10	 call	 DWORD PTR [eax+16]

; 375  : 			pMover->m_pActMover->ResetState( OBJSTA_ACTION_ALL );

  00290	8b 8b 38 02 00
	00		 mov	 ecx, DWORD PTR [ebx+568]
  00296	68 00 00 00 f0	 push	 -268435456		; f0000000H
  0029b	e8 00 00 00 00	 call	 ?ResetState@CAction@@QAEXK@Z ; CAction::ResetState

; 376  : 			m_nAppearCnt = 0;

  002a0	c7 87 80 00 00
	00 00 00 00 00	 mov	 DWORD PTR [edi+128], 0

; 499  : 
; 500  : #ifdef __INTERNALSERVER
; 501  : 			{
; 502  : 				CString strType;
; 503  : 				switch( m_nAttackType )
; 504  : 				{
; 505  : 				case CAT_NORMAL:		strType = "기본";	break;
; 506  : 				case CAT_QUAKE_ONE:		strType = "두손내려침-광역";	break;
; 507  : 				case CAT_QUAKEDOUBLE:		strType = "두손내려침";	break;
; 508  : 				case CAT_NORMAL2:		strType = "한손 내려침";	break;
; 509  : 				}
; 510  : 				CString str;
; 511  : 				str.Format( "AtkType:%s Dist:%5.2f", strType, sqrt(fDistSq) );
; 512  : 				DEBUGOUT2( str, "boss(BigMuscle).txt" );
; 513  : 			}
; 514  : #endif
; 515  : 			
; 516  : 				
; 517  : 		} else	// 리어택 타이밍에 공격.
; 518  : 		{
; 519  : 			// 공격하기 적절한 위치로 이동하자.
; 520  : 		}
; 521  : 	}
; 522  : 
; 523  : 	return TRUE;

  002aa	b8 01 00 00 00	 mov	 eax, 1

; 524  : }

  002af	5f		 pop	 edi
  002b0	5e		 pop	 esi
  002b1	5b		 pop	 ebx
  002b2	8b e5		 mov	 esp, ebp
  002b4	5d		 pop	 ebp
  002b5	c3		 ret	 0
$LN5@MoveProces:

; 377  : 		}
; 378  : 		// 아무것도 안함.
; 379  : 	} else
; 380  : 	// 공격중 애니.
; 381  : 	if( m_nEvent == EPT_ATTACKING )

  002b6	83 f8 02	 cmp	 eax, 2
  002b9	75 60		 jne	 SHORT $LN9@MoveProces

; 382  : 	{
; 383  : 		BOOL bEnd = FALSE;
; 384  : 
; 385  : 		if( pMover->m_dwMotion == MTI_STAND || pModel->IsEndFrame()	)

  002bb	83 bb d8 02 00
	00 00		 cmp	 DWORD PTR [ebx+728], 0
  002c2	74 09		 je	 SHORT $LN12@MoveProces
  002c4	83 b9 9c 00 00
	00 00		 cmp	 DWORD PTR [ecx+156], 0
  002cb	74 07		 je	 SHORT $LN134@MoveProces
$LN12@MoveProces:

; 386  : 		{
; 387  : 			bEnd = TRUE;		// 공격 프레임 끝났는가. - 여기다 이걸 안넣어도 되는데 만약 공격동작의 끝을 놓치는 일이 생길때를 대비해서 넣어두면 조타.

  002cd	bb 01 00 00 00	 mov	 ebx, 1
  002d2	eb 02		 jmp	 SHORT $LN11@MoveProces
$LN134@MoveProces:

; 382  : 	{
; 383  : 		BOOL bEnd = FALSE;
; 384  : 
; 385  : 		if( pMover->m_dwMotion == MTI_STAND || pModel->IsEndFrame()	)

  002d4	33 db		 xor	 ebx, ebx
$LN11@MoveProces:

; 388  : 		}
; 389  : 		if( timeGetTime() >= m_tmTimeOver + SEC(15) )				// 공격시작한지 10초이상오버됐으면 걍 끝남.

  002d6	8b 77 6c	 mov	 esi, DWORD PTR [edi+108]
  002d9	81 c6 98 3a 00
	00		 add	 esi, 15000		; 00003a98H
  002df	ff 15 00 00 00
	00		 call	 DWORD PTR __imp__timeGetTime@0
  002e5	3b c6		 cmp	 eax, esi
  002e7	73 08		 jae	 SHORT $LN131@MoveProces

; 390  : 			bEnd = TRUE;
; 391  : 		if( bEnd )

  002e9	85 db		 test	 ebx, ebx
  002eb	0f 84 b0 02 00
	00		 je	 $LN18@MoveProces
$LN131@MoveProces:

; 392  : 		{
; 393  : 			m_nEvent = EPT_MOVING;				// 이동상태로 전환.

  002f1	c7 47 58 01 00
	00 00		 mov	 DWORD PTR [edi+88], 1

; 394  : 			m_tmReattack = timeGetTime();		// 리어택 타임 리셋;

  002f8	ff 15 00 00 00
	00		 call	 DWORD PTR __imp__timeGetTime@0
  002fe	89 47 60	 mov	 DWORD PTR [edi+96], eax

; 499  : 
; 500  : #ifdef __INTERNALSERVER
; 501  : 			{
; 502  : 				CString strType;
; 503  : 				switch( m_nAttackType )
; 504  : 				{
; 505  : 				case CAT_NORMAL:		strType = "기본";	break;
; 506  : 				case CAT_QUAKE_ONE:		strType = "두손내려침-광역";	break;
; 507  : 				case CAT_QUAKEDOUBLE:		strType = "두손내려침";	break;
; 508  : 				case CAT_NORMAL2:		strType = "한손 내려침";	break;
; 509  : 				}
; 510  : 				CString str;
; 511  : 				str.Format( "AtkType:%s Dist:%5.2f", strType, sqrt(fDistSq) );
; 512  : 				DEBUGOUT2( str, "boss(BigMuscle).txt" );
; 513  : 			}
; 514  : #endif
; 515  : 			
; 516  : 				
; 517  : 		} else	// 리어택 타이밍에 공격.
; 518  : 		{
; 519  : 			// 공격하기 적절한 위치로 이동하자.
; 520  : 		}
; 521  : 	}
; 522  : 
; 523  : 	return TRUE;

  00301	b8 01 00 00 00	 mov	 eax, 1
  00306	c7 47 64 d0 07
	00 00		 mov	 DWORD PTR [edi+100], 2000 ; 000007d0H
  0030d	c7 47 70 ff ff
	ff ff		 mov	 DWORD PTR [edi+112], -1

; 524  : }

  00314	5f		 pop	 edi
  00315	5e		 pop	 esi
  00316	5b		 pop	 ebx
  00317	8b e5		 mov	 esp, ebp
  00319	5d		 pop	 ebp
  0031a	c3		 ret	 0
$LN9@MoveProces:

; 395  : 			m_tmAddReattack = 2000; // xRandom( 2000 );	// x초 범위내에서 리어택이 단축될 수 있다.
; 396  : 			m_idTarget = NULL_ID;				// 타겟을 클리어.
; 397  : 		} 
; 398  : 
; 399  : 	} else
; 400  : 	// 공격을 위해 추격중.
; 401  : 	if( m_nEvent == EPT_TRACKING )

  0031b	83 f8 03	 cmp	 eax, 3
  0031e	75 46		 jne	 SHORT $LN15@MoveProces

; 402  : 	{
; 403  : 		if( timeGetTime() >= m_tmTrace + 3000 )		// 추적을 시작한지 3초가 지나면 추적을 포기

  00320	8b 77 68	 mov	 esi, DWORD PTR [edi+104]
  00323	81 c6 b8 0b 00
	00		 add	 esi, 3000		; 00000bb8H
  00329	ff 15 00 00 00
	00		 call	 DWORD PTR __imp__timeGetTime@0
  0032f	3b c6		 cmp	 eax, esi
  00331	0f 82 6a 02 00
	00		 jb	 $LN18@MoveProces

; 404  : 		{
; 405  : 			m_nEvent = EPT_MOVING;

  00337	c7 47 58 01 00
	00 00		 mov	 DWORD PTR [edi+88], 1

; 499  : 
; 500  : #ifdef __INTERNALSERVER
; 501  : 			{
; 502  : 				CString strType;
; 503  : 				switch( m_nAttackType )
; 504  : 				{
; 505  : 				case CAT_NORMAL:		strType = "기본";	break;
; 506  : 				case CAT_QUAKE_ONE:		strType = "두손내려침-광역";	break;
; 507  : 				case CAT_QUAKEDOUBLE:		strType = "두손내려침";	break;
; 508  : 				case CAT_NORMAL2:		strType = "한손 내려침";	break;
; 509  : 				}
; 510  : 				CString str;
; 511  : 				str.Format( "AtkType:%s Dist:%5.2f", strType, sqrt(fDistSq) );
; 512  : 				DEBUGOUT2( str, "boss(BigMuscle).txt" );
; 513  : 			}
; 514  : #endif
; 515  : 			
; 516  : 				
; 517  : 		} else	// 리어택 타이밍에 공격.
; 518  : 		{
; 519  : 			// 공격하기 적절한 위치로 이동하자.
; 520  : 		}
; 521  : 	}
; 522  : 
; 523  : 	return TRUE;

  0033e	b8 01 00 00 00	 mov	 eax, 1
  00343	c7 47 70 00 00
	00 00		 mov	 DWORD PTR [edi+112], 0
  0034a	c7 47 7c 00 00
	00 00		 mov	 DWORD PTR [edi+124], 0
  00351	c7 47 78 00 00
	00 00		 mov	 DWORD PTR [edi+120], 0
  00358	c7 47 74 00 00
	00 00		 mov	 DWORD PTR [edi+116], 0

; 524  : }

  0035f	5f		 pop	 edi
  00360	5e		 pop	 esi
  00361	5b		 pop	 ebx
  00362	8b e5		 mov	 esp, ebp
  00364	5d		 pop	 ebp
  00365	c3		 ret	 0
$LN15@MoveProces:

; 406  : 			m_idTarget = NULL;			// 여기서 이걸 클리어 해줘야 아래에서 SelectTarget()을 다시 한다 .
; 407  : 			m_vTarget.x = m_vTarget.y = m_vTarget.z = 0;
; 408  : 		}
; 409  : 	} else	
; 410  : 	//------------- 공격중이 아님. --------------------
; 411  : 	{
; 412  : 
; 413  : 		if( timeGetTime() >= m_tmReattack + (2000 - m_tmAddReattack) )		// 리어택 시간이 됐는가?  기본적으로 5초간격에 AddReattack으로 줄어들 수 있음.

  00366	8b 77 60	 mov	 esi, DWORD PTR [edi+96]
  00369	2b 77 64	 sub	 esi, DWORD PTR [edi+100]
  0036c	a1 00 00 00 00	 mov	 eax, DWORD PTR __imp__timeGetTime@0
  00371	81 c6 d0 07 00
	00		 add	 esi, 2000		; 000007d0H
  00377	89 45 f4	 mov	 DWORD PTR tv1100[ebp], eax
  0037a	ff d0		 call	 eax
  0037c	3b c6		 cmp	 eax, esi
  0037e	0f 82 1d 02 00
	00		 jb	 $LN18@MoveProces

; 414  : 		{
; 415  : 			FLOAT fRadius = pMover->GetRadiusXZ();		// this의 반지름

  00384	8b cb		 mov	 ecx, ebx
  00386	e8 00 00 00 00	 call	 ?GetRadiusXZ@CObj@@QAEMXZ ; CObj::GetRadiusXZ

; 416  : 			FLOAT fRadiusSq = fRadius * fRadius;		// 반지름Sq버전.
; 417  : 			
; 418  : 			if( m_idTarget == NULL_ID &&										// 공격대상이 정해지지 않았고

  0038b	83 7f 70 ff	 cmp	 DWORD PTR [edi+112], -1
  0038f	d9 5d f0	 fstp	 DWORD PTR _fRadius$6[ebp]
  00392	f3 0f 10 4d f0	 movss	 xmm1, DWORD PTR _fRadius$6[ebp]
  00397	0f 28 c1	 movaps	 xmm0, xmm1
  0039a	f3 0f 11 4d fc	 movss	 DWORD PTR _fArrivalRange$1$[ebp], xmm1
  0039f	f3 0f 59 c1	 mulss	 xmm0, xmm1
  003a3	0f 57 c9	 xorps	 xmm1, xmm1
  003a6	f3 0f 11 45 f0	 movss	 DWORD PTR _fRadiusSq$1$[ebp], xmm0
  003ab	75 3c		 jne	 SHORT $LN21@MoveProces
  003ad	f3 0f 10 47 74	 movss	 xmm0, DWORD PTR [edi+116]
  003b2	0f 2e c1	 ucomiss xmm0, xmm1
  003b5	9f		 lahf
  003b6	f6 c4 44	 test	 ah, 68			; 00000044H
  003b9	7a 2e		 jp	 SHORT $LN21@MoveProces
  003bb	f3 0f 10 47 78	 movss	 xmm0, DWORD PTR [edi+120]
  003c0	0f 2e c1	 ucomiss xmm0, xmm1
  003c3	9f		 lahf
  003c4	f6 c4 44	 test	 ah, 68			; 00000044H
  003c7	7a 20		 jp	 SHORT $LN21@MoveProces
  003c9	f3 0f 10 47 7c	 movss	 xmm0, DWORD PTR [edi+124]
  003ce	0f 2e c1	 ucomiss xmm0, xmm1
  003d1	9f		 lahf
  003d2	f6 c4 44	 test	 ah, 68			; 00000044H
  003d5	7a 12		 jp	 SHORT $LN21@MoveProces

; 419  : 				(m_vTarget.x == 0 && m_vTarget.y == 0 && m_vTarget.z == 0) )	// 공격위치도 정해지지 않았다.
; 420  : 			{
; 421  : 				// 어떤 쉐리를 공격할까....? 를 선정함.
; 422  : 				if( SelectTarget() == FALSE )

  003d7	8b cf		 mov	 ecx, edi
  003d9	e8 00 00 00 00	 call	 ?SelectTarget@CAIBigMuscle@@AAEHXZ ; CAIBigMuscle::SelectTarget
  003de	85 c0		 test	 eax, eax
  003e0	0f 84 7b 01 00
	00		 je	 $LN26@MoveProces
  003e6	0f 57 c9	 xorps	 xmm1, xmm1
$LN21@MoveProces:

; 423  : 					return FALSE;
; 424  : 			}
; 425  : 
; 426  : 			D3DXVECTOR3	vTarget;
; 427  : 			FLOAT	fDistSq = 0;					// 공격지점과 this의 거리.
; 428  : 			CMover *pTarget = NULL;
; 429  : 			if( m_idTarget != NULL_ID )		// 타겟오브젝이 있을때

  003e9	8b 47 70	 mov	 eax, DWORD PTR [edi+112]
  003ec	83 f8 ff	 cmp	 eax, -1
  003ef	74 2d		 je	 SHORT $LN22@MoveProces

; 430  : 			{
; 431  : 				pTarget = prj.GetMover( m_idTarget );

  003f1	50		 push	 eax
  003f2	b9 00 00 00 00	 mov	 ecx, OFFSET ?prj@@3VCProject@@A ; prj
  003f7	e8 00 00 00 00	 call	 ?GetMover@CProject@@QAEPAVCMover@@K@Z ; CProject::GetMover
; File C:\IAGOS\server\v18\Source\Source\_Common\Obj.h

; 327  : 	return pObj && ( pObj->IsDelete() == FALSE ); 

  003fc	85 c0		 test	 eax, eax
  003fe	0f 84 56 01 00
	00		 je	 $LN36@MoveProces

; 180  : 	BOOL			IsDelete()	{ return (m_dwFlags & OBJ_FLAG_DELETE);  }

  00404	f6 40 04 01	 test	 BYTE PTR [eax+4], 1

; 327  : 	return pObj && ( pObj->IsDelete() == FALSE ); 

  00408	0f 85 4c 01 00
	00		 jne	 $LN36@MoveProces
; File C:\IAGOS\server\v18\Source\Source\_AIInterface\AIBigMuscle.cpp

; 433  : 					vTarget = pTarget->GetPos();		// 공격좌표는 타겟무버의 좌표

  0040e	f3 0f 7e 80 60
	01 00 00	 movq	 xmm0, QWORD PTR [eax+352]
  00416	8b 80 68 01 00
	00		 mov	 eax, DWORD PTR [eax+360]

; 434  : 				else
; 435  : 				{
; 436  : 					m_idTarget = NULL_ID;
; 437  : 					return FALSE;		// 타겟이 거시기 하면 걍리턴.
; 438  : 				}
; 439  : 			} else

  0041c	eb 3e		 jmp	 SHORT $LN175@MoveProces
$LN22@MoveProces:

; 440  : 			if( m_vTarget.x && m_vTarget.y && m_vTarget.z )		// 공격 좌표로 설정되어 있을때.

  0041e	f3 0f 10 47 74	 movss	 xmm0, DWORD PTR [edi+116]
  00423	0f 2e c1	 ucomiss xmm0, xmm1
  00426	9f		 lahf
  00427	f6 c4 44	 test	 ah, 68			; 00000044H
  0042a	0f 8b 31 01 00
	00		 jnp	 $LN26@MoveProces
  00430	f3 0f 10 47 78	 movss	 xmm0, DWORD PTR [edi+120]
  00435	0f 2e c1	 ucomiss xmm0, xmm1
  00438	9f		 lahf
  00439	f6 c4 44	 test	 ah, 68			; 00000044H
  0043c	0f 8b 1f 01 00
	00		 jnp	 $LN26@MoveProces
  00442	f3 0f 10 47 7c	 movss	 xmm0, DWORD PTR [edi+124]
  00447	0f 2e c1	 ucomiss xmm0, xmm1
  0044a	9f		 lahf
  0044b	f6 c4 44	 test	 ah, 68			; 00000044H
  0044e	0f 8b 0d 01 00
	00		 jnp	 $LN26@MoveProces

; 441  : 			{
; 442  : 				vTarget = m_vTarget;

  00454	f3 0f 7e 47 74	 movq	 xmm0, QWORD PTR [edi+116]
  00459	8b 47 7c	 mov	 eax, DWORD PTR [edi+124]
$LN175@MoveProces:
; File C:\IAGOS\server\v18\Source\Source\_Common\Obj.h

; 215  : 	D3DXVECTOR3		GetPos()	{ return m_vPos; }

  0045c	66 0f d6 45 e4	 movq	 QWORD PTR _vTarget$2[ebp], xmm0
  00461	f3 0f 7e 83 60
	01 00 00	 movq	 xmm0, QWORD PTR [ebx+352]
; File C:\IAGOS\server\v18\Source\Source\DX_SDK\d3dx9math.inl

; 383  :     return D3DXVECTOR3(x - v.x, y - v.y, z - v.z);

  00469	f3 0f 10 4d e4	 movss	 xmm1, DWORD PTR _vTarget$2[ebp]
  0046e	f3 0f 10 55 e8	 movss	 xmm2, DWORD PTR _vTarget$2[ebp+4]
; File C:\IAGOS\server\v18\Source\Source\_Common\Obj.h

; 215  : 	D3DXVECTOR3		GetPos()	{ return m_vPos; }

  00473	66 0f d6 45 d8	 movq	 QWORD PTR $T1[ebp], xmm0
; File C:\IAGOS\server\v18\Source\Source\DX_SDK\d3dx9math.inl

; 383  :     return D3DXVECTOR3(x - v.x, y - v.y, z - v.z);

  00478	f3 0f 5c 55 dc	 subss	 xmm2, DWORD PTR $T1[ebp+4]
  0047d	f3 0f 5c 4d d8	 subss	 xmm1, DWORD PTR $T1[ebp]
; File C:\IAGOS\server\v18\Source\Source\_Common\Obj.h

; 215  : 	D3DXVECTOR3		GetPos()	{ return m_vPos; }

  00482	89 45 ec	 mov	 DWORD PTR _vTarget$2[ebp+8], eax
; File C:\IAGOS\server\v18\Source\Source\DX_SDK\d3dx9math.inl

; 383  :     return D3DXVECTOR3(x - v.x, y - v.y, z - v.z);

  00485	f3 0f 10 45 ec	 movss	 xmm0, DWORD PTR _vTarget$2[ebp+8]
; File C:\IAGOS\server\v18\Source\Source\_Common\Obj.h

; 215  : 	D3DXVECTOR3		GetPos()	{ return m_vPos; }

  0048a	8b 83 68 01 00
	00		 mov	 eax, DWORD PTR [ebx+360]
  00490	89 45 e0	 mov	 DWORD PTR $T1[ebp+8], eax
; File C:\IAGOS\server\v18\Source\Source\DX_SDK\d3dx9math.inl

; 383  :     return D3DXVECTOR3(x - v.x, y - v.y, z - v.z);

  00493	f3 0f 5c 45 e0	 subss	 xmm0, DWORD PTR $T1[ebp+8]

; 1698 :     return pV->x * pV->x + pV->y * pV->y + pV->z * pV->z;

  00498	f3 0f 59 d2	 mulss	 xmm2, xmm2

; 302  :     z = fz;

  0049c	f3 0f 59 c9	 mulss	 xmm1, xmm1

; 1698 :     return pV->x * pV->x + pV->y * pV->y + pV->z * pV->z;

  004a0	f3 0f 59 c0	 mulss	 xmm0, xmm0
  004a4	f3 0f 58 d1	 addss	 xmm2, xmm1
; File C:\IAGOS\server\v18\Source\Source\_AIInterface\AIBigMuscle.cpp

; 453  : 			if( fDistSq < fRadiusSq * 4.0f )		// 근거리면.

  004a8	f3 0f 10 4d f0	 movss	 xmm1, DWORD PTR _fRadiusSq$1$[ebp]
; File C:\IAGOS\server\v18\Source\Source\DX_SDK\d3dx9math.inl

; 1698 :     return pV->x * pV->x + pV->y * pV->y + pV->z * pV->z;

  004ad	f3 0f 58 d0	 addss	 xmm2, xmm0
; File C:\IAGOS\server\v18\Source\Source\_AIInterface\AIBigMuscle.cpp

; 453  : 			if( fDistSq < fRadiusSq * 4.0f )		// 근거리면.

  004b1	0f 28 c1	 movaps	 xmm0, xmm1
  004b4	f3 0f 59 05 00
	00 00 00	 mulss	 xmm0, DWORD PTR __real@40800000
  004bc	0f 2f c2	 comiss	 xmm0, xmm2
  004bf	76 53		 jbe	 SHORT $LN28@MoveProces
; File C:\IAGOS\server\v18\Source\Source\_Common\xUtil.h

; 16   : 	g_next = g_next * 1103515245 + 12345;// + nRandomSeed[ i++ ];

  004c1	69 35 00 00 00
	00 6d 4e c6 41	 imul	 esi, DWORD PTR ?g_next@@3KA, 1103515245 ; g_next

; 22   : 	return  xRand() % num;

  004cb	b8 1f 85 eb 51	 mov	 eax, 1374389535		; 51eb851fH

; 16   : 	g_next = g_next * 1103515245 + 12345;// + nRandomSeed[ i++ ];

  004d0	81 c6 39 30 00
	00		 add	 esi, 12345		; 00003039H

; 22   : 	return  xRand() % num;

  004d6	f7 e6		 mul	 esi
  004d8	8b ce		 mov	 ecx, esi

; 16   : 	g_next = g_next * 1103515245 + 12345;// + nRandomSeed[ i++ ];

  004da	89 35 00 00 00
	00		 mov	 DWORD PTR ?g_next@@3KA, esi ; g_next

; 22   : 	return  xRand() % num;

  004e0	c1 ea 05	 shr	 edx, 5
  004e3	6b c2 64	 imul	 eax, edx, 100
  004e6	2b c8		 sub	 ecx, eax
; File C:\IAGOS\server\v18\Source\Source\_AIInterface\AIBigMuscle.cpp

; 457  : 				if( dwNum < 85 )

  004e8	83 f9 55	 cmp	 ecx, 85			; 00000055H
  004eb	73 20		 jae	 SHORT $LN30@MoveProces

; 464  : 					fArrivalRange = 5.0f;				// 딱붙어서 밟아야 한다.

  004ed	f3 0f 10 05 00
	00 00 00	 movss	 xmm0, DWORD PTR __real@40a00000
; File C:\IAGOS\server\v18\Source\Source\_Common\xUtil.h

; 16   : 	g_next = g_next * 1103515245 + 12345;// + nRandomSeed[ i++ ];

  004f5	69 c6 6d 4e c6
	41		 imul	 eax, esi, 1103515245
  004fb	05 39 30 00 00	 add	 eax, 12345		; 00003039H
  00500	a3 00 00 00 00	 mov	 DWORD PTR ?g_next@@3KA, eax ; g_next
; File C:\IAGOS\server\v18\Source\Source\_AIInterface\AIBigMuscle.cpp

; 464  : 					fArrivalRange = 5.0f;				// 딱붙어서 밟아야 한다.

  00505	f7 d0		 not	 eax
  00507	83 e0 01	 and	 eax, 1
  0050a	40		 inc	 eax

; 465  : 				}

  0050b	eb 6a		 jmp	 SHORT $LN176@MoveProces
$LN30@MoveProces:

; 466  : 				else
; 467  : 				{
; 468  : 					m_nAttackType = CAT_QUAKEDOUBLE;	// 두손으로 내려치기 - 스턴
; 469  : 					fArrivalRange = fRadius;			// 반지름 길이만큼 접근하자.

  0050d	b8 04 00 00 00	 mov	 eax, 4

; 470  : 				}
; 471  : 			} else

  00512	eb 68		 jmp	 SHORT $LN35@MoveProces
$LN28@MoveProces:

; 472  : 			if( fDistSq < fRadiusSq * 6.0f )		// 반지름의 x배 이하는 쏘기.

  00514	f3 0f 59 0d 00
	00 00 00	 mulss	 xmm1, DWORD PTR __real@40c00000
  0051c	0f 2f ca	 comiss	 xmm1, xmm2
  0051f	76 49		 jbe	 SHORT $LN34@MoveProces
; File C:\IAGOS\server\v18\Source\Source\_Common\xUtil.h

; 16   : 	g_next = g_next * 1103515245 + 12345;// + nRandomSeed[ i++ ];

  00521	69 0d 00 00 00
	00 6d 4e c6 41	 imul	 ecx, DWORD PTR ?g_next@@3KA, 1103515245 ; g_next

; 22   : 	return  xRand() % num;

  0052b	b8 1f 85 eb 51	 mov	 eax, 1374389535		; 51eb851fH

; 16   : 	g_next = g_next * 1103515245 + 12345;// + nRandomSeed[ i++ ];

  00530	81 c1 39 30 00
	00		 add	 ecx, 12345		; 00003039H

; 22   : 	return  xRand() % num;

  00536	f7 e1		 mul	 ecx

; 16   : 	g_next = g_next * 1103515245 + 12345;// + nRandomSeed[ i++ ];

  00538	89 0d 00 00 00
	00		 mov	 DWORD PTR ?g_next@@3KA, ecx ; g_next

; 22   : 	return  xRand() % num;

  0053e	c1 ea 05	 shr	 edx, 5
  00541	6b c2 64	 imul	 eax, edx, 100
  00544	2b c8		 sub	 ecx, eax
; File C:\IAGOS\server\v18\Source\Source\_AIInterface\AIBigMuscle.cpp

; 476  : 				if( dwNum < 60 )

  00546	83 f9 3c	 cmp	 ecx, 60			; 0000003cH
  00549	73 0f		 jae	 SHORT $LN36@MoveProces

; 477  : 				{						
; 478  : 					m_nAttackType = CAT_QUAKE_ONE;		// 하늘에서 돌 떨어뜨리기
; 479  : 					fArrivalRange = 15.0f;			// xx미터 까지 접근하자.

  0054b	f3 0f 10 05 00
	00 00 00	 movss	 xmm0, DWORD PTR __real@41700000
  00553	b8 03 00 00 00	 mov	 eax, 3

; 484  : 					return FALSE;
; 485  : 				}
; 486  : 			} else

  00558	eb 1d		 jmp	 SHORT $LN176@MoveProces
$LN36@MoveProces:

; 480  : 				}
; 481  : 				else
; 482  : 				{
; 483  : 					m_idTarget = NULL_ID;

  0055a	c7 47 70 ff ff
	ff ff		 mov	 DWORD PTR [edi+112], -1
$LN26@MoveProces:

; 524  : }

  00561	33 c0		 xor	 eax, eax
  00563	5f		 pop	 edi
  00564	5e		 pop	 esi
  00565	5b		 pop	 ebx
  00566	8b e5		 mov	 esp, ebp
  00568	5d		 pop	 ebp
  00569	c3		 ret	 0
$LN34@MoveProces:

; 487  : 			{
; 488  : 				m_nAttackType = CAT_NORMAL;		// 앞발로 밟기.
; 489  : 				fArrivalRange = 10.0f;

  0056a	f3 0f 10 05 00
	00 00 00	 movss	 xmm0, DWORD PTR __real@41200000
  00572	b8 01 00 00 00	 mov	 eax, 1
$LN176@MoveProces:

; 490  : 
; 491  : 				// 엄청 멀리 떨어져있는넘은 포기.
; 492  : 				//m_idTarget = NULL_ID;
; 493  : 				//return FALSE;
; 494  : 			}
; 495  : 						
; 496  : 			m_tmTrace = timeGetTime();		// 추적 시작한 시간.

  00577	f3 0f 11 45 fc	 movss	 DWORD PTR _fArrivalRange$1$[ebp], xmm0
$LN35@MoveProces:
  0057c	89 47 5c	 mov	 DWORD PTR [edi+92], eax
  0057f	ff 55 f4	 call	 DWORD PTR tv1100[ebp]

; 497  : 			m_nEvent = EPT_TRACKING;		// 공격추격상태 전환.
; 498  : 			pMover->CMD_SetMeleeAttack( m_idTarget, fArrivalRange );		// 공격반경은 this의 반지름 크기정도가 적당하다.

  00582	f3 0f 10 45 fc	 movss	 xmm0, DWORD PTR _fArrivalRange$1$[ebp]
  00587	51		 push	 ecx
  00588	f3 0f 11 04 24	 movss	 DWORD PTR [esp], xmm0
  0058d	8b cb		 mov	 ecx, ebx
  0058f	ff 77 70	 push	 DWORD PTR [edi+112]
  00592	89 47 68	 mov	 DWORD PTR [edi+104], eax
  00595	c7 47 58 03 00
	00 00		 mov	 DWORD PTR [edi+88], 3
  0059c	e8 00 00 00 00	 call	 ?CMD_SetMeleeAttack@CMover@@QAEXKM@Z ; CMover::CMD_SetMeleeAttack
$LN18@MoveProces:

; 524  : }

  005a1	5f		 pop	 edi
  005a2	5e		 pop	 esi
  005a3	b8 01 00 00 00	 mov	 eax, 1
  005a8	5b		 pop	 ebx
  005a9	8b e5		 mov	 esp, ebp
  005ab	5d		 pop	 ebp
  005ac	c3		 ret	 0
?MoveProcessRage@CAIBigMuscle@@AAEHXZ ENDP		; CAIBigMuscle::MoveProcessRage
_TEXT	ENDS
; Function compile flags: /Ogtp
; File C:\IAGOS\server\v18\Source\Source\_AIInterface\AIBigMuscle.cpp
;	COMDAT ?MoveProcessIdle@CAIBigMuscle@@AAEHXZ
_TEXT	SEGMENT
?MoveProcessIdle@CAIBigMuscle@@AAEHXZ PROC		; CAIBigMuscle::MoveProcessIdle, COMDAT
; _this$ = ecx

; 110  : #ifdef __MOVER_STATE_EFFECT
; 111  : 	CMover* pMover = GetMover();
; 112  : 
; 113  : 	if( IsInvalidObj( pMover ) == TRUE && pMover->m_pActMover->IsStateFlag( OBJSTAF_COMBAT ) == TRUE )
; 114  : 	{
; 115  : 		if( pMover->m_pActMover->SendActMsg( OBJMSG_MODE_PEACE ) == TRUE )
; 116  : 		{
; 117  : 			g_UserMng.AddSendActMsg( pMover, OBJMSG_MODE_PEACE );
; 118  : 		}
; 119  : 	}
; 120  : #endif // __MOVER_STATE_EFFECT
; 121  : 
; 122  : 	return TRUE;

  00000	b8 01 00 00 00	 mov	 eax, 1

; 123  : }

  00005	c3		 ret	 0
?MoveProcessIdle@CAIBigMuscle@@AAEHXZ ENDP		; CAIBigMuscle::MoveProcessIdle
_TEXT	ENDS
; Function compile flags: /Ogtp
; File C:\IAGOS\server\v18\Source\Source\_AIInterface\AIInterface.h
;	COMDAT ?IsReturnToBegin@CAIInterface@@UAEHXZ
_TEXT	SEGMENT
?IsReturnToBegin@CAIInterface@@UAEHXZ PROC		; CAIInterface::IsReturnToBegin, COMDAT
; _this$ = ecx

; 121  : 	virtual		BOOL	IsReturnToBegin( void )		{	return FALSE;	}

  00000	33 c0		 xor	 eax, eax
  00002	c3		 ret	 0
?IsReturnToBegin@CAIInterface@@UAEHXZ ENDP		; CAIInterface::IsReturnToBegin
_TEXT	ENDS
; Function compile flags: /Ogtp
; File C:\IAGOS\server\v18\Source\Source\_Common\Project.h
; File C:\IAGOS\server\v18\Source\Source\_Common\data.h
; File C:\IAGOS\server\v18\Source\Source\_Common\Project.h
;	COMDAT ?GetText@CProject@@QAEPBDK@Z
_TEXT	SEGMENT
_dwIndex$ = 8						; size = 4
?GetText@CProject@@QAEPBDK@Z PROC			; CProject::GetText, COMDAT
; _this$ = ecx

; 1426 : { 

  00000	55		 push	 ebp
  00001	8b ec		 mov	 ebp, esp

; 1427 : 	VERIFY_RANGE( (int)( dwIndex ), 0, m_colorText.GetSize(), "GetText range_error", "error" );

  00003	8b 55 08	 mov	 edx, DWORD PTR _dwIndex$[ebp]
  00006	56		 push	 esi
  00007	85 d2		 test	 edx, edx
  00009	78 29		 js	 SHORT $LN19@GetText
  0000b	3b 91 ac 02 00
	00		 cmp	 edx, DWORD PTR [ecx+684]
  00011	7d 21		 jge	 SHORT $LN19@GetText
; File C:\IAGOS\server\v18\Source\Source\_Common\data.h

; 270  : 	if( dwIndex >= (DWORD)m_nMaxIndex )

  00013	73 15		 jae	 SHORT $LN18@GetText

; 271  : 		return NULL;
; 272  : 	return (T*) m_apOffset[ dwIndex ];

  00015	8b 81 9c 02 00
	00		 mov	 eax, DWORD PTR [ecx+668]
  0001b	8b 04 90	 mov	 eax, DWORD PTR [eax+edx*4]
; File C:\IAGOS\server\v18\Source\Source\_Common\Project.h

; 1428 : 	if( m_colorText.GetAt( dwIndex ) == NULL )

  0001e	85 c0		 test	 eax, eax
  00020	74 08		 je	 SHORT $LN18@GetText

; 1430 : 	return m_colorText.GetAt( dwIndex )->lpszData; 

  00022	8b 40 04	 mov	 eax, DWORD PTR [eax+4]
  00025	5e		 pop	 esi

; 1431 : }

  00026	5d		 pop	 ebp
  00027	c2 04 00	 ret	 4
$LN18@GetText:

; 1429 : 		return "";

  0002a	b8 00 00 00 00	 mov	 eax, OFFSET ??_C@_00CNPNBAHC@@
  0002f	5e		 pop	 esi

; 1431 : }

  00030	5d		 pop	 ebp
  00031	c2 04 00	 ret	 4
$LN19@GetText:

; 579  : 	LPCTSTR szErr = Error( _T( "%s min:%d, max:%d, index:%d" ), szMsg, nMin, nMax, nIndex ); 

  00034	52		 push	 edx
  00035	ff b1 ac 02 00
	00		 push	 DWORD PTR [ecx+684]
  0003b	6a 00		 push	 0
  0003d	68 00 00 00 00	 push	 OFFSET ??_C@_0BE@OHDBLHOM@GetText?5range_error@
  00042	68 00 00 00 00	 push	 OFFSET ??_C@_0BM@HMFGHCP@?$CFs?5min?3?$CFd?0?5max?3?$CFd?0?5index?3?$CFd@
  00047	e8 00 00 00 00	 call	 ?Error@@YAPBDPBDZZ	; Error
  0004c	83 c4 14	 add	 esp, 20			; 00000014H

; 1427 : 	VERIFY_RANGE( (int)( dwIndex ), 0, m_colorText.GetSize(), "GetText range_error", "error" );

  0004f	b8 00 00 00 00	 mov	 eax, OFFSET ??_C@_05KKCIMGE@error@
  00054	5e		 pop	 esi

; 1431 : }

  00055	5d		 pop	 ebp
  00056	c2 04 00	 ret	 4
?GetText@CProject@@QAEPBDK@Z ENDP			; CProject::GetText
_TEXT	ENDS
; Function compile flags: /Ogtp
; File C:\IAGOS\server\v18\Source\Source\DX_SDK\d3dx9math.h
;	COMDAT ??0D3DXVECTOR3@@QAE@XZ
_TEXT	SEGMENT
??0D3DXVECTOR3@@QAE@XZ PROC				; D3DXVECTOR3::D3DXVECTOR3, COMDAT
; _this$ = ecx

; 165  :     D3DXVECTOR3() {};

  00000	8b c1		 mov	 eax, ecx
  00002	c3		 ret	 0
??0D3DXVECTOR3@@QAE@XZ ENDP				; D3DXVECTOR3::D3DXVECTOR3
_TEXT	ENDS
; Function compile flags: /Ogtp
; File C:\Program Files (x86)\Windows Kits\10\Include\10.0.26100.0\ucrt\stdio.h
;	COMDAT _sprintf
_TEXT	SEGMENT
__Buffer$ = 8						; size = 4
__Format$ = 12						; size = 4
_sprintf PROC						; COMDAT

; 1771 :     {

  00000	55		 push	 ebp
  00001	8b ec		 mov	 ebp, esp

; 1392 :         int const _Result = __stdio_common_vsprintf(

  00003	8d 45 10	 lea	 eax, DWORD PTR __Format$[ebp+4]
  00006	50		 push	 eax
  00007	6a 00		 push	 0
  00009	ff 75 0c	 push	 DWORD PTR __Format$[ebp]
  0000c	6a ff		 push	 -1
  0000e	ff 75 08	 push	 DWORD PTR __Buffer$[ebp]
  00011	e8 00 00 00 00	 call	 ___local_stdio_printf_options
  00016	8b 08		 mov	 ecx, DWORD PTR [eax]
  00018	ff 70 04	 push	 DWORD PTR [eax+4]
  0001b	83 c9 01	 or	 ecx, 1
  0001e	51		 push	 ecx
  0001f	e8 00 00 00 00	 call	 ___stdio_common_vsprintf

; 1393 :             _CRT_INTERNAL_LOCAL_PRINTF_OPTIONS | _CRT_INTERNAL_PRINTF_LEGACY_VSPRINTF_NULL_TERMINATION,
; 1394 :             _Buffer, _BufferCount, _Format, _Locale, _ArgList);
; 1395 : 
; 1396 :         return _Result < 0 ? -1 : _Result;

  00024	83 c9 ff	 or	 ecx, -1
  00027	83 c4 1c	 add	 esp, 28			; 0000001cH
  0002a	85 c0		 test	 eax, eax
  0002c	0f 48 c1	 cmovs	 eax, ecx

; 1772 :         int _Result;
; 1773 :         va_list _ArgList;
; 1774 :         __crt_va_start(_ArgList, _Format);
; 1775 : 
; 1776 :         _Result = _vsprintf_l(_Buffer, _Format, NULL, _ArgList);
; 1777 : 
; 1778 :         __crt_va_end(_ArgList);
; 1779 :         return _Result;
; 1780 :     }

  0002f	5d		 pop	 ebp
  00030	c3		 ret	 0
_sprintf ENDP
_TEXT	ENDS
; Function compile flags: /Ogtp
; File C:\Program Files (x86)\Windows Kits\10\Include\10.0.26100.0\ucrt\corecrt_stdio_config.h
;	COMDAT ___local_stdio_printf_options
_TEXT	SEGMENT
___local_stdio_printf_options PROC			; COMDAT

; 91   :         static unsigned __int64 _OptionsStorage;
; 92   :         return &_OptionsStorage;

  00000	b8 00 00 00 00	 mov	 eax, OFFSET ?_OptionsStorage@?1??__local_stdio_printf_options@@9@4_KA ; `__local_stdio_printf_options'::`2'::_OptionsStorage

; 93   :     }

  00005	c3		 ret	 0
___local_stdio_printf_options ENDP
_TEXT	ENDS
; Function compile flags: /Ogtp
; File C:\IAGOS\server\v18\Source\Source\_AIInterface\AIBigMuscle.cpp
;	COMDAT ?__empty_global_delete@@YAXPAXI@Z
_TEXT	SEGMENT
___formal$ = 8						; size = 4
___formal$ = 12						; size = 4
?__empty_global_delete@@YAXPAXI@Z PROC			; __empty_global_delete, COMDAT

  00000	c2 00 00	 ret	 0
?__empty_global_delete@@YAXPAXI@Z ENDP			; __empty_global_delete
_TEXT	ENDS
; Function compile flags: /Ogtp
; File C:\IAGOS\server\v18\Source\Source\_AIInterface\AIBigMuscle.cpp
;	COMDAT ?__empty_global_delete@@YAXPAX@Z
_TEXT	SEGMENT
___formal$ = 8						; size = 4
?__empty_global_delete@@YAXPAX@Z PROC			; __empty_global_delete, COMDAT

  00000	c2 00 00	 ret	 0
?__empty_global_delete@@YAXPAX@Z ENDP			; __empty_global_delete
_TEXT	ENDS
END
