; Listing generated by Microsoft (R) Optimizing Compiler Version 19.44.35225.0 

	TITLE	C:\IAGOS\server\v18\Source\Output\WorldServer\Release\AIClockWorks.obj
	.686P
	.XMM
	include listing.inc
	.model	flat

INCLUDELIB LIBCMT
INCLUDELIB OLDNAMES

PUBLIC	?stateMap@CAIClockWorks@@2USTATEMAP@@B		; CAIClockWorks::stateMap
EXTRN	?stateMap@CAIInterface@@2USTATEMAP@@B:QWORD	; CAIInterface::stateMap
CONST	SEGMENT
?stateMap@CAIClockWorks@@2USTATEMAP@@B DD FLAT:?stateMap@CAIInterface@@2USTATEMAP@@B ; CAIClockWorks::stateMap
	DD	FLAT:?stateMapEntries@CAIClockWorks@@2QBUSTATEMAP_ENTRIES@@B
?piecewise_construct@std@@3Upiecewise_construct_t@1@B	ORG $+1 ; std::piecewise_construct
CONST	ENDS
PUBLIC	?__empty_global_delete@@YAXPAX@Z		; __empty_global_delete
PUBLIC	?__empty_global_delete@@YAXPAXI@Z		; __empty_global_delete
PUBLIC	??0D3DXVECTOR3@@QAE@XZ				; D3DXVECTOR3::D3DXVECTOR3
PUBLIC	?IsReturnToBegin@CAIInterface@@UAEHXZ		; CAIInterface::IsReturnToBegin
PUBLIC	?MoveProcessIdle@CAIClockWorks@@AAEHXZ		; CAIClockWorks::MoveProcessIdle
PUBLIC	?MoveProcessRage@CAIClockWorks@@AAEHXZ		; CAIClockWorks::MoveProcessRage
PUBLIC	?SelectTarget@CAIClockWorks@@AAEHXZ		; CAIClockWorks::SelectTarget
PUBLIC	?Init@CAIClockWorks@@AAEXXZ			; CAIClockWorks::Init
PUBLIC	?Destroy@CAIClockWorks@@AAEXXZ			; CAIClockWorks::Destroy
PUBLIC	??0CAIClockWorks@@QAE@XZ			; CAIClockWorks::CAIClockWorks
PUBLIC	??0CAIClockWorks@@QAE@PAVCObj@@@Z		; CAIClockWorks::CAIClockWorks
PUBLIC	??1CAIClockWorks@@UAE@XZ			; CAIClockWorks::~CAIClockWorks
PUBLIC	?InitAI@CAIClockWorks@@UAEXXZ			; CAIClockWorks::InitAI
PUBLIC	?StateInit@CAIClockWorks@@QAEHABUAIMSG@@@Z	; CAIClockWorks::StateInit
PUBLIC	?StateIdle@CAIClockWorks@@QAEHABUAIMSG@@@Z	; CAIClockWorks::StateIdle
PUBLIC	?StateRage@CAIClockWorks@@QAEHABUAIMSG@@@Z	; CAIClockWorks::StateRage
PUBLIC	?GetStateMap@CAIClockWorks@@UBEPBUSTATEMAP@@XZ	; CAIClockWorks::GetStateMap
PUBLIC	??_GCAIClockWorks@@UAEPAXI@Z			; CAIClockWorks::`scalar deleting destructor'
PUBLIC	??_C@_0BM@HMFGHCP@?$CFs?5min?3?$CFd?0?5max?3?$CFd?0?5index?3?$CFd@ ; `string'
PUBLIC	??_C@_0BJ@GKPOBPPI@GetMoverProp?5range_error@	; `string'
PUBLIC	?stateMapEntries@CAIClockWorks@@2QBUSTATEMAP_ENTRIES@@B ; CAIClockWorks::stateMapEntries
PUBLIC	??_7CAIClockWorks@@6B@				; CAIClockWorks::`vftable'
PUBLIC	??_C@_0DK@CKNJMMCD@CAIClockWorks?3?3StateRage?5?9?5AIMS@ ; `string'
PUBLIC	??_C@_0DB@DMENDIGL@CAIClockWorks?3?3StateRage?5?3?5AIMS@ ; `string'
PUBLIC	??_R4CAIClockWorks@@6B@				; CAIClockWorks::`RTTI Complete Object Locator'
PUBLIC	??_R0?AVCAIClockWorks@@@8			; CAIClockWorks `RTTI Type Descriptor'
PUBLIC	??_R3CAIClockWorks@@8				; CAIClockWorks::`RTTI Class Hierarchy Descriptor'
PUBLIC	??_R2CAIClockWorks@@8				; CAIClockWorks::`RTTI Base Class Array'
PUBLIC	??_R1A@?0A@EA@CAIClockWorks@@8			; CAIClockWorks::`RTTI Base Class Descriptor at (0,-1,0,64)'
PUBLIC	??_R1A@?0A@EA@CAIInterface@@8			; CAIInterface::`RTTI Base Class Descriptor at (0,-1,0,64)'
PUBLIC	??_R0?AVCAIInterface@@@8			; CAIInterface `RTTI Type Descriptor'
PUBLIC	??_R3CAIInterface@@8				; CAIInterface::`RTTI Class Hierarchy Descriptor'
PUBLIC	??_R2CAIInterface@@8				; CAIInterface::`RTTI Base Class Array'
PUBLIC	__real@3fc00000
PUBLIC	__real@40400000
PUBLIC	__real@40c00000
PUBLIC	__real@41200000
PUBLIC	__real@41f00000
EXTRN	??3@YAXPAXI@Z:PROC				; operator delete
EXTRN	__imp__timeGetTime@0:PROC
EXTRN	?Error@@YAPBDPBDZZ:PROC				; Error
EXTRN	?GetRadiusXZ@CObj@@QAEMXZ:PROC			; CObj::GetRadiusXZ
EXTRN	?GetMover@CProject@@QAEPAVCMover@@K@Z:PROC	; CProject::GetMover
EXTRN	?ResetState@CAction@@QAEXK@Z:PROC		; CAction::ResetState
EXTRN	??0CAIInterface@@QAE@XZ:PROC			; CAIInterface::CAIInterface
EXTRN	??0CAIInterface@@QAE@PAVCObj@@@Z:PROC		; CAIInterface::CAIInterface
EXTRN	??1CAIInterface@@UAE@XZ:PROC			; CAIInterface::~CAIInterface
EXTRN	?RouteMessage@CAIInterface@@UAEXXZ:PROC		; CAIInterface::RouteMessage
EXTRN	?SendAIMsg@CAIInterface@@UAEXKKKK@Z:PROC	; CAIInterface::SendAIMsg
EXTRN	?PostAIMsg@CAIInterface@@UAEXKKKK@Z:PROC	; CAIInterface::PostAIMsg
EXTRN	?ScanTarget@CAIInterface@@IAEPAVCMover@@PAVCObj@@HHKKH@Z:PROC ; CAIInterface::ScanTarget
EXTRN	?ScanTargetStrong@CAIInterface@@IAEPAVCMover@@PAVCObj@@M@Z:PROC ; CAIInterface::ScanTargetStrong
EXTRN	?ScanTargetOverHealer@CAIInterface@@IAEPAVCMover@@PAVCObj@@M@Z:PROC ; CAIInterface::ScanTargetOverHealer
EXTRN	?SetDestParam@CMover@@QAEXHHHH@Z:PROC		; CMover::SetDestParam
EXTRN	?GetHitPointPercent@CMover@@QAEHH@Z:PROC	; CMover::GetHitPointPercent
EXTRN	?CMD_SetMeleeAttack@CMover@@QAEXKM@Z:PROC	; CMover::CMD_SetMeleeAttack
EXTRN	?DoAttackMelee@CMover@@QAEHPAV1@W4OBJMSG@@K@Z:PROC ; CMover::DoAttackMelee
EXTRN	??_ECAIClockWorks@@UAEPAXI@Z:PROC		; CAIClockWorks::`vector deleting destructor'
EXTRN	??_7type_info@@6B@:QWORD			; type_info::`vftable'
EXTRN	?g_next@@3KA:DWORD				; g_next
EXTRN	?prj@@3VCProject@@A:BYTE			; prj
EXTRN	__fltused:DWORD
;	COMDAT __real@41f00000
CONST	SEGMENT
__real@41f00000 DD 041f00000r			; 30
CONST	ENDS
;	COMDAT __real@41200000
CONST	SEGMENT
__real@41200000 DD 041200000r			; 10
CONST	ENDS
;	COMDAT __real@40c00000
CONST	SEGMENT
__real@40c00000 DD 040c00000r			; 6
CONST	ENDS
;	COMDAT __real@40400000
CONST	SEGMENT
__real@40400000 DD 040400000r			; 3
CONST	ENDS
;	COMDAT __real@3fc00000
CONST	SEGMENT
__real@3fc00000 DD 03fc00000r			; 1.5
CONST	ENDS
;	COMDAT ??_R2CAIInterface@@8
rdata$r	SEGMENT
??_R2CAIInterface@@8 DD FLAT:??_R1A@?0A@EA@CAIInterface@@8 ; CAIInterface::`RTTI Base Class Array'
rdata$r	ENDS
;	COMDAT ??_R3CAIInterface@@8
rdata$r	SEGMENT
??_R3CAIInterface@@8 DD 00H				; CAIInterface::`RTTI Class Hierarchy Descriptor'
	DD	00H
	DD	01H
	DD	FLAT:??_R2CAIInterface@@8
rdata$r	ENDS
;	COMDAT ??_R0?AVCAIInterface@@@8
data$rs	SEGMENT
??_R0?AVCAIInterface@@@8 DD FLAT:??_7type_info@@6B@	; CAIInterface `RTTI Type Descriptor'
	DD	00H
	DB	'.?AVCAIInterface@@', 00H
data$rs	ENDS
;	COMDAT ??_R1A@?0A@EA@CAIInterface@@8
rdata$r	SEGMENT
??_R1A@?0A@EA@CAIInterface@@8 DD FLAT:??_R0?AVCAIInterface@@@8 ; CAIInterface::`RTTI Base Class Descriptor at (0,-1,0,64)'
	DD	00H
	DD	00H
	DD	0ffffffffH
	DD	00H
	DD	040H
	DD	FLAT:??_R3CAIInterface@@8
rdata$r	ENDS
;	COMDAT ??_R1A@?0A@EA@CAIClockWorks@@8
rdata$r	SEGMENT
??_R1A@?0A@EA@CAIClockWorks@@8 DD FLAT:??_R0?AVCAIClockWorks@@@8 ; CAIClockWorks::`RTTI Base Class Descriptor at (0,-1,0,64)'
	DD	01H
	DD	00H
	DD	0ffffffffH
	DD	00H
	DD	040H
	DD	FLAT:??_R3CAIClockWorks@@8
rdata$r	ENDS
;	COMDAT ??_R2CAIClockWorks@@8
rdata$r	SEGMENT
??_R2CAIClockWorks@@8 DD FLAT:??_R1A@?0A@EA@CAIClockWorks@@8 ; CAIClockWorks::`RTTI Base Class Array'
	DD	FLAT:??_R1A@?0A@EA@CAIInterface@@8
rdata$r	ENDS
;	COMDAT ??_R3CAIClockWorks@@8
rdata$r	SEGMENT
??_R3CAIClockWorks@@8 DD 00H				; CAIClockWorks::`RTTI Class Hierarchy Descriptor'
	DD	00H
	DD	02H
	DD	FLAT:??_R2CAIClockWorks@@8
rdata$r	ENDS
;	COMDAT ??_R0?AVCAIClockWorks@@@8
data$rs	SEGMENT
??_R0?AVCAIClockWorks@@@8 DD FLAT:??_7type_info@@6B@	; CAIClockWorks `RTTI Type Descriptor'
	DD	00H
	DB	'.?AVCAIClockWorks@@', 00H
data$rs	ENDS
;	COMDAT ??_R4CAIClockWorks@@6B@
rdata$r	SEGMENT
??_R4CAIClockWorks@@6B@ DD 00H				; CAIClockWorks::`RTTI Complete Object Locator'
	DD	00H
	DD	00H
	DD	FLAT:??_R0?AVCAIClockWorks@@@8
	DD	FLAT:??_R3CAIClockWorks@@8
rdata$r	ENDS
;	COMDAT ??_C@_0DB@DMENDIGL@CAIClockWorks?3?3StateRage?5?3?5AIMS@
CONST	SEGMENT
??_C@_0DB@DMENDIGL@CAIClockWorks?3?3StateRage?5?3?5AIMS@ DB 'CAIClockWork'
	DB	's::StateRage : AIMSG_ATTACK_MELEE %d', 00H	; `string'
CONST	ENDS
;	COMDAT ??_C@_0DK@CKNJMMCD@CAIClockWorks?3?3StateRage?5?9?5AIMS@
CONST	SEGMENT
??_C@_0DK@CKNJMMCD@CAIClockWorks?3?3StateRage?5?9?5AIMS@ DB 'CAIClockWork'
	DB	's::StateRage - AIMSG_ARRIVAL m_nAttackType=%d', 00H ; `string'
CONST	ENDS
;	COMDAT ??_7CAIClockWorks@@6B@
CONST	SEGMENT
??_7CAIClockWorks@@6B@ DD FLAT:??_R4CAIClockWorks@@6B@	; CAIClockWorks::`vftable'
	DD	FLAT:?GetStateMap@CAIClockWorks@@UBEPBUSTATEMAP@@XZ
	DD	FLAT:??_ECAIClockWorks@@UAEPAXI@Z
	DD	FLAT:?RouteMessage@CAIInterface@@UAEXXZ
	DD	FLAT:?SendAIMsg@CAIInterface@@UAEXKKKK@Z
	DD	FLAT:?PostAIMsg@CAIInterface@@UAEXKKKK@Z
	DD	FLAT:?InitAI@CAIClockWorks@@UAEXXZ
	DD	FLAT:?IsReturnToBegin@CAIInterface@@UAEHXZ
CONST	ENDS
_DATA	SEGMENT
?stateMapEntries@CAIClockWorks@@2QBUSTATEMAP_ENTRIES@@B DD 01H ; CAIClockWorks::stateMapEntries
	ORG $+4
	DD	FLAT:?StateInit@CAIClockWorks@@QAEHABUAIMSG@@@Z
	DD	00H
	DD	00H
	DD	00H
	DD	03H
	DB	4 DUP(00H)
	DD	FLAT:?StateIdle@CAIClockWorks@@QAEHABUAIMSG@@@Z
	DD	00H
	DD	00H
	DD	00H
	DD	04H
	DB	4 DUP(00H)
	DD	FLAT:?StateRage@CAIClockWorks@@QAEHABUAIMSG@@@Z
	DD	00H
	DD	00H
	DD	00H
	DD	05H
	DB	4 DUP(00H)
	DD	FLAT:?StateRage@CAIClockWorks@@QAEHABUAIMSG@@@Z
	DD	00H
	DD	00H
	DD	00H
	DD	00H
	DB	4 DUP(00H)
	DD	00H
	DD	00H
	DD	00H
	DD	0ffffffffH
_DATA	ENDS
;	COMDAT ??_C@_0BJ@GKPOBPPI@GetMoverProp?5range_error@
CONST	SEGMENT
??_C@_0BJ@GKPOBPPI@GetMoverProp?5range_error@ DB 'GetMoverProp range_erro'
	DB	'r', 00H					; `string'
CONST	ENDS
;	COMDAT ??_C@_0BM@HMFGHCP@?$CFs?5min?3?$CFd?0?5max?3?$CFd?0?5index?3?$CFd@
CONST	SEGMENT
??_C@_0BM@HMFGHCP@?$CFs?5min?3?$CFd?0?5max?3?$CFd?0?5index?3?$CFd@ DB '%s'
	DB	' min:%d, max:%d, index:%d', 00H		; `string'
CONST	ENDS
; Function compile flags: /Ogtp
;	COMDAT ??_GCAIClockWorks@@UAEPAXI@Z
_TEXT	SEGMENT
___flags$ = 8						; size = 4
??_GCAIClockWorks@@UAEPAXI@Z PROC			; CAIClockWorks::`scalar deleting destructor', COMDAT
; _this$ = ecx
  00000	55		 push	 ebp
  00001	8b ec		 mov	 ebp, esp
  00003	56		 push	 esi
  00004	8b f1		 mov	 esi, ecx
  00006	e8 00 00 00 00	 call	 ??1CAIClockWorks@@UAE@XZ ; CAIClockWorks::~CAIClockWorks
  0000b	f6 45 08 01	 test	 BYTE PTR ___flags$[ebp], 1
  0000f	74 0b		 je	 SHORT $LN5@scalar
  00011	6a 78		 push	 120			; 00000078H
  00013	56		 push	 esi
  00014	e8 00 00 00 00	 call	 ??3@YAXPAXI@Z		; operator delete
  00019	83 c4 08	 add	 esp, 8
$LN5@scalar:
  0001c	8b c6		 mov	 eax, esi
  0001e	5e		 pop	 esi
  0001f	5d		 pop	 ebp
  00020	c2 04 00	 ret	 4
??_GCAIClockWorks@@UAEPAXI@Z ENDP			; CAIClockWorks::`scalar deleting destructor'
_TEXT	ENDS
; Function compile flags: /Ogtp
; File C:\IAGOS\server\v18\Source\Source\_AIInterface\AIClockWorks.cpp
;	COMDAT ?GetStateMap@CAIClockWorks@@UBEPBUSTATEMAP@@XZ
_TEXT	SEGMENT
?GetStateMap@CAIClockWorks@@UBEPBUSTATEMAP@@XZ PROC	; CAIClockWorks::GetStateMap, COMDAT
; _this$ = ecx

; 33   : BEGIN_AISTATE_MAP( CAIClockWorks, CAIInterface )

  00000	b8 00 00 00 00	 mov	 eax, OFFSET ?stateMap@CAIClockWorks@@2USTATEMAP@@B ; CAIClockWorks::stateMap
  00005	c3		 ret	 0
?GetStateMap@CAIClockWorks@@UBEPBUSTATEMAP@@XZ ENDP	; CAIClockWorks::GetStateMap
_TEXT	ENDS
; Function compile flags: /Ogtp
; File C:\IAGOS\server\v18\Source\Source\_AIInterface\AIClockWorks.cpp
; File C:\IAGOS\server\v18\Source\Source\_Common\Mover.h
; File C:\IAGOS\server\v18\Source\Source\_Common\Project.h
; File C:\IAGOS\server\v18\Source\Source\_AIInterface\AIClockWorks.cpp
; File C:\IAGOS\server\v18\Source\Source\_Common\Mover.h
; File C:\IAGOS\server\v18\Source\Source\_Common\Obj.h
; File C:\IAGOS\server\v18\Source\Source\_Common\Mover.h
; File C:\IAGOS\server\v18\Source\Source\_AIInterface\AIClockWorks.cpp
; File C:\IAGOS\server\v18\Source\Source\_Common\xUtil.h
; File C:\IAGOS\server\v18\Source\Source\_AIInterface\AIClockWorks.cpp
; File C:\IAGOS\server\v18\Source\Source\_Common\xUtil.h
; File C:\IAGOS\server\v18\Source\Source\_AIInterface\AIClockWorks.cpp
;	COMDAT ?StateRage@CAIClockWorks@@QAEHABUAIMSG@@@Z
_TEXT	SEGMENT
_pMover$1$ = -4						; size = 4
_msg$ = 8						; size = 4
?StateRage@CAIClockWorks@@QAEHABUAIMSG@@@Z PROC		; CAIClockWorks::StateRage, COMDAT
; _this$ = ecx

; 455  : {

  00000	55		 push	 ebp
  00001	8b ec		 mov	 ebp, esp
  00003	51		 push	 ecx
  00004	56		 push	 esi
  00005	8b f1		 mov	 esi, ecx

; 456  : 	CMover* pMover = GetMover();
; 457  : 	CWorld* pWorld = GetWorld();
; 458  : 	
; 459  : 	BeginAIHandler( )
; 460  : 		
; 461  : 	///////////////////////////////////////////////////////////////////////////////////////////////////
; 462  : 	OnMessage( AIMSG_INIT ) 

  00007	8b 4d 08	 mov	 ecx, DWORD PTR _msg$[ebp]
  0000a	8b 01		 mov	 eax, DWORD PTR [ecx]
  0000c	8b 56 30	 mov	 edx, DWORD PTR [esi+48]
  0000f	89 55 fc	 mov	 DWORD PTR _pMover$1$[ebp], edx
  00012	83 f8 01	 cmp	 eax, 1
  00015	0f 84 24 01 00
	00		 je	 $LN41@StateRage

; 463  : 
; 464  : 	///////////////////////////////////////////////////////////////////////////////////////////////////
; 465  : 	OnMessage( AIMSG_PROCESS ) 

  0001b	83 f8 02	 cmp	 eax, 2
  0001e	75 13		 jne	 SHORT $LN10@StateRage

; 466  : 		MoveProcessRage();

  00020	8b ce		 mov	 ecx, esi
  00022	e8 00 00 00 00	 call	 ?MoveProcessRage@CAIClockWorks@@AAEHXZ ; CAIClockWorks::MoveProcessRage

; 572  : }

  00027	b8 01 00 00 00	 mov	 eax, 1
  0002c	5e		 pop	 esi
  0002d	8b e5		 mov	 esp, ebp
  0002f	5d		 pop	 ebp
  00030	c2 04 00	 ret	 4
$LN10@StateRage:

; 467  : 		
; 468  : 	///////////////////////////////////////////////////////////////////////////////////////////////////
; 469  : 	OnMessage( AIMSG_DAMAGE ) 

  00033	83 f8 08	 cmp	 eax, 8
  00036	75 12		 jne	 SHORT $LN12@StateRage

; 470  : 		// 나에게 데미지 많이 준놈들을 기억하고 있자. 나중에 응징하자.
; 471  : 		m_idLastAttacker = msg.dwParam1;

  00038	8b 41 04	 mov	 eax, DWORD PTR [ecx+4]
  0003b	89 46 70	 mov	 DWORD PTR [esi+112], eax

; 572  : }

  0003e	b8 01 00 00 00	 mov	 eax, 1
  00043	5e		 pop	 esi
  00044	8b e5		 mov	 esp, ebp
  00046	5d		 pop	 ebp
  00047	c2 04 00	 ret	 4
$LN12@StateRage:

; 472  : 	
; 473  : 	///////////////////////////////////////////////////////////////////////////////////////////////////
; 474  : 	OnMessage( AIMSG_DIE ) 

  0004a	83 f8 09	 cmp	 eax, 9
  0004d	75 1b		 jne	 SHORT $LN14@StateRage

; 475  : 		SendAIMsg( AIMSG_EXIT );

  0004f	8b 06		 mov	 eax, DWORD PTR [esi]
  00051	8b ce		 mov	 ecx, esi
  00053	6a 00		 push	 0
  00055	6a 00		 push	 0
  00057	6a 00		 push	 0
  00059	6a 12		 push	 18			; 00000012H
  0005b	ff 50 0c	 call	 DWORD PTR [eax+12]

; 572  : }

  0005e	b8 01 00 00 00	 mov	 eax, 1
  00063	5e		 pop	 esi
  00064	8b e5		 mov	 esp, ebp
  00066	5d		 pop	 ebp
  00067	c2 04 00	 ret	 4
$LN14@StateRage:

; 476  : 	
; 477  : 	///////////////////////////////////////////////////////////////////////////////////////////////////
; 478  : 	OnMessage( AIMSG_COLLISION )

  0006a	83 f8 0a	 cmp	 eax, 10			; 0000000aH
  0006d	0f 84 cc 00 00
	00		 je	 $LN41@StateRage

; 479  : 		
; 480  : 	///////////////////////////////////////////////////////////////////////////////////////////////////
; 481  : 	OnMessage( AIMSG_ARRIVAL )

  00073	83 f8 0b	 cmp	 eax, 11			; 0000000bH
  00076	0f 85 f2 00 00
	00		 jne	 $LN18@StateRage
; File C:\IAGOS\server\v18\Source\Source\_Common\Mover.h

; 1020 : 	MoverProp*		GetProp() { return prj.GetMoverProp( m_dwIndex ); }	// 객체의 프로퍼티 얻기 	

  0007c	8b 82 74 01 00
	00		 mov	 eax, DWORD PTR [edx+372]
; File C:\IAGOS\server\v18\Source\Source\_Common\Project.h

; 1406 : 	VERIFY_RANGE( nIndex, 0, m_nMoverPropSize, "GetMoverProp range_error", NULL );

  00082	8b 0d b4 01 00
	00		 mov	 ecx, DWORD PTR ?prj@@3VCProject@@A+436
  00088	85 c0		 test	 eax, eax
  0008a	78 12		 js	 SHORT $LN52@StateRage
  0008c	3b c1		 cmp	 eax, ecx
  0008e	7d 0e		 jge	 SHORT $LN52@StateRage

; 1407 : 	return m_pPropMover + nIndex;

  00090	69 c0 90 06 00
	00		 imul	 eax, eax, 1680
  00096	03 05 b8 01 00
	00		 add	 eax, DWORD PTR ?prj@@3VCProject@@A+440
  0009c	eb 18		 jmp	 SHORT $LN47@StateRage
$LN52@StateRage:

; 579  : 	LPCTSTR szErr = Error( _T( "%s min:%d, max:%d, index:%d" ), szMsg, nMin, nMax, nIndex ); 

  0009e	50		 push	 eax
  0009f	51		 push	 ecx
  000a0	6a 00		 push	 0
  000a2	68 00 00 00 00	 push	 OFFSET ??_C@_0BJ@GKPOBPPI@GetMoverProp?5range_error@
  000a7	68 00 00 00 00	 push	 OFFSET ??_C@_0BM@HMFGHCP@?$CFs?5min?3?$CFd?0?5max?3?$CFd?0?5index?3?$CFd@
  000ac	e8 00 00 00 00	 call	 ?Error@@YAPBDPBDZZ	; Error
  000b1	83 c4 14	 add	 esp, 20			; 00000014H

; 1406 : 	VERIFY_RANGE( nIndex, 0, m_nMoverPropSize, "GetMoverProp range_error", NULL );

  000b4	33 c0		 xor	 eax, eax
$LN47@StateRage:
; File C:\IAGOS\server\v18\Source\Source\_AIInterface\AIClockWorks.cpp

; 487  : 		switch( m_nAttackType )

  000b6	8b 4e 48	 mov	 ecx, DWORD PTR [esi+72]
  000b9	53		 push	 ebx
  000ba	57		 push	 edi
  000bb	8d 51 ff	 lea	 edx, DWORD PTR [ecx-1]
  000be	83 fa 03	 cmp	 edx, 3
  000c1	0f 87 84 00 00
	00		 ja	 $LN24@StateRage
  000c7	ff 24 95 00 00
	00 00		 jmp	 DWORD PTR $LN76@StateRage[edx*4]
$LN20@StateRage:

; 488  : 		{
; 489  : 		case CAT_SLASH:		dwMsg = OBJMSG_ATK1;	dwItemID = pProp->dwAtk1;	break;

  000ce	8b 98 b0 00 00
	00		 mov	 ebx, DWORD PTR [eax+176]
  000d4	bf 1d 00 00 00	 mov	 edi, 29			; 0000001dH
  000d9	eb 25		 jmp	 SHORT $LN72@StateRage
$LN21@StateRage:

; 490  : 		case CAT_LASER:		dwMsg = OBJMSG_ATK3;	dwItemID = pProp->dwAtk2;	break;

  000db	8b 98 b4 00 00
	00		 mov	 ebx, DWORD PTR [eax+180]
  000e1	bf 1f 00 00 00	 mov	 edi, 31			; 0000001fH
  000e6	eb 18		 jmp	 SHORT $LN72@StateRage
$LN22@StateRage:

; 491  : 		case CAT_SHOOT:		dwMsg = OBJMSG_ATK2;	dwItemID = pProp->dwAtk3;	break;

  000e8	8b 98 b8 00 00
	00		 mov	 ebx, DWORD PTR [eax+184]
  000ee	bf 1e 00 00 00	 mov	 edi, 30			; 0000001eH
  000f3	eb 0b		 jmp	 SHORT $LN72@StateRage
$LN23@StateRage:

; 492  : 		case CAT_QUAKE:		dwMsg = OBJMSG_ATK4;	dwItemID = pProp->dwAtk4;	break;

  000f5	8b 98 bc 00 00
	00		 mov	 ebx, DWORD PTR [eax+188]
  000fb	bf 20 00 00 00	 mov	 edi, 32			; 00000020H
$LN72@StateRage:

; 495  : 		}
; 496  : 
; 497  : 		if( dwMsg )
; 498  : 		{
; 499  : 			if( m_idTarget != NULL_ID )

  00100	8b 46 5c	 mov	 eax, DWORD PTR [esi+92]
  00103	83 f8 ff	 cmp	 eax, -1
  00106	74 35		 je	 SHORT $LN95@StateRage
; File C:\IAGOS\server\v18\Source\Source\_Common\Mover.h

; 1764 : 	CMover *pTarget = (CMover *)prj.GetMover( idTarget );

  00108	50		 push	 eax
  00109	b9 00 00 00 00	 mov	 ecx, OFFSET ?prj@@3VCProject@@A ; prj
  0010e	e8 00 00 00 00	 call	 ?GetMover@CProject@@QAEPAVCMover@@K@Z ; CProject::GetMover
; File C:\IAGOS\server\v18\Source\Source\_Common\Obj.h

; 327  : 	return pObj && ( pObj->IsDelete() == FALSE ); 

  00113	85 c0		 test	 eax, eax
  00115	74 42		 je	 SHORT $LN63@StateRage

; 180  : 	BOOL			IsDelete()	{ return (m_dwFlags & OBJ_FLAG_DELETE);  }

  00117	f6 40 04 01	 test	 BYTE PTR [eax+4], 1

; 327  : 	return pObj && ( pObj->IsDelete() == FALSE ); 

  0011b	75 3c		 jne	 SHORT $LN63@StateRage
; File C:\IAGOS\server\v18\Source\Source\_Common\Mover.h

; 1768 : 	return DoAttackMelee( pTarget, dwMsg, dwItemID );

  0011d	8b 4d fc	 mov	 ecx, DWORD PTR _pMover$1$[ebp]
  00120	53		 push	 ebx
  00121	57		 push	 edi
  00122	50		 push	 eax
  00123	e8 00 00 00 00	 call	 ?DoAttackMelee@CMover@@QAEHPAV1@W4OBJMSG@@K@Z ; CMover::DoAttackMelee
; File C:\IAGOS\server\v18\Source\Source\_AIInterface\AIClockWorks.cpp

; 501  : 				if( pMover->DoAttackMelee( m_idTarget, dwMsg, dwItemID ) == 1 )

  00128	83 f8 01	 cmp	 eax, 1
  0012b	75 2c		 jne	 SHORT $LN63@StateRage

; 502  : 				{
; 503  : 					m_nEvent = EPT_ATTACKING;		// 공격상태 전환.

  0012d	c7 46 44 02 00
	00 00		 mov	 DWORD PTR [esi+68], 2

; 504  : 					m_tmTimeOver = timeGetTime();	// 공격시작후 타임오버 계산용

  00134	ff 15 00 00 00
	00		 call	 DWORD PTR __imp__timeGetTime@0
  0013a	89 46 58	 mov	 DWORD PTR [esi+88], eax
$LN95@StateRage:
  0013d	5f		 pop	 edi
  0013e	5b		 pop	 ebx
$LN41@StateRage:

; 572  : }

  0013f	b8 01 00 00 00	 mov	 eax, 1
  00144	5e		 pop	 esi
  00145	8b e5		 mov	 esp, ebp
  00147	5d		 pop	 ebp
  00148	c2 04 00	 ret	 4
$LN24@StateRage:

; 493  : 		default:
; 494  : 			Error( "CAIClockWorks::StateRage - AIMSG_ARRIVAL m_nAttackType=%d", m_nAttackType );

  0014b	51		 push	 ecx
  0014c	68 00 00 00 00	 push	 OFFSET ??_C@_0DK@CKNJMMCD@CAIClockWorks?3?3StateRage?5?9?5AIMS@
  00151	e8 00 00 00 00	 call	 ?Error@@YAPBDPBDZZ	; Error
  00156	83 c4 08	 add	 esp, 8
$LN63@StateRage:

; 505  : 				} else
; 506  : 					m_nEvent = EPT_MOVING;			// 공격이 실패해서 다시 대기상태로 돌아감.
; 507  : 				
; 508  : 
; 509  : /*				CMover *pTarget = prj.GetMover( m_idTarget );
; 510  : 				if( IsValidObj(pTarget) )
; 511  : 				{
; 512  : 					int nError = pMover->SendActMsg( dwMsg, pTarget->GetId(), MAKELONG( 0, 0 ), MAKELONG( 0, 0 ) );
; 513  : 					if( nError > 0 ) 
; 514  : 					{
; 515  : 						g_UserMng.AddMeleeAttack( pMover, dwMsg, pTarget->GetId(), MAKELONG( 0, 0 ), MAKELONG( 0, (WORD)nError ) );
; 516  : 					}
; 517  : 					m_nEvent = EPT_ATTACKING;		// 공격상태 전환.
; 518  : 				} else
; 519  : 					m_nEvent = EPT_MOVING;		// 비정상적인 상태. 원래대로 돌림.
; 520  : */
; 521  : 			}
; 522  : 		} else
; 523  : 			m_nEvent = EPT_MOVING;		// 비정상적인 상태. 원래대로 돌림.

  00159	5f		 pop	 edi
  0015a	5b		 pop	 ebx
  0015b	c7 46 44 01 00
	00 00		 mov	 DWORD PTR [esi+68], 1

; 572  : }

  00162	b8 01 00 00 00	 mov	 eax, 1
  00167	5e		 pop	 esi
  00168	8b e5		 mov	 esp, ebp
  0016a	5d		 pop	 ebp
  0016b	c2 04 00	 ret	 4
$LN18@StateRage:

; 524  : 	}
; 525  : 
; 526  : 	
; 527  : 
; 528  : 	///////////////////////////////////////////////////////////////////////////////////////////////////
; 529  : 	OnMessage( AIMSG_ATTACK_MELEE )

  0016e	83 f8 0e	 cmp	 eax, 14			; 0000000eH
  00171	75 2c		 jne	 SHORT $LN30@StateRage

; 530  : 		switch( m_nAttackType )			// 선택된 공격 패턴.

  00173	8b 46 48	 mov	 eax, DWORD PTR [esi+72]
  00176	8d 48 ff	 lea	 ecx, DWORD PTR [eax-1]
  00179	83 f9 03	 cmp	 ecx, 3
  0017c	77 07		 ja	 SHORT $LN36@StateRage
  0017e	ff 24 8d 00 00
	00 00		 jmp	 DWORD PTR $LN77@StateRage[ecx*4]
$LN36@StateRage:

; 531  : 		{
; 532  : 		case CAT_SLASH:
; 533  : 			// 폭발 이펙트 생성지점 계산.
; 534  : 			// 폭발 이펙트 생성;
; 535  : 			// 범위 공격;
; 536  : 			break;
; 537  : 		case CAT_LASER:
; 538  : //			if( 타점 이후 부터 )
; 539  : 			{
; 540  : 				//레이저 좌표 이동;
; 541  : 				//범위 데미지;
; 542  : 			}
; 543  : 			break;
; 544  : 		case CAT_SHOOT:
; 545  : 			// 미사일 오브젝트 생성;
; 546  : 			break;
; 547  : 		case CAT_QUAKE:		// 밟는 공격 타점.
; 548  : 			// 범위 데미지;
; 549  : 			break;
; 550  : 		default:
; 551  : 			Error( "CAIClockWorks::StateRage : AIMSG_ATTACK_MELEE %d", m_nAttackType );

  00185	50		 push	 eax
  00186	68 00 00 00 00	 push	 OFFSET ??_C@_0DB@DMENDIGL@CAIClockWorks?3?3StateRage?5?3?5AIMS@
  0018b	e8 00 00 00 00	 call	 ?Error@@YAPBDPBDZZ	; Error
  00190	83 c4 08	 add	 esp, 8

; 572  : }

  00193	b8 01 00 00 00	 mov	 eax, 1
  00198	5e		 pop	 esi
  00199	8b e5		 mov	 esp, ebp
  0019b	5d		 pop	 ebp
  0019c	c2 04 00	 ret	 4
$LN30@StateRage:

; 552  : 			break;
; 553  : 		}
; 554  : 	
; 555  : 	///////////////////////////////////////////////////////////////////////////////////////////////////
; 556  : 	OnMessage( AIMSG_END_APPEAR )	

  0019f	83 f8 10	 cmp	 eax, 16			; 00000010H
  001a2	75 13		 jne	 SHORT $LN37@StateRage

; 557  : 		m_nEvent = EPT_MOVING;		// 등장상태가 끝나면 감시/이동상태로 전환.

  001a4	c7 46 44 01 00
	00 00		 mov	 DWORD PTR [esi+68], 1

; 572  : }

  001ab	b8 01 00 00 00	 mov	 eax, 1
  001b0	5e		 pop	 esi
  001b1	8b e5		 mov	 esp, ebp
  001b3	5d		 pop	 ebp
  001b4	c2 04 00	 ret	 4
$LN37@StateRage:

; 558  : 
; 559  : 	///////////////////////////////////////////////////////////////////////////////////////////////////
; 560  : 	OnMessage( AIMSG_END_MELEEATTACK )	

  001b7	83 f8 0f	 cmp	 eax, 15			; 0000000fH
  001ba	75 83		 jne	 SHORT $LN41@StateRage

; 561  : 		m_nEvent = EPT_MOVING;				// 이동상태로 전환.

  001bc	c7 46 44 01 00
	00 00		 mov	 DWORD PTR [esi+68], 1

; 562  : 		m_tmReattack = timeGetTime();		// 리어택 타임 리셋;

  001c3	ff 15 00 00 00
	00		 call	 DWORD PTR __imp__timeGetTime@0
  001c9	89 46 4c	 mov	 DWORD PTR [esi+76], eax
; File C:\IAGOS\server\v18\Source\Source\_Common\xUtil.h

; 16   : 	g_next = g_next * 1103515245 + 12345;// + nRandomSeed[ i++ ];

  001cc	b8 d3 4d 62 10	 mov	 eax, 274877907		; 10624dd3H
  001d1	69 0d 00 00 00
	00 6d 4e c6 41	 imul	 ecx, DWORD PTR ?g_next@@3KA, 1103515245 ; g_next
  001db	81 c1 39 30 00
	00		 add	 ecx, 12345		; 00003039H
  001e1	f7 e1		 mul	 ecx
  001e3	89 0d 00 00 00
	00		 mov	 DWORD PTR ?g_next@@3KA, ecx ; g_next
  001e9	c1 ea 07	 shr	 edx, 7

; 22   : 	return  xRand() % num;

  001ec	69 c2 d0 07 00
	00		 imul	 eax, edx, 2000
; File C:\IAGOS\server\v18\Source\Source\_AIInterface\AIClockWorks.cpp

; 564  : 		m_idTarget = NULL_ID;				// 타겟을 클리어.

  001f2	c7 46 5c ff ff
	ff ff		 mov	 DWORD PTR [esi+92], -1
; File C:\IAGOS\server\v18\Source\Source\_Common\xUtil.h

; 22   : 	return  xRand() % num;

  001f9	2b c8		 sub	 ecx, eax
; File C:\IAGOS\server\v18\Source\Source\_AIInterface\AIClockWorks.cpp

; 572  : }

  001fb	b8 01 00 00 00	 mov	 eax, 1
  00200	89 4e 50	 mov	 DWORD PTR [esi+80], ecx
  00203	5e		 pop	 esi
  00204	8b e5		 mov	 esp, ebp
  00206	5d		 pop	 ebp
  00207	c2 04 00	 ret	 4
  0020a	66 90		 npad	 2
$LN76@StateRage:
  0020c	00 00 00 00	 DD	 $LN20@StateRage
  00210	00 00 00 00	 DD	 $LN22@StateRage
  00214	00 00 00 00	 DD	 $LN21@StateRage
  00218	00 00 00 00	 DD	 $LN23@StateRage
$LN77@StateRage:
  0021c	00 00 00 00	 DD	 $LN41@StateRage
  00220	00 00 00 00	 DD	 $LN41@StateRage
  00224	00 00 00 00	 DD	 $LN41@StateRage
  00228	00 00 00 00	 DD	 $LN41@StateRage
?StateRage@CAIClockWorks@@QAEHABUAIMSG@@@Z ENDP		; CAIClockWorks::StateRage
_TEXT	ENDS
; Function compile flags: /Ogtp
; File C:\IAGOS\server\v18\Source\Source\_AIInterface\AIClockWorks.cpp
;	COMDAT ?StateIdle@CAIClockWorks@@QAEHABUAIMSG@@@Z
_TEXT	SEGMENT
_msg$ = 8						; size = 4
?StateIdle@CAIClockWorks@@QAEHABUAIMSG@@@Z PROC		; CAIClockWorks::StateIdle, COMDAT
; _this$ = ecx

; 118  : {

  00000	55		 push	 ebp
  00001	8b ec		 mov	 ebp, esp

; 119  : 	CMover* pMover = GetMover();
; 120  : 	CWorld* pWorld = GetWorld();
; 121  : 	
; 122  : 	BeginAIHandler( )
; 123  : 		
; 124  : 	///////////////////////////////////////////////////////////////////////////////////////////////////
; 125  : 	OnMessage( AIMSG_INIT ) 

  00003	8b 45 08	 mov	 eax, DWORD PTR _msg$[ebp]
  00006	8b 00		 mov	 eax, DWORD PTR [eax]
  00008	83 f8 01	 cmp	 eax, 1
  0000b	75 16		 jne	 SHORT $LN4@StateIdle
$LN24@StateIdle:

; 137  : 		SendAIMsg( AIMSG_EXIT );
; 138  : 	
; 139  : 	///////////////////////////////////////////////////////////////////////////////////////////////////
; 140  : 	OnMessage( AIMSG_COLLISION )
; 141  : 	
; 142  : 	///////////////////////////////////////////////////////////////////////////////////////////////////
; 143  : 	OnMessage( AIMSG_ARRIVAL )
; 144  : 		
; 145  : 		///////////////////////////////////////////////////////////////////////////////////////////////////
; 146  : 	OnMessage( AIMSG_EXIT )	
; 147  : 		
; 148  : 	EndAIHandler( )
; 149  : 			return TRUE;
; 150  : }

  0000d	8b 01		 mov	 eax, DWORD PTR [ecx]
  0000f	6a 00		 push	 0
  00011	6a ff		 push	 -1
  00013	6a 04		 push	 4
  00015	6a 04		 push	 4
  00017	ff 50 0c	 call	 DWORD PTR [eax+12]
  0001a	b8 01 00 00 00	 mov	 eax, 1
  0001f	5d		 pop	 ebp
  00020	c2 04 00	 ret	 4
$LN4@StateIdle:

; 126  : 		SendAIMsg( AIMSG_SETSTATE, STATE_RAGE, NULL_ID );	// 보스는 IDLE패턴이 없다. 바로 공격에 들어간다.
; 127  : 	///////////////////////////////////////////////////////////////////////////////////////////////////
; 128  : 	OnMessage( AIMSG_PROCESS ) 

  00023	83 f8 02	 cmp	 eax, 2
  00026	74 17		 je	 SHORT $LN16@StateIdle

; 129  : 		MoveProcessIdle();
; 130  : 	
; 131  : 	///////////////////////////////////////////////////////////////////////////////////////////////////
; 132  : 	OnMessage( AIMSG_DAMAGE ) 

  00028	83 f8 08	 cmp	 eax, 8
  0002b	74 e0		 je	 SHORT $LN24@StateIdle

; 133  : 		SendAIMsg( AIMSG_SETSTATE, STATE_RAGE, NULL_ID );
; 134  : 	
; 135  : 	///////////////////////////////////////////////////////////////////////////////////////////////////
; 136  : 	OnMessage( AIMSG_DIE ) 

  0002d	83 f8 09	 cmp	 eax, 9
  00030	75 0d		 jne	 SHORT $LN16@StateIdle

; 137  : 		SendAIMsg( AIMSG_EXIT );
; 138  : 	
; 139  : 	///////////////////////////////////////////////////////////////////////////////////////////////////
; 140  : 	OnMessage( AIMSG_COLLISION )
; 141  : 	
; 142  : 	///////////////////////////////////////////////////////////////////////////////////////////////////
; 143  : 	OnMessage( AIMSG_ARRIVAL )
; 144  : 		
; 145  : 		///////////////////////////////////////////////////////////////////////////////////////////////////
; 146  : 	OnMessage( AIMSG_EXIT )	
; 147  : 		
; 148  : 	EndAIHandler( )
; 149  : 			return TRUE;
; 150  : }

  00032	8b 01		 mov	 eax, DWORD PTR [ecx]
  00034	6a 00		 push	 0
  00036	6a 00		 push	 0
  00038	6a 00		 push	 0
  0003a	6a 12		 push	 18			; 00000012H
  0003c	ff 50 0c	 call	 DWORD PTR [eax+12]
$LN16@StateIdle:
  0003f	b8 01 00 00 00	 mov	 eax, 1
  00044	5d		 pop	 ebp
  00045	c2 04 00	 ret	 4
?StateIdle@CAIClockWorks@@QAEHABUAIMSG@@@Z ENDP		; CAIClockWorks::StateIdle
_TEXT	ENDS
; Function compile flags: /Ogtp
; File C:\IAGOS\server\v18\Source\Source\_AIInterface\AIClockWorks.cpp
;	COMDAT ?StateInit@CAIClockWorks@@QAEHABUAIMSG@@@Z
_TEXT	SEGMENT
_msg$ = 8						; size = 4
?StateInit@CAIClockWorks@@QAEHABUAIMSG@@@Z PROC		; CAIClockWorks::StateInit, COMDAT
; _this$ = ecx

; 97   : 	return TRUE;

  00000	b8 01 00 00 00	 mov	 eax, 1

; 98   : }

  00005	c2 04 00	 ret	 4
?StateInit@CAIClockWorks@@QAEHABUAIMSG@@@Z ENDP		; CAIClockWorks::StateInit
_TEXT	ENDS
; Function compile flags: /Ogtp
; File C:\IAGOS\server\v18\Source\Source\_AIInterface\AIClockWorks.cpp
; File C:\IAGOS\server\v18\Source\Source\_Common\Obj.h
; File C:\IAGOS\server\v18\Source\Source\_AIInterface\AIClockWorks.cpp
;	COMDAT ?InitAI@CAIClockWorks@@UAEXXZ
_TEXT	SEGMENT
?InitAI@CAIClockWorks@@UAEXXZ PROC			; CAIClockWorks::InitAI, COMDAT
; _this$ = ecx
; File C:\IAGOS\server\v18\Source\Source\_Common\Obj.h

; 215  : 	D3DXVECTOR3		GetPos()	{ return m_vPos; }

  00000	8b 41 30	 mov	 eax, DWORD PTR [ecx+48]
; File C:\IAGOS\server\v18\Source\Source\_AIInterface\AIClockWorks.cpp

; 89   : 	PostAIMsg( AIMSG_SETSTATE, STATE_RAGE, NULL_ID );	// 최초 대기상태로 초기화.

  00003	6a 00		 push	 0
  00005	6a ff		 push	 -1
  00007	6a 04		 push	 4
  00009	f3 0f 7e 80 60
	01 00 00	 movq	 xmm0, QWORD PTR [eax+352]
  00011	66 0f d6 41 38	 movq	 QWORD PTR [ecx+56], xmm0
  00016	8b 80 68 01 00
	00		 mov	 eax, DWORD PTR [eax+360]
  0001c	89 41 40	 mov	 DWORD PTR [ecx+64], eax
  0001f	8b 01		 mov	 eax, DWORD PTR [ecx]
  00021	6a 04		 push	 4
  00023	ff 50 10	 call	 DWORD PTR [eax+16]

; 90   : #ifdef __INTERNALSERVER
; 91   : 	DEBUGOUT2( "ClockWorks start" );
; 92   : #endif
; 93   : }

  00026	c3		 ret	 0
?InitAI@CAIClockWorks@@UAEXXZ ENDP			; CAIClockWorks::InitAI
_TEXT	ENDS
; Function compile flags: /Ogtp
; File C:\IAGOS\server\v18\Source\Source\_AIInterface\AIClockWorks.cpp
;	COMDAT ??1CAIClockWorks@@UAE@XZ
_TEXT	SEGMENT
??1CAIClockWorks@@UAE@XZ PROC				; CAIClockWorks::~CAIClockWorks, COMDAT
; _this$ = ecx

; 65   : {

  00000	c7 01 00 00 00
	00		 mov	 DWORD PTR [ecx], OFFSET ??_7CAIClockWorks@@6B@

; 66   : 	Destroy();
; 67   : }

  00006	e9 00 00 00 00	 jmp	 ??1CAIInterface@@UAE@XZ	; CAIInterface::~CAIInterface
??1CAIClockWorks@@UAE@XZ ENDP				; CAIClockWorks::~CAIClockWorks
_TEXT	ENDS
; Function compile flags: /Ogtp
; File C:\IAGOS\server\v18\Source\Source\_AIInterface\AIClockWorks.cpp
;	COMDAT ??0CAIClockWorks@@QAE@PAVCObj@@@Z
_TEXT	SEGMENT
_this$ = -4						; size = 4
_pObj$ = 8						; size = 4
??0CAIClockWorks@@QAE@PAVCObj@@@Z PROC			; CAIClockWorks::CAIClockWorks, COMDAT
; _this$ = ecx

; 60   : {

  00000	55		 push	 ebp
  00001	8b ec		 mov	 ebp, esp
  00003	51		 push	 ecx
  00004	56		 push	 esi
  00005	ff 75 08	 push	 DWORD PTR _pObj$[ebp]
  00008	8b f1		 mov	 esi, ecx
  0000a	89 75 fc	 mov	 DWORD PTR _this$[ebp], esi
  0000d	e8 00 00 00 00	 call	 ??0CAIInterface@@QAE@PAVCObj@@@Z ; CAIInterface::CAIInterface

; 61   : 	Init();

  00012	8b ce		 mov	 ecx, esi
  00014	c7 06 00 00 00
	00		 mov	 DWORD PTR [esi], OFFSET ??_7CAIClockWorks@@6B@
  0001a	e8 00 00 00 00	 call	 ?Init@CAIClockWorks@@AAEXXZ ; CAIClockWorks::Init

; 62   : }

  0001f	8b c6		 mov	 eax, esi
  00021	5e		 pop	 esi
  00022	8b e5		 mov	 esp, ebp
  00024	5d		 pop	 ebp
  00025	c2 04 00	 ret	 4
??0CAIClockWorks@@QAE@PAVCObj@@@Z ENDP			; CAIClockWorks::CAIClockWorks
_TEXT	ENDS
; Function compile flags: /Ogtp
; File C:\IAGOS\server\v18\Source\Source\_AIInterface\AIClockWorks.cpp
;	COMDAT ??0CAIClockWorks@@QAE@XZ
_TEXT	SEGMENT
_this$ = -4						; size = 4
??0CAIClockWorks@@QAE@XZ PROC				; CAIClockWorks::CAIClockWorks, COMDAT
; _this$ = ecx

; 56   : {

  00000	55		 push	 ebp
  00001	8b ec		 mov	 ebp, esp
  00003	51		 push	 ecx
  00004	56		 push	 esi
  00005	8b f1		 mov	 esi, ecx
  00007	89 75 fc	 mov	 DWORD PTR _this$[ebp], esi
  0000a	e8 00 00 00 00	 call	 ??0CAIInterface@@QAE@XZ	; CAIInterface::CAIInterface

; 57   : 	Init();

  0000f	8b ce		 mov	 ecx, esi
  00011	c7 06 00 00 00
	00		 mov	 DWORD PTR [esi], OFFSET ??_7CAIClockWorks@@6B@
  00017	e8 00 00 00 00	 call	 ?Init@CAIClockWorks@@AAEXXZ ; CAIClockWorks::Init

; 58   : }

  0001c	8b c6		 mov	 eax, esi
  0001e	5e		 pop	 esi
  0001f	8b e5		 mov	 esp, ebp
  00021	5d		 pop	 ebp
  00022	c3		 ret	 0
??0CAIClockWorks@@QAE@XZ ENDP				; CAIClockWorks::CAIClockWorks
_TEXT	ENDS
; Function compile flags: /Ogtp
; File C:\IAGOS\server\v18\Source\Source\_AIInterface\AIClockWorks.cpp
;	COMDAT ?Destroy@CAIClockWorks@@AAEXXZ
_TEXT	SEGMENT
?Destroy@CAIClockWorks@@AAEXXZ PROC			; CAIClockWorks::Destroy, COMDAT
; _this$ = ecx

; 84   : }

  00000	c2 00 00	 ret	 0
?Destroy@CAIClockWorks@@AAEXXZ ENDP			; CAIClockWorks::Destroy
_TEXT	ENDS
; Function compile flags: /Ogtp
; File C:\IAGOS\server\v18\Source\Source\_AIInterface\AIClockWorks.cpp
;	COMDAT ?Init@CAIClockWorks@@AAEXXZ
_TEXT	SEGMENT
?Init@CAIClockWorks@@AAEXXZ PROC			; CAIClockWorks::Init, COMDAT
; _this$ = ecx

; 70   : {

  00000	56		 push	 esi
  00001	8b f1		 mov	 esi, ecx

; 71   : 	m_vPosBegin.x = m_vPosBegin.y = m_vPosBegin.z = 0;

  00003	c7 46 40 00 00
	00 00		 mov	 DWORD PTR [esi+64], 0
  0000a	c7 46 3c 00 00
	00 00		 mov	 DWORD PTR [esi+60], 0
  00011	c7 46 38 00 00
	00 00		 mov	 DWORD PTR [esi+56], 0

; 72   : 	m_nEvent = EPT_READY;

  00018	c7 46 44 00 00
	00 00		 mov	 DWORD PTR [esi+68], 0

; 73   : 	m_nAttackType = 0;

  0001f	c7 46 48 00 00
	00 00		 mov	 DWORD PTR [esi+72], 0

; 74   : 	m_tmReattack = m_tmAddReattack = m_tmTrace = m_tmTimeOver = timeGetTime();

  00026	ff 15 00 00 00
	00		 call	 DWORD PTR __imp__timeGetTime@0
  0002c	89 46 58	 mov	 DWORD PTR [esi+88], eax
  0002f	89 46 54	 mov	 DWORD PTR [esi+84], eax
  00032	89 46 50	 mov	 DWORD PTR [esi+80], eax
  00035	89 46 4c	 mov	 DWORD PTR [esi+76], eax

; 75   : 	m_idTarget = NULL_ID;

  00038	c7 46 5c ff ff
	ff ff		 mov	 DWORD PTR [esi+92], -1

; 76   : 	m_vTarget.x = m_vTarget.y = m_vTarget.z = 0;

  0003f	c7 46 68 00 00
	00 00		 mov	 DWORD PTR [esi+104], 0
  00046	c7 46 64 00 00
	00 00		 mov	 DWORD PTR [esi+100], 0
  0004d	c7 46 60 00 00
	00 00		 mov	 DWORD PTR [esi+96], 0

; 77   : 	m_idLastAttacker = NULL_ID;

  00054	c7 46 70 ff ff
	ff ff		 mov	 DWORD PTR [esi+112], -1

; 78   : 	m_bDefenseMode = FALSE;

  0005b	c7 46 74 00 00
	00 00		 mov	 DWORD PTR [esi+116], 0

; 79   : 	m_nAppearCnt = 0;

  00062	c7 46 6c 00 00
	00 00		 mov	 DWORD PTR [esi+108], 0
  00069	5e		 pop	 esi

; 80   : }

  0006a	c3		 ret	 0
?Init@CAIClockWorks@@AAEXXZ ENDP			; CAIClockWorks::Init
_TEXT	ENDS
; Function compile flags: /Ogtp
; File C:\IAGOS\server\v18\Source\Source\_AIInterface\AIClockWorks.cpp
; File C:\IAGOS\server\v18\Source\Source\_Common\Obj.h
; File C:\IAGOS\server\v18\Source\Source\DX_SDK\d3dx9math.inl
; File C:\IAGOS\server\v18\Source\Source\_Common\Obj.h
; File C:\IAGOS\server\v18\Source\Source\DX_SDK\d3dx9math.inl
; File C:\IAGOS\server\v18\Source\Source\_AIInterface\AIClockWorks.cpp
; File C:\IAGOS\server\v18\Source\Source\_Common\xUtil.h
; File C:\IAGOS\server\v18\Source\Source\_AIInterface\AIClockWorks.cpp
;	COMDAT ?SelectTarget@CAIClockWorks@@AAEHXZ
_TEXT	SEGMENT
$T1 = -28						; size = 12
$T2 = -16						; size = 12
_fRadius$ = -4						; size = 4
?SelectTarget@CAIClockWorks@@AAEHXZ PROC		; CAIClockWorks::SelectTarget, COMDAT
; _this$ = ecx

; 153  : {

  00000	55		 push	 ebp
  00001	8b ec		 mov	 ebp, esp
  00003	83 ec 1c	 sub	 esp, 28			; 0000001cH
  00006	56		 push	 esi
  00007	8b f1		 mov	 esi, ecx
  00009	57		 push	 edi

; 154  : 	CMover	*pMover = GetMover();

  0000a	8b 7e 30	 mov	 edi, DWORD PTR [esi+48]

; 155  : 	CWorld	*pWorld = GetWorld();
; 156  : 	CModelObject *pModel = (CModelObject *)pMover->GetModel();
; 157  : 
; 158  : 	FLOAT fRadius = pMover->GetRadiusXZ();		// this의 반지름

  0000d	8b cf		 mov	 ecx, edi
  0000f	e8 00 00 00 00	 call	 ?GetRadiusXZ@CObj@@QAEMXZ ; CObj::GetRadiusXZ

; 160  : 	
; 161  : 	CMover *pLastAttacker = prj.GetMover( m_idLastAttacker );

  00014	ff 76 70	 push	 DWORD PTR [esi+112]
  00017	b9 00 00 00 00	 mov	 ecx, OFFSET ?prj@@3VCProject@@A ; prj
  0001c	d9 5d fc	 fstp	 DWORD PTR _fRadius$[ebp]
  0001f	e8 00 00 00 00	 call	 ?GetMover@CProject@@QAEPAVCMover@@K@Z ; CProject::GetMover
  00024	8b c8		 mov	 ecx, eax

; 162  : 	if( pLastAttacker == NULL )			// LastAttacker가 없어졌으면 타겟 다시 잡을 수 있도록 하자.

  00026	85 c9		 test	 ecx, ecx
  00028	74 74		 je	 SHORT $LN71@SelectTarg
; File C:\IAGOS\server\v18\Source\Source\_Common\Obj.h

; 215  : 	D3DXVECTOR3		GetPos()	{ return m_vPos; }

  0002a	f3 0f 7e 87 60
	01 00 00	 movq	 xmm0, QWORD PTR [edi+352]
  00032	8b 87 68 01 00
	00		 mov	 eax, DWORD PTR [edi+360]
  00038	66 0f d6 45 e4	 movq	 QWORD PTR $T1[ebp], xmm0
  0003d	f3 0f 7e 81 60
	01 00 00	 movq	 xmm0, QWORD PTR [ecx+352]
  00045	66 0f d6 45 f0	 movq	 QWORD PTR $T2[ebp], xmm0
; File C:\IAGOS\server\v18\Source\Source\DX_SDK\d3dx9math.inl

; 383  :     return D3DXVECTOR3(x - v.x, y - v.y, z - v.z);

  0004a	f3 0f 10 4d f0	 movss	 xmm1, DWORD PTR $T2[ebp]
  0004f	f3 0f 10 55 f4	 movss	 xmm2, DWORD PTR $T2[ebp+4]
  00054	f3 0f 5c 55 e8	 subss	 xmm2, DWORD PTR $T1[ebp+4]
  00059	f3 0f 5c 4d e4	 subss	 xmm1, DWORD PTR $T1[ebp]
; File C:\IAGOS\server\v18\Source\Source\_Common\Obj.h

; 215  : 	D3DXVECTOR3		GetPos()	{ return m_vPos; }

  0005e	89 45 ec	 mov	 DWORD PTR $T1[ebp+8], eax
  00061	8b 81 68 01 00
	00		 mov	 eax, DWORD PTR [ecx+360]
  00067	89 45 f8	 mov	 DWORD PTR $T2[ebp+8], eax
; File C:\IAGOS\server\v18\Source\Source\DX_SDK\d3dx9math.inl

; 383  :     return D3DXVECTOR3(x - v.x, y - v.y, z - v.z);

  0006a	f3 0f 10 45 f8	 movss	 xmm0, DWORD PTR $T2[ebp+8]
  0006f	f3 0f 5c 45 ec	 subss	 xmm0, DWORD PTR $T1[ebp+8]

; 302  :     z = fz;

  00074	f3 0f 59 d2	 mulss	 xmm2, xmm2

; 1698 :     return pV->x * pV->x + pV->y * pV->y + pV->z * pV->z;

  00078	f3 0f 59 c9	 mulss	 xmm1, xmm1
  0007c	f3 0f 59 c0	 mulss	 xmm0, xmm0
  00080	f3 0f 58 d1	 addss	 xmm2, xmm1
  00084	f3 0f 58 d0	 addss	 xmm2, xmm0
; File C:\IAGOS\server\v18\Source\Source\_AIInterface\AIClockWorks.cpp

; 159  : 	FLOAT fRadiusSq = fRadius * fRadius;		// 반지름Sq버전.

  00088	f3 0f 10 45 fc	 movss	 xmm0, DWORD PTR _fRadius$[ebp]
  0008d	f3 0f 59 c0	 mulss	 xmm0, xmm0

; 163  : 	{
; 164  : 		m_idLastAttacker = NULL_ID;
; 165  : 	} else
; 166  : 	{		
; 167  : 		D3DXVECTOR3 vDist = pLastAttacker->GetPos() - pMover->GetPos();
; 168  : 		FLOAT fDistSq = D3DXVec3LengthSq( &vDist );		// 목표지점까지의 거리.
; 169  : 		if( fDistSq >= fRadiusSq * 10.0f )				// 라스트어태커가 내 반지름의 10배이상 떨어져있으면

  00091	f3 0f 59 05 00
	00 00 00	 mulss	 xmm0, DWORD PTR __real@41200000
  00099	0f 2f d0	 comiss	 xmm2, xmm0
  0009c	72 07		 jb	 SHORT $LN4@SelectTarg
$LN71@SelectTarg:

; 170  : 		{
; 171  : 			// 타겟 포기
; 172  : #ifdef __INTERNALSERVER
; 173  : 			CString str;
; 174  : 			str.Format( "LastAtker(%s)가 너무 멀어서(%5.2f) 타겟포기함", pLastAttacker->GetName(), sqrt(fDistSq) );
; 175  : 			DEBUGOUT2( str, "boss.txt" );
; 176  : #endif
; 177  : 			
; 178  : 			m_idLastAttacker = NULL_ID;
; 179  : 			pLastAttacker = NULL;
; 180  : 		}
; 181  : 	}
; 182  : 
; 183  : 
; 184  : 	m_idTarget = NULL_ID;

  0009e	c7 46 70 ff ff
	ff ff		 mov	 DWORD PTR [esi+112], -1
$LN4@SelectTarg:

; 185  : 	m_vTarget.x = m_vTarget.y = m_vTarget.z = 0;	// 일단 이건 안쓰는걸로 하자.
; 186  : 
; 187  : 	if( m_idLastAttacker == NULL_ID )		// 아직 날 때린쉐리가 없다.

  000a5	83 7e 70 ff	 cmp	 DWORD PTR [esi+112], -1
  000a9	c7 46 5c ff ff
	ff ff		 mov	 DWORD PTR [esi+92], -1
  000b0	c7 46 68 00 00
	00 00		 mov	 DWORD PTR [esi+104], 0
  000b7	c7 46 64 00 00
	00 00		 mov	 DWORD PTR [esi+100], 0
  000be	c7 46 60 00 00
	00 00		 mov	 DWORD PTR [esi+96], 0
  000c5	75 36		 jne	 SHORT $LN5@SelectTarg

; 188  : 	{
; 189  : 		// 2006.06.08 ata2k JOB_ALL추가
; 190  : 		CMover* pTarget = ScanTarget( pMover, 80, JOB_ALL );		// 80미터 반경내에서 아무나 고른다.

  000c7	6a 00		 push	 0
  000c9	6a 00		 push	 0
  000cb	6a 00		 push	 0
  000cd	6a 28		 push	 40			; 00000028H
  000cf	6a 50		 push	 80			; 00000050H
  000d1	57		 push	 edi
  000d2	8b ce		 mov	 ecx, esi
  000d4	e8 00 00 00 00	 call	 ?ScanTarget@CAIInterface@@IAEPAVCMover@@PAVCObj@@HHKKH@Z ; CAIInterface::ScanTarget

; 191  : 		if( pTarget )

  000d9	85 c0		 test	 eax, eax
  000db	74 18		 je	 SHORT $LN7@SelectTarg

; 192  : 		{
; 193  : 			// this가 비행형 몬스터거나 || 타겟이 비행중이 아닐때만 공격.
; 194  : 			if( pMover->IsFlyingNPC() || pTarget->m_pActMover->IsFly() == FALSE )	

  000dd	f7 87 3c 02 00
	00 00 00 01 00	 test	 DWORD PTR [edi+572], 65536 ; 00010000H
  000e7	75 6f		 jne	 SHORT $LN11@SelectTarg
  000e9	8b 88 38 02 00
	00		 mov	 ecx, DWORD PTR [eax+568]
  000ef	f6 41 08 08	 test	 BYTE PTR [ecx+8], 8
  000f3	74 63		 je	 SHORT $LN11@SelectTarg
$LN7@SelectTarg:
  000f5	5f		 pop	 edi

; 195  : 			{
; 196  : 				m_idTarget = pTarget->GetId();
; 197  : #ifdef __INTERNALSERVER
; 198  : 				CString str;
; 199  : 				str.Format( "scanTarget:%s", pTarget->GetName() );
; 200  : 				DEBUGOUT2( str, "boss.txt" );
; 201  : #endif
; 202  : 				
; 203  : 			}
; 204  : 			else
; 205  : 				return FALSE;		// 못 찾았으면 걍 리턴. - 원래는 다른타겟을 찾아야겠지.
; 206  : 		} else
; 207  : 			return FALSE;

  000f6	33 c0		 xor	 eax, eax

; 292  : }

  000f8	5e		 pop	 esi
  000f9	8b e5		 mov	 esp, ebp
  000fb	5d		 pop	 ebp
  000fc	c3		 ret	 0
$LN5@SelectTarg:
; File C:\IAGOS\server\v18\Source\Source\_Common\xUtil.h

; 16   : 	g_next = g_next * 1103515245 + 12345;// + nRandomSeed[ i++ ];

  000fd	69 0d 00 00 00
	00 6d 4e c6 41	 imul	 ecx, DWORD PTR ?g_next@@3KA, 1103515245 ; g_next

; 22   : 	return  xRand() % num;

  00107	b8 1f 85 eb 51	 mov	 eax, 1374389535		; 51eb851fH

; 16   : 	g_next = g_next * 1103515245 + 12345;// + nRandomSeed[ i++ ];

  0010c	81 c1 39 30 00
	00		 add	 ecx, 12345		; 00003039H

; 22   : 	return  xRand() % num;

  00112	f7 e1		 mul	 ecx

; 16   : 	g_next = g_next * 1103515245 + 12345;// + nRandomSeed[ i++ ];

  00114	89 0d 00 00 00
	00		 mov	 DWORD PTR ?g_next@@3KA, ecx ; g_next

; 22   : 	return  xRand() % num;

  0011a	c1 ea 05	 shr	 edx, 5
  0011d	6b c2 64	 imul	 eax, edx, 100
  00120	2b c8		 sub	 ecx, eax
; File C:\IAGOS\server\v18\Source\Source\_AIInterface\AIClockWorks.cpp

; 212  : 		if( dwNum < 50 )		

  00122	83 f9 32	 cmp	 ecx, 50			; 00000032H
  00125	72 76		 jb	 SHORT $LN22@SelectTarg

; 213  : 		{
; 214  : 			// 50% 확률로 마지막으로 날 때린넘 공격.
; 215  : 			m_idTarget = m_idLastAttacker;		// 날 공격한 쉐리를 타겟으로 지정하자.
; 216  : 		} else
; 217  : 		if( dwNum < 75 )

  00127	83 f9 4b	 cmp	 ecx, 75			; 0000004bH
  0012a	73 40		 jae	 SHORT $LN14@SelectTarg

; 218  : 		{
; 219  : 			// 50미터 반경내에서 가장 쎈넘을 잡자.
; 220  : 			CMover *pTarget = ScanTargetStrong( pMover, 50 );		

  0012c	51		 push	 ecx
  0012d	c7 04 24 00 00
	48 42		 mov	 DWORD PTR [esp], 1112014848 ; 42480000H
  00134	8b ce		 mov	 ecx, esi
  00136	57		 push	 edi
  00137	e8 00 00 00 00	 call	 ?ScanTargetStrong@CAIInterface@@IAEPAVCMover@@PAVCObj@@M@Z ; CAIInterface::ScanTargetStrong

; 221  : 			if( pTarget )

  0013c	85 c0		 test	 eax, eax
  0013e	74 5d		 je	 SHORT $LN22@SelectTarg

; 222  : 			{
; 223  : 				// this가 비행형 몬스터거나 || 타겟이 비행중이 아닐때만 공격.
; 224  : 				if( pMover->IsFlyingNPC() || pTarget->m_pActMover->IsFly() == FALSE )	

  00140	f7 87 3c 02 00
	00 00 00 01 00	 test	 DWORD PTR [edi+572], 65536 ; 00010000H
  0014a	75 0c		 jne	 SHORT $LN11@SelectTarg
  0014c	8b 88 38 02 00
	00		 mov	 ecx, DWORD PTR [eax+568]
  00152	f6 41 08 08	 test	 BYTE PTR [ecx+8], 8
  00156	75 45		 jne	 SHORT $LN22@SelectTarg
$LN11@SelectTarg:

; 246  : 				{
; 247  : 					m_idTarget = pTarget->GetId();
; 248  : #ifdef __INTERNALSERVER
; 249  : 					CString str;
; 250  : 					str.Format( "OverHealer:%s", pTarget->GetName() );
; 251  : 					DEBUGOUT2( str, "boss.txt" );
; 252  : #endif
; 253  : 				}
; 254  : 				else
; 255  : 					m_idTarget = m_idLastAttacker;		// 타겟이 공격하기가 여의치 않으면 마지막으로 때린쉐리 공격하자.
; 256  : 			} else
; 257  : 				m_idTarget = m_idLastAttacker;		// 타겟이 공격하기가 여의치 않으면 마지막으로 때린쉐리 공격하자.
; 258  : 		}
; 259  : #ifdef __INTERNALSERVER
; 260  : 		{
; 261  : 			CMover *pTarget = prj.GetMover( m_idTarget );
; 262  : 			CMover *pMover = prj.GetMover( m_idLastAttacker );
; 263  : 			CString str;
; 264  : 			if( pMover )
; 265  : 			{
; 266  : 				if( pTarget )
; 267  : 					str.Format( "rand:%d LastAttacker:%s SelectTarget:%s", dwNum, pMover->GetName(), pTarget->GetName() );
; 268  : 				else
; 269  : 					str.Format( "rand:%d LastAttacker:%s SelectTarget:%s", dwNum, pMover->GetName(), "없음" );
; 270  : 				DEBUGOUT2( str, "boss.txt" );
; 271  : 			} else
; 272  : 			{
; 273  : 				if( pTarget )
; 274  : 					str.Format( "rand:%d LastAttacker:%s SelectTarget:%s", dwNum, "없음.", pTarget->GetName() );
; 275  : 				else
; 276  : 					str.Format( "rand:%d LastAttacker:%s SelectTarget:%s", dwNum, "없음.", "없음" );
; 277  : 				
; 278  : 				DEBUGOUT2( str, "boss.txt" );
; 279  : 			}
; 280  : 
; 281  : 		}
; 282  : #endif
; 283  : 	}
; 284  : 
; 285  : 	// 적절한 공격대상을 정하자.
; 286  : 	// .가장 마지막으로 날 때린넘 - 50%. - 골고루 공격한다는 느낌을 줌.
; 287  : 	// .나에게 가장 위협적인넘(데미지를 많이 주는넘 혹은 가장 강한 넘) - 25%
; 288  : 	// .오버힐 하는 어시 - 25%.
; 289  : 	// .떼거리로 가장 몰려있는 구역의 중앙에 있는넘. - 10% - 일단 이건 나중에
; 290  : 
; 291  : 	return TRUE;

  00158	8b 80 bc 01 00
	00		 mov	 eax, DWORD PTR [eax+444]
  0015e	89 46 5c	 mov	 DWORD PTR [esi+92], eax
  00161	b8 01 00 00 00	 mov	 eax, 1
  00166	5f		 pop	 edi

; 292  : }

  00167	5e		 pop	 esi
  00168	8b e5		 mov	 esp, ebp
  0016a	5d		 pop	 ebp
  0016b	c3		 ret	 0
$LN14@SelectTarg:

; 225  : 				{
; 226  : 					m_idTarget = pTarget->GetId();
; 227  : #ifdef __INTERNALSERVER
; 228  : 					CString str;
; 229  : 					str.Format( "Leader:%s %d", pTarget->GetName(), pTarget->GetLevel() );
; 230  : 					DEBUGOUT2( str, "boss.txt" );
; 231  : #endif
; 232  : 				}
; 233  : 				else
; 234  : 					m_idTarget = m_idLastAttacker;		// 타겟이 공격하기가 여의치 않으면 마지막으로 때린쉐리 공격하자.
; 235  : 			} else
; 236  : 				m_idTarget = m_idLastAttacker;		// 타겟이 공격하기가 여의치 않으면 마지막으로 때린쉐리 공격하자.
; 237  : 		} else
; 238  : 		if( dwNum < 100 )

  0016c	83 f9 64	 cmp	 ecx, 100		; 00000064H
  0016f	73 32		 jae	 SHORT $LN23@SelectTarg

; 239  : 		{
; 240  : 			// 오버힐하는 어시를 죽이자.
; 241  : 			CMover *pTarget = ScanTargetOverHealer( pMover, 50 );		

  00171	51		 push	 ecx
  00172	c7 04 24 00 00
	48 42		 mov	 DWORD PTR [esp], 1112014848 ; 42480000H
  00179	8b ce		 mov	 ecx, esi
  0017b	57		 push	 edi
  0017c	e8 00 00 00 00	 call	 ?ScanTargetOverHealer@CAIInterface@@IAEPAVCMover@@PAVCObj@@M@Z ; CAIInterface::ScanTargetOverHealer

; 242  : 			if( pTarget )

  00181	85 c0		 test	 eax, eax
  00183	74 18		 je	 SHORT $LN22@SelectTarg

; 243  : 			{
; 244  : 				// this가 비행형 몬스터거나 || 타겟이 비행중이 아닐때만 공격.
; 245  : 				if( pMover->IsFlyingNPC() || pTarget->m_pActMover->IsFly() == FALSE )	

  00185	f7 87 3c 02 00
	00 00 00 01 00	 test	 DWORD PTR [edi+572], 65536 ; 00010000H
  0018f	75 c7		 jne	 SHORT $LN11@SelectTarg
  00191	8b 88 38 02 00
	00		 mov	 ecx, DWORD PTR [eax+568]
  00197	f6 41 08 08	 test	 BYTE PTR [ecx+8], 8
  0019b	74 bb		 je	 SHORT $LN11@SelectTarg
$LN22@SelectTarg:

; 246  : 				{
; 247  : 					m_idTarget = pTarget->GetId();
; 248  : #ifdef __INTERNALSERVER
; 249  : 					CString str;
; 250  : 					str.Format( "OverHealer:%s", pTarget->GetName() );
; 251  : 					DEBUGOUT2( str, "boss.txt" );
; 252  : #endif
; 253  : 				}
; 254  : 				else
; 255  : 					m_idTarget = m_idLastAttacker;		// 타겟이 공격하기가 여의치 않으면 마지막으로 때린쉐리 공격하자.
; 256  : 			} else
; 257  : 				m_idTarget = m_idLastAttacker;		// 타겟이 공격하기가 여의치 않으면 마지막으로 때린쉐리 공격하자.
; 258  : 		}
; 259  : #ifdef __INTERNALSERVER
; 260  : 		{
; 261  : 			CMover *pTarget = prj.GetMover( m_idTarget );
; 262  : 			CMover *pMover = prj.GetMover( m_idLastAttacker );
; 263  : 			CString str;
; 264  : 			if( pMover )
; 265  : 			{
; 266  : 				if( pTarget )
; 267  : 					str.Format( "rand:%d LastAttacker:%s SelectTarget:%s", dwNum, pMover->GetName(), pTarget->GetName() );
; 268  : 				else
; 269  : 					str.Format( "rand:%d LastAttacker:%s SelectTarget:%s", dwNum, pMover->GetName(), "없음" );
; 270  : 				DEBUGOUT2( str, "boss.txt" );
; 271  : 			} else
; 272  : 			{
; 273  : 				if( pTarget )
; 274  : 					str.Format( "rand:%d LastAttacker:%s SelectTarget:%s", dwNum, "없음.", pTarget->GetName() );
; 275  : 				else
; 276  : 					str.Format( "rand:%d LastAttacker:%s SelectTarget:%s", dwNum, "없음.", "없음" );
; 277  : 				
; 278  : 				DEBUGOUT2( str, "boss.txt" );
; 279  : 			}
; 280  : 
; 281  : 		}
; 282  : #endif
; 283  : 	}
; 284  : 
; 285  : 	// 적절한 공격대상을 정하자.
; 286  : 	// .가장 마지막으로 날 때린넘 - 50%. - 골고루 공격한다는 느낌을 줌.
; 287  : 	// .나에게 가장 위협적인넘(데미지를 많이 주는넘 혹은 가장 강한 넘) - 25%
; 288  : 	// .오버힐 하는 어시 - 25%.
; 289  : 	// .떼거리로 가장 몰려있는 구역의 중앙에 있는넘. - 10% - 일단 이건 나중에
; 290  : 
; 291  : 	return TRUE;

  0019d	8b 46 70	 mov	 eax, DWORD PTR [esi+112]
  001a0	89 46 5c	 mov	 DWORD PTR [esi+92], eax
$LN23@SelectTarg:
  001a3	5f		 pop	 edi
  001a4	b8 01 00 00 00	 mov	 eax, 1

; 292  : }

  001a9	5e		 pop	 esi
  001aa	8b e5		 mov	 esp, ebp
  001ac	5d		 pop	 ebp
  001ad	c3		 ret	 0
?SelectTarget@CAIClockWorks@@AAEHXZ ENDP		; CAIClockWorks::SelectTarget
_TEXT	ENDS
; Function compile flags: /Ogtp
; File C:\IAGOS\server\v18\Source\Source\_AIInterface\AIClockWorks.cpp
; File C:\IAGOS\server\v18\Source\Source\_AIInterface\Action.h
; File C:\IAGOS\server\v18\Source\Source\_AIInterface\AIClockWorks.cpp
; File C:\IAGOS\server\v18\Source\Source\_Common\Mover.h
; File C:\IAGOS\server\v18\Source\Source\_AIInterface\AIClockWorks.cpp
; File C:\IAGOS\server\v18\Source\Source\_Common\Obj.h
; File C:\IAGOS\server\v18\Source\Source\_AIInterface\AIClockWorks.cpp
; File C:\IAGOS\server\v18\Source\Source\_Common\Obj.h
; File C:\IAGOS\server\v18\Source\Source\DX_SDK\d3dx9math.inl
; File C:\IAGOS\server\v18\Source\Source\_Common\Obj.h
; File C:\IAGOS\server\v18\Source\Source\DX_SDK\d3dx9math.inl
; File C:\IAGOS\server\v18\Source\Source\_Common\Obj.h
; File C:\IAGOS\server\v18\Source\Source\DX_SDK\d3dx9math.inl
; File C:\IAGOS\server\v18\Source\Source\_Common\Obj.h
; File C:\IAGOS\server\v18\Source\Source\DX_SDK\d3dx9math.inl
; File C:\IAGOS\server\v18\Source\Source\_AIInterface\AIClockWorks.cpp
; File C:\IAGOS\server\v18\Source\Source\DX_SDK\d3dx9math.inl
; File C:\IAGOS\server\v18\Source\Source\_AIInterface\AIClockWorks.cpp
; File C:\IAGOS\server\v18\Source\Source\_Common\xUtil.h
; File C:\IAGOS\server\v18\Source\Source\_AIInterface\AIClockWorks.cpp
; File C:\IAGOS\server\v18\Source\Source\_Common\xUtil.h
; File C:\IAGOS\server\v18\Source\Source\_AIInterface\AIClockWorks.cpp
;	COMDAT ?MoveProcessRage@CAIClockWorks@@AAEHXZ
_TEXT	SEGMENT
$T1 = -40						; size = 12
_vTarget$2 = -28					; size = 12
tv742 = -16						; size = 4
_fRadiusSq$1$ = -12					; size = 4
_fRadius$3 = -8						; size = 4
_fArrivalRange$1$ = -4					; size = 4
?MoveProcessRage@CAIClockWorks@@AAEHXZ PROC		; CAIClockWorks::MoveProcessRage, COMDAT
; _this$ = ecx

; 298  : {

  00000	55		 push	 ebp
  00001	8b ec		 mov	 ebp, esp
  00003	83 ec 28	 sub	 esp, 40			; 00000028H
  00006	53		 push	 ebx
  00007	56		 push	 esi
  00008	57		 push	 edi
  00009	8b f9		 mov	 edi, ecx

; 299  : 	CMover	*pMover = GetMover();
; 300  : 	CWorld	*pWorld = GetWorld();
; 301  : 	CModelObject *pModel = (CModelObject *)pMover->GetModel();
; 302  : 
; 303  : 	if( m_bDefenseMode == FALSE && pMover->GetHitPointPercent() <= 100 )		// 20%이하로 피가 빠지면

  0000b	83 7f 74 00	 cmp	 DWORD PTR [edi+116], 0
  0000f	8b 5f 30	 mov	 ebx, DWORD PTR [edi+48]
  00012	8b b3 78 01 00
	00		 mov	 esi, DWORD PTR [ebx+376]
  00018	75 2a		 jne	 SHORT $LN2@MoveProces
  0001a	6a 64		 push	 100			; 00000064H
  0001c	8b cb		 mov	 ecx, ebx
  0001e	e8 00 00 00 00	 call	 ?GetHitPointPercent@CMover@@QAEHH@Z ; CMover::GetHitPointPercent
  00023	83 f8 64	 cmp	 eax, 100		; 00000064H
  00026	7f 1c		 jg	 SHORT $LN2@MoveProces

; 304  : 	{
; 305  : 		m_bDefenseMode = TRUE;
; 306  : 		pMover->SetDestParam( DST_ADJDEF_RATE, 800, NULL_CHGPARAM );			// 방어도 30%증가.

  00028	6a 01		 push	 1
  0002a	68 ff ff ff 7f	 push	 2147483647		; 7fffffffH
  0002f	68 20 03 00 00	 push	 800			; 00000320H
  00034	6a 48		 push	 72			; 00000048H
  00036	8b cb		 mov	 ecx, ebx
  00038	c7 47 74 01 00
	00 00		 mov	 DWORD PTR [edi+116], 1
  0003f	e8 00 00 00 00	 call	 ?SetDestParam@CMover@@QAEXHHHH@Z ; CMover::SetDestParam
$LN2@MoveProces:

; 307  : 	}
; 308  : 
; 309  : 
; 310  : 	if( m_nEvent == EPT_READY )

  00044	8b 47 44	 mov	 eax, DWORD PTR [edi+68]
  00047	85 c0		 test	 eax, eax
  00049	75 6e		 jne	 SHORT $LN3@MoveProces

; 312  : 		if( pMover->m_pActMover->m_bGround == 1 && pMover->m_pActMover->GetActionState() != OBJSTA_APPEAR )		// 바닥에 떨어지면..

  0004b	8b 8b 38 02 00
	00		 mov	 ecx, DWORD PTR [ebx+568]
  00051	83 79 44 01	 cmp	 DWORD PTR [ecx+68], 1
  00055	75 24		 jne	 SHORT $LN40@MoveProces
; File C:\IAGOS\server\v18\Source\Source\_AIInterface\Action.h

; 305  : 	DWORD			GetActionState() { return m_dwState & OBJSTA_ACTION_ALL; }

  00057	8b 41 04	 mov	 eax, DWORD PTR [ecx+4]
  0005a	25 00 00 00 f0	 and	 eax, -268435456		; f0000000H
; File C:\IAGOS\server\v18\Source\Source\_AIInterface\AIClockWorks.cpp

; 312  : 		if( pMover->m_pActMover->m_bGround == 1 && pMover->m_pActMover->GetActionState() != OBJSTA_APPEAR )		// 바닥에 떨어지면..

  0005f	3d 00 00 00 20	 cmp	 eax, 536870912		; 20000000H
  00064	74 15		 je	 SHORT $LN40@MoveProces
; File C:\IAGOS\server\v18\Source\Source\_Common\Mover.h

; 1785 : 	if( m_pActMover )	

  00066	85 c9		 test	 ecx, ecx
  00068	74 11		 je	 SHORT $LN40@MoveProces

; 1786 : 		return m_pActMover->SendActMsg( dwMsg, nParam1, nParam2, nParam3, nParam4 );	

  0006a	8b 01		 mov	 eax, DWORD PTR [ecx]
  0006c	6a 00		 push	 0
  0006e	6a 00		 push	 0
  00070	6a 00		 push	 0
  00072	6a 00		 push	 0
  00074	6a 00		 push	 0
  00076	6a 0e		 push	 14			; 0000000eH
  00078	ff 50 04	 call	 DWORD PTR [eax+4]
$LN40@MoveProces:
; File C:\IAGOS\server\v18\Source\Source\_AIInterface\AIClockWorks.cpp

; 314  : 		if( ++m_nAppearCnt >= PROCESS_COUNT * 5 )		// 

  0007b	8b 47 6c	 mov	 eax, DWORD PTR [edi+108]
  0007e	40		 inc	 eax
  0007f	89 47 6c	 mov	 DWORD PTR [edi+108], eax
  00082	83 f8 4b	 cmp	 eax, 75			; 0000004bH
  00085	7c 26		 jl	 SHORT $LN16@MoveProces

; 315  : 		{
; 316  : 			PostAIMsg( AIMSG_END_APPEAR );		// 등장씬 애니메이션이 끝났음을 알림.

  00087	8b 07		 mov	 eax, DWORD PTR [edi]
  00089	8b cf		 mov	 ecx, edi
  0008b	6a 00		 push	 0
  0008d	6a 00		 push	 0
  0008f	6a 00		 push	 0
  00091	6a 10		 push	 16			; 00000010H
  00093	ff 50 10	 call	 DWORD PTR [eax+16]

; 317  : 			pMover->m_pActMover->ResetState( OBJSTA_ACTION_ALL );

  00096	8b 8b 38 02 00
	00		 mov	 ecx, DWORD PTR [ebx+568]
  0009c	68 00 00 00 f0	 push	 -268435456		; f0000000H
  000a1	e8 00 00 00 00	 call	 ?ResetState@CAction@@QAEXK@Z ; CAction::ResetState

; 318  : 			m_nAppearCnt = 0;

  000a6	c7 47 6c 00 00
	00 00		 mov	 DWORD PTR [edi+108], 0
$LN16@MoveProces:

; 449  : }

  000ad	5f		 pop	 edi
  000ae	5e		 pop	 esi
  000af	b8 01 00 00 00	 mov	 eax, 1
  000b4	5b		 pop	 ebx
  000b5	8b e5		 mov	 esp, ebp
  000b7	5d		 pop	 ebp
  000b8	c3		 ret	 0
$LN3@MoveProces:

; 319  : 		}
; 320  : 		// 아무것도 안함.
; 321  : 	} else
; 322  : 	// 공격중 애니.
; 323  : 	if( m_nEvent == EPT_ATTACKING )

  000b9	83 f8 02	 cmp	 eax, 2
  000bc	75 5c		 jne	 SHORT $LN7@MoveProces

; 324  : 	{
; 325  : 		BOOL bEnd = FALSE;
; 326  : 
; 327  : 		if( pMover->m_dwMotion == MTI_STAND || pModel->IsEndFrame()	)

  000be	83 bb d8 02 00
	00 00		 cmp	 DWORD PTR [ebx+728], 0
  000c5	74 09		 je	 SHORT $LN10@MoveProces
  000c7	83 be 9c 00 00
	00 00		 cmp	 DWORD PTR [esi+156], 0
  000ce	74 07		 je	 SHORT $LN66@MoveProces
$LN10@MoveProces:

; 328  : 			bEnd = TRUE;		// 공격 프레임 끝났는가. - 여기다 이걸 안넣어도 되는데 만약 공격동작의 끝을 놓치는 일이 생길때를 대비해서 넣어두면 조타.

  000d0	bb 01 00 00 00	 mov	 ebx, 1
  000d5	eb 02		 jmp	 SHORT $LN9@MoveProces
$LN66@MoveProces:

; 324  : 	{
; 325  : 		BOOL bEnd = FALSE;
; 326  : 
; 327  : 		if( pMover->m_dwMotion == MTI_STAND || pModel->IsEndFrame()	)

  000d7	33 db		 xor	 ebx, ebx
$LN9@MoveProces:

; 329  : 		if( timeGetTime() >= m_tmTimeOver + SEC(15) )				// 공격시작한지 10초이상오버됐으면 걍 끝남.

  000d9	8b 77 58	 mov	 esi, DWORD PTR [edi+88]
  000dc	81 c6 98 3a 00
	00		 add	 esi, 15000		; 00003a98H
  000e2	ff 15 00 00 00
	00		 call	 DWORD PTR __imp__timeGetTime@0
  000e8	3b c6		 cmp	 eax, esi
  000ea	73 04		 jae	 SHORT $LN64@MoveProces

; 330  : 			bEnd = TRUE;
; 331  : 		if( bEnd )

  000ec	85 db		 test	 ebx, ebx
  000ee	74 bd		 je	 SHORT $LN16@MoveProces
$LN64@MoveProces:

; 332  : 		{
; 333  : 			m_nEvent = EPT_MOVING;				// 이동상태로 전환.

  000f0	c7 47 44 01 00
	00 00		 mov	 DWORD PTR [edi+68], 1

; 334  : 			m_tmReattack = timeGetTime();		// 리어택 타임 리셋;

  000f7	ff 15 00 00 00
	00		 call	 DWORD PTR __imp__timeGetTime@0
  000fd	89 47 4c	 mov	 DWORD PTR [edi+76], eax

; 424  : 
; 425  : #ifdef __INTERNALSERVER
; 426  : 			{
; 427  : 				CString strType;
; 428  : 				switch( m_nAttackType )
; 429  : 				{
; 430  : 				case CAT_SLASH:		strType = "베기";	break;
; 431  : 				case CAT_SHOOT:		strType = "쏘기";	break;
; 432  : 				case CAT_LASER:		strType = "레이저";	break;
; 433  : 				case CAT_QUAKE:		strType = "밟기";	break;
; 434  : 				}
; 435  : 				CString str;
; 436  : 				str.Format( "AtkType:%s Dist:%5.2f", strType, sqrt(fDistSq) );
; 437  : 				DEBUGOUT2( str, "boss.txt" );
; 438  : 			}
; 439  : #endif
; 440  : 			
; 441  : 				
; 442  : 		} else	// 리어택 타이밍에 공격.
; 443  : 		{
; 444  : 			// 공격하기 적절한 위치로 이동하자.
; 445  : 		}
; 446  : 	}
; 447  : 
; 448  : 	return TRUE;

  00100	b8 01 00 00 00	 mov	 eax, 1
  00105	c7 47 50 d0 07
	00 00		 mov	 DWORD PTR [edi+80], 2000 ; 000007d0H
  0010c	c7 47 5c ff ff
	ff ff		 mov	 DWORD PTR [edi+92], -1
  00113	5f		 pop	 edi

; 449  : }

  00114	5e		 pop	 esi
  00115	5b		 pop	 ebx
  00116	8b e5		 mov	 esp, ebp
  00118	5d		 pop	 ebp
  00119	c3		 ret	 0
$LN7@MoveProces:

; 335  : 			m_tmAddReattack = 2000; // xRandom( 2000 );	// x초 범위내에서 리어택이 단축될 수 있다.
; 336  : 			m_idTarget = NULL_ID;				// 타겟을 클리어.
; 337  : 		} 
; 338  : 	} else
; 339  : 	// 공격을 위해 추격중.
; 340  : 	if( m_nEvent == EPT_TRACKING )

  0011a	83 f8 03	 cmp	 eax, 3
  0011d	75 46		 jne	 SHORT $LN13@MoveProces

; 341  : 	{
; 342  : 		if( timeGetTime() >= m_tmTrace + 3000 )		// 추적을 시작한지 3초가 지나면 추적을 포기

  0011f	8b 77 54	 mov	 esi, DWORD PTR [edi+84]
  00122	81 c6 b8 0b 00
	00		 add	 esi, 3000		; 00000bb8H
  00128	ff 15 00 00 00
	00		 call	 DWORD PTR __imp__timeGetTime@0
  0012e	3b c6		 cmp	 eax, esi
  00130	0f 82 77 ff ff
	ff		 jb	 $LN16@MoveProces

; 343  : 		{
; 344  : 			m_nEvent = EPT_MOVING;

  00136	c7 47 44 01 00
	00 00		 mov	 DWORD PTR [edi+68], 1

; 424  : 
; 425  : #ifdef __INTERNALSERVER
; 426  : 			{
; 427  : 				CString strType;
; 428  : 				switch( m_nAttackType )
; 429  : 				{
; 430  : 				case CAT_SLASH:		strType = "베기";	break;
; 431  : 				case CAT_SHOOT:		strType = "쏘기";	break;
; 432  : 				case CAT_LASER:		strType = "레이저";	break;
; 433  : 				case CAT_QUAKE:		strType = "밟기";	break;
; 434  : 				}
; 435  : 				CString str;
; 436  : 				str.Format( "AtkType:%s Dist:%5.2f", strType, sqrt(fDistSq) );
; 437  : 				DEBUGOUT2( str, "boss.txt" );
; 438  : 			}
; 439  : #endif
; 440  : 			
; 441  : 				
; 442  : 		} else	// 리어택 타이밍에 공격.
; 443  : 		{
; 444  : 			// 공격하기 적절한 위치로 이동하자.
; 445  : 		}
; 446  : 	}
; 447  : 
; 448  : 	return TRUE;

  0013d	b8 01 00 00 00	 mov	 eax, 1
  00142	c7 47 5c 00 00
	00 00		 mov	 DWORD PTR [edi+92], 0
  00149	c7 47 68 00 00
	00 00		 mov	 DWORD PTR [edi+104], 0
  00150	c7 47 64 00 00
	00 00		 mov	 DWORD PTR [edi+100], 0
  00157	c7 47 60 00 00
	00 00		 mov	 DWORD PTR [edi+96], 0
  0015e	5f		 pop	 edi

; 449  : }

  0015f	5e		 pop	 esi
  00160	5b		 pop	 ebx
  00161	8b e5		 mov	 esp, ebp
  00163	5d		 pop	 ebp
  00164	c3		 ret	 0
$LN13@MoveProces:

; 345  : 			m_idTarget = NULL;			// 여기서 이걸 클리어 해줘야 아래에서 SelectTarget()을 다시 한다 .
; 346  : 			m_vTarget.x = m_vTarget.y = m_vTarget.z = 0;			
; 347  : 		}
; 348  : 	} else
; 349  : 	//------------- 공격중이 아님. --------------------
; 350  : 	{
; 351  : 
; 352  : 		if( timeGetTime() >= m_tmReattack + (2000 - m_tmAddReattack) )		// 리어택 시간이 됐는가?  기본적으로 5초간격에 AddReattack으로 줄어들 수 있음.

  00165	8b 77 4c	 mov	 esi, DWORD PTR [edi+76]
  00168	2b 77 50	 sub	 esi, DWORD PTR [edi+80]
  0016b	a1 00 00 00 00	 mov	 eax, DWORD PTR __imp__timeGetTime@0
  00170	81 c6 d0 07 00
	00		 add	 esi, 2000		; 000007d0H
  00176	89 45 f0	 mov	 DWORD PTR tv742[ebp], eax
  00179	ff d0		 call	 eax
  0017b	3b c6		 cmp	 eax, esi
  0017d	0f 82 2a ff ff
	ff		 jb	 $LN16@MoveProces

; 353  : 		{
; 354  : 			FLOAT fRadius = pMover->GetRadiusXZ();		// this의 반지름

  00183	8b cb		 mov	 ecx, ebx
  00185	e8 00 00 00 00	 call	 ?GetRadiusXZ@CObj@@QAEMXZ ; CObj::GetRadiusXZ

; 355  : 			FLOAT fRadiusSq = fRadius * fRadius;		// 반지름Sq버전.
; 356  : 			
; 357  : 			if( m_idTarget == NULL_ID &&										// 공격대상이 정해지지 않았고

  0018a	83 7f 5c ff	 cmp	 DWORD PTR [edi+92], -1
  0018e	0f 57 c9	 xorps	 xmm1, xmm1
  00191	d9 5d f8	 fstp	 DWORD PTR _fRadius$3[ebp]
  00194	f3 0f 10 45 f8	 movss	 xmm0, DWORD PTR _fRadius$3[ebp]
  00199	f3 0f 59 c0	 mulss	 xmm0, xmm0
  0019d	f3 0f 11 4d fc	 movss	 DWORD PTR _fArrivalRange$1$[ebp], xmm1
  001a2	f3 0f 11 45 f4	 movss	 DWORD PTR _fRadiusSq$1$[ebp], xmm0
  001a7	75 3e		 jne	 SHORT $LN19@MoveProces
  001a9	f3 0f 10 47 60	 movss	 xmm0, DWORD PTR [edi+96]
  001ae	0f 2e c1	 ucomiss xmm0, xmm1
  001b1	9f		 lahf
  001b2	f6 c4 44	 test	 ah, 68			; 00000044H
  001b5	7a 30		 jp	 SHORT $LN19@MoveProces
  001b7	f3 0f 10 47 64	 movss	 xmm0, DWORD PTR [edi+100]
  001bc	0f 2e c1	 ucomiss xmm0, xmm1
  001bf	9f		 lahf
  001c0	f6 c4 44	 test	 ah, 68			; 00000044H
  001c3	7a 22		 jp	 SHORT $LN19@MoveProces
  001c5	f3 0f 10 47 68	 movss	 xmm0, DWORD PTR [edi+104]
  001ca	0f 2e c1	 ucomiss xmm0, xmm1
  001cd	9f		 lahf
  001ce	f6 c4 44	 test	 ah, 68			; 00000044H
  001d1	7a 14		 jp	 SHORT $LN19@MoveProces

; 358  : 				(m_vTarget.x == 0 && m_vTarget.y == 0 && m_vTarget.z == 0) )	// 공격위치도 정해지지 않았다.
; 359  : 			{
; 360  : 				// 어떤 쉐리를 공격할까....? 를 선정함.
; 361  : 				if( SelectTarget() == FALSE )

  001d3	8b cf		 mov	 ecx, edi
  001d5	e8 00 00 00 00	 call	 ?SelectTarget@CAIClockWorks@@AAEHXZ ; CAIClockWorks::SelectTarget
  001da	85 c0		 test	 eax, eax
  001dc	0f 84 89 01 00
	00		 je	 $LN24@MoveProces
  001e2	f3 0f 10 4d fc	 movss	 xmm1, DWORD PTR _fArrivalRange$1$[ebp]
$LN19@MoveProces:

; 362  : 					return FALSE;
; 363  : 			}
; 364  : 
; 365  : 			D3DXVECTOR3	vTarget;
; 366  : 			FLOAT	fDistSq = 0;					// 공격지점과 this의 거리.
; 367  : 			CMover *pTarget = NULL;
; 368  : 			if( m_idTarget != NULL_ID )		// 타겟오브젝이 있을때

  001e7	8b 47 5c	 mov	 eax, DWORD PTR [edi+92]
  001ea	83 f8 ff	 cmp	 eax, -1
  001ed	74 2d		 je	 SHORT $LN20@MoveProces

; 369  : 			{
; 370  : 				pTarget = prj.GetMover( m_idTarget );

  001ef	50		 push	 eax
  001f0	b9 00 00 00 00	 mov	 ecx, OFFSET ?prj@@3VCProject@@A ; prj
  001f5	e8 00 00 00 00	 call	 ?GetMover@CProject@@QAEPAVCMover@@K@Z ; CProject::GetMover
; File C:\IAGOS\server\v18\Source\Source\_Common\Obj.h

; 327  : 	return pObj && ( pObj->IsDelete() == FALSE ); 

  001fa	85 c0		 test	 eax, eax
  001fc	0f 84 62 01 00
	00		 je	 $LN32@MoveProces

; 180  : 	BOOL			IsDelete()	{ return (m_dwFlags & OBJ_FLAG_DELETE);  }

  00202	f6 40 04 01	 test	 BYTE PTR [eax+4], 1

; 327  : 	return pObj && ( pObj->IsDelete() == FALSE ); 

  00206	0f 85 58 01 00
	00		 jne	 $LN32@MoveProces
; File C:\IAGOS\server\v18\Source\Source\_AIInterface\AIClockWorks.cpp

; 372  : 					vTarget = pTarget->GetPos();		// 공격좌표는 타겟무버의 좌표

  0020c	f3 0f 7e 80 60
	01 00 00	 movq	 xmm0, QWORD PTR [eax+352]
  00214	8b 80 68 01 00
	00		 mov	 eax, DWORD PTR [eax+360]

; 373  : 				else
; 374  : 				{
; 375  : 					m_idTarget = NULL_ID;
; 376  : 					return FALSE;		// 타겟이 거시기 하면 걍리턴.
; 377  : 				}
; 378  : 			} else

  0021a	eb 3e		 jmp	 SHORT $LN94@MoveProces
$LN20@MoveProces:

; 379  : 			if( m_vTarget.x && m_vTarget.y && m_vTarget.z )		// 공격 좌표로 설정되어 있을때.

  0021c	f3 0f 10 47 60	 movss	 xmm0, DWORD PTR [edi+96]
  00221	0f 2e c1	 ucomiss xmm0, xmm1
  00224	9f		 lahf
  00225	f6 c4 44	 test	 ah, 68			; 00000044H
  00228	0f 8b 3d 01 00
	00		 jnp	 $LN24@MoveProces
  0022e	f3 0f 10 47 64	 movss	 xmm0, DWORD PTR [edi+100]
  00233	0f 2e c1	 ucomiss xmm0, xmm1
  00236	9f		 lahf
  00237	f6 c4 44	 test	 ah, 68			; 00000044H
  0023a	0f 8b 2b 01 00
	00		 jnp	 $LN24@MoveProces
  00240	f3 0f 10 47 68	 movss	 xmm0, DWORD PTR [edi+104]
  00245	0f 2e c1	 ucomiss xmm0, xmm1
  00248	9f		 lahf
  00249	f6 c4 44	 test	 ah, 68			; 00000044H
  0024c	0f 8b 19 01 00
	00		 jnp	 $LN24@MoveProces

; 380  : 			{
; 381  : 				vTarget = m_vTarget;

  00252	f3 0f 7e 47 60	 movq	 xmm0, QWORD PTR [edi+96]
  00257	8b 47 68	 mov	 eax, DWORD PTR [edi+104]
$LN94@MoveProces:
; File C:\IAGOS\server\v18\Source\Source\_Common\Obj.h

; 215  : 	D3DXVECTOR3		GetPos()	{ return m_vPos; }

  0025a	66 0f d6 45 e4	 movq	 QWORD PTR _vTarget$2[ebp], xmm0
  0025f	f3 0f 7e 83 60
	01 00 00	 movq	 xmm0, QWORD PTR [ebx+352]
; File C:\IAGOS\server\v18\Source\Source\DX_SDK\d3dx9math.inl

; 383  :     return D3DXVECTOR3(x - v.x, y - v.y, z - v.z);

  00267	f3 0f 10 4d e4	 movss	 xmm1, DWORD PTR _vTarget$2[ebp]
  0026c	f3 0f 10 55 e8	 movss	 xmm2, DWORD PTR _vTarget$2[ebp+4]
; File C:\IAGOS\server\v18\Source\Source\_Common\Obj.h

; 215  : 	D3DXVECTOR3		GetPos()	{ return m_vPos; }

  00271	66 0f d6 45 d8	 movq	 QWORD PTR $T1[ebp], xmm0
; File C:\IAGOS\server\v18\Source\Source\DX_SDK\d3dx9math.inl

; 383  :     return D3DXVECTOR3(x - v.x, y - v.y, z - v.z);

  00276	f3 0f 5c 55 dc	 subss	 xmm2, DWORD PTR $T1[ebp+4]
  0027b	f3 0f 5c 4d d8	 subss	 xmm1, DWORD PTR $T1[ebp]
; File C:\IAGOS\server\v18\Source\Source\_Common\Obj.h

; 215  : 	D3DXVECTOR3		GetPos()	{ return m_vPos; }

  00280	89 45 ec	 mov	 DWORD PTR _vTarget$2[ebp+8], eax
; File C:\IAGOS\server\v18\Source\Source\DX_SDK\d3dx9math.inl

; 383  :     return D3DXVECTOR3(x - v.x, y - v.y, z - v.z);

  00283	f3 0f 10 45 ec	 movss	 xmm0, DWORD PTR _vTarget$2[ebp+8]
; File C:\IAGOS\server\v18\Source\Source\_Common\Obj.h

; 215  : 	D3DXVECTOR3		GetPos()	{ return m_vPos; }

  00288	8b 83 68 01 00
	00		 mov	 eax, DWORD PTR [ebx+360]
  0028e	89 45 e0	 mov	 DWORD PTR $T1[ebp+8], eax
; File C:\IAGOS\server\v18\Source\Source\DX_SDK\d3dx9math.inl

; 383  :     return D3DXVECTOR3(x - v.x, y - v.y, z - v.z);

  00291	f3 0f 5c 45 e0	 subss	 xmm0, DWORD PTR $T1[ebp+8]

; 302  :     z = fz;

  00296	f3 0f 59 d2	 mulss	 xmm2, xmm2

; 1698 :     return pV->x * pV->x + pV->y * pV->y + pV->z * pV->z;

  0029a	f3 0f 59 c9	 mulss	 xmm1, xmm1
  0029e	f3 0f 59 c0	 mulss	 xmm0, xmm0
  002a2	f3 0f 58 d1	 addss	 xmm2, xmm1
; File C:\IAGOS\server\v18\Source\Source\_AIInterface\AIClockWorks.cpp

; 392  : 			if( fDistSq < fRadiusSq * 1.5f )		// 근거리면.

  002a6	f3 0f 10 4d f4	 movss	 xmm1, DWORD PTR _fRadiusSq$1$[ebp]
; File C:\IAGOS\server\v18\Source\Source\DX_SDK\d3dx9math.inl

; 1698 :     return pV->x * pV->x + pV->y * pV->y + pV->z * pV->z;

  002ab	f3 0f 58 d0	 addss	 xmm2, xmm0
; File C:\IAGOS\server\v18\Source\Source\_AIInterface\AIClockWorks.cpp

; 392  : 			if( fDistSq < fRadiusSq * 1.5f )		// 근거리면.

  002af	0f 28 c1	 movaps	 xmm0, xmm1
  002b2	f3 0f 59 05 00
	00 00 00	 mulss	 xmm0, DWORD PTR __real@3fc00000
  002ba	0f 2f c2	 comiss	 xmm0, xmm2
  002bd	76 07		 jbe	 SHORT $LN26@MoveProces

; 393  : 			{
; 394  : 				m_nAttackType = CAT_QUAKE;		// 앞발로 밟기.
; 395  : 				fArrivalRange = 0;				// 딱붙어서 밟아야 한다.

  002bf	b8 04 00 00 00	 mov	 eax, 4

; 396  : 			} else

  002c4	eb 66		 jmp	 SHORT $LN95@MoveProces
$LN26@MoveProces:

; 397  : 			if( fDistSq < fRadiusSq * 3.0f )		// this의 반지름x배거리 내에 있으면 중거리.

  002c6	0f 28 c1	 movaps	 xmm0, xmm1
  002c9	f3 0f 59 05 00
	00 00 00	 mulss	 xmm0, DWORD PTR __real@40400000
  002d1	0f 2f c2	 comiss	 xmm0, xmm2
  002d4	76 37		 jbe	 SHORT $LN28@MoveProces
; File C:\IAGOS\server\v18\Source\Source\_Common\xUtil.h

; 16   : 	g_next = g_next * 1103515245 + 12345;// + nRandomSeed[ i++ ];

  002d6	69 0d 00 00 00
	00 6d 4e c6 41	 imul	 ecx, DWORD PTR ?g_next@@3KA, 1103515245 ; g_next

; 22   : 	return  xRand() % num;

  002e0	b8 1f 85 eb 51	 mov	 eax, 1374389535		; 51eb851fH
; File C:\IAGOS\server\v18\Source\Source\_AIInterface\AIClockWorks.cpp

; 403  : 				fArrivalRange = fRadius;		// 반지름 길이만큼 접근하자.

  002e5	f3 0f 10 45 f8	 movss	 xmm0, DWORD PTR _fRadius$3[ebp]
; File C:\IAGOS\server\v18\Source\Source\_Common\xUtil.h

; 16   : 	g_next = g_next * 1103515245 + 12345;// + nRandomSeed[ i++ ];

  002ea	81 c1 39 30 00
	00		 add	 ecx, 12345		; 00003039H

; 22   : 	return  xRand() % num;

  002f0	f7 e1		 mul	 ecx

; 16   : 	g_next = g_next * 1103515245 + 12345;// + nRandomSeed[ i++ ];

  002f2	89 0d 00 00 00
	00		 mov	 DWORD PTR ?g_next@@3KA, ecx ; g_next

; 22   : 	return  xRand() % num;

  002f8	c1 ea 05	 shr	 edx, 5
  002fb	6b c2 64	 imul	 eax, edx, 100
  002fe	2b c8		 sub	 ecx, eax
; File C:\IAGOS\server\v18\Source\Source\_AIInterface\AIClockWorks.cpp

; 403  : 				fArrivalRange = fRadius;		// 반지름 길이만큼 접근하자.

  00300	83 f9 32	 cmp	 ecx, 50			; 00000032H
  00303	1b c0		 sbb	 eax, eax
  00305	83 e0 fe	 and	 eax, -2			; fffffffeH
  00308	83 c0 03	 add	 eax, 3

; 404  : 			
; 405  : 			} else

  0030b	eb 1a		 jmp	 SHORT $LN96@MoveProces
$LN28@MoveProces:

; 406  : 			if( fDistSq < fRadiusSq * 6.0f )		// 반지름의 x배 이하는 쏘기.

  0030d	f3 0f 59 0d 00
	00 00 00	 mulss	 xmm1, DWORD PTR __real@40c00000
  00315	0f 2f ca	 comiss	 xmm1, xmm2
  00318	76 4a		 jbe	 SHORT $LN32@MoveProces

; 407  : 			{								
; 408  : 				// 반지름 3배거리 이상이면 원거리.
; 409  : 				m_nAttackType = CAT_SHOOT;		// 포쏘기.
; 410  : 				fArrivalRange = 30.0f;			// xx미터 까지 접근하자.

  0031a	f3 0f 10 05 00
	00 00 00	 movss	 xmm0, DWORD PTR __real@41f00000
  00322	b8 02 00 00 00	 mov	 eax, 2
$LN96@MoveProces:

; 415  : 				return FALSE;
; 416  : 			}
; 417  : 
; 418  : //			m_nAttackType = CAT_LASER;	// 레이저
; 419  : //			fArrivalRange = fRadius;		// 반지름 길이만큼 접근하자.
; 420  : 			
; 421  : 			m_tmTrace = timeGetTime();		// 추적 시작한 시간.

  00327	f3 0f 11 45 fc	 movss	 DWORD PTR _fArrivalRange$1$[ebp], xmm0
$LN95@MoveProces:
  0032c	8b cf		 mov	 ecx, edi
  0032e	ba 48 00 00 00	 mov	 edx, 72			; 00000048H
  00333	89 04 11	 mov	 DWORD PTR [ecx+edx], eax
  00336	ff 55 f0	 call	 DWORD PTR tv742[ebp]

; 422  : 			m_nEvent = EPT_TRACKING;		// 공격추격상태 전환.
; 423  : 			pMover->CMD_SetMeleeAttack( m_idTarget, fArrivalRange );		// 공격반경은 this의 반지름 크기정도가 적당하다.

  00339	f3 0f 10 45 fc	 movss	 xmm0, DWORD PTR _fArrivalRange$1$[ebp]
  0033e	51		 push	 ecx
  0033f	f3 0f 11 04 24	 movss	 DWORD PTR [esp], xmm0
  00344	8b cb		 mov	 ecx, ebx
  00346	ff 77 5c	 push	 DWORD PTR [edi+92]
  00349	89 47 54	 mov	 DWORD PTR [edi+84], eax
  0034c	c7 47 44 03 00
	00 00		 mov	 DWORD PTR [edi+68], 3
  00353	e8 00 00 00 00	 call	 ?CMD_SetMeleeAttack@CMover@@QAEXKM@Z ; CMover::CMD_SetMeleeAttack
  00358	5f		 pop	 edi

; 449  : }

  00359	5e		 pop	 esi
  0035a	b8 01 00 00 00	 mov	 eax, 1
  0035f	5b		 pop	 ebx
  00360	8b e5		 mov	 esp, ebp
  00362	5d		 pop	 ebp
  00363	c3		 ret	 0
$LN32@MoveProces:

; 411  : 			} else
; 412  : 			{
; 413  : 				// 엄청 멀리 떨어져있는넘은 포기.
; 414  : 				m_idTarget = NULL_ID;

  00364	c7 47 5c ff ff
	ff ff		 mov	 DWORD PTR [edi+92], -1
$LN24@MoveProces:
  0036b	5f		 pop	 edi

; 449  : }

  0036c	5e		 pop	 esi
  0036d	33 c0		 xor	 eax, eax
  0036f	5b		 pop	 ebx
  00370	8b e5		 mov	 esp, ebp
  00372	5d		 pop	 ebp
  00373	c3		 ret	 0
?MoveProcessRage@CAIClockWorks@@AAEHXZ ENDP		; CAIClockWorks::MoveProcessRage
_TEXT	ENDS
; Function compile flags: /Ogtp
; File C:\IAGOS\server\v18\Source\Source\_AIInterface\AIClockWorks.cpp
;	COMDAT ?MoveProcessIdle@CAIClockWorks@@AAEHXZ
_TEXT	SEGMENT
?MoveProcessIdle@CAIClockWorks@@AAEHXZ PROC		; CAIClockWorks::MoveProcessIdle, COMDAT
; _this$ = ecx

; 102  : #ifdef __MOVER_STATE_EFFECT
; 103  : 	CMover* pMover = GetMover();
; 104  : 
; 105  : 	if( IsInvalidObj( pMover ) == TRUE && pMover->m_pActMover->IsStateFlag( OBJSTAF_COMBAT ) == TRUE )
; 106  : 	{
; 107  : 		if( pMover->m_pActMover->SendActMsg( OBJMSG_MODE_PEACE ) == TRUE )
; 108  : 		{
; 109  : 			g_UserMng.AddSendActMsg( pMover, OBJMSG_MODE_PEACE );
; 110  : 		}
; 111  : 	}
; 112  : #endif // __MOVER_STATE_EFFECT
; 113  : 
; 114  : 	return TRUE;

  00000	b8 01 00 00 00	 mov	 eax, 1

; 115  : }

  00005	c3		 ret	 0
?MoveProcessIdle@CAIClockWorks@@AAEHXZ ENDP		; CAIClockWorks::MoveProcessIdle
_TEXT	ENDS
; Function compile flags: /Ogtp
; File C:\IAGOS\server\v18\Source\Source\_AIInterface\AIInterface.h
;	COMDAT ?IsReturnToBegin@CAIInterface@@UAEHXZ
_TEXT	SEGMENT
?IsReturnToBegin@CAIInterface@@UAEHXZ PROC		; CAIInterface::IsReturnToBegin, COMDAT
; _this$ = ecx

; 121  : 	virtual		BOOL	IsReturnToBegin( void )		{	return FALSE;	}

  00000	33 c0		 xor	 eax, eax
  00002	c3		 ret	 0
?IsReturnToBegin@CAIInterface@@UAEHXZ ENDP		; CAIInterface::IsReturnToBegin
_TEXT	ENDS
; Function compile flags: /Ogtp
; File C:\IAGOS\server\v18\Source\Source\DX_SDK\d3dx9math.h
;	COMDAT ??0D3DXVECTOR3@@QAE@XZ
_TEXT	SEGMENT
??0D3DXVECTOR3@@QAE@XZ PROC				; D3DXVECTOR3::D3DXVECTOR3, COMDAT
; _this$ = ecx

; 165  :     D3DXVECTOR3() {};

  00000	8b c1		 mov	 eax, ecx
  00002	c3		 ret	 0
??0D3DXVECTOR3@@QAE@XZ ENDP				; D3DXVECTOR3::D3DXVECTOR3
_TEXT	ENDS
; Function compile flags: /Ogtp
; File C:\IAGOS\server\v18\Source\Source\_AIInterface\AIClockWorks.cpp
;	COMDAT ?__empty_global_delete@@YAXPAXI@Z
_TEXT	SEGMENT
___formal$ = 8						; size = 4
___formal$ = 12						; size = 4
?__empty_global_delete@@YAXPAXI@Z PROC			; __empty_global_delete, COMDAT

  00000	c2 00 00	 ret	 0
?__empty_global_delete@@YAXPAXI@Z ENDP			; __empty_global_delete
_TEXT	ENDS
; Function compile flags: /Ogtp
; File C:\IAGOS\server\v18\Source\Source\_AIInterface\AIClockWorks.cpp
;	COMDAT ?__empty_global_delete@@YAXPAX@Z
_TEXT	SEGMENT
___formal$ = 8						; size = 4
?__empty_global_delete@@YAXPAX@Z PROC			; __empty_global_delete, COMDAT

  00000	c2 00 00	 ret	 0
?__empty_global_delete@@YAXPAX@Z ENDP			; __empty_global_delete
_TEXT	ENDS
END
