; Listing generated by Microsoft (R) Optimizing Compiler Version 19.44.35225.0 

	TITLE	C:\IAGOS\server\v18\Source\Output\WorldServer\Release\AIGuard.obj
	.686P
	.XMM
	include listing.inc
	.model	flat

INCLUDELIB LIBCMT
INCLUDELIB OLDNAMES

PUBLIC	?stateMap@CAIGuard@@2USTATEMAP@@B		; CAIGuard::stateMap
EXTRN	?stateMap@CAIInterface@@2USTATEMAP@@B:QWORD	; CAIInterface::stateMap
CONST	SEGMENT
?stateMap@CAIGuard@@2USTATEMAP@@B DD FLAT:?stateMap@CAIInterface@@2USTATEMAP@@B ; CAIGuard::stateMap
	DD	FLAT:?stateMapEntries@CAIGuard@@2QBUSTATEMAP_ENTRIES@@B
?piecewise_construct@std@@3Upiecewise_construct_t@1@B	ORG $+1 ; std::piecewise_construct
CONST	ENDS
PUBLIC	?__empty_global_delete@@YAXPAX@Z		; __empty_global_delete
PUBLIC	?__empty_global_delete@@YAXPAXI@Z		; __empty_global_delete
PUBLIC	?GetPropA@CMover@@QAEPAUMoverProp@@XZ		; CMover::GetPropA
PUBLIC	?IsReturnToBegin@CAIMonster@@UAEHXZ		; CAIMonster::IsReturnToBegin
PUBLIC	?MoveProcessIdle@CAIGuard@@AAEHABUAIMSG@@@Z	; CAIGuard::MoveProcessIdle
PUBLIC	?MoveProcessRage@CAIGuard@@AAEHABUAIMSG@@@Z	; CAIGuard::MoveProcessRage
PUBLIC	?MoveProcessRunaway@CAIGuard@@AAEHXZ		; CAIGuard::MoveProcessRunaway
PUBLIC	?StateInit@CAIGuard@@AAEHABUAIMSG@@@Z		; CAIGuard::StateInit
PUBLIC	?StateIdle@CAIGuard@@AAEHABUAIMSG@@@Z		; CAIGuard::StateIdle
PUBLIC	?StateWander@CAIGuard@@AAEHABUAIMSG@@@Z		; CAIGuard::StateWander
PUBLIC	?StateRunaway@CAIGuard@@AAEHABUAIMSG@@@Z	; CAIGuard::StateRunaway
PUBLIC	?StateEvade@CAIGuard@@AAEHABUAIMSG@@@Z		; CAIGuard::StateEvade
PUBLIC	?StateRage@CAIGuard@@AAEHABUAIMSG@@@Z		; CAIGuard::StateRage
PUBLIC	??0CAIGuard@@QAE@XZ				; CAIGuard::CAIGuard
PUBLIC	??0CAIGuard@@QAE@PAVCObj@@@Z			; CAIGuard::CAIGuard
PUBLIC	??1CAIGuard@@UAE@XZ				; CAIGuard::~CAIGuard
PUBLIC	?InitAI@CAIGuard@@UAEXXZ			; CAIGuard::InitAI
PUBLIC	?GetStateMap@CAIGuard@@UBEPBUSTATEMAP@@XZ	; CAIGuard::GetStateMap
PUBLIC	??_GCAIGuard@@UAEPAXI@Z				; CAIGuard::`scalar deleting destructor'
PUBLIC	??_C@_0BM@HMFGHCP@?$CFs?5min?3?$CFd?0?5max?3?$CFd?0?5index?3?$CFd@ ; `string'
PUBLIC	??_C@_0BJ@GKPOBPPI@GetMoverProp?5range_error@	; `string'
PUBLIC	?stateMapEntries@CAIGuard@@2QBUSTATEMAP_ENTRIES@@B ; CAIGuard::stateMapEntries
PUBLIC	??_7CAIGuard@@6B@				; CAIGuard::`vftable'
PUBLIC	??_C@_0CA@GLBIGGGO@m_nAttackFirstRange?5?$MA?L?$LL?s?3?$CFd?5?$CFs?6@ ; `string'
PUBLIC	??_R4CAIGuard@@6B@				; CAIGuard::`RTTI Complete Object Locator'
PUBLIC	??_R0?AVCAIGuard@@@8				; CAIGuard `RTTI Type Descriptor'
PUBLIC	??_R3CAIGuard@@8				; CAIGuard::`RTTI Class Hierarchy Descriptor'
PUBLIC	??_R2CAIGuard@@8				; CAIGuard::`RTTI Base Class Array'
PUBLIC	??_R1A@?0A@EA@CAIGuard@@8			; CAIGuard::`RTTI Base Class Descriptor at (0,-1,0,64)'
PUBLIC	??_R1A@?0A@EA@CAIMonster@@8			; CAIMonster::`RTTI Base Class Descriptor at (0,-1,0,64)'
PUBLIC	??_R0?AVCAIMonster@@@8				; CAIMonster `RTTI Type Descriptor'
PUBLIC	??_R3CAIMonster@@8				; CAIMonster::`RTTI Class Hierarchy Descriptor'
PUBLIC	??_R2CAIMonster@@8				; CAIMonster::`RTTI Base Class Array'
PUBLIC	??_R1A@?0A@EA@CAIInterface@@8			; CAIInterface::`RTTI Base Class Descriptor at (0,-1,0,64)'
PUBLIC	??_R0?AVCAIInterface@@@8			; CAIInterface `RTTI Type Descriptor'
PUBLIC	??_R3CAIInterface@@8				; CAIInterface::`RTTI Class Hierarchy Descriptor'
PUBLIC	??_R2CAIInterface@@8				; CAIInterface::`RTTI Base Class Array'
PUBLIC	__real@00000000
PUBLIC	__real@3c8efa35
PUBLIC	__real@3fd9999a
PUBLIC	__real@40a00000
PUBLIC	__real@41700000
PUBLIC	__real@42340000
PUBLIC	__xmm@41f00000000000000000000000000000
EXTRN	??3@YAXPAXI@Z:PROC				; operator delete
EXTRN	__imp__timeGetTime@0:PROC
EXTRN	?Error@@YAPBDPBDZZ:PROC				; Error
EXTRN	?AddAngle@CObj@@QAEXM@Z:PROC			; CObj::AddAngle
EXTRN	?GetCtrl@CProject@@QAEPAVCCtrl@@K@Z:PROC	; CProject::GetCtrl
EXTRN	?RouteMessage@CAIInterface@@UAEXXZ:PROC		; CAIInterface::RouteMessage
EXTRN	?SendAIMsg@CAIInterface@@UAEXKKKK@Z:PROC	; CAIInterface::SendAIMsg
EXTRN	?PostAIMsg@CAIInterface@@UAEXKKKK@Z:PROC	; CAIInterface::PostAIMsg
EXTRN	?ScanTarget@CAIInterface@@IAEPAVCMover@@PAVCObj@@HHKKH@Z:PROC ; CAIInterface::ScanTarget
EXTRN	?GetActiveHandItemProp@CMover@@QAEPAUItemProp@@H@Z:PROC ; CMover::GetActiveHandItemProp
EXTRN	?GetName@CMover@@QAEPBDH@Z:PROC			; CMover::GetName
EXTRN	?GetHitPointPercent@CMover@@QAEHH@Z:PROC	; CMover::GetHitPointPercent
EXTRN	?GetAttackRange@CMover@@QAEMK@Z:PROC		; CMover::GetAttackRange
EXTRN	?SetMovePattern@CMover@@QAEXH@Z:PROC		; CMover::SetMovePattern
EXTRN	?MoveToDst@CAIMonster@@IAEXK@Z:PROC		; CAIMonster::MoveToDst
EXTRN	?MoveToDst@CAIMonster@@IAEXABUD3DXVECTOR3@@@Z:PROC ; CAIMonster::MoveToDst
EXTRN	?MoveToRandom@CAIMonster@@IAEXI@Z:PROC		; CAIMonster::MoveToRandom
EXTRN	?CallHelper@CAIMonster@@IAEXPBUMoverProp@@@Z:PROC ; CAIMonster::CallHelper
EXTRN	?SetStop@CAIMonster@@IAEXK@Z:PROC		; CAIMonster::SetStop
EXTRN	?IsInRange@CAIMonster@@IAEHAAUD3DXVECTOR3@@M@Z:PROC ; CAIMonster::IsInRange
EXTRN	?MoveProcessRage@CAIMonster@@IAEHABUAIMSG@@@Z:PROC ; CAIMonster::MoveProcessRage
EXTRN	??0CAIMonster@@QAE@XZ:PROC			; CAIMonster::CAIMonster
EXTRN	??0CAIMonster@@QAE@PAVCObj@@@Z:PROC		; CAIMonster::CAIMonster
EXTRN	??1CAIMonster@@UAE@XZ:PROC			; CAIMonster::~CAIMonster
EXTRN	??_ECAIGuard@@UAEPAXI@Z:PROC			; CAIGuard::`vector deleting destructor'
EXTRN	?AddDlgEmoticon@CUserMng@@QAEXPAVCCtrl@@H@Z:PROC ; CUserMng::AddDlgEmoticon
EXTRN	?AddSetMovePattern@CUserMng@@QAEXPAVCMover@@HABUD3DXVECTOR3@@MM@Z:PROC ; CUserMng::AddSetMovePattern
EXTRN	@__security_check_cookie@4:PROC
EXTRN	__libm_sse2_cos_precise:PROC
EXTRN	__libm_sse2_sin_precise:PROC
EXTRN	??_7type_info@@6B@:QWORD			; type_info::`vftable'
EXTRN	?g_next@@3KA:DWORD				; g_next
EXTRN	?prj@@3VCProject@@A:BYTE			; prj
EXTRN	?g_tmCurrent@@3KA:DWORD				; g_tmCurrent
EXTRN	?g_UserMng@@3VCUserMng@@A:BYTE			; g_UserMng
EXTRN	___security_cookie:DWORD
EXTRN	__fltused:DWORD
;	COMDAT __xmm@41f00000000000000000000000000000
CONST	SEGMENT
__xmm@41f00000000000000000000000000000 DB 00H, 00H, 00H, 00H, 00H, 00H, 00H
	DB	00H, 00H, 00H, 00H, 00H, 00H, 00H, 0f0H, 'A'
CONST	ENDS
;	COMDAT __real@42340000
CONST	SEGMENT
__real@42340000 DD 042340000r			; 45
CONST	ENDS
;	COMDAT __real@41700000
CONST	SEGMENT
__real@41700000 DD 041700000r			; 15
CONST	ENDS
;	COMDAT __real@40a00000
CONST	SEGMENT
__real@40a00000 DD 040a00000r			; 5
CONST	ENDS
;	COMDAT __real@3fd9999a
CONST	SEGMENT
__real@3fd9999a DD 03fd9999ar			; 1.7
CONST	ENDS
;	COMDAT __real@3c8efa35
CONST	SEGMENT
__real@3c8efa35 DD 03c8efa35r			; 0.0174533
CONST	ENDS
;	COMDAT __real@00000000
CONST	SEGMENT
__real@00000000 DD 000000000r			; 0
CONST	ENDS
;	COMDAT ??_R2CAIInterface@@8
rdata$r	SEGMENT
??_R2CAIInterface@@8 DD FLAT:??_R1A@?0A@EA@CAIInterface@@8 ; CAIInterface::`RTTI Base Class Array'
rdata$r	ENDS
;	COMDAT ??_R3CAIInterface@@8
rdata$r	SEGMENT
??_R3CAIInterface@@8 DD 00H				; CAIInterface::`RTTI Class Hierarchy Descriptor'
	DD	00H
	DD	01H
	DD	FLAT:??_R2CAIInterface@@8
rdata$r	ENDS
;	COMDAT ??_R0?AVCAIInterface@@@8
data$rs	SEGMENT
??_R0?AVCAIInterface@@@8 DD FLAT:??_7type_info@@6B@	; CAIInterface `RTTI Type Descriptor'
	DD	00H
	DB	'.?AVCAIInterface@@', 00H
data$rs	ENDS
;	COMDAT ??_R1A@?0A@EA@CAIInterface@@8
rdata$r	SEGMENT
??_R1A@?0A@EA@CAIInterface@@8 DD FLAT:??_R0?AVCAIInterface@@@8 ; CAIInterface::`RTTI Base Class Descriptor at (0,-1,0,64)'
	DD	00H
	DD	00H
	DD	0ffffffffH
	DD	00H
	DD	040H
	DD	FLAT:??_R3CAIInterface@@8
rdata$r	ENDS
;	COMDAT ??_R2CAIMonster@@8
rdata$r	SEGMENT
??_R2CAIMonster@@8 DD FLAT:??_R1A@?0A@EA@CAIMonster@@8	; CAIMonster::`RTTI Base Class Array'
	DD	FLAT:??_R1A@?0A@EA@CAIInterface@@8
rdata$r	ENDS
;	COMDAT ??_R3CAIMonster@@8
rdata$r	SEGMENT
??_R3CAIMonster@@8 DD 00H				; CAIMonster::`RTTI Class Hierarchy Descriptor'
	DD	00H
	DD	02H
	DD	FLAT:??_R2CAIMonster@@8
rdata$r	ENDS
;	COMDAT ??_R0?AVCAIMonster@@@8
data$rs	SEGMENT
??_R0?AVCAIMonster@@@8 DD FLAT:??_7type_info@@6B@	; CAIMonster `RTTI Type Descriptor'
	DD	00H
	DB	'.?AVCAIMonster@@', 00H
data$rs	ENDS
;	COMDAT ??_R1A@?0A@EA@CAIMonster@@8
rdata$r	SEGMENT
??_R1A@?0A@EA@CAIMonster@@8 DD FLAT:??_R0?AVCAIMonster@@@8 ; CAIMonster::`RTTI Base Class Descriptor at (0,-1,0,64)'
	DD	01H
	DD	00H
	DD	0ffffffffH
	DD	00H
	DD	040H
	DD	FLAT:??_R3CAIMonster@@8
rdata$r	ENDS
;	COMDAT ??_R1A@?0A@EA@CAIGuard@@8
rdata$r	SEGMENT
??_R1A@?0A@EA@CAIGuard@@8 DD FLAT:??_R0?AVCAIGuard@@@8	; CAIGuard::`RTTI Base Class Descriptor at (0,-1,0,64)'
	DD	02H
	DD	00H
	DD	0ffffffffH
	DD	00H
	DD	040H
	DD	FLAT:??_R3CAIGuard@@8
rdata$r	ENDS
;	COMDAT ??_R2CAIGuard@@8
rdata$r	SEGMENT
??_R2CAIGuard@@8 DD FLAT:??_R1A@?0A@EA@CAIGuard@@8	; CAIGuard::`RTTI Base Class Array'
	DD	FLAT:??_R1A@?0A@EA@CAIMonster@@8
	DD	FLAT:??_R1A@?0A@EA@CAIInterface@@8
rdata$r	ENDS
;	COMDAT ??_R3CAIGuard@@8
rdata$r	SEGMENT
??_R3CAIGuard@@8 DD 00H					; CAIGuard::`RTTI Class Hierarchy Descriptor'
	DD	00H
	DD	03H
	DD	FLAT:??_R2CAIGuard@@8
rdata$r	ENDS
;	COMDAT ??_R0?AVCAIGuard@@@8
data$rs	SEGMENT
??_R0?AVCAIGuard@@@8 DD FLAT:??_7type_info@@6B@		; CAIGuard `RTTI Type Descriptor'
	DD	00H
	DB	'.?AVCAIGuard@@', 00H
data$rs	ENDS
;	COMDAT ??_R4CAIGuard@@6B@
rdata$r	SEGMENT
??_R4CAIGuard@@6B@ DD 00H				; CAIGuard::`RTTI Complete Object Locator'
	DD	00H
	DD	00H
	DD	FLAT:??_R0?AVCAIGuard@@@8
	DD	FLAT:??_R3CAIGuard@@8
rdata$r	ENDS
;	COMDAT ??_C@_0CA@GLBIGGGO@m_nAttackFirstRange?5?$MA?L?$LL?s?3?$CFd?5?$CFs?6@
CONST	SEGMENT
??_C@_0CA@GLBIGGGO@m_nAttackFirstRange?5?$MA?L?$LL?s?3?$CFd?5?$CFs?6@ DB 'm'
	DB	'_nAttackFirstRange ', 0c0H, 0ccH, 0bbH, 0f3H, ':%d %s', 0aH, 00H ; `string'
CONST	ENDS
;	COMDAT ??_7CAIGuard@@6B@
CONST	SEGMENT
??_7CAIGuard@@6B@ DD FLAT:??_R4CAIGuard@@6B@		; CAIGuard::`vftable'
	DD	FLAT:?GetStateMap@CAIGuard@@UBEPBUSTATEMAP@@XZ
	DD	FLAT:??_ECAIGuard@@UAEPAXI@Z
	DD	FLAT:?RouteMessage@CAIInterface@@UAEXXZ
	DD	FLAT:?SendAIMsg@CAIInterface@@UAEXKKKK@Z
	DD	FLAT:?PostAIMsg@CAIInterface@@UAEXKKKK@Z
	DD	FLAT:?InitAI@CAIGuard@@UAEXXZ
	DD	FLAT:?IsReturnToBegin@CAIMonster@@UAEHXZ
CONST	ENDS
_DATA	SEGMENT
?stateMapEntries@CAIGuard@@2QBUSTATEMAP_ENTRIES@@B DD 01H ; CAIGuard::stateMapEntries
	ORG $+4
	DD	FLAT:?StateInit@CAIGuard@@AAEHABUAIMSG@@@Z
	DD	00H
	DD	00H
	DD	00H
	DD	02H
	DB	4 DUP(00H)
	DD	FLAT:?StateIdle@CAIGuard@@AAEHABUAIMSG@@@Z
	DD	00H
	DD	00H
	DD	00H
	DD	03H
	DB	4 DUP(00H)
	DD	FLAT:?StateWander@CAIGuard@@AAEHABUAIMSG@@@Z
	DD	00H
	DD	00H
	DD	00H
	DD	05H
	DB	4 DUP(00H)
	DD	FLAT:?StateEvade@CAIGuard@@AAEHABUAIMSG@@@Z
	DD	00H
	DD	00H
	DD	00H
	DD	07H
	DB	4 DUP(00H)
	DD	FLAT:?StateRage@CAIGuard@@AAEHABUAIMSG@@@Z
	DD	00H
	DD	00H
	DD	00H
	DD	06H
	DB	4 DUP(00H)
	DD	FLAT:?StateRunaway@CAIGuard@@AAEHABUAIMSG@@@Z
	DD	00H
	DD	00H
	DD	00H
	DD	00H
	DB	4 DUP(00H)
	DD	00H
	DD	00H
	DD	00H
	DD	0ffffffffH
?s_tmAttack@@3KA DD 02710H				; s_tmAttack
_DATA	ENDS
;	COMDAT ??_C@_0BJ@GKPOBPPI@GetMoverProp?5range_error@
CONST	SEGMENT
??_C@_0BJ@GKPOBPPI@GetMoverProp?5range_error@ DB 'GetMoverProp range_erro'
	DB	'r', 00H					; `string'
CONST	ENDS
;	COMDAT ??_C@_0BM@HMFGHCP@?$CFs?5min?3?$CFd?0?5max?3?$CFd?0?5index?3?$CFd@
CONST	SEGMENT
??_C@_0BM@HMFGHCP@?$CFs?5min?3?$CFd?0?5max?3?$CFd?0?5index?3?$CFd@ DB '%s'
	DB	' min:%d, max:%d, index:%d', 00H		; `string'
CONST	ENDS
; Function compile flags: /Ogtp
;	COMDAT ??_GCAIGuard@@UAEPAXI@Z
_TEXT	SEGMENT
___flags$ = 8						; size = 4
??_GCAIGuard@@UAEPAXI@Z PROC				; CAIGuard::`scalar deleting destructor', COMDAT
; _this$ = ecx
  00000	55		 push	 ebp
  00001	8b ec		 mov	 ebp, esp
  00003	56		 push	 esi
  00004	8b f1		 mov	 esi, ecx
  00006	e8 00 00 00 00	 call	 ??1CAIGuard@@UAE@XZ	; CAIGuard::~CAIGuard
  0000b	f6 45 08 01	 test	 BYTE PTR ___flags$[ebp], 1
  0000f	74 0e		 je	 SHORT $LN5@scalar
  00011	68 f0 00 00 00	 push	 240			; 000000f0H
  00016	56		 push	 esi
  00017	e8 00 00 00 00	 call	 ??3@YAXPAXI@Z		; operator delete
  0001c	83 c4 08	 add	 esp, 8
$LN5@scalar:
  0001f	8b c6		 mov	 eax, esi
  00021	5e		 pop	 esi
  00022	5d		 pop	 ebp
  00023	c2 04 00	 ret	 4
??_GCAIGuard@@UAEPAXI@Z ENDP				; CAIGuard::`scalar deleting destructor'
_TEXT	ENDS
; Function compile flags: /Ogtp
; File C:\IAGOS\server\v18\Source\Source\_AIInterface\AIGuard.cpp
;	COMDAT ?GetStateMap@CAIGuard@@UBEPBUSTATEMAP@@XZ
_TEXT	SEGMENT
?GetStateMap@CAIGuard@@UBEPBUSTATEMAP@@XZ PROC		; CAIGuard::GetStateMap, COMDAT
; _this$ = ecx

; 28   : BEGIN_AISTATE_MAP( CAIGuard, CAIInterface )

  00000	b8 00 00 00 00	 mov	 eax, OFFSET ?stateMap@CAIGuard@@2USTATEMAP@@B ; CAIGuard::stateMap
  00005	c3		 ret	 0
?GetStateMap@CAIGuard@@UBEPBUSTATEMAP@@XZ ENDP		; CAIGuard::GetStateMap
_TEXT	ENDS
; Function compile flags: /Ogtp
; File C:\IAGOS\server\v18\Source\Source\_AIInterface\AIGuard.cpp
;	COMDAT ?InitAI@CAIGuard@@UAEXXZ
_TEXT	SEGMENT
?InitAI@CAIGuard@@UAEXXZ PROC				; CAIGuard::InitAI, COMDAT
; _this$ = ecx

; 67   : 	// ЛѓРЇХЌЗЁНК InitAI()КЮИЃДТСі ШЎРЮЧв АЭ
; 68   : }

  00000	c2 00 00	 ret	 0
?InitAI@CAIGuard@@UAEXXZ ENDP				; CAIGuard::InitAI
_TEXT	ENDS
; Function compile flags: /Ogtp
; File C:\IAGOS\server\v18\Source\Source\_AIInterface\AIGuard.cpp
;	COMDAT ??1CAIGuard@@UAE@XZ
_TEXT	SEGMENT
??1CAIGuard@@UAE@XZ PROC				; CAIGuard::~CAIGuard, COMDAT
; _this$ = ecx

; 62   : {

  00000	c7 01 00 00 00
	00		 mov	 DWORD PTR [ecx], OFFSET ??_7CAIGuard@@6B@

; 63   : }

  00006	e9 00 00 00 00	 jmp	 ??1CAIMonster@@UAE@XZ	; CAIMonster::~CAIMonster
??1CAIGuard@@UAE@XZ ENDP				; CAIGuard::~CAIGuard
_TEXT	ENDS
; Function compile flags: /Ogtp
; File C:\IAGOS\server\v18\Source\Source\_AIInterface\AIGuard.cpp
;	COMDAT ??0CAIGuard@@QAE@PAVCObj@@@Z
_TEXT	SEGMENT
_this$ = -4						; size = 4
_pObj$ = 8						; size = 4
??0CAIGuard@@QAE@PAVCObj@@@Z PROC			; CAIGuard::CAIGuard, COMDAT
; _this$ = ecx

; 58   : {

  00000	55		 push	 ebp
  00001	8b ec		 mov	 ebp, esp
  00003	51		 push	 ecx
  00004	56		 push	 esi
  00005	ff 75 08	 push	 DWORD PTR _pObj$[ebp]
  00008	8b f1		 mov	 esi, ecx
  0000a	89 75 fc	 mov	 DWORD PTR _this$[ebp], esi
  0000d	e8 00 00 00 00	 call	 ??0CAIMonster@@QAE@PAVCObj@@@Z ; CAIMonster::CAIMonster
  00012	c7 06 00 00 00
	00		 mov	 DWORD PTR [esi], OFFSET ??_7CAIGuard@@6B@

; 59   : }

  00018	8b c6		 mov	 eax, esi
  0001a	5e		 pop	 esi
  0001b	8b e5		 mov	 esp, ebp
  0001d	5d		 pop	 ebp
  0001e	c2 04 00	 ret	 4
??0CAIGuard@@QAE@PAVCObj@@@Z ENDP			; CAIGuard::CAIGuard
_TEXT	ENDS
; Function compile flags: /Ogtp
; File C:\IAGOS\server\v18\Source\Source\_AIInterface\AIGuard.cpp
;	COMDAT ??0CAIGuard@@QAE@XZ
_TEXT	SEGMENT
_this$ = -4						; size = 4
??0CAIGuard@@QAE@XZ PROC				; CAIGuard::CAIGuard, COMDAT
; _this$ = ecx

; 55   : {

  00000	55		 push	 ebp
  00001	8b ec		 mov	 ebp, esp
  00003	51		 push	 ecx
  00004	56		 push	 esi
  00005	8b f1		 mov	 esi, ecx
  00007	89 75 fc	 mov	 DWORD PTR _this$[ebp], esi
  0000a	e8 00 00 00 00	 call	 ??0CAIMonster@@QAE@XZ	; CAIMonster::CAIMonster
  0000f	c7 06 00 00 00
	00		 mov	 DWORD PTR [esi], OFFSET ??_7CAIGuard@@6B@

; 56   : }

  00015	8b c6		 mov	 eax, esi
  00017	5e		 pop	 esi
  00018	8b e5		 mov	 esp, ebp
  0001a	5d		 pop	 ebp
  0001b	c3		 ret	 0
??0CAIGuard@@QAE@XZ ENDP				; CAIGuard::CAIGuard
_TEXT	ENDS
; Function compile flags: /Ogtp
; File C:\IAGOS\server\v18\Source\Source\_AIInterface\AIGuard.cpp
; File C:\IAGOS\server\v18\Source\Source\_Common\Obj.h
; File C:\IAGOS\server\v18\Source\Source\_AIInterface\AIGuard.cpp
; File C:\IAGOS\server\v18\Source\Source\_AIInterface\Action.h
; File C:\IAGOS\server\v18\Source\Source\_AIInterface\AIGuard.cpp
; File C:\IAGOS\server\v18\Source\Source\_Common\xUtil.h
; File C:\IAGOS\server\v18\Source\Source\_AIInterface\AIGuard.cpp
;	COMDAT ?StateRage@CAIGuard@@AAEHABUAIMSG@@@Z
_TEXT	SEGMENT
_msg$ = 8						; size = 4
_pMoverProp$1$ = 8					; size = 4
?StateRage@CAIGuard@@AAEHABUAIMSG@@@Z PROC		; CAIGuard::StateRage, COMDAT
; _this$ = ecx

; 286  : {

  00000	55		 push	 ebp
  00001	8b ec		 mov	 ebp, esp
  00003	53		 push	 ebx
  00004	57		 push	 edi
  00005	8b f9		 mov	 edi, ecx

; 287  : 	CMover* pMover = GetMover();

  00007	8b 5f 30	 mov	 ebx, DWORD PTR [edi+48]
; File C:\IAGOS\server\v18\Source\Source\_Common\Obj.h

; 327  : 	return pObj && ( pObj->IsDelete() == FALSE ); 

  0000a	85 db		 test	 ebx, ebx
  0000c	0f 84 11 02 00
	00		 je	 $LN64@StateRage

; 180  : 	BOOL			IsDelete()	{ return (m_dwFlags & OBJ_FLAG_DELETE);  }

  00012	f6 43 04 01	 test	 BYTE PTR [ebx+4], 1

; 327  : 	return pObj && ( pObj->IsDelete() == FALSE ); 

  00016	0f 85 07 02 00
	00		 jne	 $LN64@StateRage
; File C:\IAGOS\server\v18\Source\Source\_AIInterface\AIGuard.cpp

; 294  : 	OnMessage( AIMSG_INIT ) 

  0001c	8b 4d 08	 mov	 ecx, DWORD PTR _msg$[ebp]
  0001f	56		 push	 esi
  00020	8b 01		 mov	 eax, DWORD PTR [ecx]
  00022	83 f8 01	 cmp	 eax, 1
  00025	75 39		 jne	 SHORT $LN5@StateRage

; 295  : 		if( msg.dwParam2 != NULL_ID )

  00027	8b 41 08	 mov	 eax, DWORD PTR [ecx+8]
  0002a	83 f8 ff	 cmp	 eax, -1
  0002d	74 06		 je	 SHORT $LN7@StateRage

; 296  : 			m_dwIdTarget = msg.dwParam2;

  0002f	89 87 d8 00 00
	00		 mov	 DWORD PTR [edi+216], eax
$LN7@StateRage:

; 297  : 		m_tmAttack = timeGetTime() + s_tmAttack;

  00035	8b 35 00 00 00
	00		 mov	 esi, DWORD PTR __imp__timeGetTime@0
  0003b	ff d6		 call	 esi
  0003d	03 05 00 00 00
	00		 add	 eax, DWORD PTR ?s_tmAttack@@3KA
  00043	89 47 40	 mov	 DWORD PTR [edi+64], eax

; 298  : 		m_tmAttackDelay = timeGetTime(); // АјАн ЕєЗЙРЬИІ УЪБтШ­. БзЗИСі ОЪРИИщ УГРН АјАнРЬ ЕєЗЙРЬ ИдАэ ЕщОюАЃДй.

  00046	ff d6		 call	 esi

; 299  : 		SetStop( 0 ); // 0РИЗЮ ММЦУЧЯИщ СЄСі ЛѓХТАЁ ЙйЗЮ ГЁГЊАд ЕЧОю АјАнРЬ АЁДЩЧЯАд ЕШДй. 

  00048	6a 00		 push	 0
  0004a	8b cf		 mov	 ecx, edi
  0004c	89 47 3c	 mov	 DWORD PTR [edi+60], eax
  0004f	e8 00 00 00 00	 call	 ?SetStop@CAIMonster@@IAEXK@Z ; CAIMonster::SetStop
$LN33@StateRage:

; 361  : 
; 362  : 	OnMessage( AIMSG_BEGINMOVE )

  00054	5e		 pop	 esi
  00055	5f		 pop	 edi
  00056	b8 01 00 00 00	 mov	 eax, 1

; 364  : 
; 365  : 	OnMessage( AIMSG_ARRIVAL )
; 366  : 
; 367  : 	OnMessage( AIMSG_EXIT )	
; 368  : 
; 369  : 	EndAIHandler( )
; 370  : 	
; 371  : 	return TRUE;
; 372  : }

  0005b	5b		 pop	 ebx
  0005c	5d		 pop	 ebp
  0005d	c2 04 00	 ret	 4
$LN5@StateRage:

; 300  : 		              // СЄСі ЛѓХТПЁМ­ДТ СЄСі ЛѓХТИІ РЯСЄ НУАЃЕПОШ РЏСіЧиСжОюОпЧЯДТЕЅ, БзЗИАд ЕЧИщ АјАнРЛ ИјЧв Мі РжДй.
; 301  : 
; 302  : 	///////////////////////////////////////////////////////////////////////////////////////////////////
; 303  : 	OnMessage( AIMSG_INIT_TARGETCLEAR )		// ХИАйРЛ ХЌИЎОюЧЯАэ ДыБтИ№ЕхЗЮ ЕЙОЦАЈ.

  00060	83 f8 11	 cmp	 eax, 17			; 00000011H
  00063	0f 84 76 01 00
	00		 je	 $LN91@StateRage

; 304  : 		m_dwIdTarget = NULL_ID;
; 305  : 		SendAIMsg( AIMSG_SETSTATE, STATE_IDLE );
; 306  : 		
; 307  : 	///////////////////////////////////////////////////////////////////////////////////////////////////
; 308  : 	OnMessage( AIMSG_PROCESS ) 

  00069	83 f8 02	 cmp	 eax, 2
  0006c	75 14		 jne	 SHORT $LN10@StateRage

; 309  : 		MoveProcessRage( msg );

  0006e	51		 push	 ecx
  0006f	8b cf		 mov	 ecx, edi
  00071	e8 00 00 00 00	 call	 ?MoveProcessRage@CAIGuard@@AAEHABUAIMSG@@@Z ; CAIGuard::MoveProcessRage
  00076	5e		 pop	 esi
  00077	5f		 pop	 edi

; 361  : 
; 362  : 	OnMessage( AIMSG_BEGINMOVE )

  00078	b8 01 00 00 00	 mov	 eax, 1

; 364  : 
; 365  : 	OnMessage( AIMSG_ARRIVAL )
; 366  : 
; 367  : 	OnMessage( AIMSG_EXIT )	
; 368  : 
; 369  : 	EndAIHandler( )
; 370  : 	
; 371  : 	return TRUE;
; 372  : }

  0007d	5b		 pop	 ebx
  0007e	5d		 pop	 ebp
  0007f	c2 04 00	 ret	 4
$LN10@StateRage:

; 310  : 		
; 311  : 	///////////////////////////////////////////////////////////////////////////////////////////////////
; 312  : 	OnMessage( AIMSG_DAMAGE ) 

  00082	83 f8 08	 cmp	 eax, 8
  00085	0f 85 21 01 00
	00		 jne	 $LN12@StateRage
; File C:\IAGOS\server\v18\Source\Source\_AIInterface\Action.h

; 300  : 	DWORD			GetMoveState() { return m_dwState & OBJSTA_MOVE_ALL; }

  0008b	8b 83 38 02 00
	00		 mov	 eax, DWORD PTR [ebx+568]
  00091	8b 40 04	 mov	 eax, DWORD PTR [eax+4]
  00094	25 ff 00 00 00	 and	 eax, 255		; 000000ffH

; 318  : 	BOOL			IsMove() { return ( GetMoveState() == OBJSTA_FMOVE || GetMoveState() == OBJSTA_BMOVE || GetMoveState() == OBJSTA_LEFT || GetMoveState() == OBJSTA_RIGHT ) ? TRUE : FALSE; }  	

  00099	83 f8 04	 cmp	 eax, 4
  0009c	74 0f		 je	 SHORT $LN63@StateRage
  0009e	83 f8 05	 cmp	 eax, 5
  000a1	74 0a		 je	 SHORT $LN63@StateRage
  000a3	83 f8 06	 cmp	 eax, 6
  000a6	74 05		 je	 SHORT $LN63@StateRage
  000a8	83 f8 07	 cmp	 eax, 7
  000ab	75 3c		 jne	 SHORT $LN14@StateRage
$LN63@StateRage:
; File C:\IAGOS\server\v18\Source\Source\_AIInterface\AIGuard.cpp

; 313  : 		if( IsMove() && m_bGoTarget == FALSE )

  000ad	83 bf c0 00 00
	00 00		 cmp	 DWORD PTR [edi+192], 0
  000b4	75 33		 jne	 SHORT $LN14@StateRage
; File C:\IAGOS\server\v18\Source\Source\_Common\xUtil.h

; 16   : 	g_next = g_next * 1103515245 + 12345;// + nRandomSeed[ i++ ];

  000b6	69 05 00 00 00
	00 6d 4e c6 41	 imul	 eax, DWORD PTR ?g_next@@3KA, 1103515245 ; g_next
  000c0	05 39 30 00 00	 add	 eax, 12345		; 00003039H
  000c5	a3 00 00 00 00	 mov	 DWORD PTR ?g_next@@3KA, eax ; g_next
  000ca	a8 01		 test	 al, 1
; File C:\IAGOS\server\v18\Source\Source\_AIInterface\AIGuard.cpp

; 315  : 			if( xRandom( 2 ) == 0 )		// 1/2ШЎЗќЗЮ АјАнРкИІ ЖЇИВ.

  000cc	75 11		 jne	 SHORT $LN15@StateRage

; 316  : 			{
; 317  : 				m_dwIdTarget = msg.dwParam1;

  000ce	8b 41 04	 mov	 eax, DWORD PTR [ecx+4]

; 318  : 				// АјАнРкПЁАд ИёЧЅИІ МГСЄ 
; 319  : 				MoveToDst( m_dwIdTarget );

  000d1	8b cf		 mov	 ecx, edi
  000d3	50		 push	 eax
  000d4	89 87 d8 00 00
	00		 mov	 DWORD PTR [edi+216], eax
  000da	e8 00 00 00 00	 call	 ?MoveToDst@CAIMonster@@IAEXK@Z ; CAIMonster::MoveToDst
$LN15@StateRage:

; 320  : 			}
; 321  : 			m_bGoTarget = TRUE;

  000df	c7 87 c0 00 00
	00 01 00 00 00	 mov	 DWORD PTR [edi+192], 1
$LN14@StateRage:

; 322  : 		}
; 323  : 		MoverProp* pMoverProp = pMover->GetProp();

  000e9	8b cb		 mov	 ecx, ebx
  000eb	e8 00 00 00 00	 call	 ?GetPropA@CMover@@QAEPAUMoverProp@@XZ ; CMover::GetPropA
  000f0	8b f0		 mov	 esi, eax

; 324  : 		int nHPPercent = pMover->GetHitPointPercent( 100 );

  000f2	8b cb		 mov	 ecx, ebx
  000f4	6a 64		 push	 100			; 00000064H
  000f6	89 75 08	 mov	 DWORD PTR _pMoverProp$1$[ebp], esi
  000f9	e8 00 00 00 00	 call	 ?GetHitPointPercent@CMover@@QAEHH@Z ; CMover::GetHitPointPercent

; 325  : 		// ЕЕСж HP ЦлМОЦЎКИДй ЧіРч HPЦлМОЦЎАЁ РлРЛ АцПь ЕЕИСАЁРк.
; 326  : 		if( nHPPercent < pMoverProp->m_nRunawayHP )

  000fe	0f bf 8e b0 01
	00 00		 movsx	 ecx, WORD PTR [esi+432]
  00105	3b c1		 cmp	 eax, ecx
  00107	7d 1c		 jge	 SHORT $LN16@StateRage

; 327  : 		{
; 328  : 			// ЕЕСж И№ЕхЗЮ ММЦУ 
; 329  : 			SendAIMsg( AIMSG_SETSTATE, STATE_RUNAWAY );

  00109	8b 07		 mov	 eax, DWORD PTR [edi]
  0010b	8b cf		 mov	 ecx, edi
  0010d	6a 00		 push	 0
  0010f	6a 00		 push	 0
  00111	6a 06		 push	 6
  00113	6a 04		 push	 4
  00115	ff 50 0c	 call	 DWORD PTR [eax+12]

; 330  : 			g_UserMng.AddDlgEmoticon( pMover, DLGEMOT_EVADE );

  00118	6a 02		 push	 2
  0011a	53		 push	 ebx
  0011b	b9 00 00 00 00	 mov	 ecx, OFFSET ?g_UserMng@@3VCUserMng@@A ; g_UserMng
  00120	e8 00 00 00 00	 call	 ?AddDlgEmoticon@CUserMng@@QAEXPAVCCtrl@@H@Z ; CUserMng::AddDlgEmoticon
$LN16@StateRage:

; 331  : 		}
; 332  : 		// Call HP ЦлМОЦЎКИДй ЧіРч HPЦлМОЦЎАЁ РлРЛ АцПь ЕПЗсИІ КЮИЃРк.
; 333  : 		if( pMoverProp->m_bHelpWho )	// ЧяЧСAIАЁ РжРЛАцПь.

  00125	80 be f7 01 00
	00 00		 cmp	 BYTE PTR [esi+503], 0
  0012c	74 68		 je	 SHORT $LN17@StateRage

; 334  : 		{
; 335  : 			if( timeGetTime() - m_tmHelp > pMoverProp->m_tmUnitHelp )	// УжУЪ m_tmHelpДТ 0РЬЙЧЗЮ ЧяЧСИІ ЧбДй.

  0012e	8b 77 48	 mov	 esi, DWORD PTR [edi+72]
  00131	ff 15 00 00 00
	00		 call	 DWORD PTR __imp__timeGetTime@0
  00137	2b c6		 sub	 eax, esi
  00139	8b 75 08	 mov	 esi, DWORD PTR _pMoverProp$1$[ebp]
  0013c	3b 86 30 02 00
	00		 cmp	 eax, DWORD PTR [esi+560]
  00142	0f 86 0c ff ff
	ff		 jbe	 $LN33@StateRage

; 336  : 			{
; 337  : 				if( m_bCallHelper == FALSE )

  00148	83 bf cc 00 00
	00 00		 cmp	 DWORD PTR [edi+204], 0
  0014f	0f 85 ff fe ff
	ff		 jne	 $LN33@StateRage

; 338  : 				{
; 339  : 					CallHelper( pMoverProp );

  00155	56		 push	 esi
  00156	8b cf		 mov	 ecx, edi
  00158	e8 00 00 00 00	 call	 ?CallHelper@CAIMonster@@IAEXPBUMoverProp@@@Z ; CAIMonster::CallHelper

; 340  : 					g_UserMng.AddDlgEmoticon( pMover, DLGEMOT_HELPER );

  0015d	6a 03		 push	 3
  0015f	53		 push	 ebx
  00160	b9 00 00 00 00	 mov	 ecx, OFFSET ?g_UserMng@@3VCUserMng@@A ; g_UserMng
  00165	e8 00 00 00 00	 call	 ?AddDlgEmoticon@CUserMng@@QAEXPAVCCtrl@@H@Z ; CUserMng::AddDlgEmoticon

; 341  : 					m_tmHelp = timeGetTime();

  0016a	ff 15 00 00 00
	00		 call	 DWORD PTR __imp__timeGetTime@0
  00170	89 47 48	 mov	 DWORD PTR [edi+72], eax

; 342  : 					if( pMoverProp->m_tmUnitHelp == 0 )		// 0РЬИщ ЧбЙјИИ КЮИЃАэ ОШКЮИЇ.

  00173	83 be 30 02 00
	00 00		 cmp	 DWORD PTR [esi+560], 0
  0017a	0f 85 d4 fe ff
	ff		 jne	 $LN33@StateRage

; 343  : 						m_bCallHelper = TRUE;

  00180	5e		 pop	 esi
  00181	c7 87 cc 00 00
	00 01 00 00 00	 mov	 DWORD PTR [edi+204], 1

; 361  : 
; 362  : 	OnMessage( AIMSG_BEGINMOVE )

  0018b	b8 01 00 00 00	 mov	 eax, 1
  00190	5f		 pop	 edi

; 364  : 
; 365  : 	OnMessage( AIMSG_ARRIVAL )
; 366  : 
; 367  : 	OnMessage( AIMSG_EXIT )	
; 368  : 
; 369  : 	EndAIHandler( )
; 370  : 	
; 371  : 	return TRUE;
; 372  : }

  00191	5b		 pop	 ebx
  00192	5d		 pop	 ebp
  00193	c2 04 00	 ret	 4
$LN17@StateRage:
  00196	5e		 pop	 esi

; 344  : 				}
; 345  : 			}
; 346  : 		}
; 347  : 		else
; 348  : 			m_bCallHelper = FALSE;

  00197	c7 87 cc 00 00
	00 00 00 00 00	 mov	 DWORD PTR [edi+204], 0

; 361  : 
; 362  : 	OnMessage( AIMSG_BEGINMOVE )

  001a1	b8 01 00 00 00	 mov	 eax, 1
  001a6	5f		 pop	 edi

; 364  : 
; 365  : 	OnMessage( AIMSG_ARRIVAL )
; 366  : 
; 367  : 	OnMessage( AIMSG_EXIT )	
; 368  : 
; 369  : 	EndAIHandler( )
; 370  : 	
; 371  : 	return TRUE;
; 372  : }

  001a7	5b		 pop	 ebx
  001a8	5d		 pop	 ebp
  001a9	c2 04 00	 ret	 4
$LN12@StateRage:

; 349  : 	///////////////////////////////////////////////////////////////////////////////////////////////////
; 350  : 	OnMessage( AIMSG_COLLISION )

  001ac	83 f8 0a	 cmp	 eax, 10			; 0000000aH
  001af	75 15		 jne	 SHORT $LN22@StateRage

; 351  : 		MoveToRandom( STATE_RAGE );

  001b1	6a 07		 push	 7
  001b3	8b cf		 mov	 ecx, edi
  001b5	e8 00 00 00 00	 call	 ?MoveToRandom@CAIMonster@@IAEXI@Z ; CAIMonster::MoveToRandom
  001ba	5e		 pop	 esi
  001bb	5f		 pop	 edi

; 361  : 
; 362  : 	OnMessage( AIMSG_BEGINMOVE )

  001bc	b8 01 00 00 00	 mov	 eax, 1

; 364  : 
; 365  : 	OnMessage( AIMSG_ARRIVAL )
; 366  : 
; 367  : 	OnMessage( AIMSG_EXIT )	
; 368  : 
; 369  : 	EndAIHandler( )
; 370  : 	
; 371  : 	return TRUE;
; 372  : }

  001c1	5b		 pop	 ebx
  001c2	5d		 pop	 ebp
  001c3	c2 04 00	 ret	 4
$LN22@StateRage:

; 352  : 	///////////////////////////////////////////////////////////////////////////////////////////////////
; 353  : 	OnMessage( AIMSG_DIE ) 

  001c6	83 f8 09	 cmp	 eax, 9
  001c9	0f 84 85 fe ff
	ff		 je	 $LN33@StateRage

; 354  : 	
; 355  : 	///////////////////////////////////////////////////////////////////////////////////////////////////
; 356  : 	OnMessage( AIMSG_DSTDIE ) 

  001cf	83 f8 07	 cmp	 eax, 7
  001d2	75 30		 jne	 SHORT $LN26@StateRage

; 357  : 		if( m_dwIdTarget == msg.dwParam1 )

  001d4	8b 87 d8 00 00
	00		 mov	 eax, DWORD PTR [edi+216]
  001da	3b 41 04	 cmp	 eax, DWORD PTR [ecx+4]
  001dd	75 0a		 jne	 SHORT $LN28@StateRage
$LN91@StateRage:

; 358  : 			m_dwIdTarget = NULL_ID;

  001df	c7 87 d8 00 00
	00 ff ff ff ff	 mov	 DWORD PTR [edi+216], -1
$LN28@StateRage:

; 359  : 		TRACE( "TARGET CLEARED\n" );
; 360  : 		SendAIMsg( AIMSG_SETSTATE, STATE_IDLE );

  001e9	8b 07		 mov	 eax, DWORD PTR [edi]
  001eb	8b cf		 mov	 ecx, edi
  001ed	6a 00		 push	 0
  001ef	6a 00		 push	 0
  001f1	6a 02		 push	 2
  001f3	6a 04		 push	 4
  001f5	ff 50 0c	 call	 DWORD PTR [eax+12]
  001f8	5e		 pop	 esi
  001f9	5f		 pop	 edi

; 361  : 
; 362  : 	OnMessage( AIMSG_BEGINMOVE )

  001fa	b8 01 00 00 00	 mov	 eax, 1

; 364  : 
; 365  : 	OnMessage( AIMSG_ARRIVAL )
; 366  : 
; 367  : 	OnMessage( AIMSG_EXIT )	
; 368  : 
; 369  : 	EndAIHandler( )
; 370  : 	
; 371  : 	return TRUE;
; 372  : }

  001ff	5b		 pop	 ebx
  00200	5d		 pop	 ebp
  00201	c2 04 00	 ret	 4
$LN26@StateRage:

; 361  : 
; 362  : 	OnMessage( AIMSG_BEGINMOVE )

  00204	83 f8 0d	 cmp	 eax, 13			; 0000000dH
  00207	0f 85 47 fe ff
	ff		 jne	 $LN33@StateRage

; 363  : 		m_bGoTarget = FALSE; 

  0020d	5e		 pop	 esi
  0020e	c7 87 c0 00 00
	00 00 00 00 00	 mov	 DWORD PTR [edi+192], 0
  00218	b8 01 00 00 00	 mov	 eax, 1
  0021d	5f		 pop	 edi

; 364  : 
; 365  : 	OnMessage( AIMSG_ARRIVAL )
; 366  : 
; 367  : 	OnMessage( AIMSG_EXIT )	
; 368  : 
; 369  : 	EndAIHandler( )
; 370  : 	
; 371  : 	return TRUE;
; 372  : }

  0021e	5b		 pop	 ebx
  0021f	5d		 pop	 ebp
  00220	c2 04 00	 ret	 4
$LN64@StateRage:
  00223	5f		 pop	 edi

; 288  : 	CWorld* pWorld = GetWorld();
; 289  : 	if( IsInvalidObj(pMover) )	return FALSE;

  00224	33 c0		 xor	 eax, eax

; 364  : 
; 365  : 	OnMessage( AIMSG_ARRIVAL )
; 366  : 
; 367  : 	OnMessage( AIMSG_EXIT )	
; 368  : 
; 369  : 	EndAIHandler( )
; 370  : 	
; 371  : 	return TRUE;
; 372  : }

  00226	5b		 pop	 ebx
  00227	5d		 pop	 ebp
  00228	c2 04 00	 ret	 4
?StateRage@CAIGuard@@AAEHABUAIMSG@@@Z ENDP		; CAIGuard::StateRage
_TEXT	ENDS
; Function compile flags: /Ogtp
; File C:\IAGOS\server\v18\Source\Source\_AIInterface\AIGuard.cpp
;	COMDAT ?StateEvade@CAIGuard@@AAEHABUAIMSG@@@Z
_TEXT	SEGMENT
_msg$ = 8						; size = 4
?StateEvade@CAIGuard@@AAEHABUAIMSG@@@Z PROC		; CAIGuard::StateEvade, COMDAT
; _this$ = ecx

; 268  : 	{	return TRUE;	}

  00000	b8 01 00 00 00	 mov	 eax, 1
  00005	c2 04 00	 ret	 4
?StateEvade@CAIGuard@@AAEHABUAIMSG@@@Z ENDP		; CAIGuard::StateEvade
_TEXT	ENDS
; Function compile flags: /Ogtp
; File C:\IAGOS\server\v18\Source\Source\_AIInterface\AIGuard.cpp
; File C:\IAGOS\server\v18\Source\Source\_Common\xUtil.h
; File C:\IAGOS\server\v18\Source\Source\_AIInterface\AIGuard.cpp
; File C:\IAGOS\server\v18\Source\Source\_Common\xUtil.h
; File C:\IAGOS\server\v18\Source\Source\_AIInterface\AIGuard.cpp
; File C:\IAGOS\server\v18\Source\Source\_Common\xUtil.h
; File C:\IAGOS\server\v18\Source\Source\_AIInterface\AIGuard.cpp
; File C:\IAGOS\server\v18\Source\Source\_Common\Obj.h
; File C:\IAGOS\server\v18\Source\Source\_AIInterface\AIGuard.cpp
; File C:\IAGOS\server\v18\Source\Source\_Common\Obj.h
; File C:\IAGOS\server\v18\Source\Source\_AIInterface\AIGuard.cpp
; File C:\IAGOS\server\v18\Source\Source\_Common\Obj.h
; File C:\Program Files (x86)\Windows Kits\10\Include\10.0.26100.0\ucrt\corecrt_math.h
; File C:\IAGOS\server\v18\Source\Source\_Common\Obj.h
; File C:\Program Files (x86)\Windows Kits\10\Include\10.0.26100.0\ucrt\corecrt_math.h
; File C:\IAGOS\server\v18\Source\Source\_AIInterface\AIGuard.cpp
; File C:\Program Files (x86)\Windows Kits\10\Include\10.0.26100.0\ucrt\corecrt_math.h
; File C:\IAGOS\server\v18\Source\Source\_Common\Obj.h
; File C:\IAGOS\server\v18\Source\Source\DX_SDK\d3dx9math.inl
; File C:\Program Files (x86)\Windows Kits\10\Include\10.0.26100.0\ucrt\corecrt_math.h
; File C:\IAGOS\server\v18\Source\Source\_AIInterface\AIGuard.cpp
; File C:\Program Files (x86)\Windows Kits\10\Include\10.0.26100.0\ucrt\corecrt_math.h
; File C:\IAGOS\server\v18\Source\Source\_AIInterface\AIGuard.cpp
; File C:\IAGOS\server\v18\Source\Source\DX_SDK\d3dx9math.inl
; File C:\IAGOS\server\v18\Source\Source\_Common\Obj.h
; File C:\IAGOS\server\v18\Source\Source\DX_SDK\d3dx9math.inl
; File C:\IAGOS\server\v18\Source\Source\_AIInterface\AIGuard.cpp
; File C:\IAGOS\server\v18\Source\Source\_Common\xUtil.h
; File C:\IAGOS\server\v18\Source\Source\_AIInterface\AIGuard.cpp
; File C:\IAGOS\server\v18\Source\Source\_Common\xUtil.h
; File C:\IAGOS\server\v18\Source\Source\_AIInterface\AIGuard.cpp
; File C:\IAGOS\server\v18\Source\Source\_Common\xUtil.h
; File C:\IAGOS\server\v18\Source\Source\_AIInterface\AIGuard.cpp
; File C:\IAGOS\server\v18\Source\Source\_Common\Obj.h
; File C:\Program Files (x86)\Windows Kits\10\Include\10.0.26100.0\ucrt\corecrt_math.h
; File C:\IAGOS\server\v18\Source\Source\_Common\Obj.h
; File C:\Program Files (x86)\Windows Kits\10\Include\10.0.26100.0\ucrt\corecrt_math.h
; File C:\IAGOS\server\v18\Source\Source\_Common\Obj.h
; File C:\IAGOS\server\v18\Source\Source\DX_SDK\d3dx9math.inl
; File C:\Program Files (x86)\Windows Kits\10\Include\10.0.26100.0\ucrt\corecrt_math.h
; File C:\IAGOS\server\v18\Source\Source\_AIInterface\AIGuard.cpp
; File C:\Program Files (x86)\Windows Kits\10\Include\10.0.26100.0\ucrt\corecrt_math.h
; File C:\IAGOS\server\v18\Source\Source\_AIInterface\AIGuard.cpp
; File C:\IAGOS\server\v18\Source\Source\DX_SDK\d3dx9math.inl
; File C:\IAGOS\server\v18\Source\Source\_Common\Obj.h
; File C:\IAGOS\server\v18\Source\Source\DX_SDK\d3dx9math.inl
; File C:\IAGOS\server\v18\Source\Source\_AIInterface\AIGuard.cpp
; File C:\IAGOS\server\v18\Source\Source\_Common\xUtil.h
; File C:\IAGOS\server\v18\Source\Source\_AIInterface\AIGuard.cpp
; File C:\IAGOS\server\v18\Source\Source\_Common\xUtil.h
; File C:\IAGOS\server\v18\Source\Source\_AIInterface\AIGuard.cpp
; File C:\IAGOS\server\v18\Source\Source\_Common\xUtil.h
; File C:\IAGOS\server\v18\Source\Source\_AIInterface\AIGuard.cpp
;	COMDAT ?StateRunaway@CAIGuard@@AAEHABUAIMSG@@@Z
_TEXT	SEGMENT
tv779 = -40						; size = 8
tv780 = -40						; size = 8
_fRange$1 = -32						; size = 4
$T2 = -28						; size = 12
$T3 = -28						; size = 12
_vDst$4 = -16						; size = 12
_vDst$5 = -16						; size = 12
__$ArrayPad$ = -4					; size = 4
_msg$ = 8						; size = 4
?StateRunaway@CAIGuard@@AAEHABUAIMSG@@@Z PROC		; CAIGuard::StateRunaway, COMDAT
; _this$ = ecx

; 402  : {

  00000	55		 push	 ebp
  00001	8b ec		 mov	 ebp, esp
  00003	83 ec 28	 sub	 esp, 40			; 00000028H
  00006	a1 00 00 00 00	 mov	 eax, DWORD PTR ___security_cookie
  0000b	33 c5		 xor	 eax, ebp
  0000d	89 45 fc	 mov	 DWORD PTR __$ArrayPad$[ebp], eax
  00010	53		 push	 ebx
  00011	56		 push	 esi
  00012	57		 push	 edi
  00013	8b f9		 mov	 edi, ecx

; 403  : 
; 404  : 	CMover* pMover = GetMover();
; 405  : 	CWorld* pWorld = GetWorld();
; 406  : 
; 407  : 	BeginAIHandler( )
; 408  : 
; 409  : 	///////////////////////////////////////////////////////////////////////////////////////////////////
; 410  : 	OnMessage( AIMSG_INIT ) 

  00015	8b 4d 08	 mov	 ecx, DWORD PTR _msg$[ebp]
  00018	8b 01		 mov	 eax, DWORD PTR [ecx]
  0001a	8b 5f 30	 mov	 ebx, DWORD PTR [edi+48]
  0001d	83 f8 01	 cmp	 eax, 1
  00020	0f 85 36 01 00
	00		 jne	 $LN4@StateRunaw

; 411  : 		// РЬАцПь СЄЛѓРћРЮ ПЩМЧПЁ РЧЧб ЕЕСжАЁ ОЦДЯЖѓ, ЛѓДыАЁ АјАнЧв Мі ОјДТ, СіИЎЛѓ РеСЁРЬ РжДТ РхМвПЁ
; 412  : 		// РжБт ЖЇЙЎПЁ СйЧрЖћРЛ ФЁДТ АцПьДй. 
; 413  : 		m_bTargetNoMovePos	= msg.dwParam2;

  00026	8b 41 08	 mov	 eax, DWORD PTR [ecx+8]
  00029	89 87 c4 00 00
	00		 mov	 DWORD PTR [edi+196], eax
; File C:\IAGOS\server\v18\Source\Source\_Common\xUtil.h

; 22   : 	return  xRand() % num;

  0002f	b8 cd cc cc cc	 mov	 eax, -858993459		; cccccccdH

; 16   : 	g_next = g_next * 1103515245 + 12345;// + nRandomSeed[ i++ ];

  00034	69 0d 00 00 00
	00 6d 4e c6 41	 imul	 ecx, DWORD PTR ?g_next@@3KA, 1103515245 ; g_next
  0003e	81 c1 39 30 00
	00		 add	 ecx, 12345		; 00003039H

; 22   : 	return  xRand() % num;

  00044	f7 e1		 mul	 ecx
; File C:\IAGOS\server\v18\Source\Source\_AIInterface\AIGuard.cpp

; 416  : 		pMover->AddAngle( (float)( 180 + ( 20 - xRandom( 40 ) ) ) );

  00046	51		 push	 ecx
; File C:\IAGOS\server\v18\Source\Source\_Common\xUtil.h

; 22   : 	return  xRand() % num;

  00047	c1 ea 05	 shr	 edx, 5
; File C:\IAGOS\server\v18\Source\Source\_AIInterface\AIGuard.cpp

; 416  : 		pMover->AddAngle( (float)( 180 + ( 20 - xRandom( 40 ) ) ) );

  0004a	83 c2 05	 add	 edx, 5
; File C:\IAGOS\server\v18\Source\Source\_Common\xUtil.h

; 16   : 	g_next = g_next * 1103515245 + 12345;// + nRandomSeed[ i++ ];

  0004d	89 0d 00 00 00
	00		 mov	 DWORD PTR ?g_next@@3KA, ecx ; g_next
; File C:\IAGOS\server\v18\Source\Source\_AIInterface\AIGuard.cpp

; 416  : 		pMover->AddAngle( (float)( 180 + ( 20 - xRandom( 40 ) ) ) );

  00053	8d 04 92	 lea	 eax, DWORD PTR [edx+edx*4]
  00056	c1 e0 03	 shl	 eax, 3
  00059	2b c1		 sub	 eax, ecx
  0005b	8b cb		 mov	 ecx, ebx
  0005d	66 0f 6e c0	 movd	 xmm0, eax
  00061	f3 0f e6 c0	 cvtdq2pd xmm0, xmm0
  00065	c1 e8 1f	 shr	 eax, 31			; 0000001fH
  00068	f2 0f 58 04 c5
	00 00 00 00	 addsd	 xmm0, QWORD PTR __xmm@41f00000000000000000000000000000[eax*8]
  00071	66 0f 5a c0	 cvtpd2ps xmm0, xmm0
  00075	f3 0f 11 04 24	 movss	 DWORD PTR [esp], xmm0
  0007a	e8 00 00 00 00	 call	 ?AddAngle@CObj@@QAEXM@Z	; CObj::AddAngle

; 417  : 		// АЂЕЕИІ ВЈГН ШФПЁ ПЌРхМБПЁ РжДТ СТЧЅИІ БИЧбДй.
; 418  : 		CMover* pMoverTarget = (CMover*)prj.GetCtrl( m_dwIdTarget ); // ИёЧЅИІ РчМГСЄЧиСиДй.

  0007f	ff b7 d8 00 00
	00		 push	 DWORD PTR [edi+216]
  00085	b9 00 00 00 00	 mov	 ecx, OFFSET ?prj@@3VCProject@@A ; prj
  0008a	e8 00 00 00 00	 call	 ?GetCtrl@CProject@@QAEPAVCCtrl@@K@Z ; CProject::GetCtrl
  0008f	8b f0		 mov	 esi, eax
; File C:\IAGOS\server\v18\Source\Source\_Common\Obj.h

; 327  : 	return pObj && ( pObj->IsDelete() == FALSE ); 

  00091	85 f6		 test	 esi, esi
  00093	0f 84 18 02 00
	00		 je	 $LN19@StateRunaw

; 180  : 	BOOL			IsDelete()	{ return (m_dwFlags & OBJ_FLAG_DELETE);  }

  00099	f6 46 04 01	 test	 BYTE PTR [esi+4], 1

; 327  : 	return pObj && ( pObj->IsDelete() == FALSE ); 

  0009d	0f 85 0e 02 00
	00		 jne	 $LN19@StateRunaw
; File C:\IAGOS\server\v18\Source\Source\_AIInterface\AIGuard.cpp

; 421  : 			DWORD dwAttackRange = pMoverTarget->GetActiveHandItemProp()->dwAttackRange;

  000a3	6a 0a		 push	 10			; 0000000aH
  000a5	8b ce		 mov	 ecx, esi
  000a7	e8 00 00 00 00	 call	 ?GetActiveHandItemProp@CMover@@QAEPAUItemProp@@H@Z ; CMover::GetActiveHandItemProp

; 422  : 			FLOAT fRange = pMoverTarget->GetAttackRange( dwAttackRange ) * 1.7f;

  000ac	8b ce		 mov	 ecx, esi
  000ae	8b 80 38 01 00
	00		 mov	 eax, DWORD PTR [eax+312]
  000b4	50		 push	 eax
  000b5	e8 00 00 00 00	 call	 ?GetAttackRange@CMover@@QAEMK@Z ; CMover::GetAttackRange
; File C:\IAGOS\server\v18\Source\Source\_Common\Obj.h

; 280  : 	FLOAT fTheta = D3DXToRadian( fAngle );

  000ba	f3 0f 10 43 18	 movss	 xmm0, DWORD PTR [ebx+24]
  000bf	f3 0f 59 05 00
	00 00 00	 mulss	 xmm0, DWORD PTR __real@3c8efa35

; 215  : 	D3DXVECTOR3		GetPos()	{ return m_vPos; }

  000c7	8b 83 68 01 00
	00		 mov	 eax, DWORD PTR [ebx+360]
; File C:\IAGOS\server\v18\Source\Source\_AIInterface\AIGuard.cpp

; 422  : 			FLOAT fRange = pMoverTarget->GetAttackRange( dwAttackRange ) * 1.7f;

  000cd	d8 0d 00 00 00
	00		 fmul	 DWORD PTR __real@3fd9999a
; File C:\IAGOS\server\v18\Source\Source\_Common\Obj.h

; 215  : 	D3DXVECTOR3		GetPos()	{ return m_vPos; }

  000d3	89 45 ec	 mov	 DWORD PTR $T2[ebp+8], eax
; File C:\Program Files (x86)\Windows Kits\10\Include\10.0.26100.0\ucrt\corecrt_math.h

; 789  :             return (float)sin(_X);

  000d6	0f 5a c8	 cvtps2pd xmm1, xmm0
; File C:\IAGOS\server\v18\Source\Source\_Common\Obj.h

; 215  : 	D3DXVECTOR3		GetPos()	{ return m_vPos; }

  000d9	f3 0f 7e 83 60
	01 00 00	 movq	 xmm0, QWORD PTR [ebx+352]
  000e1	66 0f d6 45 e4	 movq	 QWORD PTR $T2[ebp], xmm0
; File C:\Program Files (x86)\Windows Kits\10\Include\10.0.26100.0\ucrt\corecrt_math.h

; 789  :             return (float)sin(_X);

  000e6	0f 28 c1	 movaps	 xmm0, xmm1
; File C:\IAGOS\server\v18\Source\Source\_AIInterface\AIGuard.cpp

; 422  : 			FLOAT fRange = pMoverTarget->GetAttackRange( dwAttackRange ) * 1.7f;

  000e9	d9 5d e0	 fstp	 DWORD PTR _fRange$1[ebp]
; File C:\Program Files (x86)\Windows Kits\10\Include\10.0.26100.0\ucrt\corecrt_math.h

; 789  :             return (float)sin(_X);

  000ec	f2 0f 11 4d d8	 movsd	 QWORD PTR tv780[ebp], xmm1
  000f1	e8 00 00 00 00	 call	 __libm_sse2_sin_precise
  000f6	0f 57 c9	 xorps	 xmm1, xmm1
  000f9	f2 0f 5a c8	 cvtsd2ss xmm1, xmm0

; 683  :             return (float)cos(_X);

  000fd	f2 0f 10 45 d8	 movsd	 xmm0, QWORD PTR tv780[ebp]
; File C:\IAGOS\server\v18\Source\Source\_Common\Obj.h

; 281  : 	FLOAT fx = sinf( fTheta ) * fVelocity;

  00102	f3 0f 59 4d e0	 mulss	 xmm1, DWORD PTR _fRange$1[ebp]

; 215  : 	D3DXVECTOR3		GetPos()	{ return m_vPos; }

  00107	f3 0f 58 4d e4	 addss	 xmm1, DWORD PTR $T2[ebp]
; File C:\IAGOS\server\v18\Source\Source\DX_SDK\d3dx9math.inl

; 300  :     x = fx;

  0010c	f3 0f 11 4d f0	 movss	 DWORD PTR _vDst$4[ebp], xmm1
  00111	f3 0f 10 4d e8	 movss	 xmm1, DWORD PTR $T2[ebp+4]
  00116	f3 0f 58 0d 00
	00 00 00	 addss	 xmm1, DWORD PTR __real@00000000

; 301  :     y = fy;

  0011e	f3 0f 11 4d f4	 movss	 DWORD PTR _vDst$4[ebp+4], xmm1
; File C:\Program Files (x86)\Windows Kits\10\Include\10.0.26100.0\ucrt\corecrt_math.h

; 683  :             return (float)cos(_X);

  00123	e8 00 00 00 00	 call	 __libm_sse2_cos_precise
  00128	0f 57 c9	 xorps	 xmm1, xmm1
; File C:\IAGOS\server\v18\Source\Source\_AIInterface\AIGuard.cpp

; 425  : 			MoveToDst( vDst );

  0012b	8d 45 f0	 lea	 eax, DWORD PTR _vDst$4[ebp]
; File C:\Program Files (x86)\Windows Kits\10\Include\10.0.26100.0\ucrt\corecrt_math.h

; 683  :             return (float)cos(_X);

  0012e	f2 0f 5a c8	 cvtsd2ss xmm1, xmm0
; File C:\IAGOS\server\v18\Source\Source\_AIInterface\AIGuard.cpp

; 425  : 			MoveToDst( vDst );

  00132	8b cf		 mov	 ecx, edi
  00134	50		 push	 eax
; File C:\IAGOS\server\v18\Source\Source\DX_SDK\d3dx9math.inl

; 301  :     y = fy;

  00135	f3 0f 10 45 ec	 movss	 xmm0, DWORD PTR $T2[ebp+8]
; File C:\IAGOS\server\v18\Source\Source\_Common\Obj.h

; 282  : 	FLOAT fz = -cosf( fTheta ) * fVelocity;

  0013a	f3 0f 59 4d e0	 mulss	 xmm1, DWORD PTR _fRange$1[ebp]
; File C:\IAGOS\server\v18\Source\Source\DX_SDK\d3dx9math.inl

; 301  :     y = fy;

  0013f	f3 0f 5c c1	 subss	 xmm0, xmm1

; 302  :     z = fz;

  00143	f3 0f 11 45 f8	 movss	 DWORD PTR _vDst$4[ebp+8], xmm0
; File C:\IAGOS\server\v18\Source\Source\_AIInterface\AIGuard.cpp

; 425  : 			MoveToDst( vDst );

  00148	e8 00 00 00 00	 call	 ?MoveToDst@CAIMonster@@IAEXABUD3DXVECTOR3@@@Z ; CAIMonster::MoveToDst

; 426  : //			SendAIMsg( AIMSG_SETPROCESS, TRUE );
; 427  : 			m_bFirstRunaway = TRUE; // УГРН ЕЕСжРЮАЁ?

  0014d	c7 87 c8 00 00
	00 01 00 00 00	 mov	 DWORD PTR [edi+200], 1

; 428  : 		}

  00157	e9 c6 01 00 00	 jmp	 $LN23@StateRunaw
$LN4@StateRunaw:

; 429  : 		else
; 430  : 			SendAIMsg( AIMSG_SETSTATE, STATE_IDLE );
; 431  : 	///////////////////////////////////////////////////////////////////////////////////////////////////
; 432  : 	OnMessage( AIMSG_PROCESS ) 

  0015c	83 f8 02	 cmp	 eax, 2
  0015f	75 0c		 jne	 SHORT $LN8@StateRunaw

; 433  : 		MoveProcessRunaway();

  00161	8b cf		 mov	 ecx, edi
  00163	e8 00 00 00 00	 call	 ?MoveProcessRunaway@CAIGuard@@AAEHXZ ; CAIGuard::MoveProcessRunaway

; 434  : 	///////////////////////////////////////////////////////////////////////////////////////////////////
; 435  : 	OnMessage( AIMSG_DAMAGE ) 

  00168	e9 b5 01 00 00	 jmp	 $LN23@StateRunaw
$LN8@StateRunaw:
  0016d	83 f8 08	 cmp	 eax, 8
  00170	75 2e		 jne	 SHORT $LN10@StateRunaw

; 436  : 		if( m_bTargetNoMovePos == TRUE && m_bFirstRunaway == FALSE )

  00172	83 bf c4 00 00
	00 01		 cmp	 DWORD PTR [edi+196], 1
  00179	0f 85 a3 01 00
	00		 jne	 $LN23@StateRunaw
  0017f	83 bf c8 00 00
	00 00		 cmp	 DWORD PTR [edi+200], 0
  00186	0f 85 96 01 00
	00		 jne	 $LN23@StateRunaw

; 437  : 			SendAIMsg( AIMSG_SETSTATE, STATE_RAGE, NULL_ID );

  0018c	8b 07		 mov	 eax, DWORD PTR [edi]
  0018e	8b cf		 mov	 ecx, edi
  00190	6a 00		 push	 0
  00192	6a ff		 push	 -1
  00194	6a 07		 push	 7
  00196	6a 04		 push	 4
  00198	ff 50 0c	 call	 DWORD PTR [eax+12]

; 448  : 		// m_bFirstRunaway = FALSE; <-- 04.10.08 ЕЅЕхЖєРЛ РЏЙпЧЯДТ АЭРИЗЮ Л§АЂЕЪ.
; 449  : 	
; 450  : 	///////////////////////////////////////////////////////////////////////////////////////////////////
; 451  : 	OnMessage( AIMSG_DIE ) 

  0019b	e9 82 01 00 00	 jmp	 $LN23@StateRunaw
$LN10@StateRunaw:

; 438  : 
; 439  : 	///////////////////////////////////////////////////////////////////////////////////////////////////
; 440  : 	OnMessage( AIMSG_COLLISION )

  001a0	83 f8 0a	 cmp	 eax, 10			; 0000000aH
  001a3	0f 85 e5 00 00
	00		 jne	 $LN13@StateRunaw
; File C:\IAGOS\server\v18\Source\Source\_Common\xUtil.h

; 16   : 	g_next = g_next * 1103515245 + 12345;// + nRandomSeed[ i++ ];

  001a9	69 0d 00 00 00
	00 6d 4e c6 41	 imul	 ecx, DWORD PTR ?g_next@@3KA, 1103515245 ; g_next

; 22   : 	return  xRand() % num;

  001b3	b8 cd cc cc cc	 mov	 eax, -858993459		; cccccccdH

; 16   : 	g_next = g_next * 1103515245 + 12345;// + nRandomSeed[ i++ ];

  001b8	81 c1 39 30 00
	00		 add	 ecx, 12345		; 00003039H

; 22   : 	return  xRand() % num;

  001be	f7 e1		 mul	 ecx
; File C:\IAGOS\server\v18\Source\Source\_AIInterface\AIGuard.cpp

; 443  : 		pMover->AddAngle( (float)( 180 + ( 20 - xRandom( 40 ) ) ) );

  001c0	51		 push	 ecx
; File C:\IAGOS\server\v18\Source\Source\_Common\xUtil.h

; 22   : 	return  xRand() % num;

  001c1	c1 ea 05	 shr	 edx, 5
; File C:\IAGOS\server\v18\Source\Source\_AIInterface\AIGuard.cpp

; 443  : 		pMover->AddAngle( (float)( 180 + ( 20 - xRandom( 40 ) ) ) );

  001c4	83 c2 05	 add	 edx, 5
; File C:\IAGOS\server\v18\Source\Source\_Common\xUtil.h

; 16   : 	g_next = g_next * 1103515245 + 12345;// + nRandomSeed[ i++ ];

  001c7	89 0d 00 00 00
	00		 mov	 DWORD PTR ?g_next@@3KA, ecx ; g_next
; File C:\IAGOS\server\v18\Source\Source\_AIInterface\AIGuard.cpp

; 443  : 		pMover->AddAngle( (float)( 180 + ( 20 - xRandom( 40 ) ) ) );

  001cd	8d 04 92	 lea	 eax, DWORD PTR [edx+edx*4]
  001d0	c1 e0 03	 shl	 eax, 3
  001d3	2b c1		 sub	 eax, ecx
  001d5	8b cb		 mov	 ecx, ebx
  001d7	66 0f 6e c0	 movd	 xmm0, eax
  001db	f3 0f e6 c0	 cvtdq2pd xmm0, xmm0
  001df	c1 e8 1f	 shr	 eax, 31			; 0000001fH
  001e2	f2 0f 58 04 c5
	00 00 00 00	 addsd	 xmm0, QWORD PTR __xmm@41f00000000000000000000000000000[eax*8]
  001eb	66 0f 5a c0	 cvtpd2ps xmm0, xmm0
  001ef	f3 0f 11 04 24	 movss	 DWORD PTR [esp], xmm0
  001f4	e8 00 00 00 00	 call	 ?AddAngle@CObj@@QAEXM@Z	; CObj::AddAngle
; File C:\IAGOS\server\v18\Source\Source\_Common\Obj.h

; 280  : 	FLOAT fTheta = D3DXToRadian( fAngle );

  001f9	f3 0f 10 43 18	 movss	 xmm0, DWORD PTR [ebx+24]
  001fe	f3 0f 59 05 00
	00 00 00	 mulss	 xmm0, DWORD PTR __real@3c8efa35

; 215  : 	D3DXVECTOR3		GetPos()	{ return m_vPos; }

  00206	8b 83 68 01 00
	00		 mov	 eax, DWORD PTR [ebx+360]
  0020c	89 45 ec	 mov	 DWORD PTR $T3[ebp+8], eax
; File C:\Program Files (x86)\Windows Kits\10\Include\10.0.26100.0\ucrt\corecrt_math.h

; 789  :             return (float)sin(_X);

  0020f	0f 5a c8	 cvtps2pd xmm1, xmm0
; File C:\IAGOS\server\v18\Source\Source\_Common\Obj.h

; 215  : 	D3DXVECTOR3		GetPos()	{ return m_vPos; }

  00212	f3 0f 7e 83 60
	01 00 00	 movq	 xmm0, QWORD PTR [ebx+352]
  0021a	66 0f d6 45 e4	 movq	 QWORD PTR $T3[ebp], xmm0
; File C:\Program Files (x86)\Windows Kits\10\Include\10.0.26100.0\ucrt\corecrt_math.h

; 789  :             return (float)sin(_X);

  0021f	0f 28 c1	 movaps	 xmm0, xmm1
  00222	f2 0f 11 4d d8	 movsd	 QWORD PTR tv779[ebp], xmm1
  00227	e8 00 00 00 00	 call	 __libm_sse2_sin_precise
  0022c	0f 57 c9	 xorps	 xmm1, xmm1
  0022f	f2 0f 5a c8	 cvtsd2ss xmm1, xmm0

; 683  :             return (float)cos(_X);

  00233	f2 0f 10 45 d8	 movsd	 xmm0, QWORD PTR tv779[ebp]
; File C:\IAGOS\server\v18\Source\Source\_Common\Obj.h

; 281  : 	FLOAT fx = sinf( fTheta ) * fVelocity;

  00238	f3 0f 59 0d 00
	00 00 00	 mulss	 xmm1, DWORD PTR __real@40a00000

; 215  : 	D3DXVECTOR3		GetPos()	{ return m_vPos; }

  00240	f3 0f 58 4d e4	 addss	 xmm1, DWORD PTR $T3[ebp]
; File C:\IAGOS\server\v18\Source\Source\DX_SDK\d3dx9math.inl

; 300  :     x = fx;

  00245	f3 0f 11 4d f0	 movss	 DWORD PTR _vDst$5[ebp], xmm1
  0024a	f3 0f 10 4d e8	 movss	 xmm1, DWORD PTR $T3[ebp+4]
  0024f	f3 0f 58 0d 00
	00 00 00	 addss	 xmm1, DWORD PTR __real@00000000

; 301  :     y = fy;

  00257	f3 0f 11 4d f4	 movss	 DWORD PTR _vDst$5[ebp+4], xmm1
; File C:\Program Files (x86)\Windows Kits\10\Include\10.0.26100.0\ucrt\corecrt_math.h

; 683  :             return (float)cos(_X);

  0025c	e8 00 00 00 00	 call	 __libm_sse2_cos_precise
  00261	0f 57 c9	 xorps	 xmm1, xmm1
; File C:\IAGOS\server\v18\Source\Source\_AIInterface\AIGuard.cpp

; 447  : 		MoveToDst( vDst );

  00264	8d 45 f0	 lea	 eax, DWORD PTR _vDst$5[ebp]
; File C:\Program Files (x86)\Windows Kits\10\Include\10.0.26100.0\ucrt\corecrt_math.h

; 683  :             return (float)cos(_X);

  00267	f2 0f 5a c8	 cvtsd2ss xmm1, xmm0
; File C:\IAGOS\server\v18\Source\Source\_AIInterface\AIGuard.cpp

; 447  : 		MoveToDst( vDst );

  0026b	8b cf		 mov	 ecx, edi
  0026d	50		 push	 eax
; File C:\IAGOS\server\v18\Source\Source\DX_SDK\d3dx9math.inl

; 301  :     y = fy;

  0026e	f3 0f 10 45 ec	 movss	 xmm0, DWORD PTR $T3[ebp+8]
; File C:\IAGOS\server\v18\Source\Source\_Common\Obj.h

; 282  : 	FLOAT fz = -cosf( fTheta ) * fVelocity;

  00273	f3 0f 59 0d 00
	00 00 00	 mulss	 xmm1, DWORD PTR __real@40a00000
; File C:\IAGOS\server\v18\Source\Source\DX_SDK\d3dx9math.inl

; 301  :     y = fy;

  0027b	f3 0f 5c c1	 subss	 xmm0, xmm1

; 302  :     z = fz;

  0027f	f3 0f 11 45 f8	 movss	 DWORD PTR _vDst$5[ebp+8], xmm0
; File C:\IAGOS\server\v18\Source\Source\_AIInterface\AIGuard.cpp

; 447  : 		MoveToDst( vDst );

  00284	e8 00 00 00 00	 call	 ?MoveToDst@CAIMonster@@IAEXABUD3DXVECTOR3@@@Z ; CAIMonster::MoveToDst

; 448  : 		// m_bFirstRunaway = FALSE; <-- 04.10.08 ЕЅЕхЖєРЛ РЏЙпЧЯДТ АЭРИЗЮ Л§АЂЕЪ.
; 449  : 	
; 450  : 	///////////////////////////////////////////////////////////////////////////////////////////////////
; 451  : 	OnMessage( AIMSG_DIE ) 

  00289	e9 94 00 00 00	 jmp	 $LN23@StateRunaw
$LN13@StateRunaw:
  0028e	83 f8 09	 cmp	 eax, 9
  00291	0f 84 8b 00 00
	00		 je	 $LN23@StateRunaw

; 452  : 	///////////////////////////////////////////////////////////////////////////////////////////////////
; 453  : 	OnMessage( AIMSG_DSTDIE ) 

  00297	83 f8 07	 cmp	 eax, 7
  0029a	75 26		 jne	 SHORT $LN17@StateRunaw

; 454  : 		if( m_dwIdTarget == msg.dwParam1 )

  0029c	8b 87 d8 00 00
	00		 mov	 eax, DWORD PTR [edi+216]
  002a2	3b 41 04	 cmp	 eax, DWORD PTR [ecx+4]
  002a5	75 0a		 jne	 SHORT $LN19@StateRunaw

; 455  : 			m_dwIdTarget = NULL_ID;

  002a7	c7 87 d8 00 00
	00 ff ff ff ff	 mov	 DWORD PTR [edi+216], -1
$LN19@StateRunaw:

; 464  : 
; 465  : 	///////////////////////////////////////////////////////////////////////////////////////////////////
; 466  : 	OnMessage( AIMSG_EXIT )	
; 467  : //		SendAIMsg( AIMSG_SETPROCESS, FALSE );
; 468  : 
; 469  : 	EndAIHandler( )
; 470  : 
; 471  : 	return TRUE;
; 472  : }

  002b1	8b 07		 mov	 eax, DWORD PTR [edi]
  002b3	8b cf		 mov	 ecx, edi
  002b5	6a 00		 push	 0
  002b7	6a 00		 push	 0
  002b9	6a 02		 push	 2
  002bb	6a 04		 push	 4
  002bd	ff 50 0c	 call	 DWORD PTR [eax+12]
  002c0	eb 60		 jmp	 SHORT $LN23@StateRunaw
$LN17@StateRunaw:

; 456  : 		SendAIMsg( AIMSG_SETSTATE, STATE_IDLE );
; 457  : 
; 458  : 	OnMessage( AIMSG_ARRIVAL )

  002c2	83 f8 0b	 cmp	 eax, 11			; 0000000bH
  002c5	75 5b		 jne	 SHORT $LN23@StateRunaw

; 459  : 		m_bFirstRunaway = FALSE;
; 460  : 		//SetStop( xRandom( SEC( 2 ) ) + SEC( 1 ) ); // 2УЪ~3УЪ ЕПОШ ИиУчЖѓ 
; 461  : 		MoverProp* pMoverProp = pMover->GetProp();

  002c7	8b cb		 mov	 ecx, ebx
  002c9	c7 87 c8 00 00
	00 00 00 00 00	 mov	 DWORD PTR [edi+200], 0
  002d3	e8 00 00 00 00	 call	 ?GetPropA@CMover@@QAEPAUMoverProp@@XZ ; CMover::GetPropA

; 462  : 		if( pMoverProp->m_dwRunawayDelay )

  002d8	66 83 b8 d6 01
	00 00 00	 cmp	 WORD PTR [eax+470], 0
  002e0	74 40		 je	 SHORT $LN23@StateRunaw
; File C:\IAGOS\server\v18\Source\Source\_Common\xUtil.h

; 16   : 	g_next = g_next * 1103515245 + 12345;// + nRandomSeed[ i++ ];

  002e2	69 35 00 00 00
	00 6d 4e c6 41	 imul	 esi, DWORD PTR ?g_next@@3KA, 1103515245 ; g_next
; File C:\IAGOS\server\v18\Source\Source\_AIInterface\AIGuard.cpp

; 463  : 			SetStop( pMover->GetProp()->m_dwRunawayDelay + xRandom( SEC( 1 ) ) ); // + xRandomРК ОрАЃРЧ АЁКЏ ТїРЬИІ СжБт РЇЧб АЭ.

  002ec	8b cb		 mov	 ecx, ebx
; File C:\IAGOS\server\v18\Source\Source\_Common\xUtil.h

; 16   : 	g_next = g_next * 1103515245 + 12345;// + nRandomSeed[ i++ ];

  002ee	81 c6 39 30 00
	00		 add	 esi, 12345		; 00003039H
  002f4	89 35 00 00 00
	00		 mov	 DWORD PTR ?g_next@@3KA, esi ; g_next
; File C:\IAGOS\server\v18\Source\Source\_AIInterface\AIGuard.cpp

; 463  : 			SetStop( pMover->GetProp()->m_dwRunawayDelay + xRandom( SEC( 1 ) ) ); // + xRandomРК ОрАЃРЧ АЁКЏ ТїРЬИІ СжБт РЇЧб АЭ.

  002fa	e8 00 00 00 00	 call	 ?GetPropA@CMover@@QAEPAUMoverProp@@XZ ; CMover::GetPropA
  002ff	0f bf 88 d6 01
	00 00		 movsx	 ecx, WORD PTR [eax+470]
; File C:\IAGOS\server\v18\Source\Source\_Common\xUtil.h

; 22   : 	return  xRand() % num;

  00306	b8 d3 4d 62 10	 mov	 eax, 274877907		; 10624dd3H
  0030b	f7 e6		 mul	 esi
  0030d	c1 ea 06	 shr	 edx, 6
  00310	69 c2 e8 03 00
	00		 imul	 eax, edx, 1000
; File C:\IAGOS\server\v18\Source\Source\_AIInterface\AIGuard.cpp

; 463  : 			SetStop( pMover->GetProp()->m_dwRunawayDelay + xRandom( SEC( 1 ) ) ); // + xRandomРК ОрАЃРЧ АЁКЏ ТїРЬИІ СжБт РЇЧб АЭ.

  00316	2b c8		 sub	 ecx, eax
  00318	03 ce		 add	 ecx, esi
  0031a	51		 push	 ecx
  0031b	8b cf		 mov	 ecx, edi
  0031d	e8 00 00 00 00	 call	 ?SetStop@CAIMonster@@IAEXK@Z ; CAIMonster::SetStop
$LN23@StateRunaw:

; 464  : 
; 465  : 	///////////////////////////////////////////////////////////////////////////////////////////////////
; 466  : 	OnMessage( AIMSG_EXIT )	
; 467  : //		SendAIMsg( AIMSG_SETPROCESS, FALSE );
; 468  : 
; 469  : 	EndAIHandler( )
; 470  : 
; 471  : 	return TRUE;
; 472  : }

  00322	8b 4d fc	 mov	 ecx, DWORD PTR __$ArrayPad$[ebp]
  00325	b8 01 00 00 00	 mov	 eax, 1
  0032a	5f		 pop	 edi
  0032b	5e		 pop	 esi
  0032c	33 cd		 xor	 ecx, ebp
  0032e	5b		 pop	 ebx
  0032f	e8 00 00 00 00	 call	 @__security_check_cookie@4
  00334	8b e5		 mov	 esp, ebp
  00336	5d		 pop	 ebp
  00337	c2 04 00	 ret	 4
?StateRunaway@CAIGuard@@AAEHABUAIMSG@@@Z ENDP		; CAIGuard::StateRunaway
_TEXT	ENDS
; Function compile flags: /Ogtp
; File C:\IAGOS\server\v18\Source\Source\_AIInterface\AIGuard.cpp
;	COMDAT ?StateWander@CAIGuard@@AAEHABUAIMSG@@@Z
_TEXT	SEGMENT
_msg$ = 8						; size = 4
?StateWander@CAIGuard@@AAEHABUAIMSG@@@Z PROC		; CAIGuard::StateWander, COMDAT
; _this$ = ecx

; 266  : 	{	return TRUE;	}

  00000	b8 01 00 00 00	 mov	 eax, 1
  00005	c2 04 00	 ret	 4
?StateWander@CAIGuard@@AAEHABUAIMSG@@@Z ENDP		; CAIGuard::StateWander
_TEXT	ENDS
; Function compile flags: /Ogtp
; File C:\IAGOS\server\v18\Source\Source\_AIInterface\AIGuard.cpp
; File C:\IAGOS\server\v18\Source\Source\_Common\Obj.h
; File C:\IAGOS\server\v18\Source\Source\DX_SDK\d3dx9math.inl
; File C:\IAGOS\server\v18\Source\Source\_Common\Obj.h
; File C:\IAGOS\server\v18\Source\Source\_AIInterface\AIGuard.cpp
; File C:\IAGOS\server\v18\Source\Source\DX_SDK\d3dx9math.inl
; File C:\IAGOS\server\v18\Source\Source\_AIInterface\AIGuard.cpp
; File C:\IAGOS\server\v18\Source\Source\_Common\Obj.h
; File C:\IAGOS\server\v18\Source\Source\_AIInterface\AIGuard.cpp
; File C:\IAGOS\server\v18\Source\Source\_Common\Obj.h
; File C:\IAGOS\server\v18\Source\Source\_AIInterface\AIGuard.cpp
; File C:\IAGOS\server\v18\Source\Source\_Common\Obj.h
; File C:\IAGOS\server\v18\Source\Source\_AIInterface\AIGuard.cpp
; File C:\IAGOS\server\v18\Source\Source\_Common\Obj.h
; File C:\IAGOS\server\v18\Source\Source\_AIInterface\AIGuard.cpp
; File C:\IAGOS\server\v18\Source\Source\_Common\xUtil.h
; File C:\IAGOS\server\v18\Source\Source\_AIInterface\AIGuard.cpp
; File C:\IAGOS\server\v18\Source\Source\_Common\xUtil.h
; File C:\IAGOS\server\v18\Source\Source\_AIInterface\AIGuard.cpp
;	COMDAT ?StateIdle@CAIGuard@@AAEHABUAIMSG@@@Z
_TEXT	SEGMENT
$T1 = -28						; size = 12
_vTargetTo$2 = -16					; size = 12
$T3 = -16						; size = 12
__$ArrayPad$ = -4					; size = 4
_msg$ = 8						; size = 4
?StateIdle@CAIGuard@@AAEHABUAIMSG@@@Z PROC		; CAIGuard::StateIdle, COMDAT
; _this$ = ecx

; 152  : {

  00000	55		 push	 ebp
  00001	8b ec		 mov	 ebp, esp
  00003	83 ec 1c	 sub	 esp, 28			; 0000001cH
  00006	a1 00 00 00 00	 mov	 eax, DWORD PTR ___security_cookie
  0000b	33 c5		 xor	 eax, ebp
  0000d	89 45 fc	 mov	 DWORD PTR __$ArrayPad$[ebp], eax
  00010	56		 push	 esi
  00011	8b f1		 mov	 esi, ecx

; 153  : 	CMover* pMover = GetMover();
; 154  : 	CWorld* pWorld = GetWorld();
; 155  : 
; 156  : 	BeginAIHandler( )
; 157  : 
; 158  : 	///////////////////////////////////////////////////////////////////////////////////////////////////
; 159  : 	OnMessage( AIMSG_INIT ) 

  00013	8b 4d 08	 mov	 ecx, DWORD PTR _msg$[ebp]
  00016	57		 push	 edi
  00017	8b 01		 mov	 eax, DWORD PTR [ecx]
  00019	8b 7e 30	 mov	 edi, DWORD PTR [esi+48]
  0001c	83 f8 01	 cmp	 eax, 1
  0001f	0f 85 85 00 00
	00		 jne	 $LN4@StateIdle

; 160  : 		float fRangeMove = RANGE_MOVE;
; 161  : 		if( pMover->IsFlyingNPC() )

  00025	f7 87 3c 02 00
	00 00 00 01 00	 test	 DWORD PTR [edi+572], 65536 ; 00010000H
  0002f	f3 0f 10 0d 00
	00 00 00	 movss	 xmm1, DWORD PTR __real@41700000
  00037	74 08		 je	 SHORT $LN6@StateIdle

; 162  : 			fRangeMove *= 3.0f;

  00039	f3 0f 10 0d 00
	00 00 00	 movss	 xmm1, DWORD PTR __real@42340000
$LN6@StateIdle:
; File C:\IAGOS\server\v18\Source\Source\_Common\Obj.h

; 215  : 	D3DXVECTOR3		GetPos()	{ return m_vPos; }

  00041	f3 0f 7e 87 60
	01 00 00	 movq	 xmm0, QWORD PTR [edi+352]
  00049	8b 87 68 01 00
	00		 mov	 eax, DWORD PTR [edi+360]
  0004f	66 0f d6 45 e4	 movq	 QWORD PTR $T1[ebp], xmm0
; File C:\IAGOS\server\v18\Source\Source\DX_SDK\d3dx9math.inl

; 383  :     return D3DXVECTOR3(x - v.x, y - v.y, z - v.z);

  00054	f3 0f 10 45 e4	 movss	 xmm0, DWORD PTR $T1[ebp]
  00059	f3 0f 5c 46 50	 subss	 xmm0, DWORD PTR [esi+80]
; File C:\IAGOS\server\v18\Source\Source\_Common\Obj.h

; 215  : 	D3DXVECTOR3		GetPos()	{ return m_vPos; }

  0005e	89 45 ec	 mov	 DWORD PTR $T1[ebp+8], eax
; File C:\IAGOS\server\v18\Source\Source\_AIInterface\AIGuard.cpp

; 164  : 		if( IsInRange( vTargetTo, fRangeMove ) == FALSE )

  00061	8d 45 f0	 lea	 eax, DWORD PTR _vTargetTo$2[ebp]
  00064	51		 push	 ecx
  00065	f3 0f 11 0c 24	 movss	 DWORD PTR [esp], xmm1
  0006a	8b ce		 mov	 ecx, esi
  0006c	50		 push	 eax
; File C:\IAGOS\server\v18\Source\Source\DX_SDK\d3dx9math.inl

; 300  :     x = fx;

  0006d	f3 0f 11 45 f0	 movss	 DWORD PTR _vTargetTo$2[ebp], xmm0

; 383  :     return D3DXVECTOR3(x - v.x, y - v.y, z - v.z);

  00072	f3 0f 10 45 e8	 movss	 xmm0, DWORD PTR $T1[ebp+4]
  00077	f3 0f 5c 46 54	 subss	 xmm0, DWORD PTR [esi+84]

; 301  :     y = fy;

  0007c	f3 0f 11 45 f4	 movss	 DWORD PTR _vTargetTo$2[ebp+4], xmm0

; 383  :     return D3DXVECTOR3(x - v.x, y - v.y, z - v.z);

  00081	f3 0f 10 45 ec	 movss	 xmm0, DWORD PTR $T1[ebp+8]
  00086	f3 0f 5c 46 58	 subss	 xmm0, DWORD PTR [esi+88]

; 302  :     z = fz;

  0008b	f3 0f 11 45 f8	 movss	 DWORD PTR _vTargetTo$2[ebp+8], xmm0
; File C:\IAGOS\server\v18\Source\Source\_AIInterface\AIGuard.cpp

; 164  : 		if( IsInRange( vTargetTo, fRangeMove ) == FALSE )

  00090	e8 00 00 00 00	 call	 ?IsInRange@CAIMonster@@IAEHAAUD3DXVECTOR3@@M@Z ; CAIMonster::IsInRange
  00095	85 c0		 test	 eax, eax
  00097	75 0a		 jne	 SHORT $LN7@StateIdle

; 165  : 			m_bReturnToBegin = TRUE;

  00099	c7 86 bc 00 00
	00 01 00 00 00	 mov	 DWORD PTR [esi+188], 1
$LN7@StateIdle:

; 166  : 		SetStop( SEC( 0 ) );

  000a3	6a 00		 push	 0

; 167  : 	///////////////////////////////////////////////////////////////////////////////////////////////////
; 168  : 	OnMessage( AIMSG_INIT_TARGETCLEAR )

  000a5	e9 4c 01 00 00	 jmp	 $LN65@StateIdle
$LN4@StateIdle:
  000aa	83 f8 11	 cmp	 eax, 17			; 00000011H
  000ad	75 0f		 jne	 SHORT $LN8@StateIdle

; 169  : 		m_dwIdTarget = NULL_ID;

  000af	c7 86 d8 00 00
	00 ff ff ff ff	 mov	 DWORD PTR [esi+216], -1

; 170  : 			
; 171  : 	///////////////////////////////////////////////////////////////////////////////////////////////////
; 172  : 	OnMessage( AIMSG_PROCESS ) 

  000b9	e9 3f 01 00 00	 jmp	 $LN27@StateIdle
$LN8@StateIdle:
  000be	83 f8 02	 cmp	 eax, 2
  000c1	75 0d		 jne	 SHORT $LN10@StateIdle

; 173  : 		MoveProcessIdle( msg );

  000c3	51		 push	 ecx
  000c4	8b ce		 mov	 ecx, esi
  000c6	e8 00 00 00 00	 call	 ?MoveProcessIdle@CAIGuard@@AAEHABUAIMSG@@@Z ; CAIGuard::MoveProcessIdle

; 174  : 
; 175  : 	///////////////////////////////////////////////////////////////////////////////////////////////////
; 176  : 	OnMessage( AIMSG_DAMAGE ) 

  000cb	e9 2d 01 00 00	 jmp	 $LN27@StateIdle
$LN10@StateIdle:
  000d0	83 f8 08	 cmp	 eax, 8
  000d3	75 50		 jne	 SHORT $LN12@StateIdle

; 177  : 		//КаГы И№ЕхЗЮ КЏАц!
; 178  : 		if( m_bReturnToBegin == FALSE || (m_bReturnToBegin && (int)(g_tmCurrent - m_tmReturnToBegin) > SEC(5)) )

  000d5	83 be bc 00 00
	00 00		 cmp	 DWORD PTR [esi+188], 0
  000dc	74 13		 je	 SHORT $LN15@StateIdle
  000de	a1 00 00 00 00	 mov	 eax, DWORD PTR ?g_tmCurrent@@3KA ; g_tmCurrent
  000e3	2b 46 4c	 sub	 eax, DWORD PTR [esi+76]
  000e6	3d 88 13 00 00	 cmp	 eax, 5000		; 00001388H
  000eb	0f 8e 0c 01 00
	00		 jle	 $LN27@StateIdle
$LN15@StateIdle:

; 179  : 		{
; 180  : 			m_dwIdTarget = msg.dwParam1;

  000f1	8b 41 04	 mov	 eax, DWORD PTR [ecx+4]

; 181  : 			MoveToDst( m_dwIdTarget );

  000f4	8b ce		 mov	 ecx, esi
  000f6	50		 push	 eax
  000f7	89 86 d8 00 00
	00		 mov	 DWORD PTR [esi+216], eax
  000fd	e8 00 00 00 00	 call	 ?MoveToDst@CAIMonster@@IAEXK@Z ; CAIMonster::MoveToDst

; 182  : 			SendAIMsg( AIMSG_SETSTATE, STATE_RAGE, NULL_ID );

  00102	8b 06		 mov	 eax, DWORD PTR [esi]
  00104	8b ce		 mov	 ecx, esi
  00106	6a 00		 push	 0
  00108	6a ff		 push	 -1
  0010a	6a 07		 push	 7
  0010c	6a 04		 push	 4
  0010e	ff 50 0c	 call	 DWORD PTR [eax+12]

; 183  : 			m_tmAttack = timeGetTime() + s_tmAttack;	// ДыБтСпРЯЖЇ АјАнЙоРИИщ 10УЪ ХИРЬИг НУРл

  00111	ff 15 00 00 00
	00		 call	 DWORD PTR __imp__timeGetTime@0
  00117	03 05 00 00 00
	00		 add	 eax, DWORD PTR ?s_tmAttack@@3KA
  0011d	89 46 40	 mov	 DWORD PTR [esi+64], eax

; 213  : 
; 214  : 			// --------
; 215  : 			// РЬКЮКаРК CAIMonsterРЧ ЗчЦОРЛ БзДыЗЮ ОЕМі РжАд ЧЯРк.
; 216  : /*			if( m_bLootMove )	// ОЦРЬХл ЗчЦУИ№ЕхПДРН.
; 217  : 			{
; 218  : 				CCtrl *pCtrl = prj.GetCtrl( m_idLootItem );		// БзОЦРЬХлРЬ ЛчЖѓСГРЛМі РжРИДЯБю АЫЛчЧд.
; 219  : 				if( IsValidObj(pCtrl) )
; 220  : 				{
; 221  : 					CItem *pItem = (CItem *)pCtrl;
; 222  : 					D3DXVECTOR3 vDist = pCtrl->GetPos() - pMover->GetPos();
; 223  : 					FLOAT fDistSq = D3DXVec3LengthSq( &vDist );
; 224  : 					if( fDistSq < 3.0f * 3.0f )		// ЕЕТјЧиМ­ АХИЎ АЫЛч ЧбЙјДѕ ЧиМ­ 
; 225  : 					{
; 226  : 						pItem->Lock( theLineFile );	// lock
; 227  : 						if( pItem->IsDelete() )
; 228  : 						{
; 229  : 							pItem->Unlock( theLineFile );	// unlock
; 230  : 							return TRUE;
; 231  : 						}
; 232  : 						CItemElem* pItemElem = (CItemElem *)pItem->m_pItemBase;
; 233  : 						ItemProp *pItemProp = pItem->GetProp();
; 234  : 						BOOL bSuccess = FALSE;
; 235  : 						if( pItemProp->dwItemKind1 == IK1_GOLD )	// СжРКОЦРЬХлРЬ ЕЗРЬГФ?
; 236  : 						{
; 237  : 							//pMover->SetPointParam( DST_GOLD, pMover->GetGold() + pItemElem->m_nItemNum );	// ЕЗСѕАЁ.
; 238  : 							pMover->AddGold( pItemElem->m_nItemNum );	// ЕЗСѕАЁ.
; 239  : 							bSuccess = TRUE;
; 240  : 						} else
; 241  : 						// not GOLD
; 242  : 						{
; 243  : 							bSuccess = pMover->CreateItem( pItemElem );			// СжРК ОЦРЬХл Л§МК.
; 244  : 						}
; 245  : 
; 246  : 						if( bSuccess )
; 247  : 						{
; 248  : 							pItem->Delete();		// РЮКЅПЁБюСі ГжДТЕЅ МКАјЧЯИщ ЙйДкРЧ ОЦРЬХлРК СіПђ.
; 249  : 						}
; 250  : 						pItem->Unlock( theLineFile );	// unlock
; 251  : 					}
; 252  : 				}
; 253  : 				m_bLootMove = FALSE;		// thisАЁ ОЦРЬХл С§ДТСпРЬЖѓДТАХ ЧиСІ.
; 254  : 				m_idLootItem = NULL_ID;
; 255  : 			} */
; 256  : 		}
; 257  : 		
; 258  : 	///////////////////////////////////////////////////////////////////////////////////////////////////
; 259  : 	OnMessage( AIMSG_EXIT )	

  00120	e9 d8 00 00 00	 jmp	 $LN27@StateIdle
$LN12@StateIdle:

; 184  : 		}
; 185  : 
; 186  : 
; 187  : 	///////////////////////////////////////////////////////////////////////////////////////////////////
; 188  : 	OnMessage( AIMSG_DIE ) 

  00125	83 f8 09	 cmp	 eax, 9
  00128	75 14		 jne	 SHORT $LN16@StateIdle

; 189  : 		SendAIMsg( AIMSG_EXIT );

  0012a	8b 06		 mov	 eax, DWORD PTR [esi]
  0012c	8b ce		 mov	 ecx, esi
  0012e	6a 00		 push	 0
  00130	6a 00		 push	 0
  00132	6a 00		 push	 0
  00134	6a 12		 push	 18			; 00000012H
  00136	ff 50 0c	 call	 DWORD PTR [eax+12]

; 190  : 
; 191  : 	///////////////////////////////////////////////////////////////////////////////////////////////////
; 192  : 	OnMessage( AIMSG_COLLISION )

  00139	e9 bf 00 00 00	 jmp	 $LN27@StateIdle
$LN16@StateIdle:
  0013e	83 f8 0a	 cmp	 eax, 10			; 0000000aH
  00141	75 0e		 jne	 SHORT $LN18@StateIdle

; 193  : 		MoveToRandom( STATE_IDLE );

  00143	6a 02		 push	 2
  00145	8b ce		 mov	 ecx, esi
  00147	e8 00 00 00 00	 call	 ?MoveToRandom@CAIMonster@@IAEXI@Z ; CAIMonster::MoveToRandom

; 194  : 
; 195  : 	///////////////////////////////////////////////////////////////////////////////////////////////////
; 196  : 	OnMessage( AIMSG_ARRIVAL )

  0014c	e9 ac 00 00 00	 jmp	 $LN27@StateIdle
$LN18@StateIdle:
  00151	83 f8 0b	 cmp	 eax, 11			; 0000000bH
  00154	0f 85 a3 00 00
	00		 jne	 $LN27@StateIdle

; 197  : 		if( pMover->IsFlyingNPC() )		

  0015a	f7 87 3c 02 00
	00 00 00 01 00	 test	 DWORD PTR [edi+572], 65536 ; 00010000H
  00164	74 54		 je	 SHORT $LN22@StateIdle

; 198  : 		{
; 199  : 			// КёЧрИїРК ЕЕТјЧЯАэ ГЊМ­ ИиУпСі ОЪДТДй. 8РкКёЧрРИЗЮ РЬЕПЦаХЯРЬ ЙйВяДй.
; 200  : 			if( msg.dwParam2 == 1 )

  00166	83 79 08 01	 cmp	 DWORD PTR [ecx+8], 1
  0016a	0f 85 8d 00 00
	00		 jne	 $LN27@StateIdle

; 201  : 			{
; 202  : 				int nPattern = 2;
; 203  : 				pMover->SetMovePattern( nPattern );

  00170	6a 02		 push	 2
  00172	8b cf		 mov	 ecx, edi
  00174	e8 00 00 00 00	 call	 ?SetMovePattern@CMover@@QAEXH@Z ; CMover::SetMovePattern
; File C:\IAGOS\server\v18\Source\Source\_Common\Obj.h

; 215  : 	D3DXVECTOR3		GetPos()	{ return m_vPos; }

  00179	f3 0f 7e 87 60
	01 00 00	 movq	 xmm0, QWORD PTR [edi+352]
; File C:\IAGOS\server\v18\Source\Source\_AIInterface\AIGuard.cpp

; 205  : 				g_UserMng.AddSetMovePattern( pMover, nPattern, pMover->GetPos(), pMover->GetAngle(), pMover->GetAngleX() );

  00181	83 ec 08	 sub	 esp, 8
; File C:\IAGOS\server\v18\Source\Source\_Common\Obj.h

; 215  : 	D3DXVECTOR3		GetPos()	{ return m_vPos; }

  00184	8b 87 68 01 00
	00		 mov	 eax, DWORD PTR [edi+360]
; File C:\IAGOS\server\v18\Source\Source\_AIInterface\AIGuard.cpp

; 205  : 				g_UserMng.AddSetMovePattern( pMover, nPattern, pMover->GetPos(), pMover->GetAngle(), pMover->GetAngleX() );

  0018a	b9 00 00 00 00	 mov	 ecx, OFFSET ?g_UserMng@@3VCUserMng@@A ; g_UserMng
; File C:\IAGOS\server\v18\Source\Source\_Common\Obj.h

; 215  : 	D3DXVECTOR3		GetPos()	{ return m_vPos; }

  0018f	66 0f d6 45 f0	 movq	 QWORD PTR $T3[ebp], xmm0
; File C:\IAGOS\server\v18\Source\Source\_AIInterface\AIGuard.cpp

; 205  : 				g_UserMng.AddSetMovePattern( pMover, nPattern, pMover->GetPos(), pMover->GetAngle(), pMover->GetAngleX() );

  00194	f3 0f 10 47 1c	 movss	 xmm0, DWORD PTR [edi+28]
  00199	f3 0f 11 44 24
	04		 movss	 DWORD PTR [esp+4], xmm0
  0019f	f3 0f 10 47 18	 movss	 xmm0, DWORD PTR [edi+24]
; File C:\IAGOS\server\v18\Source\Source\_Common\Obj.h

; 215  : 	D3DXVECTOR3		GetPos()	{ return m_vPos; }

  001a4	89 45 f8	 mov	 DWORD PTR $T3[ebp+8], eax
; File C:\IAGOS\server\v18\Source\Source\_AIInterface\AIGuard.cpp

; 205  : 				g_UserMng.AddSetMovePattern( pMover, nPattern, pMover->GetPos(), pMover->GetAngle(), pMover->GetAngleX() );

  001a7	8d 45 f0	 lea	 eax, DWORD PTR $T3[ebp]
  001aa	f3 0f 11 04 24	 movss	 DWORD PTR [esp], xmm0
  001af	50		 push	 eax
  001b0	6a 02		 push	 2
  001b2	57		 push	 edi
  001b3	e8 00 00 00 00	 call	 ?AddSetMovePattern@CUserMng@@QAEXPAVCMover@@HABUD3DXVECTOR3@@MM@Z ; CUserMng::AddSetMovePattern

; 206  : 			}
; 207  : 		} else

  001b8	eb 43		 jmp	 SHORT $LN27@StateIdle
$LN22@StateIdle:

; 208  : 		{
; 209  : 			if( m_bReturnToBegin )

  001ba	69 0d 00 00 00
	00 6d 4e c6 41	 imul	 ecx, DWORD PTR ?g_next@@3KA, 1103515245 ; g_next
  001c4	b8 d3 4d 62 10	 mov	 eax, 274877907		; 10624dd3H
  001c9	81 c1 39 30 00
	00		 add	 ecx, 12345		; 00003039H
  001cf	f7 e1		 mul	 ecx
  001d1	c1 ea 06	 shr	 edx, 6
  001d4	69 c2 e8 03 00
	00		 imul	 eax, edx, 1000
  001da	83 be bc 00 00
	00 00		 cmp	 DWORD PTR [esi+188], 0
  001e1	89 0d 00 00 00
	00		 mov	 DWORD PTR ?g_next@@3KA, ecx ; g_next
  001e7	74 04		 je	 SHORT $LN25@StateIdle
; File C:\IAGOS\server\v18\Source\Source\_Common\xUtil.h

; 22   : 	return  xRand() % num;

  001e9	2b c8		 sub	 ecx, eax
; File C:\IAGOS\server\v18\Source\Source\_AIInterface\AIGuard.cpp

; 210  : 				SetStop( xRandom( SEC( 1 ) ) ); // 1УЪ ЕПОШ ИиУчЖѓ 

  001eb	eb 08		 jmp	 SHORT $LN66@StateIdle
$LN25@StateIdle:
; File C:\IAGOS\server\v18\Source\Source\_Common\xUtil.h

; 22   : 	return  xRand() % num;

  001ed	2b c8		 sub	 ecx, eax
; File C:\IAGOS\server\v18\Source\Source\_AIInterface\AIGuard.cpp

; 212  : 				SetStop( SEC( 5 ) + xRandom( SEC( 1 ) ) ); // 1УЪ ЕПОШ ИиУчЖѓ 

  001ef	81 c1 88 13 00
	00		 add	 ecx, 5000		; 00001388H
$LN66@StateIdle:

; 260  : 
; 261  : 	EndAIHandler( )
; 262  : 	return TRUE;
; 263  : }

  001f5	51		 push	 ecx
$LN65@StateIdle:
  001f6	8b ce		 mov	 ecx, esi
  001f8	e8 00 00 00 00	 call	 ?SetStop@CAIMonster@@IAEXK@Z ; CAIMonster::SetStop
$LN27@StateIdle:
  001fd	8b 4d fc	 mov	 ecx, DWORD PTR __$ArrayPad$[ebp]
  00200	b8 01 00 00 00	 mov	 eax, 1
  00205	5f		 pop	 edi
  00206	33 cd		 xor	 ecx, ebp
  00208	5e		 pop	 esi
  00209	e8 00 00 00 00	 call	 @__security_check_cookie@4
  0020e	8b e5		 mov	 esp, ebp
  00210	5d		 pop	 ebp
  00211	c2 04 00	 ret	 4
?StateIdle@CAIGuard@@AAEHABUAIMSG@@@Z ENDP		; CAIGuard::StateIdle
_TEXT	ENDS
; Function compile flags: /Ogtp
; File C:\IAGOS\server\v18\Source\Source\_AIInterface\AIGuard.cpp
;	COMDAT ?StateInit@CAIGuard@@AAEHABUAIMSG@@@Z
_TEXT	SEGMENT
_msg$ = 8						; size = 4
?StateInit@CAIGuard@@AAEHABUAIMSG@@@Z PROC		; CAIGuard::StateInit, COMDAT
; _this$ = ecx

; 73   : 	return TRUE;

  00000	b8 01 00 00 00	 mov	 eax, 1

; 74   : }

  00005	c2 04 00	 ret	 4
?StateInit@CAIGuard@@AAEHABUAIMSG@@@Z ENDP		; CAIGuard::StateInit
_TEXT	ENDS
; Function compile flags: /Ogtp
; File C:\IAGOS\server\v18\Source\Source\_AIInterface\AIGuard.cpp
; File C:\IAGOS\server\v18\Source\Source\_AIInterface\Action.h
; File C:\IAGOS\server\v18\Source\Source\_Common\Mover.h
; File C:\IAGOS\server\v18\Source\Source\_AIInterface\AIGuard.cpp
; File C:\IAGOS\server\v18\Source\Source\_Common\Obj.h
; File C:\IAGOS\server\v18\Source\Source\_AIInterface\AIGuard.cpp
;	COMDAT ?MoveProcessRunaway@CAIGuard@@AAEHXZ
_TEXT	SEGMENT
?MoveProcessRunaway@CAIGuard@@AAEHXZ PROC		; CAIGuard::MoveProcessRunaway, COMDAT
; _this$ = ecx

; 382  : {

  00000	56		 push	 esi
  00001	8b f1		 mov	 esi, ecx

; 383  : 	CMover* pMover = GetMover();

  00003	8b 4e 30	 mov	 ecx, DWORD PTR [esi+48]
; File C:\IAGOS\server\v18\Source\Source\_AIInterface\Action.h

; 310  : 	BOOL			IsDie() { return (m_dwState & OBJSTA_DIE_ALL) ? TRUE : FALSE; }

  00006	8b 81 38 02 00
	00		 mov	 eax, DWORD PTR [ecx+568]
  0000c	8b 40 04	 mov	 eax, DWORD PTR [eax+4]
; File C:\IAGOS\server\v18\Source\Source\_Common\Mover.h

; 1250 : 	BOOL			IsDie() { return m_pActMover->IsDie() || m_nHitPoint == 0; }

  0000f	a9 00 00 00 08	 test	 eax, 134217728		; 08000000H
  00014	75 4a		 jne	 SHORT $LN3@MoveProces
  00016	83 b9 f8 05 00
	00 00		 cmp	 DWORD PTR [ecx+1528], 0
  0001d	74 41		 je	 SHORT $LN3@MoveProces
; File C:\IAGOS\server\v18\Source\Source\_AIInterface\AIGuard.cpp

; 387  : 	if( pMover->IsDie() || (pMover->m_pActMover->GetState() & OBJSTA_DMG_FLY_ALL))

  0001f	a9 00 00 00 02	 test	 eax, 33554432		; 02000000H
  00024	75 3a		 jne	 SHORT $LN3@MoveProces

; 389  : 
; 390  : 	CCtrl* pTarget = prj.GetCtrl( m_dwIdTarget ); // ИёЧЅИІ РчМГСЄЧиСиДй.

  00026	ff b6 d8 00 00
	00		 push	 DWORD PTR [esi+216]
  0002c	b9 00 00 00 00	 mov	 ecx, OFFSET ?prj@@3VCProject@@A ; prj
  00031	e8 00 00 00 00	 call	 ?GetCtrl@CProject@@QAEPAVCCtrl@@K@Z ; CProject::GetCtrl
; File C:\IAGOS\server\v18\Source\Source\_Common\Obj.h

; 327  : 	return pObj && ( pObj->IsDelete() == FALSE ); 

  00036	85 c0		 test	 eax, eax
  00038	74 06		 je	 SHORT $LN20@MoveProces

; 180  : 	BOOL			IsDelete()	{ return (m_dwFlags & OBJ_FLAG_DELETE);  }

  0003a	f6 40 04 01	 test	 BYTE PTR [eax+4], 1

; 327  : 	return pObj && ( pObj->IsDelete() == FALSE ); 

  0003e	74 19		 je	 SHORT $LN4@MoveProces
$LN20@MoveProces:
; File C:\IAGOS\server\v18\Source\Source\_AIInterface\AIGuard.cpp

; 396  : 		SendAIMsg( AIMSG_SETSTATE, STATE_IDLE );

  00040	8b 06		 mov	 eax, DWORD PTR [esi]
  00042	8b ce		 mov	 ecx, esi
  00044	6a 00		 push	 0
  00046	6a 00		 push	 0
  00048	6a 02		 push	 2
  0004a	6a 04		 push	 4
  0004c	c7 86 d8 00 00
	00 ff ff ff ff	 mov	 DWORD PTR [esi+216], -1
  00056	ff 50 0c	 call	 DWORD PTR [eax+12]
$LN4@MoveProces:

; 397  : 	}
; 398  : 	return TRUE;

  00059	b8 01 00 00 00	 mov	 eax, 1
  0005e	5e		 pop	 esi

; 399  : }

  0005f	c3		 ret	 0
$LN3@MoveProces:

; 388  : 		return FALSE;

  00060	33 c0		 xor	 eax, eax
  00062	5e		 pop	 esi

; 399  : }

  00063	c3		 ret	 0
?MoveProcessRunaway@CAIGuard@@AAEHXZ ENDP		; CAIGuard::MoveProcessRunaway
_TEXT	ENDS
; Function compile flags: /Ogtp
; File C:\IAGOS\server\v18\Source\Source\_AIInterface\AIGuard.cpp
;	COMDAT ?MoveProcessRage@CAIGuard@@AAEHABUAIMSG@@@Z
_TEXT	SEGMENT
_msg$ = 8						; size = 4
?MoveProcessRage@CAIGuard@@AAEHABUAIMSG@@@Z PROC	; CAIGuard::MoveProcessRage, COMDAT
; _this$ = ecx

; 280  : {

  00000	55		 push	 ebp
  00001	8b ec		 mov	 ebp, esp

; 281  : 	CAIMonster::MoveProcessRage( msg );		// ИѓНКХЭРЧ РќХѕЦаХЯРЛ БзДыЗЮ ЛчПы.

  00003	ff 75 08	 push	 DWORD PTR _msg$[ebp]
  00006	e8 00 00 00 00	 call	 ?MoveProcessRage@CAIMonster@@IAEHABUAIMSG@@@Z ; CAIMonster::MoveProcessRage

; 282  : 	return TRUE;

  0000b	b8 01 00 00 00	 mov	 eax, 1

; 283  : }

  00010	5d		 pop	 ebp
  00011	c2 04 00	 ret	 4
?MoveProcessRage@CAIGuard@@AAEHABUAIMSG@@@Z ENDP	; CAIGuard::MoveProcessRage
_TEXT	ENDS
; Function compile flags: /Ogtp
; File C:\IAGOS\server\v18\Source\Source\_AIInterface\AIGuard.cpp
; File C:\IAGOS\server\v18\Source\Source\_Common\Project.h
; File C:\IAGOS\server\v18\Source\Source\_AIInterface\AIGuard.cpp
; File C:\IAGOS\server\v18\Source\Source\_Common\Mover.h
; File C:\IAGOS\server\v18\Source\Source\_Common\Project.h
; File C:\IAGOS\server\v18\Source\Source\_AIInterface\Action.h
; File C:\IAGOS\server\v18\Source\Source\_Common\Mover.h
; File C:\IAGOS\server\v18\Source\Source\_AIInterface\AIGuard.cpp
; File C:\IAGOS\server\v18\Source\Source\_Common\Obj.h
; File C:\IAGOS\server\v18\Source\Source\_AIInterface\AIGuard.cpp
;	COMDAT ?MoveProcessIdle@CAIGuard@@AAEHABUAIMSG@@@Z
_TEXT	SEGMENT
_msg$ = 8						; size = 4
?MoveProcessIdle@CAIGuard@@AAEHABUAIMSG@@@Z PROC	; CAIGuard::MoveProcessIdle, COMDAT
; _this$ = ecx

; 77   : {

  00000	56		 push	 esi
  00001	8b f1		 mov	 esi, ecx
; File C:\IAGOS\server\v18\Source\Source\_Common\Project.h

; 1406 : 	VERIFY_RANGE( nIndex, 0, m_nMoverPropSize, "GetMoverProp range_error", NULL );

  00003	8b 0d b4 01 00
	00		 mov	 ecx, DWORD PTR ?prj@@3VCProject@@A+436
; File C:\IAGOS\server\v18\Source\Source\_AIInterface\AIGuard.cpp

; 77   : {

  00009	57		 push	 edi

; 78   : 	CMover* pMover = GetMover();

  0000a	8b 7e 30	 mov	 edi, DWORD PTR [esi+48]
; File C:\IAGOS\server\v18\Source\Source\_Common\Mover.h

; 1020 : 	MoverProp*		GetProp() { return prj.GetMoverProp( m_dwIndex ); }	// АДУМРЧ ЧСЗЮЦлЦМ ОђБт 	

  0000d	8b 87 74 01 00
	00		 mov	 eax, DWORD PTR [edi+372]
; File C:\IAGOS\server\v18\Source\Source\_Common\Project.h

; 1406 : 	VERIFY_RANGE( nIndex, 0, m_nMoverPropSize, "GetMoverProp range_error", NULL );

  00013	85 c0		 test	 eax, eax
  00015	78 04		 js	 SHORT $LN21@MoveProces
  00017	3b c1		 cmp	 eax, ecx
  00019	7c 16		 jl	 SHORT $LN16@MoveProces
$LN21@MoveProces:

; 579  : 	LPCTSTR szErr = Error( _T( "%s min:%d, max:%d, index:%d" ), szMsg, nMin, nMax, nIndex ); 

  0001b	50		 push	 eax
  0001c	51		 push	 ecx
  0001d	6a 00		 push	 0
  0001f	68 00 00 00 00	 push	 OFFSET ??_C@_0BJ@GKPOBPPI@GetMoverProp?5range_error@
  00024	68 00 00 00 00	 push	 OFFSET ??_C@_0BM@HMFGHCP@?$CFs?5min?3?$CFd?0?5max?3?$CFd?0?5index?3?$CFd@
  00029	e8 00 00 00 00	 call	 ?Error@@YAPBDPBDZZ	; Error
  0002e	83 c4 14	 add	 esp, 20			; 00000014H
$LN16@MoveProces:
; File C:\IAGOS\server\v18\Source\Source\_AIInterface\Action.h

; 310  : 	BOOL			IsDie() { return (m_dwState & OBJSTA_DIE_ALL) ? TRUE : FALSE; }

  00031	8b 87 38 02 00
	00		 mov	 eax, DWORD PTR [edi+568]
  00037	8b 40 04	 mov	 eax, DWORD PTR [eax+4]
; File C:\IAGOS\server\v18\Source\Source\_Common\Mover.h

; 1250 : 	BOOL			IsDie() { return m_pActMover->IsDie() || m_nHitPoint == 0; }

  0003a	a9 00 00 00 08	 test	 eax, 134217728		; 08000000H
  0003f	0f 85 07 01 00
	00		 jne	 $LN3@MoveProces
  00045	83 bf f8 05 00
	00 00		 cmp	 DWORD PTR [edi+1528], 0
  0004c	0f 84 fa 00 00
	00		 je	 $LN3@MoveProces
; File C:\IAGOS\server\v18\Source\Source\_AIInterface\AIGuard.cpp

; 83   : 	if( pMover->IsDie() || (pMover->m_pActMover->GetState() & OBJSTA_DMG_FLY_ALL) )

  00052	a9 00 00 00 02	 test	 eax, 33554432		; 02000000H
  00057	0f 85 ef 00 00
	00		 jne	 $LN3@MoveProces

; 85   : 
; 86   : /*
; 87   : 	if( РЬЕПАцЗЮ РжДТАЁ? )
; 88   : 	{
; 89   : 		КёНКЦЎЛѓРЧ РЬЕПАцЗЮ ГыЕхИІ ЕћЖѓМ­ РЬЕПРЛ НУХД(ИЖРЛ МјТћ)
; 90   : 	} else
; 91   : 		ЧіРч РкИЎПЁМ­ ДыБт;
; 92   : */
; 93   : 
; 94   : 	{
; 95   : 		// ЗчЦУПЩМЧРЬ РжДТ ИїРЬДй.
; 96   : /*		if( pProp->m_nLoot )
; 97   : 		{
; 98   : 			if( (pMover->GetCount() & 63) == 0 )		// АЁВћОП СжКЏРЛ НКФЕЧиМ­.(63РЬИщ Ор 4.2УЪ)
; 99   : 			{	
; 100  : 				if( pProp->m_nLootProb == 0 || xRandom(100) < pProp->m_nLootProb  )	// Е№ЦњЦЎАЊ(0)РК 100% / РЬАХГЊ ЗчЦУШЎЗќПЁ ЕщОюАЁИщ ЗчЦУНУЕЕ
; 101  : 					if( m_bLootMove == FALSE )		// ЗчЦУЧЯЗЏ АЁАэ РжРЛЖЇ ЖЧ УМХЉЧЯИщ ОШ
; 102  : 						SubItemLoot();		// ОЦРЬХлРЛ ЗчЦУЧд.
; 103  : 			}
; 104  : 		}
; 105  : 
; 106  : 		if( m_bLootMove == TRUE )
; 107  : 		{
; 108  : 			CCtrl *pCtrl = prj.GetCtrl( m_idLootItem );		// БзОЦРЬХлРЬ ЛчЖѓСГРЛМі РжРИДЯБю АЫЛчЧд.
; 109  : 			if( IsInvalidObj(pCtrl) )		// ОЦРЬХл С§РИЗЏ РЬЕПСпПЁ ОЦХлРЬ ОјОюСіИщ
; 110  : 			{
; 111  : 				MoveToDst( pMover->GetPos() );	// СІРкИЎПЁ МЖ.
; 112  : 			}
; 113  : 		} */
; 114  : 
; 115  : 		// МБАјМгМКРЬИщ СжКЏРЛ ДУ АЈНУЧбДй.
; 116  : 		if( GetMover()->m_bActiveAttack )

  0005d	8b 46 30	 mov	 eax, DWORD PTR [esi+48]
  00060	53		 push	 ebx
  00061	83 b8 68 06 00
	00 00		 cmp	 DWORD PTR [eax+1640], 0
  00068	0f 84 d3 00 00
	00		 je	 $LN10@MoveProces

; 117  : 		{
; 118  : 			int nAttackFirstRange = pMover->GetProp()->m_nAttackFirstRange;

  0006e	8b cf		 mov	 ecx, edi
  00070	e8 00 00 00 00	 call	 ?GetPropA@CMover@@QAEPAUMoverProp@@XZ ; CMover::GetPropA

; 119  : 
; 120  : #if __VER >= 18
; 121  : 			if( pMover->GetProp()->m_nAttackFirstRange > 60 || pMover->GetProp()->m_nAttackFirstRange <= 0 )

  00075	8b cf		 mov	 ecx, edi
  00077	0f bf 98 86 02
	00 00		 movsx	 ebx, WORD PTR [eax+646]
  0007e	e8 00 00 00 00	 call	 ?GetPropA@CMover@@QAEPAUMoverProp@@XZ ; CMover::GetPropA
  00083	66 83 b8 86 02
	00 00 3c	 cmp	 WORD PTR [eax+646], 60	; 0000003cH
  0008b	0f 8f 8a 00 00
	00		 jg	 $LN6@MoveProces
  00091	8b cf		 mov	 ecx, edi
  00093	e8 00 00 00 00	 call	 ?GetPropA@CMover@@QAEPAUMoverProp@@XZ ; CMover::GetPropA
  00098	66 83 b8 86 02
	00 00 00	 cmp	 WORD PTR [eax+646], 0
  000a0	7e 79		 jle	 SHORT $LN6@MoveProces

; 128  : 			}
; 129  : 
; 130  : 			MoverProp *pProp = GetMover()->GetProp();

  000a2	8b 4e 30	 mov	 ecx, DWORD PTR [esi+48]
  000a5	e8 00 00 00 00	 call	 ?GetPropA@CMover@@QAEPAUMoverProp@@XZ ; CMover::GetPropA

; 131  : 			CMover* pTarget = ScanTarget( pMover, nAttackFirstRange, pProp->m_nScanJob );		// РкБт ФЋИЃИЖПЭ ЙнДыЕЧДТ РЏРњ АЫЛіБтДЩРЛ УпАЁ.

  000aa	6a 00		 push	 0
  000ac	6a 00		 push	 0
  000ae	6a 00		 push	 0
  000b0	ff b0 dc 01 00
	00		 push	 DWORD PTR [eax+476]
  000b6	8b ce		 mov	 ecx, esi
  000b8	53		 push	 ebx
  000b9	57		 push	 edi
  000ba	e8 00 00 00 00	 call	 ?ScanTarget@CAIInterface@@IAEPAVCMover@@PAVCObj@@HHKKH@Z ; CAIInterface::ScanTarget
  000bf	8b c8		 mov	 ecx, eax
; File C:\IAGOS\server\v18\Source\Source\_Common\Obj.h

; 327  : 	return pObj && ( pObj->IsDelete() == FALSE ); 

  000c1	85 c9		 test	 ecx, ecx
  000c3	74 7c		 je	 SHORT $LN10@MoveProces

; 180  : 	BOOL			IsDelete()	{ return (m_dwFlags & OBJ_FLAG_DELETE);  }

  000c5	f6 41 04 01	 test	 BYTE PTR [ecx+4], 1

; 327  : 	return pObj && ( pObj->IsDelete() == FALSE ); 

  000c9	75 76		 jne	 SHORT $LN10@MoveProces
; File C:\IAGOS\server\v18\Source\Source\_AIInterface\AIGuard.cpp

; 135  : 				if( pMover->IsFlyingNPC() || pTarget->m_pActMover->IsFly() == FALSE )	

  000cb	f7 87 3c 02 00
	00 00 00 01 00	 test	 DWORD PTR [edi+572], 65536 ; 00010000H
  000d5	75 0c		 jne	 SHORT $LN9@MoveProces
  000d7	8b 81 38 02 00
	00		 mov	 eax, DWORD PTR [ecx+568]
  000dd	f6 40 08 08	 test	 BYTE PTR [eax+8], 8
  000e1	75 5e		 jne	 SHORT $LN10@MoveProces
$LN9@MoveProces:

; 136  : 				{
; 137  : 					m_dwIdTarget = pTarget->GetId();

  000e3	8b 81 bc 01 00
	00		 mov	 eax, DWORD PTR [ecx+444]
  000e9	89 86 d8 00 00
	00		 mov	 DWORD PTR [esi+216], eax

; 138  : 					// ХИАйРЬ СИРчЧЯИщ УпРћ И№ЕхЗЮ КЏАц 
; 139  : 					if( m_dwIdTarget != NULL_ID )	

  000ef	83 f8 ff	 cmp	 eax, -1
  000f2	74 4d		 je	 SHORT $LN10@MoveProces

; 140  : 					{
; 141  : 						g_UserMng.AddDlgEmoticon( pMover, DLGEMOT_ATTACK );

  000f4	6a 00		 push	 0
  000f6	57		 push	 edi
  000f7	b9 00 00 00 00	 mov	 ecx, OFFSET ?g_UserMng@@3VCUserMng@@A ; g_UserMng
  000fc	e8 00 00 00 00	 call	 ?AddDlgEmoticon@CUserMng@@QAEXPAVCCtrl@@H@Z ; CUserMng::AddDlgEmoticon

; 142  : 						SendAIMsg( AIMSG_SETSTATE, STATE_RAGE, NULL_ID );

  00101	8b 06		 mov	 eax, DWORD PTR [esi]
  00103	8b ce		 mov	 ecx, esi
  00105	6a 00		 push	 0
  00107	6a ff		 push	 -1
  00109	6a 07		 push	 7
  0010b	6a 04		 push	 4
  0010d	ff 50 0c	 call	 DWORD PTR [eax+12]
  00110	5b		 pop	 ebx
  00111	5f		 pop	 edi
  00112	b8 01 00 00 00	 mov	 eax, 1

; 143  : 					}
; 144  : 				}
; 145  : 			}
; 146  : 		}
; 147  : 	}
; 148  : 	return TRUE;
; 149  : }

  00117	5e		 pop	 esi
  00118	c2 04 00	 ret	 4
$LN6@MoveProces:

; 122  : #else
; 123  : 			if( pMover->GetProp()->m_nAttackFirstRange > 10 || pMover->GetProp()->m_nAttackFirstRange <= 0 )
; 124  : #endif
; 125  : 			{
; 126  : 				Error( "m_nAttackFirstRange РЬЛѓ:%d %s\n", pMover->GetProp()->m_nAttackFirstRange, pMover->GetName() );

  0011b	8b cf		 mov	 ecx, edi
  0011d	e8 00 00 00 00	 call	 ?GetPropA@CMover@@QAEPAUMoverProp@@XZ ; CMover::GetPropA
  00122	6a 00		 push	 0
  00124	8b cf		 mov	 ecx, edi
  00126	0f bf b0 86 02
	00 00		 movsx	 esi, WORD PTR [eax+646]
  0012d	e8 00 00 00 00	 call	 ?GetName@CMover@@QAEPBDH@Z ; CMover::GetName
  00132	50		 push	 eax
  00133	56		 push	 esi
  00134	68 00 00 00 00	 push	 OFFSET ??_C@_0CA@GLBIGGGO@m_nAttackFirstRange?5?$MA?L?$LL?s?3?$CFd?5?$CFs?6@
  00139	e8 00 00 00 00	 call	 ?Error@@YAPBDPBDZZ	; Error
  0013e	83 c4 0c	 add	 esp, 12			; 0000000cH
$LN10@MoveProces:

; 127  : 				return TRUE;

  00141	5b		 pop	 ebx
  00142	5f		 pop	 edi
  00143	b8 01 00 00 00	 mov	 eax, 1

; 143  : 					}
; 144  : 				}
; 145  : 			}
; 146  : 		}
; 147  : 	}
; 148  : 	return TRUE;
; 149  : }

  00148	5e		 pop	 esi
  00149	c2 04 00	 ret	 4
$LN3@MoveProces:
  0014c	5f		 pop	 edi

; 84   : 		return FALSE;

  0014d	33 c0		 xor	 eax, eax

; 143  : 					}
; 144  : 				}
; 145  : 			}
; 146  : 		}
; 147  : 	}
; 148  : 	return TRUE;
; 149  : }

  0014f	5e		 pop	 esi
  00150	c2 04 00	 ret	 4
?MoveProcessIdle@CAIGuard@@AAEHABUAIMSG@@@Z ENDP	; CAIGuard::MoveProcessIdle
_TEXT	ENDS
; Function compile flags: /Ogtp
; File C:\IAGOS\server\v18\Source\Source\_AIInterface\AIMonster.h
;	COMDAT ?IsReturnToBegin@CAIMonster@@UAEHXZ
_TEXT	SEGMENT
?IsReturnToBegin@CAIMonster@@UAEHXZ PROC		; CAIMonster::IsReturnToBegin, COMDAT
; _this$ = ecx

; 88   : 	virtual	BOOL	IsReturnToBegin( void )		{	return m_bReturnToBegin;	}

  00000	8b 81 bc 00 00
	00		 mov	 eax, DWORD PTR [ecx+188]
  00006	c3		 ret	 0
?IsReturnToBegin@CAIMonster@@UAEHXZ ENDP		; CAIMonster::IsReturnToBegin
_TEXT	ENDS
; Function compile flags: /Ogtp
; File C:\IAGOS\server\v18\Source\Source\_Common\Mover.h
; File C:\IAGOS\server\v18\Source\Source\_Common\Project.h
; File C:\IAGOS\server\v18\Source\Source\_Common\Mover.h
; File C:\IAGOS\server\v18\Source\Source\_Common\Project.h
; File C:\IAGOS\server\v18\Source\Source\_Common\Mover.h
;	COMDAT ?GetPropA@CMover@@QAEPAUMoverProp@@XZ
_TEXT	SEGMENT
?GetPropA@CMover@@QAEPAUMoverProp@@XZ PROC		; CMover::GetPropA, COMDAT
; _this$ = ecx

; 1020 : 	MoverProp*		GetProp() { return prj.GetMoverProp( m_dwIndex ); }	// АДУМРЧ ЧСЗЮЦлЦМ ОђБт 	

  00000	8b 81 74 01 00
	00		 mov	 eax, DWORD PTR [ecx+372]
; File C:\IAGOS\server\v18\Source\Source\_Common\Project.h

; 1406 : 	VERIFY_RANGE( nIndex, 0, m_nMoverPropSize, "GetMoverProp range_error", NULL );

  00006	8b 0d b4 01 00
	00		 mov	 ecx, DWORD PTR ?prj@@3VCProject@@A+436
  0000c	85 c0		 test	 eax, eax
  0000e	78 11		 js	 SHORT $LN8@GetPropA
  00010	3b c1		 cmp	 eax, ecx
  00012	7d 0d		 jge	 SHORT $LN8@GetPropA

; 1407 : 	return m_pPropMover + nIndex;

  00014	69 c0 90 06 00
	00		 imul	 eax, eax, 1680
  0001a	03 05 b8 01 00
	00		 add	 eax, DWORD PTR ?prj@@3VCProject@@A+440
; File C:\IAGOS\server\v18\Source\Source\_Common\Mover.h

; 1020 : 	MoverProp*		GetProp() { return prj.GetMoverProp( m_dwIndex ); }	// АДУМРЧ ЧСЗЮЦлЦМ ОђБт 	

  00020	c3		 ret	 0
$LN8@GetPropA:
; File C:\IAGOS\server\v18\Source\Source\_Common\Project.h

; 579  : 	LPCTSTR szErr = Error( _T( "%s min:%d, max:%d, index:%d" ), szMsg, nMin, nMax, nIndex ); 

  00021	50		 push	 eax
  00022	51		 push	 ecx
  00023	6a 00		 push	 0
  00025	68 00 00 00 00	 push	 OFFSET ??_C@_0BJ@GKPOBPPI@GetMoverProp?5range_error@
  0002a	68 00 00 00 00	 push	 OFFSET ??_C@_0BM@HMFGHCP@?$CFs?5min?3?$CFd?0?5max?3?$CFd?0?5index?3?$CFd@
  0002f	e8 00 00 00 00	 call	 ?Error@@YAPBDPBDZZ	; Error
  00034	83 c4 14	 add	 esp, 20			; 00000014H
; File C:\IAGOS\server\v18\Source\Source\_Common\Mover.h

; 1020 : 	MoverProp*		GetProp() { return prj.GetMoverProp( m_dwIndex ); }	// АДУМРЧ ЧСЗЮЦлЦМ ОђБт 	

  00037	33 c0		 xor	 eax, eax
  00039	c3		 ret	 0
?GetPropA@CMover@@QAEPAUMoverProp@@XZ ENDP		; CMover::GetPropA
_TEXT	ENDS
; Function compile flags: /Ogtp
; File C:\IAGOS\server\v18\Source\Source\_AIInterface\AIGuard.cpp
;	COMDAT ?__empty_global_delete@@YAXPAXI@Z
_TEXT	SEGMENT
___formal$ = 8						; size = 4
___formal$ = 12						; size = 4
?__empty_global_delete@@YAXPAXI@Z PROC			; __empty_global_delete, COMDAT

  00000	c2 00 00	 ret	 0
?__empty_global_delete@@YAXPAXI@Z ENDP			; __empty_global_delete
_TEXT	ENDS
; Function compile flags: /Ogtp
; File C:\IAGOS\server\v18\Source\Source\_AIInterface\AIGuard.cpp
;	COMDAT ?__empty_global_delete@@YAXPAX@Z
_TEXT	SEGMENT
___formal$ = 8						; size = 4
?__empty_global_delete@@YAXPAX@Z PROC			; __empty_global_delete, COMDAT

  00000	c2 00 00	 ret	 0
?__empty_global_delete@@YAXPAX@Z ENDP			; __empty_global_delete
_TEXT	ENDS
END
