; Listing generated by Microsoft (R) Optimizing Compiler Version 19.44.35225.0 

	TITLE	C:\IAGOS\server\v18\Source\Output\WorldServer\Release\aiinterface.obj
	.686P
	.XMM
	include listing.inc
	.model	flat

INCLUDELIB LIBCMT
INCLUDELIB OLDNAMES

PUBLIC	?stateMap@CAIInterface@@2USTATEMAP@@B		; CAIInterface::stateMap
CONST	SEGMENT
?stateMap@CAIInterface@@2USTATEMAP@@B DD FLAT:?stateMap@CAIInterface@@2USTATEMAP@@B ; CAIInterface::stateMap
	DD	FLAT:?stateMapEntries@CAIInterface@@2QBUSTATEMAP_ENTRIES@@B
?piecewise_construct@std@@3Upiecewise_construct_t@1@B	ORG $+1 ; std::piecewise_construct
CONST	ENDS
PUBLIC	?__empty_global_delete@@YAXPAX@Z		; __empty_global_delete
PUBLIC	?__empty_global_delete@@YAXPAXI@Z		; __empty_global_delete
PUBLIC	??0exception@std@@QAE@ABV01@@Z			; std::exception::exception
PUBLIC	??1exception@std@@UAE@XZ			; std::exception::~exception
PUBLIC	?what@exception@std@@UBEPBDXZ			; std::exception::what
PUBLIC	??_Gexception@std@@UAEPAXI@Z			; std::exception::`scalar deleting destructor'
PUBLIC	??0bad_alloc@std@@QAE@ABV01@@Z			; std::bad_alloc::bad_alloc
PUBLIC	??_Gbad_alloc@std@@UAEPAXI@Z			; std::bad_alloc::`scalar deleting destructor'
PUBLIC	??0bad_array_new_length@std@@QAE@XZ		; std::bad_array_new_length::bad_array_new_length
PUBLIC	??1bad_array_new_length@std@@UAE@XZ		; std::bad_array_new_length::~bad_array_new_length
PUBLIC	??0bad_array_new_length@std@@QAE@ABV01@@Z	; std::bad_array_new_length::bad_array_new_length
PUBLIC	??_Gbad_array_new_length@std@@UAEPAXI@Z		; std::bad_array_new_length::`scalar deleting destructor'
PUBLIC	?_Throw_bad_array_new_length@std@@YAXXZ		; std::_Throw_bad_array_new_length
PUBLIC	??0D3DXVECTOR3@@QAE@XZ				; D3DXVECTOR3::D3DXVECTOR3
PUBLIC	?GetAIStateFunc@CAIInterface@@AAEP81@AEHABUAIMSG@@@ZK@Z ; CAIInterface::GetAIStateFunc
PUBLIC	?deallocate@?$allocator@PAUAIMSG@@@std@@QAEXQAPAUAIMSG@@I@Z ; std::allocator<AIMSG *>::deallocate
PUBLIC	??1?$deque@UAIMSG@@V?$allocator@UAIMSG@@@std@@@std@@QAE@XZ ; std::deque<AIMSG,std::allocator<AIMSG> >::~deque<AIMSG,std::allocator<AIMSG> >
PUBLIC	?_Xlen@?$deque@UAIMSG@@V?$allocator@UAIMSG@@@std@@@std@@CAXXZ ; std::deque<AIMSG,std::allocator<AIMSG> >::_Xlen
PUBLIC	?_Growmap@?$deque@UAIMSG@@V?$allocator@UAIMSG@@@std@@@std@@AAEXI@Z ; std::deque<AIMSG,std::allocator<AIMSG> >::_Growmap
PUBLIC	?GetStateMap@CAIInterface@@UBEPBUSTATEMAP@@XZ	; CAIInterface::GetStateMap
PUBLIC	??0CAIInterface@@QAE@XZ				; CAIInterface::CAIInterface
PUBLIC	??0CAIInterface@@QAE@PAVCObj@@@Z		; CAIInterface::CAIInterface
PUBLIC	??1CAIInterface@@UAE@XZ				; CAIInterface::~CAIInterface
PUBLIC	?RouteMessage@CAIInterface@@UAEXXZ		; CAIInterface::RouteMessage
PUBLIC	?SendAIMsg@CAIInterface@@UAEXKKKK@Z		; CAIInterface::SendAIMsg
PUBLIC	?PostAIMsg@CAIInterface@@UAEXKKKK@Z		; CAIInterface::PostAIMsg
PUBLIC	?InitAI@CAIInterface@@UAEXXZ			; CAIInterface::InitAI
PUBLIC	?IsReturnToBegin@CAIInterface@@UAEHXZ		; CAIInterface::IsReturnToBegin
PUBLIC	?ScanTarget@CAIInterface@@IAEPAVCMover@@PAVCObj@@HHKKH@Z ; CAIInterface::ScanTarget
PUBLIC	?ScanTargetStrong@CAIInterface@@IAEPAVCMover@@PAVCObj@@M@Z ; CAIInterface::ScanTargetStrong
PUBLIC	?ScanTargetOverHealer@CAIInterface@@IAEPAVCMover@@PAVCObj@@M@Z ; CAIInterface::ScanTargetOverHealer
PUBLIC	?ScanTargetNext@CAIInterface@@IAEPAVCMover@@PAVCObj@@HKK@Z ; CAIInterface::ScanTargetNext
PUBLIC	??_GCAIInterface@@UAEPAXI@Z			; CAIInterface::`scalar deleting destructor'
PUBLIC	??$_Allocate_manually_vector_aligned@U_Default_allocate_traits@std@@@std@@YAPAXI@Z ; std::_Allocate_manually_vector_aligned<std::_Default_allocate_traits>
PUBLIC	??$uninitialized_copy@PAPAUAIMSG@@PAPAU1@@std@@YAPAPAUAIMSG@@QAPAU1@0PAPAU1@@Z ; std::uninitialized_copy<AIMSG * *,AIMSG * *>
PUBLIC	??$_Uninitialized_value_construct_n_unchecked1@PAPAUAIMSG@@I@std@@YAPAPAUAIMSG@@PAPAU1@I@Z ; std::_Uninitialized_value_construct_n_unchecked1<AIMSG * *,unsigned int>
PUBLIC	??$_Uninitialized_copy_unchecked@PAPAUAIMSG@@PAPAU1@@std@@YAPAPAUAIMSG@@PAPAU1@QAPAU1@0@Z ; std::_Uninitialized_copy_unchecked<AIMSG * *,AIMSG * *>
PUBLIC	??$_Zero_range@PAPAUAIMSG@@@std@@YAPAPAUAIMSG@@QAPAU1@0@Z ; std::_Zero_range<AIMSG * *>
PUBLIC	??$_Copy_memmove@PAPAUAIMSG@@PAPAU1@@std@@YAPAPAUAIMSG@@PAPAU1@00@Z ; std::_Copy_memmove<AIMSG * *,AIMSG * *>
PUBLIC	??$_Copy_memmove_tail@PAPAUAIMSG@@@std@@YAPAPAUAIMSG@@QBDQAPAU1@II@Z ; std::_Copy_memmove_tail<AIMSG * *>
PUBLIC	??$_Construct_in_place_by_deref@PAUAIMSG@@PAPAU1@@std@@YAXAAPAUAIMSG@@AAPAPAU1@@Z ; std::_Construct_in_place_by_deref<AIMSG *,AIMSG * *>
PUBLIC	??_7exception@std@@6B@				; std::exception::`vftable'
PUBLIC	??_C@_0BC@EOODALEL@Unknown?5exception@		; `string'
PUBLIC	??_7bad_alloc@std@@6B@				; std::bad_alloc::`vftable'
PUBLIC	??_7bad_array_new_length@std@@6B@		; std::bad_array_new_length::`vftable'
PUBLIC	??_C@_0BF@KINCDENJ@bad?5array?5new?5length@	; `string'
PUBLIC	??_R0?AVexception@std@@@8			; std::exception `RTTI Type Descriptor'
PUBLIC	__CT??_R0?AVexception@std@@@8??0exception@std@@QAE@ABV01@@Z12
PUBLIC	__TI3?AVbad_array_new_length@std@@
PUBLIC	__CTA3?AVbad_array_new_length@std@@
PUBLIC	??_R0?AVbad_array_new_length@std@@@8		; std::bad_array_new_length `RTTI Type Descriptor'
PUBLIC	__CT??_R0?AVbad_array_new_length@std@@@8??0bad_array_new_length@std@@QAE@ABV01@@Z12
PUBLIC	??_R0?AVbad_alloc@std@@@8			; std::bad_alloc `RTTI Type Descriptor'
PUBLIC	__CT??_R0?AVbad_alloc@std@@@8??0bad_alloc@std@@QAE@ABV01@@Z12
PUBLIC	??_C@_0BM@HMFGHCP@?$CFs?5min?3?$CFd?0?5max?3?$CFd?0?5index?3?$CFd@ ; `string'
PUBLIC	??_C@_0BJ@GKPOBPPI@GetMoverProp?5range_error@	; `string'
PUBLIC	?stateMapEntries@CAIInterface@@2QBUSTATEMAP_ENTRIES@@B ; CAIInterface::stateMapEntries
PUBLIC	??_7CAIInterface@@6B@				; CAIInterface::`vftable'
PUBLIC	??_R4exception@std@@6B@				; std::exception::`RTTI Complete Object Locator'
PUBLIC	??_R3exception@std@@8				; std::exception::`RTTI Class Hierarchy Descriptor'
PUBLIC	??_R2exception@std@@8				; std::exception::`RTTI Base Class Array'
PUBLIC	??_R1A@?0A@EA@exception@std@@8			; std::exception::`RTTI Base Class Descriptor at (0,-1,0,64)'
PUBLIC	??_R4bad_array_new_length@std@@6B@		; std::bad_array_new_length::`RTTI Complete Object Locator'
PUBLIC	??_R3bad_array_new_length@std@@8		; std::bad_array_new_length::`RTTI Class Hierarchy Descriptor'
PUBLIC	??_R2bad_array_new_length@std@@8		; std::bad_array_new_length::`RTTI Base Class Array'
PUBLIC	??_R1A@?0A@EA@bad_array_new_length@std@@8	; std::bad_array_new_length::`RTTI Base Class Descriptor at (0,-1,0,64)'
PUBLIC	??_R1A@?0A@EA@bad_alloc@std@@8			; std::bad_alloc::`RTTI Base Class Descriptor at (0,-1,0,64)'
PUBLIC	??_R3bad_alloc@std@@8				; std::bad_alloc::`RTTI Class Hierarchy Descriptor'
PUBLIC	??_R2bad_alloc@std@@8				; std::bad_alloc::`RTTI Base Class Array'
PUBLIC	??_R4bad_alloc@std@@6B@				; std::bad_alloc::`RTTI Complete Object Locator'
PUBLIC	??_C@_0BC@KBDMBKEH@deque?$DMT?$DO?5too?5long@	; `string'
PUBLIC	??_R4CAIInterface@@6B@				; CAIInterface::`RTTI Complete Object Locator'
PUBLIC	??_R0?AVCAIInterface@@@8			; CAIInterface `RTTI Type Descriptor'
PUBLIC	??_R3CAIInterface@@8				; CAIInterface::`RTTI Class Hierarchy Descriptor'
PUBLIC	??_R2CAIInterface@@8				; CAIInterface::`RTTI Base Class Array'
PUBLIC	??_R1A@?0A@EA@CAIInterface@@8			; CAIInterface::`RTTI Base Class Descriptor at (0,-1,0,64)'
EXTRN	??2@YAPAXI@Z:PROC				; operator new
EXTRN	??3@YAXPAXI@Z:PROC				; operator delete
EXTRN	__invoke_watson:PROC
EXTRN	___std_exception_copy:PROC
EXTRN	___std_exception_destroy:PROC
EXTRN	??_Eexception@std@@UAEPAXI@Z:PROC		; std::exception::`vector deleting destructor'
EXTRN	??_Ebad_alloc@std@@UAEPAXI@Z:PROC		; std::bad_alloc::`vector deleting destructor'
EXTRN	??_Ebad_array_new_length@std@@UAEPAXI@Z:PROC	; std::bad_array_new_length::`vector deleting destructor'
EXTRN	?_Xlength_error@std@@YAXPBD@Z:PROC		; std::_Xlength_error
EXTRN	?Error@@YAPBDPBDZZ:PROC				; Error
EXTRN	??_ECAIInterface@@UAEPAXI@Z:PROC		; CAIInterface::`vector deleting destructor'
EXTRN	?HasBuffByIk3@CMover@@QAEHK@Z:PROC		; CMover::HasBuffByIk3
EXTRN	?GetQuest@CMover@@QAEPAUtagQuest@@H@Z:PROC	; CMover::GetQuest
EXTRN	?GetAdjParam@CMover@@QAEHH@Z:PROC		; CMover::GetAdjParam
EXTRN	?GetJob@CMover@@QAEHXZ:PROC			; CMover::GetJob
EXTRN	?GetItemNum@CMover@@QAEHK@Z:PROC		; CMover::GetItemNum
EXTRN	?GetLinkWidth@CLayeredLinkMap@@QAEHKHH@Z:PROC	; CLayeredLinkMap::GetLinkWidth
EXTRN	?GetObj@CLayeredLinkMap@@QAEPAPAVCObj@@KKH@Z:PROC ; CLayeredLinkMap::GetObj
EXTRN	?GetMaxLinkLevel@CLayeredLinkMap@@QAEHKH@Z:PROC	; CLayeredLinkMap::GetMaxLinkLevel
EXTRN	@__security_check_cookie@4:PROC
EXTRN	__CxxThrowException@8:PROC
EXTRN	_memmove:PROC
EXTRN	_memset:PROC
EXTRN	??_7type_info@@6B@:QWORD			; type_info::`vftable'
EXTRN	?OLD_MPU@@3HB:DWORD				; OLD_MPU
EXTRN	?prj@@3VCProject@@A:BYTE			; prj
EXTRN	___security_cookie:DWORD
EXTRN	__fltused:DWORD
;	COMDAT ??_R1A@?0A@EA@CAIInterface@@8
rdata$r	SEGMENT
??_R1A@?0A@EA@CAIInterface@@8 DD FLAT:??_R0?AVCAIInterface@@@8 ; CAIInterface::`RTTI Base Class Descriptor at (0,-1,0,64)'
	DD	00H
	DD	00H
	DD	0ffffffffH
	DD	00H
	DD	040H
	DD	FLAT:??_R3CAIInterface@@8
rdata$r	ENDS
;	COMDAT ??_R2CAIInterface@@8
rdata$r	SEGMENT
??_R2CAIInterface@@8 DD FLAT:??_R1A@?0A@EA@CAIInterface@@8 ; CAIInterface::`RTTI Base Class Array'
rdata$r	ENDS
;	COMDAT ??_R3CAIInterface@@8
rdata$r	SEGMENT
??_R3CAIInterface@@8 DD 00H				; CAIInterface::`RTTI Class Hierarchy Descriptor'
	DD	00H
	DD	01H
	DD	FLAT:??_R2CAIInterface@@8
rdata$r	ENDS
;	COMDAT ??_R0?AVCAIInterface@@@8
data$rs	SEGMENT
??_R0?AVCAIInterface@@@8 DD FLAT:??_7type_info@@6B@	; CAIInterface `RTTI Type Descriptor'
	DD	00H
	DB	'.?AVCAIInterface@@', 00H
data$rs	ENDS
;	COMDAT ??_R4CAIInterface@@6B@
rdata$r	SEGMENT
??_R4CAIInterface@@6B@ DD 00H				; CAIInterface::`RTTI Complete Object Locator'
	DD	00H
	DD	00H
	DD	FLAT:??_R0?AVCAIInterface@@@8
	DD	FLAT:??_R3CAIInterface@@8
rdata$r	ENDS
;	COMDAT ??_C@_0BC@KBDMBKEH@deque?$DMT?$DO?5too?5long@
CONST	SEGMENT
??_C@_0BC@KBDMBKEH@deque?$DMT?$DO?5too?5long@ DB 'deque<T> too long', 00H ; `string'
CONST	ENDS
;	COMDAT ??_R4bad_alloc@std@@6B@
rdata$r	SEGMENT
??_R4bad_alloc@std@@6B@ DD 00H				; std::bad_alloc::`RTTI Complete Object Locator'
	DD	00H
	DD	00H
	DD	FLAT:??_R0?AVbad_alloc@std@@@8
	DD	FLAT:??_R3bad_alloc@std@@8
rdata$r	ENDS
;	COMDAT ??_R2bad_alloc@std@@8
rdata$r	SEGMENT
??_R2bad_alloc@std@@8 DD FLAT:??_R1A@?0A@EA@bad_alloc@std@@8 ; std::bad_alloc::`RTTI Base Class Array'
	DD	FLAT:??_R1A@?0A@EA@exception@std@@8
rdata$r	ENDS
;	COMDAT ??_R3bad_alloc@std@@8
rdata$r	SEGMENT
??_R3bad_alloc@std@@8 DD 00H				; std::bad_alloc::`RTTI Class Hierarchy Descriptor'
	DD	00H
	DD	02H
	DD	FLAT:??_R2bad_alloc@std@@8
rdata$r	ENDS
;	COMDAT ??_R1A@?0A@EA@bad_alloc@std@@8
rdata$r	SEGMENT
??_R1A@?0A@EA@bad_alloc@std@@8 DD FLAT:??_R0?AVbad_alloc@std@@@8 ; std::bad_alloc::`RTTI Base Class Descriptor at (0,-1,0,64)'
	DD	01H
	DD	00H
	DD	0ffffffffH
	DD	00H
	DD	040H
	DD	FLAT:??_R3bad_alloc@std@@8
rdata$r	ENDS
;	COMDAT ??_R1A@?0A@EA@bad_array_new_length@std@@8
rdata$r	SEGMENT
??_R1A@?0A@EA@bad_array_new_length@std@@8 DD FLAT:??_R0?AVbad_array_new_length@std@@@8 ; std::bad_array_new_length::`RTTI Base Class Descriptor at (0,-1,0,64)'
	DD	02H
	DD	00H
	DD	0ffffffffH
	DD	00H
	DD	040H
	DD	FLAT:??_R3bad_array_new_length@std@@8
rdata$r	ENDS
;	COMDAT ??_R2bad_array_new_length@std@@8
rdata$r	SEGMENT
??_R2bad_array_new_length@std@@8 DD FLAT:??_R1A@?0A@EA@bad_array_new_length@std@@8 ; std::bad_array_new_length::`RTTI Base Class Array'
	DD	FLAT:??_R1A@?0A@EA@bad_alloc@std@@8
	DD	FLAT:??_R1A@?0A@EA@exception@std@@8
rdata$r	ENDS
;	COMDAT ??_R3bad_array_new_length@std@@8
rdata$r	SEGMENT
??_R3bad_array_new_length@std@@8 DD 00H			; std::bad_array_new_length::`RTTI Class Hierarchy Descriptor'
	DD	00H
	DD	03H
	DD	FLAT:??_R2bad_array_new_length@std@@8
rdata$r	ENDS
;	COMDAT ??_R4bad_array_new_length@std@@6B@
rdata$r	SEGMENT
??_R4bad_array_new_length@std@@6B@ DD 00H		; std::bad_array_new_length::`RTTI Complete Object Locator'
	DD	00H
	DD	00H
	DD	FLAT:??_R0?AVbad_array_new_length@std@@@8
	DD	FLAT:??_R3bad_array_new_length@std@@8
rdata$r	ENDS
;	COMDAT ??_R1A@?0A@EA@exception@std@@8
rdata$r	SEGMENT
??_R1A@?0A@EA@exception@std@@8 DD FLAT:??_R0?AVexception@std@@@8 ; std::exception::`RTTI Base Class Descriptor at (0,-1,0,64)'
	DD	00H
	DD	00H
	DD	0ffffffffH
	DD	00H
	DD	040H
	DD	FLAT:??_R3exception@std@@8
rdata$r	ENDS
;	COMDAT ??_R2exception@std@@8
rdata$r	SEGMENT
??_R2exception@std@@8 DD FLAT:??_R1A@?0A@EA@exception@std@@8 ; std::exception::`RTTI Base Class Array'
rdata$r	ENDS
;	COMDAT ??_R3exception@std@@8
rdata$r	SEGMENT
??_R3exception@std@@8 DD 00H				; std::exception::`RTTI Class Hierarchy Descriptor'
	DD	00H
	DD	01H
	DD	FLAT:??_R2exception@std@@8
rdata$r	ENDS
;	COMDAT ??_R4exception@std@@6B@
rdata$r	SEGMENT
??_R4exception@std@@6B@ DD 00H				; std::exception::`RTTI Complete Object Locator'
	DD	00H
	DD	00H
	DD	FLAT:??_R0?AVexception@std@@@8
	DD	FLAT:??_R3exception@std@@8
rdata$r	ENDS
;	COMDAT ??_7CAIInterface@@6B@
CONST	SEGMENT
??_7CAIInterface@@6B@ DD FLAT:??_R4CAIInterface@@6B@	; CAIInterface::`vftable'
	DD	FLAT:?GetStateMap@CAIInterface@@UBEPBUSTATEMAP@@XZ
	DD	FLAT:??_ECAIInterface@@UAEPAXI@Z
	DD	FLAT:?RouteMessage@CAIInterface@@UAEXXZ
	DD	FLAT:?SendAIMsg@CAIInterface@@UAEXKKKK@Z
	DD	FLAT:?PostAIMsg@CAIInterface@@UAEXKKKK@Z
	DD	FLAT:?InitAI@CAIInterface@@UAEXXZ
	DD	FLAT:?IsReturnToBegin@CAIInterface@@UAEHXZ
CONST	ENDS
_DATA	SEGMENT
?stateMapEntries@CAIInterface@@2QBUSTATEMAP_ENTRIES@@B DD 00H ; CAIInterface::stateMapEntries
	ORG $+4
	DD	00H
	DD	00H
	DD	00H
	DD	0ffffffffH
_DATA	ENDS
;	COMDAT ??_C@_0BJ@GKPOBPPI@GetMoverProp?5range_error@
CONST	SEGMENT
??_C@_0BJ@GKPOBPPI@GetMoverProp?5range_error@ DB 'GetMoverProp range_erro'
	DB	'r', 00H					; `string'
CONST	ENDS
;	COMDAT ??_C@_0BM@HMFGHCP@?$CFs?5min?3?$CFd?0?5max?3?$CFd?0?5index?3?$CFd@
CONST	SEGMENT
??_C@_0BM@HMFGHCP@?$CFs?5min?3?$CFd?0?5max?3?$CFd?0?5index?3?$CFd@ DB '%s'
	DB	' min:%d, max:%d, index:%d', 00H		; `string'
CONST	ENDS
;	COMDAT __CT??_R0?AVbad_alloc@std@@@8??0bad_alloc@std@@QAE@ABV01@@Z12
xdata$x	SEGMENT
__CT??_R0?AVbad_alloc@std@@@8??0bad_alloc@std@@QAE@ABV01@@Z12 DD 010H
	DD	FLAT:??_R0?AVbad_alloc@std@@@8
	DD	00H
	DD	0ffffffffH
	ORG $+4
	DD	0cH
	DD	FLAT:??0bad_alloc@std@@QAE@ABV01@@Z
xdata$x	ENDS
;	COMDAT ??_R0?AVbad_alloc@std@@@8
data$r	SEGMENT
??_R0?AVbad_alloc@std@@@8 DD FLAT:??_7type_info@@6B@	; std::bad_alloc `RTTI Type Descriptor'
	DD	00H
	DB	'.?AVbad_alloc@std@@', 00H
data$r	ENDS
;	COMDAT __CT??_R0?AVbad_array_new_length@std@@@8??0bad_array_new_length@std@@QAE@ABV01@@Z12
xdata$x	SEGMENT
__CT??_R0?AVbad_array_new_length@std@@@8??0bad_array_new_length@std@@QAE@ABV01@@Z12 DD 00H
	DD	FLAT:??_R0?AVbad_array_new_length@std@@@8
	DD	00H
	DD	0ffffffffH
	ORG $+4
	DD	0cH
	DD	FLAT:??0bad_array_new_length@std@@QAE@ABV01@@Z
xdata$x	ENDS
;	COMDAT ??_R0?AVbad_array_new_length@std@@@8
data$r	SEGMENT
??_R0?AVbad_array_new_length@std@@@8 DD FLAT:??_7type_info@@6B@ ; std::bad_array_new_length `RTTI Type Descriptor'
	DD	00H
	DB	'.?AVbad_array_new_length@std@@', 00H
data$r	ENDS
;	COMDAT __CTA3?AVbad_array_new_length@std@@
xdata$x	SEGMENT
__CTA3?AVbad_array_new_length@std@@ DD 03H
	DD	FLAT:__CT??_R0?AVbad_array_new_length@std@@@8??0bad_array_new_length@std@@QAE@ABV01@@Z12
	DD	FLAT:__CT??_R0?AVbad_alloc@std@@@8??0bad_alloc@std@@QAE@ABV01@@Z12
	DD	FLAT:__CT??_R0?AVexception@std@@@8??0exception@std@@QAE@ABV01@@Z12
xdata$x	ENDS
;	COMDAT __TI3?AVbad_array_new_length@std@@
xdata$x	SEGMENT
__TI3?AVbad_array_new_length@std@@ DD 00H
	DD	FLAT:??1bad_array_new_length@std@@UAE@XZ
	DD	00H
	DD	FLAT:__CTA3?AVbad_array_new_length@std@@
xdata$x	ENDS
;	COMDAT __CT??_R0?AVexception@std@@@8??0exception@std@@QAE@ABV01@@Z12
xdata$x	SEGMENT
__CT??_R0?AVexception@std@@@8??0exception@std@@QAE@ABV01@@Z12 DD 00H
	DD	FLAT:??_R0?AVexception@std@@@8
	DD	00H
	DD	0ffffffffH
	ORG $+4
	DD	0cH
	DD	FLAT:??0exception@std@@QAE@ABV01@@Z
xdata$x	ENDS
;	COMDAT ??_R0?AVexception@std@@@8
data$r	SEGMENT
??_R0?AVexception@std@@@8 DD FLAT:??_7type_info@@6B@	; std::exception `RTTI Type Descriptor'
	DD	00H
	DB	'.?AVexception@std@@', 00H
data$r	ENDS
;	COMDAT ??_C@_0BF@KINCDENJ@bad?5array?5new?5length@
CONST	SEGMENT
??_C@_0BF@KINCDENJ@bad?5array?5new?5length@ DB 'bad array new length', 00H ; `string'
CONST	ENDS
;	COMDAT ??_7bad_array_new_length@std@@6B@
CONST	SEGMENT
??_7bad_array_new_length@std@@6B@ DD FLAT:??_R4bad_array_new_length@std@@6B@ ; std::bad_array_new_length::`vftable'
	DD	FLAT:??_Ebad_array_new_length@std@@UAEPAXI@Z
	DD	FLAT:?what@exception@std@@UBEPBDXZ
CONST	ENDS
;	COMDAT ??_7bad_alloc@std@@6B@
CONST	SEGMENT
??_7bad_alloc@std@@6B@ DD FLAT:??_R4bad_alloc@std@@6B@	; std::bad_alloc::`vftable'
	DD	FLAT:??_Ebad_alloc@std@@UAEPAXI@Z
	DD	FLAT:?what@exception@std@@UBEPBDXZ
CONST	ENDS
;	COMDAT ??_C@_0BC@EOODALEL@Unknown?5exception@
CONST	SEGMENT
??_C@_0BC@EOODALEL@Unknown?5exception@ DB 'Unknown exception', 00H ; `string'
CONST	ENDS
;	COMDAT ??_7exception@std@@6B@
CONST	SEGMENT
??_7exception@std@@6B@ DD FLAT:??_R4exception@std@@6B@	; std::exception::`vftable'
	DD	FLAT:??_Eexception@std@@UAEPAXI@Z
	DD	FLAT:?what@exception@std@@UBEPBDXZ
CONST	ENDS
; Function compile flags: /Ogtp
; File C:\Program Files\Microsoft Visual Studio\2022\Professional\VC\Tools\MSVC\14.44.35207\include\xmemory
;	COMDAT ??$_Construct_in_place_by_deref@PAUAIMSG@@PAPAU1@@std@@YAXAAPAUAIMSG@@AAPAPAU1@@Z
_TEXT	SEGMENT
__Val$ = 8						; size = 4
__Iter$ = 12						; size = 4
??$_Construct_in_place_by_deref@PAUAIMSG@@PAPAU1@@std@@YAXAAPAUAIMSG@@AAPAPAU1@@Z PROC ; std::_Construct_in_place_by_deref<AIMSG *,AIMSG * *>, COMDAT

; 1610 :     noexcept(noexcept(::new (static_cast<void*>(_STD addressof(_Val))) _Ty(*_Iter))) {

  00000	55		 push	 ebp
  00001	8b ec		 mov	 ebp, esp

; 1611 :     ::new (static_cast<void*>(_STD addressof(_Val))) _Ty(*_Iter);

  00003	8b 45 0c	 mov	 eax, DWORD PTR __Iter$[ebp]
  00006	8b 00		 mov	 eax, DWORD PTR [eax]
  00008	8b 08		 mov	 ecx, DWORD PTR [eax]
  0000a	8b 45 08	 mov	 eax, DWORD PTR __Val$[ebp]
  0000d	89 08		 mov	 DWORD PTR [eax], ecx

; 1612 : }

  0000f	5d		 pop	 ebp
  00010	c3		 ret	 0
??$_Construct_in_place_by_deref@PAUAIMSG@@PAPAU1@@std@@YAXAAPAUAIMSG@@AAPAPAU1@@Z ENDP ; std::_Construct_in_place_by_deref<AIMSG *,AIMSG * *>
_TEXT	ENDS
; Function compile flags: /Ogtp
; File C:\Program Files\Microsoft Visual Studio\2022\Professional\VC\Tools\MSVC\14.44.35207\include\xutility
;	COMDAT ??$_Copy_memmove_tail@PAPAUAIMSG@@@std@@YAPAPAUAIMSG@@QBDQAPAU1@II@Z
_TEXT	SEGMENT
__First_ch$ = 8						; size = 4
__Dest$ = 12						; size = 4
__Byte_count$ = 16					; size = 4
__Object_count$ = 20					; size = 4
??$_Copy_memmove_tail@PAPAUAIMSG@@@std@@YAPAPAUAIMSG@@QBDQAPAU1@II@Z PROC ; std::_Copy_memmove_tail<AIMSG * *>, COMDAT

; 4747 :     const char* const _First_ch, const _OutCtgIt _Dest, const size_t _Byte_count, const size_t _Object_count) {

  00000	55		 push	 ebp
  00001	8b ec		 mov	 ebp, esp
  00003	56		 push	 esi

; 4748 :     _STL_INTERNAL_CHECK(_Byte_count == _Object_count * sizeof(*_Dest));
; 4749 :     const auto _Dest_ptr = _STD _To_address(_Dest);
; 4750 :     const auto _Dest_ch  = const_cast<char*>(reinterpret_cast<const volatile char*>(_Dest_ptr));
; 4751 :     _CSTD memmove(_Dest_ch, _First_ch, _Byte_count);

  00004	8b 75 0c	 mov	 esi, DWORD PTR __Dest$[ebp]
  00007	57		 push	 edi
  00008	8b 7d 10	 mov	 edi, DWORD PTR __Byte_count$[ebp]
  0000b	57		 push	 edi
  0000c	ff 75 08	 push	 DWORD PTR __First_ch$[ebp]
  0000f	56		 push	 esi
  00010	e8 00 00 00 00	 call	 _memmove
  00015	83 c4 0c	 add	 esp, 12			; 0000000cH

; 4752 :     if constexpr (is_pointer_v<_OutCtgIt>) {
; 4753 :         (void) _Object_count;
; 4754 :         // CodeQL [SM02986] This cast is correct: we're bypassing pointer arithmetic for performance.
; 4755 :         return reinterpret_cast<_OutCtgIt>(_Dest_ch + _Byte_count);

  00018	8d 04 3e	 lea	 eax, DWORD PTR [esi+edi]
  0001b	5f		 pop	 edi
  0001c	5e		 pop	 esi

; 4756 :     } else {
; 4757 :         return _Dest + static_cast<_Iter_diff_t<_OutCtgIt>>(_Object_count);
; 4758 :     }
; 4759 : }

  0001d	5d		 pop	 ebp
  0001e	c3		 ret	 0
??$_Copy_memmove_tail@PAPAUAIMSG@@@std@@YAPAPAUAIMSG@@QBDQAPAU1@II@Z ENDP ; std::_Copy_memmove_tail<AIMSG * *>
_TEXT	ENDS
; Function compile flags: /Ogtp
; File C:\Program Files\Microsoft Visual Studio\2022\Professional\VC\Tools\MSVC\14.44.35207\include\xutility
;	COMDAT ??$_Copy_memmove@PAPAUAIMSG@@PAPAU1@@std@@YAPAPAUAIMSG@@PAPAU1@00@Z
_TEXT	SEGMENT
__First$ = 8						; size = 4
__Last$ = 12						; size = 4
__Dest$ = 16						; size = 4
??$_Copy_memmove@PAPAUAIMSG@@PAPAU1@@std@@YAPAPAUAIMSG@@PAPAU1@00@Z PROC ; std::_Copy_memmove<AIMSG * *,AIMSG * *>, COMDAT

; 4762 : _OutCtgIt _Copy_memmove(_CtgIt _First, _CtgIt _Last, _OutCtgIt _Dest) {

  00000	55		 push	 ebp
  00001	8b ec		 mov	 ebp, esp

; 4763 :     _STL_INTERNAL_CHECK(_First <= _Last);
; 4764 :     const auto _First_ptr    = _STD _To_address(_First);
; 4765 :     const auto _Last_ptr     = _STD _To_address(_Last);
; 4766 :     const auto _Object_count = static_cast<size_t>(_Last_ptr - _First_ptr);

  00003	8b 55 08	 mov	 edx, DWORD PTR __First$[ebp]
  00006	8b 4d 0c	 mov	 ecx, DWORD PTR __Last$[ebp]
  00009	2b ca		 sub	 ecx, edx
  0000b	8b c1		 mov	 eax, ecx
  0000d	c1 f8 02	 sar	 eax, 2

; 4767 :     const auto _First_ch     = const_cast<const char*>(reinterpret_cast<const volatile char*>(_First_ptr));
; 4768 :     const auto _Last_ch      = const_cast<const char*>(reinterpret_cast<const volatile char*>(_Last_ptr));
; 4769 :     const auto _Byte_count   = static_cast<size_t>(_Last_ch - _First_ch);
; 4770 :     return _STD _Copy_memmove_tail(_First_ch, _STD move(_Dest), _Byte_count, _Object_count);

  00010	50		 push	 eax
  00011	51		 push	 ecx
  00012	ff 75 10	 push	 DWORD PTR __Dest$[ebp]
  00015	52		 push	 edx
  00016	e8 00 00 00 00	 call	 ??$_Copy_memmove_tail@PAPAUAIMSG@@@std@@YAPAPAUAIMSG@@QBDQAPAU1@II@Z ; std::_Copy_memmove_tail<AIMSG * *>
  0001b	83 c4 10	 add	 esp, 16			; 00000010H

; 4771 : }

  0001e	5d		 pop	 ebp
  0001f	c3		 ret	 0
??$_Copy_memmove@PAPAUAIMSG@@PAPAU1@@std@@YAPAPAUAIMSG@@PAPAU1@00@Z ENDP ; std::_Copy_memmove<AIMSG * *,AIMSG * *>
_TEXT	ENDS
; Function compile flags: /Ogtp
; File C:\Program Files\Microsoft Visual Studio\2022\Professional\VC\Tools\MSVC\14.44.35207\include\xmemory
;	COMDAT ??$_Zero_range@PAPAUAIMSG@@@std@@YAPAPAUAIMSG@@QAPAU1@0@Z
_TEXT	SEGMENT
__First$ = 8						; size = 4
__Last$ = 12						; size = 4
??$_Zero_range@PAPAUAIMSG@@@std@@YAPAPAUAIMSG@@QAPAU1@0@Z PROC ; std::_Zero_range<AIMSG * *>, COMDAT

; 2069 : _Ptr _Zero_range(const _Ptr _First, const _Ptr _Last) { // fill [_First, _Last) with zeroes

  00000	55		 push	 ebp
  00001	8b ec		 mov	 ebp, esp

; 2070 :     char* const _First_ch = reinterpret_cast<char*>(_STD _To_address(_First));
; 2071 :     char* const _Last_ch  = reinterpret_cast<char*>(_STD _To_address(_Last));
; 2072 :     _CSTD memset(_First_ch, 0, static_cast<size_t>(_Last_ch - _First_ch));

  00003	8b 55 08	 mov	 edx, DWORD PTR __First$[ebp]
  00006	8b 4d 0c	 mov	 ecx, DWORD PTR __Last$[ebp]
  00009	2b ca		 sub	 ecx, edx
  0000b	51		 push	 ecx
  0000c	6a 00		 push	 0
  0000e	52		 push	 edx
  0000f	e8 00 00 00 00	 call	 _memset

; 2073 :     return _Last;

  00014	8b 45 0c	 mov	 eax, DWORD PTR __Last$[ebp]
  00017	83 c4 0c	 add	 esp, 12			; 0000000cH

; 2074 : }

  0001a	5d		 pop	 ebp
  0001b	c3		 ret	 0
??$_Zero_range@PAPAUAIMSG@@@std@@YAPAPAUAIMSG@@QAPAU1@0@Z ENDP ; std::_Zero_range<AIMSG * *>
_TEXT	ENDS
; Function compile flags: /Ogtp
; File C:\Program Files\Microsoft Visual Studio\2022\Professional\VC\Tools\MSVC\14.44.35207\include\xmemory
;	COMDAT ??$_Uninitialized_copy_unchecked@PAPAUAIMSG@@PAPAU1@@std@@YAPAPAUAIMSG@@PAPAU1@QAPAU1@0@Z
_TEXT	SEGMENT
__First$ = 8						; size = 4
__Last$ = 12						; size = 4
__Dest$ = 16						; size = 4
??$_Uninitialized_copy_unchecked@PAPAUAIMSG@@PAPAU1@@std@@YAPAPAUAIMSG@@PAPAU1@QAPAU1@0@Z PROC ; std::_Uninitialized_copy_unchecked<AIMSG * *,AIMSG * *>, COMDAT

; 1945 : _NoThrowFwdIt _Uninitialized_copy_unchecked(_InIt _First, const _InIt _Last, _NoThrowFwdIt _Dest) {

  00000	55		 push	 ebp
  00001	8b ec		 mov	 ebp, esp

; 1953 :         }
; 1954 :     }
; 1955 : 
; 1956 :     _Uninitialized_backout<_NoThrowFwdIt> _Backout{_Dest};
; 1957 :     for (; _First != _Last; ++_First) {
; 1958 :         _Backout._Emplace_back_deref(_First);
; 1959 :     }
; 1960 : 
; 1961 :     return _Backout._Release();
; 1962 : }

  00003	5d		 pop	 ebp

; 1946 :     // copy [_First, _Last) to raw [_Dest, ...)
; 1947 :     if constexpr (_Iter_copy_cat<_InIt, _NoThrowFwdIt>::_Bitcopy_constructible) {
; 1948 : #if 0 // TRANSITION, _HAS_CXX26
; 1949 :         if (!_STD is_constant_evaluated())
; 1950 : #endif // _HAS_CXX26
; 1951 :         {
; 1952 :             return _STD _Copy_memmove(_First, _Last, _Dest);

  00004	e9 00 00 00 00	 jmp	 ??$_Copy_memmove@PAPAUAIMSG@@PAPAU1@@std@@YAPAPAUAIMSG@@PAPAU1@00@Z ; std::_Copy_memmove<AIMSG * *,AIMSG * *>
??$_Uninitialized_copy_unchecked@PAPAUAIMSG@@PAPAU1@@std@@YAPAPAUAIMSG@@PAPAU1@QAPAU1@0@Z ENDP ; std::_Uninitialized_copy_unchecked<AIMSG * *,AIMSG * *>
_TEXT	ENDS
; Function compile flags: /Ogtp
; File C:\Program Files\Microsoft Visual Studio\2022\Professional\VC\Tools\MSVC\14.44.35207\include\xmemory
;	COMDAT ??$_Uninitialized_value_construct_n_unchecked1@PAPAUAIMSG@@I@std@@YAPAPAUAIMSG@@PAPAU1@I@Z
_TEXT	SEGMENT
__UFirst$ = 8						; size = 4
__Count$ = 12						; size = 4
??$_Uninitialized_value_construct_n_unchecked1@PAPAUAIMSG@@I@std@@YAPAPAUAIMSG@@PAPAU1@I@Z PROC ; std::_Uninitialized_value_construct_n_unchecked1<AIMSG * *,unsigned int>, COMDAT

; 2101 : _NoThrowFwdIt _Uninitialized_value_construct_n_unchecked1(_NoThrowFwdIt _UFirst, _Diff _Count) {

  00000	55		 push	 ebp
  00001	8b ec		 mov	 ebp, esp

; 2102 :     // value-initialize all elements in [_UFirst, _UFirst + _Count)
; 2103 :     _STL_INTERNAL_CHECK(_Count >= 0);
; 2104 :     if constexpr (_Use_memset_value_construct_v<_NoThrowFwdIt>) {
; 2105 :         return _STD _Zero_range(_UFirst, _UFirst + _Count);

  00003	8b 4d 08	 mov	 ecx, DWORD PTR __UFirst$[ebp]
  00006	8b 45 0c	 mov	 eax, DWORD PTR __Count$[ebp]
  00009	8d 04 81	 lea	 eax, DWORD PTR [ecx+eax*4]
  0000c	89 45 0c	 mov	 DWORD PTR __Count$[ebp], eax
  0000f	89 4d 08	 mov	 DWORD PTR __UFirst$[ebp], ecx

; 2106 :     } else {
; 2107 :         _Uninitialized_backout<_NoThrowFwdIt> _Backout{_UFirst};
; 2108 :         for (; 0 < _Count; --_Count) {
; 2109 :             _Backout._Emplace_back();
; 2110 :         }
; 2111 : 
; 2112 :         return _Backout._Release();
; 2113 :     }
; 2114 : }

  00012	5d		 pop	 ebp

; 2102 :     // value-initialize all elements in [_UFirst, _UFirst + _Count)
; 2103 :     _STL_INTERNAL_CHECK(_Count >= 0);
; 2104 :     if constexpr (_Use_memset_value_construct_v<_NoThrowFwdIt>) {
; 2105 :         return _STD _Zero_range(_UFirst, _UFirst + _Count);

  00013	e9 00 00 00 00	 jmp	 ??$_Zero_range@PAPAUAIMSG@@@std@@YAPAPAUAIMSG@@QAPAU1@0@Z ; std::_Zero_range<AIMSG * *>
??$_Uninitialized_value_construct_n_unchecked1@PAPAUAIMSG@@I@std@@YAPAPAUAIMSG@@PAPAU1@I@Z ENDP ; std::_Uninitialized_value_construct_n_unchecked1<AIMSG * *,unsigned int>
_TEXT	ENDS
; Function compile flags: /Ogtp
; File C:\Program Files\Microsoft Visual Studio\2022\Professional\VC\Tools\MSVC\14.44.35207\include\xmemory
;	COMDAT ??$uninitialized_copy@PAPAUAIMSG@@PAPAU1@@std@@YAPAPAUAIMSG@@QAPAU1@0PAPAU1@@Z
_TEXT	SEGMENT
__First$ = 8						; size = 4
__Last$ = 12						; size = 4
__Dest$ = 16						; size = 4
??$uninitialized_copy@PAPAUAIMSG@@PAPAU1@@std@@YAPAPAUAIMSG@@QAPAU1@0PAPAU1@@Z PROC ; std::uninitialized_copy<AIMSG * *,AIMSG * *>, COMDAT

; 1965 : _NoThrowFwdIt uninitialized_copy(const _InIt _First, const _InIt _Last, _NoThrowFwdIt _Dest) {

  00000	55		 push	 ebp
  00001	8b ec		 mov	 ebp, esp

; 1972 :     return _Dest;
; 1973 : }

  00003	5d		 pop	 ebp

; 1966 :     // copy [_First, _Last) to raw [_Dest, ...)
; 1967 :     _STD _Adl_verify_range(_First, _Last);
; 1968 :     auto _UFirst      = _STD _Get_unwrapped(_First);
; 1969 :     const auto _ULast = _STD _Get_unwrapped(_Last);
; 1970 :     auto _UDest       = _STD _Get_unwrapped_n(_Dest, _STD _Idl_distance<_InIt>(_UFirst, _ULast));
; 1971 :     _STD _Seek_wrapped(_Dest, _STD _Uninitialized_copy_unchecked(_UFirst, _ULast, _UDest));

  00004	e9 00 00 00 00	 jmp	 ??$_Uninitialized_copy_unchecked@PAPAUAIMSG@@PAPAU1@@std@@YAPAPAUAIMSG@@PAPAU1@QAPAU1@0@Z ; std::_Uninitialized_copy_unchecked<AIMSG * *,AIMSG * *>
??$uninitialized_copy@PAPAUAIMSG@@PAPAU1@@std@@YAPAPAUAIMSG@@QAPAU1@0PAPAU1@@Z ENDP ; std::uninitialized_copy<AIMSG * *,AIMSG * *>
_TEXT	ENDS
; Function compile flags: /Ogtp
; File C:\Program Files\Microsoft Visual Studio\2022\Professional\VC\Tools\MSVC\14.44.35207\include\xmemory
;	COMDAT ??$_Allocate_manually_vector_aligned@U_Default_allocate_traits@std@@@std@@YAPAXI@Z
_TEXT	SEGMENT
__Bytes$ = 8						; size = 4
??$_Allocate_manually_vector_aligned@U_Default_allocate_traits@std@@@std@@YAPAXI@Z PROC ; std::_Allocate_manually_vector_aligned<std::_Default_allocate_traits>, COMDAT

; 182  : __declspec(allocator) void* _Allocate_manually_vector_aligned(const size_t _Bytes) {

  00000	55		 push	 ebp
  00001	8b ec		 mov	 ebp, esp

; 183  :     // allocate _Bytes manually aligned to at least _Big_allocation_alignment
; 184  :     const size_t _Block_size = _Non_user_size + _Bytes;

  00003	8b 45 08	 mov	 eax, DWORD PTR __Bytes$[ebp]
  00006	8d 48 23	 lea	 ecx, DWORD PTR [eax+35]

; 185  :     if (_Block_size <= _Bytes) {

  00009	3b c8		 cmp	 ecx, eax
  0000b	0f 86 00 00 00
	00		 jbe	 ?_Throw_bad_array_new_length@std@@YAXXZ ; std::_Throw_bad_array_new_length

; 136  :         return ::operator new(_Bytes);

  00011	51		 push	 ecx
  00012	e8 00 00 00 00	 call	 ??2@YAPAXI@Z		; operator new

; 186  :         _Throw_bad_array_new_length(); // add overflow
; 187  :     }
; 188  : 
; 189  :     const uintptr_t _Ptr_container = reinterpret_cast<uintptr_t>(_Traits::_Allocate(_Block_size));

  00017	8b c8		 mov	 ecx, eax

; 136  :         return ::operator new(_Bytes);

  00019	83 c4 04	 add	 esp, 4

; 190  :     _STL_VERIFY(_Ptr_container != 0, "invalid argument"); // validate even in release since we're doing p[-1]

  0001c	85 c9		 test	 ecx, ecx
  0001e	74 0b		 je	 SHORT $LN9@Allocate_m

; 191  :     void* const _Ptr = reinterpret_cast<void*>((_Ptr_container + _Non_user_size) & ~(_Big_allocation_alignment - 1));

  00020	8d 41 23	 lea	 eax, DWORD PTR [ecx+35]
  00023	83 e0 e0	 and	 eax, -32		; ffffffe0H

; 192  :     static_cast<uintptr_t*>(_Ptr)[-1] = _Ptr_container;

  00026	89 48 fc	 mov	 DWORD PTR [eax-4], ecx

; 193  : 
; 194  : #ifdef _DEBUG
; 195  :     static_cast<uintptr_t*>(_Ptr)[-2] = _Big_allocation_sentinel;
; 196  : #endif // defined(_DEBUG)
; 197  :     return _Ptr;
; 198  : }

  00029	5d		 pop	 ebp
  0002a	c3		 ret	 0
$LN9@Allocate_m:

; 190  :     _STL_VERIFY(_Ptr_container != 0, "invalid argument"); // validate even in release since we're doing p[-1]

  0002b	6a 00		 push	 0
  0002d	6a 00		 push	 0
  0002f	6a 00		 push	 0
  00031	6a 00		 push	 0
  00033	6a 00		 push	 0
  00035	e8 00 00 00 00	 call	 __invoke_watson
$LN7@Allocate_m:
  0003a	cc		 int	 3
??$_Allocate_manually_vector_aligned@U_Default_allocate_traits@std@@@std@@YAPAXI@Z ENDP ; std::_Allocate_manually_vector_aligned<std::_Default_allocate_traits>
_TEXT	ENDS
; Function compile flags: /Ogtp
;	COMDAT ??_GCAIInterface@@UAEPAXI@Z
_TEXT	SEGMENT
___flags$ = 8						; size = 4
??_GCAIInterface@@UAEPAXI@Z PROC			; CAIInterface::`scalar deleting destructor', COMDAT
; _this$ = ecx
  00000	55		 push	 ebp
  00001	8b ec		 mov	 ebp, esp
  00003	56		 push	 esi
  00004	8b f1		 mov	 esi, ecx
  00006	e8 00 00 00 00	 call	 ??1CAIInterface@@UAE@XZ	; CAIInterface::~CAIInterface
  0000b	f6 45 08 01	 test	 BYTE PTR ___flags$[ebp], 1
  0000f	74 0b		 je	 SHORT $LN5@scalar
  00011	6a 38		 push	 56			; 00000038H
  00013	56		 push	 esi
  00014	e8 00 00 00 00	 call	 ??3@YAXPAXI@Z		; operator delete
  00019	83 c4 08	 add	 esp, 8
$LN5@scalar:
  0001c	8b c6		 mov	 eax, esi
  0001e	5e		 pop	 esi
  0001f	5d		 pop	 ebp
  00020	c2 04 00	 ret	 4
??_GCAIInterface@@UAEPAXI@Z ENDP			; CAIInterface::`scalar deleting destructor'
_TEXT	ENDS
; Function compile flags: /Ogtp
; File C:\IAGOS\server\v18\Source\Source\_aiinterface\aiinterface.cpp
; File C:\IAGOS\server\v18\Source\Source\_Common\Mover.h
; File C:\IAGOS\server\v18\Source\Source\_Common\Project.h
; File C:\IAGOS\server\v18\Source\Source\_Common\Mover.h
; File C:\IAGOS\server\v18\Source\Source\_Common\Project.h
; File C:\IAGOS\server\v18\Source\Source\_aiinterface\aiinterface.cpp
; File C:\IAGOS\server\v18\Source\Source\_Common\Obj.h
; File C:\IAGOS\server\v18\Source\Source\_aiinterface\aiinterface.cpp
; File C:\IAGOS\server\v18\Source\Source\_Common\Obj.h
; File C:\IAGOS\server\v18\Source\Source\_Common\Mover.h
; File C:\IAGOS\server\v18\Source\Source\_aiinterface\aiinterface.cpp
; File C:\IAGOS\server\v18\Source\Source\_Common\Obj.h
; File C:\IAGOS\server\v18\Source\Source\_aiinterface\aiinterface.cpp
; File C:\IAGOS\server\v18\Source\Source\_Common\Mover.h
; File C:\IAGOS\server\v18\Source\Source\_aiinterface\aiinterface.cpp
; File C:\IAGOS\server\v18\Source\Source\_AIInterface\Action.h
; File C:\IAGOS\server\v18\Source\Source\_Common\Mover.h
; File C:\IAGOS\server\v18\Source\Source\_aiinterface\aiinterface.cpp
; File C:\IAGOS\server\v18\Source\Source\_AIInterface\Action.h
; File C:\IAGOS\server\v18\Source\Source\_aiinterface\aiinterface.cpp
; File C:\IAGOS\server\v18\Source\Source\_AIInterface\Action.h
; File C:\IAGOS\server\v18\Source\Source\_aiinterface\aiinterface.cpp
; File C:\IAGOS\server\v18\Source\Source\_Common\Obj.h
; File C:\IAGOS\server\v18\Source\Source\DX_SDK\d3dx9math.inl
; File C:\IAGOS\server\v18\Source\Source\_Common\Obj.h
; File C:\IAGOS\server\v18\Source\Source\DX_SDK\d3dx9math.inl
; File C:\IAGOS\server\v18\Source\Source\_aiinterface\aiinterface.cpp
; File C:\IAGOS\server\v18\Source\Source\DX_SDK\d3dx9math.inl
; File C:\IAGOS\server\v18\Source\Source\_aiinterface\aiinterface.cpp
; File C:\IAGOS\server\v18\Source\Source\_Common\Mover.h
; File C:\IAGOS\server\v18\Source\Source\_aiinterface\aiinterface.cpp
;	COMDAT ?ScanTargetNext@CAIInterface@@IAEPAVCMover@@PAVCObj@@HKK@Z
_TEXT	SEGMENT
$T1 = -92						; size = 12
_vPos$ = -80						; size = 12
tv984 = -68						; size = 4
tv989 = -64						; size = 4
__pObjs$1$ = -60					; size = 4
tv964 = -56						; size = 4
tv970 = -52						; size = 4
tv972 = -48						; size = 4
tv974 = -44						; size = 4
tv976 = -40						; size = 4
__i$1$ = -36						; size = 4
__nZ$1$ = -32						; size = 4
__nLinkZMax$1$ = -32					; size = 4
tv958 = -28						; size = 4
__nMaxHeight$1$ = -28					; size = 4
_this$1$ = -24						; size = 4
__nMaxWidth$1$ = -20					; size = 4
__nUnit$1$ = -16					; size = 4
__j$1$ = -16						; size = 4
tv960 = -12						; size = 4
__k$1$ = -8						; size = 4
__nLinkZ$1$ = -4					; size = 4
_pObjCenter$ = 8					; size = 4
_nRange$ = 12						; size = 4
__nLinkX$1$ = 12					; size = 4
_dwIdTarget$ = 16					; size = 4
_uParty$ = 20						; size = 4
?ScanTargetNext@CAIInterface@@IAEPAVCMover@@PAVCObj@@HKK@Z PROC ; CAIInterface::ScanTargetNext, COMDAT
; _this$ = ecx

; 146  : {

  00000	55		 push	 ebp
  00001	8b ec		 mov	 ebp, esp
  00003	83 ec 5c	 sub	 esp, 92			; 0000005cH

; 149  : 	if( uParty == 0 || nRange <= 0 || GetMover()->GetProp()->dwClass == RANK_GUARD )

  00006	83 7d 14 00	 cmp	 DWORD PTR _uParty$[ebp], 0
  0000a	53		 push	 ebx
  0000b	56		 push	 esi
  0000c	8b d9		 mov	 ebx, ecx
  0000e	57		 push	 edi
  0000f	89 5d e8	 mov	 DWORD PTR _this$1$[ebp], ebx
  00012	0f 84 7b 03 00
	00		 je	 $LN14@ScanTarget
  00018	8b 7d 0c	 mov	 edi, DWORD PTR _nRange$[ebp]
  0001b	85 ff		 test	 edi, edi
  0001d	0f 8e 70 03 00
	00		 jle	 $LN14@ScanTarget
; File C:\IAGOS\server\v18\Source\Source\_Common\Mover.h

; 1020 : 	MoverProp*		GetProp() { return prj.GetMoverProp( m_dwIndex ); }	// °´ĂĽŔÇ ÇÁ·ÎĆŰĆĽ ľň±â 	

  00023	8b 43 30	 mov	 eax, DWORD PTR [ebx+48]
; File C:\IAGOS\server\v18\Source\Source\_Common\Project.h

; 1406 : 	VERIFY_RANGE( nIndex, 0, m_nMoverPropSize, "GetMoverProp range_error", NULL );

  00026	8b 0d b4 01 00
	00		 mov	 ecx, DWORD PTR ?prj@@3VCProject@@A+436
; File C:\IAGOS\server\v18\Source\Source\_Common\Mover.h

; 1020 : 	MoverProp*		GetProp() { return prj.GetMoverProp( m_dwIndex ); }	// °´ĂĽŔÇ ÇÁ·ÎĆŰĆĽ ľň±â 	

  0002c	8b 80 74 01 00
	00		 mov	 eax, DWORD PTR [eax+372]
; File C:\IAGOS\server\v18\Source\Source\_Common\Project.h

; 1406 : 	VERIFY_RANGE( nIndex, 0, m_nMoverPropSize, "GetMoverProp range_error", NULL );

  00032	85 c0		 test	 eax, eax
  00034	78 12		 js	 SHORT $LN83@ScanTarget
  00036	3b c1		 cmp	 eax, ecx
  00038	7d 0e		 jge	 SHORT $LN83@ScanTarget

; 1407 : 	return m_pPropMover + nIndex;

  0003a	69 c0 90 06 00
	00		 imul	 eax, eax, 1680
  00040	03 05 b8 01 00
	00		 add	 eax, DWORD PTR ?prj@@3VCProject@@A+440
  00046	eb 18		 jmp	 SHORT $LN56@ScanTarget
$LN83@ScanTarget:

; 579  : 	LPCTSTR szErr = Error( _T( "%s min:%d, max:%d, index:%d" ), szMsg, nMin, nMax, nIndex ); 

  00048	50		 push	 eax
  00049	51		 push	 ecx
  0004a	6a 00		 push	 0
  0004c	68 00 00 00 00	 push	 OFFSET ??_C@_0BJ@GKPOBPPI@GetMoverProp?5range_error@
  00051	68 00 00 00 00	 push	 OFFSET ??_C@_0BM@HMFGHCP@?$CFs?5min?3?$CFd?0?5max?3?$CFd?0?5index?3?$CFd@
  00056	e8 00 00 00 00	 call	 ?Error@@YAPBDPBDZZ	; Error
  0005b	83 c4 14	 add	 esp, 20			; 00000014H

; 1406 : 	VERIFY_RANGE( nIndex, 0, m_nMoverPropSize, "GetMoverProp range_error", NULL );

  0005e	33 c0		 xor	 eax, eax
$LN56@ScanTarget:
; File C:\IAGOS\server\v18\Source\Source\_aiinterface\aiinterface.cpp

; 149  : 	if( uParty == 0 || nRange <= 0 || GetMover()->GetProp()->dwClass == RANK_GUARD )

  00060	83 b8 94 00 00
	00 08		 cmp	 DWORD PTR [eax+148], 8
  00067	0f 84 26 03 00
	00		 je	 $LN14@ScanTarget
; File C:\IAGOS\server\v18\Source\Source\_Common\Obj.h

; 215  : 	D3DXVECTOR3		GetPos()	{ return m_vPos; }

  0006d	8b 55 08	 mov	 edx, DWORD PTR _pObjCenter$[ebp]
; File C:\IAGOS\server\v18\Source\Source\_aiinterface\aiinterface.cpp

; 159  : 	float fRadius	= (float)( nRange * nRange );

  00070	8b f7		 mov	 esi, edi
  00072	0f af f7	 imul	 esi, edi
; File C:\IAGOS\server\v18\Source\Source\_Common\Obj.h

; 215  : 	D3DXVECTOR3		GetPos()	{ return m_vPos; }

  00075	8b 82 68 01 00
	00		 mov	 eax, DWORD PTR [edx+360]
  0007b	f3 0f 7e 82 60
	01 00 00	 movq	 xmm0, QWORD PTR [edx+352]
  00083	89 45 b8	 mov	 DWORD PTR _vPos$[ebp+8], eax
; File C:\IAGOS\server\v18\Source\Source\_Common\Mover.h

; 1018 : 	BOOL			IsFlyingNPC()		{ return (m_dwTypeFlag & OBJTYPE_FLYING) ? TRUE : FALSE; }		// şńÇŕÇü ¸÷ŔÎ°ˇ.

  00086	8b 43 30	 mov	 eax, DWORD PTR [ebx+48]
; File C:\IAGOS\server\v18\Source\Source\_aiinterface\aiinterface.cpp

; 161  : 	FOR_LINKMAP( pObjCenter->GetWorld(), vPos, pObj, nRange, CObj::linkPlayer, GetMover()->GetLayer() )

  00089	33 db		 xor	 ebx, ebx
; File C:\IAGOS\server\v18\Source\Source\_Common\Obj.h

; 215  : 	D3DXVECTOR3		GetPos()	{ return m_vPos; }

  0008b	66 0f d6 45 b0	 movq	 QWORD PTR _vPos$[ebp], xmm0
; File C:\IAGOS\server\v18\Source\Source\_aiinterface\aiinterface.cpp

; 161  : 	FOR_LINKMAP( pObjCenter->GetWorld(), vPos, pObj, nRange, CObj::linkPlayer, GetMover()->GetLayer() )

  00090	f3 0f 10 45 b0	 movss	 xmm0, DWORD PTR _vPos$[ebp]
  00095	89 5d dc	 mov	 DWORD PTR __i$1$[ebp], ebx
; File C:\IAGOS\server\v18\Source\Source\_Common\Mover.h

; 1018 : 	BOOL			IsFlyingNPC()		{ return (m_dwTypeFlag & OBJTYPE_FLYING) ? TRUE : FALSE; }		// şńÇŕÇü ¸÷ŔÎ°ˇ.

  00098	0f b7 88 3e 02
	00 00		 movzx	 ecx, WORD PTR [eax+574]
  0009f	83 e1 01	 and	 ecx, 1
  000a2	89 4d c0	 mov	 DWORD PTR tv989[ebp], ecx
; File C:\IAGOS\server\v18\Source\Source\_aiinterface\aiinterface.cpp

; 161  : 	FOR_LINKMAP( pObjCenter->GetWorld(), vPos, pObj, nRange, CObj::linkPlayer, GetMover()->GetLayer() )

  000a5	8b 8a 6c 01 00
	00		 mov	 ecx, DWORD PTR [edx+364]
  000ab	ff b0 b8 01 00
	00		 push	 DWORD PTR [eax+440]
  000b1	6a 02		 push	 2
  000b3	66 0f 6e 49 14	 movd	 xmm1, DWORD PTR [ecx+20]
  000b8	83 c1 24	 add	 ecx, 36			; 00000024H
  000bb	0f 5b c9	 cvtdq2ps xmm1, xmm1
  000be	f3 0f 5e c1	 divss	 xmm0, xmm1
  000c2	f3 0f 2c d0	 cvttss2si edx, xmm0
  000c6	f3 0f 10 45 b8	 movss	 xmm0, DWORD PTR _vPos$[ebp+8]
  000cb	f3 0f 5e c1	 divss	 xmm0, xmm1
  000cf	89 55 0c	 mov	 DWORD PTR __nLinkX$1$[ebp], edx
  000d2	f3 0f 2c d0	 cvttss2si edx, xmm0
  000d6	89 55 fc	 mov	 DWORD PTR __nLinkZ$1$[ebp], edx
  000d9	e8 00 00 00 00	 call	 ?GetMaxLinkLevel@CLayeredLinkMap@@QAEHKH@Z ; CLayeredLinkMap::GetMaxLinkLevel
  000de	85 c0		 test	 eax, eax
  000e0	0f 8e ad 02 00
	00		 jle	 $LN14@ScanTarget
  000e6	8b 45 0c	 mov	 eax, DWORD PTR __nLinkX$1$[ebp]
  000e9	8b c8		 mov	 ecx, eax
  000eb	2b cf		 sub	 ecx, edi
  000ed	89 4d d8	 mov	 DWORD PTR tv976[ebp], ecx
  000f0	8b 4d fc	 mov	 ecx, DWORD PTR __nLinkZ$1$[ebp]
  000f3	8b d1		 mov	 edx, ecx
  000f5	2b d7		 sub	 edx, edi
  000f7	03 c7		 add	 eax, edi
  000f9	89 45 d0	 mov	 DWORD PTR tv972[ebp], eax
  000fc	89 55 d4	 mov	 DWORD PTR tv974[ebp], edx
  000ff	8d 04 39	 lea	 eax, DWORD PTR [ecx+edi]
  00102	8b 7d 08	 mov	 edi, DWORD PTR _pObjCenter$[ebp]
  00105	89 45 cc	 mov	 DWORD PTR tv970[ebp], eax
  00108	0f 1f 84 00 00
	00 00 00	 npad	 8
$LL4@ScanTarget:
  00110	8b 45 e8	 mov	 eax, DWORD PTR _this$1$[ebp]
  00113	8b 8f 6c 01 00
	00		 mov	 ecx, DWORD PTR [edi+364]
  00119	83 c1 24	 add	 ecx, 36			; 00000024H
  0011c	8b 40 30	 mov	 eax, DWORD PTR [eax+48]
  0011f	ff b0 b8 01 00
	00		 push	 DWORD PTR [eax+440]
  00125	53		 push	 ebx
  00126	6a 02		 push	 2
  00128	e8 00 00 00 00	 call	 ?GetLinkWidth@CLayeredLinkMap@@QAEHKHH@Z ; CLayeredLinkMap::GetLinkWidth
  0012d	8b f8		 mov	 edi, eax
  0012f	8b 45 e8	 mov	 eax, DWORD PTR _this$1$[ebp]
  00132	8b 48 30	 mov	 ecx, DWORD PTR [eax+48]
  00135	ff b1 b8 01 00
	00		 push	 DWORD PTR [ecx+440]
  0013b	53		 push	 ebx
  0013c	8b 5d 08	 mov	 ebx, DWORD PTR _pObjCenter$[ebp]
  0013f	6a 02		 push	 2
  00141	8b 8b 6c 01 00
	00		 mov	 ecx, DWORD PTR [ebx+364]
  00147	83 c1 24	 add	 ecx, 36			; 00000024H
  0014a	e8 00 00 00 00	 call	 ?GetObj@CLayeredLinkMap@@QAEPAPAVCObj@@KKH@Z ; CLayeredLinkMap::GetObj
  0014f	8b 8b 6c 01 00
	00		 mov	 ecx, DWORD PTR [ebx+364]
  00155	89 45 c4	 mov	 DWORD PTR __pObjs$1$[ebp], eax
  00158	8b 51 08	 mov	 edx, DWORD PTR [ecx+8]
  0015b	8b 41 04	 mov	 eax, DWORD PTR [ecx+4]
  0015e	8b d8		 mov	 ebx, eax
  00160	0f af d7	 imul	 edx, edi
  00163	c1 e0 07	 shl	 eax, 7
  00166	0f af df	 imul	 ebx, edi
  00169	8b 79 14	 mov	 edi, DWORD PTR [ecx+20]
  0016c	89 55 e4	 mov	 DWORD PTR __nMaxHeight$1$[ebp], edx
  0016f	99		 cdq
  00170	f7 fb		 idiv	 ebx
  00172	89 5d ec	 mov	 DWORD PTR __nMaxWidth$1$[ebp], ebx
  00175	8b d8		 mov	 ebx, eax
  00177	8b c7		 mov	 eax, edi
  00179	0f af c3	 imul	 eax, ebx
  0017c	89 5d f0	 mov	 DWORD PTR __nUnit$1$[ebp], ebx
  0017f	99		 cdq
  00180	2b c2		 sub	 eax, edx
  00182	8b c8		 mov	 ecx, eax
  00184	8b 45 0c	 mov	 eax, DWORD PTR __nLinkX$1$[ebp]
  00187	99		 cdq
  00188	f7 fb		 idiv	 ebx
  0018a	f3 0f 2c 45 b0	 cvttss2si eax, DWORD PTR _vPos$[ebp]
  0018f	2b 55 0c	 sub	 edx, DWORD PTR __nLinkX$1$[ebp]
  00192	33 db		 xor	 ebx, ebx
  00194	d1 f9		 sar	 ecx, 1
  00196	0f af d7	 imul	 edx, edi
  00199	03 d0		 add	 edx, eax
  0019b	8b 45 fc	 mov	 eax, DWORD PTR __nLinkZ$1$[ebp]
  0019e	3b d1		 cmp	 edx, ecx
  001a0	99		 cdq
  001a1	0f 9f c3	 setg	 bl
  001a4	f7 7d f0	 idiv	 DWORD PTR __nUnit$1$[ebp]
  001a7	f3 0f 2c 45 b8	 cvttss2si eax, DWORD PTR _vPos$[ebp+8]
  001ac	2b 55 fc	 sub	 edx, DWORD PTR __nLinkZ$1$[ebp]
  001af	0f af d7	 imul	 edx, edi
  001b2	8b 7d f0	 mov	 edi, DWORD PTR __nUnit$1$[ebp]
  001b5	03 d0		 add	 edx, eax
  001b7	33 c0		 xor	 eax, eax
  001b9	3b d1		 cmp	 edx, ecx
  001bb	0f 9f c0	 setg	 al
  001be	33 c9		 xor	 ecx, ecx
  001c0	89 45 e0	 mov	 DWORD PTR __nZ$1$[ebp], eax
  001c3	8b 45 d8	 mov	 eax, DWORD PTR tv976[ebp]
  001c6	99		 cdq
  001c7	f7 ff		 idiv	 edi
  001c9	48		 dec	 eax
  001ca	03 c3		 add	 eax, ebx
  001cc	0f 49 c8	 cmovns	 ecx, eax
  001cf	8b 45 d4	 mov	 eax, DWORD PTR tv974[ebp]
  001d2	99		 cdq
  001d3	f7 ff		 idiv	 edi
  001d5	33 d2		 xor	 edx, edx
  001d7	89 4d c8	 mov	 DWORD PTR tv964[ebp], ecx
  001da	48		 dec	 eax
  001db	03 45 e0	 add	 eax, DWORD PTR __nZ$1$[ebp]
  001de	0f 49 d0	 cmovns	 edx, eax
  001e1	8b 45 d0	 mov	 eax, DWORD PTR tv972[ebp]
  001e4	89 55 f0	 mov	 DWORD PTR __j$1$[ebp], edx
  001e7	99		 cdq
  001e8	f7 ff		 idiv	 edi
  001ea	03 c3		 add	 eax, ebx
  001ec	8b 55 ec	 mov	 edx, DWORD PTR __nMaxWidth$1$[ebp]
  001ef	3b c2		 cmp	 eax, edx
  001f1	8b 4d e4	 mov	 ecx, DWORD PTR __nMaxHeight$1$[ebp]
  001f4	8d 5a ff	 lea	 ebx, DWORD PTR [edx-1]
  001f7	0f 4c d8	 cmovl	 ebx, eax
  001fa	8b 45 cc	 mov	 eax, DWORD PTR tv970[ebp]
  001fd	99		 cdq
  001fe	f7 ff		 idiv	 edi
  00200	89 5d bc	 mov	 DWORD PTR tv984[ebp], ebx
  00203	03 45 e0	 add	 eax, DWORD PTR __nZ$1$[ebp]
  00206	89 45 e0	 mov	 DWORD PTR __nLinkZMax$1$[ebp], eax
  00209	3b c1		 cmp	 eax, ecx
  0020b	7c 06		 jl	 SHORT $LN18@ScanTarget
  0020d	8d 41 ff	 lea	 eax, DWORD PTR [ecx-1]
  00210	89 45 e0	 mov	 DWORD PTR __nLinkZMax$1$[ebp], eax
$LN18@ScanTarget:
  00213	8b 55 f0	 mov	 edx, DWORD PTR __j$1$[ebp]
  00216	3b d0		 cmp	 edx, eax
  00218	0f 8f 47 01 00
	00		 jg	 $LN2@ScanTarget
  0021e	8b c2		 mov	 eax, edx
  00220	0f af 45 ec	 imul	 eax, DWORD PTR __nMaxWidth$1$[ebp]
  00224	89 45 e4	 mov	 DWORD PTR tv958[ebp], eax
$LL7@ScanTarget:
  00227	8b 4d c8	 mov	 ecx, DWORD PTR tv964[ebp]
  0022a	89 4d f8	 mov	 DWORD PTR __k$1$[ebp], ecx
  0022d	3b cb		 cmp	 ecx, ebx
  0022f	0f 8f 1d 01 00
	00		 jg	 $LN5@ScanTarget
  00235	8b 55 c4	 mov	 edx, DWORD PTR __pObjs$1$[ebp]
  00238	03 c1		 add	 eax, ecx
  0023a	8d 14 82	 lea	 edx, DWORD PTR [edx+eax*4]
  0023d	89 55 f4	 mov	 DWORD PTR tv960[ebp], edx
$LL10@ScanTarget:
  00240	8b 3a		 mov	 edi, DWORD PTR [edx]
  00242	bb e8 03 00 00	 mov	 ebx, 1000		; 000003e8H
  00247	85 ff		 test	 edi, edi
  00249	0f 84 e8 00 00
	00		 je	 $LN8@ScanTarget
  0024f	90		 npad	 1
$LL11@ScanTarget:
  00250	8b c3		 mov	 eax, ebx
  00252	4b		 dec	 ebx
  00253	85 c0		 test	 eax, eax
  00255	0f 84 d6 00 00
	00		 je	 $LN92@ScanTarget
; File C:\IAGOS\server\v18\Source\Source\_AIInterface\Action.h

; 310  : 	BOOL			IsDie() { return (m_dwState & OBJSTA_DIE_ALL) ? TRUE : FALSE; }

  0025b	8b 87 38 02 00
	00		 mov	 eax, DWORD PTR [edi+568]
; File C:\IAGOS\server\v18\Source\Source\_Common\Mover.h

; 1251 : 	BOOL			IsLive() { return m_pActMover->IsDie() == FALSE || m_nHitPoint > 0; }		// && ¸¦  ||·Î ąŮ˛ĺŔ˝.  !=¸¦ >·Î ąŮ˛Ţ

  00261	f7 40 04 00 00
	00 08		 test	 DWORD PTR [eax+4], 134217728 ; 08000000H
  00268	74 0d		 je	 SHORT $LN89@ScanTarget
  0026a	83 bf f8 05 00
	00 00		 cmp	 DWORD PTR [edi+1528], 0
  00271	0f 8e ac 00 00
	00		 jle	 $LN24@ScanTarget
$LN89@ScanTarget:
; File C:\IAGOS\server\v18\Source\Source\_aiinterface\aiinterface.cpp

; 164  : 		if( pTarget->IsLive() && pTarget->GetId() != dwIdTarget ) 

  00277	8b 4d 10	 mov	 ecx, DWORD PTR _dwIdTarget$[ebp]
  0027a	39 8f bc 01 00
	00		 cmp	 DWORD PTR [edi+444], ecx
  00280	0f 84 9d 00 00
	00		 je	 $LN24@ScanTarget
; File C:\IAGOS\server\v18\Source\Source\_AIInterface\Action.h

; 309  : 	BOOL			IsFly() { return (m_dwStateFlag & OBJSTAF_FLY) ? TRUE : FALSE; }

  00286	8b 40 08	 mov	 eax, DWORD PTR [eax+8]
; File C:\IAGOS\server\v18\Source\Source\_aiinterface\aiinterface.cpp

; 166  : 			if( bFlyMob == pTarget->IsFly() || bFlyMob == FALSE  )

  00289	8b 4d c0	 mov	 ecx, DWORD PTR tv989[ebp]
; File C:\IAGOS\server\v18\Source\Source\_AIInterface\Action.h

; 309  : 	BOOL			IsFly() { return (m_dwStateFlag & OBJSTAF_FLY) ? TRUE : FALSE; }

  0028c	c1 e8 03	 shr	 eax, 3
  0028f	83 e0 01	 and	 eax, 1
; File C:\IAGOS\server\v18\Source\Source\_aiinterface\aiinterface.cpp

; 166  : 			if( bFlyMob == pTarget->IsFly() || bFlyMob == FALSE  )

  00292	3b c8		 cmp	 ecx, eax
  00294	74 08		 je	 SHORT $LN21@ScanTarget
  00296	85 c9		 test	 ecx, ecx
  00298	0f 85 85 00 00
	00		 jne	 $LN24@ScanTarget
$LN21@ScanTarget:
; File C:\IAGOS\server\v18\Source\Source\_Common\Obj.h

; 215  : 	D3DXVECTOR3		GetPos()	{ return m_vPos; }

  0029e	f3 0f 7e 87 60
	01 00 00	 movq	 xmm0, QWORD PTR [edi+352]
  002a6	8b 87 68 01 00
	00		 mov	 eax, DWORD PTR [edi+360]
  002ac	66 0f d6 45 a4	 movq	 QWORD PTR $T1[ebp], xmm0
; File C:\IAGOS\server\v18\Source\Source\DX_SDK\d3dx9math.inl

; 383  :     return D3DXVECTOR3(x - v.x, y - v.y, z - v.z);

  002b1	f3 0f 10 4d a4	 movss	 xmm1, DWORD PTR $T1[ebp]
  002b6	f3 0f 10 55 a8	 movss	 xmm2, DWORD PTR $T1[ebp+4]
  002bb	f3 0f 5c 55 b4	 subss	 xmm2, DWORD PTR _vPos$[ebp+4]
  002c0	f3 0f 5c 4d b0	 subss	 xmm1, DWORD PTR _vPos$[ebp]
; File C:\IAGOS\server\v18\Source\Source\_Common\Obj.h

; 215  : 	D3DXVECTOR3		GetPos()	{ return m_vPos; }

  002c5	89 45 ac	 mov	 DWORD PTR $T1[ebp+8], eax
; File C:\IAGOS\server\v18\Source\Source\DX_SDK\d3dx9math.inl

; 383  :     return D3DXVECTOR3(x - v.x, y - v.y, z - v.z);

  002c8	f3 0f 10 45 ac	 movss	 xmm0, DWORD PTR $T1[ebp+8]
  002cd	f3 0f 5c 45 b8	 subss	 xmm0, DWORD PTR _vPos$[ebp+8]
; File C:\IAGOS\server\v18\Source\Source\_aiinterface\aiinterface.cpp

; 168  : 				vDist	= pTarget->GetPos() - vPos;				

  002d2	f3 0f 59 d2	 mulss	 xmm2, xmm2
; File C:\IAGOS\server\v18\Source\Source\DX_SDK\d3dx9math.inl

; 1698 :     return pV->x * pV->x + pV->y * pV->y + pV->z * pV->z;

  002d6	f3 0f 59 c9	 mulss	 xmm1, xmm1
  002da	f3 0f 59 c0	 mulss	 xmm0, xmm0
  002de	f3 0f 58 d1	 addss	 xmm2, xmm1
  002e2	f3 0f 58 d0	 addss	 xmm2, xmm0
  002e6	0f 57 c0	 xorps	 xmm0, xmm0
; File C:\IAGOS\server\v18\Source\Source\_aiinterface\aiinterface.cpp

; 169  : 				if( D3DXVec3LengthSq( &vDist ) < fRadius && pTarget->m_idparty == uParty )

  002e9	f3 0f 2a c6	 cvtsi2ss xmm0, esi
  002ed	0f 2f c2	 comiss	 xmm0, xmm2
  002f0	76 31		 jbe	 SHORT $LN24@ScanTarget
  002f2	8b 45 14	 mov	 eax, DWORD PTR _uParty$[ebp]
  002f5	39 87 10 07 00
	00		 cmp	 DWORD PTR [edi+1808], eax
  002fb	75 26		 jne	 SHORT $LN24@ScanTarget
; File C:\IAGOS\server\v18\Source\Source\_Common\Mover.h

; 1740 : 		if( GetAdjParam(DST_CHRSTATE) & CHS_INVISIBILITY )	// ¸¶ąýĹő¸íČ­°ˇ °É·Č´Â°ˇ?

  002fd	6a 40		 push	 64			; 00000040H
  002ff	8b cf		 mov	 ecx, edi
  00301	e8 00 00 00 00	 call	 ?GetAdjParam@CMover@@QAEHH@Z ; CMover::GetAdjParam
  00306	a9 00 04 00 00	 test	 eax, 1024		; 00000400H
  0030b	75 16		 jne	 SHORT $LN24@ScanTarget
; File C:\IAGOS\server\v18\Source\Source\_aiinterface\aiinterface.cpp

; 171  : 					if( pTarget->IsMode( TRANSPARENT_MODE ) == FALSE )

  0030d	f6 87 40 02 00
	00 02		 test	 BYTE PTR [edi+576], 2
  00314	75 0d		 jne	 SHORT $LN24@ScanTarget

; 172  : 						if( pTarget->HasBuffByIk3( IK3_TEXT_DISGUISE ) == FALSE )

  00316	6a 51		 push	 81			; 00000051H
  00318	8b cf		 mov	 ecx, edi
  0031a	e8 00 00 00 00	 call	 ?HasBuffByIk3@CMover@@QAEHK@Z ; CMover::HasBuffByIk3
  0031f	85 c0		 test	 eax, eax
  00321	74 7b		 je	 SHORT $LN73@ScanTarget
$LN24@ScanTarget:

; 174  : 				}
; 175  : 			}
; 176  : 		}
; 177  : 	}
; 178  : 	END_LINKMAP

  00323	8b bf 80 01 00
	00		 mov	 edi, DWORD PTR [edi+384]
  00329	85 ff		 test	 edi, edi
  0032b	0f 85 1f ff ff
	ff		 jne	 $LL11@ScanTarget
$LN92@ScanTarget:

; 161  : 	FOR_LINKMAP( pObjCenter->GetWorld(), vPos, pObj, nRange, CObj::linkPlayer, GetMover()->GetLayer() )

  00331	8b 55 f4	 mov	 edx, DWORD PTR tv960[ebp]
  00334	8b 4d f8	 mov	 ecx, DWORD PTR __k$1$[ebp]
$LN8@ScanTarget:
  00337	8b 5d bc	 mov	 ebx, DWORD PTR tv984[ebp]
  0033a	41		 inc	 ecx
  0033b	83 c2 04	 add	 edx, 4
  0033e	89 4d f8	 mov	 DWORD PTR __k$1$[ebp], ecx
  00341	89 55 f4	 mov	 DWORD PTR tv960[ebp], edx
  00344	3b cb		 cmp	 ecx, ebx
  00346	0f 8e f4 fe ff
	ff		 jle	 $LL10@ScanTarget
  0034c	8b 45 e4	 mov	 eax, DWORD PTR tv958[ebp]
  0034f	8b 55 f0	 mov	 edx, DWORD PTR __j$1$[ebp]
$LN5@ScanTarget:
  00352	03 45 ec	 add	 eax, DWORD PTR __nMaxWidth$1$[ebp]
  00355	42		 inc	 edx
  00356	89 55 f0	 mov	 DWORD PTR __j$1$[ebp], edx
  00359	89 45 e4	 mov	 DWORD PTR tv958[ebp], eax
  0035c	3b 55 e0	 cmp	 edx, DWORD PTR __nLinkZMax$1$[ebp]
  0035f	0f 8e c2 fe ff
	ff		 jle	 $LL7@ScanTarget
$LN2@ScanTarget:
  00365	8b 45 e8	 mov	 eax, DWORD PTR _this$1$[ebp]
  00368	8b 7d 08	 mov	 edi, DWORD PTR _pObjCenter$[ebp]
  0036b	8b 5d dc	 mov	 ebx, DWORD PTR __i$1$[ebp]
  0036e	43		 inc	 ebx
  0036f	8b 40 30	 mov	 eax, DWORD PTR [eax+48]
  00372	8b 8f 6c 01 00
	00		 mov	 ecx, DWORD PTR [edi+364]
  00378	83 c1 24	 add	 ecx, 36			; 00000024H
  0037b	89 5d dc	 mov	 DWORD PTR __i$1$[ebp], ebx
  0037e	ff b0 b8 01 00
	00		 push	 DWORD PTR [eax+440]
  00384	6a 02		 push	 2
  00386	e8 00 00 00 00	 call	 ?GetMaxLinkLevel@CLayeredLinkMap@@QAEHKH@Z ; CLayeredLinkMap::GetMaxLinkLevel
  0038b	3b d8		 cmp	 ebx, eax
  0038d	0f 8c 7d fd ff
	ff		 jl	 $LL4@ScanTarget
$LN14@ScanTarget:
  00393	5f		 pop	 edi

; 179  : 	return NULL;
; 180  : }

  00394	5e		 pop	 esi
  00395	33 c0		 xor	 eax, eax
  00397	5b		 pop	 ebx
  00398	8b e5		 mov	 esp, ebp
  0039a	5d		 pop	 ebp
  0039b	c2 10 00	 ret	 16			; 00000010H
$LN73@ScanTarget:

; 173  : 							return pTarget;

  0039e	8b c7		 mov	 eax, edi
  003a0	5f		 pop	 edi

; 179  : 	return NULL;
; 180  : }

  003a1	5e		 pop	 esi
  003a2	5b		 pop	 ebx
  003a3	8b e5		 mov	 esp, ebp
  003a5	5d		 pop	 ebp
  003a6	c2 10 00	 ret	 16			; 00000010H
?ScanTargetNext@CAIInterface@@IAEPAVCMover@@PAVCObj@@HKK@Z ENDP ; CAIInterface::ScanTargetNext
_TEXT	ENDS
; Function compile flags: /Ogtp
; File C:\IAGOS\server\v18\Source\Source\_aiinterface\aiinterface.cpp
; File C:\IAGOS\server\v18\Source\Source\_Common\Obj.h
; File C:\IAGOS\server\v18\Source\Source\_aiinterface\aiinterface.cpp
; File C:\IAGOS\server\v18\Source\Source\_Common\Obj.h
; File C:\IAGOS\server\v18\Source\Source\_aiinterface\aiinterface.cpp
; File C:\IAGOS\server\v18\Source\Source\_Common\Obj.h
; File C:\IAGOS\server\v18\Source\Source\_aiinterface\aiinterface.cpp
; File C:\IAGOS\server\v18\Source\Source\_Common\Obj.h
; File C:\IAGOS\server\v18\Source\Source\_aiinterface\aiinterface.cpp
; File C:\IAGOS\server\v18\Source\Source\_Common\Obj.h
; File C:\IAGOS\server\v18\Source\Source\DX_SDK\d3dx9math.inl
; File C:\IAGOS\server\v18\Source\Source\_Common\Obj.h
; File C:\IAGOS\server\v18\Source\Source\DX_SDK\d3dx9math.inl
; File C:\IAGOS\server\v18\Source\Source\_aiinterface\aiinterface.cpp
; File C:\IAGOS\server\v18\Source\Source\DX_SDK\d3dx9math.inl
; File C:\IAGOS\server\v18\Source\Source\_aiinterface\aiinterface.cpp
; File C:\IAGOS\server\v18\Source\Source\_Common\Mover.h
; File C:\IAGOS\server\v18\Source\Source\_aiinterface\aiinterface.cpp
;	COMDAT ?ScanTargetOverHealer@CAIInterface@@IAEPAVCMover@@PAVCObj@@M@Z
_TEXT	SEGMENT
$T1 = -80						; size = 12
_vPos$ = -68						; size = 12
_fRadius$1$ = -52					; size = 4
__pObjs$1$ = -48					; size = 4
tv895 = -44						; size = 4
_this$1$ = -40						; size = 4
__i$1$ = -36						; size = 4
__nZ$1$ = -32						; size = 4
__nLinkZMax$1$ = -32					; size = 4
tv877 = -28						; size = 4
__nMaxHeight$1$ = -28					; size = 4
__nMaxWidth$1$ = -24					; size = 4
__j$1$ = -20						; size = 4
tv878 = -16						; size = 4
__nLinkX$1$ = -12					; size = 4
tv899 = -8						; size = 4
__nLinkZ$1$ = -4					; size = 4
_pObjCenter$ = 8					; size = 4
_fRangeMeter$ = 12					; size = 4
?ScanTargetOverHealer@CAIInterface@@IAEPAVCMover@@PAVCObj@@M@Z PROC ; CAIInterface::ScanTargetOverHealer, COMDAT
; _this$ = ecx

; 313  : {

  00000	55		 push	 ebp
  00001	8b ec		 mov	 ebp, esp
  00003	83 ec 50	 sub	 esp, 80			; 00000050H
  00006	53		 push	 ebx
  00007	56		 push	 esi
  00008	57		 push	 edi
; File C:\IAGOS\server\v18\Source\Source\_Common\Obj.h

; 215  : 	D3DXVECTOR3		GetPos()	{ return m_vPos; }

  00009	8b 7d 08	 mov	 edi, DWORD PTR _pObjCenter$[ebp]
; File C:\IAGOS\server\v18\Source\Source\_aiinterface\aiinterface.cpp

; 313  : {

  0000c	8b f1		 mov	 esi, ecx

; 322  : 	FOR_LINKMAP( pObjCenter->GetWorld(), vPos, pObj, (int)( fRangeMeter / MPU ), CObj::linkPlayer, GetMover()->GetLayer() )

  0000e	33 db		 xor	 ebx, ebx
  00010	89 75 d8	 mov	 DWORD PTR _this$1$[ebp], esi
  00013	89 5d dc	 mov	 DWORD PTR __i$1$[ebp], ebx
  00016	8b 8f 6c 01 00
	00		 mov	 ecx, DWORD PTR [edi+364]
; File C:\IAGOS\server\v18\Source\Source\_Common\Obj.h

; 215  : 	D3DXVECTOR3		GetPos()	{ return m_vPos; }

  0001c	f3 0f 7e 87 60
	01 00 00	 movq	 xmm0, QWORD PTR [edi+352]
  00024	66 0f d6 45 bc	 movq	 QWORD PTR _vPos$[ebp], xmm0
; File C:\IAGOS\server\v18\Source\Source\_aiinterface\aiinterface.cpp

; 320  : 	FLOAT fRadius = fRangeMeter * fRangeMeter;

  00029	f3 0f 10 45 0c	 movss	 xmm0, DWORD PTR _fRangeMeter$[ebp]
  0002e	66 0f 6e 49 14	 movd	 xmm1, DWORD PTR [ecx+20]

; 322  : 	FOR_LINKMAP( pObjCenter->GetWorld(), vPos, pObj, (int)( fRangeMeter / MPU ), CObj::linkPlayer, GetMover()->GetLayer() )

  00033	83 c1 24	 add	 ecx, 36			; 00000024H
  00036	f3 0f 59 c0	 mulss	 xmm0, xmm0
; File C:\IAGOS\server\v18\Source\Source\_Common\Obj.h

; 215  : 	D3DXVECTOR3		GetPos()	{ return m_vPos; }

  0003a	8b 87 68 01 00
	00		 mov	 eax, DWORD PTR [edi+360]
; File C:\IAGOS\server\v18\Source\Source\_aiinterface\aiinterface.cpp

; 322  : 	FOR_LINKMAP( pObjCenter->GetWorld(), vPos, pObj, (int)( fRangeMeter / MPU ), CObj::linkPlayer, GetMover()->GetLayer() )

  00040	0f 5b c9	 cvtdq2ps xmm1, xmm1
; File C:\IAGOS\server\v18\Source\Source\_Common\Obj.h

; 215  : 	D3DXVECTOR3		GetPos()	{ return m_vPos; }

  00043	89 45 c4	 mov	 DWORD PTR _vPos$[ebp+8], eax
; File C:\IAGOS\server\v18\Source\Source\_aiinterface\aiinterface.cpp

; 320  : 	FLOAT fRadius = fRangeMeter * fRangeMeter;

  00046	f3 0f 11 45 cc	 movss	 DWORD PTR _fRadius$1$[ebp], xmm0

; 322  : 	FOR_LINKMAP( pObjCenter->GetWorld(), vPos, pObj, (int)( fRangeMeter / MPU ), CObj::linkPlayer, GetMover()->GetLayer() )

  0004b	f3 0f 10 45 bc	 movss	 xmm0, DWORD PTR _vPos$[ebp]
  00050	f3 0f 5e c1	 divss	 xmm0, xmm1
  00054	f3 0f 2c c0	 cvttss2si eax, xmm0
  00058	f3 0f 10 45 c4	 movss	 xmm0, DWORD PTR _vPos$[ebp+8]
  0005d	f3 0f 5e c1	 divss	 xmm0, xmm1
  00061	89 45 f4	 mov	 DWORD PTR __nLinkX$1$[ebp], eax
  00064	f3 0f 2c c0	 cvttss2si eax, xmm0
  00068	89 45 fc	 mov	 DWORD PTR __nLinkZ$1$[ebp], eax
  0006b	8b 46 30	 mov	 eax, DWORD PTR [esi+48]
  0006e	ff b0 b8 01 00
	00		 push	 DWORD PTR [eax+440]
  00074	6a 02		 push	 2
  00076	e8 00 00 00 00	 call	 ?GetMaxLinkLevel@CLayeredLinkMap@@QAEHKH@Z ; CLayeredLinkMap::GetMaxLinkLevel
  0007b	85 c0		 test	 eax, eax
  0007d	0f 8e 55 02 00
	00		 jle	 $LN51@ScanTarget
$LL4@ScanTarget:
  00083	8b 46 30	 mov	 eax, DWORD PTR [esi+48]
  00086	8b 8f 6c 01 00
	00		 mov	 ecx, DWORD PTR [edi+364]
  0008c	83 c1 24	 add	 ecx, 36			; 00000024H
  0008f	ff b0 b8 01 00
	00		 push	 DWORD PTR [eax+440]
  00095	53		 push	 ebx
  00096	6a 02		 push	 2
  00098	e8 00 00 00 00	 call	 ?GetLinkWidth@CLayeredLinkMap@@QAEHKHH@Z ; CLayeredLinkMap::GetLinkWidth
  0009d	8b 4d d8	 mov	 ecx, DWORD PTR _this$1$[ebp]
  000a0	8b f0		 mov	 esi, eax
  000a2	8b 49 30	 mov	 ecx, DWORD PTR [ecx+48]
  000a5	ff b1 b8 01 00
	00		 push	 DWORD PTR [ecx+440]
  000ab	8b 8f 6c 01 00
	00		 mov	 ecx, DWORD PTR [edi+364]
  000b1	53		 push	 ebx
  000b2	6a 02		 push	 2
  000b4	83 c1 24	 add	 ecx, 36			; 00000024H
  000b7	e8 00 00 00 00	 call	 ?GetObj@CLayeredLinkMap@@QAEPAPAVCObj@@KKH@Z ; CLayeredLinkMap::GetObj
  000bc	8b 8f 6c 01 00
	00		 mov	 ecx, DWORD PTR [edi+364]
  000c2	89 45 d0	 mov	 DWORD PTR __pObjs$1$[ebp], eax
  000c5	66 0f 6e 05 00
	00 00 00	 movd	 xmm0, DWORD PTR ?OLD_MPU@@3HB ; OLD_MPU
  000cd	f3 0f 10 4d 0c	 movss	 xmm1, DWORD PTR _fRangeMeter$[ebp]
  000d2	8b 51 08	 mov	 edx, DWORD PTR [ecx+8]
  000d5	8b 41 04	 mov	 eax, DWORD PTR [ecx+4]
  000d8	8b d8		 mov	 ebx, eax
  000da	0f af d6	 imul	 edx, esi
  000dd	c1 e0 07	 shl	 eax, 7
  000e0	0f af de	 imul	 ebx, esi
  000e3	8b 71 14	 mov	 esi, DWORD PTR [ecx+20]
  000e6	0f 5b c0	 cvtdq2ps xmm0, xmm0
  000e9	89 55 e4	 mov	 DWORD PTR __nMaxHeight$1$[ebp], edx
  000ec	99		 cdq
  000ed	89 5d e8	 mov	 DWORD PTR __nMaxWidth$1$[ebp], ebx
  000f0	f7 fb		 idiv	 ebx
  000f2	33 db		 xor	 ebx, ebx
  000f4	8b f8		 mov	 edi, eax
  000f6	8b c6		 mov	 eax, esi
  000f8	0f af c7	 imul	 eax, edi
  000fb	f3 0f 5e c8	 divss	 xmm1, xmm0
  000ff	99		 cdq
  00100	2b c2		 sub	 eax, edx
  00102	8b c8		 mov	 ecx, eax
  00104	8b 45 f4	 mov	 eax, DWORD PTR __nLinkX$1$[ebp]
  00107	99		 cdq
  00108	d1 f9		 sar	 ecx, 1
  0010a	f7 ff		 idiv	 edi
  0010c	f3 0f 2c 45 bc	 cvttss2si eax, DWORD PTR _vPos$[ebp]
  00111	2b 55 f4	 sub	 edx, DWORD PTR __nLinkX$1$[ebp]
  00114	0f af d6	 imul	 edx, esi
  00117	03 d0		 add	 edx, eax
  00119	8b 45 fc	 mov	 eax, DWORD PTR __nLinkZ$1$[ebp]
  0011c	3b d1		 cmp	 edx, ecx
  0011e	99		 cdq
  0011f	0f 9f c3	 setg	 bl
  00122	f7 ff		 idiv	 edi
  00124	f3 0f 2c 45 c4	 cvttss2si eax, DWORD PTR _vPos$[ebp+8]
  00129	2b 55 fc	 sub	 edx, DWORD PTR __nLinkZ$1$[ebp]
  0012c	0f af d6	 imul	 edx, esi
  0012f	f3 0f 2c f1	 cvttss2si esi, xmm1
  00133	03 d0		 add	 edx, eax
  00135	33 c0		 xor	 eax, eax
  00137	3b d1		 cmp	 edx, ecx
  00139	0f 9f c0	 setg	 al
  0013c	89 45 e0	 mov	 DWORD PTR __nZ$1$[ebp], eax
  0013f	8b ce		 mov	 ecx, esi
  00141	8b 45 f4	 mov	 eax, DWORD PTR __nLinkX$1$[ebp]
  00144	f7 d9		 neg	 ecx
  00146	03 c1		 add	 eax, ecx
  00148	99		 cdq
  00149	f7 ff		 idiv	 edi
  0014b	33 d2		 xor	 edx, edx
  0014d	48		 dec	 eax
  0014e	03 c3		 add	 eax, ebx
  00150	0f 49 d0	 cmovns	 edx, eax
  00153	8b 45 fc	 mov	 eax, DWORD PTR __nLinkZ$1$[ebp]
  00156	03 c1		 add	 eax, ecx
  00158	89 55 d4	 mov	 DWORD PTR tv895[ebp], edx
  0015b	99		 cdq
  0015c	f7 ff		 idiv	 edi
  0015e	33 d2		 xor	 edx, edx
  00160	48		 dec	 eax
  00161	03 45 e0	 add	 eax, DWORD PTR __nZ$1$[ebp]
  00164	0f 49 d0	 cmovns	 edx, eax
  00167	8b 45 f4	 mov	 eax, DWORD PTR __nLinkX$1$[ebp]
  0016a	03 c6		 add	 eax, esi
  0016c	89 55 ec	 mov	 DWORD PTR __j$1$[ebp], edx
  0016f	99		 cdq
  00170	f7 ff		 idiv	 edi
  00172	8b 4d e4	 mov	 ecx, DWORD PTR __nMaxHeight$1$[ebp]
  00175	03 c3		 add	 eax, ebx
  00177	8b 5d e8	 mov	 ebx, DWORD PTR __nMaxWidth$1$[ebp]
  0017a	3b c3		 cmp	 eax, ebx
  0017c	8d 53 ff	 lea	 edx, DWORD PTR [ebx-1]
  0017f	0f 4c d0	 cmovl	 edx, eax
  00182	8b 45 fc	 mov	 eax, DWORD PTR __nLinkZ$1$[ebp]
  00185	03 c6		 add	 eax, esi
  00187	89 55 f8	 mov	 DWORD PTR tv899[ebp], edx
  0018a	99		 cdq
  0018b	f7 ff		 idiv	 edi
  0018d	03 45 e0	 add	 eax, DWORD PTR __nZ$1$[ebp]
  00190	89 45 e0	 mov	 DWORD PTR __nLinkZMax$1$[ebp], eax
  00193	3b c1		 cmp	 eax, ecx
  00195	7c 06		 jl	 SHORT $LN16@ScanTarget
  00197	8d 41 ff	 lea	 eax, DWORD PTR [ecx-1]
  0019a	89 45 e0	 mov	 DWORD PTR __nLinkZMax$1$[ebp], eax
$LN16@ScanTarget:
  0019d	8b 55 ec	 mov	 edx, DWORD PTR __j$1$[ebp]
  001a0	3b d0		 cmp	 edx, eax
  001a2	0f 8f 02 01 00
	00		 jg	 $LN2@ScanTarget
  001a8	8b 45 f8	 mov	 eax, DWORD PTR tv899[ebp]
  001ab	8b ca		 mov	 ecx, edx
  001ad	0f af cb	 imul	 ecx, ebx
  001b0	89 4d e4	 mov	 DWORD PTR tv877[ebp], ecx
$LL7@ScanTarget:
  001b3	8b 5d d4	 mov	 ebx, DWORD PTR tv895[ebp]
  001b6	3b d8		 cmp	 ebx, eax
  001b8	0f 8f d9 00 00
	00		 jg	 $LN5@ScanTarget
  001be	8d 04 19	 lea	 eax, DWORD PTR [ecx+ebx]
  001c1	8b 4d d0	 mov	 ecx, DWORD PTR __pObjs$1$[ebp]
  001c4	8d 0c 81	 lea	 ecx, DWORD PTR [ecx+eax*4]
  001c7	8b 45 f8	 mov	 eax, DWORD PTR tv899[ebp]
  001ca	89 4d f0	 mov	 DWORD PTR tv878[ebp], ecx
  001cd	0f 1f 00	 npad	 3
$LL10@ScanTarget:
  001d0	8b 31		 mov	 esi, DWORD PTR [ecx]
  001d2	bf e8 03 00 00	 mov	 edi, 1000		; 000003e8H
  001d7	85 f6		 test	 esi, esi
  001d9	0f 84 a3 00 00
	00		 je	 $LN8@ScanTarget
  001df	90		 npad	 1
$LL11@ScanTarget:
  001e0	8b c7		 mov	 eax, edi
  001e2	4f		 dec	 edi
  001e3	85 c0		 test	 eax, eax
  001e5	0f 84 91 00 00
	00		 je	 $LN62@ScanTarget
; File C:\IAGOS\server\v18\Source\Source\_Common\Obj.h

; 215  : 	D3DXVECTOR3		GetPos()	{ return m_vPos; }

  001eb	f3 0f 7e 86 60
	01 00 00	 movq	 xmm0, QWORD PTR [esi+352]
  001f3	8b 86 68 01 00
	00		 mov	 eax, DWORD PTR [esi+360]
  001f9	66 0f d6 45 b0	 movq	 QWORD PTR $T1[ebp], xmm0
; File C:\IAGOS\server\v18\Source\Source\DX_SDK\d3dx9math.inl

; 383  :     return D3DXVECTOR3(x - v.x, y - v.y, z - v.z);

  001fe	f3 0f 10 4d b0	 movss	 xmm1, DWORD PTR $T1[ebp]
  00203	f3 0f 10 55 b4	 movss	 xmm2, DWORD PTR $T1[ebp+4]
  00208	f3 0f 5c 55 c0	 subss	 xmm2, DWORD PTR _vPos$[ebp+4]
  0020d	f3 0f 5c 4d bc	 subss	 xmm1, DWORD PTR _vPos$[ebp]
; File C:\IAGOS\server\v18\Source\Source\_Common\Obj.h

; 215  : 	D3DXVECTOR3		GetPos()	{ return m_vPos; }

  00212	89 45 b8	 mov	 DWORD PTR $T1[ebp+8], eax
; File C:\IAGOS\server\v18\Source\Source\DX_SDK\d3dx9math.inl

; 383  :     return D3DXVECTOR3(x - v.x, y - v.y, z - v.z);

  00215	f3 0f 10 45 b8	 movss	 xmm0, DWORD PTR $T1[ebp+8]
  0021a	f3 0f 5c 45 c4	 subss	 xmm0, DWORD PTR _vPos$[ebp+8]
; File C:\IAGOS\server\v18\Source\Source\_aiinterface\aiinterface.cpp

; 324  : 		vDist = pObj->GetPos() - vPos;	// µÎÁÂÇĄ°Ł ş¤ĹÍ

  0021f	f3 0f 59 d2	 mulss	 xmm2, xmm2
; File C:\IAGOS\server\v18\Source\Source\DX_SDK\d3dx9math.inl

; 1698 :     return pV->x * pV->x + pV->y * pV->y + pV->z * pV->z;

  00223	f3 0f 59 c9	 mulss	 xmm1, xmm1
  00227	f3 0f 59 c0	 mulss	 xmm0, xmm0
  0022b	f3 0f 58 d1	 addss	 xmm2, xmm1
  0022f	f3 0f 58 d0	 addss	 xmm2, xmm0
; File C:\IAGOS\server\v18\Source\Source\_aiinterface\aiinterface.cpp

; 326  : 		if( fDistSq < fRadius )	

  00233	f3 0f 10 45 cc	 movss	 xmm0, DWORD PTR _fRadius$1$[ebp]
  00238	0f 2f c2	 comiss	 xmm0, xmm2
  0023b	76 31		 jbe	 SHORT $LN20@ScanTarget
; File C:\IAGOS\server\v18\Source\Source\_Common\Mover.h

; 1740 : 		if( GetAdjParam(DST_CHRSTATE) & CHS_INVISIBILITY )	// ¸¶ąýĹő¸íČ­°ˇ °É·Č´Â°ˇ?

  0023d	6a 40		 push	 64			; 00000040H
  0023f	8b ce		 mov	 ecx, esi
  00241	e8 00 00 00 00	 call	 ?GetAdjParam@CMover@@QAEHH@Z ; CMover::GetAdjParam
  00246	a9 00 04 00 00	 test	 eax, 1024		; 00000400H
  0024b	75 21		 jne	 SHORT $LN20@ScanTarget

; 1741 : 			return TRUE;
; 1742 : 	return ( ( m_dwMode & dwMode ) == dwMode ) ? TRUE : FALSE; 

  0024d	8b 86 40 02 00
	00		 mov	 eax, DWORD PTR [esi+576]
  00253	d1 e8		 shr	 eax, 1
  00255	a9 01 00 00 00	 test	 eax, 1
; File C:\IAGOS\server\v18\Source\Source\_aiinterface\aiinterface.cpp

; 328  : 			if(  !( ((CMover*)pObj)->IsMode( TRANSPARENT_MODE ) ) )

  0025a	75 12		 jne	 SHORT $LN20@ScanTarget

; 329  : 			{
; 330  : 				CMover *pMover = (CMover *)pObj;
; 331  : 
; 332  : 				if( pMover->IsPlayer() )

  0025c	83 be 30 02 00
	00 00		 cmp	 DWORD PTR [esi+560], 0
  00263	74 09		 je	 SHORT $LN20@ScanTarget

; 333  : 					if( ((CUser *)pMover)->m_nOverHeal > 0 )		// żŔąöČú·Ż¸¦ ĂŁľŇ´Ů.

  00265	83 be 7c 8e 00
	00 00		 cmp	 DWORD PTR [esi+36476], 0
  0026c	7f 75		 jg	 SHORT $LN46@ScanTarget
$LN20@ScanTarget:

; 335  : 			}
; 336  : 		}
; 337  : 	}
; 338  : 	END_LINKMAP

  0026e	8b b6 80 01 00
	00		 mov	 esi, DWORD PTR [esi+384]
  00274	85 f6		 test	 esi, esi
  00276	0f 85 64 ff ff
	ff		 jne	 $LL11@ScanTarget
$LN62@ScanTarget:

; 322  : 	FOR_LINKMAP( pObjCenter->GetWorld(), vPos, pObj, (int)( fRangeMeter / MPU ), CObj::linkPlayer, GetMover()->GetLayer() )

  0027c	8b 45 f8	 mov	 eax, DWORD PTR tv899[ebp]
  0027f	8b 4d f0	 mov	 ecx, DWORD PTR tv878[ebp]
$LN8@ScanTarget:
  00282	43		 inc	 ebx
  00283	83 c1 04	 add	 ecx, 4
  00286	89 4d f0	 mov	 DWORD PTR tv878[ebp], ecx
  00289	3b d8		 cmp	 ebx, eax
  0028b	0f 8e 3f ff ff
	ff		 jle	 $LL10@ScanTarget
  00291	8b 4d e4	 mov	 ecx, DWORD PTR tv877[ebp]
  00294	8b 55 ec	 mov	 edx, DWORD PTR __j$1$[ebp]
$LN5@ScanTarget:
  00297	03 4d e8	 add	 ecx, DWORD PTR __nMaxWidth$1$[ebp]
  0029a	42		 inc	 edx
  0029b	89 55 ec	 mov	 DWORD PTR __j$1$[ebp], edx
  0029e	89 4d e4	 mov	 DWORD PTR tv877[ebp], ecx
  002a1	3b 55 e0	 cmp	 edx, DWORD PTR __nLinkZMax$1$[ebp]
  002a4	0f 8e 09 ff ff
	ff		 jle	 $LL7@ScanTarget
$LN2@ScanTarget:
  002aa	8b 75 d8	 mov	 esi, DWORD PTR _this$1$[ebp]
  002ad	8b 7d 08	 mov	 edi, DWORD PTR _pObjCenter$[ebp]
  002b0	8b 5d dc	 mov	 ebx, DWORD PTR __i$1$[ebp]
  002b3	43		 inc	 ebx
  002b4	8b 46 30	 mov	 eax, DWORD PTR [esi+48]
  002b7	8b 8f 6c 01 00
	00		 mov	 ecx, DWORD PTR [edi+364]
  002bd	83 c1 24	 add	 ecx, 36			; 00000024H
  002c0	89 5d dc	 mov	 DWORD PTR __i$1$[ebp], ebx
  002c3	ff b0 b8 01 00
	00		 push	 DWORD PTR [eax+440]
  002c9	6a 02		 push	 2
  002cb	e8 00 00 00 00	 call	 ?GetMaxLinkLevel@CLayeredLinkMap@@QAEHKH@Z ; CLayeredLinkMap::GetMaxLinkLevel
  002d0	3b d8		 cmp	 ebx, eax
  002d2	0f 8c ab fd ff
	ff		 jl	 $LL4@ScanTarget
$LN51@ScanTarget:
  002d8	5f		 pop	 edi

; 339  : #endif	// __CLIENT
; 340  : 	return NULL;
; 341  : }

  002d9	5e		 pop	 esi
  002da	33 c0		 xor	 eax, eax
  002dc	5b		 pop	 ebx
  002dd	8b e5		 mov	 esp, ebp
  002df	5d		 pop	 ebp
  002e0	c2 08 00	 ret	 8
$LN46@ScanTarget:
  002e3	5f		 pop	 edi

; 334  : 						return pMover;

  002e4	8b c6		 mov	 eax, esi

; 339  : #endif	// __CLIENT
; 340  : 	return NULL;
; 341  : }

  002e6	5e		 pop	 esi
  002e7	5b		 pop	 ebx
  002e8	8b e5		 mov	 esp, ebp
  002ea	5d		 pop	 ebp
  002eb	c2 08 00	 ret	 8
?ScanTargetOverHealer@CAIInterface@@IAEPAVCMover@@PAVCObj@@M@Z ENDP ; CAIInterface::ScanTargetOverHealer
_TEXT	ENDS
; Function compile flags: /Ogtp
; File C:\IAGOS\server\v18\Source\Source\_aiinterface\aiinterface.cpp
; File C:\IAGOS\server\v18\Source\Source\_Common\Obj.h
; File C:\IAGOS\server\v18\Source\Source\_aiinterface\aiinterface.cpp
; File C:\IAGOS\server\v18\Source\Source\_Common\Obj.h
; File C:\IAGOS\server\v18\Source\Source\_aiinterface\aiinterface.cpp
; File C:\IAGOS\server\v18\Source\Source\_Common\Obj.h
; File C:\IAGOS\server\v18\Source\Source\_aiinterface\aiinterface.cpp
; File C:\IAGOS\server\v18\Source\Source\_Common\Obj.h
; File C:\IAGOS\server\v18\Source\Source\_aiinterface\aiinterface.cpp
; File C:\IAGOS\server\v18\Source\Source\_Common\Obj.h
; File C:\IAGOS\server\v18\Source\Source\DX_SDK\d3dx9math.inl
; File C:\IAGOS\server\v18\Source\Source\_Common\Obj.h
; File C:\IAGOS\server\v18\Source\Source\DX_SDK\d3dx9math.inl
; File C:\IAGOS\server\v18\Source\Source\_aiinterface\aiinterface.cpp
; File C:\IAGOS\server\v18\Source\Source\DX_SDK\d3dx9math.inl
; File C:\IAGOS\server\v18\Source\Source\_aiinterface\aiinterface.cpp
; File C:\IAGOS\server\v18\Source\Source\_Common\Mover.h
; File C:\IAGOS\server\v18\Source\Source\_aiinterface\aiinterface.cpp
;	COMDAT ?ScanTargetStrong@CAIInterface@@IAEPAVCMover@@PAVCObj@@M@Z
_TEXT	SEGMENT
$T1 = -84						; size = 12
_vPos$ = -72						; size = 12
tv900 = -56						; size = 4
_fRadius$1$ = -52					; size = 4
__pObjs$1$ = -48					; size = 4
__i$1$ = -44						; size = 4
__nX$1$ = -40						; size = 4
$T2 = -40						; size = 4
tv881 = -36						; size = 4
__j$1$ = -36						; size = 4
tv895 = -32						; size = 4
__nMaxWidth$1$ = -28					; size = 4
tv898 = -24						; size = 4
_this$1$ = -20						; size = 4
tv875 = -16						; size = 4
__nUnit$1$ = -16					; size = 4
__nLinkZ$1$ = -12					; size = 4
__nLinkX$1$ = -8					; size = 4
_pObjMax$1$ = -4					; size = 4
_pObjCenter$ = 8					; size = 4
_fRangeMeter$ = 12					; size = 4
?ScanTargetStrong@CAIInterface@@IAEPAVCMover@@PAVCObj@@M@Z PROC ; CAIInterface::ScanTargetStrong, COMDAT
; _this$ = ecx

; 279  : {

  00000	55		 push	 ebp
  00001	8b ec		 mov	 ebp, esp
  00003	83 ec 54	 sub	 esp, 84			; 00000054H
  00006	53		 push	 ebx
  00007	56		 push	 esi
  00008	57		 push	 edi
; File C:\IAGOS\server\v18\Source\Source\_Common\Obj.h

; 215  : 	D3DXVECTOR3		GetPos()	{ return m_vPos; }

  00009	8b 7d 08	 mov	 edi, DWORD PTR _pObjCenter$[ebp]
; File C:\IAGOS\server\v18\Source\Source\_aiinterface\aiinterface.cpp

; 279  : {

  0000c	8b d1		 mov	 edx, ecx

; 280  : 	CObj *pObj;
; 281  : 	CObj *pObjMax = NULL;	// °ˇŔĺ˝ëłŃ Ć÷ŔÎĹÍ.

  0000e	33 f6		 xor	 esi, esi
  00010	89 55 ec	 mov	 DWORD PTR _this$1$[ebp], edx

; 288  : 	FOR_LINKMAP( pObjCenter->GetWorld(), vPos, pObj, (int)( fRangeMeter / MPU ), CObj::linkPlayer, GetMover()->GetLayer() )

  00013	33 db		 xor	 ebx, ebx
  00015	89 75 fc	 mov	 DWORD PTR _pObjMax$1$[ebp], esi
  00018	89 5d d4	 mov	 DWORD PTR __i$1$[ebp], ebx
  0001b	8b 8f 6c 01 00
	00		 mov	 ecx, DWORD PTR [edi+364]
; File C:\IAGOS\server\v18\Source\Source\_Common\Obj.h

; 215  : 	D3DXVECTOR3		GetPos()	{ return m_vPos; }

  00021	f3 0f 7e 87 60
	01 00 00	 movq	 xmm0, QWORD PTR [edi+352]
  00029	66 0f d6 45 b8	 movq	 QWORD PTR _vPos$[ebp], xmm0
; File C:\IAGOS\server\v18\Source\Source\_aiinterface\aiinterface.cpp

; 286  : 	FLOAT fRadius = fRangeMeter * fRangeMeter;

  0002e	f3 0f 10 45 0c	 movss	 xmm0, DWORD PTR _fRangeMeter$[ebp]
  00033	66 0f 6e 49 14	 movd	 xmm1, DWORD PTR [ecx+20]

; 288  : 	FOR_LINKMAP( pObjCenter->GetWorld(), vPos, pObj, (int)( fRangeMeter / MPU ), CObj::linkPlayer, GetMover()->GetLayer() )

  00038	83 c1 24	 add	 ecx, 36			; 00000024H
  0003b	f3 0f 59 c0	 mulss	 xmm0, xmm0
; File C:\IAGOS\server\v18\Source\Source\_Common\Obj.h

; 215  : 	D3DXVECTOR3		GetPos()	{ return m_vPos; }

  0003f	8b 87 68 01 00
	00		 mov	 eax, DWORD PTR [edi+360]
; File C:\IAGOS\server\v18\Source\Source\_aiinterface\aiinterface.cpp

; 288  : 	FOR_LINKMAP( pObjCenter->GetWorld(), vPos, pObj, (int)( fRangeMeter / MPU ), CObj::linkPlayer, GetMover()->GetLayer() )

  00045	0f 5b c9	 cvtdq2ps xmm1, xmm1
; File C:\IAGOS\server\v18\Source\Source\_Common\Obj.h

; 215  : 	D3DXVECTOR3		GetPos()	{ return m_vPos; }

  00048	89 45 c0	 mov	 DWORD PTR _vPos$[ebp+8], eax
; File C:\IAGOS\server\v18\Source\Source\_aiinterface\aiinterface.cpp

; 286  : 	FLOAT fRadius = fRangeMeter * fRangeMeter;

  0004b	f3 0f 11 45 cc	 movss	 DWORD PTR _fRadius$1$[ebp], xmm0

; 288  : 	FOR_LINKMAP( pObjCenter->GetWorld(), vPos, pObj, (int)( fRangeMeter / MPU ), CObj::linkPlayer, GetMover()->GetLayer() )

  00050	f3 0f 10 45 b8	 movss	 xmm0, DWORD PTR _vPos$[ebp]
  00055	f3 0f 5e c1	 divss	 xmm0, xmm1
  00059	f3 0f 2c c0	 cvttss2si eax, xmm0
  0005d	f3 0f 10 45 c0	 movss	 xmm0, DWORD PTR _vPos$[ebp+8]
  00062	f3 0f 5e c1	 divss	 xmm0, xmm1
  00066	89 45 f8	 mov	 DWORD PTR __nLinkX$1$[ebp], eax
  00069	f3 0f 2c c0	 cvttss2si eax, xmm0
  0006d	89 45 f4	 mov	 DWORD PTR __nLinkZ$1$[ebp], eax
  00070	8b 42 30	 mov	 eax, DWORD PTR [edx+48]
  00073	ff b0 b8 01 00
	00		 push	 DWORD PTR [eax+440]
  00079	6a 02		 push	 2
  0007b	e8 00 00 00 00	 call	 ?GetMaxLinkLevel@CLayeredLinkMap@@QAEHKH@Z ; CLayeredLinkMap::GetMaxLinkLevel
  00080	85 c0		 test	 eax, eax
  00082	0f 8e 79 02 00
	00		 jle	 $LN59@ScanTarget
  00088	0f 1f 84 00 00
	00 00 00	 npad	 8
$LL4@ScanTarget:
  00090	8b 45 ec	 mov	 eax, DWORD PTR _this$1$[ebp]
  00093	8b 8f 6c 01 00
	00		 mov	 ecx, DWORD PTR [edi+364]
  00099	83 c1 24	 add	 ecx, 36			; 00000024H
  0009c	8b 40 30	 mov	 eax, DWORD PTR [eax+48]
  0009f	ff b0 b8 01 00
	00		 push	 DWORD PTR [eax+440]
  000a5	53		 push	 ebx
  000a6	6a 02		 push	 2
  000a8	e8 00 00 00 00	 call	 ?GetLinkWidth@CLayeredLinkMap@@QAEHKHH@Z ; CLayeredLinkMap::GetLinkWidth
  000ad	8b 8f 6c 01 00
	00		 mov	 ecx, DWORD PTR [edi+364]
  000b3	8b f0		 mov	 esi, eax
  000b5	8b 45 ec	 mov	 eax, DWORD PTR _this$1$[ebp]
  000b8	83 c1 24	 add	 ecx, 36			; 00000024H
  000bb	8b 40 30	 mov	 eax, DWORD PTR [eax+48]
  000be	ff b0 b8 01 00
	00		 push	 DWORD PTR [eax+440]
  000c4	53		 push	 ebx
  000c5	6a 02		 push	 2
  000c7	e8 00 00 00 00	 call	 ?GetObj@CLayeredLinkMap@@QAEPAPAVCObj@@KKH@Z ; CLayeredLinkMap::GetObj
  000cc	8b 8f 6c 01 00
	00		 mov	 ecx, DWORD PTR [edi+364]
  000d2	89 45 d0	 mov	 DWORD PTR __pObjs$1$[ebp], eax
  000d5	66 0f 6e 05 00
	00 00 00	 movd	 xmm0, DWORD PTR ?OLD_MPU@@3HB ; OLD_MPU
  000dd	f3 0f 10 4d 0c	 movss	 xmm1, DWORD PTR _fRangeMeter$[ebp]
  000e2	8b 51 08	 mov	 edx, DWORD PTR [ecx+8]
  000e5	8b 41 04	 mov	 eax, DWORD PTR [ecx+4]
  000e8	8b d8		 mov	 ebx, eax
  000ea	0f af d6	 imul	 edx, esi
  000ed	c1 e0 07	 shl	 eax, 7
  000f0	0f af de	 imul	 ebx, esi
  000f3	8b 71 14	 mov	 esi, DWORD PTR [ecx+20]
  000f6	0f 5b c0	 cvtdq2ps xmm0, xmm0
  000f9	89 55 dc	 mov	 DWORD PTR tv881[ebp], edx
  000fc	99		 cdq
  000fd	89 5d e4	 mov	 DWORD PTR __nMaxWidth$1$[ebp], ebx
  00100	f7 fb		 idiv	 ebx
  00102	f3 0f 5e c8	 divss	 xmm1, xmm0
  00106	8b f8		 mov	 edi, eax
  00108	8b c6		 mov	 eax, esi
  0010a	89 7d f0	 mov	 DWORD PTR __nUnit$1$[ebp], edi
  0010d	0f af c7	 imul	 eax, edi
  00110	99		 cdq
  00111	2b c2		 sub	 eax, edx
  00113	8b c8		 mov	 ecx, eax
  00115	8b 45 f8	 mov	 eax, DWORD PTR __nLinkX$1$[ebp]
  00118	99		 cdq
  00119	f7 ff		 idiv	 edi
  0011b	f3 0f 2c 45 b8	 cvttss2si eax, DWORD PTR _vPos$[ebp]
  00120	2b 55 f8	 sub	 edx, DWORD PTR __nLinkX$1$[ebp]
  00123	d1 f9		 sar	 ecx, 1
  00125	0f af d6	 imul	 edx, esi
  00128	03 d0		 add	 edx, eax
  0012a	33 c0		 xor	 eax, eax
  0012c	3b d1		 cmp	 edx, ecx
  0012e	0f 9f c0	 setg	 al
  00131	33 db		 xor	 ebx, ebx
  00133	89 45 d8	 mov	 DWORD PTR __nX$1$[ebp], eax
  00136	8b 45 f4	 mov	 eax, DWORD PTR __nLinkZ$1$[ebp]
  00139	99		 cdq
  0013a	f7 ff		 idiv	 edi
  0013c	f3 0f 2c 45 c0	 cvttss2si eax, DWORD PTR _vPos$[ebp+8]
  00141	2b 55 f4	 sub	 edx, DWORD PTR __nLinkZ$1$[ebp]
  00144	0f af d6	 imul	 edx, esi
  00147	f3 0f 2c f1	 cvttss2si esi, xmm1
  0014b	03 d0		 add	 edx, eax
  0014d	8b 45 f8	 mov	 eax, DWORD PTR __nLinkX$1$[ebp]
  00150	3b d1		 cmp	 edx, ecx
  00152	0f 9f c3	 setg	 bl
  00155	8b ce		 mov	 ecx, esi
  00157	f7 d9		 neg	 ecx
  00159	03 c1		 add	 eax, ecx
  0015b	99		 cdq
  0015c	f7 ff		 idiv	 edi
  0015e	33 d2		 xor	 edx, edx
  00160	48		 dec	 eax
  00161	03 45 d8	 add	 eax, DWORD PTR __nX$1$[ebp]
  00164	0f 49 d0	 cmovns	 edx, eax
  00167	8b 45 f4	 mov	 eax, DWORD PTR __nLinkZ$1$[ebp]
  0016a	03 c1		 add	 eax, ecx
  0016c	89 55 e0	 mov	 DWORD PTR tv895[ebp], edx
  0016f	99		 cdq
  00170	f7 ff		 idiv	 edi
  00172	8d 48 ff	 lea	 ecx, DWORD PTR [eax-1]
  00175	03 cb		 add	 ecx, ebx
  00177	8b 45 f8	 mov	 eax, DWORD PTR __nLinkX$1$[ebp]
  0017a	03 c6		 add	 eax, esi
  0017c	99		 cdq
  0017d	f7 ff		 idiv	 edi
  0017f	8b 7d e4	 mov	 edi, DWORD PTR __nMaxWidth$1$[ebp]
  00182	03 45 d8	 add	 eax, DWORD PTR __nX$1$[ebp]
  00185	3b c7		 cmp	 eax, edi
  00187	8d 57 ff	 lea	 edx, DWORD PTR [edi-1]
  0018a	0f 4c d0	 cmovl	 edx, eax
  0018d	8b 45 f4	 mov	 eax, DWORD PTR __nLinkZ$1$[ebp]
  00190	03 c6		 add	 eax, esi
  00192	89 55 e8	 mov	 DWORD PTR tv898[ebp], edx
  00195	99		 cdq
  00196	f7 7d f0	 idiv	 DWORD PTR __nUnit$1$[ebp]
  00199	8b 55 dc	 mov	 edx, DWORD PTR tv881[ebp]
  0019c	03 c3		 add	 eax, ebx
  0019e	3b c2		 cmp	 eax, edx
  001a0	8d 5a ff	 lea	 ebx, DWORD PTR [edx-1]
  001a3	0f 4c d8	 cmovl	 ebx, eax
  001a6	33 f6		 xor	 esi, esi
  001a8	85 c9		 test	 ecx, ecx
  001aa	89 5d c8	 mov	 DWORD PTR tv900[ebp], ebx
  001ad	0f 49 f1	 cmovns	 esi, ecx
  001b0	89 75 dc	 mov	 DWORD PTR __j$1$[ebp], esi
  001b3	3b f3		 cmp	 esi, ebx
  001b5	0f 8f 0c 01 00
	00		 jg	 $LN2@ScanTarget
  001bb	8b 4d e0	 mov	 ecx, DWORD PTR tv895[ebp]
  001be	8b c6		 mov	 eax, esi
  001c0	8b 55 e8	 mov	 edx, DWORD PTR tv898[ebp]
  001c3	0f af c7	 imul	 eax, edi
  001c6	03 c1		 add	 eax, ecx
  001c8	89 45 d8	 mov	 DWORD PTR $T2[ebp], eax
  001cb	0f 1f 44 00 00	 npad	 5
$LL7@ScanTarget:
  001d0	8b d9		 mov	 ebx, ecx
  001d2	3b da		 cmp	 ebx, edx
  001d4	0f 8f db 00 00
	00		 jg	 $LN5@ScanTarget
  001da	8b 4d d0	 mov	 ecx, DWORD PTR __pObjs$1$[ebp]
  001dd	8d 0c 81	 lea	 ecx, DWORD PTR [ecx+eax*4]
  001e0	89 4d f0	 mov	 DWORD PTR tv875[ebp], ecx
$LL10@ScanTarget:
  001e3	8b 31		 mov	 esi, DWORD PTR [ecx]
  001e5	bf e8 03 00 00	 mov	 edi, 1000		; 000003e8H
  001ea	85 f6		 test	 esi, esi
  001ec	0f 84 a8 00 00
	00		 je	 $LN8@ScanTarget
$LL11@ScanTarget:
  001f2	8b c7		 mov	 eax, edi
  001f4	4f		 dec	 edi
  001f5	85 c0		 test	 eax, eax
  001f7	0f 84 97 00 00
	00		 je	 $LN60@ScanTarget
; File C:\IAGOS\server\v18\Source\Source\_Common\Obj.h

; 215  : 	D3DXVECTOR3		GetPos()	{ return m_vPos; }

  001fd	f3 0f 7e 86 60
	01 00 00	 movq	 xmm0, QWORD PTR [esi+352]
  00205	8b 86 68 01 00
	00		 mov	 eax, DWORD PTR [esi+360]
  0020b	66 0f d6 45 ac	 movq	 QWORD PTR $T1[ebp], xmm0
; File C:\IAGOS\server\v18\Source\Source\DX_SDK\d3dx9math.inl

; 383  :     return D3DXVECTOR3(x - v.x, y - v.y, z - v.z);

  00210	f3 0f 10 4d ac	 movss	 xmm1, DWORD PTR $T1[ebp]
  00215	f3 0f 10 55 b0	 movss	 xmm2, DWORD PTR $T1[ebp+4]
  0021a	f3 0f 5c 55 bc	 subss	 xmm2, DWORD PTR _vPos$[ebp+4]
  0021f	f3 0f 5c 4d b8	 subss	 xmm1, DWORD PTR _vPos$[ebp]
; File C:\IAGOS\server\v18\Source\Source\_Common\Obj.h

; 215  : 	D3DXVECTOR3		GetPos()	{ return m_vPos; }

  00224	89 45 b4	 mov	 DWORD PTR $T1[ebp+8], eax
; File C:\IAGOS\server\v18\Source\Source\DX_SDK\d3dx9math.inl

; 383  :     return D3DXVECTOR3(x - v.x, y - v.y, z - v.z);

  00227	f3 0f 10 45 b4	 movss	 xmm0, DWORD PTR $T1[ebp+8]
  0022c	f3 0f 5c 45 c0	 subss	 xmm0, DWORD PTR _vPos$[ebp+8]
; File C:\IAGOS\server\v18\Source\Source\_aiinterface\aiinterface.cpp

; 290  : 		vDist = pObj->GetPos() - vPos;	// µÎÁÂÇĄ°Ł ş¤ĹÍ

  00231	f3 0f 59 d2	 mulss	 xmm2, xmm2
; File C:\IAGOS\server\v18\Source\Source\DX_SDK\d3dx9math.inl

; 1698 :     return pV->x * pV->x + pV->y * pV->y + pV->z * pV->z;

  00235	f3 0f 59 c9	 mulss	 xmm1, xmm1
  00239	f3 0f 59 c0	 mulss	 xmm0, xmm0
  0023d	f3 0f 58 d1	 addss	 xmm2, xmm1
  00241	f3 0f 58 d0	 addss	 xmm2, xmm0
; File C:\IAGOS\server\v18\Source\Source\_aiinterface\aiinterface.cpp

; 292  : 		if( fDistSq < fRadius )	

  00245	f3 0f 10 45 cc	 movss	 xmm0, DWORD PTR _fRadius$1$[ebp]
  0024a	0f 2f c2	 comiss	 xmm0, xmm2
  0024d	76 37		 jbe	 SHORT $LN20@ScanTarget
; File C:\IAGOS\server\v18\Source\Source\_Common\Mover.h

; 1740 : 		if( GetAdjParam(DST_CHRSTATE) & CHS_INVISIBILITY )	// ¸¶ąýĹő¸íČ­°ˇ °É·Č´Â°ˇ?

  0024f	6a 40		 push	 64			; 00000040H
  00251	8b ce		 mov	 ecx, esi
  00253	e8 00 00 00 00	 call	 ?GetAdjParam@CMover@@QAEHH@Z ; CMover::GetAdjParam
  00258	a9 00 04 00 00	 test	 eax, 1024		; 00000400H
  0025d	75 27		 jne	 SHORT $LN20@ScanTarget

; 1741 : 			return TRUE;
; 1742 : 	return ( ( m_dwMode & dwMode ) == dwMode ) ? TRUE : FALSE; 

  0025f	8b 86 40 02 00
	00		 mov	 eax, DWORD PTR [esi+576]
  00265	d1 e8		 shr	 eax, 1
  00267	a9 01 00 00 00	 test	 eax, 1
; File C:\IAGOS\server\v18\Source\Source\_aiinterface\aiinterface.cpp

; 294  : 			if(  !( ((CMover*)pObj)->IsMode( TRANSPARENT_MODE ) ) )

  0026c	75 18		 jne	 SHORT $LN20@ScanTarget

; 295  : 			{
; 296  : 				if( pObjMax )

  0026e	8b 4d fc	 mov	 ecx, DWORD PTR _pObjMax$1$[ebp]
  00271	85 c9		 test	 ecx, ecx
  00273	74 0e		 je	 SHORT $LN19@ScanTarget

; 297  : 				{
; 298  : 					if( ((CMover *)pObj)->GetLevel() > ((CMover *)pObjMax)->GetLevel() )		// ´ő ˝ëłŃŔ» ĂŁľŇ´Ů.

  00275	8b 86 d8 05 00
	00		 mov	 eax, DWORD PTR [esi+1496]
  0027b	3b 81 d8 05 00
	00		 cmp	 eax, DWORD PTR [ecx+1496]
  00281	7e 03		 jle	 SHORT $LN20@ScanTarget
$LN19@ScanTarget:

; 299  : 						pObjMax = pObj;
; 300  : 				} else
; 301  : 					pObjMax = pObj;
; 302  : 
; 303  : 			}
; 304  : 		}
; 305  : 	}
; 306  : 	END_LINKMAP

  00283	89 75 fc	 mov	 DWORD PTR _pObjMax$1$[ebp], esi
$LN20@ScanTarget:
  00286	8b b6 80 01 00
	00		 mov	 esi, DWORD PTR [esi+384]
  0028c	85 f6		 test	 esi, esi
  0028e	0f 85 5e ff ff
	ff		 jne	 $LL11@ScanTarget
$LN60@ScanTarget:
  00294	8b 4d f0	 mov	 ecx, DWORD PTR tv875[ebp]
  00297	8b 55 e8	 mov	 edx, DWORD PTR tv898[ebp]
$LN8@ScanTarget:

; 288  : 	FOR_LINKMAP( pObjCenter->GetWorld(), vPos, pObj, (int)( fRangeMeter / MPU ), CObj::linkPlayer, GetMover()->GetLayer() )

  0029a	43		 inc	 ebx
  0029b	83 c1 04	 add	 ecx, 4
  0029e	89 4d f0	 mov	 DWORD PTR tv875[ebp], ecx
  002a1	3b da		 cmp	 ebx, edx
  002a3	0f 8e 3a ff ff
	ff		 jle	 $LL10@ScanTarget
  002a9	8b 75 dc	 mov	 esi, DWORD PTR __j$1$[ebp]
  002ac	8b 45 d8	 mov	 eax, DWORD PTR $T2[ebp]
  002af	8b 7d e4	 mov	 edi, DWORD PTR __nMaxWidth$1$[ebp]
  002b2	8b 4d e0	 mov	 ecx, DWORD PTR tv895[ebp]
$LN5@ScanTarget:
  002b5	46		 inc	 esi
  002b6	03 c7		 add	 eax, edi
  002b8	89 75 dc	 mov	 DWORD PTR __j$1$[ebp], esi
  002bb	89 45 d8	 mov	 DWORD PTR $T2[ebp], eax
  002be	3b 75 c8	 cmp	 esi, DWORD PTR tv900[ebp]
  002c1	0f 8e 09 ff ff
	ff		 jle	 $LL7@ScanTarget
$LN2@ScanTarget:
  002c7	8b 45 ec	 mov	 eax, DWORD PTR _this$1$[ebp]
  002ca	8b 7d 08	 mov	 edi, DWORD PTR _pObjCenter$[ebp]
  002cd	8b 5d d4	 mov	 ebx, DWORD PTR __i$1$[ebp]
  002d0	43		 inc	 ebx
  002d1	8b 40 30	 mov	 eax, DWORD PTR [eax+48]
  002d4	8b 8f 6c 01 00
	00		 mov	 ecx, DWORD PTR [edi+364]
  002da	83 c1 24	 add	 ecx, 36			; 00000024H
  002dd	89 5d d4	 mov	 DWORD PTR __i$1$[ebp], ebx
  002e0	ff b0 b8 01 00
	00		 push	 DWORD PTR [eax+440]
  002e6	6a 02		 push	 2
  002e8	e8 00 00 00 00	 call	 ?GetMaxLinkLevel@CLayeredLinkMap@@QAEHKH@Z ; CLayeredLinkMap::GetMaxLinkLevel
  002ed	3b d8		 cmp	 ebx, eax
  002ef	0f 8c 9b fd ff
	ff		 jl	 $LL4@ScanTarget

; 307  : 
; 308  : 	return (CMover *)pObjMax;

  002f5	8b 45 fc	 mov	 eax, DWORD PTR _pObjMax$1$[ebp]
  002f8	5f		 pop	 edi

; 309  : }

  002f9	5e		 pop	 esi
  002fa	5b		 pop	 ebx
  002fb	8b e5		 mov	 esp, ebp
  002fd	5d		 pop	 ebp
  002fe	c2 08 00	 ret	 8
$LN59@ScanTarget:
  00301	5f		 pop	 edi

; 307  : 
; 308  : 	return (CMover *)pObjMax;

  00302	8b c6		 mov	 eax, esi

; 309  : }

  00304	5e		 pop	 esi
  00305	5b		 pop	 ebx
  00306	8b e5		 mov	 esp, ebp
  00308	5d		 pop	 ebp
  00309	c2 08 00	 ret	 8
?ScanTargetStrong@CAIInterface@@IAEPAVCMover@@PAVCObj@@M@Z ENDP ; CAIInterface::ScanTargetStrong
_TEXT	ENDS
; Function compile flags: /Ogtp
; File C:\IAGOS\server\v18\Source\Source\_aiinterface\aiinterface.cpp
; File C:\IAGOS\server\v18\Source\Source\_Common\Obj.h
; File C:\IAGOS\server\v18\Source\Source\_aiinterface\aiinterface.cpp
; File C:\IAGOS\server\v18\Source\Source\_Common\Obj.h
; File C:\IAGOS\server\v18\Source\Source\_aiinterface\aiinterface.cpp
; File C:\IAGOS\server\v18\Source\Source\_Common\Obj.h
; File C:\IAGOS\server\v18\Source\Source\_aiinterface\aiinterface.cpp
; File C:\IAGOS\server\v18\Source\Source\_Common\Mover.h
; File C:\IAGOS\server\v18\Source\Source\_Common\Project.h
; File C:\IAGOS\server\v18\Source\Source\_Common\Mover.h
; File C:\IAGOS\server\v18\Source\Source\_Common\Project.h
; File C:\IAGOS\server\v18\Source\Source\_aiinterface\aiinterface.cpp
; File C:\IAGOS\server\v18\Source\Source\_Common\Mover.h
; File C:\IAGOS\server\v18\Source\Source\_aiinterface\aiinterface.cpp
; File C:\IAGOS\server\v18\Source\Source\_Common\Mover.h
; File C:\IAGOS\server\v18\Source\Source\_aiinterface\aiinterface.cpp
; File C:\IAGOS\server\v18\Source\Source\_Common\Mover.h
; File C:\IAGOS\server\v18\Source\Source\_aiinterface\aiinterface.cpp
; File C:\IAGOS\server\v18\Source\Source\_Common\Mover.h
; File C:\IAGOS\server\v18\Source\Source\_aiinterface\aiinterface.cpp
; File C:\IAGOS\server\v18\Source\Source\_Common\Mover.h
; File C:\IAGOS\server\v18\Source\Source\_aiinterface\aiinterface.cpp
; File C:\IAGOS\server\v18\Source\Source\_AIInterface\Action.h
; File C:\IAGOS\server\v18\Source\Source\_aiinterface\aiinterface.cpp
; File C:\IAGOS\server\v18\Source\Source\_Common\Obj.h
; File C:\IAGOS\server\v18\Source\Source\DX_SDK\d3dx9math.inl
; File C:\IAGOS\server\v18\Source\Source\_Common\Obj.h
; File C:\IAGOS\server\v18\Source\Source\DX_SDK\d3dx9math.inl
; File C:\IAGOS\server\v18\Source\Source\_aiinterface\aiinterface.cpp
; File C:\IAGOS\server\v18\Source\Source\DX_SDK\d3dx9math.inl
; File C:\IAGOS\server\v18\Source\Source\_aiinterface\aiinterface.cpp
; File C:\IAGOS\server\v18\Source\Source\_Common\Mover.h
; File C:\IAGOS\server\v18\Source\Source\_aiinterface\aiinterface.cpp
;	COMDAT ?ScanTarget@CAIInterface@@IAEPAVCMover@@PAVCObj@@HHKKH@Z
_TEXT	SEGMENT
$T1 = -104						; size = 12
_vPos$ = -92						; size = 12
tv1073 = -80						; size = 4
tv1065 = -76						; size = 4
tv1066 = -72						; size = 4
__pObjs$1$ = -68					; size = 4
tv1046 = -64						; size = 4
tv1051 = -60						; size = 4
tv1053 = -56						; size = 4
tv1055 = -52						; size = 4
tv1057 = -48						; size = 4
__i$1$ = -44						; size = 4
__nZ$1$ = -40						; size = 4
__nLinkZMax$1$ = -40					; size = 4
__nMaxHeight$1$ = -36					; size = 4
tv1042 = -36						; size = 4
tv1043 = -32						; size = 4
_bCondScan$1$ = -28					; size = 4
_this$1$ = -24						; size = 4
__nMaxWidth$1$ = -20					; size = 4
__j$1$ = -16						; size = 4
__k$1$ = -12						; size = 4
__nLinkZ$1$ = -8					; size = 4
__nLinkX$1$ = -4					; size = 4
_pObjCenter$ = 8					; size = 4
_nRangeMeter$ = 12					; size = 4
__nUnit$1$ = 12						; size = 4
___limit$1$ = 12					; size = 4
_nJobCond$ = 16						; size = 4
_dwQuest$ = 20						; size = 4
_dwItem$ = 24						; size = 4
_nChao$ = 28						; size = 4
?ScanTarget@CAIInterface@@IAEPAVCMover@@PAVCObj@@HHKKH@Z PROC ; CAIInterface::ScanTarget, COMDAT
; _this$ = ecx

; 186  : {

  00000	55		 push	 ebp
  00001	8b ec		 mov	 ebp, esp
  00003	83 ec 68	 sub	 esp, 104		; 00000068H

; 193  : 	if( nJobCond || dwQuest || dwItem || nChao )

  00006	83 7d 10 00	 cmp	 DWORD PTR _nJobCond$[ebp], 0
  0000a	53		 push	 ebx
; File C:\IAGOS\server\v18\Source\Source\_Common\Obj.h

; 215  : 	D3DXVECTOR3		GetPos()	{ return m_vPos; }

  0000b	8b 5d 08	 mov	 ebx, DWORD PTR _pObjCenter$[ebp]
; File C:\IAGOS\server\v18\Source\Source\_aiinterface\aiinterface.cpp

; 186  : {

  0000e	56		 push	 esi
  0000f	8b f1		 mov	 esi, ecx

; 187  : 	CObj* pObj;
; 188  : 	D3DXVECTOR3 vPos = pObjCenter->GetPos();
; 189  : 	D3DXVECTOR3 vDist;
; 190  : 	CMover *pTarget = NULL;
; 191  : 	int nAble = 0;
; 192  : 	BOOL bCondScan = FALSE;

  00011	c7 45 e4 00 00
	00 00		 mov	 DWORD PTR _bCondScan$1$[ebp], 0
  00018	57		 push	 edi
; File C:\IAGOS\server\v18\Source\Source\_Common\Obj.h

; 215  : 	D3DXVECTOR3		GetPos()	{ return m_vPos; }

  00019	f3 0f 7e 83 60
	01 00 00	 movq	 xmm0, QWORD PTR [ebx+352]
  00021	8b 83 68 01 00
	00		 mov	 eax, DWORD PTR [ebx+360]
; File C:\IAGOS\server\v18\Source\Source\_aiinterface\aiinterface.cpp

; 186  : {

  00027	89 75 e8	 mov	 DWORD PTR _this$1$[ebp], esi
; File C:\IAGOS\server\v18\Source\Source\_Common\Obj.h

; 215  : 	D3DXVECTOR3		GetPos()	{ return m_vPos; }

  0002a	66 0f d6 45 a4	 movq	 QWORD PTR _vPos$[ebp], xmm0
  0002f	89 45 ac	 mov	 DWORD PTR _vPos$[ebp+8], eax
; File C:\IAGOS\server\v18\Source\Source\_aiinterface\aiinterface.cpp

; 193  : 	if( nJobCond || dwQuest || dwItem || nChao )

  00032	75 12		 jne	 SHORT $LN14@ScanTarget
  00034	83 7d 14 00	 cmp	 DWORD PTR _dwQuest$[ebp], 0
  00038	75 0c		 jne	 SHORT $LN14@ScanTarget
  0003a	83 7d 18 00	 cmp	 DWORD PTR _dwItem$[ebp], 0
  0003e	75 06		 jne	 SHORT $LN14@ScanTarget
  00040	83 7d 1c 00	 cmp	 DWORD PTR _nChao$[ebp], 0
  00044	74 07		 je	 SHORT $LN13@ScanTarget
$LN14@ScanTarget:

; 194  : 		bCondScan = TRUE;

  00046	c7 45 e4 01 00
	00 00		 mov	 DWORD PTR _bCondScan$1$[ebp], 1
$LN13@ScanTarget:
; File C:\IAGOS\server\v18\Source\Source\_Common\Mover.h

; 1020 : 	MoverProp*		GetProp() { return prj.GetMoverProp( m_dwIndex ); }	// °´ĂĽŔÇ ÇÁ·ÎĆŰĆĽ ľň±â 	

  0004d	8b 46 30	 mov	 eax, DWORD PTR [esi+48]
; File C:\IAGOS\server\v18\Source\Source\_Common\Project.h

; 1406 : 	VERIFY_RANGE( nIndex, 0, m_nMoverPropSize, "GetMoverProp range_error", NULL );

  00050	8b 0d b4 01 00
	00		 mov	 ecx, DWORD PTR ?prj@@3VCProject@@A+436
; File C:\IAGOS\server\v18\Source\Source\_Common\Mover.h

; 1020 : 	MoverProp*		GetProp() { return prj.GetMoverProp( m_dwIndex ); }	// °´ĂĽŔÇ ÇÁ·ÎĆŰĆĽ ľň±â 	

  00056	8b 80 74 01 00
	00		 mov	 eax, DWORD PTR [eax+372]
; File C:\IAGOS\server\v18\Source\Source\_Common\Project.h

; 1406 : 	VERIFY_RANGE( nIndex, 0, m_nMoverPropSize, "GetMoverProp range_error", NULL );

  0005c	85 c0		 test	 eax, eax
  0005e	78 12		 js	 SHORT $LN85@ScanTarget
  00060	3b c1		 cmp	 eax, ecx
  00062	7d 0e		 jge	 SHORT $LN85@ScanTarget

; 1407 : 	return m_pPropMover + nIndex;

  00064	69 c0 90 06 00
	00		 imul	 eax, eax, 1680
  0006a	03 05 b8 01 00
	00		 add	 eax, DWORD PTR ?prj@@3VCProject@@A+440
  00070	eb 18		 jmp	 SHORT $LN80@ScanTarget
$LN85@ScanTarget:

; 579  : 	LPCTSTR szErr = Error( _T( "%s min:%d, max:%d, index:%d" ), szMsg, nMin, nMax, nIndex ); 

  00072	50		 push	 eax
  00073	51		 push	 ecx
  00074	6a 00		 push	 0
  00076	68 00 00 00 00	 push	 OFFSET ??_C@_0BJ@GKPOBPPI@GetMoverProp?5range_error@
  0007b	68 00 00 00 00	 push	 OFFSET ??_C@_0BM@HMFGHCP@?$CFs?5min?3?$CFd?0?5max?3?$CFd?0?5index?3?$CFd@
  00080	e8 00 00 00 00	 call	 ?Error@@YAPBDPBDZZ	; Error
  00085	83 c4 14	 add	 esp, 20			; 00000014H

; 1406 : 	VERIFY_RANGE( nIndex, 0, m_nMoverPropSize, "GetMoverProp range_error", NULL );

  00088	33 c0		 xor	 eax, eax
$LN80@ScanTarget:
; File C:\IAGOS\server\v18\Source\Source\_aiinterface\aiinterface.cpp

; 196  : 	BOOL bGuard = ( GetMover()->GetProp()->dwClass == RANK_GUARD );

  0008a	8b 80 94 00 00
	00		 mov	 eax, DWORD PTR [eax+148]

; 201  : 	FOR_LINKMAP( pObjCenter->GetWorld(), vPos, pObj, nRangeMeter, CObj::linkPlayer, GetMover()->GetLayer() )

  00090	f3 0f 10 45 a4	 movss	 xmm0, DWORD PTR _vPos$[ebp]
  00095	89 45 b8	 mov	 DWORD PTR tv1066[ebp], eax
; File C:\IAGOS\server\v18\Source\Source\_Common\Mover.h

; 1018 : 	BOOL			IsFlyingNPC()		{ return (m_dwTypeFlag & OBJTYPE_FLYING) ? TRUE : FALSE; }		// şńÇŕÇü ¸÷ŔÎ°ˇ.

  00098	8b 46 30	 mov	 eax, DWORD PTR [esi+48]
; File C:\IAGOS\server\v18\Source\Source\_aiinterface\aiinterface.cpp

; 199  : 	float fRadius = (float)( nRangeMeter * nRangeMeter );	// °Ĺ¸® 

  0009b	8b 7d 0c	 mov	 edi, DWORD PTR _nRangeMeter$[ebp]
  0009e	8b f7		 mov	 esi, edi
  000a0	0f af f7	 imul	 esi, edi
; File C:\IAGOS\server\v18\Source\Source\_Common\Mover.h

; 1018 : 	BOOL			IsFlyingNPC()		{ return (m_dwTypeFlag & OBJTYPE_FLYING) ? TRUE : FALSE; }		// şńÇŕÇü ¸÷ŔÎ°ˇ.

  000a3	0f b7 88 3e 02
	00 00		 movzx	 ecx, WORD PTR [eax+574]
  000aa	83 e1 01	 and	 ecx, 1
  000ad	89 4d b4	 mov	 DWORD PTR tv1065[ebp], ecx
; File C:\IAGOS\server\v18\Source\Source\_aiinterface\aiinterface.cpp

; 201  : 	FOR_LINKMAP( pObjCenter->GetWorld(), vPos, pObj, nRangeMeter, CObj::linkPlayer, GetMover()->GetLayer() )

  000b0	8b 8b 6c 01 00
	00		 mov	 ecx, DWORD PTR [ebx+364]
  000b6	33 db		 xor	 ebx, ebx
  000b8	ff b0 b8 01 00
	00		 push	 DWORD PTR [eax+440]
  000be	89 5d d4	 mov	 DWORD PTR __i$1$[ebp], ebx
  000c1	6a 02		 push	 2
  000c3	66 0f 6e 49 14	 movd	 xmm1, DWORD PTR [ecx+20]
  000c8	83 c1 24	 add	 ecx, 36			; 00000024H
  000cb	0f 5b c9	 cvtdq2ps xmm1, xmm1
  000ce	f3 0f 5e c1	 divss	 xmm0, xmm1
  000d2	f3 0f 2c d0	 cvttss2si edx, xmm0
  000d6	f3 0f 10 45 ac	 movss	 xmm0, DWORD PTR _vPos$[ebp+8]
  000db	f3 0f 5e c1	 divss	 xmm0, xmm1
  000df	89 55 fc	 mov	 DWORD PTR __nLinkX$1$[ebp], edx
  000e2	f3 0f 2c d0	 cvttss2si edx, xmm0
  000e6	89 55 f8	 mov	 DWORD PTR __nLinkZ$1$[ebp], edx
  000e9	e8 00 00 00 00	 call	 ?GetMaxLinkLevel@CLayeredLinkMap@@QAEHKH@Z ; CLayeredLinkMap::GetMaxLinkLevel
  000ee	85 c0		 test	 eax, eax
  000f0	0f 8e 1a 03 00
	00		 jle	 $LN100@ScanTarget
  000f6	8b 45 fc	 mov	 eax, DWORD PTR __nLinkX$1$[ebp]
  000f9	8b c8		 mov	 ecx, eax
  000fb	2b cf		 sub	 ecx, edi
  000fd	89 4d d0	 mov	 DWORD PTR tv1057[ebp], ecx
  00100	8b 4d f8	 mov	 ecx, DWORD PTR __nLinkZ$1$[ebp]
  00103	8b d1		 mov	 edx, ecx
  00105	2b d7		 sub	 edx, edi
  00107	03 c7		 add	 eax, edi
  00109	89 45 c8	 mov	 DWORD PTR tv1053[ebp], eax
  0010c	89 55 cc	 mov	 DWORD PTR tv1055[ebp], edx
  0010f	8d 04 39	 lea	 eax, DWORD PTR [ecx+edi]
  00112	8b 7d 08	 mov	 edi, DWORD PTR _pObjCenter$[ebp]
  00115	89 45 c4	 mov	 DWORD PTR tv1051[ebp], eax
  00118	0f 1f 84 00 00
	00 00 00	 npad	 8
$LL4@ScanTarget:
  00120	8b 45 e8	 mov	 eax, DWORD PTR _this$1$[ebp]
  00123	8b 8f 6c 01 00
	00		 mov	 ecx, DWORD PTR [edi+364]
  00129	83 c1 24	 add	 ecx, 36			; 00000024H
  0012c	8b 40 30	 mov	 eax, DWORD PTR [eax+48]
  0012f	ff b0 b8 01 00
	00		 push	 DWORD PTR [eax+440]
  00135	53		 push	 ebx
  00136	6a 02		 push	 2
  00138	e8 00 00 00 00	 call	 ?GetLinkWidth@CLayeredLinkMap@@QAEHKHH@Z ; CLayeredLinkMap::GetLinkWidth
  0013d	8b f8		 mov	 edi, eax
  0013f	8b 45 e8	 mov	 eax, DWORD PTR _this$1$[ebp]
  00142	8b 48 30	 mov	 ecx, DWORD PTR [eax+48]
  00145	ff b1 b8 01 00
	00		 push	 DWORD PTR [ecx+440]
  0014b	53		 push	 ebx
  0014c	8b 5d 08	 mov	 ebx, DWORD PTR _pObjCenter$[ebp]
  0014f	6a 02		 push	 2
  00151	8b 8b 6c 01 00
	00		 mov	 ecx, DWORD PTR [ebx+364]
  00157	83 c1 24	 add	 ecx, 36			; 00000024H
  0015a	e8 00 00 00 00	 call	 ?GetObj@CLayeredLinkMap@@QAEPAPAVCObj@@KKH@Z ; CLayeredLinkMap::GetObj
  0015f	8b 8b 6c 01 00
	00		 mov	 ecx, DWORD PTR [ebx+364]
  00165	89 45 bc	 mov	 DWORD PTR __pObjs$1$[ebp], eax
  00168	8b 51 08	 mov	 edx, DWORD PTR [ecx+8]
  0016b	8b 41 04	 mov	 eax, DWORD PTR [ecx+4]
  0016e	8b d8		 mov	 ebx, eax
  00170	0f af d7	 imul	 edx, edi
  00173	c1 e0 07	 shl	 eax, 7
  00176	0f af df	 imul	 ebx, edi
  00179	8b 79 14	 mov	 edi, DWORD PTR [ecx+20]
  0017c	89 55 dc	 mov	 DWORD PTR __nMaxHeight$1$[ebp], edx
  0017f	99		 cdq
  00180	f7 fb		 idiv	 ebx
  00182	89 5d ec	 mov	 DWORD PTR __nMaxWidth$1$[ebp], ebx
  00185	8b d8		 mov	 ebx, eax
  00187	8b c7		 mov	 eax, edi
  00189	0f af c3	 imul	 eax, ebx
  0018c	89 5d 0c	 mov	 DWORD PTR __nUnit$1$[ebp], ebx
  0018f	99		 cdq
  00190	2b c2		 sub	 eax, edx
  00192	8b c8		 mov	 ecx, eax
  00194	8b 45 fc	 mov	 eax, DWORD PTR __nLinkX$1$[ebp]
  00197	99		 cdq
  00198	f7 fb		 idiv	 ebx
  0019a	f3 0f 2c 45 a4	 cvttss2si eax, DWORD PTR _vPos$[ebp]
  0019f	2b 55 fc	 sub	 edx, DWORD PTR __nLinkX$1$[ebp]
  001a2	33 db		 xor	 ebx, ebx
  001a4	d1 f9		 sar	 ecx, 1
  001a6	0f af d7	 imul	 edx, edi
  001a9	03 d0		 add	 edx, eax
  001ab	8b 45 f8	 mov	 eax, DWORD PTR __nLinkZ$1$[ebp]
  001ae	3b d1		 cmp	 edx, ecx
  001b0	99		 cdq
  001b1	0f 9f c3	 setg	 bl
  001b4	f7 7d 0c	 idiv	 DWORD PTR __nUnit$1$[ebp]
  001b7	f3 0f 2c 45 ac	 cvttss2si eax, DWORD PTR _vPos$[ebp+8]
  001bc	2b 55 f8	 sub	 edx, DWORD PTR __nLinkZ$1$[ebp]
  001bf	0f af d7	 imul	 edx, edi
  001c2	8b 7d 0c	 mov	 edi, DWORD PTR __nUnit$1$[ebp]
  001c5	03 d0		 add	 edx, eax
  001c7	33 c0		 xor	 eax, eax
  001c9	3b d1		 cmp	 edx, ecx
  001cb	0f 9f c0	 setg	 al
  001ce	33 c9		 xor	 ecx, ecx
  001d0	89 45 d8	 mov	 DWORD PTR __nZ$1$[ebp], eax
  001d3	8b 45 d0	 mov	 eax, DWORD PTR tv1057[ebp]
  001d6	99		 cdq
  001d7	f7 ff		 idiv	 edi
  001d9	48		 dec	 eax
  001da	03 c3		 add	 eax, ebx
  001dc	0f 49 c8	 cmovns	 ecx, eax
  001df	8b 45 cc	 mov	 eax, DWORD PTR tv1055[ebp]
  001e2	99		 cdq
  001e3	f7 ff		 idiv	 edi
  001e5	33 d2		 xor	 edx, edx
  001e7	89 4d c0	 mov	 DWORD PTR tv1046[ebp], ecx
  001ea	48		 dec	 eax
  001eb	03 45 d8	 add	 eax, DWORD PTR __nZ$1$[ebp]
  001ee	0f 49 d0	 cmovns	 edx, eax
  001f1	8b 45 c8	 mov	 eax, DWORD PTR tv1053[ebp]
  001f4	89 55 f0	 mov	 DWORD PTR __j$1$[ebp], edx
  001f7	99		 cdq
  001f8	f7 ff		 idiv	 edi
  001fa	03 c3		 add	 eax, ebx
  001fc	8b 55 ec	 mov	 edx, DWORD PTR __nMaxWidth$1$[ebp]
  001ff	3b c2		 cmp	 eax, edx
  00201	8b 4d dc	 mov	 ecx, DWORD PTR __nMaxHeight$1$[ebp]
  00204	8d 5a ff	 lea	 ebx, DWORD PTR [edx-1]
  00207	0f 4c d8	 cmovl	 ebx, eax
  0020a	8b 45 c4	 mov	 eax, DWORD PTR tv1051[ebp]
  0020d	99		 cdq
  0020e	f7 ff		 idiv	 edi
  00210	89 5d b0	 mov	 DWORD PTR tv1073[ebp], ebx
  00213	03 45 d8	 add	 eax, DWORD PTR __nZ$1$[ebp]
  00216	89 45 d8	 mov	 DWORD PTR __nLinkZMax$1$[ebp], eax
  00219	3b c1		 cmp	 eax, ecx
  0021b	7c 06		 jl	 SHORT $LN18@ScanTarget
  0021d	8d 41 ff	 lea	 eax, DWORD PTR [ecx-1]
  00220	89 45 d8	 mov	 DWORD PTR __nLinkZMax$1$[ebp], eax
$LN18@ScanTarget:
  00223	8b 4d f0	 mov	 ecx, DWORD PTR __j$1$[ebp]
  00226	3b c8		 cmp	 ecx, eax
  00228	0f 8f b4 01 00
	00		 jg	 $LN2@ScanTarget
  0022e	8b c1		 mov	 eax, ecx
  00230	0f af 45 ec	 imul	 eax, DWORD PTR __nMaxWidth$1$[ebp]
  00234	89 45 dc	 mov	 DWORD PTR tv1042[ebp], eax
$LL7@ScanTarget:
  00237	8b 55 c0	 mov	 edx, DWORD PTR tv1046[ebp]
  0023a	89 55 f4	 mov	 DWORD PTR __k$1$[ebp], edx
  0023d	3b d3		 cmp	 edx, ebx
  0023f	0f 8f 8a 01 00
	00		 jg	 $LN5@ScanTarget
  00245	8b 4d bc	 mov	 ecx, DWORD PTR __pObjs$1$[ebp]
  00248	03 c2		 add	 eax, edx
  0024a	8d 0c 81	 lea	 ecx, DWORD PTR [ecx+eax*4]
  0024d	89 4d e0	 mov	 DWORD PTR tv1043[ebp], ecx
$LL10@ScanTarget:
  00250	8b 19		 mov	 ebx, DWORD PTR [ecx]
  00252	b9 e8 03 00 00	 mov	 ecx, 1000		; 000003e8H
  00257	85 db		 test	 ebx, ebx
  00259	0f 84 52 01 00
	00		 je	 $LN8@ScanTarget
  0025f	90		 npad	 1
$LL11@ScanTarget:
  00260	8b c1		 mov	 eax, ecx
  00262	49		 dec	 ecx
  00263	89 4d 0c	 mov	 DWORD PTR ___limit$1$[ebp], ecx
  00266	85 c0		 test	 eax, eax
  00268	0f 84 40 01 00
	00		 je	 $LN120@ScanTarget

; 202  : 	{
; 203  : 		ASSERT( pObj->GetType() == OT_MOVER && ((CMover *)pObj)->IsPlayer() );
; 204  : 		pTarget = (CMover *)pObj;
; 205  : 
; 206  : 		// Á¶°Ç ˝şÄËŔĚ ľĆ´Ď¶ó¸é ´Ă °ˇ´ÉÇĎ´Ů.
; 207  : 		nAble = 0;

  0026e	33 ff		 xor	 edi, edi

; 208  : 		// Á¶°Ç ˝şÄËŔĚ¶ó¸é ÇÁ¶ř°ú ŔĎÄˇÇĎ´Â łđ¸¸ °ˇ´ÉÇĎ´Ů.
; 209  : 		if( bCondScan == TRUE && pTarget->IsLive() ) 

  00270	83 7d e4 01	 cmp	 DWORD PTR _bCondScan$1$[ebp], 1
  00274	0f 85 26 01 00
	00		 jne	 $LN42@ScanTarget
; File C:\IAGOS\server\v18\Source\Source\_Common\Mover.h

; 1251 : 	BOOL			IsLive() { return m_pActMover->IsDie() == FALSE || m_nHitPoint > 0; }		// && ¸¦  ||·Î ąŮ˛ĺŔ˝.  !=¸¦ >·Î ąŮ˛Ţ

  0027a	8b 83 38 02 00
	00		 mov	 eax, DWORD PTR [ebx+568]
  00280	f7 40 04 00 00
	00 08		 test	 DWORD PTR [eax+4], 134217728 ; 08000000H
  00287	74 0c		 je	 SHORT $LN111@ScanTarget
  00289	39 bb f8 05 00
	00		 cmp	 DWORD PTR [ebx+1528], edi
  0028f	0f 8e 0b 01 00
	00		 jle	 $LN42@ScanTarget
$LN111@ScanTarget:
; File C:\IAGOS\server\v18\Source\Source\_aiinterface\aiinterface.cpp

; 212  : 			if( nJobCond == 0 )

  00295	8b 45 10	 mov	 eax, DWORD PTR _nJobCond$[ebp]
  00298	85 c0		 test	 eax, eax
  0029a	74 11		 je	 SHORT $LN23@ScanTarget

; 213  : 				nAble++;
; 214  : 			else if( nJobCond == JOB_ALL || pTarget->GetJob() == nJobCond )		// JOB_ALL : ¸đµçÁ÷ľ÷

  0029c	83 f8 28	 cmp	 eax, 40			; 00000028H
  0029f	74 0c		 je	 SHORT $LN23@ScanTarget
  002a1	8b cb		 mov	 ecx, ebx
  002a3	e8 00 00 00 00	 call	 ?GetJob@CMover@@QAEHXZ	; CMover::GetJob
  002a8	3b 45 10	 cmp	 eax, DWORD PTR _nJobCond$[ebp]
  002ab	75 05		 jne	 SHORT $LN22@ScanTarget
$LN23@ScanTarget:

; 215  : 				nAble++;
; 216  : 			// 2. ľĆŔĚĹŰ Á¶°Ç ĂĽĹ©  
; 217  : 			if( dwItem == 0 )

  002ad	bf 01 00 00 00	 mov	 edi, 1
$LN22@ScanTarget:
  002b2	8b 45 18	 mov	 eax, DWORD PTR _dwItem$[ebp]
  002b5	85 c0		 test	 eax, eax
  002b7	74 0c		 je	 SHORT $LN151@ScanTarget

; 218  : 				nAble++;
; 219  : 			else if( pTarget->GetItemNum( dwItem ) != 0 )	

  002b9	50		 push	 eax
  002ba	8b cb		 mov	 ecx, ebx
  002bc	e8 00 00 00 00	 call	 ?GetItemNum@CMover@@QAEHK@Z ; CMover::GetItemNum
  002c1	85 c0		 test	 eax, eax
  002c3	74 01		 je	 SHORT $LN26@ScanTarget
$LN151@ScanTarget:

; 220  : 				nAble++;
; 221  : 			// 3. Äů˝şĆ® Á¶°Ç ĂĽĹ© 
; 222  : 			if( dwQuest == 0 )

  002c5	47		 inc	 edi
$LN26@ScanTarget:
  002c6	8b 45 14	 mov	 eax, DWORD PTR _dwQuest$[ebp]
  002c9	85 c0		 test	 eax, eax
  002cb	74 0c		 je	 SHORT $LN152@ScanTarget

; 223  : 				nAble++;
; 224  : 			else if( pTarget->GetQuest( dwQuest ) != NULL )

  002cd	50		 push	 eax
  002ce	8b cb		 mov	 ecx, ebx
  002d0	e8 00 00 00 00	 call	 ?GetQuest@CMover@@QAEPAUtagQuest@@H@Z ; CMover::GetQuest
  002d5	85 c0		 test	 eax, eax
  002d7	74 01		 je	 SHORT $LN29@ScanTarget
$LN152@ScanTarget:

; 225  : 				nAble++;	
; 226  : 			//4. Ä«żŔ Á¶°Ç ĂĽĹ©  
; 227  : 			if( nChao == 0 )

  002d9	47		 inc	 edi
$LN29@ScanTarget:
  002da	8b 45 1c	 mov	 eax, DWORD PTR _nChao$[ebp]
  002dd	85 c0		 test	 eax, eax
  002df	74 1e		 je	 SHORT $LN153@ScanTarget

; 228  : 				nAble++;
; 229  : 			else
; 230  : 			{
; 231  : 				// 100 = Ä«żŔŔŻŔú, 101 = şńÄ«żŔ
; 232  : 				if( nChao == 100 )

  002e1	83 f8 64	 cmp	 eax, 100		; 00000064H
  002e4	75 0b		 jne	 SHORT $LN32@ScanTarget
; File C:\IAGOS\server\v18\Source\Source\_Common\Mover.h

; 1257 : 	BOOL			IsChaotic( void ) { return m_dwPKPropensity > 0; }	/// Ä«żŔŔÎÁö

  002e6	83 bb 58 07 00
	00 00		 cmp	 DWORD PTR [ebx+1880], 0
; File C:\IAGOS\server\v18\Source\Source\_aiinterface\aiinterface.cpp

; 235  : 					if( pTarget->IsChaotic() )

  002ed	76 11		 jbe	 SHORT $LN36@ScanTarget

; 236  : #else // __VER >= 8 // __S8_PK
; 237  : 					if( pTarget->IsGuardReactionChao() )
; 238  : #endif // __VER >= 8 // __S8_PK
; 239  : 						nAble++;
; 240  : 				}

  002ef	eb 0e		 jmp	 SHORT $LN153@ScanTarget
$LN32@ScanTarget:

; 241  : 				else if( nChao == 101 )

  002f1	83 f8 65	 cmp	 eax, 101		; 00000065H
  002f4	75 0a		 jne	 SHORT $LN36@ScanTarget
; File C:\IAGOS\server\v18\Source\Source\_Common\Mover.h

; 1257 : 	BOOL			IsChaotic( void ) { return m_dwPKPropensity > 0; }	/// Ä«żŔŔÎÁö

  002f6	83 bb 58 07 00
	00 00		 cmp	 DWORD PTR [ebx+1880], 0
; File C:\IAGOS\server\v18\Source\Source\_aiinterface\aiinterface.cpp

; 244  : 					if( !pTarget->IsChaotic() )

  002fd	77 01		 ja	 SHORT $LN36@ScanTarget
$LN153@ScanTarget:

; 245  : #else // __VER >= 8 // __S8_PK
; 246  : 					if( pTarget->IsGuardReactionNormal() )
; 247  : #endif // __VER >= 8 // __S8_PK
; 248  : 						nAble++;
; 249  : 				}
; 250  : 			}
; 251  : 		}
; 252  : 		if( nAble == 4 )

  002ff	47		 inc	 edi
$LN36@ScanTarget:
  00300	83 ff 04	 cmp	 edi, 4
  00303	0f 85 94 00 00
	00		 jne	 $LN118@ScanTarget

; 260  : 			if( bGuard || bFlyMob == pTarget->IsFly() )		

  00309	83 7d b8 08	 cmp	 DWORD PTR tv1066[ebp], 8
  0030d	74 14		 je	 SHORT $LN110@ScanTarget
; File C:\IAGOS\server\v18\Source\Source\_AIInterface\Action.h

; 309  : 	BOOL			IsFly() { return (m_dwStateFlag & OBJSTAF_FLY) ? TRUE : FALSE; }

  0030f	8b 83 38 02 00
	00		 mov	 eax, DWORD PTR [ebx+568]
  00315	8b 40 08	 mov	 eax, DWORD PTR [eax+8]
  00318	c1 e8 03	 shr	 eax, 3
  0031b	83 e0 01	 and	 eax, 1
; File C:\IAGOS\server\v18\Source\Source\_aiinterface\aiinterface.cpp

; 260  : 			if( bGuard || bFlyMob == pTarget->IsFly() )		

  0031e	39 45 b4	 cmp	 DWORD PTR tv1065[ebp], eax
  00321	75 7a		 jne	 SHORT $LN118@ScanTarget
$LN110@ScanTarget:
; File C:\IAGOS\server\v18\Source\Source\_Common\Obj.h

; 215  : 	D3DXVECTOR3		GetPos()	{ return m_vPos; }

  00323	f3 0f 7e 83 60
	01 00 00	 movq	 xmm0, QWORD PTR [ebx+352]
  0032b	8b 83 68 01 00
	00		 mov	 eax, DWORD PTR [ebx+360]
  00331	66 0f d6 45 98	 movq	 QWORD PTR $T1[ebp], xmm0
; File C:\IAGOS\server\v18\Source\Source\DX_SDK\d3dx9math.inl

; 383  :     return D3DXVECTOR3(x - v.x, y - v.y, z - v.z);

  00336	f3 0f 10 4d 98	 movss	 xmm1, DWORD PTR $T1[ebp]
  0033b	f3 0f 10 55 9c	 movss	 xmm2, DWORD PTR $T1[ebp+4]
  00340	f3 0f 5c 55 a8	 subss	 xmm2, DWORD PTR _vPos$[ebp+4]
  00345	f3 0f 5c 4d a4	 subss	 xmm1, DWORD PTR _vPos$[ebp]
; File C:\IAGOS\server\v18\Source\Source\_Common\Obj.h

; 215  : 	D3DXVECTOR3		GetPos()	{ return m_vPos; }

  0034a	89 45 a0	 mov	 DWORD PTR $T1[ebp+8], eax
; File C:\IAGOS\server\v18\Source\Source\DX_SDK\d3dx9math.inl

; 383  :     return D3DXVECTOR3(x - v.x, y - v.y, z - v.z);

  0034d	f3 0f 10 45 a0	 movss	 xmm0, DWORD PTR $T1[ebp+8]
  00352	f3 0f 5c 45 ac	 subss	 xmm0, DWORD PTR _vPos$[ebp+8]
; File C:\IAGOS\server\v18\Source\Source\_aiinterface\aiinterface.cpp

; 263  : 				vDist = pTarget->GetPos() - vPos;				

  00357	f3 0f 59 d2	 mulss	 xmm2, xmm2
; File C:\IAGOS\server\v18\Source\Source\DX_SDK\d3dx9math.inl

; 1698 :     return pV->x * pV->x + pV->y * pV->y + pV->z * pV->z;

  0035b	f3 0f 59 c9	 mulss	 xmm1, xmm1
  0035f	f3 0f 59 c0	 mulss	 xmm0, xmm0
  00363	f3 0f 58 d1	 addss	 xmm2, xmm1
  00367	f3 0f 58 d0	 addss	 xmm2, xmm0
  0036b	0f 57 c0	 xorps	 xmm0, xmm0
; File C:\IAGOS\server\v18\Source\Source\_aiinterface\aiinterface.cpp

; 264  : 				if( D3DXVec3LengthSq( &vDist ) < fRadius )	// µÎ °´ĂĽ°ŁŔÇ °Ĺ¸®°ˇ ąüŔ§ ŔĚł»ŔĚ¸é 

  0036e	f3 0f 2a c6	 cvtsi2ss xmm0, esi
  00372	0f 2f c2	 comiss	 xmm0, xmm2
  00375	76 26		 jbe	 SHORT $LN118@ScanTarget
; File C:\IAGOS\server\v18\Source\Source\_Common\Mover.h

; 1740 : 		if( GetAdjParam(DST_CHRSTATE) & CHS_INVISIBILITY )	// ¸¶ąýĹő¸íČ­°ˇ °É·Č´Â°ˇ?

  00377	6a 40		 push	 64			; 00000040H
  00379	8b cb		 mov	 ecx, ebx
  0037b	e8 00 00 00 00	 call	 ?GetAdjParam@CMover@@QAEHH@Z ; CMover::GetAdjParam
  00380	a9 00 04 00 00	 test	 eax, 1024		; 00000400H
  00385	75 16		 jne	 SHORT $LN118@ScanTarget
; File C:\IAGOS\server\v18\Source\Source\_aiinterface\aiinterface.cpp

; 266  : 					if( pTarget->IsMode( TRANSPARENT_MODE ) == FALSE )

  00387	f6 83 40 02 00
	00 02		 test	 BYTE PTR [ebx+576], 2
  0038e	75 0d		 jne	 SHORT $LN118@ScanTarget

; 267  : 						if( pTarget->HasBuffByIk3( IK3_TEXT_DISGUISE ) == FALSE )

  00390	6a 51		 push	 81			; 00000051H
  00392	8b cb		 mov	 ecx, ebx
  00394	e8 00 00 00 00	 call	 ?HasBuffByIk3@CMover@@QAEHK@Z ; CMover::HasBuffByIk3
  00399	85 c0		 test	 eax, eax
  0039b	74 7e		 je	 SHORT $LN95@ScanTarget
$LN118@ScanTarget:

; 268  : 							return pTarget;
; 269  : 				}
; 270  : 			}
; 271  : 		}
; 272  : 	}
; 273  : 	END_LINKMAP

  0039d	8b 4d 0c	 mov	 ecx, DWORD PTR ___limit$1$[ebp]
$LN42@ScanTarget:
  003a0	8b 9b 80 01 00
	00		 mov	 ebx, DWORD PTR [ebx+384]
  003a6	85 db		 test	 ebx, ebx
  003a8	0f 85 b2 fe ff
	ff		 jne	 $LL11@ScanTarget
$LN120@ScanTarget:

; 201  : 	FOR_LINKMAP( pObjCenter->GetWorld(), vPos, pObj, nRangeMeter, CObj::linkPlayer, GetMover()->GetLayer() )

  003ae	8b 55 f4	 mov	 edx, DWORD PTR __k$1$[ebp]
$LN8@ScanTarget:
  003b1	8b 4d e0	 mov	 ecx, DWORD PTR tv1043[ebp]
  003b4	42		 inc	 edx
  003b5	8b 5d b0	 mov	 ebx, DWORD PTR tv1073[ebp]
  003b8	83 c1 04	 add	 ecx, 4
  003bb	89 55 f4	 mov	 DWORD PTR __k$1$[ebp], edx
  003be	89 4d e0	 mov	 DWORD PTR tv1043[ebp], ecx
  003c1	3b d3		 cmp	 edx, ebx
  003c3	0f 8e 87 fe ff
	ff		 jle	 $LL10@ScanTarget
  003c9	8b 45 dc	 mov	 eax, DWORD PTR tv1042[ebp]
  003cc	8b 4d f0	 mov	 ecx, DWORD PTR __j$1$[ebp]
$LN5@ScanTarget:
  003cf	03 45 ec	 add	 eax, DWORD PTR __nMaxWidth$1$[ebp]
  003d2	41		 inc	 ecx
  003d3	89 4d f0	 mov	 DWORD PTR __j$1$[ebp], ecx
  003d6	89 45 dc	 mov	 DWORD PTR tv1042[ebp], eax
  003d9	3b 4d d8	 cmp	 ecx, DWORD PTR __nLinkZMax$1$[ebp]
  003dc	0f 8e 55 fe ff
	ff		 jle	 $LL7@ScanTarget
$LN2@ScanTarget:
  003e2	8b 45 e8	 mov	 eax, DWORD PTR _this$1$[ebp]
  003e5	8b 7d 08	 mov	 edi, DWORD PTR _pObjCenter$[ebp]
  003e8	8b 5d d4	 mov	 ebx, DWORD PTR __i$1$[ebp]
  003eb	43		 inc	 ebx
  003ec	8b 40 30	 mov	 eax, DWORD PTR [eax+48]
  003ef	8b 8f 6c 01 00
	00		 mov	 ecx, DWORD PTR [edi+364]
  003f5	83 c1 24	 add	 ecx, 36			; 00000024H
  003f8	89 5d d4	 mov	 DWORD PTR __i$1$[ebp], ebx
  003fb	ff b0 b8 01 00
	00		 push	 DWORD PTR [eax+440]
  00401	6a 02		 push	 2
  00403	e8 00 00 00 00	 call	 ?GetMaxLinkLevel@CLayeredLinkMap@@QAEHKH@Z ; CLayeredLinkMap::GetMaxLinkLevel
  00408	3b d8		 cmp	 ebx, eax
  0040a	0f 8c 10 fd ff
	ff		 jl	 $LL4@ScanTarget
$LN100@ScanTarget:
  00410	5f		 pop	 edi

; 274  : 	return NULL;
; 275  : }

  00411	5e		 pop	 esi
  00412	33 c0		 xor	 eax, eax
  00414	5b		 pop	 ebx
  00415	8b e5		 mov	 esp, ebp
  00417	5d		 pop	 ebp
  00418	c2 18 00	 ret	 24			; 00000018H
$LN95@ScanTarget:
  0041b	5f		 pop	 edi
  0041c	5e		 pop	 esi
  0041d	8b c3		 mov	 eax, ebx
  0041f	5b		 pop	 ebx
  00420	8b e5		 mov	 esp, ebp
  00422	5d		 pop	 ebp
  00423	c2 18 00	 ret	 24			; 00000018H
?ScanTarget@CAIInterface@@IAEPAVCMover@@PAVCObj@@HHKKH@Z ENDP ; CAIInterface::ScanTarget
_TEXT	ENDS
; Function compile flags: /Ogtp
; File C:\IAGOS\server\v18\Source\Source\_AIInterface\AIInterface.h
;	COMDAT ?IsReturnToBegin@CAIInterface@@UAEHXZ
_TEXT	SEGMENT
?IsReturnToBegin@CAIInterface@@UAEHXZ PROC		; CAIInterface::IsReturnToBegin, COMDAT
; _this$ = ecx

; 121  : 	virtual		BOOL	IsReturnToBegin( void )		{	return FALSE;	}

  00000	33 c0		 xor	 eax, eax
  00002	c3		 ret	 0
?IsReturnToBegin@CAIInterface@@UAEHXZ ENDP		; CAIInterface::IsReturnToBegin
_TEXT	ENDS
; Function compile flags: /Ogtp
; File C:\IAGOS\server\v18\Source\Source\_AIInterface\AIInterface.h
;	COMDAT ?InitAI@CAIInterface@@UAEXXZ
_TEXT	SEGMENT
?InitAI@CAIInterface@@UAEXXZ PROC			; CAIInterface::InitAI, COMDAT
; _this$ = ecx

; 119  : 	virtual void	InitAI() { }

  00000	c2 00 00	 ret	 0
?InitAI@CAIInterface@@UAEXXZ ENDP			; CAIInterface::InitAI
_TEXT	ENDS
; Function compile flags: /Ogtp
; File C:\IAGOS\server\v18\Source\Source\_aiinterface\aiinterface.cpp
; File C:\Program Files\Microsoft Visual Studio\2022\Professional\VC\Tools\MSVC\14.44.35207\include\deque
; File C:\Program Files\Microsoft Visual Studio\2022\Professional\VC\Tools\MSVC\14.44.35207\include\queue
; File C:\Program Files\Microsoft Visual Studio\2022\Professional\VC\Tools\MSVC\14.44.35207\include\deque
; File C:\Program Files\Microsoft Visual Studio\2022\Professional\VC\Tools\MSVC\14.44.35207\include\xmemory
; File C:\Program Files\Microsoft Visual Studio\2022\Professional\VC\Tools\MSVC\14.44.35207\include\deque
; File C:\Program Files\Microsoft Visual Studio\2022\Professional\VC\Tools\MSVC\14.44.35207\include\xmemory
; File C:\Program Files\Microsoft Visual Studio\2022\Professional\VC\Tools\MSVC\14.44.35207\include\deque
; File C:\Program Files\Microsoft Visual Studio\2022\Professional\VC\Tools\MSVC\14.44.35207\include\xmemory
; File C:\Program Files\Microsoft Visual Studio\2022\Professional\VC\Tools\MSVC\14.44.35207\include\deque
; File C:\IAGOS\server\v18\Source\Source\_aiinterface\aiinterface.cpp
;	COMDAT ?PostAIMsg@CAIInterface@@UAEXKKKK@Z
_TEXT	SEGMENT
_dwMessage$ = 8						; size = 4
_dwParam1$ = 12						; size = 4
_dwParam2$ = 16						; size = 4
_dwParam3$ = 20						; size = 4
?PostAIMsg@CAIInterface@@UAEXKKKK@Z PROC		; CAIInterface::PostAIMsg, COMDAT
; _this$ = ecx

; 113  : {

  00000	55		 push	 ebp
  00001	8b ec		 mov	 ebp, esp

; 114  : #if __VER >= 9	//__AI_0509
; 115  : 	switch( dwMessage )

  00003	8b 55 08	 mov	 edx, DWORD PTR _dwMessage$[ebp]
  00006	83 fa 0b	 cmp	 edx, 11			; 0000000bH
  00009	74 09		 je	 SHORT $LN4@PostAIMsg

; 116  : 	{
; 117  : 		case AIMSG_ARRIVAL:
; 118  : 			{
; 119  : 				AIMSG msg;
; 120  : 				msg.dwMessage	= dwMessage;
; 121  : 				msg.dwParam1	= dwParam1;
; 122  : 				msg.dwParam2	= dwParam2;
; 123  : #ifdef __INSTANCE_AGGRO_SYSTEM
; 124  : 				msg.dwParam3	= dwParam3;
; 125  : #endif // __INSTANCE_AGGRO_SYSTEM
; 126  : 				m_MsgQueue.push( msg );
; 127  : 				break;
; 128  : 			}
; 129  : #ifdef __INSTANCE_AGGRO_SYSTEM
; 130  : 		default:	SendAIMsg( dwMessage, dwParam1, dwParam2, dwParam3 );	break;

  0000b	8b 01		 mov	 eax, DWORD PTR [ecx]
  0000d	89 55 08	 mov	 DWORD PTR _dwMessage$[ebp], edx

; 142  : }

  00010	5d		 pop	 ebp

; 116  : 	{
; 117  : 		case AIMSG_ARRIVAL:
; 118  : 			{
; 119  : 				AIMSG msg;
; 120  : 				msg.dwMessage	= dwMessage;
; 121  : 				msg.dwParam1	= dwParam1;
; 122  : 				msg.dwParam2	= dwParam2;
; 123  : #ifdef __INSTANCE_AGGRO_SYSTEM
; 124  : 				msg.dwParam3	= dwParam3;
; 125  : #endif // __INSTANCE_AGGRO_SYSTEM
; 126  : 				m_MsgQueue.push( msg );
; 127  : 				break;
; 128  : 			}
; 129  : #ifdef __INSTANCE_AGGRO_SYSTEM
; 130  : 		default:	SendAIMsg( dwMessage, dwParam1, dwParam2, dwParam3 );	break;

  00011	ff 60 0c	 jmp	 DWORD PTR [eax+12]
$LN4@PostAIMsg:
; File C:\Program Files\Microsoft Visual Studio\2022\Professional\VC\Tools\MSVC\14.44.35207\include\deque

; 1144 :         if ((_Myoff() + _Mysize()) % _Block_size == 0 && _Mapsize() <= (_Mysize() + _Block_size) / _Block_size) {

  00014	8b 41 18	 mov	 eax, DWORD PTR [ecx+24]
  00017	53		 push	 ebx
  00018	56		 push	 esi
; File C:\Program Files\Microsoft Visual Studio\2022\Professional\VC\Tools\MSVC\14.44.35207\include\queue

; 119  :         c.push_back(_Val);

  00019	8d 71 08	 lea	 esi, DWORD PTR [ecx+8]
; File C:\Program Files\Microsoft Visual Studio\2022\Professional\VC\Tools\MSVC\14.44.35207\include\deque

; 1144 :         if ((_Myoff() + _Mysize()) % _Block_size == 0 && _Mapsize() <= (_Mysize() + _Block_size) / _Block_size) {

  0001c	40		 inc	 eax
  0001d	57		 push	 edi
  0001e	39 46 08	 cmp	 DWORD PTR [esi+8], eax
  00021	77 09		 ja	 SHORT $LN12@PostAIMsg

; 1145 :             _Growmap(1);

  00023	6a 01		 push	 1
  00025	8b ce		 mov	 ecx, esi
  00027	e8 00 00 00 00	 call	 ?_Growmap@?$deque@UAIMSG@@V?$allocator@UAIMSG@@@std@@@std@@AAEXI@Z ; std::deque<AIMSG,std::allocator<AIMSG> >::_Growmap
$LN12@PostAIMsg:

; 1146 :         }
; 1147 :         _Myoff() &= _Mapsize() * _Block_size - 1;

  0002c	8b 4e 08	 mov	 ecx, DWORD PTR [esi+8]
  0002f	8d 41 ff	 lea	 eax, DWORD PTR [ecx-1]
  00032	21 46 0c	 and	 DWORD PTR [esi+12], eax

; 572  :         return static_cast<_Map_difference_type>((_Off / _Block_size) & (_Mapsize - 1));

  00035	8d 41 ff	 lea	 eax, DWORD PTR [ecx-1]

; 1148 :         const auto _Newoff = static_cast<size_type>(_Myoff() + _Mysize());

  00038	8b 7e 10	 mov	 edi, DWORD PTR [esi+16]
  0003b	03 7e 0c	 add	 edi, DWORD PTR [esi+12]

; 572  :         return static_cast<_Map_difference_type>((_Off / _Block_size) & (_Mapsize - 1));

  0003e	23 c7		 and	 eax, edi

; 1150 :         if (_Map()[_Block] == nullptr) {

  00040	8d 1c 85 00 00
	00 00		 lea	 ebx, DWORD PTR [eax*4]
  00047	8b 46 04	 mov	 eax, DWORD PTR [esi+4]
  0004a	83 3c 03 00	 cmp	 DWORD PTR [ebx+eax], 0
  0004e	75 10		 jne	 SHORT $LN13@PostAIMsg
; File C:\Program Files\Microsoft Visual Studio\2022\Professional\VC\Tools\MSVC\14.44.35207\include\xmemory

; 136  :         return ::operator new(_Bytes);

  00050	6a 10		 push	 16			; 00000010H
  00052	e8 00 00 00 00	 call	 ??2@YAPAXI@Z		; operator new
; File C:\Program Files\Microsoft Visual Studio\2022\Professional\VC\Tools\MSVC\14.44.35207\include\deque

; 1151 :             _Map()[_Block] = _Getal().allocate(_Block_size);

  00057	8b 4e 04	 mov	 ecx, DWORD PTR [esi+4]
; File C:\Program Files\Microsoft Visual Studio\2022\Professional\VC\Tools\MSVC\14.44.35207\include\xmemory

; 136  :         return ::operator new(_Bytes);

  0005a	83 c4 04	 add	 esp, 4
; File C:\Program Files\Microsoft Visual Studio\2022\Professional\VC\Tools\MSVC\14.44.35207\include\deque

; 1151 :             _Map()[_Block] = _Getal().allocate(_Block_size);

  0005d	89 04 0b	 mov	 DWORD PTR [ebx+ecx], eax
$LN13@PostAIMsg:

; 572  :         return static_cast<_Map_difference_type>((_Off / _Block_size) & (_Mapsize - 1));

  00060	8b 4e 08	 mov	 ecx, DWORD PTR [esi+8]

; 590  :         return _STD _Unfancy(_Map[_Block] + _Block_off);

  00063	8b 46 04	 mov	 eax, DWORD PTR [esi+4]

; 572  :         return static_cast<_Map_difference_type>((_Off / _Block_size) & (_Mapsize - 1));

  00066	49		 dec	 ecx
  00067	23 cf		 and	 ecx, edi

; 1156 :         ++_Mysize();

  00069	5f		 pop	 edi

; 590  :         return _STD _Unfancy(_Map[_Block] + _Block_off);

  0006a	8b 0c 88	 mov	 ecx, DWORD PTR [eax+ecx*4]
; File C:\Program Files\Microsoft Visual Studio\2022\Professional\VC\Tools\MSVC\14.44.35207\include\xmemory

; 732  :         ::new (const_cast<void*>(static_cast<const volatile void*>(_Ptr))) _Objty(_STD forward<_Types>(_Args)...);

  0006d	8b 45 0c	 mov	 eax, DWORD PTR _dwParam1$[ebp]
  00070	c7 01 0b 00 00
	00		 mov	 DWORD PTR [ecx], 11	; 0000000bH
  00076	89 41 04	 mov	 DWORD PTR [ecx+4], eax
  00079	8b 45 10	 mov	 eax, DWORD PTR _dwParam2$[ebp]
  0007c	89 41 08	 mov	 DWORD PTR [ecx+8], eax
  0007f	8b 45 14	 mov	 eax, DWORD PTR _dwParam3$[ebp]
  00082	89 41 0c	 mov	 DWORD PTR [ecx+12], eax
; File C:\Program Files\Microsoft Visual Studio\2022\Professional\VC\Tools\MSVC\14.44.35207\include\deque

; 1156 :         ++_Mysize();

  00085	ff 46 10	 inc	 DWORD PTR [esi+16]
  00088	5e		 pop	 esi
  00089	5b		 pop	 ebx
; File C:\IAGOS\server\v18\Source\Source\_aiinterface\aiinterface.cpp

; 142  : }

  0008a	5d		 pop	 ebp
  0008b	c2 10 00	 ret	 16			; 00000010H
?PostAIMsg@CAIInterface@@UAEXKKKK@Z ENDP		; CAIInterface::PostAIMsg
_TEXT	ENDS
; Function compile flags: /Ogtp
; File C:\IAGOS\server\v18\Source\Source\_aiinterface\aiinterface.cpp
;	COMDAT ?SendAIMsg@CAIInterface@@UAEXKKKK@Z
_TEXT	SEGMENT
$T1 = -36						; size = 16
_msg$ = -20						; size = 16
__$ArrayPad$ = -4					; size = 4
_dwMessage$ = 8						; size = 4
_dwParam1$ = 12						; size = 4
_dwParam2$ = 16						; size = 4
_dwParam3$ = 20						; size = 4
?SendAIMsg@CAIInterface@@UAEXKKKK@Z PROC		; CAIInterface::SendAIMsg, COMDAT
; _this$ = ecx

; 92   : {

  00000	55		 push	 ebp
  00001	8b ec		 mov	 ebp, esp
  00003	83 ec 24	 sub	 esp, 36			; 00000024H
  00006	a1 00 00 00 00	 mov	 eax, DWORD PTR ___security_cookie
  0000b	33 c5		 xor	 eax, ebp
  0000d	89 45 fc	 mov	 DWORD PTR __$ArrayPad$[ebp], eax

; 93   : 	AIMSG msg;
; 94   : 	msg.dwMessage	= dwMessage;
; 95   : 	msg.dwParam1	= dwParam1;
; 96   : 	msg.dwParam2	= dwParam2;

  00010	8b 45 10	 mov	 eax, DWORD PTR _dwParam2$[ebp]
  00013	8b 55 08	 mov	 edx, DWORD PTR _dwMessage$[ebp]
  00016	89 45 f4	 mov	 DWORD PTR _msg$[ebp+8], eax

; 97   : #ifdef __INSTANCE_AGGRO_SYSTEM
; 98   : 	msg.dwParam3	= dwParam3;

  00019	8b 45 14	 mov	 eax, DWORD PTR _dwParam3$[ebp]
  0001c	89 55 ec	 mov	 DWORD PTR _msg$[ebp], edx
  0001f	89 45 f8	 mov	 DWORD PTR _msg$[ebp+12], eax
  00022	56		 push	 esi
  00023	57		 push	 edi
  00024	8b f9		 mov	 edi, ecx
  00026	8b 4d 0c	 mov	 ecx, DWORD PTR _dwParam1$[ebp]
  00029	89 4d f0	 mov	 DWORD PTR _msg$[ebp+4], ecx

; 99   : #endif // __INSTANCE_AGGRO_SYSTEM
; 100  : 	if( dwMessage == AIMSG_SETSTATE )

  0002c	83 fa 04	 cmp	 edx, 4
  0002f	75 1a		 jne	 SHORT $LN10@SendAIMsg

; 101  : 	{
; 102  : 		msg.dwMessage	= AIMSG_INIT;
; 103  : 		m_pStateFunc	= GetAIStateFunc( dwParam1 );

  00031	51		 push	 ecx
  00032	8d 45 dc	 lea	 eax, DWORD PTR $T1[ebp]
  00035	c7 45 ec 01 00
	00 00		 mov	 DWORD PTR _msg$[ebp], 1
  0003c	50		 push	 eax
  0003d	8b cf		 mov	 ecx, edi
  0003f	e8 00 00 00 00	 call	 ?GetAIStateFunc@CAIInterface@@AAEP81@AEHABUAIMSG@@@ZK@Z ; CAIInterface::GetAIStateFunc
  00044	0f 10 00	 movups	 xmm0, XMMWORD PTR [eax]
  00047	0f 11 47 20	 movups	 XMMWORD PTR [edi+32], xmm0
$LN10@SendAIMsg:

; 104  : 	}
; 105  : 	if( m_pStateFunc )

  0004b	8b 47 20	 mov	 eax, DWORD PTR [edi+32]
  0004e	85 c0		 test	 eax, eax
  00050	74 0b		 je	 SHORT $LN3@SendAIMsg

; 106  : 		( this->*( m_pStateFunc ) ) ( msg );

  00052	8d 4d ec	 lea	 ecx, DWORD PTR _msg$[ebp]
  00055	51		 push	 ecx
  00056	8b 4f 24	 mov	 ecx, DWORD PTR [edi+36]
  00059	03 cf		 add	 ecx, edi
  0005b	ff d0		 call	 eax
$LN3@SendAIMsg:

; 107  : }

  0005d	8b 4d fc	 mov	 ecx, DWORD PTR __$ArrayPad$[ebp]
  00060	5f		 pop	 edi
  00061	33 cd		 xor	 ecx, ebp
  00063	5e		 pop	 esi
  00064	e8 00 00 00 00	 call	 @__security_check_cookie@4
  00069	8b e5		 mov	 esp, ebp
  0006b	5d		 pop	 ebp
  0006c	c2 10 00	 ret	 16			; 00000010H
?SendAIMsg@CAIInterface@@UAEXKKKK@Z ENDP		; CAIInterface::SendAIMsg
_TEXT	ENDS
; Function compile flags: /Ogtp
; File C:\IAGOS\server\v18\Source\Source\_aiinterface\aiinterface.cpp
; File C:\Program Files\Microsoft Visual Studio\2022\Professional\VC\Tools\MSVC\14.44.35207\include\deque
; File C:\IAGOS\server\v18\Source\Source\_aiinterface\aiinterface.cpp
; File C:\Program Files\Microsoft Visual Studio\2022\Professional\VC\Tools\MSVC\14.44.35207\include\deque
; File C:\IAGOS\server\v18\Source\Source\_aiinterface\aiinterface.cpp
; File C:\Program Files\Microsoft Visual Studio\2022\Professional\VC\Tools\MSVC\14.44.35207\include\deque
; File C:\IAGOS\server\v18\Source\Source\_aiinterface\aiinterface.cpp
; File C:\Program Files\Microsoft Visual Studio\2022\Professional\VC\Tools\MSVC\14.44.35207\include\deque
; File C:\IAGOS\server\v18\Source\Source\_aiinterface\aiinterface.cpp
; File C:\Program Files\Microsoft Visual Studio\2022\Professional\VC\Tools\MSVC\14.44.35207\include\deque
; File C:\IAGOS\server\v18\Source\Source\_aiinterface\aiinterface.cpp
; File C:\Program Files\Microsoft Visual Studio\2022\Professional\VC\Tools\MSVC\14.44.35207\include\deque
; File C:\IAGOS\server\v18\Source\Source\_aiinterface\aiinterface.cpp
;	COMDAT ?RouteMessage@CAIInterface@@UAEXXZ
_TEXT	SEGMENT
$T1 = -40						; size = 16
tv498 = -24						; size = 4
_msg$ = -20						; size = 16
__$ArrayPad$ = -4					; size = 4
?RouteMessage@CAIInterface@@UAEXXZ PROC			; CAIInterface::RouteMessage, COMDAT
; _this$ = ecx

; 61   : {

  00000	55		 push	 ebp
  00001	8b ec		 mov	 ebp, esp
  00003	83 ec 28	 sub	 esp, 40			; 00000028H
  00006	a1 00 00 00 00	 mov	 eax, DWORD PTR ___security_cookie
  0000b	33 c5		 xor	 eax, ebp
  0000d	89 45 fc	 mov	 DWORD PTR __$ArrayPad$[ebp], eax
  00010	56		 push	 esi
  00011	8b f1		 mov	 esi, ecx
  00013	57		 push	 edi
; File C:\Program Files\Microsoft Visual Studio\2022\Professional\VC\Tools\MSVC\14.44.35207\include\deque

; 971  :         return _Mysize() == 0;

  00014	8b 56 18	 mov	 edx, DWORD PTR [esi+24]
  00017	85 d2		 test	 edx, edx
; File C:\IAGOS\server\v18\Source\Source\_aiinterface\aiinterface.cpp

; 64   : 	while( !m_MsgQueue.empty() )

  00019	74 68		 je	 SHORT $LN56@RouteMessa
  0001b	53		 push	 ebx
  0001c	0f 1f 40 00	 npad	 4
$LL2@RouteMessa:
; File C:\Program Files\Microsoft Visual Studio\2022\Professional\VC\Tools\MSVC\14.44.35207\include\deque

; 572  :         return static_cast<_Map_difference_type>((_Off / _Block_size) & (_Mapsize - 1));

  00020	8b 4e 10	 mov	 ecx, DWORD PTR [esi+16]

; 578  :         return _Map[_Block][_Block_off];

  00023	8b 46 0c	 mov	 eax, DWORD PTR [esi+12]

; 572  :         return static_cast<_Map_difference_type>((_Off / _Block_size) & (_Mapsize - 1));

  00026	49		 dec	 ecx
  00027	23 4e 14	 and	 ecx, DWORD PTR [esi+20]
; File C:\IAGOS\server\v18\Source\Source\_aiinterface\aiinterface.cpp

; 66   : 		msg	= m_MsgQueue.front();

  0002a	8b 04 88	 mov	 eax, DWORD PTR [eax+ecx*4]
; File C:\Program Files\Microsoft Visual Studio\2022\Professional\VC\Tools\MSVC\14.44.35207\include\deque

; 1496 :         if (--_Mysize() == 0) {

  0002d	8d 4e 14	 lea	 ecx, DWORD PTR [esi+20]
; File C:\IAGOS\server\v18\Source\Source\_aiinterface\aiinterface.cpp

; 66   : 		msg	= m_MsgQueue.front();

  00030	0f 10 00	 movups	 xmm0, XMMWORD PTR [eax]
; File C:\Program Files\Microsoft Visual Studio\2022\Professional\VC\Tools\MSVC\14.44.35207\include\deque

; 1496 :         if (--_Mysize() == 0) {

  00033	8d 42 ff	 lea	 eax, DWORD PTR [edx-1]
  00036	89 46 18	 mov	 DWORD PTR [esi+24], eax
; File C:\IAGOS\server\v18\Source\Source\_aiinterface\aiinterface.cpp

; 66   : 		msg	= m_MsgQueue.front();

  00039	0f 11 45 ec	 movups	 XMMWORD PTR _msg$[ebp], xmm0
; File C:\Program Files\Microsoft Visual Studio\2022\Professional\VC\Tools\MSVC\14.44.35207\include\deque

; 1496 :         if (--_Mysize() == 0) {

  0003d	85 c0		 test	 eax, eax
  0003f	74 04		 je	 SHORT $LN42@RouteMessa
$LN41@RouteMessa:

; 1497 :             _Myoff() = 0;
; 1498 :         } else {
; 1499 :             ++_Myoff();

  00041	8b 46 14	 mov	 eax, DWORD PTR [esi+20]
  00044	40		 inc	 eax
$LN42@RouteMessa:
; File C:\IAGOS\server\v18\Source\Source\_aiinterface\aiinterface.cpp

; 68   : 		if( msg.dwMessage == AIMSG_SETSTATE )

  00045	89 01		 mov	 DWORD PTR [ecx], eax
  00047	83 7d ec 04	 cmp	 DWORD PTR _msg$[ebp], 4
  0004b	75 1c		 jne	 SHORT $LN4@RouteMessa

; 69   : 		{
; 70   : 			msg.dwMessage	= AIMSG_INIT;
; 71   : 			m_pStateFunc	= GetAIStateFunc( msg.dwParam1 );

  0004d	ff 75 f0	 push	 DWORD PTR _msg$[ebp+4]
  00050	8d 45 d8	 lea	 eax, DWORD PTR $T1[ebp]
  00053	c7 45 ec 01 00
	00 00		 mov	 DWORD PTR _msg$[ebp], 1
  0005a	50		 push	 eax
  0005b	8b ce		 mov	 ecx, esi
  0005d	e8 00 00 00 00	 call	 ?GetAIStateFunc@CAIInterface@@AAEP81@AEHABUAIMSG@@@ZK@Z ; CAIInterface::GetAIStateFunc
  00062	0f 10 00	 movups	 xmm0, XMMWORD PTR [eax]
  00065	0f 11 46 20	 movups	 XMMWORD PTR [esi+32], xmm0
$LN4@RouteMessa:

; 72   : 		}
; 73   : 		if( m_pStateFunc )

  00069	8b 46 20	 mov	 eax, DWORD PTR [esi+32]
  0006c	85 c0		 test	 eax, eax
  0006e	74 0b		 je	 SHORT $LN5@RouteMessa

; 74   : 			( this->*( m_pStateFunc ) ) ( msg );

  00070	8d 4d ec	 lea	 ecx, DWORD PTR _msg$[ebp]
  00073	51		 push	 ecx
  00074	8b 4e 24	 mov	 ecx, DWORD PTR [esi+36]
  00077	03 ce		 add	 ecx, esi
  00079	ff d0		 call	 eax
$LN5@RouteMessa:
; File C:\Program Files\Microsoft Visual Studio\2022\Professional\VC\Tools\MSVC\14.44.35207\include\deque

; 971  :         return _Mysize() == 0;

  0007b	8b 56 18	 mov	 edx, DWORD PTR [esi+24]
  0007e	85 d2		 test	 edx, edx
; File C:\IAGOS\server\v18\Source\Source\_aiinterface\aiinterface.cpp

; 64   : 	while( !m_MsgQueue.empty() )

  00080	75 9e		 jne	 SHORT $LL2@RouteMessa
  00082	5b		 pop	 ebx
$LN56@RouteMessa:

; 75   : 	}
; 76   : 	if( m_pStateFunc )

  00083	8b 46 20	 mov	 eax, DWORD PTR [esi+32]
  00086	85 c0		 test	 eax, eax
  00088	74 27		 je	 SHORT $LN6@RouteMessa

; 77   : 	{
; 78   : 		msg.dwMessage	= AIMSG_PROCESS;
; 79   : 		msg.dwParam1	= 0;
; 80   : 		msg.dwParam2	= 0;
; 81   : #ifdef __INSTANCE_AGGRO_SYSTEM
; 82   : 		msg.dwParam3	= 0;
; 83   : #endif // __INSTANCE_AGGRO_SYSTEM
; 84   : 		( this->*( m_pStateFunc ) ) ( msg );

  0008a	8d 4d ec	 lea	 ecx, DWORD PTR _msg$[ebp]
  0008d	c7 45 ec 02 00
	00 00		 mov	 DWORD PTR _msg$[ebp], 2
  00094	51		 push	 ecx
  00095	8b 4e 24	 mov	 ecx, DWORD PTR [esi+36]
  00098	03 ce		 add	 ecx, esi
  0009a	c7 45 f0 00 00
	00 00		 mov	 DWORD PTR _msg$[ebp+4], 0
  000a1	c7 45 f4 00 00
	00 00		 mov	 DWORD PTR _msg$[ebp+8], 0
  000a8	c7 45 f8 00 00
	00 00		 mov	 DWORD PTR _msg$[ebp+12], 0
  000af	ff d0		 call	 eax
$LN6@RouteMessa:

; 85   : 	}
; 86   : }

  000b1	8b 4d fc	 mov	 ecx, DWORD PTR __$ArrayPad$[ebp]
  000b4	5f		 pop	 edi
  000b5	33 cd		 xor	 ecx, ebp
  000b7	5e		 pop	 esi
  000b8	e8 00 00 00 00	 call	 @__security_check_cookie@4
  000bd	8b e5		 mov	 esp, ebp
  000bf	5d		 pop	 ebp
  000c0	c3		 ret	 0
?RouteMessage@CAIInterface@@UAEXXZ ENDP			; CAIInterface::RouteMessage
_TEXT	ENDS
; Function compile flags: /Ogtp
; File C:\IAGOS\server\v18\Source\Source\_aiinterface\aiinterface.cpp
;	COMDAT ??1CAIInterface@@UAE@XZ
_TEXT	SEGMENT
??1CAIInterface@@UAE@XZ PROC				; CAIInterface::~CAIInterface, COMDAT
; _this$ = ecx

; 31   : {

  00000	c7 01 00 00 00
	00		 mov	 DWORD PTR [ecx], OFFSET ??_7CAIInterface@@6B@
  00006	83 c1 08	 add	 ecx, 8
  00009	e9 00 00 00 00	 jmp	 ??1?$deque@UAIMSG@@V?$allocator@UAIMSG@@@std@@@std@@QAE@XZ ; std::deque<AIMSG,std::allocator<AIMSG> >::~deque<AIMSG,std::allocator<AIMSG> >
??1CAIInterface@@UAE@XZ ENDP				; CAIInterface::~CAIInterface
_TEXT	ENDS
; Function compile flags: /Ogtp
; File C:\IAGOS\server\v18\Source\Source\_aiinterface\aiinterface.cpp
; File C:\Program Files\Microsoft Visual Studio\2022\Professional\VC\Tools\MSVC\14.44.35207\include\xmemory
; File C:\IAGOS\server\v18\Source\Source\_aiinterface\aiinterface.cpp
; File C:\Program Files\Microsoft Visual Studio\2022\Professional\VC\Tools\MSVC\14.44.35207\include\xmemory
; File C:\Program Files\Microsoft Visual Studio\2022\Professional\VC\Tools\MSVC\14.44.35207\include\deque
; File C:\Program Files\Microsoft Visual Studio\2022\Professional\VC\Tools\MSVC\14.44.35207\include\xmemory
; File C:\IAGOS\server\v18\Source\Source\_aiinterface\aiinterface.cpp
;	COMDAT ??0CAIInterface@@QAE@PAVCObj@@@Z
_TEXT	SEGMENT
_this$ = -4						; size = 4
_this$ = -4						; size = 4
_pObj$ = 8						; size = 4
??0CAIInterface@@QAE@PAVCObj@@@Z PROC			; CAIInterface::CAIInterface, COMDAT
; _this$ = ecx

; 22   : { 

  00000	55		 push	 ebp
  00001	8b ec		 mov	 ebp, esp
  00003	51		 push	 ecx
  00004	56		 push	 esi
  00005	57		 push	 edi
  00006	8b f9		 mov	 edi, ecx
  00008	8d 77 08	 lea	 esi, DWORD PTR [edi+8]
  0000b	89 7d fc	 mov	 DWORD PTR _this$[ebp], edi
; File C:\Program Files\Microsoft Visual Studio\2022\Professional\VC\Tools\MSVC\14.44.35207\include\xmemory

; 136  :         return ::operator new(_Bytes);

  0000e	6a 08		 push	 8
; File C:\IAGOS\server\v18\Source\Source\_aiinterface\aiinterface.cpp

; 22   : { 

  00010	89 75 fc	 mov	 DWORD PTR _this$[ebp], esi
  00013	c7 07 00 00 00
	00		 mov	 DWORD PTR [edi], OFFSET ??_7CAIInterface@@6B@
; File C:\Program Files\Microsoft Visual Studio\2022\Professional\VC\Tools\MSVC\14.44.35207\include\xmemory

; 1235 :     _Container_proxy* _Myproxy = nullptr;

  00019	c7 06 00 00 00
	00		 mov	 DWORD PTR [esi], 0
; File C:\Program Files\Microsoft Visual Studio\2022\Professional\VC\Tools\MSVC\14.44.35207\include\deque

; 556  :     _Deque_val() noexcept : _Map(), _Mapsize(0), _Myoff(0), _Mysize(0) {}

  0001f	c7 46 04 00 00
	00 00		 mov	 DWORD PTR [esi+4], 0
  00026	c7 46 08 00 00
	00 00		 mov	 DWORD PTR [esi+8], 0
  0002d	c7 46 0c 00 00
	00 00		 mov	 DWORD PTR [esi+12], 0
  00034	c7 46 10 00 00
	00 00		 mov	 DWORD PTR [esi+16], 0
; File C:\Program Files\Microsoft Visual Studio\2022\Professional\VC\Tools\MSVC\14.44.35207\include\xmemory

; 136  :         return ::operator new(_Bytes);

  0003b	e8 00 00 00 00	 call	 ??2@YAPAXI@Z		; operator new
  00040	83 c4 04	 add	 esp, 4

; 1205 :     mutable _Iterator_base12* _Myfirstiter = nullptr;

  00043	c7 40 04 00 00
	00 00		 mov	 DWORD PTR [eax+4], 0

; 1222 :         _Myproxy            = _New_proxy;

  0004a	89 06		 mov	 DWORD PTR [esi], eax

; 1223 :         _New_proxy->_Mycont = this;

  0004c	89 30		 mov	 DWORD PTR [eax], esi
; File C:\IAGOS\server\v18\Source\Source\_aiinterface\aiinterface.cpp

; 23   : 	m_pObj = pObj;

  0004e	8b 45 08	 mov	 eax, DWORD PTR _pObj$[ebp]
  00051	89 47 30	 mov	 DWORD PTR [edi+48], eax

; 24   : 	m_pStateFunc = NULL;
; 25   : #if __VER >= 9	//__AI_0509
; 26   : 	m_uParty	= 0;
; 27   : #endif	// __AI_0509
; 28   : }

  00054	8b c7		 mov	 eax, edi
  00056	c7 47 20 00 00
	00 00		 mov	 DWORD PTR [edi+32], 0
  0005d	c7 47 24 00 00
	00 00		 mov	 DWORD PTR [edi+36], 0
  00064	c7 47 28 00 00
	00 00		 mov	 DWORD PTR [edi+40], 0
  0006b	c7 47 2c ff ff
	ff ff		 mov	 DWORD PTR [edi+44], -1
  00072	c7 47 34 00 00
	00 00		 mov	 DWORD PTR [edi+52], 0
  00079	5f		 pop	 edi
  0007a	5e		 pop	 esi
  0007b	8b e5		 mov	 esp, ebp
  0007d	5d		 pop	 ebp
  0007e	c2 04 00	 ret	 4
??0CAIInterface@@QAE@PAVCObj@@@Z ENDP			; CAIInterface::CAIInterface
_TEXT	ENDS
; Function compile flags: /Ogtp
; File C:\IAGOS\server\v18\Source\Source\_aiinterface\aiinterface.cpp
; File C:\Program Files\Microsoft Visual Studio\2022\Professional\VC\Tools\MSVC\14.44.35207\include\xmemory
; File C:\IAGOS\server\v18\Source\Source\_aiinterface\aiinterface.cpp
; File C:\Program Files\Microsoft Visual Studio\2022\Professional\VC\Tools\MSVC\14.44.35207\include\xmemory
; File C:\Program Files\Microsoft Visual Studio\2022\Professional\VC\Tools\MSVC\14.44.35207\include\deque
; File C:\Program Files\Microsoft Visual Studio\2022\Professional\VC\Tools\MSVC\14.44.35207\include\xmemory
; File C:\IAGOS\server\v18\Source\Source\_aiinterface\aiinterface.cpp
;	COMDAT ??0CAIInterface@@QAE@XZ
_TEXT	SEGMENT
_this$ = -4						; size = 4
_this$ = -4						; size = 4
??0CAIInterface@@QAE@XZ PROC				; CAIInterface::CAIInterface, COMDAT
; _this$ = ecx

; 14   : {

  00000	55		 push	 ebp
  00001	8b ec		 mov	 ebp, esp
  00003	51		 push	 ecx
  00004	56		 push	 esi
  00005	57		 push	 edi
  00006	8b f9		 mov	 edi, ecx
  00008	8d 77 08	 lea	 esi, DWORD PTR [edi+8]
  0000b	89 7d fc	 mov	 DWORD PTR _this$[ebp], edi
; File C:\Program Files\Microsoft Visual Studio\2022\Professional\VC\Tools\MSVC\14.44.35207\include\xmemory

; 136  :         return ::operator new(_Bytes);

  0000e	6a 08		 push	 8
; File C:\IAGOS\server\v18\Source\Source\_aiinterface\aiinterface.cpp

; 14   : {

  00010	89 75 fc	 mov	 DWORD PTR _this$[ebp], esi
  00013	c7 07 00 00 00
	00		 mov	 DWORD PTR [edi], OFFSET ??_7CAIInterface@@6B@
; File C:\Program Files\Microsoft Visual Studio\2022\Professional\VC\Tools\MSVC\14.44.35207\include\xmemory

; 1235 :     _Container_proxy* _Myproxy = nullptr;

  00019	c7 06 00 00 00
	00		 mov	 DWORD PTR [esi], 0
; File C:\Program Files\Microsoft Visual Studio\2022\Professional\VC\Tools\MSVC\14.44.35207\include\deque

; 556  :     _Deque_val() noexcept : _Map(), _Mapsize(0), _Myoff(0), _Mysize(0) {}

  0001f	c7 46 04 00 00
	00 00		 mov	 DWORD PTR [esi+4], 0
  00026	c7 46 08 00 00
	00 00		 mov	 DWORD PTR [esi+8], 0
  0002d	c7 46 0c 00 00
	00 00		 mov	 DWORD PTR [esi+12], 0
  00034	c7 46 10 00 00
	00 00		 mov	 DWORD PTR [esi+16], 0
; File C:\Program Files\Microsoft Visual Studio\2022\Professional\VC\Tools\MSVC\14.44.35207\include\xmemory

; 136  :         return ::operator new(_Bytes);

  0003b	e8 00 00 00 00	 call	 ??2@YAPAXI@Z		; operator new
  00040	83 c4 04	 add	 esp, 4

; 1205 :     mutable _Iterator_base12* _Myfirstiter = nullptr;

  00043	c7 40 04 00 00
	00 00		 mov	 DWORD PTR [eax+4], 0

; 1222 :         _Myproxy            = _New_proxy;

  0004a	89 06		 mov	 DWORD PTR [esi], eax

; 1223 :         _New_proxy->_Mycont = this;

  0004c	89 30		 mov	 DWORD PTR [eax], esi
; File C:\IAGOS\server\v18\Source\Source\_aiinterface\aiinterface.cpp

; 20   : }

  0004e	8b c7		 mov	 eax, edi
  00050	c7 47 30 00 00
	00 00		 mov	 DWORD PTR [edi+48], 0
  00057	c7 47 20 00 00
	00 00		 mov	 DWORD PTR [edi+32], 0
  0005e	c7 47 24 00 00
	00 00		 mov	 DWORD PTR [edi+36], 0
  00065	c7 47 28 00 00
	00 00		 mov	 DWORD PTR [edi+40], 0
  0006c	c7 47 2c ff ff
	ff ff		 mov	 DWORD PTR [edi+44], -1
  00073	c7 47 34 00 00
	00 00		 mov	 DWORD PTR [edi+52], 0
  0007a	5f		 pop	 edi
  0007b	5e		 pop	 esi
  0007c	8b e5		 mov	 esp, ebp
  0007e	5d		 pop	 ebp
  0007f	c3		 ret	 0
??0CAIInterface@@QAE@XZ ENDP				; CAIInterface::CAIInterface
_TEXT	ENDS
; Function compile flags: /Ogtp
; File C:\IAGOS\server\v18\Source\Source\_aiinterface\aiinterface.cpp
;	COMDAT ?GetStateMap@CAIInterface@@UBEPBUSTATEMAP@@XZ
_TEXT	SEGMENT
?GetStateMap@CAIInterface@@UBEPBUSTATEMAP@@XZ PROC	; CAIInterface::GetStateMap, COMDAT
; _this$ = ecx

; 10   : BEGIN_AISTATE_MAP( CAIInterface, CAIInterface )

  00000	b8 00 00 00 00	 mov	 eax, OFFSET ?stateMap@CAIInterface@@2USTATEMAP@@B ; CAIInterface::stateMap
  00005	c3		 ret	 0
?GetStateMap@CAIInterface@@UBEPBUSTATEMAP@@XZ ENDP	; CAIInterface::GetStateMap
_TEXT	ENDS
; Function compile flags: /Ogtp
; File C:\Program Files\Microsoft Visual Studio\2022\Professional\VC\Tools\MSVC\14.44.35207\include\deque
; File C:\Program Files\Microsoft Visual Studio\2022\Professional\VC\Tools\MSVC\14.44.35207\include\xmemory
; File C:\Program Files\Microsoft Visual Studio\2022\Professional\VC\Tools\MSVC\14.44.35207\include\deque
; File C:\Program Files\Microsoft Visual Studio\2022\Professional\VC\Tools\MSVC\14.44.35207\include\xmemory
; File C:\Program Files\Microsoft Visual Studio\2022\Professional\VC\Tools\MSVC\14.44.35207\include\deque
;	COMDAT ?_Growmap@?$deque@UAIMSG@@V?$allocator@UAIMSG@@@std@@@std@@AAEXI@Z
_TEXT	SEGMENT
__Myptr$1$ = -8						; size = 4
tv415 = -4						; size = 4
__Count$ = 8						; size = 4
$T1 = 8							; size = 4
__Almap$ = 11						; size = 1
?_Growmap@?$deque@UAIMSG@@V?$allocator@UAIMSG@@@std@@@std@@AAEXI@Z PROC ; std::deque<AIMSG,std::allocator<AIMSG> >::_Growmap, COMDAT
; _this$ = ecx

; 1602 :     void _Growmap(size_type _Count) { // grow map by at least _Count pointers, _Mapsize() a power of 2

  00000	55		 push	 ebp
  00001	8b ec		 mov	 ebp, esp

; 1603 :         static_assert(_Minimum_map_size > 1, "The _Xlen() test should always be performed.");
; 1604 : 
; 1605 :         _Alpty _Almap(_Getal());
; 1606 :         size_type _Newsize = _Mapsize() > 0 ? _Mapsize() : 1;

  00003	8b 55 08	 mov	 edx, DWORD PTR __Count$[ebp]
  00006	83 ec 08	 sub	 esp, 8
  00009	56		 push	 esi
  0000a	57		 push	 edi
  0000b	8b f9		 mov	 edi, ecx
  0000d	be 01 00 00 00	 mov	 esi, 1
  00012	8b 4f 08	 mov	 ecx, DWORD PTR [edi+8]
  00015	85 c9		 test	 ecx, ecx
  00017	0f 45 f1	 cmovne	 esi, ecx
  0001a	66 0f 1f 44 00
	00		 npad	 6
$LL2@Growmap:

; 1607 :         while (_Newsize - _Mapsize() < _Count || _Newsize < _Minimum_map_size) {

  00020	8b c6		 mov	 eax, esi
  00022	2b c1		 sub	 eax, ecx
  00024	3b c2		 cmp	 eax, edx
  00026	72 05		 jb	 SHORT $LN6@Growmap
  00028	83 fe 08	 cmp	 esi, 8
  0002b	73 13		 jae	 SHORT $LN3@Growmap
$LN6@Growmap:

; 1608 :             // scale _Newsize to 2^N >= _Mapsize() + _Count
; 1609 :             if (max_size() / _Block_size - _Newsize < _Newsize) {

  0002d	b8 ff ff ff 0f	 mov	 eax, 268435455		; 0fffffffH
  00032	2b c6		 sub	 eax, esi
  00034	3b c6		 cmp	 eax, esi
  00036	0f 82 f2 00 00
	00		 jb	 $LN36@Growmap

; 1611 :             }
; 1612 : 
; 1613 :             _Newsize *= 2;

  0003c	03 f6		 add	 esi, esi

; 1614 :         }

  0003e	eb e0		 jmp	 SHORT $LL2@Growmap
$LN3@Growmap:

; 1615 : 
; 1616 :         size_type _Allocsize = _Newsize;
; 1617 : 
; 1618 :         const auto _Myboff  = static_cast<size_type>(_Myoff() / _Block_size);

  00040	8b 47 0c	 mov	 eax, DWORD PTR [edi+12]
  00043	89 45 08	 mov	 DWORD PTR $T1[ebp], eax
; File C:\Program Files\Microsoft Visual Studio\2022\Professional\VC\Tools\MSVC\14.44.35207\include\xmemory

; 117  :         if (_Count > _Max_possible) {

  00046	81 fe ff ff ff
	3f		 cmp	 esi, 1073741823		; 3fffffffH
  0004c	0f 87 e1 00 00
	00		 ja	 $LN59@Growmap

; 119  :         }
; 120  :     }
; 121  : 
; 122  :     return _Count * _Ty_size;

  00052	8d 04 b5 00 00
	00 00		 lea	 eax, DWORD PTR [esi*4]
  00059	53		 push	 ebx

; 227  :     if (_Bytes == 0) {

  0005a	85 c0		 test	 eax, eax
  0005c	75 04		 jne	 SHORT $LN23@Growmap

; 228  :         return nullptr;

  0005e	33 db		 xor	 ebx, ebx
  00060	eb 19		 jmp	 SHORT $LN22@Growmap
$LN23@Growmap:

; 229  :     }
; 230  : 
; 231  : #if _HAS_CXX20 // TRANSITION, GH-1532
; 232  :     if (_STD is_constant_evaluated()) {
; 233  :         return _Traits::_Allocate(_Bytes);
; 234  :     }
; 235  : #endif // _HAS_CXX20
; 236  : 
; 237  : #ifdef __cpp_aligned_new
; 238  :     if constexpr (_Align > __STDCPP_DEFAULT_NEW_ALIGNMENT__) {
; 239  :         size_t _Passed_align = _Align;
; 240  : #if defined(_M_IX86) || defined(_M_X64)
; 241  :         if (_Bytes >= _Big_allocation_threshold) {
; 242  :             // boost the alignment of big allocations to help autovectorization
; 243  :             _Passed_align = (_STD max)(_Align, _Big_allocation_alignment);
; 244  :         }
; 245  : #endif // defined(_M_IX86) || defined(_M_X64)
; 246  :         return _Traits::_Allocate_aligned(_Bytes, _Passed_align);
; 247  :     } else
; 248  : #endif // defined(__cpp_aligned_new)
; 249  :     {
; 250  : #if defined(_M_IX86) || defined(_M_X64)
; 251  :         if (_Bytes >= _Big_allocation_threshold) {

  00062	50		 push	 eax
  00063	3d 00 10 00 00	 cmp	 eax, 4096		; 00001000H
  00068	72 07		 jb	 SHORT $LN24@Growmap

; 252  :             // boost the alignment of big allocations to help autovectorization
; 253  :             return _Allocate_manually_vector_aligned<_Traits>(_Bytes);

  0006a	e8 00 00 00 00	 call	 ??$_Allocate_manually_vector_aligned@U_Default_allocate_traits@std@@@std@@YAPAXI@Z ; std::_Allocate_manually_vector_aligned<std::_Default_allocate_traits>
  0006f	eb 05		 jmp	 SHORT $LN57@Growmap
$LN24@Growmap:

; 136  :         return ::operator new(_Bytes);

  00071	e8 00 00 00 00	 call	 ??2@YAPAXI@Z		; operator new
$LN57@Growmap:
; File C:\Program Files\Microsoft Visual Studio\2022\Professional\VC\Tools\MSVC\14.44.35207\include\deque

; 1621 :         _Mapptr _Myptr      = _Newmap + _Map_off;

  00076	8b d8		 mov	 ebx, eax
  00078	83 c4 04	 add	 esp, 4
$LN22@Growmap:
  0007b	8b 55 08	 mov	 edx, DWORD PTR $T1[ebp]
  0007e	c1 e2 02	 shl	 edx, 2
  00081	89 55 fc	 mov	 DWORD PTR tv415[ebp], edx
  00084	8d 04 1a	 lea	 eax, DWORD PTR [edx+ebx]
  00087	89 45 f8	 mov	 DWORD PTR __Myptr$1$[ebp], eax

; 1622 :         _STL_ASSERT(_Allocsize >= _Newsize, "_Allocsize >= _Newsize");
; 1623 :         while (_Newsize <= _Allocsize / 2) {

  0008a	8b c6		 mov	 eax, esi
  0008c	d1 e8		 shr	 eax, 1
  0008e	3b f0		 cmp	 esi, eax
  00090	77 06		 ja	 SHORT $LN5@Growmap
$LL4@Growmap:

; 1624 :             _Newsize *= 2;

  00092	03 f6		 add	 esi, esi
  00094	3b f0		 cmp	 esi, eax
  00096	76 fa		 jbe	 SHORT $LL4@Growmap
$LN5@Growmap:

; 1625 :         }
; 1626 : 
; 1627 :         _Count = _Newsize - _Mapsize();

  00098	8b 47 08	 mov	 eax, DWORD PTR [edi+8]
  0009b	2b f0		 sub	 esi, eax

; 1628 : 
; 1629 :         const auto _Map_count = static_cast<_Map_difference_type>(_Count);
; 1630 : 
; 1631 :         _Myptr = _STD uninitialized_copy(_Map() + _Map_off, _Map() + _Map_distance(), _Myptr); // copy initial to end

  0009d	8b 4f 04	 mov	 ecx, DWORD PTR [edi+4]
  000a0	ff 75 f8	 push	 DWORD PTR __Myptr$1$[ebp]
  000a3	8d 04 81	 lea	 eax, DWORD PTR [ecx+eax*4]
  000a6	50		 push	 eax
  000a7	8d 04 0a	 lea	 eax, DWORD PTR [edx+ecx]
  000aa	50		 push	 eax
  000ab	e8 00 00 00 00	 call	 ??$uninitialized_copy@PAPAUAIMSG@@PAPAU1@@std@@YAPAPAUAIMSG@@QAPAU1@0PAPAU1@@Z ; std::uninitialized_copy<AIMSG * *,AIMSG * *>
  000b0	8b 4f 04	 mov	 ecx, DWORD PTR [edi+4]
  000b3	83 c4 0c	 add	 esp, 12			; 0000000cH

; 1632 :         if (_Myboff <= _Count) { // increment greater than offset of initial block

  000b6	50		 push	 eax
  000b7	39 75 08	 cmp	 DWORD PTR $T1[ebp], esi
  000ba	77 22		 ja	 SHORT $LN8@Growmap

; 1633 :             _Myptr = _STD uninitialized_copy(_Map(), _Map() + _Map_off, _Myptr); // copy rest of old

  000bc	8b 45 fc	 mov	 eax, DWORD PTR tv415[ebp]
  000bf	03 c1		 add	 eax, ecx
  000c1	50		 push	 eax
  000c2	51		 push	 ecx
  000c3	e8 00 00 00 00	 call	 ??$uninitialized_copy@PAPAUAIMSG@@PAPAU1@@std@@YAPAPAUAIMSG@@QAPAU1@0PAPAU1@@Z ; std::uninitialized_copy<AIMSG * *,AIMSG * *>

; 1634 :             _Uninitialized_value_construct_n_unchecked1(_Myptr, _Count - _Myboff); // clear suffix of new

  000c8	8b ce		 mov	 ecx, esi
  000ca	2b 4d 08	 sub	 ecx, DWORD PTR $T1[ebp]
  000cd	51		 push	 ecx
  000ce	50		 push	 eax
  000cf	e8 00 00 00 00	 call	 ??$_Uninitialized_value_construct_n_unchecked1@PAPAUAIMSG@@I@std@@YAPAPAUAIMSG@@PAPAU1@I@Z ; std::_Uninitialized_value_construct_n_unchecked1<AIMSG * *,unsigned int>

; 1635 :             _Uninitialized_value_construct_n_unchecked1(_Newmap, _Myboff); // clear prefix of new
; 1636 :         } else { // increment not greater than offset of initial block

  000d4	8b 45 08	 mov	 eax, DWORD PTR $T1[ebp]
  000d7	83 c4 14	 add	 esp, 20			; 00000014H
  000da	8b cb		 mov	 ecx, ebx
  000dc	eb 24		 jmp	 SHORT $LN9@Growmap
$LN8@Growmap:

; 1637 :             _STD uninitialized_copy(_Map(), _Map() + _Map_count, _Myptr); // copy more old

  000de	8d 04 b1	 lea	 eax, DWORD PTR [ecx+esi*4]
  000e1	50		 push	 eax
  000e2	51		 push	 ecx
  000e3	e8 00 00 00 00	 call	 ??$uninitialized_copy@PAPAUAIMSG@@PAPAU1@@std@@YAPAPAUAIMSG@@QAPAU1@0PAPAU1@@Z ; std::uninitialized_copy<AIMSG * *,AIMSG * *>

; 1638 :             _Myptr = _STD uninitialized_copy(_Map() + _Map_count, _Map() + _Map_off, _Newmap); // copy rest of old

  000e8	8b 4f 04	 mov	 ecx, DWORD PTR [edi+4]
  000eb	8b 45 fc	 mov	 eax, DWORD PTR tv415[ebp]
  000ee	03 c1		 add	 eax, ecx
  000f0	53		 push	 ebx
  000f1	50		 push	 eax
  000f2	8d 04 b1	 lea	 eax, DWORD PTR [ecx+esi*4]
  000f5	50		 push	 eax
  000f6	e8 00 00 00 00	 call	 ??$uninitialized_copy@PAPAUAIMSG@@PAPAU1@@std@@YAPAPAUAIMSG@@QAPAU1@0PAPAU1@@Z ; std::uninitialized_copy<AIMSG * *,AIMSG * *>

; 1639 :             _Uninitialized_value_construct_n_unchecked1(_Myptr, _Count); // clear rest to initial block

  000fb	8b c8		 mov	 ecx, eax
  000fd	83 c4 18	 add	 esp, 24			; 00000018H
  00100	8b c6		 mov	 eax, esi
$LN9@Growmap:

; 1640 :         }
; 1641 : 
; 1642 :         if (_Map() != nullptr) {

  00102	50		 push	 eax
  00103	51		 push	 ecx
  00104	e8 00 00 00 00	 call	 ??$_Uninitialized_value_construct_n_unchecked1@PAPAUAIMSG@@I@std@@YAPAPAUAIMSG@@PAPAU1@I@Z ; std::_Uninitialized_value_construct_n_unchecked1<AIMSG * *,unsigned int>
  00109	8b 47 04	 mov	 eax, DWORD PTR [edi+4]
  0010c	83 c4 08	 add	 esp, 8
  0010f	85 c0		 test	 eax, eax
  00111	74 0c		 je	 SHORT $LN10@Growmap

; 1643 :             _Destroy_range(_Map(), _Map() + _Map_distance());
; 1644 :             _Almap.deallocate(_Map(), _Mapsize()); // free storage for old

  00113	ff 77 08	 push	 DWORD PTR [edi+8]
  00116	8d 4d 0b	 lea	 ecx, DWORD PTR __Almap$[ebp]
  00119	50		 push	 eax
  0011a	e8 00 00 00 00	 call	 ?deallocate@?$allocator@PAUAIMSG@@@std@@QAEXQAPAUAIMSG@@I@Z ; std::allocator<AIMSG *>::deallocate
$LN10@Growmap:

; 1645 :         }
; 1646 : 
; 1647 :         _Map() = _Newmap; // point at new
; 1648 :         _Mapsize() += _Count;

  0011f	01 77 08	 add	 DWORD PTR [edi+8], esi
  00122	89 5f 04	 mov	 DWORD PTR [edi+4], ebx
  00125	5b		 pop	 ebx

; 1649 :     }

  00126	5f		 pop	 edi
  00127	5e		 pop	 esi
  00128	8b e5		 mov	 esp, ebp
  0012a	5d		 pop	 ebp
  0012b	c2 04 00	 ret	 4
$LN36@Growmap:

; 1610 :                 _Xlen(); // result too long

  0012e	e8 00 00 00 00	 call	 ?_Xlen@?$deque@UAIMSG@@V?$allocator@UAIMSG@@@std@@@std@@CAXXZ ; std::deque<AIMSG,std::allocator<AIMSG> >::_Xlen
$LN59@Growmap:
; File C:\Program Files\Microsoft Visual Studio\2022\Professional\VC\Tools\MSVC\14.44.35207\include\xmemory

; 118  :             _Throw_bad_array_new_length(); // multiply overflow

  00133	e8 00 00 00 00	 call	 ?_Throw_bad_array_new_length@std@@YAXXZ ; std::_Throw_bad_array_new_length
$LN56@Growmap:
  00138	cc		 int	 3
?_Growmap@?$deque@UAIMSG@@V?$allocator@UAIMSG@@@std@@@std@@AAEXI@Z ENDP ; std::deque<AIMSG,std::allocator<AIMSG> >::_Growmap
_TEXT	ENDS
; Function compile flags: /Ogtp
; File C:\Program Files\Microsoft Visual Studio\2022\Professional\VC\Tools\MSVC\14.44.35207\include\deque
;	COMDAT ?_Xlen@?$deque@UAIMSG@@V?$allocator@UAIMSG@@@std@@@std@@CAXXZ
_TEXT	SEGMENT
?_Xlen@?$deque@UAIMSG@@V?$allocator@UAIMSG@@@std@@@std@@CAXXZ PROC ; std::deque<AIMSG,std::allocator<AIMSG> >::_Xlen, COMDAT

; 1595 :         _Xlength_error("deque<T> too long");

  00000	68 00 00 00 00	 push	 OFFSET ??_C@_0BC@KBDMBKEH@deque?$DMT?$DO?5too?5long@
  00005	e8 00 00 00 00	 call	 ?_Xlength_error@std@@YAXPBD@Z ; std::_Xlength_error
$LN3@Xlen:
  0000a	cc		 int	 3
?_Xlen@?$deque@UAIMSG@@V?$allocator@UAIMSG@@@std@@@std@@CAXXZ ENDP ; std::deque<AIMSG,std::allocator<AIMSG> >::_Xlen
_TEXT	ENDS
; Function compile flags: /Ogtp
; File C:\Program Files\Microsoft Visual Studio\2022\Professional\VC\Tools\MSVC\14.44.35207\include\deque
; File C:\Program Files\Microsoft Visual Studio\2022\Professional\VC\Tools\MSVC\14.44.35207\include\xmemory
; File C:\Program Files\Microsoft Visual Studio\2022\Professional\VC\Tools\MSVC\14.44.35207\include\deque
; File C:\Program Files\Microsoft Visual Studio\2022\Professional\VC\Tools\MSVC\14.44.35207\include\xmemory
; File C:\Program Files\Microsoft Visual Studio\2022\Professional\VC\Tools\MSVC\14.44.35207\include\deque
; File C:\Program Files\Microsoft Visual Studio\2022\Professional\VC\Tools\MSVC\14.44.35207\include\utility
; File C:\Program Files\Microsoft Visual Studio\2022\Professional\VC\Tools\MSVC\14.44.35207\include\xmemory
; File C:\Program Files\Microsoft Visual Studio\2022\Professional\VC\Tools\MSVC\14.44.35207\include\utility
; File C:\Program Files\Microsoft Visual Studio\2022\Professional\VC\Tools\MSVC\14.44.35207\include\xmemory
; File C:\Program Files\Microsoft Visual Studio\2022\Professional\VC\Tools\MSVC\14.44.35207\include\deque
; File C:\Program Files\Microsoft Visual Studio\2022\Professional\VC\Tools\MSVC\14.44.35207\include\xmemory
; File C:\Program Files\Microsoft Visual Studio\2022\Professional\VC\Tools\MSVC\14.44.35207\include\deque
;	COMDAT ??1?$deque@UAIMSG@@V?$allocator@UAIMSG@@@std@@@std@@QAE@XZ
_TEXT	SEGMENT
??1?$deque@UAIMSG@@V?$allocator@UAIMSG@@@std@@@std@@QAE@XZ PROC ; std::deque<AIMSG,std::allocator<AIMSG> >::~deque<AIMSG,std::allocator<AIMSG> >, COMDAT
; _this$ = ecx

; 773  :     ~deque() noexcept {

  00000	56		 push	 esi
  00001	8b f1		 mov	 esi, ecx

; 971  :         return _Mysize() == 0;

  00003	8b 4e 10	 mov	 ecx, DWORD PTR [esi+16]
  00006	85 c9		 test	 ecx, ecx

; 1673 :         while (!empty()) {

  00008	74 15		 je	 SHORT $LN93@deque
  0000a	66 0f 1f 44 00
	00		 npad	 6
$LL5@deque:

; 1513 :         if (--_Mysize() == 0) {

  00010	8d 41 ff	 lea	 eax, DWORD PTR [ecx-1]
  00013	89 46 10	 mov	 DWORD PTR [esi+16], eax
  00016	8b c8		 mov	 ecx, eax
  00018	85 c0		 test	 eax, eax
  0001a	75 f4		 jne	 SHORT $LL5@deque

; 1514 :             _Myoff() = 0;

  0001c	89 46 0c	 mov	 DWORD PTR [esi+12], eax
$LN93@deque:

; 1677 :         if (_Map() != nullptr) {

  0001f	83 7e 04 00	 cmp	 DWORD PTR [esi+4], 0
  00023	74 61		 je	 SHORT $LN28@deque
  00025	57		 push	 edi

; 1654 :         for (auto _Block = _Map_distance(); _Block > 0;) { // free storage for a block and destroy pointer

  00026	8b 7e 08	 mov	 edi, DWORD PTR [esi+8]
  00029	85 ff		 test	 edi, edi
  0002b	7e 1d		 jle	 SHORT $LN90@deque
  0002d	0f 1f 00	 npad	 3
$LL26@deque:

; 1655 :             --_Block;
; 1656 :             auto& _Block_ptr = _Map()[_Block];
; 1657 :             if (_Block_ptr) { // free block

  00030	8b 46 04	 mov	 eax, DWORD PTR [esi+4]
  00033	4f		 dec	 edi
  00034	8b 04 b8	 mov	 eax, DWORD PTR [eax+edi*4]
  00037	85 c0		 test	 eax, eax
  00039	74 0b		 je	 SHORT $LN24@deque
; File C:\Program Files\Microsoft Visual Studio\2022\Professional\VC\Tools\MSVC\14.44.35207\include\xmemory

; 289  :         ::operator delete(_Ptr, _Bytes);

  0003b	6a 10		 push	 16			; 00000010H
  0003d	50		 push	 eax
  0003e	e8 00 00 00 00	 call	 ??3@YAXPAXI@Z		; operator delete
  00043	83 c4 08	 add	 esp, 8
$LN24@deque:
; File C:\Program Files\Microsoft Visual Studio\2022\Professional\VC\Tools\MSVC\14.44.35207\include\deque

; 1654 :         for (auto _Block = _Map_distance(); _Block > 0;) { // free storage for a block and destroy pointer

  00046	85 ff		 test	 edi, edi
  00048	7f e6		 jg	 SHORT $LL26@deque
$LN90@deque:
; File C:\Program Files\Microsoft Visual Studio\2022\Professional\VC\Tools\MSVC\14.44.35207\include\xmemory

; 985  :         _STD _Deallocate<_New_alignof<_Ty>>(_Ptr, sizeof(_Ty) * _Count);

  0004a	8b 4e 08	 mov	 ecx, DWORD PTR [esi+8]
  0004d	8b 46 04	 mov	 eax, DWORD PTR [esi+4]
  00050	c1 e1 02	 shl	 ecx, 2
  00053	5f		 pop	 edi

; 284  :         if (_Bytes >= _Big_allocation_threshold) {

  00054	81 f9 00 10 00
	00		 cmp	 ecx, 4096		; 00001000H
  0005a	72 12		 jb	 SHORT $LN54@deque

; 205  :     const uintptr_t _Ptr_container   = _Ptr_user[-1];

  0005c	8b 50 fc	 mov	 edx, DWORD PTR [eax-4]
  0005f	83 c1 23	 add	 ecx, 35			; 00000023H

; 206  : 
; 207  :     // If the following asserts, it likely means that we are performing
; 208  :     // an aligned delete on memory coming from an unaligned allocation.
; 209  :     _STL_ASSERT(_Ptr_user[-2] == _Big_allocation_sentinel, "invalid argument");
; 210  : 
; 211  :     // Extra paranoia on aligned allocation/deallocation; ensure _Ptr_container is
; 212  :     // in range [_Min_back_shift, _Non_user_size]
; 213  : #ifdef _DEBUG
; 214  :     constexpr uintptr_t _Min_back_shift = 2 * sizeof(void*);
; 215  : #else // ^^^ defined(_DEBUG) / !defined(_DEBUG) vvv
; 216  :     constexpr uintptr_t _Min_back_shift = sizeof(void*);
; 217  : #endif // ^^^ !defined(_DEBUG) ^^^
; 218  :     const uintptr_t _Back_shift = reinterpret_cast<uintptr_t>(_Ptr) - _Ptr_container;

  00062	2b c2		 sub	 eax, edx

; 219  :     _STL_VERIFY(_Back_shift >= _Min_back_shift && _Back_shift <= _Non_user_size, "invalid argument");

  00064	83 c0 fc	 add	 eax, -4			; fffffffcH
  00067	83 f8 1f	 cmp	 eax, 31			; 0000001fH
  0006a	77 2f		 ja	 SHORT $LN53@deque

; 220  :     _Ptr = reinterpret_cast<void*>(_Ptr_container);

  0006c	8b c2		 mov	 eax, edx
$LN54@deque:

; 289  :         ::operator delete(_Ptr, _Bytes);

  0006e	51		 push	 ecx
  0006f	50		 push	 eax
  00070	e8 00 00 00 00	 call	 ??3@YAXPAXI@Z		; operator delete
  00075	83 c4 08	 add	 esp, 8
; File C:\Program Files\Microsoft Visual Studio\2022\Professional\VC\Tools\MSVC\14.44.35207\include\deque

; 1666 :         _Map()     = nullptr;

  00078	c7 46 04 00 00
	00 00		 mov	 DWORD PTR [esi+4], 0

; 1667 :         _Mapsize() = 0;

  0007f	c7 46 08 00 00
	00 00		 mov	 DWORD PTR [esi+8], 0
$LN28@deque:
; File C:\Program Files\Microsoft Visual Studio\2022\Professional\VC\Tools\MSVC\14.44.35207\include\utility

; 773  :     _Ty _Old_val = static_cast<_Ty&&>(_Val);

  00086	8b 06		 mov	 eax, DWORD PTR [esi]
; File C:\Program Files\Microsoft Visual Studio\2022\Professional\VC\Tools\MSVC\14.44.35207\include\xmemory

; 289  :         ::operator delete(_Ptr, _Bytes);

  00088	6a 08		 push	 8
  0008a	50		 push	 eax
; File C:\Program Files\Microsoft Visual Studio\2022\Professional\VC\Tools\MSVC\14.44.35207\include\utility

; 774  :     _Val         = static_cast<_Other&&>(_New_val);

  0008b	c7 06 00 00 00
	00		 mov	 DWORD PTR [esi], 0
; File C:\Program Files\Microsoft Visual Studio\2022\Professional\VC\Tools\MSVC\14.44.35207\include\xmemory

; 289  :         ::operator delete(_Ptr, _Bytes);

  00091	e8 00 00 00 00	 call	 ??3@YAXPAXI@Z		; operator delete
  00096	83 c4 08	 add	 esp, 8
  00099	5e		 pop	 esi
; File C:\Program Files\Microsoft Visual Studio\2022\Professional\VC\Tools\MSVC\14.44.35207\include\deque

; 777  :     }

  0009a	c3		 ret	 0
$LN53@deque:
; File C:\Program Files\Microsoft Visual Studio\2022\Professional\VC\Tools\MSVC\14.44.35207\include\xmemory

; 219  :     _STL_VERIFY(_Back_shift >= _Min_back_shift && _Back_shift <= _Non_user_size, "invalid argument");

  0009b	6a 00		 push	 0
  0009d	6a 00		 push	 0
  0009f	6a 00		 push	 0
  000a1	6a 00		 push	 0
  000a3	6a 00		 push	 0
  000a5	e8 00 00 00 00	 call	 __invoke_watson
$LN102@deque:
  000aa	cc		 int	 3
??1?$deque@UAIMSG@@V?$allocator@UAIMSG@@@std@@@std@@QAE@XZ ENDP ; std::deque<AIMSG,std::allocator<AIMSG> >::~deque<AIMSG,std::allocator<AIMSG> >
_TEXT	ENDS
; Function compile flags: /Ogtp
; File C:\Program Files\Microsoft Visual Studio\2022\Professional\VC\Tools\MSVC\14.44.35207\include\xmemory
;	COMDAT ?deallocate@?$allocator@PAUAIMSG@@@std@@QAEXQAPAUAIMSG@@I@Z
_TEXT	SEGMENT
__Ptr$ = 8						; size = 4
__Count$ = 12						; size = 4
?deallocate@?$allocator@PAUAIMSG@@@std@@QAEXQAPAUAIMSG@@I@Z PROC ; std::allocator<AIMSG *>::deallocate, COMDAT
; _this$ = ecx

; 982  :     _CONSTEXPR20 void deallocate(_Ty* const _Ptr, const size_t _Count) noexcept /* strengthened */ {

  00000	55		 push	 ebp
  00001	8b ec		 mov	 ebp, esp

; 983  :         _STL_ASSERT(_Ptr != nullptr || _Count == 0, "null pointer cannot point to a block of non-zero size");
; 984  :         // no overflow check on the following multiply; we assume _Allocate did that check
; 985  :         _STD _Deallocate<_New_alignof<_Ty>>(_Ptr, sizeof(_Ty) * _Count);

  00003	8b 45 0c	 mov	 eax, DWORD PTR __Count$[ebp]
  00006	8d 0c 85 00 00
	00 00		 lea	 ecx, DWORD PTR [eax*4]
  0000d	8b 45 08	 mov	 eax, DWORD PTR __Ptr$[ebp]

; 284  :         if (_Bytes >= _Big_allocation_threshold) {

  00010	81 f9 00 10 00
	00		 cmp	 ecx, 4096		; 00001000H
  00016	72 12		 jb	 SHORT $LN11@deallocate

; 205  :     const uintptr_t _Ptr_container   = _Ptr_user[-1];

  00018	8b 50 fc	 mov	 edx, DWORD PTR [eax-4]
  0001b	83 c1 23	 add	 ecx, 35			; 00000023H

; 206  : 
; 207  :     // If the following asserts, it likely means that we are performing
; 208  :     // an aligned delete on memory coming from an unaligned allocation.
; 209  :     _STL_ASSERT(_Ptr_user[-2] == _Big_allocation_sentinel, "invalid argument");
; 210  : 
; 211  :     // Extra paranoia on aligned allocation/deallocation; ensure _Ptr_container is
; 212  :     // in range [_Min_back_shift, _Non_user_size]
; 213  : #ifdef _DEBUG
; 214  :     constexpr uintptr_t _Min_back_shift = 2 * sizeof(void*);
; 215  : #else // ^^^ defined(_DEBUG) / !defined(_DEBUG) vvv
; 216  :     constexpr uintptr_t _Min_back_shift = sizeof(void*);
; 217  : #endif // ^^^ !defined(_DEBUG) ^^^
; 218  :     const uintptr_t _Back_shift = reinterpret_cast<uintptr_t>(_Ptr) - _Ptr_container;

  0001e	2b c2		 sub	 eax, edx

; 219  :     _STL_VERIFY(_Back_shift >= _Min_back_shift && _Back_shift <= _Non_user_size, "invalid argument");

  00020	83 c0 fc	 add	 eax, -4			; fffffffcH
  00023	83 f8 1f	 cmp	 eax, 31			; 0000001fH
  00026	77 10		 ja	 SHORT $LN10@deallocate

; 220  :     _Ptr = reinterpret_cast<void*>(_Ptr_container);

  00028	8b c2		 mov	 eax, edx
$LN11@deallocate:

; 289  :         ::operator delete(_Ptr, _Bytes);

  0002a	51		 push	 ecx
  0002b	50		 push	 eax
  0002c	e8 00 00 00 00	 call	 ??3@YAXPAXI@Z		; operator delete
  00031	83 c4 08	 add	 esp, 8

; 986  :     }

  00034	5d		 pop	 ebp
  00035	c2 08 00	 ret	 8
$LN10@deallocate:

; 219  :     _STL_VERIFY(_Back_shift >= _Min_back_shift && _Back_shift <= _Non_user_size, "invalid argument");

  00038	6a 00		 push	 0
  0003a	6a 00		 push	 0
  0003c	6a 00		 push	 0
  0003e	6a 00		 push	 0
  00040	6a 00		 push	 0
  00042	e8 00 00 00 00	 call	 __invoke_watson
$LN14@deallocate:
  00047	cc		 int	 3
?deallocate@?$allocator@PAUAIMSG@@@std@@QAEXQAPAUAIMSG@@I@Z ENDP ; std::allocator<AIMSG *>::deallocate
_TEXT	ENDS
; Function compile flags: /Ogtp
; File C:\IAGOS\server\v18\Source\Source\_aiinterface\aiinterface.cpp
;	COMDAT ?GetAIStateFunc@CAIInterface@@AAEP81@AEHABUAIMSG@@@ZK@Z
_TEXT	SEGMENT
__$ReturnAddress$ = 8					; size = 4
_dwState$ = 12						; size = 4
?GetAIStateFunc@CAIInterface@@AAEP81@AEHABUAIMSG@@@ZK@Z PROC ; CAIInterface::GetAIStateFunc, COMDAT
; _this$ = ecx

; 37   : {

  00000	55		 push	 ebp
  00001	8b ec		 mov	 ebp, esp

; 38   : 	const STATEMAP* lpCurrentStateMap = GetStateMap();

  00003	8b 01		 mov	 eax, DWORD PTR [ecx]
  00005	56		 push	 esi
  00006	57		 push	 edi
  00007	ff 10		 call	 DWORD PTR [eax]

; 39   : 	const STATEMAP_ENTRIES* lpEntries = lpCurrentStateMap->lpStateMapEntries;
; 40   : 	// ÇĎşÎ °´ĂĽşÎĹÍ ŔĎÄˇÇĎ´Â ¸Ĺ˝ĂÁö¸¦ ĂŁ´Â´Ů. 
; 41   : 	while( lpCurrentStateMap->lpBaseStateMap->lpStateMapEntries != lpEntries )

  00009	8b 30		 mov	 esi, DWORD PTR [eax]
  0000b	8b 78 04	 mov	 edi, DWORD PTR [eax+4]
  0000e	39 7e 04	 cmp	 DWORD PTR [esi+4], edi
  00011	74 27		 je	 SHORT $LN16@GetAIState
  00013	8b 55 0c	 mov	 edx, DWORD PTR _dwState$[ebp]
$LL2@GetAIState:

; 42   : 	{
; 43   : 		int i = 0;

  00016	33 c9		 xor	 ecx, ecx
  00018	8b c7		 mov	 eax, edi
  0001a	66 0f 1f 44 00
	00		 npad	 6
$LL4@GetAIState:

; 44   : 		while(  lpEntries[ i ].pStateFunc )

  00020	83 78 08 00	 cmp	 DWORD PTR [eax+8], 0
  00024	74 0a		 je	 SHORT $LN23@GetAIState

; 45   : 		{
; 46   : 			if( lpEntries[ i ].dwAIStateId == dwState )

  00026	39 10		 cmp	 DWORD PTR [eax], edx
  00028	74 34		 je	 SHORT $LN14@GetAIState

; 49   : 			}
; 50   : 			i++;

  0002a	41		 inc	 ecx
  0002b	83 c0 18	 add	 eax, 24			; 00000018H

; 51   : 		}

  0002e	eb f0		 jmp	 SHORT $LL4@GetAIState
$LN23@GetAIState:

; 52   : 		// ąß°ßµÇÁö ľĘľŇ´Ů! »óŔ§ °´ĂĽ·Î Ć÷ŔÎĹÍ¸¦ ąŮ˛Ű´Ů.
; 53   : 		lpCurrentStateMap = lpCurrentStateMap->lpBaseStateMap;
; 54   : 		lpEntries = lpCurrentStateMap->lpStateMapEntries;

  00030	8b 7e 04	 mov	 edi, DWORD PTR [esi+4]
  00033	8b 36		 mov	 esi, DWORD PTR [esi]
  00035	39 7e 04	 cmp	 DWORD PTR [esi+4], edi
  00038	75 dc		 jne	 SHORT $LL2@GetAIState
$LN16@GetAIState:

; 55   : 	}
; 56   : 	return NULL;

  0003a	8b 45 08	 mov	 eax, DWORD PTR __$ReturnAddress$[ebp]
  0003d	5f		 pop	 edi

; 57   : }

  0003e	5e		 pop	 esi
  0003f	c7 00 00 00 00
	00		 mov	 DWORD PTR [eax], 0
  00045	c7 40 04 00 00
	00 00		 mov	 DWORD PTR [eax+4], 0
  0004c	c7 40 08 00 00
	00 00		 mov	 DWORD PTR [eax+8], 0
  00053	c7 40 0c ff ff
	ff ff		 mov	 DWORD PTR [eax+12], -1
  0005a	5d		 pop	 ebp
  0005b	c2 08 00	 ret	 8
$LN14@GetAIState:

; 47   : 			{
; 48   : 				return lpEntries[ i ].pStateFunc;

  0005e	8d 04 49	 lea	 eax, DWORD PTR [ecx+ecx*2]
  00061	0f 10 44 c7 08	 movups	 xmm0, XMMWORD PTR [edi+eax*8+8]
  00066	8b 45 08	 mov	 eax, DWORD PTR __$ReturnAddress$[ebp]
  00069	5f		 pop	 edi

; 57   : }

  0006a	5e		 pop	 esi
  0006b	0f 11 00	 movups	 XMMWORD PTR [eax], xmm0
  0006e	5d		 pop	 ebp
  0006f	c2 08 00	 ret	 8
?GetAIStateFunc@CAIInterface@@AAEP81@AEHABUAIMSG@@@ZK@Z ENDP ; CAIInterface::GetAIStateFunc
_TEXT	ENDS
; Function compile flags: /Ogtp
; File C:\IAGOS\server\v18\Source\Source\DX_SDK\d3dx9math.h
;	COMDAT ??0D3DXVECTOR3@@QAE@XZ
_TEXT	SEGMENT
??0D3DXVECTOR3@@QAE@XZ PROC				; D3DXVECTOR3::D3DXVECTOR3, COMDAT
; _this$ = ecx

; 165  :     D3DXVECTOR3() {};

  00000	8b c1		 mov	 eax, ecx
  00002	c3		 ret	 0
??0D3DXVECTOR3@@QAE@XZ ENDP				; D3DXVECTOR3::D3DXVECTOR3
_TEXT	ENDS
; Function compile flags: /Ogtp
; File C:\Program Files\Microsoft Visual Studio\2022\Professional\VC\Tools\MSVC\14.44.35207\include\xmemory
;	COMDAT ?_Throw_bad_array_new_length@std@@YAXXZ
_TEXT	SEGMENT
$T1 = -12						; size = 12
?_Throw_bad_array_new_length@std@@YAXXZ PROC		; std::_Throw_bad_array_new_length, COMDAT

; 107  : [[noreturn]] inline void _Throw_bad_array_new_length() {

  00000	55		 push	 ebp
  00001	8b ec		 mov	 ebp, esp
  00003	83 ec 0c	 sub	 esp, 12			; 0000000cH

; 108  :     _THROW(bad_array_new_length{});

  00006	8d 4d f4	 lea	 ecx, DWORD PTR $T1[ebp]
  00009	e8 00 00 00 00	 call	 ??0bad_array_new_length@std@@QAE@XZ ; std::bad_array_new_length::bad_array_new_length
  0000e	68 00 00 00 00	 push	 OFFSET __TI3?AVbad_array_new_length@std@@
  00013	8d 45 f4	 lea	 eax, DWORD PTR $T1[ebp]
  00016	50		 push	 eax
  00017	e8 00 00 00 00	 call	 __CxxThrowException@8
$LN3@Throw_bad_:
  0001c	cc		 int	 3
?_Throw_bad_array_new_length@std@@YAXXZ ENDP		; std::_Throw_bad_array_new_length
_TEXT	ENDS
; Function compile flags: /Ogtp
; File C:\Program Files\Microsoft Visual Studio\2022\Professional\VC\Tools\MSVC\14.44.35207\include\vcruntime_exception.h
;	COMDAT ??_Gbad_array_new_length@std@@UAEPAXI@Z
_TEXT	SEGMENT
___flags$ = 8						; size = 4
??_Gbad_array_new_length@std@@UAEPAXI@Z PROC		; std::bad_array_new_length::`scalar deleting destructor', COMDAT
; _this$ = ecx
  00000	55		 push	 ebp
  00001	8b ec		 mov	 ebp, esp

; 90   :     {

  00003	56		 push	 esi
  00004	8b f1		 mov	 esi, ecx

; 91   :         __std_exception_destroy(&_Data);

  00006	8d 46 04	 lea	 eax, DWORD PTR [esi+4]
  00009	c7 06 00 00 00
	00		 mov	 DWORD PTR [esi], OFFSET ??_7exception@std@@6B@
  0000f	50		 push	 eax
  00010	e8 00 00 00 00	 call	 ___std_exception_destroy
  00015	83 c4 04	 add	 esp, 4
  00018	f6 45 08 01	 test	 BYTE PTR ___flags$[ebp], 1
  0001c	74 0b		 je	 SHORT $LN18@scalar
  0001e	6a 0c		 push	 12			; 0000000cH
  00020	56		 push	 esi
  00021	e8 00 00 00 00	 call	 ??3@YAXPAXI@Z		; operator delete
  00026	83 c4 08	 add	 esp, 8
$LN18@scalar:
  00029	8b c6		 mov	 eax, esi
  0002b	5e		 pop	 esi
  0002c	5d		 pop	 ebp
  0002d	c2 04 00	 ret	 4
??_Gbad_array_new_length@std@@UAEPAXI@Z ENDP		; std::bad_array_new_length::`scalar deleting destructor'
_TEXT	ENDS
; Function compile flags: /Ogtp
; File C:\Program Files\Microsoft Visual Studio\2022\Professional\VC\Tools\MSVC\14.44.35207\include\vcruntime_exception.h
;	COMDAT ??0bad_array_new_length@std@@QAE@ABV01@@Z
_TEXT	SEGMENT
___that$ = 8						; size = 4
??0bad_array_new_length@std@@QAE@ABV01@@Z PROC		; std::bad_array_new_length::bad_array_new_length, COMDAT
; _this$ = ecx
  00000	55		 push	 ebp
  00001	8b ec		 mov	 ebp, esp

; 73   :     {

  00003	56		 push	 esi
  00004	8b f1		 mov	 esi, ecx
  00006	0f 57 c0	 xorps	 xmm0, xmm0

; 72   :         : _Data()

  00009	8d 46 04	 lea	 eax, DWORD PTR [esi+4]

; 74   :         __std_exception_copy(&_Other._Data, &_Data);

  0000c	50		 push	 eax
  0000d	c7 06 00 00 00
	00		 mov	 DWORD PTR [esi], OFFSET ??_7exception@std@@6B@
  00013	66 0f d6 00	 movq	 QWORD PTR [eax], xmm0
  00017	8b 45 08	 mov	 eax, DWORD PTR ___that$[ebp]
  0001a	83 c0 04	 add	 eax, 4
  0001d	50		 push	 eax
  0001e	e8 00 00 00 00	 call	 ___std_exception_copy
  00023	83 c4 08	 add	 esp, 8
  00026	c7 06 00 00 00
	00		 mov	 DWORD PTR [esi], OFFSET ??_7bad_array_new_length@std@@6B@
  0002c	8b c6		 mov	 eax, esi
  0002e	5e		 pop	 esi
  0002f	5d		 pop	 ebp
  00030	c2 04 00	 ret	 4
??0bad_array_new_length@std@@QAE@ABV01@@Z ENDP		; std::bad_array_new_length::bad_array_new_length
_TEXT	ENDS
; Function compile flags: /Ogtp
; File C:\Program Files\Microsoft Visual Studio\2022\Professional\VC\Tools\MSVC\14.44.35207\include\vcruntime_exception.h
;	COMDAT ??1bad_array_new_length@std@@UAE@XZ
_TEXT	SEGMENT
??1bad_array_new_length@std@@UAE@XZ PROC		; std::bad_array_new_length::~bad_array_new_length, COMDAT
; _this$ = ecx

; 91   :         __std_exception_destroy(&_Data);

  00000	8d 41 04	 lea	 eax, DWORD PTR [ecx+4]
  00003	c7 01 00 00 00
	00		 mov	 DWORD PTR [ecx], OFFSET ??_7exception@std@@6B@
  00009	50		 push	 eax
  0000a	e8 00 00 00 00	 call	 ___std_exception_destroy
  0000f	59		 pop	 ecx
  00010	c3		 ret	 0
??1bad_array_new_length@std@@UAE@XZ ENDP		; std::bad_array_new_length::~bad_array_new_length
_TEXT	ENDS
; Function compile flags: /Ogtp
; File C:\Program Files\Microsoft Visual Studio\2022\Professional\VC\Tools\MSVC\14.44.35207\include\vcruntime_exception.h
;	COMDAT ??0bad_array_new_length@std@@QAE@XZ
_TEXT	SEGMENT
??0bad_array_new_length@std@@QAE@XZ PROC		; std::bad_array_new_length::bad_array_new_length, COMDAT
; _this$ = ecx

; 144  :     {

  00000	0f 57 c0	 xorps	 xmm0, xmm0

; 145  :     }

  00003	8b c1		 mov	 eax, ecx

; 66   :         : _Data()

  00005	66 0f d6 41 04	 movq	 QWORD PTR [ecx+4], xmm0

; 67   :     {
; 68   :         _Data._What = _Message;

  0000a	c7 41 04 00 00
	00 00		 mov	 DWORD PTR [ecx+4], OFFSET ??_C@_0BF@KINCDENJ@bad?5array?5new?5length@

; 144  :     {

  00011	c7 01 00 00 00
	00		 mov	 DWORD PTR [ecx], OFFSET ??_7bad_array_new_length@std@@6B@

; 145  :     }

  00017	c3		 ret	 0
??0bad_array_new_length@std@@QAE@XZ ENDP		; std::bad_array_new_length::bad_array_new_length
_TEXT	ENDS
; Function compile flags: /Ogtp
; File C:\Program Files\Microsoft Visual Studio\2022\Professional\VC\Tools\MSVC\14.44.35207\include\vcruntime_exception.h
;	COMDAT ??_Gbad_alloc@std@@UAEPAXI@Z
_TEXT	SEGMENT
___flags$ = 8						; size = 4
??_Gbad_alloc@std@@UAEPAXI@Z PROC			; std::bad_alloc::`scalar deleting destructor', COMDAT
; _this$ = ecx
  00000	55		 push	 ebp
  00001	8b ec		 mov	 ebp, esp

; 90   :     {

  00003	56		 push	 esi
  00004	8b f1		 mov	 esi, ecx

; 91   :         __std_exception_destroy(&_Data);

  00006	8d 46 04	 lea	 eax, DWORD PTR [esi+4]
  00009	c7 06 00 00 00
	00		 mov	 DWORD PTR [esi], OFFSET ??_7exception@std@@6B@
  0000f	50		 push	 eax
  00010	e8 00 00 00 00	 call	 ___std_exception_destroy
  00015	83 c4 04	 add	 esp, 4
  00018	f6 45 08 01	 test	 BYTE PTR ___flags$[ebp], 1
  0001c	74 0b		 je	 SHORT $LN13@scalar
  0001e	6a 0c		 push	 12			; 0000000cH
  00020	56		 push	 esi
  00021	e8 00 00 00 00	 call	 ??3@YAXPAXI@Z		; operator delete
  00026	83 c4 08	 add	 esp, 8
$LN13@scalar:
  00029	8b c6		 mov	 eax, esi
  0002b	5e		 pop	 esi
  0002c	5d		 pop	 ebp
  0002d	c2 04 00	 ret	 4
??_Gbad_alloc@std@@UAEPAXI@Z ENDP			; std::bad_alloc::`scalar deleting destructor'
_TEXT	ENDS
; Function compile flags: /Ogtp
; File C:\Program Files\Microsoft Visual Studio\2022\Professional\VC\Tools\MSVC\14.44.35207\include\vcruntime_exception.h
;	COMDAT ??0bad_alloc@std@@QAE@ABV01@@Z
_TEXT	SEGMENT
___that$ = 8						; size = 4
??0bad_alloc@std@@QAE@ABV01@@Z PROC			; std::bad_alloc::bad_alloc, COMDAT
; _this$ = ecx
  00000	55		 push	 ebp
  00001	8b ec		 mov	 ebp, esp

; 73   :     {

  00003	56		 push	 esi
  00004	8b f1		 mov	 esi, ecx
  00006	0f 57 c0	 xorps	 xmm0, xmm0

; 72   :         : _Data()

  00009	8d 46 04	 lea	 eax, DWORD PTR [esi+4]

; 74   :         __std_exception_copy(&_Other._Data, &_Data);

  0000c	50		 push	 eax
  0000d	c7 06 00 00 00
	00		 mov	 DWORD PTR [esi], OFFSET ??_7exception@std@@6B@
  00013	66 0f d6 00	 movq	 QWORD PTR [eax], xmm0
  00017	8b 45 08	 mov	 eax, DWORD PTR ___that$[ebp]
  0001a	83 c0 04	 add	 eax, 4
  0001d	50		 push	 eax
  0001e	e8 00 00 00 00	 call	 ___std_exception_copy
  00023	83 c4 08	 add	 esp, 8
  00026	c7 06 00 00 00
	00		 mov	 DWORD PTR [esi], OFFSET ??_7bad_alloc@std@@6B@
  0002c	8b c6		 mov	 eax, esi
  0002e	5e		 pop	 esi
  0002f	5d		 pop	 ebp
  00030	c2 04 00	 ret	 4
??0bad_alloc@std@@QAE@ABV01@@Z ENDP			; std::bad_alloc::bad_alloc
_TEXT	ENDS
; Function compile flags: /Ogtp
; File C:\Program Files\Microsoft Visual Studio\2022\Professional\VC\Tools\MSVC\14.44.35207\include\vcruntime_exception.h
;	COMDAT ??_Gexception@std@@UAEPAXI@Z
_TEXT	SEGMENT
___flags$ = 8						; size = 4
??_Gexception@std@@UAEPAXI@Z PROC			; std::exception::`scalar deleting destructor', COMDAT
; _this$ = ecx
  00000	55		 push	 ebp
  00001	8b ec		 mov	 ebp, esp

; 90   :     {

  00003	56		 push	 esi
  00004	8b f1		 mov	 esi, ecx

; 91   :         __std_exception_destroy(&_Data);

  00006	8d 46 04	 lea	 eax, DWORD PTR [esi+4]
  00009	c7 06 00 00 00
	00		 mov	 DWORD PTR [esi], OFFSET ??_7exception@std@@6B@
  0000f	50		 push	 eax
  00010	e8 00 00 00 00	 call	 ___std_exception_destroy
  00015	83 c4 04	 add	 esp, 4
  00018	f6 45 08 01	 test	 BYTE PTR ___flags$[ebp], 1
  0001c	74 0b		 je	 SHORT $LN8@scalar
  0001e	6a 0c		 push	 12			; 0000000cH
  00020	56		 push	 esi
  00021	e8 00 00 00 00	 call	 ??3@YAXPAXI@Z		; operator delete
  00026	83 c4 08	 add	 esp, 8
$LN8@scalar:
  00029	8b c6		 mov	 eax, esi
  0002b	5e		 pop	 esi
  0002c	5d		 pop	 ebp
  0002d	c2 04 00	 ret	 4
??_Gexception@std@@UAEPAXI@Z ENDP			; std::exception::`scalar deleting destructor'
_TEXT	ENDS
; Function compile flags: /Ogtp
; File C:\Program Files\Microsoft Visual Studio\2022\Professional\VC\Tools\MSVC\14.44.35207\include\vcruntime_exception.h
;	COMDAT ?what@exception@std@@UBEPBDXZ
_TEXT	SEGMENT
?what@exception@std@@UBEPBDXZ PROC			; std::exception::what, COMDAT
; _this$ = ecx

; 96   :         return _Data._What ? _Data._What : "Unknown exception";

  00000	8b 49 04	 mov	 ecx, DWORD PTR [ecx+4]
  00003	b8 00 00 00 00	 mov	 eax, OFFSET ??_C@_0BC@EOODALEL@Unknown?5exception@
  00008	85 c9		 test	 ecx, ecx
  0000a	0f 45 c1	 cmovne	 eax, ecx

; 97   :     }

  0000d	c3		 ret	 0
?what@exception@std@@UBEPBDXZ ENDP			; std::exception::what
_TEXT	ENDS
; Function compile flags: /Ogtp
; File C:\Program Files\Microsoft Visual Studio\2022\Professional\VC\Tools\MSVC\14.44.35207\include\vcruntime_exception.h
;	COMDAT ??1exception@std@@UAE@XZ
_TEXT	SEGMENT
??1exception@std@@UAE@XZ PROC				; std::exception::~exception, COMDAT
; _this$ = ecx

; 91   :         __std_exception_destroy(&_Data);

  00000	8d 41 04	 lea	 eax, DWORD PTR [ecx+4]
  00003	c7 01 00 00 00
	00		 mov	 DWORD PTR [ecx], OFFSET ??_7exception@std@@6B@
  00009	50		 push	 eax
  0000a	e8 00 00 00 00	 call	 ___std_exception_destroy
  0000f	59		 pop	 ecx

; 92   :     }

  00010	c3		 ret	 0
??1exception@std@@UAE@XZ ENDP				; std::exception::~exception
_TEXT	ENDS
; Function compile flags: /Ogtp
; File C:\Program Files\Microsoft Visual Studio\2022\Professional\VC\Tools\MSVC\14.44.35207\include\vcruntime_exception.h
;	COMDAT ??0exception@std@@QAE@ABV01@@Z
_TEXT	SEGMENT
__Other$ = 8						; size = 4
??0exception@std@@QAE@ABV01@@Z PROC			; std::exception::exception, COMDAT
; _this$ = ecx

; 73   :     {

  00000	55		 push	 ebp
  00001	8b ec		 mov	 ebp, esp
  00003	56		 push	 esi
  00004	8b f1		 mov	 esi, ecx
  00006	0f 57 c0	 xorps	 xmm0, xmm0
  00009	8d 46 04	 lea	 eax, DWORD PTR [esi+4]

; 74   :         __std_exception_copy(&_Other._Data, &_Data);

  0000c	50		 push	 eax
  0000d	c7 06 00 00 00
	00		 mov	 DWORD PTR [esi], OFFSET ??_7exception@std@@6B@
  00013	66 0f d6 00	 movq	 QWORD PTR [eax], xmm0
  00017	8b 45 08	 mov	 eax, DWORD PTR __Other$[ebp]
  0001a	83 c0 04	 add	 eax, 4
  0001d	50		 push	 eax
  0001e	e8 00 00 00 00	 call	 ___std_exception_copy
  00023	83 c4 08	 add	 esp, 8

; 75   :     }

  00026	8b c6		 mov	 eax, esi
  00028	5e		 pop	 esi
  00029	5d		 pop	 ebp
  0002a	c2 04 00	 ret	 4
??0exception@std@@QAE@ABV01@@Z ENDP			; std::exception::exception
_TEXT	ENDS
; Function compile flags: /Ogtp
; File C:\IAGOS\server\v18\Source\Source\_aiinterface\aiinterface.cpp
;	COMDAT ?__empty_global_delete@@YAXPAXI@Z
_TEXT	SEGMENT
___formal$ = 8						; size = 4
___formal$ = 12						; size = 4
?__empty_global_delete@@YAXPAXI@Z PROC			; __empty_global_delete, COMDAT

  00000	c2 00 00	 ret	 0
?__empty_global_delete@@YAXPAXI@Z ENDP			; __empty_global_delete
_TEXT	ENDS
; Function compile flags: /Ogtp
; File C:\IAGOS\server\v18\Source\Source\_aiinterface\aiinterface.cpp
;	COMDAT ?__empty_global_delete@@YAXPAX@Z
_TEXT	SEGMENT
___formal$ = 8						; size = 4
?__empty_global_delete@@YAXPAX@Z PROC			; __empty_global_delete, COMDAT

  00000	c2 00 00	 ret	 0
?__empty_global_delete@@YAXPAX@Z ENDP			; __empty_global_delete
_TEXT	ENDS
END
