; Listing generated by Microsoft (R) Optimizing Compiler Version 19.44.35225.0 

	TITLE	C:\IAGOS\server\v18\Source\Output\WorldServer\Release\AIKrrr.obj
	.686P
	.XMM
	include listing.inc
	.model	flat

INCLUDELIB LIBCMT
INCLUDELIB OLDNAMES

PUBLIC	?stateMap@CAIKrrr@@2USTATEMAP@@B		; CAIKrrr::stateMap
EXTRN	?stateMap@CAIInterface@@2USTATEMAP@@B:QWORD	; CAIInterface::stateMap
CONST	SEGMENT
?stateMap@CAIKrrr@@2USTATEMAP@@B DD FLAT:?stateMap@CAIInterface@@2USTATEMAP@@B ; CAIKrrr::stateMap
	DD	FLAT:?stateMapEntries@CAIKrrr@@2QBUSTATEMAP_ENTRIES@@B
?piecewise_construct@std@@3Upiecewise_construct_t@1@B	ORG $+1 ; std::piecewise_construct
CONST	ENDS
PUBLIC	?__empty_global_delete@@YAXPAX@Z		; __empty_global_delete
PUBLIC	?__empty_global_delete@@YAXPAXI@Z		; __empty_global_delete
PUBLIC	___local_stdio_printf_options
PUBLIC	_sprintf
PUBLIC	??0D3DXVECTOR3@@QAE@XZ				; D3DXVECTOR3::D3DXVECTOR3
PUBLIC	?GetText@CProject@@QAEPBDK@Z			; CProject::GetText
PUBLIC	?IsReturnToBegin@CAIInterface@@UAEHXZ		; CAIInterface::IsReturnToBegin
PUBLIC	?MoveProcessIdle@CAIKrrr@@AAEHXZ		; CAIKrrr::MoveProcessIdle
PUBLIC	?MoveProcessRage@CAIKrrr@@AAEHXZ		; CAIKrrr::MoveProcessRage
PUBLIC	?SelectTarget@CAIKrrr@@AAEHXZ			; CAIKrrr::SelectTarget
PUBLIC	?Init@CAIKrrr@@AAEXXZ				; CAIKrrr::Init
PUBLIC	?Destroy@CAIKrrr@@AAEXXZ			; CAIKrrr::Destroy
PUBLIC	?StateInit@CAIKrrr@@AAEHABUAIMSG@@@Z		; CAIKrrr::StateInit
PUBLIC	?StateIdle@CAIKrrr@@AAEHABUAIMSG@@@Z		; CAIKrrr::StateIdle
PUBLIC	?StateRage@CAIKrrr@@AAEHABUAIMSG@@@Z		; CAIKrrr::StateRage
PUBLIC	??0CAIKrrr@@QAE@XZ				; CAIKrrr::CAIKrrr
PUBLIC	??0CAIKrrr@@QAE@PAVCObj@@@Z			; CAIKrrr::CAIKrrr
PUBLIC	??1CAIKrrr@@UAE@XZ				; CAIKrrr::~CAIKrrr
PUBLIC	?InitAI@CAIKrrr@@UAEXXZ				; CAIKrrr::InitAI
PUBLIC	?GetStateMap@CAIKrrr@@UBEPBUSTATEMAP@@XZ	; CAIKrrr::GetStateMap
PUBLIC	??_GCAIKrrr@@UAEPAXI@Z				; CAIKrrr::`scalar deleting destructor'
PUBLIC	?_OptionsStorage@?1??__local_stdio_printf_options@@9@4_KA ; `__local_stdio_printf_options'::`2'::_OptionsStorage
PUBLIC	??_C@_00CNPNBAHC@@				; `string'
PUBLIC	??_C@_0BM@HMFGHCP@?$CFs?5min?3?$CFd?0?5max?3?$CFd?0?5index?3?$CFd@ ; `string'
PUBLIC	??_C@_0BJ@GKPOBPPI@GetMoverProp?5range_error@	; `string'
PUBLIC	??_C@_0BE@OHDBLHOM@GetText?5range_error@	; `string'
PUBLIC	??_C@_05KKCIMGE@error@				; `string'
PUBLIC	?stateMapEntries@CAIKrrr@@2QBUSTATEMAP_ENTRIES@@B ; CAIKrrr::stateMapEntries
PUBLIC	??_7CAIKrrr@@6B@				; CAIKrrr::`vftable'
PUBLIC	??_C@_0DE@NACCOPGG@CAIKrrr?3?3StateRage?5?9?5AIMSG_ARRI@ ; `string'
PUBLIC	??_C@_0CL@HMDLKEOM@CAIKrrr?3?3StateRage?5?3?5AIMSG_ATTA@ ; `string'
PUBLIC	??_R4CAIKrrr@@6B@				; CAIKrrr::`RTTI Complete Object Locator'
PUBLIC	??_R0?AVCAIKrrr@@@8				; CAIKrrr `RTTI Type Descriptor'
PUBLIC	??_R3CAIKrrr@@8					; CAIKrrr::`RTTI Class Hierarchy Descriptor'
PUBLIC	??_R2CAIKrrr@@8					; CAIKrrr::`RTTI Base Class Array'
PUBLIC	??_R1A@?0A@EA@CAIKrrr@@8			; CAIKrrr::`RTTI Base Class Descriptor at (0,-1,0,64)'
PUBLIC	??_R1A@?0A@EA@CAIInterface@@8			; CAIInterface::`RTTI Base Class Descriptor at (0,-1,0,64)'
PUBLIC	??_R0?AVCAIInterface@@@8			; CAIInterface `RTTI Type Descriptor'
PUBLIC	??_R3CAIInterface@@8				; CAIInterface::`RTTI Class Hierarchy Descriptor'
PUBLIC	??_R2CAIInterface@@8				; CAIInterface::`RTTI Base Class Array'
PUBLIC	__real@40e00000
PUBLIC	__real@41200000
PUBLIC	__real@42000000
EXTRN	??3@YAXPAXI@Z:PROC				; operator delete
EXTRN	___stdio_common_vsprintf:PROC
EXTRN	__imp__timeGetTime@0:PROC
EXTRN	?xRandomF@@YAMM@Z:PROC				; xRandomF
EXTRN	?Error@@YAPBDPBDZZ:PROC				; Error
EXTRN	?GetRadiusXZ@CObj@@QAEMXZ:PROC			; CObj::GetRadiusXZ
EXTRN	?GetMover@CProject@@QAEPAVCMover@@K@Z:PROC	; CProject::GetMover
EXTRN	?ResetState@CAction@@QAEXK@Z:PROC		; CAction::ResetState
EXTRN	??0CAIInterface@@QAE@XZ:PROC			; CAIInterface::CAIInterface
EXTRN	??0CAIInterface@@QAE@PAVCObj@@@Z:PROC		; CAIInterface::CAIInterface
EXTRN	??1CAIInterface@@UAE@XZ:PROC			; CAIInterface::~CAIInterface
EXTRN	?RouteMessage@CAIInterface@@UAEXXZ:PROC		; CAIInterface::RouteMessage
EXTRN	?SendAIMsg@CAIInterface@@UAEXKKKK@Z:PROC	; CAIInterface::SendAIMsg
EXTRN	?PostAIMsg@CAIInterface@@UAEXKKKK@Z:PROC	; CAIInterface::PostAIMsg
EXTRN	?ScanTarget@CAIInterface@@IAEPAVCMover@@PAVCObj@@HHKKH@Z:PROC ; CAIInterface::ScanTarget
EXTRN	?ScanTargetStrong@CAIInterface@@IAEPAVCMover@@PAVCObj@@M@Z:PROC ; CAIInterface::ScanTargetStrong
EXTRN	?ScanTargetOverHealer@CAIInterface@@IAEPAVCMover@@PAVCObj@@M@Z:PROC ; CAIInterface::ScanTargetOverHealer
EXTRN	?GetName@CMover@@QAEPBDH@Z:PROC			; CMover::GetName
EXTRN	?GetJob@CMover@@QAEHXZ:PROC			; CMover::GetJob
EXTRN	?CMD_SetMeleeAttack@CMover@@QAEXKM@Z:PROC	; CMover::CMD_SetMeleeAttack
EXTRN	?DoAttackMelee@CMover@@QAEHPAV1@W4OBJMSG@@K@Z:PROC ; CMover::DoAttackMelee
EXTRN	?SendDamageAround@CWorld@@QAEXPBUD3DXVECTOR3@@HPAVCMover@@HHM@Z:PROC ; CWorld::SendDamageAround
EXTRN	??_ECAIKrrr@@UAEPAXI@Z:PROC			; CAIKrrr::`vector deleting destructor'
EXTRN	?AddWorldShout@CUserMng@@QAEXPBD0UD3DXVECTOR3@@PAVCWorld@@@Z:PROC ; CUserMng::AddWorldShout
EXTRN	?AddCreateSfxObj@CUserMng@@QAEXPAVCCtrl@@KMMMH@Z:PROC ; CUserMng::AddCreateSfxObj
EXTRN	?SendCaption@CDPCoreClient@@QAEXPBDKH@Z:PROC	; CDPCoreClient::SendCaption
EXTRN	@__security_check_cookie@4:PROC
EXTRN	_memset:PROC
EXTRN	??_7type_info@@6B@:QWORD			; type_info::`vftable'
EXTRN	?g_next@@3KA:DWORD				; g_next
EXTRN	?prj@@3VCProject@@A:BYTE			; prj
EXTRN	?g_UserMng@@3VCUserMng@@A:BYTE			; g_UserMng
EXTRN	?g_DPCoreClient@@3VCDPCoreClient@@A:BYTE	; g_DPCoreClient
EXTRN	___security_cookie:DWORD
EXTRN	__fltused:DWORD
;	COMDAT ?_OptionsStorage@?1??__local_stdio_printf_options@@9@4_KA
_BSS	SEGMENT
?_OptionsStorage@?1??__local_stdio_printf_options@@9@4_KA DQ 01H DUP (?) ; `__local_stdio_printf_options'::`2'::_OptionsStorage
_BSS	ENDS
;	COMDAT __real@42000000
CONST	SEGMENT
__real@42000000 DD 042000000r			; 32
CONST	ENDS
;	COMDAT __real@41200000
CONST	SEGMENT
__real@41200000 DD 041200000r			; 10
CONST	ENDS
;	COMDAT __real@40e00000
CONST	SEGMENT
__real@40e00000 DD 040e00000r			; 7
CONST	ENDS
;	COMDAT ??_R2CAIInterface@@8
rdata$r	SEGMENT
??_R2CAIInterface@@8 DD FLAT:??_R1A@?0A@EA@CAIInterface@@8 ; CAIInterface::`RTTI Base Class Array'
rdata$r	ENDS
;	COMDAT ??_R3CAIInterface@@8
rdata$r	SEGMENT
??_R3CAIInterface@@8 DD 00H				; CAIInterface::`RTTI Class Hierarchy Descriptor'
	DD	00H
	DD	01H
	DD	FLAT:??_R2CAIInterface@@8
rdata$r	ENDS
;	COMDAT ??_R0?AVCAIInterface@@@8
data$rs	SEGMENT
??_R0?AVCAIInterface@@@8 DD FLAT:??_7type_info@@6B@	; CAIInterface `RTTI Type Descriptor'
	DD	00H
	DB	'.?AVCAIInterface@@', 00H
data$rs	ENDS
;	COMDAT ??_R1A@?0A@EA@CAIInterface@@8
rdata$r	SEGMENT
??_R1A@?0A@EA@CAIInterface@@8 DD FLAT:??_R0?AVCAIInterface@@@8 ; CAIInterface::`RTTI Base Class Descriptor at (0,-1,0,64)'
	DD	00H
	DD	00H
	DD	0ffffffffH
	DD	00H
	DD	040H
	DD	FLAT:??_R3CAIInterface@@8
rdata$r	ENDS
;	COMDAT ??_R1A@?0A@EA@CAIKrrr@@8
rdata$r	SEGMENT
??_R1A@?0A@EA@CAIKrrr@@8 DD FLAT:??_R0?AVCAIKrrr@@@8	; CAIKrrr::`RTTI Base Class Descriptor at (0,-1,0,64)'
	DD	01H
	DD	00H
	DD	0ffffffffH
	DD	00H
	DD	040H
	DD	FLAT:??_R3CAIKrrr@@8
rdata$r	ENDS
;	COMDAT ??_R2CAIKrrr@@8
rdata$r	SEGMENT
??_R2CAIKrrr@@8 DD FLAT:??_R1A@?0A@EA@CAIKrrr@@8	; CAIKrrr::`RTTI Base Class Array'
	DD	FLAT:??_R1A@?0A@EA@CAIInterface@@8
rdata$r	ENDS
;	COMDAT ??_R3CAIKrrr@@8
rdata$r	SEGMENT
??_R3CAIKrrr@@8 DD 00H					; CAIKrrr::`RTTI Class Hierarchy Descriptor'
	DD	00H
	DD	02H
	DD	FLAT:??_R2CAIKrrr@@8
rdata$r	ENDS
;	COMDAT ??_R0?AVCAIKrrr@@@8
data$rs	SEGMENT
??_R0?AVCAIKrrr@@@8 DD FLAT:??_7type_info@@6B@		; CAIKrrr `RTTI Type Descriptor'
	DD	00H
	DB	'.?AVCAIKrrr@@', 00H
data$rs	ENDS
;	COMDAT ??_R4CAIKrrr@@6B@
rdata$r	SEGMENT
??_R4CAIKrrr@@6B@ DD 00H				; CAIKrrr::`RTTI Complete Object Locator'
	DD	00H
	DD	00H
	DD	FLAT:??_R0?AVCAIKrrr@@@8
	DD	FLAT:??_R3CAIKrrr@@8
rdata$r	ENDS
;	COMDAT ??_C@_0CL@HMDLKEOM@CAIKrrr?3?3StateRage?5?3?5AIMSG_ATTA@
CONST	SEGMENT
??_C@_0CL@HMDLKEOM@CAIKrrr?3?3StateRage?5?3?5AIMSG_ATTA@ DB 'CAIKrrr::Sta'
	DB	'teRage : AIMSG_ATTACK_MELEE %d', 00H	; `string'
CONST	ENDS
;	COMDAT ??_C@_0DE@NACCOPGG@CAIKrrr?3?3StateRage?5?9?5AIMSG_ARRI@
CONST	SEGMENT
??_C@_0DE@NACCOPGG@CAIKrrr?3?3StateRage?5?9?5AIMSG_ARRI@ DB 'CAIKrrr::Sta'
	DB	'teRage - AIMSG_ARRIVAL m_nAttackType=%d', 00H ; `string'
CONST	ENDS
;	COMDAT ??_7CAIKrrr@@6B@
CONST	SEGMENT
??_7CAIKrrr@@6B@ DD FLAT:??_R4CAIKrrr@@6B@		; CAIKrrr::`vftable'
	DD	FLAT:?GetStateMap@CAIKrrr@@UBEPBUSTATEMAP@@XZ
	DD	FLAT:??_ECAIKrrr@@UAEPAXI@Z
	DD	FLAT:?RouteMessage@CAIInterface@@UAEXXZ
	DD	FLAT:?SendAIMsg@CAIInterface@@UAEXKKKK@Z
	DD	FLAT:?PostAIMsg@CAIInterface@@UAEXKKKK@Z
	DD	FLAT:?InitAI@CAIKrrr@@UAEXXZ
	DD	FLAT:?IsReturnToBegin@CAIInterface@@UAEHXZ
CONST	ENDS
_DATA	SEGMENT
?stateMapEntries@CAIKrrr@@2QBUSTATEMAP_ENTRIES@@B DD 01H ; CAIKrrr::stateMapEntries
	ORG $+4
	DD	FLAT:?StateInit@CAIKrrr@@AAEHABUAIMSG@@@Z
	DD	00H
	DD	00H
	DD	00H
	DD	03H
	DB	4 DUP(00H)
	DD	FLAT:?StateIdle@CAIKrrr@@AAEHABUAIMSG@@@Z
	DD	00H
	DD	00H
	DD	00H
	DD	04H
	DB	4 DUP(00H)
	DD	FLAT:?StateRage@CAIKrrr@@AAEHABUAIMSG@@@Z
	DD	00H
	DD	00H
	DD	00H
	DD	05H
	DB	4 DUP(00H)
	DD	FLAT:?StateRage@CAIKrrr@@AAEHABUAIMSG@@@Z
	DD	00H
	DD	00H
	DD	00H
	DD	00H
	DB	4 DUP(00H)
	DD	00H
	DD	00H
	DD	00H
	DD	0ffffffffH
_DATA	ENDS
;	COMDAT ??_C@_05KKCIMGE@error@
CONST	SEGMENT
??_C@_05KKCIMGE@error@ DB 'error', 00H			; `string'
CONST	ENDS
;	COMDAT ??_C@_0BE@OHDBLHOM@GetText?5range_error@
CONST	SEGMENT
??_C@_0BE@OHDBLHOM@GetText?5range_error@ DB 'GetText range_error', 00H ; `string'
CONST	ENDS
;	COMDAT ??_C@_0BJ@GKPOBPPI@GetMoverProp?5range_error@
CONST	SEGMENT
??_C@_0BJ@GKPOBPPI@GetMoverProp?5range_error@ DB 'GetMoverProp range_erro'
	DB	'r', 00H					; `string'
CONST	ENDS
;	COMDAT ??_C@_0BM@HMFGHCP@?$CFs?5min?3?$CFd?0?5max?3?$CFd?0?5index?3?$CFd@
CONST	SEGMENT
??_C@_0BM@HMFGHCP@?$CFs?5min?3?$CFd?0?5max?3?$CFd?0?5index?3?$CFd@ DB '%s'
	DB	' min:%d, max:%d, index:%d', 00H		; `string'
CONST	ENDS
;	COMDAT ??_C@_00CNPNBAHC@@
CONST	SEGMENT
??_C@_00CNPNBAHC@@ DB 00H				; `string'
CONST	ENDS
; Function compile flags: /Ogtp
;	COMDAT ??_GCAIKrrr@@UAEPAXI@Z
_TEXT	SEGMENT
___flags$ = 8						; size = 4
??_GCAIKrrr@@UAEPAXI@Z PROC				; CAIKrrr::`scalar deleting destructor', COMDAT
; _this$ = ecx
  00000	55		 push	 ebp
  00001	8b ec		 mov	 ebp, esp
  00003	56		 push	 esi
  00004	8b f1		 mov	 esi, ecx
  00006	e8 00 00 00 00	 call	 ??1CAIKrrr@@UAE@XZ	; CAIKrrr::~CAIKrrr
  0000b	f6 45 08 01	 test	 BYTE PTR ___flags$[ebp], 1
  0000f	74 0e		 je	 SHORT $LN5@scalar
  00011	68 98 00 00 00	 push	 152			; 00000098H
  00016	56		 push	 esi
  00017	e8 00 00 00 00	 call	 ??3@YAXPAXI@Z		; operator delete
  0001c	83 c4 08	 add	 esp, 8
$LN5@scalar:
  0001f	8b c6		 mov	 eax, esi
  00021	5e		 pop	 esi
  00022	5d		 pop	 ebp
  00023	c2 04 00	 ret	 4
??_GCAIKrrr@@UAEPAXI@Z ENDP				; CAIKrrr::`scalar deleting destructor'
_TEXT	ENDS
; Function compile flags: /Ogtp
; File C:\IAGOS\server\v18\Source\Source\_AIInterface\AIKrrr.cpp
;	COMDAT ?GetStateMap@CAIKrrr@@UBEPBUSTATEMAP@@XZ
_TEXT	SEGMENT
?GetStateMap@CAIKrrr@@UBEPBUSTATEMAP@@XZ PROC		; CAIKrrr::GetStateMap, COMDAT
; _this$ = ecx

; 36   : BEGIN_AISTATE_MAP( CAIKrrr, CAIInterface )

  00000	b8 00 00 00 00	 mov	 eax, OFFSET ?stateMap@CAIKrrr@@2USTATEMAP@@B ; CAIKrrr::stateMap
  00005	c3		 ret	 0
?GetStateMap@CAIKrrr@@UBEPBUSTATEMAP@@XZ ENDP		; CAIKrrr::GetStateMap
_TEXT	ENDS
; Function compile flags: /Ogtp
; File C:\IAGOS\server\v18\Source\Source\_AIInterface\AIKrrr.cpp
; File C:\IAGOS\server\v18\Source\Source\_Common\Obj.h
; File C:\IAGOS\server\v18\Source\Source\_AIInterface\AIKrrr.cpp
;	COMDAT ?InitAI@CAIKrrr@@UAEXXZ
_TEXT	SEGMENT
?InitAI@CAIKrrr@@UAEXXZ PROC				; CAIKrrr::InitAI, COMDAT
; _this$ = ecx
; File C:\IAGOS\server\v18\Source\Source\_Common\Obj.h

; 215  : 	D3DXVECTOR3		GetPos()	{ return m_vPos; }

  00000	8b 41 30	 mov	 eax, DWORD PTR [ecx+48]
; File C:\IAGOS\server\v18\Source\Source\_AIInterface\AIKrrr.cpp

; 96   : 	PostAIMsg( AIMSG_SETSTATE, STATE_RAGE, NULL_ID );	// 최초 대기상태로 초기화.

  00003	6a 00		 push	 0
  00005	6a ff		 push	 -1
  00007	6a 04		 push	 4
  00009	f3 0f 7e 80 60
	01 00 00	 movq	 xmm0, QWORD PTR [eax+352]
  00011	66 0f d6 41 4c	 movq	 QWORD PTR [ecx+76], xmm0
  00016	8b 80 68 01 00
	00		 mov	 eax, DWORD PTR [eax+360]
  0001c	89 41 54	 mov	 DWORD PTR [ecx+84], eax
  0001f	8b 01		 mov	 eax, DWORD PTR [ecx]
  00021	6a 04		 push	 4
  00023	ff 50 10	 call	 DWORD PTR [eax+16]

; 97   : #ifdef __INTERNALSERVER
; 98   : 	DEBUGOUT2( "CAIKrrr start" );
; 99   : #endif
; 100  : }

  00026	c3		 ret	 0
?InitAI@CAIKrrr@@UAEXXZ ENDP				; CAIKrrr::InitAI
_TEXT	ENDS
; Function compile flags: /Ogtp
; File C:\IAGOS\server\v18\Source\Source\_AIInterface\AIKrrr.cpp
;	COMDAT ??1CAIKrrr@@UAE@XZ
_TEXT	SEGMENT
??1CAIKrrr@@UAE@XZ PROC					; CAIKrrr::~CAIKrrr, COMDAT
; _this$ = ecx

; 69   : {

  00000	c7 01 00 00 00
	00		 mov	 DWORD PTR [ecx], OFFSET ??_7CAIKrrr@@6B@

; 70   : 	Destroy();
; 71   : }

  00006	e9 00 00 00 00	 jmp	 ??1CAIInterface@@UAE@XZ	; CAIInterface::~CAIInterface
??1CAIKrrr@@UAE@XZ ENDP					; CAIKrrr::~CAIKrrr
_TEXT	ENDS
; Function compile flags: /Ogtp
; File C:\IAGOS\server\v18\Source\Source\_AIInterface\AIKrrr.cpp
;	COMDAT ??0CAIKrrr@@QAE@PAVCObj@@@Z
_TEXT	SEGMENT
_this$ = -4						; size = 4
_pObj$ = 8						; size = 4
??0CAIKrrr@@QAE@PAVCObj@@@Z PROC			; CAIKrrr::CAIKrrr, COMDAT
; _this$ = ecx

; 64   : {

  00000	55		 push	 ebp
  00001	8b ec		 mov	 ebp, esp
  00003	51		 push	 ecx
  00004	56		 push	 esi
  00005	ff 75 08	 push	 DWORD PTR _pObj$[ebp]
  00008	8b f1		 mov	 esi, ecx
  0000a	89 75 fc	 mov	 DWORD PTR _this$[ebp], esi
  0000d	e8 00 00 00 00	 call	 ??0CAIInterface@@QAE@PAVCObj@@@Z ; CAIInterface::CAIInterface

; 65   : 	Init();

  00012	8b ce		 mov	 ecx, esi
  00014	c7 06 00 00 00
	00		 mov	 DWORD PTR [esi], OFFSET ??_7CAIKrrr@@6B@
  0001a	e8 00 00 00 00	 call	 ?Init@CAIKrrr@@AAEXXZ	; CAIKrrr::Init

; 66   : }

  0001f	8b c6		 mov	 eax, esi
  00021	5e		 pop	 esi
  00022	8b e5		 mov	 esp, ebp
  00024	5d		 pop	 ebp
  00025	c2 04 00	 ret	 4
??0CAIKrrr@@QAE@PAVCObj@@@Z ENDP			; CAIKrrr::CAIKrrr
_TEXT	ENDS
; Function compile flags: /Ogtp
; File C:\IAGOS\server\v18\Source\Source\_AIInterface\AIKrrr.cpp
;	COMDAT ??0CAIKrrr@@QAE@XZ
_TEXT	SEGMENT
_this$ = -4						; size = 4
??0CAIKrrr@@QAE@XZ PROC					; CAIKrrr::CAIKrrr, COMDAT
; _this$ = ecx

; 60   : {

  00000	55		 push	 ebp
  00001	8b ec		 mov	 ebp, esp
  00003	51		 push	 ecx
  00004	56		 push	 esi
  00005	8b f1		 mov	 esi, ecx
  00007	89 75 fc	 mov	 DWORD PTR _this$[ebp], esi
  0000a	e8 00 00 00 00	 call	 ??0CAIInterface@@QAE@XZ	; CAIInterface::CAIInterface

; 61   : 	Init();

  0000f	8b ce		 mov	 ecx, esi
  00011	c7 06 00 00 00
	00		 mov	 DWORD PTR [esi], OFFSET ??_7CAIKrrr@@6B@
  00017	e8 00 00 00 00	 call	 ?Init@CAIKrrr@@AAEXXZ	; CAIKrrr::Init

; 62   : }

  0001c	8b c6		 mov	 eax, esi
  0001e	5e		 pop	 esi
  0001f	8b e5		 mov	 esp, ebp
  00021	5d		 pop	 ebp
  00022	c3		 ret	 0
??0CAIKrrr@@QAE@XZ ENDP					; CAIKrrr::CAIKrrr
_TEXT	ENDS
; Function compile flags: /Ogtp
; File C:\IAGOS\server\v18\Source\Source\_AIInterface\AIKrrr.cpp
; File C:\IAGOS\server\v18\Source\Source\_Common\Mover.h
; File C:\IAGOS\server\v18\Source\Source\_Common\Project.h
; File C:\IAGOS\server\v18\Source\Source\_AIInterface\AIKrrr.cpp
; File C:\IAGOS\server\v18\Source\Source\_Common\xUtil.h
; File C:\IAGOS\server\v18\Source\Source\_AIInterface\AIKrrr.cpp
; File C:\IAGOS\server\v18\Source\Source\_Common\Mover.h
; File C:\IAGOS\server\v18\Source\Source\_Common\Obj.h
; File C:\IAGOS\server\v18\Source\Source\_Common\Mover.h
; File C:\IAGOS\server\v18\Source\Source\_AIInterface\AIKrrr.cpp
; File C:\IAGOS\server\v18\Source\Source\_Common\Obj.h
; File C:\IAGOS\server\v18\Source\Source\_AIInterface\AIKrrr.cpp
; File C:\IAGOS\server\v18\Source\Source\_Common\Obj.h
; File C:\IAGOS\server\v18\Source\Source\_AIInterface\AIKrrr.cpp
; File C:\IAGOS\server\v18\Source\Source\_Common\Obj.h
; File C:\IAGOS\server\v18\Source\Source\_AIInterface\AIKrrr.cpp
; File C:\IAGOS\server\v18\Source\Source\_Common\Obj.h
; File C:\IAGOS\server\v18\Source\Source\_AIInterface\AIKrrr.cpp
; File C:\IAGOS\server\v18\Source\Source\_Common\xUtil.h
; File C:\IAGOS\server\v18\Source\Source\_AIInterface\AIKrrr.cpp
; File C:\IAGOS\server\v18\Source\Source\_Common\xUtil.h
; File C:\IAGOS\server\v18\Source\Source\_AIInterface\AIKrrr.cpp
;	COMDAT ?StateRage@CAIKrrr@@AAEHABUAIMSG@@@Z
_TEXT	SEGMENT
_dwItemID$1$ = -136					; size = 4
_szChar$1 = -132					; size = 128
__$ArrayPad$ = -4					; size = 4
_msg$ = 8						; size = 4
?StateRage@CAIKrrr@@AAEHABUAIMSG@@@Z PROC		; CAIKrrr::StateRage, COMDAT
; _this$ = ecx

; 532  : {

  00000	55		 push	 ebp
  00001	8b ec		 mov	 ebp, esp
  00003	81 ec 88 00 00
	00		 sub	 esp, 136		; 00000088H
  00009	a1 00 00 00 00	 mov	 eax, DWORD PTR ___security_cookie
  0000e	33 c5		 xor	 eax, ebp
  00010	89 45 fc	 mov	 DWORD PTR __$ArrayPad$[ebp], eax
  00013	53		 push	 ebx
  00014	56		 push	 esi
  00015	8b f1		 mov	 esi, ecx

; 533  : 	CMover* pMover = GetMover();
; 534  : 	CWorld* pWorld = GetWorld();
; 535  : 	
; 536  : 	BeginAIHandler( )
; 537  : 		
; 538  : 	///////////////////////////////////////////////////////////////////////////////////////////////////
; 539  : 	OnMessage( AIMSG_INIT ) 

  00017	8b 4d 08	 mov	 ecx, DWORD PTR _msg$[ebp]
  0001a	57		 push	 edi
  0001b	8b 01		 mov	 eax, DWORD PTR [ecx]
  0001d	8b 5e 30	 mov	 ebx, DWORD PTR [esi+48]
  00020	83 f8 01	 cmp	 eax, 1
  00023	0f 84 8a 02 00
	00		 je	 $LN46@StateRage

; 540  : 
; 541  : 	///////////////////////////////////////////////////////////////////////////////////////////////////
; 542  : 	OnMessage( AIMSG_PROCESS ) 

  00029	83 f8 02	 cmp	 eax, 2
  0002c	75 0c		 jne	 SHORT $LN12@StateRage

; 543  : 		MoveProcessRage();

  0002e	8b ce		 mov	 ecx, esi
  00030	e8 00 00 00 00	 call	 ?MoveProcessRage@CAIKrrr@@AAEHXZ ; CAIKrrr::MoveProcessRage

; 544  : 		
; 545  : 	///////////////////////////////////////////////////////////////////////////////////////////////////
; 546  : 	OnMessage( AIMSG_DAMAGE ) 

  00035	e9 79 02 00 00	 jmp	 $LN46@StateRage
$LN12@StateRage:
  0003a	83 f8 08	 cmp	 eax, 8
  0003d	75 0e		 jne	 SHORT $LN14@StateRage

; 547  : 		// 나에게 데미지 많이 준놈들을 기억하고 있자. 나중에 응징하자.
; 548  : 		m_idLastAttacker = msg.dwParam1;

  0003f	8b 41 04	 mov	 eax, DWORD PTR [ecx+4]
  00042	89 86 8c 00 00
	00		 mov	 DWORD PTR [esi+140], eax

; 549  : 	
; 550  : 	///////////////////////////////////////////////////////////////////////////////////////////////////
; 551  : 	OnMessage( AIMSG_DIE ) 

  00048	e9 66 02 00 00	 jmp	 $LN46@StateRage
$LN14@StateRage:
  0004d	83 f8 09	 cmp	 eax, 9
  00050	75 14		 jne	 SHORT $LN16@StateRage

; 552  : 		SendAIMsg( AIMSG_EXIT );

  00052	8b 06		 mov	 eax, DWORD PTR [esi]
  00054	8b ce		 mov	 ecx, esi
  00056	6a 00		 push	 0
  00058	6a 00		 push	 0
  0005a	6a 00		 push	 0
  0005c	6a 12		 push	 18			; 00000012H
  0005e	ff 50 0c	 call	 DWORD PTR [eax+12]

; 553  : 	
; 554  : 	///////////////////////////////////////////////////////////////////////////////////////////////////
; 555  : 	OnMessage( AIMSG_COLLISION )

  00061	e9 4d 02 00 00	 jmp	 $LN46@StateRage
$LN16@StateRage:
  00066	83 f8 0a	 cmp	 eax, 10			; 0000000aH
  00069	0f 84 44 02 00
	00		 je	 $LN46@StateRage

; 556  : 		
; 557  : 	///////////////////////////////////////////////////////////////////////////////////////////////////
; 558  : 	OnMessage( AIMSG_ARRIVAL )

  0006f	83 f8 0b	 cmp	 eax, 11			; 0000000bH
  00072	0f 85 c2 01 00
	00		 jne	 $LN20@StateRage
; File C:\IAGOS\server\v18\Source\Source\_Common\Mover.h

; 1020 : 	MoverProp*		GetProp() { return prj.GetMoverProp( m_dwIndex ); }	// 객체의 프로퍼티 얻기 	

  00078	8b 83 74 01 00
	00		 mov	 eax, DWORD PTR [ebx+372]
; File C:\IAGOS\server\v18\Source\Source\_Common\Project.h

; 1406 : 	VERIFY_RANGE( nIndex, 0, m_nMoverPropSize, "GetMoverProp range_error", NULL );

  0007e	8b 0d b4 01 00
	00		 mov	 ecx, DWORD PTR ?prj@@3VCProject@@A+436
  00084	85 c0		 test	 eax, eax
  00086	78 12		 js	 SHORT $LN57@StateRage
  00088	3b c1		 cmp	 eax, ecx
  0008a	7d 0e		 jge	 SHORT $LN57@StateRage

; 1407 : 	return m_pPropMover + nIndex;

  0008c	69 c8 90 06 00
	00		 imul	 ecx, eax, 1680
  00092	03 0d b8 01 00
	00		 add	 ecx, DWORD PTR ?prj@@3VCProject@@A+440
  00098	eb 18		 jmp	 SHORT $LN52@StateRage
$LN57@StateRage:

; 579  : 	LPCTSTR szErr = Error( _T( "%s min:%d, max:%d, index:%d" ), szMsg, nMin, nMax, nIndex ); 

  0009a	50		 push	 eax
  0009b	51		 push	 ecx
  0009c	6a 00		 push	 0
  0009e	68 00 00 00 00	 push	 OFFSET ??_C@_0BJ@GKPOBPPI@GetMoverProp?5range_error@
  000a3	68 00 00 00 00	 push	 OFFSET ??_C@_0BM@HMFGHCP@?$CFs?5min?3?$CFd?0?5max?3?$CFd?0?5index?3?$CFd@
  000a8	e8 00 00 00 00	 call	 ?Error@@YAPBDPBDZZ	; Error
  000ad	83 c4 14	 add	 esp, 20			; 00000014H

; 1406 : 	VERIFY_RANGE( nIndex, 0, m_nMoverPropSize, "GetMoverProp range_error", NULL );

  000b0	33 c9		 xor	 ecx, ecx
$LN52@StateRage:
; File C:\IAGOS\server\v18\Source\Source\_AIInterface\AIKrrr.cpp

; 564  : 		switch( m_nAttackType )

  000b2	8b 56 5c	 mov	 edx, DWORD PTR [esi+92]
  000b5	8b c2		 mov	 eax, edx
  000b7	83 e8 01	 sub	 eax, 1
  000ba	74 3e		 je	 SHORT $LN22@StateRage
  000bc	83 e8 01	 sub	 eax, 1
  000bf	74 2c		 je	 SHORT $LN25@StateRage
  000c1	83 e8 01	 sub	 eax, 1
  000c4	74 1a		 je	 SHORT $LN26@StateRage

; 578  : 		default:
; 579  : 			Error( "CAIKrrr::StateRage - AIMSG_ARRIVAL m_nAttackType=%d", m_nAttackType );

  000c6	52		 push	 edx
  000c7	68 00 00 00 00	 push	 OFFSET ??_C@_0DE@NACCOPGG@CAIKrrr?3?3StateRage?5?9?5AIMSG_ARRI@
  000cc	e8 00 00 00 00	 call	 ?Error@@YAPBDPBDZZ	; Error
  000d1	83 c4 08	 add	 esp, 8
$LN72@StateRage:

; 663  : //		SendAIMsg( AIMSG_SETPROCESS, FALSE );
; 664  : 	
; 665  : 	EndAIHandler( )
; 666  : 	return TRUE;
; 667  : }

  000d4	c7 46 58 01 00
	00 00		 mov	 DWORD PTR [esi+88], 1
  000db	e9 d3 01 00 00	 jmp	 $LN46@StateRage
$LN26@StateRage:

; 577  : 		case CAT_SUMMONS:		 dwMsg = OBJMSG_ATK4;	dwItemID = pProp->dwAtk3;	break;

  000e0	8b 81 b8 00 00
	00		 mov	 eax, DWORD PTR [ecx+184]
  000e6	bf 20 00 00 00	 mov	 edi, 32			; 00000020H
  000eb	eb 31		 jmp	 SHORT $LN112@StateRage
$LN25@StateRage:

; 574  : 			}
; 575  : 			break;
; 576  : 		case CAT_DOUBLE_CRASH:	 dwMsg = OBJMSG_ATK3;	dwItemID = pProp->dwAtk2;	break;

  000ed	8b 81 b4 00 00
	00		 mov	 eax, DWORD PTR [ecx+180]
  000f3	bf 1f 00 00 00	 mov	 edi, 31			; 0000001fH
  000f8	eb 24		 jmp	 SHORT $LN112@StateRage
$LN22@StateRage:
; File C:\IAGOS\server\v18\Source\Source\_Common\xUtil.h

; 16   : 	g_next = g_next * 1103515245 + 12345;// + nRandomSeed[ i++ ];

  000fa	69 3d 00 00 00
	00 6d 4e c6 41	 imul	 edi, DWORD PTR ?g_next@@3KA, 1103515245 ; g_next
  00104	81 c7 39 30 00
	00		 add	 edi, 12345		; 00003039H
  0010a	89 3d 00 00 00
	00		 mov	 DWORD PTR ?g_next@@3KA, edi ; g_next
; File C:\IAGOS\server\v18\Source\Source\_AIInterface\AIKrrr.cpp

; 573  : 				dwItemID = pProp->dwAtk1;

  00110	f7 d7		 not	 edi
  00112	8b 81 b0 00 00
	00		 mov	 eax, DWORD PTR [ecx+176]
  00118	83 e7 01	 and	 edi, 1
  0011b	83 c7 1d	 add	 edi, 29			; 0000001dH
$LN112@StateRage:

; 580  : 		}
; 581  : 
; 582  : 		if( dwMsg )
; 583  : 		{
; 584  : 			if( m_idTarget != NULL_ID )

  0011e	89 85 78 ff ff
	ff		 mov	 DWORD PTR _dwItemID$1$[ebp], eax
  00124	8b 46 70	 mov	 eax, DWORD PTR [esi+112]
  00127	83 f8 ff	 cmp	 eax, -1
  0012a	0f 84 83 01 00
	00		 je	 $LN46@StateRage
; File C:\IAGOS\server\v18\Source\Source\_Common\Mover.h

; 1764 : 	CMover *pTarget = (CMover *)prj.GetMover( idTarget );

  00130	50		 push	 eax
  00131	b9 00 00 00 00	 mov	 ecx, OFFSET ?prj@@3VCProject@@A ; prj
  00136	e8 00 00 00 00	 call	 ?GetMover@CProject@@QAEPAVCMover@@K@Z ; CProject::GetMover
; File C:\IAGOS\server\v18\Source\Source\_Common\Obj.h

; 327  : 	return pObj && ( pObj->IsDelete() == FALSE ); 

  0013b	85 c0		 test	 eax, eax
  0013d	74 95		 je	 SHORT $LN72@StateRage

; 180  : 	BOOL			IsDelete()	{ return (m_dwFlags & OBJ_FLAG_DELETE);  }

  0013f	f6 40 04 01	 test	 BYTE PTR [eax+4], 1

; 327  : 	return pObj && ( pObj->IsDelete() == FALSE ); 

  00143	75 8f		 jne	 SHORT $LN72@StateRage
; File C:\IAGOS\server\v18\Source\Source\_Common\Mover.h

; 1768 : 	return DoAttackMelee( pTarget, dwMsg, dwItemID );

  00145	ff b5 78 ff ff
	ff		 push	 DWORD PTR _dwItemID$1$[ebp]
  0014b	8b cb		 mov	 ecx, ebx
  0014d	57		 push	 edi
  0014e	50		 push	 eax
  0014f	e8 00 00 00 00	 call	 ?DoAttackMelee@CMover@@QAEHPAV1@W4OBJMSG@@K@Z ; CMover::DoAttackMelee
; File C:\IAGOS\server\v18\Source\Source\_AIInterface\AIKrrr.cpp

; 586  : 				if( pMover->DoAttackMelee( m_idTarget, dwMsg, dwItemID ) == 1 )

  00154	83 f8 01	 cmp	 eax, 1
  00157	0f 85 77 ff ff
	ff		 jne	 $LN72@StateRage

; 587  : 				{
; 588  : 					m_nEvent = EPT_ATTACKING;		// 공격상태 전환.

  0015d	c7 46 58 02 00
	00 00		 mov	 DWORD PTR [esi+88], 2

; 589  : 					m_tmTimeOver = timeGetTime();	// 공격시작후 타임오버 계산용

  00164	ff 15 00 00 00
	00		 call	 DWORD PTR __imp__timeGetTime@0

; 590  : 
; 591  : 					CMover *pTarget = NULL;
; 592  : 					pTarget = prj.GetMover( m_idTarget );

  0016a	ff 76 70	 push	 DWORD PTR [esi+112]
  0016d	b9 00 00 00 00	 mov	 ecx, OFFSET ?prj@@3VCProject@@A ; prj
  00172	89 46 6c	 mov	 DWORD PTR [esi+108], eax
  00175	e8 00 00 00 00	 call	 ?GetMover@CProject@@QAEPAVCMover@@K@Z ; CProject::GetMover

; 593  : 					
; 594  : 					// 이벤트 메세지
; 595  : 					// 보스몬스터가 유저에게 말을 한다.
; 596  : 					switch( m_nAttackType )

  0017a	8b 4e 5c	 mov	 ecx, DWORD PTR [esi+92]
  0017d	8b f8		 mov	 edi, eax
  0017f	83 e9 02	 sub	 ecx, 2
  00182	74 3a		 je	 SHORT $LN34@StateRage
  00184	83 e9 01	 sub	 ecx, 1
  00187	0f 85 26 01 00
	00		 jne	 $LN46@StateRage

; 614  : 							g_UserMng.AddWorldShout( pMover->GetName(), prj.GetText(TID_GAME_BOSS_KRR_MSG_03),

  0018d	ff b3 6c 01 00
	00		 push	 DWORD PTR [ebx+364]
; File C:\IAGOS\server\v18\Source\Source\_Common\Obj.h

; 215  : 	D3DXVECTOR3		GetPos()	{ return m_vPos; }

  00193	f3 0f 7e 83 60
	01 00 00	 movq	 xmm0, QWORD PTR [ebx+352]
; File C:\IAGOS\server\v18\Source\Source\_AIInterface\AIKrrr.cpp

; 614  : 							g_UserMng.AddWorldShout( pMover->GetName(), prj.GetText(TID_GAME_BOSS_KRR_MSG_03),

  0019b	b9 00 00 00 00	 mov	 ecx, OFFSET ?prj@@3VCProject@@A ; prj
; File C:\IAGOS\server\v18\Source\Source\_Common\Obj.h

; 215  : 	D3DXVECTOR3		GetPos()	{ return m_vPos; }

  001a0	8b 93 68 01 00
	00		 mov	 edx, DWORD PTR [ebx+360]
; File C:\IAGOS\server\v18\Source\Source\_AIInterface\AIKrrr.cpp

; 614  : 							g_UserMng.AddWorldShout( pMover->GetName(), prj.GetText(TID_GAME_BOSS_KRR_MSG_03),

  001a6	83 ec 0c	 sub	 esp, 12			; 0000000cH
  001a9	8b c4		 mov	 eax, esp
  001ab	68 db 0b 00 00	 push	 3035			; 00000bdbH
  001b0	66 0f d6 00	 movq	 QWORD PTR [eax], xmm0
  001b4	89 50 08	 mov	 DWORD PTR [eax+8], edx
  001b7	e8 00 00 00 00	 call	 ?GetText@CProject@@QAEPBDK@Z ; CProject::GetText
  001bc	eb 65		 jmp	 SHORT $LN113@StateRage
$LN34@StateRage:

; 597  : 					{
; 598  : 					case CAT_NORMAL:	
; 599  : 						{
; 600  : 						}
; 601  : 						break;
; 602  : 					case CAT_DOUBLE_CRASH:
; 603  : 						{
; 604  : 							// 이벤트 메세지
; 605  : 							// 보스몬스터가 유저에게 말을 한다.
; 606  : 							TCHAR szChar[128] = { 0 };

  001be	68 80 00 00 00	 push	 128			; 00000080H
  001c3	8d 85 7c ff ff
	ff		 lea	 eax, DWORD PTR _szChar$1[ebp]
  001c9	6a 00		 push	 0
  001cb	50		 push	 eax
  001cc	e8 00 00 00 00	 call	 _memset
  001d1	83 c4 0c	 add	 esp, 12			; 0000000cH

; 607  : 							sprintf( szChar, prj.GetText(TID_GAME_BOSS_KRR_MSG_02), pTarget->GetName() );

  001d4	8b cf		 mov	 ecx, edi
  001d6	6a 00		 push	 0
  001d8	e8 00 00 00 00	 call	 ?GetName@CMover@@QAEPBDH@Z ; CMover::GetName
  001dd	50		 push	 eax
  001de	68 da 0b 00 00	 push	 3034			; 00000bdaH
  001e3	b9 00 00 00 00	 mov	 ecx, OFFSET ?prj@@3VCProject@@A ; prj
  001e8	e8 00 00 00 00	 call	 ?GetText@CProject@@QAEPBDK@Z ; CProject::GetText
  001ed	50		 push	 eax
  001ee	8d 85 7c ff ff
	ff		 lea	 eax, DWORD PTR _szChar$1[ebp]
  001f4	50		 push	 eax
  001f5	e8 00 00 00 00	 call	 _sprintf
; File C:\IAGOS\server\v18\Source\Source\_Common\Obj.h

; 215  : 	D3DXVECTOR3		GetPos()	{ return m_vPos; }

  001fa	f3 0f 7e 83 60
	01 00 00	 movq	 xmm0, QWORD PTR [ebx+352]
; File C:\IAGOS\server\v18\Source\Source\_AIInterface\AIKrrr.cpp

; 607  : 							sprintf( szChar, prj.GetText(TID_GAME_BOSS_KRR_MSG_02), pTarget->GetName() );

  00202	83 c4 0c	 add	 esp, 12			; 0000000cH
; File C:\IAGOS\server\v18\Source\Source\_Common\Obj.h

; 215  : 	D3DXVECTOR3		GetPos()	{ return m_vPos; }

  00205	8b 8b 68 01 00
	00		 mov	 ecx, DWORD PTR [ebx+360]
; File C:\IAGOS\server\v18\Source\Source\_AIInterface\AIKrrr.cpp

; 608  : 							g_UserMng.AddWorldShout( pMover->GetName(), szChar,

  0020b	ff b3 6c 01 00
	00		 push	 DWORD PTR [ebx+364]
  00211	83 ec 0c	 sub	 esp, 12			; 0000000cH
  00214	8b c4		 mov	 eax, esp
  00216	66 0f d6 00	 movq	 QWORD PTR [eax], xmm0
  0021a	89 48 08	 mov	 DWORD PTR [eax+8], ecx
  0021d	8d 85 7c ff ff
	ff		 lea	 eax, DWORD PTR _szChar$1[ebp]
$LN113@StateRage:

; 663  : //		SendAIMsg( AIMSG_SETPROCESS, FALSE );
; 664  : 	
; 665  : 	EndAIHandler( )
; 666  : 	return TRUE;
; 667  : }

  00223	50		 push	 eax
  00224	6a 00		 push	 0
  00226	8b cb		 mov	 ecx, ebx
  00228	e8 00 00 00 00	 call	 ?GetName@CMover@@QAEPBDH@Z ; CMover::GetName
  0022d	50		 push	 eax
  0022e	b9 00 00 00 00	 mov	 ecx, OFFSET ?g_UserMng@@3VCUserMng@@A ; g_UserMng
  00233	e8 00 00 00 00	 call	 ?AddWorldShout@CUserMng@@QAEXPBD0UD3DXVECTOR3@@PAVCWorld@@@Z ; CUserMng::AddWorldShout
  00238	eb 79		 jmp	 SHORT $LN46@StateRage
$LN20@StateRage:

; 615  : 								pMover->GetPos(), pMover->GetWorld() );
; 616  : 						}
; 617  : 						break;
; 618  : 					}
; 619  : 					
; 620  : 				} else
; 621  : 					m_nEvent = EPT_MOVING;			// 공격이 실패해서 다시 대기상태로 돌아감.
; 622  : 			}
; 623  : 		} else
; 624  : 			m_nEvent = EPT_MOVING;		// 비정상적인 상태. 원래대로 돌림.
; 625  : 	}
; 626  : 
; 627  : 	
; 628  : 
; 629  : 	///////////////////////////////////////////////////////////////////////////////////////////////////
; 630  : 	OnMessage( AIMSG_ATTACK_MELEE )

  0023a	83 f8 0e	 cmp	 eax, 14			; 0000000eH
  0023d	75 24		 jne	 SHORT $LN36@StateRage

; 631  : 		switch( m_nAttackType )			// 선택된 공격 패턴.

  0023f	8b 4e 5c	 mov	 ecx, DWORD PTR [esi+92]
  00242	8b c1		 mov	 eax, ecx
  00244	83 e8 01	 sub	 eax, 1
  00247	74 6a		 je	 SHORT $LN46@StateRage
  00249	83 e8 01	 sub	 eax, 1
  0024c	74 65		 je	 SHORT $LN46@StateRage
  0024e	83 e8 01	 sub	 eax, 1
  00251	74 60		 je	 SHORT $LN46@StateRage

; 632  : 		{
; 633  : 		case CAT_NORMAL:
; 634  : 			// 폭발 이펙트 생성지점 계산.
; 635  : 			// 폭발 이펙트 생성;
; 636  : 			// 범위 공격;
; 637  : 			break;
; 638  : 		case CAT_DOUBLE_CRASH:
; 639  : 			// 미사일 오브젝트 생성;
; 640  : 			break;
; 641  : 		case CAT_SUMMONS:		// 밟는 공격 타점.
; 642  : 			// 범위 데미지;
; 643  : 			break;
; 644  : 		default:
; 645  : 			Error( "CAIKrrr::StateRage : AIMSG_ATTACK_MELEE %d", m_nAttackType );

  00253	51		 push	 ecx
  00254	68 00 00 00 00	 push	 OFFSET ??_C@_0CL@HMDLKEOM@CAIKrrr?3?3StateRage?5?3?5AIMSG_ATTA@
  00259	e8 00 00 00 00	 call	 ?Error@@YAPBDPBDZZ	; Error
  0025e	83 c4 08	 add	 esp, 8

; 659  : 				
; 660  : 		
; 661  : 	///////////////////////////////////////////////////////////////////////////////////////////////////
; 662  : 	OnMessage( AIMSG_EXIT )	

  00261	eb 50		 jmp	 SHORT $LN46@StateRage
$LN36@StateRage:

; 646  : 			break;
; 647  : 		}
; 648  : 	
; 649  : 	///////////////////////////////////////////////////////////////////////////////////////////////////
; 650  : 	OnMessage( AIMSG_END_APPEAR )	

  00263	83 f8 10	 cmp	 eax, 16			; 00000010H
  00266	0f 84 68 fe ff
	ff		 je	 $LN72@StateRage

; 651  : 		m_nEvent = EPT_MOVING;		// 등장상태가 끝나면 감시/이동상태로 전환.
; 652  : 
; 653  : 	///////////////////////////////////////////////////////////////////////////////////////////////////
; 654  : 	OnMessage( AIMSG_END_MELEEATTACK )	

  0026c	83 f8 0f	 cmp	 eax, 15			; 0000000fH
  0026f	75 42		 jne	 SHORT $LN46@StateRage

; 655  : 		m_nEvent = EPT_MOVING;				// 이동상태로 전환.

  00271	c7 46 58 01 00
	00 00		 mov	 DWORD PTR [esi+88], 1

; 656  : 		m_tmReattack = timeGetTime();		// 리어택 타임 리셋;

  00278	ff 15 00 00 00
	00		 call	 DWORD PTR __imp__timeGetTime@0
  0027e	89 46 60	 mov	 DWORD PTR [esi+96], eax
; File C:\IAGOS\server\v18\Source\Source\_Common\xUtil.h

; 16   : 	g_next = g_next * 1103515245 + 12345;// + nRandomSeed[ i++ ];

  00281	b8 d3 4d 62 10	 mov	 eax, 274877907		; 10624dd3H
  00286	69 0d 00 00 00
	00 6d 4e c6 41	 imul	 ecx, DWORD PTR ?g_next@@3KA, 1103515245 ; g_next
  00290	81 c1 39 30 00
	00		 add	 ecx, 12345		; 00003039H
  00296	f7 e1		 mul	 ecx
  00298	89 0d 00 00 00
	00		 mov	 DWORD PTR ?g_next@@3KA, ecx ; g_next
  0029e	c1 ea 07	 shr	 edx, 7

; 22   : 	return  xRand() % num;

  002a1	69 c2 d0 07 00
	00		 imul	 eax, edx, 2000
; File C:\IAGOS\server\v18\Source\Source\_AIInterface\AIKrrr.cpp

; 658  : 		m_idTarget = NULL_ID;				// 타겟을 클리어.

  002a7	c7 46 70 ff ff
	ff ff		 mov	 DWORD PTR [esi+112], -1
; File C:\IAGOS\server\v18\Source\Source\_Common\xUtil.h

; 22   : 	return  xRand() % num;

  002ae	2b c8		 sub	 ecx, eax
; File C:\IAGOS\server\v18\Source\Source\_AIInterface\AIKrrr.cpp

; 657  : 		m_tmAddReattack = xRandom( 2000 );	// x초 범위내에서 리어택이 단축될 수 있다.

  002b0	89 4e 64	 mov	 DWORD PTR [esi+100], ecx
$LN46@StateRage:

; 663  : //		SendAIMsg( AIMSG_SETPROCESS, FALSE );
; 664  : 	
; 665  : 	EndAIHandler( )
; 666  : 	return TRUE;
; 667  : }

  002b3	8b 4d fc	 mov	 ecx, DWORD PTR __$ArrayPad$[ebp]
  002b6	b8 01 00 00 00	 mov	 eax, 1
  002bb	5f		 pop	 edi
  002bc	5e		 pop	 esi
  002bd	33 cd		 xor	 ecx, ebp
  002bf	5b		 pop	 ebx
  002c0	e8 00 00 00 00	 call	 @__security_check_cookie@4
  002c5	8b e5		 mov	 esp, ebp
  002c7	5d		 pop	 ebp
  002c8	c2 04 00	 ret	 4
?StateRage@CAIKrrr@@AAEHABUAIMSG@@@Z ENDP		; CAIKrrr::StateRage
_TEXT	ENDS
; Function compile flags: /Ogtp
; File C:\IAGOS\server\v18\Source\Source\_AIInterface\AIKrrr.cpp
;	COMDAT ?StateIdle@CAIKrrr@@AAEHABUAIMSG@@@Z
_TEXT	SEGMENT
_msg$ = 8						; size = 4
?StateIdle@CAIKrrr@@AAEHABUAIMSG@@@Z PROC		; CAIKrrr::StateIdle, COMDAT
; _this$ = ecx

; 125  : {

  00000	55		 push	 ebp
  00001	8b ec		 mov	 ebp, esp

; 126  : 	CMover* pMover = GetMover();
; 127  : 	CWorld* pWorld = GetWorld();
; 128  : 	
; 129  : 	BeginAIHandler( )
; 130  : 		
; 131  : 	///////////////////////////////////////////////////////////////////////////////////////////////////
; 132  : 	OnMessage( AIMSG_INIT ) 

  00003	8b 45 08	 mov	 eax, DWORD PTR _msg$[ebp]
  00006	8b 00		 mov	 eax, DWORD PTR [eax]
  00008	83 f8 01	 cmp	 eax, 1
  0000b	75 16		 jne	 SHORT $LN4@StateIdle
$LN24@StateIdle:

; 145  : 		SendAIMsg( AIMSG_EXIT );
; 146  : 	
; 147  : 	///////////////////////////////////////////////////////////////////////////////////////////////////
; 148  : 	OnMessage( AIMSG_COLLISION )
; 149  : 	
; 150  : 	///////////////////////////////////////////////////////////////////////////////////////////////////
; 151  : 	OnMessage( AIMSG_ARRIVAL )
; 152  : 		
; 153  : 		///////////////////////////////////////////////////////////////////////////////////////////////////
; 154  : 	OnMessage( AIMSG_EXIT )	
; 155  : //		SendAIMsg( AIMSG_SETPROCESS, FALSE );
; 156  : 		
; 157  : 	EndAIHandler( )
; 158  : 			return TRUE;
; 159  : }

  0000d	8b 01		 mov	 eax, DWORD PTR [ecx]
  0000f	6a 00		 push	 0
  00011	6a ff		 push	 -1
  00013	6a 04		 push	 4
  00015	6a 04		 push	 4
  00017	ff 50 0c	 call	 DWORD PTR [eax+12]
  0001a	b8 01 00 00 00	 mov	 eax, 1
  0001f	5d		 pop	 ebp
  00020	c2 04 00	 ret	 4
$LN4@StateIdle:

; 133  : ////		SendAIMsg( AIMSG_SETPROCESS, TRUE );
; 134  : 		SendAIMsg( AIMSG_SETSTATE, STATE_RAGE, NULL_ID );	// 보스는 IDLE패턴이 없다. 바로 공격에 들어간다.
; 135  : 	///////////////////////////////////////////////////////////////////////////////////////////////////
; 136  : 	OnMessage( AIMSG_PROCESS ) 

  00023	83 f8 02	 cmp	 eax, 2
  00026	74 17		 je	 SHORT $LN16@StateIdle

; 137  : 		MoveProcessIdle();
; 138  : 	
; 139  : 	///////////////////////////////////////////////////////////////////////////////////////////////////
; 140  : 	OnMessage( AIMSG_DAMAGE ) 

  00028	83 f8 08	 cmp	 eax, 8
  0002b	74 e0		 je	 SHORT $LN24@StateIdle

; 141  : 		SendAIMsg( AIMSG_SETSTATE, STATE_RAGE, NULL_ID );
; 142  : 	
; 143  : 	///////////////////////////////////////////////////////////////////////////////////////////////////
; 144  : 	OnMessage( AIMSG_DIE ) 

  0002d	83 f8 09	 cmp	 eax, 9
  00030	75 0d		 jne	 SHORT $LN16@StateIdle

; 145  : 		SendAIMsg( AIMSG_EXIT );
; 146  : 	
; 147  : 	///////////////////////////////////////////////////////////////////////////////////////////////////
; 148  : 	OnMessage( AIMSG_COLLISION )
; 149  : 	
; 150  : 	///////////////////////////////////////////////////////////////////////////////////////////////////
; 151  : 	OnMessage( AIMSG_ARRIVAL )
; 152  : 		
; 153  : 		///////////////////////////////////////////////////////////////////////////////////////////////////
; 154  : 	OnMessage( AIMSG_EXIT )	
; 155  : //		SendAIMsg( AIMSG_SETPROCESS, FALSE );
; 156  : 		
; 157  : 	EndAIHandler( )
; 158  : 			return TRUE;
; 159  : }

  00032	8b 01		 mov	 eax, DWORD PTR [ecx]
  00034	6a 00		 push	 0
  00036	6a 00		 push	 0
  00038	6a 00		 push	 0
  0003a	6a 12		 push	 18			; 00000012H
  0003c	ff 50 0c	 call	 DWORD PTR [eax+12]
$LN16@StateIdle:
  0003f	b8 01 00 00 00	 mov	 eax, 1
  00044	5d		 pop	 ebp
  00045	c2 04 00	 ret	 4
?StateIdle@CAIKrrr@@AAEHABUAIMSG@@@Z ENDP		; CAIKrrr::StateIdle
_TEXT	ENDS
; Function compile flags: /Ogtp
; File C:\IAGOS\server\v18\Source\Source\_AIInterface\AIKrrr.cpp
;	COMDAT ?StateInit@CAIKrrr@@AAEHABUAIMSG@@@Z
_TEXT	SEGMENT
_msg$ = 8						; size = 4
?StateInit@CAIKrrr@@AAEHABUAIMSG@@@Z PROC		; CAIKrrr::StateInit, COMDAT
; _this$ = ecx

; 104  : 	return TRUE;

  00000	b8 01 00 00 00	 mov	 eax, 1

; 105  : }

  00005	c2 04 00	 ret	 4
?StateInit@CAIKrrr@@AAEHABUAIMSG@@@Z ENDP		; CAIKrrr::StateInit
_TEXT	ENDS
; Function compile flags: /Ogtp
; File C:\IAGOS\server\v18\Source\Source\_AIInterface\AIKrrr.cpp
;	COMDAT ?Destroy@CAIKrrr@@AAEXXZ
_TEXT	SEGMENT
?Destroy@CAIKrrr@@AAEXXZ PROC				; CAIKrrr::Destroy, COMDAT
; _this$ = ecx

; 91   : }

  00000	c2 00 00	 ret	 0
?Destroy@CAIKrrr@@AAEXXZ ENDP				; CAIKrrr::Destroy
_TEXT	ENDS
; Function compile flags: /Ogtp
; File C:\IAGOS\server\v18\Source\Source\_AIInterface\AIKrrr.cpp
;	COMDAT ?Init@CAIKrrr@@AAEXXZ
_TEXT	SEGMENT
?Init@CAIKrrr@@AAEXXZ PROC				; CAIKrrr::Init, COMDAT
; _this$ = ecx

; 74   : {

  00000	56		 push	 esi
  00001	8b f1		 mov	 esi, ecx

; 75   : 	m_vPosBegin.x = m_vPosBegin.y = m_vPosBegin.z = 0;

  00003	c7 46 54 00 00
	00 00		 mov	 DWORD PTR [esi+84], 0
  0000a	c7 46 50 00 00
	00 00		 mov	 DWORD PTR [esi+80], 0
  00011	c7 46 4c 00 00
	00 00		 mov	 DWORD PTR [esi+76], 0

; 76   : 	m_nEvent = EPT_READY;

  00018	c7 46 58 00 00
	00 00		 mov	 DWORD PTR [esi+88], 0

; 77   : 	m_nAttackType = 0;

  0001f	c7 46 5c 00 00
	00 00		 mov	 DWORD PTR [esi+92], 0

; 78   : 	m_tmReattack = m_tmAddReattack = m_tmTrace = m_tmTimeOver = timeGetTime();

  00026	ff 15 00 00 00
	00		 call	 DWORD PTR __imp__timeGetTime@0
  0002c	89 46 6c	 mov	 DWORD PTR [esi+108], eax
  0002f	0f 57 c0	 xorps	 xmm0, xmm0
  00032	89 46 68	 mov	 DWORD PTR [esi+104], eax
  00035	89 46 64	 mov	 DWORD PTR [esi+100], eax
  00038	89 46 60	 mov	 DWORD PTR [esi+96], eax

; 79   : 	m_idTarget = NULL_ID;

  0003b	c7 46 70 ff ff
	ff ff		 mov	 DWORD PTR [esi+112], -1

; 80   : 	m_vTarget.x = m_vTarget.y = m_vTarget.z = 0;

  00042	c7 46 7c 00 00
	00 00		 mov	 DWORD PTR [esi+124], 0
  00049	c7 46 78 00 00
	00 00		 mov	 DWORD PTR [esi+120], 0
  00050	c7 46 74 00 00
	00 00		 mov	 DWORD PTR [esi+116], 0

; 81   : 	m_idLastAttacker = NULL_ID;

  00057	c7 86 8c 00 00
	00 ff ff ff ff	 mov	 DWORD PTR [esi+140], -1

; 82   : 	m_bDefenseMode = FALSE;

  00061	c7 86 90 00 00
	00 00 00 00 00	 mov	 DWORD PTR [esi+144], 0

; 83   : 	m_nAppearCnt = 0;

  0006b	c7 86 80 00 00
	00 00 00 00 00	 mov	 DWORD PTR [esi+128], 0

; 84   : 	m_nEventCount = 10;

  00075	c7 86 88 00 00
	00 0a 00 00 00	 mov	 DWORD PTR [esi+136], 10	; 0000000aH

; 85   : 
; 86   : 	memset( m_bEventFlag, 0, sizeof(BOOL)*5 );

  0007f	0f 11 46 38	 movups	 XMMWORD PTR [esi+56], xmm0
  00083	c7 46 48 00 00
	00 00		 mov	 DWORD PTR [esi+72], 0
  0008a	5e		 pop	 esi

; 87   : }

  0008b	c3		 ret	 0
?Init@CAIKrrr@@AAEXXZ ENDP				; CAIKrrr::Init
_TEXT	ENDS
; Function compile flags: /Ogtp
; File C:\IAGOS\server\v18\Source\Source\_AIInterface\AIKrrr.cpp
; File C:\IAGOS\server\v18\Source\Source\_Common\Obj.h
; File C:\IAGOS\server\v18\Source\Source\_Common\Mover.h
; File C:\IAGOS\server\v18\Source\Source\_Common\Obj.h
; File C:\IAGOS\server\v18\Source\Source\DX_SDK\d3dx9math.inl
; File C:\IAGOS\server\v18\Source\Source\_Common\Obj.h
; File C:\IAGOS\server\v18\Source\Source\DX_SDK\d3dx9math.inl
; File C:\IAGOS\server\v18\Source\Source\_AIInterface\AIKrrr.cpp
; File C:\IAGOS\server\v18\Source\Source\_Common\xUtil.h
; File C:\IAGOS\server\v18\Source\Source\_AIInterface\AIKrrr.cpp
; File C:\IAGOS\server\v18\Source\Source\_Common\xUtil.h
; File C:\IAGOS\server\v18\Source\Source\_Common\Obj.h
; File C:\IAGOS\server\v18\Source\Source\_AIInterface\AIKrrr.cpp
;	COMDAT ?SelectTarget@CAIKrrr@@AAEHXZ
_TEXT	SEGMENT
$T1 = -28						; size = 12
$T2 = -16						; size = 12
_fRadius$ = -4						; size = 4
_dwNum$1$ = -4						; size = 4
_fRadiusSq$1$ = -4					; size = 4
?SelectTarget@CAIKrrr@@AAEHXZ PROC			; CAIKrrr::SelectTarget, COMDAT
; _this$ = ecx

; 162  : {

  00000	55		 push	 ebp
  00001	8b ec		 mov	 ebp, esp
  00003	83 ec 1c	 sub	 esp, 28			; 0000001cH
  00006	53		 push	 ebx
  00007	56		 push	 esi
  00008	8b f1		 mov	 esi, ecx
  0000a	57		 push	 edi

; 163  : 	CMover	*pMover = GetMover();

  0000b	8b 5e 30	 mov	 ebx, DWORD PTR [esi+48]

; 164  : 	CWorld	*pWorld = GetWorld();
; 165  : 	CModelObject *pModel = (CModelObject *)pMover->GetModel();
; 166  : 
; 167  : 	FLOAT fRadius = pMover->GetRadiusXZ();		// this의 반지름

  0000e	8b cb		 mov	 ecx, ebx
  00010	e8 00 00 00 00	 call	 ?GetRadiusXZ@CObj@@QAEMXZ ; CObj::GetRadiusXZ

; 168  : 	FLOAT fRadiusSq = fRadius * fRadius;		// 반지름Sq버전.
; 169  : 	
; 170  : 	CMover *pLastAttacker = prj.GetMover( m_idLastAttacker );

  00015	ff b6 8c 00 00
	00		 push	 DWORD PTR [esi+140]
  0001b	d9 5d fc	 fstp	 DWORD PTR _fRadius$[ebp]
  0001e	f3 0f 10 45 fc	 movss	 xmm0, DWORD PTR _fRadius$[ebp]
  00023	b9 00 00 00 00	 mov	 ecx, OFFSET ?prj@@3VCProject@@A ; prj
  00028	f3 0f 59 c0	 mulss	 xmm0, xmm0
  0002c	f3 0f 11 45 fc	 movss	 DWORD PTR _fRadiusSq$1$[ebp], xmm0
  00031	e8 00 00 00 00	 call	 ?GetMover@CProject@@QAEPAVCMover@@K@Z ; CProject::GetMover
  00036	8b f8		 mov	 edi, eax
; File C:\IAGOS\server\v18\Source\Source\_Common\Obj.h

; 327  : 	return pObj && ( pObj->IsDelete() == FALSE ); 

  00038	85 ff		 test	 edi, edi
  0003a	0f 84 92 00 00
	00		 je	 $LN4@SelectTarg

; 180  : 	BOOL			IsDelete()	{ return (m_dwFlags & OBJ_FLAG_DELETE);  }

  00040	f6 47 04 01	 test	 BYTE PTR [edi+4], 1

; 327  : 	return pObj && ( pObj->IsDelete() == FALSE ); 

  00044	0f 85 88 00 00
	00		 jne	 $LN4@SelectTarg
; File C:\IAGOS\server\v18\Source\Source\_Common\Mover.h

; 1250 : 	BOOL			IsDie() { return m_pActMover->IsDie() || m_nHitPoint == 0; }

  0004a	8b 8f 38 02 00
	00		 mov	 ecx, DWORD PTR [edi+568]
  00050	f7 41 04 00 00
	00 08		 test	 DWORD PTR [ecx+4], 134217728 ; 08000000H
  00057	75 79		 jne	 SHORT $LN4@SelectTarg
  00059	83 bf f8 05 00
	00 00		 cmp	 DWORD PTR [edi+1528], 0
  00060	74 70		 je	 SHORT $LN4@SelectTarg
; File C:\IAGOS\server\v18\Source\Source\_Common\Obj.h

; 215  : 	D3DXVECTOR3		GetPos()	{ return m_vPos; }

  00062	f3 0f 7e 83 60
	01 00 00	 movq	 xmm0, QWORD PTR [ebx+352]
  0006a	8b 83 68 01 00
	00		 mov	 eax, DWORD PTR [ebx+360]
  00070	66 0f d6 45 e4	 movq	 QWORD PTR $T1[ebp], xmm0
  00075	f3 0f 7e 87 60
	01 00 00	 movq	 xmm0, QWORD PTR [edi+352]
  0007d	66 0f d6 45 f0	 movq	 QWORD PTR $T2[ebp], xmm0
; File C:\IAGOS\server\v18\Source\Source\DX_SDK\d3dx9math.inl

; 383  :     return D3DXVECTOR3(x - v.x, y - v.y, z - v.z);

  00082	f3 0f 10 4d f0	 movss	 xmm1, DWORD PTR $T2[ebp]
  00087	f3 0f 10 55 f4	 movss	 xmm2, DWORD PTR $T2[ebp+4]
  0008c	f3 0f 5c 55 e8	 subss	 xmm2, DWORD PTR $T1[ebp+4]
  00091	f3 0f 5c 4d e4	 subss	 xmm1, DWORD PTR $T1[ebp]
; File C:\IAGOS\server\v18\Source\Source\_Common\Obj.h

; 215  : 	D3DXVECTOR3		GetPos()	{ return m_vPos; }

  00096	89 45 ec	 mov	 DWORD PTR $T1[ebp+8], eax
  00099	8b 87 68 01 00
	00		 mov	 eax, DWORD PTR [edi+360]
  0009f	89 45 f8	 mov	 DWORD PTR $T2[ebp+8], eax
; File C:\IAGOS\server\v18\Source\Source\DX_SDK\d3dx9math.inl

; 383  :     return D3DXVECTOR3(x - v.x, y - v.y, z - v.z);

  000a2	f3 0f 10 45 f8	 movss	 xmm0, DWORD PTR $T2[ebp+8]
  000a7	f3 0f 5c 45 ec	 subss	 xmm0, DWORD PTR $T1[ebp+8]

; 302  :     z = fz;

  000ac	f3 0f 59 d2	 mulss	 xmm2, xmm2

; 1698 :     return pV->x * pV->x + pV->y * pV->y + pV->z * pV->z;

  000b0	f3 0f 59 c9	 mulss	 xmm1, xmm1
  000b4	f3 0f 59 c0	 mulss	 xmm0, xmm0
  000b8	f3 0f 58 d1	 addss	 xmm2, xmm1
  000bc	f3 0f 58 d0	 addss	 xmm2, xmm0
; File C:\IAGOS\server\v18\Source\Source\_AIInterface\AIKrrr.cpp

; 179  : 		if( fDistSq >= fRadiusSq * 10.0f )				// 라스트어태커가 내 반지름의 10배이상 떨어져있으면

  000c0	f3 0f 10 45 fc	 movss	 xmm0, DWORD PTR _fRadiusSq$1$[ebp]
  000c5	f3 0f 59 05 00
	00 00 00	 mulss	 xmm0, DWORD PTR __real@41200000
  000cd	0f 2f d0	 comiss	 xmm2, xmm0
  000d0	72 0c		 jb	 SHORT $LN5@SelectTarg
$LN4@SelectTarg:

; 180  : 		{
; 181  : 			// 타겟 포기
; 182  : #ifdef __INTERNALSERVER
; 183  : 			CString str;
; 184  : 			str.Format( "LastAtker(%s)가 너무 멀어서(%5.2f) 타겟포기함", pLastAttacker->GetName(), sqrt(fDistSq) );
; 185  : 			DEBUGOUT2( str, "boss(CAIKrrr).txt" );
; 186  : #endif
; 187  : 			
; 188  : 			m_idLastAttacker = NULL_ID;
; 189  : 			pLastAttacker = NULL;
; 190  : 		}
; 191  : 	}
; 192  : 
; 193  : 
; 194  : 	m_idTarget = NULL_ID;

  000d2	33 ff		 xor	 edi, edi
  000d4	c7 86 8c 00 00
	00 ff ff ff ff	 mov	 DWORD PTR [esi+140], -1
$LN5@SelectTarg:

; 195  : 	m_vTarget.x = m_vTarget.y = m_vTarget.z = 0;	// 일단 이건 안쓰는걸로 하자.
; 196  : 
; 197  : 	if( m_idLastAttacker == NULL_ID )		// 아직 날 때린쉐리가 없다.

  000de	83 be 8c 00 00
	00 ff		 cmp	 DWORD PTR [esi+140], -1
  000e5	c7 46 70 ff ff
	ff ff		 mov	 DWORD PTR [esi+112], -1
  000ec	c7 46 7c 00 00
	00 00		 mov	 DWORD PTR [esi+124], 0
  000f3	c7 46 78 00 00
	00 00		 mov	 DWORD PTR [esi+120], 0
  000fa	c7 46 74 00 00
	00 00		 mov	 DWORD PTR [esi+116], 0
  00101	75 3f		 jne	 SHORT $LN6@SelectTarg

; 198  : 	{
; 199  : 		CMover* pTarget = NULL;
; 200  : 		pTarget = ScanTarget( pMover, 40, JOB_ALL );		// 40미터 반경내에서 아무나 고른다.

  00103	6a 00		 push	 0
  00105	6a 00		 push	 0
  00107	6a 00		 push	 0
  00109	6a 28		 push	 40			; 00000028H
  0010b	6a 28		 push	 40			; 00000028H
  0010d	53		 push	 ebx
  0010e	8b ce		 mov	 ecx, esi
  00110	e8 00 00 00 00	 call	 ?ScanTarget@CAIInterface@@IAEPAVCMover@@PAVCObj@@HHKKH@Z ; CAIInterface::ScanTarget

; 201  : 		if( pTarget )

  00115	85 c0		 test	 eax, eax
  00117	74 20		 je	 SHORT $LN8@SelectTarg

; 202  : 		{
; 203  : 			// this가 비행형 몬스터거나 || 타겟이 비행중이 아닐때만 공격.
; 204  : 			if( pMover->IsFlyingNPC() || pTarget->m_pActMover->IsFly() == FALSE )	

  00119	f7 83 3c 02 00
	00 00 00 01 00	 test	 DWORD PTR [ebx+572], 65536 ; 00010000H
  00123	0f 85 9f 00 00
	00		 jne	 $LN12@SelectTarg
  00129	8b 88 38 02 00
	00		 mov	 ecx, DWORD PTR [eax+568]
  0012f	f6 41 08 08	 test	 BYTE PTR [ecx+8], 8
  00133	0f 84 8f 00 00
	00		 je	 $LN12@SelectTarg
$LN8@SelectTarg:
  00139	5f		 pop	 edi

; 310  : }

  0013a	5e		 pop	 esi
  0013b	33 c0		 xor	 eax, eax
  0013d	5b		 pop	 ebx
  0013e	8b e5		 mov	 esp, ebp
  00140	5d		 pop	 ebp
  00141	c3		 ret	 0
$LN6@SelectTarg:
; File C:\IAGOS\server\v18\Source\Source\_Common\xUtil.h

; 16   : 	g_next = g_next * 1103515245 + 12345;// + nRandomSeed[ i++ ];

  00142	69 0d 00 00 00
	00 6d 4e c6 41	 imul	 ecx, DWORD PTR ?g_next@@3KA, 1103515245 ; g_next

; 22   : 	return  xRand() % num;

  0014c	b8 1f 85 eb 51	 mov	 eax, 1374389535		; 51eb851fH

; 16   : 	g_next = g_next * 1103515245 + 12345;// + nRandomSeed[ i++ ];

  00151	81 c1 39 30 00
	00		 add	 ecx, 12345		; 00003039H

; 22   : 	return  xRand() % num;

  00157	f7 e1		 mul	 ecx

; 16   : 	g_next = g_next * 1103515245 + 12345;// + nRandomSeed[ i++ ];

  00159	89 0d 00 00 00
	00		 mov	 DWORD PTR ?g_next@@3KA, ecx ; g_next

; 22   : 	return  xRand() % num;

  0015f	c1 ea 05	 shr	 edx, 5
  00162	6b c2 64	 imul	 eax, edx, 100
; File C:\IAGOS\server\v18\Source\Source\_AIInterface\AIKrrr.cpp

; 222  : 		DWORD dwAggroRate = 50;

  00165	ba 32 00 00 00	 mov	 edx, 50			; 00000032H
; File C:\IAGOS\server\v18\Source\Source\_Common\xUtil.h

; 22   : 	return  xRand() % num;

  0016a	2b c8		 sub	 ecx, eax
  0016c	89 4d fc	 mov	 DWORD PTR _dwNum$1$[ebp], ecx
; File C:\IAGOS\server\v18\Source\Source\_Common\Obj.h

; 327  : 	return pObj && ( pObj->IsDelete() == FALSE ); 

  0016f	85 ff		 test	 edi, edi
  00171	74 20		 je	 SHORT $LN14@SelectTarg

; 180  : 	BOOL			IsDelete()	{ return (m_dwFlags & OBJ_FLAG_DELETE);  }

  00173	f6 47 04 01	 test	 BYTE PTR [edi+4], 1

; 327  : 	return pObj && ( pObj->IsDelete() == FALSE ); 

  00177	75 1a		 jne	 SHORT $LN14@SelectTarg
; File C:\IAGOS\server\v18\Source\Source\_AIInterface\AIKrrr.cpp

; 226  : 			if( pLastAttacker->GetJob() == JOB_MERCENARY )		// 마지막으로 날때린 쉐리가 머서면 어그로 좀더 주자.

  00179	8b cf		 mov	 ecx, edi
  0017b	e8 00 00 00 00	 call	 ?GetJob@CMover@@QAEHXZ	; CMover::GetJob
  00180	b9 46 00 00 00	 mov	 ecx, 70			; 00000046H
  00185	83 f8 01	 cmp	 eax, 1
  00188	ba 32 00 00 00	 mov	 edx, 50			; 00000032H
  0018d	0f 44 d1	 cmove	 edx, ecx
  00190	8b 4d fc	 mov	 ecx, DWORD PTR _dwNum$1$[ebp]
$LN14@SelectTarg:

; 227  : 				dwAggroRate = 70;
; 228  : 		}
; 229  : 		if( dwNum < dwAggroRate )		

  00193	3b ca		 cmp	 ecx, edx
  00195	72 77		 jb	 SHORT $LN25@SelectTarg

; 230  : 		{
; 231  : 			// dwAggroRate% 확률로 마지막으로 날 때린넘 공격.
; 232  : 			m_idTarget = m_idLastAttacker;		// 날 공격한 쉐리를 타겟으로 지정하자.
; 233  : 			
; 234  : 		} else
; 235  : 		if( dwNum < 75 )

  00197	83 f9 4b	 cmp	 ecx, 75			; 0000004bH
  0019a	73 41		 jae	 SHORT $LN17@SelectTarg

; 236  : 		{
; 237  : 			// 50미터 반경내에서 가장 쎈넘을 잡자.
; 238  : 			CMover *pTarget = ScanTargetStrong( pMover, 50 );		

  0019c	51		 push	 ecx
  0019d	c7 04 24 00 00
	48 42		 mov	 DWORD PTR [esp], 1112014848 ; 42480000H
  001a4	8b ce		 mov	 ecx, esi
  001a6	53		 push	 ebx
  001a7	e8 00 00 00 00	 call	 ?ScanTargetStrong@CAIInterface@@IAEPAVCMover@@PAVCObj@@M@Z ; CAIInterface::ScanTargetStrong

; 239  : 			if( pTarget )

  001ac	85 c0		 test	 eax, eax
  001ae	74 5e		 je	 SHORT $LN25@SelectTarg

; 240  : 			{
; 241  : 				// this가 비행형 몬스터거나 || 타겟이 비행중이 아닐때만 공격.
; 242  : 				if( pMover->IsFlyingNPC() || pTarget->m_pActMover->IsFly() == FALSE )	

  001b0	f7 83 3c 02 00
	00 00 00 01 00	 test	 DWORD PTR [ebx+572], 65536 ; 00010000H
  001ba	75 0c		 jne	 SHORT $LN12@SelectTarg
  001bc	8b 88 38 02 00
	00		 mov	 ecx, DWORD PTR [eax+568]
  001c2	f6 41 08 08	 test	 BYTE PTR [ecx+8], 8
  001c6	75 46		 jne	 SHORT $LN25@SelectTarg
$LN12@SelectTarg:

; 264  : 				{
; 265  : 					m_idTarget = pTarget->GetId();
; 266  : #ifdef __INTERNALSERVER
; 267  : 					CString str;
; 268  : 					str.Format( "OverHealer:%s", pTarget->GetName() );
; 269  : 					DEBUGOUT2( str, "boss(CAIKrrr).txt" );
; 270  : #endif
; 271  : 				}
; 272  : 				else
; 273  : 					m_idTarget = m_idLastAttacker;		// 타겟이 공격하기가 여의치 않으면 마지막으로 때린쉐리 공격하자.
; 274  : 			} else
; 275  : 				m_idTarget = m_idLastAttacker;		// 타겟이 공격하기가 여의치 않으면 마지막으로 때린쉐리 공격하자.
; 276  : 		}
; 277  : #ifdef __INTERNALSERVER
; 278  : 		{
; 279  : 			CMover *pTarget = prj.GetMover( m_idTarget );
; 280  : 			CMover *pMover = prj.GetMover( m_idLastAttacker );
; 281  : 			CString str;
; 282  : 			if( pMover )
; 283  : 			{
; 284  : 				if( pTarget )
; 285  : 					str.Format( "rand:%d LastAttacker:%s SelectTarget:%s", dwNum, pMover->GetName(), pTarget->GetName() );
; 286  : 				else
; 287  : 					str.Format( "rand:%d LastAttacker:%s SelectTarget:%s", dwNum, pMover->GetName(), "없음" );
; 288  : 				DEBUGOUT2( str, "boss(CAIKrrr).txt" );
; 289  : 			} else
; 290  : 			{
; 291  : 				if( pTarget )
; 292  : 					str.Format( "rand:%d LastAttacker:%s SelectTarget:%s", dwNum, "없음.", pTarget->GetName() );
; 293  : 				else
; 294  : 					str.Format( "rand:%d LastAttacker:%s SelectTarget:%s", dwNum, "없음.", "없음" );
; 295  : 				
; 296  : 				DEBUGOUT2( str, "boss(CAIKrrr).txt" );
; 297  : 			}
; 298  : 
; 299  : 		}
; 300  : #endif
; 301  : 	}
; 302  : 
; 303  : 	// 적절한 공격대상을 정하자.
; 304  : 	// .가장 마지막으로 날 때린넘 - 50%. - 골고루 공격한다는 느낌을 줌.
; 305  : 	// .나에게 가장 위협적인넘(데미지를 많이 주는넘 혹은 가장 강한 넘) - 25%
; 306  : 	// .오버힐 하는 어시 - 25%.
; 307  : 	// .떼거리로 가장 몰려있는 구역의 중앙에 있는넘. - 10% - 일단 이건 나중에
; 308  : 
; 309  : 	return TRUE;

  001c8	8b 80 bc 01 00
	00		 mov	 eax, DWORD PTR [eax+444]
  001ce	5f		 pop	 edi
  001cf	89 46 70	 mov	 DWORD PTR [esi+112], eax
  001d2	b8 01 00 00 00	 mov	 eax, 1

; 310  : }

  001d7	5e		 pop	 esi
  001d8	5b		 pop	 ebx
  001d9	8b e5		 mov	 esp, ebp
  001db	5d		 pop	 ebp
  001dc	c3		 ret	 0
$LN17@SelectTarg:

; 243  : 				{
; 244  : 					m_idTarget = pTarget->GetId();
; 245  : #ifdef __INTERNALSERVER
; 246  : 					CString str;
; 247  : 					str.Format( "Leader:%s %d", pTarget->GetName(), pTarget->GetLevel() );
; 248  : 					DEBUGOUT2( str, "boss(CAIKrrr).txt" );
; 249  : #endif
; 250  : 				}
; 251  : 				else
; 252  : 					m_idTarget = m_idLastAttacker;		// 타겟이 공격하기가 여의치 않으면 마지막으로 때린쉐리 공격하자.
; 253  : 			} else
; 254  : 				m_idTarget = m_idLastAttacker;		// 타겟이 공격하기가 여의치 않으면 마지막으로 때린쉐리 공격하자.
; 255  : 		} else
; 256  : 		if( dwNum < 100 )

  001dd	83 f9 64	 cmp	 ecx, 100		; 00000064H
  001e0	73 35		 jae	 SHORT $LN26@SelectTarg

; 257  : 		{
; 258  : 			// 오버힐하는 어시를 죽이자.
; 259  : 			CMover *pTarget = ScanTargetOverHealer( pMover, 50 );		

  001e2	51		 push	 ecx
  001e3	c7 04 24 00 00
	48 42		 mov	 DWORD PTR [esp], 1112014848 ; 42480000H
  001ea	8b ce		 mov	 ecx, esi
  001ec	53		 push	 ebx
  001ed	e8 00 00 00 00	 call	 ?ScanTargetOverHealer@CAIInterface@@IAEPAVCMover@@PAVCObj@@M@Z ; CAIInterface::ScanTargetOverHealer

; 260  : 			if( pTarget )

  001f2	85 c0		 test	 eax, eax
  001f4	74 18		 je	 SHORT $LN25@SelectTarg

; 261  : 			{
; 262  : 				// this가 비행형 몬스터거나 || 타겟이 비행중이 아닐때만 공격.
; 263  : 				if( pMover->IsFlyingNPC() || pTarget->m_pActMover->IsFly() == FALSE )	

  001f6	f7 83 3c 02 00
	00 00 00 01 00	 test	 DWORD PTR [ebx+572], 65536 ; 00010000H
  00200	75 c6		 jne	 SHORT $LN12@SelectTarg
  00202	8b 88 38 02 00
	00		 mov	 ecx, DWORD PTR [eax+568]
  00208	f6 41 08 08	 test	 BYTE PTR [ecx+8], 8
  0020c	74 ba		 je	 SHORT $LN12@SelectTarg
$LN25@SelectTarg:

; 264  : 				{
; 265  : 					m_idTarget = pTarget->GetId();
; 266  : #ifdef __INTERNALSERVER
; 267  : 					CString str;
; 268  : 					str.Format( "OverHealer:%s", pTarget->GetName() );
; 269  : 					DEBUGOUT2( str, "boss(CAIKrrr).txt" );
; 270  : #endif
; 271  : 				}
; 272  : 				else
; 273  : 					m_idTarget = m_idLastAttacker;		// 타겟이 공격하기가 여의치 않으면 마지막으로 때린쉐리 공격하자.
; 274  : 			} else
; 275  : 				m_idTarget = m_idLastAttacker;		// 타겟이 공격하기가 여의치 않으면 마지막으로 때린쉐리 공격하자.
; 276  : 		}
; 277  : #ifdef __INTERNALSERVER
; 278  : 		{
; 279  : 			CMover *pTarget = prj.GetMover( m_idTarget );
; 280  : 			CMover *pMover = prj.GetMover( m_idLastAttacker );
; 281  : 			CString str;
; 282  : 			if( pMover )
; 283  : 			{
; 284  : 				if( pTarget )
; 285  : 					str.Format( "rand:%d LastAttacker:%s SelectTarget:%s", dwNum, pMover->GetName(), pTarget->GetName() );
; 286  : 				else
; 287  : 					str.Format( "rand:%d LastAttacker:%s SelectTarget:%s", dwNum, pMover->GetName(), "없음" );
; 288  : 				DEBUGOUT2( str, "boss(CAIKrrr).txt" );
; 289  : 			} else
; 290  : 			{
; 291  : 				if( pTarget )
; 292  : 					str.Format( "rand:%d LastAttacker:%s SelectTarget:%s", dwNum, "없음.", pTarget->GetName() );
; 293  : 				else
; 294  : 					str.Format( "rand:%d LastAttacker:%s SelectTarget:%s", dwNum, "없음.", "없음" );
; 295  : 				
; 296  : 				DEBUGOUT2( str, "boss(CAIKrrr).txt" );
; 297  : 			}
; 298  : 
; 299  : 		}
; 300  : #endif
; 301  : 	}
; 302  : 
; 303  : 	// 적절한 공격대상을 정하자.
; 304  : 	// .가장 마지막으로 날 때린넘 - 50%. - 골고루 공격한다는 느낌을 줌.
; 305  : 	// .나에게 가장 위협적인넘(데미지를 많이 주는넘 혹은 가장 강한 넘) - 25%
; 306  : 	// .오버힐 하는 어시 - 25%.
; 307  : 	// .떼거리로 가장 몰려있는 구역의 중앙에 있는넘. - 10% - 일단 이건 나중에
; 308  : 
; 309  : 	return TRUE;

  0020e	8b 86 8c 00 00
	00		 mov	 eax, DWORD PTR [esi+140]
  00214	89 46 70	 mov	 DWORD PTR [esi+112], eax
$LN26@SelectTarg:

; 310  : }

  00217	5f		 pop	 edi
  00218	5e		 pop	 esi
  00219	b8 01 00 00 00	 mov	 eax, 1
  0021e	5b		 pop	 ebx
  0021f	8b e5		 mov	 esp, ebp
  00221	5d		 pop	 ebp
  00222	c3		 ret	 0
?SelectTarget@CAIKrrr@@AAEHXZ ENDP			; CAIKrrr::SelectTarget
_TEXT	ENDS
; Function compile flags: /Ogtp
; File C:\IAGOS\server\v18\Source\Source\_AIInterface\AIKrrr.cpp
; File C:\IAGOS\server\v18\Source\Source\_Common\Obj.h
; File C:\IAGOS\server\v18\Source\Source\_AIInterface\AIKrrr.cpp
; File C:\IAGOS\server\v18\Source\Source\_Common\Project.h
; File C:\IAGOS\server\v18\Source\Source\_Common\data.h
; File C:\IAGOS\server\v18\Source\Source\_Common\Project.h
; File C:\IAGOS\server\v18\Source\Source\_AIInterface\AIKrrr.cpp
; File C:\IAGOS\server\v18\Source\Source\_Common\xUtil.h
; File C:\IAGOS\server\v18\Source\Source\_AIInterface\AIKrrr.cpp
; File C:\IAGOS\server\v18\Source\Source\_Common\Obj.h
; File C:\IAGOS\server\v18\Source\Source\_AIInterface\AIKrrr.cpp
; File C:\IAGOS\server\v18\Source\Source\_Common\Obj.h
; File C:\IAGOS\server\v18\Source\Source\_AIInterface\AIKrrr.cpp
; File C:\IAGOS\server\v18\Source\Source\_AIInterface\Action.h
; File C:\IAGOS\server\v18\Source\Source\_AIInterface\AIKrrr.cpp
; File C:\IAGOS\server\v18\Source\Source\_Common\Mover.h
; File C:\IAGOS\server\v18\Source\Source\_AIInterface\AIKrrr.cpp
; File C:\IAGOS\server\v18\Source\Source\_Common\Obj.h
; File C:\IAGOS\server\v18\Source\Source\_AIInterface\AIKrrr.cpp
; File C:\IAGOS\server\v18\Source\Source\_Common\Obj.h
; File C:\IAGOS\server\v18\Source\Source\DX_SDK\d3dx9math.inl
; File C:\IAGOS\server\v18\Source\Source\_Common\Obj.h
; File C:\IAGOS\server\v18\Source\Source\DX_SDK\d3dx9math.inl
; File C:\IAGOS\server\v18\Source\Source\_Common\Obj.h
; File C:\IAGOS\server\v18\Source\Source\DX_SDK\d3dx9math.inl
; File C:\IAGOS\server\v18\Source\Source\_Common\Obj.h
; File C:\IAGOS\server\v18\Source\Source\DX_SDK\d3dx9math.inl
; File C:\IAGOS\server\v18\Source\Source\_AIInterface\AIKrrr.cpp
; File C:\IAGOS\server\v18\Source\Source\DX_SDK\d3dx9math.inl
; File C:\IAGOS\server\v18\Source\Source\_AIInterface\AIKrrr.cpp
; File C:\IAGOS\server\v18\Source\Source\_Common\xUtil.h
; File C:\IAGOS\server\v18\Source\Source\_AIInterface\AIKrrr.cpp
;	COMDAT ?MoveProcessRage@CAIKrrr@@AAEHXZ
_TEXT	SEGMENT
$T1 = -36						; size = 12
_fRadiusSq$1$ = -24					; size = 4
_fRadius$2 = -20					; size = 4
_pModel$1$ = -20					; size = 4
_fArrivalRange$1$ = -20					; size = 4
_vPos$3 = -16						; size = 12
_vTarget$4 = -16					; size = 12
__$ArrayPad$ = -4					; size = 4
?MoveProcessRage@CAIKrrr@@AAEHXZ PROC			; CAIKrrr::MoveProcessRage, COMDAT
; _this$ = ecx

; 316  : {

  00000	55		 push	 ebp
  00001	8b ec		 mov	 ebp, esp
  00003	83 ec 24	 sub	 esp, 36			; 00000024H
  00006	a1 00 00 00 00	 mov	 eax, DWORD PTR ___security_cookie
  0000b	33 c5		 xor	 eax, ebp
  0000d	89 45 fc	 mov	 DWORD PTR __$ArrayPad$[ebp], eax
  00010	53		 push	 ebx
  00011	56		 push	 esi
  00012	57		 push	 edi
  00013	8b f9		 mov	 edi, ecx

; 317  : 	CMover	*pMover = GetMover();
; 318  : 	CWorld	*pWorld = GetWorld();
; 319  : 	CModelObject *pModel = (CModelObject *)pMover->GetModel();
; 320  : /*
; 321  : 	if( m_bDefenseMode == FALSE && pMover->GetHitPointPercent() <= 100 )		// 20%이하로 피가 빠지면
; 322  : 	{
; 323  : 		m_bDefenseMode = TRUE;
; 324  : 		pMover->SetDestParam( DST_ADJDEF_RATE, 800, NULL_CHGPARAM );			// 방어도 30%증가.
; 325  : #ifdef __INTERNALSERVER
; 326  : //		Error( "보스의 방어도가 증가되었음. 엔터를 치시고 계속 즐겜을 하시오" );
; 327  : #endif
; 328  : 	}
; 329  : */
; 330  : 	
; 331  : 	// 이벤트 메세지
; 332  : 	// 보스몬스터가 유저에게 말을 한다.
; 333  : 	CMover * pTarget = NULL;
; 334  : 	
; 335  : 	if( m_bEventFlag[0] == FALSE )

  00015	83 7f 38 00	 cmp	 DWORD PTR [edi+56], 0
  00019	8b 5f 30	 mov	 ebx, DWORD PTR [edi+48]
  0001c	8b 83 78 01 00
	00		 mov	 eax, DWORD PTR [ebx+376]
  00022	89 45 ec	 mov	 DWORD PTR _pModel$1$[ebp], eax
  00025	0f 85 93 00 00
	00		 jne	 $LN3@MoveProces

; 336  : 	{
; 337  : 		pTarget	= ScanTarget( pMover, 60, JOB_ALL );		// 80미터 반경내에서 아무나 고른다.

  0002b	6a 00		 push	 0
  0002d	6a 00		 push	 0
  0002f	6a 00		 push	 0
  00031	6a 28		 push	 40			; 00000028H
  00033	6a 3c		 push	 60			; 0000003cH
  00035	53		 push	 ebx
  00036	e8 00 00 00 00	 call	 ?ScanTarget@CAIInterface@@IAEPAVCMover@@PAVCObj@@HHKKH@Z ; CAIInterface::ScanTarget
  0003b	8b f0		 mov	 esi, eax
; File C:\IAGOS\server\v18\Source\Source\_Common\Obj.h

; 327  : 	return pObj && ( pObj->IsDelete() == FALSE ); 

  0003d	85 f6		 test	 esi, esi
  0003f	74 7d		 je	 SHORT $LN3@MoveProces

; 180  : 	BOOL			IsDelete()	{ return (m_dwFlags & OBJ_FLAG_DELETE);  }

  00041	f6 46 04 01	 test	 BYTE PTR [esi+4], 1

; 327  : 	return pObj && ( pObj->IsDelete() == FALSE ); 

  00045	75 77		 jne	 SHORT $LN3@MoveProces
; File C:\IAGOS\server\v18\Source\Source\_AIInterface\AIKrrr.cpp

; 342  : 			m_bEventFlag[0] = TRUE;

  00047	c7 47 3c 01 00
	00 00		 mov	 DWORD PTR [edi+60], 1
  0004e	c7 47 38 01 00
	00 00		 mov	 DWORD PTR [edi+56], 1
; File C:\IAGOS\server\v18\Source\Source\_Common\Project.h

; 1427 : 	VERIFY_RANGE( (int)( dwIndex ), 0, m_colorText.GetSize(), "GetText range_error", "error" );

  00055	a1 ac 02 00 00	 mov	 eax, DWORD PTR ?prj@@3VCProject@@A+684
  0005a	3d d9 0b 00 00	 cmp	 eax, 3033		; 00000bd9H
  0005f	7f 21		 jg	 SHORT $LN50@MoveProces

; 579  : 	LPCTSTR szErr = Error( _T( "%s min:%d, max:%d, index:%d" ), szMsg, nMin, nMax, nIndex ); 

  00061	68 d9 0b 00 00	 push	 3033			; 00000bd9H
  00066	50		 push	 eax
  00067	6a 00		 push	 0
  00069	68 00 00 00 00	 push	 OFFSET ??_C@_0BE@OHDBLHOM@GetText?5range_error@
  0006e	68 00 00 00 00	 push	 OFFSET ??_C@_0BM@HMFGHCP@?$CFs?5min?3?$CFd?0?5max?3?$CFd?0?5index?3?$CFd@
  00073	e8 00 00 00 00	 call	 ?Error@@YAPBDPBDZZ	; Error
  00078	83 c4 14	 add	 esp, 20			; 00000014H

; 1427 : 	VERIFY_RANGE( (int)( dwIndex ), 0, m_colorText.GetSize(), "GetText range_error", "error" );

  0007b	b9 00 00 00 00	 mov	 ecx, OFFSET ??_C@_05KKCIMGE@error@
  00080	eb 1b		 jmp	 SHORT $LN49@MoveProces
$LN50@MoveProces:
; File C:\IAGOS\server\v18\Source\Source\_Common\data.h

; 270  : 	if( dwIndex >= (DWORD)m_nMaxIndex )

  00082	76 14		 jbe	 SHORT $LN107@MoveProces

; 271  : 		return NULL;
; 272  : 	return (T*) m_apOffset[ dwIndex ];

  00084	a1 9c 02 00 00	 mov	 eax, DWORD PTR ?prj@@3VCProject@@A+668
  00089	8b 88 64 2f 00
	00		 mov	 ecx, DWORD PTR [eax+12132]
; File C:\IAGOS\server\v18\Source\Source\_Common\Project.h

; 1428 : 	if( m_colorText.GetAt( dwIndex ) == NULL )

  0008f	85 c9		 test	 ecx, ecx
  00091	74 05		 je	 SHORT $LN107@MoveProces

; 1430 : 	return m_colorText.GetAt( dwIndex )->lpszData; 

  00093	8b 49 04	 mov	 ecx, DWORD PTR [ecx+4]
  00096	eb 05		 jmp	 SHORT $LN49@MoveProces
$LN107@MoveProces:

; 1429 : 		return "";

  00098	b9 00 00 00 00	 mov	 ecx, OFFSET ??_C@_00CNPNBAHC@@
$LN49@MoveProces:
; File C:\IAGOS\server\v18\Source\Source\_AIInterface\AIKrrr.cpp

; 344  : 			g_DPCoreClient.SendCaption( prj.GetText(TID_GAME_BOSS_KRR_MSG_01), pTarget->GetWorld()->GetID() );	

  0009d	8b 86 6c 01 00
	00		 mov	 eax, DWORD PTR [esi+364]
  000a3	6a 00		 push	 0
  000a5	ff 30		 push	 DWORD PTR [eax]
  000a7	51		 push	 ecx
  000a8	b9 00 00 00 00	 mov	 ecx, OFFSET ?g_DPCoreClient@@3VCDPCoreClient@@A ; g_DPCoreClient
  000ad	e8 00 00 00 00	 call	 ?SendCaption@CDPCoreClient@@QAEXPBDKH@Z ; CDPCoreClient::SendCaption

; 345  : 
; 346  : //			m_pEventTarget  = pTarget;
; 347  : 			m_idEventTarget	= pTarget->GetId();

  000b2	8b 86 bc 01 00
	00		 mov	 eax, DWORD PTR [esi+444]
  000b8	89 87 84 00 00
	00		 mov	 DWORD PTR [edi+132], eax
$LN3@MoveProces:

; 348  : 		}
; 349  : 	}
; 350  : 
; 351  : 	if( m_bEventFlag[1] == TRUE && m_nEventCount )

  000be	83 7f 3c 01	 cmp	 DWORD PTR [edi+60], 1
  000c2	0f 85 15 01 00
	00		 jne	 $LN7@MoveProces
  000c8	83 bf 88 00 00
	00 00		 cmp	 DWORD PTR [edi+136], 0
  000cf	0f 84 08 01 00
	00		 je	 $LN7@MoveProces
; File C:\IAGOS\server\v18\Source\Source\_Common\xUtil.h

; 16   : 	g_next = g_next * 1103515245 + 12345;// + nRandomSeed[ i++ ];

  000d5	69 0d 00 00 00
	00 6d 4e c6 41	 imul	 ecx, DWORD PTR ?g_next@@3KA, 1103515245 ; g_next

; 22   : 	return  xRand() % num;

  000df	b8 cd cc cc cc	 mov	 eax, -858993459		; cccccccdH

; 16   : 	g_next = g_next * 1103515245 + 12345;// + nRandomSeed[ i++ ];

  000e4	81 c1 39 30 00
	00		 add	 ecx, 12345		; 00003039H

; 22   : 	return  xRand() % num;

  000ea	f7 e1		 mul	 ecx

; 16   : 	g_next = g_next * 1103515245 + 12345;// + nRandomSeed[ i++ ];

  000ec	89 0d 00 00 00
	00		 mov	 DWORD PTR ?g_next@@3KA, ecx ; g_next

; 22   : 	return  xRand() % num;

  000f2	c1 ea 04	 shr	 edx, 4
  000f5	8d 04 92	 lea	 eax, DWORD PTR [edx+edx*4]
  000f8	c1 e0 02	 shl	 eax, 2
  000fb	2b c8		 sub	 ecx, eax
; File C:\IAGOS\server\v18\Source\Source\_AIInterface\AIKrrr.cpp

; 353  : 		if( xRandom(20) <= 0 )

  000fd	0f 85 ca 00 00
	00		 jne	 $LN6@MoveProces

; 354  : 		{
; 355  : 			m_nEventCount--;
; 356  : 
; 357  : 			CMover* pEventTarget	= prj.GetMover( m_idEventTarget );

  00103	ff b7 84 00 00
	00		 push	 DWORD PTR [edi+132]
  00109	ff 8f 88 00 00
	00		 dec	 DWORD PTR [edi+136]
  0010f	b9 00 00 00 00	 mov	 ecx, OFFSET ?prj@@3VCProject@@A ; prj
  00114	e8 00 00 00 00	 call	 ?GetMover@CProject@@QAEPAVCMover@@K@Z ; CProject::GetMover
  00119	8b f0		 mov	 esi, eax
; File C:\IAGOS\server\v18\Source\Source\_Common\Obj.h

; 327  : 	return pObj && ( pObj->IsDelete() == FALSE ); 

  0011b	85 f6		 test	 esi, esi
  0011d	0f 84 aa 00 00
	00		 je	 $LN6@MoveProces

; 180  : 	BOOL			IsDelete()	{ return (m_dwFlags & OBJ_FLAG_DELETE);  }

  00123	f6 46 04 01	 test	 BYTE PTR [esi+4], 1

; 327  : 	return pObj && ( pObj->IsDelete() == FALSE ); 

  00127	0f 85 a0 00 00
	00		 jne	 $LN6@MoveProces

; 215  : 	D3DXVECTOR3		GetPos()	{ return m_vPos; }

  0012d	f3 0f 7e 86 60
	01 00 00	 movq	 xmm0, QWORD PTR [esi+352]
  00135	8b 86 68 01 00
	00		 mov	 eax, DWORD PTR [esi+360]
; File C:\IAGOS\server\v18\Source\Source\_AIInterface\AIKrrr.cpp

; 362  : 				vPos.x += ( xRandomF( 20.0f ) + -10.0f );

  0013b	51		 push	 ecx
; File C:\IAGOS\server\v18\Source\Source\_Common\Obj.h

; 215  : 	D3DXVECTOR3		GetPos()	{ return m_vPos; }

  0013c	66 0f d6 45 f0	 movq	 QWORD PTR _vPos$3[ebp], xmm0
  00141	89 45 f8	 mov	 DWORD PTR _vPos$3[ebp+8], eax
; File C:\IAGOS\server\v18\Source\Source\_AIInterface\AIKrrr.cpp

; 362  : 				vPos.x += ( xRandomF( 20.0f ) + -10.0f );

  00144	c7 04 24 00 00
	a0 41		 mov	 DWORD PTR [esp], 1101004800 ; 41a00000H
  0014b	e8 00 00 00 00	 call	 ?xRandomF@@YAMM@Z	; xRandomF
  00150	d8 25 00 00 00
	00		 fsub	 DWORD PTR __real@41200000

; 363  : 				vPos.z += ( xRandomF( 20.0f ) + -10.0f );

  00156	c7 04 24 00 00
	a0 41		 mov	 DWORD PTR [esp], 1101004800 ; 41a00000H
  0015d	d8 45 f0	 fadd	 DWORD PTR _vPos$3[ebp]
  00160	d9 5d f0	 fstp	 DWORD PTR _vPos$3[ebp]
  00163	e8 00 00 00 00	 call	 ?xRandomF@@YAMM@Z	; xRandomF
  00168	d8 25 00 00 00
	00		 fsub	 DWORD PTR __real@41200000
  0016e	83 c4 04	 add	 esp, 4

; 364  : 				
; 365  : 				g_UserMng.AddCreateSfxObj( pEventTarget, XI_SKILL_ELE_MULTI_METEOSHOWER02, vPos.x, vPos.y, vPos.z );

  00171	b9 00 00 00 00	 mov	 ecx, OFFSET ?g_UserMng@@3VCUserMng@@A ; g_UserMng
  00176	d8 45 f8	 fadd	 DWORD PTR _vPos$3[ebp+8]
  00179	6a 00		 push	 0
  0017b	83 ec 0c	 sub	 esp, 12			; 0000000cH
  0017e	d9 5d f8	 fstp	 DWORD PTR _vPos$3[ebp+8]
  00181	f3 0f 10 45 f8	 movss	 xmm0, DWORD PTR _vPos$3[ebp+8]
  00186	f3 0f 11 44 24
	08		 movss	 DWORD PTR [esp+8], xmm0
  0018c	f3 0f 10 45 f4	 movss	 xmm0, DWORD PTR _vPos$3[ebp+4]
  00191	f3 0f 11 44 24
	04		 movss	 DWORD PTR [esp+4], xmm0
  00197	f3 0f 10 45 f0	 movss	 xmm0, DWORD PTR _vPos$3[ebp]
  0019c	f3 0f 11 04 24	 movss	 DWORD PTR [esp], xmm0
  001a1	68 b2 01 00 00	 push	 434			; 000001b2H
  001a6	56		 push	 esi
  001a7	e8 00 00 00 00	 call	 ?AddCreateSfxObj@CUserMng@@QAEXPAVCCtrl@@KMMMH@Z ; CUserMng::AddCreateSfxObj

; 366  : 				pMover->GetWorld()->SendDamageAround( &(vPos), AF_GENERIC, pMover, OBJTYPE_PLAYER, II_WEA_MOB_MONSTER4_ATK2

  001ac	51		 push	 ecx
  001ad	8b 8b 6c 01 00
	00		 mov	 ecx, DWORD PTR [ebx+364]
  001b3	8d 45 f0	 lea	 eax, DWORD PTR _vPos$3[ebp]
  001b6	c7 04 24 00 00
	00 40		 mov	 DWORD PTR [esp], 1073741824 ; 40000000H
  001bd	68 2e 24 00 00	 push	 9262			; 0000242eH
  001c2	6a 01		 push	 1
  001c4	53		 push	 ebx
  001c5	6a 01		 push	 1
  001c7	50		 push	 eax
  001c8	e8 00 00 00 00	 call	 ?SendDamageAround@CWorld@@QAEXPBUD3DXVECTOR3@@HPAVCMover@@HHM@Z ; CWorld::SendDamageAround
$LN6@MoveProces:

; 367  : 					, 2.0f );
; 368  : 			}
; 369  : 		}
; 370  : 		if( m_nEventCount <= 0 )

  001cd	83 bf 88 00 00
	00 00		 cmp	 DWORD PTR [edi+136], 0
  001d4	7f 07		 jg	 SHORT $LN7@MoveProces

; 371  : 			m_bEventFlag[1]	= FALSE;

  001d6	c7 47 3c 00 00
	00 00		 mov	 DWORD PTR [edi+60], 0
$LN7@MoveProces:

; 372  : 	}
; 373  : 
; 374  : 	if( m_nEvent == EPT_READY )

  001dd	8b 47 58	 mov	 eax, DWORD PTR [edi+88]
  001e0	85 c0		 test	 eax, eax
  001e2	75 74		 jne	 SHORT $LN8@MoveProces

; 376  : 		if( pMover->m_pActMover->m_bGround == 1 && pMover->m_pActMover->GetActionState() != OBJSTA_APPEAR )		// 바닥에 떨어지면..

  001e4	8b 8b 38 02 00
	00		 mov	 ecx, DWORD PTR [ebx+568]
  001ea	83 79 44 01	 cmp	 DWORD PTR [ecx+68], 1
  001ee	75 24		 jne	 SHORT $LN80@MoveProces
; File C:\IAGOS\server\v18\Source\Source\_AIInterface\Action.h

; 305  : 	DWORD			GetActionState() { return m_dwState & OBJSTA_ACTION_ALL; }

  001f0	8b 41 04	 mov	 eax, DWORD PTR [ecx+4]
  001f3	25 00 00 00 f0	 and	 eax, -268435456		; f0000000H
; File C:\IAGOS\server\v18\Source\Source\_AIInterface\AIKrrr.cpp

; 376  : 		if( pMover->m_pActMover->m_bGround == 1 && pMover->m_pActMover->GetActionState() != OBJSTA_APPEAR )		// 바닥에 떨어지면..

  001f8	3d 00 00 00 20	 cmp	 eax, 536870912		; 20000000H
  001fd	74 15		 je	 SHORT $LN80@MoveProces
; File C:\IAGOS\server\v18\Source\Source\_Common\Mover.h

; 1785 : 	if( m_pActMover )	

  001ff	85 c9		 test	 ecx, ecx
  00201	74 11		 je	 SHORT $LN80@MoveProces

; 1786 : 		return m_pActMover->SendActMsg( dwMsg, nParam1, nParam2, nParam3, nParam4 );	

  00203	8b 01		 mov	 eax, DWORD PTR [ecx]
  00205	6a 00		 push	 0
  00207	6a 00		 push	 0
  00209	6a 00		 push	 0
  0020b	6a 00		 push	 0
  0020d	6a 00		 push	 0
  0020f	6a 0e		 push	 14			; 0000000eH
  00211	ff 50 04	 call	 DWORD PTR [eax+4]
$LN80@MoveProces:
; File C:\IAGOS\server\v18\Source\Source\_AIInterface\AIKrrr.cpp

; 378  : 		if( ++m_nAppearCnt >= PROCESS_COUNT * 5 )		// 

  00214	8b 87 80 00 00
	00		 mov	 eax, DWORD PTR [edi+128]
  0021a	40		 inc	 eax
  0021b	89 87 80 00 00
	00		 mov	 DWORD PTR [edi+128], eax
  00221	83 f8 4b	 cmp	 eax, 75			; 0000004bH
  00224	0f 8c c2 02 00
	00		 jl	 $LN23@MoveProces

; 379  : 		{
; 380  : 			PostAIMsg( AIMSG_END_APPEAR );		// 등장씬 애니메이션이 끝났음을 알림.

  0022a	8b 07		 mov	 eax, DWORD PTR [edi]
  0022c	8b cf		 mov	 ecx, edi
  0022e	6a 00		 push	 0
  00230	6a 00		 push	 0
  00232	6a 00		 push	 0
  00234	6a 10		 push	 16			; 00000010H
  00236	ff 50 10	 call	 DWORD PTR [eax+16]

; 381  : 			pMover->m_pActMover->ResetState( OBJSTA_ACTION_ALL );

  00239	8b 8b 38 02 00
	00		 mov	 ecx, DWORD PTR [ebx+568]
  0023f	68 00 00 00 f0	 push	 -268435456		; f0000000H
  00244	e8 00 00 00 00	 call	 ?ResetState@CAction@@QAEXK@Z ; CAction::ResetState

; 382  : 			m_nAppearCnt = 0;

  00249	c7 87 80 00 00
	00 00 00 00 00	 mov	 DWORD PTR [edi+128], 0

; 383  : 		}
; 384  : 		// 아무것도 안함.
; 385  : 	} else

  00253	e9 94 02 00 00	 jmp	 $LN23@MoveProces
$LN8@MoveProces:

; 386  : 	// 공격중 애니.
; 387  : 	if( m_nEvent == EPT_ATTACKING )

  00258	83 f8 02	 cmp	 eax, 2
  0025b	75 5c		 jne	 SHORT $LN12@MoveProces

; 388  : 	{
; 389  : 
; 390  : 		BOOL bEnd = FALSE;
; 391  : 		if( pMover->m_dwMotion == MTI_STAND || pModel->IsEndFrame()	)

  0025d	83 bb d8 02 00
	00 00		 cmp	 DWORD PTR [ebx+728], 0
  00264	74 0c		 je	 SHORT $LN15@MoveProces
  00266	8b 45 ec	 mov	 eax, DWORD PTR _pModel$1$[ebp]
  00269	83 b8 9c 00 00
	00 00		 cmp	 DWORD PTR [eax+156], 0
  00270	74 07		 je	 SHORT $LN113@MoveProces
$LN15@MoveProces:

; 392  : 		{
; 393  : 			bEnd = TRUE;		// 공격 프레임 끝났는가. - 여기다 이걸 안넣어도 되는데 만약 공격동작의 끝을 놓치는 일이 생길때를 대비해서 넣어두면 조타.

  00272	bb 01 00 00 00	 mov	 ebx, 1
  00277	eb 02		 jmp	 SHORT $LN14@MoveProces
$LN113@MoveProces:

; 388  : 	{
; 389  : 
; 390  : 		BOOL bEnd = FALSE;
; 391  : 		if( pMover->m_dwMotion == MTI_STAND || pModel->IsEndFrame()	)

  00279	33 db		 xor	 ebx, ebx
$LN14@MoveProces:

; 394  : 		}
; 395  : 		if( timeGetTime() >= m_tmTimeOver + SEC(15) )				// 공격시작한지 10초이상오버됐으면 걍 끝남.

  0027b	8b 77 6c	 mov	 esi, DWORD PTR [edi+108]
  0027e	81 c6 98 3a 00
	00		 add	 esi, 15000		; 00003a98H
  00284	ff 15 00 00 00
	00		 call	 DWORD PTR __imp__timeGetTime@0
  0028a	3b c6		 cmp	 eax, esi
  0028c	73 08		 jae	 SHORT $LN109@MoveProces

; 396  : 			bEnd = TRUE;
; 397  : 		if( bEnd )

  0028e	85 db		 test	 ebx, ebx
  00290	0f 84 56 02 00
	00		 je	 $LN23@MoveProces
$LN109@MoveProces:

; 502  : 
; 503  : #ifdef __INTERNALSERVER
; 504  : 			{
; 505  : 				CString strType;
; 506  : 				switch( m_nAttackType )
; 507  : 				{
; 508  : 				case CAT_NORMAL:		strType = "기본";	break;
; 509  : 				case CAT_DOUBLE_CRASH:		strType = "두손내려침-광역";	break;
; 510  : 				case CAT_SUMMONS:		strType = "한손 내려침";	break;
; 511  : 				}
; 512  : 				CString str;
; 513  : 				str.Format( "AtkType:%s Dist:%5.2f", strType, sqrt(fDistSq) );
; 514  : 				DEBUGOUT2( str, "boss(CAIKrrr).txt" );
; 515  : 			}
; 516  : #endif
; 517  : 			
; 518  : 				
; 519  : 		} else	// 리어택 타이밍에 공격.
; 520  : 		{
; 521  : 			// 공격하기 적절한 위치로 이동하자.
; 522  : 		}
; 523  : 	}
; 524  : 
; 525  : 	return TRUE;

  00296	c7 47 58 01 00
	00 00		 mov	 DWORD PTR [edi+88], 1
  0029d	ff 15 00 00 00
	00		 call	 DWORD PTR __imp__timeGetTime@0
  002a3	89 47 60	 mov	 DWORD PTR [edi+96], eax
  002a6	c7 47 64 d0 07
	00 00		 mov	 DWORD PTR [edi+100], 2000 ; 000007d0H
  002ad	c7 47 70 ff ff
	ff ff		 mov	 DWORD PTR [edi+112], -1
  002b4	e9 33 02 00 00	 jmp	 $LN23@MoveProces
$LN12@MoveProces:

; 398  : 		{
; 399  : 			m_nEvent = EPT_MOVING;				// 이동상태로 전환.
; 400  : 			m_tmReattack = timeGetTime();		// 리어택 타임 리셋;
; 401  : 			m_tmAddReattack = 2000; // xRandom( 2000 );	// x초 범위내에서 리어택이 단축될 수 있다.
; 402  : 			m_idTarget = NULL_ID;				// 타겟을 클리어.
; 403  : 		} 
; 404  : 
; 405  : //		if( timeGetTime() >= m_tmTimeOver + SEC(15) )				// 공격시작한지 10초이상오버됐으면 걍 끝남.
; 406  : //			m_nEvent = EPT_ATTACK_END;
; 407  : 	} else
; 408  : 	if( m_nEvent == EPT_ATTACK_END )

  002b9	83 f8 03	 cmp	 eax, 3
  002bc	74 d8		 je	 SHORT $LN109@MoveProces

; 409  : 	{
; 410  : 		m_nEvent = EPT_MOVING;				// 이동상태로 전환.
; 411  : 		m_tmReattack = timeGetTime();		// 리어택 타임 리셋;
; 412  : 		m_tmAddReattack = 2000; // xRandom( 2000 );	// x초 범위내에서 리어택이 단축될 수 있다.
; 413  : 		m_idTarget = NULL_ID;				// 타겟을 클리어.
; 414  : 	} else
; 415  : 	// 공격을 위해 추격중.
; 416  : 	if( m_nEvent == EPT_TRACKING )

  002be	83 f8 04	 cmp	 eax, 4
  002c1	75 3f		 jne	 SHORT $LN20@MoveProces

; 417  : 	{
; 418  : 		if( timeGetTime() >= m_tmTrace + 3000 )		// 추적을 시작한지 3초가 지나면 추적을 포기

  002c3	8b 77 68	 mov	 esi, DWORD PTR [edi+104]
  002c6	81 c6 b8 0b 00
	00		 add	 esi, 3000		; 00000bb8H
  002cc	ff 15 00 00 00
	00		 call	 DWORD PTR __imp__timeGetTime@0
  002d2	3b c6		 cmp	 eax, esi
  002d4	0f 82 12 02 00
	00		 jb	 $LN23@MoveProces

; 419  : 		{
; 420  : 			m_nEvent = EPT_MOVING;

  002da	c7 47 58 01 00
	00 00		 mov	 DWORD PTR [edi+88], 1

; 421  : 			m_idTarget = NULL;			// 여기서 이걸 클리어 해줘야 아래에서 SelectTarget()을 다시 한다 .

  002e1	c7 47 70 00 00
	00 00		 mov	 DWORD PTR [edi+112], 0

; 422  : 			m_vTarget.x = m_vTarget.y = m_vTarget.z = 0;

  002e8	c7 47 7c 00 00
	00 00		 mov	 DWORD PTR [edi+124], 0
  002ef	c7 47 78 00 00
	00 00		 mov	 DWORD PTR [edi+120], 0
  002f6	c7 47 74 00 00
	00 00		 mov	 DWORD PTR [edi+116], 0

; 423  : 		}
; 424  : 	} else	

  002fd	e9 ea 01 00 00	 jmp	 $LN23@MoveProces
$LN20@MoveProces:

; 425  : 	//------------- 공격중이 아님. --------------------
; 426  : 	{
; 427  : 
; 428  : 		if( timeGetTime() >= m_tmReattack + (2000 - m_tmAddReattack) )		// 리어택 시간이 됐는가?  기본적으로 5초간격에 AddReattack으로 줄어들 수 있음.

  00302	8b 77 60	 mov	 esi, DWORD PTR [edi+96]
  00305	2b 77 64	 sub	 esi, DWORD PTR [edi+100]
  00308	81 c6 d0 07 00
	00		 add	 esi, 2000		; 000007d0H
  0030e	ff 15 00 00 00
	00		 call	 DWORD PTR __imp__timeGetTime@0
  00314	3b c6		 cmp	 eax, esi
  00316	0f 82 d0 01 00
	00		 jb	 $LN23@MoveProces

; 429  : 		{
; 430  : 			FLOAT fRadius = pMover->GetRadiusXZ();		// this의 반지름

  0031c	8b cb		 mov	 ecx, ebx
  0031e	e8 00 00 00 00	 call	 ?GetRadiusXZ@CObj@@QAEMXZ ; CObj::GetRadiusXZ

; 431  : 			FLOAT fRadiusSq = fRadius * fRadius;		// 반지름Sq버전.
; 432  : 			
; 433  : 			if( m_idTarget == NULL_ID &&										// 공격대상이 정해지지 않았고

  00323	83 7f 70 ff	 cmp	 DWORD PTR [edi+112], -1
  00327	0f 57 db	 xorps	 xmm3, xmm3
  0032a	d9 5d ec	 fstp	 DWORD PTR _fRadius$2[ebp]
  0032d	f3 0f 10 45 ec	 movss	 xmm0, DWORD PTR _fRadius$2[ebp]
  00332	0f 28 c8	 movaps	 xmm1, xmm0
  00335	f3 0f 11 45 ec	 movss	 DWORD PTR _fArrivalRange$1$[ebp], xmm0
  0033a	f3 0f 59 c8	 mulss	 xmm1, xmm0
  0033e	f3 0f 11 4d e8	 movss	 DWORD PTR _fRadiusSq$1$[ebp], xmm1
  00343	75 38		 jne	 SHORT $LN26@MoveProces
  00345	f3 0f 10 47 74	 movss	 xmm0, DWORD PTR [edi+116]
  0034a	0f 2e c3	 ucomiss xmm0, xmm3
  0034d	9f		 lahf
  0034e	f6 c4 44	 test	 ah, 68			; 00000044H
  00351	7a 2a		 jp	 SHORT $LN26@MoveProces
  00353	f3 0f 10 47 78	 movss	 xmm0, DWORD PTR [edi+120]
  00358	0f 2e c3	 ucomiss xmm0, xmm3
  0035b	9f		 lahf
  0035c	f6 c4 44	 test	 ah, 68			; 00000044H
  0035f	7a 1c		 jp	 SHORT $LN26@MoveProces
  00361	f3 0f 10 47 7c	 movss	 xmm0, DWORD PTR [edi+124]
  00366	0f 2e c3	 ucomiss xmm0, xmm3
  00369	9f		 lahf
  0036a	f6 c4 44	 test	 ah, 68			; 00000044H
  0036d	7a 0e		 jp	 SHORT $LN26@MoveProces

; 434  : 				(m_vTarget.x == 0 && m_vTarget.y == 0 && m_vTarget.z == 0) )	// 공격위치도 정해지지 않았다.
; 435  : 			{
; 436  : 				// 어떤 쉐리를 공격할까....? 를 선정함.
; 437  : 				if( SelectTarget() == FALSE )

  0036f	8b cf		 mov	 ecx, edi
  00371	e8 00 00 00 00	 call	 ?SelectTarget@CAIKrrr@@AAEHXZ ; CAIKrrr::SelectTarget
  00376	85 c0		 test	 eax, eax
  00378	74 3a		 je	 SHORT $LN31@MoveProces
  0037a	0f 57 db	 xorps	 xmm3, xmm3
$LN26@MoveProces:

; 438  : 					return FALSE;
; 439  : 			}
; 440  : 
; 441  : 			D3DXVECTOR3	vTarget;
; 442  : 			FLOAT	fDistSq = 0;					// 공격지점과 this의 거리.
; 443  : 			CMover *pTarget = NULL;
; 444  : 			if( m_idTarget != NULL_ID )		// 타겟오브젝이 있을때

  0037d	8b 47 70	 mov	 eax, DWORD PTR [edi+112]
  00380	83 f8 ff	 cmp	 eax, -1
  00383	74 42		 je	 SHORT $LN27@MoveProces

; 445  : 			{
; 446  : 				pTarget = prj.GetMover( m_idTarget );

  00385	50		 push	 eax
  00386	b9 00 00 00 00	 mov	 ecx, OFFSET ?prj@@3VCProject@@A ; prj
  0038b	e8 00 00 00 00	 call	 ?GetMover@CProject@@QAEPAVCMover@@K@Z ; CProject::GetMover
; File C:\IAGOS\server\v18\Source\Source\_Common\Obj.h

; 327  : 	return pObj && ( pObj->IsDelete() == FALSE ); 

  00390	85 c0		 test	 eax, eax
  00392	74 19		 je	 SHORT $LN29@MoveProces

; 180  : 	BOOL			IsDelete()	{ return (m_dwFlags & OBJ_FLAG_DELETE);  }

  00394	f6 40 04 01	 test	 BYTE PTR [eax+4], 1

; 327  : 	return pObj && ( pObj->IsDelete() == FALSE ); 

  00398	75 13		 jne	 SHORT $LN29@MoveProces
; File C:\IAGOS\server\v18\Source\Source\_AIInterface\AIKrrr.cpp

; 448  : 					vTarget = pTarget->GetPos();		// 공격좌표는 타겟무버의 좌표

  0039a	f3 0f 7e 80 60
	01 00 00	 movq	 xmm0, QWORD PTR [eax+352]
  003a2	0f 57 db	 xorps	 xmm3, xmm3
  003a5	8b 80 68 01 00
	00		 mov	 eax, DWORD PTR [eax+360]

; 452  : 					return FALSE;		// 타겟이 거시기 하면 걍리턴.
; 453  : 				}
; 454  : 			} else

  003ab	eb 4c		 jmp	 SHORT $LN153@MoveProces
$LN29@MoveProces:

; 449  : 				else
; 450  : 				{
; 451  : 					m_idTarget = NULL_ID;

  003ad	c7 47 70 ff ff
	ff ff		 mov	 DWORD PTR [edi+112], -1
$LN31@MoveProces:
  003b4	5f		 pop	 edi

; 526  : }

  003b5	5e		 pop	 esi
  003b6	33 c0		 xor	 eax, eax
  003b8	5b		 pop	 ebx
  003b9	8b 4d fc	 mov	 ecx, DWORD PTR __$ArrayPad$[ebp]
  003bc	33 cd		 xor	 ecx, ebp
  003be	e8 00 00 00 00	 call	 @__security_check_cookie@4
  003c3	8b e5		 mov	 esp, ebp
  003c5	5d		 pop	 ebp
  003c6	c3		 ret	 0
$LN27@MoveProces:

; 455  : 			if( m_vTarget.x && m_vTarget.y && m_vTarget.z )		// 공격 좌표로 설정되어 있을때.

  003c7	f3 0f 10 47 74	 movss	 xmm0, DWORD PTR [edi+116]
  003cc	0f 2e c3	 ucomiss xmm0, xmm3
  003cf	9f		 lahf
  003d0	f6 c4 44	 test	 ah, 68			; 00000044H
  003d3	7b df		 jnp	 SHORT $LN31@MoveProces
  003d5	f3 0f 10 47 78	 movss	 xmm0, DWORD PTR [edi+120]
  003da	0f 2e c3	 ucomiss xmm0, xmm3
  003dd	9f		 lahf
  003de	f6 c4 44	 test	 ah, 68			; 00000044H
  003e1	7b d1		 jnp	 SHORT $LN31@MoveProces
  003e3	f3 0f 10 47 7c	 movss	 xmm0, DWORD PTR [edi+124]
  003e8	0f 2e c3	 ucomiss xmm0, xmm3
  003eb	9f		 lahf
  003ec	f6 c4 44	 test	 ah, 68			; 00000044H
  003ef	7b c3		 jnp	 SHORT $LN31@MoveProces

; 456  : 			{
; 457  : 				vTarget = m_vTarget;

  003f1	f3 0f 7e 47 74	 movq	 xmm0, QWORD PTR [edi+116]
  003f6	8b 47 7c	 mov	 eax, DWORD PTR [edi+124]
$LN153@MoveProces:
; File C:\IAGOS\server\v18\Source\Source\_Common\Obj.h

; 215  : 	D3DXVECTOR3		GetPos()	{ return m_vPos; }

  003f9	66 0f d6 45 f0	 movq	 QWORD PTR _vTarget$4[ebp], xmm0
  003fe	f3 0f 7e 83 60
	01 00 00	 movq	 xmm0, QWORD PTR [ebx+352]
; File C:\IAGOS\server\v18\Source\Source\DX_SDK\d3dx9math.inl

; 383  :     return D3DXVECTOR3(x - v.x, y - v.y, z - v.z);

  00406	f3 0f 10 4d f0	 movss	 xmm1, DWORD PTR _vTarget$4[ebp]
  0040b	f3 0f 10 55 f4	 movss	 xmm2, DWORD PTR _vTarget$4[ebp+4]
; File C:\IAGOS\server\v18\Source\Source\_Common\Obj.h

; 215  : 	D3DXVECTOR3		GetPos()	{ return m_vPos; }

  00410	66 0f d6 45 dc	 movq	 QWORD PTR $T1[ebp], xmm0
; File C:\IAGOS\server\v18\Source\Source\DX_SDK\d3dx9math.inl

; 383  :     return D3DXVECTOR3(x - v.x, y - v.y, z - v.z);

  00415	f3 0f 5c 55 e0	 subss	 xmm2, DWORD PTR $T1[ebp+4]
  0041a	f3 0f 5c 4d dc	 subss	 xmm1, DWORD PTR $T1[ebp]
; File C:\IAGOS\server\v18\Source\Source\_Common\Obj.h

; 215  : 	D3DXVECTOR3		GetPos()	{ return m_vPos; }

  0041f	89 45 f8	 mov	 DWORD PTR _vTarget$4[ebp+8], eax
; File C:\IAGOS\server\v18\Source\Source\DX_SDK\d3dx9math.inl

; 383  :     return D3DXVECTOR3(x - v.x, y - v.y, z - v.z);

  00422	f3 0f 10 45 f8	 movss	 xmm0, DWORD PTR _vTarget$4[ebp+8]
; File C:\IAGOS\server\v18\Source\Source\_Common\Obj.h

; 215  : 	D3DXVECTOR3		GetPos()	{ return m_vPos; }

  00427	8b 83 68 01 00
	00		 mov	 eax, DWORD PTR [ebx+360]
  0042d	89 45 e4	 mov	 DWORD PTR $T1[ebp+8], eax
; File C:\IAGOS\server\v18\Source\Source\DX_SDK\d3dx9math.inl

; 383  :     return D3DXVECTOR3(x - v.x, y - v.y, z - v.z);

  00430	f3 0f 5c 45 e4	 subss	 xmm0, DWORD PTR $T1[ebp+8]
; File C:\IAGOS\server\v18\Source\Source\_AIInterface\AIKrrr.cpp

; 466  : 			FLOAT fArrivalRange = fRadius;			// 얼마나 근접해야하는가? 디폴트로 반지름 길이.

  00435	f3 0f 59 d2	 mulss	 xmm2, xmm2
; File C:\IAGOS\server\v18\Source\Source\DX_SDK\d3dx9math.inl

; 1698 :     return pV->x * pV->x + pV->y * pV->y + pV->z * pV->z;

  00439	f3 0f 59 c9	 mulss	 xmm1, xmm1
  0043d	f3 0f 59 c0	 mulss	 xmm0, xmm0
  00441	f3 0f 58 d1	 addss	 xmm2, xmm1
  00445	f3 0f 58 d0	 addss	 xmm2, xmm0
; File C:\IAGOS\server\v18\Source\Source\_AIInterface\AIKrrr.cpp

; 468  : 			if( fDistSq < fRadiusSq * 32.0f )		// 근거리면.

  00449	f3 0f 10 45 e8	 movss	 xmm0, DWORD PTR _fRadiusSq$1$[ebp]
  0044e	f3 0f 59 05 00
	00 00 00	 mulss	 xmm0, DWORD PTR __real@42000000
  00456	0f 2f c2	 comiss	 xmm0, xmm2
  00459	76 60		 jbe	 SHORT $LN33@MoveProces
; File C:\IAGOS\server\v18\Source\Source\_Common\xUtil.h

; 16   : 	g_next = g_next * 1103515245 + 12345;// + nRandomSeed[ i++ ];

  0045b	69 0d 00 00 00
	00 6d 4e c6 41	 imul	 ecx, DWORD PTR ?g_next@@3KA, 1103515245 ; g_next

; 22   : 	return  xRand() % num;

  00465	b8 1f 85 eb 51	 mov	 eax, 1374389535		; 51eb851fH

; 16   : 	g_next = g_next * 1103515245 + 12345;// + nRandomSeed[ i++ ];

  0046a	81 c1 39 30 00
	00		 add	 ecx, 12345		; 00003039H

; 22   : 	return  xRand() % num;

  00470	f7 e1		 mul	 ecx

; 16   : 	g_next = g_next * 1103515245 + 12345;// + nRandomSeed[ i++ ];

  00472	89 0d 00 00 00
	00		 mov	 DWORD PTR ?g_next@@3KA, ecx ; g_next

; 22   : 	return  xRand() % num;

  00478	c1 ea 05	 shr	 edx, 5
  0047b	6b c2 64	 imul	 eax, edx, 100
  0047e	2b c8		 sub	 ecx, eax
; File C:\IAGOS\server\v18\Source\Source\_AIInterface\AIKrrr.cpp

; 472  : 				if( dwNum <= 9 )

  00480	83 f9 09	 cmp	 ecx, 9
  00483	76 36		 jbe	 SHORT $LN33@MoveProces

; 473  : 				{
; 474  : 					m_nAttackType = CAT_SUMMONS;	// 두손으로 내려치기 - 스턴
; 475  : 					fArrivalRange = 0.0f;			// 반지름 길이만큼 접근하자.
; 476  : 				}
; 477  : 				else
; 478  : 				if( dwNum <= 30 )

  00485	83 f9 1e	 cmp	 ecx, 30			; 0000001eH
  00488	77 16		 ja	 SHORT $LN37@MoveProces

; 479  : 				{
; 480  : 					m_nAttackType = CAT_DOUBLE_CRASH;	// 두손으로 내려치기 - 스턴
; 481  : 					fArrivalRange = 10.0f;			// 반지름 길이만큼 접근하자.

  0048a	f3 0f 10 05 00
	00 00 00	 movss	 xmm0, DWORD PTR __real@41200000
  00492	c7 47 5c 02 00
	00 00		 mov	 DWORD PTR [edi+92], 2
  00499	f3 0f 11 45 ec	 movss	 DWORD PTR _fArrivalRange$1$[ebp], xmm0

; 482  : 				}

  0049e	eb 27		 jmp	 SHORT $LN34@MoveProces
$LN37@MoveProces:

; 483  : 				else
; 484  : 				if( dwNum <= 100 )

  004a0	83 f9 64	 cmp	 ecx, 100		; 00000064H
  004a3	77 22		 ja	 SHORT $LN34@MoveProces

; 485  : 				{
; 486  : 					m_nAttackType = CAT_NORMAL;		// 앞발로 밟기.
; 487  : 					fArrivalRange = 7.0f;				// 딱붙어서 밟아야 한다.

  004a5	f3 0f 10 05 00
	00 00 00	 movss	 xmm0, DWORD PTR __real@40e00000
  004ad	c7 47 5c 01 00
	00 00		 mov	 DWORD PTR [edi+92], 1
  004b4	f3 0f 11 45 ec	 movss	 DWORD PTR _fArrivalRange$1$[ebp], xmm0

; 488  : 				}
; 489  : 			} 

  004b9	eb 0c		 jmp	 SHORT $LN34@MoveProces
$LN33@MoveProces:

; 490  : 			else
; 491  : 			{
; 492  : 				m_nAttackType = CAT_SUMMONS;		// 엄청 멀리 떨어져있는넘은 소환.
; 493  : 				fArrivalRange = 0.0f;
; 494  : 				// 엄청 멀리 떨어져있는넘은 포기.
; 495  : //				m_idTarget = NULL_ID;
; 496  : //				return FALSE;
; 497  : 			}
; 498  : 						
; 499  : 			m_tmTrace = timeGetTime();		// 추적 시작한 시간.

  004bb	f3 0f 11 5d ec	 movss	 DWORD PTR _fArrivalRange$1$[ebp], xmm3
  004c0	c7 47 5c 03 00
	00 00		 mov	 DWORD PTR [edi+92], 3
$LN34@MoveProces:
  004c7	ff 15 00 00 00
	00		 call	 DWORD PTR __imp__timeGetTime@0

; 500  : 			m_nEvent = EPT_TRACKING;		// 공격추격상태 전환.
; 501  : 			pMover->CMD_SetMeleeAttack( m_idTarget, fArrivalRange );		// 공격반경은 this의 반지름 크기정도가 적당하다.

  004cd	f3 0f 10 45 ec	 movss	 xmm0, DWORD PTR _fArrivalRange$1$[ebp]
  004d2	51		 push	 ecx
  004d3	f3 0f 11 04 24	 movss	 DWORD PTR [esp], xmm0
  004d8	8b cb		 mov	 ecx, ebx
  004da	ff 77 70	 push	 DWORD PTR [edi+112]
  004dd	89 47 68	 mov	 DWORD PTR [edi+104], eax
  004e0	c7 47 58 04 00
	00 00		 mov	 DWORD PTR [edi+88], 4
  004e7	e8 00 00 00 00	 call	 ?CMD_SetMeleeAttack@CMover@@QAEXKM@Z ; CMover::CMD_SetMeleeAttack
$LN23@MoveProces:

; 526  : }

  004ec	8b 4d fc	 mov	 ecx, DWORD PTR __$ArrayPad$[ebp]
  004ef	b8 01 00 00 00	 mov	 eax, 1
  004f4	5f		 pop	 edi
  004f5	5e		 pop	 esi
  004f6	33 cd		 xor	 ecx, ebp
  004f8	5b		 pop	 ebx
  004f9	e8 00 00 00 00	 call	 @__security_check_cookie@4
  004fe	8b e5		 mov	 esp, ebp
  00500	5d		 pop	 ebp
  00501	c3		 ret	 0
?MoveProcessRage@CAIKrrr@@AAEHXZ ENDP			; CAIKrrr::MoveProcessRage
_TEXT	ENDS
; Function compile flags: /Ogtp
; File C:\IAGOS\server\v18\Source\Source\_AIInterface\AIKrrr.cpp
;	COMDAT ?MoveProcessIdle@CAIKrrr@@AAEHXZ
_TEXT	SEGMENT
?MoveProcessIdle@CAIKrrr@@AAEHXZ PROC			; CAIKrrr::MoveProcessIdle, COMDAT
; _this$ = ecx

; 109  : #ifdef __MOVER_STATE_EFFECT
; 110  : 	CMover* pMover = GetMover();
; 111  : 
; 112  : 	if( IsInvalidObj( pMover ) == TRUE && pMover->m_pActMover->IsStateFlag( OBJSTAF_COMBAT ) == TRUE )
; 113  : 	{
; 114  : 		if( pMover->m_pActMover->SendActMsg( OBJMSG_MODE_PEACE ) == TRUE )
; 115  : 		{
; 116  : 			g_UserMng.AddSendActMsg( pMover, OBJMSG_MODE_PEACE );
; 117  : 		}
; 118  : 	}
; 119  : #endif // __MOVER_STATE_EFFECT
; 120  : 
; 121  : 	return TRUE;

  00000	b8 01 00 00 00	 mov	 eax, 1

; 122  : }

  00005	c3		 ret	 0
?MoveProcessIdle@CAIKrrr@@AAEHXZ ENDP			; CAIKrrr::MoveProcessIdle
_TEXT	ENDS
; Function compile flags: /Ogtp
; File C:\IAGOS\server\v18\Source\Source\_AIInterface\AIInterface.h
;	COMDAT ?IsReturnToBegin@CAIInterface@@UAEHXZ
_TEXT	SEGMENT
?IsReturnToBegin@CAIInterface@@UAEHXZ PROC		; CAIInterface::IsReturnToBegin, COMDAT
; _this$ = ecx

; 121  : 	virtual		BOOL	IsReturnToBegin( void )		{	return FALSE;	}

  00000	33 c0		 xor	 eax, eax
  00002	c3		 ret	 0
?IsReturnToBegin@CAIInterface@@UAEHXZ ENDP		; CAIInterface::IsReturnToBegin
_TEXT	ENDS
; Function compile flags: /Ogtp
; File C:\IAGOS\server\v18\Source\Source\_Common\Project.h
; File C:\IAGOS\server\v18\Source\Source\_Common\data.h
; File C:\IAGOS\server\v18\Source\Source\_Common\Project.h
;	COMDAT ?GetText@CProject@@QAEPBDK@Z
_TEXT	SEGMENT
_dwIndex$ = 8						; size = 4
?GetText@CProject@@QAEPBDK@Z PROC			; CProject::GetText, COMDAT
; _this$ = ecx

; 1426 : { 

  00000	55		 push	 ebp
  00001	8b ec		 mov	 ebp, esp

; 1427 : 	VERIFY_RANGE( (int)( dwIndex ), 0, m_colorText.GetSize(), "GetText range_error", "error" );

  00003	8b 55 08	 mov	 edx, DWORD PTR _dwIndex$[ebp]
  00006	56		 push	 esi
  00007	85 d2		 test	 edx, edx
  00009	78 29		 js	 SHORT $LN19@GetText
  0000b	3b 91 ac 02 00
	00		 cmp	 edx, DWORD PTR [ecx+684]
  00011	7d 21		 jge	 SHORT $LN19@GetText
; File C:\IAGOS\server\v18\Source\Source\_Common\data.h

; 270  : 	if( dwIndex >= (DWORD)m_nMaxIndex )

  00013	73 15		 jae	 SHORT $LN18@GetText

; 271  : 		return NULL;
; 272  : 	return (T*) m_apOffset[ dwIndex ];

  00015	8b 81 9c 02 00
	00		 mov	 eax, DWORD PTR [ecx+668]
  0001b	8b 04 90	 mov	 eax, DWORD PTR [eax+edx*4]
; File C:\IAGOS\server\v18\Source\Source\_Common\Project.h

; 1428 : 	if( m_colorText.GetAt( dwIndex ) == NULL )

  0001e	85 c0		 test	 eax, eax
  00020	74 08		 je	 SHORT $LN18@GetText

; 1430 : 	return m_colorText.GetAt( dwIndex )->lpszData; 

  00022	8b 40 04	 mov	 eax, DWORD PTR [eax+4]
  00025	5e		 pop	 esi

; 1431 : }

  00026	5d		 pop	 ebp
  00027	c2 04 00	 ret	 4
$LN18@GetText:

; 1429 : 		return "";

  0002a	b8 00 00 00 00	 mov	 eax, OFFSET ??_C@_00CNPNBAHC@@
  0002f	5e		 pop	 esi

; 1431 : }

  00030	5d		 pop	 ebp
  00031	c2 04 00	 ret	 4
$LN19@GetText:

; 579  : 	LPCTSTR szErr = Error( _T( "%s min:%d, max:%d, index:%d" ), szMsg, nMin, nMax, nIndex ); 

  00034	52		 push	 edx
  00035	ff b1 ac 02 00
	00		 push	 DWORD PTR [ecx+684]
  0003b	6a 00		 push	 0
  0003d	68 00 00 00 00	 push	 OFFSET ??_C@_0BE@OHDBLHOM@GetText?5range_error@
  00042	68 00 00 00 00	 push	 OFFSET ??_C@_0BM@HMFGHCP@?$CFs?5min?3?$CFd?0?5max?3?$CFd?0?5index?3?$CFd@
  00047	e8 00 00 00 00	 call	 ?Error@@YAPBDPBDZZ	; Error
  0004c	83 c4 14	 add	 esp, 20			; 00000014H

; 1427 : 	VERIFY_RANGE( (int)( dwIndex ), 0, m_colorText.GetSize(), "GetText range_error", "error" );

  0004f	b8 00 00 00 00	 mov	 eax, OFFSET ??_C@_05KKCIMGE@error@
  00054	5e		 pop	 esi

; 1431 : }

  00055	5d		 pop	 ebp
  00056	c2 04 00	 ret	 4
?GetText@CProject@@QAEPBDK@Z ENDP			; CProject::GetText
_TEXT	ENDS
; Function compile flags: /Ogtp
; File C:\IAGOS\server\v18\Source\Source\DX_SDK\d3dx9math.h
;	COMDAT ??0D3DXVECTOR3@@QAE@XZ
_TEXT	SEGMENT
??0D3DXVECTOR3@@QAE@XZ PROC				; D3DXVECTOR3::D3DXVECTOR3, COMDAT
; _this$ = ecx

; 165  :     D3DXVECTOR3() {};

  00000	8b c1		 mov	 eax, ecx
  00002	c3		 ret	 0
??0D3DXVECTOR3@@QAE@XZ ENDP				; D3DXVECTOR3::D3DXVECTOR3
_TEXT	ENDS
; Function compile flags: /Ogtp
; File C:\Program Files (x86)\Windows Kits\10\Include\10.0.26100.0\ucrt\stdio.h
;	COMDAT _sprintf
_TEXT	SEGMENT
__Buffer$ = 8						; size = 4
__Format$ = 12						; size = 4
_sprintf PROC						; COMDAT

; 1771 :     {

  00000	55		 push	 ebp
  00001	8b ec		 mov	 ebp, esp

; 1392 :         int const _Result = __stdio_common_vsprintf(

  00003	8d 45 10	 lea	 eax, DWORD PTR __Format$[ebp+4]
  00006	50		 push	 eax
  00007	6a 00		 push	 0
  00009	ff 75 0c	 push	 DWORD PTR __Format$[ebp]
  0000c	6a ff		 push	 -1
  0000e	ff 75 08	 push	 DWORD PTR __Buffer$[ebp]
  00011	e8 00 00 00 00	 call	 ___local_stdio_printf_options
  00016	8b 08		 mov	 ecx, DWORD PTR [eax]
  00018	ff 70 04	 push	 DWORD PTR [eax+4]
  0001b	83 c9 01	 or	 ecx, 1
  0001e	51		 push	 ecx
  0001f	e8 00 00 00 00	 call	 ___stdio_common_vsprintf

; 1393 :             _CRT_INTERNAL_LOCAL_PRINTF_OPTIONS | _CRT_INTERNAL_PRINTF_LEGACY_VSPRINTF_NULL_TERMINATION,
; 1394 :             _Buffer, _BufferCount, _Format, _Locale, _ArgList);
; 1395 : 
; 1396 :         return _Result < 0 ? -1 : _Result;

  00024	83 c9 ff	 or	 ecx, -1
  00027	83 c4 1c	 add	 esp, 28			; 0000001cH
  0002a	85 c0		 test	 eax, eax
  0002c	0f 48 c1	 cmovs	 eax, ecx

; 1772 :         int _Result;
; 1773 :         va_list _ArgList;
; 1774 :         __crt_va_start(_ArgList, _Format);
; 1775 : 
; 1776 :         _Result = _vsprintf_l(_Buffer, _Format, NULL, _ArgList);
; 1777 : 
; 1778 :         __crt_va_end(_ArgList);
; 1779 :         return _Result;
; 1780 :     }

  0002f	5d		 pop	 ebp
  00030	c3		 ret	 0
_sprintf ENDP
_TEXT	ENDS
; Function compile flags: /Ogtp
; File C:\Program Files (x86)\Windows Kits\10\Include\10.0.26100.0\ucrt\corecrt_stdio_config.h
;	COMDAT ___local_stdio_printf_options
_TEXT	SEGMENT
___local_stdio_printf_options PROC			; COMDAT

; 91   :         static unsigned __int64 _OptionsStorage;
; 92   :         return &_OptionsStorage;

  00000	b8 00 00 00 00	 mov	 eax, OFFSET ?_OptionsStorage@?1??__local_stdio_printf_options@@9@4_KA ; `__local_stdio_printf_options'::`2'::_OptionsStorage

; 93   :     }

  00005	c3		 ret	 0
___local_stdio_printf_options ENDP
_TEXT	ENDS
; Function compile flags: /Ogtp
; File C:\IAGOS\server\v18\Source\Source\_AIInterface\AIKrrr.cpp
;	COMDAT ?__empty_global_delete@@YAXPAXI@Z
_TEXT	SEGMENT
___formal$ = 8						; size = 4
___formal$ = 12						; size = 4
?__empty_global_delete@@YAXPAXI@Z PROC			; __empty_global_delete, COMDAT

  00000	c2 00 00	 ret	 0
?__empty_global_delete@@YAXPAXI@Z ENDP			; __empty_global_delete
_TEXT	ENDS
; Function compile flags: /Ogtp
; File C:\IAGOS\server\v18\Source\Source\_AIInterface\AIKrrr.cpp
;	COMDAT ?__empty_global_delete@@YAXPAX@Z
_TEXT	SEGMENT
___formal$ = 8						; size = 4
?__empty_global_delete@@YAXPAX@Z PROC			; __empty_global_delete, COMDAT

  00000	c2 00 00	 ret	 0
?__empty_global_delete@@YAXPAX@Z ENDP			; __empty_global_delete
_TEXT	ENDS
END
