; Listing generated by Microsoft (R) Optimizing Compiler Version 19.44.35225.0 

	TITLE	C:\IAGOS\server\v18\Source\Output\WorldServer\Release\aimeteonyker.obj
	.686P
	.XMM
	include listing.inc
	.model	flat

INCLUDELIB LIBCMT
INCLUDELIB OLDNAMES

PUBLIC	?stateMap@CAIMeteonyker@@2USTATEMAP@@B		; CAIMeteonyker::stateMap
EXTRN	?stateMap@CAIInterface@@2USTATEMAP@@B:QWORD	; CAIInterface::stateMap
CONST	SEGMENT
?stateMap@CAIMeteonyker@@2USTATEMAP@@B DD FLAT:?stateMap@CAIInterface@@2USTATEMAP@@B ; CAIMeteonyker::stateMap
	DD	FLAT:?stateMapEntries@CAIMeteonyker@@2QBUSTATEMAP_ENTRIES@@B
?piecewise_construct@std@@3Upiecewise_construct_t@1@B	ORG $+1 ; std::piecewise_construct
CONST	ENDS
PUBLIC	?__empty_global_delete@@YAXPAX@Z		; __empty_global_delete
PUBLIC	?__empty_global_delete@@YAXPAXI@Z		; __empty_global_delete
PUBLIC	___local_stdio_printf_options
PUBLIC	_sprintf
PUBLIC	??0exception@std@@QAE@ABV01@@Z			; std::exception::exception
PUBLIC	??1exception@std@@UAE@XZ			; std::exception::~exception
PUBLIC	?what@exception@std@@UBEPBDXZ			; std::exception::what
PUBLIC	??_Gexception@std@@UAEPAXI@Z			; std::exception::`scalar deleting destructor'
PUBLIC	??0bad_alloc@std@@QAE@ABV01@@Z			; std::bad_alloc::bad_alloc
PUBLIC	??_Gbad_alloc@std@@UAEPAXI@Z			; std::bad_alloc::`scalar deleting destructor'
PUBLIC	??0bad_array_new_length@std@@QAE@XZ		; std::bad_array_new_length::bad_array_new_length
PUBLIC	??1bad_array_new_length@std@@UAE@XZ		; std::bad_array_new_length::~bad_array_new_length
PUBLIC	??0bad_array_new_length@std@@QAE@ABV01@@Z	; std::bad_array_new_length::bad_array_new_length
PUBLIC	??_Gbad_array_new_length@std@@UAEPAXI@Z		; std::bad_array_new_length::`scalar deleting destructor'
PUBLIC	?_Throw_bad_array_new_length@std@@YAXXZ		; std::_Throw_bad_array_new_length
PUBLIC	?_Throw_tree_length_error@std@@YAXXZ		; std::_Throw_tree_length_error
PUBLIC	??0D3DXVECTOR3@@QAE@XZ				; D3DXVECTOR3::D3DXVECTOR3
PUBLIC	??1?$_Tree@V?$_Tmap_traits@KHU?$less@K@std@@V?$allocator@U?$pair@$$CBKH@std@@@2@$0A@@std@@@std@@QAE@XZ ; std::_Tree<std::_Tmap_traits<unsigned long,int,std::less<unsigned long>,std::allocator<std::pair<unsigned long const ,int> >,0> >::~_Tree<std::_Tmap_traits<unsigned long,int,std::less<unsigned long>,std::allocator<std::pair<unsigned long const ,int> >,0> >
PUBLIC	?clear@?$_Tree@V?$_Tmap_traits@KHU?$less@K@std@@V?$allocator@U?$pair@$$CBKH@std@@@2@$0A@@std@@@std@@QAEXXZ ; std::_Tree<std::_Tmap_traits<unsigned long,int,std::less<unsigned long>,std::allocator<std::pair<unsigned long const ,int> >,0> >::clear
PUBLIC	?_Insert_node@?$_Tree_val@U?$_Tree_simple_types@U?$pair@$$CBKH@std@@@std@@@std@@QAEPAU?$_Tree_node@U?$pair@$$CBKH@std@@PAX@2@U?$_Tree_id@PAU?$_Tree_node@U?$pair@$$CBKH@std@@PAX@std@@@2@QAU32@@Z ; std::_Tree_val<std::_Tree_simple_types<std::pair<unsigned long const ,int> > >::_Insert_node
PUBLIC	??1?$map@KHU?$less@K@std@@V?$allocator@U?$pair@$$CBKH@std@@@2@@std@@QAE@XZ ; std::map<unsigned long,int,std::less<unsigned long>,std::allocator<std::pair<unsigned long const ,int> > >::~map<unsigned long,int,std::less<unsigned long>,std::allocator<std::pair<unsigned long const ,int> > >
PUBLIC	?GetPropA@CMover@@QAEPAUMoverProp@@XZ		; CMover::GetPropA
PUBLIC	??$_Erase_tree@V?$allocator@U?$_Tree_node@U?$pair@$$CBKH@std@@PAX@std@@@std@@@?$_Tree_val@U?$_Tree_simple_types@U?$pair@$$CBKH@std@@@std@@@std@@QAEXAAV?$allocator@U?$_Tree_node@U?$pair@$$CBKH@std@@PAX@std@@@1@PAU?$_Tree_node@U?$pair@$$CBKH@std@@PAX@1@@Z ; std::_Tree_val<std::_Tree_simple_types<std::pair<unsigned long const ,int> > >::_Erase_tree<std::allocator<std::_Tree_node<std::pair<unsigned long const ,int>,void *> > >
PUBLIC	??$_Allocate_manually_vector_aligned@U_Default_allocate_traits@std@@@std@@YAPAXI@Z ; std::_Allocate_manually_vector_aligned<std::_Default_allocate_traits>
PUBLIC	?AddDamage@CAIMeteonyker@@AAEXKH@Z		; CAIMeteonyker::AddDamage
PUBLIC	?ResetDamage@CAIMeteonyker@@AAEXXZ		; CAIMeteonyker::ResetDamage
PUBLIC	?GetDealer@CAIMeteonyker@@AAEKXZ		; CAIMeteonyker::GetDealer
PUBLIC	?ProcessRetaliation@CAIMeteonyker@@AAEHXZ	; CAIMeteonyker::ProcessRetaliation
PUBLIC	?ProcessSummon@CAIMeteonyker@@AAEHH@Z		; CAIMeteonyker::ProcessSummon
PUBLIC	?ProcessBurn@CAIMeteonyker@@AAEHH@Z		; CAIMeteonyker::ProcessBurn
PUBLIC	?ProcessSPAttack@CAIMeteonyker@@AAEHXZ		; CAIMeteonyker::ProcessSPAttack
PUBLIC	?ProcessRecovery@CAIMeteonyker@@AAEXXZ		; CAIMeteonyker::ProcessRecovery
PUBLIC	?SelectTarget@CAIMeteonyker@@AAEHXZ		; CAIMeteonyker::SelectTarget
PUBLIC	?Init@CAIMeteonyker@@AAEXXZ			; CAIMeteonyker::Init
PUBLIC	?Destroy@CAIMeteonyker@@AAEXXZ			; CAIMeteonyker::Destroy
PUBLIC	?MoveProcessIdle@CAIMeteonyker@@AAEHXZ		; CAIMeteonyker::MoveProcessIdle
PUBLIC	?MoveProcessRage@CAIMeteonyker@@AAEHXZ		; CAIMeteonyker::MoveProcessRage
PUBLIC	?StateInit@CAIMeteonyker@@AAEHABUAIMSG@@@Z	; CAIMeteonyker::StateInit
PUBLIC	?StateIdle@CAIMeteonyker@@AAEHABUAIMSG@@@Z	; CAIMeteonyker::StateIdle
PUBLIC	?StateRage@CAIMeteonyker@@AAEHABUAIMSG@@@Z	; CAIMeteonyker::StateRage
PUBLIC	?SetStop@CAIMeteonyker@@AAEXK@Z			; CAIMeteonyker::SetStop
PUBLIC	?IsEndStop@CAIMeteonyker@@AAEHXZ		; CAIMeteonyker::IsEndStop
PUBLIC	?MoveToDst@CAIMeteonyker@@AAEXABUD3DXVECTOR3@@@Z ; CAIMeteonyker::MoveToDst
PUBLIC	?MoveToDst@CAIMeteonyker@@AAEXK@Z		; CAIMeteonyker::MoveToDst
PUBLIC	?MoveToRandom@CAIMeteonyker@@AAEXI@Z		; CAIMeteonyker::MoveToRandom
PUBLIC	?IsInRange@CAIMeteonyker@@AAEHABUD3DXVECTOR3@@M@Z ; CAIMeteonyker::IsInRange
PUBLIC	?DoReturnToBegin@CAIMeteonyker@@AAEXH@Z		; CAIMeteonyker::DoReturnToBegin
PUBLIC	?GetTarget@CAIMeteonyker@@AAEPAVCMover@@K@Z	; CAIMeteonyker::GetTarget
PUBLIC	??0CAIMeteonyker@@QAE@XZ			; CAIMeteonyker::CAIMeteonyker
PUBLIC	??0CAIMeteonyker@@QAE@PAVCObj@@@Z		; CAIMeteonyker::CAIMeteonyker
PUBLIC	??1CAIMeteonyker@@UAE@XZ			; CAIMeteonyker::~CAIMeteonyker
PUBLIC	?InitAI@CAIMeteonyker@@UAEXXZ			; CAIMeteonyker::InitAI
PUBLIC	?IsReturnToBegin@CAIMeteonyker@@UAEHXZ		; CAIMeteonyker::IsReturnToBegin
PUBLIC	?SetTarget@CAIMeteonyker@@QAEXKK@Z		; CAIMeteonyker::SetTarget
PUBLIC	?GetStateMap@CAIMeteonyker@@UBEPBUSTATEMAP@@XZ	; CAIMeteonyker::GetStateMap
PUBLIC	??_GCAIMeteonyker@@UAEPAXI@Z			; CAIMeteonyker::`scalar deleting destructor'
PUBLIC	??$_Find_lower_bound@K@?$_Tree@V?$_Tmap_traits@KHU?$less@K@std@@V?$allocator@U?$pair@$$CBKH@std@@@2@$0A@@std@@@std@@IBE?AU?$_Tree_find_result@PAU?$_Tree_node@U?$pair@$$CBKH@std@@PAX@std@@@1@ABK@Z ; std::_Tree<std::_Tmap_traits<unsigned long,int,std::less<unsigned long>,std::allocator<std::pair<unsigned long const ,int> >,0> >::_Find_lower_bound<unsigned long>
PUBLIC	??1?$_Alloc_construct_ptr@V?$allocator@U?$_Tree_node@U?$pair@$$CBKH@std@@PAX@std@@@std@@@std@@QAE@XZ ; std::_Alloc_construct_ptr<std::allocator<std::_Tree_node<std::pair<unsigned long const ,int>,void *> > >::~_Alloc_construct_ptr<std::allocator<std::_Tree_node<std::pair<unsigned long const ,int>,void *> > >
PUBLIC	?_OptionsStorage@?1??__local_stdio_printf_options@@9@4_KA ; `__local_stdio_printf_options'::`2'::_OptionsStorage
PUBLIC	??_C@_00CNPNBAHC@@				; `string'
PUBLIC	??_7exception@std@@6B@				; std::exception::`vftable'
PUBLIC	??_C@_0BC@EOODALEL@Unknown?5exception@		; `string'
PUBLIC	??_7bad_alloc@std@@6B@				; std::bad_alloc::`vftable'
PUBLIC	??_7bad_array_new_length@std@@6B@		; std::bad_array_new_length::`vftable'
PUBLIC	??_C@_0BF@KINCDENJ@bad?5array?5new?5length@	; `string'
PUBLIC	??_R0?AVexception@std@@@8			; std::exception `RTTI Type Descriptor'
PUBLIC	__CT??_R0?AVexception@std@@@8??0exception@std@@QAE@ABV01@@Z12
PUBLIC	__TI3?AVbad_array_new_length@std@@
PUBLIC	__CTA3?AVbad_array_new_length@std@@
PUBLIC	??_R0?AVbad_array_new_length@std@@@8		; std::bad_array_new_length `RTTI Type Descriptor'
PUBLIC	__CT??_R0?AVbad_array_new_length@std@@@8??0bad_array_new_length@std@@QAE@ABV01@@Z12
PUBLIC	??_R0?AVbad_alloc@std@@@8			; std::bad_alloc `RTTI Type Descriptor'
PUBLIC	__CT??_R0?AVbad_alloc@std@@@8??0bad_alloc@std@@QAE@ABV01@@Z12
PUBLIC	??_C@_0BB@GCADKGJO@map?1set?5too?5long@		; `string'
PUBLIC	??_C@_0BM@HMFGHCP@?$CFs?5min?3?$CFd?0?5max?3?$CFd?0?5index?3?$CFd@ ; `string'
PUBLIC	??_C@_0BJ@GKPOBPPI@GetMoverProp?5range_error@	; `string'
PUBLIC	??_C@_0BE@OHDBLHOM@GetText?5range_error@	; `string'
PUBLIC	??_C@_05KKCIMGE@error@				; `string'
PUBLIC	??_R4exception@std@@6B@				; std::exception::`RTTI Complete Object Locator'
PUBLIC	??_R3exception@std@@8				; std::exception::`RTTI Class Hierarchy Descriptor'
PUBLIC	??_R2exception@std@@8				; std::exception::`RTTI Base Class Array'
PUBLIC	??_R1A@?0A@EA@exception@std@@8			; std::exception::`RTTI Base Class Descriptor at (0,-1,0,64)'
PUBLIC	??_R4bad_array_new_length@std@@6B@		; std::bad_array_new_length::`RTTI Complete Object Locator'
PUBLIC	??_R3bad_array_new_length@std@@8		; std::bad_array_new_length::`RTTI Class Hierarchy Descriptor'
PUBLIC	??_R2bad_array_new_length@std@@8		; std::bad_array_new_length::`RTTI Base Class Array'
PUBLIC	??_R1A@?0A@EA@bad_array_new_length@std@@8	; std::bad_array_new_length::`RTTI Base Class Descriptor at (0,-1,0,64)'
PUBLIC	??_R1A@?0A@EA@bad_alloc@std@@8			; std::bad_alloc::`RTTI Base Class Descriptor at (0,-1,0,64)'
PUBLIC	??_R3bad_alloc@std@@8				; std::bad_alloc::`RTTI Class Hierarchy Descriptor'
PUBLIC	??_R2bad_alloc@std@@8				; std::bad_alloc::`RTTI Base Class Array'
PUBLIC	??_R4bad_alloc@std@@6B@				; std::bad_alloc::`RTTI Complete Object Locator'
PUBLIC	?stateMapEntries@CAIMeteonyker@@2QBUSTATEMAP_ENTRIES@@B ; CAIMeteonyker::stateMapEntries
PUBLIC	??_7CAIMeteonyker@@6B@				; CAIMeteonyker::`vftable'
PUBLIC	??_R4CAIMeteonyker@@6B@				; CAIMeteonyker::`RTTI Complete Object Locator'
PUBLIC	??_R0?AVCAIMeteonyker@@@8			; CAIMeteonyker `RTTI Type Descriptor'
PUBLIC	??_R3CAIMeteonyker@@8				; CAIMeteonyker::`RTTI Class Hierarchy Descriptor'
PUBLIC	??_R2CAIMeteonyker@@8				; CAIMeteonyker::`RTTI Base Class Array'
PUBLIC	??_R1A@?0A@EA@CAIMeteonyker@@8			; CAIMeteonyker::`RTTI Base Class Descriptor at (0,-1,0,64)'
PUBLIC	??_R1A@?0A@EA@CAIInterface@@8			; CAIInterface::`RTTI Base Class Descriptor at (0,-1,0,64)'
PUBLIC	??_R0?AVCAIInterface@@@8			; CAIInterface `RTTI Type Descriptor'
PUBLIC	??_R3CAIInterface@@8				; CAIInterface::`RTTI Class Hierarchy Descriptor'
PUBLIC	??_R2CAIInterface@@8				; CAIInterface::`RTTI Base Class Array'
PUBLIC	__real@3c23d70a
PUBLIC	__real@3c8efa35
PUBLIC	__real@401c000000000000
PUBLIC	__real@40e00000
PUBLIC	__real@41200000
PUBLIC	__real@43610000
EXTRN	??2@YAPAXI@Z:PROC				; operator new
EXTRN	??3@YAXPAXI@Z:PROC				; operator delete
EXTRN	__invoke_watson:PROC
EXTRN	___stdio_common_vsprintf:PROC
EXTRN	___std_exception_copy:PROC
EXTRN	___std_exception_destroy:PROC
EXTRN	??_Eexception@std@@UAEPAXI@Z:PROC		; std::exception::`vector deleting destructor'
EXTRN	??_Ebad_alloc@std@@UAEPAXI@Z:PROC		; std::bad_alloc::`vector deleting destructor'
EXTRN	??_Ebad_array_new_length@std@@UAEPAXI@Z:PROC	; std::bad_array_new_length::`vector deleting destructor'
EXTRN	?_Xlength_error@std@@YAXPBD@Z:PROC		; std::_Xlength_error
EXTRN	?xRandom@@YAKKK@Z:PROC				; xRandom
EXTRN	?Error@@YAPBDPBDZZ:PROC				; Error
EXTRN	?SetPos@CObj@@QAEXABUD3DXVECTOR3@@@Z:PROC	; CObj::SetPos
EXTRN	?GetRadiusXZ@CObj@@QAEMXZ:PROC			; CObj::GetRadiusXZ
EXTRN	?GetMover@CProject@@QAEPAVCMover@@K@Z:PROC	; CProject::GetMover
EXTRN	??0CAIInterface@@QAE@XZ:PROC			; CAIInterface::CAIInterface
EXTRN	??0CAIInterface@@QAE@PAVCObj@@@Z:PROC		; CAIInterface::CAIInterface
EXTRN	??1CAIInterface@@UAE@XZ:PROC			; CAIInterface::~CAIInterface
EXTRN	?RouteMessage@CAIInterface@@UAEXXZ:PROC		; CAIInterface::RouteMessage
EXTRN	?SendAIMsg@CAIInterface@@UAEXKKKK@Z:PROC	; CAIInterface::SendAIMsg
EXTRN	?PostAIMsg@CAIInterface@@UAEXKKKK@Z:PROC	; CAIInterface::PostAIMsg
EXTRN	?ScanTarget@CAIInterface@@IAEPAVCMover@@PAVCObj@@HHKKH@Z:PROC ; CAIInterface::ScanTarget
EXTRN	?ScanTargetStrong@CAIInterface@@IAEPAVCMover@@PAVCObj@@M@Z:PROC ; CAIInterface::ScanTargetStrong
EXTRN	?ScanTargetOverHealer@CAIInterface@@IAEPAVCMover@@PAVCObj@@M@Z:PROC ; CAIInterface::ScanTargetOverHealer
EXTRN	?ScanTargetNext@CAIInterface@@IAEPAVCMover@@PAVCObj@@HKK@Z:PROC ; CAIInterface::ScanTargetNext
EXTRN	?SetSpeedFactor@CMover@@QAEXM@Z:PROC		; CMover::SetSpeedFactor
EXTRN	?SetDestPos@CMover@@QAEXABUD3DXVECTOR3@@_NH@Z:PROC ; CMover::SetDestPos
EXTRN	?GetAdjParam@CMover@@QAEHH@Z:PROC		; CMover::GetAdjParam
EXTRN	?GetName@CMover@@QAEPBDH@Z:PROC			; CMover::GetName
EXTRN	?GetJob@CMover@@QAEHXZ:PROC			; CMover::GetJob
EXTRN	?IncHitPoint@CMover@@QAEXH@Z:PROC		; CMover::IncHitPoint
EXTRN	?GetSpeed@CMover@@QAEMM@Z:PROC			; CMover::GetSpeed
EXTRN	?GetHitPointPercent@CMover@@QAEHH@Z:PROC	; CMover::GetHitPointPercent
EXTRN	?GetHitPoint@CMover@@QAEHXZ:PROC		; CMover::GetHitPoint
EXTRN	?GetMaxHitPoint@CMover@@QAEHXZ:PROC		; CMover::GetMaxHitPoint
EXTRN	?CMD_SetMeleeAttack@CMover@@QAEXKM@Z:PROC	; CMover::CMD_SetMeleeAttack
EXTRN	?DoAttackMelee@CMover@@QAEHPAV1@W4OBJMSG@@K@Z:PROC ; CMover::DoAttackMelee
EXTRN	?SetMovePattern@CMover@@QAEXH@Z:PROC		; CMover::SetMovePattern
EXTRN	?SetDestObj@CMover@@QAEXKMH@Z:PROC		; CMover::SetDestObj
EXTRN	?Replace@CMover@@QAEHKKAAUD3DXVECTOR3@@W4REPLACE_TYPE@@H@Z:PROC ; CMover::Replace
EXTRN	?GetLinkWidth@CLayeredLinkMap@@QAEHKHH@Z:PROC	; CLayeredLinkMap::GetLinkWidth
EXTRN	?GetObj@CLayeredLinkMap@@QAEPAPAVCObj@@KKH@Z:PROC ; CLayeredLinkMap::GetObj
EXTRN	?GetMaxLinkLevel@CLayeredLinkMap@@QAEHKH@Z:PROC	; CLayeredLinkMap::GetMaxLinkLevel
EXTRN	?GetHeightAttribute@CWorld@@QAEHMM@Z:PROC	; CWorld::GetHeightAttribute
EXTRN	??_ECAIMeteonyker@@UAEPAXI@Z:PROC		; CAIMeteonyker::`vector deleting destructor'
EXTRN	?AddDlgEmoticon@CUserMng@@QAEXPAVCCtrl@@H@Z:PROC ; CUserMng::AddDlgEmoticon
EXTRN	?AddSetPos@CUserMng@@QAEXPAVCCtrl@@AAUD3DXVECTOR3@@@Z:PROC ; CUserMng::AddSetPos
EXTRN	?AddMoverSetDestObj@CUserMng@@QAEXPAVCMover@@KMH@Z:PROC ; CUserMng::AddMoverSetDestObj
EXTRN	?AddSetDestPos@CUserMng@@QAEXPAVCMover@@ABUD3DXVECTOR3@@E@Z:PROC ; CUserMng::AddSetDestPos
EXTRN	?SendCaption@CDPCoreClient@@QAEXPBDKH@Z:PROC	; CDPCoreClient::SendCaption
EXTRN	@__security_check_cookie@4:PROC
EXTRN	__CxxThrowException@8:PROC
EXTRN	___CxxFrameHandler3:PROC
EXTRN	__ftol3:PROC
EXTRN	__libm_sse2_cos_precise:PROC
EXTRN	__libm_sse2_sin_precise:PROC
EXTRN	_memset:PROC
EXTRN	??_7type_info@@6B@:QWORD			; type_info::`vftable'
EXTRN	?g_next@@3KA:DWORD				; g_next
EXTRN	?prj@@3VCProject@@A:BYTE			; prj
EXTRN	?g_tmCurrent@@3KA:DWORD				; g_tmCurrent
EXTRN	?g_uIdofMulti@@3KA:DWORD			; g_uIdofMulti
EXTRN	?g_UserMng@@3VCUserMng@@A:BYTE			; g_UserMng
EXTRN	?g_DPCoreClient@@3VCDPCoreClient@@A:BYTE	; g_DPCoreClient
EXTRN	___security_cookie:DWORD
EXTRN	__fltused:DWORD
;	COMDAT ?_OptionsStorage@?1??__local_stdio_printf_options@@9@4_KA
_BSS	SEGMENT
?_OptionsStorage@?1??__local_stdio_printf_options@@9@4_KA DQ 01H DUP (?) ; `__local_stdio_printf_options'::`2'::_OptionsStorage
_BSS	ENDS
;	COMDAT __real@43610000
CONST	SEGMENT
__real@43610000 DD 043610000r			; 225
CONST	ENDS
;	COMDAT __real@41200000
CONST	SEGMENT
__real@41200000 DD 041200000r			; 10
CONST	ENDS
;	COMDAT __real@40e00000
CONST	SEGMENT
__real@40e00000 DD 040e00000r			; 7
CONST	ENDS
;	COMDAT __real@401c000000000000
CONST	SEGMENT
__real@401c000000000000 DQ 0401c000000000000r	; 7
CONST	ENDS
;	COMDAT __real@3c8efa35
CONST	SEGMENT
__real@3c8efa35 DD 03c8efa35r			; 0.0174533
CONST	ENDS
;	COMDAT __real@3c23d70a
CONST	SEGMENT
__real@3c23d70a DD 03c23d70ar			; 0.01
CONST	ENDS
;	COMDAT ??_R2CAIInterface@@8
rdata$r	SEGMENT
??_R2CAIInterface@@8 DD FLAT:??_R1A@?0A@EA@CAIInterface@@8 ; CAIInterface::`RTTI Base Class Array'
rdata$r	ENDS
;	COMDAT ??_R3CAIInterface@@8
rdata$r	SEGMENT
??_R3CAIInterface@@8 DD 00H				; CAIInterface::`RTTI Class Hierarchy Descriptor'
	DD	00H
	DD	01H
	DD	FLAT:??_R2CAIInterface@@8
rdata$r	ENDS
;	COMDAT ??_R0?AVCAIInterface@@@8
data$rs	SEGMENT
??_R0?AVCAIInterface@@@8 DD FLAT:??_7type_info@@6B@	; CAIInterface `RTTI Type Descriptor'
	DD	00H
	DB	'.?AVCAIInterface@@', 00H
data$rs	ENDS
;	COMDAT ??_R1A@?0A@EA@CAIInterface@@8
rdata$r	SEGMENT
??_R1A@?0A@EA@CAIInterface@@8 DD FLAT:??_R0?AVCAIInterface@@@8 ; CAIInterface::`RTTI Base Class Descriptor at (0,-1,0,64)'
	DD	00H
	DD	00H
	DD	0ffffffffH
	DD	00H
	DD	040H
	DD	FLAT:??_R3CAIInterface@@8
rdata$r	ENDS
;	COMDAT ??_R1A@?0A@EA@CAIMeteonyker@@8
rdata$r	SEGMENT
??_R1A@?0A@EA@CAIMeteonyker@@8 DD FLAT:??_R0?AVCAIMeteonyker@@@8 ; CAIMeteonyker::`RTTI Base Class Descriptor at (0,-1,0,64)'
	DD	01H
	DD	00H
	DD	0ffffffffH
	DD	00H
	DD	040H
	DD	FLAT:??_R3CAIMeteonyker@@8
rdata$r	ENDS
;	COMDAT ??_R2CAIMeteonyker@@8
rdata$r	SEGMENT
??_R2CAIMeteonyker@@8 DD FLAT:??_R1A@?0A@EA@CAIMeteonyker@@8 ; CAIMeteonyker::`RTTI Base Class Array'
	DD	FLAT:??_R1A@?0A@EA@CAIInterface@@8
rdata$r	ENDS
;	COMDAT ??_R3CAIMeteonyker@@8
rdata$r	SEGMENT
??_R3CAIMeteonyker@@8 DD 00H				; CAIMeteonyker::`RTTI Class Hierarchy Descriptor'
	DD	00H
	DD	02H
	DD	FLAT:??_R2CAIMeteonyker@@8
rdata$r	ENDS
;	COMDAT ??_R0?AVCAIMeteonyker@@@8
data$rs	SEGMENT
??_R0?AVCAIMeteonyker@@@8 DD FLAT:??_7type_info@@6B@	; CAIMeteonyker `RTTI Type Descriptor'
	DD	00H
	DB	'.?AVCAIMeteonyker@@', 00H
data$rs	ENDS
;	COMDAT ??_R4CAIMeteonyker@@6B@
rdata$r	SEGMENT
??_R4CAIMeteonyker@@6B@ DD 00H				; CAIMeteonyker::`RTTI Complete Object Locator'
	DD	00H
	DD	00H
	DD	FLAT:??_R0?AVCAIMeteonyker@@@8
	DD	FLAT:??_R3CAIMeteonyker@@8
rdata$r	ENDS
;	COMDAT ??_7CAIMeteonyker@@6B@
CONST	SEGMENT
??_7CAIMeteonyker@@6B@ DD FLAT:??_R4CAIMeteonyker@@6B@	; CAIMeteonyker::`vftable'
	DD	FLAT:?GetStateMap@CAIMeteonyker@@UBEPBUSTATEMAP@@XZ
	DD	FLAT:??_ECAIMeteonyker@@UAEPAXI@Z
	DD	FLAT:?RouteMessage@CAIInterface@@UAEXXZ
	DD	FLAT:?SendAIMsg@CAIInterface@@UAEXKKKK@Z
	DD	FLAT:?PostAIMsg@CAIInterface@@UAEXKKKK@Z
	DD	FLAT:?InitAI@CAIMeteonyker@@UAEXXZ
	DD	FLAT:?IsReturnToBegin@CAIMeteonyker@@UAEHXZ
CONST	ENDS
_DATA	SEGMENT
?stateMapEntries@CAIMeteonyker@@2QBUSTATEMAP_ENTRIES@@B DD 01H ; CAIMeteonyker::stateMapEntries
	ORG $+4
	DD	FLAT:?StateInit@CAIMeteonyker@@AAEHABUAIMSG@@@Z
	DD	00H
	DD	00H
	DD	00H
	DD	02H
	DB	4 DUP(00H)
	DD	FLAT:?StateIdle@CAIMeteonyker@@AAEHABUAIMSG@@@Z
	DD	00H
	DD	00H
	DD	00H
	DD	07H
	DB	4 DUP(00H)
	DD	FLAT:?StateRage@CAIMeteonyker@@AAEHABUAIMSG@@@Z
	DD	00H
	DD	00H
	DD	00H
	DD	00H
	DB	4 DUP(00H)
	DD	00H
	DD	00H
	DD	00H
	DD	0ffffffffH
?s_tmAttack@@3KA DD 04e20H				; s_tmAttack
_DATA	ENDS
;	COMDAT ??_R4bad_alloc@std@@6B@
rdata$r	SEGMENT
??_R4bad_alloc@std@@6B@ DD 00H				; std::bad_alloc::`RTTI Complete Object Locator'
	DD	00H
	DD	00H
	DD	FLAT:??_R0?AVbad_alloc@std@@@8
	DD	FLAT:??_R3bad_alloc@std@@8
rdata$r	ENDS
;	COMDAT ??_R2bad_alloc@std@@8
rdata$r	SEGMENT
??_R2bad_alloc@std@@8 DD FLAT:??_R1A@?0A@EA@bad_alloc@std@@8 ; std::bad_alloc::`RTTI Base Class Array'
	DD	FLAT:??_R1A@?0A@EA@exception@std@@8
rdata$r	ENDS
;	COMDAT ??_R3bad_alloc@std@@8
rdata$r	SEGMENT
??_R3bad_alloc@std@@8 DD 00H				; std::bad_alloc::`RTTI Class Hierarchy Descriptor'
	DD	00H
	DD	02H
	DD	FLAT:??_R2bad_alloc@std@@8
rdata$r	ENDS
;	COMDAT ??_R1A@?0A@EA@bad_alloc@std@@8
rdata$r	SEGMENT
??_R1A@?0A@EA@bad_alloc@std@@8 DD FLAT:??_R0?AVbad_alloc@std@@@8 ; std::bad_alloc::`RTTI Base Class Descriptor at (0,-1,0,64)'
	DD	01H
	DD	00H
	DD	0ffffffffH
	DD	00H
	DD	040H
	DD	FLAT:??_R3bad_alloc@std@@8
rdata$r	ENDS
;	COMDAT ??_R1A@?0A@EA@bad_array_new_length@std@@8
rdata$r	SEGMENT
??_R1A@?0A@EA@bad_array_new_length@std@@8 DD FLAT:??_R0?AVbad_array_new_length@std@@@8 ; std::bad_array_new_length::`RTTI Base Class Descriptor at (0,-1,0,64)'
	DD	02H
	DD	00H
	DD	0ffffffffH
	DD	00H
	DD	040H
	DD	FLAT:??_R3bad_array_new_length@std@@8
rdata$r	ENDS
;	COMDAT ??_R2bad_array_new_length@std@@8
rdata$r	SEGMENT
??_R2bad_array_new_length@std@@8 DD FLAT:??_R1A@?0A@EA@bad_array_new_length@std@@8 ; std::bad_array_new_length::`RTTI Base Class Array'
	DD	FLAT:??_R1A@?0A@EA@bad_alloc@std@@8
	DD	FLAT:??_R1A@?0A@EA@exception@std@@8
rdata$r	ENDS
;	COMDAT ??_R3bad_array_new_length@std@@8
rdata$r	SEGMENT
??_R3bad_array_new_length@std@@8 DD 00H			; std::bad_array_new_length::`RTTI Class Hierarchy Descriptor'
	DD	00H
	DD	03H
	DD	FLAT:??_R2bad_array_new_length@std@@8
rdata$r	ENDS
;	COMDAT ??_R4bad_array_new_length@std@@6B@
rdata$r	SEGMENT
??_R4bad_array_new_length@std@@6B@ DD 00H		; std::bad_array_new_length::`RTTI Complete Object Locator'
	DD	00H
	DD	00H
	DD	FLAT:??_R0?AVbad_array_new_length@std@@@8
	DD	FLAT:??_R3bad_array_new_length@std@@8
rdata$r	ENDS
;	COMDAT ??_R1A@?0A@EA@exception@std@@8
rdata$r	SEGMENT
??_R1A@?0A@EA@exception@std@@8 DD FLAT:??_R0?AVexception@std@@@8 ; std::exception::`RTTI Base Class Descriptor at (0,-1,0,64)'
	DD	00H
	DD	00H
	DD	0ffffffffH
	DD	00H
	DD	040H
	DD	FLAT:??_R3exception@std@@8
rdata$r	ENDS
;	COMDAT ??_R2exception@std@@8
rdata$r	SEGMENT
??_R2exception@std@@8 DD FLAT:??_R1A@?0A@EA@exception@std@@8 ; std::exception::`RTTI Base Class Array'
rdata$r	ENDS
;	COMDAT ??_R3exception@std@@8
rdata$r	SEGMENT
??_R3exception@std@@8 DD 00H				; std::exception::`RTTI Class Hierarchy Descriptor'
	DD	00H
	DD	01H
	DD	FLAT:??_R2exception@std@@8
rdata$r	ENDS
;	COMDAT ??_R4exception@std@@6B@
rdata$r	SEGMENT
??_R4exception@std@@6B@ DD 00H				; std::exception::`RTTI Complete Object Locator'
	DD	00H
	DD	00H
	DD	FLAT:??_R0?AVexception@std@@@8
	DD	FLAT:??_R3exception@std@@8
rdata$r	ENDS
;	COMDAT ??_C@_05KKCIMGE@error@
CONST	SEGMENT
??_C@_05KKCIMGE@error@ DB 'error', 00H			; `string'
CONST	ENDS
;	COMDAT ??_C@_0BE@OHDBLHOM@GetText?5range_error@
CONST	SEGMENT
??_C@_0BE@OHDBLHOM@GetText?5range_error@ DB 'GetText range_error', 00H ; `string'
CONST	ENDS
;	COMDAT ??_C@_0BJ@GKPOBPPI@GetMoverProp?5range_error@
CONST	SEGMENT
??_C@_0BJ@GKPOBPPI@GetMoverProp?5range_error@ DB 'GetMoverProp range_erro'
	DB	'r', 00H					; `string'
CONST	ENDS
;	COMDAT ??_C@_0BM@HMFGHCP@?$CFs?5min?3?$CFd?0?5max?3?$CFd?0?5index?3?$CFd@
CONST	SEGMENT
??_C@_0BM@HMFGHCP@?$CFs?5min?3?$CFd?0?5max?3?$CFd?0?5index?3?$CFd@ DB '%s'
	DB	' min:%d, max:%d, index:%d', 00H		; `string'
CONST	ENDS
;	COMDAT ??_C@_0BB@GCADKGJO@map?1set?5too?5long@
CONST	SEGMENT
??_C@_0BB@GCADKGJO@map?1set?5too?5long@ DB 'map/set too long', 00H ; `string'
CONST	ENDS
;	COMDAT __CT??_R0?AVbad_alloc@std@@@8??0bad_alloc@std@@QAE@ABV01@@Z12
xdata$x	SEGMENT
__CT??_R0?AVbad_alloc@std@@@8??0bad_alloc@std@@QAE@ABV01@@Z12 DD 010H
	DD	FLAT:??_R0?AVbad_alloc@std@@@8
	DD	00H
	DD	0ffffffffH
	ORG $+4
	DD	0cH
	DD	FLAT:??0bad_alloc@std@@QAE@ABV01@@Z
xdata$x	ENDS
;	COMDAT ??_R0?AVbad_alloc@std@@@8
data$r	SEGMENT
??_R0?AVbad_alloc@std@@@8 DD FLAT:??_7type_info@@6B@	; std::bad_alloc `RTTI Type Descriptor'
	DD	00H
	DB	'.?AVbad_alloc@std@@', 00H
data$r	ENDS
;	COMDAT __CT??_R0?AVbad_array_new_length@std@@@8??0bad_array_new_length@std@@QAE@ABV01@@Z12
xdata$x	SEGMENT
__CT??_R0?AVbad_array_new_length@std@@@8??0bad_array_new_length@std@@QAE@ABV01@@Z12 DD 00H
	DD	FLAT:??_R0?AVbad_array_new_length@std@@@8
	DD	00H
	DD	0ffffffffH
	ORG $+4
	DD	0cH
	DD	FLAT:??0bad_array_new_length@std@@QAE@ABV01@@Z
xdata$x	ENDS
;	COMDAT ??_R0?AVbad_array_new_length@std@@@8
data$r	SEGMENT
??_R0?AVbad_array_new_length@std@@@8 DD FLAT:??_7type_info@@6B@ ; std::bad_array_new_length `RTTI Type Descriptor'
	DD	00H
	DB	'.?AVbad_array_new_length@std@@', 00H
data$r	ENDS
;	COMDAT __CTA3?AVbad_array_new_length@std@@
xdata$x	SEGMENT
__CTA3?AVbad_array_new_length@std@@ DD 03H
	DD	FLAT:__CT??_R0?AVbad_array_new_length@std@@@8??0bad_array_new_length@std@@QAE@ABV01@@Z12
	DD	FLAT:__CT??_R0?AVbad_alloc@std@@@8??0bad_alloc@std@@QAE@ABV01@@Z12
	DD	FLAT:__CT??_R0?AVexception@std@@@8??0exception@std@@QAE@ABV01@@Z12
xdata$x	ENDS
;	COMDAT __TI3?AVbad_array_new_length@std@@
xdata$x	SEGMENT
__TI3?AVbad_array_new_length@std@@ DD 00H
	DD	FLAT:??1bad_array_new_length@std@@UAE@XZ
	DD	00H
	DD	FLAT:__CTA3?AVbad_array_new_length@std@@
xdata$x	ENDS
;	COMDAT __CT??_R0?AVexception@std@@@8??0exception@std@@QAE@ABV01@@Z12
xdata$x	SEGMENT
__CT??_R0?AVexception@std@@@8??0exception@std@@QAE@ABV01@@Z12 DD 00H
	DD	FLAT:??_R0?AVexception@std@@@8
	DD	00H
	DD	0ffffffffH
	ORG $+4
	DD	0cH
	DD	FLAT:??0exception@std@@QAE@ABV01@@Z
xdata$x	ENDS
;	COMDAT ??_R0?AVexception@std@@@8
data$r	SEGMENT
??_R0?AVexception@std@@@8 DD FLAT:??_7type_info@@6B@	; std::exception `RTTI Type Descriptor'
	DD	00H
	DB	'.?AVexception@std@@', 00H
data$r	ENDS
;	COMDAT ??_C@_0BF@KINCDENJ@bad?5array?5new?5length@
CONST	SEGMENT
??_C@_0BF@KINCDENJ@bad?5array?5new?5length@ DB 'bad array new length', 00H ; `string'
CONST	ENDS
;	COMDAT ??_7bad_array_new_length@std@@6B@
CONST	SEGMENT
??_7bad_array_new_length@std@@6B@ DD FLAT:??_R4bad_array_new_length@std@@6B@ ; std::bad_array_new_length::`vftable'
	DD	FLAT:??_Ebad_array_new_length@std@@UAEPAXI@Z
	DD	FLAT:?what@exception@std@@UBEPBDXZ
CONST	ENDS
;	COMDAT ??_7bad_alloc@std@@6B@
CONST	SEGMENT
??_7bad_alloc@std@@6B@ DD FLAT:??_R4bad_alloc@std@@6B@	; std::bad_alloc::`vftable'
	DD	FLAT:??_Ebad_alloc@std@@UAEPAXI@Z
	DD	FLAT:?what@exception@std@@UBEPBDXZ
CONST	ENDS
;	COMDAT ??_C@_0BC@EOODALEL@Unknown?5exception@
CONST	SEGMENT
??_C@_0BC@EOODALEL@Unknown?5exception@ DB 'Unknown exception', 00H ; `string'
CONST	ENDS
;	COMDAT ??_7exception@std@@6B@
CONST	SEGMENT
??_7exception@std@@6B@ DD FLAT:??_R4exception@std@@6B@	; std::exception::`vftable'
	DD	FLAT:??_Eexception@std@@UAEPAXI@Z
	DD	FLAT:?what@exception@std@@UBEPBDXZ
CONST	ENDS
;	COMDAT ??_C@_00CNPNBAHC@@
CONST	SEGMENT
??_C@_00CNPNBAHC@@ DB 00H				; `string'
CONST	ENDS
;	COMDAT xdata$x
xdata$x	SEGMENT
__unwindtable$??$?0U?$pair@$$CBKH@std@@@?$_Tree_temp_node@V?$allocator@U?$_Tree_node@U?$pair@$$CBKH@std@@PAX@std@@@std@@@std@@QAE@AAV?$allocator@U?$_Tree_node@U?$pair@$$CBKH@std@@PAX@std@@@1@PAU?$_Tree_node@U?$pair@$$CBKH@std@@PAX@1@$$QAU?$pair@$$CBKH@1@@Z DD 0ffffffffH
	DD	FLAT:__unwindfunclet$??$?0U?$pair@$$CBKH@std@@@?$_Tree_temp_node@V?$allocator@U?$_Tree_node@U?$pair@$$CBKH@std@@PAX@std@@@std@@@std@@QAE@AAV?$allocator@U?$_Tree_node@U?$pair@$$CBKH@std@@PAX@std@@@1@PAU?$_Tree_node@U?$pair@$$CBKH@std@@PAX@1@$$QAU?$pair@$$CBKH@1@@Z$1
__ehfuncinfo$??$?0U?$pair@$$CBKH@std@@@?$_Tree_temp_node@V?$allocator@U?$_Tree_node@U?$pair@$$CBKH@std@@PAX@std@@@std@@@std@@QAE@AAV?$allocator@U?$_Tree_node@U?$pair@$$CBKH@std@@PAX@std@@@1@PAU?$_Tree_node@U?$pair@$$CBKH@std@@PAX@1@$$QAU?$pair@$$CBKH@1@@Z DD 019930522H
	DD	01H
	DD	FLAT:__unwindtable$??$?0U?$pair@$$CBKH@std@@@?$_Tree_temp_node@V?$allocator@U?$_Tree_node@U?$pair@$$CBKH@std@@PAX@std@@@std@@@std@@QAE@AAV?$allocator@U?$_Tree_node@U?$pair@$$CBKH@std@@PAX@std@@@1@PAU?$_Tree_node@U?$pair@$$CBKH@std@@PAX@1@$$QAU?$pair@$$CBKH@1@@Z
	DD	2 DUP(00H)
	DD	2 DUP(00H)
	DD	00H
	DD	01H
xdata$x	ENDS
;	COMDAT xdata$x
xdata$x	SEGMENT
__unwindtable$??0?$_Tree_temp_node_alloc@V?$allocator@U?$_Tree_node@U?$pair@$$CBKH@std@@PAX@std@@@std@@@std@@QAE@AAV?$allocator@U?$_Tree_node@U?$pair@$$CBKH@std@@PAX@std@@@1@@Z DD 0ffffffffH
	DD	FLAT:__unwindfunclet$??0?$_Tree_temp_node_alloc@V?$allocator@U?$_Tree_node@U?$pair@$$CBKH@std@@PAX@std@@@std@@@std@@QAE@AAV?$allocator@U?$_Tree_node@U?$pair@$$CBKH@std@@PAX@std@@@1@@Z$0
__ehfuncinfo$??0?$_Tree_temp_node_alloc@V?$allocator@U?$_Tree_node@U?$pair@$$CBKH@std@@PAX@std@@@std@@@std@@QAE@AAV?$allocator@U?$_Tree_node@U?$pair@$$CBKH@std@@PAX@std@@@1@@Z DD 019930522H
	DD	01H
	DD	FLAT:__unwindtable$??0?$_Tree_temp_node_alloc@V?$allocator@U?$_Tree_node@U?$pair@$$CBKH@std@@PAX@std@@@std@@@std@@QAE@AAV?$allocator@U?$_Tree_node@U?$pair@$$CBKH@std@@PAX@std@@@1@@Z
	DD	2 DUP(00H)
	DD	2 DUP(00H)
	DD	00H
	DD	01H
xdata$x	ENDS
;	COMDAT xdata$x
xdata$x	SEGMENT
__unwindtable$??$_Emplace@U?$pair@$$CBKH@std@@@?$_Tree@V?$_Tmap_traits@KHU?$less@K@std@@V?$allocator@U?$pair@$$CBKH@std@@@2@$0A@@std@@@std@@IAE?AU?$pair@PAU?$_Tree_node@U?$pair@$$CBKH@std@@PAX@std@@_N@1@$$QAU?$pair@$$CBKH@1@@Z DD 0ffffffffH
	DD	FLAT:__unwindfunclet$??$_Emplace@U?$pair@$$CBKH@std@@@?$_Tree@V?$_Tmap_traits@KHU?$less@K@std@@V?$allocator@U?$pair@$$CBKH@std@@@2@$0A@@std@@@std@@IAE?AU?$pair@PAU?$_Tree_node@U?$pair@$$CBKH@std@@PAX@std@@_N@1@$$QAU?$pair@$$CBKH@1@@Z$2
__ehfuncinfo$??$_Emplace@U?$pair@$$CBKH@std@@@?$_Tree@V?$_Tmap_traits@KHU?$less@K@std@@V?$allocator@U?$pair@$$CBKH@std@@@2@$0A@@std@@@std@@IAE?AU?$pair@PAU?$_Tree_node@U?$pair@$$CBKH@std@@PAX@std@@_N@1@$$QAU?$pair@$$CBKH@1@@Z DD 019930522H
	DD	01H
	DD	FLAT:__unwindtable$??$_Emplace@U?$pair@$$CBKH@std@@@?$_Tree@V?$_Tmap_traits@KHU?$less@K@std@@V?$allocator@U?$pair@$$CBKH@std@@@2@$0A@@std@@@std@@IAE?AU?$pair@PAU?$_Tree_node@U?$pair@$$CBKH@std@@PAX@std@@_N@1@$$QAU?$pair@$$CBKH@1@@Z
	DD	2 DUP(00H)
	DD	2 DUP(00H)
	DD	00H
	DD	01H
xdata$x	ENDS
;	COMDAT xdata$x
xdata$x	SEGMENT
__unwindtable$??$insert@$0A@$0A@@?$_Tree@V?$_Tmap_traits@KHU?$less@K@std@@V?$allocator@U?$pair@$$CBKH@std@@@2@$0A@@std@@@std@@QAE?AU?$pair@V?$_Tree_iterator@V?$_Tree_val@U?$_Tree_simple_types@U?$pair@$$CBKH@std@@@std@@@std@@@std@@_N@1@$$QAU?$pair@$$CBKH@1@@Z DD 0ffffffffH
	DD	FLAT:__unwindfunclet$??$insert@$0A@$0A@@?$_Tree@V?$_Tmap_traits@KHU?$less@K@std@@V?$allocator@U?$pair@$$CBKH@std@@@2@$0A@@std@@@std@@QAE?AU?$pair@V?$_Tree_iterator@V?$_Tree_val@U?$_Tree_simple_types@U?$pair@$$CBKH@std@@@std@@@std@@@std@@_N@1@$$QAU?$pair@$$CBKH@1@@Z$2
__ehfuncinfo$??$insert@$0A@$0A@@?$_Tree@V?$_Tmap_traits@KHU?$less@K@std@@V?$allocator@U?$pair@$$CBKH@std@@@2@$0A@@std@@@std@@QAE?AU?$pair@V?$_Tree_iterator@V?$_Tree_val@U?$_Tree_simple_types@U?$pair@$$CBKH@std@@@std@@@std@@@std@@_N@1@$$QAU?$pair@$$CBKH@1@@Z DD 019930522H
	DD	01H
	DD	FLAT:__unwindtable$??$insert@$0A@$0A@@?$_Tree@V?$_Tmap_traits@KHU?$less@K@std@@V?$allocator@U?$pair@$$CBKH@std@@@2@$0A@@std@@@std@@QAE?AU?$pair@V?$_Tree_iterator@V?$_Tree_val@U?$_Tree_simple_types@U?$pair@$$CBKH@std@@@std@@@std@@@std@@_N@1@$$QAU?$pair@$$CBKH@1@@Z
	DD	2 DUP(00H)
	DD	2 DUP(00H)
	DD	00H
	DD	01H
xdata$x	ENDS
;	COMDAT xdata$x
xdata$x	SEGMENT
__unwindtable$??0CAIMeteonyker@@QAE@PAVCObj@@@Z DD 0ffffffffH
	DD	FLAT:__unwindfunclet$??0CAIMeteonyker@@QAE@PAVCObj@@@Z$0
	DD	00H
	DD	FLAT:__unwindfunclet$??0CAIMeteonyker@@QAE@PAVCObj@@@Z$1
__ehfuncinfo$??0CAIMeteonyker@@QAE@PAVCObj@@@Z DD 019930522H
	DD	02H
	DD	FLAT:__unwindtable$??0CAIMeteonyker@@QAE@PAVCObj@@@Z
	DD	2 DUP(00H)
	DD	2 DUP(00H)
	DD	00H
	DD	01H
xdata$x	ENDS
;	COMDAT xdata$x
xdata$x	SEGMENT
__unwindtable$??0CAIMeteonyker@@QAE@XZ DD 0ffffffffH
	DD	FLAT:__unwindfunclet$??0CAIMeteonyker@@QAE@XZ$0
	DD	00H
	DD	FLAT:__unwindfunclet$??0CAIMeteonyker@@QAE@XZ$1
__ehfuncinfo$??0CAIMeteonyker@@QAE@XZ DD 019930522H
	DD	02H
	DD	FLAT:__unwindtable$??0CAIMeteonyker@@QAE@XZ
	DD	2 DUP(00H)
	DD	2 DUP(00H)
	DD	00H
	DD	01H
xdata$x	ENDS
;	COMDAT xdata$x
xdata$x	SEGMENT
__unwindtable$?AddDamage@CAIMeteonyker@@AAEXKH@Z DD 0ffffffffH
	DD	FLAT:__unwindfunclet$?AddDamage@CAIMeteonyker@@AAEXKH@Z$2
__ehfuncinfo$?AddDamage@CAIMeteonyker@@AAEXKH@Z DD 019930522H
	DD	01H
	DD	FLAT:__unwindtable$?AddDamage@CAIMeteonyker@@AAEXKH@Z
	DD	2 DUP(00H)
	DD	2 DUP(00H)
	DD	00H
	DD	01H
xdata$x	ENDS
; Function compile flags: /Ogtp
; File C:\Program Files\Microsoft Visual Studio\2022\Professional\VC\Tools\MSVC\14.44.35207\include\xmemory
;	COMDAT ??1?$_Alloc_construct_ptr@V?$allocator@U?$_Tree_node@U?$pair@$$CBKH@std@@PAX@std@@@std@@@std@@QAE@XZ
_TEXT	SEGMENT
??1?$_Alloc_construct_ptr@V?$allocator@U?$_Tree_node@U?$pair@$$CBKH@std@@PAX@std@@@std@@@std@@QAE@XZ PROC ; std::_Alloc_construct_ptr<std::allocator<std::_Tree_node<std::pair<unsigned long const ,int>,void *> > >::~_Alloc_construct_ptr<std::allocator<std::_Tree_node<std::pair<unsigned long const ,int>,void *> > >, COMDAT
; _this$ = ecx

; 1172 :         if (_Ptr) {

  00000	8b 41 04	 mov	 eax, DWORD PTR [ecx+4]
  00003	85 c0		 test	 eax, eax
  00005	74 0b		 je	 SHORT $LN10@Alloc_cons

; 289  :         ::operator delete(_Ptr, _Bytes);

  00007	6a 18		 push	 24			; 00000018H
  00009	50		 push	 eax
  0000a	e8 00 00 00 00	 call	 ??3@YAXPAXI@Z		; operator delete
  0000f	83 c4 08	 add	 esp, 8
$LN10@Alloc_cons:

; 1173 :             _Al.deallocate(_Ptr, 1);
; 1174 :         }
; 1175 :     }

  00012	c3		 ret	 0
??1?$_Alloc_construct_ptr@V?$allocator@U?$_Tree_node@U?$pair@$$CBKH@std@@PAX@std@@@std@@@std@@QAE@XZ ENDP ; std::_Alloc_construct_ptr<std::allocator<std::_Tree_node<std::pair<unsigned long const ,int>,void *> > >::~_Alloc_construct_ptr<std::allocator<std::_Tree_node<std::pair<unsigned long const ,int>,void *> > >
_TEXT	ENDS
; Function compile flags: /Ogtp
; File C:\Program Files\Microsoft Visual Studio\2022\Professional\VC\Tools\MSVC\14.44.35207\include\xtree
; File C:\Program Files\Microsoft Visual Studio\2022\Professional\VC\Tools\MSVC\14.44.35207\include\type_traits
; File C:\Program Files\Microsoft Visual Studio\2022\Professional\VC\Tools\MSVC\14.44.35207\include\xtree
; File C:\Program Files\Microsoft Visual Studio\2022\Professional\VC\Tools\MSVC\14.44.35207\include\type_traits
; File C:\Program Files\Microsoft Visual Studio\2022\Professional\VC\Tools\MSVC\14.44.35207\include\xtree
;	COMDAT ??$_Find_lower_bound@K@?$_Tree@V?$_Tmap_traits@KHU?$less@K@std@@V?$allocator@U?$pair@$$CBKH@std@@@2@$0A@@std@@@std@@IBE?AU?$_Tree_find_result@PAU?$_Tree_node@U?$pair@$$CBKH@std@@PAX@std@@@1@ABK@Z
_TEXT	SEGMENT
___$ReturnUdt$ = 8					; size = 4
__Keyval$ = 12						; size = 4
??$_Find_lower_bound@K@?$_Tree@V?$_Tmap_traits@KHU?$less@K@std@@V?$allocator@U?$pair@$$CBKH@std@@@2@$0A@@std@@@std@@IBE?AU?$_Tree_find_result@PAU?$_Tree_node@U?$pair@$$CBKH@std@@PAX@std@@@1@ABK@Z PROC ; std::_Tree<std::_Tmap_traits<unsigned long,int,std::less<unsigned long>,std::allocator<std::pair<unsigned long const ,int> >,0> >::_Find_lower_bound<unsigned long>, COMDAT
; _this$ = ecx

; 1628 :     _Tree_find_result<_Nodeptr> _Find_lower_bound(const _Keyty& _Keyval) const {

  00000	55		 push	 ebp
  00001	8b ec		 mov	 ebp, esp

; 1629 :         const auto _Scary = _Get_scary();
; 1630 :         _Tree_find_result<_Nodeptr> _Result{{_Scary->_Myhead->_Parent, _Tree_child::_Right}, _Scary->_Myhead};

  00003	8b 09		 mov	 ecx, DWORD PTR [ecx]
  00005	8b 55 08	 mov	 edx, DWORD PTR ___$ReturnUdt$[ebp]
  00008	8b 41 04	 mov	 eax, DWORD PTR [ecx+4]
  0000b	89 02		 mov	 DWORD PTR [edx], eax
  0000d	c7 42 04 00 00
	00 00		 mov	 DWORD PTR [edx+4], 0
  00014	89 4a 08	 mov	 DWORD PTR [edx+8], ecx

; 1631 :         _Nodeptr _Trynode = _Result._Location._Parent;
; 1632 :         while (!_Trynode->_Isnil) {

  00017	80 78 0d 00	 cmp	 BYTE PTR [eax+13], 0
  0001b	75 28		 jne	 SHORT $LN13@Find_lower
; File C:\Program Files\Microsoft Visual Studio\2022\Professional\VC\Tools\MSVC\14.44.35207\include\type_traits

; 2380 :         return _Left < _Right;

  0001d	8b 4d 0c	 mov	 ecx, DWORD PTR __Keyval$[ebp]
  00020	56		 push	 esi
  00021	8b 31		 mov	 esi, DWORD PTR [ecx]
$LL2@Find_lower:
; File C:\Program Files\Microsoft Visual Studio\2022\Professional\VC\Tools\MSVC\14.44.35207\include\xtree

; 1633 :             _Result._Location._Parent = _Trynode;

  00023	89 02		 mov	 DWORD PTR [edx], eax
; File C:\Program Files\Microsoft Visual Studio\2022\Professional\VC\Tools\MSVC\14.44.35207\include\type_traits

; 2380 :         return _Left < _Right;

  00025	39 70 10	 cmp	 DWORD PTR [eax+16], esi
; File C:\Program Files\Microsoft Visual Studio\2022\Professional\VC\Tools\MSVC\14.44.35207\include\xtree

; 1634 :             if (_DEBUG_LT_PRED(_Getcomp(), _Traits::_Kfn(_Trynode->_Myval), _Keyval)) {

  00028	73 07		 jae	 SHORT $LN4@Find_lower

; 1635 :                 _Result._Location._Child = _Tree_child::_Right;
; 1636 :                 _Trynode                 = _Trynode->_Right;

  0002a	8b 40 08	 mov	 eax, DWORD PTR [eax+8]
  0002d	33 c9		 xor	 ecx, ecx

; 1637 :             } else {

  0002f	eb 0a		 jmp	 SHORT $LN5@Find_lower
$LN4@Find_lower:

; 1638 :                 _Result._Location._Child = _Tree_child::_Left;
; 1639 :                 _Result._Bound           = _Trynode;

  00031	89 42 08	 mov	 DWORD PTR [edx+8], eax

; 1640 :                 _Trynode                 = _Trynode->_Left;

  00034	b9 01 00 00 00	 mov	 ecx, 1
  00039	8b 00		 mov	 eax, DWORD PTR [eax]
$LN5@Find_lower:

; 1631 :         _Nodeptr _Trynode = _Result._Location._Parent;
; 1632 :         while (!_Trynode->_Isnil) {

  0003b	89 4a 04	 mov	 DWORD PTR [edx+4], ecx
  0003e	80 78 0d 00	 cmp	 BYTE PTR [eax+13], 0
  00042	74 df		 je	 SHORT $LL2@Find_lower
  00044	5e		 pop	 esi
$LN13@Find_lower:

; 1641 :             }
; 1642 :         }
; 1643 : 
; 1644 :         return _Result;
; 1645 :     }

  00045	8b c2		 mov	 eax, edx
  00047	5d		 pop	 ebp
  00048	c2 08 00	 ret	 8
??$_Find_lower_bound@K@?$_Tree@V?$_Tmap_traits@KHU?$less@K@std@@V?$allocator@U?$pair@$$CBKH@std@@@2@$0A@@std@@@std@@IBE?AU?$_Tree_find_result@PAU?$_Tree_node@U?$pair@$$CBKH@std@@PAX@std@@@1@ABK@Z ENDP ; std::_Tree<std::_Tmap_traits<unsigned long,int,std::less<unsigned long>,std::allocator<std::pair<unsigned long const ,int> >,0> >::_Find_lower_bound<unsigned long>
_TEXT	ENDS
; Function compile flags: /Ogtp
;	COMDAT ??_GCAIMeteonyker@@UAEPAXI@Z
_TEXT	SEGMENT
___flags$ = 8						; size = 4
??_GCAIMeteonyker@@UAEPAXI@Z PROC			; CAIMeteonyker::`scalar deleting destructor', COMDAT
; _this$ = ecx
  00000	55		 push	 ebp
  00001	8b ec		 mov	 ebp, esp
  00003	56		 push	 esi
  00004	8b f1		 mov	 esi, ecx
  00006	e8 00 00 00 00	 call	 ??1CAIMeteonyker@@UAE@XZ ; CAIMeteonyker::~CAIMeteonyker
  0000b	f6 45 08 01	 test	 BYTE PTR ___flags$[ebp], 1
  0000f	74 0e		 je	 SHORT $LN5@scalar
  00011	68 a8 00 00 00	 push	 168			; 000000a8H
  00016	56		 push	 esi
  00017	e8 00 00 00 00	 call	 ??3@YAXPAXI@Z		; operator delete
  0001c	83 c4 08	 add	 esp, 8
$LN5@scalar:
  0001f	8b c6		 mov	 eax, esi
  00021	5e		 pop	 esi
  00022	5d		 pop	 ebp
  00023	c2 04 00	 ret	 4
??_GCAIMeteonyker@@UAEPAXI@Z ENDP			; CAIMeteonyker::`scalar deleting destructor'
_TEXT	ENDS
; Function compile flags: /Ogtp
; File C:\IAGOS\server\v18\Source\Source\_AIInterface\aimeteonyker.cpp
;	COMDAT ?GetStateMap@CAIMeteonyker@@UBEPBUSTATEMAP@@XZ
_TEXT	SEGMENT
?GetStateMap@CAIMeteonyker@@UBEPBUSTATEMAP@@XZ PROC	; CAIMeteonyker::GetStateMap, COMDAT
; _this$ = ecx

; 33   : BEGIN_AISTATE_MAP( CAIMeteonyker, CAIInterface )

  00000	b8 00 00 00 00	 mov	 eax, OFFSET ?stateMap@CAIMeteonyker@@2USTATEMAP@@B ; CAIMeteonyker::stateMap
  00005	c3		 ret	 0
?GetStateMap@CAIMeteonyker@@UBEPBUSTATEMAP@@XZ ENDP	; CAIMeteonyker::GetStateMap
_TEXT	ENDS
; Function compile flags: /Ogtp
; File C:\IAGOS\server\v18\Source\Source\_AIInterface\aimeteonyker.cpp
;	COMDAT ?SetTarget@CAIMeteonyker@@QAEXKK@Z
_TEXT	SEGMENT
_dwIdTarget$ = 8					; size = 4
_uParty$ = 12						; size = 4
?SetTarget@CAIMeteonyker@@QAEXKK@Z PROC			; CAIMeteonyker::SetTarget, COMDAT
; _this$ = ecx

; 807  : {

  00000	55		 push	 ebp
  00001	8b ec		 mov	 ebp, esp

; 808  : 	m_dwIdTarget	= dwIdTarget;

  00003	8b 55 08	 mov	 edx, DWORD PTR _dwIdTarget$[ebp]

; 809  : 	m_uParty	= uParty;

  00006	8b 45 0c	 mov	 eax, DWORD PTR _uParty$[ebp]
  00009	89 51 38	 mov	 DWORD PTR [ecx+56], edx
  0000c	89 41 3c	 mov	 DWORD PTR [ecx+60], eax

; 810  : 	if( dwIdTarget == NULL_ID )

  0000f	83 fa ff	 cmp	 edx, -1
  00012	75 10		 jne	 SHORT $LN2@SetTarget

; 811  : 		GetMover()->SetSpeedFactor( 1.0F );

  00014	51		 push	 ecx
  00015	8b 49 30	 mov	 ecx, DWORD PTR [ecx+48]
  00018	c7 04 24 00 00
	80 3f		 mov	 DWORD PTR [esp], 1065353216 ; 3f800000H
  0001f	e8 00 00 00 00	 call	 ?SetSpeedFactor@CMover@@QAEXM@Z ; CMover::SetSpeedFactor
$LN2@SetTarget:

; 812  : }

  00024	5d		 pop	 ebp
  00025	c2 08 00	 ret	 8
?SetTarget@CAIMeteonyker@@QAEXKK@Z ENDP			; CAIMeteonyker::SetTarget
_TEXT	ENDS
; Function compile flags: /Ogtp
; File C:\IAGOS\server\v18\Source\Source\_AIInterface\aimeteonyker.h
;	COMDAT ?IsReturnToBegin@CAIMeteonyker@@UAEHXZ
_TEXT	SEGMENT
?IsReturnToBegin@CAIMeteonyker@@UAEHXZ PROC		; CAIMeteonyker::IsReturnToBegin, COMDAT
; _this$ = ecx

; 76   : 	virtual	BOOL	IsReturnToBegin( void )		{	return m_bReturnToBegin;	}

  00000	8b 41 7c	 mov	 eax, DWORD PTR [ecx+124]
  00003	c3		 ret	 0
?IsReturnToBegin@CAIMeteonyker@@UAEHXZ ENDP		; CAIMeteonyker::IsReturnToBegin
_TEXT	ENDS
; Function compile flags: /Ogtp
; File C:\IAGOS\server\v18\Source\Source\_AIInterface\aimeteonyker.cpp
; File C:\IAGOS\server\v18\Source\Source\_Common\Obj.h
; File C:\IAGOS\server\v18\Source\Source\_AIInterface\aimeteonyker.cpp
;	COMDAT ?InitAI@CAIMeteonyker@@UAEXXZ
_TEXT	SEGMENT
?InitAI@CAIMeteonyker@@UAEXXZ PROC			; CAIMeteonyker::InitAI, COMDAT
; _this$ = ecx
; File C:\IAGOS\server\v18\Source\Source\_Common\Obj.h

; 215  : 	D3DXVECTOR3		GetPos()	{ return m_vPos; }

  00000	8b 51 30	 mov	 edx, DWORD PTR [ecx+48]
; File C:\IAGOS\server\v18\Source\Source\_AIInterface\aimeteonyker.cpp

; 82   : 	PostAIMsg( AIMSG_SETSTATE, GetMover()->m_dwAIInterfaceState ); 	

  00003	6a 00		 push	 0
  00005	6a 00		 push	 0
  00007	f3 0f 7e 82 60
	01 00 00	 movq	 xmm0, QWORD PTR [edx+352]
  0000f	66 0f d6 41 70	 movq	 QWORD PTR [ecx+112], xmm0
  00014	8b 82 68 01 00
	00		 mov	 eax, DWORD PTR [edx+360]
  0001a	89 41 78	 mov	 DWORD PTR [ecx+120], eax
  0001d	ff b2 90 01 00
	00		 push	 DWORD PTR [edx+400]
  00023	8b 01		 mov	 eax, DWORD PTR [ecx]
  00025	6a 04		 push	 4
  00027	ff 50 10	 call	 DWORD PTR [eax+16]

; 83   : }

  0002a	c3		 ret	 0
?InitAI@CAIMeteonyker@@UAEXXZ ENDP			; CAIMeteonyker::InitAI
_TEXT	ENDS
; Function compile flags: /Ogtp
; File C:\IAGOS\server\v18\Source\Source\_AIInterface\aimeteonyker.cpp
;	COMDAT ??1CAIMeteonyker@@UAE@XZ
_TEXT	SEGMENT
??1CAIMeteonyker@@UAE@XZ PROC				; CAIMeteonyker::~CAIMeteonyker, COMDAT
; _this$ = ecx

; 50   : {

  00000	56		 push	 esi
  00001	8b f1		 mov	 esi, ecx
  00003	c7 06 00 00 00
	00		 mov	 DWORD PTR [esi], OFFSET ??_7CAIMeteonyker@@6B@

; 51   : 	Destroy();

  00009	e8 00 00 00 00	 call	 ?Destroy@CAIMeteonyker@@AAEXXZ ; CAIMeteonyker::Destroy

; 52   : }

  0000e	8d 4e 44	 lea	 ecx, DWORD PTR [esi+68]
  00011	e8 00 00 00 00	 call	 ??1?$_Tree@V?$_Tmap_traits@KHU?$less@K@std@@V?$allocator@U?$pair@$$CBKH@std@@@2@$0A@@std@@@std@@QAE@XZ ; std::_Tree<std::_Tmap_traits<unsigned long,int,std::less<unsigned long>,std::allocator<std::pair<unsigned long const ,int> >,0> >::~_Tree<std::_Tmap_traits<unsigned long,int,std::less<unsigned long>,std::allocator<std::pair<unsigned long const ,int> >,0> >
  00016	8b ce		 mov	 ecx, esi
  00018	5e		 pop	 esi
  00019	e9 00 00 00 00	 jmp	 ??1CAIInterface@@UAE@XZ	; CAIInterface::~CAIInterface
??1CAIMeteonyker@@UAE@XZ ENDP				; CAIMeteonyker::~CAIMeteonyker
_TEXT	ENDS
; Function compile flags: /Ogtp
; File C:\IAGOS\server\v18\Source\Source\_AIInterface\aimeteonyker.cpp
; File C:\Program Files\Microsoft Visual Studio\2022\Professional\VC\Tools\MSVC\14.44.35207\include\xmemory
; File C:\IAGOS\server\v18\Source\Source\_AIInterface\aimeteonyker.cpp
; File C:\Program Files\Microsoft Visual Studio\2022\Professional\VC\Tools\MSVC\14.44.35207\include\xtree
; File C:\Program Files\Microsoft Visual Studio\2022\Professional\VC\Tools\MSVC\14.44.35207\include\xmemory
; File C:\Program Files\Microsoft Visual Studio\2022\Professional\VC\Tools\MSVC\14.44.35207\include\xtree
; File C:\IAGOS\server\v18\Source\Source\_AIInterface\aimeteonyker.cpp
;	COMDAT ??0CAIMeteonyker@@QAE@PAVCObj@@@Z
_TEXT	SEGMENT
_this$ = -16						; size = 4
__$EHRec$ = -12						; size = 12
_pObj$ = 8						; size = 4
_this$ = 8						; size = 4
??0CAIMeteonyker@@QAE@PAVCObj@@@Z PROC			; CAIMeteonyker::CAIMeteonyker, COMDAT
; _this$ = ecx

; 45   : {

  00000	55		 push	 ebp
  00001	8b ec		 mov	 ebp, esp
  00003	6a ff		 push	 -1
  00005	68 00 00 00 00	 push	 __ehhandler$??0CAIMeteonyker@@QAE@PAVCObj@@@Z
  0000a	64 a1 00 00 00
	00		 mov	 eax, DWORD PTR fs:0
  00010	50		 push	 eax
  00011	51		 push	 ecx
  00012	56		 push	 esi
  00013	57		 push	 edi
  00014	a1 00 00 00 00	 mov	 eax, DWORD PTR ___security_cookie
  00019	33 c5		 xor	 eax, ebp
  0001b	50		 push	 eax
  0001c	8d 45 f4	 lea	 eax, DWORD PTR __$EHRec$[ebp]
  0001f	64 a3 00 00 00
	00		 mov	 DWORD PTR fs:0, eax
  00025	8b f9		 mov	 edi, ecx
  00027	89 7d f0	 mov	 DWORD PTR _this$[ebp], edi

; 44   : CAIMeteonyker::CAIMeteonyker( CObj* pObj ) : CAIInterface( pObj )

  0002a	ff 75 08	 push	 DWORD PTR _pObj$[ebp]
  0002d	e8 00 00 00 00	 call	 ??0CAIInterface@@QAE@PAVCObj@@@Z ; CAIInterface::CAIInterface

; 45   : {

  00032	8d 77 44	 lea	 esi, DWORD PTR [edi+68]
  00035	c7 07 00 00 00
	00		 mov	 DWORD PTR [edi], OFFSET ??_7CAIMeteonyker@@6B@
; File C:\Program Files\Microsoft Visual Studio\2022\Professional\VC\Tools\MSVC\14.44.35207\include\xmemory

; 136  :         return ::operator new(_Bytes);

  0003b	6a 18		 push	 24			; 00000018H
; File C:\IAGOS\server\v18\Source\Source\_AIInterface\aimeteonyker.cpp

; 44   : CAIMeteonyker::CAIMeteonyker( CObj* pObj ) : CAIInterface( pObj )

  0003d	c7 45 fc 00 00
	00 00		 mov	 DWORD PTR __$EHRec$[ebp+8], 0

; 45   : {

  00044	89 75 08	 mov	 DWORD PTR _this$[ebp], esi
; File C:\Program Files\Microsoft Visual Studio\2022\Professional\VC\Tools\MSVC\14.44.35207\include\xtree

; 450  :     _Tree_val() noexcept : _Myhead(), _Mysize(0) {}

  00047	c7 06 00 00 00
	00		 mov	 DWORD PTR [esi], 0
  0004d	c7 46 04 00 00
	00 00		 mov	 DWORD PTR [esi+4], 0
; File C:\Program Files\Microsoft Visual Studio\2022\Professional\VC\Tools\MSVC\14.44.35207\include\xmemory

; 136  :         return ::operator new(_Bytes);

  00054	e8 00 00 00 00	 call	 ??2@YAPAXI@Z		; operator new
  00059	83 c4 04	 add	 esp, 4
; File C:\Program Files\Microsoft Visual Studio\2022\Professional\VC\Tools\MSVC\14.44.35207\include\xtree

; 346  :         _Construct_in_place(_Pnode->_Left, _Pnode);

  0005c	89 00		 mov	 DWORD PTR [eax], eax

; 347  :         _Construct_in_place(_Pnode->_Parent, _Pnode);

  0005e	89 40 04	 mov	 DWORD PTR [eax+4], eax

; 348  :         _Construct_in_place(_Pnode->_Right, _Pnode);

  00061	89 40 08	 mov	 DWORD PTR [eax+8], eax

; 349  :         _Pnode->_Color = _Black;

  00064	66 c7 40 0c 01
	01		 mov	 WORD PTR [eax+12], 257	; 00000101H

; 1957 :         _Scary->_Myhead = _Node::_Buyheadnode(_Getal());

  0006a	89 06		 mov	 DWORD PTR [esi], eax
; File C:\IAGOS\server\v18\Source\Source\_AIInterface\aimeteonyker.cpp

; 46   : 	Init();

  0006c	8b cf		 mov	 ecx, edi
  0006e	c6 45 fc 01	 mov	 BYTE PTR __$EHRec$[ebp+8], 1
  00072	e8 00 00 00 00	 call	 ?Init@CAIMeteonyker@@AAEXXZ ; CAIMeteonyker::Init

; 47   : }

  00077	8b c7		 mov	 eax, edi
  00079	8b 4d f4	 mov	 ecx, DWORD PTR __$EHRec$[ebp]
  0007c	64 89 0d 00 00
	00 00		 mov	 DWORD PTR fs:0, ecx
  00083	59		 pop	 ecx
  00084	5f		 pop	 edi
  00085	5e		 pop	 esi
  00086	8b e5		 mov	 esp, ebp
  00088	5d		 pop	 ebp
  00089	c2 04 00	 ret	 4
_TEXT	ENDS
;	COMDAT text$x
text$x	SEGMENT
__unwindfunclet$??0CAIMeteonyker@@QAE@PAVCObj@@@Z$0:
  00000	8b 4d f0	 mov	 ecx, DWORD PTR _this$[ebp]
  00003	e9 00 00 00 00	 jmp	 ??1CAIInterface@@UAE@XZ	; CAIInterface::~CAIInterface
__unwindfunclet$??0CAIMeteonyker@@QAE@PAVCObj@@@Z$1:
  00008	8b 4d f0	 mov	 ecx, DWORD PTR _this$[ebp]
  0000b	83 c1 44	 add	 ecx, 68			; 00000044H
  0000e	e9 00 00 00 00	 jmp	 ??1?$map@KHU?$less@K@std@@V?$allocator@U?$pair@$$CBKH@std@@@2@@std@@QAE@XZ
  00013	cc		 int	 3
  00014	cc		 int	 3
  00015	cc		 int	 3
  00016	cc		 int	 3
  00017	cc		 int	 3
__ehhandler$??0CAIMeteonyker@@QAE@PAVCObj@@@Z:
  00018	90		 npad	 1
  00019	90		 npad	 1
  0001a	8b 54 24 08	 mov	 edx, DWORD PTR [esp+8]
  0001e	8d 42 0c	 lea	 eax, DWORD PTR [edx+12]
  00021	8b 4a f0	 mov	 ecx, DWORD PTR [edx-16]
  00024	33 c8		 xor	 ecx, eax
  00026	e8 00 00 00 00	 call	 @__security_check_cookie@4
  0002b	b8 00 00 00 00	 mov	 eax, OFFSET __ehfuncinfo$??0CAIMeteonyker@@QAE@PAVCObj@@@Z
  00030	e9 00 00 00 00	 jmp	 ___CxxFrameHandler3
text$x	ENDS
??0CAIMeteonyker@@QAE@PAVCObj@@@Z ENDP			; CAIMeteonyker::CAIMeteonyker
; Function compile flags: /Ogtp
; File C:\IAGOS\server\v18\Source\Source\_AIInterface\aimeteonyker.cpp
; File C:\Program Files\Microsoft Visual Studio\2022\Professional\VC\Tools\MSVC\14.44.35207\include\xmemory
; File C:\IAGOS\server\v18\Source\Source\_AIInterface\aimeteonyker.cpp
; File C:\Program Files\Microsoft Visual Studio\2022\Professional\VC\Tools\MSVC\14.44.35207\include\xtree
; File C:\Program Files\Microsoft Visual Studio\2022\Professional\VC\Tools\MSVC\14.44.35207\include\xmemory
; File C:\Program Files\Microsoft Visual Studio\2022\Professional\VC\Tools\MSVC\14.44.35207\include\xtree
; File C:\IAGOS\server\v18\Source\Source\_AIInterface\aimeteonyker.cpp
;	COMDAT ??0CAIMeteonyker@@QAE@XZ
_TEXT	SEGMENT
_this$ = -20						; size = 4
_this$ = -16						; size = 4
__$EHRec$ = -12						; size = 12
??0CAIMeteonyker@@QAE@XZ PROC				; CAIMeteonyker::CAIMeteonyker, COMDAT
; _this$ = ecx

; 40   : {

  00000	55		 push	 ebp
  00001	8b ec		 mov	 ebp, esp
  00003	6a ff		 push	 -1
  00005	68 00 00 00 00	 push	 __ehhandler$??0CAIMeteonyker@@QAE@XZ
  0000a	64 a1 00 00 00
	00		 mov	 eax, DWORD PTR fs:0
  00010	50		 push	 eax
  00011	83 ec 08	 sub	 esp, 8
  00014	56		 push	 esi
  00015	57		 push	 edi
  00016	a1 00 00 00 00	 mov	 eax, DWORD PTR ___security_cookie
  0001b	33 c5		 xor	 eax, ebp
  0001d	50		 push	 eax
  0001e	8d 45 f4	 lea	 eax, DWORD PTR __$EHRec$[ebp]
  00021	64 a3 00 00 00
	00		 mov	 DWORD PTR fs:0, eax
  00027	8b f9		 mov	 edi, ecx
  00029	89 7d f0	 mov	 DWORD PTR _this$[ebp], edi
  0002c	e8 00 00 00 00	 call	 ??0CAIInterface@@QAE@XZ	; CAIInterface::CAIInterface
  00031	8d 77 44	 lea	 esi, DWORD PTR [edi+68]
  00034	c7 07 00 00 00
	00		 mov	 DWORD PTR [edi], OFFSET ??_7CAIMeteonyker@@6B@
; File C:\Program Files\Microsoft Visual Studio\2022\Professional\VC\Tools\MSVC\14.44.35207\include\xmemory

; 136  :         return ::operator new(_Bytes);

  0003a	6a 18		 push	 24			; 00000018H
; File C:\IAGOS\server\v18\Source\Source\_AIInterface\aimeteonyker.cpp

; 40   : {

  0003c	c7 45 fc 00 00
	00 00		 mov	 DWORD PTR __$EHRec$[ebp+8], 0
  00043	89 75 ec	 mov	 DWORD PTR _this$[ebp], esi
; File C:\Program Files\Microsoft Visual Studio\2022\Professional\VC\Tools\MSVC\14.44.35207\include\xtree

; 450  :     _Tree_val() noexcept : _Myhead(), _Mysize(0) {}

  00046	c7 06 00 00 00
	00		 mov	 DWORD PTR [esi], 0
  0004c	c7 46 04 00 00
	00 00		 mov	 DWORD PTR [esi+4], 0
; File C:\Program Files\Microsoft Visual Studio\2022\Professional\VC\Tools\MSVC\14.44.35207\include\xmemory

; 136  :         return ::operator new(_Bytes);

  00053	e8 00 00 00 00	 call	 ??2@YAPAXI@Z		; operator new
  00058	83 c4 04	 add	 esp, 4
; File C:\Program Files\Microsoft Visual Studio\2022\Professional\VC\Tools\MSVC\14.44.35207\include\xtree

; 346  :         _Construct_in_place(_Pnode->_Left, _Pnode);

  0005b	89 00		 mov	 DWORD PTR [eax], eax

; 347  :         _Construct_in_place(_Pnode->_Parent, _Pnode);

  0005d	89 40 04	 mov	 DWORD PTR [eax+4], eax

; 348  :         _Construct_in_place(_Pnode->_Right, _Pnode);

  00060	89 40 08	 mov	 DWORD PTR [eax+8], eax

; 349  :         _Pnode->_Color = _Black;

  00063	66 c7 40 0c 01
	01		 mov	 WORD PTR [eax+12], 257	; 00000101H

; 1957 :         _Scary->_Myhead = _Node::_Buyheadnode(_Getal());

  00069	89 06		 mov	 DWORD PTR [esi], eax
; File C:\IAGOS\server\v18\Source\Source\_AIInterface\aimeteonyker.cpp

; 41   : 	Init();

  0006b	8b cf		 mov	 ecx, edi
  0006d	c6 45 fc 01	 mov	 BYTE PTR __$EHRec$[ebp+8], 1
  00071	e8 00 00 00 00	 call	 ?Init@CAIMeteonyker@@AAEXXZ ; CAIMeteonyker::Init

; 42   : }

  00076	8b c7		 mov	 eax, edi
  00078	8b 4d f4	 mov	 ecx, DWORD PTR __$EHRec$[ebp]
  0007b	64 89 0d 00 00
	00 00		 mov	 DWORD PTR fs:0, ecx
  00082	59		 pop	 ecx
  00083	5f		 pop	 edi
  00084	5e		 pop	 esi
  00085	8b e5		 mov	 esp, ebp
  00087	5d		 pop	 ebp
  00088	c3		 ret	 0
_TEXT	ENDS
;	COMDAT text$x
text$x	SEGMENT
__unwindfunclet$??0CAIMeteonyker@@QAE@XZ$0:
  00000	8b 4d f0	 mov	 ecx, DWORD PTR _this$[ebp]
  00003	e9 00 00 00 00	 jmp	 ??1CAIInterface@@UAE@XZ	; CAIInterface::~CAIInterface
__unwindfunclet$??0CAIMeteonyker@@QAE@XZ$1:
  00008	8b 4d f0	 mov	 ecx, DWORD PTR _this$[ebp]
  0000b	83 c1 44	 add	 ecx, 68			; 00000044H
  0000e	e9 00 00 00 00	 jmp	 ??1?$map@KHU?$less@K@std@@V?$allocator@U?$pair@$$CBKH@std@@@2@@std@@QAE@XZ
  00013	cc		 int	 3
  00014	cc		 int	 3
  00015	cc		 int	 3
  00016	cc		 int	 3
  00017	cc		 int	 3
__ehhandler$??0CAIMeteonyker@@QAE@XZ:
  00018	90		 npad	 1
  00019	90		 npad	 1
  0001a	8b 54 24 08	 mov	 edx, DWORD PTR [esp+8]
  0001e	8d 42 0c	 lea	 eax, DWORD PTR [edx+12]
  00021	8b 4a ec	 mov	 ecx, DWORD PTR [edx-20]
  00024	33 c8		 xor	 ecx, eax
  00026	e8 00 00 00 00	 call	 @__security_check_cookie@4
  0002b	b8 00 00 00 00	 mov	 eax, OFFSET __ehfuncinfo$??0CAIMeteonyker@@QAE@XZ
  00030	e9 00 00 00 00	 jmp	 ___CxxFrameHandler3
text$x	ENDS
??0CAIMeteonyker@@QAE@XZ ENDP				; CAIMeteonyker::CAIMeteonyker
; Function compile flags: /Ogtp
; File C:\IAGOS\server\v18\Source\Source\_AIInterface\aimeteonyker.cpp
; File C:\IAGOS\server\v18\Source\Source\_Common\Obj.h
; File C:\IAGOS\server\v18\Source\Source\_AIInterface\aimeteonyker.cpp
;	COMDAT ?GetTarget@CAIMeteonyker@@AAEPAVCMover@@K@Z
_TEXT	SEGMENT
_objid$ = 8						; size = 4
?GetTarget@CAIMeteonyker@@AAEPAVCMover@@K@Z PROC	; CAIMeteonyker::GetTarget, COMDAT
; _this$ = ecx

; 854  : {

  00000	55		 push	 ebp
  00001	8b ec		 mov	 ebp, esp
  00003	56		 push	 esi

; 855  : 	CMover* pTarget	= prj.GetMover( objid );

  00004	ff 75 08	 push	 DWORD PTR _objid$[ebp]
  00007	8b f1		 mov	 esi, ecx
  00009	b9 00 00 00 00	 mov	 ecx, OFFSET ?prj@@3VCProject@@A ; prj
  0000e	e8 00 00 00 00	 call	 ?GetMover@CProject@@QAEPAVCMover@@K@Z ; CProject::GetMover
  00013	8b d0		 mov	 edx, eax
; File C:\IAGOS\server\v18\Source\Source\_Common\Obj.h

; 327  : 	return pObj && ( pObj->IsDelete() == FALSE ); 

  00015	85 d2		 test	 edx, edx
  00017	74 1f		 je	 SHORT $LN2@GetTarget

; 180  : 	BOOL			IsDelete()	{ return (m_dwFlags & OBJ_FLAG_DELETE);  }

  00019	f6 42 04 01	 test	 BYTE PTR [edx+4], 1

; 327  : 	return pObj && ( pObj->IsDelete() == FALSE ); 

  0001d	75 19		 jne	 SHORT $LN2@GetTarget
; File C:\IAGOS\server\v18\Source\Source\_AIInterface\aimeteonyker.cpp

; 856  : 	if( IsValidObj( pTarget ) && GetMover()->GetWorld() == pTarget->GetWorld() )

  0001f	8b 4e 30	 mov	 ecx, DWORD PTR [esi+48]
  00022	33 c0		 xor	 eax, eax
  00024	5e		 pop	 esi
  00025	8b 89 6c 01 00
	00		 mov	 ecx, DWORD PTR [ecx+364]
  0002b	3b 8a 6c 01 00
	00		 cmp	 ecx, DWORD PTR [edx+364]
  00031	0f 44 c2	 cmove	 eax, edx

; 859  : }

  00034	5d		 pop	 ebp
  00035	c2 04 00	 ret	 4
$LN2@GetTarget:

; 857  : 		return pTarget;
; 858  : 	return NULL;

  00038	33 c0		 xor	 eax, eax
  0003a	5e		 pop	 esi

; 859  : }

  0003b	5d		 pop	 ebp
  0003c	c2 04 00	 ret	 4
?GetTarget@CAIMeteonyker@@AAEPAVCMover@@K@Z ENDP	; CAIMeteonyker::GetTarget
_TEXT	ENDS
; Function compile flags: /Ogtp
; File C:\IAGOS\server\v18\Source\Source\_AIInterface\aimeteonyker.cpp
;	COMDAT ?DoReturnToBegin@CAIMeteonyker@@AAEXH@Z
_TEXT	SEGMENT
_bReturn$ = 8						; size = 4
?DoReturnToBegin@CAIMeteonyker@@AAEXH@Z PROC		; CAIMeteonyker::DoReturnToBegin, COMDAT
; _this$ = ecx

; 154  : {

  00000	55		 push	 ebp
  00001	8b ec		 mov	 ebp, esp

; 155  : 	if( bReturn )

  00003	83 7d 08 00	 cmp	 DWORD PTR _bReturn$[ebp], 0
  00007	56		 push	 esi
  00008	6a 00		 push	 0
  0000a	8b f1		 mov	 esi, ecx
  0000c	6a ff		 push	 -1
  0000e	74 37		 je	 SHORT $LN2@DoReturnTo

; 156  : 	{
; 157  : 		m_bReturnToBegin	= TRUE;

  00010	c7 46 7c 01 00
	00 00		 mov	 DWORD PTR [esi+124], 1

; 158  : 		m_tmReturnToBegin	= g_tmCurrent;

  00017	a1 00 00 00 00	 mov	 eax, DWORD PTR ?g_tmCurrent@@3KA ; g_tmCurrent
  0001c	89 86 80 00 00
	00		 mov	 DWORD PTR [esi+128], eax

; 159  : 		SetTarget( NULL_ID, 0 );

  00022	e8 00 00 00 00	 call	 ?SetTarget@CAIMeteonyker@@QAEXKK@Z ; CAIMeteonyker::SetTarget

; 160  : 		CMover* pMover	= GetMover();
; 161  : 		pMover->SetSpeedFactor( 2.66F );

  00027	51		 push	 ecx
  00028	8b 4e 30	 mov	 ecx, DWORD PTR [esi+48]
  0002b	c7 04 24 71 3d
	2a 40		 mov	 DWORD PTR [esp], 1076510065 ; 402a3d71H
  00032	e8 00 00 00 00	 call	 ?SetSpeedFactor@CMover@@QAEXM@Z ; CMover::SetSpeedFactor

; 162  : 		MoveToDst( m_vPosBegin );

  00037	8d 46 70	 lea	 eax, DWORD PTR [esi+112]
  0003a	8b ce		 mov	 ecx, esi
  0003c	50		 push	 eax
  0003d	e8 00 00 00 00	 call	 ?MoveToDst@CAIMeteonyker@@AAEXABUD3DXVECTOR3@@@Z ; CAIMeteonyker::MoveToDst
  00042	5e		 pop	 esi

; 168  : //		CMover* pMover	= GetMover();
; 169  : //		pMover->SetPointParam( DST_HP, pMover->GetMaxHitPoint() );
; 170  : //		pMover->RemoveAllEnemies();
; 171  : //		m_bHeal		= FALSE;
; 172  : 	}
; 173  : }

  00043	5d		 pop	 ebp
  00044	c2 04 00	 ret	 4
$LN2@DoReturnTo:

; 163  : 	}
; 164  : 	else
; 165  : 	{
; 166  : 		m_bReturnToBegin	= FALSE;

  00047	c7 46 7c 00 00
	00 00		 mov	 DWORD PTR [esi+124], 0

; 167  : 		SetTarget( NULL_ID, 0 );

  0004e	e8 00 00 00 00	 call	 ?SetTarget@CAIMeteonyker@@QAEXKK@Z ; CAIMeteonyker::SetTarget
  00053	5e		 pop	 esi

; 168  : //		CMover* pMover	= GetMover();
; 169  : //		pMover->SetPointParam( DST_HP, pMover->GetMaxHitPoint() );
; 170  : //		pMover->RemoveAllEnemies();
; 171  : //		m_bHeal		= FALSE;
; 172  : 	}
; 173  : }

  00054	5d		 pop	 ebp
  00055	c2 04 00	 ret	 4
?DoReturnToBegin@CAIMeteonyker@@AAEXH@Z ENDP		; CAIMeteonyker::DoReturnToBegin
_TEXT	ENDS
; Function compile flags: /Ogtp
; File C:\IAGOS\server\v18\Source\Source\_AIInterface\aimeteonyker.cpp
; File C:\IAGOS\server\v18\Source\Source\DX_SDK\d3dx9math.inl
; File C:\IAGOS\server\v18\Source\Source\_AIInterface\aimeteonyker.cpp
; File C:\IAGOS\server\v18\Source\Source\DX_SDK\d3dx9math.inl
; File C:\IAGOS\server\v18\Source\Source\_AIInterface\aimeteonyker.cpp
;	COMDAT ?IsInRange@CAIMeteonyker@@AAEHABUD3DXVECTOR3@@M@Z
_TEXT	SEGMENT
_vDistant$ = 8						; size = 4
_fRange$ = 12						; size = 4
?IsInRange@CAIMeteonyker@@AAEHABUD3DXVECTOR3@@M@Z PROC	; CAIMeteonyker::IsInRange, COMDAT
; _this$ = ecx

; 146  : {

  00000	55		 push	 ebp
  00001	8b ec		 mov	 ebp, esp
; File C:\IAGOS\server\v18\Source\Source\DX_SDK\d3dx9math.inl

; 1698 :     return pV->x * pV->x + pV->y * pV->y + pV->z * pV->z;

  00003	8b 45 08	 mov	 eax, DWORD PTR _vDistant$[ebp]
  00006	f3 0f 10 48 04	 movss	 xmm1, DWORD PTR [eax+4]
  0000b	f3 0f 10 10	 movss	 xmm2, DWORD PTR [eax]
  0000f	f3 0f 10 40 08	 movss	 xmm0, DWORD PTR [eax+8]
; File C:\IAGOS\server\v18\Source\Source\_AIInterface\aimeteonyker.cpp

; 148  : 	if( fDistSq > fRange * fRange )	

  00014	33 c0		 xor	 eax, eax
; File C:\IAGOS\server\v18\Source\Source\DX_SDK\d3dx9math.inl

; 1698 :     return pV->x * pV->x + pV->y * pV->y + pV->z * pV->z;

  00016	f3 0f 59 d2	 mulss	 xmm2, xmm2
  0001a	f3 0f 59 c9	 mulss	 xmm1, xmm1
  0001e	f3 0f 59 c0	 mulss	 xmm0, xmm0
  00022	f3 0f 58 d1	 addss	 xmm2, xmm1
  00026	f3 0f 58 d0	 addss	 xmm2, xmm0
; File C:\IAGOS\server\v18\Source\Source\_AIInterface\aimeteonyker.cpp

; 148  : 	if( fDistSq > fRange * fRange )	

  0002a	f3 0f 10 45 0c	 movss	 xmm0, DWORD PTR _fRange$[ebp]
  0002f	f3 0f 59 c0	 mulss	 xmm0, xmm0
  00033	0f 2f d0	 comiss	 xmm2, xmm0
  00036	0f 96 c0	 setbe	 al

; 149  : 		return FALSE;
; 150  : 	return TRUE;
; 151  : }

  00039	5d		 pop	 ebp
  0003a	c2 08 00	 ret	 8
?IsInRange@CAIMeteonyker@@AAEHABUD3DXVECTOR3@@M@Z ENDP	; CAIMeteonyker::IsInRange
_TEXT	ENDS
; Function compile flags: /Ogtp
; File C:\IAGOS\server\v18\Source\Source\_AIInterface\aimeteonyker.cpp
; File C:\IAGOS\server\v18\Source\Source\_Common\xUtil.h
; File C:\IAGOS\server\v18\Source\Source\_AIInterface\aimeteonyker.cpp
; File C:\IAGOS\server\v18\Source\Source\_Common\xUtil.h
; File C:\IAGOS\server\v18\Source\Source\_AIInterface\aimeteonyker.cpp
; File C:\IAGOS\server\v18\Source\Source\_Common\Obj.h
; File C:\IAGOS\server\v18\Source\Source\_Common\xUtil.h
; File C:\IAGOS\server\v18\Source\Source\_AIInterface\aimeteonyker.cpp
; File C:\IAGOS\server\v18\Source\Source\_Common\xUtil.h
; File C:\IAGOS\server\v18\Source\Source\_AIInterface\aimeteonyker.cpp
; File C:\IAGOS\server\v18\Source\Source\DX_SDK\d3dx9math.inl
; File C:\IAGOS\server\v18\Source\Source\_AIInterface\aimeteonyker.cpp
; File C:\IAGOS\server\v18\Source\Source\DX_SDK\d3dx9math.inl
; File C:\IAGOS\server\v18\Source\Source\_AIInterface\aimeteonyker.cpp
; File C:\IAGOS\server\v18\Source\Source\_Common\Obj.h
; File C:\IAGOS\server\v18\Source\Source\DX_SDK\d3dx9math.inl
; File C:\IAGOS\server\v18\Source\Source\_Common\Obj.h
; File C:\IAGOS\server\v18\Source\Source\_AIInterface\aimeteonyker.cpp
; File C:\IAGOS\server\v18\Source\Source\DX_SDK\d3dx9math.inl
; File C:\IAGOS\server\v18\Source\Source\_AIInterface\aimeteonyker.cpp
; File C:\IAGOS\server\v18\Source\Source\DX_SDK\d3dx9math.inl
; File C:\IAGOS\server\v18\Source\Source\_AIInterface\aimeteonyker.cpp
;	COMDAT ?MoveToRandom@CAIMeteonyker@@AAEXI@Z
_TEXT	SEGMENT
$T1 = -40						; size = 12
_vDistant$2 = -28					; size = 12
_vPos$ = -16						; size = 12
__$ArrayPad$ = -4					; size = 4
_nState$ = 8						; size = 4
?MoveToRandom@CAIMeteonyker@@AAEXI@Z PROC		; CAIMeteonyker::MoveToRandom, COMDAT
; _this$ = ecx

; 108  : {

  00000	55		 push	 ebp
  00001	8b ec		 mov	 ebp, esp
  00003	83 ec 28	 sub	 esp, 40			; 00000028H
  00006	a1 00 00 00 00	 mov	 eax, DWORD PTR ___security_cookie
  0000b	33 c5		 xor	 eax, ebp
  0000d	89 45 fc	 mov	 DWORD PTR __$ArrayPad$[ebp], eax
  00010	53		 push	 ebx
  00011	56		 push	 esi
  00012	57		 push	 edi
  00013	8b f9		 mov	 edi, ecx
; File C:\IAGOS\server\v18\Source\Source\_Common\xUtil.h

; 16   : 	g_next = g_next * 1103515245 + 12345;// + nRandomSeed[ i++ ];

  00015	69 0d 00 00 00
	00 6d 4e c6 41	 imul	 ecx, DWORD PTR ?g_next@@3KA, 1103515245 ; g_next
; File C:\IAGOS\server\v18\Source\Source\_AIInterface\aimeteonyker.cpp

; 109  : 	CMover* pMover	= GetMover();

  0001f	8b 5f 30	 mov	 ebx, DWORD PTR [edi+48]
; File C:\IAGOS\server\v18\Source\Source\_Common\xUtil.h

; 16   : 	g_next = g_next * 1103515245 + 12345;// + nRandomSeed[ i++ ];

  00022	81 c1 39 30 00
	00		 add	 ecx, 12345		; 00003039H
; File C:\IAGOS\server\v18\Source\Source\_AIInterface\aimeteonyker.cpp

; 113  : 	DWORD x1	= xRand();

  00028	69 f1 6d 4e c6
	41		 imul	 esi, ecx, 1103515245
; File C:\IAGOS\server\v18\Source\Source\_Common\Obj.h

; 215  : 	D3DXVECTOR3		GetPos()	{ return m_vPos; }

  0002e	f3 0f 7e 83 60
	01 00 00	 movq	 xmm0, QWORD PTR [ebx+352]
  00036	66 0f d6 45 f0	 movq	 QWORD PTR _vPos$[ebp], xmm0
  0003b	8b 83 68 01 00
	00		 mov	 eax, DWORD PTR [ebx+360]
  00041	89 45 f8	 mov	 DWORD PTR _vPos$[ebp+8], eax
; File C:\IAGOS\server\v18\Source\Source\_Common\xUtil.h

; 16   : 	g_next = g_next * 1103515245 + 12345;// + nRandomSeed[ i++ ];

  00044	81 c6 39 30 00
	00		 add	 esi, 12345		; 00003039H
; File C:\IAGOS\server\v18\Source\Source\_AIInterface\aimeteonyker.cpp

; 116  : 	vPos.x	+= int( x1 % 21 ) - 10;

  0004a	b8 87 61 18 86	 mov	 eax, -2045222521	; 86186187H
; File C:\IAGOS\server\v18\Source\Source\_Common\xUtil.h

; 16   : 	g_next = g_next * 1103515245 + 12345;// + nRandomSeed[ i++ ];

  0004f	89 35 00 00 00
	00		 mov	 DWORD PTR ?g_next@@3KA, esi ; g_next
; File C:\IAGOS\server\v18\Source\Source\_AIInterface\aimeteonyker.cpp

; 116  : 	vPos.x	+= int( x1 % 21 ) - 10;

  00055	f7 e1		 mul	 ecx
  00057	8b c1		 mov	 eax, ecx
  00059	2b c2		 sub	 eax, edx
  0005b	d1 e8		 shr	 eax, 1
  0005d	03 c2		 add	 eax, edx
  0005f	c1 e8 04	 shr	 eax, 4
  00062	6b c0 15	 imul	 eax, eax, 21
  00065	2b c8		 sub	 ecx, eax

; 117  : 	vPos.z	+= int( x2 % 21 ) - 10;

  00067	b8 87 61 18 86	 mov	 eax, -2045222521	; 86186187H
  0006c	f7 e6		 mul	 esi
  0006e	8b c6		 mov	 eax, esi
  00070	83 e9 0a	 sub	 ecx, 10			; 0000000aH
  00073	2b c2		 sub	 eax, edx
  00075	d1 e8		 shr	 eax, 1
  00077	03 c2		 add	 eax, edx
  00079	c1 e8 04	 shr	 eax, 4
  0007c	6b c0 15	 imul	 eax, eax, 21
  0007f	66 0f 6e c1	 movd	 xmm0, ecx
  00083	0f 5b c0	 cvtdq2ps xmm0, xmm0
  00086	2b f0		 sub	 esi, eax
  00088	83 ee 0a	 sub	 esi, 10			; 0000000aH

; 118  : 
; 119  : 	if( nState == STATE_IDLE )

  0008b	83 7d 08 02	 cmp	 DWORD PTR _nState$[ebp], 2
  0008f	f3 0f 58 45 f0	 addss	 xmm0, DWORD PTR _vPos$[ebp]
  00094	66 0f 6e ce	 movd	 xmm1, esi
  00098	0f 5b c9	 cvtdq2ps xmm1, xmm1
  0009b	f3 0f 11 45 f0	 movss	 DWORD PTR _vPos$[ebp], xmm0
  000a0	f3 0f 58 4d f8	 addss	 xmm1, DWORD PTR _vPos$[ebp+8]
  000a5	f3 0f 11 4d f8	 movss	 DWORD PTR _vPos$[ebp+8], xmm1
  000aa	0f 85 ad 00 00
	00		 jne	 $LN2@MoveToRand
; File C:\IAGOS\server\v18\Source\Source\DX_SDK\d3dx9math.inl

; 383  :     return D3DXVECTOR3(x - v.x, y - v.y, z - v.z);

  000b0	f3 0f 5c 47 70	 subss	 xmm0, DWORD PTR [edi+112]
  000b5	f3 0f 5c 4f 78	 subss	 xmm1, DWORD PTR [edi+120]
; File C:\IAGOS\server\v18\Source\Source\_AIInterface\aimeteonyker.cpp

; 125  : 		if( IsInRange( vDistant, fRange ) )

  000ba	51		 push	 ecx
  000bb	8d 45 e4	 lea	 eax, DWORD PTR _vDistant$2[ebp]
  000be	c7 04 24 00 00
	f0 41		 mov	 DWORD PTR [esp], 1106247680 ; 41f00000H
  000c5	50		 push	 eax
  000c6	8b cf		 mov	 ecx, edi
; File C:\IAGOS\server\v18\Source\Source\DX_SDK\d3dx9math.inl

; 300  :     x = fx;

  000c8	f3 0f 11 45 e4	 movss	 DWORD PTR _vDistant$2[ebp], xmm0

; 301  :     y = fy;
; 302  :     z = fz;

  000cd	f3 0f 11 4d ec	 movss	 DWORD PTR _vDistant$2[ebp+8], xmm1
; File C:\IAGOS\server\v18\Source\Source\_AIInterface\aimeteonyker.cpp

; 122  : 		vDistant.y	= 0.0f;

  000d2	c7 45 e8 00 00
	00 00		 mov	 DWORD PTR _vDistant$2[ebp+4], 0

; 125  : 		if( IsInRange( vDistant, fRange ) )

  000d9	e8 00 00 00 00	 call	 ?IsInRange@CAIMeteonyker@@AAEHABUD3DXVECTOR3@@M@Z ; CAIMeteonyker::IsInRange
  000de	85 c0		 test	 eax, eax
  000e0	75 7b		 jne	 SHORT $LN2@MoveToRand

; 126  : 			MoveToDst( vPos );
; 127  : 		else
; 128  : 		{
; 129  : 			if( m_bReturnToBegin )

  000e2	39 47 7c	 cmp	 DWORD PTR [edi+124], eax
  000e5	75 76		 jne	 SHORT $LN2@MoveToRand
; File C:\IAGOS\server\v18\Source\Source\_Common\Obj.h

; 215  : 	D3DXVECTOR3		GetPos()	{ return m_vPos; }

  000e7	f3 0f 7e 83 60
	01 00 00	 movq	 xmm0, QWORD PTR [ebx+352]
  000ef	8b 83 68 01 00
	00		 mov	 eax, DWORD PTR [ebx+360]
  000f5	66 0f d6 45 d8	 movq	 QWORD PTR $T1[ebp], xmm0
; File C:\IAGOS\server\v18\Source\Source\DX_SDK\d3dx9math.inl

; 383  :     return D3DXVECTOR3(x - v.x, y - v.y, z - v.z);

  000fa	f3 0f 10 45 d8	 movss	 xmm0, DWORD PTR $T1[ebp]
  000ff	f3 0f 5c 47 70	 subss	 xmm0, DWORD PTR [edi+112]
; File C:\IAGOS\server\v18\Source\Source\_Common\Obj.h

; 215  : 	D3DXVECTOR3		GetPos()	{ return m_vPos; }

  00104	89 45 e0	 mov	 DWORD PTR $T1[ebp+8], eax
; File C:\IAGOS\server\v18\Source\Source\_AIInterface\aimeteonyker.cpp

; 134  : 				if( IsInRange( vDistant, fRange ) == FALSE )

  00107	8d 45 e4	 lea	 eax, DWORD PTR _vDistant$2[ebp]
  0010a	51		 push	 ecx
  0010b	c7 04 24 00 00
	f0 41		 mov	 DWORD PTR [esp], 1106247680 ; 41f00000H
  00112	8b cf		 mov	 ecx, edi
  00114	50		 push	 eax
  00115	f3 0f 11 45 e4	 movss	 DWORD PTR _vDistant$2[ebp], xmm0
; File C:\IAGOS\server\v18\Source\Source\DX_SDK\d3dx9math.inl

; 383  :     return D3DXVECTOR3(x - v.x, y - v.y, z - v.z);

  0011a	f3 0f 10 45 dc	 movss	 xmm0, DWORD PTR $T1[ebp+4]
  0011f	f3 0f 5c 47 74	 subss	 xmm0, DWORD PTR [edi+116]
; File C:\IAGOS\server\v18\Source\Source\_AIInterface\aimeteonyker.cpp

; 133  : 				vDistant = pMover->GetPos() - m_vPosBegin;

  00124	f3 0f 11 45 e8	 movss	 DWORD PTR _vDistant$2[ebp+4], xmm0
; File C:\IAGOS\server\v18\Source\Source\DX_SDK\d3dx9math.inl

; 383  :     return D3DXVECTOR3(x - v.x, y - v.y, z - v.z);

  00129	f3 0f 10 45 e0	 movss	 xmm0, DWORD PTR $T1[ebp+8]
  0012e	f3 0f 5c 47 78	 subss	 xmm0, DWORD PTR [edi+120]
; File C:\IAGOS\server\v18\Source\Source\_AIInterface\aimeteonyker.cpp

; 133  : 				vDistant = pMover->GetPos() - m_vPosBegin;

  00133	f3 0f 11 45 ec	 movss	 DWORD PTR _vDistant$2[ebp+8], xmm0

; 134  : 				if( IsInRange( vDistant, fRange ) == FALSE )

  00138	e8 00 00 00 00	 call	 ?IsInRange@CAIMeteonyker@@AAEHABUD3DXVECTOR3@@M@Z ; CAIMeteonyker::IsInRange
  0013d	85 c0		 test	 eax, eax
  0013f	75 27		 jne	 SHORT $LN3@MoveToRand

; 135  : 					DoReturnToBegin();

  00141	6a 01		 push	 1
  00143	8b cf		 mov	 ecx, edi
  00145	e8 00 00 00 00	 call	 ?DoReturnToBegin@CAIMeteonyker@@AAEXH@Z ; CAIMeteonyker::DoReturnToBegin
  0014a	5f		 pop	 edi

; 142  : 	}
; 143  : }

  0014b	5e		 pop	 esi
  0014c	5b		 pop	 ebx
  0014d	8b 4d fc	 mov	 ecx, DWORD PTR __$ArrayPad$[ebp]
  00150	33 cd		 xor	 ecx, ebp
  00152	e8 00 00 00 00	 call	 @__security_check_cookie@4
  00157	8b e5		 mov	 esp, ebp
  00159	5d		 pop	 ebp
  0015a	c2 04 00	 ret	 4
$LN2@MoveToRand:

; 136  : 			}
; 137  : 		}
; 138  : 	}
; 139  : 	else
; 140  : 	{
; 141  : 		MoveToDst( vPos );

  0015d	8d 45 f0	 lea	 eax, DWORD PTR _vPos$[ebp]
  00160	8b cf		 mov	 ecx, edi
  00162	50		 push	 eax
  00163	e8 00 00 00 00	 call	 ?MoveToDst@CAIMeteonyker@@AAEXABUD3DXVECTOR3@@@Z ; CAIMeteonyker::MoveToDst
$LN3@MoveToRand:

; 142  : 	}
; 143  : }

  00168	8b 4d fc	 mov	 ecx, DWORD PTR __$ArrayPad$[ebp]
  0016b	5f		 pop	 edi
  0016c	5e		 pop	 esi
  0016d	33 cd		 xor	 ecx, ebp
  0016f	5b		 pop	 ebx
  00170	e8 00 00 00 00	 call	 @__security_check_cookie@4
  00175	8b e5		 mov	 esp, ebp
  00177	5d		 pop	 ebp
  00178	c2 04 00	 ret	 4
?MoveToRandom@CAIMeteonyker@@AAEXI@Z ENDP		; CAIMeteonyker::MoveToRandom
_TEXT	ENDS
; Function compile flags: /Ogtp
; File C:\IAGOS\server\v18\Source\Source\_AIInterface\aimeteonyker.cpp
; File C:\IAGOS\server\v18\Source\Source\_Common\Obj.h
; File C:\IAGOS\server\v18\Source\Source\_AIInterface\aimeteonyker.cpp
;	COMDAT ?MoveToDst@CAIMeteonyker@@AAEXK@Z
_TEXT	SEGMENT
_dwIdTarget$ = 8					; size = 4
?MoveToDst@CAIMeteonyker@@AAEXK@Z PROC			; CAIMeteonyker::MoveToDst, COMDAT
; _this$ = ecx

; 793  : {

  00000	55		 push	 ebp
  00001	8b ec		 mov	 ebp, esp
  00003	53		 push	 ebx
  00004	56		 push	 esi

; 794  : 	CMover* pMover = GetMover();
; 795  : 	if( pMover->GetDestId() == dwIdTarget )

  00005	8b 75 08	 mov	 esi, DWORD PTR _dwIdTarget$[ebp]
  00008	57		 push	 edi
  00009	8b f9		 mov	 edi, ecx
  0000b	8b 5f 30	 mov	 ebx, DWORD PTR [edi+48]
  0000e	39 b3 58 02 00
	00		 cmp	 DWORD PTR [ebx+600], esi
  00014	74 4b		 je	 SHORT $LN1@MoveToDst

; 796  : 		return;
; 797  : //	GetMover()->SetSpeedFactor( 2.0F );
; 798  : 
; 799  : 	CMover* pTarget	= GetTarget( dwIdTarget );

  00016	56		 push	 esi
  00017	e8 00 00 00 00	 call	 ?GetTarget@CAIMeteonyker@@AAEPAVCMover@@K@Z ; CAIMeteonyker::GetTarget
; File C:\IAGOS\server\v18\Source\Source\_Common\Obj.h

; 327  : 	return pObj && ( pObj->IsDelete() == FALSE ); 

  0001c	85 c0		 test	 eax, eax
  0001e	74 19		 je	 SHORT $LN3@MoveToDst

; 180  : 	BOOL			IsDelete()	{ return (m_dwFlags & OBJ_FLAG_DELETE);  }

  00020	f6 40 04 01	 test	 BYTE PTR [eax+4], 1

; 327  : 	return pObj && ( pObj->IsDelete() == FALSE ); 

  00024	75 13		 jne	 SHORT $LN3@MoveToDst
; File C:\IAGOS\server\v18\Source\Source\_AIInterface\aimeteonyker.cpp

; 801  : 		SetTarget( pTarget->GetId(), pTarget->GetPartyId() );

  00026	ff b0 10 07 00
	00		 push	 DWORD PTR [eax+1808]
  0002c	8b cf		 mov	 ecx, edi
  0002e	ff b0 bc 01 00
	00		 push	 DWORD PTR [eax+444]
  00034	e8 00 00 00 00	 call	 ?SetTarget@CAIMeteonyker@@QAEXKK@Z ; CAIMeteonyker::SetTarget
$LN3@MoveToDst:

; 802  : 	pMover->SetDestObj( dwIdTarget );

  00039	6a 00		 push	 0
  0003b	51		 push	 ecx
  0003c	c7 04 24 00 00
	00 00		 mov	 DWORD PTR [esp], 0
  00043	8b cb		 mov	 ecx, ebx
  00045	56		 push	 esi
  00046	e8 00 00 00 00	 call	 ?SetDestObj@CMover@@QAEXKMH@Z ; CMover::SetDestObj

; 803  : 	g_UserMng.AddMoverSetDestObj( (CMover*)pMover, dwIdTarget );

  0004b	6a 00		 push	 0
  0004d	51		 push	 ecx
  0004e	c7 04 24 00 00
	00 00		 mov	 DWORD PTR [esp], 0
  00055	b9 00 00 00 00	 mov	 ecx, OFFSET ?g_UserMng@@3VCUserMng@@A ; g_UserMng
  0005a	56		 push	 esi
  0005b	53		 push	 ebx
  0005c	e8 00 00 00 00	 call	 ?AddMoverSetDestObj@CUserMng@@QAEXPAVCMover@@KMH@Z ; CUserMng::AddMoverSetDestObj
$LN1@MoveToDst:

; 804  : }

  00061	5f		 pop	 edi
  00062	5e		 pop	 esi
  00063	5b		 pop	 ebx
  00064	5d		 pop	 ebp
  00065	c2 04 00	 ret	 4
?MoveToDst@CAIMeteonyker@@AAEXK@Z ENDP			; CAIMeteonyker::MoveToDst
_TEXT	ENDS
; Function compile flags: /Ogtp
; File C:\IAGOS\server\v18\Source\Source\_AIInterface\aimeteonyker.cpp
; File C:\IAGOS\server\v18\Source\Source\DX_SDK\d3dx9math.inl
; File C:\IAGOS\server\v18\Source\Source\_AIInterface\aimeteonyker.cpp
; File C:\IAGOS\server\v18\Source\Source\_Common\Mover.h
; File C:\IAGOS\server\v18\Source\Source\DX_SDK\d3dx9math.inl
; File C:\IAGOS\server\v18\Source\Source\_Common\Mover.h
; File C:\IAGOS\server\v18\Source\Source\DX_SDK\d3dx9math.inl
; File C:\IAGOS\server\v18\Source\Source\_AIInterface\aimeteonyker.cpp
;	COMDAT ?MoveToDst@CAIMeteonyker@@AAEXABUD3DXVECTOR3@@@Z
_TEXT	SEGMENT
$T1 = -12						; size = 12
_vDst$ = 8						; size = 4
?MoveToDst@CAIMeteonyker@@AAEXABUD3DXVECTOR3@@@Z PROC	; CAIMeteonyker::MoveToDst, COMDAT
; _this$ = ecx

; 97   : {

  00000	55		 push	 ebp
  00001	8b ec		 mov	 ebp, esp
  00003	83 ec 0c	 sub	 esp, 12			; 0000000cH
  00006	56		 push	 esi
; File C:\IAGOS\server\v18\Source\Source\DX_SDK\d3dx9math.inl

; 410  :     return x == v.x && y == v.y && z == v.z;

  00007	8b 75 08	 mov	 esi, DWORD PTR _vDst$[ebp]
; File C:\IAGOS\server\v18\Source\Source\_AIInterface\aimeteonyker.cpp

; 97   : {

  0000a	57		 push	 edi

; 98   : 	TRACE( "moveTodst\n" );
; 99   : 	CMover* pMover	= GetMover();

  0000b	8b 79 30	 mov	 edi, DWORD PTR [ecx+48]
; File C:\IAGOS\server\v18\Source\Source\_Common\Mover.h

; 1026 : 	D3DXVECTOR3		GetDestPos()		{ return m_vDestPos; }

  0000e	f3 0f 7e 87 5c
	02 00 00	 movq	 xmm0, QWORD PTR [edi+604]
  00016	8b 87 64 02 00
	00		 mov	 eax, DWORD PTR [edi+612]
  0001c	66 0f d6 45 f4	 movq	 QWORD PTR $T1[ebp], xmm0
; File C:\IAGOS\server\v18\Source\Source\DX_SDK\d3dx9math.inl

; 410  :     return x == v.x && y == v.y && z == v.z;

  00021	f3 0f 10 45 f4	 movss	 xmm0, DWORD PTR $T1[ebp]
  00026	0f 2e 06	 ucomiss xmm0, DWORD PTR [esi]
; File C:\IAGOS\server\v18\Source\Source\_Common\Mover.h

; 1026 : 	D3DXVECTOR3		GetDestPos()		{ return m_vDestPos; }

  00029	89 45 fc	 mov	 DWORD PTR $T1[ebp+8], eax
; File C:\IAGOS\server\v18\Source\Source\DX_SDK\d3dx9math.inl

; 410  :     return x == v.x && y == v.y && z == v.z;

  0002c	9f		 lahf
  0002d	f6 c4 44	 test	 ah, 68			; 00000044H
  00030	7a 1e		 jp	 SHORT $LN10@MoveToDst
  00032	f3 0f 10 45 f8	 movss	 xmm0, DWORD PTR $T1[ebp+4]
  00037	0f 2e 46 04	 ucomiss xmm0, DWORD PTR [esi+4]
  0003b	9f		 lahf
  0003c	f6 c4 44	 test	 ah, 68			; 00000044H
  0003f	7a 0f		 jp	 SHORT $LN10@MoveToDst
  00041	f3 0f 10 45 fc	 movss	 xmm0, DWORD PTR $T1[ebp+8]
  00046	0f 2e 46 08	 ucomiss xmm0, DWORD PTR [esi+8]
  0004a	9f		 lahf
  0004b	f6 c4 44	 test	 ah, 68			; 00000044H
  0004e	7b 24		 jnp	 SHORT $LN1@MoveToDst
$LN10@MoveToDst:
; File C:\IAGOS\server\v18\Source\Source\_AIInterface\aimeteonyker.cpp

; 102  : 	pMover->SetDestPos( vDst );

  00050	6a 01		 push	 1
  00052	6a 01		 push	 1
  00054	56		 push	 esi
  00055	8b cf		 mov	 ecx, edi
  00057	e8 00 00 00 00	 call	 ?SetDestPos@CMover@@QAEXABUD3DXVECTOR3@@_NH@Z ; CMover::SetDestPos

; 103  : 	pMover->m_nCorr		= -1;
; 104  : 	g_UserMng.AddSetDestPos( pMover, vDst, 1 );

  0005c	6a 01		 push	 1
  0005e	56		 push	 esi
  0005f	57		 push	 edi
  00060	b9 00 00 00 00	 mov	 ecx, OFFSET ?g_UserMng@@3VCUserMng@@A ; g_UserMng
  00065	c7 87 74 02 00
	00 ff ff ff ff	 mov	 DWORD PTR [edi+628], -1
  0006f	e8 00 00 00 00	 call	 ?AddSetDestPos@CUserMng@@QAEXPAVCMover@@ABUD3DXVECTOR3@@E@Z ; CUserMng::AddSetDestPos
$LN1@MoveToDst:

; 105  : }

  00074	5f		 pop	 edi
  00075	5e		 pop	 esi
  00076	8b e5		 mov	 esp, ebp
  00078	5d		 pop	 ebp
  00079	c2 04 00	 ret	 4
?MoveToDst@CAIMeteonyker@@AAEXABUD3DXVECTOR3@@@Z ENDP	; CAIMeteonyker::MoveToDst
_TEXT	ENDS
; Function compile flags: /Ogtp
; File C:\IAGOS\server\v18\Source\Source\_AIInterface\aimeteonyker.cpp
; File C:\IAGOS\server\v18\Source\Source\_AIInterface\Action.h
; File C:\IAGOS\server\v18\Source\Source\_AIInterface\aimeteonyker.cpp
;	COMDAT ?IsEndStop@CAIMeteonyker@@AAEHXZ
_TEXT	SEGMENT
?IsEndStop@CAIMeteonyker@@AAEHXZ PROC			; CAIMeteonyker::IsEndStop, COMDAT
; _this$ = ecx

; 93   : 	return ( g_tmCurrent > (DWORD)( m_tmMove ) ) && ( IsMove() == FALSE ); 

  00000	a1 00 00 00 00	 mov	 eax, DWORD PTR ?g_tmCurrent@@3KA ; g_tmCurrent
  00005	3b 81 94 00 00
	00		 cmp	 eax, DWORD PTR [ecx+148]
  0000b	76 2b		 jbe	 SHORT $LN3@IsEndStop
; File C:\IAGOS\server\v18\Source\Source\_AIInterface\Action.h

; 300  : 	DWORD			GetMoveState() { return m_dwState & OBJSTA_MOVE_ALL; }

  0000d	8b 41 30	 mov	 eax, DWORD PTR [ecx+48]
  00010	8b 80 38 02 00
	00		 mov	 eax, DWORD PTR [eax+568]
  00016	8b 40 04	 mov	 eax, DWORD PTR [eax+4]
  00019	25 ff 00 00 00	 and	 eax, 255		; 000000ffH

; 318  : 	BOOL			IsMove() { return ( GetMoveState() == OBJSTA_FMOVE || GetMoveState() == OBJSTA_BMOVE || GetMoveState() == OBJSTA_LEFT || GetMoveState() == OBJSTA_RIGHT ) ? TRUE : FALSE; }  	

  0001e	83 f8 04	 cmp	 eax, 4
  00021	74 15		 je	 SHORT $LN3@IsEndStop
  00023	83 f8 05	 cmp	 eax, 5
  00026	74 10		 je	 SHORT $LN3@IsEndStop
  00028	83 f8 06	 cmp	 eax, 6
  0002b	74 0b		 je	 SHORT $LN3@IsEndStop
  0002d	83 f8 07	 cmp	 eax, 7
  00030	74 06		 je	 SHORT $LN3@IsEndStop
; File C:\IAGOS\server\v18\Source\Source\_AIInterface\aimeteonyker.cpp

; 93   : 	return ( g_tmCurrent > (DWORD)( m_tmMove ) ) && ( IsMove() == FALSE ); 

  00032	b8 01 00 00 00	 mov	 eax, 1

; 94   : }

  00037	c3		 ret	 0
$LN3@IsEndStop:

; 93   : 	return ( g_tmCurrent > (DWORD)( m_tmMove ) ) && ( IsMove() == FALSE ); 

  00038	33 c0		 xor	 eax, eax

; 94   : }

  0003a	c3		 ret	 0
?IsEndStop@CAIMeteonyker@@AAEHXZ ENDP			; CAIMeteonyker::IsEndStop
_TEXT	ENDS
; Function compile flags: /Ogtp
; File C:\IAGOS\server\v18\Source\Source\_AIInterface\aimeteonyker.cpp
; File C:\IAGOS\server\v18\Source\Source\_Common\Mover.h
; File C:\IAGOS\server\v18\Source\Source\_AIInterface\aimeteonyker.cpp
;	COMDAT ?SetStop@CAIMeteonyker@@AAEXK@Z
_TEXT	SEGMENT
_dwTime$ = 8						; size = 4
?SetStop@CAIMeteonyker@@AAEXK@Z PROC			; CAIMeteonyker::SetStop, COMDAT
; _this$ = ecx

; 86   : { 

  00000	55		 push	 ebp
  00001	8b ec		 mov	 ebp, esp

; 87   : 	m_tmMove	= g_tmCurrent + dwTime;

  00003	a1 00 00 00 00	 mov	 eax, DWORD PTR ?g_tmCurrent@@3KA ; g_tmCurrent
  00008	03 45 08	 add	 eax, DWORD PTR _dwTime$[ebp]
  0000b	56		 push	 esi

; 88   : 	GetMover()->SetStop(); 

  0000c	8b 71 30	 mov	 esi, DWORD PTR [ecx+48]
  0000f	89 81 94 00 00
	00		 mov	 DWORD PTR [ecx+148], eax
; File C:\IAGOS\server\v18\Source\Source\_Common\Mover.h

; 1785 : 	if( m_pActMover )	

  00015	8b 8e 38 02 00
	00		 mov	 ecx, DWORD PTR [esi+568]
  0001b	85 c9		 test	 ecx, ecx
  0001d	74 11		 je	 SHORT $LN6@SetStop

; 1786 : 		return m_pActMover->SendActMsg( dwMsg, nParam1, nParam2, nParam3, nParam4 );	

  0001f	8b 01		 mov	 eax, DWORD PTR [ecx]
  00021	6a 00		 push	 0
  00023	6a 00		 push	 0
  00025	6a 00		 push	 0
  00027	6a 00		 push	 0
  00029	6a 00		 push	 0
  0002b	6a 03		 push	 3
  0002d	ff 50 04	 call	 DWORD PTR [eax+4]
$LN6@SetStop:

; 1030 : 	void			ClearDestObj()     	{ m_idDest = NULL_ID; m_fArrivalRange = 0.0f; }

  00030	c7 86 58 02 00
	00 ff ff ff ff	 mov	 DWORD PTR [esi+600], -1
  0003a	c7 86 54 02 00
	00 00 00 00 00	 mov	 DWORD PTR [esi+596], 0
  00044	5e		 pop	 esi
; File C:\IAGOS\server\v18\Source\Source\_AIInterface\aimeteonyker.cpp

; 89   : } 

  00045	5d		 pop	 ebp
  00046	c2 04 00	 ret	 4
?SetStop@CAIMeteonyker@@AAEXK@Z ENDP			; CAIMeteonyker::SetStop
_TEXT	ENDS
; Function compile flags: /Ogtp
; File C:\IAGOS\server\v18\Source\Source\_AIInterface\aimeteonyker.cpp
; File C:\IAGOS\server\v18\Source\Source\_Common\Obj.h
; File C:\IAGOS\server\v18\Source\Source\_AIInterface\aimeteonyker.cpp
; File C:\IAGOS\server\v18\Source\Source\_Common\Mover.h
; File C:\IAGOS\server\v18\Source\Source\_Common\Obj.h
; File C:\IAGOS\server\v18\Source\Source\_Common\Mover.h
; File C:\IAGOS\server\v18\Source\Source\_AIInterface\aimeteonyker.cpp
;	COMDAT ?StateRage@CAIMeteonyker@@AAEHABUAIMSG@@@Z
_TEXT	SEGMENT
_msg$ = 8						; size = 4
_dwMsg$1$ = 8						; size = 4
tv506 = 8						; size = 4
?StateRage@CAIMeteonyker@@AAEHABUAIMSG@@@Z PROC		; CAIMeteonyker::StateRage, COMDAT
; _this$ = ecx

; 296  : {

  00000	55		 push	 ebp
  00001	8b ec		 mov	 ebp, esp
  00003	53		 push	 ebx
  00004	56		 push	 esi
  00005	57		 push	 edi

; 297  : 	CMover* pMover	= GetMover();
; 298  : 	CWorld* pWorld	= GetWorld();
; 299  : 
; 300  : 	BeginAIHandler()
; 301  : 	///////////////////////////////////////////////////////////////////////////////////////////////////
; 302  : 	OnMessage( AIMSG_INIT )

  00006	8b 7d 08	 mov	 edi, DWORD PTR _msg$[ebp]
  00009	8b f1		 mov	 esi, ecx
  0000b	8b 07		 mov	 eax, DWORD PTR [edi]
  0000d	8b 5e 30	 mov	 ebx, DWORD PTR [esi+48]
  00010	83 f8 01	 cmp	 eax, 1
  00013	75 56		 jne	 SHORT $LN8@StateRage

; 303  : 		if( msg.dwParam2 != NULL_ID )

  00015	8b 47 08	 mov	 eax, DWORD PTR [edi+8]
  00018	83 f8 ff	 cmp	 eax, -1
  0001b	74 20		 je	 SHORT $LN11@StateRage

; 304  : 		{
; 305  : 			CMover* pTarget	= GetTarget( msg.dwParam2 );

  0001d	50		 push	 eax
  0001e	e8 00 00 00 00	 call	 ?GetTarget@CAIMeteonyker@@AAEPAVCMover@@K@Z ; CAIMeteonyker::GetTarget
; File C:\IAGOS\server\v18\Source\Source\_Common\Obj.h

; 327  : 	return pObj && ( pObj->IsDelete() == FALSE ); 

  00023	85 c0		 test	 eax, eax
  00025	74 16		 je	 SHORT $LN11@StateRage

; 180  : 	BOOL			IsDelete()	{ return (m_dwFlags & OBJ_FLAG_DELETE);  }

  00027	f6 40 04 01	 test	 BYTE PTR [eax+4], 1

; 327  : 	return pObj && ( pObj->IsDelete() == FALSE ); 

  0002b	75 10		 jne	 SHORT $LN11@StateRage
; File C:\IAGOS\server\v18\Source\Source\_AIInterface\aimeteonyker.cpp

; 307  : 				SetTarget( msg.dwParam2, pTarget->m_idparty );

  0002d	ff b0 10 07 00
	00		 push	 DWORD PTR [eax+1808]
  00033	8b ce		 mov	 ecx, esi
  00035	ff 77 08	 push	 DWORD PTR [edi+8]
  00038	e8 00 00 00 00	 call	 ?SetTarget@CAIMeteonyker@@QAEXKK@Z ; CAIMeteonyker::SetTarget
$LN11@StateRage:

; 308  : 		}
; 309  : 		m_tmAttack = g_tmCurrent + s_tmAttack;

  0003d	a1 00 00 00 00	 mov	 eax, DWORD PTR ?s_tmAttack@@3KA

; 310  : 		m_tmAttackDelay		= g_tmCurrent;
; 311  : 		SetStop( 0 );

  00042	8b ce		 mov	 ecx, esi
  00044	03 05 00 00 00
	00		 add	 eax, DWORD PTR ?g_tmCurrent@@3KA ; g_tmCurrent
  0004a	89 86 84 00 00
	00		 mov	 DWORD PTR [esi+132], eax
  00050	a1 00 00 00 00	 mov	 eax, DWORD PTR ?g_tmCurrent@@3KA ; g_tmCurrent
  00055	6a 00		 push	 0
  00057	89 46 60	 mov	 DWORD PTR [esi+96], eax
  0005a	e8 00 00 00 00	 call	 ?SetStop@CAIMeteonyker@@AAEXK@Z ; CAIMeteonyker::SetStop
  0005f	5f		 pop	 edi

; 375  : 			}
; 376  : 		}
; 377  : 	///////////////////////////////////////////////////////////////////////////////////////////////////
; 378  : 	OnMessage( AIMSG_ATTACK_MELEE )
; 379  : 	///////////////////////////////////////////////////////////////////////////////////////////////////
; 380  : 	OnMessage( AIMSG_END_APPEAR )
; 381  : 	///////////////////////////////////////////////////////////////////////////////////////////////////
; 382  : 	OnMessage( AIMSG_END_MELEEATTACK )
; 383  : 	///////////////////////////////////////////////////////////////////////////////////////////////////
; 384  : 	OnMessage( AIMSG_EXIT )
; 385  : 
; 386  : 	EndAIHandler()
; 387  : 
; 388  : 	return TRUE;
; 389  : }

  00060	5e		 pop	 esi
  00061	b8 01 00 00 00	 mov	 eax, 1
  00066	5b		 pop	 ebx
  00067	5d		 pop	 ebp
  00068	c2 04 00	 ret	 4
$LN8@StateRage:

; 312  : 
; 313  : 	///////////////////////////////////////////////////////////////////////////////////////////////////
; 314  : 	OnMessage( AIMSG_INIT_TARGETCLEAR )

  0006b	83 f8 11	 cmp	 eax, 17			; 00000011H
  0006e	75 57		 jne	 SHORT $LN12@StateRage

; 315  : 		CMover* pTarget	= ScanTargetNext( pMover, 15, m_dwIdTarget, m_uParty );

  00070	ff 76 3c	 push	 DWORD PTR [esi+60]
  00073	ff 76 38	 push	 DWORD PTR [esi+56]
  00076	6a 0f		 push	 15			; 0000000fH
  00078	53		 push	 ebx
  00079	e8 00 00 00 00	 call	 ?ScanTargetNext@CAIInterface@@IAEPAVCMover@@PAVCObj@@HKK@Z ; CAIInterface::ScanTargetNext

; 316  : 		if( pTarget )

  0007e	8b ce		 mov	 ecx, esi
  00080	6a 00		 push	 0
  00082	85 c0		 test	 eax, eax
  00084	74 1b		 je	 SHORT $LN14@StateRage

; 317  : 		{
; 318  : 			SendAIMsg( AIMSG_SETSTATE, STATE_RAGE, pTarget->GetId() );

  00086	ff b0 bc 01 00
	00		 push	 DWORD PTR [eax+444]
  0008c	8b 16		 mov	 edx, DWORD PTR [esi]
  0008e	6a 07		 push	 7
  00090	6a 04		 push	 4
  00092	ff 52 0c	 call	 DWORD PTR [edx+12]
  00095	5f		 pop	 edi

; 375  : 			}
; 376  : 		}
; 377  : 	///////////////////////////////////////////////////////////////////////////////////////////////////
; 378  : 	OnMessage( AIMSG_ATTACK_MELEE )
; 379  : 	///////////////////////////////////////////////////////////////////////////////////////////////////
; 380  : 	OnMessage( AIMSG_END_APPEAR )
; 381  : 	///////////////////////////////////////////////////////////////////////////////////////////////////
; 382  : 	OnMessage( AIMSG_END_MELEEATTACK )
; 383  : 	///////////////////////////////////////////////////////////////////////////////////////////////////
; 384  : 	OnMessage( AIMSG_EXIT )
; 385  : 
; 386  : 	EndAIHandler()
; 387  : 
; 388  : 	return TRUE;
; 389  : }

  00096	5e		 pop	 esi
  00097	b8 01 00 00 00	 mov	 eax, 1
  0009c	5b		 pop	 ebx
  0009d	5d		 pop	 ebp
  0009e	c2 04 00	 ret	 4
$LN14@StateRage:

; 319  : 			return TRUE;
; 320  : 		}
; 321  : 		else
; 322  : 		{
; 323  : 			SetTarget( NULL_ID, 0 );

  000a1	6a ff		 push	 -1
  000a3	e8 00 00 00 00	 call	 ?SetTarget@CAIMeteonyker@@QAEXKK@Z ; CAIMeteonyker::SetTarget

; 324  : 			SendAIMsg( AIMSG_SETSTATE, pMover->m_dwAIInterfaceState );

  000a8	8b 06		 mov	 eax, DWORD PTR [esi]
  000aa	8b ce		 mov	 ecx, esi
  000ac	6a 00		 push	 0
  000ae	6a 00		 push	 0
  000b0	ff b3 90 01 00
	00		 push	 DWORD PTR [ebx+400]
  000b6	6a 04		 push	 4
  000b8	ff 50 0c	 call	 DWORD PTR [eax+12]
  000bb	5f		 pop	 edi

; 375  : 			}
; 376  : 		}
; 377  : 	///////////////////////////////////////////////////////////////////////////////////////////////////
; 378  : 	OnMessage( AIMSG_ATTACK_MELEE )
; 379  : 	///////////////////////////////////////////////////////////////////////////////////////////////////
; 380  : 	OnMessage( AIMSG_END_APPEAR )
; 381  : 	///////////////////////////////////////////////////////////////////////////////////////////////////
; 382  : 	OnMessage( AIMSG_END_MELEEATTACK )
; 383  : 	///////////////////////////////////////////////////////////////////////////////////////////////////
; 384  : 	OnMessage( AIMSG_EXIT )
; 385  : 
; 386  : 	EndAIHandler()
; 387  : 
; 388  : 	return TRUE;
; 389  : }

  000bc	5e		 pop	 esi
  000bd	b8 01 00 00 00	 mov	 eax, 1
  000c2	5b		 pop	 ebx
  000c3	5d		 pop	 ebp
  000c4	c2 04 00	 ret	 4
$LN12@StateRage:

; 325  : 		}
; 326  : 	///////////////////////////////////////////////////////////////////////////////////////////////////
; 327  : 
; 328  : 	///////////////////////////////////////////////////////////////////////////////////////////////////
; 329  : 	OnMessage( AIMSG_PROCESS )

  000c7	83 f8 02	 cmp	 eax, 2
  000ca	75 11		 jne	 SHORT $LN16@StateRage

; 330  : 		MoveProcessRage();

  000cc	e8 00 00 00 00	 call	 ?MoveProcessRage@CAIMeteonyker@@AAEHXZ ; CAIMeteonyker::MoveProcessRage
  000d1	5f		 pop	 edi

; 375  : 			}
; 376  : 		}
; 377  : 	///////////////////////////////////////////////////////////////////////////////////////////////////
; 378  : 	OnMessage( AIMSG_ATTACK_MELEE )
; 379  : 	///////////////////////////////////////////////////////////////////////////////////////////////////
; 380  : 	OnMessage( AIMSG_END_APPEAR )
; 381  : 	///////////////////////////////////////////////////////////////////////////////////////////////////
; 382  : 	OnMessage( AIMSG_END_MELEEATTACK )
; 383  : 	///////////////////////////////////////////////////////////////////////////////////////////////////
; 384  : 	OnMessage( AIMSG_EXIT )
; 385  : 
; 386  : 	EndAIHandler()
; 387  : 
; 388  : 	return TRUE;
; 389  : }

  000d2	5e		 pop	 esi
  000d3	b8 01 00 00 00	 mov	 eax, 1
  000d8	5b		 pop	 ebx
  000d9	5d		 pop	 ebp
  000da	c2 04 00	 ret	 4
$LN16@StateRage:

; 331  : 
; 332  : 	///////////////////////////////////////////////////////////////////////////////////////////////////
; 333  : 	OnMessage( AIMSG_DAMAGE )

  000dd	83 f8 08	 cmp	 eax, 8
  000e0	75 7f		 jne	 SHORT $LN18@StateRage

; 334  : 		m_idLastAttacker	= msg.dwParam1;

  000e2	8b 47 04	 mov	 eax, DWORD PTR [edi+4]
  000e5	89 46 6c	 mov	 DWORD PTR [esi+108], eax

; 335  : 		AddDamage( msg.dwParam1, msg.dwParam2 );

  000e8	ff 77 08	 push	 DWORD PTR [edi+8]
  000eb	ff 77 04	 push	 DWORD PTR [edi+4]
  000ee	e8 00 00 00 00	 call	 ?AddDamage@CAIMeteonyker@@AAEXKH@Z ; CAIMeteonyker::AddDamage

; 336  : 
; 337  : 		//   'ŔĎąÝ °ř°Ý2' Ăß°ˇ »çÇ× : şŇŔÇ ¸ŢĹ×żŔ´ĎÄż HP 80%, 50%, 30%,10%¸¶´Ů 'żřĹł'
; 338  : 		DWORD dwHPCur	= (DWORD)( ( pMover->GetHitPoint() / ( pMover->GetMaxHitPoint() * 0.01F ) ) );

  000f3	8b cb		 mov	 ecx, ebx
  000f5	e8 00 00 00 00	 call	 ?GetHitPoint@CMover@@QAEHXZ ; CMover::GetHitPoint
  000fa	8b cb		 mov	 ecx, ebx
  000fc	66 0f 6e c0	 movd	 xmm0, eax
  00100	0f 5b c0	 cvtdq2ps xmm0, xmm0
  00103	f3 0f 11 45 08	 movss	 DWORD PTR tv506[ebp], xmm0
  00108	e8 00 00 00 00	 call	 ?GetMaxHitPoint@CMover@@QAEHXZ ; CMover::GetMaxHitPoint
  0010d	f3 0f 10 45 08	 movss	 xmm0, DWORD PTR tv506[ebp]
  00112	66 0f 6e c8	 movd	 xmm1, eax
  00116	0f 5b c9	 cvtdq2ps xmm1, xmm1
  00119	f3 0f 59 0d 00
	00 00 00	 mulss	 xmm1, DWORD PTR __real@3c23d70a
  00121	f3 0f 5e c1	 divss	 xmm0, xmm1
  00125	e8 00 00 00 00	 call	 __ftol3
  0012a	8b d0		 mov	 edx, eax

; 339  : 		if( dwHPCur != m_dwHPOld )

  0012c	3b 56 58	 cmp	 edx, DWORD PTR [esi+88]
  0012f	0f 84 d4 00 00
	00		 je	 $LN42@StateRage

; 340  : 		{
; 341  : 			switch( dwHPCur )

  00135	8d 4a f6	 lea	 ecx, DWORD PTR [edx-10]
  00138	83 f9 46	 cmp	 ecx, 70			; 00000046H
  0013b	77 15		 ja	 SHORT $LN2@StateRage
  0013d	0f b6 81 00 00
	00 00		 movzx	 eax, BYTE PTR $LN70@StateRage[ecx]
  00144	ff 24 85 00 00
	00 00		 jmp	 DWORD PTR $LN71@StateRage[eax*4]
$LN21@StateRage:

; 342  : 			{
; 343  : 				case 80:
; 344  : 				case 50:
; 345  : 				case 30:
; 346  : 				case 10:
; 347  : 					m_bCritical		= TRUE;					

  0014b	c7 46 5c 01 00
	00 00		 mov	 DWORD PTR [esi+92], 1
$LN2@StateRage:
  00152	5f		 pop	 edi

; 348  : 					break;
; 349  : 			}
; 350  : 			m_dwHPOld	= dwHPCur;

  00153	89 56 58	 mov	 DWORD PTR [esi+88], edx

; 375  : 			}
; 376  : 		}
; 377  : 	///////////////////////////////////////////////////////////////////////////////////////////////////
; 378  : 	OnMessage( AIMSG_ATTACK_MELEE )
; 379  : 	///////////////////////////////////////////////////////////////////////////////////////////////////
; 380  : 	OnMessage( AIMSG_END_APPEAR )
; 381  : 	///////////////////////////////////////////////////////////////////////////////////////////////////
; 382  : 	OnMessage( AIMSG_END_MELEEATTACK )
; 383  : 	///////////////////////////////////////////////////////////////////////////////////////////////////
; 384  : 	OnMessage( AIMSG_EXIT )
; 385  : 
; 386  : 	EndAIHandler()
; 387  : 
; 388  : 	return TRUE;
; 389  : }

  00156	b8 01 00 00 00	 mov	 eax, 1
  0015b	5e		 pop	 esi
  0015c	5b		 pop	 ebx
  0015d	5d		 pop	 ebp
  0015e	c2 04 00	 ret	 4
$LN18@StateRage:

; 351  : 		}
; 352  : 	///////////////////////////////////////////////////////////////////////////////////////////////////
; 353  : 	OnMessage( AIMSG_DIE )

  00161	83 f8 09	 cmp	 eax, 9
  00164	75 19		 jne	 SHORT $LN25@StateRage

; 354  : 		SendAIMsg( AIMSG_EXIT );

  00166	8b 06		 mov	 eax, DWORD PTR [esi]
  00168	6a 00		 push	 0
  0016a	6a 00		 push	 0
  0016c	6a 00		 push	 0
  0016e	6a 12		 push	 18			; 00000012H
  00170	ff 50 0c	 call	 DWORD PTR [eax+12]
  00173	5f		 pop	 edi

; 375  : 			}
; 376  : 		}
; 377  : 	///////////////////////////////////////////////////////////////////////////////////////////////////
; 378  : 	OnMessage( AIMSG_ATTACK_MELEE )
; 379  : 	///////////////////////////////////////////////////////////////////////////////////////////////////
; 380  : 	OnMessage( AIMSG_END_APPEAR )
; 381  : 	///////////////////////////////////////////////////////////////////////////////////////////////////
; 382  : 	OnMessage( AIMSG_END_MELEEATTACK )
; 383  : 	///////////////////////////////////////////////////////////////////////////////////////////////////
; 384  : 	OnMessage( AIMSG_EXIT )
; 385  : 
; 386  : 	EndAIHandler()
; 387  : 
; 388  : 	return TRUE;
; 389  : }

  00174	5e		 pop	 esi
  00175	b8 01 00 00 00	 mov	 eax, 1
  0017a	5b		 pop	 ebx
  0017b	5d		 pop	 ebp
  0017c	c2 04 00	 ret	 4
$LN25@StateRage:

; 355  : 	///////////////////////////////////////////////////////////////////////////////////////////////////
; 356  : 	OnMessage( AIMSG_COLLISION )

  0017f	83 f8 0a	 cmp	 eax, 10			; 0000000aH
  00182	0f 84 81 00 00
	00		 je	 $LN42@StateRage

; 357  : 	///////////////////////////////////////////////////////////////////////////////////////////////////
; 358  : 	OnMessage( AIMSG_ARRIVAL )

  00188	83 f8 0b	 cmp	 eax, 11			; 0000000bH
  0018b	75 7c		 jne	 SHORT $LN42@StateRage

; 359  : 		{
; 360  : 			DWORD dwItemId	= 0;
; 361  : 			MoverProp* pProp	= pMover->GetProp();

  0018d	8b cb		 mov	 ecx, ebx
  0018f	33 ff		 xor	 edi, edi
  00191	e8 00 00 00 00	 call	 ?GetPropA@CMover@@QAEPAUMoverProp@@XZ ; CMover::GetPropA

; 362  : 			// ÁŘşńµČ °ř°Ý Ĺ¸ŔÔżˇ ŔÇÇŃ °ř°Ý °ł˝Ă
; 363  : 			switch( m_dwAtk )

  00196	8b 4e 68	 mov	 ecx, DWORD PTR [esi+104]
  00199	89 4d 08	 mov	 DWORD PTR _dwMsg$1$[ebp], ecx
  0019c	83 c1 e3	 add	 ecx, -29		; ffffffe3H
  0019f	83 f9 03	 cmp	 ecx, 3
  001a2	77 25		 ja	 SHORT $LN4@StateRage
  001a4	ff 24 8d 00 00
	00 00		 jmp	 DWORD PTR $LN72@StateRage[ecx*4]
$LN31@StateRage:

; 364  : 			{
; 365  : 				case OBJMSG_ATK1:	dwItemId	= pProp->dwAtk1;	break;

  001ab	8b b8 b0 00 00
	00		 mov	 edi, DWORD PTR [eax+176]
  001b1	eb 16		 jmp	 SHORT $LN4@StateRage
$LN32@StateRage:

; 366  : 				case OBJMSG_ATK2:	dwItemId	= pProp->dwAtk2;	break;

  001b3	8b b8 b4 00 00
	00		 mov	 edi, DWORD PTR [eax+180]
  001b9	eb 0e		 jmp	 SHORT $LN4@StateRage
$LN33@StateRage:

; 367  : 				case OBJMSG_ATK3:	dwItemId	= pProp->dwAtk3;	break;

  001bb	8b b8 b8 00 00
	00		 mov	 edi, DWORD PTR [eax+184]
  001c1	eb 06		 jmp	 SHORT $LN4@StateRage
$LN34@StateRage:

; 368  : 				case OBJMSG_ATK4:	dwItemId	= pProp->dwAtk4;	break;

  001c3	8b b8 bc 00 00
	00		 mov	 edi, DWORD PTR [eax+188]
$LN4@StateRage:
; File C:\IAGOS\server\v18\Source\Source\_Common\Mover.h

; 1764 : 	CMover *pTarget = (CMover *)prj.GetMover( idTarget );

  001c9	ff 76 38	 push	 DWORD PTR [esi+56]
  001cc	b9 00 00 00 00	 mov	 ecx, OFFSET ?prj@@3VCProject@@A ; prj
  001d1	e8 00 00 00 00	 call	 ?GetMover@CProject@@QAEPAVCMover@@K@Z ; CProject::GetMover
; File C:\IAGOS\server\v18\Source\Source\_Common\Obj.h

; 327  : 	return pObj && ( pObj->IsDelete() == FALSE ); 

  001d6	85 c0		 test	 eax, eax
  001d8	74 2f		 je	 SHORT $LN42@StateRage

; 180  : 	BOOL			IsDelete()	{ return (m_dwFlags & OBJ_FLAG_DELETE);  }

  001da	f6 40 04 01	 test	 BYTE PTR [eax+4], 1

; 327  : 	return pObj && ( pObj->IsDelete() == FALSE ); 

  001de	75 29		 jne	 SHORT $LN42@StateRage
; File C:\IAGOS\server\v18\Source\Source\_Common\Mover.h

; 1768 : 	return DoAttackMelee( pTarget, dwMsg, dwItemID );

  001e0	57		 push	 edi
  001e1	ff 75 08	 push	 DWORD PTR _dwMsg$1$[ebp]
  001e4	8b cb		 mov	 ecx, ebx
  001e6	50		 push	 eax
  001e7	e8 00 00 00 00	 call	 ?DoAttackMelee@CMover@@QAEHPAV1@W4OBJMSG@@K@Z ; CMover::DoAttackMelee
; File C:\IAGOS\server\v18\Source\Source\_AIInterface\aimeteonyker.cpp

; 370  : 			if( pMover->DoAttackMelee( m_dwIdTarget, (OBJMSG)m_dwAtk, dwItemId ) == 1 )

  001ec	83 f8 01	 cmp	 eax, 1
  001ef	75 18		 jne	 SHORT $LN42@StateRage

; 371  : 			{
; 372  : 				// ż¬Ăâ
; 373  : 				m_tmAttack	= g_tmCurrent + s_tmAttack;	// °ř°Ý ČÄ 20ĂĘ°Ł ĂßŔűÇŘżČ.

  001f1	a1 00 00 00 00	 mov	 eax, DWORD PTR ?s_tmAttack@@3KA
  001f6	03 05 00 00 00
	00		 add	 eax, DWORD PTR ?g_tmCurrent@@3KA ; g_tmCurrent
  001fc	89 86 84 00 00
	00		 mov	 DWORD PTR [esi+132], eax

; 374  : 				m_dwAtk		= OBJMSG_NONE;

  00202	c7 46 68 00 00
	00 00		 mov	 DWORD PTR [esi+104], 0
$LN42@StateRage:

; 375  : 			}
; 376  : 		}
; 377  : 	///////////////////////////////////////////////////////////////////////////////////////////////////
; 378  : 	OnMessage( AIMSG_ATTACK_MELEE )
; 379  : 	///////////////////////////////////////////////////////////////////////////////////////////////////
; 380  : 	OnMessage( AIMSG_END_APPEAR )
; 381  : 	///////////////////////////////////////////////////////////////////////////////////////////////////
; 382  : 	OnMessage( AIMSG_END_MELEEATTACK )
; 383  : 	///////////////////////////////////////////////////////////////////////////////////////////////////
; 384  : 	OnMessage( AIMSG_EXIT )
; 385  : 
; 386  : 	EndAIHandler()
; 387  : 
; 388  : 	return TRUE;
; 389  : }

  00209	5f		 pop	 edi
  0020a	5e		 pop	 esi
  0020b	b8 01 00 00 00	 mov	 eax, 1
  00210	5b		 pop	 ebx
  00211	5d		 pop	 ebp
  00212	c2 04 00	 ret	 4
  00215	0f 1f 00	 npad	 3
$LN71@StateRage:
  00218	00 00 00 00	 DD	 $LN21@StateRage
  0021c	00 00 00 00	 DD	 $LN2@StateRage
$LN70@StateRage:
  00220	00		 DB	 0
  00221	01		 DB	 1
  00222	01		 DB	 1
  00223	01		 DB	 1
  00224	01		 DB	 1
  00225	01		 DB	 1
  00226	01		 DB	 1
  00227	01		 DB	 1
  00228	01		 DB	 1
  00229	01		 DB	 1
  0022a	01		 DB	 1
  0022b	01		 DB	 1
  0022c	01		 DB	 1
  0022d	01		 DB	 1
  0022e	01		 DB	 1
  0022f	01		 DB	 1
  00230	01		 DB	 1
  00231	01		 DB	 1
  00232	01		 DB	 1
  00233	01		 DB	 1
  00234	00		 DB	 0
  00235	01		 DB	 1
  00236	01		 DB	 1
  00237	01		 DB	 1
  00238	01		 DB	 1
  00239	01		 DB	 1
  0023a	01		 DB	 1
  0023b	01		 DB	 1
  0023c	01		 DB	 1
  0023d	01		 DB	 1
  0023e	01		 DB	 1
  0023f	01		 DB	 1
  00240	01		 DB	 1
  00241	01		 DB	 1
  00242	01		 DB	 1
  00243	01		 DB	 1
  00244	01		 DB	 1
  00245	01		 DB	 1
  00246	01		 DB	 1
  00247	01		 DB	 1
  00248	00		 DB	 0
  00249	01		 DB	 1
  0024a	01		 DB	 1
  0024b	01		 DB	 1
  0024c	01		 DB	 1
  0024d	01		 DB	 1
  0024e	01		 DB	 1
  0024f	01		 DB	 1
  00250	01		 DB	 1
  00251	01		 DB	 1
  00252	01		 DB	 1
  00253	01		 DB	 1
  00254	01		 DB	 1
  00255	01		 DB	 1
  00256	01		 DB	 1
  00257	01		 DB	 1
  00258	01		 DB	 1
  00259	01		 DB	 1
  0025a	01		 DB	 1
  0025b	01		 DB	 1
  0025c	01		 DB	 1
  0025d	01		 DB	 1
  0025e	01		 DB	 1
  0025f	01		 DB	 1
  00260	01		 DB	 1
  00261	01		 DB	 1
  00262	01		 DB	 1
  00263	01		 DB	 1
  00264	01		 DB	 1
  00265	01		 DB	 1
  00266	00		 DB	 0
  00267	90		 npad	 1
$LN72@StateRage:
  00268	00 00 00 00	 DD	 $LN31@StateRage
  0026c	00 00 00 00	 DD	 $LN32@StateRage
  00270	00 00 00 00	 DD	 $LN33@StateRage
  00274	00 00 00 00	 DD	 $LN34@StateRage
?StateRage@CAIMeteonyker@@AAEHABUAIMSG@@@Z ENDP		; CAIMeteonyker::StateRage
_TEXT	ENDS
; Function compile flags: /Ogtp
; File C:\IAGOS\server\v18\Source\Source\_AIInterface\aimeteonyker.cpp
; File C:\IAGOS\server\v18\Source\Source\_Common\Obj.h
; File C:\IAGOS\server\v18\Source\Source\DX_SDK\d3dx9math.inl
; File C:\IAGOS\server\v18\Source\Source\_Common\Obj.h
; File C:\IAGOS\server\v18\Source\Source\_AIInterface\aimeteonyker.cpp
; File C:\IAGOS\server\v18\Source\Source\DX_SDK\d3dx9math.inl
; File C:\IAGOS\server\v18\Source\Source\_AIInterface\aimeteonyker.cpp
; File C:\IAGOS\server\v18\Source\Source\_Common\xUtil.h
; File C:\IAGOS\server\v18\Source\Source\_AIInterface\aimeteonyker.cpp
; File C:\IAGOS\server\v18\Source\Source\_Common\xUtil.h
; File C:\IAGOS\server\v18\Source\Source\_AIInterface\aimeteonyker.cpp
; File C:\IAGOS\server\v18\Source\Source\_Common\xUtil.h
; File C:\IAGOS\server\v18\Source\Source\_AIInterface\aimeteonyker.cpp
;	COMDAT ?StateIdle@CAIMeteonyker@@AAEHABUAIMSG@@@Z
_TEXT	SEGMENT
_vTargetTo$1 = -24					; size = 12
$T2 = -12						; size = 12
_msg$ = 8						; size = 4
?StateIdle@CAIMeteonyker@@AAEHABUAIMSG@@@Z PROC		; CAIMeteonyker::StateIdle, COMDAT
; _this$ = ecx

; 250  : {

  00000	55		 push	 ebp
  00001	8b ec		 mov	 ebp, esp
  00003	83 ec 18	 sub	 esp, 24			; 00000018H
  00006	53		 push	 ebx
  00007	56		 push	 esi
  00008	57		 push	 edi

; 251  : 	CMover* pMover	= GetMover();
; 252  : 	CWorld* pWorld	= GetWorld();
; 253  : 
; 254  : 	BeginAIHandler()
; 255  : 	///////////////////////////////////////////////////////////////////////////////////////////////////
; 256  : 	OnMessage( AIMSG_INIT )

  00009	8b 7d 08	 mov	 edi, DWORD PTR _msg$[ebp]
  0000c	8b f1		 mov	 esi, ecx
  0000e	8b 07		 mov	 eax, DWORD PTR [edi]
  00010	8b 5e 30	 mov	 ebx, DWORD PTR [esi+48]
  00013	83 f8 01	 cmp	 eax, 1
  00016	75 68		 jne	 SHORT $LN4@StateIdle
; File C:\IAGOS\server\v18\Source\Source\_Common\Obj.h

; 215  : 	D3DXVECTOR3		GetPos()	{ return m_vPos; }

  00018	f3 0f 7e 83 60
	01 00 00	 movq	 xmm0, QWORD PTR [ebx+352]
  00020	8b 83 68 01 00
	00		 mov	 eax, DWORD PTR [ebx+360]
  00026	66 0f d6 45 f4	 movq	 QWORD PTR $T2[ebp], xmm0
; File C:\IAGOS\server\v18\Source\Source\DX_SDK\d3dx9math.inl

; 383  :     return D3DXVECTOR3(x - v.x, y - v.y, z - v.z);

  0002b	f3 0f 10 45 f4	 movss	 xmm0, DWORD PTR $T2[ebp]
  00030	f3 0f 5c 46 70	 subss	 xmm0, DWORD PTR [esi+112]
; File C:\IAGOS\server\v18\Source\Source\_Common\Obj.h

; 215  : 	D3DXVECTOR3		GetPos()	{ return m_vPos; }

  00035	89 45 fc	 mov	 DWORD PTR $T2[ebp+8], eax
; File C:\IAGOS\server\v18\Source\Source\_AIInterface\aimeteonyker.cpp

; 259  : 		if( IsInRange( vTargetTo, (float)( nRangeMove ) ) == FALSE )

  00038	8d 45 e8	 lea	 eax, DWORD PTR _vTargetTo$1[ebp]
  0003b	51		 push	 ecx
  0003c	c7 04 24 00 00
	f0 41		 mov	 DWORD PTR [esp], 1106247680 ; 41f00000H
  00043	50		 push	 eax
; File C:\IAGOS\server\v18\Source\Source\DX_SDK\d3dx9math.inl

; 300  :     x = fx;

  00044	f3 0f 11 45 e8	 movss	 DWORD PTR _vTargetTo$1[ebp], xmm0

; 383  :     return D3DXVECTOR3(x - v.x, y - v.y, z - v.z);

  00049	f3 0f 10 45 f8	 movss	 xmm0, DWORD PTR $T2[ebp+4]
  0004e	f3 0f 5c 46 74	 subss	 xmm0, DWORD PTR [esi+116]

; 301  :     y = fy;

  00053	f3 0f 11 45 ec	 movss	 DWORD PTR _vTargetTo$1[ebp+4], xmm0

; 383  :     return D3DXVECTOR3(x - v.x, y - v.y, z - v.z);

  00058	f3 0f 10 45 fc	 movss	 xmm0, DWORD PTR $T2[ebp+8]
  0005d	f3 0f 5c 46 78	 subss	 xmm0, DWORD PTR [esi+120]

; 302  :     z = fz;

  00062	f3 0f 11 45 f0	 movss	 DWORD PTR _vTargetTo$1[ebp+8], xmm0
; File C:\IAGOS\server\v18\Source\Source\_AIInterface\aimeteonyker.cpp

; 259  : 		if( IsInRange( vTargetTo, (float)( nRangeMove ) ) == FALSE )

  00067	e8 00 00 00 00	 call	 ?IsInRange@CAIMeteonyker@@AAEHABUD3DXVECTOR3@@M@Z ; CAIMeteonyker::IsInRange
  0006c	85 c0		 test	 eax, eax
  0006e	75 09		 jne	 SHORT $LN6@StateIdle

; 260  : 			DoReturnToBegin();

  00070	6a 01		 push	 1
  00072	8b ce		 mov	 ecx, esi
  00074	e8 00 00 00 00	 call	 ?DoReturnToBegin@CAIMeteonyker@@AAEXH@Z ; CAIMeteonyker::DoReturnToBegin
$LN6@StateIdle:

; 261  : 		SetStop( SEC( 0 ) );

  00079	6a 00		 push	 0

; 262  : 	OnMessage( AIMSG_INIT_TARGETCLEAR )

  0007b	e9 06 01 00 00	 jmp	 $LN54@StateIdle
$LN4@StateIdle:
  00080	83 f8 11	 cmp	 eax, 17			; 00000011H
  00083	75 17		 jne	 SHORT $LN7@StateIdle

; 263  : 		SetTarget( NULL_ID, 0 );

  00085	6a 00		 push	 0
  00087	6a ff		 push	 -1
  00089	e8 00 00 00 00	 call	 ?SetTarget@CAIMeteonyker@@QAEXKK@Z ; CAIMeteonyker::SetTarget
  0008e	5f		 pop	 edi

; 290  : 	
; 291  : 	EndAIHandler()
; 292  : 	return TRUE;
; 293  : }

  0008f	5e		 pop	 esi
  00090	b8 01 00 00 00	 mov	 eax, 1
  00095	5b		 pop	 ebx
  00096	8b e5		 mov	 esp, ebp
  00098	5d		 pop	 ebp
  00099	c2 04 00	 ret	 4
$LN7@StateIdle:

; 264  : 
; 265  : 	///////////////////////////////////////////////////////////////////////////////////////////////////
; 266  : 	OnMessage( AIMSG_PROCESS )

  0009c	83 f8 02	 cmp	 eax, 2
  0009f	75 13		 jne	 SHORT $LN9@StateIdle

; 267  : 		MoveProcessIdle();

  000a1	e8 00 00 00 00	 call	 ?MoveProcessIdle@CAIMeteonyker@@AAEHXZ ; CAIMeteonyker::MoveProcessIdle
  000a6	5f		 pop	 edi

; 290  : 	
; 291  : 	EndAIHandler()
; 292  : 	return TRUE;
; 293  : }

  000a7	5e		 pop	 esi
  000a8	b8 01 00 00 00	 mov	 eax, 1
  000ad	5b		 pop	 ebx
  000ae	8b e5		 mov	 esp, ebp
  000b0	5d		 pop	 ebp
  000b1	c2 04 00	 ret	 4
$LN9@StateIdle:

; 268  : 	///////////////////////////////////////////////////////////////////////////////////////////////////
; 269  : 	OnMessage( AIMSG_DAMAGE )

  000b4	83 f8 08	 cmp	 eax, 8
  000b7	75 5d		 jne	 SHORT $LN11@StateIdle

; 270  : 		if( m_bReturnToBegin == FALSE )

  000b9	83 7e 7c 00	 cmp	 DWORD PTR [esi+124], 0
  000bd	0f 85 ca 00 00
	00		 jne	 $LN22@StateIdle

; 271  : 		{
; 272  : 			MoveToDst( msg.dwParam1 );

  000c3	ff 77 04	 push	 DWORD PTR [edi+4]
  000c6	e8 00 00 00 00	 call	 ?MoveToDst@CAIMeteonyker@@AAEXK@Z ; CAIMeteonyker::MoveToDst

; 273  : 			SendAIMsg( AIMSG_SETSTATE, STATE_RAGE, msg.dwParam1 );

  000cb	8b 06		 mov	 eax, DWORD PTR [esi]
  000cd	8b ce		 mov	 ecx, esi
  000cf	6a 00		 push	 0
  000d1	ff 77 04	 push	 DWORD PTR [edi+4]
  000d4	6a 07		 push	 7
  000d6	6a 04		 push	 4
  000d8	ff 50 0c	 call	 DWORD PTR [eax+12]

; 274  : 			m_tmAttack	= g_tmCurrent + s_tmAttack;

  000db	a1 00 00 00 00	 mov	 eax, DWORD PTR ?s_tmAttack@@3KA
  000e0	03 05 00 00 00
	00		 add	 eax, DWORD PTR ?g_tmCurrent@@3KA ; g_tmCurrent
  000e6	89 86 84 00 00
	00		 mov	 DWORD PTR [esi+132], eax

; 275  : 			m_vPosDamage	= pMover->GetPos();

  000ec	f3 0f 7e 83 60
	01 00 00	 movq	 xmm0, QWORD PTR [ebx+352]
  000f4	66 0f d6 86 98
	00 00 00	 movq	 QWORD PTR [esi+152], xmm0
  000fc	8b 83 68 01 00
	00		 mov	 eax, DWORD PTR [ebx+360]
  00102	5f		 pop	 edi
  00103	89 86 a0 00 00
	00		 mov	 DWORD PTR [esi+160], eax

; 290  : 	
; 291  : 	EndAIHandler()
; 292  : 	return TRUE;
; 293  : }

  00109	b8 01 00 00 00	 mov	 eax, 1
  0010e	5e		 pop	 esi
  0010f	5b		 pop	 ebx
  00110	8b e5		 mov	 esp, ebp
  00112	5d		 pop	 ebp
  00113	c2 04 00	 ret	 4
$LN11@StateIdle:

; 276  : 		}
; 277  : 	///////////////////////////////////////////////////////////////////////////////////////////////////
; 278  : 	OnMessage( AIMSG_DIE )

  00116	83 f8 09	 cmp	 eax, 9
  00119	75 1b		 jne	 SHORT $LN14@StateIdle

; 279  : 		SendAIMsg( AIMSG_EXIT );

  0011b	8b 06		 mov	 eax, DWORD PTR [esi]
  0011d	6a 00		 push	 0
  0011f	6a 00		 push	 0
  00121	6a 00		 push	 0
  00123	6a 12		 push	 18			; 00000012H
  00125	ff 50 0c	 call	 DWORD PTR [eax+12]
  00128	5f		 pop	 edi

; 290  : 	
; 291  : 	EndAIHandler()
; 292  : 	return TRUE;
; 293  : }

  00129	5e		 pop	 esi
  0012a	b8 01 00 00 00	 mov	 eax, 1
  0012f	5b		 pop	 ebx
  00130	8b e5		 mov	 esp, ebp
  00132	5d		 pop	 ebp
  00133	c2 04 00	 ret	 4
$LN14@StateIdle:

; 280  : 	///////////////////////////////////////////////////////////////////////////////////////////////////
; 281  : 	OnMessage( AIMSG_COLLISION )

  00136	83 f8 0a	 cmp	 eax, 10			; 0000000aH
  00139	74 52		 je	 SHORT $LN22@StateIdle

; 282  : 	///////////////////////////////////////////////////////////////////////////////////////////////////
; 283  : 	OnMessage( AIMSG_ARRIVAL )

  0013b	83 f8 0b	 cmp	 eax, 11			; 0000000bH
  0013e	75 4d		 jne	 SHORT $LN22@StateIdle

; 284  : 		if( m_bReturnToBegin )

  00140	69 3d 00 00 00
	00 6d 4e c6 41	 imul	 edi, DWORD PTR ?g_next@@3KA, 1103515245 ; g_next
  0014a	b8 d3 4d 62 10	 mov	 eax, 274877907		; 10624dd3H
  0014f	81 c7 39 30 00
	00		 add	 edi, 12345		; 00003039H
  00155	83 7e 7c 00	 cmp	 DWORD PTR [esi+124], 0
  00159	8b cf		 mov	 ecx, edi
  0015b	74 0f		 je	 SHORT $LN20@StateIdle
; File C:\IAGOS\server\v18\Source\Source\_Common\xUtil.h

; 22   : 	return  xRand() % num;

  0015d	f7 e7		 mul	 edi
  0015f	c1 ea 06	 shr	 edx, 6
  00162	69 c2 e8 03 00
	00		 imul	 eax, edx, 1000
  00168	2b c8		 sub	 ecx, eax
; File C:\IAGOS\server\v18\Source\Source\_AIInterface\aimeteonyker.cpp

; 285  : 			SetStop( xRandom( SEC( 1 ) ) );

  0016a	eb 13		 jmp	 SHORT $LN21@StateIdle
$LN20@StateIdle:
; File C:\IAGOS\server\v18\Source\Source\_Common\xUtil.h

; 22   : 	return  xRand() % num;

  0016c	f7 e1		 mul	 ecx
  0016e	c1 ea 06	 shr	 edx, 6
; File C:\IAGOS\server\v18\Source\Source\_AIInterface\aimeteonyker.cpp

; 287  : 			SetStop( SEC( 5 ) + xRandom( SEC( 1 ) ) );

  00171	69 c2 e8 03 00
	00		 imul	 eax, edx, 1000
; File C:\IAGOS\server\v18\Source\Source\_Common\xUtil.h

; 22   : 	return  xRand() % num;

  00177	2b c8		 sub	 ecx, eax
; File C:\IAGOS\server\v18\Source\Source\_AIInterface\aimeteonyker.cpp

; 287  : 			SetStop( SEC( 5 ) + xRandom( SEC( 1 ) ) );

  00179	81 c1 88 13 00
	00		 add	 ecx, 5000		; 00001388H
$LN21@StateIdle:

; 288  : 	///////////////////////////////////////////////////////////////////////////////////////////////////
; 289  : 	OnMessage( AIMSG_EXIT )

  0017f	89 3d 00 00 00
	00		 mov	 DWORD PTR ?g_next@@3KA, edi ; g_next
  00185	51		 push	 ecx
$LN54@StateIdle:

; 290  : 	
; 291  : 	EndAIHandler()
; 292  : 	return TRUE;
; 293  : }

  00186	8b ce		 mov	 ecx, esi
  00188	e8 00 00 00 00	 call	 ?SetStop@CAIMeteonyker@@AAEXK@Z ; CAIMeteonyker::SetStop
$LN22@StateIdle:
  0018d	5f		 pop	 edi
  0018e	5e		 pop	 esi
  0018f	b8 01 00 00 00	 mov	 eax, 1
  00194	5b		 pop	 ebx
  00195	8b e5		 mov	 esp, ebp
  00197	5d		 pop	 ebp
  00198	c2 04 00	 ret	 4
?StateIdle@CAIMeteonyker@@AAEHABUAIMSG@@@Z ENDP		; CAIMeteonyker::StateIdle
_TEXT	ENDS
; Function compile flags: /Ogtp
; File C:\IAGOS\server\v18\Source\Source\_AIInterface\aimeteonyker.cpp
;	COMDAT ?StateInit@CAIMeteonyker@@AAEHABUAIMSG@@@Z
_TEXT	SEGMENT
_msg$ = 8						; size = 4
?StateInit@CAIMeteonyker@@AAEHABUAIMSG@@@Z PROC		; CAIMeteonyker::StateInit, COMDAT
; _this$ = ecx

; 177  : 	return TRUE;

  00000	b8 01 00 00 00	 mov	 eax, 1

; 178  : }

  00005	c2 04 00	 ret	 4
?StateInit@CAIMeteonyker@@AAEHABUAIMSG@@@Z ENDP		; CAIMeteonyker::StateInit
_TEXT	ENDS
; Function compile flags: /Ogtp
; File C:\IAGOS\server\v18\Source\Source\_AIInterface\aimeteonyker.cpp
; File C:\IAGOS\server\v18\Source\Source\_AIInterface\Action.h
; File C:\IAGOS\server\v18\Source\Source\_Common\Mover.h
; File C:\IAGOS\server\v18\Source\Source\_AIInterface\aimeteonyker.cpp
; File C:\IAGOS\server\v18\Source\Source\_Common\Obj.h
; File C:\IAGOS\server\v18\Source\Source\_AIInterface\Action.h
; File C:\IAGOS\server\v18\Source\Source\_Common\Mover.h
; File C:\IAGOS\server\v18\Source\Source\_AIInterface\aimeteonyker.cpp
; File C:\IAGOS\server\v18\Source\Source\_AIInterface\Action.h
; File C:\IAGOS\server\v18\Source\Source\_Common\Mover.h
; File C:\IAGOS\server\v18\Source\Source\_AIInterface\Action.h
; File C:\IAGOS\server\v18\Source\Source\_Common\Mover.h
; File C:\IAGOS\server\v18\Source\Source\_AIInterface\Action.h
; File C:\IAGOS\server\v18\Source\Source\_AIInterface\aimeteonyker.cpp
; File C:\IAGOS\server\v18\Source\Source\_Common\Obj.h
; File C:\IAGOS\server\v18\Source\Source\DX_SDK\d3dx9math.inl
; File C:\IAGOS\server\v18\Source\Source\_Common\Obj.h
; File C:\IAGOS\server\v18\Source\Source\_AIInterface\aimeteonyker.cpp
; File C:\IAGOS\server\v18\Source\Source\DX_SDK\d3dx9math.inl
; File C:\IAGOS\server\v18\Source\Source\_AIInterface\aimeteonyker.cpp
; File C:\IAGOS\server\v18\Source\Source\_Common\Obj.h
; File C:\IAGOS\server\v18\Source\Source\_AIInterface\aimeteonyker.cpp
; File C:\IAGOS\server\v18\Source\Source\_Common\Obj.h
; File C:\IAGOS\server\v18\Source\Source\_AIInterface\aimeteonyker.cpp
; File C:\IAGOS\server\v18\Source\Source\_Common\Obj.h
; File C:\IAGOS\server\v18\Source\Source\_AIInterface\aimeteonyker.cpp
; File C:\IAGOS\server\v18\Source\Source\_Common\Obj.h
; File C:\IAGOS\server\v18\Source\Source\_AIInterface\aimeteonyker.cpp
; File C:\IAGOS\server\v18\Source\Source\_Common\Obj.h
; File C:\IAGOS\server\v18\Source\Source\_AIInterface\aimeteonyker.cpp
; File C:\IAGOS\server\v18\Source\Source\_Common\Obj.h
; File C:\IAGOS\server\v18\Source\Source\_AIInterface\aimeteonyker.cpp
; File C:\IAGOS\server\v18\Source\Source\DX_SDK\d3dx9math.inl
; File C:\IAGOS\server\v18\Source\Source\_AIInterface\aimeteonyker.cpp
; File C:\IAGOS\server\v18\Source\Source\_Common\Mover.h
; File C:\IAGOS\server\v18\Source\Source\_AIInterface\aimeteonyker.cpp
; File C:\IAGOS\server\v18\Source\Source\_Common\Mover.h
; File C:\IAGOS\server\v18\Source\Source\_AIInterface\aimeteonyker.cpp
;	COMDAT ?MoveProcessRage@CAIMeteonyker@@AAEHXZ
_TEXT	SEGMENT
tv1068 = -36						; size = 4
_pTarget$1$ = -32					; size = 4
_vDist$1 = -28						; size = 12
_vTarget$2 = -28					; size = 12
$T3 = -16						; size = 12
$T4 = -16						; size = 12
__$ArrayPad$ = -4					; size = 4
?MoveProcessRage@CAIMeteonyker@@AAEHXZ PROC		; CAIMeteonyker::MoveProcessRage, COMDAT
; _this$ = ecx

; 392  : {

  00000	55		 push	 ebp
  00001	8b ec		 mov	 ebp, esp
  00003	83 ec 24	 sub	 esp, 36			; 00000024H
  00006	a1 00 00 00 00	 mov	 eax, DWORD PTR ___security_cookie
  0000b	33 c5		 xor	 eax, ebp
  0000d	89 45 fc	 mov	 DWORD PTR __$ArrayPad$[ebp], eax
  00010	53		 push	 ebx
  00011	56		 push	 esi
  00012	8b f1		 mov	 esi, ecx
  00014	57		 push	 edi

; 393  : 	CMover* pMover	= GetMover();

  00015	8b 7e 30	 mov	 edi, DWORD PTR [esi+48]
; File C:\IAGOS\server\v18\Source\Source\_AIInterface\Action.h

; 310  : 	BOOL			IsDie() { return (m_dwState & OBJSTA_DIE_ALL) ? TRUE : FALSE; }

  00018	8b 87 38 02 00
	00		 mov	 eax, DWORD PTR [edi+568]
  0001e	8b 40 04	 mov	 eax, DWORD PTR [eax+4]
; File C:\IAGOS\server\v18\Source\Source\_Common\Mover.h

; 1250 : 	BOOL			IsDie() { return m_pActMover->IsDie() || m_nHitPoint == 0; }

  00021	a9 00 00 00 08	 test	 eax, 134217728		; 08000000H
  00026	0f 85 a7 02 00
	00		 jne	 $LN3@MoveProces
  0002c	83 bf f8 05 00
	00 00		 cmp	 DWORD PTR [edi+1528], 0
  00033	0f 84 9a 02 00
	00		 je	 $LN3@MoveProces
; File C:\IAGOS\server\v18\Source\Source\_AIInterface\aimeteonyker.cpp

; 394  : 	if( pMover->IsDie() || (pMover->m_pActMover->GetState() & OBJSTA_DMG_FLY_ALL) )

  00039	a9 00 00 00 02	 test	 eax, 33554432		; 02000000H
  0003e	0f 85 8f 02 00
	00		 jne	 $LN3@MoveProces

; 395  : 		return FALSE;
; 396  : 	CMover* pTarget	= GetTarget( m_dwIdTarget ); 

  00044	ff 76 38	 push	 DWORD PTR [esi+56]
  00047	e8 00 00 00 00	 call	 ?GetTarget@CAIMeteonyker@@AAEPAVCMover@@K@Z ; CAIMeteonyker::GetTarget

; 397  : 	DWORD dwAIState	= pMover->m_dwAIInterfaceState;

  0004c	8b 9f 90 01 00
	00		 mov	 ebx, DWORD PTR [edi+400]
  00052	8b c8		 mov	 ecx, eax
  00054	89 4d e0	 mov	 DWORD PTR _pTarget$1$[ebp], ecx
; File C:\IAGOS\server\v18\Source\Source\_Common\Obj.h

; 327  : 	return pObj && ( pObj->IsDelete() == FALSE ); 

  00057	85 c9		 test	 ecx, ecx
  00059	0f 84 28 03 00
	00		 je	 $LN107@MoveProces

; 180  : 	BOOL			IsDelete()	{ return (m_dwFlags & OBJ_FLAG_DELETE);  }

  0005f	f6 41 04 01	 test	 BYTE PTR [ecx+4], 1

; 327  : 	return pObj && ( pObj->IsDelete() == FALSE ); 

  00063	0f 85 1e 03 00
	00		 jne	 $LN107@MoveProces
; File C:\IAGOS\server\v18\Source\Source\_AIInterface\Action.h

; 310  : 	BOOL			IsDie() { return (m_dwState & OBJSTA_DIE_ALL) ? TRUE : FALSE; }

  00069	8b 81 38 02 00
	00		 mov	 eax, DWORD PTR [ecx+568]
; File C:\IAGOS\server\v18\Source\Source\_Common\Mover.h

; 1250 : 	BOOL			IsDie() { return m_pActMover->IsDie() || m_nHitPoint == 0; }

  0006f	f7 40 04 00 00
	00 08		 test	 DWORD PTR [eax+4], 134217728 ; 08000000H
  00076	0f 85 0b 03 00
	00		 jne	 $LN107@MoveProces
  0007c	83 b9 f8 05 00
	00 00		 cmp	 DWORD PTR [ecx+1528], 0
  00083	0f 84 fe 02 00
	00		 je	 $LN107@MoveProces
; File C:\IAGOS\server\v18\Source\Source\_AIInterface\aimeteonyker.cpp

; 414  : 	if( pTarget->IsRegionAttr( RA_SAFETY ) )	// Ĺ¸°Ů ľČŔü żµżŞ Ň®

  00089	f6 81 d0 02 00
	00 10		 test	 BYTE PTR [ecx+720], 16	; 00000010H
  00090	75 20		 jne	 SHORT $LN145@MoveProces
; File C:\IAGOS\server\v18\Source\Source\_AIInterface\Action.h

; 309  : 	BOOL			IsFly() { return (m_dwStateFlag & OBJSTAF_FLY) ? TRUE : FALSE; }

  00092	8b 40 08	 mov	 eax, DWORD PTR [eax+8]
; File C:\IAGOS\server\v18\Source\Source\_Common\Mover.h

; 1018 : 	BOOL			IsFlyingNPC()		{ return (m_dwTypeFlag & OBJTYPE_FLYING) ? TRUE : FALSE; }		// şńÇŕÇü ¸÷ŔÎ°ˇ.

  00095	0f b7 97 3e 02
	00 00		 movzx	 edx, WORD PTR [edi+574]
; File C:\IAGOS\server\v18\Source\Source\_AIInterface\Action.h

; 309  : 	BOOL			IsFly() { return (m_dwStateFlag & OBJSTAF_FLY) ? TRUE : FALSE; }

  0009c	c1 e8 03	 shr	 eax, 3
; File C:\IAGOS\server\v18\Source\Source\_Common\Mover.h

; 1018 : 	BOOL			IsFlyingNPC()		{ return (m_dwTypeFlag & OBJTYPE_FLYING) ? TRUE : FALSE; }		// şńÇŕÇü ¸÷ŔÎ°ˇ.

  0009f	83 e2 01	 and	 edx, 1
; File C:\IAGOS\server\v18\Source\Source\_AIInterface\Action.h

; 309  : 	BOOL			IsFly() { return (m_dwStateFlag & OBJSTAF_FLY) ? TRUE : FALSE; }

  000a2	83 e0 01	 and	 eax, 1
; File C:\IAGOS\server\v18\Source\Source\_AIInterface\aimeteonyker.cpp

; 421  : 	if( pMover->IsFlyingNPC() != ((CMover*)pTarget)->m_pActMover->IsFly() && pMover->IsFlyingNPC() )	

  000a5	3b d0		 cmp	 edx, eax
  000a7	74 36		 je	 SHORT $LN10@MoveProces
  000a9	85 d2		 test	 edx, edx
  000ab	74 32		 je	 SHORT $LN10@MoveProces

; 422  : 	{
; 423  : 		if( dwAIState == STATE_STAND )

  000ad	83 fb 08	 cmp	 ebx, 8
  000b0	75 09		 jne	 SHORT $LN11@MoveProces
$LN145@MoveProces:

; 513  : 				return TRUE;
; 514  : 			}
; 515  : 		}
; 516  : 	}
; 517  : 	return FALSE;
; 518  : }

  000b2	6a 01		 push	 1
  000b4	8b ce		 mov	 ecx, esi
  000b6	e8 00 00 00 00	 call	 ?DoReturnToBegin@CAIMeteonyker@@AAEXH@Z ; CAIMeteonyker::DoReturnToBegin
$LN11@MoveProces:
  000bb	8b 06		 mov	 eax, DWORD PTR [esi]
  000bd	8b ce		 mov	 ecx, esi
  000bf	6a 00		 push	 0
  000c1	6a 00		 push	 0
  000c3	53		 push	 ebx
  000c4	6a 04		 push	 4
  000c6	ff 50 0c	 call	 DWORD PTR [eax+12]
  000c9	5f		 pop	 edi
  000ca	5e		 pop	 esi
  000cb	b8 01 00 00 00	 mov	 eax, 1
  000d0	5b		 pop	 ebx
  000d1	8b 4d fc	 mov	 ecx, DWORD PTR __$ArrayPad$[ebp]
  000d4	33 cd		 xor	 ecx, ebp
  000d6	e8 00 00 00 00	 call	 @__security_check_cookie@4
  000db	8b e5		 mov	 esp, ebp
  000dd	5d		 pop	 ebp
  000de	c3		 ret	 0
$LN10@MoveProces:

; 424  : 			DoReturnToBegin();
; 425  : 		SendAIMsg( AIMSG_SETSTATE, dwAIState );
; 426  : 		return TRUE;
; 427  : 	}
; 428  : 	if( g_tmCurrent > (DWORD)( m_tmAttack ) )

  000df	8b 15 00 00 00
	00		 mov	 edx, DWORD PTR ?g_tmCurrent@@3KA ; g_tmCurrent
  000e5	0f 57 c9	 xorps	 xmm1, xmm1
  000e8	3b 96 84 00 00
	00		 cmp	 edx, DWORD PTR [esi+132]
  000ee	0f 86 02 01 00
	00		 jbe	 $LN106@MoveProces

; 429  : 	{
; 430  : 		m_tmAttack	= g_tmCurrent + s_tmAttack;

  000f4	a1 00 00 00 00	 mov	 eax, DWORD PTR ?s_tmAttack@@3KA
  000f9	03 c2		 add	 eax, edx

; 431  : 		D3DXVECTOR3 vDist	= pMover->GetPos() - m_vOldPos;
; 432  : 		vDist.y	= 0;

  000fb	c7 45 e8 00 00
	00 00		 mov	 DWORD PTR _vDist$1[ebp+4], 0
  00102	89 86 84 00 00
	00		 mov	 DWORD PTR [esi+132], eax
; File C:\IAGOS\server\v18\Source\Source\_Common\Obj.h

; 215  : 	D3DXVECTOR3		GetPos()	{ return m_vPos; }

  00108	f3 0f 7e 87 60
	01 00 00	 movq	 xmm0, QWORD PTR [edi+352]
  00110	8b 87 68 01 00
	00		 mov	 eax, DWORD PTR [edi+360]
  00116	66 0f d6 45 f0	 movq	 QWORD PTR $T3[ebp], xmm0
; File C:\IAGOS\server\v18\Source\Source\DX_SDK\d3dx9math.inl

; 383  :     return D3DXVECTOR3(x - v.x, y - v.y, z - v.z);

  0011b	f3 0f 10 45 f0	 movss	 xmm0, DWORD PTR $T3[ebp]
  00120	f3 0f 5c 86 88
	00 00 00	 subss	 xmm0, DWORD PTR [esi+136]
; File C:\IAGOS\server\v18\Source\Source\_Common\Obj.h

; 215  : 	D3DXVECTOR3		GetPos()	{ return m_vPos; }

  00128	89 45 f8	 mov	 DWORD PTR $T3[ebp+8], eax
; File C:\IAGOS\server\v18\Source\Source\_AIInterface\aimeteonyker.cpp

; 433  : 		if( IsInRange( vDist, 2.0f ) )

  0012b	8d 45 e4	 lea	 eax, DWORD PTR _vDist$1[ebp]
  0012e	51		 push	 ecx
  0012f	c7 04 24 00 00
	00 40		 mov	 DWORD PTR [esp], 1073741824 ; 40000000H
  00136	8b ce		 mov	 ecx, esi
  00138	50		 push	 eax
; File C:\IAGOS\server\v18\Source\Source\DX_SDK\d3dx9math.inl

; 300  :     x = fx;

  00139	f3 0f 11 45 e4	 movss	 DWORD PTR _vDist$1[ebp], xmm0

; 383  :     return D3DXVECTOR3(x - v.x, y - v.y, z - v.z);

  0013e	f3 0f 10 45 f8	 movss	 xmm0, DWORD PTR $T3[ebp+8]
  00143	f3 0f 5c 86 90
	00 00 00	 subss	 xmm0, DWORD PTR [esi+144]

; 302  :     z = fz;

  0014b	f3 0f 11 45 ec	 movss	 DWORD PTR _vDist$1[ebp+8], xmm0
; File C:\IAGOS\server\v18\Source\Source\_AIInterface\aimeteonyker.cpp

; 433  : 		if( IsInRange( vDist, 2.0f ) )

  00150	e8 00 00 00 00	 call	 ?IsInRange@CAIMeteonyker@@AAEHABUD3DXVECTOR3@@M@Z ; CAIMeteonyker::IsInRange
  00155	85 c0		 test	 eax, eax
  00157	0f 84 89 01 00
	00		 je	 $LN13@MoveProces

; 434  : 		{
; 435  : 			if( pMover->GetSpeed( pMover->m_pActMover->m_fSpeed ) > 0 )

  0015d	8b 87 38 02 00
	00		 mov	 eax, DWORD PTR [edi+568]
  00163	51		 push	 ecx
  00164	8b cf		 mov	 ecx, edi
  00166	f3 0f 10 40 48	 movss	 xmm0, DWORD PTR [eax+72]
  0016b	f3 0f 11 04 24	 movss	 DWORD PTR [esp], xmm0
  00170	e8 00 00 00 00	 call	 ?GetSpeed@CMover@@QAEMM@Z ; CMover::GetSpeed
  00175	d9 5d dc	 fstp	 DWORD PTR tv1068[ebp]
  00178	f3 0f 10 45 dc	 movss	 xmm0, DWORD PTR tv1068[ebp]
  0017d	0f 57 c9	 xorps	 xmm1, xmm1
  00180	0f 2f c1	 comiss	 xmm0, xmm1
  00183	76 4c		 jbe	 SHORT $LN15@MoveProces
; File C:\IAGOS\server\v18\Source\Source\_Common\Obj.h

; 215  : 	D3DXVECTOR3		GetPos()	{ return m_vPos; }

  00185	8b 45 e0	 mov	 eax, DWORD PTR _pTarget$1$[ebp]
; File C:\IAGOS\server\v18\Source\Source\_AIInterface\aimeteonyker.cpp

; 438  : 				pMover->SetPos( vTarget );

  00188	8b cf		 mov	 ecx, edi
; File C:\IAGOS\server\v18\Source\Source\_Common\Obj.h

; 215  : 	D3DXVECTOR3		GetPos()	{ return m_vPos; }

  0018a	f3 0f 7e 80 60
	01 00 00	 movq	 xmm0, QWORD PTR [eax+352]
  00192	8b 80 68 01 00
	00		 mov	 eax, DWORD PTR [eax+360]
  00198	89 45 ec	 mov	 DWORD PTR _vTarget$2[ebp+8], eax
; File C:\IAGOS\server\v18\Source\Source\_AIInterface\aimeteonyker.cpp

; 438  : 				pMover->SetPos( vTarget );

  0019b	8d 45 e4	 lea	 eax, DWORD PTR _vTarget$2[ebp]
  0019e	50		 push	 eax
; File C:\IAGOS\server\v18\Source\Source\_Common\Obj.h

; 215  : 	D3DXVECTOR3		GetPos()	{ return m_vPos; }

  0019f	66 0f d6 45 e4	 movq	 QWORD PTR _vTarget$2[ebp], xmm0
; File C:\IAGOS\server\v18\Source\Source\_AIInterface\aimeteonyker.cpp

; 438  : 				pMover->SetPos( vTarget );

  001a4	e8 00 00 00 00	 call	 ?SetPos@CObj@@QAEXABUD3DXVECTOR3@@@Z ; CObj::SetPos
; File C:\IAGOS\server\v18\Source\Source\_Common\Obj.h

; 215  : 	D3DXVECTOR3		GetPos()	{ return m_vPos; }

  001a9	8b 87 68 01 00
	00		 mov	 eax, DWORD PTR [edi+360]
; File C:\IAGOS\server\v18\Source\Source\_AIInterface\aimeteonyker.cpp

; 439  : 				g_UserMng.AddSetPos( pMover, pMover->GetPos() );

  001af	b9 00 00 00 00	 mov	 ecx, OFFSET ?g_UserMng@@3VCUserMng@@A ; g_UserMng
; File C:\IAGOS\server\v18\Source\Source\_Common\Obj.h

; 215  : 	D3DXVECTOR3		GetPos()	{ return m_vPos; }

  001b4	f3 0f 7e 87 60
	01 00 00	 movq	 xmm0, QWORD PTR [edi+352]
  001bc	89 45 f8	 mov	 DWORD PTR $T4[ebp+8], eax
; File C:\IAGOS\server\v18\Source\Source\_AIInterface\aimeteonyker.cpp

; 439  : 				g_UserMng.AddSetPos( pMover, pMover->GetPos() );

  001bf	8d 45 f0	 lea	 eax, DWORD PTR $T4[ebp]
  001c2	50		 push	 eax
  001c3	57		 push	 edi
; File C:\IAGOS\server\v18\Source\Source\_Common\Obj.h

; 215  : 	D3DXVECTOR3		GetPos()	{ return m_vPos; }

  001c4	66 0f d6 45 f0	 movq	 QWORD PTR $T4[ebp], xmm0
; File C:\IAGOS\server\v18\Source\Source\_AIInterface\aimeteonyker.cpp

; 439  : 				g_UserMng.AddSetPos( pMover, pMover->GetPos() );

  001c9	e8 00 00 00 00	 call	 ?AddSetPos@CUserMng@@QAEXPAVCCtrl@@AAUD3DXVECTOR3@@@Z ; CUserMng::AddSetPos
  001ce	0f 57 c9	 xorps	 xmm1, xmm1
$LN15@MoveProces:

; 448  : 			return TRUE;
; 449  : 		}
; 450  : 		m_vOldPos	= pMover->GetPos();

  001d1	f3 0f 7e 87 60
	01 00 00	 movq	 xmm0, QWORD PTR [edi+352]
  001d9	8b 4d e0	 mov	 ecx, DWORD PTR _pTarget$1$[ebp]
  001dc	66 0f d6 86 88
	00 00 00	 movq	 QWORD PTR [esi+136], xmm0
  001e4	8b 87 68 01 00
	00		 mov	 eax, DWORD PTR [edi+360]
  001ea	89 86 90 00 00
	00		 mov	 DWORD PTR [esi+144], eax
  001f0	8b 15 00 00 00
	00		 mov	 edx, DWORD PTR ?g_tmCurrent@@3KA ; g_tmCurrent
$LN106@MoveProces:
; File C:\IAGOS\server\v18\Source\Source\DX_SDK\d3dx9math.inl

; 410  :     return x == v.x && y == v.y && z == v.z;

  001f6	f3 0f 10 86 98
	00 00 00	 movss	 xmm0, DWORD PTR [esi+152]
  001fe	0f 2e c1	 ucomiss xmm0, xmm1
  00201	9f		 lahf
  00202	f6 c4 44	 test	 ah, 68			; 00000044H
  00205	7a 44		 jp	 SHORT $LN17@MoveProces
  00207	f3 0f 10 86 9c
	00 00 00	 movss	 xmm0, DWORD PTR [esi+156]
  0020f	0f 2e c1	 ucomiss xmm0, xmm1
  00212	9f		 lahf
  00213	f6 c4 44	 test	 ah, 68			; 00000044H
  00216	7a 33		 jp	 SHORT $LN17@MoveProces
  00218	f3 0f 10 86 a0
	00 00 00	 movss	 xmm0, DWORD PTR [esi+160]
  00220	0f 2e c1	 ucomiss xmm0, xmm1
  00223	9f		 lahf
  00224	f6 c4 44	 test	 ah, 68			; 00000044H
  00227	7a 22		 jp	 SHORT $LN17@MoveProces
; File C:\IAGOS\server\v18\Source\Source\_AIInterface\aimeteonyker.cpp

; 465  : 		m_vPosDamage	= pMover->GetPos();

  00229	f3 0f 7e 87 60
	01 00 00	 movq	 xmm0, QWORD PTR [edi+352]
  00231	66 0f d6 86 98
	00 00 00	 movq	 QWORD PTR [esi+152], xmm0
  00239	8b 87 68 01 00
	00		 mov	 eax, DWORD PTR [edi+360]
  0023f	89 86 a0 00 00
	00		 mov	 DWORD PTR [esi+160], eax
  00245	8b 15 00 00 00
	00		 mov	 edx, DWORD PTR ?g_tmCurrent@@3KA ; g_tmCurrent
$LN17@MoveProces:

; 477  : 	if( pTarget->GetType() == OT_MOVER && ((CMover *)pTarget)->IsMode( TRANSPARENT_MODE ) )

  0024b	83 b9 70 01 00
	00 05		 cmp	 DWORD PTR [ecx+368], 5
  00252	75 28		 jne	 SHORT $LN18@MoveProces
; File C:\IAGOS\server\v18\Source\Source\_Common\Mover.h

; 1740 : 		if( GetAdjParam(DST_CHRSTATE) & CHS_INVISIBILITY )	// ¸¶ąýĹő¸íČ­°ˇ °É·Č´Â°ˇ?

  00254	6a 40		 push	 64			; 00000040H
  00256	e8 00 00 00 00	 call	 ?GetAdjParam@CMover@@QAEHH@Z ; CMover::GetAdjParam
  0025b	a9 00 04 00 00	 test	 eax, 1024		; 00000400H
  00260	0f 85 bd 00 00
	00		 jne	 $LN108@MoveProces
; File C:\IAGOS\server\v18\Source\Source\_AIInterface\aimeteonyker.cpp

; 477  : 	if( pTarget->GetType() == OT_MOVER && ((CMover *)pTarget)->IsMode( TRANSPARENT_MODE ) )

  00266	8b 45 e0	 mov	 eax, DWORD PTR _pTarget$1$[ebp]
  00269	f6 80 40 02 00
	00 02		 test	 BYTE PTR [eax+576], 2
  00270	0f 85 ad 00 00
	00		 jne	 $LN108@MoveProces
  00276	8b 15 00 00 00
	00		 mov	 edx, DWORD PTR ?g_tmCurrent@@3KA ; g_tmCurrent
$LN18@MoveProces:

; 482  : 		return TRUE;
; 483  : 	}
; 484  : 	else
; 485  : 	{
; 486  : 		// °ř°Ý ˝ĂŔŰÇĎ¸é °ř°Ý Áöż¬ ŔçĽłÁ¤
; 487  : 		if( g_tmCurrent > (DWORD)( m_tmAttackDelay ) )

  0027c	3b 56 60	 cmp	 edx, DWORD PTR [esi+96]
  0027f	76 52		 jbe	 SHORT $LN3@MoveProces

; 488  : 		{
; 489  : 			CMover* pMover	= GetMover();

  00281	8b 7e 30	 mov	 edi, DWORD PTR [esi+48]

; 490  : 			m_tmAttackDelay	= g_tmCurrent + SEC( 3 );

  00284	8d 82 b8 0b 00
	00		 lea	 eax, DWORD PTR [edx+3000]
  0028a	89 46 60	 mov	 DWORD PTR [esi+96], eax

; 494  : 			if( ProcessSPAttack() )

  0028d	8b ce		 mov	 ecx, esi
; File C:\IAGOS\server\v18\Source\Source\_Common\Mover.h

; 1002 : 	void			SetNotMode( DWORD dwMode )	{ m_dwMode &= (~dwMode); } // ŔŻŔú»óĹÂ ¸®™V

  0028f	83 a7 40 02 00
	00 fb		 and	 DWORD PTR [edi+576], -5	; fffffffbH
; File C:\IAGOS\server\v18\Source\Source\_AIInterface\aimeteonyker.cpp

; 494  : 			if( ProcessSPAttack() )

  00296	e8 00 00 00 00	 call	 ?ProcessSPAttack@CAIMeteonyker@@AAEHXZ ; CAIMeteonyker::ProcessSPAttack
  0029b	85 c0		 test	 eax, eax
  0029d	0f 85 3f 01 00
	00		 jne	 $LN7@MoveProces

; 495  : 				return TRUE;
; 496  : //			//	4. ŔÚ˝ĹŔÇ HP°ˇ 30%ŔĚÇĎ°ˇ µÇľúŔ» ˝Ă 1Č¸żˇ ÇŃÇŘ HP¸¦ 50% Č¸şą ÇŃ´Ů.
; 497  : //			if( ProcessHeal() )
; 498  : //				return TRUE;
; 499  : 			//	5. ŔÚ˝ĹŔÇ HP°ˇ 2%°ˇ µÇľúŔ» ˝Ă ¸đµç °ř°Ý·Â 2ąč Áő°ˇ	- propMoverEx.inc
; 500  : 			// ŔĎąÝ °ř°Ý
; 501  : 			if( m_dwIdTarget == NULL_ID )

  002a3	83 7e 38 ff	 cmp	 DWORD PTR [esi+56], -1
  002a7	75 07		 jne	 SHORT $LN23@MoveProces

; 502  : 				SelectTarget();

  002a9	8b ce		 mov	 ecx, esi
  002ab	e8 00 00 00 00	 call	 ?SelectTarget@CAIMeteonyker@@AAEHXZ ; CAIMeteonyker::SelectTarget
$LN23@MoveProces:

; 503  : 			if( m_dwIdTarget != NULL_ID )

  002b0	8b 46 38	 mov	 eax, DWORD PTR [esi+56]
  002b3	83 f8 ff	 cmp	 eax, -1
  002b6	0f 84 99 00 00
	00		 je	 $LN24@MoveProces

; 504  : 			{
; 505  : 				m_dwAtk	= OBJMSG_ATK1;
; 506  : 				pMover->CMD_SetMeleeAttack( m_dwIdTarget, 0.0F );

  002bc	51		 push	 ecx
  002bd	c7 04 24 00 00
	00 00		 mov	 DWORD PTR [esp], 0
  002c4	8b cf		 mov	 ecx, edi
  002c6	50		 push	 eax
  002c7	c7 46 68 1d 00
	00 00		 mov	 DWORD PTR [esi+104], 29	; 0000001dH
  002ce	e8 00 00 00 00	 call	 ?CMD_SetMeleeAttack@CMover@@QAEXKM@Z ; CMover::CMD_SetMeleeAttack
$LN3@MoveProces:

; 513  : 				return TRUE;
; 514  : 			}
; 515  : 		}
; 516  : 	}
; 517  : 	return FALSE;
; 518  : }

  002d3	5f		 pop	 edi
  002d4	5e		 pop	 esi
  002d5	33 c0		 xor	 eax, eax
  002d7	5b		 pop	 ebx
  002d8	8b 4d fc	 mov	 ecx, DWORD PTR __$ArrayPad$[ebp]
  002db	33 cd		 xor	 ecx, ebp
  002dd	e8 00 00 00 00	 call	 @__security_check_cookie@4
  002e2	8b e5		 mov	 esp, ebp
  002e4	5d		 pop	 ebp
  002e5	c3		 ret	 0
$LN13@MoveProces:

; 440  : 			} 
; 441  : 		} 
; 442  : 		else
; 443  : 		{
; 444  : 			m_tmReturnToBegin	= g_tmCurrent;

  002e6	a1 00 00 00 00	 mov	 eax, DWORD PTR ?g_tmCurrent@@3KA ; g_tmCurrent
  002eb	89 86 80 00 00
	00		 mov	 DWORD PTR [esi+128], eax

; 445  : 			if( dwAIState == STATE_STAND )

  002f1	83 fb 08	 cmp	 ebx, 8
  002f4	75 09		 jne	 SHORT $LN16@MoveProces

; 446  : 				DoReturnToBegin();

  002f6	6a 01		 push	 1
  002f8	8b ce		 mov	 ecx, esi
  002fa	e8 00 00 00 00	 call	 ?DoReturnToBegin@CAIMeteonyker@@AAEXH@Z ; CAIMeteonyker::DoReturnToBegin
$LN16@MoveProces:

; 447  : 			SendAIMsg( AIMSG_SETSTATE, dwAIState );

  002ff	8b 06		 mov	 eax, DWORD PTR [esi]
  00301	8b ce		 mov	 ecx, esi
  00303	6a 00		 push	 0
  00305	6a 00		 push	 0
  00307	53		 push	 ebx
  00308	6a 04		 push	 4
  0030a	ff 50 0c	 call	 DWORD PTR [eax+12]
  0030d	5f		 pop	 edi

; 513  : 				return TRUE;
; 514  : 			}
; 515  : 		}
; 516  : 	}
; 517  : 	return FALSE;
; 518  : }

  0030e	5e		 pop	 esi
  0030f	b8 01 00 00 00	 mov	 eax, 1
  00314	5b		 pop	 ebx
  00315	8b 4d fc	 mov	 ecx, DWORD PTR __$ArrayPad$[ebp]
  00318	33 cd		 xor	 ecx, ebp
  0031a	e8 00 00 00 00	 call	 @__security_check_cookie@4
  0031f	8b e5		 mov	 esp, ebp
  00321	5d		 pop	 ebp
  00322	c3		 ret	 0
$LN108@MoveProces:

; 478  : 	{
; 479  : 		if( dwAIState == STATE_STAND )

  00323	83 fb 08	 cmp	 ebx, 8
  00326	75 09		 jne	 SHORT $LN20@MoveProces

; 480  : 			DoReturnToBegin();	// SetTarget( NULL_ID, 0 );

  00328	6a 01		 push	 1
  0032a	8b ce		 mov	 ecx, esi
  0032c	e8 00 00 00 00	 call	 ?DoReturnToBegin@CAIMeteonyker@@AAEXH@Z ; CAIMeteonyker::DoReturnToBegin
$LN20@MoveProces:

; 481  : 		SendAIMsg( AIMSG_SETSTATE, dwAIState );

  00331	8b 06		 mov	 eax, DWORD PTR [esi]
  00333	8b ce		 mov	 ecx, esi
  00335	6a 00		 push	 0
  00337	6a 00		 push	 0
  00339	53		 push	 ebx
  0033a	6a 04		 push	 4
  0033c	ff 50 0c	 call	 DWORD PTR [eax+12]
  0033f	5f		 pop	 edi

; 513  : 				return TRUE;
; 514  : 			}
; 515  : 		}
; 516  : 	}
; 517  : 	return FALSE;
; 518  : }

  00340	5e		 pop	 esi
  00341	b8 01 00 00 00	 mov	 eax, 1
  00346	5b		 pop	 ebx
  00347	8b 4d fc	 mov	 ecx, DWORD PTR __$ArrayPad$[ebp]
  0034a	33 cd		 xor	 ecx, ebp
  0034c	e8 00 00 00 00	 call	 @__security_check_cookie@4
  00351	8b e5		 mov	 esp, ebp
  00353	5d		 pop	 ebp
  00354	c3		 ret	 0
$LN24@MoveProces:

; 507  : 			}
; 508  : 			else
; 509  : 			{
; 510  : 				if( dwAIState == STATE_STAND )

  00355	83 fb 08	 cmp	 ebx, 8
  00358	75 09		 jne	 SHORT $LN26@MoveProces

; 511  : 					DoReturnToBegin();

  0035a	6a 01		 push	 1
  0035c	8b ce		 mov	 ecx, esi
  0035e	e8 00 00 00 00	 call	 ?DoReturnToBegin@CAIMeteonyker@@AAEXH@Z ; CAIMeteonyker::DoReturnToBegin
$LN26@MoveProces:

; 512  : 				SendAIMsg( AIMSG_SETSTATE, dwAIState );

  00363	8b 06		 mov	 eax, DWORD PTR [esi]
  00365	8b ce		 mov	 ecx, esi
  00367	6a 00		 push	 0
  00369	6a 00		 push	 0
  0036b	53		 push	 ebx
  0036c	6a 04		 push	 4
  0036e	ff 50 0c	 call	 DWORD PTR [eax+12]
  00371	5f		 pop	 edi

; 513  : 				return TRUE;
; 514  : 			}
; 515  : 		}
; 516  : 	}
; 517  : 	return FALSE;
; 518  : }

  00372	5e		 pop	 esi
  00373	b8 01 00 00 00	 mov	 eax, 1
  00378	5b		 pop	 ebx
  00379	8b 4d fc	 mov	 ecx, DWORD PTR __$ArrayPad$[ebp]
  0037c	33 cd		 xor	 ecx, ebp
  0037e	e8 00 00 00 00	 call	 @__security_check_cookie@4
  00383	8b e5		 mov	 esp, ebp
  00385	5d		 pop	 ebp
  00386	c3		 ret	 0
$LN107@MoveProces:

; 398  : 
; 399  : 	if( IsValidObj( pTarget ) == FALSE || ((CMover*)pTarget)->IsDie() )	
; 400  : 	{
; 401  : 		CMover* pTarget	= ScanTargetNext( pMover, 15/*nAttackFirstRange*/, m_dwIdTarget, m_uParty );

  00387	ff 76 3c	 push	 DWORD PTR [esi+60]
  0038a	8b ce		 mov	 ecx, esi
  0038c	ff 76 38	 push	 DWORD PTR [esi+56]
  0038f	6a 0f		 push	 15			; 0000000fH
  00391	57		 push	 edi
  00392	e8 00 00 00 00	 call	 ?ScanTargetNext@CAIInterface@@IAEPAVCMover@@PAVCObj@@HKK@Z ; CAIInterface::ScanTargetNext
  00397	8b c8		 mov	 ecx, eax

; 402  : 		if( pTarget	== NULL )

  00399	85 c9		 test	 ecx, ecx
  0039b	75 32		 jne	 SHORT $LN6@MoveProces

; 403  : 		{
; 404  : 			if( dwAIState == STATE_STAND )

  0039d	83 fb 08	 cmp	 ebx, 8
  003a0	75 09		 jne	 SHORT $LN8@MoveProces

; 405  : 				DoReturnToBegin();	// SetTarget( NULL_ID, 0 );

  003a2	6a 01		 push	 1
  003a4	8b ce		 mov	 ecx, esi
  003a6	e8 00 00 00 00	 call	 ?DoReturnToBegin@CAIMeteonyker@@AAEXH@Z ; CAIMeteonyker::DoReturnToBegin
$LN8@MoveProces:

; 406  : 			SendAIMsg( AIMSG_SETSTATE, dwAIState );
; 407  : 		}
; 408  : 		else
; 409  : 		{
; 410  : 			SendAIMsg( AIMSG_SETSTATE, STATE_RAGE, pTarget->GetId() );
; 411  : 		}
; 412  : 		return TRUE;

  003ab	8b 06		 mov	 eax, DWORD PTR [esi]
  003ad	8b ce		 mov	 ecx, esi
  003af	6a 00		 push	 0
  003b1	6a 00		 push	 0
  003b3	53		 push	 ebx
  003b4	6a 04		 push	 4
  003b6	ff 50 0c	 call	 DWORD PTR [eax+12]
  003b9	5f		 pop	 edi

; 513  : 				return TRUE;
; 514  : 			}
; 515  : 		}
; 516  : 	}
; 517  : 	return FALSE;
; 518  : }

  003ba	5e		 pop	 esi
  003bb	b8 01 00 00 00	 mov	 eax, 1
  003c0	5b		 pop	 ebx
  003c1	8b 4d fc	 mov	 ecx, DWORD PTR __$ArrayPad$[ebp]
  003c4	33 cd		 xor	 ecx, ebp
  003c6	e8 00 00 00 00	 call	 @__security_check_cookie@4
  003cb	8b e5		 mov	 esp, ebp
  003cd	5d		 pop	 ebp
  003ce	c3		 ret	 0
$LN6@MoveProces:

; 406  : 			SendAIMsg( AIMSG_SETSTATE, dwAIState );
; 407  : 		}
; 408  : 		else
; 409  : 		{
; 410  : 			SendAIMsg( AIMSG_SETSTATE, STATE_RAGE, pTarget->GetId() );
; 411  : 		}
; 412  : 		return TRUE;

  003cf	8b 06		 mov	 eax, DWORD PTR [esi]
  003d1	6a 00		 push	 0
  003d3	ff b1 bc 01 00
	00		 push	 DWORD PTR [ecx+444]
  003d9	8b ce		 mov	 ecx, esi
  003db	6a 07		 push	 7
  003dd	6a 04		 push	 4
  003df	ff 50 0c	 call	 DWORD PTR [eax+12]
$LN7@MoveProces:

; 513  : 				return TRUE;
; 514  : 			}
; 515  : 		}
; 516  : 	}
; 517  : 	return FALSE;
; 518  : }

  003e2	8b 4d fc	 mov	 ecx, DWORD PTR __$ArrayPad$[ebp]
  003e5	b8 01 00 00 00	 mov	 eax, 1
  003ea	5f		 pop	 edi
  003eb	5e		 pop	 esi
  003ec	33 cd		 xor	 ecx, ebp
  003ee	5b		 pop	 ebx
  003ef	e8 00 00 00 00	 call	 @__security_check_cookie@4
  003f4	8b e5		 mov	 esp, ebp
  003f6	5d		 pop	 ebp
  003f7	c3		 ret	 0
?MoveProcessRage@CAIMeteonyker@@AAEHXZ ENDP		; CAIMeteonyker::MoveProcessRage
_TEXT	ENDS
; Function compile flags: /Ogtp
; File C:\IAGOS\server\v18\Source\Source\_AIInterface\aimeteonyker.cpp
; File C:\IAGOS\server\v18\Source\Source\_Common\Project.h
; File C:\IAGOS\server\v18\Source\Source\_AIInterface\aimeteonyker.cpp
; File C:\IAGOS\server\v18\Source\Source\_Common\Mover.h
; File C:\IAGOS\server\v18\Source\Source\_Common\Project.h
; File C:\IAGOS\server\v18\Source\Source\_AIInterface\Action.h
; File C:\IAGOS\server\v18\Source\Source\_Common\Mover.h
; File C:\IAGOS\server\v18\Source\Source\_AIInterface\aimeteonyker.cpp
; File C:\IAGOS\server\v18\Source\Source\_Common\Obj.h
; File C:\IAGOS\server\v18\Source\Source\_AIInterface\aimeteonyker.cpp
; File C:\IAGOS\server\v18\Source\Source\_Common\Obj.h
; File C:\IAGOS\server\v18\Source\Source\DX_SDK\d3dx9math.inl
; File C:\IAGOS\server\v18\Source\Source\_Common\Obj.h
; File C:\IAGOS\server\v18\Source\Source\_AIInterface\aimeteonyker.cpp
; File C:\IAGOS\server\v18\Source\Source\DX_SDK\d3dx9math.inl
; File C:\IAGOS\server\v18\Source\Source\_AIInterface\aimeteonyker.cpp
; File C:\IAGOS\server\v18\Source\Source\_Common\Obj.h
; File C:\IAGOS\server\v18\Source\Source\_Common\Mover.h
; File C:\IAGOS\server\v18\Source\Source\_AIInterface\aimeteonyker.cpp
; File C:\IAGOS\server\v18\Source\Source\_AIInterface\Action.h
; File C:\IAGOS\server\v18\Source\Source\_AIInterface\aimeteonyker.cpp
;	COMDAT ?MoveProcessIdle@CAIMeteonyker@@AAEHXZ
_TEXT	SEGMENT
$T1 = -28						; size = 12
$T2 = -16						; size = 12
_pTarget$1$ = -4					; size = 4
?MoveProcessIdle@CAIMeteonyker@@AAEHXZ PROC		; CAIMeteonyker::MoveProcessIdle, COMDAT
; _this$ = ecx

; 181  : {

  00000	55		 push	 ebp
  00001	8b ec		 mov	 ebp, esp
  00003	83 ec 1c	 sub	 esp, 28			; 0000001cH
  00006	53		 push	 ebx
  00007	56		 push	 esi
  00008	8b f1		 mov	 esi, ecx
; File C:\IAGOS\server\v18\Source\Source\_Common\Project.h

; 1406 : 	VERIFY_RANGE( nIndex, 0, m_nMoverPropSize, "GetMoverProp range_error", NULL );

  0000a	8b 0d b4 01 00
	00		 mov	 ecx, DWORD PTR ?prj@@3VCProject@@A+436
; File C:\IAGOS\server\v18\Source\Source\_AIInterface\aimeteonyker.cpp

; 181  : {

  00010	57		 push	 edi

; 182  : 	CMover* pMover	= GetMover();

  00011	8b 7e 30	 mov	 edi, DWORD PTR [esi+48]
; File C:\IAGOS\server\v18\Source\Source\_Common\Mover.h

; 1020 : 	MoverProp*		GetProp() { return prj.GetMoverProp( m_dwIndex ); }	// °´ĂĽŔÇ ÇÁ·ÎĆŰĆĽ ľň±â 	

  00014	8b 87 74 01 00
	00		 mov	 eax, DWORD PTR [edi+372]
; File C:\IAGOS\server\v18\Source\Source\_Common\Project.h

; 1406 : 	VERIFY_RANGE( nIndex, 0, m_nMoverPropSize, "GetMoverProp range_error", NULL );

  0001a	85 c0		 test	 eax, eax
  0001c	78 12		 js	 SHORT $LN28@MoveProces
  0001e	3b c1		 cmp	 eax, ecx
  00020	7d 0e		 jge	 SHORT $LN28@MoveProces

; 1407 : 	return m_pPropMover + nIndex;

  00022	69 d8 90 06 00
	00		 imul	 ebx, eax, 1680
  00028	03 1d b8 01 00
	00		 add	 ebx, DWORD PTR ?prj@@3VCProject@@A+440
  0002e	eb 18		 jmp	 SHORT $LN23@MoveProces
$LN28@MoveProces:

; 579  : 	LPCTSTR szErr = Error( _T( "%s min:%d, max:%d, index:%d" ), szMsg, nMin, nMax, nIndex ); 

  00030	50		 push	 eax
  00031	51		 push	 ecx
  00032	6a 00		 push	 0
  00034	68 00 00 00 00	 push	 OFFSET ??_C@_0BJ@GKPOBPPI@GetMoverProp?5range_error@
  00039	68 00 00 00 00	 push	 OFFSET ??_C@_0BM@HMFGHCP@?$CFs?5min?3?$CFd?0?5max?3?$CFd?0?5index?3?$CFd@
  0003e	e8 00 00 00 00	 call	 ?Error@@YAPBDPBDZZ	; Error
  00043	83 c4 14	 add	 esp, 20			; 00000014H

; 1406 : 	VERIFY_RANGE( nIndex, 0, m_nMoverPropSize, "GetMoverProp range_error", NULL );

  00046	33 db		 xor	 ebx, ebx
$LN23@MoveProces:
; File C:\IAGOS\server\v18\Source\Source\_AIInterface\Action.h

; 310  : 	BOOL			IsDie() { return (m_dwState & OBJSTA_DIE_ALL) ? TRUE : FALSE; }

  00048	8b 87 38 02 00
	00		 mov	 eax, DWORD PTR [edi+568]
  0004e	8b 40 04	 mov	 eax, DWORD PTR [eax+4]
; File C:\IAGOS\server\v18\Source\Source\_Common\Mover.h

; 1250 : 	BOOL			IsDie() { return m_pActMover->IsDie() || m_nHitPoint == 0; }

  00051	a9 00 00 00 08	 test	 eax, 134217728		; 08000000H
  00056	0f 85 a0 01 00
	00		 jne	 $LN3@MoveProces
  0005c	83 bf f8 05 00
	00 00		 cmp	 DWORD PTR [edi+1528], 0
  00063	0f 84 93 01 00
	00		 je	 $LN3@MoveProces
; File C:\IAGOS\server\v18\Source\Source\_AIInterface\aimeteonyker.cpp

; 186  : 	if( pMover->IsDie() || ( pMover->m_pActMover->GetState() & OBJSTA_DMG_FLY_ALL) )

  00069	a9 00 00 00 02	 test	 eax, 33554432		; 02000000H
  0006e	0f 85 88 01 00
	00		 jne	 $LN3@MoveProces

; 187  : 		return FALSE;
; 188  : 
; 189  : #ifdef __MOVER_STATE_EFFECT
; 190  : 	if( pMover->m_pActMover->IsStateFlag( OBJSTAF_COMBAT ) == TRUE )
; 191  : 	{
; 192  : 		if( pMover->m_pActMover->SendActMsg( OBJMSG_MODE_PEACE ) == TRUE )
; 193  : 		{
; 194  : 			g_UserMng.AddSendActMsg( pMover, OBJMSG_MODE_PEACE );
; 195  : 		}
; 196  : 	}
; 197  : #endif // __MOVER_STATE_EFFECT
; 198  : 
; 199  : 	if( m_bReturnToBegin )

  00074	83 7e 7c 00	 cmp	 DWORD PTR [esi+124], 0
  00078	0f 84 bc 00 00
	00		 je	 $LN4@MoveProces
; File C:\IAGOS\server\v18\Source\Source\_Common\Obj.h

; 215  : 	D3DXVECTOR3		GetPos()	{ return m_vPos; }

  0007e	f3 0f 7e 87 60
	01 00 00	 movq	 xmm0, QWORD PTR [edi+352]
; File C:\IAGOS\server\v18\Source\Source\_AIInterface\aimeteonyker.cpp

; 201  : 		if( IsInRange( m_vPosBegin - pMover->GetPos(), 10.0f ) )

  00086	8d 5e 70	 lea	 ebx, DWORD PTR [esi+112]
; File C:\IAGOS\server\v18\Source\Source\_Common\Obj.h

; 215  : 	D3DXVECTOR3		GetPos()	{ return m_vPos; }

  00089	8b 87 68 01 00
	00		 mov	 eax, DWORD PTR [edi+360]
  0008f	66 0f d6 45 f0	 movq	 QWORD PTR $T2[ebp], xmm0
; File C:\IAGOS\server\v18\Source\Source\DX_SDK\d3dx9math.inl

; 383  :     return D3DXVECTOR3(x - v.x, y - v.y, z - v.z);

  00094	f3 0f 10 03	 movss	 xmm0, DWORD PTR [ebx]
  00098	f3 0f 5c 45 f0	 subss	 xmm0, DWORD PTR $T2[ebp]
; File C:\IAGOS\server\v18\Source\Source\_Common\Obj.h

; 215  : 	D3DXVECTOR3		GetPos()	{ return m_vPos; }

  0009d	89 45 f8	 mov	 DWORD PTR $T2[ebp+8], eax
; File C:\IAGOS\server\v18\Source\Source\_AIInterface\aimeteonyker.cpp

; 201  : 		if( IsInRange( m_vPosBegin - pMover->GetPos(), 10.0f ) )

  000a0	8d 45 e4	 lea	 eax, DWORD PTR $T1[ebp]
  000a3	51		 push	 ecx
  000a4	c7 04 24 00 00
	20 41		 mov	 DWORD PTR [esp], 1092616192 ; 41200000H
  000ab	8b ce		 mov	 ecx, esi
  000ad	50		 push	 eax
; File C:\IAGOS\server\v18\Source\Source\DX_SDK\d3dx9math.inl

; 300  :     x = fx;

  000ae	f3 0f 11 45 e4	 movss	 DWORD PTR $T1[ebp], xmm0

; 383  :     return D3DXVECTOR3(x - v.x, y - v.y, z - v.z);

  000b3	f3 0f 10 43 04	 movss	 xmm0, DWORD PTR [ebx+4]
  000b8	f3 0f 5c 45 f4	 subss	 xmm0, DWORD PTR $T2[ebp+4]

; 301  :     y = fy;

  000bd	f3 0f 11 45 e8	 movss	 DWORD PTR $T1[ebp+4], xmm0

; 383  :     return D3DXVECTOR3(x - v.x, y - v.y, z - v.z);

  000c2	f3 0f 10 43 08	 movss	 xmm0, DWORD PTR [ebx+8]
  000c7	f3 0f 5c 45 f8	 subss	 xmm0, DWORD PTR $T2[ebp+8]

; 302  :     z = fz;

  000cc	f3 0f 11 45 ec	 movss	 DWORD PTR $T1[ebp+8], xmm0
; File C:\IAGOS\server\v18\Source\Source\_AIInterface\aimeteonyker.cpp

; 201  : 		if( IsInRange( m_vPosBegin - pMover->GetPos(), 10.0f ) )

  000d1	e8 00 00 00 00	 call	 ?IsInRange@CAIMeteonyker@@AAEHABUD3DXVECTOR3@@M@Z ; CAIMeteonyker::IsInRange
  000d6	85 c0		 test	 eax, eax
  000d8	74 18		 je	 SHORT $LN6@MoveProces

; 202  : 		{
; 203  : 			DoReturnToBegin( FALSE );

  000da	6a 00		 push	 0
  000dc	8b ce		 mov	 ecx, esi
  000de	e8 00 00 00 00	 call	 ?DoReturnToBegin@CAIMeteonyker@@AAEXH@Z ; CAIMeteonyker::DoReturnToBegin

; 204  : 			SendAIMsg( AIMSG_ARRIVAL, NULL_ID );

  000e3	8b 06		 mov	 eax, DWORD PTR [esi]
  000e5	8b ce		 mov	 ecx, esi
  000e7	6a 00		 push	 0
  000e9	6a 00		 push	 0
  000eb	6a ff		 push	 -1
  000ed	6a 0b		 push	 11			; 0000000bH
  000ef	ff 50 0c	 call	 DWORD PTR [eax+12]
$LN6@MoveProces:

; 205  : 		}
; 206  : 		if( g_tmCurrent - m_tmReturnToBegin >= SEC(20) )

  000f2	a1 00 00 00 00	 mov	 eax, DWORD PTR ?g_tmCurrent@@3KA ; g_tmCurrent
  000f7	2b 86 80 00 00
	00		 sub	 eax, DWORD PTR [esi+128]
  000fd	3d 20 4e 00 00	 cmp	 eax, 20000		; 00004e20H
  00102	0f 82 e1 00 00
	00		 jb	 $LN17@MoveProces

; 207  : 		{
; 208  : 			pMover->SetPos( m_vPosBegin );

  00108	53		 push	 ebx
  00109	8b cf		 mov	 ecx, edi
  0010b	e8 00 00 00 00	 call	 ?SetPos@CObj@@QAEXABUD3DXVECTOR3@@@Z ; CObj::SetPos

; 209  : 			g_UserMng.AddSetPos( pMover, m_vPosBegin );

  00110	53		 push	 ebx
  00111	57		 push	 edi
  00112	b9 00 00 00 00	 mov	 ecx, OFFSET ?g_UserMng@@3VCUserMng@@A ; g_UserMng
  00117	e8 00 00 00 00	 call	 ?AddSetPos@CUserMng@@QAEXPAVCCtrl@@AAUD3DXVECTOR3@@@Z ; CUserMng::AddSetPos

; 210  : 			m_tmReturnToBegin	= g_tmCurrent;

  0011c	a1 00 00 00 00	 mov	 eax, DWORD PTR ?g_tmCurrent@@3KA ; g_tmCurrent

; 239  : 					}
; 240  : 				}
; 241  : 			}
; 242  : 		}
; 243  : 	}
; 244  : 	ProcessRecovery();

  00121	8b ce		 mov	 ecx, esi
  00123	89 86 80 00 00
	00		 mov	 DWORD PTR [esi+128], eax
  00129	e8 00 00 00 00	 call	 ?ProcessRecovery@CAIMeteonyker@@AAEXXZ ; CAIMeteonyker::ProcessRecovery
  0012e	5f		 pop	 edi

; 245  : 
; 246  : 	return TRUE;
; 247  : }

  0012f	5e		 pop	 esi
  00130	b8 01 00 00 00	 mov	 eax, 1
  00135	5b		 pop	 ebx
  00136	8b e5		 mov	 esp, ebp
  00138	5d		 pop	 ebp
  00139	c3		 ret	 0
$LN4@MoveProces:

; 211  : 		}
; 212  : 	}
; 213  : 	else
; 214  : 	{
; 215  : 		if( pMover->GetMovePattern() == 0 )

  0013a	83 bf c0 14 00
	00 00		 cmp	 DWORD PTR [edi+5312], 0
  00141	75 16		 jne	 SHORT $LN8@MoveProces

; 216  : 		{
; 217  : 			if( IsEndStop() )

  00143	8b ce		 mov	 ecx, esi
  00145	e8 00 00 00 00	 call	 ?IsEndStop@CAIMeteonyker@@AAEHXZ ; CAIMeteonyker::IsEndStop
  0014a	85 c0		 test	 eax, eax
  0014c	74 1d		 je	 SHORT $LN11@MoveProces

; 218  : 				MoveToRandom( STATE_IDLE );

  0014e	6a 02		 push	 2
  00150	8b ce		 mov	 ecx, esi
  00152	e8 00 00 00 00	 call	 ?MoveToRandom@CAIMeteonyker@@AAEXI@Z ; CAIMeteonyker::MoveToRandom

; 219  : 		}

  00157	eb 12		 jmp	 SHORT $LN11@MoveProces
$LN8@MoveProces:

; 220  : 		else		
; 221  : 		{
; 222  : 			if( pMover->GetMoveEvent() == 99 )

  00159	83 bf c4 14 00
	00 63		 cmp	 DWORD PTR [edi+5316], 99 ; 00000063H
  00160	75 09		 jne	 SHORT $LN11@MoveProces

; 223  : 				pMover->SetMovePattern( 0 );

  00162	6a 00		 push	 0
  00164	8b cf		 mov	 ecx, edi
  00166	e8 00 00 00 00	 call	 ?SetMovePattern@CMover@@QAEXH@Z ; CMover::SetMovePattern
$LN11@MoveProces:

; 224  : 		}
; 225  : 
; 226  : 		if( pProp->m_nScanJob != -1 )

  0016b	83 bb dc 01 00
	00 ff		 cmp	 DWORD PTR [ebx+476], -1
  00172	74 75		 je	 SHORT $LN17@MoveProces

; 227  : 		{
; 228  : 			if( GetMover()->m_bActiveAttack )

  00174	8b 46 30	 mov	 eax, DWORD PTR [esi+48]
  00177	83 b8 68 06 00
	00 00		 cmp	 DWORD PTR [eax+1640], 0
  0017e	74 07		 je	 SHORT $LN13@MoveProces

; 229  : 				SelectTarget();

  00180	8b ce		 mov	 ecx, esi
  00182	e8 00 00 00 00	 call	 ?SelectTarget@CAIMeteonyker@@AAEHXZ ; CAIMeteonyker::SelectTarget
$LN13@MoveProces:

; 230  : 			CMover* pTarget		= GetTarget( m_dwIdTarget );

  00187	ff 76 38	 push	 DWORD PTR [esi+56]
  0018a	8b ce		 mov	 ecx, esi
  0018c	e8 00 00 00 00	 call	 ?GetTarget@CAIMeteonyker@@AAEPAVCMover@@K@Z ; CAIMeteonyker::GetTarget
  00191	89 45 fc	 mov	 DWORD PTR _pTarget$1$[ebp], eax
; File C:\IAGOS\server\v18\Source\Source\_Common\Obj.h

; 327  : 	return pObj && ( pObj->IsDelete() == FALSE ); 

  00194	85 c0		 test	 eax, eax
  00196	74 51		 je	 SHORT $LN17@MoveProces

; 180  : 	BOOL			IsDelete()	{ return (m_dwFlags & OBJ_FLAG_DELETE);  }

  00198	f6 40 04 01	 test	 BYTE PTR [eax+4], 1

; 327  : 	return pObj && ( pObj->IsDelete() == FALSE ); 

  0019c	75 4b		 jne	 SHORT $LN17@MoveProces
; File C:\IAGOS\server\v18\Source\Source\_Common\Mover.h

; 1018 : 	BOOL			IsFlyingNPC()		{ return (m_dwTypeFlag & OBJTYPE_FLYING) ? TRUE : FALSE; }		// şńÇŕÇü ¸÷ŔÎ°ˇ.

  0019e	0f b7 8f 3e 02
	00 00		 movzx	 ecx, WORD PTR [edi+574]
  001a5	83 e1 01	 and	 ecx, 1
; File C:\IAGOS\server\v18\Source\Source\_AIInterface\aimeteonyker.cpp

; 233  : 				if( pMover->IsFlyingNPC() == FALSE || pMover->IsFlyingNPC() == pTarget->m_pActMover->IsFly() || pProp->dwClass == RANK_GUARD )	// °ˇµĺ´Â ą«Á¶°Ç °ř°Ý.

  001a8	74 1c		 je	 SHORT $LN16@MoveProces
; File C:\IAGOS\server\v18\Source\Source\_AIInterface\Action.h

; 309  : 	BOOL			IsFly() { return (m_dwStateFlag & OBJSTAF_FLY) ? TRUE : FALSE; }

  001aa	8b 80 38 02 00
	00		 mov	 eax, DWORD PTR [eax+568]
  001b0	8b 40 08	 mov	 eax, DWORD PTR [eax+8]
  001b3	c1 e8 03	 shr	 eax, 3
  001b6	83 e0 01	 and	 eax, 1
; File C:\IAGOS\server\v18\Source\Source\_AIInterface\aimeteonyker.cpp

; 233  : 				if( pMover->IsFlyingNPC() == FALSE || pMover->IsFlyingNPC() == pTarget->m_pActMover->IsFly() || pProp->dwClass == RANK_GUARD )	// °ˇµĺ´Â ą«Á¶°Ç °ř°Ý.

  001b9	3b c8		 cmp	 ecx, eax
  001bb	74 09		 je	 SHORT $LN16@MoveProces
  001bd	83 bb 94 00 00
	00 08		 cmp	 DWORD PTR [ebx+148], 8
  001c4	75 23		 jne	 SHORT $LN17@MoveProces
$LN16@MoveProces:

; 234  : 				{
; 235  : 					if( pTarget )	
; 236  : 					{
; 237  : 						g_UserMng.AddDlgEmoticon( pMover, DLGEMOT_ATTACK );

  001c6	6a 00		 push	 0
  001c8	57		 push	 edi
  001c9	b9 00 00 00 00	 mov	 ecx, OFFSET ?g_UserMng@@3VCUserMng@@A ; g_UserMng
  001ce	e8 00 00 00 00	 call	 ?AddDlgEmoticon@CUserMng@@QAEXPAVCCtrl@@H@Z ; CUserMng::AddDlgEmoticon

; 238  : 						SendAIMsg( AIMSG_SETSTATE, STATE_RAGE, pTarget->GetId() );

  001d3	8b 4d fc	 mov	 ecx, DWORD PTR _pTarget$1$[ebp]
  001d6	8b 06		 mov	 eax, DWORD PTR [esi]
  001d8	6a 00		 push	 0
  001da	ff b1 bc 01 00
	00		 push	 DWORD PTR [ecx+444]
  001e0	8b ce		 mov	 ecx, esi
  001e2	6a 07		 push	 7
  001e4	6a 04		 push	 4
  001e6	ff 50 0c	 call	 DWORD PTR [eax+12]
$LN17@MoveProces:

; 239  : 					}
; 240  : 				}
; 241  : 			}
; 242  : 		}
; 243  : 	}
; 244  : 	ProcessRecovery();

  001e9	8b ce		 mov	 ecx, esi
  001eb	e8 00 00 00 00	 call	 ?ProcessRecovery@CAIMeteonyker@@AAEXXZ ; CAIMeteonyker::ProcessRecovery
  001f0	5f		 pop	 edi

; 245  : 
; 246  : 	return TRUE;
; 247  : }

  001f1	5e		 pop	 esi
  001f2	b8 01 00 00 00	 mov	 eax, 1
  001f7	5b		 pop	 ebx
  001f8	8b e5		 mov	 esp, ebp
  001fa	5d		 pop	 ebp
  001fb	c3		 ret	 0
$LN3@MoveProces:
  001fc	5f		 pop	 edi
  001fd	5e		 pop	 esi
  001fe	33 c0		 xor	 eax, eax
  00200	5b		 pop	 ebx
  00201	8b e5		 mov	 esp, ebp
  00203	5d		 pop	 ebp
  00204	c3		 ret	 0
?MoveProcessIdle@CAIMeteonyker@@AAEHXZ ENDP		; CAIMeteonyker::MoveProcessIdle
_TEXT	ENDS
; Function compile flags: /Ogtp
; File C:\IAGOS\server\v18\Source\Source\_AIInterface\aimeteonyker.cpp
;	COMDAT ?Destroy@CAIMeteonyker@@AAEXXZ
_TEXT	SEGMENT
?Destroy@CAIMeteonyker@@AAEXXZ PROC			; CAIMeteonyker::Destroy, COMDAT
; _this$ = ecx

; 56   : 	m_mapDamage.clear();

  00000	83 c1 44	 add	 ecx, 68			; 00000044H
  00003	e9 00 00 00 00	 jmp	 ?clear@?$_Tree@V?$_Tmap_traits@KHU?$less@K@std@@V?$allocator@U?$pair@$$CBKH@std@@@2@$0A@@std@@@std@@QAEXXZ ; std::_Tree<std::_Tmap_traits<unsigned long,int,std::less<unsigned long>,std::allocator<std::pair<unsigned long const ,int> >,0> >::clear
?Destroy@CAIMeteonyker@@AAEXXZ ENDP			; CAIMeteonyker::Destroy
_TEXT	ENDS
; Function compile flags: /Ogtp
; File C:\IAGOS\server\v18\Source\Source\_AIInterface\aimeteonyker.cpp
;	COMDAT ?Init@CAIMeteonyker@@AAEXXZ
_TEXT	SEGMENT
?Init@CAIMeteonyker@@AAEXXZ PROC			; CAIMeteonyker::Init, COMDAT
; _this$ = ecx

; 61   : {

  00000	56		 push	 esi

; 62   : 	SetTarget( NULL_ID, 0 );

  00001	6a 00		 push	 0
  00003	6a ff		 push	 -1
  00005	8b f1		 mov	 esi, ecx
  00007	e8 00 00 00 00	 call	 ?SetTarget@CAIMeteonyker@@QAEXKK@Z ; CAIMeteonyker::SetTarget

; 63   : 	m_cbRetaliation	= CB_RETALIATION;	// 30ĂĘ´ç 1Č¸ ąßµż
; 64   : //	m_bHeal		= FALSE;	// ÄˇŔŻÇßłŞ?
; 65   : 	m_dwAtk		= OBJMSG_NONE;
; 66   : 	m_idLastAttacker	= NULL_ID;
; 67   : 
; 68   : 	m_bReturnToBegin	= FALSE;
; 69   : 	m_tmAttack	= g_tmCurrent + s_tmAttack;	// °ř°Ý ČÄ 20ĂĘ°Ł ĂßŔűÇŘżČ.

  0000c	a1 00 00 00 00	 mov	 eax, DWORD PTR ?s_tmAttack@@3KA
  00011	c7 46 40 0a 00
	00 00		 mov	 DWORD PTR [esi+64], 10	; 0000000aH
  00018	c7 46 68 00 00
	00 00		 mov	 DWORD PTR [esi+104], 0
  0001f	c7 46 6c ff ff
	ff ff		 mov	 DWORD PTR [esi+108], -1
  00026	c7 46 7c 00 00
	00 00		 mov	 DWORD PTR [esi+124], 0
  0002d	03 05 00 00 00
	00		 add	 eax, DWORD PTR ?g_tmCurrent@@3KA ; g_tmCurrent
  00033	89 86 84 00 00
	00		 mov	 DWORD PTR [esi+132], eax

; 70   : 	m_vOldPos.x	= m_vOldPos.y	= m_vOldPos.z	= 0;

  00039	c7 86 90 00 00
	00 00 00 00 00	 mov	 DWORD PTR [esi+144], 0
  00043	c7 86 8c 00 00
	00 00 00 00 00	 mov	 DWORD PTR [esi+140], 0
  0004d	c7 86 88 00 00
	00 00 00 00 00	 mov	 DWORD PTR [esi+136], 0

; 71   : 	m_tmRecovery	= m_tmAttackDelay	= m_tmMove = m_tmReturnToBegin	= g_tmCurrent;

  00057	a1 00 00 00 00	 mov	 eax, DWORD PTR ?g_tmCurrent@@3KA ; g_tmCurrent
  0005c	89 86 80 00 00
	00		 mov	 DWORD PTR [esi+128], eax
  00062	a1 00 00 00 00	 mov	 eax, DWORD PTR ?g_tmCurrent@@3KA ; g_tmCurrent
  00067	89 86 94 00 00
	00		 mov	 DWORD PTR [esi+148], eax
  0006d	a1 00 00 00 00	 mov	 eax, DWORD PTR ?g_tmCurrent@@3KA ; g_tmCurrent
  00072	89 46 60	 mov	 DWORD PTR [esi+96], eax
  00075	a1 00 00 00 00	 mov	 eax, DWORD PTR ?g_tmCurrent@@3KA ; g_tmCurrent
  0007a	89 46 54	 mov	 DWORD PTR [esi+84], eax

; 72   : 	m_vPosDamage	= D3DXVECTOR3( 0, 0, 0 );

  0007d	c7 86 98 00 00
	00 00 00 00 00	 mov	 DWORD PTR [esi+152], 0
  00087	c7 86 9c 00 00
	00 00 00 00 00	 mov	 DWORD PTR [esi+156], 0
  00091	c7 86 a0 00 00
	00 00 00 00 00	 mov	 DWORD PTR [esi+160], 0

; 73   : 	m_cbAttack	= 0;

  0009b	c7 46 4c 00 00
	00 00		 mov	 DWORD PTR [esi+76], 0

; 74   : 	m_nSPAttackType	= 0;

  000a2	c7 46 50 00 00
	00 00		 mov	 DWORD PTR [esi+80], 0

; 75   : 	m_dwHPOld	= 100;

  000a9	c7 46 58 64 00
	00 00		 mov	 DWORD PTR [esi+88], 100	; 00000064H

; 76   : 	m_bCritical		= FALSE;

  000b0	c7 46 5c 00 00
	00 00		 mov	 DWORD PTR [esi+92], 0
  000b7	5e		 pop	 esi

; 77   : }

  000b8	c3		 ret	 0
?Init@CAIMeteonyker@@AAEXXZ ENDP			; CAIMeteonyker::Init
_TEXT	ENDS
; Function compile flags: /Ogtp
; File C:\IAGOS\server\v18\Source\Source\_AIInterface\aimeteonyker.cpp
; File C:\IAGOS\server\v18\Source\Source\_Common\Obj.h
; File C:\IAGOS\server\v18\Source\Source\_Common\Mover.h
; File C:\IAGOS\server\v18\Source\Source\_Common\Obj.h
; File C:\IAGOS\server\v18\Source\Source\DX_SDK\d3dx9math.inl
; File C:\IAGOS\server\v18\Source\Source\_Common\Obj.h
; File C:\IAGOS\server\v18\Source\Source\DX_SDK\d3dx9math.inl
; File C:\IAGOS\server\v18\Source\Source\_AIInterface\aimeteonyker.cpp
; File C:\IAGOS\server\v18\Source\Source\_Common\xUtil.h
; File C:\IAGOS\server\v18\Source\Source\_AIInterface\aimeteonyker.cpp
; File C:\IAGOS\server\v18\Source\Source\_Common\xUtil.h
; File C:\IAGOS\server\v18\Source\Source\_Common\Obj.h
; File C:\IAGOS\server\v18\Source\Source\_AIInterface\aimeteonyker.cpp
;	COMDAT ?SelectTarget@CAIMeteonyker@@AAEHXZ
_TEXT	SEGMENT
$T1 = -28						; size = 12
$T2 = -16						; size = 12
_fRadius$ = -4						; size = 4
_dwNum$1$ = -4						; size = 4
_fRadiusSq$1$ = -4					; size = 4
?SelectTarget@CAIMeteonyker@@AAEHXZ PROC		; CAIMeteonyker::SelectTarget, COMDAT
; _this$ = ecx

; 709  : {

  00000	55		 push	 ebp
  00001	8b ec		 mov	 ebp, esp
  00003	83 ec 1c	 sub	 esp, 28			; 0000001cH
  00006	53		 push	 ebx
  00007	56		 push	 esi
  00008	57		 push	 edi
  00009	8b f9		 mov	 edi, ecx

; 710  : 	CMover	*pMover	= GetMover();

  0000b	8b 5f 30	 mov	 ebx, DWORD PTR [edi+48]

; 711  : 	CWorld	*pWorld	= GetWorld();
; 712  : 	CModelObject *pModel	= (CModelObject *)pMover->GetModel();
; 713  : 
; 714  : 	FLOAT fRadius	= pMover->GetRadiusXZ();

  0000e	8b cb		 mov	 ecx, ebx
  00010	e8 00 00 00 00	 call	 ?GetRadiusXZ@CObj@@QAEMXZ ; CObj::GetRadiusXZ

; 715  : 	FLOAT fRadiusSq	= fRadius * fRadius;
; 716  : 	
; 717  : 	CMover *pLastAttacker	= GetTarget( m_idLastAttacker );

  00015	ff 77 6c	 push	 DWORD PTR [edi+108]
  00018	d9 5d fc	 fstp	 DWORD PTR _fRadius$[ebp]
  0001b	f3 0f 10 45 fc	 movss	 xmm0, DWORD PTR _fRadius$[ebp]
  00020	8b cf		 mov	 ecx, edi
  00022	f3 0f 59 c0	 mulss	 xmm0, xmm0
  00026	f3 0f 11 45 fc	 movss	 DWORD PTR _fRadiusSq$1$[ebp], xmm0
  0002b	e8 00 00 00 00	 call	 ?GetTarget@CAIMeteonyker@@AAEPAVCMover@@K@Z ; CAIMeteonyker::GetTarget
  00030	8b f0		 mov	 esi, eax
; File C:\IAGOS\server\v18\Source\Source\_Common\Obj.h

; 327  : 	return pObj && ( pObj->IsDelete() == FALSE ); 

  00032	85 f6		 test	 esi, esi
  00034	0f 84 92 00 00
	00		 je	 $LN4@SelectTarg

; 180  : 	BOOL			IsDelete()	{ return (m_dwFlags & OBJ_FLAG_DELETE);  }

  0003a	f6 46 04 01	 test	 BYTE PTR [esi+4], 1

; 327  : 	return pObj && ( pObj->IsDelete() == FALSE ); 

  0003e	0f 85 88 00 00
	00		 jne	 $LN4@SelectTarg
; File C:\IAGOS\server\v18\Source\Source\_Common\Mover.h

; 1250 : 	BOOL			IsDie() { return m_pActMover->IsDie() || m_nHitPoint == 0; }

  00044	8b 8e 38 02 00
	00		 mov	 ecx, DWORD PTR [esi+568]
  0004a	f7 41 04 00 00
	00 08		 test	 DWORD PTR [ecx+4], 134217728 ; 08000000H
  00051	75 79		 jne	 SHORT $LN4@SelectTarg
  00053	83 be f8 05 00
	00 00		 cmp	 DWORD PTR [esi+1528], 0
  0005a	74 70		 je	 SHORT $LN4@SelectTarg
; File C:\IAGOS\server\v18\Source\Source\_Common\Obj.h

; 215  : 	D3DXVECTOR3		GetPos()	{ return m_vPos; }

  0005c	f3 0f 7e 83 60
	01 00 00	 movq	 xmm0, QWORD PTR [ebx+352]
  00064	8b 83 68 01 00
	00		 mov	 eax, DWORD PTR [ebx+360]
  0006a	66 0f d6 45 e4	 movq	 QWORD PTR $T1[ebp], xmm0
  0006f	f3 0f 7e 86 60
	01 00 00	 movq	 xmm0, QWORD PTR [esi+352]
  00077	66 0f d6 45 f0	 movq	 QWORD PTR $T2[ebp], xmm0
; File C:\IAGOS\server\v18\Source\Source\DX_SDK\d3dx9math.inl

; 383  :     return D3DXVECTOR3(x - v.x, y - v.y, z - v.z);

  0007c	f3 0f 10 4d f0	 movss	 xmm1, DWORD PTR $T2[ebp]
  00081	f3 0f 10 55 f4	 movss	 xmm2, DWORD PTR $T2[ebp+4]
  00086	f3 0f 5c 55 e8	 subss	 xmm2, DWORD PTR $T1[ebp+4]
  0008b	f3 0f 5c 4d e4	 subss	 xmm1, DWORD PTR $T1[ebp]
; File C:\IAGOS\server\v18\Source\Source\_Common\Obj.h

; 215  : 	D3DXVECTOR3		GetPos()	{ return m_vPos; }

  00090	89 45 ec	 mov	 DWORD PTR $T1[ebp+8], eax
  00093	8b 86 68 01 00
	00		 mov	 eax, DWORD PTR [esi+360]
  00099	89 45 f8	 mov	 DWORD PTR $T2[ebp+8], eax
; File C:\IAGOS\server\v18\Source\Source\DX_SDK\d3dx9math.inl

; 383  :     return D3DXVECTOR3(x - v.x, y - v.y, z - v.z);

  0009c	f3 0f 10 45 f8	 movss	 xmm0, DWORD PTR $T2[ebp+8]
  000a1	f3 0f 5c 45 ec	 subss	 xmm0, DWORD PTR $T1[ebp+8]

; 302  :     z = fz;

  000a6	f3 0f 59 d2	 mulss	 xmm2, xmm2

; 1698 :     return pV->x * pV->x + pV->y * pV->y + pV->z * pV->z;

  000aa	f3 0f 59 c9	 mulss	 xmm1, xmm1
  000ae	f3 0f 59 c0	 mulss	 xmm0, xmm0
  000b2	f3 0f 58 d1	 addss	 xmm2, xmm1
  000b6	f3 0f 58 d0	 addss	 xmm2, xmm0
; File C:\IAGOS\server\v18\Source\Source\_AIInterface\aimeteonyker.cpp

; 727  : 		if( fDistSq >= fRadiusSq * 10.0f )

  000ba	f3 0f 10 45 fc	 movss	 xmm0, DWORD PTR _fRadiusSq$1$[ebp]
  000bf	f3 0f 59 05 00
	00 00 00	 mulss	 xmm0, DWORD PTR __real@41200000
  000c7	0f 2f d0	 comiss	 xmm2, xmm0
  000ca	72 09		 jb	 SHORT $LN5@SelectTarg
$LN4@SelectTarg:

; 728  : 		{
; 729  : 			m_idLastAttacker	= NULL_ID;
; 730  : 			pLastAttacker	= NULL;
; 731  : 		}
; 732  : 	}
; 733  : 
; 734  : 	SetTarget( NULL_ID, 0 );

  000cc	33 f6		 xor	 esi, esi
  000ce	c7 47 6c ff ff
	ff ff		 mov	 DWORD PTR [edi+108], -1
$LN5@SelectTarg:
  000d5	6a 00		 push	 0
  000d7	6a ff		 push	 -1
  000d9	8b cf		 mov	 ecx, edi
  000db	e8 00 00 00 00	 call	 ?SetTarget@CAIMeteonyker@@QAEXKK@Z ; CAIMeteonyker::SetTarget

; 735  : 	if( m_idLastAttacker == NULL_ID )

  000e0	83 7f 6c ff	 cmp	 DWORD PTR [edi+108], -1
  000e4	75 56		 jne	 SHORT $LN6@SelectTarg

; 736  : 	{
; 737  : 		CMover* pTarget	= NULL;
; 738  : 		pTarget	= ScanTarget( pMover, 40, JOB_ALL );

  000e6	6a 00		 push	 0
  000e8	6a 00		 push	 0
  000ea	6a 00		 push	 0
  000ec	6a 28		 push	 40			; 00000028H
  000ee	6a 28		 push	 40			; 00000028H
  000f0	53		 push	 ebx
  000f1	8b cf		 mov	 ecx, edi
  000f3	e8 00 00 00 00	 call	 ?ScanTarget@CAIInterface@@IAEPAVCMover@@PAVCObj@@HHKKH@Z ; CAIInterface::ScanTarget

; 739  : 		if( pTarget )

  000f8	85 c0		 test	 eax, eax
  000fa	74 37		 je	 SHORT $LN8@SelectTarg

; 740  : 		{
; 741  : 			if( pMover->IsFlyingNPC() || pTarget->m_pActMover->IsFly() == FALSE )

  000fc	f7 83 3c 02 00
	00 00 00 01 00	 test	 DWORD PTR [ebx+572], 65536 ; 00010000H
  00106	75 0c		 jne	 SHORT $LN12@SelectTarg
  00108	8b 88 38 02 00
	00		 mov	 ecx, DWORD PTR [eax+568]
  0010e	f6 41 08 08	 test	 BYTE PTR [ecx+8], 8
  00112	75 1f		 jne	 SHORT $LN8@SelectTarg
$LN12@SelectTarg:

; 742  : 				SetTarget( pTarget->GetId(), pTarget->m_idparty );

  00114	ff b0 10 07 00
	00		 push	 DWORD PTR [eax+1808]

; 785  : 			else
; 786  : 				SetTarget( pLastAttacker->GetId(), pLastAttacker->GetPartyId() );
; 787  : 		}
; 788  : 	}
; 789  : 	return TRUE;

  0011a	8b cf		 mov	 ecx, edi
  0011c	ff b0 bc 01 00
	00		 push	 DWORD PTR [eax+444]
  00122	e8 00 00 00 00	 call	 ?SetTarget@CAIMeteonyker@@QAEXKK@Z ; CAIMeteonyker::SetTarget
  00127	5f		 pop	 edi

; 790  : }

  00128	5e		 pop	 esi
  00129	b8 01 00 00 00	 mov	 eax, 1
  0012e	5b		 pop	 ebx
  0012f	8b e5		 mov	 esp, ebp
  00131	5d		 pop	 ebp
  00132	c3		 ret	 0
$LN8@SelectTarg:
  00133	5f		 pop	 edi
  00134	5e		 pop	 esi
  00135	33 c0		 xor	 eax, eax
  00137	5b		 pop	 ebx
  00138	8b e5		 mov	 esp, ebp
  0013a	5d		 pop	 ebp
  0013b	c3		 ret	 0
$LN6@SelectTarg:
; File C:\IAGOS\server\v18\Source\Source\_Common\xUtil.h

; 16   : 	g_next = g_next * 1103515245 + 12345;// + nRandomSeed[ i++ ];

  0013c	69 0d 00 00 00
	00 6d 4e c6 41	 imul	 ecx, DWORD PTR ?g_next@@3KA, 1103515245 ; g_next

; 22   : 	return  xRand() % num;

  00146	b8 1f 85 eb 51	 mov	 eax, 1374389535		; 51eb851fH

; 16   : 	g_next = g_next * 1103515245 + 12345;// + nRandomSeed[ i++ ];

  0014b	81 c1 39 30 00
	00		 add	 ecx, 12345		; 00003039H

; 22   : 	return  xRand() % num;

  00151	f7 e1		 mul	 ecx

; 16   : 	g_next = g_next * 1103515245 + 12345;// + nRandomSeed[ i++ ];

  00153	89 0d 00 00 00
	00		 mov	 DWORD PTR ?g_next@@3KA, ecx ; g_next

; 22   : 	return  xRand() % num;

  00159	c1 ea 05	 shr	 edx, 5
  0015c	6b c2 64	 imul	 eax, edx, 100
; File C:\IAGOS\server\v18\Source\Source\_AIInterface\aimeteonyker.cpp

; 752  : 		DWORD dwAggroRate	= 50;

  0015f	ba 32 00 00 00	 mov	 edx, 50			; 00000032H
; File C:\IAGOS\server\v18\Source\Source\_Common\xUtil.h

; 22   : 	return  xRand() % num;

  00164	2b c8		 sub	 ecx, eax
  00166	89 4d fc	 mov	 DWORD PTR _dwNum$1$[ebp], ecx
; File C:\IAGOS\server\v18\Source\Source\_Common\Obj.h

; 327  : 	return pObj && ( pObj->IsDelete() == FALSE ); 

  00169	85 f6		 test	 esi, esi
  0016b	74 20		 je	 SHORT $LN14@SelectTarg

; 180  : 	BOOL			IsDelete()	{ return (m_dwFlags & OBJ_FLAG_DELETE);  }

  0016d	f6 46 04 01	 test	 BYTE PTR [esi+4], 1

; 327  : 	return pObj && ( pObj->IsDelete() == FALSE ); 

  00171	75 1a		 jne	 SHORT $LN14@SelectTarg
; File C:\IAGOS\server\v18\Source\Source\_AIInterface\aimeteonyker.cpp

; 755  : 			if( pLastAttacker->GetJob() == JOB_MERCENARY )

  00173	8b ce		 mov	 ecx, esi
  00175	e8 00 00 00 00	 call	 ?GetJob@CMover@@QAEHXZ	; CMover::GetJob
  0017a	b9 46 00 00 00	 mov	 ecx, 70			; 00000046H
  0017f	83 f8 01	 cmp	 eax, 1
  00182	ba 32 00 00 00	 mov	 edx, 50			; 00000032H
  00187	0f 44 d1	 cmove	 edx, ecx
  0018a	8b 4d fc	 mov	 ecx, DWORD PTR _dwNum$1$[ebp]
$LN14@SelectTarg:

; 756  : 				dwAggroRate = 70;
; 757  : 		}
; 758  : 		if( dwNum < dwAggroRate )		

  0018d	3b ca		 cmp	 ecx, edx
  0018f	0f 82 ea 00 00
	00		 jb	 $LN25@SelectTarg

; 759  : 		{
; 760  : 			SetTarget( pLastAttacker->GetId(), pLastAttacker->m_idparty );
; 761  : 		}
; 762  : 		else if( dwNum < 75 )

  00195	83 f9 4b	 cmp	 ecx, 75			; 0000004bH
  00198	73 6e		 jae	 SHORT $LN17@SelectTarg

; 763  : 		{
; 764  : 			CMover *pTarget	= ScanTargetStrong( pMover, 50 );		

  0019a	51		 push	 ecx
  0019b	c7 04 24 00 00
	48 42		 mov	 DWORD PTR [esp], 1112014848 ; 42480000H
  001a2	8b cf		 mov	 ecx, edi
  001a4	53		 push	 ebx
  001a5	e8 00 00 00 00	 call	 ?ScanTargetStrong@CAIInterface@@IAEPAVCMover@@PAVCObj@@M@Z ; CAIInterface::ScanTargetStrong

; 765  : 			if( pTarget )

  001aa	85 c0		 test	 eax, eax
  001ac	74 39		 je	 SHORT $LN19@SelectTarg

; 766  : 			{
; 767  : 				if( pMover->IsFlyingNPC() || pTarget->m_pActMover->IsFly() == FALSE )	

  001ae	f7 83 3c 02 00
	00 00 00 01 00	 test	 DWORD PTR [ebx+572], 65536 ; 00010000H
  001b8	75 0c		 jne	 SHORT $LN23@SelectTarg
  001ba	8b 88 38 02 00
	00		 mov	 ecx, DWORD PTR [eax+568]
  001c0	f6 41 08 08	 test	 BYTE PTR [ecx+8], 8
  001c4	75 21		 jne	 SHORT $LN19@SelectTarg
$LN23@SelectTarg:

; 768  : 					SetTarget( pTarget->GetId(), pTarget->GetPartyId() );

  001c6	8b 88 bc 01 00
	00		 mov	 ecx, DWORD PTR [eax+444]
  001cc	8b 80 10 07 00
	00		 mov	 eax, DWORD PTR [eax+1808]

; 769  : 				else
; 770  : 					SetTarget( pLastAttacker->GetId(), pLastAttacker->GetPartyId() );
; 771  : 			}
; 772  : 			else
; 773  : 				SetTarget( pLastAttacker->GetId(), pLastAttacker->GetPartyId() );
; 774  : 		}

  001d2	50		 push	 eax
  001d3	51		 push	 ecx

; 785  : 			else
; 786  : 				SetTarget( pLastAttacker->GetId(), pLastAttacker->GetPartyId() );
; 787  : 		}
; 788  : 	}
; 789  : 	return TRUE;

  001d4	8b cf		 mov	 ecx, edi
  001d6	e8 00 00 00 00	 call	 ?SetTarget@CAIMeteonyker@@QAEXKK@Z ; CAIMeteonyker::SetTarget
  001db	5f		 pop	 edi

; 790  : }

  001dc	5e		 pop	 esi
  001dd	b8 01 00 00 00	 mov	 eax, 1
  001e2	5b		 pop	 ebx
  001e3	8b e5		 mov	 esp, ebp
  001e5	5d		 pop	 ebp
  001e6	c3		 ret	 0
$LN19@SelectTarg:

; 769  : 				else
; 770  : 					SetTarget( pLastAttacker->GetId(), pLastAttacker->GetPartyId() );
; 771  : 			}
; 772  : 			else
; 773  : 				SetTarget( pLastAttacker->GetId(), pLastAttacker->GetPartyId() );
; 774  : 		}

  001e7	8b 86 10 07 00
	00		 mov	 eax, DWORD PTR [esi+1808]
  001ed	8b 8e bc 01 00
	00		 mov	 ecx, DWORD PTR [esi+444]
  001f3	50		 push	 eax
  001f4	51		 push	 ecx

; 785  : 			else
; 786  : 				SetTarget( pLastAttacker->GetId(), pLastAttacker->GetPartyId() );
; 787  : 		}
; 788  : 	}
; 789  : 	return TRUE;

  001f5	8b cf		 mov	 ecx, edi
  001f7	e8 00 00 00 00	 call	 ?SetTarget@CAIMeteonyker@@QAEXKK@Z ; CAIMeteonyker::SetTarget
  001fc	5f		 pop	 edi

; 790  : }

  001fd	5e		 pop	 esi
  001fe	b8 01 00 00 00	 mov	 eax, 1
  00203	5b		 pop	 ebx
  00204	8b e5		 mov	 esp, ebp
  00206	5d		 pop	 ebp
  00207	c3		 ret	 0
$LN17@SelectTarg:

; 775  : 		else if( dwNum < 100 )

  00208	83 f9 64	 cmp	 ecx, 100		; 00000064H
  0020b	0f 83 81 00 00
	00		 jae	 $LN26@SelectTarg

; 776  : 		{
; 777  : 			CMover *pTarget = ScanTargetOverHealer( pMover, 50 );		

  00211	51		 push	 ecx
  00212	c7 04 24 00 00
	48 42		 mov	 DWORD PTR [esp], 1112014848 ; 42480000H
  00219	8b cf		 mov	 ecx, edi
  0021b	53		 push	 ebx
  0021c	e8 00 00 00 00	 call	 ?ScanTargetOverHealer@CAIInterface@@IAEPAVCMover@@PAVCObj@@M@Z ; CAIInterface::ScanTargetOverHealer

; 778  : 			if( pTarget )

  00221	85 c0		 test	 eax, eax
  00223	74 5a		 je	 SHORT $LN25@SelectTarg

; 779  : 			{
; 780  : 				if( pMover->IsFlyingNPC() || pTarget->m_pActMover->IsFly() == FALSE )	

  00225	f7 83 3c 02 00
	00 00 00 01 00	 test	 DWORD PTR [ebx+572], 65536 ; 00010000H
  0022f	75 2d		 jne	 SHORT $LN29@SelectTarg
  00231	8b 88 38 02 00
	00		 mov	 ecx, DWORD PTR [eax+568]
  00237	f6 41 08 08	 test	 BYTE PTR [ecx+8], 8
  0023b	74 21		 je	 SHORT $LN29@SelectTarg

; 782  : 				else
; 783  : 					SetTarget( pLastAttacker->GetId(), pLastAttacker->GetPartyId() );

  0023d	8b 86 10 07 00
	00		 mov	 eax, DWORD PTR [esi+1808]
  00243	8b 8e bc 01 00
	00		 mov	 ecx, DWORD PTR [esi+444]

; 784  : 			}

  00249	50		 push	 eax
  0024a	51		 push	 ecx

; 785  : 			else
; 786  : 				SetTarget( pLastAttacker->GetId(), pLastAttacker->GetPartyId() );
; 787  : 		}
; 788  : 	}
; 789  : 	return TRUE;

  0024b	8b cf		 mov	 ecx, edi
  0024d	e8 00 00 00 00	 call	 ?SetTarget@CAIMeteonyker@@QAEXKK@Z ; CAIMeteonyker::SetTarget
  00252	5f		 pop	 edi

; 790  : }

  00253	5e		 pop	 esi
  00254	b8 01 00 00 00	 mov	 eax, 1
  00259	5b		 pop	 ebx
  0025a	8b e5		 mov	 esp, ebp
  0025c	5d		 pop	 ebp
  0025d	c3		 ret	 0
$LN29@SelectTarg:

; 781  : 					SetTarget( pTarget->GetId(), pTarget->GetPartyId() );

  0025e	8b 88 bc 01 00
	00		 mov	 ecx, DWORD PTR [eax+444]
  00264	8b 80 10 07 00
	00		 mov	 eax, DWORD PTR [eax+1808]

; 784  : 			}

  0026a	50		 push	 eax
  0026b	51		 push	 ecx

; 785  : 			else
; 786  : 				SetTarget( pLastAttacker->GetId(), pLastAttacker->GetPartyId() );
; 787  : 		}
; 788  : 	}
; 789  : 	return TRUE;

  0026c	8b cf		 mov	 ecx, edi
  0026e	e8 00 00 00 00	 call	 ?SetTarget@CAIMeteonyker@@QAEXKK@Z ; CAIMeteonyker::SetTarget
  00273	5f		 pop	 edi

; 790  : }

  00274	5e		 pop	 esi
  00275	b8 01 00 00 00	 mov	 eax, 1
  0027a	5b		 pop	 ebx
  0027b	8b e5		 mov	 esp, ebp
  0027d	5d		 pop	 ebp
  0027e	c3		 ret	 0
$LN25@SelectTarg:

; 785  : 			else
; 786  : 				SetTarget( pLastAttacker->GetId(), pLastAttacker->GetPartyId() );
; 787  : 		}
; 788  : 	}
; 789  : 	return TRUE;

  0027f	ff b6 10 07 00
	00		 push	 DWORD PTR [esi+1808]
  00285	8b cf		 mov	 ecx, edi
  00287	ff b6 bc 01 00
	00		 push	 DWORD PTR [esi+444]
  0028d	e8 00 00 00 00	 call	 ?SetTarget@CAIMeteonyker@@QAEXKK@Z ; CAIMeteonyker::SetTarget
$LN26@SelectTarg:

; 790  : }

  00292	5f		 pop	 edi
  00293	5e		 pop	 esi
  00294	b8 01 00 00 00	 mov	 eax, 1
  00299	5b		 pop	 ebx
  0029a	8b e5		 mov	 esp, ebp
  0029c	5d		 pop	 ebp
  0029d	c3		 ret	 0
?SelectTarget@CAIMeteonyker@@AAEHXZ ENDP		; CAIMeteonyker::SelectTarget
_TEXT	ENDS
; Function compile flags: /Ogtp
; File C:\IAGOS\server\v18\Source\Source\_AIInterface\aimeteonyker.cpp
;	COMDAT ?ProcessRecovery@CAIMeteonyker@@AAEXXZ
_TEXT	SEGMENT
?ProcessRecovery@CAIMeteonyker@@AAEXXZ PROC		; CAIMeteonyker::ProcessRecovery, COMDAT
; _this$ = ecx

; 693  : // idle »óĹÂżˇĽ­¸¸ µżŔŰ
; 694  : // ¸¶Áö¸· ÇÇ°Ý 60ĂĘ ČÄ 2ĂĘ ´ç 50ŔÇ HP°ˇ Č¸şą µČ´Ů.
; 695  : //	m_tmAttackŔş ¸¶Áö¸· °ř°Ý ČÄ, 20ĂĘ °ć°ú ˝Ă°Ł
; 696  : //	time_t	tm	= m_tmAttack + SEC( 40 );	// ¸¶Áö¸· °ř°Ý ČÄ, 1şĐ °ć°ú ˝Ă°ŁŔĚ´Ů.
; 697  : //	if( g_tmCurrent > tm )	// ¸¶Áö¸· °ř°Ý ČÄ, 1şĐŔĚ °ć°ú µÇľú´Ů¸é, Č¸şą °ˇ´ÉÇĎ´Ů.
; 698  : //	{
; 699  : 		if( g_tmCurrent > (DWORD)( m_tmRecovery ) )	// Č¸şą Ć˝ 2ĂĘ°ˇ °ć°úÇŃ »óĹÂ¶ó¸é,

  00000	a1 00 00 00 00	 mov	 eax, DWORD PTR ?g_tmCurrent@@3KA ; g_tmCurrent
  00005	3b 41 54	 cmp	 eax, DWORD PTR [ecx+84]
  00008	76 12		 jbe	 SHORT $LN2@ProcessRec

; 700  : 		{
; 701  : 			m_tmRecovery	= g_tmCurrent + SEC( 2 );

  0000a	05 d0 07 00 00	 add	 eax, 2000		; 000007d0H
  0000f	89 41 54	 mov	 DWORD PTR [ecx+84], eax

; 702  : 			CMover* pMover	= GetMover();
; 703  : 			pMover->IncHitPoint( 50 );

  00012	8b 49 30	 mov	 ecx, DWORD PTR [ecx+48]
  00015	6a 32		 push	 50			; 00000032H
  00017	e8 00 00 00 00	 call	 ?IncHitPoint@CMover@@QAEXH@Z ; CMover::IncHitPoint
$LN2@ProcessRec:

; 704  : 		}
; 705  : //	}
; 706  : }

  0001c	c3		 ret	 0
?ProcessRecovery@CAIMeteonyker@@AAEXXZ ENDP		; CAIMeteonyker::ProcessRecovery
_TEXT	ENDS
; Function compile flags: /Ogtp
; File C:\IAGOS\server\v18\Source\Source\_AIInterface\aimeteonyker.cpp
; File C:\IAGOS\server\v18\Source\Source\_Common\xUtil.h
; File C:\IAGOS\server\v18\Source\Source\_AIInterface\aimeteonyker.cpp
; File C:\IAGOS\server\v18\Source\Source\_Common\xUtil.h
; File C:\IAGOS\server\v18\Source\Source\_AIInterface\aimeteonyker.cpp
; File C:\IAGOS\server\v18\Source\Source\_Common\Project.h
; File C:\IAGOS\server\v18\Source\Source\_Common\data.h
; File C:\IAGOS\server\v18\Source\Source\_AIInterface\aimeteonyker.cpp
; File C:\IAGOS\server\v18\Source\Source\_Common\Project.h
; File C:\IAGOS\server\v18\Source\Source\_AIInterface\aimeteonyker.cpp
; File C:\IAGOS\server\v18\Source\Source\_Common\data.h
; File C:\IAGOS\server\v18\Source\Source\_AIInterface\aimeteonyker.cpp
;	COMDAT ?ProcessSPAttack@CAIMeteonyker@@AAEHXZ
_TEXT	SEGMENT
?ProcessSPAttack@CAIMeteonyker@@AAEHXZ PROC		; CAIMeteonyker::ProcessSPAttack, COMDAT
; _this$ = ecx

; 815  : {

  00000	56		 push	 esi
  00001	8b f1		 mov	 esi, ecx

; 816  : 	++m_cbAttack;
; 817  : 	int nCount	= m_cbAttack % 20;

  00003	b8 67 66 66 66	 mov	 eax, 1717986919		; 66666667H
  00008	8b 4e 4c	 mov	 ecx, DWORD PTR [esi+76]
  0000b	41		 inc	 ecx
  0000c	f7 e9		 imul	 ecx
  0000e	89 4e 4c	 mov	 DWORD PTR [esi+76], ecx
  00011	c1 fa 03	 sar	 edx, 3
  00014	8b c2		 mov	 eax, edx
  00016	c1 e8 1f	 shr	 eax, 31			; 0000001fH
  00019	03 c2		 add	 eax, edx
  0001b	8d 04 80	 lea	 eax, DWORD PTR [eax+eax*4]
  0001e	c1 e0 02	 shl	 eax, 2
  00021	2b c8		 sub	 ecx, eax

; 818  : 	if( nCount == 19 )	// ±¤żŞ żą°í

  00023	83 f9 13	 cmp	 ecx, 19			; 00000013H
  00026	0f 85 aa 00 00
	00		 jne	 $LN2@ProcessSPA
; File C:\IAGOS\server\v18\Source\Source\_Common\xUtil.h

; 16   : 	g_next = g_next * 1103515245 + 12345;// + nRandomSeed[ i++ ];

  0002c	69 05 00 00 00
	00 6d 4e c6 41	 imul	 eax, DWORD PTR ?g_next@@3KA, 1103515245 ; g_next
  00036	57		 push	 edi
; File C:\IAGOS\server\v18\Source\Source\_AIInterface\aimeteonyker.cpp

; 820  : 		CMover* pMover	= GetMover();

  00037	8b 7e 30	 mov	 edi, DWORD PTR [esi+48]
; File C:\IAGOS\server\v18\Source\Source\_Common\xUtil.h

; 16   : 	g_next = g_next * 1103515245 + 12345;// + nRandomSeed[ i++ ];

  0003a	05 39 30 00 00	 add	 eax, 12345		; 00003039H
  0003f	a3 00 00 00 00	 mov	 DWORD PTR ?g_next@@3KA, eax ; g_next
  00044	83 e0 01	 and	 eax, 1
; File C:\IAGOS\server\v18\Source\Source\_AIInterface\aimeteonyker.cpp

; 822  : 		m_nSPAttackType	= xRand() % 2;

  00047	89 46 50	 mov	 DWORD PTR [esi+80], eax

; 823  : 		if( m_nSPAttackType == 0 )

  0004a	a1 ac 02 00 00	 mov	 eax, DWORD PTR ?prj@@3VCProject@@A+684
  0004f	75 1d		 jne	 SHORT $LN34@ProcessSPA
; File C:\IAGOS\server\v18\Source\Source\_Common\Project.h

; 1427 : 	VERIFY_RANGE( (int)( dwIndex ), 0, m_colorText.GetSize(), "GetText range_error", "error" );

  00051	3d 1c 0d 00 00	 cmp	 eax, 3356		; 00000d1cH
  00056	7f 07		 jg	 SHORT $LN16@ProcessSPA

; 579  : 	LPCTSTR szErr = Error( _T( "%s min:%d, max:%d, index:%d" ), szMsg, nMin, nMax, nIndex ); 

  00058	68 1c 0d 00 00	 push	 3356			; 00000d1cH

; 1427 : 	VERIFY_RANGE( (int)( dwIndex ), 0, m_colorText.GetSize(), "GetText range_error", "error" );

  0005d	eb 1b		 jmp	 SHORT $LN65@ProcessSPA
$LN16@ProcessSPA:
; File C:\IAGOS\server\v18\Source\Source\_Common\data.h

; 270  : 	if( dwIndex >= (DWORD)m_nMaxIndex )

  0005f	76 4b		 jbe	 SHORT $LN48@ProcessSPA

; 271  : 		return NULL;
; 272  : 	return (T*) m_apOffset[ dwIndex ];

  00061	a1 9c 02 00 00	 mov	 eax, DWORD PTR ?prj@@3VCProject@@A+668
  00066	8b 88 70 34 00
	00		 mov	 ecx, DWORD PTR [eax+13424]
; File C:\IAGOS\server\v18\Source\Source\_AIInterface\aimeteonyker.cpp

; 827  : 		}

  0006c	eb 35		 jmp	 SHORT $LN64@ProcessSPA
$LN34@ProcessSPA:
; File C:\IAGOS\server\v18\Source\Source\_Common\Project.h

; 1427 : 	VERIFY_RANGE( (int)( dwIndex ), 0, m_colorText.GetSize(), "GetText range_error", "error" );

  0006e	3d 1d 0d 00 00	 cmp	 eax, 3357		; 00000d1dH
  00073	7f 21		 jg	 SHORT $LN32@ProcessSPA

; 579  : 	LPCTSTR szErr = Error( _T( "%s min:%d, max:%d, index:%d" ), szMsg, nMin, nMax, nIndex ); 

  00075	68 1d 0d 00 00	 push	 3357			; 00000d1dH
$LN65@ProcessSPA:
; File C:\IAGOS\server\v18\Source\Source\_AIInterface\aimeteonyker.cpp

; 833  : 	}

  0007a	50		 push	 eax
  0007b	6a 00		 push	 0
  0007d	68 00 00 00 00	 push	 OFFSET ??_C@_0BE@OHDBLHOM@GetText?5range_error@
  00082	68 00 00 00 00	 push	 OFFSET ??_C@_0BM@HMFGHCP@?$CFs?5min?3?$CFd?0?5max?3?$CFd?0?5index?3?$CFd@
  00087	e8 00 00 00 00	 call	 ?Error@@YAPBDPBDZZ	; Error
  0008c	83 c4 14	 add	 esp, 20			; 00000014H
  0008f	b9 00 00 00 00	 mov	 ecx, OFFSET ??_C@_05KKCIMGE@error@
  00094	eb 1b		 jmp	 SHORT $LN31@ProcessSPA
$LN32@ProcessSPA:
; File C:\IAGOS\server\v18\Source\Source\_Common\data.h

; 270  : 	if( dwIndex >= (DWORD)m_nMaxIndex )

  00096	76 14		 jbe	 SHORT $LN48@ProcessSPA

; 271  : 		return NULL;
; 272  : 	return (T*) m_apOffset[ dwIndex ];

  00098	a1 9c 02 00 00	 mov	 eax, DWORD PTR ?prj@@3VCProject@@A+668
  0009d	8b 88 74 34 00
	00		 mov	 ecx, DWORD PTR [eax+13428]
$LN64@ProcessSPA:
; File C:\IAGOS\server\v18\Source\Source\_AIInterface\aimeteonyker.cpp

; 833  : 	}

  000a3	85 c9		 test	 ecx, ecx
  000a5	74 05		 je	 SHORT $LN48@ProcessSPA
  000a7	8b 49 04	 mov	 ecx, DWORD PTR [ecx+4]
  000aa	eb 05		 jmp	 SHORT $LN31@ProcessSPA
$LN48@ProcessSPA:
  000ac	b9 00 00 00 00	 mov	 ecx, OFFSET ??_C@_00CNPNBAHC@@
$LN31@ProcessSPA:
  000b1	8b 87 6c 01 00
	00		 mov	 eax, DWORD PTR [edi+364]
  000b7	6a 00		 push	 0
  000b9	ff 30		 push	 DWORD PTR [eax]
  000bb	51		 push	 ecx
  000bc	b9 00 00 00 00	 mov	 ecx, OFFSET ?g_DPCoreClient@@3VCDPCoreClient@@A ; g_DPCoreClient
  000c1	e8 00 00 00 00	 call	 ?SendCaption@CDPCoreClient@@QAEXPBDKH@Z ; CDPCoreClient::SendCaption
  000c6	5f		 pop	 edi
$LN10@ProcessSPA:

; 844  : 				return TRUE;
; 845  : 		}
; 846  : 	}
; 847  : 	if( ProcessRetaliation() )

  000c7	8b ce		 mov	 ecx, esi
  000c9	e8 00 00 00 00	 call	 ?ProcessRetaliation@CAIMeteonyker@@AAEHXZ ; CAIMeteonyker::ProcessRetaliation
  000ce	f7 d8		 neg	 eax
  000d0	5e		 pop	 esi
  000d1	1b c0		 sbb	 eax, eax
  000d3	f7 d8		 neg	 eax

; 849  : 
; 850  : 	return FALSE;
; 851  : }

  000d5	c3		 ret	 0
$LN2@ProcessSPA:

; 834  : 	else if( nCount == 0 )

  000d6	85 c9		 test	 ecx, ecx
  000d8	75 ed		 jne	 SHORT $LN10@ProcessSPA

; 835  : 	{
; 836  : 		if( m_nSPAttackType == 0 )

  000da	83 7e 50 00	 cmp	 DWORD PTR [esi+80], 0
  000de	8b ce		 mov	 ecx, esi
  000e0	6a 01		 push	 1
  000e2	75 18		 jne	 SHORT $LN7@ProcessSPA

; 837  : 		{
; 838  : 			if( ProcessSummon( TRUE ) )

  000e4	e8 00 00 00 00	 call	 ?ProcessSummon@CAIMeteonyker@@AAEHH@Z ; CAIMeteonyker::ProcessSummon
  000e9	85 c0		 test	 eax, eax
  000eb	75 18		 jne	 SHORT $LN49@ProcessSPA

; 844  : 				return TRUE;
; 845  : 		}
; 846  : 	}
; 847  : 	if( ProcessRetaliation() )

  000ed	8b ce		 mov	 ecx, esi
  000ef	e8 00 00 00 00	 call	 ?ProcessRetaliation@CAIMeteonyker@@AAEHXZ ; CAIMeteonyker::ProcessRetaliation
  000f4	f7 d8		 neg	 eax
  000f6	5e		 pop	 esi
  000f7	1b c0		 sbb	 eax, eax
  000f9	f7 d8		 neg	 eax

; 849  : 
; 850  : 	return FALSE;
; 851  : }

  000fb	c3		 ret	 0
$LN7@ProcessSPA:

; 839  : 				return TRUE;
; 840  : 		}
; 841  : 		else
; 842  : 		{
; 843  : 			if( ProcessBurn( TRUE ) )

  000fc	e8 00 00 00 00	 call	 ?ProcessBurn@CAIMeteonyker@@AAEHH@Z ; CAIMeteonyker::ProcessBurn
  00101	85 c0		 test	 eax, eax
  00103	74 c2		 je	 SHORT $LN10@ProcessSPA
$LN49@ProcessSPA:

; 848  : 		return TRUE;

  00105	b8 01 00 00 00	 mov	 eax, 1
  0010a	5e		 pop	 esi

; 849  : 
; 850  : 	return FALSE;
; 851  : }

  0010b	c3		 ret	 0
?ProcessSPAttack@CAIMeteonyker@@AAEHXZ ENDP		; CAIMeteonyker::ProcessSPAttack
_TEXT	ENDS
; Function compile flags: /Ogtp
; File C:\IAGOS\server\v18\Source\Source\_AIInterface\aimeteonyker.cpp
; File C:\IAGOS\server\v18\Source\Source\_Common\Obj.h
; File C:\IAGOS\server\v18\Source\Source\_Common\Mover.h
; File C:\IAGOS\server\v18\Source\Source\_AIInterface\aimeteonyker.cpp
;	COMDAT ?ProcessBurn@CAIMeteonyker@@AAEHH@Z
_TEXT	SEGMENT
_bUnconditional$ = 8					; size = 4
?ProcessBurn@CAIMeteonyker@@AAEHH@Z PROC		; CAIMeteonyker::ProcessBurn, COMDAT
; _this$ = ecx

; 652  : {

  00000	55		 push	 ebp
  00001	8b ec		 mov	 ebp, esp
  00003	56		 push	 esi
  00004	57		 push	 edi
  00005	8b f9		 mov	 edi, ecx

; 653  : 	CMover* pTarget	= GetTarget( m_dwIdTarget );

  00007	ff 77 38	 push	 DWORD PTR [edi+56]
  0000a	e8 00 00 00 00	 call	 ?GetTarget@CAIMeteonyker@@AAEPAVCMover@@K@Z ; CAIMeteonyker::GetTarget
  0000f	8b f0		 mov	 esi, eax
; File C:\IAGOS\server\v18\Source\Source\_Common\Obj.h

; 327  : 	return pObj && ( pObj->IsDelete() == FALSE ); 

  00011	85 f6		 test	 esi, esi
  00013	74 69		 je	 SHORT $LN3@ProcessBur

; 180  : 	BOOL			IsDelete()	{ return (m_dwFlags & OBJ_FLAG_DELETE);  }

  00015	f6 46 04 01	 test	 BYTE PTR [esi+4], 1

; 327  : 	return pObj && ( pObj->IsDelete() == FALSE ); 

  00019	75 63		 jne	 SHORT $LN3@ProcessBur
; File C:\IAGOS\server\v18\Source\Source\_Common\Mover.h

; 1250 : 	BOOL			IsDie() { return m_pActMover->IsDie() || m_nHitPoint == 0; }

  0001b	8b 8e 38 02 00
	00		 mov	 ecx, DWORD PTR [esi+568]
  00021	f7 41 04 00 00
	00 08		 test	 DWORD PTR [ecx+4], 134217728 ; 08000000H
  00028	75 54		 jne	 SHORT $LN3@ProcessBur
  0002a	83 be f8 05 00
	00 00		 cmp	 DWORD PTR [esi+1528], 0
  00031	74 4b		 je	 SHORT $LN3@ProcessBur
; File C:\IAGOS\server\v18\Source\Source\_AIInterface\aimeteonyker.cpp

; 660  : 	if( bUnconditional || pMover->GetHitPointPercent( 100 ) <= 20 )

  00033	83 7d 08 00	 cmp	 DWORD PTR _bUnconditional$[ebp], 0
  00037	75 0f		 jne	 SHORT $LN5@ProcessBur
  00039	8b 4f 30	 mov	 ecx, DWORD PTR [edi+48]
  0003c	6a 64		 push	 100			; 00000064H
  0003e	e8 00 00 00 00	 call	 ?GetHitPointPercent@CMover@@QAEHH@Z ; CMover::GetHitPointPercent
  00043	83 f8 14	 cmp	 eax, 20			; 00000014H
  00046	7f 36		 jg	 SHORT $LN3@ProcessBur
$LN5@ProcessBur:

; 661  : 	{
; 662  : 		DWORD dwRand	= xRandom( 1, 101 );	// 1 ~ 100

  00048	6a 65		 push	 101			; 00000065H
  0004a	6a 01		 push	 1
  0004c	e8 00 00 00 00	 call	 ?xRandom@@YAKKK@Z	; xRandom
  00051	83 c4 08	 add	 esp, 8

; 663  : 		if( bUnconditional || dwRand <= 2 )

  00054	83 7d 08 00	 cmp	 DWORD PTR _bUnconditional$[ebp], 0
  00058	75 05		 jne	 SHORT $LN7@ProcessBur
  0005a	83 f8 02	 cmp	 eax, 2
  0005d	77 1f		 ja	 SHORT $LN3@ProcessBur
$LN7@ProcessBur:

; 664  : 		{
; 665  : 			// ±¤żŞ °ř°Ý X 130%
; 666  : 			// Mvr_Meteonyker_dmg4.ani 
; 667  : 			m_dwAtk	= OBJMSG_ATK4;

  0005f	c7 47 68 20 00
	00 00		 mov	 DWORD PTR [edi+104], 32	; 00000020H

; 668  : //			PostAIMsg( AIMSG_ARRIVAL );
; 669  : 			MoveToDst( pTarget->GetId() );

  00066	8b cf		 mov	 ecx, edi
  00068	ff b6 bc 01 00
	00		 push	 DWORD PTR [esi+444]
  0006e	e8 00 00 00 00	 call	 ?MoveToDst@CAIMeteonyker@@AAEXK@Z ; CAIMeteonyker::MoveToDst
  00073	5f		 pop	 edi

; 670  : 			return TRUE;

  00074	b8 01 00 00 00	 mov	 eax, 1

; 671  : 		}
; 672  : 	}
; 673  : 	return FALSE;
; 674  : }

  00079	5e		 pop	 esi
  0007a	5d		 pop	 ebp
  0007b	c2 04 00	 ret	 4
$LN3@ProcessBur:
  0007e	5f		 pop	 edi

; 654  : 	if( IsValidObj( pTarget ) == FALSE || pTarget->IsDie() )
; 655  : 		return FALSE;

  0007f	33 c0		 xor	 eax, eax

; 671  : 		}
; 672  : 	}
; 673  : 	return FALSE;
; 674  : }

  00081	5e		 pop	 esi
  00082	5d		 pop	 ebp
  00083	c2 04 00	 ret	 4
?ProcessBurn@CAIMeteonyker@@AAEHH@Z ENDP		; CAIMeteonyker::ProcessBurn
_TEXT	ENDS
; Function compile flags: /Ogtp
; File C:\IAGOS\server\v18\Source\Source\_AIInterface\aimeteonyker.cpp
; File C:\IAGOS\server\v18\Source\Source\_Common\Obj.h
; File C:\IAGOS\server\v18\Source\Source\_Common\Mover.h
; File C:\IAGOS\server\v18\Source\Source\_AIInterface\aimeteonyker.cpp
; File C:\IAGOS\server\v18\Source\Source\_Common\Obj.h
; File C:\IAGOS\server\v18\Source\Source\_AIInterface\aimeteonyker.cpp
; File C:\IAGOS\server\v18\Source\Source\_Common\Obj.h
; File C:\IAGOS\server\v18\Source\Source\_AIInterface\aimeteonyker.cpp
; File C:\IAGOS\server\v18\Source\Source\DX_SDK\d3dx9math.inl
; File C:\IAGOS\server\v18\Source\Source\_AIInterface\aimeteonyker.cpp
; File C:\IAGOS\server\v18\Source\Source\DX_SDK\d3dx9math.inl
; File C:\IAGOS\server\v18\Source\Source\_AIInterface\aimeteonyker.cpp
; File C:\IAGOS\server\v18\Source\Source\DX_SDK\d3dx9math.inl
; File C:\IAGOS\server\v18\Source\Source\_AIInterface\aimeteonyker.cpp
; File C:\IAGOS\server\v18\Source\Source\DX_SDK\d3dx9math.inl
; File C:\IAGOS\server\v18\Source\Source\_AIInterface\aimeteonyker.cpp
; File C:\IAGOS\server\v18\Source\Source\DX_SDK\d3dx9math.inl
; File C:\IAGOS\server\v18\Source\Source\_AIInterface\aimeteonyker.cpp
; File C:\IAGOS\server\v18\Source\Source\_Common\Mover.h
; File C:\IAGOS\server\v18\Source\Source\_Common\Obj.h
; File C:\IAGOS\server\v18\Source\Source\DX_SDK\d3dx9math.inl
; File C:\IAGOS\server\v18\Source\Source\_Common\Obj.h
; File C:\IAGOS\server\v18\Source\Source\DX_SDK\d3dx9math.inl
; File C:\IAGOS\server\v18\Source\Source\_AIInterface\aimeteonyker.cpp
; File C:\IAGOS\server\v18\Source\Source\_Common\Obj.h
; File C:\IAGOS\server\v18\Source\Source\_AIInterface\aimeteonyker.cpp
; File C:\IAGOS\server\v18\Source\Source\_Common\Obj.h
; File C:\IAGOS\server\v18\Source\Source\_AIInterface\aimeteonyker.cpp
;	COMDAT ?ProcessSummon@CAIMeteonyker@@AAEHH@Z
_TEXT	SEGMENT
$T1 = -124						; size = 12
_this$GSCopy$1$ = -112					; size = 4
tv1002 = -108						; size = 8
tv1038 = -104						; size = 4
tv1016 = -100						; size = 4
__pObjs$1$ = -96					; size = 4
tv1020 = -92						; size = 4
tv1022 = -88						; size = 4
tv1024 = -84						; size = 4
tv1026 = -80						; size = 4
_pMover$1$ = -76					; size = 4
__k$1$ = -72						; size = 4
tv1041 = -68						; size = 4
tv1010 = -64						; size = 4
__nLinkZ$1$ = -60					; size = 4
__nLinkX$1$ = -56					; size = 4
_pWorld$1$ = -52					; size = 4
__i$1$ = -48						; size = 4
__nMaxWidth$1$ = -44					; size = 4
__nX$1$ = -40						; size = 4
__j$1$ = -40						; size = 4
tv1028 = -36						; size = 4
tv1039 = -36						; size = 4
__nUnit$1$ = -32					; size = 4
tv941 = -32						; size = 4
$T2 = -32						; size = 4
$T3 = -28						; size = 12
$T4 = -28						; size = 12
_vPos$5 = -16						; size = 12
__$ArrayPad$ = -4					; size = 4
_bUnconditional$ = 8					; size = 4
?ProcessSummon@CAIMeteonyker@@AAEHH@Z PROC		; CAIMeteonyker::ProcessSummon, COMDAT
; _this$ = ecx

; 592  : {

  00000	55		 push	 ebp
  00001	8b ec		 mov	 ebp, esp
  00003	83 ec 7c	 sub	 esp, 124		; 0000007cH
  00006	a1 00 00 00 00	 mov	 eax, DWORD PTR ___security_cookie
  0000b	33 c5		 xor	 eax, ebp
  0000d	89 45 fc	 mov	 DWORD PTR __$ArrayPad$[ebp], eax
  00010	53		 push	 ebx
  00011	8b d9		 mov	 ebx, ecx
  00013	89 5d 90	 mov	 DWORD PTR _this$GSCopy$1$[ebp], ebx

; 593  : 	CMover* pTarget	= GetTarget( m_dwIdTarget );

  00016	ff 73 38	 push	 DWORD PTR [ebx+56]
  00019	e8 00 00 00 00	 call	 ?GetTarget@CAIMeteonyker@@AAEPAVCMover@@K@Z ; CAIMeteonyker::GetTarget
; File C:\IAGOS\server\v18\Source\Source\_Common\Obj.h

; 327  : 	return pObj && ( pObj->IsDelete() == FALSE ); 

  0001e	85 c0		 test	 eax, eax
  00020	0f 84 2e 04 00
	00		 je	 $LN14@ProcessSum

; 180  : 	BOOL			IsDelete()	{ return (m_dwFlags & OBJ_FLAG_DELETE);  }

  00026	f6 40 04 01	 test	 BYTE PTR [eax+4], 1

; 327  : 	return pObj && ( pObj->IsDelete() == FALSE ); 

  0002a	0f 85 24 04 00
	00		 jne	 $LN14@ProcessSum
; File C:\IAGOS\server\v18\Source\Source\_Common\Mover.h

; 1250 : 	BOOL			IsDie() { return m_pActMover->IsDie() || m_nHitPoint == 0; }

  00030	8b 88 38 02 00
	00		 mov	 ecx, DWORD PTR [eax+568]
  00036	f7 41 04 00 00
	00 08		 test	 DWORD PTR [ecx+4], 134217728 ; 08000000H
  0003d	0f 85 11 04 00
	00		 jne	 $LN14@ProcessSum
  00043	83 b8 f8 05 00
	00 00		 cmp	 DWORD PTR [eax+1528], 0
  0004a	0f 84 04 04 00
	00		 je	 $LN14@ProcessSum
; File C:\IAGOS\server\v18\Source\Source\_AIInterface\aimeteonyker.cpp

; 598  : 	DWORD dwRand	= xRandom( 1, 101 );	// 1 ~ 100

  00050	6a 65		 push	 101			; 00000065H
  00052	6a 01		 push	 1
  00054	e8 00 00 00 00	 call	 ?xRandom@@YAKKK@Z	; xRandom
  00059	83 c4 08	 add	 esp, 8

; 599  : 	if( bUnconditional || dwRand <= 5 )

  0005c	83 7d 08 00	 cmp	 DWORD PTR _bUnconditional$[ebp], 0
  00060	75 09		 jne	 SHORT $LN16@ProcessSum
  00062	83 f8 05	 cmp	 eax, 5
  00065	0f 87 e9 03 00
	00		 ja	 $LN14@ProcessSum
$LN16@ProcessSum:

; 600  : 	{
; 601  : 		// ż©±âĽ­ °ř°Ý Ĺ¸ŔÔŔ» ĽłÁ¤ÇŃ´Ů.
; 602  : 		CMover* pMover	= GetMover();

  0006b	8b 5b 30	 mov	 ebx, DWORD PTR [ebx+48]
  0006e	56		 push	 esi
  0006f	57		 push	 edi
  00070	89 5d b4	 mov	 DWORD PTR _pMover$1$[ebp], ebx
; File C:\IAGOS\server\v18\Source\Source\_Common\Obj.h

; 215  : 	D3DXVECTOR3		GetPos()	{ return m_vPos; }

  00073	f3 0f 7e 83 60
	01 00 00	 movq	 xmm0, QWORD PTR [ebx+352]
; File C:\IAGOS\server\v18\Source\Source\_AIInterface\aimeteonyker.cpp

; 603  : 		CWorld* pWorld	= pMover->GetWorld();

  0007b	8b bb 6c 01 00
	00		 mov	 edi, DWORD PTR [ebx+364]
; File C:\IAGOS\server\v18\Source\Source\_Common\Obj.h

; 215  : 	D3DXVECTOR3		GetPos()	{ return m_vPos; }

  00081	66 0f d6 45 f0	 movq	 QWORD PTR _vPos$5[ebp], xmm0
  00086	8b 83 68 01 00
	00		 mov	 eax, DWORD PTR [ebx+360]
  0008c	89 45 f8	 mov	 DWORD PTR _vPos$5[ebp+8], eax
; File C:\IAGOS\server\v18\Source\Source\_AIInterface\aimeteonyker.cpp

; 606  : 		FLOAT	fTheta	= D3DXToRadian( pMover->GetAngle() );

  0008f	f3 0f 10 43 18	 movss	 xmm0, DWORD PTR [ebx+24]
  00094	f3 0f 59 05 00
	00 00 00	 mulss	 xmm0, DWORD PTR __real@3c8efa35
  0009c	89 7d cc	 mov	 DWORD PTR _pWorld$1$[ebp], edi

; 609  : 		vDelta.x	= sin( fTheta ) * 7.0F;

  0009f	0f 5a c0	 cvtps2pd xmm0, xmm0
  000a2	f2 0f 11 45 94	 movsd	 QWORD PTR tv1002[ebp], xmm0
  000a7	e8 00 00 00 00	 call	 __libm_sse2_sin_precise
  000ac	f2 0f 59 05 00
	00 00 00	 mulsd	 xmm0, QWORD PTR __real@401c000000000000
; File C:\IAGOS\server\v18\Source\Source\DX_SDK\d3dx9math.inl

; 324  :     x += v.x;

  000b4	f3 0f 10 4d f4	 movss	 xmm1, DWORD PTR _vPos$5[ebp+4]
  000b9	f3 0f 58 0d 00
	00 00 00	 addss	 xmm1, DWORD PTR __real@40e00000
; File C:\IAGOS\server\v18\Source\Source\_AIInterface\aimeteonyker.cpp

; 609  : 		vDelta.x	= sin( fTheta ) * 7.0F;

  000c1	f2 0f 5a c0	 cvtsd2ss xmm0, xmm0
; File C:\IAGOS\server\v18\Source\Source\DX_SDK\d3dx9math.inl

; 325  :     y += v.y;

  000c5	f3 0f 11 4d f4	 movss	 DWORD PTR _vPos$5[ebp+4], xmm1
; File C:\IAGOS\server\v18\Source\Source\_AIInterface\aimeteonyker.cpp

; 610  : 		vDelta.z	= -cos( fTheta ) * 7.0F;

  000ca	f3 0f 58 45 f0	 addss	 xmm0, DWORD PTR _vPos$5[ebp]
  000cf	f3 0f 11 45 e0	 movss	 DWORD PTR tv941[ebp], xmm0
; File C:\IAGOS\server\v18\Source\Source\DX_SDK\d3dx9math.inl

; 324  :     x += v.x;

  000d4	f3 0f 11 45 f0	 movss	 DWORD PTR _vPos$5[ebp], xmm0
; File C:\IAGOS\server\v18\Source\Source\_AIInterface\aimeteonyker.cpp

; 610  : 		vDelta.z	= -cos( fTheta ) * 7.0F;

  000d9	f2 0f 10 45 94	 movsd	 xmm0, QWORD PTR tv1002[ebp]
  000de	e8 00 00 00 00	 call	 __libm_sse2_cos_precise
  000e3	f2 0f 59 05 00
	00 00 00	 mulsd	 xmm0, QWORD PTR __real@401c000000000000

; 619  : 		FOR_LINKMAP( pWorld, vPos, pObj, 15, CObj::linkPlayer, pMover->GetLayer() )

  000eb	33 f6		 xor	 esi, esi
  000ed	89 75 d0	 mov	 DWORD PTR __i$1$[ebp], esi
; File C:\IAGOS\server\v18\Source\Source\DX_SDK\d3dx9math.inl

; 325  :     y += v.y;

  000f0	f3 0f 10 4d f8	 movss	 xmm1, DWORD PTR _vPos$5[ebp+8]
; File C:\IAGOS\server\v18\Source\Source\_AIInterface\aimeteonyker.cpp

; 619  : 		FOR_LINKMAP( pWorld, vPos, pObj, 15, CObj::linkPlayer, pMover->GetLayer() )

  000f5	f3 0f 10 55 e0	 movss	 xmm2, DWORD PTR tv941[ebp]
  000fa	f2 0f 5a c0	 cvtsd2ss xmm0, xmm0
; File C:\IAGOS\server\v18\Source\Source\DX_SDK\d3dx9math.inl

; 325  :     y += v.y;

  000fe	f3 0f 5c c8	 subss	 xmm1, xmm0

; 326  :     z += v.z;

  00102	f3 0f 11 4d f8	 movss	 DWORD PTR _vPos$5[ebp+8], xmm1
  00107	66 0f 6e 47 14	 movd	 xmm0, DWORD PTR [edi+20]
; File C:\IAGOS\server\v18\Source\Source\_AIInterface\aimeteonyker.cpp

; 619  : 		FOR_LINKMAP( pWorld, vPos, pObj, 15, CObj::linkPlayer, pMover->GetLayer() )

  0010c	0f 5b c0	 cvtdq2ps xmm0, xmm0
  0010f	ff b3 b8 01 00
	00		 push	 DWORD PTR [ebx+440]
  00115	f3 0f 5e d0	 divss	 xmm2, xmm0
  00119	6a 02		 push	 2
  0011b	f3 0f 5e c8	 divss	 xmm1, xmm0
  0011f	f3 0f 2c c2	 cvttss2si eax, xmm2
  00123	89 45 c8	 mov	 DWORD PTR __nLinkX$1$[ebp], eax
  00126	f3 0f 2c c1	 cvttss2si eax, xmm1
  0012a	89 45 c4	 mov	 DWORD PTR __nLinkZ$1$[ebp], eax
  0012d	8d 47 24	 lea	 eax, DWORD PTR [edi+36]
  00130	8b c8		 mov	 ecx, eax
  00132	89 45 98	 mov	 DWORD PTR tv1038[ebp], eax
  00135	e8 00 00 00 00	 call	 ?GetMaxLinkLevel@CLayeredLinkMap@@QAEHKH@Z ; CLayeredLinkMap::GetMaxLinkLevel
  0013a	85 c0		 test	 eax, eax
  0013c	0f 8e d1 02 00
	00		 jle	 $LN3@ProcessSum
  00142	8b 45 c8	 mov	 eax, DWORD PTR __nLinkX$1$[ebp]
  00145	8d 48 f1	 lea	 ecx, DWORD PTR [eax-15]
  00148	83 c0 0f	 add	 eax, 15			; 0000000fH
  0014b	89 4d b0	 mov	 DWORD PTR tv1026[ebp], ecx
  0014e	8b 4d c4	 mov	 ecx, DWORD PTR __nLinkZ$1$[ebp]
  00151	89 45 a8	 mov	 DWORD PTR tv1022[ebp], eax
  00154	8d 51 f1	 lea	 edx, DWORD PTR [ecx-15]
  00157	8d 41 0f	 lea	 eax, DWORD PTR [ecx+15]
  0015a	89 55 ac	 mov	 DWORD PTR tv1024[ebp], edx
  0015d	89 45 a4	 mov	 DWORD PTR tv1020[ebp], eax
$LL4@ProcessSum:
  00160	ff b3 b8 01 00
	00		 push	 DWORD PTR [ebx+440]
  00166	8d 4f 24	 lea	 ecx, DWORD PTR [edi+36]
  00169	56		 push	 esi
  0016a	6a 02		 push	 2
  0016c	e8 00 00 00 00	 call	 ?GetLinkWidth@CLayeredLinkMap@@QAEHKHH@Z ; CLayeredLinkMap::GetLinkWidth
  00171	ff b3 b8 01 00
	00		 push	 DWORD PTR [ebx+440]
  00177	8d 4f 24	 lea	 ecx, DWORD PTR [edi+36]
  0017a	8b f0		 mov	 esi, eax
  0017c	ff 75 d0	 push	 DWORD PTR __i$1$[ebp]
  0017f	6a 02		 push	 2
  00181	e8 00 00 00 00	 call	 ?GetObj@CLayeredLinkMap@@QAEPAPAVCObj@@KKH@Z ; CLayeredLinkMap::GetObj
  00186	89 45 a0	 mov	 DWORD PTR __pObjs$1$[ebp], eax
  00189	8b 47 04	 mov	 eax, DWORD PTR [edi+4]
  0018c	8b d8		 mov	 ebx, eax
  0018e	c1 e0 07	 shl	 eax, 7
  00191	99		 cdq
  00192	0f af de	 imul	 ebx, esi
  00195	8b 4f 08	 mov	 ecx, DWORD PTR [edi+8]
  00198	8b 7f 14	 mov	 edi, DWORD PTR [edi+20]
  0019b	0f af ce	 imul	 ecx, esi
  0019e	f3 0f 10 5d f0	 movss	 xmm3, DWORD PTR _vPos$5[ebp]
  001a3	f7 fb		 idiv	 ebx
  001a5	89 5d d4	 mov	 DWORD PTR __nMaxWidth$1$[ebp], ebx
  001a8	8b d8		 mov	 ebx, eax
  001aa	89 4d dc	 mov	 DWORD PTR tv1028[ebp], ecx
  001ad	8b 4d c8	 mov	 ecx, DWORD PTR __nLinkX$1$[ebp]
  001b0	8b c7		 mov	 eax, edi
  001b2	0f af c3	 imul	 eax, ebx
  001b5	f3 0f 10 65 f8	 movss	 xmm4, DWORD PTR _vPos$5[ebp+8]
  001ba	89 5d e0	 mov	 DWORD PTR __nUnit$1$[ebp], ebx
  001bd	99		 cdq
  001be	2b c2		 sub	 eax, edx
  001c0	8b f0		 mov	 esi, eax
  001c2	8b c1		 mov	 eax, ecx
  001c4	99		 cdq
  001c5	f7 fb		 idiv	 ebx
  001c7	f3 0f 2c c3	 cvttss2si eax, xmm3
  001cb	2b ca		 sub	 ecx, edx
  001cd	d1 fe		 sar	 esi, 1
  001cf	0f af cf	 imul	 ecx, edi
  001d2	2b c1		 sub	 eax, ecx
  001d4	33 c9		 xor	 ecx, ecx
  001d6	3b c6		 cmp	 eax, esi
  001d8	0f 9f c1	 setg	 cl
  001db	89 4d d8	 mov	 DWORD PTR __nX$1$[ebp], ecx
  001de	8b 4d c4	 mov	 ecx, DWORD PTR __nLinkZ$1$[ebp]
  001e1	8b c1		 mov	 eax, ecx
  001e3	99		 cdq
  001e4	f7 fb		 idiv	 ebx
  001e6	f3 0f 2c c4	 cvttss2si eax, xmm4
  001ea	2b ca		 sub	 ecx, edx
  001ec	33 db		 xor	 ebx, ebx
  001ee	0f af cf	 imul	 ecx, edi
  001f1	8b 7d e0	 mov	 edi, DWORD PTR __nUnit$1$[ebp]
  001f4	2b c1		 sub	 eax, ecx
  001f6	3b c6		 cmp	 eax, esi
  001f8	8b 45 b0	 mov	 eax, DWORD PTR tv1026[ebp]
  001fb	99		 cdq
  001fc	0f 9f c3	 setg	 bl
  001ff	33 c9		 xor	 ecx, ecx
  00201	f7 ff		 idiv	 edi
  00203	48		 dec	 eax
  00204	03 45 d8	 add	 eax, DWORD PTR __nX$1$[ebp]
  00207	0f 49 c8	 cmovns	 ecx, eax
  0020a	8b 45 ac	 mov	 eax, DWORD PTR tv1024[ebp]
  0020d	99		 cdq
  0020e	f7 ff		 idiv	 edi
  00210	89 4d b8	 mov	 DWORD PTR __k$1$[ebp], ecx
  00213	8d 48 ff	 lea	 ecx, DWORD PTR [eax-1]
  00216	8b 45 a8	 mov	 eax, DWORD PTR tv1022[ebp]
  00219	99		 cdq
  0021a	03 cb		 add	 ecx, ebx
  0021c	f7 ff		 idiv	 edi
  0021e	8b 55 d4	 mov	 edx, DWORD PTR __nMaxWidth$1$[ebp]
  00221	03 45 d8	 add	 eax, DWORD PTR __nX$1$[ebp]
  00224	3b c2		 cmp	 eax, edx
  00226	8d 72 ff	 lea	 esi, DWORD PTR [edx-1]
  00229	0f 4c f0	 cmovl	 esi, eax
  0022c	8b 45 a4	 mov	 eax, DWORD PTR tv1020[ebp]
  0022f	89 75 9c	 mov	 DWORD PTR tv1016[ebp], esi
  00232	99		 cdq
  00233	f7 ff		 idiv	 edi
  00235	8b 55 dc	 mov	 edx, DWORD PTR tv1028[ebp]
  00238	03 c3		 add	 eax, ebx
  0023a	3b c2		 cmp	 eax, edx
  0023c	8d 5a ff	 lea	 ebx, DWORD PTR [edx-1]
  0023f	0f 4c d8	 cmovl	 ebx, eax
  00242	33 d2		 xor	 edx, edx
  00244	85 c9		 test	 ecx, ecx
  00246	89 5d dc	 mov	 DWORD PTR tv1039[ebp], ebx
  00249	0f 49 d1	 cmovns	 edx, ecx
  0024c	89 55 d8	 mov	 DWORD PTR __j$1$[ebp], edx
  0024f	3b d3		 cmp	 edx, ebx
  00251	0f 8f 97 01 00
	00		 jg	 $LN2@ProcessSum
  00257	8b 4d d4	 mov	 ecx, DWORD PTR __nMaxWidth$1$[ebp]
  0025a	8b c2		 mov	 eax, edx
  0025c	8b 5d b8	 mov	 ebx, DWORD PTR __k$1$[ebp]
  0025f	8b 7d dc	 mov	 edi, DWORD PTR tv1039[ebp]
  00262	0f af c1	 imul	 eax, ecx
  00265	03 c3		 add	 eax, ebx
  00267	89 45 e0	 mov	 DWORD PTR $T2[ebp], eax
  0026a	66 0f 1f 44 00
	00		 npad	 6
$LL7@ProcessSum:
  00270	3b de		 cmp	 ebx, esi
  00272	0f 8f 65 01 00
	00		 jg	 $LN5@ProcessSum
  00278	8b 4d a0	 mov	 ecx, DWORD PTR __pObjs$1$[ebp]
  0027b	8b d6		 mov	 edx, esi
  0027d	2b d3		 sub	 edx, ebx
  0027f	42		 inc	 edx
  00280	89 55 bc	 mov	 DWORD PTR tv1041[ebp], edx
  00283	8d 0c 81	 lea	 ecx, DWORD PTR [ecx+eax*4]
  00286	89 4d c0	 mov	 DWORD PTR tv1010[ebp], ecx
  00289	0f 1f 80 00 00
	00 00		 npad	 7
$LL10@ProcessSum:
  00290	8b 31		 mov	 esi, DWORD PTR [ecx]
  00292	bf e8 03 00 00	 mov	 edi, 1000		; 000003e8H
  00297	85 f6		 test	 esi, esi
  00299	0f 84 1a 01 00
	00		 je	 $LN8@ProcessSum
  0029f	90		 npad	 1
$LL11@ProcessSum:
  002a0	8b c7		 mov	 eax, edi
  002a2	4f		 dec	 edi
  002a3	85 c0		 test	 eax, eax
  002a5	0f 84 08 01 00
	00		 je	 $LN83@ProcessSum
; File C:\IAGOS\server\v18\Source\Source\_Common\Mover.h

; 1251 : 	BOOL			IsLive() { return m_pActMover->IsDie() == FALSE || m_nHitPoint > 0; }		// && ¸¦  ||·Î ąŮ˛ĺŔ˝.  !=¸¦ >·Î ąŮ˛Ţ

  002ab	8b 86 38 02 00
	00		 mov	 eax, DWORD PTR [esi+568]
  002b1	f7 40 04 00 00
	00 08		 test	 DWORD PTR [eax+4], 134217728 ; 08000000H
  002b8	74 0d		 je	 SHORT $LN79@ProcessSum
  002ba	83 be f8 05 00
	00 00		 cmp	 DWORD PTR [esi+1528], 0
  002c1	0f 8e de 00 00
	00		 jle	 $LN22@ProcessSum
$LN79@ProcessSum:
; File C:\IAGOS\server\v18\Source\Source\_Common\Obj.h

; 215  : 	D3DXVECTOR3		GetPos()	{ return m_vPos; }

  002c7	8b 5d b4	 mov	 ebx, DWORD PTR _pMover$1$[ebp]
  002ca	f3 0f 7e 86 60
	01 00 00	 movq	 xmm0, QWORD PTR [esi+352]
  002d2	8b 86 68 01 00
	00		 mov	 eax, DWORD PTR [esi+360]
  002d8	66 0f d6 45 e4	 movq	 QWORD PTR $T3[ebp], xmm0
  002dd	f3 0f 7e 83 60
	01 00 00	 movq	 xmm0, QWORD PTR [ebx+352]
  002e5	66 0f d6 45 84	 movq	 QWORD PTR $T1[ebp], xmm0
; File C:\IAGOS\server\v18\Source\Source\DX_SDK\d3dx9math.inl

; 383  :     return D3DXVECTOR3(x - v.x, y - v.y, z - v.z);

  002ea	f3 0f 10 4d 84	 movss	 xmm1, DWORD PTR $T1[ebp]
  002ef	f3 0f 10 55 88	 movss	 xmm2, DWORD PTR $T1[ebp+4]
  002f4	f3 0f 5c 55 e8	 subss	 xmm2, DWORD PTR $T3[ebp+4]
  002f9	f3 0f 5c 4d e4	 subss	 xmm1, DWORD PTR $T3[ebp]
; File C:\IAGOS\server\v18\Source\Source\_Common\Obj.h

; 215  : 	D3DXVECTOR3		GetPos()	{ return m_vPos; }

  002fe	89 45 ec	 mov	 DWORD PTR $T3[ebp+8], eax
  00301	8b 83 68 01 00
	00		 mov	 eax, DWORD PTR [ebx+360]
  00307	89 45 8c	 mov	 DWORD PTR $T1[ebp+8], eax
; File C:\IAGOS\server\v18\Source\Source\DX_SDK\d3dx9math.inl

; 383  :     return D3DXVECTOR3(x - v.x, y - v.y, z - v.z);

  0030a	f3 0f 10 45 8c	 movss	 xmm0, DWORD PTR $T1[ebp+8]
  0030f	f3 0f 5c 45 ec	 subss	 xmm0, DWORD PTR $T3[ebp+8]

; 302  :     z = fz;

  00314	f3 0f 59 d2	 mulss	 xmm2, xmm2

; 1698 :     return pV->x * pV->x + pV->y * pV->y + pV->z * pV->z;

  00318	f3 0f 59 c9	 mulss	 xmm1, xmm1
  0031c	f3 0f 59 c0	 mulss	 xmm0, xmm0
  00320	f3 0f 58 d1	 addss	 xmm2, xmm1
  00324	f3 0f 58 d0	 addss	 xmm2, xmm0
; File C:\IAGOS\server\v18\Source\Source\_AIInterface\aimeteonyker.cpp

; 627  : 				if( fDistSq <= 225.0F )

  00328	f3 0f 10 05 00
	00 00 00	 movss	 xmm0, DWORD PTR __real@43610000
  00330	0f 2f c2	 comiss	 xmm0, xmm2
  00333	72 70		 jb	 SHORT $LN22@ProcessSum

; 628  : 				{
; 629  : 					int nAttr = pWorld->GetHeightAttribute( vPos.x, vPos.z );

  00335	8b 4d cc	 mov	 ecx, DWORD PTR _pWorld$1$[ebp]
  00338	83 ec 08	 sub	 esp, 8
  0033b	f3 0f 11 64 24
	04		 movss	 DWORD PTR [esp+4], xmm4
  00341	f3 0f 11 1c 24	 movss	 DWORD PTR [esp], xmm3
  00346	e8 00 00 00 00	 call	 ?GetHeightAttribute@CWorld@@QAEHMM@Z ; CWorld::GetHeightAttribute

; 630  : 					if(nAttr == HATTR_NOWALK || nAttr == HATTR_NOMOVE)

  0034b	83 f8 01	 cmp	 eax, 1
  0034e	74 05		 je	 SHORT $LN24@ProcessSum
  00350	83 f8 03	 cmp	 eax, 3
  00353	75 28		 jne	 SHORT $LN23@ProcessSum
$LN24@ProcessSum:

; 631  : 					{
; 632  : 						vPos = pMover->GetPos();

  00355	f3 0f 7e 83 60
	01 00 00	 movq	 xmm0, QWORD PTR [ebx+352]
  0035d	66 0f d6 45 f0	 movq	 QWORD PTR _vPos$5[ebp], xmm0

; 633  : 						vPos.y += 7.0f;

  00362	f3 0f 10 45 f4	 movss	 xmm0, DWORD PTR _vPos$5[ebp+4]
  00367	f3 0f 58 05 00
	00 00 00	 addss	 xmm0, DWORD PTR __real@40e00000
  0036f	8b 83 68 01 00
	00		 mov	 eax, DWORD PTR [ebx+360]
  00375	89 45 f8	 mov	 DWORD PTR _vPos$5[ebp+8], eax
  00378	f3 0f 11 45 f4	 movss	 DWORD PTR _vPos$5[ebp+4], xmm0
$LN23@ProcessSum:

; 634  : 					}
; 635  : 
; 636  : 					pPlayer->REPLACE( g_uIdofMulti, pWorld->GetID(), vPos, REPLACE_NORMAL, pMover->GetLayer() );	// ŔĎ´Ü ¸ó˝şĹÍ ÁÂÇĄ·Î żöÇÁ ˝ĂĹ°ŔÚ.

  0037d	ff b3 b8 01 00
	00		 push	 DWORD PTR [ebx+440]
  00383	8d 45 f0	 lea	 eax, DWORD PTR _vPos$5[ebp]
  00386	8b ce		 mov	 ecx, esi
  00388	6a 00		 push	 0
  0038a	50		 push	 eax
  0038b	8b 45 cc	 mov	 eax, DWORD PTR _pWorld$1$[ebp]
  0038e	ff 30		 push	 DWORD PTR [eax]
  00390	ff 35 00 00 00
	00		 push	 DWORD PTR ?g_uIdofMulti@@3KA ; g_uIdofMulti
  00396	e8 00 00 00 00	 call	 ?Replace@CMover@@QAEHKKAAUD3DXVECTOR3@@W4REPLACE_TYPE@@H@Z ; CMover::Replace
  0039b	f3 0f 10 65 f8	 movss	 xmm4, DWORD PTR _vPos$5[ebp+8]
  003a0	f3 0f 10 5d f0	 movss	 xmm3, DWORD PTR _vPos$5[ebp]
$LN22@ProcessSum:

; 637  : 				}
; 638  : 			}
; 639  : 		}
; 640  : 		END_LINKMAP

  003a5	8b b6 80 01 00
	00		 mov	 esi, DWORD PTR [esi+384]
  003ab	85 f6		 test	 esi, esi
  003ad	0f 85 ed fe ff
	ff		 jne	 $LL11@ProcessSum
$LN83@ProcessSum:
  003b3	8b 4d c0	 mov	 ecx, DWORD PTR tv1010[ebp]
  003b6	8b 55 bc	 mov	 edx, DWORD PTR tv1041[ebp]
$LN8@ProcessSum:

; 619  : 		FOR_LINKMAP( pWorld, vPos, pObj, 15, CObj::linkPlayer, pMover->GetLayer() )

  003b9	83 c1 04	 add	 ecx, 4
  003bc	83 ea 01	 sub	 edx, 1
  003bf	89 4d c0	 mov	 DWORD PTR tv1010[ebp], ecx
  003c2	89 55 bc	 mov	 DWORD PTR tv1041[ebp], edx
  003c5	0f 85 c5 fe ff
	ff		 jne	 $LL10@ProcessSum
  003cb	8b 55 d8	 mov	 edx, DWORD PTR __j$1$[ebp]
  003ce	8b 45 e0	 mov	 eax, DWORD PTR $T2[ebp]
  003d1	8b 5d b8	 mov	 ebx, DWORD PTR __k$1$[ebp]
  003d4	8b 75 9c	 mov	 esi, DWORD PTR tv1016[ebp]
  003d7	8b 4d d4	 mov	 ecx, DWORD PTR __nMaxWidth$1$[ebp]
  003da	8b 7d dc	 mov	 edi, DWORD PTR tv1039[ebp]
$LN5@ProcessSum:
  003dd	42		 inc	 edx
  003de	03 c1		 add	 eax, ecx
  003e0	89 55 d8	 mov	 DWORD PTR __j$1$[ebp], edx
  003e3	89 45 e0	 mov	 DWORD PTR $T2[ebp], eax
  003e6	3b d7		 cmp	 edx, edi
  003e8	0f 8e 82 fe ff
	ff		 jle	 $LL7@ProcessSum
$LN2@ProcessSum:
  003ee	8b 5d b4	 mov	 ebx, DWORD PTR _pMover$1$[ebp]
  003f1	8b 75 d0	 mov	 esi, DWORD PTR __i$1$[ebp]
  003f4	8b 4d 98	 mov	 ecx, DWORD PTR tv1038[ebp]
  003f7	46		 inc	 esi
  003f8	89 75 d0	 mov	 DWORD PTR __i$1$[ebp], esi
  003fb	ff b3 b8 01 00
	00		 push	 DWORD PTR [ebx+440]
  00401	6a 02		 push	 2
  00403	e8 00 00 00 00	 call	 ?GetMaxLinkLevel@CLayeredLinkMap@@QAEHKH@Z ; CLayeredLinkMap::GetMaxLinkLevel
  00408	8b 7d cc	 mov	 edi, DWORD PTR _pWorld$1$[ebp]
  0040b	3b f0		 cmp	 esi, eax
  0040d	0f 8c 4d fd ff
	ff		 jl	 $LL4@ProcessSum
$LN3@ProcessSum:

; 641  : 		// Mvr_Meteonyker_dmg2.ani
; 642  : 		// °ř°Ý ĆĐĹĎŔş ÁÖşŻ »çżëŔÚżˇ ´ëÇŃ ±¤żŞŔĚ´Ů.
; 643  : 		m_dwAtk		= OBJMSG_ATK2;

  00413	8b 4d 90	 mov	 ecx, DWORD PTR _this$GSCopy$1$[ebp]
  00416	c7 41 68 1e 00
	00 00		 mov	 DWORD PTR [ecx+104], 30	; 0000001eH
; File C:\IAGOS\server\v18\Source\Source\_Common\Obj.h

; 215  : 	D3DXVECTOR3		GetPos()	{ return m_vPos; }

  0041d	8b 83 68 01 00
	00		 mov	 eax, DWORD PTR [ebx+360]
  00423	f3 0f 7e 83 60
	01 00 00	 movq	 xmm0, QWORD PTR [ebx+352]
  0042b	89 45 ec	 mov	 DWORD PTR $T4[ebp+8], eax
; File C:\IAGOS\server\v18\Source\Source\_AIInterface\aimeteonyker.cpp

; 644  : 		MoveToDst( pMover->GetPos() );

  0042e	8d 45 e4	 lea	 eax, DWORD PTR $T4[ebp]
  00431	50		 push	 eax
; File C:\IAGOS\server\v18\Source\Source\_Common\Obj.h

; 215  : 	D3DXVECTOR3		GetPos()	{ return m_vPos; }

  00432	66 0f d6 45 e4	 movq	 QWORD PTR $T4[ebp], xmm0
; File C:\IAGOS\server\v18\Source\Source\_AIInterface\aimeteonyker.cpp

; 644  : 		MoveToDst( pMover->GetPos() );

  00437	e8 00 00 00 00	 call	 ?MoveToDst@CAIMeteonyker@@AAEXABUD3DXVECTOR3@@@Z ; CAIMeteonyker::MoveToDst

; 645  : //		pMover->PostAIMsg( AIMSG_ARRIVAL );
; 646  : 		return TRUE;

  0043c	5f		 pop	 edi
  0043d	5e		 pop	 esi
  0043e	b8 01 00 00 00	 mov	 eax, 1
  00443	5b		 pop	 ebx

; 647  : 	}
; 648  : 	return FALSE;
; 649  : }

  00444	8b 4d fc	 mov	 ecx, DWORD PTR __$ArrayPad$[ebp]
  00447	33 cd		 xor	 ecx, ebp
  00449	e8 00 00 00 00	 call	 @__security_check_cookie@4
  0044e	8b e5		 mov	 esp, ebp
  00450	5d		 pop	 ebp
  00451	c2 04 00	 ret	 4
$LN14@ProcessSum:
  00454	8b 4d fc	 mov	 ecx, DWORD PTR __$ArrayPad$[ebp]
  00457	33 c0		 xor	 eax, eax
  00459	33 cd		 xor	 ecx, ebp
  0045b	5b		 pop	 ebx
  0045c	e8 00 00 00 00	 call	 @__security_check_cookie@4
  00461	8b e5		 mov	 esp, ebp
  00463	5d		 pop	 ebp
  00464	c2 04 00	 ret	 4
?ProcessSummon@CAIMeteonyker@@AAEHH@Z ENDP		; CAIMeteonyker::ProcessSummon
_TEXT	ENDS
; Function compile flags: /Ogtp
; File C:\IAGOS\server\v18\Source\Source\_AIInterface\aimeteonyker.cpp
; File C:\IAGOS\server\v18\Source\Source\_Common\Project.h
; File C:\IAGOS\server\v18\Source\Source\_AIInterface\aimeteonyker.cpp
; File C:\IAGOS\server\v18\Source\Source\_Common\Project.h
; File C:\IAGOS\server\v18\Source\Source\_Common\data.h
; File C:\IAGOS\server\v18\Source\Source\_Common\Project.h
; File C:\IAGOS\server\v18\Source\Source\_AIInterface\aimeteonyker.cpp
; File C:\IAGOS\server\v18\Source\Source\_Common\Obj.h
; File C:\IAGOS\server\v18\Source\Source\_AIInterface\aimeteonyker.cpp
; File C:\IAGOS\server\v18\Source\Source\_Common\Mover.h
; File C:\IAGOS\server\v18\Source\Source\_AIInterface\aimeteonyker.cpp
;	COMDAT ?ProcessRetaliation@CAIMeteonyker@@AAEHXZ
_TEXT	SEGMENT
_objid$1$ = -268					; size = 4
_pDealer$1$ = -264					; size = 4
_szText$1 = -260					; size = 256
__$ArrayPad$ = -4					; size = 4
?ProcessRetaliation@CAIMeteonyker@@AAEHXZ PROC		; CAIMeteonyker::ProcessRetaliation, COMDAT
; _this$ = ecx

; 556  : {

  00000	55		 push	 ebp
  00001	8b ec		 mov	 ebp, esp
  00003	81 ec 0c 01 00
	00		 sub	 esp, 268		; 0000010cH
  00009	a1 00 00 00 00	 mov	 eax, DWORD PTR ___security_cookie
  0000e	33 c5		 xor	 eax, ebp
  00010	89 45 fc	 mov	 DWORD PTR __$ArrayPad$[ebp], eax
  00013	56		 push	 esi
  00014	8b f1		 mov	 esi, ecx

; 557  : 	if( --m_cbRetaliation <= 0 )

  00016	8b 46 40	 mov	 eax, DWORD PTR [esi+64]
  00019	48		 dec	 eax
  0001a	89 46 40	 mov	 DWORD PTR [esi+64], eax
  0001d	85 c0		 test	 eax, eax
  0001f	0f 8f 2a 01 00
	00		 jg	 $LN3@ProcessRet

; 558  : 	{
; 559  : 		m_cbRetaliation		= CB_RETALIATION;

  00025	c7 46 40 0a 00
	00 00		 mov	 DWORD PTR [esi+64], 10	; 0000000aH

; 560  : 		OBJID objid	= GetDealer();

  0002c	e8 00 00 00 00	 call	 ?GetDealer@CAIMeteonyker@@AAEKXZ ; CAIMeteonyker::GetDealer
  00031	89 85 f4 fe ff
	ff		 mov	 DWORD PTR _objid$1$[ebp], eax

; 561  : 		if( objid != NULL_ID )

  00037	83 f8 ff	 cmp	 eax, -1
  0003a	0f 84 0f 01 00
	00		 je	 $LN3@ProcessRet

; 562  : 		{
; 563  : 			CMover* pMover	= GetMover();

  00040	53		 push	 ebx
  00041	57		 push	 edi
  00042	8b 7e 30	 mov	 edi, DWORD PTR [esi+48]

; 564  : 			// Mvr_Meteonyker_dmg3.ani
; 565  : 			// 3ąřÂ° °ř°Ý ĆĐĹĎ ˝ĂŔŰ
; 566  : 			// ´ë»óŔş objid
; 567  : 			CMover* pDealer	= GetTarget( objid );

  00045	8b ce		 mov	 ecx, esi
  00047	50		 push	 eax
  00048	e8 00 00 00 00	 call	 ?GetTarget@CAIMeteonyker@@AAEPAVCMover@@K@Z ; CAIMeteonyker::GetTarget

; 570  : 			char szText[256]	= { 0,};

  0004d	68 00 01 00 00	 push	 256			; 00000100H
  00052	89 85 f8 fe ff
	ff		 mov	 DWORD PTR _pDealer$1$[ebp], eax
  00058	8d 85 fc fe ff
	ff		 lea	 eax, DWORD PTR _szText$1[ebp]
  0005e	6a 00		 push	 0
  00060	50		 push	 eax
  00061	e8 00 00 00 00	 call	 _memset
; File C:\IAGOS\server\v18\Source\Source\_Common\Project.h

; 1427 : 	VERIFY_RANGE( (int)( dwIndex ), 0, m_colorText.GetSize(), "GetText range_error", "error" );

  00066	8b 0d ac 02 00
	00		 mov	 ecx, DWORD PTR ?prj@@3VCProject@@A+684
; File C:\IAGOS\server\v18\Source\Source\_AIInterface\aimeteonyker.cpp

; 570  : 			char szText[256]	= { 0,};

  0006c	83 c4 0c	 add	 esp, 12			; 0000000cH
; File C:\IAGOS\server\v18\Source\Source\_Common\Project.h

; 1427 : 	VERIFY_RANGE( (int)( dwIndex ), 0, m_colorText.GetSize(), "GetText range_error", "error" );

  0006f	81 f9 1e 0d 00
	00		 cmp	 ecx, 3358		; 00000d1eH
  00075	7f 21		 jg	 SHORT $LN7@ProcessRet

; 579  : 	LPCTSTR szErr = Error( _T( "%s min:%d, max:%d, index:%d" ), szMsg, nMin, nMax, nIndex ); 

  00077	68 1e 0d 00 00	 push	 3358			; 00000d1eH
  0007c	51		 push	 ecx
  0007d	6a 00		 push	 0
  0007f	68 00 00 00 00	 push	 OFFSET ??_C@_0BE@OHDBLHOM@GetText?5range_error@
  00084	68 00 00 00 00	 push	 OFFSET ??_C@_0BM@HMFGHCP@?$CFs?5min?3?$CFd?0?5max?3?$CFd?0?5index?3?$CFd@
  00089	e8 00 00 00 00	 call	 ?Error@@YAPBDPBDZZ	; Error
  0008e	83 c4 14	 add	 esp, 20			; 00000014H

; 1427 : 	VERIFY_RANGE( (int)( dwIndex ), 0, m_colorText.GetSize(), "GetText range_error", "error" );

  00091	bb 00 00 00 00	 mov	 ebx, OFFSET ??_C@_05KKCIMGE@error@
  00096	eb 1b		 jmp	 SHORT $LN6@ProcessRet
$LN7@ProcessRet:
; File C:\IAGOS\server\v18\Source\Source\_Common\data.h

; 270  : 	if( dwIndex >= (DWORD)m_nMaxIndex )

  00098	76 14		 jbe	 SHORT $LN26@ProcessRet

; 271  : 		return NULL;
; 272  : 	return (T*) m_apOffset[ dwIndex ];

  0009a	a1 9c 02 00 00	 mov	 eax, DWORD PTR ?prj@@3VCProject@@A+668
  0009f	8b 98 78 34 00
	00		 mov	 ebx, DWORD PTR [eax+13432]
; File C:\IAGOS\server\v18\Source\Source\_Common\Project.h

; 1428 : 	if( m_colorText.GetAt( dwIndex ) == NULL )

  000a5	85 db		 test	 ebx, ebx
  000a7	74 05		 je	 SHORT $LN26@ProcessRet

; 1430 : 	return m_colorText.GetAt( dwIndex )->lpszData; 

  000a9	8b 5b 04	 mov	 ebx, DWORD PTR [ebx+4]
  000ac	eb 05		 jmp	 SHORT $LN6@ProcessRet
$LN26@ProcessRet:

; 1429 : 		return "";

  000ae	bb 00 00 00 00	 mov	 ebx, OFFSET ??_C@_00CNPNBAHC@@
$LN6@ProcessRet:
; File C:\IAGOS\server\v18\Source\Source\_AIInterface\aimeteonyker.cpp

; 571  : 			sprintf( szText, prj.GetText( TID_GAME_BOSS_METEONYKER_MSG_03 ), pDealer->GetName() );

  000b3	8b 8d f8 fe ff
	ff		 mov	 ecx, DWORD PTR _pDealer$1$[ebp]
  000b9	6a 00		 push	 0
  000bb	e8 00 00 00 00	 call	 ?GetName@CMover@@QAEPBDH@Z ; CMover::GetName
  000c0	50		 push	 eax
  000c1	8d 85 fc fe ff
	ff		 lea	 eax, DWORD PTR _szText$1[ebp]
  000c7	53		 push	 ebx
  000c8	50		 push	 eax
  000c9	e8 00 00 00 00	 call	 _sprintf
; File C:\IAGOS\server\v18\Source\Source\_Common\Obj.h

; 221  : 	CWorld*			GetWorld()	{ return m_pWorld; }

  000ce	8b 87 6c 01 00
	00		 mov	 eax, DWORD PTR [edi+364]
; File C:\IAGOS\server\v18\Source\Source\_AIInterface\aimeteonyker.cpp

; 571  : 			sprintf( szText, prj.GetText( TID_GAME_BOSS_METEONYKER_MSG_03 ), pDealer->GetName() );

  000d4	83 c4 0c	 add	 esp, 12			; 0000000cH

; 572  : 			g_DPCoreClient.SendCaption( szText, pMover->GetWorld()->GetID() );	

  000d7	b9 00 00 00 00	 mov	 ecx, OFFSET ?g_DPCoreClient@@3VCDPCoreClient@@A ; g_DPCoreClient
  000dc	6a 00		 push	 0
  000de	ff 30		 push	 DWORD PTR [eax]
  000e0	8d 85 fc fe ff
	ff		 lea	 eax, DWORD PTR _szText$1[ebp]
  000e6	50		 push	 eax
  000e7	e8 00 00 00 00	 call	 ?SendCaption@CDPCoreClient@@QAEXPBDKH@Z ; CDPCoreClient::SendCaption

; 573  : 			SetTarget( objid, pDealer->m_idparty );

  000ec	8b 85 f8 fe ff
	ff		 mov	 eax, DWORD PTR _pDealer$1$[ebp]
  000f2	8b ce		 mov	 ecx, esi
  000f4	ff b0 10 07 00
	00		 push	 DWORD PTR [eax+1808]
  000fa	ff b5 f4 fe ff
	ff		 push	 DWORD PTR _objid$1$[ebp]
  00100	e8 00 00 00 00	 call	 ?SetTarget@CAIMeteonyker@@QAEXKK@Z ; CAIMeteonyker::SetTarget

; 574  : 
; 575  : 			m_dwAtk		= OBJMSG_ATK3;
; 576  : 			pMover->CMD_SetMeleeAttack( m_dwIdTarget, 0.0F );

  00105	51		 push	 ecx
  00106	c7 04 24 00 00
	00 00		 mov	 DWORD PTR [esp], 0
  0010d	8b cf		 mov	 ecx, edi
  0010f	ff 76 38	 push	 DWORD PTR [esi+56]
  00112	c7 46 68 1f 00
	00 00		 mov	 DWORD PTR [esi+104], 31	; 0000001fH
  00119	e8 00 00 00 00	 call	 ?CMD_SetMeleeAttack@CMover@@QAEXKM@Z ; CMover::CMD_SetMeleeAttack

; 577  : 			
; 578  : 			//   'ŔĎąÝ °ř°Ý2' Ăß°ˇ »çÇ× : şŇŔÇ ¸ŢĹ×żŔ´ĎÄż HP 80%, 50%, 30%,10%¸¶´Ů 'żřĹł'
; 579  : 			if( m_bCritical )

  0011e	83 7e 5c 00	 cmp	 DWORD PTR [esi+92], 0
  00122	74 0e		 je	 SHORT $LN4@ProcessRet
; File C:\IAGOS\server\v18\Source\Source\_Common\Mover.h

; 1001 : 	void			SetMode( DWORD dwMode )		{ m_dwMode |= dwMode; }	// ŔŻŔú»óĹÂ ™VĆĂ

  00124	83 8f 40 02 00
	00 04		 or	 DWORD PTR [edi+576], 4
; File C:\IAGOS\server\v18\Source\Source\_AIInterface\aimeteonyker.cpp

; 582  : 				m_bCritical	= FALSE;

  0012b	c7 46 5c 00 00
	00 00		 mov	 DWORD PTR [esi+92], 0
$LN4@ProcessRet:

; 583  : 			}
; 584  : 			ResetDamage();

  00132	8b ce		 mov	 ecx, esi
  00134	e8 00 00 00 00	 call	 ?ResetDamage@CAIMeteonyker@@AAEXXZ ; CAIMeteonyker::ResetDamage

; 585  : 			return TRUE;

  00139	5f		 pop	 edi
  0013a	5b		 pop	 ebx
  0013b	b8 01 00 00 00	 mov	 eax, 1
  00140	5e		 pop	 esi

; 586  : 		}
; 587  : 	}
; 588  : 	return FALSE;
; 589  : }

  00141	8b 4d fc	 mov	 ecx, DWORD PTR __$ArrayPad$[ebp]
  00144	33 cd		 xor	 ecx, ebp
  00146	e8 00 00 00 00	 call	 @__security_check_cookie@4
  0014b	8b e5		 mov	 esp, ebp
  0014d	5d		 pop	 ebp
  0014e	c3		 ret	 0
$LN3@ProcessRet:
  0014f	8b 4d fc	 mov	 ecx, DWORD PTR __$ArrayPad$[ebp]
  00152	33 c0		 xor	 eax, eax
  00154	33 cd		 xor	 ecx, ebp
  00156	5e		 pop	 esi
  00157	e8 00 00 00 00	 call	 @__security_check_cookie@4
  0015c	8b e5		 mov	 esp, ebp
  0015e	5d		 pop	 ebp
  0015f	c3		 ret	 0
?ProcessRetaliation@CAIMeteonyker@@AAEHXZ ENDP		; CAIMeteonyker::ProcessRetaliation
_TEXT	ENDS
; Function compile flags: /Ogtp
; File C:\IAGOS\server\v18\Source\Source\_AIInterface\aimeteonyker.cpp
; File C:\Program Files\Microsoft Visual Studio\2022\Professional\VC\Tools\MSVC\14.44.35207\include\xtree
; File C:\IAGOS\server\v18\Source\Source\_AIInterface\aimeteonyker.cpp
; File C:\IAGOS\server\v18\Source\Source\_Common\Obj.h
; File C:\IAGOS\server\v18\Source\Source\_Common\Mover.h
; File C:\IAGOS\server\v18\Source\Source\_AIInterface\aimeteonyker.cpp
; File C:\IAGOS\server\v18\Source\Source\_Common\Mover.h
; File C:\Program Files\Microsoft Visual Studio\2022\Professional\VC\Tools\MSVC\14.44.35207\include\xtree
; File C:\IAGOS\server\v18\Source\Source\_AIInterface\aimeteonyker.cpp
;	COMDAT ?GetDealer@CAIMeteonyker@@AAEKXZ
_TEXT	SEGMENT
_objid$1$ = -4						; size = 4
?GetDealer@CAIMeteonyker@@AAEKXZ PROC			; CAIMeteonyker::GetDealer, COMDAT
; _this$ = ecx

; 537  : {

  00000	55		 push	 ebp
  00001	8b ec		 mov	 ebp, esp
  00003	51		 push	 ecx
  00004	53		 push	 ebx
  00005	56		 push	 esi
  00006	57		 push	 edi
  00007	8b f9		 mov	 edi, ecx

; 538  : 	int nDamage	= 0;
; 539  : 	OBJID objid	= NULL_ID;

  00009	83 ca ff	 or	 edx, -1
  0000c	33 db		 xor	 ebx, ebx
  0000e	89 55 fc	 mov	 DWORD PTR _objid$1$[ebp], edx
; File C:\Program Files\Microsoft Visual Studio\2022\Professional\VC\Tools\MSVC\14.44.35207\include\xtree

; 1142 :         return iterator(_Scary->_Myhead->_Left, _Scary);

  00011	8b 47 44	 mov	 eax, DWORD PTR [edi+68]

; 37   :     _Tree_unchecked_const_iterator(_Nodeptr _Pnode, const _Mytree* _Plist) noexcept : _Ptr(_Pnode) {

  00014	8b 30		 mov	 esi, DWORD PTR [eax]

; 237  :         return !(*this == _Right);

  00016	3b f0		 cmp	 esi, eax
; File C:\IAGOS\server\v18\Source\Source\_AIInterface\aimeteonyker.cpp

; 540  : 	for( map<OBJID, int>::iterator i = m_mapDamage.begin(); i != m_mapDamage.end(); ++i )

  00018	0f 84 99 00 00
	00		 je	 $LN118@GetDealer
  0001e	66 90		 npad	 2
$LL4@GetDealer:

; 541  : 	{
; 542  : 		if( i->second >= nDamage )

  00020	39 5e 14	 cmp	 DWORD PTR [esi+20], ebx
  00023	7c 4d		 jl	 SHORT $LN2@GetDealer

; 543  : 		{
; 544  : 			CMover* pPlayer	= GetTarget( i->first );

  00025	ff 76 10	 push	 DWORD PTR [esi+16]
  00028	8b cf		 mov	 ecx, edi
  0002a	e8 00 00 00 00	 call	 ?GetTarget@CAIMeteonyker@@AAEPAVCMover@@K@Z ; CAIMeteonyker::GetTarget
  0002f	8b c8		 mov	 ecx, eax
; File C:\IAGOS\server\v18\Source\Source\_Common\Obj.h

; 327  : 	return pObj && ( pObj->IsDelete() == FALSE ); 

  00031	85 c9		 test	 ecx, ecx
  00033	74 3a		 je	 SHORT $LN123@GetDealer

; 180  : 	BOOL			IsDelete()	{ return (m_dwFlags & OBJ_FLAG_DELETE);  }

  00035	f6 41 04 01	 test	 BYTE PTR [ecx+4], 1

; 327  : 	return pObj && ( pObj->IsDelete() == FALSE ); 

  00039	75 34		 jne	 SHORT $LN123@GetDealer
; File C:\IAGOS\server\v18\Source\Source\_Common\Mover.h

; 1251 : 	BOOL			IsLive() { return m_pActMover->IsDie() == FALSE || m_nHitPoint > 0; }		// && ¸¦  ||·Î ąŮ˛ĺŔ˝.  !=¸¦ >·Î ąŮ˛Ţ

  0003b	8b 81 38 02 00
	00		 mov	 eax, DWORD PTR [ecx+568]
  00041	f7 40 04 00 00
	00 08		 test	 DWORD PTR [eax+4], 134217728 ; 08000000H
  00048	74 09		 je	 SHORT $LN116@GetDealer
  0004a	83 b9 f8 05 00
	00 00		 cmp	 DWORD PTR [ecx+1528], 0
  00051	7e 1c		 jle	 SHORT $LN123@GetDealer
$LN116@GetDealer:
; File C:\IAGOS\server\v18\Source\Source\_AIInterface\aimeteonyker.cpp

; 545  : 			if( IsValidObj( pPlayer ) && pPlayer->IsLive() && GetMover()->GetWorld() == pPlayer->GetWorld() )

  00053	8b 47 30	 mov	 eax, DWORD PTR [edi+48]
  00056	8b 80 6c 01 00
	00		 mov	 eax, DWORD PTR [eax+364]
  0005c	3b 81 6c 01 00
	00		 cmp	 eax, DWORD PTR [ecx+364]
  00062	75 0b		 jne	 SHORT $LN123@GetDealer

; 546  : 			{
; 547  : 				objid	= i->first;

  00064	8b 56 10	 mov	 edx, DWORD PTR [esi+16]

; 548  : 				nDamage	= i->second;

  00067	8b 5e 14	 mov	 ebx, DWORD PTR [esi+20]
  0006a	89 55 fc	 mov	 DWORD PTR _objid$1$[ebp], edx
; File C:\IAGOS\server\v18\Source\Source\_Common\Mover.h

; 1251 : 	BOOL			IsLive() { return m_pActMover->IsDie() == FALSE || m_nHitPoint > 0; }		// && ¸¦  ||·Î ąŮ˛ĺŔ˝.  !=¸¦ >·Î ąŮ˛Ţ

  0006d	eb 03		 jmp	 SHORT $LN2@GetDealer
$LN123@GetDealer:
; File C:\Program Files\Microsoft Visual Studio\2022\Professional\VC\Tools\MSVC\14.44.35207\include\xtree

; 50   :         if (_Ptr->_Right->_Isnil) { // climb looking for right subtree

  0006f	8b 55 fc	 mov	 edx, DWORD PTR _objid$1$[ebp]
$LN2@GetDealer:
  00072	8b 46 08	 mov	 eax, DWORD PTR [esi+8]
  00075	80 78 0d 00	 cmp	 BYTE PTR [eax+13], 0
  00079	74 1d		 je	 SHORT $LN29@GetDealer

; 51   :             _Nodeptr _Pnode;
; 52   :             while (!(_Pnode = _Ptr->_Parent)->_Isnil && _Ptr == _Pnode->_Right) {

  0007b	8b 46 04	 mov	 eax, DWORD PTR [esi+4]
  0007e	80 78 0d 00	 cmp	 BYTE PTR [eax+13], 0
  00082	75 10		 jne	 SHORT $LN119@GetDealer
$LL27@GetDealer:
  00084	3b 70 08	 cmp	 esi, DWORD PTR [eax+8]
  00087	75 0b		 jne	 SHORT $LN119@GetDealer

; 53   :                 _Ptr = _Pnode; // ==> parent while right subtree

  00089	8b f0		 mov	 esi, eax
  0008b	8b 40 04	 mov	 eax, DWORD PTR [eax+4]
  0008e	80 78 0d 00	 cmp	 BYTE PTR [eax+13], 0
  00092	74 f0		 je	 SHORT $LL27@GetDealer
$LN119@GetDealer:

; 54   :             }
; 55   : 
; 56   :             _Ptr = _Pnode; // ==> parent (head if end())

  00094	8b f0		 mov	 esi, eax

; 57   :         } else {

  00096	eb 16		 jmp	 SHORT $LN35@GetDealer
$LN29@GetDealer:

; 58   :             _Ptr = _Mytree::_Min(_Ptr->_Right); // ==> smallest of right subtree

  00098	8b f0		 mov	 esi, eax

; 476  :         while (!_Pnode->_Left->_Isnil) {

  0009a	8b 0e		 mov	 ecx, DWORD PTR [esi]
  0009c	80 79 0d 00	 cmp	 BYTE PTR [ecx+13], 0
  000a0	75 0c		 jne	 SHORT $LN35@GetDealer
$LL34@GetDealer:
  000a2	8b 01		 mov	 eax, DWORD PTR [ecx]

; 477  :             _Pnode = _Pnode->_Left;

  000a4	8b f1		 mov	 esi, ecx
  000a6	8b c8		 mov	 ecx, eax
  000a8	80 78 0d 00	 cmp	 BYTE PTR [eax+13], 0
  000ac	74 f4		 je	 SHORT $LL34@GetDealer
$LN35@GetDealer:

; 237  :         return !(*this == _Right);

  000ae	3b 77 44	 cmp	 esi, DWORD PTR [edi+68]
; File C:\IAGOS\server\v18\Source\Source\_AIInterface\aimeteonyker.cpp

; 540  : 	for( map<OBJID, int>::iterator i = m_mapDamage.begin(); i != m_mapDamage.end(); ++i )

  000b1	0f 85 69 ff ff
	ff		 jne	 $LL4@GetDealer
$LN118@GetDealer:
  000b7	5f		 pop	 edi

; 549  : 			}
; 550  : 		}
; 551  : 	}
; 552  : 	return objid;
; 553  : }

  000b8	5e		 pop	 esi
  000b9	8b c2		 mov	 eax, edx
  000bb	5b		 pop	 ebx
  000bc	8b e5		 mov	 esp, ebp
  000be	5d		 pop	 ebp
  000bf	c3		 ret	 0
?GetDealer@CAIMeteonyker@@AAEKXZ ENDP			; CAIMeteonyker::GetDealer
_TEXT	ENDS
; Function compile flags: /Ogtp
; File C:\IAGOS\server\v18\Source\Source\_AIInterface\aimeteonyker.cpp
;	COMDAT ?ResetDamage@CAIMeteonyker@@AAEXXZ
_TEXT	SEGMENT
?ResetDamage@CAIMeteonyker@@AAEXXZ PROC			; CAIMeteonyker::ResetDamage, COMDAT
; _this$ = ecx

; 533  : 	m_mapDamage.clear();

  00000	83 c1 44	 add	 ecx, 68			; 00000044H
  00003	e9 00 00 00 00	 jmp	 ?clear@?$_Tree@V?$_Tmap_traits@KHU?$less@K@std@@V?$allocator@U?$pair@$$CBKH@std@@@2@$0A@@std@@@std@@QAEXXZ ; std::_Tree<std::_Tmap_traits<unsigned long,int,std::less<unsigned long>,std::allocator<std::pair<unsigned long const ,int> >,0> >::clear
?ResetDamage@CAIMeteonyker@@AAEXXZ ENDP			; CAIMeteonyker::ResetDamage
_TEXT	ENDS
; Function compile flags: /Ogtp
; File C:\IAGOS\server\v18\Source\Source\_AIInterface\aimeteonyker.cpp
; File C:\Program Files\Microsoft Visual Studio\2022\Professional\VC\Tools\MSVC\14.44.35207\include\xtree
; File C:\IAGOS\server\v18\Source\Source\_AIInterface\aimeteonyker.cpp
; File C:\Program Files\Microsoft Visual Studio\2022\Professional\VC\Tools\MSVC\14.44.35207\include\xtree
; File C:\Program Files\Microsoft Visual Studio\2022\Professional\VC\Tools\MSVC\14.44.35207\include\type_traits
; File C:\Program Files\Microsoft Visual Studio\2022\Professional\VC\Tools\MSVC\14.44.35207\include\xtree
; File C:\IAGOS\server\v18\Source\Source\_AIInterface\aimeteonyker.cpp
; File C:\Program Files\Microsoft Visual Studio\2022\Professional\VC\Tools\MSVC\14.44.35207\include\xtree
; File C:\Program Files\Microsoft Visual Studio\2022\Professional\VC\Tools\MSVC\14.44.35207\include\utility
; File C:\Program Files\Microsoft Visual Studio\2022\Professional\VC\Tools\MSVC\14.44.35207\include\xtree
; File C:\Program Files\Microsoft Visual Studio\2022\Professional\VC\Tools\MSVC\14.44.35207\include\utility
; File C:\Program Files\Microsoft Visual Studio\2022\Professional\VC\Tools\MSVC\14.44.35207\include\xtree
; File C:\Program Files\Microsoft Visual Studio\2022\Professional\VC\Tools\MSVC\14.44.35207\include\type_traits
; File C:\Program Files\Microsoft Visual Studio\2022\Professional\VC\Tools\MSVC\14.44.35207\include\xtree
; File C:\Program Files\Microsoft Visual Studio\2022\Professional\VC\Tools\MSVC\14.44.35207\include\xmemory
; File C:\Program Files\Microsoft Visual Studio\2022\Professional\VC\Tools\MSVC\14.44.35207\include\xtree
; File C:\Program Files\Microsoft Visual Studio\2022\Professional\VC\Tools\MSVC\14.44.35207\include\xmemory
; File C:\Program Files\Microsoft Visual Studio\2022\Professional\VC\Tools\MSVC\14.44.35207\include\xtree
; File C:\Program Files\Microsoft Visual Studio\2022\Professional\VC\Tools\MSVC\14.44.35207\include\xmemory
; File C:\Program Files\Microsoft Visual Studio\2022\Professional\VC\Tools\MSVC\14.44.35207\include\xtree
; File C:\IAGOS\server\v18\Source\Source\_AIInterface\aimeteonyker.cpp
; File C:\Program Files\Microsoft Visual Studio\2022\Professional\VC\Tools\MSVC\14.44.35207\include\xtree
; File C:\IAGOS\server\v18\Source\Source\_AIInterface\aimeteonyker.cpp
;	COMDAT ?AddDamage@CAIMeteonyker@@AAEXKH@Z
_TEXT	SEGMENT
$T2 = -44						; size = 12
__Loc$3 = -32						; size = 12
__Loc$4 = -32						; size = 12
$T5 = -20						; size = 8
$T6 = -20						; size = 8
__$EHRec$ = -12						; size = 12
_idAttacker$ = 8					; size = 4
_nDamage$ = 12						; size = 4
?AddDamage@CAIMeteonyker@@AAEXKH@Z PROC			; CAIMeteonyker::AddDamage, COMDAT
; _this$ = ecx

; 521  : {

  00000	55		 push	 ebp
  00001	8b ec		 mov	 ebp, esp
  00003	6a ff		 push	 -1
  00005	68 00 00 00 00	 push	 __ehhandler$?AddDamage@CAIMeteonyker@@AAEXKH@Z
  0000a	64 a1 00 00 00
	00		 mov	 eax, DWORD PTR fs:0
  00010	50		 push	 eax
  00011	83 ec 20	 sub	 esp, 32			; 00000020H
  00014	53		 push	 ebx
  00015	56		 push	 esi
  00016	57		 push	 edi
  00017	a1 00 00 00 00	 mov	 eax, DWORD PTR ___security_cookie
  0001c	33 c5		 xor	 eax, ebp
  0001e	50		 push	 eax
  0001f	8d 45 f4	 lea	 eax, DWORD PTR __$EHRec$[ebp]
  00022	64 a3 00 00 00
	00		 mov	 DWORD PTR fs:0, eax

; 522  : 	if( nDamage == 0 )

  00028	8b 5d 0c	 mov	 ebx, DWORD PTR _nDamage$[ebp]
  0002b	85 db		 test	 ebx, ebx
  0002d	0f 84 ba 00 00
	00		 je	 $LN4@AddDamage
; File C:\Program Files\Microsoft Visual Studio\2022\Professional\VC\Tools\MSVC\14.44.35207\include\xtree

; 1384 :         const _Tree_find_result<_Nodeptr> _Loc = _Find_lower_bound(_Keyval);

  00033	8d 45 08	 lea	 eax, DWORD PTR _idAttacker$[ebp]
  00036	50		 push	 eax
; File C:\IAGOS\server\v18\Source\Source\_AIInterface\aimeteonyker.cpp

; 524  : 	map<OBJID, int>::iterator	i = m_mapDamage.find( idAttacker );

  00037	8d 71 44	 lea	 esi, DWORD PTR [ecx+68]
; File C:\Program Files\Microsoft Visual Studio\2022\Professional\VC\Tools\MSVC\14.44.35207\include\xtree

; 1384 :         const _Tree_find_result<_Nodeptr> _Loc = _Find_lower_bound(_Keyval);

  0003a	8d 45 e0	 lea	 eax, DWORD PTR __Loc$3[ebp]
  0003d	8b ce		 mov	 ecx, esi
  0003f	50		 push	 eax
  00040	e8 00 00 00 00	 call	 ??$_Find_lower_bound@K@?$_Tree@V?$_Tmap_traits@KHU?$less@K@std@@V?$allocator@U?$pair@$$CBKH@std@@@2@$0A@@std@@@std@@IBE?AU?$_Tree_find_result@PAU?$_Tree_node@U?$pair@$$CBKH@std@@PAX@std@@@1@ABK@Z ; std::_Tree<std::_Tmap_traits<unsigned long,int,std::less<unsigned long>,std::allocator<std::pair<unsigned long const ,int> >,0> >::_Find_lower_bound<unsigned long>

; 1624 :         return !_Bound->_Isnil && !_DEBUG_LT_PRED(_Getcomp(), _Keyval, _Traits::_Kfn(_Bound->_Myval));

  00045	8b 45 e8	 mov	 eax, DWORD PTR __Loc$3[ebp+8]
  00048	8b 4d 08	 mov	 ecx, DWORD PTR _idAttacker$[ebp]
  0004b	80 78 0d 00	 cmp	 BYTE PTR [eax+13], 0
  0004f	75 22		 jne	 SHORT $LN9@AddDamage
; File C:\Program Files\Microsoft Visual Studio\2022\Professional\VC\Tools\MSVC\14.44.35207\include\type_traits

; 2380 :         return _Left < _Right;

  00051	3b 48 10	 cmp	 ecx, DWORD PTR [eax+16]
; File C:\Program Files\Microsoft Visual Studio\2022\Professional\VC\Tools\MSVC\14.44.35207\include\xtree

; 1624 :         return !_Bound->_Isnil && !_DEBUG_LT_PRED(_Getcomp(), _Keyval, _Traits::_Kfn(_Bound->_Myval));

  00054	72 1d		 jb	 SHORT $LN9@AddDamage

; 37   :     _Tree_unchecked_const_iterator(_Nodeptr _Pnode, const _Mytree* _Plist) noexcept : _Ptr(_Pnode) {

  00056	8b 3e		 mov	 edi, DWORD PTR [esi]
  00058	3b c7		 cmp	 eax, edi
; File C:\IAGOS\server\v18\Source\Source\_AIInterface\aimeteonyker.cpp

; 525  : 	if( i == m_mapDamage.end() )

  0005a	74 19		 je	 SHORT $LN155@AddDamage

; 526  : 		m_mapDamage.insert( map<OBJID, int>::value_type( idAttacker, nDamage ) );
; 527  : 	else
; 528  : 		i->second	+= nDamage;

  0005c	01 58 14	 add	 DWORD PTR [eax+20], ebx

; 529  : }

  0005f	8b 4d f4	 mov	 ecx, DWORD PTR __$EHRec$[ebp]
  00062	64 89 0d 00 00
	00 00		 mov	 DWORD PTR fs:0, ecx
  00069	59		 pop	 ecx
  0006a	5f		 pop	 edi
  0006b	5e		 pop	 esi
  0006c	5b		 pop	 ebx
  0006d	8b e5		 mov	 esp, ebp
  0006f	5d		 pop	 ebp
  00070	c2 08 00	 ret	 8
$LN9@AddDamage:
; File C:\Program Files\Microsoft Visual Studio\2022\Professional\VC\Tools\MSVC\14.44.35207\include\xtree

; 1389 :         return _Get_scary()->_Myhead;

  00073	8b 3e		 mov	 edi, DWORD PTR [esi]
$LN155@AddDamage:

; 1017 :             _Loc                = _Find_lower_bound(_Keyval);

  00075	8d 45 ec	 lea	 eax, DWORD PTR $T5[ebp]
; File C:\Program Files\Microsoft Visual Studio\2022\Professional\VC\Tools\MSVC\14.44.35207\include\utility

; 274  :         : first(_STD forward<_Other1>(_Val1)), second(_STD forward<_Other2>(_Val2)) {

  00078	89 4d ec	 mov	 DWORD PTR $T5[ebp], ecx
; File C:\Program Files\Microsoft Visual Studio\2022\Professional\VC\Tools\MSVC\14.44.35207\include\xtree

; 1017 :             _Loc                = _Find_lower_bound(_Keyval);

  0007b	50		 push	 eax
  0007c	8d 45 d4	 lea	 eax, DWORD PTR $T2[ebp]
; File C:\Program Files\Microsoft Visual Studio\2022\Professional\VC\Tools\MSVC\14.44.35207\include\utility

; 274  :         : first(_STD forward<_Other1>(_Val1)), second(_STD forward<_Other2>(_Val2)) {

  0007f	89 5d f0	 mov	 DWORD PTR $T5[ebp+4], ebx
; File C:\Program Files\Microsoft Visual Studio\2022\Professional\VC\Tools\MSVC\14.44.35207\include\xtree

; 1017 :             _Loc                = _Find_lower_bound(_Keyval);

  00082	50		 push	 eax
  00083	8b ce		 mov	 ecx, esi
  00085	e8 00 00 00 00	 call	 ??$_Find_lower_bound@K@?$_Tree@V?$_Tmap_traits@KHU?$less@K@std@@V?$allocator@U?$pair@$$CBKH@std@@@2@$0A@@std@@@std@@IBE?AU?$_Tree_find_result@PAU?$_Tree_node@U?$pair@$$CBKH@std@@PAX@std@@@1@ABK@Z ; std::_Tree<std::_Tmap_traits<unsigned long,int,std::less<unsigned long>,std::allocator<std::pair<unsigned long const ,int> >,0> >::_Find_lower_bound<unsigned long>
  0008a	8b 48 08	 mov	 ecx, DWORD PTR [eax+8]
  0008d	f3 0f 7e 00	 movq	 xmm0, QWORD PTR [eax]
  00091	66 0f d6 45 e0	 movq	 QWORD PTR __Loc$4[ebp], xmm0

; 1624 :         return !_Bound->_Isnil && !_DEBUG_LT_PRED(_Getcomp(), _Keyval, _Traits::_Kfn(_Bound->_Myval));

  00096	80 79 0d 00	 cmp	 BYTE PTR [ecx+13], 0
  0009a	75 08		 jne	 SHORT $LN53@AddDamage
; File C:\Program Files\Microsoft Visual Studio\2022\Professional\VC\Tools\MSVC\14.44.35207\include\type_traits

; 2380 :         return _Left < _Right;

  0009c	8b 45 08	 mov	 eax, DWORD PTR _idAttacker$[ebp]
  0009f	3b 41 10	 cmp	 eax, DWORD PTR [ecx+16]
; File C:\Program Files\Microsoft Visual Studio\2022\Professional\VC\Tools\MSVC\14.44.35207\include\xtree

; 1624 :         return !_Bound->_Isnil && !_DEBUG_LT_PRED(_Getcomp(), _Keyval, _Traits::_Kfn(_Bound->_Myval));

  000a2	73 49		 jae	 SHORT $LN4@AddDamage
$LN53@AddDamage:

; 1648 :         if (max_size() == _Get_scary()->_Mysize) {

  000a4	81 7e 04 aa aa
	aa 0a		 cmp	 DWORD PTR [esi+4], 178956970 ; 0aaaaaaaH
  000ab	74 54		 je	 SHORT $LN160@AddDamage
; File C:\Program Files\Microsoft Visual Studio\2022\Professional\VC\Tools\MSVC\14.44.35207\include\xmemory

; 1160 :     _CONSTEXPR20 explicit _Alloc_construct_ptr(_Alloc& _Al_) : _Al(_Al_), _Ptr(nullptr) {}

  000ad	89 75 ec	 mov	 DWORD PTR $T6[ebp], esi

; 136  :         return ::operator new(_Bytes);

  000b0	6a 18		 push	 24			; 00000018H
; File C:\Program Files\Microsoft Visual Studio\2022\Professional\VC\Tools\MSVC\14.44.35207\include\xtree

; 808  :     explicit _Tree_temp_node_alloc(_Alnode& _Al_) : _Alloc_construct_ptr<_Alnode>(_Al_) {

  000b2	c7 45 fc 00 00
	00 00		 mov	 DWORD PTR __$EHRec$[ebp+8], 0
; File C:\Program Files\Microsoft Visual Studio\2022\Professional\VC\Tools\MSVC\14.44.35207\include\xmemory

; 1167 :         _Ptr = nullptr; // if allocate throws, prevents double-free

  000b9	c7 45 f0 00 00
	00 00		 mov	 DWORD PTR $T6[ebp+4], 0

; 136  :         return ::operator new(_Bytes);

  000c0	e8 00 00 00 00	 call	 ??2@YAPAXI@Z		; operator new
; File C:\Program Files\Microsoft Visual Studio\2022\Professional\VC\Tools\MSVC\14.44.35207\include\xtree

; 830  :         _Alnode_traits::construct(this->_Al, _STD addressof(this->_Ptr->_Myval), _STD forward<_Valtys>(_Vals)...);

  000c5	8b 4d 08	 mov	 ecx, DWORD PTR _idAttacker$[ebp]
; File C:\Program Files\Microsoft Visual Studio\2022\Professional\VC\Tools\MSVC\14.44.35207\include\xmemory

; 136  :         return ::operator new(_Bytes);

  000c8	83 c4 04	 add	 esp, 4
; File C:\Program Files\Microsoft Visual Studio\2022\Professional\VC\Tools\MSVC\14.44.35207\include\xtree

; 830  :         _Alnode_traits::construct(this->_Al, _STD addressof(this->_Ptr->_Myval), _STD forward<_Valtys>(_Vals)...);

  000cb	89 48 10	 mov	 DWORD PTR [eax+16], ecx

; 1042 :         return {_Scary->_Insert_node(_Loc._Location, _Inserted), true};

  000ce	8b ce		 mov	 ecx, esi
  000d0	50		 push	 eax
  000d1	ff 75 e4	 push	 DWORD PTR __Loc$4[ebp+4]

; 830  :         _Alnode_traits::construct(this->_Al, _STD addressof(this->_Ptr->_Myval), _STD forward<_Valtys>(_Vals)...);

  000d4	89 58 14	 mov	 DWORD PTR [eax+20], ebx

; 1042 :         return {_Scary->_Insert_node(_Loc._Location, _Inserted), true};

  000d7	ff 75 e0	 push	 DWORD PTR __Loc$4[ebp]

; 831  :         _Construct_in_place(this->_Ptr->_Left, _Myhead);

  000da	89 38		 mov	 DWORD PTR [eax], edi

; 832  :         _Construct_in_place(this->_Ptr->_Parent, _Myhead);

  000dc	89 78 04	 mov	 DWORD PTR [eax+4], edi

; 833  :         _Construct_in_place(this->_Ptr->_Right, _Myhead);

  000df	89 78 08	 mov	 DWORD PTR [eax+8], edi

; 834  :         this->_Ptr->_Color = _Red;

  000e2	66 c7 40 0c 00
	00		 mov	 WORD PTR [eax+12], 0

; 1042 :         return {_Scary->_Insert_node(_Loc._Location, _Inserted), true};

  000e8	e8 00 00 00 00	 call	 ?_Insert_node@?$_Tree_val@U?$_Tree_simple_types@U?$pair@$$CBKH@std@@@std@@@std@@QAEPAU?$_Tree_node@U?$pair@$$CBKH@std@@PAX@2@U?$_Tree_id@PAU?$_Tree_node@U?$pair@$$CBKH@std@@PAX@std@@@2@QAU32@@Z ; std::_Tree_val<std::_Tree_simple_types<std::pair<unsigned long const ,int> > >::_Insert_node
$LN4@AddDamage:
; File C:\IAGOS\server\v18\Source\Source\_AIInterface\aimeteonyker.cpp

; 529  : }

  000ed	8b 4d f4	 mov	 ecx, DWORD PTR __$EHRec$[ebp]
  000f0	64 89 0d 00 00
	00 00		 mov	 DWORD PTR fs:0, ecx
  000f7	59		 pop	 ecx
  000f8	5f		 pop	 edi
  000f9	5e		 pop	 esi
  000fa	5b		 pop	 ebx
  000fb	8b e5		 mov	 esp, ebp
  000fd	5d		 pop	 ebp
  000fe	c2 08 00	 ret	 8
$LN160@AddDamage:
; File C:\Program Files\Microsoft Visual Studio\2022\Professional\VC\Tools\MSVC\14.44.35207\include\xtree

; 1649 :             _Throw_tree_length_error();

  00101	e8 00 00 00 00	 call	 ?_Throw_tree_length_error@std@@YAXXZ ; std::_Throw_tree_length_error
$LN158@AddDamage:
  00106	cc		 int	 3
_TEXT	ENDS
;	COMDAT text$x
text$x	SEGMENT
__unwindfunclet$?AddDamage@CAIMeteonyker@@AAEXKH@Z$2:
  00000	8d 4d ec	 lea	 ecx, DWORD PTR $T6[ebp]
  00003	e9 00 00 00 00	 jmp	 ??1?$_Alloc_construct_ptr@V?$allocator@U?$_Tree_node@U?$pair@$$CBKH@std@@PAX@std@@@std@@@std@@QAE@XZ ; std::_Alloc_construct_ptr<std::allocator<std::_Tree_node<std::pair<unsigned long const ,int>,void *> > >::~_Alloc_construct_ptr<std::allocator<std::_Tree_node<std::pair<unsigned long const ,int>,void *> > >
  00008	cc		 int	 3
  00009	cc		 int	 3
  0000a	cc		 int	 3
  0000b	cc		 int	 3
  0000c	cc		 int	 3
__ehhandler$?AddDamage@CAIMeteonyker@@AAEXKH@Z:
  0000d	90		 npad	 1
  0000e	90		 npad	 1
  0000f	8b 54 24 08	 mov	 edx, DWORD PTR [esp+8]
  00013	8d 42 0c	 lea	 eax, DWORD PTR [edx+12]
  00016	8b 4a d0	 mov	 ecx, DWORD PTR [edx-48]
  00019	33 c8		 xor	 ecx, eax
  0001b	e8 00 00 00 00	 call	 @__security_check_cookie@4
  00020	b8 00 00 00 00	 mov	 eax, OFFSET __ehfuncinfo$?AddDamage@CAIMeteonyker@@AAEXKH@Z
  00025	e9 00 00 00 00	 jmp	 ___CxxFrameHandler3
text$x	ENDS
?AddDamage@CAIMeteonyker@@AAEXKH@Z ENDP			; CAIMeteonyker::AddDamage
; Function compile flags: /Ogtp
; File C:\Program Files\Microsoft Visual Studio\2022\Professional\VC\Tools\MSVC\14.44.35207\include\xmemory
;	COMDAT ??$_Allocate_manually_vector_aligned@U_Default_allocate_traits@std@@@std@@YAPAXI@Z
_TEXT	SEGMENT
__Bytes$ = 8						; size = 4
??$_Allocate_manually_vector_aligned@U_Default_allocate_traits@std@@@std@@YAPAXI@Z PROC ; std::_Allocate_manually_vector_aligned<std::_Default_allocate_traits>, COMDAT

; 182  : __declspec(allocator) void* _Allocate_manually_vector_aligned(const size_t _Bytes) {

  00000	55		 push	 ebp
  00001	8b ec		 mov	 ebp, esp

; 183  :     // allocate _Bytes manually aligned to at least _Big_allocation_alignment
; 184  :     const size_t _Block_size = _Non_user_size + _Bytes;

  00003	8b 45 08	 mov	 eax, DWORD PTR __Bytes$[ebp]
  00006	8d 48 23	 lea	 ecx, DWORD PTR [eax+35]

; 185  :     if (_Block_size <= _Bytes) {

  00009	3b c8		 cmp	 ecx, eax
  0000b	0f 86 00 00 00
	00		 jbe	 ?_Throw_bad_array_new_length@std@@YAXXZ ; std::_Throw_bad_array_new_length

; 136  :         return ::operator new(_Bytes);

  00011	51		 push	 ecx
  00012	e8 00 00 00 00	 call	 ??2@YAPAXI@Z		; operator new

; 186  :         _Throw_bad_array_new_length(); // add overflow
; 187  :     }
; 188  : 
; 189  :     const uintptr_t _Ptr_container = reinterpret_cast<uintptr_t>(_Traits::_Allocate(_Block_size));

  00017	8b c8		 mov	 ecx, eax

; 136  :         return ::operator new(_Bytes);

  00019	83 c4 04	 add	 esp, 4

; 190  :     _STL_VERIFY(_Ptr_container != 0, "invalid argument"); // validate even in release since we're doing p[-1]

  0001c	85 c9		 test	 ecx, ecx
  0001e	74 0b		 je	 SHORT $LN9@Allocate_m

; 191  :     void* const _Ptr = reinterpret_cast<void*>((_Ptr_container + _Non_user_size) & ~(_Big_allocation_alignment - 1));

  00020	8d 41 23	 lea	 eax, DWORD PTR [ecx+35]
  00023	83 e0 e0	 and	 eax, -32		; ffffffe0H

; 192  :     static_cast<uintptr_t*>(_Ptr)[-1] = _Ptr_container;

  00026	89 48 fc	 mov	 DWORD PTR [eax-4], ecx

; 193  : 
; 194  : #ifdef _DEBUG
; 195  :     static_cast<uintptr_t*>(_Ptr)[-2] = _Big_allocation_sentinel;
; 196  : #endif // defined(_DEBUG)
; 197  :     return _Ptr;
; 198  : }

  00029	5d		 pop	 ebp
  0002a	c3		 ret	 0
$LN9@Allocate_m:

; 190  :     _STL_VERIFY(_Ptr_container != 0, "invalid argument"); // validate even in release since we're doing p[-1]

  0002b	6a 00		 push	 0
  0002d	6a 00		 push	 0
  0002f	6a 00		 push	 0
  00031	6a 00		 push	 0
  00033	6a 00		 push	 0
  00035	e8 00 00 00 00	 call	 __invoke_watson
$LN7@Allocate_m:
  0003a	cc		 int	 3
??$_Allocate_manually_vector_aligned@U_Default_allocate_traits@std@@@std@@YAPAXI@Z ENDP ; std::_Allocate_manually_vector_aligned<std::_Default_allocate_traits>
_TEXT	ENDS
; Function compile flags: /Ogtp
; File C:\Program Files\Microsoft Visual Studio\2022\Professional\VC\Tools\MSVC\14.44.35207\include\xtree
; File C:\Program Files\Microsoft Visual Studio\2022\Professional\VC\Tools\MSVC\14.44.35207\include\utility
; File C:\Program Files\Microsoft Visual Studio\2022\Professional\VC\Tools\MSVC\14.44.35207\include\xmemory
; File C:\Program Files\Microsoft Visual Studio\2022\Professional\VC\Tools\MSVC\14.44.35207\include\xtree
;	COMDAT ??$_Erase_tree@V?$allocator@U?$_Tree_node@U?$pair@$$CBKH@std@@PAX@std@@@std@@@?$_Tree_val@U?$_Tree_simple_types@U?$pair@$$CBKH@std@@@std@@@std@@QAEXAAV?$allocator@U?$_Tree_node@U?$pair@$$CBKH@std@@PAX@std@@@1@PAU?$_Tree_node@U?$pair@$$CBKH@std@@PAX@1@@Z
_TEXT	SEGMENT
__Al$ = 8						; size = 4
__Rootnode$ = 12					; size = 4
??$_Erase_tree@V?$allocator@U?$_Tree_node@U?$pair@$$CBKH@std@@PAX@std@@@std@@@?$_Tree_val@U?$_Tree_simple_types@U?$pair@$$CBKH@std@@@std@@@std@@QAEXAAV?$allocator@U?$_Tree_node@U?$pair@$$CBKH@std@@PAX@std@@@1@PAU?$_Tree_node@U?$pair@$$CBKH@std@@PAX@1@@Z PROC ; std::_Tree_val<std::_Tree_simple_types<std::pair<unsigned long const ,int> > >::_Erase_tree<std::allocator<std::_Tree_node<std::pair<unsigned long const ,int>,void *> > >, COMDAT
; _this$ = ecx

; 767  :     void _Erase_tree(_Alnode& _Al, _Nodeptr _Rootnode) noexcept {

  00000	55		 push	 ebp
  00001	8b ec		 mov	 ebp, esp
  00003	53		 push	 ebx
  00004	56		 push	 esi

; 768  :         while (!_Rootnode->_Isnil) { // free subtrees, then node

  00005	8b 75 0c	 mov	 esi, DWORD PTR __Rootnode$[ebp]
  00008	8b d9		 mov	 ebx, ecx
  0000a	80 7e 0d 00	 cmp	 BYTE PTR [esi+13], 0
  0000e	75 25		 jne	 SHORT $LN34@Erase_tree
  00010	57		 push	 edi
  00011	8b 7d 08	 mov	 edi, DWORD PTR __Al$[ebp]
$LL2@Erase_tree:

; 769  :             _Erase_tree(_Al, _Rootnode->_Right);

  00014	ff 76 08	 push	 DWORD PTR [esi+8]
  00017	8b cb		 mov	 ecx, ebx
  00019	57		 push	 edi
  0001a	e8 00 00 00 00	 call	 ??$_Erase_tree@V?$allocator@U?$_Tree_node@U?$pair@$$CBKH@std@@PAX@std@@@std@@@?$_Tree_val@U?$_Tree_simple_types@U?$pair@$$CBKH@std@@@std@@@std@@QAEXAAV?$allocator@U?$_Tree_node@U?$pair@$$CBKH@std@@PAX@std@@@1@PAU?$_Tree_node@U?$pair@$$CBKH@std@@PAX@1@@Z ; std::_Tree_val<std::_Tree_simple_types<std::pair<unsigned long const ,int> > >::_Erase_tree<std::allocator<std::_Tree_node<std::pair<unsigned long const ,int>,void *> > >
; File C:\Program Files\Microsoft Visual Studio\2022\Professional\VC\Tools\MSVC\14.44.35207\include\utility

; 773  :     _Ty _Old_val = static_cast<_Ty&&>(_Val);

  0001f	8b c6		 mov	 eax, esi

; 774  :     _Val         = static_cast<_Other&&>(_New_val);

  00021	8b 36		 mov	 esi, DWORD PTR [esi]
; File C:\Program Files\Microsoft Visual Studio\2022\Professional\VC\Tools\MSVC\14.44.35207\include\xmemory

; 289  :         ::operator delete(_Ptr, _Bytes);

  00023	6a 18		 push	 24			; 00000018H
  00025	50		 push	 eax
  00026	e8 00 00 00 00	 call	 ??3@YAXPAXI@Z		; operator delete
  0002b	83 c4 08	 add	 esp, 8
; File C:\Program Files\Microsoft Visual Studio\2022\Professional\VC\Tools\MSVC\14.44.35207\include\xtree

; 768  :         while (!_Rootnode->_Isnil) { // free subtrees, then node

  0002e	80 7e 0d 00	 cmp	 BYTE PTR [esi+13], 0
  00032	74 e0		 je	 SHORT $LL2@Erase_tree
  00034	5f		 pop	 edi
$LN34@Erase_tree:
  00035	5e		 pop	 esi

; 770  :             _Alnode::value_type::_Freenode(_Al, _STD exchange(_Rootnode, _Rootnode->_Left));
; 771  :         }
; 772  :     }

  00036	5b		 pop	 ebx
  00037	5d		 pop	 ebp
  00038	c2 08 00	 ret	 8
??$_Erase_tree@V?$allocator@U?$_Tree_node@U?$pair@$$CBKH@std@@PAX@std@@@std@@@?$_Tree_val@U?$_Tree_simple_types@U?$pair@$$CBKH@std@@@std@@@std@@QAEXAAV?$allocator@U?$_Tree_node@U?$pair@$$CBKH@std@@PAX@std@@@1@PAU?$_Tree_node@U?$pair@$$CBKH@std@@PAX@1@@Z ENDP ; std::_Tree_val<std::_Tree_simple_types<std::pair<unsigned long const ,int> > >::_Erase_tree<std::allocator<std::_Tree_node<std::pair<unsigned long const ,int>,void *> > >
_TEXT	ENDS
; Function compile flags: /Ogtp
; File C:\IAGOS\server\v18\Source\Source\_Common\Mover.h
; File C:\IAGOS\server\v18\Source\Source\_Common\Project.h
; File C:\IAGOS\server\v18\Source\Source\_Common\Mover.h
; File C:\IAGOS\server\v18\Source\Source\_Common\Project.h
; File C:\IAGOS\server\v18\Source\Source\_Common\Mover.h
;	COMDAT ?GetPropA@CMover@@QAEPAUMoverProp@@XZ
_TEXT	SEGMENT
?GetPropA@CMover@@QAEPAUMoverProp@@XZ PROC		; CMover::GetPropA, COMDAT
; _this$ = ecx

; 1020 : 	MoverProp*		GetProp() { return prj.GetMoverProp( m_dwIndex ); }	// °´ĂĽŔÇ ÇÁ·ÎĆŰĆĽ ľň±â 	

  00000	8b 81 74 01 00
	00		 mov	 eax, DWORD PTR [ecx+372]
; File C:\IAGOS\server\v18\Source\Source\_Common\Project.h

; 1406 : 	VERIFY_RANGE( nIndex, 0, m_nMoverPropSize, "GetMoverProp range_error", NULL );

  00006	8b 0d b4 01 00
	00		 mov	 ecx, DWORD PTR ?prj@@3VCProject@@A+436
  0000c	85 c0		 test	 eax, eax
  0000e	78 11		 js	 SHORT $LN8@GetPropA
  00010	3b c1		 cmp	 eax, ecx
  00012	7d 0d		 jge	 SHORT $LN8@GetPropA

; 1407 : 	return m_pPropMover + nIndex;

  00014	69 c0 90 06 00
	00		 imul	 eax, eax, 1680
  0001a	03 05 b8 01 00
	00		 add	 eax, DWORD PTR ?prj@@3VCProject@@A+440
; File C:\IAGOS\server\v18\Source\Source\_Common\Mover.h

; 1020 : 	MoverProp*		GetProp() { return prj.GetMoverProp( m_dwIndex ); }	// °´ĂĽŔÇ ÇÁ·ÎĆŰĆĽ ľň±â 	

  00020	c3		 ret	 0
$LN8@GetPropA:
; File C:\IAGOS\server\v18\Source\Source\_Common\Project.h

; 579  : 	LPCTSTR szErr = Error( _T( "%s min:%d, max:%d, index:%d" ), szMsg, nMin, nMax, nIndex ); 

  00021	50		 push	 eax
  00022	51		 push	 ecx
  00023	6a 00		 push	 0
  00025	68 00 00 00 00	 push	 OFFSET ??_C@_0BJ@GKPOBPPI@GetMoverProp?5range_error@
  0002a	68 00 00 00 00	 push	 OFFSET ??_C@_0BM@HMFGHCP@?$CFs?5min?3?$CFd?0?5max?3?$CFd?0?5index?3?$CFd@
  0002f	e8 00 00 00 00	 call	 ?Error@@YAPBDPBDZZ	; Error
  00034	83 c4 14	 add	 esp, 20			; 00000014H
; File C:\IAGOS\server\v18\Source\Source\_Common\Mover.h

; 1020 : 	MoverProp*		GetProp() { return prj.GetMoverProp( m_dwIndex ); }	// °´ĂĽŔÇ ÇÁ·ÎĆŰĆĽ ľň±â 	

  00037	33 c0		 xor	 eax, eax
  00039	c3		 ret	 0
?GetPropA@CMover@@QAEPAUMoverProp@@XZ ENDP		; CMover::GetPropA
_TEXT	ENDS
; Function compile flags: /Ogtp
;	COMDAT ??1?$map@KHU?$less@K@std@@V?$allocator@U?$pair@$$CBKH@std@@@2@@std@@QAE@XZ
_TEXT	SEGMENT
??1?$map@KHU?$less@K@std@@V?$allocator@U?$pair@$$CBKH@std@@@2@@std@@QAE@XZ PROC ; std::map<unsigned long,int,std::less<unsigned long>,std::allocator<std::pair<unsigned long const ,int> > >::~map<unsigned long,int,std::less<unsigned long>,std::allocator<std::pair<unsigned long const ,int> > >, COMDAT
; _this$ = ecx
  00000	e9 00 00 00 00	 jmp	 ??1?$_Tree@V?$_Tmap_traits@KHU?$less@K@std@@V?$allocator@U?$pair@$$CBKH@std@@@2@$0A@@std@@@std@@QAE@XZ ; std::_Tree<std::_Tmap_traits<unsigned long,int,std::less<unsigned long>,std::allocator<std::pair<unsigned long const ,int> >,0> >::~_Tree<std::_Tmap_traits<unsigned long,int,std::less<unsigned long>,std::allocator<std::pair<unsigned long const ,int> >,0> >
??1?$map@KHU?$less@K@std@@V?$allocator@U?$pair@$$CBKH@std@@@2@@std@@QAE@XZ ENDP ; std::map<unsigned long,int,std::less<unsigned long>,std::allocator<std::pair<unsigned long const ,int> > >::~map<unsigned long,int,std::less<unsigned long>,std::allocator<std::pair<unsigned long const ,int> > >
_TEXT	ENDS
; Function compile flags: /Ogtp
; File C:\Program Files\Microsoft Visual Studio\2022\Professional\VC\Tools\MSVC\14.44.35207\include\xtree
;	COMDAT ?_Insert_node@?$_Tree_val@U?$_Tree_simple_types@U?$pair@$$CBKH@std@@@std@@@std@@QAEPAU?$_Tree_node@U?$pair@$$CBKH@std@@PAX@2@U?$_Tree_id@PAU?$_Tree_node@U?$pair@$$CBKH@std@@PAX@std@@@2@QAU32@@Z
_TEXT	SEGMENT
__Head$1$ = -4						; size = 4
__Loc$ = 8						; size = 8
__Newnode$ = 16						; size = 4
?_Insert_node@?$_Tree_val@U?$_Tree_simple_types@U?$pair@$$CBKH@std@@@std@@@std@@QAEPAU?$_Tree_node@U?$pair@$$CBKH@std@@PAX@2@U?$_Tree_id@PAU?$_Tree_node@U?$pair@$$CBKH@std@@PAX@std@@@2@QAU32@@Z PROC ; std::_Tree_val<std::_Tree_simple_types<std::pair<unsigned long const ,int> > >::_Insert_node, COMDAT
; _this$ = ecx

; 669  :     _Nodeptr _Insert_node(const _Tree_id<_Nodeptr> _Loc, const _Nodeptr _Newnode) noexcept {

  00000	55		 push	 ebp
  00001	8b ec		 mov	 ebp, esp
  00003	51		 push	 ecx

; 670  :         ++_Mysize;
; 671  :         const auto _Head  = _Myhead;
; 672  :         _Newnode->_Parent = _Loc._Parent;

  00004	8b 55 08	 mov	 edx, DWORD PTR __Loc$[ebp]
  00007	53		 push	 ebx
  00008	8b d9		 mov	 ebx, ecx
  0000a	57		 push	 edi
  0000b	8b 7d 10	 mov	 edi, DWORD PTR __Newnode$[ebp]
  0000e	8b 03		 mov	 eax, DWORD PTR [ebx]
  00010	ff 43 04	 inc	 DWORD PTR [ebx+4]
  00013	89 45 fc	 mov	 DWORD PTR __Head$1$[ebp], eax
  00016	89 57 04	 mov	 DWORD PTR [edi+4], edx

; 673  :         if (_Loc._Parent == _Head) { // first node in tree, just set head values

  00019	3b d0		 cmp	 edx, eax
  0001b	75 16		 jne	 SHORT $LN5@Insert_nod

; 674  :             _Head->_Left     = _Newnode;

  0001d	89 38		 mov	 DWORD PTR [eax], edi

; 675  :             _Head->_Parent   = _Newnode;

  0001f	89 78 04	 mov	 DWORD PTR [eax+4], edi

; 676  :             _Head->_Right    = _Newnode;

  00022	89 78 08	 mov	 DWORD PTR [eax+8], edi

; 735  :         return _Newnode;
; 736  :     }

  00025	8b c7		 mov	 eax, edi
  00027	c6 47 0c 01	 mov	 BYTE PTR [edi+12], 1
  0002b	5f		 pop	 edi
  0002c	5b		 pop	 ebx
  0002d	8b e5		 mov	 esp, ebp
  0002f	5d		 pop	 ebp
  00030	c2 0c 00	 ret	 12			; 0000000cH
$LN5@Insert_nod:

; 677  :             _Newnode->_Color = _Black; // the root is black
; 678  :             return _Newnode;
; 679  :         }
; 680  : 
; 681  :         _STL_INTERNAL_CHECK(_Loc._Child != _Tree_child::_Unused);
; 682  :         if (_Loc._Child == _Tree_child::_Right) { // add to right of _Loc._Parent

  00033	83 7d 0c 00	 cmp	 DWORD PTR __Loc$[ebp+4], 0
  00037	75 0d		 jne	 SHORT $LN6@Insert_nod

; 683  :             _STL_INTERNAL_CHECK(_Loc._Parent->_Right->_Isnil);
; 684  :             _Loc._Parent->_Right = _Newnode;

  00039	89 7a 08	 mov	 DWORD PTR [edx+8], edi

; 685  :             if (_Loc._Parent == _Head->_Right) { // remember rightmost node

  0003c	3b 50 08	 cmp	 edx, DWORD PTR [eax+8]
  0003f	75 0d		 jne	 SHORT $LN9@Insert_nod

; 686  :                 _Head->_Right = _Newnode;

  00041	89 78 08	 mov	 DWORD PTR [eax+8], edi

; 687  :             }
; 688  :         } else { // add to left of _Loc._Parent

  00044	eb 08		 jmp	 SHORT $LN9@Insert_nod
$LN6@Insert_nod:

; 689  :             _STL_INTERNAL_CHECK(_Loc._Parent->_Left->_Isnil);
; 690  :             _Loc._Parent->_Left = _Newnode;

  00046	89 3a		 mov	 DWORD PTR [edx], edi

; 691  :             if (_Loc._Parent == _Head->_Left) { // remember leftmost node

  00048	3b 10		 cmp	 edx, DWORD PTR [eax]
  0004a	75 02		 jne	 SHORT $LN9@Insert_nod

; 692  :                 _Head->_Left = _Newnode;

  0004c	89 38		 mov	 DWORD PTR [eax], edi
$LN9@Insert_nod:

; 693  :             }
; 694  :         }
; 695  : 
; 696  :         for (_Nodeptr _Pnode = _Newnode; _Pnode->_Parent->_Color == _Red;) {

  0004e	8b 4f 04	 mov	 ecx, DWORD PTR [edi+4]
  00051	8b c7		 mov	 eax, edi
  00053	80 79 0c 00	 cmp	 BYTE PTR [ecx+12], 0
  00057	0f 85 7d 01 00
	00		 jne	 $LN3@Insert_nod
  0005d	56		 push	 esi
  0005e	66 90		 npad	 2
$LL4@Insert_nod:

; 697  :             if (_Pnode->_Parent == _Pnode->_Parent->_Parent->_Left) { // fixup red-red in left subtree

  00060	8b 50 04	 mov	 edx, DWORD PTR [eax+4]
  00063	8b 72 04	 mov	 esi, DWORD PTR [edx+4]
  00066	8b 0e		 mov	 ecx, DWORD PTR [esi]
  00068	3b d1		 cmp	 edx, ecx
  0006a	0f 85 aa 00 00
	00		 jne	 $LN10@Insert_nod

; 698  :                 const auto _Parent_sibling = _Pnode->_Parent->_Parent->_Right;

  00070	8b 4e 08	 mov	 ecx, DWORD PTR [esi+8]

; 699  :                 if (_Parent_sibling->_Color == _Red) { // parent's sibling has two red children, blacken both

  00073	80 79 0c 00	 cmp	 BYTE PTR [ecx+12], 0
  00077	0f 84 a3 00 00
	00		 je	 $LN82@Insert_nod

; 700  :                     _Pnode->_Parent->_Color          = _Black;
; 701  :                     _Parent_sibling->_Color          = _Black;
; 702  :                     _Pnode->_Parent->_Parent->_Color = _Red;
; 703  :                     _Pnode                           = _Pnode->_Parent->_Parent;
; 704  :                 } else { // parent's sibling has red and black children
; 705  :                     if (_Pnode == _Pnode->_Parent->_Right) { // rotate right child to left

  0007d	8b 72 08	 mov	 esi, DWORD PTR [edx+8]
  00080	3b c6		 cmp	 eax, esi
  00082	75 37		 jne	 SHORT $LN57@Insert_nod

; 485  :         _Wherenode->_Right = _Pnode->_Left;

  00084	8b 0e		 mov	 ecx, DWORD PTR [esi]

; 706  :                         _Pnode = _Pnode->_Parent;

  00086	8b c2		 mov	 eax, edx

; 485  :         _Wherenode->_Right = _Pnode->_Left;

  00088	89 4a 08	 mov	 DWORD PTR [edx+8], ecx

; 486  : 
; 487  :         if (!_Pnode->_Left->_Isnil) {

  0008b	8b 0e		 mov	 ecx, DWORD PTR [esi]
  0008d	80 79 0d 00	 cmp	 BYTE PTR [ecx+13], 0
  00091	75 03		 jne	 SHORT $LN21@Insert_nod

; 488  :             _Pnode->_Left->_Parent = _Wherenode;

  00093	89 41 04	 mov	 DWORD PTR [ecx+4], eax
$LN21@Insert_nod:

; 489  :         }
; 490  : 
; 491  :         _Pnode->_Parent = _Wherenode->_Parent;

  00096	8b 4a 04	 mov	 ecx, DWORD PTR [edx+4]
  00099	89 4e 04	 mov	 DWORD PTR [esi+4], ecx

; 492  : 
; 493  :         if (_Wherenode == _Myhead->_Parent) {

  0009c	8b 0b		 mov	 ecx, DWORD PTR [ebx]
  0009e	3b 41 04	 cmp	 eax, DWORD PTR [ecx+4]
  000a1	75 05		 jne	 SHORT $LN22@Insert_nod

; 494  :             _Myhead->_Parent = _Pnode;

  000a3	89 71 04	 mov	 DWORD PTR [ecx+4], esi
  000a6	eb 0e		 jmp	 SHORT $LN25@Insert_nod
$LN22@Insert_nod:

; 495  :         } else if (_Wherenode == _Wherenode->_Parent->_Left) {

  000a8	8b 4a 04	 mov	 ecx, DWORD PTR [edx+4]
  000ab	3b 01		 cmp	 eax, DWORD PTR [ecx]
  000ad	75 04		 jne	 SHORT $LN24@Insert_nod

; 496  :             _Wherenode->_Parent->_Left = _Pnode;

  000af	89 31		 mov	 DWORD PTR [ecx], esi

; 497  :         } else {

  000b1	eb 03		 jmp	 SHORT $LN25@Insert_nod
$LN24@Insert_nod:

; 498  :             _Wherenode->_Parent->_Right = _Pnode;

  000b3	89 71 08	 mov	 DWORD PTR [ecx+8], esi
$LN25@Insert_nod:

; 499  :         }
; 500  : 
; 501  :         _Pnode->_Left       = _Wherenode;

  000b6	89 06		 mov	 DWORD PTR [esi], eax

; 502  :         _Wherenode->_Parent = _Pnode;

  000b8	89 70 04	 mov	 DWORD PTR [eax+4], esi
$LN57@Insert_nod:

; 707  :                         _Lrotate(_Pnode);
; 708  :                     }
; 709  : 
