; Listing generated by Microsoft (R) Optimizing Compiler Version 19.44.35225.0 

	TITLE	C:\IAGOS\server\v18\Source\Output\WorldServer\Release\AIMonster2.obj
	.686P
	.XMM
	include listing.inc
	.model	flat

INCLUDELIB LIBCMT
INCLUDELIB OLDNAMES

CONST	SEGMENT
?piecewise_construct@std@@3Upiecewise_construct_t@1@B	ORG $+1 ; std::piecewise_construct
CONST	ENDS
PUBLIC	?__empty_global_delete@@YAXPAX@Z		; __empty_global_delete
PUBLIC	?__empty_global_delete@@YAXPAXI@Z		; __empty_global_delete
PUBLIC	___local_stdio_printf_options
PUBLIC	___local_stdio_scanf_options
PUBLIC	_sprintf
PUBLIC	_sscanf
PUBLIC	??0exception@std@@QAE@ABV01@@Z			; std::exception::exception
PUBLIC	??1exception@std@@UAE@XZ			; std::exception::~exception
PUBLIC	?what@exception@std@@UBEPBDXZ			; std::exception::what
PUBLIC	??_Gexception@std@@UAEPAXI@Z			; std::exception::`scalar deleting destructor'
PUBLIC	??0bad_alloc@std@@QAE@ABV01@@Z			; std::bad_alloc::bad_alloc
PUBLIC	??_Gbad_alloc@std@@UAEPAXI@Z			; std::bad_alloc::`scalar deleting destructor'
PUBLIC	??0bad_array_new_length@std@@QAE@XZ		; std::bad_array_new_length::bad_array_new_length
PUBLIC	??1bad_array_new_length@std@@UAE@XZ		; std::bad_array_new_length::~bad_array_new_length
PUBLIC	??0bad_array_new_length@std@@QAE@ABV01@@Z	; std::bad_array_new_length::bad_array_new_length
PUBLIC	??_Gbad_array_new_length@std@@UAEPAXI@Z		; std::bad_array_new_length::`scalar deleting destructor'
PUBLIC	?_Throw_bad_array_new_length@std@@YAXXZ		; std::_Throw_bad_array_new_length
PUBLIC	?_Xlen_string@std@@YAXXZ			; std::_Xlen_string
PUBLIC	??0?$basic_string@DU?$char_traits@D@std@@V?$allocator@D@2@@std@@QAE@QBD@Z ; std::basic_string<char,std::char_traits<char>,std::allocator<char> >::basic_string<char,std::char_traits<char>,std::allocator<char> >
PUBLIC	??1?$basic_string@DU?$char_traits@D@std@@V?$allocator@D@2@@std@@QAE@XZ ; std::basic_string<char,std::char_traits<char>,std::allocator<char> >::~basic_string<char,std::char_traits<char>,std::allocator<char> >
PUBLIC	?_Throw_tree_length_error@std@@YAXXZ		; std::_Throw_tree_length_error
PUBLIC	??0D3DXVECTOR3@@QAE@XZ				; D3DXVECTOR3::D3DXVECTOR3
PUBLIC	?GetText@CProject@@QAEPBDK@Z			; CProject::GetText
PUBLIC	?IsReturnToBegin@CAIInterface@@UAEHXZ		; CAIInterface::IsReturnToBegin
PUBLIC	??$?MDU?$char_traits@D@std@@V?$allocator@D@1@@std@@YA_NABV?$basic_string@DU?$char_traits@D@std@@V?$allocator@D@2@@0@0@Z ; std::operator<<char,std::char_traits<char>,std::allocator<char> >
PUBLIC	??$_Allocate_manually_vector_aligned@U_Default_allocate_traits@std@@@std@@YAPAXI@Z ; std::_Allocate_manually_vector_aligned<std::_Default_allocate_traits>
PUBLIC	??0CAIMonster2@@QAE@XZ				; CAIMonster2::CAIMonster2
PUBLIC	??0CAIMonster2@@QAE@PAVCObj@@@Z			; CAIMonster2::CAIMonster2
PUBLIC	??1CAIMonster2@@UAE@XZ				; CAIMonster2::~CAIMonster2
PUBLIC	?RouteMessage@CAIMonster2@@UAEXXZ		; CAIMonster2::RouteMessage
PUBLIC	?SendAIMsg@CAIMonster2@@UAEXKKK@Z		; CAIMonster2::SendAIMsg
PUBLIC	?PostAIMsg@CAIMonster2@@UAEXKKK@Z		; CAIMonster2::PostAIMsg
PUBLIC	?InitAI@CAIMonster2@@UAEXXZ			; CAIMonster2::InitAI
PUBLIC	?Init@CAIMonster2@@AAEXXZ			; CAIMonster2::Init
PUBLIC	?Check@CAIMonster2@@AAEHHKK@Z			; CAIMonster2::Check
PUBLIC	?IsControllable@CAIMonster2@@AAEHXZ		; CAIMonster2::IsControllable
PUBLIC	?ProcessAIMsg@CAIMonster2@@AAEXHHKK@Z		; CAIMonster2::ProcessAIMsg
PUBLIC	?OnBeginState@CAIMonster2@@AAEXHKK@Z		; CAIMonster2::OnBeginState
PUBLIC	?OnEndState@CAIMonster2@@AAEXHKK@Z		; CAIMonster2::OnEndState
PUBLIC	?BeginAttack@CAIMonster2@@AAEHXZ		; CAIMonster2::BeginAttack
PUBLIC	?MoveToDst@CAIMonster2@@AAEXABUD3DXVECTOR3@@@Z	; CAIMonster2::MoveToDst
PUBLIC	?SelectTarget@CAIMonster2@@AAEHXZ		; CAIMonster2::SelectTarget
PUBLIC	?Search@CAIMonster2@@AAEHXZ			; CAIMonster2::Search
PUBLIC	?IsInValidTarget@CAIMonster2@@AAEHXZ		; CAIMonster2::IsInValidTarget
PUBLIC	??_GCAIMonster2@@UAEPAXI@Z			; CAIMonster2::`scalar deleting destructor'
PUBLIC	?_Insert_node@?$_Tree_val@U?$_Tree_simple_types@U?$pair@$$CBV?$basic_string@DU?$char_traits@D@std@@V?$allocator@D@2@@std@@H@std@@@std@@@std@@QAEPAU?$_Tree_node@U?$pair@$$CBV?$basic_string@DU?$char_traits@D@std@@V?$allocator@D@2@@std@@H@std@@PAX@2@U?$_Tree_id@PAU?$_Tree_node@U?$pair@$$CBV?$basic_string@DU?$char_traits@D@std@@V?$allocator@D@2@@std@@H@std@@PAX@std@@@2@QAU32@@Z ; std::_Tree_val<std::_Tree_simple_types<std::pair<std::basic_string<char,std::char_traits<char>,std::allocator<char> > const ,int> > >::_Insert_node
PUBLIC	??A?$map@V?$basic_string@DU?$char_traits@D@std@@V?$allocator@D@2@@std@@HU?$less@V?$basic_string@DU?$char_traits@D@std@@V?$allocator@D@2@@std@@@2@V?$allocator@U?$pair@$$CBV?$basic_string@DU?$char_traits@D@std@@V?$allocator@D@2@@std@@H@std@@@2@@std@@QAEAAH$$QAV?$basic_string@DU?$char_traits@D@std@@V?$allocator@D@2@@1@@Z ; std::map<std::basic_string<char,std::char_traits<char>,std::allocator<char> >,int,std::less<std::basic_string<char,std::char_traits<char>,std::allocator<char> > >,std::allocator<std::pair<std::basic_string<char,std::char_traits<char>,std::allocator<char> > const ,int> > >::operator[]
PUBLIC	?GetAIConst@@YAHPBD@Z				; GetAIConst
PUBLIC	?ReadAILine@@YA?AW4READ_TYPE@@PAU_iobuf@@QAY0EA@D@Z ; ReadAILine
PUBLIC	?ReadAIScriptHelper@@YAHPAU_iobuf@@@Z		; ReadAIScriptHelper
PUBLIC	?InitAIConst@@YAXXZ				; InitAIConst
PUBLIC	?ReadAIScript@@YAHXZ				; ReadAIScript
PUBLIC	?LoadAIScript@@YAHXZ				; LoadAIScript
PUBLIC	??$_Find_lower_bound@V?$basic_string@DU?$char_traits@D@std@@V?$allocator@D@2@@std@@@?$_Tree@V?$_Tmap_traits@V?$basic_string@DU?$char_traits@D@std@@V?$allocator@D@2@@std@@HU?$less@V?$basic_string@DU?$char_traits@D@std@@V?$allocator@D@2@@std@@@2@V?$allocator@U?$pair@$$CBV?$basic_string@DU?$char_traits@D@std@@V?$allocator@D@2@@std@@H@std@@@2@$0A@@std@@@std@@IBE?AU?$_Tree_find_result@PAU?$_Tree_node@U?$pair@$$CBV?$basic_string@DU?$char_traits@D@std@@V?$allocator@D@2@@std@@H@std@@PAX@std@@@1@ABV?$basic_string@DU?$char_traits@D@std@@V?$allocator@D@2@@1@@Z ; std::_Tree<std::_Tmap_traits<std::basic_string<char,std::char_traits<char>,std::allocator<char> >,int,std::less<std::basic_string<char,std::char_traits<char>,std::allocator<char> > >,std::allocator<std::pair<std::basic_string<char,std::char_traits<char>,std::allocator<char> > const ,int> >,0> >::_Find_lower_bound<std::basic_string<char,std::char_traits<char>,std::allocator<char> > >
PUBLIC	??$_Erase_tree@V?$allocator@U?$_Tree_node@U?$pair@$$CBV?$basic_string@DU?$char_traits@D@std@@V?$allocator@D@2@@std@@H@std@@PAX@std@@@std@@@?$_Tree_val@U?$_Tree_simple_types@U?$pair@$$CBV?$basic_string@DU?$char_traits@D@std@@V?$allocator@D@2@@std@@H@std@@@std@@@std@@QAEXAAV?$allocator@U?$_Tree_node@U?$pair@$$CBV?$basic_string@DU?$char_traits@D@std@@V?$allocator@D@2@@std@@H@std@@PAX@std@@@1@PAU?$_Tree_node@U?$pair@$$CBV?$basic_string@DU?$char_traits@D@std@@V?$allocator@D@2@@std@@H@std@@PAX@1@@Z ; std::_Tree_val<std::_Tree_simple_types<std::pair<std::basic_string<char,std::char_traits<char>,std::allocator<char> > const ,int> > >::_Erase_tree<std::allocator<std::_Tree_node<std::pair<std::basic_string<char,std::char_traits<char>,std::allocator<char> > const ,int>,void *> > >
PUBLIC	??1?$_Alloc_construct_ptr@V?$allocator@U?$_Tree_node@U?$pair@$$CBV?$basic_string@DU?$char_traits@D@std@@V?$allocator@D@2@@std@@H@std@@PAX@std@@@std@@@std@@QAE@XZ ; std::_Alloc_construct_ptr<std::allocator<std::_Tree_node<std::pair<std::basic_string<char,std::char_traits<char>,std::allocator<char> > const ,int>,void *> > >::~_Alloc_construct_ptr<std::allocator<std::_Tree_node<std::pair<std::basic_string<char,std::char_traits<char>,std::allocator<char> > const ,int>,void *> > >
PUBLIC	?_OptionsStorage@?1??__local_stdio_printf_options@@9@4_KA ; `__local_stdio_printf_options'::`2'::_OptionsStorage
PUBLIC	?_OptionsStorage@?1??__local_stdio_scanf_options@@9@4_KA ; `__local_stdio_scanf_options'::`2'::_OptionsStorage
PUBLIC	??_C@_00CNPNBAHC@@				; `string'
PUBLIC	??_7exception@std@@6B@				; std::exception::`vftable'
PUBLIC	??_C@_0BC@EOODALEL@Unknown?5exception@		; `string'
PUBLIC	??_7bad_alloc@std@@6B@				; std::bad_alloc::`vftable'
PUBLIC	??_7bad_array_new_length@std@@6B@		; std::bad_array_new_length::`vftable'
PUBLIC	??_C@_0BF@KINCDENJ@bad?5array?5new?5length@	; `string'
PUBLIC	??_R0?AVexception@std@@@8			; std::exception `RTTI Type Descriptor'
PUBLIC	__CT??_R0?AVexception@std@@@8??0exception@std@@QAE@ABV01@@Z12
PUBLIC	__TI3?AVbad_array_new_length@std@@
PUBLIC	__CTA3?AVbad_array_new_length@std@@
PUBLIC	??_R0?AVbad_array_new_length@std@@@8		; std::bad_array_new_length `RTTI Type Descriptor'
PUBLIC	__CT??_R0?AVbad_array_new_length@std@@@8??0bad_array_new_length@std@@QAE@ABV01@@Z12
PUBLIC	??_R0?AVbad_alloc@std@@@8			; std::bad_alloc `RTTI Type Descriptor'
PUBLIC	__CT??_R0?AVbad_alloc@std@@@8??0bad_alloc@std@@QAE@ABV01@@Z12
PUBLIC	??_C@_0BA@JFNIOLAK@string?5too?5long@		; `string'
PUBLIC	??_C@_0BB@GCADKGJO@map?1set?5too?5long@		; `string'
PUBLIC	??_C@_0BM@HMFGHCP@?$CFs?5min?3?$CFd?0?5max?3?$CFd?0?5index?3?$CFd@ ; `string'
PUBLIC	??_C@_0BJ@GKPOBPPI@GetMoverProp?5range_error@	; `string'
PUBLIC	??_C@_0BE@OHDBLHOM@GetText?5range_error@	; `string'
PUBLIC	??_C@_05KKCIMGE@error@				; `string'
PUBLIC	??_R4exception@std@@6B@				; std::exception::`RTTI Complete Object Locator'
PUBLIC	??_R3exception@std@@8				; std::exception::`RTTI Class Hierarchy Descriptor'
PUBLIC	??_R2exception@std@@8				; std::exception::`RTTI Base Class Array'
PUBLIC	??_R1A@?0A@EA@exception@std@@8			; std::exception::`RTTI Base Class Descriptor at (0,-1,0,64)'
PUBLIC	??_R4bad_array_new_length@std@@6B@		; std::bad_array_new_length::`RTTI Complete Object Locator'
PUBLIC	??_R3bad_array_new_length@std@@8		; std::bad_array_new_length::`RTTI Class Hierarchy Descriptor'
PUBLIC	??_R2bad_array_new_length@std@@8		; std::bad_array_new_length::`RTTI Base Class Array'
PUBLIC	??_R1A@?0A@EA@bad_array_new_length@std@@8	; std::bad_array_new_length::`RTTI Base Class Descriptor at (0,-1,0,64)'
PUBLIC	??_R1A@?0A@EA@bad_alloc@std@@8			; std::bad_alloc::`RTTI Base Class Descriptor at (0,-1,0,64)'
PUBLIC	??_R3bad_alloc@std@@8				; std::bad_alloc::`RTTI Class Hierarchy Descriptor'
PUBLIC	??_R2bad_alloc@std@@8				; std::bad_alloc::`RTTI Base Class Array'
PUBLIC	??_R4bad_alloc@std@@6B@				; std::bad_alloc::`RTTI Complete Object Locator'
PUBLIC	??_7CAIMonster2@@6B@				; CAIMonster2::`vftable'
PUBLIC	??_C@_08EPEHIMMI@?$CFs?5?$CFs?5?$CFs@		; `string'
PUBLIC	??_C@_08JBPCBBDM@AI2_IDLE@			; `string'
PUBLIC	??_C@_08KCMCBGFL@AI2_MOVE@			; `string'
PUBLIC	??_C@_08LNEJKIHM@AI2_RAGE@			; `string'
PUBLIC	??_C@_0L@GOJDIFNJ@AI2_SEARCH@			; `string'
PUBLIC	??_C@_0N@FKENLGAD@AI2_TRACKING@			; `string'
PUBLIC	??_C@_0L@JHNJGKEA@AI2_ATTACK@			; `string'
PUBLIC	??_C@_0L@OGKFHONP@AIMSG_INIT@			; `string'
PUBLIC	??_C@_0O@FGADDLA@AIMSG_PROCESS@			; `string'
PUBLIC	??_C@_0O@CAKKLME@AIMSG_TIMEOUT@			; `string'
PUBLIC	??_C@_0P@MNEJJBAE@AIMSG_SETSTATE@		; `string'
PUBLIC	??_C@_0BB@BJJNCNNK@AIMSG_SETPROCESS@		; `string'
PUBLIC	??_C@_0BA@MANHDIAI@AIMSG_DSTDAMAGE@		; `string'
PUBLIC	??_C@_0N@FFKOBKGI@AIMSG_DSTDIE@			; `string'
PUBLIC	??_C@_0N@ELAAJBDD@AIMSG_DAMAGE@			; `string'
PUBLIC	??_C@_09PBLEMKPG@AIMSG_DIE@			; `string'
PUBLIC	??_C@_0BA@OPJOPNPP@AIMSG_COLLISION@		; `string'
PUBLIC	??_C@_0O@NANNIKBA@AIMSG_ARRIVAL@		; `string'
PUBLIC	??_C@_0N@CIEBBBHJ@AIMSG_NOMOVE@			; `string'
PUBLIC	??_C@_0BA@INJNCIBN@AIMSG_BEGINMOVE@		; `string'
PUBLIC	??_C@_0BD@NKNLMNDG@AIMSG_ATTACK_MELEE@		; `string'
PUBLIC	??_C@_0BG@OKJOPHFH@AIMSG_END_MELEEATTACK@	; `string'
PUBLIC	??_C@_0BB@FHJBBFGI@AIMSG_END_APPEAR@		; `string'
PUBLIC	??_C@_0BH@HCEFCLLG@AIMSG_INIT_TARGETCLEAR@	; `string'
PUBLIC	??_C@_0L@FGCHJLJN@AIMSG_EXIT@			; `string'
PUBLIC	??_C@_0BC@PILNCGPK@AIMSG_TARGET_FIND@		; `string'
PUBLIC	??_C@_0BH@BLLBENK@AIMSG_REATTACK_TIMEOUT@	; `string'
PUBLIC	??_C@_0BF@FNOHHEFP@AIMSG_INVALID_TARGET@	; `string'
PUBLIC	??_C@_0BA@HKGPNEMO@?4?2AI_Script?4txt@		; `string'
PUBLIC	??_C@_02BMJICGCB@rt@				; `string'
PUBLIC	??_C@_0BD@KEMPPPD@?$CFs?5file?5not?5found?4@	; `string'
PUBLIC	??_C@_0BG@JCMJKPND@?$CFs?5file?5syntax?5error?4@ ; `string'
PUBLIC	??_R4CAIMonster2@@6B@				; CAIMonster2::`RTTI Complete Object Locator'
PUBLIC	??_R0?AVCAIMonster2@@@8				; CAIMonster2 `RTTI Type Descriptor'
PUBLIC	??_R3CAIMonster2@@8				; CAIMonster2::`RTTI Class Hierarchy Descriptor'
PUBLIC	??_R2CAIMonster2@@8				; CAIMonster2::`RTTI Base Class Array'
PUBLIC	??_R1A@?0A@EA@CAIMonster2@@8			; CAIMonster2::`RTTI Base Class Descriptor at (0,-1,0,64)'
PUBLIC	??_R1A@?0A@EA@CAIInterface@@8			; CAIInterface::`RTTI Base Class Descriptor at (0,-1,0,64)'
PUBLIC	??_R0?AVCAIInterface@@@8			; CAIInterface `RTTI Type Descriptor'
PUBLIC	??_R3CAIInterface@@8				; CAIInterface::`RTTI Class Hierarchy Descriptor'
PUBLIC	??_R2CAIInterface@@8				; CAIInterface::`RTTI Base Class Array'
PUBLIC	__real@40800000
PUBLIC	__real@40c00000
PUBLIC	__real@41200000
EXTRN	??2@YAPAXI@Z:PROC				; operator new
EXTRN	??3@YAXPAXI@Z:PROC				; operator delete
EXTRN	_atexit:PROC
EXTRN	__invoke_watson:PROC
EXTRN	__imp__GetTickCount@0:PROC
EXTRN	_fclose:PROC
EXTRN	_ferror:PROC
EXTRN	_fgets:PROC
EXTRN	_fopen:PROC
EXTRN	___stdio_common_vsprintf:PROC
EXTRN	___stdio_common_vsscanf:PROC
EXTRN	_atoi:PROC
EXTRN	?AfxMessageBox@@YGHPBDII@Z:PROC			; AfxMessageBox
EXTRN	___std_exception_copy:PROC
EXTRN	___std_exception_destroy:PROC
EXTRN	??_Eexception@std@@UAEPAXI@Z:PROC		; std::exception::`vector deleting destructor'
EXTRN	??_Ebad_alloc@std@@UAEPAXI@Z:PROC		; std::bad_alloc::`vector deleting destructor'
EXTRN	??_Ebad_array_new_length@std@@UAEPAXI@Z:PROC	; std::bad_array_new_length::`vector deleting destructor'
EXTRN	?_Xlength_error@std@@YAXPBD@Z:PROC		; std::_Xlength_error
EXTRN	?Error@@YAPBDPBDZZ:PROC				; Error
EXTRN	?GetRadiusXZ@CObj@@QAEMXZ:PROC			; CObj::GetRadiusXZ
EXTRN	?GetMover@CProject@@QAEPAVCMover@@K@Z:PROC	; CProject::GetMover
EXTRN	?GetStateMap@CAIInterface@@UBEPBUSTATEMAP@@XZ:PROC ; CAIInterface::GetStateMap
EXTRN	??0CAIInterface@@QAE@XZ:PROC			; CAIInterface::CAIInterface
EXTRN	??0CAIInterface@@QAE@PAVCObj@@@Z:PROC		; CAIInterface::CAIInterface
EXTRN	??1CAIInterface@@UAE@XZ:PROC			; CAIInterface::~CAIInterface
EXTRN	?SendAIMsg@CAIInterface@@UAEXKKKK@Z:PROC	; CAIInterface::SendAIMsg
EXTRN	?PostAIMsg@CAIInterface@@UAEXKKKK@Z:PROC	; CAIInterface::PostAIMsg
EXTRN	?ScanTarget@CAIInterface@@IAEPAVCMover@@PAVCObj@@HHKKH@Z:PROC ; CAIInterface::ScanTarget
EXTRN	?ScanTargetStrong@CAIInterface@@IAEPAVCMover@@PAVCObj@@M@Z:PROC ; CAIInterface::ScanTargetStrong
EXTRN	?ScanTargetOverHealer@CAIInterface@@IAEPAVCMover@@PAVCObj@@M@Z:PROC ; CAIInterface::ScanTargetOverHealer
EXTRN	?SetDestPos@CMover@@QAEXABUD3DXVECTOR3@@_NH@Z:PROC ; CMover::SetDestPos
EXTRN	?GetName@CMover@@QAEPBDH@Z:PROC			; CMover::GetName
EXTRN	?GetJob@CMover@@QAEHXZ:PROC			; CMover::GetJob
EXTRN	?DoAttackMelee@CMover@@QAEHPAV1@W4OBJMSG@@K@Z:PROC ; CMover::DoAttackMelee
EXTRN	?SetDestObj@CMover@@QAEXKMH@Z:PROC		; CMover::SetDestObj
EXTRN	??_ECAIMonster2@@UAEPAXI@Z:PROC			; CAIMonster2::`vector deleting destructor'
EXTRN	?GetState@CFSM@@QAEPAVCFSMstate@@H@Z:PROC	; CFSM::GetState
EXTRN	?AddState@CFSM@@QAEHPAVCFSMstate@@@Z:PROC	; CFSM::AddState
EXTRN	?GetTransition@CFSM@@QAEHHHAAH@Z:PROC		; CFSM::GetTransition
EXTRN	?GetFSM@@YAPAVCFSM@@K@Z:PROC			; GetFSM
EXTRN	??0CFSMstate@@QAE@H@Z:PROC			; CFSMstate::CFSMstate
EXTRN	?AddTransition@CFSMstate@@QAEXHHK@Z:PROC	; CFSMstate::AddTransition
EXTRN	?SetPolling@CFSMstate@@QAEXH@Z:PROC		; CFSMstate::SetPolling
EXTRN	?GetPolling@CFSMstate@@QAEHXZ:PROC		; CFSMstate::GetPolling
EXTRN	?AddWorldShout@CUserMng@@QAEXPBD0UD3DXVECTOR3@@PAVCWorld@@@Z:PROC ; CUserMng::AddWorldShout
EXTRN	?AddMoverSetDestObj@CUserMng@@QAEXPAVCMover@@KMH@Z:PROC ; CUserMng::AddMoverSetDestObj
EXTRN	?AddSetDestPos@CUserMng@@QAEXPAVCMover@@ABUD3DXVECTOR3@@E@Z:PROC ; CUserMng::AddSetDestPos
EXTRN	@__security_check_cookie@4:PROC
EXTRN	__CxxThrowException@8:PROC
EXTRN	___CxxFrameHandler3:PROC
EXTRN	_memcpy:PROC
EXTRN	_memset:PROC
EXTRN	??_7type_info@@6B@:QWORD			; type_info::`vftable'
EXTRN	?g_next@@3KA:DWORD				; g_next
EXTRN	?prj@@3VCProject@@A:BYTE			; prj
EXTRN	?g_UserMng@@3VCUserMng@@A:BYTE			; g_UserMng
EXTRN	___security_cookie:DWORD
EXTRN	__fltused:DWORD
;	COMDAT ?_OptionsStorage@?1??__local_stdio_printf_options@@9@4_KA
_BSS	SEGMENT
?_OptionsStorage@?1??__local_stdio_printf_options@@9@4_KA DQ 01H DUP (?) ; `__local_stdio_printf_options'::`2'::_OptionsStorage
_BSS	ENDS
;	COMDAT ?_OptionsStorage@?1??__local_stdio_scanf_options@@9@4_KA
_BSS	SEGMENT
?_OptionsStorage@?1??__local_stdio_scanf_options@@9@4_KA DQ 01H DUP (?) ; `__local_stdio_scanf_options'::`2'::_OptionsStorage
_BSS	ENDS
_BSS	SEGMENT
?g_stringTable@@3V?$map@V?$basic_string@DU?$char_traits@D@std@@V?$allocator@D@2@@std@@HU?$less@V?$basic_string@DU?$char_traits@D@std@@V?$allocator@D@2@@std@@@2@V?$allocator@U?$pair@$$CBV?$basic_string@DU?$char_traits@D@std@@V?$allocator@D@2@@std@@H@std@@@2@@std@@A DQ 01H DUP (?) ; g_stringTable
_BSS	ENDS
CRT$XCU	SEGMENT
?g_stringTable$initializer$@@3P6AXXZA DD FLAT:??__Eg_stringTable@@YAXXZ ; g_stringTable$initializer$
CRT$XCU	ENDS
;	COMDAT __real@41200000
CONST	SEGMENT
__real@41200000 DD 041200000r			; 10
CONST	ENDS
;	COMDAT __real@40c00000
CONST	SEGMENT
__real@40c00000 DD 040c00000r			; 6
CONST	ENDS
;	COMDAT __real@40800000
CONST	SEGMENT
__real@40800000 DD 040800000r			; 4
CONST	ENDS
;	COMDAT ??_R2CAIInterface@@8
rdata$r	SEGMENT
??_R2CAIInterface@@8 DD FLAT:??_R1A@?0A@EA@CAIInterface@@8 ; CAIInterface::`RTTI Base Class Array'
rdata$r	ENDS
;	COMDAT ??_R3CAIInterface@@8
rdata$r	SEGMENT
??_R3CAIInterface@@8 DD 00H				; CAIInterface::`RTTI Class Hierarchy Descriptor'
	DD	00H
	DD	01H
	DD	FLAT:??_R2CAIInterface@@8
rdata$r	ENDS
;	COMDAT ??_R0?AVCAIInterface@@@8
data$rs	SEGMENT
??_R0?AVCAIInterface@@@8 DD FLAT:??_7type_info@@6B@	; CAIInterface `RTTI Type Descriptor'
	DD	00H
	DB	'.?AVCAIInterface@@', 00H
data$rs	ENDS
;	COMDAT ??_R1A@?0A@EA@CAIInterface@@8
rdata$r	SEGMENT
??_R1A@?0A@EA@CAIInterface@@8 DD FLAT:??_R0?AVCAIInterface@@@8 ; CAIInterface::`RTTI Base Class Descriptor at (0,-1,0,64)'
	DD	00H
	DD	00H
	DD	0ffffffffH
	DD	00H
	DD	040H
	DD	FLAT:??_R3CAIInterface@@8
rdata$r	ENDS
;	COMDAT ??_R1A@?0A@EA@CAIMonster2@@8
rdata$r	SEGMENT
??_R1A@?0A@EA@CAIMonster2@@8 DD FLAT:??_R0?AVCAIMonster2@@@8 ; CAIMonster2::`RTTI Base Class Descriptor at (0,-1,0,64)'
	DD	01H
	DD	00H
	DD	0ffffffffH
	DD	00H
	DD	040H
	DD	FLAT:??_R3CAIMonster2@@8
rdata$r	ENDS
;	COMDAT ??_R2CAIMonster2@@8
rdata$r	SEGMENT
??_R2CAIMonster2@@8 DD FLAT:??_R1A@?0A@EA@CAIMonster2@@8 ; CAIMonster2::`RTTI Base Class Array'
	DD	FLAT:??_R1A@?0A@EA@CAIInterface@@8
rdata$r	ENDS
;	COMDAT ??_R3CAIMonster2@@8
rdata$r	SEGMENT
??_R3CAIMonster2@@8 DD 00H				; CAIMonster2::`RTTI Class Hierarchy Descriptor'
	DD	00H
	DD	02H
	DD	FLAT:??_R2CAIMonster2@@8
rdata$r	ENDS
;	COMDAT ??_R0?AVCAIMonster2@@@8
data$rs	SEGMENT
??_R0?AVCAIMonster2@@@8 DD FLAT:??_7type_info@@6B@	; CAIMonster2 `RTTI Type Descriptor'
	DD	00H
	DB	'.?AVCAIMonster2@@', 00H
data$rs	ENDS
;	COMDAT ??_R4CAIMonster2@@6B@
rdata$r	SEGMENT
??_R4CAIMonster2@@6B@ DD 00H				; CAIMonster2::`RTTI Complete Object Locator'
	DD	00H
	DD	00H
	DD	FLAT:??_R0?AVCAIMonster2@@@8
	DD	FLAT:??_R3CAIMonster2@@8
rdata$r	ENDS
;	COMDAT ??_C@_0BG@JCMJKPND@?$CFs?5file?5syntax?5error?4@
CONST	SEGMENT
??_C@_0BG@JCMJKPND@?$CFs?5file?5syntax?5error?4@ DB '%s file syntax error'
	DB	'.', 00H					; `string'
CONST	ENDS
;	COMDAT ??_C@_0BD@KEMPPPD@?$CFs?5file?5not?5found?4@
CONST	SEGMENT
??_C@_0BD@KEMPPPD@?$CFs?5file?5not?5found?4@ DB '%s file not found.', 00H ; `string'
CONST	ENDS
;	COMDAT ??_C@_02BMJICGCB@rt@
CONST	SEGMENT
??_C@_02BMJICGCB@rt@ DB 'rt', 00H			; `string'
CONST	ENDS
;	COMDAT ??_C@_0BA@HKGPNEMO@?4?2AI_Script?4txt@
CONST	SEGMENT
??_C@_0BA@HKGPNEMO@?4?2AI_Script?4txt@ DB '.\AI_Script.txt', 00H ; `string'
CONST	ENDS
;	COMDAT ??_C@_0BF@FNOHHEFP@AIMSG_INVALID_TARGET@
CONST	SEGMENT
??_C@_0BF@FNOHHEFP@AIMSG_INVALID_TARGET@ DB 'AIMSG_INVALID_TARGET', 00H ; `string'
CONST	ENDS
;	COMDAT ??_C@_0BH@BLLBENK@AIMSG_REATTACK_TIMEOUT@
CONST	SEGMENT
??_C@_0BH@BLLBENK@AIMSG_REATTACK_TIMEOUT@ DB 'AIMSG_REATTACK_TIMEOUT', 00H ; `string'
CONST	ENDS
;	COMDAT ??_C@_0BC@PILNCGPK@AIMSG_TARGET_FIND@
CONST	SEGMENT
??_C@_0BC@PILNCGPK@AIMSG_TARGET_FIND@ DB 'AIMSG_TARGET_FIND', 00H ; `string'
CONST	ENDS
;	COMDAT ??_C@_0L@FGCHJLJN@AIMSG_EXIT@
CONST	SEGMENT
??_C@_0L@FGCHJLJN@AIMSG_EXIT@ DB 'AIMSG_EXIT', 00H	; `string'
CONST	ENDS
;	COMDAT ??_C@_0BH@HCEFCLLG@AIMSG_INIT_TARGETCLEAR@
CONST	SEGMENT
??_C@_0BH@HCEFCLLG@AIMSG_INIT_TARGETCLEAR@ DB 'AIMSG_INIT_TARGETCLEAR', 00H ; `string'
CONST	ENDS
;	COMDAT ??_C@_0BB@FHJBBFGI@AIMSG_END_APPEAR@
CONST	SEGMENT
??_C@_0BB@FHJBBFGI@AIMSG_END_APPEAR@ DB 'AIMSG_END_APPEAR', 00H ; `string'
CONST	ENDS
;	COMDAT ??_C@_0BG@OKJOPHFH@AIMSG_END_MELEEATTACK@
CONST	SEGMENT
??_C@_0BG@OKJOPHFH@AIMSG_END_MELEEATTACK@ DB 'AIMSG_END_MELEEATTACK', 00H ; `string'
CONST	ENDS
;	COMDAT ??_C@_0BD@NKNLMNDG@AIMSG_ATTACK_MELEE@
CONST	SEGMENT
??_C@_0BD@NKNLMNDG@AIMSG_ATTACK_MELEE@ DB 'AIMSG_ATTACK_MELEE', 00H ; `string'
CONST	ENDS
;	COMDAT ??_C@_0BA@INJNCIBN@AIMSG_BEGINMOVE@
CONST	SEGMENT
??_C@_0BA@INJNCIBN@AIMSG_BEGINMOVE@ DB 'AIMSG_BEGINMOVE', 00H ; `string'
CONST	ENDS
;	COMDAT ??_C@_0N@CIEBBBHJ@AIMSG_NOMOVE@
CONST	SEGMENT
??_C@_0N@CIEBBBHJ@AIMSG_NOMOVE@ DB 'AIMSG_NOMOVE', 00H	; `string'
CONST	ENDS
;	COMDAT ??_C@_0O@NANNIKBA@AIMSG_ARRIVAL@
CONST	SEGMENT
??_C@_0O@NANNIKBA@AIMSG_ARRIVAL@ DB 'AIMSG_ARRIVAL', 00H ; `string'
CONST	ENDS
;	COMDAT ??_C@_0BA@OPJOPNPP@AIMSG_COLLISION@
CONST	SEGMENT
??_C@_0BA@OPJOPNPP@AIMSG_COLLISION@ DB 'AIMSG_COLLISION', 00H ; `string'
CONST	ENDS
;	COMDAT ??_C@_09PBLEMKPG@AIMSG_DIE@
CONST	SEGMENT
??_C@_09PBLEMKPG@AIMSG_DIE@ DB 'AIMSG_DIE', 00H		; `string'
CONST	ENDS
;	COMDAT ??_C@_0N@ELAAJBDD@AIMSG_DAMAGE@
CONST	SEGMENT
??_C@_0N@ELAAJBDD@AIMSG_DAMAGE@ DB 'AIMSG_DAMAGE', 00H	; `string'
CONST	ENDS
;	COMDAT ??_C@_0N@FFKOBKGI@AIMSG_DSTDIE@
CONST	SEGMENT
??_C@_0N@FFKOBKGI@AIMSG_DSTDIE@ DB 'AIMSG_DSTDIE', 00H	; `string'
CONST	ENDS
;	COMDAT ??_C@_0BA@MANHDIAI@AIMSG_DSTDAMAGE@
CONST	SEGMENT
??_C@_0BA@MANHDIAI@AIMSG_DSTDAMAGE@ DB 'AIMSG_DSTDAMAGE', 00H ; `string'
CONST	ENDS
;	COMDAT ??_C@_0BB@BJJNCNNK@AIMSG_SETPROCESS@
CONST	SEGMENT
??_C@_0BB@BJJNCNNK@AIMSG_SETPROCESS@ DB 'AIMSG_SETPROCESS', 00H ; `string'
CONST	ENDS
;	COMDAT ??_C@_0P@MNEJJBAE@AIMSG_SETSTATE@
CONST	SEGMENT
??_C@_0P@MNEJJBAE@AIMSG_SETSTATE@ DB 'AIMSG_SETSTATE', 00H ; `string'
CONST	ENDS
;	COMDAT ??_C@_0O@CAKKLME@AIMSG_TIMEOUT@
CONST	SEGMENT
??_C@_0O@CAKKLME@AIMSG_TIMEOUT@ DB 'AIMSG_TIMEOUT', 00H	; `string'
CONST	ENDS
;	COMDAT ??_C@_0O@FGADDLA@AIMSG_PROCESS@
CONST	SEGMENT
??_C@_0O@FGADDLA@AIMSG_PROCESS@ DB 'AIMSG_PROCESS', 00H	; `string'
CONST	ENDS
;	COMDAT ??_C@_0L@OGKFHONP@AIMSG_INIT@
CONST	SEGMENT
??_C@_0L@OGKFHONP@AIMSG_INIT@ DB 'AIMSG_INIT', 00H	; `string'
CONST	ENDS
;	COMDAT ??_C@_0L@JHNJGKEA@AI2_ATTACK@
CONST	SEGMENT
??_C@_0L@JHNJGKEA@AI2_ATTACK@ DB 'AI2_ATTACK', 00H	; `string'
CONST	ENDS
;	COMDAT ??_C@_0N@FKENLGAD@AI2_TRACKING@
CONST	SEGMENT
??_C@_0N@FKENLGAD@AI2_TRACKING@ DB 'AI2_TRACKING', 00H	; `string'
CONST	ENDS
;	COMDAT ??_C@_0L@GOJDIFNJ@AI2_SEARCH@
CONST	SEGMENT
??_C@_0L@GOJDIFNJ@AI2_SEARCH@ DB 'AI2_SEARCH', 00H	; `string'
CONST	ENDS
;	COMDAT ??_C@_08LNEJKIHM@AI2_RAGE@
CONST	SEGMENT
??_C@_08LNEJKIHM@AI2_RAGE@ DB 'AI2_RAGE', 00H		; `string'
CONST	ENDS
;	COMDAT ??_C@_08KCMCBGFL@AI2_MOVE@
CONST	SEGMENT
??_C@_08KCMCBGFL@AI2_MOVE@ DB 'AI2_MOVE', 00H		; `string'
CONST	ENDS
;	COMDAT ??_C@_08JBPCBBDM@AI2_IDLE@
CONST	SEGMENT
??_C@_08JBPCBBDM@AI2_IDLE@ DB 'AI2_IDLE', 00H		; `string'
CONST	ENDS
;	COMDAT ??_C@_08EPEHIMMI@?$CFs?5?$CFs?5?$CFs@
CONST	SEGMENT
??_C@_08EPEHIMMI@?$CFs?5?$CFs?5?$CFs@ DB '%s %s %s', 00H ; `string'
CONST	ENDS
;	COMDAT ??_7CAIMonster2@@6B@
CONST	SEGMENT
??_7CAIMonster2@@6B@ DD FLAT:??_R4CAIMonster2@@6B@	; CAIMonster2::`vftable'
	DD	FLAT:?GetStateMap@CAIInterface@@UBEPBUSTATEMAP@@XZ
	DD	FLAT:??_ECAIMonster2@@UAEPAXI@Z
	DD	FLAT:?RouteMessage@CAIMonster2@@UAEXXZ
	DD	FLAT:?SendAIMsg@CAIInterface@@UAEXKKKK@Z
	DD	FLAT:?PostAIMsg@CAIInterface@@UAEXKKKK@Z
	DD	FLAT:?InitAI@CAIMonster2@@UAEXXZ
	DD	FLAT:?IsReturnToBegin@CAIInterface@@UAEHXZ
	DD	FLAT:?SendAIMsg@CAIMonster2@@UAEXKKK@Z
	DD	FLAT:?PostAIMsg@CAIMonster2@@UAEXKKK@Z
CONST	ENDS
;	COMDAT ??_R4bad_alloc@std@@6B@
rdata$r	SEGMENT
??_R4bad_alloc@std@@6B@ DD 00H				; std::bad_alloc::`RTTI Complete Object Locator'
	DD	00H
	DD	00H
	DD	FLAT:??_R0?AVbad_alloc@std@@@8
	DD	FLAT:??_R3bad_alloc@std@@8
rdata$r	ENDS
;	COMDAT ??_R2bad_alloc@std@@8
rdata$r	SEGMENT
??_R2bad_alloc@std@@8 DD FLAT:??_R1A@?0A@EA@bad_alloc@std@@8 ; std::bad_alloc::`RTTI Base Class Array'
	DD	FLAT:??_R1A@?0A@EA@exception@std@@8
rdata$r	ENDS
;	COMDAT ??_R3bad_alloc@std@@8
rdata$r	SEGMENT
??_R3bad_alloc@std@@8 DD 00H				; std::bad_alloc::`RTTI Class Hierarchy Descriptor'
	DD	00H
	DD	02H
	DD	FLAT:??_R2bad_alloc@std@@8
rdata$r	ENDS
;	COMDAT ??_R1A@?0A@EA@bad_alloc@std@@8
rdata$r	SEGMENT
??_R1A@?0A@EA@bad_alloc@std@@8 DD FLAT:??_R0?AVbad_alloc@std@@@8 ; std::bad_alloc::`RTTI Base Class Descriptor at (0,-1,0,64)'
	DD	01H
	DD	00H
	DD	0ffffffffH
	DD	00H
	DD	040H
	DD	FLAT:??_R3bad_alloc@std@@8
rdata$r	ENDS
;	COMDAT ??_R1A@?0A@EA@bad_array_new_length@std@@8
rdata$r	SEGMENT
??_R1A@?0A@EA@bad_array_new_length@std@@8 DD FLAT:??_R0?AVbad_array_new_length@std@@@8 ; std::bad_array_new_length::`RTTI Base Class Descriptor at (0,-1,0,64)'
	DD	02H
	DD	00H
	DD	0ffffffffH
	DD	00H
	DD	040H
	DD	FLAT:??_R3bad_array_new_length@std@@8
rdata$r	ENDS
;	COMDAT ??_R2bad_array_new_length@std@@8
rdata$r	SEGMENT
??_R2bad_array_new_length@std@@8 DD FLAT:??_R1A@?0A@EA@bad_array_new_length@std@@8 ; std::bad_array_new_length::`RTTI Base Class Array'
	DD	FLAT:??_R1A@?0A@EA@bad_alloc@std@@8
	DD	FLAT:??_R1A@?0A@EA@exception@std@@8
rdata$r	ENDS
;	COMDAT ??_R3bad_array_new_length@std@@8
rdata$r	SEGMENT
??_R3bad_array_new_length@std@@8 DD 00H			; std::bad_array_new_length::`RTTI Class Hierarchy Descriptor'
	DD	00H
	DD	03H
	DD	FLAT:??_R2bad_array_new_length@std@@8
rdata$r	ENDS
;	COMDAT ??_R4bad_array_new_length@std@@6B@
rdata$r	SEGMENT
??_R4bad_array_new_length@std@@6B@ DD 00H		; std::bad_array_new_length::`RTTI Complete Object Locator'
	DD	00H
	DD	00H
	DD	FLAT:??_R0?AVbad_array_new_length@std@@@8
	DD	FLAT:??_R3bad_array_new_length@std@@8
rdata$r	ENDS
;	COMDAT ??_R1A@?0A@EA@exception@std@@8
rdata$r	SEGMENT
??_R1A@?0A@EA@exception@std@@8 DD FLAT:??_R0?AVexception@std@@@8 ; std::exception::`RTTI Base Class Descriptor at (0,-1,0,64)'
	DD	00H
	DD	00H
	DD	0ffffffffH
	DD	00H
	DD	040H
	DD	FLAT:??_R3exception@std@@8
rdata$r	ENDS
;	COMDAT ??_R2exception@std@@8
rdata$r	SEGMENT
??_R2exception@std@@8 DD FLAT:??_R1A@?0A@EA@exception@std@@8 ; std::exception::`RTTI Base Class Array'
rdata$r	ENDS
;	COMDAT ??_R3exception@std@@8
rdata$r	SEGMENT
??_R3exception@std@@8 DD 00H				; std::exception::`RTTI Class Hierarchy Descriptor'
	DD	00H
	DD	01H
	DD	FLAT:??_R2exception@std@@8
rdata$r	ENDS
;	COMDAT ??_R4exception@std@@6B@
rdata$r	SEGMENT
??_R4exception@std@@6B@ DD 00H				; std::exception::`RTTI Complete Object Locator'
	DD	00H
	DD	00H
	DD	FLAT:??_R0?AVexception@std@@@8
	DD	FLAT:??_R3exception@std@@8
rdata$r	ENDS
;	COMDAT ??_C@_05KKCIMGE@error@
CONST	SEGMENT
??_C@_05KKCIMGE@error@ DB 'error', 00H			; `string'
CONST	ENDS
;	COMDAT ??_C@_0BE@OHDBLHOM@GetText?5range_error@
CONST	SEGMENT
??_C@_0BE@OHDBLHOM@GetText?5range_error@ DB 'GetText range_error', 00H ; `string'
CONST	ENDS
;	COMDAT ??_C@_0BJ@GKPOBPPI@GetMoverProp?5range_error@
CONST	SEGMENT
??_C@_0BJ@GKPOBPPI@GetMoverProp?5range_error@ DB 'GetMoverProp range_erro'
	DB	'r', 00H					; `string'
CONST	ENDS
;	COMDAT ??_C@_0BM@HMFGHCP@?$CFs?5min?3?$CFd?0?5max?3?$CFd?0?5index?3?$CFd@
CONST	SEGMENT
??_C@_0BM@HMFGHCP@?$CFs?5min?3?$CFd?0?5max?3?$CFd?0?5index?3?$CFd@ DB '%s'
	DB	' min:%d, max:%d, index:%d', 00H		; `string'
CONST	ENDS
;	COMDAT ??_C@_0BB@GCADKGJO@map?1set?5too?5long@
CONST	SEGMENT
??_C@_0BB@GCADKGJO@map?1set?5too?5long@ DB 'map/set too long', 00H ; `string'
CONST	ENDS
;	COMDAT ??_C@_0BA@JFNIOLAK@string?5too?5long@
CONST	SEGMENT
??_C@_0BA@JFNIOLAK@string?5too?5long@ DB 'string too long', 00H ; `string'
CONST	ENDS
;	COMDAT __CT??_R0?AVbad_alloc@std@@@8??0bad_alloc@std@@QAE@ABV01@@Z12
xdata$x	SEGMENT
__CT??_R0?AVbad_alloc@std@@@8??0bad_alloc@std@@QAE@ABV01@@Z12 DD 010H
	DD	FLAT:??_R0?AVbad_alloc@std@@@8
	DD	00H
	DD	0ffffffffH
	ORG $+4
	DD	0cH
	DD	FLAT:??0bad_alloc@std@@QAE@ABV01@@Z
xdata$x	ENDS
;	COMDAT ??_R0?AVbad_alloc@std@@@8
data$r	SEGMENT
??_R0?AVbad_alloc@std@@@8 DD FLAT:??_7type_info@@6B@	; std::bad_alloc `RTTI Type Descriptor'
	DD	00H
	DB	'.?AVbad_alloc@std@@', 00H
data$r	ENDS
;	COMDAT __CT??_R0?AVbad_array_new_length@std@@@8??0bad_array_new_length@std@@QAE@ABV01@@Z12
xdata$x	SEGMENT
__CT??_R0?AVbad_array_new_length@std@@@8??0bad_array_new_length@std@@QAE@ABV01@@Z12 DD 00H
	DD	FLAT:??_R0?AVbad_array_new_length@std@@@8
	DD	00H
	DD	0ffffffffH
	ORG $+4
	DD	0cH
	DD	FLAT:??0bad_array_new_length@std@@QAE@ABV01@@Z
xdata$x	ENDS
;	COMDAT ??_R0?AVbad_array_new_length@std@@@8
data$r	SEGMENT
??_R0?AVbad_array_new_length@std@@@8 DD FLAT:??_7type_info@@6B@ ; std::bad_array_new_length `RTTI Type Descriptor'
	DD	00H
	DB	'.?AVbad_array_new_length@std@@', 00H
data$r	ENDS
;	COMDAT __CTA3?AVbad_array_new_length@std@@
xdata$x	SEGMENT
__CTA3?AVbad_array_new_length@std@@ DD 03H
	DD	FLAT:__CT??_R0?AVbad_array_new_length@std@@@8??0bad_array_new_length@std@@QAE@ABV01@@Z12
	DD	FLAT:__CT??_R0?AVbad_alloc@std@@@8??0bad_alloc@std@@QAE@ABV01@@Z12
	DD	FLAT:__CT??_R0?AVexception@std@@@8??0exception@std@@QAE@ABV01@@Z12
xdata$x	ENDS
;	COMDAT __TI3?AVbad_array_new_length@std@@
xdata$x	SEGMENT
__TI3?AVbad_array_new_length@std@@ DD 00H
	DD	FLAT:??1bad_array_new_length@std@@UAE@XZ
	DD	00H
	DD	FLAT:__CTA3?AVbad_array_new_length@std@@
xdata$x	ENDS
;	COMDAT __CT??_R0?AVexception@std@@@8??0exception@std@@QAE@ABV01@@Z12
xdata$x	SEGMENT
__CT??_R0?AVexception@std@@@8??0exception@std@@QAE@ABV01@@Z12 DD 00H
	DD	FLAT:??_R0?AVexception@std@@@8
	DD	00H
	DD	0ffffffffH
	ORG $+4
	DD	0cH
	DD	FLAT:??0exception@std@@QAE@ABV01@@Z
xdata$x	ENDS
;	COMDAT ??_R0?AVexception@std@@@8
data$r	SEGMENT
??_R0?AVexception@std@@@8 DD FLAT:??_7type_info@@6B@	; std::exception `RTTI Type Descriptor'
	DD	00H
	DB	'.?AVexception@std@@', 00H
data$r	ENDS
;	COMDAT ??_C@_0BF@KINCDENJ@bad?5array?5new?5length@
CONST	SEGMENT
??_C@_0BF@KINCDENJ@bad?5array?5new?5length@ DB 'bad array new length', 00H ; `string'
CONST	ENDS
;	COMDAT ??_7bad_array_new_length@std@@6B@
CONST	SEGMENT
??_7bad_array_new_length@std@@6B@ DD FLAT:??_R4bad_array_new_length@std@@6B@ ; std::bad_array_new_length::`vftable'
	DD	FLAT:??_Ebad_array_new_length@std@@UAEPAXI@Z
	DD	FLAT:?what@exception@std@@UBEPBDXZ
CONST	ENDS
;	COMDAT ??_7bad_alloc@std@@6B@
CONST	SEGMENT
??_7bad_alloc@std@@6B@ DD FLAT:??_R4bad_alloc@std@@6B@	; std::bad_alloc::`vftable'
	DD	FLAT:??_Ebad_alloc@std@@UAEPAXI@Z
	DD	FLAT:?what@exception@std@@UBEPBDXZ
CONST	ENDS
;	COMDAT ??_C@_0BC@EOODALEL@Unknown?5exception@
CONST	SEGMENT
??_C@_0BC@EOODALEL@Unknown?5exception@ DB 'Unknown exception', 00H ; `string'
CONST	ENDS
;	COMDAT ??_7exception@std@@6B@
CONST	SEGMENT
??_7exception@std@@6B@ DD FLAT:??_R4exception@std@@6B@	; std::exception::`vftable'
	DD	FLAT:??_Eexception@std@@UAEPAXI@Z
	DD	FLAT:?what@exception@std@@UBEPBDXZ
CONST	ENDS
;	COMDAT ??_C@_00CNPNBAHC@@
CONST	SEGMENT
??_C@_00CNPNBAHC@@ DB 00H				; `string'
CONST	ENDS
;	COMDAT xdata$x
xdata$x	SEGMENT
__unwindtable$??$?0ABUpiecewise_construct_t@std@@V?$tuple@$$QAV?$basic_string@DU?$char_traits@D@std@@V?$allocator@D@2@@std@@@1@V?$tuple@$$V@1@@?$_Tree_temp_node@V?$allocator@U?$_Tree_node@U?$pair@$$CBV?$basic_string@DU?$char_traits@D@std@@V?$allocator@D@2@@std@@H@std@@PAX@std@@@std@@@std@@QAE@AAV?$allocator@U?$_Tree_node@U?$pair@$$CBV?$basic_string@DU?$char_traits@D@std@@V?$allocator@D@2@@std@@H@std@@PAX@std@@@1@PAU?$_Tree_node@U?$pair@$$CBV?$basic_string@DU?$char_traits@D@std@@V?$allocator@D@2@@std@@H@std@@PAX@1@ABUpiecewise_construct_t@1@$$QAV?$tuple@$$QAV?$basic_string@DU?$char_traits@D@std@@V?$allocator@D@2@@std@@@1@$$QAV?$tuple@$$V@1@@Z DD 0ffffffffH
	DD	FLAT:__unwindfunclet$??$?0ABUpiecewise_construct_t@std@@V?$tuple@$$QAV?$basic_string@DU?$char_traits@D@std@@V?$allocator@D@2@@std@@@1@V?$tuple@$$V@1@@?$_Tree_temp_node@V?$allocator@U?$_Tree_node@U?$pair@$$CBV?$basic_string@DU?$char_traits@D@std@@V?$allocator@D@2@@std@@H@std@@PAX@std@@@std@@@std@@QAE@AAV?$allocator@U?$_Tree_node@U?$pair@$$CBV?$basic_string@DU?$char_traits@D@std@@V?$allocator@D@2@@std@@H@std@@PAX@std@@@1@PAU?$_Tree_node@U?$pair@$$CBV?$basic_string@DU?$char_traits@D@std@@V?$allocator@D@2@@std@@H@std@@PAX@1@ABUpiecewise_construct_t@1@$$QAV?$tuple@$$QAV?$basic_string@DU?$char_traits@D@std@@V?$allocator@D@2@@std@@@1@$$QAV?$tuple@$$V@1@@Z$1
__ehfuncinfo$??$?0ABUpiecewise_construct_t@std@@V?$tuple@$$QAV?$basic_string@DU?$char_traits@D@std@@V?$allocator@D@2@@std@@@1@V?$tuple@$$V@1@@?$_Tree_temp_node@V?$allocator@U?$_Tree_node@U?$pair@$$CBV?$basic_string@DU?$char_traits@D@std@@V?$allocator@D@2@@std@@H@std@@PAX@std@@@std@@@std@@QAE@AAV?$allocator@U?$_Tree_node@U?$pair@$$CBV?$basic_string@DU?$char_traits@D@std@@V?$allocator@D@2@@std@@H@std@@PAX@std@@@1@PAU?$_Tree_node@U?$pair@$$CBV?$basic_string@DU?$char_traits@D@std@@V?$allocator@D@2@@std@@H@std@@PAX@1@ABUpiecewise_construct_t@1@$$QAV?$tuple@$$QAV?$basic_string@DU?$char_traits@D@std@@V?$allocator@D@2@@std@@@1@$$QAV?$tuple@$$V@1@@Z DD 019930522H
	DD	01H
	DD	FLAT:__unwindtable$??$?0ABUpiecewise_construct_t@std@@V?$tuple@$$QAV?$basic_string@DU?$char_traits@D@std@@V?$allocator@D@2@@std@@@1@V?$tuple@$$V@1@@?$_Tree_temp_node@V?$allocator@U?$_Tree_node@U?$pair@$$CBV?$basic_string@DU?$char_traits@D@std@@V?$allocator@D@2@@std@@H@std@@PAX@std@@@std@@@std@@QAE@AAV?$allocator@U?$_Tree_node@U?$pair@$$CBV?$basic_string@DU?$char_traits@D@std@@V?$allocator@D@2@@std@@H@std@@PAX@std@@@1@PAU?$_Tree_node@U?$pair@$$CBV?$basic_string@DU?$char_traits@D@std@@V?$allocator@D@2@@std@@H@std@@PAX@1@ABUpiecewise_construct_t@1@$$QAV?$tuple@$$QAV?$basic_string@DU?$char_traits@D@std@@V?$allocator@D@2@@std@@@1@$$QAV?$tuple@$$V@1@@Z
	DD	2 DUP(00H)
	DD	2 DUP(00H)
	DD	00H
	DD	01H
xdata$x	ENDS
;	COMDAT xdata$x
xdata$x	SEGMENT
__unwindtable$??0?$_Tree_temp_node_alloc@V?$allocator@U?$_Tree_node@U?$pair@$$CBV?$basic_string@DU?$char_traits@D@std@@V?$allocator@D@2@@std@@H@std@@PAX@std@@@std@@@std@@QAE@AAV?$allocator@U?$_Tree_node@U?$pair@$$CBV?$basic_string@DU?$char_traits@D@std@@V?$allocator@D@2@@std@@H@std@@PAX@std@@@1@@Z DD 0ffffffffH
	DD	FLAT:__unwindfunclet$??0?$_Tree_temp_node_alloc@V?$allocator@U?$_Tree_node@U?$pair@$$CBV?$basic_string@DU?$char_traits@D@std@@V?$allocator@D@2@@std@@H@std@@PAX@std@@@std@@@std@@QAE@AAV?$allocator@U?$_Tree_node@U?$pair@$$CBV?$basic_string@DU?$char_traits@D@std@@V?$allocator@D@2@@std@@H@std@@PAX@std@@@1@@Z$0
__ehfuncinfo$??0?$_Tree_temp_node_alloc@V?$allocator@U?$_Tree_node@U?$pair@$$CBV?$basic_string@DU?$char_traits@D@std@@V?$allocator@D@2@@std@@H@std@@PAX@std@@@std@@@std@@QAE@AAV?$allocator@U?$_Tree_node@U?$pair@$$CBV?$basic_string@DU?$char_traits@D@std@@V?$allocator@D@2@@std@@H@std@@PAX@std@@@1@@Z DD 019930522H
	DD	01H
	DD	FLAT:__unwindtable$??0?$_Tree_temp_node_alloc@V?$allocator@U?$_Tree_node@U?$pair@$$CBV?$basic_string@DU?$char_traits@D@std@@V?$allocator@D@2@@std@@H@std@@PAX@std@@@std@@@std@@QAE@AAV?$allocator@U?$_Tree_node@U?$pair@$$CBV?$basic_string@DU?$char_traits@D@std@@V?$allocator@D@2@@std@@H@std@@PAX@std@@@1@@Z
	DD	2 DUP(00H)
	DD	2 DUP(00H)
	DD	00H
	DD	01H
xdata$x	ENDS
;	COMDAT xdata$x
xdata$x	SEGMENT
__unwindtable$??$_Try_emplace@V?$basic_string@DU?$char_traits@D@std@@V?$allocator@D@2@@std@@$$V@?$map@V?$basic_string@DU?$char_traits@D@std@@V?$allocator@D@2@@std@@HU?$less@V?$basic_string@DU?$char_traits@D@std@@V?$allocator@D@2@@std@@@2@V?$allocator@U?$pair@$$CBV?$basic_string@DU?$char_traits@D@std@@V?$allocator@D@2@@std@@H@std@@@2@@std@@AAE?AU?$pair@PAU?$_Tree_node@U?$pair@$$CBV?$basic_string@DU?$char_traits@D@std@@V?$allocator@D@2@@std@@H@std@@PAX@std@@_N@1@$$QAV?$basic_string@DU?$char_traits@D@std@@V?$allocator@D@2@@1@@Z DD 0ffffffffH
	DD	FLAT:__unwindfunclet$??$_Try_emplace@V?$basic_string@DU?$char_traits@D@std@@V?$allocator@D@2@@std@@$$V@?$map@V?$basic_string@DU?$char_traits@D@std@@V?$allocator@D@2@@std@@HU?$less@V?$basic_string@DU?$char_traits@D@std@@V?$allocator@D@2@@std@@@2@V?$allocator@U?$pair@$$CBV?$basic_string@DU?$char_traits@D@std@@V?$allocator@D@2@@std@@H@std@@@2@@std@@AAE?AU?$pair@PAU?$_Tree_node@U?$pair@$$CBV?$basic_string@DU?$char_traits@D@std@@V?$allocator@D@2@@std@@H@std@@PAX@std@@_N@1@$$QAV?$basic_string@DU?$char_traits@D@std@@V?$allocator@D@2@@1@@Z$2
__ehfuncinfo$??$_Try_emplace@V?$basic_string@DU?$char_traits@D@std@@V?$allocator@D@2@@std@@$$V@?$map@V?$basic_string@DU?$char_traits@D@std@@V?$allocator@D@2@@std@@HU?$less@V?$basic_string@DU?$char_traits@D@std@@V?$allocator@D@2@@std@@@2@V?$allocator@U?$pair@$$CBV?$basic_string@DU?$char_traits@D@std@@V?$allocator@D@2@@std@@H@std@@@2@@std@@AAE?AU?$pair@PAU?$_Tree_node@U?$pair@$$CBV?$basic_string@DU?$char_traits@D@std@@V?$allocator@D@2@@std@@H@std@@PAX@std@@_N@1@$$QAV?$basic_string@DU?$char_traits@D@std@@V?$allocator@D@2@@1@@Z DD 019930522H
	DD	01H
	DD	FLAT:__unwindtable$??$_Try_emplace@V?$basic_string@DU?$char_traits@D@std@@V?$allocator@D@2@@std@@$$V@?$map@V?$basic_string@DU?$char_traits@D@std@@V?$allocator@D@2@@std@@HU?$less@V?$basic_string@DU?$char_traits@D@std@@V?$allocator@D@2@@std@@@2@V?$allocator@U?$pair@$$CBV?$basic_string@DU?$char_traits@D@std@@V?$allocator@D@2@@std@@H@std@@@2@@std@@AAE?AU?$pair@PAU?$_Tree_node@U?$pair@$$CBV?$basic_string@DU?$char_traits@D@std@@V?$allocator@D@2@@std@@H@std@@PAX@std@@_N@1@$$QAV?$basic_string@DU?$char_traits@D@std@@V?$allocator@D@2@@1@@Z
	DD	2 DUP(00H)
	DD	2 DUP(00H)
	DD	00H
	DD	01H
xdata$x	ENDS
;	COMDAT xdata$x
xdata$x	SEGMENT
__ehfuncinfo$?InitAIConst@@YAXXZ DD 019930522H
	DD	01bH
	DD	FLAT:__unwindtable$?InitAIConst@@YAXXZ
	DD	2 DUP(00H)
	DD	2 DUP(00H)
	DD	00H
	DD	01H
__unwindtable$?InitAIConst@@YAXXZ DD 0ffffffffH
	DD	FLAT:__unwindfunclet$?InitAIConst@@YAXXZ$0
	DD	0ffffffffH
	DD	FLAT:__unwindfunclet$?InitAIConst@@YAXXZ$1
	DD	0ffffffffH
	DD	FLAT:__unwindfunclet$?InitAIConst@@YAXXZ$2
	DD	0ffffffffH
	DD	FLAT:__unwindfunclet$?InitAIConst@@YAXXZ$3
	DD	0ffffffffH
	DD	FLAT:__unwindfunclet$?InitAIConst@@YAXXZ$4
	DD	0ffffffffH
	DD	FLAT:__unwindfunclet$?InitAIConst@@YAXXZ$5
	DD	0ffffffffH
	DD	FLAT:__unwindfunclet$?InitAIConst@@YAXXZ$6
	DD	0ffffffffH
	DD	FLAT:__unwindfunclet$?InitAIConst@@YAXXZ$7
	DD	0ffffffffH
	DD	FLAT:__unwindfunclet$?InitAIConst@@YAXXZ$8
	DD	0ffffffffH
	DD	FLAT:__unwindfunclet$?InitAIConst@@YAXXZ$9
	DD	0ffffffffH
	DD	FLAT:__unwindfunclet$?InitAIConst@@YAXXZ$10
	DD	0ffffffffH
	DD	FLAT:__unwindfunclet$?InitAIConst@@YAXXZ$11
	DD	0ffffffffH
	DD	FLAT:__unwindfunclet$?InitAIConst@@YAXXZ$12
	DD	0ffffffffH
	DD	FLAT:__unwindfunclet$?InitAIConst@@YAXXZ$13
	DD	0ffffffffH
	DD	FLAT:__unwindfunclet$?InitAIConst@@YAXXZ$14
	DD	0ffffffffH
	DD	FLAT:__unwindfunclet$?InitAIConst@@YAXXZ$15
	DD	0ffffffffH
	DD	FLAT:__unwindfunclet$?InitAIConst@@YAXXZ$16
	DD	0ffffffffH
	DD	FLAT:__unwindfunclet$?InitAIConst@@YAXXZ$17
	DD	0ffffffffH
	DD	FLAT:__unwindfunclet$?InitAIConst@@YAXXZ$18
	DD	0ffffffffH
	DD	FLAT:__unwindfunclet$?InitAIConst@@YAXXZ$19
	DD	0ffffffffH
	DD	FLAT:__unwindfunclet$?InitAIConst@@YAXXZ$20
	DD	0ffffffffH
	DD	FLAT:__unwindfunclet$?InitAIConst@@YAXXZ$21
	DD	0ffffffffH
	DD	FLAT:__unwindfunclet$?InitAIConst@@YAXXZ$22
	DD	0ffffffffH
	DD	FLAT:__unwindfunclet$?InitAIConst@@YAXXZ$23
	DD	0ffffffffH
	DD	FLAT:__unwindfunclet$?InitAIConst@@YAXXZ$24
	DD	0ffffffffH
	DD	FLAT:__unwindfunclet$?InitAIConst@@YAXXZ$25
	DD	0ffffffffH
	DD	FLAT:__unwindfunclet$?InitAIConst@@YAXXZ$26
xdata$x	ENDS
;	COMDAT xdata$x
xdata$x	SEGMENT
__unwindtable$?ReadAIScriptHelper@@YAHPAU_iobuf@@@Z DD 0ffffffffH
	DD	FLAT:__unwindfunclet$?ReadAIScriptHelper@@YAHPAU_iobuf@@@Z$0
	DD	00H
	DD	FLAT:__unwindfunclet$?ReadAIScriptHelper@@YAHPAU_iobuf@@@Z$1
__ehfuncinfo$?ReadAIScriptHelper@@YAHPAU_iobuf@@@Z DD 019930522H
	DD	02H
	DD	FLAT:__unwindtable$?ReadAIScriptHelper@@YAHPAU_iobuf@@@Z
	DD	2 DUP(00H)
	DD	2 DUP(00H)
	DD	00H
	DD	01H
xdata$x	ENDS
;	COMDAT xdata$x
xdata$x	SEGMENT
__unwindtable$??A?$map@V?$basic_string@DU?$char_traits@D@std@@V?$allocator@D@2@@std@@HU?$less@V?$basic_string@DU?$char_traits@D@std@@V?$allocator@D@2@@std@@@2@V?$allocator@U?$pair@$$CBV?$basic_string@DU?$char_traits@D@std@@V?$allocator@D@2@@std@@H@std@@@2@@std@@QAEAAH$$QAV?$basic_string@DU?$char_traits@D@std@@V?$allocator@D@2@@1@@Z DD 0ffffffffH
	DD	FLAT:__unwindfunclet$??A?$map@V?$basic_string@DU?$char_traits@D@std@@V?$allocator@D@2@@std@@HU?$less@V?$basic_string@DU?$char_traits@D@std@@V?$allocator@D@2@@std@@@2@V?$allocator@U?$pair@$$CBV?$basic_string@DU?$char_traits@D@std@@V?$allocator@D@2@@std@@H@std@@@2@@std@@QAEAAH$$QAV?$basic_string@DU?$char_traits@D@std@@V?$allocator@D@2@@1@@Z$2
__ehfuncinfo$??A?$map@V?$basic_string@DU?$char_traits@D@std@@V?$allocator@D@2@@std@@HU?$less@V?$basic_string@DU?$char_traits@D@std@@V?$allocator@D@2@@std@@@2@V?$allocator@U?$pair@$$CBV?$basic_string@DU?$char_traits@D@std@@V?$allocator@D@2@@std@@H@std@@@2@@std@@QAEAAH$$QAV?$basic_string@DU?$char_traits@D@std@@V?$allocator@D@2@@1@@Z DD 019930522H
	DD	01H
	DD	FLAT:__unwindtable$??A?$map@V?$basic_string@DU?$char_traits@D@std@@V?$allocator@D@2@@std@@HU?$less@V?$basic_string@DU?$char_traits@D@std@@V?$allocator@D@2@@std@@@2@V?$allocator@U?$pair@$$CBV?$basic_string@DU?$char_traits@D@std@@V?$allocator@D@2@@std@@H@std@@@2@@std@@QAEAAH$$QAV?$basic_string@DU?$char_traits@D@std@@V?$allocator@D@2@@1@@Z
	DD	2 DUP(00H)
	DD	2 DUP(00H)
	DD	00H
	DD	01H
xdata$x	ENDS
; Function compile flags: /Ogtp
; File C:\Program Files\Microsoft Visual Studio\2022\Professional\VC\Tools\MSVC\14.44.35207\include\xmemory
;	COMDAT ??1?$_Alloc_construct_ptr@V?$allocator@U?$_Tree_node@U?$pair@$$CBV?$basic_string@DU?$char_traits@D@std@@V?$allocator@D@2@@std@@H@std@@PAX@std@@@std@@@std@@QAE@XZ
_TEXT	SEGMENT
??1?$_Alloc_construct_ptr@V?$allocator@U?$_Tree_node@U?$pair@$$CBV?$basic_string@DU?$char_traits@D@std@@V?$allocator@D@2@@std@@H@std@@PAX@std@@@std@@@std@@QAE@XZ PROC ; std::_Alloc_construct_ptr<std::allocator<std::_Tree_node<std::pair<std::basic_string<char,std::char_traits<char>,std::allocator<char> > const ,int>,void *> > >::~_Alloc_construct_ptr<std::allocator<std::_Tree_node<std::pair<std::basic_string<char,std::char_traits<char>,std::allocator<char> > const ,int>,void *> > >, COMDAT
; _this$ = ecx

; 1172 :         if (_Ptr) {

  00000	8b 41 04	 mov	 eax, DWORD PTR [ecx+4]
  00003	85 c0		 test	 eax, eax
  00005	74 0b		 je	 SHORT $LN10@Alloc_cons

; 289  :         ::operator delete(_Ptr, _Bytes);

  00007	6a 2c		 push	 44			; 0000002cH
  00009	50		 push	 eax
  0000a	e8 00 00 00 00	 call	 ??3@YAXPAXI@Z		; operator delete
  0000f	83 c4 08	 add	 esp, 8
$LN10@Alloc_cons:

; 1173 :             _Al.deallocate(_Ptr, 1);
; 1174 :         }
; 1175 :     }

  00012	c3		 ret	 0
??1?$_Alloc_construct_ptr@V?$allocator@U?$_Tree_node@U?$pair@$$CBV?$basic_string@DU?$char_traits@D@std@@V?$allocator@D@2@@std@@H@std@@PAX@std@@@std@@@std@@QAE@XZ ENDP ; std::_Alloc_construct_ptr<std::allocator<std::_Tree_node<std::pair<std::basic_string<char,std::char_traits<char>,std::allocator<char> > const ,int>,void *> > >::~_Alloc_construct_ptr<std::allocator<std::_Tree_node<std::pair<std::basic_string<char,std::char_traits<char>,std::allocator<char> > const ,int>,void *> > >
_TEXT	ENDS
; Function compile flags: /Ogtp
; File C:\Program Files\Microsoft Visual Studio\2022\Professional\VC\Tools\MSVC\14.44.35207\include\xtree
; File C:\Program Files\Microsoft Visual Studio\2022\Professional\VC\Tools\MSVC\14.44.35207\include\utility
; File C:\Program Files\Microsoft Visual Studio\2022\Professional\VC\Tools\MSVC\14.44.35207\include\xtree
; File C:\Program Files\Microsoft Visual Studio\2022\Professional\VC\Tools\MSVC\14.44.35207\include\xmemory
; File C:\Program Files\Microsoft Visual Studio\2022\Professional\VC\Tools\MSVC\14.44.35207\include\xtree
; File C:\Program Files\Microsoft Visual Studio\2022\Professional\VC\Tools\MSVC\14.44.35207\include\xmemory
; File C:\Program Files\Microsoft Visual Studio\2022\Professional\VC\Tools\MSVC\14.44.35207\include\xtree
;	COMDAT ??$_Erase_tree@V?$allocator@U?$_Tree_node@U?$pair@$$CBV?$basic_string@DU?$char_traits@D@std@@V?$allocator@D@2@@std@@H@std@@PAX@std@@@std@@@?$_Tree_val@U?$_Tree_simple_types@U?$pair@$$CBV?$basic_string@DU?$char_traits@D@std@@V?$allocator@D@2@@std@@H@std@@@std@@@std@@QAEXAAV?$allocator@U?$_Tree_node@U?$pair@$$CBV?$basic_string@DU?$char_traits@D@std@@V?$allocator@D@2@@std@@H@std@@PAX@std@@@1@PAU?$_Tree_node@U?$pair@$$CBV?$basic_string@DU?$char_traits@D@std@@V?$allocator@D@2@@std@@H@std@@PAX@1@@Z
_TEXT	SEGMENT
_this$1$ = -4						; size = 4
__Al$ = 8						; size = 4
__Rootnode$ = 12					; size = 4
??$_Erase_tree@V?$allocator@U?$_Tree_node@U?$pair@$$CBV?$basic_string@DU?$char_traits@D@std@@V?$allocator@D@2@@std@@H@std@@PAX@std@@@std@@@?$_Tree_val@U?$_Tree_simple_types@U?$pair@$$CBV?$basic_string@DU?$char_traits@D@std@@V?$allocator@D@2@@std@@H@std@@@std@@@std@@QAEXAAV?$allocator@U?$_Tree_node@U?$pair@$$CBV?$basic_string@DU?$char_traits@D@std@@V?$allocator@D@2@@std@@H@std@@PAX@std@@@1@PAU?$_Tree_node@U?$pair@$$CBV?$basic_string@DU?$char_traits@D@std@@V?$allocator@D@2@@std@@H@std@@PAX@1@@Z PROC ; std::_Tree_val<std::_Tree_simple_types<std::pair<std::basic_string<char,std::char_traits<char>,std::allocator<char> > const ,int> > >::_Erase_tree<std::allocator<std::_Tree_node<std::pair<std::basic_string<char,std::char_traits<char>,std::allocator<char> > const ,int>,void *> > >, COMDAT
; _this$ = ecx

; 767  :     void _Erase_tree(_Alnode& _Al, _Nodeptr _Rootnode) noexcept {

  00000	55		 push	 ebp
  00001	8b ec		 mov	 ebp, esp
  00003	51		 push	 ecx
  00004	56		 push	 esi

; 768  :         while (!_Rootnode->_Isnil) { // free subtrees, then node

  00005	8b 75 0c	 mov	 esi, DWORD PTR __Rootnode$[ebp]
  00008	8b c1		 mov	 eax, ecx
  0000a	89 45 fc	 mov	 DWORD PTR _this$1$[ebp], eax
  0000d	80 7e 0d 00	 cmp	 BYTE PTR [esi+13], 0
  00011	75 32		 jne	 SHORT $LN45@Erase_tree
  00013	53		 push	 ebx
  00014	8b 5d 08	 mov	 ebx, DWORD PTR __Al$[ebp]
  00017	57		 push	 edi
$LL2@Erase_tree:

; 769  :             _Erase_tree(_Al, _Rootnode->_Right);

  00018	ff 76 08	 push	 DWORD PTR [esi+8]
  0001b	8b c8		 mov	 ecx, eax
  0001d	53		 push	 ebx
  0001e	e8 00 00 00 00	 call	 ??$_Erase_tree@V?$allocator@U?$_Tree_node@U?$pair@$$CBV?$basic_string@DU?$char_traits@D@std@@V?$allocator@D@2@@std@@H@std@@PAX@std@@@std@@@?$_Tree_val@U?$_Tree_simple_types@U?$pair@$$CBV?$basic_string@DU?$char_traits@D@std@@V?$allocator@D@2@@std@@H@std@@@std@@@std@@QAEXAAV?$allocator@U?$_Tree_node@U?$pair@$$CBV?$basic_string@DU?$char_traits@D@std@@V?$allocator@D@2@@std@@H@std@@PAX@std@@@1@PAU?$_Tree_node@U?$pair@$$CBV?$basic_string@DU?$char_traits@D@std@@V?$allocator@D@2@@std@@H@std@@PAX@1@@Z ; std::_Tree_val<std::_Tree_simple_types<std::pair<std::basic_string<char,std::char_traits<char>,std::allocator<char> > const ,int> > >::_Erase_tree<std::allocator<std::_Tree_node<std::pair<std::basic_string<char,std::char_traits<char>,std::allocator<char> > const ,int>,void *> > >
; File C:\Program Files\Microsoft Visual Studio\2022\Professional\VC\Tools\MSVC\14.44.35207\include\utility

; 773  :     _Ty _Old_val = static_cast<_Ty&&>(_Val);

  00023	8b fe		 mov	 edi, esi

; 774  :     _Val         = static_cast<_Other&&>(_New_val);

  00025	8b 36		 mov	 esi, DWORD PTR [esi]
; File C:\Program Files\Microsoft Visual Studio\2022\Professional\VC\Tools\MSVC\14.44.35207\include\xtree

; 381  :         allocator_traits<_Alloc>::destroy(_Al, _STD addressof(_Ptr->_Myval));

  00027	8d 4f 10	 lea	 ecx, DWORD PTR [edi+16]
  0002a	e8 00 00 00 00	 call	 ??1?$basic_string@DU?$char_traits@D@std@@V?$allocator@D@2@@std@@QAE@XZ ; std::basic_string<char,std::char_traits<char>,std::allocator<char> >::~basic_string<char,std::char_traits<char>,std::allocator<char> >
; File C:\Program Files\Microsoft Visual Studio\2022\Professional\VC\Tools\MSVC\14.44.35207\include\xmemory

; 289  :         ::operator delete(_Ptr, _Bytes);

  0002f	6a 2c		 push	 44			; 0000002cH
  00031	57		 push	 edi
  00032	e8 00 00 00 00	 call	 ??3@YAXPAXI@Z		; operator delete
; File C:\Program Files\Microsoft Visual Studio\2022\Professional\VC\Tools\MSVC\14.44.35207\include\xtree

; 768  :         while (!_Rootnode->_Isnil) { // free subtrees, then node

  00037	8b 45 fc	 mov	 eax, DWORD PTR _this$1$[ebp]
; File C:\Program Files\Microsoft Visual Studio\2022\Professional\VC\Tools\MSVC\14.44.35207\include\xmemory

; 289  :         ::operator delete(_Ptr, _Bytes);

  0003a	83 c4 08	 add	 esp, 8
; File C:\Program Files\Microsoft Visual Studio\2022\Professional\VC\Tools\MSVC\14.44.35207\include\xtree

; 768  :         while (!_Rootnode->_Isnil) { // free subtrees, then node

  0003d	80 7e 0d 00	 cmp	 BYTE PTR [esi+13], 0
  00041	74 d5		 je	 SHORT $LL2@Erase_tree
  00043	5f		 pop	 edi
  00044	5b		 pop	 ebx
$LN45@Erase_tree:
  00045	5e		 pop	 esi

; 770  :             _Alnode::value_type::_Freenode(_Al, _STD exchange(_Rootnode, _Rootnode->_Left));
; 771  :         }
; 772  :     }

  00046	8b e5		 mov	 esp, ebp
  00048	5d		 pop	 ebp
  00049	c2 08 00	 ret	 8
??$_Erase_tree@V?$allocator@U?$_Tree_node@U?$pair@$$CBV?$basic_string@DU?$char_traits@D@std@@V?$allocator@D@2@@std@@H@std@@PAX@std@@@std@@@?$_Tree_val@U?$_Tree_simple_types@U?$pair@$$CBV?$basic_string@DU?$char_traits@D@std@@V?$allocator@D@2@@std@@H@std@@@std@@@std@@QAEXAAV?$allocator@U?$_Tree_node@U?$pair@$$CBV?$basic_string@DU?$char_traits@D@std@@V?$allocator@D@2@@std@@H@std@@PAX@std@@@1@PAU?$_Tree_node@U?$pair@$$CBV?$basic_string@DU?$char_traits@D@std@@V?$allocator@D@2@@std@@H@std@@PAX@1@@Z ENDP ; std::_Tree_val<std::_Tree_simple_types<std::pair<std::basic_string<char,std::char_traits<char>,std::allocator<char> > const ,int> > >::_Erase_tree<std::allocator<std::_Tree_node<std::pair<std::basic_string<char,std::char_traits<char>,std::allocator<char> > const ,int>,void *> > >
_TEXT	ENDS
; Function compile flags: /Ogtp
; File C:\Program Files\Microsoft Visual Studio\2022\Professional\VC\Tools\MSVC\14.44.35207\include\xtree
; File C:\Program Files\Microsoft Visual Studio\2022\Professional\VC\Tools\MSVC\14.44.35207\include\type_traits
; File C:\Program Files\Microsoft Visual Studio\2022\Professional\VC\Tools\MSVC\14.44.35207\include\xtree
;	COMDAT ??$_Find_lower_bound@V?$basic_string@DU?$char_traits@D@std@@V?$allocator@D@2@@std@@@?$_Tree@V?$_Tmap_traits@V?$basic_string@DU?$char_traits@D@std@@V?$allocator@D@2@@std@@HU?$less@V?$basic_string@DU?$char_traits@D@std@@V?$allocator@D@2@@std@@@2@V?$allocator@U?$pair@$$CBV?$basic_string@DU?$char_traits@D@std@@V?$allocator@D@2@@std@@H@std@@@2@$0A@@std@@@std@@IBE?AU?$_Tree_find_result@PAU?$_Tree_node@U?$pair@$$CBV?$basic_string@DU?$char_traits@D@std@@V?$allocator@D@2@@std@@H@std@@PAX@std@@@1@ABV?$basic_string@DU?$char_traits@D@std@@V?$allocator@D@2@@1@@Z
_TEXT	SEGMENT
___$ReturnUdt$ = 8					; size = 4
__Keyval$ = 12						; size = 4
??$_Find_lower_bound@V?$basic_string@DU?$char_traits@D@std@@V?$allocator@D@2@@std@@@?$_Tree@V?$_Tmap_traits@V?$basic_string@DU?$char_traits@D@std@@V?$allocator@D@2@@std@@HU?$less@V?$basic_string@DU?$char_traits@D@std@@V?$allocator@D@2@@std@@@2@V?$allocator@U?$pair@$$CBV?$basic_string@DU?$char_traits@D@std@@V?$allocator@D@2@@std@@H@std@@@2@$0A@@std@@@std@@IBE?AU?$_Tree_find_result@PAU?$_Tree_node@U?$pair@$$CBV?$basic_string@DU?$char_traits@D@std@@V?$allocator@D@2@@std@@H@std@@PAX@std@@@1@ABV?$basic_string@DU?$char_traits@D@std@@V?$allocator@D@2@@1@@Z PROC ; std::_Tree<std::_Tmap_traits<std::basic_string<char,std::char_traits<char>,std::allocator<char> >,int,std::less<std::basic_string<char,std::char_traits<char>,std::allocator<char> > >,std::allocator<std::pair<std::basic_string<char,std::char_traits<char>,std::allocator<char> > const ,int> >,0> >::_Find_lower_bound<std::basic_string<char,std::char_traits<char>,std::allocator<char> > >, COMDAT
; _this$ = ecx

; 1628 :     _Tree_find_result<_Nodeptr> _Find_lower_bound(const _Keyty& _Keyval) const {

  00000	55		 push	 ebp
  00001	8b ec		 mov	 ebp, esp

; 1629 :         const auto _Scary = _Get_scary();
; 1630 :         _Tree_find_result<_Nodeptr> _Result{{_Scary->_Myhead->_Parent, _Tree_child::_Right}, _Scary->_Myhead};

  00003	8b 01		 mov	 eax, DWORD PTR [ecx]
  00005	56		 push	 esi
  00006	57		 push	 edi
  00007	8b 7d 08	 mov	 edi, DWORD PTR ___$ReturnUdt$[ebp]
  0000a	8b 70 04	 mov	 esi, DWORD PTR [eax+4]
  0000d	89 37		 mov	 DWORD PTR [edi], esi

; 1631 :         _Nodeptr _Trynode = _Result._Location._Parent;
; 1632 :         while (!_Trynode->_Isnil) {

  0000f	80 7e 0d 00	 cmp	 BYTE PTR [esi+13], 0
  00013	c7 47 04 00 00
	00 00		 mov	 DWORD PTR [edi+4], 0
  0001a	89 47 08	 mov	 DWORD PTR [edi+8], eax
  0001d	75 32		 jne	 SHORT $LN13@Find_lower
  0001f	53		 push	 ebx
  00020	8b 5d 0c	 mov	 ebx, DWORD PTR __Keyval$[ebp]
$LL2@Find_lower:

; 1634 :             if (_DEBUG_LT_PRED(_Getcomp(), _Traits::_Kfn(_Trynode->_Myval), _Keyval)) {

  00023	8d 46 10	 lea	 eax, DWORD PTR [esi+16]
  00026	89 37		 mov	 DWORD PTR [edi], esi
; File C:\Program Files\Microsoft Visual Studio\2022\Professional\VC\Tools\MSVC\14.44.35207\include\type_traits

; 2380 :         return _Left < _Right;

  00028	53		 push	 ebx
  00029	50		 push	 eax
  0002a	e8 00 00 00 00	 call	 ??$?MDU?$char_traits@D@std@@V?$allocator@D@1@@std@@YA_NABV?$basic_string@DU?$char_traits@D@std@@V?$allocator@D@2@@0@0@Z ; std::operator<<char,std::char_traits<char>,std::allocator<char> >
  0002f	83 c4 08	 add	 esp, 8
; File C:\Program Files\Microsoft Visual Studio\2022\Professional\VC\Tools\MSVC\14.44.35207\include\xtree

; 1634 :             if (_DEBUG_LT_PRED(_Getcomp(), _Traits::_Kfn(_Trynode->_Myval), _Keyval)) {

  00032	84 c0		 test	 al, al
  00034	74 07		 je	 SHORT $LN4@Find_lower

; 1635 :                 _Result._Location._Child = _Tree_child::_Right;
; 1636 :                 _Trynode                 = _Trynode->_Right;

  00036	8b 76 08	 mov	 esi, DWORD PTR [esi+8]
  00039	33 c0		 xor	 eax, eax

; 1637 :             } else {

  0003b	eb 0a		 jmp	 SHORT $LN5@Find_lower
$LN4@Find_lower:

; 1638 :                 _Result._Location._Child = _Tree_child::_Left;
; 1639 :                 _Result._Bound           = _Trynode;

  0003d	89 77 08	 mov	 DWORD PTR [edi+8], esi

; 1640 :                 _Trynode                 = _Trynode->_Left;

  00040	b8 01 00 00 00	 mov	 eax, 1
  00045	8b 36		 mov	 esi, DWORD PTR [esi]
$LN5@Find_lower:

; 1631 :         _Nodeptr _Trynode = _Result._Location._Parent;
; 1632 :         while (!_Trynode->_Isnil) {

  00047	89 47 04	 mov	 DWORD PTR [edi+4], eax
  0004a	80 7e 0d 00	 cmp	 BYTE PTR [esi+13], 0
  0004e	74 d3		 je	 SHORT $LL2@Find_lower
  00050	5b		 pop	 ebx
$LN13@Find_lower:

; 1641 :             }
; 1642 :         }
; 1643 : 
; 1644 :         return _Result;
; 1645 :     }

  00051	8b c7		 mov	 eax, edi
  00053	5f		 pop	 edi
  00054	5e		 pop	 esi
  00055	5d		 pop	 ebp
  00056	c2 08 00	 ret	 8
??$_Find_lower_bound@V?$basic_string@DU?$char_traits@D@std@@V?$allocator@D@2@@std@@@?$_Tree@V?$_Tmap_traits@V?$basic_string@DU?$char_traits@D@std@@V?$allocator@D@2@@std@@HU?$less@V?$basic_string@DU?$char_traits@D@std@@V?$allocator@D@2@@std@@@2@V?$allocator@U?$pair@$$CBV?$basic_string@DU?$char_traits@D@std@@V?$allocator@D@2@@std@@H@std@@@2@$0A@@std@@@std@@IBE?AU?$_Tree_find_result@PAU?$_Tree_node@U?$pair@$$CBV?$basic_string@DU?$char_traits@D@std@@V?$allocator@D@2@@std@@H@std@@PAX@std@@@1@ABV?$basic_string@DU?$char_traits@D@std@@V?$allocator@D@2@@1@@Z ENDP ; std::_Tree<std::_Tmap_traits<std::basic_string<char,std::char_traits<char>,std::allocator<char> >,int,std::less<std::basic_string<char,std::char_traits<char>,std::allocator<char> > >,std::allocator<std::pair<std::basic_string<char,std::char_traits<char>,std::allocator<char> > const ,int> >,0> >::_Find_lower_bound<std::basic_string<char,std::char_traits<char>,std::allocator<char> > >
_TEXT	ENDS
; Function compile flags: /Ogtp
; File C:\IAGOS\server\v18\Source\Source\_AIInterface\AIMonster2.cpp
;	COMDAT ?LoadAIScript@@YAHXZ
_TEXT	SEGMENT
?LoadAIScript@@YAHXZ PROC				; LoadAIScript, COMDAT

; 195  : #ifdef __INTERNALSERVER
; 196  : 	return ReadAIScript();
; 197  : #else
; 198  : 	return TRUE;

  00000	b8 01 00 00 00	 mov	 eax, 1

; 199  : #endif// __INTERNALSERVER
; 200  : }

  00005	c3		 ret	 0
?LoadAIScript@@YAHXZ ENDP				; LoadAIScript
_TEXT	ENDS
; Function compile flags: /Ogtp
; File C:\IAGOS\server\v18\Source\Source\_AIInterface\AIMonster2.cpp
;	COMDAT ?ReadAIScript@@YAHXZ
_TEXT	SEGMENT
_szMsg$1 = -100						; size = 80
_szMsg$2 = -100						; size = 80
_szFile$ = -20						; size = 16
__$ArrayPad$ = -4					; size = 4
?ReadAIScript@@YAHXZ PROC				; ReadAIScript, COMDAT

; 168  : {

  00000	55		 push	 ebp
  00001	8b ec		 mov	 ebp, esp
  00003	83 ec 64	 sub	 esp, 100		; 00000064H
  00006	a1 00 00 00 00	 mov	 eax, DWORD PTR ___security_cookie
  0000b	33 c5		 xor	 eax, ebp
  0000d	89 45 fc	 mov	 DWORD PTR __$ArrayPad$[ebp], eax
  00010	56		 push	 esi

; 169  : 	InitAIConst();

  00011	e8 00 00 00 00	 call	 ?InitAIConst@@YAXXZ	; InitAIConst

; 170  : 
; 171  : 	const char szFile[] = ".\\AI_Script.txt";

  00016	0f 10 05 00 00
	00 00		 movups	 xmm0, XMMWORD PTR ??_C@_0BA@HKGPNEMO@?4?2AI_Script?4txt@

; 172  : 	FILE *fp = fopen( szFile, "rt" );

  0001d	8d 45 ec	 lea	 eax, DWORD PTR _szFile$[ebp]
  00020	68 00 00 00 00	 push	 OFFSET ??_C@_02BMJICGCB@rt@
  00025	50		 push	 eax
  00026	0f 11 45 ec	 movups	 XMMWORD PTR _szFile$[ebp], xmm0
  0002a	e8 00 00 00 00	 call	 _fopen
  0002f	8b f0		 mov	 esi, eax
  00031	83 c4 08	 add	 esp, 8

; 173  : 	if( fp == NULL )

  00034	85 f6		 test	 esi, esi
  00036	75 31		 jne	 SHORT $LN2@ReadAIScri

; 174  : 	{
; 175  : 		char szMsg[80];
; 176  : 		sprintf( szMsg, "%s file not found.", szFile );

  00038	8d 45 ec	 lea	 eax, DWORD PTR _szFile$[ebp]
  0003b	50		 push	 eax
  0003c	8d 45 9c	 lea	 eax, DWORD PTR _szMsg$1[ebp]
  0003f	68 00 00 00 00	 push	 OFFSET ??_C@_0BD@KEMPPPD@?$CFs?5file?5not?5found?4@
  00044	50		 push	 eax
  00045	e8 00 00 00 00	 call	 _sprintf
  0004a	83 c4 0c	 add	 esp, 12			; 0000000cH

; 177  : 		AfxMessageBox( szFile );

  0004d	8d 45 ec	 lea	 eax, DWORD PTR _szFile$[ebp]
  00050	56		 push	 esi
  00051	56		 push	 esi
  00052	50		 push	 eax
  00053	e8 00 00 00 00	 call	 ?AfxMessageBox@@YGHPBDII@Z ; AfxMessageBox

; 178  : 		return FALSE;

  00058	33 c0		 xor	 eax, eax
  0005a	5e		 pop	 esi

; 190  : 	return bResult;
; 191  : }

  0005b	8b 4d fc	 mov	 ecx, DWORD PTR __$ArrayPad$[ebp]
  0005e	33 cd		 xor	 ecx, ebp
  00060	e8 00 00 00 00	 call	 @__security_check_cookie@4
  00065	8b e5		 mov	 esp, ebp
  00067	5d		 pop	 ebp
  00068	c3		 ret	 0
$LN2@ReadAIScri:
  00069	57		 push	 edi

; 179  : 	}
; 180  : 	
; 181  : 	BOOL bResult = ReadAIScriptHelper( fp );

  0006a	56		 push	 esi
  0006b	e8 00 00 00 00	 call	 ?ReadAIScriptHelper@@YAHPAU_iobuf@@@Z ; ReadAIScriptHelper
  00070	8b f8		 mov	 edi, eax
  00072	83 c4 04	 add	 esp, 4

; 182  : 	if( bResult == FALSE )

  00075	85 ff		 test	 edi, edi
  00077	75 20		 jne	 SHORT $LN3@ReadAIScri

; 183  : 	{
; 184  : 		char szMsg[80];
; 185  : 		sprintf( szMsg, "%s file syntax error.", szFile );

  00079	8d 45 ec	 lea	 eax, DWORD PTR _szFile$[ebp]
  0007c	50		 push	 eax
  0007d	8d 45 9c	 lea	 eax, DWORD PTR _szMsg$2[ebp]
  00080	68 00 00 00 00	 push	 OFFSET ??_C@_0BG@JCMJKPND@?$CFs?5file?5syntax?5error?4@
  00085	50		 push	 eax
  00086	e8 00 00 00 00	 call	 _sprintf
  0008b	83 c4 0c	 add	 esp, 12			; 0000000cH

; 186  : 		AfxMessageBox( szFile );

  0008e	8d 45 ec	 lea	 eax, DWORD PTR _szFile$[ebp]
  00091	57		 push	 edi
  00092	57		 push	 edi
  00093	50		 push	 eax
  00094	e8 00 00 00 00	 call	 ?AfxMessageBox@@YGHPBDII@Z ; AfxMessageBox
$LN3@ReadAIScri:

; 187  : 	}
; 188  : 
; 189  : 	fclose( fp );

  00099	56		 push	 esi
  0009a	e8 00 00 00 00	 call	 _fclose

; 190  : 	return bResult;
; 191  : }

  0009f	8b 4d fc	 mov	 ecx, DWORD PTR __$ArrayPad$[ebp]
  000a2	83 c4 04	 add	 esp, 4
  000a5	8b c7		 mov	 eax, edi
  000a7	33 cd		 xor	 ecx, ebp
  000a9	5f		 pop	 edi
  000aa	5e		 pop	 esi
  000ab	e8 00 00 00 00	 call	 @__security_check_cookie@4
  000b0	8b e5		 mov	 esp, ebp
  000b2	5d		 pop	 ebp
  000b3	c3		 ret	 0
?ReadAIScript@@YAHXZ ENDP				; ReadAIScript
_TEXT	ENDS
; Function compile flags: /Ogtp
; File C:\IAGOS\server\v18\Source\Source\_AIInterface\AIMonster2.cpp
; File C:\Program Files\Microsoft Visual Studio\2022\Professional\VC\Tools\MSVC\14.44.35207\include\xstring
; File C:\Program Files\Microsoft Visual Studio\2022\Professional\VC\Tools\MSVC\14.44.35207\include\xmemory
; File C:\Program Files\Microsoft Visual Studio\2022\Professional\VC\Tools\MSVC\14.44.35207\include\xstring
; File C:\Program Files\Microsoft Visual Studio\2022\Professional\VC\Tools\MSVC\14.44.35207\include\xmemory
; File C:\IAGOS\server\v18\Source\Source\_AIInterface\AIMonster2.cpp
; File C:\Program Files\Microsoft Visual Studio\2022\Professional\VC\Tools\MSVC\14.44.35207\include\xstring
; File C:\Program Files\Microsoft Visual Studio\2022\Professional\VC\Tools\MSVC\14.44.35207\include\xmemory
; File C:\Program Files\Microsoft Visual Studio\2022\Professional\VC\Tools\MSVC\14.44.35207\include\xstring
; File C:\Program Files\Microsoft Visual Studio\2022\Professional\VC\Tools\MSVC\14.44.35207\include\xmemory
; File C:\IAGOS\server\v18\Source\Source\_AIInterface\AIMonster2.cpp
; File C:\Program Files\Microsoft Visual Studio\2022\Professional\VC\Tools\MSVC\14.44.35207\include\xstring
; File C:\Program Files\Microsoft Visual Studio\2022\Professional\VC\Tools\MSVC\14.44.35207\include\xmemory
; File C:\Program Files\Microsoft Visual Studio\2022\Professional\VC\Tools\MSVC\14.44.35207\include\xstring
; File C:\Program Files\Microsoft Visual Studio\2022\Professional\VC\Tools\MSVC\14.44.35207\include\xmemory
; File C:\IAGOS\server\v18\Source\Source\_AIInterface\AIMonster2.cpp
; File C:\Program Files\Microsoft Visual Studio\2022\Professional\VC\Tools\MSVC\14.44.35207\include\xstring
; File C:\Program Files\Microsoft Visual Studio\2022\Professional\VC\Tools\MSVC\14.44.35207\include\xmemory
; File C:\Program Files\Microsoft Visual Studio\2022\Professional\VC\Tools\MSVC\14.44.35207\include\xstring
; File C:\Program Files\Microsoft Visual Studio\2022\Professional\VC\Tools\MSVC\14.44.35207\include\xmemory
; File C:\IAGOS\server\v18\Source\Source\_AIInterface\AIMonster2.cpp
; File C:\Program Files\Microsoft Visual Studio\2022\Professional\VC\Tools\MSVC\14.44.35207\include\xstring
; File C:\Program Files\Microsoft Visual Studio\2022\Professional\VC\Tools\MSVC\14.44.35207\include\xmemory
; File C:\Program Files\Microsoft Visual Studio\2022\Professional\VC\Tools\MSVC\14.44.35207\include\xstring
; File C:\Program Files\Microsoft Visual Studio\2022\Professional\VC\Tools\MSVC\14.44.35207\include\xmemory
; File C:\IAGOS\server\v18\Source\Source\_AIInterface\AIMonster2.cpp
; File C:\Program Files\Microsoft Visual Studio\2022\Professional\VC\Tools\MSVC\14.44.35207\include\xstring
; File C:\Program Files\Microsoft Visual Studio\2022\Professional\VC\Tools\MSVC\14.44.35207\include\xmemory
; File C:\Program Files\Microsoft Visual Studio\2022\Professional\VC\Tools\MSVC\14.44.35207\include\xstring
; File C:\Program Files\Microsoft Visual Studio\2022\Professional\VC\Tools\MSVC\14.44.35207\include\xmemory
; File C:\IAGOS\server\v18\Source\Source\_AIInterface\AIMonster2.cpp
; File C:\Program Files\Microsoft Visual Studio\2022\Professional\VC\Tools\MSVC\14.44.35207\include\xstring
; File C:\Program Files\Microsoft Visual Studio\2022\Professional\VC\Tools\MSVC\14.44.35207\include\xmemory
; File C:\Program Files\Microsoft Visual Studio\2022\Professional\VC\Tools\MSVC\14.44.35207\include\xstring
; File C:\Program Files\Microsoft Visual Studio\2022\Professional\VC\Tools\MSVC\14.44.35207\include\xmemory
; File C:\IAGOS\server\v18\Source\Source\_AIInterface\AIMonster2.cpp
; File C:\Program Files\Microsoft Visual Studio\2022\Professional\VC\Tools\MSVC\14.44.35207\include\xstring
; File C:\Program Files\Microsoft Visual Studio\2022\Professional\VC\Tools\MSVC\14.44.35207\include\xmemory
; File C:\Program Files\Microsoft Visual Studio\2022\Professional\VC\Tools\MSVC\14.44.35207\include\xstring
; File C:\Program Files\Microsoft Visual Studio\2022\Professional\VC\Tools\MSVC\14.44.35207\include\xmemory
; File C:\IAGOS\server\v18\Source\Source\_AIInterface\AIMonster2.cpp
; File C:\Program Files\Microsoft Visual Studio\2022\Professional\VC\Tools\MSVC\14.44.35207\include\xstring
; File C:\Program Files\Microsoft Visual Studio\2022\Professional\VC\Tools\MSVC\14.44.35207\include\xmemory
; File C:\Program Files\Microsoft Visual Studio\2022\Professional\VC\Tools\MSVC\14.44.35207\include\xstring
; File C:\Program Files\Microsoft Visual Studio\2022\Professional\VC\Tools\MSVC\14.44.35207\include\xmemory
; File C:\IAGOS\server\v18\Source\Source\_AIInterface\AIMonster2.cpp
; File C:\Program Files\Microsoft Visual Studio\2022\Professional\VC\Tools\MSVC\14.44.35207\include\xstring
; File C:\Program Files\Microsoft Visual Studio\2022\Professional\VC\Tools\MSVC\14.44.35207\include\xmemory
; File C:\Program Files\Microsoft Visual Studio\2022\Professional\VC\Tools\MSVC\14.44.35207\include\xstring
; File C:\Program Files\Microsoft Visual Studio\2022\Professional\VC\Tools\MSVC\14.44.35207\include\xmemory
; File C:\IAGOS\server\v18\Source\Source\_AIInterface\AIMonster2.cpp
; File C:\Program Files\Microsoft Visual Studio\2022\Professional\VC\Tools\MSVC\14.44.35207\include\xstring
; File C:\Program Files\Microsoft Visual Studio\2022\Professional\VC\Tools\MSVC\14.44.35207\include\xmemory
; File C:\Program Files\Microsoft Visual Studio\2022\Professional\VC\Tools\MSVC\14.44.35207\include\xstring
; File C:\Program Files\Microsoft Visual Studio\2022\Professional\VC\Tools\MSVC\14.44.35207\include\xmemory
; File C:\IAGOS\server\v18\Source\Source\_AIInterface\AIMonster2.cpp
; File C:\Program Files\Microsoft Visual Studio\2022\Professional\VC\Tools\MSVC\14.44.35207\include\xstring
; File C:\Program Files\Microsoft Visual Studio\2022\Professional\VC\Tools\MSVC\14.44.35207\include\xmemory
; File C:\Program Files\Microsoft Visual Studio\2022\Professional\VC\Tools\MSVC\14.44.35207\include\xstring
; File C:\Program Files\Microsoft Visual Studio\2022\Professional\VC\Tools\MSVC\14.44.35207\include\xmemory
; File C:\IAGOS\server\v18\Source\Source\_AIInterface\AIMonster2.cpp
; File C:\Program Files\Microsoft Visual Studio\2022\Professional\VC\Tools\MSVC\14.44.35207\include\xstring
; File C:\Program Files\Microsoft Visual Studio\2022\Professional\VC\Tools\MSVC\14.44.35207\include\xmemory
; File C:\Program Files\Microsoft Visual Studio\2022\Professional\VC\Tools\MSVC\14.44.35207\include\xstring
; File C:\Program Files\Microsoft Visual Studio\2022\Professional\VC\Tools\MSVC\14.44.35207\include\xmemory
; File C:\IAGOS\server\v18\Source\Source\_AIInterface\AIMonster2.cpp
; File C:\Program Files\Microsoft Visual Studio\2022\Professional\VC\Tools\MSVC\14.44.35207\include\xstring
; File C:\Program Files\Microsoft Visual Studio\2022\Professional\VC\Tools\MSVC\14.44.35207\include\xmemory
; File C:\Program Files\Microsoft Visual Studio\2022\Professional\VC\Tools\MSVC\14.44.35207\include\xstring
; File C:\Program Files\Microsoft Visual Studio\2022\Professional\VC\Tools\MSVC\14.44.35207\include\xmemory
; File C:\IAGOS\server\v18\Source\Source\_AIInterface\AIMonster2.cpp
; File C:\Program Files\Microsoft Visual Studio\2022\Professional\VC\Tools\MSVC\14.44.35207\include\xstring
; File C:\Program Files\Microsoft Visual Studio\2022\Professional\VC\Tools\MSVC\14.44.35207\include\xmemory
; File C:\Program Files\Microsoft Visual Studio\2022\Professional\VC\Tools\MSVC\14.44.35207\include\xstring
; File C:\Program Files\Microsoft Visual Studio\2022\Professional\VC\Tools\MSVC\14.44.35207\include\xmemory
; File C:\IAGOS\server\v18\Source\Source\_AIInterface\AIMonster2.cpp
; File C:\Program Files\Microsoft Visual Studio\2022\Professional\VC\Tools\MSVC\14.44.35207\include\xstring
; File C:\Program Files\Microsoft Visual Studio\2022\Professional\VC\Tools\MSVC\14.44.35207\include\xmemory
; File C:\Program Files\Microsoft Visual Studio\2022\Professional\VC\Tools\MSVC\14.44.35207\include\xstring
; File C:\Program Files\Microsoft Visual Studio\2022\Professional\VC\Tools\MSVC\14.44.35207\include\xmemory
; File C:\IAGOS\server\v18\Source\Source\_AIInterface\AIMonster2.cpp
; File C:\Program Files\Microsoft Visual Studio\2022\Professional\VC\Tools\MSVC\14.44.35207\include\xstring
; File C:\Program Files\Microsoft Visual Studio\2022\Professional\VC\Tools\MSVC\14.44.35207\include\xmemory
; File C:\Program Files\Microsoft Visual Studio\2022\Professional\VC\Tools\MSVC\14.44.35207\include\xstring
; File C:\Program Files\Microsoft Visual Studio\2022\Professional\VC\Tools\MSVC\14.44.35207\include\xmemory
; File C:\IAGOS\server\v18\Source\Source\_AIInterface\AIMonster2.cpp
; File C:\Program Files\Microsoft Visual Studio\2022\Professional\VC\Tools\MSVC\14.44.35207\include\xstring
; File C:\Program Files\Microsoft Visual Studio\2022\Professional\VC\Tools\MSVC\14.44.35207\include\xmemory
; File C:\Program Files\Microsoft Visual Studio\2022\Professional\VC\Tools\MSVC\14.44.35207\include\xstring
; File C:\Program Files\Microsoft Visual Studio\2022\Professional\VC\Tools\MSVC\14.44.35207\include\xmemory
; File C:\IAGOS\server\v18\Source\Source\_AIInterface\AIMonster2.cpp
; File C:\Program Files\Microsoft Visual Studio\2022\Professional\VC\Tools\MSVC\14.44.35207\include\xstring
; File C:\Program Files\Microsoft Visual Studio\2022\Professional\VC\Tools\MSVC\14.44.35207\include\xmemory
; File C:\Program Files\Microsoft Visual Studio\2022\Professional\VC\Tools\MSVC\14.44.35207\include\xstring
; File C:\Program Files\Microsoft Visual Studio\2022\Professional\VC\Tools\MSVC\14.44.35207\include\xmemory
; File C:\IAGOS\server\v18\Source\Source\_AIInterface\AIMonster2.cpp
; File C:\Program Files\Microsoft Visual Studio\2022\Professional\VC\Tools\MSVC\14.44.35207\include\xstring
; File C:\Program Files\Microsoft Visual Studio\2022\Professional\VC\Tools\MSVC\14.44.35207\include\xmemory
; File C:\Program Files\Microsoft Visual Studio\2022\Professional\VC\Tools\MSVC\14.44.35207\include\xstring
; File C:\Program Files\Microsoft Visual Studio\2022\Professional\VC\Tools\MSVC\14.44.35207\include\xmemory
; File C:\IAGOS\server\v18\Source\Source\_AIInterface\AIMonster2.cpp
; File C:\Program Files\Microsoft Visual Studio\2022\Professional\VC\Tools\MSVC\14.44.35207\include\xstring
; File C:\Program Files\Microsoft Visual Studio\2022\Professional\VC\Tools\MSVC\14.44.35207\include\xmemory
; File C:\Program Files\Microsoft Visual Studio\2022\Professional\VC\Tools\MSVC\14.44.35207\include\xstring
; File C:\Program Files\Microsoft Visual Studio\2022\Professional\VC\Tools\MSVC\14.44.35207\include\xmemory
; File C:\IAGOS\server\v18\Source\Source\_AIInterface\AIMonster2.cpp
; File C:\Program Files\Microsoft Visual Studio\2022\Professional\VC\Tools\MSVC\14.44.35207\include\xstring
; File C:\Program Files\Microsoft Visual Studio\2022\Professional\VC\Tools\MSVC\14.44.35207\include\xmemory
; File C:\Program Files\Microsoft Visual Studio\2022\Professional\VC\Tools\MSVC\14.44.35207\include\xstring
; File C:\Program Files\Microsoft Visual Studio\2022\Professional\VC\Tools\MSVC\14.44.35207\include\xmemory
; File C:\IAGOS\server\v18\Source\Source\_AIInterface\AIMonster2.cpp
; File C:\Program Files\Microsoft Visual Studio\2022\Professional\VC\Tools\MSVC\14.44.35207\include\xstring
; File C:\Program Files\Microsoft Visual Studio\2022\Professional\VC\Tools\MSVC\14.44.35207\include\xmemory
; File C:\Program Files\Microsoft Visual Studio\2022\Professional\VC\Tools\MSVC\14.44.35207\include\xstring
; File C:\Program Files\Microsoft Visual Studio\2022\Professional\VC\Tools\MSVC\14.44.35207\include\xmemory
; File C:\IAGOS\server\v18\Source\Source\_AIInterface\AIMonster2.cpp
; File C:\Program Files\Microsoft Visual Studio\2022\Professional\VC\Tools\MSVC\14.44.35207\include\xstring
; File C:\Program Files\Microsoft Visual Studio\2022\Professional\VC\Tools\MSVC\14.44.35207\include\xmemory
; File C:\Program Files\Microsoft Visual Studio\2022\Professional\VC\Tools\MSVC\14.44.35207\include\xstring
; File C:\Program Files\Microsoft Visual Studio\2022\Professional\VC\Tools\MSVC\14.44.35207\include\xmemory
; File C:\IAGOS\server\v18\Source\Source\_AIInterface\AIMonster2.cpp
; File C:\Program Files\Microsoft Visual Studio\2022\Professional\VC\Tools\MSVC\14.44.35207\include\xstring
; File C:\Program Files\Microsoft Visual Studio\2022\Professional\VC\Tools\MSVC\14.44.35207\include\xmemory
; File C:\Program Files\Microsoft Visual Studio\2022\Professional\VC\Tools\MSVC\14.44.35207\include\xstring
; File C:\Program Files\Microsoft Visual Studio\2022\Professional\VC\Tools\MSVC\14.44.35207\include\xmemory
; File C:\IAGOS\server\v18\Source\Source\_AIInterface\AIMonster2.cpp
; File C:\Program Files\Microsoft Visual Studio\2022\Professional\VC\Tools\MSVC\14.44.35207\include\xstring
; File C:\Program Files\Microsoft Visual Studio\2022\Professional\VC\Tools\MSVC\14.44.35207\include\xmemory
; File C:\Program Files\Microsoft Visual Studio\2022\Professional\VC\Tools\MSVC\14.44.35207\include\xstring
; File C:\Program Files\Microsoft Visual Studio\2022\Professional\VC\Tools\MSVC\14.44.35207\include\xmemory
; File C:\IAGOS\server\v18\Source\Source\_AIInterface\AIMonster2.cpp
; File C:\Program Files\Microsoft Visual Studio\2022\Professional\VC\Tools\MSVC\14.44.35207\include\xstring
; File C:\Program Files\Microsoft Visual Studio\2022\Professional\VC\Tools\MSVC\14.44.35207\include\xmemory
; File C:\Program Files\Microsoft Visual Studio\2022\Professional\VC\Tools\MSVC\14.44.35207\include\xstring
; File C:\Program Files\Microsoft Visual Studio\2022\Professional\VC\Tools\MSVC\14.44.35207\include\xmemory
; File C:\IAGOS\server\v18\Source\Source\_AIInterface\AIMonster2.cpp
; File C:\Program Files\Microsoft Visual Studio\2022\Professional\VC\Tools\MSVC\14.44.35207\include\xmemory
; File C:\IAGOS\server\v18\Source\Source\_AIInterface\AIMonster2.cpp
;	COMDAT ?InitAIConst@@YAXXZ
_TEXT	SEGMENT
$T2 = -64						; size = 24
$T3 = -40						; size = 24
$T4 = -40						; size = 24
$T5 = -40						; size = 24
$T6 = -40						; size = 24
$T7 = -40						; size = 24
$T8 = -40						; size = 24
$T9 = -40						; size = 24
$T10 = -40						; size = 24
$T11 = -40						; size = 24
$T12 = -40						; size = 24
$T13 = -40						; size = 24
$T14 = -40						; size = 24
$T15 = -40						; size = 24
$T16 = -40						; size = 24
$T17 = -40						; size = 24
$T18 = -40						; size = 24
$T19 = -40						; size = 24
$T20 = -40						; size = 24
$T21 = -40						; size = 24
$T22 = -40						; size = 24
$T23 = -40						; size = 24
$T24 = -40						; size = 24
$T25 = -40						; size = 24
$T26 = -40						; size = 24
$T27 = -40						; size = 24
$T28 = -40						; size = 24
__$ArrayPad$ = -16					; size = 4
__$EHRec$ = -12						; size = 12
?InitAIConst@@YAXXZ PROC				; InitAIConst, COMDAT

; 136  : {

  00000	55		 push	 ebp
  00001	8b ec		 mov	 ebp, esp
  00003	6a ff		 push	 -1
  00005	68 00 00 00 00	 push	 __ehhandler$?InitAIConst@@YAXXZ
  0000a	64 a1 00 00 00
	00		 mov	 eax, DWORD PTR fs:0
  00010	50		 push	 eax
  00011	83 ec 34	 sub	 esp, 52			; 00000034H
  00014	a1 00 00 00 00	 mov	 eax, DWORD PTR ___security_cookie
  00019	33 c5		 xor	 eax, ebp
  0001b	89 45 f0	 mov	 DWORD PTR __$ArrayPad$[ebp], eax
  0001e	50		 push	 eax
  0001f	8d 45 f4	 lea	 eax, DWORD PTR __$EHRec$[ebp]
  00022	64 a3 00 00 00
	00		 mov	 DWORD PTR fs:0, eax

; 137  : 	g_stringTable["AI2_IDLE"] = 0;

  00028	68 00 00 00 00	 push	 OFFSET ??_C@_08JBPCBBDM@AI2_IDLE@
  0002d	8d 4d d8	 lea	 ecx, DWORD PTR $T3[ebp]
  00030	e8 00 00 00 00	 call	 ??0?$basic_string@DU?$char_traits@D@std@@V?$allocator@D@2@@std@@QAE@QBD@Z ; std::basic_string<char,std::char_traits<char>,std::allocator<char> >::basic_string<char,std::char_traits<char>,std::allocator<char> >
  00035	8d 45 d8	 lea	 eax, DWORD PTR $T3[ebp]
  00038	c7 45 fc 00 00
	00 00		 mov	 DWORD PTR __$EHRec$[ebp+8], 0
  0003f	50		 push	 eax
  00040	b9 00 00 00 00	 mov	 ecx, OFFSET ?g_stringTable@@3V?$map@V?$basic_string@DU?$char_traits@D@std@@V?$allocator@D@2@@std@@HU?$less@V?$basic_string@DU?$char_traits@D@std@@V?$allocator@D@2@@std@@@2@V?$allocator@U?$pair@$$CBV?$basic_string@DU?$char_traits@D@std@@V?$allocator@D@2@@std@@H@std@@@2@@std@@A
  00045	e8 00 00 00 00	 call	 ??A?$map@V?$basic_string@DU?$char_traits@D@std@@V?$allocator@D@2@@std@@HU?$less@V?$basic_string@DU?$char_traits@D@std@@V?$allocator@D@2@@std@@@2@V?$allocator@U?$pair@$$CBV?$basic_string@DU?$char_traits@D@std@@V?$allocator@D@2@@std@@H@std@@@2@@std@@QAEAAH$$QAV?$basic_string@DU?$char_traits@D@std@@V?$allocator@D@2@@1@@Z ; std::map<std::basic_string<char,std::char_traits<char>,std::allocator<char> >,int,std::less<std::basic_string<char,std::char_traits<char>,std::allocator<char> > >,std::allocator<std::pair<std::basic_string<char,std::char_traits<char>,std::allocator<char> > const ,int> > >::operator[]
  0004a	c7 45 fc ff ff
	ff ff		 mov	 DWORD PTR __$EHRec$[ebp+8], -1
  00051	c7 00 00 00 00
	00		 mov	 DWORD PTR [eax], 0
; File C:\Program Files\Microsoft Visual Studio\2022\Professional\VC\Tools\MSVC\14.44.35207\include\xstring

; 453  :         return _Myres > _Small_string_capacity;

  00057	8b 4d ec	 mov	 ecx, DWORD PTR $T3[ebp+20]
  0005a	83 f9 0f	 cmp	 ecx, 15			; 0000000fH

; 3083 :         if (_My_data._Large_mode_engaged()) {

  0005d	76 2c		 jbe	 SHORT $LN50@InitAICons
; File C:\Program Files\Microsoft Visual Studio\2022\Professional\VC\Tools\MSVC\14.44.35207\include\xmemory

; 985  :         _STD _Deallocate<_New_alignof<_Ty>>(_Ptr, sizeof(_Ty) * _Count);

  0005f	8b 55 d8	 mov	 edx, DWORD PTR $T3[ebp]
; File C:\Program Files\Microsoft Visual Studio\2022\Professional\VC\Tools\MSVC\14.44.35207\include\xstring

; 852  :         _Al.deallocate(_Old_ptr, _Capacity + 1); // +1 for null terminator

  00062	41		 inc	 ecx
; File C:\Program Files\Microsoft Visual Studio\2022\Professional\VC\Tools\MSVC\14.44.35207\include\xmemory

; 985  :         _STD _Deallocate<_New_alignof<_Ty>>(_Ptr, sizeof(_Ty) * _Count);

  00063	8b c2		 mov	 eax, edx

; 284  :         if (_Bytes >= _Big_allocation_threshold) {

  00065	81 f9 00 10 00
	00		 cmp	 ecx, 4096		; 00001000H
  0006b	72 14		 jb	 SHORT $LN55@InitAICons

; 205  :     const uintptr_t _Ptr_container   = _Ptr_user[-1];

  0006d	8b 50 fc	 mov	 edx, DWORD PTR [eax-4]
  00070	83 c1 23	 add	 ecx, 35			; 00000023H
  00073	2b c2		 sub	 eax, edx

; 219  :     _STL_VERIFY(_Back_shift >= _Min_back_shift && _Back_shift <= _Non_user_size, "invalid argument");

  00075	83 c0 fc	 add	 eax, -4			; fffffffcH
  00078	83 f8 1f	 cmp	 eax, 31			; 0000001fH
  0007b	0f 87 2a 0a 00
	00		 ja	 $LN871@InitAICons
$LN55@InitAICons:

; 289  :         ::operator delete(_Ptr, _Bytes);

  00081	51		 push	 ecx
  00082	52		 push	 edx
  00083	e8 00 00 00 00	 call	 ??3@YAXPAXI@Z		; operator delete
  00088	83 c4 08	 add	 esp, 8
$LN50@InitAICons:
; File C:\IAGOS\server\v18\Source\Source\_AIInterface\AIMonster2.cpp

; 138  : 	g_stringTable["AI2_MOVE"] = 1;

  0008b	68 00 00 00 00	 push	 OFFSET ??_C@_08KCMCBGFL@AI2_MOVE@
  00090	8d 4d d8	 lea	 ecx, DWORD PTR $T4[ebp]
  00093	e8 00 00 00 00	 call	 ??0?$basic_string@DU?$char_traits@D@std@@V?$allocator@D@2@@std@@QAE@QBD@Z ; std::basic_string<char,std::char_traits<char>,std::allocator<char> >::basic_string<char,std::char_traits<char>,std::allocator<char> >
  00098	8d 45 d8	 lea	 eax, DWORD PTR $T4[ebp]
  0009b	c7 45 fc 01 00
	00 00		 mov	 DWORD PTR __$EHRec$[ebp+8], 1
  000a2	50		 push	 eax
  000a3	b9 00 00 00 00	 mov	 ecx, OFFSET ?g_stringTable@@3V?$map@V?$basic_string@DU?$char_traits@D@std@@V?$allocator@D@2@@std@@HU?$less@V?$basic_string@DU?$char_traits@D@std@@V?$allocator@D@2@@std@@@2@V?$allocator@U?$pair@$$CBV?$basic_string@DU?$char_traits@D@std@@V?$allocator@D@2@@std@@H@std@@@2@@std@@A
  000a8	e8 00 00 00 00	 call	 ??A?$map@V?$basic_string@DU?$char_traits@D@std@@V?$allocator@D@2@@std@@HU?$less@V?$basic_string@DU?$char_traits@D@std@@V?$allocator@D@2@@std@@@2@V?$allocator@U?$pair@$$CBV?$basic_string@DU?$char_traits@D@std@@V?$allocator@D@2@@std@@H@std@@@2@@std@@QAEAAH$$QAV?$basic_string@DU?$char_traits@D@std@@V?$allocator@D@2@@1@@Z ; std::map<std::basic_string<char,std::char_traits<char>,std::allocator<char> >,int,std::less<std::basic_string<char,std::char_traits<char>,std::allocator<char> > >,std::allocator<std::pair<std::basic_string<char,std::char_traits<char>,std::allocator<char> > const ,int> > >::operator[]
  000ad	c7 45 fc ff ff
	ff ff		 mov	 DWORD PTR __$EHRec$[ebp+8], -1
  000b4	c7 00 01 00 00
	00		 mov	 DWORD PTR [eax], 1
; File C:\Program Files\Microsoft Visual Studio\2022\Professional\VC\Tools\MSVC\14.44.35207\include\xstring

; 453  :         return _Myres > _Small_string_capacity;

  000ba	8b 4d ec	 mov	 ecx, DWORD PTR $T4[ebp+20]
  000bd	83 f9 0f	 cmp	 ecx, 15			; 0000000fH

; 3083 :         if (_My_data._Large_mode_engaged()) {

  000c0	76 2c		 jbe	 SHORT $LN82@InitAICons
; File C:\Program Files\Microsoft Visual Studio\2022\Professional\VC\Tools\MSVC\14.44.35207\include\xmemory

; 985  :         _STD _Deallocate<_New_alignof<_Ty>>(_Ptr, sizeof(_Ty) * _Count);

  000c2	8b 55 d8	 mov	 edx, DWORD PTR $T4[ebp]
; File C:\Program Files\Microsoft Visual Studio\2022\Professional\VC\Tools\MSVC\14.44.35207\include\xstring

; 852  :         _Al.deallocate(_Old_ptr, _Capacity + 1); // +1 for null terminator

  000c5	41		 inc	 ecx
; File C:\Program Files\Microsoft Visual Studio\2022\Professional\VC\Tools\MSVC\14.44.35207\include\xmemory

; 985  :         _STD _Deallocate<_New_alignof<_Ty>>(_Ptr, sizeof(_Ty) * _Count);

  000c6	8b c2		 mov	 eax, edx

; 284  :         if (_Bytes >= _Big_allocation_threshold) {

  000c8	81 f9 00 10 00
	00		 cmp	 ecx, 4096		; 00001000H
  000ce	72 14		 jb	 SHORT $LN87@InitAICons

; 205  :     const uintptr_t _Ptr_container   = _Ptr_user[-1];

  000d0	8b 50 fc	 mov	 edx, DWORD PTR [eax-4]
  000d3	83 c1 23	 add	 ecx, 35			; 00000023H
  000d6	2b c2		 sub	 eax, edx

; 219  :     _STL_VERIFY(_Back_shift >= _Min_back_shift && _Back_shift <= _Non_user_size, "invalid argument");

  000d8	83 c0 fc	 add	 eax, -4			; fffffffcH
  000db	83 f8 1f	 cmp	 eax, 31			; 0000001fH
  000de	0f 87 d6 09 00
	00		 ja	 $LN872@InitAICons
$LN87@InitAICons:

; 289  :         ::operator delete(_Ptr, _Bytes);

  000e4	51		 push	 ecx
  000e5	52		 push	 edx
  000e6	e8 00 00 00 00	 call	 ??3@YAXPAXI@Z		; operator delete
  000eb	83 c4 08	 add	 esp, 8
$LN82@InitAICons:
; File C:\IAGOS\server\v18\Source\Source\_AIInterface\AIMonster2.cpp

; 139  : 	g_stringTable["AI2_RAGE"] = 2;

  000ee	68 00 00 00 00	 push	 OFFSET ??_C@_08LNEJKIHM@AI2_RAGE@
  000f3	8d 4d d8	 lea	 ecx, DWORD PTR $T5[ebp]
  000f6	e8 00 00 00 00	 call	 ??0?$basic_string@DU?$char_traits@D@std@@V?$allocator@D@2@@std@@QAE@QBD@Z ; std::basic_string<char,std::char_traits<char>,std::allocator<char> >::basic_string<char,std::char_traits<char>,std::allocator<char> >
  000fb	8d 45 d8	 lea	 eax, DWORD PTR $T5[ebp]
  000fe	c7 45 fc 02 00
	00 00		 mov	 DWORD PTR __$EHRec$[ebp+8], 2
  00105	50		 push	 eax
  00106	b9 00 00 00 00	 mov	 ecx, OFFSET ?g_stringTable@@3V?$map@V?$basic_string@DU?$char_traits@D@std@@V?$allocator@D@2@@std@@HU?$less@V?$basic_string@DU?$char_traits@D@std@@V?$allocator@D@2@@std@@@2@V?$allocator@U?$pair@$$CBV?$basic_string@DU?$char_traits@D@std@@V?$allocator@D@2@@std@@H@std@@@2@@std@@A
  0010b	e8 00 00 00 00	 call	 ??A?$map@V?$basic_string@DU?$char_traits@D@std@@V?$allocator@D@2@@std@@HU?$less@V?$basic_string@DU?$char_traits@D@std@@V?$allocator@D@2@@std@@@2@V?$allocator@U?$pair@$$CBV?$basic_string@DU?$char_traits@D@std@@V?$allocator@D@2@@std@@H@std@@@2@@std@@QAEAAH$$QAV?$basic_string@DU?$char_traits@D@std@@V?$allocator@D@2@@1@@Z ; std::map<std::basic_string<char,std::char_traits<char>,std::allocator<char> >,int,std::less<std::basic_string<char,std::char_traits<char>,std::allocator<char> > >,std::allocator<std::pair<std::basic_string<char,std::char_traits<char>,std::allocator<char> > const ,int> > >::operator[]
  00110	c7 45 fc ff ff
	ff ff		 mov	 DWORD PTR __$EHRec$[ebp+8], -1
  00117	c7 00 02 00 00
	00		 mov	 DWORD PTR [eax], 2
; File C:\Program Files\Microsoft Visual Studio\2022\Professional\VC\Tools\MSVC\14.44.35207\include\xstring

; 453  :         return _Myres > _Small_string_capacity;

  0011d	8b 4d ec	 mov	 ecx, DWORD PTR $T5[ebp+20]
  00120	83 f9 0f	 cmp	 ecx, 15			; 0000000fH

; 3083 :         if (_My_data._Large_mode_engaged()) {

  00123	76 2c		 jbe	 SHORT $LN113@InitAICons
; File C:\Program Files\Microsoft Visual Studio\2022\Professional\VC\Tools\MSVC\14.44.35207\include\xmemory

; 985  :         _STD _Deallocate<_New_alignof<_Ty>>(_Ptr, sizeof(_Ty) * _Count);

  00125	8b 55 d8	 mov	 edx, DWORD PTR $T5[ebp]
; File C:\Program Files\Microsoft Visual Studio\2022\Professional\VC\Tools\MSVC\14.44.35207\include\xstring

; 852  :         _Al.deallocate(_Old_ptr, _Capacity + 1); // +1 for null terminator

  00128	41		 inc	 ecx
; File C:\Program Files\Microsoft Visual Studio\2022\Professional\VC\Tools\MSVC\14.44.35207\include\xmemory

; 985  :         _STD _Deallocate<_New_alignof<_Ty>>(_Ptr, sizeof(_Ty) * _Count);

  00129	8b c2		 mov	 eax, edx

; 284  :         if (_Bytes >= _Big_allocation_threshold) {

  0012b	81 f9 00 10 00
	00		 cmp	 ecx, 4096		; 00001000H
  00131	72 14		 jb	 SHORT $LN118@InitAICons

; 205  :     const uintptr_t _Ptr_container   = _Ptr_user[-1];

  00133	8b 50 fc	 mov	 edx, DWORD PTR [eax-4]
  00136	83 c1 23	 add	 ecx, 35			; 00000023H
  00139	2b c2		 sub	 eax, edx

; 219  :     _STL_VERIFY(_Back_shift >= _Min_back_shift && _Back_shift <= _Non_user_size, "invalid argument");

  0013b	83 c0 fc	 add	 eax, -4			; fffffffcH
  0013e	83 f8 1f	 cmp	 eax, 31			; 0000001fH
  00141	0f 87 82 09 00
	00		 ja	 $LN873@InitAICons
$LN118@InitAICons:

; 289  :         ::operator delete(_Ptr, _Bytes);

  00147	51		 push	 ecx
  00148	52		 push	 edx
  00149	e8 00 00 00 00	 call	 ??3@YAXPAXI@Z		; operator delete
  0014e	83 c4 08	 add	 esp, 8
$LN113@InitAICons:
; File C:\IAGOS\server\v18\Source\Source\_AIInterface\AIMonster2.cpp

; 140  : 	g_stringTable["AI2_SEARCH"] = 3;

  00151	68 00 00 00 00	 push	 OFFSET ??_C@_0L@GOJDIFNJ@AI2_SEARCH@
  00156	8d 4d d8	 lea	 ecx, DWORD PTR $T6[ebp]
  00159	e8 00 00 00 00	 call	 ??0?$basic_string@DU?$char_traits@D@std@@V?$allocator@D@2@@std@@QAE@QBD@Z ; std::basic_string<char,std::char_traits<char>,std::allocator<char> >::basic_string<char,std::char_traits<char>,std::allocator<char> >
  0015e	8d 45 d8	 lea	 eax, DWORD PTR $T6[ebp]
  00161	c7 45 fc 03 00
	00 00		 mov	 DWORD PTR __$EHRec$[ebp+8], 3
  00168	50		 push	 eax
  00169	b9 00 00 00 00	 mov	 ecx, OFFSET ?g_stringTable@@3V?$map@V?$basic_string@DU?$char_traits@D@std@@V?$allocator@D@2@@std@@HU?$less@V?$basic_string@DU?$char_traits@D@std@@V?$allocator@D@2@@std@@@2@V?$allocator@U?$pair@$$CBV?$basic_string@DU?$char_traits@D@std@@V?$allocator@D@2@@std@@H@std@@@2@@std@@A
  0016e	e8 00 00 00 00	 call	 ??A?$map@V?$basic_string@DU?$char_traits@D@std@@V?$allocator@D@2@@std@@HU?$less@V?$basic_string@DU?$char_traits@D@std@@V?$allocator@D@2@@std@@@2@V?$allocator@U?$pair@$$CBV?$basic_string@DU?$char_traits@D@std@@V?$allocator@D@2@@std@@H@std@@@2@@std@@QAEAAH$$QAV?$basic_string@DU?$char_traits@D@std@@V?$allocator@D@2@@1@@Z ; std::map<std::basic_string<char,std::char_traits<char>,std::allocator<char> >,int,std::less<std::basic_string<char,std::char_traits<char>,std::allocator<char> > >,std::allocator<std::pair<std::basic_string<char,std::char_traits<char>,std::allocator<char> > const ,int> > >::operator[]
  00173	c7 45 fc ff ff
	ff ff		 mov	 DWORD PTR __$EHRec$[ebp+8], -1
  0017a	c7 00 03 00 00
	00		 mov	 DWORD PTR [eax], 3
; File C:\Program Files\Microsoft Visual Studio\2022\Professional\VC\Tools\MSVC\14.44.35207\include\xstring

; 453  :         return _Myres > _Small_string_capacity;

  00180	8b 4d ec	 mov	 ecx, DWORD PTR $T6[ebp+20]
  00183	83 f9 0f	 cmp	 ecx, 15			; 0000000fH

; 3083 :         if (_My_data._Large_mode_engaged()) {

  00186	76 2c		 jbe	 SHORT $LN144@InitAICons
; File C:\Program Files\Microsoft Visual Studio\2022\Professional\VC\Tools\MSVC\14.44.35207\include\xmemory

; 985  :         _STD _Deallocate<_New_alignof<_Ty>>(_Ptr, sizeof(_Ty) * _Count);

  00188	8b 55 d8	 mov	 edx, DWORD PTR $T6[ebp]
; File C:\Program Files\Microsoft Visual Studio\2022\Professional\VC\Tools\MSVC\14.44.35207\include\xstring

; 852  :         _Al.deallocate(_Old_ptr, _Capacity + 1); // +1 for null terminator

  0018b	41		 inc	 ecx
; File C:\Program Files\Microsoft Visual Studio\2022\Professional\VC\Tools\MSVC\14.44.35207\include\xmemory

; 985  :         _STD _Deallocate<_New_alignof<_Ty>>(_Ptr, sizeof(_Ty) * _Count);

  0018c	8b c2		 mov	 eax, edx

; 284  :         if (_Bytes >= _Big_allocation_threshold) {

  0018e	81 f9 00 10 00
	00		 cmp	 ecx, 4096		; 00001000H
  00194	72 14		 jb	 SHORT $LN149@InitAICons

; 205  :     const uintptr_t _Ptr_container   = _Ptr_user[-1];

  00196	8b 50 fc	 mov	 edx, DWORD PTR [eax-4]
  00199	83 c1 23	 add	 ecx, 35			; 00000023H
  0019c	2b c2		 sub	 eax, edx

; 219  :     _STL_VERIFY(_Back_shift >= _Min_back_shift && _Back_shift <= _Non_user_size, "invalid argument");

  0019e	83 c0 fc	 add	 eax, -4			; fffffffcH
  001a1	83 f8 1f	 cmp	 eax, 31			; 0000001fH
  001a4	0f 87 2e 09 00
	00		 ja	 $LN874@InitAICons
$LN149@InitAICons:

; 289  :         ::operator delete(_Ptr, _Bytes);

  001aa	51		 push	 ecx
  001ab	52		 push	 edx
  001ac	e8 00 00 00 00	 call	 ??3@YAXPAXI@Z		; operator delete
  001b1	83 c4 08	 add	 esp, 8
$LN144@InitAICons:
; File C:\IAGOS\server\v18\Source\Source\_AIInterface\AIMonster2.cpp

; 141  : 	g_stringTable["AI2_TRACKING"] = 4;

  001b4	68 00 00 00 00	 push	 OFFSET ??_C@_0N@FKENLGAD@AI2_TRACKING@
  001b9	8d 4d d8	 lea	 ecx, DWORD PTR $T7[ebp]
  001bc	e8 00 00 00 00	 call	 ??0?$basic_string@DU?$char_traits@D@std@@V?$allocator@D@2@@std@@QAE@QBD@Z ; std::basic_string<char,std::char_traits<char>,std::allocator<char> >::basic_string<char,std::char_traits<char>,std::allocator<char> >
  001c1	8d 45 d8	 lea	 eax, DWORD PTR $T7[ebp]
  001c4	c7 45 fc 04 00
	00 00		 mov	 DWORD PTR __$EHRec$[ebp+8], 4
  001cb	50		 push	 eax
  001cc	b9 00 00 00 00	 mov	 ecx, OFFSET ?g_stringTable@@3V?$map@V?$basic_string@DU?$char_traits@D@std@@V?$allocator@D@2@@std@@HU?$less@V?$basic_string@DU?$char_traits@D@std@@V?$allocator@D@2@@std@@@2@V?$allocator@U?$pair@$$CBV?$basic_string@DU?$char_traits@D@std@@V?$allocator@D@2@@std@@H@std@@@2@@std@@A
  001d1	e8 00 00 00 00	 call	 ??A?$map@V?$basic_string@DU?$char_traits@D@std@@V?$allocator@D@2@@std@@HU?$less@V?$basic_string@DU?$char_traits@D@std@@V?$allocator@D@2@@std@@@2@V?$allocator@U?$pair@$$CBV?$basic_string@DU?$char_traits@D@std@@V?$allocator@D@2@@std@@H@std@@@2@@std@@QAEAAH$$QAV?$basic_string@DU?$char_traits@D@std@@V?$allocator@D@2@@1@@Z ; std::map<std::basic_string<char,std::char_traits<char>,std::allocator<char> >,int,std::less<std::basic_string<char,std::char_traits<char>,std::allocator<char> > >,std::allocator<std::pair<std::basic_string<char,std::char_traits<char>,std::allocator<char> > const ,int> > >::operator[]
  001d6	c7 45 fc ff ff
	ff ff		 mov	 DWORD PTR __$EHRec$[ebp+8], -1
  001dd	c7 00 04 00 00
	00		 mov	 DWORD PTR [eax], 4
; File C:\Program Files\Microsoft Visual Studio\2022\Professional\VC\Tools\MSVC\14.44.35207\include\xstring

; 453  :         return _Myres > _Small_string_capacity;

  001e3	8b 4d ec	 mov	 ecx, DWORD PTR $T7[ebp+20]
  001e6	83 f9 0f	 cmp	 ecx, 15			; 0000000fH

; 3083 :         if (_My_data._Large_mode_engaged()) {

  001e9	76 2c		 jbe	 SHORT $LN175@InitAICons
; File C:\Program Files\Microsoft Visual Studio\2022\Professional\VC\Tools\MSVC\14.44.35207\include\xmemory

; 985  :         _STD _Deallocate<_New_alignof<_Ty>>(_Ptr, sizeof(_Ty) * _Count);

  001eb	8b 55 d8	 mov	 edx, DWORD PTR $T7[ebp]
; File C:\Program Files\Microsoft Visual Studio\2022\Professional\VC\Tools\MSVC\14.44.35207\include\xstring

; 852  :         _Al.deallocate(_Old_ptr, _Capacity + 1); // +1 for null terminator

  001ee	41		 inc	 ecx
; File C:\Program Files\Microsoft Visual Studio\2022\Professional\VC\Tools\MSVC\14.44.35207\include\xmemory

; 985  :         _STD _Deallocate<_New_alignof<_Ty>>(_Ptr, sizeof(_Ty) * _Count);

  001ef	8b c2		 mov	 eax, edx

; 284  :         if (_Bytes >= _Big_allocation_threshold) {

  001f1	81 f9 00 10 00
	00		 cmp	 ecx, 4096		; 00001000H
  001f7	72 14		 jb	 SHORT $LN180@InitAICons

; 205  :     const uintptr_t _Ptr_container   = _Ptr_user[-1];

  001f9	8b 50 fc	 mov	 edx, DWORD PTR [eax-4]
  001fc	83 c1 23	 add	 ecx, 35			; 00000023H
  001ff	2b c2		 sub	 eax, edx

; 219  :     _STL_VERIFY(_Back_shift >= _Min_back_shift && _Back_shift <= _Non_user_size, "invalid argument");

  00201	83 c0 fc	 add	 eax, -4			; fffffffcH
  00204	83 f8 1f	 cmp	 eax, 31			; 0000001fH
  00207	0f 87 da 08 00
	00		 ja	 $LN875@InitAICons
$LN180@InitAICons:

; 289  :         ::operator delete(_Ptr, _Bytes);

  0020d	51		 push	 ecx
  0020e	52		 push	 edx
  0020f	e8 00 00 00 00	 call	 ??3@YAXPAXI@Z		; operator delete
  00214	83 c4 08	 add	 esp, 8
$LN175@InitAICons:
; File C:\IAGOS\server\v18\Source\Source\_AIInterface\AIMonster2.cpp

; 142  : 	g_stringTable["AI2_ATTACK"] = 5;

  00217	68 00 00 00 00	 push	 OFFSET ??_C@_0L@JHNJGKEA@AI2_ATTACK@
  0021c	8d 4d d8	 lea	 ecx, DWORD PTR $T8[ebp]
  0021f	e8 00 00 00 00	 call	 ??0?$basic_string@DU?$char_traits@D@std@@V?$allocator@D@2@@std@@QAE@QBD@Z ; std::basic_string<char,std::char_traits<char>,std::allocator<char> >::basic_string<char,std::char_traits<char>,std::allocator<char> >
  00224	8d 45 d8	 lea	 eax, DWORD PTR $T8[ebp]
  00227	c7 45 fc 05 00
	00 00		 mov	 DWORD PTR __$EHRec$[ebp+8], 5
  0022e	50		 push	 eax
  0022f	b9 00 00 00 00	 mov	 ecx, OFFSET ?g_stringTable@@3V?$map@V?$basic_string@DU?$char_traits@D@std@@V?$allocator@D@2@@std@@HU?$less@V?$basic_string@DU?$char_traits@D@std@@V?$allocator@D@2@@std@@@2@V?$allocator@U?$pair@$$CBV?$basic_string@DU?$char_traits@D@std@@V?$allocator@D@2@@std@@H@std@@@2@@std@@A
  00234	e8 00 00 00 00	 call	 ??A?$map@V?$basic_string@DU?$char_traits@D@std@@V?$allocator@D@2@@std@@HU?$less@V?$basic_string@DU?$char_traits@D@std@@V?$allocator@D@2@@std@@@2@V?$allocator@U?$pair@$$CBV?$basic_string@DU?$char_traits@D@std@@V?$allocator@D@2@@std@@H@std@@@2@@std@@QAEAAH$$QAV?$basic_string@DU?$char_traits@D@std@@V?$allocator@D@2@@1@@Z ; std::map<std::basic_string<char,std::char_traits<char>,std::allocator<char> >,int,std::less<std::basic_string<char,std::char_traits<char>,std::allocator<char> > >,std::allocator<std::pair<std::basic_string<char,std::char_traits<char>,std::allocator<char> > const ,int> > >::operator[]
  00239	c7 45 fc ff ff
	ff ff		 mov	 DWORD PTR __$EHRec$[ebp+8], -1
  00240	c7 00 05 00 00
	00		 mov	 DWORD PTR [eax], 5
; File C:\Program Files\Microsoft Visual Studio\2022\Professional\VC\Tools\MSVC\14.44.35207\include\xstring

; 453  :         return _Myres > _Small_string_capacity;

  00246	8b 4d ec	 mov	 ecx, DWORD PTR $T8[ebp+20]
  00249	83 f9 0f	 cmp	 ecx, 15			; 0000000fH

; 3083 :         if (_My_data._Large_mode_engaged()) {

  0024c	76 2c		 jbe	 SHORT $LN206@InitAICons
; File C:\Program Files\Microsoft Visual Studio\2022\Professional\VC\Tools\MSVC\14.44.35207\include\xmemory

; 985  :         _STD _Deallocate<_New_alignof<_Ty>>(_Ptr, sizeof(_Ty) * _Count);

  0024e	8b 55 d8	 mov	 edx, DWORD PTR $T8[ebp]
; File C:\Program Files\Microsoft Visual Studio\2022\Professional\VC\Tools\MSVC\14.44.35207\include\xstring

; 852  :         _Al.deallocate(_Old_ptr, _Capacity + 1); // +1 for null terminator

  00251	41		 inc	 ecx
; File C:\Program Files\Microsoft Visual Studio\2022\Professional\VC\Tools\MSVC\14.44.35207\include\xmemory

; 985  :         _STD _Deallocate<_New_alignof<_Ty>>(_Ptr, sizeof(_Ty) * _Count);

  00252	8b c2		 mov	 eax, edx

; 284  :         if (_Bytes >= _Big_allocation_threshold) {

  00254	81 f9 00 10 00
	00		 cmp	 ecx, 4096		; 00001000H
  0025a	72 14		 jb	 SHORT $LN211@InitAICons

; 205  :     const uintptr_t _Ptr_container   = _Ptr_user[-1];

  0025c	8b 50 fc	 mov	 edx, DWORD PTR [eax-4]
  0025f	83 c1 23	 add	 ecx, 35			; 00000023H
  00262	2b c2		 sub	 eax, edx

; 219  :     _STL_VERIFY(_Back_shift >= _Min_back_shift && _Back_shift <= _Non_user_size, "invalid argument");

  00264	83 c0 fc	 add	 eax, -4			; fffffffcH
  00267	83 f8 1f	 cmp	 eax, 31			; 0000001fH
  0026a	0f 87 86 08 00
	00		 ja	 $LN876@InitAICons
$LN211@InitAICons:

; 289  :         ::operator delete(_Ptr, _Bytes);

  00270	51		 push	 ecx
  00271	52		 push	 edx
  00272	e8 00 00 00 00	 call	 ??3@YAXPAXI@Z		; operator delete
  00277	83 c4 08	 add	 esp, 8
$LN206@InitAICons:
; File C:\IAGOS\server\v18\Source\Source\_AIInterface\AIMonster2.cpp

; 144  : 	g_stringTable["AIMSG_INIT"] = 1;

  0027a	68 00 00 00 00	 push	 OFFSET ??_C@_0L@OGKFHONP@AIMSG_INIT@
  0027f	8d 4d d8	 lea	 ecx, DWORD PTR $T9[ebp]
  00282	e8 00 00 00 00	 call	 ??0?$basic_string@DU?$char_traits@D@std@@V?$allocator@D@2@@std@@QAE@QBD@Z ; std::basic_string<char,std::char_traits<char>,std::allocator<char> >::basic_string<char,std::char_traits<char>,std::allocator<char> >
  00287	8d 45 d8	 lea	 eax, DWORD PTR $T9[ebp]
  0028a	c7 45 fc 06 00
	00 00		 mov	 DWORD PTR __$EHRec$[ebp+8], 6
  00291	50		 push	 eax
  00292	b9 00 00 00 00	 mov	 ecx, OFFSET ?g_stringTable@@3V?$map@V?$basic_string@DU?$char_traits@D@std@@V?$allocator@D@2@@std@@HU?$less@V?$basic_string@DU?$char_traits@D@std@@V?$allocator@D@2@@std@@@2@V?$allocator@U?$pair@$$CBV?$basic_string@DU?$char_traits@D@std@@V?$allocator@D@2@@std@@H@std@@@2@@std@@A
  00297	e8 00 00 00 00	 call	 ??A?$map@V?$basic_string@DU?$char_traits@D@std@@V?$allocator@D@2@@std@@HU?$less@V?$basic_string@DU?$char_traits@D@std@@V?$allocator@D@2@@std@@@2@V?$allocator@U?$pair@$$CBV?$basic_string@DU?$char_traits@D@std@@V?$allocator@D@2@@std@@H@std@@@2@@std@@QAEAAH$$QAV?$basic_string@DU?$char_traits@D@std@@V?$allocator@D@2@@1@@Z ; std::map<std::basic_string<char,std::char_traits<char>,std::allocator<char> >,int,std::less<std::basic_string<char,std::char_traits<char>,std::allocator<char> > >,std::allocator<std::pair<std::basic_string<char,std::char_traits<char>,std::allocator<char> > const ,int> > >::operator[]
  0029c	c7 45 fc ff ff
	ff ff		 mov	 DWORD PTR __$EHRec$[ebp+8], -1
  002a3	c7 00 01 00 00
	00		 mov	 DWORD PTR [eax], 1
; File C:\Program Files\Microsoft Visual Studio\2022\Professional\VC\Tools\MSVC\14.44.35207\include\xstring

; 453  :         return _Myres > _Small_string_capacity;

  002a9	8b 4d ec	 mov	 ecx, DWORD PTR $T9[ebp+20]
  002ac	83 f9 0f	 cmp	 ecx, 15			; 0000000fH

; 3083 :         if (_My_data._Large_mode_engaged()) {

  002af	76 2c		 jbe	 SHORT $LN237@InitAICons
; File C:\Program Files\Microsoft Visual Studio\2022\Professional\VC\Tools\MSVC\14.44.35207\include\xmemory

; 985  :         _STD _Deallocate<_New_alignof<_Ty>>(_Ptr, sizeof(_Ty) * _Count);

  002b1	8b 55 d8	 mov	 edx, DWORD PTR $T9[ebp]
; File C:\Program Files\Microsoft Visual Studio\2022\Professional\VC\Tools\MSVC\14.44.35207\include\xstring

; 852  :         _Al.deallocate(_Old_ptr, _Capacity + 1); // +1 for null terminator

  002b4	41		 inc	 ecx
; File C:\Program Files\Microsoft Visual Studio\2022\Professional\VC\Tools\MSVC\14.44.35207\include\xmemory

; 985  :         _STD _Deallocate<_New_alignof<_Ty>>(_Ptr, sizeof(_Ty) * _Count);

  002b5	8b c2		 mov	 eax, edx

; 284  :         if (_Bytes >= _Big_allocation_threshold) {

  002b7	81 f9 00 10 00
	00		 cmp	 ecx, 4096		; 00001000H
  002bd	72 14		 jb	 SHORT $LN242@InitAICons

; 205  :     const uintptr_t _Ptr_container   = _Ptr_user[-1];

  002bf	8b 50 fc	 mov	 edx, DWORD PTR [eax-4]
  002c2	83 c1 23	 add	 ecx, 35			; 00000023H
  002c5	2b c2		 sub	 eax, edx

; 219  :     _STL_VERIFY(_Back_shift >= _Min_back_shift && _Back_shift <= _Non_user_size, "invalid argument");

  002c7	83 c0 fc	 add	 eax, -4			; fffffffcH
  002ca	83 f8 1f	 cmp	 eax, 31			; 0000001fH
  002cd	0f 87 32 08 00
	00		 ja	 $LN877@InitAICons
$LN242@InitAICons:

; 289  :         ::operator delete(_Ptr, _Bytes);

  002d3	51		 push	 ecx
  002d4	52		 push	 edx
  002d5	e8 00 00 00 00	 call	 ??3@YAXPAXI@Z		; operator delete
  002da	83 c4 08	 add	 esp, 8
$LN237@InitAICons:
; File C:\IAGOS\server\v18\Source\Source\_AIInterface\AIMonster2.cpp

; 145  : 	g_stringTable["AIMSG_PROCESS"] = 2;

  002dd	68 00 00 00 00	 push	 OFFSET ??_C@_0O@FGADDLA@AIMSG_PROCESS@
  002e2	8d 4d d8	 lea	 ecx, DWORD PTR $T10[ebp]
  002e5	e8 00 00 00 00	 call	 ??0?$basic_string@DU?$char_traits@D@std@@V?$allocator@D@2@@std@@QAE@QBD@Z ; std::basic_string<char,std::char_traits<char>,std::allocator<char> >::basic_string<char,std::char_traits<char>,std::allocator<char> >
  002ea	8d 45 d8	 lea	 eax, DWORD PTR $T10[ebp]
  002ed	c7 45 fc 07 00
	00 00		 mov	 DWORD PTR __$EHRec$[ebp+8], 7
  002f4	50		 push	 eax
  002f5	b9 00 00 00 00	 mov	 ecx, OFFSET ?g_stringTable@@3V?$map@V?$basic_string@DU?$char_traits@D@std@@V?$allocator@D@2@@std@@HU?$less@V?$basic_string@DU?$char_traits@D@std@@V?$allocator@D@2@@std@@@2@V?$allocator@U?$pair@$$CBV?$basic_string@DU?$char_traits@D@std@@V?$allocator@D@2@@std@@H@std@@@2@@std@@A
  002fa	e8 00 00 00 00	 call	 ??A?$map@V?$basic_string@DU?$char_traits@D@std@@V?$allocator@D@2@@std@@HU?$less@V?$basic_string@DU?$char_traits@D@std@@V?$allocator@D@2@@std@@@2@V?$allocator@U?$pair@$$CBV?$basic_string@DU?$char_traits@D@std@@V?$allocator@D@2@@std@@H@std@@@2@@std@@QAEAAH$$QAV?$basic_string@DU?$char_traits@D@std@@V?$allocator@D@2@@1@@Z ; std::map<std::basic_string<char,std::char_traits<char>,std::allocator<char> >,int,std::less<std::basic_string<char,std::char_traits<char>,std::allocator<char> > >,std::allocator<std::pair<std::basic_string<char,std::char_traits<char>,std::allocator<char> > const ,int> > >::operator[]
  002ff	c7 45 fc ff ff
	ff ff		 mov	 DWORD PTR __$EHRec$[ebp+8], -1
  00306	c7 00 02 00 00
	00		 mov	 DWORD PTR [eax], 2
; File C:\Program Files\Microsoft Visual Studio\2022\Professional\VC\Tools\MSVC\14.44.35207\include\xstring

; 453  :         return _Myres > _Small_string_capacity;

  0030c	8b 4d ec	 mov	 ecx, DWORD PTR $T10[ebp+20]
  0030f	83 f9 0f	 cmp	 ecx, 15			; 0000000fH

; 3083 :         if (_My_data._Large_mode_engaged()) {

  00312	76 2c		 jbe	 SHORT $LN268@InitAICons
; File C:\Program Files\Microsoft Visual Studio\2022\Professional\VC\Tools\MSVC\14.44.35207\include\xmemory

; 985  :         _STD _Deallocate<_New_alignof<_Ty>>(_Ptr, sizeof(_Ty) * _Count);

  00314	8b 55 d8	 mov	 edx, DWORD PTR $T10[ebp]
; File C:\Program Files\Microsoft Visual Studio\2022\Professional\VC\Tools\MSVC\14.44.35207\include\xstring

; 852  :         _Al.deallocate(_Old_ptr, _Capacity + 1); // +1 for null terminator

  00317	41		 inc	 ecx
; File C:\Program Files\Microsoft Visual Studio\2022\Professional\VC\Tools\MSVC\14.44.35207\include\xmemory

; 985  :         _STD _Deallocate<_New_alignof<_Ty>>(_Ptr, sizeof(_Ty) * _Count);

  00318	8b c2		 mov	 eax, edx

; 284  :         if (_Bytes >= _Big_allocation_threshold) {

  0031a	81 f9 00 10 00
	00		 cmp	 ecx, 4096		; 00001000H
  00320	72 14		 jb	 SHORT $LN273@InitAICons

; 205  :     const uintptr_t _Ptr_container   = _Ptr_user[-1];

  00322	8b 50 fc	 mov	 edx, DWORD PTR [eax-4]
  00325	83 c1 23	 add	 ecx, 35			; 00000023H
  00328	2b c2		 sub	 eax, edx

; 219  :     _STL_VERIFY(_Back_shift >= _Min_back_shift && _Back_shift <= _Non_user_size, "invalid argument");

  0032a	83 c0 fc	 add	 eax, -4			; fffffffcH
  0032d	83 f8 1f	 cmp	 eax, 31			; 0000001fH
  00330	0f 87 de 07 00
	00		 ja	 $LN878@InitAICons
$LN273@InitAICons:

; 289  :         ::operator delete(_Ptr, _Bytes);

  00336	51		 push	 ecx
  00337	52		 push	 edx
  00338	e8 00 00 00 00	 call	 ??3@YAXPAXI@Z		; operator delete
  0033d	83 c4 08	 add	 esp, 8
$LN268@InitAICons:
; File C:\IAGOS\server\v18\Source\Source\_AIInterface\AIMonster2.cpp

; 146  : 	g_stringTable["AIMSG_TIMEOUT"] = 3;

  00340	68 00 00 00 00	 push	 OFFSET ??_C@_0O@CAKKLME@AIMSG_TIMEOUT@
  00345	8d 4d d8	 lea	 ecx, DWORD PTR $T11[ebp]
  00348	e8 00 00 00 00	 call	 ??0?$basic_string@DU?$char_traits@D@std@@V?$allocator@D@2@@std@@QAE@QBD@Z ; std::basic_string<char,std::char_traits<char>,std::allocator<char> >::basic_string<char,std::char_traits<char>,std::allocator<char> >
  0034d	8d 45 d8	 lea	 eax, DWORD PTR $T11[ebp]
  00350	c7 45 fc 08 00
	00 00		 mov	 DWORD PTR __$EHRec$[ebp+8], 8
  00357	50		 push	 eax
  00358	b9 00 00 00 00	 mov	 ecx, OFFSET ?g_stringTable@@3V?$map@V?$basic_string@DU?$char_traits@D@std@@V?$allocator@D@2@@std@@HU?$less@V?$basic_string@DU?$char_traits@D@std@@V?$allocator@D@2@@std@@@2@V?$allocator@U?$pair@$$CBV?$basic_string@DU?$char_traits@D@std@@V?$allocator@D@2@@std@@H@std@@@2@@std@@A
  0035d	e8 00 00 00 00	 call	 ??A?$map@V?$basic_string@DU?$char_traits@D@std@@V?$allocator@D@2@@std@@HU?$less@V?$basic_string@DU?$char_traits@D@std@@V?$allocator@D@2@@std@@@2@V?$allocator@U?$pair@$$CBV?$basic_string@DU?$char_traits@D@std@@V?$allocator@D@2@@std@@H@std@@@2@@std@@QAEAAH$$QAV?$basic_string@DU?$char_traits@D@std@@V?$allocator@D@2@@1@@Z ; std::map<std::basic_string<char,std::char_traits<char>,std::allocator<char> >,int,std::less<std::basic_string<char,std::char_traits<char>,std::allocator<char> > >,std::allocator<std::pair<std::basic_string<char,std::char_traits<char>,std::allocator<char> > const ,int> > >::operator[]
  00362	c7 45 fc ff ff
	ff ff		 mov	 DWORD PTR __$EHRec$[ebp+8], -1
  00369	c7 00 03 00 00
	00		 mov	 DWORD PTR [eax], 3
; File C:\Program Files\Microsoft Visual Studio\2022\Professional\VC\Tools\MSVC\14.44.35207\include\xstring

; 453  :         return _Myres > _Small_string_capacity;

  0036f	8b 4d ec	 mov	 ecx, DWORD PTR $T11[ebp+20]
  00372	83 f9 0f	 cmp	 ecx, 15			; 0000000fH

; 3083 :         if (_My_data._Large_mode_engaged()) {

  00375	76 2c		 jbe	 SHORT $LN299@InitAICons
; File C:\Program Files\Microsoft Visual Studio\2022\Professional\VC\Tools\MSVC\14.44.35207\include\xmemory

; 985  :         _STD _Deallocate<_New_alignof<_Ty>>(_Ptr, sizeof(_Ty) * _Count);

  00377	8b 55 d8	 mov	 edx, DWORD PTR $T11[ebp]
; File C:\Program Files\Microsoft Visual Studio\2022\Professional\VC\Tools\MSVC\14.44.35207\include\xstring

; 852  :         _Al.deallocate(_Old_ptr, _Capacity + 1); // +1 for null terminator

  0037a	41		 inc	 ecx
; File C:\Program Files\Microsoft Visual Studio\2022\Professional\VC\Tools\MSVC\14.44.35207\include\xmemory

; 985  :         _STD _Deallocate<_New_alignof<_Ty>>(_Ptr, sizeof(_Ty) * _Count);

  0037b	8b c2		 mov	 eax, edx

; 284  :         if (_Bytes >= _Big_allocation_threshold) {

  0037d	81 f9 00 10 00
	00		 cmp	 ecx, 4096		; 00001000H
  00383	72 14		 jb	 SHORT $LN304@InitAICons

; 205  :     const uintptr_t _Ptr_container   = _Ptr_user[-1];

  00385	8b 50 fc	 mov	 edx, DWORD PTR [eax-4]
  00388	83 c1 23	 add	 ecx, 35			; 00000023H
  0038b	2b c2		 sub	 eax, edx

; 219  :     _STL_VERIFY(_Back_shift >= _Min_back_shift && _Back_shift <= _Non_user_size, "invalid argument");

  0038d	83 c0 fc	 add	 eax, -4			; fffffffcH
  00390	83 f8 1f	 cmp	 eax, 31			; 0000001fH
  00393	0f 87 8a 07 00
	00		 ja	 $LN879@InitAICons
$LN304@InitAICons:

; 289  :         ::operator delete(_Ptr, _Bytes);

  00399	51		 push	 ecx
  0039a	52		 push	 edx
  0039b	e8 00 00 00 00	 call	 ??3@YAXPAXI@Z		; operator delete
  003a0	83 c4 08	 add	 esp, 8
$LN299@InitAICons:
; File C:\IAGOS\server\v18\Source\Source\_AIInterface\AIMonster2.cpp

; 147  : 	g_stringTable["AIMSG_SETSTATE"] = 4;

  003a3	68 00 00 00 00	 push	 OFFSET ??_C@_0P@MNEJJBAE@AIMSG_SETSTATE@
  003a8	8d 4d d8	 lea	 ecx, DWORD PTR $T12[ebp]
  003ab	e8 00 00 00 00	 call	 ??0?$basic_string@DU?$char_traits@D@std@@V?$allocator@D@2@@std@@QAE@QBD@Z ; std::basic_string<char,std::char_traits<char>,std::allocator<char> >::basic_string<char,std::char_traits<char>,std::allocator<char> >
  003b0	8d 45 d8	 lea	 eax, DWORD PTR $T12[ebp]
  003b3	c7 45 fc 09 00
	00 00		 mov	 DWORD PTR __$EHRec$[ebp+8], 9
  003ba	50		 push	 eax
  003bb	b9 00 00 00 00	 mov	 ecx, OFFSET ?g_stringTable@@3V?$map@V?$basic_string@DU?$char_traits@D@std@@V?$allocator@D@2@@std@@HU?$less@V?$basic_string@DU?$char_traits@D@std@@V?$allocator@D@2@@std@@@2@V?$allocator@U?$pair@$$CBV?$basic_string@DU?$char_traits@D@std@@V?$allocator@D@2@@std@@H@std@@@2@@std@@A
  003c0	e8 00 00 00 00	 call	 ??A?$map@V?$basic_string@DU?$char_traits@D@std@@V?$allocator@D@2@@std@@HU?$less@V?$basic_string@DU?$char_traits@D@std@@V?$allocator@D@2@@std@@@2@V?$allocator@U?$pair@$$CBV?$basic_string@DU?$char_traits@D@std@@V?$allocator@D@2@@std@@H@std@@@2@@std@@QAEAAH$$QAV?$basic_string@DU?$char_traits@D@std@@V?$allocator@D@2@@1@@Z ; std::map<std::basic_string<char,std::char_traits<char>,std::allocator<char> >,int,std::less<std::basic_string<char,std::char_traits<char>,std::allocator<char> > >,std::allocator<std::pair<std::basic_string<char,std::char_traits<char>,std::allocator<char> > const ,int> > >::operator[]
  003c5	c7 45 fc ff ff
	ff ff		 mov	 DWORD PTR __$EHRec$[ebp+8], -1
  003cc	c7 00 04 00 00
	00		 mov	 DWORD PTR [eax], 4
; File C:\Program Files\Microsoft Visual Studio\2022\Professional\VC\Tools\MSVC\14.44.35207\include\xstring

; 453  :         return _Myres > _Small_string_capacity;

  003d2	8b 4d ec	 mov	 ecx, DWORD PTR $T12[ebp+20]
  003d5	83 f9 0f	 cmp	 ecx, 15			; 0000000fH

; 3083 :         if (_My_data._Large_mode_engaged()) {

  003d8	76 2c		 jbe	 SHORT $LN330@InitAICons
; File C:\Program Files\Microsoft Visual Studio\2022\Professional\VC\Tools\MSVC\14.44.35207\include\xmemory

; 985  :         _STD _Deallocate<_New_alignof<_Ty>>(_Ptr, sizeof(_Ty) * _Count);

  003da	8b 55 d8	 mov	 edx, DWORD PTR $T12[ebp]
; File C:\Program Files\Microsoft Visual Studio\2022\Professional\VC\Tools\MSVC\14.44.35207\include\xstring

; 852  :         _Al.deallocate(_Old_ptr, _Capacity + 1); // +1 for null terminator

  003dd	41		 inc	 ecx
; File C:\Program Files\Microsoft Visual Studio\2022\Professional\VC\Tools\MSVC\14.44.35207\include\xmemory

; 985  :         _STD _Deallocate<_New_alignof<_Ty>>(_Ptr, sizeof(_Ty) * _Count);

  003de	8b c2		 mov	 eax, edx

; 284  :         if (_Bytes >= _Big_allocation_threshold) {

  003e0	81 f9 00 10 00
	00		 cmp	 ecx, 4096		; 00001000H
  003e6	72 14		 jb	 SHORT $LN335@InitAICons

; 205  :     const uintptr_t _Ptr_container   = _Ptr_user[-1];

  003e8	8b 50 fc	 mov	 edx, DWORD PTR [eax-4]
  003eb	83 c1 23	 add	 ecx, 35			; 00000023H
  003ee	2b c2		 sub	 eax, edx

; 219  :     _STL_VERIFY(_Back_shift >= _Min_back_shift && _Back_shift <= _Non_user_size, "invalid argument");

  003f0	83 c0 fc	 add	 eax, -4			; fffffffcH
  003f3	83 f8 1f	 cmp	 eax, 31			; 0000001fH
  003f6	0f 87 36 07 00
	00		 ja	 $LN880@InitAICons
$LN335@InitAICons:

; 289  :         ::operator delete(_Ptr, _Bytes);

  003fc	51		 push	 ecx
  003fd	52		 push	 edx
  003fe	e8 00 00 00 00	 call	 ??3@YAXPAXI@Z		; operator delete
  00403	83 c4 08	 add	 esp, 8
$LN330@InitAICons:
; File C:\IAGOS\server\v18\Source\Source\_AIInterface\AIMonster2.cpp

; 148  : 	g_stringTable["AIMSG_SETPROCESS"] = 5;

  00406	68 00 00 00 00	 push	 OFFSET ??_C@_0BB@BJJNCNNK@AIMSG_SETPROCESS@
  0040b	8d 4d d8	 lea	 ecx, DWORD PTR $T13[ebp]
  0040e	e8 00 00 00 00	 call	 ??0?$basic_string@DU?$char_traits@D@std@@V?$allocator@D@2@@std@@QAE@QBD@Z ; std::basic_string<char,std::char_traits<char>,std::allocator<char> >::basic_string<char,std::char_traits<char>,std::allocator<char> >
  00413	8d 45 d8	 lea	 eax, DWORD PTR $T13[ebp]
  00416	c7 45 fc 0a 00
	00 00		 mov	 DWORD PTR __$EHRec$[ebp+8], 10 ; 0000000aH
  0041d	50		 push	 eax
  0041e	b9 00 00 00 00	 mov	 ecx, OFFSET ?g_stringTable@@3V?$map@V?$basic_string@DU?$char_traits@D@std@@V?$allocator@D@2@@std@@HU?$less@V?$basic_string@DU?$char_traits@D@std@@V?$allocator@D@2@@std@@@2@V?$allocator@U?$pair@$$CBV?$basic_string@DU?$char_traits@D@std@@V?$allocator@D@2@@std@@H@std@@@2@@std@@A
  00423	e8 00 00 00 00	 call	 ??A?$map@V?$basic_string@DU?$char_traits@D@std@@V?$allocator@D@2@@std@@HU?$less@V?$basic_string@DU?$char_traits@D@std@@V?$allocator@D@2@@std@@@2@V?$allocator@U?$pair@$$CBV?$basic_string@DU?$char_traits@D@std@@V?$allocator@D@2@@std@@H@std@@@2@@std@@QAEAAH$$QAV?$basic_string@DU?$char_traits@D@std@@V?$allocator@D@2@@1@@Z ; std::map<std::basic_string<char,std::char_traits<char>,std::allocator<char> >,int,std::less<std::basic_string<char,std::char_traits<char>,std::allocator<char> > >,std::allocator<std::pair<std::basic_string<char,std::char_traits<char>,std::allocator<char> > const ,int> > >::operator[]
  00428	c7 45 fc ff ff
	ff ff		 mov	 DWORD PTR __$EHRec$[ebp+8], -1
  0042f	c7 00 05 00 00
	00		 mov	 DWORD PTR [eax], 5
; File C:\Program Files\Microsoft Visual Studio\2022\Professional\VC\Tools\MSVC\14.44.35207\include\xstring

; 453  :         return _Myres > _Small_string_capacity;

  00435	8b 4d ec	 mov	 ecx, DWORD PTR $T13[ebp+20]
  00438	83 f9 0f	 cmp	 ecx, 15			; 0000000fH

; 3083 :         if (_My_data._Large_mode_engaged()) {

  0043b	76 2c		 jbe	 SHORT $LN361@InitAICons
; File C:\Program Files\Microsoft Visual Studio\2022\Professional\VC\Tools\MSVC\14.44.35207\include\xmemory

; 985  :         _STD _Deallocate<_New_alignof<_Ty>>(_Ptr, sizeof(_Ty) * _Count);

  0043d	8b 55 d8	 mov	 edx, DWORD PTR $T13[ebp]
; File C:\Program Files\Microsoft Visual Studio\2022\Professional\VC\Tools\MSVC\14.44.35207\include\xstring

; 852  :         _Al.deallocate(_Old_ptr, _Capacity + 1); // +1 for null terminator

  00440	41		 inc	 ecx
; File C:\Program Files\Microsoft Visual Studio\2022\Professional\VC\Tools\MSVC\14.44.35207\include\xmemory

; 985  :         _STD _Deallocate<_New_alignof<_Ty>>(_Ptr, sizeof(_Ty) * _Count);

  00441	8b c2		 mov	 eax, edx

; 284  :         if (_Bytes >= _Big_allocation_threshold) {

  00443	81 f9 00 10 00
	00		 cmp	 ecx, 4096		; 00001000H
  00449	72 14		 jb	 SHORT $LN366@InitAICons

; 205  :     const uintptr_t _Ptr_container   = _Ptr_user[-1];

  0044b	8b 50 fc	 mov	 edx, DWORD PTR [eax-4]
  0044e	83 c1 23	 add	 ecx, 35			; 00000023H
  00451	2b c2		 sub	 eax, edx

; 219  :     _STL_VERIFY(_Back_shift >= _Min_back_shift && _Back_shift <= _Non_user_size, "invalid argument");

  00453	83 c0 fc	 add	 eax, -4			; fffffffcH
  00456	83 f8 1f	 cmp	 eax, 31			; 0000001fH
  00459	0f 87 e2 06 00
	00		 ja	 $LN881@InitAICons
$LN366@InitAICons:

; 289  :         ::operator delete(_Ptr, _Bytes);

  0045f	51		 push	 ecx
  00460	52		 push	 edx
  00461	e8 00 00 00 00	 call	 ??3@YAXPAXI@Z		; operator delete
  00466	83 c4 08	 add	 esp, 8
$LN361@InitAICons:
; File C:\IAGOS\server\v18\Source\Source\_AIInterface\AIMonster2.cpp

; 149  : 	g_stringTable["AIMSG_DSTDAMAGE"] = 6;

  00469	68 00 00 00 00	 push	 OFFSET ??_C@_0BA@MANHDIAI@AIMSG_DSTDAMAGE@
  0046e	8d 4d d8	 lea	 ecx, DWORD PTR $T14[ebp]
  00471	e8 00 00 00 00	 call	 ??0?$basic_string@DU?$char_traits@D@std@@V?$allocator@D@2@@std@@QAE@QBD@Z ; std::basic_string<char,std::char_traits<char>,std::allocator<char> >::basic_string<char,std::char_traits<char>,std::allocator<char> >
  00476	8d 45 d8	 lea	 eax, DWORD PTR $T14[ebp]
  00479	c7 45 fc 0b 00
	00 00		 mov	 DWORD PTR __$EHRec$[ebp+8], 11 ; 0000000bH
  00480	50		 push	 eax
  00481	b9 00 00 00 00	 mov	 ecx, OFFSET ?g_stringTable@@3V?$map@V?$basic_string@DU?$char_traits@D@std@@V?$allocator@D@2@@std@@HU?$less@V?$basic_string@DU?$char_traits@D@std@@V?$allocator@D@2@@std@@@2@V?$allocator@U?$pair@$$CBV?$basic_string@DU?$char_traits@D@std@@V?$allocator@D@2@@std@@H@std@@@2@@std@@A
  00486	e8 00 00 00 00	 call	 ??A?$map@V?$basic_string@DU?$char_traits@D@std@@V?$allocator@D@2@@std@@HU?$less@V?$basic_string@DU?$char_traits@D@std@@V?$allocator@D@2@@std@@@2@V?$allocator@U?$pair@$$CBV?$basic_string@DU?$char_traits@D@std@@V?$allocator@D@2@@std@@H@std@@@2@@std@@QAEAAH$$QAV?$basic_string@DU?$char_traits@D@std@@V?$allocator@D@2@@1@@Z ; std::map<std::basic_string<char,std::char_traits<char>,std::allocator<char> >,int,std::less<std::basic_string<char,std::char_traits<char>,std::allocator<char> > >,std::allocator<std::pair<std::basic_string<char,std::char_traits<char>,std::allocator<char> > const ,int> > >::operator[]
  0048b	c7 45 fc ff ff
	ff ff		 mov	 DWORD PTR __$EHRec$[ebp+8], -1
  00492	c7 00 06 00 00
	00		 mov	 DWORD PTR [eax], 6
; File C:\Program Files\Microsoft Visual Studio\2022\Professional\VC\Tools\MSVC\14.44.35207\include\xstring

; 453  :         return _Myres > _Small_string_capacity;

  00498	8b 4d ec	 mov	 ecx, DWORD PTR $T14[ebp+20]
  0049b	83 f9 0f	 cmp	 ecx, 15			; 0000000fH

; 3083 :         if (_My_data._Large_mode_engaged()) {

  0049e	76 2c		 jbe	 SHORT $LN392@InitAICons
; File C:\Program Files\Microsoft Visual Studio\2022\Professional\VC\Tools\MSVC\14.44.35207\include\xmemory

; 985  :         _STD _Deallocate<_New_alignof<_Ty>>(_Ptr, sizeof(_Ty) * _Count);

  004a0	8b 55 d8	 mov	 edx, DWORD PTR $T14[ebp]
; File C:\Program Files\Microsoft Visual Studio\2022\Professional\VC\Tools\MSVC\14.44.35207\include\xstring

; 852  :         _Al.deallocate(_Old_ptr, _Capacity + 1); // +1 for null terminator

  004a3	41		 inc	 ecx
; File C:\Program Files\Microsoft Visual Studio\2022\Professional\VC\Tools\MSVC\14.44.35207\include\xmemory

; 985  :         _STD _Deallocate<_New_alignof<_Ty>>(_Ptr, sizeof(_Ty) * _Count);

  004a4	8b c2		 mov	 eax, edx

; 284  :         if (_Bytes >= _Big_allocation_threshold) {

  004a6	81 f9 00 10 00
	00		 cmp	 ecx, 4096		; 00001000H
  004ac	72 14		 jb	 SHORT $LN397@InitAICons

; 205  :     const uintptr_t _Ptr_container   = _Ptr_user[-1];

  004ae	8b 50 fc	 mov	 edx, DWORD PTR [eax-4]
  004b1	83 c1 23	 add	 ecx, 35			; 00000023H
  004b4	2b c2		 sub	 eax, edx

; 219  :     _STL_VERIFY(_Back_shift >= _Min_back_shift && _Back_shift <= _Non_user_size, "invalid argument");

  004b6	83 c0 fc	 add	 eax, -4			; fffffffcH
  004b9	83 f8 1f	 cmp	 eax, 31			; 0000001fH
  004bc	0f 87 8e 06 00
	00		 ja	 $LN882@InitAICons
$LN397@InitAICons:

; 289  :         ::operator delete(_Ptr, _Bytes);

  004c2	51		 push	 ecx
  004c3	52		 push	 edx
  004c4	e8 00 00 00 00	 call	 ??3@YAXPAXI@Z		; operator delete
  004c9	83 c4 08	 add	 esp, 8
$LN392@InitAICons:
; File C:\IAGOS\server\v18\Source\Source\_AIInterface\AIMonster2.cpp

; 150  : 	g_stringTable["AIMSG_DSTDIE"] = 7;

  004cc	68 00 00 00 00	 push	 OFFSET ??_C@_0N@FFKOBKGI@AIMSG_DSTDIE@
  004d1	8d 4d d8	 lea	 ecx, DWORD PTR $T15[ebp]
  004d4	e8 00 00 00 00	 call	 ??0?$basic_string@DU?$char_traits@D@std@@V?$allocator@D@2@@std@@QAE@QBD@Z ; std::basic_string<char,std::char_traits<char>,std::allocator<char> >::basic_string<char,std::char_traits<char>,std::allocator<char> >
  004d9	8d 45 d8	 lea	 eax, DWORD PTR $T15[ebp]
  004dc	c7 45 fc 0c 00
	00 00		 mov	 DWORD PTR __$EHRec$[ebp+8], 12 ; 0000000cH
  004e3	50		 push	 eax
  004e4	b9 00 00 00 00	 mov	 ecx, OFFSET ?g_stringTable@@3V?$map@V?$basic_string@DU?$char_traits@D@std@@V?$allocator@D@2@@std@@HU?$less@V?$basic_string@DU?$char_traits@D@std@@V?$allocator@D@2@@std@@@2@V?$allocator@U?$pair@$$CBV?$basic_string@DU?$char_traits@D@std@@V?$allocator@D@2@@std@@H@std@@@2@@std@@A
  004e9	e8 00 00 00 00	 call	 ??A?$map@V?$basic_string@DU?$char_traits@D@std@@V?$allocator@D@2@@std@@HU?$less@V?$basic_string@DU?$char_traits@D@std@@V?$allocator@D@2@@std@@@2@V?$allocator@U?$pair@$$CBV?$basic_string@DU?$char_traits@D@std@@V?$allocator@D@2@@std@@H@std@@@2@@std@@QAEAAH$$QAV?$basic_string@DU?$char_traits@D@std@@V?$allocator@D@2@@1@@Z ; std::map<std::basic_string<char,std::char_traits<char>,std::allocator<char> >,int,std::less<std::basic_string<char,std::char_traits<char>,std::allocator<char> > >,std::allocator<std::pair<std::basic_string<char,std::char_traits<char>,std::allocator<char> > const ,int> > >::operator[]
  004ee	c7 45 fc ff ff
	ff ff		 mov	 DWORD PTR __$EHRec$[ebp+8], -1
  004f5	c7 00 07 00 00
	00		 mov	 DWORD PTR [eax], 7
; File C:\Program Files\Microsoft Visual Studio\2022\Professional\VC\Tools\MSVC\14.44.35207\include\xstring

; 453  :         return _Myres > _Small_string_capacity;

  004fb	8b 4d ec	 mov	 ecx, DWORD PTR $T15[ebp+20]
  004fe	83 f9 0f	 cmp	 ecx, 15			; 0000000fH

; 3083 :         if (_My_data._Large_mode_engaged()) {

  00501	76 2c		 jbe	 SHORT $LN423@InitAICons
; File C:\Program Files\Microsoft Visual Studio\2022\Professional\VC\Tools\MSVC\14.44.35207\include\xmemory

; 985  :         _STD _Deallocate<_New_alignof<_Ty>>(_Ptr, sizeof(_Ty) * _Count);

  00503	8b 55 d8	 mov	 edx, DWORD PTR $T15[ebp]
; File C:\Program Files\Microsoft Visual Studio\2022\Professional\VC\Tools\MSVC\14.44.35207\include\xstring

; 852  :         _Al.deallocate(_Old_ptr, _Capacity + 1); // +1 for null terminator

  00506	41		 inc	 ecx
; File C:\Program Files\Microsoft Visual Studio\2022\Professional\VC\Tools\MSVC\14.44.35207\include\xmemory

; 985  :         _STD _Deallocate<_New_alignof<_Ty>>(_Ptr, sizeof(_Ty) * _Count);

  00507	8b c2		 mov	 eax, edx

; 284  :         if (_Bytes >= _Big_allocation_threshold) {

  00509	81 f9 00 10 00
	00		 cmp	 ecx, 4096		; 00001000H
  0050f	72 14		 jb	 SHORT $LN428@InitAICons

; 205  :     const uintptr_t _Ptr_container   = _Ptr_user[-1];

  00511	8b 50 fc	 mov	 edx, DWORD PTR [eax-4]
  00514	83 c1 23	 add	 ecx, 35			; 00000023H
  00517	2b c2		 sub	 eax, edx

; 219  :     _STL_VERIFY(_Back_shift >= _Min_back_shift && _Back_shift <= _Non_user_size, "invalid argument");

  00519	83 c0 fc	 add	 eax, -4			; fffffffcH
  0051c	83 f8 1f	 cmp	 eax, 31			; 0000001fH
  0051f	0f 87 3a 06 00
	00		 ja	 $LN883@InitAICons
$LN428@InitAICons:

; 289  :         ::operator delete(_Ptr, _Bytes);

  00525	51		 push	 ecx
  00526	52		 push	 edx
  00527	e8 00 00 00 00	 call	 ??3@YAXPAXI@Z		; operator delete
  0052c	83 c4 08	 add	 esp, 8
$LN423@InitAICons:
; File C:\IAGOS\server\v18\Source\Source\_AIInterface\AIMonster2.cpp

; 151  : 	g_stringTable["AIMSG_DAMAGE"] = 8;

  0052f	68 00 00 00 00	 push	 OFFSET ??_C@_0N@ELAAJBDD@AIMSG_DAMAGE@
  00534	8d 4d d8	 lea	 ecx, DWORD PTR $T16[ebp]
  00537	e8 00 00 00 00	 call	 ??0?$basic_string@DU?$char_traits@D@std@@V?$allocator@D@2@@std@@QAE@QBD@Z ; std::basic_string<char,std::char_traits<char>,std::allocator<char> >::basic_string<char,std::char_traits<char>,std::allocator<char> >
  0053c	8d 45 d8	 lea	 eax, DWORD PTR $T16[ebp]
  0053f	c7 45 fc 0d 00
	00 00		 mov	 DWORD PTR __$EHRec$[ebp+8], 13 ; 0000000dH
  00546	50		 push	 eax
  00547	b9 00 00 00 00	 mov	 ecx, OFFSET ?g_stringTable@@3V?$map@V?$basic_string@DU?$char_traits@D@std@@V?$allocator@D@2@@std@@HU?$less@V?$basic_string@DU?$char_traits@D@std@@V?$allocator@D@2@@std@@@2@V?$allocator@U?$pair@$$CBV?$basic_string@DU?$char_traits@D@std@@V?$allocator@D@2@@std@@H@std@@@2@@std@@A
  0054c	e8 00 00 00 00	 call	 ??A?$map@V?$basic_string@DU?$char_traits@D@std@@V?$allocator@D@2@@std@@HU?$less@V?$basic_string@DU?$char_traits@D@std@@V?$allocator@D@2@@std@@@2@V?$allocator@U?$pair@$$CBV?$basic_string@DU?$char_traits@D@std@@V?$allocator@D@2@@std@@H@std@@@2@@std@@QAEAAH$$QAV?$basic_string@DU?$char_traits@D@std@@V?$allocator@D@2@@1@@Z ; std::map<std::basic_string<char,std::char_traits<char>,std::allocator<char> >,int,std::less<std::basic_string<char,std::char_traits<char>,std::allocator<char> > >,std::allocator<std::pair<std::basic_string<char,std::char_traits<char>,std::allocator<char> > const ,int> > >::operator[]
  00551	c7 45 fc ff ff
	ff ff		 mov	 DWORD PTR __$EHRec$[ebp+8], -1
  00558	c7 00 08 00 00
	00		 mov	 DWORD PTR [eax], 8
; File C:\Program Files\Microsoft Visual Studio\2022\Professional\VC\Tools\MSVC\14.44.35207\include\xstring

; 453  :         return _Myres > _Small_string_capacity;

  0055e	8b 4d ec	 mov	 ecx, DWORD PTR $T16[ebp+20]
  00561	83 f9 0f	 cmp	 ecx, 15			; 0000000fH

; 3083 :         if (_My_data._Large_mode_engaged()) {

  00564	76 2c		 jbe	 SHORT $LN454@InitAICons
; File C:\Program Files\Microsoft Visual Studio\2022\Professional\VC\Tools\MSVC\14.44.35207\include\xmemory

; 985  :         _STD _Deallocate<_New_alignof<_Ty>>(_Ptr, sizeof(_Ty) * _Count);

  00566	8b 55 d8	 mov	 edx, DWORD PTR $T16[ebp]
; File C:\Program Files\Microsoft Visual Studio\2022\Professional\VC\Tools\MSVC\14.44.35207\include\xstring

; 852  :         _Al.deallocate(_Old_ptr, _Capacity + 1); // +1 for null terminator

  00569	41		 inc	 ecx
; File C:\Program Files\Microsoft Visual Studio\2022\Professional\VC\Tools\MSVC\14.44.35207\include\xmemory

; 985  :         _STD _Deallocate<_New_alignof<_Ty>>(_Ptr, sizeof(_Ty) * _Count);

  0056a	8b c2		 mov	 eax, edx

; 284  :         if (_Bytes >= _Big_allocation_threshold) {

  0056c	81 f9 00 10 00
	00		 cmp	 ecx, 4096		; 00001000H
  00572	72 14		 jb	 SHORT $LN459@InitAICons

; 205  :     const uintptr_t _Ptr_container   = _Ptr_user[-1];

  00574	8b 50 fc	 mov	 edx, DWORD PTR [eax-4]
  00577	83 c1 23	 add	 ecx, 35			; 00000023H
  0057a	2b c2		 sub	 eax, edx

; 219  :     _STL_VERIFY(_Back_shift >= _Min_back_shift && _Back_shift <= _Non_user_size, "invalid argument");

  0057c	83 c0 fc	 add	 eax, -4			; fffffffcH
  0057f	83 f8 1f	 cmp	 eax, 31			; 0000001fH
  00582	0f 87 e6 05 00
	00		 ja	 $LN884@InitAICons
$LN459@InitAICons:

; 289  :         ::operator delete(_Ptr, _Bytes);

  00588	51		 push	 ecx
  00589	52		 push	 edx
  0058a	e8 00 00 00 00	 call	 ??3@YAXPAXI@Z		; operator delete
  0058f	83 c4 08	 add	 esp, 8
$LN454@InitAICons:
; File C:\IAGOS\server\v18\Source\Source\_AIInterface\AIMonster2.cpp

; 152  : 	g_stringTable["AIMSG_DIE"] = 9;

  00592	68 00 00 00 00	 push	 OFFSET ??_C@_09PBLEMKPG@AIMSG_DIE@
  00597	8d 4d d8	 lea	 ecx, DWORD PTR $T17[ebp]
  0059a	e8 00 00 00 00	 call	 ??0?$basic_string@DU?$char_traits@D@std@@V?$allocator@D@2@@std@@QAE@QBD@Z ; std::basic_string<char,std::char_traits<char>,std::allocator<char> >::basic_string<char,std::char_traits<char>,std::allocator<char> >
  0059f	8d 45 d8	 lea	 eax, DWORD PTR $T17[ebp]
  005a2	c7 45 fc 0e 00
	00 00		 mov	 DWORD PTR __$EHRec$[ebp+8], 14 ; 0000000eH
  005a9	50		 push	 eax
  005aa	b9 00 00 00 00	 mov	 ecx, OFFSET ?g_stringTable@@3V?$map@V?$basic_string@DU?$char_traits@D@std@@V?$allocator@D@2@@std@@HU?$less@V?$basic_string@DU?$char_traits@D@std@@V?$allocator@D@2@@std@@@2@V?$allocator@U?$pair@$$CBV?$basic_string@DU?$char_traits@D@std@@V?$allocator@D@2@@std@@H@std@@@2@@std@@A
  005af	e8 00 00 00 00	 call	 ??A?$map@V?$basic_string@DU?$char_traits@D@std@@V?$allocator@D@2@@std@@HU?$less@V?$basic_string@DU?$char_traits@D@std@@V?$allocator@D@2@@std@@@2@V?$allocator@U?$pair@$$CBV?$basic_string@DU?$char_traits@D@std@@V?$allocator@D@2@@std@@H@std@@@2@@std@@QAEAAH$$QAV?$basic_string@DU?$char_traits@D@std@@V?$allocator@D@2@@1@@Z ; std::map<std::basic_string<char,std::char_traits<char>,std::allocator<char> >,int,std::less<std::basic_string<char,std::char_traits<char>,std::allocator<char> > >,std::allocator<std::pair<std::basic_string<char,std::char_traits<char>,std::allocator<char> > const ,int> > >::operator[]
  005b4	c7 45 fc ff ff
	ff ff		 mov	 DWORD PTR __$EHRec$[ebp+8], -1
  005bb	c7 00 09 00 00
	00		 mov	 DWORD PTR [eax], 9
; File C:\Program Files\Microsoft Visual Studio\2022\Professional\VC\Tools\MSVC\14.44.35207\include\xstring

; 453  :         return _Myres > _Small_string_capacity;

  005c1	8b 4d ec	 mov	 ecx, DWORD PTR $T17[ebp+20]
  005c4	83 f9 0f	 cmp	 ecx, 15			; 0000000fH

; 3083 :         if (_My_data._Large_mode_engaged()) {

  005c7	76 2c		 jbe	 SHORT $LN485@InitAICons
; File C:\Program Files\Microsoft Visual Studio\2022\Professional\VC\Tools\MSVC\14.44.35207\include\xmemory

; 985  :         _STD _Deallocate<_New_alignof<_Ty>>(_Ptr, sizeof(_Ty) * _Count);

  005c9	8b 55 d8	 mov	 edx, DWORD PTR $T17[ebp]
; File C:\Program Files\Microsoft Visual Studio\2022\Professional\VC\Tools\MSVC\14.44.35207\include\xstring

; 852  :         _Al.deallocate(_Old_ptr, _Capacity + 1); // +1 for null terminator

  005cc	41		 inc	 ecx
; File C:\Program Files\Microsoft Visual Studio\2022\Professional\VC\Tools\MSVC\14.44.35207\include\xmemory

; 985  :         _STD _Deallocate<_New_alignof<_Ty>>(_Ptr, sizeof(_Ty) * _Count);

  005cd	8b c2		 mov	 eax, edx

; 284  :         if (_Bytes >= _Big_allocation_threshold) {

  005cf	81 f9 00 10 00
	00		 cmp	 ecx, 4096		; 00001000H
  005d5	72 14		 jb	 SHORT $LN490@InitAICons

; 205  :     const uintptr_t _Ptr_container   = _Ptr_user[-1];

  005d7	8b 50 fc	 mov	 edx, DWORD PTR [eax-4]
  005da	83 c1 23	 add	 ecx, 35			; 00000023H
  005dd	2b c2		 sub	 eax, edx

; 219  :     _STL_VERIFY(_Back_shift >= _Min_back_shift && _Back_shift <= _Non_user_size, "invalid argument");

  005df	83 c0 fc	 add	 eax, -4			; fffffffcH
  005e2	83 f8 1f	 cmp	 eax, 31			; 0000001fH
  005e5	0f 87 92 05 00
	00		 ja	 $LN885@InitAICons
$LN490@InitAICons:

; 289  :         ::operator delete(_Ptr, _Bytes);

  005eb	51		 push	 ecx
  005ec	52		 push	 edx
  005ed	e8 00 00 00 00	 call	 ??3@YAXPAXI@Z		; operator delete
  005f2	83 c4 08	 add	 esp, 8
$LN485@InitAICons:
; File C:\IAGOS\server\v18\Source\Source\_AIInterface\AIMonster2.cpp

; 153  : 	g_stringTable["AIMSG_COLLISION"] = 10;

  005f5	68 00 00 00 00	 push	 OFFSET ??_C@_0BA@OPJOPNPP@AIMSG_COLLISION@
  005fa	8d 4d d8	 lea	 ecx, DWORD PTR $T18[ebp]
  005fd	e8 00 00 00 00	 call	 ??0?$basic_string@DU?$char_traits@D@std@@V?$allocator@D@2@@std@@QAE@QBD@Z ; std::basic_string<char,std::char_traits<char>,std::allocator<char> >::basic_string<char,std::char_traits<char>,std::allocator<char> >
  00602	8d 45 d8	 lea	 eax, DWORD PTR $T18[ebp]
  00605	c7 45 fc 0f 00
	00 00		 mov	 DWORD PTR __$EHRec$[ebp+8], 15 ; 0000000fH
  0060c	50		 push	 eax
  0060d	b9 00 00 00 00	 mov	 ecx, OFFSET ?g_stringTable@@3V?$map@V?$basic_string@DU?$char_traits@D@std@@V?$allocator@D@2@@std@@HU?$less@V?$basic_string@DU?$char_traits@D@std@@V?$allocator@D@2@@std@@@2@V?$allocator@U?$pair@$$CBV?$basic_string@DU?$char_traits@D@std@@V?$allocator@D@2@@std@@H@std@@@2@@std@@A
  00612	e8 00 00 00 00	 call	 ??A?$map@V?$basic_string@DU?$char_traits@D@std@@V?$allocator@D@2@@std@@HU?$less@V?$basic_string@DU?$char_traits@D@std@@V?$allocator@D@2@@std@@@2@V?$allocator@U?$pair@$$CBV?$basic_string@DU?$char_traits@D@std@@V?$allocator@D@2@@std@@H@std@@@2@@std@@QAEAAH$$QAV?$basic_string@DU?$char_traits@D@std@@V?$allocator@D@2@@1@@Z ; std::map<std::basic_string<char,std::char_traits<char>,std::allocator<char> >,int,std::less<std::basic_string<char,std::char_traits<char>,std::allocator<char> > >,std::allocator<std::pair<std::basic_string<char,std::char_traits<char>,std::allocator<char> > const ,int> > >::operator[]
  00617	c7 45 fc ff ff
	ff ff		 mov	 DWORD PTR __$EHRec$[ebp+8], -1
  0061e	c7 00 0a 00 00
	00		 mov	 DWORD PTR [eax], 10	; 0000000aH
; File C:\Program Files\Microsoft Visual Studio\2022\Professional\VC\Tools\MSVC\14.44.35207\include\xstring

; 453  :         return _Myres > _Small_string_capacity;

  00624	8b 4d ec	 mov	 ecx, DWORD PTR $T18[ebp+20]
  00627	83 f9 0f	 cmp	 ecx, 15			; 0000000fH

; 3083 :         if (_My_data._Large_mode_engaged()) {

  0062a	76 2c		 jbe	 SHORT $LN516@InitAICons
; File C:\Program Files\Microsoft Visual Studio\2022\Professional\VC\Tools\MSVC\14.44.35207\include\xmemory

; 985  :         _STD _Deallocate<_New_alignof<_Ty>>(_Ptr, sizeof(_Ty) * _Count);

  0062c	8b 55 d8	 mov	 edx, DWORD PTR $T18[ebp]
; File C:\Program Files\Microsoft Visual Studio\2022\Professional\VC\Tools\MSVC\14.44.35207\include\xstring

; 852  :         _Al.deallocate(_Old_ptr, _Capacity + 1); // +1 for null terminator

  0062f	41		 inc	 ecx
; File C:\Program Files\Microsoft Visual Studio\2022\Professional\VC\Tools\MSVC\14.44.35207\include\xmemory

; 985  :         _STD _Deallocate<_New_alignof<_Ty>>(_Ptr, sizeof(_Ty) * _Count);

  00630	8b c2		 mov	 eax, edx

; 284  :         if (_Bytes >= _Big_allocation_threshold) {

  00632	81 f9 00 10 00
	00		 cmp	 ecx, 4096		; 00001000H
  00638	72 14		 jb	 SHORT $LN521@InitAICons

; 205  :     const uintptr_t _Ptr_container   = _Ptr_user[-1];

  0063a	8b 50 fc	 mov	 edx, DWORD PTR [eax-4]
  0063d	83 c1 23	 add	 ecx, 35			; 00000023H
  00640	2b c2		 sub	 eax, edx

; 219  :     _STL_VERIFY(_Back_shift >= _Min_back_shift && _Back_shift <= _Non_user_size, "invalid argument");

  00642	83 c0 fc	 add	 eax, -4			; fffffffcH
  00645	83 f8 1f	 cmp	 eax, 31			; 0000001fH
  00648	0f 87 3e 05 00
	00		 ja	 $LN886@InitAICons
$LN521@InitAICons:

; 289  :         ::operator delete(_Ptr, _Bytes);

  0064e	51		 push	 ecx
  0064f	52		 push	 edx
  00650	e8 00 00 00 00	 call	 ??3@YAXPAXI@Z		; operator delete
  00655	83 c4 08	 add	 esp, 8
$LN516@InitAICons:
; File C:\IAGOS\server\v18\Source\Source\_AIInterface\AIMonster2.cpp

; 154  : 	g_stringTable["AIMSG_ARRIVAL"] = 11; 

  00658	68 00 00 00 00	 push	 OFFSET ??_C@_0O@NANNIKBA@AIMSG_ARRIVAL@
  0065d	8d 4d d8	 lea	 ecx, DWORD PTR $T19[ebp]
  00660	e8 00 00 00 00	 call	 ??0?$basic_string@DU?$char_traits@D@std@@V?$allocator@D@2@@std@@QAE@QBD@Z ; std::basic_string<char,std::char_traits<char>,std::allocator<char> >::basic_string<char,std::char_traits<char>,std::allocator<char> >
  00665	8d 45 d8	 lea	 eax, DWORD PTR $T19[ebp]
  00668	c7 45 fc 10 00
	00 00		 mov	 DWORD PTR __$EHRec$[ebp+8], 16 ; 00000010H
  0066f	50		 push	 eax
  00670	b9 00 00 00 00	 mov	 ecx, OFFSET ?g_stringTable@@3V?$map@V?$basic_string@DU?$char_traits@D@std@@V?$allocator@D@2@@std@@HU?$less@V?$basic_string@DU?$char_traits@D@std@@V?$allocator@D@2@@std@@@2@V?$allocator@U?$pair@$$CBV?$basic_string@DU?$char_traits@D@std@@V?$allocator@D@2@@std@@H@std@@@2@@std@@A
  00675	e8 00 00 00 00	 call	 ??A?$map@V?$basic_string@DU?$char_traits@D@std@@V?$allocator@D@2@@std@@HU?$less@V?$basic_string@DU?$char_traits@D@std@@V?$allocator@D@2@@std@@@2@V?$allocator@U?$pair@$$CBV?$basic_string@DU?$char_traits@D@std@@V?$allocator@D@2@@std@@H@std@@@2@@std@@QAEAAH$$QAV?$basic_string@DU?$char_traits@D@std@@V?$allocator@D@2@@1@@Z ; std::map<std::basic_string<char,std::char_traits<char>,std::allocator<char> >,int,std::less<std::basic_string<char,std::char_traits<char>,std::allocator<char> > >,std::allocator<std::pair<std::basic_string<char,std::char_traits<char>,std::allocator<char> > const ,int> > >::operator[]
  0067a	c7 45 fc ff ff
	ff ff		 mov	 DWORD PTR __$EHRec$[ebp+8], -1
  00681	c7 00 0b 00 00
	00		 mov	 DWORD PTR [eax], 11	; 0000000bH
; File C:\Program Files\Microsoft Visual Studio\2022\Professional\VC\Tools\MSVC\14.44.35207\include\xstring

; 453  :         return _Myres > _Small_string_capacity;

  00687	8b 4d ec	 mov	 ecx, DWORD PTR $T19[ebp+20]
  0068a	83 f9 0f	 cmp	 ecx, 15			; 0000000fH

; 3083 :         if (_My_data._Large_mode_engaged()) {

  0068d	76 2c		 jbe	 SHORT $LN547@InitAICons
; File C:\Program Files\Microsoft Visual Studio\2022\Professional\VC\Tools\MSVC\14.44.35207\include\xmemory

; 985  :         _STD _Deallocate<_New_alignof<_Ty>>(_Ptr, sizeof(_Ty) * _Count);

  0068f	8b 55 d8	 mov	 edx, DWORD PTR $T19[ebp]
; File C:\Program Files\Microsoft Visual Studio\2022\Professional\VC\Tools\MSVC\14.44.35207\include\xstring

; 852  :         _Al.deallocate(_Old_ptr, _Capacity + 1); // +1 for null terminator

  00692	41		 inc	 ecx
; File C:\Program Files\Microsoft Visual Studio\2022\Professional\VC\Tools\MSVC\14.44.35207\include\xmemory

; 985  :         _STD _Deallocate<_New_alignof<_Ty>>(_Ptr, sizeof(_Ty) * _Count);

  00693	8b c2		 mov	 eax, edx

; 284  :         if (_Bytes >= _Big_allocation_threshold) {

  00695	81 f9 00 10 00
	00		 cmp	 ecx, 4096		; 00001000H
  0069b	72 14		 jb	 SHORT $LN552@InitAICons

; 205  :     const uintptr_t _Ptr_container   = _Ptr_user[-1];

  0069d	8b 50 fc	 mov	 edx, DWORD PTR [eax-4]
  006a0	83 c1 23	 add	 ecx, 35			; 00000023H
  006a3	2b c2		 sub	 eax, edx

; 219  :     _STL_VERIFY(_Back_shift >= _Min_back_shift && _Back_shift <= _Non_user_size, "invalid argument");

  006a5	83 c0 fc	 add	 eax, -4			; fffffffcH
  006a8	83 f8 1f	 cmp	 eax, 31			; 0000001fH
  006ab	0f 87 ea 04 00
	00		 ja	 $LN887@InitAICons
$LN552@InitAICons:

; 289  :         ::operator delete(_Ptr, _Bytes);

  006b1	51		 push	 ecx
  006b2	52		 push	 edx
  006b3	e8 00 00 00 00	 call	 ??3@YAXPAXI@Z		; operator delete
  006b8	83 c4 08	 add	 esp, 8
$LN547@InitAICons:
; File C:\IAGOS\server\v18\Source\Source\_AIInterface\AIMonster2.cpp

; 155  : 	g_stringTable["AIMSG_NOMOVE"] = 12;

  006bb	68 00 00 00 00	 push	 OFFSET ??_C@_0N@CIEBBBHJ@AIMSG_NOMOVE@
  006c0	8d 4d d8	 lea	 ecx, DWORD PTR $T20[ebp]
  006c3	e8 00 00 00 00	 call	 ??0?$basic_string@DU?$char_traits@D@std@@V?$allocator@D@2@@std@@QAE@QBD@Z ; std::basic_string<char,std::char_traits<char>,std::allocator<char> >::basic_string<char,std::char_traits<char>,std::allocator<char> >
  006c8	8d 45 d8	 lea	 eax, DWORD PTR $T20[ebp]
  006cb	c7 45 fc 11 00
	00 00		 mov	 DWORD PTR __$EHRec$[ebp+8], 17 ; 00000011H
  006d2	50		 push	 eax
  006d3	b9 00 00 00 00	 mov	 ecx, OFFSET ?g_stringTable@@3V?$map@V?$basic_string@DU?$char_traits@D@std@@V?$allocator@D@2@@std@@HU?$less@V?$basic_string@DU?$char_traits@D@std@@V?$allocator@D@2@@std@@@2@V?$allocator@U?$pair@$$CBV?$basic_string@DU?$char_traits@D@std@@V?$allocator@D@2@@std@@H@std@@@2@@std@@A
  006d8	e8 00 00 00 00	 call	 ??A?$map@V?$basic_string@DU?$char_traits@D@std@@V?$allocator@D@2@@std@@HU?$less@V?$basic_string@DU?$char_traits@D@std@@V?$allocator@D@2@@std@@@2@V?$allocator@U?$pair@$$CBV?$basic_string@DU?$char_traits@D@std@@V?$allocator@D@2@@std@@H@std@@@2@@std@@QAEAAH$$QAV?$basic_string@DU?$char_traits@D@std@@V?$allocator@D@2@@1@@Z ; std::map<std::basic_string<char,std::char_traits<char>,std::allocator<char> >,int,std::less<std::basic_string<char,std::char_traits<char>,std::allocator<char> > >,std::allocator<std::pair<std::basic_string<char,std::char_traits<char>,std::allocator<char> > const ,int> > >::operator[]
  006dd	c7 45 fc ff ff
	ff ff		 mov	 DWORD PTR __$EHRec$[ebp+8], -1
  006e4	c7 00 0c 00 00
	00		 mov	 DWORD PTR [eax], 12	; 0000000cH
; File C:\Program Files\Microsoft Visual Studio\2022\Professional\VC\Tools\MSVC\14.44.35207\include\xstring

; 453  :         return _Myres > _Small_string_capacity;

  006ea	8b 4d ec	 mov	 ecx, DWORD PTR $T20[ebp+20]
  006ed	83 f9 0f	 cmp	 ecx, 15			; 0000000fH

; 3083 :         if (_My_data._Large_mode_engaged()) {

  006f0	76 2c		 jbe	 SHORT $LN578@InitAICons
; File C:\Program Files\Microsoft Visual Studio\2022\Professional\VC\Tools\MSVC\14.44.35207\include\xmemory

; 985  :         _STD _Deallocate<_New_alignof<_Ty>>(_Ptr, sizeof(_Ty) * _Count);

  006f2	8b 55 d8	 mov	 edx, DWORD PTR $T20[ebp]
; File C:\Program Files\Microsoft Visual Studio\2022\Professional\VC\Tools\MSVC\14.44.35207\include\xstring

; 852  :         _Al.deallocate(_Old_ptr, _Capacity + 1); // +1 for null terminator

  006f5	41		 inc	 ecx
; File C:\Program Files\Microsoft Visual Studio\2022\Professional\VC\Tools\MSVC\14.44.35207\include\xmemory

; 985  :         _STD _Deallocate<_New_alignof<_Ty>>(_Ptr, sizeof(_Ty) * _Count);

  006f6	8b c2		 mov	 eax, edx

; 284  :         if (_Bytes >= _Big_allocation_threshold) {

  006f8	81 f9 00 10 00
	00		 cmp	 ecx, 4096		; 00001000H
  006fe	72 14		 jb	 SHORT $LN583@InitAICons

; 205  :     const uintptr_t _Ptr_container   = _Ptr_user[-1];

  00700	8b 50 fc	 mov	 edx, DWORD PTR [eax-4]
  00703	83 c1 23	 add	 ecx, 35			; 00000023H
  00706	2b c2		 sub	 eax, edx

; 219  :     _STL_VERIFY(_Back_shift >= _Min_back_shift && _Back_shift <= _Non_user_size, "invalid argument");

  00708	83 c0 fc	 add	 eax, -4			; fffffffcH
  0070b	83 f8 1f	 cmp	 eax, 31			; 0000001fH
  0070e	0f 87 96 04 00
	00		 ja	 $LN888@InitAICons
$LN583@InitAICons:

; 289  :         ::operator delete(_Ptr, _Bytes);

  00714	51		 push	 ecx
  00715	52		 push	 edx
  00716	e8 00 00 00 00	 call	 ??3@YAXPAXI@Z		; operator delete
  0071b	83 c4 08	 add	 esp, 8
$LN578@InitAICons:
; File C:\IAGOS\server\v18\Source\Source\_AIInterface\AIMonster2.cpp

; 156  : 	g_stringTable["AIMSG_BEGINMOVE"] = 13;

  0071e	68 00 00 00 00	 push	 OFFSET ??_C@_0BA@INJNCIBN@AIMSG_BEGINMOVE@
  00723	8d 4d d8	 lea	 ecx, DWORD PTR $T21[ebp]
  00726	e8 00 00 00 00	 call	 ??0?$basic_string@DU?$char_traits@D@std@@V?$allocator@D@2@@std@@QAE@QBD@Z ; std::basic_string<char,std::char_traits<char>,std::allocator<char> >::basic_string<char,std::char_traits<char>,std::allocator<char> >
  0072b	8d 45 d8	 lea	 eax, DWORD PTR $T21[ebp]
  0072e	c7 45 fc 12 00
	00 00		 mov	 DWORD PTR __$EHRec$[ebp+8], 18 ; 00000012H
  00735	50		 push	 eax
  00736	b9 00 00 00 00	 mov	 ecx, OFFSET ?g_stringTable@@3V?$map@V?$basic_string@DU?$char_traits@D@std@@V?$allocator@D@2@@std@@HU?$less@V?$basic_string@DU?$char_traits@D@std@@V?$allocator@D@2@@std@@@2@V?$allocator@U?$pair@$$CBV?$basic_string@DU?$char_traits@D@std@@V?$allocator@D@2@@std@@H@std@@@2@@std@@A
  0073b	e8 00 00 00 00	 call	 ??A?$map@V?$basic_string@DU?$char_traits@D@std@@V?$allocator@D@2@@std@@HU?$less@V?$basic_string@DU?$char_traits@D@std@@V?$allocator@D@2@@std@@@2@V?$allocator@U?$pair@$$CBV?$basic_string@DU?$char_traits@D@std@@V?$allocator@D@2@@std@@H@std@@@2@@std@@QAEAAH$$QAV?$basic_string@DU?$char_traits@D@std@@V?$allocator@D@2@@1@@Z ; std::map<std::basic_string<char,std::char_traits<char>,std::allocator<char> >,int,std::less<std::basic_string<char,std::char_traits<char>,std::allocator<char> > >,std::allocator<std::pair<std::basic_string<char,std::char_traits<char>,std::allocator<char> > const ,int> > >::operator[]
  00740	c7 45 fc ff ff
	ff ff		 mov	 DWORD PTR __$EHRec$[ebp+8], -1
  00747	c7 00 0d 00 00
	00		 mov	 DWORD PTR [eax], 13	; 0000000dH
; File C:\Program Files\Microsoft Visual Studio\2022\Professional\VC\Tools\MSVC\14.44.35207\include\xstring

; 453  :         return _Myres > _Small_string_capacity;

  0074d	8b 4d ec	 mov	 ecx, DWORD PTR $T21[ebp+20]
  00750	83 f9 0f	 cmp	 ecx, 15			; 0000000fH

; 3083 :         if (_My_data._Large_mode_engaged()) {

  00753	76 2c		 jbe	 SHORT $LN609@InitAICons
; File C:\Program Files\Microsoft Visual Studio\2022\Professional\VC\Tools\MSVC\14.44.35207\include\xmemory

; 985  :         _STD _Deallocate<_New_alignof<_Ty>>(_Ptr, sizeof(_Ty) * _Count);

  00755	8b 55 d8	 mov	 edx, DWORD PTR $T21[ebp]
; File C:\Program Files\Microsoft Visual Studio\2022\Professional\VC\Tools\MSVC\14.44.35207\include\xstring

; 852  :         _Al.deallocate(_Old_ptr, _Capacity + 1); // +1 for null terminator

  00758	41		 inc	 ecx
; File C:\Program Files\Microsoft Visual Studio\2022\Professional\VC\Tools\MSVC\14.44.35207\include\xmemory

; 985  :         _STD _Deallocate<_New_alignof<_Ty>>(_Ptr, sizeof(_Ty) * _Count);

  00759	8b c2		 mov	 eax, edx

; 284  :         if (_Bytes >= _Big_allocation_threshold) {

  0075b	81 f9 00 10 00
	00		 cmp	 ecx, 4096		; 00001000H
  00761	72 14		 jb	 SHORT $LN614@InitAICons

; 205  :     const uintptr_t _Ptr_container   = _Ptr_user[-1];

  00763	8b 50 fc	 mov	 edx, DWORD PTR [eax-4]
  00766	83 c1 23	 add	 ecx, 35			; 00000023H
  00769	2b c2		 sub	 eax, edx

; 219  :     _STL_VERIFY(_Back_shift >= _Min_back_shift && _Back_shift <= _Non_user_size, "invalid argument");

  0076b	83 c0 fc	 add	 eax, -4			; fffffffcH
  0076e	83 f8 1f	 cmp	 eax, 31			; 0000001fH
  00771	0f 87 42 04 00
	00		 ja	 $LN889@InitAICons
$LN614@InitAICons:

; 289  :         ::operator delete(_Ptr, _Bytes);

  00777	51		 push	 ecx
  00778	52		 push	 edx
  00779	e8 00 00 00 00	 call	 ??3@YAXPAXI@Z		; operator delete
  0077e	83 c4 08	 add	 esp, 8
$LN609@InitAICons:
; File C:\IAGOS\server\v18\Source\Source\_AIInterface\AIMonster2.cpp

; 157  : 	g_stringTable["AIMSG_ATTACK_MELEE"] = 14;

  00781	68 00 00 00 00	 push	 OFFSET ??_C@_0BD@NKNLMNDG@AIMSG_ATTACK_MELEE@
  00786	8d 4d d8	 lea	 ecx, DWORD PTR $T22[ebp]
  00789	e8 00 00 00 00	 call	 ??0?$basic_string@DU?$char_traits@D@std@@V?$allocator@D@2@@std@@QAE@QBD@Z ; std::basic_string<char,std::char_traits<char>,std::allocator<char> >::basic_string<char,std::char_traits<char>,std::allocator<char> >
  0078e	8d 45 d8	 lea	 eax, DWORD PTR $T22[ebp]
  00791	c7 45 fc 13 00
	00 00		 mov	 DWORD PTR __$EHRec$[ebp+8], 19 ; 00000013H
  00798	50		 push	 eax
  00799	b9 00 00 00 00	 mov	 ecx, OFFSET ?g_stringTable@@3V?$map@V?$basic_string@DU?$char_traits@D@std@@V?$allocator@D@2@@std@@HU?$less@V?$basic_string@DU?$char_traits@D@std@@V?$allocator@D@2@@std@@@2@V?$allocator@U?$pair@$$CBV?$basic_string@DU?$char_traits@D@std@@V?$allocator@D@2@@std@@H@std@@@2@@std@@A
  0079e	e8 00 00 00 00	 call	 ??A?$map@V?$basic_string@DU?$char_traits@D@std@@V?$allocator@D@2@@std@@HU?$less@V?$basic_string@DU?$char_traits@D@std@@V?$allocator@D@2@@std@@@2@V?$allocator@U?$pair@$$CBV?$basic_string@DU?$char_traits@D@std@@V?$allocator@D@2@@std@@H@std@@@2@@std@@QAEAAH$$QAV?$basic_string@DU?$char_traits@D@std@@V?$allocator@D@2@@1@@Z ; std::map<std::basic_string<char,std::char_traits<char>,std::allocator<char> >,int,std::less<std::basic_string<char,std::char_traits<char>,std::allocator<char> > >,std::allocator<std::pair<std::basic_string<char,std::char_traits<char>,std::allocator<char> > const ,int> > >::operator[]
  007a3	c7 45 fc ff ff
	ff ff		 mov	 DWORD PTR __$EHRec$[ebp+8], -1
  007aa	c7 00 0e 00 00
	00		 mov	 DWORD PTR [eax], 14	; 0000000eH
; File C:\Program Files\Microsoft Visual Studio\2022\Professional\VC\Tools\MSVC\14.44.35207\include\xstring

; 453  :         return _Myres > _Small_string_capacity;

  007b0	8b 4d ec	 mov	 ecx, DWORD PTR $T22[ebp+20]
  007b3	83 f9 0f	 cmp	 ecx, 15			; 0000000fH

; 3083 :         if (_My_data._Large_mode_engaged()) {

  007b6	76 2c		 jbe	 SHORT $LN640@InitAICons
; File C:\Program Files\Microsoft Visual Studio\2022\Professional\VC\Tools\MSVC\14.44.35207\include\xmemory

; 985  :         _STD _Deallocate<_New_alignof<_Ty>>(_Ptr, sizeof(_Ty) * _Count);

  007b8	8b 55 d8	 mov	 edx, DWORD PTR $T22[ebp]
; File C:\Program Files\Microsoft Visual Studio\2022\Professional\VC\Tools\MSVC\14.44.35207\include\xstring

; 852  :         _Al.deallocate(_Old_ptr, _Capacity + 1); // +1 for null terminator

  007bb	41		 inc	 ecx
; File C:\Program Files\Microsoft Visual Studio\2022\Professional\VC\Tools\MSVC\14.44.35207\include\xmemory

; 985  :         _STD _Deallocate<_New_alignof<_Ty>>(_Ptr, sizeof(_Ty) * _Count);

  007bc	8b c2		 mov	 eax, edx

; 284  :         if (_Bytes >= _Big_allocation_threshold) {

  007be	81 f9 00 10 00
	00		 cmp	 ecx, 4096		; 00001000H
  007c4	72 14		 jb	 SHORT $LN645@InitAICons

; 205  :     const uintptr_t _Ptr_container   = _Ptr_user[-1];

  007c6	8b 50 fc	 mov	 edx, DWORD PTR [eax-4]
  007c9	83 c1 23	 add	 ecx, 35			; 00000023H
  007cc	2b c2		 sub	 eax, edx

; 219  :     _STL_VERIFY(_Back_shift >= _Min_back_shift && _Back_shift <= _Non_user_size, "invalid argument");

  007ce	83 c0 fc	 add	 eax, -4			; fffffffcH
  007d1	83 f8 1f	 cmp	 eax, 31			; 0000001fH
  007d4	0f 87 ee 03 00
	00		 ja	 $LN890@InitAICons
$LN645@InitAICons:

; 289  :         ::operator delete(_Ptr, _Bytes);

  007da	51		 push	 ecx
  007db	52		 push	 edx
  007dc	e8 00 00 00 00	 call	 ??3@YAXPAXI@Z		; operator delete
  007e1	83 c4 08	 add	 esp, 8
$LN640@InitAICons:
; File C:\IAGOS\server\v18\Source\Source\_AIInterface\AIMonster2.cpp

; 158  : 	g_stringTable["AIMSG_END_MELEEATTACK"] = 15;

  007e4	68 00 00 00 00	 push	 OFFSET ??_C@_0BG@OKJOPHFH@AIMSG_END_MELEEATTACK@
  007e9	8d 4d d8	 lea	 ecx, DWORD PTR $T23[ebp]
  007ec	e8 00 00 00 00	 call	 ??0?$basic_string@DU?$char_traits@D@std@@V?$allocator@D@2@@std@@QAE@QBD@Z ; std::basic_string<char,std::char_traits<char>,std::allocator<char> >::basic_string<char,std::char_traits<char>,std::allocator<char> >
  007f1	8d 45 d8	 lea	 eax, DWORD PTR $T23[ebp]
  007f4	c7 45 fc 14 00
	00 00		 mov	 DWORD PTR __$EHRec$[ebp+8], 20 ; 00000014H
  007fb	50		 push	 eax
  007fc	b9 00 00 00 00	 mov	 ecx, OFFSET ?g_stringTable@@3V?$map@V?$basic_string@DU?$char_traits@D@std@@V?$allocator@D@2@@std@@HU?$less@V?$basic_string@DU?$char_traits@D@std@@V?$allocator@D@2@@std@@@2@V?$allocator@U?$pair@$$CBV?$basic_string@DU?$char_traits@D@std@@V?$allocator@D@2@@std@@H@std@@@2@@std@@A
  00801	e8 00 00 00 00	 call	 ??A?$map@V?$basic_string@DU?$char_traits@D@std@@V?$allocator@D@2@@std@@HU?$less@V?$basic_string@DU?$char_traits@D@std@@V?$allocator@D@2@@std@@@2@V?$allocator@U?$pair@$$CBV?$basic_string@DU?$char_traits@D@std@@V?$allocator@D@2@@std@@H@std@@@2@@std@@QAEAAH$$QAV?$basic_string@DU?$char_traits@D@std@@V?$allocator@D@2@@1@@Z ; std::map<std::basic_string<char,std::char_traits<char>,std::allocator<char> >,int,std::less<std::basic_string<char,std::char_traits<char>,std::allocator<char> > >,std::allocator<std::pair<std::basic_string<char,std::char_traits<char>,std::allocator<char> > const ,int> > >::operator[]
  00806	c7 45 fc ff ff
	ff ff		 mov	 DWORD PTR __$EHRec$[ebp+8], -1
  0080d	c7 00 0f 00 00
	00		 mov	 DWORD PTR [eax], 15	; 0000000fH
; File C:\Program Files\Microsoft Visual Studio\2022\Professional\VC\Tools\MSVC\14.44.35207\include\xstring

; 453  :         return _Myres > _Small_string_capacity;

  00813	8b 4d ec	 mov	 ecx, DWORD PTR $T23[ebp+20]
  00816	83 f9 0f	 cmp	 ecx, 15			; 0000000fH

; 3083 :         if (_My_data._Large_mode_engaged()) {

  00819	76 2c		 jbe	 SHORT $LN671@InitAICons
; File C:\Program Files\Microsoft Visual Studio\2022\Professional\VC\Tools\MSVC\14.44.35207\include\xmemory

; 985  :         _STD _Deallocate<_New_alignof<_Ty>>(_Ptr, sizeof(_Ty) * _Count);

  0081b	8b 55 d8	 mov	 edx, DWORD PTR $T23[ebp]
; File C:\Program Files\Microsoft Visual Studio\2022\Professional\VC\Tools\MSVC\14.44.35207\include\xstring

; 852  :         _Al.deallocate(_Old_ptr, _Capacity + 1); // +1 for null terminator

  0081e	41		 inc	 ecx
; File C:\Program Files\Microsoft Visual Studio\2022\Professional\VC\Tools\MSVC\14.44.35207\include\xmemory

; 985  :         _STD _Deallocate<_New_alignof<_Ty>>(_Ptr, sizeof(_Ty) * _Count);

  0081f	8b c2		 mov	 eax, edx

; 284  :         if (_Bytes >= _Big_allocation_threshold) {

  00821	81 f9 00 10 00
	00		 cmp	 ecx, 4096		; 00001000H
  00827	72 14		 jb	 SHORT $LN676@InitAICons

; 205  :     const uintptr_t _Ptr_container   = _Ptr_user[-1];

  00829	8b 50 fc	 mov	 edx, DWORD PTR [eax-4]
  0082c	83 c1 23	 add	 ecx, 35			; 00000023H
  0082f	2b c2		 sub	 eax, edx

; 219  :     _STL_VERIFY(_Back_shift >= _Min_back_shift && _Back_shift <= _Non_user_size, "invalid argument");

  00831	83 c0 fc	 add	 eax, -4			; fffffffcH
  00834	83 f8 1f	 cmp	 eax, 31			; 0000001fH
  00837	0f 87 9a 03 00
	00		 ja	 $LN891@InitAICons
$LN676@InitAICons:

; 289  :         ::operator delete(_Ptr, _Bytes);

  0083d	51		 push	 ecx
  0083e	52		 push	 edx
  0083f	e8 00 00 00 00	 call	 ??3@YAXPAXI@Z		; operator delete
  00844	83 c4 08	 add	 esp, 8
$LN671@InitAICons:
; File C:\IAGOS\server\v18\Source\Source\_AIInterface\AIMonster2.cpp

; 159  : 	g_stringTable["AIMSG_END_APPEAR"] = 16;

  00847	68 00 00 00 00	 push	 OFFSET ??_C@_0BB@FHJBBFGI@AIMSG_END_APPEAR@
  0084c	8d 4d d8	 lea	 ecx, DWORD PTR $T24[ebp]
  0084f	e8 00 00 00 00	 call	 ??0?$basic_string@DU?$char_traits@D@std@@V?$allocator@D@2@@std@@QAE@QBD@Z ; std::basic_string<char,std::char_traits<char>,std::allocator<char> >::basic_string<char,std::char_traits<char>,std::allocator<char> >
  00854	8d 45 d8	 lea	 eax, DWORD PTR $T24[ebp]
  00857	c7 45 fc 15 00
	00 00		 mov	 DWORD PTR __$EHRec$[ebp+8], 21 ; 00000015H
  0085e	50		 push	 eax
  0085f	b9 00 00 00 00	 mov	 ecx, OFFSET ?g_stringTable@@3V?$map@V?$basic_string@DU?$char_traits@D@std@@V?$allocator@D@2@@std@@HU?$less@V?$basic_string@DU?$char_traits@D@std@@V?$allocator@D@2@@std@@@2@V?$allocator@U?$pair@$$CBV?$basic_string@DU?$char_traits@D@std@@V?$allocator@D@2@@std@@H@std@@@2@@std@@A
  00864	e8 00 00 00 00	 call	 ??A?$map@V?$basic_string@DU?$char_traits@D@std@@V?$allocator@D@2@@std@@HU?$less@V?$basic_string@DU?$char_traits@D@std@@V?$allocator@D@2@@std@@@2@V?$allocator@U?$pair@$$CBV?$basic_string@DU?$char_traits@D@std@@V?$allocator@D@2@@std@@H@std@@@2@@std@@QAEAAH$$QAV?$basic_string@DU?$char_traits@D@std@@V?$allocator@D@2@@1@@Z ; std::map<std::basic_string<char,std::char_traits<char>,std::allocator<char> >,int,std::less<std::basic_string<char,std::char_traits<char>,std::allocator<char> > >,std::allocator<std::pair<std::basic_string<char,std::char_traits<char>,std::allocator<char> > const ,int> > >::operator[]
  00869	c7 45 fc ff ff
	ff ff		 mov	 DWORD PTR __$EHRec$[ebp+8], -1
  00870	c7 00 10 00 00
	00		 mov	 DWORD PTR [eax], 16	; 00000010H
; File C:\Program Files\Microsoft Visual Studio\2022\Professional\VC\Tools\MSVC\14.44.35207\include\xstring

; 453  :         return _Myres > _Small_string_capacity;

  00876	8b 4d ec	 mov	 ecx, DWORD PTR $T24[ebp+20]
  00879	83 f9 0f	 cmp	 ecx, 15			; 0000000fH

; 3083 :         if (_My_data._Large_mode_engaged()) {

  0087c	76 2c		 jbe	 SHORT $LN702@InitAICons
; File C:\Program Files\Microsoft Visual Studio\2022\Professional\VC\Tools\MSVC\14.44.35207\include\xmemory

; 985  :         _STD _Deallocate<_New_alignof<_Ty>>(_Ptr, sizeof(_Ty) * _Count);

  0087e	8b 55 d8	 mov	 edx, DWORD PTR $T24[ebp]
; File C:\Program Files\Microsoft Visual Studio\2022\Professional\VC\Tools\MSVC\14.44.35207\include\xstring

; 852  :         _Al.deallocate(_Old_ptr, _Capacity + 1); // +1 for null terminator

  00881	41		 inc	 ecx
; File C:\Program Files\Microsoft Visual Studio\2022\Professional\VC\Tools\MSVC\14.44.35207\include\xmemory

; 985  :         _STD _Deallocate<_New_alignof<_Ty>>(_Ptr, sizeof(_Ty) * _Count);

  00882	8b c2		 mov	 eax, edx

; 284  :         if (_Bytes >= _Big_allocation_threshold) {

  00884	81 f9 00 10 00
	00		 cmp	 ecx, 4096		; 00001000H
  0088a	72 14		 jb	 SHORT $LN707@InitAICons

; 205  :     const uintptr_t _Ptr_container   = _Ptr_user[-1];

  0088c	8b 50 fc	 mov	 edx, DWORD PTR [eax-4]
  0088f	83 c1 23	 add	 ecx, 35			; 00000023H
  00892	2b c2		 sub	 eax, edx

; 219  :     _STL_VERIFY(_Back_shift >= _Min_back_shift && _Back_shift <= _Non_user_size, "invalid argument");

  00894	83 c0 fc	 add	 eax, -4			; fffffffcH
  00897	83 f8 1f	 cmp	 eax, 31			; 0000001fH
  0089a	0f 87 46 03 00
	00		 ja	 $LN892@InitAICons
$LN707@InitAICons:

; 289  :         ::operator delete(_Ptr, _Bytes);

  008a0	51		 push	 ecx
  008a1	52		 push	 edx
  008a2	e8 00 00 00 00	 call	 ??3@YAXPAXI@Z		; operator delete
  008a7	83 c4 08	 add	 esp, 8
$LN702@InitAICons:
; File C:\IAGOS\server\v18\Source\Source\_AIInterface\AIMonster2.cpp

; 160  : 	g_stringTable["AIMSG_INIT_TARGETCLEAR"] = 17;

  008aa	68 00 00 00 00	 push	 OFFSET ??_C@_0BH@HCEFCLLG@AIMSG_INIT_TARGETCLEAR@
  008af	8d 4d d8	 lea	 ecx, DWORD PTR $T25[ebp]
  008b2	e8 00 00 00 00	 call	 ??0?$basic_string@DU?$char_traits@D@std@@V?$allocator@D@2@@std@@QAE@QBD@Z ; std::basic_string<char,std::char_traits<char>,std::allocator<char> >::basic_string<char,std::char_traits<char>,std::allocator<char> >
  008b7	8d 45 d8	 lea	 eax, DWORD PTR $T25[ebp]
  008ba	c7 45 fc 16 00
	00 00		 mov	 DWORD PTR __$EHRec$[ebp+8], 22 ; 00000016H
  008c1	50		 push	 eax
  008c2	b9 00 00 00 00	 mov	 ecx, OFFSET ?g_stringTable@@3V?$map@V?$basic_string@DU?$char_traits@D@std@@V?$allocator@D@2@@std@@HU?$less@V?$basic_string@DU?$char_traits@D@std@@V?$allocator@D@2@@std@@@2@V?$allocator@U?$pair@$$CBV?$basic_string@DU?$char_traits@D@std@@V?$allocator@D@2@@std@@H@std@@@2@@std@@A
  008c7	e8 00 00 00 00	 call	 ??A?$map@V?$basic_string@DU?$char_traits@D@std@@V?$allocator@D@2@@std@@HU?$less@V?$basic_string@DU?$char_traits@D@std@@V?$allocator@D@2@@std@@@2@V?$allocator@U?$pair@$$CBV?$basic_string@DU?$char_traits@D@std@@V?$allocator@D@2@@std@@H@std@@@2@@std@@QAEAAH$$QAV?$basic_string@DU?$char_traits@D@std@@V?$allocator@D@2@@1@@Z ; std::map<std::basic_string<char,std::char_traits<char>,std::allocator<char> >,int,std::less<std::basic_string<char,std::char_traits<char>,std::allocator<char> > >,std::allocator<std::pair<std::basic_string<char,std::char_traits<char>,std::allocator<char> > const ,int> > >::operator[]
  008cc	c7 45 fc ff ff
	ff ff		 mov	 DWORD PTR __$EHRec$[ebp+8], -1
  008d3	c7 00 11 00 00
	00		 mov	 DWORD PTR [eax], 17	; 00000011H
; File C:\Program Files\Microsoft Visual Studio\2022\Professional\VC\Tools\MSVC\14.44.35207\include\xstring

; 453  :         return _Myres > _Small_string_capacity;

  008d9	8b 4d ec	 mov	 ecx, DWORD PTR $T25[ebp+20]
  008dc	83 f9 0f	 cmp	 ecx, 15			; 0000000fH

; 3083 :         if (_My_data._Large_mode_engaged()) {

  008df	76 2c		 jbe	 SHORT $LN733@InitAICons
; File C:\Program Files\Microsoft Visual Studio\2022\Professional\VC\Tools\MSVC\14.44.35207\include\xmemory

; 985  :         _STD _Deallocate<_New_alignof<_Ty>>(_Ptr, sizeof(_Ty) * _Count);

  008e1	8b 55 d8	 mov	 edx, DWORD PTR $T25[ebp]
; File C:\Program Files\Microsoft Visual Studio\2022\Professional\VC\Tools\MSVC\14.44.35207\include\xstring

; 852  :         _Al.deallocate(_Old_ptr, _Capacity + 1); // +1 for null terminator

  008e4	41		 inc	 ecx
; File C:\Program Files\Microsoft Visual Studio\2022\Professional\VC\Tools\MSVC\14.44.35207\include\xmemory

; 985  :         _STD _Deallocate<_New_alignof<_Ty>>(_Ptr, sizeof(_Ty) * _Count);

  008e5	8b c2		 mov	 eax, edx

; 284  :         if (_Bytes >= _Big_allocation_threshold) {

  008e7	81 f9 00 10 00
	00		 cmp	 ecx, 4096		; 00001000H
  008ed	72 14		 jb	 SHORT $LN738@InitAICons

; 205  :     const uintptr_t _Ptr_container   = _Ptr_user[-1];

  008ef	8b 50 fc	 mov	 edx, DWORD PTR [eax-4]
  008f2	83 c1 23	 add	 ecx, 35			; 00000023H
  008f5	2b c2		 sub	 eax, edx

; 219  :     _STL_VERIFY(_Back_shift >= _Min_back_shift && _Back_shift <= _Non_user_size, "invalid argument");

  008f7	83 c0 fc	 add	 eax, -4			; fffffffcH
  008fa	83 f8 1f	 cmp	 eax, 31			; 0000001fH
  008fd	0f 87 f2 02 00
	00		 ja	 $LN893@InitAICons
$LN738@InitAICons:

; 289  :         ::operator delete(_Ptr, _Bytes);

  00903	51		 push	 ecx
  00904	52		 push	 edx
  00905	e8 00 00 00 00	 call	 ??3@YAXPAXI@Z		; operator delete
  0090a	83 c4 08	 add	 esp, 8
$LN733@InitAICons:
; File C:\IAGOS\server\v18\Source\Source\_AIInterface\AIMonster2.cpp

; 161  : 	g_stringTable["AIMSG_EXIT"] = 18;

  0090d	68 00 00 00 00	 push	 OFFSET ??_C@_0L@FGCHJLJN@AIMSG_EXIT@
  00912	8d 4d d8	 lea	 ecx, DWORD PTR $T26[ebp]
  00915	e8 00 00 00 00	 call	 ??0?$basic_string@DU?$char_traits@D@std@@V?$allocator@D@2@@std@@QAE@QBD@Z ; std::basic_string<char,std::char_traits<char>,std::allocator<char> >::basic_string<char,std::char_traits<char>,std::allocator<char> >
  0091a	8d 45 d8	 lea	 eax, DWORD PTR $T26[ebp]
  0091d	c7 45 fc 17 00
	00 00		 mov	 DWORD PTR __$EHRec$[ebp+8], 23 ; 00000017H
  00924	50		 push	 eax
  00925	b9 00 00 00 00	 mov	 ecx, OFFSET ?g_stringTable@@3V?$map@V?$basic_string@DU?$char_traits@D@std@@V?$allocator@D@2@@std@@HU?$less@V?$basic_string@DU?$char_traits@D@std@@V?$allocator@D@2@@std@@@2@V?$allocator@U?$pair@$$CBV?$basic_string@DU?$char_traits@D@std@@V?$allocator@D@2@@std@@H@std@@@2@@std@@A
  0092a	e8 00 00 00 00	 call	 ??A?$map@V?$basic_string@DU?$char_traits@D@std@@V?$allocator@D@2@@std@@HU?$less@V?$basic_string@DU?$char_traits@D@std@@V?$allocator@D@2@@std@@@2@V?$allocator@U?$pair@$$CBV?$basic_string@DU?$char_traits@D@std@@V?$allocator@D@2@@std@@H@std@@@2@@std@@QAEAAH$$QAV?$basic_string@DU?$char_traits@D@std@@V?$allocator@D@2@@1@@Z ; std::map<std::basic_string<char,std::char_traits<char>,std::allocator<char> >,int,std::less<std::basic_string<char,std::char_traits<char>,std::allocator<char> > >,std::allocator<std::pair<std::basic_string<char,std::char_traits<char>,std::allocator<char> > const ,int> > >::operator[]
  0092f	c7 45 fc ff ff
	ff ff		 mov	 DWORD PTR __$EHRec$[ebp+8], -1
  00936	c7 00 12 00 00
	00		 mov	 DWORD PTR [eax], 18	; 00000012H
; File C:\Program Files\Microsoft Visual Studio\2022\Professional\VC\Tools\MSVC\14.44.35207\include\xstring

; 453  :         return _Myres > _Small_string_capacity;

  0093c	8b 4d ec	 mov	 ecx, DWORD PTR $T26[ebp+20]
  0093f	83 f9 0f	 cmp	 ecx, 15			; 0000000fH

; 3083 :         if (_My_data._Large_mode_engaged()) {

  00942	76 2c		 jbe	 SHORT $LN764@InitAICons
; File C:\Program Files\Microsoft Visual Studio\2022\Professional\VC\Tools\MSVC\14.44.35207\include\xmemory

; 985  :         _STD _Deallocate<_New_alignof<_Ty>>(_Ptr, sizeof(_Ty) * _Count);

  00944	8b 55 d8	 mov	 edx, DWORD PTR $T26[ebp]
; File C:\Program Files\Microsoft Visual Studio\2022\Professional\VC\Tools\MSVC\14.44.35207\include\xstring

; 852  :         _Al.deallocate(_Old_ptr, _Capacity + 1); // +1 for null terminator

  00947	41		 inc	 ecx
; File C:\Program Files\Microsoft Visual Studio\2022\Professional\VC\Tools\MSVC\14.44.35207\include\xmemory

; 985  :         _STD _Deallocate<_New_alignof<_Ty>>(_Ptr, sizeof(_Ty) * _Count);

  00948	8b c2		 mov	 eax, edx

; 284  :         if (_Bytes >= _Big_allocation_threshold) {

  0094a	81 f9 00 10 00
	00		 cmp	 ecx, 4096		; 00001000H
  00950	72 14		 jb	 SHORT $LN769@InitAICons

; 205  :     const uintptr_t _Ptr_container   = _Ptr_user[-1];

  00952	8b 50 fc	 mov	 edx, DWORD PTR [eax-4]
  00955	83 c1 23	 add	 ecx, 35			; 00000023H
  00958	2b c2		 sub	 eax, edx

; 219  :     _STL_VERIFY(_Back_shift >= _Min_back_shift && _Back_shift <= _Non_user_size, "invalid argument");

  0095a	83 c0 fc	 add	 eax, -4			; fffffffcH
  0095d	83 f8 1f	 cmp	 eax, 31			; 0000001fH
  00960	0f 87 9e 02 00
	00		 ja	 $LN894@InitAICons
$LN769@InitAICons:

; 289  :         ::operator delete(_Ptr, _Bytes);

  00966	51		 push	 ecx
  00967	52		 push	 edx
  00968	e8 00 00 00 00	 call	 ??3@YAXPAXI@Z		; operator delete
  0096d	83 c4 08	 add	 esp, 8
$LN764@InitAICons:
; File C:\IAGOS\server\v18\Source\Source\_AIInterface\AIMonster2.cpp

; 162  : 	g_stringTable["AIMSG_TARGET_FIND"] = 19;

  00970	68 00 00 00 00	 push	 OFFSET ??_C@_0BC@PILNCGPK@AIMSG_TARGET_FIND@
  00975	8d 4d d8	 lea	 ecx, DWORD PTR $T27[ebp]
  00978	e8 00 00 00 00	 call	 ??0?$basic_string@DU?$char_traits@D@std@@V?$allocator@D@2@@std@@QAE@QBD@Z ; std::basic_string<char,std::char_traits<char>,std::allocator<char> >::basic_string<char,std::char_traits<char>,std::allocator<char> >
  0097d	8d 45 d8	 lea	 eax, DWORD PTR $T27[ebp]
  00980	c7 45 fc 18 00
	00 00		 mov	 DWORD PTR __$EHRec$[ebp+8], 24 ; 00000018H
  00987	50		 push	 eax
  00988	b9 00 00 00 00	 mov	 ecx, OFFSET ?g_stringTable@@3V?$map@V?$basic_string@DU?$char_traits@D@std@@V?$allocator@D@2@@std@@HU?$less@V?$basic_string@DU?$char_traits@D@std@@V?$allocator@D@2@@std@@@2@V?$allocator@U?$pair@$$CBV?$basic_string@DU?$char_traits@D@std@@V?$allocator@D@2@@std@@H@std@@@2@@std@@A
  0098d	e8 00 00 00 00	 call	 ??A?$map@V?$basic_string@DU?$char_traits@D@std@@V?$allocator@D@2@@std@@HU?$less@V?$basic_string@DU?$char_traits@D@std@@V?$allocator@D@2@@std@@@2@V?$allocator@U?$pair@$$CBV?$basic_string@DU?$char_traits@D@std@@V?$allocator@D@2@@std@@H@std@@@2@@std@@QAEAAH$$QAV?$basic_string@DU?$char_traits@D@std@@V?$allocator@D@2@@1@@Z ; std::map<std::basic_string<char,std::char_traits<char>,std::allocator<char> >,int,std::less<std::basic_string<char,std::char_traits<char>,std::allocator<char> > >,std::allocator<std::pair<std::basic_string<char,std::char_traits<char>,std::allocator<char> > const ,int> > >::operator[]
  00992	c7 45 fc ff ff
	ff ff		 mov	 DWORD PTR __$EHRec$[ebp+8], -1
  00999	c7 00 13 00 00
	00		 mov	 DWORD PTR [eax], 19	; 00000013H
; File C:\Program Files\Microsoft Visual Studio\2022\Professional\VC\Tools\MSVC\14.44.35207\include\xstring

; 453  :         return _Myres > _Small_string_capacity;

  0099f	8b 4d ec	 mov	 ecx, DWORD PTR $T27[ebp+20]
  009a2	83 f9 0f	 cmp	 ecx, 15			; 0000000fH

; 3083 :         if (_My_data._Large_mode_engaged()) {

  009a5	76 2c		 jbe	 SHORT $LN795@InitAICons
; File C:\Program Files\Microsoft Visual Studio\2022\Professional\VC\Tools\MSVC\14.44.35207\include\xmemory

; 985  :         _STD _Deallocate<_New_alignof<_Ty>>(_Ptr, sizeof(_Ty) * _Count);

  009a7	8b 55 d8	 mov	 edx, DWORD PTR $T27[ebp]
; File C:\Program Files\Microsoft Visual Studio\2022\Professional\VC\Tools\MSVC\14.44.35207\include\xstring

; 852  :         _Al.deallocate(_Old_ptr, _Capacity + 1); // +1 for null terminator

  009aa	41		 inc	 ecx
; File C:\Program Files\Microsoft Visual Studio\2022\Professional\VC\Tools\MSVC\14.44.35207\include\xmemory

; 985  :         _STD _Deallocate<_New_alignof<_Ty>>(_Ptr, sizeof(_Ty) * _Count);

  009ab	8b c2		 mov	 eax, edx

; 284  :         if (_Bytes >= _Big_allocation_threshold) {

  009ad	81 f9 00 10 00
	00		 cmp	 ecx, 4096		; 00001000H
  009b3	72 14		 jb	 SHORT $LN800@InitAICons

; 205  :     const uintptr_t _Ptr_container   = _Ptr_user[-1];

  009b5	8b 50 fc	 mov	 edx, DWORD PTR [eax-4]
  009b8	83 c1 23	 add	 ecx, 35			; 00000023H
  009bb	2b c2		 sub	 eax, edx

; 219  :     _STL_VERIFY(_Back_shift >= _Min_back_shift && _Back_shift <= _Non_user_size, "invalid argument");

  009bd	83 c0 fc	 add	 eax, -4			; fffffffcH
  009c0	83 f8 1f	 cmp	 eax, 31			; 0000001fH
  009c3	0f 87 4a 02 00
	00		 ja	 $LN895@InitAICons
$LN800@InitAICons:

; 289  :         ::operator delete(_Ptr, _Bytes);

  009c9	51		 push	 ecx
  009ca	52		 push	 edx
  009cb	e8 00 00 00 00	 call	 ??3@YAXPAXI@Z		; operator delete
  009d0	83 c4 08	 add	 esp, 8
$LN795@InitAICons:
; File C:\IAGOS\server\v18\Source\Source\_AIInterface\AIMonster2.cpp

; 163  : 	g_stringTable["AIMSG_REATTACK_TIMEOUT"] = 20;

  009d3	68 00 00 00 00	 push	 OFFSET ??_C@_0BH@BLLBENK@AIMSG_REATTACK_TIMEOUT@
  009d8	8d 4d d8	 lea	 ecx, DWORD PTR $T28[ebp]
  009db	e8 00 00 00 00	 call	 ??0?$basic_string@DU?$char_traits@D@std@@V?$allocator@D@2@@std@@QAE@QBD@Z ; std::basic_string<char,std::char_traits<char>,std::allocator<char> >::basic_string<char,std::char_traits<char>,std::allocator<char> >
  009e0	8d 45 d8	 lea	 eax, DWORD PTR $T28[ebp]
  009e3	c7 45 fc 19 00
	00 00		 mov	 DWORD PTR __$EHRec$[ebp+8], 25 ; 00000019H
  009ea	50		 push	 eax
  009eb	b9 00 00 00 00	 mov	 ecx, OFFSET ?g_stringTable@@3V?$map@V?$basic_string@DU?$char_traits@D@std@@V?$allocator@D@2@@std@@HU?$less@V?$basic_string@DU?$char_traits@D@std@@V?$allocator@D@2@@std@@@2@V?$allocator@U?$pair@$$CBV?$basic_string@DU?$char_traits@D@std@@V?$allocator@D@2@@std@@H@std@@@2@@std@@A
  009f0	e8 00 00 00 00	 call	 ??A?$map@V?$basic_string@DU?$char_traits@D@std@@V?$allocator@D@2@@std@@HU?$less@V?$basic_string@DU?$char_traits@D@std@@V?$allocator@D@2@@std@@@2@V?$allocator@U?$pair@$$CBV?$basic_string@DU?$char_traits@D@std@@V?$allocator@D@2@@std@@H@std@@@2@@std@@QAEAAH$$QAV?$basic_string@DU?$char_traits@D@std@@V?$allocator@D@2@@1@@Z ; std::map<std::basic_string<char,std::char_traits<char>,std::allocator<char> >,int,std::less<std::basic_string<char,std::char_traits<char>,std::allocator<char> > >,std::allocator<std::pair<std::basic_string<char,std::char_traits<char>,std::allocator<char> > const ,int> > >::operator[]
  009f5	c7 45 fc ff ff
	ff ff		 mov	 DWORD PTR __$EHRec$[ebp+8], -1
  009fc	c7 00 14 00 00
	00		 mov	 DWORD PTR [eax], 20	; 00000014H
; File C:\Program Files\Microsoft Visual Studio\2022\Professional\VC\Tools\MSVC\14.44.35207\include\xstring

; 453  :         return _Myres > _Small_string_capacity;

  00a02	8b 4d ec	 mov	 ecx, DWORD PTR $T28[ebp+20]
  00a05	83 f9 0f	 cmp	 ecx, 15			; 0000000fH

; 3083 :         if (_My_data._Large_mode_engaged()) {

  00a08	76 2c		 jbe	 SHORT $LN826@InitAICons
; File C:\Program Files\Microsoft Visual Studio\2022\Professional\VC\Tools\MSVC\14.44.35207\include\xmemory

; 985  :         _STD _Deallocate<_New_alignof<_Ty>>(_Ptr, sizeof(_Ty) * _Count);

  00a0a	8b 55 d8	 mov	 edx, DWORD PTR $T28[ebp]
; File C:\Program Files\Microsoft Visual Studio\2022\Professional\VC\Tools\MSVC\14.44.35207\include\xstring

; 852  :         _Al.deallocate(_Old_ptr, _Capacity + 1); // +1 for null terminator

  00a0d	41		 inc	 ecx
; File C:\Program Files\Microsoft Visual Studio\2022\Professional\VC\Tools\MSVC\14.44.35207\include\xmemory

; 985  :         _STD _Deallocate<_New_alignof<_Ty>>(_Ptr, sizeof(_Ty) * _Count);

  00a0e	8b c2		 mov	 eax, edx

; 284  :         if (_Bytes >= _Big_allocation_threshold) {

  00a10	81 f9 00 10 00
	00		 cmp	 ecx, 4096		; 00001000H
  00a16	72 14		 jb	 SHORT $LN831@InitAICons

; 205  :     const uintptr_t _Ptr_container   = _Ptr_user[-1];

  00a18	8b 50 fc	 mov	 edx, DWORD PTR [eax-4]
  00a1b	83 c1 23	 add	 ecx, 35			; 00000023H
  00a1e	2b c2		 sub	 eax, edx

; 219  :     _STL_VERIFY(_Back_shift >= _Min_back_shift && _Back_shift <= _Non_user_size, "invalid argument");

  00a20	83 c0 fc	 add	 eax, -4			; fffffffcH
  00a23	83 f8 1f	 cmp	 eax, 31			; 0000001fH
  00a26	0f 87 f6 01 00
	00		 ja	 $LN896@InitAICons
$LN831@InitAICons:

; 289  :         ::operator delete(_Ptr, _Bytes);

  00a2c	51		 push	 ecx
  00a2d	52		 push	 edx
  00a2e	e8 00 00 00 00	 call	 ??3@YAXPAXI@Z		; operator delete
  00a33	83 c4 08	 add	 esp, 8
$LN826@InitAICons:
; File C:\IAGOS\server\v18\Source\Source\_AIInterface\AIMonster2.cpp

; 164  : 	g_stringTable["AIMSG_INVALID_TARGET"] = 21;

  00a36	68 00 00 00 00	 push	 OFFSET ??_C@_0BF@FNOHHEFP@AIMSG_INVALID_TARGET@
  00a3b	8d 4d c0	 lea	 ecx, DWORD PTR $T2[ebp]
  00a3e	e8 00 00 00 00	 call	 ??0?$basic_string@DU?$char_traits@D@std@@V?$allocator@D@2@@std@@QAE@QBD@Z ; std::basic_string<char,std::char_traits<char>,std::allocator<char> >::basic_string<char,std::char_traits<char>,std::allocator<char> >
  00a43	8d 45 c0	 lea	 eax, DWORD PTR $T2[ebp]
  00a46	c7 45 fc 1a 00
	00 00		 mov	 DWORD PTR __$EHRec$[ebp+8], 26 ; 0000001aH
  00a4d	50		 push	 eax
  00a4e	b9 00 00 00 00	 mov	 ecx, OFFSET ?g_stringTable@@3V?$map@V?$basic_string@DU?$char_traits@D@std@@V?$allocator@D@2@@std@@HU?$less@V?$basic_string@DU?$char_traits@D@std@@V?$allocator@D@2@@std@@@2@V?$allocator@U?$pair@$$CBV?$basic_string@DU?$char_traits@D@std@@V?$allocator@D@2@@std@@H@std@@@2@@std@@A
  00a53	e8 00 00 00 00	 call	 ??A?$map@V?$basic_string@DU?$char_traits@D@std@@V?$allocator@D@2@@std@@HU?$less@V?$basic_string@DU?$char_traits@D@std@@V?$allocator@D@2@@std@@@2@V?$allocator@U?$pair@$$CBV?$basic_string@DU?$char_traits@D@std@@V?$allocator@D@2@@std@@H@std@@@2@@std@@QAEAAH$$QAV?$basic_string@DU?$char_traits@D@std@@V?$allocator@D@2@@1@@Z ; std::map<std::basic_string<char,std::char_traits<char>,std::allocator<char> >,int,std::less<std::basic_string<char,std::char_traits<char>,std::allocator<char> > >,std::allocator<std::pair<std::basic_string<char,std::char_traits<char>,std::allocator<char> > const ,int> > >::operator[]
  00a58	c7 00 15 00 00
	00		 mov	 DWORD PTR [eax], 21	; 00000015H
; File C:\Program Files\Microsoft Visual Studio\2022\Professional\VC\Tools\MSVC\14.44.35207\include\xstring

; 453  :         return _Myres > _Small_string_capacity;

  00a5e	8b 4d d4	 mov	 ecx, DWORD PTR $T2[ebp+20]
  00a61	83 f9 0f	 cmp	 ecx, 15			; 0000000fH

; 3083 :         if (_My_data._Large_mode_engaged()) {

  00a64	76 2c		 jbe	 SHORT $LN857@InitAICons
; File C:\Program Files\Microsoft Visual Studio\2022\Professional\VC\Tools\MSVC\14.44.35207\include\xmemory

; 985  :         _STD _Deallocate<_New_alignof<_Ty>>(_Ptr, sizeof(_Ty) * _Count);

  00a66	8b 55 c0	 mov	 edx, DWORD PTR $T2[ebp]
; File C:\Program Files\Microsoft Visual Studio\2022\Professional\VC\Tools\MSVC\14.44.35207\include\xstring

; 852  :         _Al.deallocate(_Old_ptr, _Capacity + 1); // +1 for null terminator

  00a69	41		 inc	 ecx
; File C:\Program Files\Microsoft Visual Studio\2022\Professional\VC\Tools\MSVC\14.44.35207\include\xmemory

; 985  :         _STD _Deallocate<_New_alignof<_Ty>>(_Ptr, sizeof(_Ty) * _Count);

  00a6a	8b c2		 mov	 eax, edx

; 284  :         if (_Bytes >= _Big_allocation_threshold) {

  00a6c	81 f9 00 10 00
	00		 cmp	 ecx, 4096		; 00001000H
  00a72	72 14		 jb	 SHORT $LN862@InitAICons

; 205  :     const uintptr_t _Ptr_container   = _Ptr_user[-1];

  00a74	8b 50 fc	 mov	 edx, DWORD PTR [eax-4]
  00a77	83 c1 23	 add	 ecx, 35			; 00000023H
  00a7a	2b c2		 sub	 eax, edx

; 219  :     _STL_VERIFY(_Back_shift >= _Min_back_shift && _Back_shift <= _Non_user_size, "invalid argument");

  00a7c	83 c0 fc	 add	 eax, -4			; fffffffcH
  00a7f	83 f8 1f	 cmp	 eax, 31			; 0000001fH
  00a82	0f 87 a9 01 00
	00		 ja	 $LN897@InitAICons
$LN862@InitAICons:

; 289  :         ::operator delete(_Ptr, _Bytes);

  00a88	51		 push	 ecx
  00a89	52		 push	 edx
  00a8a	e8 00 00 00 00	 call	 ??3@YAXPAXI@Z		; operator delete
  00a8f	83 c4 08	 add	 esp, 8
$LN857@InitAICons:
; File C:\IAGOS\server\v18\Source\Source\_AIInterface\AIMonster2.cpp

; 165  : }

  00a92	8b 4d f4	 mov	 ecx, DWORD PTR __$EHRec$[ebp]
  00a95	64 89 0d 00 00
	00 00		 mov	 DWORD PTR fs:0, ecx
  00a9c	59		 pop	 ecx
  00a9d	8b 4d f0	 mov	 ecx, DWORD PTR __$ArrayPad$[ebp]
  00aa0	33 cd		 xor	 ecx, ebp
  00aa2	e8 00 00 00 00	 call	 @__security_check_cookie@4
  00aa7	8b e5		 mov	 esp, ebp
  00aa9	5d		 pop	 ebp
  00aaa	c3		 ret	 0
$LN871@InitAICons:
; File C:\Program Files\Microsoft Visual Studio\2022\Professional\VC\Tools\MSVC\14.44.35207\include\xmemory

; 219  :     _STL_VERIFY(_Back_shift >= _Min_back_shift && _Back_shift <= _Non_user_size, "invalid argument");

  00aab	6a 00		 push	 0
  00aad	6a 00		 push	 0
  00aaf	6a 00		 push	 0
  00ab1	6a 00		 push	 0
  00ab3	6a 00		 push	 0
  00ab5	e8 00 00 00 00	 call	 __invoke_watson
$LN872@InitAICons:
  00aba	6a 00		 push	 0
  00abc	6a 00		 push	 0
  00abe	6a 00		 push	 0
  00ac0	6a 00		 push	 0
  00ac2	6a 00		 push	 0
  00ac4	e8 00 00 00 00	 call	 __invoke_watson
$LN873@InitAICons:
  00ac9	6a 00		 push	 0
  00acb	6a 00		 push	 0
  00acd	6a 00		 push	 0
  00acf	6a 00		 push	 0
  00ad1	6a 00		 push	 0
  00ad3	e8 00 00 00 00	 call	 __invoke_watson
$LN874@InitAICons:
  00ad8	6a 00		 push	 0
  00ada	6a 00		 push	 0
  00adc	6a 00		 push	 0
  00ade	6a 00		 push	 0
  00ae0	6a 00		 push	 0
  00ae2	e8 00 00 00 00	 call	 __invoke_watson
$LN875@InitAICons:
  00ae7	6a 00		 push	 0
  00ae9	6a 00		 push	 0
  00aeb	6a 00		 push	 0
  00aed	6a 00		 push	 0
  00aef	6a 00		 push	 0
  00af1	e8 00 00 00 00	 call	 __invoke_watson
$LN876@InitAICons:
  00af6	6a 00		 push	 0
  00af8	6a 00		 push	 0
  00afa	6a 00		 push	 0
  00afc	6a 00		 push	 0
  00afe	6a 00		 push	 0
  00b00	e8 00 00 00 00	 call	 __invoke_watson
$LN877@InitAICons:
  00b05	6a 00		 push	 0
  00b07	6a 00		 push	 0
  00b09	6a 00		 push	 0
  00b0b	6a 00		 push	 0
  00b0d	6a 00		 push	 0
  00b0f	e8 00 00 00 00	 call	 __invoke_watson
$LN878@InitAICons:
  00b14	6a 00		 push	 0
  00b16	6a 00		 push	 0
  00b18	6a 00		 push	 0
  00b1a	6a 00		 push	 0
  00b1c	6a 00		 push	 0
  00b1e	e8 00 00 00 00	 call	 __invoke_watson
$LN879@InitAICons:
  00b23	6a 00		 push	 0
  00b25	6a 00		 push	 0
  00b27	6a 00		 push	 0
  00b29	6a 00		 push	 0
  00b2b	6a 00		 push	 0
  00b2d	e8 00 00 00 00	 call	 __invoke_watson
$LN880@InitAICons:
  00b32	6a 00		 push	 0
  00b34	6a 00		 push	 0
  00b36	6a 00		 push	 0
  00b38	6a 00		 push	 0
  00b3a	6a 00		 push	 0
  00b3c	e8 00 00 00 00	 call	 __invoke_watson
$LN881@InitAICons:
  00b41	6a 00		 push	 0
  00b43	6a 00		 push	 0
  00b45	6a 00		 push	 0
  00b47	6a 00		 push	 0
  00b49	6a 00		 push	 0
  00b4b	e8 00 00 00 00	 call	 __invoke_watson
$LN882@InitAICons:
  00b50	6a 00		 push	 0
  00b52	6a 00		 push	 0
  00b54	6a 00		 push	 0
  00b56	6a 00		 push	 0
  00b58	6a 00		 push	 0
  00b5a	e8 00 00 00 00	 call	 __invoke_watson
$LN883@InitAICons:
  00b5f	6a 00		 push	 0
  00b61	6a 00		 push	 0
  00b63	6a 00		 push	 0
  00b65	6a 00		 push	 0
  00b67	6a 00		 push	 0
  00b69	e8 00 00 00 00	 call	 __invoke_watson
$LN884@InitAICons:
  00b6e	6a 00		 push	 0
  00b70	6a 00		 push	 0
  00b72	6a 00		 push	 0
  00b74	6a 00		 push	 0
  00b76	6a 00		 push	 0
  00b78	e8 00 00 00 00	 call	 __invoke_watson
$LN885@InitAICons:
  00b7d	6a 00		 push	 0
  00b7f	6a 00		 push	 0
  00b81	6a 00		 push	 0
  00b83	6a 00		 push	 0
  00b85	6a 00		 push	 0
  00b87	e8 00 00 00 00	 call	 __invoke_watson
$LN886@InitAICons:
  00b8c	6a 00		 push	 0
  00b8e	6a 00		 push	 0
  00b90	6a 00		 push	 0
  00b92	6a 00		 push	 0
  00b94	6a 00		 push	 0
  00b96	e8 00 00 00 00	 call	 __invoke_watson
$LN887@InitAICons:
  00b9b	6a 00		 push	 0
  00b9d	6a 00		 push	 0
  00b9f	6a 00		 push	 0
  00ba1	6a 00		 push	 0
  00ba3	6a 00		 push	 0
  00ba5	e8 00 00 00 00	 call	 __invoke_watson
$LN888@InitAICons:
  00baa	6a 00		 push	 0
  00bac	6a 00		 push	 0
  00bae	6a 00		 push	 0
  00bb0	6a 00		 push	 0
  00bb2	6a 00		 push	 0
  00bb4	e8 00 00 00 00	 call	 __invoke_watson
$LN889@InitAICons:
  00bb9	6a 00		 push	 0
  00bbb	6a 00		 push	 0
  00bbd	6a 00		 push	 0
  00bbf	6a 00		 push	 0
  00bc1	6a 00		 push	 0
  00bc3	e8 00 00 00 00	 call	 __invoke_watson
$LN890@InitAICons:
  00bc8	6a 00		 push	 0
  00bca	6a 00		 push	 0
  00bcc	6a 00		 push	 0
  00bce	6a 00		 push	 0
  00bd0	6a 00		 push	 0
  00bd2	e8 00 00 00 00	 call	 __invoke_watson
$LN891@InitAICons:
  00bd7	6a 00		 push	 0
  00bd9	6a 00		 push	 0
  00bdb	6a 00		 push	 0
  00bdd	6a 00		 push	 0
  00bdf	6a 00		 push	 0
  00be1	e8 00 00 00 00	 call	 __invoke_watson
$LN892@InitAICons:
  00be6	6a 00		 push	 0
  00be8	6a 00		 push	 0
  00bea	6a 00		 push	 0
  00bec	6a 00		 push	 0
  00bee	6a 00		 push	 0
  00bf0	e8 00 00 00 00	 call	 __invoke_watson
$LN893@InitAICons:
  00bf5	6a 00		 push	 0
  00bf7	6a 00		 push	 0
  00bf9	6a 00		 push	 0
  00bfb	6a 00		 push	 0
  00bfd	6a 00		 push	 0
  00bff	e8 00 00 00 00	 call	 __invoke_watson
$LN894@InitAICons:
  00c04	6a 00		 push	 0
  00c06	6a 00		 push	 0
  00c08	6a 00		 push	 0
  00c0a	6a 00		 push	 0
  00c0c	6a 00		 push	 0
  00c0e	e8 00 00 00 00	 call	 __invoke_watson
$LN895@InitAICons:
  00c13	6a 00		 push	 0
  00c15	6a 00		 push	 0
  00c17	6a 00		 push	 0
  00c19	6a 00		 push	 0
  00c1b	6a 00		 push	 0
  00c1d	e8 00 00 00 00	 call	 __invoke_watson
$LN896@InitAICons:
  00c22	6a 00		 push	 0
  00c24	6a 00		 push	 0
  00c26	6a 00		 push	 0
  00c28	6a 00		 push	 0
  00c2a	6a 00		 push	 0
  00c2c	e8 00 00 00 00	 call	 __invoke_watson
$LN897@InitAICons:
  00c31	6a 00		 push	 0
  00c33	6a 00		 push	 0
  00c35	6a 00		 push	 0
  00c37	6a 00		 push	 0
  00c39	6a 00		 push	 0
  00c3b	e8 00 00 00 00	 call	 __invoke_watson
$LN869@InitAICons:
  00c40	cc		 int	 3
_TEXT	ENDS
;	COMDAT text$x
text$x	SEGMENT
__unwindfunclet$?InitAIConst@@YAXXZ$0:
  00000	8d 4d d8	 lea	 ecx, DWORD PTR $T3[ebp]
  00003	e9 00 00 00 00	 jmp	 ??1?$basic_string@DU?$char_traits@D@std@@V?$allocator@D@2@@std@@QAE@XZ ; std::basic_string<char,std::char_traits<char>,std::allocator<char> >::~basic_string<char,std::char_traits<char>,std::allocator<char> >
__unwindfunclet$?InitAIConst@@YAXXZ$1:
  00008	8d 4d d8	 lea	 ecx, DWORD PTR $T4[ebp]
  0000b	e9 00 00 00 00	 jmp	 ??1?$basic_string@DU?$char_traits@D@std@@V?$allocator@D@2@@std@@QAE@XZ ; std::basic_string<char,std::char_traits<char>,std::allocator<char> >::~basic_string<char,std::char_traits<char>,std::allocator<char> >
__unwindfunclet$?InitAIConst@@YAXXZ$2:
  00010	8d 4d d8	 lea	 ecx, DWORD PTR $T5[ebp]
  00013	e9 00 00 00 00	 jmp	 ??1?$basic_string@DU?$char_traits@D@std@@V?$allocator@D@2@@std@@QAE@XZ ; std::basic_string<char,std::char_traits<char>,std::allocator<char> >::~basic_string<char,std::char_traits<char>,std::allocator<char> >
__unwindfunclet$?InitAIConst@@YAXXZ$3:
  00018	8d 4d d8	 lea	 ecx, DWORD PTR $T6[ebp]
  0001b	e9 00 00 00 00	 jmp	 ??1?$basic_string@DU?$char_traits@D@std@@V?$allocator@D@2@@std@@QAE@XZ ; std::basic_string<char,std::char_traits<char>,std::allocator<char> >::~basic_string<char,std::char_traits<char>,std::allocator<char> >
__unwindfunclet$?InitAIConst@@YAXXZ$4:
  00020	8d 4d d8	 lea	 ecx, DWORD PTR $T7[ebp]
  00023	e9 00 00 00 00	 jmp	 ??1?$basic_string@DU?$char_traits@D@std@@V?$allocator@D@2@@std@@QAE@XZ ; std::basic_string<char,std::char_traits<char>,std::allocator<char> >::~basic_string<char,std::char_traits<char>,std::allocator<char> >
__unwindfunclet$?InitAIConst@@YAXXZ$5:
  00028	8d 4d d8	 lea	 ecx, DWORD PTR $T8[ebp]
  0002b	e9 00 00 00 00	 jmp	 ??1?$basic_string@DU?$char_traits@D@std@@V?$allocator@D@2@@std@@QAE@XZ ; std::basic_string<char,std::char_traits<char>,std::allocator<char> >::~basic_string<char,std::char_traits<char>,std::allocator<char> >
__unwindfunclet$?InitAIConst@@YAXXZ$6:
  00030	8d 4d d8	 lea	 ecx, DWORD PTR $T9[ebp]
  00033	e9 00 00 00 00	 jmp	 ??1?$basic_string@DU?$char_traits@D@std@@V?$allocator@D@2@@std@@QAE@XZ ; std::basic_string<char,std::char_traits<char>,std::allocator<char> >::~basic_string<char,std::char_traits<char>,std::allocator<char> >
__unwindfunclet$?InitAIConst@@YAXXZ$7:
  00038	8d 4d d8	 lea	 ecx, DWORD PTR $T10[ebp]
  0003b	e9 00 00 00 00	 jmp	 ??1?$basic_string@DU?$char_traits@D@std@@V?$allocator@D@2@@std@@QAE@XZ ; std::basic_string<char,std::char_traits<char>,std::allocator<char> >::~basic_string<char,std::char_traits<char>,std::allocator<char> >
__unwindfunclet$?InitAIConst@@YAXXZ$8:
  00040	8d 4d d8	 lea	 ecx, DWORD PTR $T11[ebp]
  00043	e9 00 00 00 00	 jmp	 ??1?$basic_string@DU?$char_traits@D@std@@V?$allocator@D@2@@std@@QAE@XZ ; std::basic_string<char,std::char_traits<char>,std::allocator<char> >::~basic_string<char,std::char_traits<char>,std::allocator<char> >
__unwindfunclet$?InitAIConst@@YAXXZ$9:
  00048	8d 4d d8	 lea	 ecx, DWORD PTR $T12[ebp]
  0004b	e9 00 00 00 00	 jmp	 ??1?$basic_string@DU?$char_traits@D@std@@V?$allocator@D@2@@std@@QAE@XZ ; std::basic_string<char,std::char_traits<char>,std::allocator<char> >::~basic_string<char,std::char_traits<char>,std::allocator<char> >
__unwindfunclet$?InitAIConst@@YAXXZ$10:
  00050	8d 4d d8	 lea	 ecx, DWORD PTR $T13[ebp]
  00053	e9 00 00 00 00	 jmp	 ??1?$basic_string@DU?$char_traits@D@std@@V?$allocator@D@2@@std@@QAE@XZ ; std::basic_string<char,std::char_traits<char>,std::allocator<char> >::~basic_string<char,std::char_traits<char>,std::allocator<char> >
__unwindfunclet$?InitAIConst@@YAXXZ$11:
  00058	8d 4d d8	 lea	 ecx, DWORD PTR $T14[ebp]
  0005b	e9 00 00 00 00	 jmp	 ??1?$basic_string@DU?$char_traits@D@std@@V?$allocator@D@2@@std@@QAE@XZ ; std::basic_string<char,std::char_traits<char>,std::allocator<char> >::~basic_string<char,std::char_traits<char>,std::allocator<char> >
__unwindfunclet$?InitAIConst@@YAXXZ$12:
  00060	8d 4d d8	 lea	 ecx, DWORD PTR $T15[ebp]
  00063	e9 00 00 00 00	 jmp	 ??1?$basic_string@DU?$char_traits@D@std@@V?$allocator@D@2@@std@@QAE@XZ ; std::basic_string<char,std::char_traits<char>,std::allocator<char> >::~basic_string<char,std::char_traits<char>,std::allocator<char> >
__unwindfunclet$?InitAIConst@@YAXXZ$13:
  00068	8d 4d d8	 lea	 ecx, DWORD PTR $T16[ebp]
  0006b	e9 00 00 00 00	 jmp	 ??1?$basic_string@DU?$char_traits@D@std@@V?$allocator@D@2@@std@@QAE@XZ ; std::basic_string<char,std::char_traits<char>,std::allocator<char> >::~basic_string<char,std::char_traits<char>,std::allocator<char> >
__unwindfunclet$?InitAIConst@@YAXXZ$14:
  00070	8d 4d d8	 lea	 ecx, DWORD PTR $T17[ebp]
  00073	e9 00 00 00 00	 jmp	 ??1?$basic_string@DU?$char_traits@D@std@@V?$allocator@D@2@@std@@QAE@XZ ; std::basic_string<char,std::char_traits<char>,std::allocator<char> >::~basic_string<char,std::char_traits<char>,std::allocator<char> >
__unwindfunclet$?InitAIConst@@YAXXZ$15:
  00078	8d 4d d8	 lea	 ecx, DWORD PTR $T18[ebp]
  0007b	e9 00 00 00 00	 jmp	 ??1?$basic_string@DU?$char_traits@D@std@@V?$allocator@D@2@@std@@QAE@XZ ; std::basic_string<char,std::char_traits<char>,std::allocator<char> >::~basic_string<char,std::char_traits<char>,std::allocator<char> >
__unwindfunclet$?InitAIConst@@YAXXZ$16:
  00080	8d 4d d8	 lea	 ecx, DWORD PTR $T19[ebp]
  00083	e9 00 00 00 00	 jmp	 ??1?$basic_string@DU?$char_traits@D@std@@V?$allocator@D@2@@std@@QAE@XZ ; std::basic_string<char,std::char_traits<char>,std::allocator<char> >::~basic_string<char,std::char_traits<char>,std::allocator<char> >
__unwindfunclet$?InitAIConst@@YAXXZ$17:
  00088	8d 4d d8	 lea	 ecx, DWORD PTR $T20[ebp]
  0008b	e9 00 00 00 00	 jmp	 ??1?$basic_string@DU?$char_traits@D@std@@V?$allocator@D@2@@std@@QAE@XZ ; std::basic_string<char,std::char_traits<char>,std::allocator<char> >::~basic_string<char,std::char_traits<char>,std::allocator<char> >
__unwindfunclet$?InitAIConst@@YAXXZ$18:
  00090	8d 4d d8	 lea	 ecx, DWORD PTR $T21[ebp]
  00093	e9 00 00 00 00	 jmp	 ??1?$basic_string@DU?$char_traits@D@std@@V?$allocator@D@2@@std@@QAE@XZ ; std::basic_string<char,std::char_traits<char>,std::allocator<char> >::~basic_string<char,std::char_traits<char>,std::allocator<char> >
__unwindfunclet$?InitAIConst@@YAXXZ$19:
  00098	8d 4d d8	 lea	 ecx, DWORD PTR $T22[ebp]
  0009b	e9 00 00 00 00	 jmp	 ??1?$basic_string@DU?$char_traits@D@std@@V?$allocator@D@2@@std@@QAE@XZ ; std::basic_string<char,std::char_traits<char>,std::allocator<char> >::~basic_string<char,std::char_traits<char>,std::allocator<char> >
__unwindfunclet$?InitAIConst@@YAXXZ$20:
  000a0	8d 4d d8	 lea	 ecx, DWORD PTR $T23[ebp]
  000a3	e9 00 00 00 00	 jmp	 ??1?$basic_string@DU?$char_traits@D@std@@V?$allocator@D@2@@std@@QAE@XZ ; std::basic_string<char,std::char_traits<char>,std::allocator<char> >::~basic_string<char,std::char_traits<char>,std::allocator<char> >
__unwindfunclet$?InitAIConst@@YAXXZ$21:
  000a8	8d 4d d8	 lea	 ecx, DWORD PTR $T24[ebp]
  000ab	e9 00 00 00 00	 jmp	 ??1?$basic_string@DU?$char_traits@D@std@@V?$allocator@D@2@@std@@QAE@XZ ; std::basic_string<char,std::char_traits<char>,std::allocator<char> >::~basic_string<char,std::char_traits<char>,std::allocator<char> >
__unwindfunclet$?InitAIConst@@YAXXZ$22:
  000b0	8d 4d d8	 lea	 ecx, DWORD PTR $T25[ebp]
  000b3	e9 00 00 00 00	 jmp	 ??1?$basic_string@DU?$char_traits@D@std@@V?$allocator@D@2@@std@@QAE@XZ ; std::basic_string<char,std::char_traits<char>,std::allocator<char> >::~basic_string<char,std::char_traits<char>,std::allocator<char> >
__unwindfunclet$?InitAIConst@@YAXXZ$23:
  000b8	8d 4d d8	 lea	 ecx, DWORD PTR $T26[ebp]
  000bb	e9 00 00 00 00	 jmp	 ??1?$basic_string@DU?$char_traits@D@std@@V?$allocator@D@2@@std@@QAE@XZ ; std::basic_string<char,std::char_traits<char>,std::allocator<char> >::~basic_string<char,std::char_traits<char>,std::allocator<char> >
__unwindfunclet$?InitAIConst@@YAXXZ$24:
  000c0	8d 4d d8	 lea	 ecx, DWORD PTR $T27[ebp]
  000c3	e9 00 00 00 00	 jmp	 ??1?$basic_string@DU?$char_traits@D@std@@V?$allocator@D@2@@std@@QAE@XZ ; std::basic_string<char,std::char_traits<char>,std::allocator<char> >::~basic_string<char,std::char_traits<char>,std::allocator<char> >
__unwindfunclet$?InitAIConst@@YAXXZ$25:
  000c8	8d 4d d8	 lea	 ecx, DWORD PTR $T28[ebp]
  000cb	e9 00 00 00 00	 jmp	 ??1?$basic_string@DU?$char_traits@D@std@@V?$allocator@D@2@@std@@QAE@XZ ; std::basic_string<char,std::char_traits<char>,std::allocator<char> >::~basic_string<char,std::char_traits<char>,std::allocator<char> >
__unwindfunclet$?InitAIConst@@YAXXZ$26:
  000d0	8d 4d c0	 lea	 ecx, DWORD PTR $T2[ebp]
  000d3	e9 00 00 00 00	 jmp	 ??1?$basic_string@DU?$char_traits@D@std@@V?$allocator@D@2@@std@@QAE@XZ ; std::basic_string<char,std::char_traits<char>,std::allocator<char> >::~basic_string<char,std::char_traits<char>,std::allocator<char> >
  000d8	cc		 int	 3
  000d9	cc		 int	 3
  000da	cc		 int	 3
  000db	cc		 int	 3
  000dc	cc		 int	 3
__ehhandler$?InitAIConst@@YAXXZ:
  000dd	90		 npad	 1
  000de	90		 npad	 1
  000df	8b 54 24 08	 mov	 edx, DWORD PTR [esp+8]
  000e3	8d 42 0c	 lea	 eax, DWORD PTR [edx+12]
  000e6	8b 4a c8	 mov	 ecx, DWORD PTR [edx-56]
  000e9	33 c8		 xor	 ecx, eax
  000eb	e8 00 00 00 00	 call	 @__security_check_cookie@4
  000f0	8b 4a fc	 mov	 ecx, DWORD PTR [edx-4]
  000f3	33 c8		 xor	 ecx, eax
  000f5	e8 00 00 00 00	 call	 @__security_check_cookie@4
  000fa	b8 00 00 00 00	 mov	 eax, OFFSET __ehfuncinfo$?InitAIConst@@YAXXZ
  000ff	e9 00 00 00 00	 jmp	 ___CxxFrameHandler3
text$x	ENDS
?InitAIConst@@YAXXZ ENDP				; InitAIConst
; Function compile flags: /Ogtp
; File C:\IAGOS\server\v18\Source\Source\_AIInterface\AIMonster2.cpp
; File C:\Program Files\Microsoft Visual Studio\2022\Professional\VC\Tools\MSVC\14.44.35207\include\xstring
; File C:\IAGOS\server\v18\Source\Source\_AIInterface\AIMonster2.cpp
;	COMDAT ?ReadAIScriptHelper@@YAHPAU_iobuf@@@Z
_TEXT	SEGMENT
_strState$ = -244					; size = 24
$T2 = -220						; size = 4
_nAI$ = -216						; size = 4
_pState$1$ = -212					; size = 4
_nState$1$ = -212					; size = 4
_szTokens$ = -208					; size = 192
__$ArrayPad$ = -16					; size = 4
__$EHRec$ = -12						; size = 12
_fp$ = 8						; size = 4
?ReadAIScriptHelper@@YAHPAU_iobuf@@@Z PROC		; ReadAIScriptHelper, COMDAT

; 70   : {

  00000	55		 push	 ebp
  00001	8b ec		 mov	 ebp, esp
  00003	6a ff		 push	 -1
  00005	68 00 00 00 00	 push	 __ehhandler$?ReadAIScriptHelper@@YAHPAU_iobuf@@@Z
  0000a	64 a1 00 00 00
	00		 mov	 eax, DWORD PTR fs:0
  00010	50		 push	 eax
  00011	81 ec e8 00 00
	00		 sub	 esp, 232		; 000000e8H
  00017	a1 00 00 00 00	 mov	 eax, DWORD PTR ___security_cookie
  0001c	33 c5		 xor	 eax, ebp
  0001e	89 45 f0	 mov	 DWORD PTR __$ArrayPad$[ebp], eax
  00021	56		 push	 esi
  00022	57		 push	 edi
  00023	50		 push	 eax
  00024	8d 45 f4	 lea	 eax, DWORD PTR __$EHRec$[ebp]
  00027	64 a3 00 00 00
	00		 mov	 DWORD PTR fs:0, eax
  0002d	8b 7d 08	 mov	 edi, DWORD PTR _fp$[ebp]
  00030	0f 57 c0	 xorps	 xmm0, xmm0
; File C:\Program Files\Microsoft Visual Studio\2022\Professional\VC\Tools\MSVC\14.44.35207\include\xstring

; 493  :         _CONSTEXPR20 _Bxty() noexcept : _Buf() {} // user-provided, for fancy pointers

  00033	0f 11 85 0c ff
	ff ff		 movups	 XMMWORD PTR _strState$[ebp], xmm0

; 860  :         _My_data._Mysize = 0;

  0003a	c7 85 1c ff ff
	ff 00 00 00 00	 mov	 DWORD PTR _strState$[ebp+16], 0

; 861  :         _My_data._Myres  = _Small_string_capacity;

  00044	c7 85 20 ff ff
	ff 0f 00 00 00	 mov	 DWORD PTR _strState$[ebp+20], 15 ; 0000000fH

; 862  :         _My_data._Activate_SSO_buffer();
; 863  : 
; 864  :         // the _Traits::assign is last so the codegen doesn't think the char write can alias this
; 865  :         _Traits::assign(_My_data._Bx._Buf[0], _Elem());

  0004e	c6 85 0c ff ff
	ff 00		 mov	 BYTE PTR _strState$[ebp], 0
; File C:\IAGOS\server\v18\Source\Source\_AIInterface\AIMonster2.cpp

; 75   : 	int nBlock = 0;

  00055	33 f6		 xor	 esi, esi
  00057	c7 45 fc 00 00
	00 00		 mov	 DWORD PTR __$EHRec$[ebp+8], 0

; 76   : 	CFSMstate* pState = NULL;

  0005e	89 b5 2c ff ff
	ff		 mov	 DWORD PTR _pState$1$[ebp], esi
$LL4@ReadAIScri:

; 77   : 
; 78   : 	for( ;; )
; 79   : 	{
; 80   : 		type = ReadAILine( fp, szTokens );

  00064	8d 85 30 ff ff
	ff		 lea	 eax, DWORD PTR _szTokens$[ebp]
  0006a	50		 push	 eax
  0006b	57		 push	 edi
  0006c	e8 00 00 00 00	 call	 ?ReadAILine@@YA?AW4READ_TYPE@@PAU_iobuf@@QAY0EA@D@Z ; ReadAILine
  00071	83 c4 08	 add	 esp, 8

; 81   : 		switch( type )

  00074	83 f8 66	 cmp	 eax, 102		; 00000066H
  00077	77 eb		 ja	 SHORT $LL4@ReadAIScri
  00079	0f b6 80 00 00
	00 00		 movzx	 eax, BYTE PTR $LN117@ReadAIScri[eax]
  00080	ff 24 85 00 00
	00 00		 jmp	 DWORD PTR $LN118@ReadAIScri[eax*4]
$LN11@ReadAIScri:

; 82   : 		{
; 83   : 		case READ_TYPE_FILE_EOF: 
; 84   : 			return TRUE;
; 85   : 		case READ_TYPE_FILE_ERROR:
; 86   : 			return FALSE;
; 87   : 		case READ_TOKEN0:
; 88   : 		case READ_COMMENT:
; 89   : 			continue;
; 90   : 		case READ_TOKEN1:
; 91   : 			if( szTokens[0][0] == '{' )

  00087	8a 85 30 ff ff
	ff		 mov	 al, BYTE PTR _szTokens$[ebp]
  0008d	3c 7b		 cmp	 al, 123			; 0000007bH
  0008f	75 03		 jne	 SHORT $LN12@ReadAIScri

; 92   : 				++nBlock;

  00091	46		 inc	 esi
  00092	eb d0		 jmp	 SHORT $LL4@ReadAIScri
$LN12@ReadAIScri:

; 93   : 			else if( szTokens[0][0] == '}' )

  00094	3c 7d		 cmp	 al, 125			; 0000007dH
  00096	75 cc		 jne	 SHORT $LL4@ReadAIScri

; 94   : 				--nBlock;

  00098	4e		 dec	 esi

; 95   : 			break;

  00099	eb c9		 jmp	 SHORT $LL4@ReadAIScri
$LN15@ReadAIScri:

; 96   : 		case READ_TOKEN2:
; 97   : 			if( nBlock == 0 )

  0009b	85 f6		 test	 esi, esi
  0009d	75 25		 jne	 SHORT $LN16@ReadAIScri

; 98   : 			{
; 99   : 				if( memcmp( "TYPE", szTokens[0], 4 ) == 0 )

  0009f	8d 85 30 ff ff
	ff		 lea	 eax, DWORD PTR _szTokens$[ebp]
  000a5	81 38 54 59 50
	45		 cmp	 DWORD PTR [eax], 1162893652 ; 45505954H
  000ab	75 b7		 jne	 SHORT $LL4@ReadAIScri

; 100  : 				{
; 101  : 					nAI = atoi( szTokens[1] );

  000ad	8d 85 70 ff ff
	ff		 lea	 eax, DWORD PTR _szTokens$[ebp+64]
  000b3	50		 push	 eax
  000b4	e8 00 00 00 00	 call	 _atoi
  000b9	83 c4 04	 add	 esp, 4
  000bc	89 85 28 ff ff
	ff		 mov	 DWORD PTR _nAI$[ebp], eax

; 102  : 					//printf("type:%d\n", nAI);
; 103  : 				}
; 104  : 			}

  000c2	eb a0		 jmp	 SHORT $LL4@ReadAIScri
$LN16@ReadAIScri:

; 105  : 			else if( nBlock == 1 )

  000c4	83 fe 01	 cmp	 esi, 1
  000c7	75 9b		 jne	 SHORT $LL4@ReadAIScri

; 106  : 			{
; 107  : 				nState = GetAIConst( szTokens[0] );

  000c9	8d 85 30 ff ff
	ff		 lea	 eax, DWORD PTR _szTokens$[ebp]
  000cf	50		 push	 eax
  000d0	e8 00 00 00 00	 call	 ?GetAIConst@@YAHPBD@Z	; GetAIConst

; 108  : 				pState = new CFSMstate( nState );

  000d5	6a 14		 push	 20			; 00000014H
  000d7	89 85 2c ff ff
	ff		 mov	 DWORD PTR _nState$1$[ebp], eax
  000dd	e8 00 00 00 00	 call	 ??2@YAPAXI@Z		; operator new
  000e2	83 c4 08	 add	 esp, 8
  000e5	89 85 24 ff ff
	ff		 mov	 DWORD PTR $T2[ebp], eax
  000eb	c6 45 fc 01	 mov	 BYTE PTR __$EHRec$[ebp+8], 1
  000ef	85 c0		 test	 eax, eax
  000f1	74 15		 je	 SHORT $LN23@ReadAIScri
  000f3	ff b5 2c ff ff
	ff		 push	 DWORD PTR _nState$1$[ebp]
  000f9	8b c8		 mov	 ecx, eax
  000fb	e8 00 00 00 00	 call	 ??0CFSMstate@@QAE@H@Z	; CFSMstate::CFSMstate
  00100	89 85 2c ff ff
	ff		 mov	 DWORD PTR _pState$1$[ebp], eax
  00106	eb 0a		 jmp	 SHORT $LN24@ReadAIScri
$LN23@ReadAIScri:
  00108	c7 85 2c ff ff
	ff 00 00 00 00	 mov	 DWORD PTR _pState$1$[ebp], 0
$LN24@ReadAIScri:

; 109  : 				
; 110  : 				int nPolling = atoi( szTokens[1] );

  00112	8d 85 70 ff ff
	ff		 lea	 eax, DWORD PTR _szTokens$[ebp+64]
  00118	c6 45 fc 00	 mov	 BYTE PTR __$EHRec$[ebp+8], 0
  0011c	50		 push	 eax
  0011d	e8 00 00 00 00	 call	 _atoi

; 111  : 				pState->SetPolling( nPolling );

  00122	8b 8d 2c ff ff
	ff		 mov	 ecx, DWORD PTR _pState$1$[ebp]
  00128	83 c4 04	 add	 esp, 4
  0012b	50		 push	 eax
  0012c	e8 00 00 00 00	 call	 ?SetPolling@CFSMstate@@QAEXH@Z ; CFSMstate::SetPolling

; 112  : 				CFSM* pFSM = GetFSM( nAI ); // nAI = FSM_TYPE_0

  00131	ff b5 28 ff ff
	ff		 push	 DWORD PTR _nAI$[ebp]
  00137	e8 00 00 00 00	 call	 ?GetFSM@@YAPAVCFSM@@K@Z	; GetFSM
  0013c	83 c4 04	 add	 esp, 4

; 113  : 				pFSM->AddState( pState );

  0013f	8b c8		 mov	 ecx, eax
  00141	ff b5 2c ff ff
	ff		 push	 DWORD PTR _pState$1$[ebp]
  00147	e8 00 00 00 00	 call	 ?AddState@CFSM@@QAEHPAVCFSMstate@@@Z ; CFSM::AddState

; 114  : 
; 115  : 				//printf("state:%s(%d)\n", szTokens[0], nState );
; 116  : 			}
; 117  : 			break;

  0014c	e9 13 ff ff ff	 jmp	 $LL4@ReadAIScri
$LN20@ReadAIScri:

; 118  : 		case READ_TOKEN3:
; 119  : 			if( nBlock == 2 )

  00151	83 fe 02	 cmp	 esi, 2
  00154	0f 85 0a ff ff
	ff		 jne	 $LL4@ReadAIScri

; 120  : 			{
; 121  : 				// AIMSG_TIMEOUT 1000 AI2_SEARCH
; 122  : 				pState->AddTransition( GetAIConst( szTokens[0] ), 

  0015a	8d 85 70 ff ff
	ff		 lea	 eax, DWORD PTR _szTokens$[ebp+64]
  00160	50		 push	 eax
  00161	e8 00 00 00 00	 call	 _atoi
  00166	83 c4 04	 add	 esp, 4
  00169	50		 push	 eax
  0016a	8d 45 b0	 lea	 eax, DWORD PTR _szTokens$[ebp+128]
  0016d	50		 push	 eax
  0016e	e8 00 00 00 00	 call	 ?GetAIConst@@YAHPBD@Z	; GetAIConst
  00173	83 c4 04	 add	 esp, 4
  00176	50		 push	 eax
  00177	8d 85 30 ff ff
	ff		 lea	 eax, DWORD PTR _szTokens$[ebp]
  0017d	50		 push	 eax
  0017e	e8 00 00 00 00	 call	 ?GetAIConst@@YAHPBD@Z	; GetAIConst
  00183	8b 8d 2c ff ff
	ff		 mov	 ecx, DWORD PTR _pState$1$[ebp]
  00189	83 c4 04	 add	 esp, 4
  0018c	50		 push	 eax
  0018d	e8 00 00 00 00	 call	 ?AddTransition@CFSMstate@@QAEXHHK@Z ; CFSMstate::AddTransition
  00192	e9 cd fe ff ff	 jmp	 $LL4@ReadAIScri
$LN7@ReadAIScri:

; 123  : 					                   GetAIConst( szTokens[2] ), 
; 124  : 									   atoi( szTokens[1] ) );
; 125  : 			}
; 126  : 			break;
; 127  : 		}		
; 128  : 	}
; 129  : 
; 130  : 	return TRUE;

  00197	b8 01 00 00 00	 mov	 eax, 1
  0019c	eb 02		 jmp	 SHORT $LN27@ReadAIScri
$LN8@ReadAIScri:
  0019e	33 c0		 xor	 eax, eax
$LN27@ReadAIScri:

; 131  : }

  001a0	8b 4d f4	 mov	 ecx, DWORD PTR __$EHRec$[ebp]
  001a3	64 89 0d 00 00
	00 00		 mov	 DWORD PTR fs:0, ecx
  001aa	59		 pop	 ecx
  001ab	5f		 pop	 edi
  001ac	5e		 pop	 esi
  001ad	8b 4d f0	 mov	 ecx, DWORD PTR __$ArrayPad$[ebp]
  001b0	33 cd		 xor	 ecx, ebp
  001b2	e8 00 00 00 00	 call	 @__security_check_cookie@4
  001b7	8b e5		 mov	 esp, ebp
  001b9	5d		 pop	 ebp
  001ba	c3		 ret	 0
  001bb	90		 npad	 1
$LN118@ReadAIScri:
  001bc	00 00 00 00	 DD	 $LL4@ReadAIScri
  001c0	00 00 00 00	 DD	 $LN11@ReadAIScri
  001c4	00 00 00 00	 DD	 $LN15@ReadAIScri
  001c8	00 00 00 00	 DD	 $LN20@ReadAIScri
  001cc	00 00 00 00	 DD	 $LN8@ReadAIScri
  001d0	00 00 00 00	 DD	 $LN7@ReadAIScri
  001d4	00 00 00 00	 DD	 $LL4@ReadAIScri
$LN117@ReadAIScri:
  001d8	00		 DB	 0
  001d9	01		 DB	 1
  001da	02		 DB	 2
  001db	03		 DB	 3
  001dc	06		 DB	 6
  001dd	06		 DB	 6
  001de	06		 DB	 6
  001df	06		 DB	 6
  001e0	06		 DB	 6
  001e1	06		 DB	 6
  001e2	06		 DB	 6
  001e3	06		 DB	 6
  001e4	06		 DB	 6
  001e5	06		 DB	 6
  001e6	06		 DB	 6
  001e7	06		 DB	 6
  001e8	06		 DB	 6
  001e9	06		 DB	 6
  001ea	06		 DB	 6
  001eb	06		 DB	 6
  001ec	06		 DB	 6
  001ed	06		 DB	 6
  001ee	06		 DB	 6
  001ef	06		 DB	 6
  001f0	06		 DB	 6
  001f1	06		 DB	 6
  001f2	06		 DB	 6
  001f3	06		 DB	 6
  001f4	06		 DB	 6
  001f5	06		 DB	 6
  001f6	06		 DB	 6
  001f7	06		 DB	 6
  001f8	06		 DB	 6
  001f9	06		 DB	 6
  001fa	06		 DB	 6
  001fb	06		 DB	 6
  001fc	06		 DB	 6
  001fd	06		 DB	 6
  001fe	06		 DB	 6
  001ff	06		 DB	 6
  00200	06		 DB	 6
  00201	06		 DB	 6
  00202	06		 DB	 6
  00203	06		 DB	 6
  00204	06		 DB	 6
  00205	06		 DB	 6
  00206	06		 DB	 6
  00207	06		 DB	 6
  00208	06		 DB	 6
  00209	06		 DB	 6
  0020a	06		 DB	 6
  0020b	06		 DB	 6
  0020c	06		 DB	 6
  0020d	06		 DB	 6
  0020e	06		 DB	 6
  0020f	06		 DB	 6
  00210	06		 DB	 6
  00211	06		 DB	 6
  00212	06		 DB	 6
  00213	06		 DB	 6
  00214	06		 DB	 6
  00215	06		 DB	 6
  00216	06		 DB	 6
  00217	06		 DB	 6
  00218	06		 DB	 6
  00219	06		 DB	 6
  0021a	06		 DB	 6
  0021b	06		 DB	 6
  0021c	06		 DB	 6
  0021d	06		 DB	 6
  0021e	06		 DB	 6
  0021f	06		 DB	 6
  00220	06		 DB	 6
  00221	06		 DB	 6
  00222	06		 DB	 6
  00223	06		 DB	 6
  00224	06		 DB	 6
  00225	06		 DB	 6
  00226	06		 DB	 6
  00227	06		 DB	 6
  00228	06		 DB	 6
  00229	06		 DB	 6
  0022a	06		 DB	 6
  0022b	06		 DB	 6
  0022c	06		 DB	 6
  0022d	06		 DB	 6
  0022e	06		 DB	 6
  0022f	06		 DB	 6
  00230	06		 DB	 6
  00231	06		 DB	 6
  00232	06		 DB	 6
  00233	06		 DB	 6
  00234	06		 DB	 6
  00235	06		 DB	 6
  00236	06		 DB	 6
  00237	06		 DB	 6
  00238	06		 DB	 6
  00239	06		 DB	 6
  0023a	06		 DB	 6
  0023b	06		 DB	 6
  0023c	00		 DB	 0
  0023d	04		 DB	 4
  0023e	05		 DB	 5
_TEXT	ENDS
;	COMDAT text$x
text$x	SEGMENT
__unwindfunclet$?ReadAIScriptHelper@@YAHPAU_iobuf@@@Z$0:
  00000	8d 8d 0c ff ff
	ff		 lea	 ecx, DWORD PTR _strState$[ebp]
  00006	e9 00 00 00 00	 jmp	 ??1?$basic_string@DU?$char_traits@D@std@@V?$allocator@D@2@@std@@QAE@XZ ; std::basic_string<char,std::char_traits<char>,std::allocator<char> >::~basic_string<char,std::char_traits<char>,std::allocator<char> >
__unwindfunclet$?ReadAIScriptHelper@@YAHPAU_iobuf@@@Z$1:
  0000b	6a 14		 push	 20			; 00000014H
  0000d	8b 85 24 ff ff
	ff		 mov	 eax, DWORD PTR $T2[ebp]
  00013	50		 push	 eax
  00014	e8 00 00 00 00	 call	 ??3@YAXPAXI@Z		; operator delete
  00019	83 c4 08	 add	 esp, 8
  0001c	c3		 ret	 0
  0001d	cc		 int	 3
  0001e	cc		 int	 3
  0001f	cc		 int	 3
  00020	cc		 int	 3
  00021	cc		 int	 3
__ehhandler$?ReadAIScriptHelper@@YAHPAU_iobuf@@@Z:
  00022	90		 npad	 1
  00023	90		 npad	 1
  00024	8b 54 24 08	 mov	 edx, DWORD PTR [esp+8]
  00028	8d 42 0c	 lea	 eax, DWORD PTR [edx+12]
  0002b	8b 8a 0c ff ff
	ff		 mov	 ecx, DWORD PTR [edx-244]
  00031	33 c8		 xor	 ecx, eax
  00033	e8 00 00 00 00	 call	 @__security_check_cookie@4
  00038	8b 4a fc	 mov	 ecx, DWORD PTR [edx-4]
  0003b	33 c8		 xor	 ecx, eax
  0003d	e8 00 00 00 00	 call	 @__security_check_cookie@4
  00042	b8 00 00 00 00	 mov	 eax, OFFSET __ehfuncinfo$?ReadAIScriptHelper@@YAHPAU_iobuf@@@Z
  00047	e9 00 00 00 00	 jmp	 ___CxxFrameHandler3
text$x	ENDS
?ReadAIScriptHelper@@YAHPAU_iobuf@@@Z ENDP		; ReadAIScriptHelper
; Function compile flags: /Ogtp
; File C:\IAGOS\server\v18\Source\Source\_AIInterface\AIMonster2.cpp
;	COMDAT ?ReadAILine@@YA?AW4READ_TYPE@@PAU_iobuf@@QAY0EA@D@Z
_TEXT	SEGMENT
_szBuffer$ = -132					; size = 128
__$ArrayPad$ = -4					; size = 4
_fp$ = 8						; size = 4
_szTokens$ = 12						; size = 4
?ReadAILine@@YA?AW4READ_TYPE@@PAU_iobuf@@QAY0EA@D@Z PROC ; ReadAILine, COMDAT

; 47   : {

  00000	55		 push	 ebp
  00001	8b ec		 mov	 ebp, esp
  00003	81 ec 84 00 00
	00		 sub	 esp, 132		; 00000084H
  00009	a1 00 00 00 00	 mov	 eax, DWORD PTR ___security_cookie
  0000e	33 c5		 xor	 eax, ebp
  00010	89 45 fc	 mov	 DWORD PTR __$ArrayPad$[ebp], eax
  00013	53		 push	 ebx
  00014	56		 push	 esi
  00015	8b 75 0c	 mov	 esi, DWORD PTR _szTokens$[ebp]

; 48   : 	szTokens[0][0] = '\0';
; 49   : 	szTokens[1][0] = '\0';
; 50   : 	szTokens[2][0] = '\0';
; 51   : 
; 52   : 	char szBuffer[128];
; 53   : 	if( fgets( szBuffer, sizeof(szBuffer), fp ) == NULL )

  00018	8d 85 7c ff ff
	ff		 lea	 eax, DWORD PTR _szBuffer$[ebp]
  0001e	57		 push	 edi
  0001f	8b 7d 08	 mov	 edi, DWORD PTR _fp$[ebp]
  00022	8d 5e 40	 lea	 ebx, DWORD PTR [esi+64]
  00025	57		 push	 edi
  00026	68 80 00 00 00	 push	 128			; 00000080H
  0002b	50		 push	 eax
  0002c	c6 06 00	 mov	 BYTE PTR [esi], 0
  0002f	c6 03 00	 mov	 BYTE PTR [ebx], 0
  00032	c6 86 80 00 00
	00 00		 mov	 BYTE PTR [esi+128], 0
  00039	e8 00 00 00 00	 call	 _fgets
  0003e	83 c4 0c	 add	 esp, 12			; 0000000cH
  00041	85 c0		 test	 eax, eax
  00043	75 21		 jne	 SHORT $LN4@ReadAILine

; 54   : 	{
; 55   : 		if( ferror( fp ) )

  00045	57		 push	 edi
  00046	e8 00 00 00 00	 call	 _ferror
  0004b	83 c4 04	 add	 esp, 4
  0004e	f7 d8		 neg	 eax
  00050	1b c0		 sbb	 eax, eax
  00052	83 c0 66	 add	 eax, 102		; 00000066H
  00055	5f		 pop	 edi

; 63   : 		return READ_COMMENT;
; 64   : 	
; 65   : //	printf("%s %s\n", szTokens[0], szTokens[1] );
; 66   : 	return (READ_TYPE)n;
; 67   : }

  00056	5e		 pop	 esi
  00057	5b		 pop	 ebx
  00058	8b 4d fc	 mov	 ecx, DWORD PTR __$ArrayPad$[ebp]
  0005b	33 cd		 xor	 ecx, ebp
  0005d	e8 00 00 00 00	 call	 @__security_check_cookie@4
  00062	8b e5		 mov	 esp, ebp
  00064	5d		 pop	 ebp
  00065	c3		 ret	 0
$LN4@ReadAILine:

; 56   : 			return READ_TYPE_FILE_ERROR;
; 57   : 		else
; 58   : 			return READ_TYPE_FILE_EOF;
; 59   : 	}
; 60   : 	
; 61   : 	int n = sscanf( szBuffer, "%s %s %s", szTokens[0], szTokens[1], szTokens[2] );

  00066	8d 86 80 00 00
	00		 lea	 eax, DWORD PTR [esi+128]
  0006c	50		 push	 eax
  0006d	53		 push	 ebx
  0006e	56		 push	 esi
  0006f	8d 85 7c ff ff
	ff		 lea	 eax, DWORD PTR _szBuffer$[ebp]
  00075	68 00 00 00 00	 push	 OFFSET ??_C@_08EPEHIMMI@?$CFs?5?$CFs?5?$CFs@
  0007a	50		 push	 eax
  0007b	e8 00 00 00 00	 call	 _sscanf
  00080	83 c4 14	 add	 esp, 20			; 00000014H

; 62   : 	if( szTokens[0][0] == '/' && szTokens[0][1] == '/' )

  00083	80 3e 2f	 cmp	 BYTE PTR [esi], 47	; 0000002fH
  00086	75 0c		 jne	 SHORT $LN1@ReadAILine
  00088	80 7e 01 2f	 cmp	 BYTE PTR [esi+1], 47	; 0000002fH
  0008c	b9 64 00 00 00	 mov	 ecx, 100		; 00000064H
  00091	0f 44 c1	 cmove	 eax, ecx
$LN1@ReadAILine:

; 63   : 		return READ_COMMENT;
; 64   : 	
; 65   : //	printf("%s %s\n", szTokens[0], szTokens[1] );
; 66   : 	return (READ_TYPE)n;
; 67   : }

  00094	8b 4d fc	 mov	 ecx, DWORD PTR __$ArrayPad$[ebp]
  00097	5f		 pop	 edi
  00098	5e		 pop	 esi
  00099	33 cd		 xor	 ecx, ebp
  0009b	5b		 pop	 ebx
  0009c	e8 00 00 00 00	 call	 @__security_check_cookie@4
  000a1	8b e5		 mov	 esp, ebp
  000a3	5d		 pop	 ebp
  000a4	c3		 ret	 0
?ReadAILine@@YA?AW4READ_TYPE@@PAU_iobuf@@QAY0EA@D@Z ENDP ; ReadAILine
_TEXT	ENDS
; Function compile flags: /Ogtp
; File C:\IAGOS\server\v18\Source\Source\_AIInterface\AIMonster2.cpp
; File C:\Program Files\Microsoft Visual Studio\2022\Professional\VC\Tools\MSVC\14.44.35207\include\xtree
; File C:\Program Files\Microsoft Visual Studio\2022\Professional\VC\Tools\MSVC\14.44.35207\include\type_traits
; File C:\Program Files\Microsoft Visual Studio\2022\Professional\VC\Tools\MSVC\14.44.35207\include\xtree
; File C:\Program Files\Microsoft Visual Studio\2022\Professional\VC\Tools\MSVC\14.44.35207\include\xstring
; File C:\Program Files\Microsoft Visual Studio\2022\Professional\VC\Tools\MSVC\14.44.35207\include\xmemory
; File C:\Program Files\Microsoft Visual Studio\2022\Professional\VC\Tools\MSVC\14.44.35207\include\xstring
; File C:\Program Files\Microsoft Visual Studio\2022\Professional\VC\Tools\MSVC\14.44.35207\include\xmemory
; File C:\Program Files\Microsoft Visual Studio\2022\Professional\VC\Tools\MSVC\14.44.35207\include\xtree
; File C:\IAGOS\server\v18\Source\Source\_AIInterface\AIMonster2.cpp
; File C:\Program Files\Microsoft Visual Studio\2022\Professional\VC\Tools\MSVC\14.44.35207\include\xmemory
; File C:\IAGOS\server\v18\Source\Source\_AIInterface\AIMonster2.cpp
;	COMDAT ?GetAIConst@@YAHPBD@Z
_TEXT	SEGMENT
__Loc$1 = -40						; size = 12
$T2 = -28						; size = 24
__$ArrayPad$ = -4					; size = 4
_szString$ = 8						; size = 4
?GetAIConst@@YAHPBD@Z PROC				; GetAIConst, COMDAT

; 27   : {

  00000	55		 push	 ebp
  00001	8b ec		 mov	 ebp, esp
  00003	83 ec 28	 sub	 esp, 40			; 00000028H
  00006	a1 00 00 00 00	 mov	 eax, DWORD PTR ___security_cookie
  0000b	33 c5		 xor	 eax, ebp
  0000d	89 45 fc	 mov	 DWORD PTR __$ArrayPad$[ebp], eax
  00010	8b 45 08	 mov	 eax, DWORD PTR _szString$[ebp]

; 28   : 	map< string, int >::iterator it = g_stringTable.find( szString );

  00013	8d 4d e4	 lea	 ecx, DWORD PTR $T2[ebp]
  00016	56		 push	 esi
  00017	57		 push	 edi
  00018	50		 push	 eax
  00019	e8 00 00 00 00	 call	 ??0?$basic_string@DU?$char_traits@D@std@@V?$allocator@D@2@@std@@QAE@QBD@Z ; std::basic_string<char,std::char_traits<char>,std::allocator<char> >::basic_string<char,std::char_traits<char>,std::allocator<char> >
; File C:\Program Files\Microsoft Visual Studio\2022\Professional\VC\Tools\MSVC\14.44.35207\include\xtree

; 1384 :         const _Tree_find_result<_Nodeptr> _Loc = _Find_lower_bound(_Keyval);

  0001e	8d 45 e4	 lea	 eax, DWORD PTR $T2[ebp]
  00021	b9 00 00 00 00	 mov	 ecx, OFFSET ?g_stringTable@@3V?$map@V?$basic_string@DU?$char_traits@D@std@@V?$allocator@D@2@@std@@HU?$less@V?$basic_string@DU?$char_traits@D@std@@V?$allocator@D@2@@std@@@2@V?$allocator@U?$pair@$$CBV?$basic_string@DU?$char_traits@D@std@@V?$allocator@D@2@@std@@H@std@@@2@@std@@A
  00026	50		 push	 eax
  00027	8d 45 d8	 lea	 eax, DWORD PTR __Loc$1[ebp]
  0002a	50		 push	 eax
  0002b	e8 00 00 00 00	 call	 ??$_Find_lower_bound@V?$basic_string@DU?$char_traits@D@std@@V?$allocator@D@2@@std@@@?$_Tree@V?$_Tmap_traits@V?$basic_string@DU?$char_traits@D@std@@V?$allocator@D@2@@std@@HU?$less@V?$basic_string@DU?$char_traits@D@std@@V?$allocator@D@2@@std@@@2@V?$allocator@U?$pair@$$CBV?$basic_string@DU?$char_traits@D@std@@V?$allocator@D@2@@std@@H@std@@@2@$0A@@std@@@std@@IBE?AU?$_Tree_find_result@PAU?$_Tree_node@U?$pair@$$CBV?$basic_string@DU?$char_traits@D@std@@V?$allocator@D@2@@std@@H@std@@PAX@std@@@1@ABV?$basic_string@DU?$char_traits@D@std@@V?$allocator@D@2@@1@@Z ; std::_Tree<std::_Tmap_traits<std::basic_string<char,std::char_traits<char>,std::allocator<char> >,int,std::less<std::basic_string<char,std::char_traits<char>,std::allocator<char> > >,std::allocator<std::pair<std::basic_string<char,std::char_traits<char>,std::allocator<char> > const ,int> >,0> >::_Find_lower_bound<std::basic_string<char,std::char_traits<char>,std::allocator<char> > >

; 1624 :         return !_Bound->_Isnil && !_DEBUG_LT_PRED(_Getcomp(), _Keyval, _Traits::_Kfn(_Bound->_Myval));

  00030	8b 75 e0	 mov	 esi, DWORD PTR __Loc$1[ebp+8]
  00033	8b 3d 00 00 00
	00		 mov	 edi, DWORD PTR ?g_stringTable@@3V?$map@V?$basic_string@DU?$char_traits@D@std@@V?$allocator@D@2@@std@@HU?$less@V?$basic_string@DU?$char_traits@D@std@@V?$allocator@D@2@@std@@@2@V?$allocator@U?$pair@$$CBV?$basic_string@DU?$char_traits@D@std@@V?$allocator@D@2@@std@@H@std@@@2@@std@@A
  00039	80 7e 0d 00	 cmp	 BYTE PTR [esi+13], 0
  0003d	75 14		 jne	 SHORT $LN8@GetAIConst
  0003f	8d 46 10	 lea	 eax, DWORD PTR [esi+16]
; File C:\Program Files\Microsoft Visual Studio\2022\Professional\VC\Tools\MSVC\14.44.35207\include\type_traits

; 2380 :         return _Left < _Right;

  00042	50		 push	 eax
  00043	8d 45 e4	 lea	 eax, DWORD PTR $T2[ebp]
  00046	50		 push	 eax
  00047	e8 00 00 00 00	 call	 ??$?MDU?$char_traits@D@std@@V?$allocator@D@1@@std@@YA_NABV?$basic_string@DU?$char_traits@D@std@@V?$allocator@D@2@@0@0@Z ; std::operator<<char,std::char_traits<char>,std::allocator<char> >
  0004c	83 c4 08	 add	 esp, 8
; File C:\Program Files\Microsoft Visual Studio\2022\Professional\VC\Tools\MSVC\14.44.35207\include\xtree

; 1624 :         return !_Bound->_Isnil && !_DEBUG_LT_PRED(_Getcomp(), _Keyval, _Traits::_Kfn(_Bound->_Myval));

  0004f	84 c0		 test	 al, al
  00051	74 02		 je	 SHORT $LN7@GetAIConst
$LN8@GetAIConst:

; 1389 :         return _Get_scary()->_Myhead;

  00053	8b f7		 mov	 esi, edi
$LN7@GetAIConst:
; File C:\Program Files\Microsoft Visual Studio\2022\Professional\VC\Tools\MSVC\14.44.35207\include\xstring

; 453  :         return _Myres > _Small_string_capacity;

  00055	8b 4d f8	 mov	 ecx, DWORD PTR $T2[ebp+20]
  00058	83 f9 0f	 cmp	 ecx, 15			; 0000000fH

; 3083 :         if (_My_data._Large_mode_engaged()) {

  0005b	76 2e		 jbe	 SHORT $LN46@GetAIConst
; File C:\Program Files\Microsoft Visual Studio\2022\Professional\VC\Tools\MSVC\14.44.35207\include\xmemory

; 985  :         _STD _Deallocate<_New_alignof<_Ty>>(_Ptr, sizeof(_Ty) * _Count);

  0005d	8b 55 e4	 mov	 edx, DWORD PTR $T2[ebp]
; File C:\Program Files\Microsoft Visual Studio\2022\Professional\VC\Tools\MSVC\14.44.35207\include\xstring

; 852  :         _Al.deallocate(_Old_ptr, _Capacity + 1); // +1 for null terminator

  00060	41		 inc	 ecx
; File C:\Program Files\Microsoft Visual Studio\2022\Professional\VC\Tools\MSVC\14.44.35207\include\xmemory

; 985  :         _STD _Deallocate<_New_alignof<_Ty>>(_Ptr, sizeof(_Ty) * _Count);

  00061	8b c2		 mov	 eax, edx

; 284  :         if (_Bytes >= _Big_allocation_threshold) {

  00063	81 f9 00 10 00
	00		 cmp	 ecx, 4096		; 00001000H
  00069	72 10		 jb	 SHORT $LN51@GetAIConst

; 205  :     const uintptr_t _Ptr_container   = _Ptr_user[-1];

  0006b	8b 50 fc	 mov	 edx, DWORD PTR [eax-4]
  0006e	83 c1 23	 add	 ecx, 35			; 00000023H
  00071	2b c2		 sub	 eax, edx

; 219  :     _STL_VERIFY(_Back_shift >= _Min_back_shift && _Back_shift <= _Non_user_size, "invalid argument");

  00073	83 c0 fc	 add	 eax, -4			; fffffffcH
  00076	83 f8 1f	 cmp	 eax, 31			; 0000001fH
  00079	77 39		 ja	 SHORT $LN93@GetAIConst
$LN51@GetAIConst:

; 289  :         ::operator delete(_Ptr, _Bytes);

  0007b	51		 push	 ecx
  0007c	52		 push	 edx
  0007d	e8 00 00 00 00	 call	 ??3@YAXPAXI@Z		; operator delete
  00082	8b 3d 00 00 00
	00		 mov	 edi, DWORD PTR ?g_stringTable@@3V?$map@V?$basic_string@DU?$char_traits@D@std@@V?$allocator@D@2@@std@@HU?$less@V?$basic_string@DU?$char_traits@D@std@@V?$allocator@D@2@@std@@@2@V?$allocator@U?$pair@$$CBV?$basic_string@DU?$char_traits@D@std@@V?$allocator@D@2@@std@@H@std@@@2@@std@@A
  00088	83 c4 08	 add	 esp, 8
$LN46@GetAIConst:
; File C:\Program Files\Microsoft Visual Studio\2022\Professional\VC\Tools\MSVC\14.44.35207\include\xtree

; 37   :     _Tree_unchecked_const_iterator(_Nodeptr _Pnode, const _Mytree* _Plist) noexcept : _Ptr(_Pnode) {

  0008b	3b fe		 cmp	 edi, esi
; File C:\IAGOS\server\v18\Source\Source\_AIInterface\AIMonster2.cpp

; 29   : 	if( g_stringTable.end() != it )

  0008d	74 13		 je	 SHORT $LN2@GetAIConst

; 30   : 		return it->second;

  0008f	8b 46 28	 mov	 eax, DWORD PTR [esi+40]
  00092	5f		 pop	 edi

; 33   : }

  00093	5e		 pop	 esi
  00094	8b 4d fc	 mov	 ecx, DWORD PTR __$ArrayPad$[ebp]
  00097	33 cd		 xor	 ecx, ebp
  00099	e8 00 00 00 00	 call	 @__security_check_cookie@4
  0009e	8b e5		 mov	 esp, ebp
  000a0	5d		 pop	 ebp
  000a1	c3		 ret	 0
$LN2@GetAIConst:
  000a2	8b 4d fc	 mov	 ecx, DWORD PTR __$ArrayPad$[ebp]
  000a5	33 c0		 xor	 eax, eax
  000a7	5f		 pop	 edi
  000a8	33 cd		 xor	 ecx, ebp
  000aa	5e		 pop	 esi
  000ab	e8 00 00 00 00	 call	 @__security_check_cookie@4
  000b0	8b e5		 mov	 esp, ebp
  000b2	5d		 pop	 ebp
  000b3	c3		 ret	 0
$LN93@GetAIConst:
; File C:\Program Files\Microsoft Visual Studio\2022\Professional\VC\Tools\MSVC\14.44.35207\include\xmemory

; 219  :     _STL_VERIFY(_Back_shift >= _Min_back_shift && _Back_shift <= _Non_user_size, "invalid argument");

  000b4	6a 00		 push	 0
  000b6	6a 00		 push	 0
  000b8	6a 00		 push	 0
  000ba	6a 00		 push	 0
  000bc	6a 00		 push	 0
  000be	e8 00 00 00 00	 call	 __invoke_watson
$LN91@GetAIConst:
  000c3	cc		 int	 3
?GetAIConst@@YAHPBD@Z ENDP				; GetAIConst
_TEXT	ENDS
; Function compile flags: /Ogtp
; File C:\Program Files\Microsoft Visual Studio\2022\Professional\VC\Tools\MSVC\14.44.35207\include\xtree
; File C:\Program Files\Microsoft Visual Studio\2022\Professional\VC\Tools\MSVC\14.44.35207\include\xmemory
;	COMDAT ??__Fg_stringTable@@YAXXZ
text$yd	SEGMENT
??__Fg_stringTable@@YAXXZ PROC				; `dynamic atexit destructor for 'g_stringTable'', COMDAT
; File C:\Program Files\Microsoft Visual Studio\2022\Professional\VC\Tools\MSVC\14.44.35207\include\xtree

; 777  :         _Erase_tree(_Al, _Myhead->_Parent);

  00000	a1 00 00 00 00	 mov	 eax, DWORD PTR ?g_stringTable@@3V?$map@V?$basic_string@DU?$char_traits@D@std@@V?$allocator@D@2@@std@@HU?$less@V?$basic_string@DU?$char_traits@D@std@@V?$allocator@D@2@@std@@@2@V?$allocator@U?$pair@$$CBV?$basic_string@DU?$char_traits@D@std@@V?$allocator@D@2@@std@@H@std@@@2@@std@@A
  00005	b9 00 00 00 00	 mov	 ecx, OFFSET ?g_stringTable@@3V?$map@V?$basic_string@DU?$char_traits@D@std@@V?$allocator@D@2@@std@@HU?$less@V?$basic_string@DU?$char_traits@D@std@@V?$allocator@D@2@@std@@@2@V?$allocator@U?$pair@$$CBV?$basic_string@DU?$char_traits@D@std@@V?$allocator@D@2@@std@@H@std@@@2@@std@@A
  0000a	ff 70 04	 push	 DWORD PTR [eax+4]
  0000d	68 00 00 00 00	 push	 OFFSET ?g_stringTable@@3V?$map@V?$basic_string@DU?$char_traits@D@std@@V?$allocator@D@2@@std@@HU?$less@V?$basic_string@DU?$char_traits@D@std@@V?$allocator@D@2@@std@@@2@V?$allocator@U?$pair@$$CBV?$basic_string@DU?$char_traits@D@std@@V?$allocator@D@2@@std@@H@std@@@2@@std@@A
  00012	e8 00 00 00 00	 call	 ??$_Erase_tree@V?$allocator@U?$_Tree_node@U?$pair@$$CBV?$basic_string@DU?$char_traits@D@std@@V?$allocator@D@2@@std@@H@std@@PAX@std@@@std@@@?$_Tree_val@U?$_Tree_simple_types@U?$pair@$$CBV?$basic_string@DU?$char_traits@D@std@@V?$allocator@D@2@@std@@H@std@@@std@@@std@@QAEXAAV?$allocator@U?$_Tree_node@U?$pair@$$CBV?$basic_string@DU?$char_traits@D@std@@V?$allocator@D@2@@std@@H@std@@PAX@std@@@1@PAU?$_Tree_node@U?$pair@$$CBV?$basic_string@DU?$char_traits@D@std@@V?$allocator@D@2@@std@@H@std@@PAX@1@@Z ; std::_Tree_val<std::_Tree_simple_types<std::pair<std::basic_string<char,std::char_traits<char>,std::allocator<char> > const ,int> > >::_Erase_tree<std::allocator<std::_Tree_node<std::pair<std::basic_string<char,std::char_traits<char>,std::allocator<char> > const ,int>,void *> > >
; File C:\Program Files\Microsoft Visual Studio\2022\Professional\VC\Tools\MSVC\14.44.35207\include\xmemory

; 289  :         ::operator delete(_Ptr, _Bytes);

  00017	6a 2c		 push	 44			; 0000002cH
  00019	ff 35 00 00 00
	00		 push	 DWORD PTR ?g_stringTable@@3V?$map@V?$basic_string@DU?$char_traits@D@std@@V?$allocator@D@2@@std@@HU?$less@V?$basic_string@DU?$char_traits@D@std@@V?$allocator@D@2@@std@@@2@V?$allocator@U?$pair@$$CBV?$basic_string@DU?$char_traits@D@std@@V?$allocator@D@2@@std@@H@std@@@2@@std@@A
  0001f	e8 00 00 00 00	 call	 ??3@YAXPAXI@Z		; operator delete
  00024	83 c4 08	 add	 esp, 8
  00027	c3		 ret	 0
??__Fg_stringTable@@YAXXZ ENDP				; `dynamic atexit destructor for 'g_stringTable''
text$yd	ENDS
; Function compile flags: /Ogtp
; File C:\IAGOS\server\v18\Source\Source\_AIInterface\AIMonster2.cpp
; File C:\Program Files\Microsoft Visual Studio\2022\Professional\VC\Tools\MSVC\14.44.35207\include\xmemory
; File C:\IAGOS\server\v18\Source\Source\_AIInterface\AIMonster2.cpp
; File C:\Program Files\Microsoft Visual Studio\2022\Professional\VC\Tools\MSVC\14.44.35207\include\xtree
; File C:\IAGOS\server\v18\Source\Source\_AIInterface\AIMonster2.cpp
;	COMDAT ??__Eg_stringTable@@YAXXZ
text$di	SEGMENT
??__Eg_stringTable@@YAXXZ PROC				; `dynamic initializer for 'g_stringTable'', COMDAT
; File C:\Program Files\Microsoft Visual Studio\2022\Professional\VC\Tools\MSVC\14.44.35207\include\xmemory

; 136  :         return ::operator new(_Bytes);

  00000	6a 2c		 push	 44			; 0000002cH
  00002	e8 00 00 00 00	 call	 ??2@YAPAXI@Z		; operator new
; File C:\IAGOS\server\v18\Source\Source\_AIInterface\AIMonster2.cpp

; 24   : static map< string, int > g_stringTable;

  00007	68 00 00 00 00	 push	 OFFSET ??__Fg_stringTable@@YAXXZ ; `dynamic atexit destructor for 'g_stringTable''
; File C:\Program Files\Microsoft Visual Studio\2022\Professional\VC\Tools\MSVC\14.44.35207\include\xtree

; 346  :         _Construct_in_place(_Pnode->_Left, _Pnode);

  0000c	89 00		 mov	 DWORD PTR [eax], eax

; 347  :         _Construct_in_place(_Pnode->_Parent, _Pnode);

  0000e	89 40 04	 mov	 DWORD PTR [eax+4], eax

; 348  :         _Construct_in_place(_Pnode->_Right, _Pnode);

  00011	89 40 08	 mov	 DWORD PTR [eax+8], eax

; 349  :         _Pnode->_Color = _Black;

  00014	66 c7 40 0c 01
	01		 mov	 WORD PTR [eax+12], 257	; 00000101H

; 1957 :         _Scary->_Myhead = _Node::_Buyheadnode(_Getal());

  0001a	a3 00 00 00 00	 mov	 DWORD PTR ?g_stringTable@@3V?$map@V?$basic_string@DU?$char_traits@D@std@@V?$allocator@D@2@@std@@HU?$less@V?$basic_string@DU?$char_traits@D@std@@V?$allocator@D@2@@std@@@2@V?$allocator@U?$pair@$$CBV?$basic_string@DU?$char_traits@D@std@@V?$allocator@D@2@@std@@H@std@@@2@@std@@A, eax
; File C:\IAGOS\server\v18\Source\Source\_AIInterface\AIMonster2.cpp

; 24   : static map< string, int > g_stringTable;

  0001f	e8 00 00 00 00	 call	 _atexit
  00024	83 c4 08	 add	 esp, 8
  00027	c3		 ret	 0
??__Eg_stringTable@@YAXXZ ENDP				; `dynamic initializer for 'g_stringTable''
text$di	ENDS
; Function compile flags: /Ogtp
; File C:\Program Files\Microsoft Visual Studio\2022\Professional\VC\Tools\MSVC\14.44.35207\include\map
; File C:\Program Files\Microsoft Visual Studio\2022\Professional\VC\Tools\MSVC\14.44.35207\include\xtree
; File C:\Program Files\Microsoft Visual Studio\2022\Professional\VC\Tools\MSVC\14.44.35207\include\type_traits
; File C:\Program Files\Microsoft Visual Studio\2022\Professional\VC\Tools\MSVC\14.44.35207\include\xtree
; File C:\Program Files\Microsoft Visual Studio\2022\Professional\VC\Tools\MSVC\14.44.35207\include\map
; File C:\Program Files\Microsoft Visual Studio\2022\Professional\VC\Tools\MSVC\14.44.35207\include\xmemory
; File C:\Program Files\Microsoft Visual Studio\2022\Professional\VC\Tools\MSVC\14.44.35207\include\xtree
; File C:\Program Files\Microsoft Visual Studio\2022\Professional\VC\Tools\MSVC\14.44.35207\include\xmemory
; File C:\Program Files\Microsoft Visual Studio\2022\Professional\VC\Tools\MSVC\14.44.35207\include\map
; File C:\Program Files\Microsoft Visual Studio\2022\Professional\VC\Tools\MSVC\14.44.35207\include\xmemory
; File C:\Program Files\Microsoft Visual Studio\2022\Professional\VC\Tools\MSVC\14.44.35207\include\xstring
; File C:\Program Files\Microsoft Visual Studio\2022\Professional\VC\Tools\MSVC\14.44.35207\include\map
; File C:\Program Files\Microsoft Visual Studio\2022\Professional\VC\Tools\MSVC\14.44.35207\include\xstring
; File C:\Program Files\Microsoft Visual Studio\2022\Professional\VC\Tools\MSVC\14.44.35207\include\map
; File C:\Program Files\Microsoft Visual Studio\2022\Professional\VC\Tools\MSVC\14.44.35207\include\xstring
; File C:\Program Files\Microsoft Visual Studio\2022\Professional\VC\Tools\MSVC\14.44.35207\include\utility
; File C:\Program Files\Microsoft Visual Studio\2022\Professional\VC\Tools\MSVC\14.44.35207\include\xtree
; File C:\Program Files\Microsoft Visual Studio\2022\Professional\VC\Tools\MSVC\14.44.35207\include\map
; File C:\Program Files\Microsoft Visual Studio\2022\Professional\VC\Tools\MSVC\14.44.35207\include\xtree
; File C:\Program Files\Microsoft Visual Studio\2022\Professional\VC\Tools\MSVC\14.44.35207\include\map
;	COMDAT ??A?$map@V?$basic_string@DU?$char_traits@D@std@@V?$allocator@D@2@@std@@HU?$less@V?$basic_string@DU?$char_traits@D@std@@V?$allocator@D@2@@std@@@2@V?$allocator@U?$pair@$$CBV?$basic_string@DU?$char_traits@D@std@@V?$allocator@D@2@@std@@H@std@@@2@@std@@QAEAAH$$QAV?$basic_string@DU?$char_traits@D@std@@V?$allocator@D@2@@1@@Z
_TEXT	SEGMENT
__Loc$2 = -36						; size = 12
$T3 = -24						; size = 8
_this$1$ = -16						; size = 4
__$EHRec$ = -12						; size = 12
__Keyval$ = 8						; size = 4
??A?$map@V?$basic_string@DU?$char_traits@D@std@@V?$allocator@D@2@@std@@HU?$less@V?$basic_string@DU?$char_traits@D@std@@V?$allocator@D@2@@std@@@2@V?$allocator@U?$pair@$$CBV?$basic_string@DU?$char_traits@D@std@@V?$allocator@D@2@@std@@H@std@@@2@@std@@QAEAAH$$QAV?$basic_string@DU?$char_traits@D@std@@V?$allocator@D@2@@1@@Z PROC ; std::map<std::basic_string<char,std::char_traits<char>,std::allocator<char> >,int,std::less<std::basic_string<char,std::char_traits<char>,std::allocator<char> > >,std::allocator<std::pair<std::basic_string<char,std::char_traits<char>,std::allocator<char> > const ,int> > >::operator[], COMDAT
; _this$ = ecx

; 174  :     mapped_type& operator[](key_type&& _Keyval) { // find element matching _Keyval or insert value-initialized value

  00000	55		 push	 ebp
  00001	8b ec		 mov	 ebp, esp
  00003	6a ff		 push	 -1
  00005	68 00 00 00 00	 push	 __ehhandler$??A?$map@V?$basic_string@DU?$char_traits@D@std@@V?$allocator@D@2@@std@@HU?$less@V?$basic_string@DU?$char_traits@D@std@@V?$allocator@D@2@@std@@@2@V?$allocator@U?$pair@$$CBV?$basic_string@DU?$char_traits@D@std@@V?$allocator@D@2@@std@@H@std@@@2@@std@@QAEAAH$$QAV?$basic_string@DU?$char_traits@D@std@@V?$allocator@D@2@@1@@Z
  0000a	64 a1 00 00 00
	00		 mov	 eax, DWORD PTR fs:0
  00010	50		 push	 eax
  00011	83 ec 18	 sub	 esp, 24			; 00000018H
  00014	56		 push	 esi
  00015	57		 push	 edi
  00016	a1 00 00 00 00	 mov	 eax, DWORD PTR ___security_cookie
  0001b	33 c5		 xor	 eax, ebp
  0001d	50		 push	 eax
  0001e	8d 45 f4	 lea	 eax, DWORD PTR __$EHRec$[ebp]
  00021	64 a3 00 00 00
	00		 mov	 DWORD PTR fs:0, eax
  00027	89 4d f0	 mov	 DWORD PTR _this$1$[ebp], ecx

; 197  :         const auto _Loc = _Mybase::_Find_lower_bound(_Keyval);

  0002a	8b 7d 08	 mov	 edi, DWORD PTR __Keyval$[ebp]
  0002d	8d 45 dc	 lea	 eax, DWORD PTR __Loc$2[ebp]
  00030	57		 push	 edi
  00031	50		 push	 eax
  00032	e8 00 00 00 00	 call	 ??$_Find_lower_bound@V?$basic_string@DU?$char_traits@D@std@@V?$allocator@D@2@@std@@@?$_Tree@V?$_Tmap_traits@V?$basic_string@DU?$char_traits@D@std@@V?$allocator@D@2@@std@@HU?$less@V?$basic_string@DU?$char_traits@D@std@@V?$allocator@D@2@@std@@@2@V?$allocator@U?$pair@$$CBV?$basic_string@DU?$char_traits@D@std@@V?$allocator@D@2@@std@@H@std@@@2@$0A@@std@@@std@@IBE?AU?$_Tree_find_result@PAU?$_Tree_node@U?$pair@$$CBV?$basic_string@DU?$char_traits@D@std@@V?$allocator@D@2@@std@@H@std@@PAX@std@@@1@ABV?$basic_string@DU?$char_traits@D@std@@V?$allocator@D@2@@1@@Z ; std::_Tree<std::_Tmap_traits<std::basic_string<char,std::char_traits<char>,std::allocator<char> >,int,std::less<std::basic_string<char,std::char_traits<char>,std::allocator<char> > >,std::allocator<std::pair<std::basic_string<char,std::char_traits<char>,std::allocator<char> > const ,int> >,0> >::_Find_lower_bound<std::basic_string<char,std::char_traits<char>,std::allocator<char> > >
; File C:\Program Files\Microsoft Visual Studio\2022\Professional\VC\Tools\MSVC\14.44.35207\include\xtree

; 1624 :         return !_Bound->_Isnil && !_DEBUG_LT_PRED(_Getcomp(), _Keyval, _Traits::_Kfn(_Bound->_Myval));

  00037	8b 75 e4	 mov	 esi, DWORD PTR __Loc$2[ebp+8]
  0003a	80 7e 0d 00	 cmp	 BYTE PTR [esi+13], 0
  0003e	75 15		 jne	 SHORT $LN4@operator
  00040	8d 46 10	 lea	 eax, DWORD PTR [esi+16]
; File C:\Program Files\Microsoft Visual Studio\2022\Professional\VC\Tools\MSVC\14.44.35207\include\type_traits

; 2380 :         return _Left < _Right;

  00043	50		 push	 eax
  00044	57		 push	 edi
  00045	e8 00 00 00 00	 call	 ??$?MDU?$char_traits@D@std@@V?$allocator@D@1@@std@@YA_NABV?$basic_string@DU?$char_traits@D@std@@V?$allocator@D@2@@0@0@Z ; std::operator<<char,std::char_traits<char>,std::allocator<char> >
  0004a	83 c4 08	 add	 esp, 8
; File C:\Program Files\Microsoft Visual Studio\2022\Professional\VC\Tools\MSVC\14.44.35207\include\xtree

; 1624 :         return !_Bound->_Isnil && !_DEBUG_LT_PRED(_Getcomp(), _Keyval, _Traits::_Kfn(_Bound->_Myval));

  0004d	84 c0		 test	 al, al
  0004f	0f 84 8a 00 00
	00		 je	 $LN3@operator
$LN4@operator:

; 1648 :         if (max_size() == _Get_scary()->_Mysize) {

  00055	8b 45 f0	 mov	 eax, DWORD PTR _this$1$[ebp]
  00058	81 78 04 5d 74
	d1 05		 cmp	 DWORD PTR [eax+4], 97612893 ; 05d1745dH
  0005f	0f 84 90 00 00
	00		 je	 $LN184@operator
; File C:\Program Files\Microsoft Visual Studio\2022\Professional\VC\Tools\MSVC\14.44.35207\include\map

; 205  :         const auto _Inserted = _Tree_temp_node<_Alnode>(_Mybase::_Getal(), _Scary->_Myhead, piecewise_construct,

  00065	8b 30		 mov	 esi, DWORD PTR [eax]
; File C:\Program Files\Microsoft Visual Studio\2022\Professional\VC\Tools\MSVC\14.44.35207\include\xmemory

; 1160 :     _CONSTEXPR20 explicit _Alloc_construct_ptr(_Alloc& _Al_) : _Al(_Al_), _Ptr(nullptr) {}

  00067	89 45 e8	 mov	 DWORD PTR $T3[ebp], eax

; 136  :         return ::operator new(_Bytes);

  0006a	6a 2c		 push	 44			; 0000002cH
; File C:\Program Files\Microsoft Visual Studio\2022\Professional\VC\Tools\MSVC\14.44.35207\include\xtree

; 808  :     explicit _Tree_temp_node_alloc(_Alnode& _Al_) : _Alloc_construct_ptr<_Alnode>(_Al_) {

  0006c	c7 45 fc 00 00
	00 00		 mov	 DWORD PTR __$EHRec$[ebp+8], 0
; File C:\Program Files\Microsoft Visual Studio\2022\Professional\VC\Tools\MSVC\14.44.35207\include\xmemory

; 1167 :         _Ptr = nullptr; // if allocate throws, prevents double-free

  00073	c7 45 ec 00 00
	00 00		 mov	 DWORD PTR $T3[ebp+4], 0

; 136  :         return ::operator new(_Bytes);

  0007a	e8 00 00 00 00	 call	 ??2@YAPAXI@Z		; operator new
; File C:\Program Files\Microsoft Visual Studio\2022\Professional\VC\Tools\MSVC\14.44.35207\include\map

; 211  :         return {_Scary->_Insert_node(_Loc._Location, _Inserted), true};

  0007f	8b 4d f0	 mov	 ecx, DWORD PTR _this$1$[ebp]
  00082	0f 57 c0	 xorps	 xmm0, xmm0
; File C:\Program Files\Microsoft Visual Studio\2022\Professional\VC\Tools\MSVC\14.44.35207\include\xmemory

; 136  :         return ::operator new(_Bytes);

  00085	83 c4 04	 add	 esp, 4
; File C:\Program Files\Microsoft Visual Studio\2022\Professional\VC\Tools\MSVC\14.44.35207\include\xstring

; 493  :         _CONSTEXPR20 _Bxty() noexcept : _Buf() {} // user-provided, for fancy pointers

  00088	0f 11 40 10	 movups	 XMMWORD PTR [eax+16], xmm0

; 517  :     size_type _Mysize = 0; // current length of string (size)

  0008c	c7 40 20 00 00
	00 00		 mov	 DWORD PTR [eax+32], 0

; 518  :     size_type _Myres  = 0; // current storage reserved for string (capacity)

  00093	c7 40 24 00 00
	00 00		 mov	 DWORD PTR [eax+36], 0

; 1286 :                 _CSTD memcpy(_My_data_mem, _Right_data_mem, _Memcpy_val_size);

  0009a	0f 10 07	 movups	 xmm0, XMMWORD PTR [edi]
; File C:\Program Files\Microsoft Visual Studio\2022\Professional\VC\Tools\MSVC\14.44.35207\include\map

; 211  :         return {_Scary->_Insert_node(_Loc._Location, _Inserted), true};

  0009d	50		 push	 eax
  0009e	ff 75 e0	 push	 DWORD PTR __Loc$2[ebp+4]
; File C:\Program Files\Microsoft Visual Studio\2022\Professional\VC\Tools\MSVC\14.44.35207\include\xstring

; 1286 :                 _CSTD memcpy(_My_data_mem, _Right_data_mem, _Memcpy_val_size);

  000a1	0f 11 40 10	 movups	 XMMWORD PTR [eax+16], xmm0
  000a5	f3 0f 7e 47 10	 movq	 xmm0, QWORD PTR [edi+16]
; File C:\Program Files\Microsoft Visual Studio\2022\Professional\VC\Tools\MSVC\14.44.35207\include\map

; 211  :         return {_Scary->_Insert_node(_Loc._Location, _Inserted), true};

  000aa	ff 75 dc	 push	 DWORD PTR __Loc$2[ebp]
; File C:\Program Files\Microsoft Visual Studio\2022\Professional\VC\Tools\MSVC\14.44.35207\include\xstring

; 1286 :                 _CSTD memcpy(_My_data_mem, _Right_data_mem, _Memcpy_val_size);

  000ad	66 0f d6 40 20	 movq	 QWORD PTR [eax+32], xmm0

; 1287 : 
; 1288 :                 _Right_data._Mysize = 0;

  000b2	c7 47 10 00 00
	00 00		 mov	 DWORD PTR [edi+16], 0

; 1289 :                 _Right_data._Myres  = _Small_string_capacity;

  000b9	c7 47 14 0f 00
	00 00		 mov	 DWORD PTR [edi+20], 15	; 0000000fH

; 1290 :                 _Right_data._Activate_SSO_buffer();
; 1291 :                 _Traits::assign(_Right_data._Bx._Buf[0], _Elem());

  000c0	c6 07 00	 mov	 BYTE PTR [edi], 0
; File C:\Program Files\Microsoft Visual Studio\2022\Professional\VC\Tools\MSVC\14.44.35207\include\utility

; 479  :           second(_STD _Tuple_get<_Indices2>(_STD move(_Val2))...) {}

  000c3	c7 40 28 00 00
	00 00		 mov	 DWORD PTR [eax+40], 0
; File C:\Program Files\Microsoft Visual Studio\2022\Professional\VC\Tools\MSVC\14.44.35207\include\xtree

; 831  :         _Construct_in_place(this->_Ptr->_Left, _Myhead);

  000ca	89 30		 mov	 DWORD PTR [eax], esi

; 832  :         _Construct_in_place(this->_Ptr->_Parent, _Myhead);

  000cc	89 70 04	 mov	 DWORD PTR [eax+4], esi

; 833  :         _Construct_in_place(this->_Ptr->_Right, _Myhead);

  000cf	89 70 08	 mov	 DWORD PTR [eax+8], esi

; 834  :         this->_Ptr->_Color = _Red;

  000d2	66 c7 40 0c 00
	00		 mov	 WORD PTR [eax+12], 0
; File C:\Program Files\Microsoft Visual Studio\2022\Professional\VC\Tools\MSVC\14.44.35207\include\map

; 211  :         return {_Scary->_Insert_node(_Loc._Location, _Inserted), true};

  000d8	e8 00 00 00 00	 call	 ?_Insert_node@?$_Tree_val@U?$_Tree_simple_types@U?$pair@$$CBV?$basic_string@DU?$char_traits@D@std@@V?$allocator@D@2@@std@@H@std@@@std@@@std@@QAEPAU?$_Tree_node@U?$pair@$$CBV?$basic_string@DU?$char_traits@D@std@@V?$allocator@D@2@@std@@H@std@@PAX@2@U?$_Tree_id@PAU?$_Tree_node@U?$pair@$$CBV?$basic_string@DU?$char_traits@D@std@@V?$allocator@D@2@@std@@H@std@@PAX@std@@@2@QAU32@@Z ; std::_Tree_val<std::_Tree_simple_types<std::pair<std::basic_string<char,std::char_traits<char>,std::allocator<char> > const ,int> > >::_Insert_node
  000dd	8b f0		 mov	 esi, eax
$LN3@operator:

; 175  :         return _Try_emplace(_STD move(_Keyval)).first->_Myval.second;

  000df	8d 46 28	 lea	 eax, DWORD PTR [esi+40]

; 176  :     }

  000e2	8b 4d f4	 mov	 ecx, DWORD PTR __$EHRec$[ebp]
  000e5	64 89 0d 00 00
	00 00		 mov	 DWORD PTR fs:0, ecx
  000ec	59		 pop	 ecx
  000ed	5f		 pop	 edi
  000ee	5e		 pop	 esi
  000ef	8b e5		 mov	 esp, ebp
  000f1	5d		 pop	 ebp
  000f2	c2 04 00	 ret	 4
$LN184@operator:
; File C:\Program Files\Microsoft Visual Studio\2022\Professional\VC\Tools\MSVC\14.44.35207\include\xtree

; 1649 :             _Throw_tree_length_error();

  000f5	e8 00 00 00 00	 call	 ?_Throw_tree_length_error@std@@YAXXZ ; std::_Throw_tree_length_error
$LN182@operator:
  000fa	cc		 int	 3
_TEXT	ENDS
;	COMDAT text$x
text$x	SEGMENT
__unwindfunclet$??A?$map@V?$basic_string@DU?$char_traits@D@std@@V?$allocator@D@2@@std@@HU?$less@V?$basic_string@DU?$char_traits@D@std@@V?$allocator@D@2@@std@@@2@V?$allocator@U?$pair@$$CBV?$basic_string@DU?$char_traits@D@std@@V?$allocator@D@2@@std@@H@std@@@2@@std@@QAEAAH$$QAV?$basic_string@DU?$char_traits@D@std@@V?$allocator@D@2@@1@@Z$2:
  00000	8d 4d e8	 lea	 ecx, DWORD PTR $T3[ebp]
  00003	e9 00 00 00 00	 jmp	 ??1?$_Alloc_construct_ptr@V?$allocator@U?$_Tree_node@U?$pair@$$CBV?$basic_string@DU?$char_traits@D@std@@V?$allocator@D@2@@std@@H@std@@PAX@std@@@std@@@std@@QAE@XZ ; std::_Alloc_construct_ptr<std::allocator<std::_Tree_node<std::pair<std::basic_string<char,std::char_traits<char>,std::allocator<char> > const ,int>,void *> > >::~_Alloc_construct_ptr<std::allocator<std::_Tree_node<std::pair<std::basic_string<char,std::char_traits<char>,std::allocator<char> > const ,int>,void *> > >
  00008	cc		 int	 3
  00009	cc		 int	 3
  0000a	cc		 int	 3
  0000b	cc		 int	 3
  0000c	cc		 int	 3
__ehhandler$??A?$map@V?$basic_string@DU?$char_traits@D@std@@V?$allocator@D@2@@std@@HU?$less@V?$basic_string@DU?$char_traits@D@std@@V?$allocator@D@2@@std@@@2@V?$allocator@U?$pair@$$CBV?$basic_string@DU?$char_traits@D@std@@V?$allocator@D@2@@std@@H@std@@@2@@std@@QAEAAH$$QAV?$basic_string@DU?$char_traits@D@std@@V?$allocator@D@2@@1@@Z:
  0000d	90		 npad	 1
  0000e	90		 npad	 1
  0000f	8b 54 24 08	 mov	 edx, DWORD PTR [esp+8]
  00013	8d 42 0c	 lea	 eax, DWORD PTR [edx+12]
  00016	8b 4a dc	 mov	 ecx, DWORD PTR [edx-36]
  00019	33 c8		 xor	 ecx, eax
  0001b	e8 00 00 00 00	 call	 @__security_check_cookie@4
  00020	b8 00 00 00 00	 mov	 eax, OFFSET __ehfuncinfo$??A?$map@V?$basic_string@DU?$char_traits@D@std@@V?$allocator@D@2@@std@@HU?$less@V?$basic_string@DU?$char_traits@D@std@@V?$allocator@D@2@@std@@@2@V?$allocator@U?$pair@$$CBV?$basic_string@DU?$char_traits@D@std@@V?$allocator@D@2@@std@@H@std@@@2@@std@@QAEAAH$$QAV?$basic_string@DU?$char_traits@D@std@@V?$allocator@D@2@@1@@Z
  00025	e9 00 00 00 00	 jmp	 ___CxxFrameHandler3
text$x	ENDS
??A?$map@V?$basic_string@DU?$char_traits@D@std@@V?$allocator@D@2@@std@@HU?$less@V?$basic_string@DU?$char_traits@D@std@@V?$allocator@D@2@@std@@@2@V?$allocator@U?$pair@$$CBV?$basic_string@DU?$char_traits@D@std@@V?$allocator@D@2@@std@@H@std@@@2@@std@@QAEAAH$$QAV?$basic_string@DU?$char_traits@D@std@@V?$allocator@D@2@@1@@Z ENDP ; std::map<std::basic_string<char,std::char_traits<char>,std::allocator<char> >,int,std::less<std::basic_string<char,std::char_traits<char>,std::allocator<char> > >,std::allocator<std::pair<std::basic_string<char,std::char_traits<char>,std::allocator<char> > const ,int> > >::operator[]
; Function compile flags: /Ogtp
; File C:\Program Files\Microsoft Visual Studio\2022\Professional\VC\Tools\MSVC\14.44.35207\include\xtree
;	COMDAT ?_Insert_node@?$_Tree_val@U?$_Tree_simple_types@U?$pair@$$CBV?$basic_string@DU?$char_traits@D@std@@V?$allocator@D@2@@std@@H@std@@@std@@@std@@QAEPAU?$_Tree_node@U?$pair@$$CBV?$basic_string@DU?$char_traits@D@std@@V?$allocator@D@2@@std@@H@std@@PAX@2@U?$_Tree_id@PAU?$_Tree_node@U?$pair@$$CBV?$basic_string@DU?$char_traits@D@std@@V?$allocator@D@2@@std@@H@std@@PAX@std@@@2@QAU32@@Z
_TEXT	SEGMENT
__Head$1$ = -4						; size = 4
__Loc$ = 8						; size = 8
__Newnode$ = 16						; size = 4
?_Insert_node@?$_Tree_val@U?$_Tree_simple_types@U?$pair@$$CBV?$basic_string@DU?$char_traits@D@std@@V?$allocator@D@2@@std@@H@std@@@std@@@std@@QAEPAU?$_Tree_node@U?$pair@$$CBV?$basic_string@DU?$char_traits@D@std@@V?$allocator@D@2@@std@@H@std@@PAX@2@U?$_Tree_id@PAU?$_Tree_node@U?$pair@$$CBV?$basic_string@DU?$char_traits@D@std@@V?$allocator@D@2@@std@@H@std@@PAX@std@@@2@QAU32@@Z PROC ; std::_Tree_val<std::_Tree_simple_types<std::pair<std::basic_string<char,std::char_traits<char>,std::allocator<char> > const ,int> > >::_Insert_node, COMDAT
; _this$ = ecx

; 669  :     _Nodeptr _Insert_node(const _Tree_id<_Nodeptr> _Loc, const _Nodeptr _Newnode) noexcept {

  00000	55		 push	 ebp
  00001	8b ec		 mov	 ebp, esp
  00003	51		 push	 ecx

; 670  :         ++_Mysize;
; 671  :         const auto _Head  = _Myhead;
; 672  :         _Newnode->_Parent = _Loc._Parent;

  00004	8b 55 08	 mov	 edx, DWORD PTR __Loc$[ebp]
  00007	53		 push	 ebx
  00008	8b d9		 mov	 ebx, ecx
  0000a	57		 push	 edi
  0000b	8b 7d 10	 mov	 edi, DWORD PTR __Newnode$[ebp]
  0000e	8b 03		 mov	 eax, DWORD PTR [ebx]
  00010	ff 43 04	 inc	 DWORD PTR [ebx+4]
  00013	89 45 fc	 mov	 DWORD PTR __Head$1$[ebp], eax
  00016	89 57 04	 mov	 DWORD PTR [edi+4], edx

; 673  :         if (_Loc._Parent == _Head) { // first node in tree, just set head values

  00019	3b d0		 cmp	 edx, eax
  0001b	75 16		 jne	 SHORT $LN5@Insert_nod

; 674  :             _Head->_Left     = _Newnode;

  0001d	89 38		 mov	 DWORD PTR [eax], edi

; 675  :             _Head->_Parent   = _Newnode;

  0001f	89 78 04	 mov	 DWORD PTR [eax+4], edi

; 676  :             _Head->_Right    = _Newnode;

  00022	89 78 08	 mov	 DWORD PTR [eax+8], edi

; 735  :         return _Newnode;
; 736  :     }

  00025	8b c7		 mov	 eax, edi
  00027	c6 47 0c 01	 mov	 BYTE PTR [edi+12], 1
  0002b	5f		 pop	 edi
  0002c	5b		 pop	 ebx
  0002d	8b e5		 mov	 esp, ebp
  0002f	5d		 pop	 ebp
  00030	c2 0c 00	 ret	 12			; 0000000cH
$LN5@Insert_nod:

; 677  :             _Newnode->_Color = _Black; // the root is black
; 678  :             return _Newnode;
; 679  :         }
; 680  : 
; 681  :         _STL_INTERNAL_CHECK(_Loc._Child != _Tree_child::_Unused);
; 682  :         if (_Loc._Child == _Tree_child::_Right) { // add to right of _Loc._Parent

  00033	83 7d 0c 00	 cmp	 DWORD PTR __Loc$[ebp+4], 0
  00037	75 0d		 jne	 SHORT $LN6@Insert_nod

; 683  :             _STL_INTERNAL_CHECK(_Loc._Parent->_Right->_Isnil);
; 684  :             _Loc._Parent->_Right = _Newnode;

  00039	89 7a 08	 mov	 DWORD PTR [edx+8], edi

; 685  :             if (_Loc._Parent == _Head->_Right) { // remember rightmost node

  0003c	3b 50 08	 cmp	 edx, DWORD PTR [eax+8]
  0003f	75 0d		 jne	 SHORT $LN9@Insert_nod

; 686  :                 _Head->_Right = _Newnode;

  00041	89 78 08	 mov	 DWORD PTR [eax+8], edi

; 687  :             }
; 688  :         } else { // add to left of _Loc._Parent

  00044	eb 08		 jmp	 SHORT $LN9@Insert_nod
$LN6@Insert_nod:

; 689  :             _STL_INTERNAL_CHECK(_Loc._Parent->_Left->_Isnil);
; 690  :             _Loc._Parent->_Left = _Newnode;

  00046	89 3a		 mov	 DWORD PTR [edx], edi

; 691  :             if (_Loc._Parent == _Head->_Left) { // remember leftmost node

  00048	3b 10		 cmp	 edx, DWORD PTR [eax]
  0004a	75 02		 jne	 SHORT $LN9@Insert_nod

; 692  :                 _Head->_Left = _Newnode;

  0004c	89 38		 mov	 DWORD PTR [eax], edi
$LN9@Insert_nod:

; 693  :             }
; 694  :         }
; 695  : 
; 696  :         for (_Nodeptr _Pnode = _Newnode; _Pnode->_Parent->_Color == _Red;) {

  0004e	8b 4f 04	 mov	 ecx, DWORD PTR [edi+4]
  00051	8b c7		 mov	 eax, edi
  00053	80 79 0c 00	 cmp	 BYTE PTR [ecx+12], 0
  00057	0f 85 7d 01 00
	00		 jne	 $LN3@Insert_nod
  0005d	56		 push	 esi
  0005e	66 90		 npad	 2
$LL4@Insert_nod:

; 697  :             if (_Pnode->_Parent == _Pnode->_Parent->_Parent->_Left) { // fixup red-red in left subtree

  00060	8b 50 04	 mov	 edx, DWORD PTR [eax+4]
  00063	8b 72 04	 mov	 esi, DWORD PTR [edx+4]
  00066	8b 0e		 mov	 ecx, DWORD PTR [esi]
  00068	3b d1		 cmp	 edx, ecx
  0006a	0f 85 aa 00 00
	00		 jne	 $LN10@Insert_nod

; 698  :                 const auto _Parent_sibling = _Pnode->_Parent->_Parent->_Right;

  00070	8b 4e 08	 mov	 ecx, DWORD PTR [esi+8]

; 699  :                 if (_Parent_sibling->_Color == _Red) { // parent's sibling has two red children, blacken both

  00073	80 79 0c 00	 cmp	 BYTE PTR [ecx+12], 0
  00077	0f 84 a3 00 00
	00		 je	 $LN82@Insert_nod

; 700  :                     _Pnode->_Parent->_Color          = _Black;
; 701  :                     _Parent_sibling->_Color          = _Black;
; 702  :                     _Pnode->_Parent->_Parent->_Color = _Red;
; 703  :                     _Pnode                           = _Pnode->_Parent->_Parent;
; 704  :                 } else { // parent's sibling has red and black children
; 705  :                     if (_Pnode == _Pnode->_Parent->_Right) { // rotate right child to left

  0007d	8b 72 08	 mov	 esi, DWORD PTR [edx+8]
  00080	3b c6		 cmp	 eax, esi
  00082	75 37		 jne	 SHORT $LN57@Insert_nod

; 485  :         _Wherenode->_Right = _Pnode->_Left;

  00084	8b 0e		 mov	 ecx, DWORD PTR [esi]

; 706  :                         _Pnode = _Pnode->_Parent;

  00086	8b c2		 mov	 eax, edx

; 485  :         _Wherenode->_Right = _Pnode->_Left;

  00088	89 4a 08	 mov	 DWORD PTR [edx+8], ecx

; 486  : 
; 487  :         if (!_Pnode->_Left->_Isnil) {

  0008b	8b 0e		 mov	 ecx, DWORD PTR [esi]
  0008d	80 79 0d 00	 cmp	 BYTE PTR [ecx+13], 0
  00091	75 03		 jne	 SHORT $LN21@Insert_nod

; 488  :             _Pnode->_Left->_Parent = _Wherenode;

  00093	89 41 04	 mov	 DWORD PTR [ecx+4], eax
$LN21@Insert_nod:

; 489  :         }
; 490  : 
; 491  :         _Pnode->_Parent = _Wherenode->_Parent;

  00096	8b 4a 04	 mov	 ecx, DWORD PTR [edx+4]
  00099	89 4e 04	 mov	 DWORD PTR [esi+4], ecx

; 492  : 
; 493  :         if (_Wherenode == _Myhead->_Parent) {

  0009c	8b 0b		 mov	 ecx, DWORD PTR [ebx]
  0009e	3b 41 04	 cmp	 eax, DWORD PTR [ecx+4]
  000a1	75 05		 jne	 SHORT $LN22@Insert_nod

; 494  :             _Myhead->_Parent = _Pnode;

  000a3	89 71 04	 mov	 DWORD PTR [ecx+4], esi
  000a6	eb 0e		 jmp	 SHORT $LN25@Insert_nod
$LN22@Insert_nod:

; 495  :         } else if (_Wherenode == _Wherenode->_Parent->_Left) {

  000a8	8b 4a 04	 mov	 ecx, DWORD PTR [edx+4]
  000ab	3b 01		 cmp	 eax, DWORD PTR [ecx]
  000ad	75 04		 jne	 SHORT $LN24@Insert_nod

; 496  :             _Wherenode->_Parent->_Left = _Pnode;

  000af	89 31		 mov	 DWORD PTR [ecx], esi

; 497  :         } else {

  000b1	eb 03		 jmp	 SHORT $LN25@Insert_nod
$LN24@Insert_nod:

; 498  :             _Wherenode->_Parent->_Right = _Pnode;

  000b3	89 71 08	 mov	 DWORD PTR [ecx+8], esi
$LN25@Insert_nod:

; 499  :         }
; 500  : 
; 501  :         _Pnode->_Left       = _Wherenode;

  000b6	89 06		 mov	 DWORD PTR [esi], eax

; 502  :         _Wherenode->_Parent = _Pnode;

  000b8	89 70 04	 mov	 DWORD PTR [eax+4], esi
$LN57@Insert_nod:

; 707  :                         _Lrotate(_Pnode);
; 708  :                     }
; 709  : 
; 710  :                     _Pnode->_Parent->_Color          = _Black; // propagate red up

  000bb	8b 48 04	 mov	 ecx, DWORD PTR [eax+4]
  000be	c6 41 0c 01	 mov	 BYTE PTR [ecx+12], 1

; 711  :                     _Pnode->_Parent->_Parent->_Color = _Red;

  000c2	8b 48 04	 mov	 ecx, DWORD PTR [eax+4]
  000c5	8b 49 04	 mov	 ecx, DWORD PTR [ecx+4]
  000c8	c6 41 0c 00	 mov	 BYTE PTR [ecx+12], 0

; 712  :                     _Rrotate(_Pnode->_Parent->_Parent);

  000cc	8b 48 04	 mov	 ecx, DWORD PTR [eax+4]
  000cf	8b 51 04	 mov	 edx, DWORD PTR [ecx+4]

; 506  :         _Nodeptr _Pnode   = _Wherenode->_Left;

  000d2	8b 32		 mov	 esi, DWORD PTR [edx]

; 507  :         _Wherenode->_Left = _Pnode->_Right;

  000d4	8b 4e 08	 mov	 ecx, DWORD PTR [esi+8]
  000d7	89 0a		 mov	 DWORD PTR [edx], ecx

; 508  : 
; 509  :         if (!_Pnode->_Right->_Isnil) {

  000d9	8b 4e 08	 mov	 ecx, DWORD PTR [esi+8]
  000dc	80 79 0d 00	 cmp	 BYTE PTR [ecx+13], 0
  000e0	75 03		 jne	 SHORT $LN29@Insert_nod

; 510  :             _Pnode->_Right->_Parent = _Wherenode;

  000e2	89 51 04	 mov	 DWORD PTR [ecx+4], edx
$LN29@Insert_nod:

; 511  :         }
; 512  : 
; 513  :         _Pnode->_Parent = _Wherenode->_Parent;

  000e5	8b 4a 04	 mov	 ecx, DWORD PTR [edx+4]
  000e8	89 4e 04	 mov	 DWORD PTR [esi+4], ecx

; 514  : 
; 515  :         if (_Wherenode == _Myhead->_Parent) {

  000eb	8b 0b		 mov	 ecx, DWORD PTR [ebx]
  000ed	3b 51 04	 cmp	 edx, DWORD PTR [ecx+4]
  000f0	75 0b		 jne	 SHORT $LN30@Insert_nod

; 516  :             _Myhead->_Parent = _Pnode;

  000f2	89 71 04	 mov	 DWORD PTR [ecx+4], esi

; 521  :         }
; 522  : 
; 523  :         _Pnode->_Right      = _Wherenode;

  000f5	89 56 08	 mov	 DWORD PTR [esi+8], edx

; 713  :                 }
; 714  :             } else { // fixup red-red in right subtree

  000f8	e9 cc 00 00 00	 jmp	 $LN81@Insert_nod
$LN30@Insert_nod:

; 517  :         } else if (_Wherenode == _Wherenode->_Parent->_Right) {

  000fd	8b 4a 04	 mov	 ecx, DWORD PTR [edx+4]
  00100	3b 51 08	 cmp	 edx, DWORD PTR [ecx+8]
  00103	75 0b		 jne	 SHORT $LN32@Insert_nod

; 518  :             _Wherenode->_Parent->_Right = _Pnode;

  00105	89 71 08	 mov	 DWORD PTR [ecx+8], esi

; 521  :         }
; 522  : 
; 523  :         _Pnode->_Right      = _Wherenode;

  00108	89 56 08	 mov	 DWORD PTR [esi+8], edx

; 713  :                 }
; 714  :             } else { // fixup red-red in right subtree

  0010b	e9 b9 00 00 00	 jmp	 $LN81@Insert_nod
$LN32@Insert_nod:

; 520  :             _Wherenode->_Parent->_Left = _Pnode;

  00110	89 31		 mov	 DWORD PTR [ecx], esi

; 521  :         }
; 522  : 
; 523  :         _Pnode->_Right      = _Wherenode;

  00112	89 56 08	 mov	 DWORD PTR [esi+8], edx

; 713  :                 }
; 714  :             } else { // fixup red-red in right subtree

  00115	e9 af 00 00 00	 jmp	 $LN81@Insert_nod
$LN10@Insert_nod:

; 715  :                 const auto _Parent_sibling = _Pnode->_Parent->_Parent->_Left;
; 716  :                 if (_Parent_sibling->_Color == _Red) { // parent's sibling has two red children, blacken both

  0011a	80 79 0c 00	 cmp	 BYTE PTR [ecx+12], 0
  0011e	75 1d		 jne	 SHORT $LN15@Insert_nod
$LN82@Insert_nod:

; 693  :             }
; 694  :         }
; 695  : 
; 696  :         for (_Nodeptr _Pnode = _Newnode; _Pnode->_Parent->_Color == _Red;) {

  00120	c6 42 0c 01	 mov	 BYTE PTR [edx+12], 1
  00124	c6 41 0c 01	 mov	 BYTE PTR [ecx+12], 1
  00128	8b 48 04	 mov	 ecx, DWORD PTR [eax+4]
  0012b	8b 49 04	 mov	 ecx, DWORD PTR [ecx+4]
  0012e	c6 41 0c 00	 mov	 BYTE PTR [ecx+12], 0
  00132	8b 48 04	 mov	 ecx, DWORD PTR [eax+4]
  00135	8b 41 04	 mov	 eax, DWORD PTR [ecx+4]
  00138	e9 8f 00 00 00	 jmp	 $LN2@Insert_nod
$LN15@Insert_nod:

; 717  :                     _Pnode->_Parent->_Color          = _Black;
; 718  :                     _Parent_sibling->_Color          = _Black;
; 719  :                     _Pnode->_Parent->_Parent->_Color = _Red;
; 720  :                     _Pnode                           = _Pnode->_Parent->_Parent;
; 721  :                 } else { // parent's sibling has red and black children
; 722  :                     if (_Pnode == _Pnode->_Parent->_Left) { // rotate left child to right

  0013d	8b 32		 mov	 esi, DWORD PTR [edx]
  0013f	3b c6		 cmp	 eax, esi
  00141	75 3a		 jne	 SHORT $LN42@Insert_nod

; 507  :         _Wherenode->_Left = _Pnode->_Right;

  00143	8b 4e 08	 mov	 ecx, DWORD PTR [esi+8]

; 723  :                         _Pnode = _Pnode->_Parent;

  00146	8b c2		 mov	 eax, edx

; 507  :         _Wherenode->_Left = _Pnode->_Right;

  00148	89 08		 mov	 DWORD PTR [eax], ecx

; 508  : 
; 509  :         if (!_Pnode->_Right->_Isnil) {

  0014a	8b 4e 08	 mov	 ecx, DWORD PTR [esi+8]
  0014d	80 79 0d 00	 cmp	 BYTE PTR [ecx+13], 0
  00151	75 03		 jne	 SHORT $LN37@Insert_nod

; 510  :             _Pnode->_Right->_Parent = _Wherenode;

  00153	89 41 04	 mov	 DWORD PTR [ecx+4], eax
$LN37@Insert_nod:

; 511  :         }
; 512  : 
; 513  :         _Pnode->_Parent = _Wherenode->_Parent;

  00156	8b 4a 04	 mov	 ecx, DWORD PTR [edx+4]
  00159	89 4e 04	 mov	 DWORD PTR [esi+4], ecx

; 514  : 
; 515  :         if (_Wherenode == _Myhead->_Parent) {

  0015c	8b 0b		 mov	 ecx, DWORD PTR [ebx]
  0015e	3b 41 04	 cmp	 eax, DWORD PTR [ecx+4]
  00161	75 05		 jne	 SHORT $LN38@Insert_nod

; 516  :             _Myhead->_Parent = _Pnode;

  00163	89 71 04	 mov	 DWORD PTR [ecx+4], esi
  00166	eb 0f		 jmp	 SHORT $LN41@Insert_nod
$LN38@Insert_nod:

; 517  :         } else if (_Wherenode == _Wherenode->_Parent->_Right) {

  00168	8b 4a 04	 mov	 ecx, DWORD PTR [edx+4]
  0016b	3b 41 08	 cmp	 eax, DWORD PTR [ecx+8]
  0016e	75 05		 jne	 SHORT $LN40@Insert_nod

; 518  :             _Wherenode->_Parent->_Right = _Pnode;

  00170	89 71 08	 mov	 DWORD PTR [ecx+8], esi

; 519  :         } else {

  00173	eb 02		 jmp	 SHORT $LN41@Insert_nod
$LN40@Insert_nod:

; 520  :             _Wherenode->_Parent->_Left = _Pnode;

  00175	89 31		 mov	 DWORD PTR [ecx], esi
$LN41@Insert_nod:

; 521  :         }
; 522  : 
; 523  :         _Pnode->_Right      = _Wherenode;

  00177	89 46 08	 mov	 DWORD PTR [esi+8], eax

; 524  :         _Wherenode->_Parent = _Pnode;

  0017a	89 70 04	 mov	 DWORD PTR [eax+4], esi
$LN42@Insert_nod:

; 724  :                         _Rrotate(_Pnode);
; 725  :                     }
; 726  : 
; 727  :                     _Pnode->_Parent->_Color          = _Black; // propagate red up

  0017d	8b 48 04	 mov	 ecx, DWORD PTR [eax+4]
  00180	c6 41 0c 01	 mov	 BYTE PTR [ecx+12], 1

; 728  :                     _Pnode->_Parent->_Parent->_Color = _Red;

  00184	8b 48 04	 mov	 ecx, DWORD PTR [eax+4]
  00187	8b 49 04	 mov	 ecx, DWORD PTR [ecx+4]
  0018a	c6 41 0c 00	 mov	 BYTE PTR [ecx+12], 0

; 729  :                     _Lrotate(_Pnode->_Parent->_Parent);

  0018e	8b 48 04	 mov	 ecx, DWORD PTR [eax+4]
  00191	8b 51 04	 mov	 edx, DWORD PTR [ecx+4]

; 484  :         _Nodeptr _Pnode    = _Wherenode->_Right;

  00194	8b 72 08	 mov	 esi, DWORD PTR [edx+8]

; 485  :         _Wherenode->_Right = _Pnode->_Left;

  00197	8b 0e		 mov	 ecx, DWORD PTR [esi]
  00199	89 4a 08	 mov	 DWORD PTR [edx+8], ecx

; 486  : 
; 487  :         if (!_Pnode->_Left->_Isnil) {

  0019c	8b 0e		 mov	 ecx, DWORD PTR [esi]
  0019e	80 79 0d 00	 cmp	 BYTE PTR [ecx+13], 0
  001a2	75 03		 jne	 SHORT $LN45@Insert_nod

; 488  :             _Pnode->_Left->_Parent = _Wherenode;

  001a4	89 51 04	 mov	 DWORD PTR [ecx+4], edx
$LN45@Insert_nod:

; 489  :         }
; 490  : 
; 491  :         _Pnode->_Parent = _Wherenode->_Parent;

  001a7	8b 4a 04	 mov	 ecx, DWORD PTR [edx+4]
  001aa	89 4e 04	 mov	 DWORD PTR [esi+4], ecx

; 492  : 
; 493  :         if (_Wherenode == _Myhead->_Parent) {

  001ad	8b 0b		 mov	 ecx, DWORD PTR [ebx]
  001af	3b 51 04	 cmp	 edx, DWORD PTR [ecx+4]
  001b2	75 05		 jne	 SHORT $LN46@Insert_nod

; 494  :             _Myhead->_Parent = _Pnode;

  001b4	89 71 04	 mov	 DWORD PTR [ecx+4], esi
  001b7	eb 0e		 jmp	 SHORT $LN49@Insert_nod
$LN46@Insert_nod:

; 495  :         } else if (_Wherenode == _Wherenode->_Parent->_Left) {

  001b9	8b 4a 04	 mov	 ecx, DWORD PTR [edx+4]
  001bc	3b 11		 cmp	 edx, DWORD PTR [ecx]
  001be	75 04		 jne	 SHORT $LN48@Insert_nod

; 496  :             _Wherenode->_Parent->_Left = _Pnode;

  001c0	89 31		 mov	 DWORD PTR [ecx], esi

; 497  :         } else {

  001c2	eb 03		 jmp	 SHORT $LN49@Insert_nod
$LN48@Insert_nod:

; 498  :             _Wherenode->_Parent->_Right = _Pnode;

  001c4	89 71 08	 mov	 DWORD PTR [ecx+8], esi
$LN49@Insert_nod:

; 499  :         }
; 500  : 
; 501  :         _Pnode->_Left       = _Wherenode;

  001c7	89 16		 mov	 DWORD PTR [esi], edx
$LN81@Insert_nod:

; 693  :             }
; 694  :         }
; 695  : 
; 696  :         for (_Nodeptr _Pnode = _Newnode; _Pnode->_Parent->_Color == _Red;) {

  001c9	89 72 04	 mov	 DWORD PTR [edx+4], esi
$LN2@Insert_nod:
  001cc	8b 48 04	 mov	 ecx, DWORD PTR [eax+4]
  001cf	80 79 0c 00	 cmp	 BYTE PTR [ecx+12], 0
  001d3	0f 84 87 fe ff
	ff		 je	 $LL4@Insert_nod
  001d9	5e		 pop	 esi
$LN3@Insert_nod:

; 730  :                 }
; 731  :             }
; 732  :         }
; 733  : 
; 734  :         _Head->_Parent->_Color = _Black; // root is always black

  001da	8b 45 fc	 mov	 eax, DWORD PTR __Head$1$[ebp]
  001dd	8b 40 04	 mov	 eax, DWORD PTR [eax+4]
  001e0	c6 40 0c 01	 mov	 BYTE PTR [eax+12], 1

; 735  :         return _Newnode;
; 736  :     }

  001e4	8b c7		 mov	 eax, edi
  001e6	5f		 pop	 edi
  001e7	5b		 pop	 ebx
  001e8	8b e5		 mov	 esp, ebp
  001ea	5d		 pop	 ebp
  001eb	c2 0c 00	 ret	 12			; 0000000cH
?_Insert_node@?$_Tree_val@U?$_Tree_simple_types@U?$pair@$$CBV?$basic_string@DU?$char_traits@D@std@@V?$allocator@D@2@@std@@H@std@@@std@@@std@@QAEPAU?$_Tree_node@U?$pair@$$CBV?$basic_string@DU?$char_traits@D@std@@V?$allocator@D@2@@std@@H@std@@PAX@2@U?$_Tree_id@PAU?$_Tree_node@U?$pair@$$CBV?$basic_string@DU?$char_traits@D@std@@V?$allocator@D@2@@std@@H@std@@PAX@std@@@2@QAU32@@Z ENDP ; std::_Tree_val<std::_Tree_simple_types<std::pair<std::basic_string<char,std::char_traits<char>,std::allocator<char> > const ,int> > >::_Insert_node
_TEXT	ENDS
; Function compile flags: /Ogtp
;	COMDAT ??_GCAIMonster2@@UAEPAXI@Z
_TEXT	SEGMENT
___flags$ = 8						; size = 4
??_GCAIMonster2@@UAEPAXI@Z PROC				; CAIMonster2::`scalar deleting destructor', COMDAT
; _this$ = ecx
  00000	55		 push	 ebp
  00001	8b ec		 mov	 ebp, esp
  00003	56		 push	 esi
  00004	8b f1		 mov	 esi, ecx
  00006	e8 00 00 00 00	 call	 ??1CAIMonster2@@UAE@XZ	; CAIMonster2::~CAIMonster2
  0000b	f6 45 08 01	 test	 BYTE PTR ___flags$[ebp], 1
  0000f	74 0b		 je	 SHORT $LN5@scalar
  00011	6a 70		 push	 112			; 00000070H
  00013	56		 push	 esi
  00014	e8 00 00 00 00	 call	 ??3@YAXPAXI@Z		; operator delete
  00019	83 c4 08	 add	 esp, 8
$LN5@scalar:
  0001c	8b c6		 mov	 eax, esi
  0001e	5e		 pop	 esi
  0001f	5d		 pop	 ebp
  00020	c2 04 00	 ret	 4
??_GCAIMonster2@@UAEPAXI@Z ENDP				; CAIMonster2::`scalar deleting destructor'
_TEXT	ENDS
; Function compile flags: /Ogtp
; File C:\IAGOS\server\v18\Source\Source\_AIInterface\AIMonster2.cpp
; File C:\IAGOS\server\v18\Source\Source\_Common\Obj.h
; File C:\IAGOS\server\v18\Source\Source\_AIInterface\Action.h
; File C:\IAGOS\server\v18\Source\Source\_Common\Mover.h
; File C:\IAGOS\server\v18\Source\Source\_AIInterface\Action.h
; File C:\IAGOS\server\v18\Source\Source\_AIInterface\AIMonster2.cpp
;	COMDAT ?IsInValidTarget@CAIMonster2@@AAEHXZ
_TEXT	SEGMENT
?IsInValidTarget@CAIMonster2@@AAEHXZ PROC		; CAIMonster2::IsInValidTarget, COMDAT
; _this$ = ecx

; 667  : {

  00000	56		 push	 esi
  00001	8b f1		 mov	 esi, ecx

; 668  : 	if( m_idTarget == NULL_ID )

  00003	8b 46 54	 mov	 eax, DWORD PTR [esi+84]
  00006	83 f8 ff	 cmp	 eax, -1
  00009	74 44		 je	 SHORT $LN25@IsInValidT

; 669  : 		return TRUE;
; 670  : 	
; 671  : 	CMover* pTarget = prj.GetMover( m_idTarget );

  0000b	50		 push	 eax
  0000c	b9 00 00 00 00	 mov	 ecx, OFFSET ?prj@@3VCProject@@A ; prj
  00011	e8 00 00 00 00	 call	 ?GetMover@CProject@@QAEPAVCMover@@K@Z ; CProject::GetMover
; File C:\IAGOS\server\v18\Source\Source\_Common\Obj.h

; 327  : 	return pObj && ( pObj->IsDelete() == FALSE ); 

  00016	85 c0		 test	 eax, eax
  00018	74 35		 je	 SHORT $LN25@IsInValidT

; 180  : 	BOOL			IsDelete()	{ return (m_dwFlags & OBJ_FLAG_DELETE);  }

  0001a	f6 40 04 01	 test	 BYTE PTR [eax+4], 1

; 327  : 	return pObj && ( pObj->IsDelete() == FALSE ); 

  0001e	75 2f		 jne	 SHORT $LN25@IsInValidT
; File C:\IAGOS\server\v18\Source\Source\_AIInterface\Action.h

; 310  : 	BOOL			IsDie() { return (m_dwState & OBJSTA_DIE_ALL) ? TRUE : FALSE; }

  00020	8b 88 38 02 00
	00		 mov	 ecx, DWORD PTR [eax+568]
; File C:\IAGOS\server\v18\Source\Source\_Common\Mover.h

; 1250 : 	BOOL			IsDie() { return m_pActMover->IsDie() || m_nHitPoint == 0; }

  00026	f7 41 04 00 00
	00 08		 test	 DWORD PTR [ecx+4], 134217728 ; 08000000H
  0002d	75 20		 jne	 SHORT $LN25@IsInValidT
  0002f	83 b8 f8 05 00
	00 00		 cmp	 DWORD PTR [eax+1528], 0
  00036	74 17		 je	 SHORT $LN25@IsInValidT
; File C:\IAGOS\server\v18\Source\Source\_AIInterface\Action.h

; 309  : 	BOOL			IsFly() { return (m_dwStateFlag & OBJSTAF_FLY) ? TRUE : FALSE; }

  00038	8b 46 30	 mov	 eax, DWORD PTR [esi+48]
  0003b	8b 49 08	 mov	 ecx, DWORD PTR [ecx+8]
  0003e	c1 e9 03	 shr	 ecx, 3
  00041	5e		 pop	 esi
  00042	0f b7 80 3e 02
	00 00		 movzx	 eax, WORD PTR [eax+574]
; File C:\IAGOS\server\v18\Source\Source\_AIInterface\AIMonster2.cpp

; 678  : 	if( GetMover()->IsFlyingNPC() != pTarget->m_pActMover->IsFly() )	

  00049	33 c1		 xor	 eax, ecx
  0004b	83 e0 01	 and	 eax, 1

; 680  : 
; 681  : 	return FALSE;
; 682  : }

  0004e	c3		 ret	 0
$LN25@IsInValidT:

; 679  : 		return TRUE;

  0004f	b8 01 00 00 00	 mov	 eax, 1
  00054	5e		 pop	 esi

; 680  : 
; 681  : 	return FALSE;
; 682  : }

  00055	c3		 ret	 0
?IsInValidTarget@CAIMonster2@@AAEHXZ ENDP		; CAIMonster2::IsInValidTarget
_TEXT	ENDS
; Function compile flags: /Ogtp
; File C:\IAGOS\server\v18\Source\Source\_AIInterface\AIMonster2.cpp
; File C:\IAGOS\server\v18\Source\Source\_Common\Obj.h
; File C:\IAGOS\server\v18\Source\Source\_AIInterface\AIMonster2.cpp
; File C:\IAGOS\server\v18\Source\Source\_Common\Obj.h
; File C:\IAGOS\server\v18\Source\Source\DX_SDK\d3dx9math.inl
; File C:\IAGOS\server\v18\Source\Source\_Common\Obj.h
; File C:\IAGOS\server\v18\Source\Source\DX_SDK\d3dx9math.inl
; File C:\IAGOS\server\v18\Source\Source\_Common\Obj.h
; File C:\IAGOS\server\v18\Source\Source\DX_SDK\d3dx9math.inl
; File C:\IAGOS\server\v18\Source\Source\_Common\Obj.h
; File C:\IAGOS\server\v18\Source\Source\DX_SDK\d3dx9math.inl
; File C:\IAGOS\server\v18\Source\Source\_AIInterface\AIMonster2.cpp
; File C:\IAGOS\server\v18\Source\Source\DX_SDK\d3dx9math.inl
; File C:\IAGOS\server\v18\Source\Source\_AIInterface\AIMonster2.cpp
; File C:\IAGOS\server\v18\Source\Source\_Common\xUtil.h
; File C:\IAGOS\server\v18\Source\Source\_AIInterface\AIMonster2.cpp
; File C:\IAGOS\server\v18\Source\Source\_Common\xUtil.h
; File C:\IAGOS\server\v18\Source\Source\_AIInterface\AIMonster2.cpp
; File C:\IAGOS\server\v18\Source\Source\_Common\xUtil.h
; File C:\IAGOS\server\v18\Source\Source\_AIInterface\AIMonster2.cpp
;	COMDAT ?Search@CAIMonster2@@AAEHXZ
_TEXT	SEGMENT
$T1 = -32						; size = 12
_vTarget$ = -20						; size = 12
_fRadiusSq$1$ = -8					; size = 4
_fRadius$ = -4						; size = 4
?Search@CAIMonster2@@AAEHXZ PROC			; CAIMonster2::Search, COMDAT
; _this$ = ecx

; 511  : {

  00000	55		 push	 ebp
  00001	8b ec		 mov	 ebp, esp
  00003	83 ec 20	 sub	 esp, 32			; 00000020H
  00006	56		 push	 esi
  00007	8b f1		 mov	 esi, ecx
  00009	57		 push	 edi

; 512  : 	CMover	*pMover = GetMover();

  0000a	8b 7e 30	 mov	 edi, DWORD PTR [esi+48]

; 513  : 	CWorld	*pWorld = GetWorld();
; 514  : 	CModelObject *pModel = (CModelObject *)pMover->GetModel();
; 515  : 
; 516  : 	FLOAT fRadius = pMover->GetRadiusXZ();		// this의 반지름

  0000d	8b cf		 mov	 ecx, edi
  0000f	e8 00 00 00 00	 call	 ?GetRadiusXZ@CObj@@QAEMXZ ; CObj::GetRadiusXZ

; 517  : 	FLOAT fRadiusSq = fRadius * fRadius;		// 반지름Sq버전.
; 518  : 	
; 519  : 	if( m_idTarget == NULL_ID &&										// 공격대상이 정해지지 않았고

  00014	83 7e 54 ff	 cmp	 DWORD PTR [esi+84], -1
  00018	0f 57 c9	 xorps	 xmm1, xmm1
  0001b	d9 5d fc	 fstp	 DWORD PTR _fRadius$[ebp]
  0001e	f3 0f 10 45 fc	 movss	 xmm0, DWORD PTR _fRadius$[ebp]
  00023	f3 0f 59 c0	 mulss	 xmm0, xmm0
  00027	f3 0f 11 45 f8	 movss	 DWORD PTR _fRadiusSq$1$[ebp], xmm0
  0002c	75 3c		 jne	 SHORT $LN3@Search
  0002e	f3 0f 10 46 58	 movss	 xmm0, DWORD PTR [esi+88]
  00033	0f 2e c1	 ucomiss xmm0, xmm1
  00036	9f		 lahf
  00037	f6 c4 44	 test	 ah, 68			; 00000044H
  0003a	7a 2e		 jp	 SHORT $LN3@Search
  0003c	f3 0f 10 46 5c	 movss	 xmm0, DWORD PTR [esi+92]
  00041	0f 2e c1	 ucomiss xmm0, xmm1
  00044	9f		 lahf
  00045	f6 c4 44	 test	 ah, 68			; 00000044H
  00048	7a 20		 jp	 SHORT $LN3@Search
  0004a	f3 0f 10 46 60	 movss	 xmm0, DWORD PTR [esi+96]
  0004f	0f 2e c1	 ucomiss xmm0, xmm1
  00052	9f		 lahf
  00053	f6 c4 44	 test	 ah, 68			; 00000044H
  00056	7a 12		 jp	 SHORT $LN3@Search

; 520  : 		(m_vTarget.x == 0 && m_vTarget.y == 0 && m_vTarget.z == 0) )	// 공격위치도 정해지지 않았다.
; 521  : 	{
; 522  : 		// 어떤 쉐리를 공격할까....? 를 선정함.
; 523  : 		if( SelectTarget() == FALSE )

  00058	8b ce		 mov	 ecx, esi
  0005a	e8 00 00 00 00	 call	 ?SelectTarget@CAIMonster2@@AAEHXZ ; CAIMonster2::SelectTarget
  0005f	85 c0		 test	 eax, eax
  00061	0f 84 a5 01 00
	00		 je	 $LN8@Search
  00067	0f 57 c9	 xorps	 xmm1, xmm1
$LN3@Search:

; 524  : 			return FALSE;
; 525  : 	}
; 526  : 
; 527  : 	D3DXVECTOR3	vTarget;
; 528  : 	FLOAT	fDistSq = 0;					// 공격지점과 this의 거리.
; 529  : 	CMover *pTarget = NULL;
; 530  : 
; 531  : 	if( m_idTarget != NULL_ID )					// 타겟오브젝이 있을때

  0006a	8b 46 54	 mov	 eax, DWORD PTR [esi+84]
  0006d	83 f8 ff	 cmp	 eax, -1
  00070	74 2d		 je	 SHORT $LN4@Search

; 532  : 	{
; 533  : 		pTarget = prj.GetMover( m_idTarget );

  00072	50		 push	 eax
  00073	b9 00 00 00 00	 mov	 ecx, OFFSET ?prj@@3VCProject@@A ; prj
  00078	e8 00 00 00 00	 call	 ?GetMover@CProject@@QAEPAVCMover@@K@Z ; CProject::GetMover
; File C:\IAGOS\server\v18\Source\Source\_Common\Obj.h

; 327  : 	return pObj && ( pObj->IsDelete() == FALSE ); 

  0007d	85 c0		 test	 eax, eax
  0007f	0f 84 80 01 00
	00		 je	 $LN18@Search

; 180  : 	BOOL			IsDelete()	{ return (m_dwFlags & OBJ_FLAG_DELETE);  }

  00085	f6 40 04 01	 test	 BYTE PTR [eax+4], 1

; 327  : 	return pObj && ( pObj->IsDelete() == FALSE ); 

  00089	0f 85 76 01 00
	00		 jne	 $LN18@Search
; File C:\IAGOS\server\v18\Source\Source\_AIInterface\AIMonster2.cpp

; 535  : 			vTarget = pTarget->GetPos();		// 공격좌표는 타겟무버의 좌표

  0008f	f3 0f 7e 80 60
	01 00 00	 movq	 xmm0, QWORD PTR [eax+352]
  00097	8b 80 68 01 00
	00		 mov	 eax, DWORD PTR [eax+360]

; 536  : 		else
; 537  : 		{
; 538  : 			m_idTarget = NULL_ID;
; 539  : 			return FALSE;						// 타겟이 거시기 하면 걍리턴.
; 540  : 		}
; 541  : 	} 

  0009d	eb 3e		 jmp	 SHORT $LN68@Search
$LN4@Search:

; 542  : 	else if( m_vTarget.x && m_vTarget.y && m_vTarget.z )		// 공격 좌표로 설정되어 있을때.

  0009f	f3 0f 10 46 58	 movss	 xmm0, DWORD PTR [esi+88]
  000a4	0f 2e c1	 ucomiss xmm0, xmm1
  000a7	9f		 lahf
  000a8	f6 c4 44	 test	 ah, 68			; 00000044H
  000ab	0f 8b 5b 01 00
	00		 jnp	 $LN8@Search
  000b1	f3 0f 10 46 5c	 movss	 xmm0, DWORD PTR [esi+92]
  000b6	0f 2e c1	 ucomiss xmm0, xmm1
  000b9	9f		 lahf
  000ba	f6 c4 44	 test	 ah, 68			; 00000044H
  000bd	0f 8b 49 01 00
	00		 jnp	 $LN8@Search
  000c3	f3 0f 10 46 60	 movss	 xmm0, DWORD PTR [esi+96]
  000c8	0f 2e c1	 ucomiss xmm0, xmm1
  000cb	9f		 lahf
  000cc	f6 c4 44	 test	 ah, 68			; 00000044H
  000cf	0f 8b 37 01 00
	00		 jnp	 $LN8@Search

; 543  : 	{
; 544  : 		vTarget = m_vTarget;

  000d5	f3 0f 7e 46 58	 movq	 xmm0, QWORD PTR [esi+88]
  000da	8b 46 60	 mov	 eax, DWORD PTR [esi+96]
$LN68@Search:
; File C:\IAGOS\server\v18\Source\Source\_Common\Obj.h

; 215  : 	D3DXVECTOR3		GetPos()	{ return m_vPos; }

  000dd	66 0f d6 45 ec	 movq	 QWORD PTR _vTarget$[ebp], xmm0
  000e2	f3 0f 7e 87 60
	01 00 00	 movq	 xmm0, QWORD PTR [edi+352]
; File C:\IAGOS\server\v18\Source\Source\DX_SDK\d3dx9math.inl

; 383  :     return D3DXVECTOR3(x - v.x, y - v.y, z - v.z);

  000ea	f3 0f 10 4d ec	 movss	 xmm1, DWORD PTR _vTarget$[ebp]
  000ef	f3 0f 10 55 f0	 movss	 xmm2, DWORD PTR _vTarget$[ebp+4]
; File C:\IAGOS\server\v18\Source\Source\_Common\Obj.h

; 215  : 	D3DXVECTOR3		GetPos()	{ return m_vPos; }

  000f4	66 0f d6 45 e0	 movq	 QWORD PTR $T1[ebp], xmm0
; File C:\IAGOS\server\v18\Source\Source\DX_SDK\d3dx9math.inl

; 383  :     return D3DXVECTOR3(x - v.x, y - v.y, z - v.z);

  000f9	f3 0f 5c 55 e4	 subss	 xmm2, DWORD PTR $T1[ebp+4]
  000fe	f3 0f 5c 4d e0	 subss	 xmm1, DWORD PTR $T1[ebp]
; File C:\IAGOS\server\v18\Source\Source\_Common\Obj.h

; 215  : 	D3DXVECTOR3		GetPos()	{ return m_vPos; }

  00103	89 45 f4	 mov	 DWORD PTR _vTarget$[ebp+8], eax
  00106	8b 87 68 01 00
	00		 mov	 eax, DWORD PTR [edi+360]
; File C:\IAGOS\server\v18\Source\Source\DX_SDK\d3dx9math.inl

; 383  :     return D3DXVECTOR3(x - v.x, y - v.y, z - v.z);

  0010c	f3 0f 10 45 f4	 movss	 xmm0, DWORD PTR _vTarget$[ebp+8]
; File C:\IAGOS\server\v18\Source\Source\_Common\Obj.h

; 215  : 	D3DXVECTOR3		GetPos()	{ return m_vPos; }

  00111	89 45 e8	 mov	 DWORD PTR $T1[ebp+8], eax
; File C:\IAGOS\server\v18\Source\Source\DX_SDK\d3dx9math.inl

; 383  :     return D3DXVECTOR3(x - v.x, y - v.y, z - v.z);

  00114	f3 0f 5c 45 e8	 subss	 xmm0, DWORD PTR $T1[ebp+8]

; 302  :     z = fz;

  00119	f3 0f 59 d2	 mulss	 xmm2, xmm2

; 1698 :     return pV->x * pV->x + pV->y * pV->y + pV->z * pV->z;

  0011d	f3 0f 59 c9	 mulss	 xmm1, xmm1
  00121	f3 0f 59 c0	 mulss	 xmm0, xmm0
  00125	f3 0f 58 d1	 addss	 xmm2, xmm1
; File C:\IAGOS\server\v18\Source\Source\_AIInterface\AIMonster2.cpp

; 555  : 	if( fDistSq < fRadiusSq * 4.0f )			// 근거리면.

  00129	f3 0f 10 4d f8	 movss	 xmm1, DWORD PTR _fRadiusSq$1$[ebp]
; File C:\IAGOS\server\v18\Source\Source\DX_SDK\d3dx9math.inl

; 1698 :     return pV->x * pV->x + pV->y * pV->y + pV->z * pV->z;

  0012e	f3 0f 58 d0	 addss	 xmm2, xmm0
; File C:\IAGOS\server\v18\Source\Source\_AIInterface\AIMonster2.cpp

; 553  : 	m_fAttackRange = fRadius;					// 얼마나 근접해야하는가? 디폴트로 반지름 길이.

  00132	f3 0f 10 45 fc	 movss	 xmm0, DWORD PTR _fRadius$[ebp]
  00137	f3 0f 11 46 68	 movss	 DWORD PTR [esi+104], xmm0

; 555  : 	if( fDistSq < fRadiusSq * 4.0f )			// 근거리면.

  0013c	0f 28 c1	 movaps	 xmm0, xmm1
  0013f	f3 0f 59 05 00
	00 00 00	 mulss	 xmm0, DWORD PTR __real@40800000
  00147	0f 2f c2	 comiss	 xmm0, xmm2
  0014a	76 69		 jbe	 SHORT $LN10@Search
; File C:\IAGOS\server\v18\Source\Source\_Common\xUtil.h

; 16   : 	g_next = g_next * 1103515245 + 12345;// + nRandomSeed[ i++ ];

  0014c	69 3d 00 00 00
	00 6d 4e c6 41	 imul	 edi, DWORD PTR ?g_next@@3KA, 1103515245 ; g_next

; 22   : 	return  xRand() % num;

  00156	b8 1f 85 eb 51	 mov	 eax, 1374389535		; 51eb851fH

; 16   : 	g_next = g_next * 1103515245 + 12345;// + nRandomSeed[ i++ ];

  0015b	81 c7 39 30 00
	00		 add	 edi, 12345		; 00003039H

; 22   : 	return  xRand() % num;

  00161	f7 e7		 mul	 edi
  00163	8b cf		 mov	 ecx, edi

; 16   : 	g_next = g_next * 1103515245 + 12345;// + nRandomSeed[ i++ ];

  00165	89 3d 00 00 00
	00		 mov	 DWORD PTR ?g_next@@3KA, edi ; g_next

; 22   : 	return  xRand() % num;

  0016b	c1 ea 05	 shr	 edx, 5
  0016e	6b c2 64	 imul	 eax, edx, 100
  00171	2b c8		 sub	 ecx, eax
; File C:\IAGOS\server\v18\Source\Source\_AIInterface\AIMonster2.cpp

; 559  : 		if( dwNum < 85 )

  00173	83 f9 55	 cmp	 ecx, 85			; 00000055H
  00176	73 2b		 jae	 SHORT $LN12@Search
; File C:\IAGOS\server\v18\Source\Source\_Common\xUtil.h

; 16   : 	g_next = g_next * 1103515245 + 12345;// + nRandomSeed[ i++ ];

  00178	69 c7 6d 4e c6
	41		 imul	 eax, edi, 1103515245
  0017e	5f		 pop	 edi
  0017f	05 39 30 00 00	 add	 eax, 12345		; 00003039H
  00184	a3 00 00 00 00	 mov	 DWORD PTR ?g_next@@3KA, eax ; g_next
; File C:\IAGOS\server\v18\Source\Source\_AIInterface\AIMonster2.cpp

; 566  : 			m_fAttackRange = 5.0f;				// 딱붙어서 밟아야 한다.	??

  00189	f7 d0		 not	 eax
  0018b	83 e0 01	 and	 eax, 1
  0018e	40		 inc	 eax
  0018f	89 46 64	 mov	 DWORD PTR [esi+100], eax

; 591  : 		m_fAttackRange = fRadius;		//10.0f;
; 592  : 	}
; 593  : 
; 594  : 	return TRUE;

  00192	b8 01 00 00 00	 mov	 eax, 1
  00197	c7 46 68 00 00
	a0 40		 mov	 DWORD PTR [esi+104], 1084227584 ; 40a00000H

; 595  : }

  0019e	5e		 pop	 esi
  0019f	8b e5		 mov	 esp, ebp
  001a1	5d		 pop	 ebp
  001a2	c3		 ret	 0
$LN12@Search:
  001a3	5f		 pop	 edi

; 567  : 		}
; 568  : 		else
; 569  : 		{
; 570  : 			m_nAttackType = CAT_QUAKEDOUBLE;	// 두손으로 내려치기 - 스턴

  001a4	c7 46 64 04 00
	00 00		 mov	 DWORD PTR [esi+100], 4

; 591  : 		m_fAttackRange = fRadius;		//10.0f;
; 592  : 	}
; 593  : 
; 594  : 	return TRUE;

  001ab	b8 01 00 00 00	 mov	 eax, 1

; 595  : }

  001b0	5e		 pop	 esi
  001b1	8b e5		 mov	 esp, ebp
  001b3	5d		 pop	 ebp
  001b4	c3		 ret	 0
$LN10@Search:

; 571  : 		}
; 572  : 	} 
; 573  : 	else if( fDistSq < fRadiusSq * 6.0f )		// 반지름의 x배 이하는 쏘기.

  001b5	f3 0f 59 0d 00
	00 00 00	 mulss	 xmm1, DWORD PTR __real@40c00000
  001bd	0f 2f ca	 comiss	 xmm1, xmm2
  001c0	76 52		 jbe	 SHORT $LN16@Search
; File C:\IAGOS\server\v18\Source\Source\_Common\xUtil.h

; 16   : 	g_next = g_next * 1103515245 + 12345;// + nRandomSeed[ i++ ];

  001c2	69 0d 00 00 00
	00 6d 4e c6 41	 imul	 ecx, DWORD PTR ?g_next@@3KA, 1103515245 ; g_next

; 22   : 	return  xRand() % num;

  001cc	b8 1f 85 eb 51	 mov	 eax, 1374389535		; 51eb851fH

; 16   : 	g_next = g_next * 1103515245 + 12345;// + nRandomSeed[ i++ ];

  001d1	81 c1 39 30 00
	00		 add	 ecx, 12345		; 00003039H

; 22   : 	return  xRand() % num;

  001d7	f7 e1		 mul	 ecx

; 16   : 	g_next = g_next * 1103515245 + 12345;// + nRandomSeed[ i++ ];

  001d9	89 0d 00 00 00
	00		 mov	 DWORD PTR ?g_next@@3KA, ecx ; g_next

; 22   : 	return  xRand() % num;

  001df	c1 ea 05	 shr	 edx, 5
  001e2	6b c2 64	 imul	 eax, edx, 100
  001e5	2b c8		 sub	 ecx, eax
; File C:\IAGOS\server\v18\Source\Source\_AIInterface\AIMonster2.cpp

; 577  : 		if( dwNum < 60 )

  001e7	83 f9 3c	 cmp	 ecx, 60			; 0000003cH
  001ea	73 19		 jae	 SHORT $LN18@Search

; 578  : 		{						
; 579  : 			m_nAttackType = CAT_QUAKE_ONE;		// 하늘에서 돌 떨어뜨리기

  001ec	5f		 pop	 edi
  001ed	c7 46 64 03 00
	00 00		 mov	 DWORD PTR [esi+100], 3

; 591  : 		m_fAttackRange = fRadius;		//10.0f;
; 592  : 	}
; 593  : 
; 594  : 	return TRUE;

  001f4	b8 01 00 00 00	 mov	 eax, 1
  001f9	c7 46 68 00 00
	70 41		 mov	 DWORD PTR [esi+104], 1097859072 ; 41700000H

; 595  : }

  00200	5e		 pop	 esi
  00201	8b e5		 mov	 esp, ebp
  00203	5d		 pop	 ebp
  00204	c3		 ret	 0
$LN18@Search:

; 580  : 			m_fAttackRange = 15.0f;				// xx미터 까지 접근하자.  ??
; 581  : 		}
; 582  : 		else
; 583  : 		{
; 584  : 			m_idTarget = NULL_ID;

  00205	c7 46 54 ff ff
	ff ff		 mov	 DWORD PTR [esi+84], -1
$LN8@Search:
  0020c	5f		 pop	 edi

; 595  : }

  0020d	33 c0		 xor	 eax, eax
  0020f	5e		 pop	 esi
  00210	8b e5		 mov	 esp, ebp
  00212	5d		 pop	 ebp
  00213	c3		 ret	 0
$LN16@Search:
  00214	5f		 pop	 edi

; 585  : 			return FALSE;						
; 586  : 		}
; 587  : 	} 
; 588  : 	else
; 589  : 	{
; 590  : 		m_nAttackType = CAT_NORMAL;		// 앞발로 밟기.

  00215	c7 46 64 01 00
	00 00		 mov	 DWORD PTR [esi+100], 1

; 591  : 		m_fAttackRange = fRadius;		//10.0f;
; 592  : 	}
; 593  : 
; 594  : 	return TRUE;

  0021c	b8 01 00 00 00	 mov	 eax, 1

; 595  : }

  00221	5e		 pop	 esi
  00222	8b e5		 mov	 esp, ebp
  00224	5d		 pop	 ebp
  00225	c3		 ret	 0
?Search@CAIMonster2@@AAEHXZ ENDP			; CAIMonster2::Search
_TEXT	ENDS
; Function compile flags: /Ogtp
; File C:\IAGOS\server\v18\Source\Source\_AIInterface\AIMonster2.cpp
; File C:\IAGOS\server\v18\Source\Source\_Common\Project.h
; File C:\IAGOS\server\v18\Source\Source\_AIInterface\AIMonster2.cpp
; File C:\IAGOS\server\v18\Source\Source\_Common\Mover.h
; File C:\IAGOS\server\v18\Source\Source\_Common\Project.h
; File C:\IAGOS\server\v18\Source\Source\_AIInterface\AIMonster2.cpp
; File C:\IAGOS\server\v18\Source\Source\_Common\Obj.h
; File C:\IAGOS\server\v18\Source\Source\_Common\Mover.h
; File C:\IAGOS\server\v18\Source\Source\_Common\Obj.h
; File C:\IAGOS\server\v18\Source\Source\DX_SDK\d3dx9math.inl
; File C:\IAGOS\server\v18\Source\Source\_Common\Obj.h
; File C:\IAGOS\server\v18\Source\Source\DX_SDK\d3dx9math.inl
; File C:\IAGOS\server\v18\Source\Source\_AIInterface\AIMonster2.cpp
; File C:\IAGOS\server\v18\Source\Source\_AIInterface\Action.h
; File C:\IAGOS\server\v18\Source\Source\_AIInterface\AIMonster2.cpp
; File C:\IAGOS\server\v18\Source\Source\_Common\xUtil.h
; File C:\IAGOS\server\v18\Source\Source\_AIInterface\AIMonster2.cpp
; File C:\IAGOS\server\v18\Source\Source\_Common\xUtil.h
; File C:\IAGOS\server\v18\Source\Source\_Common\Obj.h
; File C:\IAGOS\server\v18\Source\Source\_AIInterface\AIMonster2.cpp
; File C:\IAGOS\server\v18\Source\Source\_AIInterface\Action.h
; File C:\IAGOS\server\v18\Source\Source\_AIInterface\AIMonster2.cpp
; File C:\IAGOS\server\v18\Source\Source\_AIInterface\Action.h
; File C:\IAGOS\server\v18\Source\Source\_AIInterface\AIMonster2.cpp
;	COMDAT ?SelectTarget@CAIMonster2@@AAEHXZ
_TEXT	SEGMENT
$T1 = -32						; size = 12
$T2 = -20						; size = 12
_fRadius$ = -8						; size = 4
_dwNum$1$ = -8						; size = 4
_fRadiusSq$1$ = -8					; size = 4
_nAttackFirstRange$1$ = -4				; size = 4
?SelectTarget@CAIMonster2@@AAEHXZ PROC			; CAIMonster2::SelectTarget, COMDAT
; _this$ = ecx

; 409  : {

  00000	55		 push	 ebp
  00001	8b ec		 mov	 ebp, esp
  00003	83 ec 20	 sub	 esp, 32			; 00000020H
  00006	53		 push	 ebx
  00007	56		 push	 esi
  00008	8b f1		 mov	 esi, ecx
; File C:\IAGOS\server\v18\Source\Source\_Common\Project.h

; 1406 : 	VERIFY_RANGE( nIndex, 0, m_nMoverPropSize, "GetMoverProp range_error", NULL );

  0000a	8b 0d b4 01 00
	00		 mov	 ecx, DWORD PTR ?prj@@3VCProject@@A+436
; File C:\IAGOS\server\v18\Source\Source\_AIInterface\AIMonster2.cpp

; 409  : {

  00010	57		 push	 edi

; 410  : 	CMover	*pMover = GetMover();

  00011	8b 5e 30	 mov	 ebx, DWORD PTR [esi+48]
; File C:\IAGOS\server\v18\Source\Source\_Common\Mover.h

; 1020 : 	MoverProp*		GetProp() { return prj.GetMoverProp( m_dwIndex ); }	// 객체의 프로퍼티 얻기 	

  00014	8b 83 74 01 00
	00		 mov	 eax, DWORD PTR [ebx+372]
; File C:\IAGOS\server\v18\Source\Source\_Common\Project.h

; 1406 : 	VERIFY_RANGE( nIndex, 0, m_nMoverPropSize, "GetMoverProp range_error", NULL );

  0001a	85 c0		 test	 eax, eax
  0001c	78 12		 js	 SHORT $LN37@SelectTarg
  0001e	3b c1		 cmp	 eax, ecx
  00020	7d 0e		 jge	 SHORT $LN37@SelectTarg

; 1407 : 	return m_pPropMover + nIndex;

  00022	69 c0 90 06 00
	00		 imul	 eax, eax, 1680
  00028	03 05 b8 01 00
	00		 add	 eax, DWORD PTR ?prj@@3VCProject@@A+440
  0002e	eb 18		 jmp	 SHORT $LN32@SelectTarg
$LN37@SelectTarg:

; 579  : 	LPCTSTR szErr = Error( _T( "%s min:%d, max:%d, index:%d" ), szMsg, nMin, nMax, nIndex ); 

  00030	50		 push	 eax
  00031	51		 push	 ecx
  00032	6a 00		 push	 0
  00034	68 00 00 00 00	 push	 OFFSET ??_C@_0BJ@GKPOBPPI@GetMoverProp?5range_error@
  00039	68 00 00 00 00	 push	 OFFSET ??_C@_0BM@HMFGHCP@?$CFs?5min?3?$CFd?0?5max?3?$CFd?0?5index?3?$CFd@
  0003e	e8 00 00 00 00	 call	 ?Error@@YAPBDPBDZZ	; Error
  00043	83 c4 14	 add	 esp, 20			; 00000014H

; 1406 : 	VERIFY_RANGE( nIndex, 0, m_nMoverPropSize, "GetMoverProp range_error", NULL );

  00046	33 c0		 xor	 eax, eax
$LN32@SelectTarg:
; File C:\IAGOS\server\v18\Source\Source\_AIInterface\AIMonster2.cpp

; 412  : 	int		nAttackFirstRange = pMover->GetProp()->m_nAttackFirstRange;

  00048	0f bf 80 86 02
	00 00		 movsx	 eax, WORD PTR [eax+646]

; 413  : 
; 414  : 	FLOAT fRadius = pMover->GetRadiusXZ();		// this의 반지름

  0004f	8b cb		 mov	 ecx, ebx
  00051	89 45 fc	 mov	 DWORD PTR _nAttackFirstRange$1$[ebp], eax
  00054	e8 00 00 00 00	 call	 ?GetRadiusXZ@CObj@@QAEMXZ ; CObj::GetRadiusXZ

; 415  : 	FLOAT fRadiusSq = fRadius * fRadius;		// 반지름Sq버전.
; 416  : 	
; 417  : 	CMover *pLastAttacker = prj.GetMover( m_idLastAttacker );

  00059	ff 76 50	 push	 DWORD PTR [esi+80]
  0005c	d9 5d f8	 fstp	 DWORD PTR _fRadius$[ebp]
  0005f	f3 0f 10 45 f8	 movss	 xmm0, DWORD PTR _fRadius$[ebp]
  00064	b9 00 00 00 00	 mov	 ecx, OFFSET ?prj@@3VCProject@@A ; prj
  00069	f3 0f 59 c0	 mulss	 xmm0, xmm0
  0006d	f3 0f 11 45 f8	 movss	 DWORD PTR _fRadiusSq$1$[ebp], xmm0
  00072	e8 00 00 00 00	 call	 ?GetMover@CProject@@QAEPAVCMover@@K@Z ; CProject::GetMover
  00077	8b f8		 mov	 edi, eax
; File C:\IAGOS\server\v18\Source\Source\_Common\Obj.h

; 327  : 	return pObj && ( pObj->IsDelete() == FALSE ); 

  00079	85 ff		 test	 edi, edi
  0007b	0f 84 90 00 00
	00		 je	 $LN2@SelectTarg

; 180  : 	BOOL			IsDelete()	{ return (m_dwFlags & OBJ_FLAG_DELETE);  }

  00081	f6 47 04 01	 test	 BYTE PTR [edi+4], 1

; 327  : 	return pObj && ( pObj->IsDelete() == FALSE ); 

  00085	75 18		 jne	 SHORT $LN3@SelectTarg
; File C:\IAGOS\server\v18\Source\Source\_Common\Mover.h

; 1250 : 	BOOL			IsDie() { return m_pActMover->IsDie() || m_nHitPoint == 0; }

  00087	8b 8f 38 02 00
	00		 mov	 ecx, DWORD PTR [edi+568]
  0008d	f7 41 04 00 00
	00 08		 test	 DWORD PTR [ecx+4], 134217728 ; 08000000H
  00094	75 79		 jne	 SHORT $LN87@SelectTarg
  00096	83 bf f8 05 00
	00 00		 cmp	 DWORD PTR [edi+1528], 0
  0009d	74 70		 je	 SHORT $LN87@SelectTarg
$LN3@SelectTarg:
; File C:\IAGOS\server\v18\Source\Source\_Common\Obj.h

; 215  : 	D3DXVECTOR3		GetPos()	{ return m_vPos; }

  0009f	f3 0f 7e 83 60
	01 00 00	 movq	 xmm0, QWORD PTR [ebx+352]
  000a7	8b 83 68 01 00
	00		 mov	 eax, DWORD PTR [ebx+360]
  000ad	66 0f d6 45 e0	 movq	 QWORD PTR $T1[ebp], xmm0
  000b2	f3 0f 7e 87 60
	01 00 00	 movq	 xmm0, QWORD PTR [edi+352]
  000ba	66 0f d6 45 ec	 movq	 QWORD PTR $T2[ebp], xmm0
; File C:\IAGOS\server\v18\Source\Source\DX_SDK\d3dx9math.inl

; 383  :     return D3DXVECTOR3(x - v.x, y - v.y, z - v.z);

  000bf	f3 0f 10 4d ec	 movss	 xmm1, DWORD PTR $T2[ebp]
  000c4	f3 0f 10 55 f0	 movss	 xmm2, DWORD PTR $T2[ebp+4]
  000c9	f3 0f 5c 55 e4	 subss	 xmm2, DWORD PTR $T1[ebp+4]
  000ce	f3 0f 5c 4d e0	 subss	 xmm1, DWORD PTR $T1[ebp]
; File C:\IAGOS\server\v18\Source\Source\_Common\Obj.h

; 215  : 	D3DXVECTOR3		GetPos()	{ return m_vPos; }

  000d3	89 45 e8	 mov	 DWORD PTR $T1[ebp+8], eax
  000d6	8b 87 68 01 00
	00		 mov	 eax, DWORD PTR [edi+360]
  000dc	89 45 f4	 mov	 DWORD PTR $T2[ebp+8], eax
; File C:\IAGOS\server\v18\Source\Source\DX_SDK\d3dx9math.inl

; 383  :     return D3DXVECTOR3(x - v.x, y - v.y, z - v.z);

  000df	f3 0f 10 45 f4	 movss	 xmm0, DWORD PTR $T2[ebp+8]
  000e4	f3 0f 5c 45 e8	 subss	 xmm0, DWORD PTR $T1[ebp+8]

; 302  :     z = fz;

  000e9	f3 0f 59 d2	 mulss	 xmm2, xmm2

; 1698 :     return pV->x * pV->x + pV->y * pV->y + pV->z * pV->z;

  000ed	f3 0f 59 c9	 mulss	 xmm1, xmm1
  000f1	f3 0f 59 c0	 mulss	 xmm0, xmm0
  000f5	f3 0f 58 d1	 addss	 xmm2, xmm1
  000f9	f3 0f 58 d0	 addss	 xmm2, xmm0
; File C:\IAGOS\server\v18\Source\Source\_AIInterface\AIMonster2.cpp

; 432  : 		if( fDistSq >= fRadiusSq * 10.0f )				// 라스트어태커가 내 반지름의 10배이상 떨어져있으면

  000fd	f3 0f 10 45 f8	 movss	 xmm0, DWORD PTR _fRadiusSq$1$[ebp]
  00102	f3 0f 59 05 00
	00 00 00	 mulss	 xmm0, DWORD PTR __real@41200000
  0010a	0f 2f d0	 comiss	 xmm2, xmm0
  0010d	72 09		 jb	 SHORT $LN5@SelectTarg
$LN87@SelectTarg:

; 433  : 		{
; 434  : 			// 타겟 포기
; 435  : 			m_idLastAttacker = NULL_ID;
; 436  : 			pLastAttacker = NULL;
; 437  : 		}
; 438  : 	}
; 439  : 
; 440  : 	m_idTarget = NULL_ID;

  0010f	33 ff		 xor	 edi, edi
$LN2@SelectTarg:
  00111	c7 46 50 ff ff
	ff ff		 mov	 DWORD PTR [esi+80], -1
$LN5@SelectTarg:

; 441  : 	m_vTarget.x = m_vTarget.y = m_vTarget.z = 0;	// 일단 이건 안쓰는걸로 하자.
; 442  : 
; 443  : 	if( m_idLastAttacker == NULL_ID )		// 아직 날 때린쉐리가 없다.

  00118	83 7e 50 ff	 cmp	 DWORD PTR [esi+80], -1
  0011c	c7 46 54 ff ff
	ff ff		 mov	 DWORD PTR [esi+84], -1
  00123	c7 46 60 00 00
	00 00		 mov	 DWORD PTR [esi+96], 0
  0012a	c7 46 5c 00 00
	00 00		 mov	 DWORD PTR [esi+92], 0
  00131	c7 46 58 00 00
	00 00		 mov	 DWORD PTR [esi+88], 0
  00138	75 3e		 jne	 SHORT $LN6@SelectTarg

; 444  : 	{
; 445  : 		CMover* pTarget = NULL;
; 446  : 		pTarget = ScanTarget( pMover, nAttackFirstRange, JOB_ALL );		

  0013a	6a 00		 push	 0
  0013c	6a 00		 push	 0
  0013e	6a 00		 push	 0
  00140	6a 28		 push	 40			; 00000028H
  00142	ff 75 fc	 push	 DWORD PTR _nAttackFirstRange$1$[ebp]
  00145	8b ce		 mov	 ecx, esi
  00147	53		 push	 ebx
  00148	e8 00 00 00 00	 call	 ?ScanTarget@CAIInterface@@IAEPAVCMover@@PAVCObj@@HHKKH@Z ; CAIInterface::ScanTarget

; 447  : 		if( pTarget )

  0014d	85 c0		 test	 eax, eax
  0014f	74 1e		 je	 SHORT $LN8@SelectTarg
; File C:\IAGOS\server\v18\Source\Source\_AIInterface\Action.h

; 309  : 	BOOL			IsFly() { return (m_dwStateFlag & OBJSTAF_FLY) ? TRUE : FALSE; }

  00151	8b 88 38 02 00
	00		 mov	 ecx, DWORD PTR [eax+568]
  00157	8b 51 08	 mov	 edx, DWORD PTR [ecx+8]
  0015a	0f b7 8b 3e 02
	00 00		 movzx	 ecx, WORD PTR [ebx+574]
  00161	c1 ea 03	 shr	 edx, 3
; File C:\IAGOS\server\v18\Source\Source\_AIInterface\AIMonster2.cpp

; 449  : 			if( pMover->IsFlyingNPC() == pTarget->m_pActMover->IsFly() )	// 위상이 같으면 OK

  00164	33 d1		 xor	 edx, ecx
  00166	f6 c2 01	 test	 dl, 1
  00169	0f 84 9b 00 00
	00		 je	 $LN108@SelectTarg
$LN8@SelectTarg:
  0016f	5f		 pop	 edi

; 507  : }

  00170	5e		 pop	 esi
  00171	33 c0		 xor	 eax, eax
  00173	5b		 pop	 ebx
  00174	8b e5		 mov	 esp, ebp
  00176	5d		 pop	 ebp
  00177	c3		 ret	 0
$LN6@SelectTarg:
; File C:\IAGOS\server\v18\Source\Source\_Common\xUtil.h

; 16   : 	g_next = g_next * 1103515245 + 12345;// + nRandomSeed[ i++ ];

  00178	69 0d 00 00 00
	00 6d 4e c6 41	 imul	 ecx, DWORD PTR ?g_next@@3KA, 1103515245 ; g_next

; 22   : 	return  xRand() % num;

  00182	b8 1f 85 eb 51	 mov	 eax, 1374389535		; 51eb851fH

; 16   : 	g_next = g_next * 1103515245 + 12345;// + nRandomSeed[ i++ ];

  00187	81 c1 39 30 00
	00		 add	 ecx, 12345		; 00003039H

; 22   : 	return  xRand() % num;

  0018d	f7 e1		 mul	 ecx

; 16   : 	g_next = g_next * 1103515245 + 12345;// + nRandomSeed[ i++ ];

  0018f	89 0d 00 00 00
	00		 mov	 DWORD PTR ?g_next@@3KA, ecx ; g_next

; 22   : 	return  xRand() % num;

  00195	c1 ea 05	 shr	 edx, 5
  00198	6b c2 64	 imul	 eax, edx, 100
; File C:\IAGOS\server\v18\Source\Source\_AIInterface\AIMonster2.cpp

; 461  : 		DWORD dwAggroRate = 50;

  0019b	ba 32 00 00 00	 mov	 edx, 50			; 00000032H
; File C:\IAGOS\server\v18\Source\Source\_Common\xUtil.h

; 22   : 	return  xRand() % num;

  001a0	2b c8		 sub	 ecx, eax
  001a2	89 4d f8	 mov	 DWORD PTR _dwNum$1$[ebp], ecx
; File C:\IAGOS\server\v18\Source\Source\_Common\Obj.h

; 327  : 	return pObj && ( pObj->IsDelete() == FALSE ); 

  001a5	85 ff		 test	 edi, edi
  001a7	74 20		 je	 SHORT $LN13@SelectTarg

; 180  : 	BOOL			IsDelete()	{ return (m_dwFlags & OBJ_FLAG_DELETE);  }

  001a9	f6 47 04 01	 test	 BYTE PTR [edi+4], 1

; 327  : 	return pObj && ( pObj->IsDelete() == FALSE ); 

  001ad	75 1a		 jne	 SHORT $LN13@SelectTarg
; File C:\IAGOS\server\v18\Source\Source\_AIInterface\AIMonster2.cpp

; 465  : 			if( pLastAttacker->GetJob() == JOB_MERCENARY )		// 마지막으로 날때린 쉐리가 머서면 어그로 좀더 주자.

  001af	8b cf		 mov	 ecx, edi
  001b1	e8 00 00 00 00	 call	 ?GetJob@CMover@@QAEHXZ	; CMover::GetJob
  001b6	b9 46 00 00 00	 mov	 ecx, 70			; 00000046H
  001bb	83 f8 01	 cmp	 eax, 1
  001be	ba 32 00 00 00	 mov	 edx, 50			; 00000032H
  001c3	0f 44 d1	 cmove	 edx, ecx
  001c6	8b 4d f8	 mov	 ecx, DWORD PTR _dwNum$1$[ebp]
$LN13@SelectTarg:

; 466  : 				dwAggroRate = 70;
; 467  : 		}
; 468  : 
; 469  : 		if( dwNum < dwAggroRate )		

  001c9	3b ca		 cmp	 ecx, edx
  001cb	0f 82 9c 00 00
	00		 jb	 $LN23@SelectTarg

; 470  : 		{
; 471  : 			// dwAggroRate% 확률로 마지막으로 날 때린넘 공격.
; 472  : 			m_idTarget = m_idLastAttacker;		// 날 공격한 쉐리를 타겟으로 지정하자.
; 473  : 		} 
; 474  : 		else if( dwNum < 75 )

  001d1	83 f9 4b	 cmp	 ecx, 75			; 0000004bH
  001d4	73 49		 jae	 SHORT $LN16@SelectTarg

; 475  : 		{
; 476  : 			// 50미터 반경내에서 가장 쎈넘을 잡자.
; 477  : 			CMover *pTarget = ScanTargetStrong( pMover, (float)( nAttackFirstRange ) );

  001d6	66 0f 6e 45 fc	 movd	 xmm0, DWORD PTR _nAttackFirstRange$1$[ebp]
  001db	0f 5b c0	 cvtdq2ps xmm0, xmm0
  001de	51		 push	 ecx
  001df	8b ce		 mov	 ecx, esi
  001e1	f3 0f 11 04 24	 movss	 DWORD PTR [esp], xmm0
  001e6	53		 push	 ebx
  001e7	e8 00 00 00 00	 call	 ?ScanTargetStrong@CAIInterface@@IAEPAVCMover@@PAVCObj@@M@Z ; CAIInterface::ScanTargetStrong

; 478  : 			if( pTarget )

  001ec	85 c0		 test	 eax, eax
  001ee	74 7d		 je	 SHORT $LN23@SelectTarg
; File C:\IAGOS\server\v18\Source\Source\_AIInterface\Action.h

; 309  : 	BOOL			IsFly() { return (m_dwStateFlag & OBJSTAF_FLY) ? TRUE : FALSE; }

  001f0	8b 88 38 02 00
	00		 mov	 ecx, DWORD PTR [eax+568]
  001f6	8b 51 08	 mov	 edx, DWORD PTR [ecx+8]
  001f9	0f b7 8b 3e 02
	00 00		 movzx	 ecx, WORD PTR [ebx+574]
  00200	c1 ea 03	 shr	 edx, 3
; File C:\IAGOS\server\v18\Source\Source\_AIInterface\AIMonster2.cpp

; 481  : 				if( pMover->IsFlyingNPC() == pTarget->m_pActMover->IsFly() )	

  00203	33 d1		 xor	 edx, ecx
  00205	f6 c2 01	 test	 dl, 1
  00208	75 63		 jne	 SHORT $LN23@SelectTarg
$LN108@SelectTarg:

; 498  : 				else
; 499  : 					m_idTarget = m_idLastAttacker;		// 타겟이 공격하기가 여의치 않으면 마지막으로 때린쉐리 공격하자.
; 500  : 			} 
; 501  : 			else
; 502  : 				m_idTarget = m_idLastAttacker;		// 타겟이 공격하기가 여의치 않으면 마지막으로 때린쉐리 공격하자.
; 503  : 		}
; 504  : 	}
; 505  : 
; 506  : 	return TRUE;

  0020a	8b 80 bc 01 00
	00		 mov	 eax, DWORD PTR [eax+444]
  00210	5f		 pop	 edi
  00211	89 46 54	 mov	 DWORD PTR [esi+84], eax
  00214	b8 01 00 00 00	 mov	 eax, 1

; 507  : }

  00219	5e		 pop	 esi
  0021a	5b		 pop	 ebx
  0021b	8b e5		 mov	 esp, ebp
  0021d	5d		 pop	 ebp
  0021e	c3		 ret	 0
$LN16@SelectTarg:

; 482  : 					m_idTarget = pTarget->GetId();
; 483  : 				else
; 484  : 					m_idTarget = m_idLastAttacker;		// 타겟이 공격하기가 여의치 않으면 마지막으로 때린쉐리 공격하자.
; 485  : 			} 
; 486  : 			else
; 487  : 				m_idTarget = m_idLastAttacker;		// 타겟이 공격하기가 여의치 않으면 마지막으로 때린쉐리 공격하자.
; 488  : 		} 
; 489  : 		else if( dwNum < 100 )

  0021f	83 f9 64	 cmp	 ecx, 100		; 00000064H
  00222	73 4f		 jae	 SHORT $LN24@SelectTarg

; 490  : 		{
; 491  : 			// 오버힐하는 어시를 죽이자.
; 492  : 			CMover *pTarget = ScanTargetOverHealer( pMover, (float)( nAttackFirstRange ) );

  00224	66 0f 6e 45 fc	 movd	 xmm0, DWORD PTR _nAttackFirstRange$1$[ebp]
  00229	0f 5b c0	 cvtdq2ps xmm0, xmm0
  0022c	51		 push	 ecx
  0022d	8b ce		 mov	 ecx, esi
  0022f	f3 0f 11 04 24	 movss	 DWORD PTR [esp], xmm0
  00234	53		 push	 ebx
  00235	e8 00 00 00 00	 call	 ?ScanTargetOverHealer@CAIInterface@@IAEPAVCMover@@PAVCObj@@M@Z ; CAIInterface::ScanTargetOverHealer

; 493  : 			if( pTarget )

  0023a	85 c0		 test	 eax, eax
  0023c	74 2f		 je	 SHORT $LN23@SelectTarg
; File C:\IAGOS\server\v18\Source\Source\_AIInterface\Action.h

; 309  : 	BOOL			IsFly() { return (m_dwStateFlag & OBJSTAF_FLY) ? TRUE : FALSE; }

  0023e	8b 88 38 02 00
	00		 mov	 ecx, DWORD PTR [eax+568]
  00244	8b 51 08	 mov	 edx, DWORD PTR [ecx+8]
  00247	0f b7 8b 3e 02
	00 00		 movzx	 ecx, WORD PTR [ebx+574]
  0024e	c1 ea 03	 shr	 edx, 3
; File C:\IAGOS\server\v18\Source\Source\_AIInterface\AIMonster2.cpp

; 496  : 				if( pMover->IsFlyingNPC() == pTarget->m_pActMover->IsFly() )	

  00251	33 d1		 xor	 edx, ecx
  00253	f6 c2 01	 test	 dl, 1
  00256	75 15		 jne	 SHORT $LN23@SelectTarg

; 497  : 					m_idTarget = pTarget->GetId();

  00258	8b 80 bc 01 00
	00		 mov	 eax, DWORD PTR [eax+444]
  0025e	5f		 pop	 edi

; 498  : 				else
; 499  : 					m_idTarget = m_idLastAttacker;		// 타겟이 공격하기가 여의치 않으면 마지막으로 때린쉐리 공격하자.
; 500  : 			} 
; 501  : 			else
; 502  : 				m_idTarget = m_idLastAttacker;		// 타겟이 공격하기가 여의치 않으면 마지막으로 때린쉐리 공격하자.
; 503  : 		}
; 504  : 	}
; 505  : 
; 506  : 	return TRUE;

  0025f	89 46 54	 mov	 DWORD PTR [esi+84], eax
  00262	b8 01 00 00 00	 mov	 eax, 1

; 507  : }

  00267	5e		 pop	 esi
  00268	5b		 pop	 ebx
  00269	8b e5		 mov	 esp, ebp
  0026b	5d		 pop	 ebp
  0026c	c3		 ret	 0
$LN23@SelectTarg:

; 498  : 				else
; 499  : 					m_idTarget = m_idLastAttacker;		// 타겟이 공격하기가 여의치 않으면 마지막으로 때린쉐리 공격하자.
; 500  : 			} 
; 501  : 			else
; 502  : 				m_idTarget = m_idLastAttacker;		// 타겟이 공격하기가 여의치 않으면 마지막으로 때린쉐리 공격하자.
; 503  : 		}
; 504  : 	}
; 505  : 
; 506  : 	return TRUE;

  0026d	8b 46 50	 mov	 eax, DWORD PTR [esi+80]
  00270	89 46 54	 mov	 DWORD PTR [esi+84], eax
$LN24@SelectTarg:

; 507  : }

  00273	5f		 pop	 edi
  00274	5e		 pop	 esi
  00275	b8 01 00 00 00	 mov	 eax, 1
  0027a	5b		 pop	 ebx
  0027b	8b e5		 mov	 esp, ebp
  0027d	5d		 pop	 ebp
  0027e	c3		 ret	 0
?SelectTarget@CAIMonster2@@AAEHXZ ENDP			; CAIMonster2::SelectTarget
_TEXT	ENDS
; Function compile flags: /Ogtp
; File C:\IAGOS\server\v18\Source\Source\_AIInterface\AIMonster2.cpp
; File C:\IAGOS\server\v18\Source\Source\DX_SDK\d3dx9math.inl
; File C:\IAGOS\server\v18\Source\Source\_AIInterface\AIMonster2.cpp
; File C:\IAGOS\server\v18\Source\Source\_Common\Mover.h
; File C:\IAGOS\server\v18\Source\Source\DX_SDK\d3dx9math.inl
; File C:\IAGOS\server\v18\Source\Source\_Common\Mover.h
; File C:\IAGOS\server\v18\Source\Source\DX_SDK\d3dx9math.inl
; File C:\IAGOS\server\v18\Source\Source\_AIInterface\AIMonster2.cpp
;	COMDAT ?MoveToDst@CAIMonster2@@AAEXABUD3DXVECTOR3@@@Z
_TEXT	SEGMENT
$T1 = -12						; size = 12
_vDst$ = 8						; size = 4
?MoveToDst@CAIMonster2@@AAEXABUD3DXVECTOR3@@@Z PROC	; CAIMonster2::MoveToDst, COMDAT
; _this$ = ecx

; 398  : {

  00000	55		 push	 ebp
  00001	8b ec		 mov	 ebp, esp
  00003	83 ec 0c	 sub	 esp, 12			; 0000000cH
  00006	56		 push	 esi
; File C:\IAGOS\server\v18\Source\Source\DX_SDK\d3dx9math.inl

; 410  :     return x == v.x && y == v.y && z == v.z;

  00007	8b 75 08	 mov	 esi, DWORD PTR _vDst$[ebp]
; File C:\IAGOS\server\v18\Source\Source\_AIInterface\AIMonster2.cpp

; 398  : {

  0000a	57		 push	 edi

; 399  : 	CMover* pMover = GetMover();

  0000b	8b 79 30	 mov	 edi, DWORD PTR [ecx+48]
; File C:\IAGOS\server\v18\Source\Source\_Common\Mover.h

; 1026 : 	D3DXVECTOR3		GetDestPos()		{ return m_vDestPos; }

  0000e	f3 0f 7e 87 5c
	02 00 00	 movq	 xmm0, QWORD PTR [edi+604]
  00016	8b 87 64 02 00
	00		 mov	 eax, DWORD PTR [edi+612]
  0001c	66 0f d6 45 f4	 movq	 QWORD PTR $T1[ebp], xmm0
; File C:\IAGOS\server\v18\Source\Source\DX_SDK\d3dx9math.inl

; 410  :     return x == v.x && y == v.y && z == v.z;

  00021	f3 0f 10 45 f4	 movss	 xmm0, DWORD PTR $T1[ebp]
  00026	0f 2e 06	 ucomiss xmm0, DWORD PTR [esi]
; File C:\IAGOS\server\v18\Source\Source\_Common\Mover.h

; 1026 : 	D3DXVECTOR3		GetDestPos()		{ return m_vDestPos; }

  00029	89 45 fc	 mov	 DWORD PTR $T1[ebp+8], eax
; File C:\IAGOS\server\v18\Source\Source\DX_SDK\d3dx9math.inl

; 410  :     return x == v.x && y == v.y && z == v.z;

  0002c	9f		 lahf
  0002d	f6 c4 44	 test	 ah, 68			; 00000044H
  00030	7a 1e		 jp	 SHORT $LN10@MoveToDst
  00032	f3 0f 10 45 f8	 movss	 xmm0, DWORD PTR $T1[ebp+4]
  00037	0f 2e 46 04	 ucomiss xmm0, DWORD PTR [esi+4]
  0003b	9f		 lahf
  0003c	f6 c4 44	 test	 ah, 68			; 00000044H
  0003f	7a 0f		 jp	 SHORT $LN10@MoveToDst
  00041	f3 0f 10 45 fc	 movss	 xmm0, DWORD PTR $T1[ebp+8]
  00046	0f 2e 46 08	 ucomiss xmm0, DWORD PTR [esi+8]
  0004a	9f		 lahf
  0004b	f6 c4 44	 test	 ah, 68			; 00000044H
  0004e	7b 24		 jnp	 SHORT $LN1@MoveToDst
$LN10@MoveToDst:
; File C:\IAGOS\server\v18\Source\Source\_AIInterface\AIMonster2.cpp

; 403  : 	pMover->SetDestPos( vDst );

  00050	6a 01		 push	 1
  00052	6a 01		 push	 1
  00054	56		 push	 esi
  00055	8b cf		 mov	 ecx, edi
  00057	e8 00 00 00 00	 call	 ?SetDestPos@CMover@@QAEXABUD3DXVECTOR3@@_NH@Z ; CMover::SetDestPos

; 404  : 	pMover->m_nCorr	= -1;
; 405  : 	g_UserMng.AddSetDestPos( pMover, vDst, 1 );

  0005c	6a 01		 push	 1
  0005e	56		 push	 esi
  0005f	57		 push	 edi
  00060	b9 00 00 00 00	 mov	 ecx, OFFSET ?g_UserMng@@3VCUserMng@@A ; g_UserMng
  00065	c7 87 74 02 00
	00 ff ff ff ff	 mov	 DWORD PTR [edi+628], -1
  0006f	e8 00 00 00 00	 call	 ?AddSetDestPos@CUserMng@@QAEXPAVCMover@@ABUD3DXVECTOR3@@E@Z ; CUserMng::AddSetDestPos
$LN1@MoveToDst:

; 406  : }

  00074	5f		 pop	 edi
  00075	5e		 pop	 esi
  00076	8b e5		 mov	 esp, ebp
  00078	5d		 pop	 ebp
  00079	c2 04 00	 ret	 4
?MoveToDst@CAIMonster2@@AAEXABUD3DXVECTOR3@@@Z ENDP	; CAIMonster2::MoveToDst
_TEXT	ENDS
; Function compile flags: /Ogtp
; File C:\IAGOS\server\v18\Source\Source\_AIInterface\AIMonster2.cpp
; File C:\IAGOS\server\v18\Source\Source\_Common\Project.h
; File C:\IAGOS\server\v18\Source\Source\_AIInterface\AIMonster2.cpp
; File C:\IAGOS\server\v18\Source\Source\_Common\Mover.h
; File C:\IAGOS\server\v18\Source\Source\_Common\Project.h
; File C:\IAGOS\server\v18\Source\Source\_AIInterface\AIMonster2.cpp
; File C:\IAGOS\server\v18\Source\Source\_Common\Mover.h
; File C:\IAGOS\server\v18\Source\Source\_Common\Obj.h
; File C:\IAGOS\server\v18\Source\Source\_Common\Mover.h
; File C:\IAGOS\server\v18\Source\Source\_AIInterface\AIMonster2.cpp
; File C:\IAGOS\server\v18\Source\Source\_Common\Obj.h
; File C:\IAGOS\server\v18\Source\Source\_AIInterface\AIMonster2.cpp
; File C:\IAGOS\server\v18\Source\Source\_Common\Obj.h
; File C:\IAGOS\server\v18\Source\Source\_AIInterface\AIMonster2.cpp
; File C:\IAGOS\server\v18\Source\Source\_Common\Obj.h
; File C:\IAGOS\server\v18\Source\Source\_AIInterface\AIMonster2.cpp
; File C:\IAGOS\server\v18\Source\Source\_Common\Obj.h
; File C:\IAGOS\server\v18\Source\Source\_AIInterface\AIMonster2.cpp
;	COMDAT ?BeginAttack@CAIMonster2@@AAEHXZ
_TEXT	SEGMENT
_szChar$1 = -132					; size = 128
__$ArrayPad$ = -4					; size = 4
?BeginAttack@CAIMonster2@@AAEHXZ PROC			; CAIMonster2::BeginAttack, COMDAT
; _this$ = ecx

; 599  : {

  00000	55		 push	 ebp
  00001	8b ec		 mov	 ebp, esp
  00003	81 ec 84 00 00
	00		 sub	 esp, 132		; 00000084H
  00009	a1 00 00 00 00	 mov	 eax, DWORD PTR ___security_cookie
  0000e	33 c5		 xor	 eax, ebp
  00010	89 45 fc	 mov	 DWORD PTR __$ArrayPad$[ebp], eax
  00013	53		 push	 ebx
  00014	56		 push	 esi
  00015	8b f1		 mov	 esi, ecx
; File C:\IAGOS\server\v18\Source\Source\_Common\Project.h

; 1406 : 	VERIFY_RANGE( nIndex, 0, m_nMoverPropSize, "GetMoverProp range_error", NULL );

  00017	8b 0d b4 01 00
	00		 mov	 ecx, DWORD PTR ?prj@@3VCProject@@A+436
; File C:\IAGOS\server\v18\Source\Source\_AIInterface\AIMonster2.cpp

; 599  : {

  0001d	57		 push	 edi

; 600  : 	CMover	*pMover = GetMover();

  0001e	8b 5e 30	 mov	 ebx, DWORD PTR [esi+48]
; File C:\IAGOS\server\v18\Source\Source\_Common\Mover.h

; 1020 : 	MoverProp*		GetProp() { return prj.GetMoverProp( m_dwIndex ); }	// 객체의 프로퍼티 얻기 	

  00021	8b 83 74 01 00
	00		 mov	 eax, DWORD PTR [ebx+372]
; File C:\IAGOS\server\v18\Source\Source\_Common\Project.h

; 1406 : 	VERIFY_RANGE( nIndex, 0, m_nMoverPropSize, "GetMoverProp range_error", NULL );

  00027	85 c0		 test	 eax, eax
  00029	78 12		 js	 SHORT $LN26@BeginAttac
  0002b	3b c1		 cmp	 eax, ecx
  0002d	7d 0e		 jge	 SHORT $LN26@BeginAttac

; 1407 : 	return m_pPropMover + nIndex;

  0002f	69 c8 90 06 00
	00		 imul	 ecx, eax, 1680
  00035	03 0d b8 01 00
	00		 add	 ecx, DWORD PTR ?prj@@3VCProject@@A+440
  0003b	eb 18		 jmp	 SHORT $LN21@BeginAttac
$LN26@BeginAttac:

; 579  : 	LPCTSTR szErr = Error( _T( "%s min:%d, max:%d, index:%d" ), szMsg, nMin, nMax, nIndex ); 

  0003d	50		 push	 eax
  0003e	51		 push	 ecx
  0003f	6a 00		 push	 0
  00041	68 00 00 00 00	 push	 OFFSET ??_C@_0BJ@GKPOBPPI@GetMoverProp?5range_error@
  00046	68 00 00 00 00	 push	 OFFSET ??_C@_0BM@HMFGHCP@?$CFs?5min?3?$CFd?0?5max?3?$CFd?0?5index?3?$CFd@
  0004b	e8 00 00 00 00	 call	 ?Error@@YAPBDPBDZZ	; Error
  00050	83 c4 14	 add	 esp, 20			; 00000014H

; 1406 : 	VERIFY_RANGE( nIndex, 0, m_nMoverPropSize, "GetMoverProp range_error", NULL );

  00053	33 c9		 xor	 ecx, ecx
$LN21@BeginAttac:
; File C:\IAGOS\server\v18\Source\Source\_AIInterface\AIMonster2.cpp

; 607  : 	switch( m_nAttackType )

  00055	8b 46 64	 mov	 eax, DWORD PTR [esi+100]
  00058	48		 dec	 eax
  00059	83 f8 03	 cmp	 eax, 3
  0005c	0f 87 46 01 00
	00		 ja	 $LN13@BeginAttac
  00062	ff 24 85 00 00
	00 00		 jmp	 DWORD PTR $LN48@BeginAttac[eax*4]
$LN6@BeginAttac:

; 613  : 	default:
; 614  : 		ASSERT(0);
; 615  : 	}
; 616  : 
; 617  : 	if( dwMsg == OBJMSG_NONE )
; 618  : 		return FALSE;
; 619  : 
; 620  : 	if( m_idTarget == NULL_ID )

  00069	8b b9 b0 00 00
	00		 mov	 edi, DWORD PTR [ecx+176]
  0006f	eb 0e		 jmp	 SHORT $LN11@BeginAttac
$LN8@BeginAttac:

; 608  : 	{
; 609  : 	case CAT_NORMAL:		dwMsg = OBJMSG_ATK1;	dwItemID = pProp->dwAtk1;	break;
; 610  : 	case CAT_NORMAL2:		dwMsg = OBJMSG_ATK2;	dwItemID = pProp->dwAtk1;	break;
; 611  : 	case CAT_QUAKEDOUBLE:	dwMsg = OBJMSG_ATK3;	dwItemID = pProp->dwAtk3;	break;

  00071	8b b9 b8 00 00
	00		 mov	 edi, DWORD PTR [ecx+184]
  00077	eb 06		 jmp	 SHORT $LN11@BeginAttac
$LN9@BeginAttac:

; 612  : 	case CAT_QUAKE_ONE:		dwMsg = OBJMSG_ATK4;	dwItemID = pProp->dwAtk2;	break;

  00079	8b b9 b4 00 00
	00		 mov	 edi, DWORD PTR [ecx+180]
$LN11@BeginAttac:

; 613  : 	default:
; 614  : 		ASSERT(0);
; 615  : 	}
; 616  : 
; 617  : 	if( dwMsg == OBJMSG_NONE )
; 618  : 		return FALSE;
; 619  : 
; 620  : 	if( m_idTarget == NULL_ID )

  0007f	8b 46 54	 mov	 eax, DWORD PTR [esi+84]
  00082	83 f8 ff	 cmp	 eax, -1
  00085	0f 84 1d 01 00
	00		 je	 $LN13@BeginAttac
; File C:\IAGOS\server\v18\Source\Source\_Common\Mover.h

; 1764 : 	CMover *pTarget = (CMover *)prj.GetMover( idTarget );

  0008b	50		 push	 eax
  0008c	b9 00 00 00 00	 mov	 ecx, OFFSET ?prj@@3VCProject@@A ; prj
  00091	e8 00 00 00 00	 call	 ?GetMover@CProject@@QAEPAVCMover@@K@Z ; CProject::GetMover
; File C:\IAGOS\server\v18\Source\Source\_Common\Obj.h

; 327  : 	return pObj && ( pObj->IsDelete() == FALSE ); 

  00096	85 c0		 test	 eax, eax
  00098	0f 84 0a 01 00
	00		 je	 $LN13@BeginAttac

; 180  : 	BOOL			IsDelete()	{ return (m_dwFlags & OBJ_FLAG_DELETE);  }

  0009e	f6 40 04 01	 test	 BYTE PTR [eax+4], 1

; 327  : 	return pObj && ( pObj->IsDelete() == FALSE ); 

  000a2	0f 85 00 01 00
	00		 jne	 $LN13@BeginAttac
; File C:\IAGOS\server\v18\Source\Source\_Common\Mover.h

; 1768 : 	return DoAttackMelee( pTarget, dwMsg, dwItemID );

  000a8	57		 push	 edi
  000a9	6a 1d		 push	 29			; 0000001dH
  000ab	50		 push	 eax
  000ac	8b cb		 mov	 ecx, ebx
  000ae	e8 00 00 00 00	 call	 ?DoAttackMelee@CMover@@QAEHPAV1@W4OBJMSG@@K@Z ; CMover::DoAttackMelee
; File C:\IAGOS\server\v18\Source\Source\_AIInterface\AIMonster2.cpp

; 630  : 	if( nResult )

  000b3	85 c0		 test	 eax, eax
  000b5	0f 84 ed 00 00
	00		 je	 $LN13@BeginAttac

; 631  : 	{
; 632  : 		CMover *pTarget = prj.GetMover( m_idTarget );			

  000bb	ff 76 54	 push	 DWORD PTR [esi+84]
  000be	b9 00 00 00 00	 mov	 ecx, OFFSET ?prj@@3VCProject@@A ; prj
  000c3	e8 00 00 00 00	 call	 ?GetMover@CProject@@QAEPAVCMover@@K@Z ; CProject::GetMover
  000c8	8b f8		 mov	 edi, eax

; 633  : 		// 이벤트 메세지
; 634  : 		// 보스몬스터가 유저에게 말을 한다.
; 635  : 		switch( m_nAttackType )

  000ca	8b 46 64	 mov	 eax, DWORD PTR [esi+100]
  000cd	83 e8 03	 sub	 eax, 3
  000d0	74 42		 je	 SHORT $LN16@BeginAttac
  000d2	83 e8 01	 sub	 eax, 1
  000d5	0f 85 b7 00 00
	00		 jne	 $LN17@BeginAttac

; 636  : 		{
; 637  : 		case CAT_QUAKEDOUBLE:
; 638  : 			{
; 639  : 				if( pTarget )

  000db	85 ff		 test	 edi, edi
  000dd	0f 84 af 00 00
	00		 je	 $LN17@BeginAttac

; 641  : 					g_UserMng.AddWorldShout( pMover->GetName(), prj.GetText(TID_GAME_BOSS_BIGMUSCLE_MSG_04),

  000e3	ff b7 6c 01 00
	00		 push	 DWORD PTR [edi+364]
; File C:\IAGOS\server\v18\Source\Source\_Common\Obj.h

; 215  : 	D3DXVECTOR3		GetPos()	{ return m_vPos; }

  000e9	f3 0f 7e 87 60
	01 00 00	 movq	 xmm0, QWORD PTR [edi+352]
; File C:\IAGOS\server\v18\Source\Source\_AIInterface\AIMonster2.cpp

; 641  : 					g_UserMng.AddWorldShout( pMover->GetName(), prj.GetText(TID_GAME_BOSS_BIGMUSCLE_MSG_04),

  000f1	b9 00 00 00 00	 mov	 ecx, OFFSET ?prj@@3VCProject@@A ; prj
; File C:\IAGOS\server\v18\Source\Source\_Common\Obj.h

; 215  : 	D3DXVECTOR3		GetPos()	{ return m_vPos; }

  000f6	8b 97 68 01 00
	00		 mov	 edx, DWORD PTR [edi+360]
; File C:\IAGOS\server\v18\Source\Source\_AIInterface\AIMonster2.cpp

; 641  : 					g_UserMng.AddWorldShout( pMover->GetName(), prj.GetText(TID_GAME_BOSS_BIGMUSCLE_MSG_04),

  000fc	83 ec 0c	 sub	 esp, 12			; 0000000cH
  000ff	8b c4		 mov	 eax, esp
  00101	68 d4 0b 00 00	 push	 3028			; 00000bd4H
  00106	66 0f d6 00	 movq	 QWORD PTR [eax], xmm0
  0010a	89 50 08	 mov	 DWORD PTR [eax+8], edx
  0010d	e8 00 00 00 00	 call	 ?GetText@CProject@@QAEPBDK@Z ; CProject::GetText

; 642  : 						pTarget->GetPos(), pTarget->GetWorld() );
; 643  : 				}
; 644  : 			}
; 645  : 			break;

  00112	eb 69		 jmp	 SHORT $LN60@BeginAttac
$LN16@BeginAttac:

; 646  : 		case CAT_QUAKE_ONE:
; 647  : 			{
; 648  : 				if( pTarget )

  00114	85 ff		 test	 edi, edi
  00116	74 7a		 je	 SHORT $LN17@BeginAttac

; 649  : 				{
; 650  : 					TCHAR szChar[128] = { 0 };

  00118	68 80 00 00 00	 push	 128			; 00000080H
  0011d	8d 85 7c ff ff
	ff		 lea	 eax, DWORD PTR _szChar$1[ebp]
  00123	6a 00		 push	 0
  00125	50		 push	 eax
  00126	e8 00 00 00 00	 call	 _memset
  0012b	83 c4 0c	 add	 esp, 12			; 0000000cH

; 651  : 					sprintf( szChar, prj.GetText(TID_GAME_BOSS_BIGMUSCLE_MSG_05), pTarget->GetName() );

  0012e	8b cf		 mov	 ecx, edi
  00130	6a 00		 push	 0
  00132	e8 00 00 00 00	 call	 ?GetName@CMover@@QAEPBDH@Z ; CMover::GetName
  00137	50		 push	 eax
  00138	68 d5 0b 00 00	 push	 3029			; 00000bd5H
  0013d	b9 00 00 00 00	 mov	 ecx, OFFSET ?prj@@3VCProject@@A ; prj
  00142	e8 00 00 00 00	 call	 ?GetText@CProject@@QAEPBDK@Z ; CProject::GetText
  00147	50		 push	 eax
  00148	8d 85 7c ff ff
	ff		 lea	 eax, DWORD PTR _szChar$1[ebp]
  0014e	50		 push	 eax
  0014f	e8 00 00 00 00	 call	 _sprintf
; File C:\IAGOS\server\v18\Source\Source\_Common\Obj.h

; 215  : 	D3DXVECTOR3		GetPos()	{ return m_vPos; }

  00154	f3 0f 7e 87 60
	01 00 00	 movq	 xmm0, QWORD PTR [edi+352]
; File C:\IAGOS\server\v18\Source\Source\_AIInterface\AIMonster2.cpp

; 651  : 					sprintf( szChar, prj.GetText(TID_GAME_BOSS_BIGMUSCLE_MSG_05), pTarget->GetName() );

  0015c	83 c4 0c	 add	 esp, 12			; 0000000cH
; File C:\IAGOS\server\v18\Source\Source\_Common\Obj.h

; 215  : 	D3DXVECTOR3		GetPos()	{ return m_vPos; }

  0015f	8b 8f 68 01 00
	00		 mov	 ecx, DWORD PTR [edi+360]
; File C:\IAGOS\server\v18\Source\Source\_AIInterface\AIMonster2.cpp

; 652  : 					g_UserMng.AddWorldShout( pMover->GetName(), szChar,

  00165	ff b7 6c 01 00
	00		 push	 DWORD PTR [edi+364]
  0016b	83 ec 0c	 sub	 esp, 12			; 0000000cH
  0016e	8b c4		 mov	 eax, esp
  00170	66 0f d6 00	 movq	 QWORD PTR [eax], xmm0
  00174	89 48 08	 mov	 DWORD PTR [eax+8], ecx
  00177	8d 85 7c ff ff
	ff		 lea	 eax, DWORD PTR _szChar$1[ebp]
$LN60@BeginAttac:

; 653  : 						pTarget->GetPos(), pTarget->GetWorld() );
; 654  : 				}
; 655  : 			}
; 656  : 			break;
; 657  : 		}					
; 658  : 
; 659  : 		return TRUE;

  0017d	50		 push	 eax
  0017e	6a 00		 push	 0
  00180	8b cb		 mov	 ecx, ebx
  00182	e8 00 00 00 00	 call	 ?GetName@CMover@@QAEPBDH@Z ; CMover::GetName
  00187	50		 push	 eax
  00188	b9 00 00 00 00	 mov	 ecx, OFFSET ?g_UserMng@@3VCUserMng@@A ; g_UserMng
  0018d	e8 00 00 00 00	 call	 ?AddWorldShout@CUserMng@@QAEXPBD0UD3DXVECTOR3@@PAVCWorld@@@Z ; CUserMng::AddWorldShout
$LN17@BeginAttac:
  00192	b8 01 00 00 00	 mov	 eax, 1

; 660  : 	} 
; 661  : 
; 662  : 	return FALSE;
; 663  : }

  00197	5f		 pop	 edi
  00198	5e		 pop	 esi
  00199	5b		 pop	 ebx
  0019a	8b 4d fc	 mov	 ecx, DWORD PTR __$ArrayPad$[ebp]
  0019d	33 cd		 xor	 ecx, ebp
  0019f	e8 00 00 00 00	 call	 @__security_check_cookie@4
  001a4	8b e5		 mov	 esp, ebp
  001a6	5d		 pop	 ebp
  001a7	c3		 ret	 0
$LN13@BeginAttac:
  001a8	8b 4d fc	 mov	 ecx, DWORD PTR __$ArrayPad$[ebp]
  001ab	33 c0		 xor	 eax, eax
  001ad	5f		 pop	 edi
  001ae	5e		 pop	 esi
  001af	33 cd		 xor	 ecx, ebp
  001b1	5b		 pop	 ebx
  001b2	e8 00 00 00 00	 call	 @__security_check_cookie@4
  001b7	8b e5		 mov	 esp, ebp
  001b9	5d		 pop	 ebp
  001ba	c3		 ret	 0
  001bb	90		 npad	 1
$LN48@BeginAttac:
  001bc	00 00 00 00	 DD	 $LN6@BeginAttac
  001c0	00 00 00 00	 DD	 $LN6@BeginAttac
  001c4	00 00 00 00	 DD	 $LN9@BeginAttac
  001c8	00 00 00 00	 DD	 $LN8@BeginAttac
?BeginAttack@CAIMonster2@@AAEHXZ ENDP			; CAIMonster2::BeginAttack
_TEXT	ENDS
; Function compile flags: /Ogtp
; File C:\IAGOS\server\v18\Source\Source\_AIInterface\AIMonster2.cpp
;	COMDAT ?OnEndState@CAIMonster2@@AAEXHKK@Z
_TEXT	SEGMENT
_nInput$ = 8						; size = 4
_dwParam1$ = 12						; size = 4
_dwParam2$ = 16						; size = 4
?OnEndState@CAIMonster2@@AAEXHKK@Z PROC			; CAIMonster2::OnEndState, COMDAT
; _this$ = ecx

; 296  : }

  00000	c2 0c 00	 ret	 12			; 0000000cH
?OnEndState@CAIMonster2@@AAEXHKK@Z ENDP			; CAIMonster2::OnEndState
_TEXT	ENDS
; Function compile flags: /Ogtp
; File C:\IAGOS\server\v18\Source\Source\_AIInterface\AIMonster2.cpp
; File C:\IAGOS\server\v18\Source\Source\_Common\xUtil.h
; File C:\IAGOS\server\v18\Source\Source\_AIInterface\AIMonster2.cpp
; File C:\IAGOS\server\v18\Source\Source\_Common\xUtil.h
; File C:\IAGOS\server\v18\Source\Source\_AIInterface\AIMonster2.cpp
; File C:\IAGOS\server\v18\Source\Source\_Common\xUtil.h
; File C:\IAGOS\server\v18\Source\Source\_AIInterface\AIMonster2.cpp
; File C:\IAGOS\server\v18\Source\Source\_Common\xUtil.h
; File C:\IAGOS\server\v18\Source\Source\_AIInterface\AIMonster2.cpp
; File C:\IAGOS\server\v18\Source\Source\_Common\xUtil.h
; File C:\IAGOS\server\v18\Source\Source\_AIInterface\AIMonster2.cpp
; File C:\IAGOS\server\v18\Source\Source\_Common\xUtil.h
; File C:\IAGOS\server\v18\Source\Source\_AIInterface\AIMonster2.cpp
; File C:\IAGOS\server\v18\Source\Source\_Common\Mover.h
; File C:\IAGOS\server\v18\Source\Source\_Common\Obj.h
; File C:\IAGOS\server\v18\Source\Source\_AIInterface\AIMonster2.cpp
; File C:\IAGOS\server\v18\Source\Source\_Common\Obj.h
; File C:\IAGOS\server\v18\Source\Source\_AIInterface\AIMonster2.cpp
; File C:\IAGOS\server\v18\Source\Source\_Common\Mover.h
; File C:\IAGOS\server\v18\Source\Source\_Common\Obj.h
; File C:\IAGOS\server\v18\Source\Source\_AIInterface\AIMonster2.cpp
;	COMDAT ?OnBeginState@CAIMonster2@@AAEXHKK@Z
_TEXT	SEGMENT
_vPos$1 = -16						; size = 12
$T2 = -16						; size = 12
__$ArrayPad$ = -4					; size = 4
_nInput$ = 8						; size = 4
_dwParam1$ = 12						; size = 4
_dwParam2$ = 16						; size = 4
?OnBeginState@CAIMonster2@@AAEXHKK@Z PROC		; CAIMonster2::OnBeginState, COMDAT
; _this$ = ecx

; 299  : {

  00000	55		 push	 ebp
  00001	8b ec		 mov	 ebp, esp
  00003	83 ec 10	 sub	 esp, 16			; 00000010H
  00006	a1 00 00 00 00	 mov	 eax, DWORD PTR ___security_cookie
  0000b	33 c5		 xor	 eax, ebp
  0000d	89 45 fc	 mov	 DWORD PTR __$ArrayPad$[ebp], eax
  00010	53		 push	 ebx
  00011	8b d9		 mov	 ebx, ecx
  00013	56		 push	 esi

; 300  : 	CMover* pMover = GetMover();
; 301  : 
; 302  : 	switch( GetState() )

  00014	8b 43 3c	 mov	 eax, DWORD PTR [ebx+60]
  00017	8b 73 30	 mov	 esi, DWORD PTR [ebx+48]
  0001a	83 f8 05	 cmp	 eax, 5
  0001d	0f 87 9e 01 00
	00		 ja	 $LN11@OnBeginSta
  00023	ff 24 85 00 00
	00 00		 jmp	 DWORD PTR $LN31@OnBeginSta[eax*4]
$LN4@OnBeginSta:
; File C:\IAGOS\server\v18\Source\Source\_Common\xUtil.h

; 16   : 	g_next = g_next * 1103515245 + 12345;// + nRandomSeed[ i++ ];

  0002a	69 35 00 00 00
	00 6d 4e c6 41	 imul	 esi, DWORD PTR ?g_next@@3KA, 1103515245 ; g_next
; File C:\IAGOS\server\v18\Source\Source\_AIInterface\AIMonster2.cpp

; 306  : 			D3DXVECTOR3 vPos = m_vPosBegin;

  00034	8b 43 4c	 mov	 eax, DWORD PTR [ebx+76]
  00037	f3 0f 7e 43 44	 movq	 xmm0, QWORD PTR [ebx+68]
  0003c	89 45 f8	 mov	 DWORD PTR _vPos$1[ebp+8], eax
; File C:\IAGOS\server\v18\Source\Source\_Common\xUtil.h

; 22   : 	return  xRand() % num;

  0003f	b8 cd cc cc cc	 mov	 eax, -858993459		; cccccccdH
  00044	57		 push	 edi

; 16   : 	g_next = g_next * 1103515245 + 12345;// + nRandomSeed[ i++ ];

  00045	81 c6 39 30 00
	00		 add	 esi, 12345		; 00003039H
; File C:\IAGOS\server\v18\Source\Source\_AIInterface\AIMonster2.cpp

; 306  : 			D3DXVECTOR3 vPos = m_vPosBegin;

  0004b	66 0f d6 45 f0	 movq	 QWORD PTR _vPos$1[ebp], xmm0
; File C:\IAGOS\server\v18\Source\Source\_Common\xUtil.h

; 22   : 	return  xRand() % num;

  00050	f7 e6		 mul	 esi

; 17   : 	return g_next;	// 억단위 확률이 필요해서바꿈.

  00052	69 fe 6d 4e c6
	41		 imul	 edi, esi, 1103515245

; 22   : 	return  xRand() % num;

  00058	b8 cd cc cc cc	 mov	 eax, -858993459		; cccccccdH
  0005d	c1 ea 04	 shr	 edx, 4
  00060	8d 0c 92	 lea	 ecx, DWORD PTR [edx+edx*4]

; 16   : 	g_next = g_next * 1103515245 + 12345;// + nRandomSeed[ i++ ];

  00063	81 c7 39 30 00
	00		 add	 edi, 12345		; 00003039H

; 22   : 	return  xRand() % num;

  00069	f7 e7		 mul	 edi
  0006b	c1 e1 02	 shl	 ecx, 2
  0006e	2b f1		 sub	 esi, ecx
  00070	c1 ea 04	 shr	 edx, 4
; File C:\IAGOS\server\v18\Source\Source\_AIInterface\AIMonster2.cpp

; 309  : 			vPos.x += (float)(x - 10);

  00073	83 ee 0a	 sub	 esi, 10			; 0000000aH
; File C:\IAGOS\server\v18\Source\Source\_Common\xUtil.h

; 16   : 	g_next = g_next * 1103515245 + 12345;// + nRandomSeed[ i++ ];

  00076	89 3d 00 00 00
	00		 mov	 DWORD PTR ?g_next@@3KA, edi ; g_next
; File C:\IAGOS\server\v18\Source\Source\_AIInterface\AIMonster2.cpp

; 312  : 			MoveToDst( vPos );		// y는 어떻게 되나?

  0007c	8b cb		 mov	 ecx, ebx
; File C:\IAGOS\server\v18\Source\Source\_Common\xUtil.h

; 22   : 	return  xRand() % num;

  0007e	8d 04 92	 lea	 eax, DWORD PTR [edx+edx*4]
  00081	66 0f 6e c6	 movd	 xmm0, esi
; File C:\IAGOS\server\v18\Source\Source\_AIInterface\AIMonster2.cpp

; 309  : 			vPos.x += (float)(x - 10);

  00085	0f 5b c0	 cvtdq2ps xmm0, xmm0
; File C:\IAGOS\server\v18\Source\Source\_Common\xUtil.h

; 22   : 	return  xRand() % num;

  00088	c1 e0 02	 shl	 eax, 2
  0008b	2b f8		 sub	 edi, eax
; File C:\IAGOS\server\v18\Source\Source\_AIInterface\AIMonster2.cpp

; 312  : 			MoveToDst( vPos );		// y는 어떻게 되나?

  0008d	8d 45 f0	 lea	 eax, DWORD PTR _vPos$1[ebp]
  00090	83 ef 0a	 sub	 edi, 10			; 0000000aH
  00093	50		 push	 eax
  00094	f3 0f 58 45 f0	 addss	 xmm0, DWORD PTR _vPos$1[ebp]
  00099	f3 0f 11 45 f0	 movss	 DWORD PTR _vPos$1[ebp], xmm0
  0009e	66 0f 6e c7	 movd	 xmm0, edi
  000a2	0f 5b c0	 cvtdq2ps xmm0, xmm0
  000a5	f3 0f 58 45 f8	 addss	 xmm0, DWORD PTR _vPos$1[ebp+8]
  000aa	f3 0f 11 45 f8	 movss	 DWORD PTR _vPos$1[ebp+8], xmm0
  000af	e8 00 00 00 00	 call	 ?MoveToDst@CAIMonster2@@AAEXABUD3DXVECTOR3@@@Z ; CAIMonster2::MoveToDst
  000b4	5f		 pop	 edi
  000b5	5e		 pop	 esi

; 343  : 		break;
; 344  : 	case AI2_SEARCH:
; 345  : 		break;
; 346  : 	}
; 347  : }

  000b6	5b		 pop	 ebx
  000b7	8b 4d fc	 mov	 ecx, DWORD PTR __$ArrayPad$[ebp]
  000ba	33 cd		 xor	 ecx, ebp
  000bc	e8 00 00 00 00	 call	 @__security_check_cookie@4
  000c1	8b e5		 mov	 esp, ebp
  000c3	5d		 pop	 ebp
  000c4	c2 0c 00	 ret	 12			; 0000000cH
$LN5@OnBeginSta:

; 313  : 		}
; 314  : 		break;
; 315  : 	case AI2_IDLE:
; 316  : 		//m_dwReattack = GetTickCount() + xRandom( 0, 2000 );
; 317  : 		m_dwReattack = GetTickCount() + 2000;

  000c7	ff 15 00 00 00
	00		 call	 DWORD PTR __imp__GetTickCount@0
  000cd	05 d0 07 00 00	 add	 eax, 2000		; 000007d0H

; 318  : 		m_idTarget = NULL_ID;			

  000d2	c7 43 54 ff ff
	ff ff		 mov	 DWORD PTR [ebx+84], -1
  000d9	89 43 6c	 mov	 DWORD PTR [ebx+108], eax

; 319  : 		m_vTarget.x = m_vTarget.y = m_vTarget.z = 0.0f;

  000dc	c7 43 60 00 00
	00 00		 mov	 DWORD PTR [ebx+96], 0
  000e3	c7 43 5c 00 00
	00 00		 mov	 DWORD PTR [ebx+92], 0
  000ea	c7 43 58 00 00
	00 00		 mov	 DWORD PTR [ebx+88], 0
; File C:\IAGOS\server\v18\Source\Source\_Common\Mover.h

; 1785 : 	if( m_pActMover )	

  000f1	8b 8e 38 02 00
	00		 mov	 ecx, DWORD PTR [esi+568]
  000f7	85 c9		 test	 ecx, ecx
  000f9	74 11		 je	 SHORT $LN24@OnBeginSta

; 1786 : 		return m_pActMover->SendActMsg( dwMsg, nParam1, nParam2, nParam3, nParam4 );	

  000fb	8b 01		 mov	 eax, DWORD PTR [ecx]
  000fd	6a 00		 push	 0
  000ff	6a 00		 push	 0
  00101	6a 00		 push	 0
  00103	6a 00		 push	 0
  00105	6a 00		 push	 0
  00107	6a 03		 push	 3
  00109	ff 50 04	 call	 DWORD PTR [eax+4]
$LN24@OnBeginSta:
; File C:\IAGOS\server\v18\Source\Source\_Common\Obj.h

; 215  : 	D3DXVECTOR3		GetPos()	{ return m_vPos; }

  0010c	8b 86 68 01 00
	00		 mov	 eax, DWORD PTR [esi+360]
; File C:\IAGOS\server\v18\Source\Source\_AIInterface\AIMonster2.cpp

; 321  : 		MoveToDst( pMover->GetPos() );

  00112	8b cb		 mov	 ecx, ebx
; File C:\IAGOS\server\v18\Source\Source\_Common\Obj.h

; 215  : 	D3DXVECTOR3		GetPos()	{ return m_vPos; }

  00114	f3 0f 7e 86 60
	01 00 00	 movq	 xmm0, QWORD PTR [esi+352]
  0011c	89 45 f8	 mov	 DWORD PTR $T2[ebp+8], eax
; File C:\IAGOS\server\v18\Source\Source\_AIInterface\AIMonster2.cpp

; 321  : 		MoveToDst( pMover->GetPos() );

  0011f	8d 45 f0	 lea	 eax, DWORD PTR $T2[ebp]
  00122	50		 push	 eax
; File C:\IAGOS\server\v18\Source\Source\_Common\Mover.h

; 1030 : 	void			ClearDestObj()     	{ m_idDest = NULL_ID; m_fArrivalRange = 0.0f; }

  00123	c7 86 58 02 00
	00 ff ff ff ff	 mov	 DWORD PTR [esi+600], -1
  0012d	c7 86 54 02 00
	00 00 00 00 00	 mov	 DWORD PTR [esi+596], 0
; File C:\IAGOS\server\v18\Source\Source\_Common\Obj.h

; 215  : 	D3DXVECTOR3		GetPos()	{ return m_vPos; }

  00137	66 0f d6 45 f0	 movq	 QWORD PTR $T2[ebp], xmm0
; File C:\IAGOS\server\v18\Source\Source\_AIInterface\AIMonster2.cpp

; 321  : 		MoveToDst( pMover->GetPos() );

  0013c	e8 00 00 00 00	 call	 ?MoveToDst@CAIMonster2@@AAEXABUD3DXVECTOR3@@@Z ; CAIMonster2::MoveToDst
  00141	5e		 pop	 esi

; 343  : 		break;
; 344  : 	case AI2_SEARCH:
; 345  : 		break;
; 346  : 	}
; 347  : }

  00142	5b		 pop	 ebx
  00143	8b 4d fc	 mov	 ecx, DWORD PTR __$ArrayPad$[ebp]
  00146	33 cd		 xor	 ecx, ebp
  00148	e8 00 00 00 00	 call	 @__security_check_cookie@4
  0014d	8b e5		 mov	 esp, ebp
  0014f	5d		 pop	 ebp
  00150	c2 0c 00	 ret	 12			; 0000000cH
$LN6@OnBeginSta:

; 322  : 		break;
; 323  : 
; 324  : 	case AI2_ATTACK:
; 325  : 		if( BeginAttack() == FALSE )						// 공격 

  00153	e8 00 00 00 00	 call	 ?BeginAttack@CAIMonster2@@AAEHXZ ; CAIMonster2::BeginAttack
  00158	85 c0		 test	 eax, eax
  0015a	75 65		 jne	 SHORT $LN11@OnBeginSta

; 326  : 			SendAIMsg( AIMSG_END_MELEEATTACK, 0, 0 );			// 실패할 경우 공격완료 메세지는 오지 않는다.

  0015c	8b 03		 mov	 eax, DWORD PTR [ebx]
  0015e	8b cb		 mov	 ecx, ebx
  00160	6a 00		 push	 0
  00162	6a 00		 push	 0
  00164	6a 0f		 push	 15			; 0000000fH
  00166	ff 50 1c	 call	 DWORD PTR [eax+28]
  00169	5e		 pop	 esi

; 343  : 		break;
; 344  : 	case AI2_SEARCH:
; 345  : 		break;
; 346  : 	}
; 347  : }

  0016a	5b		 pop	 ebx
  0016b	8b 4d fc	 mov	 ecx, DWORD PTR __$ArrayPad$[ebp]
  0016e	33 cd		 xor	 ecx, ebp
  00170	e8 00 00 00 00	 call	 @__security_check_cookie@4
  00175	8b e5		 mov	 esp, ebp
  00177	5d		 pop	 ebp
  00178	c2 0c 00	 ret	 12			; 0000000cH
$LN8@OnBeginSta:

; 327  : 		break;
; 328  : 
; 329  : 	case AI2_TRACKING:
; 330  : 		if( m_idTarget == NULL_ID )

  0017b	8b 43 54	 mov	 eax, DWORD PTR [ebx+84]
  0017e	83 f8 ff	 cmp	 eax, -1
  00181	75 06		 jne	 SHORT $LN9@OnBeginSta

; 331  : 		{
; 332  : 			m_idTarget = m_idLastAttacker;

  00183	8b 43 50	 mov	 eax, DWORD PTR [ebx+80]
  00186	89 43 54	 mov	 DWORD PTR [ebx+84], eax
$LN9@OnBeginSta:

; 333  : 			ASSERT( m_idTarget != NULL_ID );
; 334  : 		}
; 335  : 
; 336  : #ifdef __TRAFIC_1222
; 337  : 		if( pMover->GetDestId() == m_idTarget )

  00189	39 86 58 02 00
	00		 cmp	 DWORD PTR [esi+600], eax
  0018f	74 30		 je	 SHORT $LN11@OnBeginSta

; 338  : 			break;
; 339  : #endif	// __TRAFIC_1222
; 340  : 		// 이동할 목표물을 idTarget으로 설정.
; 341  : 		pMover->SetDestObj( m_idTarget, m_fAttackRange );

  00191	f3 0f 10 43 68	 movss	 xmm0, DWORD PTR [ebx+104]
  00196	6a 00		 push	 0
  00198	51		 push	 ecx
  00199	f3 0f 11 04 24	 movss	 DWORD PTR [esp], xmm0
  0019e	8b ce		 mov	 ecx, esi
  001a0	50		 push	 eax
  001a1	e8 00 00 00 00	 call	 ?SetDestObj@CMover@@QAEXKMH@Z ; CMover::SetDestObj

; 342  : 		g_UserMng.AddMoverSetDestObj( pMover, m_idTarget, m_fAttackRange );

  001a6	f3 0f 10 43 68	 movss	 xmm0, DWORD PTR [ebx+104]
  001ab	6a 00		 push	 0
  001ad	51		 push	 ecx
  001ae	f3 0f 11 04 24	 movss	 DWORD PTR [esp], xmm0
  001b3	b9 00 00 00 00	 mov	 ecx, OFFSET ?g_UserMng@@3VCUserMng@@A ; g_UserMng
  001b8	ff 73 54	 push	 DWORD PTR [ebx+84]
  001bb	56		 push	 esi
  001bc	e8 00 00 00 00	 call	 ?AddMoverSetDestObj@CUserMng@@QAEXPAVCMover@@KMH@Z ; CUserMng::AddMoverSetDestObj
$LN11@OnBeginSta:

; 343  : 		break;
; 344  : 	case AI2_SEARCH:
; 345  : 		break;
; 346  : 	}
; 347  : }

  001c1	8b 4d fc	 mov	 ecx, DWORD PTR __$ArrayPad$[ebp]
  001c4	5e		 pop	 esi
  001c5	33 cd		 xor	 ecx, ebp
  001c7	5b		 pop	 ebx
  001c8	e8 00 00 00 00	 call	 @__security_check_cookie@4
  001cd	8b e5		 mov	 esp, ebp
  001cf	5d		 pop	 ebp
  001d0	c2 0c 00	 ret	 12			; 0000000cH
  001d3	90		 npad	 1
$LN31@OnBeginSta:
  001d4	00 00 00 00	 DD	 $LN5@OnBeginSta
  001d8	00 00 00 00	 DD	 $LN4@OnBeginSta
  001dc	00 00 00 00	 DD	 $LN11@OnBeginSta
  001e0	00 00 00 00	 DD	 $LN11@OnBeginSta
  001e4	00 00 00 00	 DD	 $LN8@OnBeginSta
  001e8	00 00 00 00	 DD	 $LN6@OnBeginSta
?OnBeginState@CAIMonster2@@AAEXHKK@Z ENDP		; CAIMonster2::OnBeginState
_TEXT	ENDS
; Function compile flags: /Ogtp
; File C:\IAGOS\server\v18\Source\Source\_AIInterface\AIMonster2.cpp
;	COMDAT ?ProcessAIMsg@CAIMonster2@@AAEXHHKK@Z
_TEXT	SEGMENT
_nInput$ = 8						; size = 4
_nOutput$ = 12						; size = 4
_dwParam1$ = 16						; size = 4
_dwParam2$ = 20						; size = 4
?ProcessAIMsg@CAIMonster2@@AAEXHHKK@Z PROC		; CAIMonster2::ProcessAIMsg, COMDAT
; _this$ = ecx

; 285  : {

  00000	55		 push	 ebp
  00001	8b ec		 mov	 ebp, esp

; 286  : 	OnEndState( nInput, dwParam1, dwParam2 );
; 287  : 
; 288  : 	m_nState = (AI2_STATE)nOutput;

  00003	8b 45 0c	 mov	 eax, DWORD PTR _nOutput$[ebp]
  00006	56		 push	 esi
  00007	8b f1		 mov	 esi, ecx
  00009	89 46 3c	 mov	 DWORD PTR [esi+60], eax

; 289  : 	m_dwTick = ::GetTickCount();

  0000c	ff 15 00 00 00
	00		 call	 DWORD PTR __imp__GetTickCount@0

; 290  : 
; 291  : 	OnBeginState( nInput, dwParam1, dwParam2 );

  00012	ff 75 14	 push	 DWORD PTR _dwParam2$[ebp]
  00015	8b ce		 mov	 ecx, esi
  00017	89 46 40	 mov	 DWORD PTR [esi+64], eax
  0001a	ff 75 10	 push	 DWORD PTR _dwParam1$[ebp]
  0001d	ff 75 08	 push	 DWORD PTR _nInput$[ebp]
  00020	e8 00 00 00 00	 call	 ?OnBeginState@CAIMonster2@@AAEXHKK@Z ; CAIMonster2::OnBeginState
  00025	5e		 pop	 esi

; 292  : }

  00026	5d		 pop	 ebp
  00027	c2 10 00	 ret	 16			; 00000010H
?ProcessAIMsg@CAIMonster2@@AAEXHHKK@Z ENDP		; CAIMonster2::ProcessAIMsg
_TEXT	ENDS
; Function compile flags: /Ogtp
; File C:\IAGOS\server\v18\Source\Source\_AIInterface\AIMonster2.cpp
; File C:\IAGOS\server\v18\Source\Source\_AIInterface\Action.h
; File C:\IAGOS\server\v18\Source\Source\_Common\Mover.h
; File C:\IAGOS\server\v18\Source\Source\_AIInterface\AIMonster2.cpp
;	COMDAT ?IsControllable@CAIMonster2@@AAEHXZ
_TEXT	SEGMENT
?IsControllable@CAIMonster2@@AAEHXZ PROC		; CAIMonster2::IsControllable, COMDAT
; _this$ = ecx

; 251  : 	CMover* pMover = GetMover();

  00000	8b 49 30	 mov	 ecx, DWORD PTR [ecx+48]
; File C:\IAGOS\server\v18\Source\Source\_AIInterface\Action.h

; 310  : 	BOOL			IsDie() { return (m_dwState & OBJSTA_DIE_ALL) ? TRUE : FALSE; }

  00003	8b 81 38 02 00
	00		 mov	 eax, DWORD PTR [ecx+568]
  00009	8b 40 04	 mov	 eax, DWORD PTR [eax+4]
; File C:\IAGOS\server\v18\Source\Source\_Common\Mover.h

; 1250 : 	BOOL			IsDie() { return m_pActMover->IsDie() || m_nHitPoint == 0; }

  0000c	a9 00 00 00 08	 test	 eax, 134217728		; 08000000H
  00011	75 12		 jne	 SHORT $LN3@IsControll
  00013	83 b9 f8 05 00
	00 00		 cmp	 DWORD PTR [ecx+1528], 0
  0001a	74 09		 je	 SHORT $LN3@IsControll
; File C:\IAGOS\server\v18\Source\Source\_AIInterface\AIMonster2.cpp

; 253  : 	if( pMover->IsDie() || (pMover->m_pActMover->GetState() & OBJSTA_DMG_FLY_ALL) )

  0001c	c1 e8 19	 shr	 eax, 25			; 00000019H
  0001f	f7 d0		 not	 eax
  00021	83 e0 01	 and	 eax, 1

; 255  : 	return TRUE;
; 256  : }

  00024	c3		 ret	 0
$LN3@IsControll:

; 254  : 		return FALSE;

  00025	33 c0		 xor	 eax, eax

; 255  : 	return TRUE;
; 256  : }

  00027	c3		 ret	 0
?IsControllable@CAIMonster2@@AAEHXZ ENDP		; CAIMonster2::IsControllable
_TEXT	ENDS
; Function compile flags: /Ogtp
; File C:\IAGOS\server\v18\Source\Source\_AIInterface\AIMonster2.cpp
;	COMDAT ?Check@CAIMonster2@@AAEHHKK@Z
_TEXT	SEGMENT
_nInput$ = 8						; size = 4
_dwCurTick$ = 12					; size = 4
_dwValue$ = 16						; size = 4
?Check@CAIMonster2@@AAEHHKK@Z PROC			; CAIMonster2::Check, COMDAT
; _this$ = ecx

; 260  : {

  00000	55		 push	 ebp
  00001	8b ec		 mov	 ebp, esp

; 261  : 	switch( nInput )

  00003	8b 45 08	 mov	 eax, DWORD PTR _nInput$[ebp]
  00006	83 c0 fd	 add	 eax, -3			; fffffffdH
  00009	83 f8 12	 cmp	 eax, 18			; 00000012H
  0000c	77 19		 ja	 SHORT $LN11@Check
  0000e	0f b6 80 00 00
	00 00		 movzx	 eax, BYTE PTR $LN17@Check[eax]
  00015	ff 24 85 00 00
	00 00		 jmp	 DWORD PTR $LN18@Check[eax*4]
$LN4@Check:

; 262  : 	{
; 263  : 	case AIMSG_TIMEOUT:
; 264  : 		if( dwCurTick > m_dwTick + dwValue )

  0001c	8b 41 40	 mov	 eax, DWORD PTR [ecx+64]
  0001f	03 45 10	 add	 eax, DWORD PTR _dwValue$[ebp]
  00022	39 45 0c	 cmp	 DWORD PTR _dwCurTick$[ebp], eax
  00025	77 1b		 ja	 SHORT $LN13@Check
$LN11@Check:

; 278  : 		break;
; 279  : 	}
; 280  : 	return FALSE;

  00027	33 c0		 xor	 eax, eax

; 281  : }

  00029	5d		 pop	 ebp
  0002a	c2 0c 00	 ret	 12			; 0000000cH
$LN6@Check:

; 265  : 			return TRUE;
; 266  : 		break;
; 267  : 	case AIMSG_TARGET_FIND:
; 268  : 		if( Search() )					// m_idTarget에 target을 세팅 

  0002d	e8 00 00 00 00	 call	 ?Search@CAIMonster2@@AAEHXZ ; CAIMonster2::Search
  00032	85 c0		 test	 eax, eax
  00034	75 0c		 jne	 SHORT $LN13@Check

; 281  : }

  00036	5d		 pop	 ebp
  00037	c2 0c 00	 ret	 12			; 0000000cH
$LN8@Check:

; 269  : 			return TRUE;
; 270  : 		break;
; 271  : 	case AIMSG_REATTACK_TIMEOUT:		// 리어택 시간이 됐는가?
; 272  : 		if( dwCurTick > m_dwReattack )

  0003a	8b 45 0c	 mov	 eax, DWORD PTR _dwCurTick$[ebp]
  0003d	3b 41 6c	 cmp	 eax, DWORD PTR [ecx+108]
  00040	76 e5		 jbe	 SHORT $LN11@Check
$LN13@Check:

; 277  : 			return TRUE;

  00042	b8 01 00 00 00	 mov	 eax, 1

; 281  : }

  00047	5d		 pop	 ebp
  00048	c2 0c 00	 ret	 12			; 0000000cH
$LN10@Check:

; 273  : 			return TRUE;
; 274  : 		break;
; 275  : 	case AIMSG_INVALID_TARGET:			// 타겟이 공격하기에 부적절?
; 276  : 		if( IsInValidTarget() )

  0004b	e8 00 00 00 00	 call	 ?IsInValidTarget@CAIMonster2@@AAEHXZ ; CAIMonster2::IsInValidTarget
  00050	f7 d8		 neg	 eax
  00052	1b c0		 sbb	 eax, eax
  00054	f7 d8		 neg	 eax

; 281  : }

  00056	5d		 pop	 ebp
  00057	c2 0c 00	 ret	 12			; 0000000cH
  0005a	66 90		 npad	 2
$LN18@Check:
  0005c	00 00 00 00	 DD	 $LN4@Check
  00060	00 00 00 00	 DD	 $LN6@Check
  00064	00 00 00 00	 DD	 $LN8@Check
  00068	00 00 00 00	 DD	 $LN10@Check
  0006c	00 00 00 00	 DD	 $LN11@Check
$LN17@Check:
  00070	00		 DB	 0
  00071	04		 DB	 4
  00072	04		 DB	 4
  00073	04		 DB	 4
  00074	04		 DB	 4
  00075	04		 DB	 4
  00076	04		 DB	 4
  00077	04		 DB	 4
  00078	04		 DB	 4
  00079	04		 DB	 4
  0007a	04		 DB	 4
  0007b	04		 DB	 4
  0007c	04		 DB	 4
  0007d	04		 DB	 4
  0007e	04		 DB	 4
  0007f	04		 DB	 4
  00080	01		 DB	 1
  00081	02		 DB	 2
  00082	03		 DB	 3
?Check@CAIMonster2@@AAEHHKK@Z ENDP			; CAIMonster2::Check
_TEXT	ENDS
; Function compile flags: /Ogtp
; File C:\IAGOS\server\v18\Source\Source\_AIInterface\AIMonster2.cpp
;	COMDAT ?Init@CAIMonster2@@AAEXXZ
_TEXT	SEGMENT
?Init@CAIMonster2@@AAEXXZ PROC				; CAIMonster2::Init, COMDAT
; _this$ = ecx

; 218  : {

  00000	56		 push	 esi

; 219  : 	m_dwFsmType = FSM_TYPE_0;
; 220  : 	m_nState = AI2_IDLE;
; 221  : 	m_dwTick = ::GetTickCount();

  00001	8b 35 00 00 00
	00		 mov	 esi, DWORD PTR __imp__GetTickCount@0
  00007	57		 push	 edi
  00008	8b f9		 mov	 edi, ecx
  0000a	c7 47 38 00 00
	00 00		 mov	 DWORD PTR [edi+56], 0
  00011	c7 47 3c 00 00
	00 00		 mov	 DWORD PTR [edi+60], 0
  00018	ff d6		 call	 esi
  0001a	89 47 40	 mov	 DWORD PTR [edi+64], eax

; 222  : 
; 223  : 	m_vPosBegin = D3DXVECTOR3( 0.0f, 0.0f, 0.0f );

  0001d	c7 47 44 00 00
	00 00		 mov	 DWORD PTR [edi+68], 0
  00024	c7 47 48 00 00
	00 00		 mov	 DWORD PTR [edi+72], 0
  0002b	c7 47 4c 00 00
	00 00		 mov	 DWORD PTR [edi+76], 0

; 224  : 
; 225  : 	DWORD dwCur = GetTickCount();

  00032	ff d6		 call	 esi

; 226  : 
; 227  : 	m_idLastAttacker = NULL_ID;

  00034	c7 47 50 ff ff
	ff ff		 mov	 DWORD PTR [edi+80], -1

; 228  : 	m_dwReattack     = dwCur;

  0003b	89 47 6c	 mov	 DWORD PTR [edi+108], eax

; 229  : 	m_idTarget       = NULL_ID;

  0003e	c7 47 54 ff ff
	ff ff		 mov	 DWORD PTR [edi+84], -1

; 230  : 	m_vTarget        = D3DXVECTOR3( 0.0f, 0.0f, 0.0f );

  00045	c7 47 58 00 00
	00 00		 mov	 DWORD PTR [edi+88], 0
  0004c	c7 47 5c 00 00
	00 00		 mov	 DWORD PTR [edi+92], 0
  00053	c7 47 60 00 00
	00 00		 mov	 DWORD PTR [edi+96], 0

; 231  : 	m_nAttackType    = CAT_NORMAL;

  0005a	c7 47 64 01 00
	00 00		 mov	 DWORD PTR [edi+100], 1

; 232  : 	m_fAttackRange   = 5.0f;

  00061	c7 47 68 00 00
	a0 40		 mov	 DWORD PTR [edi+104], 1084227584 ; 40a00000H
  00068	5f		 pop	 edi
  00069	5e		 pop	 esi

; 233  : }

  0006a	c3		 ret	 0
?Init@CAIMonster2@@AAEXXZ ENDP				; CAIMonster2::Init
_TEXT	ENDS
; Function compile flags: /Ogtp
; File C:\IAGOS\server\v18\Source\Source\_AIInterface\AIMonster2.cpp
; File C:\IAGOS\server\v18\Source\Source\_Common\Project.h
; File C:\IAGOS\server\v18\Source\Source\_AIInterface\AIMonster2.cpp
; File C:\IAGOS\server\v18\Source\Source\_Common\Mover.h
; File C:\IAGOS\server\v18\Source\Source\_Common\Project.h
; File C:\IAGOS\server\v18\Source\Source\_AIInterface\AIMonster2.cpp
;	COMDAT ?InitAI@CAIMonster2@@UAEXXZ
_TEXT	SEGMENT
?InitAI@CAIMonster2@@UAEXXZ PROC			; CAIMonster2::InitAI, COMDAT
; _this$ = ecx

; 237  : {

  00000	56		 push	 esi
  00001	8b f1		 mov	 esi, ecx
; File C:\IAGOS\server\v18\Source\Source\_Common\Project.h

; 1406 : 	VERIFY_RANGE( nIndex, 0, m_nMoverPropSize, "GetMoverProp range_error", NULL );

  00003	8b 0d b4 01 00
	00		 mov	 ecx, DWORD PTR ?prj@@3VCProject@@A+436
; File C:\IAGOS\server\v18\Source\Source\_AIInterface\AIMonster2.cpp

; 237  : {

  00009	57		 push	 edi

; 238  : 	CMover* pMover = GetMover();

  0000a	8b 7e 30	 mov	 edi, DWORD PTR [esi+48]
; File C:\IAGOS\server\v18\Source\Source\_Common\Mover.h

; 1020 : 	MoverProp*		GetProp() { return prj.GetMoverProp( m_dwIndex ); }	// 객체의 프로퍼티 얻기 	

  0000d	8b 87 74 01 00
	00		 mov	 eax, DWORD PTR [edi+372]
; File C:\IAGOS\server\v18\Source\Source\_Common\Project.h

; 1406 : 	VERIFY_RANGE( nIndex, 0, m_nMoverPropSize, "GetMoverProp range_error", NULL );

  00013	85 c0		 test	 eax, eax
  00015	78 12		 js	 SHORT $LN11@InitAI
  00017	3b c1		 cmp	 eax, ecx
  00019	7d 0e		 jge	 SHORT $LN11@InitAI

; 1407 : 	return m_pPropMover + nIndex;

  0001b	69 c0 90 06 00
	00		 imul	 eax, eax, 1680
  00021	03 05 b8 01 00
	00		 add	 eax, DWORD PTR ?prj@@3VCProject@@A+440
  00027	eb 18		 jmp	 SHORT $LN6@InitAI
$LN11@InitAI:

; 579  : 	LPCTSTR szErr = Error( _T( "%s min:%d, max:%d, index:%d" ), szMsg, nMin, nMax, nIndex ); 

  00029	50		 push	 eax
  0002a	51		 push	 ecx
  0002b	6a 00		 push	 0
  0002d	68 00 00 00 00	 push	 OFFSET ??_C@_0BJ@GKPOBPPI@GetMoverProp?5range_error@
  00032	68 00 00 00 00	 push	 OFFSET ??_C@_0BM@HMFGHCP@?$CFs?5min?3?$CFd?0?5max?3?$CFd?0?5index?3?$CFd@
  00037	e8 00 00 00 00	 call	 ?Error@@YAPBDPBDZZ	; Error
  0003c	83 c4 14	 add	 esp, 20			; 00000014H

; 1406 : 	VERIFY_RANGE( nIndex, 0, m_nMoverPropSize, "GetMoverProp range_error", NULL );

  0003f	33 c0		 xor	 eax, eax
$LN6@InitAI:
; File C:\IAGOS\server\v18\Source\Source\_AIInterface\AIMonster2.cpp

; 241  : 	if( pProperty->dwAI >= AII_VER2_TYPE0 )

  00041	8b 40 48	 mov	 eax, DWORD PTR [eax+72]
  00044	83 f8 64	 cmp	 eax, 100		; 00000064H
  00047	72 06		 jb	 SHORT $LN2@InitAI

; 242  : 		m_dwFsmType = pProperty->dwAI - AII_VER2_TYPE0;		

  00049	83 c0 9c	 add	 eax, -100		; ffffff9cH
  0004c	89 46 38	 mov	 DWORD PTR [esi+56], eax
$LN2@InitAI:

; 243  : 	
; 244  : 	m_vPosBegin    = pMover->GetPos();

  0004f	f3 0f 7e 87 60
	01 00 00	 movq	 xmm0, QWORD PTR [edi+352]

; 245  : 	m_fAttackRange = pMover->GetRadiusXZ();		

  00057	8b cf		 mov	 ecx, edi
  00059	66 0f d6 46 44	 movq	 QWORD PTR [esi+68], xmm0
  0005e	8b 87 68 01 00
	00		 mov	 eax, DWORD PTR [edi+360]
  00064	89 46 4c	 mov	 DWORD PTR [esi+76], eax
  00067	e8 00 00 00 00	 call	 ?GetRadiusXZ@CObj@@QAEMXZ ; CObj::GetRadiusXZ
  0006c	5f		 pop	 edi
  0006d	d9 5e 68	 fstp	 DWORD PTR [esi+104]
  00070	5e		 pop	 esi

; 246  : }

  00071	c3		 ret	 0
?InitAI@CAIMonster2@@UAEXXZ ENDP			; CAIMonster2::InitAI
_TEXT	ENDS
; Function compile flags: /Ogtp
; File C:\IAGOS\server\v18\Source\Source\_AIInterface\AIMonster2.cpp
;	COMDAT ?PostAIMsg@CAIMonster2@@UAEXKKK@Z
_TEXT	SEGMENT
_dwMessage$ = 8						; size = 4
_dwParam1$ = 12						; size = 4
_dwParam2$ = 16						; size = 4
?PostAIMsg@CAIMonster2@@UAEXKKK@Z PROC			; CAIMonster2::PostAIMsg, COMDAT
; _this$ = ecx

; 373  : {

  00000	55		 push	 ebp
  00001	8b ec		 mov	 ebp, esp

; 374  : 	SendAIMsg( dwMessage, dwParam1, dwParam2 );

  00003	8b 01		 mov	 eax, DWORD PTR [ecx]

; 375  : }

  00005	5d		 pop	 ebp

; 374  : 	SendAIMsg( dwMessage, dwParam1, dwParam2 );

  00006	ff 60 1c	 jmp	 DWORD PTR [eax+28]
?PostAIMsg@CAIMonster2@@UAEXKKK@Z ENDP			; CAIMonster2::PostAIMsg
_TEXT	ENDS
; Function compile flags: /Ogtp
; File C:\IAGOS\server\v18\Source\Source\_AIInterface\AIMonster2.cpp
;	COMDAT ?SendAIMsg@CAIMonster2@@UAEXKKK@Z
_TEXT	SEGMENT
_dwMessage$ = 8						; size = 4
_nOutput$ = 8						; size = 4
_dwParam1$ = 12						; size = 4
_dwParam2$ = 16						; size = 4
?SendAIMsg@CAIMonster2@@UAEXKKK@Z PROC			; CAIMonster2::SendAIMsg, COMDAT
; _this$ = ecx

; 379  : {

  00000	55		 push	 ebp
  00001	8b ec		 mov	 ebp, esp
  00003	53		 push	 ebx

; 380  : 	if( dwMessage == AIMSG_DAMAGE )

  00004	8b 5d 0c	 mov	 ebx, DWORD PTR _dwParam1$[ebp]
  00007	56		 push	 esi
  00008	57		 push	 edi
  00009	8b 7d 08	 mov	 edi, DWORD PTR _dwMessage$[ebp]
  0000c	8b f1		 mov	 esi, ecx
  0000e	83 ff 08	 cmp	 edi, 8
  00011	75 03		 jne	 SHORT $LN2@SendAIMsg

; 381  : 		m_idLastAttacker = dwParam1;

  00013	89 5e 50	 mov	 DWORD PTR [esi+80], ebx
$LN2@SendAIMsg:

; 382  : 
; 383  : 	if( IsControllable() == FALSE )

  00016	e8 00 00 00 00	 call	 ?IsControllable@CAIMonster2@@AAEHXZ ; CAIMonster2::IsControllable
  0001b	85 c0		 test	 eax, eax
  0001d	74 2d		 je	 SHORT $LN1@SendAIMsg

; 384  : 		return;
; 385  : 
; 386  : 	int nInput, nOutput;
; 387  : 	nInput = (int)dwMessage;
; 388  : 
; 389  : 	BOOL bResult = GetFSM( m_dwFsmType )->GetTransition( m_nState, nInput, nOutput );

  0001f	8d 45 08	 lea	 eax, DWORD PTR _nOutput$[ebp]
  00022	50		 push	 eax
  00023	57		 push	 edi
  00024	ff 76 3c	 push	 DWORD PTR [esi+60]
  00027	ff 76 38	 push	 DWORD PTR [esi+56]
  0002a	e8 00 00 00 00	 call	 ?GetFSM@@YAPAVCFSM@@K@Z	; GetFSM
  0002f	83 c4 04	 add	 esp, 4
  00032	8b c8		 mov	 ecx, eax
  00034	e8 00 00 00 00	 call	 ?GetTransition@CFSM@@QAEHHHAAH@Z ; CFSM::GetTransition

; 390  : 	if( bResult == FALSE )		// 전이가 발생하지 않았나?

  00039	85 c0		 test	 eax, eax
  0003b	74 0f		 je	 SHORT $LN1@SendAIMsg

; 391  : 		return;					
; 392  : 
; 393  : 	ProcessAIMsg( nInput, nOutput, dwParam1, dwParam2 );

  0003d	ff 75 10	 push	 DWORD PTR _dwParam2$[ebp]
  00040	8b ce		 mov	 ecx, esi
  00042	53		 push	 ebx
  00043	ff 75 08	 push	 DWORD PTR _nOutput$[ebp]
  00046	57		 push	 edi
  00047	e8 00 00 00 00	 call	 ?ProcessAIMsg@CAIMonster2@@AAEXHHKK@Z ; CAIMonster2::ProcessAIMsg
$LN1@SendAIMsg:

; 394  : }

  0004c	5f		 pop	 edi
  0004d	5e		 pop	 esi
  0004e	5b		 pop	 ebx
  0004f	5d		 pop	 ebp
  00050	c2 0c 00	 ret	 12			; 0000000cH
?SendAIMsg@CAIMonster2@@UAEXKKK@Z ENDP			; CAIMonster2::SendAIMsg
_TEXT	ENDS
; Function compile flags: /Ogtp
; File C:\IAGOS\server\v18\Source\Source\_AIInterface\AIMonster2.cpp
;	COMDAT ?RouteMessage@CAIMonster2@@UAEXXZ
_TEXT	SEGMENT
_dwCurTick$1$ = -8					; size = 4
_this$1$ = -4						; size = 4
?RouteMessage@CAIMonster2@@UAEXXZ PROC			; CAIMonster2::RouteMessage, COMDAT
; _this$ = ecx

; 350  : {

  00000	55		 push	 ebp
  00001	8b ec		 mov	 ebp, esp
  00003	83 ec 08	 sub	 esp, 8
  00006	53		 push	 ebx
  00007	8b d9		 mov	 ebx, ecx
  00009	89 5d fc	 mov	 DWORD PTR _this$1$[ebp], ebx

; 351  : 	if( IsControllable() == FALSE )

  0000c	e8 00 00 00 00	 call	 ?IsControllable@CAIMonster2@@AAEHXZ ; CAIMonster2::IsControllable
  00011	85 c0		 test	 eax, eax
  00013	74 72		 je	 SHORT $LN3@RouteMessa

; 352  : 		return;
; 353  : 
; 354  : 	DWORD dwCurTick = ::GetTickCount();

  00015	ff 15 00 00 00
	00		 call	 DWORD PTR __imp__GetTickCount@0

; 355  : 	CFSMstate* pState = GetFSM( m_dwFsmType )->GetState( m_nState );

  0001b	ff 73 3c	 push	 DWORD PTR [ebx+60]
  0001e	89 45 f8	 mov	 DWORD PTR _dwCurTick$1$[ebp], eax
  00021	ff 73 38	 push	 DWORD PTR [ebx+56]
  00024	e8 00 00 00 00	 call	 ?GetFSM@@YAPAVCFSM@@K@Z	; GetFSM
  00029	83 c4 04	 add	 esp, 4
  0002c	8b c8		 mov	 ecx, eax
  0002e	e8 00 00 00 00	 call	 ?GetState@CFSM@@QAEPAVCFSMstate@@H@Z ; CFSM::GetState
  00033	8b d8		 mov	 ebx, eax

; 356  : 	if( pState == NULL )

  00035	85 db		 test	 ebx, ebx
  00037	74 4e		 je	 SHORT $LN3@RouteMessa

; 357  : 		return;				// 해당 상태에 대한 주기적 검사가 없다.
; 358  : 
; 359  : 	for( int i=0; i<pState->GetPolling(); ++i )

  00039	56		 push	 esi
  0003a	8b cb		 mov	 ecx, ebx
  0003c	33 f6		 xor	 esi, esi
  0003e	e8 00 00 00 00	 call	 ?GetPolling@CFSMstate@@QAEHXZ ; CFSMstate::GetPolling
  00043	85 c0		 test	 eax, eax
  00045	7e 3f		 jle	 SHORT $LN23@RouteMessa
  00047	57		 push	 edi
$LL4@RouteMessa:

; 360  : 	{
; 361  : 		FSM_STATE* p = pState->GetEntry( i );

  00048	8b 03		 mov	 eax, DWORD PTR [ebx]

; 362  : 		BOOL bHandle = Check( p->nInput, dwCurTick, p->dwExtra );

  0004a	8b 4d fc	 mov	 ecx, DWORD PTR _this$1$[ebp]
  0004d	8b 3c b0	 mov	 edi, DWORD PTR [eax+esi*4]
  00050	ff 77 08	 push	 DWORD PTR [edi+8]
  00053	ff 75 f8	 push	 DWORD PTR _dwCurTick$1$[ebp]
  00056	ff 37		 push	 DWORD PTR [edi]
  00058	e8 00 00 00 00	 call	 ?Check@CAIMonster2@@AAEHHKK@Z ; CAIMonster2::Check

; 363  : 		if( bHandle )

  0005d	85 c0		 test	 eax, eax
  0005f	75 13		 jne	 SHORT $LN15@RouteMessa

; 357  : 		return;				// 해당 상태에 대한 주기적 검사가 없다.
; 358  : 
; 359  : 	for( int i=0; i<pState->GetPolling(); ++i )

  00061	8b cb		 mov	 ecx, ebx
  00063	46		 inc	 esi
  00064	e8 00 00 00 00	 call	 ?GetPolling@CFSMstate@@QAEHXZ ; CFSMstate::GetPolling
  00069	3b f0		 cmp	 esi, eax
  0006b	7c db		 jl	 SHORT $LL4@RouteMessa
  0006d	5f		 pop	 edi
  0006e	5e		 pop	 esi
  0006f	5b		 pop	 ebx

; 366  : 			break;
; 367  : 		}
; 368  : 	}
; 369  : }

  00070	8b e5		 mov	 esp, ebp
  00072	5d		 pop	 ebp
  00073	c3		 ret	 0
$LN15@RouteMessa:

; 364  : 		{
; 365  : 			ProcessAIMsg( p->nInput, p->nOutput, 0, 0 );	// 3rd, 4th data is default

  00074	8b 4d fc	 mov	 ecx, DWORD PTR _this$1$[ebp]
  00077	6a 00		 push	 0
  00079	6a 00		 push	 0
  0007b	ff 77 04	 push	 DWORD PTR [edi+4]
  0007e	ff 37		 push	 DWORD PTR [edi]
  00080	e8 00 00 00 00	 call	 ?ProcessAIMsg@CAIMonster2@@AAEXHHKK@Z ; CAIMonster2::ProcessAIMsg
  00085	5f		 pop	 edi
$LN23@RouteMessa:
  00086	5e		 pop	 esi
$LN3@RouteMessa:
  00087	5b		 pop	 ebx

; 366  : 			break;
; 367  : 		}
; 368  : 	}
; 369  : }

  00088	8b e5		 mov	 esp, ebp
  0008a	5d		 pop	 ebp
  0008b	c3		 ret	 0
?RouteMessage@CAIMonster2@@UAEXXZ ENDP			; CAIMonster2::RouteMessage
_TEXT	ENDS
; Function compile flags: /Ogtp
; File C:\IAGOS\server\v18\Source\Source\_AIInterface\AIMonster2.cpp
;	COMDAT ??1CAIMonster2@@UAE@XZ
_TEXT	SEGMENT
??1CAIMonster2@@UAE@XZ PROC				; CAIMonster2::~CAIMonster2, COMDAT
; _this$ = ecx

; 214  : {

  00000	c7 01 00 00 00
	00		 mov	 DWORD PTR [ecx], OFFSET ??_7CAIMonster2@@6B@

; 215  : }

  00006	e9 00 00 00 00	 jmp	 ??1CAIInterface@@UAE@XZ	; CAIInterface::~CAIInterface
??1CAIMonster2@@UAE@XZ ENDP				; CAIMonster2::~CAIMonster2
_TEXT	ENDS
; Function compile flags: /Ogtp
; File C:\IAGOS\server\v18\Source\Source\_AIInterface\AIMonster2.cpp
;	COMDAT ??0CAIMonster2@@QAE@PAVCObj@@@Z
_TEXT	SEGMENT
_this$ = -4						; size = 4
_pObj$ = 8						; size = 4
??0CAIMonster2@@QAE@PAVCObj@@@Z PROC			; CAIMonster2::CAIMonster2, COMDAT
; _this$ = ecx

; 209  : {

  00000	55		 push	 ebp
  00001	8b ec		 mov	 ebp, esp
  00003	51		 push	 ecx
  00004	56		 push	 esi
  00005	ff 75 08	 push	 DWORD PTR _pObj$[ebp]
  00008	8b f1		 mov	 esi, ecx
  0000a	89 75 fc	 mov	 DWORD PTR _this$[ebp], esi
  0000d	e8 00 00 00 00	 call	 ??0CAIInterface@@QAE@PAVCObj@@@Z ; CAIInterface::CAIInterface

; 210  : 	Init();

  00012	8b ce		 mov	 ecx, esi
  00014	c7 06 00 00 00
	00		 mov	 DWORD PTR [esi], OFFSET ??_7CAIMonster2@@6B@
  0001a	e8 00 00 00 00	 call	 ?Init@CAIMonster2@@AAEXXZ ; CAIMonster2::Init

; 211  : }

  0001f	8b c6		 mov	 eax, esi
  00021	5e		 pop	 esi
  00022	8b e5		 mov	 esp, ebp
  00024	5d		 pop	 ebp
  00025	c2 04 00	 ret	 4
??0CAIMonster2@@QAE@PAVCObj@@@Z ENDP			; CAIMonster2::CAIMonster2
_TEXT	ENDS
; Function compile flags: /Ogtp
; File C:\IAGOS\server\v18\Source\Source\_AIInterface\AIMonster2.cpp
;	COMDAT ??0CAIMonster2@@QAE@XZ
_TEXT	SEGMENT
_this$ = -4						; size = 4
??0CAIMonster2@@QAE@XZ PROC				; CAIMonster2::CAIMonster2, COMDAT
; _this$ = ecx

; 204  : {

  00000	55		 push	 ebp
  00001	8b ec		 mov	 ebp, esp
  00003	51		 push	 ecx
  00004	56		 push	 esi
  00005	8b f1		 mov	 esi, ecx
  00007	89 75 fc	 mov	 DWORD PTR _this$[ebp], esi
  0000a	e8 00 00 00 00	 call	 ??0CAIInterface@@QAE@XZ	; CAIInterface::CAIInterface

; 205  : 	Init();

  0000f	8b ce		 mov	 ecx, esi
  00011	c7 06 00 00 00
	00		 mov	 DWORD PTR [esi], OFFSET ??_7CAIMonster2@@6B@
  00017	e8 00 00 00 00	 call	 ?Init@CAIMonster2@@AAEXXZ ; CAIMonster2::Init

; 206  : }

  0001c	8b c6		 mov	 eax, esi
  0001e	5e		 pop	 esi
  0001f	8b e5		 mov	 esp, ebp
  00021	5d		 pop	 ebp
  00022	c3		 ret	 0
??0CAIMonster2@@QAE@XZ ENDP				; CAIMonster2::CAIMonster2
_TEXT	ENDS
; Function compile flags: /Ogtp
; File C:\Program Files\Microsoft Visual Studio\2022\Professional\VC\Tools\MSVC\14.44.35207\include\xmemory
;	COMDAT ??$_Allocate_manually_vector_aligned@U_Default_allocate_traits@std@@@std@@YAPAXI@Z
_TEXT	SEGMENT
__Bytes$ = 8						; size = 4
??$_Allocate_manually_vector_aligned@U_Default_allocate_traits@std@@@std@@YAPAXI@Z PROC ; std::_Allocate_manually_vector_aligned<std::_Default_allocate_traits>, COMDAT

; 182  : __declspec(allocator) void* _Allocate_manually_vector_aligned(const size_t _Bytes) {

  00000	55		 push	 ebp
  00001	8b ec		 mov	 ebp, esp

; 183  :     // allocate _Bytes manually aligned to at least _Big_allocation_alignment
; 184  :     const size_t _Block_size = _Non_user_size + _Bytes;

  00003	8b 45 08	 mov	 eax, DWORD PTR __Bytes$[ebp]
  00006	8d 48 23	 lea	 ecx, DWORD PTR [eax+35]

; 185  :     if (_Block_size <= _Bytes) {

  00009	3b c8		 cmp	 ecx, eax
  0000b	0f 86 00 00 00
	00		 jbe	 ?_Throw_bad_array_new_length@std@@YAXXZ ; std::_Throw_bad_array_new_length

; 136  :         return ::operator new(_Bytes);

  00011	51		 push	 ecx
  00012	e8 00 00 00 00	 call	 ??2@YAPAXI@Z		; operator new

; 186  :         _Throw_bad_array_new_length(); // add overflow
; 187  :     }
; 188  : 
; 189  :     const uintptr_t _Ptr_container = reinterpret_cast<uintptr_t>(_Traits::_Allocate(_Block_size));

  00017	8b c8		 mov	 ecx, eax

; 136  :         return ::operator new(_Bytes);

  00019	83 c4 04	 add	 esp, 4

; 190  :     _STL_VERIFY(_Ptr_container != 0, "invalid argument"); // validate even in release since we're doing p[-1]

  0001c	85 c9		 test	 ecx, ecx
  0001e	74 0b		 je	 SHORT $LN9@Allocate_m

; 191  :     void* const _Ptr = reinterpret_cast<void*>((_Ptr_container + _Non_user_size) & ~(_Big_allocation_alignment - 1));

  00020	8d 41 23	 lea	 eax, DWORD PTR [ecx+35]
  00023	83 e0 e0	 and	 eax, -32		; ffffffe0H

; 192  :     static_cast<uintptr_t*>(_Ptr)[-1] = _Ptr_container;

  00026	89 48 fc	 mov	 DWORD PTR [eax-4], ecx

; 193  : 
; 194  : #ifdef _DEBUG
; 195  :     static_cast<uintptr_t*>(_Ptr)[-2] = _Big_allocation_sentinel;
; 196  : #endif // defined(_DEBUG)
; 197  :     return _Ptr;
; 198  : }

  00029	5d		 pop	 ebp
  0002a	c3		 ret	 0
$LN9@Allocate_m:

; 190  :     _STL_VERIFY(_Ptr_container != 0, "invalid argument"); // validate even in release since we're doing p[-1]

  0002b	6a 00		 push	 0
  0002d	6a 00		 push	 0
  0002f	6a 00		 push	 0
  00031	6a 00		 push	 0
  00033	6a 00		 push	 0
  00035	e8 00 00 00 00	 call	 __invoke_watson
$LN7@Allocate_m:
  0003a	cc		 int	 3
??$_Allocate_manually_vector_aligned@U_Default_allocate_traits@std@@@std@@YAPAXI@Z ENDP ; std::_Allocate_manually_vector_aligned<std::_Default_allocate_traits>
_TEXT	ENDS
; Function compile flags: /Ogtp
; File C:\Program Files\Microsoft Visual Studio\2022\Professional\VC\Tools\MSVC\14.44.35207\include\xstring
; File C:\Program Files\Microsoft Visual Studio\2022\Professional\VC\Tools\MSVC\14.44.35207\include\__msvc_string_view.hpp
; File C:\Program Files\Microsoft Visual Studio\2022\Professional\VC\Tools\MSVC\14.44.35207\include\xstring
; File C:\Program Files\Microsoft Visual Studio\2022\Professional\VC\Tools\MSVC\14.44.35207\include\__msvc_string_view.hpp
; File C:\Program Files\Microsoft Visual Studio\2022\Professional\VC\Tools\MSVC\14.44.35207\include\xstring
; File C:\Program Files\Microsoft Visual Studio\2022\Professional\VC\Tools\MSVC\14.44.35207\include\__msvc_string_view.hpp
; File C:\Program Files\Microsoft Visual Studio\2022\Professional\VC\Tools\MSVC\14.44.35207\include\xstring
;	COMDAT ??$?MDU?$char_traits@D@std@@V?$allocator@D@1@@std@@YA_NABV?$basic_string@DU?$char_traits@D@std@@V?$allocator@D@2@@0@0@Z
_TEXT	SEGMENT
__Left$ = 8						; size = 4
__Right$ = 12						; size = 4
??$?MDU?$char_traits@D@std@@V?$allocator@D@1@@std@@YA_NABV?$basic_string@DU?$char_traits@D@std@@V?$allocator@D@2@@0@0@Z PROC ; std::operator<<char,std::char_traits<char>,std::allocator<char> >, COMDAT

; 3307 :     const basic_string<_Elem, _Traits, _Alloc>& _Left, const basic_string<_Elem, _Traits, _Alloc>& _Right) noexcept {

  00000	55		 push	 ebp
  00001	8b ec		 mov	 ebp, esp

; 444  :         const value_type* _Result = _Bx._Buf;

  00003	8b 45 0c	 mov	 eax, DWORD PTR __Right$[ebp]
  00006	8b c8		 mov	 ecx, eax

; 453  :         return _Myres > _Small_string_capacity;

  00008	83 78 14 0f	 cmp	 DWORD PTR [eax+20], 15	; 0000000fH

; 445  :         if (_Large_mode_engaged()) {

  0000c	76 02		 jbe	 SHORT $LN8@operator

; 446  :             _Result = _Unfancy(_Bx._Ptr);

  0000e	8b 08		 mov	 ecx, DWORD PTR [eax]
$LN8@operator:
  00010	53		 push	 ebx
  00011	56		 push	 esi

; 444  :         const value_type* _Result = _Bx._Buf;

  00012	8b 75 08	 mov	 esi, DWORD PTR __Left$[ebp]
  00015	8b d6		 mov	 edx, esi
  00017	57		 push	 edi

; 453  :         return _Myres > _Small_string_capacity;

  00018	83 7e 14 0f	 cmp	 DWORD PTR [esi+20], 15	; 0000000fH

; 445  :         if (_Large_mode_engaged()) {

  0001c	76 02		 jbe	 SHORT $LN15@operator

; 446  :             _Result = _Unfancy(_Bx._Ptr);

  0001e	8b 16		 mov	 edx, DWORD PTR [esi]
$LN15@operator:

; 2890 :         return _Traits_compare<_Traits>(_Mypair._Myval2._Myptr(), _Mypair._Myval2._Mysize,

  00020	8b 5e 10	 mov	 ebx, DWORD PTR [esi+16]
  00023	8b f3		 mov	 esi, ebx
  00025	8b 78 10	 mov	 edi, DWORD PTR [eax+16]
  00028	3b fb		 cmp	 edi, ebx
  0002a	0f 42 f7	 cmovb	 esi, edi
; File C:\Program Files\Microsoft Visual Studio\2022\Professional\VC\Tools\MSVC\14.44.35207\include\__msvc_string_view.hpp

; 439  :         return _CSTD memcmp(_First1, _First2, _Count);

  0002d	83 ee 04	 sub	 esi, 4
  00030	72 11		 jb	 SHORT $LN35@operator
$LL36@operator:
  00032	8b 02		 mov	 eax, DWORD PTR [edx]
  00034	3b 01		 cmp	 eax, DWORD PTR [ecx]
  00036	75 10		 jne	 SHORT $LN34@operator
  00038	83 c2 04	 add	 edx, 4
  0003b	83 c1 04	 add	 ecx, 4
  0003e	83 ee 04	 sub	 esi, 4
  00041	73 ef		 jae	 SHORT $LL36@operator
$LN35@operator:
  00043	83 fe fc	 cmp	 esi, -4			; fffffffcH
  00046	74 34		 je	 SHORT $LN33@operator
$LN34@operator:
  00048	8a 02		 mov	 al, BYTE PTR [edx]
  0004a	3a 01		 cmp	 al, BYTE PTR [ecx]
  0004c	75 27		 jne	 SHORT $LN37@operator
  0004e	83 fe fd	 cmp	 esi, -3			; fffffffdH
  00051	74 29		 je	 SHORT $LN33@operator
  00053	8a 42 01	 mov	 al, BYTE PTR [edx+1]
  00056	3a 41 01	 cmp	 al, BYTE PTR [ecx+1]
  00059	75 1a		 jne	 SHORT $LN37@operator
  0005b	83 fe fe	 cmp	 esi, -2			; fffffffeH
  0005e	74 1c		 je	 SHORT $LN33@operator
  00060	8a 42 02	 mov	 al, BYTE PTR [edx+2]
  00063	3a 41 02	 cmp	 al, BYTE PTR [ecx+2]
  00066	75 0d		 jne	 SHORT $LN37@operator
  00068	83 fe ff	 cmp	 esi, -1
  0006b	74 0f		 je	 SHORT $LN33@operator
  0006d	8a 42 03	 mov	 al, BYTE PTR [edx+3]
  00070	3a 41 03	 cmp	 al, BYTE PTR [ecx+3]
  00073	74 07		 je	 SHORT $LN33@operator
$LN37@operator:
  00075	1b c0		 sbb	 eax, eax
  00077	83 c8 01	 or	 eax, 1
  0007a	eb 02		 jmp	 SHORT $LN38@operator
$LN33@operator:
  0007c	33 c0		 xor	 eax, eax
$LN38@operator:

; 621  :     if (_Ans != 0) {

  0007e	85 c0		 test	 eax, eax
  00080	75 13		 jne	 SHORT $LN24@operator

; 622  :         return _Ans;
; 623  :     }
; 624  : 
; 625  :     if (_Left_size < _Right_size) {

  00082	3b fb		 cmp	 edi, ebx
  00084	76 0b		 jbe	 SHORT $LN51@operator
; File C:\Program Files\Microsoft Visual Studio\2022\Professional\VC\Tools\MSVC\14.44.35207\include\xstring

; 3308 :     return _Left.compare(_Right) < 0;

  00086	5f		 pop	 edi
; File C:\Program Files\Microsoft Visual Studio\2022\Professional\VC\Tools\MSVC\14.44.35207\include\__msvc_string_view.hpp

; 626  :         return -1;

  00087	83 c8 ff	 or	 eax, -1
; File C:\Program Files\Microsoft Visual Studio\2022\Professional\VC\Tools\MSVC\14.44.35207\include\xstring

; 3308 :     return _Left.compare(_Right) < 0;

  0008a	5e		 pop	 esi
  0008b	c1 e8 1f	 shr	 eax, 31			; 0000001fH
  0008e	5b		 pop	 ebx

; 3309 : }

  0008f	5d		 pop	 ebp
  00090	c3		 ret	 0
$LN51@operator:
; File C:\Program Files\Microsoft Visual Studio\2022\Professional\VC\Tools\MSVC\14.44.35207\include\__msvc_string_view.hpp

; 629  :     if (_Left_size > _Right_size) {

  00091	1b c0		 sbb	 eax, eax
  00093	f7 d8		 neg	 eax
$LN24@operator:
; File C:\Program Files\Microsoft Visual Studio\2022\Professional\VC\Tools\MSVC\14.44.35207\include\xstring

; 3308 :     return _Left.compare(_Right) < 0;

  00095	5f		 pop	 edi
  00096	5e		 pop	 esi
  00097	c1 e8 1f	 shr	 eax, 31			; 0000001fH
  0009a	5b		 pop	 ebx

; 3309 : }

  0009b	5d		 pop	 ebp
  0009c	c3		 ret	 0
??$?MDU?$char_traits@D@std@@V?$allocator@D@1@@std@@YA_NABV?$basic_string@DU?$char_traits@D@std@@V?$allocator@D@2@@0@0@Z ENDP ; std::operator<<char,std::char_traits<char>,std::allocator<char> >
_TEXT	ENDS
; Function compile flags: /Ogtp
; File C:\IAGOS\server\v18\Source\Source\_AIInterface\AIInterface.h
;	COMDAT ?IsReturnToBegin@CAIInterface@@UAEHXZ
_TEXT	SEGMENT
?IsReturnToBegin@CAIInterface@@UAEHXZ PROC		; CAIInterface::IsReturnToBegin, COMDAT
; _this$ = ecx

; 121  : 	virtual		BOOL	IsReturnToBegin( void )		{	return FALSE;	}

  00000	33 c0		 xor	 eax, eax
  00002	c3		 ret	 0
?IsReturnToBegin@CAIInterface@@UAEHXZ ENDP		; CAIInterface::IsReturnToBegin
_TEXT	ENDS
; Function compile flags: /Ogtp
; File C:\IAGOS\server\v18\Source\Source\_Common\Project.h
; File C:\IAGOS\server\v18\Source\Source\_Common\data.h
; File C:\IAGOS\server\v18\Source\Source\_Common\Project.h
;	COMDAT ?GetText@CProject@@QAEPBDK@Z
_TEXT	SEGMENT
_dwIndex$ = 8						; size = 4
?GetText@CProject@@QAEPBDK@Z PROC			; CProject::GetText, COMDAT
; _this$ = ecx

; 1426 : { 

  00000	55		 push	 ebp
  00001	8b ec		 mov	 ebp, esp

; 1427 : 	VERIFY_RANGE( (int)( dwIndex ), 0, m_colorText.GetSize(), "GetText range_error", "error" );

  00003	8b 55 08	 mov	 edx, DWORD PTR _dwIndex$[ebp]
  00006	56		 push	 esi
  00007	85 d2		 test	 edx, edx
  00009	78 29		 js	 SHORT $LN19@GetText
  0000b	3b 91 ac 02 00
	00		 cmp	 edx, DWORD PTR [ecx+684]
  00011	7d 21		 jge	 SHORT $LN19@GetText
; File C:\IAGOS\server\v18\Source\Source\_Common\data.h

; 270  : 	if( dwIndex >= (DWORD)m_nMaxIndex )

  00013	73 15		 jae	 SHORT $LN18@GetText

; 271  : 		return NULL;
; 272  : 	return (T*) m_apOffset[ dwIndex ];

  00015	8b 81 9c 02 00
	00		 mov	 eax, DWORD PTR [ecx+668]
  0001b	8b 04 90	 mov	 eax, DWORD PTR [eax+edx*4]
; File C:\IAGOS\server\v18\Source\Source\_Common\Project.h

; 1428 : 	if( m_colorText.GetAt( dwIndex ) == NULL )

  0001e	85 c0		 test	 eax, eax
  00020	74 08		 je	 SHORT $LN18@GetText

; 1430 : 	return m_colorText.GetAt( dwIndex )->lpszData; 

  00022	8b 40 04	 mov	 eax, DWORD PTR [eax+4]
  00025	5e		 pop	 esi

; 1431 : }

  00026	5d		 pop	 ebp
  00027	c2 04 00	 ret	 4
$LN18@GetText:

; 1429 : 		return "";

  0002a	b8 00 00 00 00	 mov	 eax, OFFSET ??_C@_00CNPNBAHC@@
  0002f	5e		 pop	 esi

; 1431 : }

  00030	5d		 pop	 ebp
  00031	c2 04 00	 ret	 4
$LN19@GetText:

; 579  : 	LPCTSTR szErr = Error( _T( "%s min:%d, max:%d, index:%d" ), szMsg, nMin, nMax, nIndex ); 

  00034	52		 push	 edx
  00035	ff b1 ac 02 00
	00		 push	 DWORD PTR [ecx+684]
  0003b	6a 00		 push	 0
  0003d	68 00 00 00 00	 push	 OFFSET ??_C@_0BE@OHDBLHOM@GetText?5range_error@
  00042	68 00 00 00 00	 push	 OFFSET ??_C@_0BM@HMFGHCP@?$CFs?5min?3?$CFd?0?5max?3?$CFd?0?5index?3?$CFd@
  00047	e8 00 00 00 00	 call	 ?Error@@YAPBDPBDZZ	; Error
  0004c	83 c4 14	 add	 esp, 20			; 00000014H

; 1427 : 	VERIFY_RANGE( (int)( dwIndex ), 0, m_colorText.GetSize(), "GetText range_error", "error" );

  0004f	b8 00 00 00 00	 mov	 eax, OFFSET ??_C@_05KKCIMGE@error@
  00054	5e		 pop	 esi

; 1431 : }

  00055	5d		 pop	 ebp
  00056	c2 04 00	 ret	 4
?GetText@CProject@@QAEPBDK@Z ENDP			; CProject::GetText
_TEXT	ENDS
; Function compile flags: /Ogtp
; File C:\IAGOS\server\v18\Source\Source\DX_SDK\d3dx9math.h
;	COMDAT ??0D3DXVECTOR3@@QAE@XZ
_TEXT	SEGMENT
??0D3DXVECTOR3@@QAE@XZ PROC				; D3DXVECTOR3::D3DXVECTOR3, COMDAT
; _this$ = ecx

; 165  :     D3DXVECTOR3() {};

  00000	8b c1		 mov	 eax, ecx
  00002	c3		 ret	 0
??0D3DXVECTOR3@@QAE@XZ ENDP				; D3DXVECTOR3::D3DXVECTOR3
_TEXT	ENDS
; Function compile flags: /Ogtp
; File C:\Program Files\Microsoft Visual Studio\2022\Professional\VC\Tools\MSVC\14.44.35207\include\xtree
;	COMDAT ?_Throw_tree_length_error@std@@YAXXZ
_TEXT	SEGMENT
?_Throw_tree_length_error@std@@YAXXZ PROC		; std::_Throw_tree_length_error, COMDAT

; 417  :     _Xlength_error("map/set too long");

  00000	68 00 00 00 00	 push	 OFFSET ??_C@_0BB@GCADKGJO@map?1set?5too?5long@
  00005	e8 00 00 00 00	 call	 ?_Xlength_error@std@@YAXPBD@Z ; std::_Xlength_error
$LN3@Throw_tree:
  0000a	cc		 int	 3
?_Throw_tree_length_error@std@@YAXXZ ENDP		; std::_Throw_tree_length_error
_TEXT	ENDS
; Function compile flags: /Ogtp
; File C:\Program Files\Microsoft Visual Studio\2022\Professional\VC\Tools\MSVC\14.44.35207\include\xstring
; File C:\Program Files\Microsoft Visual Studio\2022\Professional\VC\Tools\MSVC\14.44.35207\include\xmemory
; File C:\Program Files\Microsoft Visual Studio\2022\Professional\VC\Tools\MSVC\14.44.35207\include\xstring
; File C:\Program Files\Microsoft Visual Studio\2022\Professional\VC\Tools\MSVC\14.44.35207\include\xmemory
; File C:\Program Files\Microsoft Visual Studio\2022\Professional\VC\Tools\MSVC\14.44.35207\include\xstring
; File C:\Program Files\Microsoft Visual Studio\2022\Professional\VC\Tools\MSVC\14.44.35207\include\xmemory
; File C:\Program Files\Microsoft Visual Studio\2022\Professional\VC\Tools\MSVC\14.44.35207\include\xstring
;	COMDAT ??1?$basic_string@DU?$char_traits@D@std@@V?$allocator@D@2@@std@@QAE@XZ
_TEXT	SEGMENT
??1?$basic_string@DU?$char_traits@D@std@@V?$allocator@D@2@@std@@QAE@XZ PROC ; std::basic_string<char,std::char_traits<char>,std::allocator<char> >::~basic_string<char,std::char_traits<char>,std::allocator<char> >, COMDAT
; _this$ = ecx

; 1382 :     _CONSTEXPR20 ~basic_string() noexcept {

  00000	56		 push	 esi
  00001	8b f1		 mov	 esi, ecx

; 453  :         return _Myres > _Small_string_capacity;

  00003	8b 4e 14	 mov	 ecx, DWORD PTR [esi+20]
  00006	83 f9 0f	 cmp	 ecx, 15			; 0000000fH

; 3083 :         if (_My_data._Large_mode_engaged()) {

  00009	76 27		 jbe	 SHORT $LN19@basic_stri
; File C:\Program Files\Microsoft Visual Studio\2022\Professional\VC\Tools\MSVC\14.44.35207\include\xmemory

; 985  :         _STD _Deallocate<_New_alignof<_Ty>>(_Ptr, sizeof(_Ty) * _Count);

  0000b	8b 06		 mov	 eax, DWORD PTR [esi]
; File C:\Program Files\Microsoft Visual Studio\2022\Professional\VC\Tools\MSVC\14.44.35207\include\xstring

; 852  :         _Al.deallocate(_Old_ptr, _Capacity + 1); // +1 for null terminator

  0000d	41		 inc	 ecx
; File C:\Program Files\Microsoft Visual Studio\2022\Professional\VC\Tools\MSVC\14.44.35207\include\xmemory

; 284  :         if (_Bytes >= _Big_allocation_threshold) {

  0000e	81 f9 00 10 00
	00		 cmp	 ecx, 4096		; 00001000H
  00014	72 12		 jb	 SHORT $LN24@basic_stri

; 205  :     const uintptr_t _Ptr_container   = _Ptr_user[-1];

  00016	8b 50 fc	 mov	 edx, DWORD PTR [eax-4]
  00019	83 c1 23	 add	 ecx, 35			; 00000023H

; 206  : 
; 207  :     // If the following asserts, it likely means that we are performing
; 208  :     // an aligned delete on memory coming from an unaligned allocation.
; 209  :     _STL_ASSERT(_Ptr_user[-2] == _Big_allocation_sentinel, "invalid argument");
; 210  : 
; 211  :     // Extra paranoia on aligned allocation/deallocation; ensure _Ptr_container is
; 212  :     // in range [_Min_back_shift, _Non_user_size]
; 213  : #ifdef _DEBUG
; 214  :     constexpr uintptr_t _Min_back_shift = 2 * sizeof(void*);
; 215  : #else // ^^^ defined(_DEBUG) / !defined(_DEBUG) vvv
; 216  :     constexpr uintptr_t _Min_back_shift = sizeof(void*);
; 217  : #endif // ^^^ !defined(_DEBUG) ^^^
; 218  :     const uintptr_t _Back_shift = reinterpret_cast<uintptr_t>(_Ptr) - _Ptr_container;

  0001c	2b c2		 sub	 eax, edx

; 219  :     _STL_VERIFY(_Back_shift >= _Min_back_shift && _Back_shift <= _Non_user_size, "invalid argument");

  0001e	83 c0 fc	 add	 eax, -4			; fffffffcH
  00021	83 f8 1f	 cmp	 eax, 31			; 0000001fH
  00024	77 1f		 ja	 SHORT $LN23@basic_stri

; 220  :     _Ptr = reinterpret_cast<void*>(_Ptr_container);

  00026	8b c2		 mov	 eax, edx
$LN24@basic_stri:

; 289  :         ::operator delete(_Ptr, _Bytes);

  00028	51		 push	 ecx
  00029	50		 push	 eax
  0002a	e8 00 00 00 00	 call	 ??3@YAXPAXI@Z		; operator delete
  0002f	83 c4 08	 add	 esp, 8
$LN19@basic_stri:
; File C:\Program Files\Microsoft Visual Studio\2022\Professional\VC\Tools\MSVC\14.44.35207\include\xstring

; 3090 :         _My_data._Mysize = 0;

  00032	c7 46 10 00 00
	00 00		 mov	 DWORD PTR [esi+16], 0

; 3091 :         _My_data._Myres  = _Small_string_capacity;

  00039	c7 46 14 0f 00
	00 00		 mov	 DWORD PTR [esi+20], 15	; 0000000fH

; 3092 :         // the _Traits::assign is last so the codegen doesn't think the char write can alias this
; 3093 :         _Traits::assign(_My_data._Bx._Buf[0], _Elem());

  00040	c6 06 00	 mov	 BYTE PTR [esi], 0
  00043	5e		 pop	 esi

; 1390 :     }

  00044	c3		 ret	 0
$LN23@basic_stri:
; File C:\Program Files\Microsoft Visual Studio\2022\Professional\VC\Tools\MSVC\14.44.35207\include\xmemory

; 219  :     _STL_VERIFY(_Back_shift >= _Min_back_shift && _Back_shift <= _Non_user_size, "invalid argument");

  00045	6a 00		 push	 0
  00047	6a 00		 push	 0
  00049	6a 00		 push	 0
  0004b	6a 00		 push	 0
  0004d	6a 00		 push	 0
  0004f	e8 00 00 00 00	 call	 __invoke_watson
$LN33@basic_stri:
  00054	cc		 int	 3
??1?$basic_string@DU?$char_traits@D@std@@V?$allocator@D@2@@std@@QAE@XZ ENDP ; std::basic_string<char,std::char_traits<char>,std::allocator<char> >::~basic_string<char,std::char_traits<char>,std::allocator<char> >
_TEXT	ENDS
; Function compile flags: /Ogtp
; File C:\Program Files\Microsoft Visual Studio\2022\Professional\VC\Tools\MSVC\14.44.35207\include\xstring
; File C:\Program Files\Microsoft Visual Studio\2022\Professional\VC\Tools\MSVC\14.44.35207\include\__msvc_string_view.hpp
; File C:\Program Files\Microsoft Visual Studio\2022\Professional\VC\Tools\MSVC\14.44.35207\include\xstring
; File C:\Program Files\Microsoft Visual Studio\2022\Professional\VC\Tools\MSVC\14.44.35207\include\__msvc_string_view.hpp
; File C:\Program Files\Microsoft Visual Studio\2022\Professional\VC\Tools\MSVC\14.44.35207\include\xstring
; File C:\Program Files\Microsoft Visual Studio\2022\Professional\VC\Tools\MSVC\14.44.35207\include\__msvc_string_view.hpp
; File C:\Program Files\Microsoft Visual Studio\2022\Professional\VC\Tools\MSVC\14.44.35207\include\xstring
; File C:\Program Files\Microsoft Visual Studio\2022\Professional\VC\Tools\MSVC\14.44.35207\include\__msvc_string_view.hpp
; File C:\Program Files\Microsoft Visual Studio\2022\Professional\VC\Tools\MSVC\14.44.35207\include\xstring
; File C:\Program Files\Microsoft Visual Studio\2022\Professional\VC\Tools\MSVC\14.44.35207\include\xmemory
; File C:\Program Files\Microsoft Visual Studio\2022\Professional\VC\Tools\MSVC\14.44.35207\include\xstring
; File C:\Program Files\Microsoft Visual Studio\2022\Professional\VC\Tools\MSVC\14.44.35207\include\xmemory
; File C:\Program Files\Microsoft Visual Studio\2022\Professional\VC\Tools\MSVC\14.44.35207\include\xstring
; File C:\Program Files\Microsoft Visual Studio\2022\Professional\VC\Tools\MSVC\14.44.35207\include\__msvc_string_view.hpp
; File C:\Program Files\Microsoft Visual Studio\2022\Professional\VC\Tools\MSVC\14.44.35207\include\xstring
; File C:\Program Files\Microsoft Visual Studio\2022\Professional\VC\Tools\MSVC\14.44.35207\include\__msvc_string_view.hpp
; File C:\Program Files\Microsoft Visual Studio\2022\Professional\VC\Tools\MSVC\14.44.35207\include\xstring
; File C:\Program Files\Microsoft Visual Studio\2022\Professional\VC\Tools\MSVC\14.44.35207\include\__msvc_string_view.hpp
; File C:\Program Files\Microsoft Visual Studio\2022\Professional\VC\Tools\MSVC\14.44.35207\include\xstring
;	COMDAT ??0?$basic_string@DU?$char_traits@D@std@@V?$allocator@D@2@@std@@QAE@QBD@Z
_TEXT	SEGMENT
$T1 = -4						; size = 4
__Ptr$ = 8						; size = 4
??0?$basic_string@DU?$char_traits@D@std@@V?$allocator@D@2@@std@@QAE@QBD@Z PROC ; std::basic_string<char,std::char_traits<char>,std::allocator<char> >::basic_string<char,std::char_traits<char>,std::allocator<char> >, COMDAT
; _this$ = ecx

; 768  :     _CONSTEXPR20 basic_string(_In_z_ const _Elem* const _Ptr) : _Mypair(_Zero_then_variadic_args_t{}) {

  00000	55		 push	 ebp
  00001	8b ec		 mov	 ebp, esp
  00003	51		 push	 ecx
  00004	53		 push	 ebx
  00005	56		 push	 esi
  00006	8b d9		 mov	 ebx, ecx
  00008	0f 57 c0	 xorps	 xmm0, xmm0
  0000b	57		 push	 edi
; File C:\Program Files\Microsoft Visual Studio\2022\Professional\VC\Tools\MSVC\14.44.35207\include\__msvc_string_view.hpp

; 459  :         return _CSTD strlen(reinterpret_cast<const char*>(_First));

  0000c	8b 7d 08	 mov	 edi, DWORD PTR __Ptr$[ebp]
  0000f	8b f7		 mov	 esi, edi
; File C:\Program Files\Microsoft Visual Studio\2022\Professional\VC\Tools\MSVC\14.44.35207\include\xstring

; 493  :         _CONSTEXPR20 _Bxty() noexcept : _Buf() {} // user-provided, for fancy pointers

  00011	0f 11 03	 movups	 XMMWORD PTR [ebx], xmm0

; 517  :     size_type _Mysize = 0; // current length of string (size)

  00014	c7 43 10 00 00
	00 00		 mov	 DWORD PTR [ebx+16], 0

; 518  :     size_type _Myres  = 0; // current storage reserved for string (capacity)

  0001b	c7 43 14 00 00
	00 00		 mov	 DWORD PTR [ebx+20], 0
; File C:\Program Files\Microsoft Visual Studio\2022\Professional\VC\Tools\MSVC\14.44.35207\include\__msvc_string_view.hpp

; 459  :         return _CSTD strlen(reinterpret_cast<const char*>(_First));

  00022	8d 4e 01	 lea	 ecx, DWORD PTR [esi+1]
$LL51@basic_stri:
  00025	8a 06		 mov	 al, BYTE PTR [esi]
  00027	46		 inc	 esi
  00028	84 c0		 test	 al, al
  0002a	75 f9		 jne	 SHORT $LL51@basic_stri
  0002c	2b f1		 sub	 esi, ecx
; File C:\Program Files\Microsoft Visual Studio\2022\Professional\VC\Tools\MSVC\14.44.35207\include\xstring

; 881  :         if (_Count > max_size()) {

  0002e	81 fe ff ff ff
	7f		 cmp	 esi, 2147483647		; 7fffffffH
  00034	0f 87 9b 00 00
	00		 ja	 $LN62@basic_stri

; 883  :         }
; 884  : 
; 885  :         auto& _Al       = _Getal();
; 886  :         auto&& _Alproxy = _GET_PROXY_ALLOCATOR(_Alty, _Al);
; 887  :         _Container_proxy_ptr<_Alty> _Proxy(_Alproxy, _My_data);
; 888  : 
; 889  :         if (_Count <= _Small_string_capacity) {

  0003a	83 fe 0f	 cmp	 esi, 15			; 0000000fH
  0003d	77 24		 ja	 SHORT $LN21@basic_stri
; File C:\Program Files\Microsoft Visual Studio\2022\Professional\VC\Tools\MSVC\14.44.35207\include\__msvc_string_view.hpp

; 121  :         _CSTD memcpy(_First1, _First2, _Count * sizeof(_Elem));

  0003f	56		 push	 esi
  00040	57		 push	 edi
  00041	53		 push	 ebx
; File C:\Program Files\Microsoft Visual Studio\2022\Professional\VC\Tools\MSVC\14.44.35207\include\xstring

; 890  :             _My_data._Mysize = _Count;

  00042	89 73 10	 mov	 DWORD PTR [ebx+16], esi

; 891  :             _My_data._Myres  = _Small_string_capacity;

  00045	c7 43 14 0f 00
	00 00		 mov	 DWORD PTR [ebx+20], 15	; 0000000fH
; File C:\Program Files\Microsoft Visual Studio\2022\Professional\VC\Tools\MSVC\14.44.35207\include\__msvc_string_view.hpp

; 121  :         _CSTD memcpy(_First1, _First2, _Count * sizeof(_Elem));

  0004c	e8 00 00 00 00	 call	 _memcpy
; File C:\Program Files\Microsoft Visual Studio\2022\Professional\VC\Tools\MSVC\14.44.35207\include\xstring

; 898  :                 _Traits::assign(_My_data._Bx._Buf[_Count], _Elem());

  00051	c6 04 1e 00	 mov	 BYTE PTR [esi+ebx], 0

; 769  :         _Construct<_Construct_strategy::_From_ptr>(_Ptr, _Convert_size<size_type>(_Traits::length(_Ptr)));
; 770  :     }

  00055	83 c4 0c	 add	 esp, 12			; 0000000cH
  00058	8b c3		 mov	 eax, ebx
  0005a	5f		 pop	 edi
  0005b	5e		 pop	 esi
  0005c	5b		 pop	 ebx
  0005d	8b e5		 mov	 esp, ebp
  0005f	5d		 pop	 ebp
  00060	c2 04 00	 ret	 4
$LN21@basic_stri:

; 2978 :         const size_type _Masked = _Requested | _Alloc_mask;

  00063	8b fe		 mov	 edi, esi
  00065	83 cf 0f	 or	 edi, 15			; 0000000fH
  00068	81 ff ff ff ff
	7f		 cmp	 edi, 2147483647		; 7fffffffH

; 2979 :         if (_Masked > _Max) { // the mask overflows, settle for max_size()

  0006e	76 12		 jbe	 SHORT $LN27@basic_stri

; 2980 :             return _Max;

  00070	b8 00 00 00 80	 mov	 eax, -2147483648	; 80000000H
  00075	bf ff ff ff 7f	 mov	 edi, 2147483647		; 7fffffffH
; File C:\Program Files\Microsoft Visual Studio\2022\Professional\VC\Tools\MSVC\14.44.35207\include\xmemory

; 253  :             return _Allocate_manually_vector_aligned<_Traits>(_Bytes);

  0007a	50		 push	 eax
  0007b	e8 00 00 00 00	 call	 ??$_Allocate_manually_vector_aligned@U_Default_allocate_traits@std@@@std@@YAPAXI@Z ; std::_Allocate_manually_vector_aligned<std::_Default_allocate_traits>
  00080	eb 26		 jmp	 SHORT $LN60@basic_stri
$LN27@basic_stri:
; File C:\Program Files\Microsoft Visual Studio\2022\Professional\VC\Tools\MSVC\14.44.35207\include\xstring

; 2987 :         return (_STD max)(_Masked, _Old + _Old / 2);

  00082	b8 16 00 00 00	 mov	 eax, 22			; 00000016H
  00087	3b f8		 cmp	 edi, eax
  00089	0f 42 f8	 cmovb	 edi, eax

; 825  :         ++_Capacity; // Take null terminator into consideration

  0008c	8d 47 01	 lea	 eax, DWORD PTR [edi+1]
; File C:\Program Files\Microsoft Visual Studio\2022\Professional\VC\Tools\MSVC\14.44.35207\include\xmemory

; 227  :     if (_Bytes == 0) {

  0008f	85 c0		 test	 eax, eax
  00091	74 18		 je	 SHORT $LN59@basic_stri
$LN41@basic_stri:

; 228  :         return nullptr;
; 229  :     }
; 230  : 
; 231  : #if _HAS_CXX20 // TRANSITION, GH-1532
; 232  :     if (_STD is_constant_evaluated()) {
; 233  :         return _Traits::_Allocate(_Bytes);
; 234  :     }
; 235  : #endif // _HAS_CXX20
; 236  : 
; 237  : #ifdef __cpp_aligned_new
; 238  :     if constexpr (_Align > __STDCPP_DEFAULT_NEW_ALIGNMENT__) {
; 239  :         size_t _Passed_align = _Align;
; 240  : #if defined(_M_IX86) || defined(_M_X64)
; 241  :         if (_Bytes >= _Big_allocation_threshold) {
; 242  :             // boost the alignment of big allocations to help autovectorization
; 243  :             _Passed_align = (_STD max)(_Align, _Big_allocation_alignment);
; 244  :         }
; 245  : #endif // defined(_M_IX86) || defined(_M_X64)
; 246  :         return _Traits::_Allocate_aligned(_Bytes, _Passed_align);
; 247  :     } else
; 248  : #endif // defined(__cpp_aligned_new)
; 249  :     {
; 250  : #if defined(_M_IX86) || defined(_M_X64)
; 251  :         if (_Bytes >= _Big_allocation_threshold) {

  00093	3d 00 10 00 00	 cmp	 eax, 4096		; 00001000H
  00098	72 08		 jb	 SHORT $LN42@basic_stri

; 253  :             return _Allocate_manually_vector_aligned<_Traits>(_Bytes);

  0009a	50		 push	 eax
  0009b	e8 00 00 00 00	 call	 ??$_Allocate_manually_vector_aligned@U_Default_allocate_traits@std@@@std@@YAPAXI@Z ; std::_Allocate_manually_vector_aligned<std::_Default_allocate_traits>
  000a0	eb 06		 jmp	 SHORT $LN60@basic_stri
$LN42@basic_stri:

; 136  :         return ::operator new(_Bytes);

  000a2	50		 push	 eax
  000a3	e8 00 00 00 00	 call	 ??2@YAPAXI@Z		; operator new
$LN60@basic_stri:
; File C:\Program Files\Microsoft Visual Studio\2022\Professional\VC\Tools\MSVC\14.44.35207\include\xstring

; 913  :         _Construct_in_place(_My_data._Bx._Ptr, _New_ptr);

  000a8	83 c4 04	 add	 esp, 4
$LN59@basic_stri:
; File C:\Program Files\Microsoft Visual Studio\2022\Professional\VC\Tools\MSVC\14.44.35207\include\__msvc_string_view.hpp

; 121  :         _CSTD memcpy(_First1, _First2, _Count * sizeof(_Elem));

  000ab	56		 push	 esi
  000ac	ff 75 08	 push	 DWORD PTR __Ptr$[ebp]
; File C:\Program Files\Microsoft Visual Studio\2022\Professional\VC\Tools\MSVC\14.44.35207\include\xstring

; 913  :         _Construct_in_place(_My_data._Bx._Ptr, _New_ptr);

  000af	89 45 fc	 mov	 DWORD PTR $T1[ebp], eax
; File C:\Program Files\Microsoft Visual Studio\2022\Professional\VC\Tools\MSVC\14.44.35207\include\__msvc_string_view.hpp

; 121  :         _CSTD memcpy(_First1, _First2, _Count * sizeof(_Elem));

  000b2	50		 push	 eax
; File C:\Program Files\Microsoft Visual Studio\2022\Professional\VC\Tools\MSVC\14.44.35207\include\xstring

; 913  :         _Construct_in_place(_My_data._Bx._Ptr, _New_ptr);

  000b3	89 03		 mov	 DWORD PTR [ebx], eax

; 914  : 
; 915  :         _My_data._Mysize = _Count;

  000b5	89 73 10	 mov	 DWORD PTR [ebx+16], esi

; 916  :         _My_data._Myres  = _New_capacity;

  000b8	89 7b 14	 mov	 DWORD PTR [ebx+20], edi
; File C:\Program Files\Microsoft Visual Studio\2022\Professional\VC\Tools\MSVC\14.44.35207\include\__msvc_string_view.hpp

; 121  :         _CSTD memcpy(_First1, _First2, _Count * sizeof(_Elem));

  000bb	e8 00 00 00 00	 call	 _memcpy
; File C:\Program Files\Microsoft Visual Studio\2022\Professional\VC\Tools\MSVC\14.44.35207\include\xstring

; 922  :             _Traits::assign(_Unfancy(_New_ptr)[_Count], _Elem());

  000c0	8b 45 fc	 mov	 eax, DWORD PTR $T1[ebp]

; 769  :         _Construct<_Construct_strategy::_From_ptr>(_Ptr, _Convert_size<size_type>(_Traits::length(_Ptr)));
; 770  :     }

  000c3	83 c4 0c	 add	 esp, 12			; 0000000cH
  000c6	5f		 pop	 edi

; 922  :             _Traits::assign(_Unfancy(_New_ptr)[_Count], _Elem());

  000c7	c6 04 30 00	 mov	 BYTE PTR [eax+esi], 0

; 769  :         _Construct<_Construct_strategy::_From_ptr>(_Ptr, _Convert_size<size_type>(_Traits::length(_Ptr)));
; 770  :     }

  000cb	8b c3		 mov	 eax, ebx
  000cd	5e		 pop	 esi
  000ce	5b		 pop	 ebx
  000cf	8b e5		 mov	 esp, ebp
  000d1	5d		 pop	 ebp
  000d2	c2 04 00	 ret	 4
$LN62@basic_stri:

; 882  :             _Xlen_string(); // result too long

  000d5	e8 00 00 00 00	 call	 ?_Xlen_string@std@@YAXXZ ; std::_Xlen_string
$LN57@basic_stri:
  000da	cc		 int	 3
??0?$basic_string@DU?$char_traits@D@std@@V?$allocator@D@2@@std@@QAE@QBD@Z ENDP ; std::basic_string<char,std::char_traits<char>,std::allocator<char> >::basic_string<char,std::char_traits<char>,std::allocator<char> >
_TEXT	ENDS
; Function compile flags: /Ogtp
; File C:\Program Files\Microsoft Visual Studio\2022\Professional\VC\Tools\MSVC\14.44.35207\include\xstring
;	COMDAT ?_Xlen_string@std@@YAXXZ
_TEXT	SEGMENT
?_Xlen_string@std@@YAXXZ PROC				; std::_Xlen_string, COMDAT

; 531  :     _Xlength_error("string too long");

  00000	68 00 00 00 00	 push	 OFFSET ??_C@_0BA@JFNIOLAK@string?5too?5long@
  00005	e8 00 00 00 00	 call	 ?_Xlength_error@std@@YAXPBD@Z ; std::_Xlength_error
$LN3@Xlen_strin:
  0000a	cc		 int	 3
?_Xlen_string@std@@YAXXZ ENDP				; std::_Xlen_string
_TEXT	ENDS
; Function compile flags: /Ogtp
; File C:\Program Files\Microsoft Visual Studio\2022\Professional\VC\Tools\MSVC\14.44.35207\include\xmemory
;	COMDAT ?_Throw_bad_array_new_length@std@@YAXXZ
_TEXT	SEGMENT
$T1 = -12						; size = 12
?_Throw_bad_array_new_length@std@@YAXXZ PROC		; std::_Throw_bad_array_new_length, COMDAT

; 107  : [[noreturn]] inline void _Throw_bad_array_new_length() {

  00000	55		 push	 ebp
  00001	8b ec		 mov	 ebp, esp
  00003	83 ec 0c	 sub	 esp, 12			; 0000000cH

; 108  :     _THROW(bad_array_new_length{});

  00006	8d 4d f4	 lea	 ecx, DWORD PTR $T1[ebp]
  00009	e8 00 00 00 00	 call	 ??0bad_array_new_length@std@@QAE@XZ ; std::bad_array_new_length::bad_array_new_length
  0000e	68 00 00 00 00	 push	 OFFSET __TI3?AVbad_array_new_length@std@@
  00013	8d 45 f4	 lea	 eax, DWORD PTR $T1[ebp]
  00016	50		 push	 eax
  00017	e8 00 00 00 00	 call	 __CxxThrowException@8
$LN3@Throw_bad_:
  0001c	cc		 int	 3
?_Throw_bad_array_new_length@std@@YAXXZ ENDP		; std::_Throw_bad_array_new_length
_TEXT	ENDS
; Function compile flags: /Ogtp
; File C:\Program Files\Microsoft Visual Studio\2022\Professional\VC\Tools\MSVC\14.44.35207\include\vcruntime_exception.h
;	COMDAT ??_Gbad_array_new_length@std@@UAEPAXI@Z
_TEXT	SEGMENT
___flags$ = 8						; size = 4
??_Gbad_array_new_length@std@@UAEPAXI@Z PROC		; std::bad_array_new_length::`scalar deleting destructor', COMDAT
; _this$ = ecx
  00000	55		 push	 ebp
  00001	8b ec		 mov	 ebp, esp

; 90   :     {

  00003	56		 push	 esi
  00004	8b f1		 mov	 esi, ecx

; 91   :         __std_exception_destroy(&_Data);

  00006	8d 46 04	 lea	 eax, DWORD PTR [esi+4]
  00009	c7 06 00 00 00
	00		 mov	 DWORD PTR [esi], OFFSET ??_7exception@std@@6B@
  0000f	50		 push	 eax
  00010	e8 00 00 00 00	 call	 ___std_exception_destroy
  00015	83 c4 04	 add	 esp, 4
  00018	f6 45 08 01	 test	 BYTE PTR ___flags$[ebp], 1
  0001c	74 0b		 je	 SHORT $LN18@scalar
  0001e	6a 0c		 push	 12			; 0000000cH
  00020	56		 push	 esi
  00021	e8 00 00 00 00	 call	 ??3@YAXPAXI@Z		; operator delete
  00026	83 c4 08	 add	 esp, 8
$LN18@scalar:
  00029	8b c6		 mov	 eax, esi
  0002b	5e		 pop	 esi
  0002c	5d		 pop	 ebp
  0002d	c2 04 00	 ret	 4
??_Gbad_array_new_length@std@@UAEPAXI@Z ENDP		; std::bad_array_new_length::`scalar deleting destructor'
_TEXT	ENDS
; Function compile flags: /Ogtp
; File C:\Program Files\Microsoft Visual Studio\2022\Professional\VC\Tools\MSVC\14.44.35207\include\vcruntime_exception.h
;	COMDAT ??0bad_array_new_length@std@@QAE@ABV01@@Z
_TEXT	SEGMENT
___that$ = 8						; size = 4
??0bad_array_new_length@std@@QAE@ABV01@@Z PROC		; std::bad_array_new_length::bad_array_new_length, COMDAT
; _this$ = ecx
  00000	55		 push	 ebp
  00001	8b ec		 mov	 ebp, esp

; 73   :     {

  00003	56		 push	 esi
  00004	8b f1		 mov	 esi, ecx
  00006	0f 57 c0	 xorps	 xmm0, xmm0

; 72   :         : _Data()

  00009	8d 46 04	 lea	 eax, DWORD PTR [esi+4]

; 74   :         __std_exception_copy(&_Other._Data, &_Data);

  0000c	50		 push	 eax
  0000d	c7 06 00 00 00
	00		 mov	 DWORD PTR [esi], OFFSET ??_7exception@std@@6B@
  00013	66 0f d6 00	 movq	 QWORD PTR [eax], xmm0
  00017	8b 45 08	 mov	 eax, DWORD PTR ___that$[ebp]
  0001a	83 c0 04	 add	 eax, 4
  0001d	50		 push	 eax
  0001e	e8 00 00 00 00	 call	 ___std_exception_copy
  00023	83 c4 08	 add	 esp, 8
  00026	c7 06 00 00 00
	00		 mov	 DWORD PTR [esi], OFFSET ??_7bad_array_new_length@std@@6B@
  0002c	8b c6		 mov	 eax, esi
  0002e	5e		 pop	 esi
  0002f	5d		 pop	 ebp
  00030	c2 04 00	 ret	 4
??0bad_array_new_length@std@@QAE@ABV01@@Z ENDP		; std::bad_array_new_length::bad_array_new_length
_TEXT	ENDS
; Function compile flags: /Ogtp
; File C:\Program Files\Microsoft Visual Studio\2022\Professional\VC\Tools\MSVC\14.44.35207\include\vcruntime_exception.h
;	COMDAT ??1bad_array_new_length@std@@UAE@XZ
_TEXT	SEGMENT
??1bad_array_new_length@std@@UAE@XZ PROC		; std::bad_array_new_length::~bad_array_new_length, COMDAT
; _this$ = ecx

; 91   :         __std_exception_destroy(&_Data);

  00000	8d 41 04	 lea	 eax, DWORD PTR [ecx+4]
  00003	c7 01 00 00 00
	00		 mov	 DWORD PTR [ecx], OFFSET ??_7exception@std@@6B@
  00009	50		 push	 eax
  0000a	e8 00 00 00 00	 call	 ___std_exception_destroy
  0000f	59		 pop	 ecx
  00010	c3		 ret	 0
??1bad_array_new_length@std@@UAE@XZ ENDP		; std::bad_array_new_length::~bad_array_new_length
_TEXT	ENDS
; Function compile flags: /Ogtp
; File C:\Program Files\Microsoft Visual Studio\2022\Professional\VC\Tools\MSVC\14.44.35207\include\vcruntime_exception.h
;	COMDAT ??0bad_array_new_length@std@@QAE@XZ
_TEXT	SEGMENT
??0bad_array_new_length@std@@QAE@XZ PROC		; std::bad_array_new_length::bad_array_new_length, COMDAT
; _this$ = ecx

; 144  :     {

  00000	0f 57 c0	 xorps	 xmm0, xmm0

; 145  :     }

  00003	8b c1		 mov	 eax, ecx

; 66   :         : _Data()

  00005	66 0f d6 41 04	 movq	 QWORD PTR [ecx+4], xmm0

; 67   :     {
; 68   :         _Data._What = _Message;

  0000a	c7 41 04 00 00
	00 00		 mov	 DWORD PTR [ecx+4], OFFSET ??_C@_0BF@KINCDENJ@bad?5array?5new?5length@

; 144  :     {

  00011	c7 01 00 00 00
	00		 mov	 DWORD PTR [ecx], OFFSET ??_7bad_array_new_length@std@@6B@

; 145  :     }

  00017	c3		 ret	 0
??0bad_array_new_length@std@@QAE@XZ ENDP		; std::bad_array_new_length::bad_array_new_length
_TEXT	ENDS
; Function compile flags: /Ogtp
; File C:\Program Files\Microsoft Visual Studio\2022\Professional\VC\Tools\MSVC\14.44.35207\include\vcruntime_exception.h
;	COMDAT ??_Gbad_alloc@std@@UAEPAXI@Z
_TEXT	SEGMENT
___flags$ = 8						; size = 4
??_Gbad_alloc@std@@UAEPAXI@Z PROC			; std::bad_alloc::`scalar deleting destructor', COMDAT
; _this$ = ecx
  00000	55		 push	 ebp
  00001	8b ec		 mov	 ebp, esp

; 90   :     {

  00003	56		 push	 esi
  00004	8b f1		 mov	 esi, ecx

; 91   :         __std_exception_destroy(&_Data);

  00006	8d 46 04	 lea	 eax, DWORD PTR [esi+4]
  00009	c7 06 00 00 00
	00		 mov	 DWORD PTR [esi], OFFSET ??_7exception@std@@6B@
  0000f	50		 push	 eax
  00010	e8 00 00 00 00	 call	 ___std_exception_destroy
  00015	83 c4 04	 add	 esp, 4
  00018	f6 45 08 01	 test	 BYTE PTR ___flags$[ebp], 1
  0001c	74 0b		 je	 SHORT $LN13@scalar
  0001e	6a 0c		 push	 12			; 0000000cH
  00020	56		 push	 esi
  00021	e8 00 00 00 00	 call	 ??3@YAXPAXI@Z		; operator delete
  00026	83 c4 08	 add	 esp, 8
$LN13@scalar:
  00029	8b c6		 mov	 eax, esi
  0002b	5e		 pop	 esi
  0002c	5d		 pop	 ebp
  0002d	c2 04 00	 ret	 4
??_Gbad_alloc@std@@UAEPAXI@Z ENDP			; std::bad_alloc::`scalar deleting destructor'
_TEXT	ENDS
; Function compile flags: /Ogtp
; File C:\Program Files\Microsoft Visual Studio\2022\Professional\VC\Tools\MSVC\14.44.35207\include\vcruntime_exception.h
;	COMDAT ??0bad_alloc@std@@QAE@ABV01@@Z
_TEXT	SEGMENT
___that$ = 8						; size = 4
??0bad_alloc@std@@QAE@ABV01@@Z PROC			; std::bad_alloc::bad_alloc, COMDAT
; _this$ = ecx
  00000	55		 push	 ebp
  00001	8b ec		 mov	 ebp, esp

; 73   :     {

  00003	56		 push	 esi
  00004	8b f1		 mov	 esi, ecx
  00006	0f 57 c0	 xorps	 xmm0, xmm0

; 72   :         : _Data()

  00009	8d 46 04	 lea	 eax, DWORD PTR [esi+4]

; 74   :         __std_exception_copy(&_Other._Data, &_Data);

  0000c	50		 push	 eax
  0000d	c7 06 00 00 00
	00		 mov	 DWORD PTR [esi], OFFSET ??_7exception@std@@6B@
  00013	66 0f d6 00	 movq	 QWORD PTR [eax], xmm0
  00017	8b 45 08	 mov	 eax, DWORD PTR ___that$[ebp]
  0001a	83 c0 04	 add	 eax, 4
  0001d	50		 push	 eax
  0001e	e8 00 00 00 00	 call	 ___std_exception_copy
  00023	83 c4 08	 add	 esp, 8
  00026	c7 06 00 00 00
	00		 mov	 DWORD PTR [esi], OFFSET ??_7bad_alloc@std@@6B@
  0002c	8b c6		 mov	 eax, esi
  0002e	5e		 pop	 esi
  0002f	5d		 pop	 ebp
  00030	c2 04 00	 ret	 4
??0bad_alloc@std@@QAE@ABV01@@Z ENDP			; std::bad_alloc::bad_alloc
_TEXT	ENDS
; Function compile flags: /Ogtp
; File C:\Program Files\Microsoft Visual Studio\2022\Professional\VC\Tools\MSVC\14.44.35207\include\vcruntime_exception.h
;	COMDAT ??_Gexception@std@@UAEPAXI@Z
_TEXT	SEGMENT
___flags$ = 8						; size = 4
??_Gexception@std@@UAEPAXI@Z PROC			; std::exception::`scalar deleting destructor', COMDAT
; _this$ = ecx
  00000	55		 push	 ebp
  00001	8b ec		 mov	 ebp, esp

; 90   :     {

  00003	56		 push	 esi
  00004	8b f1		 mov	 esi, ecx

; 91   :         __std_exception_destroy(&_Data);

  00006	8d 46 04	 lea	 eax, DWORD PTR [esi+4]
  00009	c7 06 00 00 00
	00		 mov	 DWORD PTR [esi], OFFSET ??_7exception@std@@6B@
  0000f	50		 push	 eax
  00010	e8 00 00 00 00	 call	 ___std_exception_destroy
  00015	83 c4 04	 add	 esp, 4
  00018	f6 45 08 01	 test	 BYTE PTR ___flags$[ebp], 1
  0001c	74 0b		 je	 SHORT $LN8@scalar
  0001e	6a 0c		 push	 12			; 0000000cH
  00020	56		 push	 esi
  00021	e8 00 00 00 00	 call	 ??3@YAXPAXI@Z		; operator delete
  00026	83 c4 08	 add	 esp, 8
$LN8@scalar:
  00029	8b c6		 mov	 eax, esi
  0002b	5e		 pop	 esi
  0002c	5d		 pop	 ebp
  0002d	c2 04 00	 ret	 4
??_Gexception@std@@UAEPAXI@Z ENDP			; std::exception::`scalar deleting destructor'
_TEXT	ENDS
; Function compile flags: /Ogtp
; File C:\Program Files\Microsoft Visual Studio\2022\Professional\VC\Tools\MSVC\14.44.35207\include\vcruntime_exception.h
;	COMDAT ?what@exception@std@@UBEPBDXZ
_TEXT	SEGMENT
?what@exception@std@@UBEPBDXZ PROC			; std::exception::what, COMDAT
; _this$ = ecx

; 96   :         return _Data._What ? _Data._What : "Unknown exception";

  00000	8b 49 04	 mov	 ecx, DWORD PTR [ecx+4]
  00003	b8 00 00 00 00	 mov	 eax, OFFSET ??_C@_0BC@EOODALEL@Unknown?5exception@
  00008	85 c9		 test	 ecx, ecx
  0000a	0f 45 c1	 cmovne	 eax, ecx

; 97   :     }

  0000d	c3		 ret	 0
?what@exception@std@@UBEPBDXZ ENDP			; std::exception::what
_TEXT	ENDS
; Function compile flags: /Ogtp
; File C:\Program Files\Microsoft Visual Studio\2022\Professional\VC\Tools\MSVC\14.44.35207\include\vcruntime_exception.h
;	COMDAT ??1exception@std@@UAE@XZ
_TEXT	SEGMENT
??1exception@std@@UAE@XZ PROC				; std::exception::~exception, COMDAT
; _this$ = ecx

; 91   :         __std_exception_destroy(&_Data);

  00000	8d 41 04	 lea	 eax, DWORD PTR [ecx+4]
  00003	c7 01 00 00 00
	00		 mov	 DWORD PTR [ecx], OFFSET ??_7exception@std@@6B@
  00009	50		 push	 eax
  0000a	e8 00 00 00 00	 call	 ___std_exception_destroy
  0000f	59		 pop	 ecx

; 92   :     }

  00010	c3		 ret	 0
??1exception@std@@UAE@XZ ENDP				; std::exception::~exception
_TEXT	ENDS
; Function compile flags: /Ogtp
; File C:\Program Files\Microsoft Visual Studio\2022\Professional\VC\Tools\MSVC\14.44.35207\include\vcruntime_exception.h
;	COMDAT ??0exception@std@@QAE@ABV01@@Z
_TEXT	SEGMENT
__Other$ = 8						; size = 4
??0exception@std@@QAE@ABV01@@Z PROC			; std::exception::exception, COMDAT
; _this$ = ecx

; 73   :     {

  00000	55		 push	 ebp
  00001	8b ec		 mov	 ebp, esp
  00003	56		 push	 esi
  00004	8b f1		 mov	 esi, ecx
  00006	0f 57 c0	 xorps	 xmm0, xmm0
  00009	8d 46 04	 lea	 eax, DWORD PTR [esi+4]

; 74   :         __std_exception_copy(&_Other._Data, &_Data);

  0000c	50		 push	 eax
  0000d	c7 06 00 00 00
	00		 mov	 DWORD PTR [esi], OFFSET ??_7exception@std@@6B@
  00013	66 0f d6 00	 movq	 QWORD PTR [eax], xmm0
  00017	8b 45 08	 mov	 eax, DWORD PTR __Other$[ebp]
  0001a	83 c0 04	 add	 eax, 4
  0001d	50		 push	 eax
  0001e	e8 00 00 00 00	 call	 ___std_exception_copy
  00023	83 c4 08	 add	 esp, 8

; 75   :     }

  00026	8b c6		 mov	 eax, esi
  00028	5e		 pop	 esi
  00029	5d		 pop	 ebp
  0002a	c2 04 00	 ret	 4
??0exception@std@@QAE@ABV01@@Z ENDP			; std::exception::exception
_TEXT	ENDS
; Function compile flags: /Ogtp
; File C:\Program Files (x86)\Windows Kits\10\Include\10.0.26100.0\ucrt\stdio.h
;	COMDAT _sscanf
_TEXT	SEGMENT
__Buffer$ = 8						; size = 4
__Format$ = 12						; size = 4
_sscanf	PROC						; COMDAT

; 2247 :     {

  00000	55		 push	 ebp
  00001	8b ec		 mov	 ebp, esp

; 2153 :         return __stdio_common_vsscanf(

  00003	8d 45 10	 lea	 eax, DWORD PTR __Format$[ebp+4]
  00006	50		 push	 eax
  00007	6a 00		 push	 0
  00009	ff 75 0c	 push	 DWORD PTR __Format$[ebp]
  0000c	6a ff		 push	 -1
  0000e	ff 75 08	 push	 DWORD PTR __Buffer$[ebp]
  00011	e8 00 00 00 00	 call	 ___local_stdio_scanf_options
  00016	ff 70 04	 push	 DWORD PTR [eax+4]
  00019	ff 30		 push	 DWORD PTR [eax]
  0001b	e8 00 00 00 00	 call	 ___stdio_common_vsscanf
  00020	83 c4 1c	 add	 esp, 28			; 0000001cH

; 2248 :         int _Result;
; 2249 :         va_list _ArgList;
; 2250 :         __crt_va_start(_ArgList, _Format);
; 2251 :         _Result = _vsscanf_l(_Buffer, _Format, NULL, _ArgList);
; 2252 :         __crt_va_end(_ArgList);
; 2253 :         return _Result;
; 2254 :     }

  00023	5d		 pop	 ebp
  00024	c3		 ret	 0
_sscanf	ENDP
_TEXT	ENDS
; Function compile flags: /Ogtp
; File C:\Program Files (x86)\Windows Kits\10\Include\10.0.26100.0\ucrt\stdio.h
;	COMDAT _sprintf
_TEXT	SEGMENT
__Buffer$ = 8						; size = 4
__Format$ = 12						; size = 4
_sprintf PROC						; COMDAT

; 1771 :     {

  00000	55		 push	 ebp
  00001	8b ec		 mov	 ebp, esp

; 1392 :         int const _Result = __stdio_common_vsprintf(

  00003	8d 45 10	 lea	 eax, DWORD PTR __Format$[ebp+4]
  00006	50		 push	 eax
  00007	6a 00		 push	 0
  00009	ff 75 0c	 push	 DWORD PTR __Format$[ebp]
  0000c	6a ff		 push	 -1
  0000e	ff 75 08	 push	 DWORD PTR __Buffer$[ebp]
  00011	e8 00 00 00 00	 call	 ___local_stdio_printf_options
  00016	8b 08		 mov	 ecx, DWORD PTR [eax]
  00018	ff 70 04	 push	 DWORD PTR [eax+4]
  0001b	83 c9 01	 or	 ecx, 1
  0001e	51		 push	 ecx
  0001f	e8 00 00 00 00	 call	 ___stdio_common_vsprintf

; 1393 :             _CRT_INTERNAL_LOCAL_PRINTF_OPTIONS | _CRT_INTERNAL_PRINTF_LEGACY_VSPRINTF_NULL_TERMINATION,
; 1394 :             _Buffer, _BufferCount, _Format, _Locale, _ArgList);
; 1395 : 
; 1396 :         return _Result < 0 ? -1 : _Result;

  00024	83 c9 ff	 or	 ecx, -1
  00027	83 c4 1c	 add	 esp, 28			; 0000001cH
  0002a	85 c0		 test	 eax, eax
  0002c	0f 48 c1	 cmovs	 eax, ecx

; 1772 :         int _Result;
; 1773 :         va_list _ArgList;
; 1774 :         __crt_va_start(_ArgList, _Format);
; 1775 : 
; 1776 :         _Result = _vsprintf_l(_Buffer, _Format, NULL, _ArgList);
; 1777 : 
; 1778 :         __crt_va_end(_ArgList);
; 1779 :         return _Result;
; 1780 :     }

  0002f	5d		 pop	 ebp
  00030	c3		 ret	 0
_sprintf ENDP
_TEXT	ENDS
; Function compile flags: /Ogtp
; File C:\Program Files (x86)\Windows Kits\10\Include\10.0.26100.0\ucrt\corecrt_stdio_config.h
;	COMDAT ___local_stdio_scanf_options
_TEXT	SEGMENT
___local_stdio_scanf_options PROC			; COMDAT

; 101  :         static unsigned __int64 _OptionsStorage;
; 102  :         return &_OptionsStorage;

  00000	b8 00 00 00 00	 mov	 eax, OFFSET ?_OptionsStorage@?1??__local_stdio_scanf_options@@9@4_KA ; `__local_stdio_scanf_options'::`2'::_OptionsStorage

; 103  :     }

  00005	c3		 ret	 0
___local_stdio_scanf_options ENDP
_TEXT	ENDS
; Function compile flags: /Ogtp
; File C:\Program Files (x86)\Windows Kits\10\Include\10.0.26100.0\ucrt\corecrt_stdio_config.h
;	COMDAT ___local_stdio_printf_options
_TEXT	SEGMENT
___local_stdio_printf_options PROC			; COMDAT

; 91   :         static unsigned __int64 _OptionsStorage;
; 92   :         return &_OptionsStorage;

  00000	b8 00 00 00 00	 mov	 eax, OFFSET ?_OptionsStorage@?1??__local_stdio_printf_options@@9@4_KA ; `__local_stdio_printf_options'::`2'::_OptionsStorage

; 93   :     }

  00005	c3		 ret	 0
___local_stdio_printf_options ENDP
_TEXT	ENDS
; Function compile flags: /Ogtp
; File C:\IAGOS\server\v18\Source\Source\_AIInterface\AIMonster2.cpp
;	COMDAT ?__empty_global_delete@@YAXPAXI@Z
_TEXT	SEGMENT
___formal$ = 8						; size = 4
___formal$ = 12						; size = 4
?__empty_global_delete@@YAXPAXI@Z PROC			; __empty_global_delete, COMDAT

  00000	c2 00 00	 ret	 0
?__empty_global_delete@@YAXPAXI@Z ENDP			; __empty_global_delete
_TEXT	ENDS
; Function compile flags: /Ogtp
; File C:\IAGOS\server\v18\Source\Source\_AIInterface\AIMonster2.cpp
;	COMDAT ?__empty_global_delete@@YAXPAX@Z
_TEXT	SEGMENT
___formal$ = 8						; size = 4
?__empty_global_delete@@YAXPAX@Z PROC			; __empty_global_delete, COMDAT

  00000	c2 00 00	 ret	 0
?__empty_global_delete@@YAXPAX@Z ENDP			; __empty_global_delete
_TEXT	ENDS
END
