; Listing generated by Microsoft (R) Optimizing Compiler Version 19.44.35225.0 

	TITLE	C:\IAGOS\server\v18\Source\Output\WorldServer\Release\aimonster.obj
	.686P
	.XMM
	include listing.inc
	.model	flat

INCLUDELIB LIBCMT
INCLUDELIB OLDNAMES

PUBLIC	?stateMap@CAIMonster@@2USTATEMAP@@B		; CAIMonster::stateMap
EXTRN	?stateMap@CAIInterface@@2USTATEMAP@@B:QWORD	; CAIInterface::stateMap
CONST	SEGMENT
?piecewise_construct@std@@3Upiecewise_construct_t@1@B	ORG $+1 ; std::piecewise_construct
	ORG $+3
?stateMap@CAIMonster@@2USTATEMAP@@B DD FLAT:?stateMap@CAIInterface@@2USTATEMAP@@B ; CAIMonster::stateMap
	DD	FLAT:?stateMapEntries@CAIMonster@@2QBUSTATEMAP_ENTRIES@@B
CONST	ENDS
PUBLIC	?__empty_global_delete@@YAXPAX@Z		; __empty_global_delete
PUBLIC	?__empty_global_delete@@YAXPAXI@Z		; __empty_global_delete
PUBLIC	??0exception@std@@QAE@ABV01@@Z			; std::exception::exception
PUBLIC	??1exception@std@@UAE@XZ			; std::exception::~exception
PUBLIC	?what@exception@std@@UBEPBDXZ			; std::exception::what
PUBLIC	??_Gexception@std@@UAEPAXI@Z			; std::exception::`scalar deleting destructor'
PUBLIC	??0bad_alloc@std@@QAE@ABV01@@Z			; std::bad_alloc::bad_alloc
PUBLIC	??_Gbad_alloc@std@@UAEPAXI@Z			; std::bad_alloc::`scalar deleting destructor'
PUBLIC	??0bad_array_new_length@std@@QAE@XZ		; std::bad_array_new_length::bad_array_new_length
PUBLIC	??1bad_array_new_length@std@@UAE@XZ		; std::bad_array_new_length::~bad_array_new_length
PUBLIC	??0bad_array_new_length@std@@QAE@ABV01@@Z	; std::bad_array_new_length::bad_array_new_length
PUBLIC	??_Gbad_array_new_length@std@@UAEPAXI@Z		; std::bad_array_new_length::`scalar deleting destructor'
PUBLIC	?_Throw_bad_array_new_length@std@@YAXXZ		; std::_Throw_bad_array_new_length
PUBLIC	?_Throw_tree_length_error@std@@YAXXZ		; std::_Throw_tree_length_error
PUBLIC	??0D3DXVECTOR3@@QAE@XZ				; D3DXVECTOR3::D3DXVECTOR3
PUBLIC	??1CTimer@@UAE@XZ				; CTimer::~CTimer
PUBLIC	??_GCTimer@@UAEPAXI@Z				; CTimer::`scalar deleting destructor'
PUBLIC	?GetDegreeX@@YAMABUD3DXVECTOR3@@0@Z		; GetDegreeX
PUBLIC	??1?$vector@KV?$allocator@K@std@@@std@@QAE@XZ	; std::vector<unsigned long,std::allocator<unsigned long> >::~vector<unsigned long,std::allocator<unsigned long> >
PUBLIC	?_Xlength@?$vector@KV?$allocator@K@std@@@std@@CAXXZ ; std::vector<unsigned long,std::allocator<unsigned long> >::_Xlength
PUBLIC	?GetMoverProp@CProject@@QAEPAUMoverProp@@H@Z	; CProject::GetMoverProp
PUBLIC	?GetPropA@CItem@@QAEPAUItemProp@@XZ		; CItem::GetPropA
PUBLIC	?GetPropA@CMover@@QAEPAUMoverProp@@XZ		; CMover::GetPropA
PUBLIC	?IsEmptyDest@CMover@@QAEHXZ			; CMover::IsEmptyDest
PUBLIC	?IsLive@CMover@@QAEHXZ				; CMover::IsLive
PUBLIC	??1_VECINFO@@QAE@XZ				; _VECINFO::~_VECINFO
PUBLIC	?GetAtkMethod_Near@CAIMonster@@IAEKXZ		; CAIMonster::GetAtkMethod_Near
PUBLIC	?GetAtkMethod_Far@CAIMonster@@IAEKXZ		; CAIMonster::GetAtkMethod_Far
PUBLIC	?GetAtkRange@CAIMonster@@IAEKK@Z		; CAIMonster::GetAtkRange
PUBLIC	?GetAtkProp@CAIMonster@@IAEPAUItemProp@@K@Z	; CAIMonster::GetAtkProp
PUBLIC	?GetAtkItemId@CAIMonster@@IAEKK@Z		; CAIMonster::GetAtkItemId
PUBLIC	?DoAttack@CAIMonster@@IAEXKPAVCMover@@@Z	; CAIMonster::DoAttack
PUBLIC	?DoReturnToBegin@CAIMonster@@IAEXH@Z		; CAIMonster::DoReturnToBegin
PUBLIC	?MoveToDst@CAIMonster@@IAEXK@Z			; CAIMonster::MoveToDst
PUBLIC	?MoveToDst@CAIMonster@@IAEXABUD3DXVECTOR3@@@Z	; CAIMonster::MoveToDst
PUBLIC	?MoveToRandom@CAIMonster@@IAEXI@Z		; CAIMonster::MoveToRandom
PUBLIC	?CallHelper@CAIMonster@@IAEXPBUMoverProp@@@Z	; CAIMonster::CallHelper
PUBLIC	?SetStop@CAIMonster@@IAEXK@Z			; CAIMonster::SetStop
PUBLIC	?IsEndStop@CAIMonster@@IAEHXZ			; CAIMonster::IsEndStop
PUBLIC	?IsMove@CAIMonster@@IAEHXZ			; CAIMonster::IsMove
PUBLIC	?IsInRange@CAIMonster@@IAEHAAUD3DXVECTOR3@@M@Z	; CAIMonster::IsInRange
PUBLIC	?SelectAttackType@CAIMonster@@IAEHPAVCMover@@@Z	; CAIMonster::SelectAttackType
PUBLIC	?MoveProcessIdle@CAIMonster@@IAEHABUAIMSG@@@Z	; CAIMonster::MoveProcessIdle
PUBLIC	?MoveProcessRage@CAIMonster@@IAEHABUAIMSG@@@Z	; CAIMonster::MoveProcessRage
PUBLIC	?SubAttackChance@CAIMonster@@IAEHABUAIMSG@@PAVCMover@@@Z ; CAIMonster::SubAttackChance
PUBLIC	?MoveProcessRunaway@CAIMonster@@IAEHXZ		; CAIMonster::MoveProcessRunaway
PUBLIC	?SubSummonProcess@CAIMonster@@IAEXPAVCMover@@@Z	; CAIMonster::SubSummonProcess
PUBLIC	?SubItemLoot@CAIMonster@@IAEHXZ			; CAIMonster::SubItemLoot
PUBLIC	?Init@CAIMonster@@IAEXXZ			; CAIMonster::Init
PUBLIC	?StateInit@CAIMonster@@IAEHABUAIMSG@@@Z		; CAIMonster::StateInit
PUBLIC	?StateIdle@CAIMonster@@IAEHABUAIMSG@@@Z		; CAIMonster::StateIdle
PUBLIC	?StateWander@CAIMonster@@IAEHABUAIMSG@@@Z	; CAIMonster::StateWander
PUBLIC	?StateRunaway@CAIMonster@@IAEHABUAIMSG@@@Z	; CAIMonster::StateRunaway
PUBLIC	?StateEvade@CAIMonster@@IAEHABUAIMSG@@@Z	; CAIMonster::StateEvade
PUBLIC	?StateRage@CAIMonster@@IAEHABUAIMSG@@@Z		; CAIMonster::StateRage
PUBLIC	?StateRagePatrol@CAIMonster@@IAEHABUAIMSG@@@Z	; CAIMonster::StateRagePatrol
PUBLIC	?MoveProcessRagePatrol@CAIMonster@@IAEHABUAIMSG@@@Z ; CAIMonster::MoveProcessRagePatrol
PUBLIC	?StateStand@CAIMonster@@IAEHABUAIMSG@@@Z	; CAIMonster::StateStand
PUBLIC	?StatePatrol@CAIMonster@@IAEHABUAIMSG@@@Z	; CAIMonster::StatePatrol
PUBLIC	?MoveProcessStand@CAIMonster@@IAEHABUAIMSG@@@Z	; CAIMonster::MoveProcessStand
PUBLIC	?MoveProcessPatrol@CAIMonster@@IAEHABUAIMSG@@@Z	; CAIMonster::MoveProcessPatrol
PUBLIC	?SetTarget@CAIMonster@@IAEXKK@Z			; CAIMonster::SetTarget
PUBLIC	?IsReturnToBegin@CAIMonster@@UAEHXZ		; CAIMonster::IsReturnToBegin
PUBLIC	??0CAIMonster@@QAE@XZ				; CAIMonster::CAIMonster
PUBLIC	??0CAIMonster@@QAE@PAVCObj@@@Z			; CAIMonster::CAIMonster
PUBLIC	??1CAIMonster@@UAE@XZ				; CAIMonster::~CAIMonster
PUBLIC	?InitAI@CAIMonster@@UAEXXZ			; CAIMonster::InitAI
PUBLIC	?GetStateMap@CAIMonster@@UBEPBUSTATEMAP@@XZ	; CAIMonster::GetStateMap
PUBLIC	??_GCAIMonster@@UAEPAXI@Z			; CAIMonster::`scalar deleting destructor'
PUBLIC	??0CMonsterSkill@@AAE@XZ			; CMonsterSkill::CMonsterSkill
PUBLIC	??1CMonsterSkill@@QAE@XZ			; CMonsterSkill::~CMonsterSkill
PUBLIC	?GetInstance@CMonsterSkill@@SAPAV1@XZ		; CMonsterSkill::GetInstance
PUBLIC	?LoadScript@CMonsterSkill@@QAEXXZ		; CMonsterSkill::LoadScript
PUBLIC	?Clear@CMonsterSkill@@QAEXXZ			; CMonsterSkill::Clear
PUBLIC	?GetMonsterSkillLevel@CMonsterSkill@@QAEKPAVCMover@@K@Z ; CMonsterSkill::GetMonsterSkillLevel
PUBLIC	?ApplySkill@CMonsterSkill@@QAEHPAVCMover@@0K@Z	; CMonsterSkill::ApplySkill
PUBLIC	?MonsterTransform@CMonsterSkill@@QAEHPAVCMover@@H@Z ; CMonsterSkill::MonsterTransform
PUBLIC	?_Insert_node@?$_Tree_val@U?$_Tree_simple_types@U?$pair@$$CBKV?$vector@U__MONSTERSKILL@@V?$allocator@U__MONSTERSKILL@@@std@@@std@@@std@@@std@@@std@@QAEPAU?$_Tree_node@U?$pair@$$CBKV?$vector@U__MONSTERSKILL@@V?$allocator@U__MONSTERSKILL@@@std@@@std@@@std@@PAX@2@U?$_Tree_id@PAU?$_Tree_node@U?$pair@$$CBKV?$vector@U__MONSTERSKILL@@V?$allocator@U__MONSTERSKILL@@@std@@@std@@@std@@PAX@std@@@2@QAU32@@Z ; std::_Tree_val<std::_Tree_simple_types<std::pair<unsigned long const ,std::vector<__MONSTERSKILL,std::allocator<__MONSTERSKILL> > > > >::_Insert_node
PUBLIC	??$_Allocate_manually_vector_aligned@U_Default_allocate_traits@std@@@std@@YAPAXI@Z ; std::_Allocate_manually_vector_aligned<std::_Default_allocate_traits>
PUBLIC	??1?$vector@U__MONSTERSKILL@@V?$allocator@U__MONSTERSKILL@@@std@@@std@@QAE@XZ ; std::vector<__MONSTERSKILL,std::allocator<__MONSTERSKILL> >::~vector<__MONSTERSKILL,std::allocator<__MONSTERSKILL> >
PUBLIC	?_Tidy@?$vector@U__MONSTERSKILL@@V?$allocator@U__MONSTERSKILL@@@std@@@std@@AAEXXZ ; std::vector<__MONSTERSKILL,std::allocator<__MONSTERSKILL> >::_Tidy
PUBLIC	?_Xlength@?$vector@U__MONSTERSKILL@@V?$allocator@U__MONSTERSKILL@@@std@@@std@@CAXXZ ; std::vector<__MONSTERSKILL,std::allocator<__MONSTERSKILL> >::_Xlength
PUBLIC	??1?$pair@KV?$vector@U__MONSTERSKILL@@V?$allocator@U__MONSTERSKILL@@@std@@@std@@@std@@QAE@XZ ; std::pair<unsigned long,std::vector<__MONSTERSKILL,std::allocator<__MONSTERSKILL> > >::~pair<unsigned long,std::vector<__MONSTERSKILL,std::allocator<__MONSTERSKILL> > >
PUBLIC	??$_Erase_tree@V?$allocator@U?$_Tree_node@U?$pair@$$CBKV?$vector@U__MONSTERSKILL@@V?$allocator@U__MONSTERSKILL@@@std@@@std@@@std@@PAX@std@@@std@@@?$_Tree_val@U?$_Tree_simple_types@U?$pair@$$CBKV?$vector@U__MONSTERSKILL@@V?$allocator@U__MONSTERSKILL@@@std@@@std@@@std@@@std@@@std@@QAEXAAV?$allocator@U?$_Tree_node@U?$pair@$$CBKV?$vector@U__MONSTERSKILL@@V?$allocator@U__MONSTERSKILL@@@std@@@std@@@std@@PAX@std@@@1@PAU?$_Tree_node@U?$pair@$$CBKV?$vector@U__MONSTERSKILL@@V?$allocator@U__MONSTERSKILL@@@std@@@std@@@std@@PAX@1@@Z ; std::_Tree_val<std::_Tree_simple_types<std::pair<unsigned long const ,std::vector<__MONSTERSKILL,std::allocator<__MONSTERSKILL> > > > >::_Erase_tree<std::allocator<std::_Tree_node<std::pair<unsigned long const ,std::vector<__MONSTERSKILL,std::allocator<__MONSTERSKILL> > >,void *> > >
PUBLIC	??$_Find_lower_bound@K@?$_Tree@V?$_Tmap_traits@KV?$vector@U__MONSTERSKILL@@V?$allocator@U__MONSTERSKILL@@@std@@@std@@U?$less@K@2@V?$allocator@U?$pair@$$CBKV?$vector@U__MONSTERSKILL@@V?$allocator@U__MONSTERSKILL@@@std@@@std@@@std@@@2@$0A@@std@@@std@@IBE?AU?$_Tree_find_result@PAU?$_Tree_node@U?$pair@$$CBKV?$vector@U__MONSTERSKILL@@V?$allocator@U__MONSTERSKILL@@@std@@@std@@@std@@PAX@std@@@1@ABK@Z ; std::_Tree<std::_Tmap_traits<unsigned long,std::vector<__MONSTERSKILL,std::allocator<__MONSTERSKILL> >,std::less<unsigned long>,std::allocator<std::pair<unsigned long const ,std::vector<__MONSTERSKILL,std::allocator<__MONSTERSKILL> > > >,0> >::_Find_lower_bound<unsigned long>
PUBLIC	??$_Emplace_reallocate@ABU__MONSTERSKILL@@@?$vector@U__MONSTERSKILL@@V?$allocator@U__MONSTERSKILL@@@std@@@std@@AAEPAU__MONSTERSKILL@@QAU2@ABU2@@Z ; std::vector<__MONSTERSKILL,std::allocator<__MONSTERSKILL> >::_Emplace_reallocate<__MONSTERSKILL const &>
PUBLIC	??$_Copy_memmove@PAKPAK@std@@YAPAKPAK00@Z	; std::_Copy_memmove<unsigned long *,unsigned long *>
PUBLIC	??$_Emplace_reallocate@K@?$vector@KV?$allocator@K@std@@@std@@AAEPAKQAK$$QAK@Z ; std::vector<unsigned long,std::allocator<unsigned long> >::_Emplace_reallocate<unsigned long>
PUBLIC	??1?$_Alloc_construct_ptr@V?$allocator@U?$_Tree_node@U?$pair@$$CBKV?$vector@U__MONSTERSKILL@@V?$allocator@U__MONSTERSKILL@@@std@@@std@@@std@@PAX@std@@@std@@@std@@QAE@XZ ; std::_Alloc_construct_ptr<std::allocator<std::_Tree_node<std::pair<unsigned long const ,std::vector<__MONSTERSKILL,std::allocator<__MONSTERSKILL> > >,void *> > >::~_Alloc_construct_ptr<std::allocator<std::_Tree_node<std::pair<unsigned long const ,std::vector<__MONSTERSKILL,std::allocator<__MONSTERSKILL> > >,void *> > >
PUBLIC	??$_Copy_memmove_tail@PAK@std@@YAPAKQBDQAKII@Z	; std::_Copy_memmove_tail<unsigned long *>
PUBLIC	??$_Copy_memmove@PAU__MONSTERSKILL@@PAU1@@std@@YAPAU__MONSTERSKILL@@PAU1@00@Z ; std::_Copy_memmove<__MONSTERSKILL *,__MONSTERSKILL *>
PUBLIC	??$_Copy_memmove_tail@PAU__MONSTERSKILL@@@std@@YAPAU__MONSTERSKILL@@QBDQAU1@II@Z ; std::_Copy_memmove_tail<__MONSTERSKILL *>
PUBLIC	??_7exception@std@@6B@				; std::exception::`vftable'
PUBLIC	??_C@_0BC@EOODALEL@Unknown?5exception@		; `string'
PUBLIC	??_7bad_alloc@std@@6B@				; std::bad_alloc::`vftable'
PUBLIC	??_7bad_array_new_length@std@@6B@		; std::bad_array_new_length::`vftable'
PUBLIC	??_C@_0BF@KINCDENJ@bad?5array?5new?5length@	; `string'
PUBLIC	??_R0?AVexception@std@@@8			; std::exception `RTTI Type Descriptor'
PUBLIC	__CT??_R0?AVexception@std@@@8??0exception@std@@QAE@ABV01@@Z12
PUBLIC	__TI3?AVbad_array_new_length@std@@
PUBLIC	__CTA3?AVbad_array_new_length@std@@
PUBLIC	??_R0?AVbad_array_new_length@std@@@8		; std::bad_array_new_length `RTTI Type Descriptor'
PUBLIC	__CT??_R0?AVbad_array_new_length@std@@@8??0bad_array_new_length@std@@QAE@ABV01@@Z12
PUBLIC	??_R0?AVbad_alloc@std@@@8			; std::bad_alloc `RTTI Type Descriptor'
PUBLIC	__CT??_R0?AVbad_alloc@std@@@8??0bad_alloc@std@@QAE@ABV01@@Z12
PUBLIC	??_C@_0BB@GCADKGJO@map?1set?5too?5long@		; `string'
PUBLIC	??_7CTimer@@6B@					; CTimer::`vftable'
PUBLIC	??_C@_0BM@HMFGHCP@?$CFs?5min?3?$CFd?0?5max?3?$CFd?0?5index?3?$CFd@ ; `string'
PUBLIC	??_C@_0BI@BEIFNGEL@GetItemProp?5range_error@	; `string'
PUBLIC	??_C@_0BJ@GPNGCFMK@GetSkillProp?5range_error@	; `string'
PUBLIC	??_C@_0BJ@GKPOBPPI@GetMoverProp?5range_error@	; `string'
PUBLIC	?stateMapEntries@CAIMonster@@2QBUSTATEMAP_ENTRIES@@B ; CAIMonster::stateMapEntries
PUBLIC	??_7CAIMonster@@6B@				; CAIMonster::`vftable'
PUBLIC	??_C@_0BA@FOIKENOD@vector?5too?5long@		; `string'
PUBLIC	??_R4exception@std@@6B@				; std::exception::`RTTI Complete Object Locator'
PUBLIC	??_R3exception@std@@8				; std::exception::`RTTI Class Hierarchy Descriptor'
PUBLIC	??_R2exception@std@@8				; std::exception::`RTTI Base Class Array'
PUBLIC	??_R1A@?0A@EA@exception@std@@8			; std::exception::`RTTI Base Class Descriptor at (0,-1,0,64)'
PUBLIC	??_R4bad_array_new_length@std@@6B@		; std::bad_array_new_length::`RTTI Complete Object Locator'
PUBLIC	??_R3bad_array_new_length@std@@8		; std::bad_array_new_length::`RTTI Class Hierarchy Descriptor'
PUBLIC	??_R2bad_array_new_length@std@@8		; std::bad_array_new_length::`RTTI Base Class Array'
PUBLIC	??_R1A@?0A@EA@bad_array_new_length@std@@8	; std::bad_array_new_length::`RTTI Base Class Descriptor at (0,-1,0,64)'
PUBLIC	??_R1A@?0A@EA@bad_alloc@std@@8			; std::bad_alloc::`RTTI Base Class Descriptor at (0,-1,0,64)'
PUBLIC	??_R3bad_alloc@std@@8				; std::bad_alloc::`RTTI Class Hierarchy Descriptor'
PUBLIC	??_R2bad_alloc@std@@8				; std::bad_alloc::`RTTI Base Class Array'
PUBLIC	??_R4bad_alloc@std@@6B@				; std::bad_alloc::`RTTI Complete Object Locator'
PUBLIC	??_R4CTimer@@6B@				; CTimer::`RTTI Complete Object Locator'
PUBLIC	??_R0?AVCTimer@@@8				; CTimer `RTTI Type Descriptor'
PUBLIC	??_R3CTimer@@8					; CTimer::`RTTI Class Hierarchy Descriptor'
PUBLIC	??_R2CTimer@@8					; CTimer::`RTTI Base Class Array'
PUBLIC	??_R1A@?0A@EA@CTimer@@8				; CTimer::`RTTI Base Class Descriptor at (0,-1,0,64)'
PUBLIC	??_C@_0CA@GLBIGGGO@m_nAttackFirstRange?5?$MA?L?$LL?s?3?$CFd?5?$CFs?6@ ; `string'
PUBLIC	??_C@_0CA@LGFOMACB@CAIMonster?3?3DoAttack?5?3?5?$CFs?5?$CFd?5?$CFd@ ; `string'
PUBLIC	??_C@_0CF@GPCLPLOG@?$LA?f?$LA?m?5?3?5?$CFs?$MA?G?5dwAtk2?$LA?$KB?5?A?v?A?$KE?$LF?G?A?v?5?$LO@ ; `string'
PUBLIC	??_C@_0CF@PNLKMPKB@?$LA?f?$LA?m?5?3?5?$CFs?$MA?G?5?$LA?x?$LA?$NN?$CFd?$LA?$KB?5?A?v?A?$KE?$LF?G?A?v?5?$LO@ ; `string'
PUBLIC	??_C@_0CA@NDHMDKEO@SubSummonProcess?5?3?5?$LM?R?H?$KP?5?$LN?G?F?P?5?$CFd@ ; `string'
PUBLIC	??_C@_0CL@OIBCKMKI@CAIMonster?3?3MoverProcessRage?5?3?5@ ; `string'
PUBLIC	??_C@_0BB@MKLOFGLI@MonsterSkill?4lua@		; `string'
PUBLIC	??_C@_0BP@NFKMDA@MonsterSkill?4lua?5Run?5Failed?$CB?$CB?$CB@ ; `string'
PUBLIC	??_C@_0O@IGNMFEAI@tMonsterSkill@		; `string'
PUBLIC	??_C@_0N@PIEFIFMF@strMonsterId@			; `string'
PUBLIC	??_C@_06NAOHEGNK@tSkill@			; `string'
PUBLIC	??_C@_0L@KFDIAIK@nAtkMethod@			; `string'
PUBLIC	??_C@_0L@PMEEMMOD@strSkillId@			; `string'
PUBLIC	??_C@_09IPFHBE@dwSkillLv@			; `string'
PUBLIC	??_C@_09KGMHNPNF@nHitCount@			; `string'
PUBLIC	??_C@_06NCOFCCEP@nRange@			; `string'
PUBLIC	??_C@_05JBKGBCJC@nProb@				; `string'
PUBLIC	??_C@_0M@NLMOEPJG@dwSkillTime@			; `string'
PUBLIC	??_C@_07MGMJIFLN@bIgnore@			; `string'
PUBLIC	??_C@_0EF@PCDPMBLE@Out?5of?5Skill?5Level?5Range?5?9?$DO?5CMo@ ; `string'
PUBLIC	??_R4CAIMonster@@6B@				; CAIMonster::`RTTI Complete Object Locator'
PUBLIC	??_R0?AVCAIMonster@@@8				; CAIMonster `RTTI Type Descriptor'
PUBLIC	??_R3CAIMonster@@8				; CAIMonster::`RTTI Class Hierarchy Descriptor'
PUBLIC	??_R2CAIMonster@@8				; CAIMonster::`RTTI Base Class Array'
PUBLIC	??_R1A@?0A@EA@CAIMonster@@8			; CAIMonster::`RTTI Base Class Descriptor at (0,-1,0,64)'
PUBLIC	??_R1A@?0A@EA@CAIInterface@@8			; CAIInterface::`RTTI Base Class Descriptor at (0,-1,0,64)'
PUBLIC	??_R0?AVCAIInterface@@@8			; CAIInterface `RTTI Type Descriptor'
PUBLIC	??_R3CAIInterface@@8				; CAIInterface::`RTTI Class Hierarchy Descriptor'
PUBLIC	??_R2CAIInterface@@8				; CAIInterface::`RTTI Base Class Array'
PUBLIC	__real@00000000
PUBLIC	__real@3c8efa35
PUBLIC	__real@3f800000
PUBLIC	__real@3fc00000
PUBLIC	__real@3fd9999a
PUBLIC	__real@3ff0000000000000
PUBLIC	__real@40900000
PUBLIC	__real@40a00000
PUBLIC	__real@41100000
PUBLIC	__real@41200000
PUBLIC	__real@41f00000
PUBLIC	__real@42652ee0
PUBLIC	__real@42b40000
PUBLIC	__real@42c80000
PUBLIC	__real@42f00000
PUBLIC	__real@43340000
PUBLIC	__real@c2b40000
PUBLIC	__real@c3340000
PUBLIC	__xmm@41f00000000000000000000000000000
PUBLIC	__xmm@7fffffffffffffff7fffffffffffffff
PUBLIC	__xmm@80000000800000008000000080000000
EXTRN	??2@YAPAXI@Z:PROC				; operator new
EXTRN	??3@YAXPAXI@Z:PROC				; operator delete
EXTRN	_atexit:PROC
EXTRN	__Init_thread_header:PROC
EXTRN	__Init_thread_abort:PROC
EXTRN	__Init_thread_footer:PROC
EXTRN	__invoke_watson:PROC
EXTRN	__imp__MulDiv@12:PROC
EXTRN	_exit:PROC
EXTRN	_rand:PROC
EXTRN	___std_exception_copy:PROC
EXTRN	___std_exception_destroy:PROC
EXTRN	??_Eexception@std@@UAEPAXI@Z:PROC		; std::exception::`vector deleting destructor'
EXTRN	??_Ebad_alloc@std@@UAEPAXI@Z:PROC		; std::bad_alloc::`vector deleting destructor'
EXTRN	??_Ebad_array_new_length@std@@UAEPAXI@Z:PROC	; std::bad_array_new_length::`vector deleting destructor'
EXTRN	?_Xlength_error@std@@YAXPBD@Z:PROC		; std::_Xlength_error
EXTRN	??0CTimer@@QAE@XZ:PROC				; CTimer::CTimer
EXTRN	?Reset@CTimer@@UAEXXZ:PROC			; CTimer::Reset
EXTRN	?Over@CTimer@@UAEHXZ:PROC			; CTimer::Over
EXTRN	??_ECTimer@@UAEPAXI@Z:PROC			; CTimer::`vector deleting destructor'
EXTRN	?GetDefineNum@CScript@@SAHPBD@Z:PROC		; CScript::GetDefineNum
EXTRN	?xRandomF@@YAMM@Z:PROC				; xRandomF
EXTRN	?Error@@YAPBDPBDZZ:PROC				; Error
EXTRN	?UpdateLocalMatrix@CObj@@QAEXXZ:PROC		; CObj::UpdateLocalMatrix
EXTRN	?IsRangeObj@CObj@@QAEHPAV1@M@Z:PROC		; CObj::IsRangeObj
EXTRN	?Delete@CObj@@QAEXXZ:PROC			; CObj::Delete
EXTRN	?SetPos@CObj@@QAEXABUD3DXVECTOR3@@@Z:PROC	; CObj::SetPos
EXTRN	?SetAngle@CObj@@QAEXM@Z:PROC			; CObj::SetAngle
EXTRN	?AddAngle@CObj@@QAEXM@Z:PROC			; CObj::AddAngle
EXTRN	?ApplySkill@CCtrl@@QAEXPAV1@PAUItemProp@@PAUAddSkillProp@@_NHHH@Z:PROC ; CCtrl::ApplySkill
EXTRN	_lua_pushnil:PROC
EXTRN	_lua_getglobal:PROC
EXTRN	_lua_getfield:PROC
EXTRN	_lua_next:PROC
EXTRN	??0CLuaBase@@QAE@XZ:PROC			; CLuaBase::CLuaBase
EXTRN	??1CLuaBase@@UAE@XZ:PROC			; CLuaBase::~CLuaBase
EXTRN	?RunScript@CLuaBase@@QAEHPBD@Z:PROC		; CLuaBase::RunScript
EXTRN	?Pop@CLuaBase@@QAEXH@Z:PROC			; CLuaBase::Pop
EXTRN	?GetFieldToNumber@CLuaBase@@QAENHPAD@Z:PROC	; CLuaBase::GetFieldToNumber
EXTRN	?GetFieldToString@CLuaBase@@QAEPBDHPAD@Z:PROC	; CLuaBase::GetFieldToString
EXTRN	?GetFieldToBool@CLuaBase@@QAEHHPAD@Z:PROC	; CLuaBase::GetFieldToBool
EXTRN	?GetAddSkillProp@CProject@@QAEPAUAddSkillProp@@K@Z:PROC ; CProject::GetAddSkillProp
EXTRN	?GetCtrl@CProject@@QAEPAVCCtrl@@K@Z:PROC	; CProject::GetCtrl
EXTRN	?GetMover@CProject@@QAEPAVCMover@@K@Z:PROC	; CProject::GetMover
EXTRN	?GetGold@CItemElem@@QAEHXZ:PROC			; CItemElem::GetGold
EXTRN	?Add@CSfxHitArray@@QAEHHKKKH@Z:PROC		; CSfxHitArray::Add
EXTRN	?RemoveSfxHit@CSfxHitArray@@QAEHHH@Z:PROC	; CSfxHitArray::RemoveSfxHit
EXTRN	??0CAIInterface@@QAE@XZ:PROC			; CAIInterface::CAIInterface
EXTRN	??0CAIInterface@@QAE@PAVCObj@@@Z:PROC		; CAIInterface::CAIInterface
EXTRN	??1CAIInterface@@UAE@XZ:PROC			; CAIInterface::~CAIInterface
EXTRN	?RouteMessage@CAIInterface@@UAEXXZ:PROC		; CAIInterface::RouteMessage
EXTRN	?SendAIMsg@CAIInterface@@UAEXKKKK@Z:PROC	; CAIInterface::SendAIMsg
EXTRN	?PostAIMsg@CAIInterface@@UAEXKKKK@Z:PROC	; CAIInterface::PostAIMsg
EXTRN	?ScanTarget@CAIInterface@@IAEPAVCMover@@PAVCObj@@HHKKH@Z:PROC ; CAIInterface::ScanTarget
EXTRN	?ScanTargetNext@CAIInterface@@IAEPAVCMover@@PAVCObj@@HKK@Z:PROC ; CAIInterface::ScanTargetNext
EXTRN	?SetSpeedFactor@CMover@@QAEXM@Z:PROC		; CMover::SetSpeedFactor
EXTRN	?GetActiveHandItemProp@CMover@@QAEPAUItemProp@@H@Z:PROC ; CMover::GetActiveHandItemProp
EXTRN	?SetDestPos@CMover@@QAEXABUD3DXVECTOR3@@_NH@Z:PROC ; CMover::SetDestPos
EXTRN	?PostAIMsg@CMover@@QAEXKKKK@Z:PROC		; CMover::PostAIMsg
EXTRN	?GetAdjParam@CMover@@QAEHH@Z:PROC		; CMover::GetAdjParam
EXTRN	?SetPointParam@CMover@@QAEXHHH@Z:PROC		; CMover::SetPointParam
EXTRN	?GetName@CMover@@QAEPBDH@Z:PROC			; CMover::GetName
EXTRN	?GetJob@CMover@@QAEHXZ:PROC			; CMover::GetJob
EXTRN	?IncHitPoint@CMover@@QAEXH@Z:PROC		; CMover::IncHitPoint
EXTRN	?IncManaPoint@CMover@@QAEXH@Z:PROC		; CMover::IncManaPoint
EXTRN	?GetSpeed@CMover@@QAEMM@Z:PROC			; CMover::GetSpeed
EXTRN	?AddGold@CMover@@QAEHHH@Z:PROC			; CMover::AddGold
EXTRN	?GetHitPointPercent@CMover@@QAEHH@Z:PROC	; CMover::GetHitPointPercent
EXTRN	?GetManaPoint@CMover@@QAEHXZ:PROC		; CMover::GetManaPoint
EXTRN	?GetMaxHitPoint@CMover@@QAEHXZ:PROC		; CMover::GetMaxHitPoint
EXTRN	?GetMaxManaPoint@CMover@@QAEHXZ:PROC		; CMover::GetMaxManaPoint
EXTRN	?GetHPRecovery@CMover@@QAEHXZ:PROC		; CMover::GetHPRecovery
EXTRN	?RemoveAllEnemies@CMover@@QAEXXZ:PROC		; CMover::RemoveAllEnemies
EXTRN	?GetAttackRange@CMover@@QAEMK@Z:PROC		; CMover::GetAttackRange
EXTRN	?DoAttackRange@CMover@@QAEHPAVCObj@@KH@Z:PROC	; CMover::DoAttackRange
EXTRN	?DoAttackSP@CMover@@QAEHPAVCObj@@K@Z:PROC	; CMover::DoAttackSP
EXTRN	?SetMovePattern@CMover@@QAEXH@Z:PROC		; CMover::SetMovePattern
EXTRN	?SetDestObj@CMover@@QAEXKMH@Z:PROC		; CMover::SetDestObj
EXTRN	?CreateItem@CMover@@QAEHPAVCItemBase@@PAEPAFE@Z:PROC ; CMover::CreateItem
EXTRN	?GetLinkWidth@CLayeredLinkMap@@QAEHKHH@Z:PROC	; CLayeredLinkMap::GetLinkWidth
EXTRN	?GetObj@CLayeredLinkMap@@QAEPAPAVCObj@@KKH@Z:PROC ; CLayeredLinkMap::GetObj
EXTRN	?GetMaxLinkLevel@CLayeredLinkMap@@QAEHKH@Z:PROC	; CLayeredLinkMap::GetMaxLinkLevel
EXTRN	?AddObj@CWorld@@QAEHPAVCObj@@HH@Z:PROC		; CWorld::AddObj
EXTRN	?GetInstance@CPatrolPath@@SAPAV1@XZ:PROC	; CPatrolPath::GetInstance
EXTRN	?GetNextPosInfo@CPatrolPath@@QAEXPAVCObj@@UD3DXVECTOR3@@AAU3@AAU_VECINFO@@@Z:PROC ; CPatrolPath::GetNextPosInfo
EXTRN	??_ECAIMonster@@UAEPAXI@Z:PROC			; CAIMonster::`vector deleting destructor'
EXTRN	?CreateObj@@YAPAVCObj@@PAUIDirect3DDevice9@@KKH@Z:PROC ; CreateObj
EXTRN	?FindMember@CParty@@QAEHK@Z:PROC		; CParty::FindMember
EXTRN	?GetParty@CPartyMng@@QAEPAVCParty@@K@Z:PROC	; CPartyMng::GetParty
EXTRN	?AddDlgEmoticon@CUserMng@@QAEXPAVCCtrl@@H@Z:PROC ; CUserMng::AddDlgEmoticon
EXTRN	?AddSetPos@CUserMng@@QAEXPAVCCtrl@@AAUD3DXVECTOR3@@@Z:PROC ; CUserMng::AddSetPos
EXTRN	?AddMeleeAttack@CUserMng@@QAEXPAVCMover@@KKHH@Z:PROC ; CUserMng::AddMeleeAttack
EXTRN	?AddSetDestAngle@CUserMng@@QAEXPAVCMover@@ME@Z:PROC ; CUserMng::AddSetDestAngle
EXTRN	?AddMoverSetDestObj@CUserMng@@QAEXPAVCMover@@KMH@Z:PROC ; CUserMng::AddMoverSetDestObj
EXTRN	?AddSetMovePattern@CUserMng@@QAEXPAVCMover@@HABUD3DXVECTOR3@@MM@Z:PROC ; CUserMng::AddSetMovePattern
EXTRN	?AddCreateSfxObj@CUserMng@@QAEXPAVCCtrl@@KMMMH@Z:PROC ; CUserMng::AddCreateSfxObj
EXTRN	?AddMotionArrive@CUserMng@@QAEXPAVCMover@@W4OBJMSG@@@Z:PROC ; CUserMng::AddMotionArrive
EXTRN	?AddSetDestPos@CUserMng@@QAEXPAVCMover@@ABUD3DXVECTOR3@@E@Z:PROC ; CUserMng::AddSetDestPos
EXTRN	?GetInstance@CInstanceDungeonHelper@@SAPAV1@XZ:PROC ; CInstanceDungeonHelper::GetInstance
EXTRN	?GetType@CInstanceDungeonHelper@@AAEHK@Z:PROC	; CInstanceDungeonHelper::GetType
EXTRN	@__security_check_cookie@4:PROC
EXTRN	__CIatan2:PROC
EXTRN	__CxxThrowException@8:PROC
EXTRN	___CxxFrameHandler3:PROC
EXTRN	__dtol3:PROC
EXTRN	__libm_sse2_cos_precise:PROC
EXTRN	__libm_sse2_sin_precise:PROC
EXTRN	__libm_sse2_sqrt_precise:PROC
EXTRN	_memmove:PROC
EXTRN	__Init_thread_epoch:DWORD
EXTRN	??_7type_info@@6B@:QWORD			; type_info::`vftable'
EXTRN	?OLD_MPU@@3HB:DWORD				; OLD_MPU
EXTRN	?g_next@@3KA:DWORD				; g_next
EXTRN	?prj@@3VCProject@@A:BYTE			; prj
EXTRN	?g_tmCurrent@@3KA:DWORD				; g_tmCurrent
EXTRN	?g_UserMng@@3VCUserMng@@A:BYTE			; g_UserMng
EXTRN	?g_PartyMng@@3VCPartyMng@@A:BYTE		; g_PartyMng
EXTRN	___security_cookie:DWORD
EXTRN	__fltused:DWORD
EXTRN	__tls_array:DWORD
EXTRN	__tls_index:DWORD
;	COMDAT ?sMonsterSkill@?1??GetInstance@CMonsterSkill@@SAPAV2@XZ@4V2@A
_BSS	SEGMENT
?sMonsterSkill@?1??GetInstance@CMonsterSkill@@SAPAV2@XZ@4V2@A DQ 01H DUP (?) ; `CMonsterSkill::GetInstance'::`2'::sMonsterSkill
_BSS	ENDS
;	COMDAT ?$TSS0@?1??GetInstance@CMonsterSkill@@SAPAV2@XZ@4HA
_BSS	SEGMENT
?$TSS0@?1??GetInstance@CMonsterSkill@@SAPAV2@XZ@4HA DD 01H DUP (?) ; `CMonsterSkill::GetInstance'::`2'::$TSS0
_BSS	ENDS
;	COMDAT __xmm@80000000800000008000000080000000
CONST	SEGMENT
__xmm@80000000800000008000000080000000 DB 00H, 00H, 00H, 080H, 00H, 00H, 00H
	DB	080H, 00H, 00H, 00H, 080H, 00H, 00H, 00H, 080H
CONST	ENDS
;	COMDAT __xmm@7fffffffffffffff7fffffffffffffff
CONST	SEGMENT
__xmm@7fffffffffffffff7fffffffffffffff DB 0ffH, 0ffH, 0ffH, 0ffH, 0ffH, 0ffH
	DB	0ffH, 07fH, 0ffH, 0ffH, 0ffH, 0ffH, 0ffH, 0ffH, 0ffH, 07fH
CONST	ENDS
;	COMDAT __xmm@41f00000000000000000000000000000
CONST	SEGMENT
__xmm@41f00000000000000000000000000000 DB 00H, 00H, 00H, 00H, 00H, 00H, 00H
	DB	00H, 00H, 00H, 00H, 00H, 00H, 00H, 0f0H, 'A'
CONST	ENDS
;	COMDAT __real@c3340000
CONST	SEGMENT
__real@c3340000 DD 0c3340000r			; -180
CONST	ENDS
;	COMDAT __real@c2b40000
CONST	SEGMENT
__real@c2b40000 DD 0c2b40000r			; -90
CONST	ENDS
;	COMDAT __real@43340000
CONST	SEGMENT
__real@43340000 DD 043340000r			; 180
CONST	ENDS
;	COMDAT __real@42f00000
CONST	SEGMENT
__real@42f00000 DD 042f00000r			; 120
CONST	ENDS
;	COMDAT __real@42c80000
CONST	SEGMENT
__real@42c80000 DD 042c80000r			; 100
CONST	ENDS
;	COMDAT __real@42b40000
CONST	SEGMENT
__real@42b40000 DD 042b40000r			; 90
CONST	ENDS
;	COMDAT __real@42652ee0
CONST	SEGMENT
__real@42652ee0 DD 042652ee0r			; 57.2958
CONST	ENDS
;	COMDAT __real@41f00000
CONST	SEGMENT
__real@41f00000 DD 041f00000r			; 30
CONST	ENDS
;	COMDAT __real@41200000
CONST	SEGMENT
__real@41200000 DD 041200000r			; 10
CONST	ENDS
;	COMDAT __real@41100000
CONST	SEGMENT
__real@41100000 DD 041100000r			; 9
CONST	ENDS
;	COMDAT __real@40a00000
CONST	SEGMENT
__real@40a00000 DD 040a00000r			; 5
CONST	ENDS
;	COMDAT __real@40900000
CONST	SEGMENT
__real@40900000 DD 040900000r			; 4.5
CONST	ENDS
;	COMDAT __real@3ff0000000000000
CONST	SEGMENT
__real@3ff0000000000000 DQ 03ff0000000000000r	; 1
CONST	ENDS
;	COMDAT __real@3fd9999a
CONST	SEGMENT
__real@3fd9999a DD 03fd9999ar			; 1.7
CONST	ENDS
;	COMDAT __real@3fc00000
CONST	SEGMENT
__real@3fc00000 DD 03fc00000r			; 1.5
CONST	ENDS
;	COMDAT __real@3f800000
CONST	SEGMENT
__real@3f800000 DD 03f800000r			; 1
CONST	ENDS
;	COMDAT __real@3c8efa35
CONST	SEGMENT
__real@3c8efa35 DD 03c8efa35r			; 0.0174533
CONST	ENDS
;	COMDAT __real@00000000
CONST	SEGMENT
__real@00000000 DD 000000000r			; 0
CONST	ENDS
;	COMDAT ??_R2CAIInterface@@8
rdata$r	SEGMENT
??_R2CAIInterface@@8 DD FLAT:??_R1A@?0A@EA@CAIInterface@@8 ; CAIInterface::`RTTI Base Class Array'
rdata$r	ENDS
;	COMDAT ??_R3CAIInterface@@8
rdata$r	SEGMENT
??_R3CAIInterface@@8 DD 00H				; CAIInterface::`RTTI Class Hierarchy Descriptor'
	DD	00H
	DD	01H
	DD	FLAT:??_R2CAIInterface@@8
rdata$r	ENDS
;	COMDAT ??_R0?AVCAIInterface@@@8
data$rs	SEGMENT
??_R0?AVCAIInterface@@@8 DD FLAT:??_7type_info@@6B@	; CAIInterface `RTTI Type Descriptor'
	DD	00H
	DB	'.?AVCAIInterface@@', 00H
data$rs	ENDS
;	COMDAT ??_R1A@?0A@EA@CAIInterface@@8
rdata$r	SEGMENT
??_R1A@?0A@EA@CAIInterface@@8 DD FLAT:??_R0?AVCAIInterface@@@8 ; CAIInterface::`RTTI Base Class Descriptor at (0,-1,0,64)'
	DD	00H
	DD	00H
	DD	0ffffffffH
	DD	00H
	DD	040H
	DD	FLAT:??_R3CAIInterface@@8
rdata$r	ENDS
;	COMDAT ??_R1A@?0A@EA@CAIMonster@@8
rdata$r	SEGMENT
??_R1A@?0A@EA@CAIMonster@@8 DD FLAT:??_R0?AVCAIMonster@@@8 ; CAIMonster::`RTTI Base Class Descriptor at (0,-1,0,64)'
	DD	01H
	DD	00H
	DD	0ffffffffH
	DD	00H
	DD	040H
	DD	FLAT:??_R3CAIMonster@@8
rdata$r	ENDS
;	COMDAT ??_R2CAIMonster@@8
rdata$r	SEGMENT
??_R2CAIMonster@@8 DD FLAT:??_R1A@?0A@EA@CAIMonster@@8	; CAIMonster::`RTTI Base Class Array'
	DD	FLAT:??_R1A@?0A@EA@CAIInterface@@8
rdata$r	ENDS
;	COMDAT ??_R3CAIMonster@@8
rdata$r	SEGMENT
??_R3CAIMonster@@8 DD 00H				; CAIMonster::`RTTI Class Hierarchy Descriptor'
	DD	00H
	DD	02H
	DD	FLAT:??_R2CAIMonster@@8
rdata$r	ENDS
;	COMDAT ??_R0?AVCAIMonster@@@8
data$rs	SEGMENT
??_R0?AVCAIMonster@@@8 DD FLAT:??_7type_info@@6B@	; CAIMonster `RTTI Type Descriptor'
	DD	00H
	DB	'.?AVCAIMonster@@', 00H
data$rs	ENDS
;	COMDAT ??_R4CAIMonster@@6B@
rdata$r	SEGMENT
??_R4CAIMonster@@6B@ DD 00H				; CAIMonster::`RTTI Complete Object Locator'
	DD	00H
	DD	00H
	DD	FLAT:??_R0?AVCAIMonster@@@8
	DD	FLAT:??_R3CAIMonster@@8
rdata$r	ENDS
;	COMDAT ??_C@_0EF@PCDPMBLE@Out?5of?5Skill?5Level?5Range?5?9?$DO?5CMo@
CONST	SEGMENT
??_C@_0EF@PCDPMBLE@Out?5of?5Skill?5Level?5Range?5?9?$DO?5CMo@ DB 'Out of '
	DB	'Skill Level Range -> CMonsterSkill::LoadScript() - %d, %s, %d'
	DB	00H						; `string'
CONST	ENDS
;	COMDAT ??_C@_07MGMJIFLN@bIgnore@
CONST	SEGMENT
??_C@_07MGMJIFLN@bIgnore@ DB 'bIgnore', 00H		; `string'
CONST	ENDS
;	COMDAT ??_C@_0M@NLMOEPJG@dwSkillTime@
CONST	SEGMENT
??_C@_0M@NLMOEPJG@dwSkillTime@ DB 'dwSkillTime', 00H	; `string'
CONST	ENDS
;	COMDAT ??_C@_05JBKGBCJC@nProb@
CONST	SEGMENT
??_C@_05JBKGBCJC@nProb@ DB 'nProb', 00H			; `string'
CONST	ENDS
;	COMDAT ??_C@_06NCOFCCEP@nRange@
CONST	SEGMENT
??_C@_06NCOFCCEP@nRange@ DB 'nRange', 00H		; `string'
CONST	ENDS
;	COMDAT ??_C@_09KGMHNPNF@nHitCount@
CONST	SEGMENT
??_C@_09KGMHNPNF@nHitCount@ DB 'nHitCount', 00H		; `string'
CONST	ENDS
;	COMDAT ??_C@_09IPFHBE@dwSkillLv@
CONST	SEGMENT
??_C@_09IPFHBE@dwSkillLv@ DB 'dwSkillLv', 00H		; `string'
CONST	ENDS
;	COMDAT ??_C@_0L@PMEEMMOD@strSkillId@
CONST	SEGMENT
??_C@_0L@PMEEMMOD@strSkillId@ DB 'strSkillId', 00H	; `string'
CONST	ENDS
;	COMDAT ??_C@_0L@KFDIAIK@nAtkMethod@
CONST	SEGMENT
??_C@_0L@KFDIAIK@nAtkMethod@ DB 'nAtkMethod', 00H	; `string'
CONST	ENDS
;	COMDAT ??_C@_06NAOHEGNK@tSkill@
CONST	SEGMENT
??_C@_06NAOHEGNK@tSkill@ DB 'tSkill', 00H		; `string'
CONST	ENDS
;	COMDAT ??_C@_0N@PIEFIFMF@strMonsterId@
CONST	SEGMENT
??_C@_0N@PIEFIFMF@strMonsterId@ DB 'strMonsterId', 00H	; `string'
CONST	ENDS
;	COMDAT ??_C@_0O@IGNMFEAI@tMonsterSkill@
CONST	SEGMENT
??_C@_0O@IGNMFEAI@tMonsterSkill@ DB 'tMonsterSkill', 00H ; `string'
CONST	ENDS
;	COMDAT ??_C@_0BP@NFKMDA@MonsterSkill?4lua?5Run?5Failed?$CB?$CB?$CB@
CONST	SEGMENT
??_C@_0BP@NFKMDA@MonsterSkill?4lua?5Run?5Failed?$CB?$CB?$CB@ DB 'MonsterS'
	DB	'kill.lua Run Failed!!!', 00H		; `string'
CONST	ENDS
;	COMDAT ??_C@_0BB@MKLOFGLI@MonsterSkill?4lua@
CONST	SEGMENT
??_C@_0BB@MKLOFGLI@MonsterSkill?4lua@ DB 'MonsterSkill.lua', 00H ; `string'
CONST	ENDS
;	COMDAT ??_C@_0CL@OIBCKMKI@CAIMonster?3?3MoverProcessRage?5?3?5@
CONST	SEGMENT
??_C@_0CL@OIBCKMKI@CAIMonster?3?3MoverProcessRage?5?3?5@ DB 'CAIMonster::'
	DB	'MoverProcessRage : ', 0b9H, 0fcH, 0c0H, 0a7H, 0c4H, 0a7H, 0b9H
	DB	0fcH, ' %d', 00H				; `string'
CONST	ENDS
;	COMDAT ??_C@_0CA@NDHMDKEO@SubSummonProcess?5?3?5?$LM?R?H?$KP?5?$LN?G?F?P?5?$CFd@
CONST	SEGMENT
??_C@_0CA@NDHMDKEO@SubSummonProcess?5?3?5?$LM?R?H?$KP?5?$LN?G?F?P?5?$CFd@ DB 'S'
	DB	'ubSummonProcess : ', 0bcH, 0d2H, 0c8H, 0afH, ' ', 0bdH, 0c7H, 0c6H
	DB	0d0H, ' %d', 00H				; `string'
CONST	ENDS
;	COMDAT ??_C@_0CF@PNLKMPKB@?$LA?f?$LA?m?5?3?5?$CFs?$MA?G?5?$LA?x?$LA?$NN?$CFd?$LA?$KB?5?A?v?A?$KE?$LF?G?A?v?5?$LO@
CONST	SEGMENT
??_C@_0CF@PNLKMPKB@?$LA?f?$LA?m?5?3?5?$CFs?$MA?G?5?$LA?x?$LA?$NN?$CFd?$LA?$KB?5?A?v?A?$KE?$LF?G?A?v?5?$LO@ DB 0b0H
	DB	0e6H, 0b0H, 0edH, ' : %s', 0c0H, 0c7H, ' ', 0b0H, 0f8H, 0b0H, 0ddH
	DB	'%d', 0b0H, 0a1H, ' ', 0c1H, 0f6H, 0c1H, 0a4H, 0b5H, 0c7H, 0c1H
	DB	0f6H, ' ', 0beH, 0caH, 0beH, 0d2H, 0b4H, 0d9H, 00H ; `string'
CONST	ENDS
;	COMDAT ??_C@_0CF@GPCLPLOG@?$LA?f?$LA?m?5?3?5?$CFs?$MA?G?5dwAtk2?$LA?$KB?5?A?v?A?$KE?$LF?G?A?v?5?$LO@
CONST	SEGMENT
??_C@_0CF@GPCLPLOG@?$LA?f?$LA?m?5?3?5?$CFs?$MA?G?5dwAtk2?$LA?$KB?5?A?v?A?$KE?$LF?G?A?v?5?$LO@ DB 0b0H
	DB	0e6H, 0b0H, 0edH, ' : %s', 0c0H, 0c7H, ' dwAtk2', 0b0H, 0a1H, ' '
	DB	0c1H, 0f6H, 0c1H, 0a4H, 0b5H, 0c7H, 0c1H, 0f6H, ' ', 0beH, 0caH
	DB	0beH, 0d2H, 0b4H, 0d9H, 00H			; `string'
CONST	ENDS
;	COMDAT ??_C@_0CA@LGFOMACB@CAIMonster?3?3DoAttack?5?3?5?$CFs?5?$CFd?5?$CFd@
CONST	SEGMENT
??_C@_0CA@LGFOMACB@CAIMonster?3?3DoAttack?5?3?5?$CFs?5?$CFd?5?$CFd@ DB 'C'
	DB	'AIMonster::DoAttack : %s %d %d', 00H	; `string'
CONST	ENDS
;	COMDAT ??_C@_0CA@GLBIGGGO@m_nAttackFirstRange?5?$MA?L?$LL?s?3?$CFd?5?$CFs?6@
CONST	SEGMENT
??_C@_0CA@GLBIGGGO@m_nAttackFirstRange?5?$MA?L?$LL?s?3?$CFd?5?$CFs?6@ DB 'm'
	DB	'_nAttackFirstRange ', 0c0H, 0ccH, 0bbH, 0f3H, ':%d %s', 0aH, 00H ; `string'
CONST	ENDS
;	COMDAT ??_R1A@?0A@EA@CTimer@@8
rdata$r	SEGMENT
??_R1A@?0A@EA@CTimer@@8 DD FLAT:??_R0?AVCTimer@@@8	; CTimer::`RTTI Base Class Descriptor at (0,-1,0,64)'
	DD	00H
	DD	00H
	DD	0ffffffffH
	DD	00H
	DD	040H
	DD	FLAT:??_R3CTimer@@8
rdata$r	ENDS
;	COMDAT ??_R2CTimer@@8
rdata$r	SEGMENT
??_R2CTimer@@8 DD FLAT:??_R1A@?0A@EA@CTimer@@8		; CTimer::`RTTI Base Class Array'
rdata$r	ENDS
;	COMDAT ??_R3CTimer@@8
rdata$r	SEGMENT
??_R3CTimer@@8 DD 00H					; CTimer::`RTTI Class Hierarchy Descriptor'
	DD	00H
	DD	01H
	DD	FLAT:??_R2CTimer@@8
rdata$r	ENDS
;	COMDAT ??_R0?AVCTimer@@@8
data$rs	SEGMENT
??_R0?AVCTimer@@@8 DD FLAT:??_7type_info@@6B@		; CTimer `RTTI Type Descriptor'
	DD	00H
	DB	'.?AVCTimer@@', 00H
data$rs	ENDS
;	COMDAT ??_R4CTimer@@6B@
rdata$r	SEGMENT
??_R4CTimer@@6B@ DD 00H					; CTimer::`RTTI Complete Object Locator'
	DD	00H
	DD	00H
	DD	FLAT:??_R0?AVCTimer@@@8
	DD	FLAT:??_R3CTimer@@8
rdata$r	ENDS
;	COMDAT ??_R4bad_alloc@std@@6B@
rdata$r	SEGMENT
??_R4bad_alloc@std@@6B@ DD 00H				; std::bad_alloc::`RTTI Complete Object Locator'
	DD	00H
	DD	00H
	DD	FLAT:??_R0?AVbad_alloc@std@@@8
	DD	FLAT:??_R3bad_alloc@std@@8
rdata$r	ENDS
;	COMDAT ??_R2bad_alloc@std@@8
rdata$r	SEGMENT
??_R2bad_alloc@std@@8 DD FLAT:??_R1A@?0A@EA@bad_alloc@std@@8 ; std::bad_alloc::`RTTI Base Class Array'
	DD	FLAT:??_R1A@?0A@EA@exception@std@@8
rdata$r	ENDS
;	COMDAT ??_R3bad_alloc@std@@8
rdata$r	SEGMENT
??_R3bad_alloc@std@@8 DD 00H				; std::bad_alloc::`RTTI Class Hierarchy Descriptor'
	DD	00H
	DD	02H
	DD	FLAT:??_R2bad_alloc@std@@8
rdata$r	ENDS
;	COMDAT ??_R1A@?0A@EA@bad_alloc@std@@8
rdata$r	SEGMENT
??_R1A@?0A@EA@bad_alloc@std@@8 DD FLAT:??_R0?AVbad_alloc@std@@@8 ; std::bad_alloc::`RTTI Base Class Descriptor at (0,-1,0,64)'
	DD	01H
	DD	00H
	DD	0ffffffffH
	DD	00H
	DD	040H
	DD	FLAT:??_R3bad_alloc@std@@8
rdata$r	ENDS
;	COMDAT ??_R1A@?0A@EA@bad_array_new_length@std@@8
rdata$r	SEGMENT
??_R1A@?0A@EA@bad_array_new_length@std@@8 DD FLAT:??_R0?AVbad_array_new_length@std@@@8 ; std::bad_array_new_length::`RTTI Base Class Descriptor at (0,-1,0,64)'
	DD	02H
	DD	00H
	DD	0ffffffffH
	DD	00H
	DD	040H
	DD	FLAT:??_R3bad_array_new_length@std@@8
rdata$r	ENDS
;	COMDAT ??_R2bad_array_new_length@std@@8
rdata$r	SEGMENT
??_R2bad_array_new_length@std@@8 DD FLAT:??_R1A@?0A@EA@bad_array_new_length@std@@8 ; std::bad_array_new_length::`RTTI Base Class Array'
	DD	FLAT:??_R1A@?0A@EA@bad_alloc@std@@8
	DD	FLAT:??_R1A@?0A@EA@exception@std@@8
rdata$r	ENDS
;	COMDAT ??_R3bad_array_new_length@std@@8
rdata$r	SEGMENT
??_R3bad_array_new_length@std@@8 DD 00H			; std::bad_array_new_length::`RTTI Class Hierarchy Descriptor'
	DD	00H
	DD	03H
	DD	FLAT:??_R2bad_array_new_length@std@@8
rdata$r	ENDS
;	COMDAT ??_R4bad_array_new_length@std@@6B@
rdata$r	SEGMENT
??_R4bad_array_new_length@std@@6B@ DD 00H		; std::bad_array_new_length::`RTTI Complete Object Locator'
	DD	00H
	DD	00H
	DD	FLAT:??_R0?AVbad_array_new_length@std@@@8
	DD	FLAT:??_R3bad_array_new_length@std@@8
rdata$r	ENDS
;	COMDAT ??_R1A@?0A@EA@exception@std@@8
rdata$r	SEGMENT
??_R1A@?0A@EA@exception@std@@8 DD FLAT:??_R0?AVexception@std@@@8 ; std::exception::`RTTI Base Class Descriptor at (0,-1,0,64)'
	DD	00H
	DD	00H
	DD	0ffffffffH
	DD	00H
	DD	040H
	DD	FLAT:??_R3exception@std@@8
rdata$r	ENDS
;	COMDAT ??_R2exception@std@@8
rdata$r	SEGMENT
??_R2exception@std@@8 DD FLAT:??_R1A@?0A@EA@exception@std@@8 ; std::exception::`RTTI Base Class Array'
rdata$r	ENDS
;	COMDAT ??_R3exception@std@@8
rdata$r	SEGMENT
??_R3exception@std@@8 DD 00H				; std::exception::`RTTI Class Hierarchy Descriptor'
	DD	00H
	DD	01H
	DD	FLAT:??_R2exception@std@@8
rdata$r	ENDS
;	COMDAT ??_R4exception@std@@6B@
rdata$r	SEGMENT
??_R4exception@std@@6B@ DD 00H				; std::exception::`RTTI Complete Object Locator'
	DD	00H
	DD	00H
	DD	FLAT:??_R0?AVexception@std@@@8
	DD	FLAT:??_R3exception@std@@8
rdata$r	ENDS
;	COMDAT ??_C@_0BA@FOIKENOD@vector?5too?5long@
CONST	SEGMENT
??_C@_0BA@FOIKENOD@vector?5too?5long@ DB 'vector too long', 00H ; `string'
CONST	ENDS
;	COMDAT ??_7CAIMonster@@6B@
CONST	SEGMENT
??_7CAIMonster@@6B@ DD FLAT:??_R4CAIMonster@@6B@	; CAIMonster::`vftable'
	DD	FLAT:?GetStateMap@CAIMonster@@UBEPBUSTATEMAP@@XZ
	DD	FLAT:??_ECAIMonster@@UAEPAXI@Z
	DD	FLAT:?RouteMessage@CAIInterface@@UAEXXZ
	DD	FLAT:?SendAIMsg@CAIInterface@@UAEXKKKK@Z
	DD	FLAT:?PostAIMsg@CAIInterface@@UAEXKKKK@Z
	DD	FLAT:?InitAI@CAIMonster@@UAEXXZ
	DD	FLAT:?IsReturnToBegin@CAIMonster@@UAEHXZ
CONST	ENDS
_DATA	SEGMENT
?stateMapEntries@CAIMonster@@2QBUSTATEMAP_ENTRIES@@B DD 01H ; CAIMonster::stateMapEntries
	ORG $+4
	DD	FLAT:?StateInit@CAIMonster@@IAEHABUAIMSG@@@Z
	DD	00H
	DD	00H
	DD	00H
	DD	02H
	DB	4 DUP(00H)
	DD	FLAT:?StateIdle@CAIMonster@@IAEHABUAIMSG@@@Z
	DD	00H
	DD	00H
	DD	00H
	DD	03H
	DB	4 DUP(00H)
	DD	FLAT:?StateWander@CAIMonster@@IAEHABUAIMSG@@@Z
	DD	00H
	DD	00H
	DD	00H
	DD	05H
	DB	4 DUP(00H)
	DD	FLAT:?StateEvade@CAIMonster@@IAEHABUAIMSG@@@Z
	DD	00H
	DD	00H
	DD	00H
	DD	07H
	DB	4 DUP(00H)
	DD	FLAT:?StateRage@CAIMonster@@IAEHABUAIMSG@@@Z
	DD	00H
	DD	00H
	DD	00H
	DD	06H
	DB	4 DUP(00H)
	DD	FLAT:?StateRunaway@CAIMonster@@IAEHABUAIMSG@@@Z
	DD	00H
	DD	00H
	DD	00H
	DD	08H
	DB	4 DUP(00H)
	DD	FLAT:?StateStand@CAIMonster@@IAEHABUAIMSG@@@Z
	DD	00H
	DD	00H
	DD	00H
	DD	09H
	DB	4 DUP(00H)
	DD	FLAT:?StatePatrol@CAIMonster@@IAEHABUAIMSG@@@Z
	DD	00H
	DD	00H
	DD	00H
	DD	0aH
	DB	4 DUP(00H)
	DD	FLAT:?StateRagePatrol@CAIMonster@@IAEHABUAIMSG@@@Z
	DD	00H
	DD	00H
	DD	00H
	DD	00H
	DB	4 DUP(00H)
	DD	00H
	DD	00H
	DD	00H
	DD	0ffffffffH
?s_tmAttack@@3KA DD 03a98H				; s_tmAttack
_DATA	ENDS
;	COMDAT ??_C@_0BJ@GKPOBPPI@GetMoverProp?5range_error@
CONST	SEGMENT
??_C@_0BJ@GKPOBPPI@GetMoverProp?5range_error@ DB 'GetMoverProp range_erro'
	DB	'r', 00H					; `string'
CONST	ENDS
;	COMDAT ??_C@_0BJ@GPNGCFMK@GetSkillProp?5range_error@
CONST	SEGMENT
??_C@_0BJ@GPNGCFMK@GetSkillProp?5range_error@ DB 'GetSkillProp range_erro'
	DB	'r', 00H					; `string'
CONST	ENDS
;	COMDAT ??_C@_0BI@BEIFNGEL@GetItemProp?5range_error@
CONST	SEGMENT
??_C@_0BI@BEIFNGEL@GetItemProp?5range_error@ DB 'GetItemProp range_error', 00H ; `string'
CONST	ENDS
;	COMDAT ??_C@_0BM@HMFGHCP@?$CFs?5min?3?$CFd?0?5max?3?$CFd?0?5index?3?$CFd@
CONST	SEGMENT
??_C@_0BM@HMFGHCP@?$CFs?5min?3?$CFd?0?5max?3?$CFd?0?5index?3?$CFd@ DB '%s'
	DB	' min:%d, max:%d, index:%d', 00H		; `string'
CONST	ENDS
;	COMDAT ??_7CTimer@@6B@
CONST	SEGMENT
??_7CTimer@@6B@ DD FLAT:??_R4CTimer@@6B@		; CTimer::`vftable'
	DD	FLAT:??_ECTimer@@UAEPAXI@Z
	DD	FLAT:?Reset@CTimer@@UAEXXZ
	DD	FLAT:?Over@CTimer@@UAEHXZ
CONST	ENDS
;	COMDAT ??_C@_0BB@GCADKGJO@map?1set?5too?5long@
CONST	SEGMENT
??_C@_0BB@GCADKGJO@map?1set?5too?5long@ DB 'map/set too long', 00H ; `string'
CONST	ENDS
;	COMDAT __CT??_R0?AVbad_alloc@std@@@8??0bad_alloc@std@@QAE@ABV01@@Z12
xdata$x	SEGMENT
__CT??_R0?AVbad_alloc@std@@@8??0bad_alloc@std@@QAE@ABV01@@Z12 DD 010H
	DD	FLAT:??_R0?AVbad_alloc@std@@@8
	DD	00H
	DD	0ffffffffH
	ORG $+4
	DD	0cH
	DD	FLAT:??0bad_alloc@std@@QAE@ABV01@@Z
xdata$x	ENDS
;	COMDAT ??_R0?AVbad_alloc@std@@@8
data$r	SEGMENT
??_R0?AVbad_alloc@std@@@8 DD FLAT:??_7type_info@@6B@	; std::bad_alloc `RTTI Type Descriptor'
	DD	00H
	DB	'.?AVbad_alloc@std@@', 00H
data$r	ENDS
;	COMDAT __CT??_R0?AVbad_array_new_length@std@@@8??0bad_array_new_length@std@@QAE@ABV01@@Z12
xdata$x	SEGMENT
__CT??_R0?AVbad_array_new_length@std@@@8??0bad_array_new_length@std@@QAE@ABV01@@Z12 DD 00H
	DD	FLAT:??_R0?AVbad_array_new_length@std@@@8
	DD	00H
	DD	0ffffffffH
	ORG $+4
	DD	0cH
	DD	FLAT:??0bad_array_new_length@std@@QAE@ABV01@@Z
xdata$x	ENDS
;	COMDAT ??_R0?AVbad_array_new_length@std@@@8
data$r	SEGMENT
??_R0?AVbad_array_new_length@std@@@8 DD FLAT:??_7type_info@@6B@ ; std::bad_array_new_length `RTTI Type Descriptor'
	DD	00H
	DB	'.?AVbad_array_new_length@std@@', 00H
data$r	ENDS
;	COMDAT __CTA3?AVbad_array_new_length@std@@
xdata$x	SEGMENT
__CTA3?AVbad_array_new_length@std@@ DD 03H
	DD	FLAT:__CT??_R0?AVbad_array_new_length@std@@@8??0bad_array_new_length@std@@QAE@ABV01@@Z12
	DD	FLAT:__CT??_R0?AVbad_alloc@std@@@8??0bad_alloc@std@@QAE@ABV01@@Z12
	DD	FLAT:__CT??_R0?AVexception@std@@@8??0exception@std@@QAE@ABV01@@Z12
xdata$x	ENDS
;	COMDAT __TI3?AVbad_array_new_length@std@@
xdata$x	SEGMENT
__TI3?AVbad_array_new_length@std@@ DD 00H
	DD	FLAT:??1bad_array_new_length@std@@UAE@XZ
	DD	00H
	DD	FLAT:__CTA3?AVbad_array_new_length@std@@
xdata$x	ENDS
;	COMDAT __CT??_R0?AVexception@std@@@8??0exception@std@@QAE@ABV01@@Z12
xdata$x	SEGMENT
__CT??_R0?AVexception@std@@@8??0exception@std@@QAE@ABV01@@Z12 DD 00H
	DD	FLAT:??_R0?AVexception@std@@@8
	DD	00H
	DD	0ffffffffH
	ORG $+4
	DD	0cH
	DD	FLAT:??0exception@std@@QAE@ABV01@@Z
xdata$x	ENDS
;	COMDAT ??_R0?AVexception@std@@@8
data$r	SEGMENT
??_R0?AVexception@std@@@8 DD FLAT:??_7type_info@@6B@	; std::exception `RTTI Type Descriptor'
	DD	00H
	DB	'.?AVexception@std@@', 00H
data$r	ENDS
;	COMDAT ??_C@_0BF@KINCDENJ@bad?5array?5new?5length@
CONST	SEGMENT
??_C@_0BF@KINCDENJ@bad?5array?5new?5length@ DB 'bad array new length', 00H ; `string'
CONST	ENDS
;	COMDAT ??_7bad_array_new_length@std@@6B@
CONST	SEGMENT
??_7bad_array_new_length@std@@6B@ DD FLAT:??_R4bad_array_new_length@std@@6B@ ; std::bad_array_new_length::`vftable'
	DD	FLAT:??_Ebad_array_new_length@std@@UAEPAXI@Z
	DD	FLAT:?what@exception@std@@UBEPBDXZ
CONST	ENDS
;	COMDAT ??_7bad_alloc@std@@6B@
CONST	SEGMENT
??_7bad_alloc@std@@6B@ DD FLAT:??_R4bad_alloc@std@@6B@	; std::bad_alloc::`vftable'
	DD	FLAT:??_Ebad_alloc@std@@UAEPAXI@Z
	DD	FLAT:?what@exception@std@@UBEPBDXZ
CONST	ENDS
;	COMDAT ??_C@_0BC@EOODALEL@Unknown?5exception@
CONST	SEGMENT
??_C@_0BC@EOODALEL@Unknown?5exception@ DB 'Unknown exception', 00H ; `string'
CONST	ENDS
;	COMDAT ??_7exception@std@@6B@
CONST	SEGMENT
??_7exception@std@@6B@ DD FLAT:??_R4exception@std@@6B@	; std::exception::`vftable'
	DD	FLAT:??_Eexception@std@@UAEPAXI@Z
	DD	FLAT:?what@exception@std@@UBEPBDXZ
CONST	ENDS
;	COMDAT xdata$x
xdata$x	SEGMENT
__unwindtable$??$?0U?$pair@KV?$vector@U__MONSTERSKILL@@V?$allocator@U__MONSTERSKILL@@@std@@@std@@@std@@@?$_Tree_temp_node@V?$allocator@U?$_Tree_node@U?$pair@$$CBKV?$vector@U__MONSTERSKILL@@V?$allocator@U__MONSTERSKILL@@@std@@@std@@@std@@PAX@std@@@std@@@std@@QAE@AAV?$allocator@U?$_Tree_node@U?$pair@$$CBKV?$vector@U__MONSTERSKILL@@V?$allocator@U__MONSTERSKILL@@@std@@@std@@@std@@PAX@std@@@1@PAU?$_Tree_node@U?$pair@$$CBKV?$vector@U__MONSTERSKILL@@V?$allocator@U__MONSTERSKILL@@@std@@@std@@@std@@PAX@1@$$QAU?$pair@KV?$vector@U__MONSTERSKILL@@V?$allocator@U__MONSTERSKILL@@@std@@@std@@@1@@Z DD 0ffffffffH
	DD	FLAT:__unwindfunclet$??$?0U?$pair@KV?$vector@U__MONSTERSKILL@@V?$allocator@U__MONSTERSKILL@@@std@@@std@@@std@@@?$_Tree_temp_node@V?$allocator@U?$_Tree_node@U?$pair@$$CBKV?$vector@U__MONSTERSKILL@@V?$allocator@U__MONSTERSKILL@@@std@@@std@@@std@@PAX@std@@@std@@@std@@QAE@AAV?$allocator@U?$_Tree_node@U?$pair@$$CBKV?$vector@U__MONSTERSKILL@@V?$allocator@U__MONSTERSKILL@@@std@@@std@@@std@@PAX@std@@@1@PAU?$_Tree_node@U?$pair@$$CBKV?$vector@U__MONSTERSKILL@@V?$allocator@U__MONSTERSKILL@@@std@@@std@@@std@@PAX@1@$$QAU?$pair@KV?$vector@U__MONSTERSKILL@@V?$allocator@U__MONSTERSKILL@@@std@@@std@@@1@@Z$1
__ehfuncinfo$??$?0U?$pair@KV?$vector@U__MONSTERSKILL@@V?$allocator@U__MONSTERSKILL@@@std@@@std@@@std@@@?$_Tree_temp_node@V?$allocator@U?$_Tree_node@U?$pair@$$CBKV?$vector@U__MONSTERSKILL@@V?$allocator@U__MONSTERSKILL@@@std@@@std@@@std@@PAX@std@@@std@@@std@@QAE@AAV?$allocator@U?$_Tree_node@U?$pair@$$CBKV?$vector@U__MONSTERSKILL@@V?$allocator@U__MONSTERSKILL@@@std@@@std@@@std@@PAX@std@@@1@PAU?$_Tree_node@U?$pair@$$CBKV?$vector@U__MONSTERSKILL@@V?$allocator@U__MONSTERSKILL@@@std@@@std@@@std@@PAX@1@$$QAU?$pair@KV?$vector@U__MONSTERSKILL@@V?$allocator@U__MONSTERSKILL@@@std@@@std@@@1@@Z DD 019930522H
	DD	01H
	DD	FLAT:__unwindtable$??$?0U?$pair@KV?$vector@U__MONSTERSKILL@@V?$allocator@U__MONSTERSKILL@@@std@@@std@@@std@@@?$_Tree_temp_node@V?$allocator@U?$_Tree_node@U?$pair@$$CBKV?$vector@U__MONSTERSKILL@@V?$allocator@U__MONSTERSKILL@@@std@@@std@@@std@@PAX@std@@@std@@@std@@QAE@AAV?$allocator@U?$_Tree_node@U?$pair@$$CBKV?$vector@U__MONSTERSKILL@@V?$allocator@U__MONSTERSKILL@@@std@@@std@@@std@@PAX@std@@@1@PAU?$_Tree_node@U?$pair@$$CBKV?$vector@U__MONSTERSKILL@@V?$allocator@U__MONSTERSKILL@@@std@@@std@@@std@@PAX@1@$$QAU?$pair@KV?$vector@U__MONSTERSKILL@@V?$allocator@U__MONSTERSKILL@@@std@@@std@@@1@@Z
	DD	2 DUP(00H)
	DD	2 DUP(00H)
	DD	00H
	DD	01H
xdata$x	ENDS
;	COMDAT xdata$x
xdata$x	SEGMENT
__unwindtable$??0?$_Tree_temp_node_alloc@V?$allocator@U?$_Tree_node@U?$pair@$$CBKV?$vector@U__MONSTERSKILL@@V?$allocator@U__MONSTERSKILL@@@std@@@std@@@std@@PAX@std@@@std@@@std@@QAE@AAV?$allocator@U?$_Tree_node@U?$pair@$$CBKV?$vector@U__MONSTERSKILL@@V?$allocator@U__MONSTERSKILL@@@std@@@std@@@std@@PAX@std@@@1@@Z DD 0ffffffffH
	DD	FLAT:__unwindfunclet$??0?$_Tree_temp_node_alloc@V?$allocator@U?$_Tree_node@U?$pair@$$CBKV?$vector@U__MONSTERSKILL@@V?$allocator@U__MONSTERSKILL@@@std@@@std@@@std@@PAX@std@@@std@@@std@@QAE@AAV?$allocator@U?$_Tree_node@U?$pair@$$CBKV?$vector@U__MONSTERSKILL@@V?$allocator@U__MONSTERSKILL@@@std@@@std@@@std@@PAX@std@@@1@@Z$0
__ehfuncinfo$??0?$_Tree_temp_node_alloc@V?$allocator@U?$_Tree_node@U?$pair@$$CBKV?$vector@U__MONSTERSKILL@@V?$allocator@U__MONSTERSKILL@@@std@@@std@@@std@@PAX@std@@@std@@@std@@QAE@AAV?$allocator@U?$_Tree_node@U?$pair@$$CBKV?$vector@U__MONSTERSKILL@@V?$allocator@U__MONSTERSKILL@@@std@@@std@@@std@@PAX@std@@@1@@Z DD 019930522H
	DD	01H
	DD	FLAT:__unwindtable$??0?$_Tree_temp_node_alloc@V?$allocator@U?$_Tree_node@U?$pair@$$CBKV?$vector@U__MONSTERSKILL@@V?$allocator@U__MONSTERSKILL@@@std@@@std@@@std@@PAX@std@@@std@@@std@@QAE@AAV?$allocator@U?$_Tree_node@U?$pair@$$CBKV?$vector@U__MONSTERSKILL@@V?$allocator@U__MONSTERSKILL@@@std@@@std@@@std@@PAX@std@@@1@@Z
	DD	2 DUP(00H)
	DD	2 DUP(00H)
	DD	00H
	DD	01H
xdata$x	ENDS
;	COMDAT xdata$x
xdata$x	SEGMENT
__unwindtable$??$_Emplace@U?$pair@KV?$vector@U__MONSTERSKILL@@V?$allocator@U__MONSTERSKILL@@@std@@@std@@@std@@@?$_Tree@V?$_Tmap_traits@KV?$vector@U__MONSTERSKILL@@V?$allocator@U__MONSTERSKILL@@@std@@@std@@U?$less@K@2@V?$allocator@U?$pair@$$CBKV?$vector@U__MONSTERSKILL@@V?$allocator@U__MONSTERSKILL@@@std@@@std@@@std@@@2@$0A@@std@@@std@@IAE?AU?$pair@PAU?$_Tree_node@U?$pair@$$CBKV?$vector@U__MONSTERSKILL@@V?$allocator@U__MONSTERSKILL@@@std@@@std@@@std@@PAX@std@@_N@1@$$QAU?$pair@KV?$vector@U__MONSTERSKILL@@V?$allocator@U__MONSTERSKILL@@@std@@@std@@@1@@Z DD 0ffffffffH
	DD	FLAT:__unwindfunclet$??$_Emplace@U?$pair@KV?$vector@U__MONSTERSKILL@@V?$allocator@U__MONSTERSKILL@@@std@@@std@@@std@@@?$_Tree@V?$_Tmap_traits@KV?$vector@U__MONSTERSKILL@@V?$allocator@U__MONSTERSKILL@@@std@@@std@@U?$less@K@2@V?$allocator@U?$pair@$$CBKV?$vector@U__MONSTERSKILL@@V?$allocator@U__MONSTERSKILL@@@std@@@std@@@std@@@2@$0A@@std@@@std@@IAE?AU?$pair@PAU?$_Tree_node@U?$pair@$$CBKV?$vector@U__MONSTERSKILL@@V?$allocator@U__MONSTERSKILL@@@std@@@std@@@std@@PAX@std@@_N@1@$$QAU?$pair@KV?$vector@U__MONSTERSKILL@@V?$allocator@U__MONSTERSKILL@@@std@@@std@@@1@@Z$2
__ehfuncinfo$??$_Emplace@U?$pair@KV?$vector@U__MONSTERSKILL@@V?$allocator@U__MONSTERSKILL@@@std@@@std@@@std@@@?$_Tree@V?$_Tmap_traits@KV?$vector@U__MONSTERSKILL@@V?$allocator@U__MONSTERSKILL@@@std@@@std@@U?$less@K@2@V?$allocator@U?$pair@$$CBKV?$vector@U__MONSTERSKILL@@V?$allocator@U__MONSTERSKILL@@@std@@@std@@@std@@@2@$0A@@std@@@std@@IAE?AU?$pair@PAU?$_Tree_node@U?$pair@$$CBKV?$vector@U__MONSTERSKILL@@V?$allocator@U__MONSTERSKILL@@@std@@@std@@@std@@PAX@std@@_N@1@$$QAU?$pair@KV?$vector@U__MONSTERSKILL@@V?$allocator@U__MONSTERSKILL@@@std@@@std@@@1@@Z DD 019930522H
	DD	01H
	DD	FLAT:__unwindtable$??$_Emplace@U?$pair@KV?$vector@U__MONSTERSKILL@@V?$allocator@U__MONSTERSKILL@@@std@@@std@@@std@@@?$_Tree@V?$_Tmap_traits@KV?$vector@U__MONSTERSKILL@@V?$allocator@U__MONSTERSKILL@@@std@@@std@@U?$less@K@2@V?$allocator@U?$pair@$$CBKV?$vector@U__MONSTERSKILL@@V?$allocator@U__MONSTERSKILL@@@std@@@std@@@std@@@2@$0A@@std@@@std@@IAE?AU?$pair@PAU?$_Tree_node@U?$pair@$$CBKV?$vector@U__MONSTERSKILL@@V?$allocator@U__MONSTERSKILL@@@std@@@std@@@std@@PAX@std@@_N@1@$$QAU?$pair@KV?$vector@U__MONSTERSKILL@@V?$allocator@U__MONSTERSKILL@@@std@@@std@@@1@@Z
	DD	2 DUP(00H)
	DD	2 DUP(00H)
	DD	00H
	DD	01H
xdata$x	ENDS
;	COMDAT xdata$x
xdata$x	SEGMENT
__unwindtable$??$emplace@U?$pair@KV?$vector@U__MONSTERSKILL@@V?$allocator@U__MONSTERSKILL@@@std@@@std@@@std@@@?$_Tree@V?$_Tmap_traits@KV?$vector@U__MONSTERSKILL@@V?$allocator@U__MONSTERSKILL@@@std@@@std@@U?$less@K@2@V?$allocator@U?$pair@$$CBKV?$vector@U__MONSTERSKILL@@V?$allocator@U__MONSTERSKILL@@@std@@@std@@@std@@@2@$0A@@std@@@std@@QAE?AU?$pair@V?$_Tree_iterator@V?$_Tree_val@U?$_Tree_simple_types@U?$pair@$$CBKV?$vector@U__MONSTERSKILL@@V?$allocator@U__MONSTERSKILL@@@std@@@std@@@std@@@std@@@std@@@std@@_N@1@$$QAU?$pair@KV?$vector@U__MONSTERSKILL@@V?$allocator@U__MONSTERSKILL@@@std@@@std@@@1@@Z DD 0ffffffffH
	DD	FLAT:__unwindfunclet$??$emplace@U?$pair@KV?$vector@U__MONSTERSKILL@@V?$allocator@U__MONSTERSKILL@@@std@@@std@@@std@@@?$_Tree@V?$_Tmap_traits@KV?$vector@U__MONSTERSKILL@@V?$allocator@U__MONSTERSKILL@@@std@@@std@@U?$less@K@2@V?$allocator@U?$pair@$$CBKV?$vector@U__MONSTERSKILL@@V?$allocator@U__MONSTERSKILL@@@std@@@std@@@std@@@2@$0A@@std@@@std@@QAE?AU?$pair@V?$_Tree_iterator@V?$_Tree_val@U?$_Tree_simple_types@U?$pair@$$CBKV?$vector@U__MONSTERSKILL@@V?$allocator@U__MONSTERSKILL@@@std@@@std@@@std@@@std@@@std@@@std@@_N@1@$$QAU?$pair@KV?$vector@U__MONSTERSKILL@@V?$allocator@U__MONSTERSKILL@@@std@@@std@@@1@@Z$2
__ehfuncinfo$??$emplace@U?$pair@KV?$vector@U__MONSTERSKILL@@V?$allocator@U__MONSTERSKILL@@@std@@@std@@@std@@@?$_Tree@V?$_Tmap_traits@KV?$vector@U__MONSTERSKILL@@V?$allocator@U__MONSTERSKILL@@@std@@@std@@U?$less@K@2@V?$allocator@U?$pair@$$CBKV?$vector@U__MONSTERSKILL@@V?$allocator@U__MONSTERSKILL@@@std@@@std@@@std@@@2@$0A@@std@@@std@@QAE?AU?$pair@V?$_Tree_iterator@V?$_Tree_val@U?$_Tree_simple_types@U?$pair@$$CBKV?$vector@U__MONSTERSKILL@@V?$allocator@U__MONSTERSKILL@@@std@@@std@@@std@@@std@@@std@@@std@@_N@1@$$QAU?$pair@KV?$vector@U__MONSTERSKILL@@V?$allocator@U__MONSTERSKILL@@@std@@@std@@@1@@Z DD 019930522H
	DD	01H
	DD	FLAT:__unwindtable$??$emplace@U?$pair@KV?$vector@U__MONSTERSKILL@@V?$allocator@U__MONSTERSKILL@@@std@@@std@@@std@@@?$_Tree@V?$_Tmap_traits@KV?$vector@U__MONSTERSKILL@@V?$allocator@U__MONSTERSKILL@@@std@@@std@@U?$less@K@2@V?$allocator@U?$pair@$$CBKV?$vector@U__MONSTERSKILL@@V?$allocator@U__MONSTERSKILL@@@std@@@std@@@std@@@2@$0A@@std@@@std@@QAE?AU?$pair@V?$_Tree_iterator@V?$_Tree_val@U?$_Tree_simple_types@U?$pair@$$CBKV?$vector@U__MONSTERSKILL@@V?$allocator@U__MONSTERSKILL@@@std@@@std@@@std@@@std@@@std@@@std@@_N@1@$$QAU?$pair@KV?$vector@U__MONSTERSKILL@@V?$allocator@U__MONSTERSKILL@@@std@@@std@@@1@@Z
	DD	2 DUP(00H)
	DD	2 DUP(00H)
	DD	00H
	DD	01H
xdata$x	ENDS
;	COMDAT xdata$x
xdata$x	SEGMENT
__unwindtable$??$insert@U?$pair@KV?$vector@U__MONSTERSKILL@@V?$allocator@U__MONSTERSKILL@@@std@@@std@@@std@@$0A@@?$map@KV?$vector@U__MONSTERSKILL@@V?$allocator@U__MONSTERSKILL@@@std@@@std@@U?$less@K@2@V?$allocator@U?$pair@$$CBKV?$vector@U__MONSTERSKILL@@V?$allocator@U__MONSTERSKILL@@@std@@@std@@@std@@@2@@std@@QAE?AU?$pair@V?$_Tree_iterator@V?$_Tree_val@U?$_Tree_simple_types@U?$pair@$$CBKV?$vector@U__MONSTERSKILL@@V?$allocator@U__MONSTERSKILL@@@std@@@std@@@std@@@std@@@std@@@std@@_N@1@$$QAU?$pair@KV?$vector@U__MONSTERSKILL@@V?$allocator@U__MONSTERSKILL@@@std@@@std@@@1@@Z DD 0ffffffffH
	DD	FLAT:__unwindfunclet$??$insert@U?$pair@KV?$vector@U__MONSTERSKILL@@V?$allocator@U__MONSTERSKILL@@@std@@@std@@@std@@$0A@@?$map@KV?$vector@U__MONSTERSKILL@@V?$allocator@U__MONSTERSKILL@@@std@@@std@@U?$less@K@2@V?$allocator@U?$pair@$$CBKV?$vector@U__MONSTERSKILL@@V?$allocator@U__MONSTERSKILL@@@std@@@std@@@std@@@2@@std@@QAE?AU?$pair@V?$_Tree_iterator@V?$_Tree_val@U?$_Tree_simple_types@U?$pair@$$CBKV?$vector@U__MONSTERSKILL@@V?$allocator@U__MONSTERSKILL@@@std@@@std@@@std@@@std@@@std@@@std@@_N@1@$$QAU?$pair@KV?$vector@U__MONSTERSKILL@@V?$allocator@U__MONSTERSKILL@@@std@@@std@@@1@@Z$2
__ehfuncinfo$??$insert@U?$pair@KV?$vector@U__MONSTERSKILL@@V?$allocator@U__MONSTERSKILL@@@std@@@std@@@std@@$0A@@?$map@KV?$vector@U__MONSTERSKILL@@V?$allocator@U__MONSTERSKILL@@@std@@@std@@U?$less@K@2@V?$allocator@U?$pair@$$CBKV?$vector@U__MONSTERSKILL@@V?$allocator@U__MONSTERSKILL@@@std@@@std@@@std@@@2@@std@@QAE?AU?$pair@V?$_Tree_iterator@V?$_Tree_val@U?$_Tree_simple_types@U?$pair@$$CBKV?$vector@U__MONSTERSKILL@@V?$allocator@U__MONSTERSKILL@@@std@@@std@@@std@@@std@@@std@@@std@@_N@1@$$QAU?$pair@KV?$vector@U__MONSTERSKILL@@V?$allocator@U__MONSTERSKILL@@@std@@@std@@@1@@Z DD 019930522H
	DD	01H
	DD	FLAT:__unwindtable$??$insert@U?$pair@KV?$vector@U__MONSTERSKILL@@V?$allocator@U__MONSTERSKILL@@@std@@@std@@@std@@$0A@@?$map@KV?$vector@U__MONSTERSKILL@@V?$allocator@U__MONSTERSKILL@@@std@@@std@@U?$less@K@2@V?$allocator@U?$pair@$$CBKV?$vector@U__MONSTERSKILL@@V?$allocator@U__MONSTERSKILL@@@std@@@std@@@std@@@2@@std@@QAE?AU?$pair@V?$_Tree_iterator@V?$_Tree_val@U?$_Tree_simple_types@U?$pair@$$CBKV?$vector@U__MONSTERSKILL@@V?$allocator@U__MONSTERSKILL@@@std@@@std@@@std@@@std@@@std@@@std@@_N@1@$$QAU?$pair@KV?$vector@U__MONSTERSKILL@@V?$allocator@U__MONSTERSKILL@@@std@@@std@@@1@@Z
	DD	2 DUP(00H)
	DD	2 DUP(00H)
	DD	00H
	DD	01H
xdata$x	ENDS
;	COMDAT xdata$x
xdata$x	SEGMENT
__unwindtable$?LoadScript@CMonsterSkill@@QAEXXZ DD 0ffffffffH
	DD	FLAT:__unwindfunclet$?LoadScript@CMonsterSkill@@QAEXXZ$0
	DD	00H
	DD	FLAT:__unwindfunclet$?LoadScript@CMonsterSkill@@QAEXXZ$1
	DD	01H
	DD	FLAT:__unwindfunclet$?LoadScript@CMonsterSkill@@QAEXXZ$2
	DD	02H
	DD	FLAT:__unwindfunclet$?LoadScript@CMonsterSkill@@QAEXXZ$8
__ehfuncinfo$?LoadScript@CMonsterSkill@@QAEXXZ DD 019930522H
	DD	04H
	DD	FLAT:__unwindtable$?LoadScript@CMonsterSkill@@QAEXXZ
	DD	2 DUP(00H)
	DD	2 DUP(00H)
	DD	00H
	DD	01H
xdata$x	ENDS
;	COMDAT xdata$x
xdata$x	SEGMENT
__unwindtable$?GetInstance@CMonsterSkill@@SAPAV1@XZ DD 0ffffffffH
	DD	FLAT:__unwindfunclet$?GetInstance@CMonsterSkill@@SAPAV1@XZ$0
__ehfuncinfo$?GetInstance@CMonsterSkill@@SAPAV1@XZ DD 019930522H
	DD	01H
	DD	FLAT:__unwindtable$?GetInstance@CMonsterSkill@@SAPAV1@XZ
	DD	2 DUP(00H)
	DD	2 DUP(00H)
	DD	00H
	DD	01H
xdata$x	ENDS
;	COMDAT xdata$x
xdata$x	SEGMENT
__unwindtable$??0CAIMonster@@QAE@PAVCObj@@@Z DD 0ffffffffH
	DD	FLAT:__unwindfunclet$??0CAIMonster@@QAE@PAVCObj@@@Z$0
	DD	00H
	DD	FLAT:__unwindfunclet$??0CAIMonster@@QAE@PAVCObj@@@Z$1
	DD	01H
	DD	FLAT:__unwindfunclet$??0CAIMonster@@QAE@PAVCObj@@@Z$2
__ehfuncinfo$??0CAIMonster@@QAE@PAVCObj@@@Z DD 019930522H
	DD	03H
	DD	FLAT:__unwindtable$??0CAIMonster@@QAE@PAVCObj@@@Z
	DD	2 DUP(00H)
	DD	2 DUP(00H)
	DD	00H
	DD	01H
xdata$x	ENDS
;	COMDAT xdata$x
xdata$x	SEGMENT
__unwindtable$??0CAIMonster@@QAE@XZ DD 0ffffffffH
	DD	FLAT:__unwindfunclet$??0CAIMonster@@QAE@XZ$0
	DD	00H
	DD	FLAT:__unwindfunclet$??0CAIMonster@@QAE@XZ$1
	DD	01H
	DD	FLAT:__unwindfunclet$??0CAIMonster@@QAE@XZ$2
__ehfuncinfo$??0CAIMonster@@QAE@XZ DD 019930522H
	DD	03H
	DD	FLAT:__unwindtable$??0CAIMonster@@QAE@XZ
	DD	2 DUP(00H)
	DD	2 DUP(00H)
	DD	00H
	DD	01H
xdata$x	ENDS
; Function compile flags: /Ogtp
; File C:\Program Files\Microsoft Visual Studio\2022\Professional\VC\Tools\MSVC\14.44.35207\include\xutility
;	COMDAT ??$_Copy_memmove_tail@PAU__MONSTERSKILL@@@std@@YAPAU__MONSTERSKILL@@QBDQAU1@II@Z
_TEXT	SEGMENT
__First_ch$ = 8						; size = 4
__Dest$ = 12						; size = 4
__Byte_count$ = 16					; size = 4
__Object_count$ = 20					; size = 4
??$_Copy_memmove_tail@PAU__MONSTERSKILL@@@std@@YAPAU__MONSTERSKILL@@QBDQAU1@II@Z PROC ; std::_Copy_memmove_tail<__MONSTERSKILL *>, COMDAT

; 4747 :     const char* const _First_ch, const _OutCtgIt _Dest, const size_t _Byte_count, const size_t _Object_count) {

  00000	55		 push	 ebp
  00001	8b ec		 mov	 ebp, esp
  00003	56		 push	 esi

; 4748 :     _STL_INTERNAL_CHECK(_Byte_count == _Object_count * sizeof(*_Dest));
; 4749 :     const auto _Dest_ptr = _STD _To_address(_Dest);
; 4750 :     const auto _Dest_ch  = const_cast<char*>(reinterpret_cast<const volatile char*>(_Dest_ptr));
; 4751 :     _CSTD memmove(_Dest_ch, _First_ch, _Byte_count);

  00004	8b 75 0c	 mov	 esi, DWORD PTR __Dest$[ebp]
  00007	57		 push	 edi
  00008	8b 7d 10	 mov	 edi, DWORD PTR __Byte_count$[ebp]
  0000b	57		 push	 edi
  0000c	ff 75 08	 push	 DWORD PTR __First_ch$[ebp]
  0000f	56		 push	 esi
  00010	e8 00 00 00 00	 call	 _memmove
  00015	83 c4 0c	 add	 esp, 12			; 0000000cH

; 4752 :     if constexpr (is_pointer_v<_OutCtgIt>) {
; 4753 :         (void) _Object_count;
; 4754 :         // CodeQL [SM02986] This cast is correct: we're bypassing pointer arithmetic for performance.
; 4755 :         return reinterpret_cast<_OutCtgIt>(_Dest_ch + _Byte_count);

  00018	8d 04 3e	 lea	 eax, DWORD PTR [esi+edi]
  0001b	5f		 pop	 edi
  0001c	5e		 pop	 esi

; 4756 :     } else {
; 4757 :         return _Dest + static_cast<_Iter_diff_t<_OutCtgIt>>(_Object_count);
; 4758 :     }
; 4759 : }

  0001d	5d		 pop	 ebp
  0001e	c3		 ret	 0
??$_Copy_memmove_tail@PAU__MONSTERSKILL@@@std@@YAPAU__MONSTERSKILL@@QBDQAU1@II@Z ENDP ; std::_Copy_memmove_tail<__MONSTERSKILL *>
_TEXT	ENDS
; Function compile flags: /Ogtp
; File C:\Program Files\Microsoft Visual Studio\2022\Professional\VC\Tools\MSVC\14.44.35207\include\xutility
;	COMDAT ??$_Copy_memmove@PAU__MONSTERSKILL@@PAU1@@std@@YAPAU__MONSTERSKILL@@PAU1@00@Z
_TEXT	SEGMENT
__First$ = 8						; size = 4
__Last$ = 12						; size = 4
__Dest$ = 16						; size = 4
??$_Copy_memmove@PAU__MONSTERSKILL@@PAU1@@std@@YAPAU__MONSTERSKILL@@PAU1@00@Z PROC ; std::_Copy_memmove<__MONSTERSKILL *,__MONSTERSKILL *>, COMDAT

; 4762 : _OutCtgIt _Copy_memmove(_CtgIt _First, _CtgIt _Last, _OutCtgIt _Dest) {

  00000	55		 push	 ebp
  00001	8b ec		 mov	 ebp, esp

; 4763 :     _STL_INTERNAL_CHECK(_First <= _Last);
; 4764 :     const auto _First_ptr    = _STD _To_address(_First);
; 4765 :     const auto _Last_ptr     = _STD _To_address(_Last);
; 4766 :     const auto _Object_count = static_cast<size_t>(_Last_ptr - _First_ptr);

  00003	8b 55 08	 mov	 edx, DWORD PTR __First$[ebp]
  00006	8b 4d 0c	 mov	 ecx, DWORD PTR __Last$[ebp]
  00009	2b ca		 sub	 ecx, edx
  0000b	8b c1		 mov	 eax, ecx
  0000d	c1 f8 05	 sar	 eax, 5

; 4767 :     const auto _First_ch     = const_cast<const char*>(reinterpret_cast<const volatile char*>(_First_ptr));
; 4768 :     const auto _Last_ch      = const_cast<const char*>(reinterpret_cast<const volatile char*>(_Last_ptr));
; 4769 :     const auto _Byte_count   = static_cast<size_t>(_Last_ch - _First_ch);
; 4770 :     return _STD _Copy_memmove_tail(_First_ch, _STD move(_Dest), _Byte_count, _Object_count);

  00010	50		 push	 eax
  00011	51		 push	 ecx
  00012	ff 75 10	 push	 DWORD PTR __Dest$[ebp]
  00015	52		 push	 edx
  00016	e8 00 00 00 00	 call	 ??$_Copy_memmove_tail@PAU__MONSTERSKILL@@@std@@YAPAU__MONSTERSKILL@@QBDQAU1@II@Z ; std::_Copy_memmove_tail<__MONSTERSKILL *>
  0001b	83 c4 10	 add	 esp, 16			; 00000010H

; 4771 : }

  0001e	5d		 pop	 ebp
  0001f	c3		 ret	 0
??$_Copy_memmove@PAU__MONSTERSKILL@@PAU1@@std@@YAPAU__MONSTERSKILL@@PAU1@00@Z ENDP ; std::_Copy_memmove<__MONSTERSKILL *,__MONSTERSKILL *>
_TEXT	ENDS
; Function compile flags: /Ogtp
; File C:\Program Files\Microsoft Visual Studio\2022\Professional\VC\Tools\MSVC\14.44.35207\include\xutility
;	COMDAT ??$_Copy_memmove_tail@PAK@std@@YAPAKQBDQAKII@Z
_TEXT	SEGMENT
__First_ch$ = 8						; size = 4
__Dest$ = 12						; size = 4
__Byte_count$ = 16					; size = 4
__Object_count$ = 20					; size = 4
??$_Copy_memmove_tail@PAK@std@@YAPAKQBDQAKII@Z PROC	; std::_Copy_memmove_tail<unsigned long *>, COMDAT

; 4747 :     const char* const _First_ch, const _OutCtgIt _Dest, const size_t _Byte_count, const size_t _Object_count) {

  00000	55		 push	 ebp
  00001	8b ec		 mov	 ebp, esp
  00003	56		 push	 esi

; 4748 :     _STL_INTERNAL_CHECK(_Byte_count == _Object_count * sizeof(*_Dest));
; 4749 :     const auto _Dest_ptr = _STD _To_address(_Dest);
; 4750 :     const auto _Dest_ch  = const_cast<char*>(reinterpret_cast<const volatile char*>(_Dest_ptr));
; 4751 :     _CSTD memmove(_Dest_ch, _First_ch, _Byte_count);

  00004	8b 75 0c	 mov	 esi, DWORD PTR __Dest$[ebp]
  00007	57		 push	 edi
  00008	8b 7d 10	 mov	 edi, DWORD PTR __Byte_count$[ebp]
  0000b	57		 push	 edi
  0000c	ff 75 08	 push	 DWORD PTR __First_ch$[ebp]
  0000f	56		 push	 esi
  00010	e8 00 00 00 00	 call	 _memmove
  00015	83 c4 0c	 add	 esp, 12			; 0000000cH

; 4752 :     if constexpr (is_pointer_v<_OutCtgIt>) {
; 4753 :         (void) _Object_count;
; 4754 :         // CodeQL [SM02986] This cast is correct: we're bypassing pointer arithmetic for performance.
; 4755 :         return reinterpret_cast<_OutCtgIt>(_Dest_ch + _Byte_count);

  00018	8d 04 3e	 lea	 eax, DWORD PTR [esi+edi]
  0001b	5f		 pop	 edi
  0001c	5e		 pop	 esi

; 4756 :     } else {
; 4757 :         return _Dest + static_cast<_Iter_diff_t<_OutCtgIt>>(_Object_count);
; 4758 :     }
; 4759 : }

  0001d	5d		 pop	 ebp
  0001e	c3		 ret	 0
??$_Copy_memmove_tail@PAK@std@@YAPAKQBDQAKII@Z ENDP	; std::_Copy_memmove_tail<unsigned long *>
_TEXT	ENDS
; Function compile flags: /Ogtp
; File C:\Program Files\Microsoft Visual Studio\2022\Professional\VC\Tools\MSVC\14.44.35207\include\xmemory
;	COMDAT ??1?$_Alloc_construct_ptr@V?$allocator@U?$_Tree_node@U?$pair@$$CBKV?$vector@U__MONSTERSKILL@@V?$allocator@U__MONSTERSKILL@@@std@@@std@@@std@@PAX@std@@@std@@@std@@QAE@XZ
_TEXT	SEGMENT
??1?$_Alloc_construct_ptr@V?$allocator@U?$_Tree_node@U?$pair@$$CBKV?$vector@U__MONSTERSKILL@@V?$allocator@U__MONSTERSKILL@@@std@@@std@@@std@@PAX@std@@@std@@@std@@QAE@XZ PROC ; std::_Alloc_construct_ptr<std::allocator<std::_Tree_node<std::pair<unsigned long const ,std::vector<__MONSTERSKILL,std::allocator<__MONSTERSKILL> > >,void *> > >::~_Alloc_construct_ptr<std::allocator<std::_Tree_node<std::pair<unsigned long const ,std::vector<__MONSTERSKILL,std::allocator<__MONSTERSKILL> > >,void *> > >, COMDAT
; _this$ = ecx

; 1172 :         if (_Ptr) {

  00000	8b 41 04	 mov	 eax, DWORD PTR [ecx+4]
  00003	85 c0		 test	 eax, eax
  00005	74 0b		 je	 SHORT $LN10@Alloc_cons

; 289  :         ::operator delete(_Ptr, _Bytes);

  00007	6a 20		 push	 32			; 00000020H
  00009	50		 push	 eax
  0000a	e8 00 00 00 00	 call	 ??3@YAXPAXI@Z		; operator delete
  0000f	83 c4 08	 add	 esp, 8
$LN10@Alloc_cons:

; 1173 :             _Al.deallocate(_Ptr, 1);
; 1174 :         }
; 1175 :     }

  00012	c3		 ret	 0
??1?$_Alloc_construct_ptr@V?$allocator@U?$_Tree_node@U?$pair@$$CBKV?$vector@U__MONSTERSKILL@@V?$allocator@U__MONSTERSKILL@@@std@@@std@@@std@@PAX@std@@@std@@@std@@QAE@XZ ENDP ; std::_Alloc_construct_ptr<std::allocator<std::_Tree_node<std::pair<unsigned long const ,std::vector<__MONSTERSKILL,std::allocator<__MONSTERSKILL> > >,void *> > >::~_Alloc_construct_ptr<std::allocator<std::_Tree_node<std::pair<unsigned long const ,std::vector<__MONSTERSKILL,std::allocator<__MONSTERSKILL> > >,void *> > >
_TEXT	ENDS
; Function compile flags: /Ogtp
; File C:\Program Files\Microsoft Visual Studio\2022\Professional\VC\Tools\MSVC\14.44.35207\include\vector
; File C:\Program Files\Microsoft Visual Studio\2022\Professional\VC\Tools\MSVC\14.44.35207\include\xmemory
; File C:\Program Files\Microsoft Visual Studio\2022\Professional\VC\Tools\MSVC\14.44.35207\include\vector
; File C:\Program Files\Microsoft Visual Studio\2022\Professional\VC\Tools\MSVC\14.44.35207\include\xmemory
; File C:\Program Files\Microsoft Visual Studio\2022\Professional\VC\Tools\MSVC\14.44.35207\include\vector
; File C:\Program Files\Microsoft Visual Studio\2022\Professional\VC\Tools\MSVC\14.44.35207\include\xmemory
; File C:\Program Files\Microsoft Visual Studio\2022\Professional\VC\Tools\MSVC\14.44.35207\include\vector
; File C:\Program Files\Microsoft Visual Studio\2022\Professional\VC\Tools\MSVC\14.44.35207\include\xmemory
; File C:\Program Files\Microsoft Visual Studio\2022\Professional\VC\Tools\MSVC\14.44.35207\include\vector
; File C:\Program Files\Microsoft Visual Studio\2022\Professional\VC\Tools\MSVC\14.44.35207\include\xmemory
; File C:\Program Files\Microsoft Visual Studio\2022\Professional\VC\Tools\MSVC\14.44.35207\include\vector
; File C:\Program Files\Microsoft Visual Studio\2022\Professional\VC\Tools\MSVC\14.44.35207\include\xmemory
; File C:\Program Files\Microsoft Visual Studio\2022\Professional\VC\Tools\MSVC\14.44.35207\include\vector
; File C:\Program Files\Microsoft Visual Studio\2022\Professional\VC\Tools\MSVC\14.44.35207\include\xmemory
; File C:\Program Files\Microsoft Visual Studio\2022\Professional\VC\Tools\MSVC\14.44.35207\include\vector
; File C:\Program Files\Microsoft Visual Studio\2022\Professional\VC\Tools\MSVC\14.44.35207\include\xmemory
; File C:\Program Files\Microsoft Visual Studio\2022\Professional\VC\Tools\MSVC\14.44.35207\include\vector
;	COMDAT ??$_Emplace_reallocate@K@?$vector@KV?$allocator@K@std@@@std@@AAEPAKQAK$$QAK@Z
_TEXT	SEGMENT
__Newsize$1$ = -12					; size = 4
tv652 = -8						; size = 4
tv650 = -4						; size = 4
__Whereptr$ = 8						; size = 4
_<_Val_0>$ = 12						; size = 4
??$_Emplace_reallocate@K@?$vector@KV?$allocator@K@std@@@std@@AAEPAKQAK$$QAK@Z PROC ; std::vector<unsigned long,std::allocator<unsigned long> >::_Emplace_reallocate<unsigned long>, COMDAT
; _this$ = ecx

; 875  :     _CONSTEXPR20 pointer _Emplace_reallocate(const pointer _Whereptr, _Valty&&... _Val) {

  00000	55		 push	 ebp
  00001	8b ec		 mov	 ebp, esp
  00003	83 ec 0c	 sub	 esp, 12			; 0000000cH
  00006	53		 push	 ebx

; 876  :         // reallocate and insert by perfectly forwarding _Val at _Whereptr
; 877  :         _Alty& _Al        = _Getal();
; 878  :         auto& _My_data    = _Mypair._Myval2;
; 879  :         pointer& _Myfirst = _My_data._Myfirst;
; 880  :         pointer& _Mylast  = _My_data._Mylast;
; 881  : 
; 882  :         _STL_INTERNAL_CHECK(_Mylast == _My_data._Myend); // check that we have no unused capacity
; 883  : 
; 884  :         const auto _Whereoff = static_cast<size_type>(_Whereptr - _Myfirst);

  00007	8b 5d 08	 mov	 ebx, DWORD PTR __Whereptr$[ebp]
  0000a	56		 push	 esi
  0000b	8b f1		 mov	 esi, ecx
  0000d	57		 push	 edi
  0000e	8b 0e		 mov	 ecx, DWORD PTR [esi]
  00010	2b d9		 sub	 ebx, ecx

; 885  :         const auto _Oldsize  = static_cast<size_type>(_Mylast - _Myfirst);

  00012	8b 46 04	 mov	 eax, DWORD PTR [esi+4]
  00015	2b c1		 sub	 eax, ecx
  00017	c1 fb 02	 sar	 ebx, 2
  0001a	c1 f8 02	 sar	 eax, 2

; 886  : 
; 887  :         if (_Oldsize == max_size()) {

  0001d	3d ff ff ff 3f	 cmp	 eax, 1073741823		; 3fffffffH
  00022	0f 84 13 01 00
	00		 je	 $LN111@Emplace_re

; 1924 :         return static_cast<size_type>(_My_data._Myend - _My_data._Myfirst);

  00028	8b 56 08	 mov	 edx, DWORD PTR [esi+8]

; 889  :         }
; 890  : 
; 891  :         const size_type _Newsize = _Oldsize + 1;

  0002b	8d 78 01	 lea	 edi, DWORD PTR [eax+1]

; 1924 :         return static_cast<size_type>(_My_data._Myend - _My_data._Myfirst);

  0002e	2b d1		 sub	 edx, ecx

; 889  :         }
; 890  : 
; 891  :         const size_type _Newsize = _Oldsize + 1;

  00030	89 7d f4	 mov	 DWORD PTR __Newsize$1$[ebp], edi

; 1924 :         return static_cast<size_type>(_My_data._Myend - _My_data._Myfirst);

  00033	c1 fa 02	 sar	 edx, 2

; 2011 :         if (_Oldcapacity > _Max - _Oldcapacity / 2) {

  00036	b8 ff ff ff 3f	 mov	 eax, 1073741823		; 3fffffffH
  0003b	8b ca		 mov	 ecx, edx
  0003d	d1 e9		 shr	 ecx, 1
  0003f	2b c1		 sub	 eax, ecx
  00041	3b d0		 cmp	 edx, eax
  00043	76 14		 jbe	 SHORT $LN8@Emplace_re

; 2012 :             return _Max; // geometric growth would overflow

  00045	b8 fc ff ff ff	 mov	 eax, -4			; fffffffcH
  0004a	c7 45 f8 fc ff
	ff ff		 mov	 DWORD PTR tv652[ebp], -4 ; fffffffcH
; File C:\Program Files\Microsoft Visual Studio\2022\Professional\VC\Tools\MSVC\14.44.35207\include\xmemory

; 253  :             return _Allocate_manually_vector_aligned<_Traits>(_Bytes);

  00051	50		 push	 eax
  00052	e8 00 00 00 00	 call	 ??$_Allocate_manually_vector_aligned@U_Default_allocate_traits@std@@@std@@YAPAXI@Z ; std::_Allocate_manually_vector_aligned<std::_Default_allocate_traits>
  00057	eb 3d		 jmp	 SHORT $LN109@Emplace_re
$LN8@Emplace_re:
; File C:\Program Files\Microsoft Visual Studio\2022\Professional\VC\Tools\MSVC\14.44.35207\include\vector

; 2015 :         const size_type _Geometric = _Oldcapacity + _Oldcapacity / 2;

  00059	8d 04 11	 lea	 eax, DWORD PTR [ecx+edx]
; File C:\Program Files\Microsoft Visual Studio\2022\Professional\VC\Tools\MSVC\14.44.35207\include\xmemory

; 117  :         if (_Count > _Max_possible) {

  0005c	8b cf		 mov	 ecx, edi
  0005e	3b c7		 cmp	 eax, edi
  00060	0f 43 c8	 cmovae	 ecx, eax
  00063	81 f9 ff ff ff
	3f		 cmp	 ecx, 1073741823		; 3fffffffH
  00069	0f 87 d1 00 00
	00		 ja	 $LN112@Emplace_re

; 119  :         }
; 120  :     }
; 121  : 
; 122  :     return _Count * _Ty_size;

  0006f	8d 04 8d 00 00
	00 00		 lea	 eax, DWORD PTR [ecx*4]
  00076	89 45 f8	 mov	 DWORD PTR tv652[ebp], eax

; 227  :     if (_Bytes == 0) {

  00079	85 c0		 test	 eax, eax
  0007b	75 04		 jne	 SHORT $LN23@Emplace_re

; 228  :         return nullptr;

  0007d	33 ff		 xor	 edi, edi
  0007f	eb 1a		 jmp	 SHORT $LN22@Emplace_re
$LN23@Emplace_re:

; 229  :     }
; 230  : 
; 231  : #if _HAS_CXX20 // TRANSITION, GH-1532
; 232  :     if (_STD is_constant_evaluated()) {
; 233  :         return _Traits::_Allocate(_Bytes);
; 234  :     }
; 235  : #endif // _HAS_CXX20
; 236  : 
; 237  : #ifdef __cpp_aligned_new
; 238  :     if constexpr (_Align > __STDCPP_DEFAULT_NEW_ALIGNMENT__) {
; 239  :         size_t _Passed_align = _Align;
; 240  : #if defined(_M_IX86) || defined(_M_X64)
; 241  :         if (_Bytes >= _Big_allocation_threshold) {
; 242  :             // boost the alignment of big allocations to help autovectorization
; 243  :             _Passed_align = (_STD max)(_Align, _Big_allocation_alignment);
; 244  :         }
; 245  : #endif // defined(_M_IX86) || defined(_M_X64)
; 246  :         return _Traits::_Allocate_aligned(_Bytes, _Passed_align);
; 247  :     } else
; 248  : #endif // defined(__cpp_aligned_new)
; 249  :     {
; 250  : #if defined(_M_IX86) || defined(_M_X64)
; 251  :         if (_Bytes >= _Big_allocation_threshold) {

  00081	3d 00 10 00 00	 cmp	 eax, 4096		; 00001000H
  00086	72 08		 jb	 SHORT $LN24@Emplace_re

; 253  :             return _Allocate_manually_vector_aligned<_Traits>(_Bytes);

  00088	50		 push	 eax
  00089	e8 00 00 00 00	 call	 ??$_Allocate_manually_vector_aligned@U_Default_allocate_traits@std@@@std@@YAPAXI@Z ; std::_Allocate_manually_vector_aligned<std::_Default_allocate_traits>
  0008e	eb 06		 jmp	 SHORT $LN109@Emplace_re
$LN24@Emplace_re:

; 136  :         return ::operator new(_Bytes);

  00090	50		 push	 eax
  00091	e8 00 00 00 00	 call	 ??2@YAPAXI@Z		; operator new
$LN109@Emplace_re:
; File C:\Program Files\Microsoft Visual Studio\2022\Professional\VC\Tools\MSVC\14.44.35207\include\vector

; 900  :         _Alty_traits::construct(_Al, _STD _Unfancy(_Newvec + _Whereoff), _STD forward<_Valty>(_Val)...);

  00096	8b f8		 mov	 edi, eax
  00098	83 c4 04	 add	 esp, 4
$LN22@Emplace_re:
  0009b	8b 45 0c	 mov	 eax, DWORD PTR _<_Val_0>$[ebp]
  0009e	8d 0c 9f	 lea	 ecx, DWORD PTR [edi+ebx*4]

; 901  :         _Constructed_first = _Newvec + _Whereoff;
; 902  : 
; 903  :         if (_Whereptr == _Mylast) { // at back, provide strong guarantee

  000a1	8b 5d 08	 mov	 ebx, DWORD PTR __Whereptr$[ebp]
  000a4	89 4d fc	 mov	 DWORD PTR tv650[ebp], ecx
  000a7	8b 00		 mov	 eax, DWORD PTR [eax]
  000a9	89 01		 mov	 DWORD PTR [ecx], eax
  000ab	8b 46 04	 mov	 eax, DWORD PTR [esi+4]
  000ae	8b 0e		 mov	 ecx, DWORD PTR [esi]
  000b0	3b d8		 cmp	 ebx, eax
  000b2	75 07		 jne	 SHORT $LN3@Emplace_re

; 909  :         } else { // provide basic guarantee

  000b4	8b 5d fc	 mov	 ebx, DWORD PTR tv650[ebp]
; File C:\Program Files\Microsoft Visual Studio\2022\Professional\VC\Tools\MSVC\14.44.35207\include\xmemory

; 1992 :             _STD _Copy_memmove(_UFirst, _ULast, _STD _Unfancy(_Dest));

  000b7	8b d7		 mov	 edx, edi
; File C:\Program Files\Microsoft Visual Studio\2022\Professional\VC\Tools\MSVC\14.44.35207\include\vector

; 909  :         } else { // provide basic guarantee

  000b9	eb 16		 jmp	 SHORT $LN52@Emplace_re
$LN3@Emplace_re:
; File C:\Program Files\Microsoft Visual Studio\2022\Professional\VC\Tools\MSVC\14.44.35207\include\xmemory

; 1992 :             _STD _Copy_memmove(_UFirst, _ULast, _STD _Unfancy(_Dest));

  000bb	57		 push	 edi
  000bc	53		 push	 ebx
  000bd	51		 push	 ecx
  000be	e8 00 00 00 00	 call	 ??$_Copy_memmove@PAKPAK@std@@YAPAKPAK00@Z ; std::_Copy_memmove<unsigned long *,unsigned long *>
  000c3	8b 46 04	 mov	 eax, DWORD PTR [esi+4]
  000c6	8b cb		 mov	 ecx, ebx
; File C:\Program Files\Microsoft Visual Studio\2022\Professional\VC\Tools\MSVC\14.44.35207\include\vector

; 912  :             _STD _Uninitialized_move(_Whereptr, _Mylast, _Newvec + _Whereoff + 1, _Al);

  000c8	8b 5d fc	 mov	 ebx, DWORD PTR tv650[ebp]
; File C:\Program Files\Microsoft Visual Studio\2022\Professional\VC\Tools\MSVC\14.44.35207\include\xmemory

; 1992 :             _STD _Copy_memmove(_UFirst, _ULast, _STD _Unfancy(_Dest));

  000cb	83 c4 0c	 add	 esp, 12			; 0000000cH
; File C:\Program Files\Microsoft Visual Studio\2022\Professional\VC\Tools\MSVC\14.44.35207\include\vector

; 912  :             _STD _Uninitialized_move(_Whereptr, _Mylast, _Newvec + _Whereoff + 1, _Al);

  000ce	8d 53 04	 lea	 edx, DWORD PTR [ebx+4]
$LN52@Emplace_re:

; 913  :         }
; 914  : 
; 915  :         _Guard._New_begin = nullptr;

  000d1	52		 push	 edx
  000d2	50		 push	 eax
  000d3	51		 push	 ecx
  000d4	e8 00 00 00 00	 call	 ??$_Copy_memmove@PAKPAK@std@@YAPAKPAK00@Z ; std::_Copy_memmove<unsigned long *,unsigned long *>

; 2069 :         if (_Myfirst) { // destroy and deallocate old array

  000d9	8b 06		 mov	 eax, DWORD PTR [esi]

; 913  :         }
; 914  : 
; 915  :         _Guard._New_begin = nullptr;

  000db	83 c4 0c	 add	 esp, 12			; 0000000cH

; 2069 :         if (_Myfirst) { // destroy and deallocate old array

  000de	85 c0		 test	 eax, eax
  000e0	74 2c		 je	 SHORT $LN72@Emplace_re

; 2070 :             _STD _Destroy_range(_Myfirst, _Mylast, _Al);
; 2071 :             _ASAN_VECTOR_REMOVE;
; 2072 :             _Al.deallocate(_Myfirst, static_cast<size_type>(_Myend - _Myfirst));

  000e2	8b 4e 08	 mov	 ecx, DWORD PTR [esi+8]
  000e5	2b c8		 sub	 ecx, eax
; File C:\Program Files\Microsoft Visual Studio\2022\Professional\VC\Tools\MSVC\14.44.35207\include\xmemory

; 985  :         _STD _Deallocate<_New_alignof<_Ty>>(_Ptr, sizeof(_Ty) * _Count);

  000e7	83 e1 fc	 and	 ecx, -4			; fffffffcH

; 284  :         if (_Bytes >= _Big_allocation_threshold) {

  000ea	81 f9 00 10 00
	00		 cmp	 ecx, 4096		; 00001000H
  000f0	72 12		 jb	 SHORT $LN77@Emplace_re

; 205  :     const uintptr_t _Ptr_container   = _Ptr_user[-1];

  000f2	8b 50 fc	 mov	 edx, DWORD PTR [eax-4]
  000f5	83 c1 23	 add	 ecx, 35			; 00000023H

; 206  : 
; 207  :     // If the following asserts, it likely means that we are performing
; 208  :     // an aligned delete on memory coming from an unaligned allocation.
; 209  :     _STL_ASSERT(_Ptr_user[-2] == _Big_allocation_sentinel, "invalid argument");
; 210  : 
; 211  :     // Extra paranoia on aligned allocation/deallocation; ensure _Ptr_container is
; 212  :     // in range [_Min_back_shift, _Non_user_size]
; 213  : #ifdef _DEBUG
; 214  :     constexpr uintptr_t _Min_back_shift = 2 * sizeof(void*);
; 215  : #else // ^^^ defined(_DEBUG) / !defined(_DEBUG) vvv
; 216  :     constexpr uintptr_t _Min_back_shift = sizeof(void*);
; 217  : #endif // ^^^ !defined(_DEBUG) ^^^
; 218  :     const uintptr_t _Back_shift = reinterpret_cast<uintptr_t>(_Ptr) - _Ptr_container;

  000f8	2b c2		 sub	 eax, edx

; 219  :     _STL_VERIFY(_Back_shift >= _Min_back_shift && _Back_shift <= _Non_user_size, "invalid argument");

  000fa	83 c0 fc	 add	 eax, -4			; fffffffcH
  000fd	83 f8 1f	 cmp	 eax, 31			; 0000001fH
  00100	77 2a		 ja	 SHORT $LN76@Emplace_re

; 220  :     _Ptr = reinterpret_cast<void*>(_Ptr_container);

  00102	8b c2		 mov	 eax, edx
$LN77@Emplace_re:

; 289  :         ::operator delete(_Ptr, _Bytes);

  00104	51		 push	 ecx
  00105	50		 push	 eax
  00106	e8 00 00 00 00	 call	 ??3@YAXPAXI@Z		; operator delete
  0010b	83 c4 08	 add	 esp, 8
$LN72@Emplace_re:
; File C:\Program Files\Microsoft Visual Studio\2022\Professional\VC\Tools\MSVC\14.44.35207\include\vector

; 2076 :         _Mylast  = _Newvec + _Newsize;

  0010e	8b 45 f4	 mov	 eax, DWORD PTR __Newsize$1$[ebp]
  00111	89 3e		 mov	 DWORD PTR [esi], edi
  00113	8d 0c 87	 lea	 ecx, DWORD PTR [edi+eax*4]

; 916  :         _Change_array(_Newvec, _Newsize, _Newcapacity);
; 917  :         return _Newvec + _Whereoff;

  00116	8b c3		 mov	 eax, ebx

; 2076 :         _Mylast  = _Newvec + _Newsize;

  00118	89 4e 04	 mov	 DWORD PTR [esi+4], ecx

; 2077 :         _Myend   = _Newvec + _Newcapacity;

  0011b	8b 4d f8	 mov	 ecx, DWORD PTR tv652[ebp]
  0011e	03 cf		 add	 ecx, edi

; 918  :     }

  00120	5f		 pop	 edi

; 2077 :         _Myend   = _Newvec + _Newcapacity;

  00121	89 4e 08	 mov	 DWORD PTR [esi+8], ecx

; 918  :     }

  00124	5e		 pop	 esi
  00125	5b		 pop	 ebx
  00126	8b e5		 mov	 esp, ebp
  00128	5d		 pop	 ebp
  00129	c2 08 00	 ret	 8
$LN76@Emplace_re:
; File C:\Program Files\Microsoft Visual Studio\2022\Professional\VC\Tools\MSVC\14.44.35207\include\xmemory

; 219  :     _STL_VERIFY(_Back_shift >= _Min_back_shift && _Back_shift <= _Non_user_size, "invalid argument");

  0012c	6a 00		 push	 0
  0012e	6a 00		 push	 0
  00130	6a 00		 push	 0
  00132	6a 00		 push	 0
  00134	6a 00		 push	 0
  00136	e8 00 00 00 00	 call	 __invoke_watson
$LN111@Emplace_re:
; File C:\Program Files\Microsoft Visual Studio\2022\Professional\VC\Tools\MSVC\14.44.35207\include\vector

; 888  :             _Xlength();

  0013b	e8 00 00 00 00	 call	 ?_Xlength@?$vector@KV?$allocator@K@std@@@std@@CAXXZ ; std::vector<unsigned long,std::allocator<unsigned long> >::_Xlength
$LN112@Emplace_re:
; File C:\Program Files\Microsoft Visual Studio\2022\Professional\VC\Tools\MSVC\14.44.35207\include\xmemory

; 118  :             _Throw_bad_array_new_length(); // multiply overflow

  00140	e8 00 00 00 00	 call	 ?_Throw_bad_array_new_length@std@@YAXXZ ; std::_Throw_bad_array_new_length
$LN108@Emplace_re:
  00145	cc		 int	 3
??$_Emplace_reallocate@K@?$vector@KV?$allocator@K@std@@@std@@AAEPAKQAK$$QAK@Z ENDP ; std::vector<unsigned long,std::allocator<unsigned long> >::_Emplace_reallocate<unsigned long>
_TEXT	ENDS
; Function compile flags: /Ogtp
; File C:\Program Files\Microsoft Visual Studio\2022\Professional\VC\Tools\MSVC\14.44.35207\include\xutility
;	COMDAT ??$_Copy_memmove@PAKPAK@std@@YAPAKPAK00@Z
_TEXT	SEGMENT
__First$ = 8						; size = 4
__Last$ = 12						; size = 4
__Dest$ = 16						; size = 4
??$_Copy_memmove@PAKPAK@std@@YAPAKPAK00@Z PROC		; std::_Copy_memmove<unsigned long *,unsigned long *>, COMDAT

; 4762 : _OutCtgIt _Copy_memmove(_CtgIt _First, _CtgIt _Last, _OutCtgIt _Dest) {

  00000	55		 push	 ebp
  00001	8b ec		 mov	 ebp, esp

; 4763 :     _STL_INTERNAL_CHECK(_First <= _Last);
; 4764 :     const auto _First_ptr    = _STD _To_address(_First);
; 4765 :     const auto _Last_ptr     = _STD _To_address(_Last);
; 4766 :     const auto _Object_count = static_cast<size_t>(_Last_ptr - _First_ptr);

  00003	8b 55 08	 mov	 edx, DWORD PTR __First$[ebp]
  00006	8b 4d 0c	 mov	 ecx, DWORD PTR __Last$[ebp]
  00009	2b ca		 sub	 ecx, edx
  0000b	8b c1		 mov	 eax, ecx
  0000d	c1 f8 02	 sar	 eax, 2

; 4767 :     const auto _First_ch     = const_cast<const char*>(reinterpret_cast<const volatile char*>(_First_ptr));
; 4768 :     const auto _Last_ch      = const_cast<const char*>(reinterpret_cast<const volatile char*>(_Last_ptr));
; 4769 :     const auto _Byte_count   = static_cast<size_t>(_Last_ch - _First_ch);
; 4770 :     return _STD _Copy_memmove_tail(_First_ch, _STD move(_Dest), _Byte_count, _Object_count);

  00010	50		 push	 eax
  00011	51		 push	 ecx
  00012	ff 75 10	 push	 DWORD PTR __Dest$[ebp]
  00015	52		 push	 edx
  00016	e8 00 00 00 00	 call	 ??$_Copy_memmove_tail@PAK@std@@YAPAKQBDQAKII@Z ; std::_Copy_memmove_tail<unsigned long *>
  0001b	83 c4 10	 add	 esp, 16			; 00000010H

; 4771 : }

  0001e	5d		 pop	 ebp
  0001f	c3		 ret	 0
??$_Copy_memmove@PAKPAK@std@@YAPAKPAK00@Z ENDP		; std::_Copy_memmove<unsigned long *,unsigned long *>
_TEXT	ENDS
; Function compile flags: /Ogtp
; File C:\Program Files\Microsoft Visual Studio\2022\Professional\VC\Tools\MSVC\14.44.35207\include\vector
; File C:\Program Files\Microsoft Visual Studio\2022\Professional\VC\Tools\MSVC\14.44.35207\include\xmemory
; File C:\Program Files\Microsoft Visual Studio\2022\Professional\VC\Tools\MSVC\14.44.35207\include\vector
; File C:\Program Files\Microsoft Visual Studio\2022\Professional\VC\Tools\MSVC\14.44.35207\include\xmemory
; File C:\Program Files\Microsoft Visual Studio\2022\Professional\VC\Tools\MSVC\14.44.35207\include\vector
; File C:\Program Files\Microsoft Visual Studio\2022\Professional\VC\Tools\MSVC\14.44.35207\include\xmemory
; File C:\Program Files\Microsoft Visual Studio\2022\Professional\VC\Tools\MSVC\14.44.35207\include\vector
; File C:\Program Files\Microsoft Visual Studio\2022\Professional\VC\Tools\MSVC\14.44.35207\include\xmemory
; File C:\Program Files\Microsoft Visual Studio\2022\Professional\VC\Tools\MSVC\14.44.35207\include\vector
; File C:\Program Files\Microsoft Visual Studio\2022\Professional\VC\Tools\MSVC\14.44.35207\include\xmemory
; File C:\Program Files\Microsoft Visual Studio\2022\Professional\VC\Tools\MSVC\14.44.35207\include\vector
; File C:\Program Files\Microsoft Visual Studio\2022\Professional\VC\Tools\MSVC\14.44.35207\include\xmemory
; File C:\Program Files\Microsoft Visual Studio\2022\Professional\VC\Tools\MSVC\14.44.35207\include\vector
; File C:\Program Files\Microsoft Visual Studio\2022\Professional\VC\Tools\MSVC\14.44.35207\include\xmemory
; File C:\Program Files\Microsoft Visual Studio\2022\Professional\VC\Tools\MSVC\14.44.35207\include\vector
; File C:\Program Files\Microsoft Visual Studio\2022\Professional\VC\Tools\MSVC\14.44.35207\include\xmemory
; File C:\Program Files\Microsoft Visual Studio\2022\Professional\VC\Tools\MSVC\14.44.35207\include\vector
; File C:\Program Files\Microsoft Visual Studio\2022\Professional\VC\Tools\MSVC\14.44.35207\include\xmemory
; File C:\Program Files\Microsoft Visual Studio\2022\Professional\VC\Tools\MSVC\14.44.35207\include\vector
; File C:\Program Files\Microsoft Visual Studio\2022\Professional\VC\Tools\MSVC\14.44.35207\include\xmemory
; File C:\Program Files\Microsoft Visual Studio\2022\Professional\VC\Tools\MSVC\14.44.35207\include\vector
;	COMDAT ??$_Emplace_reallocate@ABU__MONSTERSKILL@@@?$vector@U__MONSTERSKILL@@V?$allocator@U__MONSTERSKILL@@@std@@@std@@AAEPAU__MONSTERSKILL@@QAU2@ABU2@@Z
_TEXT	SEGMENT
__Newsize$1$ = -12					; size = 4
$T1 = -8						; size = 4
tv710 = -4						; size = 4
__Whereptr$ = 8						; size = 4
_<_Val_0>$ = 12						; size = 4
??$_Emplace_reallocate@ABU__MONSTERSKILL@@@?$vector@U__MONSTERSKILL@@V?$allocator@U__MONSTERSKILL@@@std@@@std@@AAEPAU__MONSTERSKILL@@QAU2@ABU2@@Z PROC ; std::vector<__MONSTERSKILL,std::allocator<__MONSTERSKILL> >::_Emplace_reallocate<__MONSTERSKILL const &>, COMDAT
; _this$ = ecx

; 875  :     _CONSTEXPR20 pointer _Emplace_reallocate(const pointer _Whereptr, _Valty&&... _Val) {

  00000	55		 push	 ebp
  00001	8b ec		 mov	 ebp, esp
  00003	83 ec 0c	 sub	 esp, 12			; 0000000cH
  00006	53		 push	 ebx

; 876  :         // reallocate and insert by perfectly forwarding _Val at _Whereptr
; 877  :         _Alty& _Al        = _Getal();
; 878  :         auto& _My_data    = _Mypair._Myval2;
; 879  :         pointer& _Myfirst = _My_data._Myfirst;
; 880  :         pointer& _Mylast  = _My_data._Mylast;
; 881  : 
; 882  :         _STL_INTERNAL_CHECK(_Mylast == _My_data._Myend); // check that we have no unused capacity
; 883  : 
; 884  :         const auto _Whereoff = static_cast<size_type>(_Whereptr - _Myfirst);

  00007	8b 5d 08	 mov	 ebx, DWORD PTR __Whereptr$[ebp]
  0000a	56		 push	 esi
  0000b	8b f1		 mov	 esi, ecx
  0000d	57		 push	 edi
  0000e	8b 0e		 mov	 ecx, DWORD PTR [esi]
  00010	2b d9		 sub	 ebx, ecx

; 885  :         const auto _Oldsize  = static_cast<size_type>(_Mylast - _Myfirst);

  00012	8b 46 04	 mov	 eax, DWORD PTR [esi+4]
  00015	2b c1		 sub	 eax, ecx
  00017	c1 f8 05	 sar	 eax, 5

; 886  : 
; 887  :         if (_Oldsize == max_size()) {

  0001a	3d ff ff ff 07	 cmp	 eax, 134217727		; 07ffffffH
  0001f	0f 84 20 01 00
	00		 je	 $LN119@Emplace_re

; 1924 :         return static_cast<size_type>(_My_data._Myend - _My_data._Myfirst);

  00025	8b 7e 08	 mov	 edi, DWORD PTR [esi+8]

; 889  :         }
; 890  : 
; 891  :         const size_type _Newsize = _Oldsize + 1;

  00028	8d 50 01	 lea	 edx, DWORD PTR [eax+1]

; 1924 :         return static_cast<size_type>(_My_data._Myend - _My_data._Myfirst);

  0002b	2b f9		 sub	 edi, ecx

; 889  :         }
; 890  : 
; 891  :         const size_type _Newsize = _Oldsize + 1;

  0002d	89 55 f4	 mov	 DWORD PTR __Newsize$1$[ebp], edx

; 1924 :         return static_cast<size_type>(_My_data._Myend - _My_data._Myfirst);

  00030	c1 ff 05	 sar	 edi, 5

; 2011 :         if (_Oldcapacity > _Max - _Oldcapacity / 2) {

  00033	b8 ff ff ff 07	 mov	 eax, 134217727		; 07ffffffH
  00038	8b cf		 mov	 ecx, edi
  0003a	d1 e9		 shr	 ecx, 1
  0003c	2b c1		 sub	 eax, ecx
  0003e	3b f8		 cmp	 edi, eax
  00040	76 14		 jbe	 SHORT $LN8@Emplace_re

; 2012 :             return _Max; // geometric growth would overflow

  00042	b8 e0 ff ff ff	 mov	 eax, -32		; ffffffe0H
  00047	c7 45 f8 e0 ff
	ff ff		 mov	 DWORD PTR $T1[ebp], -32	; ffffffe0H
; File C:\Program Files\Microsoft Visual Studio\2022\Professional\VC\Tools\MSVC\14.44.35207\include\xmemory

; 253  :             return _Allocate_manually_vector_aligned<_Traits>(_Bytes);

  0004e	50		 push	 eax
  0004f	e8 00 00 00 00	 call	 ??$_Allocate_manually_vector_aligned@U_Default_allocate_traits@std@@@std@@YAPAXI@Z ; std::_Allocate_manually_vector_aligned<std::_Default_allocate_traits>
  00054	eb 3b		 jmp	 SHORT $LN117@Emplace_re
$LN8@Emplace_re:
; File C:\Program Files\Microsoft Visual Studio\2022\Professional\VC\Tools\MSVC\14.44.35207\include\vector

; 2015 :         const size_type _Geometric = _Oldcapacity + _Oldcapacity / 2;

  00056	8d 04 39	 lea	 eax, DWORD PTR [ecx+edi]
; File C:\Program Files\Microsoft Visual Studio\2022\Professional\VC\Tools\MSVC\14.44.35207\include\xmemory

; 117  :         if (_Count > _Max_possible) {

  00059	8b ca		 mov	 ecx, edx
  0005b	3b c2		 cmp	 eax, edx
  0005d	0f 43 c8	 cmovae	 ecx, eax
  00060	81 f9 ff ff ff
	07		 cmp	 ecx, 134217727		; 07ffffffH
  00066	0f 87 de 00 00
	00		 ja	 $LN120@Emplace_re

; 119  :         }
; 120  :     }
; 121  : 
; 122  :     return _Count * _Ty_size;

  0006c	c1 e1 05	 shl	 ecx, 5

; 990  :         return static_cast<_Ty*>(_STD _Allocate<_New_alignof<_Ty>>(_Get_size_of_n<sizeof(_Ty)>(_Count)));

  0006f	8b c1		 mov	 eax, ecx

; 122  :     return _Count * _Ty_size;

  00071	89 4d f8	 mov	 DWORD PTR $T1[ebp], ecx

; 227  :     if (_Bytes == 0) {

  00074	85 c0		 test	 eax, eax
  00076	75 04		 jne	 SHORT $LN23@Emplace_re

; 228  :         return nullptr;

  00078	33 ff		 xor	 edi, edi
  0007a	eb 1a		 jmp	 SHORT $LN22@Emplace_re
$LN23@Emplace_re:

; 229  :     }
; 230  : 
; 231  : #if _HAS_CXX20 // TRANSITION, GH-1532
; 232  :     if (_STD is_constant_evaluated()) {
; 233  :         return _Traits::_Allocate(_Bytes);
; 234  :     }
; 235  : #endif // _HAS_CXX20
; 236  : 
; 237  : #ifdef __cpp_aligned_new
; 238  :     if constexpr (_Align > __STDCPP_DEFAULT_NEW_ALIGNMENT__) {
; 239  :         size_t _Passed_align = _Align;
; 240  : #if defined(_M_IX86) || defined(_M_X64)
; 241  :         if (_Bytes >= _Big_allocation_threshold) {
; 242  :             // boost the alignment of big allocations to help autovectorization
; 243  :             _Passed_align = (_STD max)(_Align, _Big_allocation_alignment);
; 244  :         }
; 245  : #endif // defined(_M_IX86) || defined(_M_X64)
; 246  :         return _Traits::_Allocate_aligned(_Bytes, _Passed_align);
; 247  :     } else
; 248  : #endif // defined(__cpp_aligned_new)
; 249  :     {
; 250  : #if defined(_M_IX86) || defined(_M_X64)
; 251  :         if (_Bytes >= _Big_allocation_threshold) {

  0007c	3d 00 10 00 00	 cmp	 eax, 4096		; 00001000H
  00081	72 08		 jb	 SHORT $LN24@Emplace_re

; 253  :             return _Allocate_manually_vector_aligned<_Traits>(_Bytes);

  00083	50		 push	 eax
  00084	e8 00 00 00 00	 call	 ??$_Allocate_manually_vector_aligned@U_Default_allocate_traits@std@@@std@@YAPAXI@Z ; std::_Allocate_manually_vector_aligned<std::_Default_allocate_traits>
  00089	eb 06		 jmp	 SHORT $LN117@Emplace_re
$LN24@Emplace_re:

; 136  :         return ::operator new(_Bytes);

  0008b	50		 push	 eax
  0008c	e8 00 00 00 00	 call	 ??2@YAPAXI@Z		; operator new
$LN117@Emplace_re:
; File C:\Program Files\Microsoft Visual Studio\2022\Professional\VC\Tools\MSVC\14.44.35207\include\vector

; 900  :         _Alty_traits::construct(_Al, _STD _Unfancy(_Newvec + _Whereoff), _STD forward<_Valty>(_Val)...);

  00091	8b f8		 mov	 edi, eax
  00093	83 c4 04	 add	 esp, 4
$LN22@Emplace_re:
; File C:\Program Files\Microsoft Visual Studio\2022\Professional\VC\Tools\MSVC\14.44.35207\include\xmemory

; 732  :         ::new (const_cast<void*>(static_cast<const volatile void*>(_Ptr))) _Objty(_STD forward<_Types>(_Args)...);

  00096	8b 45 0c	 mov	 eax, DWORD PTR _<_Val_0>$[ebp]
; File C:\Program Files\Microsoft Visual Studio\2022\Professional\VC\Tools\MSVC\14.44.35207\include\vector

; 900  :         _Alty_traits::construct(_Al, _STD _Unfancy(_Newvec + _Whereoff), _STD forward<_Valty>(_Val)...);

  00099	83 e3 e0	 and	 ebx, -32		; ffffffe0H
  0009c	8d 0c 3b	 lea	 ecx, DWORD PTR [ebx+edi]

; 903  :         if (_Whereptr == _Mylast) { // at back, provide strong guarantee

  0009f	8b 5d 08	 mov	 ebx, DWORD PTR __Whereptr$[ebp]
  000a2	89 4d fc	 mov	 DWORD PTR tv710[ebp], ecx
; File C:\Program Files\Microsoft Visual Studio\2022\Professional\VC\Tools\MSVC\14.44.35207\include\xmemory

; 732  :         ::new (const_cast<void*>(static_cast<const volatile void*>(_Ptr))) _Objty(_STD forward<_Types>(_Args)...);

  000a5	0f 10 00	 movups	 xmm0, XMMWORD PTR [eax]
  000a8	0f 11 01	 movups	 XMMWORD PTR [ecx], xmm0
  000ab	0f 10 40 10	 movups	 xmm0, XMMWORD PTR [eax+16]
  000af	0f 11 41 10	 movups	 XMMWORD PTR [ecx+16], xmm0
; File C:\Program Files\Microsoft Visual Studio\2022\Professional\VC\Tools\MSVC\14.44.35207\include\vector

; 903  :         if (_Whereptr == _Mylast) { // at back, provide strong guarantee

  000b3	8b 56 04	 mov	 edx, DWORD PTR [esi+4]
  000b6	8b 0e		 mov	 ecx, DWORD PTR [esi]
  000b8	3b da		 cmp	 ebx, edx
  000ba	75 07		 jne	 SHORT $LN3@Emplace_re

; 909  :         } else { // provide basic guarantee

  000bc	8b 5d fc	 mov	 ebx, DWORD PTR tv710[ebp]
; File C:\Program Files\Microsoft Visual Studio\2022\Professional\VC\Tools\MSVC\14.44.35207\include\xmemory

; 1992 :             _STD _Copy_memmove(_UFirst, _ULast, _STD _Unfancy(_Dest));

  000bf	8b c7		 mov	 eax, edi
; File C:\Program Files\Microsoft Visual Studio\2022\Professional\VC\Tools\MSVC\14.44.35207\include\vector

; 909  :         } else { // provide basic guarantee

  000c1	eb 16		 jmp	 SHORT $LN58@Emplace_re
$LN3@Emplace_re:
; File C:\Program Files\Microsoft Visual Studio\2022\Professional\VC\Tools\MSVC\14.44.35207\include\xmemory

; 1992 :             _STD _Copy_memmove(_UFirst, _ULast, _STD _Unfancy(_Dest));

  000c3	57		 push	 edi
  000c4	53		 push	 ebx
  000c5	51		 push	 ecx
  000c6	e8 00 00 00 00	 call	 ??$_Copy_memmove@PAU__MONSTERSKILL@@PAU1@@std@@YAPAU__MONSTERSKILL@@PAU1@00@Z ; std::_Copy_memmove<__MONSTERSKILL *,__MONSTERSKILL *>
  000cb	8b 56 04	 mov	 edx, DWORD PTR [esi+4]
  000ce	8b cb		 mov	 ecx, ebx
; File C:\Program Files\Microsoft Visual Studio\2022\Professional\VC\Tools\MSVC\14.44.35207\include\vector

; 912  :             _STD _Uninitialized_move(_Whereptr, _Mylast, _Newvec + _Whereoff + 1, _Al);

  000d0	8b 5d fc	 mov	 ebx, DWORD PTR tv710[ebp]
; File C:\Program Files\Microsoft Visual Studio\2022\Professional\VC\Tools\MSVC\14.44.35207\include\xmemory

; 1992 :             _STD _Copy_memmove(_UFirst, _ULast, _STD _Unfancy(_Dest));

  000d3	83 c4 0c	 add	 esp, 12			; 0000000cH
; File C:\Program Files\Microsoft Visual Studio\2022\Professional\VC\Tools\MSVC\14.44.35207\include\vector

; 912  :             _STD _Uninitialized_move(_Whereptr, _Mylast, _Newvec + _Whereoff + 1, _Al);

  000d6	8d 43 20	 lea	 eax, DWORD PTR [ebx+32]
$LN58@Emplace_re:

; 913  :         }
; 914  : 
; 915  :         _Guard._New_begin = nullptr;

  000d9	50		 push	 eax
  000da	52		 push	 edx
  000db	51		 push	 ecx
  000dc	e8 00 00 00 00	 call	 ??$_Copy_memmove@PAU__MONSTERSKILL@@PAU1@@std@@YAPAU__MONSTERSKILL@@PAU1@00@Z ; std::_Copy_memmove<__MONSTERSKILL *,__MONSTERSKILL *>

; 2069 :         if (_Myfirst) { // destroy and deallocate old array

  000e1	8b 06		 mov	 eax, DWORD PTR [esi]

; 913  :         }
; 914  : 
; 915  :         _Guard._New_begin = nullptr;

  000e3	83 c4 0c	 add	 esp, 12			; 0000000cH

; 2069 :         if (_Myfirst) { // destroy and deallocate old array

  000e6	85 c0		 test	 eax, eax
  000e8	74 2c		 je	 SHORT $LN80@Emplace_re

; 2070 :             _STD _Destroy_range(_Myfirst, _Mylast, _Al);
; 2071 :             _ASAN_VECTOR_REMOVE;
; 2072 :             _Al.deallocate(_Myfirst, static_cast<size_type>(_Myend - _Myfirst));

  000ea	8b 4e 08	 mov	 ecx, DWORD PTR [esi+8]
  000ed	2b c8		 sub	 ecx, eax
; File C:\Program Files\Microsoft Visual Studio\2022\Professional\VC\Tools\MSVC\14.44.35207\include\xmemory

; 985  :         _STD _Deallocate<_New_alignof<_Ty>>(_Ptr, sizeof(_Ty) * _Count);

  000ef	83 e1 e0	 and	 ecx, -32		; ffffffe0H

; 284  :         if (_Bytes >= _Big_allocation_threshold) {

  000f2	81 f9 00 10 00
	00		 cmp	 ecx, 4096		; 00001000H
  000f8	72 12		 jb	 SHORT $LN85@Emplace_re

; 205  :     const uintptr_t _Ptr_container   = _Ptr_user[-1];

  000fa	8b 50 fc	 mov	 edx, DWORD PTR [eax-4]
  000fd	83 c1 23	 add	 ecx, 35			; 00000023H

; 206  : 
; 207  :     // If the following asserts, it likely means that we are performing
; 208  :     // an aligned delete on memory coming from an unaligned allocation.
; 209  :     _STL_ASSERT(_Ptr_user[-2] == _Big_allocation_sentinel, "invalid argument");
; 210  : 
; 211  :     // Extra paranoia on aligned allocation/deallocation; ensure _Ptr_container is
; 212  :     // in range [_Min_back_shift, _Non_user_size]
; 213  : #ifdef _DEBUG
; 214  :     constexpr uintptr_t _Min_back_shift = 2 * sizeof(void*);
; 215  : #else // ^^^ defined(_DEBUG) / !defined(_DEBUG) vvv
; 216  :     constexpr uintptr_t _Min_back_shift = sizeof(void*);
; 217  : #endif // ^^^ !defined(_DEBUG) ^^^
; 218  :     const uintptr_t _Back_shift = reinterpret_cast<uintptr_t>(_Ptr) - _Ptr_container;

  00100	2b c2		 sub	 eax, edx

; 219  :     _STL_VERIFY(_Back_shift >= _Min_back_shift && _Back_shift <= _Non_user_size, "invalid argument");

  00102	83 c0 fc	 add	 eax, -4			; fffffffcH
  00105	83 f8 1f	 cmp	 eax, 31			; 0000001fH
  00108	77 2c		 ja	 SHORT $LN84@Emplace_re

; 220  :     _Ptr = reinterpret_cast<void*>(_Ptr_container);

  0010a	8b c2		 mov	 eax, edx
$LN85@Emplace_re:

; 289  :         ::operator delete(_Ptr, _Bytes);

  0010c	51		 push	 ecx
  0010d	50		 push	 eax
  0010e	e8 00 00 00 00	 call	 ??3@YAXPAXI@Z		; operator delete
  00113	83 c4 08	 add	 esp, 8
$LN80@Emplace_re:
; File C:\Program Files\Microsoft Visual Studio\2022\Professional\VC\Tools\MSVC\14.44.35207\include\vector

; 2076 :         _Mylast  = _Newvec + _Newsize;

  00116	8b 45 f4	 mov	 eax, DWORD PTR __Newsize$1$[ebp]

; 2077 :         _Myend   = _Newvec + _Newcapacity;

  00119	8b 4d f8	 mov	 ecx, DWORD PTR $T1[ebp]
  0011c	c1 e0 05	 shl	 eax, 5
  0011f	03 c7		 add	 eax, edi
  00121	89 3e		 mov	 DWORD PTR [esi], edi
  00123	89 46 04	 mov	 DWORD PTR [esi+4], eax
  00126	03 cf		 add	 ecx, edi

; 918  :     }

  00128	5f		 pop	 edi

; 2077 :         _Myend   = _Newvec + _Newcapacity;

  00129	89 4e 08	 mov	 DWORD PTR [esi+8], ecx

; 916  :         _Change_array(_Newvec, _Newsize, _Newcapacity);
; 917  :         return _Newvec + _Whereoff;

  0012c	8b c3		 mov	 eax, ebx

; 918  :     }

  0012e	5e		 pop	 esi
  0012f	5b		 pop	 ebx
  00130	8b e5		 mov	 esp, ebp
  00132	5d		 pop	 ebp
  00133	c2 08 00	 ret	 8
$LN84@Emplace_re:
; File C:\Program Files\Microsoft Visual Studio\2022\Professional\VC\Tools\MSVC\14.44.35207\include\xmemory

; 219  :     _STL_VERIFY(_Back_shift >= _Min_back_shift && _Back_shift <= _Non_user_size, "invalid argument");

  00136	6a 00		 push	 0
  00138	6a 00		 push	 0
  0013a	6a 00		 push	 0
  0013c	6a 00		 push	 0
  0013e	6a 00		 push	 0
  00140	e8 00 00 00 00	 call	 __invoke_watson
$LN119@Emplace_re:
; File C:\Program Files\Microsoft Visual Studio\2022\Professional\VC\Tools\MSVC\14.44.35207\include\vector

; 888  :             _Xlength();

  00145	e8 00 00 00 00	 call	 ?_Xlength@?$vector@U__MONSTERSKILL@@V?$allocator@U__MONSTERSKILL@@@std@@@std@@CAXXZ ; std::vector<__MONSTERSKILL,std::allocator<__MONSTERSKILL> >::_Xlength
$LN120@Emplace_re:
; File C:\Program Files\Microsoft Visual Studio\2022\Professional\VC\Tools\MSVC\14.44.35207\include\xmemory

; 118  :             _Throw_bad_array_new_length(); // multiply overflow

  0014a	e8 00 00 00 00	 call	 ?_Throw_bad_array_new_length@std@@YAXXZ ; std::_Throw_bad_array_new_length
$LN116@Emplace_re:
  0014f	cc		 int	 3
??$_Emplace_reallocate@ABU__MONSTERSKILL@@@?$vector@U__MONSTERSKILL@@V?$allocator@U__MONSTERSKILL@@@std@@@std@@AAEPAU__MONSTERSKILL@@QAU2@ABU2@@Z ENDP ; std::vector<__MONSTERSKILL,std::allocator<__MONSTERSKILL> >::_Emplace_reallocate<__MONSTERSKILL const &>
_TEXT	ENDS
; Function compile flags: /Ogtp
; File C:\Program Files\Microsoft Visual Studio\2022\Professional\VC\Tools\MSVC\14.44.35207\include\xtree
; File C:\Program Files\Microsoft Visual Studio\2022\Professional\VC\Tools\MSVC\14.44.35207\include\type_traits
; File C:\Program Files\Microsoft Visual Studio\2022\Professional\VC\Tools\MSVC\14.44.35207\include\xtree
; File C:\Program Files\Microsoft Visual Studio\2022\Professional\VC\Tools\MSVC\14.44.35207\include\type_traits
; File C:\Program Files\Microsoft Visual Studio\2022\Professional\VC\Tools\MSVC\14.44.35207\include\xtree
;	COMDAT ??$_Find_lower_bound@K@?$_Tree@V?$_Tmap_traits@KV?$vector@U__MONSTERSKILL@@V?$allocator@U__MONSTERSKILL@@@std@@@std@@U?$less@K@2@V?$allocator@U?$pair@$$CBKV?$vector@U__MONSTERSKILL@@V?$allocator@U__MONSTERSKILL@@@std@@@std@@@std@@@2@$0A@@std@@@std@@IBE?AU?$_Tree_find_result@PAU?$_Tree_node@U?$pair@$$CBKV?$vector@U__MONSTERSKILL@@V?$allocator@U__MONSTERSKILL@@@std@@@std@@@std@@PAX@std@@@1@ABK@Z
_TEXT	SEGMENT
___$ReturnUdt$ = 8					; size = 4
__Keyval$ = 12						; size = 4
??$_Find_lower_bound@K@?$_Tree@V?$_Tmap_traits@KV?$vector@U__MONSTERSKILL@@V?$allocator@U__MONSTERSKILL@@@std@@@std@@U?$less@K@2@V?$allocator@U?$pair@$$CBKV?$vector@U__MONSTERSKILL@@V?$allocator@U__MONSTERSKILL@@@std@@@std@@@std@@@2@$0A@@std@@@std@@IBE?AU?$_Tree_find_result@PAU?$_Tree_node@U?$pair@$$CBKV?$vector@U__MONSTERSKILL@@V?$allocator@U__MONSTERSKILL@@@std@@@std@@@std@@PAX@std@@@1@ABK@Z PROC ; std::_Tree<std::_Tmap_traits<unsigned long,std::vector<__MONSTERSKILL,std::allocator<__MONSTERSKILL> >,std::less<unsigned long>,std::allocator<std::pair<unsigned long const ,std::vector<__MONSTERSKILL,std::allocator<__MONSTERSKILL> > > >,0> >::_Find_lower_bound<unsigned long>, COMDAT
; _this$ = ecx

; 1628 :     _Tree_find_result<_Nodeptr> _Find_lower_bound(const _Keyty& _Keyval) const {

  00000	55		 push	 ebp
  00001	8b ec		 mov	 ebp, esp

; 1629 :         const auto _Scary = _Get_scary();
; 1630 :         _Tree_find_result<_Nodeptr> _Result{{_Scary->_Myhead->_Parent, _Tree_child::_Right}, _Scary->_Myhead};

  00003	8b 09		 mov	 ecx, DWORD PTR [ecx]
  00005	8b 55 08	 mov	 edx, DWORD PTR ___$ReturnUdt$[ebp]
  00008	8b 41 04	 mov	 eax, DWORD PTR [ecx+4]
  0000b	89 02		 mov	 DWORD PTR [edx], eax
  0000d	c7 42 04 00 00
	00 00		 mov	 DWORD PTR [edx+4], 0
  00014	89 4a 08	 mov	 DWORD PTR [edx+8], ecx

; 1631 :         _Nodeptr _Trynode = _Result._Location._Parent;
; 1632 :         while (!_Trynode->_Isnil) {

  00017	80 78 0d 00	 cmp	 BYTE PTR [eax+13], 0
  0001b	75 28		 jne	 SHORT $LN13@Find_lower
; File C:\Program Files\Microsoft Visual Studio\2022\Professional\VC\Tools\MSVC\14.44.35207\include\type_traits

; 2380 :         return _Left < _Right;

  0001d	8b 4d 0c	 mov	 ecx, DWORD PTR __Keyval$[ebp]
  00020	56		 push	 esi
  00021	8b 31		 mov	 esi, DWORD PTR [ecx]
$LL2@Find_lower:
; File C:\Program Files\Microsoft Visual Studio\2022\Professional\VC\Tools\MSVC\14.44.35207\include\xtree

; 1633 :             _Result._Location._Parent = _Trynode;

  00023	89 02		 mov	 DWORD PTR [edx], eax
; File C:\Program Files\Microsoft Visual Studio\2022\Professional\VC\Tools\MSVC\14.44.35207\include\type_traits

; 2380 :         return _Left < _Right;

  00025	39 70 10	 cmp	 DWORD PTR [eax+16], esi
; File C:\Program Files\Microsoft Visual Studio\2022\Professional\VC\Tools\MSVC\14.44.35207\include\xtree

; 1634 :             if (_DEBUG_LT_PRED(_Getcomp(), _Traits::_Kfn(_Trynode->_Myval), _Keyval)) {

  00028	73 07		 jae	 SHORT $LN4@Find_lower

; 1635 :                 _Result._Location._Child = _Tree_child::_Right;
; 1636 :                 _Trynode                 = _Trynode->_Right;

  0002a	8b 40 08	 mov	 eax, DWORD PTR [eax+8]
  0002d	33 c9		 xor	 ecx, ecx

; 1637 :             } else {

  0002f	eb 0a		 jmp	 SHORT $LN5@Find_lower
$LN4@Find_lower:

; 1638 :                 _Result._Location._Child = _Tree_child::_Left;
; 1639 :                 _Result._Bound           = _Trynode;

  00031	89 42 08	 mov	 DWORD PTR [edx+8], eax

; 1640 :                 _Trynode                 = _Trynode->_Left;

  00034	b9 01 00 00 00	 mov	 ecx, 1
  00039	8b 00		 mov	 eax, DWORD PTR [eax]
$LN5@Find_lower:

; 1631 :         _Nodeptr _Trynode = _Result._Location._Parent;
; 1632 :         while (!_Trynode->_Isnil) {

  0003b	89 4a 04	 mov	 DWORD PTR [edx+4], ecx
  0003e	80 78 0d 00	 cmp	 BYTE PTR [eax+13], 0
  00042	74 df		 je	 SHORT $LL2@Find_lower
  00044	5e		 pop	 esi
$LN13@Find_lower:

; 1641 :             }
; 1642 :         }
; 1643 : 
; 1644 :         return _Result;
; 1645 :     }

  00045	8b c2		 mov	 eax, edx
  00047	5d		 pop	 ebp
  00048	c2 08 00	 ret	 8
??$_Find_lower_bound@K@?$_Tree@V?$_Tmap_traits@KV?$vector@U__MONSTERSKILL@@V?$allocator@U__MONSTERSKILL@@@std@@@std@@U?$less@K@2@V?$allocator@U?$pair@$$CBKV?$vector@U__MONSTERSKILL@@V?$allocator@U__MONSTERSKILL@@@std@@@std@@@std@@@2@$0A@@std@@@std@@IBE?AU?$_Tree_find_result@PAU?$_Tree_node@U?$pair@$$CBKV?$vector@U__MONSTERSKILL@@V?$allocator@U__MONSTERSKILL@@@std@@@std@@@std@@PAX@std@@@1@ABK@Z ENDP ; std::_Tree<std::_Tmap_traits<unsigned long,std::vector<__MONSTERSKILL,std::allocator<__MONSTERSKILL> >,std::less<unsigned long>,std::allocator<std::pair<unsigned long const ,std::vector<__MONSTERSKILL,std::allocator<__MONSTERSKILL> > > >,0> >::_Find_lower_bound<unsigned long>
_TEXT	ENDS
; Function compile flags: /Ogtp
; File C:\Program Files\Microsoft Visual Studio\2022\Professional\VC\Tools\MSVC\14.44.35207\include\xtree
; File C:\Program Files\Microsoft Visual Studio\2022\Professional\VC\Tools\MSVC\14.44.35207\include\utility
; File C:\Program Files\Microsoft Visual Studio\2022\Professional\VC\Tools\MSVC\14.44.35207\include\xtree
; File C:\Program Files\Microsoft Visual Studio\2022\Professional\VC\Tools\MSVC\14.44.35207\include\vector
; File C:\Program Files\Microsoft Visual Studio\2022\Professional\VC\Tools\MSVC\14.44.35207\include\xmemory
; File C:\Program Files\Microsoft Visual Studio\2022\Professional\VC\Tools\MSVC\14.44.35207\include\xtree
; File C:\Program Files\Microsoft Visual Studio\2022\Professional\VC\Tools\MSVC\14.44.35207\include\xmemory
; File C:\Program Files\Microsoft Visual Studio\2022\Professional\VC\Tools\MSVC\14.44.35207\include\xtree
;	COMDAT ??$_Erase_tree@V?$allocator@U?$_Tree_node@U?$pair@$$CBKV?$vector@U__MONSTERSKILL@@V?$allocator@U__MONSTERSKILL@@@std@@@std@@@std@@PAX@std@@@std@@@?$_Tree_val@U?$_Tree_simple_types@U?$pair@$$CBKV?$vector@U__MONSTERSKILL@@V?$allocator@U__MONSTERSKILL@@@std@@@std@@@std@@@std@@@std@@QAEXAAV?$allocator@U?$_Tree_node@U?$pair@$$CBKV?$vector@U__MONSTERSKILL@@V?$allocator@U__MONSTERSKILL@@@std@@@std@@@std@@PAX@std@@@1@PAU?$_Tree_node@U?$pair@$$CBKV?$vector@U__MONSTERSKILL@@V?$allocator@U__MONSTERSKILL@@@std@@@std@@@std@@PAX@1@@Z
_TEXT	SEGMENT
_this$1$ = -4						; size = 4
__Al$ = 8						; size = 4
__Rootnode$ = 12					; size = 4
??$_Erase_tree@V?$allocator@U?$_Tree_node@U?$pair@$$CBKV?$vector@U__MONSTERSKILL@@V?$allocator@U__MONSTERSKILL@@@std@@@std@@@std@@PAX@std@@@std@@@?$_Tree_val@U?$_Tree_simple_types@U?$pair@$$CBKV?$vector@U__MONSTERSKILL@@V?$allocator@U__MONSTERSKILL@@@std@@@std@@@std@@@std@@@std@@QAEXAAV?$allocator@U?$_Tree_node@U?$pair@$$CBKV?$vector@U__MONSTERSKILL@@V?$allocator@U__MONSTERSKILL@@@std@@@std@@@std@@PAX@std@@@1@PAU?$_Tree_node@U?$pair@$$CBKV?$vector@U__MONSTERSKILL@@V?$allocator@U__MONSTERSKILL@@@std@@@std@@@std@@PAX@1@@Z PROC ; std::_Tree_val<std::_Tree_simple_types<std::pair<unsigned long const ,std::vector<__MONSTERSKILL,std::allocator<__MONSTERSKILL> > > > >::_Erase_tree<std::allocator<std::_Tree_node<std::pair<unsigned long const ,std::vector<__MONSTERSKILL,std::allocator<__MONSTERSKILL> > >,void *> > >, COMDAT
; _this$ = ecx

; 767  :     void _Erase_tree(_Alnode& _Al, _Nodeptr _Rootnode) noexcept {

  00000	55		 push	 ebp
  00001	8b ec		 mov	 ebp, esp
  00003	51		 push	 ecx
  00004	56		 push	 esi

; 768  :         while (!_Rootnode->_Isnil) { // free subtrees, then node

  00005	8b 75 0c	 mov	 esi, DWORD PTR __Rootnode$[ebp]
  00008	8b c1		 mov	 eax, ecx
  0000a	89 45 fc	 mov	 DWORD PTR _this$1$[ebp], eax
  0000d	80 7e 0d 00	 cmp	 BYTE PTR [esi+13], 0
  00011	75 32		 jne	 SHORT $LN48@Erase_tree
  00013	53		 push	 ebx
  00014	8b 5d 08	 mov	 ebx, DWORD PTR __Al$[ebp]
  00017	57		 push	 edi
$LL2@Erase_tree:

; 769  :             _Erase_tree(_Al, _Rootnode->_Right);

  00018	ff 76 08	 push	 DWORD PTR [esi+8]
  0001b	8b c8		 mov	 ecx, eax
  0001d	53		 push	 ebx
  0001e	e8 00 00 00 00	 call	 ??$_Erase_tree@V?$allocator@U?$_Tree_node@U?$pair@$$CBKV?$vector@U__MONSTERSKILL@@V?$allocator@U__MONSTERSKILL@@@std@@@std@@@std@@PAX@std@@@std@@@?$_Tree_val@U?$_Tree_simple_types@U?$pair@$$CBKV?$vector@U__MONSTERSKILL@@V?$allocator@U__MONSTERSKILL@@@std@@@std@@@std@@@std@@@std@@QAEXAAV?$allocator@U?$_Tree_node@U?$pair@$$CBKV?$vector@U__MONSTERSKILL@@V?$allocator@U__MONSTERSKILL@@@std@@@std@@@std@@PAX@std@@@1@PAU?$_Tree_node@U?$pair@$$CBKV?$vector@U__MONSTERSKILL@@V?$allocator@U__MONSTERSKILL@@@std@@@std@@@std@@PAX@1@@Z ; std::_Tree_val<std::_Tree_simple_types<std::pair<unsigned long const ,std::vector<__MONSTERSKILL,std::allocator<__MONSTERSKILL> > > > >::_Erase_tree<std::allocator<std::_Tree_node<std::pair<unsigned long const ,std::vector<__MONSTERSKILL,std::allocator<__MONSTERSKILL> > >,void *> > >
; File C:\Program Files\Microsoft Visual Studio\2022\Professional\VC\Tools\MSVC\14.44.35207\include\utility

; 773  :     _Ty _Old_val = static_cast<_Ty&&>(_Val);

  00023	8b fe		 mov	 edi, esi

; 774  :     _Val         = static_cast<_Other&&>(_New_val);

  00025	8b 36		 mov	 esi, DWORD PTR [esi]
; File C:\Program Files\Microsoft Visual Studio\2022\Professional\VC\Tools\MSVC\14.44.35207\include\xtree

; 381  :         allocator_traits<_Alloc>::destroy(_Al, _STD addressof(_Ptr->_Myval));

  00027	8d 4f 14	 lea	 ecx, DWORD PTR [edi+20]
; File C:\Program Files\Microsoft Visual Studio\2022\Professional\VC\Tools\MSVC\14.44.35207\include\vector

; 830  :         _Tidy();

  0002a	e8 00 00 00 00	 call	 ?_Tidy@?$vector@U__MONSTERSKILL@@V?$allocator@U__MONSTERSKILL@@@std@@@std@@AAEXXZ ; std::vector<__MONSTERSKILL,std::allocator<__MONSTERSKILL> >::_Tidy
; File C:\Program Files\Microsoft Visual Studio\2022\Professional\VC\Tools\MSVC\14.44.35207\include\xmemory

; 289  :         ::operator delete(_Ptr, _Bytes);

  0002f	6a 20		 push	 32			; 00000020H
  00031	57		 push	 edi
  00032	e8 00 00 00 00	 call	 ??3@YAXPAXI@Z		; operator delete
; File C:\Program Files\Microsoft Visual Studio\2022\Professional\VC\Tools\MSVC\14.44.35207\include\xtree

; 768  :         while (!_Rootnode->_Isnil) { // free subtrees, then node

  00037	8b 45 fc	 mov	 eax, DWORD PTR _this$1$[ebp]
; File C:\Program Files\Microsoft Visual Studio\2022\Professional\VC\Tools\MSVC\14.44.35207\include\xmemory

; 289  :         ::operator delete(_Ptr, _Bytes);

  0003a	83 c4 08	 add	 esp, 8
; File C:\Program Files\Microsoft Visual Studio\2022\Professional\VC\Tools\MSVC\14.44.35207\include\xtree

; 768  :         while (!_Rootnode->_Isnil) { // free subtrees, then node

  0003d	80 7e 0d 00	 cmp	 BYTE PTR [esi+13], 0
  00041	74 d5		 je	 SHORT $LL2@Erase_tree
  00043	5f		 pop	 edi
  00044	5b		 pop	 ebx
$LN48@Erase_tree:
  00045	5e		 pop	 esi

; 770  :             _Alnode::value_type::_Freenode(_Al, _STD exchange(_Rootnode, _Rootnode->_Left));
; 771  :         }
; 772  :     }

  00046	8b e5		 mov	 esp, ebp
  00048	5d		 pop	 ebp
  00049	c2 08 00	 ret	 8
??$_Erase_tree@V?$allocator@U?$_Tree_node@U?$pair@$$CBKV?$vector@U__MONSTERSKILL@@V?$allocator@U__MONSTERSKILL@@@std@@@std@@@std@@PAX@std@@@std@@@?$_Tree_val@U?$_Tree_simple_types@U?$pair@$$CBKV?$vector@U__MONSTERSKILL@@V?$allocator@U__MONSTERSKILL@@@std@@@std@@@std@@@std@@@std@@QAEXAAV?$allocator@U?$_Tree_node@U?$pair@$$CBKV?$vector@U__MONSTERSKILL@@V?$allocator@U__MONSTERSKILL@@@std@@@std@@@std@@PAX@std@@@1@PAU?$_Tree_node@U?$pair@$$CBKV?$vector@U__MONSTERSKILL@@V?$allocator@U__MONSTERSKILL@@@std@@@std@@@std@@PAX@1@@Z ENDP ; std::_Tree_val<std::_Tree_simple_types<std::pair<unsigned long const ,std::vector<__MONSTERSKILL,std::allocator<__MONSTERSKILL> > > > >::_Erase_tree<std::allocator<std::_Tree_node<std::pair<unsigned long const ,std::vector<__MONSTERSKILL,std::allocator<__MONSTERSKILL> > >,void *> > >
_TEXT	ENDS
; Function compile flags: /Ogtp
; File C:\Program Files\Microsoft Visual Studio\2022\Professional\VC\Tools\MSVC\14.44.35207\include\vector
;	COMDAT ??1?$pair@KV?$vector@U__MONSTERSKILL@@V?$allocator@U__MONSTERSKILL@@@std@@@std@@@std@@QAE@XZ
_TEXT	SEGMENT
??1?$pair@KV?$vector@U__MONSTERSKILL@@V?$allocator@U__MONSTERSKILL@@@std@@@std@@@std@@QAE@XZ PROC ; std::pair<unsigned long,std::vector<__MONSTERSKILL,std::allocator<__MONSTERSKILL> > >::~pair<unsigned long,std::vector<__MONSTERSKILL,std::allocator<__MONSTERSKILL> > >, COMDAT
; _this$ = ecx
  00000	83 c1 04	 add	 ecx, 4

; 830  :         _Tidy();

  00003	e9 00 00 00 00	 jmp	 ?_Tidy@?$vector@U__MONSTERSKILL@@V?$allocator@U__MONSTERSKILL@@@std@@@std@@AAEXXZ ; std::vector<__MONSTERSKILL,std::allocator<__MONSTERSKILL> >::_Tidy
??1?$pair@KV?$vector@U__MONSTERSKILL@@V?$allocator@U__MONSTERSKILL@@@std@@@std@@@std@@QAE@XZ ENDP ; std::pair<unsigned long,std::vector<__MONSTERSKILL,std::allocator<__MONSTERSKILL> > >::~pair<unsigned long,std::vector<__MONSTERSKILL,std::allocator<__MONSTERSKILL> > >
_TEXT	ENDS
; Function compile flags: /Ogtp
;	COMDAT ??__FsMonsterSkill@?1??GetInstance@CMonsterSkill@@SAPAV1@XZ@YAXXZ
text$yd	SEGMENT
??__FsMonsterSkill@?1??GetInstance@CMonsterSkill@@SAPAV1@XZ@YAXXZ PROC ; `CMonsterSkill::GetInstance'::`2'::`dynamic atexit destructor for 'sMonsterSkill'', COMDAT
  00000	b9 00 00 00 00	 mov	 ecx, OFFSET ?sMonsterSkill@?1??GetInstance@CMonsterSkill@@SAPAV2@XZ@4V2@A
  00005	e9 00 00 00 00	 jmp	 ??1CMonsterSkill@@QAE@XZ ; CMonsterSkill::~CMonsterSkill
??__FsMonsterSkill@?1??GetInstance@CMonsterSkill@@SAPAV1@XZ@YAXXZ ENDP ; `CMonsterSkill::GetInstance'::`2'::`dynamic atexit destructor for 'sMonsterSkill''
text$yd	ENDS
; Function compile flags: /Ogtp
; File C:\Program Files\Microsoft Visual Studio\2022\Professional\VC\Tools\MSVC\14.44.35207\include\vector
;	COMDAT ?_Xlength@?$vector@U__MONSTERSKILL@@V?$allocator@U__MONSTERSKILL@@@std@@@std@@CAXXZ
_TEXT	SEGMENT
?_Xlength@?$vector@U__MONSTERSKILL@@V?$allocator@U__MONSTERSKILL@@@std@@@std@@CAXXZ PROC ; std::vector<__MONSTERSKILL,std::allocator<__MONSTERSKILL> >::_Xlength, COMDAT

; 2184 :         _Xlength_error("vector too long");

  00000	68 00 00 00 00	 push	 OFFSET ??_C@_0BA@FOIKENOD@vector?5too?5long@
  00005	e8 00 00 00 00	 call	 ?_Xlength_error@std@@YAXPBD@Z ; std::_Xlength_error
$LN3@Xlength:
  0000a	cc		 int	 3
?_Xlength@?$vector@U__MONSTERSKILL@@V?$allocator@U__MONSTERSKILL@@@std@@@std@@CAXXZ ENDP ; std::vector<__MONSTERSKILL,std::allocator<__MONSTERSKILL> >::_Xlength
_TEXT	ENDS
; Function compile flags: /Ogtp
; File C:\Program Files\Microsoft Visual Studio\2022\Professional\VC\Tools\MSVC\14.44.35207\include\vector
; File C:\Program Files\Microsoft Visual Studio\2022\Professional\VC\Tools\MSVC\14.44.35207\include\xmemory
; File C:\Program Files\Microsoft Visual Studio\2022\Professional\VC\Tools\MSVC\14.44.35207\include\vector
; File C:\Program Files\Microsoft Visual Studio\2022\Professional\VC\Tools\MSVC\14.44.35207\include\xmemory
; File C:\Program Files\Microsoft Visual Studio\2022\Professional\VC\Tools\MSVC\14.44.35207\include\vector
; File C:\Program Files\Microsoft Visual Studio\2022\Professional\VC\Tools\MSVC\14.44.35207\include\xmemory
; File C:\Program Files\Microsoft Visual Studio\2022\Professional\VC\Tools\MSVC\14.44.35207\include\vector
;	COMDAT ?_Tidy@?$vector@U__MONSTERSKILL@@V?$allocator@U__MONSTERSKILL@@@std@@@std@@AAEXXZ
_TEXT	SEGMENT
?_Tidy@?$vector@U__MONSTERSKILL@@V?$allocator@U__MONSTERSKILL@@@std@@@std@@AAEXXZ PROC ; std::vector<__MONSTERSKILL,std::allocator<__MONSTERSKILL> >::_Tidy, COMDAT
; _this$ = ecx

; 2081 :     _CONSTEXPR20 void _Tidy() noexcept { // free all storage

  00000	56		 push	 esi
  00001	8b f1		 mov	 esi, ecx

; 2082 :         auto& _Al         = _Getal();
; 2083 :         auto& _My_data    = _Mypair._Myval2;
; 2084 :         pointer& _Myfirst = _My_data._Myfirst;
; 2085 :         pointer& _Mylast  = _My_data._Mylast;
; 2086 :         pointer& _Myend   = _My_data._Myend;
; 2087 : 
; 2088 :         _My_data._Orphan_all();
; 2089 : 
; 2090 :         if (_Myfirst) { // destroy and deallocate old array

  00003	8b 06		 mov	 eax, DWORD PTR [esi]
  00005	85 c0		 test	 eax, eax
  00007	74 40		 je	 SHORT $LN2@Tidy

; 2091 :             _STD _Destroy_range(_Myfirst, _Mylast, _Al);
; 2092 :             _ASAN_VECTOR_REMOVE;
; 2093 :             _Al.deallocate(_Myfirst, static_cast<size_type>(_Myend - _Myfirst));

  00009	8b 4e 08	 mov	 ecx, DWORD PTR [esi+8]
  0000c	2b c8		 sub	 ecx, eax
; File C:\Program Files\Microsoft Visual Studio\2022\Professional\VC\Tools\MSVC\14.44.35207\include\xmemory

; 985  :         _STD _Deallocate<_New_alignof<_Ty>>(_Ptr, sizeof(_Ty) * _Count);

  0000e	83 e1 e0	 and	 ecx, -32		; ffffffe0H

; 284  :         if (_Bytes >= _Big_allocation_threshold) {

  00011	81 f9 00 10 00
	00		 cmp	 ecx, 4096		; 00001000H
  00017	72 12		 jb	 SHORT $LN15@Tidy

; 205  :     const uintptr_t _Ptr_container   = _Ptr_user[-1];

  00019	8b 50 fc	 mov	 edx, DWORD PTR [eax-4]
  0001c	83 c1 23	 add	 ecx, 35			; 00000023H

; 206  : 
; 207  :     // If the following asserts, it likely means that we are performing
; 208  :     // an aligned delete on memory coming from an unaligned allocation.
; 209  :     _STL_ASSERT(_Ptr_user[-2] == _Big_allocation_sentinel, "invalid argument");
; 210  : 
; 211  :     // Extra paranoia on aligned allocation/deallocation; ensure _Ptr_container is
; 212  :     // in range [_Min_back_shift, _Non_user_size]
; 213  : #ifdef _DEBUG
; 214  :     constexpr uintptr_t _Min_back_shift = 2 * sizeof(void*);
; 215  : #else // ^^^ defined(_DEBUG) / !defined(_DEBUG) vvv
; 216  :     constexpr uintptr_t _Min_back_shift = sizeof(void*);
; 217  : #endif // ^^^ !defined(_DEBUG) ^^^
; 218  :     const uintptr_t _Back_shift = reinterpret_cast<uintptr_t>(_Ptr) - _Ptr_container;

  0001f	2b c2		 sub	 eax, edx

; 219  :     _STL_VERIFY(_Back_shift >= _Min_back_shift && _Back_shift <= _Non_user_size, "invalid argument");

  00021	83 c0 fc	 add	 eax, -4			; fffffffcH
  00024	83 f8 1f	 cmp	 eax, 31			; 0000001fH
  00027	77 22		 ja	 SHORT $LN14@Tidy

; 220  :     _Ptr = reinterpret_cast<void*>(_Ptr_container);

  00029	8b c2		 mov	 eax, edx
$LN15@Tidy:

; 289  :         ::operator delete(_Ptr, _Bytes);

  0002b	51		 push	 ecx
  0002c	50		 push	 eax
  0002d	e8 00 00 00 00	 call	 ??3@YAXPAXI@Z		; operator delete
; File C:\Program Files\Microsoft Visual Studio\2022\Professional\VC\Tools\MSVC\14.44.35207\include\vector

; 2095 :             _Myfirst = nullptr;

  00032	c7 06 00 00 00
	00		 mov	 DWORD PTR [esi], 0
; File C:\Program Files\Microsoft Visual Studio\2022\Professional\VC\Tools\MSVC\14.44.35207\include\xmemory

; 289  :         ::operator delete(_Ptr, _Bytes);

  00038	83 c4 08	 add	 esp, 8
; File C:\Program Files\Microsoft Visual Studio\2022\Professional\VC\Tools\MSVC\14.44.35207\include\vector

; 2096 :             _Mylast  = nullptr;

  0003b	c7 46 04 00 00
	00 00		 mov	 DWORD PTR [esi+4], 0

; 2097 :             _Myend   = nullptr;

  00042	c7 46 08 00 00
	00 00		 mov	 DWORD PTR [esi+8], 0
$LN2@Tidy:

; 2099 :     }

  00049	5e		 pop	 esi
  0004a	c3		 ret	 0
$LN14@Tidy:
; File C:\Program Files\Microsoft Visual Studio\2022\Professional\VC\Tools\MSVC\14.44.35207\include\xmemory

; 219  :     _STL_VERIFY(_Back_shift >= _Min_back_shift && _Back_shift <= _Non_user_size, "invalid argument");

  0004b	6a 00		 push	 0
  0004d	6a 00		 push	 0
  0004f	6a 00		 push	 0
  00051	6a 00		 push	 0
  00053	6a 00		 push	 0
  00055	e8 00 00 00 00	 call	 __invoke_watson
$LN22@Tidy:
  0005a	cc		 int	 3
?_Tidy@?$vector@U__MONSTERSKILL@@V?$allocator@U__MONSTERSKILL@@@std@@@std@@AAEXXZ ENDP ; std::vector<__MONSTERSKILL,std::allocator<__MONSTERSKILL> >::_Tidy
_TEXT	ENDS
; Function compile flags: /Ogtp
; File C:\Program Files\Microsoft Visual Studio\2022\Professional\VC\Tools\MSVC\14.44.35207\include\vector
;	COMDAT ??1?$vector@U__MONSTERSKILL@@V?$allocator@U__MONSTERSKILL@@@std@@@std@@QAE@XZ
_TEXT	SEGMENT
??1?$vector@U__MONSTERSKILL@@V?$allocator@U__MONSTERSKILL@@@std@@@std@@QAE@XZ PROC ; std::vector<__MONSTERSKILL,std::allocator<__MONSTERSKILL> >::~vector<__MONSTERSKILL,std::allocator<__MONSTERSKILL> >, COMDAT
; _this$ = ecx

; 830  :         _Tidy();

  00000	e9 00 00 00 00	 jmp	 ?_Tidy@?$vector@U__MONSTERSKILL@@V?$allocator@U__MONSTERSKILL@@@std@@@std@@AAEXXZ ; std::vector<__MONSTERSKILL,std::allocator<__MONSTERSKILL> >::_Tidy
??1?$vector@U__MONSTERSKILL@@V?$allocator@U__MONSTERSKILL@@@std@@@std@@QAE@XZ ENDP ; std::vector<__MONSTERSKILL,std::allocator<__MONSTERSKILL> >::~vector<__MONSTERSKILL,std::allocator<__MONSTERSKILL> >
_TEXT	ENDS
; Function compile flags: /Ogtp
; File C:\Program Files\Microsoft Visual Studio\2022\Professional\VC\Tools\MSVC\14.44.35207\include\xmemory
;	COMDAT ??$_Allocate_manually_vector_aligned@U_Default_allocate_traits@std@@@std@@YAPAXI@Z
_TEXT	SEGMENT
__Bytes$ = 8						; size = 4
??$_Allocate_manually_vector_aligned@U_Default_allocate_traits@std@@@std@@YAPAXI@Z PROC ; std::_Allocate_manually_vector_aligned<std::_Default_allocate_traits>, COMDAT

; 182  : __declspec(allocator) void* _Allocate_manually_vector_aligned(const size_t _Bytes) {

  00000	55		 push	 ebp
  00001	8b ec		 mov	 ebp, esp

; 183  :     // allocate _Bytes manually aligned to at least _Big_allocation_alignment
; 184  :     const size_t _Block_size = _Non_user_size + _Bytes;

  00003	8b 45 08	 mov	 eax, DWORD PTR __Bytes$[ebp]
  00006	8d 48 23	 lea	 ecx, DWORD PTR [eax+35]

; 185  :     if (_Block_size <= _Bytes) {

  00009	3b c8		 cmp	 ecx, eax
  0000b	0f 86 00 00 00
	00		 jbe	 ?_Throw_bad_array_new_length@std@@YAXXZ ; std::_Throw_bad_array_new_length

; 136  :         return ::operator new(_Bytes);

  00011	51		 push	 ecx
  00012	e8 00 00 00 00	 call	 ??2@YAPAXI@Z		; operator new

; 186  :         _Throw_bad_array_new_length(); // add overflow
; 187  :     }
; 188  : 
; 189  :     const uintptr_t _Ptr_container = reinterpret_cast<uintptr_t>(_Traits::_Allocate(_Block_size));

  00017	8b c8		 mov	 ecx, eax

; 136  :         return ::operator new(_Bytes);

  00019	83 c4 04	 add	 esp, 4

; 190  :     _STL_VERIFY(_Ptr_container != 0, "invalid argument"); // validate even in release since we're doing p[-1]

  0001c	85 c9		 test	 ecx, ecx
  0001e	74 0b		 je	 SHORT $LN9@Allocate_m

; 191  :     void* const _Ptr = reinterpret_cast<void*>((_Ptr_container + _Non_user_size) & ~(_Big_allocation_alignment - 1));

  00020	8d 41 23	 lea	 eax, DWORD PTR [ecx+35]
  00023	83 e0 e0	 and	 eax, -32		; ffffffe0H

; 192  :     static_cast<uintptr_t*>(_Ptr)[-1] = _Ptr_container;

  00026	89 48 fc	 mov	 DWORD PTR [eax-4], ecx

; 193  : 
; 194  : #ifdef _DEBUG
; 195  :     static_cast<uintptr_t*>(_Ptr)[-2] = _Big_allocation_sentinel;
; 196  : #endif // defined(_DEBUG)
; 197  :     return _Ptr;
; 198  : }

  00029	5d		 pop	 ebp
  0002a	c3		 ret	 0
$LN9@Allocate_m:

; 190  :     _STL_VERIFY(_Ptr_container != 0, "invalid argument"); // validate even in release since we're doing p[-1]

  0002b	6a 00		 push	 0
  0002d	6a 00		 push	 0
  0002f	6a 00		 push	 0
  00031	6a 00		 push	 0
  00033	6a 00		 push	 0
  00035	e8 00 00 00 00	 call	 __invoke_watson
$LN7@Allocate_m:
  0003a	cc		 int	 3
??$_Allocate_manually_vector_aligned@U_Default_allocate_traits@std@@@std@@YAPAXI@Z ENDP ; std::_Allocate_manually_vector_aligned<std::_Default_allocate_traits>
_TEXT	ENDS
; Function compile flags: /Ogtp
; File C:\Program Files\Microsoft Visual Studio\2022\Professional\VC\Tools\MSVC\14.44.35207\include\xtree
;	COMDAT ?_Insert_node@?$_Tree_val@U?$_Tree_simple_types@U?$pair@$$CBKV?$vector@U__MONSTERSKILL@@V?$allocator@U__MONSTERSKILL@@@std@@@std@@@std@@@std@@@std@@QAEPAU?$_Tree_node@U?$pair@$$CBKV?$vector@U__MONSTERSKILL@@V?$allocator@U__MONSTERSKILL@@@std@@@std@@@std@@PAX@2@U?$_Tree_id@PAU?$_Tree_node@U?$pair@$$CBKV?$vector@U__MONSTERSKILL@@V?$allocator@U__MONSTERSKILL@@@std@@@std@@@std@@PAX@std@@@2@QAU32@@Z
_TEXT	SEGMENT
__Head$1$ = -4						; size = 4
__Loc$ = 8						; size = 8
__Newnode$ = 16						; size = 4
?_Insert_node@?$_Tree_val@U?$_Tree_simple_types@U?$pair@$$CBKV?$vector@U__MONSTERSKILL@@V?$allocator@U__MONSTERSKILL@@@std@@@std@@@std@@@std@@@std@@QAEPAU?$_Tree_node@U?$pair@$$CBKV?$vector@U__MONSTERSKILL@@V?$allocator@U__MONSTERSKILL@@@std@@@std@@@std@@PAX@2@U?$_Tree_id@PAU?$_Tree_node@U?$pair@$$CBKV?$vector@U__MONSTERSKILL@@V?$allocator@U__MONSTERSKILL@@@std@@@std@@@std@@PAX@std@@@2@QAU32@@Z PROC ; std::_Tree_val<std::_Tree_simple_types<std::pair<unsigned long const ,std::vector<__MONSTERSKILL,std::allocator<__MONSTERSKILL> > > > >::_Insert_node, COMDAT
; _this$ = ecx

; 669  :     _Nodeptr _Insert_node(const _Tree_id<_Nodeptr> _Loc, const _Nodeptr _Newnode) noexcept {

  00000	55		 push	 ebp
  00001	8b ec		 mov	 ebp, esp
  00003	51		 push	 ecx

; 670  :         ++_Mysize;
; 671  :         const auto _Head  = _Myhead;
; 672  :         _Newnode->_Parent = _Loc._Parent;

  00004	8b 55 08	 mov	 edx, DWORD PTR __Loc$[ebp]
  00007	53		 push	 ebx
  00008	8b d9		 mov	 ebx, ecx
  0000a	57		 push	 edi
  0000b	8b 7d 10	 mov	 edi, DWORD PTR __Newnode$[ebp]
  0000e	8b 03		 mov	 eax, DWORD PTR [ebx]
  00010	ff 43 04	 inc	 DWORD PTR [ebx+4]
  00013	89 45 fc	 mov	 DWORD PTR __Head$1$[ebp], eax
  00016	89 57 04	 mov	 DWORD PTR [edi+4], edx

; 673  :         if (_Loc._Parent == _Head) { // first node in tree, just set head values

  00019	3b d0		 cmp	 edx, eax
  0001b	75 16		 jne	 SHORT $LN5@Insert_nod

; 674  :             _Head->_Left     = _Newnode;

  0001d	89 38		 mov	 DWORD PTR [eax], edi

; 675  :             _Head->_Parent   = _Newnode;

  0001f	89 78 04	 mov	 DWORD PTR [eax+4], edi

; 676  :             _Head->_Right    = _Newnode;

  00022	89 78 08	 mov	 DWORD PTR [eax+8], edi

; 735  :         return _Newnode;
; 736  :     }

  00025	8b c7		 mov	 eax, edi
  00027	c6 47 0c 01	 mov	 BYTE PTR [edi+12], 1
  0002b	5f		 pop	 edi
  0002c	5b		 pop	 ebx
  0002d	8b e5		 mov	 esp, ebp
  0002f	5d		 pop	 ebp
  00030	c2 0c 00	 ret	 12			; 0000000cH
$LN5@Insert_nod:

; 677  :             _Newnode->_Color = _Black; // the root is black
; 678  :             return _Newnode;
; 679  :         }
; 680  : 
; 681  :         _STL_INTERNAL_CHECK(_Loc._Child != _Tree_child::_Unused);
; 682  :         if (_Loc._Child == _Tree_child::_Right) { // add to right of _Loc._Parent

  00033	83 7d 0c 00	 cmp	 DWORD PTR __Loc$[ebp+4], 0
  00037	75 0d		 jne	 SHORT $LN6@Insert_nod

; 683  :             _STL_INTERNAL_CHECK(_Loc._Parent->_Right->_Isnil);
; 684  :             _Loc._Parent->_Right = _Newnode;

  00039	89 7a 08	 mov	 DWORD PTR [edx+8], edi

; 685  :             if (_Loc._Parent == _Head->_Right) { // remember rightmost node

  0003c	3b 50 08	 cmp	 edx, DWORD PTR [eax+8]
  0003f	75 0d		 jne	 SHORT $LN9@Insert_nod

; 686  :                 _Head->_Right = _Newnode;

  00041	89 78 08	 mov	 DWORD PTR [eax+8], edi

; 687  :             }
; 688  :         } else { // add to left of _Loc._Parent

  00044	eb 08		 jmp	 SHORT $LN9@Insert_nod
$LN6@Insert_nod:

; 689  :             _STL_INTERNAL_CHECK(_Loc._Parent->_Left->_Isnil);
; 690  :             _Loc._Parent->_Left = _Newnode;

  00046	89 3a		 mov	 DWORD PTR [edx], edi

; 691  :             if (_Loc._Parent == _Head->_Left) { // remember leftmost node

  00048	3b 10		 cmp	 edx, DWORD PTR [eax]
  0004a	75 02		 jne	 SHORT $LN9@Insert_nod

; 692  :                 _Head->_Left = _Newnode;

  0004c	89 38		 mov	 DWORD PTR [eax], edi
$LN9@Insert_nod:

; 693  :             }
; 694  :         }
; 695  : 
; 696  :         for (_Nodeptr _Pnode = _Newnode; _Pnode->_Parent->_Color == _Red;) {

  0004e	8b 4f 04	 mov	 ecx, DWORD PTR [edi+4]
  00051	8b c7		 mov	 eax, edi
  00053	80 79 0c 00	 cmp	 BYTE PTR [ecx+12], 0
  00057	0f 85 7d 01 00
	00		 jne	 $LN3@Insert_nod
  0005d	56		 push	 esi
  0005e	66 90		 npad	 2
$LL4@Insert_nod:

; 697  :             if (_Pnode->_Parent == _Pnode->_Parent->_Parent->_Left) { // fixup red-red in left subtree

  00060	8b 50 04	 mov	 edx, DWORD PTR [eax+4]
  00063	8b 72 04	 mov	 esi, DWORD PTR [edx+4]
  00066	8b 0e		 mov	 ecx, DWORD PTR [esi]
  00068	3b d1		 cmp	 edx, ecx
  0006a	0f 85 aa 00 00
	00		 jne	 $LN10@Insert_nod

; 698  :                 const auto _Parent_sibling = _Pnode->_Parent->_Parent->_Right;

  00070	8b 4e 08	 mov	 ecx, DWORD PTR [esi+8]

; 699  :                 if (_Parent_sibling->_Color == _Red) { // parent's sibling has two red children, blacken both

  00073	80 79 0c 00	 cmp	 BYTE PTR [ecx+12], 0
  00077	0f 84 a3 00 00
	00		 je	 $LN82@Insert_nod

; 700  :                     _Pnode->_Parent->_Color          = _Black;
; 701  :                     _Parent_sibling->_Color          = _Black;
; 702  :                     _Pnode->_Parent->_Parent->_Color = _Red;
; 703  :                     _Pnode                           = _Pnode->_Parent->_Parent;
; 704  :                 } else { // parent's sibling has red and black children
; 705  :                     if (_Pnode == _Pnode->_Parent->_Right) { // rotate right child to left

  0007d	8b 72 08	 mov	 esi, DWORD PTR [edx+8]
  00080	3b c6		 cmp	 eax, esi
  00082	75 37		 jne	 SHORT $LN57@Insert_nod

; 485  :         _Wherenode->_Right = _Pnode->_Left;

  00084	8b 0e		 mov	 ecx, DWORD PTR [esi]

; 706  :                         _Pnode = _Pnode->_Parent;

  00086	8b c2		 mov	 eax, edx

; 485  :         _Wherenode->_Right = _Pnode->_Left;

  00088	89 4a 08	 mov	 DWORD PTR [edx+8], ecx

; 486  : 
; 487  :         if (!_Pnode->_Left->_Isnil) {

  0008b	8b 0e		 mov	 ecx, DWORD PTR [esi]
  0008d	80 79 0d 00	 cmp	 BYTE PTR [ecx+13], 0
  00091	75 03		 jne	 SHORT $LN21@Insert_nod

; 488  :             _Pnode->_Left->_Parent = _Wherenode;

  00093	89 41 04	 mov	 DWORD PTR [ecx+4], eax
$LN21@Insert_nod:

; 489  :         }
; 490  : 
; 491  :         _Pnode->_Parent = _Wherenode->_Parent;

  00096	8b 4a 04	 mov	 ecx, DWORD PTR [edx+4]
  00099	89 4e 04	 mov	 DWORD PTR [esi+4], ecx

; 492  : 
; 493  :         if (_Wherenode == _Myhead->_Parent) {

  0009c	8b 0b		 mov	 ecx, DWORD PTR [ebx]
  0009e	3b 41 04	 cmp	 eax, DWORD PTR [ecx+4]
  000a1	75 05		 jne	 SHORT $LN22@Insert_nod

; 494  :             _Myhead->_Parent = _Pnode;

  000a3	89 71 04	 mov	 DWORD PTR [ecx+4], esi
  000a6	eb 0e		 jmp	 SHORT $LN25@Insert_nod
$LN22@Insert_nod:

; 495  :         } else if (_Wherenode == _Wherenode->_Parent->_Left) {

  000a8	8b 4a 04	 mov	 ecx, DWORD PTR [edx+4]
  000ab	3b 01		 cmp	 eax, DWORD PTR [ecx]
  000ad	75 04		 jne	 SHORT $LN24@Insert_nod

; 496  :             _Wherenode->_Parent->_Left = _Pnode;

  000af	89 31		 mov	 DWORD PTR [ecx], esi

; 497  :         } else {

  000b1	eb 03		 jmp	 SHORT $LN25@Insert_nod
$LN24@Insert_nod:

; 498  :             _Wherenode->_Parent->_Right = _Pnode;

  000b3	89 71 08	 mov	 DWORD PTR [ecx+8], esi
$LN25@Insert_nod:

; 499  :         }
; 500  : 
; 501  :         _Pnode->_Left       = _Wherenode;

  000b6	89 06		 mov	 DWORD PTR [esi], eax

; 502  :         _Wherenode->_Parent = _Pnode;

  000b8	89 70 04	 mov	 DWORD PTR [eax+4], esi
$LN57@Insert_nod:

; 707  :                         _Lrotate(_Pnode);
; 708  :                     }
; 709  : 
; 710  :                     _Pnode->_Parent->_Color          = _Black; // propagate red up

  000bb	8b 48 04	 mov	 ecx, DWORD PTR [eax+4]
  000be	c6 41 0c 01	 mov	 BYTE PTR [ecx+12], 1

; 711  :                     _Pnode->_Parent->_Parent->_Color = _Red;

  000c2	8b 48 04	 mov	 ecx, DWORD PTR [eax+4]
  000c5	8b 49 04	 mov	 ecx, DWORD PTR [ecx+4]
  000c8	c6 41 0c 00	 mov	 BYTE PTR [ecx+12], 0

; 712  :                     _Rrotate(_Pnode->_Parent->_Parent);

  000cc	8b 48 04	 mov	 ecx, DWORD PTR [eax+4]
  000cf	8b 51 04	 mov	 edx, DWORD PTR [ecx+4]

; 506  :         _Nodeptr _Pnode   = _Wherenode->_Left;

  000d2	8b 32		 mov	 esi, DWORD PTR [edx]

; 507  :         _Wherenode->_Left = _Pnode->_Right;

  000d4	8b 4e 08	 mov	 ecx, DWORD PTR [esi+8]
  000d7	89 0a		 mov	 DWORD PTR [edx], ecx

; 508  : 
; 509  :         if (!_Pnode->_Right->_Isnil) {

  000d9	8b 4e 08	 mov	 ecx, DWORD PTR [esi+8]
  000dc	80 79 0d 00	 cmp	 BYTE PTR [ecx+13], 0
  000e0	75 03		 jne	 SHORT $LN29@Insert_nod

; 510  :             _Pnode->_Right->_Parent = _Wherenode;

  000e2	89 51 04	 mov	 DWORD PTR [ecx+4], edx
$LN29@Insert_nod:

; 511  :         }
; 512  : 
; 513  :         _Pnode->_Parent = _Wherenode->_Parent;

  000e5	8b 4a 04	 mov	 ecx, DWORD PTR [edx+4]
  000e8	89 4e 04	 mov	 DWORD PTR [esi+4], ecx

; 514  : 
; 515  :         if (_Wherenode == _Myhead->_Parent) {

  000eb	8b 0b		 mov	 ecx, DWORD PTR [ebx]
  000ed	3b 51 04	 cmp	 edx, DWORD PTR [ecx+4]
  000f0	75 0b		 jne	 SHORT $LN30@Insert_nod

; 516  :             _Myhead->_Parent = _Pnode;

  000f2	89 71 04	 mov	 DWORD PTR [ecx+4], esi

; 521  :         }
; 522  : 
; 523  :         _Pnode->_Right      = _Wherenode;

  000f5	89 56 08	 mov	 DWORD PTR [esi+8], edx

; 713  :                 }
; 714  :             } else { // fixup red-red in right subtree

  000f8	e9 cc 00 00 00	 jmp	 $LN81@Insert_nod
$LN30@Insert_nod:

; 517  :         } else if (_Wherenode == _Wherenode->_Parent->_Right) {

  000fd	8b 4a 04	 mov	 ecx, DWORD PTR [edx+4]
  00100	3b 51 08	 cmp	 edx, DWORD PTR [ecx+8]
  00103	75 0b		 jne	 SHORT $LN32@Insert_nod

; 518  :             _Wherenode->_Parent->_Right = _Pnode;

  00105	89 71 08	 mov	 DWORD PTR [ecx+8], esi

; 521  :         }
; 522  : 
; 523  :         _Pnode->_Right      = _Wherenode;

  00108	89 56 08	 mov	 DWORD PTR [esi+8], edx

; 713  :                 }
; 714  :             } else { // fixup red-red in right subtree

  0010b	e9 b9 00 00 00	 jmp	 $LN81@Insert_nod
$LN32@Insert_nod:

; 520  :             _Wherenode->_Parent->_Left = _Pnode;

  00110	89 31		 mov	 DWORD PTR [ecx], esi

; 521  :         }
; 522  : 
; 523  :         _Pnode->_Right      = _Wherenode;

  00112	89 56 08	 mov	 DWORD PTR [esi+8], edx

; 713  :                 }
; 714  :             } else { // fixup red-red in right subtree

  00115	e9 af 00 00 00	 jmp	 $LN81@Insert_nod
$LN10@Insert_nod:

; 715  :                 const auto _Parent_sibling = _Pnode->_Parent->_Parent->_Left;
; 716  :                 if (_Parent_sibling->_Color == _Red) { // parent's sibling has two red children, blacken both

  0011a	80 79 0c 00	 cmp	 BYTE PTR [ecx+12], 0
  0011e	75 1d		 jne	 SHORT $LN15@Insert_nod
$LN82@Insert_nod:

; 693  :             }
; 694  :         }
; 695  : 
; 696  :         for (_Nodeptr _Pnode = _Newnode; _Pnode->_Parent->_Color == _Red;) {

  00120	c6 42 0c 01	 mov	 BYTE PTR [edx+12], 1
  00124	c6 41 0c 01	 mov	 BYTE PTR [ecx+12], 1
  00128	8b 48 04	 mov	 ecx, DWORD PTR [eax+4]
  0012b	8b 49 04	 mov	 ecx, DWORD PTR [ecx+4]
  0012e	c6 41 0c 00	 mov	 BYTE PTR [ecx+12], 0
  00132	8b 48 04	 mov	 ecx, DWORD PTR [eax+4]
  00135	8b 41 04	 mov	 eax, DWORD PTR [ecx+4]
  00138	e9 8f 00 00 00	 jmp	 $LN2@Insert_nod
$LN15@Insert_nod:

; 717  :                     _Pnode->_Parent->_Color          = _Black;
; 718  :                     _Parent_sibling->_Color          = _Black;
; 719  :                     _Pnode->_Parent->_Parent->_Color = _Red;
; 720  :                     _Pnode                           = _Pnode->_Parent->_Parent;
; 721  :                 } else { // parent's sibling has red and black children
; 722  :                     if (_Pnode == _Pnode->_Parent->_Left) { // rotate left child to right

  0013d	8b 32		 mov	 esi, DWORD PTR [edx]
  0013f	3b c6		 cmp	 eax, esi
  00141	75 3a		 jne	 SHORT $LN42@Insert_nod

; 507  :         _Wherenode->_Left = _Pnode->_Right;

  00143	8b 4e 08	 mov	 ecx, DWORD PTR [esi+8]

; 723  :                         _Pnode = _Pnode->_Parent;

  00146	8b c2		 mov	 eax, edx

; 507  :         _Wherenode->_Left = _Pnode->_Right;

  00148	89 08		 mov	 DWORD PTR [eax], ecx

; 508  : 
; 509  :         if (!_Pnode->_Right->_Isnil) {

  0014a	8b 4e 08	 mov	 ecx, DWORD PTR [esi+8]
  0014d	80 79 0d 00	 cmp	 BYTE PTR [ecx+13], 0
  00151	75 03		 jne	 SHORT $LN37@Insert_nod

; 510  :             _Pnode->_Right->_Parent = _Wherenode;

  00153	89 41 04	 mov	 DWORD PTR [ecx+4], eax
$LN37@Insert_nod:

; 511  :         }
; 512  : 
; 513  :         _Pnode->_Parent = _Wherenode->_Parent;

  00156	8b 4a 04	 mov	 ecx, DWORD PTR [edx+4]
  00159	89 4e 04	 mov	 DWORD PTR [esi+4], ecx

; 514  : 
; 515  :         if (_Wherenode == _Myhead->_Parent) {

  0015c	8b 0b		 mov	 ecx, DWORD PTR [ebx]
  0015e	3b 41 04	 cmp	 eax, DWORD PTR [ecx+4]
  00161	75 05		 jne	 SHORT $LN38@Insert_nod

; 516  :             _Myhead->_Parent = _Pnode;

  00163	89 71 04	 mov	 DWORD PTR [ecx+4], esi
  00166	eb 0f		 jmp	 SHORT $LN41@Insert_nod
$LN38@Insert_nod:

; 517  :         } else if (_Wherenode == _Wherenode->_Parent->_Right) {

  00168	8b 4a 04	 mov	 ecx, DWORD PTR [edx+4]
  0016b	3b 41 08	 cmp	 eax, DWORD PTR [ecx+8]
  0016e	75 05		 jne	 SHORT $LN40@Insert_nod

; 518  :             _Wherenode->_Parent->_Right = _Pnode;

  00170	89 71 08	 mov	 DWORD PTR [ecx+8], esi

; 519  :         } else {

  00173	eb 02		 jmp	 SHORT $LN41@Insert_nod
$LN40@Insert_nod:

; 520  :             _Wherenode->_Parent->_Left = _Pnode;

  00175	89 31		 mov	 DWORD PTR [ecx], esi
$LN41@Insert_nod:

; 521  :         }
; 522  : 
; 523  :         _Pnode->_Right      = _Wherenode;

  00177	89 46 08	 mov	 DWORD PTR [esi+8], eax

; 524  :         _Wherenode->_Parent = _Pnode;

  0017a	89 70 04	 mov	 DWORD PTR [eax+4], esi
$LN42@Insert_nod:

; 724  :                         _Rrotate(_Pnode);
; 725  :                     }
; 726  : 
; 727  :                     _Pnode->_Parent->_Color          = _Black; // propagate red up

  0017d	8b 48 04	 mov	 ecx, DWORD PTR [eax+4]
  00180	c6 41 0c 01	 mov	 BYTE PTR [ecx+12], 1

; 728  :                     _Pnode->_Parent->_Parent->_Color = _Red;

  00184	8b 48 04	 mov	 ecx, DWORD PTR [eax+4]
  00187	8b 49 04	 mov	 ecx, DWORD PTR [ecx+4]
  0018a	c6 41 0c 00	 mov	 BYTE PTR [ecx+12], 0

; 729  :                     _Lrotate(_Pnode->_Parent->_Parent);

  0018e	8b 48 04	 mov	 ecx, DWORD PTR [eax+4]
  00191	8b 51 04	 mov	 edx, DWORD PTR [ecx+4]

; 484  :         _Nodeptr _Pnode    = _Wherenode->_Right;

  00194	8b 72 08	 mov	 esi, DWORD PTR [edx+8]

; 485  :         _Wherenode->_Right = _Pnode->_Left;

  00197	8b 0e		 mov	 ecx, DWORD PTR [esi]
  00199	89 4a 08	 mov	 DWORD PTR [edx+8], ecx

; 486  : 
; 487  :         if (!_Pnode->_Left->_Isnil) {

  0019c	8b 0e		 mov	 ecx, DWORD PTR [esi]
  0019e	80 79 0d 00	 cmp	 BYTE PTR [ecx+13], 0
  001a2	75 03		 jne	 SHORT $LN45@Insert_nod

; 488  :             _Pnode->_Left->_Parent = _Wherenode;

  001a4	89 51 04	 mov	 DWORD PTR [ecx+4], edx
$LN45@Insert_nod:

; 489  :         }
; 490  : 
; 491  :         _Pnode->_Parent = _Wherenode->_Parent;

  001a7	8b 4a 04	 mov	 ecx, DWORD PTR [edx+4]
  001aa	89 4e 04	 mov	 DWORD PTR [esi+4], ecx

; 492  : 
; 493  :         if (_Wherenode == _Myhead->_Parent) {

  001ad	8b 0b		 mov	 ecx, DWORD PTR [ebx]
  001af	3b 51 04	 cmp	 edx, DWORD PTR [ecx+4]
  001b2	75 05		 jne	 SHORT $LN46@Insert_nod

; 494  :             _Myhead->_Parent = _Pnode;

  001b4	89 71 04	 mov	 DWORD PTR [ecx+4], esi
  001b7	eb 0e		 jmp	 SHORT $LN49@Insert_nod
$LN46@Insert_nod:

; 495  :         } else if (_Wherenode == _Wherenode->_Parent->_Left) {

  001b9	8b 4a 04	 mov	 ecx, DWORD PTR [edx+4]
  001bc	3b 11		 cmp	 edx, DWORD PTR [ecx]
  001be	75 04		 jne	 SHORT $LN48@Insert_nod

; 496  :             _Wherenode->_Parent->_Left = _Pnode;

  001c0	89 31		 mov	 DWORD PTR [ecx], esi

; 497  :         } else {

  001c2	eb 03		 jmp	 SHORT $LN49@Insert_nod
$LN48@Insert_nod:

; 498  :             _Wherenode->_Parent->_Right = _Pnode;

  001c4	89 71 08	 mov	 DWORD PTR [ecx+8], esi
$LN49@Insert_nod:

; 499  :         }
; 500  : 
; 501  :         _Pnode->_Left       = _Wherenode;

  001c7	89 16		 mov	 DWORD PTR [esi], edx
$LN81@Insert_nod:

; 693  :             }
; 694  :         }
; 695  : 
; 696  :         for (_Nodeptr _Pnode = _Newnode; _Pnode->_Parent->_Color == _Red;) {

  001c9	89 72 04	 mov	 DWORD PTR [edx+4], esi
$LN2@Insert_nod:
  001cc	8b 48 04	 mov	 ecx, DWORD PTR [eax+4]
  001cf	80 79 0c 00	 cmp	 BYTE PTR [ecx+12], 0
  001d3	0f 84 87 fe ff
	ff		 je	 $LL4@Insert_nod
  001d9	5e		 pop	 esi
$LN3@Insert_nod:

; 730  :                 }
; 731  :             }
; 732  :         }
; 733  : 
; 734  :         _Head->_Parent->_Color = _Black; // root is always black

  001da	8b 45 fc	 mov	 eax, DWORD PTR __Head$1$[ebp]
  001dd	8b 40 04	 mov	 eax, DWORD PTR [eax+4]
  001e0	c6 40 0c 01	 mov	 BYTE PTR [eax+12], 1

; 735  :         return _Newnode;
; 736  :     }

  001e4	8b c7		 mov	 eax, edi
  001e6	5f		 pop	 edi
  001e7	5b		 pop	 ebx
  001e8	8b e5		 mov	 esp, ebp
  001ea	5d		 pop	 ebp
  001eb	c2 0c 00	 ret	 12			; 0000000cH
?_Insert_node@?$_Tree_val@U?$_Tree_simple_types@U?$pair@$$CBKV?$vector@U__MONSTERSKILL@@V?$allocator@U__MONSTERSKILL@@@std@@@std@@@std@@@std@@@std@@QAEPAU?$_Tree_node@U?$pair@$$CBKV?$vector@U__MONSTERSKILL@@V?$allocator@U__MONSTERSKILL@@@std@@@std@@@std@@PAX@2@U?$_Tree_id@PAU?$_Tree_node@U?$pair@$$CBKV?$vector@U__MONSTERSKILL@@V?$allocator@U__MONSTERSKILL@@@std@@@std@@@std@@PAX@std@@@2@QAU32@@Z ENDP ; std::_Tree_val<std::_Tree_simple_types<std::pair<unsigned long const ,std::vector<__MONSTERSKILL,std::allocator<__MONSTERSKILL> > > > >::_Insert_node
_TEXT	ENDS
; Function compile flags: /Ogtp
; File C:\IAGOS\server\v18\Source\Source\_aiinterface\aimonster.cpp
; File C:\IAGOS\server\v18\Source\Source\_Common\Obj.h
; File C:\IAGOS\server\v18\Source\Source\_Common\Mover.h
; File C:\IAGOS\server\v18\Source\Source\_aiinterface\aimonster.cpp
; File C:\IAGOS\server\v18\Source\Source\_Common\Mover.h
; File C:\IAGOS\server\v18\Source\Source\_Common\Project.h
; File C:\IAGOS\server\v18\Source\Source\_aiinterface\aimonster.cpp
; File C:\IAGOS\server\v18\Source\Source\_Common\Obj.h
; File C:\IAGOS\server\v18\Source\Source\_aiinterface\aimonster.cpp
; File C:\IAGOS\server\v18\Source\Source\_Common\Obj.h
; File C:\IAGOS\server\v18\Source\Source\_aiinterface\aimonster.cpp
; File C:\IAGOS\server\v18\Source\Source\_Common\Obj.h
; File C:\IAGOS\server\v18\Source\Source\_aiinterface\aimonster.cpp
; File C:\IAGOS\server\v18\Source\Source\_Common\Obj.h
; File C:\IAGOS\server\v18\Source\Source\_aiinterface\aimonster.cpp
;	COMDAT ?MonsterTransform@CMonsterSkill@@QAEHPAVCMover@@H@Z
_TEXT	SEGMENT
$T1 = -16						; size = 12
__$ArrayPad$ = -4					; size = 4
_pMover$ = 8						; size = 4
_nMoverHP$ = 12						; size = 4
?MonsterTransform@CMonsterSkill@@QAEHPAVCMover@@H@Z PROC ; CMonsterSkill::MonsterTransform, COMDAT
; _this$ = ecx

; 2548 : {

  00000	55		 push	 ebp
  00001	8b ec		 mov	 ebp, esp
  00003	83 ec 10	 sub	 esp, 16			; 00000010H
  00006	a1 00 00 00 00	 mov	 eax, DWORD PTR ___security_cookie
  0000b	33 c5		 xor	 eax, ebp
  0000d	89 45 fc	 mov	 DWORD PTR __$ArrayPad$[ebp], eax
  00010	53		 push	 ebx
  00011	56		 push	 esi
  00012	57		 push	 edi
  00013	8b 7d 08	 mov	 edi, DWORD PTR _pMover$[ebp]
; File C:\IAGOS\server\v18\Source\Source\_Common\Obj.h

; 327  : 	return pObj && ( pObj->IsDelete() == FALSE ); 

  00016	85 ff		 test	 edi, edi
  00018	0f 84 84 01 00
	00		 je	 $LN3@MonsterTra

; 180  : 	BOOL			IsDelete()	{ return (m_dwFlags & OBJ_FLAG_DELETE);  }

  0001e	f6 47 04 01	 test	 BYTE PTR [edi+4], 1

; 327  : 	return pObj && ( pObj->IsDelete() == FALSE ); 

  00022	0f 85 7a 01 00
	00		 jne	 $LN3@MonsterTra
; File C:\IAGOS\server\v18\Source\Source\_Common\Mover.h

; 1015 : 	BOOL			IsNPC()				{ return !m_bPlayer; }

  00028	83 bf 30 02 00
	00 00		 cmp	 DWORD PTR [edi+560], 0
; File C:\IAGOS\server\v18\Source\Source\_aiinterface\aimonster.cpp

; 2549 : 	if( !IsValidObj( pMover ) || !pMover->IsNPC() || pMover->GetProp()->m_MonsterTransform.dwMonsterId == NULL_ID )

  0002f	0f 85 6d 01 00
	00		 jne	 $LN3@MonsterTra
; File C:\IAGOS\server\v18\Source\Source\_Common\Mover.h

; 1020 : 	MoverProp*		GetProp() { return prj.GetMoverProp( m_dwIndex ); }	// АДУМРЧ ЧСЗЮЦлЦМ ОђБт 	

  00035	8b 87 74 01 00
	00		 mov	 eax, DWORD PTR [edi+372]
; File C:\IAGOS\server\v18\Source\Source\_Common\Project.h

; 1406 : 	VERIFY_RANGE( nIndex, 0, m_nMoverPropSize, "GetMoverProp range_error", NULL );

  0003b	8b 0d b4 01 00
	00		 mov	 ecx, DWORD PTR ?prj@@3VCProject@@A+436
  00041	85 c0		 test	 eax, eax
  00043	78 12		 js	 SHORT $LN25@MonsterTra
  00045	3b c1		 cmp	 eax, ecx
  00047	7d 0e		 jge	 SHORT $LN25@MonsterTra

; 1407 : 	return m_pPropMover + nIndex;

  00049	69 c0 90 06 00
	00		 imul	 eax, eax, 1680
  0004f	03 05 b8 01 00
	00		 add	 eax, DWORD PTR ?prj@@3VCProject@@A+440
  00055	eb 18		 jmp	 SHORT $LN20@MonsterTra
$LN25@MonsterTra:

; 579  : 	LPCTSTR szErr = Error( _T( "%s min:%d, max:%d, index:%d" ), szMsg, nMin, nMax, nIndex ); 

  00057	50		 push	 eax
  00058	51		 push	 ecx
  00059	6a 00		 push	 0
  0005b	68 00 00 00 00	 push	 OFFSET ??_C@_0BJ@GKPOBPPI@GetMoverProp?5range_error@
  00060	68 00 00 00 00	 push	 OFFSET ??_C@_0BM@HMFGHCP@?$CFs?5min?3?$CFd?0?5max?3?$CFd?0?5index?3?$CFd@
  00065	e8 00 00 00 00	 call	 ?Error@@YAPBDPBDZZ	; Error
  0006a	83 c4 14	 add	 esp, 20			; 00000014H

; 1406 : 	VERIFY_RANGE( nIndex, 0, m_nMoverPropSize, "GetMoverProp range_error", NULL );

  0006d	33 c0		 xor	 eax, eax
$LN20@MonsterTra:
; File C:\IAGOS\server\v18\Source\Source\_aiinterface\aimonster.cpp

; 2549 : 	if( !IsValidObj( pMover ) || !pMover->IsNPC() || pMover->GetProp()->m_MonsterTransform.dwMonsterId == NULL_ID )

  0006f	83 b8 88 06 00
	00 ff		 cmp	 DWORD PTR [eax+1672], -1
  00076	0f 84 26 01 00
	00		 je	 $LN3@MonsterTra

; 2550 : 		return FALSE;
; 2551 : 
; 2552 : 	if( pMover->GetProp()->m_MonsterTransform.fHPRate < MulDiv( nMoverHP, 100, pMover->GetMaxHitPoint() ) )

  0007c	8b cf		 mov	 ecx, edi
  0007e	e8 00 00 00 00	 call	 ?GetPropA@CMover@@QAEPAUMoverProp@@XZ ; CMover::GetPropA
  00083	8b cf		 mov	 ecx, edi
  00085	8b f0		 mov	 esi, eax
  00087	e8 00 00 00 00	 call	 ?GetMaxHitPoint@CMover@@QAEHXZ ; CMover::GetMaxHitPoint
  0008c	50		 push	 eax
  0008d	6a 64		 push	 100			; 00000064H
  0008f	ff 75 0c	 push	 DWORD PTR _nMoverHP$[ebp]
  00092	ff 15 00 00 00
	00		 call	 DWORD PTR __imp__MulDiv@12
  00098	66 0f 6e c0	 movd	 xmm0, eax
  0009c	0f 5b c0	 cvtdq2ps xmm0, xmm0
  0009f	0f 2f 86 84 06
	00 00		 comiss	 xmm0, DWORD PTR [esi+1668]
  000a6	0f 87 f6 00 00
	00		 ja	 $LN3@MonsterTra

; 2553 : 		return FALSE;
; 2554 : 	
; 2555 : 	CWorld* pWorld = pMover->GetWorld();

  000ac	8b 9f 6c 01 00
	00		 mov	 ebx, DWORD PTR [edi+364]

; 2556 : 	MoverProp* pMoverProp = prj.GetMoverProp( pMover->GetProp()->m_MonsterTransform.dwMonsterId );

  000b2	8b cf		 mov	 ecx, edi
  000b4	e8 00 00 00 00	 call	 ?GetPropA@CMover@@QAEPAUMoverProp@@XZ ; CMover::GetPropA
  000b9	b9 00 00 00 00	 mov	 ecx, OFFSET ?prj@@3VCProject@@A ; prj
  000be	8b 80 88 06 00
	00		 mov	 eax, DWORD PTR [eax+1672]
  000c4	50		 push	 eax
  000c5	e8 00 00 00 00	 call	 ?GetMoverProp@CProject@@QAEPAUMoverProp@@H@Z ; CProject::GetMoverProp

; 2557 : 
; 2558 : 	if( pWorld && pMoverProp )

  000ca	85 db		 test	 ebx, ebx
  000cc	0f 84 d0 00 00
	00		 je	 $LN3@MonsterTra
  000d2	85 c0		 test	 eax, eax
  000d4	0f 84 c8 00 00
	00		 je	 $LN3@MonsterTra

; 2559 : 	{
; 2560 : 		CObj* pObj	= CreateObj( D3DDEVICE, OT_MOVER, pMoverProp->dwID );

  000da	6a 01		 push	 1
  000dc	ff 30		 push	 DWORD PTR [eax]
  000de	6a 05		 push	 5
  000e0	6a 00		 push	 0
  000e2	e8 00 00 00 00	 call	 ?CreateObj@@YAPAVCObj@@PAUIDirect3DDevice9@@KKH@Z ; CreateObj
  000e7	8b f0		 mov	 esi, eax
  000e9	83 c4 10	 add	 esp, 16			; 00000010H

; 2561 : 		if( NULL == pObj )

  000ec	85 f6		 test	 esi, esi
  000ee	0f 84 ae 00 00
	00		 je	 $LN3@MonsterTra
; File C:\IAGOS\server\v18\Source\Source\_Common\Obj.h

; 215  : 	D3DXVECTOR3		GetPos()	{ return m_vPos; }

  000f4	8b 8f 68 01 00
	00		 mov	 ecx, DWORD PTR [edi+360]
; File C:\IAGOS\server\v18\Source\Source\_aiinterface\aimonster.cpp

; 2563 : 		pObj->SetPos( pMover->GetPos() );

  000fa	8d 45 f0	 lea	 eax, DWORD PTR $T1[ebp]
; File C:\IAGOS\server\v18\Source\Source\_Common\Obj.h

; 215  : 	D3DXVECTOR3		GetPos()	{ return m_vPos; }

  000fd	f3 0f 7e 87 60
	01 00 00	 movq	 xmm0, QWORD PTR [edi+352]
  00105	89 4d f8	 mov	 DWORD PTR $T1[ebp+8], ecx
; File C:\IAGOS\server\v18\Source\Source\_aiinterface\aimonster.cpp

; 2563 : 		pObj->SetPos( pMover->GetPos() );

  00108	8b ce		 mov	 ecx, esi
  0010a	50		 push	 eax
; File C:\IAGOS\server\v18\Source\Source\_Common\Obj.h

; 215  : 	D3DXVECTOR3		GetPos()	{ return m_vPos; }

  0010b	66 0f d6 45 f0	 movq	 QWORD PTR $T1[ebp], xmm0
; File C:\IAGOS\server\v18\Source\Source\_aiinterface\aimonster.cpp

; 2563 : 		pObj->SetPos( pMover->GetPos() );

  00110	e8 00 00 00 00	 call	 ?SetPos@CObj@@QAEXABUD3DXVECTOR3@@@Z ; CObj::SetPos

; 2564 : 		pObj->InitMotion( MTI_STAND );

  00115	8b 06		 mov	 eax, DWORD PTR [esi]
  00117	8b ce		 mov	 ecx, esi
  00119	6a 00		 push	 0
  0011b	ff 50 08	 call	 DWORD PTR [eax+8]

; 2565 : 		pObj->UpdateLocalMatrix();

  0011e	8b ce		 mov	 ecx, esi
  00120	e8 00 00 00 00	 call	 ?UpdateLocalMatrix@CObj@@QAEXXZ ; CObj::UpdateLocalMatrix

; 2566 : 		((CMover*)pObj)->m_bActiveAttack = TRUE;
; 2567 : 		((CMover*)pObj)->AddItToGlobalId();

  00125	8b 06		 mov	 eax, DWORD PTR [esi]
  00127	8b ce		 mov	 ecx, esi
  00129	c7 86 68 06 00
	00 01 00 00 00	 mov	 DWORD PTR [esi+1640], 1
  00133	ff 50 3c	 call	 DWORD PTR [eax+60]

; 2568 : 		pWorld->ADDOBJ( pObj, FALSE, pMover->GetLayer() );

  00136	ff b7 b8 01 00
	00		 push	 DWORD PTR [edi+440]
  0013c	8b cb		 mov	 ecx, ebx
  0013e	6a 00		 push	 0
  00140	56		 push	 esi
  00141	e8 00 00 00 00	 call	 ?AddObj@CWorld@@QAEHPAVCObj@@HH@Z ; CWorld::AddObj

; 2569 : 		g_UserMng.AddCreateSfxObj( pMover, XI_SKILL_MAG_EARTH_LOOTING01 );

  00146	6a 00		 push	 0
  00148	83 ec 0c	 sub	 esp, 12			; 0000000cH
  0014b	b9 00 00 00 00	 mov	 ecx, OFFSET ?g_UserMng@@3VCUserMng@@A ; g_UserMng
  00150	c7 44 24 08 00
	00 00 00	 mov	 DWORD PTR [esp+8], 0
  00158	c7 44 24 04 00
	00 00 00	 mov	 DWORD PTR [esp+4], 0
  00160	c7 04 24 00 00
	00 00		 mov	 DWORD PTR [esp], 0
  00167	68 f8 00 00 00	 push	 248			; 000000f8H
  0016c	57		 push	 edi
  0016d	e8 00 00 00 00	 call	 ?AddCreateSfxObj@CUserMng@@QAEXPAVCCtrl@@KMMMH@Z ; CUserMng::AddCreateSfxObj

; 2571 : 		if( pMover->IsLive() && !pMover->IsDelete() )

  00172	8b cf		 mov	 ecx, edi
  00174	e8 00 00 00 00	 call	 ?IsLive@CMover@@QAEHXZ	; CMover::IsLive
  00179	85 c0		 test	 eax, eax
  0017b	74 0d		 je	 SHORT $LN8@MonsterTra
; File C:\IAGOS\server\v18\Source\Source\_Common\Obj.h

; 180  : 	BOOL			IsDelete()	{ return (m_dwFlags & OBJ_FLAG_DELETE);  }

  0017d	f6 47 04 01	 test	 BYTE PTR [edi+4], 1
; File C:\IAGOS\server\v18\Source\Source\_aiinterface\aimonster.cpp

; 2571 : 		if( pMover->IsLive() && !pMover->IsDelete() )

  00181	75 07		 jne	 SHORT $LN8@MonsterTra

; 2572 : 			pMover->Delete();

  00183	8b cf		 mov	 ecx, edi
  00185	e8 00 00 00 00	 call	 ?Delete@CObj@@QAEXXZ	; CObj::Delete
$LN8@MonsterTra:

; 2573 : 	}
; 2574 : 	else
; 2575 : 		return FALSE;
; 2576 : 
; 2577 : 	return TRUE;
; 2578 : }

  0018a	5f		 pop	 edi
  0018b	5e		 pop	 esi
  0018c	b8 01 00 00 00	 mov	 eax, 1
  00191	5b		 pop	 ebx
  00192	8b 4d fc	 mov	 ecx, DWORD PTR __$ArrayPad$[ebp]
  00195	33 cd		 xor	 ecx, ebp
  00197	e8 00 00 00 00	 call	 @__security_check_cookie@4
  0019c	8b e5		 mov	 esp, ebp
  0019e	5d		 pop	 ebp
  0019f	c2 08 00	 ret	 8
$LN3@MonsterTra:
  001a2	8b 4d fc	 mov	 ecx, DWORD PTR __$ArrayPad$[ebp]
  001a5	33 c0		 xor	 eax, eax
  001a7	5f		 pop	 edi
  001a8	5e		 pop	 esi
  001a9	33 cd		 xor	 ecx, ebp
  001ab	5b		 pop	 ebx
  001ac	e8 00 00 00 00	 call	 @__security_check_cookie@4
  001b1	8b e5		 mov	 esp, ebp
  001b3	5d		 pop	 ebp
  001b4	c2 08 00	 ret	 8
?MonsterTransform@CMonsterSkill@@QAEHPAVCMover@@H@Z ENDP ; CMonsterSkill::MonsterTransform
_TEXT	ENDS
; Function compile flags: /Ogtp
; File C:\IAGOS\server\v18\Source\Source\_aiinterface\aimonster.cpp
; File C:\IAGOS\server\v18\Source\Source\_Common\Obj.h
; File C:\IAGOS\server\v18\Source\Source\_aiinterface\aimonster.cpp
; File C:\IAGOS\server\v18\Source\Source\_Common\Obj.h
; File C:\IAGOS\server\v18\Source\Source\_aiinterface\aimonster.cpp
; File C:\Program Files\Microsoft Visual Studio\2022\Professional\VC\Tools\MSVC\14.44.35207\include\xtree
; File C:\Program Files\Microsoft Visual Studio\2022\Professional\VC\Tools\MSVC\14.44.35207\include\type_traits
; File C:\Program Files\Microsoft Visual Studio\2022\Professional\VC\Tools\MSVC\14.44.35207\include\xtree
; File C:\IAGOS\server\v18\Source\Source\_aiinterface\aimonster.cpp
; File C:\IAGOS\server\v18\Source\Source\_Common\xUtil.h
; File C:\IAGOS\server\v18\Source\Source\_aiinterface\aimonster.cpp
; File C:\IAGOS\server\v18\Source\Source\_Common\xUtil.h
; File C:\Program Files\Microsoft Visual Studio\2022\Professional\VC\Tools\MSVC\14.44.35207\include\vector
; File C:\IAGOS\server\v18\Source\Source\_Common\xUtil.h
; File C:\Program Files\Microsoft Visual Studio\2022\Professional\VC\Tools\MSVC\14.44.35207\include\vector
; File C:\IAGOS\server\v18\Source\Source\_Common\xUtil.h
; File C:\Program Files\Microsoft Visual Studio\2022\Professional\VC\Tools\MSVC\14.44.35207\include\vector
; File C:\IAGOS\server\v18\Source\Source\_aiinterface\aimonster.cpp
; File C:\IAGOS\server\v18\Source\Source\_Common\Project.h
; File C:\Program Files\Microsoft Visual Studio\2022\Professional\VC\Tools\MSVC\14.44.35207\include\vector
; File C:\IAGOS\server\v18\Source\Source\_aiinterface\aimonster.cpp
; File C:\IAGOS\server\v18\Source\Source\_Common\Project.h
; File C:\IAGOS\server\v18\Source\Source\_Common\data.h
; File C:\IAGOS\server\v18\Source\Source\_aiinterface\aimonster.cpp
; File C:\Program Files\Microsoft Visual Studio\2022\Professional\VC\Tools\MSVC\14.44.35207\include\vector
; File C:\IAGOS\server\v18\Source\Source\_aiinterface\aimonster.cpp
; File C:\IAGOS\server\v18\Source\Source\_Common\Obj.h
; File C:\IAGOS\server\v18\Source\Source\_aiinterface\aimonster.cpp
; File C:\IAGOS\server\v18\Source\Source\_Common\Obj.h
; File C:\IAGOS\server\v18\Source\Source\_aiinterface\aimonster.cpp
; File C:\IAGOS\server\v18\Source\Source\_Common\Obj.h
; File C:\IAGOS\server\v18\Source\Source\_aiinterface\aimonster.cpp
; File C:\IAGOS\server\v18\Source\Source\_Common\Obj.h
; File C:\IAGOS\server\v18\Source\Source\_aiinterface\aimonster.cpp
; File C:\IAGOS\server\v18\Source\Source\_Common\Obj.h
; File C:\IAGOS\server\v18\Source\Source\_aiinterface\aimonster.cpp
; File C:\IAGOS\server\v18\Source\Source\_Common\Obj.h
; File C:\IAGOS\server\v18\Source\Source\_aiinterface\aimonster.cpp
; File C:\IAGOS\server\v18\Source\Source\_Common\Obj.h
; File C:\IAGOS\server\v18\Source\Source\_aiinterface\aimonster.cpp
; File C:\IAGOS\server\v18\Source\Source\_Common\Obj.h
; File C:\IAGOS\server\v18\Source\Source\_aiinterface\aimonster.cpp
; File C:\IAGOS\server\v18\Source\Source\_Common\Obj.h
; File C:\IAGOS\server\v18\Source\Source\_aiinterface\aimonster.cpp
; File C:\IAGOS\server\v18\Source\Source\_Common\Obj.h
; File C:\IAGOS\server\v18\Source\Source\_aiinterface\aimonster.cpp
; File C:\IAGOS\server\v18\Source\Source\_Common\Obj.h
; File C:\IAGOS\server\v18\Source\Source\_aiinterface\aimonster.cpp
; File C:\IAGOS\server\v18\Source\Source\_Common\Mover.h
; File C:\IAGOS\server\v18\Source\Source\_aiinterface\aimonster.cpp
; File C:\Program Files\Microsoft Visual Studio\2022\Professional\VC\Tools\MSVC\14.44.35207\include\vector
; File C:\IAGOS\server\v18\Source\Source\_aiinterface\aimonster.cpp
; File C:\Program Files\Microsoft Visual Studio\2022\Professional\VC\Tools\MSVC\14.44.35207\include\vector
; File C:\IAGOS\server\v18\Source\Source\_aiinterface\aimonster.cpp
; File C:\IAGOS\server\v18\Source\Source\_Common\Project.h
; File C:\IAGOS\server\v18\Source\Source\_aiinterface\aimonster.cpp
;	COMDAT ?ApplySkill@CMonsterSkill@@QAEHPAVCMover@@0K@Z
_TEXT	SEGMENT
$T1 = -96						; size = 12
$T2 = -84						; size = 12
$T3 = -84						; size = 12
$T4 = -84						; size = 12
__Loc$5 = -72						; size = 12
_dwSkillTimeBackup$1$ = -60				; size = 4
_dwReferTarget2Backup$1$ = -56				; size = 4
_dwReferTarget1Backup$1$ = -52				; size = 4
tv1637 = -48						; size = 4
__pObjs$1$ = -44					; size = 4
_nProb$1$ = -40						; size = 4
__i$1$ = -40						; size = 4
__nX$1$ = -36						; size = 4
$T6 = -36						; size = 4
__j$1$ = -36						; size = 4
__nMaxHeight$1$ = -32					; size = 4
__nLinkZMax$1$ = -32					; size = 4
__k$1$ = -28						; size = 4
tv1644 = -24						; size = 4
tv1613 = -20						; size = 4
__nUnit$1$ = -20					; size = 4
_pAddSkillProp$1$ = -16					; size = 4
__nMaxWidth$1$ = -12					; size = 4
_i$1$ = -8						; size = 4
__nLinkZ$1$ = -4					; size = 4
_pAttacker$ = 8						; size = 4
_pTarget$ = 12						; size = 4
___limit$1$ = 12					; size = 4
$T7 = 12						; size = 4
_dwAtkMethod$ = 16					; size = 4
__nLinkX$1$ = 16					; size = 4
?ApplySkill@CMonsterSkill@@QAEHPAVCMover@@0K@Z PROC	; CMonsterSkill::ApplySkill, COMDAT
; _this$ = ecx

; 2461 : {

  00000	55		 push	 ebp
  00001	8b ec		 mov	 ebp, esp
  00003	83 ec 60	 sub	 esp, 96			; 00000060H
  00006	53		 push	 ebx
; File C:\IAGOS\server\v18\Source\Source\_Common\Obj.h

; 327  : 	return pObj && ( pObj->IsDelete() == FALSE ); 

  00007	8b 5d 08	 mov	 ebx, DWORD PTR _pAttacker$[ebp]
; File C:\IAGOS\server\v18\Source\Source\_aiinterface\aimonster.cpp

; 2461 : {

  0000a	56		 push	 esi
  0000b	8b f1		 mov	 esi, ecx
  0000d	57		 push	 edi
; File C:\IAGOS\server\v18\Source\Source\_Common\Obj.h

; 327  : 	return pObj && ( pObj->IsDelete() == FALSE ); 

  0000e	85 db		 test	 ebx, ebx
  00010	0f 84 b3 05 00
	00		 je	 $LN17@ApplySkill

; 180  : 	BOOL			IsDelete()	{ return (m_dwFlags & OBJ_FLAG_DELETE);  }

  00016	f6 43 04 01	 test	 BYTE PTR [ebx+4], 1

; 327  : 	return pObj && ( pObj->IsDelete() == FALSE ); 

  0001a	0f 85 a9 05 00
	00		 jne	 $LN17@ApplySkill
  00020	8b 45 0c	 mov	 eax, DWORD PTR _pTarget$[ebp]
  00023	85 c0		 test	 eax, eax
  00025	0f 84 9e 05 00
	00		 je	 $LN17@ApplySkill

; 180  : 	BOOL			IsDelete()	{ return (m_dwFlags & OBJ_FLAG_DELETE);  }

  0002b	f6 40 04 01	 test	 BYTE PTR [eax+4], 1

; 327  : 	return pObj && ( pObj->IsDelete() == FALSE ); 

  0002f	0f 85 94 05 00
	00		 jne	 $LN17@ApplySkill
; File C:\IAGOS\server\v18\Source\Source\_aiinterface\aimonster.cpp

; 2465 : 	MAPMONSTERSKILL::iterator it = m_mapMonsterSkill.find( pAttacker->m_dwIndex );

  00035	8d bb 74 01 00
	00		 lea	 edi, DWORD PTR [ebx+372]
; File C:\Program Files\Microsoft Visual Studio\2022\Professional\VC\Tools\MSVC\14.44.35207\include\xtree

; 1384 :         const _Tree_find_result<_Nodeptr> _Loc = _Find_lower_bound(_Keyval);

  0003b	57		 push	 edi
  0003c	8d 45 b8	 lea	 eax, DWORD PTR __Loc$5[ebp]
  0003f	50		 push	 eax
  00040	e8 00 00 00 00	 call	 ??$_Find_lower_bound@K@?$_Tree@V?$_Tmap_traits@KV?$vector@U__MONSTERSKILL@@V?$allocator@U__MONSTERSKILL@@@std@@@std@@U?$less@K@2@V?$allocator@U?$pair@$$CBKV?$vector@U__MONSTERSKILL@@V?$allocator@U__MONSTERSKILL@@@std@@@std@@@std@@@2@$0A@@std@@@std@@IBE?AU?$_Tree_find_result@PAU?$_Tree_node@U?$pair@$$CBKV?$vector@U__MONSTERSKILL@@V?$allocator@U__MONSTERSKILL@@@std@@@std@@@std@@PAX@std@@@1@ABK@Z ; std::_Tree<std::_Tmap_traits<unsigned long,std::vector<__MONSTERSKILL,std::allocator<__MONSTERSKILL> >,std::less<unsigned long>,std::allocator<std::pair<unsigned long const ,std::vector<__MONSTERSKILL,std::allocator<__MONSTERSKILL> > > >,0> >::_Find_lower_bound<unsigned long>

; 1624 :         return !_Bound->_Isnil && !_DEBUG_LT_PRED(_Getcomp(), _Keyval, _Traits::_Kfn(_Bound->_Myval));

  00045	8b 4d c0	 mov	 ecx, DWORD PTR __Loc$5[ebp+8]
  00048	80 79 0d 00	 cmp	 BYTE PTR [ecx+13], 0
  0004c	0f 85 77 05 00
	00		 jne	 $LN17@ApplySkill
; File C:\Program Files\Microsoft Visual Studio\2022\Professional\VC\Tools\MSVC\14.44.35207\include\type_traits

; 2380 :         return _Left < _Right;

  00052	8b 07		 mov	 eax, DWORD PTR [edi]
  00054	3b 41 10	 cmp	 eax, DWORD PTR [ecx+16]
; File C:\Program Files\Microsoft Visual Studio\2022\Professional\VC\Tools\MSVC\14.44.35207\include\xtree

; 1624 :         return !_Bound->_Isnil && !_DEBUG_LT_PRED(_Getcomp(), _Keyval, _Traits::_Kfn(_Bound->_Myval));

  00057	0f 82 6c 05 00
	00		 jb	 $LN17@ApplySkill

; 37   :     _Tree_unchecked_const_iterator(_Nodeptr _Pnode, const _Mytree* _Plist) noexcept : _Ptr(_Pnode) {

  0005d	3b 0e		 cmp	 ecx, DWORD PTR [esi]
; File C:\IAGOS\server\v18\Source\Source\_aiinterface\aimonster.cpp

; 2466 : 	if( it == m_mapMonsterSkill.end() )

  0005f	0f 84 64 05 00
	00		 je	 $LN17@ApplySkill
; File C:\IAGOS\server\v18\Source\Source\_Common\xUtil.h

; 16   : 	g_next = g_next * 1103515245 + 12345;// + nRandomSeed[ i++ ];

  00065	69 3d 00 00 00
	00 6d 4e c6 41	 imul	 edi, DWORD PTR ?g_next@@3KA, 1103515245 ; g_next

; 22   : 	return  xRand() % num;

  0006f	b8 1f 85 eb 51	 mov	 eax, 1374389535		; 51eb851fH
; File C:\IAGOS\server\v18\Source\Source\_aiinterface\aimonster.cpp

; 2474 : 	int nTotalProb = 0;

  00074	33 f6		 xor	 esi, esi
; File C:\IAGOS\server\v18\Source\Source\_Common\xUtil.h

; 16   : 	g_next = g_next * 1103515245 + 12345;// + nRandomSeed[ i++ ];

  00076	81 c7 39 30 00
	00		 add	 edi, 12345		; 00003039H

; 22   : 	return  xRand() % num;

  0007c	f7 e7		 mul	 edi

; 16   : 	g_next = g_next * 1103515245 + 12345;// + nRandomSeed[ i++ ];

  0007e	89 3d 00 00 00
	00		 mov	 DWORD PTR ?g_next@@3KA, edi ; g_next

; 22   : 	return  xRand() % num;

  00084	c1 ea 05	 shr	 edx, 5
  00087	6b c2 64	 imul	 eax, edx, 100
; File C:\Program Files\Microsoft Visual Studio\2022\Professional\VC\Tools\MSVC\14.44.35207\include\vector

; 1915 :         return static_cast<size_type>(_My_data._Mylast - _My_data._Myfirst);

  0008a	8b 51 18	 mov	 edx, DWORD PTR [ecx+24]
; File C:\IAGOS\server\v18\Source\Source\_Common\xUtil.h

; 22   : 	return  xRand() % num;

  0008d	2b f8		 sub	 edi, eax
; File C:\Program Files\Microsoft Visual Studio\2022\Professional\VC\Tools\MSVC\14.44.35207\include\vector

; 1915 :         return static_cast<size_type>(_My_data._Mylast - _My_data._Myfirst);

  0008f	8b 41 14	 mov	 eax, DWORD PTR [ecx+20]
  00092	2b d0		 sub	 edx, eax
; File C:\IAGOS\server\v18\Source\Source\_Common\xUtil.h

; 22   : 	return  xRand() % num;

  00094	89 7d d8	 mov	 DWORD PTR _nProb$1$[ebp], edi
; File C:\Program Files\Microsoft Visual Studio\2022\Professional\VC\Tools\MSVC\14.44.35207\include\vector

; 1915 :         return static_cast<size_type>(_My_data._Mylast - _My_data._Myfirst);

  00097	c1 fa 05	 sar	 edx, 5
; File C:\IAGOS\server\v18\Source\Source\_aiinterface\aimonster.cpp

; 2477 : 	for( i=0; i<(int)( vecMonsterSkill.size() ); i++ )

  0009a	33 ff		 xor	 edi, edi
  0009c	85 d2		 test	 edx, edx
  0009e	0f 8e 25 05 00
	00		 jle	 $LN17@ApplySkill
$LL4@ApplySkill:

; 2478 : 	{
; 2479 : 		if( vecMonsterSkill[i].nAtkMethod != dwAtkMethod )

  000a4	8b 5d 10	 mov	 ebx, DWORD PTR _dwAtkMethod$[ebp]
  000a7	39 18		 cmp	 DWORD PTR [eax], ebx
  000a9	8b 5d 08	 mov	 ebx, DWORD PTR _pAttacker$[ebp]
  000ac	75 08		 jne	 SHORT $LN2@ApplySkill

; 2480 : 			continue;
; 2481 : 
; 2482 : 		nTotalProb += vecMonsterSkill[i].nApplyProbabilty;

  000ae	03 70 14	 add	 esi, DWORD PTR [eax+20]

; 2483 : 		if( nProb < nTotalProb )

  000b1	39 75 d8	 cmp	 DWORD PTR _nProb$1$[ebp], esi
  000b4	7c 13		 jl	 SHORT $LN21@ApplySkill
$LN2@ApplySkill:

; 2477 : 	for( i=0; i<(int)( vecMonsterSkill.size() ); i++ )

  000b6	47		 inc	 edi
  000b7	83 c0 20	 add	 eax, 32			; 00000020H
  000ba	3b fa		 cmp	 edi, edx
  000bc	7c e6		 jl	 SHORT $LL4@ApplySkill

; 2544 : }

  000be	5f		 pop	 edi
  000bf	5e		 pop	 esi
  000c0	33 c0		 xor	 eax, eax
  000c2	5b		 pop	 ebx
  000c3	8b e5		 mov	 esp, ebp
  000c5	5d		 pop	 ebp
  000c6	c2 0c 00	 ret	 12			; 0000000cH
$LN21@ApplySkill:

; 2494 : 	ItemProp* pSkillProp = prj.GetSkillProp( vecMonsterSkill[i].dwSkillID );

  000c9	8b 51 14	 mov	 edx, DWORD PTR [ecx+20]
; File C:\IAGOS\server\v18\Source\Source\_Common\Project.h

; 1395 : 	VERIFY_RANGE( nIndex, 0, m_aPropSkill.GetSize(), "GetSkillProp range_error", NULL );

  000cc	a1 64 02 00 00	 mov	 eax, DWORD PTR ?prj@@3VCProject@@A+612
; File C:\Program Files\Microsoft Visual Studio\2022\Professional\VC\Tools\MSVC\14.44.35207\include\vector

; 1934 :         return _My_data._Myfirst[_Pos];

  000d1	c1 e7 05	 shl	 edi, 5
  000d4	89 7d f8	 mov	 DWORD PTR _i$1$[ebp], edi
; File C:\IAGOS\server\v18\Source\Source\_aiinterface\aimonster.cpp

; 2494 : 	ItemProp* pSkillProp = prj.GetSkillProp( vecMonsterSkill[i].dwSkillID );

  000d7	8b 54 3a 04	 mov	 edx, DWORD PTR [edx+edi+4]
; File C:\IAGOS\server\v18\Source\Source\_Common\Project.h

; 1395 : 	VERIFY_RANGE( nIndex, 0, m_aPropSkill.GetSize(), "GetSkillProp range_error", NULL );

  000db	85 d2		 test	 edx, edx
  000dd	0f 88 d0 04 00
	00		 js	 $LN71@ApplySkill
  000e3	3b d0		 cmp	 edx, eax
  000e5	0f 8d c8 04 00
	00		 jge	 $LN71@ApplySkill
; File C:\IAGOS\server\v18\Source\Source\_Common\data.h

; 270  : 	if( dwIndex >= (DWORD)m_nMaxIndex )

  000eb	72 04		 jb	 SHORT $LN76@ApplySkill

; 271  : 		return NULL;

  000ed	33 f6		 xor	 esi, esi
  000ef	eb 08		 jmp	 SHORT $LN75@ApplySkill
$LN76@ApplySkill:

; 272  : 	return (T*) m_apOffset[ dwIndex ];

  000f1	a1 54 02 00 00	 mov	 eax, DWORD PTR ?prj@@3VCProject@@A+596
  000f6	8b 34 90	 mov	 esi, DWORD PTR [eax+edx*4]
$LN75@ApplySkill:
; File C:\IAGOS\server\v18\Source\Source\_aiinterface\aimonster.cpp

; 2495 : 	if( !pSkillProp ) return FALSE;

  000f9	85 f6		 test	 esi, esi
  000fb	0f 84 c8 04 00
	00		 je	 $LN17@ApplySkill
; File C:\Program Files\Microsoft Visual Studio\2022\Professional\VC\Tools\MSVC\14.44.35207\include\vector

; 1934 :         return _My_data._Myfirst[_Pos];

  00101	8b 41 14	 mov	 eax, DWORD PTR [ecx+20]
; File C:\IAGOS\server\v18\Source\Source\_aiinterface\aimonster.cpp

; 2496 : 	AddSkillProp* pAddSkillProp = prj.GetAddSkillProp( pSkillProp->dwSubDefine + vecMonsterSkill[i].dwSkillLV - 1 );

  00104	8b 8e 10 02 00
	00		 mov	 ecx, DWORD PTR [esi+528]
  0010a	49		 dec	 ecx
  0010b	8b 44 38 08	 mov	 eax, DWORD PTR [eax+edi+8]
  0010f	03 c1		 add	 eax, ecx
  00111	b9 00 00 00 00	 mov	 ecx, OFFSET ?prj@@3VCProject@@A ; prj
  00116	50		 push	 eax
  00117	e8 00 00 00 00	 call	 ?GetAddSkillProp@CProject@@QAEPAUAddSkillProp@@K@Z ; CProject::GetAddSkillProp
  0011c	89 45 f0	 mov	 DWORD PTR _pAddSkillProp$1$[ebp], eax

; 2497 : 	if( !pAddSkillProp ) return FALSE;

  0011f	85 c0		 test	 eax, eax
  00121	0f 84 a2 04 00
	00		 je	 $LN17@ApplySkill

; 2498 : 
; 2499 : 	if( pSkillProp->dwID == SI_MAG_FIRE_HOTAIR )

  00127	83 3e 41	 cmp	 DWORD PTR [esi], 65	; 00000041H
  0012a	0f 84 99 04 00
	00		 je	 $LN17@ApplySkill

; 2500 : 		return FALSE;
; 2501 : 
; 2502 : 	if( vecMonsterSkill[i].nHitCount != pAttacker->m_pActMover->m_nMotionHitCount )

  00130	8b 45 c0	 mov	 eax, DWORD PTR __Loc$5[ebp+8]
  00133	8b 93 38 02 00
	00		 mov	 edx, DWORD PTR [ebx+568]
  00139	8b 48 14	 mov	 ecx, DWORD PTR [eax+20]
  0013c	8b 4c 0f 0c	 mov	 ecx, DWORD PTR [edi+ecx+12]
  00140	3b 8a 9c 00 00
	00		 cmp	 ecx, DWORD PTR [edx+156]
  00146	0f 85 7d 04 00
	00		 jne	 $LN17@ApplySkill

; 2503 : 		return FALSE;
; 2504 : 	
; 2505 : 	// НКХГ СіМгНУАЃРЛ КЏАцЧЯБт РЇЧи ЙщОїЧиЕаДй.
; 2506 : 	DWORD dwReferTarget1Backup = pSkillProp->dwReferTarget1;

  0014c	8b 8e d8 01 00
	00		 mov	 ecx, DWORD PTR [esi+472]
  00152	89 4d cc	 mov	 DWORD PTR _dwReferTarget1Backup$1$[ebp], ecx

; 2507 : 	DWORD dwReferTarget2Backup = pSkillProp->dwReferTarget2;

  00155	8b 8e dc 01 00
	00		 mov	 ecx, DWORD PTR [esi+476]
  0015b	89 4d c8	 mov	 DWORD PTR _dwReferTarget2Backup$1$[ebp], ecx

; 2508 : 	DWORD dwSkillTimeBackup = pAddSkillProp->dwSkillTime;

  0015e	8b 4d f0	 mov	 ecx, DWORD PTR _pAddSkillProp$1$[ebp]
  00161	8b 51 70	 mov	 edx, DWORD PTR [ecx+112]

; 2509 : 	pSkillProp->dwReferTarget1 = NULL_ID;

  00164	c7 86 d8 01 00
	00 ff ff ff ff	 mov	 DWORD PTR [esi+472], -1

; 2510 : 	pSkillProp->dwReferTarget2 = NULL_ID;

  0016e	c7 86 dc 01 00
	00 ff ff ff ff	 mov	 DWORD PTR [esi+476], -1

; 2511 : 	pAddSkillProp->dwSkillTime = vecMonsterSkill[i].dwSkillTime;

  00178	8b 40 14	 mov	 eax, DWORD PTR [eax+20]
  0017b	89 55 c4	 mov	 DWORD PTR _dwSkillTimeBackup$1$[ebp], edx
  0017e	8b 44 07 18	 mov	 eax, DWORD PTR [edi+eax+24]
  00182	89 41 70	 mov	 DWORD PTR [ecx+112], eax

; 2512 : 	
; 2513 : 	//g_UserMng.AddCreateSfxObj( pAttacker, pSkillProp->dwSfxObj ); // НКХГ НУРќ РЬЦхЦЎ
; 2514 : 	if( vecMonsterSkill[i].nRange == 0 ) // ЙќРЇАЁ 0РЬИщ ХИАйЧбХзИИ НКХГ РћПы

  00185	8b 45 c0	 mov	 eax, DWORD PTR __Loc$5[ebp+8]
  00188	8b 40 14	 mov	 eax, DWORD PTR [eax+20]
  0018b	83 7c 07 10 00	 cmp	 DWORD PTR [edi+eax+16], 0
  00190	75 7e		 jne	 SHORT $LN26@ApplySkill

; 2515 : 	{
; 2516 : 		pTarget->ApplySkill( pAttacker, pSkillProp, pAddSkillProp, vecMonsterSkill[i].bIgnoreSkillProb );

  00192	0f b6 44 07 1c	 movzx	 eax, BYTE PTR [edi+eax+28]
  00197	6a 01		 push	 1
  00199	6a 00		 push	 0
  0019b	6a 00		 push	 0
  0019d	50		 push	 eax
  0019e	51		 push	 ecx
  0019f	56		 push	 esi
  001a0	53		 push	 ebx
  001a1	8b 5d 0c	 mov	 ebx, DWORD PTR _pTarget$[ebp]
  001a4	8b cb		 mov	 ecx, ebx
  001a6	e8 00 00 00 00	 call	 ?ApplySkill@CCtrl@@QAEXPAV1@PAUItemProp@@PAUAddSkillProp@@_NHHH@Z ; CCtrl::ApplySkill

; 2517 : 		if( pSkillProp->dwSfxObj2 != NULL_ID )

  001ab	8b 86 a8 01 00
	00		 mov	 eax, DWORD PTR [esi+424]
  001b1	83 f8 ff	 cmp	 eax, -1
  001b4	74 28		 je	 SHORT $LN28@ApplySkill

; 2518 : 			g_UserMng.AddCreateSfxObj( pTarget, pSkillProp->dwSfxObj2 );

  001b6	6a 00		 push	 0
  001b8	83 ec 0c	 sub	 esp, 12			; 0000000cH
  001bb	b9 00 00 00 00	 mov	 ecx, OFFSET ?g_UserMng@@3VCUserMng@@A ; g_UserMng
  001c0	c7 44 24 08 00
	00 00 00	 mov	 DWORD PTR [esp+8], 0
  001c8	c7 44 24 04 00
	00 00 00	 mov	 DWORD PTR [esp+4], 0
  001d0	c7 04 24 00 00
	00 00		 mov	 DWORD PTR [esp], 0
  001d7	50		 push	 eax
  001d8	53		 push	 ebx
  001d9	e8 00 00 00 00	 call	 ?AddCreateSfxObj@CUserMng@@QAEXPAVCCtrl@@KMMMH@Z ; CUserMng::AddCreateSfxObj
$LN28@ApplySkill:

; 2519 : 		g_UserMng.AddCreateSfxObj( pTarget, pSkillProp->dwSfxObj3 );

  001de	6a 00		 push	 0
  001e0	83 ec 0c	 sub	 esp, 12			; 0000000cH
  001e3	b9 00 00 00 00	 mov	 ecx, OFFSET ?g_UserMng@@3VCUserMng@@A ; g_UserMng
  001e8	c7 44 24 08 00
	00 00 00	 mov	 DWORD PTR [esp+8], 0
  001f0	c7 44 24 04 00
	00 00 00	 mov	 DWORD PTR [esp+4], 0
  001f8	c7 04 24 00 00
	00 00		 mov	 DWORD PTR [esp], 0
  001ff	ff b6 ac 01 00
	00		 push	 DWORD PTR [esi+428]
  00205	53		 push	 ebx
  00206	e8 00 00 00 00	 call	 ?AddCreateSfxObj@CUserMng@@QAEXPAVCCtrl@@KMMMH@Z ; CUserMng::AddCreateSfxObj

; 2520 : 	}

  0020b	e9 7a 03 00 00	 jmp	 $LN6@ApplySkill
$LN26@ApplySkill:

; 2524 : 		FOR_LINKMAP( pAttacker->GetWorld(), pAttacker->GetPos(), pObj, vecMonsterSkill[i].nRange, CObj::linkPlayer, pAttacker->GetLayer() )

  00210	8b 8b 6c 01 00
	00		 mov	 ecx, DWORD PTR [ebx+364]
  00216	33 ff		 xor	 edi, edi
; File C:\IAGOS\server\v18\Source\Source\_Common\Obj.h

; 215  : 	D3DXVECTOR3		GetPos()	{ return m_vPos; }

  00218	f3 0f 7e 83 60
	01 00 00	 movq	 xmm0, QWORD PTR [ebx+352]
  00220	66 0f d6 45 ac	 movq	 QWORD PTR $T2[ebp], xmm0
; File C:\IAGOS\server\v18\Source\Source\_aiinterface\aimonster.cpp

; 2524 : 		FOR_LINKMAP( pAttacker->GetWorld(), pAttacker->GetPos(), pObj, vecMonsterSkill[i].nRange, CObj::linkPlayer, pAttacker->GetLayer() )

  00225	f3 0f 10 45 ac	 movss	 xmm0, DWORD PTR $T2[ebp]
  0022a	66 0f 6e 49 14	 movd	 xmm1, DWORD PTR [ecx+20]
  0022f	83 c1 24	 add	 ecx, 36			; 00000024H
  00232	0f 5b c9	 cvtdq2ps xmm1, xmm1
; File C:\IAGOS\server\v18\Source\Source\_Common\Obj.h

; 215  : 	D3DXVECTOR3		GetPos()	{ return m_vPos; }

  00235	8b 83 68 01 00
	00		 mov	 eax, DWORD PTR [ebx+360]
  0023b	89 45 b4	 mov	 DWORD PTR $T2[ebp+8], eax
; File C:\IAGOS\server\v18\Source\Source\_aiinterface\aimonster.cpp

; 2524 : 		FOR_LINKMAP( pAttacker->GetWorld(), pAttacker->GetPos(), pObj, vecMonsterSkill[i].nRange, CObj::linkPlayer, pAttacker->GetLayer() )

  0023e	89 7d d8	 mov	 DWORD PTR __i$1$[ebp], edi
  00241	ff b3 b8 01 00
	00		 push	 DWORD PTR [ebx+440]
  00247	f3 0f 5e c1	 divss	 xmm0, xmm1
  0024b	6a 02		 push	 2
  0024d	f3 0f 2c c0	 cvttss2si eax, xmm0
; File C:\IAGOS\server\v18\Source\Source\_Common\Obj.h

; 215  : 	D3DXVECTOR3		GetPos()	{ return m_vPos; }

  00251	f3 0f 7e 83 60
	01 00 00	 movq	 xmm0, QWORD PTR [ebx+352]
; File C:\IAGOS\server\v18\Source\Source\_aiinterface\aimonster.cpp

; 2524 : 		FOR_LINKMAP( pAttacker->GetWorld(), pAttacker->GetPos(), pObj, vecMonsterSkill[i].nRange, CObj::linkPlayer, pAttacker->GetLayer() )

  00259	89 45 10	 mov	 DWORD PTR __nLinkX$1$[ebp], eax
; File C:\IAGOS\server\v18\Source\Source\_Common\Obj.h

; 215  : 	D3DXVECTOR3		GetPos()	{ return m_vPos; }

  0025c	8b 83 68 01 00
	00		 mov	 eax, DWORD PTR [ebx+360]
  00262	66 0f d6 45 ac	 movq	 QWORD PTR $T3[ebp], xmm0
  00267	89 45 b4	 mov	 DWORD PTR $T3[ebp+8], eax
; File C:\IAGOS\server\v18\Source\Source\_aiinterface\aimonster.cpp

; 2524 : 		FOR_LINKMAP( pAttacker->GetWorld(), pAttacker->GetPos(), pObj, vecMonsterSkill[i].nRange, CObj::linkPlayer, pAttacker->GetLayer() )

  0026a	f3 0f 10 45 b4	 movss	 xmm0, DWORD PTR $T3[ebp+8]
  0026f	f3 0f 5e c1	 divss	 xmm0, xmm1
  00273	f3 0f 2c c0	 cvttss2si eax, xmm0
  00277	89 45 fc	 mov	 DWORD PTR __nLinkZ$1$[ebp], eax
  0027a	e8 00 00 00 00	 call	 ?GetMaxLinkLevel@CLayeredLinkMap@@QAEHKH@Z ; CLayeredLinkMap::GetMaxLinkLevel
  0027f	85 c0		 test	 eax, eax
  00281	0f 8e 03 03 00
	00		 jle	 $LN6@ApplySkill
  00287	89 75 0c	 mov	 DWORD PTR $T7[ebp], esi
  0028a	66 0f 1f 44 00
	00		 npad	 6
$LL7@ApplySkill:
  00290	ff b3 b8 01 00
	00		 push	 DWORD PTR [ebx+440]
  00296	8b 8b 6c 01 00
	00		 mov	 ecx, DWORD PTR [ebx+364]
  0029c	57		 push	 edi
  0029d	6a 02		 push	 2
  0029f	83 c1 24	 add	 ecx, 36			; 00000024H
  002a2	e8 00 00 00 00	 call	 ?GetLinkWidth@CLayeredLinkMap@@QAEHKHH@Z ; CLayeredLinkMap::GetLinkWidth
  002a7	ff b3 b8 01 00
	00		 push	 DWORD PTR [ebx+440]
  002ad	8b 8b 6c 01 00
	00		 mov	 ecx, DWORD PTR [ebx+364]
  002b3	8b f0		 mov	 esi, eax
  002b5	57		 push	 edi
  002b6	6a 02		 push	 2
  002b8	83 c1 24	 add	 ecx, 36			; 00000024H
  002bb	e8 00 00 00 00	 call	 ?GetObj@CLayeredLinkMap@@QAEPAPAVCObj@@KKH@Z ; CLayeredLinkMap::GetObj
  002c0	8b 8b 6c 01 00
	00		 mov	 ecx, DWORD PTR [ebx+364]
  002c6	89 45 d4	 mov	 DWORD PTR __pObjs$1$[ebp], eax
  002c9	8b 51 08	 mov	 edx, DWORD PTR [ecx+8]
  002cc	8b 41 04	 mov	 eax, DWORD PTR [ecx+4]
  002cf	8b d8		 mov	 ebx, eax
  002d1	c1 e0 07	 shl	 eax, 7
  002d4	0f af d6	 imul	 edx, esi
  002d7	0f af de	 imul	 ebx, esi
  002da	8b 79 14	 mov	 edi, DWORD PTR [ecx+20]
  002dd	8b 4d 10	 mov	 ecx, DWORD PTR __nLinkX$1$[ebp]
  002e0	89 55 e0	 mov	 DWORD PTR __nMaxHeight$1$[ebp], edx
  002e3	99		 cdq
  002e4	f7 fb		 idiv	 ebx
  002e6	89 5d f4	 mov	 DWORD PTR __nMaxWidth$1$[ebp], ebx
  002e9	8b d8		 mov	 ebx, eax
  002eb	8b c7		 mov	 eax, edi
  002ed	0f af c3	 imul	 eax, ebx
  002f0	89 5d ec	 mov	 DWORD PTR __nUnit$1$[ebp], ebx
  002f3	99		 cdq
  002f4	2b c2		 sub	 eax, edx
  002f6	8b f0		 mov	 esi, eax
; File C:\IAGOS\server\v18\Source\Source\_Common\Obj.h

; 215  : 	D3DXVECTOR3		GetPos()	{ return m_vPos; }

  002f8	8b 45 08	 mov	 eax, DWORD PTR _pAttacker$[ebp]
; File C:\IAGOS\server\v18\Source\Source\_aiinterface\aimonster.cpp

; 2524 : 		FOR_LINKMAP( pAttacker->GetWorld(), pAttacker->GetPos(), pObj, vecMonsterSkill[i].nRange, CObj::linkPlayer, pAttacker->GetLayer() )

  002fb	d1 fe		 sar	 esi, 1
; File C:\IAGOS\server\v18\Source\Source\_Common\Obj.h

; 215  : 	D3DXVECTOR3		GetPos()	{ return m_vPos; }

  002fd	f3 0f 7e 80 60
	01 00 00	 movq	 xmm0, QWORD PTR [eax+352]
; File C:\IAGOS\server\v18\Source\Source\_aiinterface\aimonster.cpp

; 2524 : 		FOR_LINKMAP( pAttacker->GetWorld(), pAttacker->GetPos(), pObj, vecMonsterSkill[i].nRange, CObj::linkPlayer, pAttacker->GetLayer() )

  00305	8b c1		 mov	 eax, ecx
  00307	99		 cdq
  00308	f7 fb		 idiv	 ebx
; File C:\IAGOS\server\v18\Source\Source\_Common\Obj.h

; 215  : 	D3DXVECTOR3		GetPos()	{ return m_vPos; }

  0030a	66 0f d6 45 ac	 movq	 QWORD PTR $T4[ebp], xmm0
; File C:\IAGOS\server\v18\Source\Source\_aiinterface\aimonster.cpp

; 2524 : 		FOR_LINKMAP( pAttacker->GetWorld(), pAttacker->GetPos(), pObj, vecMonsterSkill[i].nRange, CObj::linkPlayer, pAttacker->GetLayer() )

  0030f	f3 0f 2c 45 ac	 cvttss2si eax, DWORD PTR $T4[ebp]
  00314	2b ca		 sub	 ecx, edx
  00316	0f af cf	 imul	 ecx, edi
  00319	2b c1		 sub	 eax, ecx
  0031b	33 c9		 xor	 ecx, ecx
  0031d	3b c6		 cmp	 eax, esi
; File C:\IAGOS\server\v18\Source\Source\_Common\Obj.h

; 215  : 	D3DXVECTOR3		GetPos()	{ return m_vPos; }

  0031f	8b 45 08	 mov	 eax, DWORD PTR _pAttacker$[ebp]
; File C:\IAGOS\server\v18\Source\Source\_aiinterface\aimonster.cpp

; 2524 : 		FOR_LINKMAP( pAttacker->GetWorld(), pAttacker->GetPos(), pObj, vecMonsterSkill[i].nRange, CObj::linkPlayer, pAttacker->GetLayer() )

  00322	0f 9f c1	 setg	 cl
  00325	89 4d dc	 mov	 DWORD PTR __nX$1$[ebp], ecx
; File C:\IAGOS\server\v18\Source\Source\_Common\Obj.h

; 215  : 	D3DXVECTOR3		GetPos()	{ return m_vPos; }

  00328	f3 0f 7e 80 60
	01 00 00	 movq	 xmm0, QWORD PTR [eax+352]
  00330	8b 80 68 01 00
	00		 mov	 eax, DWORD PTR [eax+360]
; File C:\IAGOS\server\v18\Source\Source\_aiinterface\aimonster.cpp

; 2524 : 		FOR_LINKMAP( pAttacker->GetWorld(), pAttacker->GetPos(), pObj, vecMonsterSkill[i].nRange, CObj::linkPlayer, pAttacker->GetLayer() )

  00336	8b 4d fc	 mov	 ecx, DWORD PTR __nLinkZ$1$[ebp]
; File C:\IAGOS\server\v18\Source\Source\_Common\Obj.h

; 215  : 	D3DXVECTOR3		GetPos()	{ return m_vPos; }

  00339	89 45 a8	 mov	 DWORD PTR $T1[ebp+8], eax
; File C:\IAGOS\server\v18\Source\Source\_aiinterface\aimonster.cpp

; 2524 : 		FOR_LINKMAP( pAttacker->GetWorld(), pAttacker->GetPos(), pObj, vecMonsterSkill[i].nRange, CObj::linkPlayer, pAttacker->GetLayer() )

  0033c	8b c1		 mov	 eax, ecx
  0033e	99		 cdq
  0033f	f7 fb		 idiv	 ebx
  00341	f3 0f 2c 45 a8	 cvttss2si eax, DWORD PTR $T1[ebp+8]
  00346	2b ca		 sub	 ecx, edx
  00348	33 db		 xor	 ebx, ebx
; File C:\IAGOS\server\v18\Source\Source\_Common\Obj.h

; 215  : 	D3DXVECTOR3		GetPos()	{ return m_vPos; }

  0034a	66 0f d6 45 a0	 movq	 QWORD PTR $T1[ebp], xmm0
; File C:\IAGOS\server\v18\Source\Source\_aiinterface\aimonster.cpp

; 2524 : 		FOR_LINKMAP( pAttacker->GetWorld(), pAttacker->GetPos(), pObj, vecMonsterSkill[i].nRange, CObj::linkPlayer, pAttacker->GetLayer() )

  0034f	0f af cf	 imul	 ecx, edi
  00352	8b 7d dc	 mov	 edi, DWORD PTR __nX$1$[ebp]
  00355	2b c1		 sub	 eax, ecx
  00357	8b 4d f8	 mov	 ecx, DWORD PTR _i$1$[ebp]
  0035a	3b c6		 cmp	 eax, esi
  0035c	8b 45 c0	 mov	 eax, DWORD PTR __Loc$5[ebp+8]
  0035f	0f 9f c3	 setg	 bl
  00362	8b 40 14	 mov	 eax, DWORD PTR [eax+20]
  00365	8b 74 01 10	 mov	 esi, DWORD PTR [ecx+eax+16]
  00369	8b ce		 mov	 ecx, esi
  0036b	8b 45 10	 mov	 eax, DWORD PTR __nLinkX$1$[ebp]
  0036e	f7 d9		 neg	 ecx
  00370	03 c1		 add	 eax, ecx
  00372	99		 cdq
  00373	f7 7d ec	 idiv	 DWORD PTR __nUnit$1$[ebp]
  00376	33 d2		 xor	 edx, edx
  00378	48		 dec	 eax
  00379	03 c7		 add	 eax, edi
  0037b	0f 49 d0	 cmovns	 edx, eax
  0037e	89 55 e4	 mov	 DWORD PTR __k$1$[ebp], edx
  00381	8b 45 fc	 mov	 eax, DWORD PTR __nLinkZ$1$[ebp]
  00384	03 c1		 add	 eax, ecx
  00386	8b 4d ec	 mov	 ecx, DWORD PTR __nUnit$1$[ebp]
  00389	99		 cdq
  0038a	f7 f9		 idiv	 ecx
  0038c	33 d2		 xor	 edx, edx
  0038e	48		 dec	 eax
  0038f	03 c3		 add	 eax, ebx
  00391	0f 49 d0	 cmovns	 edx, eax
  00394	8b 45 10	 mov	 eax, DWORD PTR __nLinkX$1$[ebp]
  00397	03 c6		 add	 eax, esi
  00399	89 55 dc	 mov	 DWORD PTR __j$1$[ebp], edx
  0039c	99		 cdq
  0039d	f7 f9		 idiv	 ecx
  0039f	8b 55 f4	 mov	 edx, DWORD PTR __nMaxWidth$1$[ebp]
  003a2	03 c7		 add	 eax, edi
  003a4	3b c2		 cmp	 eax, edx
  003a6	8d 7a ff	 lea	 edi, DWORD PTR [edx-1]
  003a9	0f 4c f8	 cmovl	 edi, eax
  003ac	8b 45 fc	 mov	 eax, DWORD PTR __nLinkZ$1$[ebp]
  003af	03 c6		 add	 eax, esi
  003b1	89 7d d0	 mov	 DWORD PTR tv1637[ebp], edi
  003b4	99		 cdq
  003b5	f7 f9		 idiv	 ecx
  003b7	8b 4d e0	 mov	 ecx, DWORD PTR __nMaxHeight$1$[ebp]
  003ba	8d 14 03	 lea	 edx, DWORD PTR [ebx+eax]
  003bd	3b d1		 cmp	 edx, ecx
  003bf	7c 03		 jl	 SHORT $LN32@ApplySkill
  003c1	8d 51 ff	 lea	 edx, DWORD PTR [ecx-1]
$LN32@ApplySkill:
  003c4	8b 4d dc	 mov	 ecx, DWORD PTR __j$1$[ebp]
  003c7	3b ca		 cmp	 ecx, edx
  003c9	0f 8f 90 01 00
	00		 jg	 $LN5@ApplySkill
  003cf	8b 5d f4	 mov	 ebx, DWORD PTR __nMaxWidth$1$[ebp]
  003d2	8b c1		 mov	 eax, ecx
  003d4	0f af c3	 imul	 eax, ebx
  003d7	2b d1		 sub	 edx, ecx
  003d9	8b 4d e4	 mov	 ecx, DWORD PTR __k$1$[ebp]
  003dc	42		 inc	 edx
  003dd	89 55 e0	 mov	 DWORD PTR __nLinkZMax$1$[ebp], edx
  003e0	03 c1		 add	 eax, ecx
  003e2	89 45 dc	 mov	 DWORD PTR $T6[ebp], eax
$LL10@ApplySkill:
  003e5	3b cf		 cmp	 ecx, edi
  003e7	0f 8f 60 01 00
	00		 jg	 $LN8@ApplySkill
  003ed	8b 55 d4	 mov	 edx, DWORD PTR __pObjs$1$[ebp]
  003f0	8d 14 82	 lea	 edx, DWORD PTR [edx+eax*4]
  003f3	8b c7		 mov	 eax, edi
  003f5	2b c1		 sub	 eax, ecx
  003f7	89 55 ec	 mov	 DWORD PTR tv1613[ebp], edx
  003fa	40		 inc	 eax
  003fb	89 45 e8	 mov	 DWORD PTR tv1644[ebp], eax
  003fe	66 90		 npad	 2
$LL13@ApplySkill:
  00400	8b 32		 mov	 esi, DWORD PTR [edx]
  00402	b9 e8 03 00 00	 mov	 ecx, 1000		; 000003e8H
  00407	85 f6		 test	 esi, esi
  00409	0f 84 1d 01 00
	00		 je	 $LN11@ApplySkill
  0040f	8b 5d 0c	 mov	 ebx, DWORD PTR $T7[ebp]
$LL14@ApplySkill:
  00412	8b c1		 mov	 eax, ecx
  00414	8b fb		 mov	 edi, ebx
  00416	49		 dec	 ecx
  00417	89 4d 0c	 mov	 DWORD PTR ___limit$1$[ebp], ecx
  0041a	85 c0		 test	 eax, eax
  0041c	0f 84 01 01 00
	00		 je	 $LN206@ApplySkill

; 2527 : 				&& pObj != pAttacker && pObj->IsRangeObj( pAttacker, (float)( vecMonsterSkill[i].nRange ) ) )

  00422	83 be 70 01 00
	00 05		 cmp	 DWORD PTR [esi+368], 5
  00429	0f 85 e6 00 00
	00		 jne	 $LN33@ApplySkill
  0042f	83 be 30 02 00
	00 00		 cmp	 DWORD PTR [esi+560], 0
  00436	0f 84 d9 00 00
	00		 je	 $LN33@ApplySkill
; File C:\IAGOS\server\v18\Source\Source\_Common\Mover.h

; 1251 : 	BOOL			IsLive() { return m_pActMover->IsDie() == FALSE || m_nHitPoint > 0; }		// && ИІ  ||ЗЮ ЙйВхРН.  !=ИІ >ЗЮ ЙйВо

  0043c	8b 86 38 02 00
	00		 mov	 eax, DWORD PTR [esi+568]
  00442	f7 40 04 00 00
	00 08		 test	 DWORD PTR [eax+4], 134217728 ; 08000000H
  00449	74 0d		 je	 SHORT $LN197@ApplySkill
  0044b	83 be f8 05 00
	00 00		 cmp	 DWORD PTR [esi+1528], 0
  00452	0f 8e bd 00 00
	00		 jle	 $LN33@ApplySkill
$LN197@ApplySkill:
; File C:\IAGOS\server\v18\Source\Source\_aiinterface\aimonster.cpp

; 2527 : 				&& pObj != pAttacker && pObj->IsRangeObj( pAttacker, (float)( vecMonsterSkill[i].nRange ) ) )

  00458	8b 55 08	 mov	 edx, DWORD PTR _pAttacker$[ebp]
  0045b	8b df		 mov	 ebx, edi
  0045d	3b f2		 cmp	 esi, edx
  0045f	0f 84 b0 00 00
	00		 je	 $LN33@ApplySkill
; File C:\Program Files\Microsoft Visual Studio\2022\Professional\VC\Tools\MSVC\14.44.35207\include\vector

; 1934 :         return _My_data._Myfirst[_Pos];

  00465	8b 45 c0	 mov	 eax, DWORD PTR __Loc$5[ebp+8]
; File C:\IAGOS\server\v18\Source\Source\_aiinterface\aimonster.cpp

; 2527 : 				&& pObj != pAttacker && pObj->IsRangeObj( pAttacker, (float)( vecMonsterSkill[i].nRange ) ) )

  00468	51		 push	 ecx
  00469	8b ce		 mov	 ecx, esi
; File C:\Program Files\Microsoft Visual Studio\2022\Professional\VC\Tools\MSVC\14.44.35207\include\vector

; 1934 :         return _My_data._Myfirst[_Pos];

  0046b	8b 40 14	 mov	 eax, DWORD PTR [eax+20]
  0046e	03 45 f8	 add	 eax, DWORD PTR _i$1$[ebp]
  00471	66 0f 6e 40 10	 movd	 xmm0, DWORD PTR [eax+16]
; File C:\IAGOS\server\v18\Source\Source\_aiinterface\aimonster.cpp

; 2527 : 				&& pObj != pAttacker && pObj->IsRangeObj( pAttacker, (float)( vecMonsterSkill[i].nRange ) ) )

  00476	0f 5b c0	 cvtdq2ps xmm0, xmm0
  00479	f3 0f 11 04 24	 movss	 DWORD PTR [esp], xmm0
  0047e	52		 push	 edx
  0047f	e8 00 00 00 00	 call	 ?IsRangeObj@CObj@@QAEHPAV1@M@Z ; CObj::IsRangeObj
  00484	85 c0		 test	 eax, eax
  00486	0f 84 86 00 00
	00		 je	 $LN207@ApplySkill

; 2528 : 			{
; 2529 : 				((CMover*)pObj)->ApplySkill( pAttacker, pSkillProp, pAddSkillProp, vecMonsterSkill[i].bIgnoreSkillProb );

  0048c	8b 45 c0	 mov	 eax, DWORD PTR __Loc$5[ebp+8]
  0048f	8b 4d f8	 mov	 ecx, DWORD PTR _i$1$[ebp]
  00492	6a 01		 push	 1
  00494	6a 00		 push	 0
  00496	8b 40 14	 mov	 eax, DWORD PTR [eax+20]
  00499	6a 00		 push	 0
  0049b	0f b6 44 01 1c	 movzx	 eax, BYTE PTR [ecx+eax+28]
  004a0	8b ce		 mov	 ecx, esi
  004a2	50		 push	 eax
  004a3	ff 75 f0	 push	 DWORD PTR _pAddSkillProp$1$[ebp]
  004a6	8b 45 08	 mov	 eax, DWORD PTR _pAttacker$[ebp]
  004a9	57		 push	 edi
  004aa	50		 push	 eax
  004ab	e8 00 00 00 00	 call	 ?ApplySkill@CCtrl@@QAEXPAV1@PAUItemProp@@PAUAddSkillProp@@_NHHH@Z ; CCtrl::ApplySkill

; 2530 : 				if( pSkillProp->dwSfxObj2 != NULL_ID )

  004b0	8b 87 a8 01 00
	00		 mov	 eax, DWORD PTR [edi+424]
  004b6	83 f8 ff	 cmp	 eax, -1
  004b9	74 28		 je	 SHORT $LN34@ApplySkill

; 2531 : 					g_UserMng.AddCreateSfxObj( (CMover*)pObj, pSkillProp->dwSfxObj2 );

  004bb	6a 00		 push	 0
  004bd	83 ec 0c	 sub	 esp, 12			; 0000000cH
  004c0	b9 00 00 00 00	 mov	 ecx, OFFSET ?g_UserMng@@3VCUserMng@@A ; g_UserMng
  004c5	c7 44 24 08 00
	00 00 00	 mov	 DWORD PTR [esp+8], 0
  004cd	c7 44 24 04 00
	00 00 00	 mov	 DWORD PTR [esp+4], 0
  004d5	c7 04 24 00 00
	00 00		 mov	 DWORD PTR [esp], 0
  004dc	50		 push	 eax
  004dd	56		 push	 esi
  004de	e8 00 00 00 00	 call	 ?AddCreateSfxObj@CUserMng@@QAEXPAVCCtrl@@KMMMH@Z ; CUserMng::AddCreateSfxObj
$LN34@ApplySkill:

; 2532 : 				g_UserMng.AddCreateSfxObj( (CMover*)pObj, pSkillProp->dwSfxObj3 );

  004e3	6a 00		 push	 0
  004e5	83 ec 0c	 sub	 esp, 12			; 0000000cH
  004e8	b9 00 00 00 00	 mov	 ecx, OFFSET ?g_UserMng@@3VCUserMng@@A ; g_UserMng
  004ed	c7 44 24 08 00
	00 00 00	 mov	 DWORD PTR [esp+8], 0
  004f5	c7 44 24 04 00
	00 00 00	 mov	 DWORD PTR [esp+4], 0
  004fd	c7 04 24 00 00
	00 00		 mov	 DWORD PTR [esp], 0
  00504	ff b7 ac 01 00
	00		 push	 DWORD PTR [edi+428]
  0050a	56		 push	 esi
  0050b	e8 00 00 00 00	 call	 ?AddCreateSfxObj@CUserMng@@QAEXPAVCCtrl@@KMMMH@Z ; CUserMng::AddCreateSfxObj
  00510	8b df		 mov	 ebx, edi
$LN207@ApplySkill:

; 2533 : 			}
; 2534 : 		}
; 2535 : 		END_LINKMAP

  00512	8b 4d 0c	 mov	 ecx, DWORD PTR ___limit$1$[ebp]
$LN33@ApplySkill:
  00515	8b b6 80 01 00
	00		 mov	 esi, DWORD PTR [esi+384]
  0051b	85 f6		 test	 esi, esi
  0051d	0f 85 ef fe ff
	ff		 jne	 $LL14@ApplySkill
$LN206@ApplySkill:
  00523	8b 55 ec	 mov	 edx, DWORD PTR tv1613[ebp]
  00526	8b 45 e8	 mov	 eax, DWORD PTR tv1644[ebp]
  00529	89 5d 0c	 mov	 DWORD PTR $T7[ebp], ebx
$LN11@ApplySkill:

; 2524 : 		FOR_LINKMAP( pAttacker->GetWorld(), pAttacker->GetPos(), pObj, vecMonsterSkill[i].nRange, CObj::linkPlayer, pAttacker->GetLayer() )

  0052c	83 c2 04	 add	 edx, 4
  0052f	83 e8 01	 sub	 eax, 1
  00532	89 55 ec	 mov	 DWORD PTR tv1613[ebp], edx
  00535	89 45 e8	 mov	 DWORD PTR tv1644[ebp], eax
  00538	0f 85 c2 fe ff
	ff		 jne	 $LL13@ApplySkill
  0053e	8b 55 e0	 mov	 edx, DWORD PTR __nLinkZMax$1$[ebp]
  00541	8b 45 dc	 mov	 eax, DWORD PTR $T6[ebp]
  00544	8b 4d e4	 mov	 ecx, DWORD PTR __k$1$[ebp]
  00547	8b 7d d0	 mov	 edi, DWORD PTR tv1637[ebp]
  0054a	8b 5d f4	 mov	 ebx, DWORD PTR __nMaxWidth$1$[ebp]
$LN8@ApplySkill:
  0054d	83 ea 01	 sub	 edx, 1
  00550	8d 04 03	 lea	 eax, DWORD PTR [ebx+eax]
  00553	89 55 e0	 mov	 DWORD PTR __nLinkZMax$1$[ebp], edx
  00556	89 45 dc	 mov	 DWORD PTR $T6[ebp], eax
  00559	0f 85 86 fe ff
	ff		 jne	 $LL10@ApplySkill
$LN5@ApplySkill:
  0055f	8b 5d 08	 mov	 ebx, DWORD PTR _pAttacker$[ebp]
  00562	8b 7d d8	 mov	 edi, DWORD PTR __i$1$[ebp]
  00565	47		 inc	 edi
  00566	89 7d d8	 mov	 DWORD PTR __i$1$[ebp], edi
  00569	ff b3 b8 01 00
	00		 push	 DWORD PTR [ebx+440]
  0056f	8b 8b 6c 01 00
	00		 mov	 ecx, DWORD PTR [ebx+364]
  00575	6a 02		 push	 2
  00577	83 c1 24	 add	 ecx, 36			; 00000024H
  0057a	e8 00 00 00 00	 call	 ?GetMaxLinkLevel@CLayeredLinkMap@@QAEHKH@Z ; CLayeredLinkMap::GetMaxLinkLevel
  0057f	3b f8		 cmp	 edi, eax
  00581	0f 8c 09 fd ff
	ff		 jl	 $LL7@ApplySkill
  00587	8b 75 0c	 mov	 esi, DWORD PTR $T7[ebp]
$LN6@ApplySkill:

; 2536 : 	}
; 2537 : 
; 2538 : 	//РЇПЁМ­ ЙщОїЧиЕа НКХГ СіМгНУАЃРЛ ЕЧЕЙИАДй.
; 2539 : 	pSkillProp->dwReferTarget1 = dwReferTarget1Backup;

  0058a	8b 45 cc	 mov	 eax, DWORD PTR _dwReferTarget1Backup$1$[ebp]

; 2540 : 	pSkillProp->dwReferTarget2 = dwReferTarget2Backup;
; 2541 : 	pAddSkillProp->dwSkillTime = dwSkillTimeBackup;

  0058d	8b 4d c4	 mov	 ecx, DWORD PTR _dwSkillTimeBackup$1$[ebp]
  00590	89 86 d8 01 00
	00		 mov	 DWORD PTR [esi+472], eax
  00596	8b 45 c8	 mov	 eax, DWORD PTR _dwReferTarget2Backup$1$[ebp]
  00599	89 86 dc 01 00
	00		 mov	 DWORD PTR [esi+476], eax
  0059f	8b 45 f0	 mov	 eax, DWORD PTR _pAddSkillProp$1$[ebp]
  005a2	5f		 pop	 edi

; 2544 : }

  005a3	5e		 pop	 esi
  005a4	5b		 pop	 ebx
  005a5	89 48 70	 mov	 DWORD PTR [eax+112], ecx
  005a8	b8 01 00 00 00	 mov	 eax, 1
  005ad	8b e5		 mov	 esp, ebp
  005af	5d		 pop	 ebp
  005b0	c2 0c 00	 ret	 12			; 0000000cH
$LN71@ApplySkill:
; File C:\IAGOS\server\v18\Source\Source\_Common\Project.h

; 579  : 	LPCTSTR szErr = Error( _T( "%s min:%d, max:%d, index:%d" ), szMsg, nMin, nMax, nIndex ); 

  005b3	52		 push	 edx
  005b4	50		 push	 eax
  005b5	6a 00		 push	 0
  005b7	68 00 00 00 00	 push	 OFFSET ??_C@_0BJ@GPNGCFMK@GetSkillProp?5range_error@
  005bc	68 00 00 00 00	 push	 OFFSET ??_C@_0BM@HMFGHCP@?$CFs?5min?3?$CFd?0?5max?3?$CFd?0?5index?3?$CFd@
  005c1	e8 00 00 00 00	 call	 ?Error@@YAPBDPBDZZ	; Error
  005c6	83 c4 14	 add	 esp, 20			; 00000014H
$LN17@ApplySkill:
  005c9	5f		 pop	 edi
; File C:\IAGOS\server\v18\Source\Source\_aiinterface\aimonster.cpp

; 2544 : }

  005ca	5e		 pop	 esi
  005cb	33 c0		 xor	 eax, eax
  005cd	5b		 pop	 ebx
  005ce	8b e5		 mov	 esp, ebp
  005d0	5d		 pop	 ebp
  005d1	c2 0c 00	 ret	 12			; 0000000cH
?ApplySkill@CMonsterSkill@@QAEHPAVCMover@@0K@Z ENDP	; CMonsterSkill::ApplySkill
_TEXT	ENDS
; Function compile flags: /Ogtp
; File C:\IAGOS\server\v18\Source\Source\_aiinterface\aimonster.cpp
; File C:\Program Files\Microsoft Visual Studio\2022\Professional\VC\Tools\MSVC\14.44.35207\include\xtree
; File C:\IAGOS\server\v18\Source\Source\_aiinterface\aimonster.cpp
; File C:\Program Files\Microsoft Visual Studio\2022\Professional\VC\Tools\MSVC\14.44.35207\include\xtree
; File C:\Program Files\Microsoft Visual Studio\2022\Professional\VC\Tools\MSVC\14.44.35207\include\type_traits
; File C:\Program Files\Microsoft Visual Studio\2022\Professional\VC\Tools\MSVC\14.44.35207\include\xtree
; File C:\IAGOS\server\v18\Source\Source\_aiinterface\aimonster.cpp
; File C:\Program Files\Microsoft Visual Studio\2022\Professional\VC\Tools\MSVC\14.44.35207\include\vector
; File C:\IAGOS\server\v18\Source\Source\_aiinterface\aimonster.cpp
; File C:\Program Files\Microsoft Visual Studio\2022\Professional\VC\Tools\MSVC\14.44.35207\include\vector
; File C:\IAGOS\server\v18\Source\Source\_aiinterface\aimonster.cpp
; File C:\Program Files\Microsoft Visual Studio\2022\Professional\VC\Tools\MSVC\14.44.35207\include\vector
; File C:\IAGOS\server\v18\Source\Source\_aiinterface\aimonster.cpp
;	COMDAT ?GetMonsterSkillLevel@CMonsterSkill@@QAEKPAVCMover@@K@Z
_TEXT	SEGMENT
__Loc$1 = -12						; size = 12
_pAttacker$ = 8						; size = 4
_dwSkillId$ = 12					; size = 4
?GetMonsterSkillLevel@CMonsterSkill@@QAEKPAVCMover@@K@Z PROC ; CMonsterSkill::GetMonsterSkillLevel, COMDAT
; _this$ = ecx

; 2445 : {

  00000	55		 push	 ebp
  00001	8b ec		 mov	 ebp, esp
  00003	83 ec 0c	 sub	 esp, 12			; 0000000cH
  00006	56		 push	 esi

; 2446 : 	MAPMONSTERSKILL::iterator it = m_mapMonsterSkill.find( pAttacker->m_dwIndex );

  00007	8b 75 08	 mov	 esi, DWORD PTR _pAttacker$[ebp]
; File C:\Program Files\Microsoft Visual Studio\2022\Professional\VC\Tools\MSVC\14.44.35207\include\xtree

; 1384 :         const _Tree_find_result<_Nodeptr> _Loc = _Find_lower_bound(_Keyval);

  0000a	8d 45 f4	 lea	 eax, DWORD PTR __Loc$1[ebp]
; File C:\IAGOS\server\v18\Source\Source\_aiinterface\aimonster.cpp

; 2445 : {

  0000d	57		 push	 edi

; 2446 : 	MAPMONSTERSKILL::iterator it = m_mapMonsterSkill.find( pAttacker->m_dwIndex );

  0000e	81 c6 74 01 00
	00		 add	 esi, 372		; 00000174H
  00014	8b f9		 mov	 edi, ecx
; File C:\Program Files\Microsoft Visual Studio\2022\Professional\VC\Tools\MSVC\14.44.35207\include\xtree

; 1384 :         const _Tree_find_result<_Nodeptr> _Loc = _Find_lower_bound(_Keyval);

  00016	56		 push	 esi
  00017	50		 push	 eax
  00018	e8 00 00 00 00	 call	 ??$_Find_lower_bound@K@?$_Tree@V?$_Tmap_traits@KV?$vector@U__MONSTERSKILL@@V?$allocator@U__MONSTERSKILL@@@std@@@std@@U?$less@K@2@V?$allocator@U?$pair@$$CBKV?$vector@U__MONSTERSKILL@@V?$allocator@U__MONSTERSKILL@@@std@@@std@@@std@@@2@$0A@@std@@@std@@IBE?AU?$_Tree_find_result@PAU?$_Tree_node@U?$pair@$$CBKV?$vector@U__MONSTERSKILL@@V?$allocator@U__MONSTERSKILL@@@std@@@std@@@std@@PAX@std@@@1@ABK@Z ; std::_Tree<std::_Tmap_traits<unsigned long,std::vector<__MONSTERSKILL,std::allocator<__MONSTERSKILL> >,std::less<unsigned long>,std::allocator<std::pair<unsigned long const ,std::vector<__MONSTERSKILL,std::allocator<__MONSTERSKILL> > > >,0> >::_Find_lower_bound<unsigned long>

; 1624 :         return !_Bound->_Isnil && !_DEBUG_LT_PRED(_Getcomp(), _Keyval, _Traits::_Kfn(_Bound->_Myval));

  0001d	8b 55 fc	 mov	 edx, DWORD PTR __Loc$1[ebp+8]
  00020	80 7a 0d 00	 cmp	 BYTE PTR [edx+13], 0
  00024	75 2e		 jne	 SHORT $LN3@GetMonster
; File C:\Program Files\Microsoft Visual Studio\2022\Professional\VC\Tools\MSVC\14.44.35207\include\type_traits

; 2380 :         return _Left < _Right;

  00026	8b 06		 mov	 eax, DWORD PTR [esi]
  00028	3b 42 10	 cmp	 eax, DWORD PTR [edx+16]
; File C:\Program Files\Microsoft Visual Studio\2022\Professional\VC\Tools\MSVC\14.44.35207\include\xtree

; 1624 :         return !_Bound->_Isnil && !_DEBUG_LT_PRED(_Getcomp(), _Keyval, _Traits::_Kfn(_Bound->_Myval));

  0002b	72 27		 jb	 SHORT $LN3@GetMonster

; 37   :     _Tree_unchecked_const_iterator(_Nodeptr _Pnode, const _Mytree* _Plist) noexcept : _Ptr(_Pnode) {

  0002d	3b 17		 cmp	 edx, DWORD PTR [edi]
; File C:\IAGOS\server\v18\Source\Source\_aiinterface\aimonster.cpp

; 2447 : 	if( it == m_mapMonsterSkill.end() )

  0002f	74 23		 je	 SHORT $LN3@GetMonster
; File C:\Program Files\Microsoft Visual Studio\2022\Professional\VC\Tools\MSVC\14.44.35207\include\vector

; 1915 :         return static_cast<size_type>(_My_data._Mylast - _My_data._Myfirst);

  00031	8b 7a 14	 mov	 edi, DWORD PTR [edx+20]
; File C:\IAGOS\server\v18\Source\Source\_aiinterface\aimonster.cpp

; 2451 : 	for( int i=0; i<(int)( vecMonsterSkill.size() ); i++ )

  00034	33 c0		 xor	 eax, eax
; File C:\Program Files\Microsoft Visual Studio\2022\Professional\VC\Tools\MSVC\14.44.35207\include\vector

; 1915 :         return static_cast<size_type>(_My_data._Mylast - _My_data._Myfirst);

  00036	8b 52 18	 mov	 edx, DWORD PTR [edx+24]
  00039	2b d7		 sub	 edx, edi
  0003b	c1 fa 05	 sar	 edx, 5
; File C:\IAGOS\server\v18\Source\Source\_aiinterface\aimonster.cpp

; 2451 : 	for( int i=0; i<(int)( vecMonsterSkill.size() ); i++ )

  0003e	85 d2		 test	 edx, edx
  00040	7e 12		 jle	 SHORT $LN3@GetMonster
  00042	8b 75 0c	 mov	 esi, DWORD PTR _dwSkillId$[ebp]
  00045	8d 4f 04	 lea	 ecx, DWORD PTR [edi+4]
$LL4@GetMonster:

; 2452 : 	{
; 2453 : 		if( vecMonsterSkill[i].dwSkillID == dwSkillId )

  00048	39 31		 cmp	 DWORD PTR [ecx], esi
  0004a	74 12		 je	 SHORT $LN63@GetMonster

; 2451 : 	for( int i=0; i<(int)( vecMonsterSkill.size() ); i++ )

  0004c	40		 inc	 eax
  0004d	83 c1 20	 add	 ecx, 32			; 00000020H
  00050	3b c2		 cmp	 eax, edx
  00052	7c f4		 jl	 SHORT $LL4@GetMonster
$LN3@GetMonster:
  00054	5f		 pop	 edi

; 2455 : 	}
; 2456 : 
; 2457 : 	return 0;

  00055	33 c0		 xor	 eax, eax

; 2458 : }

  00057	5e		 pop	 esi
  00058	8b e5		 mov	 esp, ebp
  0005a	5d		 pop	 ebp
  0005b	c2 08 00	 ret	 8
$LN63@GetMonster:
; File C:\Program Files\Microsoft Visual Studio\2022\Professional\VC\Tools\MSVC\14.44.35207\include\vector

; 1934 :         return _My_data._Myfirst[_Pos];

  0005e	c1 e0 05	 shl	 eax, 5
; File C:\IAGOS\server\v18\Source\Source\_aiinterface\aimonster.cpp

; 2454 : 			return vecMonsterSkill[i].dwSkillLV;

  00061	8b 44 38 08	 mov	 eax, DWORD PTR [eax+edi+8]
  00065	5f		 pop	 edi

; 2458 : }

  00066	5e		 pop	 esi
  00067	8b e5		 mov	 esp, ebp
  00069	5d		 pop	 ebp
  0006a	c2 08 00	 ret	 8
?GetMonsterSkillLevel@CMonsterSkill@@QAEKPAVCMover@@K@Z ENDP ; CMonsterSkill::GetMonsterSkillLevel
_TEXT	ENDS
; Function compile flags: /Ogtp
; File C:\IAGOS\server\v18\Source\Source\_aiinterface\aimonster.cpp
; File C:\Program Files\Microsoft Visual Studio\2022\Professional\VC\Tools\MSVC\14.44.35207\include\xtree
; File C:\IAGOS\server\v18\Source\Source\_aiinterface\aimonster.cpp
; File C:\Program Files\Microsoft Visual Studio\2022\Professional\VC\Tools\MSVC\14.44.35207\include\vector
; File C:\Program Files\Microsoft Visual Studio\2022\Professional\VC\Tools\MSVC\14.44.35207\include\xtree
; File C:\IAGOS\server\v18\Source\Source\_aiinterface\aimonster.cpp
; File C:\Program Files\Microsoft Visual Studio\2022\Professional\VC\Tools\MSVC\14.44.35207\include\xtree
; File C:\IAGOS\server\v18\Source\Source\_aiinterface\aimonster.cpp
;	COMDAT ?Clear@CMonsterSkill@@QAEXXZ
_TEXT	SEGMENT
?Clear@CMonsterSkill@@QAEXXZ PROC			; CMonsterSkill::Clear, COMDAT
; _this$ = ecx

; 2380 : {

  00000	56		 push	 esi
  00001	57		 push	 edi
  00002	8b f9		 mov	 edi, ecx
; File C:\Program Files\Microsoft Visual Studio\2022\Professional\VC\Tools\MSVC\14.44.35207\include\xtree

; 1142 :         return iterator(_Scary->_Myhead->_Left, _Scary);

  00004	8b 37		 mov	 esi, DWORD PTR [edi]

; 37   :     _Tree_unchecked_const_iterator(_Nodeptr _Pnode, const _Mytree* _Plist) noexcept : _Ptr(_Pnode) {

  00006	8b 06		 mov	 eax, DWORD PTR [esi]

; 237  :         return !(*this == _Right);

  00008	3b c6		 cmp	 eax, esi
; File C:\IAGOS\server\v18\Source\Source\_aiinterface\aimonster.cpp

; 2381 : 	for( MAPMONSTERSKILL::iterator it=m_mapMonsterSkill.begin(); it!=m_mapMonsterSkill.end(); it++ )

  0000a	74 56		 je	 SHORT $LN3@Clear
  0000c	0f 1f 40 00	 npad	 4
$LL4@Clear:
; File C:\Program Files\Microsoft Visual Studio\2022\Professional\VC\Tools\MSVC\14.44.35207\include\vector

; 1812 :         if (_Myfirst == _Mylast) { // already empty, nothing to do

  00010	8b 48 14	 mov	 ecx, DWORD PTR [eax+20]
  00013	3b 48 18	 cmp	 ecx, DWORD PTR [eax+24]
  00016	74 03		 je	 SHORT $LN2@Clear

; 1813 :             // This is an optimization for debug mode: we can avoid taking the debug lock to invalidate iterators.
; 1814 :             // Note that when clearing an empty vector, this will preserve past-the-end iterators, which is allowed by
; 1815 :             // N4950 [sequence.reqmts]/54 "a.clear() [...] may invalidate the past-the-end iterator".
; 1816 :             return;
; 1817 :         }
; 1818 : 
; 1819 :         _My_data._Orphan_all();
; 1820 :         _Destroy_range(_Myfirst, _Mylast, _Getal());
; 1821 :         _ASAN_VECTOR_MODIFY(static_cast<difference_type>(_Myfirst - _Mylast)); // negative when destroying elements
; 1822 :         _Mylast = _Myfirst;

  00018	89 48 18	 mov	 DWORD PTR [eax+24], ecx
$LN2@Clear:
; File C:\Program Files\Microsoft Visual Studio\2022\Professional\VC\Tools\MSVC\14.44.35207\include\xtree

; 50   :         if (_Ptr->_Right->_Isnil) { // climb looking for right subtree

  0001b	8b 48 08	 mov	 ecx, DWORD PTR [eax+8]
  0001e	80 79 0d 00	 cmp	 BYTE PTR [ecx+13], 0
  00022	74 20		 je	 SHORT $LN27@Clear

; 51   :             _Nodeptr _Pnode;
; 52   :             while (!(_Pnode = _Ptr->_Parent)->_Isnil && _Ptr == _Pnode->_Right) {

  00024	8b 48 04	 mov	 ecx, DWORD PTR [eax+4]
  00027	80 79 0d 00	 cmp	 BYTE PTR [ecx+13], 0
  0002b	75 13		 jne	 SHORT $LN82@Clear
  0002d	0f 1f 00	 npad	 3
$LL25@Clear:
  00030	3b 41 08	 cmp	 eax, DWORD PTR [ecx+8]
  00033	75 0b		 jne	 SHORT $LN82@Clear

; 53   :                 _Ptr = _Pnode; // ==> parent while right subtree

  00035	8b c1		 mov	 eax, ecx
  00037	8b 49 04	 mov	 ecx, DWORD PTR [ecx+4]
  0003a	80 79 0d 00	 cmp	 BYTE PTR [ecx+13], 0
  0003e	74 f0		 je	 SHORT $LL25@Clear
$LN82@Clear:

; 54   :             }
; 55   : 
; 56   :             _Ptr = _Pnode; // ==> parent (head if end())

  00040	8b c1		 mov	 eax, ecx

; 57   :         } else {

  00042	eb 18		 jmp	 SHORT $LN33@Clear
$LN27@Clear:

; 58   :             _Ptr = _Mytree::_Min(_Ptr->_Right); // ==> smallest of right subtree

  00044	8b c1		 mov	 eax, ecx

; 476  :         while (!_Pnode->_Left->_Isnil) {

  00046	8b 10		 mov	 edx, DWORD PTR [eax]
  00048	80 7a 0d 00	 cmp	 BYTE PTR [edx+13], 0
  0004c	75 0e		 jne	 SHORT $LN33@Clear
  0004e	66 90		 npad	 2
$LL32@Clear:
  00050	8b 0a		 mov	 ecx, DWORD PTR [edx]

; 477  :             _Pnode = _Pnode->_Left;

  00052	8b c2		 mov	 eax, edx
  00054	8b d1		 mov	 edx, ecx
  00056	80 79 0d 00	 cmp	 BYTE PTR [ecx+13], 0
  0005a	74 f4		 je	 SHORT $LL32@Clear
$LN33@Clear:

; 37   :     _Tree_unchecked_const_iterator(_Nodeptr _Pnode, const _Mytree* _Plist) noexcept : _Ptr(_Pnode) {

  0005c	8b 37		 mov	 esi, DWORD PTR [edi]

; 237  :         return !(*this == _Right);

  0005e	3b c6		 cmp	 eax, esi
; File C:\IAGOS\server\v18\Source\Source\_aiinterface\aimonster.cpp

; 2381 : 	for( MAPMONSTERSKILL::iterator it=m_mapMonsterSkill.begin(); it!=m_mapMonsterSkill.end(); it++ )

  00060	75 ae		 jne	 SHORT $LL4@Clear
$LN3@Clear:
; File C:\Program Files\Microsoft Visual Studio\2022\Professional\VC\Tools\MSVC\14.44.35207\include\xtree

; 1374 :         _Scary->_Erase_tree(_Getal(), _Head->_Parent);

  00062	ff 76 04	 push	 DWORD PTR [esi+4]
  00065	8b cf		 mov	 ecx, edi
  00067	57		 push	 edi
  00068	e8 00 00 00 00	 call	 ??$_Erase_tree@V?$allocator@U?$_Tree_node@U?$pair@$$CBKV?$vector@U__MONSTERSKILL@@V?$allocator@U__MONSTERSKILL@@@std@@@std@@@std@@PAX@std@@@std@@@?$_Tree_val@U?$_Tree_simple_types@U?$pair@$$CBKV?$vector@U__MONSTERSKILL@@V?$allocator@U__MONSTERSKILL@@@std@@@std@@@std@@@std@@@std@@QAEXAAV?$allocator@U?$_Tree_node@U?$pair@$$CBKV?$vector@U__MONSTERSKILL@@V?$allocator@U__MONSTERSKILL@@@std@@@std@@@std@@PAX@std@@@1@PAU?$_Tree_node@U?$pair@$$CBKV?$vector@U__MONSTERSKILL@@V?$allocator@U__MONSTERSKILL@@@std@@@std@@@std@@PAX@1@@Z ; std::_Tree_val<std::_Tree_simple_types<std::pair<unsigned long const ,std::vector<__MONSTERSKILL,std::allocator<__MONSTERSKILL> > > > >::_Erase_tree<std::allocator<std::_Tree_node<std::pair<unsigned long const ,std::vector<__MONSTERSKILL,std::allocator<__MONSTERSKILL> > >,void *> > >

; 1375 :         _Head->_Parent  = _Head;

  0006d	89 76 04	 mov	 DWORD PTR [esi+4], esi

; 1376 :         _Head->_Left    = _Head;

  00070	89 36		 mov	 DWORD PTR [esi], esi

; 1377 :         _Head->_Right   = _Head;

  00072	89 76 08	 mov	 DWORD PTR [esi+8], esi

; 1378 :         _Scary->_Mysize = 0;

  00075	c7 47 04 00 00
	00 00		 mov	 DWORD PTR [edi+4], 0
  0007c	5f		 pop	 edi
  0007d	5e		 pop	 esi
; File C:\IAGOS\server\v18\Source\Source\_aiinterface\aimonster.cpp

; 2385 : }

  0007e	c3		 ret	 0
?Clear@CMonsterSkill@@QAEXXZ ENDP			; CMonsterSkill::Clear
_TEXT	ENDS
; Function compile flags: /Ogtp
; File C:\IAGOS\server\v18\Source\Source\_aiinterface\aimonster.cpp
; File C:\IAGOS\server\v18\Source\Source\_Common\LuaBase.h
; File C:\IAGOS\server\v18\Source\Source\_aiinterface\aimonster.cpp
; File C:\Program Files\Microsoft Visual Studio\2022\Professional\VC\Tools\MSVC\14.44.35207\include\vector
; File C:\IAGOS\server\v18\Source\Source\_Common\LuaBase.h
; File C:\IAGOS\server\v18\Source\Source\_aiinterface\aimonster.cpp
; File C:\IAGOS\server\v18\Source\Source\_Common\LuaBase.h
; File C:\IAGOS\server\v18\Source\Source\_aiinterface\aimonster.cpp
; File C:\IAGOS\server\v18\Source\Source\_Common\Project.h
; File C:\IAGOS\server\v18\Source\Source\_aiinterface\aimonster.cpp
; File C:\IAGOS\server\v18\Source\Source\_Common\Project.h
; File C:\IAGOS\server\v18\Source\Source\_Common\data.h
; File C:\IAGOS\server\v18\Source\Source\_aiinterface\aimonster.cpp
; File C:\IAGOS\server\v18\Source\Source\_Common\Project.h
; File C:\IAGOS\server\v18\Source\Source\_aiinterface\aimonster.cpp
; File C:\Program Files\Microsoft Visual Studio\2022\Professional\VC\Tools\MSVC\14.44.35207\include\vector
; File C:\Program Files\Microsoft Visual Studio\2022\Professional\VC\Tools\MSVC\14.44.35207\include\xutility
; File C:\Program Files\Microsoft Visual Studio\2022\Professional\VC\Tools\MSVC\14.44.35207\include\vector
; File C:\IAGOS\server\v18\Source\Source\_aiinterface\aimonster.cpp
; File C:\IAGOS\server\v18\Source\Source\_Common\LuaBase.h
; File C:\IAGOS\server\v18\Source\Source\_aiinterface\aimonster.cpp
; File C:\Program Files\Microsoft Visual Studio\2022\Professional\VC\Tools\MSVC\14.44.35207\include\utility
; File C:\Program Files\Microsoft Visual Studio\2022\Professional\VC\Tools\MSVC\14.44.35207\include\vector
; File C:\Program Files\Microsoft Visual Studio\2022\Professional\VC\Tools\MSVC\14.44.35207\include\utility
; File C:\Program Files\Microsoft Visual Studio\2022\Professional\VC\Tools\MSVC\14.44.35207\include\vector
; File C:\Program Files\Microsoft Visual Studio\2022\Professional\VC\Tools\MSVC\14.44.35207\include\xmemory
; File C:\Program Files\Microsoft Visual Studio\2022\Professional\VC\Tools\MSVC\14.44.35207\include\vector
; File C:\Program Files\Microsoft Visual Studio\2022\Professional\VC\Tools\MSVC\14.44.35207\include\xmemory
; File C:\Program Files\Microsoft Visual Studio\2022\Professional\VC\Tools\MSVC\14.44.35207\include\vector
; File C:\Program Files\Microsoft Visual Studio\2022\Professional\VC\Tools\MSVC\14.44.35207\include\xmemory
; File C:\Program Files\Microsoft Visual Studio\2022\Professional\VC\Tools\MSVC\14.44.35207\include\vector
; File C:\Program Files\Microsoft Visual Studio\2022\Professional\VC\Tools\MSVC\14.44.35207\include\xtree
; File C:\IAGOS\server\v18\Source\Source\_aiinterface\aimonster.cpp
; File C:\Program Files\Microsoft Visual Studio\2022\Professional\VC\Tools\MSVC\14.44.35207\include\xtree
; File C:\Program Files\Microsoft Visual Studio\2022\Professional\VC\Tools\MSVC\14.44.35207\include\type_traits
; File C:\Program Files\Microsoft Visual Studio\2022\Professional\VC\Tools\MSVC\14.44.35207\include\xtree
; File C:\Program Files\Microsoft Visual Studio\2022\Professional\VC\Tools\MSVC\14.44.35207\include\xmemory
; File C:\Program Files\Microsoft Visual Studio\2022\Professional\VC\Tools\MSVC\14.44.35207\include\xtree
; File C:\Program Files\Microsoft Visual Studio\2022\Professional\VC\Tools\MSVC\14.44.35207\include\xmemory
; File C:\Program Files\Microsoft Visual Studio\2022\Professional\VC\Tools\MSVC\14.44.35207\include\xtree
; File C:\Program Files\Microsoft Visual Studio\2022\Professional\VC\Tools\MSVC\14.44.35207\include\xmemory
; File C:\Program Files\Microsoft Visual Studio\2022\Professional\VC\Tools\MSVC\14.44.35207\include\utility
; File C:\Program Files\Microsoft Visual Studio\2022\Professional\VC\Tools\MSVC\14.44.35207\include\xmemory
; File C:\Program Files\Microsoft Visual Studio\2022\Professional\VC\Tools\MSVC\14.44.35207\include\utility
; File C:\Program Files\Microsoft Visual Studio\2022\Professional\VC\Tools\MSVC\14.44.35207\include\vector
; File C:\Program Files\Microsoft Visual Studio\2022\Professional\VC\Tools\MSVC\14.44.35207\include\utility
; File C:\Program Files\Microsoft Visual Studio\2022\Professional\VC\Tools\MSVC\14.44.35207\include\vector
; File C:\Program Files\Microsoft Visual Studio\2022\Professional\VC\Tools\MSVC\14.44.35207\include\xtree
; File C:\Program Files\Microsoft Visual Studio\2022\Professional\VC\Tools\MSVC\14.44.35207\include\vector
; File C:\Program Files\Microsoft Visual Studio\2022\Professional\VC\Tools\MSVC\14.44.35207\include\xtree
; File C:\Program Files\Microsoft Visual Studio\2022\Professional\VC\Tools\MSVC\14.44.35207\include\utility
; File C:\Program Files\Microsoft Visual Studio\2022\Professional\VC\Tools\MSVC\14.44.35207\include\xtree
; File C:\IAGOS\server\v18\Source\Source\_aiinterface\aimonster.cpp
; File C:\Program Files\Microsoft Visual Studio\2022\Professional\VC\Tools\MSVC\14.44.35207\include\vector
; File C:\Program Files\Microsoft Visual Studio\2022\Professional\VC\Tools\MSVC\14.44.35207\include\xmemory
; File C:\Program Files\Microsoft Visual Studio\2022\Professional\VC\Tools\MSVC\14.44.35207\include\vector
; File C:\Program Files\Microsoft Visual Studio\2022\Professional\VC\Tools\MSVC\14.44.35207\include\xmemory
; File C:\Program Files\Microsoft Visual Studio\2022\Professional\VC\Tools\MSVC\14.44.35207\include\vector
; File C:\IAGOS\server\v18\Source\Source\_aiinterface\aimonster.cpp
; File C:\Program Files\Microsoft Visual Studio\2022\Professional\VC\Tools\MSVC\14.44.35207\include\vector
; File C:\IAGOS\server\v18\Source\Source\_aiinterface\aimonster.cpp
; File C:\Program Files\Microsoft Visual Studio\2022\Professional\VC\Tools\MSVC\14.44.35207\include\vector
; File C:\Program Files\Microsoft Visual Studio\2022\Professional\VC\Tools\MSVC\14.44.35207\include\xmemory
; File C:\Program Files\Microsoft Visual Studio\2022\Professional\VC\Tools\MSVC\14.44.35207\include\vector
; File C:\Program Files\Microsoft Visual Studio\2022\Professional\VC\Tools\MSVC\14.44.35207\include\xmemory
; File C:\Program Files\Microsoft Visual Studio\2022\Professional\VC\Tools\MSVC\14.44.35207\include\vector
; File C:\IAGOS\server\v18\Source\Source\_Common\LuaBase.h
; File C:\IAGOS\server\v18\Source\Source\_aiinterface\aimonster.cpp
; File C:\Program Files\Microsoft Visual Studio\2022\Professional\VC\Tools\MSVC\14.44.35207\include\xtree
; File C:\IAGOS\server\v18\Source\Source\_aiinterface\aimonster.cpp
; File C:\Program Files\Microsoft Visual Studio\2022\Professional\VC\Tools\MSVC\14.44.35207\include\vector
; File C:\Program Files\Microsoft Visual Studio\2022\Professional\VC\Tools\MSVC\14.44.35207\include\xmemory
; File C:\IAGOS\server\v18\Source\Source\_aiinterface\aimonster.cpp
;	COMDAT ?LoadScript@CMonsterSkill@@QAEXXZ
_TEXT	SEGMENT
_monsterSkill$2 = -140					; size = 32
$T3 = -108						; size = 16
$T4 = -92						; size = 12
__Loc$5 = -80						; size = 12
_vecMonsterSkill$6 = -68				; size = 12
$T7 = -56						; size = 8
_Lua$ = -48						; size = 8
tv1467 = -40						; size = 8
tv1471 = -40						; size = 8
tv1475 = -40						; size = 8
tv1479 = -40						; size = 8
tv1486 = -40						; size = 8
tv1493 = -40						; size = 8
__Old_val$1$ = -36					; size = 4
_this$1$ = -32						; size = 4
__UFirst$1$ = -28					; size = 4
__ULast$1$ = -24					; size = 4
__Bytes$1$ = -20					; size = 4
_dwMonsterId$1$ = -16					; size = 4
__$EHRec$ = -12						; size = 12
?LoadScript@CMonsterSkill@@QAEXXZ PROC			; CMonsterSkill::LoadScript, COMDAT
; _this$ = ecx

; 2395 : {

  00000	55		 push	 ebp
  00001	8b ec		 mov	 ebp, esp
  00003	6a ff		 push	 -1
  00005	68 00 00 00 00	 push	 __ehhandler$?LoadScript@CMonsterSkill@@QAEXXZ
  0000a	64 a1 00 00 00
	00		 mov	 eax, DWORD PTR fs:0
  00010	50		 push	 eax
  00011	81 ec 80 00 00
	00		 sub	 esp, 128		; 00000080H
  00017	56		 push	 esi
  00018	57		 push	 edi
  00019	a1 00 00 00 00	 mov	 eax, DWORD PTR ___security_cookie
  0001e	33 c5		 xor	 eax, ebp
  00020	50		 push	 eax
  00021	8d 45 f4	 lea	 eax, DWORD PTR __$EHRec$[ebp]
  00024	64 a3 00 00 00
	00		 mov	 DWORD PTR fs:0, eax
  0002a	89 4d e0	 mov	 DWORD PTR _this$1$[ebp], ecx

; 2396 : 	CLuaBase Lua;

  0002d	8d 4d d0	 lea	 ecx, DWORD PTR _Lua$[ebp]
  00030	e8 00 00 00 00	 call	 ??0CLuaBase@@QAE@XZ	; CLuaBase::CLuaBase

; 2397 : 
; 2398 : 	if( Lua.RunScript( "MonsterSkill.lua" ) != 0 )

  00035	68 00 00 00 00	 push	 OFFSET ??_C@_0BB@MKLOFGLI@MonsterSkill?4lua@
  0003a	8d 4d d0	 lea	 ecx, DWORD PTR _Lua$[ebp]
  0003d	c7 45 fc 00 00
	00 00		 mov	 DWORD PTR __$EHRec$[ebp+8], 0
  00044	e8 00 00 00 00	 call	 ?RunScript@CLuaBase@@QAEHPBD@Z ; CLuaBase::RunScript
  00049	85 c0		 test	 eax, eax
  0004b	0f 85 33 04 00
	00		 jne	 $LN330@LoadScript
; File C:\IAGOS\server\v18\Source\Source\_Common\LuaBase.h

; 47   : 	void		GetGloabal( char* szName )					{  lua_getglobal( m_pLuaState, szName );  }

  00051	68 00 00 00 00	 push	 OFFSET ??_C@_0O@IGNMFEAI@tMonsterSkill@
  00056	ff 75 d4	 push	 DWORD PTR _Lua$[ebp+4]
  00059	e8 00 00 00 00	 call	 _lua_getglobal

; 40   : 	void		PushNil()									{  lua_pushnil( m_pLuaState );  }

  0005e	ff 75 d4	 push	 DWORD PTR _Lua$[ebp+4]
  00061	e8 00 00 00 00	 call	 _lua_pushnil

; 46   : 	int			TableLoop( int nStackPos )					{  return lua_next( m_pLuaState, nStackPos );  }	

  00066	6a fe		 push	 -2			; fffffffeH
  00068	ff 75 d4	 push	 DWORD PTR _Lua$[ebp+4]
  0006b	e8 00 00 00 00	 call	 _lua_next
  00070	83 c4 14	 add	 esp, 20			; 00000014H
; File C:\IAGOS\server\v18\Source\Source\_aiinterface\aimonster.cpp

; 2406 : 	while( Lua.TableLoop( -2 ) )

  00073	85 c0		 test	 eax, eax
  00075	0f 84 e1 03 00
	00		 je	 $LN3@LoadScript
  0007b	0f 1f 44 00 00	 npad	 5
$LL2@LoadScript:

; 2407 : 	{
; 2408 : 		DWORD dwMonsterId = CScript::GetDefineNum( Lua.GetFieldToString( -1, "strMonsterId" ) );

  00080	68 00 00 00 00	 push	 OFFSET ??_C@_0N@PIEFIFMF@strMonsterId@
  00085	6a ff		 push	 -1
  00087	8d 4d d0	 lea	 ecx, DWORD PTR _Lua$[ebp]
  0008a	e8 00 00 00 00	 call	 ?GetFieldToString@CLuaBase@@QAEPBDHPAD@Z ; CLuaBase::GetFieldToString
  0008f	50		 push	 eax
  00090	e8 00 00 00 00	 call	 ?GetDefineNum@CScript@@SAHPBD@Z ; CScript::GetDefineNum
  00095	89 45 f0	 mov	 DWORD PTR _dwMonsterId$1$[ebp], eax
; File C:\Program Files\Microsoft Visual Studio\2022\Professional\VC\Tools\MSVC\14.44.35207\include\vector

; 400  :     _CONSTEXPR20 _Vector_val() noexcept : _Myfirst(), _Mylast(), _Myend() {}

  00098	c7 45 bc 00 00
	00 00		 mov	 DWORD PTR _vecMonsterSkill$6[ebp], 0
  0009f	c7 45 c0 00 00
	00 00		 mov	 DWORD PTR _vecMonsterSkill$6[ebp+4], 0
  000a6	c7 45 c4 00 00
	00 00		 mov	 DWORD PTR _vecMonsterSkill$6[ebp+8], 0
; File C:\IAGOS\server\v18\Source\Source\_Common\LuaBase.h

; 51   : 	void		GetField( int nStackPos, char* szName )		{  lua_getfield( m_pLuaState, nStackPos, szName );  }

  000ad	68 00 00 00 00	 push	 OFFSET ??_C@_06NAOHEGNK@tSkill@
  000b2	6a ff		 push	 -1
  000b4	ff 75 d4	 push	 DWORD PTR _Lua$[ebp+4]
; File C:\IAGOS\server\v18\Source\Source\_aiinterface\aimonster.cpp

; 2409 : 		vector<__MONSTERSKILL> vecMonsterSkill;

  000b7	c6 45 fc 01	 mov	 BYTE PTR __$EHRec$[ebp+8], 1
; File C:\IAGOS\server\v18\Source\Source\_Common\LuaBase.h

; 51   : 	void		GetField( int nStackPos, char* szName )		{  lua_getfield( m_pLuaState, nStackPos, szName );  }

  000bb	e8 00 00 00 00	 call	 _lua_getfield

; 40   : 	void		PushNil()									{  lua_pushnil( m_pLuaState );  }

  000c0	ff 75 d4	 push	 DWORD PTR _Lua$[ebp+4]
  000c3	e8 00 00 00 00	 call	 _lua_pushnil

; 46   : 	int			TableLoop( int nStackPos )					{  return lua_next( m_pLuaState, nStackPos );  }	

  000c8	6a fe		 push	 -2			; fffffffeH
  000ca	ff 75 d4	 push	 DWORD PTR _Lua$[ebp+4]
  000cd	e8 00 00 00 00	 call	 _lua_next
  000d2	83 c4 1c	 add	 esp, 28			; 0000001cH
; File C:\IAGOS\server\v18\Source\Source\_aiinterface\aimonster.cpp

; 2414 : 		while( Lua.TableLoop( -2 ) )

  000d5	85 c0		 test	 eax, eax
  000d7	0f 84 9a 01 00
	00		 je	 $LN5@LoadScript
  000dd	0f 1f 00	 npad	 3
$LL4@LoadScript:

; 2415 : 		{
; 2416 : 			__MONSTERSKILL monsterSkill;
; 2417 : 			monsterSkill.nAtkMethod	= static_cast<int>( Lua.GetFieldToNumber( -1, "nAtkMethod" ) );

  000e0	68 00 00 00 00	 push	 OFFSET ??_C@_0L@KFDIAIK@nAtkMethod@
  000e5	6a ff		 push	 -1
  000e7	8d 4d d0	 lea	 ecx, DWORD PTR _Lua$[ebp]
  000ea	e8 00 00 00 00	 call	 ?GetFieldToNumber@CLuaBase@@QAENHPAD@Z ; CLuaBase::GetFieldToNumber
  000ef	dd 5d d8	 fstp	 QWORD PTR tv1493[ebp]
  000f2	f2 0f 2c 45 d8	 cvttsd2si eax, QWORD PTR tv1493[ebp]

; 2418 : 			monsterSkill.dwSkillID	= CScript::GetDefineNum( Lua.GetFieldToString( -1, "strSkillId" ) );

  000f7	68 00 00 00 00	 push	 OFFSET ??_C@_0L@PMEEMMOD@strSkillId@
  000fc	6a ff		 push	 -1
  000fe	8d 4d d0	 lea	 ecx, DWORD PTR _Lua$[ebp]
  00101	89 85 74 ff ff
	ff		 mov	 DWORD PTR _monsterSkill$2[ebp], eax
  00107	e8 00 00 00 00	 call	 ?GetFieldToString@CLuaBase@@QAEPBDHPAD@Z ; CLuaBase::GetFieldToString
  0010c	50		 push	 eax
  0010d	e8 00 00 00 00	 call	 ?GetDefineNum@CScript@@SAHPBD@Z ; CScript::GetDefineNum
  00112	83 c4 04	 add	 esp, 4

; 2419 : 			monsterSkill.dwSkillLV	= static_cast<DWORD>( Lua.GetFieldToNumber( -1, "dwSkillLv" ) );

  00115	8d 4d d0	 lea	 ecx, DWORD PTR _Lua$[ebp]
  00118	8b f0		 mov	 esi, eax
  0011a	89 b5 78 ff ff
	ff		 mov	 DWORD PTR _monsterSkill$2[ebp+4], esi
  00120	68 00 00 00 00	 push	 OFFSET ??_C@_09IPFHBE@dwSkillLv@
  00125	6a ff		 push	 -1
  00127	e8 00 00 00 00	 call	 ?GetFieldToNumber@CLuaBase@@QAENHPAD@Z ; CLuaBase::GetFieldToNumber
  0012c	dd 5d d8	 fstp	 QWORD PTR tv1486[ebp]
  0012f	f2 0f 10 45 d8	 movsd	 xmm0, QWORD PTR tv1486[ebp]
  00134	e8 00 00 00 00	 call	 __dtol3

; 2420 : 			monsterSkill.nHitCount	= static_cast<int>( Lua.GetFieldToNumber( -1, "nHitCount" ) );

  00139	68 00 00 00 00	 push	 OFFSET ??_C@_09KGMHNPNF@nHitCount@
  0013e	8b f8		 mov	 edi, eax
  00140	8d 4d d0	 lea	 ecx, DWORD PTR _Lua$[ebp]
  00143	6a ff		 push	 -1
  00145	89 bd 7c ff ff
	ff		 mov	 DWORD PTR _monsterSkill$2[ebp+8], edi
  0014b	e8 00 00 00 00	 call	 ?GetFieldToNumber@CLuaBase@@QAENHPAD@Z ; CLuaBase::GetFieldToNumber
  00150	dd 5d d8	 fstp	 QWORD PTR tv1479[ebp]
  00153	f2 0f 2c 45 d8	 cvttsd2si eax, QWORD PTR tv1479[ebp]

; 2421 : 			monsterSkill.nRange = static_cast<int>( Lua.GetFieldToNumber( -1, "nRange" ) );

  00158	68 00 00 00 00	 push	 OFFSET ??_C@_06NCOFCCEP@nRange@
  0015d	6a ff		 push	 -1
  0015f	8d 4d d0	 lea	 ecx, DWORD PTR _Lua$[ebp]
  00162	89 45 80	 mov	 DWORD PTR _monsterSkill$2[ebp+12], eax
  00165	e8 00 00 00 00	 call	 ?GetFieldToNumber@CLuaBase@@QAENHPAD@Z ; CLuaBase::GetFieldToNumber
  0016a	dd 5d d8	 fstp	 QWORD PTR tv1475[ebp]
  0016d	f2 0f 2c 45 d8	 cvttsd2si eax, QWORD PTR tv1475[ebp]

; 2422 : 			monsterSkill.nApplyProbabilty = static_cast<int>( Lua.GetFieldToNumber( -1, "nProb" ) );

  00172	68 00 00 00 00	 push	 OFFSET ??_C@_05JBKGBCJC@nProb@
  00177	6a ff		 push	 -1
  00179	8d 4d d0	 lea	 ecx, DWORD PTR _Lua$[ebp]
  0017c	89 45 84	 mov	 DWORD PTR _monsterSkill$2[ebp+16], eax
  0017f	e8 00 00 00 00	 call	 ?GetFieldToNumber@CLuaBase@@QAENHPAD@Z ; CLuaBase::GetFieldToNumber
  00184	dd 5d d8	 fstp	 QWORD PTR tv1471[ebp]
  00187	f2 0f 2c 45 d8	 cvttsd2si eax, QWORD PTR tv1471[ebp]

; 2423 : 			monsterSkill.dwSkillTime = static_cast<DWORD>( Lua.GetFieldToNumber( -1, "dwSkillTime" ) );

  0018c	68 00 00 00 00	 push	 OFFSET ??_C@_0M@NLMOEPJG@dwSkillTime@
  00191	6a ff		 push	 -1
  00193	8d 4d d0	 lea	 ecx, DWORD PTR _Lua$[ebp]
  00196	89 45 88	 mov	 DWORD PTR _monsterSkill$2[ebp+20], eax
  00199	e8 00 00 00 00	 call	 ?GetFieldToNumber@CLuaBase@@QAENHPAD@Z ; CLuaBase::GetFieldToNumber
  0019e	dd 5d d8	 fstp	 QWORD PTR tv1467[ebp]
  001a1	f2 0f 10 45 d8	 movsd	 xmm0, QWORD PTR tv1467[ebp]
  001a6	e8 00 00 00 00	 call	 __dtol3

; 2424 : 			monsterSkill.bIgnoreSkillProb = Lua.GetFieldToBool( -1, "bIgnore" ) ? true : false;

  001ab	68 00 00 00 00	 push	 OFFSET ??_C@_07MGMJIFLN@bIgnore@
  001b0	6a ff		 push	 -1
  001b2	8d 4d d0	 lea	 ecx, DWORD PTR _Lua$[ebp]
  001b5	89 45 8c	 mov	 DWORD PTR _monsterSkill$2[ebp+24], eax
  001b8	e8 00 00 00 00	 call	 ?GetFieldToBool@CLuaBase@@QAEHHPAD@Z ; CLuaBase::GetFieldToBool
  001bd	85 c0		 test	 eax, eax
; File C:\IAGOS\server\v18\Source\Source\_Common\Project.h

; 1395 : 	VERIFY_RANGE( nIndex, 0, m_aPropSkill.GetSize(), "GetSkillProp range_error", NULL );

  001bf	a1 64 02 00 00	 mov	 eax, DWORD PTR ?prj@@3VCProject@@A+612
; File C:\IAGOS\server\v18\Source\Source\_aiinterface\aimonster.cpp

; 2424 : 			monsterSkill.bIgnoreSkillProb = Lua.GetFieldToBool( -1, "bIgnore" ) ? true : false;

  001c4	0f 95 45 90	 setne	 BYTE PTR _monsterSkill$2[ebp+28]
; File C:\IAGOS\server\v18\Source\Source\_Common\Project.h

; 1395 : 	VERIFY_RANGE( nIndex, 0, m_aPropSkill.GetSize(), "GetSkillProp range_error", NULL );

  001c8	85 f6		 test	 esi, esi
  001ca	78 25		 js	 SHORT $LN41@LoadScript
  001cc	3b f0		 cmp	 esi, eax
  001ce	7d 21		 jge	 SHORT $LN41@LoadScript
; File C:\IAGOS\server\v18\Source\Source\_Common\data.h

; 270  : 	if( dwIndex >= (DWORD)m_nMaxIndex )

  001d0	72 04		 jb	 SHORT $LN46@LoadScript

; 271  : 		return NULL;

  001d2	33 c0		 xor	 eax, eax
  001d4	eb 08		 jmp	 SHORT $LN45@LoadScript
$LN46@LoadScript:

; 272  : 	return (T*) m_apOffset[ dwIndex ];

  001d6	a1 54 02 00 00	 mov	 eax, DWORD PTR ?prj@@3VCProject@@A+596
  001db	8b 04 b0	 mov	 eax, DWORD PTR [eax+esi*4]
$LN45@LoadScript:
; File C:\IAGOS\server\v18\Source\Source\_aiinterface\aimonster.cpp

; 2427 : 			if( !pSkillProp || monsterSkill.dwSkillLV < 1	|| monsterSkill.dwSkillLV > pSkillProp->dwExpertMax )

  001de	85 c0		 test	 eax, eax
  001e0	74 25		 je	 SHORT $LN8@LoadScript
  001e2	83 ff 01	 cmp	 edi, 1
  001e5	72 20		 jb	 SHORT $LN8@LoadScript
  001e7	3b b8 0c 02 00
	00		 cmp	 edi, DWORD PTR [eax+524]
  001ed	76 39		 jbe	 SHORT $LN7@LoadScript
  001ef	eb 16		 jmp	 SHORT $LN8@LoadScript
$LN41@LoadScript:
; File C:\IAGOS\server\v18\Source\Source\_Common\Project.h

; 579  : 	LPCTSTR szErr = Error( _T( "%s min:%d, max:%d, index:%d" ), szMsg, nMin, nMax, nIndex ); 

  001f1	56		 push	 esi
  001f2	50		 push	 eax
  001f3	6a 00		 push	 0
  001f5	68 00 00 00 00	 push	 OFFSET ??_C@_0BJ@GPNGCFMK@GetSkillProp?5range_error@
  001fa	68 00 00 00 00	 push	 OFFSET ??_C@_0BM@HMFGHCP@?$CFs?5min?3?$CFd?0?5max?3?$CFd?0?5index?3?$CFd@
  001ff	e8 00 00 00 00	 call	 ?Error@@YAPBDPBDZZ	; Error
  00204	83 c4 14	 add	 esp, 20			; 00000014H
$LN8@LoadScript:
; File C:\IAGOS\server\v18\Source\Source\_aiinterface\aimonster.cpp

; 2429 : 				Error( "Out of Skill Level Range -> CMonsterSkill::LoadScript() - %d, %s, %d", dwMonsterId, Lua.GetFieldToString( -1, "strSkillId" ), monsterSkill.dwSkillLV );

  00207	57		 push	 edi
  00208	68 00 00 00 00	 push	 OFFSET ??_C@_0L@PMEEMMOD@strSkillId@
  0020d	6a ff		 push	 -1
  0020f	8d 4d d0	 lea	 ecx, DWORD PTR _Lua$[ebp]
  00212	e8 00 00 00 00	 call	 ?GetFieldToString@CLuaBase@@QAEPBDHPAD@Z ; CLuaBase::GetFieldToString
  00217	50		 push	 eax
  00218	ff 75 f0	 push	 DWORD PTR _dwMonsterId$1$[ebp]
  0021b	68 00 00 00 00	 push	 OFFSET ??_C@_0EF@PCDPMBLE@Out?5of?5Skill?5Level?5Range?5?9?$DO?5CMo@
  00220	e8 00 00 00 00	 call	 ?Error@@YAPBDPBDZZ	; Error
  00225	83 c4 10	 add	 esp, 16			; 00000010H
$LN7@LoadScript:
; File C:\Program Files\Microsoft Visual Studio\2022\Professional\VC\Tools\MSVC\14.44.35207\include\vector

; 844  :         if (_Mylast != _My_data._Myend) {

  00228	8b 45 c0	 mov	 eax, DWORD PTR _vecMonsterSkill$6[ebp+4]
  0022b	3b 45 c4	 cmp	 eax, DWORD PTR _vecMonsterSkill$6[ebp+8]
  0022e	74 18		 je	 SHORT $LN51@LoadScript
; File C:\Program Files\Microsoft Visual Studio\2022\Professional\VC\Tools\MSVC\14.44.35207\include\xutility

; 476  :         ::new (static_cast<void*>(_STD addressof(_Obj))) _Ty(_STD forward<_Types>(_Args)...);

  00230	0f 10 85 74 ff
	ff ff		 movups	 xmm0, XMMWORD PTR _monsterSkill$2[ebp]
  00237	0f 11 00	 movups	 XMMWORD PTR [eax], xmm0
  0023a	0f 10 45 84	 movups	 xmm0, XMMWORD PTR _monsterSkill$2[ebp+16]
  0023e	0f 11 40 10	 movups	 XMMWORD PTR [eax+16], xmm0
; File C:\Program Files\Microsoft Visual Studio\2022\Professional\VC\Tools\MSVC\14.44.35207\include\vector

; 869  :         ++_Mylast;

  00242	83 45 c0 20	 add	 DWORD PTR _vecMonsterSkill$6[ebp+4], 32 ; 00000020H

; 845  :             return _Emplace_back_with_unused_capacity(_STD forward<_Valty>(_Val)...);

  00246	eb 10		 jmp	 SHORT $LN50@LoadScript
$LN51@LoadScript:

; 846  :         }
; 847  : 
; 848  :         return *_Emplace_reallocate(_Mylast, _STD forward<_Valty>(_Val)...);

  00248	8d 8d 74 ff ff
	ff		 lea	 ecx, DWORD PTR _monsterSkill$2[ebp]
  0024e	51		 push	 ecx
  0024f	50		 push	 eax
  00250	8d 4d bc	 lea	 ecx, DWORD PTR _vecMonsterSkill$6[ebp]
  00253	e8 00 00 00 00	 call	 ??$_Emplace_reallocate@ABU__MONSTERSKILL@@@?$vector@U__MONSTERSKILL@@V?$allocator@U__MONSTERSKILL@@@std@@@std@@AAEPAU__MONSTERSKILL@@QAU2@ABU2@@Z ; std::vector<__MONSTERSKILL,std::allocator<__MONSTERSKILL> >::_Emplace_reallocate<__MONSTERSKILL const &>
$LN50@LoadScript:
; File C:\IAGOS\server\v18\Source\Source\_aiinterface\aimonster.cpp

; 2434 : 			Lua.Pop( 1 );

  00258	6a 01		 push	 1
  0025a	8d 4d d0	 lea	 ecx, DWORD PTR _Lua$[ebp]
  0025d	e8 00 00 00 00	 call	 ?Pop@CLuaBase@@QAEXH@Z	; CLuaBase::Pop
; File C:\IAGOS\server\v18\Source\Source\_Common\LuaBase.h

; 46   : 	int			TableLoop( int nStackPos )					{  return lua_next( m_pLuaState, nStackPos );  }	

  00262	6a fe		 push	 -2			; fffffffeH
  00264	ff 75 d4	 push	 DWORD PTR _Lua$[ebp+4]
  00267	e8 00 00 00 00	 call	 _lua_next
  0026c	83 c4 08	 add	 esp, 8
; File C:\IAGOS\server\v18\Source\Source\_aiinterface\aimonster.cpp

; 2414 : 		while( Lua.TableLoop( -2 ) )

  0026f	85 c0		 test	 eax, eax
  00271	0f 85 69 fe ff
	ff		 jne	 $LL4@LoadScript
$LN5@LoadScript:
; File C:\Program Files\Microsoft Visual Studio\2022\Professional\VC\Tools\MSVC\14.44.35207\include\utility

; 274  :         : first(_STD forward<_Other1>(_Val1)), second(_STD forward<_Other2>(_Val2)) {

  00277	8b 45 f0	 mov	 eax, DWORD PTR _dwMonsterId$1$[ebp]
; File C:\Program Files\Microsoft Visual Studio\2022\Professional\VC\Tools\MSVC\14.44.35207\include\vector

; 400  :     _CONSTEXPR20 _Vector_val() noexcept : _Myfirst(), _Mylast(), _Myend() {}

  0027a	33 f6		 xor	 esi, esi

; 748  :         const auto _Count       = static_cast<size_type>(_Right_data._Mylast - _Right_data._Myfirst);

  0027c	8b 4d bc	 mov	 ecx, DWORD PTR _vecMonsterSkill$6[ebp]

; 400  :     _CONSTEXPR20 _Vector_val() noexcept : _Myfirst(), _Mylast(), _Myend() {}

  0027f	33 ff		 xor	 edi, edi
; File C:\Program Files\Microsoft Visual Studio\2022\Professional\VC\Tools\MSVC\14.44.35207\include\utility

; 274  :         : first(_STD forward<_Other1>(_Val1)), second(_STD forward<_Other2>(_Val2)) {

  00281	89 45 94	 mov	 DWORD PTR $T3[ebp], eax
; File C:\Program Files\Microsoft Visual Studio\2022\Professional\VC\Tools\MSVC\14.44.35207\include\vector

; 400  :     _CONSTEXPR20 _Vector_val() noexcept : _Myfirst(), _Mylast(), _Myend() {}

  00284	33 c0		 xor	 eax, eax
  00286	89 75 ec	 mov	 DWORD PTR __Bytes$1$[ebp], esi
  00289	89 75 a0	 mov	 DWORD PTR $T3[ebp+12], esi
  0028c	89 45 dc	 mov	 DWORD PTR __Old_val$1$[ebp], eax
  0028f	89 45 9c	 mov	 DWORD PTR $T3[ebp+8], eax

; 748  :         const auto _Count       = static_cast<size_type>(_Right_data._Mylast - _Right_data._Myfirst);

  00292	8b 45 c0	 mov	 eax, DWORD PTR _vecMonsterSkill$6[ebp+4]
  00295	8b f0		 mov	 esi, eax
  00297	2b f1		 sub	 esi, ecx

; 400  :     _CONSTEXPR20 _Vector_val() noexcept : _Myfirst(), _Mylast(), _Myend() {}

  00299	89 7d 98	 mov	 DWORD PTR $T3[ebp+4], edi

; 748  :         const auto _Count       = static_cast<size_type>(_Right_data._Mylast - _Right_data._Myfirst);

  0029c	c1 fe 05	 sar	 esi, 5
  0029f	89 45 e8	 mov	 DWORD PTR __ULast$1$[ebp], eax
  002a2	89 4d e4	 mov	 DWORD PTR __UFirst$1$[ebp], ecx

; 2111 :         if (_Count != 0) {

  002a5	85 f6		 test	 esi, esi
  002a7	74 62		 je	 SHORT $LN114@LoadScript

; 2051 :         if (_Newcapacity > max_size()) {

  002a9	81 fe ff ff ff
	07		 cmp	 esi, 134217727		; 07ffffffH
  002af	0f 87 e3 01 00
	00		 ja	 $LN313@LoadScript
; File C:\Program Files\Microsoft Visual Studio\2022\Professional\VC\Tools\MSVC\14.44.35207\include\xmemory

; 122  :     return _Count * _Ty_size;

  002b5	c1 e6 05	 shl	 esi, 5

; 227  :     if (_Bytes == 0) {

  002b8	85 f6		 test	 esi, esi
  002ba	74 26		 je	 SHORT $LN90@LoadScript
$LN91@LoadScript:

; 228  :         return nullptr;
; 229  :     }
; 230  : 
; 231  : #if _HAS_CXX20 // TRANSITION, GH-1532
; 232  :     if (_STD is_constant_evaluated()) {
; 233  :         return _Traits::_Allocate(_Bytes);
; 234  :     }
; 235  : #endif // _HAS_CXX20
; 236  : 
; 237  : #ifdef __cpp_aligned_new
; 238  :     if constexpr (_Align > __STDCPP_DEFAULT_NEW_ALIGNMENT__) {
; 239  :         size_t _Passed_align = _Align;
; 240  : #if defined(_M_IX86) || defined(_M_X64)
; 241  :         if (_Bytes >= _Big_allocation_threshold) {
; 242  :             // boost the alignment of big allocations to help autovectorization
; 243  :             _Passed_align = (_STD max)(_Align, _Big_allocation_alignment);
; 244  :         }
; 245  : #endif // defined(_M_IX86) || defined(_M_X64)
; 246  :         return _Traits::_Allocate_aligned(_Bytes, _Passed_align);
; 247  :     } else
; 248  : #endif // defined(__cpp_aligned_new)
; 249  :     {
; 250  : #if defined(_M_IX86) || defined(_M_X64)
; 251  :         if (_Bytes >= _Big_allocation_threshold) {

  002bc	56		 push	 esi
  002bd	81 fe 00 10 00
	00		 cmp	 esi, 4096		; 00001000H
  002c3	72 07		 jb	 SHORT $LN92@LoadScript

; 252  :             // boost the alignment of big allocations to help autovectorization
; 253  :             return _Allocate_manually_vector_aligned<_Traits>(_Bytes);

  002c5	e8 00 00 00 00	 call	 ??$_Allocate_manually_vector_aligned@U_Default_allocate_traits@std@@@std@@YAPAXI@Z ; std::_Allocate_manually_vector_aligned<std::_Default_allocate_traits>
  002ca	eb 05		 jmp	 SHORT $LN328@LoadScript
$LN92@LoadScript:

; 136  :         return ::operator new(_Bytes);

  002cc	e8 00 00 00 00	 call	 ??2@YAPAXI@Z		; operator new
$LN328@LoadScript:
; File C:\Program Files\Microsoft Visual Studio\2022\Professional\VC\Tools\MSVC\14.44.35207\include\vector

; 2035 :         _Myfirst              = _Newvec;

  002d1	8b 4d bc	 mov	 ecx, DWORD PTR _vecMonsterSkill$6[ebp]
  002d4	8b f8		 mov	 edi, eax
  002d6	8b 45 c0	 mov	 eax, DWORD PTR _vecMonsterSkill$6[ebp+4]
  002d9	83 c4 04	 add	 esp, 4
  002dc	89 4d e4	 mov	 DWORD PTR __UFirst$1$[ebp], ecx
  002df	89 45 e8	 mov	 DWORD PTR __ULast$1$[ebp], eax
$LN90@LoadScript:

; 2037 :         _Myend                = _Newvec + _Newcapacity;

  002e2	8d 04 3e	 lea	 eax, DWORD PTR [esi+edi]
  002e5	89 7d 98	 mov	 DWORD PTR $T3[ebp+4], edi
; File C:\Program Files\Microsoft Visual Studio\2022\Professional\VC\Tools\MSVC\14.44.35207\include\xmemory

; 1889 :                 _STD _Copy_memmove(_STD _To_address(_UFirst), _STD _To_address(_ULast), _STD _Unfancy(_Dest));

  002e8	8b 75 e8	 mov	 esi, DWORD PTR __ULast$1$[ebp]
  002eb	57		 push	 edi
  002ec	56		 push	 esi
  002ed	51		 push	 ecx
; File C:\Program Files\Microsoft Visual Studio\2022\Professional\VC\Tools\MSVC\14.44.35207\include\vector

; 2037 :         _Myend                = _Newvec + _Newcapacity;

  002ee	89 45 ec	 mov	 DWORD PTR __Bytes$1$[ebp], eax
  002f1	89 45 a0	 mov	 DWORD PTR $T3[ebp+12], eax
; File C:\Program Files\Microsoft Visual Studio\2022\Professional\VC\Tools\MSVC\14.44.35207\include\xmemory

; 1889 :                 _STD _Copy_memmove(_STD _To_address(_UFirst), _STD _To_address(_ULast), _STD _Unfancy(_Dest));

  002f4	e8 00 00 00 00	 call	 ??$_Copy_memmove@PAU__MONSTERSKILL@@PAU1@@std@@YAPAU__MONSTERSKILL@@PAU1@00@Z ; std::_Copy_memmove<__MONSTERSKILL *,__MONSTERSKILL *>

; 1890 :                 _Dest += _ULast - _UFirst;

  002f9	2b 75 e4	 sub	 esi, DWORD PTR __UFirst$1$[ebp]
  002fc	83 c4 0c	 add	 esp, 12			; 0000000cH
  002ff	83 e6 e0	 and	 esi, -32		; ffffffe0H
  00302	8d 04 3e	 lea	 eax, DWORD PTR [esi+edi]
  00305	89 45 dc	 mov	 DWORD PTR __Old_val$1$[ebp], eax
; File C:\Program Files\Microsoft Visual Studio\2022\Professional\VC\Tools\MSVC\14.44.35207\include\vector

; 2120 :                 _My_data._Mylast = _STD _Uninitialized_copy(_STD forward<_Valty>(_Val)..., _My_data._Myfirst, _Al);

  00308	89 45 9c	 mov	 DWORD PTR $T3[ebp+8], eax
$LN114@LoadScript:
; File C:\Program Files\Microsoft Visual Studio\2022\Professional\VC\Tools\MSVC\14.44.35207\include\xtree

; 1017 :             _Loc                = _Find_lower_bound(_Keyval);

  0030b	8b 75 e0	 mov	 esi, DWORD PTR _this$1$[ebp]
  0030e	8d 45 94	 lea	 eax, DWORD PTR $T3[ebp]
  00311	50		 push	 eax
  00312	8d 45 a4	 lea	 eax, DWORD PTR $T4[ebp]
; File C:\IAGOS\server\v18\Source\Source\_aiinterface\aimonster.cpp

; 2437 : 		m_mapMonsterSkill.insert( make_pair( dwMonsterId, vecMonsterSkill ) );

  00315	c6 45 fc 02	 mov	 BYTE PTR __$EHRec$[ebp+8], 2
; File C:\Program Files\Microsoft Visual Studio\2022\Professional\VC\Tools\MSVC\14.44.35207\include\xtree

; 1017 :             _Loc                = _Find_lower_bound(_Keyval);

  00319	50		 push	 eax
  0031a	8b ce		 mov	 ecx, esi
  0031c	e8 00 00 00 00	 call	 ??$_Find_lower_bound@K@?$_Tree@V?$_Tmap_traits@KV?$vector@U__MONSTERSKILL@@V?$allocator@U__MONSTERSKILL@@@std@@@std@@U?$less@K@2@V?$allocator@U?$pair@$$CBKV?$vector@U__MONSTERSKILL@@V?$allocator@U__MONSTERSKILL@@@std@@@std@@@std@@@2@$0A@@std@@@std@@IBE?AU?$_Tree_find_result@PAU?$_Tree_node@U?$pair@$$CBKV?$vector@U__MONSTERSKILL@@V?$allocator@U__MONSTERSKILL@@@std@@@std@@@std@@PAX@std@@@1@ABK@Z ; std::_Tree<std::_Tmap_traits<unsigned long,std::vector<__MONSTERSKILL,std::allocator<__MONSTERSKILL> >,std::less<unsigned long>,std::allocator<std::pair<unsigned long const ,std::vector<__MONSTERSKILL,std::allocator<__MONSTERSKILL> > > >,0> >::_Find_lower_bound<unsigned long>
  00321	8b 48 08	 mov	 ecx, DWORD PTR [eax+8]
  00324	f3 0f 7e 00	 movq	 xmm0, QWORD PTR [eax]
  00328	66 0f d6 45 b0	 movq	 QWORD PTR __Loc$5[ebp], xmm0

; 1624 :         return !_Bound->_Isnil && !_DEBUG_LT_PRED(_Getcomp(), _Keyval, _Traits::_Kfn(_Bound->_Myval));

  0032d	80 79 0d 00	 cmp	 BYTE PTR [ecx+13], 0
  00331	75 08		 jne	 SHORT $LN131@LoadScript
; File C:\Program Files\Microsoft Visual Studio\2022\Professional\VC\Tools\MSVC\14.44.35207\include\type_traits

; 2380 :         return _Left < _Right;

  00333	8b 45 f0	 mov	 eax, DWORD PTR _dwMonsterId$1$[ebp]
  00336	3b 41 10	 cmp	 eax, DWORD PTR [ecx+16]
; File C:\Program Files\Microsoft Visual Studio\2022\Professional\VC\Tools\MSVC\14.44.35207\include\xtree

; 1624 :         return !_Bound->_Isnil && !_DEBUG_LT_PRED(_Getcomp(), _Keyval, _Traits::_Kfn(_Bound->_Myval));

  00339	73 69		 jae	 SHORT $LN245@LoadScript
$LN131@LoadScript:

; 1648 :         if (max_size() == _Get_scary()->_Mysize) {

  0033b	81 7e 04 ff ff
	ff 07		 cmp	 DWORD PTR [esi+4], 134217727 ; 07ffffffH
  00342	0f 84 37 01 00
	00		 je	 $LN315@LoadScript
; File C:\Program Files\Microsoft Visual Studio\2022\Professional\VC\Tools\MSVC\14.44.35207\include\xmemory

; 1160 :     _CONSTEXPR20 explicit _Alloc_construct_ptr(_Alloc& _Al_) : _Al(_Al_), _Ptr(nullptr) {}

  00348	8b 45 e0	 mov	 eax, DWORD PTR _this$1$[ebp]
; File C:\Program Files\Microsoft Visual Studio\2022\Professional\VC\Tools\MSVC\14.44.35207\include\xtree

; 1023 :             _Inserted = _Tree_temp_node<_Alnode>(_Getal(), _Scary->_Myhead, _STD forward<_Valtys>(_Vals)...)._Release();

  0034b	8b 36		 mov	 esi, DWORD PTR [esi]
; File C:\Program Files\Microsoft Visual Studio\2022\Professional\VC\Tools\MSVC\14.44.35207\include\xmemory

; 1160 :     _CONSTEXPR20 explicit _Alloc_construct_ptr(_Alloc& _Al_) : _Al(_Al_), _Ptr(nullptr) {}

  0034d	89 45 c8	 mov	 DWORD PTR $T7[ebp], eax

; 136  :         return ::operator new(_Bytes);

  00350	6a 20		 push	 32			; 00000020H
; File C:\Program Files\Microsoft Visual Studio\2022\Professional\VC\Tools\MSVC\14.44.35207\include\xtree

; 808  :     explicit _Tree_temp_node_alloc(_Alnode& _Al_) : _Alloc_construct_ptr<_Alnode>(_Al_) {

  00352	c6 45 fc 03	 mov	 BYTE PTR __$EHRec$[ebp+8], 3
; File C:\Program Files\Microsoft Visual Studio\2022\Professional\VC\Tools\MSVC\14.44.35207\include\xmemory

; 1167 :         _Ptr = nullptr; // if allocate throws, prevents double-free

  00356	c7 45 cc 00 00
	00 00		 mov	 DWORD PTR $T7[ebp+4], 0

; 136  :         return ::operator new(_Bytes);

  0035d	e8 00 00 00 00	 call	 ??2@YAPAXI@Z		; operator new
; File C:\Program Files\Microsoft Visual Studio\2022\Professional\VC\Tools\MSVC\14.44.35207\include\utility

; 303  :         : first(_STD forward<_Other1>(_Right.first)), second(_STD forward<_Other2>(_Right.second)) {}

  00362	8b 4d f0	 mov	 ecx, DWORD PTR _dwMonsterId$1$[ebp]
; File C:\Program Files\Microsoft Visual Studio\2022\Professional\VC\Tools\MSVC\14.44.35207\include\xmemory

; 136  :         return ::operator new(_Bytes);

  00365	83 c4 04	 add	 esp, 4
; File C:\Program Files\Microsoft Visual Studio\2022\Professional\VC\Tools\MSVC\14.44.35207\include\utility

; 773  :     _Ty _Old_val = static_cast<_Ty&&>(_Val);

  00368	8b 55 ec	 mov	 edx, DWORD PTR __Bytes$1$[ebp]

; 303  :         : first(_STD forward<_Other1>(_Right.first)), second(_STD forward<_Other2>(_Right.second)) {}

  0036b	89 48 10	 mov	 DWORD PTR [eax+16], ecx

; 774  :     _Val         = static_cast<_Other&&>(_New_val);

  0036e	33 c9		 xor	 ecx, ecx
  00370	89 4d ec	 mov	 DWORD PTR __Bytes$1$[ebp], ecx
  00373	89 4d 9c	 mov	 DWORD PTR $T3[ebp+8], ecx

; 773  :     _Ty _Old_val = static_cast<_Ty&&>(_Val);

  00376	8b cf		 mov	 ecx, edi
; File C:\Program Files\Microsoft Visual Studio\2022\Professional\VC\Tools\MSVC\14.44.35207\include\vector

; 403  :         : _Myfirst(_First), _Mylast(_Last), _Myend(_End) {}

  00378	89 48 14	 mov	 DWORD PTR [eax+20], ecx
; File C:\Program Files\Microsoft Visual Studio\2022\Professional\VC\Tools\MSVC\14.44.35207\include\utility

; 774  :     _Val         = static_cast<_Other&&>(_New_val);

  0037b	33 ff		 xor	 edi, edi
; File C:\Program Files\Microsoft Visual Studio\2022\Professional\VC\Tools\MSVC\14.44.35207\include\vector

; 403  :         : _Myfirst(_First), _Mylast(_Last), _Myend(_End) {}

  0037d	8b 4d dc	 mov	 ecx, DWORD PTR __Old_val$1$[ebp]
  00380	89 48 18	 mov	 DWORD PTR [eax+24], ecx
; File C:\Program Files\Microsoft Visual Studio\2022\Professional\VC\Tools\MSVC\14.44.35207\include\xtree

; 1042 :         return {_Scary->_Insert_node(_Loc._Location, _Inserted), true};

  00383	8b 4d e0	 mov	 ecx, DWORD PTR _this$1$[ebp]
  00386	50		 push	 eax
  00387	ff 75 b4	 push	 DWORD PTR __Loc$5[ebp+4]
; File C:\Program Files\Microsoft Visual Studio\2022\Professional\VC\Tools\MSVC\14.44.35207\include\vector

; 403  :         : _Myfirst(_First), _Mylast(_Last), _Myend(_End) {}

  0038a	89 50 1c	 mov	 DWORD PTR [eax+28], edx
; File C:\Program Files\Microsoft Visual Studio\2022\Professional\VC\Tools\MSVC\14.44.35207\include\xtree

; 1042 :         return {_Scary->_Insert_node(_Loc._Location, _Inserted), true};

  0038d	ff 75 b0	 push	 DWORD PTR __Loc$5[ebp]

; 831  :         _Construct_in_place(this->_Ptr->_Left, _Myhead);

  00390	89 30		 mov	 DWORD PTR [eax], esi

; 832  :         _Construct_in_place(this->_Ptr->_Parent, _Myhead);

  00392	89 70 04	 mov	 DWORD PTR [eax+4], esi

; 833  :         _Construct_in_place(this->_Ptr->_Right, _Myhead);

  00395	89 70 08	 mov	 DWORD PTR [eax+8], esi

; 834  :         this->_Ptr->_Color = _Red;

  00398	66 89 78 0c	 mov	 WORD PTR [eax+12], di
; File C:\Program Files\Microsoft Visual Studio\2022\Professional\VC\Tools\MSVC\14.44.35207\include\utility

; 774  :     _Val         = static_cast<_Other&&>(_New_val);

  0039c	89 7d cc	 mov	 DWORD PTR $T7[ebp+4], edi
; File C:\Program Files\Microsoft Visual Studio\2022\Professional\VC\Tools\MSVC\14.44.35207\include\xtree

; 1042 :         return {_Scary->_Insert_node(_Loc._Location, _Inserted), true};

  0039f	e8 00 00 00 00	 call	 ?_Insert_node@?$_Tree_val@U?$_Tree_simple_types@U?$pair@$$CBKV?$vector@U__MONSTERSKILL@@V?$allocator@U__MONSTERSKILL@@@std@@@std@@@std@@@std@@@std@@QAEPAU?$_Tree_node@U?$pair@$$CBKV?$vector@U__MONSTERSKILL@@V?$allocator@U__MONSTERSKILL@@@std@@@std@@@std@@PAX@2@U?$_Tree_id@PAU?$_Tree_node@U?$pair@$$CBKV?$vector@U__MONSTERSKILL@@V?$allocator@U__MONSTERSKILL@@@std@@@std@@@std@@PAX@std@@@2@QAU32@@Z ; std::_Tree_val<std::_Tree_simple_types<std::pair<unsigned long const ,std::vector<__MONSTERSKILL,std::allocator<__MONSTERSKILL> > > > >::_Insert_node
$LN245@LoadScript:
; File C:\IAGOS\server\v18\Source\Source\_aiinterface\aimonster.cpp

; 2437 : 		m_mapMonsterSkill.insert( make_pair( dwMonsterId, vecMonsterSkill ) );

  003a4	c6 45 fc 01	 mov	 BYTE PTR __$EHRec$[ebp+8], 1
; File C:\Program Files\Microsoft Visual Studio\2022\Professional\VC\Tools\MSVC\14.44.35207\include\vector

; 2090 :         if (_Myfirst) { // destroy and deallocate old array

  003a8	85 ff		 test	 edi, edi
  003aa	74 45		 je	 SHORT $LN270@LoadScript

; 2093 :             _Al.deallocate(_Myfirst, static_cast<size_type>(_Myend - _Myfirst));

  003ac	8b 4d ec	 mov	 ecx, DWORD PTR __Bytes$1$[ebp]
; File C:\Program Files\Microsoft Visual Studio\2022\Professional\VC\Tools\MSVC\14.44.35207\include\xmemory

; 985  :         _STD _Deallocate<_New_alignof<_Ty>>(_Ptr, sizeof(_Ty) * _Count);

  003af	8b c7		 mov	 eax, edi
; File C:\Program Files\Microsoft Visual Studio\2022\Professional\VC\Tools\MSVC\14.44.35207\include\vector

; 2093 :             _Al.deallocate(_Myfirst, static_cast<size_type>(_Myend - _Myfirst));

  003b1	2b cf		 sub	 ecx, edi
; File C:\Program Files\Microsoft Visual Studio\2022\Professional\VC\Tools\MSVC\14.44.35207\include\xmemory

; 985  :         _STD _Deallocate<_New_alignof<_Ty>>(_Ptr, sizeof(_Ty) * _Count);

  003b3	83 e1 e0	 and	 ecx, -32		; ffffffe0H

; 284  :         if (_Bytes >= _Big_allocation_threshold) {

  003b6	81 f9 00 10 00
	00		 cmp	 ecx, 4096		; 00001000H
  003bc	72 14		 jb	 SHORT $LN283@LoadScript

; 205  :     const uintptr_t _Ptr_container   = _Ptr_user[-1];

  003be	8b 78 fc	 mov	 edi, DWORD PTR [eax-4]
  003c1	83 c1 23	 add	 ecx, 35			; 00000023H
  003c4	2b c7		 sub	 eax, edi

; 219  :     _STL_VERIFY(_Back_shift >= _Min_back_shift && _Back_shift <= _Non_user_size, "invalid argument");

  003c6	83 c0 fc	 add	 eax, -4			; fffffffcH
  003c9	83 f8 1f	 cmp	 eax, 31			; 0000001fH
  003cc	0f 87 cb 00 00
	00		 ja	 $LN318@LoadScript
$LN283@LoadScript:

; 289  :         ::operator delete(_Ptr, _Bytes);

  003d2	51		 push	 ecx
  003d3	57		 push	 edi
  003d4	e8 00 00 00 00	 call	 ??3@YAXPAXI@Z		; operator delete
  003d9	83 c4 08	 add	 esp, 8
; File C:\Program Files\Microsoft Visual Studio\2022\Professional\VC\Tools\MSVC\14.44.35207\include\vector

; 2095 :             _Myfirst = nullptr;

  003dc	c7 45 98 00 00
	00 00		 mov	 DWORD PTR $T3[ebp+4], 0

; 2096 :             _Mylast  = nullptr;

  003e3	c7 45 9c 00 00
	00 00		 mov	 DWORD PTR $T3[ebp+8], 0

; 2097 :             _Myend   = nullptr;

  003ea	c7 45 a0 00 00
	00 00		 mov	 DWORD PTR $T3[ebp+12], 0
$LN270@LoadScript:
; File C:\IAGOS\server\v18\Source\Source\_aiinterface\aimonster.cpp

; 2438 : 		Lua.Pop( 2 );

  003f1	6a 02		 push	 2
  003f3	8d 4d d0	 lea	 ecx, DWORD PTR _Lua$[ebp]
  003f6	e8 00 00 00 00	 call	 ?Pop@CLuaBase@@QAEXH@Z	; CLuaBase::Pop
; File C:\Program Files\Microsoft Visual Studio\2022\Professional\VC\Tools\MSVC\14.44.35207\include\vector

; 2090 :         if (_Myfirst) { // destroy and deallocate old array

  003fb	8b 55 bc	 mov	 edx, DWORD PTR _vecMonsterSkill$6[ebp]
; File C:\IAGOS\server\v18\Source\Source\_aiinterface\aimonster.cpp

; 2439 : 	}

  003fe	c6 45 fc 00	 mov	 BYTE PTR __$EHRec$[ebp+8], 0
; File C:\Program Files\Microsoft Visual Studio\2022\Professional\VC\Tools\MSVC\14.44.35207\include\vector

; 2090 :         if (_Myfirst) { // destroy and deallocate old array

  00402	85 d2		 test	 edx, edx
  00404	74 41		 je	 SHORT $LN293@LoadScript

; 2093 :             _Al.deallocate(_Myfirst, static_cast<size_type>(_Myend - _Myfirst));

  00406	8b 4d c4	 mov	 ecx, DWORD PTR _vecMonsterSkill$6[ebp+8]
; File C:\Program Files\Microsoft Visual Studio\2022\Professional\VC\Tools\MSVC\14.44.35207\include\xmemory

; 985  :         _STD _Deallocate<_New_alignof<_Ty>>(_Ptr, sizeof(_Ty) * _Count);

  00409	8b c2		 mov	 eax, edx
; File C:\Program Files\Microsoft Visual Studio\2022\Professional\VC\Tools\MSVC\14.44.35207\include\vector

; 2093 :             _Al.deallocate(_Myfirst, static_cast<size_type>(_Myend - _Myfirst));

  0040b	2b ca		 sub	 ecx, edx
; File C:\Program Files\Microsoft Visual Studio\2022\Professional\VC\Tools\MSVC\14.44.35207\include\xmemory

; 985  :         _STD _Deallocate<_New_alignof<_Ty>>(_Ptr, sizeof(_Ty) * _Count);

  0040d	83 e1 e0	 and	 ecx, -32		; ffffffe0H

; 284  :         if (_Bytes >= _Big_allocation_threshold) {

  00410	81 f9 00 10 00
	00		 cmp	 ecx, 4096		; 00001000H
  00416	72 10		 jb	 SHORT $LN306@LoadScript

; 205  :     const uintptr_t _Ptr_container   = _Ptr_user[-1];

  00418	8b 50 fc	 mov	 edx, DWORD PTR [eax-4]
  0041b	83 c1 23	 add	 ecx, 35			; 00000023H
  0041e	2b c2		 sub	 eax, edx

; 219  :     _STL_VERIFY(_Back_shift >= _Min_back_shift && _Back_shift <= _Non_user_size, "invalid argument");

  00420	83 c0 fc	 add	 eax, -4			; fffffffcH
  00423	83 f8 1f	 cmp	 eax, 31			; 0000001fH
  00426	77 75		 ja	 SHORT $LN318@LoadScript
$LN306@LoadScript:

; 289  :         ::operator delete(_Ptr, _Bytes);

  00428	51		 push	 ecx
  00429	52		 push	 edx
  0042a	e8 00 00 00 00	 call	 ??3@YAXPAXI@Z		; operator delete
  0042f	83 c4 08	 add	 esp, 8
; File C:\Program Files\Microsoft Visual Studio\2022\Professional\VC\Tools\MSVC\14.44.35207\include\vector

; 2095 :             _Myfirst = nullptr;

  00432	c7 45 bc 00 00
	00 00		 mov	 DWORD PTR _vecMonsterSkill$6[ebp], 0

; 2096 :             _Mylast  = nullptr;

  00439	c7 45 c0 00 00
	00 00		 mov	 DWORD PTR _vecMonsterSkill$6[ebp+4], 0

; 2097 :             _Myend   = nullptr;

  00440	c7 45 c4 00 00
	00 00		 mov	 DWORD PTR _vecMonsterSkill$6[ebp+8], 0
$LN293@LoadScript:
; File C:\IAGOS\server\v18\Source\Source\_Common\LuaBase.h

; 46   : 	int			TableLoop( int nStackPos )					{  return lua_next( m_pLuaState, nStackPos );  }	

  00447	6a fe		 push	 -2			; fffffffeH
  00449	ff 75 d4	 push	 DWORD PTR _Lua$[ebp+4]
  0044c	e8 00 00 00 00	 call	 _lua_next
  00451	83 c4 08	 add	 esp, 8
; File C:\IAGOS\server\v18\Source\Source\_aiinterface\aimonster.cpp

; 2406 : 	while( Lua.TableLoop( -2 ) )

  00454	85 c0		 test	 eax, eax
  00456	0f 85 24 fc ff
	ff		 jne	 $LL2@LoadScript
$LN3@LoadScript:

; 2440 : 
; 2441 : 	Lua.Pop(0);

  0045c	6a 00		 push	 0
  0045e	8d 4d d0	 lea	 ecx, DWORD PTR _Lua$[ebp]
  00461	e8 00 00 00 00	 call	 ?Pop@CLuaBase@@QAEXH@Z	; CLuaBase::Pop

; 2442 : }

  00466	8d 4d d0	 lea	 ecx, DWORD PTR _Lua$[ebp]
  00469	e8 00 00 00 00	 call	 ??1CLuaBase@@UAE@XZ	; CLuaBase::~CLuaBase
  0046e	8b 4d f4	 mov	 ecx, DWORD PTR __$EHRec$[ebp]
  00471	64 89 0d 00 00
	00 00		 mov	 DWORD PTR fs:0, ecx
  00478	59		 pop	 ecx
  00479	5f		 pop	 edi
  0047a	5e		 pop	 esi
  0047b	8b e5		 mov	 esp, ebp
  0047d	5d		 pop	 ebp
  0047e	c3		 ret	 0
$LN315@LoadScript:
; File C:\Program Files\Microsoft Visual Studio\2022\Professional\VC\Tools\MSVC\14.44.35207\include\xtree

; 1649 :             _Throw_tree_length_error();

  0047f	e8 00 00 00 00	 call	 ?_Throw_tree_length_error@std@@YAXXZ ; std::_Throw_tree_length_error
$LN330@LoadScript:
; File C:\IAGOS\server\v18\Source\Source\_aiinterface\aimonster.cpp

; 2400 : 		Error( "MonsterSkill.lua Run Failed!!!" );

  00484	68 00 00 00 00	 push	 OFFSET ??_C@_0BP@NFKMDA@MonsterSkill?4lua?5Run?5Failed?$CB?$CB?$CB@
  00489	e8 00 00 00 00	 call	 ?Error@@YAPBDPBDZZ	; Error
  0048e	83 c4 04	 add	 esp, 4

; 2401 : 		exit(0);

  00491	6a 00		 push	 0
  00493	e8 00 00 00 00	 call	 _exit
$LN313@LoadScript:
; File C:\Program Files\Microsoft Visual Studio\2022\Professional\VC\Tools\MSVC\14.44.35207\include\vector

; 2052 :             _Xlength();

  00498	e8 00 00 00 00	 call	 ?_Xlength@?$vector@U__MONSTERSKILL@@V?$allocator@U__MONSTERSKILL@@@std@@@std@@CAXXZ ; std::vector<__MONSTERSKILL,std::allocator<__MONSTERSKILL> >::_Xlength
$LN318@LoadScript:
; File C:\Program Files\Microsoft Visual Studio\2022\Professional\VC\Tools\MSVC\14.44.35207\include\xmemory

; 219  :     _STL_VERIFY(_Back_shift >= _Min_back_shift && _Back_shift <= _Non_user_size, "invalid argument");

  0049d	6a 00		 push	 0
  0049f	6a 00		 push	 0
  004a1	6a 00		 push	 0
  004a3	6a 00		 push	 0
  004a5	6a 00		 push	 0
  004a7	e8 00 00 00 00	 call	 __invoke_watson
$LN327@LoadScript:
  004ac	cc		 int	 3
_TEXT	ENDS
;	COMDAT text$x
text$x	SEGMENT
__unwindfunclet$?LoadScript@CMonsterSkill@@QAEXXZ$0:
  00000	8d 4d d0	 lea	 ecx, DWORD PTR _Lua$[ebp]
  00003	e9 00 00 00 00	 jmp	 ??1CLuaBase@@UAE@XZ	; CLuaBase::~CLuaBase
__unwindfunclet$?LoadScript@CMonsterSkill@@QAEXXZ$1:
  00008	8d 4d bc	 lea	 ecx, DWORD PTR _vecMonsterSkill$6[ebp]
  0000b	e9 00 00 00 00	 jmp	 ??1?$vector@U__MONSTERSKILL@@V?$allocator@U__MONSTERSKILL@@@std@@@std@@QAE@XZ ; std::vector<__MONSTERSKILL,std::allocator<__MONSTERSKILL> >::~vector<__MONSTERSKILL,std::allocator<__MONSTERSKILL> >
__unwindfunclet$?LoadScript@CMonsterSkill@@QAEXXZ$2:
  00010	8d 4d 94	 lea	 ecx, DWORD PTR $T3[ebp]
  00013	e9 00 00 00 00	 jmp	 ??1?$pair@KV?$vector@U__MONSTERSKILL@@V?$allocator@U__MONSTERSKILL@@@std@@@std@@@std@@QAE@XZ
__unwindfunclet$?LoadScript@CMonsterSkill@@QAEXXZ$8:
  00018	8d 4d c8	 lea	 ecx, DWORD PTR $T7[ebp]
  0001b	e9 00 00 00 00	 jmp	 ??1?$_Alloc_construct_ptr@V?$allocator@U?$_Tree_node@U?$pair@$$CBKV?$vector@U__MONSTERSKILL@@V?$allocator@U__MONSTERSKILL@@@std@@@std@@@std@@PAX@std@@@std@@@std@@QAE@XZ ; std::_Alloc_construct_ptr<std::allocator<std::_Tree_node<std::pair<unsigned long const ,std::vector<__MONSTERSKILL,std::allocator<__MONSTERSKILL> > >,void *> > >::~_Alloc_construct_ptr<std::allocator<std::_Tree_node<std::pair<unsigned long const ,std::vector<__MONSTERSKILL,std::allocator<__MONSTERSKILL> > >,void *> > >
  00020	cc		 int	 3
  00021	cc		 int	 3
  00022	cc		 int	 3
  00023	cc		 int	 3
  00024	cc		 int	 3
__ehhandler$?LoadScript@CMonsterSkill@@QAEXXZ:
  00025	90		 npad	 1
  00026	90		 npad	 1
  00027	8b 54 24 08	 mov	 edx, DWORD PTR [esp+8]
  0002b	8d 42 0c	 lea	 eax, DWORD PTR [edx+12]
  0002e	8b 8a 74 ff ff
	ff		 mov	 ecx, DWORD PTR [edx-140]
  00034	33 c8		 xor	 ecx, eax
  00036	e8 00 00 00 00	 call	 @__security_check_cookie@4
  0003b	b8 00 00 00 00	 mov	 eax, OFFSET __ehfuncinfo$?LoadScript@CMonsterSkill@@QAEXXZ
  00040	e9 00 00 00 00	 jmp	 ___CxxFrameHandler3
text$x	ENDS
?LoadScript@CMonsterSkill@@QAEXXZ ENDP			; CMonsterSkill::LoadScript
; Function compile flags: /Ogtp
; File C:\IAGOS\server\v18\Source\Source\_aiinterface\aimonster.cpp
;	COMDAT ?GetInstance@CMonsterSkill@@SAPAV1@XZ
_TEXT	SEGMENT
__$EHRec$ = -12						; size = 12
?GetInstance@CMonsterSkill@@SAPAV1@XZ PROC		; CMonsterSkill::GetInstance, COMDAT

; 2389 : {

  00000	55		 push	 ebp
  00001	8b ec		 mov	 ebp, esp
  00003	6a ff		 push	 -1
  00005	68 00 00 00 00	 push	 __ehhandler$?GetInstance@CMonsterSkill@@SAPAV1@XZ
  0000a	64 a1 00 00 00
	00		 mov	 eax, DWORD PTR fs:0
  00010	50		 push	 eax
  00011	a1 00 00 00 00	 mov	 eax, DWORD PTR ___security_cookie
  00016	33 c5		 xor	 eax, ebp
  00018	50		 push	 eax
  00019	8d 45 f4	 lea	 eax, DWORD PTR __$EHRec$[ebp]
  0001c	64 a3 00 00 00
	00		 mov	 DWORD PTR fs:0, eax

; 2390 : 	static CMonsterSkill sMonsterSkill;

  00022	64 a1 00 00 00
	00		 mov	 eax, DWORD PTR fs:__tls_array
  00028	8b 0d 00 00 00
	00		 mov	 ecx, DWORD PTR __tls_index
  0002e	8b 0c 88	 mov	 ecx, DWORD PTR [eax+ecx*4]
  00031	a1 00 00 00 00	 mov	 eax, DWORD PTR ?$TSS0@?1??GetInstance@CMonsterSkill@@SAPAV2@XZ@4HA
  00036	3b 81 00 00 00
	00		 cmp	 eax, DWORD PTR __Init_thread_epoch[ecx]
  0003c	7f 14		 jg	 SHORT $LN9@GetInstanc
$LN5@GetInstanc:

; 2391 : 	return &sMonsterSkill;
; 2392 : }

  0003e	b8 00 00 00 00	 mov	 eax, OFFSET ?sMonsterSkill@?1??GetInstance@CMonsterSkill@@SAPAV2@XZ@4V2@A
  00043	8b 4d f4	 mov	 ecx, DWORD PTR __$EHRec$[ebp]
  00046	64 89 0d 00 00
	00 00		 mov	 DWORD PTR fs:0, ecx
  0004d	59		 pop	 ecx
  0004e	8b e5		 mov	 esp, ebp
  00050	5d		 pop	 ebp
  00051	c3		 ret	 0
$LN9@GetInstanc:

; 2390 : 	static CMonsterSkill sMonsterSkill;

  00052	68 00 00 00 00	 push	 OFFSET ?$TSS0@?1??GetInstance@CMonsterSkill@@SAPAV2@XZ@4HA
  00057	e8 00 00 00 00	 call	 __Init_thread_header
  0005c	83 c4 04	 add	 esp, 4
  0005f	83 3d 00 00 00
	00 ff		 cmp	 DWORD PTR ?$TSS0@?1??GetInstance@CMonsterSkill@@SAPAV2@XZ@4HA, -1
  00066	75 d6		 jne	 SHORT $LN5@GetInstanc
  00068	b9 00 00 00 00	 mov	 ecx, OFFSET ?sMonsterSkill@?1??GetInstance@CMonsterSkill@@SAPAV2@XZ@4V2@A
  0006d	c7 45 fc 00 00
	00 00		 mov	 DWORD PTR __$EHRec$[ebp+8], 0
  00074	e8 00 00 00 00	 call	 ??0CMonsterSkill@@AAE@XZ ; CMonsterSkill::CMonsterSkill
  00079	68 00 00 00 00	 push	 OFFSET ??__FsMonsterSkill@?1??GetInstance@CMonsterSkill@@SAPAV1@XZ@YAXXZ ; `CMonsterSkill::GetInstance'::`2'::`dynamic atexit destructor for 'sMonsterSkill''
  0007e	e8 00 00 00 00	 call	 _atexit
  00083	68 00 00 00 00	 push	 OFFSET ?$TSS0@?1??GetInstance@CMonsterSkill@@SAPAV2@XZ@4HA
  00088	e8 00 00 00 00	 call	 __Init_thread_footer
  0008d	83 c4 08	 add	 esp, 8
  00090	eb ac		 jmp	 SHORT $LN5@GetInstanc
_TEXT	ENDS
;	COMDAT text$x
text$x	SEGMENT
__unwindfunclet$?GetInstance@CMonsterSkill@@SAPAV1@XZ$0:
  00000	68 00 00 00 00	 push	 OFFSET ?$TSS0@?1??GetInstance@CMonsterSkill@@SAPAV2@XZ@4HA
  00005	e8 00 00 00 00	 call	 __Init_thread_abort
  0000a	59		 pop	 ecx
  0000b	c3		 ret	 0
  0000c	cc		 int	 3
  0000d	cc		 int	 3
  0000e	cc		 int	 3
  0000f	cc		 int	 3
  00010	cc		 int	 3
__ehhandler$?GetInstance@CMonsterSkill@@SAPAV1@XZ:
  00011	90		 npad	 1
  00012	90		 npad	 1
  00013	8b 54 24 08	 mov	 edx, DWORD PTR [esp+8]
  00017	8d 42 0c	 lea	 eax, DWORD PTR [edx+12]
  0001a	8b 4a fc	 mov	 ecx, DWORD PTR [edx-4]
  0001d	33 c8		 xor	 ecx, eax
  0001f	e8 00 00 00 00	 call	 @__security_check_cookie@4
  00024	b8 00 00 00 00	 mov	 eax, OFFSET __ehfuncinfo$?GetInstance@CMonsterSkill@@SAPAV1@XZ
  00029	e9 00 00 00 00	 jmp	 ___CxxFrameHandler3
text$x	ENDS
?GetInstance@CMonsterSkill@@SAPAV1@XZ ENDP		; CMonsterSkill::GetInstance
; Function compile flags: /Ogtp
; File C:\IAGOS\server\v18\Source\Source\_aiinterface\aimonster.cpp
; File C:\Program Files\Microsoft Visual Studio\2022\Professional\VC\Tools\MSVC\14.44.35207\include\xtree
; File C:\Program Files\Microsoft Visual Studio\2022\Professional\VC\Tools\MSVC\14.44.35207\include\xmemory
; File C:\IAGOS\server\v18\Source\Source\_aiinterface\aimonster.cpp
;	COMDAT ??1CMonsterSkill@@QAE@XZ
_TEXT	SEGMENT
??1CMonsterSkill@@QAE@XZ PROC				; CMonsterSkill::~CMonsterSkill, COMDAT
; _this$ = ecx

; 2375 : {

  00000	56		 push	 esi
  00001	8b f1		 mov	 esi, ecx

; 2376 : 	Clear();

  00003	e8 00 00 00 00	 call	 ?Clear@CMonsterSkill@@QAEXXZ ; CMonsterSkill::Clear
; File C:\Program Files\Microsoft Visual Studio\2022\Professional\VC\Tools\MSVC\14.44.35207\include\xtree

; 777  :         _Erase_tree(_Al, _Myhead->_Parent);

  00008	8b 06		 mov	 eax, DWORD PTR [esi]
  0000a	8b ce		 mov	 ecx, esi
  0000c	ff 70 04	 push	 DWORD PTR [eax+4]
  0000f	56		 push	 esi
  00010	e8 00 00 00 00	 call	 ??$_Erase_tree@V?$allocator@U?$_Tree_node@U?$pair@$$CBKV?$vector@U__MONSTERSKILL@@V?$allocator@U__MONSTERSKILL@@@std@@@std@@@std@@PAX@std@@@std@@@?$_Tree_val@U?$_Tree_simple_types@U?$pair@$$CBKV?$vector@U__MONSTERSKILL@@V?$allocator@U__MONSTERSKILL@@@std@@@std@@@std@@@std@@@std@@QAEXAAV?$allocator@U?$_Tree_node@U?$pair@$$CBKV?$vector@U__MONSTERSKILL@@V?$allocator@U__MONSTERSKILL@@@std@@@std@@@std@@PAX@std@@@1@PAU?$_Tree_node@U?$pair@$$CBKV?$vector@U__MONSTERSKILL@@V?$allocator@U__MONSTERSKILL@@@std@@@std@@@std@@PAX@1@@Z ; std::_Tree_val<std::_Tree_simple_types<std::pair<unsigned long const ,std::vector<__MONSTERSKILL,std::allocator<__MONSTERSKILL> > > > >::_Erase_tree<std::allocator<std::_Tree_node<std::pair<unsigned long const ,std::vector<__MONSTERSKILL,std::allocator<__MONSTERSKILL> > >,void *> > >
; File C:\Program Files\Microsoft Visual Studio\2022\Professional\VC\Tools\MSVC\14.44.35207\include\xmemory

; 289  :         ::operator delete(_Ptr, _Bytes);

  00015	6a 20		 push	 32			; 00000020H
  00017	ff 36		 push	 DWORD PTR [esi]
  00019	e8 00 00 00 00	 call	 ??3@YAXPAXI@Z		; operator delete
  0001e	83 c4 08	 add	 esp, 8
  00021	5e		 pop	 esi
; File C:\IAGOS\server\v18\Source\Source\_aiinterface\aimonster.cpp

; 2377 : }

  00022	c3		 ret	 0
??1CMonsterSkill@@QAE@XZ ENDP				; CMonsterSkill::~CMonsterSkill
_TEXT	ENDS
; Function compile flags: /Ogtp
; File C:\IAGOS\server\v18\Source\Source\_aiinterface\aimonster.cpp
; File C:\Program Files\Microsoft Visual Studio\2022\Professional\VC\Tools\MSVC\14.44.35207\include\xmemory
; File C:\IAGOS\server\v18\Source\Source\_aiinterface\aimonster.cpp
; File C:\Program Files\Microsoft Visual Studio\2022\Professional\VC\Tools\MSVC\14.44.35207\include\xtree
; File C:\Program Files\Microsoft Visual Studio\2022\Professional\VC\Tools\MSVC\14.44.35207\include\xmemory
; File C:\Program Files\Microsoft Visual Studio\2022\Professional\VC\Tools\MSVC\14.44.35207\include\xtree
; File C:\IAGOS\server\v18\Source\Source\_aiinterface\aimonster.cpp
;	COMDAT ??0CMonsterSkill@@AAE@XZ
_TEXT	SEGMENT
_this$ = -4						; size = 4
??0CMonsterSkill@@AAE@XZ PROC				; CMonsterSkill::CMonsterSkill, COMDAT
; _this$ = ecx

; 2369 : {

  00000	55		 push	 ebp
  00001	8b ec		 mov	 ebp, esp
  00003	51		 push	 ecx
  00004	56		 push	 esi
  00005	8b f1		 mov	 esi, ecx
; File C:\Program Files\Microsoft Visual Studio\2022\Professional\VC\Tools\MSVC\14.44.35207\include\xmemory

; 136  :         return ::operator new(_Bytes);

  00007	6a 20		 push	 32			; 00000020H
; File C:\IAGOS\server\v18\Source\Source\_aiinterface\aimonster.cpp

; 2369 : {

  00009	89 75 fc	 mov	 DWORD PTR _this$[ebp], esi
; File C:\Program Files\Microsoft Visual Studio\2022\Professional\VC\Tools\MSVC\14.44.35207\include\xtree

; 450  :     _Tree_val() noexcept : _Myhead(), _Mysize(0) {}

  0000c	c7 06 00 00 00
	00		 mov	 DWORD PTR [esi], 0
  00012	c7 46 04 00 00
	00 00		 mov	 DWORD PTR [esi+4], 0
; File C:\Program Files\Microsoft Visual Studio\2022\Professional\VC\Tools\MSVC\14.44.35207\include\xmemory

; 136  :         return ::operator new(_Bytes);

  00019	e8 00 00 00 00	 call	 ??2@YAPAXI@Z		; operator new
  0001e	83 c4 04	 add	 esp, 4
; File C:\Program Files\Microsoft Visual Studio\2022\Professional\VC\Tools\MSVC\14.44.35207\include\xtree

; 346  :         _Construct_in_place(_Pnode->_Left, _Pnode);

  00021	89 00		 mov	 DWORD PTR [eax], eax

; 347  :         _Construct_in_place(_Pnode->_Parent, _Pnode);

  00023	89 40 04	 mov	 DWORD PTR [eax+4], eax

; 348  :         _Construct_in_place(_Pnode->_Right, _Pnode);

  00026	89 40 08	 mov	 DWORD PTR [eax+8], eax

; 349  :         _Pnode->_Color = _Black;

  00029	66 c7 40 0c 01
	01		 mov	 WORD PTR [eax+12], 257	; 00000101H

; 1957 :         _Scary->_Myhead = _Node::_Buyheadnode(_Getal());

  0002f	89 06		 mov	 DWORD PTR [esi], eax
; File C:\IAGOS\server\v18\Source\Source\_aiinterface\aimonster.cpp

; 2371 : }

  00031	8b c6		 mov	 eax, esi
  00033	5e		 pop	 esi
  00034	8b e5		 mov	 esp, ebp
  00036	5d		 pop	 ebp
  00037	c3		 ret	 0
??0CMonsterSkill@@AAE@XZ ENDP				; CMonsterSkill::CMonsterSkill
_TEXT	ENDS
; Function compile flags: /Ogtp
;	COMDAT ??_GCAIMonster@@UAEPAXI@Z
_TEXT	SEGMENT
___flags$ = 8						; size = 4
??_GCAIMonster@@UAEPAXI@Z PROC				; CAIMonster::`scalar deleting destructor', COMDAT
; _this$ = ecx
  00000	55		 push	 ebp
  00001	8b ec		 mov	 ebp, esp
  00003	56		 push	 esi
  00004	8b f1		 mov	 esi, ecx
  00006	e8 00 00 00 00	 call	 ??1CAIMonster@@UAE@XZ	; CAIMonster::~CAIMonster
  0000b	f6 45 08 01	 test	 BYTE PTR ___flags$[ebp], 1
  0000f	74 0e		 je	 SHORT $LN5@scalar
  00011	68 f0 00 00 00	 push	 240			; 000000f0H
  00016	56		 push	 esi
  00017	e8 00 00 00 00	 call	 ??3@YAXPAXI@Z		; operator delete
  0001c	83 c4 08	 add	 esp, 8
$LN5@scalar:
  0001f	8b c6		 mov	 eax, esi
  00021	5e		 pop	 esi
  00022	5d		 pop	 ebp
  00023	c2 04 00	 ret	 4
??_GCAIMonster@@UAEPAXI@Z ENDP				; CAIMonster::`scalar deleting destructor'
_TEXT	ENDS
; Function compile flags: /Ogtp
; File C:\IAGOS\server\v18\Source\Source\_aiinterface\aimonster.cpp
;	COMDAT ?GetStateMap@CAIMonster@@UBEPBUSTATEMAP@@XZ
_TEXT	SEGMENT
?GetStateMap@CAIMonster@@UBEPBUSTATEMAP@@XZ PROC	; CAIMonster::GetStateMap, COMDAT
; _this$ = ecx

; 44   : BEGIN_AISTATE_MAP( CAIMonster, CAIInterface )

  00000	b8 00 00 00 00	 mov	 eax, OFFSET ?stateMap@CAIMonster@@2USTATEMAP@@B ; CAIMonster::stateMap
  00005	c3		 ret	 0
?GetStateMap@CAIMonster@@UBEPBUSTATEMAP@@XZ ENDP	; CAIMonster::GetStateMap
_TEXT	ENDS
; Function compile flags: /Ogtp
; File C:\IAGOS\server\v18\Source\Source\_aiinterface\aimonster.cpp
; File C:\IAGOS\server\v18\Source\Source\_Common\Obj.h
; File C:\IAGOS\server\v18\Source\Source\_aiinterface\aimonster.cpp
;	COMDAT ?InitAI@CAIMonster@@UAEXXZ
_TEXT	SEGMENT
?InitAI@CAIMonster@@UAEXXZ PROC				; CAIMonster::InitAI, COMDAT
; _this$ = ecx
; File C:\IAGOS\server\v18\Source\Source\_Common\Obj.h

; 215  : 	D3DXVECTOR3		GetPos()	{ return m_vPos; }

  00000	8b 51 30	 mov	 edx, DWORD PTR [ecx+48]
; File C:\IAGOS\server\v18\Source\Source\_aiinterface\aimonster.cpp

; 131  : 	PostAIMsg( AIMSG_SETSTATE, GetMover()->m_dwAIInterfaceState ); 	

  00003	6a 00		 push	 0
  00005	6a 00		 push	 0
  00007	f3 0f 7e 82 60
	01 00 00	 movq	 xmm0, QWORD PTR [edx+352]
  0000f	66 0f d6 41 50	 movq	 QWORD PTR [ecx+80], xmm0
  00014	8b 82 68 01 00
	00		 mov	 eax, DWORD PTR [edx+360]
  0001a	89 41 58	 mov	 DWORD PTR [ecx+88], eax
  0001d	8b 42 18	 mov	 eax, DWORD PTR [edx+24]
  00020	89 81 b8 00 00
	00		 mov	 DWORD PTR [ecx+184], eax
  00026	ff b2 90 01 00
	00		 push	 DWORD PTR [edx+400]
  0002c	8b 01		 mov	 eax, DWORD PTR [ecx]
  0002e	6a 04		 push	 4
  00030	ff 50 10	 call	 DWORD PTR [eax+16]

; 132  : }

  00033	c3		 ret	 0
?InitAI@CAIMonster@@UAEXXZ ENDP				; CAIMonster::InitAI
_TEXT	ENDS
; Function compile flags: /Ogtp
; File C:\IAGOS\server\v18\Source\Source\_aiinterface\aimonster.cpp
;	COMDAT ??1CAIMonster@@UAE@XZ
_TEXT	SEGMENT
??1CAIMonster@@UAE@XZ PROC				; CAIMonster::~CAIMonster, COMDAT
; _this$ = ecx

; 124  : {

  00000	56		 push	 esi
  00001	8b f1		 mov	 esi, ecx

; 125  : }

  00003	8d 8e e0 00 00
	00		 lea	 ecx, DWORD PTR [esi+224]
  00009	c7 06 00 00 00
	00		 mov	 DWORD PTR [esi], OFFSET ??_7CAIMonster@@6B@
  0000f	e8 00 00 00 00	 call	 ??1?$vector@KV?$allocator@K@std@@@std@@QAE@XZ ; std::vector<unsigned long,std::allocator<unsigned long> >::~vector<unsigned long,std::allocator<unsigned long> >
  00014	c7 86 98 00 00
	00 00 00 00 00	 mov	 DWORD PTR [esi+152], OFFSET ??_7CTimer@@6B@
  0001e	8b ce		 mov	 ecx, esi
  00020	5e		 pop	 esi
  00021	e9 00 00 00 00	 jmp	 ??1CAIInterface@@UAE@XZ	; CAIInterface::~CAIInterface
??1CAIMonster@@UAE@XZ ENDP				; CAIMonster::~CAIMonster
_TEXT	ENDS
; Function compile flags: /Ogtp
; File C:\IAGOS\server\v18\Source\Source\_aiinterface\aimonster.cpp
; File C:\Program Files\Microsoft Visual Studio\2022\Professional\VC\Tools\MSVC\14.44.35207\include\vector
; File C:\IAGOS\server\v18\Source\Source\_aiinterface\aimonster.cpp
;	COMDAT ??0CAIMonster@@QAE@PAVCObj@@@Z
_TEXT	SEGMENT
_this$ = -16						; size = 4
__$EHRec$ = -12						; size = 12
_pObj$ = 8						; size = 4
_this$ = 8						; size = 4
??0CAIMonster@@QAE@PAVCObj@@@Z PROC			; CAIMonster::CAIMonster, COMDAT
; _this$ = ecx

; 89   : {

  00000	55		 push	 ebp
  00001	8b ec		 mov	 ebp, esp
  00003	6a ff		 push	 -1
  00005	68 00 00 00 00	 push	 __ehhandler$??0CAIMonster@@QAE@PAVCObj@@@Z
  0000a	64 a1 00 00 00
	00		 mov	 eax, DWORD PTR fs:0
  00010	50		 push	 eax
  00011	51		 push	 ecx
  00012	56		 push	 esi
  00013	a1 00 00 00 00	 mov	 eax, DWORD PTR ___security_cookie
  00018	33 c5		 xor	 eax, ebp
  0001a	50		 push	 eax
  0001b	8d 45 f4	 lea	 eax, DWORD PTR __$EHRec$[ebp]
  0001e	64 a3 00 00 00
	00		 mov	 DWORD PTR fs:0, eax
  00024	8b f1		 mov	 esi, ecx
  00026	89 75 f0	 mov	 DWORD PTR _this$[ebp], esi

; 88   : CAIMonster::CAIMonster( CObj* pObj ) : CAIInterface( pObj )

  00029	ff 75 08	 push	 DWORD PTR _pObj$[ebp]
  0002c	e8 00 00 00 00	 call	 ??0CAIInterface@@QAE@PAVCObj@@@Z ; CAIInterface::CAIInterface

; 89   : {

  00031	8d 8e 80 00 00
	00		 lea	 ecx, DWORD PTR [esi+128]
  00037	c7 45 fc 00 00
	00 00		 mov	 DWORD PTR __$EHRec$[ebp+8], 0
  0003e	89 4d 08	 mov	 DWORD PTR _this$[ebp], ecx
  00041	83 c1 18	 add	 ecx, 24			; 00000018H
  00044	c7 06 00 00 00
	00		 mov	 DWORD PTR [esi], OFFSET ??_7CAIMonster@@6B@
  0004a	e8 00 00 00 00	 call	 ??0CTimer@@QAE@XZ	; CTimer::CTimer
; File C:\Program Files\Microsoft Visual Studio\2022\Professional\VC\Tools\MSVC\14.44.35207\include\vector

; 400  :     _CONSTEXPR20 _Vector_val() noexcept : _Myfirst(), _Mylast(), _Myend() {}

  0004f	c7 86 e0 00 00
	00 00 00 00 00	 mov	 DWORD PTR [esi+224], 0
  00059	c7 86 e4 00 00
	00 00 00 00 00	 mov	 DWORD PTR [esi+228], 0
  00063	c7 86 e8 00 00
	00 00 00 00 00	 mov	 DWORD PTR [esi+232], 0
; File C:\IAGOS\server\v18\Source\Source\_aiinterface\aimonster.cpp

; 90   : 	Init();

  0006d	8b ce		 mov	 ecx, esi
  0006f	c6 45 fc 02	 mov	 BYTE PTR __$EHRec$[ebp+8], 2
  00073	e8 00 00 00 00	 call	 ?Init@CAIMonster@@IAEXXZ ; CAIMonster::Init

; 91   : }

  00078	8b c6		 mov	 eax, esi
  0007a	8b 4d f4	 mov	 ecx, DWORD PTR __$EHRec$[ebp]
  0007d	64 89 0d 00 00
	00 00		 mov	 DWORD PTR fs:0, ecx
  00084	59		 pop	 ecx
  00085	5e		 pop	 esi
  00086	8b e5		 mov	 esp, ebp
  00088	5d		 pop	 ebp
  00089	c2 04 00	 ret	 4
_TEXT	ENDS
;	COMDAT text$x
text$x	SEGMENT
__unwindfunclet$??0CAIMonster@@QAE@PAVCObj@@@Z$0:
  00000	8b 4d f0	 mov	 ecx, DWORD PTR _this$[ebp]
  00003	e9 00 00 00 00	 jmp	 ??1CAIInterface@@UAE@XZ	; CAIInterface::~CAIInterface
__unwindfunclet$??0CAIMonster@@QAE@PAVCObj@@@Z$1:
  00008	8b 4d f0	 mov	 ecx, DWORD PTR _this$[ebp]
  0000b	81 c1 80 00 00
	00		 add	 ecx, 128		; 00000080H
  00011	e9 00 00 00 00	 jmp	 ??1_VECINFO@@QAE@XZ
__unwindfunclet$??0CAIMonster@@QAE@PAVCObj@@@Z$2:
  00016	8b 4d f0	 mov	 ecx, DWORD PTR _this$[ebp]
  00019	81 c1 e0 00 00
	00		 add	 ecx, 224		; 000000e0H
  0001f	e9 00 00 00 00	 jmp	 ??1?$vector@KV?$allocator@K@std@@@std@@QAE@XZ ; std::vector<unsigned long,std::allocator<unsigned long> >::~vector<unsigned long,std::allocator<unsigned long> >
  00024	cc		 int	 3
  00025	cc		 int	 3
  00026	cc		 int	 3
  00027	cc		 int	 3
  00028	cc		 int	 3
__ehhandler$??0CAIMonster@@QAE@PAVCObj@@@Z:
  00029	90		 npad	 1
  0002a	90		 npad	 1
  0002b	8b 54 24 08	 mov	 edx, DWORD PTR [esp+8]
  0002f	8d 42 0c	 lea	 eax, DWORD PTR [edx+12]
  00032	8b 4a f4	 mov	 ecx, DWORD PTR [edx-12]
  00035	33 c8		 xor	 ecx, eax
  00037	e8 00 00 00 00	 call	 @__security_check_cookie@4
  0003c	b8 00 00 00 00	 mov	 eax, OFFSET __ehfuncinfo$??0CAIMonster@@QAE@PAVCObj@@@Z
  00041	e9 00 00 00 00	 jmp	 ___CxxFrameHandler3
text$x	ENDS
??0CAIMonster@@QAE@PAVCObj@@@Z ENDP			; CAIMonster::CAIMonster
; Function compile flags: /Ogtp
; File C:\IAGOS\server\v18\Source\Source\_aiinterface\aimonster.cpp
; File C:\Program Files\Microsoft Visual Studio\2022\Professional\VC\Tools\MSVC\14.44.35207\include\vector
; File C:\IAGOS\server\v18\Source\Source\_aiinterface\aimonster.cpp
;	COMDAT ??0CAIMonster@@QAE@XZ
_TEXT	SEGMENT
_this$ = -20						; size = 4
_this$ = -16						; size = 4
__$EHRec$ = -12						; size = 12
??0CAIMonster@@QAE@XZ PROC				; CAIMonster::CAIMonster, COMDAT
; _this$ = ecx

; 84   : {

  00000	55		 push	 ebp
  00001	8b ec		 mov	 ebp, esp
  00003	6a ff		 push	 -1
  00005	68 00 00 00 00	 push	 __ehhandler$??0CAIMonster@@QAE@XZ
  0000a	64 a1 00 00 00
	00		 mov	 eax, DWORD PTR fs:0
  00010	50		 push	 eax
  00011	83 ec 08	 sub	 esp, 8
  00014	56		 push	 esi
  00015	a1 00 00 00 00	 mov	 eax, DWORD PTR ___security_cookie
  0001a	33 c5		 xor	 eax, ebp
  0001c	50		 push	 eax
  0001d	8d 45 f4	 lea	 eax, DWORD PTR __$EHRec$[ebp]
  00020	64 a3 00 00 00
	00		 mov	 DWORD PTR fs:0, eax
  00026	8b f1		 mov	 esi, ecx
  00028	89 75 f0	 mov	 DWORD PTR _this$[ebp], esi
  0002b	e8 00 00 00 00	 call	 ??0CAIInterface@@QAE@XZ	; CAIInterface::CAIInterface
  00030	8d 8e 80 00 00
	00		 lea	 ecx, DWORD PTR [esi+128]
  00036	c7 45 fc 00 00
	00 00		 mov	 DWORD PTR __$EHRec$[ebp+8], 0
  0003d	89 4d ec	 mov	 DWORD PTR _this$[ebp], ecx
  00040	83 c1 18	 add	 ecx, 24			; 00000018H
  00043	c7 06 00 00 00
	00		 mov	 DWORD PTR [esi], OFFSET ??_7CAIMonster@@6B@
  00049	e8 00 00 00 00	 call	 ??0CTimer@@QAE@XZ	; CTimer::CTimer
; File C:\Program Files\Microsoft Visual Studio\2022\Professional\VC\Tools\MSVC\14.44.35207\include\vector

; 400  :     _CONSTEXPR20 _Vector_val() noexcept : _Myfirst(), _Mylast(), _Myend() {}

  0004e	c7 86 e0 00 00
	00 00 00 00 00	 mov	 DWORD PTR [esi+224], 0
  00058	c7 86 e4 00 00
	00 00 00 00 00	 mov	 DWORD PTR [esi+228], 0
  00062	c7 86 e8 00 00
	00 00 00 00 00	 mov	 DWORD PTR [esi+232], 0
; File C:\IAGOS\server\v18\Source\Source\_aiinterface\aimonster.cpp

; 85   : 	Init();

  0006c	8b ce		 mov	 ecx, esi
  0006e	c6 45 fc 02	 mov	 BYTE PTR __$EHRec$[ebp+8], 2
  00072	e8 00 00 00 00	 call	 ?Init@CAIMonster@@IAEXXZ ; CAIMonster::Init

; 86   : }

  00077	8b c6		 mov	 eax, esi
  00079	8b 4d f4	 mov	 ecx, DWORD PTR __$EHRec$[ebp]
  0007c	64 89 0d 00 00
	00 00		 mov	 DWORD PTR fs:0, ecx
  00083	59		 pop	 ecx
  00084	5e		 pop	 esi
  00085	8b e5		 mov	 esp, ebp
  00087	5d		 pop	 ebp
  00088	c3		 ret	 0
_TEXT	ENDS
;	COMDAT text$x
text$x	SEGMENT
__unwindfunclet$??0CAIMonster@@QAE@XZ$0:
  00000	8b 4d f0	 mov	 ecx, DWORD PTR _this$[ebp]
  00003	e9 00 00 00 00	 jmp	 ??1CAIInterface@@UAE@XZ	; CAIInterface::~CAIInterface
__unwindfunclet$??0CAIMonster@@QAE@XZ$1:
  00008	8b 4d f0	 mov	 ecx, DWORD PTR _this$[ebp]
  0000b	81 c1 80 00 00
	00		 add	 ecx, 128		; 00000080H
  00011	e9 00 00 00 00	 jmp	 ??1_VECINFO@@QAE@XZ
__unwindfunclet$??0CAIMonster@@QAE@XZ$2:
  00016	8b 4d f0	 mov	 ecx, DWORD PTR _this$[ebp]
  00019	81 c1 e0 00 00
	00		 add	 ecx, 224		; 000000e0H
  0001f	e9 00 00 00 00	 jmp	 ??1?$vector@KV?$allocator@K@std@@@std@@QAE@XZ ; std::vector<unsigned long,std::allocator<unsigned long> >::~vector<unsigned long,std::allocator<unsigned long> >
  00024	cc		 int	 3
  00025	cc		 int	 3
  00026	cc		 int	 3
  00027	cc		 int	 3
  00028	cc		 int	 3
__ehhandler$??0CAIMonster@@QAE@XZ:
  00029	90		 npad	 1
  0002a	90		 npad	 1
  0002b	8b 54 24 08	 mov	 edx, DWORD PTR [esp+8]
  0002f	8d 42 0c	 lea	 eax, DWORD PTR [edx+12]
  00032	8b 4a f0	 mov	 ecx, DWORD PTR [edx-16]
  00035	33 c8		 xor	 ecx, eax
  00037	e8 00 00 00 00	 call	 @__security_check_cookie@4
  0003c	b8 00 00 00 00	 mov	 eax, OFFSET __ehfuncinfo$??0CAIMonster@@QAE@XZ
  00041	e9 00 00 00 00	 jmp	 ___CxxFrameHandler3
text$x	ENDS
??0CAIMonster@@QAE@XZ ENDP				; CAIMonster::CAIMonster
; Function compile flags: /Ogtp
; File C:\IAGOS\server\v18\Source\Source\_AIInterface\AIMonster.h
;	COMDAT ?IsReturnToBegin@CAIMonster@@UAEHXZ
_TEXT	SEGMENT
?IsReturnToBegin@CAIMonster@@UAEHXZ PROC		; CAIMonster::IsReturnToBegin, COMDAT
; _this$ = ecx

; 88   : 	virtual	BOOL	IsReturnToBegin( void )		{	return m_bReturnToBegin;	}

  00000	8b 81 bc 00 00
	00		 mov	 eax, DWORD PTR [ecx+188]
  00006	c3		 ret	 0
?IsReturnToBegin@CAIMonster@@UAEHXZ ENDP		; CAIMonster::IsReturnToBegin
_TEXT	ENDS
; Function compile flags: /Ogtp
; File C:\IAGOS\server\v18\Source\Source\_aiinterface\aimonster.cpp
;	COMDAT ?SetTarget@CAIMonster@@IAEXKK@Z
_TEXT	SEGMENT
_dwIdTarget$ = 8					; size = 4
_uParty$ = 12						; size = 4
?SetTarget@CAIMonster@@IAEXKK@Z PROC			; CAIMonster::SetTarget, COMDAT
; _this$ = ecx

; 2357 : {

  00000	55		 push	 ebp
  00001	8b ec		 mov	 ebp, esp

; 2358 : 	m_dwIdTarget	= dwIdTarget;

  00003	8b 55 08	 mov	 edx, DWORD PTR _dwIdTarget$[ebp]

; 2359 : #if __VER >= 9	//__AI_0509
; 2360 : 	m_uParty	= uParty;

  00006	8b 45 0c	 mov	 eax, DWORD PTR _uParty$[ebp]
  00009	89 91 d8 00 00
	00		 mov	 DWORD PTR [ecx+216], edx
  0000f	89 41 34	 mov	 DWORD PTR [ecx+52], eax

; 2361 : 	if( dwIdTarget == NULL_ID )

  00012	83 fa ff	 cmp	 edx, -1
  00015	75 10		 jne	 SHORT $LN2@SetTarget

; 2362 : 		GetMover()->SetSpeedFactor( 1.0F );

  00017	51		 push	 ecx
  00018	8b 49 30	 mov	 ecx, DWORD PTR [ecx+48]
  0001b	c7 04 24 00 00
	80 3f		 mov	 DWORD PTR [esp], 1065353216 ; 3f800000H
  00022	e8 00 00 00 00	 call	 ?SetSpeedFactor@CMover@@QAEXM@Z ; CMover::SetSpeedFactor
$LN2@SetTarget:

; 2363 : #endif	// __AI_0509
; 2364 : }

  00027	5d		 pop	 ebp
  00028	c2 08 00	 ret	 8
?SetTarget@CAIMonster@@IAEXKK@Z ENDP			; CAIMonster::SetTarget
_TEXT	ENDS
; Function compile flags: /Ogtp
; File C:\IAGOS\server\v18\Source\Source\_aiinterface\aimonster.cpp
; File C:\IAGOS\server\v18\Source\Source\_Common\Project.h
; File C:\IAGOS\server\v18\Source\Source\_aiinterface\aimonster.cpp
; File C:\IAGOS\server\v18\Source\Source\_Common\Mover.h
; File C:\IAGOS\server\v18\Source\Source\_Common\Project.h
; File C:\IAGOS\server\v18\Source\Source\_AIInterface\Action.h
; File C:\IAGOS\server\v18\Source\Source\_Common\Mover.h
; File C:\IAGOS\server\v18\Source\Source\_aiinterface\aimonster.cpp
; File C:\IAGOS\server\v18\Source\Source\_Common\Obj.h
; File C:\IAGOS\server\v18\Source\Source\_aiinterface\aimonster.cpp
; File C:\IAGOS\server\v18\Source\Source\_Common\Obj.h
; File C:\IAGOS\server\v18\Source\Source\DX_SDK\d3dx9math.inl
; File C:\IAGOS\server\v18\Source\Source\_Common\Obj.h
; File C:\IAGOS\server\v18\Source\Source\_aiinterface\aimonster.cpp
; File C:\IAGOS\server\v18\Source\Source\DX_SDK\d3dx9math.inl
; File C:\IAGOS\server\v18\Source\Source\_aiinterface\aimonster.cpp
; File C:\IAGOS\server\v18\Source\Source\_Common\xUtil.h
; File C:\IAGOS\server\v18\Source\Source\_aiinterface\aimonster.cpp
; File C:\IAGOS\server\v18\Source\Source\_Common\Obj.h
; File C:\IAGOS\server\v18\Source\Source\_aiinterface\aimonster.cpp
; File C:\IAGOS\server\v18\Source\Source\_Common\Obj.h
; File C:\IAGOS\server\v18\Source\Source\_aiinterface\aimonster.cpp
; File C:\IAGOS\server\v18\Source\Source\_Common\Obj.h
; File C:\IAGOS\server\v18\Source\Source\_aiinterface\aimonster.cpp
; File C:\IAGOS\server\v18\Source\Source\_Common\Obj.h
; File C:\IAGOS\server\v18\Source\Source\_aiinterface\aimonster.cpp
;	COMDAT ?MoveProcessPatrol@CAIMonster@@IAEHABUAIMSG@@@Z
_TEXT	SEGMENT
$T1 = -36						; size = 12
_nAttackFirstRange$1$ = -24				; size = 4
_pTarget$1$ = -20					; size = 4
$T2 = -16						; size = 12
$T3 = -16						; size = 12
__$ArrayPad$ = -4					; size = 4
_msg$ = 8						; size = 4
?MoveProcessPatrol@CAIMonster@@IAEHABUAIMSG@@@Z PROC	; CAIMonster::MoveProcessPatrol, COMDAT
; _this$ = ecx

; 924  : {

  00000	55		 push	 ebp
  00001	8b ec		 mov	 ebp, esp
  00003	83 ec 24	 sub	 esp, 36			; 00000024H
  00006	a1 00 00 00 00	 mov	 eax, DWORD PTR ___security_cookie
  0000b	33 c5		 xor	 eax, ebp
  0000d	89 45 fc	 mov	 DWORD PTR __$ArrayPad$[ebp], eax
  00010	53		 push	 ebx
  00011	56		 push	 esi
  00012	8b f1		 mov	 esi, ecx
; File C:\IAGOS\server\v18\Source\Source\_Common\Project.h

; 1406 : 	VERIFY_RANGE( nIndex, 0, m_nMoverPropSize, "GetMoverProp range_error", NULL );

  00014	8b 0d b4 01 00
	00		 mov	 ecx, DWORD PTR ?prj@@3VCProject@@A+436
; File C:\IAGOS\server\v18\Source\Source\_aiinterface\aimonster.cpp

; 924  : {

  0001a	57		 push	 edi

; 925  : 	CMover* pMover = GetMover();

  0001b	8b 7e 30	 mov	 edi, DWORD PTR [esi+48]
; File C:\IAGOS\server\v18\Source\Source\_Common\Mover.h

; 1020 : 	MoverProp*		GetProp() { return prj.GetMoverProp( m_dwIndex ); }	// АДУМРЧ ЧСЗЮЦлЦМ ОђБт 	

  0001e	8b 87 74 01 00
	00		 mov	 eax, DWORD PTR [edi+372]
; File C:\IAGOS\server\v18\Source\Source\_Common\Project.h

; 1406 : 	VERIFY_RANGE( nIndex, 0, m_nMoverPropSize, "GetMoverProp range_error", NULL );

  00024	85 c0		 test	 eax, eax
  00026	78 12		 js	 SHORT $LN40@MoveProces
  00028	3b c1		 cmp	 eax, ecx
  0002a	7d 0e		 jge	 SHORT $LN40@MoveProces

; 1407 : 	return m_pPropMover + nIndex;

  0002c	69 d8 90 06 00
	00		 imul	 ebx, eax, 1680
  00032	03 1d b8 01 00
	00		 add	 ebx, DWORD PTR ?prj@@3VCProject@@A+440
  00038	eb 18		 jmp	 SHORT $LN35@MoveProces
$LN40@MoveProces:

; 579  : 	LPCTSTR szErr = Error( _T( "%s min:%d, max:%d, index:%d" ), szMsg, nMin, nMax, nIndex ); 

  0003a	50		 push	 eax
  0003b	51		 push	 ecx
  0003c	6a 00		 push	 0
  0003e	68 00 00 00 00	 push	 OFFSET ??_C@_0BJ@GKPOBPPI@GetMoverProp?5range_error@
  00043	68 00 00 00 00	 push	 OFFSET ??_C@_0BM@HMFGHCP@?$CFs?5min?3?$CFd?0?5max?3?$CFd?0?5index?3?$CFd@
  00048	e8 00 00 00 00	 call	 ?Error@@YAPBDPBDZZ	; Error
  0004d	83 c4 14	 add	 esp, 20			; 00000014H

; 1406 : 	VERIFY_RANGE( nIndex, 0, m_nMoverPropSize, "GetMoverProp range_error", NULL );

  00050	33 db		 xor	 ebx, ebx
$LN35@MoveProces:
; File C:\IAGOS\server\v18\Source\Source\_AIInterface\Action.h

; 310  : 	BOOL			IsDie() { return (m_dwState & OBJSTA_DIE_ALL) ? TRUE : FALSE; }

  00052	8b 87 38 02 00
	00		 mov	 eax, DWORD PTR [edi+568]
  00058	8b 40 04	 mov	 eax, DWORD PTR [eax+4]
; File C:\IAGOS\server\v18\Source\Source\_Common\Mover.h

; 1250 : 	BOOL			IsDie() { return m_pActMover->IsDie() || m_nHitPoint == 0; }

  0005b	a9 00 00 00 08	 test	 eax, 134217728		; 08000000H
  00060	0f 85 e0 02 00
	00		 jne	 $LN3@MoveProces
  00066	83 bf f8 05 00
	00 00		 cmp	 DWORD PTR [edi+1528], 0
  0006d	0f 84 d3 02 00
	00		 je	 $LN3@MoveProces
; File C:\IAGOS\server\v18\Source\Source\_aiinterface\aimonster.cpp

; 930  : 	if( pMover->IsDie() || (pMover->m_pActMover->GetState() & OBJSTA_DMG_FLY_ALL) )

  00073	a9 00 00 00 02	 test	 eax, 33554432		; 02000000H
  00078	0f 85 c8 02 00
	00		 jne	 $LN3@MoveProces

; 931  : 		return FALSE;
; 932  : 
; 933  : 	// НКЦљ РхМвЗЮ БЭШЏ 
; 934  : 	if( m_bReturnToBegin )

  0007e	83 be bc 00 00
	00 00		 cmp	 DWORD PTR [esi+188], 0
  00085	0f 84 ac 00 00
	00		 je	 $LN4@MoveProces
; File C:\IAGOS\server\v18\Source\Source\_Common\Obj.h

; 215  : 	D3DXVECTOR3		GetPos()	{ return m_vPos; }

  0008b	f3 0f 7e 87 60
	01 00 00	 movq	 xmm0, QWORD PTR [edi+352]
; File C:\IAGOS\server\v18\Source\Source\_aiinterface\aimonster.cpp

; 936  : 		if( IsInRange( m_vPosBegin - pMover->GetPos(), 3.0f ) )		// НУРлСіСЁРИЗЮ ЕЙОЦПдДй.

  00093	8d 5e 50	 lea	 ebx, DWORD PTR [esi+80]
; File C:\IAGOS\server\v18\Source\Source\_Common\Obj.h

; 215  : 	D3DXVECTOR3		GetPos()	{ return m_vPos; }

  00096	8b 87 68 01 00
	00		 mov	 eax, DWORD PTR [edi+360]
  0009c	66 0f d6 45 dc	 movq	 QWORD PTR $T1[ebp], xmm0
; File C:\IAGOS\server\v18\Source\Source\DX_SDK\d3dx9math.inl

; 383  :     return D3DXVECTOR3(x - v.x, y - v.y, z - v.z);

  000a1	f3 0f 10 03	 movss	 xmm0, DWORD PTR [ebx]
  000a5	f3 0f 5c 45 dc	 subss	 xmm0, DWORD PTR $T1[ebp]
; File C:\IAGOS\server\v18\Source\Source\_Common\Obj.h

; 215  : 	D3DXVECTOR3		GetPos()	{ return m_vPos; }

  000aa	89 45 e4	 mov	 DWORD PTR $T1[ebp+8], eax
; File C:\IAGOS\server\v18\Source\Source\_aiinterface\aimonster.cpp

; 936  : 		if( IsInRange( m_vPosBegin - pMover->GetPos(), 3.0f ) )		// НУРлСіСЁРИЗЮ ЕЙОЦПдДй.

  000ad	8d 45 f0	 lea	 eax, DWORD PTR $T2[ebp]
  000b0	51		 push	 ecx
  000b1	c7 04 24 00 00
	40 40		 mov	 DWORD PTR [esp], 1077936128 ; 40400000H
  000b8	8b ce		 mov	 ecx, esi
  000ba	50		 push	 eax
; File C:\IAGOS\server\v18\Source\Source\DX_SDK\d3dx9math.inl

; 300  :     x = fx;

  000bb	f3 0f 11 45 f0	 movss	 DWORD PTR $T2[ebp], xmm0

; 383  :     return D3DXVECTOR3(x - v.x, y - v.y, z - v.z);

  000c0	f3 0f 10 43 04	 movss	 xmm0, DWORD PTR [ebx+4]
  000c5	f3 0f 5c 45 e0	 subss	 xmm0, DWORD PTR $T1[ebp+4]

; 301  :     y = fy;

  000ca	f3 0f 11 45 f4	 movss	 DWORD PTR $T2[ebp+4], xmm0

; 383  :     return D3DXVECTOR3(x - v.x, y - v.y, z - v.z);

  000cf	f3 0f 10 43 08	 movss	 xmm0, DWORD PTR [ebx+8]
  000d4	f3 0f 5c 45 e4	 subss	 xmm0, DWORD PTR $T1[ebp+8]

; 302  :     z = fz;

  000d9	f3 0f 11 45 f8	 movss	 DWORD PTR $T2[ebp+8], xmm0
; File C:\IAGOS\server\v18\Source\Source\_aiinterface\aimonster.cpp

; 936  : 		if( IsInRange( m_vPosBegin - pMover->GetPos(), 3.0f ) )		// НУРлСіСЁРИЗЮ ЕЙОЦПдДй.

  000de	e8 00 00 00 00	 call	 ?IsInRange@CAIMonster@@IAEHAAUD3DXVECTOR3@@M@Z ; CAIMonster::IsInRange
  000e3	85 c0		 test	 eax, eax
  000e5	74 09		 je	 SHORT $LN6@MoveProces

; 937  : 		{
; 938  : 			DoReturnToBegin( FALSE );

  000e7	6a 00		 push	 0
  000e9	8b ce		 mov	 ecx, esi
  000eb	e8 00 00 00 00	 call	 ?DoReturnToBegin@CAIMonster@@IAEXH@Z ; CAIMonster::DoReturnToBegin
$LN6@MoveProces:

; 939  : //			SendAIMsg( AIMSG_ARRIVAL, NULL_ID );
; 940  : 		}
; 941  : #if __VER < 9	// __AI_0509
; 942  : 		else if( m_dwIdTarget != NULL_ID )	// ГюАэРжДј СпПЁ РќПЁ ІiДј РћРЬ РжРИИщ РчАјАн
; 943  : 		{
; 944  : 			if( TIMEGETTIME - m_tmReturnToBegin > SEC(5) )		// ЕЙОЦАЁБт НУРлЧбСі 5УЪДТ СіГЊОп ДйНУ ЙнАнЧбДй.
; 945  : 			{
; 946  : 				int nAttackFirstRange = pProp->m_nAttackFirstRange;		//??
; 947  : 				CMover* pTarget = prj.GetMover( m_dwIdTarget );
; 948  : 				if( IsValidObj(pTarget) )
; 949  : 				{
; 950  : 					D3DXVECTOR3 vDist = pTarget->GetPos() - pMover->GetPos();
; 951  : 					FLOAT fDistSq = D3DXVec3LengthSq( &vDist );
; 952  : 					if( fDistSq < (float)(nAttackFirstRange * nAttackFirstRange) )	// ХИАйРЬ АХИЎГЛПЁ ЕщОюПРИщ
; 953  : 					{
; 954  : 
; 955  : #ifdef __JHMA_VER_8_6     // 8Тї ИѓНКХЭАЁ РњАјКёЧрРЏРњИІ АјАнАЁДЩЧЯАдЧд   World
; 956  : 						if( pMover->IsFlyingNPC() == pTarget->m_pActMover->IsFly() || pMover->IsFlyingNPC() == FALSE )	
; 957  : #else	// __VER >= 8  
; 958  : 						// thisЖћ ХИАйРЬЖћ СіЛѓ-СіЛѓ, КёЧр-КёЧр РЬИщ 
; 959  : 						if( pMover->IsFlyingNPC() == pTarget->m_pActMover->IsFly() )	
; 960  : #endif	// __VER >= 8  
; 961  : 							SendAIMsg( AIMSG_SETSTATE, STATE_RAGE_PATROL, NULL_ID );	// ДйНУ АјАн
; 962  : 					}
; 963  : 				}
; 964  : 			}
; 965  : 		}
; 966  : #endif	// __AI_0509
; 967  : 
; 968  : 		if( TIMEGETTIME - m_tmReturnToBegin >= SEC(10) )	// С§РИЗЮ ЕЙОЦАЁБт НУРлЧбСі 10УЪГЊ СіГЕДй.

  000f0	a1 00 00 00 00	 mov	 eax, DWORD PTR ?g_tmCurrent@@3KA ; g_tmCurrent
  000f5	2b 46 4c	 sub	 eax, DWORD PTR [esi+76]
  000f8	3d 10 27 00 00	 cmp	 eax, 10000		; 00002710H
  000fd	0f 82 2b 02 00
	00		 jb	 $LN29@MoveProces

; 969  : 		{
; 970  : 			// СІДыЗЮ ИјЕЙОЦАЁАэ РжДйАэ ЦЧДмЧЯАэ НУРлСіСЁРИЗЮ ПіЧСНУХД.
; 971  : 			pMover->SetPos( m_vPosBegin );

  00103	53		 push	 ebx
  00104	8b cf		 mov	 ecx, edi
  00106	e8 00 00 00 00	 call	 ?SetPos@CObj@@QAEXABUD3DXVECTOR3@@@Z ; CObj::SetPos

; 972  : 			g_UserMng.AddSetPos( pMover, m_vPosBegin );

  0010b	53		 push	 ebx
  0010c	57		 push	 edi
  0010d	b9 00 00 00 00	 mov	 ecx, OFFSET ?g_UserMng@@3VCUserMng@@A ; g_UserMng
  00112	e8 00 00 00 00	 call	 ?AddSetPos@CUserMng@@QAEXPAVCCtrl@@AAUD3DXVECTOR3@@@Z ; CUserMng::AddSetPos

; 973  : 			m_tmReturnToBegin	= TIMEGETTIME;

  00117	a1 00 00 00 00	 mov	 eax, DWORD PTR ?g_tmCurrent@@3KA ; g_tmCurrent
  0011c	5f		 pop	 edi
  0011d	89 46 4c	 mov	 DWORD PTR [esi+76], eax

; 1055 : 						}
; 1056 : 					}
; 1057 : 				}
; 1058 : 			}	// if( target)
; 1059 : 		}	// if( scan )
; 1060 : 
; 1061 : 	}
; 1062 : 	return TRUE;
; 1063 : }

  00120	b8 01 00 00 00	 mov	 eax, 1
  00125	5e		 pop	 esi
  00126	5b		 pop	 ebx
  00127	8b 4d fc	 mov	 ecx, DWORD PTR __$ArrayPad$[ebp]
  0012a	33 cd		 xor	 ecx, ebp
  0012c	e8 00 00 00 00	 call	 @__security_check_cookie@4
  00131	8b e5		 mov	 esp, ebp
  00133	5d		 pop	 ebp
  00134	c2 04 00	 ret	 4
$LN4@MoveProces:

; 974  : 		}
; 975  : 	}
; 976  : 	else
; 977  : 	{
; 978  : 		if( pMover->GetMovePattern() == 0 )	// РЯЙн ЦаХЯРЬЕПРЯЖЇИИ ЕщОюАЃДй.

  00137	83 bf c0 14 00
	00 00		 cmp	 DWORD PTR [edi+5312], 0
  0013e	75 18		 jne	 SHORT $LN8@MoveProces

; 979  : 		{
; 980  : 			D3DXVECTOR3 vPos1 = pMover->GetPos();
; 981  : 			D3DXVECTOR3 vPos2 = m_vDestPos;
; 982  : 
; 983  : 			if( IsEndStop() )

  00140	8b ce		 mov	 ecx, esi
  00142	e8 00 00 00 00	 call	 ?IsEndStop@CAIMonster@@IAEHXZ ; CAIMonster::IsEndStop
  00147	85 c0		 test	 eax, eax
  00149	74 1f		 je	 SHORT $LN11@MoveProces

; 984  : 			{
; 985  : 				MoveToDst( m_vDestPos );

  0014b	8d 46 5c	 lea	 eax, DWORD PTR [esi+92]
  0014e	8b ce		 mov	 ecx, esi
  00150	50		 push	 eax
  00151	e8 00 00 00 00	 call	 ?MoveToDst@CAIMonster@@IAEXABUD3DXVECTOR3@@@Z ; CAIMonster::MoveToDst

; 986  : 			}
; 987  : 		}

  00156	eb 12		 jmp	 SHORT $LN11@MoveProces
$LN8@MoveProces:

; 988  : 		else								// 8РкКёЧрСп		
; 989  : 		{
; 990  : 			if( pMover->GetMoveEvent() == 99 )		// ЦаХЯКёЧр ГЁ.

  00158	83 bf c4 14 00
	00 63		 cmp	 DWORD PTR [edi+5316], 99 ; 00000063H
  0015f	75 09		 jne	 SHORT $LN11@MoveProces

; 991  : 				pMover->SetMovePattern( 0 );		// РЯЙнРЬЕПРИЗЮ РќШЏ.

  00161	6a 00		 push	 0
  00163	8b cf		 mov	 ecx, edi
  00165	e8 00 00 00 00	 call	 ?SetMovePattern@CMover@@QAEXH@Z ; CMover::SetMovePattern
$LN11@MoveProces:

; 992  : 		}
; 993  : 
; 994  : 		// ЗчЦУПЩМЧРЬ РжДТ ИїРЬДй.
; 995  : 		if( pProp->m_nLoot )

  0016a	83 bb 3c 02 00
	00 00		 cmp	 DWORD PTR [ebx+572], 0
  00171	74 4f		 je	 SHORT $LN16@MoveProces

; 996  : 		{
; 997  : 			if( (pMover->GetCount() & 63) == 0 )		// АЁВћОП СжКЏРЛ НКФЕЧиМ­.(63РЬИщ Ор 4.2УЪ)

  00173	f6 87 dc 14 00
	00 3f		 test	 BYTE PTR [edi+5340], 63	; 0000003fH
  0017a	75 46		 jne	 SHORT $LN16@MoveProces

; 999  : 				if( pProp->m_nLootProb == 0 || (int)( xRandom(100) ) < pProp->m_nLootProb  )	// Е№ЦњЦЎАЊ(0)РК 100% / РЬАХГЊ ЗчЦУШЎЗќПЁ ЕщОюАЁИщ ЗчЦУНУЕЕ

  0017c	83 bb 40 02 00
	00 00		 cmp	 DWORD PTR [ebx+576], 0
  00183	74 2d		 je	 SHORT $LN15@MoveProces
; File C:\IAGOS\server\v18\Source\Source\_Common\xUtil.h

; 16   : 	g_next = g_next * 1103515245 + 12345;// + nRandomSeed[ i++ ];

  00185	69 0d 00 00 00
	00 6d 4e c6 41	 imul	 ecx, DWORD PTR ?g_next@@3KA, 1103515245 ; g_next

; 22   : 	return  xRand() % num;

  0018f	b8 1f 85 eb 51	 mov	 eax, 1374389535		; 51eb851fH

; 16   : 	g_next = g_next * 1103515245 + 12345;// + nRandomSeed[ i++ ];

  00194	81 c1 39 30 00
	00		 add	 ecx, 12345		; 00003039H

; 22   : 	return  xRand() % num;

  0019a	f7 e1		 mul	 ecx

; 16   : 	g_next = g_next * 1103515245 + 12345;// + nRandomSeed[ i++ ];

  0019c	89 0d 00 00 00
	00		 mov	 DWORD PTR ?g_next@@3KA, ecx ; g_next

; 22   : 	return  xRand() % num;

  001a2	c1 ea 05	 shr	 edx, 5
  001a5	6b c2 64	 imul	 eax, edx, 100
  001a8	2b c8		 sub	 ecx, eax
; File C:\IAGOS\server\v18\Source\Source\_aiinterface\aimonster.cpp

; 999  : 				if( pProp->m_nLootProb == 0 || (int)( xRandom(100) ) < pProp->m_nLootProb  )	// Е№ЦњЦЎАЊ(0)РК 100% / РЬАХГЊ ЗчЦУШЎЗќПЁ ЕщОюАЁИщ ЗчЦУНУЕЕ

  001aa	3b 8b 40 02 00
	00		 cmp	 ecx, DWORD PTR [ebx+576]
  001b0	7d 10		 jge	 SHORT $LN16@MoveProces
$LN15@MoveProces:

; 1000 : 					if( m_bLootMove == FALSE )		// ЗчЦУЧЯЗЏ АЁАэ РжРЛЖЇ ЖЧ УМХЉЧЯИщ ОШ

  001b2	83 be d4 00 00
	00 00		 cmp	 DWORD PTR [esi+212], 0
  001b9	75 07		 jne	 SHORT $LN16@MoveProces

; 1001 : 						SubItemLoot();		// ОЦРЬХлРЛ ЗчЦУЧд.

  001bb	8b ce		 mov	 ecx, esi
  001bd	e8 00 00 00 00	 call	 ?SubItemLoot@CAIMonster@@IAEHXZ ; CAIMonster::SubItemLoot
$LN16@MoveProces:

; 1002 : 			}
; 1003 : 		}
; 1004 : 
; 1005 : 		if( m_bLootMove == TRUE )

  001c2	83 be d4 00 00
	00 01		 cmp	 DWORD PTR [esi+212], 1
  001c9	75 4f		 jne	 SHORT $LN18@MoveProces

; 1006 : 		{
; 1007 : 			CCtrl *pCtrl = prj.GetCtrl( m_idLootItem );		// БзОЦРЬХлРЬ ЛчЖѓСГРЛМі РжРИДЯБю АЫЛчЧд.

  001cb	ff b6 ec 00 00
	00		 push	 DWORD PTR [esi+236]
  001d1	b9 00 00 00 00	 mov	 ecx, OFFSET ?prj@@3VCProject@@A ; prj
  001d6	e8 00 00 00 00	 call	 ?GetCtrl@CProject@@QAEPAVCCtrl@@K@Z ; CProject::GetCtrl
; File C:\IAGOS\server\v18\Source\Source\_Common\Obj.h

; 327  : 	return pObj && ( pObj->IsDelete() == FALSE ); 

  001db	85 c0		 test	 eax, eax
  001dd	74 06		 je	 SHORT $LN87@MoveProces

; 180  : 	BOOL			IsDelete()	{ return (m_dwFlags & OBJ_FLAG_DELETE);  }

  001df	f6 40 04 01	 test	 BYTE PTR [eax+4], 1

; 327  : 	return pObj && ( pObj->IsDelete() == FALSE ); 

  001e3	74 35		 je	 SHORT $LN18@MoveProces
$LN87@MoveProces:

; 215  : 	D3DXVECTOR3		GetPos()	{ return m_vPos; }

  001e5	8b 87 68 01 00
	00		 mov	 eax, DWORD PTR [edi+360]
; File C:\IAGOS\server\v18\Source\Source\_aiinterface\aimonster.cpp

; 1010 : 				MoveToDst( pMover->GetPos() );	// СІРкИЎПЁ МЖ.

  001eb	8b ce		 mov	 ecx, esi
; File C:\IAGOS\server\v18\Source\Source\_Common\Obj.h

; 215  : 	D3DXVECTOR3		GetPos()	{ return m_vPos; }

  001ed	f3 0f 7e 87 60
	01 00 00	 movq	 xmm0, QWORD PTR [edi+352]
  001f5	89 45 f8	 mov	 DWORD PTR $T3[ebp+8], eax
; File C:\IAGOS\server\v18\Source\Source\_aiinterface\aimonster.cpp

; 1010 : 				MoveToDst( pMover->GetPos() );	// СІРкИЎПЁ МЖ.

  001f8	8d 45 f0	 lea	 eax, DWORD PTR $T3[ebp]
  001fb	50		 push	 eax
; File C:\IAGOS\server\v18\Source\Source\_Common\Obj.h

; 215  : 	D3DXVECTOR3		GetPos()	{ return m_vPos; }

  001fc	66 0f d6 45 f0	 movq	 QWORD PTR $T3[ebp], xmm0
; File C:\IAGOS\server\v18\Source\Source\_aiinterface\aimonster.cpp

; 1010 : 				MoveToDst( pMover->GetPos() );	// СІРкИЎПЁ МЖ.

  00201	e8 00 00 00 00	 call	 ?MoveToDst@CAIMonster@@IAEXABUD3DXVECTOR3@@@Z ; CAIMonster::MoveToDst

; 1011 : 				m_idLootItem = NULL_ID;

  00206	c7 86 ec 00 00
	00 ff ff ff ff	 mov	 DWORD PTR [esi+236], -1

; 1012 : 				m_bLootMove = FALSE;

  00210	c7 86 d4 00 00
	00 00 00 00 00	 mov	 DWORD PTR [esi+212], 0
$LN18@MoveProces:

; 1013 : 			}
; 1014 : 		}
; 1015 : 
; 1016 : 		// -1 РЬИщ ОЦЙЋАЭЕЕ НКФЕЧЯСі ОЪДТДй!!!
; 1017 : 		if( pProp->m_nScanJob != -1 )

  0021a	8b 8b dc 01 00
	00		 mov	 ecx, DWORD PTR [ebx+476]
  00220	83 f9 ff	 cmp	 ecx, -1
  00223	0f 84 05 01 00
	00		 je	 $LN29@MoveProces

; 1018 : 		{
; 1019 : 			CMover* pTarget = NULL;
; 1020 : 			int nAttackFirstRange = pProp->m_nAttackFirstRange;

  00229	0f bf 93 86 02
	00 00		 movsx	 edx, WORD PTR [ebx+646]
  00230	89 55 e8	 mov	 DWORD PTR _nAttackFirstRange$1$[ebp], edx

; 1021 : #if __VER >= 18
; 1022 : 			if( nAttackFirstRange > 60 || nAttackFirstRange <= 0 )

  00233	8d 42 ff	 lea	 eax, DWORD PTR [edx-1]
  00236	83 f8 3b	 cmp	 eax, 59			; 0000003bH
  00239	0f 87 d0 00 00
	00		 ja	 $LN21@MoveProces

; 1028 : 				return TRUE;
; 1029 : 			}
; 1030 : 
; 1031 : 			// ОюЖВ СЖАЧПЁ ЧиДчЧЯДТ ЧУЗЙРЬОюАЁ РжДТСі НКФЫЧбДй.
; 1032 : 			if( pProp->m_nScanJob || pProp->m_dwScanQuestId || pProp->m_dwScanItemIdx || pProp->m_nScanChao )

  0023f	85 c9		 test	 ecx, ecx
  00241	75 18		 jne	 SHORT $LN23@MoveProces
  00243	39 8b 44 02 00
	00		 cmp	 DWORD PTR [ebx+580], ecx
  00249	75 10		 jne	 SHORT $LN23@MoveProces
  0024b	39 8b 48 02 00
	00		 cmp	 DWORD PTR [ebx+584], ecx
  00251	75 08		 jne	 SHORT $LN23@MoveProces
  00253	39 8b 4c 02 00
	00		 cmp	 DWORD PTR [ebx+588], ecx
  00259	74 26		 je	 SHORT $LN85@MoveProces
$LN23@MoveProces:

; 1033 : 				pTarget = ScanTarget( pMover, nAttackFirstRange, pProp->m_nScanJob, pProp->m_dwScanQuestId, pProp->m_dwScanItemIdx, pProp->m_nScanChao );

  0025b	ff b3 4c 02 00
	00		 push	 DWORD PTR [ebx+588]
  00261	ff b3 48 02 00
	00		 push	 DWORD PTR [ebx+584]
  00267	ff b3 44 02 00
	00		 push	 DWORD PTR [ebx+580]
  0026d	51		 push	 ecx
  0026e	52		 push	 edx
  0026f	57		 push	 edi
  00270	8b ce		 mov	 ecx, esi
  00272	e8 00 00 00 00	 call	 ?ScanTarget@CAIInterface@@IAEPAVCMover@@PAVCObj@@HHKKH@Z ; CAIInterface::ScanTarget
  00277	89 45 ec	 mov	 DWORD PTR _pTarget$1$[ebp], eax

; 1034 : 
; 1035 : 			// СЖАЧПЁ ИТДТ ЧУЗЙРЬОюАЁ ОјАэ МБАјИїРЬИщ МБАјИї ЧќХТРЧ НКФЫРЛ ЧбДй.
; 1036 : 			if( pTarget == NULL && GetMover()->m_bActiveAttack )

  0027a	85 c0		 test	 eax, eax
  0027c	75 2f		 jne	 SHORT $LN84@MoveProces
  0027e	8b 55 e8	 mov	 edx, DWORD PTR _nAttackFirstRange$1$[ebp]
$LN85@MoveProces:
  00281	8b 46 30	 mov	 eax, DWORD PTR [esi+48]
  00284	83 b8 68 06 00
	00 00		 cmp	 DWORD PTR [eax+1640], 0
  0028b	0f 84 9d 00 00
	00		 je	 $LN29@MoveProces

; 1037 : 				pTarget = ScanTarget( pMover, nAttackFirstRange, JOB_ALL );

  00291	6a 00		 push	 0
  00293	6a 00		 push	 0
  00295	6a 00		 push	 0
  00297	6a 28		 push	 40			; 00000028H
  00299	52		 push	 edx
  0029a	57		 push	 edi
  0029b	8b ce		 mov	 ecx, esi
  0029d	e8 00 00 00 00	 call	 ?ScanTarget@CAIInterface@@IAEPAVCMover@@PAVCObj@@HHKKH@Z ; CAIInterface::ScanTarget
  002a2	89 45 ec	 mov	 DWORD PTR _pTarget$1$[ebp], eax

; 1038 : 
; 1039 : 			if( pTarget )

  002a5	85 c0		 test	 eax, eax
  002a7	0f 84 81 00 00
	00		 je	 $LN29@MoveProces
$LN84@MoveProces:
; File C:\IAGOS\server\v18\Source\Source\_Common\Obj.h

; 180  : 	BOOL			IsDelete()	{ return (m_dwFlags & OBJ_FLAG_DELETE);  }

  002ad	f6 40 04 01	 test	 BYTE PTR [eax+4], 1

; 327  : 	return pObj && ( pObj->IsDelete() == FALSE ); 

  002b1	75 7b		 jne	 SHORT $LN29@MoveProces
; File C:\IAGOS\server\v18\Source\Source\_aiinterface\aimonster.cpp

; 1047 : 					if( (pMover->IsFlyingNPC() || pTarget->m_pActMover->IsFly() == FALSE) || pProp->dwClass == RANK_GUARD )	// АЁЕхДТ ЙЋСЖАЧ АјАн.

  002b3	f7 87 3c 02 00
	00 00 00 01 00	 test	 DWORD PTR [edi+572], 65536 ; 00010000H
  002bd	75 15		 jne	 SHORT $LN28@MoveProces
  002bf	8b 80 38 02 00
	00		 mov	 eax, DWORD PTR [eax+568]
  002c5	f6 40 08 08	 test	 BYTE PTR [eax+8], 8
  002c9	74 09		 je	 SHORT $LN28@MoveProces
  002cb	83 bb 94 00 00
	00 08		 cmp	 DWORD PTR [ebx+148], 8
  002d2	75 5a		 jne	 SHORT $LN29@MoveProces
$LN28@MoveProces:

; 1048 : #endif	// __VER >= 8  
; 1049 : 					{
; 1050 : 						// ХИАйРЬ СИРчЧЯИщ УпРћ И№ЕхЗЮ КЏАц 
; 1051 : 						if( pTarget )	
; 1052 : 						{
; 1053 : 							g_UserMng.AddDlgEmoticon( pMover, DLGEMOT_ATTACK );

  002d4	6a 00		 push	 0
  002d6	57		 push	 edi
  002d7	b9 00 00 00 00	 mov	 ecx, OFFSET ?g_UserMng@@3VCUserMng@@A ; g_UserMng
  002dc	e8 00 00 00 00	 call	 ?AddDlgEmoticon@CUserMng@@QAEXPAVCCtrl@@H@Z ; CUserMng::AddDlgEmoticon

; 1054 : 							SendAIMsg( AIMSG_SETSTATE, STATE_RAGE_PATROL, pTarget->GetId() );

  002e1	8b 4d ec	 mov	 ecx, DWORD PTR _pTarget$1$[ebp]
  002e4	8b 06		 mov	 eax, DWORD PTR [esi]
  002e6	6a 00		 push	 0
  002e8	ff b1 bc 01 00
	00		 push	 DWORD PTR [ecx+444]
  002ee	8b ce		 mov	 ecx, esi
  002f0	6a 0a		 push	 10			; 0000000aH
  002f2	6a 04		 push	 4
  002f4	ff 50 0c	 call	 DWORD PTR [eax+12]
  002f7	5f		 pop	 edi

; 1055 : 						}
; 1056 : 					}
; 1057 : 				}
; 1058 : 			}	// if( target)
; 1059 : 		}	// if( scan )
; 1060 : 
; 1061 : 	}
; 1062 : 	return TRUE;
; 1063 : }

  002f8	5e		 pop	 esi
  002f9	b8 01 00 00 00	 mov	 eax, 1
  002fe	5b		 pop	 ebx
  002ff	8b 4d fc	 mov	 ecx, DWORD PTR __$ArrayPad$[ebp]
  00302	33 cd		 xor	 ecx, ebp
  00304	e8 00 00 00 00	 call	 @__security_check_cookie@4
  00309	8b e5		 mov	 esp, ebp
  0030b	5d		 pop	 ebp
  0030c	c2 04 00	 ret	 4
$LN21@MoveProces:

; 1023 : #else
; 1024 : 			if( nAttackFirstRange > 10 || nAttackFirstRange <= 0 )
; 1025 : #endif
; 1026 : 			{
; 1027 : 				Error( "m_nAttackFirstRange РЬЛѓ:%d %s\n", pProp->m_nAttackFirstRange, pMover->GetName() );

  0030f	0f bf b3 86 02
	00 00		 movsx	 esi, WORD PTR [ebx+646]
  00316	8b cf		 mov	 ecx, edi
  00318	6a 00		 push	 0
  0031a	e8 00 00 00 00	 call	 ?GetName@CMover@@QAEPBDH@Z ; CMover::GetName
  0031f	50		 push	 eax
  00320	56		 push	 esi
  00321	68 00 00 00 00	 push	 OFFSET ??_C@_0CA@GLBIGGGO@m_nAttackFirstRange?5?$MA?L?$LL?s?3?$CFd?5?$CFs?6@
  00326	e8 00 00 00 00	 call	 ?Error@@YAPBDPBDZZ	; Error
  0032b	83 c4 0c	 add	 esp, 12			; 0000000cH
$LN29@MoveProces:

; 1055 : 						}
; 1056 : 					}
; 1057 : 				}
; 1058 : 			}	// if( target)
; 1059 : 		}	// if( scan )
; 1060 : 
; 1061 : 	}
; 1062 : 	return TRUE;
; 1063 : }

  0032e	5f		 pop	 edi
  0032f	5e		 pop	 esi
  00330	b8 01 00 00 00	 mov	 eax, 1
  00335	5b		 pop	 ebx
  00336	8b 4d fc	 mov	 ecx, DWORD PTR __$ArrayPad$[ebp]
  00339	33 cd		 xor	 ecx, ebp
  0033b	e8 00 00 00 00	 call	 @__security_check_cookie@4
  00340	8b e5		 mov	 esp, ebp
  00342	5d		 pop	 ebp
  00343	c2 04 00	 ret	 4
$LN3@MoveProces:
  00346	8b 4d fc	 mov	 ecx, DWORD PTR __$ArrayPad$[ebp]
  00349	33 c0		 xor	 eax, eax
  0034b	5f		 pop	 edi
  0034c	5e		 pop	 esi
  0034d	33 cd		 xor	 ecx, ebp
  0034f	5b		 pop	 ebx
  00350	e8 00 00 00 00	 call	 @__security_check_cookie@4
  00355	8b e5		 mov	 esp, ebp
  00357	5d		 pop	 ebp
  00358	c2 04 00	 ret	 4
?MoveProcessPatrol@CAIMonster@@IAEHABUAIMSG@@@Z ENDP	; CAIMonster::MoveProcessPatrol
_TEXT	ENDS
; Function compile flags: /Ogtp
; File C:\IAGOS\server\v18\Source\Source\_aiinterface\aimonster.cpp
; File C:\IAGOS\server\v18\Source\Source\_Common\Project.h
; File C:\IAGOS\server\v18\Source\Source\_aiinterface\aimonster.cpp
; File C:\IAGOS\server\v18\Source\Source\_Common\Mover.h
; File C:\IAGOS\server\v18\Source\Source\_Common\Project.h
; File C:\IAGOS\server\v18\Source\Source\_AIInterface\Action.h
; File C:\IAGOS\server\v18\Source\Source\_Common\Mover.h
; File C:\IAGOS\server\v18\Source\Source\_aiinterface\aimonster.cpp
; File C:\IAGOS\server\v18\Source\Source\_Common\Obj.h
; File C:\IAGOS\server\v18\Source\Source\_aiinterface\aimonster.cpp
; File C:\IAGOS\server\v18\Source\Source\_Common\Obj.h
; File C:\IAGOS\server\v18\Source\Source\DX_SDK\d3dx9math.inl
; File C:\IAGOS\server\v18\Source\Source\_Common\Obj.h
; File C:\IAGOS\server\v18\Source\Source\_aiinterface\aimonster.cpp
; File C:\IAGOS\server\v18\Source\Source\DX_SDK\d3dx9math.inl
; File C:\IAGOS\server\v18\Source\Source\_aiinterface\aimonster.cpp
; File C:\IAGOS\server\v18\Source\Source\_Common\xUtil.h
; File C:\IAGOS\server\v18\Source\Source\_aiinterface\aimonster.cpp
; File C:\IAGOS\server\v18\Source\Source\_Common\Obj.h
; File C:\IAGOS\server\v18\Source\Source\_aiinterface\aimonster.cpp
; File C:\IAGOS\server\v18\Source\Source\_Common\Obj.h
; File C:\IAGOS\server\v18\Source\Source\_aiinterface\aimonster.cpp
; File C:\IAGOS\server\v18\Source\Source\_Common\Obj.h
; File C:\IAGOS\server\v18\Source\Source\_aiinterface\aimonster.cpp
; File C:\IAGOS\server\v18\Source\Source\_Common\Obj.h
; File C:\IAGOS\server\v18\Source\Source\_aiinterface\aimonster.cpp
;	COMDAT ?MoveProcessStand@CAIMonster@@IAEHABUAIMSG@@@Z
_TEXT	SEGMENT
$T1 = -36						; size = 12
_nAttackFirstRange$1$ = -24				; size = 4
_pTarget$1$ = -20					; size = 4
$T2 = -16						; size = 12
$T3 = -16						; size = 12
__$ArrayPad$ = -4					; size = 4
_msg$ = 8						; size = 4
?MoveProcessStand@CAIMonster@@IAEHABUAIMSG@@@Z PROC	; CAIMonster::MoveProcessStand, COMDAT
; _this$ = ecx

; 784  : {

  00000	55		 push	 ebp
  00001	8b ec		 mov	 ebp, esp
  00003	83 ec 24	 sub	 esp, 36			; 00000024H
  00006	a1 00 00 00 00	 mov	 eax, DWORD PTR ___security_cookie
  0000b	33 c5		 xor	 eax, ebp
  0000d	89 45 fc	 mov	 DWORD PTR __$ArrayPad$[ebp], eax
  00010	53		 push	 ebx
  00011	56		 push	 esi
  00012	8b f1		 mov	 esi, ecx
; File C:\IAGOS\server\v18\Source\Source\_Common\Project.h

; 1406 : 	VERIFY_RANGE( nIndex, 0, m_nMoverPropSize, "GetMoverProp range_error", NULL );

  00014	8b 0d b4 01 00
	00		 mov	 ecx, DWORD PTR ?prj@@3VCProject@@A+436
; File C:\IAGOS\server\v18\Source\Source\_aiinterface\aimonster.cpp

; 784  : {

  0001a	57		 push	 edi

; 785  : 	CMover* pMover = GetMover();

  0001b	8b 7e 30	 mov	 edi, DWORD PTR [esi+48]
; File C:\IAGOS\server\v18\Source\Source\_Common\Mover.h

; 1020 : 	MoverProp*		GetProp() { return prj.GetMoverProp( m_dwIndex ); }	// АДУМРЧ ЧСЗЮЦлЦМ ОђБт 	

  0001e	8b 87 74 01 00
	00		 mov	 eax, DWORD PTR [edi+372]
; File C:\IAGOS\server\v18\Source\Source\_Common\Project.h

; 1406 : 	VERIFY_RANGE( nIndex, 0, m_nMoverPropSize, "GetMoverProp range_error", NULL );

  00024	85 c0		 test	 eax, eax
  00026	78 12		 js	 SHORT $LN39@MoveProces
  00028	3b c1		 cmp	 eax, ecx
  0002a	7d 0e		 jge	 SHORT $LN39@MoveProces

; 1407 : 	return m_pPropMover + nIndex;

  0002c	69 d8 90 06 00
	00		 imul	 ebx, eax, 1680
  00032	03 1d b8 01 00
	00		 add	 ebx, DWORD PTR ?prj@@3VCProject@@A+440
  00038	eb 18		 jmp	 SHORT $LN34@MoveProces
$LN39@MoveProces:

; 579  : 	LPCTSTR szErr = Error( _T( "%s min:%d, max:%d, index:%d" ), szMsg, nMin, nMax, nIndex ); 

  0003a	50		 push	 eax
  0003b	51		 push	 ecx
  0003c	6a 00		 push	 0
  0003e	68 00 00 00 00	 push	 OFFSET ??_C@_0BJ@GKPOBPPI@GetMoverProp?5range_error@
  00043	68 00 00 00 00	 push	 OFFSET ??_C@_0BM@HMFGHCP@?$CFs?5min?3?$CFd?0?5max?3?$CFd?0?5index?3?$CFd@
  00048	e8 00 00 00 00	 call	 ?Error@@YAPBDPBDZZ	; Error
  0004d	83 c4 14	 add	 esp, 20			; 00000014H

; 1406 : 	VERIFY_RANGE( nIndex, 0, m_nMoverPropSize, "GetMoverProp range_error", NULL );

  00050	33 db		 xor	 ebx, ebx
$LN34@MoveProces:
; File C:\IAGOS\server\v18\Source\Source\_AIInterface\Action.h

; 310  : 	BOOL			IsDie() { return (m_dwState & OBJSTA_DIE_ALL) ? TRUE : FALSE; }

  00052	8b 87 38 02 00
	00		 mov	 eax, DWORD PTR [edi+568]
  00058	8b 40 04	 mov	 eax, DWORD PTR [eax+4]
; File C:\IAGOS\server\v18\Source\Source\_Common\Mover.h

; 1250 : 	BOOL			IsDie() { return m_pActMover->IsDie() || m_nHitPoint == 0; }

  0005b	a9 00 00 00 08	 test	 eax, 134217728		; 08000000H
  00060	0f 85 07 03 00
	00		 jne	 $LN3@MoveProces
  00066	83 bf f8 05 00
	00 00		 cmp	 DWORD PTR [edi+1528], 0
  0006d	0f 84 fa 02 00
	00		 je	 $LN3@MoveProces
; File C:\IAGOS\server\v18\Source\Source\_aiinterface\aimonster.cpp

; 790  : 	if( pMover->IsDie() || (pMover->m_pActMover->GetState() & OBJSTA_DMG_FLY_ALL) )

  00073	a9 00 00 00 02	 test	 eax, 33554432		; 02000000H
  00078	0f 85 ef 02 00
	00		 jne	 $LN3@MoveProces

; 791  : 		return FALSE;
; 792  : 
; 793  : 	// НКЦљ РхМвЗЮ БЭШЏ 
; 794  : 	if( m_bReturnToBegin )

  0007e	83 be bc 00 00
	00 00		 cmp	 DWORD PTR [esi+188], 0
  00085	0f 84 eb 00 00
	00		 je	 $LN4@MoveProces
; File C:\IAGOS\server\v18\Source\Source\_Common\Obj.h

; 215  : 	D3DXVECTOR3		GetPos()	{ return m_vPos; }

  0008b	f3 0f 7e 87 60
	01 00 00	 movq	 xmm0, QWORD PTR [edi+352]
; File C:\IAGOS\server\v18\Source\Source\_aiinterface\aimonster.cpp

; 796  : 		if( IsInRange( m_vPosBegin - pMover->GetPos(), 0.1f ) )		// НУРлСіСЁРИЗЮ ЕЙОЦПдДй.

  00093	8d 5e 50	 lea	 ebx, DWORD PTR [esi+80]
; File C:\IAGOS\server\v18\Source\Source\_Common\Obj.h

; 215  : 	D3DXVECTOR3		GetPos()	{ return m_vPos; }

  00096	8b 87 68 01 00
	00		 mov	 eax, DWORD PTR [edi+360]
  0009c	66 0f d6 45 dc	 movq	 QWORD PTR $T1[ebp], xmm0
; File C:\IAGOS\server\v18\Source\Source\DX_SDK\d3dx9math.inl

; 383  :     return D3DXVECTOR3(x - v.x, y - v.y, z - v.z);

  000a1	f3 0f 10 03	 movss	 xmm0, DWORD PTR [ebx]
  000a5	f3 0f 5c 45 dc	 subss	 xmm0, DWORD PTR $T1[ebp]
; File C:\IAGOS\server\v18\Source\Source\_Common\Obj.h

; 215  : 	D3DXVECTOR3		GetPos()	{ return m_vPos; }

  000aa	89 45 e4	 mov	 DWORD PTR $T1[ebp+8], eax
; File C:\IAGOS\server\v18\Source\Source\_aiinterface\aimonster.cpp

; 796  : 		if( IsInRange( m_vPosBegin - pMover->GetPos(), 0.1f ) )		// НУРлСіСЁРИЗЮ ЕЙОЦПдДй.

  000ad	8d 45 f0	 lea	 eax, DWORD PTR $T2[ebp]
  000b0	51		 push	 ecx
  000b1	c7 04 24 cd cc
	cc 3d		 mov	 DWORD PTR [esp], 1036831949 ; 3dcccccdH
  000b8	8b ce		 mov	 ecx, esi
  000ba	50		 push	 eax
; File C:\IAGOS\server\v18\Source\Source\DX_SDK\d3dx9math.inl

; 300  :     x = fx;

  000bb	f3 0f 11 45 f0	 movss	 DWORD PTR $T2[ebp], xmm0

; 383  :     return D3DXVECTOR3(x - v.x, y - v.y, z - v.z);

  000c0	f3 0f 10 43 04	 movss	 xmm0, DWORD PTR [ebx+4]
  000c5	f3 0f 5c 45 e0	 subss	 xmm0, DWORD PTR $T1[ebp+4]

; 301  :     y = fy;

  000ca	f3 0f 11 45 f4	 movss	 DWORD PTR $T2[ebp+4], xmm0

; 383  :     return D3DXVECTOR3(x - v.x, y - v.y, z - v.z);

  000cf	f3 0f 10 43 08	 movss	 xmm0, DWORD PTR [ebx+8]
  000d4	f3 0f 5c 45 e4	 subss	 xmm0, DWORD PTR $T1[ebp+8]

; 302  :     z = fz;

  000d9	f3 0f 11 45 f8	 movss	 DWORD PTR $T2[ebp+8], xmm0
; File C:\IAGOS\server\v18\Source\Source\_aiinterface\aimonster.cpp

; 796  : 		if( IsInRange( m_vPosBegin - pMover->GetPos(), 0.1f ) )		// НУРлСіСЁРИЗЮ ЕЙОЦПдДй.

  000de	e8 00 00 00 00	 call	 ?IsInRange@CAIMonster@@IAEHAAUD3DXVECTOR3@@M@Z ; CAIMonster::IsInRange
  000e3	85 c0		 test	 eax, eax
  000e5	74 48		 je	 SHORT $LN6@MoveProces

; 797  : 		{
; 798  : 			DoReturnToBegin( FALSE );

  000e7	6a 00		 push	 0
  000e9	8b ce		 mov	 ecx, esi
  000eb	e8 00 00 00 00	 call	 ?DoReturnToBegin@CAIMonster@@IAEXH@Z ; CAIMonster::DoReturnToBegin

; 799  : 			pMover->SetAngle( m_fAngleBegine );	

  000f0	f3 0f 10 86 b8
	00 00 00	 movss	 xmm0, DWORD PTR [esi+184]
  000f8	51		 push	 ecx
  000f9	8b cf		 mov	 ecx, edi
  000fb	f3 0f 11 04 24	 movss	 DWORD PTR [esp], xmm0
  00100	e8 00 00 00 00	 call	 ?SetAngle@CObj@@QAEXM@Z	; CObj::SetAngle

; 800  : 			g_UserMng.AddSetDestAngle( pMover, m_fAngleBegine, 0 );			

  00105	f3 0f 10 86 b8
	00 00 00	 movss	 xmm0, DWORD PTR [esi+184]
  0010d	6a 00		 push	 0
  0010f	51		 push	 ecx
  00110	f3 0f 11 04 24	 movss	 DWORD PTR [esp], xmm0
  00115	b9 00 00 00 00	 mov	 ecx, OFFSET ?g_UserMng@@3VCUserMng@@A ; g_UserMng
  0011a	57		 push	 edi
  0011b	e8 00 00 00 00	 call	 ?AddSetDestAngle@CUserMng@@QAEXPAVCMover@@ME@Z ; CUserMng::AddSetDestAngle

; 801  : 			SendAIMsg( AIMSG_ARRIVAL, NULL_ID );

  00120	8b 06		 mov	 eax, DWORD PTR [esi]
  00122	8b ce		 mov	 ecx, esi
  00124	6a 00		 push	 0
  00126	6a 00		 push	 0
  00128	6a ff		 push	 -1
  0012a	6a 0b		 push	 11			; 0000000bH
  0012c	ff 50 0c	 call	 DWORD PTR [eax+12]
$LN6@MoveProces:

; 802  : 		}
; 803  : #if __VER < 9	// __AI_0509
; 804  : 		else if( m_dwIdTarget != NULL_ID )	// ГюАэРжДј СпПЁ РќПЁ ІiДј РћРЬ РжРИИщ РчАјАн
; 805  : 		{
; 806  : 			if( TIMEGETTIME - m_tmReturnToBegin > SEC(5) )		// ЕЙОЦАЁБт НУРлЧбСі 5УЪДТ СіГЊОп ДйНУ ЙнАнЧбДй.
; 807  : 			{
; 808  : 				int nAttackFirstRange = pProp->m_nAttackFirstRange;		//??
; 809  : 				CMover* pTarget = prj.GetMover( m_dwIdTarget );
; 810  : 				if( IsValidObj(pTarget) )
; 811  : 				{
; 812  : 					D3DXVECTOR3 vDist = pTarget->GetPos() - pMover->GetPos();
; 813  : 					FLOAT fDistSq = D3DXVec3LengthSq( &vDist );
; 814  : 					if( fDistSq < (float)(nAttackFirstRange * nAttackFirstRange) )	// ХИАйРЬ АХИЎГЛПЁ ЕщОюПРИщ
; 815  : 					{
; 816  : 
; 817  : #ifdef __JHMA_VER_8_6     // 8Тї ИѓНКХЭАЁ РњАјКёЧрРЏРњИІ АјАнАЁДЩЧЯАдЧд   World
; 818  : 						if( pMover->IsFlyingNPC() == pTarget->m_pActMover->IsFly() || pMover->IsFlyingNPC() == FALSE )	
; 819  : #else	// __VER >= 8  
; 820  : 						// thisЖћ ХИАйРЬЖћ СіЛѓ-СіЛѓ, КёЧр-КёЧр РЬИщ 
; 821  : 						if( pMover->IsFlyingNPC() == pTarget->m_pActMover->IsFly() )	
; 822  : #endif	// __VER >= 8  
; 823  : 							SendAIMsg( AIMSG_SETSTATE, STATE_RAGE, NULL_ID );	// ДйНУ АјАн
; 824  : 					}
; 825  : 				}
; 826  : 			}
; 827  : 		}
; 828  : #endif	// __AI_0509
; 829  : 
; 830  : #ifdef __AI_0905
; 831  : 		if( TIMEGETTIME - m_tmReturnToBegin >= SEC(20) )
; 832  : #else	// __AI_0905
; 833  : 		if( TIMEGETTIME - m_tmReturnToBegin >= SEC(10) )	// С§РИЗЮ ЕЙОЦАЁБт НУРлЧбСі 10УЪГЊ СіГЕДй.

  0012f	a1 00 00 00 00	 mov	 eax, DWORD PTR ?g_tmCurrent@@3KA ; g_tmCurrent
  00134	2b 46 4c	 sub	 eax, DWORD PTR [esi+76]
  00137	3d 10 27 00 00	 cmp	 eax, 10000		; 00002710H
  0013c	0f 82 13 02 00
	00		 jb	 $LN28@MoveProces

; 834  : #endif	// __AI_0905
; 835  : 		{
; 836  : 			// СІДыЗЮ ИјЕЙОЦАЁАэ РжДйАэ ЦЧДмЧЯАэ НУРлСіСЁРИЗЮ ПіЧСНУХД.
; 837  : 			pMover->SetPos( m_vPosBegin );

  00142	53		 push	 ebx
  00143	8b cf		 mov	 ecx, edi
  00145	e8 00 00 00 00	 call	 ?SetPos@CObj@@QAEXABUD3DXVECTOR3@@@Z ; CObj::SetPos

; 838  : 			g_UserMng.AddSetPos( pMover, m_vPosBegin );

  0014a	53		 push	 ebx
  0014b	57		 push	 edi
  0014c	b9 00 00 00 00	 mov	 ecx, OFFSET ?g_UserMng@@3VCUserMng@@A ; g_UserMng
  00151	e8 00 00 00 00	 call	 ?AddSetPos@CUserMng@@QAEXPAVCCtrl@@AAUD3DXVECTOR3@@@Z ; CUserMng::AddSetPos

; 839  : 			m_tmReturnToBegin	= TIMEGETTIME;

  00156	a1 00 00 00 00	 mov	 eax, DWORD PTR ?g_tmCurrent@@3KA ; g_tmCurrent
  0015b	5f		 pop	 edi
  0015c	89 46 4c	 mov	 DWORD PTR [esi+76], eax

; 914  : 						}
; 915  : 					}
; 916  : 				}
; 917  : 			}	// if( target)
; 918  : 		}	// if( scan )
; 919  : 
; 920  : 	}
; 921  : 	return TRUE;
; 922  : }

  0015f	b8 01 00 00 00	 mov	 eax, 1
  00164	5e		 pop	 esi
  00165	5b		 pop	 ebx
  00166	8b 4d fc	 mov	 ecx, DWORD PTR __$ArrayPad$[ebp]
  00169	33 cd		 xor	 ecx, ebp
  0016b	e8 00 00 00 00	 call	 @__security_check_cookie@4
  00170	8b e5		 mov	 esp, ebp
  00172	5d		 pop	 ebp
  00173	c2 04 00	 ret	 4
$LN4@MoveProces:

; 840  : 		}
; 841  : 	}
; 842  : 	else
; 843  : 	{
; 844  : 		if( pMover->GetMovePattern() == 0 )	// РЯЙн ЦаХЯРЬЕПРЯЖЇИИ ЕщОюАЃДй.

  00176	83 bf c0 14 00
	00 00		 cmp	 DWORD PTR [edi+5312], 0
  0017d	74 12		 je	 SHORT $LN10@MoveProces

; 845  : 		{
; 846  : 		}
; 847  : 		else								// 8РкКёЧрСп		
; 848  : 		{
; 849  : 			if( pMover->GetMoveEvent() == 99 )		// ЦаХЯКёЧр ГЁ.

  0017f	83 bf c4 14 00
	00 63		 cmp	 DWORD PTR [edi+5316], 99 ; 00000063H
  00186	75 09		 jne	 SHORT $LN10@MoveProces

; 850  : 				pMover->SetMovePattern( 0 );		// РЯЙнРЬЕПРИЗЮ РќШЏ.

  00188	6a 00		 push	 0
  0018a	8b cf		 mov	 ecx, edi
  0018c	e8 00 00 00 00	 call	 ?SetMovePattern@CMover@@QAEXH@Z ; CMover::SetMovePattern
$LN10@MoveProces:

; 851  : 		}
; 852  : 
; 853  : 		// ЗчЦУПЩМЧРЬ РжДТ ИїРЬДй.
; 854  : 		if( pProp->m_nLoot )

  00191	83 bb 3c 02 00
	00 00		 cmp	 DWORD PTR [ebx+572], 0
  00198	74 4f		 je	 SHORT $LN15@MoveProces

; 855  : 		{
; 856  : 			if( (pMover->GetCount() & 63) == 0 )		// АЁВћОП СжКЏРЛ НКФЕЧиМ­.(63РЬИщ Ор 4.2УЪ)

  0019a	f6 87 dc 14 00
	00 3f		 test	 BYTE PTR [edi+5340], 63	; 0000003fH
  001a1	75 46		 jne	 SHORT $LN15@MoveProces

; 858  : 				if( pProp->m_nLootProb == 0 || (int)( xRandom(100) ) < pProp->m_nLootProb  )	// Е№ЦњЦЎАЊ(0)РК 100% / РЬАХГЊ ЗчЦУШЎЗќПЁ ЕщОюАЁИщ ЗчЦУНУЕЕ

  001a3	83 bb 40 02 00
	00 00		 cmp	 DWORD PTR [ebx+576], 0
  001aa	74 2d		 je	 SHORT $LN14@MoveProces
; File C:\IAGOS\server\v18\Source\Source\_Common\xUtil.h

; 16   : 	g_next = g_next * 1103515245 + 12345;// + nRandomSeed[ i++ ];

  001ac	69 0d 00 00 00
	00 6d 4e c6 41	 imul	 ecx, DWORD PTR ?g_next@@3KA, 1103515245 ; g_next

; 22   : 	return  xRand() % num;

  001b6	b8 1f 85 eb 51	 mov	 eax, 1374389535		; 51eb851fH

; 16   : 	g_next = g_next * 1103515245 + 12345;// + nRandomSeed[ i++ ];

  001bb	81 c1 39 30 00
	00		 add	 ecx, 12345		; 00003039H

; 22   : 	return  xRand() % num;

  001c1	f7 e1		 mul	 ecx

; 16   : 	g_next = g_next * 1103515245 + 12345;// + nRandomSeed[ i++ ];

  001c3	89 0d 00 00 00
	00		 mov	 DWORD PTR ?g_next@@3KA, ecx ; g_next

; 22   : 	return  xRand() % num;

  001c9	c1 ea 05	 shr	 edx, 5
  001cc	6b c2 64	 imul	 eax, edx, 100
  001cf	2b c8		 sub	 ecx, eax
; File C:\IAGOS\server\v18\Source\Source\_aiinterface\aimonster.cpp

; 858  : 				if( pProp->m_nLootProb == 0 || (int)( xRandom(100) ) < pProp->m_nLootProb  )	// Е№ЦњЦЎАЊ(0)РК 100% / РЬАХГЊ ЗчЦУШЎЗќПЁ ЕщОюАЁИщ ЗчЦУНУЕЕ

  001d1	3b 8b 40 02 00
	00		 cmp	 ecx, DWORD PTR [ebx+576]
  001d7	7d 10		 jge	 SHORT $LN15@MoveProces
$LN14@MoveProces:

; 859  : 					if( m_bLootMove == FALSE )		// ЗчЦУЧЯЗЏ АЁАэ РжРЛЖЇ ЖЧ УМХЉЧЯИщ ОШ

  001d9	83 be d4 00 00
	00 00		 cmp	 DWORD PTR [esi+212], 0
  001e0	75 07		 jne	 SHORT $LN15@MoveProces

; 860  : 						SubItemLoot();		// ОЦРЬХлРЛ ЗчЦУЧд.

  001e2	8b ce		 mov	 ecx, esi
  001e4	e8 00 00 00 00	 call	 ?SubItemLoot@CAIMonster@@IAEHXZ ; CAIMonster::SubItemLoot
$LN15@MoveProces:

; 861  : 			}
; 862  : 		}
; 863  : 
; 864  : 		if( m_bLootMove == TRUE )

  001e9	83 be d4 00 00
	00 01		 cmp	 DWORD PTR [esi+212], 1
  001f0	75 4f		 jne	 SHORT $LN17@MoveProces

; 865  : 		{
; 866  : 			CCtrl *pCtrl = prj.GetCtrl( m_idLootItem );		// БзОЦРЬХлРЬ ЛчЖѓСГРЛМі РжРИДЯБю АЫЛчЧд.

  001f2	ff b6 ec 00 00
	00		 push	 DWORD PTR [esi+236]
  001f8	b9 00 00 00 00	 mov	 ecx, OFFSET ?prj@@3VCProject@@A ; prj
  001fd	e8 00 00 00 00	 call	 ?GetCtrl@CProject@@QAEPAVCCtrl@@K@Z ; CProject::GetCtrl
; File C:\IAGOS\server\v18\Source\Source\_Common\Obj.h

; 327  : 	return pObj && ( pObj->IsDelete() == FALSE ); 

  00202	85 c0		 test	 eax, eax
  00204	74 06		 je	 SHORT $LN84@MoveProces

; 180  : 	BOOL			IsDelete()	{ return (m_dwFlags & OBJ_FLAG_DELETE);  }

  00206	f6 40 04 01	 test	 BYTE PTR [eax+4], 1

; 327  : 	return pObj && ( pObj->IsDelete() == FALSE ); 

  0020a	74 35		 je	 SHORT $LN17@MoveProces
$LN84@MoveProces:

; 215  : 	D3DXVECTOR3		GetPos()	{ return m_vPos; }

  0020c	8b 87 68 01 00
	00		 mov	 eax, DWORD PTR [edi+360]
; File C:\IAGOS\server\v18\Source\Source\_aiinterface\aimonster.cpp

; 869  : 				MoveToDst( pMover->GetPos() );	// СІРкИЎПЁ МЖ.

  00212	8b ce		 mov	 ecx, esi
; File C:\IAGOS\server\v18\Source\Source\_Common\Obj.h

; 215  : 	D3DXVECTOR3		GetPos()	{ return m_vPos; }

  00214	f3 0f 7e 87 60
	01 00 00	 movq	 xmm0, QWORD PTR [edi+352]
  0021c	89 45 f8	 mov	 DWORD PTR $T3[ebp+8], eax
; File C:\IAGOS\server\v18\Source\Source\_aiinterface\aimonster.cpp

; 869  : 				MoveToDst( pMover->GetPos() );	// СІРкИЎПЁ МЖ.

  0021f	8d 45 f0	 lea	 eax, DWORD PTR $T3[ebp]
  00222	50		 push	 eax
; File C:\IAGOS\server\v18\Source\Source\_Common\Obj.h

; 215  : 	D3DXVECTOR3		GetPos()	{ return m_vPos; }

  00223	66 0f d6 45 f0	 movq	 QWORD PTR $T3[ebp], xmm0
; File C:\IAGOS\server\v18\Source\Source\_aiinterface\aimonster.cpp

; 869  : 				MoveToDst( pMover->GetPos() );	// СІРкИЎПЁ МЖ.

  00228	e8 00 00 00 00	 call	 ?MoveToDst@CAIMonster@@IAEXABUD3DXVECTOR3@@@Z ; CAIMonster::MoveToDst

; 870  : 				m_idLootItem = NULL_ID;

  0022d	c7 86 ec 00 00
	00 ff ff ff ff	 mov	 DWORD PTR [esi+236], -1

; 871  : 				m_bLootMove = FALSE;

  00237	c7 86 d4 00 00
	00 00 00 00 00	 mov	 DWORD PTR [esi+212], 0
$LN17@MoveProces:

; 872  : 			}
; 873  : 		}
; 874  : 
; 875  : 		// -1 РЬИщ ОЦЙЋАЭЕЕ НКФЕЧЯСі ОЪДТДй!!!
; 876  : 		if( pProp->m_nScanJob != -1 )

  00241	8b 8b dc 01 00
	00		 mov	 ecx, DWORD PTR [ebx+476]
  00247	83 f9 ff	 cmp	 ecx, -1
  0024a	0f 84 05 01 00
	00		 je	 $LN28@MoveProces

; 877  : 		{
; 878  : 			CMover* pTarget = NULL;
; 879  : 			int nAttackFirstRange = pProp->m_nAttackFirstRange;

  00250	0f bf 93 86 02
	00 00		 movsx	 edx, WORD PTR [ebx+646]
  00257	89 55 e8	 mov	 DWORD PTR _nAttackFirstRange$1$[ebp], edx

; 880  : #if __VER >= 18
; 881  : 			if( nAttackFirstRange > 60 || nAttackFirstRange <= 0 )

  0025a	8d 42 ff	 lea	 eax, DWORD PTR [edx-1]
  0025d	83 f8 3b	 cmp	 eax, 59			; 0000003bH
  00260	0f 87 d0 00 00
	00		 ja	 $LN20@MoveProces

; 887  : 				return TRUE;
; 888  : 			}
; 889  : 
; 890  : 			// ОюЖВ СЖАЧПЁ ЧиДчЧЯДТ ЧУЗЙРЬОюАЁ РжДТСі НКФЫЧбДй.
; 891  : 			if( pProp->m_nScanJob || pProp->m_dwScanQuestId || pProp->m_dwScanItemIdx || pProp->m_nScanChao )

  00266	85 c9		 test	 ecx, ecx
  00268	75 18		 jne	 SHORT $LN22@MoveProces
  0026a	39 8b 44 02 00
	00		 cmp	 DWORD PTR [ebx+580], ecx
  00270	75 10		 jne	 SHORT $LN22@MoveProces
  00272	39 8b 48 02 00
	00		 cmp	 DWORD PTR [ebx+584], ecx
  00278	75 08		 jne	 SHORT $LN22@MoveProces
  0027a	39 8b 4c 02 00
	00		 cmp	 DWORD PTR [ebx+588], ecx
  00280	74 26		 je	 SHORT $LN82@MoveProces
$LN22@MoveProces:

; 892  : 				pTarget = ScanTarget( pMover, nAttackFirstRange, pProp->m_nScanJob, pProp->m_dwScanQuestId, pProp->m_dwScanItemIdx, pProp->m_nScanChao );

  00282	ff b3 4c 02 00
	00		 push	 DWORD PTR [ebx+588]
  00288	ff b3 48 02 00
	00		 push	 DWORD PTR [ebx+584]
  0028e	ff b3 44 02 00
	00		 push	 DWORD PTR [ebx+580]
  00294	51		 push	 ecx
  00295	52		 push	 edx
  00296	57		 push	 edi
  00297	8b ce		 mov	 ecx, esi
  00299	e8 00 00 00 00	 call	 ?ScanTarget@CAIInterface@@IAEPAVCMover@@PAVCObj@@HHKKH@Z ; CAIInterface::ScanTarget
  0029e	89 45 ec	 mov	 DWORD PTR _pTarget$1$[ebp], eax

; 893  : 
; 894  : 			// СЖАЧПЁ ИТДТ ЧУЗЙРЬОюАЁ ОјАэ МБАјИїРЬИщ МБАјИї ЧќХТРЧ НКФЫРЛ ЧбДй.
; 895  : 			if( pTarget == NULL && GetMover()->m_bActiveAttack )

  002a1	85 c0		 test	 eax, eax
  002a3	75 2f		 jne	 SHORT $LN81@MoveProces
  002a5	8b 55 e8	 mov	 edx, DWORD PTR _nAttackFirstRange$1$[ebp]
$LN82@MoveProces:
  002a8	8b 46 30	 mov	 eax, DWORD PTR [esi+48]
  002ab	83 b8 68 06 00
	00 00		 cmp	 DWORD PTR [eax+1640], 0
  002b2	0f 84 9d 00 00
	00		 je	 $LN28@MoveProces

; 896  : 				pTarget = ScanTarget( pMover, nAttackFirstRange, JOB_ALL );

  002b8	6a 00		 push	 0
  002ba	6a 00		 push	 0
  002bc	6a 00		 push	 0
  002be	6a 28		 push	 40			; 00000028H
  002c0	52		 push	 edx
  002c1	57		 push	 edi
  002c2	8b ce		 mov	 ecx, esi
  002c4	e8 00 00 00 00	 call	 ?ScanTarget@CAIInterface@@IAEPAVCMover@@PAVCObj@@HHKKH@Z ; CAIInterface::ScanTarget
  002c9	89 45 ec	 mov	 DWORD PTR _pTarget$1$[ebp], eax

; 897  : 
; 898  : 			if( pTarget )

  002cc	85 c0		 test	 eax, eax
  002ce	0f 84 81 00 00
	00		 je	 $LN28@MoveProces
$LN81@MoveProces:
; File C:\IAGOS\server\v18\Source\Source\_Common\Obj.h

; 180  : 	BOOL			IsDelete()	{ return (m_dwFlags & OBJ_FLAG_DELETE);  }

  002d4	f6 40 04 01	 test	 BYTE PTR [eax+4], 1

; 327  : 	return pObj && ( pObj->IsDelete() == FALSE ); 

  002d8	75 7b		 jne	 SHORT $LN28@MoveProces
; File C:\IAGOS\server\v18\Source\Source\_aiinterface\aimonster.cpp

; 906  : 					if( (pMover->IsFlyingNPC() || pTarget->m_pActMover->IsFly() == FALSE) || pProp->dwClass == RANK_GUARD )	// АЁЕхДТ ЙЋСЖАЧ АјАн.

  002da	f7 87 3c 02 00
	00 00 00 01 00	 test	 DWORD PTR [edi+572], 65536 ; 00010000H
  002e4	75 15		 jne	 SHORT $LN27@MoveProces
  002e6	8b 80 38 02 00
	00		 mov	 eax, DWORD PTR [eax+568]
  002ec	f6 40 08 08	 test	 BYTE PTR [eax+8], 8
  002f0	74 09		 je	 SHORT $LN27@MoveProces
  002f2	83 bb 94 00 00
	00 08		 cmp	 DWORD PTR [ebx+148], 8
  002f9	75 5a		 jne	 SHORT $LN28@MoveProces
$LN27@MoveProces:

; 907  : #endif	// __VER >= 8  
; 908  : 					{
; 909  : 						// ХИАйРЬ СИРчЧЯИщ УпРћ И№ЕхЗЮ КЏАц 
; 910  : 						if( pTarget )	
; 911  : 						{
; 912  : 							g_UserMng.AddDlgEmoticon( pMover, DLGEMOT_ATTACK );

  002fb	6a 00		 push	 0
  002fd	57		 push	 edi
  002fe	b9 00 00 00 00	 mov	 ecx, OFFSET ?g_UserMng@@3VCUserMng@@A ; g_UserMng
  00303	e8 00 00 00 00	 call	 ?AddDlgEmoticon@CUserMng@@QAEXPAVCCtrl@@H@Z ; CUserMng::AddDlgEmoticon

; 913  : 							SendAIMsg( AIMSG_SETSTATE, STATE_RAGE, pTarget->GetId() );

  00308	8b 55 ec	 mov	 edx, DWORD PTR _pTarget$1$[ebp]
  0030b	8b ce		 mov	 ecx, esi
  0030d	8b 06		 mov	 eax, DWORD PTR [esi]
  0030f	6a 00		 push	 0
  00311	ff b2 bc 01 00
	00		 push	 DWORD PTR [edx+444]
  00317	6a 07		 push	 7
  00319	6a 04		 push	 4
  0031b	ff 50 0c	 call	 DWORD PTR [eax+12]
  0031e	5f		 pop	 edi

; 914  : 						}
; 915  : 					}
; 916  : 				}
; 917  : 			}	// if( target)
; 918  : 		}	// if( scan )
; 919  : 
; 920  : 	}
; 921  : 	return TRUE;
; 922  : }

  0031f	5e		 pop	 esi
  00320	b8 01 00 00 00	 mov	 eax, 1
  00325	5b		 pop	 ebx
  00326	8b 4d fc	 mov	 ecx, DWORD PTR __$ArrayPad$[ebp]
  00329	33 cd		 xor	 ecx, ebp
  0032b	e8 00 00 00 00	 call	 @__security_check_cookie@4
  00330	8b e5		 mov	 esp, ebp
  00332	5d		 pop	 ebp
  00333	c2 04 00	 ret	 4
$LN20@MoveProces:

; 882  : #else
; 883  : 			if( nAttackFirstRange > 10 || nAttackFirstRange <= 0 )
; 884  : #endif
; 885  : 			{
; 886  : 				Error( "m_nAttackFirstRange РЬЛѓ:%d %s\n", pProp->m_nAttackFirstRange, pMover->GetName() );

  00336	0f bf b3 86 02
	00 00		 movsx	 esi, WORD PTR [ebx+646]
  0033d	8b cf		 mov	 ecx, edi
  0033f	6a 00		 push	 0
  00341	e8 00 00 00 00	 call	 ?GetName@CMover@@QAEPBDH@Z ; CMover::GetName
  00346	50		 push	 eax
  00347	56		 push	 esi
  00348	68 00 00 00 00	 push	 OFFSET ??_C@_0CA@GLBIGGGO@m_nAttackFirstRange?5?$MA?L?$LL?s?3?$CFd?5?$CFs?6@
  0034d	e8 00 00 00 00	 call	 ?Error@@YAPBDPBDZZ	; Error
  00352	83 c4 0c	 add	 esp, 12			; 0000000cH
$LN28@MoveProces:

; 914  : 						}
; 915  : 					}
; 916  : 				}
; 917  : 			}	// if( target)
; 918  : 		}	// if( scan )
; 919  : 
; 920  : 	}
; 921  : 	return TRUE;
; 922  : }

  00355	5f		 pop	 edi
  00356	5e		 pop	 esi
  00357	b8 01 00 00 00	 mov	 eax, 1
  0035c	5b		 pop	 ebx
  0035d	8b 4d fc	 mov	 ecx, DWORD PTR __$ArrayPad$[ebp]
  00360	33 cd		 xor	 ecx, ebp
  00362	e8 00 00 00 00	 call	 @__security_check_cookie@4
  00367	8b e5		 mov	 esp, ebp
  00369	5d		 pop	 ebp
  0036a	c2 04 00	 ret	 4
$LN3@MoveProces:
  0036d	8b 4d fc	 mov	 ecx, DWORD PTR __$ArrayPad$[ebp]
  00370	33 c0		 xor	 eax, eax
  00372	5f		 pop	 edi
  00373	5e		 pop	 esi
  00374	33 cd		 xor	 ecx, ebp
  00376	5b		 pop	 ebx
  00377	e8 00 00 00 00	 call	 @__security_check_cookie@4
  0037c	8b e5		 mov	 esp, ebp
  0037e	5d		 pop	 ebp
  0037f	c2 04 00	 ret	 4
?MoveProcessStand@CAIMonster@@IAEHABUAIMSG@@@Z ENDP	; CAIMonster::MoveProcessStand
_TEXT	ENDS
; Function compile flags: /Ogtp
; File C:\IAGOS\server\v18\Source\Source\_aiinterface\aimonster.cpp
; File C:\IAGOS\server\v18\Source\Source\_Common\Obj.h
; File C:\IAGOS\server\v18\Source\Source\DX_SDK\d3dx9math.inl
; File C:\IAGOS\server\v18\Source\Source\_Common\Obj.h
; File C:\IAGOS\server\v18\Source\Source\_aiinterface\aimonster.cpp
; File C:\IAGOS\server\v18\Source\Source\DX_SDK\d3dx9math.inl
; File C:\IAGOS\server\v18\Source\Source\_aiinterface\aimonster.cpp
; File C:\IAGOS\server\v18\Source\Source\DX_SDK\d3dx9math.inl
; File C:\IAGOS\server\v18\Source\Source\_aiinterface\aimonster.cpp
; File C:\IAGOS\server\v18\Source\Source\DX_SDK\d3dx9math.inl
; File C:\IAGOS\server\v18\Source\Source\_aiinterface\aimonster.cpp
; File C:\IAGOS\server\v18\Source\Source\_Common\Obj.h
; File C:\IAGOS\server\v18\Source\Source\_aiinterface\aimonster.cpp
; File C:\IAGOS\server\v18\Source\Source\_Common\Obj.h
; File C:\IAGOS\server\v18\Source\Source\_aiinterface\aimonster.cpp
;	COMDAT ?StatePatrol@CAIMonster@@IAEHABUAIMSG@@@Z
_TEXT	SEGMENT
_vTargetTo$1 = -24					; size = 12
$T2 = -12						; size = 12
_msg$ = 8						; size = 4
?StatePatrol@CAIMonster@@IAEHABUAIMSG@@@Z PROC		; CAIMonster::StatePatrol, COMDAT
; _this$ = ecx

; 704  : {

  00000	55		 push	 ebp
  00001	8b ec		 mov	 ebp, esp
  00003	83 ec 18	 sub	 esp, 24			; 00000018H
  00006	53		 push	 ebx
  00007	56		 push	 esi

; 705  : 	CMover* pMover = GetMover();
; 706  : 	CWorld* pWorld = GetWorld();
; 707  : 
; 708  : 	BeginAIHandler( )
; 709  : 
; 710  : 	///////////////////////////////////////////////////////////////////////////////////////////////////
; 711  : 	OnMessage( AIMSG_INIT ) 

  00008	8b 75 08	 mov	 esi, DWORD PTR _msg$[ebp]
  0000b	57		 push	 edi
  0000c	8b f9		 mov	 edi, ecx
  0000e	8b 06		 mov	 eax, DWORD PTR [esi]
  00010	8b 5f 30	 mov	 ebx, DWORD PTR [edi+48]
  00013	83 f8 01	 cmp	 eax, 1
  00016	0f 85 f5 00 00
	00		 jne	 $LN4@StatePatro
; File C:\IAGOS\server\v18\Source\Source\_Common\Obj.h

; 215  : 	D3DXVECTOR3		GetPos()	{ return m_vPos; }

  0001c	f3 0f 7e 83 60
	01 00 00	 movq	 xmm0, QWORD PTR [ebx+352]
  00024	8b 83 68 01 00
	00		 mov	 eax, DWORD PTR [ebx+360]
  0002a	66 0f d6 45 f4	 movq	 QWORD PTR $T2[ebp], xmm0
; File C:\IAGOS\server\v18\Source\Source\DX_SDK\d3dx9math.inl

; 383  :     return D3DXVECTOR3(x - v.x, y - v.y, z - v.z);

  0002f	f3 0f 10 45 f4	 movss	 xmm0, DWORD PTR $T2[ebp]
  00034	f3 0f 5c 47 50	 subss	 xmm0, DWORD PTR [edi+80]
; File C:\IAGOS\server\v18\Source\Source\_Common\Obj.h

; 215  : 	D3DXVECTOR3		GetPos()	{ return m_vPos; }

  00039	89 45 fc	 mov	 DWORD PTR $T2[ebp+8], eax
; File C:\IAGOS\server\v18\Source\Source\_aiinterface\aimonster.cpp

; 714  : 		if( pMover->IsFlyingNPC() )

  0003c	8b 83 3c 02 00
	00		 mov	 eax, DWORD PTR [ebx+572]
  00042	25 00 00 01 00	 and	 eax, 65536		; 00010000H

; 716  : 		if( IsInRange( vTargetTo, (float)( nRangeMove ) ) == FALSE )

  00047	f7 d8		 neg	 eax
; File C:\IAGOS\server\v18\Source\Source\DX_SDK\d3dx9math.inl

; 300  :     x = fx;

  00049	f3 0f 11 45 e8	 movss	 DWORD PTR _vTargetTo$1[ebp], xmm0

; 383  :     return D3DXVECTOR3(x - v.x, y - v.y, z - v.z);

  0004e	f3 0f 10 45 f8	 movss	 xmm0, DWORD PTR $T2[ebp+4]
; File C:\IAGOS\server\v18\Source\Source\_aiinterface\aimonster.cpp

; 716  : 		if( IsInRange( vTargetTo, (float)( nRangeMove ) ) == FALSE )

  00053	1b c0		 sbb	 eax, eax
; File C:\IAGOS\server\v18\Source\Source\DX_SDK\d3dx9math.inl

; 383  :     return D3DXVECTOR3(x - v.x, y - v.y, z - v.z);

  00055	f3 0f 5c 47 54	 subss	 xmm0, DWORD PTR [edi+84]
; File C:\IAGOS\server\v18\Source\Source\_aiinterface\aimonster.cpp

; 716  : 		if( IsInRange( vTargetTo, (float)( nRangeMove ) ) == FALSE )

  0005a	83 e0 3c	 and	 eax, 60			; 0000003cH
  0005d	83 c0 1e	 add	 eax, 30			; 0000001eH
  00060	51		 push	 ecx
; File C:\IAGOS\server\v18\Source\Source\DX_SDK\d3dx9math.inl

; 301  :     y = fy;

  00061	f3 0f 11 45 ec	 movss	 DWORD PTR _vTargetTo$1[ebp+4], xmm0

; 383  :     return D3DXVECTOR3(x - v.x, y - v.y, z - v.z);

  00066	f3 0f 10 45 fc	 movss	 xmm0, DWORD PTR $T2[ebp+8]
  0006b	f3 0f 5c 47 58	 subss	 xmm0, DWORD PTR [edi+88]

; 302  :     z = fz;

  00070	f3 0f 11 45 f0	 movss	 DWORD PTR _vTargetTo$1[ebp+8], xmm0
  00075	66 0f 6e c0	 movd	 xmm0, eax
; File C:\IAGOS\server\v18\Source\Source\_aiinterface\aimonster.cpp

; 716  : 		if( IsInRange( vTargetTo, (float)( nRangeMove ) ) == FALSE )

  00079	8d 45 e8	 lea	 eax, DWORD PTR _vTargetTo$1[ebp]
  0007c	0f 5b c0	 cvtdq2ps xmm0, xmm0
  0007f	f3 0f 11 04 24	 movss	 DWORD PTR [esp], xmm0
  00084	50		 push	 eax
  00085	e8 00 00 00 00	 call	 ?IsInRange@CAIMonster@@IAEHAAUD3DXVECTOR3@@M@Z ; CAIMonster::IsInRange
  0008a	85 c0		 test	 eax, eax
  0008c	75 09		 jne	 SHORT $LN7@StatePatro

; 717  : 			DoReturnToBegin();

  0008e	6a 01		 push	 1
  00090	8b cf		 mov	 ecx, edi
  00092	e8 00 00 00 00	 call	 ?DoReturnToBegin@CAIMonster@@IAEXH@Z ; CAIMonster::DoReturnToBegin
$LN7@StatePatro:

; 718  : 		SetStop( SEC( 0 ) );

  00097	6a 00		 push	 0
  00099	8b cf		 mov	 ecx, edi
  0009b	e8 00 00 00 00	 call	 ?SetStop@CAIMonster@@IAEXK@Z ; CAIMonster::SetStop

; 719  : 		if( pMover->m_dwPatrolIndex != NULL_ID && m_bReturnToBegin == FALSE )

  000a0	83 bb 94 01 00
	00 ff		 cmp	 DWORD PTR [ebx+404], -1
  000a7	0f 84 95 01 00
	00		 je	 $LN24@StatePatro
  000ad	83 bf bc 00 00
	00 00		 cmp	 DWORD PTR [edi+188], 0
  000b4	0f 85 88 01 00
	00		 jne	 $LN24@StatePatro
; File C:\IAGOS\server\v18\Source\Source\_Common\Obj.h

; 215  : 	D3DXVECTOR3		GetPos()	{ return m_vPos; }

  000ba	f3 0f 7e 83 60
	01 00 00	 movq	 xmm0, QWORD PTR [ebx+352]
; File C:\IAGOS\server\v18\Source\Source\_aiinterface\aimonster.cpp

; 721  : 			CPatrolPath::GetInstance()->GetNextPosInfo( (CObj*)pMover, pMover->GetPos(), m_vDestPos, m_vecPatrolInfo );

  000c2	8d 87 80 00 00
	00		 lea	 eax, DWORD PTR [edi+128]
; File C:\IAGOS\server\v18\Source\Source\_Common\Obj.h

; 215  : 	D3DXVECTOR3		GetPos()	{ return m_vPos; }

  000c8	8b 8b 68 01 00
	00		 mov	 ecx, DWORD PTR [ebx+360]
; File C:\IAGOS\server\v18\Source\Source\_aiinterface\aimonster.cpp

; 721  : 			CPatrolPath::GetInstance()->GetNextPosInfo( (CObj*)pMover, pMover->GetPos(), m_vDestPos, m_vecPatrolInfo );

  000ce	8d 77 5c	 lea	 esi, DWORD PTR [edi+92]
  000d1	50		 push	 eax
  000d2	56		 push	 esi
  000d3	83 ec 0c	 sub	 esp, 12			; 0000000cH
  000d6	8b c4		 mov	 eax, esp
  000d8	53		 push	 ebx
  000d9	66 0f d6 00	 movq	 QWORD PTR [eax], xmm0
  000dd	89 48 08	 mov	 DWORD PTR [eax+8], ecx
  000e0	e8 00 00 00 00	 call	 ?GetInstance@CPatrolPath@@SAPAV1@XZ ; CPatrolPath::GetInstance
  000e5	8b c8		 mov	 ecx, eax
  000e7	e8 00 00 00 00	 call	 ?GetNextPosInfo@CPatrolPath@@QAEXPAVCObj@@UD3DXVECTOR3@@AAU3@AAU_VECINFO@@@Z ; CPatrolPath::GetNextPosInfo

; 722  : 			g_UserMng.AddMotionArrive( pMover, (m_vecPatrolInfo.m_dwDelay == 0 ) ? OBJMSG_STOP_RUN: OBJMSG_STOP );

  000ec	83 bf 94 00 00
	00 00		 cmp	 DWORD PTR [edi+148], 0
  000f3	b9 3a 00 00 00	 mov	 ecx, 58			; 0000003aH
  000f8	b8 06 00 00 00	 mov	 eax, 6
  000fd	0f 44 c1	 cmove	 eax, ecx
  00100	b9 00 00 00 00	 mov	 ecx, OFFSET ?g_UserMng@@3VCUserMng@@A ; g_UserMng
  00105	50		 push	 eax
  00106	53		 push	 ebx
  00107	e8 00 00 00 00	 call	 ?AddMotionArrive@CUserMng@@QAEXPAVCMover@@W4OBJMSG@@@Z ; CUserMng::AddMotionArrive

; 733  : 
; 734  : 	///////////////////////////////////////////////////////////////////////////////////////////////////
; 735  : 	OnMessage( AIMSG_TIMEOUT )

  0010c	e9 22 01 00 00	 jmp	 $LN55@StatePatro
$LN4@StatePatro:

; 723  : 			m_vPosBegin	= m_vDestPos;			
; 724  : 		}
; 725  : 
; 726  : 	///////////////////////////////////////////////////////////////////////////////////////////////////
; 727  : 	OnMessage( AIMSG_INIT_TARGETCLEAR )

  00111	83 f8 11	 cmp	 eax, 17			; 00000011H
  00114	75 17		 jne	 SHORT $LN9@StatePatro

; 728  : 		SetTarget( NULL_ID, 0 );

  00116	6a 00		 push	 0
  00118	6a ff		 push	 -1
  0011a	e8 00 00 00 00	 call	 ?SetTarget@CAIMonster@@IAEXKK@Z ; CAIMonster::SetTarget

; 772  : //		CPatrolPath::GetInstance()->GetNextPosInfo( pMover->m_dwPatrolIndex, pMover->m_dwPatrolIndexCount, v3Pos, m_vDestPos, m_vecPatrolInfo );
; 773  : 		m_vPosBegin = m_vDestPos;			
; 774  : 	}
; 775  : 		
; 776  : 	///////////////////////////////////////////////////////////////////////////////////////////////////
; 777  : 	OnMessage( AIMSG_EXIT )	
; 778  : 
; 779  : 	EndAIHandler( )
; 780  : 	return TRUE;
; 781  : }

  0011f	b8 01 00 00 00	 mov	 eax, 1
  00124	5f		 pop	 edi
  00125	5e		 pop	 esi
  00126	5b		 pop	 ebx
  00127	8b e5		 mov	 esp, ebp
  00129	5d		 pop	 ebp
  0012a	c2 04 00	 ret	 4
$LN9@StatePatro:

; 729  : 			
; 730  : 	///////////////////////////////////////////////////////////////////////////////////////////////////
; 731  : 	OnMessage( AIMSG_PROCESS ) 

  0012d	83 f8 02	 cmp	 eax, 2
  00130	75 14		 jne	 SHORT $LN11@StatePatro

; 732  : 		MoveProcessPatrol( msg );

  00132	56		 push	 esi
  00133	e8 00 00 00 00	 call	 ?MoveProcessPatrol@CAIMonster@@IAEHABUAIMSG@@@Z ; CAIMonster::MoveProcessPatrol

; 772  : //		CPatrolPath::GetInstance()->GetNextPosInfo( pMover->m_dwPatrolIndex, pMover->m_dwPatrolIndexCount, v3Pos, m_vDestPos, m_vecPatrolInfo );
; 773  : 		m_vPosBegin = m_vDestPos;			
; 774  : 	}
; 775  : 		
; 776  : 	///////////////////////////////////////////////////////////////////////////////////////////////////
; 777  : 	OnMessage( AIMSG_EXIT )	
; 778  : 
; 779  : 	EndAIHandler( )
; 780  : 	return TRUE;
; 781  : }

  00138	b8 01 00 00 00	 mov	 eax, 1
  0013d	5f		 pop	 edi
  0013e	5e		 pop	 esi
  0013f	5b		 pop	 ebx
  00140	8b e5		 mov	 esp, ebp
  00142	5d		 pop	 ebp
  00143	c2 04 00	 ret	 4
$LN11@StatePatro:

; 733  : 
; 734  : 	///////////////////////////////////////////////////////////////////////////////////////////////////
; 735  : 	OnMessage( AIMSG_TIMEOUT )

  00146	83 f8 03	 cmp	 eax, 3
  00149	0f 84 f3 00 00
	00		 je	 $LN24@StatePatro

; 736  : 		
; 737  : 		
; 738  : 	///////////////////////////////////////////////////////////////////////////////////////////////////			
; 739  : 	OnMessage( AIMSG_DAMAGE ) 

  0014f	83 f8 08	 cmp	 eax, 8
  00152	75 57		 jne	 SHORT $LN15@StatePatro

; 740  : 		//КаГы И№ЕхЗЮ КЏАц
; 741  : 
; 742  : 		if( m_bReturnToBegin == FALSE

  00154	83 bf bc 00 00
	00 00		 cmp	 DWORD PTR [edi+188], 0
  0015b	0f 85 e1 00 00
	00		 jne	 $LN24@StatePatro

; 743  : #if __VER < 9	// __AI_0509
; 744  : 			|| ( m_bReturnToBegin && ( TIMEGETTIME - m_tmReturnToBegin) > SEC(5) )
; 745  : #endif	// __AI_0509
; 746  : 		)
; 747  : 		{
; 748  : 			MoveToDst( msg.dwParam1 );

  00161	ff 76 04	 push	 DWORD PTR [esi+4]
  00164	e8 00 00 00 00	 call	 ?MoveToDst@CAIMonster@@IAEXK@Z ; CAIMonster::MoveToDst

; 749  : 			SendAIMsg( AIMSG_SETSTATE, STATE_RAGE, msg.dwParam1 );

  00169	8b 07		 mov	 eax, DWORD PTR [edi]
  0016b	8b cf		 mov	 ecx, edi
  0016d	6a 00		 push	 0
  0016f	ff 76 04	 push	 DWORD PTR [esi+4]
  00172	6a 07		 push	 7
  00174	6a 04		 push	 4
  00176	ff 50 0c	 call	 DWORD PTR [eax+12]

; 750  : 			m_tmAttack	= TIMEGETTIME + s_tmAttack;		// ДыБтСпРЯЖЇ АјАнЙоРИИщ 20УЪ ХИРЬИг НУРл

  00179	a1 00 00 00 00	 mov	 eax, DWORD PTR ?s_tmAttack@@3KA
  0017e	03 05 00 00 00
	00		 add	 eax, DWORD PTR ?g_tmCurrent@@3KA ; g_tmCurrent
  00184	89 47 40	 mov	 DWORD PTR [edi+64], eax

; 751  : #if __VER >= 9	//__AI_0509
; 752  : 			m_vPosDamage	= pMover->GetPos();

  00187	f3 0f 7e 83 60
	01 00 00	 movq	 xmm0, QWORD PTR [ebx+352]
  0018f	66 0f d6 47 74	 movq	 QWORD PTR [edi+116], xmm0
  00194	8b 83 68 01 00
	00		 mov	 eax, DWORD PTR [ebx+360]
  0019a	89 47 7c	 mov	 DWORD PTR [edi+124], eax

; 772  : //		CPatrolPath::GetInstance()->GetNextPosInfo( pMover->m_dwPatrolIndex, pMover->m_dwPatrolIndexCount, v3Pos, m_vDestPos, m_vecPatrolInfo );
; 773  : 		m_vPosBegin = m_vDestPos;			
; 774  : 	}
; 775  : 		
; 776  : 	///////////////////////////////////////////////////////////////////////////////////////////////////
; 777  : 	OnMessage( AIMSG_EXIT )	
; 778  : 
; 779  : 	EndAIHandler( )
; 780  : 	return TRUE;
; 781  : }

  0019d	b8 01 00 00 00	 mov	 eax, 1
  001a2	5f		 pop	 edi
  001a3	5e		 pop	 esi
  001a4	5b		 pop	 ebx
  001a5	8b e5		 mov	 esp, ebp
  001a7	5d		 pop	 ebp
  001a8	c2 04 00	 ret	 4
$LN15@StatePatro:

; 753  : #endif	// __AI_0509
; 754  : 		}
; 755  : 
; 756  : 
; 757  : 	///////////////////////////////////////////////////////////////////////////////////////////////////
; 758  : 	OnMessage( AIMSG_DIE )		// Ва!

  001ab	83 f8 09	 cmp	 eax, 9
  001ae	75 1b		 jne	 SHORT $LN18@StatePatro

; 759  : 		SendAIMsg( AIMSG_EXIT );

  001b0	8b 07		 mov	 eax, DWORD PTR [edi]
  001b2	6a 00		 push	 0
  001b4	6a 00		 push	 0
  001b6	6a 00		 push	 0
  001b8	6a 12		 push	 18			; 00000012H
  001ba	ff 50 0c	 call	 DWORD PTR [eax+12]

; 772  : //		CPatrolPath::GetInstance()->GetNextPosInfo( pMover->m_dwPatrolIndex, pMover->m_dwPatrolIndexCount, v3Pos, m_vDestPos, m_vecPatrolInfo );
; 773  : 		m_vPosBegin = m_vDestPos;			
; 774  : 	}
; 775  : 		
; 776  : 	///////////////////////////////////////////////////////////////////////////////////////////////////
; 777  : 	OnMessage( AIMSG_EXIT )	
; 778  : 
; 779  : 	EndAIHandler( )
; 780  : 	return TRUE;
; 781  : }

  001bd	b8 01 00 00 00	 mov	 eax, 1
  001c2	5f		 pop	 edi
  001c3	5e		 pop	 esi
  001c4	5b		 pop	 ebx
  001c5	8b e5		 mov	 esp, ebp
  001c7	5d		 pop	 ebp
  001c8	c2 04 00	 ret	 4
$LN18@StatePatro:

; 760  : 
; 761  : 	///////////////////////////////////////////////////////////////////////////////////////////////////
; 762  : 	OnMessage( AIMSG_COLLISION )  // АцЗЮЗЮ ПђСїРЬДйАЁ УцЕЙЧпРН!"

  001cb	83 f8 0a	 cmp	 eax, 10			; 0000000aH
  001ce	74 72		 je	 SHORT $LN24@StatePatro

; 763  : 
; 764  : 	///////////////////////////////////////////////////////////////////////////////////////////////////
; 765  : 	OnMessage( AIMSG_ARRIVAL )

  001d0	83 f8 0b	 cmp	 eax, 11			; 0000000bH
  001d3	75 6d		 jne	 SHORT $LN24@StatePatro

; 766  : 	{
; 767  : 		g_UserMng.AddMotionArrive( pMover, (m_vecPatrolInfo.m_dwDelay == 0 ) ? OBJMSG_STOP_RUN: OBJMSG_STOP );

  001d5	83 bf 94 00 00
	00 00		 cmp	 DWORD PTR [edi+148], 0
  001dc	b9 3a 00 00 00	 mov	 ecx, 58			; 0000003aH
  001e1	b8 06 00 00 00	 mov	 eax, 6
  001e6	0f 44 c1	 cmove	 eax, ecx
  001e9	b9 00 00 00 00	 mov	 ecx, OFFSET ?g_UserMng@@3VCUserMng@@A ; g_UserMng
  001ee	50		 push	 eax
  001ef	53		 push	 ebx
  001f0	e8 00 00 00 00	 call	 ?AddMotionArrive@CUserMng@@QAEXPAVCMover@@W4OBJMSG@@@Z ; CUserMng::AddMotionArrive

; 768  : 		SetStop( SEC(m_vecPatrolInfo.m_dwDelay) );

  001f5	69 87 94 00 00
	00 e8 03 00 00	 imul	 eax, DWORD PTR [edi+148], 1000
  001ff	8b cf		 mov	 ecx, edi
  00201	50		 push	 eax
  00202	e8 00 00 00 00	 call	 ?SetStop@CAIMonster@@IAEXK@Z ; CAIMonster::SetStop

; 769  : 		D3DXVECTOR3 v3Pos = m_vDestPos;

  00207	f3 0f 7e 47 5c	 movq	 xmm0, QWORD PTR [edi+92]

; 770  : //		TRACE( "Before = %d\t After = %d \n", pMover->m_dwPatrolIndexCount, pMover->m_dwPatrolIndexCount+1 );		
; 771  : 		CPatrolPath::GetInstance()->GetNextPosInfo( (CObj*)pMover, v3Pos, m_vDestPos, m_vecPatrolInfo );

  0020c	8d 87 80 00 00
	00		 lea	 eax, DWORD PTR [edi+128]
  00212	8b 4f 64	 mov	 ecx, DWORD PTR [edi+100]
  00215	8d 77 5c	 lea	 esi, DWORD PTR [edi+92]
  00218	50		 push	 eax
  00219	56		 push	 esi
  0021a	83 ec 0c	 sub	 esp, 12			; 0000000cH
  0021d	8b c4		 mov	 eax, esp
  0021f	53		 push	 ebx
  00220	66 0f d6 00	 movq	 QWORD PTR [eax], xmm0
  00224	89 48 08	 mov	 DWORD PTR [eax+8], ecx
  00227	e8 00 00 00 00	 call	 ?GetInstance@CPatrolPath@@SAPAV1@XZ ; CPatrolPath::GetInstance
  0022c	8b c8		 mov	 ecx, eax
  0022e	e8 00 00 00 00	 call	 ?GetNextPosInfo@CPatrolPath@@QAEXPAVCObj@@UD3DXVECTOR3@@AAU3@AAU_VECINFO@@@Z ; CPatrolPath::GetNextPosInfo
$LN55@StatePatro:

; 772  : //		CPatrolPath::GetInstance()->GetNextPosInfo( pMover->m_dwPatrolIndex, pMover->m_dwPatrolIndexCount, v3Pos, m_vDestPos, m_vecPatrolInfo );
; 773  : 		m_vPosBegin = m_vDestPos;			
; 774  : 	}
; 775  : 		
; 776  : 	///////////////////////////////////////////////////////////////////////////////////////////////////
; 777  : 	OnMessage( AIMSG_EXIT )	
; 778  : 
; 779  : 	EndAIHandler( )
; 780  : 	return TRUE;
; 781  : }

  00233	f3 0f 7e 06	 movq	 xmm0, QWORD PTR [esi]
  00237	8b 46 08	 mov	 eax, DWORD PTR [esi+8]
  0023a	66 0f d6 47 50	 movq	 QWORD PTR [edi+80], xmm0
  0023f	89 47 58	 mov	 DWORD PTR [edi+88], eax
$LN24@StatePatro:
  00242	5f		 pop	 edi
  00243	5e		 pop	 esi
  00244	b8 01 00 00 00	 mov	 eax, 1
  00249	5b		 pop	 ebx
  0024a	8b e5		 mov	 esp, ebp
  0024c	5d		 pop	 ebp
  0024d	c2 04 00	 ret	 4
?StatePatrol@CAIMonster@@IAEHABUAIMSG@@@Z ENDP		; CAIMonster::StatePatrol
_TEXT	ENDS
; Function compile flags: /Ogtp
; File C:\IAGOS\server\v18\Source\Source\_aiinterface\aimonster.cpp
; File C:\IAGOS\server\v18\Source\Source\_Common\Obj.h
; File C:\IAGOS\server\v18\Source\Source\DX_SDK\d3dx9math.inl
; File C:\IAGOS\server\v18\Source\Source\_Common\Obj.h
; File C:\IAGOS\server\v18\Source\Source\_aiinterface\aimonster.cpp
; File C:\IAGOS\server\v18\Source\Source\DX_SDK\d3dx9math.inl
; File C:\IAGOS\server\v18\Source\Source\_aiinterface\aimonster.cpp
; File C:\IAGOS\server\v18\Source\Source\DX_SDK\d3dx9math.inl
; File C:\IAGOS\server\v18\Source\Source\_aiinterface\aimonster.cpp
; File C:\IAGOS\server\v18\Source\Source\DX_SDK\d3dx9math.inl
; File C:\IAGOS\server\v18\Source\Source\_aiinterface\aimonster.cpp
; File C:\IAGOS\server\v18\Source\Source\_Common\Obj.h
; File C:\IAGOS\server\v18\Source\Source\_aiinterface\aimonster.cpp
; File C:\IAGOS\server\v18\Source\Source\_Common\Obj.h
; File C:\IAGOS\server\v18\Source\Source\_aiinterface\aimonster.cpp
; File C:\IAGOS\server\v18\Source\Source\_Common\Obj.h
; File C:\IAGOS\server\v18\Source\Source\_aiinterface\aimonster.cpp
; File C:\IAGOS\server\v18\Source\Source\_Common\Obj.h
; File C:\IAGOS\server\v18\Source\Source\_aiinterface\aimonster.cpp
; File C:\IAGOS\server\v18\Source\Source\_Common\xUtil.h
; File C:\IAGOS\server\v18\Source\Source\_aiinterface\aimonster.cpp
; File C:\IAGOS\server\v18\Source\Source\_Common\xUtil.h
; File C:\IAGOS\server\v18\Source\Source\_aiinterface\aimonster.cpp
; File C:\IAGOS\server\v18\Source\Source\_Common\xUtil.h
; File C:\IAGOS\server\v18\Source\Source\_aiinterface\aimonster.cpp
; File C:\IAGOS\server\v18\Source\Source\_Common\Obj.h
; File C:\IAGOS\server\v18\Source\Source\DX_SDK\d3dx9math.inl
; File C:\IAGOS\server\v18\Source\Source\_Common\Obj.h
; File C:\IAGOS\server\v18\Source\Source\DX_SDK\d3dx9math.inl
; File C:\IAGOS\server\v18\Source\Source\_aiinterface\aimonster.cpp
; File C:\IAGOS\server\v18\Source\Source\_Common\Obj.h
; File C:\IAGOS\server\v18\Source\Source\_aiinterface\aimonster.cpp
;	COMDAT ?StateStand@CAIMonster@@IAEHABUAIMSG@@@Z
_TEXT	SEGMENT
_pItemElem$1$ = -32					; size = 4
$T1 = -28						; size = 12
$T2 = -28						; size = 12
_vTargetTo$3 = -16					; size = 12
$T4 = -16						; size = 12
$T5 = -16						; size = 12
__$ArrayPad$ = -4					; size = 4
_msg$ = 8						; size = 4
?StateStand@CAIMonster@@IAEHABUAIMSG@@@Z PROC		; CAIMonster::StateStand, COMDAT
; _this$ = ecx

; 584  : {

  00000	55		 push	 ebp
  00001	8b ec		 mov	 ebp, esp
  00003	83 ec 20	 sub	 esp, 32			; 00000020H
  00006	a1 00 00 00 00	 mov	 eax, DWORD PTR ___security_cookie
  0000b	33 c5		 xor	 eax, ebp
  0000d	89 45 fc	 mov	 DWORD PTR __$ArrayPad$[ebp], eax
  00010	53		 push	 ebx
  00011	8b 5d 08	 mov	 ebx, DWORD PTR _msg$[ebp]
  00014	56		 push	 esi
  00015	8b f1		 mov	 esi, ecx
  00017	57		 push	 edi

; 585  : 	CMover* pMover = GetMover();
; 586  : 	CWorld* pWorld = GetWorld();
; 587  : 
; 588  : 	BeginAIHandler( )
; 589  : 
; 590  : 	///////////////////////////////////////////////////////////////////////////////////////////////////
; 591  : 	OnMessage( AIMSG_INIT ) 

  00018	8b 03		 mov	 eax, DWORD PTR [ebx]
  0001a	8b 7e 30	 mov	 edi, DWORD PTR [esi+48]
  0001d	83 f8 01	 cmp	 eax, 1
  00020	0f 85 89 00 00
	00		 jne	 $LN4@StateStand
; File C:\IAGOS\server\v18\Source\Source\_Common\Obj.h

; 215  : 	D3DXVECTOR3		GetPos()	{ return m_vPos; }

  00026	f3 0f 7e 87 60
	01 00 00	 movq	 xmm0, QWORD PTR [edi+352]
  0002e	8b 87 68 01 00
	00		 mov	 eax, DWORD PTR [edi+360]
  00034	66 0f d6 45 e4	 movq	 QWORD PTR $T1[ebp], xmm0
; File C:\IAGOS\server\v18\Source\Source\DX_SDK\d3dx9math.inl

; 383  :     return D3DXVECTOR3(x - v.x, y - v.y, z - v.z);

  00039	f3 0f 10 45 e4	 movss	 xmm0, DWORD PTR $T1[ebp]
  0003e	f3 0f 5c 46 50	 subss	 xmm0, DWORD PTR [esi+80]
; File C:\IAGOS\server\v18\Source\Source\_Common\Obj.h

; 215  : 	D3DXVECTOR3		GetPos()	{ return m_vPos; }

  00043	89 45 ec	 mov	 DWORD PTR $T1[ebp+8], eax
; File C:\IAGOS\server\v18\Source\Source\_aiinterface\aimonster.cpp

; 594  : 		if( pMover->IsFlyingNPC() )

  00046	8b 87 3c 02 00
	00		 mov	 eax, DWORD PTR [edi+572]
  0004c	25 00 00 01 00	 and	 eax, 65536		; 00010000H

; 596  : 		if( IsInRange( vTargetTo, (float)( nRangeMove ) ) == FALSE )

  00051	f7 d8		 neg	 eax
; File C:\IAGOS\server\v18\Source\Source\DX_SDK\d3dx9math.inl

; 300  :     x = fx;

  00053	f3 0f 11 45 f0	 movss	 DWORD PTR _vTargetTo$3[ebp], xmm0

; 383  :     return D3DXVECTOR3(x - v.x, y - v.y, z - v.z);

  00058	f3 0f 10 45 e8	 movss	 xmm0, DWORD PTR $T1[ebp+4]
; File C:\IAGOS\server\v18\Source\Source\_aiinterface\aimonster.cpp

; 596  : 		if( IsInRange( vTargetTo, (float)( nRangeMove ) ) == FALSE )

  0005d	1b c0		 sbb	 eax, eax
; File C:\IAGOS\server\v18\Source\Source\DX_SDK\d3dx9math.inl

; 383  :     return D3DXVECTOR3(x - v.x, y - v.y, z - v.z);

  0005f	f3 0f 5c 46 54	 subss	 xmm0, DWORD PTR [esi+84]
; File C:\IAGOS\server\v18\Source\Source\_aiinterface\aimonster.cpp

; 596  : 		if( IsInRange( vTargetTo, (float)( nRangeMove ) ) == FALSE )

  00064	83 e0 3c	 and	 eax, 60			; 0000003cH
  00067	83 c0 1e	 add	 eax, 30			; 0000001eH
  0006a	51		 push	 ecx
; File C:\IAGOS\server\v18\Source\Source\DX_SDK\d3dx9math.inl

; 301  :     y = fy;

  0006b	f3 0f 11 45 f4	 movss	 DWORD PTR _vTargetTo$3[ebp+4], xmm0

; 383  :     return D3DXVECTOR3(x - v.x, y - v.y, z - v.z);

  00070	f3 0f 10 45 ec	 movss	 xmm0, DWORD PTR $T1[ebp+8]
  00075	f3 0f 5c 46 58	 subss	 xmm0, DWORD PTR [esi+88]

; 302  :     z = fz;

  0007a	f3 0f 11 45 f8	 movss	 DWORD PTR _vTargetTo$3[ebp+8], xmm0
  0007f	66 0f 6e c0	 movd	 xmm0, eax
; File C:\IAGOS\server\v18\Source\Source\_aiinterface\aimonster.cpp

; 596  : 		if( IsInRange( vTargetTo, (float)( nRangeMove ) ) == FALSE )

  00083	8d 45 f0	 lea	 eax, DWORD PTR _vTargetTo$3[ebp]
  00086	0f 5b c0	 cvtdq2ps xmm0, xmm0
  00089	f3 0f 11 04 24	 movss	 DWORD PTR [esp], xmm0
  0008e	50		 push	 eax
  0008f	e8 00 00 00 00	 call	 ?IsInRange@CAIMonster@@IAEHAAUD3DXVECTOR3@@M@Z ; CAIMonster::IsInRange
  00094	85 c0		 test	 eax, eax
  00096	75 09		 jne	 SHORT $LN7@StateStand

; 597  : 			DoReturnToBegin();

  00098	6a 01		 push	 1
  0009a	8b ce		 mov	 ecx, esi
  0009c	e8 00 00 00 00	 call	 ?DoReturnToBegin@CAIMonster@@IAEXH@Z ; CAIMonster::DoReturnToBegin
$LN7@StateStand:

; 598  : 		
; 599  : 		SetStop( SEC( 0 ) );

  000a1	6a 00		 push	 0
  000a3	8b ce		 mov	 ecx, esi
  000a5	e8 00 00 00 00	 call	 ?SetStop@CAIMonster@@IAEXK@Z ; CAIMonster::SetStop

; 600  : 
; 601  : 	///////////////////////////////////////////////////////////////////////////////////////////////////
; 602  : 	OnMessage( AIMSG_INIT_TARGETCLEAR )

  000aa	e9 4d 02 00 00	 jmp	 $LN33@StateStand
$LN4@StateStand:
  000af	83 f8 11	 cmp	 eax, 17			; 00000011H
  000b2	75 0e		 jne	 SHORT $LN8@StateStand

; 603  : 		SetTarget( NULL_ID, 0 );

  000b4	6a 00		 push	 0
  000b6	6a ff		 push	 -1
  000b8	e8 00 00 00 00	 call	 ?SetTarget@CAIMonster@@IAEXKK@Z ; CAIMonster::SetTarget

; 604  : 			
; 605  : 	///////////////////////////////////////////////////////////////////////////////////////////////////
; 606  : 	OnMessage( AIMSG_PROCESS ) 

  000bd	e9 3a 02 00 00	 jmp	 $LN33@StateStand
$LN8@StateStand:
  000c2	83 f8 02	 cmp	 eax, 2
  000c5	75 0b		 jne	 SHORT $LN10@StateStand

; 607  : 		MoveProcessStand( msg );

  000c7	53		 push	 ebx
  000c8	e8 00 00 00 00	 call	 ?MoveProcessStand@CAIMonster@@IAEHABUAIMSG@@@Z ; CAIMonster::MoveProcessStand

; 608  : 
; 609  : 	///////////////////////////////////////////////////////////////////////////////////////////////////
; 610  : 	OnMessage( AIMSG_DAMAGE ) 

  000cd	e9 2a 02 00 00	 jmp	 $LN33@StateStand
$LN10@StateStand:
  000d2	83 f8 08	 cmp	 eax, 8
  000d5	75 4e		 jne	 SHORT $LN12@StateStand

; 611  : 		//КаГы И№ЕхЗЮ КЏАц
; 612  : 
; 613  : 		if( m_bReturnToBegin == FALSE

  000d7	83 be bc 00 00
	00 00		 cmp	 DWORD PTR [esi+188], 0
  000de	0f 85 18 02 00
	00		 jne	 $LN33@StateStand

; 614  : #if __VER < 9	// __AI_0509
; 615  : 			|| ( m_bReturnToBegin && ( TIMEGETTIME - m_tmReturnToBegin) > SEC(5) ) 
; 616  : #endif	// __AI_0509
; 617  : 			)
; 618  : 		{
; 619  : 			MoveToDst( msg.dwParam1 );

  000e4	ff 73 04	 push	 DWORD PTR [ebx+4]
  000e7	e8 00 00 00 00	 call	 ?MoveToDst@CAIMonster@@IAEXK@Z ; CAIMonster::MoveToDst

; 620  : 			SendAIMsg( AIMSG_SETSTATE, STATE_RAGE, msg.dwParam1 );

  000ec	8b 06		 mov	 eax, DWORD PTR [esi]
  000ee	8b ce		 mov	 ecx, esi
  000f0	6a 00		 push	 0
  000f2	ff 73 04	 push	 DWORD PTR [ebx+4]
  000f5	6a 07		 push	 7
  000f7	6a 04		 push	 4
  000f9	ff 50 0c	 call	 DWORD PTR [eax+12]

; 621  : 			m_tmAttack	= TIMEGETTIME + s_tmAttack;		// ДыБтСпРЯЖЇ АјАнЙоРИИщ 20УЪ ХИРЬИг НУРл

  000fc	a1 00 00 00 00	 mov	 eax, DWORD PTR ?s_tmAttack@@3KA
  00101	03 05 00 00 00
	00		 add	 eax, DWORD PTR ?g_tmCurrent@@3KA ; g_tmCurrent
  00107	89 46 40	 mov	 DWORD PTR [esi+64], eax

; 622  : #if __VER >= 9	//__AI_0509
; 623  : 			m_vPosDamage	= pMover->GetPos();

  0010a	f3 0f 7e 87 60
	01 00 00	 movq	 xmm0, QWORD PTR [edi+352]
  00112	66 0f d6 46 74	 movq	 QWORD PTR [esi+116], xmm0
  00117	8b 87 68 01 00
	00		 mov	 eax, DWORD PTR [edi+360]
  0011d	89 46 7c	 mov	 DWORD PTR [esi+124], eax

; 631  : 
; 632  : 	///////////////////////////////////////////////////////////////////////////////////////////////////
; 633  : 	OnMessage( AIMSG_COLLISION )  // ГюДйАЁ УцЕЙЧпРН!"

  00120	e9 d7 01 00 00	 jmp	 $LN33@StateStand
$LN12@StateStand:

; 624  : #endif	// __AI_0509
; 625  : 		}
; 626  : 
; 627  : 
; 628  : 	///////////////////////////////////////////////////////////////////////////////////////////////////
; 629  : 	OnMessage( AIMSG_DIE )		// Ва!

  00125	83 f8 09	 cmp	 eax, 9
  00128	75 12		 jne	 SHORT $LN15@StateStand

; 630  : 		SendAIMsg( AIMSG_EXIT );

  0012a	8b 06		 mov	 eax, DWORD PTR [esi]
  0012c	6a 00		 push	 0
  0012e	6a 00		 push	 0
  00130	6a 00		 push	 0
  00132	6a 12		 push	 18			; 00000012H
  00134	ff 50 0c	 call	 DWORD PTR [eax+12]

; 631  : 
; 632  : 	///////////////////////////////////////////////////////////////////////////////////////////////////
; 633  : 	OnMessage( AIMSG_COLLISION )  // ГюДйАЁ УцЕЙЧпРН!"

  00137	e9 c0 01 00 00	 jmp	 $LN33@StateStand
$LN15@StateStand:
  0013c	83 f8 0a	 cmp	 eax, 10			; 0000000aH
  0013f	0f 84 b7 01 00
	00		 je	 $LN33@StateStand

; 634  : //		MoveToRandom( STATE_IDLE );
; 635  : 
; 636  : 	///////////////////////////////////////////////////////////////////////////////////////////////////
; 637  : 	OnMessage( AIMSG_ARRIVAL )

  00145	83 f8 0b	 cmp	 eax, 11			; 0000000bH
  00148	0f 85 ae 01 00
	00		 jne	 $LN33@StateStand

; 638  : 		if( pMover->IsFlyingNPC() )		

  0014e	f7 87 3c 02 00
	00 00 00 01 00	 test	 DWORD PTR [edi+572], 65536 ; 00010000H
  00158	74 57		 je	 SHORT $LN21@StateStand

; 639  : 		{
; 640  : 			// КёЧрИїРК ЕЕТјЧЯАэ ГЊМ­ ИиУпСі ОЪДТДй. 8РкКёЧрРИЗЮ РЬЕПЦаХЯРЬ ЙйВяДй.
; 641  : 			if( msg.dwParam2 == 1 )

  0015a	83 7b 08 01	 cmp	 DWORD PTR [ebx+8], 1
  0015e	0f 85 98 01 00
	00		 jne	 $LN33@StateStand

; 642  : 			{
; 643  : 				int nPattern = 2;
; 644  : 				pMover->SetMovePattern( nPattern );

  00164	6a 02		 push	 2
  00166	8b cf		 mov	 ecx, edi
  00168	e8 00 00 00 00	 call	 ?SetMovePattern@CMover@@QAEXH@Z ; CMover::SetMovePattern
; File C:\IAGOS\server\v18\Source\Source\_Common\Obj.h

; 215  : 	D3DXVECTOR3		GetPos()	{ return m_vPos; }

  0016d	f3 0f 7e 87 60
	01 00 00	 movq	 xmm0, QWORD PTR [edi+352]
; File C:\IAGOS\server\v18\Source\Source\_aiinterface\aimonster.cpp

; 646  : 				g_UserMng.AddSetMovePattern( pMover, nPattern, pMover->GetPos(), pMover->GetAngle(), pMover->GetAngleX() );

  00175	83 ec 08	 sub	 esp, 8
; File C:\IAGOS\server\v18\Source\Source\_Common\Obj.h

; 215  : 	D3DXVECTOR3		GetPos()	{ return m_vPos; }

  00178	8b 87 68 01 00
	00		 mov	 eax, DWORD PTR [edi+360]
; File C:\IAGOS\server\v18\Source\Source\_aiinterface\aimonster.cpp

; 646  : 				g_UserMng.AddSetMovePattern( pMover, nPattern, pMover->GetPos(), pMover->GetAngle(), pMover->GetAngleX() );

  0017e	b9 00 00 00 00	 mov	 ecx, OFFSET ?g_UserMng@@3VCUserMng@@A ; g_UserMng
; File C:\IAGOS\server\v18\Source\Source\_Common\Obj.h

; 215  : 	D3DXVECTOR3		GetPos()	{ return m_vPos; }

  00183	66 0f d6 45 f0	 movq	 QWORD PTR $T4[ebp], xmm0
; File C:\IAGOS\server\v18\Source\Source\_aiinterface\aimonster.cpp

; 646  : 				g_UserMng.AddSetMovePattern( pMover, nPattern, pMover->GetPos(), pMover->GetAngle(), pMover->GetAngleX() );

  00188	f3 0f 10 47 1c	 movss	 xmm0, DWORD PTR [edi+28]
  0018d	f3 0f 11 44 24
	04		 movss	 DWORD PTR [esp+4], xmm0
  00193	f3 0f 10 47 18	 movss	 xmm0, DWORD PTR [edi+24]
; File C:\IAGOS\server\v18\Source\Source\_Common\Obj.h

; 215  : 	D3DXVECTOR3		GetPos()	{ return m_vPos; }

  00198	89 45 f8	 mov	 DWORD PTR $T4[ebp+8], eax
; File C:\IAGOS\server\v18\Source\Source\_aiinterface\aimonster.cpp

; 646  : 				g_UserMng.AddSetMovePattern( pMover, nPattern, pMover->GetPos(), pMover->GetAngle(), pMover->GetAngleX() );

  0019b	8d 45 f0	 lea	 eax, DWORD PTR $T4[ebp]
  0019e	f3 0f 11 04 24	 movss	 DWORD PTR [esp], xmm0
  001a3	50		 push	 eax
  001a4	6a 02		 push	 2
  001a6	57		 push	 edi
  001a7	e8 00 00 00 00	 call	 ?AddSetMovePattern@CUserMng@@QAEXPAVCMover@@HABUD3DXVECTOR3@@MM@Z ; CUserMng::AddSetMovePattern

; 647  : 			}
; 648  : 		} 

  001ac	e9 4b 01 00 00	 jmp	 $LN33@StateStand
$LN21@StateStand:

; 649  : 		else
; 650  : 		{
; 651  : 			if( m_bReturnToBegin )

  001b1	69 1d 00 00 00
	00 6d 4e c6 41	 imul	 ebx, DWORD PTR ?g_next@@3KA, 1103515245 ; g_next
  001bb	b8 d3 4d 62 10	 mov	 eax, 274877907		; 10624dd3H
  001c0	81 c3 39 30 00
	00		 add	 ebx, 12345		; 00003039H
  001c6	83 be bc 00 00
	00 00		 cmp	 DWORD PTR [esi+188], 0
  001cd	8b cb		 mov	 ecx, ebx
  001cf	74 0f		 je	 SHORT $LN24@StateStand
; File C:\IAGOS\server\v18\Source\Source\_Common\xUtil.h

; 22   : 	return  xRand() % num;

  001d1	f7 e3		 mul	 ebx
  001d3	c1 ea 06	 shr	 edx, 6
  001d6	69 c2 e8 03 00
	00		 imul	 eax, edx, 1000
  001dc	2b c8		 sub	 ecx, eax
; File C:\IAGOS\server\v18\Source\Source\_aiinterface\aimonster.cpp

; 654  : 			}

  001de	eb 13		 jmp	 SHORT $LN25@StateStand
$LN24@StateStand:
; File C:\IAGOS\server\v18\Source\Source\_Common\xUtil.h

; 22   : 	return  xRand() % num;

  001e0	f7 e1		 mul	 ecx
  001e2	c1 ea 06	 shr	 edx, 6
; File C:\IAGOS\server\v18\Source\Source\_aiinterface\aimonster.cpp

; 657  : 				SetStop( SEC( 5 ) + xRandom( SEC( 1 ) ) ); // 1УЪ ЕПОШ ИиУчЖѓ 

  001e5	69 c2 e8 03 00
	00		 imul	 eax, edx, 1000
; File C:\IAGOS\server\v18\Source\Source\_Common\xUtil.h

; 22   : 	return  xRand() % num;

  001eb	2b c8		 sub	 ecx, eax
; File C:\IAGOS\server\v18\Source\Source\_aiinterface\aimonster.cpp

; 657  : 				SetStop( SEC( 5 ) + xRandom( SEC( 1 ) ) ); // 1УЪ ЕПОШ ИиУчЖѓ 

  001ed	81 c1 88 13 00
	00		 add	 ecx, 5000		; 00001388H
$LN25@StateStand:

; 658  : 			}
; 659  : 
; 660  : 			if( m_bLootMove )	// ОЦРЬХл ЗчЦУИ№ЕхПДРН.

  001f3	51		 push	 ecx
  001f4	8b ce		 mov	 ecx, esi
  001f6	89 1d 00 00 00
	00		 mov	 DWORD PTR ?g_next@@3KA, ebx ; g_next
  001fc	e8 00 00 00 00	 call	 ?SetStop@CAIMonster@@IAEXK@Z ; CAIMonster::SetStop
  00201	83 be d4 00 00
	00 00		 cmp	 DWORD PTR [esi+212], 0
  00208	0f 84 ee 00 00
	00		 je	 $LN33@StateStand

; 661  : 			{
; 662  : 				CCtrl *pCtrl = prj.GetCtrl( m_idLootItem );		// БзОЦРЬХлРЬ ЛчЖѓСГРЛМі РжРИДЯБю АЫЛчЧд.

  0020e	ff b6 ec 00 00
	00		 push	 DWORD PTR [esi+236]
  00214	b9 00 00 00 00	 mov	 ecx, OFFSET ?prj@@3VCProject@@A ; prj
  00219	e8 00 00 00 00	 call	 ?GetCtrl@CProject@@QAEPAVCCtrl@@K@Z ; CProject::GetCtrl
  0021e	8b d8		 mov	 ebx, eax
; File C:\IAGOS\server\v18\Source\Source\_Common\Obj.h

; 327  : 	return pObj && ( pObj->IsDelete() == FALSE ); 

  00220	85 db		 test	 ebx, ebx
  00222	0f 84 c0 00 00
	00		 je	 $LN32@StateStand

; 180  : 	BOOL			IsDelete()	{ return (m_dwFlags & OBJ_FLAG_DELETE);  }

  00228	f6 43 04 01	 test	 BYTE PTR [ebx+4], 1

; 327  : 	return pObj && ( pObj->IsDelete() == FALSE ); 

  0022c	0f 85 b6 00 00
	00		 jne	 $LN32@StateStand

; 215  : 	D3DXVECTOR3		GetPos()	{ return m_vPos; }

  00232	f3 0f 7e 87 60
	01 00 00	 movq	 xmm0, QWORD PTR [edi+352]
  0023a	8b 87 68 01 00
	00		 mov	 eax, DWORD PTR [edi+360]
  00240	66 0f d6 45 f0	 movq	 QWORD PTR $T5[ebp], xmm0
  00245	f3 0f 7e 83 60
	01 00 00	 movq	 xmm0, QWORD PTR [ebx+352]
  0024d	66 0f d6 45 e4	 movq	 QWORD PTR $T2[ebp], xmm0
; File C:\IAGOS\server\v18\Source\Source\DX_SDK\d3dx9math.inl

; 383  :     return D3DXVECTOR3(x - v.x, y - v.y, z - v.z);

  00252	f3 0f 10 4d e4	 movss	 xmm1, DWORD PTR $T2[ebp]
  00257	f3 0f 10 55 e8	 movss	 xmm2, DWORD PTR $T2[ebp+4]
  0025c	f3 0f 5c 55 f4	 subss	 xmm2, DWORD PTR $T5[ebp+4]
  00261	f3 0f 5c 4d f0	 subss	 xmm1, DWORD PTR $T5[ebp]
; File C:\IAGOS\server\v18\Source\Source\_Common\Obj.h

; 215  : 	D3DXVECTOR3		GetPos()	{ return m_vPos; }

  00266	89 45 f8	 mov	 DWORD PTR $T5[ebp+8], eax
  00269	8b 83 68 01 00
	00		 mov	 eax, DWORD PTR [ebx+360]
  0026f	89 45 ec	 mov	 DWORD PTR $T2[ebp+8], eax
; File C:\IAGOS\server\v18\Source\Source\DX_SDK\d3dx9math.inl

; 383  :     return D3DXVECTOR3(x - v.x, y - v.y, z - v.z);

  00272	f3 0f 10 45 ec	 movss	 xmm0, DWORD PTR $T2[ebp+8]
  00277	f3 0f 5c 45 f8	 subss	 xmm0, DWORD PTR $T5[ebp+8]

; 302  :     z = fz;

  0027c	f3 0f 59 d2	 mulss	 xmm2, xmm2

; 1698 :     return pV->x * pV->x + pV->y * pV->y + pV->z * pV->z;

  00280	f3 0f 59 c9	 mulss	 xmm1, xmm1
  00284	f3 0f 59 c0	 mulss	 xmm0, xmm0
  00288	f3 0f 58 d1	 addss	 xmm2, xmm1
  0028c	f3 0f 58 d0	 addss	 xmm2, xmm0
; File C:\IAGOS\server\v18\Source\Source\_aiinterface\aimonster.cpp

; 668  : 					if( fDistSq < 3.0f * 3.0f )		// ЕЕТјЧиМ­ АХИЎ АЫЛч ЧбЙјДѕ ЧиМ­ 

  00290	f3 0f 10 05 00
	00 00 00	 movss	 xmm0, DWORD PTR __real@41100000
  00298	0f 2f c2	 comiss	 xmm0, xmm2
  0029b	76 4b		 jbe	 SHORT $LN32@StateStand
; File C:\IAGOS\server\v18\Source\Source\_Common\Obj.h

; 180  : 	BOOL			IsDelete()	{ return (m_dwFlags & OBJ_FLAG_DELETE);  }

  0029d	f6 43 04 01	 test	 BYTE PTR [ebx+4], 1
; File C:\IAGOS\server\v18\Source\Source\_aiinterface\aimonster.cpp

; 670  : 						if( pItem->IsDelete() )

  002a1	75 59		 jne	 SHORT $LN33@StateStand

; 671  : 							return TRUE;
; 672  : 						CItemElem* pItemElem = (CItemElem *)pItem->m_pItemBase;

  002a3	8b 83 30 02 00
	00		 mov	 eax, DWORD PTR [ebx+560]

; 673  : 						ItemProp *pItemProp = pItem->GetProp();

  002a9	8b cb		 mov	 ecx, ebx
  002ab	89 45 e0	 mov	 DWORD PTR _pItemElem$1$[ebp], eax
  002ae	e8 00 00 00 00	 call	 ?GetPropA@CItem@@QAEPAUItemProp@@XZ ; CItem::GetPropA

; 674  : 						BOOL bSuccess = FALSE;
; 675  : 						if( pItemProp->dwItemKind1 == IK1_GOLD )	// СжРКОЦРЬХлРЬ ЕЗРЬГФ?

  002b3	83 78 70 00	 cmp	 DWORD PTR [eax+112], 0
  002b7	75 14		 jne	 SHORT $LN30@StateStand

; 676  : 						{
; 677  : 							pMover->AddGold( pItemElem->GetGold() );	// ЕЗСѕАЁ.

  002b9	8b 4d e0	 mov	 ecx, DWORD PTR _pItemElem$1$[ebp]
  002bc	6a 01		 push	 1
  002be	e8 00 00 00 00	 call	 ?GetGold@CItemElem@@QAEHXZ ; CItemElem::GetGold
  002c3	50		 push	 eax
  002c4	8b cf		 mov	 ecx, edi
  002c6	e8 00 00 00 00	 call	 ?AddGold@CMover@@QAEHHH@Z ; CMover::AddGold

; 678  : 							bSuccess = TRUE;
; 679  : 						} 

  002cb	eb 14		 jmp	 SHORT $LN78@StateStand
$LN30@StateStand:

; 680  : 						else
; 681  : 						{
; 682  : 							// not GOLD
; 683  : 							bSuccess = pMover->CreateItem( pItemElem );			// СжРК ОЦРЬХл Л§МК.

  002cd	6a 00		 push	 0
  002cf	6a 00		 push	 0
  002d1	6a 00		 push	 0
  002d3	ff 75 e0	 push	 DWORD PTR _pItemElem$1$[ebp]
  002d6	8b cf		 mov	 ecx, edi
  002d8	e8 00 00 00 00	 call	 ?CreateItem@CMover@@QAEHPAVCItemBase@@PAEPAFE@Z ; CMover::CreateItem

; 684  : 						}
; 685  : 
; 686  : 						if( bSuccess )

  002dd	85 c0		 test	 eax, eax
  002df	74 07		 je	 SHORT $LN32@StateStand
$LN78@StateStand:

; 687  : 						{
; 688  : 							pItem->Delete();		// РЮКЅПЁБюСі ГжДТЕЅ МКАјЧЯИщ ЙйДкРЧ ОЦРЬХлРК СіПђ.

  002e1	8b cb		 mov	 ecx, ebx
  002e3	e8 00 00 00 00	 call	 ?Delete@CObj@@QAEXXZ	; CObj::Delete
$LN32@StateStand:

; 689  : 						}
; 690  : 					}
; 691  : 				}
; 692  : 				m_bLootMove = FALSE;		// thisАЁ ОЦРЬХл С§ДТСпРЬЖѓДТАХ ЧиСІ.

  002e8	c7 86 d4 00 00
	00 00 00 00 00	 mov	 DWORD PTR [esi+212], 0

; 693  : 				m_idLootItem = NULL_ID;

  002f2	c7 86 ec 00 00
	00 ff ff ff ff	 mov	 DWORD PTR [esi+236], -1
$LN33@StateStand:

; 694  : 			}
; 695  : 		}
; 696  : 		
; 697  : 	///////////////////////////////////////////////////////////////////////////////////////////////////
; 698  : 	OnMessage( AIMSG_EXIT )	
; 699  : 
; 700  : 	EndAIHandler( )
; 701  : 	return TRUE;
; 702  : }

  002fc	8b 4d fc	 mov	 ecx, DWORD PTR __$ArrayPad$[ebp]
  002ff	b8 01 00 00 00	 mov	 eax, 1
  00304	5f		 pop	 edi
  00305	5e		 pop	 esi
  00306	33 cd		 xor	 ecx, ebp
  00308	5b		 pop	 ebx
  00309	e8 00 00 00 00	 call	 @__security_check_cookie@4
  0030e	8b e5		 mov	 esp, ebp
  00310	5d		 pop	 ebp
  00311	c2 04 00	 ret	 4
?StateStand@CAIMonster@@IAEHABUAIMSG@@@Z ENDP		; CAIMonster::StateStand
_TEXT	ENDS
; Function compile flags: /Ogtp
; File C:\IAGOS\server\v18\Source\Source\_aiinterface\aimonster.cpp
; File C:\IAGOS\server\v18\Source\Source\_Common\Project.h
; File C:\IAGOS\server\v18\Source\Source\_aiinterface\aimonster.cpp
; File C:\IAGOS\server\v18\Source\Source\_Common\Mover.h
; File C:\IAGOS\server\v18\Source\Source\_Common\Project.h
; File C:\IAGOS\server\v18\Source\Source\_AIInterface\Action.h
; File C:\IAGOS\server\v18\Source\Source\_Common\Mover.h
; File C:\IAGOS\server\v18\Source\Source\_aiinterface\aimonster.cpp
; File C:\IAGOS\server\v18\Source\Source\_Common\Obj.h
; File C:\IAGOS\server\v18\Source\Source\_AIInterface\Action.h
; File C:\IAGOS\server\v18\Source\Source\_Common\Mover.h
; File C:\IAGOS\server\v18\Source\Source\_aiinterface\aimonster.cpp
; File C:\IAGOS\server\v18\Source\Source\_Common\Obj.h
; File C:\IAGOS\server\v18\Source\Source\DX_SDK\d3dx9math.inl
; File C:\IAGOS\server\v18\Source\Source\_Common\Obj.h
; File C:\IAGOS\server\v18\Source\Source\_aiinterface\aimonster.cpp
; File C:\IAGOS\server\v18\Source\Source\DX_SDK\d3dx9math.inl
; File C:\IAGOS\server\v18\Source\Source\_aiinterface\aimonster.cpp
; File C:\IAGOS\server\v18\Source\Source\_Common\Obj.h
; File C:\IAGOS\server\v18\Source\Source\_aiinterface\aimonster.cpp
; File C:\IAGOS\server\v18\Source\Source\_Common\Obj.h
; File C:\IAGOS\server\v18\Source\Source\_aiinterface\aimonster.cpp
; File C:\IAGOS\server\v18\Source\Source\_Common\Obj.h
; File C:\IAGOS\server\v18\Source\Source\_aiinterface\aimonster.cpp
; File C:\IAGOS\server\v18\Source\Source\_Common\Obj.h
; File C:\IAGOS\server\v18\Source\Source\_aiinterface\aimonster.cpp
; File C:\IAGOS\server\v18\Source\Source\_Common\Obj.h
; File C:\IAGOS\server\v18\Source\Source\_aiinterface\aimonster.cpp
; File C:\IAGOS\server\v18\Source\Source\_Common\Obj.h
; File C:\IAGOS\server\v18\Source\Source\_aiinterface\aimonster.cpp
; File C:\IAGOS\server\v18\Source\Source\_Common\Obj.h
; File C:\IAGOS\server\v18\Source\Source\DX_SDK\d3dx9math.inl
; File C:\IAGOS\server\v18\Source\Source\_Common\Obj.h
; File C:\IAGOS\server\v18\Source\Source\_aiinterface\aimonster.cpp
; File C:\IAGOS\server\v18\Source\Source\DX_SDK\d3dx9math.inl
; File C:\IAGOS\server\v18\Source\Source\_aiinterface\aimonster.cpp
; File C:\IAGOS\server\v18\Source\Source\DX_SDK\d3dx9math.inl
; File C:\IAGOS\server\v18\Source\Source\_aiinterface\aimonster.cpp
; File C:\IAGOS\server\v18\Source\Source\DX_SDK\d3dx9math.inl
; File C:\IAGOS\server\v18\Source\Source\_aiinterface\aimonster.cpp
; File C:\IAGOS\server\v18\Source\Source\_Common\Mover.h
; File C:\IAGOS\server\v18\Source\Source\_aiinterface\aimonster.cpp
; File C:\IAGOS\server\v18\Source\Source\_Common\InstanceDungeonBase.h
; File C:\IAGOS\server\v18\Source\Source\_aiinterface\aimonster.cpp
; File C:\IAGOS\server\v18\Source\Source\DX_SDK\d3dx9math.inl
; File C:\IAGOS\server\v18\Source\Source\_aiinterface\aimonster.cpp
; File C:\IAGOS\server\v18\Source\Source\DX_SDK\d3dx9math.inl
; File C:\IAGOS\server\v18\Source\Source\_aiinterface\aimonster.cpp
; File C:\IAGOS\server\v18\Source\Source\DX_SDK\d3dx9math.inl
; File C:\Program Files (x86)\Windows Kits\10\Include\10.0.26100.0\ucrt\corecrt_math.h
; File C:\IAGOS\server\v18\Source\Source\_aiinterface\aimonster.cpp
; File C:\Program Files (x86)\Windows Kits\10\Include\10.0.26100.0\ucrt\corecrt_math.h
; File C:\IAGOS\server\v18\Source\Source\_aiinterface\aimonster.cpp
; File C:\Program Files (x86)\Windows Kits\10\Include\10.0.26100.0\ucrt\corecrt_math.h
; File C:\IAGOS\server\v18\Source\Source\_aiinterface\aimonster.cpp
; File C:\IAGOS\server\v18\Source\Source\_Common\Obj.h
; File C:\IAGOS\server\v18\Source\Source\_aiinterface\aimonster.cpp
; File C:\IAGOS\server\v18\Source\Source\_Common\Obj.h
; File C:\IAGOS\server\v18\Source\Source\_aiinterface\aimonster.cpp
; File C:\IAGOS\server\v18\Source\Source\_Common\Obj.h
; File C:\IAGOS\server\v18\Source\Source\_aiinterface\aimonster.cpp
; File C:\IAGOS\server\v18\Source\Source\_Common\Obj.h
; File C:\Program Files (x86)\Windows Kits\10\Include\10.0.26100.0\ucrt\corecrt_math.h
; File C:\IAGOS\server\v18\Source\Source\_Common\Obj.h
; File C:\IAGOS\server\v18\Source\Source\DX_SDK\d3dx9math.inl
; File C:\Program Files (x86)\Windows Kits\10\Include\10.0.26100.0\ucrt\corecrt_math.h
; File C:\IAGOS\server\v18\Source\Source\DX_SDK\d3dx9math.inl
; File C:\Program Files (x86)\Windows Kits\10\Include\10.0.26100.0\ucrt\corecrt_math.h
; File C:\IAGOS\server\v18\Source\Source\_aiinterface\aimonster.cpp
; File C:\Program Files (x86)\Windows Kits\10\Include\10.0.26100.0\ucrt\corecrt_math.h
; File C:\IAGOS\server\v18\Source\Source\DX_SDK\d3dx9math.inl
; File C:\IAGOS\server\v18\Source\Source\_Common\Obj.h
; File C:\IAGOS\server\v18\Source\Source\DX_SDK\d3dx9math.inl
; File C:\IAGOS\server\v18\Source\Source\_aiinterface\aimonster.cpp
;	COMDAT ?MoveProcessRagePatrol@CAIMonster@@IAEHABUAIMSG@@@Z
_TEXT	SEGMENT
_pTarget$1$ = -76					; size = 4
tv1180 = -69						; size = 1
_dwAIState$1$ = -68					; size = 4
_pMover$1$ = -64					; size = 4
$T1 = -60						; size = 4
tv1095 = -56						; size = 8
_pWorld$1$ = -56					; size = 4
_vTargetTo$ = -44					; size = 12
tv1336 = -32						; size = 4
$T2 = -28						; size = 12
_vTarget$3 = -28					; size = 12
$T4 = -28						; size = 12
$T5 = -28						; size = 12
$T6 = -28						; size = 12
$T7 = -28						; size = 12
_vDist$8 = -16						; size = 12
$T9 = -16						; size = 12
$T10 = -16						; size = 12
$T11 = -16						; size = 12
_vDst$12 = -16						; size = 12
__$ArrayPad$ = -4					; size = 4
_msg$ = 8						; size = 4
?MoveProcessRagePatrol@CAIMonster@@IAEHABUAIMSG@@@Z PROC ; CAIMonster::MoveProcessRagePatrol, COMDAT
; _this$ = ecx

; 1801 : {

  00000	55		 push	 ebp
  00001	8b ec		 mov	 ebp, esp
  00003	83 e4 f8	 and	 esp, -8			; fffffff8H
  00006	83 ec 50	 sub	 esp, 80			; 00000050H
  00009	a1 00 00 00 00	 mov	 eax, DWORD PTR ___security_cookie
  0000e	33 c4		 xor	 eax, esp
  00010	89 44 24 4c	 mov	 DWORD PTR __$ArrayPad$[esp+80], eax
  00014	56		 push	 esi
  00015	57		 push	 edi
  00016	8b f9		 mov	 edi, ecx
; File C:\IAGOS\server\v18\Source\Source\_Common\Project.h

; 1406 : 	VERIFY_RANGE( nIndex, 0, m_nMoverPropSize, "GetMoverProp range_error", NULL );

  00018	8b 0d b4 01 00
	00		 mov	 ecx, DWORD PTR ?prj@@3VCProject@@A+436
; File C:\IAGOS\server\v18\Source\Source\_aiinterface\aimonster.cpp

; 1802 : 	CMover* pMover = GetMover();

  0001e	8b 77 30	 mov	 esi, DWORD PTR [edi+48]
  00021	89 74 24 18	 mov	 DWORD PTR _pMover$1$[esp+88], esi

; 1803 : 	CWorld* pWorld = GetWorld();

  00025	8b 86 6c 01 00
	00		 mov	 eax, DWORD PTR [esi+364]
  0002b	89 44 24 20	 mov	 DWORD PTR _pWorld$1$[esp+88], eax
; File C:\IAGOS\server\v18\Source\Source\_Common\Mover.h

; 1020 : 	MoverProp*		GetProp() { return prj.GetMoverProp( m_dwIndex ); }	// АДУМРЧ ЧСЗЮЦлЦМ ОђБт 	

  0002f	8b 86 74 01 00
	00		 mov	 eax, DWORD PTR [esi+372]
; File C:\IAGOS\server\v18\Source\Source\_Common\Project.h

; 1406 : 	VERIFY_RANGE( nIndex, 0, m_nMoverPropSize, "GetMoverProp range_error", NULL );

  00035	85 c0		 test	 eax, eax
  00037	78 16		 js	 SHORT $LN44@MoveProces
  00039	3b c1		 cmp	 eax, ecx
  0003b	7d 12		 jge	 SHORT $LN44@MoveProces

; 1407 : 	return m_pPropMover + nIndex;

  0003d	69 c8 90 06 00
	00		 imul	 ecx, eax, 1680
  00043	03 0d b8 01 00
	00		 add	 ecx, DWORD PTR ?prj@@3VCProject@@A+440
  00049	89 4c 24 1c	 mov	 DWORD PTR $T1[esp+88], ecx
  0004d	eb 1e		 jmp	 SHORT $LN39@MoveProces
$LN44@MoveProces:

; 579  : 	LPCTSTR szErr = Error( _T( "%s min:%d, max:%d, index:%d" ), szMsg, nMin, nMax, nIndex ); 

  0004f	50		 push	 eax
  00050	51		 push	 ecx
  00051	6a 00		 push	 0
  00053	68 00 00 00 00	 push	 OFFSET ??_C@_0BJ@GKPOBPPI@GetMoverProp?5range_error@
  00058	68 00 00 00 00	 push	 OFFSET ??_C@_0BM@HMFGHCP@?$CFs?5min?3?$CFd?0?5max?3?$CFd?0?5index?3?$CFd@
  0005d	e8 00 00 00 00	 call	 ?Error@@YAPBDPBDZZ	; Error
  00062	83 c4 14	 add	 esp, 20			; 00000014H

; 1406 : 	VERIFY_RANGE( nIndex, 0, m_nMoverPropSize, "GetMoverProp range_error", NULL );

  00065	c7 44 24 1c 00
	00 00 00	 mov	 DWORD PTR $T1[esp+88], 0
$LN39@MoveProces:
; File C:\IAGOS\server\v18\Source\Source\_AIInterface\Action.h

; 310  : 	BOOL			IsDie() { return (m_dwState & OBJSTA_DIE_ALL) ? TRUE : FALSE; }

  0006d	8b 86 38 02 00
	00		 mov	 eax, DWORD PTR [esi+568]
  00073	8b 40 04	 mov	 eax, DWORD PTR [eax+4]
; File C:\IAGOS\server\v18\Source\Source\_Common\Mover.h

; 1250 : 	BOOL			IsDie() { return m_pActMover->IsDie() || m_nHitPoint == 0; }

  00076	a9 00 00 00 08	 test	 eax, 134217728		; 08000000H
  0007b	0f 85 07 04 00
	00		 jne	 $LN3@MoveProces
  00081	83 be f8 05 00
	00 00		 cmp	 DWORD PTR [esi+1528], 0
  00088	0f 84 fa 03 00
	00		 je	 $LN3@MoveProces
; File C:\IAGOS\server\v18\Source\Source\_aiinterface\aimonster.cpp

; 1807 : 	if( pMover->IsDie() || (pMover->m_pActMover->GetState() & OBJSTA_DMG_FLY_ALL) )

  0008e	a9 00 00 00 02	 test	 eax, 33554432		; 02000000H
  00093	0f 85 ef 03 00
	00		 jne	 $LN3@MoveProces

; 1808 : 		return FALSE;
; 1809 : 	
; 1810 : 	CMover* pTarget = prj.GetMover( m_dwIdTarget ); 

  00099	ff b7 d8 00 00
	00		 push	 DWORD PTR [edi+216]
  0009f	b9 00 00 00 00	 mov	 ecx, OFFSET ?prj@@3VCProject@@A ; prj
  000a4	e8 00 00 00 00	 call	 ?GetMover@CProject@@QAEPAVCMover@@K@Z ; CProject::GetMover

; 1811 : 
; 1812 : 	DWORD dwAIState = pMover->m_dwAIInterfaceState;

  000a9	8b 8e 90 01 00
	00		 mov	 ecx, DWORD PTR [esi+400]
  000af	89 44 24 0c	 mov	 DWORD PTR _pTarget$1$[esp+88], eax
  000b3	89 4c 24 14	 mov	 DWORD PTR _dwAIState$1$[esp+88], ecx
; File C:\IAGOS\server\v18\Source\Source\_Common\Obj.h

; 327  : 	return pObj && ( pObj->IsDelete() == FALSE ); 

  000b7	85 c0		 test	 eax, eax
  000b9	0f 84 64 02 00
	00		 je	 $LN132@MoveProces

; 180  : 	BOOL			IsDelete()	{ return (m_dwFlags & OBJ_FLAG_DELETE);  }

  000bf	f6 40 04 01	 test	 BYTE PTR [eax+4], 1

; 327  : 	return pObj && ( pObj->IsDelete() == FALSE ); 

  000c3	0f 85 5a 02 00
	00		 jne	 $LN132@MoveProces
; File C:\IAGOS\server\v18\Source\Source\_AIInterface\Action.h

; 310  : 	BOOL			IsDie() { return (m_dwState & OBJSTA_DIE_ALL) ? TRUE : FALSE; }

  000c9	8b 88 38 02 00
	00		 mov	 ecx, DWORD PTR [eax+568]
; File C:\IAGOS\server\v18\Source\Source\_Common\Mover.h

; 1250 : 	BOOL			IsDie() { return m_pActMover->IsDie() || m_nHitPoint == 0; }

  000cf	f7 41 04 00 00
	00 08		 test	 DWORD PTR [ecx+4], 134217728 ; 08000000H
  000d6	0f 85 47 02 00
	00		 jne	 $LN132@MoveProces
  000dc	83 b8 f8 05 00
	00 00		 cmp	 DWORD PTR [eax+1528], 0
  000e3	0f 84 3a 02 00
	00		 je	 $LN132@MoveProces
; File C:\IAGOS\server\v18\Source\Source\_aiinterface\aimonster.cpp

; 1831 : 	if( pMover->IsFlyingNPC() == FALSE && ((CMover*)pTarget)->m_pActMover->IsFly() )	// thisАЁ КёЧрЧќРЬ ОЦДЯАэ ЛѓДыАЁ КёЧрСпРЬЖѓИщ

  000e9	f7 86 3c 02 00
	00 00 00 01 00	 test	 DWORD PTR [esi+572], 65536 ; 00010000H
  000f3	75 0a		 jne	 SHORT $LN6@MoveProces
  000f5	f6 41 08 08	 test	 BYTE PTR [ecx+8], 8
  000f9	0f 85 24 02 00
	00		 jne	 $LN132@MoveProces
$LN6@MoveProces:

; 1832 : #endif	// __VER >= 8  
; 1833 : 	{
; 1834 : 		DoReturnToBegin();
; 1835 : 		SendAIMsg( AIMSG_SETSTATE, dwAIState );
; 1836 : 		return TRUE;
; 1837 : 	}
; 1838 : 
; 1839 : 	if( TIMEGETTIME > m_tmAttack )	// АјАн ИјЧбСі 20УЪ СіГЕГФ?

  000ff	8b 0d 00 00 00
	00		 mov	 ecx, DWORD PTR ?g_tmCurrent@@3KA ; g_tmCurrent
  00105	3b 4f 40	 cmp	 ecx, DWORD PTR [edi+64]
  00108	0f 86 fc 00 00
	00		 jbe	 $LN129@MoveProces

; 1840 : 	{
; 1841 : 		m_tmAttack = TIMEGETTIME + s_tmAttack;		// ХИРЬИг ИЎМТ

  0010e	a1 00 00 00 00	 mov	 eax, DWORD PTR ?s_tmAttack@@3KA
  00113	03 c1		 add	 eax, ecx

; 1842 : 		// 5УЪРќ СТЧЅПЭ СіБн СТЧЅРЧ АХИЎИІ АшЛъ.
; 1843 : 		D3DXVECTOR3 vDist = pMover->GetPos() - m_vOldPos;
; 1844 : 		vDist.y = 0;					// ПЗРИЗЮ ЛьТІПђСїПДДТЕЅ ЛъРЇЗЮ ШЎ ПУЖѓАЌРЛЖЉ АХИЎАЁ ОіУЛ ИжМі РжДй. БзЗЁМ­ РЬЗИАд ЧбАЭ.

  00115	c7 44 24 4c 00
	00 00 00	 mov	 DWORD PTR _vDist$8[esp+92], 0
  0011d	89 47 40	 mov	 DWORD PTR [edi+64], eax
; File C:\IAGOS\server\v18\Source\Source\_Common\Obj.h

; 215  : 	D3DXVECTOR3		GetPos()	{ return m_vPos; }

  00120	f3 0f 7e 86 60
	01 00 00	 movq	 xmm0, QWORD PTR [esi+352]
  00128	8b 86 68 01 00
	00		 mov	 eax, DWORD PTR [esi+360]
  0012e	66 0f d6 44 24
	3c		 movq	 QWORD PTR $T2[esp+88], xmm0
; File C:\IAGOS\server\v18\Source\Source\DX_SDK\d3dx9math.inl

; 383  :     return D3DXVECTOR3(x - v.x, y - v.y, z - v.z);

  00134	f3 0f 10 44 24
	3c		 movss	 xmm0, DWORD PTR $T2[esp+88]
  0013a	f3 0f 5c 47 68	 subss	 xmm0, DWORD PTR [edi+104]
; File C:\IAGOS\server\v18\Source\Source\_Common\Obj.h

; 215  : 	D3DXVECTOR3		GetPos()	{ return m_vPos; }

  0013f	89 44 24 44	 mov	 DWORD PTR $T2[esp+96], eax
; File C:\IAGOS\server\v18\Source\Source\_aiinterface\aimonster.cpp

; 1845 : 		if( IsInRange( vDist, 2.0f ) )	// 2ЙЬХЭИІ ИјЙўОюГЕДйИщ ОюЕђАЁПЁ АЎЧћДйДТ Жц.

  00143	8d 44 24 48	 lea	 eax, DWORD PTR _vDist$8[esp+88]
  00147	51		 push	 ecx
  00148	c7 04 24 00 00
	00 40		 mov	 DWORD PTR [esp], 1073741824 ; 40000000H
  0014f	8b cf		 mov	 ecx, edi
  00151	50		 push	 eax
; File C:\IAGOS\server\v18\Source\Source\DX_SDK\d3dx9math.inl

; 300  :     x = fx;

  00152	f3 0f 11 44 24
	50		 movss	 DWORD PTR _vDist$8[esp+96], xmm0

; 383  :     return D3DXVECTOR3(x - v.x, y - v.y, z - v.z);

  00158	f3 0f 10 44 24
	4c		 movss	 xmm0, DWORD PTR $T2[esp+104]
  0015e	f3 0f 5c 47 70	 subss	 xmm0, DWORD PTR [edi+112]

; 302  :     z = fz;

  00163	f3 0f 11 44 24
	58		 movss	 DWORD PTR _vDist$8[esp+104], xmm0
; File C:\IAGOS\server\v18\Source\Source\_aiinterface\aimonster.cpp

; 1845 : 		if( IsInRange( vDist, 2.0f ) )	// 2ЙЬХЭИІ ИјЙўОюГЕДйИщ ОюЕђАЁПЁ АЎЧћДйДТ Жц.

  00169	e8 00 00 00 00	 call	 ?IsInRange@CAIMonster@@IAEHAAUD3DXVECTOR3@@M@Z ; CAIMonster::IsInRange
  0016e	85 c0		 test	 eax, eax
  00170	0f 84 a5 01 00
	00		 je	 $LN8@MoveProces

; 1846 : 		{
; 1847 : 			if( pMover->GetSpeed( pMover->m_pActMover->m_fSpeed ) > 0 )		// ИЖЙ§РћРИЗЮ ПђСїРЬСі ИјЧЯАд ЕШЛѓХТПЁМБ ПіЧСЧЯИщ ОШЕЪ.

  00176	8b 86 38 02 00
	00		 mov	 eax, DWORD PTR [esi+568]
  0017c	51		 push	 ecx
  0017d	8b ce		 mov	 ecx, esi
  0017f	f3 0f 10 40 48	 movss	 xmm0, DWORD PTR [eax+72]
  00184	f3 0f 11 04 24	 movss	 DWORD PTR [esp], xmm0
  00189	e8 00 00 00 00	 call	 ?GetSpeed@CMover@@QAEMM@Z ; CMover::GetSpeed
  0018e	d9 5c 24 38	 fstp	 DWORD PTR tv1336[esp+88]
  00192	f3 0f 10 44 24
	38		 movss	 xmm0, DWORD PTR tv1336[esp+88]
  00198	0f 57 c9	 xorps	 xmm1, xmm1
  0019b	0f 2f c1	 comiss	 xmm0, xmm1
  0019e	76 50		 jbe	 SHORT $LN128@MoveProces
; File C:\IAGOS\server\v18\Source\Source\_Common\Obj.h

; 215  : 	D3DXVECTOR3		GetPos()	{ return m_vPos; }

  001a0	8b 44 24 0c	 mov	 eax, DWORD PTR _pTarget$1$[esp+88]
; File C:\IAGOS\server\v18\Source\Source\_aiinterface\aimonster.cpp

; 1850 : 				pMover->SetPos( vTarget );		// АЎЧћРИИщ ХИАйТЪРИЗЮ ЙйЗЮ ПіЧС.

  001a4	8b ce		 mov	 ecx, esi
; File C:\IAGOS\server\v18\Source\Source\_Common\Obj.h

; 215  : 	D3DXVECTOR3		GetPos()	{ return m_vPos; }

  001a6	f3 0f 7e 80 60
	01 00 00	 movq	 xmm0, QWORD PTR [eax+352]
  001ae	8b 80 68 01 00
	00		 mov	 eax, DWORD PTR [eax+360]
  001b4	89 44 24 44	 mov	 DWORD PTR _vTarget$3[esp+96], eax
; File C:\IAGOS\server\v18\Source\Source\_aiinterface\aimonster.cpp

; 1850 : 				pMover->SetPos( vTarget );		// АЎЧћРИИщ ХИАйТЪРИЗЮ ЙйЗЮ ПіЧС.

  001b8	8d 44 24 3c	 lea	 eax, DWORD PTR _vTarget$3[esp+88]
  001bc	50		 push	 eax
; File C:\IAGOS\server\v18\Source\Source\_Common\Obj.h

; 215  : 	D3DXVECTOR3		GetPos()	{ return m_vPos; }

  001bd	66 0f d6 44 24
	40		 movq	 QWORD PTR _vTarget$3[esp+92], xmm0
; File C:\IAGOS\server\v18\Source\Source\_aiinterface\aimonster.cpp

; 1850 : 				pMover->SetPos( vTarget );		// АЎЧћРИИщ ХИАйТЪРИЗЮ ЙйЗЮ ПіЧС.

  001c3	e8 00 00 00 00	 call	 ?SetPos@CObj@@QAEXABUD3DXVECTOR3@@@Z ; CObj::SetPos
; File C:\IAGOS\server\v18\Source\Source\_Common\Obj.h

; 215  : 	D3DXVECTOR3		GetPos()	{ return m_vPos; }

  001c8	8b 86 68 01 00
	00		 mov	 eax, DWORD PTR [esi+360]
; File C:\IAGOS\server\v18\Source\Source\_aiinterface\aimonster.cpp

; 1851 : 				g_UserMng.AddSetPos( pMover, pMover->GetPos() );

  001ce	b9 00 00 00 00	 mov	 ecx, OFFSET ?g_UserMng@@3VCUserMng@@A ; g_UserMng
; File C:\IAGOS\server\v18\Source\Source\_Common\Obj.h

; 215  : 	D3DXVECTOR3		GetPos()	{ return m_vPos; }

  001d3	f3 0f 7e 86 60
	01 00 00	 movq	 xmm0, QWORD PTR [esi+352]
  001db	89 44 24 50	 mov	 DWORD PTR $T9[esp+96], eax
; File C:\IAGOS\server\v18\Source\Source\_aiinterface\aimonster.cpp

; 1851 : 				g_UserMng.AddSetPos( pMover, pMover->GetPos() );

  001df	8d 44 24 48	 lea	 eax, DWORD PTR $T9[esp+88]
  001e3	50		 push	 eax
  001e4	56		 push	 esi
; File C:\IAGOS\server\v18\Source\Source\_Common\Obj.h

; 215  : 	D3DXVECTOR3		GetPos()	{ return m_vPos; }

  001e5	66 0f d6 44 24
	50		 movq	 QWORD PTR $T9[esp+96], xmm0
; File C:\IAGOS\server\v18\Source\Source\_aiinterface\aimonster.cpp

; 1851 : 				g_UserMng.AddSetPos( pMover, pMover->GetPos() );

  001eb	e8 00 00 00 00	 call	 ?AddSetPos@CUserMng@@QAEXPAVCCtrl@@AAUD3DXVECTOR3@@@Z ; CUserMng::AddSetPos
$LN128@MoveProces:

; 1857 : 			DoReturnToBegin();
; 1858 : 			SendAIMsg( AIMSG_SETSTATE, dwAIState );
; 1859 : 			return TRUE;
; 1860 : 		}
; 1861 : 		m_vOldPos = pMover->GetPos();	// ЧіРч СТЧЅИІ РњРхЧд.

  001f0	f3 0f 7e 86 60
	01 00 00	 movq	 xmm0, QWORD PTR [esi+352]
  001f8	66 0f d6 47 68	 movq	 QWORD PTR [edi+104], xmm0
  001fd	8b 86 68 01 00
	00		 mov	 eax, DWORD PTR [esi+360]
  00203	89 47 70	 mov	 DWORD PTR [edi+112], eax
  00206	8b 44 24 0c	 mov	 eax, DWORD PTR _pTarget$1$[esp+88]
$LN129@MoveProces:
; File C:\IAGOS\server\v18\Source\Source\_Common\Obj.h

; 215  : 	D3DXVECTOR3		GetPos()	{ return m_vPos; }

  0020a	f3 0f 7e 80 60
	01 00 00	 movq	 xmm0, QWORD PTR [eax+352]
  00212	8b 80 68 01 00
	00		 mov	 eax, DWORD PTR [eax+360]
  00218	66 0f d6 44 24
	48		 movq	 QWORD PTR $T10[esp+88], xmm0
  0021e	f3 0f 7e 86 60
	01 00 00	 movq	 xmm0, QWORD PTR [esi+352]
  00226	66 0f d6 44 24
	3c		 movq	 QWORD PTR $T4[esp+88], xmm0
; File C:\IAGOS\server\v18\Source\Source\DX_SDK\d3dx9math.inl

; 383  :     return D3DXVECTOR3(x - v.x, y - v.y, z - v.z);

  0022c	f3 0f 10 44 24
	48		 movss	 xmm0, DWORD PTR $T10[esp+88]
  00232	f3 0f 5c 44 24
	3c		 subss	 xmm0, DWORD PTR $T4[esp+88]
; File C:\IAGOS\server\v18\Source\Source\_Common\Obj.h

; 215  : 	D3DXVECTOR3		GetPos()	{ return m_vPos; }

  00238	89 44 24 50	 mov	 DWORD PTR $T10[esp+96], eax
  0023c	8b 86 68 01 00
	00		 mov	 eax, DWORD PTR [esi+360]
  00242	89 44 24 44	 mov	 DWORD PTR $T4[esp+96], eax
; File C:\IAGOS\server\v18\Source\Source\_aiinterface\aimonster.cpp

; 1866 : 	if( IsInRange( vTargetTo, RANGE_CANCEL ) == FALSE )

  00246	8d 44 24 2c	 lea	 eax, DWORD PTR _vTargetTo$[esp+88]
  0024a	51		 push	 ecx
; File C:\IAGOS\server\v18\Source\Source\DX_SDK\d3dx9math.inl

; 300  :     x = fx;

  0024b	f3 0f 11 44 24
	30		 movss	 DWORD PTR _vTargetTo$[esp+92], xmm0
; File C:\IAGOS\server\v18\Source\Source\_aiinterface\aimonster.cpp

; 1866 : 	if( IsInRange( vTargetTo, RANGE_CANCEL ) == FALSE )

  00251	8b cf		 mov	 ecx, edi
; File C:\IAGOS\server\v18\Source\Source\DX_SDK\d3dx9math.inl

; 383  :     return D3DXVECTOR3(x - v.x, y - v.y, z - v.z);

  00253	f3 0f 10 44 24
	50		 movss	 xmm0, DWORD PTR $T10[esp+96]
  00259	f3 0f 5c 44 24
	44		 subss	 xmm0, DWORD PTR $T4[esp+96]
; File C:\IAGOS\server\v18\Source\Source\_aiinterface\aimonster.cpp

; 1866 : 	if( IsInRange( vTargetTo, RANGE_CANCEL ) == FALSE )

  0025f	c7 04 24 00 00
	f0 42		 mov	 DWORD PTR [esp], 1123024896 ; 42f00000H
  00266	50		 push	 eax
; File C:\IAGOS\server\v18\Source\Source\DX_SDK\d3dx9math.inl

; 301  :     y = fy;

  00267	f3 0f 11 44 24
	38		 movss	 DWORD PTR _vTargetTo$[esp+100], xmm0

; 383  :     return D3DXVECTOR3(x - v.x, y - v.y, z - v.z);

  0026d	f3 0f 10 44 24
	58		 movss	 xmm0, DWORD PTR $T10[esp+104]
  00273	f3 0f 5c 44 24
	4c		 subss	 xmm0, DWORD PTR $T4[esp+104]

; 302  :     z = fz;

  00279	f3 0f 11 44 24
	3c		 movss	 DWORD PTR _vTargetTo$[esp+104], xmm0
; File C:\IAGOS\server\v18\Source\Source\_aiinterface\aimonster.cpp

; 1866 : 	if( IsInRange( vTargetTo, RANGE_CANCEL ) == FALSE )

  0027f	e8 00 00 00 00	 call	 ?IsInRange@CAIMonster@@IAEHAAUD3DXVECTOR3@@M@Z ; CAIMonster::IsInRange
  00284	85 c0		 test	 eax, eax
  00286	0f 84 97 00 00
	00		 je	 $LN132@MoveProces

; 1872 : 	else if( pTarget->GetType() == OT_MOVER && ((CMover *)pTarget)->IsMode( TRANSPARENT_MODE ) )		// ІiАэ РжДј ХИАйРЬ ХѕИэШ­ ЛѓХТАЁ ЕЧИщ 

  0028c	8b 74 24 0c	 mov	 esi, DWORD PTR _pTarget$1$[esp+88]
  00290	83 be 70 01 00
	00 05		 cmp	 DWORD PTR [esi+368], 5
  00297	0f 85 b8 00 00
	00		 jne	 $LN13@MoveProces
; File C:\IAGOS\server\v18\Source\Source\_Common\Mover.h

; 1740 : 		if( GetAdjParam(DST_CHRSTATE) & CHS_INVISIBILITY )	// ИЖЙ§ХѕИэШ­АЁ АЩЗШДТАЁ?

  0029d	6a 40		 push	 64			; 00000040H
  0029f	8b ce		 mov	 ecx, esi
  002a1	e8 00 00 00 00	 call	 ?GetAdjParam@CMover@@QAEHH@Z ; CMover::GetAdjParam
  002a6	a9 00 04 00 00	 test	 eax, 1024		; 00000400H
  002ab	75 0d		 jne	 SHORT $LN130@MoveProces
; File C:\IAGOS\server\v18\Source\Source\_aiinterface\aimonster.cpp

; 1872 : 	else if( pTarget->GetType() == OT_MOVER && ((CMover *)pTarget)->IsMode( TRANSPARENT_MODE ) )		// ІiАэ РжДј ХИАйРЬ ХѕИэШ­ ЛѓХТАЁ ЕЧИщ 

  002ad	f6 86 40 02 00
	00 02		 test	 BYTE PTR [esi+576], 2
  002b4	0f 84 9b 00 00
	00		 je	 $LN13@MoveProces
$LN130@MoveProces:

; 1875 : 		if( CInstanceDungeonHelper::GetInstance()->IsInstanceDungeon( pWorld->GetID() ) )

  002ba	8b 74 24 20	 mov	 esi, DWORD PTR _pWorld$1$[esp+88]
  002be	8b 36		 mov	 esi, DWORD PTR [esi]
  002c0	e8 00 00 00 00	 call	 ?GetInstance@CInstanceDungeonHelper@@SAPAV1@XZ ; CInstanceDungeonHelper::GetInstance
; File C:\IAGOS\server\v18\Source\Source\_Common\InstanceDungeonBase.h

; 205  : 	BOOL	IsInstanceDungeon( DWORD dwWorldId )	{ return GetType( dwWorldId ) != NULL_ID; }

  002c5	56		 push	 esi
  002c6	8b c8		 mov	 ecx, eax
  002c8	e8 00 00 00 00	 call	 ?GetType@CInstanceDungeonHelper@@AAEHK@Z ; CInstanceDungeonHelper::GetType
  002cd	83 f8 ff	 cmp	 eax, -1
; File C:\IAGOS\server\v18\Source\Source\_aiinterface\aimonster.cpp

; 1875 : 		if( CInstanceDungeonHelper::GetInstance()->IsInstanceDungeon( pWorld->GetID() ) )

  002d0	74 51		 je	 SHORT $LN132@MoveProces

; 1876 : 		{
; 1877 : 			CMover* pTarget = ScanTargetNext( pMover, 160, m_dwIdTarget, m_uParty );	// ЙќРЇ 50ЙЬХЭ РЬГЛИІ НКФЕЧбДй.

  002d2	ff 77 34	 push	 DWORD PTR [edi+52]
  002d5	8b 74 24 1c	 mov	 esi, DWORD PTR _pMover$1$[esp+92]
  002d9	8b cf		 mov	 ecx, edi
  002db	ff b7 d8 00 00
	00		 push	 DWORD PTR [edi+216]
  002e1	68 a0 00 00 00	 push	 160			; 000000a0H
  002e6	56		 push	 esi
  002e7	e8 00 00 00 00	 call	 ?ScanTargetNext@CAIInterface@@IAEPAVCMover@@PAVCObj@@HKK@Z ; CAIInterface::ScanTargetNext

; 1878 : 			if( pTarget	)

  002ec	85 c0		 test	 eax, eax
  002ee	74 33		 je	 SHORT $LN132@MoveProces

; 1879 : 			{
; 1880 : 				SendAIMsg( AIMSG_SETSTATE, STATE_RAGE, pTarget->GetId() );

  002f0	8b 17		 mov	 edx, DWORD PTR [edi]
  002f2	8b cf		 mov	 ecx, edi
  002f4	6a 00		 push	 0
  002f6	ff b0 bc 01 00
	00		 push	 DWORD PTR [eax+444]
  002fc	6a 07		 push	 7
  002fe	6a 04		 push	 4
  00300	ff 52 0c	 call	 DWORD PTR [edx+12]

; 1881 : 				return TRUE;

  00303	b8 01 00 00 00	 mov	 eax, 1

; 1947 : 				return FALSE;
; 1948 : 		}
; 1949 : 	}
; 1950 : 	return TRUE;
; 1951 : }

  00308	5f		 pop	 edi
  00309	5e		 pop	 esi
  0030a	8b 4c 24 4c	 mov	 ecx, DWORD PTR __$ArrayPad$[esp+80]
  0030e	33 cc		 xor	 ecx, esp
  00310	e8 00 00 00 00	 call	 @__security_check_cookie@4
  00315	8b e5		 mov	 esp, ebp
  00317	5d		 pop	 ebp
  00318	c2 04 00	 ret	 4
$LN8@MoveProces:

; 1852 : 			} 
; 1853 : 		} 
; 1854 : 		else
; 1855 : 		{
; 1856 : 			m_tmReturnToBegin = TIMEGETTIME;			// ДйНУ ЕЙОЦАЅЖЉ НУАЃРЛ РчБтНУРл.  xУЪАЃРК ИТОЦЕЕ ЙнАнОШЧЯАэ АшМг АЃДй.

  0031b	a1 00 00 00 00	 mov	 eax, DWORD PTR ?g_tmCurrent@@3KA ; g_tmCurrent
  00320	89 47 4c	 mov	 DWORD PTR [edi+76], eax
$LN132@MoveProces:

; 1947 : 				return FALSE;
; 1948 : 		}
; 1949 : 	}
; 1950 : 	return TRUE;
; 1951 : }

  00323	6a 01		 push	 1
  00325	8b cf		 mov	 ecx, edi
  00327	e8 00 00 00 00	 call	 ?DoReturnToBegin@CAIMonster@@IAEXH@Z ; CAIMonster::DoReturnToBegin
  0032c	8b 07		 mov	 eax, DWORD PTR [edi]
  0032e	8b cf		 mov	 ecx, edi
  00330	6a 00		 push	 0
  00332	6a 00		 push	 0
  00334	ff 74 24 1c	 push	 DWORD PTR _dwAIState$1$[esp+96]
  00338	6a 04		 push	 4
  0033a	ff 50 0c	 call	 DWORD PTR [eax+12]
$LN33@MoveProces:
  0033d	b8 01 00 00 00	 mov	 eax, 1
  00342	5f		 pop	 edi
  00343	5e		 pop	 esi
  00344	8b 4c 24 4c	 mov	 ecx, DWORD PTR __$ArrayPad$[esp+80]
  00348	33 cc		 xor	 ecx, esp
  0034a	e8 00 00 00 00	 call	 @__security_check_cookie@4
  0034f	8b e5		 mov	 esp, ebp
  00351	5d		 pop	 ebp
  00352	c2 04 00	 ret	 4
$LN13@MoveProces:

; 1882 : 			}
; 1883 : 		}
; 1884 : #endif // __INSTANCE_DUNGEON
; 1885 : 
; 1886 : 		DoReturnToBegin();	// SetTarget( NULL_ID, 0 );	// ХИАйРЛ ЦїБтЧд.
; 1887 : 		SendAIMsg( AIMSG_SETSTATE, dwAIState );
; 1888 : 		return TRUE;
; 1889 : 	}
; 1890 : 	else
; 1891 : 	{
; 1892 : 		m_bRangeAttack = SelectAttackType( pTarget );		// AIПЁЕћИЅ АјАнЙцНФ МБХУ.

  00355	56		 push	 esi
  00356	8b cf		 mov	 ecx, edi
  00358	e8 00 00 00 00	 call	 ?SelectAttackType@CAIMonster@@IAEHPAVCMover@@@Z ; CAIMonster::SelectAttackType
  0035d	89 87 d0 00 00
	00		 mov	 DWORD PTR [edi+208], eax

; 1893 : 
; 1894 : 		if( m_bRangeAttack )	// ПјАХИЎ АјАнРИЗЮ АсСЄЕЦРН.

  00363	85 c0		 test	 eax, eax
  00365	0f 84 20 02 00
	00		 je	 $LN17@MoveProces

; 1895 : 		{
; 1896 : 			int nTargetJob = pTarget->GetJob();

  0036b	8b ce		 mov	 ecx, esi
  0036d	e8 00 00 00 00	 call	 ?GetJob@CMover@@QAEHXZ	; CMover::GetJob

; 1897 : 			if( nTargetJob < 0 )	nTargetJob = 0;		// Е№ЦњЦЎЗЮ -1ЗЮ УЪБтШ­ ЧЯБтЖЋПЁ АЫЛчЧиОпЧд.
; 1898 : 			if( nTargetJob >= MAX_JOB )

  00372	33 c9		 xor	 ecx, ecx
  00374	85 c0		 test	 eax, eax
  00376	0f 49 c8	 cmovns	 ecx, eax
  00379	83 f9 28	 cmp	 ecx, 40			; 00000028H
  0037c	7c 10		 jl	 SHORT $LN20@MoveProces

; 1899 : 			{
; 1900 : 				Error( "CAIMonster::MoverProcessRage : ЙќРЇФЇЙќ %d", nTargetJob );

  0037e	51		 push	 ecx
  0037f	68 00 00 00 00	 push	 OFFSET ??_C@_0CL@OIBCKMKI@CAIMonster?3?3MoverProcessRage?5?3?5@
  00384	e8 00 00 00 00	 call	 ?Error@@YAPBDPBDZZ	; Error
  00389	83 c4 08	 add	 esp, 8

; 1901 : 				nTargetJob = 0;

  0038c	33 c9		 xor	 ecx, ecx
$LN20@MoveProces:
; File C:\IAGOS\server\v18\Source\Source\DX_SDK\d3dx9math.inl

; 1684 :     return sqrtf(pV->x * pV->x + pV->y * pV->y + pV->z * pV->z);

  0038e	f3 0f 10 4c 24
	2c		 movss	 xmm1, DWORD PTR _vTargetTo$[esp+88]
  00394	f3 0f 10 44 24
	30		 movss	 xmm0, DWORD PTR _vTargetTo$[esp+92]
; File C:\IAGOS\server\v18\Source\Source\_aiinterface\aimonster.cpp

; 1904 : 			FLOAT	fRange = (FLOAT)(pProp->m_bRangeAttack[ nTargetJob ] & 0x7F);		// ЛчАХИЎ

  0039a	8b 44 24 1c	 mov	 eax, DWORD PTR $T1[esp+88]
; File C:\IAGOS\server\v18\Source\Source\DX_SDK\d3dx9math.inl

; 1684 :     return sqrtf(pV->x * pV->x + pV->y * pV->y + pV->z * pV->z);

  0039e	f3 0f 59 c0	 mulss	 xmm0, xmm0
  003a2	f3 0f 59 c9	 mulss	 xmm1, xmm1
; File C:\IAGOS\server\v18\Source\Source\_aiinterface\aimonster.cpp

; 1904 : 			FLOAT	fRange = (FLOAT)(pProp->m_bRangeAttack[ nTargetJob ] & 0x7F);		// ЛчАХИЎ

  003a6	8a 84 08 f8 01
	00 00		 mov	 al, BYTE PTR [eax+ecx+504]
  003ad	88 44 24 13	 mov	 BYTE PTR tv1180[esp+88], al
  003b1	24 7f		 and	 al, 127			; 0000007fH
  003b3	0f b6 f0	 movzx	 esi, al
; File C:\IAGOS\server\v18\Source\Source\DX_SDK\d3dx9math.inl

; 1684 :     return sqrtf(pV->x * pV->x + pV->y * pV->y + pV->z * pV->z);

  003b6	f3 0f 58 c8	 addss	 xmm1, xmm0
  003ba	f3 0f 10 44 24
	34		 movss	 xmm0, DWORD PTR _vTargetTo$[esp+96]
  003c0	f3 0f 59 c0	 mulss	 xmm0, xmm0
  003c4	f3 0f 58 c8	 addss	 xmm1, xmm0
; File C:\Program Files (x86)\Windows Kits\10\Include\10.0.26100.0\ucrt\corecrt_math.h

; 799  :             return (float)sqrt(_X);

  003c8	0f 5a c1	 cvtps2pd xmm0, xmm1
  003cb	0f 57 c9	 xorps	 xmm1, xmm1
  003ce	66 0f 2e c8	 ucomisd xmm1, xmm0
  003d2	77 06		 ja	 SHORT $LN137@MoveProces
  003d4	f2 0f 51 c0	 sqrtsd	 xmm0, xmm0
  003d8	eb 05		 jmp	 SHORT $LN138@MoveProces
$LN137@MoveProces:
  003da	e8 00 00 00 00	 call	 __libm_sse2_sqrt_precise
$LN138@MoveProces:
; File C:\IAGOS\server\v18\Source\Source\_aiinterface\aimonster.cpp

; 1905 : 			BOOL	bKeepRange = (pProp->m_bRangeAttack[ nTargetJob ] & 0x80) ? TRUE : FALSE;	// ЛѓРЇ 1КёЦЎАЁ ПТ?

  003df	80 7c 24 13 00	 cmp	 BYTE PTR tv1180[esp+88], 0
; File C:\Program Files (x86)\Windows Kits\10\Include\10.0.26100.0\ucrt\corecrt_math.h

; 799  :             return (float)sqrt(_X);

  003e4	0f 57 db	 xorps	 xmm3, xmm3
; File C:\IAGOS\server\v18\Source\Source\_aiinterface\aimonster.cpp

; 1907 : 			if( bKeepRange )

  003e7	66 0f 6e d6	 movd	 xmm2, esi
; File C:\Program Files (x86)\Windows Kits\10\Include\10.0.26100.0\ucrt\corecrt_math.h

; 799  :             return (float)sqrt(_X);

  003eb	f2 0f 5a d8	 cvtsd2ss xmm3, xmm0
; File C:\IAGOS\server\v18\Source\Source\_aiinterface\aimonster.cpp

; 1907 : 			if( bKeepRange )

  003ef	0f 5b d2	 cvtdq2ps xmm2, xmm2
  003f2	0f 8d 86 01 00
	00		 jge	 $LN21@MoveProces

; 1908 : 			{
; 1909 : 				if( fabs(fDist - fRange) < 1.0f )	// РћАњРЧ АХИЎПЭ ЛчАХИЎРЧ ТїРЬАЁ 1ЙЬХЭ РЬГЛИщ ДѕРЬЛѓ ПђСїРЯ ЧЪПф ОјРН.

  003f8	0f 28 c3	 movaps	 xmm0, xmm3
  003fb	f3 0f 5c c2	 subss	 xmm0, xmm2
  003ff	0f 5a c8	 cvtps2pd xmm1, xmm0
  00402	f2 0f 10 05 00
	00 00 00	 movsd	 xmm0, QWORD PTR __real@3ff0000000000000
  0040a	0f 54 0d 00 00
	00 00		 andps	 xmm1, QWORD PTR __xmm@7fffffffffffffff7fffffffffffffff
  00411	66 0f 2f c1	 comisd	 xmm0, xmm1
  00415	0f 86 82 00 00
	00		 jbe	 $LN23@MoveProces
$LN139@MoveProces:

; 1928 : 				{
; 1929 : 					if( pMover->IsEmptyDest() == FALSE )	// РЬЕПСпРг.
; 1930 : 						MoveToDst( pMover->GetPos() );		// ЧіРчРЇФЁЗЮ РЬЕП - М­ЙіПЁМБ НКХОАњ ААРК ИэЗЩ. ХЌЖѓПЁМБ М­ЙіРЧ РЇФЁЗЮ РЬЕП.
; 1931 : 				} else
; 1932 : 					MoveToDst( pTarget->GetId() );	// ЛчАХИЎ ЙлРЬИщ ИёЧЅТЪРИЗЮ СЂБй.
; 1933 : 			}
; 1934 : 		} else
; 1935 : 		// БйАХИЎ
; 1936 : 		{
; 1937 : 			MoveToDst( pTarget->GetId() );		// БйАХИЎДТ ЙЋСЖАЧ ИёЧЅТЪРИЗЮ СЂБй.
; 1938 : 		}
; 1939 : 
; 1940 : 		if( pProp->m_nSummProb )			// Summon AIАЁ РжДРГФ?

  0041b	8b 74 24 18	 mov	 esi, DWORD PTR _pMover$1$[esp+88]
  0041f	8b ce		 mov	 ecx, esi
  00421	e8 00 00 00 00	 call	 ?IsEmptyDest@CMover@@QAEHXZ ; CMover::IsEmptyDest
  00426	85 c0		 test	 eax, eax
  00428	75 24		 jne	 SHORT $LN136@MoveProces
  0042a	8b 86 68 01 00
	00		 mov	 eax, DWORD PTR [esi+360]
  00430	f3 0f 7e 86 60
	01 00 00	 movq	 xmm0, QWORD PTR [esi+352]
  00438	89 44 24 44	 mov	 DWORD PTR $T5[esp+96], eax
  0043c	8d 44 24 3c	 lea	 eax, DWORD PTR $T5[esp+88]
  00440	66 0f d6 44 24
	3c		 movq	 QWORD PTR $T5[esp+88], xmm0
$LN140@MoveProces:
  00446	50		 push	 eax
  00447	8b cf		 mov	 ecx, edi
  00449	e8 00 00 00 00	 call	 ?MoveToDst@CAIMonster@@IAEXABUD3DXVECTOR3@@@Z ; CAIMonster::MoveToDst
$LN136@MoveProces:
  0044e	8b 74 24 0c	 mov	 esi, DWORD PTR _pTarget$1$[esp+88]
$LN18@MoveProces:
  00452	8b 44 24 1c	 mov	 eax, DWORD PTR $T1[esp+88]
  00456	83 b8 20 02 00
	00 00		 cmp	 DWORD PTR [eax+544], 0
  0045d	74 08		 je	 SHORT $LN31@MoveProces

; 1941 : 			SubSummonProcess( pTarget );	// МвШЏРЛ НУЕЕ

  0045f	56		 push	 esi
  00460	8b cf		 mov	 ecx, edi
  00462	e8 00 00 00 00	 call	 ?SubSummonProcess@CAIMonster@@IAEXPAVCMover@@@Z ; CAIMonster::SubSummonProcess
$LN31@MoveProces:

; 1942 : 		
; 1943 : 		// АјАн ТљНК.
; 1944 : 		if( TIMEGETTIME > m_tmAttackDelay )

  00467	a1 00 00 00 00	 mov	 eax, DWORD PTR ?g_tmCurrent@@3KA ; g_tmCurrent
  0046c	3b 47 3c	 cmp	 eax, DWORD PTR [edi+60]
  0046f	0f 86 c8 fe ff
	ff		 jbe	 $LN33@MoveProces

; 1945 : 		{
; 1946 : 			if( SubAttackChance( msg, pTarget ) == FALSE )

  00475	56		 push	 esi
  00476	ff 75 08	 push	 DWORD PTR _msg$[ebp]
  00479	8b cf		 mov	 ecx, edi
  0047b	e8 00 00 00 00	 call	 ?SubAttackChance@CAIMonster@@IAEHABUAIMSG@@PAVCMover@@@Z ; CAIMonster::SubAttackChance
  00480	85 c0		 test	 eax, eax
  00482	0f 85 b5 fe ff
	ff		 jne	 $LN33@MoveProces
$LN3@MoveProces:

; 1947 : 				return FALSE;
; 1948 : 		}
; 1949 : 	}
; 1950 : 	return TRUE;
; 1951 : }

  00488	8b 4c 24 54	 mov	 ecx, DWORD PTR __$ArrayPad$[esp+88]
  0048c	33 c0		 xor	 eax, eax
  0048e	5f		 pop	 edi
  0048f	5e		 pop	 esi
  00490	33 cc		 xor	 ecx, esp
  00492	e8 00 00 00 00	 call	 @__security_check_cookie@4
  00497	8b e5		 mov	 esp, ebp
  00499	5d		 pop	 ebp
  0049a	c2 04 00	 ret	 4
$LN23@MoveProces:

; 1910 : 				{
; 1911 : 					if( pMover->IsEmptyDest() == FALSE )	// РЬЕПСпРг.
; 1912 : 						MoveToDst( pMover->GetPos() );		// ЧіРчРЇФЁЗЮ РЬЕП - М­ЙіПЁМБ НКХОАњ ААРК ИэЗЩ. ХЌЖѓПЁМБ М­ЙіРЧ РЇФЁЗЮ РЬЕП.
; 1913 : 				} else
; 1914 : 				{
; 1915 : 					// fRangeРЧ АХИЎИІ РЏСіЧЯЕЕЗЯ ...
; 1916 : 					if( fDist < fRange )	

  0049d	0f 2f d3	 comiss	 xmm2, xmm3
  004a0	0f 86 e1 00 00
	00		 jbe	 $LN28@MoveProces
; File C:\IAGOS\server\v18\Source\Source\_Common\Obj.h

; 215  : 	D3DXVECTOR3		GetPos()	{ return m_vPos; }

  004a6	8b 74 24 18	 mov	 esi, DWORD PTR _pMover$1$[esp+88]
  004aa	8b 86 68 01 00
	00		 mov	 eax, DWORD PTR [esi+360]
  004b0	f3 0f 7e 86 60
	01 00 00	 movq	 xmm0, QWORD PTR [esi+352]
  004b8	89 44 24 50	 mov	 DWORD PTR $T11[esp+96], eax
  004bc	8b 44 24 0c	 mov	 eax, DWORD PTR _pTarget$1$[esp+88]
  004c0	66 0f d6 44 24
	48		 movq	 QWORD PTR $T11[esp+88], xmm0
  004c6	f3 0f 7e 80 60
	01 00 00	 movq	 xmm0, QWORD PTR [eax+352]
  004ce	8b 80 68 01 00
	00		 mov	 eax, DWORD PTR [eax+360]
  004d4	89 44 24 44	 mov	 DWORD PTR $T6[esp+96], eax
; File C:\IAGOS\server\v18\Source\Source\_aiinterface\aimonster.cpp

; 1918 : 						FLOAT fAngle = GetDegreeX( pMover->GetPos(), pTarget->GetPos() );	// dest, srcРЧ ЦФЖѓИоХЭ РЇФЁИІ ЙйВйИщ ЙнДыЙцЧтРЬ ГЊПТДй.

  004d8	8d 44 24 3c	 lea	 eax, DWORD PTR $T6[esp+88]
  004dc	50		 push	 eax
  004dd	8d 44 24 4c	 lea	 eax, DWORD PTR $T11[esp+92]
; File C:\IAGOS\server\v18\Source\Source\_Common\Obj.h

; 215  : 	D3DXVECTOR3		GetPos()	{ return m_vPos; }

  004e1	66 0f d6 44 24
	40		 movq	 QWORD PTR $T6[esp+92], xmm0
; File C:\IAGOS\server\v18\Source\Source\_aiinterface\aimonster.cpp

; 1918 : 						FLOAT fAngle = GetDegreeX( pMover->GetPos(), pTarget->GetPos() );	// dest, srcРЧ ЦФЖѓИоХЭ РЇФЁИІ ЙйВйИщ ЙнДыЙцЧтРЬ ГЊПТДй.

  004e7	50		 push	 eax
  004e8	e8 00 00 00 00	 call	 ?GetDegreeX@@YAMABUD3DXVECTOR3@@0@Z ; GetDegreeX
; File C:\IAGOS\server\v18\Source\Source\_Common\Obj.h

; 280  : 	FLOAT fTheta = D3DXToRadian( fAngle );

  004ed	d8 0d 00 00 00
	00		 fmul	 DWORD PTR __real@3c8efa35
; File C:\IAGOS\server\v18\Source\Source\_aiinterface\aimonster.cpp

; 1918 : 						FLOAT fAngle = GetDegreeX( pMover->GetPos(), pTarget->GetPos() );	// dest, srcРЧ ЦФЖѓИоХЭ РЇФЁИІ ЙйВйИщ ЙнДыЙцЧтРЬ ГЊПТДй.

  004f3	83 c4 08	 add	 esp, 8
; File C:\IAGOS\server\v18\Source\Source\_Common\Obj.h

; 215  : 	D3DXVECTOR3		GetPos()	{ return m_vPos; }

  004f6	f3 0f 7e 86 60
	01 00 00	 movq	 xmm0, QWORD PTR [esi+352]
  004fe	8b 86 68 01 00
	00		 mov	 eax, DWORD PTR [esi+360]
  00504	66 0f d6 44 24
	3c		 movq	 QWORD PTR $T7[esp+88], xmm0
  0050a	89 44 24 44	 mov	 DWORD PTR $T7[esp+96], eax
; File C:\Program Files (x86)\Windows Kits\10\Include\10.0.26100.0\ucrt\corecrt_math.h

; 789  :             return (float)sin(_X);

  0050e	dd 5c 24 20	 fstp	 QWORD PTR tv1095[esp+88]
  00512	f2 0f 10 44 24
	20		 movsd	 xmm0, QWORD PTR tv1095[esp+88]
  00518	e8 00 00 00 00	 call	 __libm_sse2_sin_precise
  0051d	0f 57 c9	 xorps	 xmm1, xmm1
  00520	f2 0f 5a c8	 cvtsd2ss xmm1, xmm0
  00524	0f 57 c0	 xorps	 xmm0, xmm0
; File C:\IAGOS\server\v18\Source\Source\_Common\Obj.h

; 281  : 	FLOAT fx = sinf( fTheta ) * fVelocity;

  00527	f3 0f 59 0d 00
	00 00 00	 mulss	 xmm1, DWORD PTR __real@41200000

; 215  : 	D3DXVECTOR3		GetPos()	{ return m_vPos; }

  0052f	f3 0f 58 4c 24
	3c		 addss	 xmm1, DWORD PTR $T7[esp+88]
; File C:\IAGOS\server\v18\Source\Source\DX_SDK\d3dx9math.inl

; 300  :     x = fx;

  00535	f3 0f 11 4c 24
	48		 movss	 DWORD PTR _vDst$12[esp+88], xmm1
  0053b	f3 0f 10 4c 24
	40		 movss	 xmm1, DWORD PTR $T7[esp+92]
  00541	f3 0f 58 c8	 addss	 xmm1, xmm0
; File C:\Program Files (x86)\Windows Kits\10\Include\10.0.26100.0\ucrt\corecrt_math.h

; 683  :             return (float)cos(_X);

  00545	f2 0f 10 44 24
	20		 movsd	 xmm0, QWORD PTR tv1095[esp+88]
; File C:\IAGOS\server\v18\Source\Source\DX_SDK\d3dx9math.inl

; 301  :     y = fy;

  0054b	f3 0f 11 4c 24
	4c		 movss	 DWORD PTR _vDst$12[esp+92], xmm1
; File C:\Program Files (x86)\Windows Kits\10\Include\10.0.26100.0\ucrt\corecrt_math.h

; 683  :             return (float)cos(_X);

  00551	e8 00 00 00 00	 call	 __libm_sse2_cos_precise
  00556	0f 57 c9	 xorps	 xmm1, xmm1
; File C:\IAGOS\server\v18\Source\Source\_aiinterface\aimonster.cpp

; 1920 : 						MoveToDst( vDst );		// ЙнДыЙцЧтРИЗЮ ДоЗСМ­ АХИЎИІ ЙњИВ.

  00559	8d 44 24 48	 lea	 eax, DWORD PTR _vDst$12[esp+88]
; File C:\Program Files (x86)\Windows Kits\10\Include\10.0.26100.0\ucrt\corecrt_math.h

; 683  :             return (float)cos(_X);

  0055d	f2 0f 5a c8	 cvtsd2ss xmm1, xmm0
; File C:\IAGOS\server\v18\Source\Source\DX_SDK\d3dx9math.inl

; 301  :     y = fy;

  00561	f3 0f 10 44 24
	44		 movss	 xmm0, DWORD PTR $T7[esp+96]
; File C:\IAGOS\server\v18\Source\Source\_Common\Obj.h

; 282  : 	FLOAT fz = -cosf( fTheta ) * fVelocity;

  00567	f3 0f 59 0d 00
	00 00 00	 mulss	 xmm1, DWORD PTR __real@41200000
; File C:\IAGOS\server\v18\Source\Source\DX_SDK\d3dx9math.inl

; 301  :     y = fy;

  0056f	f3 0f 5c c1	 subss	 xmm0, xmm1

; 302  :     z = fz;

  00573	f3 0f 11 44 24
	50		 movss	 DWORD PTR _vDst$12[esp+96], xmm0
; File C:\IAGOS\server\v18\Source\Source\_aiinterface\aimonster.cpp

; 1921 : 					} else

  00579	e9 c8 fe ff ff	 jmp	 $LN140@MoveProces
$LN21@MoveProces:

; 1922 : 						MoveToDst( pTarget->GetId() );	// ИёЧЅПЭРЧ АХИЎАЁ ЛчАХИЎКИДй Дѕ ИгДЯБю БйСЂЧд.
; 1923 : 				}
; 1924 : 			} else
; 1925 : 			// not keepRange
; 1926 : 			{
; 1927 : 				if( fDist < fRange )		// ЛчАХИЎОШПЁ РжРИИщ СІРкИЎПЁ РжРН.

  0057e	0f 2f d3	 comiss	 xmm2, xmm3
  00581	0f 87 94 fe ff
	ff		 ja	 $LN139@MoveProces
$LN28@MoveProces:

; 1928 : 				{
; 1929 : 					if( pMover->IsEmptyDest() == FALSE )	// РЬЕПСпРг.
; 1930 : 						MoveToDst( pMover->GetPos() );		// ЧіРчРЇФЁЗЮ РЬЕП - М­ЙіПЁМБ НКХОАњ ААРК ИэЗЩ. ХЌЖѓПЁМБ М­ЙіРЧ РЇФЁЗЮ РЬЕП.
; 1931 : 				} else
; 1932 : 					MoveToDst( pTarget->GetId() );	// ЛчАХИЎ ЙлРЬИщ ИёЧЅТЪРИЗЮ СЂБй.
; 1933 : 			}
; 1934 : 		} else
; 1935 : 		// БйАХИЎ
; 1936 : 		{
; 1937 : 			MoveToDst( pTarget->GetId() );		// БйАХИЎДТ ЙЋСЖАЧ ИёЧЅТЪРИЗЮ СЂБй.
; 1938 : 		}
; 1939 : 
; 1940 : 		if( pProp->m_nSummProb )			// Summon AIАЁ РжДРГФ?

  00587	8b 74 24 0c	 mov	 esi, DWORD PTR _pTarget$1$[esp+88]
$LN17@MoveProces:
  0058b	ff b6 bc 01 00
	00		 push	 DWORD PTR [esi+444]
  00591	8b cf		 mov	 ecx, edi
  00593	e8 00 00 00 00	 call	 ?MoveToDst@CAIMonster@@IAEXK@Z ; CAIMonster::MoveToDst
  00598	e9 b5 fe ff ff	 jmp	 $LN18@MoveProces
?MoveProcessRagePatrol@CAIMonster@@IAEHABUAIMSG@@@Z ENDP ; CAIMonster::MoveProcessRagePatrol
_TEXT	ENDS
; Function compile flags: /Ogtp
; File C:\IAGOS\server\v18\Source\Source\_aiinterface\aimonster.cpp
; File C:\IAGOS\server\v18\Source\Source\_Common\Obj.h
; File C:\IAGOS\server\v18\Source\Source\_aiinterface\aimonster.cpp
; File C:\IAGOS\server\v18\Source\Source\_Common\Obj.h
; File C:\IAGOS\server\v18\Source\Source\_aiinterface\aimonster.cpp
; File C:\IAGOS\server\v18\Source\Source\_Common\xUtil.h
; File C:\IAGOS\server\v18\Source\Source\_aiinterface\aimonster.cpp
;	COMDAT ?StateRagePatrol@CAIMonster@@IAEHABUAIMSG@@@Z
_TEXT	SEGMENT
_msg$ = 8						; size = 4
?StateRagePatrol@CAIMonster@@IAEHABUAIMSG@@@Z PROC	; CAIMonster::StateRagePatrol, COMDAT
; _this$ = ecx

; 1954 : {

  00000	55		 push	 ebp
  00001	8b ec		 mov	 ebp, esp
  00003	56		 push	 esi
  00004	8b f1		 mov	 esi, ecx
  00006	57		 push	 edi

; 1955 : 	CMover* pMover = GetMover();

  00007	8b 7e 30	 mov	 edi, DWORD PTR [esi+48]
; File C:\IAGOS\server\v18\Source\Source\_Common\Obj.h

; 327  : 	return pObj && ( pObj->IsDelete() == FALSE ); 

  0000a	85 ff		 test	 edi, edi
  0000c	0f 84 fe 01 00
	00		 je	 $LN60@StateRageP

; 180  : 	BOOL			IsDelete()	{ return (m_dwFlags & OBJ_FLAG_DELETE);  }

  00012	f6 47 04 01	 test	 BYTE PTR [edi+4], 1

; 327  : 	return pObj && ( pObj->IsDelete() == FALSE ); 

  00016	0f 85 f4 01 00
	00		 jne	 $LN60@StateRageP
; File C:\IAGOS\server\v18\Source\Source\_aiinterface\aimonster.cpp

; 1962 : 	OnMessage( AIMSG_INIT ) 

  0001c	53		 push	 ebx
  0001d	8b 5d 08	 mov	 ebx, DWORD PTR _msg$[ebp]
  00020	8b 03		 mov	 eax, DWORD PTR [ebx]
  00022	83 f8 01	 cmp	 eax, 1
  00025	75 58		 jne	 SHORT $LN5@StateRageP

; 1963 : 		if( msg.dwParam2 != NULL_ID )

  00027	8b 43 08	 mov	 eax, DWORD PTR [ebx+8]
  0002a	83 f8 ff	 cmp	 eax, -1
  0002d	74 25		 je	 SHORT $LN8@StateRageP

; 1964 : 		{
; 1965 : 			CMover* pTarget	= prj.GetMover( msg.dwParam2 );

  0002f	50		 push	 eax
  00030	b9 00 00 00 00	 mov	 ecx, OFFSET ?prj@@3VCProject@@A ; prj
  00035	e8 00 00 00 00	 call	 ?GetMover@CProject@@QAEPAVCMover@@K@Z ; CProject::GetMover
; File C:\IAGOS\server\v18\Source\Source\_Common\Obj.h

; 327  : 	return pObj && ( pObj->IsDelete() == FALSE ); 

  0003a	85 c0		 test	 eax, eax
  0003c	74 16		 je	 SHORT $LN8@StateRageP

; 180  : 	BOOL			IsDelete()	{ return (m_dwFlags & OBJ_FLAG_DELETE);  }

  0003e	f6 40 04 01	 test	 BYTE PTR [eax+4], 1

; 327  : 	return pObj && ( pObj->IsDelete() == FALSE ); 

  00042	75 10		 jne	 SHORT $LN8@StateRageP
; File C:\IAGOS\server\v18\Source\Source\_aiinterface\aimonster.cpp

; 1967 : 				SetTarget( msg.dwParam2, pTarget->m_idparty );

  00044	ff b0 10 07 00
	00		 push	 DWORD PTR [eax+1808]
  0004a	8b ce		 mov	 ecx, esi
  0004c	ff 73 08	 push	 DWORD PTR [ebx+8]
  0004f	e8 00 00 00 00	 call	 ?SetTarget@CAIMonster@@IAEXKK@Z ; CAIMonster::SetTarget
$LN8@StateRageP:

; 1968 : 		}
; 1969 : 		m_tmAttack = TIMEGETTIME + s_tmAttack;

  00054	a1 00 00 00 00	 mov	 eax, DWORD PTR ?s_tmAttack@@3KA

; 1970 : 		m_tmAttackDelay = TIMEGETTIME; // АјАн ЕєЗЙРЬИІ УЪБтШ­. БзЗИСі ОЪРИИщ УГРН АјАнРЬ ЕєЗЙРЬ ИдАэ ЕщОюАЃДй.
; 1971 : 		SetStop( 0 ); // 0РИЗЮ ММЦУЧЯИщ СЄСі ЛѓХТАЁ ЙйЗЮ ГЁГЊАд ЕЧОю АјАнРЬ АЁДЩЧЯАд ЕШДй. 

  00059	8b ce		 mov	 ecx, esi
  0005b	03 05 00 00 00
	00		 add	 eax, DWORD PTR ?g_tmCurrent@@3KA ; g_tmCurrent
  00061	89 46 40	 mov	 DWORD PTR [esi+64], eax
  00064	a1 00 00 00 00	 mov	 eax, DWORD PTR ?g_tmCurrent@@3KA ; g_tmCurrent
  00069	6a 00		 push	 0
  0006b	89 46 3c	 mov	 DWORD PTR [esi+60], eax
  0006e	e8 00 00 00 00	 call	 ?SetStop@CAIMonster@@IAEXK@Z ; CAIMonster::SetStop
$LN35@StateRageP:

; 2042 : 				return TRUE;

  00073	5b		 pop	 ebx
  00074	5f		 pop	 edi
  00075	b8 01 00 00 00	 mov	 eax, 1

; 2056 : 
; 2057 : 	///////////////////////////////////////////////////////////////////////////////////////////////////
; 2058 : 	OnMessage( AIMSG_ARRIVAL )
; 2059 : 
; 2060 : 	///////////////////////////////////////////////////////////////////////////////////////////////////
; 2061 : 	OnMessage( AIMSG_EXIT )	
; 2062 : 
; 2063 : 	EndAIHandler( )
; 2064 : 	return TRUE;
; 2065 : }

  0007a	5e		 pop	 esi
  0007b	5d		 pop	 ebp
  0007c	c2 04 00	 ret	 4
$LN5@StateRageP:

; 1972 : 		              // СЄСі ЛѓХТПЁМ­ДТ СЄСі ЛѓХТИІ РЯСЄ НУАЃЕПОШ РЏСіЧиСжОюОпЧЯДТЕЅ, БзЗИАд ЕЧИщ АјАнРЛ ИјЧв Мі РжДй.
; 1973 : 
; 1974 : 	///////////////////////////////////////////////////////////////////////////////////////////////////
; 1975 : 	OnMessage( AIMSG_INIT_TARGETCLEAR )		// ХИАйРЛ ХЌИЎОюЧЯАэ ДыБтИ№ЕхЗЮ ЕЙОЦАЈ.

  0007f	83 f8 11	 cmp	 eax, 17			; 00000011H
  00082	75 24		 jne	 SHORT $LN9@StateRageP

; 1976 : 		SetTarget( NULL_ID, 0 );

  00084	6a 00		 push	 0
$LN29@StateRageP:
  00086	6a ff		 push	 -1
  00088	e8 00 00 00 00	 call	 ?SetTarget@CAIMonster@@IAEXKK@Z ; CAIMonster::SetTarget
$LN30@StateRageP:

; 1977 : 		SendAIMsg( AIMSG_SETSTATE, STATE_PATROL );

  0008d	8b 06		 mov	 eax, DWORD PTR [esi]
  0008f	8b ce		 mov	 ecx, esi
  00091	6a 00		 push	 0
  00093	6a 00		 push	 0
  00095	6a 09		 push	 9
  00097	6a 04		 push	 4
  00099	ff 50 0c	 call	 DWORD PTR [eax+12]
  0009c	5b		 pop	 ebx
  0009d	5f		 pop	 edi

; 2042 : 				return TRUE;

  0009e	b8 01 00 00 00	 mov	 eax, 1

; 2056 : 
; 2057 : 	///////////////////////////////////////////////////////////////////////////////////////////////////
; 2058 : 	OnMessage( AIMSG_ARRIVAL )
; 2059 : 
; 2060 : 	///////////////////////////////////////////////////////////////////////////////////////////////////
; 2061 : 	OnMessage( AIMSG_EXIT )	
; 2062 : 
; 2063 : 	EndAIHandler( )
; 2064 : 	return TRUE;
; 2065 : }

  000a3	5e		 pop	 esi
  000a4	5d		 pop	 ebp
  000a5	c2 04 00	 ret	 4
$LN9@StateRageP:

; 1978 : 		
; 1979 : 	///////////////////////////////////////////////////////////////////////////////////////////////////
; 1980 : 	OnMessage( AIMSG_PROCESS ) 

  000a8	83 f8 02	 cmp	 eax, 2
  000ab	75 12		 jne	 SHORT $LN11@StateRageP

; 1981 : 		MoveProcessRagePatrol( msg );

  000ad	53		 push	 ebx
  000ae	e8 00 00 00 00	 call	 ?MoveProcessRagePatrol@CAIMonster@@IAEHABUAIMSG@@@Z ; CAIMonster::MoveProcessRagePatrol
  000b3	5b		 pop	 ebx
  000b4	5f		 pop	 edi

; 2042 : 				return TRUE;

  000b5	b8 01 00 00 00	 mov	 eax, 1

; 2056 : 
; 2057 : 	///////////////////////////////////////////////////////////////////////////////////////////////////
; 2058 : 	OnMessage( AIMSG_ARRIVAL )
; 2059 : 
; 2060 : 	///////////////////////////////////////////////////////////////////////////////////////////////////
; 2061 : 	OnMessage( AIMSG_EXIT )	
; 2062 : 
; 2063 : 	EndAIHandler( )
; 2064 : 	return TRUE;
; 2065 : }

  000ba	5e		 pop	 esi
  000bb	5d		 pop	 ebp
  000bc	c2 04 00	 ret	 4
$LN11@StateRageP:

; 1982 : 		
; 1983 : 	///////////////////////////////////////////////////////////////////////////////////////////////////
; 1984 : 	OnMessage( AIMSG_DAMAGE ) 

  000bf	83 f8 08	 cmp	 eax, 8
  000c2	0f 85 d0 00 00
	00		 jne	 $LN13@StateRageP

; 1985 : 		if( IsMove() && m_bGoTarget == FALSE )

  000c8	e8 00 00 00 00	 call	 ?IsMove@CAIMonster@@IAEHXZ ; CAIMonster::IsMove
  000cd	85 c0		 test	 eax, eax
  000cf	74 35		 je	 SHORT $LN15@StateRageP
  000d1	83 be c0 00 00
	00 00		 cmp	 DWORD PTR [esi+192], 0
  000d8	75 2c		 jne	 SHORT $LN15@StateRageP
; File C:\IAGOS\server\v18\Source\Source\_Common\xUtil.h

; 16   : 	g_next = g_next * 1103515245 + 12345;// + nRandomSeed[ i++ ];

  000da	69 05 00 00 00
	00 6d 4e c6 41	 imul	 eax, DWORD PTR ?g_next@@3KA, 1103515245 ; g_next
  000e4	05 39 30 00 00	 add	 eax, 12345		; 00003039H
  000e9	a3 00 00 00 00	 mov	 DWORD PTR ?g_next@@3KA, eax ; g_next
  000ee	a8 01		 test	 al, 1
; File C:\IAGOS\server\v18\Source\Source\_aiinterface\aimonster.cpp

; 1987 : 			if( xRandom( 2 ) == 0 )		// 1/2ШЎЗќЗЮ АјАнРкИІ ЖЇИВ.

  000f0	75 0a		 jne	 SHORT $LN16@StateRageP

; 1988 : 			{
; 1989 : 				// АјАнРкПЁАд ИёЧЅИІ МГСЄ 
; 1990 : 				MoveToDst( msg.dwParam1 );

  000f2	ff 73 04	 push	 DWORD PTR [ebx+4]
  000f5	8b ce		 mov	 ecx, esi
  000f7	e8 00 00 00 00	 call	 ?MoveToDst@CAIMonster@@IAEXK@Z ; CAIMonster::MoveToDst
$LN16@StateRageP:

; 1991 : 			}
; 1992 : 			m_bGoTarget = TRUE;

  000fc	c7 86 c0 00 00
	00 01 00 00 00	 mov	 DWORD PTR [esi+192], 1
$LN15@StateRageP:

; 1993 : 		}
; 1994 : 		MoverProp* pMoverProp = pMover->GetProp();

  00106	8b cf		 mov	 ecx, edi
  00108	e8 00 00 00 00	 call	 ?GetPropA@CMover@@QAEPAUMoverProp@@XZ ; CMover::GetPropA

; 1995 : 		int nHPPercent = pMover->GetHitPointPercent( 100 );

  0010d	6a 64		 push	 100			; 00000064H
  0010f	8b cf		 mov	 ecx, edi
  00111	8b d8		 mov	 ebx, eax
  00113	e8 00 00 00 00	 call	 ?GetHitPointPercent@CMover@@QAEHH@Z ; CMover::GetHitPointPercent

; 1996 : /*
; 1997 : 		// ЕЕСж HP ЦлМОЦЎКИДй ЧіРч HPЦлМОЦЎАЁ РлРЛ АцПь ЕЕИСАЁРк.
; 1998 : 		if( nHPPercent < pMoverProp->m_nRunawayHP )
; 1999 : 		{
; 2000 : 			// ЕЕСж И№ЕхЗЮ ММЦУ 
; 2001 : 			SendAIMsg( AIMSG_SETSTATE, STATE_RUNAWAY );
; 2002 : 			g_UserMng.AddDlgEmoticon( pMover, DLGEMOT_EVADE );
; 2003 : 		}
; 2004 : */
; 2005 : 		// Call HP ЦлМОЦЎКИДй ЧіРч HPЦлМОЦЎАЁ РлРЛ АцПь ЕПЗсИІ КЮИЃРк.
; 2006 : 		if( pMoverProp->m_bHelpWho )	// ЧяЧСAIАЁ РжРЛАцПь.

  00118	80 bb f7 01 00
	00 00		 cmp	 BYTE PTR [ebx+503], 0
  0011f	74 4b		 je	 SHORT $LN17@StateRageP

; 2007 : 		{
; 2008 : 			if( TIMEGETTIME - m_tmHelp > pMoverProp->m_tmUnitHelp )	// УжУЪ m_tmHelpДТ 0РЬЙЧЗЮ ЧяЧСИІ ЧбДй.

  00121	a1 00 00 00 00	 mov	 eax, DWORD PTR ?g_tmCurrent@@3KA ; g_tmCurrent
  00126	2b 46 48	 sub	 eax, DWORD PTR [esi+72]
  00129	3b 83 30 02 00
	00		 cmp	 eax, DWORD PTR [ebx+560]
  0012f	76 45		 jbe	 SHORT $LN18@StateRageP

; 2009 : 			{
; 2010 : 				if( m_bCallHelper == FALSE )

  00131	83 be cc 00 00
	00 00		 cmp	 DWORD PTR [esi+204], 0
  00138	75 3c		 jne	 SHORT $LN18@StateRageP

; 2011 : 				{
; 2012 : 					CallHelper( pMoverProp );

  0013a	53		 push	 ebx
  0013b	8b ce		 mov	 ecx, esi
  0013d	e8 00 00 00 00	 call	 ?CallHelper@CAIMonster@@IAEXPBUMoverProp@@@Z ; CAIMonster::CallHelper

; 2013 : 					g_UserMng.AddDlgEmoticon( pMover, DLGEMOT_HELPER );

  00142	6a 03		 push	 3
  00144	57		 push	 edi
  00145	b9 00 00 00 00	 mov	 ecx, OFFSET ?g_UserMng@@3VCUserMng@@A ; g_UserMng
  0014a	e8 00 00 00 00	 call	 ?AddDlgEmoticon@CUserMng@@QAEXPAVCCtrl@@H@Z ; CUserMng::AddDlgEmoticon

; 2014 : 					m_tmHelp = TIMEGETTIME;

  0014f	a1 00 00 00 00	 mov	 eax, DWORD PTR ?g_tmCurrent@@3KA ; g_tmCurrent
  00154	89 46 48	 mov	 DWORD PTR [esi+72], eax

; 2015 : 					if( pMoverProp->m_tmUnitHelp == 0 )		// 0РЬИщ ЧбЙјИИ КЮИЃАэ ОШКЮИЇ.

  00157	83 bb 30 02 00
	00 00		 cmp	 DWORD PTR [ebx+560], 0
  0015e	75 16		 jne	 SHORT $LN18@StateRageP

; 2016 : 						m_bCallHelper = TRUE;

  00160	c7 86 cc 00 00
	00 01 00 00 00	 mov	 DWORD PTR [esi+204], 1

; 2017 : 				}
; 2018 : 			}
; 2019 : 		}

  0016a	eb 0a		 jmp	 SHORT $LN18@StateRageP
$LN17@StateRageP:

; 2020 : 		else
; 2021 : 			m_bCallHelper = FALSE;

  0016c	c7 86 cc 00 00
	00 00 00 00 00	 mov	 DWORD PTR [esi+204], 0
$LN18@StateRageP:

; 2022 : 
; 2023 : #if __VER >= 9	//__AI_0509
; 2024 : 		m_vPosDamage	= pMover->GetPos();

  00176	f3 0f 7e 87 60
	01 00 00	 movq	 xmm0, QWORD PTR [edi+352]
  0017e	66 0f d6 46 74	 movq	 QWORD PTR [esi+116], xmm0
  00183	8b 87 68 01 00
	00		 mov	 eax, DWORD PTR [edi+360]
  00189	5b		 pop	 ebx
  0018a	89 46 7c	 mov	 DWORD PTR [esi+124], eax

; 2042 : 				return TRUE;

  0018d	b8 01 00 00 00	 mov	 eax, 1
  00192	5f		 pop	 edi

; 2056 : 
; 2057 : 	///////////////////////////////////////////////////////////////////////////////////////////////////
; 2058 : 	OnMessage( AIMSG_ARRIVAL )
; 2059 : 
; 2060 : 	///////////////////////////////////////////////////////////////////////////////////////////////////
; 2061 : 	OnMessage( AIMSG_EXIT )	
; 2062 : 
; 2063 : 	EndAIHandler( )
; 2064 : 	return TRUE;
; 2065 : }

  00193	5e		 pop	 esi
  00194	5d		 pop	 ebp
  00195	c2 04 00	 ret	 4
$LN13@StateRageP:

; 2025 : #endif	// __AI_0509
; 2026 : 
; 2027 : 	///////////////////////////////////////////////////////////////////////////////////////////////////
; 2028 : 	OnMessage( AIMSG_COLLISION )

  00198	83 f8 0a	 cmp	 eax, 10			; 0000000aH
  0019b	0f 84 d2 fe ff
	ff		 je	 $LN35@StateRageP

; 2029 : 
; 2030 : 	///////////////////////////////////////////////////////////////////////////////////////////////////
; 2031 : 	OnMessage( AIMSG_DIE ) 

  001a1	83 f8 09	 cmp	 eax, 9
  001a4	0f 84 c9 fe ff
	ff		 je	 $LN35@StateRageP

; 2032 : 
; 2033 : 	///////////////////////////////////////////////////////////////////////////////////////////////////
; 2034 : 	OnMessage( AIMSG_DSTDIE ) 

  001aa	83 f8 07	 cmp	 eax, 7
  001ad	75 42		 jne	 SHORT $LN26@StateRageP

; 2035 : 		if( m_dwIdTarget == msg.dwParam1 )

  001af	8b 86 d8 00 00
	00		 mov	 eax, DWORD PTR [esi+216]
  001b5	3b 43 04	 cmp	 eax, DWORD PTR [ebx+4]
  001b8	0f 85 cf fe ff
	ff		 jne	 $LN30@StateRageP

; 2036 : 		{
; 2037 : #if __VER >= 9	//__AI_0509
; 2038 : 			CMover* pTarget	= ScanTargetNext( pMover, /*pProp->m_nAttackFirstRange*/ 15, m_dwIdTarget, m_uParty );

  001be	ff 76 34	 push	 DWORD PTR [esi+52]
  001c1	50		 push	 eax
  001c2	6a 0f		 push	 15			; 0000000fH
  001c4	57		 push	 edi
  001c5	e8 00 00 00 00	 call	 ?ScanTargetNext@CAIInterface@@IAEPAVCMover@@PAVCObj@@HKK@Z ; CAIInterface::ScanTargetNext

; 2039 : 			if( pTarget )

  001ca	8b ce		 mov	 ecx, esi
  001cc	6a 00		 push	 0
  001ce	85 c0		 test	 eax, eax
  001d0	0f 84 b0 fe ff
	ff		 je	 $LN29@StateRageP

; 2040 : 			{
; 2041 : 				SendAIMsg( AIMSG_SETSTATE, STATE_RAGE, pTarget->GetId() );

  001d6	ff b0 bc 01 00
	00		 push	 DWORD PTR [eax+444]
  001dc	8b 16		 mov	 edx, DWORD PTR [esi]
  001de	6a 07		 push	 7
  001e0	6a 04		 push	 4
  001e2	ff 52 0c	 call	 DWORD PTR [edx+12]
  001e5	5b		 pop	 ebx
  001e6	5f		 pop	 edi

; 2042 : 				return TRUE;

  001e7	b8 01 00 00 00	 mov	 eax, 1

; 2056 : 
; 2057 : 	///////////////////////////////////////////////////////////////////////////////////////////////////
; 2058 : 	OnMessage( AIMSG_ARRIVAL )
; 2059 : 
; 2060 : 	///////////////////////////////////////////////////////////////////////////////////////////////////
; 2061 : 	OnMessage( AIMSG_EXIT )	
; 2062 : 
; 2063 : 	EndAIHandler( )
; 2064 : 	return TRUE;
; 2065 : }

  001ec	5e		 pop	 esi
  001ed	5d		 pop	 ebp
  001ee	c2 04 00	 ret	 4
$LN26@StateRageP:

; 2043 : 			}
; 2044 : 			else
; 2045 : #endif	// __AI_0509
; 2046 : 			{
; 2047 : 				SetTarget( NULL_ID, 0 );
; 2048 : 			}
; 2049 : 		}
; 2050 : 		TRACE( "TARGET CLEARED\n" );
; 2051 : 		SendAIMsg( AIMSG_SETSTATE, STATE_PATROL );
; 2052 : 
; 2053 : 	///////////////////////////////////////////////////////////////////////////////////////////////////
; 2054 : 	OnMessage( AIMSG_BEGINMOVE )

  001f1	83 f8 0d	 cmp	 eax, 13			; 0000000dH
  001f4	0f 85 79 fe ff
	ff		 jne	 $LN35@StateRageP

; 2055 : 		m_bGoTarget = FALSE; 

  001fa	5b		 pop	 ebx
  001fb	5f		 pop	 edi
  001fc	c7 86 c0 00 00
	00 00 00 00 00	 mov	 DWORD PTR [esi+192], 0
  00206	b8 01 00 00 00	 mov	 eax, 1

; 2056 : 
; 2057 : 	///////////////////////////////////////////////////////////////////////////////////////////////////
; 2058 : 	OnMessage( AIMSG_ARRIVAL )
; 2059 : 
; 2060 : 	///////////////////////////////////////////////////////////////////////////////////////////////////
; 2061 : 	OnMessage( AIMSG_EXIT )	
; 2062 : 
; 2063 : 	EndAIHandler( )
; 2064 : 	return TRUE;
; 2065 : }

  0020b	5e		 pop	 esi
  0020c	5d		 pop	 ebp
  0020d	c2 04 00	 ret	 4
$LN60@StateRageP:
  00210	5f		 pop	 edi

; 1956 : 	CWorld* pWorld = GetWorld();
; 1957 : 	if( IsInvalidObj(pMover) )	return FALSE;

  00211	33 c0		 xor	 eax, eax

; 2056 : 
; 2057 : 	///////////////////////////////////////////////////////////////////////////////////////////////////
; 2058 : 	OnMessage( AIMSG_ARRIVAL )
; 2059 : 
; 2060 : 	///////////////////////////////////////////////////////////////////////////////////////////////////
; 2061 : 	OnMessage( AIMSG_EXIT )	
; 2062 : 
; 2063 : 	EndAIHandler( )
; 2064 : 	return TRUE;
; 2065 : }

  00213	5e		 pop	 esi
  00214	5d		 pop	 ebp
  00215	c2 04 00	 ret	 4
?StateRagePatrol@CAIMonster@@IAEHABUAIMSG@@@Z ENDP	; CAIMonster::StateRagePatrol
_TEXT	ENDS
; Function compile flags: /Ogtp
; File C:\IAGOS\server\v18\Source\Source\_aiinterface\aimonster.cpp
; File C:\IAGOS\server\v18\Source\Source\_Common\Project.h
; File C:\IAGOS\server\v18\Source\Source\_aiinterface\aimonster.cpp
; File C:\IAGOS\server\v18\Source\Source\_Common\Mover.h
; File C:\IAGOS\server\v18\Source\Source\_Common\Project.h
; File C:\IAGOS\server\v18\Source\Source\_Common\Obj.h
; File C:\IAGOS\server\v18\Source\Source\_aiinterface\aimonster.cpp
; File C:\IAGOS\server\v18\Source\Source\_Common\Obj.h
; File C:\IAGOS\server\v18\Source\Source\_aiinterface\aimonster.cpp
; File C:\IAGOS\server\v18\Source\Source\_Common\xUtil.h
; File C:\IAGOS\server\v18\Source\Source\_aiinterface\aimonster.cpp
;	COMDAT ?StateRage@CAIMonster@@IAEHABUAIMSG@@@Z
_TEXT	SEGMENT
_dwAIState$1$ = -4					; size = 4
_msg$ = 8						; size = 4
?StateRage@CAIMonster@@IAEHABUAIMSG@@@Z PROC		; CAIMonster::StateRage, COMDAT
; _this$ = ecx

; 2068 : {

  00000	55		 push	 ebp
  00001	8b ec		 mov	 ebp, esp
  00003	51		 push	 ecx
  00004	56		 push	 esi
  00005	8b f1		 mov	 esi, ecx
; File C:\IAGOS\server\v18\Source\Source\_Common\Project.h

; 1406 : 	VERIFY_RANGE( nIndex, 0, m_nMoverPropSize, "GetMoverProp range_error", NULL );

  00007	8b 0d b4 01 00
	00		 mov	 ecx, DWORD PTR ?prj@@3VCProject@@A+436
; File C:\IAGOS\server\v18\Source\Source\_aiinterface\aimonster.cpp

; 2068 : {

  0000d	57		 push	 edi

; 2069 : 	CMover* pMover = GetMover();

  0000e	8b 7e 30	 mov	 edi, DWORD PTR [esi+48]
; File C:\IAGOS\server\v18\Source\Source\_Common\Mover.h

; 1020 : 	MoverProp*		GetProp() { return prj.GetMoverProp( m_dwIndex ); }	// АДУМРЧ ЧСЗЮЦлЦМ ОђБт 	

  00011	8b 87 74 01 00
	00		 mov	 eax, DWORD PTR [edi+372]
; File C:\IAGOS\server\v18\Source\Source\_Common\Project.h

; 1406 : 	VERIFY_RANGE( nIndex, 0, m_nMoverPropSize, "GetMoverProp range_error", NULL );

  00017	85 c0		 test	 eax, eax
  00019	78 04		 js	 SHORT $LN49@StateRage
  0001b	3b c1		 cmp	 eax, ecx
  0001d	7c 16		 jl	 SHORT $LN44@StateRage
$LN49@StateRage:

; 579  : 	LPCTSTR szErr = Error( _T( "%s min:%d, max:%d, index:%d" ), szMsg, nMin, nMax, nIndex ); 

  0001f	50		 push	 eax
  00020	51		 push	 ecx
  00021	6a 00		 push	 0
  00023	68 00 00 00 00	 push	 OFFSET ??_C@_0BJ@GKPOBPPI@GetMoverProp?5range_error@
  00028	68 00 00 00 00	 push	 OFFSET ??_C@_0BM@HMFGHCP@?$CFs?5min?3?$CFd?0?5max?3?$CFd?0?5index?3?$CFd@
  0002d	e8 00 00 00 00	 call	 ?Error@@YAPBDPBDZZ	; Error
  00032	83 c4 14	 add	 esp, 20			; 00000014H
$LN44@StateRage:
; File C:\IAGOS\server\v18\Source\Source\_Common\Obj.h

; 180  : 	BOOL			IsDelete()	{ return (m_dwFlags & OBJ_FLAG_DELETE);  }

  00035	f6 47 04 01	 test	 BYTE PTR [edi+4], 1

; 327  : 	return pObj && ( pObj->IsDelete() == FALSE ); 

  00039	74 0a		 je	 SHORT $LN2@StateRage
; File C:\IAGOS\server\v18\Source\Source\_aiinterface\aimonster.cpp

; 2072 : 	if( IsInvalidObj(pMover) )	return FALSE;

  0003b	5f		 pop	 edi
  0003c	33 c0		 xor	 eax, eax

; 2203 : }

  0003e	5e		 pop	 esi
  0003f	8b e5		 mov	 esp, ebp
  00041	5d		 pop	 ebp
  00042	c2 04 00	 ret	 4
$LN2@StateRage:

; 2073 : 
; 2074 : 	DWORD dwAIState = pMover->m_dwAIInterfaceState;

  00045	8b 87 90 01 00
	00		 mov	 eax, DWORD PTR [edi+400]
  0004b	53		 push	 ebx

; 2075 : 
; 2076 : 	BeginAIHandler( )
; 2077 : 
; 2078 : 	///////////////////////////////////////////////////////////////////////////////////////////////////
; 2079 : 	OnMessage( AIMSG_INIT ) 

  0004c	8b 5d 08	 mov	 ebx, DWORD PTR _msg$[ebp]
  0004f	89 45 fc	 mov	 DWORD PTR _dwAIState$1$[ebp], eax
  00052	8b 03		 mov	 eax, DWORD PTR [ebx]
  00054	83 f8 01	 cmp	 eax, 1
  00057	75 5a		 jne	 SHORT $LN5@StateRage

; 2080 : 		if( msg.dwParam2 != NULL_ID )

  00059	8b 43 08	 mov	 eax, DWORD PTR [ebx+8]
  0005c	83 f8 ff	 cmp	 eax, -1
  0005f	74 25		 je	 SHORT $LN8@StateRage

; 2081 : 		{
; 2082 : 			CMover* pTarget	= prj.GetMover( msg.dwParam2 );

  00061	50		 push	 eax
  00062	b9 00 00 00 00	 mov	 ecx, OFFSET ?prj@@3VCProject@@A ; prj
  00067	e8 00 00 00 00	 call	 ?GetMover@CProject@@QAEPAVCMover@@K@Z ; CProject::GetMover
; File C:\IAGOS\server\v18\Source\Source\_Common\Obj.h

; 327  : 	return pObj && ( pObj->IsDelete() == FALSE ); 

  0006c	85 c0		 test	 eax, eax
  0006e	74 16		 je	 SHORT $LN8@StateRage

; 180  : 	BOOL			IsDelete()	{ return (m_dwFlags & OBJ_FLAG_DELETE);  }

  00070	f6 40 04 01	 test	 BYTE PTR [eax+4], 1

; 327  : 	return pObj && ( pObj->IsDelete() == FALSE ); 

  00074	75 10		 jne	 SHORT $LN8@StateRage
; File C:\IAGOS\server\v18\Source\Source\_aiinterface\aimonster.cpp

; 2084 : 				SetTarget( msg.dwParam2, pTarget->m_idparty );

  00076	ff b0 10 07 00
	00		 push	 DWORD PTR [eax+1808]
  0007c	8b ce		 mov	 ecx, esi
  0007e	ff 73 08	 push	 DWORD PTR [ebx+8]
  00081	e8 00 00 00 00	 call	 ?SetTarget@CAIMonster@@IAEXKK@Z ; CAIMonster::SetTarget
$LN8@StateRage:

; 2085 : 		}
; 2086 : 		m_tmAttack = TIMEGETTIME + s_tmAttack;

  00086	a1 00 00 00 00	 mov	 eax, DWORD PTR ?s_tmAttack@@3KA

; 2087 : 		m_tmAttackDelay = TIMEGETTIME; // АјАн ЕєЗЙРЬИІ УЪБтШ­. БзЗИСі ОЪРИИщ УГРН АјАнРЬ ЕєЗЙРЬ ИдАэ ЕщОюАЃДй.
; 2088 : 		SetStop( 0 ); // 0РИЗЮ ММЦУЧЯИщ СЄСі ЛѓХТАЁ ЙйЗЮ ГЁГЊАд ЕЧОю АјАнРЬ АЁДЩЧЯАд ЕШДй. 

  0008b	8b ce		 mov	 ecx, esi
  0008d	03 05 00 00 00
	00		 add	 eax, DWORD PTR ?g_tmCurrent@@3KA ; g_tmCurrent
  00093	89 46 40	 mov	 DWORD PTR [esi+64], eax
  00096	a1 00 00 00 00	 mov	 eax, DWORD PTR ?g_tmCurrent@@3KA ; g_tmCurrent
  0009b	6a 00		 push	 0
  0009d	89 46 3c	 mov	 DWORD PTR [esi+60], eax
  000a0	e8 00 00 00 00	 call	 ?SetStop@CAIMonster@@IAEXK@Z ; CAIMonster::SetStop
  000a5	5b		 pop	 ebx
  000a6	5f		 pop	 edi

; 2194 : 
; 2195 : 	///////////////////////////////////////////////////////////////////////////////////////////////////
; 2196 : 	OnMessage( AIMSG_ARRIVAL )
; 2197 : 
; 2198 : 	///////////////////////////////////////////////////////////////////////////////////////////////////
; 2199 : 	OnMessage( AIMSG_EXIT )	
; 2200 : 
; 2201 : 	EndAIHandler( )
; 2202 : 	return TRUE;

  000a7	b8 01 00 00 00	 mov	 eax, 1

; 2203 : }

  000ac	5e		 pop	 esi
  000ad	8b e5		 mov	 esp, ebp
  000af	5d		 pop	 ebp
  000b0	c2 04 00	 ret	 4
$LN5@StateRage:

; 2089 : 		              // СЄСі ЛѓХТПЁМ­ДТ СЄСі ЛѓХТИІ РЯСЄ НУАЃЕПОШ РЏСіЧиСжОюОпЧЯДТЕЅ, БзЗИАд ЕЧИщ АјАнРЛ ИјЧв Мі РжДй.
; 2090 : 
; 2091 : 	///////////////////////////////////////////////////////////////////////////////////////////////////
; 2092 : 	OnMessage( AIMSG_INIT_TARGETCLEAR )		// ХИАйРЛ ХЌИЎОюЧЯАэ ДыБтИ№ЕхЗЮ ЕЙОЦАЈ.

  000b3	83 f8 11	 cmp	 eax, 17			; 00000011H
  000b6	75 5d		 jne	 SHORT $LN9@StateRage

; 2093 : #if __VER >= 9	//__AI_0509
; 2094 : 		CMover* pTarget	= ScanTargetNext( pMover, /*pProp->m_nAttackFirstRange*/ 15, m_dwIdTarget, m_uParty );

  000b8	ff 76 34	 push	 DWORD PTR [esi+52]
  000bb	ff b6 d8 00 00
	00		 push	 DWORD PTR [esi+216]
$LN105@StateRage:

; 2194 : 
; 2195 : 	///////////////////////////////////////////////////////////////////////////////////////////////////
; 2196 : 	OnMessage( AIMSG_ARRIVAL )
; 2197 : 
; 2198 : 	///////////////////////////////////////////////////////////////////////////////////////////////////
; 2199 : 	OnMessage( AIMSG_EXIT )	
; 2200 : 
; 2201 : 	EndAIHandler( )
; 2202 : 	return TRUE;

  000c1	6a 0f		 push	 15			; 0000000fH
  000c3	57		 push	 edi
  000c4	8b ce		 mov	 ecx, esi
  000c6	e8 00 00 00 00	 call	 ?ScanTargetNext@CAIInterface@@IAEPAVCMover@@PAVCObj@@HKK@Z ; CAIInterface::ScanTargetNext
  000cb	8b ce		 mov	 ecx, esi
  000cd	6a 00		 push	 0
  000cf	85 c0		 test	 eax, eax
  000d1	74 1d		 je	 SHORT $LN11@StateRage
  000d3	ff b0 bc 01 00
	00		 push	 DWORD PTR [eax+444]
  000d9	8b 16		 mov	 edx, DWORD PTR [esi]
  000db	6a 07		 push	 7
  000dd	6a 04		 push	 4
  000df	ff 52 0c	 call	 DWORD PTR [edx+12]
  000e2	5b		 pop	 ebx
  000e3	5f		 pop	 edi
  000e4	b8 01 00 00 00	 mov	 eax, 1

; 2203 : }

  000e9	5e		 pop	 esi
  000ea	8b e5		 mov	 esp, ebp
  000ec	5d		 pop	 ebp
  000ed	c2 04 00	 ret	 4
$LN11@StateRage:

; 2194 : 
; 2195 : 	///////////////////////////////////////////////////////////////////////////////////////////////////
; 2196 : 	OnMessage( AIMSG_ARRIVAL )
; 2197 : 
; 2198 : 	///////////////////////////////////////////////////////////////////////////////////////////////////
; 2199 : 	OnMessage( AIMSG_EXIT )	
; 2200 : 
; 2201 : 	EndAIHandler( )
; 2202 : 	return TRUE;

  000f0	6a ff		 push	 -1
  000f2	e8 00 00 00 00	 call	 ?SetTarget@CAIMonster@@IAEXKK@Z ; CAIMonster::SetTarget
$LN33@StateRage:
  000f7	8b 06		 mov	 eax, DWORD PTR [esi]
  000f9	8b ce		 mov	 ecx, esi
  000fb	6a 00		 push	 0
  000fd	6a 00		 push	 0
  000ff	ff 75 fc	 push	 DWORD PTR _dwAIState$1$[ebp]
  00102	6a 04		 push	 4
  00104	ff 50 0c	 call	 DWORD PTR [eax+12]
  00107	5b		 pop	 ebx
  00108	5f		 pop	 edi
  00109	b8 01 00 00 00	 mov	 eax, 1

; 2203 : }

  0010e	5e		 pop	 esi
  0010f	8b e5		 mov	 esp, ebp
  00111	5d		 pop	 ebp
  00112	c2 04 00	 ret	 4
$LN9@StateRage:

; 2095 : 		if( pTarget )
; 2096 : 		{
; 2097 : 			SendAIMsg( AIMSG_SETSTATE, STATE_RAGE, pTarget->GetId() );
; 2098 : 			return TRUE;
; 2099 : 		}
; 2100 : 		else
; 2101 : 		{
; 2102 : 			SetTarget( NULL_ID, 0 );
; 2103 : 			SendAIMsg( AIMSG_SETSTATE, dwAIState );
; 2104 : 		}
; 2105 : #else	// __AI_0509
; 2106 : 		SetTarget( NULL_ID, 0 );
; 2107 : 		SendAIMsg( AIMSG_SETSTATE, dwAIState );
; 2108 : #endif	// __AI_0509
; 2109 : 		
; 2110 : 	///////////////////////////////////////////////////////////////////////////////////////////////////
; 2111 : 	OnMessage( AIMSG_PROCESS ) 

  00115	83 f8 02	 cmp	 eax, 2
  00118	75 16		 jne	 SHORT $LN13@StateRage

; 2112 : 		MoveProcessRage( msg );

  0011a	53		 push	 ebx
  0011b	8b ce		 mov	 ecx, esi
  0011d	e8 00 00 00 00	 call	 ?MoveProcessRage@CAIMonster@@IAEHABUAIMSG@@@Z ; CAIMonster::MoveProcessRage
  00122	5b		 pop	 ebx
  00123	5f		 pop	 edi

; 2194 : 
; 2195 : 	///////////////////////////////////////////////////////////////////////////////////////////////////
; 2196 : 	OnMessage( AIMSG_ARRIVAL )
; 2197 : 
; 2198 : 	///////////////////////////////////////////////////////////////////////////////////////////////////
; 2199 : 	OnMessage( AIMSG_EXIT )	
; 2200 : 
; 2201 : 	EndAIHandler( )
; 2202 : 	return TRUE;

  00124	b8 01 00 00 00	 mov	 eax, 1

; 2203 : }

  00129	5e		 pop	 esi
  0012a	8b e5		 mov	 esp, ebp
  0012c	5d		 pop	 ebp
  0012d	c2 04 00	 ret	 4
$LN13@StateRage:

; 2113 : 		
; 2114 : 	///////////////////////////////////////////////////////////////////////////////////////////////////
; 2115 : 	OnMessage( AIMSG_DAMAGE ) 

  00130	83 f8 08	 cmp	 eax, 8
  00133	0f 85 fb 00 00
	00		 jne	 $LN15@StateRage

; 2116 : 		if( IsMove() && m_bGoTarget == FALSE )

  00139	8b ce		 mov	 ecx, esi
  0013b	e8 00 00 00 00	 call	 ?IsMove@CAIMonster@@IAEHXZ ; CAIMonster::IsMove
  00140	85 c0		 test	 eax, eax
  00142	74 35		 je	 SHORT $LN17@StateRage
  00144	83 be c0 00 00
	00 00		 cmp	 DWORD PTR [esi+192], 0
  0014b	75 2c		 jne	 SHORT $LN17@StateRage
; File C:\IAGOS\server\v18\Source\Source\_Common\xUtil.h

; 16   : 	g_next = g_next * 1103515245 + 12345;// + nRandomSeed[ i++ ];

  0014d	69 05 00 00 00
	00 6d 4e c6 41	 imul	 eax, DWORD PTR ?g_next@@3KA, 1103515245 ; g_next
  00157	05 39 30 00 00	 add	 eax, 12345		; 00003039H
  0015c	a3 00 00 00 00	 mov	 DWORD PTR ?g_next@@3KA, eax ; g_next
  00161	a8 01		 test	 al, 1
; File C:\IAGOS\server\v18\Source\Source\_aiinterface\aimonster.cpp

; 2118 : 			if( xRandom( 2 ) == 0 )		// 1/2ШЎЗќЗЮ АјАнРкИІ ЖЇИВ.

  00163	75 0a		 jne	 SHORT $LN18@StateRage

; 2119 : 			{
; 2120 : 				// АјАнРкПЁАд ИёЧЅИІ МГСЄ 
; 2121 : 				MoveToDst( msg.dwParam1 );

  00165	ff 73 04	 push	 DWORD PTR [ebx+4]
  00168	8b ce		 mov	 ecx, esi
  0016a	e8 00 00 00 00	 call	 ?MoveToDst@CAIMonster@@IAEXK@Z ; CAIMonster::MoveToDst
$LN18@StateRage:

; 2122 : 			}
; 2123 : 			m_bGoTarget = TRUE;

  0016f	c7 86 c0 00 00
	00 01 00 00 00	 mov	 DWORD PTR [esi+192], 1
$LN17@StateRage:

; 2124 : 		}
; 2125 : 		MoverProp* pMoverProp = pMover->GetProp();

  00179	8b cf		 mov	 ecx, edi
  0017b	e8 00 00 00 00	 call	 ?GetPropA@CMover@@QAEPAUMoverProp@@XZ ; CMover::GetPropA

; 2126 : 		int nHPPercent = pMover->GetHitPointPercent( 100 );

  00180	6a 64		 push	 100			; 00000064H
  00182	8b cf		 mov	 ecx, edi
  00184	8b d8		 mov	 ebx, eax
  00186	e8 00 00 00 00	 call	 ?GetHitPointPercent@CMover@@QAEHH@Z ; CMover::GetHitPointPercent

; 2127 : 
; 2128 : 		// ЕЕСж HP ЦлМОЦЎКИДй ЧіРч HPЦлМОЦЎАЁ РлРЛ АцПь ЕЕИСАЁРк.
; 2129 : 		if( nHPPercent < pMoverProp->m_nRunawayHP )

  0018b	0f bf 8b b0 01
	00 00		 movsx	 ecx, WORD PTR [ebx+432]
  00192	3b c1		 cmp	 eax, ecx
  00194	7d 1c		 jge	 SHORT $LN19@StateRage

; 2130 : 		{
; 2131 : 			// ЕЕСж И№ЕхЗЮ ММЦУ 
; 2132 : 			SendAIMsg( AIMSG_SETSTATE, STATE_RUNAWAY );

  00196	8b 06		 mov	 eax, DWORD PTR [esi]
  00198	8b ce		 mov	 ecx, esi
  0019a	6a 00		 push	 0
  0019c	6a 00		 push	 0
  0019e	6a 06		 push	 6
  001a0	6a 04		 push	 4
  001a2	ff 50 0c	 call	 DWORD PTR [eax+12]

; 2133 : 			g_UserMng.AddDlgEmoticon( pMover, DLGEMOT_EVADE );

  001a5	6a 02		 push	 2
  001a7	57		 push	 edi
  001a8	b9 00 00 00 00	 mov	 ecx, OFFSET ?g_UserMng@@3VCUserMng@@A ; g_UserMng
  001ad	e8 00 00 00 00	 call	 ?AddDlgEmoticon@CUserMng@@QAEXPAVCCtrl@@H@Z ; CUserMng::AddDlgEmoticon
$LN19@StateRage:

; 2134 : 		}
; 2135 : 		// Call HP ЦлМОЦЎКИДй ЧіРч HPЦлМОЦЎАЁ РлРЛ АцПь ЕПЗсИІ КЮИЃРк.
; 2136 : 		if( pMoverProp->m_bHelpWho )	// ЧяЧСAIАЁ РжРЛАцПь.

  001b2	80 bb f7 01 00
	00 00		 cmp	 BYTE PTR [ebx+503], 0
  001b9	74 4b		 je	 SHORT $LN20@StateRage

; 2137 : 		{
; 2138 : 			if( TIMEGETTIME - m_tmHelp > pMoverProp->m_tmUnitHelp )	// УжУЪ m_tmHelpДТ 0РЬЙЧЗЮ ЧяЧСИІ ЧбДй.

  001bb	a1 00 00 00 00	 mov	 eax, DWORD PTR ?g_tmCurrent@@3KA ; g_tmCurrent
  001c0	2b 46 48	 sub	 eax, DWORD PTR [esi+72]
  001c3	3b 83 30 02 00
	00		 cmp	 eax, DWORD PTR [ebx+560]
  001c9	76 45		 jbe	 SHORT $LN21@StateRage

; 2139 : 			{
; 2140 : 				if( m_bCallHelper == FALSE )

  001cb	83 be cc 00 00
	00 00		 cmp	 DWORD PTR [esi+204], 0
  001d2	75 3c		 jne	 SHORT $LN21@StateRage

; 2141 : 				{
; 2142 : 					CallHelper( pMoverProp );

  001d4	53		 push	 ebx
  001d5	8b ce		 mov	 ecx, esi
  001d7	e8 00 00 00 00	 call	 ?CallHelper@CAIMonster@@IAEXPBUMoverProp@@@Z ; CAIMonster::CallHelper

; 2143 : 					g_UserMng.AddDlgEmoticon( pMover, DLGEMOT_HELPER );

  001dc	6a 03		 push	 3
  001de	57		 push	 edi
  001df	b9 00 00 00 00	 mov	 ecx, OFFSET ?g_UserMng@@3VCUserMng@@A ; g_UserMng
  001e4	e8 00 00 00 00	 call	 ?AddDlgEmoticon@CUserMng@@QAEXPAVCCtrl@@H@Z ; CUserMng::AddDlgEmoticon

; 2144 : 					m_tmHelp = TIMEGETTIME;

  001e9	a1 00 00 00 00	 mov	 eax, DWORD PTR ?g_tmCurrent@@3KA ; g_tmCurrent
  001ee	89 46 48	 mov	 DWORD PTR [esi+72], eax

; 2145 : 					if( pMoverProp->m_tmUnitHelp == 0 )		// 0РЬИщ ЧбЙјИИ КЮИЃАэ ОШКЮИЇ.

  001f1	83 bb 30 02 00
	00 00		 cmp	 DWORD PTR [ebx+560], 0
  001f8	75 16		 jne	 SHORT $LN21@StateRage

; 2146 : 						m_bCallHelper = TRUE;

  001fa	c7 86 cc 00 00
	00 01 00 00 00	 mov	 DWORD PTR [esi+204], 1

; 2147 : 				}
; 2148 : 			}
; 2149 : 		}

  00204	eb 0a		 jmp	 SHORT $LN21@StateRage
$LN20@StateRage:

; 2150 : 		else
; 2151 : 			m_bCallHelper = FALSE;

  00206	c7 86 cc 00 00
	00 00 00 00 00	 mov	 DWORD PTR [esi+204], 0
$LN21@StateRage:

; 2152 : 
; 2153 : #if __VER >= 9	//__AI_0509
; 2154 : 		m_vPosDamage	= pMover->GetPos();

  00210	f3 0f 7e 87 60
	01 00 00	 movq	 xmm0, QWORD PTR [edi+352]
  00218	66 0f d6 46 74	 movq	 QWORD PTR [esi+116], xmm0
  0021d	8b 87 68 01 00
	00		 mov	 eax, DWORD PTR [edi+360]
  00223	5b		 pop	 ebx
  00224	89 46 7c	 mov	 DWORD PTR [esi+124], eax

; 2194 : 
; 2195 : 	///////////////////////////////////////////////////////////////////////////////////////////////////
; 2196 : 	OnMessage( AIMSG_ARRIVAL )
; 2197 : 
; 2198 : 	///////////////////////////////////////////////////////////////////////////////////////////////////
; 2199 : 	OnMessage( AIMSG_EXIT )	
; 2200 : 
; 2201 : 	EndAIHandler( )
; 2202 : 	return TRUE;

  00227	b8 01 00 00 00	 mov	 eax, 1
  0022c	5f		 pop	 edi

; 2203 : }

  0022d	5e		 pop	 esi
  0022e	8b e5		 mov	 esp, ebp
  00230	5d		 pop	 ebp
  00231	c2 04 00	 ret	 4
$LN15@StateRage:

; 2155 : #endif	// __AI_0509
; 2156 : 
; 2157 : 	///////////////////////////////////////////////////////////////////////////////////////////////////
; 2158 : 	OnMessage( AIMSG_COLLISION )

  00234	83 f8 0a	 cmp	 eax, 10			; 0000000aH
  00237	75 17		 jne	 SHORT $LN25@StateRage

; 2159 : 		MoveToRandom( STATE_RAGE );

  00239	6a 07		 push	 7
  0023b	8b ce		 mov	 ecx, esi
  0023d	e8 00 00 00 00	 call	 ?MoveToRandom@CAIMonster@@IAEXI@Z ; CAIMonster::MoveToRandom
  00242	5b		 pop	 ebx
  00243	5f		 pop	 edi

; 2194 : 
; 2195 : 	///////////////////////////////////////////////////////////////////////////////////////////////////
; 2196 : 	OnMessage( AIMSG_ARRIVAL )
; 2197 : 
; 2198 : 	///////////////////////////////////////////////////////////////////////////////////////////////////
; 2199 : 	OnMessage( AIMSG_EXIT )	
; 2200 : 
; 2201 : 	EndAIHandler( )
; 2202 : 	return TRUE;

  00244	b8 01 00 00 00	 mov	 eax, 1

; 2203 : }

  00249	5e		 pop	 esi
  0024a	8b e5		 mov	 esp, ebp
  0024c	5d		 pop	 ebp
  0024d	c2 04 00	 ret	 4
$LN25@StateRage:

; 2160 : 
; 2161 : 	///////////////////////////////////////////////////////////////////////////////////////////////////
; 2162 : 	OnMessage( AIMSG_DIE ) 

  00250	83 f8 09	 cmp	 eax, 9
  00253	74 2c		 je	 SHORT $LN38@StateRage

; 2163 : 
; 2164 : 	///////////////////////////////////////////////////////////////////////////////////////////////////
; 2165 : //	OnMessage( AIMSG_DSTDAMAGE ) 
; 2166 : 	
; 2167 : 	///////////////////////////////////////////////////////////////////////////////////////////////////
; 2168 : 	OnMessage( AIMSG_DSTDIE ) 

  00255	83 f8 07	 cmp	 eax, 7
  00258	75 18		 jne	 SHORT $LN29@StateRage

; 2169 : 		if( m_dwIdTarget == msg.dwParam1 )

  0025a	8b 86 d8 00 00
	00		 mov	 eax, DWORD PTR [esi+216]
  00260	3b 43 04	 cmp	 eax, DWORD PTR [ebx+4]
  00263	0f 85 8e fe ff
	ff		 jne	 $LN33@StateRage

; 2170 : 		{
; 2171 : #if __VER >= 9	//__AI_0509
; 2172 : 			CMover* pTarget	= ScanTargetNext( pMover, /*pProp->m_nAttackFirstRange*/ 15, m_dwIdTarget, m_uParty );

  00269	ff 76 34	 push	 DWORD PTR [esi+52]
  0026c	50		 push	 eax

; 2173 : 			if( pTarget )
; 2174 : 			{
; 2175 : 				SendAIMsg( AIMSG_SETSTATE, STATE_RAGE, pTarget->GetId() );
; 2176 : 				return TRUE;

  0026d	e9 4f fe ff ff	 jmp	 $LN105@StateRage
$LN29@StateRage:

; 2177 : 			}
; 2178 : 			else
; 2179 : #endif	// __AI_0509
; 2180 : 			{
; 2181 : 				SetTarget( NULL_ID, 0 );
; 2182 : 			}
; 2183 : 		}
; 2184 : 		SendAIMsg( AIMSG_SETSTATE, dwAIState );
; 2185 : 
; 2186 : 	///////////////////////////////////////////////////////////////////////////////////////////////////
; 2187 : //	OnMessage( AIMSG_NOMOVE ) 
; 2188 : 		// ХИАйПЁ АЅ МіАЁ ОјДТЕЅ, ЛѓДыАЁ ГЏОЦ ПУЖњДй. БзЗИДйИщ IDLEЗЮ ЙйВйАэ БзЗИСі ОЪДйИщ ЕЕИСАЁРк(РхАХИЎ АјАнМіАЁ РхОжЙА РЇПЁ РжДТ ЛѓШВ)
; 2189 : //		MoveToRandom( STATE_RAGE );
; 2190 : 
; 2191 : 	///////////////////////////////////////////////////////////////////////////////////////////////////
; 2192 : 	OnMessage( AIMSG_BEGINMOVE )

  00272	83 f8 0d	 cmp	 eax, 13			; 0000000dH
  00275	75 0a		 jne	 SHORT $LN38@StateRage

; 2193 : 		m_bGoTarget = FALSE; 

  00277	c7 86 c0 00 00
	00 00 00 00 00	 mov	 DWORD PTR [esi+192], 0
$LN38@StateRage:
  00281	5b		 pop	 ebx
  00282	5f		 pop	 edi

; 2194 : 
; 2195 : 	///////////////////////////////////////////////////////////////////////////////////////////////////
; 2196 : 	OnMessage( AIMSG_ARRIVAL )
; 2197 : 
; 2198 : 	///////////////////////////////////////////////////////////////////////////////////////////////////
; 2199 : 	OnMessage( AIMSG_EXIT )	
; 2200 : 
; 2201 : 	EndAIHandler( )
; 2202 : 	return TRUE;

  00283	b8 01 00 00 00	 mov	 eax, 1

; 2203 : }

  00288	5e		 pop	 esi
  00289	8b e5		 mov	 esp, ebp
  0028b	5d		 pop	 ebp
  0028c	c2 04 00	 ret	 4
?StateRage@CAIMonster@@IAEHABUAIMSG@@@Z ENDP		; CAIMonster::StateRage
_TEXT	ENDS
; Function compile flags: /Ogtp
; File C:\IAGOS\server\v18\Source\Source\_aiinterface\aimonster.cpp
;	COMDAT ?StateEvade@CAIMonster@@IAEHABUAIMSG@@@Z
_TEXT	SEGMENT
_msg$ = 8						; size = 4
?StateEvade@CAIMonster@@IAEHABUAIMSG@@@Z PROC		; CAIMonster::StateEvade, COMDAT
; _this$ = ecx

; 580  : 	{	return TRUE;	}

  00000	b8 01 00 00 00	 mov	 eax, 1
  00005	c2 04 00	 ret	 4
?StateEvade@CAIMonster@@IAEHABUAIMSG@@@Z ENDP		; CAIMonster::StateEvade
_TEXT	ENDS
; Function compile flags: /Ogtp
; File C:\IAGOS\server\v18\Source\Source\_aiinterface\aimonster.cpp
; File C:\IAGOS\server\v18\Source\Source\_Common\xUtil.h
; File C:\IAGOS\server\v18\Source\Source\_aiinterface\aimonster.cpp
; File C:\IAGOS\server\v18\Source\Source\_Common\xUtil.h
; File C:\IAGOS\server\v18\Source\Source\_aiinterface\aimonster.cpp
; File C:\IAGOS\server\v18\Source\Source\_Common\xUtil.h
; File C:\IAGOS\server\v18\Source\Source\_aiinterface\aimonster.cpp
; File C:\IAGOS\server\v18\Source\Source\_Common\Obj.h
; File C:\IAGOS\server\v18\Source\Source\_aiinterface\aimonster.cpp
; File C:\IAGOS\server\v18\Source\Source\_Common\Obj.h
; File C:\IAGOS\server\v18\Source\Source\_aiinterface\aimonster.cpp
; File C:\IAGOS\server\v18\Source\Source\_Common\Obj.h
; File C:\Program Files (x86)\Windows Kits\10\Include\10.0.26100.0\ucrt\corecrt_math.h
; File C:\IAGOS\server\v18\Source\Source\_Common\Obj.h
; File C:\Program Files (x86)\Windows Kits\10\Include\10.0.26100.0\ucrt\corecrt_math.h
; File C:\IAGOS\server\v18\Source\Source\_aiinterface\aimonster.cpp
; File C:\Program Files (x86)\Windows Kits\10\Include\10.0.26100.0\ucrt\corecrt_math.h
; File C:\IAGOS\server\v18\Source\Source\_Common\Obj.h
; File C:\IAGOS\server\v18\Source\Source\DX_SDK\d3dx9math.inl
; File C:\Program Files (x86)\Windows Kits\10\Include\10.0.26100.0\ucrt\corecrt_math.h
; File C:\IAGOS\server\v18\Source\Source\_aiinterface\aimonster.cpp
; File C:\Program Files (x86)\Windows Kits\10\Include\10.0.26100.0\ucrt\corecrt_math.h
; File C:\IAGOS\server\v18\Source\Source\_aiinterface\aimonster.cpp
; File C:\IAGOS\server\v18\Source\Source\DX_SDK\d3dx9math.inl
; File C:\IAGOS\server\v18\Source\Source\_Common\Obj.h
; File C:\IAGOS\server\v18\Source\Source\DX_SDK\d3dx9math.inl
; File C:\IAGOS\server\v18\Source\Source\_aiinterface\aimonster.cpp
; File C:\IAGOS\server\v18\Source\Source\_Common\xUtil.h
; File C:\IAGOS\server\v18\Source\Source\_aiinterface\aimonster.cpp
; File C:\IAGOS\server\v18\Source\Source\_Common\xUtil.h
; File C:\IAGOS\server\v18\Source\Source\_aiinterface\aimonster.cpp
; File C:\IAGOS\server\v18\Source\Source\_Common\xUtil.h
; File C:\IAGOS\server\v18\Source\Source\_aiinterface\aimonster.cpp
; File C:\IAGOS\server\v18\Source\Source\_Common\Obj.h
; File C:\Program Files (x86)\Windows Kits\10\Include\10.0.26100.0\ucrt\corecrt_math.h
; File C:\IAGOS\server\v18\Source\Source\_Common\Obj.h
; File C:\Program Files (x86)\Windows Kits\10\Include\10.0.26100.0\ucrt\corecrt_math.h
; File C:\IAGOS\server\v18\Source\Source\_Common\Obj.h
; File C:\IAGOS\server\v18\Source\Source\DX_SDK\d3dx9math.inl
; File C:\Program Files (x86)\Windows Kits\10\Include\10.0.26100.0\ucrt\corecrt_math.h
; File C:\IAGOS\server\v18\Source\Source\_aiinterface\aimonster.cpp
; File C:\Program Files (x86)\Windows Kits\10\Include\10.0.26100.0\ucrt\corecrt_math.h
; File C:\IAGOS\server\v18\Source\Source\_aiinterface\aimonster.cpp
; File C:\IAGOS\server\v18\Source\Source\DX_SDK\d3dx9math.inl
; File C:\IAGOS\server\v18\Source\Source\_Common\Obj.h
; File C:\IAGOS\server\v18\Source\Source\DX_SDK\d3dx9math.inl
; File C:\IAGOS\server\v18\Source\Source\_aiinterface\aimonster.cpp
; File C:\IAGOS\server\v18\Source\Source\_Common\xUtil.h
; File C:\IAGOS\server\v18\Source\Source\_aiinterface\aimonster.cpp
; File C:\IAGOS\server\v18\Source\Source\_Common\xUtil.h
; File C:\IAGOS\server\v18\Source\Source\_aiinterface\aimonster.cpp
; File C:\IAGOS\server\v18\Source\Source\_Common\xUtil.h
; File C:\IAGOS\server\v18\Source\Source\_aiinterface\aimonster.cpp
;	COMDAT ?StateRunaway@CAIMonster@@IAEHABUAIMSG@@@Z
_TEXT	SEGMENT
tv789 = -40						; size = 8
tv790 = -40						; size = 8
$T1 = -32						; size = 12
$T2 = -32						; size = 12
_fRange$3 = -20						; size = 4
_pMoverTarget$1$ = -20					; size = 4
_vDst$4 = -16						; size = 12
_vDst$5 = -16						; size = 12
__$ArrayPad$ = -4					; size = 4
_msg$ = 8						; size = 4
?StateRunaway@CAIMonster@@IAEHABUAIMSG@@@Z PROC		; CAIMonster::StateRunaway, COMDAT
; _this$ = ecx

; 2266 : {

  00000	55		 push	 ebp
  00001	8b ec		 mov	 ebp, esp
  00003	83 ec 28	 sub	 esp, 40			; 00000028H
  00006	a1 00 00 00 00	 mov	 eax, DWORD PTR ___security_cookie
  0000b	33 c5		 xor	 eax, ebp
  0000d	89 45 fc	 mov	 DWORD PTR __$ArrayPad$[ebp], eax
  00010	53		 push	 ebx
  00011	56		 push	 esi
  00012	57		 push	 edi
  00013	8b f9		 mov	 edi, ecx

; 2267 : 	CMover* pMover = GetMover();
; 2268 : 	CWorld* pWorld = GetWorld();
; 2269 : 
; 2270 : 	DWORD dwAIState = pMover->m_dwAIInterfaceState;
; 2271 : 
; 2272 : 	BeginAIHandler( )
; 2273 : 
; 2274 : 	///////////////////////////////////////////////////////////////////////////////////////////////////
; 2275 : 	OnMessage( AIMSG_INIT ) 

  00015	8b 4d 08	 mov	 ecx, DWORD PTR _msg$[ebp]
  00018	8b 5f 30	 mov	 ebx, DWORD PTR [edi+48]
  0001b	8b 01		 mov	 eax, DWORD PTR [ecx]
  0001d	8b b3 90 01 00
	00		 mov	 esi, DWORD PTR [ebx+400]
  00023	83 f8 01	 cmp	 eax, 1
  00026	0f 85 38 01 00
	00		 jne	 $LN4@StateRunaw

; 2276 : 		// РЬАцПь СЄЛѓРћРЮ ПЩМЧПЁ РЧЧб ЕЕСжАЁ ОЦДЯЖѓ, ЛѓДыАЁ АјАнЧв Мі ОјДТ, СіИЎЛѓ РеСЁРЬ РжДТ РхМвПЁ
; 2277 : 		// РжБт ЖЇЙЎПЁ СйЧрЖћРЛ ФЁДТ АцПьДй. 
; 2278 : 		m_bTargetNoMovePos	= msg.dwParam2;

  0002c	8b 41 08	 mov	 eax, DWORD PTR [ecx+8]
  0002f	89 87 c4 00 00
	00		 mov	 DWORD PTR [edi+196], eax
; File C:\IAGOS\server\v18\Source\Source\_Common\xUtil.h

; 22   : 	return  xRand() % num;

  00035	b8 cd cc cc cc	 mov	 eax, -858993459		; cccccccdH

; 16   : 	g_next = g_next * 1103515245 + 12345;// + nRandomSeed[ i++ ];

  0003a	69 0d 00 00 00
	00 6d 4e c6 41	 imul	 ecx, DWORD PTR ?g_next@@3KA, 1103515245 ; g_next
  00044	81 c1 39 30 00
	00		 add	 ecx, 12345		; 00003039H

; 22   : 	return  xRand() % num;

  0004a	f7 e1		 mul	 ecx
; File C:\IAGOS\server\v18\Source\Source\_aiinterface\aimonster.cpp

; 2281 : 		pMover->AddAngle( (float)( 180 + ( 20 - xRandom( 40 ) ) ) );

  0004c	51		 push	 ecx
; File C:\IAGOS\server\v18\Source\Source\_Common\xUtil.h

; 22   : 	return  xRand() % num;

  0004d	c1 ea 05	 shr	 edx, 5
; File C:\IAGOS\server\v18\Source\Source\_aiinterface\aimonster.cpp

; 2281 : 		pMover->AddAngle( (float)( 180 + ( 20 - xRandom( 40 ) ) ) );

  00050	83 c2 05	 add	 edx, 5
; File C:\IAGOS\server\v18\Source\Source\_Common\xUtil.h

; 16   : 	g_next = g_next * 1103515245 + 12345;// + nRandomSeed[ i++ ];

  00053	89 0d 00 00 00
	00		 mov	 DWORD PTR ?g_next@@3KA, ecx ; g_next
; File C:\IAGOS\server\v18\Source\Source\_aiinterface\aimonster.cpp

; 2281 : 		pMover->AddAngle( (float)( 180 + ( 20 - xRandom( 40 ) ) ) );

  00059	8d 04 92	 lea	 eax, DWORD PTR [edx+edx*4]
  0005c	c1 e0 03	 shl	 eax, 3
  0005f	2b c1		 sub	 eax, ecx
  00061	8b cb		 mov	 ecx, ebx
  00063	66 0f 6e c0	 movd	 xmm0, eax
  00067	f3 0f e6 c0	 cvtdq2pd xmm0, xmm0
  0006b	c1 e8 1f	 shr	 eax, 31			; 0000001fH
  0006e	f2 0f 58 04 c5
	00 00 00 00	 addsd	 xmm0, QWORD PTR __xmm@41f00000000000000000000000000000[eax*8]
  00077	66 0f 5a c0	 cvtpd2ps xmm0, xmm0
  0007b	f3 0f 11 04 24	 movss	 DWORD PTR [esp], xmm0
  00080	e8 00 00 00 00	 call	 ?AddAngle@CObj@@QAEXM@Z	; CObj::AddAngle

; 2282 : 		// АЂЕЕИІ ВЈГН ШФПЁ ПЌРхМБПЁ РжДТ СТЧЅИІ БИЧбДй.
; 2283 : 		CMover* pMoverTarget = (CMover*)prj.GetCtrl( m_dwIdTarget ); // ИёЧЅИІ РчМГСЄЧиСиДй.

  00085	ff b7 d8 00 00
	00		 push	 DWORD PTR [edi+216]
  0008b	b9 00 00 00 00	 mov	 ecx, OFFSET ?prj@@3VCProject@@A ; prj
  00090	e8 00 00 00 00	 call	 ?GetCtrl@CProject@@QAEPAVCCtrl@@K@Z ; CProject::GetCtrl
  00095	89 45 ec	 mov	 DWORD PTR _pMoverTarget$1$[ebp], eax
; File C:\IAGOS\server\v18\Source\Source\_Common\Obj.h

; 327  : 	return pObj && ( pObj->IsDelete() == FALSE ); 

  00098	85 c0		 test	 eax, eax
  0009a	0f 84 4b 02 00
	00		 je	 $LN21@StateRunaw

; 180  : 	BOOL			IsDelete()	{ return (m_dwFlags & OBJ_FLAG_DELETE);  }

  000a0	f6 40 04 01	 test	 BYTE PTR [eax+4], 1

; 327  : 	return pObj && ( pObj->IsDelete() == FALSE ); 

  000a4	0f 85 41 02 00
	00		 jne	 $LN21@StateRunaw
; File C:\IAGOS\server\v18\Source\Source\_aiinterface\aimonster.cpp

; 2286 : 			DWORD dwAttackRange = pMoverTarget->GetActiveHandItemProp()->dwAttackRange;

  000aa	6a 0a		 push	 10			; 0000000aH
  000ac	8b c8		 mov	 ecx, eax
  000ae	e8 00 00 00 00	 call	 ?GetActiveHandItemProp@CMover@@QAEPAUItemProp@@H@Z ; CMover::GetActiveHandItemProp

; 2287 : 			FLOAT fRange = pMoverTarget->GetAttackRange( dwAttackRange ) * 1.7f;

  000b3	8b 4d ec	 mov	 ecx, DWORD PTR _pMoverTarget$1$[ebp]
  000b6	8b 80 38 01 00
	00		 mov	 eax, DWORD PTR [eax+312]
  000bc	50		 push	 eax
  000bd	e8 00 00 00 00	 call	 ?GetAttackRange@CMover@@QAEMK@Z ; CMover::GetAttackRange
; File C:\IAGOS\server\v18\Source\Source\_Common\Obj.h

; 280  : 	FLOAT fTheta = D3DXToRadian( fAngle );

  000c2	f3 0f 10 43 18	 movss	 xmm0, DWORD PTR [ebx+24]
  000c7	f3 0f 59 05 00
	00 00 00	 mulss	 xmm0, DWORD PTR __real@3c8efa35

; 215  : 	D3DXVECTOR3		GetPos()	{ return m_vPos; }

  000cf	8b 83 68 01 00
	00		 mov	 eax, DWORD PTR [ebx+360]
; File C:\IAGOS\server\v18\Source\Source\_aiinterface\aimonster.cpp

; 2287 : 			FLOAT fRange = pMoverTarget->GetAttackRange( dwAttackRange ) * 1.7f;

  000d5	d8 0d 00 00 00
	00		 fmul	 DWORD PTR __real@3fd9999a
; File C:\IAGOS\server\v18\Source\Source\_Common\Obj.h

; 215  : 	D3DXVECTOR3		GetPos()	{ return m_vPos; }

  000db	89 45 e8	 mov	 DWORD PTR $T1[ebp+8], eax
; File C:\Program Files (x86)\Windows Kits\10\Include\10.0.26100.0\ucrt\corecrt_math.h

; 789  :             return (float)sin(_X);

  000de	0f 5a c8	 cvtps2pd xmm1, xmm0
; File C:\IAGOS\server\v18\Source\Source\_Common\Obj.h

; 215  : 	D3DXVECTOR3		GetPos()	{ return m_vPos; }

  000e1	f3 0f 7e 83 60
	01 00 00	 movq	 xmm0, QWORD PTR [ebx+352]
  000e9	66 0f d6 45 e0	 movq	 QWORD PTR $T1[ebp], xmm0
; File C:\Program Files (x86)\Windows Kits\10\Include\10.0.26100.0\ucrt\corecrt_math.h

; 789  :             return (float)sin(_X);

  000ee	0f 28 c1	 movaps	 xmm0, xmm1
; File C:\IAGOS\server\v18\Source\Source\_aiinterface\aimonster.cpp

; 2287 : 			FLOAT fRange = pMoverTarget->GetAttackRange( dwAttackRange ) * 1.7f;

  000f1	d9 5d ec	 fstp	 DWORD PTR _fRange$3[ebp]
; File C:\Program Files (x86)\Windows Kits\10\Include\10.0.26100.0\ucrt\corecrt_math.h

; 789  :             return (float)sin(_X);

  000f4	f2 0f 11 4d d8	 movsd	 QWORD PTR tv790[ebp], xmm1
  000f9	e8 00 00 00 00	 call	 __libm_sse2_sin_precise
  000fe	0f 57 c9	 xorps	 xmm1, xmm1
  00101	f2 0f 5a c8	 cvtsd2ss xmm1, xmm0

; 683  :             return (float)cos(_X);

  00105	f2 0f 10 45 d8	 movsd	 xmm0, QWORD PTR tv790[ebp]
; File C:\IAGOS\server\v18\Source\Source\_Common\Obj.h

; 281  : 	FLOAT fx = sinf( fTheta ) * fVelocity;

  0010a	f3 0f 59 4d ec	 mulss	 xmm1, DWORD PTR _fRange$3[ebp]

; 215  : 	D3DXVECTOR3		GetPos()	{ return m_vPos; }

  0010f	f3 0f 58 4d e0	 addss	 xmm1, DWORD PTR $T1[ebp]
; File C:\IAGOS\server\v18\Source\Source\DX_SDK\d3dx9math.inl

; 300  :     x = fx;

  00114	f3 0f 11 4d f0	 movss	 DWORD PTR _vDst$4[ebp], xmm1
  00119	f3 0f 10 4d e4	 movss	 xmm1, DWORD PTR $T1[ebp+4]
  0011e	f3 0f 58 0d 00
	00 00 00	 addss	 xmm1, DWORD PTR __real@00000000

; 301  :     y = fy;

  00126	f3 0f 11 4d f4	 movss	 DWORD PTR _vDst$4[ebp+4], xmm1
; File C:\Program Files (x86)\Windows Kits\10\Include\10.0.26100.0\ucrt\corecrt_math.h

; 683  :             return (float)cos(_X);

  0012b	e8 00 00 00 00	 call	 __libm_sse2_cos_precise
  00130	0f 57 c9	 xorps	 xmm1, xmm1
; File C:\IAGOS\server\v18\Source\Source\_aiinterface\aimonster.cpp

; 2290 : 			MoveToDst( vDst );

  00133	8d 45 f0	 lea	 eax, DWORD PTR _vDst$4[ebp]
; File C:\Program Files (x86)\Windows Kits\10\Include\10.0.26100.0\ucrt\corecrt_math.h

; 683  :             return (float)cos(_X);

  00136	f2 0f 5a c8	 cvtsd2ss xmm1, xmm0
; File C:\IAGOS\server\v18\Source\Source\_aiinterface\aimonster.cpp

; 2290 : 			MoveToDst( vDst );

  0013a	8b cf		 mov	 ecx, edi
  0013c	50		 push	 eax
; File C:\IAGOS\server\v18\Source\Source\DX_SDK\d3dx9math.inl

; 301  :     y = fy;

  0013d	f3 0f 10 45 e8	 movss	 xmm0, DWORD PTR $T1[ebp+8]
; File C:\IAGOS\server\v18\Source\Source\_Common\Obj.h

; 282  : 	FLOAT fz = -cosf( fTheta ) * fVelocity;

  00142	f3 0f 59 4d ec	 mulss	 xmm1, DWORD PTR _fRange$3[ebp]
; File C:\IAGOS\server\v18\Source\Source\DX_SDK\d3dx9math.inl

; 301  :     y = fy;

  00147	f3 0f 5c c1	 subss	 xmm0, xmm1

; 302  :     z = fz;

  0014b	f3 0f 11 45 f8	 movss	 DWORD PTR _vDst$4[ebp+8], xmm0
; File C:\IAGOS\server\v18\Source\Source\_aiinterface\aimonster.cpp

; 2290 : 			MoveToDst( vDst );

  00150	e8 00 00 00 00	 call	 ?MoveToDst@CAIMonster@@IAEXABUD3DXVECTOR3@@@Z ; CAIMonster::MoveToDst

; 2291 : 			m_bFirstRunaway = TRUE; // УГРН ЕЕСжРЮАЁ?

  00155	c7 87 c8 00 00
	00 01 00 00 00	 mov	 DWORD PTR [edi+200], 1

; 2292 : 		}

  0015f	e9 f7 01 00 00	 jmp	 $LN25@StateRunaw
$LN4@StateRunaw:

; 2293 : 		else
; 2294 : 		{
; 2295 : 			SendAIMsg( AIMSG_SETSTATE, dwAIState );
; 2296 : 		}
; 2297 : 	///////////////////////////////////////////////////////////////////////////////////////////////////
; 2298 : 	OnMessage( AIMSG_PROCESS ) 

  00164	83 f8 02	 cmp	 eax, 2
  00167	75 0c		 jne	 SHORT $LN8@StateRunaw

; 2299 : 		MoveProcessRunaway();

  00169	8b cf		 mov	 ecx, edi
  0016b	e8 00 00 00 00	 call	 ?MoveProcessRunaway@CAIMonster@@IAEHXZ ; CAIMonster::MoveProcessRunaway

; 2300 : 	///////////////////////////////////////////////////////////////////////////////////////////////////
; 2301 : 	OnMessage( AIMSG_DAMAGE ) 

  00170	e9 e6 01 00 00	 jmp	 $LN25@StateRunaw
$LN8@StateRunaw:
  00175	83 f8 08	 cmp	 eax, 8
  00178	75 3c		 jne	 SHORT $LN10@StateRunaw

; 2302 : 		if( m_bTargetNoMovePos == TRUE && m_bFirstRunaway == FALSE )

  0017a	83 bf c4 00 00
	00 01		 cmp	 DWORD PTR [edi+196], 1
  00181	75 18		 jne	 SHORT $LN12@StateRunaw
  00183	83 bf c8 00 00
	00 00		 cmp	 DWORD PTR [edi+200], 0
  0018a	75 0f		 jne	 SHORT $LN12@StateRunaw

; 2303 : 			SendAIMsg( AIMSG_SETSTATE, STATE_RAGE, NULL_ID );

  0018c	8b 07		 mov	 eax, DWORD PTR [edi]
  0018e	8b cf		 mov	 ecx, edi
  00190	6a 00		 push	 0
  00192	6a ff		 push	 -1
  00194	6a 07		 push	 7
  00196	6a 04		 push	 4
  00198	ff 50 0c	 call	 DWORD PTR [eax+12]
$LN12@StateRunaw:

; 2304 : 
; 2305 : #if __VER >= 9	//__AI_0509
; 2306 : 		m_vPosDamage	= pMover->GetPos();

  0019b	f3 0f 7e 83 60
	01 00 00	 movq	 xmm0, QWORD PTR [ebx+352]
  001a3	66 0f d6 47 74	 movq	 QWORD PTR [edi+116], xmm0
  001a8	8b 83 68 01 00
	00		 mov	 eax, DWORD PTR [ebx+360]
  001ae	89 47 7c	 mov	 DWORD PTR [edi+124], eax

; 2307 : #endif	// __AI_0509
; 2308 : 
; 2309 : 	///////////////////////////////////////////////////////////////////////////////////////////////////
; 2310 : 	OnMessage( AIMSG_COLLISION )

  001b1	e9 a5 01 00 00	 jmp	 $LN25@StateRunaw
$LN10@StateRunaw:
  001b6	83 f8 0a	 cmp	 eax, 10			; 0000000aH
  001b9	0f 85 e5 00 00
	00		 jne	 $LN13@StateRunaw
; File C:\IAGOS\server\v18\Source\Source\_Common\xUtil.h

; 16   : 	g_next = g_next * 1103515245 + 12345;// + nRandomSeed[ i++ ];

  001bf	69 0d 00 00 00
	00 6d 4e c6 41	 imul	 ecx, DWORD PTR ?g_next@@3KA, 1103515245 ; g_next

; 22   : 	return  xRand() % num;

  001c9	b8 cd cc cc cc	 mov	 eax, -858993459		; cccccccdH

; 16   : 	g_next = g_next * 1103515245 + 12345;// + nRandomSeed[ i++ ];

  001ce	81 c1 39 30 00
	00		 add	 ecx, 12345		; 00003039H

; 22   : 	return  xRand() % num;

  001d4	f7 e1		 mul	 ecx
; File C:\IAGOS\server\v18\Source\Source\_aiinterface\aimonster.cpp

; 2313 : 		pMover->AddAngle( (float)( 180 + ( 20 - xRandom( 40 ) ) ) );

  001d6	51		 push	 ecx
; File C:\IAGOS\server\v18\Source\Source\_Common\xUtil.h

; 22   : 	return  xRand() % num;

  001d7	c1 ea 05	 shr	 edx, 5
; File C:\IAGOS\server\v18\Source\Source\_aiinterface\aimonster.cpp

; 2313 : 		pMover->AddAngle( (float)( 180 + ( 20 - xRandom( 40 ) ) ) );

  001da	83 c2 05	 add	 edx, 5
; File C:\IAGOS\server\v18\Source\Source\_Common\xUtil.h

; 16   : 	g_next = g_next * 1103515245 + 12345;// + nRandomSeed[ i++ ];

  001dd	89 0d 00 00 00
	00		 mov	 DWORD PTR ?g_next@@3KA, ecx ; g_next
; File C:\IAGOS\server\v18\Source\Source\_aiinterface\aimonster.cpp

; 2313 : 		pMover->AddAngle( (float)( 180 + ( 20 - xRandom( 40 ) ) ) );

  001e3	8d 04 92	 lea	 eax, DWORD PTR [edx+edx*4]
  001e6	c1 e0 03	 shl	 eax, 3
  001e9	2b c1		 sub	 eax, ecx
  001eb	8b cb		 mov	 ecx, ebx
  001ed	66 0f 6e c0	 movd	 xmm0, eax
  001f1	f3 0f e6 c0	 cvtdq2pd xmm0, xmm0
  001f5	c1 e8 1f	 shr	 eax, 31			; 0000001fH
  001f8	f2 0f 58 04 c5
	00 00 00 00	 addsd	 xmm0, QWORD PTR __xmm@41f00000000000000000000000000000[eax*8]
  00201	66 0f 5a c0	 cvtpd2ps xmm0, xmm0
  00205	f3 0f 11 04 24	 movss	 DWORD PTR [esp], xmm0
  0020a	e8 00 00 00 00	 call	 ?AddAngle@CObj@@QAEXM@Z	; CObj::AddAngle
; File C:\IAGOS\server\v18\Source\Source\_Common\Obj.h

; 280  : 	FLOAT fTheta = D3DXToRadian( fAngle );

  0020f	f3 0f 10 43 18	 movss	 xmm0, DWORD PTR [ebx+24]
  00214	f3 0f 59 05 00
	00 00 00	 mulss	 xmm0, DWORD PTR __real@3c8efa35

; 215  : 	D3DXVECTOR3		GetPos()	{ return m_vPos; }

  0021c	8b 83 68 01 00
	00		 mov	 eax, DWORD PTR [ebx+360]
  00222	89 45 e8	 mov	 DWORD PTR $T2[ebp+8], eax
; File C:\Program Files (x86)\Windows Kits\10\Include\10.0.26100.0\ucrt\corecrt_math.h

; 789  :             return (float)sin(_X);

  00225	0f 5a c8	 cvtps2pd xmm1, xmm0
; File C:\IAGOS\server\v18\Source\Source\_Common\Obj.h

; 215  : 	D3DXVECTOR3		GetPos()	{ return m_vPos; }

  00228	f3 0f 7e 83 60
	01 00 00	 movq	 xmm0, QWORD PTR [ebx+352]
  00230	66 0f d6 45 e0	 movq	 QWORD PTR $T2[ebp], xmm0
; File C:\Program Files (x86)\Windows Kits\10\Include\10.0.26100.0\ucrt\corecrt_math.h

; 789  :             return (float)sin(_X);

  00235	0f 28 c1	 movaps	 xmm0, xmm1
  00238	f2 0f 11 4d d8	 movsd	 QWORD PTR tv789[ebp], xmm1
  0023d	e8 00 00 00 00	 call	 __libm_sse2_sin_precise
  00242	0f 57 c9	 xorps	 xmm1, xmm1
  00245	f2 0f 5a c8	 cvtsd2ss xmm1, xmm0

; 683  :             return (float)cos(_X);

  00249	f2 0f 10 45 d8	 movsd	 xmm0, QWORD PTR tv789[ebp]
; File C:\IAGOS\server\v18\Source\Source\_Common\Obj.h

; 281  : 	FLOAT fx = sinf( fTheta ) * fVelocity;

  0024e	f3 0f 59 0d 00
	00 00 00	 mulss	 xmm1, DWORD PTR __real@40a00000

; 215  : 	D3DXVECTOR3		GetPos()	{ return m_vPos; }

  00256	f3 0f 58 4d e0	 addss	 xmm1, DWORD PTR $T2[ebp]
; File C:\IAGOS\server\v18\Source\Source\DX_SDK\d3dx9math.inl

; 300  :     x = fx;

  0025b	f3 0f 11 4d f0	 movss	 DWORD PTR _vDst$5[ebp], xmm1
  00260	f3 0f 10 4d e4	 movss	 xmm1, DWORD PTR $T2[ebp+4]
  00265	f3 0f 58 0d 00
	00 00 00	 addss	 xmm1, DWORD PTR __real@00000000

; 301  :     y = fy;

  0026d	f3 0f 11 4d f4	 movss	 DWORD PTR _vDst$5[ebp+4], xmm1
; File C:\Program Files (x86)\Windows Kits\10\Include\10.0.26100.0\ucrt\corecrt_math.h

; 683  :             return (float)cos(_X);

  00272	e8 00 00 00 00	 call	 __libm_sse2_cos_precise
  00277	0f 57 c9	 xorps	 xmm1, xmm1
; File C:\IAGOS\server\v18\Source\Source\_aiinterface\aimonster.cpp

; 2317 : 		MoveToDst( vDst );

  0027a	8d 45 f0	 lea	 eax, DWORD PTR _vDst$5[ebp]
; File C:\Program Files (x86)\Windows Kits\10\Include\10.0.26100.0\ucrt\corecrt_math.h

; 683  :             return (float)cos(_X);

  0027d	f2 0f 5a c8	 cvtsd2ss xmm1, xmm0
; File C:\IAGOS\server\v18\Source\Source\_aiinterface\aimonster.cpp

; 2317 : 		MoveToDst( vDst );

  00281	8b cf		 mov	 ecx, edi
  00283	50		 push	 eax
; File C:\IAGOS\server\v18\Source\Source\DX_SDK\d3dx9math.inl

; 301  :     y = fy;

  00284	f3 0f 10 45 e8	 movss	 xmm0, DWORD PTR $T2[ebp+8]
; File C:\IAGOS\server\v18\Source\Source\_Common\Obj.h

; 282  : 	FLOAT fz = -cosf( fTheta ) * fVelocity;

  00289	f3 0f 59 0d 00
	00 00 00	 mulss	 xmm1, DWORD PTR __real@40a00000
; File C:\IAGOS\server\v18\Source\Source\DX_SDK\d3dx9math.inl

; 301  :     y = fy;

  00291	f3 0f 5c c1	 subss	 xmm0, xmm1

; 302  :     z = fz;

  00295	f3 0f 11 45 f8	 movss	 DWORD PTR _vDst$5[ebp+8], xmm0
; File C:\IAGOS\server\v18\Source\Source\_aiinterface\aimonster.cpp

; 2317 : 		MoveToDst( vDst );

  0029a	e8 00 00 00 00	 call	 ?MoveToDst@CAIMonster@@IAEXABUD3DXVECTOR3@@@Z ; CAIMonster::MoveToDst

; 2318 : 	
; 2319 : 	///////////////////////////////////////////////////////////////////////////////////////////////////
; 2320 : 	OnMessage( AIMSG_DIE ) 

  0029f	e9 b7 00 00 00	 jmp	 $LN25@StateRunaw
$LN13@StateRunaw:
  002a4	83 f8 09	 cmp	 eax, 9
  002a7	0f 84 ae 00 00
	00		 je	 $LN25@StateRunaw

; 2321 : 	///////////////////////////////////////////////////////////////////////////////////////////////////
; 2322 : //	OnMessage( AIMSG_DSTDAMAGE ) 
; 2323 : 	///////////////////////////////////////////////////////////////////////////////////////////////////
; 2324 : 	OnMessage( AIMSG_DSTDIE ) 

  002ad	83 f8 07	 cmp	 eax, 7
  002b0	75 49		 jne	 SHORT $LN17@StateRunaw

; 2325 : 		if( m_dwIdTarget == msg.dwParam1 )

  002b2	8b 87 d8 00 00
	00		 mov	 eax, DWORD PTR [edi+216]
  002b8	3b 41 04	 cmp	 eax, DWORD PTR [ecx+4]
  002bb	75 2e		 jne	 SHORT $LN21@StateRunaw

; 2326 : 		{
; 2327 : #if __VER >= 9	//__AI_0509
; 2328 : 			CMover* pTarget	= ScanTargetNext( pMover, /*pProp->m_nAttackFirstRange*/ 15, m_dwIdTarget, m_uParty );

  002bd	ff 77 34	 push	 DWORD PTR [edi+52]
  002c0	8b cf		 mov	 ecx, edi
  002c2	50		 push	 eax
  002c3	6a 0f		 push	 15			; 0000000fH
  002c5	53		 push	 ebx
  002c6	e8 00 00 00 00	 call	 ?ScanTargetNext@CAIInterface@@IAEPAVCMover@@PAVCObj@@HKK@Z ; CAIInterface::ScanTargetNext

; 2329 : 			if( pTarget )

  002cb	8b cf		 mov	 ecx, edi
  002cd	6a 00		 push	 0
  002cf	85 c0		 test	 eax, eax
  002d1	74 11		 je	 SHORT $LN20@StateRunaw

; 2330 : 			{
; 2331 : 				SendAIMsg( AIMSG_SETSTATE, STATE_RAGE, pTarget->GetId() );

  002d3	ff b0 bc 01 00
	00		 push	 DWORD PTR [eax+444]
  002d9	8b 17		 mov	 edx, DWORD PTR [edi]
  002db	6a 07		 push	 7
  002dd	6a 04		 push	 4
  002df	ff 52 0c	 call	 DWORD PTR [edx+12]

; 2332 : 				return TRUE;

  002e2	eb 77		 jmp	 SHORT $LN25@StateRunaw
$LN20@StateRunaw:

; 2333 : 			}
; 2334 : 			else
; 2335 : #endif	// __AI_0509
; 2336 : 			{
; 2337 : 				SetTarget( NULL_ID, 0 );

  002e4	6a ff		 push	 -1
  002e6	e8 00 00 00 00	 call	 ?SetTarget@CAIMonster@@IAEXKK@Z ; CAIMonster::SetTarget
$LN21@StateRunaw:

; 2347 : 
; 2348 : 	///////////////////////////////////////////////////////////////////////////////////////////////////
; 2349 : 	OnMessage( AIMSG_EXIT )	
; 2350 : 
; 2351 : 	EndAIHandler( )
; 2352 : 
; 2353 : 	return TRUE;
; 2354 : }

  002eb	8b 07		 mov	 eax, DWORD PTR [edi]
  002ed	8b cf		 mov	 ecx, edi
  002ef	6a 00		 push	 0
  002f1	6a 00		 push	 0
  002f3	56		 push	 esi
  002f4	6a 04		 push	 4
  002f6	ff 50 0c	 call	 DWORD PTR [eax+12]
  002f9	eb 60		 jmp	 SHORT $LN25@StateRunaw
$LN17@StateRunaw:

; 2338 : 			}
; 2339 : 		}
; 2340 : 		SendAIMsg( AIMSG_SETSTATE, dwAIState );
; 2341 : 		
; 2342 : 	OnMessage( AIMSG_ARRIVAL )

  002fb	83 f8 0b	 cmp	 eax, 11			; 0000000bH
  002fe	75 5b		 jne	 SHORT $LN25@StateRunaw

; 2343 : 		m_bFirstRunaway = FALSE;
; 2344 : 		MoverProp* pMoverProp = pMover->GetProp();

  00300	8b cb		 mov	 ecx, ebx
  00302	c7 87 c8 00 00
	00 00 00 00 00	 mov	 DWORD PTR [edi+200], 0
  0030c	e8 00 00 00 00	 call	 ?GetPropA@CMover@@QAEPAUMoverProp@@XZ ; CMover::GetPropA

; 2345 : 		if( pMoverProp->m_dwRunawayDelay )

  00311	66 83 b8 d6 01
	00 00 00	 cmp	 WORD PTR [eax+470], 0
  00319	74 40		 je	 SHORT $LN25@StateRunaw
; File C:\IAGOS\server\v18\Source\Source\_Common\xUtil.h

; 16   : 	g_next = g_next * 1103515245 + 12345;// + nRandomSeed[ i++ ];

  0031b	69 35 00 00 00
	00 6d 4e c6 41	 imul	 esi, DWORD PTR ?g_next@@3KA, 1103515245 ; g_next
; File C:\IAGOS\server\v18\Source\Source\_aiinterface\aimonster.cpp

; 2346 : 			SetStop( pMover->GetProp()->m_dwRunawayDelay + xRandom( SEC( 1 ) ) ); // + xRandomРК ОрАЃРЧ АЁКЏ ТїРЬИІ СжБт РЇЧб АЭ.

  00325	8b cb		 mov	 ecx, ebx
; File C:\IAGOS\server\v18\Source\Source\_Common\xUtil.h

; 16   : 	g_next = g_next * 1103515245 + 12345;// + nRandomSeed[ i++ ];

  00327	81 c6 39 30 00
	00		 add	 esi, 12345		; 00003039H
  0032d	89 35 00 00 00
	00		 mov	 DWORD PTR ?g_next@@3KA, esi ; g_next
; File C:\IAGOS\server\v18\Source\Source\_aiinterface\aimonster.cpp

; 2346 : 			SetStop( pMover->GetProp()->m_dwRunawayDelay + xRandom( SEC( 1 ) ) ); // + xRandomРК ОрАЃРЧ АЁКЏ ТїРЬИІ СжБт РЇЧб АЭ.

  00333	e8 00 00 00 00	 call	 ?GetPropA@CMover@@QAEPAUMoverProp@@XZ ; CMover::GetPropA
  00338	0f bf 88 d6 01
	00 00		 movsx	 ecx, WORD PTR [eax+470]
; File C:\IAGOS\server\v18\Source\Source\_Common\xUtil.h

; 22   : 	return  xRand() % num;

  0033f	b8 d3 4d 62 10	 mov	 eax, 274877907		; 10624dd3H
  00344	f7 e6		 mul	 esi
  00346	c1 ea 06	 shr	 edx, 6
  00349	69 c2 e8 03 00
	00		 imul	 eax, edx, 1000
; File C:\IAGOS\server\v18\Source\Source\_aiinterface\aimonster.cpp

; 2346 : 			SetStop( pMover->GetProp()->m_dwRunawayDelay + xRandom( SEC( 1 ) ) ); // + xRandomРК ОрАЃРЧ АЁКЏ ТїРЬИІ СжБт РЇЧб АЭ.

  0034f	2b c8		 sub	 ecx, eax
  00351	03 ce		 add	 ecx, esi
  00353	51		 push	 ecx
  00354	8b cf		 mov	 ecx, edi
  00356	e8 00 00 00 00	 call	 ?SetStop@CAIMonster@@IAEXK@Z ; CAIMonster::SetStop
$LN25@StateRunaw:

; 2347 : 
; 2348 : 	///////////////////////////////////////////////////////////////////////////////////////////////////
; 2349 : 	OnMessage( AIMSG_EXIT )	
; 2350 : 
; 2351 : 	EndAIHandler( )
; 2352 : 
; 2353 : 	return TRUE;
; 2354 : }

  0035b	8b 4d fc	 mov	 ecx, DWORD PTR __$ArrayPad$[ebp]
  0035e	b8 01 00 00 00	 mov	 eax, 1
  00363	5f		 pop	 edi
  00364	5e		 pop	 esi
  00365	33 cd		 xor	 ecx, ebp
  00367	5b		 pop	 ebx
  00368	e8 00 00 00 00	 call	 @__security_check_cookie@4
  0036d	8b e5		 mov	 esp, ebp
  0036f	5d		 pop	 ebp
  00370	c2 04 00	 ret	 4
?StateRunaway@CAIMonster@@IAEHABUAIMSG@@@Z ENDP		; CAIMonster::StateRunaway
_TEXT	ENDS
; Function compile flags: /Ogtp
; File C:\IAGOS\server\v18\Source\Source\_aiinterface\aimonster.cpp
;	COMDAT ?StateWander@CAIMonster@@IAEHABUAIMSG@@@Z
_TEXT	SEGMENT
_msg$ = 8						; size = 4
?StateWander@CAIMonster@@IAEHABUAIMSG@@@Z PROC		; CAIMonster::StateWander, COMDAT
; _this$ = ecx

; 578  : 	{	return TRUE;	}

  00000	b8 01 00 00 00	 mov	 eax, 1
  00005	c2 04 00	 ret	 4
?StateWander@CAIMonster@@IAEHABUAIMSG@@@Z ENDP		; CAIMonster::StateWander
_TEXT	ENDS
; Function compile flags: /Ogtp
; File C:\IAGOS\server\v18\Source\Source\_aiinterface\aimonster.cpp
; File C:\IAGOS\server\v18\Source\Source\_Common\Obj.h
; File C:\IAGOS\server\v18\Source\Source\DX_SDK\d3dx9math.inl
; File C:\IAGOS\server\v18\Source\Source\_Common\Obj.h
; File C:\IAGOS\server\v18\Source\Source\_aiinterface\aimonster.cpp
; File C:\IAGOS\server\v18\Source\Source\_Common\Obj.h
; File C:\IAGOS\server\v18\Source\Source\DX_SDK\d3dx9math.inl
; File C:\IAGOS\server\v18\Source\Source\_Common\Obj.h
; File C:\IAGOS\server\v18\Source\Source\DX_SDK\d3dx9math.inl
; File C:\IAGOS\server\v18\Source\Source\_Common\Obj.h
; File C:\IAGOS\server\v18\Source\Source\_aiinterface\aimonster.cpp
; File C:\IAGOS\server\v18\Source\Source\DX_SDK\d3dx9math.inl
; File C:\IAGOS\server\v18\Source\Source\_aiinterface\aimonster.cpp
; File C:\IAGOS\server\v18\Source\Source\_Common\Obj.h
; File C:\IAGOS\server\v18\Source\Source\_aiinterface\aimonster.cpp
; File C:\IAGOS\server\v18\Source\Source\_Common\Obj.h
; File C:\IAGOS\server\v18\Source\Source\_aiinterface\aimonster.cpp
; File C:\IAGOS\server\v18\Source\Source\_Common\Obj.h
; File C:\IAGOS\server\v18\Source\Source\_aiinterface\aimonster.cpp
; File C:\IAGOS\server\v18\Source\Source\_Common\Obj.h
; File C:\IAGOS\server\v18\Source\Source\_aiinterface\aimonster.cpp
; File C:\IAGOS\server\v18\Source\Source\_Common\xUtil.h
; File C:\IAGOS\server\v18\Source\Source\_aiinterface\aimonster.cpp
; File C:\IAGOS\server\v18\Source\Source\_Common\xUtil.h
; File C:\IAGOS\server\v18\Source\Source\_aiinterface\aimonster.cpp
; File C:\IAGOS\server\v18\Source\Source\_Common\xUtil.h
; File C:\IAGOS\server\v18\Source\Source\_aiinterface\aimonster.cpp
; File C:\IAGOS\server\v18\Source\Source\_Common\Obj.h
; File C:\IAGOS\server\v18\Source\Source\DX_SDK\d3dx9math.inl
; File C:\IAGOS\server\v18\Source\Source\_Common\Obj.h
; File C:\IAGOS\server\v18\Source\Source\DX_SDK\d3dx9math.inl
; File C:\IAGOS\server\v18\Source\Source\_aiinterface\aimonster.cpp
; File C:\IAGOS\server\v18\Source\Source\_Common\Obj.h
; File C:\IAGOS\server\v18\Source\Source\_aiinterface\aimonster.cpp
;	COMDAT ?StateIdle@CAIMonster@@IAEHABUAIMSG@@@Z
_TEXT	SEGMENT
_pItemElem$1$ = -32					; size = 4
$T1 = -28						; size = 12
$T2 = -28						; size = 12
_vTargetTo$3 = -16					; size = 12
$T4 = -16						; size = 12
$T5 = -16						; size = 12
__$ArrayPad$ = -4					; size = 4
_msg$ = 8						; size = 4
?StateIdle@CAIMonster@@IAEHABUAIMSG@@@Z PROC		; CAIMonster::StateIdle, COMDAT
; _this$ = ecx

; 463  : {

  00000	55		 push	 ebp
  00001	8b ec		 mov	 ebp, esp
  00003	83 ec 20	 sub	 esp, 32			; 00000020H
  00006	a1 00 00 00 00	 mov	 eax, DWORD PTR ___security_cookie
  0000b	33 c5		 xor	 eax, ebp
  0000d	89 45 fc	 mov	 DWORD PTR __$ArrayPad$[ebp], eax
  00010	53		 push	 ebx
  00011	8b 5d 08	 mov	 ebx, DWORD PTR _msg$[ebp]
  00014	56		 push	 esi
  00015	8b f1		 mov	 esi, ecx
  00017	57		 push	 edi

; 464  : 	CMover* pMover = GetMover();
; 465  : 	CWorld* pWorld = GetWorld();
; 466  : 
; 467  : 	BeginAIHandler( )
; 468  : 
; 469  : 	///////////////////////////////////////////////////////////////////////////////////////////////////
; 470  : 	OnMessage( AIMSG_INIT ) 

  00018	8b 03		 mov	 eax, DWORD PTR [ebx]
  0001a	8b 7e 30	 mov	 edi, DWORD PTR [esi+48]
  0001d	83 f8 01	 cmp	 eax, 1
  00020	0f 85 89 00 00
	00		 jne	 $LN4@StateIdle
; File C:\IAGOS\server\v18\Source\Source\_Common\Obj.h

; 215  : 	D3DXVECTOR3		GetPos()	{ return m_vPos; }

  00026	f3 0f 7e 87 60
	01 00 00	 movq	 xmm0, QWORD PTR [edi+352]
  0002e	8b 87 68 01 00
	00		 mov	 eax, DWORD PTR [edi+360]
  00034	66 0f d6 45 e4	 movq	 QWORD PTR $T1[ebp], xmm0
; File C:\IAGOS\server\v18\Source\Source\DX_SDK\d3dx9math.inl

; 383  :     return D3DXVECTOR3(x - v.x, y - v.y, z - v.z);

  00039	f3 0f 10 45 e4	 movss	 xmm0, DWORD PTR $T1[ebp]
  0003e	f3 0f 5c 46 50	 subss	 xmm0, DWORD PTR [esi+80]
; File C:\IAGOS\server\v18\Source\Source\_Common\Obj.h

; 215  : 	D3DXVECTOR3		GetPos()	{ return m_vPos; }

  00043	89 45 ec	 mov	 DWORD PTR $T1[ebp+8], eax
; File C:\IAGOS\server\v18\Source\Source\_aiinterface\aimonster.cpp

; 472  : 		if( pMover->IsFlyingNPC() )

  00046	8b 87 3c 02 00
	00		 mov	 eax, DWORD PTR [edi+572]
  0004c	25 00 00 01 00	 and	 eax, 65536		; 00010000H
; File C:\IAGOS\server\v18\Source\Source\_Common\Obj.h

; 215  : 	D3DXVECTOR3		GetPos()	{ return m_vPos; }

  00051	f7 d8		 neg	 eax
; File C:\IAGOS\server\v18\Source\Source\DX_SDK\d3dx9math.inl

; 300  :     x = fx;

  00053	f3 0f 11 45 f0	 movss	 DWORD PTR _vTargetTo$3[ebp], xmm0

; 383  :     return D3DXVECTOR3(x - v.x, y - v.y, z - v.z);

  00058	f3 0f 10 45 e8	 movss	 xmm0, DWORD PTR $T1[ebp+4]
; File C:\IAGOS\server\v18\Source\Source\_Common\Obj.h

; 215  : 	D3DXVECTOR3		GetPos()	{ return m_vPos; }

  0005d	1b c0		 sbb	 eax, eax
; File C:\IAGOS\server\v18\Source\Source\DX_SDK\d3dx9math.inl

; 383  :     return D3DXVECTOR3(x - v.x, y - v.y, z - v.z);

  0005f	f3 0f 5c 46 54	 subss	 xmm0, DWORD PTR [esi+84]
; File C:\IAGOS\server\v18\Source\Source\_Common\Obj.h

; 215  : 	D3DXVECTOR3		GetPos()	{ return m_vPos; }

  00064	83 e0 3c	 and	 eax, 60			; 0000003cH
  00067	83 c0 1e	 add	 eax, 30			; 0000001eH
; File C:\IAGOS\server\v18\Source\Source\_aiinterface\aimonster.cpp

; 476  : 		if( IsInRange( vTargetTo, (float)( nRangeMove ) ) == FALSE )

  0006a	51		 push	 ecx
; File C:\IAGOS\server\v18\Source\Source\DX_SDK\d3dx9math.inl

; 301  :     y = fy;

  0006b	f3 0f 11 45 f4	 movss	 DWORD PTR _vTargetTo$3[ebp+4], xmm0

; 383  :     return D3DXVECTOR3(x - v.x, y - v.y, z - v.z);

  00070	f3 0f 10 45 ec	 movss	 xmm0, DWORD PTR $T1[ebp+8]
  00075	f3 0f 5c 46 58	 subss	 xmm0, DWORD PTR [esi+88]

; 302  :     z = fz;

  0007a	f3 0f 11 45 f8	 movss	 DWORD PTR _vTargetTo$3[ebp+8], xmm0
  0007f	66 0f 6e c0	 movd	 xmm0, eax
; File C:\IAGOS\server\v18\Source\Source\_aiinterface\aimonster.cpp

; 476  : 		if( IsInRange( vTargetTo, (float)( nRangeMove ) ) == FALSE )

  00083	8d 45 f0	 lea	 eax, DWORD PTR _vTargetTo$3[ebp]
  00086	0f 5b c0	 cvtdq2ps xmm0, xmm0
  00089	f3 0f 11 04 24	 movss	 DWORD PTR [esp], xmm0
  0008e	50		 push	 eax
  0008f	e8 00 00 00 00	 call	 ?IsInRange@CAIMonster@@IAEHAAUD3DXVECTOR3@@M@Z ; CAIMonster::IsInRange
  00094	85 c0		 test	 eax, eax
  00096	75 09		 jne	 SHORT $LN7@StateIdle

; 477  : 			DoReturnToBegin();

  00098	6a 01		 push	 1
  0009a	8b ce		 mov	 ecx, esi
  0009c	e8 00 00 00 00	 call	 ?DoReturnToBegin@CAIMonster@@IAEXH@Z ; CAIMonster::DoReturnToBegin
$LN7@StateIdle:

; 478  : 		SetStop( SEC( 0 ) );

  000a1	6a 00		 push	 0
  000a3	8b ce		 mov	 ecx, esi
  000a5	e8 00 00 00 00	 call	 ?SetStop@CAIMonster@@IAEXK@Z ; CAIMonster::SetStop

; 479  : 
; 480  : 	///////////////////////////////////////////////////////////////////////////////////////////////////
; 481  : 	OnMessage( AIMSG_INIT_TARGETCLEAR )

  000aa	e9 55 02 00 00	 jmp	 $LN33@StateIdle
$LN4@StateIdle:
  000af	83 f8 11	 cmp	 eax, 17			; 00000011H
  000b2	75 0e		 jne	 SHORT $LN8@StateIdle

; 482  : 		SetTarget( NULL_ID, 0 );

  000b4	6a 00		 push	 0
  000b6	6a ff		 push	 -1
  000b8	e8 00 00 00 00	 call	 ?SetTarget@CAIMonster@@IAEXKK@Z ; CAIMonster::SetTarget

; 483  : 
; 484  : 	///////////////////////////////////////////////////////////////////////////////////////////////////
; 485  : 	OnMessage( AIMSG_PROCESS ) 

  000bd	e9 42 02 00 00	 jmp	 $LN33@StateIdle
$LN8@StateIdle:
  000c2	83 f8 02	 cmp	 eax, 2
  000c5	75 0b		 jne	 SHORT $LN10@StateIdle

; 486  : 		MoveProcessIdle( msg );

  000c7	53		 push	 ebx
  000c8	e8 00 00 00 00	 call	 ?MoveProcessIdle@CAIMonster@@IAEHABUAIMSG@@@Z ; CAIMonster::MoveProcessIdle

; 487  : 
; 488  : 	///////////////////////////////////////////////////////////////////////////////////////////////////
; 489  : 	OnMessage( AIMSG_DAMAGE ) 

  000cd	e9 32 02 00 00	 jmp	 $LN33@StateIdle
$LN10@StateIdle:
  000d2	83 f8 08	 cmp	 eax, 8
  000d5	75 4e		 jne	 SHORT $LN12@StateIdle

; 490  : 		//КаГы И№ЕхЗЮ КЏАц
; 491  : 
; 492  : 		if( m_bReturnToBegin == FALSE

  000d7	83 be bc 00 00
	00 00		 cmp	 DWORD PTR [esi+188], 0
  000de	0f 85 20 02 00
	00		 jne	 $LN33@StateIdle

; 493  : #if __VER < 9	// __AI_0509
; 494  : 			|| ( m_bReturnToBegin && ( TIMEGETTIME - m_tmReturnToBegin) > SEC(5) )
; 495  : #endif	// __AI_0509
; 496  : 			)
; 497  : 		{
; 498  : 			MoveToDst( msg.dwParam1 );

  000e4	ff 73 04	 push	 DWORD PTR [ebx+4]
  000e7	e8 00 00 00 00	 call	 ?MoveToDst@CAIMonster@@IAEXK@Z ; CAIMonster::MoveToDst

; 499  : 			SendAIMsg( AIMSG_SETSTATE, STATE_RAGE, msg.dwParam1 );

  000ec	8b 06		 mov	 eax, DWORD PTR [esi]
  000ee	8b ce		 mov	 ecx, esi
  000f0	6a 00		 push	 0
  000f2	ff 73 04	 push	 DWORD PTR [ebx+4]
  000f5	6a 07		 push	 7
  000f7	6a 04		 push	 4
  000f9	ff 50 0c	 call	 DWORD PTR [eax+12]

; 500  : 			m_tmAttack	= TIMEGETTIME + s_tmAttack;		// ДыБтСпРЯЖЇ АјАнЙоРИИщ 20УЪ ХИРЬИг НУРл

  000fc	a1 00 00 00 00	 mov	 eax, DWORD PTR ?s_tmAttack@@3KA
  00101	03 05 00 00 00
	00		 add	 eax, DWORD PTR ?g_tmCurrent@@3KA ; g_tmCurrent
  00107	89 46 40	 mov	 DWORD PTR [esi+64], eax

; 501  : #if __VER >= 9	//__AI_0509
; 502  : 			m_vPosDamage	= pMover->GetPos();

  0010a	f3 0f 7e 87 60
	01 00 00	 movq	 xmm0, QWORD PTR [edi+352]
  00112	66 0f d6 46 74	 movq	 QWORD PTR [esi+116], xmm0
  00117	8b 87 68 01 00
	00		 mov	 eax, DWORD PTR [edi+360]
  0011d	89 46 7c	 mov	 DWORD PTR [esi+124], eax

; 543  : 						if( pItem->IsDelete() )

  00120	e9 df 01 00 00	 jmp	 $LN33@StateIdle
$LN12@StateIdle:

; 503  : #endif	// __AI_0509
; 504  : 		}
; 505  : 	///////////////////////////////////////////////////////////////////////////////////////////////////
; 506  : 	OnMessage( AIMSG_DIE )		// Ва!

  00125	83 f8 09	 cmp	 eax, 9
  00128	75 12		 jne	 SHORT $LN15@StateIdle

; 507  : 		SendAIMsg( AIMSG_EXIT );

  0012a	8b 06		 mov	 eax, DWORD PTR [esi]
  0012c	6a 00		 push	 0
  0012e	6a 00		 push	 0
  00130	6a 00		 push	 0
  00132	6a 12		 push	 18			; 00000012H
  00134	ff 50 0c	 call	 DWORD PTR [eax+12]

; 508  : 
; 509  : 	///////////////////////////////////////////////////////////////////////////////////////////////////
; 510  : 	OnMessage( AIMSG_COLLISION )  // ГюДйАЁ УцЕЙЧпРН!"

  00137	e9 c8 01 00 00	 jmp	 $LN33@StateIdle
$LN15@StateIdle:
  0013c	83 f8 0a	 cmp	 eax, 10			; 0000000aH
  0013f	75 0c		 jne	 SHORT $LN17@StateIdle

; 511  : 		MoveToRandom( STATE_IDLE );

  00141	6a 02		 push	 2
  00143	e8 00 00 00 00	 call	 ?MoveToRandom@CAIMonster@@IAEXI@Z ; CAIMonster::MoveToRandom

; 512  : 
; 513  : 	///////////////////////////////////////////////////////////////////////////////////////////////////
; 514  : 	OnMessage( AIMSG_ARRIVAL )

  00148	e9 b7 01 00 00	 jmp	 $LN33@StateIdle
$LN17@StateIdle:
  0014d	83 f8 0b	 cmp	 eax, 11			; 0000000bH
  00150	0f 85 ae 01 00
	00		 jne	 $LN33@StateIdle

; 515  : 		if( pMover->IsFlyingNPC() )		

  00156	f7 87 3c 02 00
	00 00 00 01 00	 test	 DWORD PTR [edi+572], 65536 ; 00010000H
  00160	74 57		 je	 SHORT $LN21@StateIdle

; 516  : 		{
; 517  : 			// КёЧрИїРК ЕЕТјЧЯАэ ГЊМ­ ИиУпСі ОЪДТДй. 8РкКёЧрРИЗЮ РЬЕПЦаХЯРЬ ЙйВяДй.
; 518  : 			if( msg.dwParam2 == 1 )

  00162	83 7b 08 01	 cmp	 DWORD PTR [ebx+8], 1
  00166	0f 85 98 01 00
	00		 jne	 $LN33@StateIdle

; 519  : 			{
; 520  : 				int nPattern = 2;
; 521  : 				pMover->SetMovePattern( nPattern );

  0016c	6a 02		 push	 2
  0016e	8b cf		 mov	 ecx, edi
  00170	e8 00 00 00 00	 call	 ?SetMovePattern@CMover@@QAEXH@Z ; CMover::SetMovePattern
; File C:\IAGOS\server\v18\Source\Source\_Common\Obj.h

; 215  : 	D3DXVECTOR3		GetPos()	{ return m_vPos; }

  00175	f3 0f 7e 87 60
	01 00 00	 movq	 xmm0, QWORD PTR [edi+352]
; File C:\IAGOS\server\v18\Source\Source\_aiinterface\aimonster.cpp

; 523  : 				g_UserMng.AddSetMovePattern( pMover, nPattern, pMover->GetPos(), pMover->GetAngle(), pMover->GetAngleX() );

  0017d	83 ec 08	 sub	 esp, 8
; File C:\IAGOS\server\v18\Source\Source\_Common\Obj.h

; 215  : 	D3DXVECTOR3		GetPos()	{ return m_vPos; }

  00180	8b 87 68 01 00
	00		 mov	 eax, DWORD PTR [edi+360]
; File C:\IAGOS\server\v18\Source\Source\_aiinterface\aimonster.cpp

; 523  : 				g_UserMng.AddSetMovePattern( pMover, nPattern, pMover->GetPos(), pMover->GetAngle(), pMover->GetAngleX() );

  00186	b9 00 00 00 00	 mov	 ecx, OFFSET ?g_UserMng@@3VCUserMng@@A ; g_UserMng
; File C:\IAGOS\server\v18\Source\Source\_Common\Obj.h

; 215  : 	D3DXVECTOR3		GetPos()	{ return m_vPos; }

  0018b	66 0f d6 45 f0	 movq	 QWORD PTR $T4[ebp], xmm0
; File C:\IAGOS\server\v18\Source\Source\_aiinterface\aimonster.cpp

; 523  : 				g_UserMng.AddSetMovePattern( pMover, nPattern, pMover->GetPos(), pMover->GetAngle(), pMover->GetAngleX() );

  00190	f3 0f 10 47 1c	 movss	 xmm0, DWORD PTR [edi+28]
  00195	f3 0f 11 44 24
	04		 movss	 DWORD PTR [esp+4], xmm0
  0019b	f3 0f 10 47 18	 movss	 xmm0, DWORD PTR [edi+24]
; File C:\IAGOS\server\v18\Source\Source\_Common\Obj.h

; 215  : 	D3DXVECTOR3		GetPos()	{ return m_vPos; }

  001a0	89 45 f8	 mov	 DWORD PTR $T4[ebp+8], eax
; File C:\IAGOS\server\v18\Source\Source\_aiinterface\aimonster.cpp

; 523  : 				g_UserMng.AddSetMovePattern( pMover, nPattern, pMover->GetPos(), pMover->GetAngle(), pMover->GetAngleX() );

  001a3	8d 45 f0	 lea	 eax, DWORD PTR $T4[ebp]
  001a6	f3 0f 11 04 24	 movss	 DWORD PTR [esp], xmm0
  001ab	50		 push	 eax
  001ac	6a 02		 push	 2
  001ae	57		 push	 edi
  001af	e8 00 00 00 00	 call	 ?AddSetMovePattern@CUserMng@@QAEXPAVCMover@@HABUD3DXVECTOR3@@MM@Z ; CUserMng::AddSetMovePattern

; 524  : 			}
; 525  : 		} 

  001b4	e9 4b 01 00 00	 jmp	 $LN33@StateIdle
$LN21@StateIdle:

; 526  : 		else
; 527  : 		{
; 528  : 			if( m_bReturnToBegin )

  001b9	69 1d 00 00 00
	00 6d 4e c6 41	 imul	 ebx, DWORD PTR ?g_next@@3KA, 1103515245 ; g_next
  001c3	b8 d3 4d 62 10	 mov	 eax, 274877907		; 10624dd3H
  001c8	81 c3 39 30 00
	00		 add	 ebx, 12345		; 00003039H
  001ce	83 be bc 00 00
	00 00		 cmp	 DWORD PTR [esi+188], 0
  001d5	8b cb		 mov	 ecx, ebx
  001d7	74 0f		 je	 SHORT $LN24@StateIdle
; File C:\IAGOS\server\v18\Source\Source\_Common\xUtil.h

; 22   : 	return  xRand() % num;

  001d9	f7 e3		 mul	 ebx
  001db	c1 ea 06	 shr	 edx, 6
  001de	69 c2 e8 03 00
	00		 imul	 eax, edx, 1000
  001e4	2b c8		 sub	 ecx, eax
; File C:\IAGOS\server\v18\Source\Source\_aiinterface\aimonster.cpp

; 529  : 				SetStop( xRandom( SEC( 1 ) ) ); // 1УЪ ЕПОШ ИиУчЖѓ 

  001e6	eb 13		 jmp	 SHORT $LN25@StateIdle
$LN24@StateIdle:
; File C:\IAGOS\server\v18\Source\Source\_Common\xUtil.h

; 22   : 	return  xRand() % num;

  001e8	f7 e1		 mul	 ecx
  001ea	c1 ea 06	 shr	 edx, 6
; File C:\IAGOS\server\v18\Source\Source\_aiinterface\aimonster.cpp

; 531  : 				SetStop( SEC( 5 ) + xRandom( SEC( 1 ) ) ); // 1УЪ ЕПОШ ИиУчЖѓ 

  001ed	69 c2 e8 03 00
	00		 imul	 eax, edx, 1000
; File C:\IAGOS\server\v18\Source\Source\_Common\xUtil.h

; 22   : 	return  xRand() % num;

  001f3	2b c8		 sub	 ecx, eax
; File C:\IAGOS\server\v18\Source\Source\_aiinterface\aimonster.cpp

; 531  : 				SetStop( SEC( 5 ) + xRandom( SEC( 1 ) ) ); // 1УЪ ЕПОШ ИиУчЖѓ 

  001f5	81 c1 88 13 00
	00		 add	 ecx, 5000		; 00001388H
$LN25@StateIdle:

; 532  : 
; 533  : 			if( m_bLootMove )	// ОЦРЬХл ЗчЦУИ№ЕхПДРН.

  001fb	51		 push	 ecx
  001fc	8b ce		 mov	 ecx, esi
  001fe	89 1d 00 00 00
	00		 mov	 DWORD PTR ?g_next@@3KA, ebx ; g_next
  00204	e8 00 00 00 00	 call	 ?SetStop@CAIMonster@@IAEXK@Z ; CAIMonster::SetStop
  00209	83 be d4 00 00
	00 00		 cmp	 DWORD PTR [esi+212], 0
  00210	0f 84 ee 00 00
	00		 je	 $LN33@StateIdle

; 534  : 			{
; 535  : 				CCtrl *pCtrl = prj.GetCtrl( m_idLootItem );		// БзОЦРЬХлРЬ ЛчЖѓСГРЛМі РжРИДЯБю АЫЛчЧд.

  00216	ff b6 ec 00 00
	00		 push	 DWORD PTR [esi+236]
  0021c	b9 00 00 00 00	 mov	 ecx, OFFSET ?prj@@3VCProject@@A ; prj
  00221	e8 00 00 00 00	 call	 ?GetCtrl@CProject@@QAEPAVCCtrl@@K@Z ; CProject::GetCtrl
  00226	8b d8		 mov	 ebx, eax
; File C:\IAGOS\server\v18\Source\Source\_Common\Obj.h

; 327  : 	return pObj && ( pObj->IsDelete() == FALSE ); 

  00228	85 db		 test	 ebx, ebx
  0022a	0f 84 c0 00 00
	00		 je	 $LN32@StateIdle

; 180  : 	BOOL			IsDelete()	{ return (m_dwFlags & OBJ_FLAG_DELETE);  }

  00230	f6 43 04 01	 test	 BYTE PTR [ebx+4], 1

; 327  : 	return pObj && ( pObj->IsDelete() == FALSE ); 

  00234	0f 85 b6 00 00
	00		 jne	 $LN32@StateIdle

; 215  : 	D3DXVECTOR3		GetPos()	{ return m_vPos; }

  0023a	f3 0f 7e 87 60
	01 00 00	 movq	 xmm0, QWORD PTR [edi+352]
  00242	8b 87 68 01 00
	00		 mov	 eax, DWORD PTR [edi+360]
  00248	66 0f d6 45 f0	 movq	 QWORD PTR $T5[ebp], xmm0
  0024d	f3 0f 7e 83 60
	01 00 00	 movq	 xmm0, QWORD PTR [ebx+352]
  00255	66 0f d6 45 e4	 movq	 QWORD PTR $T2[ebp], xmm0
; File C:\IAGOS\server\v18\Source\Source\DX_SDK\d3dx9math.inl

; 383  :     return D3DXVECTOR3(x - v.x, y - v.y, z - v.z);

  0025a	f3 0f 10 4d e4	 movss	 xmm1, DWORD PTR $T2[ebp]
  0025f	f3 0f 10 55 e8	 movss	 xmm2, DWORD PTR $T2[ebp+4]
  00264	f3 0f 5c 55 f4	 subss	 xmm2, DWORD PTR $T5[ebp+4]
  00269	f3 0f 5c 4d f0	 subss	 xmm1, DWORD PTR $T5[ebp]
; File C:\IAGOS\server\v18\Source\Source\_Common\Obj.h

; 215  : 	D3DXVECTOR3		GetPos()	{ return m_vPos; }

  0026e	89 45 f8	 mov	 DWORD PTR $T5[ebp+8], eax
  00271	8b 83 68 01 00
	00		 mov	 eax, DWORD PTR [ebx+360]
  00277	89 45 ec	 mov	 DWORD PTR $T2[ebp+8], eax
; File C:\IAGOS\server\v18\Source\Source\DX_SDK\d3dx9math.inl

; 383  :     return D3DXVECTOR3(x - v.x, y - v.y, z - v.z);

  0027a	f3 0f 10 45 ec	 movss	 xmm0, DWORD PTR $T2[ebp+8]
  0027f	f3 0f 5c 45 f8	 subss	 xmm0, DWORD PTR $T5[ebp+8]

; 302  :     z = fz;

  00284	f3 0f 59 d2	 mulss	 xmm2, xmm2

; 1698 :     return pV->x * pV->x + pV->y * pV->y + pV->z * pV->z;

  00288	f3 0f 59 c9	 mulss	 xmm1, xmm1
  0028c	f3 0f 59 c0	 mulss	 xmm0, xmm0
  00290	f3 0f 58 d1	 addss	 xmm2, xmm1
  00294	f3 0f 58 d0	 addss	 xmm2, xmm0
; File C:\IAGOS\server\v18\Source\Source\_aiinterface\aimonster.cpp

; 541  : 					if( fDistSq < 3.0f * 3.0f )		// ЕЕТјЧиМ­ АХИЎ АЫЛч ЧбЙјДѕ ЧиМ­ 

  00298	f3 0f 10 05 00
	00 00 00	 movss	 xmm0, DWORD PTR __real@41100000
  002a0	0f 2f c2	 comiss	 xmm0, xmm2
  002a3	76 4b		 jbe	 SHORT $LN32@StateIdle
; File C:\IAGOS\server\v18\Source\Source\_Common\Obj.h

; 180  : 	BOOL			IsDelete()	{ return (m_dwFlags & OBJ_FLAG_DELETE);  }

  002a5	f6 43 04 01	 test	 BYTE PTR [ebx+4], 1
; File C:\IAGOS\server\v18\Source\Source\_aiinterface\aimonster.cpp

; 543  : 						if( pItem->IsDelete() )

  002a9	75 59		 jne	 SHORT $LN33@StateIdle

; 544  : 							return TRUE;
; 545  : 						CItemElem* pItemElem = (CItemElem *)pItem->m_pItemBase;

  002ab	8b 83 30 02 00
	00		 mov	 eax, DWORD PTR [ebx+560]

; 546  : 						ItemProp *pItemProp = pItem->GetProp();

  002b1	8b cb		 mov	 ecx, ebx
  002b3	89 45 e0	 mov	 DWORD PTR _pItemElem$1$[ebp], eax
  002b6	e8 00 00 00 00	 call	 ?GetPropA@CItem@@QAEPAUItemProp@@XZ ; CItem::GetPropA

; 547  : 						BOOL bSuccess = FALSE;
; 548  : 						if( pItemProp->dwItemKind1 == IK1_GOLD )	// СжРКОЦРЬХлРЬ ЕЗРЬГФ?

  002bb	83 78 70 00	 cmp	 DWORD PTR [eax+112], 0
  002bf	75 14		 jne	 SHORT $LN30@StateIdle

; 549  : 						{
; 550  : 							pMover->AddGold( pItemElem->GetGold() );	// ЕЗСѕАЁ.

  002c1	8b 4d e0	 mov	 ecx, DWORD PTR _pItemElem$1$[ebp]
  002c4	6a 01		 push	 1
  002c6	e8 00 00 00 00	 call	 ?GetGold@CItemElem@@QAEHXZ ; CItemElem::GetGold
  002cb	50		 push	 eax
  002cc	8b cf		 mov	 ecx, edi
  002ce	e8 00 00 00 00	 call	 ?AddGold@CMover@@QAEHHH@Z ; CMover::AddGold

; 551  : 							bSuccess = TRUE;
; 552  : 						} 

  002d3	eb 14		 jmp	 SHORT $LN78@StateIdle
$LN30@StateIdle:

; 553  : 						else
; 554  : 						{
; 555  : 							// not GOLD
; 556  : 							bSuccess = pMover->CreateItem( pItemElem );			// СжРК ОЦРЬХл Л§МК.

  002d5	6a 00		 push	 0
  002d7	6a 00		 push	 0
  002d9	6a 00		 push	 0
  002db	ff 75 e0	 push	 DWORD PTR _pItemElem$1$[ebp]
  002de	8b cf		 mov	 ecx, edi
  002e0	e8 00 00 00 00	 call	 ?CreateItem@CMover@@QAEHPAVCItemBase@@PAEPAFE@Z ; CMover::CreateItem

; 557  : 						}
; 558  : 
; 559  : 						if( bSuccess )

  002e5	85 c0		 test	 eax, eax
  002e7	74 07		 je	 SHORT $LN32@StateIdle
$LN78@StateIdle:

; 560  : 						{
; 561  : 							pItem->Delete();		// РЮКЅПЁБюСі ГжДТЕЅ МКАјЧЯИщ ЙйДкРЧ ОЦРЬХлРК СіПђ.

  002e9	8b cb		 mov	 ecx, ebx
  002eb	e8 00 00 00 00	 call	 ?Delete@CObj@@QAEXXZ	; CObj::Delete
$LN32@StateIdle:

; 562  : 						}
; 563  : 					}
; 564  : 				}
; 565  : 				m_bLootMove = FALSE;		// thisАЁ ОЦРЬХл С§ДТСпРЬЖѓДТАХ ЧиСІ.

  002f0	c7 86 d4 00 00
	00 00 00 00 00	 mov	 DWORD PTR [esi+212], 0

; 566  : 				m_idLootItem = NULL_ID;

  002fa	c7 86 ec 00 00
	00 ff ff ff ff	 mov	 DWORD PTR [esi+236], -1
$LN33@StateIdle:

; 567  : 			}
; 568  : 		}
; 569  : 		
; 570  : 	///////////////////////////////////////////////////////////////////////////////////////////////////
; 571  : 	OnMessage( AIMSG_EXIT )	
; 572  : 
; 573  : 	EndAIHandler( )
; 574  : 	return TRUE;
; 575  : }

  00304	8b 4d fc	 mov	 ecx, DWORD PTR __$ArrayPad$[ebp]
  00307	b8 01 00 00 00	 mov	 eax, 1
  0030c	5f		 pop	 edi
  0030d	5e		 pop	 esi
  0030e	33 cd		 xor	 ecx, ebp
  00310	5b		 pop	 ebx
  00311	e8 00 00 00 00	 call	 @__security_check_cookie@4
  00316	8b e5		 mov	 esp, ebp
  00318	5d		 pop	 ebp
  00319	c2 04 00	 ret	 4
?StateIdle@CAIMonster@@IAEHABUAIMSG@@@Z ENDP		; CAIMonster::StateIdle
_TEXT	ENDS
; Function compile flags: /Ogtp
; File C:\IAGOS\server\v18\Source\Source\_aiinterface\aimonster.cpp
;	COMDAT ?StateInit@CAIMonster@@IAEHABUAIMSG@@@Z
_TEXT	SEGMENT
_msg$ = 8						; size = 4
?StateInit@CAIMonster@@IAEHABUAIMSG@@@Z PROC		; CAIMonster::StateInit, COMDAT
; _this$ = ecx

; 282  : 	return TRUE;

  00000	b8 01 00 00 00	 mov	 eax, 1

; 283  : }

  00005	c2 04 00	 ret	 4
?StateInit@CAIMonster@@IAEHABUAIMSG@@@Z ENDP		; CAIMonster::StateInit
_TEXT	ENDS
; Function compile flags: /Ogtp
; File C:\IAGOS\server\v18\Source\Source\_aiinterface\aimonster.cpp
;	COMDAT ?Init@CAIMonster@@IAEXXZ
_TEXT	SEGMENT
?Init@CAIMonster@@IAEXXZ PROC				; CAIMonster::Init, COMDAT
; _this$ = ecx

; 94   : {

  00000	56		 push	 esi

; 95   : 	SetTarget( NULL_ID, 0 );

  00001	6a 00		 push	 0
  00003	6a ff		 push	 -1
  00005	8b f1		 mov	 esi, ecx
  00007	e8 00 00 00 00	 call	 ?SetTarget@CAIMonster@@IAEXKK@Z ; CAIMonster::SetTarget

; 96   : 	m_bReturnToBegin	= FALSE;
; 97   : 	m_bGoTarget		= FALSE;
; 98   : 	m_bTargetNoMovePos	= FALSE;
; 99   : 	m_dwAtkMethod	= 0;
; 100  : 	m_bFirstRunaway		= FALSE;
; 101  : 	m_bCallHelper	= FALSE;
; 102  : 	m_tmAttack	= TIMEGETTIME + s_tmAttack;		// АјАн ШФ 20УЪАЃ УпРћЧиПШ.

  0000c	a1 00 00 00 00	 mov	 eax, DWORD PTR ?s_tmAttack@@3KA
  00011	c7 86 bc 00 00
	00 00 00 00 00	 mov	 DWORD PTR [esi+188], 0
  0001b	c7 86 c0 00 00
	00 00 00 00 00	 mov	 DWORD PTR [esi+192], 0
  00025	c7 86 c4 00 00
	00 00 00 00 00	 mov	 DWORD PTR [esi+196], 0
  0002f	c7 86 dc 00 00
	00 00 00 00 00	 mov	 DWORD PTR [esi+220], 0
  00039	c7 86 c8 00 00
	00 00 00 00 00	 mov	 DWORD PTR [esi+200], 0
  00043	c7 86 cc 00 00
	00 00 00 00 00	 mov	 DWORD PTR [esi+204], 0
  0004d	03 05 00 00 00
	00		 add	 eax, DWORD PTR ?g_tmCurrent@@3KA ; g_tmCurrent
  00053	89 46 40	 mov	 DWORD PTR [esi+64], eax

; 103  : 	m_vOldPos.x	= m_vOldPos.y = m_vOldPos.z = 0;

  00056	c7 46 70 00 00
	00 00		 mov	 DWORD PTR [esi+112], 0
  0005d	c7 46 6c 00 00
	00 00		 mov	 DWORD PTR [esi+108], 0
  00064	c7 46 68 00 00
	00 00		 mov	 DWORD PTR [esi+104], 0

; 104  : 	m_bRangeAttack	= FALSE;

  0006b	c7 86 d0 00 00
	00 00 00 00 00	 mov	 DWORD PTR [esi+208], 0

; 105  : #if __VER < 12 // __NEW_SUMMON_RULE
; 106  : 	memset( m_idSummon, NULL_ID, sizeof(m_idSummon) );
; 107  : #endif // __NEW_SUMMON_RULE
; 108  : #if __VER >= 12 // __SECRET_ROOM
; 109  : 	m_tmSummon = TIMEGETTIME;

  00075	a1 00 00 00 00	 mov	 eax, DWORD PTR ?g_tmCurrent@@3KA ; g_tmCurrent
  0007a	89 46 44	 mov	 DWORD PTR [esi+68], eax

; 110  : 	m_tmHelp = 0;

  0007d	c7 46 48 00 00
	00 00		 mov	 DWORD PTR [esi+72], 0

; 111  : #else // __SECRET_ROOM
; 112  : 	m_tmSummon	= m_tmHelp = 0;
; 113  : #endif // __SECRET_ROOM
; 114  : 	m_bLootMove	= FALSE;

  00084	c7 86 d4 00 00
	00 00 00 00 00	 mov	 DWORD PTR [esi+212], 0

; 115  : 	m_idLootItem	= NULL_ID;

  0008e	c7 86 ec 00 00
	00 ff ff ff ff	 mov	 DWORD PTR [esi+236], -1

; 116  : 	m_tmAttackDelay	= m_tmMove = m_tmReturnToBegin = TIMEGETTIME;

  00098	a1 00 00 00 00	 mov	 eax, DWORD PTR ?g_tmCurrent@@3KA ; g_tmCurrent
  0009d	89 46 4c	 mov	 DWORD PTR [esi+76], eax
  000a0	a1 00 00 00 00	 mov	 eax, DWORD PTR ?g_tmCurrent@@3KA ; g_tmCurrent
  000a5	89 46 38	 mov	 DWORD PTR [esi+56], eax
  000a8	a1 00 00 00 00	 mov	 eax, DWORD PTR ?g_tmCurrent@@3KA ; g_tmCurrent
  000ad	89 46 3c	 mov	 DWORD PTR [esi+60], eax

; 117  : 	m_fAngleBegine	= 0.0f;

  000b0	c7 86 b8 00 00
	00 00 00 00 00	 mov	 DWORD PTR [esi+184], 0

; 118  : #if __VER >= 9	//__AI_0509
; 119  : 	m_vPosDamage	= D3DXVECTOR3( 0, 0, 0 );

  000ba	c7 46 74 00 00
	00 00		 mov	 DWORD PTR [esi+116], 0
  000c1	c7 46 78 00 00
	00 00		 mov	 DWORD PTR [esi+120], 0
  000c8	c7 46 7c 00 00
	00 00		 mov	 DWORD PTR [esi+124], 0
  000cf	5e		 pop	 esi

; 120  : #endif	// __AI_0509
; 121  : }

  000d0	c3		 ret	 0
?Init@CAIMonster@@IAEXXZ ENDP				; CAIMonster::Init
_TEXT	ENDS
; Function compile flags: /Ogtp
; File C:\IAGOS\server\v18\Source\Source\_aiinterface\aimonster.cpp
; File C:\IAGOS\server\v18\Source\Source\_Common\Project.h
; File C:\IAGOS\server\v18\Source\Source\_aiinterface\aimonster.cpp
; File C:\IAGOS\server\v18\Source\Source\_Common\Mover.h
; File C:\IAGOS\server\v18\Source\Source\_aiinterface\aimonster.cpp
; File C:\IAGOS\server\v18\Source\Source\_Common\Project.h
; File C:\IAGOS\server\v18\Source\Source\_aiinterface\aimonster.cpp
; File C:\IAGOS\server\v18\Source\Source\_Common\Obj.h
; File C:\IAGOS\server\v18\Source\Source\_aiinterface\aimonster.cpp
; File C:\IAGOS\server\v18\Source\Source\_Common\Obj.h
; File C:\IAGOS\server\v18\Source\Source\_aiinterface\aimonster.cpp
; File C:\IAGOS\server\v18\Source\Source\_Common\Obj.h
; File C:\IAGOS\server\v18\Source\Source\_aiinterface\aimonster.cpp
; File C:\IAGOS\server\v18\Source\Source\_Common\Item.h
; File C:\IAGOS\server\v18\Source\Source\_Common\Project.h
; File C:\IAGOS\server\v18\Source\Source\_Common\data.h
; File C:\IAGOS\server\v18\Source\Source\_aiinterface\aimonster.cpp
; File C:\IAGOS\server\v18\Source\Source\_Common\Obj.h
; File C:\IAGOS\server\v18\Source\Source\DX_SDK\d3dx9math.inl
; File C:\IAGOS\server\v18\Source\Source\_Common\Obj.h
; File C:\IAGOS\server\v18\Source\Source\DX_SDK\d3dx9math.inl
; File C:\IAGOS\server\v18\Source\Source\_aiinterface\aimonster.cpp
; File C:\IAGOS\server\v18\Source\Source\DX_SDK\d3dx9math.inl
; File C:\IAGOS\server\v18\Source\Source\_aiinterface\aimonster.cpp
; File C:\IAGOS\server\v18\Source\Source\_Common\Obj.h
; File C:\IAGOS\server\v18\Source\Source\_aiinterface\aimonster.cpp
; File C:\IAGOS\server\v18\Source\Source\_Common\Obj.h
; File C:\IAGOS\server\v18\Source\Source\_aiinterface\aimonster.cpp
; File C:\IAGOS\server\v18\Source\Source\_Common\Obj.h
; File C:\IAGOS\server\v18\Source\Source\_aiinterface\aimonster.cpp
; File C:\IAGOS\server\v18\Source\Source\_Common\Project.h
; File C:\IAGOS\server\v18\Source\Source\_aiinterface\aimonster.cpp
;	COMDAT ?SubItemLoot@CAIMonster@@IAEHXZ
_TEXT	SEGMENT
$T1 = -100						; size = 12
_vPos$ = -88						; size = 12
_this$GSCopy$1$ = -76					; size = 4
__pObjs$1$ = -72					; size = 4
tv904 = -68						; size = 4
__nLinkZ$1$ = -64					; size = 4
__nLinkX$1$ = -60					; size = 4
_pMover$1$ = -56					; size = 4
__i$1$ = -52						; size = 4
tv884 = -48						; size = 4
__j$1$ = -44						; size = 4
__nMaxWidth$1$ = -40					; size = 4
__k$1$ = -36						; size = 4
tv891 = -32						; size = 4
tv906 = -32						; size = 4
_pWorld$1$ = -28					; size = 4
tv905 = -24						; size = 4
__nUnit$1$ = -20					; size = 4
tv885 = -20						; size = 4
$T2 = -16						; size = 12
$T3 = -16						; size = 12
__$ArrayPad$ = -4					; size = 4
?SubItemLoot@CAIMonster@@IAEHXZ PROC			; CAIMonster::SubItemLoot, COMDAT
; _this$ = ecx

; 232  : {

  00000	55		 push	 ebp
  00001	8b ec		 mov	 ebp, esp
  00003	83 ec 64	 sub	 esp, 100		; 00000064H
  00006	a1 00 00 00 00	 mov	 eax, DWORD PTR ___security_cookie
  0000b	33 c5		 xor	 eax, ebp
  0000d	89 45 fc	 mov	 DWORD PTR __$ArrayPad$[ebp], eax
; File C:\IAGOS\server\v18\Source\Source\_Common\Project.h

; 1406 : 	VERIFY_RANGE( nIndex, 0, m_nMoverPropSize, "GetMoverProp range_error", NULL );

  00010	8b 15 b4 01 00
	00		 mov	 edx, DWORD PTR ?prj@@3VCProject@@A+436
; File C:\IAGOS\server\v18\Source\Source\_aiinterface\aimonster.cpp

; 232  : {

  00016	8b c1		 mov	 eax, ecx
  00018	53		 push	 ebx
  00019	56		 push	 esi
  0001a	89 45 b4	 mov	 DWORD PTR _this$GSCopy$1$[ebp], eax

; 233  : 	CMover* pMover = GetMover();

  0001d	8b 58 30	 mov	 ebx, DWORD PTR [eax+48]
  00020	57		 push	 edi
  00021	89 5d c8	 mov	 DWORD PTR _pMover$1$[ebp], ebx
; File C:\IAGOS\server\v18\Source\Source\_Common\Mover.h

; 1020 : 	MoverProp*		GetProp() { return prj.GetMoverProp( m_dwIndex ); }	// АДУМРЧ ЧСЗЮЦлЦМ ОђБт 	

  00024	8b 83 74 01 00
	00		 mov	 eax, DWORD PTR [ebx+372]
; File C:\IAGOS\server\v18\Source\Source\_aiinterface\aimonster.cpp

; 234  : 	CWorld* pWorld = GetWorld();

  0002a	8b b3 6c 01 00
	00		 mov	 esi, DWORD PTR [ebx+364]
  00030	89 75 e4	 mov	 DWORD PTR _pWorld$1$[ebp], esi
; File C:\IAGOS\server\v18\Source\Source\_Common\Project.h

; 1406 : 	VERIFY_RANGE( nIndex, 0, m_nMoverPropSize, "GetMoverProp range_error", NULL );

  00033	85 c0		 test	 eax, eax
  00035	78 04		 js	 SHORT $LN58@SubItemLoo
  00037	3b c2		 cmp	 eax, edx
  00039	7c 16		 jl	 SHORT $LN53@SubItemLoo
$LN58@SubItemLoo:

; 579  : 	LPCTSTR szErr = Error( _T( "%s min:%d, max:%d, index:%d" ), szMsg, nMin, nMax, nIndex ); 

  0003b	50		 push	 eax
  0003c	52		 push	 edx
  0003d	6a 00		 push	 0
  0003f	68 00 00 00 00	 push	 OFFSET ??_C@_0BJ@GKPOBPPI@GetMoverProp?5range_error@
  00044	68 00 00 00 00	 push	 OFFSET ??_C@_0BM@HMFGHCP@?$CFs?5min?3?$CFd?0?5max?3?$CFd?0?5index?3?$CFd@
  00049	e8 00 00 00 00	 call	 ?Error@@YAPBDPBDZZ	; Error
  0004e	83 c4 14	 add	 esp, 20			; 00000014H
$LN53@SubItemLoo:
  00051	66 0f 6e 4e 14	 movd	 xmm1, DWORD PTR [esi+20]
; File C:\IAGOS\server\v18\Source\Source\_aiinterface\aimonster.cpp

; 244  : 	FOR_LINKMAP( pWorld, vPos, pObj, nRange, CObj::linkDynamic, pMover->GetLayer() )

  00056	33 ff		 xor	 edi, edi
; File C:\IAGOS\server\v18\Source\Source\_Common\Obj.h

; 215  : 	D3DXVECTOR3		GetPos()	{ return m_vPos; }

  00058	f3 0f 7e 83 60
	01 00 00	 movq	 xmm0, QWORD PTR [ebx+352]
; File C:\IAGOS\server\v18\Source\Source\_aiinterface\aimonster.cpp

; 244  : 	FOR_LINKMAP( pWorld, vPos, pObj, nRange, CObj::linkDynamic, pMover->GetLayer() )

  00060	83 c6 24	 add	 esi, 36			; 00000024H
  00063	0f 5b c9	 cvtdq2ps xmm1, xmm1
  00066	8b ce		 mov	 ecx, esi
; File C:\IAGOS\server\v18\Source\Source\_Common\Obj.h

; 215  : 	D3DXVECTOR3		GetPos()	{ return m_vPos; }

  00068	8b 83 68 01 00
	00		 mov	 eax, DWORD PTR [ebx+360]
  0006e	89 45 b0	 mov	 DWORD PTR _vPos$[ebp+8], eax
; File C:\IAGOS\server\v18\Source\Source\_aiinterface\aimonster.cpp

; 244  : 	FOR_LINKMAP( pWorld, vPos, pObj, nRange, CObj::linkDynamic, pMover->GetLayer() )

  00071	89 7d cc	 mov	 DWORD PTR __i$1$[ebp], edi
; File C:\IAGOS\server\v18\Source\Source\_Common\Obj.h

; 215  : 	D3DXVECTOR3		GetPos()	{ return m_vPos; }

  00074	66 0f d6 45 a8	 movq	 QWORD PTR _vPos$[ebp], xmm0
; File C:\IAGOS\server\v18\Source\Source\_aiinterface\aimonster.cpp

; 244  : 	FOR_LINKMAP( pWorld, vPos, pObj, nRange, CObj::linkDynamic, pMover->GetLayer() )

  00079	f3 0f 10 45 a8	 movss	 xmm0, DWORD PTR _vPos$[ebp]
  0007e	f3 0f 5e c1	 divss	 xmm0, xmm1
  00082	ff b3 b8 01 00
	00		 push	 DWORD PTR [ebx+440]
  00088	f3 0f 2c c0	 cvttss2si eax, xmm0
  0008c	6a 01		 push	 1
  0008e	f3 0f 10 45 b0	 movss	 xmm0, DWORD PTR _vPos$[ebp+8]
  00093	f3 0f 5e c1	 divss	 xmm0, xmm1
  00097	89 45 c4	 mov	 DWORD PTR __nLinkX$1$[ebp], eax
  0009a	f3 0f 2c c0	 cvttss2si eax, xmm0
  0009e	89 45 c0	 mov	 DWORD PTR __nLinkZ$1$[ebp], eax
  000a1	e8 00 00 00 00	 call	 ?GetMaxLinkLevel@CLayeredLinkMap@@QAEHKH@Z ; CLayeredLinkMap::GetMaxLinkLevel
  000a6	85 c0		 test	 eax, eax
  000a8	0f 8e 45 02 00
	00		 jle	 $LN83@SubItemLoo
  000ae	66 90		 npad	 2
$LL4@SubItemLoo:
  000b0	ff b3 b8 01 00
	00		 push	 DWORD PTR [ebx+440]
  000b6	8b ce		 mov	 ecx, esi
  000b8	57		 push	 edi
  000b9	6a 01		 push	 1
  000bb	e8 00 00 00 00	 call	 ?GetLinkWidth@CLayeredLinkMap@@QAEHKHH@Z ; CLayeredLinkMap::GetLinkWidth
  000c0	ff b3 b8 01 00
	00		 push	 DWORD PTR [ebx+440]
  000c6	8b f0		 mov	 esi, eax
  000c8	57		 push	 edi
  000c9	8b 7d e4	 mov	 edi, DWORD PTR _pWorld$1$[ebp]
  000cc	6a 01		 push	 1
  000ce	8d 4f 24	 lea	 ecx, DWORD PTR [edi+36]
  000d1	e8 00 00 00 00	 call	 ?GetObj@CLayeredLinkMap@@QAEPAPAVCObj@@KKH@Z ; CLayeredLinkMap::GetObj
  000d6	89 45 b8	 mov	 DWORD PTR __pObjs$1$[ebp], eax
  000d9	8b 47 04	 mov	 eax, DWORD PTR [edi+4]
  000dc	8b d8		 mov	 ebx, eax
  000de	c1 e0 07	 shl	 eax, 7
  000e1	0f af de	 imul	 ebx, esi
  000e4	99		 cdq
  000e5	8b 4f 08	 mov	 ecx, DWORD PTR [edi+8]
  000e8	0f af ce	 imul	 ecx, esi
  000eb	f7 fb		 idiv	 ebx
  000ed	89 4d e0	 mov	 DWORD PTR tv891[ebp], ecx
  000f0	8b 4d e4	 mov	 ecx, DWORD PTR _pWorld$1$[ebp]
  000f3	8b f8		 mov	 edi, eax
  000f5	89 5d d8	 mov	 DWORD PTR __nMaxWidth$1$[ebp], ebx
  000f8	89 7d ec	 mov	 DWORD PTR __nUnit$1$[ebp], edi
  000fb	8b 41 14	 mov	 eax, DWORD PTR [ecx+20]
  000fe	0f af c7	 imul	 eax, edi
  00101	99		 cdq
  00102	2b c2		 sub	 eax, edx
  00104	8b d8		 mov	 ebx, eax
  00106	8b 45 c4	 mov	 eax, DWORD PTR __nLinkX$1$[ebp]
  00109	99		 cdq
  0010a	f7 ff		 idiv	 edi
  0010c	d1 fb		 sar	 ebx, 1
  0010e	8b f0		 mov	 esi, eax
  00110	8b 45 c0	 mov	 eax, DWORD PTR __nLinkZ$1$[ebp]
  00113	99		 cdq
  00114	f7 ff		 idiv	 edi
  00116	8b d6		 mov	 edx, esi
  00118	0f af 51 14	 imul	 edx, DWORD PTR [ecx+20]
  0011c	8b f8		 mov	 edi, eax
  0011e	f3 0f 2c 45 a8	 cvttss2si eax, DWORD PTR _vPos$[ebp]
  00123	0f af 55 ec	 imul	 edx, DWORD PTR __nUnit$1$[ebp]
  00127	2b c2		 sub	 eax, edx
  00129	33 d2		 xor	 edx, edx
  0012b	3b c3		 cmp	 eax, ebx
  0012d	0f 9f c2	 setg	 dl
  00130	33 c9		 xor	 ecx, ecx
  00132	03 d6		 add	 edx, esi
  00134	8d 42 ff	 lea	 eax, DWORD PTR [edx-1]
  00137	85 c0		 test	 eax, eax
  00139	0f 49 c8	 cmovns	 ecx, eax
  0013c	8b 45 e4	 mov	 eax, DWORD PTR _pWorld$1$[ebp]
  0013f	89 4d bc	 mov	 DWORD PTR tv904[ebp], ecx
  00142	8b cf		 mov	 ecx, edi
  00144	0f af 48 14	 imul	 ecx, DWORD PTR [eax+20]
  00148	f3 0f 2c 45 b0	 cvttss2si eax, DWORD PTR _vPos$[ebp+8]
  0014d	0f af 4d ec	 imul	 ecx, DWORD PTR __nUnit$1$[ebp]
  00151	2b c1		 sub	 eax, ecx
  00153	33 c9		 xor	 ecx, ecx
  00155	3b c3		 cmp	 eax, ebx
  00157	0f 9f c1	 setg	 cl
  0015a	8d 04 39	 lea	 eax, DWORD PTR [ecx+edi]
  0015d	8b 7d d8	 mov	 edi, DWORD PTR __nMaxWidth$1$[ebp]
  00160	3b d7		 cmp	 edx, edi
  00162	8d 48 ff	 lea	 ecx, DWORD PTR [eax-1]
  00165	8d 5f ff	 lea	 ebx, DWORD PTR [edi-1]
  00168	0f 4c da	 cmovl	 ebx, edx
  0016b	8b 55 e0	 mov	 edx, DWORD PTR tv891[ebp]
  0016e	3b c2		 cmp	 eax, edx
  00170	89 5d e8	 mov	 DWORD PTR tv905[ebp], ebx
  00173	8d 72 ff	 lea	 esi, DWORD PTR [edx-1]
  00176	0f 4c f0	 cmovl	 esi, eax
  00179	89 75 e0	 mov	 DWORD PTR tv906[ebp], esi
  0017c	33 f6		 xor	 esi, esi
  0017e	85 c9		 test	 ecx, ecx
  00180	0f 49 f1	 cmovns	 esi, ecx
  00183	89 75 d4	 mov	 DWORD PTR __j$1$[ebp], esi
  00186	3b 75 e0	 cmp	 esi, DWORD PTR tv906[ebp]
  00189	0f 8f dd 01 00
	00		 jg	 $LN2@SubItemLoo
  0018f	8b 15 40 02 00
	00		 mov	 edx, DWORD PTR ?prj@@3VCProject@@A+576
  00195	8b c6		 mov	 eax, esi
  00197	0f af c7	 imul	 eax, edi
  0019a	89 45 d0	 mov	 DWORD PTR tv884[ebp], eax
  0019d	0f 1f 00	 npad	 3
$LL7@SubItemLoo:
  001a0	8b 4d bc	 mov	 ecx, DWORD PTR tv904[ebp]
  001a3	89 4d dc	 mov	 DWORD PTR __k$1$[ebp], ecx
  001a6	3b cb		 cmp	 ecx, ebx
  001a8	0f 8f ac 01 00
	00		 jg	 $LN5@SubItemLoo
  001ae	8b 5d b8	 mov	 ebx, DWORD PTR __pObjs$1$[ebp]
  001b1	03 c1		 add	 eax, ecx
  001b3	8d 1c 83	 lea	 ebx, DWORD PTR [ebx+eax*4]
  001b6	8b 45 e8	 mov	 eax, DWORD PTR tv905[ebp]
  001b9	89 5d ec	 mov	 DWORD PTR tv885[ebp], ebx
  001bc	0f 1f 40 00	 npad	 4
$LL10@SubItemLoo:
  001c0	8b 33		 mov	 esi, DWORD PTR [ebx]
  001c2	bf e8 03 00 00	 mov	 edi, 1000		; 000003e8H
  001c7	85 f6		 test	 esi, esi
  001c9	0f 84 6d 01 00
	00		 je	 $LN8@SubItemLoo
  001cf	90		 npad	 1
$LL11@SubItemLoo:
  001d0	8b c7		 mov	 eax, edi
  001d2	4f		 dec	 edi
  001d3	85 c0		 test	 eax, eax
  001d5	0f 84 58 01 00
	00		 je	 $LN86@SubItemLoo

; 245  : 	{
; 246  : 		if( pObj->GetType() == OT_ITEM )

  001db	83 be 70 01 00
	00 04		 cmp	 DWORD PTR [esi+368], 4
  001e2	0f 85 3d 01 00
	00		 jne	 $LN19@SubItemLoo
; File C:\IAGOS\server\v18\Source\Source\_Common\Item.h

; 987  : 	ItemProp* GetProp() { return prj.GetItemProp( GetIndex() ); }

  001e8	8b 8e 74 01 00
	00		 mov	 ecx, DWORD PTR [esi+372]
; File C:\IAGOS\server\v18\Source\Source\_Common\Project.h

; 1389 : 	VERIFY_RANGE_ASSERT( nIndex, 0, m_aPropItem.GetSize(), "GetItemProp range_error", NULL );

  001ee	85 c9		 test	 ecx, ecx
  001f0	0f 88 13 01 00
	00		 js	 $LN30@SubItemLoo
  001f6	3b ca		 cmp	 ecx, edx
  001f8	0f 8d 0b 01 00
	00		 jge	 $LN30@SubItemLoo
; File C:\IAGOS\server\v18\Source\Source\_Common\data.h

; 270  : 	if( dwIndex >= (DWORD)m_nMaxIndex )

  001fe	72 04		 jb	 SHORT $LN35@SubItemLoo

; 271  : 		return NULL;

  00200	33 c0		 xor	 eax, eax
  00202	eb 08		 jmp	 SHORT $LN34@SubItemLoo
$LN35@SubItemLoo:

; 272  : 	return (T*) m_apOffset[ dwIndex ];

  00204	a1 30 02 00 00	 mov	 eax, DWORD PTR ?prj@@3VCProject@@A+560
  00209	8b 04 88	 mov	 eax, DWORD PTR [eax+ecx*4]
$LN34@SubItemLoo:
; File C:\IAGOS\server\v18\Source\Source\_aiinterface\aimonster.cpp

; 252  : 				&& pItemProp->dwID != II_SYS_SYS_SCR_BXPIG_TWN

  0020c	85 c0		 test	 eax, eax
  0020e	0f 84 11 01 00
	00		 je	 $LN19@SubItemLoo
  00214	83 78 78 2b	 cmp	 DWORD PTR [eax+120], 43	; 0000002bH
  00218	0f 84 07 01 00
	00		 je	 $LN19@SubItemLoo
  0021e	83 78 70 00	 cmp	 DWORD PTR [eax+112], 0
  00222	0f 84 fd 00 00
	00		 je	 $LN19@SubItemLoo
  00228	8b 00		 mov	 eax, DWORD PTR [eax]
  0022a	3d 29 67 00 00	 cmp	 eax, 26409		; 00006729H
  0022f	0f 84 f0 00 00
	00		 je	 $LN19@SubItemLoo
  00235	3d 2c 67 00 00	 cmp	 eax, 26412		; 0000672cH
  0023a	0f 84 e5 00 00
	00		 je	 $LN19@SubItemLoo
; File C:\IAGOS\server\v18\Source\Source\_Common\Obj.h

; 215  : 	D3DXVECTOR3		GetPos()	{ return m_vPos; }

  00240	8b 5d c8	 mov	 ebx, DWORD PTR _pMover$1$[ebp]
  00243	f3 0f 7e 83 60
	01 00 00	 movq	 xmm0, QWORD PTR [ebx+352]
  0024b	8b 83 68 01 00
	00		 mov	 eax, DWORD PTR [ebx+360]
  00251	66 0f d6 45 f0	 movq	 QWORD PTR $T2[ebp], xmm0
  00256	f3 0f 7e 86 60
	01 00 00	 movq	 xmm0, QWORD PTR [esi+352]
  0025e	66 0f d6 45 9c	 movq	 QWORD PTR $T1[ebp], xmm0
; File C:\IAGOS\server\v18\Source\Source\DX_SDK\d3dx9math.inl

; 383  :     return D3DXVECTOR3(x - v.x, y - v.y, z - v.z);

  00263	f3 0f 10 4d 9c	 movss	 xmm1, DWORD PTR $T1[ebp]
  00268	f3 0f 10 55 a0	 movss	 xmm2, DWORD PTR $T1[ebp+4]
  0026d	f3 0f 5c 55 f4	 subss	 xmm2, DWORD PTR $T2[ebp+4]
  00272	f3 0f 5c 4d f0	 subss	 xmm1, DWORD PTR $T2[ebp]
; File C:\IAGOS\server\v18\Source\Source\_Common\Obj.h

; 215  : 	D3DXVECTOR3		GetPos()	{ return m_vPos; }

  00277	89 45 f8	 mov	 DWORD PTR $T2[ebp+8], eax
  0027a	8b 86 68 01 00
	00		 mov	 eax, DWORD PTR [esi+360]
  00280	89 45 a4	 mov	 DWORD PTR $T1[ebp+8], eax
; File C:\IAGOS\server\v18\Source\Source\DX_SDK\d3dx9math.inl

; 383  :     return D3DXVECTOR3(x - v.x, y - v.y, z - v.z);

  00283	f3 0f 10 45 a4	 movss	 xmm0, DWORD PTR $T1[ebp+8]
  00288	f3 0f 5c 45 f8	 subss	 xmm0, DWORD PTR $T2[ebp+8]
; File C:\IAGOS\server\v18\Source\Source\_aiinterface\aimonster.cpp

; 256  : 				vDist = pObj->GetPos() - pMover->GetPos();

  0028d	f3 0f 59 d2	 mulss	 xmm2, xmm2
; File C:\IAGOS\server\v18\Source\Source\DX_SDK\d3dx9math.inl

; 1698 :     return pV->x * pV->x + pV->y * pV->y + pV->z * pV->z;

  00291	f3 0f 59 c9	 mulss	 xmm1, xmm1
  00295	f3 0f 59 c0	 mulss	 xmm0, xmm0
  00299	f3 0f 58 d1	 addss	 xmm2, xmm1
  0029d	f3 0f 58 d0	 addss	 xmm2, xmm0
; File C:\IAGOS\server\v18\Source\Source\_aiinterface\aimonster.cpp

; 258  : 				if( fDistSq < 10.0f * 10.0f )					// 10ЙЬХЭ РЬГЛАэ... random

  002a1	f3 0f 10 05 00
	00 00 00	 movss	 xmm0, DWORD PTR __real@42c80000
  002a9	0f 2f c2	 comiss	 xmm0, xmm2
  002ac	0f 86 73 00 00
	00		 jbe	 $LN19@SubItemLoo
$NEXT$106:
; File C:\IAGOS\server\v18\Source\Source\_Common\Obj.h

; 215  : 	D3DXVECTOR3		GetPos()	{ return m_vPos; }

  002b2	f3 0f 7e 86 60
	01 00 00	 movq	 xmm0, QWORD PTR [esi+352]
; File C:\IAGOS\server\v18\Source\Source\_aiinterface\aimonster.cpp

; 271  : 		MoveToDst( pMinObj->GetPos() );		// ИёЧЅТЪРИЗЮ РЬЕП.

  002ba	8b 7d b4	 mov	 edi, DWORD PTR _this$GSCopy$1$[ebp]
  002bd	8b cf		 mov	 ecx, edi
; File C:\IAGOS\server\v18\Source\Source\_Common\Obj.h

; 215  : 	D3DXVECTOR3		GetPos()	{ return m_vPos; }

  002bf	89 45 f8	 mov	 DWORD PTR $T3[ebp+8], eax
; File C:\IAGOS\server\v18\Source\Source\_aiinterface\aimonster.cpp

; 271  : 		MoveToDst( pMinObj->GetPos() );		// ИёЧЅТЪРИЗЮ РЬЕП.

  002c2	8d 45 f0	 lea	 eax, DWORD PTR $T3[ebp]
  002c5	50		 push	 eax
; File C:\IAGOS\server\v18\Source\Source\_Common\Obj.h

; 215  : 	D3DXVECTOR3		GetPos()	{ return m_vPos; }

  002c6	66 0f d6 45 f0	 movq	 QWORD PTR $T3[ebp], xmm0
; File C:\IAGOS\server\v18\Source\Source\_aiinterface\aimonster.cpp

; 271  : 		MoveToDst( pMinObj->GetPos() );		// ИёЧЅТЪРИЗЮ РЬЕП.

  002cb	e8 00 00 00 00	 call	 ?MoveToDst@CAIMonster@@IAEXABUD3DXVECTOR3@@@Z ; CAIMonster::MoveToDst

; 272  : 		m_idLootItem = ((CItem *)pMinObj)->GetId();

  002d0	8b 86 bc 01 00
	00		 mov	 eax, DWORD PTR [esi+444]

; 273  : 		m_bLootMove = TRUE;
; 274  : 		g_UserMng.AddDlgEmoticon( pMover, DLGEMOT_LOOT );

  002d6	b9 00 00 00 00	 mov	 ecx, OFFSET ?g_UserMng@@3VCUserMng@@A ; g_UserMng
  002db	6a 05		 push	 5
  002dd	53		 push	 ebx
  002de	89 87 ec 00 00
	00		 mov	 DWORD PTR [edi+236], eax
  002e4	c7 87 d4 00 00
	00 01 00 00 00	 mov	 DWORD PTR [edi+212], 1
  002ee	e8 00 00 00 00	 call	 ?AddDlgEmoticon@CUserMng@@QAEXPAVCCtrl@@H@Z ; CUserMng::AddDlgEmoticon
$LN83@SubItemLoo:

; 275  : 	}
; 276  : 
; 277  : 	return TRUE;
; 278  : }

  002f3	8b 4d fc	 mov	 ecx, DWORD PTR __$ArrayPad$[ebp]
  002f6	b8 01 00 00 00	 mov	 eax, 1
  002fb	5f		 pop	 edi
  002fc	5e		 pop	 esi
  002fd	33 cd		 xor	 ecx, ebp
  002ff	5b		 pop	 ebx
  00300	e8 00 00 00 00	 call	 @__security_check_cookie@4
  00305	8b e5		 mov	 esp, ebp
  00307	5d		 pop	 ebp
  00308	c3		 ret	 0
$LN30@SubItemLoo:
; File C:\IAGOS\server\v18\Source\Source\_Common\Project.h

; 579  : 	LPCTSTR szErr = Error( _T( "%s min:%d, max:%d, index:%d" ), szMsg, nMin, nMax, nIndex ); 

  00309	51		 push	 ecx
  0030a	52		 push	 edx
  0030b	6a 00		 push	 0
  0030d	68 00 00 00 00	 push	 OFFSET ??_C@_0BI@BEIFNGEL@GetItemProp?5range_error@
  00312	68 00 00 00 00	 push	 OFFSET ??_C@_0BM@HMFGHCP@?$CFs?5min?3?$CFd?0?5max?3?$CFd?0?5index?3?$CFd@
  00317	e8 00 00 00 00	 call	 ?Error@@YAPBDPBDZZ	; Error
  0031c	8b 15 40 02 00
	00		 mov	 edx, DWORD PTR ?prj@@3VCProject@@A+576
  00322	83 c4 14	 add	 esp, 20			; 00000014H
$LN19@SubItemLoo:
; File C:\IAGOS\server\v18\Source\Source\_aiinterface\aimonster.cpp

; 266  : 	END_LINKMAP

  00325	8b b6 80 01 00
	00		 mov	 esi, DWORD PTR [esi+384]
  0032b	85 f6		 test	 esi, esi
  0032d	0f 85 9d fe ff
	ff		 jne	 $LL11@SubItemLoo
$LN86@SubItemLoo:

; 244  : 	FOR_LINKMAP( pWorld, vPos, pObj, nRange, CObj::linkDynamic, pMover->GetLayer() )

  00333	8b 45 e8	 mov	 eax, DWORD PTR tv905[ebp]
  00336	8b 5d ec	 mov	 ebx, DWORD PTR tv885[ebp]
  00339	8b 4d dc	 mov	 ecx, DWORD PTR __k$1$[ebp]
$LN8@SubItemLoo:
  0033c	41		 inc	 ecx
  0033d	83 c3 04	 add	 ebx, 4
  00340	89 4d dc	 mov	 DWORD PTR __k$1$[ebp], ecx
  00343	89 5d ec	 mov	 DWORD PTR tv885[ebp], ebx
  00346	3b c8		 cmp	 ecx, eax
  00348	0f 8e 72 fe ff
	ff		 jle	 $LL10@SubItemLoo
  0034e	8b 5d e8	 mov	 ebx, DWORD PTR tv905[ebp]
  00351	8b 45 d0	 mov	 eax, DWORD PTR tv884[ebp]
  00354	8b 75 d4	 mov	 esi, DWORD PTR __j$1$[ebp]
  00357	8b 7d d8	 mov	 edi, DWORD PTR __nMaxWidth$1$[ebp]
$LN5@SubItemLoo:
  0035a	46		 inc	 esi
  0035b	03 c7		 add	 eax, edi
  0035d	89 75 d4	 mov	 DWORD PTR __j$1$[ebp], esi
  00360	89 45 d0	 mov	 DWORD PTR tv884[ebp], eax
  00363	3b 75 e0	 cmp	 esi, DWORD PTR tv906[ebp]
  00366	0f 8e 34 fe ff
	ff		 jle	 $LL7@SubItemLoo
$LN2@SubItemLoo:
  0036c	8b 5d c8	 mov	 ebx, DWORD PTR _pMover$1$[ebp]
  0036f	8b 7d cc	 mov	 edi, DWORD PTR __i$1$[ebp]
  00372	8b 75 e4	 mov	 esi, DWORD PTR _pWorld$1$[ebp]
  00375	47		 inc	 edi
  00376	83 c6 24	 add	 esi, 36			; 00000024H
  00379	89 7d cc	 mov	 DWORD PTR __i$1$[ebp], edi
  0037c	ff b3 b8 01 00
	00		 push	 DWORD PTR [ebx+440]
  00382	8b ce		 mov	 ecx, esi
  00384	6a 01		 push	 1
  00386	e8 00 00 00 00	 call	 ?GetMaxLinkLevel@CLayeredLinkMap@@QAEHKH@Z ; CLayeredLinkMap::GetMaxLinkLevel
  0038b	3b f8		 cmp	 edi, eax
  0038d	0f 8c 1d fd ff
	ff		 jl	 $LL4@SubItemLoo
  00393	e9 5b ff ff ff	 jmp	 $LN83@SubItemLoo
?SubItemLoot@CAIMonster@@IAEHXZ ENDP			; CAIMonster::SubItemLoot
_TEXT	ENDS
; Function compile flags: /Ogtp
; File C:\IAGOS\server\v18\Source\Source\_aiinterface\aimonster.cpp
; File C:\IAGOS\server\v18\Source\Source\_Common\Mover.h
; File C:\IAGOS\server\v18\Source\Source\_aiinterface\aimonster.cpp
; File C:\IAGOS\server\v18\Source\Source\_Common\Project.h
; File C:\IAGOS\server\v18\Source\Source\_aiinterface\aimonster.cpp
; File C:\Program Files\Microsoft Visual Studio\2022\Professional\VC\Tools\MSVC\14.44.35207\include\vector
; File C:\IAGOS\server\v18\Source\Source\_aiinterface\aimonster.cpp
; File C:\IAGOS\server\v18\Source\Source\_Common\Obj.h
; File C:\IAGOS\server\v18\Source\Source\_Common\Mover.h
; File C:\Program Files\Microsoft Visual Studio\2022\Professional\VC\Tools\MSVC\14.44.35207\include\xutility
; File C:\Program Files\Microsoft Visual Studio\2022\Professional\VC\Tools\MSVC\14.44.35207\include\vector
; File C:\IAGOS\server\v18\Source\Source\_aiinterface\aimonster.cpp
; File C:\Program Files\Microsoft Visual Studio\2022\Professional\VC\Tools\MSVC\14.44.35207\include\vector
; File C:\IAGOS\server\v18\Source\Source\_aiinterface\aimonster.cpp
; File C:\IAGOS\server\v18\Source\Source\_Common\xUtil.h
; File C:\IAGOS\server\v18\Source\Source\_aiinterface\aimonster.cpp
; File C:\Program Files\Microsoft Visual Studio\2022\Professional\VC\Tools\MSVC\14.44.35207\include\vector
; File C:\IAGOS\server\v18\Source\Source\_aiinterface\aimonster.cpp
; File C:\IAGOS\server\v18\Source\Source\DX_SDK\d3dx9math.inl
; File C:\IAGOS\server\v18\Source\Source\_aiinterface\aimonster.cpp
; File C:\Program Files\Microsoft Visual Studio\2022\Professional\VC\Tools\MSVC\14.44.35207\include\vector
; File C:\IAGOS\server\v18\Source\Source\_aiinterface\aimonster.cpp
; File C:\Program Files\Microsoft Visual Studio\2022\Professional\VC\Tools\MSVC\14.44.35207\include\vector
; File C:\IAGOS\server\v18\Source\Source\_aiinterface\aimonster.cpp
; File C:\Program Files\Microsoft Visual Studio\2022\Professional\VC\Tools\MSVC\14.44.35207\include\vector
; File C:\IAGOS\server\v18\Source\Source\_aiinterface\aimonster.cpp
; File C:\Program Files\Microsoft Visual Studio\2022\Professional\VC\Tools\MSVC\14.44.35207\include\vector
; File C:\IAGOS\server\v18\Source\Source\_aiinterface\aimonster.cpp
; File C:\IAGOS\server\v18\Source\Source\_Common\Project.h
; File C:\IAGOS\server\v18\Source\Source\_aiinterface\aimonster.cpp
; File C:\IAGOS\server\v18\Source\Source\_Common\Project.h
; File C:\IAGOS\server\v18\Source\Source\_aiinterface\aimonster.cpp
;	COMDAT ?SubSummonProcess@CAIMonster@@IAEXPAVCMover@@@Z
_TEXT	SEGMENT
_pObj$1$ = -36						; size = 4
tv407 = -32						; size = 4
_pMover$1$ = -28					; size = 4
$T1 = -24						; size = 4
_pWorld$1$ = -24					; size = 4
tv336 = -20						; size = 4
tv790 = -20						; size = 4
_vPos$2 = -16						; size = 12
__$ArrayPad$ = -4					; size = 4
_pTarget$ = 8						; size = 4
?SubSummonProcess@CAIMonster@@IAEXPAVCMover@@@Z PROC	; CAIMonster::SubSummonProcess, COMDAT
; _this$ = ecx

; 1452 : {

  00000	55		 push	 ebp
  00001	8b ec		 mov	 ebp, esp
  00003	83 ec 24	 sub	 esp, 36			; 00000024H
  00006	a1 00 00 00 00	 mov	 eax, DWORD PTR ___security_cookie
  0000b	33 c5		 xor	 eax, ebp
  0000d	89 45 fc	 mov	 DWORD PTR __$ArrayPad$[ebp], eax
  00010	57		 push	 edi
  00011	8b f9		 mov	 edi, ecx

; 1453 : 	if( TIMEGETTIME - m_tmSummon < SEC(10) )		// 20УЪИЖДй ЧбЙјОП МвШЏРЛ НУЕЕ.

  00013	8b 0d 00 00 00
	00		 mov	 ecx, DWORD PTR ?g_tmCurrent@@3KA ; g_tmCurrent
  00019	8b c1		 mov	 eax, ecx
  0001b	2b 47 44	 sub	 eax, DWORD PTR [edi+68]
  0001e	3d 10 27 00 00	 cmp	 eax, 10000		; 00002710H
  00023	0f 82 2e 01 00
	00		 jb	 $LN10@SubSummonP

; 1454 : 		return;
; 1455 : 
; 1456 : 	m_tmSummon = TIMEGETTIME;
; 1457 : 
; 1458 : 	CMover* pMover = GetMover();

  00029	8b 47 30	 mov	 eax, DWORD PTR [edi+48]
  0002c	89 4f 44	 mov	 DWORD PTR [edi+68], ecx
  0002f	89 45 e4	 mov	 DWORD PTR _pMover$1$[ebp], eax

; 1459 : 	CWorld* pWorld = GetWorld();

  00032	8b 88 6c 01 00
	00		 mov	 ecx, DWORD PTR [eax+364]
; File C:\IAGOS\server\v18\Source\Source\_Common\Mover.h

; 1020 : 	MoverProp*		GetProp() { return prj.GetMoverProp( m_dwIndex ); }	// АДУМРЧ ЧСЗЮЦлЦМ ОђБт 	

  00038	8b 80 74 01 00
	00		 mov	 eax, DWORD PTR [eax+372]
; File C:\IAGOS\server\v18\Source\Source\_aiinterface\aimonster.cpp

; 1459 : 	CWorld* pWorld = GetWorld();

  0003e	89 4d e8	 mov	 DWORD PTR _pWorld$1$[ebp], ecx
; File C:\IAGOS\server\v18\Source\Source\_Common\Project.h

; 1406 : 	VERIFY_RANGE( nIndex, 0, m_nMoverPropSize, "GetMoverProp range_error", NULL );

  00041	8b 0d b4 01 00
	00		 mov	 ecx, DWORD PTR ?prj@@3VCProject@@A+436
  00047	85 c0		 test	 eax, eax
  00049	0f 88 48 02 00
	00		 js	 $LN46@SubSummonP
  0004f	3b c1		 cmp	 eax, ecx
  00051	0f 8d 40 02 00
	00		 jge	 $LN46@SubSummonP
  00057	53		 push	 ebx

; 1407 : 	return m_pPropMover + nIndex;

  00058	69 d8 90 06 00
	00		 imul	 ebx, eax, 1680
  0005e	03 1d b8 01 00
	00		 add	 ebx, DWORD PTR ?prj@@3VCProject@@A+440
; File C:\IAGOS\server\v18\Source\Source\_aiinterface\aimonster.cpp

; 1462 : 	if( pProp && pProp->m_nSummProb )	// АЊРЬ РжРИИщ МвШЏ AIАЁ РжДй.

  00064	0f 84 ec 00 00
	00		 je	 $LN124@SubSummonP
  0006a	83 bb 20 02 00
	00 00		 cmp	 DWORD PTR [ebx+544], 0
  00071	0f 84 df 00 00
	00		 je	 $LN124@SubSummonP
  00077	56		 push	 esi
; File C:\Program Files\Microsoft Visual Studio\2022\Professional\VC\Tools\MSVC\14.44.35207\include\vector

; 46   :     _CONSTEXPR20 _Vector_const_iterator(_Tptr _Parg, const _Container_base* _Pvector) noexcept : _Ptr(_Parg) {

  00078	8b b7 e0 00 00
	00		 mov	 esi, DWORD PTR [edi+224]

; 176  :         return !(*this == _Right);

  0007e	3b b7 e4 00 00
	00		 cmp	 esi, DWORD PTR [edi+228]
; File C:\IAGOS\server\v18\Source\Source\_aiinterface\aimonster.cpp

; 1464 : 		for( vector<OBJID>::iterator it = m_vecIdSummon.begin(); it!=m_vecIdSummon.end(); )

  00084	74 5d		 je	 SHORT $LN3@SubSummonP
$LL4@SubSummonP:

; 1465 : 		{
; 1466 : 			CMover *pZako = prj.GetMover( (*it) );

  00086	ff 36		 push	 DWORD PTR [esi]
  00088	b9 00 00 00 00	 mov	 ecx, OFFSET ?prj@@3VCProject@@A ; prj
  0008d	89 5d ec	 mov	 DWORD PTR tv790[ebp], ebx
  00090	e8 00 00 00 00	 call	 ?GetMover@CProject@@QAEPAVCMover@@K@Z ; CProject::GetMover
; File C:\IAGOS\server\v18\Source\Source\_Common\Obj.h

; 327  : 	return pObj && ( pObj->IsDelete() == FALSE ); 

  00095	85 c0		 test	 eax, eax
  00097	74 28		 je	 SHORT $LN7@SubSummonP

; 180  : 	BOOL			IsDelete()	{ return (m_dwFlags & OBJ_FLAG_DELETE);  }

  00099	f6 40 04 01	 test	 BYTE PTR [eax+4], 1

; 327  : 	return pObj && ( pObj->IsDelete() == FALSE ); 

  0009d	75 22		 jne	 SHORT $LN7@SubSummonP
; File C:\IAGOS\server\v18\Source\Source\_Common\Mover.h

; 1251 : 	BOOL			IsLive() { return m_pActMover->IsDie() == FALSE || m_nHitPoint > 0; }		// && ИІ  ||ЗЮ ЙйВхРН.  !=ИІ >ЗЮ ЙйВо

  0009f	8b 88 38 02 00
	00		 mov	 ecx, DWORD PTR [eax+568]
  000a5	8b d3		 mov	 edx, ebx
  000a7	f7 41 04 00 00
	00 08		 test	 DWORD PTR [ecx+4], 134217728 ; 08000000H
  000ae	0f 84 b4 00 00
	00		 je	 $LN108@SubSummonP
  000b4	83 b8 f8 05 00
	00 00		 cmp	 DWORD PTR [eax+1528], 0
  000bb	0f 8f a7 00 00
	00		 jg	 $LN108@SubSummonP
$LN7@SubSummonP:
; File C:\Program Files\Microsoft Visual Studio\2022\Professional\VC\Tools\MSVC\14.44.35207\include\xutility

; 5147 :                 return _STD _Copy_memmove(_First, _Last, _Dest);

  000c1	56		 push	 esi
  000c2	ff b7 e4 00 00
	00		 push	 DWORD PTR [edi+228]
  000c8	8d 46 04	 lea	 eax, DWORD PTR [esi+4]
  000cb	50		 push	 eax
  000cc	e8 00 00 00 00	 call	 ??$_Copy_memmove@PAKPAK@std@@YAPAKPAK00@Z ; std::_Copy_memmove<unsigned long *,unsigned long *>
  000d1	83 c4 0c	 add	 esp, 12			; 0000000cH
; File C:\Program Files\Microsoft Visual Studio\2022\Professional\VC\Tools\MSVC\14.44.35207\include\vector

; 1778 :         --_Mylast;

  000d4	83 87 e4 00 00
	00 fc		 add	 DWORD PTR [edi+228], -4	; fffffffcH
$LN2@SubSummonP:

; 176  :         return !(*this == _Right);

  000db	3b b7 e4 00 00
	00		 cmp	 esi, DWORD PTR [edi+228]
; File C:\IAGOS\server\v18\Source\Source\_aiinterface\aimonster.cpp

; 1464 : 		for( vector<OBJID>::iterator it = m_vecIdSummon.begin(); it!=m_vecIdSummon.end(); )

  000e1	75 a3		 jne	 SHORT $LL4@SubSummonP
$LN3@SubSummonP:
; File C:\Program Files\Microsoft Visual Studio\2022\Professional\VC\Tools\MSVC\14.44.35207\include\vector

; 1915 :         return static_cast<size_type>(_My_data._Mylast - _My_data._Myfirst);

  000e3	8b 87 e4 00 00
	00		 mov	 eax, DWORD PTR [edi+228]
  000e9	2b 87 e0 00 00
	00		 sub	 eax, DWORD PTR [edi+224]
  000ef	c1 f8 02	 sar	 eax, 2
; File C:\IAGOS\server\v18\Source\Source\_aiinterface\aimonster.cpp

; 1473 : 		if( pProp->m_nSummNum > (int)( m_vecIdSummon.size() ) )

  000f2	39 83 24 02 00
	00		 cmp	 DWORD PTR [ebx+548], eax
  000f8	7e 5b		 jle	 SHORT $LN125@SubSummonP
; File C:\IAGOS\server\v18\Source\Source\_Common\xUtil.h

; 16   : 	g_next = g_next * 1103515245 + 12345;// + nRandomSeed[ i++ ];

  000fa	69 0d 00 00 00
	00 6d 4e c6 41	 imul	 ecx, DWORD PTR ?g_next@@3KA, 1103515245 ; g_next

; 22   : 	return  xRand() % num;

  00104	b8 1f 85 eb 51	 mov	 eax, 1374389535		; 51eb851fH

; 16   : 	g_next = g_next * 1103515245 + 12345;// + nRandomSeed[ i++ ];

  00109	81 c1 39 30 00
	00		 add	 ecx, 12345		; 00003039H

; 22   : 	return  xRand() % num;

  0010f	f7 e1		 mul	 ecx

; 16   : 	g_next = g_next * 1103515245 + 12345;// + nRandomSeed[ i++ ];

  00111	89 0d 00 00 00
	00		 mov	 DWORD PTR ?g_next@@3KA, ecx ; g_next

; 22   : 	return  xRand() % num;

  00117	c1 ea 05	 shr	 edx, 5
  0011a	6b c2 64	 imul	 eax, edx, 100
  0011d	2b c8		 sub	 ecx, eax
; File C:\IAGOS\server\v18\Source\Source\_aiinterface\aimonster.cpp

; 1475 : 			if( (int)( xRandom(100) ) < pProp->m_nSummProb )	// МвШЏ НУЕЕ.

  0011f	3b 8b 20 02 00
	00		 cmp	 ecx, DWORD PTR [ebx+544]
  00125	7d 2e		 jge	 SHORT $LN125@SubSummonP

; 1476 : 			{
; 1477 : 				D3DXVECTOR3 vLocal, vPos;
; 1478 : 				CObj* pObj	= CreateObj( D3DDEVICE, OT_MOVER, (DWORD)pProp->m_nSummID );

  00127	6a 01		 push	 1
  00129	ff b3 28 02 00
	00		 push	 DWORD PTR [ebx+552]
  0012f	6a 05		 push	 5
  00131	6a 00		 push	 0
  00133	e8 00 00 00 00	 call	 ?CreateObj@@YAPAVCObj@@PAUIDirect3DDevice9@@KKH@Z ; CreateObj
  00138	83 c4 10	 add	 esp, 16			; 00000010H
  0013b	89 45 dc	 mov	 DWORD PTR _pObj$1$[ebp], eax

; 1479 : 				if( NULL == pObj )	

  0013e	85 c0		 test	 eax, eax
  00140	75 2e		 jne	 SHORT $LN11@SubSummonP

; 1480 : 				{
; 1481 : 					Error( "SubSummonProcess : МвШЏ НЧЦа %d", pProp->m_nSummID );

  00142	ff b3 28 02 00
	00		 push	 DWORD PTR [ebx+552]
  00148	68 00 00 00 00	 push	 OFFSET ??_C@_0CA@NDHMDKEO@SubSummonProcess?5?3?5?$LM?R?H?$KP?5?$LN?G?F?P?5?$CFd@
  0014d	e8 00 00 00 00	 call	 ?Error@@YAPBDPBDZZ	; Error
  00152	83 c4 08	 add	 esp, 8
$LN125@SubSummonP:
  00155	5e		 pop	 esi
$LN124@SubSummonP:
  00156	5b		 pop	 ebx
$LN10@SubSummonP:
  00157	5f		 pop	 edi

; 1500 : }

  00158	8b 4d fc	 mov	 ecx, DWORD PTR __$ArrayPad$[ebp]
  0015b	33 cd		 xor	 ecx, ebp
  0015d	e8 00 00 00 00	 call	 @__security_check_cookie@4
  00162	8b e5		 mov	 esp, ebp
  00164	5d		 pop	 ebp
  00165	c2 04 00	 ret	 4
$LN108@SubSummonP:
; File C:\Program Files\Microsoft Visual Studio\2022\Professional\VC\Tools\MSVC\14.44.35207\include\vector

; 82   :         ++_Ptr;

  00168	83 c6 04	 add	 esi, 4
; File C:\IAGOS\server\v18\Source\Source\_aiinterface\aimonster.cpp

; 1468 : 				it++;

  0016b	e9 6b ff ff ff	 jmp	 $LN2@SubSummonP
$LN11@SubSummonP:

; 1482 : 					return;
; 1483 : 				}
; 1484 : 				vLocal.x = 1.5f - xRandomF( 3.0f );		// КИНК СжРЇПЁ ЗЃД§РИЗЮ Л§МК.

  00170	51		 push	 ecx
  00171	c7 04 24 00 00
	40 40		 mov	 DWORD PTR [esp], 1077936128 ; 40400000H
  00178	e8 00 00 00 00	 call	 ?xRandomF@@YAMM@Z	; xRandomF
  0017d	d8 2d 00 00 00
	00		 fsubr	 DWORD PTR __real@3fc00000

; 1485 : 				vLocal.y = 0;
; 1486 : 				vLocal.z = 1.5f - xRandomF( 3.0f );

  00183	c7 04 24 00 00
	40 40		 mov	 DWORD PTR [esp], 1077936128 ; 40400000H
  0018a	d9 5d ec	 fstp	 DWORD PTR tv336[ebp]
  0018d	e8 00 00 00 00	 call	 ?xRandomF@@YAMM@Z	; xRandomF

; 1487 : 				vPos = pMover->GetPos();

  00192	8b 75 e4	 mov	 esi, DWORD PTR _pMover$1$[ebp]
  00195	83 c4 04	 add	 esp, 4
  00198	d8 2d 00 00 00
	00		 fsubr	 DWORD PTR __real@3fc00000

; 1489 : 				pObj->SetPos( vPos );

  0019e	8b 5d dc	 mov	 ebx, DWORD PTR _pObj$1$[ebp]
  001a1	8b cb		 mov	 ecx, ebx
  001a3	8b 86 68 01 00
	00		 mov	 eax, DWORD PTR [esi+360]
  001a9	f3 0f 7e 86 60
	01 00 00	 movq	 xmm0, QWORD PTR [esi+352]
  001b1	66 0f d6 45 f0	 movq	 QWORD PTR _vPos$2[ebp], xmm0
  001b6	f3 0f 10 45 ec	 movss	 xmm0, DWORD PTR tv336[ebp]
  001bb	f3 0f 58 45 f0	 addss	 xmm0, DWORD PTR _vPos$2[ebp]
  001c0	d9 5d e0	 fstp	 DWORD PTR tv407[ebp]
  001c3	89 45 f8	 mov	 DWORD PTR _vPos$2[ebp+8], eax
  001c6	8d 45 f0	 lea	 eax, DWORD PTR _vPos$2[ebp]
  001c9	50		 push	 eax
; File C:\IAGOS\server\v18\Source\Source\DX_SDK\d3dx9math.inl

; 324  :     x += v.x;

  001ca	f3 0f 11 45 f0	 movss	 DWORD PTR _vPos$2[ebp], xmm0
  001cf	f3 0f 10 45 f4	 movss	 xmm0, DWORD PTR _vPos$2[ebp+4]
  001d4	f3 0f 58 05 00
	00 00 00	 addss	 xmm0, DWORD PTR __real@00000000

; 325  :     y += v.y;

  001dc	f3 0f 11 45 f4	 movss	 DWORD PTR _vPos$2[ebp+4], xmm0
  001e1	f3 0f 10 45 e0	 movss	 xmm0, DWORD PTR tv407[ebp]
  001e6	f3 0f 58 45 f8	 addss	 xmm0, DWORD PTR _vPos$2[ebp+8]

; 326  :     z += v.z;

  001eb	f3 0f 11 45 f8	 movss	 DWORD PTR _vPos$2[ebp+8], xmm0
; File C:\IAGOS\server\v18\Source\Source\_aiinterface\aimonster.cpp

; 1489 : 				pObj->SetPos( vPos );

  001f0	e8 00 00 00 00	 call	 ?SetPos@CObj@@QAEXABUD3DXVECTOR3@@@Z ; CObj::SetPos

; 1490 : 				pObj->InitMotion( MTI_STAND );

  001f5	8b 03		 mov	 eax, DWORD PTR [ebx]
  001f7	8b cb		 mov	 ecx, ebx
  001f9	6a 00		 push	 0
  001fb	ff 50 08	 call	 DWORD PTR [eax+8]

; 1491 : 				pObj->UpdateLocalMatrix();

  001fe	8b cb		 mov	 ecx, ebx
  00200	e8 00 00 00 00	 call	 ?UpdateLocalMatrix@CObj@@QAEXXZ ; CObj::UpdateLocalMatrix

; 1492 : 				((CMover*)pObj)->m_bActiveAttack = TRUE;	// КЮЧЯДТ МБАј ЧќРИЗЮ МвШЏЧЯРк.
; 1493 : 				((CMover*)pObj)->AddItToGlobalId();

  00205	8b 03		 mov	 eax, DWORD PTR [ebx]
  00207	8b cb		 mov	 ecx, ebx
  00209	c7 83 68 06 00
	00 01 00 00 00	 mov	 DWORD PTR [ebx+1640], 1
  00213	ff 50 3c	 call	 DWORD PTR [eax+60]

; 1494 : 				pWorld->ADDOBJ( pObj, FALSE, pMover->GetLayer() );

  00216	ff b6 b8 01 00
	00		 push	 DWORD PTR [esi+440]
  0021c	8b 4d e8	 mov	 ecx, DWORD PTR _pWorld$1$[ebp]
  0021f	6a 00		 push	 0
  00221	53		 push	 ebx
  00222	e8 00 00 00 00	 call	 ?AddObj@CWorld@@QAEHPAVCObj@@HH@Z ; CWorld::AddObj
; File C:\Program Files\Microsoft Visual Studio\2022\Professional\VC\Tools\MSVC\14.44.35207\include\vector

; 844  :         if (_Mylast != _My_data._Myend) {

  00227	8b 87 e4 00 00
	00		 mov	 eax, DWORD PTR [edi+228]
; File C:\IAGOS\server\v18\Source\Source\_aiinterface\aimonster.cpp

; 1495 : 				m_vecIdSummon.push_back( ((CMover *)pObj)->GetId() );

  0022d	8b 8b bc 01 00
	00		 mov	 ecx, DWORD PTR [ebx+444]
  00233	89 4d e8	 mov	 DWORD PTR $T1[ebp], ecx
; File C:\Program Files\Microsoft Visual Studio\2022\Professional\VC\Tools\MSVC\14.44.35207\include\vector

; 844  :         if (_Mylast != _My_data._Myend) {

  00236	3b 87 e8 00 00
	00		 cmp	 eax, DWORD PTR [edi+232]
  0023c	74 29		 je	 SHORT $LN98@SubSummonP

; 860  :             _STD _Construct_in_place(*_Mylast, _STD forward<_Valty>(_Val)...);

  0023e	89 08		 mov	 DWORD PTR [eax], ecx
; File C:\IAGOS\server\v18\Source\Source\_aiinterface\aimonster.cpp

; 1496 : 				g_UserMng.AddDlgEmoticon( pMover, DLGEMOT_SUMMON );

  00240	b9 00 00 00 00	 mov	 ecx, OFFSET ?g_UserMng@@3VCUserMng@@A ; g_UserMng
; File C:\Program Files\Microsoft Visual Studio\2022\Professional\VC\Tools\MSVC\14.44.35207\include\vector

; 869  :         ++_Mylast;

  00245	83 87 e4 00 00
	00 04		 add	 DWORD PTR [edi+228], 4
; File C:\IAGOS\server\v18\Source\Source\_aiinterface\aimonster.cpp

; 1496 : 				g_UserMng.AddDlgEmoticon( pMover, DLGEMOT_SUMMON );

  0024c	6a 01		 push	 1
  0024e	56		 push	 esi
  0024f	e8 00 00 00 00	 call	 ?AddDlgEmoticon@CUserMng@@QAEXPAVCCtrl@@H@Z ; CUserMng::AddDlgEmoticon
  00254	5e		 pop	 esi
  00255	5b		 pop	 ebx
  00256	5f		 pop	 edi

; 1500 : }

  00257	8b 4d fc	 mov	 ecx, DWORD PTR __$ArrayPad$[ebp]
  0025a	33 cd		 xor	 ecx, ebp
  0025c	e8 00 00 00 00	 call	 @__security_check_cookie@4
  00261	8b e5		 mov	 esp, ebp
  00263	5d		 pop	 ebp
  00264	c2 04 00	 ret	 4
$LN98@SubSummonP:
; File C:\Program Files\Microsoft Visual Studio\2022\Professional\VC\Tools\MSVC\14.44.35207\include\vector

; 848  :         return *_Emplace_reallocate(_Mylast, _STD forward<_Valty>(_Val)...);

  00267	8d 4d e8	 lea	 ecx, DWORD PTR $T1[ebp]
  0026a	51		 push	 ecx
  0026b	50		 push	 eax
  0026c	8d 8f e0 00 00
	00		 lea	 ecx, DWORD PTR [edi+224]
  00272	e8 00 00 00 00	 call	 ??$_Emplace_reallocate@K@?$vector@KV?$allocator@K@std@@@std@@AAEPAKQAK$$QAK@Z ; std::vector<unsigned long,std::allocator<unsigned long> >::_Emplace_reallocate<unsigned long>
; File C:\IAGOS\server\v18\Source\Source\_aiinterface\aimonster.cpp

; 1496 : 				g_UserMng.AddDlgEmoticon( pMover, DLGEMOT_SUMMON );

  00277	6a 01		 push	 1
  00279	56		 push	 esi
  0027a	b9 00 00 00 00	 mov	 ecx, OFFSET ?g_UserMng@@3VCUserMng@@A ; g_UserMng
  0027f	e8 00 00 00 00	 call	 ?AddDlgEmoticon@CUserMng@@QAEXPAVCCtrl@@H@Z ; CUserMng::AddDlgEmoticon
  00284	5e		 pop	 esi
  00285	5b		 pop	 ebx
  00286	5f		 pop	 edi

; 1500 : }

  00287	8b 4d fc	 mov	 ecx, DWORD PTR __$ArrayPad$[ebp]
  0028a	33 cd		 xor	 ecx, ebp
  0028c	e8 00 00 00 00	 call	 @__security_check_cookie@4
  00291	8b e5		 mov	 esp, ebp
  00293	5d		 pop	 ebp
  00294	c2 04 00	 ret	 4
$LN46@SubSummonP:
; File C:\IAGOS\server\v18\Source\Source\_Common\Project.h

; 579  : 	LPCTSTR szErr = Error( _T( "%s min:%d, max:%d, index:%d" ), szMsg, nMin, nMax, nIndex ); 

  00297	50		 push	 eax
  00298	51		 push	 ecx
  00299	6a 00		 push	 0
  0029b	68 00 00 00 00	 push	 OFFSET ??_C@_0BJ@GKPOBPPI@GetMoverProp?5range_error@
  002a0	68 00 00 00 00	 push	 OFFSET ??_C@_0BM@HMFGHCP@?$CFs?5min?3?$CFd?0?5max?3?$CFd?0?5index?3?$CFd@
  002a5	e8 00 00 00 00	 call	 ?Error@@YAPBDPBDZZ	; Error
; File C:\IAGOS\server\v18\Source\Source\_aiinterface\aimonster.cpp

; 1500 : }

  002aa	8b 4d fc	 mov	 ecx, DWORD PTR __$ArrayPad$[ebp]
; File C:\IAGOS\server\v18\Source\Source\_Common\Project.h

; 579  : 	LPCTSTR szErr = Error( _T( "%s min:%d, max:%d, index:%d" ), szMsg, nMin, nMax, nIndex ); 

  002ad	83 c4 14	 add	 esp, 20			; 00000014H
; File C:\IAGOS\server\v18\Source\Source\_aiinterface\aimonster.cpp

; 1500 : }

  002b0	33 cd		 xor	 ecx, ebp
  002b2	5f		 pop	 edi
  002b3	e8 00 00 00 00	 call	 @__security_check_cookie@4
  002b8	8b e5		 mov	 esp, ebp
  002ba	5d		 pop	 ebp
  002bb	c2 04 00	 ret	 4
?SubSummonProcess@CAIMonster@@IAEXPAVCMover@@@Z ENDP	; CAIMonster::SubSummonProcess
_TEXT	ENDS
; Function compile flags: /Ogtp
; File C:\IAGOS\server\v18\Source\Source\_aiinterface\aimonster.cpp
; File C:\IAGOS\server\v18\Source\Source\_AIInterface\Action.h
; File C:\IAGOS\server\v18\Source\Source\_Common\Mover.h
; File C:\IAGOS\server\v18\Source\Source\_aiinterface\aimonster.cpp
; File C:\IAGOS\server\v18\Source\Source\_Common\Obj.h
; File C:\IAGOS\server\v18\Source\Source\_aiinterface\aimonster.cpp
; File C:\IAGOS\server\v18\Source\Source\_Common\Obj.h
; File C:\IAGOS\server\v18\Source\Source\_aiinterface\aimonster.cpp
; File C:\IAGOS\server\v18\Source\Source\_Common\Obj.h
; File C:\IAGOS\server\v18\Source\Source\DX_SDK\d3dx9math.inl
; File C:\IAGOS\server\v18\Source\Source\_Common\Obj.h
; File C:\IAGOS\server\v18\Source\Source\_aiinterface\aimonster.cpp
; File C:\IAGOS\server\v18\Source\Source\DX_SDK\d3dx9math.inl
; File C:\IAGOS\server\v18\Source\Source\_aiinterface\aimonster.cpp
; File C:\IAGOS\server\v18\Source\Source\DX_SDK\d3dx9math.inl
; File C:\IAGOS\server\v18\Source\Source\_aiinterface\aimonster.cpp
; File C:\IAGOS\server\v18\Source\Source\DX_SDK\d3dx9math.inl
; File C:\IAGOS\server\v18\Source\Source\_aiinterface\aimonster.cpp
; File C:\IAGOS\server\v18\Source\Source\_Common\xUtil.h
; File C:\IAGOS\server\v18\Source\Source\_aiinterface\aimonster.cpp
; File C:\IAGOS\server\v18\Source\Source\_Common\xUtil.h
; File C:\IAGOS\server\v18\Source\Source\_aiinterface\aimonster.cpp
; File C:\IAGOS\server\v18\Source\Source\_Common\Obj.h
; File C:\Program Files (x86)\Windows Kits\10\Include\10.0.26100.0\ucrt\corecrt_math.h
; File C:\IAGOS\server\v18\Source\Source\_Common\Obj.h
; File C:\Program Files (x86)\Windows Kits\10\Include\10.0.26100.0\ucrt\corecrt_math.h
; File C:\IAGOS\server\v18\Source\Source\_Common\Obj.h
; File C:\IAGOS\server\v18\Source\Source\DX_SDK\d3dx9math.inl
; File C:\Program Files (x86)\Windows Kits\10\Include\10.0.26100.0\ucrt\corecrt_math.h
; File C:\IAGOS\server\v18\Source\Source\_aiinterface\aimonster.cpp
; File C:\Program Files (x86)\Windows Kits\10\Include\10.0.26100.0\ucrt\corecrt_math.h
; File C:\IAGOS\server\v18\Source\Source\_aiinterface\aimonster.cpp
; File C:\IAGOS\server\v18\Source\Source\DX_SDK\d3dx9math.inl
; File C:\IAGOS\server\v18\Source\Source\_Common\Obj.h
; File C:\IAGOS\server\v18\Source\Source\DX_SDK\d3dx9math.inl
; File C:\IAGOS\server\v18\Source\Source\_aiinterface\aimonster.cpp
;	COMDAT ?MoveProcessRunaway@CAIMonster@@IAEHXZ
_TEXT	SEGMENT
$T1 = -44						; size = 12
tv564 = -40						; size = 8
$T2 = -32						; size = 12
$T3 = -32						; size = 12
_fRange$4 = -20						; size = 4
_dwAIState$1$ = -20					; size = 4
$T5 = -16						; size = 12
_vDst$6 = -16						; size = 12
__$ArrayPad$ = -4					; size = 4
?MoveProcessRunaway@CAIMonster@@IAEHXZ PROC		; CAIMonster::MoveProcessRunaway, COMDAT
; _this$ = ecx

; 2213 : {

  00000	55		 push	 ebp
  00001	8b ec		 mov	 ebp, esp
  00003	83 ec 2c	 sub	 esp, 44			; 0000002cH
  00006	a1 00 00 00 00	 mov	 eax, DWORD PTR ___security_cookie
  0000b	33 c5		 xor	 eax, ebp
  0000d	89 45 fc	 mov	 DWORD PTR __$ArrayPad$[ebp], eax
  00010	56		 push	 esi
  00011	8b f1		 mov	 esi, ecx
  00013	57		 push	 edi

; 2214 : 	CMover* pMover = GetMover();

  00014	8b 7e 30	 mov	 edi, DWORD PTR [esi+48]
; File C:\IAGOS\server\v18\Source\Source\_AIInterface\Action.h

; 310  : 	BOOL			IsDie() { return (m_dwState & OBJSTA_DIE_ALL) ? TRUE : FALSE; }

  00017	8b 87 38 02 00
	00		 mov	 eax, DWORD PTR [edi+568]
  0001d	8b 40 04	 mov	 eax, DWORD PTR [eax+4]
; File C:\IAGOS\server\v18\Source\Source\_Common\Mover.h

; 1250 : 	BOOL			IsDie() { return m_pActMover->IsDie() || m_nHitPoint == 0; }

  00020	a9 00 00 00 08	 test	 eax, 134217728		; 08000000H
  00025	0f 85 5b 02 00
	00		 jne	 $LN3@MoveProces
  0002b	83 bf f8 05 00
	00 00		 cmp	 DWORD PTR [edi+1528], 0
  00032	0f 84 4e 02 00
	00		 je	 $LN3@MoveProces
; File C:\IAGOS\server\v18\Source\Source\_aiinterface\aimonster.cpp

; 2218 : 	if( pMover->IsDie() || (pMover->m_pActMover->GetState() & OBJSTA_DMG_FLY_ALL))

  00038	a9 00 00 00 02	 test	 eax, 33554432		; 02000000H
  0003d	0f 85 43 02 00
	00		 jne	 $LN3@MoveProces

; 2219 : 		return FALSE;
; 2220 : 
; 2221 : 	DWORD dwAIState = pMover->m_dwAIInterfaceState;

  00043	8b 87 90 01 00
	00		 mov	 eax, DWORD PTR [edi+400]

; 2222 : 
; 2223 : 	CCtrl* pTarget = prj.GetCtrl( m_dwIdTarget ); // ИёЧЅИІ РчМГСЄЧиСиДй.

  00049	b9 00 00 00 00	 mov	 ecx, OFFSET ?prj@@3VCProject@@A ; prj
  0004e	53		 push	 ebx
  0004f	ff b6 d8 00 00
	00		 push	 DWORD PTR [esi+216]
  00055	89 45 ec	 mov	 DWORD PTR _dwAIState$1$[ebp], eax
  00058	e8 00 00 00 00	 call	 ?GetCtrl@CProject@@QAEPAVCCtrl@@K@Z ; CProject::GetCtrl
  0005d	8b d8		 mov	 ebx, eax
; File C:\IAGOS\server\v18\Source\Source\_Common\Obj.h

; 327  : 	return pObj && ( pObj->IsDelete() == FALSE ); 

  0005f	85 db		 test	 ebx, ebx
  00061	0f 84 ee 01 00
	00		 je	 $LN54@MoveProces

; 180  : 	BOOL			IsDelete()	{ return (m_dwFlags & OBJ_FLAG_DELETE);  }

  00067	f6 43 04 01	 test	 BYTE PTR [ebx+4], 1

; 327  : 	return pObj && ( pObj->IsDelete() == FALSE ); 

  0006b	0f 85 e4 01 00
	00		 jne	 $LN54@MoveProces
; File C:\IAGOS\server\v18\Source\Source\_aiinterface\aimonster.cpp

; 2233 : 	if( IsEndStop()  )

  00071	8b ce		 mov	 ecx, esi
  00073	e8 00 00 00 00	 call	 ?IsEndStop@CAIMonster@@IAEHXZ ; CAIMonster::IsEndStop
  00078	85 c0		 test	 eax, eax
  0007a	0f 84 f0 01 00
	00		 je	 $LN10@MoveProces

; 2234 : 	{
; 2235 : 		CMover* pMoverTarget = (CMover*)pTarget;
; 2236 : 		DWORD dwAttackRange = pMoverTarget->GetActiveHandItemProp()->dwAttackRange;

  00080	6a 0a		 push	 10			; 0000000aH
  00082	8b cb		 mov	 ecx, ebx
  00084	e8 00 00 00 00	 call	 ?GetActiveHandItemProp@CMover@@QAEPAUItemProp@@H@Z ; CMover::GetActiveHandItemProp

; 2237 : 		FLOAT fRange = pMoverTarget->GetAttackRange( dwAttackRange ) * 1.7f;

  00089	8b cb		 mov	 ecx, ebx
  0008b	8b 80 38 01 00
	00		 mov	 eax, DWORD PTR [eax+312]
  00091	50		 push	 eax
  00092	e8 00 00 00 00	 call	 ?GetAttackRange@CMover@@QAEMK@Z ; CMover::GetAttackRange
; File C:\IAGOS\server\v18\Source\Source\_Common\Obj.h

; 215  : 	D3DXVECTOR3		GetPos()	{ return m_vPos; }

  00097	f3 0f 7e 87 60
	01 00 00	 movq	 xmm0, QWORD PTR [edi+352]
  0009f	8b 87 68 01 00
	00		 mov	 eax, DWORD PTR [edi+360]
; File C:\IAGOS\server\v18\Source\Source\_aiinterface\aimonster.cpp

; 2237 : 		FLOAT fRange = pMoverTarget->GetAttackRange( dwAttackRange ) * 1.7f;

  000a5	d8 0d 00 00 00
	00		 fmul	 DWORD PTR __real@3fd9999a
; File C:\IAGOS\server\v18\Source\Source\_Common\Obj.h

; 215  : 	D3DXVECTOR3		GetPos()	{ return m_vPos; }

  000ab	66 0f d6 45 e0	 movq	 QWORD PTR $T2[ebp], xmm0
  000b0	f3 0f 7e 83 60
	01 00 00	 movq	 xmm0, QWORD PTR [ebx+352]
  000b8	66 0f d6 45 d4	 movq	 QWORD PTR $T1[ebp], xmm0
; File C:\IAGOS\server\v18\Source\Source\DX_SDK\d3dx9math.inl

; 383  :     return D3DXVECTOR3(x - v.x, y - v.y, z - v.z);

  000bd	f3 0f 10 45 d4	 movss	 xmm0, DWORD PTR $T1[ebp]
  000c2	f3 0f 5c 45 e0	 subss	 xmm0, DWORD PTR $T2[ebp]
; File C:\IAGOS\server\v18\Source\Source\_Common\Obj.h

; 215  : 	D3DXVECTOR3		GetPos()	{ return m_vPos; }

  000c7	89 45 e8	 mov	 DWORD PTR $T2[ebp+8], eax
  000ca	8b 83 68 01 00
	00		 mov	 eax, DWORD PTR [ebx+360]
  000d0	89 45 dc	 mov	 DWORD PTR $T1[ebp+8], eax
; File C:\IAGOS\server\v18\Source\Source\_aiinterface\aimonster.cpp

; 2240 : 		if( IsInRange( pTarget->GetPos() - pMover->GetPos(), fRange ) == TRUE )

  000d3	8d 45 f0	 lea	 eax, DWORD PTR $T5[ebp]
  000d6	51		 push	 ecx
; File C:\IAGOS\server\v18\Source\Source\DX_SDK\d3dx9math.inl

; 300  :     x = fx;

  000d7	f3 0f 11 45 f0	 movss	 DWORD PTR $T5[ebp], xmm0
; File C:\IAGOS\server\v18\Source\Source\_aiinterface\aimonster.cpp

; 2240 : 		if( IsInRange( pTarget->GetPos() - pMover->GetPos(), fRange ) == TRUE )

  000dc	8b ce		 mov	 ecx, esi
; File C:\IAGOS\server\v18\Source\Source\DX_SDK\d3dx9math.inl

; 383  :     return D3DXVECTOR3(x - v.x, y - v.y, z - v.z);

  000de	f3 0f 10 45 d8	 movss	 xmm0, DWORD PTR $T1[ebp+4]
  000e3	f3 0f 5c 45 e4	 subss	 xmm0, DWORD PTR $T2[ebp+4]
; File C:\IAGOS\server\v18\Source\Source\_aiinterface\aimonster.cpp

; 2237 : 		FLOAT fRange = pMoverTarget->GetAttackRange( dwAttackRange ) * 1.7f;

  000e8	d9 5d ec	 fstp	 DWORD PTR _fRange$4[ebp]
; File C:\IAGOS\server\v18\Source\Source\DX_SDK\d3dx9math.inl

; 301  :     y = fy;

  000eb	f3 0f 11 45 f4	 movss	 DWORD PTR $T5[ebp+4], xmm0

; 383  :     return D3DXVECTOR3(x - v.x, y - v.y, z - v.z);

  000f0	f3 0f 10 45 dc	 movss	 xmm0, DWORD PTR $T1[ebp+8]
  000f5	f3 0f 5c 45 e8	 subss	 xmm0, DWORD PTR $T2[ebp+8]

; 302  :     z = fz;

  000fa	f3 0f 11 45 f8	 movss	 DWORD PTR $T5[ebp+8], xmm0
; File C:\IAGOS\server\v18\Source\Source\_aiinterface\aimonster.cpp

; 2240 : 		if( IsInRange( pTarget->GetPos() - pMover->GetPos(), fRange ) == TRUE )

  000ff	f3 0f 10 45 ec	 movss	 xmm0, DWORD PTR _fRange$4[ebp]
  00104	f3 0f 11 04 24	 movss	 DWORD PTR [esp], xmm0
  00109	50		 push	 eax
  0010a	e8 00 00 00 00	 call	 ?IsInRange@CAIMonster@@IAEHAAUD3DXVECTOR3@@M@Z ; CAIMonster::IsInRange
  0010f	83 f8 01	 cmp	 eax, 1
  00112	0f 85 da 00 00
	00		 jne	 $LN7@MoveProces
; File C:\IAGOS\server\v18\Source\Source\_Common\xUtil.h

; 16   : 	g_next = g_next * 1103515245 + 12345;// + nRandomSeed[ i++ ];

  00118	69 0d 00 00 00
	00 6d 4e c6 41	 imul	 ecx, DWORD PTR ?g_next@@3KA, 1103515245 ; g_next

; 22   : 	return  xRand() % num;

  00122	b8 cd cc cc cc	 mov	 eax, -858993459		; cccccccdH

; 16   : 	g_next = g_next * 1103515245 + 12345;// + nRandomSeed[ i++ ];

  00127	81 c1 39 30 00
	00		 add	 ecx, 12345		; 00003039H

; 22   : 	return  xRand() % num;

  0012d	f7 e1		 mul	 ecx
; File C:\IAGOS\server\v18\Source\Source\_aiinterface\aimonster.cpp

; 2243 : 			pMover->AddAngle( (float)( 20 - xRandom( 40 ) ) );

  0012f	51		 push	 ecx
; File C:\IAGOS\server\v18\Source\Source\_Common\xUtil.h

; 22   : 	return  xRand() % num;

  00130	c1 ea 05	 shr	 edx, 5

; 16   : 	g_next = g_next * 1103515245 + 12345;// + nRandomSeed[ i++ ];

  00133	89 0d 00 00 00
	00		 mov	 DWORD PTR ?g_next@@3KA, ecx ; g_next

; 22   : 	return  xRand() % num;

  00139	8d 04 92	 lea	 eax, DWORD PTR [edx+edx*4]
  0013c	c1 e0 03	 shl	 eax, 3
; File C:\IAGOS\server\v18\Source\Source\_aiinterface\aimonster.cpp

; 2243 : 			pMover->AddAngle( (float)( 20 - xRandom( 40 ) ) );

  0013f	2b c1		 sub	 eax, ecx
  00141	8b cf		 mov	 ecx, edi
  00143	83 c0 14	 add	 eax, 20			; 00000014H
  00146	66 0f 6e c0	 movd	 xmm0, eax
  0014a	f3 0f e6 c0	 cvtdq2pd xmm0, xmm0
  0014e	c1 e8 1f	 shr	 eax, 31			; 0000001fH
  00151	f2 0f 58 04 c5
	00 00 00 00	 addsd	 xmm0, QWORD PTR __xmm@41f00000000000000000000000000000[eax*8]
  0015a	66 0f 5a c0	 cvtpd2ps xmm0, xmm0
  0015e	f3 0f 11 04 24	 movss	 DWORD PTR [esp], xmm0
  00163	e8 00 00 00 00	 call	 ?AddAngle@CObj@@QAEXM@Z	; CObj::AddAngle
; File C:\IAGOS\server\v18\Source\Source\_Common\Obj.h

; 280  : 	FLOAT fTheta = D3DXToRadian( fAngle );

  00168	f3 0f 10 47 18	 movss	 xmm0, DWORD PTR [edi+24]
  0016d	f3 0f 59 05 00
	00 00 00	 mulss	 xmm0, DWORD PTR __real@3c8efa35

; 215  : 	D3DXVECTOR3		GetPos()	{ return m_vPos; }

  00175	8b 87 68 01 00
	00		 mov	 eax, DWORD PTR [edi+360]
  0017b	89 45 e8	 mov	 DWORD PTR $T3[ebp+8], eax
; File C:\Program Files (x86)\Windows Kits\10\Include\10.0.26100.0\ucrt\corecrt_math.h

; 789  :             return (float)sin(_X);

  0017e	0f 5a c8	 cvtps2pd xmm1, xmm0
; File C:\IAGOS\server\v18\Source\Source\_Common\Obj.h

; 215  : 	D3DXVECTOR3		GetPos()	{ return m_vPos; }

  00181	f3 0f 7e 87 60
	01 00 00	 movq	 xmm0, QWORD PTR [edi+352]
  00189	66 0f d6 45 e0	 movq	 QWORD PTR $T3[ebp], xmm0
; File C:\Program Files (x86)\Windows Kits\10\Include\10.0.26100.0\ucrt\corecrt_math.h

; 789  :             return (float)sin(_X);

  0018e	0f 28 c1	 movaps	 xmm0, xmm1
  00191	f2 0f 11 4d d8	 movsd	 QWORD PTR tv564[ebp], xmm1
  00196	e8 00 00 00 00	 call	 __libm_sse2_sin_precise
  0019b	0f 57 c9	 xorps	 xmm1, xmm1
  0019e	f2 0f 5a c8	 cvtsd2ss xmm1, xmm0

; 683  :             return (float)cos(_X);

  001a2	f2 0f 10 45 d8	 movsd	 xmm0, QWORD PTR tv564[ebp]
; File C:\IAGOS\server\v18\Source\Source\_Common\Obj.h

; 281  : 	FLOAT fx = sinf( fTheta ) * fVelocity;

  001a7	f3 0f 59 4d ec	 mulss	 xmm1, DWORD PTR _fRange$4[ebp]

; 215  : 	D3DXVECTOR3		GetPos()	{ return m_vPos; }

  001ac	f3 0f 58 4d e0	 addss	 xmm1, DWORD PTR $T3[ebp]
; File C:\IAGOS\server\v18\Source\Source\DX_SDK\d3dx9math.inl

; 300  :     x = fx;

  001b1	f3 0f 11 4d f0	 movss	 DWORD PTR _vDst$6[ebp], xmm1
  001b6	f3 0f 10 4d e4	 movss	 xmm1, DWORD PTR $T3[ebp+4]
  001bb	f3 0f 58 0d 00
	00 00 00	 addss	 xmm1, DWORD PTR __real@00000000

; 301  :     y = fy;

  001c3	f3 0f 11 4d f4	 movss	 DWORD PTR _vDst$6[ebp+4], xmm1
; File C:\Program Files (x86)\Windows Kits\10\Include\10.0.26100.0\ucrt\corecrt_math.h

; 683  :             return (float)cos(_X);

  001c8	e8 00 00 00 00	 call	 __libm_sse2_cos_precise
  001cd	0f 57 c9	 xorps	 xmm1, xmm1
; File C:\IAGOS\server\v18\Source\Source\_aiinterface\aimonster.cpp

; 2247 : 			MoveToDst( vDst );

  001d0	8d 45 f0	 lea	 eax, DWORD PTR _vDst$6[ebp]
; File C:\Program Files (x86)\Windows Kits\10\Include\10.0.26100.0\ucrt\corecrt_math.h

; 683  :             return (float)cos(_X);

  001d3	f2 0f 5a c8	 cvtsd2ss xmm1, xmm0
; File C:\IAGOS\server\v18\Source\Source\_aiinterface\aimonster.cpp

; 2247 : 			MoveToDst( vDst );

  001d7	8b ce		 mov	 ecx, esi
  001d9	50		 push	 eax
; File C:\IAGOS\server\v18\Source\Source\DX_SDK\d3dx9math.inl

; 301  :     y = fy;

  001da	f3 0f 10 45 e8	 movss	 xmm0, DWORD PTR $T3[ebp+8]
; File C:\IAGOS\server\v18\Source\Source\_Common\Obj.h

; 282  : 	FLOAT fz = -cosf( fTheta ) * fVelocity;

  001df	f3 0f 59 4d ec	 mulss	 xmm1, DWORD PTR _fRange$4[ebp]
; File C:\IAGOS\server\v18\Source\Source\DX_SDK\d3dx9math.inl

; 301  :     y = fy;

  001e4	f3 0f 5c c1	 subss	 xmm0, xmm1

; 302  :     z = fz;

  001e8	f3 0f 11 45 f8	 movss	 DWORD PTR _vDst$6[ebp+8], xmm0
; File C:\IAGOS\server\v18\Source\Source\_aiinterface\aimonster.cpp

; 2247 : 			MoveToDst( vDst );

  001ed	e8 00 00 00 00	 call	 ?MoveToDst@CAIMonster@@IAEXABUD3DXVECTOR3@@@Z ; CAIMonster::MoveToDst
$LN7@MoveProces:

; 2248 : 		}
; 2249 : 		if( m_bTargetNoMovePos == FALSE )

  001f2	83 be c4 00 00
	00 00		 cmp	 DWORD PTR [esi+196], 0
  001f9	75 75		 jne	 SHORT $LN10@MoveProces

; 2250 : 		{
; 2251 : 			// ПЉБтМ­ ШоНФ РЯСЄНУАЃИЖДй HPИІ УЄПіСиДй.
; 2252 : 			if( ::TIMEGETTIME > pMover->m_dwTickRecovery )	// .

  001fb	a1 00 00 00 00	 mov	 eax, DWORD PTR ?g_tmCurrent@@3KA ; g_tmCurrent
  00200	3b 87 e4 02 00
	00		 cmp	 eax, DWORD PTR [edi+740]
  00206	76 68		 jbe	 SHORT $LN10@MoveProces

; 2253 : 			{
; 2254 : 				pMover->m_dwTickRecovery = ::TIMEGETTIME + NEXT_TICK_RECOVERY;

  00208	05 d0 07 00 00	 add	 eax, 2000		; 000007d0H

; 2255 : 				pMover->IncHitPoint( pMover->GetHPRecovery() );

  0020d	8b cf		 mov	 ecx, edi
  0020f	89 87 e4 02 00
	00		 mov	 DWORD PTR [edi+740], eax
  00215	e8 00 00 00 00	 call	 ?GetHPRecovery@CMover@@QAEHXZ ; CMover::GetHPRecovery
  0021a	50		 push	 eax
  0021b	8b cf		 mov	 ecx, edi
  0021d	e8 00 00 00 00	 call	 ?IncHitPoint@CMover@@QAEXH@Z ; CMover::IncHitPoint

; 2256 : 				// УМЗТРЬ 80 % РЬЛѓ ЕЧИщ ЙнАн НУЕЕ.
; 2257 : 				if( pMover->GetHitPointPercent( 100 ) >= 50 )

  00222	6a 64		 push	 100			; 00000064H
  00224	8b cf		 mov	 ecx, edi
  00226	e8 00 00 00 00	 call	 ?GetHitPointPercent@CMover@@QAEHH@Z ; CMover::GetHitPointPercent
  0022b	83 f8 32	 cmp	 eax, 50			; 00000032H
  0022e	7c 40		 jl	 SHORT $LN10@MoveProces

; 2258 : 					SendAIMsg( AIMSG_SETSTATE, STATE_RAGE, NULL_ID );
; 2259 : 			}
; 2260 : 		}
; 2261 : 	}
; 2262 : 	return TRUE;

  00230	8b 06		 mov	 eax, DWORD PTR [esi]
  00232	8b ce		 mov	 ecx, esi
  00234	6a 00		 push	 0
  00236	6a ff		 push	 -1
  00238	6a 07		 push	 7
  0023a	6a 04		 push	 4
  0023c	ff 50 0c	 call	 DWORD PTR [eax+12]
  0023f	5b		 pop	 ebx
  00240	5f		 pop	 edi
  00241	b8 01 00 00 00	 mov	 eax, 1

; 2263 : }

  00246	5e		 pop	 esi
  00247	8b 4d fc	 mov	 ecx, DWORD PTR __$ArrayPad$[ebp]
  0024a	33 cd		 xor	 ecx, ebp
  0024c	e8 00 00 00 00	 call	 @__security_check_cookie@4
  00251	8b e5		 mov	 esp, ebp
  00253	5d		 pop	 ebp
  00254	c3		 ret	 0
$LN54@MoveProces:

; 2224 : 
; 2225 : 	// ХИАйРЬ ЙЋШПРЮАЁ?
; 2226 : 	if( IsValidObj( pTarget ) == FALSE )
; 2227 : 	{
; 2228 : 		SetTarget( NULL_ID, 0 );

  00255	6a 00		 push	 0
  00257	6a ff		 push	 -1
  00259	8b ce		 mov	 ecx, esi
  0025b	e8 00 00 00 00	 call	 ?SetTarget@CAIMonster@@IAEXKK@Z ; CAIMonster::SetTarget

; 2258 : 					SendAIMsg( AIMSG_SETSTATE, STATE_RAGE, NULL_ID );
; 2259 : 			}
; 2260 : 		}
; 2261 : 	}
; 2262 : 	return TRUE;

  00260	8b 06		 mov	 eax, DWORD PTR [esi]
  00262	8b ce		 mov	 ecx, esi
  00264	6a 00		 push	 0
  00266	6a 00		 push	 0
  00268	ff 75 ec	 push	 DWORD PTR _dwAIState$1$[ebp]
  0026b	6a 04		 push	 4
  0026d	ff 50 0c	 call	 DWORD PTR [eax+12]
$LN10@MoveProces:
  00270	5b		 pop	 ebx
  00271	5f		 pop	 edi
  00272	b8 01 00 00 00	 mov	 eax, 1

; 2263 : }

  00277	5e		 pop	 esi
  00278	8b 4d fc	 mov	 ecx, DWORD PTR __$ArrayPad$[ebp]
  0027b	33 cd		 xor	 ecx, ebp
  0027d	e8 00 00 00 00	 call	 @__security_check_cookie@4
  00282	8b e5		 mov	 esp, ebp
  00284	5d		 pop	 ebp
  00285	c3		 ret	 0
$LN3@MoveProces:
  00286	8b 4d fc	 mov	 ecx, DWORD PTR __$ArrayPad$[ebp]
  00289	33 c0		 xor	 eax, eax
  0028b	5f		 pop	 edi
  0028c	33 cd		 xor	 ecx, ebp
  0028e	5e		 pop	 esi
  0028f	e8 00 00 00 00	 call	 @__security_check_cookie@4
  00294	8b e5		 mov	 esp, ebp
  00296	5d		 pop	 ebp
  00297	c3		 ret	 0
?MoveProcessRunaway@CAIMonster@@IAEHXZ ENDP		; CAIMonster::MoveProcessRunaway
_TEXT	ENDS
; Function compile flags: /Ogtp
; File C:\IAGOS\server\v18\Source\Source\_aiinterface\aimonster.cpp
; File C:\IAGOS\server\v18\Source\Source\_Common\Project.h
; File C:\IAGOS\server\v18\Source\Source\_aiinterface\aimonster.cpp
; File C:\IAGOS\server\v18\Source\Source\_Common\Mover.h
; File C:\IAGOS\server\v18\Source\Source\_Common\Project.h
; File C:\IAGOS\server\v18\Source\Source\_aiinterface\aimonster.cpp
; File C:\IAGOS\server\v18\Source\Source\_Common\Obj.h
; File C:\IAGOS\server\v18\Source\Source\DX_SDK\d3dx9math.inl
; File C:\IAGOS\server\v18\Source\Source\_Common\Obj.h
; File C:\IAGOS\server\v18\Source\Source\_aiinterface\aimonster.cpp
; File C:\IAGOS\server\v18\Source\Source\DX_SDK\d3dx9math.inl
; File C:\IAGOS\server\v18\Source\Source\_aiinterface\aimonster.cpp
; File C:\IAGOS\server\v18\Source\Source\_Common\Obj.h
; File C:\IAGOS\server\v18\Source\Source\_aiinterface\aimonster.cpp
; File C:\IAGOS\server\v18\Source\Source\_Common\Obj.h
; File C:\IAGOS\server\v18\Source\Source\_aiinterface\aimonster.cpp
; File C:\IAGOS\server\v18\Source\Source\_Common\Obj.h
; File C:\IAGOS\server\v18\Source\Source\_aiinterface\aimonster.cpp
; File C:\IAGOS\server\v18\Source\Source\_Common\xUtil.h
; File C:\IAGOS\server\v18\Source\Source\_aiinterface\aimonster.cpp
; File C:\IAGOS\server\v18\Source\Source\_Common\xUtil.h
; File C:\IAGOS\server\v18\Source\Source\_aiinterface\aimonster.cpp
;	COMDAT ?SubAttackChance@CAIMonster@@IAEHABUAIMSG@@PAVCMover@@@Z
_TEXT	SEGMENT
$T1 = -60						; size = 12
_vTargetTo$ = -48					; size = 12
$T2 = -36						; size = 12
$T3 = -36						; size = 12
$T4 = -24						; size = 12
$T5 = -24						; size = 12
_fRange$6 = -12						; size = 4
_nTargetJob$1$ = -12					; size = 4
_bAttack$1$ = -8					; size = 4
$T7 = -4						; size = 4
_msg$ = 8						; size = 4
_pTarget$ = 12						; size = 4
?SubAttackChance@CAIMonster@@IAEHABUAIMSG@@PAVCMover@@@Z PROC ; CAIMonster::SubAttackChance, COMDAT
; _this$ = ecx

; 1323 : {

  00000	55		 push	 ebp
  00001	8b ec		 mov	 ebp, esp
  00003	83 ec 3c	 sub	 esp, 60			; 0000003cH
  00006	53		 push	 ebx
  00007	56		 push	 esi
  00008	57		 push	 edi
  00009	8b f9		 mov	 edi, ecx
; File C:\IAGOS\server\v18\Source\Source\_Common\Project.h

; 1406 : 	VERIFY_RANGE( nIndex, 0, m_nMoverPropSize, "GetMoverProp range_error", NULL );

  0000b	8b 0d b4 01 00
	00		 mov	 ecx, DWORD PTR ?prj@@3VCProject@@A+436
; File C:\IAGOS\server\v18\Source\Source\_aiinterface\aimonster.cpp

; 1324 : 	CMover* pMover = GetMover();

  00011	8b 5f 30	 mov	 ebx, DWORD PTR [edi+48]
; File C:\IAGOS\server\v18\Source\Source\_Common\Mover.h

; 1020 : 	MoverProp*		GetProp() { return prj.GetMoverProp( m_dwIndex ); }	// АДУМРЧ ЧСЗЮЦлЦМ ОђБт 	

  00014	8b 83 74 01 00
	00		 mov	 eax, DWORD PTR [ebx+372]
; File C:\IAGOS\server\v18\Source\Source\_Common\Project.h

; 1406 : 	VERIFY_RANGE( nIndex, 0, m_nMoverPropSize, "GetMoverProp range_error", NULL );

  0001a	85 c0		 test	 eax, eax
  0001c	78 12		 js	 SHORT $LN26@SubAttackC
  0001e	3b c1		 cmp	 eax, ecx
  00020	7d 0e		 jge	 SHORT $LN26@SubAttackC

; 1407 : 	return m_pPropMover + nIndex;

  00022	69 f0 90 06 00
	00		 imul	 esi, eax, 1680
  00028	03 35 b8 01 00
	00		 add	 esi, DWORD PTR ?prj@@3VCProject@@A+440
  0002e	eb 18		 jmp	 SHORT $LN67@SubAttackC
$LN26@SubAttackC:

; 579  : 	LPCTSTR szErr = Error( _T( "%s min:%d, max:%d, index:%d" ), szMsg, nMin, nMax, nIndex ); 

  00030	50		 push	 eax
  00031	51		 push	 ecx
  00032	6a 00		 push	 0
  00034	68 00 00 00 00	 push	 OFFSET ??_C@_0BJ@GKPOBPPI@GetMoverProp?5range_error@
  00039	68 00 00 00 00	 push	 OFFSET ??_C@_0BM@HMFGHCP@?$CFs?5min?3?$CFd?0?5max?3?$CFd?0?5index?3?$CFd@
  0003e	e8 00 00 00 00	 call	 ?Error@@YAPBDPBDZZ	; Error
  00043	83 c4 14	 add	 esp, 20			; 00000014H

; 1406 : 	VERIFY_RANGE( nIndex, 0, m_nMoverPropSize, "GetMoverProp range_error", NULL );

  00046	33 f6		 xor	 esi, esi
$LN67@SubAttackC:
; File C:\IAGOS\server\v18\Source\Source\_aiinterface\aimonster.cpp

; 1328 : 	if( pTarget->IsPlayer() )

  00048	8b 45 0c	 mov	 eax, DWORD PTR _pTarget$[ebp]
  0004b	89 75 fc	 mov	 DWORD PTR $T7[ebp], esi
  0004e	c7 45 f4 00 00
	00 00		 mov	 DWORD PTR _nTargetJob$1$[ebp], 0
  00055	83 b8 30 02 00
	00 00		 cmp	 DWORD PTR [eax+560], 0
  0005c	74 0d		 je	 SHORT $LN2@SubAttackC

; 1329 : 		nTargetJob = pTarget->GetJob();		// ХИАйРЧ СїОї.

  0005e	8b c8		 mov	 ecx, eax
  00060	e8 00 00 00 00	 call	 ?GetJob@CMover@@QAEHXZ	; CMover::GetJob
  00065	89 45 f4	 mov	 DWORD PTR _nTargetJob$1$[ebp], eax
  00068	8b 45 0c	 mov	 eax, DWORD PTR _pTarget$[ebp]
$LN2@SubAttackC:

; 1336 : 	if( pProp->m_bRecvCond )	// ШИКЙ AIАЁ РжДРГФ

  0006b	80 be f6 01 00
	00 00		 cmp	 BYTE PTR [esi+502], 0
; File C:\IAGOS\server\v18\Source\Source\_Common\Obj.h

; 215  : 	D3DXVECTOR3		GetPos()	{ return m_vPos; }

  00072	f3 0f 7e 83 60
	01 00 00	 movq	 xmm0, QWORD PTR [ebx+352]
  0007a	8b 8b 68 01 00
	00		 mov	 ecx, DWORD PTR [ebx+360]
  00080	66 0f d6 45 dc	 movq	 QWORD PTR $T2[ebp], xmm0
  00085	f3 0f 7e 80 60
	01 00 00	 movq	 xmm0, QWORD PTR [eax+352]
  0008d	8b 80 68 01 00
	00		 mov	 eax, DWORD PTR [eax+360]
  00093	66 0f d6 45 e8	 movq	 QWORD PTR $T4[ebp], xmm0
; File C:\IAGOS\server\v18\Source\Source\DX_SDK\d3dx9math.inl

; 383  :     return D3DXVECTOR3(x - v.x, y - v.y, z - v.z);

  00098	f3 0f 10 45 e8	 movss	 xmm0, DWORD PTR $T4[ebp]
  0009d	f3 0f 5c 45 dc	 subss	 xmm0, DWORD PTR $T2[ebp]
; File C:\IAGOS\server\v18\Source\Source\_Common\Obj.h

; 215  : 	D3DXVECTOR3		GetPos()	{ return m_vPos; }

  000a2	89 45 f0	 mov	 DWORD PTR $T4[ebp+8], eax
  000a5	89 4d e4	 mov	 DWORD PTR $T2[ebp+8], ecx
; File C:\IAGOS\server\v18\Source\Source\_aiinterface\aimonster.cpp

; 1331 : 	BOOL bAttack = TRUE;

  000a8	c7 45 f8 01 00
	00 00		 mov	 DWORD PTR _bAttack$1$[ebp], 1
; File C:\IAGOS\server\v18\Source\Source\DX_SDK\d3dx9math.inl

; 300  :     x = fx;

  000af	f3 0f 11 45 d0	 movss	 DWORD PTR _vTargetTo$[ebp], xmm0

; 383  :     return D3DXVECTOR3(x - v.x, y - v.y, z - v.z);

  000b4	f3 0f 10 45 ec	 movss	 xmm0, DWORD PTR $T4[ebp+4]
  000b9	f3 0f 5c 45 e0	 subss	 xmm0, DWORD PTR $T2[ebp+4]

; 301  :     y = fy;

  000be	f3 0f 11 45 d4	 movss	 DWORD PTR _vTargetTo$[ebp+4], xmm0

; 383  :     return D3DXVECTOR3(x - v.x, y - v.y, z - v.z);

  000c3	f3 0f 10 45 f0	 movss	 xmm0, DWORD PTR $T4[ebp+8]
  000c8	f3 0f 5c 45 e4	 subss	 xmm0, DWORD PTR $T2[ebp+8]

; 302  :     z = fz;

  000cd	f3 0f 11 45 d8	 movss	 DWORD PTR _vTargetTo$[ebp+8], xmm0
; File C:\IAGOS\server\v18\Source\Source\_aiinterface\aimonster.cpp

; 1336 : 	if( pProp->m_bRecvCond )	// ШИКЙ AIАЁ РжДРГФ

  000d2	0f 84 f6 00 00
	00		 je	 $LN48@SubAttackC

; 1337 : 	{
; 1338 : 		if( pMover->GetHitPointPercent( 100 ) <= pProp->m_nRecvCondMe )	// HPАЁ m_nRecvCondMe% РЬЧЯЗЮ ЖГОюСГДТАЁ?

  000d8	8b b6 e8 01 00
	00		 mov	 esi, DWORD PTR [esi+488]
  000de	8b cb		 mov	 ecx, ebx
  000e0	6a 64		 push	 100			; 00000064H
  000e2	e8 00 00 00 00	 call	 ?GetHitPointPercent@CMover@@QAEHH@Z ; CMover::GetHitPointPercent
  000e7	3b c6		 cmp	 eax, esi
  000e9	0f 8f c5 00 00
	00		 jg	 $LN53@SubAttackC

; 1339 : 		{
; 1340 : 			if( pMover->GetManaPoint() > 0 )

  000ef	8b cb		 mov	 ecx, ebx
  000f1	e8 00 00 00 00	 call	 ?GetManaPoint@CMover@@QAEHXZ ; CMover::GetManaPoint
  000f6	85 c0		 test	 eax, eax
  000f8	0f 8e b6 00 00
	00		 jle	 $LN53@SubAttackC

; 1341 : 			{
; 1342 : 				// m_nHow% ИИХ­РЧ HPИІ ШИКЙ
; 1343 : 				int nHP = (int)(pMover->GetMaxHitPoint() * (pProp->m_nRecvCondHow / 100.0f));	

  000fe	8b cb		 mov	 ecx, ebx
  00100	e8 00 00 00 00	 call	 ?GetMaxHitPoint@CMover@@QAEHXZ ; CMover::GetMaxHitPoint
  00105	8b 75 fc	 mov	 esi, DWORD PTR $T7[ebp]

; 1344 : 				pMover->IncHitPoint( nHP );

  00108	8b cb		 mov	 ecx, ebx
  0010a	66 0f 6e c8	 movd	 xmm1, eax
  0010e	66 0f 6e 86 ec
	01 00 00	 movd	 xmm0, DWORD PTR [esi+492]
  00116	0f 5b c0	 cvtdq2ps xmm0, xmm0
  00119	0f 5b c9	 cvtdq2ps xmm1, xmm1
  0011c	f3 0f 5e 05 00
	00 00 00	 divss	 xmm0, DWORD PTR __real@42c80000
  00124	f3 0f 59 c1	 mulss	 xmm0, xmm1
  00128	f3 0f 2c c0	 cvttss2si eax, xmm0
  0012c	50		 push	 eax
  0012d	e8 00 00 00 00	 call	 ?IncHitPoint@CMover@@QAEXH@Z ; CMover::IncHitPoint
; File C:\IAGOS\server\v18\Source\Source\_Common\Obj.h

; 215  : 	D3DXVECTOR3		GetPos()	{ return m_vPos; }

  00132	f3 0f 7e 83 60
	01 00 00	 movq	 xmm0, QWORD PTR [ebx+352]
; File C:\IAGOS\server\v18\Source\Source\_aiinterface\aimonster.cpp

; 1346 : 				g_UserMng.AddCreateSfxObj( pMover, XI_GEN_CURE01, pMover->GetPos().x, pMover->GetPos().y, pMover->GetPos().z );	

  0013a	b9 00 00 00 00	 mov	 ecx, OFFSET ?g_UserMng@@3VCUserMng@@A ; g_UserMng
; File C:\IAGOS\server\v18\Source\Source\_Common\Obj.h

; 215  : 	D3DXVECTOR3		GetPos()	{ return m_vPos; }

  0013f	8b 83 68 01 00
	00		 mov	 eax, DWORD PTR [ebx+360]
  00145	66 0f d6 45 dc	 movq	 QWORD PTR $T3[ebp], xmm0
  0014a	f3 0f 7e c0	 movq	 xmm0, xmm0
  0014e	66 0f d6 45 e8	 movq	 QWORD PTR $T5[ebp], xmm0
  00153	f3 0f 7e 83 60
	01 00 00	 movq	 xmm0, QWORD PTR [ebx+352]
; File C:\IAGOS\server\v18\Source\Source\_aiinterface\aimonster.cpp

; 1346 : 				g_UserMng.AddCreateSfxObj( pMover, XI_GEN_CURE01, pMover->GetPos().x, pMover->GetPos().y, pMover->GetPos().z );	

  0015b	6a 00		 push	 0
  0015d	83 ec 0c	 sub	 esp, 12			; 0000000cH
; File C:\IAGOS\server\v18\Source\Source\_Common\Obj.h

; 215  : 	D3DXVECTOR3		GetPos()	{ return m_vPos; }

  00160	66 0f d6 45 c4	 movq	 QWORD PTR $T1[ebp], xmm0
  00165	89 45 e4	 mov	 DWORD PTR $T3[ebp+8], eax
; File C:\IAGOS\server\v18\Source\Source\_aiinterface\aimonster.cpp

; 1346 : 				g_UserMng.AddCreateSfxObj( pMover, XI_GEN_CURE01, pMover->GetPos().x, pMover->GetPos().y, pMover->GetPos().z );	

  00168	f3 0f 10 45 e4	 movss	 xmm0, DWORD PTR $T3[ebp+8]
  0016d	f3 0f 11 44 24
	08		 movss	 DWORD PTR [esp+8], xmm0
  00173	f3 0f 10 45 ec	 movss	 xmm0, DWORD PTR $T5[ebp+4]
  00178	f3 0f 11 44 24
	04		 movss	 DWORD PTR [esp+4], xmm0
  0017e	f3 0f 10 45 c4	 movss	 xmm0, DWORD PTR $T1[ebp]
  00183	f3 0f 11 04 24	 movss	 DWORD PTR [esp], xmm0
  00188	6a 3e		 push	 62			; 0000003eH
  0018a	53		 push	 ebx
  0018b	e8 00 00 00 00	 call	 ?AddCreateSfxObj@CUserMng@@QAEXPAVCCtrl@@KMMMH@Z ; CUserMng::AddCreateSfxObj

; 1347 : 				if( pProp->m_nRecvCondMP > 0 )		

  00190	8b 86 f0 01 00
	00		 mov	 eax, DWORD PTR [esi+496]
  00196	85 c0		 test	 eax, eax
  00198	7f 07		 jg	 SHORT $LN7@SubAttackC

; 1348 : 				{
; 1349 : 					// ИЖГЊИІ МвИ№.
; 1350 : 					int nMP = pProp->m_nRecvCondMP;			
; 1351 : 					pMover->IncManaPoint( -nMP );
; 1352 : 				} 
; 1353 : 				else
; 1354 : 				{
; 1355 : 					// 0РИЗЮ СіСЄЕЧОю РжРИИщ ИљЖЅ МвИ№.
; 1356 : 					int nMP = pMover->GetMaxManaPoint();	

  0019a	8b cb		 mov	 ecx, ebx
  0019c	e8 00 00 00 00	 call	 ?GetMaxManaPoint@CMover@@QAEHXZ ; CMover::GetMaxManaPoint
$LN7@SubAttackC:

; 1357 : 					pMover->IncManaPoint( -nMP );
; 1358 : 				}
; 1359 : 				bAttack = FALSE;		// ШИКЙРЛ ЧпРИИщ АјАнРК ДйРНХЯПЁ.

  001a1	f7 d8		 neg	 eax
  001a3	8b cb		 mov	 ecx, ebx
  001a5	50		 push	 eax
  001a6	e8 00 00 00 00	 call	 ?IncManaPoint@CMover@@QAEXH@Z ; CMover::IncManaPoint
  001ab	c7 45 f8 00 00
	00 00		 mov	 DWORD PTR _bAttack$1$[ebp], 0
  001b2	eb 03		 jmp	 SHORT $LN5@SubAttackC
$LN53@SubAttackC:

; 1360 : 			}
; 1361 : 		}
; 1362 : 		m_tmAttackDelay = TIMEGETTIME + SEC( 3 );	// 3УЪШФПЁ ДйНУ АјАнБтШИ.

  001b4	8b 75 fc	 mov	 esi, DWORD PTR $T7[ebp]
$LN5@SubAttackC:
  001b7	a1 00 00 00 00	 mov	 eax, DWORD PTR ?g_tmCurrent@@3KA ; g_tmCurrent
  001bc	05 b8 0b 00 00	 add	 eax, 3000		; 00000bb8H

; 1363 : 	}
; 1364 : 
; 1365 : 	if( bAttack )

  001c1	83 7d f8 00	 cmp	 DWORD PTR _bAttack$1$[ebp], 0
  001c5	89 47 3c	 mov	 DWORD PTR [edi+60], eax
  001c8	0f 84 1a 01 00
	00		 je	 $LN49@SubAttackC
$LN48@SubAttackC:

; 1366 : 	{
; 1367 : 		if( m_bRangeAttack )

  001ce	83 bf d0 00 00
	00 00		 cmp	 DWORD PTR [edi+208], 0
  001d5	8b cf		 mov	 ecx, edi
  001d7	74 07		 je	 SHORT $LN9@SubAttackC

; 1368 : 			m_dwAtkMethod = GetAtkMethod_Far();		// АјАн ЙцЙ§ ММЦУ 

  001d9	e8 00 00 00 00	 call	 ?GetAtkMethod_Far@CAIMonster@@IAEKXZ ; CAIMonster::GetAtkMethod_Far
  001de	eb 05		 jmp	 SHORT $LN10@SubAttackC
$LN9@SubAttackC:

; 1369 : 		else
; 1370 : 			m_dwAtkMethod = GetAtkMethod_Near();		// АјАн ЙцЙ§ ММЦУ 

  001e0	e8 00 00 00 00	 call	 ?GetAtkMethod_Near@CAIMonster@@IAEKXZ ; CAIMonster::GetAtkMethod_Near
$LN10@SubAttackC:

; 1371 : 
; 1372 : 		DWORD dwAtkRange = GetAtkRange( m_dwAtkMethod );

  001e5	50		 push	 eax
  001e6	8b cf		 mov	 ecx, edi
  001e8	89 87 dc 00 00
	00		 mov	 DWORD PTR [edi+220], eax
  001ee	e8 00 00 00 00	 call	 ?GetAtkRange@CAIMonster@@IAEKK@Z ; CAIMonster::GetAtkRange

; 1373 : 		// РхАХИЎ АјАн МБХУРЬЖѓИщ?
; 1374 : 		if( dwAtkRange == AR_RANGE || dwAtkRange == AR_WAND )

  001f3	83 f8 04	 cmp	 eax, 4
  001f6	0f 84 9a 00 00
	00		 je	 $LN13@SubAttackC
  001fc	83 f8 05	 cmp	 eax, 5
  001ff	0f 84 91 00 00
	00		 je	 $LN13@SubAttackC

; 1383 : 			}
; 1384 : 		} 
; 1385 : 		else
; 1386 : 		{
; 1387 : 			FLOAT fRange = pMover->GetAttackRange( dwAtkRange );

  00205	50		 push	 eax
  00206	8b cb		 mov	 ecx, ebx
  00208	e8 00 00 00 00	 call	 ?GetAttackRange@CMover@@QAEMK@Z ; CMover::GetAttackRange

; 1388 : 			if( pMover->IsRangeObj( pTarget, fRange ) )

  0020d	8b 75 0c	 mov	 esi, DWORD PTR _pTarget$[ebp]
  00210	51		 push	 ecx
  00211	d9 5d f4	 fstp	 DWORD PTR _fRange$6[ebp]
  00214	f3 0f 10 45 f4	 movss	 xmm0, DWORD PTR _fRange$6[ebp]
  00219	8b cb		 mov	 ecx, ebx
  0021b	f3 0f 11 04 24	 movss	 DWORD PTR [esp], xmm0
  00220	56		 push	 esi
  00221	e8 00 00 00 00	 call	 ?IsRangeObj@CObj@@QAEHPAV1@M@Z ; CObj::IsRangeObj
  00226	85 c0		 test	 eax, eax
  00228	0f 84 ba 00 00
	00		 je	 $LN49@SubAttackC

; 1389 : 			{
; 1390 : 				DoAttack( m_dwAtkMethod, pTarget );		//  АјАн

  0022e	56		 push	 esi
  0022f	ff b7 dc 00 00
	00		 push	 DWORD PTR [edi+220]
  00235	8b cf		 mov	 ecx, edi
  00237	e8 00 00 00 00	 call	 ?DoAttack@CAIMonster@@IAEXKPAVCMover@@@Z ; CAIMonster::DoAttack
; File C:\IAGOS\server\v18\Source\Source\_Common\xUtil.h

; 22   : 	return  xRand() % num;

  0023c	8b 4d fc	 mov	 ecx, DWORD PTR $T7[ebp]
  0023f	b8 d3 4d 62 10	 mov	 eax, 274877907		; 10624dd3H
; File C:\IAGOS\server\v18\Source\Source\_aiinterface\aimonster.cpp

; 1391 : 				m_bGoTarget = TRUE;  // <- РЬАЧ ЙЙЧЯДТАХ? 

  00244	c7 87 c0 00 00
	00 01 00 00 00	 mov	 DWORD PTR [edi+192], 1
; File C:\IAGOS\server\v18\Source\Source\_Common\xUtil.h

; 16   : 	g_next = g_next * 1103515245 + 12345;// + nRandomSeed[ i++ ];

  0024e	69 35 00 00 00
	00 6d 4e c6 41	 imul	 esi, DWORD PTR ?g_next@@3KA, 1103515245 ; g_next
  00258	81 c6 39 30 00
	00		 add	 esi, 12345		; 00003039H

; 22   : 	return  xRand() % num;

  0025e	f7 e6		 mul	 esi

; 16   : 	g_next = g_next * 1103515245 + 12345;// + nRandomSeed[ i++ ];

  00260	89 35 00 00 00
	00		 mov	 DWORD PTR ?g_next@@3KA, esi ; g_next

; 22   : 	return  xRand() % num;

  00266	8b 89 e0 00 00
	00		 mov	 ecx, DWORD PTR [ecx+224]
  0026c	c1 ea 07	 shr	 edx, 7
  0026f	69 c2 d0 07 00
	00		 imul	 eax, edx, 2000
  00275	2b c8		 sub	 ecx, eax
  00277	a1 00 00 00 00	 mov	 eax, DWORD PTR ?g_tmCurrent@@3KA ; g_tmCurrent
  0027c	03 ce		 add	 ecx, esi
  0027e	05 18 fc ff ff	 add	 eax, -1000		; fffffc18H
  00283	03 c1		 add	 eax, ecx
; File C:\IAGOS\server\v18\Source\Source\_aiinterface\aimonster.cpp

; 1402 : }

  00285	89 47 3c	 mov	 DWORD PTR [edi+60], eax
  00288	b8 01 00 00 00	 mov	 eax, 1
  0028d	5f		 pop	 edi
  0028e	5e		 pop	 esi
  0028f	5b		 pop	 ebx
  00290	8b e5		 mov	 esp, ebp
  00292	5d		 pop	 ebp
  00293	c2 08 00	 ret	 8
$LN13@SubAttackC:

; 1375 : 		{
; 1376 : 			// РЏШП АХИЎ ЦЧДм
; 1377 : 			FLOAT fRange = (float)(pProp->m_bRangeAttack[ nTargetJob ] & 0x7F);

  00296	8b 45 f4	 mov	 eax, DWORD PTR _nTargetJob$1$[ebp]

; 1378 : 			fRange += 1.0f;		// ЛчАХИЎ +1ЙЬХЭ СЄЕЕДТ АС Н№Дй.
; 1379 : 			if( IsInRange( vTargetTo, fRange ) == TRUE )		// AIПЁМ­ СіСЄЧб АјАнАХИЎБюСі ДйАЁАЌДТАЁ?

  00299	51		 push	 ecx
  0029a	8b cf		 mov	 ecx, edi
  0029c	8a 84 06 f8 01
	00 00		 mov	 al, BYTE PTR [esi+eax+504]
  002a3	24 7f		 and	 al, 127			; 0000007fH
  002a5	0f b6 c0	 movzx	 eax, al
  002a8	66 0f 6e c0	 movd	 xmm0, eax
  002ac	8d 45 d0	 lea	 eax, DWORD PTR _vTargetTo$[ebp]
  002af	0f 5b c0	 cvtdq2ps xmm0, xmm0
  002b2	f3 0f 58 05 00
	00 00 00	 addss	 xmm0, DWORD PTR __real@3f800000
  002ba	f3 0f 11 04 24	 movss	 DWORD PTR [esp], xmm0
  002bf	50		 push	 eax
  002c0	e8 00 00 00 00	 call	 ?IsInRange@CAIMonster@@IAEHAAUD3DXVECTOR3@@M@Z ; CAIMonster::IsInRange
  002c5	83 f8 01	 cmp	 eax, 1
  002c8	75 1e		 jne	 SHORT $LN49@SubAttackC

; 1380 : 			{
; 1381 : 				DoAttack( m_dwAtkMethod, (CMover*)pTarget );	// АјАн

  002ca	8b 75 0c	 mov	 esi, DWORD PTR _pTarget$[ebp]
  002cd	8b cf		 mov	 ecx, edi
  002cf	56		 push	 esi
  002d0	ff b7 dc 00 00
	00		 push	 DWORD PTR [edi+220]
  002d6	e8 00 00 00 00	 call	 ?DoAttack@CAIMonster@@IAEXKPAVCMover@@@Z ; CAIMonster::DoAttack

; 1382 : 				m_tmAttackDelay	= TIMEGETTIME + SEC( 3 );		// РхАХИЎ ЛѓХТРЬДй. 3УЪ АјАн ЕєЗЙРЬ МГСЄ.

  002db	a1 00 00 00 00	 mov	 eax, DWORD PTR ?g_tmCurrent@@3KA ; g_tmCurrent
  002e0	05 b8 0b 00 00	 add	 eax, 3000		; 00000bb8H

; 1402 : }

  002e5	89 47 3c	 mov	 DWORD PTR [edi+60], eax
$LN49@SubAttackC:
  002e8	5f		 pop	 edi
  002e9	5e		 pop	 esi
  002ea	b8 01 00 00 00	 mov	 eax, 1
  002ef	5b		 pop	 ebx
  002f0	8b e5		 mov	 esp, ebp
  002f2	5d		 pop	 ebp
  002f3	c2 08 00	 ret	 8
?SubAttackChance@CAIMonster@@IAEHABUAIMSG@@PAVCMover@@@Z ENDP ; CAIMonster::SubAttackChance
_TEXT	ENDS
; Function compile flags: /Ogtp
; File C:\IAGOS\server\v18\Source\Source\_aiinterface\aimonster.cpp
; File C:\IAGOS\server\v18\Source\Source\_Common\Project.h
; File C:\IAGOS\server\v18\Source\Source\_aiinterface\aimonster.cpp
; File C:\IAGOS\server\v18\Source\Source\_Common\Mover.h
; File C:\IAGOS\server\v18\Source\Source\_Common\Project.h
; File C:\IAGOS\server\v18\Source\Source\_AIInterface\Action.h
; File C:\IAGOS\server\v18\Source\Source\_Common\Mover.h
; File C:\IAGOS\server\v18\Source\Source\_aiinterface\aimonster.cpp
; File C:\IAGOS\server\v18\Source\Source\_Common\Obj.h
; File C:\IAGOS\server\v18\Source\Source\_AIInterface\Action.h
; File C:\IAGOS\server\v18\Source\Source\_Common\Mover.h
; File C:\IAGOS\server\v18\Source\Source\_aiinterface\aimonster.cpp
; File C:\IAGOS\server\v18\Source\Source\_AIInterface\Action.h
; File C:\IAGOS\server\v18\Source\Source\_aiinterface\aimonster.cpp
; File C:\IAGOS\server\v18\Source\Source\_Common\Obj.h
; File C:\IAGOS\server\v18\Source\Source\DX_SDK\d3dx9math.inl
; File C:\IAGOS\server\v18\Source\Source\_Common\Obj.h
; File C:\IAGOS\server\v18\Source\Source\_aiinterface\aimonster.cpp
; File C:\IAGOS\server\v18\Source\Source\DX_SDK\d3dx9math.inl
; File C:\IAGOS\server\v18\Source\Source\_aiinterface\aimonster.cpp
; File C:\IAGOS\server\v18\Source\Source\_Common\Obj.h
; File C:\IAGOS\server\v18\Source\Source\_aiinterface\aimonster.cpp
; File C:\IAGOS\server\v18\Source\Source\_Common\Obj.h
; File C:\IAGOS\server\v18\Source\Source\_aiinterface\aimonster.cpp
; File C:\IAGOS\server\v18\Source\Source\_Common\Obj.h
; File C:\IAGOS\server\v18\Source\Source\_aiinterface\aimonster.cpp
; File C:\IAGOS\server\v18\Source\Source\_Common\Obj.h
; File C:\IAGOS\server\v18\Source\Source\_aiinterface\aimonster.cpp
; File C:\IAGOS\server\v18\Source\Source\_Common\Obj.h
; File C:\IAGOS\server\v18\Source\Source\_aiinterface\aimonster.cpp
; File C:\IAGOS\server\v18\Source\Source\_Common\Obj.h
; File C:\IAGOS\server\v18\Source\Source\_aiinterface\aimonster.cpp
; File C:\IAGOS\server\v18\Source\Source\_Common\Obj.h
; File C:\IAGOS\server\v18\Source\Source\DX_SDK\d3dx9math.inl
; File C:\IAGOS\server\v18\Source\Source\_Common\Obj.h
; File C:\IAGOS\server\v18\Source\Source\DX_SDK\d3dx9math.inl
; File C:\IAGOS\server\v18\Source\Source\_Common\Obj.h
; File C:\IAGOS\server\v18\Source\Source\DX_SDK\d3dx9math.inl
; File C:\IAGOS\server\v18\Source\Source\_Common\Obj.h
; File C:\IAGOS\server\v18\Source\Source\DX_SDK\d3dx9math.inl
; File C:\IAGOS\server\v18\Source\Source\_aiinterface\aimonster.cpp
; File C:\IAGOS\server\v18\Source\Source\_Common\InstanceDungeonBase.h
; File C:\IAGOS\server\v18\Source\Source\_aiinterface\aimonster.cpp
; File C:\IAGOS\server\v18\Source\Source\DX_SDK\d3dx9math.inl
; File C:\IAGOS\server\v18\Source\Source\_aiinterface\aimonster.cpp
; File C:\IAGOS\server\v18\Source\Source\_Common\Obj.h
; File C:\IAGOS\server\v18\Source\Source\DX_SDK\d3dx9math.inl
; File C:\IAGOS\server\v18\Source\Source\_Common\Obj.h
; File C:\IAGOS\server\v18\Source\Source\_aiinterface\aimonster.cpp
; File C:\IAGOS\server\v18\Source\Source\DX_SDK\d3dx9math.inl
; File C:\IAGOS\server\v18\Source\Source\_aiinterface\aimonster.cpp
; File C:\IAGOS\server\v18\Source\Source\_Common\InstanceDungeonBase.h
; File C:\IAGOS\server\v18\Source\Source\_aiinterface\aimonster.cpp
; File C:\IAGOS\server\v18\Source\Source\_Common\Mover.h
; File C:\IAGOS\server\v18\Source\Source\_aiinterface\aimonster.cpp
; File C:\IAGOS\server\v18\Source\Source\_Common\InstanceDungeonBase.h
; File C:\IAGOS\server\v18\Source\Source\_aiinterface\aimonster.cpp
; File C:\IAGOS\server\v18\Source\Source\DX_SDK\d3dx9math.inl
; File C:\IAGOS\server\v18\Source\Source\_aiinterface\aimonster.cpp
; File C:\IAGOS\server\v18\Source\Source\DX_SDK\d3dx9math.inl
; File C:\IAGOS\server\v18\Source\Source\_aiinterface\aimonster.cpp
; File C:\IAGOS\server\v18\Source\Source\DX_SDK\d3dx9math.inl
; File C:\Program Files (x86)\Windows Kits\10\Include\10.0.26100.0\ucrt\corecrt_math.h
; File C:\IAGOS\server\v18\Source\Source\_aiinterface\aimonster.cpp
; File C:\Program Files (x86)\Windows Kits\10\Include\10.0.26100.0\ucrt\corecrt_math.h
; File C:\IAGOS\server\v18\Source\Source\_aiinterface\aimonster.cpp
; File C:\Program Files (x86)\Windows Kits\10\Include\10.0.26100.0\ucrt\corecrt_math.h
; File C:\IAGOS\server\v18\Source\Source\_aiinterface\aimonster.cpp
; File C:\IAGOS\server\v18\Source\Source\_Common\Obj.h
; File C:\IAGOS\server\v18\Source\Source\_aiinterface\aimonster.cpp
; File C:\IAGOS\server\v18\Source\Source\_Common\Obj.h
; File C:\IAGOS\server\v18\Source\Source\_aiinterface\aimonster.cpp
; File C:\IAGOS\server\v18\Source\Source\_Common\Obj.h
; File C:\IAGOS\server\v18\Source\Source\_aiinterface\aimonster.cpp
; File C:\IAGOS\server\v18\Source\Source\_Common\Obj.h
; File C:\IAGOS\server\v18\Source\Source\_aiinterface\aimonster.cpp
; File C:\IAGOS\server\v18\Source\Source\_Common\Obj.h
; File C:\IAGOS\server\v18\Source\Source\_aiinterface\aimonster.cpp
; File C:\IAGOS\server\v18\Source\Source\_Common\Obj.h
; File C:\IAGOS\server\v18\Source\Source\_aiinterface\aimonster.cpp
; File C:\Program Files (x86)\Windows Kits\10\Include\10.0.26100.0\ucrt\corecrt_math.h
; File C:\IAGOS\server\v18\Source\Source\_Common\Obj.h
; File C:\IAGOS\server\v18\Source\Source\DX_SDK\d3dx9math.inl
; File C:\Program Files (x86)\Windows Kits\10\Include\10.0.26100.0\ucrt\corecrt_math.h
; File C:\IAGOS\server\v18\Source\Source\DX_SDK\d3dx9math.inl
; File C:\IAGOS\server\v18\Source\Source\_Common\Obj.h
; File C:\IAGOS\server\v18\Source\Source\DX_SDK\d3dx9math.inl
; File C:\IAGOS\server\v18\Source\Source\_aiinterface\aimonster.cpp
; File C:\IAGOS\server\v18\Source\Source\_Common\InstanceDungeonBase.h
; File C:\IAGOS\server\v18\Source\Source\_aiinterface\aimonster.cpp
;	COMDAT ?MoveProcessRage@CAIMonster@@IAEHABUAIMSG@@@Z
_TEXT	SEGMENT
_pTarget$1$ = -80					; size = 4
tv1605 = -73						; size = 1
_pMover$1$ = -72					; size = 4
_dwAIState$1$ = -68					; size = 4
_vDist$1 = -64						; size = 12
$T2 = -64						; size = 12
$T3 = -64						; size = 12
tv1475 = -64						; size = 8
_vTargetTo$$sroa$778$1$ = -64				; size = 4
$T4 = -44						; size = 4
_pWorld$1$ = -40					; size = 4
tv1826 = -36						; size = 4
_vTargetTo$$sroa$781$1$ = -36				; size = 4
_vTargetTo$$sroa$780$1$ = -32				; size = 4
$T5 = -28						; size = 12
$T6 = -28						; size = 12
$T7 = -28						; size = 12
$T8 = -28						; size = 12
$T9 = -28						; size = 12
$T10 = -28						; size = 12
_vTarget$11 = -16					; size = 12
_v1$ = -16						; size = 12
_v2$ = -16						; size = 12
$T12 = -16						; size = 12
$T13 = -16						; size = 12
_vDst$14 = -16						; size = 12
__$ArrayPad$ = -4					; size = 4
_msg$ = 8						; size = 4
?MoveProcessRage@CAIMonster@@IAEHABUAIMSG@@@Z PROC	; CAIMonster::MoveProcessRage, COMDAT
; _this$ = ecx

; 1574 : {

  00000	55		 push	 ebp
  00001	8b ec		 mov	 ebp, esp
  00003	83 e4 f8	 and	 esp, -8			; fffffff8H
  00006	83 ec 50	 sub	 esp, 80			; 00000050H
  00009	a1 00 00 00 00	 mov	 eax, DWORD PTR ___security_cookie
  0000e	33 c4		 xor	 eax, esp
  00010	89 44 24 4c	 mov	 DWORD PTR __$ArrayPad$[esp+80], eax
  00014	56		 push	 esi
  00015	57		 push	 edi
  00016	8b f9		 mov	 edi, ecx
; File C:\IAGOS\server\v18\Source\Source\_Common\Project.h

; 1406 : 	VERIFY_RANGE( nIndex, 0, m_nMoverPropSize, "GetMoverProp range_error", NULL );

  00018	8b 0d b4 01 00
	00		 mov	 ecx, DWORD PTR ?prj@@3VCProject@@A+436
; File C:\IAGOS\server\v18\Source\Source\_aiinterface\aimonster.cpp

; 1575 : 	CMover* pMover = GetMover();

  0001e	8b 77 30	 mov	 esi, DWORD PTR [edi+48]
  00021	89 74 24 10	 mov	 DWORD PTR _pMover$1$[esp+88], esi

; 1576 : 	CWorld* pWorld = GetWorld();

  00025	8b 86 6c 01 00
	00		 mov	 eax, DWORD PTR [esi+364]
  0002b	89 44 24 30	 mov	 DWORD PTR _pWorld$1$[esp+88], eax
; File C:\IAGOS\server\v18\Source\Source\_Common\Mover.h

; 1020 : 	MoverProp*		GetProp() { return prj.GetMoverProp( m_dwIndex ); }	// АДУМРЧ ЧСЗЮЦлЦМ ОђБт 	

  0002f	8b 86 74 01 00
	00		 mov	 eax, DWORD PTR [esi+372]
; File C:\IAGOS\server\v18\Source\Source\_Common\Project.h

; 1406 : 	VERIFY_RANGE( nIndex, 0, m_nMoverPropSize, "GetMoverProp range_error", NULL );

  00035	85 c0		 test	 eax, eax
  00037	78 16		 js	 SHORT $LN54@MoveProces
  00039	3b c1		 cmp	 eax, ecx
  0003b	7d 12		 jge	 SHORT $LN54@MoveProces

; 1407 : 	return m_pPropMover + nIndex;

  0003d	69 c8 90 06 00
	00		 imul	 ecx, eax, 1680
  00043	03 0d b8 01 00
	00		 add	 ecx, DWORD PTR ?prj@@3VCProject@@A+440
  00049	89 4c 24 2c	 mov	 DWORD PTR $T4[esp+88], ecx
  0004d	eb 1e		 jmp	 SHORT $LN49@MoveProces
$LN54@MoveProces:

; 579  : 	LPCTSTR szErr = Error( _T( "%s min:%d, max:%d, index:%d" ), szMsg, nMin, nMax, nIndex ); 

  0004f	50		 push	 eax
  00050	51		 push	 ecx
  00051	6a 00		 push	 0
  00053	68 00 00 00 00	 push	 OFFSET ??_C@_0BJ@GKPOBPPI@GetMoverProp?5range_error@
  00058	68 00 00 00 00	 push	 OFFSET ??_C@_0BM@HMFGHCP@?$CFs?5min?3?$CFd?0?5max?3?$CFd?0?5index?3?$CFd@
  0005d	e8 00 00 00 00	 call	 ?Error@@YAPBDPBDZZ	; Error
  00062	83 c4 14	 add	 esp, 20			; 00000014H

; 1406 : 	VERIFY_RANGE( nIndex, 0, m_nMoverPropSize, "GetMoverProp range_error", NULL );

  00065	c7 44 24 2c 00
	00 00 00	 mov	 DWORD PTR $T4[esp+88], 0
$LN49@MoveProces:
; File C:\IAGOS\server\v18\Source\Source\_AIInterface\Action.h

; 310  : 	BOOL			IsDie() { return (m_dwState & OBJSTA_DIE_ALL) ? TRUE : FALSE; }

  0006d	8b 86 38 02 00
	00		 mov	 eax, DWORD PTR [esi+568]
  00073	8b 40 04	 mov	 eax, DWORD PTR [eax+4]
; File C:\IAGOS\server\v18\Source\Source\_Common\Mover.h

; 1250 : 	BOOL			IsDie() { return m_pActMover->IsDie() || m_nHitPoint == 0; }

  00076	a9 00 00 00 08	 test	 eax, 134217728		; 08000000H
  0007b	0f 85 87 07 00
	00		 jne	 $LN3@MoveProces
  00081	83 be f8 05 00
	00 00		 cmp	 DWORD PTR [esi+1528], 0
  00088	0f 84 7a 07 00
	00		 je	 $LN3@MoveProces
; File C:\IAGOS\server\v18\Source\Source\_aiinterface\aimonster.cpp

; 1580 : 	if( pMover->IsDie() || (pMover->m_pActMover->GetState() & OBJSTA_DMG_FLY_ALL) )

  0008e	a9 00 00 00 02	 test	 eax, 33554432		; 02000000H
  00093	0f 85 6f 07 00
	00		 jne	 $LN3@MoveProces

; 1581 : 		return FALSE;
; 1582 : 	
; 1583 : 	CMover* pTarget = prj.GetMover( m_dwIdTarget ); 

  00099	ff b7 d8 00 00
	00		 push	 DWORD PTR [edi+216]
  0009f	b9 00 00 00 00	 mov	 ecx, OFFSET ?prj@@3VCProject@@A ; prj
  000a4	e8 00 00 00 00	 call	 ?GetMover@CProject@@QAEPAVCMover@@K@Z ; CProject::GetMover
  000a9	8b d0		 mov	 edx, eax

; 1584 : 
; 1585 : 	DWORD dwAIState = pMover->m_dwAIInterfaceState;

  000ab	8b 86 90 01 00
	00		 mov	 eax, DWORD PTR [esi+400]
  000b1	89 54 24 08	 mov	 DWORD PTR _pTarget$1$[esp+88], edx
  000b5	89 44 24 14	 mov	 DWORD PTR _dwAIState$1$[esp+88], eax
; File C:\IAGOS\server\v18\Source\Source\_Common\Obj.h

; 327  : 	return pObj && ( pObj->IsDelete() == FALSE ); 

  000b9	85 d2		 test	 edx, edx
  000bb	0f 84 a5 06 00
	00		 je	 $LN5@MoveProces

; 180  : 	BOOL			IsDelete()	{ return (m_dwFlags & OBJ_FLAG_DELETE);  }

  000c1	f6 42 04 01	 test	 BYTE PTR [edx+4], 1

; 327  : 	return pObj && ( pObj->IsDelete() == FALSE ); 

  000c5	0f 85 9b 06 00
	00		 jne	 $LN5@MoveProces
; File C:\IAGOS\server\v18\Source\Source\_AIInterface\Action.h

; 310  : 	BOOL			IsDie() { return (m_dwState & OBJSTA_DIE_ALL) ? TRUE : FALSE; }

  000cb	8b 8a 38 02 00
	00		 mov	 ecx, DWORD PTR [edx+568]
; File C:\IAGOS\server\v18\Source\Source\_Common\Mover.h

; 1250 : 	BOOL			IsDie() { return m_pActMover->IsDie() || m_nHitPoint == 0; }

  000d1	f7 41 04 00 00
	00 08		 test	 DWORD PTR [ecx+4], 134217728 ; 08000000H
  000d8	0f 85 88 06 00
	00		 jne	 $LN5@MoveProces
  000de	83 ba f8 05 00
	00 00		 cmp	 DWORD PTR [edx+1528], 0
  000e5	0f 84 7b 06 00
	00		 je	 $LN5@MoveProces
; File C:\IAGOS\server\v18\Source\Source\_aiinterface\aimonster.cpp

; 1589 : 		|| pTarget->GetWorld() != pMover->GetWorld()

  000eb	8b 82 6c 01 00
	00		 mov	 eax, DWORD PTR [edx+364]
  000f1	3b 86 6c 01 00
	00		 cmp	 eax, DWORD PTR [esi+364]
  000f7	0f 85 69 06 00
	00		 jne	 $LN5@MoveProces

; 1617 : 		}
; 1618 : #endif	// __AI_0509
; 1619 : 	}
; 1620 : 
; 1621 : #if __VER >= 9	//__AI_0509
; 1622 : 	if( pTarget->IsRegionAttr( RA_SAFETY ) && pProp->dwClass != RANK_GUARD )	// ХИАй ОШРќ ПЕПЊ вЎ

  000fd	f6 82 d0 02 00
	00 10		 test	 BYTE PTR [edx+720], 16	; 00000010H
  00104	74 40		 je	 SHORT $LN11@MoveProces
  00106	8b 44 24 2c	 mov	 eax, DWORD PTR $T4[esp+88]
  0010a	83 b8 94 00 00
	00 08		 cmp	 DWORD PTR [eax+148], 8
  00111	74 33		 je	 SHORT $LN11@MoveProces
$LN183@MoveProces:

; 1798 : }

  00113	6a 01		 push	 1
  00115	8b cf		 mov	 ecx, edi
  00117	e8 00 00 00 00	 call	 ?DoReturnToBegin@CAIMonster@@IAEXH@Z ; CAIMonster::DoReturnToBegin
  0011c	8b 07		 mov	 eax, DWORD PTR [edi]
  0011e	8b cf		 mov	 ecx, edi
  00120	8b 74 24 14	 mov	 esi, DWORD PTR _dwAIState$1$[esp+88]
  00124	6a 00		 push	 0
  00126	6a 00		 push	 0
  00128	56		 push	 esi
  00129	6a 04		 push	 4
  0012b	ff 50 0c	 call	 DWORD PTR [eax+12]
  0012e	b8 01 00 00 00	 mov	 eax, 1
  00133	5f		 pop	 edi
  00134	5e		 pop	 esi
  00135	8b 4c 24 4c	 mov	 ecx, DWORD PTR __$ArrayPad$[esp+80]
  00139	33 cc		 xor	 ecx, esp
  0013b	e8 00 00 00 00	 call	 @__security_check_cookie@4
  00140	8b e5		 mov	 esp, ebp
  00142	5d		 pop	 ebp
  00143	c2 04 00	 ret	 4
$LN11@MoveProces:
; File C:\IAGOS\server\v18\Source\Source\_AIInterface\Action.h

; 309  : 	BOOL			IsFly() { return (m_dwStateFlag & OBJSTAF_FLY) ? TRUE : FALSE; }

  00146	8b 49 08	 mov	 ecx, DWORD PTR [ecx+8]
  00149	0f b7 86 3e 02
	00 00		 movzx	 eax, WORD PTR [esi+574]
  00150	c1 e9 03	 shr	 ecx, 3
; File C:\IAGOS\server\v18\Source\Source\_aiinterface\aimonster.cpp

; 1633 : 	if( pMover->IsFlyingNPC() != ((CMover*)pTarget)->m_pActMover->IsFly() )	// thisАЁ КёЧрЧќРЬ ОЦДЯАэ ЛѓДыАЁ КёЧрСпРЬЖѓИщ

  00153	33 c8		 xor	 ecx, eax
  00155	f6 c1 01	 test	 cl, 1
  00158	74 38		 je	 SHORT $LN12@MoveProces

; 1634 : #endif	// __VER >= 8  
; 1635 : 	{
; 1636 : 		if( dwAIState == STATE_STAND )

  0015a	8b 74 24 14	 mov	 esi, DWORD PTR _dwAIState$1$[esp+88]
  0015e	83 fe 08	 cmp	 esi, 8
  00161	75 09		 jne	 SHORT $LN13@MoveProces

; 1637 : 			DoReturnToBegin();

  00163	6a 01		 push	 1
  00165	8b cf		 mov	 ecx, edi
  00167	e8 00 00 00 00	 call	 ?DoReturnToBegin@CAIMonster@@IAEXH@Z ; CAIMonster::DoReturnToBegin
$LN13@MoveProces:

; 1638 : 		
; 1639 : 		SendAIMsg( AIMSG_SETSTATE, dwAIState );

  0016c	8b 07		 mov	 eax, DWORD PTR [edi]
  0016e	8b cf		 mov	 ecx, edi
  00170	6a 00		 push	 0
  00172	6a 00		 push	 0
  00174	56		 push	 esi
  00175	6a 04		 push	 4
  00177	ff 50 0c	 call	 DWORD PTR [eax+12]

; 1640 : 		return TRUE;

  0017a	b8 01 00 00 00	 mov	 eax, 1

; 1798 : }

  0017f	5f		 pop	 edi
  00180	5e		 pop	 esi
  00181	8b 4c 24 4c	 mov	 ecx, DWORD PTR __$ArrayPad$[esp+80]
  00185	33 cc		 xor	 ecx, esp
  00187	e8 00 00 00 00	 call	 @__security_check_cookie@4
  0018c	8b e5		 mov	 esp, ebp
  0018e	5d		 pop	 ebp
  0018f	c2 04 00	 ret	 4
$LN12@MoveProces:

; 1641 : 	}
; 1642 : 
; 1643 : 	if( TIMEGETTIME > m_tmAttack )	// АјАн ИјЧбСі 20УЪ СіГЕГФ?

  00192	8b 0d 00 00 00
	00		 mov	 ecx, DWORD PTR ?g_tmCurrent@@3KA ; g_tmCurrent
  00198	3b 4f 40	 cmp	 ecx, DWORD PTR [edi+64]
  0019b	0f 86 f8 00 00
	00		 jbe	 $LN168@MoveProces

; 1644 : 	{
; 1645 : 		m_tmAttack	= TIMEGETTIME + s_tmAttack;	// ХИРЬИг ИЎМТ

  001a1	a1 00 00 00 00	 mov	 eax, DWORD PTR ?s_tmAttack@@3KA
  001a6	03 c1		 add	 eax, ecx

; 1646 : 		// 5УЪРќ СТЧЅПЭ СіБн СТЧЅРЧ АХИЎИІ АшЛъ.
; 1647 : 		D3DXVECTOR3 vDist = pMover->GetPos() - m_vOldPos;
; 1648 : 		vDist.y	= 0;	// ПЗРИЗЮ ЛьТІПђСїПДДТЕЅ ЛъРЇЗЮ ШЎ ПУЖѓАЌРЛЖЉ АХИЎАЁ ОіУЛ ИжМі РжДй. БзЗЁМ­ РЬЗИАд ЧбАЭ.

  001a8	c7 44 24 1c 00
	00 00 00	 mov	 DWORD PTR _vDist$1[esp+92], 0
  001b0	89 47 40	 mov	 DWORD PTR [edi+64], eax
; File C:\IAGOS\server\v18\Source\Source\_Common\Obj.h

; 215  : 	D3DXVECTOR3		GetPos()	{ return m_vPos; }

  001b3	f3 0f 7e 86 60
	01 00 00	 movq	 xmm0, QWORD PTR [esi+352]
  001bb	8b 86 68 01 00
	00		 mov	 eax, DWORD PTR [esi+360]
  001c1	66 0f d6 44 24
	3c		 movq	 QWORD PTR $T5[esp+88], xmm0
; File C:\IAGOS\server\v18\Source\Source\DX_SDK\d3dx9math.inl

; 383  :     return D3DXVECTOR3(x - v.x, y - v.y, z - v.z);

  001c7	f3 0f 10 44 24
	3c		 movss	 xmm0, DWORD PTR $T5[esp+88]
  001cd	f3 0f 5c 47 68	 subss	 xmm0, DWORD PTR [edi+104]
; File C:\IAGOS\server\v18\Source\Source\_Common\Obj.h

; 215  : 	D3DXVECTOR3		GetPos()	{ return m_vPos; }

  001d2	89 44 24 44	 mov	 DWORD PTR $T5[esp+96], eax
; File C:\IAGOS\server\v18\Source\Source\_aiinterface\aimonster.cpp

; 1649 : 		if( IsInRange( vDist, 2.0f ) )	// 2ЙЬХЭИІ ИјЙўОюГЕДйИщ ОюЕђАЁПЁ АЎЧћДйДТ Жц.

  001d6	8d 44 24 18	 lea	 eax, DWORD PTR _vDist$1[esp+88]
  001da	51		 push	 ecx
  001db	c7 04 24 00 00
	00 40		 mov	 DWORD PTR [esp], 1073741824 ; 40000000H
  001e2	8b cf		 mov	 ecx, edi
  001e4	50		 push	 eax
; File C:\IAGOS\server\v18\Source\Source\DX_SDK\d3dx9math.inl

; 300  :     x = fx;

  001e5	f3 0f 11 44 24
	20		 movss	 DWORD PTR _vDist$1[esp+96], xmm0

; 383  :     return D3DXVECTOR3(x - v.x, y - v.y, z - v.z);

  001eb	f3 0f 10 44 24
	4c		 movss	 xmm0, DWORD PTR $T5[esp+104]
  001f1	f3 0f 5c 47 70	 subss	 xmm0, DWORD PTR [edi+112]

; 302  :     z = fz;

  001f6	f3 0f 11 44 24
	28		 movss	 DWORD PTR _vDist$1[esp+104], xmm0
; File C:\IAGOS\server\v18\Source\Source\_aiinterface\aimonster.cpp

; 1649 : 		if( IsInRange( vDist, 2.0f ) )	// 2ЙЬХЭИІ ИјЙўОюГЕДйИщ ОюЕђАЁПЁ АЎЧћДйДТ Жц.

  001fc	e8 00 00 00 00	 call	 ?IsInRange@CAIMonster@@IAEHAAUD3DXVECTOR3@@M@Z ; CAIMonster::IsInRange
  00201	85 c0		 test	 eax, eax
  00203	74 7a		 je	 SHORT $LN16@MoveProces

; 1650 : 		{
; 1651 : 			if( pMover->GetSpeed( pMover->m_pActMover->m_fSpeed ) > 0 )		// ИЖЙ§РћРИЗЮ ПђСїРЬСі ИјЧЯАд ЕШЛѓХТПЁМБ ПіЧСЧЯИщ ОШЕЪ.

  00205	8b 86 38 02 00
	00		 mov	 eax, DWORD PTR [esi+568]
  0020b	51		 push	 ecx
  0020c	8b ce		 mov	 ecx, esi
  0020e	f3 0f 10 40 48	 movss	 xmm0, DWORD PTR [eax+72]
  00213	f3 0f 11 04 24	 movss	 DWORD PTR [esp], xmm0
  00218	e8 00 00 00 00	 call	 ?GetSpeed@CMover@@QAEMM@Z ; CMover::GetSpeed
  0021d	d9 5c 24 34	 fstp	 DWORD PTR tv1826[esp+88]
  00221	f3 0f 10 44 24
	34		 movss	 xmm0, DWORD PTR tv1826[esp+88]
  00227	0f 57 d2	 xorps	 xmm2, xmm2
  0022a	0f 2f c2	 comiss	 xmm0, xmm2
  0022d	76 50		 jbe	 SHORT $LN16@MoveProces
; File C:\IAGOS\server\v18\Source\Source\_Common\Obj.h

; 215  : 	D3DXVECTOR3		GetPos()	{ return m_vPos; }

  0022f	8b 44 24 08	 mov	 eax, DWORD PTR _pTarget$1$[esp+88]
; File C:\IAGOS\server\v18\Source\Source\_aiinterface\aimonster.cpp

; 1654 : 				pMover->SetPos( vTarget );	// АЎЧћРИИщ ХИАйТЪРИЗЮ ЙйЗЮ ПіЧС.

  00233	8b ce		 mov	 ecx, esi
; File C:\IAGOS\server\v18\Source\Source\_Common\Obj.h

; 215  : 	D3DXVECTOR3		GetPos()	{ return m_vPos; }

  00235	f3 0f 7e 80 60
	01 00 00	 movq	 xmm0, QWORD PTR [eax+352]
  0023d	8b 80 68 01 00
	00		 mov	 eax, DWORD PTR [eax+360]
  00243	89 44 24 50	 mov	 DWORD PTR _vTarget$11[esp+96], eax
; File C:\IAGOS\server\v18\Source\Source\_aiinterface\aimonster.cpp

; 1654 : 				pMover->SetPos( vTarget );	// АЎЧћРИИщ ХИАйТЪРИЗЮ ЙйЗЮ ПіЧС.

  00247	8d 44 24 48	 lea	 eax, DWORD PTR _vTarget$11[esp+88]
  0024b	50		 push	 eax
; File C:\IAGOS\server\v18\Source\Source\_Common\Obj.h

; 215  : 	D3DXVECTOR3		GetPos()	{ return m_vPos; }

  0024c	66 0f d6 44 24
	4c		 movq	 QWORD PTR _vTarget$11[esp+92], xmm0
; File C:\IAGOS\server\v18\Source\Source\_aiinterface\aimonster.cpp

; 1654 : 				pMover->SetPos( vTarget );	// АЎЧћРИИщ ХИАйТЪРИЗЮ ЙйЗЮ ПіЧС.

  00252	e8 00 00 00 00	 call	 ?SetPos@CObj@@QAEXABUD3DXVECTOR3@@@Z ; CObj::SetPos
; File C:\IAGOS\server\v18\Source\Source\_Common\Obj.h

; 215  : 	D3DXVECTOR3		GetPos()	{ return m_vPos; }

  00257	8b 86 68 01 00
	00		 mov	 eax, DWORD PTR [esi+360]
; File C:\IAGOS\server\v18\Source\Source\_aiinterface\aimonster.cpp

; 1655 : 				g_UserMng.AddSetPos( pMover, pMover->GetPos() );

  0025d	b9 00 00 00 00	 mov	 ecx, OFFSET ?g_UserMng@@3VCUserMng@@A ; g_UserMng
; File C:\IAGOS\server\v18\Source\Source\_Common\Obj.h

; 215  : 	D3DXVECTOR3		GetPos()	{ return m_vPos; }

  00262	f3 0f 7e 86 60
	01 00 00	 movq	 xmm0, QWORD PTR [esi+352]
  0026a	89 44 24 44	 mov	 DWORD PTR $T6[esp+96], eax
; File C:\IAGOS\server\v18\Source\Source\_aiinterface\aimonster.cpp

; 1655 : 				g_UserMng.AddSetPos( pMover, pMover->GetPos() );

  0026e	8d 44 24 3c	 lea	 eax, DWORD PTR $T6[esp+88]
  00272	50		 push	 eax
  00273	56		 push	 esi
; File C:\IAGOS\server\v18\Source\Source\_Common\Obj.h

; 215  : 	D3DXVECTOR3		GetPos()	{ return m_vPos; }

  00274	66 0f d6 44 24
	44		 movq	 QWORD PTR $T6[esp+96], xmm0
; File C:\IAGOS\server\v18\Source\Source\_aiinterface\aimonster.cpp

; 1655 : 				g_UserMng.AddSetPos( pMover, pMover->GetPos() );

  0027a	e8 00 00 00 00	 call	 ?AddSetPos@CUserMng@@QAEXPAVCCtrl@@AAUD3DXVECTOR3@@@Z ; CUserMng::AddSetPos
$LN16@MoveProces:

; 1656 : 			} 
; 1657 : 		} 
; 1658 : #if __VER < 9	// __AI_0509
; 1659 : 		else
; 1660 : 		{
; 1661 : 			m_tmReturnToBegin	= TIMEGETTIME;	// ДйНУ ЕЙОЦАЅЖЉ НУАЃРЛ РчБтНУРл.  xУЪАЃРК ИТОЦЕЕ ЙнАнОШЧЯАэ АшМг АЃДй.
; 1662 : 			if( dwAIState == STATE_STAND )
; 1663 : 				DoReturnToBegin();
; 1664 : 			SendAIMsg( AIMSG_SETSTATE, dwAIState );
; 1665 : 			return TRUE;
; 1666 : 		}
; 1667 : #endif	// __AI_0509
; 1668 : 		m_vOldPos = pMover->GetPos();	// ЧіРч СТЧЅИІ РњРхЧд.

  0027f	f3 0f 7e 86 60
	01 00 00	 movq	 xmm0, QWORD PTR [esi+352]
  00287	8b 54 24 08	 mov	 edx, DWORD PTR _pTarget$1$[esp+88]
  0028b	66 0f d6 47 68	 movq	 QWORD PTR [edi+104], xmm0
  00290	8b 86 68 01 00
	00		 mov	 eax, DWORD PTR [esi+360]
  00296	89 47 70	 mov	 DWORD PTR [edi+112], eax
$LN168@MoveProces:

; 1678 : 	if( pMover->IsFlyingNPC() )

  00299	f7 86 3c 02 00
	00 00 00 01 00	 test	 DWORD PTR [esi+572], 65536 ; 00010000H
; File C:\IAGOS\server\v18\Source\Source\_Common\Obj.h

; 215  : 	D3DXVECTOR3		GetPos()	{ return m_vPos; }

  002a3	f3 0f 7e 86 60
	01 00 00	 movq	 xmm0, QWORD PTR [esi+352]
  002ab	66 0f d6 44 24
	3c		 movq	 QWORD PTR $T7[esp+88], xmm0
  002b1	f3 0f 7e 82 60
	01 00 00	 movq	 xmm0, QWORD PTR [edx+352]
  002b9	8b 86 68 01 00
	00		 mov	 eax, DWORD PTR [esi+360]
  002bf	66 0f d6 44 24
	18		 movq	 QWORD PTR $T2[esp+88], xmm0
; File C:\IAGOS\server\v18\Source\Source\DX_SDK\d3dx9math.inl

; 383  :     return D3DXVECTOR3(x - v.x, y - v.y, z - v.z);

  002c5	f3 0f 10 44 24
	18		 movss	 xmm0, DWORD PTR $T2[esp+88]
  002cb	f3 0f 5c 44 24
	3c		 subss	 xmm0, DWORD PTR $T7[esp+88]
; File C:\IAGOS\server\v18\Source\Source\_Common\Obj.h

; 215  : 	D3DXVECTOR3		GetPos()	{ return m_vPos; }

  002d1	89 44 24 44	 mov	 DWORD PTR $T7[esp+96], eax
  002d5	8b 82 68 01 00
	00		 mov	 eax, DWORD PTR [edx+360]
  002db	89 44 24 20	 mov	 DWORD PTR $T2[esp+96], eax
  002df	8b 86 68 01 00
	00		 mov	 eax, DWORD PTR [esi+360]
; File C:\IAGOS\server\v18\Source\Source\DX_SDK\d3dx9math.inl

; 383  :     return D3DXVECTOR3(x - v.x, y - v.y, z - v.z);

  002e5	f3 0f 11 44 24
	34		 movss	 DWORD PTR _vTargetTo$$sroa$781$1$[esp+88], xmm0
  002eb	f3 0f 10 44 24
	1c		 movss	 xmm0, DWORD PTR $T2[esp+92]
  002f1	f3 0f 5c 44 24
	40		 subss	 xmm0, DWORD PTR $T7[esp+92]
  002f7	f3 0f 11 44 24
	38		 movss	 DWORD PTR _vTargetTo$$sroa$780$1$[esp+88], xmm0
  002fd	f3 0f 10 44 24
	20		 movss	 xmm0, DWORD PTR $T2[esp+96]
  00303	f3 0f 5c 44 24
	44		 subss	 xmm0, DWORD PTR $T7[esp+96]
; File C:\IAGOS\server\v18\Source\Source\_Common\Obj.h

; 215  : 	D3DXVECTOR3		GetPos()	{ return m_vPos; }

  00309	89 44 24 44	 mov	 DWORD PTR $T8[esp+96], eax
; File C:\IAGOS\server\v18\Source\Source\DX_SDK\d3dx9math.inl

; 383  :     return D3DXVECTOR3(x - v.x, y - v.y, z - v.z);

  0030d	f3 0f 11 44 24
	18		 movss	 DWORD PTR _vTargetTo$$sroa$778$1$[esp+88], xmm0
; File C:\IAGOS\server\v18\Source\Source\_Common\Obj.h

; 215  : 	D3DXVECTOR3		GetPos()	{ return m_vPos; }

  00313	f3 0f 7e 86 60
	01 00 00	 movq	 xmm0, QWORD PTR [esi+352]
  0031b	66 0f d6 44 24
	3c		 movq	 QWORD PTR $T8[esp+88], xmm0
; File C:\IAGOS\server\v18\Source\Source\DX_SDK\d3dx9math.inl

; 383  :     return D3DXVECTOR3(x - v.x, y - v.y, z - v.z);

  00321	f3 0f 10 44 24
	3c		 movss	 xmm0, DWORD PTR $T8[esp+88]
  00327	f3 0f 5c 47 50	 subss	 xmm0, DWORD PTR [edi+80]

; 300  :     x = fx;

  0032c	f3 0f 11 44 24
	48		 movss	 DWORD PTR _v1$[esp+88], xmm0

; 383  :     return D3DXVECTOR3(x - v.x, y - v.y, z - v.z);

  00332	f3 0f 10 44 24
	40		 movss	 xmm0, DWORD PTR $T8[esp+92]
  00338	f3 0f 5c 47 54	 subss	 xmm0, DWORD PTR [edi+84]

; 301  :     y = fy;

  0033d	f3 0f 11 44 24
	4c		 movss	 DWORD PTR _v1$[esp+92], xmm0

; 383  :     return D3DXVECTOR3(x - v.x, y - v.y, z - v.z);

  00343	f3 0f 10 44 24
	44		 movss	 xmm0, DWORD PTR $T8[esp+96]
  00349	f3 0f 5c 47 58	 subss	 xmm0, DWORD PTR [edi+88]

; 302  :     z = fz;

  0034e	f3 0f 11 44 24
	50		 movss	 DWORD PTR _v1$[esp+96], xmm0
; File C:\IAGOS\server\v18\Source\Source\_aiinterface\aimonster.cpp

; 1677 : 	FLOAT fRange	= RANGE_MOVE;

  00354	f3 0f 10 05 00
	00 00 00	 movss	 xmm0, DWORD PTR __real@41f00000

; 1678 : 	if( pMover->IsFlyingNPC() )

  0035c	74 08		 je	 SHORT $LN17@MoveProces

; 1679 : 		fRange	*= 3.0F;

  0035e	f3 0f 10 05 00
	00 00 00	 movss	 xmm0, DWORD PTR __real@42b40000
$LN17@MoveProces:

; 1683 : 		&& !CInstanceDungeonHelper::GetInstance()->IsInstanceDungeon( pWorld->GetID() )

  00366	f3 0f 58 05 00
	00 00 00	 addss	 xmm0, DWORD PTR __real@42f00000
  0036e	51		 push	 ecx
  0036f	8d 44 24 4c	 lea	 eax, DWORD PTR _v1$[esp+92]
  00373	8b cf		 mov	 ecx, edi
  00375	f3 0f 11 04 24	 movss	 DWORD PTR [esp], xmm0
  0037a	50		 push	 eax
  0037b	e8 00 00 00 00	 call	 ?IsInRange@CAIMonster@@IAEHAAUD3DXVECTOR3@@M@Z ; CAIMonster::IsInRange
  00380	85 c0		 test	 eax, eax
  00382	75 20		 jne	 SHORT $LN169@MoveProces
  00384	8b 74 24 30	 mov	 esi, DWORD PTR _pWorld$1$[esp+88]
  00388	8b 36		 mov	 esi, DWORD PTR [esi]
  0038a	e8 00 00 00 00	 call	 ?GetInstance@CInstanceDungeonHelper@@SAPAV1@XZ ; CInstanceDungeonHelper::GetInstance
; File C:\IAGOS\server\v18\Source\Source\_Common\InstanceDungeonBase.h

; 205  : 	BOOL	IsInstanceDungeon( DWORD dwWorldId )	{ return GetType( dwWorldId ) != NULL_ID; }

  0038f	56		 push	 esi
  00390	8b c8		 mov	 ecx, eax
  00392	e8 00 00 00 00	 call	 ?GetType@CInstanceDungeonHelper@@AAEHK@Z ; CInstanceDungeonHelper::GetType
  00397	83 f8 ff	 cmp	 eax, -1
; File C:\IAGOS\server\v18\Source\Source\_aiinterface\aimonster.cpp

; 1683 : 		&& !CInstanceDungeonHelper::GetInstance()->IsInstanceDungeon( pWorld->GetID() )

  0039a	0f 84 73 fd ff
	ff		 je	 $LN183@MoveProces
  003a0	8b 74 24 10	 mov	 esi, DWORD PTR _pMover$1$[esp+88]
$LN169@MoveProces:
; File C:\IAGOS\server\v18\Source\Source\DX_SDK\d3dx9math.inl

; 410  :     return x == v.x && y == v.y && z == v.z;

  003a4	f3 0f 10 47 74	 movss	 xmm0, DWORD PTR [edi+116]
  003a9	0f 57 c9	 xorps	 xmm1, xmm1
  003ac	0f 2e c1	 ucomiss xmm0, xmm1
  003af	9f		 lahf
  003b0	f6 c4 44	 test	 ah, 68			; 00000044H
  003b3	7a 32		 jp	 SHORT $LN19@MoveProces
  003b5	f3 0f 10 47 78	 movss	 xmm0, DWORD PTR [edi+120]
  003ba	0f 2e c1	 ucomiss xmm0, xmm1
  003bd	9f		 lahf
  003be	f6 c4 44	 test	 ah, 68			; 00000044H
  003c1	7a 24		 jp	 SHORT $LN19@MoveProces
  003c3	f3 0f 10 47 7c	 movss	 xmm0, DWORD PTR [edi+124]
  003c8	0f 2e c1	 ucomiss xmm0, xmm1
  003cb	9f		 lahf
  003cc	f6 c4 44	 test	 ah, 68			; 00000044H
  003cf	7a 16		 jp	 SHORT $LN19@MoveProces
; File C:\IAGOS\server\v18\Source\Source\_aiinterface\aimonster.cpp

; 1692 : 		m_vPosDamage	= pMover->GetPos();

  003d1	f3 0f 7e 86 60
	01 00 00	 movq	 xmm0, QWORD PTR [esi+352]
  003d9	66 0f d6 47 74	 movq	 QWORD PTR [edi+116], xmm0
  003de	8b 86 68 01 00
	00		 mov	 eax, DWORD PTR [esi+360]
  003e4	89 47 7c	 mov	 DWORD PTR [edi+124], eax
$LN19@MoveProces:
; File C:\IAGOS\server\v18\Source\Source\_Common\Obj.h

; 215  : 	D3DXVECTOR3		GetPos()	{ return m_vPos; }

  003e7	f3 0f 7e 86 60
	01 00 00	 movq	 xmm0, QWORD PTR [esi+352]
  003ef	8b 86 68 01 00
	00		 mov	 eax, DWORD PTR [esi+360]
  003f5	66 0f d6 44 24
	3c		 movq	 QWORD PTR $T9[esp+88], xmm0
; File C:\IAGOS\server\v18\Source\Source\DX_SDK\d3dx9math.inl

; 383  :     return D3DXVECTOR3(x - v.x, y - v.y, z - v.z);

  003fb	f3 0f 10 44 24
	3c		 movss	 xmm0, DWORD PTR $T9[esp+88]
  00401	f3 0f 5c 47 74	 subss	 xmm0, DWORD PTR [edi+116]
; File C:\IAGOS\server\v18\Source\Source\_Common\Obj.h

; 215  : 	D3DXVECTOR3		GetPos()	{ return m_vPos; }

  00406	89 44 24 44	 mov	 DWORD PTR $T9[esp+96], eax
; File C:\IAGOS\server\v18\Source\Source\_aiinterface\aimonster.cpp

; 1697 : 		&& !CInstanceDungeonHelper::GetInstance()->IsInstanceDungeon( pWorld->GetID() )

  0040a	8d 44 24 48	 lea	 eax, DWORD PTR _v2$[esp+88]
  0040e	51		 push	 ecx
  0040f	c7 04 24 00 00
	f0 42		 mov	 DWORD PTR [esp], 1123024896 ; 42f00000H
  00416	8b cf		 mov	 ecx, edi
  00418	50		 push	 eax
; File C:\IAGOS\server\v18\Source\Source\DX_SDK\d3dx9math.inl

; 300  :     x = fx;

  00419	f3 0f 11 44 24
	50		 movss	 DWORD PTR _v2$[esp+96], xmm0

; 383  :     return D3DXVECTOR3(x - v.x, y - v.y, z - v.z);

  0041f	f3 0f 10 44 24
	48		 movss	 xmm0, DWORD PTR $T9[esp+100]
  00425	f3 0f 5c 47 78	 subss	 xmm0, DWORD PTR [edi+120]

; 301  :     y = fy;

  0042a	f3 0f 11 44 24
	54		 movss	 DWORD PTR _v2$[esp+100], xmm0

; 383  :     return D3DXVECTOR3(x - v.x, y - v.y, z - v.z);

  00430	f3 0f 10 44 24
	4c		 movss	 xmm0, DWORD PTR $T9[esp+104]
  00436	f3 0f 5c 47 7c	 subss	 xmm0, DWORD PTR [edi+124]

; 302  :     z = fz;

  0043b	f3 0f 11 44 24
	58		 movss	 DWORD PTR _v2$[esp+104], xmm0
; File C:\IAGOS\server\v18\Source\Source\_aiinterface\aimonster.cpp

; 1697 : 		&& !CInstanceDungeonHelper::GetInstance()->IsInstanceDungeon( pWorld->GetID() )

  00441	e8 00 00 00 00	 call	 ?IsInRange@CAIMonster@@IAEHAAUD3DXVECTOR3@@M@Z ; CAIMonster::IsInRange
  00446	85 c0		 test	 eax, eax
  00448	75 1c		 jne	 SHORT $LN20@MoveProces
  0044a	8b 44 24 30	 mov	 eax, DWORD PTR _pWorld$1$[esp+88]
  0044e	8b 30		 mov	 esi, DWORD PTR [eax]
  00450	e8 00 00 00 00	 call	 ?GetInstance@CInstanceDungeonHelper@@SAPAV1@XZ ; CInstanceDungeonHelper::GetInstance
; File C:\IAGOS\server\v18\Source\Source\_Common\InstanceDungeonBase.h

; 205  : 	BOOL	IsInstanceDungeon( DWORD dwWorldId )	{ return GetType( dwWorldId ) != NULL_ID; }

  00455	56		 push	 esi
  00456	8b c8		 mov	 ecx, eax
  00458	e8 00 00 00 00	 call	 ?GetType@CInstanceDungeonHelper@@AAEHK@Z ; CInstanceDungeonHelper::GetType
  0045d	83 f8 ff	 cmp	 eax, -1
; File C:\IAGOS\server\v18\Source\Source\_aiinterface\aimonster.cpp

; 1697 : 		&& !CInstanceDungeonHelper::GetInstance()->IsInstanceDungeon( pWorld->GetID() )

  00460	0f 84 ad fc ff
	ff		 je	 $LN183@MoveProces
$LN20@MoveProces:

; 1719 : 	else if( pTarget->GetType() == OT_MOVER && ((CMover *)pTarget)->IsMode( TRANSPARENT_MODE ) )		// ІiАэ РжДј ХИАйРЬ ХѕИэШ­ ЛѓХТАЁ ЕЧИщ 

  00466	8b 74 24 08	 mov	 esi, DWORD PTR _pTarget$1$[esp+88]
  0046a	83 be 70 01 00
	00 05		 cmp	 DWORD PTR [esi+368], 5
  00471	0f 85 b6 00 00
	00		 jne	 $LN22@MoveProces
; File C:\IAGOS\server\v18\Source\Source\_Common\Mover.h

; 1740 : 		if( GetAdjParam(DST_CHRSTATE) & CHS_INVISIBILITY )	// ИЖЙ§ХѕИэШ­АЁ АЩЗШДТАЁ?

  00477	6a 40		 push	 64			; 00000040H
  00479	8b ce		 mov	 ecx, esi
  0047b	e8 00 00 00 00	 call	 ?GetAdjParam@CMover@@QAEHH@Z ; CMover::GetAdjParam
  00480	a9 00 04 00 00	 test	 eax, 1024		; 00000400H
  00485	75 0d		 jne	 SHORT $LN170@MoveProces
; File C:\IAGOS\server\v18\Source\Source\_aiinterface\aimonster.cpp

; 1719 : 	else if( pTarget->GetType() == OT_MOVER && ((CMover *)pTarget)->IsMode( TRANSPARENT_MODE ) )		// ІiАэ РжДј ХИАйРЬ ХѕИэШ­ ЛѓХТАЁ ЕЧИщ 

  00487	f6 86 40 02 00
	00 02		 test	 BYTE PTR [esi+576], 2
  0048e	0f 84 99 00 00
	00		 je	 $LN22@MoveProces
$LN170@MoveProces:

; 1722 : 		if( CInstanceDungeonHelper::GetInstance()->IsInstanceDungeon( pWorld->GetID() ) )

  00494	8b 44 24 30	 mov	 eax, DWORD PTR _pWorld$1$[esp+88]
  00498	8b 30		 mov	 esi, DWORD PTR [eax]
  0049a	e8 00 00 00 00	 call	 ?GetInstance@CInstanceDungeonHelper@@SAPAV1@XZ ; CInstanceDungeonHelper::GetInstance
; File C:\IAGOS\server\v18\Source\Source\_Common\InstanceDungeonBase.h

; 205  : 	BOOL	IsInstanceDungeon( DWORD dwWorldId )	{ return GetType( dwWorldId ) != NULL_ID; }

  0049f	56		 push	 esi
  004a0	8b c8		 mov	 ecx, eax
  004a2	e8 00 00 00 00	 call	 ?GetType@CInstanceDungeonHelper@@AAEHK@Z ; CInstanceDungeonHelper::GetType
  004a7	83 f8 ff	 cmp	 eax, -1
; File C:\IAGOS\server\v18\Source\Source\_aiinterface\aimonster.cpp

; 1722 : 		if( CInstanceDungeonHelper::GetInstance()->IsInstanceDungeon( pWorld->GetID() ) )

  004aa	74 49		 je	 SHORT $LN25@MoveProces

; 1723 : 		{
; 1724 : 			CMover* pTarget = ScanTargetNext( pMover, 160, m_dwIdTarget, m_uParty );	// ЙќРЇ 50ЙЬХЭ РЬГЛИІ НКФЕЧбДй.

  004ac	ff 77 34	 push	 DWORD PTR [edi+52]
  004af	8b 74 24 14	 mov	 esi, DWORD PTR _pMover$1$[esp+92]
  004b3	8b cf		 mov	 ecx, edi
  004b5	ff b7 d8 00 00
	00		 push	 DWORD PTR [edi+216]
  004bb	68 a0 00 00 00	 push	 160			; 000000a0H
  004c0	56		 push	 esi
  004c1	e8 00 00 00 00	 call	 ?ScanTargetNext@CAIInterface@@IAEPAVCMover@@PAVCObj@@HKK@Z ; CAIInterface::ScanTargetNext

; 1725 : 			if( pTarget	)

  004c6	85 c0		 test	 eax, eax
  004c8	74 2b		 je	 SHORT $LN25@MoveProces

; 1726 : 			{
; 1727 : 				SendAIMsg( AIMSG_SETSTATE, STATE_RAGE, pTarget->GetId() );

  004ca	8b 17		 mov	 edx, DWORD PTR [edi]
  004cc	8b cf		 mov	 ecx, edi
  004ce	6a 00		 push	 0
  004d0	ff b0 bc 01 00
	00		 push	 DWORD PTR [eax+444]
  004d6	6a 07		 push	 7
  004d8	6a 04		 push	 4
  004da	ff 52 0c	 call	 DWORD PTR [edx+12]

; 1728 : 				return TRUE;

  004dd	b8 01 00 00 00	 mov	 eax, 1

; 1798 : }

  004e2	5f		 pop	 edi
  004e3	5e		 pop	 esi
  004e4	8b 4c 24 4c	 mov	 ecx, DWORD PTR __$ArrayPad$[esp+80]
  004e8	33 cc		 xor	 ecx, esp
  004ea	e8 00 00 00 00	 call	 @__security_check_cookie@4
  004ef	8b e5		 mov	 esp, ebp
  004f1	5d		 pop	 ebp
  004f2	c2 04 00	 ret	 4
$LN25@MoveProces:

; 1729 : 			}
; 1730 : 		}
; 1731 : #endif // __INSTANCE_DUNGEON
; 1732 : 		if( dwAIState == STATE_STAND )

  004f5	8b 74 24 14	 mov	 esi, DWORD PTR _dwAIState$1$[esp+88]
  004f9	83 fe 08	 cmp	 esi, 8
  004fc	75 09		 jne	 SHORT $LN26@MoveProces

; 1733 : 			DoReturnToBegin();	// SetTarget( NULL_ID, 0 )// ХИАйРЛ ЦїБтЧд.

  004fe	6a 01		 push	 1
  00500	8b cf		 mov	 ecx, edi
  00502	e8 00 00 00 00	 call	 ?DoReturnToBegin@CAIMonster@@IAEXH@Z ; CAIMonster::DoReturnToBegin
$LN26@MoveProces:

; 1734 : 		SendAIMsg( AIMSG_SETSTATE, dwAIState );

  00507	8b 07		 mov	 eax, DWORD PTR [edi]
  00509	8b cf		 mov	 ecx, edi
  0050b	6a 00		 push	 0
  0050d	6a 00		 push	 0
  0050f	56		 push	 esi
  00510	6a 04		 push	 4
  00512	ff 50 0c	 call	 DWORD PTR [eax+12]

; 1735 : 		return TRUE;

  00515	b8 01 00 00 00	 mov	 eax, 1

; 1798 : }

  0051a	5f		 pop	 edi
  0051b	5e		 pop	 esi
  0051c	8b 4c 24 4c	 mov	 ecx, DWORD PTR __$ArrayPad$[esp+80]
  00520	33 cc		 xor	 ecx, esp
  00522	e8 00 00 00 00	 call	 @__security_check_cookie@4
  00527	8b e5		 mov	 esp, ebp
  00529	5d		 pop	 ebp
  0052a	c2 04 00	 ret	 4
$LN22@MoveProces:

; 1736 : 	}
; 1737 : 	else
; 1738 : 	{
; 1739 : 		m_bRangeAttack = SelectAttackType( pTarget );		// AIПЁЕћИЅ АјАнЙцНФ МБХУ.

  0052d	56		 push	 esi
  0052e	8b cf		 mov	 ecx, edi
  00530	e8 00 00 00 00	 call	 ?SelectAttackType@CAIMonster@@IAEHPAVCMover@@@Z ; CAIMonster::SelectAttackType
  00535	89 87 d0 00 00
	00		 mov	 DWORD PTR [edi+208], eax

; 1740 : 
; 1741 : 		if( m_bRangeAttack )	// ПјАХИЎ АјАнРИЗЮ АсСЄЕЦРН.

  0053b	85 c0		 test	 eax, eax
  0053d	0f 84 11 02 00
	00		 je	 $LN27@MoveProces

; 1742 : 		{
; 1743 : 			int nTargetJob = pTarget->GetJob();

  00543	8b ce		 mov	 ecx, esi
  00545	e8 00 00 00 00	 call	 ?GetJob@CMover@@QAEHXZ	; CMover::GetJob

; 1744 : 			if( nTargetJob < 0 )	nTargetJob = 0;		// Е№ЦњЦЎЗЮ -1ЗЮ УЪБтШ­ ЧЯБтЖЋПЁ АЫЛчЧиОпЧд.
; 1745 : 			if( nTargetJob >= MAX_JOB )

  0054a	33 c9		 xor	 ecx, ecx
  0054c	85 c0		 test	 eax, eax
  0054e	0f 49 c8	 cmovns	 ecx, eax
  00551	83 f9 28	 cmp	 ecx, 40			; 00000028H
  00554	7c 10		 jl	 SHORT $LN30@MoveProces

; 1746 : 			{
; 1747 : 				Error( "CAIMonster::MoverProcessRage : ЙќРЇФЇЙќ %d", nTargetJob );

  00556	51		 push	 ecx
  00557	68 00 00 00 00	 push	 OFFSET ??_C@_0CL@OIBCKMKI@CAIMonster?3?3MoverProcessRage?5?3?5@
  0055c	e8 00 00 00 00	 call	 ?Error@@YAPBDPBDZZ	; Error
  00561	83 c4 08	 add	 esp, 8

; 1748 : 				nTargetJob = 0;

  00564	33 c9		 xor	 ecx, ecx
$LN30@MoveProces:
; File C:\IAGOS\server\v18\Source\Source\DX_SDK\d3dx9math.inl

; 1684 :     return sqrtf(pV->x * pV->x + pV->y * pV->y + pV->z * pV->z);

  00566	f3 0f 10 44 24
	34		 movss	 xmm0, DWORD PTR _vTargetTo$$sroa$781$1$[esp+88]
  0056c	f3 0f 10 4c 24
	38		 movss	 xmm1, DWORD PTR _vTargetTo$$sroa$780$1$[esp+88]
; File C:\IAGOS\server\v18\Source\Source\_aiinterface\aimonster.cpp

; 1751 : 			FLOAT	fRange = (FLOAT)(pProp->m_bRangeAttack[ nTargetJob ] & 0x7F);		// ЛчАХИЎ

  00572	8b 44 24 2c	 mov	 eax, DWORD PTR $T4[esp+88]
; File C:\IAGOS\server\v18\Source\Source\DX_SDK\d3dx9math.inl

; 1684 :     return sqrtf(pV->x * pV->x + pV->y * pV->y + pV->z * pV->z);

  00576	f3 0f 59 c9	 mulss	 xmm1, xmm1
  0057a	f3 0f 59 c0	 mulss	 xmm0, xmm0
; File C:\IAGOS\server\v18\Source\Source\_aiinterface\aimonster.cpp

; 1751 : 			FLOAT	fRange = (FLOAT)(pProp->m_bRangeAttack[ nTargetJob ] & 0x7F);		// ЛчАХИЎ

  0057e	8a 84 08 f8 01
	00 00		 mov	 al, BYTE PTR [eax+ecx+504]
  00585	88 44 24 0f	 mov	 BYTE PTR tv1605[esp+88], al
  00589	24 7f		 and	 al, 127			; 0000007fH
  0058b	0f b6 f0	 movzx	 esi, al
; File C:\IAGOS\server\v18\Source\Source\DX_SDK\d3dx9math.inl

; 1684 :     return sqrtf(pV->x * pV->x + pV->y * pV->y + pV->z * pV->z);

  0058e	f3 0f 58 c1	 addss	 xmm0, xmm1
  00592	f3 0f 10 4c 24
	18		 movss	 xmm1, DWORD PTR _vTargetTo$$sroa$778$1$[esp+88]
  00598	f3 0f 59 c9	 mulss	 xmm1, xmm1
  0059c	f3 0f 58 c1	 addss	 xmm0, xmm1
  005a0	0f 57 c9	 xorps	 xmm1, xmm1
; File C:\Program Files (x86)\Windows Kits\10\Include\10.0.26100.0\ucrt\corecrt_math.h

; 799  :             return (float)sqrt(_X);

  005a3	0f 5a c0	 cvtps2pd xmm0, xmm0
  005a6	66 0f 2e c8	 ucomisd xmm1, xmm0
  005aa	77 06		 ja	 SHORT $LN179@MoveProces
  005ac	f2 0f 51 c0	 sqrtsd	 xmm0, xmm0
  005b0	eb 05		 jmp	 SHORT $LN180@MoveProces
$LN179@MoveProces:
  005b2	e8 00 00 00 00	 call	 __libm_sse2_sqrt_precise
$LN180@MoveProces:
; File C:\IAGOS\server\v18\Source\Source\_aiinterface\aimonster.cpp

; 1752 : 			BOOL	bKeepRange = (pProp->m_bRangeAttack[ nTargetJob ] & 0x80) ? TRUE : FALSE;	// ЛѓРЇ 1КёЦЎАЁ ПТ?

  005b7	80 7c 24 0f 00	 cmp	 BYTE PTR tv1605[esp+88], 0
; File C:\Program Files (x86)\Windows Kits\10\Include\10.0.26100.0\ucrt\corecrt_math.h

; 799  :             return (float)sqrt(_X);

  005bc	0f 57 db	 xorps	 xmm3, xmm3
; File C:\IAGOS\server\v18\Source\Source\_aiinterface\aimonster.cpp

; 1754 : 			if( bKeepRange )

  005bf	66 0f 6e d6	 movd	 xmm2, esi
; File C:\Program Files (x86)\Windows Kits\10\Include\10.0.26100.0\ucrt\corecrt_math.h

; 799  :             return (float)sqrt(_X);

  005c3	f2 0f 5a d8	 cvtsd2ss xmm3, xmm0
; File C:\IAGOS\server\v18\Source\Source\_aiinterface\aimonster.cpp

; 1754 : 			if( bKeepRange )

  005c7	0f 5b d2	 cvtdq2ps xmm2, xmm2
  005ca	0f 8d 77 01 00
	00		 jge	 $LN31@MoveProces

; 1755 : 			{
; 1756 : 				if( fabs(fDist - fRange) < 1.0f )	// РћАњРЧ АХИЎПЭ ЛчАХИЎРЧ ТїРЬАЁ 1ЙЬХЭ РЬГЛИщ ДѕРЬЛѓ ПђСїРЯ ЧЪПф ОјРН.

  005d0	0f 28 c3	 movaps	 xmm0, xmm3
  005d3	f3 0f 5c c2	 subss	 xmm0, xmm2
  005d7	0f 5a c8	 cvtps2pd xmm1, xmm0
  005da	f2 0f 10 05 00
	00 00 00	 movsd	 xmm0, QWORD PTR __real@3ff0000000000000
  005e2	0f 54 0d 00 00
	00 00		 andps	 xmm1, QWORD PTR __xmm@7fffffffffffffff7fffffffffffffff
  005e9	66 0f 2f c1	 comisd	 xmm0, xmm1
  005ed	0f 86 81 00 00
	00		 jbe	 $LN33@MoveProces
$LN181@MoveProces:

; 1775 : 				{
; 1776 : 					if( pMover->IsEmptyDest() == FALSE )	// РЬЕПСпРг.
; 1777 : 						MoveToDst( pMover->GetPos() );		// ЧіРчРЇФЁЗЮ РЬЕП - М­ЙіПЁМБ НКХОАњ ААРК ИэЗЩ. ХЌЖѓПЁМБ М­ЙіРЧ РЇФЁЗЮ РЬЕП.
; 1778 : 				} else
; 1779 : 					MoveToDst( pTarget->GetId() );	// ЛчАХИЎ ЙлРЬИщ ИёЧЅТЪРИЗЮ СЂБй.
; 1780 : 			}
; 1781 : 		} else
; 1782 : 		// БйАХИЎ
; 1783 : 		{
; 1784 : 			MoveToDst( pTarget->GetId() );		// БйАХИЎДТ ЙЋСЖАЧ ИёЧЅТЪРИЗЮ СЂБй.
; 1785 : 		}
; 1786 : 
; 1787 : 		if( pProp->m_nSummProb )			// Summon AIАЁ РжДРГФ?

  005f3	8b 74 24 10	 mov	 esi, DWORD PTR _pMover$1$[esp+88]
  005f7	8b ce		 mov	 ecx, esi
  005f9	e8 00 00 00 00	 call	 ?IsEmptyDest@CMover@@QAEHXZ ; CMover::IsEmptyDest
  005fe	85 c0		 test	 eax, eax
  00600	75 24		 jne	 SHORT $LN178@MoveProces
  00602	f3 0f 7e 86 60
	01 00 00	 movq	 xmm0, QWORD PTR [esi+352]
  0060a	8b 86 68 01 00
	00		 mov	 eax, DWORD PTR [esi+360]
  00610	66 0f d6 44 24
	48		 movq	 QWORD PTR $T12[esp+88], xmm0
  00616	89 44 24 50	 mov	 DWORD PTR $T12[esp+96], eax
$LN182@MoveProces:
  0061a	8d 44 24 48	 lea	 eax, DWORD PTR _vDst$14[esp+88]
  0061e	8b cf		 mov	 ecx, edi
  00620	50		 push	 eax
  00621	e8 00 00 00 00	 call	 ?MoveToDst@CAIMonster@@IAEXABUD3DXVECTOR3@@@Z ; CAIMonster::MoveToDst
$LN178@MoveProces:
  00626	8b 74 24 08	 mov	 esi, DWORD PTR _pTarget$1$[esp+88]
$LN28@MoveProces:
  0062a	8b 44 24 2c	 mov	 eax, DWORD PTR $T4[esp+88]
  0062e	83 b8 20 02 00
	00 00		 cmp	 DWORD PTR [eax+544], 0
  00635	74 08		 je	 SHORT $LN41@MoveProces

; 1788 : 			SubSummonProcess( pTarget );	// МвШЏРЛ НУЕЕ

  00637	56		 push	 esi
  00638	8b cf		 mov	 ecx, edi
  0063a	e8 00 00 00 00	 call	 ?SubSummonProcess@CAIMonster@@IAEXPAVCMover@@@Z ; CAIMonster::SubSummonProcess
$LN41@MoveProces:

; 1789 : 		
; 1790 : 		// АјАн ТљНК.
; 1791 : 		if( TIMEGETTIME > m_tmAttackDelay )

  0063f	a1 00 00 00 00	 mov	 eax, DWORD PTR ?g_tmCurrent@@3KA ; g_tmCurrent
  00644	3b 47 3c	 cmp	 eax, DWORD PTR [edi+60]
  00647	76 13		 jbe	 SHORT $LN43@MoveProces

; 1792 : 		{
; 1793 : 			if( SubAttackChance( msg, pTarget ) == FALSE )

  00649	56		 push	 esi
  0064a	ff 75 08	 push	 DWORD PTR _msg$[ebp]
  0064d	8b cf		 mov	 ecx, edi
  0064f	e8 00 00 00 00	 call	 ?SubAttackChance@CAIMonster@@IAEHABUAIMSG@@PAVCMover@@@Z ; CAIMonster::SubAttackChance
  00654	85 c0		 test	 eax, eax
  00656	0f 84 ac 01 00
	00		 je	 $LN3@MoveProces
$LN43@MoveProces:

; 1794 : 				return FALSE;
; 1795 : 		}
; 1796 : 	}
; 1797 : 	return TRUE;

  0065c	b8 01 00 00 00	 mov	 eax, 1

; 1798 : }

  00661	5f		 pop	 edi
  00662	5e		 pop	 esi
  00663	8b 4c 24 4c	 mov	 ecx, DWORD PTR __$ArrayPad$[esp+80]
  00667	33 cc		 xor	 ecx, esp
  00669	e8 00 00 00 00	 call	 @__security_check_cookie@4
  0066e	8b e5		 mov	 esp, ebp
  00670	5d		 pop	 ebp
  00671	c2 04 00	 ret	 4
$LN33@MoveProces:

; 1757 : 				{
; 1758 : 					if( pMover->IsEmptyDest() == FALSE )	// РЬЕПСпРг.
; 1759 : 						MoveToDst( pMover->GetPos() );		// ЧіРчРЇФЁЗЮ РЬЕП - М­ЙіПЁМБ НКХОАњ ААРК ИэЗЩ. ХЌЖѓПЁМБ М­ЙіРЧ РЇФЁЗЮ РЬЕП.
; 1760 : 				} else
; 1761 : 				{
; 1762 : 					// fRangeРЧ АХИЎИІ РЏСіЧЯЕЕЗЯ ...
; 1763 : 					if( fDist < fRange )	

  00674	0f 2f d3	 comiss	 xmm2, xmm3
  00677	0f 86 d3 00 00
	00		 jbe	 $LN38@MoveProces
; File C:\IAGOS\server\v18\Source\Source\_Common\Obj.h

; 215  : 	D3DXVECTOR3		GetPos()	{ return m_vPos; }

  0067d	8b 44 24 08	 mov	 eax, DWORD PTR _pTarget$1$[esp+88]
  00681	8b 74 24 10	 mov	 esi, DWORD PTR _pMover$1$[esp+88]
  00685	f3 0f 7e 80 60
	01 00 00	 movq	 xmm0, QWORD PTR [eax+352]
  0068d	8b 80 68 01 00
	00		 mov	 eax, DWORD PTR [eax+360]
  00693	89 44 24 50	 mov	 DWORD PTR $T13[esp+96], eax
  00697	8b 86 68 01 00
	00		 mov	 eax, DWORD PTR [esi+360]
  0069d	89 44 24 20	 mov	 DWORD PTR $T3[esp+96], eax
  006a1	89 44 24 44	 mov	 DWORD PTR $T10[esp+96], eax
; File C:\IAGOS\server\v18\Source\Source\_aiinterface\aimonster.cpp

; 1765 : 						FLOAT fAngle = GetDegreeX( pMover->GetPos(), pTarget->GetPos() );	// dest, srcРЧ ЦФЖѓИоХЭ РЇФЁИІ ЙйВйИщ ЙнДыЙцЧтРЬ ГЊПТДй.

  006a5	8d 44 24 48	 lea	 eax, DWORD PTR $T13[esp+88]
; File C:\IAGOS\server\v18\Source\Source\_Common\Obj.h

; 215  : 	D3DXVECTOR3		GetPos()	{ return m_vPos; }

  006a9	66 0f d6 44 24
	48		 movq	 QWORD PTR $T13[esp+88], xmm0
  006af	f3 0f 7e 86 60
	01 00 00	 movq	 xmm0, QWORD PTR [esi+352]
; File C:\IAGOS\server\v18\Source\Source\_aiinterface\aimonster.cpp

; 1765 : 						FLOAT fAngle = GetDegreeX( pMover->GetPos(), pTarget->GetPos() );	// dest, srcРЧ ЦФЖѓИоХЭ РЇФЁИІ ЙйВйИщ ЙнДыЙцЧтРЬ ГЊПТДй.

  006b7	50		 push	 eax
; File C:\IAGOS\server\v18\Source\Source\_Common\Obj.h

; 215  : 	D3DXVECTOR3		GetPos()	{ return m_vPos; }

  006b8	66 0f d6 44 24
	1c		 movq	 QWORD PTR $T3[esp+92], xmm0
; File C:\IAGOS\server\v18\Source\Source\_aiinterface\aimonster.cpp

; 1765 : 						FLOAT fAngle = GetDegreeX( pMover->GetPos(), pTarget->GetPos() );	// dest, srcРЧ ЦФЖѓИоХЭ РЇФЁИІ ЙйВйИщ ЙнДыЙцЧтРЬ ГЊПТДй.

  006be	8d 44 24 1c	 lea	 eax, DWORD PTR $T3[esp+92]
; File C:\IAGOS\server\v18\Source\Source\_Common\Obj.h

; 215  : 	D3DXVECTOR3		GetPos()	{ return m_vPos; }

  006c2	f3 0f 7e c0	 movq	 xmm0, xmm0
; File C:\IAGOS\server\v18\Source\Source\_aiinterface\aimonster.cpp

; 1765 : 						FLOAT fAngle = GetDegreeX( pMover->GetPos(), pTarget->GetPos() );	// dest, srcРЧ ЦФЖѓИоХЭ РЇФЁИІ ЙйВйИщ ЙнДыЙцЧтРЬ ГЊПТДй.

  006c6	50		 push	 eax
; File C:\IAGOS\server\v18\Source\Source\_Common\Obj.h

; 215  : 	D3DXVECTOR3		GetPos()	{ return m_vPos; }

  006c7	66 0f d6 44 24
	44		 movq	 QWORD PTR $T10[esp+96], xmm0
; File C:\IAGOS\server\v18\Source\Source\_aiinterface\aimonster.cpp

; 1765 : 						FLOAT fAngle = GetDegreeX( pMover->GetPos(), pTarget->GetPos() );	// dest, srcРЧ ЦФЖѓИоХЭ РЇФЁИІ ЙйВйИщ ЙнДыЙцЧтРЬ ГЊПТДй.

  006cd	e8 00 00 00 00	 call	 ?GetDegreeX@@YAMABUD3DXVECTOR3@@0@Z ; GetDegreeX
; File C:\IAGOS\server\v18\Source\Source\_Common\Obj.h

; 280  : 	FLOAT fTheta = D3DXToRadian( fAngle );

  006d2	d8 0d 00 00 00
	00		 fmul	 DWORD PTR __real@3c8efa35
; File C:\IAGOS\server\v18\Source\Source\_aiinterface\aimonster.cpp

; 1765 : 						FLOAT fAngle = GetDegreeX( pMover->GetPos(), pTarget->GetPos() );	// dest, srcРЧ ЦФЖѓИоХЭ РЇФЁИІ ЙйВйИщ ЙнДыЙцЧтРЬ ГЊПТДй.

  006d8	83 c4 08	 add	 esp, 8
; File C:\Program Files (x86)\Windows Kits\10\Include\10.0.26100.0\ucrt\corecrt_math.h

; 789  :             return (float)sin(_X);

  006db	dd 5c 24 18	 fstp	 QWORD PTR tv1475[esp+88]
  006df	f2 0f 10 44 24
	18		 movsd	 xmm0, QWORD PTR tv1475[esp+88]
  006e5	e8 00 00 00 00	 call	 __libm_sse2_sin_precise
  006ea	0f 57 c9	 xorps	 xmm1, xmm1
  006ed	0f 57 d2	 xorps	 xmm2, xmm2
  006f0	f2 0f 5a c8	 cvtsd2ss xmm1, xmm0

; 683  :             return (float)cos(_X);

  006f4	f2 0f 10 44 24
	18		 movsd	 xmm0, QWORD PTR tv1475[esp+88]
; File C:\IAGOS\server\v18\Source\Source\_Common\Obj.h

; 281  : 	FLOAT fx = sinf( fTheta ) * fVelocity;

  006fa	f3 0f 59 0d 00
	00 00 00	 mulss	 xmm1, DWORD PTR __real@41200000
; File C:\IAGOS\server\v18\Source\Source\DX_SDK\d3dx9math.inl

; 377  :     return D3DXVECTOR3(x + v.x, y + v.y, z + v.z);

  00702	f3 0f 58 4c 24
	3c		 addss	 xmm1, DWORD PTR $T10[esp+88]

; 300  :     x = fx;

  00708	f3 0f 11 4c 24
	48		 movss	 DWORD PTR _vDst$14[esp+88], xmm1

; 377  :     return D3DXVECTOR3(x + v.x, y + v.y, z + v.z);

  0070e	f3 0f 10 4c 24
	40		 movss	 xmm1, DWORD PTR $T10[esp+92]
  00714	f3 0f 58 ca	 addss	 xmm1, xmm2

; 301  :     y = fy;

  00718	f3 0f 11 4c 24
	4c		 movss	 DWORD PTR _vDst$14[esp+92], xmm1
; File C:\Program Files (x86)\Windows Kits\10\Include\10.0.26100.0\ucrt\corecrt_math.h

; 683  :             return (float)cos(_X);

  0071e	e8 00 00 00 00	 call	 __libm_sse2_cos_precise
  00723	0f 57 c9	 xorps	 xmm1, xmm1
  00726	f2 0f 5a c8	 cvtsd2ss xmm1, xmm0
; File C:\IAGOS\server\v18\Source\Source\DX_SDK\d3dx9math.inl

; 377  :     return D3DXVECTOR3(x + v.x, y + v.y, z + v.z);

  0072a	f3 0f 10 44 24
	44		 movss	 xmm0, DWORD PTR $T10[esp+96]
; File C:\IAGOS\server\v18\Source\Source\_Common\Obj.h

; 282  : 	FLOAT fz = -cosf( fTheta ) * fVelocity;

  00730	f3 0f 59 0d 00
	00 00 00	 mulss	 xmm1, DWORD PTR __real@41200000
; File C:\IAGOS\server\v18\Source\Source\DX_SDK\d3dx9math.inl

; 377  :     return D3DXVECTOR3(x + v.x, y + v.y, z + v.z);

  00738	f3 0f 5c c1	 subss	 xmm0, xmm1

; 302  :     z = fz;

  0073c	f3 0f 11 44 24
	50		 movss	 DWORD PTR _vDst$14[esp+96], xmm0
; File C:\IAGOS\server\v18\Source\Source\_aiinterface\aimonster.cpp

; 1768 : 					} else

  00742	e9 d3 fe ff ff	 jmp	 $LN182@MoveProces
$LN31@MoveProces:

; 1769 : 						MoveToDst( pTarget->GetId() );	// ИёЧЅПЭРЧ АХИЎАЁ ЛчАХИЎКИДй Дѕ ИгДЯБю БйСЂЧд.
; 1770 : 				}
; 1771 : 			} else
; 1772 : 			// not keepRange
; 1773 : 			{
; 1774 : 				if( fDist < fRange )		// ЛчАХИЎОШПЁ РжРИИщ СІРкИЎПЁ РжРН.

  00747	0f 2f d3	 comiss	 xmm2, xmm3
  0074a	0f 87 a3 fe ff
	ff		 ja	 $LN181@MoveProces
$LN38@MoveProces:

; 1775 : 				{
; 1776 : 					if( pMover->IsEmptyDest() == FALSE )	// РЬЕПСпРг.
; 1777 : 						MoveToDst( pMover->GetPos() );		// ЧіРчРЇФЁЗЮ РЬЕП - М­ЙіПЁМБ НКХОАњ ААРК ИэЗЩ. ХЌЖѓПЁМБ М­ЙіРЧ РЇФЁЗЮ РЬЕП.
; 1778 : 				} else
; 1779 : 					MoveToDst( pTarget->GetId() );	// ЛчАХИЎ ЙлРЬИщ ИёЧЅТЪРИЗЮ СЂБй.
; 1780 : 			}
; 1781 : 		} else
; 1782 : 		// БйАХИЎ
; 1783 : 		{
; 1784 : 			MoveToDst( pTarget->GetId() );		// БйАХИЎДТ ЙЋСЖАЧ ИёЧЅТЪРИЗЮ СЂБй.
; 1785 : 		}
; 1786 : 
; 1787 : 		if( pProp->m_nSummProb )			// Summon AIАЁ РжДРГФ?

  00750	8b 74 24 08	 mov	 esi, DWORD PTR _pTarget$1$[esp+88]
$LN27@MoveProces:
  00754	ff b6 bc 01 00
	00		 push	 DWORD PTR [esi+444]
  0075a	8b cf		 mov	 ecx, edi
  0075c	e8 00 00 00 00	 call	 ?MoveToDst@CAIMonster@@IAEXK@Z ; CAIMonster::MoveToDst
  00761	e9 c4 fe ff ff	 jmp	 $LN28@MoveProces
$LN5@MoveProces:

; 1590 : #endif // __INSTANCE_DUNGEON
; 1591 : 		)	
; 1592 : 	{
; 1593 : #if __VER >= 9	//__AI_0509
; 1594 : 		int nAttackFirstRange	= pProp->m_nAttackFirstRange;
; 1595 : #if __VER >= 14 // __INSTANCE_DUNGEON
; 1596 : 		CMover* pTarget	= NULL;
; 1597 : 		if( CInstanceDungeonHelper::GetInstance()->IsInstanceDungeon( pWorld->GetID() ) )

  00766	8b 44 24 30	 mov	 eax, DWORD PTR _pWorld$1$[esp+88]
  0076a	8b 30		 mov	 esi, DWORD PTR [eax]
  0076c	e8 00 00 00 00	 call	 ?GetInstance@CInstanceDungeonHelper@@SAPAV1@XZ ; CInstanceDungeonHelper::GetInstance
; File C:\IAGOS\server\v18\Source\Source\_Common\InstanceDungeonBase.h

; 205  : 	BOOL	IsInstanceDungeon( DWORD dwWorldId )	{ return GetType( dwWorldId ) != NULL_ID; }

  00771	56		 push	 esi
  00772	8b c8		 mov	 ecx, eax
  00774	e8 00 00 00 00	 call	 ?GetType@CInstanceDungeonHelper@@AAEHK@Z ; CInstanceDungeonHelper::GetType
; File C:\IAGOS\server\v18\Source\Source\_aiinterface\aimonster.cpp

; 1604 : 		if( pTarget	== NULL )

  00779	ff 77 34	 push	 DWORD PTR [edi+52]
  0077c	8b 74 24 14	 mov	 esi, DWORD PTR _pMover$1$[esp+92]
  00780	83 f8 ff	 cmp	 eax, -1
  00783	ff b7 d8 00 00
	00		 push	 DWORD PTR [edi+216]
  00789	ba 0f 00 00 00	 mov	 edx, 15			; 0000000fH
  0078e	b9 a0 00 00 00	 mov	 ecx, 160		; 000000a0H
  00793	0f 44 ca	 cmove	 ecx, edx
  00796	51		 push	 ecx
  00797	56		 push	 esi
  00798	8b cf		 mov	 ecx, edi
  0079a	e8 00 00 00 00	 call	 ?ScanTargetNext@CAIInterface@@IAEPAVCMover@@PAVCObj@@HKK@Z ; CAIInterface::ScanTargetNext
  0079f	8b c8		 mov	 ecx, eax
  007a1	85 c9		 test	 ecx, ecx
  007a3	75 38		 jne	 SHORT $LN8@MoveProces

; 1605 : 		{
; 1606 : #endif	// __AI_0509
; 1607 : 			if( dwAIState == STATE_STAND )

  007a5	8b 74 24 14	 mov	 esi, DWORD PTR _dwAIState$1$[esp+88]
  007a9	83 fe 08	 cmp	 esi, 8
  007ac	75 09		 jne	 SHORT $LN10@MoveProces

; 1608 : 				DoReturnToBegin();	// SetTarget( NULL_ID, 0 );

  007ae	6a 01		 push	 1
  007b0	8b cf		 mov	 ecx, edi
  007b2	e8 00 00 00 00	 call	 ?DoReturnToBegin@CAIMonster@@IAEXH@Z ; CAIMonster::DoReturnToBegin
$LN10@MoveProces:

; 1609 : 			SendAIMsg( AIMSG_SETSTATE, dwAIState );

  007b7	8b 07		 mov	 eax, DWORD PTR [edi]
  007b9	8b cf		 mov	 ecx, edi
  007bb	6a 00		 push	 0
  007bd	6a 00		 push	 0
  007bf	56		 push	 esi
  007c0	6a 04		 push	 4
  007c2	ff 50 0c	 call	 DWORD PTR [eax+12]

; 1610 : 			return TRUE;

  007c5	b8 01 00 00 00	 mov	 eax, 1

; 1798 : }

  007ca	5f		 pop	 edi
  007cb	5e		 pop	 esi
  007cc	8b 4c 24 4c	 mov	 ecx, DWORD PTR __$ArrayPad$[esp+80]
  007d0	33 cc		 xor	 ecx, esp
  007d2	e8 00 00 00 00	 call	 @__security_check_cookie@4
  007d7	8b e5		 mov	 esp, ebp
  007d9	5d		 pop	 ebp
  007da	c2 04 00	 ret	 4
$LN8@MoveProces:

; 1611 : #if __VER >= 9	//__AI_0509
; 1612 : 		}
; 1613 : 		else
; 1614 : 		{
; 1615 : 			SendAIMsg( AIMSG_SETSTATE, STATE_RAGE, pTarget->GetId() );

  007dd	8b 07		 mov	 eax, DWORD PTR [edi]
  007df	6a 00		 push	 0
  007e1	ff b1 bc 01 00
	00		 push	 DWORD PTR [ecx+444]
  007e7	8b cf		 mov	 ecx, edi
  007e9	6a 07		 push	 7
  007eb	6a 04		 push	 4
  007ed	ff 50 0c	 call	 DWORD PTR [eax+12]

; 1616 : 			return TRUE;

  007f0	b8 01 00 00 00	 mov	 eax, 1

; 1798 : }

  007f5	5f		 pop	 edi
  007f6	5e		 pop	 esi
  007f7	8b 4c 24 4c	 mov	 ecx, DWORD PTR __$ArrayPad$[esp+80]
  007fb	33 cc		 xor	 ecx, esp
  007fd	e8 00 00 00 00	 call	 @__security_check_cookie@4
  00802	8b e5		 mov	 esp, ebp
  00804	5d		 pop	 ebp
  00805	c2 04 00	 ret	 4
$LN3@MoveProces:
  00808	8b 4c 24 54	 mov	 ecx, DWORD PTR __$ArrayPad$[esp+88]
  0080c	33 c0		 xor	 eax, eax
  0080e	5f		 pop	 edi
  0080f	5e		 pop	 esi
  00810	33 cc		 xor	 ecx, esp
  00812	e8 00 00 00 00	 call	 @__security_check_cookie@4
  00817	8b e5		 mov	 esp, ebp
  00819	5d		 pop	 ebp
  0081a	c2 04 00	 ret	 4
?MoveProcessRage@CAIMonster@@IAEHABUAIMSG@@@Z ENDP	; CAIMonster::MoveProcessRage
_TEXT	ENDS
; Function compile flags: /Ogtp
; File C:\IAGOS\server\v18\Source\Source\_aiinterface\aimonster.cpp
; File C:\IAGOS\server\v18\Source\Source\_Common\Project.h
; File C:\IAGOS\server\v18\Source\Source\_aiinterface\aimonster.cpp
; File C:\IAGOS\server\v18\Source\Source\_Common\Mover.h
; File C:\IAGOS\server\v18\Source\Source\_Common\Project.h
; File C:\IAGOS\server\v18\Source\Source\_AIInterface\Action.h
; File C:\IAGOS\server\v18\Source\Source\_Common\Mover.h
; File C:\IAGOS\server\v18\Source\Source\_aiinterface\aimonster.cpp
; File C:\IAGOS\server\v18\Source\Source\_Common\Obj.h
; File C:\IAGOS\server\v18\Source\Source\_aiinterface\aimonster.cpp
; File C:\IAGOS\server\v18\Source\Source\_Common\Obj.h
; File C:\IAGOS\server\v18\Source\Source\DX_SDK\d3dx9math.inl
; File C:\IAGOS\server\v18\Source\Source\_Common\Obj.h
; File C:\IAGOS\server\v18\Source\Source\_aiinterface\aimonster.cpp
; File C:\IAGOS\server\v18\Source\Source\DX_SDK\d3dx9math.inl
; File C:\IAGOS\server\v18\Source\Source\_aiinterface\aimonster.cpp
; File C:\IAGOS\server\v18\Source\Source\_Common\xUtil.h
; File C:\IAGOS\server\v18\Source\Source\_aiinterface\aimonster.cpp
; File C:\IAGOS\server\v18\Source\Source\_Common\Obj.h
; File C:\IAGOS\server\v18\Source\Source\_aiinterface\aimonster.cpp
; File C:\IAGOS\server\v18\Source\Source\_Common\Obj.h
; File C:\IAGOS\server\v18\Source\Source\_aiinterface\aimonster.cpp
; File C:\IAGOS\server\v18\Source\Source\_Common\Obj.h
; File C:\IAGOS\server\v18\Source\Source\_aiinterface\aimonster.cpp
; File C:\IAGOS\server\v18\Source\Source\_Common\Obj.h
; File C:\IAGOS\server\v18\Source\Source\_aiinterface\aimonster.cpp
;	COMDAT ?MoveProcessIdle@CAIMonster@@IAEHABUAIMSG@@@Z
_TEXT	SEGMENT
$T1 = -36						; size = 12
_nAttackFirstRange$1$ = -24				; size = 4
_pTarget$1$ = -20					; size = 4
$T2 = -16						; size = 12
$T3 = -16						; size = 12
__$ArrayPad$ = -4					; size = 4
_msg$ = 8						; size = 4
?MoveProcessIdle@CAIMonster@@IAEHABUAIMSG@@@Z PROC	; CAIMonster::MoveProcessIdle, COMDAT
; _this$ = ecx

; 312  : {

  00000	55		 push	 ebp
  00001	8b ec		 mov	 ebp, esp
  00003	83 ec 24	 sub	 esp, 36			; 00000024H
  00006	a1 00 00 00 00	 mov	 eax, DWORD PTR ___security_cookie
  0000b	33 c5		 xor	 eax, ebp
  0000d	89 45 fc	 mov	 DWORD PTR __$ArrayPad$[ebp], eax
  00010	53		 push	 ebx
  00011	56		 push	 esi
  00012	8b f1		 mov	 esi, ecx
; File C:\IAGOS\server\v18\Source\Source\_Common\Project.h

; 1406 : 	VERIFY_RANGE( nIndex, 0, m_nMoverPropSize, "GetMoverProp range_error", NULL );

  00014	8b 0d b4 01 00
	00		 mov	 ecx, DWORD PTR ?prj@@3VCProject@@A+436
; File C:\IAGOS\server\v18\Source\Source\_aiinterface\aimonster.cpp

; 312  : {

  0001a	57		 push	 edi

; 313  : 	CMover* pMover = GetMover();

  0001b	8b 7e 30	 mov	 edi, DWORD PTR [esi+48]
; File C:\IAGOS\server\v18\Source\Source\_Common\Mover.h

; 1020 : 	MoverProp*		GetProp() { return prj.GetMoverProp( m_dwIndex ); }	// АДУМРЧ ЧСЗЮЦлЦМ ОђБт 	

  0001e	8b 87 74 01 00
	00		 mov	 eax, DWORD PTR [edi+372]
; File C:\IAGOS\server\v18\Source\Source\_Common\Project.h

; 1406 : 	VERIFY_RANGE( nIndex, 0, m_nMoverPropSize, "GetMoverProp range_error", NULL );

  00024	85 c0		 test	 eax, eax
  00026	78 12		 js	 SHORT $LN40@MoveProces
  00028	3b c1		 cmp	 eax, ecx
  0002a	7d 0e		 jge	 SHORT $LN40@MoveProces

; 1407 : 	return m_pPropMover + nIndex;

  0002c	69 d8 90 06 00
	00		 imul	 ebx, eax, 1680
  00032	03 1d b8 01 00
	00		 add	 ebx, DWORD PTR ?prj@@3VCProject@@A+440
  00038	eb 18		 jmp	 SHORT $LN35@MoveProces
$LN40@MoveProces:

; 579  : 	LPCTSTR szErr = Error( _T( "%s min:%d, max:%d, index:%d" ), szMsg, nMin, nMax, nIndex ); 

  0003a	50		 push	 eax
  0003b	51		 push	 ecx
  0003c	6a 00		 push	 0
  0003e	68 00 00 00 00	 push	 OFFSET ??_C@_0BJ@GKPOBPPI@GetMoverProp?5range_error@
  00043	68 00 00 00 00	 push	 OFFSET ??_C@_0BM@HMFGHCP@?$CFs?5min?3?$CFd?0?5max?3?$CFd?0?5index?3?$CFd@
  00048	e8 00 00 00 00	 call	 ?Error@@YAPBDPBDZZ	; Error
  0004d	83 c4 14	 add	 esp, 20			; 00000014H

; 1406 : 	VERIFY_RANGE( nIndex, 0, m_nMoverPropSize, "GetMoverProp range_error", NULL );

  00050	33 db		 xor	 ebx, ebx
$LN35@MoveProces:
; File C:\IAGOS\server\v18\Source\Source\_AIInterface\Action.h

; 310  : 	BOOL			IsDie() { return (m_dwState & OBJSTA_DIE_ALL) ? TRUE : FALSE; }

  00052	8b 87 38 02 00
	00		 mov	 eax, DWORD PTR [edi+568]
  00058	8b 40 04	 mov	 eax, DWORD PTR [eax+4]
; File C:\IAGOS\server\v18\Source\Source\_Common\Mover.h

; 1250 : 	BOOL			IsDie() { return m_pActMover->IsDie() || m_nHitPoint == 0; }

  0005b	a9 00 00 00 08	 test	 eax, 134217728		; 08000000H
  00060	0f 85 ed 02 00
	00		 jne	 $LN3@MoveProces
  00066	83 bf f8 05 00
	00 00		 cmp	 DWORD PTR [edi+1528], 0
  0006d	0f 84 e0 02 00
	00		 je	 $LN3@MoveProces
; File C:\IAGOS\server\v18\Source\Source\_aiinterface\aimonster.cpp

; 318  : 	if( pMover->IsDie() || (pMover->m_pActMover->GetState() & OBJSTA_DMG_FLY_ALL) )

  00073	a9 00 00 00 02	 test	 eax, 33554432		; 02000000H
  00078	0f 85 d5 02 00
	00		 jne	 $LN3@MoveProces

; 319  : 		return FALSE;
; 320  : 
; 321  : #ifdef __MOVER_STATE_EFFECT
; 322  : 	if( pMover->m_pActMover->IsStateFlag( OBJSTAF_COMBAT ) == TRUE )
; 323  : 	{
; 324  : 		if( pMover->m_pActMover->SendActMsg( OBJMSG_MODE_PEACE ) == TRUE )
; 325  : 		{
; 326  : 			g_UserMng.AddSendActMsg( pMover, OBJMSG_MODE_PEACE );
; 327  : 		}
; 328  : 	}
; 329  : #endif // __MOVER_STATE_EFFECT
; 330  : 
; 331  : 	// НКЦљ РхМвЗЮ БЭШЏ 
; 332  : 	if( m_bReturnToBegin )

  0007e	83 be bc 00 00
	00 00		 cmp	 DWORD PTR [esi+188], 0
  00085	0f 84 bb 00 00
	00		 je	 $LN4@MoveProces
; File C:\IAGOS\server\v18\Source\Source\_Common\Obj.h

; 215  : 	D3DXVECTOR3		GetPos()	{ return m_vPos; }

  0008b	f3 0f 7e 87 60
	01 00 00	 movq	 xmm0, QWORD PTR [edi+352]
; File C:\IAGOS\server\v18\Source\Source\_aiinterface\aimonster.cpp

; 334  : 		if( IsInRange( m_vPosBegin - pMover->GetPos(), 7.0f ) )		// НУРлСіСЁРИЗЮ ЕЙОЦПдДй.

  00093	8d 5e 50	 lea	 ebx, DWORD PTR [esi+80]
; File C:\IAGOS\server\v18\Source\Source\_Common\Obj.h

; 215  : 	D3DXVECTOR3		GetPos()	{ return m_vPos; }

  00096	8b 87 68 01 00
	00		 mov	 eax, DWORD PTR [edi+360]
  0009c	66 0f d6 45 dc	 movq	 QWORD PTR $T1[ebp], xmm0
; File C:\IAGOS\server\v18\Source\Source\DX_SDK\d3dx9math.inl

; 383  :     return D3DXVECTOR3(x - v.x, y - v.y, z - v.z);

  000a1	f3 0f 10 03	 movss	 xmm0, DWORD PTR [ebx]
  000a5	f3 0f 5c 45 dc	 subss	 xmm0, DWORD PTR $T1[ebp]
; File C:\IAGOS\server\v18\Source\Source\_Common\Obj.h

; 215  : 	D3DXVECTOR3		GetPos()	{ return m_vPos; }

  000aa	89 45 e4	 mov	 DWORD PTR $T1[ebp+8], eax
; File C:\IAGOS\server\v18\Source\Source\_aiinterface\aimonster.cpp

; 334  : 		if( IsInRange( m_vPosBegin - pMover->GetPos(), 7.0f ) )		// НУРлСіСЁРИЗЮ ЕЙОЦПдДй.

  000ad	8d 45 f0	 lea	 eax, DWORD PTR $T2[ebp]
  000b0	51		 push	 ecx
  000b1	c7 04 24 00 00
	e0 40		 mov	 DWORD PTR [esp], 1088421888 ; 40e00000H
  000b8	8b ce		 mov	 ecx, esi
  000ba	50		 push	 eax
; File C:\IAGOS\server\v18\Source\Source\DX_SDK\d3dx9math.inl

; 300  :     x = fx;

  000bb	f3 0f 11 45 f0	 movss	 DWORD PTR $T2[ebp], xmm0

; 383  :     return D3DXVECTOR3(x - v.x, y - v.y, z - v.z);

  000c0	f3 0f 10 43 04	 movss	 xmm0, DWORD PTR [ebx+4]
  000c5	f3 0f 5c 45 e0	 subss	 xmm0, DWORD PTR $T1[ebp+4]

; 301  :     y = fy;

  000ca	f3 0f 11 45 f4	 movss	 DWORD PTR $T2[ebp+4], xmm0

; 383  :     return D3DXVECTOR3(x - v.x, y - v.y, z - v.z);

  000cf	f3 0f 10 43 08	 movss	 xmm0, DWORD PTR [ebx+8]
  000d4	f3 0f 5c 45 e4	 subss	 xmm0, DWORD PTR $T1[ebp+8]

; 302  :     z = fz;

  000d9	f3 0f 11 45 f8	 movss	 DWORD PTR $T2[ebp+8], xmm0
; File C:\IAGOS\server\v18\Source\Source\_aiinterface\aimonster.cpp

; 334  : 		if( IsInRange( m_vPosBegin - pMover->GetPos(), 7.0f ) )		// НУРлСіСЁРИЗЮ ЕЙОЦПдДй.

  000de	e8 00 00 00 00	 call	 ?IsInRange@CAIMonster@@IAEHAAUD3DXVECTOR3@@M@Z ; CAIMonster::IsInRange
  000e3	85 c0		 test	 eax, eax
  000e5	74 18		 je	 SHORT $LN6@MoveProces

; 335  : 		{
; 336  : 			DoReturnToBegin( FALSE );

  000e7	6a 00		 push	 0
  000e9	8b ce		 mov	 ecx, esi
  000eb	e8 00 00 00 00	 call	 ?DoReturnToBegin@CAIMonster@@IAEXH@Z ; CAIMonster::DoReturnToBegin

; 337  : 			SendAIMsg( AIMSG_ARRIVAL, NULL_ID );

  000f0	8b 06		 mov	 eax, DWORD PTR [esi]
  000f2	8b ce		 mov	 ecx, esi
  000f4	6a 00		 push	 0
  000f6	6a 00		 push	 0
  000f8	6a ff		 push	 -1
  000fa	6a 0b		 push	 11			; 0000000bH
  000fc	ff 50 0c	 call	 DWORD PTR [eax+12]
$LN6@MoveProces:

; 338  : 		}
; 339  : #if __VER < 9	//__AI_0509
; 340  : 		else if( m_dwIdTarget != NULL_ID )	// ГюАэРжДј СпПЁ РќПЁ ІiДј РћРЬ РжРИИщ РчАјАн
; 341  : 		{
; 342  : 			if( TIMEGETTIME - m_tmReturnToBegin > SEC(5) )		// ЕЙОЦАЁБт НУРлЧбСі 5УЪДТ СіГЊОп ДйНУ ЙнАнЧбДй.
; 343  : 			{
; 344  : 				int nAttackFirstRange = pProp->m_nAttackFirstRange;		//??
; 345  : 				CMover* pTarget = prj.GetMover( m_dwIdTarget );
; 346  : 				if( IsValidObj(pTarget) )
; 347  : 				{
; 348  : 					D3DXVECTOR3 vDist = pTarget->GetPos() - pMover->GetPos();
; 349  : 					FLOAT fDistSq = D3DXVec3LengthSq( &vDist );
; 350  : 					if( fDistSq < (float)(nAttackFirstRange * nAttackFirstRange) )	// ХИАйРЬ АХИЎГЛПЁ ЕщОюПРИщ
; 351  : 					{
; 352  : 
; 353  : #ifdef __JHMA_VER_8_6     // 8Тї ИѓНКХЭАЁ РњАјКёЧрРЏРњИІ АјАнАЁДЩЧЯАдЧд   World
; 354  : 						if( pMover->IsFlyingNPC() == pTarget->m_pActMover->IsFly() || pMover->IsFlyingNPC() == FALSE )	
; 355  : #else	// __VER >= 8  
; 356  : 						// thisЖћ ХИАйРЬЖћ СіЛѓ-СіЛѓ, КёЧр-КёЧр РЬИщ 
; 357  : 						if( pMover->IsFlyingNPC() == pTarget->m_pActMover->IsFly() )	
; 358  : #endif	// __VER >= 8  
; 359  : 							SendAIMsg( AIMSG_SETSTATE, STATE_RAGE, NULL_ID );	// ДйНУ АјАн
; 360  : 					}
; 361  : 				}			
; 362  : 			}
; 363  : 		}
; 364  : #endif	// __AI_0509
; 365  : 
; 366  : #if __VER >= 9	//__AI_0509
; 367  : 		if( TIMEGETTIME - m_tmReturnToBegin >= SEC(20) )		// С§РИЗЮ ЕЙОЦАЁБт НУРлЧбСі 10УЪГЊ СіГЕДй.

  000ff	a1 00 00 00 00	 mov	 eax, DWORD PTR ?g_tmCurrent@@3KA ; g_tmCurrent
  00104	2b 46 4c	 sub	 eax, DWORD PTR [esi+76]
  00107	3d 20 4e 00 00	 cmp	 eax, 20000		; 00004e20H
  0010c	0f 82 29 02 00
	00		 jb	 $LN29@MoveProces

; 368  : #else	// __AI_0509
; 369  : 		if( TIMEGETTIME - m_tmReturnToBegin >= SEC(10) )		// С§РИЗЮ ЕЙОЦАЁБт НУРлЧбСі 10УЪГЊ СіГЕДй.
; 370  : #endif	// __AI_0509
; 371  : 		{
; 372  : 			// СІДыЗЮ ИјЕЙОЦАЁАэ РжДйАэ ЦЧДмЧЯАэ НУРлСіСЁРИЗЮ ПіЧСНУХД.
; 373  : 			pMover->SetPos( m_vPosBegin );

  00112	53		 push	 ebx
  00113	8b cf		 mov	 ecx, edi
  00115	e8 00 00 00 00	 call	 ?SetPos@CObj@@QAEXABUD3DXVECTOR3@@@Z ; CObj::SetPos

; 374  : 			g_UserMng.AddSetPos( pMover, m_vPosBegin );

  0011a	53		 push	 ebx
  0011b	57		 push	 edi
  0011c	b9 00 00 00 00	 mov	 ecx, OFFSET ?g_UserMng@@3VCUserMng@@A ; g_UserMng
  00121	e8 00 00 00 00	 call	 ?AddSetPos@CUserMng@@QAEXPAVCCtrl@@AAUD3DXVECTOR3@@@Z ; CUserMng::AddSetPos

; 375  : 			m_tmReturnToBegin	= TIMEGETTIME;

  00126	a1 00 00 00 00	 mov	 eax, DWORD PTR ?g_tmCurrent@@3KA ; g_tmCurrent
  0012b	5f		 pop	 edi
  0012c	89 46 4c	 mov	 DWORD PTR [esi+76], eax

; 452  : 						}
; 453  : 					}
; 454  : 				}
; 455  : 			}	// if( target)
; 456  : 		}	// if( scan )
; 457  : 
; 458  : 	}
; 459  : 	return TRUE;
; 460  : }

  0012f	b8 01 00 00 00	 mov	 eax, 1
  00134	5e		 pop	 esi
  00135	5b		 pop	 ebx
  00136	8b 4d fc	 mov	 ecx, DWORD PTR __$ArrayPad$[ebp]
  00139	33 cd		 xor	 ecx, ebp
  0013b	e8 00 00 00 00	 call	 @__security_check_cookie@4
  00140	8b e5		 mov	 esp, ebp
  00142	5d		 pop	 ebp
  00143	c2 04 00	 ret	 4
$LN4@MoveProces:

; 376  : 		}
; 377  : 	}
; 378  : 	else
; 379  : 	{
; 380  : 		if( pMover->GetMovePattern() == 0 )	// РЯЙн ЦаХЯРЬЕПРЯЖЇИИ ЕщОюАЃДй.

  00146	83 bf c0 14 00
	00 00		 cmp	 DWORD PTR [edi+5312], 0
  0014d	75 16		 jne	 SHORT $LN8@MoveProces

; 381  : 		{
; 382  : 			if( IsEndStop() )						// СІРкИЎ ДыБт НУАЃРЬ ГЁГЕРИИщ

  0014f	8b ce		 mov	 ecx, esi
  00151	e8 00 00 00 00	 call	 ?IsEndStop@CAIMonster@@IAEHXZ ; CAIMonster::IsEndStop
  00156	85 c0		 test	 eax, eax
  00158	74 1d		 je	 SHORT $LN11@MoveProces

; 383  : 				MoveToRandom( STATE_IDLE );			// ДйРН ИёЧЅИІ СіСЄ.

  0015a	6a 02		 push	 2
  0015c	8b ce		 mov	 ecx, esi
  0015e	e8 00 00 00 00	 call	 ?MoveToRandom@CAIMonster@@IAEXI@Z ; CAIMonster::MoveToRandom

; 384  : 		}

  00163	eb 12		 jmp	 SHORT $LN11@MoveProces
$LN8@MoveProces:

; 385  : 		else								// 8РкКёЧрСп		
; 386  : 		{
; 387  : 			if( pMover->GetMoveEvent() == 99 )		// ЦаХЯКёЧр ГЁ.

  00165	83 bf c4 14 00
	00 63		 cmp	 DWORD PTR [edi+5316], 99 ; 00000063H
  0016c	75 09		 jne	 SHORT $LN11@MoveProces

; 388  : 				pMover->SetMovePattern( 0 );		// РЯЙнРЬЕПРИЗЮ РќШЏ.

  0016e	6a 00		 push	 0
  00170	8b cf		 mov	 ecx, edi
  00172	e8 00 00 00 00	 call	 ?SetMovePattern@CMover@@QAEXH@Z ; CMover::SetMovePattern
$LN11@MoveProces:

; 389  : 		}
; 390  : 
; 391  : 		// ЗчЦУПЩМЧРЬ РжДТ ИїРЬДй.
; 392  : 		if( pProp->m_nLoot )

  00177	83 bb 3c 02 00
	00 00		 cmp	 DWORD PTR [ebx+572], 0
  0017e	74 4f		 je	 SHORT $LN16@MoveProces

; 393  : 		{
; 394  : 			if( (pMover->GetCount() & 63) == 0 )		// АЁВћОП СжКЏРЛ НКФЕЧиМ­.(63РЬИщ Ор 4.2УЪ)

  00180	f6 87 dc 14 00
	00 3f		 test	 BYTE PTR [edi+5340], 63	; 0000003fH
  00187	75 46		 jne	 SHORT $LN16@MoveProces

; 396  : 				if(  pProp->m_nLootProb == 0 || xRandom(100) < (DWORD)( pProp->m_nLootProb )  )	// Е№ЦњЦЎАЊ(0)РК 100% / РЬАХГЊ ЗчЦУШЎЗќПЁ ЕщОюАЁИщ ЗчЦУНУЕЕ

  00189	83 bb 40 02 00
	00 00		 cmp	 DWORD PTR [ebx+576], 0
  00190	74 2d		 je	 SHORT $LN15@MoveProces
; File C:\IAGOS\server\v18\Source\Source\_Common\xUtil.h

; 16   : 	g_next = g_next * 1103515245 + 12345;// + nRandomSeed[ i++ ];

  00192	69 0d 00 00 00
	00 6d 4e c6 41	 imul	 ecx, DWORD PTR ?g_next@@3KA, 1103515245 ; g_next

; 22   : 	return  xRand() % num;

  0019c	b8 1f 85 eb 51	 mov	 eax, 1374389535		; 51eb851fH

; 16   : 	g_next = g_next * 1103515245 + 12345;// + nRandomSeed[ i++ ];

  001a1	81 c1 39 30 00
	00		 add	 ecx, 12345		; 00003039H

; 22   : 	return  xRand() % num;

  001a7	f7 e1		 mul	 ecx

; 16   : 	g_next = g_next * 1103515245 + 12345;// + nRandomSeed[ i++ ];

  001a9	89 0d 00 00 00
	00		 mov	 DWORD PTR ?g_next@@3KA, ecx ; g_next

; 22   : 	return  xRand() % num;

  001af	c1 ea 05	 shr	 edx, 5
  001b2	6b c2 64	 imul	 eax, edx, 100
  001b5	2b c8		 sub	 ecx, eax
; File C:\IAGOS\server\v18\Source\Source\_aiinterface\aimonster.cpp

; 396  : 				if(  pProp->m_nLootProb == 0 || xRandom(100) < (DWORD)( pProp->m_nLootProb )  )	// Е№ЦњЦЎАЊ(0)РК 100% / РЬАХГЊ ЗчЦУШЎЗќПЁ ЕщОюАЁИщ ЗчЦУНУЕЕ

  001b7	3b 8b 40 02 00
	00		 cmp	 ecx, DWORD PTR [ebx+576]
  001bd	73 10		 jae	 SHORT $LN16@MoveProces
$LN15@MoveProces:

; 397  : 					if( m_bLootMove == FALSE )		// ЗчЦУЧЯЗЏ АЁАэ РжРЛЖЇ ЖЧ УМХЉЧЯИщ ОШ

  001bf	83 be d4 00 00
	00 00		 cmp	 DWORD PTR [esi+212], 0
  001c6	75 07		 jne	 SHORT $LN16@MoveProces

; 398  : 						SubItemLoot();		// ОЦРЬХлРЛ ЗчЦУЧд.

  001c8	8b ce		 mov	 ecx, esi
  001ca	e8 00 00 00 00	 call	 ?SubItemLoot@CAIMonster@@IAEHXZ ; CAIMonster::SubItemLoot
$LN16@MoveProces:

; 399  : 			}
; 400  : 		}
; 401  : 
; 402  : 		if( m_bLootMove == TRUE )

  001cf	83 be d4 00 00
	00 01		 cmp	 DWORD PTR [esi+212], 1
  001d6	75 4f		 jne	 SHORT $LN18@MoveProces

; 403  : 		{
; 404  : 			CCtrl *pCtrl = prj.GetCtrl( m_idLootItem );		// БзОЦРЬХлРЬ ЛчЖѓСГРЛМі РжРИДЯБю АЫЛчЧд.

  001d8	ff b6 ec 00 00
	00		 push	 DWORD PTR [esi+236]
  001de	b9 00 00 00 00	 mov	 ecx, OFFSET ?prj@@3VCProject@@A ; prj
  001e3	e8 00 00 00 00	 call	 ?GetCtrl@CProject@@QAEPAVCCtrl@@K@Z ; CProject::GetCtrl
; File C:\IAGOS\server\v18\Source\Source\_Common\Obj.h

; 327  : 	return pObj && ( pObj->IsDelete() == FALSE ); 

  001e8	85 c0		 test	 eax, eax
  001ea	74 06		 je	 SHORT $LN85@MoveProces

; 180  : 	BOOL			IsDelete()	{ return (m_dwFlags & OBJ_FLAG_DELETE);  }

  001ec	f6 40 04 01	 test	 BYTE PTR [eax+4], 1

; 327  : 	return pObj && ( pObj->IsDelete() == FALSE ); 

  001f0	74 35		 je	 SHORT $LN18@MoveProces
$LN85@MoveProces:

; 215  : 	D3DXVECTOR3		GetPos()	{ return m_vPos; }

  001f2	8b 87 68 01 00
	00		 mov	 eax, DWORD PTR [edi+360]
; File C:\IAGOS\server\v18\Source\Source\_aiinterface\aimonster.cpp

; 407  : 				MoveToDst( pMover->GetPos() );	// СІРкИЎПЁ МЖ.

  001f8	8b ce		 mov	 ecx, esi
; File C:\IAGOS\server\v18\Source\Source\_Common\Obj.h

; 215  : 	D3DXVECTOR3		GetPos()	{ return m_vPos; }

  001fa	f3 0f 7e 87 60
	01 00 00	 movq	 xmm0, QWORD PTR [edi+352]
  00202	89 45 f8	 mov	 DWORD PTR $T3[ebp+8], eax
; File C:\IAGOS\server\v18\Source\Source\_aiinterface\aimonster.cpp

; 407  : 				MoveToDst( pMover->GetPos() );	// СІРкИЎПЁ МЖ.

  00205	8d 45 f0	 lea	 eax, DWORD PTR $T3[ebp]
  00208	50		 push	 eax
; File C:\IAGOS\server\v18\Source\Source\_Common\Obj.h

; 215  : 	D3DXVECTOR3		GetPos()	{ return m_vPos; }

  00209	66 0f d6 45 f0	 movq	 QWORD PTR $T3[ebp], xmm0
; File C:\IAGOS\server\v18\Source\Source\_aiinterface\aimonster.cpp

; 407  : 				MoveToDst( pMover->GetPos() );	// СІРкИЎПЁ МЖ.

  0020e	e8 00 00 00 00	 call	 ?MoveToDst@CAIMonster@@IAEXABUD3DXVECTOR3@@@Z ; CAIMonster::MoveToDst

; 408  : 				m_idLootItem = NULL_ID;

  00213	c7 86 ec 00 00
	00 ff ff ff ff	 mov	 DWORD PTR [esi+236], -1

; 409  : 				m_bLootMove = FALSE;

  0021d	c7 86 d4 00 00
	00 00 00 00 00	 mov	 DWORD PTR [esi+212], 0
$LN18@MoveProces:

; 410  : 			}
; 411  : 		}
; 412  : 
; 413  : 		// -1 РЬИщ ОЦЙЋАЭЕЕ НКФЕЧЯСі ОЪДТДй!!!
; 414  : 		if( pProp->m_nScanJob != -1 )

  00227	8b 8b dc 01 00
	00		 mov	 ecx, DWORD PTR [ebx+476]
  0022d	83 f9 ff	 cmp	 ecx, -1
  00230	0f 84 05 01 00
	00		 je	 $LN29@MoveProces

; 415  : 		{
; 416  : 			CMover* pTarget = NULL;
; 417  : 			int nAttackFirstRange = pProp->m_nAttackFirstRange;

  00236	0f bf 93 86 02
	00 00		 movsx	 edx, WORD PTR [ebx+646]
  0023d	89 55 e8	 mov	 DWORD PTR _nAttackFirstRange$1$[ebp], edx

; 418  : #if __VER >= 18
; 419  : 			if( nAttackFirstRange > 60 || nAttackFirstRange <= 0 )

  00240	8d 42 ff	 lea	 eax, DWORD PTR [edx-1]
  00243	83 f8 3b	 cmp	 eax, 59			; 0000003bH
  00246	0f 87 d0 00 00
	00		 ja	 $LN21@MoveProces

; 425  : 				return TRUE;
; 426  : 			}
; 427  : 
; 428  : 			// ОюЖВ СЖАЧПЁ ЧиДчЧЯДТ ЧУЗЙРЬОюАЁ РжДТСі НКФЫЧбДй.
; 429  : 			if( pProp->m_nScanJob || pProp->m_dwScanQuestId || pProp->m_dwScanItemIdx || pProp->m_nScanChao )

  0024c	85 c9		 test	 ecx, ecx
  0024e	75 18		 jne	 SHORT $LN23@MoveProces
  00250	39 8b 44 02 00
	00		 cmp	 DWORD PTR [ebx+580], ecx
  00256	75 10		 jne	 SHORT $LN23@MoveProces
  00258	39 8b 48 02 00
	00		 cmp	 DWORD PTR [ebx+584], ecx
  0025e	75 08		 jne	 SHORT $LN23@MoveProces
  00260	39 8b 4c 02 00
	00		 cmp	 DWORD PTR [ebx+588], ecx
  00266	74 26		 je	 SHORT $LN83@MoveProces
$LN23@MoveProces:

; 430  : 				pTarget = ScanTarget( pMover, nAttackFirstRange, pProp->m_nScanJob, pProp->m_dwScanQuestId, pProp->m_dwScanItemIdx, pProp->m_nScanChao );

  00268	ff b3 4c 02 00
	00		 push	 DWORD PTR [ebx+588]
  0026e	ff b3 48 02 00
	00		 push	 DWORD PTR [ebx+584]
  00274	ff b3 44 02 00
	00		 push	 DWORD PTR [ebx+580]
  0027a	51		 push	 ecx
  0027b	52		 push	 edx
  0027c	57		 push	 edi
  0027d	8b ce		 mov	 ecx, esi
  0027f	e8 00 00 00 00	 call	 ?ScanTarget@CAIInterface@@IAEPAVCMover@@PAVCObj@@HHKKH@Z ; CAIInterface::ScanTarget
  00284	89 45 ec	 mov	 DWORD PTR _pTarget$1$[ebp], eax

; 431  : 
; 432  : 			// СЖАЧПЁ ИТДТ ЧУЗЙРЬОюАЁ ОјАэ МБАјИїРЬИщ МБАјИї ЧќХТРЧ НКФЫРЛ ЧбДй.
; 433  : 			if( pTarget == NULL && GetMover()->m_bActiveAttack )//&& GetMover()->IsRegionAttr( RA_SAFETY ) == FALSE )

  00287	85 c0		 test	 eax, eax
  00289	75 2f		 jne	 SHORT $LN82@MoveProces
  0028b	8b 55 e8	 mov	 edx, DWORD PTR _nAttackFirstRange$1$[ebp]
$LN83@MoveProces:
  0028e	8b 46 30	 mov	 eax, DWORD PTR [esi+48]
  00291	83 b8 68 06 00
	00 00		 cmp	 DWORD PTR [eax+1640], 0
  00298	0f 84 9d 00 00
	00		 je	 $LN29@MoveProces

; 434  : 				pTarget = ScanTarget( pMover, nAttackFirstRange, JOB_ALL );

  0029e	6a 00		 push	 0
  002a0	6a 00		 push	 0
  002a2	6a 00		 push	 0
  002a4	6a 28		 push	 40			; 00000028H
  002a6	52		 push	 edx
  002a7	57		 push	 edi
  002a8	8b ce		 mov	 ecx, esi
  002aa	e8 00 00 00 00	 call	 ?ScanTarget@CAIInterface@@IAEPAVCMover@@PAVCObj@@HHKKH@Z ; CAIInterface::ScanTarget
  002af	89 45 ec	 mov	 DWORD PTR _pTarget$1$[ebp], eax

; 435  : 
; 436  : 			if( pTarget )

  002b2	85 c0		 test	 eax, eax
  002b4	0f 84 81 00 00
	00		 je	 $LN29@MoveProces
$LN82@MoveProces:
; File C:\IAGOS\server\v18\Source\Source\_Common\Obj.h

; 180  : 	BOOL			IsDelete()	{ return (m_dwFlags & OBJ_FLAG_DELETE);  }

  002ba	f6 40 04 01	 test	 BYTE PTR [eax+4], 1

; 327  : 	return pObj && ( pObj->IsDelete() == FALSE ); 

  002be	75 7b		 jne	 SHORT $LN29@MoveProces
; File C:\IAGOS\server\v18\Source\Source\_aiinterface\aimonster.cpp

; 444  : 					if( (pMover->IsFlyingNPC() || pTarget->m_pActMover->IsFly() == FALSE) || pProp->dwClass == RANK_GUARD )	// АЁЕхДТ ЙЋСЖАЧ АјАн.

  002c0	f7 87 3c 02 00
	00 00 00 01 00	 test	 DWORD PTR [edi+572], 65536 ; 00010000H
  002ca	75 15		 jne	 SHORT $LN28@MoveProces
  002cc	8b 80 38 02 00
	00		 mov	 eax, DWORD PTR [eax+568]
  002d2	f6 40 08 08	 test	 BYTE PTR [eax+8], 8
  002d6	74 09		 je	 SHORT $LN28@MoveProces
  002d8	83 bb 94 00 00
	00 08		 cmp	 DWORD PTR [ebx+148], 8
  002df	75 5a		 jne	 SHORT $LN29@MoveProces
$LN28@MoveProces:

; 445  : #endif	// __VER >= 8  
; 446  : 					{
; 447  : 						// ХИАйРЬ СИРчЧЯИщ УпРћ И№ЕхЗЮ КЏАц 
; 448  : 						if( pTarget )	
; 449  : 						{
; 450  : 							g_UserMng.AddDlgEmoticon( pMover, DLGEMOT_ATTACK );

  002e1	6a 00		 push	 0
  002e3	57		 push	 edi
  002e4	b9 00 00 00 00	 mov	 ecx, OFFSET ?g_UserMng@@3VCUserMng@@A ; g_UserMng
  002e9	e8 00 00 00 00	 call	 ?AddDlgEmoticon@CUserMng@@QAEXPAVCCtrl@@H@Z ; CUserMng::AddDlgEmoticon

; 451  : 							SendAIMsg( AIMSG_SETSTATE, STATE_RAGE, pTarget->GetId() );

  002ee	8b 4d ec	 mov	 ecx, DWORD PTR _pTarget$1$[ebp]
  002f1	8b 06		 mov	 eax, DWORD PTR [esi]
  002f3	6a 00		 push	 0
  002f5	ff b1 bc 01 00
	00		 push	 DWORD PTR [ecx+444]
  002fb	8b ce		 mov	 ecx, esi
  002fd	6a 07		 push	 7
  002ff	6a 04		 push	 4
  00301	ff 50 0c	 call	 DWORD PTR [eax+12]
  00304	5f		 pop	 edi

; 452  : 						}
; 453  : 					}
; 454  : 				}
; 455  : 			}	// if( target)
; 456  : 		}	// if( scan )
; 457  : 
; 458  : 	}
; 459  : 	return TRUE;
; 460  : }

  00305	5e		 pop	 esi
  00306	b8 01 00 00 00	 mov	 eax, 1
  0030b	5b		 pop	 ebx
  0030c	8b 4d fc	 mov	 ecx, DWORD PTR __$ArrayPad$[ebp]
  0030f	33 cd		 xor	 ecx, ebp
  00311	e8 00 00 00 00	 call	 @__security_check_cookie@4
  00316	8b e5		 mov	 esp, ebp
  00318	5d		 pop	 ebp
  00319	c2 04 00	 ret	 4
$LN21@MoveProces:

; 420  : #else
; 421  : 			if( nAttackFirstRange > 10 || nAttackFirstRange <= 0 )
; 422  : #endif
; 423  : 			{
; 424  : 				Error( "m_nAttackFirstRange РЬЛѓ:%d %s\n", pProp->m_nAttackFirstRange, pMover->GetName() );

  0031c	0f bf b3 86 02
	00 00		 movsx	 esi, WORD PTR [ebx+646]
  00323	8b cf		 mov	 ecx, edi
  00325	6a 00		 push	 0
  00327	e8 00 00 00 00	 call	 ?GetName@CMover@@QAEPBDH@Z ; CMover::GetName
  0032c	50		 push	 eax
  0032d	56		 push	 esi
  0032e	68 00 00 00 00	 push	 OFFSET ??_C@_0CA@GLBIGGGO@m_nAttackFirstRange?5?$MA?L?$LL?s?3?$CFd?5?$CFs?6@
  00333	e8 00 00 00 00	 call	 ?Error@@YAPBDPBDZZ	; Error
  00338	83 c4 0c	 add	 esp, 12			; 0000000cH
$LN29@MoveProces:

; 452  : 						}
; 453  : 					}
; 454  : 				}
; 455  : 			}	// if( target)
; 456  : 		}	// if( scan )
; 457  : 
; 458  : 	}
; 459  : 	return TRUE;
; 460  : }

  0033b	5f		 pop	 edi
  0033c	5e		 pop	 esi
  0033d	b8 01 00 00 00	 mov	 eax, 1
  00342	5b		 pop	 ebx
  00343	8b 4d fc	 mov	 ecx, DWORD PTR __$ArrayPad$[ebp]
  00346	33 cd		 xor	 ecx, ebp
  00348	e8 00 00 00 00	 call	 @__security_check_cookie@4
  0034d	8b e5		 mov	 esp, ebp
  0034f	5d		 pop	 ebp
  00350	c2 04 00	 ret	 4
$LN3@MoveProces:
  00353	8b 4d fc	 mov	 ecx, DWORD PTR __$ArrayPad$[ebp]
  00356	33 c0		 xor	 eax, eax
  00358	5f		 pop	 edi
  00359	5e		 pop	 esi
  0035a	33 cd		 xor	 ecx, ebp
  0035c	5b		 pop	 ebx
  0035d	e8 00 00 00 00	 call	 @__security_check_cookie@4
  00362	8b e5		 mov	 esp, ebp
  00364	5d		 pop	 ebp
  00365	c2 04 00	 ret	 4
?MoveProcessIdle@CAIMonster@@IAEHABUAIMSG@@@Z ENDP	; CAIMonster::MoveProcessIdle
_TEXT	ENDS
; Function compile flags: /Ogtp
; File C:\IAGOS\server\v18\Source\Source\_aiinterface\aimonster.cpp
; File C:\IAGOS\server\v18\Source\Source\_Common\Project.h
; File C:\IAGOS\server\v18\Source\Source\_aiinterface\aimonster.cpp
; File C:\IAGOS\server\v18\Source\Source\_Common\Mover.h
; File C:\IAGOS\server\v18\Source\Source\_Common\Project.h
; File C:\IAGOS\server\v18\Source\Source\_aiinterface\aimonster.cpp
; File C:\IAGOS\server\v18\Source\Source\_Common\Obj.h
; File C:\IAGOS\server\v18\Source\Source\_aiinterface\aimonster.cpp
; File C:\IAGOS\server\v18\Source\Source\_Common\Obj.h
; File C:\IAGOS\server\v18\Source\Source\DX_SDK\d3dx9math.inl
; File C:\IAGOS\server\v18\Source\Source\_Common\Obj.h
; File C:\IAGOS\server\v18\Source\Source\_aiinterface\aimonster.cpp
; File C:\IAGOS\server\v18\Source\Source\DX_SDK\d3dx9math.inl
; File C:\IAGOS\server\v18\Source\Source\_aiinterface\aimonster.cpp
; File C:\IAGOS\server\v18\Source\Source\DX_SDK\d3dx9math.inl
; File C:\IAGOS\server\v18\Source\Source\_aiinterface\aimonster.cpp
; File C:\IAGOS\server\v18\Source\Source\DX_SDK\d3dx9math.inl
; File C:\IAGOS\server\v18\Source\Source\_aiinterface\aimonster.cpp
;	COMDAT ?SelectAttackType@CAIMonster@@IAEHPAVCMover@@@Z
_TEXT	SEGMENT
$T1 = -32						; size = 12
$T2 = -20						; size = 12
_pMover$1$ = -8						; size = 4
_nRange$1$ = -4						; size = 4
_pTarget$ = 8						; size = 4
?SelectAttackType@CAIMonster@@IAEHPAVCMover@@@Z PROC	; CAIMonster::SelectAttackType, COMDAT
; _this$ = ecx

; 1410 : {

  00000	55		 push	 ebp
  00001	8b ec		 mov	 ebp, esp
  00003	83 ec 20	 sub	 esp, 32			; 00000020H

; 1411 : 	int nAttackType = 0;
; 1412 : 
; 1413 : 	CMover* pMover = GetMover();

  00006	8b 41 30	 mov	 eax, DWORD PTR [ecx+48]
; File C:\IAGOS\server\v18\Source\Source\_Common\Project.h

; 1406 : 	VERIFY_RANGE( nIndex, 0, m_nMoverPropSize, "GetMoverProp range_error", NULL );

  00009	8b 0d b4 01 00
	00		 mov	 ecx, DWORD PTR ?prj@@3VCProject@@A+436
; File C:\IAGOS\server\v18\Source\Source\_aiinterface\aimonster.cpp

; 1410 : {

  0000f	53		 push	 ebx
  00010	56		 push	 esi
  00011	57		 push	 edi

; 1411 : 	int nAttackType = 0;
; 1412 : 
; 1413 : 	CMover* pMover = GetMover();

  00012	89 45 f8	 mov	 DWORD PTR _pMover$1$[ebp], eax
  00015	33 ff		 xor	 edi, edi
; File C:\IAGOS\server\v18\Source\Source\_Common\Mover.h

; 1020 : 	MoverProp*		GetProp() { return prj.GetMoverProp( m_dwIndex ); }	// АДУМРЧ ЧСЗЮЦлЦМ ОђБт 	

  00017	8b 80 74 01 00
	00		 mov	 eax, DWORD PTR [eax+372]
; File C:\IAGOS\server\v18\Source\Source\_Common\Project.h

; 1406 : 	VERIFY_RANGE( nIndex, 0, m_nMoverPropSize, "GetMoverProp range_error", NULL );

  0001d	85 c0		 test	 eax, eax
  0001f	78 12		 js	 SHORT $LN20@SelectAtta
  00021	3b c1		 cmp	 eax, ecx
  00023	7d 0e		 jge	 SHORT $LN20@SelectAtta

; 1407 : 	return m_pPropMover + nIndex;

  00025	69 f0 90 06 00
	00		 imul	 esi, eax, 1680
  0002b	03 35 b8 01 00
	00		 add	 esi, DWORD PTR ?prj@@3VCProject@@A+440
  00031	eb 18		 jmp	 SHORT $LN15@SelectAtta
$LN20@SelectAtta:

; 579  : 	LPCTSTR szErr = Error( _T( "%s min:%d, max:%d, index:%d" ), szMsg, nMin, nMax, nIndex ); 

  00033	50		 push	 eax
  00034	51		 push	 ecx
  00035	6a 00		 push	 0
  00037	68 00 00 00 00	 push	 OFFSET ??_C@_0BJ@GKPOBPPI@GetMoverProp?5range_error@
  0003c	68 00 00 00 00	 push	 OFFSET ??_C@_0BM@HMFGHCP@?$CFs?5min?3?$CFd?0?5max?3?$CFd?0?5index?3?$CFd@
  00041	e8 00 00 00 00	 call	 ?Error@@YAPBDPBDZZ	; Error
  00046	83 c4 14	 add	 esp, 20			; 00000014H

; 1406 : 	VERIFY_RANGE( nIndex, 0, m_nMoverPropSize, "GetMoverProp range_error", NULL );

  00049	33 f6		 xor	 esi, esi
$LN15@SelectAtta:
; File C:\IAGOS\server\v18\Source\Source\_aiinterface\aimonster.cpp

; 1420 : 	if( pTarget->IsPlayer() )		nTargetJob = pTarget->GetJob();		// ХИАйРЧ СїОї.

  0004b	8b 5d 08	 mov	 ebx, DWORD PTR _pTarget$[ebp]
  0004e	33 c0		 xor	 eax, eax
  00050	0f b6 96 f8 01
	00 00		 movzx	 edx, BYTE PTR [esi+504]
  00057	83 e2 7f	 and	 edx, 127		; 0000007fH
  0005a	89 55 fc	 mov	 DWORD PTR _nRange$1$[ebp], edx
  0005d	39 83 30 02 00
	00		 cmp	 DWORD PTR [ebx+560], eax
  00063	74 0a		 je	 SHORT $LN2@SelectAtta
  00065	8b cb		 mov	 ecx, ebx
  00067	e8 00 00 00 00	 call	 ?GetJob@CMover@@QAEHXZ	; CMover::GetJob
  0006c	8b 55 fc	 mov	 edx, DWORD PTR _nRange$1$[ebp]
$LN2@SelectAtta:

; 1421 : 
; 1422 : 	BOOL bRange = ( pProp->m_bRangeAttack[ nTargetJob ] ) ? TRUE : FALSE;	// AIПЁ АХИЎАЁ РжРИИщ ПјАХИЎ AIРжРН.
; 1423 : 	BOOL bMelee = (BOOL)pProp->m_bMeleeAttack;								// AIПЁ БйАХИЎАјАнЕЕ РжДТСі.
; 1424 : 
; 1425 : 
; 1426 : 	if( bRange && bMelee )		// ПјАХИЎ/БйАХИЎ ЕбДй АЁСіАэ РжРН

  0006f	80 bc 06 f8 01
	00 00 00	 cmp	 BYTE PTR [esi+eax+504], 0
  00077	8a 8e f4 01 00
	00		 mov	 cl, BYTE PTR [esi+500]
  0007d	0f 84 99 00 00
	00		 je	 $LN34@SelectAtta
  00083	84 c9		 test	 cl, cl
  00085	0f 84 83 00 00
	00		 je	 $LN35@SelectAtta
; File C:\IAGOS\server\v18\Source\Source\_Common\Obj.h

; 215  : 	D3DXVECTOR3		GetPos()	{ return m_vPos; }

  0008b	8b 45 f8	 mov	 eax, DWORD PTR _pMover$1$[ebp]
  0008e	5f		 pop	 edi
; File C:\IAGOS\server\v18\Source\Source\_aiinterface\aimonster.cpp

; 1447 : }

  0008f	5e		 pop	 esi
; File C:\IAGOS\server\v18\Source\Source\_Common\Obj.h

; 215  : 	D3DXVECTOR3		GetPos()	{ return m_vPos; }

  00090	f3 0f 7e 80 60
	01 00 00	 movq	 xmm0, QWORD PTR [eax+352]
  00098	8b 80 68 01 00
	00		 mov	 eax, DWORD PTR [eax+360]
  0009e	66 0f d6 45 e0	 movq	 QWORD PTR $T1[ebp], xmm0
  000a3	f3 0f 7e 83 60
	01 00 00	 movq	 xmm0, QWORD PTR [ebx+352]
  000ab	89 45 e8	 mov	 DWORD PTR $T1[ebp+8], eax
  000ae	8b 83 68 01 00
	00		 mov	 eax, DWORD PTR [ebx+360]
  000b4	66 0f d6 45 ec	 movq	 QWORD PTR $T2[ebp], xmm0
; File C:\IAGOS\server\v18\Source\Source\DX_SDK\d3dx9math.inl

; 383  :     return D3DXVECTOR3(x - v.x, y - v.y, z - v.z);

  000b9	f3 0f 10 4d ec	 movss	 xmm1, DWORD PTR $T2[ebp]
  000be	f3 0f 10 55 f0	 movss	 xmm2, DWORD PTR $T2[ebp+4]
  000c3	f3 0f 5c 55 e4	 subss	 xmm2, DWORD PTR $T1[ebp+4]
  000c8	f3 0f 5c 4d e0	 subss	 xmm1, DWORD PTR $T1[ebp]
; File C:\IAGOS\server\v18\Source\Source\_Common\Obj.h

; 215  : 	D3DXVECTOR3		GetPos()	{ return m_vPos; }

  000cd	89 45 f4	 mov	 DWORD PTR $T2[ebp+8], eax
; File C:\IAGOS\server\v18\Source\Source\_aiinterface\aimonster.cpp

; 1431 : 		int nHalfRange = nRange / 2;		// ЛчАХИЎРЧ Йн.

  000d0	8b c2		 mov	 eax, edx
; File C:\IAGOS\server\v18\Source\Source\DX_SDK\d3dx9math.inl

; 383  :     return D3DXVECTOR3(x - v.x, y - v.y, z - v.z);

  000d2	f3 0f 10 45 f4	 movss	 xmm0, DWORD PTR $T2[ebp+8]
  000d7	f3 0f 5c 45 e8	 subss	 xmm0, DWORD PTR $T1[ebp+8]
; File C:\IAGOS\server\v18\Source\Source\_aiinterface\aimonster.cpp

; 1431 : 		int nHalfRange = nRange / 2;		// ЛчАХИЎРЧ Йн.

  000dc	99		 cdq
  000dd	2b c2		 sub	 eax, edx
  000df	f3 0f 59 d2	 mulss	 xmm2, xmm2
  000e3	d1 f8		 sar	 eax, 1
; File C:\IAGOS\server\v18\Source\Source\DX_SDK\d3dx9math.inl

; 1698 :     return pV->x * pV->x + pV->y * pV->y + pV->z * pV->z;

  000e5	f3 0f 59 c9	 mulss	 xmm1, xmm1
; File C:\IAGOS\server\v18\Source\Source\_aiinterface\aimonster.cpp

; 1447 : }

  000e9	5b		 pop	 ebx
  000ea	0f af c0	 imul	 eax, eax
; File C:\IAGOS\server\v18\Source\Source\DX_SDK\d3dx9math.inl

; 1698 :     return pV->x * pV->x + pV->y * pV->y + pV->z * pV->z;

  000ed	f3 0f 59 c0	 mulss	 xmm0, xmm0
  000f1	f3 0f 58 d1	 addss	 xmm2, xmm1
  000f5	f3 0f 58 d0	 addss	 xmm2, xmm0
  000f9	66 0f 6e c0	 movd	 xmm0, eax
; File C:\IAGOS\server\v18\Source\Source\_aiinterface\aimonster.cpp

; 1432 : 		if( fDistSq < (nHalfRange * nHalfRange) )	// ГЪЙЋ АЁБюРЬ КйОюРжОю АХИЎРЏСіАЁ ШїЕщИщ.

  000fd	0f 5b c0	 cvtdq2ps xmm0, xmm0
  00100	33 c0		 xor	 eax, eax
  00102	0f 2f c2	 comiss	 xmm0, xmm2
  00105	0f 96 c0	 setbe	 al

; 1447 : }

  00108	8b e5		 mov	 esp, ebp
  0010a	5d		 pop	 ebp
  0010b	c2 04 00	 ret	 4
$LN35@SelectAtta:
  0010e	5f		 pop	 edi
  0010f	5e		 pop	 esi
  00110	b8 01 00 00 00	 mov	 eax, 1
  00115	5b		 pop	 ebx
  00116	8b e5		 mov	 esp, ebp
  00118	5d		 pop	 ebp
  00119	c2 04 00	 ret	 4
$LN34@SelectAtta:

; 1433 : 			nAttackType = 0;	// БйСЂАјАнРИЗЮ ЧЯРк.
; 1434 : 		else
; 1435 : 			nAttackType = 1;	// АХИЎПЁ ПЉРЏАЁ РжРИЙЧЗЮ ПјАХИЎ АјАн.
; 1436 : 	} else
; 1437 : 	if( bRange && bMelee == FALSE )		// ПјАХИЎИИ АЁСіАэ РжРН
; 1438 : 	{
; 1439 : 		nAttackType = 1;
; 1440 : 	} else
; 1441 : 	if( bRange == FALSE && bMelee )		// БйАХИЎИИ АЁСіАэ РжРН

  0011c	33 c0		 xor	 eax, eax
  0011e	84 c9		 test	 cl, cl
  00120	0f 45 f8	 cmovne	 edi, eax

; 1442 : 	{
; 1443 : 		nAttackType = 0;
; 1444 : 	}
; 1445 : 
; 1446 : 	return nAttackType;

  00123	8b c7		 mov	 eax, edi
  00125	5f		 pop	 edi

; 1447 : }

  00126	5e		 pop	 esi
  00127	5b		 pop	 ebx
  00128	8b e5		 mov	 esp, ebp
  0012a	5d		 pop	 ebp
  0012b	c2 04 00	 ret	 4
?SelectAttackType@CAIMonster@@IAEHPAVCMover@@@Z ENDP	; CAIMonster::SelectAttackType
_TEXT	ENDS
; Function compile flags: /Ogtp
; File C:\IAGOS\server\v18\Source\Source\_aiinterface\aimonster.cpp
; File C:\IAGOS\server\v18\Source\Source\DX_SDK\d3dx9math.inl
; File C:\IAGOS\server\v18\Source\Source\_aiinterface\aimonster.cpp
; File C:\IAGOS\server\v18\Source\Source\DX_SDK\d3dx9math.inl
; File C:\IAGOS\server\v18\Source\Source\_aiinterface\aimonster.cpp
; File C:\IAGOS\server\v18\Source\Source\DX_SDK\d3dx9math.inl
; File C:\IAGOS\server\v18\Source\Source\_aiinterface\aimonster.cpp
;	COMDAT ?IsInRange@CAIMonster@@IAEHAAUD3DXVECTOR3@@M@Z
_TEXT	SEGMENT
_vDistant$ = 8						; size = 4
_fRange$ = 12						; size = 4
?IsInRange@CAIMonster@@IAEHAAUD3DXVECTOR3@@M@Z PROC	; CAIMonster::IsInRange, COMDAT
; _this$ = ecx

; 220  : {

  00000	55		 push	 ebp
  00001	8b ec		 mov	 ebp, esp

; 222  : 	vDistant.y	= 0.0f;

  00003	8b 45 08	 mov	 eax, DWORD PTR _vDistant$[ebp]
  00006	0f 57 c0	 xorps	 xmm0, xmm0
; File C:\IAGOS\server\v18\Source\Source\DX_SDK\d3dx9math.inl

; 1698 :     return pV->x * pV->x + pV->y * pV->y + pV->z * pV->z;

  00009	f3 0f 10 10	 movss	 xmm2, DWORD PTR [eax]
  0000d	f3 0f 10 48 08	 movss	 xmm1, DWORD PTR [eax+8]
  00012	f3 0f 59 d2	 mulss	 xmm2, xmm2
; File C:\IAGOS\server\v18\Source\Source\_aiinterface\aimonster.cpp

; 222  : 	vDistant.y	= 0.0f;

  00016	c7 40 04 00 00
	00 00		 mov	 DWORD PTR [eax+4], 0

; 225  : 	if( fDistSq > fRange * fRange )	

  0001d	33 c0		 xor	 eax, eax
; File C:\IAGOS\server\v18\Source\Source\DX_SDK\d3dx9math.inl

; 1698 :     return pV->x * pV->x + pV->y * pV->y + pV->z * pV->z;

  0001f	f3 0f 59 c9	 mulss	 xmm1, xmm1
  00023	f3 0f 58 d0	 addss	 xmm2, xmm0
; File C:\IAGOS\server\v18\Source\Source\_aiinterface\aimonster.cpp

; 225  : 	if( fDistSq > fRange * fRange )	

  00027	f3 0f 10 45 0c	 movss	 xmm0, DWORD PTR _fRange$[ebp]
  0002c	f3 0f 59 c0	 mulss	 xmm0, xmm0
; File C:\IAGOS\server\v18\Source\Source\DX_SDK\d3dx9math.inl

; 1698 :     return pV->x * pV->x + pV->y * pV->y + pV->z * pV->z;

  00030	f3 0f 58 d1	 addss	 xmm2, xmm1
; File C:\IAGOS\server\v18\Source\Source\_aiinterface\aimonster.cpp

; 225  : 	if( fDistSq > fRange * fRange )	

  00034	0f 2f d0	 comiss	 xmm2, xmm0
  00037	0f 96 c0	 setbe	 al

; 226  : 		return FALSE;
; 227  : 	return TRUE;
; 228  : }

  0003a	5d		 pop	 ebp
  0003b	c2 08 00	 ret	 8
?IsInRange@CAIMonster@@IAEHAAUD3DXVECTOR3@@M@Z ENDP	; CAIMonster::IsInRange
_TEXT	ENDS
; Function compile flags: /Ogtp
; File C:\IAGOS\server\v18\Source\Source\_AIInterface\AIMonster.h
; File C:\IAGOS\server\v18\Source\Source\_AIInterface\Action.h
; File C:\IAGOS\server\v18\Source\Source\_AIInterface\AIMonster.h
;	COMDAT ?IsMove@CAIMonster@@IAEHXZ
_TEXT	SEGMENT
?IsMove@CAIMonster@@IAEHXZ PROC				; CAIMonster::IsMove, COMDAT
; _this$ = ecx
; File C:\IAGOS\server\v18\Source\Source\_AIInterface\Action.h

; 300  : 	DWORD			GetMoveState() { return m_dwState & OBJSTA_MOVE_ALL; }

  00000	8b 41 30	 mov	 eax, DWORD PTR [ecx+48]
  00003	8b 80 38 02 00
	00		 mov	 eax, DWORD PTR [eax+568]
  00009	8b 40 04	 mov	 eax, DWORD PTR [eax+4]
  0000c	25 ff 00 00 00	 and	 eax, 255		; 000000ffH

; 318  : 	BOOL			IsMove() { return ( GetMoveState() == OBJSTA_FMOVE || GetMoveState() == OBJSTA_BMOVE || GetMoveState() == OBJSTA_LEFT || GetMoveState() == OBJSTA_RIGHT ) ? TRUE : FALSE; }  	

  00011	83 f8 04	 cmp	 eax, 4
  00014	74 12		 je	 SHORT $LN5@IsMove
  00016	83 f8 05	 cmp	 eax, 5
  00019	74 0d		 je	 SHORT $LN5@IsMove
  0001b	83 f8 06	 cmp	 eax, 6
  0001e	74 08		 je	 SHORT $LN5@IsMove
  00020	83 f8 07	 cmp	 eax, 7
  00023	74 03		 je	 SHORT $LN5@IsMove
; File C:\IAGOS\server\v18\Source\Source\_AIInterface\AIMonster.h

; 59   : 	BOOL			IsMove() { return GetMover()->m_pActMover->IsMove(); }

  00025	33 c0		 xor	 eax, eax
  00027	c3		 ret	 0
$LN5@IsMove:
  00028	b8 01 00 00 00	 mov	 eax, 1
  0002d	c3		 ret	 0
?IsMove@CAIMonster@@IAEHXZ ENDP				; CAIMonster::IsMove
_TEXT	ENDS
; Function compile flags: /Ogtp
; File C:\IAGOS\server\v18\Source\Source\_aiinterface\aimonster.cpp
; File C:\IAGOS\server\v18\Source\Source\_AIInterface\Action.h
; File C:\IAGOS\server\v18\Source\Source\_aiinterface\aimonster.cpp
;	COMDAT ?IsEndStop@CAIMonster@@IAEHXZ
_TEXT	SEGMENT
?IsEndStop@CAIMonster@@IAEHXZ PROC			; CAIMonster::IsEndStop, COMDAT
; _this$ = ecx

; 142  : 	return ( TIMEGETTIME > m_tmMove ) && ( IsMove() == FALSE ) ; 

  00000	a1 00 00 00 00	 mov	 eax, DWORD PTR ?g_tmCurrent@@3KA ; g_tmCurrent
  00005	3b 41 38	 cmp	 eax, DWORD PTR [ecx+56]
  00008	76 2b		 jbe	 SHORT $LN3@IsEndStop
; File C:\IAGOS\server\v18\Source\Source\_AIInterface\Action.h

; 300  : 	DWORD			GetMoveState() { return m_dwState & OBJSTA_MOVE_ALL; }

  0000a	8b 41 30	 mov	 eax, DWORD PTR [ecx+48]
  0000d	8b 80 38 02 00
	00		 mov	 eax, DWORD PTR [eax+568]
  00013	8b 40 04	 mov	 eax, DWORD PTR [eax+4]
  00016	25 ff 00 00 00	 and	 eax, 255		; 000000ffH

; 318  : 	BOOL			IsMove() { return ( GetMoveState() == OBJSTA_FMOVE || GetMoveState() == OBJSTA_BMOVE || GetMoveState() == OBJSTA_LEFT || GetMoveState() == OBJSTA_RIGHT ) ? TRUE : FALSE; }  	

  0001b	83 f8 04	 cmp	 eax, 4
  0001e	74 15		 je	 SHORT $LN3@IsEndStop
  00020	83 f8 05	 cmp	 eax, 5
  00023	74 10		 je	 SHORT $LN3@IsEndStop
  00025	83 f8 06	 cmp	 eax, 6
  00028	74 0b		 je	 SHORT $LN3@IsEndStop
  0002a	83 f8 07	 cmp	 eax, 7
  0002d	74 06		 je	 SHORT $LN3@IsEndStop
; File C:\IAGOS\server\v18\Source\Source\_aiinterface\aimonster.cpp

; 142  : 	return ( TIMEGETTIME > m_tmMove ) && ( IsMove() == FALSE ) ; 

  0002f	b8 01 00 00 00	 mov	 eax, 1

; 143  : }

  00034	c3		 ret	 0
$LN3@IsEndStop:

; 142  : 	return ( TIMEGETTIME > m_tmMove ) && ( IsMove() == FALSE ) ; 

  00035	33 c0		 xor	 eax, eax

; 143  : }

  00037	c3		 ret	 0
?IsEndStop@CAIMonster@@IAEHXZ ENDP			; CAIMonster::IsEndStop
_TEXT	ENDS
; Function compile flags: /Ogtp
; File C:\IAGOS\server\v18\Source\Source\_aiinterface\aimonster.cpp
; File C:\IAGOS\server\v18\Source\Source\_Common\Mover.h
; File C:\IAGOS\server\v18\Source\Source\_aiinterface\aimonster.cpp
;	COMDAT ?SetStop@CAIMonster@@IAEXK@Z
_TEXT	SEGMENT
_dwTime$ = 8						; size = 4
?SetStop@CAIMonster@@IAEXK@Z PROC			; CAIMonster::SetStop, COMDAT
; _this$ = ecx

; 135  : { 

  00000	55		 push	 ebp
  00001	8b ec		 mov	 ebp, esp

; 136  : 	m_tmMove = TIMEGETTIME + dwTime;

  00003	a1 00 00 00 00	 mov	 eax, DWORD PTR ?g_tmCurrent@@3KA ; g_tmCurrent
  00008	03 45 08	 add	 eax, DWORD PTR _dwTime$[ebp]
  0000b	56		 push	 esi

; 137  : 	GetMover()->SetStop(); 

  0000c	8b 71 30	 mov	 esi, DWORD PTR [ecx+48]
  0000f	89 41 38	 mov	 DWORD PTR [ecx+56], eax
; File C:\IAGOS\server\v18\Source\Source\_Common\Mover.h

; 1785 : 	if( m_pActMover )	

  00012	8b 8e 38 02 00
	00		 mov	 ecx, DWORD PTR [esi+568]
  00018	85 c9		 test	 ecx, ecx
  0001a	74 11		 je	 SHORT $LN6@SetStop

; 1786 : 		return m_pActMover->SendActMsg( dwMsg, nParam1, nParam2, nParam3, nParam4 );	

  0001c	8b 01		 mov	 eax, DWORD PTR [ecx]
  0001e	6a 00		 push	 0
  00020	6a 00		 push	 0
  00022	6a 00		 push	 0
  00024	6a 00		 push	 0
  00026	6a 00		 push	 0
  00028	6a 03		 push	 3
  0002a	ff 50 04	 call	 DWORD PTR [eax+4]
$LN6@SetStop:

; 1030 : 	void			ClearDestObj()     	{ m_idDest = NULL_ID; m_fArrivalRange = 0.0f; }

  0002d	c7 86 58 02 00
	00 ff ff ff ff	 mov	 DWORD PTR [esi+600], -1
  00037	c7 86 54 02 00
	00 00 00 00 00	 mov	 DWORD PTR [esi+596], 0
  00041	5e		 pop	 esi
; File C:\IAGOS\server\v18\Source\Source\_aiinterface\aimonster.cpp

; 138  : } 

  00042	5d		 pop	 ebp
  00043	c2 04 00	 ret	 4
?SetStop@CAIMonster@@IAEXK@Z ENDP			; CAIMonster::SetStop
_TEXT	ENDS
; Function compile flags: /Ogtp
; File C:\IAGOS\server\v18\Source\Source\_aiinterface\aimonster.cpp
; File C:\IAGOS\server\v18\Source\Source\_Common\Obj.h
; File C:\IAGOS\server\v18\Source\Source\_aiinterface\aimonster.cpp
; File C:\IAGOS\server\v18\Source\Source\_Common\Obj.h
; File C:\IAGOS\server\v18\Source\Source\_aiinterface\aimonster.cpp
; File C:\IAGOS\server\v18\Source\Source\_Common\Obj.h
; File C:\IAGOS\server\v18\Source\Source\_aiinterface\aimonster.cpp
; File C:\IAGOS\server\v18\Source\Source\_Common\Obj.h
; File C:\IAGOS\server\v18\Source\Source\_aiinterface\aimonster.cpp
; File C:\IAGOS\server\v18\Source\Source\_Common\Obj.h
; File C:\IAGOS\server\v18\Source\Source\_aiinterface\aimonster.cpp
; File C:\IAGOS\server\v18\Source\Source\_Common\Obj.h
; File C:\IAGOS\server\v18\Source\Source\_aiinterface\aimonster.cpp
; File C:\IAGOS\server\v18\Source\Source\_Common\Party.h
; File C:\IAGOS\server\v18\Source\Source\_aiinterface\aimonster.cpp
;	COMDAT ?CallHelper@CAIMonster@@IAEXPBUMoverProp@@@Z
_TEXT	SEGMENT
_this$GSCopy$1$ = -1080					; size = 4
_nRange$1$ = -1076					; size = 4
_vPos$ = -1072						; size = 12
__nMaxHeight$1$ = -1060					; size = 4
tv2080 = -1060						; size = 4
_nCountPlayer$1$ = -1056				; size = 4
__k$1$ = -1052						; size = 4
tv2119 = -1048						; size = 4
tv2116 = -1048						; size = 4
__pObjs$1$ = -1044					; size = 4
___limit$1$ = -1044					; size = 4
$T1 = -1040						; size = 4
__pObjs$1$ = -1040					; size = 4
__nZ$1$ = -1040						; size = 4
__i$1$ = -1036						; size = 4
tv2071 = -1036						; size = 4
_pParty$1$ = -1032					; size = 4
_pMoverProp$GSCopy$1$ = -1028				; size = 4
_pMover$1$ = -1024					; size = 4
__nMaxHeight$1$ = -1020					; size = 4
tv2070 = -1020						; size = 4
__nLinkZMax$1$ = -1020					; size = 4
__nMaxWidth$1$ = -1016					; size = 4
tv2064 = -1016						; size = 4
__j$1$ = -1012						; size = 4
__j$1$ = -1012						; size = 4
$T2 = -1005						; size = 1
__nUnit$1$ = -1004					; size = 4
__i$1$ = -1004						; size = 4
tv2063 = -1004						; size = 4
tv2050 = -1000						; size = 4
__nLinkX$1$ = -1000					; size = 4
__nMaxWidth$1$ = -996					; size = 4
__nZ$1$ = -996						; size = 4
__nLinkZMax$1$ = -996					; size = 4
tv2097 = -996						; size = 4
__nLinkZ$1$ = -992					; size = 4
__nLinkZ$1$ = -992					; size = 4
_bParty$1$ = -988					; size = 4
__nLinkX$1$ = -988					; size = 4
_i$1$ = -988						; size = 4
_apMonster$ = -984					; size = 800
_apPlayer$ = -184					; size = 160
_anCountMonster$ = -24					; size = 20
__$ArrayPad$ = -4					; size = 4
_pMoverProp$ = 8					; size = 4
?CallHelper@CAIMonster@@IAEXPBUMoverProp@@@Z PROC	; CAIMonster::CallHelper, COMDAT
; _this$ = ecx

; 1076 : {

  00000	55		 push	 ebp
  00001	8b ec		 mov	 ebp, esp
  00003	81 ec 38 04 00
	00		 sub	 esp, 1080		; 00000438H
  00009	a1 00 00 00 00	 mov	 eax, DWORD PTR ___security_cookie
  0000e	33 c5		 xor	 eax, ebp
  00010	89 45 fc	 mov	 DWORD PTR __$ArrayPad$[ebp], eax
  00013	8b c1		 mov	 eax, ecx

; 1077 : 	CMover* pMover = GetMover();
; 1078 : 	D3DXVECTOR3 vPos = pMover->GetPos();
; 1079 : 	int anCountMonster[ 5 ];
; 1080 : 	int nCountPlayer = 0;

  00015	c7 85 e0 fb ff
	ff 00 00 00 00	 mov	 DWORD PTR _nCountPlayer$1$[ebp], 0
  0001f	53		 push	 ebx
  00020	56		 push	 esi
  00021	8b 75 08	 mov	 esi, DWORD PTR _pMoverProp$[ebp]
  00024	8b 58 30	 mov	 ebx, DWORD PTR [eax+48]
  00027	89 85 c8 fb ff
	ff		 mov	 DWORD PTR _this$GSCopy$1$[ebp], eax
  0002d	57		 push	 edi

; 1097 : 	switch( pMoverProp->m_nHelpRangeMul )

  0002e	8b 8e 2c 02 00
	00		 mov	 ecx, DWORD PTR [esi+556]
; File C:\IAGOS\server\v18\Source\Source\_Common\Obj.h

; 215  : 	D3DXVECTOR3		GetPos()	{ return m_vPos; }

  00034	f3 0f 7e 83 60
	01 00 00	 movq	 xmm0, QWORD PTR [ebx+352]
  0003c	8b 83 68 01 00
	00		 mov	 eax, DWORD PTR [ebx+360]
  00042	66 0f d6 85 d0
	fb ff ff	 movq	 QWORD PTR _vPos$[ebp], xmm0
  0004a	0f 57 c0	 xorps	 xmm0, xmm0
  0004d	89 85 d8 fb ff
	ff		 mov	 DWORD PTR _vPos$[ebp+8], eax
; File C:\IAGOS\server\v18\Source\Source\_aiinterface\aimonster.cpp

; 1097 : 	switch( pMoverProp->m_nHelpRangeMul )

  00053	0f bf 86 86 02
	00 00		 movsx	 eax, WORD PTR [esi+646]
  0005a	89 b5 fc fb ff
	ff		 mov	 DWORD PTR _pMoverProp$GSCopy$1$[ebp], esi
  00060	89 9d 00 fc ff
	ff		 mov	 DWORD PTR _pMover$1$[ebp], ebx
  00066	c7 45 f8 00 00
	00 00		 mov	 DWORD PTR _anCountMonster$[ebp+16], 0
  0006d	c7 85 f8 fb ff
	ff 00 00 00 00	 mov	 DWORD PTR _pParty$1$[ebp], 0
  00077	c7 85 24 fc ff
	ff 00 00 00 00	 mov	 DWORD PTR _bParty$1$[ebp], 0
  00081	0f 11 45 e8	 movups	 XMMWORD PTR _anCountMonster$[ebp], xmm0
  00085	85 c9		 test	 ecx, ecx
  00087	74 0b		 je	 SHORT $LN41@CallHelper

; 1100 : 	default: nRange = pMoverProp->m_nAttackFirstRange * pMoverProp->m_nHelpRangeMul;	break;	// НУОпЙќРЇРЧ ЙшМі.

  00089	0f af c8	 imul	 ecx, eax
  0008c	89 8d cc fb ff
	ff		 mov	 DWORD PTR _nRange$1$[ebp], ecx
  00092	eb 0b		 jmp	 SHORT $LN2@CallHelper
$LN41@CallHelper:

; 1098 : 	{
; 1099 : 	case 0: nRange = pMoverProp->m_nAttackFirstRange / 2;	break;

  00094	99		 cdq
  00095	2b c2		 sub	 eax, edx
  00097	d1 f8		 sar	 eax, 1
  00099	89 85 cc fb ff
	ff		 mov	 DWORD PTR _nRange$1$[ebp], eax
$LN2@CallHelper:

; 1103 : 	FOR_LINKMAP( pMover->GetWorld(), vPos, pObj, nRange / MPU, CObj::linkDynamic, pMover->GetLayer() )

  0009f	8b 8b 6c 01 00
	00		 mov	 ecx, DWORD PTR [ebx+364]
  000a5	33 ff		 xor	 edi, edi
  000a7	f3 0f 10 85 d0
	fb ff ff	 movss	 xmm0, DWORD PTR _vPos$[ebp]
  000af	ff b3 b8 01 00
	00		 push	 DWORD PTR [ebx+440]
  000b5	89 bd 14 fc ff
	ff		 mov	 DWORD PTR __i$1$[ebp], edi
  000bb	66 0f 6e 49 14	 movd	 xmm1, DWORD PTR [ecx+20]
  000c0	83 c1 24	 add	 ecx, 36			; 00000024H
  000c3	0f 5b c9	 cvtdq2ps xmm1, xmm1
  000c6	6a 01		 push	 1
  000c8	f3 0f 5e c1	 divss	 xmm0, xmm1
  000cc	f3 0f 2c c0	 cvttss2si eax, xmm0
  000d0	f3 0f 10 85 d8
	fb ff ff	 movss	 xmm0, DWORD PTR _vPos$[ebp+8]
  000d8	f3 0f 5e c1	 divss	 xmm0, xmm1
  000dc	89 85 18 fc ff
	ff		 mov	 DWORD PTR __nLinkX$1$[ebp], eax
  000e2	f3 0f 2c c0	 cvttss2si eax, xmm0
  000e6	89 85 20 fc ff
	ff		 mov	 DWORD PTR __nLinkZ$1$[ebp], eax
  000ec	e8 00 00 00 00	 call	 ?GetMaxLinkLevel@CLayeredLinkMap@@QAEHKH@Z ; CLayeredLinkMap::GetMaxLinkLevel
  000f1	85 c0		 test	 eax, eax
  000f3	0f 8e 16 03 00
	00		 jle	 $NEXT$208
  000f9	0f 1f 80 00 00
	00 00		 npad	 7
$LL6@CallHelper:
  00100	ff b3 b8 01 00
	00		 push	 DWORD PTR [ebx+440]
; File C:\IAGOS\server\v18\Source\Source\_Common\Obj.h

; 221  : 	CWorld*			GetWorld()	{ return m_pWorld; }

  00106	8b 8b 6c 01 00
	00		 mov	 ecx, DWORD PTR [ebx+364]
; File C:\IAGOS\server\v18\Source\Source\_aiinterface\aimonster.cpp

; 1103 : 	FOR_LINKMAP( pMover->GetWorld(), vPos, pObj, nRange / MPU, CObj::linkDynamic, pMover->GetLayer() )

  0010c	57		 push	 edi
  0010d	6a 01		 push	 1
  0010f	83 c1 24	 add	 ecx, 36			; 00000024H
  00112	e8 00 00 00 00	 call	 ?GetLinkWidth@CLayeredLinkMap@@QAEHKHH@Z ; CLayeredLinkMap::GetLinkWidth
  00117	ff b3 b8 01 00
	00		 push	 DWORD PTR [ebx+440]
; File C:\IAGOS\server\v18\Source\Source\_Common\Obj.h

; 221  : 	CWorld*			GetWorld()	{ return m_pWorld; }

  0011d	8b 8b 6c 01 00
	00		 mov	 ecx, DWORD PTR [ebx+364]
; File C:\IAGOS\server\v18\Source\Source\_aiinterface\aimonster.cpp

; 1103 : 	FOR_LINKMAP( pMover->GetWorld(), vPos, pObj, nRange / MPU, CObj::linkDynamic, pMover->GetLayer() )

  00123	8b f0		 mov	 esi, eax
  00125	57		 push	 edi
  00126	6a 01		 push	 1
  00128	83 c1 24	 add	 ecx, 36			; 00000024H
  0012b	e8 00 00 00 00	 call	 ?GetObj@CLayeredLinkMap@@QAEPAPAVCObj@@KKH@Z ; CLayeredLinkMap::GetObj
  00130	8b 8b 6c 01 00
	00		 mov	 ecx, DWORD PTR [ebx+364]
  00136	89 85 f0 fb ff
	ff		 mov	 DWORD PTR __pObjs$1$[ebp], eax
  0013c	89 8d 1c fc ff
	ff		 mov	 DWORD PTR tv2097[ebp], ecx
  00142	8b 41 04	 mov	 eax, DWORD PTR [ecx+4]
  00145	8b d8		 mov	 ebx, eax
  00147	c1 e0 07	 shl	 eax, 7
  0014a	99		 cdq
  0014b	0f af de	 imul	 ebx, esi
  0014e	8b 49 08	 mov	 ecx, DWORD PTR [ecx+8]
  00151	0f af ce	 imul	 ecx, esi
  00154	8b b5 1c fc ff
	ff		 mov	 esi, DWORD PTR tv2097[ebp]
  0015a	f7 fb		 idiv	 ebx
  0015c	89 9d 08 fc ff
	ff		 mov	 DWORD PTR __nMaxWidth$1$[ebp], ebx
  00162	33 db		 xor	 ebx, ebx
  00164	8b 76 14	 mov	 esi, DWORD PTR [esi+20]
  00167	8b f8		 mov	 edi, eax
  00169	8b c6		 mov	 eax, esi
  0016b	89 8d 04 fc ff
	ff		 mov	 DWORD PTR __nMaxHeight$1$[ebp], ecx
  00171	0f af c7	 imul	 eax, edi
  00174	99		 cdq
  00175	2b c2		 sub	 eax, edx
  00177	8b c8		 mov	 ecx, eax
  00179	8b 85 18 fc ff
	ff		 mov	 eax, DWORD PTR __nLinkX$1$[ebp]
  0017f	99		 cdq
  00180	f7 ff		 idiv	 edi
  00182	f3 0f 2c 85 d0
	fb ff ff	 cvttss2si eax, DWORD PTR _vPos$[ebp]
  0018a	2b 95 18 fc ff
	ff		 sub	 edx, DWORD PTR __nLinkX$1$[ebp]
  00190	d1 f9		 sar	 ecx, 1
  00192	0f af d6	 imul	 edx, esi
  00195	03 d0		 add	 edx, eax
  00197	8b 85 20 fc ff
	ff		 mov	 eax, DWORD PTR __nLinkZ$1$[ebp]
  0019d	3b d1		 cmp	 edx, ecx
  0019f	99		 cdq
  001a0	0f 9f c3	 setg	 bl
  001a3	f7 ff		 idiv	 edi
  001a5	f3 0f 2c 85 d8
	fb ff ff	 cvttss2si eax, DWORD PTR _vPos$[ebp+8]
  001ad	2b 95 20 fc ff
	ff		 sub	 edx, DWORD PTR __nLinkZ$1$[ebp]
  001b3	0f af d6	 imul	 edx, esi
  001b6	03 d0		 add	 edx, eax
  001b8	33 c0		 xor	 eax, eax
  001ba	3b d1		 cmp	 edx, ecx
  001bc	0f 9f c0	 setg	 al
  001bf	89 85 1c fc ff
	ff		 mov	 DWORD PTR __nZ$1$[ebp], eax
  001c5	8b 85 cc fb ff
	ff		 mov	 eax, DWORD PTR _nRange$1$[ebp]
  001cb	99		 cdq
  001cc	f7 3d 00 00 00
	00		 idiv	 DWORD PTR ?OLD_MPU@@3HB	; OLD_MPU
  001d2	8b f0		 mov	 esi, eax
  001d4	8b 85 18 fc ff
	ff		 mov	 eax, DWORD PTR __nLinkX$1$[ebp]
  001da	8b ce		 mov	 ecx, esi
  001dc	f7 d9		 neg	 ecx
  001de	03 c1		 add	 eax, ecx
  001e0	99		 cdq
  001e1	f7 ff		 idiv	 edi
  001e3	33 d2		 xor	 edx, edx
  001e5	48		 dec	 eax
  001e6	03 c3		 add	 eax, ebx
  001e8	0f 49 d0	 cmovns	 edx, eax
  001eb	8b 85 20 fc ff
	ff		 mov	 eax, DWORD PTR __nLinkZ$1$[ebp]
  001f1	03 c1		 add	 eax, ecx
  001f3	89 95 dc fb ff
	ff		 mov	 DWORD PTR tv2080[ebp], edx
  001f9	99		 cdq
  001fa	f7 ff		 idiv	 edi
  001fc	8b 8d 1c fc ff
	ff		 mov	 ecx, DWORD PTR __nZ$1$[ebp]
  00202	33 d2		 xor	 edx, edx
  00204	48		 dec	 eax
  00205	03 c1		 add	 eax, ecx
  00207	0f 49 d0	 cmovns	 edx, eax
  0020a	89 95 0c fc ff
	ff		 mov	 DWORD PTR __j$1$[ebp], edx
  00210	8b 85 18 fc ff
	ff		 mov	 eax, DWORD PTR __nLinkX$1$[ebp]
  00216	03 c6		 add	 eax, esi
  00218	99		 cdq
  00219	f7 ff		 idiv	 edi
  0021b	8b 95 08 fc ff
	ff		 mov	 edx, DWORD PTR __nMaxWidth$1$[ebp]
  00221	03 c3		 add	 eax, ebx
  00223	3b c2		 cmp	 eax, edx
  00225	8d 5a ff	 lea	 ebx, DWORD PTR [edx-1]
  00228	0f 4c d8	 cmovl	 ebx, eax
  0022b	8b 85 20 fc ff
	ff		 mov	 eax, DWORD PTR __nLinkZ$1$[ebp]
  00231	03 c6		 add	 eax, esi
  00233	89 9d e8 fb ff
	ff		 mov	 DWORD PTR tv2119[ebp], ebx
  00239	99		 cdq
  0023a	f7 ff		 idiv	 edi
  0023c	8d 14 01	 lea	 edx, DWORD PTR [ecx+eax]
  0023f	8b 85 04 fc ff
	ff		 mov	 eax, DWORD PTR __nMaxHeight$1$[ebp]
  00245	89 95 1c fc ff
	ff		 mov	 DWORD PTR __nLinkZMax$1$[ebp], edx
  0024b	3b d0		 cmp	 edx, eax
  0024d	7c 09		 jl	 SHORT $LN46@CallHelper
  0024f	8d 50 ff	 lea	 edx, DWORD PTR [eax-1]
  00252	89 95 1c fc ff
	ff		 mov	 DWORD PTR __nLinkZMax$1$[ebp], edx
$LN46@CallHelper:
  00258	8b 8d 0c fc ff
	ff		 mov	 ecx, DWORD PTR __j$1$[ebp]
  0025e	3b ca		 cmp	 ecx, edx
  00260	0f 8f 6a 01 00
	00		 jg	 $LN4@CallHelper
  00266	8b c1		 mov	 eax, ecx
  00268	0f af 85 08 fc
	ff ff		 imul	 eax, DWORD PTR __nMaxWidth$1$[ebp]
  0026f	89 85 04 fc ff
	ff		 mov	 DWORD PTR tv2070[ebp], eax
  00275	66 66 66 0f 1f
	84 00 00 00 00
	00		 npad	 11
$LL9@CallHelper:
  00280	8b 95 dc fb ff
	ff		 mov	 edx, DWORD PTR tv2080[ebp]
  00286	89 95 e4 fb ff
	ff		 mov	 DWORD PTR __k$1$[ebp], edx
  0028c	3b d3		 cmp	 edx, ebx
  0028e	0f 8f 1d 01 00
	00		 jg	 $LN7@CallHelper
  00294	8b 8d f0 fb ff
	ff		 mov	 ecx, DWORD PTR __pObjs$1$[ebp]
  0029a	03 c2		 add	 eax, edx
  0029c	8d 0c 81	 lea	 ecx, DWORD PTR [ecx+eax*4]
  0029f	89 8d f4 fb ff
	ff		 mov	 DWORD PTR tv2071[ebp], ecx
$LL12@CallHelper:
  002a5	8b 31		 mov	 esi, DWORD PTR [ecx]
  002a7	b9 e8 03 00 00	 mov	 ecx, 1000		; 000003e8H
  002ac	85 f6		 test	 esi, esi
  002ae	0f 84 d3 00 00
	00		 je	 $LN10@CallHelper
$LL13@CallHelper:
  002b4	8b c1		 mov	 eax, ecx
  002b6	49		 dec	 ecx
  002b7	89 8d ec fb ff
	ff		 mov	 DWORD PTR ___limit$1$[ebp], ecx
  002bd	85 c0		 test	 eax, eax
  002bf	0f 84 b6 00 00
	00		 je	 $LN150@CallHelper

; 1104 : 	{
; 1105 : 		if( pObj != pMover && pObj->GetType() == OT_MOVER )

  002c5	8b 95 00 fc ff
	ff		 mov	 edx, DWORD PTR _pMover$1$[ebp]
  002cb	3b f2		 cmp	 esi, edx
  002cd	0f 84 9a 00 00
	00		 je	 $LN16@CallHelper
  002d3	83 be 70 01 00
	00 05		 cmp	 DWORD PTR [esi+368], 5
  002da	0f 85 8d 00 00
	00		 jne	 $LN16@CallHelper

; 1106 : 		{
; 1107 : 			// FOR_LINKMAP РкУМАЁ ДРИЎБт ЖЇЙЎПЁ РЬ ЗчЧСИІ ОШТЪПЁ ГжОњДй.
; 1108 : 			for( int i = 0; i < pMoverProp->m_nCallHelperMax; i++ )

  002e0	8b 9d fc fb ff
	ff		 mov	 ebx, DWORD PTR _pMoverProp$GSCopy$1$[ebp]
  002e6	33 c9		 xor	 ecx, ecx
  002e8	0f bf 83 b2 01
	00 00		 movsx	 eax, WORD PTR [ebx+434]
  002ef	85 c0		 test	 eax, eax
  002f1	7e 74		 jle	 SHORT $LN148@CallHelper

; 1109 : 			{
; 1110 : 				int nCallHelperIdx = pMoverProp->m_nCallHelperIdx[ i ];
; 1111 : 				int nCallHelperNum = pMoverProp->m_nCallHelperNum[ i ];
; 1112 : 				// ОЦЙЋГЊ КЮИЃДТАЭРЬАХГЊ || ААРК СОСЗИИ КЮИЃДТ ПЩМЧРЯЖЇ ААРК РЮЕІНКРЮАЁ?
; 1113 : 				// БзИЎАэ.............
; 1114 : 				if( (pMoverProp->m_bHelpWho == 1 || (pMoverProp->m_bHelpWho == 2 && pObj->GetIndex() == pMover->GetIndex())) &&

  002f3	8a 83 f7 01 00
	00		 mov	 al, BYTE PTR [ebx+503]
  002f9	8d bb c0 01 00
	00		 lea	 edi, DWORD PTR [ebx+448]
  002ff	88 85 13 fc ff
	ff		 mov	 BYTE PTR $T2[ebp], al
$LL17@CallHelper:
  00305	0f bf 1f	 movsx	 ebx, WORD PTR [edi]
  00308	3c 01		 cmp	 al, 1
  0030a	74 12		 je	 SHORT $LN49@CallHelper
  0030c	3c 02		 cmp	 al, 2
  0030e	75 3c		 jne	 SHORT $LN15@CallHelper
  00310	8b 86 74 01 00
	00		 mov	 eax, DWORD PTR [esi+372]
  00316	3b 82 74 01 00
	00		 cmp	 eax, DWORD PTR [edx+372]
  0031c	75 2e		 jne	 SHORT $LN15@CallHelper
$LN49@CallHelper:
  0031e	8b 54 8d e8	 mov	 edx, DWORD PTR _anCountMonster$[ebp+ecx*4]
  00322	3b d3		 cmp	 edx, ebx
  00324	7c 04		 jl	 SHORT $LN50@CallHelper
  00326	85 db		 test	 ebx, ebx
  00328	75 1c		 jne	 SHORT $LN147@CallHelper
$LN50@CallHelper:

; 1115 : 					( anCountMonster[ i ] < nCallHelperNum || nCallHelperNum == 0 )	)	
; 1116 : 				{
; 1117 : 					apMonster[ anCountMonster[ i ] ][ i ] = (CMover*)pObj;

  0032a	8d 04 91	 lea	 eax, DWORD PTR [ecx+edx*4]
  0032d	03 c2		 add	 eax, edx
  0032f	89 b4 85 28 fc
	ff ff		 mov	 DWORD PTR _apMonster$[ebp+eax*4], esi

; 1118 : 					anCountMonster[ i ]++;

  00336	8d 42 01	 lea	 eax, DWORD PTR [edx+1]
  00339	89 44 8d e8	 mov	 DWORD PTR _anCountMonster$[ebp+ecx*4], eax

; 1119 : 					if( anCountMonster[ i ] >= MAX_ARRAY ) 

  0033d	83 f8 28	 cmp	 eax, 40			; 00000028H
  00340	0f 8d bd 00 00
	00		 jge	 $LN146@CallHelper
$LN147@CallHelper:

; 1106 : 		{
; 1107 : 			// FOR_LINKMAP РкУМАЁ ДРИЎБт ЖЇЙЎПЁ РЬ ЗчЧСИІ ОШТЪПЁ ГжОњДй.
; 1108 : 			for( int i = 0; i < pMoverProp->m_nCallHelperMax; i++ )

  00346	8b 95 00 fc ff
	ff		 mov	 edx, DWORD PTR _pMover$1$[ebp]
$LN15@CallHelper:
  0034c	8b 9d fc fb ff
	ff		 mov	 ebx, DWORD PTR _pMoverProp$GSCopy$1$[ebp]
  00352	41		 inc	 ecx
  00353	83 c7 02	 add	 edi, 2
  00356	0f bf 83 b2 01
	00 00		 movsx	 eax, WORD PTR [ebx+434]
  0035d	3b c8		 cmp	 ecx, eax
  0035f	8a 85 13 fc ff
	ff		 mov	 al, BYTE PTR $T2[ebp]
  00365	7c 9e		 jl	 SHORT $LL17@CallHelper
$LN148@CallHelper:

; 1120 : 						goto NEXT;
; 1121 : 				}
; 1122 : 			}
; 1123 : 		}
; 1124 : 	}
; 1125 : 	END_LINKMAP

  00367	8b 8d ec fb ff
	ff		 mov	 ecx, DWORD PTR ___limit$1$[ebp]
$LN16@CallHelper:
  0036d	8b b6 80 01 00
	00		 mov	 esi, DWORD PTR [esi+384]
  00373	85 f6		 test	 esi, esi
  00375	0f 85 39 ff ff
	ff		 jne	 $LL13@CallHelper
$LN150@CallHelper:

; 1103 : 	FOR_LINKMAP( pMover->GetWorld(), vPos, pObj, nRange / MPU, CObj::linkDynamic, pMover->GetLayer() )

  0037b	8b 9d e8 fb ff
	ff		 mov	 ebx, DWORD PTR tv2119[ebp]
  00381	8b 95 e4 fb ff
	ff		 mov	 edx, DWORD PTR __k$1$[ebp]
$LN10@CallHelper:
  00387	8b 8d f4 fb ff
	ff		 mov	 ecx, DWORD PTR tv2071[ebp]
  0038d	42		 inc	 edx
  0038e	83 c1 04	 add	 ecx, 4
  00391	89 95 e4 fb ff
	ff		 mov	 DWORD PTR __k$1$[ebp], edx
  00397	89 8d f4 fb ff
	ff		 mov	 DWORD PTR tv2071[ebp], ecx
  0039d	3b d3		 cmp	 edx, ebx
  0039f	0f 8e 00 ff ff
	ff		 jle	 $LL12@CallHelper
  003a5	8b 85 04 fc ff
	ff		 mov	 eax, DWORD PTR tv2070[ebp]
  003ab	8b 8d 0c fc ff
	ff		 mov	 ecx, DWORD PTR __j$1$[ebp]
$LN7@CallHelper:
  003b1	03 85 08 fc ff
	ff		 add	 eax, DWORD PTR __nMaxWidth$1$[ebp]
  003b7	41		 inc	 ecx
  003b8	89 8d 0c fc ff
	ff		 mov	 DWORD PTR __j$1$[ebp], ecx
  003be	89 85 04 fc ff
	ff		 mov	 DWORD PTR tv2070[ebp], eax
  003c4	3b 8d 1c fc ff
	ff		 cmp	 ecx, DWORD PTR __nLinkZMax$1$[ebp]
  003ca	0f 8e b0 fe ff
	ff		 jle	 $LL9@CallHelper
$LN4@CallHelper:
  003d0	8b 9d 00 fc ff
	ff		 mov	 ebx, DWORD PTR _pMover$1$[ebp]
  003d6	8b bd 14 fc ff
	ff		 mov	 edi, DWORD PTR __i$1$[ebp]
  003dc	47		 inc	 edi
  003dd	89 bd 14 fc ff
	ff		 mov	 DWORD PTR __i$1$[ebp], edi
  003e3	8b 8b 6c 01 00
	00		 mov	 ecx, DWORD PTR [ebx+364]
  003e9	ff b3 b8 01 00
	00		 push	 DWORD PTR [ebx+440]
  003ef	6a 01		 push	 1
  003f1	8d 49 24	 lea	 ecx, DWORD PTR [ecx+36]
  003f4	e8 00 00 00 00	 call	 ?GetMaxLinkLevel@CLayeredLinkMap@@QAEHKH@Z ; CLayeredLinkMap::GetMaxLinkLevel
  003f9	3b f8		 cmp	 edi, eax
  003fb	0f 8c ff fc ff
	ff		 jl	 $LL6@CallHelper

; 1119 : 					if( anCountMonster[ i ] >= MAX_ARRAY ) 

  00401	eb 06		 jmp	 SHORT $LN144@CallHelper
$LN146@CallHelper:
  00403	8b 9d 00 fc ff
	ff		 mov	 ebx, DWORD PTR _pMover$1$[ebp]
$LN144@CallHelper:
  00409	8b b5 fc fb ff
	ff		 mov	 esi, DWORD PTR _pMoverProp$GSCopy$1$[ebp]
$NEXT$208:

; 1126 : NEXT:
; 1127 : 	// ЦФЦМ АЁДЩ ПЉКЮ 
; 1128 : 	pTarget = prj.GetMover( m_dwIdTarget );

  0040f	8b 85 c8 fb ff
	ff		 mov	 eax, DWORD PTR _this$GSCopy$1$[ebp]
  00415	b9 00 00 00 00	 mov	 ecx, OFFSET ?prj@@3VCProject@@A ; prj
  0041a	ff b0 d8 00 00
	00		 push	 DWORD PTR [eax+216]
  00420	e8 00 00 00 00	 call	 ?GetMover@CProject@@QAEPAVCMover@@K@Z ; CProject::GetMover

; 1129 : 	for( int i = 0; i < pMoverProp->m_nCallHelperMax; i++ )

  00425	0f bf 96 b2 01
	00 00		 movsx	 edx, WORD PTR [esi+434]
  0042c	8b f8		 mov	 edi, eax
  0042e	85 d2		 test	 edx, edx
  00430	0f 8e ba 03 00
	00		 jle	 $LN151@CallHelper

; 1126 : NEXT:
; 1127 : 	// ЦФЦМ АЁДЩ ПЉКЮ 
; 1128 : 	pTarget = prj.GetMover( m_dwIdTarget );

  00436	8d 8e ca 01 00
	00		 lea	 ecx, DWORD PTR [esi+458]
  0043c	0f 1f 40 00	 npad	 4
$LL20@CallHelper:

; 1130 : 		bParty |= pMoverProp->m_bCallHelperParty[ i ] ? TRUE : FALSE;

  00440	33 c0		 xor	 eax, eax
  00442	8d 49 02	 lea	 ecx, DWORD PTR [ecx+2]
  00445	66 39 41 fe	 cmp	 WORD PTR [ecx-2], ax
  00449	0f 95 c0	 setne	 al
  0044c	09 85 24 fc ff
	ff		 or	 DWORD PTR _bParty$1$[ebp], eax
  00452	83 ea 01	 sub	 edx, 1
  00455	75 e9		 jne	 SHORT $LL20@CallHelper

; 1131 : 
; 1132 : 	if( bParty && IsValidObj( (CObj*)pTarget ) )

  00457	39 95 24 fc ff
	ff		 cmp	 DWORD PTR _bParty$1$[ebp], edx
  0045d	0f 84 8d 03 00
	00		 je	 $LN151@CallHelper
; File C:\IAGOS\server\v18\Source\Source\_Common\Obj.h

; 327  : 	return pObj && ( pObj->IsDelete() == FALSE ); 

  00463	85 ff		 test	 edi, edi
  00465	0f 84 85 03 00
	00		 je	 $LN151@CallHelper

; 180  : 	BOOL			IsDelete()	{ return (m_dwFlags & OBJ_FLAG_DELETE);  }

  0046b	f6 47 04 01	 test	 BYTE PTR [edi+4], 1

; 327  : 	return pObj && ( pObj->IsDelete() == FALSE ); 

  0046f	0f 85 7b 03 00
	00		 jne	 $LN151@CallHelper
; File C:\IAGOS\server\v18\Source\Source\_aiinterface\aimonster.cpp

; 1134 : 		pParty = g_PartyMng.GetParty( pTarget->m_idparty );

  00475	ff b7 10 07 00
	00		 push	 DWORD PTR [edi+1808]
  0047b	b9 00 00 00 00	 mov	 ecx, OFFSET ?g_PartyMng@@3VCPartyMng@@A ; g_PartyMng
  00480	e8 00 00 00 00	 call	 ?GetParty@CPartyMng@@QAEPAVCParty@@K@Z ; CPartyMng::GetParty
  00485	89 85 f8 fb ff
	ff		 mov	 DWORD PTR _pParty$1$[ebp], eax

; 1135 : 		// ЦФЦМАЁ ШЎНЧЧЯДйИщ ЦФЦМПјРЛ apPlayerПЁ МіС§ЧбДй.
; 1136 : 		if( pParty )

  0048b	85 c0		 test	 eax, eax
  0048d	0f 84 e5 02 00
	00		 je	 $NEXT2$209

; 1138 : 			FOR_LINKMAP( pMover->GetWorld(), vPos, pObj, 20 / MPU, CObj::linkPlayer, pMover->GetLayer() )

  00493	8b 8b 6c 01 00
	00		 mov	 ecx, DWORD PTR [ebx+364]
  00499	33 ff		 xor	 edi, edi
  0049b	f3 0f 10 85 d0
	fb ff ff	 movss	 xmm0, DWORD PTR _vPos$[ebp]
  004a3	ff b3 b8 01 00
	00		 push	 DWORD PTR [ebx+440]
  004a9	89 bd f4 fb ff
	ff		 mov	 DWORD PTR __i$1$[ebp], edi
  004af	66 0f 6e 49 14	 movd	 xmm1, DWORD PTR [ecx+20]
  004b4	83 c1 24	 add	 ecx, 36			; 00000024H
  004b7	0f 5b c9	 cvtdq2ps xmm1, xmm1
  004ba	6a 02		 push	 2
  004bc	f3 0f 5e c1	 divss	 xmm0, xmm1
  004c0	f3 0f 2c c0	 cvttss2si eax, xmm0
  004c4	f3 0f 10 85 d8
	fb ff ff	 movss	 xmm0, DWORD PTR _vPos$[ebp+8]
  004cc	f3 0f 5e c1	 divss	 xmm0, xmm1
  004d0	89 85 24 fc ff
	ff		 mov	 DWORD PTR __nLinkX$1$[ebp], eax
  004d6	f3 0f 2c c0	 cvttss2si eax, xmm0
  004da	89 85 20 fc ff
	ff		 mov	 DWORD PTR __nLinkZ$1$[ebp], eax
  004e0	e8 00 00 00 00	 call	 ?GetMaxLinkLevel@CLayeredLinkMap@@QAEHKH@Z ; CLayeredLinkMap::GetMaxLinkLevel
  004e5	85 c0		 test	 eax, eax
  004e7	0f 8e 85 02 00
	00		 jle	 $LN155@CallHelper
  004ed	0f 1f 00	 npad	 3
$LL23@CallHelper:
  004f0	ff b3 b8 01 00
	00		 push	 DWORD PTR [ebx+440]
; File C:\IAGOS\server\v18\Source\Source\_Common\Obj.h

; 221  : 	CWorld*			GetWorld()	{ return m_pWorld; }

  004f6	8b 8b 6c 01 00
	00		 mov	 ecx, DWORD PTR [ebx+364]
; File C:\IAGOS\server\v18\Source\Source\_aiinterface\aimonster.cpp

; 1138 : 			FOR_LINKMAP( pMover->GetWorld(), vPos, pObj, 20 / MPU, CObj::linkPlayer, pMover->GetLayer() )

  004fc	57		 push	 edi
  004fd	6a 02		 push	 2
  004ff	83 c1 24	 add	 ecx, 36			; 00000024H
  00502	e8 00 00 00 00	 call	 ?GetLinkWidth@CLayeredLinkMap@@QAEHKHH@Z ; CLayeredLinkMap::GetLinkWidth
  00507	ff b3 b8 01 00
	00		 push	 DWORD PTR [ebx+440]
; File C:\IAGOS\server\v18\Source\Source\_Common\Obj.h

; 221  : 	CWorld*			GetWorld()	{ return m_pWorld; }

  0050d	8b 8b 6c 01 00
	00		 mov	 ecx, DWORD PTR [ebx+364]
; File C:\IAGOS\server\v18\Source\Source\_aiinterface\aimonster.cpp

; 1138 : 			FOR_LINKMAP( pMover->GetWorld(), vPos, pObj, 20 / MPU, CObj::linkPlayer, pMover->GetLayer() )

  00513	8b f0		 mov	 esi, eax
  00515	57		 push	 edi
  00516	6a 02		 push	 2
  00518	83 c1 24	 add	 ecx, 36			; 00000024H
  0051b	e8 00 00 00 00	 call	 ?GetObj@CLayeredLinkMap@@QAEPAPAVCObj@@KKH@Z ; CLayeredLinkMap::GetObj
  00520	8b 8b 6c 01 00
	00		 mov	 ecx, DWORD PTR [ebx+364]
  00526	89 85 ec fb ff
	ff		 mov	 DWORD PTR __pObjs$1$[ebp], eax
  0052c	8b 51 08	 mov	 edx, DWORD PTR [ecx+8]
  0052f	8b 41 04	 mov	 eax, DWORD PTR [ecx+4]
  00532	8b d8		 mov	 ebx, eax
  00534	0f af d6	 imul	 edx, esi
  00537	c1 e0 07	 shl	 eax, 7
  0053a	0f af de	 imul	 ebx, esi
  0053d	8b 71 14	 mov	 esi, DWORD PTR [ecx+20]
  00540	89 95 dc fb ff
	ff		 mov	 DWORD PTR __nMaxHeight$1$[ebp], edx
  00546	99		 cdq
  00547	f7 fb		 idiv	 ebx
  00549	89 9d 1c fc ff
	ff		 mov	 DWORD PTR __nMaxWidth$1$[ebp], ebx
  0054f	33 db		 xor	 ebx, ebx
  00551	8b f8		 mov	 edi, eax
  00553	8b c6		 mov	 eax, esi
  00555	0f af c7	 imul	 eax, edi
  00558	89 bd 14 fc ff
	ff		 mov	 DWORD PTR __nUnit$1$[ebp], edi
  0055e	99		 cdq
  0055f	2b c2		 sub	 eax, edx
  00561	8b c8		 mov	 ecx, eax
  00563	8b 85 24 fc ff
	ff		 mov	 eax, DWORD PTR __nLinkX$1$[ebp]
  00569	99		 cdq
  0056a	f7 ff		 idiv	 edi
  0056c	f3 0f 2c 85 d0
	fb ff ff	 cvttss2si eax, DWORD PTR _vPos$[ebp]
  00574	2b 95 24 fc ff
	ff		 sub	 edx, DWORD PTR __nLinkX$1$[ebp]
  0057a	d1 f9		 sar	 ecx, 1
  0057c	0f af d6	 imul	 edx, esi
  0057f	03 d0		 add	 edx, eax
  00581	8b 85 20 fc ff
	ff		 mov	 eax, DWORD PTR __nLinkZ$1$[ebp]
  00587	3b d1		 cmp	 edx, ecx
  00589	99		 cdq
  0058a	0f 9f c3	 setg	 bl
  0058d	f7 ff		 idiv	 edi
  0058f	f3 0f 2c 85 d8
	fb ff ff	 cvttss2si eax, DWORD PTR _vPos$[ebp+8]
  00597	2b 95 20 fc ff
	ff		 sub	 edx, DWORD PTR __nLinkZ$1$[ebp]
  0059d	0f af d6	 imul	 edx, esi
  005a0	03 d0		 add	 edx, eax
  005a2	33 c0		 xor	 eax, eax
  005a4	3b d1		 cmp	 edx, ecx
  005a6	0f 9f c0	 setg	 al
  005a9	89 85 f0 fb ff
	ff		 mov	 DWORD PTR __nZ$1$[ebp], eax
  005af	b8 14 00 00 00	 mov	 eax, 20			; 00000014H
  005b4	99		 cdq
  005b5	f7 3d 00 00 00
	00		 idiv	 DWORD PTR ?OLD_MPU@@3HB	; OLD_MPU
  005bb	8b f8		 mov	 edi, eax
  005bd	8b 85 24 fc ff
	ff		 mov	 eax, DWORD PTR __nLinkX$1$[ebp]
  005c3	8b f7		 mov	 esi, edi
  005c5	f7 de		 neg	 esi
  005c7	03 c6		 add	 eax, esi
  005c9	99		 cdq
  005ca	f7 bd 14 fc ff
	ff		 idiv	 DWORD PTR __nUnit$1$[ebp]
  005d0	8d 48 ff	 lea	 ecx, DWORD PTR [eax-1]
  005d3	33 c0		 xor	 eax, eax
  005d5	03 cb		 add	 ecx, ebx
  005d7	0f 49 c1	 cmovns	 eax, ecx
  005da	89 85 e8 fb ff
	ff		 mov	 DWORD PTR tv2116[ebp], eax
  005e0	8b 85 20 fc ff
	ff		 mov	 eax, DWORD PTR __nLinkZ$1$[ebp]
  005e6	03 c6		 add	 eax, esi
  005e8	8b b5 14 fc ff
	ff		 mov	 esi, DWORD PTR __nUnit$1$[ebp]
  005ee	99		 cdq
  005ef	f7 fe		 idiv	 esi
  005f1	33 d2		 xor	 edx, edx
  005f3	48		 dec	 eax
  005f4	03 85 f0 fb ff
	ff		 add	 eax, DWORD PTR __nZ$1$[ebp]
  005fa	0f 49 d0	 cmovns	 edx, eax
  005fd	8b 85 24 fc ff
	ff		 mov	 eax, DWORD PTR __nLinkX$1$[ebp]
  00603	89 95 0c fc ff
	ff		 mov	 DWORD PTR __j$1$[ebp], edx
  00609	03 c7		 add	 eax, edi
  0060b	8b 8d dc fb ff
	ff		 mov	 ecx, DWORD PTR __nMaxHeight$1$[ebp]
  00611	99		 cdq
  00612	f7 fe		 idiv	 esi
  00614	03 c3		 add	 eax, ebx
  00616	8b 9d 1c fc ff
	ff		 mov	 ebx, DWORD PTR __nMaxWidth$1$[ebp]
  0061c	3b c3		 cmp	 eax, ebx
  0061e	8d 53 ff	 lea	 edx, DWORD PTR [ebx-1]
  00621	0f 4c d0	 cmovl	 edx, eax
  00624	8b 85 20 fc ff
	ff		 mov	 eax, DWORD PTR __nLinkZ$1$[ebp]
  0062a	03 c7		 add	 eax, edi
  0062c	89 95 18 fc ff
	ff		 mov	 DWORD PTR tv2050[ebp], edx
  00632	99		 cdq
  00633	f7 fe		 idiv	 esi
  00635	03 85 f0 fb ff
	ff		 add	 eax, DWORD PTR __nZ$1$[ebp]
  0063b	89 85 04 fc ff
	ff		 mov	 DWORD PTR __nLinkZMax$1$[ebp], eax
  00641	3b c1		 cmp	 eax, ecx
  00643	7c 09		 jl	 SHORT $LN58@CallHelper
  00645	8d 41 ff	 lea	 eax, DWORD PTR [ecx-1]
  00648	89 85 04 fc ff
	ff		 mov	 DWORD PTR __nLinkZMax$1$[ebp], eax
$LN58@CallHelper:
  0064e	8b 95 0c fc ff
	ff		 mov	 edx, DWORD PTR __j$1$[ebp]
  00654	3b d0		 cmp	 edx, eax
  00656	0f 8f df 00 00
	00		 jg	 $LN21@CallHelper
  0065c	8b 85 18 fc ff
	ff		 mov	 eax, DWORD PTR tv2050[ebp]
  00662	8b ca		 mov	 ecx, edx
  00664	0f af cb	 imul	 ecx, ebx
  00667	89 8d 14 fc ff
	ff		 mov	 DWORD PTR tv2063[ebp], ecx
  0066d	0f 1f 00	 npad	 3
$LL26@CallHelper:
  00670	8b 9d e8 fb ff
	ff		 mov	 ebx, DWORD PTR tv2116[ebp]
  00676	3b d8		 cmp	 ebx, eax
  00678	0f 8f 9e 00 00
	00		 jg	 $LN24@CallHelper
  0067e	8d 04 0b	 lea	 eax, DWORD PTR [ebx+ecx]
  00681	8b 8d ec fb ff
	ff		 mov	 ecx, DWORD PTR __pObjs$1$[ebp]
  00687	8d 0c 81	 lea	 ecx, DWORD PTR [ecx+eax*4]
  0068a	8b 85 18 fc ff
	ff		 mov	 eax, DWORD PTR tv2050[ebp]
  00690	89 8d 08 fc ff
	ff		 mov	 DWORD PTR tv2064[ebp], ecx
$LL29@CallHelper:
  00696	8b 31		 mov	 esi, DWORD PTR [ecx]
  00698	bf e8 03 00 00	 mov	 edi, 1000		; 000003e8H
  0069d	85 f6		 test	 esi, esi
  0069f	74 61		 je	 SHORT $LN27@CallHelper
$LL30@CallHelper:
  006a1	8b c7		 mov	 eax, edi
  006a3	4f		 dec	 edi
  006a4	85 c0		 test	 eax, eax
  006a6	74 4e		 je	 SHORT $LN149@CallHelper

; 1140 : 				if( pObj->GetType() == OT_MOVER && ((CMover*)pObj)->IsPlayer() && pParty->IsMember( ((CMover*)pObj)->m_idPlayer ) )

  006a8	83 be 70 01 00
	00 05		 cmp	 DWORD PTR [esi+368], 5
  006af	75 3b		 jne	 SHORT $LN60@CallHelper
  006b1	83 be 30 02 00
	00 00		 cmp	 DWORD PTR [esi+560], 0
  006b8	74 32		 je	 SHORT $LN60@CallHelper
; File C:\IAGOS\server\v18\Source\Source\_Common\Party.h

; 105  : 	BOOL	IsMember( u_long uPlayerId )		{	return( FindMember( uPlayerId ) >= 0 );	}

  006ba	ff b6 34 02 00
	00		 push	 DWORD PTR [esi+564]
  006c0	8b 8d f8 fb ff
	ff		 mov	 ecx, DWORD PTR _pParty$1$[ebp]
  006c6	e8 00 00 00 00	 call	 ?FindMember@CParty@@QAEHK@Z ; CParty::FindMember
  006cb	85 c0		 test	 eax, eax
; File C:\IAGOS\server\v18\Source\Source\_aiinterface\aimonster.cpp

; 1140 : 				if( pObj->GetType() == OT_MOVER && ((CMover*)pObj)->IsPlayer() && pParty->IsMember( ((CMover*)pObj)->m_idPlayer ) )

  006cd	78 1d		 js	 SHORT $LN60@CallHelper

; 1141 : 				{
; 1142 : 					apPlayer[ nCountPlayer++ ] = (CMover*)pObj;

  006cf	8b 85 e0 fb ff
	ff		 mov	 eax, DWORD PTR _nCountPlayer$1$[ebp]
  006d5	89 b4 85 48 ff
	ff ff		 mov	 DWORD PTR _apPlayer$[ebp+eax*4], esi
  006dc	40		 inc	 eax
  006dd	89 85 e0 fb ff
	ff		 mov	 DWORD PTR _nCountPlayer$1$[ebp], eax

; 1143 : 					if( nCountPlayer >= MAX_ARRAY )

  006e3	83 f8 28	 cmp	 eax, 40			; 00000028H
  006e6	0f 8d 80 00 00
	00		 jge	 $LN145@CallHelper
$LN60@CallHelper:

; 1144 : 						goto NEXT2;
; 1145 : 				}
; 1146 : 			}
; 1147 : 			END_LINKMAP

  006ec	8b b6 80 01 00
	00		 mov	 esi, DWORD PTR [esi+384]
  006f2	85 f6		 test	 esi, esi
  006f4	75 ab		 jne	 SHORT $LL30@CallHelper
$LN149@CallHelper:

; 1138 : 			FOR_LINKMAP( pMover->GetWorld(), vPos, pObj, 20 / MPU, CObj::linkPlayer, pMover->GetLayer() )

  006f6	8b 85 18 fc ff
	ff		 mov	 eax, DWORD PTR tv2050[ebp]
  006fc	8b 8d 08 fc ff
	ff		 mov	 ecx, DWORD PTR tv2064[ebp]
$LN27@CallHelper:
  00702	43		 inc	 ebx
  00703	83 c1 04	 add	 ecx, 4
  00706	89 8d 08 fc ff
	ff		 mov	 DWORD PTR tv2064[ebp], ecx
  0070c	3b d8		 cmp	 ebx, eax
  0070e	7e 86		 jle	 SHORT $LL29@CallHelper
  00710	8b 8d 14 fc ff
	ff		 mov	 ecx, DWORD PTR tv2063[ebp]
  00716	8b 95 0c fc ff
	ff		 mov	 edx, DWORD PTR __j$1$[ebp]
$LN24@CallHelper:
  0071c	03 8d 1c fc ff
	ff		 add	 ecx, DWORD PTR __nMaxWidth$1$[ebp]
  00722	42		 inc	 edx
  00723	89 95 0c fc ff
	ff		 mov	 DWORD PTR __j$1$[ebp], edx
  00729	89 8d 14 fc ff
	ff		 mov	 DWORD PTR tv2063[ebp], ecx
  0072f	3b 95 04 fc ff
	ff		 cmp	 edx, DWORD PTR __nLinkZMax$1$[ebp]
  00735	0f 8e 35 ff ff
	ff		 jle	 $LL26@CallHelper
$LN21@CallHelper:
  0073b	8b 9d 00 fc ff
	ff		 mov	 ebx, DWORD PTR _pMover$1$[ebp]
  00741	8b bd f4 fb ff
	ff		 mov	 edi, DWORD PTR __i$1$[ebp]
  00747	47		 inc	 edi
  00748	89 bd f4 fb ff
	ff		 mov	 DWORD PTR __i$1$[ebp], edi
  0074e	ff b3 b8 01 00
	00		 push	 DWORD PTR [ebx+440]
  00754	8b 8b 6c 01 00
	00		 mov	 ecx, DWORD PTR [ebx+364]
  0075a	6a 02		 push	 2
  0075c	83 c1 24	 add	 ecx, 36			; 00000024H
  0075f	e8 00 00 00 00	 call	 ?GetMaxLinkLevel@CLayeredLinkMap@@QAEHKH@Z ; CLayeredLinkMap::GetMaxLinkLevel
  00764	3b f8		 cmp	 edi, eax
  00766	0f 8c 84 fd ff
	ff		 jl	 $LL23@CallHelper
$LN145@CallHelper:
  0076c	8b b5 fc fb ff
	ff		 mov	 esi, DWORD PTR _pMoverProp$GSCopy$1$[ebp]
$LN155@CallHelper:

; 1148 : 		}
; 1149 : 	}
; 1150 : NEXT2:
; 1151 : 	for( int i = 0; i < pMoverProp->m_nCallHelperMax; i++ )

  00772	8b 85 f8 fb ff
	ff		 mov	 eax, DWORD PTR _pParty$1$[ebp]
$NEXT2$209:
  00778	33 c9		 xor	 ecx, ecx
  0077a	33 d2		 xor	 edx, edx
  0077c	89 8d 24 fc ff
	ff		 mov	 DWORD PTR _i$1$[ebp], ecx
  00782	66 3b 96 b2 01
	00 00		 cmp	 dx, WORD PTR [esi+434]
  00789	0f 8d c4 00 00
	00		 jge	 $LN33@CallHelper
  0078f	90		 npad	 1
$LL34@CallHelper:

; 1152 : 	{
; 1153 : 		if( pParty  )

  00790	85 c0		 test	 eax, eax
  00792	74 60		 je	 SHORT $LN62@CallHelper

; 1154 : 		{
; 1155 : 			if( nCountPlayer )

  00794	8b 9d e0 fb ff
	ff		 mov	 ebx, DWORD PTR _nCountPlayer$1$[ebp]
  0079a	85 db		 test	 ebx, ebx
  0079c	0f 84 95 00 00
	00		 je	 $LN32@CallHelper

; 1156 : 			{
; 1157 : 				for( int j = 0; j < anCountMonster[ i ]; j++ )

  007a2	8b 44 8d e8	 mov	 eax, DWORD PTR _anCountMonster$[ebp+ecx*4]
  007a6	89 85 f0 fb ff
	ff		 mov	 DWORD PTR $T1[ebp], eax
  007ac	85 c0		 test	 eax, eax
  007ae	0f 8e 83 00 00
	00		 jle	 $LN32@CallHelper

; 1138 : 			FOR_LINKMAP( pMover->GetWorld(), vPos, pObj, 20 / MPU, CObj::linkPlayer, pMover->GetLayer() )

  007b4	8d bd 28 fc ff
	ff		 lea	 edi, DWORD PTR _apMonster$[ebp]
  007ba	8b f0		 mov	 esi, eax
  007bc	8d 3c 8f	 lea	 edi, DWORD PTR [edi+ecx*4]
  007bf	90		 npad	 1
$LL37@CallHelper:

; 1158 : 				{
; 1159 : 					// АЂАЂРЧ ИѓНКХЭПЁАд ХИАйРЛ ЗЃД§РИЗЮ ЙшСЄЧбДй. 
; 1160 : 					CMover* pNewTarget = (CMover*)apPlayer[ rand() % nCountPlayer ];

  007c0	e8 00 00 00 00	 call	 _rand
  007c5	99		 cdq
  007c6	f7 fb		 idiv	 ebx
  007c8	8b 84 95 48 ff
	ff ff		 mov	 eax, DWORD PTR _apPlayer$[ebp+edx*4]

; 1161 : 					if( pNewTarget )

  007cf	85 c0		 test	 eax, eax
  007d1	74 13		 je	 SHORT $LN35@CallHelper

; 1162 : 						apMonster[ j ][ i ]->PostAIMsg( AIMSG_SETSTATE, STATE_RAGE, pNewTarget->GetId() );

  007d3	8b 0f		 mov	 ecx, DWORD PTR [edi]
  007d5	6a 00		 push	 0
  007d7	ff b0 bc 01 00
	00		 push	 DWORD PTR [eax+444]
  007dd	6a 07		 push	 7
  007df	6a 04		 push	 4
  007e1	e8 00 00 00 00	 call	 ?PostAIMsg@CMover@@QAEXKKKK@Z ; CMover::PostAIMsg
$LN35@CallHelper:

; 1156 : 			{
; 1157 : 				for( int j = 0; j < anCountMonster[ i ]; j++ )

  007e6	83 c7 14	 add	 edi, 20			; 00000014H
  007e9	83 ee 01	 sub	 esi, 1
  007ec	75 d2		 jne	 SHORT $LL37@CallHelper

; 1163 : 				}
; 1164 : 			}
; 1165 : 		}

  007ee	eb 3b		 jmp	 SHORT $LN206@CallHelper
$LN151@CallHelper:

; 1148 : 		}
; 1149 : 	}
; 1150 : NEXT2:
; 1151 : 	for( int i = 0; i < pMoverProp->m_nCallHelperMax; i++ )

  007f0	33 c0		 xor	 eax, eax
  007f2	eb 84		 jmp	 SHORT $NEXT2$209
$LN62@CallHelper:

; 1166 : 		else
; 1167 : 		{ 
; 1168 : 			for( int j = 0; j < anCountMonster[ i ]; j++ )

  007f4	8b 5c 8d e8	 mov	 ebx, DWORD PTR _anCountMonster$[ebp+ecx*4]
  007f8	85 db		 test	 ebx, ebx
  007fa	7e 3b		 jle	 SHORT $LN32@CallHelper

; 1138 : 			FOR_LINKMAP( pMover->GetWorld(), vPos, pObj, 20 / MPU, CObj::linkPlayer, pMover->GetLayer() )

  007fc	8b b5 c8 fb ff
	ff		 mov	 esi, DWORD PTR _this$GSCopy$1$[ebp]
  00802	8d bd 28 fc ff
	ff		 lea	 edi, DWORD PTR _apMonster$[ebp]
  00808	8d 3c 8f	 lea	 edi, DWORD PTR [edi+ecx*4]
  0080b	0f 1f 44 00 00	 npad	 5
$LL40@CallHelper:

; 1169 : 				apMonster[ j ][ i ]->PostAIMsg( AIMSG_SETSTATE, STATE_RAGE, m_dwIdTarget );

  00810	8b 0f		 mov	 ecx, DWORD PTR [edi]
  00812	6a 00		 push	 0
  00814	ff b6 d8 00 00
	00		 push	 DWORD PTR [esi+216]
  0081a	6a 07		 push	 7
  0081c	6a 04		 push	 4
  0081e	e8 00 00 00 00	 call	 ?PostAIMsg@CMover@@QAEXKKKK@Z ; CMover::PostAIMsg
  00823	8d 7f 14	 lea	 edi, DWORD PTR [edi+20]
  00826	83 eb 01	 sub	 ebx, 1
  00829	75 e5		 jne	 SHORT $LL40@CallHelper
$LN206@CallHelper:

; 1148 : 		}
; 1149 : 	}
; 1150 : NEXT2:
; 1151 : 	for( int i = 0; i < pMoverProp->m_nCallHelperMax; i++ )

  0082b	8b 8d 24 fc ff
	ff		 mov	 ecx, DWORD PTR _i$1$[ebp]
  00831	8b b5 fc fb ff
	ff		 mov	 esi, DWORD PTR _pMoverProp$GSCopy$1$[ebp]
$LN32@CallHelper:
  00837	0f bf 86 b2 01
	00 00		 movsx	 eax, WORD PTR [esi+434]
  0083e	41		 inc	 ecx
  0083f	3b c8		 cmp	 ecx, eax
  00841	89 8d 24 fc ff
	ff		 mov	 DWORD PTR _i$1$[ebp], ecx
  00847	8b 85 f8 fb ff
	ff		 mov	 eax, DWORD PTR _pParty$1$[ebp]
  0084d	0f 8c 3d ff ff
	ff		 jl	 $LL34@CallHelper
$LN33@CallHelper:

; 1170 : 		}
; 1171 : 	}
; 1172 : }

  00853	8b 4d fc	 mov	 ecx, DWORD PTR __$ArrayPad$[ebp]
  00856	5f		 pop	 edi
  00857	5e		 pop	 esi
  00858	33 cd		 xor	 ecx, ebp
  0085a	5b		 pop	 ebx
  0085b	e8 00 00 00 00	 call	 @__security_check_cookie@4
  00860	8b e5		 mov	 esp, ebp
  00862	5d		 pop	 ebp
  00863	c2 04 00	 ret	 4
?CallHelper@CAIMonster@@IAEXPBUMoverProp@@@Z ENDP	; CAIMonster::CallHelper
_TEXT	ENDS
; Function compile flags: /Ogtp
; File C:\IAGOS\server\v18\Source\Source\_aiinterface\aimonster.cpp
; File C:\IAGOS\server\v18\Source\Source\_Common\xUtil.h
; File C:\IAGOS\server\v18\Source\Source\_aiinterface\aimonster.cpp
; File C:\IAGOS\server\v18\Source\Source\_Common\xUtil.h
; File C:\IAGOS\server\v18\Source\Source\_aiinterface\aimonster.cpp
; File C:\IAGOS\server\v18\Source\Source\_Common\Obj.h
; File C:\IAGOS\server\v18\Source\Source\_Common\xUtil.h
; File C:\IAGOS\server\v18\Source\Source\_aiinterface\aimonster.cpp
; File C:\IAGOS\server\v18\Source\Source\_Common\xUtil.h
; File C:\IAGOS\server\v18\Source\Source\_aiinterface\aimonster.cpp
; File C:\IAGOS\server\v18\Source\Source\DX_SDK\d3dx9math.inl
; File C:\IAGOS\server\v18\Source\Source\_aiinterface\aimonster.cpp
; File C:\IAGOS\server\v18\Source\Source\DX_SDK\d3dx9math.inl
; File C:\IAGOS\server\v18\Source\Source\_aiinterface\aimonster.cpp
; File C:\IAGOS\server\v18\Source\Source\DX_SDK\d3dx9math.inl
; File C:\IAGOS\server\v18\Source\Source\_aiinterface\aimonster.cpp
; File C:\IAGOS\server\v18\Source\Source\_Common\Obj.h
; File C:\IAGOS\server\v18\Source\Source\DX_SDK\d3dx9math.inl
; File C:\IAGOS\server\v18\Source\Source\_Common\Obj.h
; File C:\IAGOS\server\v18\Source\Source\_aiinterface\aimonster.cpp
; File C:\IAGOS\server\v18\Source\Source\DX_SDK\d3dx9math.inl
; File C:\IAGOS\server\v18\Source\Source\_aiinterface\aimonster.cpp
; File C:\IAGOS\server\v18\Source\Source\DX_SDK\d3dx9math.inl
; File C:\IAGOS\server\v18\Source\Source\_aiinterface\aimonster.cpp
;	COMDAT ?MoveToRandom@CAIMonster@@IAEXI@Z
_TEXT	SEGMENT
$T1 = -44						; size = 12
_vDistant$2 = -32					; size = 12
_fRange$1$ = -20					; size = 4
_vPos$ = -16						; size = 12
__$ArrayPad$ = -4					; size = 4
_nState$ = 8						; size = 4
?MoveToRandom@CAIMonster@@IAEXI@Z PROC			; CAIMonster::MoveToRandom, COMDAT
; _this$ = ecx

; 175  : {

  00000	55		 push	 ebp
  00001	8b ec		 mov	 ebp, esp
  00003	83 ec 2c	 sub	 esp, 44			; 0000002cH
  00006	a1 00 00 00 00	 mov	 eax, DWORD PTR ___security_cookie
  0000b	33 c5		 xor	 eax, ebp
  0000d	89 45 fc	 mov	 DWORD PTR __$ArrayPad$[ebp], eax
  00010	53		 push	 ebx
  00011	56		 push	 esi
  00012	57		 push	 edi
  00013	8b f9		 mov	 edi, ecx
; File C:\IAGOS\server\v18\Source\Source\_Common\xUtil.h

; 16   : 	g_next = g_next * 1103515245 + 12345;// + nRandomSeed[ i++ ];

  00015	69 0d 00 00 00
	00 6d 4e c6 41	 imul	 ecx, DWORD PTR ?g_next@@3KA, 1103515245 ; g_next
; File C:\IAGOS\server\v18\Source\Source\_aiinterface\aimonster.cpp

; 176  : 	CMover* pMover = GetMover();

  0001f	8b 5f 30	 mov	 ebx, DWORD PTR [edi+48]
; File C:\IAGOS\server\v18\Source\Source\_Common\xUtil.h

; 16   : 	g_next = g_next * 1103515245 + 12345;// + nRandomSeed[ i++ ];

  00022	81 c1 39 30 00
	00		 add	 ecx, 12345		; 00003039H
; File C:\IAGOS\server\v18\Source\Source\_aiinterface\aimonster.cpp

; 180  : 	DWORD x1 = xRand();

  00028	69 f1 6d 4e c6
	41		 imul	 esi, ecx, 1103515245
; File C:\IAGOS\server\v18\Source\Source\_Common\Obj.h

; 215  : 	D3DXVECTOR3		GetPos()	{ return m_vPos; }

  0002e	f3 0f 7e 83 60
	01 00 00	 movq	 xmm0, QWORD PTR [ebx+352]
  00036	66 0f d6 45 f0	 movq	 QWORD PTR _vPos$[ebp], xmm0
  0003b	8b 83 68 01 00
	00		 mov	 eax, DWORD PTR [ebx+360]
  00041	89 45 f8	 mov	 DWORD PTR _vPos$[ebp+8], eax
; File C:\IAGOS\server\v18\Source\Source\_Common\xUtil.h

; 16   : 	g_next = g_next * 1103515245 + 12345;// + nRandomSeed[ i++ ];

  00044	81 c6 39 30 00
	00		 add	 esi, 12345		; 00003039H
; File C:\IAGOS\server\v18\Source\Source\_aiinterface\aimonster.cpp

; 183  : 	vPos.x += int( x1 % 21 ) - 10;

  0004a	b8 87 61 18 86	 mov	 eax, -2045222521	; 86186187H
; File C:\IAGOS\server\v18\Source\Source\_Common\xUtil.h

; 16   : 	g_next = g_next * 1103515245 + 12345;// + nRandomSeed[ i++ ];

  0004f	89 35 00 00 00
	00		 mov	 DWORD PTR ?g_next@@3KA, esi ; g_next
; File C:\IAGOS\server\v18\Source\Source\_aiinterface\aimonster.cpp

; 183  : 	vPos.x += int( x1 % 21 ) - 10;

  00055	f7 e1		 mul	 ecx
  00057	8b c1		 mov	 eax, ecx
  00059	2b c2		 sub	 eax, edx
  0005b	d1 e8		 shr	 eax, 1
  0005d	03 c2		 add	 eax, edx
  0005f	c1 e8 04	 shr	 eax, 4
  00062	6b c0 15	 imul	 eax, eax, 21
  00065	2b c8		 sub	 ecx, eax

; 184  : 	vPos.z += int( x2 % 21 ) - 10;

  00067	b8 87 61 18 86	 mov	 eax, -2045222521	; 86186187H
  0006c	f7 e6		 mul	 esi
  0006e	8b c6		 mov	 eax, esi
  00070	83 e9 0a	 sub	 ecx, 10			; 0000000aH
  00073	2b c2		 sub	 eax, edx
  00075	d1 e8		 shr	 eax, 1
  00077	03 c2		 add	 eax, edx
  00079	c1 e8 04	 shr	 eax, 4
  0007c	6b c0 15	 imul	 eax, eax, 21
  0007f	66 0f 6e c1	 movd	 xmm0, ecx
  00083	0f 5b c0	 cvtdq2ps xmm0, xmm0
  00086	2b f0		 sub	 esi, eax
  00088	83 ee 0a	 sub	 esi, 10			; 0000000aH

; 185  : 
; 186  : 	if( nState == STATE_IDLE )

  0008b	83 7d 08 02	 cmp	 DWORD PTR _nState$[ebp], 2
  0008f	f3 0f 58 45 f0	 addss	 xmm0, DWORD PTR _vPos$[ebp]
  00094	66 0f 6e ce	 movd	 xmm1, esi
  00098	0f 5b c9	 cvtdq2ps xmm1, xmm1
  0009b	f3 0f 11 45 f0	 movss	 DWORD PTR _vPos$[ebp], xmm0
  000a0	f3 0f 58 4d f8	 addss	 xmm1, DWORD PTR _vPos$[ebp+8]
  000a5	f3 0f 11 4d f8	 movss	 DWORD PTR _vPos$[ebp+8], xmm1
  000aa	0f 85 db 00 00
	00		 jne	 $LN2@MoveToRand

; 192  : 		if( pMover->IsFlyingNPC() )			// КёЧрИїРЧ АцПь АХИЎ 3Йш

  000b0	f7 83 3c 02 00
	00 00 00 01 00	 test	 DWORD PTR [ebx+572], 65536 ; 00010000H
; File C:\IAGOS\server\v18\Source\Source\DX_SDK\d3dx9math.inl

; 383  :     return D3DXVECTOR3(x - v.x, y - v.y, z - v.z);

  000ba	f3 0f 5c 47 50	 subss	 xmm0, DWORD PTR [edi+80]
  000bf	f3 0f 5c 4f 58	 subss	 xmm1, DWORD PTR [edi+88]
; File C:\IAGOS\server\v18\Source\Source\_aiinterface\aimonster.cpp

; 189  : 		vDistant.y = 0.0f;

  000c4	c7 45 e4 00 00
	00 00		 mov	 DWORD PTR _vDistant$2[ebp+4], 0
; File C:\IAGOS\server\v18\Source\Source\DX_SDK\d3dx9math.inl

; 300  :     x = fx;

  000cb	f3 0f 11 45 e0	 movss	 DWORD PTR _vDistant$2[ebp], xmm0
; File C:\IAGOS\server\v18\Source\Source\_aiinterface\aimonster.cpp

; 191  : 		float fRange = RANGE_MOVE;

  000d0	f3 0f 10 05 00
	00 00 00	 movss	 xmm0, DWORD PTR __real@41f00000
; File C:\IAGOS\server\v18\Source\Source\DX_SDK\d3dx9math.inl

; 302  :     z = fz;

  000d8	f3 0f 11 4d e8	 movss	 DWORD PTR _vDistant$2[ebp+8], xmm1
; File C:\IAGOS\server\v18\Source\Source\_aiinterface\aimonster.cpp

; 191  : 		float fRange = RANGE_MOVE;

  000dd	f3 0f 11 45 ec	 movss	 DWORD PTR _fRange$1$[ebp], xmm0

; 192  : 		if( pMover->IsFlyingNPC() )			// КёЧрИїРЧ АцПь АХИЎ 3Йш

  000e2	74 0d		 je	 SHORT $LN4@MoveToRand

; 193  : 			fRange *= 3.0f;

  000e4	f3 0f 10 05 00
	00 00 00	 movss	 xmm0, DWORD PTR __real@42b40000
  000ec	f3 0f 11 45 ec	 movss	 DWORD PTR _fRange$1$[ebp], xmm0
$LN4@MoveToRand:

; 194  : 		
; 195  : 		if( IsInRange( vDistant, fRange ) )	// 15ЙЬХЭ ЙнАцРЛ ЙўОюГЊСі ИјЧд 

  000f1	51		 push	 ecx
  000f2	8d 45 e0	 lea	 eax, DWORD PTR _vDistant$2[ebp]
  000f5	f3 0f 11 04 24	 movss	 DWORD PTR [esp], xmm0
  000fa	50		 push	 eax
  000fb	8b cf		 mov	 ecx, edi
  000fd	e8 00 00 00 00	 call	 ?IsInRange@CAIMonster@@IAEHAAUD3DXVECTOR3@@M@Z ; CAIMonster::IsInRange
  00102	85 c0		 test	 eax, eax
  00104	0f 85 81 00 00
	00		 jne	 $LN2@MoveToRand

; 196  : 		{
; 197  : 			MoveToDst( vPos );
; 198  : 		}
; 199  : 		else
; 200  : 		{
; 201  : 			// С§ПЁАЁДТ СпПЁ ЗЃД§ШЃУтРЬИщ УцЕЙШИЧЧДй. ШИЧЧЧЯРк.
; 202  : 			if( m_bReturnToBegin )

  0010a	39 87 bc 00 00
	00		 cmp	 DWORD PTR [edi+188], eax
  00110	75 79		 jne	 SHORT $LN2@MoveToRand
; File C:\IAGOS\server\v18\Source\Source\_Common\Obj.h

; 215  : 	D3DXVECTOR3		GetPos()	{ return m_vPos; }

  00112	f3 0f 7e 83 60
	01 00 00	 movq	 xmm0, QWORD PTR [ebx+352]
  0011a	8b 83 68 01 00
	00		 mov	 eax, DWORD PTR [ebx+360]
  00120	66 0f d6 45 d4	 movq	 QWORD PTR $T1[ebp], xmm0
; File C:\IAGOS\server\v18\Source\Source\DX_SDK\d3dx9math.inl

; 383  :     return D3DXVECTOR3(x - v.x, y - v.y, z - v.z);

  00125	f3 0f 10 45 d4	 movss	 xmm0, DWORD PTR $T1[ebp]
  0012a	f3 0f 5c 47 50	 subss	 xmm0, DWORD PTR [edi+80]
; File C:\IAGOS\server\v18\Source\Source\_Common\Obj.h

; 215  : 	D3DXVECTOR3		GetPos()	{ return m_vPos; }

  0012f	89 45 dc	 mov	 DWORD PTR $T1[ebp+8], eax
; File C:\IAGOS\server\v18\Source\Source\_aiinterface\aimonster.cpp

; 208  : 				if( IsInRange( vDistant, fRange ) == FALSE )

  00132	8d 45 e0	 lea	 eax, DWORD PTR _vDistant$2[ebp]
  00135	51		 push	 ecx
  00136	8b cf		 mov	 ecx, edi
  00138	f3 0f 11 45 e0	 movss	 DWORD PTR _vDistant$2[ebp], xmm0
; File C:\IAGOS\server\v18\Source\Source\DX_SDK\d3dx9math.inl

; 383  :     return D3DXVECTOR3(x - v.x, y - v.y, z - v.z);

  0013d	f3 0f 10 45 d8	 movss	 xmm0, DWORD PTR $T1[ebp+4]
  00142	f3 0f 5c 47 54	 subss	 xmm0, DWORD PTR [edi+84]
; File C:\IAGOS\server\v18\Source\Source\_aiinterface\aimonster.cpp

; 207  : 				vDistant = pMover->GetPos() - m_vPosBegin;

  00147	f3 0f 11 45 e4	 movss	 DWORD PTR _vDistant$2[ebp+4], xmm0
; File C:\IAGOS\server\v18\Source\Source\DX_SDK\d3dx9math.inl

; 383  :     return D3DXVECTOR3(x - v.x, y - v.y, z - v.z);

  0014c	f3 0f 10 45 dc	 movss	 xmm0, DWORD PTR $T1[ebp+8]
  00151	f3 0f 5c 47 58	 subss	 xmm0, DWORD PTR [edi+88]
; File C:\IAGOS\server\v18\Source\Source\_aiinterface\aimonster.cpp

; 207  : 				vDistant = pMover->GetPos() - m_vPosBegin;

  00156	f3 0f 11 45 e8	 movss	 DWORD PTR _vDistant$2[ebp+8], xmm0

; 208  : 				if( IsInRange( vDistant, fRange ) == FALSE )

  0015b	f3 0f 10 45 ec	 movss	 xmm0, DWORD PTR _fRange$1$[ebp]
  00160	f3 0f 11 04 24	 movss	 DWORD PTR [esp], xmm0
  00165	50		 push	 eax
  00166	e8 00 00 00 00	 call	 ?IsInRange@CAIMonster@@IAEHAAUD3DXVECTOR3@@M@Z ; CAIMonster::IsInRange
  0016b	85 c0		 test	 eax, eax
  0016d	75 27		 jne	 SHORT $LN3@MoveToRand

; 209  : 					DoReturnToBegin();

  0016f	6a 01		 push	 1
  00171	8b cf		 mov	 ecx, edi
  00173	e8 00 00 00 00	 call	 ?DoReturnToBegin@CAIMonster@@IAEXH@Z ; CAIMonster::DoReturnToBegin
  00178	5f		 pop	 edi

; 216  : 	}
; 217  : }

  00179	5e		 pop	 esi
  0017a	5b		 pop	 ebx
  0017b	8b 4d fc	 mov	 ecx, DWORD PTR __$ArrayPad$[ebp]
  0017e	33 cd		 xor	 ecx, ebp
  00180	e8 00 00 00 00	 call	 @__security_check_cookie@4
  00185	8b e5		 mov	 esp, ebp
  00187	5d		 pop	 ebp
  00188	c2 04 00	 ret	 4
$LN2@MoveToRand:

; 210  : 			}
; 211  : 		}
; 212  : 	}
; 213  : 	else
; 214  : 	{
; 215  : 		MoveToDst( vPos );

  0018b	8d 45 f0	 lea	 eax, DWORD PTR _vPos$[ebp]
  0018e	8b cf		 mov	 ecx, edi
  00190	50		 push	 eax
  00191	e8 00 00 00 00	 call	 ?MoveToDst@CAIMonster@@IAEXABUD3DXVECTOR3@@@Z ; CAIMonster::MoveToDst
$LN3@MoveToRand:

; 216  : 	}
; 217  : }

  00196	8b 4d fc	 mov	 ecx, DWORD PTR __$ArrayPad$[ebp]
  00199	5f		 pop	 edi
  0019a	5e		 pop	 esi
  0019b	33 cd		 xor	 ecx, ebp
  0019d	5b		 pop	 ebx
  0019e	e8 00 00 00 00	 call	 @__security_check_cookie@4
  001a3	8b e5		 mov	 esp, ebp
  001a5	5d		 pop	 ebp
  001a6	c2 04 00	 ret	 4
?MoveToRandom@CAIMonster@@IAEXI@Z ENDP			; CAIMonster::MoveToRandom
_TEXT	ENDS
; Function compile flags: /Ogtp
; File C:\IAGOS\server\v18\Source\Source\_aiinterface\aimonster.cpp
; File C:\IAGOS\server\v18\Source\Source\DX_SDK\d3dx9math.inl
; File C:\IAGOS\server\v18\Source\Source\_aiinterface\aimonster.cpp
; File C:\IAGOS\server\v18\Source\Source\_Common\Mover.h
; File C:\IAGOS\server\v18\Source\Source\DX_SDK\d3dx9math.inl
; File C:\IAGOS\server\v18\Source\Source\_Common\Mover.h
; File C:\IAGOS\server\v18\Source\Source\DX_SDK\d3dx9math.inl
; File C:\IAGOS\server\v18\Source\Source\_aiinterface\aimonster.cpp
;	COMDAT ?MoveToDst@CAIMonster@@IAEXABUD3DXVECTOR3@@@Z
_TEXT	SEGMENT
$T1 = -12						; size = 12
_vDst$ = 8						; size = 4
?MoveToDst@CAIMonster@@IAEXABUD3DXVECTOR3@@@Z PROC	; CAIMonster::MoveToDst, COMDAT
; _this$ = ecx

; 146  : {

  00000	55		 push	 ebp
  00001	8b ec		 mov	 ebp, esp
  00003	83 ec 0c	 sub	 esp, 12			; 0000000cH
  00006	56		 push	 esi
; File C:\IAGOS\server\v18\Source\Source\DX_SDK\d3dx9math.inl

; 410  :     return x == v.x && y == v.y && z == v.z;

  00007	8b 75 08	 mov	 esi, DWORD PTR _vDst$[ebp]
; File C:\IAGOS\server\v18\Source\Source\_aiinterface\aimonster.cpp

; 146  : {

  0000a	57		 push	 edi

; 147  : 	CMover* pMover = GetMover();

  0000b	8b 79 30	 mov	 edi, DWORD PTR [ecx+48]
; File C:\IAGOS\server\v18\Source\Source\_Common\Mover.h

; 1026 : 	D3DXVECTOR3		GetDestPos()		{ return m_vDestPos; }

  0000e	f3 0f 7e 87 5c
	02 00 00	 movq	 xmm0, QWORD PTR [edi+604]
  00016	8b 87 64 02 00
	00		 mov	 eax, DWORD PTR [edi+612]
  0001c	66 0f d6 45 f4	 movq	 QWORD PTR $T1[ebp], xmm0
; File C:\IAGOS\server\v18\Source\Source\DX_SDK\d3dx9math.inl

; 410  :     return x == v.x && y == v.y && z == v.z;

  00021	f3 0f 10 45 f4	 movss	 xmm0, DWORD PTR $T1[ebp]
  00026	0f 2e 06	 ucomiss xmm0, DWORD PTR [esi]
; File C:\IAGOS\server\v18\Source\Source\_Common\Mover.h

; 1026 : 	D3DXVECTOR3		GetDestPos()		{ return m_vDestPos; }

  00029	89 45 fc	 mov	 DWORD PTR $T1[ebp+8], eax
; File C:\IAGOS\server\v18\Source\Source\DX_SDK\d3dx9math.inl

; 410  :     return x == v.x && y == v.y && z == v.z;

  0002c	9f		 lahf
  0002d	f6 c4 44	 test	 ah, 68			; 00000044H
  00030	7a 1e		 jp	 SHORT $LN10@MoveToDst
  00032	f3 0f 10 45 f8	 movss	 xmm0, DWORD PTR $T1[ebp+4]
  00037	0f 2e 46 04	 ucomiss xmm0, DWORD PTR [esi+4]
  0003b	9f		 lahf
  0003c	f6 c4 44	 test	 ah, 68			; 00000044H
  0003f	7a 0f		 jp	 SHORT $LN10@MoveToDst
  00041	f3 0f 10 45 fc	 movss	 xmm0, DWORD PTR $T1[ebp+8]
  00046	0f 2e 46 08	 ucomiss xmm0, DWORD PTR [esi+8]
  0004a	9f		 lahf
  0004b	f6 c4 44	 test	 ah, 68			; 00000044H
  0004e	7b 24		 jnp	 SHORT $LN1@MoveToDst
$LN10@MoveToDst:
; File C:\IAGOS\server\v18\Source\Source\_aiinterface\aimonster.cpp

; 151  : 	pMover->SetDestPos( vDst );

  00050	6a 01		 push	 1
  00052	6a 01		 push	 1
  00054	56		 push	 esi
  00055	8b cf		 mov	 ecx, edi
  00057	e8 00 00 00 00	 call	 ?SetDestPos@CMover@@QAEXABUD3DXVECTOR3@@_NH@Z ; CMover::SetDestPos

; 152  : 	pMover->m_nCorr		= -1;
; 153  : 	g_UserMng.AddSetDestPos( pMover, vDst, 1 );

  0005c	6a 01		 push	 1
  0005e	56		 push	 esi
  0005f	57		 push	 edi
  00060	b9 00 00 00 00	 mov	 ecx, OFFSET ?g_UserMng@@3VCUserMng@@A ; g_UserMng
  00065	c7 87 74 02 00
	00 ff ff ff ff	 mov	 DWORD PTR [edi+628], -1
  0006f	e8 00 00 00 00	 call	 ?AddSetDestPos@CUserMng@@QAEXPAVCMover@@ABUD3DXVECTOR3@@E@Z ; CUserMng::AddSetDestPos
$LN1@MoveToDst:

; 154  : }

  00074	5f		 pop	 edi
  00075	5e		 pop	 esi
  00076	8b e5		 mov	 esp, ebp
  00078	5d		 pop	 ebp
  00079	c2 04 00	 ret	 4
?MoveToDst@CAIMonster@@IAEXABUD3DXVECTOR3@@@Z ENDP	; CAIMonster::MoveToDst
_TEXT	ENDS
; Function compile flags: /Ogtp
; File C:\IAGOS\server\v18\Source\Source\_aiinterface\aimonster.cpp
; File C:\IAGOS\server\v18\Source\Source\_Common\Obj.h
; File C:\IAGOS\server\v18\Source\Source\_aiinterface\aimonster.cpp
;	COMDAT ?MoveToDst@CAIMonster@@IAEXK@Z
_TEXT	SEGMENT
_dwIdTarget$ = 8					; size = 4
?MoveToDst@CAIMonster@@IAEXK@Z PROC			; CAIMonster::MoveToDst, COMDAT
; _this$ = ecx

; 157  : {

  00000	55		 push	 ebp
  00001	8b ec		 mov	 ebp, esp
  00003	53		 push	 ebx
  00004	8b d9		 mov	 ebx, ecx
  00006	56		 push	 esi
  00007	57		 push	 edi

; 158  : 	CMover* pMover = GetMover();
; 159  : 	if( pMover->GetDestId() == dwIdTarget )

  00008	8b 7d 08	 mov	 edi, DWORD PTR _dwIdTarget$[ebp]
  0000b	8b 73 30	 mov	 esi, DWORD PTR [ebx+48]
  0000e	39 be 58 02 00
	00		 cmp	 DWORD PTR [esi+600], edi
  00014	74 5f		 je	 SHORT $LN1@MoveToDst

; 160  : 		return;
; 161  : 
; 162  : #if __VER >= 9	//__AI_0509
; 163  : 	GetMover()->SetSpeedFactor( 2.0F );

  00016	51		 push	 ecx
  00017	8b ce		 mov	 ecx, esi
  00019	c7 04 24 00 00
	00 40		 mov	 DWORD PTR [esp], 1073741824 ; 40000000H
  00020	e8 00 00 00 00	 call	 ?SetSpeedFactor@CMover@@QAEXM@Z ; CMover::SetSpeedFactor

; 164  : #endif	// __AI_0509
; 165  : 
; 166  : 	CMover* pTarget	= prj.GetMover( dwIdTarget );

  00025	57		 push	 edi
  00026	b9 00 00 00 00	 mov	 ecx, OFFSET ?prj@@3VCProject@@A ; prj
  0002b	e8 00 00 00 00	 call	 ?GetMover@CProject@@QAEPAVCMover@@K@Z ; CProject::GetMover
; File C:\IAGOS\server\v18\Source\Source\_Common\Obj.h

; 327  : 	return pObj && ( pObj->IsDelete() == FALSE ); 

  00030	85 c0		 test	 eax, eax
  00032	74 19		 je	 SHORT $LN3@MoveToDst

; 180  : 	BOOL			IsDelete()	{ return (m_dwFlags & OBJ_FLAG_DELETE);  }

  00034	f6 40 04 01	 test	 BYTE PTR [eax+4], 1

; 327  : 	return pObj && ( pObj->IsDelete() == FALSE ); 

  00038	75 13		 jne	 SHORT $LN3@MoveToDst
; File C:\IAGOS\server\v18\Source\Source\_aiinterface\aimonster.cpp

; 168  : 		SetTarget( pTarget->GetId(), pTarget->m_idparty );

  0003a	ff b0 10 07 00
	00		 push	 DWORD PTR [eax+1808]
  00040	8b cb		 mov	 ecx, ebx
  00042	ff b0 bc 01 00
	00		 push	 DWORD PTR [eax+444]
  00048	e8 00 00 00 00	 call	 ?SetTarget@CAIMonster@@IAEXKK@Z ; CAIMonster::SetTarget
$LN3@MoveToDst:

; 169  : 
; 170  : 	pMover->SetDestObj( dwIdTarget ); // ИёЧЅИІ РчМГСЄЧиСиДй.

  0004d	6a 00		 push	 0
  0004f	51		 push	 ecx
  00050	c7 04 24 00 00
	00 00		 mov	 DWORD PTR [esp], 0
  00057	8b ce		 mov	 ecx, esi
  00059	57		 push	 edi
  0005a	e8 00 00 00 00	 call	 ?SetDestObj@CMover@@QAEXKMH@Z ; CMover::SetDestObj

; 171  : 	g_UserMng.AddMoverSetDestObj( (CMover*)pMover, dwIdTarget );

  0005f	6a 00		 push	 0
  00061	51		 push	 ecx
  00062	c7 04 24 00 00
	00 00		 mov	 DWORD PTR [esp], 0
  00069	b9 00 00 00 00	 mov	 ecx, OFFSET ?g_UserMng@@3VCUserMng@@A ; g_UserMng
  0006e	57		 push	 edi
  0006f	56		 push	 esi
  00070	e8 00 00 00 00	 call	 ?AddMoverSetDestObj@CUserMng@@QAEXPAVCMover@@KMH@Z ; CUserMng::AddMoverSetDestObj
$LN1@MoveToDst:

; 172  : }

  00075	5f		 pop	 edi
  00076	5e		 pop	 esi
  00077	5b		 pop	 ebx
  00078	5d		 pop	 ebp
  00079	c2 04 00	 ret	 4
?MoveToDst@CAIMonster@@IAEXK@Z ENDP			; CAIMonster::MoveToDst
_TEXT	ENDS
; Function compile flags: /Ogtp
; File C:\IAGOS\server\v18\Source\Source\_aiinterface\aimonster.cpp
;	COMDAT ?DoReturnToBegin@CAIMonster@@IAEXH@Z
_TEXT	SEGMENT
_bReturn$ = 8						; size = 4
?DoReturnToBegin@CAIMonster@@IAEXH@Z PROC		; CAIMonster::DoReturnToBegin, COMDAT
; _this$ = ecx

; 287  : {

  00000	55		 push	 ebp
  00001	8b ec		 mov	 ebp, esp

; 288  : 	if( bReturn )

  00003	83 7d 08 00	 cmp	 DWORD PTR _bReturn$[ebp], 0
  00007	56		 push	 esi
  00008	6a 00		 push	 0
  0000a	8b f1		 mov	 esi, ecx
  0000c	6a ff		 push	 -1
  0000e	74 37		 je	 SHORT $LN2@DoReturnTo

; 289  : 	{
; 290  : 		m_bReturnToBegin	= TRUE;

  00010	c7 86 bc 00 00
	00 01 00 00 00	 mov	 DWORD PTR [esi+188], 1

; 291  : 		m_tmReturnToBegin	= TIMEGETTIME;		// ЕЙОЦАЁЖѓДТ ИэЗЩРЛ ЙоРК НУАЃ БтЗЯ.

  0001a	a1 00 00 00 00	 mov	 eax, DWORD PTR ?g_tmCurrent@@3KA ; g_tmCurrent
  0001f	89 46 4c	 mov	 DWORD PTR [esi+76], eax

; 292  : 		SetTarget( NULL_ID, 0 );

  00022	e8 00 00 00 00	 call	 ?SetTarget@CAIMonster@@IAEXKK@Z ; CAIMonster::SetTarget

; 293  : #if __VER >= 9	//__AI_0509
; 294  : 		CMover* pMover	= GetMover();
; 295  : 		pMover->SetSpeedFactor( 2.66F );

  00027	51		 push	 ecx
  00028	8b 4e 30	 mov	 ecx, DWORD PTR [esi+48]
  0002b	c7 04 24 71 3d
	2a 40		 mov	 DWORD PTR [esp], 1076510065 ; 402a3d71H
  00032	e8 00 00 00 00	 call	 ?SetSpeedFactor@CMover@@QAEXM@Z ; CMover::SetSpeedFactor

; 296  : #endif	// __AI_0509
; 297  : 		MoveToDst( m_vPosBegin );

  00037	8d 46 50	 lea	 eax, DWORD PTR [esi+80]
  0003a	8b ce		 mov	 ecx, esi
  0003c	50		 push	 eax
  0003d	e8 00 00 00 00	 call	 ?MoveToDst@CAIMonster@@IAEXABUD3DXVECTOR3@@@Z ; CAIMonster::MoveToDst
  00042	5e		 pop	 esi

; 307  : #endif	// __AI_0509
; 308  : 	}
; 309  : }

  00043	5d		 pop	 ebp
  00044	c2 04 00	 ret	 4
$LN2@DoReturnTo:

; 298  : 	}
; 299  : 	else
; 300  : 	{
; 301  : 		m_bReturnToBegin	= FALSE;

  00047	c7 86 bc 00 00
	00 00 00 00 00	 mov	 DWORD PTR [esi+188], 0

; 302  : 		SetTarget( NULL_ID, 0 );

  00051	e8 00 00 00 00	 call	 ?SetTarget@CAIMonster@@IAEXKK@Z ; CAIMonster::SetTarget

; 303  : #if __VER >= 9	//__AI_0509
; 304  : 		CMover* pMover	= GetMover();

  00056	8b 76 30	 mov	 esi, DWORD PTR [esi+48]

; 305  : 		pMover->SetPointParam( DST_HP, pMover->GetMaxHitPoint() );

  00059	8b ce		 mov	 ecx, esi
  0005b	6a 00		 push	 0
  0005d	e8 00 00 00 00	 call	 ?GetMaxHitPoint@CMover@@QAEHXZ ; CMover::GetMaxHitPoint
  00062	50		 push	 eax
  00063	6a 26		 push	 38			; 00000026H
  00065	8b ce		 mov	 ecx, esi
  00067	e8 00 00 00 00	 call	 ?SetPointParam@CMover@@QAEXHHH@Z ; CMover::SetPointParam

; 306  : 		pMover->RemoveAllEnemies();

  0006c	8b ce		 mov	 ecx, esi
  0006e	e8 00 00 00 00	 call	 ?RemoveAllEnemies@CMover@@QAEXXZ ; CMover::RemoveAllEnemies
  00073	5e		 pop	 esi

; 307  : #endif	// __AI_0509
; 308  : 	}
; 309  : }

  00074	5d		 pop	 ebp
  00075	c2 04 00	 ret	 4
?DoReturnToBegin@CAIMonster@@IAEXH@Z ENDP		; CAIMonster::DoReturnToBegin
_TEXT	ENDS
; Function compile flags: /Ogtp
; File C:\IAGOS\server\v18\Source\Source\_aiinterface\aimonster.cpp
; File C:\IAGOS\server\v18\Source\Source\_Common\Obj.h
; File C:\IAGOS\server\v18\Source\Source\_aiinterface\aimonster.cpp
; File C:\IAGOS\server\v18\Source\Source\_Common\Project.h
; File C:\IAGOS\server\v18\Source\Source\_Common\data.h
; File C:\IAGOS\server\v18\Source\Source\_aiinterface\aimonster.cpp
; File C:\IAGOS\server\v18\Source\Source\_Common\Mover.h
; File C:\IAGOS\server\v18\Source\Source\_aiinterface\aimonster.cpp
; File C:\IAGOS\server\v18\Source\Source\_Common\Mover.h
; File C:\IAGOS\server\v18\Source\Source\_aiinterface\aimonster.cpp
; File C:\IAGOS\server\v18\Source\Source\_Common\Project.h
; File C:\IAGOS\server\v18\Source\Source\_aiinterface\aimonster.cpp
;	COMDAT ?DoAttack@CAIMonster@@IAEXKPAVCMover@@@Z
_TEXT	SEGMENT
_this$1$ = -4						; size = 4
_dwAtkMethod$ = 8					; size = 4
_pTarget$ = 12						; size = 4
?DoAttack@CAIMonster@@IAEXKPAVCMover@@@Z PROC		; CAIMonster::DoAttack, COMDAT
; _this$ = ecx

; 1272 : {

  00000	55		 push	 ebp
  00001	8b ec		 mov	 ebp, esp
  00003	51		 push	 ecx
  00004	8b c1		 mov	 eax, ecx
  00006	57		 push	 edi
  00007	89 45 fc	 mov	 DWORD PTR _this$1$[ebp], eax

; 1273 : 	CMover* pMover = GetMover();

  0000a	8b 78 30	 mov	 edi, DWORD PTR [eax+48]
; File C:\IAGOS\server\v18\Source\Source\_Common\Obj.h

; 327  : 	return pObj && ( pObj->IsDelete() == FALSE ); 

  0000d	85 ff		 test	 edi, edi
  0000f	0f 84 78 01 00
	00		 je	 $LN3@DoAttack

; 180  : 	BOOL			IsDelete()	{ return (m_dwFlags & OBJ_FLAG_DELETE);  }

  00015	f6 47 04 01	 test	 BYTE PTR [edi+4], 1

; 327  : 	return pObj && ( pObj->IsDelete() == FALSE ); 

  00019	0f 85 6e 01 00
	00		 jne	 $LN3@DoAttack
; File C:\IAGOS\server\v18\Source\Source\_aiinterface\aimonster.cpp

; 1274 : 	if( IsInvalidObj( pMover ) || dwAtkMethod == 0 )	

  0001f	53		 push	 ebx
  00020	8b 5d 08	 mov	 ebx, DWORD PTR _dwAtkMethod$[ebp]
  00023	85 db		 test	 ebx, ebx
  00025	0f 84 61 01 00
	00		 je	 $LN57@DoAttack

; 1275 : 		return;
; 1276 : 
; 1277 : 	DWORD dwAtkItem = GetAtkItemId( dwAtkMethod );

  0002b	56		 push	 esi
  0002c	53		 push	 ebx
  0002d	e8 00 00 00 00	 call	 ?GetAtkItemId@CAIMonster@@IAEKK@Z ; CAIMonster::GetAtkItemId
  00032	8b f0		 mov	 esi, eax
; File C:\IAGOS\server\v18\Source\Source\_Common\Project.h

; 1389 : 	VERIFY_RANGE_ASSERT( nIndex, 0, m_aPropItem.GetSize(), "GetItemProp range_error", NULL );

  00034	a1 40 02 00 00	 mov	 eax, DWORD PTR ?prj@@3VCProject@@A+576
  00039	85 f6		 test	 esi, esi
  0003b	0f 88 1b 01 00
	00		 js	 $LN29@DoAttack
  00041	3b f0		 cmp	 esi, eax
  00043	0f 8d 13 01 00
	00		 jge	 $LN29@DoAttack
; File C:\IAGOS\server\v18\Source\Source\_Common\data.h

; 270  : 	if( dwIndex >= (DWORD)m_nMaxIndex )

  00049	72 04		 jb	 SHORT $LN34@DoAttack

; 271  : 		return NULL;

  0004b	33 c0		 xor	 eax, eax
  0004d	eb 08		 jmp	 SHORT $LN33@DoAttack
$LN34@DoAttack:

; 272  : 	return (T*) m_apOffset[ dwIndex ];

  0004f	a1 30 02 00 00	 mov	 eax, DWORD PTR ?prj@@3VCProject@@A+560
  00054	8b 04 b0	 mov	 eax, DWORD PTR [eax+esi*4]
$LN33@DoAttack:
; File C:\IAGOS\server\v18\Source\Source\_aiinterface\aimonster.cpp

; 1279 : 	if( pItemProp == NULL )

  00057	85 c0		 test	 eax, eax
  00059	0f 84 13 01 00
	00		 je	 $LN40@DoAttack

; 1282 : 		return;
; 1283 : 	}
; 1284 : 	
; 1285 : 	if( pItemProp->dwAttackRange == AR_RANGE || pItemProp->dwAttackRange == AR_WAND )

  0005f	8b 80 38 01 00
	00		 mov	 eax, DWORD PTR [eax+312]
  00065	83 f8 04	 cmp	 eax, 4
  00068	74 7f		 je	 SHORT $LN7@DoAttack
  0006a	83 f8 05	 cmp	 eax, 5
  0006d	74 7a		 je	 SHORT $LN7@DoAttack

; 1296 : 	}
; 1297 : 	else
; 1298 : 	{
; 1299 : 		// ЧЪЛь АјАнРК, ЧСЗЮЦлЦМПЁМ­ СЄКИИІ ОђОюПУ Мі ОјРИЙЧЗЮ АјАн ЙцНФ(dwAtkMethod)РИЗЮ АсСЄ.
; 1300 : 		// ЧЪЛь АјАн ЗчЦОРК ГЛКЮПЁМ­ ДмАХИЎ АјАнРЛ Чв МіЕЕ РжДй.
; 1301 : 		DWORD dwItemID = dwAtkItem;
; 1302 : 		if( dwItemID == NULL_ID )

  0006f	83 fe ff	 cmp	 esi, -1
  00072	75 18		 jne	 SHORT $LN10@DoAttack

; 1303 : 			Error( "АцАэ : %sРЧ АјАн%dАЁ СіСЄЕЧСі ОЪОвДй", pMover->GetName(), dwAtkMethod );

  00074	53		 push	 ebx
  00075	6a 00		 push	 0
  00077	8b cf		 mov	 ecx, edi
  00079	e8 00 00 00 00	 call	 ?GetName@CMover@@QAEPBDH@Z ; CMover::GetName
  0007e	50		 push	 eax
  0007f	68 00 00 00 00	 push	 OFFSET ??_C@_0CF@PNLKMPKB@?$LA?f?$LA?m?5?3?5?$CFs?$MA?G?5?$LA?x?$LA?$NN?$CFd?$LA?$KB?5?A?v?A?$KE?$LF?G?A?v?5?$LO@
  00084	e8 00 00 00 00	 call	 ?Error@@YAPBDPBDZZ	; Error
  00089	83 c4 0c	 add	 esp, 12			; 0000000cH
$LN10@DoAttack:

; 1304 : 		if( dwAtkMethod == 3 )

  0008c	83 fb 03	 cmp	 ebx, 3
  0008f	75 10		 jne	 SHORT $LN11@DoAttack

; 1305 : 			pMover->DoAttackSP( pTarget, dwItemID );

  00091	56		 push	 esi
  00092	ff 75 0c	 push	 DWORD PTR _pTarget$[ebp]
  00095	8b cf		 mov	 ecx, edi
  00097	e8 00 00 00 00	 call	 ?DoAttackSP@CMover@@QAEHPAVCObj@@K@Z ; CMover::DoAttackSP
  0009c	e9 a1 00 00 00	 jmp	 $LN9@DoAttack
$LN11@DoAttack:
; File C:\IAGOS\server\v18\Source\Source\_Common\Mover.h

; 1785 : 	if( m_pActMover )	

  000a1	8b 8f 38 02 00
	00		 mov	 ecx, DWORD PTR [edi+568]
; File C:\IAGOS\server\v18\Source\Source\_aiinterface\aimonster.cpp

; 1308 : 			int nError = pMover->SendActMsg( OBJMSG_ATK1, pTarget->GetId(), 0, 0 );

  000a7	8b 75 0c	 mov	 esi, DWORD PTR _pTarget$[ebp]
; File C:\IAGOS\server\v18\Source\Source\_Common\Mover.h

; 1785 : 	if( m_pActMover )	

  000aa	85 c9		 test	 ecx, ecx
  000ac	0f 84 90 00 00
	00		 je	 $LN9@DoAttack

; 1786 : 		return m_pActMover->SendActMsg( dwMsg, nParam1, nParam2, nParam3, nParam4 );	

  000b2	8b 01		 mov	 eax, DWORD PTR [ecx]
  000b4	6a 00		 push	 0
  000b6	6a 00		 push	 0
  000b8	6a 00		 push	 0
  000ba	6a 00		 push	 0
  000bc	ff b6 bc 01 00
	00		 push	 DWORD PTR [esi+444]
  000c2	6a 1d		 push	 29			; 0000001dH
  000c4	ff 50 04	 call	 DWORD PTR [eax+4]
; File C:\IAGOS\server\v18\Source\Source\_aiinterface\aimonster.cpp

; 1309 : 			if( nError > 0 ) 

  000c7	85 c0		 test	 eax, eax
  000c9	7e 77		 jle	 SHORT $LN9@DoAttack

; 1310 : 				g_UserMng.AddMeleeAttack( pMover, OBJMSG_ATK1, pTarget->GetId(), 0, MAKELONG( 0, (WORD)nError ) );

  000cb	0f b7 c0	 movzx	 eax, ax
  000ce	b9 00 00 00 00	 mov	 ecx, OFFSET ?g_UserMng@@3VCUserMng@@A ; g_UserMng
  000d3	c1 e0 10	 shl	 eax, 16			; 00000010H
  000d6	50		 push	 eax
  000d7	6a 00		 push	 0
  000d9	ff b6 bc 01 00
	00		 push	 DWORD PTR [esi+444]
  000df	6a 1d		 push	 29			; 0000001dH
  000e1	57		 push	 edi
  000e2	e8 00 00 00 00	 call	 ?AddMeleeAttack@CUserMng@@QAEXPAVCMover@@KKHH@Z ; CUserMng::AddMeleeAttack
  000e7	eb 59		 jmp	 SHORT $LN9@DoAttack
$LN7@DoAttack:

; 1286 : 	{
; 1287 : 		// РхАХИЎ АјАнРК, МБХУЕШ АјАн ЙцНФ(dwAtkMethod)РЧ ЧиДч АјАн ОЦРЬХл МгМКПЁМ­ МгМКРЛ ОђОю РхАХИЎ АјАнРЬЖѓАэ ЦЧДмЧд.
; 1288 : 		// М­ЙіПЁМ­ idSfxИІ ИИЕщОюМ­ РкБтРкНХПЁАд ЕюЗЯНУФбЕв. ГЊСпПЁ ХЌЖѓПЁМ­ ИТОЦМ­ М­ЙіЗЮ СЄКИАЁ ГбОюПРИщ БзАЭАњ КёБГЧиМ­ ЕЅЙЬСіИІ ГбАмСм.
; 1289 : 		int id = pMover->m_sfxHitArray.Add( 0, pTarget->GetId(), AF_GENERIC, 0 );	// РЬКЮКаРК DoAttackRangeОШРИЗЮ ЕщОюАЁОп ЧвАХ ААДй.

  000e9	8b 4d 0c	 mov	 ecx, DWORD PTR _pTarget$[ebp]
  000ec	6a 01		 push	 1
  000ee	6a 00		 push	 0
  000f0	6a 01		 push	 1
  000f2	ff b1 bc 01 00
	00		 push	 DWORD PTR [ecx+444]
  000f8	8d 8f 04 0e 00
	00		 lea	 ecx, DWORD PTR [edi+3588]
  000fe	6a 00		 push	 0
  00100	e8 00 00 00 00	 call	 ?Add@CSfxHitArray@@QAEHHKKKH@Z ; CSfxHitArray::Add
  00105	8b d8		 mov	 ebx, eax

; 1290 : 		DWORD dwItemID = dwAtkItem;
; 1291 : 		if( dwItemID == NULL_ID )

  00107	83 fe ff	 cmp	 esi, -1
  0010a	75 17		 jne	 SHORT $LN8@DoAttack

; 1292 : 			Error( "АцАэ : %sРЧ dwAtk2АЁ СіСЄЕЧСі ОЪОвДй", pMover->GetName() );

  0010c	6a 00		 push	 0
  0010e	8b cf		 mov	 ecx, edi
  00110	e8 00 00 00 00	 call	 ?GetName@CMover@@QAEPBDH@Z ; CMover::GetName
  00115	50		 push	 eax
  00116	68 00 00 00 00	 push	 OFFSET ??_C@_0CF@GPCLPLOG@?$LA?f?$LA?m?5?3?5?$CFs?$MA?G?5dwAtk2?$LA?$KB?5?A?v?A?$KE?$LF?G?A?v?5?$LO@
  0011b	e8 00 00 00 00	 call	 ?Error@@YAPBDPBDZZ	; Error
  00120	83 c4 08	 add	 esp, 8
$LN8@DoAttack:

; 1293 : 
; 1294 : 		if( pMover->DoAttackRange( pTarget, dwItemID, id ) != 1 )

  00123	53		 push	 ebx
  00124	56		 push	 esi
  00125	ff 75 0c	 push	 DWORD PTR _pTarget$[ebp]
  00128	8b cf		 mov	 ecx, edi
  0012a	e8 00 00 00 00	 call	 ?DoAttackRange@CMover@@QAEHPAVCObj@@KH@Z ; CMover::DoAttackRange
  0012f	83 f8 01	 cmp	 eax, 1
  00132	74 0e		 je	 SHORT $LN9@DoAttack

; 1295 : 			pMover->m_sfxHitArray.RemoveSfxHit( id, FALSE );	// sfxHitArray.AddГжОњДјАЭРЛ ДйНУЛ­. 

  00134	6a 00		 push	 0
  00136	53		 push	 ebx
  00137	8d 8f 04 0e 00
	00		 lea	 ecx, DWORD PTR [edi+3588]
  0013d	e8 00 00 00 00	 call	 ?RemoveSfxHit@CSfxHitArray@@QAEHHH@Z ; CSfxHitArray::RemoveSfxHit
$LN9@DoAttack:

; 1311 : 			else
; 1312 : 				nError = -1;		// КъЗЙРЬХЉ ЦїРЮЦЎ РтРИЗСАэ ЧиГѕРКАХ.
; 1313 : 		}
; 1314 : 	}
; 1315 : 
; 1316 : 	m_tmAttack	= TIMEGETTIME + s_tmAttack;		// АјАн ШФ s_tmAttackУЪАЃ УпРћЧиПШ.

  00142	8b 4d fc	 mov	 ecx, DWORD PTR _this$1$[ebp]
  00145	a1 00 00 00 00	 mov	 eax, DWORD PTR ?s_tmAttack@@3KA
  0014a	03 05 00 00 00
	00		 add	 eax, DWORD PTR ?g_tmCurrent@@3KA ; g_tmCurrent
  00150	5e		 pop	 esi
  00151	5b		 pop	 ebx
  00152	89 41 40	 mov	 DWORD PTR [ecx+64], eax
  00155	5f		 pop	 edi

; 1317 : }

  00156	8b e5		 mov	 esp, ebp
  00158	5d		 pop	 ebp
  00159	c2 08 00	 ret	 8
$LN29@DoAttack:
; File C:\IAGOS\server\v18\Source\Source\_Common\Project.h

; 579  : 	LPCTSTR szErr = Error( _T( "%s min:%d, max:%d, index:%d" ), szMsg, nMin, nMax, nIndex ); 

  0015c	56		 push	 esi
  0015d	50		 push	 eax
  0015e	6a 00		 push	 0
  00160	68 00 00 00 00	 push	 OFFSET ??_C@_0BI@BEIFNGEL@GetItemProp?5range_error@
  00165	68 00 00 00 00	 push	 OFFSET ??_C@_0BM@HMFGHCP@?$CFs?5min?3?$CFd?0?5max?3?$CFd?0?5index?3?$CFd@
  0016a	e8 00 00 00 00	 call	 ?Error@@YAPBDPBDZZ	; Error
  0016f	83 c4 14	 add	 esp, 20			; 00000014H
$LN40@DoAttack:
; File C:\IAGOS\server\v18\Source\Source\_aiinterface\aimonster.cpp

; 1281 : 		Error( "CAIMonster::DoAttack : %s %d %d", pMover->GetName(), dwAtkMethod, dwAtkItem );

  00172	56		 push	 esi
  00173	53		 push	 ebx
  00174	6a 00		 push	 0
  00176	8b cf		 mov	 ecx, edi
  00178	e8 00 00 00 00	 call	 ?GetName@CMover@@QAEPBDH@Z ; CMover::GetName
  0017d	50		 push	 eax
  0017e	68 00 00 00 00	 push	 OFFSET ??_C@_0CA@LGFOMACB@CAIMonster?3?3DoAttack?5?3?5?$CFs?5?$CFd?5?$CFd@
  00183	e8 00 00 00 00	 call	 ?Error@@YAPBDPBDZZ	; Error
  00188	83 c4 10	 add	 esp, 16			; 00000010H
  0018b	5e		 pop	 esi
$LN57@DoAttack:
  0018c	5b		 pop	 ebx
$LN3@DoAttack:
  0018d	5f		 pop	 edi

; 1317 : }

  0018e	8b e5		 mov	 esp, ebp
  00190	5d		 pop	 ebp
  00191	c2 08 00	 ret	 8
?DoAttack@CAIMonster@@IAEXKPAVCMover@@@Z ENDP		; CAIMonster::DoAttack
_TEXT	ENDS
; Function compile flags: /Ogtp
; File C:\IAGOS\server\v18\Source\Source\_aiinterface\aimonster.cpp
; File C:\IAGOS\server\v18\Source\Source\_Common\Mover.h
; File C:\IAGOS\server\v18\Source\Source\_Common\Project.h
; File C:\IAGOS\server\v18\Source\Source\_aiinterface\aimonster.cpp
; File C:\IAGOS\server\v18\Source\Source\_Common\Project.h
; File C:\IAGOS\server\v18\Source\Source\_aiinterface\aimonster.cpp
; File C:\IAGOS\server\v18\Source\Source\_Common\Mover.h
; File C:\IAGOS\server\v18\Source\Source\_Common\Project.h
; File C:\IAGOS\server\v18\Source\Source\_aiinterface\aimonster.cpp
; File C:\IAGOS\server\v18\Source\Source\_Common\Project.h
; File C:\IAGOS\server\v18\Source\Source\_aiinterface\aimonster.cpp
; File C:\IAGOS\server\v18\Source\Source\_Common\Mover.h
; File C:\IAGOS\server\v18\Source\Source\_Common\Project.h
; File C:\IAGOS\server\v18\Source\Source\_aiinterface\aimonster.cpp
; File C:\IAGOS\server\v18\Source\Source\_Common\Project.h
; File C:\IAGOS\server\v18\Source\Source\_aiinterface\aimonster.cpp
;	COMDAT ?GetAtkItemId@CAIMonster@@IAEKK@Z
_TEXT	SEGMENT
_dwAtkMethod$ = 8					; size = 4
?GetAtkItemId@CAIMonster@@IAEKK@Z PROC			; CAIMonster::GetAtkItemId, COMDAT
; _this$ = ecx

; 1257 : {

  00000	55		 push	 ebp
  00001	8b ec		 mov	 ebp, esp

; 1258 : 	CMover* pMover = GetMover();
; 1259 : 	switch( dwAtkMethod )

  00003	8b 45 08	 mov	 eax, DWORD PTR _dwAtkMethod$[ebp]
  00006	8b 49 30	 mov	 ecx, DWORD PTR [ecx+48]
  00009	83 e8 01	 sub	 eax, 1
  0000c	0f 84 a8 00 00
	00		 je	 $LN4@GetAtkItem
  00012	83 e8 01	 sub	 eax, 1
  00015	74 57		 je	 SHORT $LN5@GetAtkItem
  00017	83 e8 01	 sub	 eax, 1
  0001a	74 06		 je	 SHORT $LN6@GetAtkItem

; 1267 : 	}
; 1268 : 	return 0;

  0001c	33 c0		 xor	 eax, eax

; 1269 : }

  0001e	5d		 pop	 ebp
  0001f	c2 04 00	 ret	 4
$LN6@GetAtkItem:
; File C:\IAGOS\server\v18\Source\Source\_Common\Mover.h

; 1020 : 	MoverProp*		GetProp() { return prj.GetMoverProp( m_dwIndex ); }	// АДУМРЧ ЧСЗЮЦлЦМ ОђБт 	

  00022	8b 81 74 01 00
	00		 mov	 eax, DWORD PTR [ecx+372]
; File C:\IAGOS\server\v18\Source\Source\_Common\Project.h

; 1406 : 	VERIFY_RANGE( nIndex, 0, m_nMoverPropSize, "GetMoverProp range_error", NULL );

  00028	8b 0d b4 01 00
	00		 mov	 ecx, DWORD PTR ?prj@@3VCProject@@A+436
  0002e	85 c0		 test	 eax, eax
  00030	78 1a		 js	 SHORT $LN37@GetAtkItem
  00032	3b c1		 cmp	 eax, ecx
  00034	7d 16		 jge	 SHORT $LN37@GetAtkItem

; 1407 : 	return m_pPropMover + nIndex;

  00036	69 c0 90 06 00
	00		 imul	 eax, eax, 1680
  0003c	03 05 b8 01 00
	00		 add	 eax, DWORD PTR ?prj@@3VCProject@@A+440
; File C:\IAGOS\server\v18\Source\Source\_aiinterface\aimonster.cpp

; 1266 : 		return pMover->GetProp()->dwAtk3;

  00042	8b 80 b8 00 00
	00		 mov	 eax, DWORD PTR [eax+184]

; 1269 : }

  00048	5d		 pop	 ebp
  00049	c2 04 00	 ret	 4
$LN37@GetAtkItem:
; File C:\IAGOS\server\v18\Source\Source\_Common\Project.h

; 579  : 	LPCTSTR szErr = Error( _T( "%s min:%d, max:%d, index:%d" ), szMsg, nMin, nMax, nIndex ); 

  0004c	50		 push	 eax
  0004d	51		 push	 ecx
  0004e	6a 00		 push	 0
  00050	68 00 00 00 00	 push	 OFFSET ??_C@_0BJ@GKPOBPPI@GetMoverProp?5range_error@
  00055	68 00 00 00 00	 push	 OFFSET ??_C@_0BM@HMFGHCP@?$CFs?5min?3?$CFd?0?5max?3?$CFd?0?5index?3?$CFd@
  0005a	e8 00 00 00 00	 call	 ?Error@@YAPBDPBDZZ	; Error
  0005f	83 c4 14	 add	 esp, 20			; 00000014H

; 1406 : 	VERIFY_RANGE( nIndex, 0, m_nMoverPropSize, "GetMoverProp range_error", NULL );

  00062	33 c0		 xor	 eax, eax
; File C:\IAGOS\server\v18\Source\Source\_aiinterface\aimonster.cpp

; 1266 : 		return pMover->GetProp()->dwAtk3;

  00064	8b 80 b8 00 00
	00		 mov	 eax, DWORD PTR [eax+184]

; 1269 : }

  0006a	5d		 pop	 ebp
  0006b	c2 04 00	 ret	 4
$LN5@GetAtkItem:
; File C:\IAGOS\server\v18\Source\Source\_Common\Mover.h

; 1020 : 	MoverProp*		GetProp() { return prj.GetMoverProp( m_dwIndex ); }	// АДУМРЧ ЧСЗЮЦлЦМ ОђБт 	

  0006e	8b 81 74 01 00
	00		 mov	 eax, DWORD PTR [ecx+372]
; File C:\IAGOS\server\v18\Source\Source\_Common\Project.h

; 1406 : 	VERIFY_RANGE( nIndex, 0, m_nMoverPropSize, "GetMoverProp range_error", NULL );

  00074	8b 0d b4 01 00
	00		 mov	 ecx, DWORD PTR ?prj@@3VCProject@@A+436
  0007a	85 c0		 test	 eax, eax
  0007c	78 1a		 js	 SHORT $LN26@GetAtkItem
  0007e	3b c1		 cmp	 eax, ecx
  00080	7d 16		 jge	 SHORT $LN26@GetAtkItem

; 1407 : 	return m_pPropMover + nIndex;

  00082	69 c0 90 06 00
	00		 imul	 eax, eax, 1680
  00088	03 05 b8 01 00
	00		 add	 eax, DWORD PTR ?prj@@3VCProject@@A+440
; File C:\IAGOS\server\v18\Source\Source\_aiinterface\aimonster.cpp

; 1264 : 		return pMover->GetProp()->dwAtk2;

  0008e	8b 80 b4 00 00
	00		 mov	 eax, DWORD PTR [eax+180]

; 1269 : }

  00094	5d		 pop	 ebp
  00095	c2 04 00	 ret	 4
$LN26@GetAtkItem:
; File C:\IAGOS\server\v18\Source\Source\_Common\Project.h

; 579  : 	LPCTSTR szErr = Error( _T( "%s min:%d, max:%d, index:%d" ), szMsg, nMin, nMax, nIndex ); 

  00098	50		 push	 eax
  00099	51		 push	 ecx
  0009a	6a 00		 push	 0
  0009c	68 00 00 00 00	 push	 OFFSET ??_C@_0BJ@GKPOBPPI@GetMoverProp?5range_error@
  000a1	68 00 00 00 00	 push	 OFFSET ??_C@_0BM@HMFGHCP@?$CFs?5min?3?$CFd?0?5max?3?$CFd?0?5index?3?$CFd@
  000a6	e8 00 00 00 00	 call	 ?Error@@YAPBDPBDZZ	; Error
  000ab	83 c4 14	 add	 esp, 20			; 00000014H

; 1406 : 	VERIFY_RANGE( nIndex, 0, m_nMoverPropSize, "GetMoverProp range_error", NULL );

  000ae	33 c0		 xor	 eax, eax
; File C:\IAGOS\server\v18\Source\Source\_aiinterface\aimonster.cpp

; 1264 : 		return pMover->GetProp()->dwAtk2;

  000b0	8b 80 b4 00 00
	00		 mov	 eax, DWORD PTR [eax+180]

; 1269 : }

  000b6	5d		 pop	 ebp
  000b7	c2 04 00	 ret	 4
$LN4@GetAtkItem:
; File C:\IAGOS\server\v18\Source\Source\_Common\Mover.h

; 1020 : 	MoverProp*		GetProp() { return prj.GetMoverProp( m_dwIndex ); }	// АДУМРЧ ЧСЗЮЦлЦМ ОђБт 	

  000ba	8b 81 74 01 00
	00		 mov	 eax, DWORD PTR [ecx+372]
; File C:\IAGOS\server\v18\Source\Source\_Common\Project.h

; 1406 : 	VERIFY_RANGE( nIndex, 0, m_nMoverPropSize, "GetMoverProp range_error", NULL );

  000c0	8b 0d b4 01 00
	00		 mov	 ecx, DWORD PTR ?prj@@3VCProject@@A+436
  000c6	85 c0		 test	 eax, eax
  000c8	78 1a		 js	 SHORT $LN15@GetAtkItem
  000ca	3b c1		 cmp	 eax, ecx
  000cc	7d 16		 jge	 SHORT $LN15@GetAtkItem

; 1407 : 	return m_pPropMover + nIndex;

  000ce	69 c0 90 06 00
	00		 imul	 eax, eax, 1680
  000d4	03 05 b8 01 00
	00		 add	 eax, DWORD PTR ?prj@@3VCProject@@A+440
; File C:\IAGOS\server\v18\Source\Source\_aiinterface\aimonster.cpp

; 1262 : 		return pMover->GetProp()->dwAtk1;

  000da	8b 80 b0 00 00
	00		 mov	 eax, DWORD PTR [eax+176]

; 1269 : }

  000e0	5d		 pop	 ebp
  000e1	c2 04 00	 ret	 4
$LN15@GetAtkItem:
; File C:\IAGOS\server\v18\Source\Source\_Common\Project.h

; 579  : 	LPCTSTR szErr = Error( _T( "%s min:%d, max:%d, index:%d" ), szMsg, nMin, nMax, nIndex ); 

  000e4	50		 push	 eax
  000e5	51		 push	 ecx
  000e6	6a 00		 push	 0
  000e8	68 00 00 00 00	 push	 OFFSET ??_C@_0BJ@GKPOBPPI@GetMoverProp?5range_error@
  000ed	68 00 00 00 00	 push	 OFFSET ??_C@_0BM@HMFGHCP@?$CFs?5min?3?$CFd?0?5max?3?$CFd?0?5index?3?$CFd@
  000f2	e8 00 00 00 00	 call	 ?Error@@YAPBDPBDZZ	; Error
  000f7	83 c4 14	 add	 esp, 20			; 00000014H

; 1406 : 	VERIFY_RANGE( nIndex, 0, m_nMoverPropSize, "GetMoverProp range_error", NULL );

  000fa	33 c0		 xor	 eax, eax
; File C:\IAGOS\server\v18\Source\Source\_aiinterface\aimonster.cpp

; 1262 : 		return pMover->GetProp()->dwAtk1;

  000fc	8b 80 b0 00 00
	00		 mov	 eax, DWORD PTR [eax+176]

; 1269 : }

  00102	5d		 pop	 ebp
  00103	c2 04 00	 ret	 4
?GetAtkItemId@CAIMonster@@IAEKK@Z ENDP			; CAIMonster::GetAtkItemId
_TEXT	ENDS
; Function compile flags: /Ogtp
; File C:\IAGOS\server\v18\Source\Source\_aiinterface\aimonster.cpp
; File C:\IAGOS\server\v18\Source\Source\_Common\Project.h
; File C:\IAGOS\server\v18\Source\Source\_Common\data.h
; File C:\IAGOS\server\v18\Source\Source\_aiinterface\aimonster.cpp
; File C:\IAGOS\server\v18\Source\Source\_Common\Project.h
; File C:\IAGOS\server\v18\Source\Source\_aiinterface\aimonster.cpp
;	COMDAT ?GetAtkProp@CAIMonster@@IAEPAUItemProp@@K@Z
_TEXT	SEGMENT
_dwAtkMethod$ = 8					; size = 4
?GetAtkProp@CAIMonster@@IAEPAUItemProp@@K@Z PROC	; CAIMonster::GetAtkProp, COMDAT
; _this$ = ecx

; 1252 : {

  00000	55		 push	 ebp
  00001	8b ec		 mov	 ebp, esp

; 1253 : 	return prj.GetItemProp( GetAtkItemId( dwAtkMethod ) );

  00003	ff 75 08	 push	 DWORD PTR _dwAtkMethod$[ebp]
  00006	e8 00 00 00 00	 call	 ?GetAtkItemId@CAIMonster@@IAEKK@Z ; CAIMonster::GetAtkItemId
  0000b	8b c8		 mov	 ecx, eax
; File C:\IAGOS\server\v18\Source\Source\_Common\Project.h

; 1389 : 	VERIFY_RANGE_ASSERT( nIndex, 0, m_aPropItem.GetSize(), "GetItemProp range_error", NULL );

  0000d	a1 40 02 00 00	 mov	 eax, DWORD PTR ?prj@@3VCProject@@A+576
  00012	85 c9		 test	 ecx, ecx
  00014	78 12		 js	 SHORT $LN8@GetAtkProp
  00016	3b c8		 cmp	 ecx, eax
  00018	7d 0e		 jge	 SHORT $LN8@GetAtkProp
; File C:\IAGOS\server\v18\Source\Source\_Common\data.h

; 270  : 	if( dwIndex >= (DWORD)m_nMaxIndex )

  0001a	73 22		 jae	 SHORT $LN15@GetAtkProp

; 271  : 		return NULL;
; 272  : 	return (T*) m_apOffset[ dwIndex ];

  0001c	a1 30 02 00 00	 mov	 eax, DWORD PTR ?prj@@3VCProject@@A+560
  00021	8b 04 88	 mov	 eax, DWORD PTR [eax+ecx*4]
; File C:\IAGOS\server\v18\Source\Source\_aiinterface\aimonster.cpp

; 1254 : }

  00024	5d		 pop	 ebp
  00025	c2 04 00	 ret	 4
$LN8@GetAtkProp:
; File C:\IAGOS\server\v18\Source\Source\_Common\Project.h

; 579  : 	LPCTSTR szErr = Error( _T( "%s min:%d, max:%d, index:%d" ), szMsg, nMin, nMax, nIndex ); 

  00028	51		 push	 ecx
  00029	50		 push	 eax
  0002a	6a 00		 push	 0
  0002c	68 00 00 00 00	 push	 OFFSET ??_C@_0BI@BEIFNGEL@GetItemProp?5range_error@
  00031	68 00 00 00 00	 push	 OFFSET ??_C@_0BM@HMFGHCP@?$CFs?5min?3?$CFd?0?5max?3?$CFd?0?5index?3?$CFd@
  00036	e8 00 00 00 00	 call	 ?Error@@YAPBDPBDZZ	; Error
  0003b	83 c4 14	 add	 esp, 20			; 00000014H
$LN15@GetAtkProp:
; File C:\IAGOS\server\v18\Source\Source\_aiinterface\aimonster.cpp

; 1254 : }

  0003e	33 c0		 xor	 eax, eax
  00040	5d		 pop	 ebp
  00041	c2 04 00	 ret	 4
?GetAtkProp@CAIMonster@@IAEPAUItemProp@@K@Z ENDP	; CAIMonster::GetAtkProp
_TEXT	ENDS
; Function compile flags: /Ogtp
; File C:\IAGOS\server\v18\Source\Source\_aiinterface\aimonster.cpp
;	COMDAT ?GetAtkRange@CAIMonster@@IAEKK@Z
_TEXT	SEGMENT
_dwAtkMethod$ = 8					; size = 4
?GetAtkRange@CAIMonster@@IAEKK@Z PROC			; CAIMonster::GetAtkRange, COMDAT
; _this$ = ecx

; 1240 : {

  00000	55		 push	 ebp
  00001	8b ec		 mov	 ebp, esp

; 1241 : 	ItemProp* pItemProp = GetAtkProp( dwAtkMethod );

  00003	ff 75 08	 push	 DWORD PTR _dwAtkMethod$[ebp]
  00006	e8 00 00 00 00	 call	 ?GetAtkProp@CAIMonster@@IAEPAUItemProp@@K@Z ; CAIMonster::GetAtkProp

; 1242 : #ifdef _DEBUG
; 1243 : 	if( pItemProp == NULL )
; 1244 : 	{
; 1245 : 		Error( "CAIMonster::GetAtkRange : ItemProp->dwAtk%dРЬ NULLРЬДй. (%s)", dwAtkMethod, GetMover()->GetName() );
; 1246 : 	}
; 1247 : #endif
; 1248 : 	return pItemProp->dwAttackRange;

  0000b	8b 80 38 01 00
	00		 mov	 eax, DWORD PTR [eax+312]

; 1249 : }

  00011	5d		 pop	 ebp
  00012	c2 04 00	 ret	 4
?GetAtkRange@CAIMonster@@IAEKK@Z ENDP			; CAIMonster::GetAtkRange
_TEXT	ENDS
; Function compile flags: /Ogtp
; File C:\IAGOS\server\v18\Source\Source\_aiinterface\aimonster.cpp
; File C:\IAGOS\server\v18\Source\Source\_Common\Project.h
; File C:\IAGOS\server\v18\Source\Source\_Common\Mover.h
; File C:\IAGOS\server\v18\Source\Source\_Common\Project.h
; File C:\IAGOS\server\v18\Source\Source\_Common\xUtil.h
; File C:\IAGOS\server\v18\Source\Source\_aiinterface\aimonster.cpp
; File C:\IAGOS\server\v18\Source\Source\_Common\xUtil.h
; File C:\IAGOS\server\v18\Source\Source\_aiinterface\aimonster.cpp
; File C:\IAGOS\server\v18\Source\Source\_Common\xUtil.h
; File C:\IAGOS\server\v18\Source\Source\_aiinterface\aimonster.cpp
;	COMDAT ?GetAtkMethod_Far@CAIMonster@@IAEKXZ
_TEXT	SEGMENT
?GetAtkMethod_Far@CAIMonster@@IAEKXZ PROC		; CAIMonster::GetAtkMethod_Far, COMDAT
; _this$ = ecx

; 1175 : {

  00000	56		 push	 esi
  00001	57		 push	 edi

; 1176 : 	CMover* pMover = GetMover();

  00002	8b 79 30	 mov	 edi, DWORD PTR [ecx+48]
; File C:\IAGOS\server\v18\Source\Source\_Common\Project.h

; 1406 : 	VERIFY_RANGE( nIndex, 0, m_nMoverPropSize, "GetMoverProp range_error", NULL );

  00005	8b 0d b4 01 00
	00		 mov	 ecx, DWORD PTR ?prj@@3VCProject@@A+436
; File C:\IAGOS\server\v18\Source\Source\_Common\Mover.h

; 1020 : 	MoverProp*		GetProp() { return prj.GetMoverProp( m_dwIndex ); }	// АДУМРЧ ЧСЗЮЦлЦМ ОђБт 	

  0000b	8b 87 74 01 00
	00		 mov	 eax, DWORD PTR [edi+372]
; File C:\IAGOS\server\v18\Source\Source\_Common\Project.h

; 1406 : 	VERIFY_RANGE( nIndex, 0, m_nMoverPropSize, "GetMoverProp range_error", NULL );

  00011	85 c0		 test	 eax, eax
  00013	78 04		 js	 SHORT $LN20@GetAtkMeth
  00015	3b c1		 cmp	 eax, ecx
  00017	7c 16		 jl	 SHORT $LN15@GetAtkMeth
$LN20@GetAtkMeth:

; 579  : 	LPCTSTR szErr = Error( _T( "%s min:%d, max:%d, index:%d" ), szMsg, nMin, nMax, nIndex ); 

  00019	50		 push	 eax
  0001a	51		 push	 ecx
  0001b	6a 00		 push	 0
  0001d	68 00 00 00 00	 push	 OFFSET ??_C@_0BJ@GKPOBPPI@GetMoverProp?5range_error@
  00022	68 00 00 00 00	 push	 OFFSET ??_C@_0BM@HMFGHCP@?$CFs?5min?3?$CFd?0?5max?3?$CFd?0?5index?3?$CFd@
  00027	e8 00 00 00 00	 call	 ?Error@@YAPBDPBDZZ	; Error
  0002c	83 c4 14	 add	 esp, 20			; 00000014H
$LN15@GetAtkMeth:
; File C:\IAGOS\server\v18\Source\Source\_Common\xUtil.h

; 16   : 	g_next = g_next * 1103515245 + 12345;// + nRandomSeed[ i++ ];

  0002f	69 35 00 00 00
	00 6d 4e c6 41	 imul	 esi, DWORD PTR ?g_next@@3KA, 1103515245 ; g_next

; 22   : 	return  xRand() % num;

  00039	b8 1f 85 eb 51	 mov	 eax, 1374389535		; 51eb851fH
; File C:\IAGOS\server\v18\Source\Source\_aiinterface\aimonster.cpp

; 1181 : 	int nDeathblow = (int)( pMover->GetHitPointPercent() / 4.5f );

  0003e	6a 64		 push	 100			; 00000064H
  00040	8b cf		 mov	 ecx, edi
; File C:\IAGOS\server\v18\Source\Source\_Common\xUtil.h

; 16   : 	g_next = g_next * 1103515245 + 12345;// + nRandomSeed[ i++ ];

  00042	81 c6 39 30 00
	00		 add	 esi, 12345		; 00003039H

; 22   : 	return  xRand() % num;

  00048	f7 e6		 mul	 esi

; 16   : 	g_next = g_next * 1103515245 + 12345;// + nRandomSeed[ i++ ];

  0004a	89 35 00 00 00
	00		 mov	 DWORD PTR ?g_next@@3KA, esi ; g_next

; 22   : 	return  xRand() % num;

  00050	c1 ea 05	 shr	 edx, 5
  00053	6b c2 64	 imul	 eax, edx, 100
  00056	2b f0		 sub	 esi, eax
; File C:\IAGOS\server\v18\Source\Source\_aiinterface\aimonster.cpp

; 1181 : 	int nDeathblow = (int)( pMover->GetHitPointPercent() / 4.5f );

  00058	e8 00 00 00 00	 call	 ?GetHitPointPercent@CMover@@QAEHH@Z ; CMover::GetHitPointPercent
  0005d	66 0f 6e c0	 movd	 xmm0, eax
  00061	0f 5b c0	 cvtdq2ps xmm0, xmm0
  00064	f3 0f 5e 05 00
	00 00 00	 divss	 xmm0, DWORD PTR __real@40900000
  0006c	f3 0f 2c c8	 cvttss2si ecx, xmm0

; 1182 : 	if( nDeathblow )

  00070	85 c9		 test	 ecx, ecx
  00072	74 22		 je	 SHORT $LN5@GetAtkMeth
; File C:\IAGOS\server\v18\Source\Source\_Common\xUtil.h

; 16   : 	g_next = g_next * 1103515245 + 12345;// + nRandomSeed[ i++ ];

  00074	69 05 00 00 00
	00 6d 4e c6 41	 imul	 eax, DWORD PTR ?g_next@@3KA, 1103515245 ; g_next
  0007e	33 d2		 xor	 edx, edx
  00080	05 39 30 00 00	 add	 eax, 12345		; 00003039H
  00085	a3 00 00 00 00	 mov	 DWORD PTR ?g_next@@3KA, eax ; g_next
  0008a	f7 f1		 div	 ecx
; File C:\IAGOS\server\v18\Source\Source\_aiinterface\aimonster.cpp

; 1184 : 		if( !xRandom( nDeathblow ) )

  0008c	85 d2		 test	 edx, edx
  0008e	75 06		 jne	 SHORT $LN5@GetAtkMeth

; 1185 : 			return 3;

  00090	5f		 pop	 edi
  00091	8d 42 03	 lea	 eax, DWORD PTR [edx+3]

; 1202 : 			return 1;
; 1203 : 		return 2;
; 1204 : 	}
; 1205 : 	return 1;
; 1206 : }

  00094	5e		 pop	 esi
  00095	c3		 ret	 0
$LN5@GetAtkMeth:

; 1186 : 	}
; 1187 : 
; 1188 : 	switch( pMover->m_dwBelligerence )

  00096	8b 87 64 06 00
	00		 mov	 eax, DWORD PTR [edi+1636]
  0009c	83 e8 0b	 sub	 eax, 11			; 0000000bH
  0009f	74 24		 je	 SHORT $LN6@GetAtkMeth
  000a1	83 e8 01	 sub	 eax, 1
  000a4	74 0a		 je	 SHORT $LN8@GetAtkMeth
  000a6	83 e8 01	 sub	 eax, 1
  000a9	75 12		 jne	 SHORT $LN32@GetAtkMeth

; 1197 : 			return 1;
; 1198 : 		return 2;
; 1199 : 		break;
; 1200 : 	case BELLI_RANGE:
; 1201 : 		if( dwRandom < 20 )

  000ab	83 fe 14	 cmp	 esi, 20			; 00000014H
  000ae	eb 03		 jmp	 SHORT $LN41@GetAtkMeth
$LN8@GetAtkMeth:

; 1194 : 		break;
; 1195 : 	case BELLI_MELEE:
; 1196 : 		if( dwRandom < 30 )

  000b0	83 fe 1e	 cmp	 esi, 30			; 0000001eH
$LN41@GetAtkMeth:

; 1192 : 			return 1;
; 1193 : 		return 2;

  000b3	72 08		 jb	 SHORT $LN32@GetAtkMeth
  000b5	5f		 pop	 edi
  000b6	b8 02 00 00 00	 mov	 eax, 2

; 1202 : 			return 1;
; 1203 : 		return 2;
; 1204 : 	}
; 1205 : 	return 1;
; 1206 : }

  000bb	5e		 pop	 esi
  000bc	c3		 ret	 0
$LN32@GetAtkMeth:
  000bd	5f		 pop	 edi
  000be	b8 01 00 00 00	 mov	 eax, 1
  000c3	5e		 pop	 esi
  000c4	c3		 ret	 0
$LN6@GetAtkMeth:

; 1189 : 	{
; 1190 : 	case BELLI_MELEE2X:
; 1191 : 		if( dwRandom < 50 )

  000c5	83 fe 32	 cmp	 esi, 50			; 00000032H
  000c8	5f		 pop	 edi
  000c9	1b c0		 sbb	 eax, eax
  000cb	83 c0 02	 add	 eax, 2

; 1202 : 			return 1;
; 1203 : 		return 2;
; 1204 : 	}
; 1205 : 	return 1;
; 1206 : }

  000ce	5e		 pop	 esi
  000cf	c3		 ret	 0
?GetAtkMethod_Far@CAIMonster@@IAEKXZ ENDP		; CAIMonster::GetAtkMethod_Far
_TEXT	ENDS
; Function compile flags: /Ogtp
; File C:\IAGOS\server\v18\Source\Source\_aiinterface\aimonster.cpp
; File C:\IAGOS\server\v18\Source\Source\_Common\Project.h
; File C:\IAGOS\server\v18\Source\Source\_Common\Mover.h
; File C:\IAGOS\server\v18\Source\Source\_Common\Project.h
; File C:\IAGOS\server\v18\Source\Source\_Common\xUtil.h
; File C:\IAGOS\server\v18\Source\Source\_aiinterface\aimonster.cpp
; File C:\IAGOS\server\v18\Source\Source\_Common\xUtil.h
; File C:\IAGOS\server\v18\Source\Source\_aiinterface\aimonster.cpp
; File C:\IAGOS\server\v18\Source\Source\_Common\xUtil.h
; File C:\IAGOS\server\v18\Source\Source\_aiinterface\aimonster.cpp
;	COMDAT ?GetAtkMethod_Near@CAIMonster@@IAEKXZ
_TEXT	SEGMENT
?GetAtkMethod_Near@CAIMonster@@IAEKXZ PROC		; CAIMonster::GetAtkMethod_Near, COMDAT
; _this$ = ecx

; 1208 : {

  00000	56		 push	 esi
  00001	57		 push	 edi

; 1209 : 	CMover* pMover = GetMover();

  00002	8b 79 30	 mov	 edi, DWORD PTR [ecx+48]
; File C:\IAGOS\server\v18\Source\Source\_Common\Project.h

; 1406 : 	VERIFY_RANGE( nIndex, 0, m_nMoverPropSize, "GetMoverProp range_error", NULL );

  00005	8b 0d b4 01 00
	00		 mov	 ecx, DWORD PTR ?prj@@3VCProject@@A+436
; File C:\IAGOS\server\v18\Source\Source\_Common\Mover.h

; 1020 : 	MoverProp*		GetProp() { return prj.GetMoverProp( m_dwIndex ); }	// АДУМРЧ ЧСЗЮЦлЦМ ОђБт 	

  0000b	8b 87 74 01 00
	00		 mov	 eax, DWORD PTR [edi+372]
; File C:\IAGOS\server\v18\Source\Source\_Common\Project.h

; 1406 : 	VERIFY_RANGE( nIndex, 0, m_nMoverPropSize, "GetMoverProp range_error", NULL );

  00011	85 c0		 test	 eax, eax
  00013	78 04		 js	 SHORT $LN20@GetAtkMeth
  00015	3b c1		 cmp	 eax, ecx
  00017	7c 16		 jl	 SHORT $LN15@GetAtkMeth
$LN20@GetAtkMeth:

; 579  : 	LPCTSTR szErr = Error( _T( "%s min:%d, max:%d, index:%d" ), szMsg, nMin, nMax, nIndex ); 

  00019	50		 push	 eax
  0001a	51		 push	 ecx
  0001b	6a 00		 push	 0
  0001d	68 00 00 00 00	 push	 OFFSET ??_C@_0BJ@GKPOBPPI@GetMoverProp?5range_error@
  00022	68 00 00 00 00	 push	 OFFSET ??_C@_0BM@HMFGHCP@?$CFs?5min?3?$CFd?0?5max?3?$CFd?0?5index?3?$CFd@
  00027	e8 00 00 00 00	 call	 ?Error@@YAPBDPBDZZ	; Error
  0002c	83 c4 14	 add	 esp, 20			; 00000014H
$LN15@GetAtkMeth:
; File C:\IAGOS\server\v18\Source\Source\_Common\xUtil.h

; 16   : 	g_next = g_next * 1103515245 + 12345;// + nRandomSeed[ i++ ];

  0002f	69 35 00 00 00
	00 6d 4e c6 41	 imul	 esi, DWORD PTR ?g_next@@3KA, 1103515245 ; g_next

; 22   : 	return  xRand() % num;

  00039	b8 1f 85 eb 51	 mov	 eax, 1374389535		; 51eb851fH
; File C:\IAGOS\server\v18\Source\Source\_aiinterface\aimonster.cpp

; 1212 : 	int nDeathblow = (int)( pMover->GetHitPointPercent() / 4.5f );

  0003e	6a 64		 push	 100			; 00000064H
  00040	8b cf		 mov	 ecx, edi
; File C:\IAGOS\server\v18\Source\Source\_Common\xUtil.h

; 16   : 	g_next = g_next * 1103515245 + 12345;// + nRandomSeed[ i++ ];

  00042	81 c6 39 30 00
	00		 add	 esi, 12345		; 00003039H

; 22   : 	return  xRand() % num;

  00048	f7 e6		 mul	 esi

; 16   : 	g_next = g_next * 1103515245 + 12345;// + nRandomSeed[ i++ ];

  0004a	89 35 00 00 00
	00		 mov	 DWORD PTR ?g_next@@3KA, esi ; g_next

; 22   : 	return  xRand() % num;

  00050	c1 ea 05	 shr	 edx, 5
  00053	6b c2 64	 imul	 eax, edx, 100
  00056	2b f0		 sub	 esi, eax
; File C:\IAGOS\server\v18\Source\Source\_aiinterface\aimonster.cpp

; 1212 : 	int nDeathblow = (int)( pMover->GetHitPointPercent() / 4.5f );

  00058	e8 00 00 00 00	 call	 ?GetHitPointPercent@CMover@@QAEHH@Z ; CMover::GetHitPointPercent
  0005d	66 0f 6e c0	 movd	 xmm0, eax
  00061	0f 5b c0	 cvtdq2ps xmm0, xmm0
  00064	f3 0f 5e 05 00
	00 00 00	 divss	 xmm0, DWORD PTR __real@40900000
  0006c	f3 0f 2c c8	 cvttss2si ecx, xmm0

; 1213 : 	if( nDeathblow )

  00070	85 c9		 test	 ecx, ecx
  00072	74 22		 je	 SHORT $LN5@GetAtkMeth
; File C:\IAGOS\server\v18\Source\Source\_Common\xUtil.h

; 16   : 	g_next = g_next * 1103515245 + 12345;// + nRandomSeed[ i++ ];

  00074	69 05 00 00 00
	00 6d 4e c6 41	 imul	 eax, DWORD PTR ?g_next@@3KA, 1103515245 ; g_next
  0007e	33 d2		 xor	 edx, edx
  00080	05 39 30 00 00	 add	 eax, 12345		; 00003039H
  00085	a3 00 00 00 00	 mov	 DWORD PTR ?g_next@@3KA, eax ; g_next
  0008a	f7 f1		 div	 ecx
; File C:\IAGOS\server\v18\Source\Source\_aiinterface\aimonster.cpp

; 1215 : 		if( !xRandom( nDeathblow ) )

  0008c	85 d2		 test	 edx, edx
  0008e	75 06		 jne	 SHORT $LN5@GetAtkMeth

; 1216 : 			return 3;

  00090	5f		 pop	 edi
  00091	8d 42 03	 lea	 eax, DWORD PTR [edx+3]

; 1233 : 			return 1;
; 1234 : 		return 2;
; 1235 : 		break;
; 1236 : 	}
; 1237 : 	return 1;
; 1238 : }

  00094	5e		 pop	 esi
  00095	c3		 ret	 0
$LN5@GetAtkMeth:

; 1217 : 	}
; 1218 : 
; 1219 : 	switch( pMover->m_dwBelligerence )

  00096	8b 87 64 06 00
	00		 mov	 eax, DWORD PTR [edi+1636]
  0009c	83 e8 0b	 sub	 eax, 11			; 0000000bH
  0009f	74 24		 je	 SHORT $LN6@GetAtkMeth
  000a1	83 e8 01	 sub	 eax, 1
  000a4	74 0a		 je	 SHORT $LN8@GetAtkMeth
  000a6	83 e8 01	 sub	 eax, 1
  000a9	75 12		 jne	 SHORT $LN32@GetAtkMeth

; 1228 : 			return 1;
; 1229 : 		return 2;
; 1230 : 		break;
; 1231 : 	case BELLI_RANGE:
; 1232 : 		if( dwRandom < 50 )

  000ab	83 fe 32	 cmp	 esi, 50			; 00000032H
  000ae	eb 03		 jmp	 SHORT $LN41@GetAtkMeth
$LN8@GetAtkMeth:

; 1225 : 		break;
; 1226 : 	case BELLI_MELEE:
; 1227 : 		if( dwRandom < 80 )

  000b0	83 fe 50	 cmp	 esi, 80			; 00000050H
$LN41@GetAtkMeth:

; 1223 : 			return 1;
; 1224 : 		return 2;

  000b3	72 08		 jb	 SHORT $LN32@GetAtkMeth
  000b5	5f		 pop	 edi
  000b6	b8 02 00 00 00	 mov	 eax, 2

; 1233 : 			return 1;
; 1234 : 		return 2;
; 1235 : 		break;
; 1236 : 	}
; 1237 : 	return 1;
; 1238 : }

  000bb	5e		 pop	 esi
  000bc	c3		 ret	 0
$LN32@GetAtkMeth:
  000bd	5f		 pop	 edi
  000be	b8 01 00 00 00	 mov	 eax, 1
  000c3	5e		 pop	 esi
  000c4	c3		 ret	 0
$LN6@GetAtkMeth:

; 1220 : 	{
; 1221 : 	case BELLI_MELEE2X:
; 1222 : 		if( dwRandom < 60 )

  000c5	83 fe 3c	 cmp	 esi, 60			; 0000003cH
  000c8	5f		 pop	 edi
  000c9	1b c0		 sbb	 eax, eax
  000cb	83 c0 02	 add	 eax, 2

; 1233 : 			return 1;
; 1234 : 		return 2;
; 1235 : 		break;
; 1236 : 	}
; 1237 : 	return 1;
; 1238 : }

  000ce	5e		 pop	 esi
  000cf	c3		 ret	 0
?GetAtkMethod_Near@CAIMonster@@IAEKXZ ENDP		; CAIMonster::GetAtkMethod_Near
_TEXT	ENDS
; Function compile flags: /Ogtp
;	COMDAT ??1_VECINFO@@QAE@XZ
_TEXT	SEGMENT
??1_VECINFO@@QAE@XZ PROC				; _VECINFO::~_VECINFO, COMDAT
; _this$ = ecx
  00000	c7 41 18 00 00
	00 00		 mov	 DWORD PTR [ecx+24], OFFSET ??_7CTimer@@6B@
  00007	c3		 ret	 0
??1_VECINFO@@QAE@XZ ENDP				; _VECINFO::~_VECINFO
_TEXT	ENDS
; Function compile flags: /Ogtp
; File C:\IAGOS\server\v18\Source\Source\_Common\Mover.h
;	COMDAT ?IsLive@CMover@@QAEHXZ
_TEXT	SEGMENT
?IsLive@CMover@@QAEHXZ PROC				; CMover::IsLive, COMDAT
; _this$ = ecx

; 1251 : 	BOOL			IsLive() { return m_pActMover->IsDie() == FALSE || m_nHitPoint > 0; }		// && ИІ  ||ЗЮ ЙйВхРН.  !=ИІ >ЗЮ ЙйВо

  00000	8b 81 38 02 00
	00		 mov	 eax, DWORD PTR [ecx+568]
  00006	f7 40 04 00 00
	00 08		 test	 DWORD PTR [eax+4], 134217728 ; 08000000H
  0000d	74 0c		 je	 SHORT $LN3@IsLive
  0000f	83 b9 f8 05 00
	00 00		 cmp	 DWORD PTR [ecx+1528], 0
  00016	7f 03		 jg	 SHORT $LN3@IsLive
  00018	33 c0		 xor	 eax, eax
  0001a	c3		 ret	 0
$LN3@IsLive:
  0001b	b8 01 00 00 00	 mov	 eax, 1
  00020	c3		 ret	 0
?IsLive@CMover@@QAEHXZ ENDP				; CMover::IsLive
_TEXT	ENDS
; Function compile flags: /Ogtp
; File C:\IAGOS\server\v18\Source\Source\_Common\Mover.h
;	COMDAT ?IsEmptyDest@CMover@@QAEHXZ
_TEXT	SEGMENT
?IsEmptyDest@CMover@@QAEHXZ PROC			; CMover::IsEmptyDest, COMDAT
; _this$ = ecx

; 1036 : 	BOOL			IsEmptyDestPos()	{ return m_vDestPos.x == 0.0f && m_vDestPos.z == 0.0f; }

  00000	f3 0f 10 81 5c
	02 00 00	 movss	 xmm0, DWORD PTR [ecx+604]
  00008	0f 57 c9	 xorps	 xmm1, xmm1
  0000b	0f 2e c1	 ucomiss xmm0, xmm1
  0000e	9f		 lahf
  0000f	f6 c4 44	 test	 ah, 68			; 00000044H
  00012	7a 20		 jp	 SHORT $LN3@IsEmptyDes
  00014	f3 0f 10 81 64
	02 00 00	 movss	 xmm0, DWORD PTR [ecx+612]
  0001c	0f 2e c1	 ucomiss xmm0, xmm1
  0001f	9f		 lahf
  00020	f6 c4 44	 test	 ah, 68			; 00000044H
  00023	7a 0f		 jp	 SHORT $LN3@IsEmptyDes

; 1035 : 	BOOL			IsEmptyDestObj()	{ return m_idDest == NULL_ID; }

  00025	83 b9 58 02 00
	00 ff		 cmp	 DWORD PTR [ecx+600], -1

; 1037 : 	BOOL			IsEmptyDest()		{ return IsEmptyDestPos() && IsEmptyDestObj(); }

  0002c	75 06		 jne	 SHORT $LN3@IsEmptyDes
  0002e	b8 01 00 00 00	 mov	 eax, 1
  00033	c3		 ret	 0
$LN3@IsEmptyDes:
  00034	33 c0		 xor	 eax, eax
  00036	c3		 ret	 0
?IsEmptyDest@CMover@@QAEHXZ ENDP			; CMover::IsEmptyDest
_TEXT	ENDS
; Function compile flags: /Ogtp
; File C:\IAGOS\server\v18\Source\Source\_Common\Mover.h
; File C:\IAGOS\server\v18\Source\Source\_Common\Project.h
; File C:\IAGOS\server\v18\Source\Source\_Common\Mover.h
; File C:\IAGOS\server\v18\Source\Source\_Common\Project.h
; File C:\IAGOS\server\v18\Source\Source\_Common\Mover.h
;	COMDAT ?GetPropA@CMover@@QAEPAUMoverProp@@XZ
_TEXT	SEGMENT
?GetPropA@CMover@@QAEPAUMoverProp@@XZ PROC		; CMover::GetPropA, COMDAT
; _this$ = ecx

; 1020 : 	MoverProp*		GetProp() { return prj.GetMoverProp( m_dwIndex ); }	// АДУМРЧ ЧСЗЮЦлЦМ ОђБт 	

  00000	8b 81 74 01 00
	00		 mov	 eax, DWORD PTR [ecx+372]
; File C:\IAGOS\server\v18\Source\Source\_Common\Project.h

; 1406 : 	VERIFY_RANGE( nIndex, 0, m_nMoverPropSize, "GetMoverProp range_error", NULL );

  00006	8b 0d b4 01 00
	00		 mov	 ecx, DWORD PTR ?prj@@3VCProject@@A+436
  0000c	85 c0		 test	 eax, eax
  0000e	78 11		 js	 SHORT $LN8@GetPropA
  00010	3b c1		 cmp	 eax, ecx
  00012	7d 0d		 jge	 SHORT $LN8@GetPropA

; 1407 : 	return m_pPropMover + nIndex;

  00014	69 c0 90 06 00
	00		 imul	 eax, eax, 1680
  0001a	03 05 b8 01 00
	00		 add	 eax, DWORD PTR ?prj@@3VCProject@@A+440
; File C:\IAGOS\server\v18\Source\Source\_Common\Mover.h

; 1020 : 	MoverProp*		GetProp() { return prj.GetMoverProp( m_dwIndex ); }	// АДУМРЧ ЧСЗЮЦлЦМ ОђБт 	

  00020	c3		 ret	 0
$LN8@GetPropA:
; File C:\IAGOS\server\v18\Source\Source\_Common\Project.h

; 579  : 	LPCTSTR szErr = Error( _T( "%s min:%d, max:%d, index:%d" ), szMsg, nMin, nMax, nIndex ); 

  00021	50		 push	 eax
  00022	51		 push	 ecx
  00023	6a 00		 push	 0
  00025	68 00 00 00 00	 push	 OFFSET ??_C@_0BJ@GKPOBPPI@GetMoverProp?5range_error@
  0002a	68 00 00 00 00	 push	 OFFSET ??_C@_0BM@HMFGHCP@?$CFs?5min?3?$CFd?0?5max?3?$CFd?0?5index?3?$CFd@
  0002f	e8 00 00 00 00	 call	 ?Error@@YAPBDPBDZZ	; Error
  00034	83 c4 14	 add	 esp, 20			; 00000014H
; File C:\IAGOS\server\v18\Source\Source\_Common\Mover.h

; 1020 : 	MoverProp*		GetProp() { return prj.GetMoverProp( m_dwIndex ); }	// АДУМРЧ ЧСЗЮЦлЦМ ОђБт 	

  00037	33 c0		 xor	 eax, eax
  00039	c3		 ret	 0
?GetPropA@CMover@@QAEPAUMoverProp@@XZ ENDP		; CMover::GetPropA
_TEXT	ENDS
; Function compile flags: /Ogtp
; File C:\IAGOS\server\v18\Source\Source\_Common\Item.h
; File C:\IAGOS\server\v18\Source\Source\_Common\Project.h
; File C:\IAGOS\server\v18\Source\Source\_Common\data.h
; File C:\IAGOS\server\v18\Source\Source\_Common\Item.h
; File C:\IAGOS\server\v18\Source\Source\_Common\Project.h
; File C:\IAGOS\server\v18\Source\Source\_Common\Item.h
;	COMDAT ?GetPropA@CItem@@QAEPAUItemProp@@XZ
_TEXT	SEGMENT
?GetPropA@CItem@@QAEPAUItemProp@@XZ PROC		; CItem::GetPropA, COMDAT
; _this$ = ecx

; 987  : 	ItemProp* GetProp() { return prj.GetItemProp( GetIndex() ); }

  00000	8b 89 74 01 00
	00		 mov	 ecx, DWORD PTR [ecx+372]
; File C:\IAGOS\server\v18\Source\Source\_Common\Project.h

; 1389 : 	VERIFY_RANGE_ASSERT( nIndex, 0, m_aPropItem.GetSize(), "GetItemProp range_error", NULL );

  00006	a1 40 02 00 00	 mov	 eax, DWORD PTR ?prj@@3VCProject@@A+576
  0000b	85 c9		 test	 ecx, ecx
  0000d	78 0f		 js	 SHORT $LN8@GetPropA
  0000f	3b c8		 cmp	 ecx, eax
  00011	7d 0b		 jge	 SHORT $LN8@GetPropA
; File C:\IAGOS\server\v18\Source\Source\_Common\data.h

; 270  : 	if( dwIndex >= (DWORD)m_nMaxIndex )

  00013	73 1f		 jae	 SHORT $LN15@GetPropA

; 271  : 		return NULL;
; 272  : 	return (T*) m_apOffset[ dwIndex ];

  00015	a1 30 02 00 00	 mov	 eax, DWORD PTR ?prj@@3VCProject@@A+560
  0001a	8b 04 88	 mov	 eax, DWORD PTR [eax+ecx*4]
; File C:\IAGOS\server\v18\Source\Source\_Common\Item.h

; 987  : 	ItemProp* GetProp() { return prj.GetItemProp( GetIndex() ); }

  0001d	c3		 ret	 0
$LN8@GetPropA:
; File C:\IAGOS\server\v18\Source\Source\_Common\Project.h

; 579  : 	LPCTSTR szErr = Error( _T( "%s min:%d, max:%d, index:%d" ), szMsg, nMin, nMax, nIndex ); 

  0001e	51		 push	 ecx
  0001f	50		 push	 eax
  00020	6a 00		 push	 0
  00022	68 00 00 00 00	 push	 OFFSET ??_C@_0BI@BEIFNGEL@GetItemProp?5range_error@
  00027	68 00 00 00 00	 push	 OFFSET ??_C@_0BM@HMFGHCP@?$CFs?5min?3?$CFd?0?5max?3?$CFd?0?5index?3?$CFd@
  0002c	e8 00 00 00 00	 call	 ?Error@@YAPBDPBDZZ	; Error
  00031	83 c4 14	 add	 esp, 20			; 00000014H
$LN15@GetPropA:
; File C:\IAGOS\server\v18\Source\Source\_Common\Item.h

; 987  : 	ItemProp* GetProp() { return prj.GetItemProp( GetIndex() ); }

  00034	33 c0		 xor	 eax, eax
  00036	c3		 ret	 0
?GetPropA@CItem@@QAEPAUItemProp@@XZ ENDP		; CItem::GetPropA
_TEXT	ENDS
; Function compile flags: /Ogtp
; File C:\IAGOS\server\v18\Source\Source\_Common\Project.h
;	COMDAT ?GetMoverProp@CProject@@QAEPAUMoverProp@@H@Z
_TEXT	SEGMENT
_nIndex$ = 8						; size = 4
?GetMoverProp@CProject@@QAEPAUMoverProp@@H@Z PROC	; CProject::GetMoverProp, COMDAT
; _this$ = ecx

; 1405 : { 

  00000	55		 push	 ebp
  00001	8b ec		 mov	 ebp, esp

; 1406 : 	VERIFY_RANGE( nIndex, 0, m_nMoverPropSize, "GetMoverProp range_error", NULL );

  00003	8b 55 08	 mov	 edx, DWORD PTR _nIndex$[ebp]
  00006	85 d2		 test	 edx, edx
  00008	78 18		 js	 SHORT $LN11@GetMoverPr
  0000a	3b 91 b4 01 00
	00		 cmp	 edx, DWORD PTR [ecx+436]
  00010	7d 10		 jge	 SHORT $LN11@GetMoverPr

; 1407 : 	return m_pPropMover + nIndex;

  00012	69 c2 90 06 00
	00		 imul	 eax, edx, 1680
  00018	03 81 b8 01 00
	00		 add	 eax, DWORD PTR [ecx+440]

; 1408 : }

  0001e	5d		 pop	 ebp
  0001f	c2 04 00	 ret	 4
$LN11@GetMoverPr:

; 579  : 	LPCTSTR szErr = Error( _T( "%s min:%d, max:%d, index:%d" ), szMsg, nMin, nMax, nIndex ); 

  00022	52		 push	 edx
  00023	ff b1 b4 01 00
	00		 push	 DWORD PTR [ecx+436]
  00029	6a 00		 push	 0
  0002b	68 00 00 00 00	 push	 OFFSET ??_C@_0BJ@GKPOBPPI@GetMoverProp?5range_error@
  00030	68 00 00 00 00	 push	 OFFSET ??_C@_0BM@HMFGHCP@?$CFs?5min?3?$CFd?0?5max?3?$CFd?0?5index?3?$CFd@
  00035	e8 00 00 00 00	 call	 ?Error@@YAPBDPBDZZ	; Error
  0003a	83 c4 14	 add	 esp, 20			; 00000014H

; 1406 : 	VERIFY_RANGE( nIndex, 0, m_nMoverPropSize, "GetMoverProp range_error", NULL );

  0003d	33 c0		 xor	 eax, eax

; 1408 : }

  0003f	5d		 pop	 ebp
  00040	c2 04 00	 ret	 4
?GetMoverProp@CProject@@QAEPAUMoverProp@@H@Z ENDP	; CProject::GetMoverProp
_TEXT	ENDS
; Function compile flags: /Ogtp
; File C:\Program Files\Microsoft Visual Studio\2022\Professional\VC\Tools\MSVC\14.44.35207\include\vector
;	COMDAT ?_Xlength@?$vector@KV?$allocator@K@std@@@std@@CAXXZ
_TEXT	SEGMENT
?_Xlength@?$vector@KV?$allocator@K@std@@@std@@CAXXZ PROC ; std::vector<unsigned long,std::allocator<unsigned long> >::_Xlength, COMDAT

; 2184 :         _Xlength_error("vector too long");

  00000	68 00 00 00 00	 push	 OFFSET ??_C@_0BA@FOIKENOD@vector?5too?5long@
  00005	e8 00 00 00 00	 call	 ?_Xlength_error@std@@YAXPBD@Z ; std::_Xlength_error
$LN3@Xlength:
  0000a	cc		 int	 3
?_Xlength@?$vector@KV?$allocator@K@std@@@std@@CAXXZ ENDP ; std::vector<unsigned long,std::allocator<unsigned long> >::_Xlength
_TEXT	ENDS
; Function compile flags: /Ogtp
; File C:\Program Files\Microsoft Visual Studio\2022\Professional\VC\Tools\MSVC\14.44.35207\include\vector
; File C:\Program Files\Microsoft Visual Studio\2022\Professional\VC\Tools\MSVC\14.44.35207\include\xmemory
; File C:\Program Files\Microsoft Visual Studio\2022\Professional\VC\Tools\MSVC\14.44.35207\include\vector
; File C:\Program Files\Microsoft Visual Studio\2022\Professional\VC\Tools\MSVC\14.44.35207\include\xmemory
; File C:\Program Files\Microsoft Visual Studio\2022\Professional\VC\Tools\MSVC\14.44.35207\include\vector
; File C:\Program Files\Microsoft Visual Studio\2022\Professional\VC\Tools\MSVC\14.44.35207\include\xmemory
; File C:\Program Files\Microsoft Visual Studio\2022\Professional\VC\Tools\MSVC\14.44.35207\include\vector
;	COMDAT ??1?$vector@KV?$allocator@K@std@@@std@@QAE@XZ
_TEXT	SEGMENT
??1?$vector@KV?$allocator@K@std@@@std@@QAE@XZ PROC	; std::vector<unsigned long,std::allocator<unsigned long> >::~vector<unsigned long,std::allocator<unsigned long> >, COMDAT
; _this$ = ecx

; 829  :     _CONSTEXPR20 ~vector() noexcept {

  00000	56		 push	 esi
  00001	8b f1		 mov	 esi, ecx

; 2090 :         if (_Myfirst) { // destroy and deallocate old array

  00003	8b 06		 mov	 eax, DWORD PTR [esi]
  00005	85 c0		 test	 eax, eax
  00007	74 40		 je	 SHORT $LN5@vector

; 2091 :             _STD _Destroy_range(_Myfirst, _Mylast, _Al);
; 2092 :             _ASAN_VECTOR_REMOVE;
; 2093 :             _Al.deallocate(_Myfirst, static_cast<size_type>(_Myend - _Myfirst));

  00009	8b 4e 08	 mov	 ecx, DWORD PTR [esi+8]
  0000c	2b c8		 sub	 ecx, eax
; File C:\Program Files\Microsoft Visual Studio\2022\Professional\VC\Tools\MSVC\14.44.35207\include\xmemory

; 985  :         _STD _Deallocate<_New_alignof<_Ty>>(_Ptr, sizeof(_Ty) * _Count);

  0000e	83 e1 fc	 and	 ecx, -4			; fffffffcH

; 284  :         if (_Bytes >= _Big_allocation_threshold) {

  00011	81 f9 00 10 00
	00		 cmp	 ecx, 4096		; 00001000H
  00017	72 12		 jb	 SHORT $LN18@vector

; 205  :     const uintptr_t _Ptr_container   = _Ptr_user[-1];

  00019	8b 50 fc	 mov	 edx, DWORD PTR [eax-4]
  0001c	83 c1 23	 add	 ecx, 35			; 00000023H

; 206  : 
; 207  :     // If the following asserts, it likely means that we are performing
; 208  :     // an aligned delete on memory coming from an unaligned allocation.
; 209  :     _STL_ASSERT(_Ptr_user[-2] == _Big_allocation_sentinel, "invalid argument");
; 210  : 
; 211  :     // Extra paranoia on aligned allocation/deallocation; ensure _Ptr_container is
; 212  :     // in range [_Min_back_shift, _Non_user_size]
; 213  : #ifdef _DEBUG
; 214  :     constexpr uintptr_t _Min_back_shift = 2 * sizeof(void*);
; 215  : #else // ^^^ defined(_DEBUG) / !defined(_DEBUG) vvv
; 216  :     constexpr uintptr_t _Min_back_shift = sizeof(void*);
; 217  : #endif // ^^^ !defined(_DEBUG) ^^^
; 218  :     const uintptr_t _Back_shift = reinterpret_cast<uintptr_t>(_Ptr) - _Ptr_container;

  0001f	2b c2		 sub	 eax, edx

; 219  :     _STL_VERIFY(_Back_shift >= _Min_back_shift && _Back_shift <= _Non_user_size, "invalid argument");

  00021	83 c0 fc	 add	 eax, -4			; fffffffcH
  00024	83 f8 1f	 cmp	 eax, 31			; 0000001fH
  00027	77 22		 ja	 SHORT $LN17@vector

; 220  :     _Ptr = reinterpret_cast<void*>(_Ptr_container);

  00029	8b c2		 mov	 eax, edx
$LN18@vector:

; 289  :         ::operator delete(_Ptr, _Bytes);

  0002b	51		 push	 ecx
  0002c	50		 push	 eax
  0002d	e8 00 00 00 00	 call	 ??3@YAXPAXI@Z		; operator delete
; File C:\Program Files\Microsoft Visual Studio\2022\Professional\VC\Tools\MSVC\14.44.35207\include\vector

; 2095 :             _Myfirst = nullptr;

  00032	c7 06 00 00 00
	00		 mov	 DWORD PTR [esi], 0
; File C:\Program Files\Microsoft Visual Studio\2022\Professional\VC\Tools\MSVC\14.44.35207\include\xmemory

; 289  :         ::operator delete(_Ptr, _Bytes);

  00038	83 c4 08	 add	 esp, 8
; File C:\Program Files\Microsoft Visual Studio\2022\Professional\VC\Tools\MSVC\14.44.35207\include\vector

; 2096 :             _Mylast  = nullptr;

  0003b	c7 46 04 00 00
	00 00		 mov	 DWORD PTR [esi+4], 0

; 2097 :             _Myend   = nullptr;

  00042	c7 46 08 00 00
	00 00		 mov	 DWORD PTR [esi+8], 0
$LN5@vector:
  00049	5e		 pop	 esi

; 835  :     }

  0004a	c3		 ret	 0
$LN17@vector:
; File C:\Program Files\Microsoft Visual Studio\2022\Professional\VC\Tools\MSVC\14.44.35207\include\xmemory

; 219  :     _STL_VERIFY(_Back_shift >= _Min_back_shift && _Back_shift <= _Non_user_size, "invalid argument");

  0004b	6a 00		 push	 0
  0004d	6a 00		 push	 0
  0004f	6a 00		 push	 0
  00051	6a 00		 push	 0
  00053	6a 00		 push	 0
  00055	e8 00 00 00 00	 call	 __invoke_watson
$LN26@vector:
  0005a	cc		 int	 3
??1?$vector@KV?$allocator@K@std@@@std@@QAE@XZ ENDP	; std::vector<unsigned long,std::allocator<unsigned long> >::~vector<unsigned long,std::allocator<unsigned long> >
_TEXT	ENDS
; Function compile flags: /Ogtp
; File C:\IAGOS\server\v18\Source\Source\_Common\Obj.h
; File C:\IAGOS\server\v18\Source\Source\DX_SDK\d3dx9math.inl
; File C:\IAGOS\server\v18\Source\Source\_Common\Obj.h
; File C:\IAGOS\server\v18\Source\Source\DX_SDK\d3dx9math.inl
; File C:\IAGOS\server\v18\Source\Source\_Common\Obj.h
; File C:\IAGOS\server\v18\Source\Source\DX_SDK\d3dx9math.inl
; File C:\IAGOS\server\v18\Source\Source\_Common\Obj.h
; File C:\Program Files (x86)\Windows Kits\10\Include\10.0.26100.0\ucrt\corecrt_math.h
; File C:\IAGOS\server\v18\Source\Source\_Common\Obj.h
; File C:\Program Files (x86)\Windows Kits\10\Include\10.0.26100.0\ucrt\corecrt_math.h
; File C:\IAGOS\server\v18\Source\Source\_Common\Obj.h
;	COMDAT ?GetDegreeX@@YAMABUD3DXVECTOR3@@0@Z
_TEXT	SEGMENT
_a$ = -16						; size = 4
tv313 = -16						; size = 8
tv307 = -8						; size = 8
tv319 = -8						; size = 8
_vDestPos$ = 8						; size = 4
_vSrcPos$ = 12						; size = 4
?GetDegreeX@@YAMABUD3DXVECTOR3@@0@Z PROC		; GetDegreeX, COMDAT

; 307  : {

  00000	55		 push	 ebp
  00001	8b ec		 mov	 ebp, esp
  00003	83 e4 f8	 and	 esp, -8			; fffffff8H
  00006	83 ec 10	 sub	 esp, 16			; 00000010H
; File C:\IAGOS\server\v18\Source\Source\DX_SDK\d3dx9math.inl

; 383  :     return D3DXVECTOR3(x - v.x, y - v.y, z - v.z);

  00009	8b 4d 08	 mov	 ecx, DWORD PTR _vDestPos$[ebp]
  0000c	8b 45 0c	 mov	 eax, DWORD PTR _vSrcPos$[ebp]
  0000f	f3 0f 10 11	 movss	 xmm2, DWORD PTR [ecx]
  00013	f3 0f 5c 10	 subss	 xmm2, DWORD PTR [eax]
  00017	f3 0f 10 49 08	 movss	 xmm1, DWORD PTR [ecx+8]
  0001c	f3 0f 5c 48 08	 subss	 xmm1, DWORD PTR [eax+8]
  00021	f3 0f 10 41 04	 movss	 xmm0, DWORD PTR [ecx+4]
  00026	f3 0f 5c 40 04	 subss	 xmm0, DWORD PTR [eax+4]
; File C:\IAGOS\server\v18\Source\Source\_Common\Obj.h

; 314  : 	float r = (float)atan2( yDist, -zDist );

  0002b	f3 0f 59 d2	 mulss	 xmm2, xmm2
; File C:\IAGOS\server\v18\Source\Source\DX_SDK\d3dx9math.inl

; 1684 :     return sqrtf(pV->x * pV->x + pV->y * pV->y + pV->z * pV->z);

  0002f	f3 0f 59 c9	 mulss	 xmm1, xmm1
  00033	f3 0f 58 15 00
	00 00 00	 addss	 xmm2, DWORD PTR __real@00000000
; File C:\IAGOS\server\v18\Source\Source\_Common\Obj.h

; 314  : 	float r = (float)atan2( yDist, -zDist );

  0003b	0f 5a c0	 cvtps2pd xmm0, xmm0
; File C:\IAGOS\server\v18\Source\Source\DX_SDK\d3dx9math.inl

; 1684 :     return sqrtf(pV->x * pV->x + pV->y * pV->y + pV->z * pV->z);

  0003e	f3 0f 58 d1	 addss	 xmm2, xmm1
  00042	0f 57 c9	 xorps	 xmm1, xmm1
; File C:\IAGOS\server\v18\Source\Source\_Common\Obj.h

; 314  : 	float r = (float)atan2( yDist, -zDist );

  00045	f2 0f 11 44 24
	08		 movsd	 QWORD PTR tv319[esp+16], xmm0
; File C:\Program Files (x86)\Windows Kits\10\Include\10.0.26100.0\ucrt\corecrt_math.h

; 799  :             return (float)sqrt(_X);

  0004b	0f 5a c2	 cvtps2pd xmm0, xmm2
  0004e	66 0f 2e c8	 ucomisd xmm1, xmm0
  00052	77 06		 ja	 SHORT $LN15@GetDegreeX
  00054	f2 0f 51 c0	 sqrtsd	 xmm0, xmm0
  00058	eb 05		 jmp	 SHORT $LN16@GetDegreeX
$LN15@GetDegreeX:
  0005a	e8 00 00 00 00	 call	 __libm_sse2_sqrt_precise
$LN16@GetDegreeX:
; File C:\IAGOS\server\v18\Source\Source\_Common\Obj.h

; 314  : 	float r = (float)atan2( yDist, -zDist );

  0005f	dd 44 24 08	 fld	 QWORD PTR tv319[esp+16]
; File C:\Program Files (x86)\Windows Kits\10\Include\10.0.26100.0\ucrt\corecrt_math.h

; 799  :             return (float)sqrt(_X);

  00063	f2 0f 5a c0	 cvtsd2ss xmm0, xmm0
; File C:\IAGOS\server\v18\Source\Source\_Common\Obj.h

; 314  : 	float r = (float)atan2( yDist, -zDist );

  00067	0f 57 05 00 00
	00 00		 xorps	 xmm0, DWORD PTR __xmm@80000000800000008000000080000000
  0006e	f3 0f 5a c0	 cvtss2sd xmm0, xmm0
  00072	f2 0f 11 04 24	 movsd	 QWORD PTR tv313[esp+16], xmm0
  00077	dd 04 24	 fld	 QWORD PTR tv313[esp+16]
  0007a	e8 00 00 00 00	 call	 __CIatan2
  0007f	dd 5c 24 08	 fstp	 QWORD PTR tv307[esp+16]
  00083	f2 0f 10 4c 24
	08		 movsd	 xmm1, QWORD PTR tv307[esp+16]
  00089	66 0f 5a c9	 cvtpd2ps xmm1, xmm1

; 315  : 	float a = D3DXToDegree( r );

  0008d	f3 0f 59 0d 00
	00 00 00	 mulss	 xmm1, DWORD PTR __real@42652ee0

; 316  : 	a = -a;

  00095	0f 57 0d 00 00
	00 00		 xorps	 xmm1, DWORD PTR __xmm@80000000800000008000000080000000

; 317  : 
; 318  : 	if( a > 90.0f )

  0009c	0f 2f 0d 00 00
	00 00		 comiss	 xmm1, DWORD PTR __real@42b40000
  000a3	f3 0f 11 0c 24	 movss	 DWORD PTR _a$[esp+16], xmm1
  000a8	76 18		 jbe	 SHORT $LN2@GetDegreeX

; 319  : 		a	= 180.0f - a;

  000aa	f3 0f 10 05 00
	00 00 00	 movss	 xmm0, DWORD PTR __real@43340000

; 322  : 	return a;
; 323  : }

  000b2	f3 0f 5c c1	 subss	 xmm0, xmm1
  000b6	f3 0f 11 04 24	 movss	 DWORD PTR _a$[esp+16], xmm0
  000bb	d9 04 24	 fld	 DWORD PTR _a$[esp+16]
  000be	8b e5		 mov	 esp, ebp
  000c0	5d		 pop	 ebp
  000c1	c3		 ret	 0
$LN2@GetDegreeX:

; 320  : 	else if( a < -90.0f )

  000c2	f3 0f 10 05 00
	00 00 00	 movss	 xmm0, DWORD PTR __real@c2b40000
  000ca	0f 2f c1	 comiss	 xmm0, xmm1
  000cd	76 11		 jbe	 SHORT $LN14@GetDegreeX

; 321  : 		a	= -180.0f - a;

  000cf	f3 0f 10 05 00
	00 00 00	 movss	 xmm0, DWORD PTR __real@c3340000

; 322  : 	return a;
; 323  : }

  000d7	f3 0f 5c c1	 subss	 xmm0, xmm1
  000db	f3 0f 11 04 24	 movss	 DWORD PTR _a$[esp+16], xmm0
$LN14@GetDegreeX:
  000e0	d9 04 24	 fld	 DWORD PTR _a$[esp+16]
  000e3	8b e5		 mov	 esp, ebp
  000e5	5d		 pop	 ebp
  000e6	c3		 ret	 0
?GetDegreeX@@YAMABUD3DXVECTOR3@@0@Z ENDP		; GetDegreeX
_TEXT	ENDS
; Function compile flags: /Ogtp
;	COMDAT ??_GCTimer@@UAEPAXI@Z
_TEXT	SEGMENT
___flags$ = 8						; size = 4
??_GCTimer@@UAEPAXI@Z PROC				; CTimer::`scalar deleting destructor', COMDAT
; _this$ = ecx
  00000	55		 push	 ebp
  00001	8b ec		 mov	 ebp, esp
  00003	f6 45 08 01	 test	 BYTE PTR ___flags$[ebp], 1
  00007	56		 push	 esi
  00008	8b f1		 mov	 esi, ecx
  0000a	c7 06 00 00 00
	00		 mov	 DWORD PTR [esi], OFFSET ??_7CTimer@@6B@
  00010	74 0b		 je	 SHORT $LN5@scalar
  00012	6a 20		 push	 32			; 00000020H
  00014	56		 push	 esi
  00015	e8 00 00 00 00	 call	 ??3@YAXPAXI@Z		; operator delete
  0001a	83 c4 08	 add	 esp, 8
$LN5@scalar:
  0001d	8b c6		 mov	 eax, esi
  0001f	5e		 pop	 esi
  00020	5d		 pop	 ebp
  00021	c2 04 00	 ret	 4
??_GCTimer@@UAEPAXI@Z ENDP				; CTimer::`scalar deleting destructor'
_TEXT	ENDS
; Function compile flags: /Ogtp
; File C:\IAGOS\server\v18\Source\Source\_Common\Timer.h
;	COMDAT ??1CTimer@@UAE@XZ
_TEXT	SEGMENT
??1CTimer@@UAE@XZ PROC					; CTimer::~CTimer, COMDAT
; _this$ = ecx

; 19   : 	virtual ~CTimer()	{}

  00000	c7 01 00 00 00
	00		 mov	 DWORD PTR [ecx], OFFSET ??_7CTimer@@6B@
  00006	c3		 ret	 0
??1CTimer@@UAE@XZ ENDP					; CTimer::~CTimer
_TEXT	ENDS
; Function compile flags: /Ogtp
; File C:\IAGOS\server\v18\Source\Source\DX_SDK\d3dx9math.h
;	COMDAT ??0D3DXVECTOR3@@QAE@XZ
_TEXT	SEGMENT
??0D3DXVECTOR3@@QAE@XZ PROC				; D3DXVECTOR3::D3DXVECTOR3, COMDAT
; _this$ = ecx

; 165  :     D3DXVECTOR3() {};

  00000	8b c1		 mov	 eax, ecx
  00002	c3		 ret	 0
??0D3DXVECTOR3@@QAE@XZ ENDP				; D3DXVECTOR3::D3DXVECTOR3
_TEXT	ENDS
; Function compile flags: /Ogtp
; File C:\Program Files\Microsoft Visual Studio\2022\Professional\VC\Tools\MSVC\14.44.35207\include\xtree
;	COMDAT ?_Throw_tree_length_error@std@@YAXXZ
_TEXT	SEGMENT
?_Throw_tree_length_error@std@@YAXXZ PROC		; std::_Throw_tree_length_error, COMDAT

; 417  :     _Xlength_error("map/set too long");

  00000	68 00 00 00 00	 push	 OFFSET ??_C@_0BB@GCADKGJO@map?1set?5too?5long@
  00005	e8 00 00 00 00	 call	 ?_Xlength_error@std@@YAXPBD@Z ; std::_Xlength_error
$LN3@Throw_tree:
  0000a	cc		 int	 3
?_Throw_tree_length_error@std@@YAXXZ ENDP		; std::_Throw_tree_length_error
_TEXT	ENDS
; Function compile flags: /Ogtp
; File C:\Program Files\Microsoft Visual Studio\2022\Professional\VC\Tools\MSVC\14.44.35207\include\xmemory
;	COMDAT ?_Throw_bad_array_new_length@std@@YAXXZ
_TEXT	SEGMENT
$T1 = -12						; size = 12
?_Throw_bad_array_new_length@std@@YAXXZ PROC		; std::_Throw_bad_array_new_length, COMDAT

; 107  : [[noreturn]] inline void _Throw_bad_array_new_length() {

  00000	55		 push	 ebp
  00001	8b ec		 mov	 ebp, esp
  00003	83 ec 0c	 sub	 esp, 12			; 0000000cH

; 108  :     _THROW(bad_array_new_length{});

  00006	8d 4d f4	 lea	 ecx, DWORD PTR $T1[ebp]
  00009	e8 00 00 00 00	 call	 ??0bad_array_new_length@std@@QAE@XZ ; std::bad_array_new_length::bad_array_new_length
  0000e	68 00 00 00 00	 push	 OFFSET __TI3?AVbad_array_new_length@std@@
  00013	8d 45 f4	 lea	 eax, DWORD PTR $T1[ebp]
  00016	50		 push	 eax
  00017	e8 00 00 00 00	 call	 __CxxThrowException@8
$LN3@Throw_bad_:
  0001c	cc		 int	 3
?_Throw_bad_array_new_length@std@@YAXXZ ENDP		; std::_Throw_bad_array_new_length
_TEXT	ENDS
; Function compile flags: /Ogtp
; File C:\Program Files\Microsoft Visual Studio\2022\Professional\VC\Tools\MSVC\14.44.35207\include\vcruntime_exception.h
;	COMDAT ??_Gbad_array_new_length@std@@UAEPAXI@Z
_TEXT	SEGMENT
___flags$ = 8						; size = 4
??_Gbad_array_new_length@std@@UAEPAXI@Z PROC		; std::bad_array_new_length::`scalar deleting destructor', COMDAT
; _this$ = ecx
  00000	55		 push	 ebp
  00001	8b ec		 mov	 ebp, esp

; 90   :     {

  00003	56		 push	 esi
  00004	8b f1		 mov	 esi, ecx

; 91   :         __std_exception_destroy(&_Data);

  00006	8d 46 04	 lea	 eax, DWORD PTR [esi+4]
  00009	c7 06 00 00 00
	00		 mov	 DWORD PTR [esi], OFFSET ??_7exception@std@@6B@
  0000f	50		 push	 eax
  00010	e8 00 00 00 00	 call	 ___std_exception_destroy
  00015	83 c4 04	 add	 esp, 4
  00018	f6 45 08 01	 test	 BYTE PTR ___flags$[ebp], 1
  0001c	74 0b		 je	 SHORT $LN18@scalar
  0001e	6a 0c		 push	 12			; 0000000cH
  00020	56		 push	 esi
  00021	e8 00 00 00 00	 call	 ??3@YAXPAXI@Z		; operator delete
  00026	83 c4 08	 add	 esp, 8
$LN18@scalar:
  00029	8b c6		 mov	 eax, esi
  0002b	5e		 pop	 esi
  0002c	5d		 pop	 ebp
  0002d	c2 04 00	 ret	 4
??_Gbad_array_new_length@std@@UAEPAXI@Z ENDP		; std::bad_array_new_length::`scalar deleting destructor'
_TEXT	ENDS
; Function compile flags: /Ogtp
; File C:\Program Files\Microsoft Visual Studio\2022\Professional\VC\Tools\MSVC\14.44.35207\include\vcruntime_exception.h
;	COMDAT ??0bad_array_new_length@std@@QAE@ABV01@@Z
_TEXT	SEGMENT
___that$ = 8						; size = 4
??0bad_array_new_length@std@@QAE@ABV01@@Z PROC		; std::bad_array_new_length::bad_array_new_length, COMDAT
; _this$ = ecx
  00000	55		 push	 ebp
  00001	8b ec		 mov	 ebp, esp

; 73   :     {

  00003	56		 push	 esi
  00004	8b f1		 mov	 esi, ecx
  00006	0f 57 c0	 xorps	 xmm0, xmm0

; 72   :         : _Data()

  00009	8d 46 04	 lea	 eax, DWORD PTR [esi+4]

; 74   :         __std_exception_copy(&_Other._Data, &_Data);

  0000c	50		 push	 eax
  0000d	c7 06 00 00 00
	00		 mov	 DWORD PTR [esi], OFFSET ??_7exception@std@@6B@
  00013	66 0f d6 00	 movq	 QWORD PTR [eax], xmm0
  00017	8b 45 08	 mov	 eax, DWORD PTR ___that$[ebp]
  0001a	83 c0 04	 add	 eax, 4
  0001d	50		 push	 eax
  0001e	e8 00 00 00 00	 call	 ___std_exception_copy
  00023	83 c4 08	 add	 esp, 8
  00026	c7 06 00 00 00
	00		 mov	 DWORD PTR [esi], OFFSET ??_7bad_array_new_length@std@@6B@
  0002c	8b c6		 mov	 eax, esi
  0002e	5e		 pop	 esi
  0002f	5d		 pop	 ebp
  00030	c2 04 00	 ret	 4
??0bad_array_new_length@std@@QAE@ABV01@@Z ENDP		; std::bad_array_new_length::bad_array_new_length
_TEXT	ENDS
; Function compile flags: /Ogtp
; File C:\Program Files\Microsoft Visual Studio\2022\Professional\VC\Tools\MSVC\14.44.35207\include\vcruntime_exception.h
;	COMDAT ??1bad_array_new_length@std@@UAE@XZ
_TEXT	SEGMENT
??1bad_array_new_length@std@@UAE@XZ PROC		; std::bad_array_new_length::~bad_array_new_length, COMDAT
; _this$ = ecx

; 91   :         __std_exception_destroy(&_Data);

  00000	8d 41 04	 lea	 eax, DWORD PTR [ecx+4]
  00003	c7 01 00 00 00
	00		 mov	 DWORD PTR [ecx], OFFSET ??_7exception@std@@6B@
  00009	50		 push	 eax
  0000a	e8 00 00 00 00	 call	 ___std_exception_destroy
  0000f	59		 pop	 ecx
  00010	c3		 ret	 0
??1bad_array_new_length@std@@UAE@XZ ENDP		; std::bad_array_new_length::~bad_array_new_length
_TEXT	ENDS
; Function compile flags: /Ogtp
; File C:\Program Files\Microsoft Visual Studio\2022\Professional\VC\Tools\MSVC\14.44.35207\include\vcruntime_exception.h
;	COMDAT ??0bad_array_new_length@std@@QAE@XZ
_TEXT	SEGMENT
??0bad_array_new_length@std@@QAE@XZ PROC		; std::bad_array_new_length::bad_array_new_length, COMDAT
; _this$ = ecx

; 144  :     {

  00000	0f 57 c0	 xorps	 xmm0, xmm0

; 145  :     }

  00003	8b c1		 mov	 eax, ecx

; 66   :         : _Data()

  00005	66 0f d6 41 04	 movq	 QWORD PTR [ecx+4], xmm0

; 67   :     {
; 68   :         _Data._What = _Message;

  0000a	c7 41 04 00 00
	00 00		 mov	 DWORD PTR [ecx+4], OFFSET ??_C@_0BF@KINCDENJ@bad?5array?5new?5length@

; 144  :     {

  00011	c7 01 00 00 00
	00		 mov	 DWORD PTR [ecx], OFFSET ??_7bad_array_new_length@std@@6B@

; 145  :     }

  00017	c3		 ret	 0
??0bad_array_new_length@std@@QAE@XZ ENDP		; std::bad_array_new_length::bad_array_new_length
_TEXT	ENDS
; Function compile flags: /Ogtp
; File C:\Program Files\Microsoft Visual Studio\2022\Professional\VC\Tools\MSVC\14.44.35207\include\vcruntime_exception.h
;	COMDAT ??_Gbad_alloc@std@@UAEPAXI@Z
_TEXT	SEGMENT
___flags$ = 8						; size = 4
??_Gbad_alloc@std@@UAEPAXI@Z PROC			; std::bad_alloc::`scalar deleting destructor', COMDAT
; _this$ = ecx
  00000	55		 push	 ebp
  00001	8b ec		 mov	 ebp, esp

; 90   :     {

  00003	56		 push	 esi
  00004	8b f1		 mov	 esi, ecx

; 91   :         __std_exception_destroy(&_Data);

  00006	8d 46 04	 lea	 eax, DWORD PTR [esi+4]
  00009	c7 06 00 00 00
	00		 mov	 DWORD PTR [esi], OFFSET ??_7exception@std@@6B@
  0000f	50		 push	 eax
  00010	e8 00 00 00 00	 call	 ___std_exception_destroy
  00015	83 c4 04	 add	 esp, 4
  00018	f6 45 08 01	 test	 BYTE PTR ___flags$[ebp], 1
  0001c	74 0b		 je	 SHORT $LN13@scalar
  0001e	6a 0c		 push	 12			; 0000000cH
  00020	56		 push	 esi
  00021	e8 00 00 00 00	 call	 ??3@YAXPAXI@Z		; operator delete
  00026	83 c4 08	 add	 esp, 8
$LN13@scalar:
  00029	8b c6		 mov	 eax, esi
  0002b	5e		 pop	 esi
  0002c	5d		 pop	 ebp
  0002d	c2 04 00	 ret	 4
??_Gbad_alloc@std@@UAEPAXI@Z ENDP			; std::bad_alloc::`scalar deleting destructor'
_TEXT	ENDS
; Function compile flags: /Ogtp
; File C:\Program Files\Microsoft Visual Studio\2022\Professional\VC\Tools\MSVC\14.44.35207\include\vcruntime_exception.h
;	COMDAT ??0bad_alloc@std@@QAE@ABV01@@Z
_TEXT	SEGMENT
___that$ = 8						; size = 4
??0bad_alloc@std@@QAE@ABV01@@Z PROC			; std::bad_alloc::bad_alloc, COMDAT
; _this$ = ecx
  00000	55		 push	 ebp
  00001	8b ec		 mov	 ebp, esp

; 73   :     {

  00003	56		 push	 esi
  00004	8b f1		 mov	 esi, ecx
  00006	0f 57 c0	 xorps	 xmm0, xmm0

; 72   :         : _Data()

  00009	8d 46 04	 lea	 eax, DWORD PTR [esi+4]

; 74   :         __std_exception_copy(&_Other._Data, &_Data);

  0000c	50		 push	 eax
  0000d	c7 06 00 00 00
	00		 mov	 DWORD PTR [esi], OFFSET ??_7exception@std@@6B@
  00013	66 0f d6 00	 movq	 QWORD PTR [eax], xmm0
  00017	8b 45 08	 mov	 eax, DWORD PTR ___that$[ebp]
  0001a	83 c0 04	 add	 eax, 4
  0001d	50		 push	 eax
  0001e	e8 00 00 00 00	 call	 ___std_exception_copy
  00023	83 c4 08	 add	 esp, 8
  00026	c7 06 00 00 00
	00		 mov	 DWORD PTR [esi], OFFSET ??_7bad_alloc@std@@6B@
  0002c	8b c6		 mov	 eax, esi
  0002e	5e		 pop	 esi
  0002f	5d		 pop	 ebp
  00030	c2 04 00	 ret	 4
??0bad_alloc@std@@QAE@ABV01@@Z ENDP			; std::bad_alloc::bad_alloc
_TEXT	ENDS
; Function compile flags: /Ogtp
; File C:\Program Files\Microsoft Visual Studio\2022\Professional\VC\Tools\MSVC\14.44.35207\include\vcruntime_exception.h
;	COMDAT ??_Gexception@std@@UAEPAXI@Z
_TEXT	SEGMENT
___flags$ = 8						; size = 4
??_Gexception@std@@UAEPAXI@Z PROC			; std::exception::`scalar deleting destructor', COMDAT
; _this$ = ecx
  00000	55		 push	 ebp
  00001	8b ec		 mov	 ebp, esp

; 90   :     {

  00003	56		 push	 esi
  00004	8b f1		 mov	 esi, ecx

; 91   :         __std_exception_destroy(&_Data);

  00006	8d 46 04	 lea	 eax, DWORD PTR [esi+4]
  00009	c7 06 00 00 00
	00		 mov	 DWORD PTR [esi], OFFSET ??_7exception@std@@6B@
  0000f	50		 push	 eax
  00010	e8 00 00 00 00	 call	 ___std_exception_destroy
  00015	83 c4 04	 add	 esp, 4
  00018	f6 45 08 01	 test	 BYTE PTR ___flags$[ebp], 1
  0001c	74 0b		 je	 SHORT $LN8@scalar
  0001e	6a 0c		 push	 12			; 0000000cH
  00020	56		 push	 esi
  00021	e8 00 00 00 00	 call	 ??3@YAXPAXI@Z		; operator delete
  00026	83 c4 08	 add	 esp, 8
$LN8@scalar:
  00029	8b c6		 mov	 eax, esi
  0002b	5e		 pop	 esi
  0002c	5d		 pop	 ebp
  0002d	c2 04 00	 ret	 4
??_Gexception@std@@UAEPAXI@Z ENDP			; std::exception::`scalar deleting destructor'
_TEXT	ENDS
; Function compile flags: /Ogtp
; File C:\Program Files\Microsoft Visual Studio\2022\Professional\VC\Tools\MSVC\14.44.35207\include\vcruntime_exception.h
;	COMDAT ?what@exception@std@@UBEPBDXZ
_TEXT	SEGMENT
?what@exception@std@@UBEPBDXZ PROC			; std::exception::what, COMDAT
; _this$ = ecx

; 96   :         return _Data._What ? _Data._What : "Unknown exception";

  00000	8b 49 04	 mov	 ecx, DWORD PTR [ecx+4]
  00003	b8 00 00 00 00	 mov	 eax, OFFSET ??_C@_0BC@EOODALEL@Unknown?5exception@
  00008	85 c9		 test	 ecx, ecx
  0000a	0f 45 c1	 cmovne	 eax, ecx

; 97   :     }

  0000d	c3		 ret	 0
?what@exception@std@@UBEPBDXZ ENDP			; std::exception::what
_TEXT	ENDS
; Function compile flags: /Ogtp
; File C:\Program Files\Microsoft Visual Studio\2022\Professional\VC\Tools\MSVC\14.44.35207\include\vcruntime_exception.h
;	COMDAT ??1exception@std@@UAE@XZ
_TEXT	SEGMENT
??1exception@std@@UAE@XZ PROC				; std::exception::~exception, COMDAT
; _this$ = ecx

; 91   :         __std_exception_destroy(&_Data);

  00000	8d 41 04	 lea	 eax, DWORD PTR [ecx+4]
  00003	c7 01 00 00 00
	00		 mov	 DWORD PTR [ecx], OFFSET ??_7exception@std@@6B@
  00009	50		 push	 eax
  0000a	e8 00 00 00 00	 call	 ___std_exception_destroy
  0000f	59		 pop	 ecx

; 92   :     }

  00010	c3		 ret	 0
??1exception@std@@UAE@XZ ENDP				; std::exception::~exception
_TEXT	ENDS
; Function compile flags: /Ogtp
; File C:\Program Files\Microsoft Visual Studio\2022\Professional\VC\Tools\MSVC\14.44.35207\include\vcruntime_exception.h
;	COMDAT ??0exception@std@@QAE@ABV01@@Z
_TEXT	SEGMENT
__Other$ = 8						; size = 4
??0exception@std@@QAE@ABV01@@Z PROC			; std::exception::exception, COMDAT
; _this$ = ecx

; 73   :     {

  00000	55		 push	 ebp
  00001	8b ec		 mov	 ebp, esp
  00003	56		 push	 esi
  00004	8b f1		 mov	 esi, ecx
  00006	0f 57 c0	 xorps	 xmm0, xmm0
  00009	8d 46 04	 lea	 eax, DWORD PTR [esi+4]

; 74   :         __std_exception_copy(&_Other._Data, &_Data);

  0000c	50		 push	 eax
  0000d	c7 06 00 00 00
	00		 mov	 DWORD PTR [esi], OFFSET ??_7exception@std@@6B@
  00013	66 0f d6 00	 movq	 QWORD PTR [eax], xmm0
  00017	8b 45 08	 mov	 eax, DWORD PTR __Other$[ebp]
  0001a	83 c0 04	 add	 eax, 4
  0001d	50		 push	 eax
  0001e	e8 00 00 00 00	 call	 ___std_exception_copy
  00023	83 c4 08	 add	 esp, 8

; 75   :     }

  00026	8b c6		 mov	 eax, esi
  00028	5e		 pop	 esi
  00029	5d		 pop	 ebp
  0002a	c2 04 00	 ret	 4
??0exception@std@@QAE@ABV01@@Z ENDP			; std::exception::exception
_TEXT	ENDS
; Function compile flags: /Ogtp
; File C:\IAGOS\server\v18\Source\Source\_aiinterface\aimonster.cpp
;	COMDAT ?__empty_global_delete@@YAXPAXI@Z
_TEXT	SEGMENT
___formal$ = 8						; size = 4
___formal$ = 12						; size = 4
?__empty_global_delete@@YAXPAXI@Z PROC			; __empty_global_delete, COMDAT

  00000	c2 00 00	 ret	 0
?__empty_global_delete@@YAXPAXI@Z ENDP			; __empty_global_delete
_TEXT	ENDS
; Function compile flags: /Ogtp
; File C:\IAGOS\server\v18\Source\Source\_aiinterface\aimonster.cpp
;	COMDAT ?__empty_global_delete@@YAXPAX@Z
_TEXT	SEGMENT
___formal$ = 8						; size = 4
?__empty_global_delete@@YAXPAX@Z PROC			; __empty_global_delete, COMDAT

  00000	c2 00 00	 ret	 0
?__empty_global_delete@@YAXPAX@Z ENDP			; __empty_global_delete
_TEXT	ENDS
END
