; Listing generated by Microsoft (R) Optimizing Compiler Version 19.44.35225.0 

	TITLE	C:\IAGOS\server\v18\Source\Output\WorldServer\Release\AIPet.obj
	.686P
	.XMM
	include listing.inc
	.model	flat

INCLUDELIB LIBCMT
INCLUDELIB OLDNAMES

PUBLIC	?stateMap@CAIPet@@2USTATEMAP@@B			; CAIPet::stateMap
EXTRN	?stateMap@CAIInterface@@2USTATEMAP@@B:QWORD	; CAIInterface::stateMap
CONST	SEGMENT
?stateMap@CAIPet@@2USTATEMAP@@B DD FLAT:?stateMap@CAIInterface@@2USTATEMAP@@B ; CAIPet::stateMap
	DD	FLAT:?stateMapEntries@CAIPet@@2QBUSTATEMAP_ENTRIES@@B
?piecewise_construct@std@@3Upiecewise_construct_t@1@B	ORG $+1 ; std::piecewise_construct
CONST	ENDS
PUBLIC	?__empty_global_delete@@YAXPAX@Z		; __empty_global_delete
PUBLIC	?__empty_global_delete@@YAXPAXI@Z		; __empty_global_delete
PUBLIC	??0D3DXVECTOR3@@QAE@XZ				; D3DXVECTOR3::D3DXVECTOR3
PUBLIC	?GetPropA@CItem@@QAEPAUItemProp@@XZ		; CItem::GetPropA
PUBLIC	?IsReturnToBegin@CAIInterface@@UAEHXZ		; CAIInterface::IsReturnToBegin
PUBLIC	?IsEmptyDest@CMover@@QAEHXZ			; CMover::IsEmptyDest
PUBLIC	?MoveToDst@CAIPet@@AAEXK@Z			; CAIPet::MoveToDst
PUBLIC	?MoveToDst@CAIPet@@AAEXUD3DXVECTOR3@@@Z		; CAIPet::MoveToDst
PUBLIC	?MoveProcessIdle@CAIPet@@AAEHABUAIMSG@@@Z	; CAIPet::MoveProcessIdle
PUBLIC	?MoveProcessRage@CAIPet@@AAEHABUAIMSG@@@Z	; CAIPet::MoveProcessRage
PUBLIC	?Init@CAIPet@@AAEXXZ				; CAIPet::Init
PUBLIC	?Destroy@CAIPet@@AAEXXZ				; CAIPet::Destroy
PUBLIC	??0CAIPet@@QAE@XZ				; CAIPet::CAIPet
PUBLIC	??0CAIPet@@QAE@PAVCObj@@@Z			; CAIPet::CAIPet
PUBLIC	??1CAIPet@@UAE@XZ				; CAIPet::~CAIPet
PUBLIC	?InitAI@CAIPet@@UAEXXZ				; CAIPet::InitAI
PUBLIC	?StateInit@CAIPet@@QAEHABUAIMSG@@@Z		; CAIPet::StateInit
PUBLIC	?StateIdle@CAIPet@@QAEHABUAIMSG@@@Z		; CAIPet::StateIdle
PUBLIC	?StateRage@CAIPet@@QAEHABUAIMSG@@@Z		; CAIPet::StateRage
PUBLIC	?SubItemLoot@CAIPet@@QAEHXZ			; CAIPet::SubItemLoot
PUBLIC	?SetItem@CAIPet@@QAEXPAVCMover@@PAVCItemElem@@@Z ; CAIPet::SetItem
PUBLIC	?ResetItem@CAIPet@@QAEXXZ			; CAIPet::ResetItem
PUBLIC	?SetSkill@CAIPet@@AAEXPAVCMover@@PAUItemProp@@@Z ; CAIPet::SetSkill
PUBLIC	?ResetSkill@CAIPet@@AAEXPAVCMover@@@Z		; CAIPet::ResetSkill
PUBLIC	?NotOwnedPetInactivated@CAIPet@@AAEHXZ		; CAIPet::NotOwnedPetInactivated
PUBLIC	?GetStateMap@CAIPet@@UBEPBUSTATEMAP@@XZ		; CAIPet::GetStateMap
PUBLIC	??_GCAIPet@@UAEPAXI@Z				; CAIPet::`scalar deleting destructor'
PUBLIC	??_C@_0BM@HMFGHCP@?$CFs?5min?3?$CFd?0?5max?3?$CFd?0?5index?3?$CFd@ ; `string'
PUBLIC	??_C@_0BI@BEIFNGEL@GetItemProp?5range_error@	; `string'
PUBLIC	??_C@_0BJ@GKPOBPPI@GetMoverProp?5range_error@	; `string'
PUBLIC	?stateMapEntries@CAIPet@@2QBUSTATEMAP_ENTRIES@@B ; CAIPet::stateMapEntries
PUBLIC	??_7CAIPet@@6B@					; CAIPet::`vftable'
PUBLIC	??_R4CAIPet@@6B@				; CAIPet::`RTTI Complete Object Locator'
PUBLIC	??_R0?AVCAIPet@@@8				; CAIPet `RTTI Type Descriptor'
PUBLIC	??_R3CAIPet@@8					; CAIPet::`RTTI Class Hierarchy Descriptor'
PUBLIC	??_R2CAIPet@@8					; CAIPet::`RTTI Base Class Array'
PUBLIC	??_R1A@?0A@EA@CAIPet@@8				; CAIPet::`RTTI Base Class Descriptor at (0,-1,0,64)'
PUBLIC	??_R1A@?0A@EA@CAIInterface@@8			; CAIInterface::`RTTI Base Class Descriptor at (0,-1,0,64)'
PUBLIC	??_R0?AVCAIInterface@@@8			; CAIInterface `RTTI Type Descriptor'
PUBLIC	??_R3CAIInterface@@8				; CAIInterface::`RTTI Class Hierarchy Descriptor'
PUBLIC	??_R2CAIInterface@@8				; CAIInterface::`RTTI Base Class Array'
PUBLIC	__real@3f800000
PUBLIC	__real@41c80000
PUBLIC	__real@43610000
PUBLIC	__real@44800000
PUBLIC	__real@4b18967f
EXTRN	??3@YAXPAXI@Z:PROC				; operator delete
EXTRN	?Error@@YAPBDPBDZZ:PROC				; Error
EXTRN	?IsRangeObj@CObj@@QAEHPAV1@M@Z:PROC		; CObj::IsRangeObj
EXTRN	?Delete@CObj@@QAEXXZ:PROC			; CObj::Delete
EXTRN	?DoActiveSkill@CCtrl@@QAEXKHPAV1@_NH@Z:PROC	; CCtrl::DoActiveSkill
EXTRN	?GetCtrl@CProject@@QAEPAVCCtrl@@K@Z:PROC	; CProject::GetCtrl
EXTRN	?GetMover@CProject@@QAEPAVCMover@@K@Z:PROC	; CProject::GetMover
EXTRN	??0CAIInterface@@QAE@XZ:PROC			; CAIInterface::CAIInterface
EXTRN	??0CAIInterface@@QAE@PAVCObj@@@Z:PROC		; CAIInterface::CAIInterface
EXTRN	??1CAIInterface@@UAE@XZ:PROC			; CAIInterface::~CAIInterface
EXTRN	?RouteMessage@CAIInterface@@UAEXXZ:PROC		; CAIInterface::RouteMessage
EXTRN	?SendAIMsg@CAIInterface@@UAEXKKKK@Z:PROC	; CAIInterface::SendAIMsg
EXTRN	?PostAIMsg@CAIInterface@@UAEXKKKK@Z:PROC	; CAIInterface::PostAIMsg
EXTRN	?HasBuff@CMover@@QAEHGG@Z:PROC			; CMover::HasBuff
EXTRN	?RemoveBuff@CMover@@QAEXGG@Z:PROC		; CMover::RemoveBuff
EXTRN	?InactivateEatPet@CMover@@QAEXXZ:PROC		; CMover::InactivateEatPet
EXTRN	?SetDestPos@CMover@@QAEXABUD3DXVECTOR3@@_NH@Z:PROC ; CMover::SetDestPos
EXTRN	?SetDestParamRandomOptExtension@CMover@@QAEXPAVCItemElem@@@Z:PROC ; CMover::SetDestParamRandomOptExtension
EXTRN	?ResetDestParamRandomOptExtension@CMover@@QAEXPAVCItemElem@@@Z:PROC ; CMover::ResetDestParamRandomOptExtension
EXTRN	?DoLoot@CMover@@QAEHPAVCItem@@@Z:PROC		; CMover::DoLoot
EXTRN	?GetItemId@CMover@@QAEPAVCItemBase@@K@Z:PROC	; CMover::GetItemId
EXTRN	?IsValidArea@CMover@@QAEHPAV1@M@Z:PROC		; CMover::IsValidArea
EXTRN	?SetDestObj@CMover@@QAEXKMH@Z:PROC		; CMover::SetDestObj
EXTRN	?IsLoot@CMover@@QAEHPAVCItem@@H@Z:PROC		; CMover::IsLoot
EXTRN	?GetLinkWidth@CLayeredLinkMap@@QAEHKHH@Z:PROC	; CLayeredLinkMap::GetLinkWidth
EXTRN	?GetObj@CLayeredLinkMap@@QAEPAPAVCObj@@KKH@Z:PROC ; CLayeredLinkMap::GetObj
EXTRN	?GetMaxLinkLevel@CLayeredLinkMap@@QAEHKH@Z:PROC	; CLayeredLinkMap::GetMaxLinkLevel
EXTRN	??_ECAIPet@@UAEPAXI@Z:PROC			; CAIPet::`vector deleting destructor'
EXTRN	?AddMoverSetDestObj@CUserMng@@QAEXPAVCMover@@KMH@Z:PROC ; CUserMng::AddMoverSetDestObj
EXTRN	?AddSetDestPos@CUserMng@@QAEXPAVCMover@@ABUD3DXVECTOR3@@E@Z:PROC ; CUserMng::AddSetDestPos
EXTRN	@__security_check_cookie@4:PROC
EXTRN	??_7type_info@@6B@:QWORD			; type_info::`vftable'
EXTRN	?prj@@3VCProject@@A:BYTE			; prj
EXTRN	?g_UserMng@@3VCUserMng@@A:BYTE			; g_UserMng
EXTRN	___security_cookie:DWORD
EXTRN	__fltused:DWORD
;	COMDAT __real@4b18967f
CONST	SEGMENT
__real@4b18967f DD 04b18967fr			; 1e+07
CONST	ENDS
;	COMDAT __real@44800000
CONST	SEGMENT
__real@44800000 DD 044800000r			; 1024
CONST	ENDS
;	COMDAT __real@43610000
CONST	SEGMENT
__real@43610000 DD 043610000r			; 225
CONST	ENDS
;	COMDAT __real@41c80000
CONST	SEGMENT
__real@41c80000 DD 041c80000r			; 25
CONST	ENDS
;	COMDAT __real@3f800000
CONST	SEGMENT
__real@3f800000 DD 03f800000r			; 1
CONST	ENDS
;	COMDAT ??_R2CAIInterface@@8
rdata$r	SEGMENT
??_R2CAIInterface@@8 DD FLAT:??_R1A@?0A@EA@CAIInterface@@8 ; CAIInterface::`RTTI Base Class Array'
rdata$r	ENDS
;	COMDAT ??_R3CAIInterface@@8
rdata$r	SEGMENT
??_R3CAIInterface@@8 DD 00H				; CAIInterface::`RTTI Class Hierarchy Descriptor'
	DD	00H
	DD	01H
	DD	FLAT:??_R2CAIInterface@@8
rdata$r	ENDS
;	COMDAT ??_R0?AVCAIInterface@@@8
data$rs	SEGMENT
??_R0?AVCAIInterface@@@8 DD FLAT:??_7type_info@@6B@	; CAIInterface `RTTI Type Descriptor'
	DD	00H
	DB	'.?AVCAIInterface@@', 00H
data$rs	ENDS
;	COMDAT ??_R1A@?0A@EA@CAIInterface@@8
rdata$r	SEGMENT
??_R1A@?0A@EA@CAIInterface@@8 DD FLAT:??_R0?AVCAIInterface@@@8 ; CAIInterface::`RTTI Base Class Descriptor at (0,-1,0,64)'
	DD	00H
	DD	00H
	DD	0ffffffffH
	DD	00H
	DD	040H
	DD	FLAT:??_R3CAIInterface@@8
rdata$r	ENDS
;	COMDAT ??_R1A@?0A@EA@CAIPet@@8
rdata$r	SEGMENT
??_R1A@?0A@EA@CAIPet@@8 DD FLAT:??_R0?AVCAIPet@@@8	; CAIPet::`RTTI Base Class Descriptor at (0,-1,0,64)'
	DD	01H
	DD	00H
	DD	0ffffffffH
	DD	00H
	DD	040H
	DD	FLAT:??_R3CAIPet@@8
rdata$r	ENDS
;	COMDAT ??_R2CAIPet@@8
rdata$r	SEGMENT
??_R2CAIPet@@8 DD FLAT:??_R1A@?0A@EA@CAIPet@@8		; CAIPet::`RTTI Base Class Array'
	DD	FLAT:??_R1A@?0A@EA@CAIInterface@@8
rdata$r	ENDS
;	COMDAT ??_R3CAIPet@@8
rdata$r	SEGMENT
??_R3CAIPet@@8 DD 00H					; CAIPet::`RTTI Class Hierarchy Descriptor'
	DD	00H
	DD	02H
	DD	FLAT:??_R2CAIPet@@8
rdata$r	ENDS
;	COMDAT ??_R0?AVCAIPet@@@8
data$rs	SEGMENT
??_R0?AVCAIPet@@@8 DD FLAT:??_7type_info@@6B@		; CAIPet `RTTI Type Descriptor'
	DD	00H
	DB	'.?AVCAIPet@@', 00H
data$rs	ENDS
;	COMDAT ??_R4CAIPet@@6B@
rdata$r	SEGMENT
??_R4CAIPet@@6B@ DD 00H					; CAIPet::`RTTI Complete Object Locator'
	DD	00H
	DD	00H
	DD	FLAT:??_R0?AVCAIPet@@@8
	DD	FLAT:??_R3CAIPet@@8
rdata$r	ENDS
;	COMDAT ??_7CAIPet@@6B@
CONST	SEGMENT
??_7CAIPet@@6B@ DD FLAT:??_R4CAIPet@@6B@		; CAIPet::`vftable'
	DD	FLAT:?GetStateMap@CAIPet@@UBEPBUSTATEMAP@@XZ
	DD	FLAT:??_ECAIPet@@UAEPAXI@Z
	DD	FLAT:?RouteMessage@CAIInterface@@UAEXXZ
	DD	FLAT:?SendAIMsg@CAIInterface@@UAEXKKKK@Z
	DD	FLAT:?PostAIMsg@CAIInterface@@UAEXKKKK@Z
	DD	FLAT:?InitAI@CAIPet@@UAEXXZ
	DD	FLAT:?IsReturnToBegin@CAIInterface@@UAEHXZ
CONST	ENDS
_DATA	SEGMENT
?stateMapEntries@CAIPet@@2QBUSTATEMAP_ENTRIES@@B DD 01H	; CAIPet::stateMapEntries
	ORG $+4
	DD	FLAT:?StateInit@CAIPet@@QAEHABUAIMSG@@@Z
	DD	00H
	DD	00H
	DD	00H
	DD	02H
	DB	4 DUP(00H)
	DD	FLAT:?StateIdle@CAIPet@@QAEHABUAIMSG@@@Z
	DD	00H
	DD	00H
	DD	00H
	DD	03H
	DB	4 DUP(00H)
	DD	FLAT:?StateRage@CAIPet@@QAEHABUAIMSG@@@Z
	DD	00H
	DD	00H
	DD	00H
	DD	00H
	DB	4 DUP(00H)
	DD	00H
	DD	00H
	DD	00H
	DD	0ffffffffH
_DATA	ENDS
;	COMDAT ??_C@_0BJ@GKPOBPPI@GetMoverProp?5range_error@
CONST	SEGMENT
??_C@_0BJ@GKPOBPPI@GetMoverProp?5range_error@ DB 'GetMoverProp range_erro'
	DB	'r', 00H					; `string'
CONST	ENDS
;	COMDAT ??_C@_0BI@BEIFNGEL@GetItemProp?5range_error@
CONST	SEGMENT
??_C@_0BI@BEIFNGEL@GetItemProp?5range_error@ DB 'GetItemProp range_error', 00H ; `string'
CONST	ENDS
;	COMDAT ??_C@_0BM@HMFGHCP@?$CFs?5min?3?$CFd?0?5max?3?$CFd?0?5index?3?$CFd@
CONST	SEGMENT
??_C@_0BM@HMFGHCP@?$CFs?5min?3?$CFd?0?5max?3?$CFd?0?5index?3?$CFd@ DB '%s'
	DB	' min:%d, max:%d, index:%d', 00H		; `string'
CONST	ENDS
; Function compile flags: /Ogtp
;	COMDAT ??_GCAIPet@@UAEPAXI@Z
_TEXT	SEGMENT
___flags$ = 8						; size = 4
??_GCAIPet@@UAEPAXI@Z PROC				; CAIPet::`scalar deleting destructor', COMDAT
; _this$ = ecx
  00000	55		 push	 ebp
  00001	8b ec		 mov	 ebp, esp
  00003	56		 push	 esi
  00004	8b f1		 mov	 esi, ecx
  00006	e8 00 00 00 00	 call	 ??1CAIPet@@UAE@XZ	; CAIPet::~CAIPet
  0000b	f6 45 08 01	 test	 BYTE PTR ___flags$[ebp], 1
  0000f	74 0b		 je	 SHORT $LN5@scalar
  00011	6a 50		 push	 80			; 00000050H
  00013	56		 push	 esi
  00014	e8 00 00 00 00	 call	 ??3@YAXPAXI@Z		; operator delete
  00019	83 c4 08	 add	 esp, 8
$LN5@scalar:
  0001c	8b c6		 mov	 eax, esi
  0001e	5e		 pop	 esi
  0001f	5d		 pop	 ebp
  00020	c2 04 00	 ret	 4
??_GCAIPet@@UAEPAXI@Z ENDP				; CAIPet::`scalar deleting destructor'
_TEXT	ENDS
; Function compile flags: /Ogtp
; File C:\IAGOS\server\v18\Source\Source\_AIInterface\AIPet.cpp
;	COMDAT ?GetStateMap@CAIPet@@UBEPBUSTATEMAP@@XZ
_TEXT	SEGMENT
?GetStateMap@CAIPet@@UBEPBUSTATEMAP@@XZ PROC		; CAIPet::GetStateMap, COMDAT
; _this$ = ecx

; 19   : BEGIN_AISTATE_MAP( CAIPet, CAIInterface )

  00000	b8 00 00 00 00	 mov	 eax, OFFSET ?stateMap@CAIPet@@2USTATEMAP@@B ; CAIPet::stateMap
  00005	c3		 ret	 0
?GetStateMap@CAIPet@@UBEPBUSTATEMAP@@XZ ENDP		; CAIPet::GetStateMap
_TEXT	ENDS
; Function compile flags: /Ogtp
; File C:\IAGOS\server\v18\Source\Source\_AIInterface\AIPet.cpp
; File C:\IAGOS\server\v18\Source\Source\_Common\Obj.h
; File C:\IAGOS\server\v18\Source\Source\_Common\Mover.h
; File C:\IAGOS\server\v18\Source\Source\_AIInterface\AIPet.cpp
;	COMDAT ?NotOwnedPetInactivated@CAIPet@@AAEHXZ
_TEXT	SEGMENT
?NotOwnedPetInactivated@CAIPet@@AAEHXZ PROC		; CAIPet::NotOwnedPetInactivated, COMDAT
; _this$ = ecx

; 404  : {

  00000	56		 push	 esi
  00001	57		 push	 edi

; 405  : 	CMover *pEatPet		= GetMover();

  00002	8b 79 30	 mov	 edi, DWORD PTR [ecx+48]

; 406  : 	CMover *pOwner	= prj.GetMover( m_idOwner ); 

  00005	ff 71 38	 push	 DWORD PTR [ecx+56]
  00008	b9 00 00 00 00	 mov	 ecx, OFFSET ?prj@@3VCProject@@A ; prj
  0000d	e8 00 00 00 00	 call	 ?GetMover@CProject@@QAEPAVCMover@@K@Z ; CProject::GetMover
  00012	8b f0		 mov	 esi, eax
; File C:\IAGOS\server\v18\Source\Source\_Common\Obj.h

; 327  : 	return pObj && ( pObj->IsDelete() == FALSE ); 

  00014	85 f6		 test	 esi, esi
  00016	74 46		 je	 SHORT $LN22@NotOwnedPe

; 180  : 	BOOL			IsDelete()	{ return (m_dwFlags & OBJ_FLAG_DELETE);  }

  00018	f6 46 04 01	 test	 BYTE PTR [esi+4], 1

; 327  : 	return pObj && ( pObj->IsDelete() == FALSE ); 

  0001c	75 40		 jne	 SHORT $LN22@NotOwnedPe
; File C:\IAGOS\server\v18\Source\Source\_Common\Mover.h

; 1250 : 	BOOL			IsDie() { return m_pActMover->IsDie() || m_nHitPoint == 0; }

  0001e	8b 8e 38 02 00
	00		 mov	 ecx, DWORD PTR [esi+568]
  00024	f7 41 04 00 00
	00 08		 test	 DWORD PTR [ecx+4], 134217728 ; 08000000H
  0002b	75 22		 jne	 SHORT $LN23@NotOwnedPe
  0002d	83 be f8 05 00
	00 00		 cmp	 DWORD PTR [esi+1528], 0
  00034	74 19		 je	 SHORT $LN23@NotOwnedPe
; File C:\IAGOS\server\v18\Source\Source\_AIInterface\AIPet.cpp

; 418  :     else if( !pOwner->IsValidArea( pEatPet, 32 ) ) 

  00036	51		 push	 ecx
  00037	c7 04 24 00 00
	00 42		 mov	 DWORD PTR [esp], 1107296256 ; 42000000H
  0003e	8b ce		 mov	 ecx, esi
  00040	57		 push	 edi
  00041	e8 00 00 00 00	 call	 ?IsValidArea@CMover@@QAEHPAV1@M@Z ; CMover::IsValidArea
  00046	85 c0		 test	 eax, eax
  00048	74 05		 je	 SHORT $LN23@NotOwnedPe

; 421  :         return TRUE; 
; 422  :     }
; 423  : 	return FALSE;

  0004a	5f		 pop	 edi
  0004b	33 c0		 xor	 eax, eax

; 424  : }

  0004d	5e		 pop	 esi
  0004e	c3		 ret	 0
$LN23@NotOwnedPe:

; 419  :     { 
; 420  :         pOwner->InactivateEatPet(); 

  0004f	8b ce		 mov	 ecx, esi
  00051	e8 00 00 00 00	 call	 ?InactivateEatPet@CMover@@QAEXXZ ; CMover::InactivateEatPet
  00056	5f		 pop	 edi

; 424  : }

  00057	b8 01 00 00 00	 mov	 eax, 1
  0005c	5e		 pop	 esi
  0005d	c3		 ret	 0
$LN22@NotOwnedPe:

; 407  : 
; 408  : 	if( IsInvalidObj( pOwner ) )
; 409  : 	{
; 410  : 		pEatPet->Delete();

  0005e	8b cf		 mov	 ecx, edi
  00060	e8 00 00 00 00	 call	 ?Delete@CObj@@QAEXXZ	; CObj::Delete
  00065	5f		 pop	 edi

; 424  : }

  00066	b8 01 00 00 00	 mov	 eax, 1
  0006b	5e		 pop	 esi
  0006c	c3		 ret	 0
?NotOwnedPetInactivated@CAIPet@@AAEHXZ ENDP		; CAIPet::NotOwnedPetInactivated
_TEXT	ENDS
; Function compile flags: /Ogtp
; File C:\IAGOS\server\v18\Source\Source\_AIInterface\AIPet.cpp
;	COMDAT ?ResetSkill@CAIPet@@AAEXPAVCMover@@@Z
_TEXT	SEGMENT
_pPlayer$ = 8						; size = 4
?ResetSkill@CAIPet@@AAEXPAVCMover@@@Z PROC		; CAIPet::ResetSkill, COMDAT
; _this$ = ecx

; 460  : {	// »çżë żą ľřŔ˝

  00000	55		 push	 ebp
  00001	8b ec		 mov	 ebp, esp
  00003	57		 push	 edi
  00004	8b f9		 mov	 edi, ecx

; 461  : 	if( GetSkillId() != NULL_ID && pPlayer->HasBuff( BUFF_SKILL, (WORD)( GetSkillId() ) ) )

  00006	8b 47 48	 mov	 eax, DWORD PTR [edi+72]
  00009	83 f8 ff	 cmp	 eax, -1
  0000c	74 1e		 je	 SHORT $LN2@ResetSkill
  0000e	8b 4d 08	 mov	 ecx, DWORD PTR _pPlayer$[ebp]
  00011	50		 push	 eax
  00012	6a 01		 push	 1
  00014	e8 00 00 00 00	 call	 ?HasBuff@CMover@@QAEHGG@Z ; CMover::HasBuff
  00019	85 c0		 test	 eax, eax
  0001b	74 0f		 je	 SHORT $LN2@ResetSkill

; 462  : 		pPlayer->RemoveBuff( BUFF_SKILL, (WORD)( GetSkillId() ) );

  0001d	0f b7 47 48	 movzx	 eax, WORD PTR [edi+72]
  00021	8b 4d 08	 mov	 ecx, DWORD PTR _pPlayer$[ebp]
  00024	50		 push	 eax
  00025	6a 01		 push	 1
  00027	e8 00 00 00 00	 call	 ?RemoveBuff@CMover@@QAEXGG@Z ; CMover::RemoveBuff
$LN2@ResetSkill:
  0002c	5f		 pop	 edi

; 463  : }

  0002d	5d		 pop	 ebp
  0002e	c2 04 00	 ret	 4
?ResetSkill@CAIPet@@AAEXPAVCMover@@@Z ENDP		; CAIPet::ResetSkill
_TEXT	ENDS
; Function compile flags: /Ogtp
; File C:\IAGOS\server\v18\Source\Source\_AIInterface\AIPet.cpp
;	COMDAT ?SetSkill@CAIPet@@AAEXPAVCMover@@PAUItemProp@@@Z
_TEXT	SEGMENT
_pPlayer$ = 8						; size = 4
_Prop$ = 12						; size = 4
?SetSkill@CAIPet@@AAEXPAVCMover@@PAUItemProp@@@Z PROC	; CAIPet::SetSkill, COMDAT
; _this$ = ecx

; 436  : {	// ÇöŔç »çżë żą ľřŔ˝

  00000	55		 push	 ebp
  00001	8b ec		 mov	 ebp, esp

; 437  : 	if( Prop->dwActiveSkill != NULL_ID )

  00003	8b 45 0c	 mov	 eax, DWORD PTR _Prop$[ebp]
  00006	8b 90 70 01 00
	00		 mov	 edx, DWORD PTR [eax+368]
  0000c	83 fa ff	 cmp	 edx, -1
  0000f	74 18		 je	 SHORT $LN2@SetSkill

; 438  : 	{
; 439  : 		SetSkillId( Prop->dwActiveSkill );
; 440  : 		pPlayer->DoActiveSkill( Prop->dwActiveSkill, 1, pPlayer );

  00011	6a 00		 push	 0
  00013	6a 00		 push	 0
  00015	89 51 48	 mov	 DWORD PTR [ecx+72], edx
  00018	8b 4d 08	 mov	 ecx, DWORD PTR _pPlayer$[ebp]
  0001b	51		 push	 ecx
  0001c	6a 01		 push	 1
  0001e	ff b0 70 01 00
	00		 push	 DWORD PTR [eax+368]
  00024	e8 00 00 00 00	 call	 ?DoActiveSkill@CCtrl@@QAEXKHPAV1@_NH@Z ; CCtrl::DoActiveSkill
$LN2@SetSkill:

; 441  : 	}
; 442  : }

  00029	5d		 pop	 ebp
  0002a	c2 08 00	 ret	 8
?SetSkill@CAIPet@@AAEXPAVCMover@@PAUItemProp@@@Z ENDP	; CAIPet::SetSkill
_TEXT	ENDS
; Function compile flags: /Ogtp
; File C:\IAGOS\server\v18\Source\Source\_AIInterface\AIPet.cpp
; File C:\IAGOS\server\v18\Source\Source\_Common\Obj.h
; File C:\IAGOS\server\v18\Source\Source\_AIInterface\AIPet.cpp
; File C:\IAGOS\server\v18\Source\Source\_Common\Item.h
; File C:\IAGOS\server\v18\Source\Source\_Common\Project.h
; File C:\IAGOS\server\v18\Source\Source\_Common\data.h
; File C:\IAGOS\server\v18\Source\Source\_Common\Project.h
; File C:\IAGOS\server\v18\Source\Source\_Common\Item.h
; File C:\IAGOS\server\v18\Source\Source\_AIInterface\AIPet.cpp
;	COMDAT ?ResetItem@CAIPet@@QAEXXZ
_TEXT	SEGMENT
?ResetItem@CAIPet@@QAEXXZ PROC				; CAIPet::ResetItem, COMDAT
; _this$ = ecx

; 445  : {	// ÁÖŔÎŔ¸·ÎşÎĹÍ ¸ÔĆę °˘Ľş Čż°ú Á¦°Ĺ

  00000	56		 push	 esi
  00001	8b f1		 mov	 esi, ecx

; 446  : 	CMover* pPlayer		= prj.GetMover( m_idOwner );

  00003	b9 00 00 00 00	 mov	 ecx, OFFSET ?prj@@3VCProject@@A ; prj
  00008	57		 push	 edi
  00009	ff 76 38	 push	 DWORD PTR [esi+56]
  0000c	e8 00 00 00 00	 call	 ?GetMover@CProject@@QAEPAVCMover@@K@Z ; CProject::GetMover
  00011	8b f8		 mov	 edi, eax
; File C:\IAGOS\server\v18\Source\Source\_Common\Obj.h

; 327  : 	return pObj && ( pObj->IsDelete() == FALSE ); 

  00013	85 ff		 test	 edi, edi
  00015	74 6d		 je	 SHORT $LN31@ResetItem

; 180  : 	BOOL			IsDelete()	{ return (m_dwFlags & OBJ_FLAG_DELETE);  }

  00017	f6 47 04 01	 test	 BYTE PTR [edi+4], 1

; 327  : 	return pObj && ( pObj->IsDelete() == FALSE ); 

  0001b	75 67		 jne	 SHORT $LN31@ResetItem
; File C:\IAGOS\server\v18\Source\Source\_AIInterface\AIPet.cpp

; 449  : 		CItemElem* pItem	= static_cast<CItemElem*>( pPlayer->GetItemId( m_idPetItem ) );

  0001d	53		 push	 ebx
  0001e	ff 76 4c	 push	 DWORD PTR [esi+76]
  00021	8b cf		 mov	 ecx, edi
  00023	e8 00 00 00 00	 call	 ?GetItemId@CMover@@QAEPAVCItemBase@@K@Z ; CMover::GetItemId
  00028	8b d8		 mov	 ebx, eax

; 450  : 		if( pItem && pItem->IsEatPet() )

  0002a	85 db		 test	 ebx, ebx
  0002c	74 4b		 je	 SHORT $LN29@ResetItem
; File C:\IAGOS\server\v18\Source\Source\_Common\Item.h

; 230  : 	ItemProp*	GetProp()	{	return prj.GetItemProp( m_dwItemId );	}

  0002e	8b 4b 0c	 mov	 ecx, DWORD PTR [ebx+12]
; File C:\IAGOS\server\v18\Source\Source\_Common\Project.h

; 1389 : 	VERIFY_RANGE_ASSERT( nIndex, 0, m_aPropItem.GetSize(), "GetItemProp range_error", NULL );

  00031	8b 15 40 02 00
	00		 mov	 edx, DWORD PTR ?prj@@3VCProject@@A+576
  00037	85 c9		 test	 ecx, ecx
  00039	78 10		 js	 SHORT $LN20@ResetItem
  0003b	3b ca		 cmp	 ecx, edx
  0003d	7d 0c		 jge	 SHORT $LN20@ResetItem
; File C:\IAGOS\server\v18\Source\Source\_Common\data.h

; 270  : 	if( dwIndex >= (DWORD)m_nMaxIndex )

  0003f	73 20		 jae	 SHORT $LN40@ResetItem

; 271  : 		return NULL;
; 272  : 	return (T*) m_apOffset[ dwIndex ];

  00041	a1 30 02 00 00	 mov	 eax, DWORD PTR ?prj@@3VCProject@@A+560
  00046	8b 04 88	 mov	 eax, DWORD PTR [eax+ecx*4]
; File C:\IAGOS\server\v18\Source\Source\_Common\Project.h

; 1390 : 	return m_aPropItem.GetAt( nIndex ); 

  00049	eb 18		 jmp	 SHORT $LN15@ResetItem
$LN20@ResetItem:

; 579  : 	LPCTSTR szErr = Error( _T( "%s min:%d, max:%d, index:%d" ), szMsg, nMin, nMax, nIndex ); 

  0004b	51		 push	 ecx
  0004c	52		 push	 edx
  0004d	6a 00		 push	 0
  0004f	68 00 00 00 00	 push	 OFFSET ??_C@_0BI@BEIFNGEL@GetItemProp?5range_error@
  00054	68 00 00 00 00	 push	 OFFSET ??_C@_0BM@HMFGHCP@?$CFs?5min?3?$CFd?0?5max?3?$CFd?0?5index?3?$CFd@
  00059	e8 00 00 00 00	 call	 ?Error@@YAPBDPBDZZ	; Error
  0005e	83 c4 14	 add	 esp, 20			; 00000014H
$LN40@ResetItem:
; File C:\IAGOS\server\v18\Source\Source\_Common\Item.h

; 218  : 	BOOL	IsEatPet( void )	{	return GetProp()->dwItemKind3 == IK3_PET;	}

  00061	33 c0		 xor	 eax, eax
$LN15@ResetItem:
  00063	83 78 78 64	 cmp	 DWORD PTR [eax+120], 100 ; 00000064H
; File C:\IAGOS\server\v18\Source\Source\_AIInterface\AIPet.cpp

; 450  : 		if( pItem && pItem->IsEatPet() )

  00067	75 10		 jne	 SHORT $LN29@ResetItem

; 451  : 		{
; 452  : 			pPlayer->ResetDestParamRandomOptExtension( pItem );

  00069	53		 push	 ebx
  0006a	8b cf		 mov	 ecx, edi
  0006c	e8 00 00 00 00	 call	 ?ResetDestParamRandomOptExtension@CMover@@QAEXPAVCItemElem@@@Z ; CMover::ResetDestParamRandomOptExtension

; 453  : 			ResetSkill( pPlayer );	// »çżë żą ľřŔ˝

  00071	57		 push	 edi
  00072	8b ce		 mov	 ecx, esi
  00074	e8 00 00 00 00	 call	 ?ResetSkill@CAIPet@@AAEXPAVCMover@@@Z ; CAIPet::ResetSkill
$LN29@ResetItem:

; 454  : 		}
; 455  : 	}
; 456  : 	m_idPetItem		= NULL_ID;

  00079	5b		 pop	 ebx
  0007a	5f		 pop	 edi
  0007b	c7 46 4c ff ff
	ff ff		 mov	 DWORD PTR [esi+76], -1

; 457  : }

  00082	5e		 pop	 esi
  00083	c3		 ret	 0
$LN31@ResetItem:
  00084	5f		 pop	 edi
  00085	c7 46 4c ff ff
	ff ff		 mov	 DWORD PTR [esi+76], -1
  0008c	5e		 pop	 esi
  0008d	c3		 ret	 0
?ResetItem@CAIPet@@QAEXXZ ENDP				; CAIPet::ResetItem
_TEXT	ENDS
; Function compile flags: /Ogtp
; File C:\IAGOS\server\v18\Source\Source\_AIInterface\AIPet.cpp
; File C:\IAGOS\server\v18\Source\Source\_Common\Item.h
; File C:\IAGOS\server\v18\Source\Source\_Common\Project.h
; File C:\IAGOS\server\v18\Source\Source\_Common\data.h
; File C:\IAGOS\server\v18\Source\Source\_AIInterface\AIPet.cpp
; File C:\IAGOS\server\v18\Source\Source\_Common\data.h
; File C:\IAGOS\server\v18\Source\Source\_AIInterface\AIPet.cpp
; File C:\IAGOS\server\v18\Source\Source\_Common\Project.h
; File C:\IAGOS\server\v18\Source\Source\_AIInterface\AIPet.cpp
;	COMDAT ?SetItem@CAIPet@@QAEXPAVCMover@@PAVCItemElem@@@Z
_TEXT	SEGMENT
_pPlayer$ = 8						; size = 4
_pItem$ = 12						; size = 4
?SetItem@CAIPet@@QAEXPAVCMover@@PAVCItemElem@@@Z PROC	; CAIPet::SetItem, COMDAT
; _this$ = ecx

; 428  : {	// »çżëŔÚżˇ°Ô ¸ÔĆę °˘Ľş Čż°ú Ŕűżë

  00000	55		 push	 ebp
  00001	8b ec		 mov	 ebp, esp
  00003	56		 push	 esi

; 429  : 	m_idPetItem		= pItem->m_dwObjId;

  00004	8b 75 0c	 mov	 esi, DWORD PTR _pItem$[ebp]
  00007	57		 push	 edi
  00008	8b f9		 mov	 edi, ecx

; 430  : 	pPlayer->SetDestParamRandomOptExtension( pItem );

  0000a	8b 4d 08	 mov	 ecx, DWORD PTR _pPlayer$[ebp]
  0000d	56		 push	 esi
  0000e	8b 46 04	 mov	 eax, DWORD PTR [esi+4]
  00011	89 47 4c	 mov	 DWORD PTR [edi+76], eax
  00014	e8 00 00 00 00	 call	 ?SetDestParamRandomOptExtension@CMover@@QAEXPAVCItemElem@@@Z ; CMover::SetDestParamRandomOptExtension
; File C:\IAGOS\server\v18\Source\Source\_Common\Item.h

; 230  : 	ItemProp*	GetProp()	{	return prj.GetItemProp( m_dwItemId );	}

  00019	8b 56 0c	 mov	 edx, DWORD PTR [esi+12]
; File C:\IAGOS\server\v18\Source\Source\_Common\Project.h

; 1389 : 	VERIFY_RANGE_ASSERT( nIndex, 0, m_aPropItem.GetSize(), "GetItemProp range_error", NULL );

  0001c	a1 40 02 00 00	 mov	 eax, DWORD PTR ?prj@@3VCProject@@A+576
  00021	85 d2		 test	 edx, edx
  00023	78 1f		 js	 SHORT $LN10@SetItem
  00025	3b d0		 cmp	 edx, eax
  00027	7d 1b		 jge	 SHORT $LN10@SetItem
; File C:\IAGOS\server\v18\Source\Source\_Common\data.h

; 270  : 	if( dwIndex >= (DWORD)m_nMaxIndex )

  00029	73 2f		 jae	 SHORT $LN20@SetItem

; 272  : 	return (T*) m_apOffset[ dwIndex ];

  0002b	a1 30 02 00 00	 mov	 eax, DWORD PTR ?prj@@3VCProject@@A+560
; File C:\IAGOS\server\v18\Source\Source\_AIInterface\AIPet.cpp

; 431  : 	SetSkill( pPlayer, pItem->GetProp() );		// ÇöŔç »çżë żą ľřŔ˝

  00030	8b cf		 mov	 ecx, edi
; File C:\IAGOS\server\v18\Source\Source\_Common\data.h

; 272  : 	return (T*) m_apOffset[ dwIndex ];

  00032	8b 04 90	 mov	 eax, DWORD PTR [eax+edx*4]
; File C:\IAGOS\server\v18\Source\Source\_AIInterface\AIPet.cpp

; 431  : 	SetSkill( pPlayer, pItem->GetProp() );		// ÇöŔç »çżë żą ľřŔ˝

  00035	50		 push	 eax
  00036	ff 75 08	 push	 DWORD PTR _pPlayer$[ebp]
  00039	e8 00 00 00 00	 call	 ?SetSkill@CAIPet@@AAEXPAVCMover@@PAUItemProp@@@Z ; CAIPet::SetSkill
  0003e	5f		 pop	 edi
  0003f	5e		 pop	 esi

; 432  : 																		// Ŕ±»óŔĚ ŔĚŔü ŔŰľ÷ şÎşĐŔ» ¸®ĆŃĹä¸µÇĎ¸éĽ­ ŔĚ°÷Ŕ¸·Î ŔĚµż ˝ĂĹ´
; 433  : }

  00040	5d		 pop	 ebp
  00041	c2 08 00	 ret	 8
$LN10@SetItem:
; File C:\IAGOS\server\v18\Source\Source\_Common\Project.h

; 579  : 	LPCTSTR szErr = Error( _T( "%s min:%d, max:%d, index:%d" ), szMsg, nMin, nMax, nIndex ); 

  00044	52		 push	 edx
  00045	50		 push	 eax
  00046	6a 00		 push	 0
  00048	68 00 00 00 00	 push	 OFFSET ??_C@_0BI@BEIFNGEL@GetItemProp?5range_error@
  0004d	68 00 00 00 00	 push	 OFFSET ??_C@_0BM@HMFGHCP@?$CFs?5min?3?$CFd?0?5max?3?$CFd?0?5index?3?$CFd@
  00052	e8 00 00 00 00	 call	 ?Error@@YAPBDPBDZZ	; Error
  00057	83 c4 14	 add	 esp, 20			; 00000014H
$LN20@SetItem:
; File C:\IAGOS\server\v18\Source\Source\_AIInterface\AIPet.cpp

; 431  : 	SetSkill( pPlayer, pItem->GetProp() );		// ÇöŔç »çżë żą ľřŔ˝

  0005a	33 c0		 xor	 eax, eax
  0005c	8b cf		 mov	 ecx, edi
  0005e	50		 push	 eax
  0005f	ff 75 08	 push	 DWORD PTR _pPlayer$[ebp]
  00062	e8 00 00 00 00	 call	 ?SetSkill@CAIPet@@AAEXPAVCMover@@PAUItemProp@@@Z ; CAIPet::SetSkill
  00067	5f		 pop	 edi
  00068	5e		 pop	 esi

; 432  : 																		// Ŕ±»óŔĚ ŔĚŔü ŔŰľ÷ şÎşĐŔ» ¸®ĆŃĹä¸µÇĎ¸éĽ­ ŔĚ°÷Ŕ¸·Î ŔĚµż ˝ĂĹ´
; 433  : }

  00069	5d		 pop	 ebp
  0006a	c2 08 00	 ret	 8
?SetItem@CAIPet@@QAEXPAVCMover@@PAVCItemElem@@@Z ENDP	; CAIPet::SetItem
_TEXT	ENDS
; Function compile flags: /Ogtp
; File C:\IAGOS\server\v18\Source\Source\_AIInterface\AIPet.cpp
; File C:\IAGOS\server\v18\Source\Source\_Common\Project.h
; File C:\IAGOS\server\v18\Source\Source\_AIInterface\AIPet.cpp
; File C:\IAGOS\server\v18\Source\Source\_Common\Mover.h
; File C:\IAGOS\server\v18\Source\Source\_AIInterface\AIPet.cpp
; File C:\IAGOS\server\v18\Source\Source\_Common\Project.h
; File C:\IAGOS\server\v18\Source\Source\_Common\Obj.h
; File C:\IAGOS\server\v18\Source\Source\_AIInterface\AIPet.cpp
; File C:\IAGOS\server\v18\Source\Source\_Common\Obj.h
; File C:\IAGOS\server\v18\Source\Source\DX_SDK\d3dx9math.inl
; File C:\IAGOS\server\v18\Source\Source\_Common\Obj.h
; File C:\IAGOS\server\v18\Source\Source\DX_SDK\d3dx9math.inl
; File C:\IAGOS\server\v18\Source\Source\_AIInterface\AIPet.cpp
; File C:\IAGOS\server\v18\Source\Source\DX_SDK\d3dx9math.inl
; File C:\IAGOS\server\v18\Source\Source\_AIInterface\AIPet.cpp
; File C:\IAGOS\server\v18\Source\Source\_Common\Item.h
; File C:\IAGOS\server\v18\Source\Source\_Common\Project.h
; File C:\IAGOS\server\v18\Source\Source\_Common\data.h
; File C:\IAGOS\server\v18\Source\Source\_Common\Project.h
; File C:\IAGOS\server\v18\Source\Source\_Common\Obj.h
; File C:\IAGOS\server\v18\Source\Source\_AIInterface\AIPet.cpp
; File C:\IAGOS\server\v18\Source\Source\_Common\Obj.h
; File C:\IAGOS\server\v18\Source\Source\DX_SDK\d3dx9math.inl
; File C:\IAGOS\server\v18\Source\Source\_Common\Obj.h
; File C:\IAGOS\server\v18\Source\Source\DX_SDK\d3dx9math.inl
; File C:\IAGOS\server\v18\Source\Source\_AIInterface\AIPet.cpp
; File C:\IAGOS\server\v18\Source\Source\DX_SDK\d3dx9math.inl
; File C:\IAGOS\server\v18\Source\Source\_AIInterface\AIPet.cpp
; File C:\IAGOS\server\v18\Source\Source\_Common\Obj.h
; File C:\IAGOS\server\v18\Source\Source\_AIInterface\AIPet.cpp
;	COMDAT ?SubItemLoot@CAIPet@@QAEHXZ
_TEXT	SEGMENT
_vPos$ = -104						; size = 12
tv1038 = -92						; size = 4
_pOwner$1$ = -88					; size = 4
__pObjs$1$ = -84					; size = 4
__nLinkZ$1$ = -80					; size = 4
__nLinkX$1$ = -76					; size = 4
_pMover$1$ = -72					; size = 4
__i$1$ = -68						; size = 4
tv1036 = -64						; size = 4
__j$1$ = -60						; size = 4
tv1016 = -56						; size = 4
$T1 = -52						; size = 12
$T2 = -52						; size = 12
$T3 = -40						; size = 12
$T4 = -40						; size = 12
_pMinObj$1$ = -28					; size = 4
__nMaxWidth$1$ = -24					; size = 4
tv1024 = -20						; size = 4
$T5 = -20						; size = 4
tv1037 = -16						; size = 4
__nUnit$1$ = -16					; size = 4
_this$1$ = -12						; size = 4
_pWorld$1$ = -8						; size = 4
__$ArrayPad$ = -4					; size = 4
?SubItemLoot@CAIPet@@QAEHXZ PROC			; CAIPet::SubItemLoot, COMDAT
; _this$ = ecx

; 106  : {

  00000	55		 push	 ebp
  00001	8b ec		 mov	 ebp, esp
  00003	83 ec 68	 sub	 esp, 104		; 00000068H
  00006	a1 00 00 00 00	 mov	 eax, DWORD PTR ___security_cookie
  0000b	33 c5		 xor	 eax, ebp
  0000d	89 45 fc	 mov	 DWORD PTR __$ArrayPad$[ebp], eax
  00010	53		 push	 ebx
  00011	56		 push	 esi
  00012	8b f1		 mov	 esi, ecx

; 108  : 	CMover* pOwner = prj.GetMover( m_idOwner );

  00014	b9 00 00 00 00	 mov	 ecx, OFFSET ?prj@@3VCProject@@A ; prj
  00019	57		 push	 edi
  0001a	89 75 f4	 mov	 DWORD PTR _this$1$[ebp], esi
  0001d	8b 5e 30	 mov	 ebx, DWORD PTR [esi+48]
  00020	ff 76 38	 push	 DWORD PTR [esi+56]
  00023	89 5d b8	 mov	 DWORD PTR _pMover$1$[ebp], ebx
  00026	e8 00 00 00 00	 call	 ?GetMover@CProject@@QAEPAVCMover@@K@Z ; CProject::GetMover

; 109  : 	CWorld* pWorld = GetWorld();

  0002b	8b 4e 30	 mov	 ecx, DWORD PTR [esi+48]
  0002e	8b f8		 mov	 edi, eax
; File C:\IAGOS\server\v18\Source\Source\_Common\Project.h

; 1406 : 	VERIFY_RANGE( nIndex, 0, m_nMoverPropSize, "GetMoverProp range_error", NULL );

  00030	8b 15 b4 01 00
	00		 mov	 edx, DWORD PTR ?prj@@3VCProject@@A+436
; File C:\IAGOS\server\v18\Source\Source\_AIInterface\AIPet.cpp

; 108  : 	CMover* pOwner = prj.GetMover( m_idOwner );

  00036	89 7d a8	 mov	 DWORD PTR _pOwner$1$[ebp], edi

; 109  : 	CWorld* pWorld = GetWorld();

  00039	8b 81 6c 01 00
	00		 mov	 eax, DWORD PTR [ecx+364]
; File C:\IAGOS\server\v18\Source\Source\_Common\Mover.h

; 1020 : 	MoverProp*		GetProp() { return prj.GetMoverProp( m_dwIndex ); }	// °´ĂĽŔÇ ÇÁ·ÎĆŰĆĽ ľň±â 	

  0003f	8b 8b 74 01 00
	00		 mov	 ecx, DWORD PTR [ebx+372]
; File C:\IAGOS\server\v18\Source\Source\_AIInterface\AIPet.cpp

; 109  : 	CWorld* pWorld = GetWorld();

  00045	89 45 f8	 mov	 DWORD PTR _pWorld$1$[ebp], eax
; File C:\IAGOS\server\v18\Source\Source\_Common\Project.h

; 1406 : 	VERIFY_RANGE( nIndex, 0, m_nMoverPropSize, "GetMoverProp range_error", NULL );

  00048	85 c9		 test	 ecx, ecx
  0004a	78 04		 js	 SHORT $LN62@SubItemLoo
  0004c	3b ca		 cmp	 ecx, edx
  0004e	7c 16		 jl	 SHORT $LN57@SubItemLoo
$LN62@SubItemLoo:

; 579  : 	LPCTSTR szErr = Error( _T( "%s min:%d, max:%d, index:%d" ), szMsg, nMin, nMax, nIndex ); 

  00050	51		 push	 ecx
  00051	52		 push	 edx
  00052	6a 00		 push	 0
  00054	68 00 00 00 00	 push	 OFFSET ??_C@_0BJ@GKPOBPPI@GetMoverProp?5range_error@
  00059	68 00 00 00 00	 push	 OFFSET ??_C@_0BM@HMFGHCP@?$CFs?5min?3?$CFd?0?5max?3?$CFd?0?5index?3?$CFd@
  0005e	e8 00 00 00 00	 call	 ?Error@@YAPBDPBDZZ	; Error
  00063	83 c4 14	 add	 esp, 20			; 00000014H
$LN57@SubItemLoo:
; File C:\IAGOS\server\v18\Source\Source\_Common\Obj.h

; 215  : 	D3DXVECTOR3		GetPos()	{ return m_vPos; }

  00066	f3 0f 7e 83 60
	01 00 00	 movq	 xmm0, QWORD PTR [ebx+352]
; File C:\IAGOS\server\v18\Source\Source\_AIInterface\AIPet.cpp

; 116  : 	CObj *pMinObj = NULL;

  0006e	33 f6		 xor	 esi, esi
; File C:\IAGOS\server\v18\Source\Source\_Common\Obj.h

; 215  : 	D3DXVECTOR3		GetPos()	{ return m_vPos; }

  00070	8b 83 68 01 00
	00		 mov	 eax, DWORD PTR [ebx+360]
  00076	66 0f d6 45 98	 movq	 QWORD PTR _vPos$[ebp], xmm0
  0007b	f3 0f 7e c0	 movq	 xmm0, xmm0
  0007f	66 0f d6 45 cc	 movq	 QWORD PTR $T1[ebp], xmm0
  00084	f3 0f 7e 87 60
	01 00 00	 movq	 xmm0, QWORD PTR [edi+352]
  0008c	66 0f d6 45 d8	 movq	 QWORD PTR $T3[ebp], xmm0
; File C:\IAGOS\server\v18\Source\Source\DX_SDK\d3dx9math.inl

; 383  :     return D3DXVECTOR3(x - v.x, y - v.y, z - v.z);

  00091	f3 0f 10 4d d8	 movss	 xmm1, DWORD PTR $T3[ebp]
  00096	f3 0f 10 55 dc	 movss	 xmm2, DWORD PTR $T3[ebp+4]
  0009b	f3 0f 5c 55 d0	 subss	 xmm2, DWORD PTR $T1[ebp+4]
  000a0	f3 0f 5c 4d cc	 subss	 xmm1, DWORD PTR $T1[ebp]
; File C:\IAGOS\server\v18\Source\Source\_Common\Obj.h

; 215  : 	D3DXVECTOR3		GetPos()	{ return m_vPos; }

  000a5	89 45 d4	 mov	 DWORD PTR $T1[ebp+8], eax
  000a8	89 45 a0	 mov	 DWORD PTR _vPos$[ebp+8], eax
  000ab	8b 87 68 01 00
	00		 mov	 eax, DWORD PTR [edi+360]
  000b1	89 45 e0	 mov	 DWORD PTR $T3[ebp+8], eax
; File C:\IAGOS\server\v18\Source\Source\DX_SDK\d3dx9math.inl

; 383  :     return D3DXVECTOR3(x - v.x, y - v.y, z - v.z);

  000b4	f3 0f 10 45 e0	 movss	 xmm0, DWORD PTR $T3[ebp+8]
  000b9	f3 0f 5c 45 d4	 subss	 xmm0, DWORD PTR $T1[ebp+8]
; File C:\IAGOS\server\v18\Source\Source\_AIInterface\AIPet.cpp

; 118  : 	vDist = pOwner->GetPos() - pMover->GetPos();

  000be	f3 0f 59 d2	 mulss	 xmm2, xmm2
  000c2	89 75 e4	 mov	 DWORD PTR _pMinObj$1$[ebp], esi
; File C:\IAGOS\server\v18\Source\Source\DX_SDK\d3dx9math.inl

; 1698 :     return pV->x * pV->x + pV->y * pV->y + pV->z * pV->z;

  000c5	f3 0f 59 c9	 mulss	 xmm1, xmm1
  000c9	f3 0f 59 c0	 mulss	 xmm0, xmm0
  000cd	f3 0f 58 d1	 addss	 xmm2, xmm1
  000d1	f3 0f 58 d0	 addss	 xmm2, xmm0
; File C:\IAGOS\server\v18\Source\Source\_AIInterface\AIPet.cpp

; 120  : 	if( fDistSq > 32.0f * 32.0f )	// ÁÖŔÎ´Ô°úŔÇ °Ĺ¸®°ˇ 32ąĚĹÍ°ˇ łŃŔ¸¸é ľĆŔĚĹŰ ľČÁý´Â´Ů.

  000d5	0f 2f 15 00 00
	00 00		 comiss	 xmm2, DWORD PTR __real@44800000
  000dc	0f 87 4e 03 00
	00		 ja	 $LN108@SubItemLoo

; 121  : 		return FALSE;
; 122  : 
; 123  : 	if( pOwner && pOwner->IsFly() )

  000e2	8b 87 38 02 00
	00		 mov	 eax, DWORD PTR [edi+568]
  000e8	f6 40 08 08	 test	 BYTE PTR [eax+8], 8
  000ec	0f 85 3e 03 00
	00		 jne	 $LN108@SubItemLoo

; 124  : 		return FALSE;
; 125  : 		
; 126  : 	// ±ŮĂłŔÇ ľĆŔĚĹŰŔ» °Ë»öÇÔ. - ÁÖŔÎ´Ô˛¨¸¸ °Ë»öÇŘľßÇŇµí...
; 127  : 	FOR_LINKMAP( pWorld, vPos, pObj, nRange, CObj::linkDynamic, pMover->GetLayer() )

  000f2	8b 45 f8	 mov	 eax, DWORD PTR _pWorld$1$[ebp]
  000f5	33 ff		 xor	 edi, edi
  000f7	f3 0f 10 45 98	 movss	 xmm0, DWORD PTR _vPos$[ebp]
  000fc	ff b3 b8 01 00
	00		 push	 DWORD PTR [ebx+440]
  00102	89 7d bc	 mov	 DWORD PTR __i$1$[ebp], edi
  00105	66 0f 6e 48 14	 movd	 xmm1, DWORD PTR [eax+20]
  0010a	8d 70 24	 lea	 esi, DWORD PTR [eax+36]
  0010d	0f 5b c9	 cvtdq2ps xmm1, xmm1
  00110	6a 01		 push	 1
  00112	f3 0f 5e c1	 divss	 xmm0, xmm1
  00116	f3 0f 2c c8	 cvttss2si ecx, xmm0
  0011a	f3 0f 10 45 a0	 movss	 xmm0, DWORD PTR _vPos$[ebp+8]
  0011f	f3 0f 5e c1	 divss	 xmm0, xmm1
  00123	89 4d b4	 mov	 DWORD PTR __nLinkX$1$[ebp], ecx
  00126	f3 0f 2c c8	 cvttss2si ecx, xmm0
  0012a	89 4d b0	 mov	 DWORD PTR __nLinkZ$1$[ebp], ecx
  0012d	8b ce		 mov	 ecx, esi
  0012f	e8 00 00 00 00	 call	 ?GetMaxLinkLevel@CLayeredLinkMap@@QAEHKH@Z ; CLayeredLinkMap::GetMaxLinkLevel
  00134	85 c0		 test	 eax, eax
  00136	0f 8e dd 02 00
	00		 jle	 $LN115@SubItemLoo
  0013c	0f 1f 40 00	 npad	 4
$LL4@SubItemLoo:
  00140	ff b3 b8 01 00
	00		 push	 DWORD PTR [ebx+440]
  00146	8b ce		 mov	 ecx, esi
  00148	57		 push	 edi
  00149	6a 01		 push	 1
  0014b	e8 00 00 00 00	 call	 ?GetLinkWidth@CLayeredLinkMap@@QAEHKHH@Z ; CLayeredLinkMap::GetLinkWidth
  00150	ff b3 b8 01 00
	00		 push	 DWORD PTR [ebx+440]
  00156	8b f0		 mov	 esi, eax
  00158	57		 push	 edi
  00159	8b 7d f8	 mov	 edi, DWORD PTR _pWorld$1$[ebp]
  0015c	6a 01		 push	 1
  0015e	8d 4f 24	 lea	 ecx, DWORD PTR [edi+36]
  00161	e8 00 00 00 00	 call	 ?GetObj@CLayeredLinkMap@@QAEPAPAVCObj@@KKH@Z ; CLayeredLinkMap::GetObj
  00166	89 45 ac	 mov	 DWORD PTR __pObjs$1$[ebp], eax
  00169	8b 47 04	 mov	 eax, DWORD PTR [edi+4]
  0016c	8b d8		 mov	 ebx, eax
  0016e	c1 e0 07	 shl	 eax, 7
  00171	0f af de	 imul	 ebx, esi
  00174	99		 cdq
  00175	8b 4f 08	 mov	 ecx, DWORD PTR [edi+8]
  00178	0f af ce	 imul	 ecx, esi
  0017b	f7 fb		 idiv	 ebx
  0017d	89 4d ec	 mov	 DWORD PTR tv1024[ebp], ecx
  00180	8b 4d f8	 mov	 ecx, DWORD PTR _pWorld$1$[ebp]
  00183	8b f8		 mov	 edi, eax
  00185	89 5d e8	 mov	 DWORD PTR __nMaxWidth$1$[ebp], ebx
  00188	89 7d f0	 mov	 DWORD PTR __nUnit$1$[ebp], edi
  0018b	8b 41 14	 mov	 eax, DWORD PTR [ecx+20]
  0018e	0f af c7	 imul	 eax, edi
  00191	99		 cdq
  00192	2b c2		 sub	 eax, edx
  00194	8b d8		 mov	 ebx, eax
  00196	8b 45 b4	 mov	 eax, DWORD PTR __nLinkX$1$[ebp]
  00199	99		 cdq
  0019a	f7 ff		 idiv	 edi
  0019c	d1 fb		 sar	 ebx, 1
  0019e	8b f0		 mov	 esi, eax
  001a0	8b 45 b0	 mov	 eax, DWORD PTR __nLinkZ$1$[ebp]
  001a3	99		 cdq
  001a4	f7 ff		 idiv	 edi
  001a6	8b d6		 mov	 edx, esi
  001a8	0f af 51 14	 imul	 edx, DWORD PTR [ecx+20]
  001ac	8b f8		 mov	 edi, eax
  001ae	f3 0f 2c 45 98	 cvttss2si eax, DWORD PTR _vPos$[ebp]
  001b3	0f af 55 f0	 imul	 edx, DWORD PTR __nUnit$1$[ebp]
  001b7	2b c2		 sub	 eax, edx
  001b9	33 d2		 xor	 edx, edx
  001bb	3b c3		 cmp	 eax, ebx
  001bd	0f 9f c2	 setg	 dl
  001c0	33 c9		 xor	 ecx, ecx
  001c2	03 d6		 add	 edx, esi
  001c4	8d 42 ff	 lea	 eax, DWORD PTR [edx-1]
  001c7	85 c0		 test	 eax, eax
  001c9	0f 49 c8	 cmovns	 ecx, eax
  001cc	8b 45 f8	 mov	 eax, DWORD PTR _pWorld$1$[ebp]
  001cf	89 4d c0	 mov	 DWORD PTR tv1036[ebp], ecx
  001d2	8b cf		 mov	 ecx, edi
  001d4	0f af 48 14	 imul	 ecx, DWORD PTR [eax+20]
  001d8	f3 0f 2c 45 a0	 cvttss2si eax, DWORD PTR _vPos$[ebp+8]
  001dd	0f af 4d f0	 imul	 ecx, DWORD PTR __nUnit$1$[ebp]
  001e1	2b c1		 sub	 eax, ecx
  001e3	33 c9		 xor	 ecx, ecx
  001e5	3b c3		 cmp	 eax, ebx
  001e7	8b 5d e8	 mov	 ebx, DWORD PTR __nMaxWidth$1$[ebp]
  001ea	0f 9f c1	 setg	 cl
  001ed	3b d3		 cmp	 edx, ebx
  001ef	8d 73 ff	 lea	 esi, DWORD PTR [ebx-1]
  001f2	0f 4c f2	 cmovl	 esi, edx
  001f5	8b 55 ec	 mov	 edx, DWORD PTR tv1024[ebp]
  001f8	8d 04 39	 lea	 eax, DWORD PTR [ecx+edi]
  001fb	89 75 f0	 mov	 DWORD PTR tv1037[ebp], esi
  001fe	3b c2		 cmp	 eax, edx
  00200	8d 48 ff	 lea	 ecx, DWORD PTR [eax-1]
  00203	8d 7a ff	 lea	 edi, DWORD PTR [edx-1]
  00206	0f 4c f8	 cmovl	 edi, eax
  00209	33 f6		 xor	 esi, esi
  0020b	85 c9		 test	 ecx, ecx
  0020d	89 7d a4	 mov	 DWORD PTR tv1038[ebp], edi
  00210	0f 49 f1	 cmovns	 esi, ecx
  00213	89 75 c4	 mov	 DWORD PTR __j$1$[ebp], esi
  00216	3b f7		 cmp	 esi, edi
  00218	0f 8f 70 01 00
	00		 jg	 $LN2@SubItemLoo
  0021e	8b 55 f0	 mov	 edx, DWORD PTR tv1037[ebp]
  00221	8b c6		 mov	 eax, esi
  00223	8b 4d e8	 mov	 ecx, DWORD PTR __nMaxWidth$1$[ebp]
  00226	0f af c3	 imul	 eax, ebx
  00229	8b 5d c0	 mov	 ebx, DWORD PTR tv1036[ebp]
  0022c	03 c3		 add	 eax, ebx
  0022e	89 45 ec	 mov	 DWORD PTR $T5[ebp], eax
$LL7@SubItemLoo:
  00231	3b da		 cmp	 ebx, edx
  00233	0f 8f 41 01 00
	00		 jg	 $LN5@SubItemLoo
  00239	8b 4d ac	 mov	 ecx, DWORD PTR __pObjs$1$[ebp]
  0023c	8d 0c 81	 lea	 ecx, DWORD PTR [ecx+eax*4]
  0023f	89 4d c8	 mov	 DWORD PTR tv1016[ebp], ecx
$LL10@SubItemLoo:
  00242	8b 31		 mov	 esi, DWORD PTR [ecx]
  00244	bf e8 03 00 00	 mov	 edi, 1000		; 000003e8H
  00249	85 f6		 test	 esi, esi
  0024b	0f 84 0e 01 00
	00		 je	 $LN8@SubItemLoo
$LL11@SubItemLoo:
  00251	8b c7		 mov	 eax, edi
  00253	4f		 dec	 edi
  00254	85 c0		 test	 eax, eax
  00256	0f 84 fd 00 00
	00		 je	 $LN111@SubItemLoo

; 128  : 	{
; 129  : 		if( pObj->GetType() == OT_ITEM )	// ľĆĹŰ¸¸ °Ë»ö

  0025c	83 be 70 01 00
	00 04		 cmp	 DWORD PTR [esi+368], 4
  00263	0f 85 e2 00 00
	00		 jne	 $LN110@SubItemLoo
; File C:\IAGOS\server\v18\Source\Source\_Common\Item.h

; 987  : 	ItemProp* GetProp() { return prj.GetItemProp( GetIndex() ); }

  00269	8b 8e 74 01 00
	00		 mov	 ecx, DWORD PTR [esi+372]
; File C:\IAGOS\server\v18\Source\Source\_Common\Project.h

; 1389 : 	VERIFY_RANGE_ASSERT( nIndex, 0, m_aPropItem.GetSize(), "GetItemProp range_error", NULL );

  0026f	85 c9		 test	 ecx, ecx
  00271	78 14		 js	 SHORT $LN106@SubItemLoo
  00273	3b 0d 40 02 00
	00		 cmp	 ecx, DWORD PTR ?prj@@3VCProject@@A+576
  00279	7d 0c		 jge	 SHORT $LN106@SubItemLoo
; File C:\IAGOS\server\v18\Source\Source\_Common\data.h

; 270  : 	if( dwIndex >= (DWORD)m_nMaxIndex )

  0027b	73 25		 jae	 SHORT $LN139@SubItemLoo

; 271  : 		return NULL;
; 272  : 	return (T*) m_apOffset[ dwIndex ];

  0027d	a1 30 02 00 00	 mov	 eax, DWORD PTR ?prj@@3VCProject@@A+560
  00282	8b 04 88	 mov	 eax, DWORD PTR [eax+ecx*4]
; File C:\IAGOS\server\v18\Source\Source\_Common\Project.h

; 1390 : 	return m_aPropItem.GetAt( nIndex ); 

  00285	eb 1d		 jmp	 SHORT $LN29@SubItemLoo
$LN106@SubItemLoo:

; 579  : 	LPCTSTR szErr = Error( _T( "%s min:%d, max:%d, index:%d" ), szMsg, nMin, nMax, nIndex ); 

  00287	51		 push	 ecx
  00288	ff 35 40 02 00
	00		 push	 DWORD PTR ?prj@@3VCProject@@A+576
  0028e	6a 00		 push	 0
  00290	68 00 00 00 00	 push	 OFFSET ??_C@_0BI@BEIFNGEL@GetItemProp?5range_error@
  00295	68 00 00 00 00	 push	 OFFSET ??_C@_0BM@HMFGHCP@?$CFs?5min?3?$CFd?0?5max?3?$CFd?0?5index?3?$CFd@
  0029a	e8 00 00 00 00	 call	 ?Error@@YAPBDPBDZZ	; Error
  0029f	83 c4 14	 add	 esp, 20			; 00000014H
$LN139@SubItemLoo:
; File C:\IAGOS\server\v18\Source\Source\_Common\Obj.h

; 180  : 	BOOL			IsDelete()	{ return (m_dwFlags & OBJ_FLAG_DELETE);  }

  002a2	33 c0		 xor	 eax, eax
$LN29@SubItemLoo:
  002a4	f6 46 04 01	 test	 BYTE PTR [esi+4], 1
; File C:\IAGOS\server\v18\Source\Source\_AIInterface\AIPet.cpp

; 136  : 			if( pItem->IsDelete() == FALSE )

  002a8	0f 85 9d 00 00
	00		 jne	 $LN110@SubItemLoo

; 137  : 			{
; 138  : 				if( pItemProp )

  002ae	85 c0		 test	 eax, eax
  002b0	0f 84 95 00 00
	00		 je	 $LN110@SubItemLoo

; 139  : 				{
; 140  : 					if( pOwner->IsLoot( pItem, TRUE ) )	// ·çĆĂµÇ´ÂľĆŔĚĹŰŔÎÁö °Ë»çÇÔ.

  002b6	8b 4d a8	 mov	 ecx, DWORD PTR _pOwner$1$[ebp]
  002b9	6a 01		 push	 1
  002bb	56		 push	 esi
  002bc	e8 00 00 00 00	 call	 ?IsLoot@CMover@@QAEHPAVCItem@@H@Z ; CMover::IsLoot
  002c1	85 c0		 test	 eax, eax
  002c3	0f 84 82 00 00
	00		 je	 $LN110@SubItemLoo
; File C:\IAGOS\server\v18\Source\Source\_Common\Obj.h

; 215  : 	D3DXVECTOR3		GetPos()	{ return m_vPos; }

  002c9	8b 45 b8	 mov	 eax, DWORD PTR _pMover$1$[ebp]
  002cc	f3 0f 7e 80 60
	01 00 00	 movq	 xmm0, QWORD PTR [eax+352]
  002d4	8b 80 68 01 00
	00		 mov	 eax, DWORD PTR [eax+360]
  002da	66 0f d6 45 d8	 movq	 QWORD PTR $T4[ebp], xmm0
  002df	f3 0f 7e 86 60
	01 00 00	 movq	 xmm0, QWORD PTR [esi+352]
  002e7	66 0f d6 45 cc	 movq	 QWORD PTR $T2[ebp], xmm0
; File C:\IAGOS\server\v18\Source\Source\DX_SDK\d3dx9math.inl

; 383  :     return D3DXVECTOR3(x - v.x, y - v.y, z - v.z);

  002ec	f3 0f 10 4d cc	 movss	 xmm1, DWORD PTR $T2[ebp]
  002f1	f3 0f 10 55 d0	 movss	 xmm2, DWORD PTR $T2[ebp+4]
  002f6	f3 0f 5c 55 dc	 subss	 xmm2, DWORD PTR $T4[ebp+4]
  002fb	f3 0f 5c 4d d8	 subss	 xmm1, DWORD PTR $T4[ebp]
; File C:\IAGOS\server\v18\Source\Source\_Common\Obj.h

; 215  : 	D3DXVECTOR3		GetPos()	{ return m_vPos; }

  00300	89 45 e0	 mov	 DWORD PTR $T4[ebp+8], eax
  00303	8b 86 68 01 00
	00		 mov	 eax, DWORD PTR [esi+360]
  00309	89 45 d4	 mov	 DWORD PTR $T2[ebp+8], eax
; File C:\IAGOS\server\v18\Source\Source\DX_SDK\d3dx9math.inl

; 383  :     return D3DXVECTOR3(x - v.x, y - v.y, z - v.z);

  0030c	f3 0f 10 45 d4	 movss	 xmm0, DWORD PTR $T2[ebp+8]
  00311	f3 0f 5c 45 e0	 subss	 xmm0, DWORD PTR $T4[ebp+8]
; File C:\IAGOS\server\v18\Source\Source\_AIInterface\AIPet.cpp

; 142  : 						vDist = pObj->GetPos() - pMover->GetPos();

  00316	f3 0f 59 d2	 mulss	 xmm2, xmm2
; File C:\IAGOS\server\v18\Source\Source\DX_SDK\d3dx9math.inl

; 1698 :     return pV->x * pV->x + pV->y * pV->y + pV->z * pV->z;

  0031a	f3 0f 59 c9	 mulss	 xmm1, xmm1
  0031e	f3 0f 59 c0	 mulss	 xmm0, xmm0
  00322	f3 0f 58 d1	 addss	 xmm2, xmm1
  00326	f3 0f 58 d0	 addss	 xmm2, xmm0
; File C:\IAGOS\server\v18\Source\Source\_AIInterface\AIPet.cpp

; 144  : 						if( fDistSq < 15 * 15 && fDistSq < fMinDist )	// 10ąĚĹÍ ŔĚł»°í... °ˇŔĺ °Ĺ¸®°ˇ °ˇ±îżî ľĆĹŰŔ» ĂŁŔ˝.

  0032a	f3 0f 10 05 00
	00 00 00	 movss	 xmm0, DWORD PTR __real@43610000
  00332	0f 2f c2	 comiss	 xmm0, xmm2
  00335	76 14		 jbe	 SHORT $LN110@SubItemLoo
  00337	f3 0f 10 05 00
	00 00 00	 movss	 xmm0, DWORD PTR __real@4b18967f
  0033f	8b 45 e4	 mov	 eax, DWORD PTR _pMinObj$1$[ebp]
  00342	0f 2f c2	 comiss	 xmm0, xmm2
  00345	0f 47 c6	 cmova	 eax, esi
  00348	89 45 e4	 mov	 DWORD PTR _pMinObj$1$[ebp], eax
$LN110@SubItemLoo:

; 145  : 							pMinObj = pObj;
; 146  : 					}
; 147  : 				}
; 148  : 			}
; 149  : 		}
; 150  : 	}
; 151  : 	END_LINKMAP

  0034b	8b b6 80 01 00
	00		 mov	 esi, DWORD PTR [esi+384]
  00351	85 f6		 test	 esi, esi
  00353	0f 85 f8 fe ff
	ff		 jne	 $LL11@SubItemLoo
$LN111@SubItemLoo:
  00359	8b 4d c8	 mov	 ecx, DWORD PTR tv1016[ebp]
  0035c	8b 55 f0	 mov	 edx, DWORD PTR tv1037[ebp]
$LN8@SubItemLoo:

; 124  : 		return FALSE;
; 125  : 		
; 126  : 	// ±ŮĂłŔÇ ľĆŔĚĹŰŔ» °Ë»öÇÔ. - ÁÖŔÎ´Ô˛¨¸¸ °Ë»öÇŘľßÇŇµí...
; 127  : 	FOR_LINKMAP( pWorld, vPos, pObj, nRange, CObj::linkDynamic, pMover->GetLayer() )

  0035f	43		 inc	 ebx
  00360	83 c1 04	 add	 ecx, 4
  00363	89 4d c8	 mov	 DWORD PTR tv1016[ebp], ecx
  00366	3b da		 cmp	 ebx, edx
  00368	0f 8e d4 fe ff
	ff		 jle	 $LL10@SubItemLoo
  0036e	8b 75 c4	 mov	 esi, DWORD PTR __j$1$[ebp]
  00371	8b 45 ec	 mov	 eax, DWORD PTR $T5[ebp]
  00374	8b 4d e8	 mov	 ecx, DWORD PTR __nMaxWidth$1$[ebp]
  00377	8b 7d a4	 mov	 edi, DWORD PTR tv1038[ebp]
$LN5@SubItemLoo:
  0037a	8b 5d c0	 mov	 ebx, DWORD PTR tv1036[ebp]
  0037d	46		 inc	 esi
  0037e	03 c1		 add	 eax, ecx
  00380	89 75 c4	 mov	 DWORD PTR __j$1$[ebp], esi
  00383	89 45 ec	 mov	 DWORD PTR $T5[ebp], eax
  00386	3b f7		 cmp	 esi, edi
  00388	0f 8e a3 fe ff
	ff		 jle	 $LL7@SubItemLoo
$LN2@SubItemLoo:
  0038e	8b 5d b8	 mov	 ebx, DWORD PTR _pMover$1$[ebp]
  00391	8b 7d bc	 mov	 edi, DWORD PTR __i$1$[ebp]
  00394	8b 75 f8	 mov	 esi, DWORD PTR _pWorld$1$[ebp]
  00397	47		 inc	 edi
  00398	83 c6 24	 add	 esi, 36			; 00000024H
  0039b	89 7d bc	 mov	 DWORD PTR __i$1$[ebp], edi
  0039e	ff b3 b8 01 00
	00		 push	 DWORD PTR [ebx+440]
  003a4	8b ce		 mov	 ecx, esi
  003a6	6a 01		 push	 1
  003a8	e8 00 00 00 00	 call	 ?GetMaxLinkLevel@CLayeredLinkMap@@QAEHKH@Z ; CLayeredLinkMap::GetMaxLinkLevel
  003ad	3b f8		 cmp	 edi, eax
  003af	0f 8c 8b fd ff
	ff		 jl	 $LL4@SubItemLoo

; 152  : 
; 153  : 	if( pMinObj )

  003b5	8b 75 e4	 mov	 esi, DWORD PTR _pMinObj$1$[ebp]
  003b8	85 f6		 test	 esi, esi
  003ba	74 5d		 je	 SHORT $LN115@SubItemLoo

; 154  : 	{
; 155  : 		// Get object ID of the loot item
; 156  : 		DWORD dwIdLootItem = ((CItem *)pMinObj)->GetId();

  003bc	8b be bc 01 00
	00		 mov	 edi, DWORD PTR [esi+444]

; 157  : 
; 158  : 		// Get the item obj
; 159  : 		CCtrl *pCtrl = prj.GetCtrl( dwIdLootItem );	

  003c2	b9 00 00 00 00	 mov	 ecx, OFFSET ?prj@@3VCProject@@A ; prj
  003c7	57		 push	 edi
  003c8	e8 00 00 00 00	 call	 ?GetCtrl@CProject@@QAEPAVCCtrl@@K@Z ; CProject::GetCtrl
; File C:\IAGOS\server\v18\Source\Source\_Common\Obj.h

; 327  : 	return pObj && ( pObj->IsDelete() == FALSE ); 

  003cd	85 c0		 test	 eax, eax
  003cf	74 48		 je	 SHORT $LN115@SubItemLoo

; 180  : 	BOOL			IsDelete()	{ return (m_dwFlags & OBJ_FLAG_DELETE);  }

  003d1	f6 40 04 01	 test	 BYTE PTR [eax+4], 1

; 327  : 	return pObj && ( pObj->IsDelete() == FALSE ); 

  003d5	75 42		 jne	 SHORT $LN115@SubItemLoo
; File C:\IAGOS\server\v18\Source\Source\_AIInterface\AIPet.cpp

; 164  : 				MoveToDst( pMinObj->GetPos() );		// ¸ńÇĄÂĘŔ¸·Î ŔĚµż.

  003d7	f3 0f 7e 86 60
	01 00 00	 movq	 xmm0, QWORD PTR [esi+352]
  003df	83 ec 0c	 sub	 esp, 12			; 0000000cH
  003e2	8b 86 68 01 00
	00		 mov	 eax, DWORD PTR [esi+360]
  003e8	8b cc		 mov	 ecx, esp
  003ea	8b 75 f4	 mov	 esi, DWORD PTR _this$1$[ebp]
  003ed	66 0f d6 01	 movq	 QWORD PTR [ecx], xmm0
  003f1	89 41 08	 mov	 DWORD PTR [ecx+8], eax
  003f4	8b ce		 mov	 ecx, esi
  003f6	e8 00 00 00 00	 call	 ?MoveToDst@CAIPet@@AAEXUD3DXVECTOR3@@@Z ; CAIPet::MoveToDst

; 165  : 				m_idLootItem = dwIdLootItem;
; 166  : 				m_bLootMove = TRUE;

  003fb	c7 46 3c 01 00
	00 00		 mov	 DWORD PTR [esi+60], 1

; 167  : 		}
; 168  : 	}
; 169  : 		
; 170  : 	return m_bLootMove;

  00402	8b 46 3c	 mov	 eax, DWORD PTR [esi+60]
  00405	89 7e 40	 mov	 DWORD PTR [esi+64], edi

; 171  : }

  00408	5f		 pop	 edi
  00409	5e		 pop	 esi
  0040a	5b		 pop	 ebx
  0040b	8b 4d fc	 mov	 ecx, DWORD PTR __$ArrayPad$[ebp]
  0040e	33 cd		 xor	 ecx, ebp
  00410	e8 00 00 00 00	 call	 @__security_check_cookie@4
  00415	8b e5		 mov	 esp, ebp
  00417	5d		 pop	 ebp
  00418	c3		 ret	 0
$LN115@SubItemLoo:

; 167  : 		}
; 168  : 	}
; 169  : 		
; 170  : 	return m_bLootMove;

  00419	8b 75 f4	 mov	 esi, DWORD PTR _this$1$[ebp]
  0041c	8b 46 3c	 mov	 eax, DWORD PTR [esi+60]

; 171  : }

  0041f	5f		 pop	 edi
  00420	5e		 pop	 esi
  00421	5b		 pop	 ebx
  00422	8b 4d fc	 mov	 ecx, DWORD PTR __$ArrayPad$[ebp]
  00425	33 cd		 xor	 ecx, ebp
  00427	e8 00 00 00 00	 call	 @__security_check_cookie@4
  0042c	8b e5		 mov	 esp, ebp
  0042e	5d		 pop	 ebp
  0042f	c3		 ret	 0
$LN108@SubItemLoo:
  00430	8b 4d fc	 mov	 ecx, DWORD PTR __$ArrayPad$[ebp]
  00433	33 c0		 xor	 eax, eax
  00435	5f		 pop	 edi
  00436	5e		 pop	 esi
  00437	33 cd		 xor	 ecx, ebp
  00439	5b		 pop	 ebx
  0043a	e8 00 00 00 00	 call	 @__security_check_cookie@4
  0043f	8b e5		 mov	 esp, ebp
  00441	5d		 pop	 ebp
  00442	c3		 ret	 0
?SubItemLoot@CAIPet@@QAEHXZ ENDP			; CAIPet::SubItemLoot
_TEXT	ENDS
; Function compile flags: /Ogtp
; File C:\IAGOS\server\v18\Source\Source\_AIInterface\AIPet.cpp
; File C:\IAGOS\server\v18\Source\Source\_Common\Obj.h
; File C:\IAGOS\server\v18\Source\Source\_AIInterface\AIPet.cpp
;	COMDAT ?StateRage@CAIPet@@QAEHABUAIMSG@@@Z
_TEXT	SEGMENT
_msg$ = 8						; size = 4
?StateRage@CAIPet@@QAEHABUAIMSG@@@Z PROC		; CAIPet::StateRage, COMDAT
; _this$ = ecx

; 359  : {

  00000	55		 push	 ebp
  00001	8b ec		 mov	 ebp, esp

; 360  : 	CMover* pMover = GetMover();

  00003	8b 41 30	 mov	 eax, DWORD PTR [ecx+48]
; File C:\IAGOS\server\v18\Source\Source\_Common\Obj.h

; 327  : 	return pObj && ( pObj->IsDelete() == FALSE ); 

  00006	85 c0		 test	 eax, eax
  00008	74 53		 je	 SHORT $LN35@StateRage

; 180  : 	BOOL			IsDelete()	{ return (m_dwFlags & OBJ_FLAG_DELETE);  }

  0000a	f6 40 04 01	 test	 BYTE PTR [eax+4], 1

; 327  : 	return pObj && ( pObj->IsDelete() == FALSE ); 

  0000e	75 4d		 jne	 SHORT $LN35@StateRage
; File C:\IAGOS\server\v18\Source\Source\_AIInterface\AIPet.cpp

; 367  : 	OnMessage( AIMSG_INIT ) 

  00010	8b 55 08	 mov	 edx, DWORD PTR _msg$[ebp]
  00013	8b 02		 mov	 eax, DWORD PTR [edx]
  00015	83 f8 01	 cmp	 eax, 1
  00018	74 10		 je	 SHORT $LN23@StateRage

; 368  : 
; 369  : 	///////////////////////////////////////////////////////////////////////////////////////////////////
; 370  : 	OnMessage( AIMSG_INIT_TARGETCLEAR )		// Ĺ¸°ŮŔ» Ĺ¬¸®ľîÇĎ°í ´ë±â¸đµĺ·Î µąľĆ°¨.

  0001a	83 f8 11	 cmp	 eax, 17			; 00000011H
  0001d	74 0b		 je	 SHORT $LN23@StateRage

; 371  : 		
; 372  : 	///////////////////////////////////////////////////////////////////////////////////////////////////
; 373  : 	OnMessage( AIMSG_PROCESS ) 

  0001f	83 f8 02	 cmp	 eax, 2
  00022	75 0f		 jne	 SHORT $LN9@StateRage

; 374  : 		MoveProcessRage( msg );

  00024	52		 push	 edx
  00025	e8 00 00 00 00	 call	 ?MoveProcessRage@CAIPet@@AAEHABUAIMSG@@@Z ; CAIPet::MoveProcessRage
$LN23@StateRage:

; 390  : 
; 391  : 	///////////////////////////////////////////////////////////////////////////////////////////////////
; 392  : 	OnMessage( AIMSG_ARRIVAL )
; 393  : 
; 394  : 	///////////////////////////////////////////////////////////////////////////////////////////////////
; 395  : 	OnMessage( AIMSG_EXIT )	
; 396  : //		SendAIMsg( AIMSG_SETPROCESS, FALSE );
; 397  : 
; 398  : 	EndAIHandler( )
; 399  : 	
; 400  : 	return TRUE;
; 401  : }

  0002a	b8 01 00 00 00	 mov	 eax, 1
  0002f	5d		 pop	 ebp
  00030	c2 04 00	 ret	 4
$LN9@StateRage:

; 375  : 		
; 376  : 	///////////////////////////////////////////////////////////////////////////////////////////////////
; 377  : 	OnMessage( AIMSG_DAMAGE ) 

  00033	83 f8 08	 cmp	 eax, 8
  00036	74 f2		 je	 SHORT $LN23@StateRage

; 378  : 
; 379  : 	///////////////////////////////////////////////////////////////////////////////////////////////////
; 380  : 	OnMessage( AIMSG_COLLISION )

  00038	83 f8 0a	 cmp	 eax, 10			; 0000000aH
  0003b	74 ed		 je	 SHORT $LN23@StateRage

; 381  : 	///////////////////////////////////////////////////////////////////////////////////////////////////
; 382  : 	OnMessage( AIMSG_DIE ) 

  0003d	83 f8 09	 cmp	 eax, 9
  00040	74 e8		 je	 SHORT $LN23@StateRage

; 383  : 	
; 384  : 	///////////////////////////////////////////////////////////////////////////////////////////////////
; 385  : 	OnMessage( AIMSG_DSTDIE ) 

  00042	83 f8 07	 cmp	 eax, 7
  00045	75 e3		 jne	 SHORT $LN23@StateRage

; 386  : 		SendAIMsg( AIMSG_SETSTATE, STATE_IDLE );

  00047	8b 01		 mov	 eax, DWORD PTR [ecx]
  00049	6a 00		 push	 0
  0004b	6a 00		 push	 0
  0004d	6a 02		 push	 2
  0004f	6a 04		 push	 4
  00051	ff 50 0c	 call	 DWORD PTR [eax+12]

; 387  : 
; 388  : 	///////////////////////////////////////////////////////////////////////////////////////////////////
; 389  : 	OnMessage( AIMSG_BEGINMOVE )

  00054	b8 01 00 00 00	 mov	 eax, 1

; 390  : 
; 391  : 	///////////////////////////////////////////////////////////////////////////////////////////////////
; 392  : 	OnMessage( AIMSG_ARRIVAL )
; 393  : 
; 394  : 	///////////////////////////////////////////////////////////////////////////////////////////////////
; 395  : 	OnMessage( AIMSG_EXIT )	
; 396  : //		SendAIMsg( AIMSG_SETPROCESS, FALSE );
; 397  : 
; 398  : 	EndAIHandler( )
; 399  : 	
; 400  : 	return TRUE;
; 401  : }

  00059	5d		 pop	 ebp
  0005a	c2 04 00	 ret	 4
$LN35@StateRage:

; 361  : 	CWorld* pWorld = GetWorld();
; 362  : 	if( IsInvalidObj(pMover) )	return FALSE;

  0005d	33 c0		 xor	 eax, eax

; 390  : 
; 391  : 	///////////////////////////////////////////////////////////////////////////////////////////////////
; 392  : 	OnMessage( AIMSG_ARRIVAL )
; 393  : 
; 394  : 	///////////////////////////////////////////////////////////////////////////////////////////////////
; 395  : 	OnMessage( AIMSG_EXIT )	
; 396  : //		SendAIMsg( AIMSG_SETPROCESS, FALSE );
; 397  : 
; 398  : 	EndAIHandler( )
; 399  : 	
; 400  : 	return TRUE;
; 401  : }

  0005f	5d		 pop	 ebp
  00060	c2 04 00	 ret	 4
?StateRage@CAIPet@@QAEHABUAIMSG@@@Z ENDP		; CAIPet::StateRage
_TEXT	ENDS
; Function compile flags: /Ogtp
; File C:\IAGOS\server\v18\Source\Source\_AIInterface\AIPet.cpp
; File C:\IAGOS\server\v18\Source\Source\_Common\Obj.h
; File C:\IAGOS\server\v18\Source\Source\_AIInterface\AIPet.cpp
; File C:\IAGOS\server\v18\Source\Source\_Common\Obj.h
; File C:\IAGOS\server\v18\Source\Source\DX_SDK\d3dx9math.inl
; File C:\IAGOS\server\v18\Source\Source\_Common\Obj.h
; File C:\IAGOS\server\v18\Source\Source\DX_SDK\d3dx9math.inl
; File C:\IAGOS\server\v18\Source\Source\_AIInterface\AIPet.cpp
; File C:\IAGOS\server\v18\Source\Source\_Common\Obj.h
; File C:\IAGOS\server\v18\Source\Source\_AIInterface\AIPet.cpp
;	COMDAT ?StateIdle@CAIPet@@QAEHABUAIMSG@@@Z
_TEXT	SEGMENT
$T1 = -28						; size = 12
$T2 = -16						; size = 12
_pMover$1$ = -4						; size = 4
_msg$ = 8						; size = 4
?StateIdle@CAIPet@@QAEHABUAIMSG@@@Z PROC		; CAIPet::StateIdle, COMDAT
; _this$ = ecx

; 260  : {

  00000	55		 push	 ebp
  00001	8b ec		 mov	 ebp, esp
  00003	83 ec 1c	 sub	 esp, 28			; 0000001cH
  00006	56		 push	 esi
  00007	8b f1		 mov	 esi, ecx

; 261  : 	CMover* pMover = GetMover();
; 262  : 	CWorld* pWorld = GetWorld();
; 263  : 
; 264  : 	BeginAIHandler( )
; 265  : 
; 266  : 	///////////////////////////////////////////////////////////////////////////////////////////////////
; 267  : 	OnMessage( AIMSG_INIT ) 

  00009	8b 4d 08	 mov	 ecx, DWORD PTR _msg$[ebp]
  0000c	8b 46 30	 mov	 eax, DWORD PTR [esi+48]
  0000f	89 45 fc	 mov	 DWORD PTR _pMover$1$[ebp], eax
  00012	8b 01		 mov	 eax, DWORD PTR [ecx]
  00014	83 f8 01	 cmp	 eax, 1
  00017	0f 84 4d 01 00
	00		 je	 $LN26@StateIdle

; 268  : //		SetStop( SEC( 0 ) );
; 269  : 	///////////////////////////////////////////////////////////////////////////////////////////////////
; 270  : 	OnMessage( AIMSG_INIT_TARGETCLEAR )

  0001d	83 f8 11	 cmp	 eax, 17			; 00000011H
  00020	0f 84 44 01 00
	00		 je	 $LN26@StateIdle

; 271  : //		m_dwIdTarget = NULL_ID;
; 272  : 			
; 273  : 	///////////////////////////////////////////////////////////////////////////////////////////////////
; 274  : 	OnMessage( AIMSG_PROCESS ) 

  00026	83 f8 02	 cmp	 eax, 2
  00029	75 14		 jne	 SHORT $LN8@StateIdle

; 275  : 		MoveProcessIdle( msg );

  0002b	51		 push	 ecx
  0002c	8b ce		 mov	 ecx, esi
  0002e	e8 00 00 00 00	 call	 ?MoveProcessIdle@CAIPet@@AAEHABUAIMSG@@@Z ; CAIPet::MoveProcessIdle

; 323  : 					}
; 324  : 				}
; 325  : 			}
; 326  : 		}
; 327  : 		
; 328  : 	///////////////////////////////////////////////////////////////////////////////////////////////////
; 329  : 	OnMessage( AIMSG_EXIT )	
; 330  : 
; 331  : 	EndAIHandler( )
; 332  : 
; 333  : 	return TRUE;
; 334  : }

  00033	b8 01 00 00 00	 mov	 eax, 1
  00038	5e		 pop	 esi
  00039	8b e5		 mov	 esp, ebp
  0003b	5d		 pop	 ebp
  0003c	c2 04 00	 ret	 4
$LN8@StateIdle:

; 276  : 
; 277  : 	///////////////////////////////////////////////////////////////////////////////////////////////////
; 278  : 	OnMessage( AIMSG_DAMAGE ) 

  0003f	83 f8 08	 cmp	 eax, 8
  00042	0f 84 22 01 00
	00		 je	 $LN26@StateIdle

; 279  : 
; 280  : 	///////////////////////////////////////////////////////////////////////////////////////////////////
; 281  : 	OnMessage( AIMSG_DIE ) 

  00048	83 f8 09	 cmp	 eax, 9
  0004b	75 1b		 jne	 SHORT $LN12@StateIdle

; 282  : 		SendAIMsg( AIMSG_EXIT );

  0004d	8b 06		 mov	 eax, DWORD PTR [esi]
  0004f	8b ce		 mov	 ecx, esi
  00051	6a 00		 push	 0
  00053	6a 00		 push	 0
  00055	6a 00		 push	 0
  00057	6a 12		 push	 18			; 00000012H
  00059	ff 50 0c	 call	 DWORD PTR [eax+12]

; 323  : 					}
; 324  : 				}
; 325  : 			}
; 326  : 		}
; 327  : 		
; 328  : 	///////////////////////////////////////////////////////////////////////////////////////////////////
; 329  : 	OnMessage( AIMSG_EXIT )	
; 330  : 
; 331  : 	EndAIHandler( )
; 332  : 
; 333  : 	return TRUE;
; 334  : }

  0005c	b8 01 00 00 00	 mov	 eax, 1
  00061	5e		 pop	 esi
  00062	8b e5		 mov	 esp, ebp
  00064	5d		 pop	 ebp
  00065	c2 04 00	 ret	 4
$LN12@StateIdle:

; 283  : 
; 284  : 	///////////////////////////////////////////////////////////////////////////////////////////////////
; 285  : 	OnMessage( AIMSG_COLLISION )

  00068	83 f8 0a	 cmp	 eax, 10			; 0000000aH
  0006b	0f 84 f9 00 00
	00		 je	 $LN26@StateIdle

; 286  : 
; 287  : 	///////////////////////////////////////////////////////////////////////////////////////////////////
; 288  : 	OnMessage( AIMSG_ARRIVAL )

  00071	83 f8 0b	 cmp	 eax, 11			; 0000000bH
  00074	0f 85 f0 00 00
	00		 jne	 $LN26@StateIdle

; 289  : 		{
; 290  : 			if( m_bLootMove )	// ľĆŔĚĹŰ ·çĆĂ¸đµĺż´Ŕ˝.

  0007a	83 7e 3c 00	 cmp	 DWORD PTR [esi+60], 0
  0007e	0f 84 e6 00 00
	00		 je	 $LN26@StateIdle

; 291  : 			{
; 292  : 				CMover *pOwner = prj.GetMover( m_idOwner );

  00084	53		 push	 ebx
  00085	ff 76 38	 push	 DWORD PTR [esi+56]
  00088	b9 00 00 00 00	 mov	 ecx, OFFSET ?prj@@3VCProject@@A ; prj
  0008d	e8 00 00 00 00	 call	 ?GetMover@CProject@@QAEPAVCMover@@K@Z ; CProject::GetMover
  00092	8b d8		 mov	 ebx, eax
; File C:\IAGOS\server\v18\Source\Source\_Common\Obj.h

; 327  : 	return pObj && ( pObj->IsDelete() == FALSE ); 

  00094	85 db		 test	 ebx, ebx
  00096	0f 84 cd 00 00
	00		 je	 $LN80@StateIdle

; 180  : 	BOOL			IsDelete()	{ return (m_dwFlags & OBJ_FLAG_DELETE);  }

  0009c	f6 43 04 01	 test	 BYTE PTR [ebx+4], 1

; 327  : 	return pObj && ( pObj->IsDelete() == FALSE ); 

  000a0	0f 85 c3 00 00
	00		 jne	 $LN80@StateIdle
; File C:\IAGOS\server\v18\Source\Source\_AIInterface\AIPet.cpp

; 296  : 					CCtrl *pCtrl = prj.GetCtrl( m_idLootItem );		// ±×ľĆŔĚĹŰŔĚ »ç¶óÁłŔ»Ľö ŔÖŔ¸´Ď±î °Ë»çÇÔ.

  000a6	57		 push	 edi
  000a7	ff 76 40	 push	 DWORD PTR [esi+64]
  000aa	b9 00 00 00 00	 mov	 ecx, OFFSET ?prj@@3VCProject@@A ; prj
  000af	e8 00 00 00 00	 call	 ?GetCtrl@CProject@@QAEPAVCCtrl@@K@Z ; CProject::GetCtrl
  000b4	8b f8		 mov	 edi, eax
; File C:\IAGOS\server\v18\Source\Source\_Common\Obj.h

; 327  : 	return pObj && ( pObj->IsDelete() == FALSE ); 

  000b6	85 ff		 test	 edi, edi
  000b8	0f 84 9c 00 00
	00		 je	 $LN23@StateIdle

; 180  : 	BOOL			IsDelete()	{ return (m_dwFlags & OBJ_FLAG_DELETE);  }

  000be	f6 47 04 01	 test	 BYTE PTR [edi+4], 1

; 327  : 	return pObj && ( pObj->IsDelete() == FALSE ); 

  000c2	0f 85 92 00 00
	00		 jne	 $LN23@StateIdle

; 215  : 	D3DXVECTOR3		GetPos()	{ return m_vPos; }

  000c8	8b 45 fc	 mov	 eax, DWORD PTR _pMover$1$[ebp]
  000cb	f3 0f 7e 80 60
	01 00 00	 movq	 xmm0, QWORD PTR [eax+352]
  000d3	8b 80 68 01 00
	00		 mov	 eax, DWORD PTR [eax+360]
  000d9	66 0f d6 45 e4	 movq	 QWORD PTR $T1[ebp], xmm0
  000de	f3 0f 7e 87 60
	01 00 00	 movq	 xmm0, QWORD PTR [edi+352]
  000e6	66 0f d6 45 f0	 movq	 QWORD PTR $T2[ebp], xmm0
; File C:\IAGOS\server\v18\Source\Source\DX_SDK\d3dx9math.inl

; 383  :     return D3DXVECTOR3(x - v.x, y - v.y, z - v.z);

  000eb	f3 0f 10 4d f0	 movss	 xmm1, DWORD PTR $T2[ebp]
  000f0	f3 0f 10 55 f4	 movss	 xmm2, DWORD PTR $T2[ebp+4]
  000f5	f3 0f 5c 55 e8	 subss	 xmm2, DWORD PTR $T1[ebp+4]
  000fa	f3 0f 5c 4d e4	 subss	 xmm1, DWORD PTR $T1[ebp]
; File C:\IAGOS\server\v18\Source\Source\_Common\Obj.h

; 215  : 	D3DXVECTOR3		GetPos()	{ return m_vPos; }

  000ff	89 45 ec	 mov	 DWORD PTR $T1[ebp+8], eax
  00102	8b 87 68 01 00
	00		 mov	 eax, DWORD PTR [edi+360]
  00108	89 45 f8	 mov	 DWORD PTR $T2[ebp+8], eax
; File C:\IAGOS\server\v18\Source\Source\DX_SDK\d3dx9math.inl

; 383  :     return D3DXVECTOR3(x - v.x, y - v.y, z - v.z);

  0010b	f3 0f 10 45 f8	 movss	 xmm0, DWORD PTR $T2[ebp+8]
  00110	f3 0f 5c 45 ec	 subss	 xmm0, DWORD PTR $T1[ebp+8]

; 302  :     z = fz;

  00115	f3 0f 59 d2	 mulss	 xmm2, xmm2

; 1698 :     return pV->x * pV->x + pV->y * pV->y + pV->z * pV->z;

  00119	f3 0f 59 c9	 mulss	 xmm1, xmm1
  0011d	f3 0f 59 c0	 mulss	 xmm0, xmm0
  00121	f3 0f 58 d1	 addss	 xmm2, xmm1
  00125	f3 0f 58 d0	 addss	 xmm2, xmm0
; File C:\IAGOS\server\v18\Source\Source\_AIInterface\AIPet.cpp

; 302  : 						if( fDistSq < 5.0f * 5.0f )		// µµÂřÇŘĽ­ °Ĺ¸® °Ë»ç ÇŃąř´ő ÇŘĽ­ 

  00129	f3 0f 10 05 00
	00 00 00	 movss	 xmm0, DWORD PTR __real@41c80000
  00131	0f 2f c2	 comiss	 xmm0, xmm2
  00134	76 24		 jbe	 SHORT $LN23@StateIdle
; File C:\IAGOS\server\v18\Source\Source\_Common\Obj.h

; 180  : 	BOOL			IsDelete()	{ return (m_dwFlags & OBJ_FLAG_DELETE);  }

  00136	f6 47 04 01	 test	 BYTE PTR [edi+4], 1
; File C:\IAGOS\server\v18\Source\Source\_AIInterface\AIPet.cpp

; 304  : 							if( pItem->IsDelete() )

  0013a	75 2c		 jne	 SHORT $LN81@StateIdle

; 305  : 								return TRUE;
; 306  : 							CItemElem* pItemElem = (CItemElem *)pItem->m_pItemBase;
; 307  : 							ItemProp *pItemProp = pItem->GetProp();

  0013c	8b cf		 mov	 ecx, edi
  0013e	e8 00 00 00 00	 call	 ?GetPropA@CItem@@QAEPAUItemProp@@XZ ; CItem::GetPropA

; 308  : 							// ÁÖŔÎŔĚ ľĆŔĚĹŰŔ» ÁÝ´Â°Í°ú °°Ŕş Čż°ú¸¦ łż.
; 309  : 							bSuccess = pOwner->DoLoot( pItem );

  00143	57		 push	 edi
  00144	8b cb		 mov	 ecx, ebx
  00146	e8 00 00 00 00	 call	 ?DoLoot@CMover@@QAEHPAVCItem@@@Z ; CMover::DoLoot

; 310  : 						}
; 311  : 					}
; 312  : 					if( bSuccess )

  0014b	85 c0		 test	 eax, eax
  0014d	74 0b		 je	 SHORT $LN23@StateIdle

; 313  : 					{
; 314  : 						if( SubItemLoot() == FALSE )		// ľĆŔĚĹŰÁý°í ÁÖŔ§¸¦ ÇŃąř´ő ˝şÄµÇŘĽ­ ¸ÔŔ»°Ĺ ŔÖŔ¸¸é ´Ů˝Ă°ˇ°í ľřŔ¸¸é ÁÖŔÎżˇ°Ô µąľĆ°Ł´Ů.

  0014f	8b ce		 mov	 ecx, esi
  00151	e8 00 00 00 00	 call	 ?SubItemLoot@CAIPet@@QAEHXZ ; CAIPet::SubItemLoot
  00156	85 c0		 test	 eax, eax
  00158	75 0e		 jne	 SHORT $LN81@StateIdle
$LN23@StateIdle:

; 315  : 						{
; 316  : 							m_bLootMove = FALSE;		// this°ˇ ľĆŔĚĹŰ Áý´ÂÁßŔĚ¶ó´Â°Ĺ ÇŘÁ¦.
; 317  : 							m_idLootItem = NULL_ID;
; 318  : 						}
; 319  : 					} else
; 320  : 					{
; 321  : 						m_bLootMove = FALSE;		// this°ˇ ľĆŔĚĹŰ Áý´ÂÁßŔĚ¶ó´Â°Ĺ ÇŘÁ¦.

  0015a	c7 46 3c 00 00
	00 00		 mov	 DWORD PTR [esi+60], 0

; 322  : 						m_idLootItem = NULL_ID;

  00161	c7 46 40 ff ff
	ff ff		 mov	 DWORD PTR [esi+64], -1
$LN81@StateIdle:
  00168	5f		 pop	 edi
$LN80@StateIdle:
  00169	5b		 pop	 ebx
$LN26@StateIdle:

; 323  : 					}
; 324  : 				}
; 325  : 			}
; 326  : 		}
; 327  : 		
; 328  : 	///////////////////////////////////////////////////////////////////////////////////////////////////
; 329  : 	OnMessage( AIMSG_EXIT )	
; 330  : 
; 331  : 	EndAIHandler( )
; 332  : 
; 333  : 	return TRUE;
; 334  : }

  0016a	b8 01 00 00 00	 mov	 eax, 1
  0016f	5e		 pop	 esi
  00170	8b e5		 mov	 esp, ebp
  00172	5d		 pop	 ebp
  00173	c2 04 00	 ret	 4
?StateIdle@CAIPet@@QAEHABUAIMSG@@@Z ENDP		; CAIPet::StateIdle
_TEXT	ENDS
; Function compile flags: /Ogtp
; File C:\IAGOS\server\v18\Source\Source\_AIInterface\AIPet.cpp
;	COMDAT ?StateInit@CAIPet@@QAEHABUAIMSG@@@Z
_TEXT	SEGMENT
_msg$ = 8						; size = 4
?StateInit@CAIPet@@QAEHABUAIMSG@@@Z PROC		; CAIPet::StateInit, COMDAT
; _this$ = ecx

; 175  : 	return TRUE;

  00000	b8 01 00 00 00	 mov	 eax, 1

; 176  : }

  00005	c2 04 00	 ret	 4
?StateInit@CAIPet@@QAEHABUAIMSG@@@Z ENDP		; CAIPet::StateInit
_TEXT	ENDS
; Function compile flags: /Ogtp
; File C:\IAGOS\server\v18\Source\Source\_AIInterface\AIPet.cpp
;	COMDAT ?InitAI@CAIPet@@UAEXXZ
_TEXT	SEGMENT
?InitAI@CAIPet@@UAEXXZ PROC				; CAIPet::InitAI, COMDAT
; _this$ = ecx

; 79   : 	PostAIMsg( AIMSG_SETSTATE, STATE_IDLE ); 

  00000	8b 01		 mov	 eax, DWORD PTR [ecx]
  00002	6a 00		 push	 0
  00004	6a 00		 push	 0
  00006	6a 02		 push	 2
  00008	6a 04		 push	 4
  0000a	ff 50 10	 call	 DWORD PTR [eax+16]

; 80   : }

  0000d	c3		 ret	 0
?InitAI@CAIPet@@UAEXXZ ENDP				; CAIPet::InitAI
_TEXT	ENDS
; Function compile flags: /Ogtp
; File C:\IAGOS\server\v18\Source\Source\_AIInterface\AIPet.cpp
;	COMDAT ??1CAIPet@@UAE@XZ
_TEXT	SEGMENT
??1CAIPet@@UAE@XZ PROC					; CAIPet::~CAIPet, COMDAT
; _this$ = ecx

; 53   : {

  00000	56		 push	 esi
  00001	8b f1		 mov	 esi, ecx
  00003	c7 06 00 00 00
	00		 mov	 DWORD PTR [esi], OFFSET ??_7CAIPet@@6B@

; 54   : 	Destroy();

  00009	e8 00 00 00 00	 call	 ?Destroy@CAIPet@@AAEXXZ	; CAIPet::Destroy

; 55   : }

  0000e	8b ce		 mov	 ecx, esi
  00010	5e		 pop	 esi
  00011	e9 00 00 00 00	 jmp	 ??1CAIInterface@@UAE@XZ	; CAIInterface::~CAIInterface
??1CAIPet@@UAE@XZ ENDP					; CAIPet::~CAIPet
_TEXT	ENDS
; Function compile flags: /Ogtp
; File C:\IAGOS\server\v18\Source\Source\_AIInterface\AIPet.cpp
;	COMDAT ??0CAIPet@@QAE@PAVCObj@@@Z
_TEXT	SEGMENT
_this$ = -4						; size = 4
_pObj$ = 8						; size = 4
??0CAIPet@@QAE@PAVCObj@@@Z PROC				; CAIPet::CAIPet, COMDAT
; _this$ = ecx

; 48   : {

  00000	55		 push	 ebp
  00001	8b ec		 mov	 ebp, esp
  00003	51		 push	 ecx
  00004	56		 push	 esi
  00005	ff 75 08	 push	 DWORD PTR _pObj$[ebp]
  00008	8b f1		 mov	 esi, ecx
  0000a	89 75 fc	 mov	 DWORD PTR _this$[ebp], esi
  0000d	e8 00 00 00 00	 call	 ??0CAIInterface@@QAE@PAVCObj@@@Z ; CAIInterface::CAIInterface

; 49   : 	Init();

  00012	8b ce		 mov	 ecx, esi
  00014	c7 06 00 00 00
	00		 mov	 DWORD PTR [esi], OFFSET ??_7CAIPet@@6B@
  0001a	e8 00 00 00 00	 call	 ?Init@CAIPet@@AAEXXZ	; CAIPet::Init

; 50   : }

  0001f	8b c6		 mov	 eax, esi
  00021	5e		 pop	 esi
  00022	8b e5		 mov	 esp, ebp
  00024	5d		 pop	 ebp
  00025	c2 04 00	 ret	 4
??0CAIPet@@QAE@PAVCObj@@@Z ENDP				; CAIPet::CAIPet
_TEXT	ENDS
; Function compile flags: /Ogtp
; File C:\IAGOS\server\v18\Source\Source\_AIInterface\AIPet.cpp
;	COMDAT ??0CAIPet@@QAE@XZ
_TEXT	SEGMENT
_this$ = -4						; size = 4
??0CAIPet@@QAE@XZ PROC					; CAIPet::CAIPet, COMDAT
; _this$ = ecx

; 44   : {

  00000	55		 push	 ebp
  00001	8b ec		 mov	 ebp, esp
  00003	51		 push	 ecx
  00004	56		 push	 esi
  00005	8b f1		 mov	 esi, ecx
  00007	89 75 fc	 mov	 DWORD PTR _this$[ebp], esi
  0000a	e8 00 00 00 00	 call	 ??0CAIInterface@@QAE@XZ	; CAIInterface::CAIInterface

; 45   : 	Init();

  0000f	8b ce		 mov	 ecx, esi
  00011	c7 06 00 00 00
	00		 mov	 DWORD PTR [esi], OFFSET ??_7CAIPet@@6B@
  00017	e8 00 00 00 00	 call	 ?Init@CAIPet@@AAEXXZ	; CAIPet::Init

; 46   : }

  0001c	8b c6		 mov	 eax, esi
  0001e	5e		 pop	 esi
  0001f	8b e5		 mov	 esp, ebp
  00021	5d		 pop	 ebp
  00022	c3		 ret	 0
??0CAIPet@@QAE@XZ ENDP					; CAIPet::CAIPet
_TEXT	ENDS
; Function compile flags: /Ogtp
; File C:\IAGOS\server\v18\Source\Source\_AIInterface\AIPet.cpp
;	COMDAT ?Destroy@CAIPet@@AAEXXZ
_TEXT	SEGMENT
?Destroy@CAIPet@@AAEXXZ PROC				; CAIPet::Destroy, COMDAT
; _this$ = ecx

; 71   : 	// ż©±â´Ů ĆÄ±«ÄÚµĺ¸¦ łÖŔ»°Í.
; 72   : 
; 73   : 
; 74   : 	Init();

  00000	e9 00 00 00 00	 jmp	 ?Init@CAIPet@@AAEXXZ	; CAIPet::Init
?Destroy@CAIPet@@AAEXXZ ENDP				; CAIPet::Destroy
_TEXT	ENDS
; Function compile flags: /Ogtp
; File C:\IAGOS\server\v18\Source\Source\_AIInterface\AIPet.cpp
;	COMDAT ?Init@CAIPet@@AAEXXZ
_TEXT	SEGMENT
?Init@CAIPet@@AAEXXZ PROC				; CAIPet::Init, COMDAT
; _this$ = ecx

; 59   : 	m_idOwner	= NULL_ID;

  00000	c7 41 38 ff ff
	ff ff		 mov	 DWORD PTR [ecx+56], -1

; 60   : 	m_bLootMove		= FALSE;				

  00007	c7 41 3c 00 00
	00 00		 mov	 DWORD PTR [ecx+60], 0

; 61   : 	m_idLootItem	= NULL_ID;				

  0000e	c7 41 40 ff ff
	ff ff		 mov	 DWORD PTR [ecx+64], -1

; 62   : 	m_nState	= PETSTATE_IDLE;

  00015	c7 41 44 00 00
	00 00		 mov	 DWORD PTR [ecx+68], 0

; 63   : #if __VER >= 12 // __PET_0519
; 64   : 	m_dwSkillId		= NULL_ID;	// 

  0001c	c7 41 48 ff ff
	ff ff		 mov	 DWORD PTR [ecx+72], -1

; 65   : 	m_idPetItem		= NULL_ID;	// ¸ÔĆę ľĆŔĚĹŰ

  00023	c7 41 4c ff ff
	ff ff		 mov	 DWORD PTR [ecx+76], -1

; 66   : #endif	// __PET_0519
; 67   : }

  0002a	c3		 ret	 0
?Init@CAIPet@@AAEXXZ ENDP				; CAIPet::Init
_TEXT	ENDS
; Function compile flags: /Ogtp
; File C:\IAGOS\server\v18\Source\Source\_AIInterface\AIPet.cpp
; File C:\IAGOS\server\v18\Source\Source\_Common\Project.h
; File C:\IAGOS\server\v18\Source\Source\_Common\Mover.h
; File C:\IAGOS\server\v18\Source\Source\_Common\Project.h
; File C:\IAGOS\server\v18\Source\Source\_AIInterface\Action.h
; File C:\IAGOS\server\v18\Source\Source\_Common\Mover.h
; File C:\IAGOS\server\v18\Source\Source\_AIInterface\AIPet.cpp
;	COMDAT ?MoveProcessRage@CAIPet@@AAEHABUAIMSG@@@Z
_TEXT	SEGMENT
_msg$ = 8						; size = 4
?MoveProcessRage@CAIPet@@AAEHABUAIMSG@@@Z PROC		; CAIPet::MoveProcessRage, COMDAT
; _this$ = ecx

; 346  : {

  00000	56		 push	 esi

; 347  : 	CMover* pMover = GetMover();

  00001	8b 71 30	 mov	 esi, DWORD PTR [ecx+48]
; File C:\IAGOS\server\v18\Source\Source\_Common\Project.h

; 1406 : 	VERIFY_RANGE( nIndex, 0, m_nMoverPropSize, "GetMoverProp range_error", NULL );

  00004	8b 0d b4 01 00
	00		 mov	 ecx, DWORD PTR ?prj@@3VCProject@@A+436
; File C:\IAGOS\server\v18\Source\Source\_Common\Mover.h

; 1020 : 	MoverProp*		GetProp() { return prj.GetMoverProp( m_dwIndex ); }	// °´ĂĽŔÇ ÇÁ·ÎĆŰĆĽ ľň±â 	

  0000a	8b 86 74 01 00
	00		 mov	 eax, DWORD PTR [esi+372]
; File C:\IAGOS\server\v18\Source\Source\_Common\Project.h

; 1406 : 	VERIFY_RANGE( nIndex, 0, m_nMoverPropSize, "GetMoverProp range_error", NULL );

  00010	85 c0		 test	 eax, eax
  00012	78 04		 js	 SHORT $LN14@MoveProces
  00014	3b c1		 cmp	 eax, ecx
  00016	7c 16		 jl	 SHORT $LN9@MoveProces
$LN14@MoveProces:

; 579  : 	LPCTSTR szErr = Error( _T( "%s min:%d, max:%d, index:%d" ), szMsg, nMin, nMax, nIndex ); 

  00018	50		 push	 eax
  00019	51		 push	 ecx
  0001a	6a 00		 push	 0
  0001c	68 00 00 00 00	 push	 OFFSET ??_C@_0BJ@GKPOBPPI@GetMoverProp?5range_error@
  00021	68 00 00 00 00	 push	 OFFSET ??_C@_0BM@HMFGHCP@?$CFs?5min?3?$CFd?0?5max?3?$CFd?0?5index?3?$CFd@
  00026	e8 00 00 00 00	 call	 ?Error@@YAPBDPBDZZ	; Error
  0002b	83 c4 14	 add	 esp, 20			; 00000014H
$LN9@MoveProces:
; File C:\IAGOS\server\v18\Source\Source\_AIInterface\Action.h

; 310  : 	BOOL			IsDie() { return (m_dwState & OBJSTA_DIE_ALL) ? TRUE : FALSE; }

  0002e	8b 86 38 02 00
	00		 mov	 eax, DWORD PTR [esi+568]
  00034	8b 40 04	 mov	 eax, DWORD PTR [eax+4]
; File C:\IAGOS\server\v18\Source\Source\_Common\Mover.h

; 1250 : 	BOOL			IsDie() { return m_pActMover->IsDie() || m_nHitPoint == 0; }

  00037	a9 00 00 00 08	 test	 eax, 134217728		; 08000000H
  0003c	75 15		 jne	 SHORT $LN3@MoveProces
  0003e	83 be f8 05 00
	00 00		 cmp	 DWORD PTR [esi+1528], 0
  00045	74 0c		 je	 SHORT $LN3@MoveProces
; File C:\IAGOS\server\v18\Source\Source\_AIInterface\AIPet.cpp

; 352  : 	if( pMover->IsDie() || (pMover->m_pActMover->GetState() & OBJSTA_DMG_FLY_ALL) )

  00047	c1 e8 19	 shr	 eax, 25			; 00000019H
  0004a	f7 d0		 not	 eax
  0004c	83 e0 01	 and	 eax, 1
  0004f	5e		 pop	 esi

; 354  : 
; 355  : 	return TRUE;
; 356  : }

  00050	c2 04 00	 ret	 4
$LN3@MoveProces:

; 353  : 		return FALSE;

  00053	33 c0		 xor	 eax, eax
  00055	5e		 pop	 esi

; 354  : 
; 355  : 	return TRUE;
; 356  : }

  00056	c2 04 00	 ret	 4
?MoveProcessRage@CAIPet@@AAEHABUAIMSG@@@Z ENDP		; CAIPet::MoveProcessRage
_TEXT	ENDS
; Function compile flags: /Ogtp
; File C:\IAGOS\server\v18\Source\Source\_AIInterface\AIPet.cpp
; File C:\IAGOS\server\v18\Source\Source\_Common\Mover.h
; File C:\IAGOS\server\v18\Source\Source\_Common\Project.h
; File C:\IAGOS\server\v18\Source\Source\_AIInterface\AIPet.cpp
; File C:\IAGOS\server\v18\Source\Source\_Common\Project.h
; File C:\IAGOS\server\v18\Source\Source\_AIInterface\Action.h
; File C:\IAGOS\server\v18\Source\Source\_Common\Mover.h
; File C:\IAGOS\server\v18\Source\Source\_AIInterface\AIPet.cpp
; File C:\IAGOS\server\v18\Source\Source\_Common\Obj.h
; File C:\IAGOS\server\v18\Source\Source\DX_SDK\d3dx9math.inl
; File C:\IAGOS\server\v18\Source\Source\_Common\Obj.h
; File C:\IAGOS\server\v18\Source\Source\DX_SDK\d3dx9math.inl
; File C:\IAGOS\server\v18\Source\Source\_AIInterface\AIPet.cpp
; File C:\IAGOS\server\v18\Source\Source\_Common\Mover.h
; File C:\IAGOS\server\v18\Source\Source\_AIInterface\AIPet.cpp
; File C:\IAGOS\server\v18\Source\Source\_Common\Obj.h
; File C:\IAGOS\server\v18\Source\Source\_AIInterface\AIPet.cpp
;	COMDAT ?MoveProcessIdle@CAIPet@@AAEHABUAIMSG@@@Z
_TEXT	SEGMENT
$T1 = -36						; size = 12
$T2 = -24						; size = 12
_pOwner$1$ = -12					; size = 4
$T3 = -8						; size = 4
__$ArrayPad$ = -4					; size = 4
_msg$ = 8						; size = 4
?MoveProcessIdle@CAIPet@@AAEHABUAIMSG@@@Z PROC		; CAIPet::MoveProcessIdle, COMDAT
; _this$ = ecx

; 179  : {

  00000	55		 push	 ebp
  00001	8b ec		 mov	 ebp, esp
  00003	83 ec 24	 sub	 esp, 36			; 00000024H
  00006	a1 00 00 00 00	 mov	 eax, DWORD PTR ___security_cookie
  0000b	33 c5		 xor	 eax, ebp
  0000d	89 45 fc	 mov	 DWORD PTR __$ArrayPad$[ebp], eax
  00010	53		 push	 ebx
  00011	56		 push	 esi
  00012	8b f1		 mov	 esi, ecx

; 181  : 	CMover *pOwner = prj.GetMover( m_idOwner ); 

  00014	b9 00 00 00 00	 mov	 ecx, OFFSET ?prj@@3VCProject@@A ; prj
  00019	57		 push	 edi
  0001a	ff 76 38	 push	 DWORD PTR [esi+56]
  0001d	8b 7e 30	 mov	 edi, DWORD PTR [esi+48]
  00020	e8 00 00 00 00	 call	 ?GetMover@CProject@@QAEPAVCMover@@K@Z ; CProject::GetMover
; File C:\IAGOS\server\v18\Source\Source\_Common\Mover.h

; 1020 : 	MoverProp*		GetProp() { return prj.GetMoverProp( m_dwIndex ); }	// °´ĂĽŔÇ ÇÁ·ÎĆŰĆĽ ľň±â 	

  00025	8b 8f 74 01 00
	00		 mov	 ecx, DWORD PTR [edi+372]
; File C:\IAGOS\server\v18\Source\Source\_Common\Project.h

; 1406 : 	VERIFY_RANGE( nIndex, 0, m_nMoverPropSize, "GetMoverProp range_error", NULL );

  0002b	8b 15 b4 01 00
	00		 mov	 edx, DWORD PTR ?prj@@3VCProject@@A+436
; File C:\IAGOS\server\v18\Source\Source\_AIInterface\AIPet.cpp

; 181  : 	CMover *pOwner = prj.GetMover( m_idOwner ); 

  00031	89 45 f4	 mov	 DWORD PTR _pOwner$1$[ebp], eax
; File C:\IAGOS\server\v18\Source\Source\_Common\Project.h

; 1406 : 	VERIFY_RANGE( nIndex, 0, m_nMoverPropSize, "GetMoverProp range_error", NULL );

  00034	85 c9		 test	 ecx, ecx
  00036	78 04		 js	 SHORT $LN29@MoveProces
  00038	3b ca		 cmp	 ecx, edx
  0003a	7c 16		 jl	 SHORT $LN24@MoveProces
$LN29@MoveProces:

; 579  : 	LPCTSTR szErr = Error( _T( "%s min:%d, max:%d, index:%d" ), szMsg, nMin, nMax, nIndex ); 

  0003c	51		 push	 ecx
  0003d	52		 push	 edx
  0003e	6a 00		 push	 0
  00040	68 00 00 00 00	 push	 OFFSET ??_C@_0BJ@GKPOBPPI@GetMoverProp?5range_error@
  00045	68 00 00 00 00	 push	 OFFSET ??_C@_0BM@HMFGHCP@?$CFs?5min?3?$CFd?0?5max?3?$CFd?0?5index?3?$CFd@
  0004a	e8 00 00 00 00	 call	 ?Error@@YAPBDPBDZZ	; Error
  0004f	83 c4 14	 add	 esp, 20			; 00000014H
$LN24@MoveProces:
; File C:\IAGOS\server\v18\Source\Source\_AIInterface\Action.h

; 310  : 	BOOL			IsDie() { return (m_dwState & OBJSTA_DIE_ALL) ? TRUE : FALSE; }

  00052	8b 87 38 02 00
	00		 mov	 eax, DWORD PTR [edi+568]
  00058	8b 40 04	 mov	 eax, DWORD PTR [eax+4]
; File C:\IAGOS\server\v18\Source\Source\_Common\Mover.h

; 1250 : 	BOOL			IsDie() { return m_pActMover->IsDie() || m_nHitPoint == 0; }

  0005b	a9 00 00 00 08	 test	 eax, 134217728		; 08000000H
  00060	0f 85 05 02 00
	00		 jne	 $LN3@MoveProces
  00066	83 bf f8 05 00
	00 00		 cmp	 DWORD PTR [edi+1528], 0
  0006d	0f 84 f8 01 00
	00		 je	 $LN3@MoveProces
; File C:\IAGOS\server\v18\Source\Source\_AIInterface\AIPet.cpp

; 187  : 	if( pMover->IsDie() || (pMover->m_pActMover->GetState() & OBJSTA_DMG_FLY_ALL) )

  00073	a9 00 00 00 02	 test	 eax, 33554432		; 02000000H
  00078	0f 85 ed 01 00
	00		 jne	 $LN3@MoveProces

; 188  : 		return FALSE;
; 189  : 
; 190  : 	if( NotOwnedPetInactivated() )

  0007e	8b ce		 mov	 ecx, esi
  00080	e8 00 00 00 00	 call	 ?NotOwnedPetInactivated@CAIPet@@AAEHXZ ; CAIPet::NotOwnedPetInactivated
  00085	85 c0		 test	 eax, eax
  00087	0f 85 de 01 00
	00		 jne	 $LN3@MoveProces

; 191  : 		return FALSE;
; 192  : 	
; 193  : 	if( m_bLootMove == FALSE )	// ·çĆĂÇĎ·Ż °Ą¶© ľĆ·ˇ Ăł¸®¸¦ ÇĎ¸é ľČµÇ±ßÁ¦...

  0008d	8d 5e 3c	 lea	 ebx, DWORD PTR [esi+60]
  00090	39 46 3c	 cmp	 DWORD PTR [esi+60], eax
  00093	0f 85 3b 01 00
	00		 jne	 $LN11@MoveProces

; 194  : 	{
; 195  : 		// ÁÖŔÎ´Ô°úŔÇ °Ĺ¸®°ˇ ¸ÖľîÁö¸é ÁÖŔÎ´ÔÂĘŔ¸·Î ´Ţ·Á°Ł´Ů.
; 196  : 		if( m_nState == PETSTATE_IDLE )

  00099	8b 4e 44	 mov	 ecx, DWORD PTR [esi+68]
  0009c	8d 5e 44	 lea	 ebx, DWORD PTR [esi+68]
  0009f	89 5d f8	 mov	 DWORD PTR $T3[ebp], ebx
  000a2	85 c9		 test	 ecx, ecx
  000a4	0f 85 82 00 00
	00		 jne	 $LN6@MoveProces
; File C:\IAGOS\server\v18\Source\Source\_Common\Obj.h

; 215  : 	D3DXVECTOR3		GetPos()	{ return m_vPos; }

  000aa	8b 87 68 01 00
	00		 mov	 eax, DWORD PTR [edi+360]
  000b0	f3 0f 7e 87 60
	01 00 00	 movq	 xmm0, QWORD PTR [edi+352]
  000b8	89 45 e4	 mov	 DWORD PTR $T1[ebp+8], eax
  000bb	8b 45 f4	 mov	 eax, DWORD PTR _pOwner$1$[ebp]
  000be	66 0f d6 45 dc	 movq	 QWORD PTR $T1[ebp], xmm0
  000c3	f3 0f 7e 80 60
	01 00 00	 movq	 xmm0, QWORD PTR [eax+352]
  000cb	8b 80 68 01 00
	00		 mov	 eax, DWORD PTR [eax+360]
  000d1	66 0f d6 45 e8	 movq	 QWORD PTR $T2[ebp], xmm0
; File C:\IAGOS\server\v18\Source\Source\DX_SDK\d3dx9math.inl

; 383  :     return D3DXVECTOR3(x - v.x, y - v.y, z - v.z);

  000d6	f3 0f 10 4d e8	 movss	 xmm1, DWORD PTR $T2[ebp]
  000db	f3 0f 10 55 ec	 movss	 xmm2, DWORD PTR $T2[ebp+4]
  000e0	f3 0f 5c 55 e0	 subss	 xmm2, DWORD PTR $T1[ebp+4]
  000e5	f3 0f 5c 4d dc	 subss	 xmm1, DWORD PTR $T1[ebp]
; File C:\IAGOS\server\v18\Source\Source\_Common\Obj.h

; 215  : 	D3DXVECTOR3		GetPos()	{ return m_vPos; }

  000ea	89 45 f0	 mov	 DWORD PTR $T2[ebp+8], eax
; File C:\IAGOS\server\v18\Source\Source\DX_SDK\d3dx9math.inl

; 383  :     return D3DXVECTOR3(x - v.x, y - v.y, z - v.z);

  000ed	f3 0f 10 45 f0	 movss	 xmm0, DWORD PTR $T2[ebp+8]
  000f2	f3 0f 5c 45 e4	 subss	 xmm0, DWORD PTR $T1[ebp+8]

; 302  :     z = fz;

  000f7	f3 0f 59 d2	 mulss	 xmm2, xmm2

; 1698 :     return pV->x * pV->x + pV->y * pV->y + pV->z * pV->z;

  000fb	f3 0f 59 c9	 mulss	 xmm1, xmm1
  000ff	f3 0f 59 c0	 mulss	 xmm0, xmm0
  00103	f3 0f 58 d1	 addss	 xmm2, xmm1
  00107	f3 0f 58 d0	 addss	 xmm2, xmm0
; File C:\IAGOS\server\v18\Source\Source\_AIInterface\AIPet.cpp

; 200  : 			if( fDistSq > 1.0f * 1.0f )

  0010b	0f 2f 15 00 00
	00 00		 comiss	 xmm2, DWORD PTR __real@3f800000
  00112	76 10		 jbe	 SHORT $LN8@MoveProces

; 201  : 			{
; 202  : 				MoveToDst( m_idOwner );

  00114	ff 76 38	 push	 DWORD PTR [esi+56]
  00117	8b ce		 mov	 ecx, esi
  00119	e8 00 00 00 00	 call	 ?MoveToDst@CAIPet@@AAEXK@Z ; CAIPet::MoveToDst

; 203  : 				m_nState = PETSTATE_TRACE;

  0011e	c7 03 01 00 00
	00		 mov	 DWORD PTR [ebx], 1
$LN8@MoveProces:

; 204  : 			}
; 205  : 		} else

  00124	8d 5e 3c	 lea	 ebx, DWORD PTR [esi+60]
  00127	e9 a8 00 00 00	 jmp	 $LN11@MoveProces
$LN6@MoveProces:

; 206  : 		if( m_nState == PETSTATE_TRACE )

  0012c	8d 5e 3c	 lea	 ebx, DWORD PTR [esi+60]
  0012f	83 f9 01	 cmp	 ecx, 1
  00132	0f 85 9c 00 00
	00		 jne	 $LN11@MoveProces

; 207  : 		{
; 208  : 			if( pOwner->IsRangeObj( pMover, 0 ) == TRUE )		// ÁÖŔÎ´Ô °çŔ¸·Î ´Ů°ˇ°¬´Ů.

  00138	51		 push	 ecx
  00139	8b 4d f4	 mov	 ecx, DWORD PTR _pOwner$1$[ebp]
  0013c	8d 5e 3c	 lea	 ebx, DWORD PTR [esi+60]
  0013f	c7 04 24 00 00
	00 00		 mov	 DWORD PTR [esp], 0
  00146	57		 push	 edi
  00147	e8 00 00 00 00	 call	 ?IsRangeObj@CObj@@QAEHPAV1@M@Z ; CObj::IsRangeObj
  0014c	83 f8 01	 cmp	 eax, 1
  0014f	75 62		 jne	 SHORT $LN10@MoveProces

; 209  : 			{
; 210  : 				m_nState = PETSTATE_IDLE;			// ´ë±â»óĹÂ·Î ŔüČŻ

  00151	8d 46 44	 lea	 eax, DWORD PTR [esi+68]
  00154	c7 00 00 00 00
	00		 mov	 DWORD PTR [eax], 0
; File C:\IAGOS\server\v18\Source\Source\_Common\Mover.h

; 1785 : 	if( m_pActMover )	

  0015a	8b 8f 38 02 00
	00		 mov	 ecx, DWORD PTR [edi+568]
  00160	89 45 f8	 mov	 DWORD PTR $T3[ebp], eax
  00163	85 c9		 test	 ecx, ecx
  00165	74 17		 je	 SHORT $LN60@MoveProces

; 1786 : 		return m_pActMover->SendActMsg( dwMsg, nParam1, nParam2, nParam3, nParam4 );	

  00167	8b 01		 mov	 eax, DWORD PTR [ecx]
  00169	6a 00		 push	 0
  0016b	6a 00		 push	 0
  0016d	6a 00		 push	 0
  0016f	6a 00		 push	 0
  00171	6a 00		 push	 0
  00173	6a 06		 push	 6
  00175	ff 50 04	 call	 DWORD PTR [eax+4]
  00178	8d 46 44	 lea	 eax, DWORD PTR [esi+68]
  0017b	89 45 f8	 mov	 DWORD PTR $T3[ebp], eax
$LN60@MoveProces:

; 1030 : 	void			ClearDestObj()     	{ m_idDest = NULL_ID; m_fArrivalRange = 0.0f; }

  0017e	c7 87 58 02 00
	00 ff ff ff ff	 mov	 DWORD PTR [edi+600], -1

; 1031 : 	void			ClearDestPos()		{ m_vDestPos = D3DXVECTOR3( 0.0f, 0.0f, 0.0f ); }		

  00188	8d 5e 3c	 lea	 ebx, DWORD PTR [esi+60]

; 1030 : 	void			ClearDestObj()     	{ m_idDest = NULL_ID; m_fArrivalRange = 0.0f; }

  0018b	c7 87 54 02 00
	00 00 00 00 00	 mov	 DWORD PTR [edi+596], 0

; 1031 : 	void			ClearDestPos()		{ m_vDestPos = D3DXVECTOR3( 0.0f, 0.0f, 0.0f ); }		

  00195	c7 87 5c 02 00
	00 00 00 00 00	 mov	 DWORD PTR [edi+604], 0
  0019f	c7 87 60 02 00
	00 00 00 00 00	 mov	 DWORD PTR [edi+608], 0
  001a9	c7 87 64 02 00
	00 00 00 00 00	 mov	 DWORD PTR [edi+612], 0
$LN10@MoveProces:
; File C:\IAGOS\server\v18\Source\Source\_AIInterface\AIPet.cpp

; 214  : 			if( pMover->IsEmptyDest() )			// ľËĽöľř´Â ŔĚŔŻ·Î ŔÎÇŘ ŔĚµżÇĎÁö ľĘ°í Á¦ŔÚ¸® ŔÖŔ¸¸é .

  001b3	8b cf		 mov	 ecx, edi
  001b5	e8 00 00 00 00	 call	 ?IsEmptyDest@CMover@@QAEHXZ ; CMover::IsEmptyDest
  001ba	85 c0		 test	 eax, eax
  001bc	74 16		 je	 SHORT $LN11@MoveProces

; 215  : 			{
; 216  : 				m_bLootMove = FALSE;			// ÁýŔ¸·Ż °ˇ´ř°Ĺ ĂëĽŇ.
; 217  : 				m_idLootItem = NULL_ID;
; 218  : 				m_nState = PETSTATE_IDLE;

  001be	8b 45 f8	 mov	 eax, DWORD PTR $T3[ebp]
  001c1	c7 03 00 00 00
	00		 mov	 DWORD PTR [ebx], 0
  001c7	c7 46 40 ff ff
	ff ff		 mov	 DWORD PTR [esi+64], -1
  001ce	c7 00 00 00 00
	00		 mov	 DWORD PTR [eax], 0
$LN11@MoveProces:

; 219  : 			}
; 220  : 			
; 221  : 		}
; 222  : 	}
; 223  : 
; 224  : 	// ľĆŔĚĹŰ ˝şÄµ/·çĆĂ
; 225  : 	{
; 226  : 		{
; 227  : 			if( (pMover->GetCount() & 15) == 0 )		// °ˇ˛űľż ÁÖşŻŔ» ˝şÄµÇŘĽ­... Ľ­ąö´Ď±î 15°ˇ 1ĂĘ

  001d4	f6 87 dc 14 00
	00 0f		 test	 BYTE PTR [edi+5340], 15	; 0000000fH
  001db	75 17		 jne	 SHORT $LN14@MoveProces

; 228  : 			{	
; 229  : 				if( m_bLootMove == FALSE )		// ·çĆĂÇĎ·Ż °ˇ°í ŔÖŔ»¶§ ¶Ç ĂĽĹ©ÇĎ¸é ľČŠ•

  001dd	83 3b 00	 cmp	 DWORD PTR [ebx], 0
  001e0	75 12		 jne	 SHORT $LN14@MoveProces

; 230  : 					if( SubItemLoot() )		// ľĆŔĚĹŰŔ» ·çĆĂÇÔ.

  001e2	8b ce		 mov	 ecx, esi
  001e4	e8 00 00 00 00	 call	 ?SubItemLoot@CAIPet@@QAEHXZ ; CAIPet::SubItemLoot
  001e9	85 c0		 test	 eax, eax
  001eb	74 07		 je	 SHORT $LN14@MoveProces

; 231  : 						m_nState = PETSTATE_IDLE;	// ·çĆĂ˝ĂŔŰÇßŔ¸¸é ´ë±â»óĹÂ·Î ąŮ˛ăľßÇÔ.

  001ed	c7 46 44 00 00
	00 00		 mov	 DWORD PTR [esi+68], 0
$LN14@MoveProces:

; 232  : 			}
; 233  : 		}
; 234  : 
; 235  : 		if( m_bLootMove == TRUE )

  001f4	83 3b 01	 cmp	 DWORD PTR [ebx], 1
  001f7	75 5a		 jne	 SHORT $LN18@MoveProces

; 236  : 		{
; 237  : 			CCtrl *pCtrl = prj.GetCtrl( m_idLootItem );		// ±×ľĆŔĚĹŰŔĚ »ç¶óÁłŔ»Ľö ŔÖŔ¸´Ď±î °Ë»çÇÔ.

  001f9	ff 76 40	 push	 DWORD PTR [esi+64]
  001fc	b9 00 00 00 00	 mov	 ecx, OFFSET ?prj@@3VCProject@@A ; prj
  00201	e8 00 00 00 00	 call	 ?GetCtrl@CProject@@QAEPAVCCtrl@@K@Z ; CProject::GetCtrl
; File C:\IAGOS\server\v18\Source\Source\_Common\Obj.h

; 327  : 	return pObj && ( pObj->IsDelete() == FALSE ); 

  00206	85 c0		 test	 eax, eax
  00208	74 13		 je	 SHORT $LN73@MoveProces

; 180  : 	BOOL			IsDelete()	{ return (m_dwFlags & OBJ_FLAG_DELETE);  }

  0020a	f6 40 04 01	 test	 BYTE PTR [eax+4], 1

; 327  : 	return pObj && ( pObj->IsDelete() == FALSE ); 

  0020e	75 0d		 jne	 SHORT $LN73@MoveProces
; File C:\IAGOS\server\v18\Source\Source\_AIInterface\AIPet.cpp

; 246  : 				if( pMover->IsEmptyDest() )			// ľËĽöľř´Â ŔĚŔŻ·Î ŔÎÇŘ ŔĚµżÇĎÁö ľĘ°í Á¦ŔÚ¸® ŔÖŔ¸¸é .

  00210	8b cf		 mov	 ecx, edi
  00212	e8 00 00 00 00	 call	 ?IsEmptyDest@CMover@@QAEHXZ ; CMover::IsEmptyDest
  00217	85 c0		 test	 eax, eax
  00219	74 38		 je	 SHORT $LN18@MoveProces

; 247  : 				{
; 248  : 					m_bLootMove = FALSE;			// ÁýŔ¸·Ż °ˇ´ř°Ĺ ĂëĽŇ.
; 249  : 					m_idLootItem = NULL_ID;
; 250  : 					m_nState = PETSTATE_IDLE;

  0021b	eb 21		 jmp	 SHORT $LN95@MoveProces
$LN73@MoveProces:

; 238  : 			if( IsInvalidObj(pCtrl) )		// ľĆŔĚĹŰ ÁýŔ¸·Ż ŔĚµżÁßżˇ ľĆĹŰŔĚ ľřľîÁö¸é
; 239  : 			{
; 240  : 				MoveToDst( pMover->GetPos() );	// Á¦ŔÚ¸®żˇ Ľ¶.

  0021d	f3 0f 7e 87 60
	01 00 00	 movq	 xmm0, QWORD PTR [edi+352]
  00225	83 ec 0c	 sub	 esp, 12			; 0000000cH
  00228	8b 87 68 01 00
	00		 mov	 eax, DWORD PTR [edi+360]
  0022e	8b cc		 mov	 ecx, esp
  00230	66 0f d6 01	 movq	 QWORD PTR [ecx], xmm0
  00234	89 41 08	 mov	 DWORD PTR [ecx+8], eax
  00237	8b ce		 mov	 ecx, esi
  00239	e8 00 00 00 00	 call	 ?MoveToDst@CAIPet@@AAEXUD3DXVECTOR3@@@Z ; CAIPet::MoveToDst
$LN95@MoveProces:

; 251  : 				}
; 252  : 			}
; 253  : 		}
; 254  : 	}
; 255  : 
; 256  : 	return TRUE;

  0023e	c7 46 44 00 00
	00 00		 mov	 DWORD PTR [esi+68], 0
  00245	c7 46 40 ff ff
	ff ff		 mov	 DWORD PTR [esi+64], -1
  0024c	c7 46 3c 00 00
	00 00		 mov	 DWORD PTR [esi+60], 0
$LN18@MoveProces:
  00253	b8 01 00 00 00	 mov	 eax, 1

; 257  : }

  00258	5f		 pop	 edi
  00259	5e		 pop	 esi
  0025a	5b		 pop	 ebx
  0025b	8b 4d fc	 mov	 ecx, DWORD PTR __$ArrayPad$[ebp]
  0025e	33 cd		 xor	 ecx, ebp
  00260	e8 00 00 00 00	 call	 @__security_check_cookie@4
  00265	8b e5		 mov	 esp, ebp
  00267	5d		 pop	 ebp
  00268	c2 04 00	 ret	 4
$LN3@MoveProces:
  0026b	8b 4d fc	 mov	 ecx, DWORD PTR __$ArrayPad$[ebp]
  0026e	33 c0		 xor	 eax, eax
  00270	5f		 pop	 edi
  00271	5e		 pop	 esi
  00272	33 cd		 xor	 ecx, ebp
  00274	5b		 pop	 ebx
  00275	e8 00 00 00 00	 call	 @__security_check_cookie@4
  0027a	8b e5		 mov	 esp, ebp
  0027c	5d		 pop	 ebp
  0027d	c2 04 00	 ret	 4
?MoveProcessIdle@CAIPet@@AAEHABUAIMSG@@@Z ENDP		; CAIPet::MoveProcessIdle
_TEXT	ENDS
; Function compile flags: /Ogtp
; File C:\IAGOS\server\v18\Source\Source\_AIInterface\AIPet.cpp
;	COMDAT ?MoveToDst@CAIPet@@AAEXUD3DXVECTOR3@@@Z
_TEXT	SEGMENT
_vDst$ = 8						; size = 12
?MoveToDst@CAIPet@@AAEXUD3DXVECTOR3@@@Z PROC		; CAIPet::MoveToDst, COMDAT
; _this$ = ecx

; 84   : {

  00000	55		 push	 ebp
  00001	8b ec		 mov	 ebp, esp
  00003	56		 push	 esi

; 85   : 	CMover* pMover = GetMover();

  00004	8b 71 30	 mov	 esi, DWORD PTR [ecx+48]

; 86   : 	CWorld* pWorld = GetWorld();
; 87   : 	pMover->SetDestPos( vDst );

  00007	8d 45 08	 lea	 eax, DWORD PTR _vDst$[ebp]
  0000a	6a 01		 push	 1
  0000c	6a 01		 push	 1
  0000e	50		 push	 eax
  0000f	8b ce		 mov	 ecx, esi
  00011	e8 00 00 00 00	 call	 ?SetDestPos@CMover@@QAEXABUD3DXVECTOR3@@_NH@Z ; CMover::SetDestPos

; 88   : 	pMover->m_nCorr		= -1;
; 89   : 	g_UserMng.AddSetDestPos( pMover, vDst, 1 );

  00016	6a 01		 push	 1
  00018	8d 45 08	 lea	 eax, DWORD PTR _vDst$[ebp]
  0001b	c7 86 74 02 00
	00 ff ff ff ff	 mov	 DWORD PTR [esi+628], -1
  00025	50		 push	 eax
  00026	56		 push	 esi
  00027	b9 00 00 00 00	 mov	 ecx, OFFSET ?g_UserMng@@3VCUserMng@@A ; g_UserMng
  0002c	e8 00 00 00 00	 call	 ?AddSetDestPos@CUserMng@@QAEXPAVCMover@@ABUD3DXVECTOR3@@E@Z ; CUserMng::AddSetDestPos
  00031	5e		 pop	 esi

; 90   : 	
; 91   : }

  00032	5d		 pop	 ebp
  00033	c2 0c 00	 ret	 12			; 0000000cH
?MoveToDst@CAIPet@@AAEXUD3DXVECTOR3@@@Z ENDP		; CAIPet::MoveToDst
_TEXT	ENDS
; Function compile flags: /Ogtp
; File C:\IAGOS\server\v18\Source\Source\_AIInterface\AIPet.cpp
;	COMDAT ?MoveToDst@CAIPet@@AAEXK@Z
_TEXT	SEGMENT
_idTarget$ = 8						; size = 4
?MoveToDst@CAIPet@@AAEXK@Z PROC				; CAIPet::MoveToDst, COMDAT
; _this$ = ecx

; 95   : {

  00000	55		 push	 ebp
  00001	8b ec		 mov	 ebp, esp
  00003	56		 push	 esi

; 96   : 	CMover* pMover = GetMover();

  00004	8b 71 30	 mov	 esi, DWORD PTR [ecx+48]
  00007	57		 push	 edi

; 97   : 	if( pMover->GetDestId() == idTarget )

  00008	8b 7d 08	 mov	 edi, DWORD PTR _idTarget$[ebp]
  0000b	39 be 58 02 00
	00		 cmp	 DWORD PTR [esi+600], edi
  00011	74 28		 je	 SHORT $LN1@MoveToDst

; 98   : 		return;
; 99   : 	pMover->SetDestObj( idTarget ); // ¸ńÇĄ¸¦ ŔçĽłÁ¤ÇŘÁŘ´Ů.

  00013	6a 00		 push	 0
  00015	51		 push	 ecx
  00016	c7 04 24 00 00
	00 00		 mov	 DWORD PTR [esp], 0
  0001d	8b ce		 mov	 ecx, esi
  0001f	57		 push	 edi
  00020	e8 00 00 00 00	 call	 ?SetDestObj@CMover@@QAEXKMH@Z ; CMover::SetDestObj

; 100  : 	g_UserMng.AddMoverSetDestObj( (CMover*)pMover, idTarget );

  00025	6a 00		 push	 0
  00027	51		 push	 ecx
  00028	c7 04 24 00 00
	00 00		 mov	 DWORD PTR [esp], 0
  0002f	b9 00 00 00 00	 mov	 ecx, OFFSET ?g_UserMng@@3VCUserMng@@A ; g_UserMng
  00034	57		 push	 edi
  00035	56		 push	 esi
  00036	e8 00 00 00 00	 call	 ?AddMoverSetDestObj@CUserMng@@QAEXPAVCMover@@KMH@Z ; CUserMng::AddMoverSetDestObj
$LN1@MoveToDst:

; 101  : }

  0003b	5f		 pop	 edi
  0003c	5e		 pop	 esi
  0003d	5d		 pop	 ebp
  0003e	c2 04 00	 ret	 4
?MoveToDst@CAIPet@@AAEXK@Z ENDP				; CAIPet::MoveToDst
_TEXT	ENDS
; Function compile flags: /Ogtp
; File C:\IAGOS\server\v18\Source\Source\_Common\Mover.h
;	COMDAT ?IsEmptyDest@CMover@@QAEHXZ
_TEXT	SEGMENT
?IsEmptyDest@CMover@@QAEHXZ PROC			; CMover::IsEmptyDest, COMDAT
; _this$ = ecx

; 1036 : 	BOOL			IsEmptyDestPos()	{ return m_vDestPos.x == 0.0f && m_vDestPos.z == 0.0f; }

  00000	f3 0f 10 81 5c
	02 00 00	 movss	 xmm0, DWORD PTR [ecx+604]
  00008	0f 57 c9	 xorps	 xmm1, xmm1
  0000b	0f 2e c1	 ucomiss xmm0, xmm1
  0000e	9f		 lahf
  0000f	f6 c4 44	 test	 ah, 68			; 00000044H
  00012	7a 20		 jp	 SHORT $LN3@IsEmptyDes
  00014	f3 0f 10 81 64
	02 00 00	 movss	 xmm0, DWORD PTR [ecx+612]
  0001c	0f 2e c1	 ucomiss xmm0, xmm1
  0001f	9f		 lahf
  00020	f6 c4 44	 test	 ah, 68			; 00000044H
  00023	7a 0f		 jp	 SHORT $LN3@IsEmptyDes

; 1035 : 	BOOL			IsEmptyDestObj()	{ return m_idDest == NULL_ID; }

  00025	83 b9 58 02 00
	00 ff		 cmp	 DWORD PTR [ecx+600], -1

; 1037 : 	BOOL			IsEmptyDest()		{ return IsEmptyDestPos() && IsEmptyDestObj(); }

  0002c	75 06		 jne	 SHORT $LN3@IsEmptyDes
  0002e	b8 01 00 00 00	 mov	 eax, 1
  00033	c3		 ret	 0
$LN3@IsEmptyDes:
  00034	33 c0		 xor	 eax, eax
  00036	c3		 ret	 0
?IsEmptyDest@CMover@@QAEHXZ ENDP			; CMover::IsEmptyDest
_TEXT	ENDS
; Function compile flags: /Ogtp
; File C:\IAGOS\server\v18\Source\Source\_AIInterface\AIInterface.h
;	COMDAT ?IsReturnToBegin@CAIInterface@@UAEHXZ
_TEXT	SEGMENT
?IsReturnToBegin@CAIInterface@@UAEHXZ PROC		; CAIInterface::IsReturnToBegin, COMDAT
; _this$ = ecx

; 121  : 	virtual		BOOL	IsReturnToBegin( void )		{	return FALSE;	}

  00000	33 c0		 xor	 eax, eax
  00002	c3		 ret	 0
?IsReturnToBegin@CAIInterface@@UAEHXZ ENDP		; CAIInterface::IsReturnToBegin
_TEXT	ENDS
; Function compile flags: /Ogtp
; File C:\IAGOS\server\v18\Source\Source\_Common\Item.h
; File C:\IAGOS\server\v18\Source\Source\_Common\Project.h
; File C:\IAGOS\server\v18\Source\Source\_Common\data.h
; File C:\IAGOS\server\v18\Source\Source\_Common\Item.h
; File C:\IAGOS\server\v18\Source\Source\_Common\Project.h
; File C:\IAGOS\server\v18\Source\Source\_Common\Item.h
;	COMDAT ?GetPropA@CItem@@QAEPAUItemProp@@XZ
_TEXT	SEGMENT
?GetPropA@CItem@@QAEPAUItemProp@@XZ PROC		; CItem::GetPropA, COMDAT
; _this$ = ecx

; 987  : 	ItemProp* GetProp() { return prj.GetItemProp( GetIndex() ); }

  00000	8b 89 74 01 00
	00		 mov	 ecx, DWORD PTR [ecx+372]
; File C:\IAGOS\server\v18\Source\Source\_Common\Project.h

; 1389 : 	VERIFY_RANGE_ASSERT( nIndex, 0, m_aPropItem.GetSize(), "GetItemProp range_error", NULL );

  00006	a1 40 02 00 00	 mov	 eax, DWORD PTR ?prj@@3VCProject@@A+576
  0000b	85 c9		 test	 ecx, ecx
  0000d	78 0f		 js	 SHORT $LN8@GetPropA
  0000f	3b c8		 cmp	 ecx, eax
  00011	7d 0b		 jge	 SHORT $LN8@GetPropA
; File C:\IAGOS\server\v18\Source\Source\_Common\data.h

; 270  : 	if( dwIndex >= (DWORD)m_nMaxIndex )

  00013	73 1f		 jae	 SHORT $LN15@GetPropA

; 271  : 		return NULL;
; 272  : 	return (T*) m_apOffset[ dwIndex ];

  00015	a1 30 02 00 00	 mov	 eax, DWORD PTR ?prj@@3VCProject@@A+560
  0001a	8b 04 88	 mov	 eax, DWORD PTR [eax+ecx*4]
; File C:\IAGOS\server\v18\Source\Source\_Common\Item.h

; 987  : 	ItemProp* GetProp() { return prj.GetItemProp( GetIndex() ); }

  0001d	c3		 ret	 0
$LN8@GetPropA:
; File C:\IAGOS\server\v18\Source\Source\_Common\Project.h

; 579  : 	LPCTSTR szErr = Error( _T( "%s min:%d, max:%d, index:%d" ), szMsg, nMin, nMax, nIndex ); 

  0001e	51		 push	 ecx
  0001f	50		 push	 eax
  00020	6a 00		 push	 0
  00022	68 00 00 00 00	 push	 OFFSET ??_C@_0BI@BEIFNGEL@GetItemProp?5range_error@
  00027	68 00 00 00 00	 push	 OFFSET ??_C@_0BM@HMFGHCP@?$CFs?5min?3?$CFd?0?5max?3?$CFd?0?5index?3?$CFd@
  0002c	e8 00 00 00 00	 call	 ?Error@@YAPBDPBDZZ	; Error
  00031	83 c4 14	 add	 esp, 20			; 00000014H
$LN15@GetPropA:
; File C:\IAGOS\server\v18\Source\Source\_Common\Item.h

; 987  : 	ItemProp* GetProp() { return prj.GetItemProp( GetIndex() ); }

  00034	33 c0		 xor	 eax, eax
  00036	c3		 ret	 0
?GetPropA@CItem@@QAEPAUItemProp@@XZ ENDP		; CItem::GetPropA
_TEXT	ENDS
; Function compile flags: /Ogtp
; File C:\IAGOS\server\v18\Source\Source\DX_SDK\d3dx9math.h
;	COMDAT ??0D3DXVECTOR3@@QAE@XZ
_TEXT	SEGMENT
??0D3DXVECTOR3@@QAE@XZ PROC				; D3DXVECTOR3::D3DXVECTOR3, COMDAT
; _this$ = ecx

; 165  :     D3DXVECTOR3() {};

  00000	8b c1		 mov	 eax, ecx
  00002	c3		 ret	 0
??0D3DXVECTOR3@@QAE@XZ ENDP				; D3DXVECTOR3::D3DXVECTOR3
_TEXT	ENDS
; Function compile flags: /Ogtp
; File C:\IAGOS\server\v18\Source\Source\_AIInterface\AIPet.cpp
;	COMDAT ?__empty_global_delete@@YAXPAXI@Z
_TEXT	SEGMENT
___formal$ = 8						; size = 4
___formal$ = 12						; size = 4
?__empty_global_delete@@YAXPAXI@Z PROC			; __empty_global_delete, COMDAT

  00000	c2 00 00	 ret	 0
?__empty_global_delete@@YAXPAXI@Z ENDP			; __empty_global_delete
_TEXT	ENDS
; Function compile flags: /Ogtp
; File C:\IAGOS\server\v18\Source\Source\_AIInterface\AIPet.cpp
;	COMDAT ?__empty_global_delete@@YAXPAX@Z
_TEXT	SEGMENT
___formal$ = 8						; size = 4
?__empty_global_delete@@YAXPAX@Z PROC			; __empty_global_delete, COMDAT

  00000	c2 00 00	 ret	 0
?__empty_global_delete@@YAXPAX@Z ENDP			; __empty_global_delete
_TEXT	ENDS
END
