; Listing generated by Microsoft (R) Optimizing Compiler Version 19.44.35225.0 

	TITLE	C:\IAGOS\server\v18\Source\Output\WorldServer\Release\AttackArbiter.obj
	.686P
	.XMM
	include listing.inc
	.model	flat

INCLUDELIB LIBCMT
INCLUDELIB OLDNAMES

CONST	SEGMENT
?piecewise_construct@std@@3Upiecewise_construct_t@1@B	ORG $+1 ; std::piecewise_construct
CONST	ENDS
PUBLIC	?__empty_global_delete@@YAXPAX@Z		; __empty_global_delete
PUBLIC	?__empty_global_delete@@YAXPAXI@Z		; __empty_global_delete
PUBLIC	?GetAtkType@ATTACK_INFO@@QBE?AW4ATK_TYPE@@XZ	; ATTACK_INFO::GetAtkType
PUBLIC	?CanIgnoreDEF@ATTACK_INFO@@QBEHXZ		; ATTACK_INFO::CanIgnoreDEF
PUBLIC	?GetChargeLevel@ATTACK_INFO@@QBEHXZ		; ATTACK_INFO::GetChargeLevel
PUBLIC	?GetAttackCount@ATTACK_INFO@@QBEHXZ		; ATTACK_INFO::GetAttackCount
PUBLIC	?GetSkill@ATTACK_INFO@@QBEHXZ			; ATTACK_INFO::GetSkill
PUBLIC	?IsRangeAttack@ATTACK_INFO@@QBEHXZ		; ATTACK_INFO::IsRangeAttack
PUBLIC	?GetSkillLevel@ATTACK_INFO@@QBEHXZ		; ATTACK_INFO::GetSkillLevel
PUBLIC	?GetPropA@CItemElem@@QAEPAUItemProp@@XZ		; CItemElem::GetPropA
PUBLIC	??0CAttackArbiter@@QAE@KPAVCMover@@0KHHH@Z	; CAttackArbiter::CAttackArbiter
PUBLIC	??1CAttackArbiter@@UAE@XZ			; CAttackArbiter::~CAttackArbiter
PUBLIC	?OnDamageMsgW@CAttackArbiter@@QAEHXZ		; CAttackArbiter::OnDamageMsgW
PUBLIC	?CheckValidDamageMsg@CAttackArbiter@@AAEHXZ	; CAttackArbiter::CheckValidDamageMsg
PUBLIC	?CalcDamage@CAttackArbiter@@AAEHPAUATTACK_INFO@@@Z ; CAttackArbiter::CalcDamage
PUBLIC	?ChanceSkill@CAttackArbiter@@AAEXHPAVCCtrl@@0@Z	; CAttackArbiter::ChanceSkill
PUBLIC	?ProcessAbnormal@CAttackArbiter@@AAEXHPAUATTACK_INFO@@@Z ; CAttackArbiter::ProcessAbnormal
PUBLIC	?MinusHP@CAttackArbiter@@AAEHPAH@Z		; CAttackArbiter::MinusHP
PUBLIC	?StealHP@CAttackArbiter@@AAEXHW4ATK_TYPE@@@Z	; CAttackArbiter::StealHP
PUBLIC	?OnDamaged@CAttackArbiter@@AAEXH@Z		; CAttackArbiter::OnDamaged
PUBLIC	?OnDied@CAttackArbiter@@AAEXXZ			; CAttackArbiter::OnDied
PUBLIC	?OnDiedPVP@CAttackArbiter@@AAEXXZ		; CAttackArbiter::OnDiedPVP
PUBLIC	?OnDiedSchoolEvent@CAttackArbiter@@AAEXXZ	; CAttackArbiter::OnDiedSchoolEvent
PUBLIC	?PostAsalraalaikum@CAttackArbiter@@AAEHXZ	; CAttackArbiter::PostAsalraalaikum
PUBLIC	?GetHandFlag@CAttackArbiter@@AAEEXZ		; CAttackArbiter::GetHandFlag
PUBLIC	?CalcATK@CAttackArbiter@@AAEHPAUATTACK_INFO@@@Z	; CAttackArbiter::CalcATK
PUBLIC	?PostCalcDamage@CAttackArbiter@@AAEHHPAUATTACK_INFO@@@Z ; CAttackArbiter::PostCalcDamage
PUBLIC	?OnAfterDamage@CAttackArbiter@@AAEHPAUATTACK_INFO@@H@Z ; CAttackArbiter::OnAfterDamage
PUBLIC	??_GCAttackArbiter@@UAEPAXI@Z			; CAttackArbiter::`scalar deleting destructor'
PUBLIC	?GetPostCalcType@@YA?AW4POSTCALC_TYPE@@K@Z	; GetPostCalcType
PUBLIC	??_C@_0BM@HMFGHCP@?$CFs?5min?3?$CFd?0?5max?3?$CFd?0?5index?3?$CFd@ ; `string'
PUBLIC	??_C@_0BI@BEIFNGEL@GetItemProp?5range_error@	; `string'
PUBLIC	??_C@_0BJ@GKPOBPPI@GetMoverProp?5range_error@	; `string'
PUBLIC	??_7CAttackArbiter@@6B@				; CAttackArbiter::`vftable'
PUBLIC	??_C@_0BA@GFPHKILF@ProcessAbnormal@		; `string'
PUBLIC	??_R4CAttackArbiter@@6B@			; CAttackArbiter::`RTTI Complete Object Locator'
PUBLIC	??_R0?AVCAttackArbiter@@@8			; CAttackArbiter `RTTI Type Descriptor'
PUBLIC	??_R3CAttackArbiter@@8				; CAttackArbiter::`RTTI Class Hierarchy Descriptor'
PUBLIC	??_R2CAttackArbiter@@8				; CAttackArbiter::`RTTI Base Class Array'
PUBLIC	??_R1A@?0A@EA@CAttackArbiter@@8			; CAttackArbiter::`RTTI Base Class Descriptor at (0,-1,0,64)'
PUBLIC	__real@3d4ccccd
PUBLIC	__real@3dcccccd
PUBLIC	__real@3f800000
PUBLIC	__real@42c80000
PUBLIC	__xmm@41f00000000000000000000000000000
EXTRN	??2@YAPAXI@Z:PROC				; operator new
EXTRN	??3@YAXPAXI@Z:PROC				; operator delete
EXTRN	_rand:PROC
EXTRN	?xRandom@@YAKKK@Z:PROC				; xRandom
EXTRN	?Error@@YAPBDPBDZZ:PROC				; Error
EXTRN	?IsRangeObj@CObj@@QAEHABUD3DXVECTOR3@@M@Z:PROC	; CObj::IsRangeObj
EXTRN	?Delete@CObj@@QAEXXZ:PROC			; CObj::Delete
EXTRN	?SetPos@CObj@@QAEXABUD3DXVECTOR3@@@Z:PROC	; CObj::SetPos
EXTRN	?SetAngle@CObj@@QAEXM@Z:PROC			; CObj::SetAngle
EXTRN	?DoActiveSkill@CCtrl@@QAEXKHPAV1@_NH@Z:PROC	; CCtrl::DoActiveSkill
EXTRN	?GetAttackPower@CEventLua@@QAEHH@Z:PROC		; CEventLua::GetAttackPower
EXTRN	?GetAddSkillProp@CProject@@QAEPAUAddSkillProp@@K@Z:PROC ; CProject::GetAddSkillProp
EXTRN	?GetPiercingSize@CPiercing@@QAEHXZ:PROC		; CPiercing::GetPiercingSize
EXTRN	?GetPiercingItem@CPiercing@@QAEKH@Z:PROC	; CPiercing::GetPiercingItem
EXTRN	?SetSerialNumber@CItemBase@@QAEXXZ:PROC		; CItemBase::SetSerialNumber
EXTRN	??0CItemElem@@QAE@XZ:PROC			; CItemElem::CItemElem
EXTRN	??0CItem@@QAE@XZ:PROC				; CItem::CItem
EXTRN	?ResetState@CAction@@QAEXK@Z:PROC		; CAction::ResetState
EXTRN	?HasBuff@CMover@@QAEHGG@Z:PROC			; CMover::HasBuff
EXTRN	?RemoveBuff@CMover@@QAEXGG@Z:PROC		; CMover::RemoveBuff
EXTRN	?RemoveChrStateBuffs@CMover@@QAEXK@Z:PROC	; CMover::RemoveChrStateBuffs
EXTRN	?IsReturnToBegin@CMover@@QAEHXZ:PROC		; CMover::IsReturnToBegin
EXTRN	?IsSteal@CMover@@QAEHPAV1@@Z:PROC		; CMover::IsSteal
EXTRN	?GetActiveHandItemProp@CMover@@QAEPAUItemProp@@H@Z:PROC ; CMover::GetActiveHandItemProp
EXTRN	?ClearDuel@CMover@@QAEXXZ:PROC			; CMover::ClearDuel
EXTRN	?SetDamagedMotion@CMover@@QAEXPAV1@K@Z:PROC	; CMover::SetDamagedMotion
EXTRN	?GetWeaponItem@CMover@@QAEPAVCItemElem@@H@Z:PROC ; CMover::GetWeaponItem
EXTRN	?GetParam@CMover@@QAEHHH@Z:PROC			; CMover::GetParam
EXTRN	?SetDestParam@CMover@@QAEXHHHH@Z:PROC		; CMover::SetDestParam
EXTRN	?ResetDestParam@CMover@@QAEXHHH@Z:PROC		; CMover::ResetDestParam
EXTRN	?GetAdjParam@CMover@@QAEHH@Z:PROC		; CMover::GetAdjParam
EXTRN	?GetChgParam@CMover@@QAEHH@Z:PROC		; CMover::GetChgParam
EXTRN	?SetPointParam@CMover@@QAEXHHH@Z:PROC		; CMover::SetPointParam
EXTRN	?GetSkill@CMover@@QAEPAUtagSkill@@K@Z:PROC	; CMover::GetSkill
EXTRN	?GetStr@CMover@@QAEHXZ:PROC			; CMover::GetStr
EXTRN	?AddGold@CMover@@QAEHHH@Z:PROC			; CMover::AddGold
EXTRN	?GetHitPoint@CMover@@QAEHXZ:PROC		; CMover::GetHitPoint
EXTRN	?GetManaPoint@CMover@@QAEHXZ:PROC		; CMover::GetManaPoint
EXTRN	?GetMaxHitPoint@CMover@@QAEHXZ:PROC		; CMover::GetMaxHitPoint
EXTRN	?GetDamageMultiplier@CMover@@QAEMPAUATTACK_INFO@@@Z:PROC ; CMover::GetDamageMultiplier
EXTRN	?PostCalcMagicSkill@CMover@@QAEHHPAUATTACK_INFO@@@Z:PROC ; CMover::PostCalcMagicSkill
EXTRN	?PostCalcGeneric@CMover@@QAEHHPAUATTACK_INFO@@@Z:PROC ; CMover::PostCalcGeneric
EXTRN	?GetATKMultiplier@CMover@@QAEMPAV1@K@Z:PROC	; CMover::GetATKMultiplier
EXTRN	?GetHitPower@CMover@@QAEHPAUATTACK_INFO@@@Z:PROC ; CMover::GetHitPower
EXTRN	?GetMeleeSkillPower@CMover@@QAEHPAUATTACK_INFO@@@Z:PROC ; CMover::GetMeleeSkillPower
EXTRN	?GetMagicHitPower@CMover@@QAEHH@Z:PROC		; CMover::GetMagicHitPower
EXTRN	?SetPKPropensity@CMover@@QAEXK@Z:PROC		; CMover::SetPKPropensity
EXTRN	?DropItemByDied@CMover@@QAEHPAV1@@Z:PROC	; CMover::DropItemByDied
EXTRN	?DoUseSkill@CMover@@QAEHKHKW4SKILLUSETYPE@@HH@Z:PROC ; CMover::DoUseSkill
EXTRN	?DoDie@CMover@@QAEHPAVCCtrl@@K@Z:PROC		; CMover::DoDie
EXTRN	?SubPVP@CMover@@QAEXPAV1@H@Z:PROC		; CMover::SubPVP
EXTRN	?SubDuel@CMover@@QAEHPAV1@@Z:PROC		; CMover::SubDuel
EXTRN	?SubExperience@CMover@@QAEHPAV1@@Z:PROC		; CMover::SubExperience
EXTRN	?AddKillRecovery@CMover@@QAEXXZ:PROC		; CMover::AddKillRecovery
EXTRN	?OnAttacked@CMover@@QAEXPAV1@HHH@Z:PROC		; CMover::OnAttacked
EXTRN	?GetGuild@CMover@@QAEPAVCGuild@@XZ:PROC		; CMover::GetGuild
EXTRN	?DoPVPEnd@CMover@@QAEXPAVCCtrl@@_NK@Z:PROC	; CMover::DoPVPEnd
EXTRN	?EndPVP@CMover@@QAEXH@Z:PROC			; CMover::EndPVP
EXTRN	?IsGuildCombatTarget@CMover@@QAEHPAV1@@Z:PROC	; CMover::IsGuildCombatTarget
EXTRN	?SubAroundExp@CMover@@QAEXPAV1@M@Z:PROC		; CMover::SubAroundExp
EXTRN	?ApplyDPC@CMover@@QAEHHPAUATTACK_INFO@@@Z:PROC	; CMover::ApplyDPC
EXTRN	?CalcLinkAttackDamage@CMover@@QAEHH@Z:PROC	; CMover::CalcLinkAttackDamage
EXTRN	?GetMagicSkillPower@CMover@@QAEHPAUATTACK_INFO@@@Z:PROC ; CMover::GetMagicSkillPower
EXTRN	?AddObj@CWorld@@QAEHPAVCObj@@HH@Z:PROC		; CWorld::AddObj
EXTRN	?GetInstance@CMonsterSkill@@SAPAV1@XZ:PROC	; CMonsterSkill::GetInstance
EXTRN	?GetMonsterSkillLevel@CMonsterSkill@@QAEKPAVCMover@@K@Z:PROC ; CMonsterSkill::GetMonsterSkillLevel
EXTRN	?MonsterTransform@CMonsterSkill@@QAEHPAVCMover@@H@Z:PROC ; CMonsterSkill::MonsterTransform
EXTRN	?GetState@CFlyffEvent@@QAEEH@Z:PROC		; CFlyffEvent::GetState
EXTRN	?AddDuelStart@CUser@@QAEXKH@Z:PROC		; CUser::AddDuelStart
EXTRN	?AddSetDuel@CUser@@QAEXPAVCMover@@@Z:PROC	; CUser::AddSetDuel
EXTRN	?AddDamage@CUserMng@@QAEXPAVCMover@@KKK@Z:PROC	; CUserMng::AddDamage
EXTRN	?AddCreateSfxObj@CUserMng@@QAEXPAVCCtrl@@KMMMH@Z:PROC ; CUserMng::AddCreateSfxObj
EXTRN	?AddModifyMode@CUserMng@@QAEXPAVCUser@@@Z:PROC	; CUserMng::AddModifyMode
EXTRN	?AddPKPropensity@CUserMng@@QAEXPAVCMover@@@Z:PROC ; CUserMng::AddPKPropensity
EXTRN	??_ECAttackArbiter@@UAEPAXI@Z:PROC		; CAttackArbiter::`vector deleting destructor'
EXTRN	?SendLogPkPvp@CDPDatabaseClient@@QAEXPAVCMover@@0HD@Z:PROC ; CDPDatabaseClient::SendLogPkPvp
EXTRN	?GetInstance@CEventMonster@@SAPAV1@XZ:PROC	; CEventMonster::GetInstance
EXTRN	?SetEventMonster@CEventMonster@@QAEHK@Z:PROC	; CEventMonster::SetEventMonster
EXTRN	?GetLevelGap@CEventMonster@@QAEHXZ:PROC		; CEventMonster::GetLevelGap
EXTRN	?GetInstance@CCreateMonster@@SAPAV1@XZ:PROC	; CCreateMonster::GetInstance
EXTRN	?IsAttackAble@CCreateMonster@@QAEHPAVCUser@@PAVCMover@@H@Z:PROC ; CCreateMonster::IsAttackAble
EXTRN	@__security_check_cookie@4:PROC
EXTRN	___CxxFrameHandler3:PROC
EXTRN	??_7type_info@@6B@:QWORD			; type_info::`vftable'
EXTRN	?g_next@@3KA:DWORD				; g_next
EXTRN	?prj@@3VCProject@@A:BYTE			; prj
EXTRN	?g_eLocal@@3VCFlyffEvent@@A:BYTE		; g_eLocal
EXTRN	?g_UserMng@@3VCUserMng@@A:BYTE			; g_UserMng
EXTRN	?g_dpDBClient@@3VCDPDatabaseClient@@A:BYTE	; g_dpDBClient
EXTRN	___security_cookie:DWORD
EXTRN	__fltused:DWORD
;	COMDAT __xmm@41f00000000000000000000000000000
CONST	SEGMENT
__xmm@41f00000000000000000000000000000 DB 00H, 00H, 00H, 00H, 00H, 00H, 00H
	DB	00H, 00H, 00H, 00H, 00H, 00H, 00H, 0f0H, 'A'
CONST	ENDS
;	COMDAT __real@42c80000
CONST	SEGMENT
__real@42c80000 DD 042c80000r			; 100
CONST	ENDS
;	COMDAT __real@3f800000
CONST	SEGMENT
__real@3f800000 DD 03f800000r			; 1
CONST	ENDS
;	COMDAT __real@3dcccccd
CONST	SEGMENT
__real@3dcccccd DD 03dcccccdr			; 0.1
CONST	ENDS
;	COMDAT __real@3d4ccccd
CONST	SEGMENT
__real@3d4ccccd DD 03d4ccccdr			; 0.05
CONST	ENDS
;	COMDAT ??_R1A@?0A@EA@CAttackArbiter@@8
rdata$r	SEGMENT
??_R1A@?0A@EA@CAttackArbiter@@8 DD FLAT:??_R0?AVCAttackArbiter@@@8 ; CAttackArbiter::`RTTI Base Class Descriptor at (0,-1,0,64)'
	DD	00H
	DD	00H
	DD	0ffffffffH
	DD	00H
	DD	040H
	DD	FLAT:??_R3CAttackArbiter@@8
rdata$r	ENDS
;	COMDAT ??_R2CAttackArbiter@@8
rdata$r	SEGMENT
??_R2CAttackArbiter@@8 DD FLAT:??_R1A@?0A@EA@CAttackArbiter@@8 ; CAttackArbiter::`RTTI Base Class Array'
rdata$r	ENDS
;	COMDAT ??_R3CAttackArbiter@@8
rdata$r	SEGMENT
??_R3CAttackArbiter@@8 DD 00H				; CAttackArbiter::`RTTI Class Hierarchy Descriptor'
	DD	00H
	DD	01H
	DD	FLAT:??_R2CAttackArbiter@@8
rdata$r	ENDS
;	COMDAT ??_R0?AVCAttackArbiter@@@8
data$rs	SEGMENT
??_R0?AVCAttackArbiter@@@8 DD FLAT:??_7type_info@@6B@	; CAttackArbiter `RTTI Type Descriptor'
	DD	00H
	DB	'.?AVCAttackArbiter@@', 00H
data$rs	ENDS
;	COMDAT ??_R4CAttackArbiter@@6B@
rdata$r	SEGMENT
??_R4CAttackArbiter@@6B@ DD 00H				; CAttackArbiter::`RTTI Complete Object Locator'
	DD	00H
	DD	00H
	DD	FLAT:??_R0?AVCAttackArbiter@@@8
	DD	FLAT:??_R3CAttackArbiter@@8
rdata$r	ENDS
;	COMDAT ?eventitem@?4??OnDiedSchoolEvent@CAttackArbiter@@AAEXXZ@4PAUtagEVENTITEM@@A
_DATA	SEGMENT
?eventitem@?4??OnDiedSchoolEvent@CAttackArbiter@@AAEXXZ@4PAUtagEVENTITEM@@A DD 0af5H ; `CAttackArbiter::OnDiedSchoolEvent'::`5'::eventitem
	DD	0cH
	DD	09ebH
	DD	07H
	DD	09f8H
	DD	07H
_DATA	ENDS
;	COMDAT ??_C@_0BA@GFPHKILF@ProcessAbnormal@
CONST	SEGMENT
??_C@_0BA@GFPHKILF@ProcessAbnormal@ DB 'ProcessAbnormal', 00H ; `string'
CONST	ENDS
;	COMDAT ??_7CAttackArbiter@@6B@
CONST	SEGMENT
??_7CAttackArbiter@@6B@ DD FLAT:??_R4CAttackArbiter@@6B@ ; CAttackArbiter::`vftable'
	DD	FLAT:??_ECAttackArbiter@@UAEPAXI@Z
CONST	ENDS
;	COMDAT ??_C@_0BJ@GKPOBPPI@GetMoverProp?5range_error@
CONST	SEGMENT
??_C@_0BJ@GKPOBPPI@GetMoverProp?5range_error@ DB 'GetMoverProp range_erro'
	DB	'r', 00H					; `string'
CONST	ENDS
;	COMDAT ??_C@_0BI@BEIFNGEL@GetItemProp?5range_error@
CONST	SEGMENT
??_C@_0BI@BEIFNGEL@GetItemProp?5range_error@ DB 'GetItemProp range_error', 00H ; `string'
CONST	ENDS
;	COMDAT ??_C@_0BM@HMFGHCP@?$CFs?5min?3?$CFd?0?5max?3?$CFd?0?5index?3?$CFd@
CONST	SEGMENT
??_C@_0BM@HMFGHCP@?$CFs?5min?3?$CFd?0?5max?3?$CFd?0?5index?3?$CFd@ DB '%s'
	DB	' min:%d, max:%d, index:%d', 00H		; `string'
CONST	ENDS
;	COMDAT xdata$x
xdata$x	SEGMENT
__unwindtable$?OnDiedSchoolEvent@CAttackArbiter@@AAEXXZ DD 0ffffffffH
	DD	FLAT:__unwindfunclet$?OnDiedSchoolEvent@CAttackArbiter@@AAEXXZ$0
	DD	0ffffffffH
	DD	FLAT:__unwindfunclet$?OnDiedSchoolEvent@CAttackArbiter@@AAEXXZ$1
__ehfuncinfo$?OnDiedSchoolEvent@CAttackArbiter@@AAEXXZ DD 019930522H
	DD	02H
	DD	FLAT:__unwindtable$?OnDiedSchoolEvent@CAttackArbiter@@AAEXXZ
	DD	2 DUP(00H)
	DD	2 DUP(00H)
	DD	00H
	DD	01H
xdata$x	ENDS
; Function compile flags: /Ogtp
; File C:\IAGOS\server\v18\Source\Source\WorldServer\AttackArbiter.cpp
;	COMDAT ?GetPostCalcType@@YA?AW4POSTCALC_TYPE@@K@Z
_TEXT	SEGMENT
_dwAtkFlags$ = 8					; size = 4
?GetPostCalcType@@YA?AW4POSTCALC_TYPE@@K@Z PROC		; GetPostCalcType, COMDAT

; 443  : {

  00000	55		 push	 ebp
  00001	8b ec		 mov	 ebp, esp

; 444  : 	if ( dwAtkFlags & AF_MAGICSKILL )		// ¸ĹÁ÷ ˝şĹł

  00003	8b 45 08	 mov	 eax, DWORD PTR _dwAtkFlags$[ebp]
  00006	a8 20		 test	 al, 32			; 00000020H
  00008	74 07		 je	 SHORT $LN2@GetPostCal

; 445  : 		return POSTCALC_MAGICSKILL;

  0000a	b8 01 00 00 00	 mov	 eax, 1

; 448  : 		return POSTCALC_GENERIC;
; 449  : 	
; 450  : 	return POSTCALC_DPC;
; 451  : }

  0000f	5d		 pop	 ebp
  00010	c3		 ret	 0
$LN2@GetPostCal:

; 446  : 
; 447  : 	if ( dwAtkFlags & AF_GENERIC )			// ŔĎąÝ °ř°Ý

  00011	83 e0 01	 and	 eax, 1
  00014	03 c0		 add	 eax, eax

; 448  : 		return POSTCALC_GENERIC;
; 449  : 	
; 450  : 	return POSTCALC_DPC;
; 451  : }

  00016	5d		 pop	 ebp
  00017	c3		 ret	 0
?GetPostCalcType@@YA?AW4POSTCALC_TYPE@@K@Z ENDP		; GetPostCalcType
_TEXT	ENDS
; Function compile flags: /Ogtp
;	COMDAT ??_GCAttackArbiter@@UAEPAXI@Z
_TEXT	SEGMENT
___flags$ = 8						; size = 4
??_GCAttackArbiter@@UAEPAXI@Z PROC			; CAttackArbiter::`scalar deleting destructor', COMDAT
; _this$ = ecx
  00000	55		 push	 ebp
  00001	8b ec		 mov	 ebp, esp
  00003	56		 push	 esi
  00004	8b f1		 mov	 esi, ecx
  00006	e8 00 00 00 00	 call	 ??1CAttackArbiter@@UAE@XZ ; CAttackArbiter::~CAttackArbiter
  0000b	f6 45 08 01	 test	 BYTE PTR ___flags$[ebp], 1
  0000f	74 0b		 je	 SHORT $LN5@scalar
  00011	6a 24		 push	 36			; 00000024H
  00013	56		 push	 esi
  00014	e8 00 00 00 00	 call	 ??3@YAXPAXI@Z		; operator delete
  00019	83 c4 08	 add	 esp, 8
$LN5@scalar:
  0001c	8b c6		 mov	 eax, esi
  0001e	5e		 pop	 esi
  0001f	5d		 pop	 ebp
  00020	c2 04 00	 ret	 4
??_GCAttackArbiter@@UAEPAXI@Z ENDP			; CAttackArbiter::`scalar deleting destructor'
_TEXT	ENDS
; Function compile flags: /Ogtp
; File C:\IAGOS\server\v18\Source\Source\WorldServer\AttackArbiter.cpp
; File C:\IAGOS\server\v18\Source\Source\_Common\Obj.h
; File C:\IAGOS\server\v18\Source\Source\WorldServer\AttackArbiter.cpp
; File C:\IAGOS\server\v18\Source\Source\_Common\Obj.h
; File C:\IAGOS\server\v18\Source\Source\WorldServer\AttackArbiter.cpp
; File C:\IAGOS\server\v18\Source\Source\_Common\Obj.h
; File C:\IAGOS\server\v18\Source\Source\WorldServer\AttackArbiter.cpp
; File C:\IAGOS\server\v18\Source\Source\_Common\Obj.h
; File C:\IAGOS\server\v18\Source\Source\WorldServer\AttackArbiter.cpp
; File C:\IAGOS\server\v18\Source\Source\_Common\Obj.h
; File C:\IAGOS\server\v18\Source\Source\WorldServer\AttackArbiter.cpp
; File C:\IAGOS\server\v18\Source\Source\_Common\Obj.h
; File C:\IAGOS\server\v18\Source\Source\WorldServer\AttackArbiter.cpp
;	COMDAT ?OnAfterDamage@CAttackArbiter@@AAEHPAUATTACK_INFO@@H@Z
_TEXT	SEGMENT
_pAttacker$1$ = -20					; size = 4
$T1 = -16						; size = 12
$T2 = -16						; size = 12
__$ArrayPad$ = -4					; size = 4
_pInfo$ = 8						; size = 4
_nDamage$ = 12						; size = 4
?OnAfterDamage@CAttackArbiter@@AAEHPAUATTACK_INFO@@H@Z PROC ; CAttackArbiter::OnAfterDamage, COMDAT
; _this$ = ecx

; 364  : {

  00000	55		 push	 ebp
  00001	8b ec		 mov	 ebp, esp
  00003	83 ec 14	 sub	 esp, 20			; 00000014H
  00006	a1 00 00 00 00	 mov	 eax, DWORD PTR ___security_cookie
  0000b	33 c5		 xor	 eax, ebp
  0000d	89 45 fc	 mov	 DWORD PTR __$ArrayPad$[ebp], eax
  00010	53		 push	 ebx
  00011	8b 5d 08	 mov	 ebx, DWORD PTR _pInfo$[ebp]
  00014	56		 push	 esi
  00015	57		 push	 edi

; 365  : 	CMover* pAttacker = pInfo->pAttacker;
; 366  : 	CMover* pDefender = pInfo->pDefender;
; 367  : 
; 368  : 	if( pAttacker->IsPlayer() && nDamage > 0 )

  00016	8b 7d 0c	 mov	 edi, DWORD PTR _nDamage$[ebp]
  00019	8b 03		 mov	 eax, DWORD PTR [ebx]
  0001b	8b 73 04	 mov	 esi, DWORD PTR [ebx+4]
  0001e	89 45 ec	 mov	 DWORD PTR _pAttacker$1$[ebp], eax
  00021	83 b8 30 02 00
	00 00		 cmp	 DWORD PTR [eax+560], 0
  00028	74 20		 je	 SHORT $LN3@OnAfterDam
  0002a	85 ff		 test	 edi, edi
  0002c	7e 1c		 jle	 SHORT $LN3@OnAfterDam

; 369  : 	{
; 370  : 		if( pDefender->GetAdjParam( DST_CHRSTATE ) & CHS_DOUBLE )	// ´őşíµĄąĚÁö »óĹÂ °É·Č´Ů

  0002e	6a 40		 push	 64			; 00000040H
  00030	8b ce		 mov	 ecx, esi
  00032	e8 00 00 00 00	 call	 ?GetAdjParam@CMover@@QAEHH@Z ; CMover::GetAdjParam
  00037	a9 00 40 00 00	 test	 eax, 16384		; 00004000H
  0003c	74 0c		 je	 SHORT $LN3@OnAfterDam

; 371  : 			pDefender->RemoveChrStateBuffs( CHS_DOUBLE );

  0003e	68 00 40 00 00	 push	 16384			; 00004000H
  00043	8b ce		 mov	 ecx, esi
  00045	e8 00 00 00 00	 call	 ?RemoveChrStateBuffs@CMover@@QAEXK@Z ; CMover::RemoveChrStateBuffs
$LN3@OnAfterDam:

; 372  : 	}
; 373  : 
; 374  : 	if( pDefender->GetAdjParam( DST_CHRSTATE) & CHS_ATK_COUNTERATTACK  ) // °ř°Ý´çÇßŔ»¶§ : µĄąĚÁö ľřŔ˝

  0004a	6a 40		 push	 64			; 00000040H
  0004c	8b ce		 mov	 ecx, esi
  0004e	e8 00 00 00 00	 call	 ?GetAdjParam@CMover@@QAEHH@Z ; CMover::GetAdjParam
  00053	a9 00 00 04 00	 test	 eax, 262144		; 00040000H
  00058	0f 84 88 00 00
	00		 je	 $LN4@OnAfterDam
; File C:\IAGOS\server\v18\Source\Source\_Common\Obj.h

; 215  : 	D3DXVECTOR3		GetPos()	{ return m_vPos; }

  0005e	8b 45 ec	 mov	 eax, DWORD PTR _pAttacker$1$[ebp]
; File C:\IAGOS\server\v18\Source\Source\WorldServer\AttackArbiter.cpp

; 376  : 		if( pDefender->IsRangeObj( pAttacker->GetPos(), 3.0f ) )

  00061	51		 push	 ecx
  00062	c7 04 24 00 00
	40 40		 mov	 DWORD PTR [esp], 1077936128 ; 40400000H
  00069	8b ce		 mov	 ecx, esi
; File C:\IAGOS\server\v18\Source\Source\_Common\Obj.h

; 215  : 	D3DXVECTOR3		GetPos()	{ return m_vPos; }

  0006b	f3 0f 7e 80 60
	01 00 00	 movq	 xmm0, QWORD PTR [eax+352]
  00073	8b 80 68 01 00
	00		 mov	 eax, DWORD PTR [eax+360]
  00079	89 45 f8	 mov	 DWORD PTR $T1[ebp+8], eax
; File C:\IAGOS\server\v18\Source\Source\WorldServer\AttackArbiter.cpp

; 376  : 		if( pDefender->IsRangeObj( pAttacker->GetPos(), 3.0f ) )

  0007c	8d 45 f0	 lea	 eax, DWORD PTR $T1[ebp]
  0007f	50		 push	 eax
; File C:\IAGOS\server\v18\Source\Source\_Common\Obj.h

; 215  : 	D3DXVECTOR3		GetPos()	{ return m_vPos; }

  00080	66 0f d6 45 f0	 movq	 QWORD PTR $T1[ebp], xmm0
; File C:\IAGOS\server\v18\Source\Source\WorldServer\AttackArbiter.cpp

; 376  : 		if( pDefender->IsRangeObj( pAttacker->GetPos(), 3.0f ) )

  00085	e8 00 00 00 00	 call	 ?IsRangeObj@CObj@@QAEHABUD3DXVECTOR3@@M@Z ; CObj::IsRangeObj
  0008a	85 c0		 test	 eax, eax
  0008c	0f 84 c3 00 00
	00		 je	 $LN10@OnAfterDam

; 377  : 		{
; 378  : 			pDefender->RemoveChrStateBuffs( CHS_ATK_COUNTERATTACK );

  00092	68 00 00 04 00	 push	 262144			; 00040000H
  00097	8b ce		 mov	 ecx, esi
  00099	e8 00 00 00 00	 call	 ?RemoveChrStateBuffs@CMover@@QAEXK@Z ; CMover::RemoveChrStateBuffs

; 379  : 
; 380  : 			int nLevel = 1;
; 381  : 			if( pDefender->IsPlayer() )

  0009e	83 be 30 02 00
	00 00		 cmp	 DWORD PTR [esi+560], 0
  000a5	bf 01 00 00 00	 mov	 edi, 1
  000aa	74 13		 je	 SHORT $LN8@OnAfterDam

; 382  : 			{
; 383  : 				LPSKILL pSkill = pDefender->GetSkill(SI_ACR_YOYO_COUNTER);

  000ac	68 cc 00 00 00	 push	 204			; 000000ccH
  000b1	8b ce		 mov	 ecx, esi
  000b3	e8 00 00 00 00	 call	 ?GetSkill@CMover@@QAEPAUtagSkill@@K@Z ; CMover::GetSkill

; 384  : 				if( pSkill )

  000b8	85 c0		 test	 eax, eax
  000ba	74 03		 je	 SHORT $LN8@OnAfterDam

; 385  : 				{
; 386  : #ifdef __SKILL0517
; 387  : 					nLevel	= pDefender->GetSkillLevel( pSkill );
; 388  : #else	// __SKILL0517
; 389  : 					nLevel = pSkill->dwLevel;

  000bc	8b 78 04	 mov	 edi, DWORD PTR [eax+4]
$LN8@OnAfterDam:

; 390  : #endif	// __SKILL0517
; 391  : 				}
; 392  : 			}
; 393  : #if __VER >= 8 // __S8_PK
; 394  : 			pDefender->DoUseSkill( SI_GEN_ATK_COUNTER, nLevel, pAttacker->GetId(), SUT_NORMAL, FALSE, 0 );

  000bf	8b 45 ec	 mov	 eax, DWORD PTR _pAttacker$1$[ebp]
  000c2	8b ce		 mov	 ecx, esi
  000c4	6a 00		 push	 0
  000c6	6a 00		 push	 0
  000c8	6a 00		 push	 0
  000ca	ff b0 bc 01 00
	00		 push	 DWORD PTR [eax+444]
  000d0	57		 push	 edi
  000d1	68 df 00 00 00	 push	 223			; 000000dfH
  000d6	e8 00 00 00 00	 call	 ?DoUseSkill@CMover@@QAEHKHKW4SKILLUSETYPE@@HH@Z ; CMover::DoUseSkill

; 395  : #else // __VER >= 8 __S8_PK
; 396  : 			pDefender->DoUseSkill( SI_GEN_ATK_COUNTER, nLevel, pAttacker->GetId(), SUT_NORMAL, 0 );
; 397  : #endif // __VER >= 8 __S8_PK
; 398  : 
; 399  : 			nDamage = 0;

  000db	33 ff		 xor	 edi, edi

; 400  : 			pInfo->dwAtkFlags = AF_MISS;

  000dd	c7 43 08 02 00
	00 00		 mov	 DWORD PTR [ebx+8], 2

; 401  : 		}
; 402  : 	}

  000e4	eb 6f		 jmp	 SHORT $LN10@OnAfterDam
$LN4@OnAfterDam:

; 403  : 	else
; 404  : 	if( pDefender->GetAdjParam( DST_CHRSTATE) & CHS_DMG_COUNTERATTACK  ) // °ř°Ý´çÇßŔ»¶§ : µĄąĚÁö ŔÖŔ˝

  000e6	6a 40		 push	 64			; 00000040H
  000e8	8b ce		 mov	 ecx, esi
  000ea	e8 00 00 00 00	 call	 ?GetAdjParam@CMover@@QAEHH@Z ; CMover::GetAdjParam
  000ef	a9 00 00 02 00	 test	 eax, 131072		; 00020000H
  000f4	74 5f		 je	 SHORT $LN10@OnAfterDam
; File C:\IAGOS\server\v18\Source\Source\_Common\Obj.h

; 215  : 	D3DXVECTOR3		GetPos()	{ return m_vPos; }

  000f6	8b 45 ec	 mov	 eax, DWORD PTR _pAttacker$1$[ebp]
; File C:\IAGOS\server\v18\Source\Source\WorldServer\AttackArbiter.cpp

; 406  : 		if( pDefender->IsRangeObj( pAttacker->GetPos(), 3.0f ) )

  000f9	51		 push	 ecx
  000fa	c7 04 24 00 00
	40 40		 mov	 DWORD PTR [esp], 1077936128 ; 40400000H
  00101	8b ce		 mov	 ecx, esi
; File C:\IAGOS\server\v18\Source\Source\_Common\Obj.h

; 215  : 	D3DXVECTOR3		GetPos()	{ return m_vPos; }

  00103	f3 0f 7e 80 60
	01 00 00	 movq	 xmm0, QWORD PTR [eax+352]
  0010b	8b 80 68 01 00
	00		 mov	 eax, DWORD PTR [eax+360]
  00111	89 45 f8	 mov	 DWORD PTR $T2[ebp+8], eax
; File C:\IAGOS\server\v18\Source\Source\WorldServer\AttackArbiter.cpp

; 406  : 		if( pDefender->IsRangeObj( pAttacker->GetPos(), 3.0f ) )

  00114	8d 45 f0	 lea	 eax, DWORD PTR $T2[ebp]
  00117	50		 push	 eax
; File C:\IAGOS\server\v18\Source\Source\_Common\Obj.h

; 215  : 	D3DXVECTOR3		GetPos()	{ return m_vPos; }

  00118	66 0f d6 45 f0	 movq	 QWORD PTR $T2[ebp], xmm0
; File C:\IAGOS\server\v18\Source\Source\WorldServer\AttackArbiter.cpp

; 406  : 		if( pDefender->IsRangeObj( pAttacker->GetPos(), 3.0f ) )

  0011d	e8 00 00 00 00	 call	 ?IsRangeObj@CObj@@QAEHABUD3DXVECTOR3@@M@Z ; CObj::IsRangeObj
  00122	85 c0		 test	 eax, eax
  00124	74 2f		 je	 SHORT $LN10@OnAfterDam

; 407  : 		{
; 408  : 			pDefender->RemoveChrStateBuffs( CHS_DMG_COUNTERATTACK );

  00126	68 00 00 02 00	 push	 131072			; 00020000H
  0012b	8b ce		 mov	 ecx, esi
  0012d	e8 00 00 00 00	 call	 ?RemoveChrStateBuffs@CMover@@QAEXK@Z ; CMover::RemoveChrStateBuffs

; 409  : #if __VER >= 8 // __S8_PK
; 410  : 			pDefender->DoUseSkill( SI_GEN_ATK_COUNTER, pInfo->GetSkillLevel(), pAttacker->GetId(), SUT_NORMAL, FALSE, 0 );	

  00132	8b 45 ec	 mov	 eax, DWORD PTR _pAttacker$1$[ebp]
  00135	8b cb		 mov	 ecx, ebx
  00137	6a 00		 push	 0
  00139	6a 00		 push	 0
  0013b	6a 00		 push	 0
  0013d	ff b0 bc 01 00
	00		 push	 DWORD PTR [eax+444]
  00143	e8 00 00 00 00	 call	 ?GetSkillLevel@ATTACK_INFO@@QBEHXZ ; ATTACK_INFO::GetSkillLevel
  00148	50		 push	 eax
  00149	68 df 00 00 00	 push	 223			; 000000dfH
  0014e	8b ce		 mov	 ecx, esi
  00150	e8 00 00 00 00	 call	 ?DoUseSkill@CMover@@QAEHKHKW4SKILLUSETYPE@@HH@Z ; CMover::DoUseSkill
$LN10@OnAfterDam:

; 411  : #else // __VER >= 8 __S8_PK
; 412  : 			pDefender->DoUseSkill( SI_GEN_ATK_COUNTER, pInfo->GetSkillLevel(), pAttacker->GetId(), SUT_NORMAL, 0 );	
; 413  : #endif // __VER >= 8 __S8_PK
; 414  : 		}
; 415  : 	}
; 416  : 
; 417  : 	if( pInfo->GetSkill() == SI_JST_YOYO_HITOFPENYA && nDamage > 0 )

  00155	8b cb		 mov	 ecx, ebx
  00157	e8 00 00 00 00	 call	 ?GetSkill@ATTACK_INFO@@QBEHXZ ; ATTACK_INFO::GetSkill
  0015c	3d d4 00 00 00	 cmp	 eax, 212		; 000000d4H
  00161	75 1e		 jne	 SHORT $LN11@OnAfterDam
  00163	85 ff		 test	 edi, edi
  00165	7e 1a		 jle	 SHORT $LN11@OnAfterDam

; 418  : 	{
; 419  : 		nDamage = min( pAttacker->GetGold(), nDamage );

  00167	8b 4d ec	 mov	 ecx, DWORD PTR _pAttacker$1$[ebp]

; 420  : 		pAttacker->AddGold( -nDamage );

  0016a	6a 01		 push	 1
  0016c	8b 81 e0 14 00
	00		 mov	 eax, DWORD PTR [ecx+5344]
  00172	3b c7		 cmp	 eax, edi
  00174	0f 4d c7	 cmovge	 eax, edi
  00177	8b f8		 mov	 edi, eax
  00179	f7 d8		 neg	 eax
  0017b	50		 push	 eax
  0017c	e8 00 00 00 00	 call	 ?AddGold@CMover@@QAEHHH@Z ; CMover::AddGold
$LN11@OnAfterDam:

; 421  : 	}
; 422  : 
; 423  : #if __VER >= 9	//__AI_0509
; 424  : 	if( pDefender->IsReturnToBegin() )

  00181	8b ce		 mov	 ecx, esi
  00183	e8 00 00 00 00	 call	 ?IsReturnToBegin@CMover@@QAEHXZ ; CMover::IsReturnToBegin
  00188	85 c0		 test	 eax, eax
  0018a	74 1c		 je	 SHORT $LN22@OnAfterDam

; 425  : 	{
; 426  : 		nDamage = 0;
; 427  : 		pInfo->dwAtkFlags = AF_MISS;
; 428  : 	}
; 429  : #endif	// __AI_0509
; 430  : 
; 431  : 	return nDamage;
; 432  : }

  0018c	5f		 pop	 edi
  0018d	5e		 pop	 esi
  0018e	c7 43 08 02 00
	00 00		 mov	 DWORD PTR [ebx+8], 2
  00195	33 c0		 xor	 eax, eax
  00197	5b		 pop	 ebx
  00198	8b 4d fc	 mov	 ecx, DWORD PTR __$ArrayPad$[ebp]
  0019b	33 cd		 xor	 ecx, ebp
  0019d	e8 00 00 00 00	 call	 @__security_check_cookie@4
  001a2	8b e5		 mov	 esp, ebp
  001a4	5d		 pop	 ebp
  001a5	c2 08 00	 ret	 8
$LN22@OnAfterDam:
  001a8	8b 4d fc	 mov	 ecx, DWORD PTR __$ArrayPad$[ebp]
  001ab	8b c7		 mov	 eax, edi
  001ad	5f		 pop	 edi
  001ae	5e		 pop	 esi
  001af	33 cd		 xor	 ecx, ebp
  001b1	5b		 pop	 ebx
  001b2	e8 00 00 00 00	 call	 @__security_check_cookie@4
  001b7	8b e5		 mov	 esp, ebp
  001b9	5d		 pop	 ebp
  001ba	c2 08 00	 ret	 8
?OnAfterDamage@CAttackArbiter@@AAEHPAUATTACK_INFO@@H@Z ENDP ; CAttackArbiter::OnAfterDamage
_TEXT	ENDS
; Function compile flags: /Ogtp
; File C:\IAGOS\server\v18\Source\Source\WorldServer\AttackArbiter.cpp
; File C:\IAGOS\server\v18\Source\Source\_Common\Mover.h
; File C:\IAGOS\server\v18\Source\Source\WorldServer\AttackArbiter.cpp
;	COMDAT ?PostCalcDamage@CAttackArbiter@@AAEHHPAUATTACK_INFO@@@Z
_TEXT	SEGMENT
_this$1$ = -4						; size = 4
_nATK$ = 8						; size = 4
_nDamage$2$ = 8						; size = 4
tv286 = 8						; size = 4
tv288 = 8						; size = 4
_pInfo$ = 12						; size = 4
_pDefender$1$ = 12					; size = 4
?PostCalcDamage@CAttackArbiter@@AAEHHPAUATTACK_INFO@@@Z PROC ; CAttackArbiter::PostCalcDamage, COMDAT
; _this$ = ecx

; 454  : {

  00000	55		 push	 ebp
  00001	8b ec		 mov	 ebp, esp
  00003	51		 push	 ecx
  00004	57		 push	 edi

; 455  : 	if ( pInfo->dwAtkFlags & AF_FORCE )		// 

  00005	8b 7d 0c	 mov	 edi, DWORD PTR _pInfo$[ebp]
  00008	89 4d fc	 mov	 DWORD PTR _this$1$[ebp], ecx
  0000b	8b 57 08	 mov	 edx, DWORD PTR [edi+8]
  0000e	f7 c2 00 20 00
	00		 test	 edx, 8192		; 00002000H
  00014	74 0a		 je	 SHORT $LN4@PostCalcDa

; 456  : 		return nATK;

  00016	8b 45 08	 mov	 eax, DWORD PTR _nATK$[ebp]
  00019	5f		 pop	 edi

; 518  : 	return nDamage;
; 519  : }	

  0001a	8b e5		 mov	 esp, ebp
  0001c	5d		 pop	 ebp
  0001d	c2 08 00	 ret	 8
$LN4@PostCalcDa:

; 457  : 
; 458  : 	CMover* pAttacker = pInfo->pAttacker;
; 459  : 	CMover* pDefender = pInfo->pDefender;

  00020	8b 47 04	 mov	 eax, DWORD PTR [edi+4]
  00023	89 45 0c	 mov	 DWORD PTR _pDefender$1$[ebp], eax
  00026	53		 push	 ebx
  00027	8b 1f		 mov	 ebx, DWORD PTR [edi]
  00029	56		 push	 esi

; 462  : 	if( ((pInfo->dwAtkFlags & AF_MAGICSKILL) == 0) && pAttacker->IsNPC() && pDefender->IsPlayer() )	

  0002a	f6 c2 20	 test	 dl, 32			; 00000020H
  0002d	75 4b		 jne	 SHORT $LN19@PostCalcDa
; File C:\IAGOS\server\v18\Source\Source\_Common\Mover.h

; 1015 : 	BOOL			IsNPC()				{ return !m_bPlayer; }

  0002f	83 bb 30 02 00
	00 00		 cmp	 DWORD PTR [ebx+560], 0
; File C:\IAGOS\server\v18\Source\Source\WorldServer\AttackArbiter.cpp

; 462  : 	if( ((pInfo->dwAtkFlags & AF_MAGICSKILL) == 0) && pAttacker->IsNPC() && pDefender->IsPlayer() )	

  00036	75 42		 jne	 SHORT $LN19@PostCalcDa
  00038	83 b8 30 02 00
	00 00		 cmp	 DWORD PTR [eax+560], 0
  0003f	74 39		 je	 SHORT $LN19@PostCalcDa

; 463  : 	{
; 464  : 		int nDelta = pAttacker->GetLevel() - pDefender->GetLevel();

  00041	8b 8b d8 05 00
	00		 mov	 ecx, DWORD PTR [ebx+1496]
  00047	2b 88 d8 05 00
	00		 sub	 ecx, DWORD PTR [eax+1496]

; 465  : 		if( nDelta > 0 ) 

  0004d	85 c9		 test	 ecx, ecx
  0004f	7e 29		 jle	 SHORT $LN19@PostCalcDa

; 466  : 		{
; 467  : 			float fpower = 1.0f + ( 0.05f * nDelta );

  00051	66 0f 6e 45 08	 movd	 xmm0, DWORD PTR _nATK$[ebp]
  00056	66 0f 6e c9	 movd	 xmm1, ecx
  0005a	0f 5b c9	 cvtdq2ps xmm1, xmm1

; 468  : 			nATK	= (int)( nATK * fpower );

  0005d	0f 5b c0	 cvtdq2ps xmm0, xmm0
  00060	f3 0f 59 0d 00
	00 00 00	 mulss	 xmm1, DWORD PTR __real@3d4ccccd
  00068	f3 0f 58 0d 00
	00 00 00	 addss	 xmm1, DWORD PTR __real@3f800000
  00070	f3 0f 59 c8	 mulss	 xmm1, xmm0
  00074	f3 0f 2c f1	 cvttss2si esi, xmm1
  00078	eb 03		 jmp	 SHORT $LN6@PostCalcDa
$LN19@PostCalcDa:

; 465  : 		if( nDelta > 0 ) 

  0007a	8b 75 08	 mov	 esi, DWORD PTR _nATK$[ebp]
$LN6@PostCalcDa:

; 469  : 		}
; 470  : 	}
; 471  : 
; 472  : 	int nDamage = nATK;
; 473  : 	switch( GetPostCalcType( pInfo->dwAtkFlags ) )

  0007d	52		 push	 edx
  0007e	e8 00 00 00 00	 call	 ?GetPostCalcType@@YA?AW4POSTCALC_TYPE@@K@Z ; GetPostCalcType
  00083	83 c4 04	 add	 esp, 4
  00086	83 e8 00	 sub	 eax, 0
  00089	74 20		 je	 SHORT $LN7@PostCalcDa
  0008b	83 e8 01	 sub	 eax, 1
  0008e	74 10		 je	 SHORT $LN8@PostCalcDa
  00090	83 e8 01	 sub	 eax, 1
  00093	75 22		 jne	 SHORT $LN2@PostCalcDa

; 485  : 	case POSTCALC_GENERIC:
; 486  : 		nDamage = pAttacker->PostCalcGeneric( nATK, pInfo );

  00095	57		 push	 edi
  00096	56		 push	 esi
  00097	8b cb		 mov	 ecx, ebx
  00099	e8 00 00 00 00	 call	 ?PostCalcGeneric@CMover@@QAEHHPAUATTACK_INFO@@@Z ; CMover::PostCalcGeneric
  0009e	eb 15		 jmp	 SHORT $LN39@PostCalcDa
$LN8@PostCalcDa:

; 477  : #if __VER < 13 // __EXT_ENCHANT
; 478  : 		if( nATK > 0 )
; 479  : 			nDamage += pAttacker->CalcPropDamage( pDefender, pInfo->dwAtkFlags );		// ĽÓĽşµĄąĚÁö¸¦ Ăß°ˇ
; 480  : #endif // __EXT_ENCHANT
; 481  : 		break;
; 482  : 	case POSTCALC_MAGICSKILL:
; 483  : 		nDamage = pAttacker->PostCalcMagicSkill( nATK, pInfo );

  000a0	57		 push	 edi
  000a1	56		 push	 esi
  000a2	8b cb		 mov	 ecx, ebx
  000a4	e8 00 00 00 00	 call	 ?PostCalcMagicSkill@CMover@@QAEHHPAUATTACK_INFO@@@Z ; CMover::PostCalcMagicSkill

; 484  : 		break;

  000a9	eb 0a		 jmp	 SHORT $LN39@PostCalcDa
$LN7@PostCalcDa:

; 474  : 	{
; 475  : 	case POSTCALC_DPC:
; 476  : 		nDamage = pDefender->ApplyDPC( nATK, pInfo );	// Defense, Parry, Critical Ŕűżë

  000ab	8b 4d 0c	 mov	 ecx, DWORD PTR _pDefender$1$[ebp]
  000ae	57		 push	 edi
  000af	56		 push	 esi
  000b0	e8 00 00 00 00	 call	 ?ApplyDPC@CMover@@QAEHHPAUATTACK_INFO@@@Z ; CMover::ApplyDPC
$LN39@PostCalcDa:

; 487  : 		break;
; 488  : 	}
; 489  : 
; 490  : 	if( nDamage <= 0 )

  000b5	8b f0		 mov	 esi, eax
$LN2@PostCalcDa:
  000b7	85 f6		 test	 esi, esi
  000b9	7f 0b		 jg	 SHORT $LN10@PostCalcDa

; 491  : 		return 0;

  000bb	5e		 pop	 esi
  000bc	5b		 pop	 ebx
  000bd	33 c0		 xor	 eax, eax
  000bf	5f		 pop	 edi

; 518  : 	return nDamage;
; 519  : }	

  000c0	8b e5		 mov	 esp, ebp
  000c2	5d		 pop	 ebp
  000c3	c2 08 00	 ret	 8
$LN10@PostCalcDa:

; 492  : 
; 493  : 	nDamage += pAttacker->CalcLinkAttackDamage( nDamage );						// ¸µĹ©ľîĹĂ ˝şĹłŔ» ŔűżëÇŃ´Ů.

  000c6	56		 push	 esi
  000c7	8b cb		 mov	 ecx, ebx
  000c9	e8 00 00 00 00	 call	 ?CalcLinkAttackDamage@CMover@@QAEHH@Z ; CMover::CalcLinkAttackDamage

; 494  : 	if( pInfo->GetSkill() == SI_BIL_PST_ASALRAALAIKUM )

  000ce	8b cf		 mov	 ecx, edi
  000d0	03 f0		 add	 esi, eax
  000d2	e8 00 00 00 00	 call	 ?GetSkill@ATTACK_INFO@@QBEHXZ ; ATTACK_INFO::GetSkill
  000d7	3d 9f 00 00 00	 cmp	 eax, 159		; 0000009fH
  000dc	75 0a		 jne	 SHORT $LN11@PostCalcDa

; 495  : 		nDamage += PostAsalraalaikum();

  000de	8b 4d fc	 mov	 ecx, DWORD PTR _this$1$[ebp]
  000e1	e8 00 00 00 00	 call	 ?PostAsalraalaikum@CAttackArbiter@@AAEHXZ ; CAttackArbiter::PostAsalraalaikum
  000e6	03 f0		 add	 esi, eax
$LN11@PostCalcDa:

; 496  : 
; 497  : 	nDamage	= (int)( nDamage * pAttacker->GetDamageMultiplier( pInfo ) );		// µĄąĚÁöÁőĆř 

  000e8	57		 push	 edi
  000e9	8b cb		 mov	 ecx, ebx
  000eb	e8 00 00 00 00	 call	 ?GetDamageMultiplier@CMover@@QAEMPAUATTACK_INFO@@@Z ; CMover::GetDamageMultiplier
  000f0	66 0f 6e c6	 movd	 xmm0, esi

; 498  : #ifdef __3RD_LEGEND16
; 499  :   if( pDefender->IsPlayer() && pAttacker->IsPlayer() )

  000f4	8b 75 0c	 mov	 esi, DWORD PTR _pDefender$1$[ebp]
  000f7	0f 5b c0	 cvtdq2ps xmm0, xmm0
  000fa	83 be 30 02 00
	00 00		 cmp	 DWORD PTR [esi+560], 0
  00101	f3 0f 11 45 08	 movss	 DWORD PTR tv288[ebp], xmm0
  00106	d8 4d 08	 fmul	 DWORD PTR tv288[ebp]
  00109	d9 5d 08	 fstp	 DWORD PTR tv286[ebp]
  0010c	74 71		 je	 SHORT $LN21@PostCalcDa
  0010e	83 bb 30 02 00
	00 00		 cmp	 DWORD PTR [ebx+560], 0
  00115	74 68		 je	 SHORT $LN21@PostCalcDa

; 500  :   {
; 501  :     int nImmunity = pDefender->GetParam( DST_IGNORE_DMG_PVP, 0 );

  00117	6a 00		 push	 0
  00119	6a 5e		 push	 94			; 0000005eH
  0011b	8b ce		 mov	 ecx, esi
  0011d	e8 00 00 00 00	 call	 ?GetParam@CMover@@QAEHHH@Z ; CMover::GetParam
  00122	8b c8		 mov	 ecx, eax

; 502  :     if( nImmunity > 0 )

  00124	f3 0f 2c 45 08	 cvttss2si eax, DWORD PTR tv286[ebp]
  00129	85 c9		 test	 ecx, ecx
  0012b	7e 57		 jle	 SHORT $LN15@PostCalcDa

; 503  :     {
; 504  :       if( ( nImmunity - nDamage ) <= 0 )

  0012d	8b d1		 mov	 edx, ecx
  0012f	2b d0		 sub	 edx, eax
  00131	85 d2		 test	 edx, edx
  00133	7f 29		 jg	 SHORT $LN14@PostCalcDa

; 505  :       {
; 506  :         nDamage -= nImmunity;

  00135	2b c1		 sub	 eax, ecx

; 507  :         pDefender->RemoveBuff( BUFF_SKILL, SI_FLO_SUP_ABSOLUTE );

  00137	8b ce		 mov	 ecx, esi
  00139	68 a5 01 00 00	 push	 421			; 000001a5H
  0013e	6a 01		 push	 1
  00140	89 45 08	 mov	 DWORD PTR _nDamage$2$[ebp], eax
  00143	e8 00 00 00 00	 call	 ?RemoveBuff@CMover@@QAEXGG@Z ; CMover::RemoveBuff

; 508  :       }

  00148	8b 45 08	 mov	 eax, DWORD PTR _nDamage$2$[ebp]

; 512  :         nDamage = 0;
; 513  :       }
; 514  :     }
; 515  :   }
; 516  : #endif // __3RD_LEGEND16
; 517  : 	nDamage = OnAfterDamage( pInfo, nDamage );

  0014b	8b 4d fc	 mov	 ecx, DWORD PTR _this$1$[ebp]
  0014e	50		 push	 eax
  0014f	57		 push	 edi
  00150	e8 00 00 00 00	 call	 ?OnAfterDamage@CAttackArbiter@@AAEHPAUATTACK_INFO@@H@Z ; CAttackArbiter::OnAfterDamage
  00155	5e		 pop	 esi
  00156	5b		 pop	 ebx
  00157	5f		 pop	 edi

; 518  : 	return nDamage;
; 519  : }	

  00158	8b e5		 mov	 esp, ebp
  0015a	5d		 pop	 ebp
  0015b	c2 08 00	 ret	 8
$LN14@PostCalcDa:

; 509  :       else
; 510  :       {
; 511  :         pDefender->ResetDestParam( DST_IGNORE_DMG_PVP, nDamage, TRUE );

  0015e	6a 01		 push	 1
  00160	50		 push	 eax
  00161	6a 5e		 push	 94			; 0000005eH
  00163	8b ce		 mov	 ecx, esi
  00165	e8 00 00 00 00	 call	 ?ResetDestParam@CMover@@QAEXHHH@Z ; CMover::ResetDestParam

; 512  :         nDamage = 0;
; 513  :       }
; 514  :     }
; 515  :   }
; 516  : #endif // __3RD_LEGEND16
; 517  : 	nDamage = OnAfterDamage( pInfo, nDamage );

  0016a	8b 4d fc	 mov	 ecx, DWORD PTR _this$1$[ebp]
  0016d	33 c0		 xor	 eax, eax
  0016f	50		 push	 eax
  00170	57		 push	 edi
  00171	e8 00 00 00 00	 call	 ?OnAfterDamage@CAttackArbiter@@AAEHPAUATTACK_INFO@@H@Z ; CAttackArbiter::OnAfterDamage
  00176	5e		 pop	 esi
  00177	5b		 pop	 ebx
  00178	5f		 pop	 edi

; 518  : 	return nDamage;
; 519  : }	

  00179	8b e5		 mov	 esp, ebp
  0017b	5d		 pop	 ebp
  0017c	c2 08 00	 ret	 8
$LN21@PostCalcDa:

; 512  :         nDamage = 0;
; 513  :       }
; 514  :     }
; 515  :   }
; 516  : #endif // __3RD_LEGEND16
; 517  : 	nDamage = OnAfterDamage( pInfo, nDamage );

  0017f	f3 0f 2c 45 08	 cvttss2si eax, DWORD PTR tv286[ebp]
$LN15@PostCalcDa:
  00184	8b 4d fc	 mov	 ecx, DWORD PTR _this$1$[ebp]
  00187	50		 push	 eax
  00188	57		 push	 edi
  00189	e8 00 00 00 00	 call	 ?OnAfterDamage@CAttackArbiter@@AAEHPAUATTACK_INFO@@H@Z ; CAttackArbiter::OnAfterDamage
  0018e	5e		 pop	 esi
  0018f	5b		 pop	 ebx
  00190	5f		 pop	 edi

; 518  : 	return nDamage;
; 519  : }	

  00191	8b e5		 mov	 esp, ebp
  00193	5d		 pop	 ebp
  00194	c2 08 00	 ret	 8
?PostCalcDamage@CAttackArbiter@@AAEHHPAUATTACK_INFO@@@Z ENDP ; CAttackArbiter::PostCalcDamage
_TEXT	ENDS
; Function compile flags: /Ogtp
; File C:\IAGOS\server\v18\Source\Source\WorldServer\AttackArbiter.cpp
;	COMDAT ?CalcATK@CAttackArbiter@@AAEHPAUATTACK_INFO@@@Z
_TEXT	SEGMENT
tv240 = -4						; size = 4
tv242 = -4						; size = 4
_pInfo$ = 8						; size = 4
_nCount$1$ = 8						; size = 4
?CalcATK@CAttackArbiter@@AAEHPAUATTACK_INFO@@@Z PROC	; CAttackArbiter::CalcATK, COMDAT
; _this$ = ecx

; 305  : {

  00000	55		 push	 ebp
  00001	8b ec		 mov	 ebp, esp
  00003	51		 push	 ecx
  00004	53		 push	 ebx
  00005	56		 push	 esi

; 306  : 	int nATK = 0;
; 307  : 	int nCount = pInfo->GetAttackCount();		// ŔĎąÝ 0, ÁöĽÓµĄąĚÁö 1ŔĚ»ó 

  00006	8b 75 08	 mov	 esi, DWORD PTR _pInfo$[ebp]
  00009	33 db		 xor	 ebx, ebx
  0000b	57		 push	 edi
  0000c	8b f9		 mov	 edi, ecx
  0000e	8b ce		 mov	 ecx, esi
  00010	e8 00 00 00 00	 call	 ?GetAttackCount@ATTACK_INFO@@QBEHXZ ; ATTACK_INFO::GetAttackCount

; 308  : 
; 309  : 	switch( pInfo->GetAtkType() )

  00015	8b ce		 mov	 ecx, esi
  00017	89 45 08	 mov	 DWORD PTR _nCount$1$[ebp], eax
  0001a	e8 00 00 00 00	 call	 ?GetAtkType@ATTACK_INFO@@QBE?AW4ATK_TYPE@@XZ ; ATTACK_INFO::GetAtkType
  0001f	83 f8 04	 cmp	 eax, 4
  00022	77 46		 ja	 SHORT $LN2@CalcATK
  00024	ff 24 85 00 00
	00 00		 jmp	 DWORD PTR $LN13@CalcATK[eax*4]
$LN4@CalcATK:

; 310  : 	{
; 311  : 	case ATK_FORCE:								// ąĚ¸®°č»ęµČ µĄąĚÁö (ąÝ»ç, »çŔĚĹ± żů)
; 312  : 		nATK = m_nParam;						

  0002b	8b 5f 14	 mov	 ebx, DWORD PTR [edi+20]

; 313  : 		nCount = 0;		

  0002e	c7 45 08 00 00
	00 00		 mov	 DWORD PTR _nCount$1$[ebp], 0

; 314  : 		break;

  00035	eb 33		 jmp	 SHORT $LN2@CalcATK
$LN5@CalcATK:

; 315  : 	case ATK_MELEESKILL:						// ąĐ¸®˝şĹł 
; 316  : 		nATK = m_pAttacker->GetMeleeSkillPower( pInfo );

  00037	8b 4f 08	 mov	 ecx, DWORD PTR [edi+8]
  0003a	56		 push	 esi
  0003b	e8 00 00 00 00	 call	 ?GetMeleeSkillPower@CMover@@QAEHPAUATTACK_INFO@@@Z ; CMover::GetMeleeSkillPower

; 317  : 		break;

  00040	eb 26		 jmp	 SHORT $LN17@CalcATK
$LN6@CalcATK:

; 318  : 	case ATK_MAGICSKILL:						// ¸ĹÁ÷ ˝şĹł 
; 319  : 		nATK = m_pAttacker->GetMagicSkillPower( pInfo );

  00042	8b 4f 08	 mov	 ecx, DWORD PTR [edi+8]
  00045	56		 push	 esi
  00046	e8 00 00 00 00	 call	 ?GetMagicSkillPower@CMover@@QAEHPAUATTACK_INFO@@@Z ; CMover::GetMagicSkillPower

; 320  : 		break;

  0004b	eb 1b		 jmp	 SHORT $LN17@CalcATK
$LN7@CalcATK:

; 321  : 	case ATK_MAGIC:								// żĎµĺ °ř°Ý 
; 322  : 		nATK = m_pAttacker->GetMagicHitPower( pInfo->GetChargeLevel() );

  0004d	8b ce		 mov	 ecx, esi
  0004f	e8 00 00 00 00	 call	 ?GetChargeLevel@ATTACK_INFO@@QBEHXZ ; ATTACK_INFO::GetChargeLevel
  00054	8b 4f 08	 mov	 ecx, DWORD PTR [edi+8]
  00057	50		 push	 eax
  00058	e8 00 00 00 00	 call	 ?GetMagicHitPower@CMover@@QAEHH@Z ; CMover::GetMagicHitPower

; 323  : 		break;

  0005d	eb 09		 jmp	 SHORT $LN17@CalcATK
$LN8@CalcATK:

; 324  : 	case ATK_GENERIC:							// ŔĎąÝ °ř°Ý 
; 325  : 		nATK = m_pAttacker->GetHitPower( pInfo );

  0005f	8b 4f 08	 mov	 ecx, DWORD PTR [edi+8]
  00062	56		 push	 esi
  00063	e8 00 00 00 00	 call	 ?GetHitPower@CMover@@QAEHPAUATTACK_INFO@@@Z ; CMover::GetHitPower
$LN17@CalcATK:

; 326  : 		break;
; 327  : 	}
; 328  : 
; 329  : 	nATK	= (int)( nATK * m_pAttacker->GetATKMultiplier( m_pDefender, pInfo->dwAtkFlags ) );	// ĽřĽö°ř°Ý·ÂŔ» ÁőĆřÇŃ´Ů. 	

  00068	8b d8		 mov	 ebx, eax
$LN2@CalcATK:
  0006a	ff 76 08	 push	 DWORD PTR [esi+8]
  0006d	8b 4f 08	 mov	 ecx, DWORD PTR [edi+8]
  00070	ff 77 0c	 push	 DWORD PTR [edi+12]
  00073	e8 00 00 00 00	 call	 ?GetATKMultiplier@CMover@@QAEMPAV1@K@Z ; CMover::GetATKMultiplier

; 330  : 	if( nCount > 0 )															// ÁöĽÓµĄąĚÁö´Â °č»ęµČ ATK 10%

  00078	83 7d 08 00	 cmp	 DWORD PTR _nCount$1$[ebp], 0
  0007c	66 0f 6e c3	 movd	 xmm0, ebx
  00080	0f 5b c0	 cvtdq2ps xmm0, xmm0
  00083	f3 0f 11 45 fc	 movss	 DWORD PTR tv242[ebp], xmm0
  00088	d8 4d fc	 fmul	 DWORD PTR tv242[ebp]
  0008b	d9 5d fc	 fstp	 DWORD PTR tv240[ebp]
  0008e	f3 0f 2c 75 fc	 cvttss2si esi, DWORD PTR tv240[ebp]
  00093	7e 13		 jle	 SHORT $LN9@CalcATK

; 331  : 		nATK	= (int)( nATK * 0.1f );

  00095	66 0f 6e c6	 movd	 xmm0, esi
  00099	0f 5b c0	 cvtdq2ps xmm0, xmm0
  0009c	f3 0f 59 05 00
	00 00 00	 mulss	 xmm0, DWORD PTR __real@3dcccccd
  000a4	f3 0f 2c f0	 cvttss2si esi, xmm0
$LN9@CalcATK:

; 332  : 
; 333  : //#ifdef __PET_0410
; 334  : 	nATK	+= m_pAttacker->GetParam( DST_ATKPOWER, 0 );

  000a8	8b 4f 08	 mov	 ecx, DWORD PTR [edi+8]
  000ab	6a 00		 push	 0
  000ad	6a 53		 push	 83			; 00000053H
  000af	e8 00 00 00 00	 call	 ?GetParam@CMover@@QAEHHH@Z ; CMover::GetParam
  000b4	03 f0		 add	 esi, eax

; 335  : //#endif	// __PET_0410
; 336  : 
; 337  : #if __VER >= 9 // __EVENTLUA_ATKDEF
; 338  : 	if( m_pAttacker->IsPlayer() )

  000b6	8b 47 08	 mov	 eax, DWORD PTR [edi+8]
  000b9	83 b8 30 02 00
	00 00		 cmp	 DWORD PTR [eax+560], 0
  000c0	74 0e		 je	 SHORT $LN10@CalcATK

; 339  : 		nATK += prj.m_EventLua.GetAttackPower();

  000c2	6a 01		 push	 1
  000c4	b9 bc 96 0d 00	 mov	 ecx, OFFSET ?prj@@3VCProject@@A+890556
  000c9	e8 00 00 00 00	 call	 ?GetAttackPower@CEventLua@@QAEHH@Z ; CEventLua::GetAttackPower
  000ce	03 f0		 add	 esi, eax
$LN10@CalcATK:

; 340  : #endif // __EVENTLUA_ATKDEF
; 341  : 
; 342  : #ifdef __JEFF_11
; 343  : 	if( nATK < 0 )
; 344  : 		nATK	= 0;
; 345  : #endif	// __JEFF_11
; 346  : 
; 347  : 	return nATK;

  000d0	33 c0		 xor	 eax, eax
  000d2	85 f6		 test	 esi, esi
  000d4	5f		 pop	 edi
  000d5	0f 49 c6	 cmovns	 eax, esi
  000d8	5e		 pop	 esi
  000d9	5b		 pop	 ebx

; 348  : }

  000da	8b e5		 mov	 esp, ebp
  000dc	5d		 pop	 ebp
  000dd	c2 04 00	 ret	 4
$LN13@CalcATK:
  000e0	00 00 00 00	 DD	 $LN4@CalcATK
  000e4	00 00 00 00	 DD	 $LN5@CalcATK
  000e8	00 00 00 00	 DD	 $LN6@CalcATK
  000ec	00 00 00 00	 DD	 $LN7@CalcATK
  000f0	00 00 00 00	 DD	 $LN8@CalcATK
?CalcATK@CAttackArbiter@@AAEHPAUATTACK_INFO@@@Z ENDP	; CAttackArbiter::CalcATK
_TEXT	ENDS
; Function compile flags: /Ogtp
; File C:\IAGOS\server\v18\Source\Source\WorldServer\AttackArbiter.cpp
;	COMDAT ?GetHandFlag@CAttackArbiter@@AAEEXZ
_TEXT	SEGMENT
?GetHandFlag@CAttackArbiter@@AAEEXZ PROC		; CAttackArbiter::GetHandFlag, COMDAT
; _this$ = ecx

; 956  : 	BYTE cbHandFlag = 0x01;				// µđĆúĆ®´Â żŔ¸ĄĽŐŔĚ´Ů .
; 957  : 
; 958  : 	if( m_dwAtkFlags & AF_RANGE )		// Č°ŔÇ °ćżě ą«Á¶°Ç żŔ¸ĄĽŐ 

  00000	8b 51 10	 mov	 edx, DWORD PTR [ecx+16]
  00003	b0 01		 mov	 al, 1
  00005	f7 c2 00 40 00
	00		 test	 edx, 16384		; 00004000H
  0000b	75 14		 jne	 SHORT $LN1@GetHandFla

; 959  : 		return cbHandFlag;
; 960  : 
; 961  : 	if( m_dwAtkFlags & AF_GENERIC )		// ĆňĹ¸ŔĎ¶©

  0000d	84 d0		 test	 dl, al
  0000f	74 10		 je	 SHORT $LN1@GetHandFla

; 962  : 	{
; 963  : 		cbHandFlag = m_nParam & 0x03;	// ÇĎŔ§ 2şńĆ®¸¦ »©żŔ¸é żŔ¸ĄĽŐŔ¸·Î ÄŁ°ÇÁö żŢĽŐŔ¸·ÎÄŁ°ÇÁö łŞżÂ´Ů.

  00011	8a 41 14	 mov	 al, BYTE PTR [ecx+20]

; 964  : 		if( cbHandFlag == 0 )	

  00014	b9 01 00 00 00	 mov	 ecx, 1
  00019	24 03		 and	 al, 3
  0001b	0f b6 c0	 movzx	 eax, al
  0001e	0f 44 c1	 cmove	 eax, ecx
$LN1@GetHandFla:

; 965  : 			cbHandFlag = 0x01;			// °ŞŔĚ ľřŔ¸¸é µđĆúĆ®´Â żŔ¸ĄĽŐ
; 966  : 	}
; 967  : 
; 968  : 	return cbHandFlag;
; 969  : }

  00021	c3		 ret	 0
?GetHandFlag@CAttackArbiter@@AAEEXZ ENDP		; CAttackArbiter::GetHandFlag
_TEXT	ENDS
; Function compile flags: /Ogtp
; File C:\IAGOS\server\v18\Source\Source\WorldServer\AttackArbiter.cpp
; File C:\IAGOS\server\v18\Source\Source\_Common\Mover.h
; File C:\IAGOS\server\v18\Source\Source\WorldServer\AttackArbiter.cpp
; File C:\IAGOS\server\v18\Source\Source\_Common\Mover.h
; File C:\IAGOS\server\v18\Source\Source\WorldServer\AttackArbiter.cpp
;	COMDAT ?PostAsalraalaikum@CAttackArbiter@@AAEHXZ
_TEXT	SEGMENT
_nMP$1$ = -4						; size = 4
?PostAsalraalaikum@CAttackArbiter@@AAEHXZ PROC		; CAttackArbiter::PostAsalraalaikum, COMDAT
; _this$ = ecx

; 522  : {

  00000	55		 push	 ebp
  00001	8b ec		 mov	 ebp, esp
  00003	51		 push	 ecx
  00004	53		 push	 ebx
  00005	56		 push	 esi
  00006	8b f1		 mov	 esi, ecx
  00008	57		 push	 edi

; 523  : 	int nAddDmg = 0;
; 524  : 
; 525  : 	LPSKILL pSkill = m_pAttacker->GetSkill( SI_BIL_PST_ASALRAALAIKUM );

  00009	68 9f 00 00 00	 push	 159			; 0000009fH
  0000e	33 ff		 xor	 edi, edi
  00010	8b 4e 08	 mov	 ecx, DWORD PTR [esi+8]
  00013	e8 00 00 00 00	 call	 ?GetSkill@CMover@@QAEPAUtagSkill@@K@Z ; CMover::GetSkill

; 526  : 	DWORD dwSkillLevel = 

  00018	85 c0		 test	 eax, eax
  0001a	74 05		 je	 SHORT $LN17@PostAsalra
  0001c	8b 58 04	 mov	 ebx, DWORD PTR [eax+4]
  0001f	eb 02		 jmp	 SHORT $LN18@PostAsalra
$LN17@PostAsalra:
  00021	33 db		 xor	 ebx, ebx
$LN18@PostAsalra:
; File C:\IAGOS\server\v18\Source\Source\_Common\Mover.h

; 1015 : 	BOOL			IsNPC()				{ return !m_bPlayer; }

  00023	8b 4e 08	 mov	 ecx, DWORD PTR [esi+8]
  00026	39 b9 30 02 00
	00		 cmp	 DWORD PTR [ecx+560], edi
; File C:\IAGOS\server\v18\Source\Source\WorldServer\AttackArbiter.cpp

; 534  : 	if( m_pAttacker->IsNPC() )

  0002c	75 17		 jne	 SHORT $LN4@PostAsalra

; 535  : 		dwSkillLevel = CMonsterSkill::GetInstance()->GetMonsterSkillLevel( m_pAttacker, SI_BIL_PST_ASALRAALAIKUM );

  0002e	68 9f 00 00 00	 push	 159			; 0000009fH
  00033	51		 push	 ecx
  00034	e8 00 00 00 00	 call	 ?GetInstance@CMonsterSkill@@SAPAV1@XZ ; CMonsterSkill::GetInstance
  00039	8b c8		 mov	 ecx, eax
  0003b	e8 00 00 00 00	 call	 ?GetMonsterSkillLevel@CMonsterSkill@@QAEKPAVCMover@@K@Z ; CMonsterSkill::GetMonsterSkillLevel
  00040	8b 4e 08	 mov	 ecx, DWORD PTR [esi+8]
  00043	8b d8		 mov	 ebx, eax
$LN4@PostAsalra:

; 536  : #endif // __MONSTERSKILL
; 537  : 
; 538  : 	switch( dwSkillLevel )

  00045	8d 43 ff	 lea	 eax, DWORD PTR [ebx-1]
  00048	83 f8 09	 cmp	 eax, 9
  0004b	77 4b		 ja	 SHORT $LN2@PostAsalra
  0004d	ff 24 85 00 00
	00 00		 jmp	 DWORD PTR $LN23@PostAsalra[eax*4]
$LN5@PostAsalra:

; 539  : 	{
; 540  : 		case 1:		nAddDmg = 20;	break;

  00054	bf 14 00 00 00	 mov	 edi, 20			; 00000014H
  00059	eb 3d		 jmp	 SHORT $LN2@PostAsalra
$LN6@PostAsalra:

; 541  : 		case 2:		nAddDmg = 30;	break;

  0005b	bf 1e 00 00 00	 mov	 edi, 30			; 0000001eH
  00060	eb 36		 jmp	 SHORT $LN2@PostAsalra
$LN7@PostAsalra:

; 542  : 		case 3:		nAddDmg = 40;	break;

  00062	bf 28 00 00 00	 mov	 edi, 40			; 00000028H
  00067	eb 2f		 jmp	 SHORT $LN2@PostAsalra
$LN8@PostAsalra:

; 543  : 		case 4:		nAddDmg = 50;	break;

  00069	bf 32 00 00 00	 mov	 edi, 50			; 00000032H
  0006e	eb 28		 jmp	 SHORT $LN2@PostAsalra
$LN9@PostAsalra:

; 544  : 		case 5:		nAddDmg = 60;	break;

  00070	bf 3c 00 00 00	 mov	 edi, 60			; 0000003cH
  00075	eb 21		 jmp	 SHORT $LN2@PostAsalra
$LN10@PostAsalra:

; 545  : 		case 6:		nAddDmg = 70;	break;

  00077	bf 46 00 00 00	 mov	 edi, 70			; 00000046H
  0007c	eb 1a		 jmp	 SHORT $LN2@PostAsalra
$LN11@PostAsalra:

; 546  : 		case 7:		nAddDmg = 80;	break;

  0007e	bf 50 00 00 00	 mov	 edi, 80			; 00000050H
  00083	eb 13		 jmp	 SHORT $LN2@PostAsalra
$LN12@PostAsalra:

; 547  : 		case 8:		nAddDmg = 90;	break;

  00085	bf 5a 00 00 00	 mov	 edi, 90			; 0000005aH
  0008a	eb 0c		 jmp	 SHORT $LN2@PostAsalra
$LN13@PostAsalra:

; 548  : 		case 9:		nAddDmg = 100;	break;

  0008c	bf 64 00 00 00	 mov	 edi, 100		; 00000064H
  00091	eb 05		 jmp	 SHORT $LN2@PostAsalra
$LN14@PostAsalra:

; 549  : 		case 10:	nAddDmg = 150;	break;

  00093	bf 96 00 00 00	 mov	 edi, 150		; 00000096H
$LN2@PostAsalra:

; 550  : 	}
; 551  : 
; 552  : 	int nMP = m_pAttacker->GetManaPoint();						// ŔĎ´Ü ąŢľĆłő°í

  00098	e8 00 00 00 00	 call	 ?GetManaPoint@CMover@@QAEHXZ ; CMover::GetManaPoint

; 553  : 	if( m_pAttacker->IsPlayer() && m_pAttacker->IsSMMode( SM_MAINTAIN_MP ) == FALSE )		// MP ŔŻ·áľĆŔĚĹŰ ¸ÔľúŔ»¶§´Â MP´â¸é ľČµČ´Ů.

  0009d	8b 4e 08	 mov	 ecx, DWORD PTR [esi+8]
  000a0	89 45 fc	 mov	 DWORD PTR _nMP$1$[ebp], eax
  000a3	83 b9 30 02 00
	00 00		 cmp	 DWORD PTR [ecx+560], 0
  000aa	74 14		 je	 SHORT $LN15@PostAsalra
; File C:\IAGOS\server\v18\Source\Source\_Common\Mover.h

; 1457 : 	BOOL			IsSMMode( int nType ) { return ( m_dwSMTime[nType] > 0 ) ? TRUE : FALSE; }

  000ac	83 b9 14 03 00
	00 00		 cmp	 DWORD PTR [ecx+788], 0
; File C:\IAGOS\server\v18\Source\Source\WorldServer\AttackArbiter.cpp

; 553  : 	if( m_pAttacker->IsPlayer() && m_pAttacker->IsSMMode( SM_MAINTAIN_MP ) == FALSE )		// MP ŔŻ·áľĆŔĚĹŰ ¸ÔľúŔ»¶§´Â MP´â¸é ľČµČ´Ů.

  000b3	77 0b		 ja	 SHORT $LN15@PostAsalra

; 554  : 		m_pAttacker->SetPointParam( DST_MP, 0 );				// 0Ŕ¸·Î ¸¸µë.

  000b5	6a 00		 push	 0
  000b7	6a 00		 push	 0
  000b9	6a 27		 push	 39			; 00000027H
  000bb	e8 00 00 00 00	 call	 ?SetPointParam@CMover@@QAEXHHH@Z ; CMover::SetPointParam
$LN15@PostAsalra:

; 555  : 	return ( ( ( m_pAttacker->GetStr() / 10 ) * dwSkillLevel ) * ( 5 + nMP / 10 ) + nAddDmg );

  000c0	8b 4e 08	 mov	 ecx, DWORD PTR [esi+8]
  000c3	e8 00 00 00 00	 call	 ?GetStr@CMover@@QAEHXZ	; CMover::GetStr
  000c8	8b c8		 mov	 ecx, eax
  000ca	b8 67 66 66 66	 mov	 eax, 1717986919		; 66666667H
  000cf	f7 e9		 imul	 ecx
  000d1	b8 67 66 66 66	 mov	 eax, 1717986919		; 66666667H
  000d6	c1 fa 02	 sar	 edx, 2
  000d9	8b f2		 mov	 esi, edx
  000db	c1 ee 1f	 shr	 esi, 31			; 0000001fH
  000de	03 f2		 add	 esi, edx
  000e0	f7 6d fc	 imul	 DWORD PTR _nMP$1$[ebp]
  000e3	c1 fa 02	 sar	 edx, 2
  000e6	8b c2		 mov	 eax, edx
  000e8	c1 e8 1f	 shr	 eax, 31			; 0000001fH
  000eb	83 c0 05	 add	 eax, 5
  000ee	03 c2		 add	 eax, edx
  000f0	0f af c6	 imul	 eax, esi
  000f3	0f af c3	 imul	 eax, ebx
  000f6	03 c7		 add	 eax, edi
  000f8	5f		 pop	 edi
  000f9	5e		 pop	 esi
  000fa	5b		 pop	 ebx

; 556  : }

  000fb	8b e5		 mov	 esp, ebp
  000fd	5d		 pop	 ebp
  000fe	c3		 ret	 0
  000ff	90		 npad	 1
$LN23@PostAsalra:
  00100	00 00 00 00	 DD	 $LN5@PostAsalra
  00104	00 00 00 00	 DD	 $LN6@PostAsalra
  00108	00 00 00 00	 DD	 $LN7@PostAsalra
  0010c	00 00 00 00	 DD	 $LN8@PostAsalra
  00110	00 00 00 00	 DD	 $LN9@PostAsalra
  00114	00 00 00 00	 DD	 $LN10@PostAsalra
  00118	00 00 00 00	 DD	 $LN11@PostAsalra
  0011c	00 00 00 00	 DD	 $LN12@PostAsalra
  00120	00 00 00 00	 DD	 $LN13@PostAsalra
  00124	00 00 00 00	 DD	 $LN14@PostAsalra
?PostAsalraalaikum@CAttackArbiter@@AAEHXZ ENDP		; CAttackArbiter::PostAsalraalaikum
_TEXT	ENDS
; Function compile flags: /Ogtp
; File C:\IAGOS\server\v18\Source\Source\WorldServer\AttackArbiter.cpp
; File C:\IAGOS\server\v18\Source\Source\_Common\Mover.h
; File C:\IAGOS\server\v18\Source\Source\WorldServer\AttackArbiter.cpp
; File C:\IAGOS\server\v18\Source\Source\_Common\Mover.h
; File C:\IAGOS\server\v18\Source\Source\WorldServer\AttackArbiter.cpp
; File C:\IAGOS\server\v18\Source\Source\_Common\Project.h
; File C:\IAGOS\server\v18\Source\Source\WorldServer\AttackArbiter.cpp
; File C:\IAGOS\server\v18\Source\Source\_Common\Project.h
; File C:\IAGOS\server\v18\Source\Source\_Common\data.h
; File C:\IAGOS\server\v18\Source\Source\_Common\Project.h
; File C:\IAGOS\server\v18\Source\Source\WorldServer\AttackArbiter.cpp
; File C:\IAGOS\server\v18\Source\Source\_Common\Obj.h
; File C:\IAGOS\server\v18\Source\Source\WorldServer\AttackArbiter.cpp
; File C:\IAGOS\server\v18\Source\Source\_Common\Obj.h
; File C:\IAGOS\server\v18\Source\Source\WorldServer\AttackArbiter.cpp
; File C:\IAGOS\server\v18\Source\Source\_Common\xUtil.h
; File C:\IAGOS\server\v18\Source\Source\WorldServer\AttackArbiter.cpp
; File C:\IAGOS\server\v18\Source\Source\_Common\Obj.h
; File C:\IAGOS\server\v18\Source\Source\WorldServer\AttackArbiter.cpp
;	COMDAT ?OnDiedSchoolEvent@CAttackArbiter@@AAEXXZ
_TEXT	SEGMENT
$T2 = -40						; size = 4
$T3 = -36						; size = 4
_this$GSCopy$1$ = -32					; size = 4
$T4 = -28						; size = 12
__$ArrayPad$ = -16					; size = 4
__$EHRec$ = -12						; size = 12
?OnDiedSchoolEvent@CAttackArbiter@@AAEXXZ PROC		; CAttackArbiter::OnDiedSchoolEvent, COMDAT
; _this$ = ecx

; 914  : {

  00000	55		 push	 ebp
  00001	8b ec		 mov	 ebp, esp
  00003	6a ff		 push	 -1
  00005	68 00 00 00 00	 push	 __ehhandler$?OnDiedSchoolEvent@CAttackArbiter@@AAEXXZ
  0000a	64 a1 00 00 00
	00		 mov	 eax, DWORD PTR fs:0
  00010	50		 push	 eax
  00011	83 ec 1c	 sub	 esp, 28			; 0000001cH
  00014	a1 00 00 00 00	 mov	 eax, DWORD PTR ___security_cookie
  00019	33 c5		 xor	 eax, ebp
  0001b	89 45 f0	 mov	 DWORD PTR __$ArrayPad$[ebp], eax
  0001e	53		 push	 ebx
  0001f	56		 push	 esi
  00020	57		 push	 edi
  00021	50		 push	 eax
  00022	8d 45 f4	 lea	 eax, DWORD PTR __$EHRec$[ebp]
  00025	64 a3 00 00 00
	00		 mov	 DWORD PTR fs:0, eax
  0002b	8b f1		 mov	 esi, ecx
  0002d	89 75 e0	 mov	 DWORD PTR _this$GSCopy$1$[ebp], esi

; 915  : 	if( g_eLocal.GetState( EVE_SCHOOL_BATTLE ) == SBS_START2 )	// '/sbstart2'żˇĽ­¸¸ ÇÇ°Ý

  00030	6a 05		 push	 5
  00032	b9 00 00 00 00	 mov	 ecx, OFFSET ?g_eLocal@@3VCFlyffEvent@@A ; g_eLocal
  00037	e8 00 00 00 00	 call	 ?GetState@CFlyffEvent@@QAEEH@Z ; CFlyffEvent::GetState
  0003c	3c 03		 cmp	 al, 3
  0003e	0f 85 ae 01 00
	00		 jne	 $LN3@OnDiedScho

; 916  : 	{
; 917  : 		if( m_pDefender->m_dwAuthorization < AUTH_GAMEMASTER )

  00044	8b 4e 0c	 mov	 ecx, DWORD PTR [esi+12]
  00047	83 b9 40 06 00
	00 4c		 cmp	 DWORD PTR [ecx+1600], 76 ; 0000004cH
  0004e	73 38		 jae	 SHORT $LN6@OnDiedScho
; File C:\IAGOS\server\v18\Source\Source\_Common\Mover.h

; 1742 : 	return ( ( m_dwMode & dwMode ) == dwMode ) ? TRUE : FALSE; 

  00050	8b 81 40 02 00
	00		 mov	 eax, DWORD PTR [ecx+576]
  00056	25 c0 00 00 00	 and	 eax, 192		; 000000c0H
; File C:\IAGOS\server\v18\Source\Source\WorldServer\AttackArbiter.cpp

; 919  : 			if( !m_pDefender->IsMode( OBSERVE_MODE ) )

  0005b	3c c0		 cmp	 al, 192			; 000000c0H
  0005d	74 0f		 je	 SHORT $LN8@OnDiedScho

; 920  : 			{
; 921  : 				CGuild* pGuild	= m_pDefender->GetGuild();

  0005f	e8 00 00 00 00	 call	 ?GetGuild@CMover@@QAEPAVCGuild@@XZ ; CMover::GetGuild

; 922  : 				if( pGuild )

  00064	85 c0		 test	 eax, eax
  00066	74 06		 je	 SHORT $LN8@OnDiedScho

; 923  : 					pGuild->m_nDead++;	

  00068	ff 80 38 01 00
	00		 inc	 DWORD PTR [eax+312]
$LN8@OnDiedScho:

; 924  : 			}
; 925  : 			m_pDefender->SetMode( OBSERVE_MODE );

  0006e	8b 46 0c	 mov	 eax, DWORD PTR [esi+12]

; 926  : 			g_UserMng.AddModifyMode( (CUser*)m_pDefender );

  00071	b9 00 00 00 00	 mov	 ecx, OFFSET ?g_UserMng@@3VCUserMng@@A ; g_UserMng
; File C:\IAGOS\server\v18\Source\Source\_Common\Mover.h

; 1001 : 	void			SetMode( DWORD dwMode )		{ m_dwMode |= dwMode; }	// ŔŻŔú»óĹÂ ™VĆĂ

  00076	81 88 40 02 00
	00 c0 00 00 00	 or	 DWORD PTR [eax+576], 192 ; 000000c0H
; File C:\IAGOS\server\v18\Source\Source\WorldServer\AttackArbiter.cpp

; 926  : 			g_UserMng.AddModifyMode( (CUser*)m_pDefender );

  00080	ff 76 0c	 push	 DWORD PTR [esi+12]
  00083	e8 00 00 00 00	 call	 ?AddModifyMode@CUserMng@@QAEXPAVCUser@@@Z ; CUserMng::AddModifyMode
$LN6@OnDiedScho:

; 927  : 		}
; 928  : 
; 929  : 		static EVENTITEM eventitem[3] =
; 930  : 		{
; 931  : 			II_GEN_FOO_INS_HOTDOG,		12,
; 932  : 			II_GEN_REF_REF_TENTH,		7,
; 933  : 			II_GEN_POT_DRI_VITAL900,	7,
; 934  : 		};
; 935  : 
; 936  : 		for( int i = 0; i < 3; i++ )

  00088	bb 04 00 00 00	 mov	 ebx, OFFSET ?eventitem@?4??OnDiedSchoolEvent@CAttackArbiter@@AAEXXZ@4PAUtagEVENTITEM@@A+4
  0008d	0f 1f 00	 npad	 3
$LL4@OnDiedScho:

; 938  : 			CItemElem* pItemElem		= new CItemElem;

  00090	68 b0 00 00 00	 push	 176			; 000000b0H
  00095	e8 00 00 00 00	 call	 ??2@YAPAXI@Z		; operator new
  0009a	83 c4 04	 add	 esp, 4
  0009d	89 45 dc	 mov	 DWORD PTR $T3[ebp], eax
  000a0	c7 45 fc 00 00
	00 00		 mov	 DWORD PTR __$EHRec$[ebp+8], 0
  000a7	85 c0		 test	 eax, eax
  000a9	74 0b		 je	 SHORT $LN10@OnDiedScho
  000ab	8b c8		 mov	 ecx, eax
  000ad	e8 00 00 00 00	 call	 ??0CItemElem@@QAE@XZ	; CItemElem::CItemElem
  000b2	8b f0		 mov	 esi, eax
  000b4	eb 02		 jmp	 SHORT $LN11@OnDiedScho
$LN10@OnDiedScho:
  000b6	33 f6		 xor	 esi, esi
$LN11@OnDiedScho:

; 939  : 			pItemElem->m_dwItemId		= eventitem[i].dwIndex;

  000b8	8b 4b fc	 mov	 ecx, DWORD PTR [ebx-4]
  000bb	89 4e 0c	 mov	 DWORD PTR [esi+12], ecx

; 940  : 			pItemElem->m_nItemNum		= (short)( eventitem[i].dwPrabability );

  000be	66 8b 03	 mov	 ax, WORD PTR [ebx]
  000c1	66 89 46 74	 mov	 WORD PTR [esi+116], ax
; File C:\IAGOS\server\v18\Source\Source\_Common\Project.h

; 1389 : 	VERIFY_RANGE_ASSERT( nIndex, 0, m_aPropItem.GetSize(), "GetItemProp range_error", NULL );

  000c5	a1 40 02 00 00	 mov	 eax, DWORD PTR ?prj@@3VCProject@@A+576
; File C:\IAGOS\server\v18\Source\Source\WorldServer\AttackArbiter.cpp

; 938  : 			CItemElem* pItemElem		= new CItemElem;

  000ca	c7 45 fc ff ff
	ff ff		 mov	 DWORD PTR __$EHRec$[ebp+8], -1
; File C:\IAGOS\server\v18\Source\Source\_Common\Project.h

; 1389 : 	VERIFY_RANGE_ASSERT( nIndex, 0, m_aPropItem.GetSize(), "GetItemProp range_error", NULL );

  000d1	85 c9		 test	 ecx, ecx
  000d3	78 10		 js	 SHORT $LN35@OnDiedScho
  000d5	3b c8		 cmp	 ecx, eax
  000d7	7d 0c		 jge	 SHORT $LN35@OnDiedScho
; File C:\IAGOS\server\v18\Source\Source\_Common\data.h

; 270  : 	if( dwIndex >= (DWORD)m_nMaxIndex )

  000d9	73 20		 jae	 SHORT $LN56@OnDiedScho

; 271  : 		return NULL;
; 272  : 	return (T*) m_apOffset[ dwIndex ];

  000db	a1 30 02 00 00	 mov	 eax, DWORD PTR ?prj@@3VCProject@@A+560
  000e0	8b 04 88	 mov	 eax, DWORD PTR [eax+ecx*4]
; File C:\IAGOS\server\v18\Source\Source\_Common\Project.h

; 1390 : 	return m_aPropItem.GetAt( nIndex ); 

  000e3	eb 18		 jmp	 SHORT $LN30@OnDiedScho
$LN35@OnDiedScho:

; 579  : 	LPCTSTR szErr = Error( _T( "%s min:%d, max:%d, index:%d" ), szMsg, nMin, nMax, nIndex ); 

  000e5	51		 push	 ecx
  000e6	50		 push	 eax
  000e7	6a 00		 push	 0
  000e9	68 00 00 00 00	 push	 OFFSET ??_C@_0BI@BEIFNGEL@GetItemProp?5range_error@
  000ee	68 00 00 00 00	 push	 OFFSET ??_C@_0BM@HMFGHCP@?$CFs?5min?3?$CFd?0?5max?3?$CFd?0?5index?3?$CFd@
  000f3	e8 00 00 00 00	 call	 ?Error@@YAPBDPBDZZ	; Error
  000f8	83 c4 14	 add	 esp, 20			; 00000014H
$LN56@OnDiedScho:
; File C:\IAGOS\server\v18\Source\Source\WorldServer\AttackArbiter.cpp

; 941  : 			pItemElem->m_nHitPoint		= pItemElem->GetProp()->dwEndurance;

  000fb	33 c0		 xor	 eax, eax
$LN30@OnDiedScho:
  000fd	8b 80 90 00 00
	00		 mov	 eax, DWORD PTR [eax+144]

; 942  : 			pItemElem->SetSerialNumber();

  00103	8b ce		 mov	 ecx, esi
  00105	89 46 70	 mov	 DWORD PTR [esi+112], eax
  00108	e8 00 00 00 00	 call	 ?SetSerialNumber@CItemBase@@QAEXXZ ; CItemBase::SetSerialNumber

; 943  : 
; 944  : 			CItem* pItem		= new CItem;

  0010d	68 48 02 00 00	 push	 584			; 00000248H
  00112	e8 00 00 00 00	 call	 ??2@YAPAXI@Z		; operator new
  00117	83 c4 04	 add	 esp, 4
  0011a	89 45 d8	 mov	 DWORD PTR $T2[ebp], eax
  0011d	c7 45 fc 01 00
	00 00		 mov	 DWORD PTR __$EHRec$[ebp+8], 1
  00124	85 c0		 test	 eax, eax
  00126	74 0b		 je	 SHORT $LN12@OnDiedScho
  00128	8b c8		 mov	 ecx, eax
  0012a	e8 00 00 00 00	 call	 ??0CItem@@QAE@XZ	; CItem::CItem
  0012f	8b f8		 mov	 edi, eax
  00131	eb 02		 jmp	 SHORT $LN13@OnDiedScho
$LN12@OnDiedScho:
  00133	33 ff		 xor	 edi, edi
$LN13@OnDiedScho:

; 945  : 			pItem->m_pItemBase	= pItemElem;
; 946  : 			pItem->SetIndex( D3DDEVICE, pItemElem->m_dwItemId );

  00135	8b 07		 mov	 eax, DWORD PTR [edi]
  00137	8b cf		 mov	 ecx, edi
  00139	6a 00		 push	 0
  0013b	89 b7 30 02 00
	00		 mov	 DWORD PTR [edi+560], esi
  00141	ff 76 0c	 push	 DWORD PTR [esi+12]
  00144	c7 45 fc ff ff
	ff ff		 mov	 DWORD PTR __$EHRec$[ebp+8], -1
  0014b	6a 00		 push	 0
  0014d	ff 50 2c	 call	 DWORD PTR [eax+44]
; File C:\IAGOS\server\v18\Source\Source\_Common\Obj.h

; 215  : 	D3DXVECTOR3		GetPos()	{ return m_vPos; }

  00150	8b 75 e0	 mov	 esi, DWORD PTR _this$GSCopy$1$[ebp]
; File C:\IAGOS\server\v18\Source\Source\WorldServer\AttackArbiter.cpp

; 947  : 			pItem->SetPos( m_pDefender->GetPos() );

  00153	8b cf		 mov	 ecx, edi
; File C:\IAGOS\server\v18\Source\Source\_Common\Obj.h

; 215  : 	D3DXVECTOR3		GetPos()	{ return m_vPos; }

  00155	8b 46 0c	 mov	 eax, DWORD PTR [esi+12]
  00158	f3 0f 7e 80 60
	01 00 00	 movq	 xmm0, QWORD PTR [eax+352]
  00160	66 0f d6 45 e4	 movq	 QWORD PTR $T4[ebp], xmm0
  00165	8b 80 68 01 00
	00		 mov	 eax, DWORD PTR [eax+360]
  0016b	89 45 ec	 mov	 DWORD PTR $T4[ebp+8], eax
; File C:\IAGOS\server\v18\Source\Source\WorldServer\AttackArbiter.cpp

; 947  : 			pItem->SetPos( m_pDefender->GetPos() );

  0016e	8d 45 e4	 lea	 eax, DWORD PTR $T4[ebp]
  00171	50		 push	 eax
  00172	e8 00 00 00 00	 call	 ?SetPos@CObj@@QAEXABUD3DXVECTOR3@@@Z ; CObj::SetPos
; File C:\IAGOS\server\v18\Source\Source\_Common\xUtil.h

; 16   : 	g_next = g_next * 1103515245 + 12345;// + nRandomSeed[ i++ ];

  00177	69 0d 00 00 00
	00 6d 4e c6 41	 imul	 ecx, DWORD PTR ?g_next@@3KA, 1103515245 ; g_next

; 22   : 	return  xRand() % num;

  00181	b8 6d c1 16 6c	 mov	 eax, 1813430637		; 6c16c16dH

; 16   : 	g_next = g_next * 1103515245 + 12345;// + nRandomSeed[ i++ ];

  00186	81 c1 39 30 00
	00		 add	 ecx, 12345		; 00003039H

; 22   : 	return  xRand() % num;

  0018c	f7 e1		 mul	 ecx
  0018e	8b c1		 mov	 eax, ecx

; 16   : 	g_next = g_next * 1103515245 + 12345;// + nRandomSeed[ i++ ];

  00190	89 0d 00 00 00
	00		 mov	 DWORD PTR ?g_next@@3KA, ecx ; g_next

; 22   : 	return  xRand() % num;

  00196	2b c2		 sub	 eax, edx
  00198	d1 e8		 shr	 eax, 1
  0019a	03 c2		 add	 eax, edx
  0019c	c1 e8 08	 shr	 eax, 8
  0019f	69 c0 68 01 00
	00		 imul	 eax, eax, 360
  001a5	2b c8		 sub	 ecx, eax
  001a7	66 0f 6e c1	 movd	 xmm0, ecx
; File C:\IAGOS\server\v18\Source\Source\WorldServer\AttackArbiter.cpp

; 948  : 			pItem->SetAngle( (float)( xRandom( 360 ) ) );

  001ab	f3 0f e6 c0	 cvtdq2pd xmm0, xmm0
  001af	c1 e9 1f	 shr	 ecx, 31			; 0000001fH
  001b2	51		 push	 ecx
  001b3	f2 0f 58 04 cd
	00 00 00 00	 addsd	 xmm0, QWORD PTR __xmm@41f00000000000000000000000000000[ecx*8]
  001bc	8b cf		 mov	 ecx, edi
  001be	66 0f 5a c0	 cvtpd2ps xmm0, xmm0
  001c2	f3 0f 11 04 24	 movss	 DWORD PTR [esp], xmm0
  001c7	e8 00 00 00 00	 call	 ?SetAngle@CObj@@QAEXM@Z	; CObj::SetAngle
; File C:\IAGOS\server\v18\Source\Source\_Common\Obj.h

; 247  : 	int		GetLayer()	{	return m_nLayer;	}

  001cc	8b 4e 0c	 mov	 ecx, DWORD PTR [esi+12]
; File C:\IAGOS\server\v18\Source\Source\WorldServer\AttackArbiter.cpp

; 949  : 			m_pDefender->GetWorld()->ADDOBJ( pItem, TRUE, m_pDefender->GetLayer() );

  001cf	ff b1 b8 01 00
	00		 push	 DWORD PTR [ecx+440]
  001d5	8b 89 6c 01 00
	00		 mov	 ecx, DWORD PTR [ecx+364]
  001db	6a 01		 push	 1
  001dd	57		 push	 edi
  001de	e8 00 00 00 00	 call	 ?AddObj@CWorld@@QAEHPAVCObj@@HH@Z ; CWorld::AddObj
  001e3	83 c3 08	 add	 ebx, 8
  001e6	81 fb 1c 00 00
	00		 cmp	 ebx, OFFSET ?eventitem@?4??OnDiedSchoolEvent@CAttackArbiter@@AAEXXZ@4PAUtagEVENTITEM@@A+28
  001ec	0f 8c 9e fe ff
	ff		 jl	 $LL4@OnDiedScho
$LN3@OnDiedScho:

; 950  : 		}
; 951  : 	}
; 952  : }

  001f2	8b 4d f4	 mov	 ecx, DWORD PTR __$EHRec$[ebp]
  001f5	64 89 0d 00 00
	00 00		 mov	 DWORD PTR fs:0, ecx
  001fc	59		 pop	 ecx
  001fd	5f		 pop	 edi
  001fe	5e		 pop	 esi
  001ff	5b		 pop	 ebx
  00200	8b 4d f0	 mov	 ecx, DWORD PTR __$ArrayPad$[ebp]
  00203	33 cd		 xor	 ecx, ebp
  00205	e8 00 00 00 00	 call	 @__security_check_cookie@4
  0020a	8b e5		 mov	 esp, ebp
  0020c	5d		 pop	 ebp
  0020d	c3		 ret	 0
_TEXT	ENDS
;	COMDAT text$x
text$x	SEGMENT
__unwindfunclet$?OnDiedSchoolEvent@CAttackArbiter@@AAEXXZ$0:
  00000	68 b0 00 00 00	 push	 176			; 000000b0H
  00005	8b 45 dc	 mov	 eax, DWORD PTR $T3[ebp]
  00008	50		 push	 eax
  00009	e8 00 00 00 00	 call	 ??3@YAXPAXI@Z		; operator delete
  0000e	83 c4 08	 add	 esp, 8
  00011	c3		 ret	 0
__unwindfunclet$?OnDiedSchoolEvent@CAttackArbiter@@AAEXXZ$1:
  00012	68 48 02 00 00	 push	 584			; 00000248H
  00017	8b 45 d8	 mov	 eax, DWORD PTR $T2[ebp]
  0001a	50		 push	 eax
  0001b	e8 00 00 00 00	 call	 ??3@YAXPAXI@Z		; operator delete
  00020	83 c4 08	 add	 esp, 8
  00023	c3		 ret	 0
  00024	cc		 int	 3
  00025	cc		 int	 3
  00026	cc		 int	 3
  00027	cc		 int	 3
  00028	cc		 int	 3
__ehhandler$?OnDiedSchoolEvent@CAttackArbiter@@AAEXXZ:
  00029	90		 npad	 1
  0002a	90		 npad	 1
  0002b	8b 54 24 08	 mov	 edx, DWORD PTR [esp+8]
  0002f	8d 42 0c	 lea	 eax, DWORD PTR [edx+12]
  00032	8b 4a d4	 mov	 ecx, DWORD PTR [edx-44]
  00035	33 c8		 xor	 ecx, eax
  00037	e8 00 00 00 00	 call	 @__security_check_cookie@4
  0003c	8b 4a fc	 mov	 ecx, DWORD PTR [edx-4]
  0003f	33 c8		 xor	 ecx, eax
  00041	e8 00 00 00 00	 call	 @__security_check_cookie@4
  00046	b8 00 00 00 00	 mov	 eax, OFFSET __ehfuncinfo$?OnDiedSchoolEvent@CAttackArbiter@@AAEXXZ
  0004b	e9 00 00 00 00	 jmp	 ___CxxFrameHandler3
text$x	ENDS
?OnDiedSchoolEvent@CAttackArbiter@@AAEXXZ ENDP		; CAttackArbiter::OnDiedSchoolEvent
; Function compile flags: /Ogtp
; File C:\IAGOS\server\v18\Source\Source\WorldServer\AttackArbiter.cpp
; File C:\IAGOS\server\v18\Source\Source\_Common\Mover.h
; File C:\IAGOS\server\v18\Source\Source\WorldServer\AttackArbiter.cpp
; File C:\IAGOS\server\v18\Source\Source\_Common\Mover.h
; File C:\IAGOS\server\v18\Source\Source\WorldServer\AttackArbiter.cpp
; File C:\IAGOS\server\v18\Source\Source\_Common\Obj.h
; File C:\IAGOS\server\v18\Source\Source\WorldServer\AttackArbiter.cpp
; File C:\IAGOS\server\v18\Source\Source\_Common\Obj.h
; File C:\IAGOS\server\v18\Source\Source\WorldServer\AttackArbiter.cpp
; File C:\IAGOS\server\v18\Source\Source\_Common\Mover.h
; File C:\IAGOS\server\v18\Source\Source\WorldServer\AttackArbiter.cpp
; File C:\IAGOS\server\v18\Source\Source\_Common\Mover.h
; File C:\IAGOS\server\v18\Source\Source\WorldServer\AttackArbiter.cpp
;	COMDAT ?OnDiedPVP@CAttackArbiter@@AAEXXZ
_TEXT	SEGMENT
?OnDiedPVP@CAttackArbiter@@AAEXXZ PROC			; CAttackArbiter::OnDiedPVP, COMDAT
; _this$ = ecx

; 877  : {

  00000	56		 push	 esi
  00001	8b f1		 mov	 esi, ecx
; File C:\IAGOS\server\v18\Source\Source\_Common\Mover.h

; 1015 : 	BOOL			IsNPC()				{ return !m_bPlayer; }

  00003	8b 4e 0c	 mov	 ecx, DWORD PTR [esi+12]
  00006	83 b9 30 02 00
	00 00		 cmp	 DWORD PTR [ecx+560], 0
; File C:\IAGOS\server\v18\Source\Source\WorldServer\AttackArbiter.cpp

; 878  : 	if( m_pDefender->IsNPC() && m_pDefender->IsDie() )	 

  0000d	75 1e		 jne	 SHORT $LN2@OnDiedPVP
; File C:\IAGOS\server\v18\Source\Source\_Common\Mover.h

; 1250 : 	BOOL			IsDie() { return m_pActMover->IsDie() || m_nHitPoint == 0; }

  0000f	8b 81 38 02 00
	00		 mov	 eax, DWORD PTR [ecx+568]
  00015	f7 40 04 00 00
	00 08		 test	 DWORD PTR [eax+4], 134217728 ; 08000000H
  0001c	75 09		 jne	 SHORT $LN28@OnDiedPVP
  0001e	83 b9 f8 05 00
	00 00		 cmp	 DWORD PTR [ecx+1528], 0
  00025	75 06		 jne	 SHORT $LN2@OnDiedPVP
$LN28@OnDiedPVP:
  00027	5e		 pop	 esi
; File C:\IAGOS\server\v18\Source\Source\WorldServer\AttackArbiter.cpp

; 880  : 		m_pDefender->Delete();							// ŔĎ´Ü ¶«»§... ŔĚ·±°ćżě´Â °Á ľřľÖŔÚ.

  00028	e9 00 00 00 00	 jmp	 ?Delete@CObj@@QAEXXZ	; CObj::Delete
$LN2@OnDiedPVP:

; 881  : 		return;
; 882  : 	}
; 883  : 
; 884  : 	m_pDefender->SubDuel( m_pAttacker );//µŕľó°á°ú ş¸ł»±â

  0002d	ff 76 08	 push	 DWORD PTR [esi+8]
  00030	e8 00 00 00 00	 call	 ?SubDuel@CMover@@QAEHPAV1@@Z ; CMover::SubDuel

; 885  : 	
; 886  : 	m_pDefender->SetPosChanged( TRUE );

  00035	8b 46 0c	 mov	 eax, DWORD PTR [esi+12]
; File C:\IAGOS\server\v18\Source\Source\_Common\Obj.h

; 273  : 		m_dwFlags |= dwValue;

  00038	83 48 04 10	 or	 DWORD PTR [eax+4], 16	; 00000010H
; File C:\IAGOS\server\v18\Source\Source\WorldServer\AttackArbiter.cpp

; 887  : 	m_pAttacker->SetPosChanged( TRUE );

  0003c	8b 46 08	 mov	 eax, DWORD PTR [esi+8]
; File C:\IAGOS\server\v18\Source\Source\_Common\Obj.h

; 273  : 		m_dwFlags |= dwValue;

  0003f	83 48 04 10	 or	 DWORD PTR [eax+4], 16	; 00000010H
; File C:\IAGOS\server\v18\Source\Source\WorldServer\AttackArbiter.cpp

; 889  : 	m_pAttacker->ClearDuel();

  00043	8b 4e 08	 mov	 ecx, DWORD PTR [esi+8]
  00046	e8 00 00 00 00	 call	 ?ClearDuel@CMover@@QAEXXZ ; CMover::ClearDuel

; 890  : 	( (CUser*)m_pAttacker )->AddSetDuel( m_pAttacker );

  0004b	8b 4e 08	 mov	 ecx, DWORD PTR [esi+8]
  0004e	51		 push	 ecx
  0004f	e8 00 00 00 00	 call	 ?AddSetDuel@CUser@@QAEXPAVCMover@@@Z ; CUser::AddSetDuel

; 891  : 	m_pDefender->ClearDuel();

  00054	8b 4e 0c	 mov	 ecx, DWORD PTR [esi+12]
  00057	e8 00 00 00 00	 call	 ?ClearDuel@CMover@@QAEXXZ ; CMover::ClearDuel

; 892  : 	( (CUser*)m_pDefender )->AddSetDuel( m_pDefender );

  0005c	8b 4e 0c	 mov	 ecx, DWORD PTR [esi+12]
  0005f	51		 push	 ecx
  00060	e8 00 00 00 00	 call	 ?AddSetDuel@CUser@@QAEXPAVCMover@@@Z ; CUser::AddSetDuel

; 893  : 
; 894  : 	m_pDefender->AddKillRecovery();

  00065	8b 4e 0c	 mov	 ecx, DWORD PTR [esi+12]
  00068	e8 00 00 00 00	 call	 ?AddKillRecovery@CMover@@QAEXXZ ; CMover::AddKillRecovery

; 895  : 	m_pAttacker->AddKillRecovery();

  0006d	8b 4e 08	 mov	 ecx, DWORD PTR [esi+8]
  00070	e8 00 00 00 00	 call	 ?AddKillRecovery@CMover@@QAEXXZ ; CMover::AddKillRecovery

; 896  : 
; 897  : 	m_pAttacker->m_nAtkCnt = 0;							//  °ř°ÝŔÚŔÇ ľîĹĂÄ«żîĆ® Ĺ¬¸®ľî

  00075	8b 46 08	 mov	 eax, DWORD PTR [esi+8]
  00078	c7 80 a8 06 00
	00 00 00 00 00	 mov	 DWORD PTR [eax+1704], 0

; 898  : 	m_pDefender->m_nAtkCnt = 0;							//  ąćľîŔÚŔÇ ľîĹĂÄ«żîĆ® Ĺ¬¸®ľî

  00082	8b 46 0c	 mov	 eax, DWORD PTR [esi+12]
  00085	c7 80 a8 06 00
	00 00 00 00 00	 mov	 DWORD PTR [eax+1704], 0

; 899  : 
; 900  : 	m_pDefender->DoPVPEnd( m_pAttacker, false ,m_dwMsg );			//

  0008f	ff 76 04	 push	 DWORD PTR [esi+4]
  00092	8b 4e 0c	 mov	 ecx, DWORD PTR [esi+12]
  00095	6a 00		 push	 0
  00097	ff 76 08	 push	 DWORD PTR [esi+8]
  0009a	e8 00 00 00 00	 call	 ?DoPVPEnd@CMover@@QAEXPAVCCtrl@@_NK@Z ; CMover::DoPVPEnd

; 901  : 
; 902  : 	( (CUser*)m_pAttacker )->AddDuelStart( m_pDefender->m_idPlayer , 3 );	// Ľ­·Î »ó´ëąćżˇ ´ëÇŃ ľĆŔĚµđ¸¸ ş¸ł»ÁÖ¸é µČ´Ů. 3:ŔĚ±č, 4 : Áü

  0009f	8b 46 0c	 mov	 eax, DWORD PTR [esi+12]
  000a2	8b 4e 08	 mov	 ecx, DWORD PTR [esi+8]
  000a5	6a 03		 push	 3
  000a7	ff b0 34 02 00
	00		 push	 DWORD PTR [eax+564]
  000ad	e8 00 00 00 00	 call	 ?AddDuelStart@CUser@@QAEXKH@Z ; CUser::AddDuelStart

; 903  : 	( (CUser*)m_pDefender )->AddDuelStart( m_pAttacker->m_idPlayer , 4 );

  000b2	8b 46 08	 mov	 eax, DWORD PTR [esi+8]
  000b5	8b 4e 0c	 mov	 ecx, DWORD PTR [esi+12]
  000b8	6a 04		 push	 4
  000ba	ff b0 34 02 00
	00		 push	 DWORD PTR [eax+564]
  000c0	e8 00 00 00 00	 call	 ?AddDuelStart@CUser@@QAEXKH@Z ; CUser::AddDuelStart

; 904  : 
; 905  : 
; 906  : 	m_pAttacker->ClearDestObj();						// ŔĚµż¸ńÇĄµµ Ĺ¬¸®ľî.

  000c5	8b 46 08	 mov	 eax, DWORD PTR [esi+8]
; File C:\IAGOS\server\v18\Source\Source\_Common\Mover.h

; 1030 : 	void			ClearDestObj()     	{ m_idDest = NULL_ID; m_fArrivalRange = 0.0f; }

  000c8	c7 80 58 02 00
	00 ff ff ff ff	 mov	 DWORD PTR [eax+600], -1
  000d2	c7 80 54 02 00
	00 00 00 00 00	 mov	 DWORD PTR [eax+596], 0
; File C:\IAGOS\server\v18\Source\Source\WorldServer\AttackArbiter.cpp

; 907  : 	m_pDefender->ClearDestObj();						// ŔĚµż¸ńÇĄµµ Ĺ¬¸®ľî.

  000dc	8b 46 0c	 mov	 eax, DWORD PTR [esi+12]
  000df	5e		 pop	 esi
; File C:\IAGOS\server\v18\Source\Source\_Common\Mover.h

; 1030 : 	void			ClearDestObj()     	{ m_idDest = NULL_ID; m_fArrivalRange = 0.0f; }

  000e0	c7 80 58 02 00
	00 ff ff ff ff	 mov	 DWORD PTR [eax+600], -1
  000ea	c7 80 54 02 00
	00 00 00 00 00	 mov	 DWORD PTR [eax+596], 0
; File C:\IAGOS\server\v18\Source\Source\WorldServer\AttackArbiter.cpp

; 908  : }

  000f4	c3		 ret	 0
?OnDiedPVP@CAttackArbiter@@AAEXXZ ENDP			; CAttackArbiter::OnDiedPVP
_TEXT	ENDS
; Function compile flags: /Ogtp
; File C:\IAGOS\server\v18\Source\Source\WorldServer\AttackArbiter.cpp
; File C:\IAGOS\server\v18\Source\Source\_Common\Mover.h
; File C:\IAGOS\server\v18\Source\Source\WorldServer\AttackArbiter.cpp
; File C:\IAGOS\server\v18\Source\Source\_Common\Mover.h
; File C:\IAGOS\server\v18\Source\Source\WorldServer\AttackArbiter.cpp
; File C:\IAGOS\server\v18\Source\Source\_Common\Obj.h
; File C:\IAGOS\server\v18\Source\Source\WorldServer\AttackArbiter.cpp
; File C:\IAGOS\server\v18\Source\Source\_Common\World.h
; File C:\IAGOS\server\v18\Source\Source\WorldServer\AttackArbiter.cpp
; File C:\IAGOS\server\v18\Source\Source\_Common\Mover.h
; File C:\IAGOS\server\v18\Source\Source\WorldServer\AttackArbiter.cpp
; File C:\IAGOS\server\v18\Source\Source\_Common\Mover.h
; File C:\IAGOS\server\v18\Source\Source\WorldServer\AttackArbiter.cpp
;	COMDAT ?OnDied@CAttackArbiter@@AAEXXZ
_TEXT	SEGMENT
tv548 = -4						; size = 4
?OnDied@CAttackArbiter@@AAEXXZ PROC			; CAttackArbiter::OnDied, COMDAT
; _this$ = ecx

; 820  : {

  00000	55		 push	 ebp
  00001	8b ec		 mov	 ebp, esp
  00003	51		 push	 ecx
  00004	53		 push	 ebx
  00005	8b d9		 mov	 ebx, ecx

; 821  : #if __VER >= 8   // 8Â÷ µŕľóÁ¸żˇ °ü°čľřŔĚ PVP°ˇ´ÉÇĎ°ÔÇÔ   Neuz, World
; 822  : 	if( m_pDefender && m_pAttacker && m_pDefender->m_nDuel != 0 && m_pAttacker->m_nDuel != 0 && 

  00007	8b 4b 0c	 mov	 ecx, DWORD PTR [ebx+12]
  0000a	85 c9		 test	 ecx, ecx
  0000c	74 33		 je	 SHORT $LN2@OnDied
  0000e	8b 53 08	 mov	 edx, DWORD PTR [ebx+8]
  00011	85 d2		 test	 edx, edx
  00013	74 2c		 je	 SHORT $LN2@OnDied
  00015	83 b9 3c 07 00
	00 00		 cmp	 DWORD PTR [ecx+1852], 0
  0001c	74 23		 je	 SHORT $LN2@OnDied
  0001e	83 ba 3c 07 00
	00 00		 cmp	 DWORD PTR [edx+1852], 0
  00025	74 1a		 je	 SHORT $LN2@OnDied
  00027	8b 81 40 07 00
	00		 mov	 eax, DWORD PTR [ecx+1856]
  0002d	3b 82 bc 01 00
	00		 cmp	 eax, DWORD PTR [edx+444]
  00033	75 0c		 jne	 SHORT $LN2@OnDied

; 823  : 		m_pDefender->m_idDuelOther == m_pAttacker->GetId() )
; 824  : 	{
; 825  : 		OnDiedPVP();

  00035	8b cb		 mov	 ecx, ebx
  00037	e8 00 00 00 00	 call	 ?OnDiedPVP@CAttackArbiter@@AAEXXZ ; CAttackArbiter::OnDiedPVP
  0003c	5b		 pop	 ebx

; 872  : }

  0003d	8b e5		 mov	 esp, ebp
  0003f	5d		 pop	 ebp
  00040	c3		 ret	 0
$LN2@OnDied:

; 826  : 		return;
; 827  : 	}
; 828  : #endif	//__VER >= 8  
; 829  : 	m_pDefender->SubPVP( m_pAttacker, m_nReflect );					// m_pDefender°ˇ Á×°íł­ ČÄ ˝˝·ÎĹÍ°ü·Ă Ăł¸®.

  00041	ff 73 1c	 push	 DWORD PTR [ebx+28]
  00044	ff 73 08	 push	 DWORD PTR [ebx+8]
  00047	e8 00 00 00 00	 call	 ?SubPVP@CMover@@QAEXPAV1@H@Z ; CMover::SubPVP

; 830  : 
; 831  : 	m_pAttacker->AddKillRecovery();

  0004c	8b 4b 08	 mov	 ecx, DWORD PTR [ebx+8]
  0004f	e8 00 00 00 00	 call	 ?AddKillRecovery@CMover@@QAEXXZ ; CMover::AddKillRecovery

; 832  : 
; 833  : 	OnDiedSchoolEvent();

  00054	8b cb		 mov	 ecx, ebx
  00056	e8 00 00 00 00	 call	 ?OnDiedSchoolEvent@CAttackArbiter@@AAEXXZ ; CAttackArbiter::OnDiedSchoolEvent
; File C:\IAGOS\server\v18\Source\Source\_Common\Mover.h

; 1015 : 	BOOL			IsNPC()				{ return !m_bPlayer; }

  0005b	8b 4b 0c	 mov	 ecx, DWORD PTR [ebx+12]
  0005e	83 b9 30 02 00
	00 00		 cmp	 DWORD PTR [ecx+560], 0
; File C:\IAGOS\server\v18\Source\Source\WorldServer\AttackArbiter.cpp

; 835  : 	if( m_pDefender->IsNPC() && m_pDefender->IsDie() )	 

  00065	75 22		 jne	 SHORT $LN30@OnDied
; File C:\IAGOS\server\v18\Source\Source\_Common\Mover.h

; 1250 : 	BOOL			IsDie() { return m_pActMover->IsDie() || m_nHitPoint == 0; }

  00067	8b 81 38 02 00
	00		 mov	 eax, DWORD PTR [ecx+568]
  0006d	f7 40 04 00 00
	00 08		 test	 DWORD PTR [eax+4], 134217728 ; 08000000H
  00074	75 09		 jne	 SHORT $LN31@OnDied
  00076	83 b9 f8 05 00
	00 00		 cmp	 DWORD PTR [ecx+1528], 0
  0007d	75 0a		 jne	 SHORT $LN30@OnDied
$LN31@OnDied:
; File C:\IAGOS\server\v18\Source\Source\WorldServer\AttackArbiter.cpp

; 837  : 		m_pDefender->Delete();							// ŔĎ´Ü ¶«»§... ŔĚ·±°ćżě´Â °Á ľřľÖŔÚ.

  0007f	e8 00 00 00 00	 call	 ?Delete@CObj@@QAEXXZ	; CObj::Delete
  00084	5b		 pop	 ebx

; 872  : }

  00085	8b e5		 mov	 esp, ebp
  00087	5d		 pop	 ebp
  00088	c3		 ret	 0
$LN30@OnDied:

; 838  : 		return;
; 839  : 	}
; 840  : 
; 841  : 	if( m_pDefender->m_dwIndex == MI_CLOCKWORK1 || m_pDefender->m_dwIndex == MI_BIGMUSCLE || m_pDefender->m_dwIndex == MI_KRRR )		

  00089	8b 81 74 01 00
	00		 mov	 eax, DWORD PTR [ecx+372]
  0008f	3d a4 00 00 00	 cmp	 eax, 164		; 000000a4H
  00094	74 19		 je	 SHORT $LN6@OnDied
  00096	3d a5 00 00 00	 cmp	 eax, 165		; 000000a5H
  0009b	74 12		 je	 SHORT $LN6@OnDied
  0009d	3d a6 00 00 00	 cmp	 eax, 166		; 000000a6H
  000a2	74 0b		 je	 SHORT $LN6@OnDied

; 843  : 	else
; 844  : 		m_pAttacker->SubExperience( m_pDefender );		// m_pDefender¸¦ Á×ŔĚ°í ł­ČÄŔÇ m_pAttacker °ćÇčÄˇ Ăł¸®.

  000a4	51		 push	 ecx
  000a5	8b 4b 08	 mov	 ecx, DWORD PTR [ebx+8]
  000a8	e8 00 00 00 00	 call	 ?SubExperience@CMover@@QAEHPAV1@@Z ; CMover::SubExperience
  000ad	eb 10		 jmp	 SHORT $LN5@OnDied
$LN6@OnDied:

; 842  : 		m_pDefender->SubAroundExp( m_pAttacker, 50.0f );		// ąÝ°ć50ąĚĹÍ ŔĚł»żˇ´Â ´Ů °ćÇčÄˇ łŞ´˛°ˇÁü.

  000af	51		 push	 ecx
  000b0	c7 04 24 00 00
	48 42		 mov	 DWORD PTR [esp], 1112014848 ; 42480000H
  000b7	ff 73 08	 push	 DWORD PTR [ebx+8]
  000ba	e8 00 00 00 00	 call	 ?SubAroundExp@CMover@@QAEXPAV1@M@Z ; CMover::SubAroundExp
$LN5@OnDied:

; 845  : 	
; 846  : 	m_pDefender->DropItemByDied( m_pAttacker );

  000bf	ff 73 08	 push	 DWORD PTR [ebx+8]
  000c2	8b 4b 0c	 mov	 ecx, DWORD PTR [ebx+12]
  000c5	e8 00 00 00 00	 call	 ?DropItemByDied@CMover@@QAEHPAV1@@Z ; CMover::DropItemByDied
; File C:\IAGOS\server\v18\Source\Source\_Common\Obj.h

; 221  : 	CWorld*			GetWorld()	{ return m_pWorld; }

  000ca	8b 43 0c	 mov	 eax, DWORD PTR [ebx+12]
; File C:\IAGOS\server\v18\Source\Source\WorldServer\AttackArbiter.cpp

; 850  : 	BOOL bArena		= m_pDefender->GetWorld() && m_pDefender->GetWorld()->IsArena();

  000cd	8b 88 6c 01 00
	00		 mov	 ecx, DWORD PTR [eax+364]
  000d3	85 c9		 test	 ecx, ecx
  000d5	74 0f		 je	 SHORT $LN10@OnDied
; File C:\IAGOS\server\v18\Source\Source\_Common\World.h

; 415  : 		{	return( m_dwWorldID == WI_WORLD_ARENA );	}

  000d7	81 39 d0 00 00
	00		 cmp	 DWORD PTR [ecx], 208	; 000000d0H
; File C:\IAGOS\server\v18\Source\Source\WorldServer\AttackArbiter.cpp

; 850  : 	BOOL bArena		= m_pDefender->GetWorld() && m_pDefender->GetWorld()->IsArena();

  000dd	75 07		 jne	 SHORT $LN10@OnDied
  000df	b9 01 00 00 00	 mov	 ecx, 1
  000e4	eb 02		 jmp	 SHORT $LN11@OnDied
$LN10@OnDied:
  000e6	33 c9		 xor	 ecx, ecx
$LN11@OnDied:

; 855  : 		&& !bArena

  000e8	83 b8 30 02 00
	00 00		 cmp	 DWORD PTR [eax+560], 0
  000ef	74 73		 je	 SHORT $LN7@OnDied
; File C:\IAGOS\server\v18\Source\Source\_Common\Mover.h

; 1257 : 	BOOL			IsChaotic( void ) { return m_dwPKPropensity > 0; }	/// Ä«żŔŔÎÁö

  000f1	8b 80 58 07 00
	00		 mov	 eax, DWORD PTR [eax+1880]
  000f7	89 45 fc	 mov	 DWORD PTR tv548[ebp], eax
  000fa	85 c0		 test	 eax, eax
; File C:\IAGOS\server\v18\Source\Source\WorldServer\AttackArbiter.cpp

; 855  : 		&& !bArena

  000fc	74 66		 je	 SHORT $LN7@OnDied
  000fe	85 c9		 test	 ecx, ecx
  00100	75 62		 jne	 SHORT $LN7@OnDied

; 856  : #endif	// __JEFF_11_4
; 857  : 		)
; 858  : 	{
; 859  : 		DWORD dwPropensity = m_pDefender->GetPKPropensity(); // undorflow
; 860  : 		m_pDefender->SetPKPropensity( m_pDefender->GetPKPropensity() - xRandom( prj.m_PKSetting.nDiePropensityMin, prj.m_PKSetting.nDiePropensityMax + 1 ));

  00102	a1 88 4b 0b 00	 mov	 eax, DWORD PTR ?prj@@3VCProject@@A+740232
  00107	56		 push	 esi
  00108	57		 push	 edi
  00109	8b 7b 0c	 mov	 edi, DWORD PTR [ebx+12]
  0010c	40		 inc	 eax
  0010d	50		 push	 eax
  0010e	ff 35 84 4b 0b
	00		 push	 DWORD PTR ?prj@@3VCProject@@A+740228
  00114	8b b7 58 07 00
	00		 mov	 esi, DWORD PTR [edi+1880]
  0011a	e8 00 00 00 00	 call	 ?xRandom@@YAKKK@Z	; xRandom
  0011f	83 c4 08	 add	 esp, 8
  00122	2b f0		 sub	 esi, eax
  00124	8b cf		 mov	 ecx, edi
  00126	56		 push	 esi
  00127	e8 00 00 00 00	 call	 ?SetPKPropensity@CMover@@QAEXK@Z ; CMover::SetPKPropensity

; 861  : 		if( dwPropensity <= m_pDefender->GetPKPropensity() )

  0012c	8b 4b 0c	 mov	 ecx, DWORD PTR [ebx+12]
  0012f	8b 45 fc	 mov	 eax, DWORD PTR tv548[ebp]
  00132	5f		 pop	 edi
  00133	5e		 pop	 esi
  00134	3b 81 58 07 00
	00		 cmp	 eax, DWORD PTR [ecx+1880]
  0013a	77 07		 ja	 SHORT $LN8@OnDied

; 862  : 			m_pDefender->SetPKPropensity( 0 );

  0013c	6a 00		 push	 0
  0013e	e8 00 00 00 00	 call	 ?SetPKPropensity@CMover@@QAEXK@Z ; CMover::SetPKPropensity
$LN8@OnDied:

; 863  : 		g_UserMng.AddPKPropensity( m_pDefender );

  00143	ff 73 0c	 push	 DWORD PTR [ebx+12]
  00146	b9 00 00 00 00	 mov	 ecx, OFFSET ?g_UserMng@@3VCUserMng@@A ; g_UserMng
  0014b	e8 00 00 00 00	 call	 ?AddPKPropensity@CUserMng@@QAEXPAVCMover@@@Z ; CUserMng::AddPKPropensity

; 864  : 		g_dpDBClient.SendLogPkPvp( m_pDefender, m_pAttacker, 0, 'P' );

  00150	6a 50		 push	 80			; 00000050H
  00152	6a 00		 push	 0
  00154	ff 73 08	 push	 DWORD PTR [ebx+8]
  00157	b9 00 00 00 00	 mov	 ecx, OFFSET ?g_dpDBClient@@3VCDPDatabaseClient@@A ; g_dpDBClient
  0015c	ff 73 0c	 push	 DWORD PTR [ebx+12]
  0015f	e8 00 00 00 00	 call	 ?SendLogPkPvp@CDPDatabaseClient@@QAEXPAVCMover@@0HD@Z ; CDPDatabaseClient::SendLogPkPvp
$LN7@OnDied:

; 865  : 	}	
; 866  : #endif // __VER >= 8 // __S8_PK
; 867  : 
; 868  : 	m_pAttacker->m_nAtkCnt = 0;							// Ĺ¸°ŮŔ» Á×ż´Ŕ¸¸é °ř°ÝŔÚŔÇ ľîĹĂÄ«żîĆ® Ĺ¬¸®ľî

  00164	8b 43 08	 mov	 eax, DWORD PTR [ebx+8]
  00167	c7 80 a8 06 00
	00 00 00 00 00	 mov	 DWORD PTR [eax+1704], 0

; 869  : 	m_pDefender->DoDie( m_pAttacker, m_dwMsg );			// m_pDefenderľß Á×ľî¶ó. 

  00171	ff 73 04	 push	 DWORD PTR [ebx+4]
  00174	8b 4b 0c	 mov	 ecx, DWORD PTR [ebx+12]
  00177	ff 73 08	 push	 DWORD PTR [ebx+8]
  0017a	e8 00 00 00 00	 call	 ?DoDie@CMover@@QAEHPAVCCtrl@@K@Z ; CMover::DoDie

; 870  : 
; 871  : 	m_pAttacker->ClearDestObj();						// ¸ńÇĄ¸¦ Á×ż´Ŕ¸¸é ŔĚµż¸ńÇĄµµ Ĺ¬¸®ľî.

  0017f	8b 43 08	 mov	 eax, DWORD PTR [ebx+8]
  00182	5b		 pop	 ebx
; File C:\IAGOS\server\v18\Source\Source\_Common\Mover.h

; 1030 : 	void			ClearDestObj()     	{ m_idDest = NULL_ID; m_fArrivalRange = 0.0f; }

  00183	c7 80 58 02 00
	00 ff ff ff ff	 mov	 DWORD PTR [eax+600], -1
  0018d	c7 80 54 02 00
	00 00 00 00 00	 mov	 DWORD PTR [eax+596], 0
; File C:\IAGOS\server\v18\Source\Source\WorldServer\AttackArbiter.cpp

; 872  : }

  00197	8b e5		 mov	 esp, ebp
  00199	5d		 pop	 ebp
  0019a	c3		 ret	 0
?OnDied@CAttackArbiter@@AAEXXZ ENDP			; CAttackArbiter::OnDied
_TEXT	ENDS
; Function compile flags: /Ogtp
; File C:\IAGOS\server\v18\Source\Source\WorldServer\AttackArbiter.cpp
;	COMDAT ?OnDamaged@CAttackArbiter@@AAEXH@Z
_TEXT	SEGMENT
_nDamage$ = 8						; size = 4
?OnDamaged@CAttackArbiter@@AAEXH@Z PROC			; CAttackArbiter::OnDamaged, COMDAT
; _this$ = ecx

; 809  : {

  00000	55		 push	 ebp
  00001	8b ec		 mov	 ebp, esp
  00003	56		 push	 esi
  00004	8b f1		 mov	 esi, ecx

; 810  : #if __VER >= 9 // __RECOVERY10
; 811  : 	m_pDefender->m_nAtkCnt = 1;

  00006	8b 46 0c	 mov	 eax, DWORD PTR [esi+12]
  00009	c7 80 a8 06 00
	00 01 00 00 00	 mov	 DWORD PTR [eax+1704], 1

; 812  : #endif // __RECOVERY10
; 813  : 	m_pDefender->SetDamagedMotion( m_pAttacker, m_dwAtkFlags );

  00013	ff 76 10	 push	 DWORD PTR [esi+16]
  00016	8b 4e 0c	 mov	 ecx, DWORD PTR [esi+12]
  00019	ff 76 08	 push	 DWORD PTR [esi+8]
  0001c	e8 00 00 00 00	 call	 ?SetDamagedMotion@CMover@@QAEXPAV1@K@Z ; CMover::SetDamagedMotion

; 814  : 
; 815  : 	g_UserMng.AddDamage( m_pDefender, GETID( m_pAttacker ), nDamage, m_dwAtkFlags );

  00021	8b 46 08	 mov	 eax, DWORD PTR [esi+8]
  00024	85 c0		 test	 eax, eax
  00026	74 08		 je	 SHORT $LN3@OnDamaged
  00028	8b 80 bc 01 00
	00		 mov	 eax, DWORD PTR [eax+444]
  0002e	eb 03		 jmp	 SHORT $LN4@OnDamaged
$LN3@OnDamaged:
  00030	83 c8 ff	 or	 eax, -1
$LN4@OnDamaged:
  00033	ff 76 10	 push	 DWORD PTR [esi+16]
  00036	b9 00 00 00 00	 mov	 ecx, OFFSET ?g_UserMng@@3VCUserMng@@A ; g_UserMng
  0003b	ff 75 08	 push	 DWORD PTR _nDamage$[ebp]
  0003e	50		 push	 eax
  0003f	ff 76 0c	 push	 DWORD PTR [esi+12]
  00042	e8 00 00 00 00	 call	 ?AddDamage@CUserMng@@QAEXPAVCMover@@KKK@Z ; CUserMng::AddDamage
  00047	5e		 pop	 esi

; 816  : }

  00048	5d		 pop	 ebp
  00049	c2 04 00	 ret	 4
?OnDamaged@CAttackArbiter@@AAEXH@Z ENDP			; CAttackArbiter::OnDamaged
_TEXT	ENDS
; Function compile flags: /Ogtp
; File C:\IAGOS\server\v18\Source\Source\WorldServer\AttackArbiter.cpp
;	COMDAT ?StealHP@CAttackArbiter@@AAEXHW4ATK_TYPE@@@Z
_TEXT	SEGMENT
_nDamage$ = 8						; size = 4
_type$ = 12						; size = 4
?StealHP@CAttackArbiter@@AAEXHW4ATK_TYPE@@@Z PROC	; CAttackArbiter::StealHP, COMDAT
; _this$ = ecx

; 782  : {

  00000	55		 push	 ebp
  00001	8b ec		 mov	 ebp, esp
  00003	56		 push	 esi
  00004	8b f1		 mov	 esi, ecx

; 783  : 	ItemProp *pHandItem = m_pAttacker->GetActiveHandItemProp();

  00006	6a 0a		 push	 10			; 0000000aH
  00008	8b 4e 08	 mov	 ecx, DWORD PTR [esi+8]
  0000b	e8 00 00 00 00	 call	 ?GetActiveHandItemProp@CMover@@QAEPAUItemProp@@H@Z ; CMover::GetActiveHandItemProp

; 784  : 	if( pHandItem )

  00010	85 c0		 test	 eax, eax
  00012	74 3e		 je	 SHORT $LN3@StealHP

; 785  : 	{
; 786  : 		if( pHandItem->dwDestParam1 == DST_CHR_STEALHP )					// µé°í ŔÖ´ř ą«±âżˇ ČíÇ÷ żÉĽÇŔĚ ŔÖŔ¸¸é

  00014	83 b8 40 01 00
	00 38		 cmp	 DWORD PTR [eax+320], 56	; 00000038H
  0001b	75 35		 jne	 SHORT $LN3@StealHP

; 787  : 		{
; 788  : 			int nStealHP = (int)( nDamage * (pHandItem->nAdjParamVal1 / 100.0f) );	// ˝ÇÁ¦°ˇ°ÝÇŃ µĄąĚÁöŔÇ %¸¦ ĂëÇÔ.

  0001d	66 0f 6e 88 4c
	01 00 00	 movd	 xmm1, DWORD PTR [eax+332]
  00025	0f 5b c9	 cvtdq2ps xmm1, xmm1

; 789  : 			m_pAttacker->SetDestParam( DST_HP, nStealHP, NULL_CHGPARAM );				// °ř°ÝŔÚżˇ°Ô ČíÇ÷HP¸¦ ÁÜ.

  00028	8b 4e 08	 mov	 ecx, DWORD PTR [esi+8]
  0002b	6a 01		 push	 1
  0002d	68 ff ff ff 7f	 push	 2147483647		; 7fffffffH
  00032	66 0f 6e 45 08	 movd	 xmm0, DWORD PTR _nDamage$[ebp]
  00037	f3 0f 5e 0d 00
	00 00 00	 divss	 xmm1, DWORD PTR __real@42c80000
  0003f	0f 5b c0	 cvtdq2ps xmm0, xmm0
  00042	f3 0f 59 c8	 mulss	 xmm1, xmm0
  00046	f3 0f 2c c1	 cvttss2si eax, xmm1
  0004a	50		 push	 eax
  0004b	6a 26		 push	 38			; 00000026H
  0004d	e8 00 00 00 00	 call	 ?SetDestParam@CMover@@QAEXHHHH@Z ; CMover::SetDestParam
$LN3@StealHP:

; 790  : 		}
; 791  : 	}
; 792  : 
; 793  : #if __VER >= 9 // __ULTIMATE
; 794  : 	if( type == ATK_GENERIC && m_pAttacker->IsPlayer() )

  00052	83 7d 0c 04	 cmp	 DWORD PTR _type$[ebp], 4
  00056	75 4a		 jne	 SHORT $LN5@StealHP
  00058	8b 4e 08	 mov	 ecx, DWORD PTR [esi+8]
  0005b	83 b9 30 02 00
	00 00		 cmp	 DWORD PTR [ecx+560], 0
  00062	74 3e		 je	 SHORT $LN5@StealHP

; 795  : 	{
; 796  : 		int nDstHP = m_pAttacker->GetParam( DST_MELEE_STEALHP, 0 );

  00064	6a 00		 push	 0
  00066	6a 51		 push	 81			; 00000051H
  00068	e8 00 00 00 00	 call	 ?GetParam@CMover@@QAEHHH@Z ; CMover::GetParam

; 798  : 		if( 0 < nDstHP )

  0006d	85 c0		 test	 eax, eax
  0006f	7e 31		 jle	 SHORT $LN5@StealHP

; 797  : 		int nStealHP = (int)( nDamage * (nDstHP / 100.0f) );

  00071	66 0f 6e c8	 movd	 xmm1, eax
  00075	0f 5b c9	 cvtdq2ps xmm1, xmm1

; 799  : 			m_pAttacker->SetDestParam( DST_HP, nStealHP, NULL_CHGPARAM );				// °ř°ÝŔÚżˇ°Ô ČíÇ÷HP¸¦ ÁÜ.

  00078	8b 4e 08	 mov	 ecx, DWORD PTR [esi+8]
  0007b	6a 01		 push	 1
  0007d	68 ff ff ff 7f	 push	 2147483647		; 7fffffffH
  00082	66 0f 6e 45 08	 movd	 xmm0, DWORD PTR _nDamage$[ebp]
  00087	f3 0f 5e 0d 00
	00 00 00	 divss	 xmm1, DWORD PTR __real@42c80000
  0008f	0f 5b c0	 cvtdq2ps xmm0, xmm0
  00092	f3 0f 59 c8	 mulss	 xmm1, xmm0
  00096	f3 0f 2c c1	 cvttss2si eax, xmm1
  0009a	50		 push	 eax
  0009b	6a 26		 push	 38			; 00000026H
  0009d	e8 00 00 00 00	 call	 ?SetDestParam@CMover@@QAEXHHHH@Z ; CMover::SetDestParam
$LN5@StealHP:
  000a2	5e		 pop	 esi

; 800  : 	}
; 801  : #endif // __ULTIMATE
; 802  : }

  000a3	5d		 pop	 ebp
  000a4	c2 08 00	 ret	 8
?StealHP@CAttackArbiter@@AAEXHW4ATK_TYPE@@@Z ENDP	; CAttackArbiter::StealHP
_TEXT	ENDS
; Function compile flags: /Ogtp
; File C:\IAGOS\server\v18\Source\Source\WorldServer\AttackArbiter.cpp
;	COMDAT ?MinusHP@CAttackArbiter@@AAEHPAH@Z
_TEXT	SEGMENT
_pnDamage$ = 8						; size = 4
?MinusHP@CAttackArbiter@@AAEHPAH@Z PROC			; CAttackArbiter::MinusHP, COMDAT
; _this$ = ecx

; 743  : {

  00000	55		 push	 ebp
  00001	8b ec		 mov	 ebp, esp
  00003	53		 push	 ebx

; 744  : 	int nHP = m_pDefender->GetHitPoint() - *pnDamage;	// HP¸¦ ±đ´Â´Ů.

  00004	8b 5d 08	 mov	 ebx, DWORD PTR _pnDamage$[ebp]
  00007	56		 push	 esi
  00008	57		 push	 edi
  00009	8b f9		 mov	 edi, ecx
  0000b	8b 33		 mov	 esi, DWORD PTR [ebx]
  0000d	8b 4f 0c	 mov	 ecx, DWORD PTR [edi+12]
  00010	e8 00 00 00 00	 call	 ?GetHitPoint@CMover@@QAEHXZ ; CMover::GetHitPoint
  00015	2b c6		 sub	 eax, esi

; 745  : 	if( nHP <= 0 )

  00017	85 c0		 test	 eax, eax
  00019	7f 1a		 jg	 SHORT $LN2@MinusHP

; 746  : 	{
; 747  : 		if( m_pDefender->m_dwMode & MATCHLESS2_MODE )	// HP°ˇ 0ąĚ¸¸Ŕ¸·Î ¶łľîÁł´ÂµĄ ąÝą«Ŕű »óĹÂłÄ

  0001b	8b 4f 0c	 mov	 ecx, DWORD PTR [edi+12]
  0001e	8b b1 40 02 00
	00		 mov	 esi, DWORD PTR [ecx+576]
  00024	c1 ee 05	 shr	 esi, 5
  00027	83 e6 01	 and	 esi, 1

; 748  : 			nHP = 1;									// hp¸¦ 1·Î şą±¸ÇŘÁÜ
; 749  : 		else
; 750  : 			nHP = 0;									// ąÝą«Ŕű ľĆ´Ď¸é °Á Á×´Â°Ô ¸Â´Ů.
; 751  : 		*pnDamage = m_pDefender->GetHitPoint() - nHP;

  0002a	e8 00 00 00 00	 call	 ?GetHitPoint@CMover@@QAEHXZ ; CMover::GetHitPoint
  0002f	2b c6		 sub	 eax, esi
  00031	89 03		 mov	 DWORD PTR [ebx], eax

; 752  : 	}
; 753  : 	/*
; 754  : 	else	
; 755  : 	{
; 756  : 		int nActionHPRate = m_pDefender->GetAdjParam( DST_AUTOHP );							// ąßµż HPŔ˛
; 757  : 		if( nActionHPRate > 0 )
; 758  : 		{
; 759  : 			float fHPPercent = (float)nHP / m_pDefender->GetMaxHitPoint();					// ÇöŔç HPŔÇ ĆŰĽľĆ® Ŕ˛
; 760  : 			if( fHPPercent <= (nActionHPRate / 100.0f) )									// ÇöŔç HP°ˇ ąßµżHPŔĚÇĎ°ˇ µÇ¸é
; 761  : 			{
; 762  : 				float fAddHP = m_pDefender->GetChgParam( DST_AUTOHP ) / 100.0f;				// Č¸şą˝ĂĹł HPŔ˛
; 763  : 				int nAddHP = m_pDefender->GetMaxHitPoint() * fAddHP;						// MaxHPŔÇ ŔĎÁ¤şńŔ˛Ŕ» ĂëÇÔ.
; 764  : 				nHP += nAddHP;
; 765  : 				m_pDefender->SetPointParam( DST_HP, nHP );									// HPÁő°ˇ.
; 766  : 				g_UserMng.AddCreateSfxObj( m_pDefender, XI_GEN_CURE01 );					// Č¸şą Čż°ú ąß»ý.
; 767  : 				m_pDefender->RemoveBuff( BUFF_SKILL, SI_ASS_HEAL_PREVENTION );	// ÇŘÁ¦.				
; 768  : 			}
; 769  : 		}
; 770  : 	}
; 771  : 	*/
; 772  : 
; 773  : 	return nHP;

  00033	8b c6		 mov	 eax, esi
$LN2@MinusHP:

; 774  : }

  00035	5f		 pop	 edi
  00036	5e		 pop	 esi
  00037	5b		 pop	 ebx
  00038	5d		 pop	 ebp
  00039	c2 04 00	 ret	 4
?MinusHP@CAttackArbiter@@AAEHPAH@Z ENDP			; CAttackArbiter::MinusHP
_TEXT	ENDS
; Function compile flags: /Ogtp
; File C:\IAGOS\server\v18\Source\Source\WorldServer\AttackArbiter.cpp
; File C:\IAGOS\server\v18\Source\Source\_Common\xUtil.h
; File C:\IAGOS\server\v18\Source\Source\WorldServer\AttackArbiter.cpp
; File C:\IAGOS\server\v18\Source\Source\_Common\xUtil.h
; File C:\IAGOS\server\v18\Source\Source\WorldServer\AttackArbiter.cpp
; File C:\IAGOS\server\v18\Source\Source\_Common\xUtil.h
; File C:\IAGOS\server\v18\Source\Source\WorldServer\AttackArbiter.cpp
; File C:\IAGOS\server\v18\Source\Source\_Common\ProjectCmn.h
; File C:\IAGOS\server\v18\Source\Source\_Common\Item.h
; File C:\IAGOS\server\v18\Source\Source\WorldServer\AttackArbiter.cpp
; File C:\IAGOS\server\v18\Source\Source\_Common\Item.h
; File C:\IAGOS\server\v18\Source\Source\WorldServer\AttackArbiter.cpp
; File C:\IAGOS\server\v18\Source\Source\_Common\Item.h
; File C:\IAGOS\server\v18\Source\Source\WorldServer\AttackArbiter.cpp
; File C:\IAGOS\server\v18\Source\Source\_Common\Item.h
; File C:\IAGOS\server\v18\Source\Source\WorldServer\AttackArbiter.cpp
; File C:\IAGOS\server\v18\Source\Source\_Common\Project.h
; File C:\IAGOS\server\v18\Source\Source\_Common\data.h
; File C:\IAGOS\server\v18\Source\Source\WorldServer\AttackArbiter.cpp
; File C:\IAGOS\server\v18\Source\Source\_Common\xUtil.h
; File C:\IAGOS\server\v18\Source\Source\WorldServer\AttackArbiter.cpp
; File C:\IAGOS\server\v18\Source\Source\_Common\Item.h
; File C:\IAGOS\server\v18\Source\Source\WorldServer\AttackArbiter.cpp
; File C:\IAGOS\server\v18\Source\Source\_Common\Item.h
; File C:\IAGOS\server\v18\Source\Source\WorldServer\AttackArbiter.cpp
; File C:\IAGOS\server\v18\Source\Source\_Common\Project.h
; File C:\IAGOS\server\v18\Source\Source\WorldServer\AttackArbiter.cpp
;	COMDAT ?ProcessAbnormal@CAttackArbiter@@AAEXHPAUATTACK_INFO@@@Z
_TEXT	SEGMENT
_pSkillProp$1 = -8					; size = 4
_nReflectDmgRate$1$ = -8				; size = 4
_nSkill$1$ = -4						; size = 4
_nDamage$ = 8						; size = 4
_dwActiveSkill$1$ = 8					; size = 4
_dwActiveSkill$1$ = 8					; size = 4
_pInfo$ = 12						; size = 4
_pAddSkillProp$2 = 12					; size = 4
_pItemElem$1$ = 12					; size = 4
?ProcessAbnormal@CAttackArbiter@@AAEXHPAUATTACK_INFO@@@Z PROC ; CAttackArbiter::ProcessAbnormal, COMDAT
; _this$ = ecx

; 594  : {

  00000	55		 push	 ebp
  00001	8b ec		 mov	 ebp, esp
  00003	83 ec 08	 sub	 esp, 8
  00006	53		 push	 ebx
  00007	56		 push	 esi
  00008	8b d9		 mov	 ebx, ecx

; 595  : 	int	nSkill = pInfo->GetSkill();

  0000a	8b 4d 0c	 mov	 ecx, DWORD PTR _pInfo$[ebp]
  0000d	57		 push	 edi
  0000e	e8 00 00 00 00	 call	 ?GetSkill@ATTACK_INFO@@QBEHXZ ; ATTACK_INFO::GetSkill

; 596  : 
; 597  : 	//ąćľîŔÚ°ˇ ąÝ»ç»óĹÂŔĚ¸é?  °ř°ÝŔÚµµ µĄąĚÁö¸¦ ŔÔ´Â´Ů.
; 598  : 	int nReflectDmgRate = m_pDefender->GetAdjParam( DST_REFLECT_DAMAGE );

  00013	8b 4b 0c	 mov	 ecx, DWORD PTR [ebx+12]
  00016	8b f0		 mov	 esi, eax
  00018	6a 1d		 push	 29			; 0000001dH
  0001a	89 75 fc	 mov	 DWORD PTR _nSkill$1$[ebp], esi
  0001d	e8 00 00 00 00	 call	 ?GetAdjParam@CMover@@QAEHH@Z ; CMover::GetAdjParam
  00022	89 45 f8	 mov	 DWORD PTR _nReflectDmgRate$1$[ebp], eax

; 599  : 	if( nReflectDmgRate > 0 )

  00025	85 c0		 test	 eax, eax
  00027	0f 8e c3 00 00
	00		 jle	 $LN16@ProcessAbn

; 600  : 	{
; 601  : 		int nReflectRate = m_pDefender->GetChgParam( DST_REFLECT_DAMAGE );	

  0002d	8b 4b 0c	 mov	 ecx, DWORD PTR [ebx+12]
  00030	6a 1d		 push	 29			; 0000001dH
  00032	e8 00 00 00 00	 call	 ?GetChgParam@CMover@@QAEHH@Z ; CMover::GetChgParam
  00037	8b f8		 mov	 edi, eax

; 602  : 
; 603  : 		BOOL bAble = TRUE;

  00039	be 01 00 00 00	 mov	 esi, 1

; 604  : 		if( nReflectRate > 0 )			// ąÝ»ç˝ĂĹł Č®·üŔĚ ŔÖŔ»¶© Č®·ü°Ë»ç ÇÔ

  0003e	85 ff		 test	 edi, edi
  00040	7e 2c		 jle	 SHORT $LN11@ProcessAbn
; File C:\IAGOS\server\v18\Source\Source\_Common\xUtil.h

; 16   : 	g_next = g_next * 1103515245 + 12345;// + nRandomSeed[ i++ ];

  00042	69 0d 00 00 00
	00 6d 4e c6 41	 imul	 ecx, DWORD PTR ?g_next@@3KA, 1103515245 ; g_next

; 22   : 	return  xRand() % num;

  0004c	b8 1f 85 eb 51	 mov	 eax, 1374389535		; 51eb851fH

; 16   : 	g_next = g_next * 1103515245 + 12345;// + nRandomSeed[ i++ ];

  00051	81 c1 39 30 00
	00		 add	 ecx, 12345		; 00003039H

; 22   : 	return  xRand() % num;

  00057	f7 e1		 mul	 ecx

; 16   : 	g_next = g_next * 1103515245 + 12345;// + nRandomSeed[ i++ ];

  00059	89 0d 00 00 00
	00		 mov	 DWORD PTR ?g_next@@3KA, ecx ; g_next

; 22   : 	return  xRand() % num;

  0005f	c1 ea 05	 shr	 edx, 5
  00062	6b c2 64	 imul	 eax, edx, 100
  00065	2b c8		 sub	 ecx, eax
; File C:\IAGOS\server\v18\Source\Source\WorldServer\AttackArbiter.cpp

; 605  : 			if( (int)( xRandom(100) ) > nReflectRate )	// Č®·ü ˝ÇĆĐłÄ?

  00067	33 c0		 xor	 eax, eax
  00069	3b cf		 cmp	 ecx, edi
  0006b	0f 4f f0	 cmovg	 esi, eax
$LN11@ProcessAbn:

; 606  : 				bAble = FALSE;
; 607  : 
; 608  : 		ATK_TYPE atkType = pInfo->GetAtkType();

  0006e	8b 4d 0c	 mov	 ecx, DWORD PTR _pInfo$[ebp]
  00071	e8 00 00 00 00	 call	 ?GetAtkType@ATTACK_INFO@@QBE?AW4ATK_TYPE@@XZ ; ATTACK_INFO::GetAtkType

; 609  : 		switch( atkType )

  00076	83 e8 00	 sub	 eax, 0
  00079	74 72		 je	 SHORT $LN89@ProcessAbn
  0007b	83 e8 01	 sub	 eax, 1
  0007e	74 05		 je	 SHORT $LN12@ProcessAbn
  00080	83 e8 01	 sub	 eax, 1
  00083	75 16		 jne	 SHORT $LN2@ProcessAbn
$LN12@ProcessAbn:

; 610  : 		{
; 611  : 		case ATK_MELEESKILL:
; 612  : 		case ATK_MAGICSKILL:
; 613  : 			if( m_pDefender->HasBuff( BUFF_SKILL, SI_PSY_NLG_CRUCIOSPELL ) )		// ąćľîŔÚ°ˇ Ĺ©·ç˝ĂżŔ ˝şĆçŔĎ °ćżě

  00085	8b 4b 0c	 mov	 ecx, DWORD PTR [ebx+12]
  00088	68 a5 00 00 00	 push	 165			; 000000a5H
  0008d	6a 01		 push	 1
  0008f	e8 00 00 00 00	 call	 ?HasBuff@CMover@@QAEHGG@Z ; CMover::HasBuff
  00094	33 c9		 xor	 ecx, ecx
  00096	85 c0		 test	 eax, eax
  00098	0f 45 f1	 cmovne	 esi, ecx
$LN2@ProcessAbn:

; 614  : 				bAble = FALSE;
; 615  : #if __VER >= 11 // __REFLECTDMG_AFTER
; 616  : 			break;
; 617  : #endif // __REFLECTDMG_AFTER
; 618  : 		case ATK_FORCE:															// ąĚ¸®°č»ęµČ µĄąĚÁö
; 619  : 			bAble = FALSE;
; 620  : 			break;
; 621  : 		}
; 622  : 
; 623  : 		if( bAble )

  0009b	85 f6		 test	 esi, esi
  0009d	74 4e		 je	 SHORT $LN89@ProcessAbn

; 624  : 		{
; 625  : 			int nDmg = (int)( nDamage * (float)(nReflectDmgRate / 100.0f) );

  0009f	66 0f 6e 4d f8	 movd	 xmm1, DWORD PTR _nReflectDmgRate$1$[ebp]
  000a4	0f 5b c9	 cvtdq2ps xmm1, xmm1

; 626  : #if __VER >= 8 // __S8_PVP_DST_REFLECT_DAMAGE
; 627  : 			if( m_pAttacker->IsPlayer() && m_pDefender->IsPlayer() )

  000a7	8b 43 08	 mov	 eax, DWORD PTR [ebx+8]
  000aa	83 b8 30 02 00
	00 00		 cmp	 DWORD PTR [eax+560], 0
  000b1	f3 0f 5e 0d 00
	00 00 00	 divss	 xmm1, DWORD PTR __real@42c80000
  000b9	66 0f 6e 45 08	 movd	 xmm0, DWORD PTR _nDamage$[ebp]
  000be	0f 5b c0	 cvtdq2ps xmm0, xmm0
  000c1	f3 0f 59 c8	 mulss	 xmm1, xmm0
  000c5	f3 0f 2c c9	 cvttss2si ecx, xmm1
  000c9	74 1f		 je	 SHORT $LN17@ProcessAbn
  000cb	8b 43 0c	 mov	 eax, DWORD PTR [ebx+12]
  000ce	83 b8 30 02 00
	00 00		 cmp	 DWORD PTR [eax+560], 0
  000d5	74 13		 je	 SHORT $LN17@ProcessAbn

; 628  : 				nDmg = (int)( nDmg * 0.1f );

  000d7	66 0f 6e c1	 movd	 xmm0, ecx
  000db	0f 5b c0	 cvtdq2ps xmm0, xmm0
  000de	f3 0f 59 05 00
	00 00 00	 mulss	 xmm0, DWORD PTR __real@3dcccccd
  000e6	f3 0f 2c c8	 cvttss2si ecx, xmm0
$LN17@ProcessAbn:

; 629  : #endif // __VER >= 8 // __S8_PVP_DST_REFLECT_DAMAGE
; 630  : #if __VER >= 11 // __REFLECTDMG_AFTER
; 631  : 			m_nReflectDmg = nDmg;

  000ea	89 4b 20	 mov	 DWORD PTR [ebx+32], ecx
$LN89@ProcessAbn:

; 632  : #else // __REFLECTDMG_AFTER
; 633  : 			m_pAttacker->m_pActMover->SendDamage( AF_FORCE, 
; 634  : 			                                  m_pDefender->GetId(), 
; 635  : 			                                  nDmg, TRUE, 2 );
; 636  : #endif // __REFLECTDMG_AFTER
; 637  : 		}
; 638  : 	}
; 639  : 
; 640  : 	// chipi_080325 - AF_MAGICSKILL ŔÎ°ćżě ĆŻÁ¤ ˝şĹłżˇ ÇŃÇŘ »óĹÂŔĚ»ó Ăł¸®
; 641  : 	if( (m_dwAtkFlags & AF_MAGICSKILL) && m_pAttacker->IsPlayer() )

  000ed	8b 75 fc	 mov	 esi, DWORD PTR _nSkill$1$[ebp]
$LN16@ProcessAbn:
  000f0	f6 43 10 20	 test	 BYTE PTR [ebx+16], 32	; 00000020H
  000f4	74 27		 je	 SHORT $LN4@ProcessAbn
  000f6	8b 4b 08	 mov	 ecx, DWORD PTR [ebx+8]
  000f9	83 b9 30 02 00
	00 00		 cmp	 DWORD PTR [ecx+560], 0
  00100	74 1b		 je	 SHORT $LN4@ProcessAbn

; 642  : 	{
; 643  : 		switch( nSkill )

  00102	8b c6		 mov	 eax, esi
  00104	2d 9e 00 00 00	 sub	 eax, 158		; 0000009eH
  00109	74 05		 je	 SHORT $LN19@ProcessAbn
  0010b	83 e8 01	 sub	 eax, 1
  0010e	75 0d		 jne	 SHORT $LN4@ProcessAbn
$LN19@ProcessAbn:

; 644  : 		{
; 645  : 			case SI_BIL_PST_BGVURTIALBOLD :
; 646  : 			case SI_BIL_PST_ASALRAALAIKUM :
; 647  : 				ChanceSkill( DST_CHR_CHANCESTUN,	m_pAttacker, m_pDefender );

  00110	ff 73 0c	 push	 DWORD PTR [ebx+12]
  00113	51		 push	 ecx
  00114	6a 39		 push	 57			; 00000039H
  00116	8b cb		 mov	 ecx, ebx
  00118	e8 00 00 00 00	 call	 ?ChanceSkill@CAttackArbiter@@AAEXHPAVCCtrl@@0@Z ; CAttackArbiter::ChanceSkill
$LN4@ProcessAbn:

; 648  : 				break;
; 649  : 		}
; 650  : 	}
; 651  : 		
; 652  : 	if( m_dwAtkFlags & (AF_GENERIC | AF_MELEESKILL) )		// ±ŮÁ˘ĆňĹ¸/±ŮÁ˘˝şĹłżˇ ¸ÂľŇ´Ů.

  0011d	f6 43 10 11	 test	 BYTE PTR [ebx+16], 17	; 00000011H
  00121	0f 84 b6 00 00
	00		 je	 $LN26@ProcessAbn

; 653  : 	{
; 654  : 		if( m_pAttacker->IsPlayer() )

  00127	8b 43 08	 mov	 eax, DWORD PTR [ebx+8]
  0012a	83 b8 30 02 00
	00 00		 cmp	 DWORD PTR [eax+560], 0
  00131	74 49		 je	 SHORT $LN22@ProcessAbn

; 655  : 		{
; 656  : 			ChanceSkill( DST_CHR_CHANCESTUN,	m_pAttacker, m_pDefender );

  00133	ff 73 0c	 push	 DWORD PTR [ebx+12]
  00136	8b cb		 mov	 ecx, ebx
  00138	50		 push	 eax
  00139	6a 39		 push	 57			; 00000039H
  0013b	e8 00 00 00 00	 call	 ?ChanceSkill@CAttackArbiter@@AAEXHPAVCCtrl@@0@Z ; CAttackArbiter::ChanceSkill

; 657  : 			ChanceSkill( DST_CHR_CHANCEPOISON,	m_pAttacker, m_pDefender );

  00140	ff 73 0c	 push	 DWORD PTR [ebx+12]
  00143	8b cb		 mov	 ecx, ebx
  00145	ff 73 08	 push	 DWORD PTR [ebx+8]
  00148	6a 3c		 push	 60			; 0000003cH
  0014a	e8 00 00 00 00	 call	 ?ChanceSkill@CAttackArbiter@@AAEXHPAVCCtrl@@0@Z ; CAttackArbiter::ChanceSkill

; 658  : 			ChanceSkill( DST_CHR_CHANCEDARK,	m_pAttacker, m_pDefender );

  0014f	ff 73 0c	 push	 DWORD PTR [ebx+12]
  00152	8b cb		 mov	 ecx, ebx
  00154	ff 73 08	 push	 DWORD PTR [ebx+8]
  00157	6a 3b		 push	 59			; 0000003bH
  00159	e8 00 00 00 00	 call	 ?ChanceSkill@CAttackArbiter@@AAEXHPAVCCtrl@@0@Z ; CAttackArbiter::ChanceSkill

; 659  : 			ChanceSkill( DST_CHR_CHANCEBLEEDING, m_pAttacker, m_pDefender );

  0015e	ff 73 0c	 push	 DWORD PTR [ebx+12]
  00161	8b cb		 mov	 ecx, ebx
  00163	ff 73 08	 push	 DWORD PTR [ebx+8]
  00166	6a 46		 push	 70			; 00000046H
  00168	e8 00 00 00 00	 call	 ?ChanceSkill@CAttackArbiter@@AAEXHPAVCCtrl@@0@Z ; CAttackArbiter::ChanceSkill

; 660  : 			ChanceSkill( DST_CHR_CHANCESTEALHP, m_pAttacker, m_pDefender );

  0016d	ff 73 0c	 push	 DWORD PTR [ebx+12]
  00170	8b cb		 mov	 ecx, ebx
  00172	ff 73 08	 push	 DWORD PTR [ebx+8]
  00175	6a 45		 push	 69			; 00000045H
  00177	e8 00 00 00 00	 call	 ?ChanceSkill@CAttackArbiter@@AAEXHPAVCCtrl@@0@Z ; CAttackArbiter::ChanceSkill
$LN22@ProcessAbn:

; 661  : 		}
; 662  : 		
; 663  : 		// Active Skill(¸¶ąý ąßµż)
; 664  : 		{
; 665  : 			ItemProp *pAttackerHandItemProp = m_pAttacker->GetActiveHandItemProp();

  0017c	8b 4b 08	 mov	 ecx, DWORD PTR [ebx+8]
  0017f	6a 0a		 push	 10			; 0000000aH
  00181	e8 00 00 00 00	 call	 ?GetActiveHandItemProp@CMover@@QAEPAUItemProp@@H@Z ; CMover::GetActiveHandItemProp
  00186	8b f0		 mov	 esi, eax

; 666  : 			if( pAttackerHandItemProp )

  00188	85 f6		 test	 esi, esi
  0018a	74 51		 je	 SHORT $LN26@ProcessAbn

; 667  : 			{
; 668  : 				DWORD dwActiveSkill	= pAttackerHandItemProp->dwActiveSkill;
; 669  : 				DWORD dwActiveSkillLevel = pAttackerHandItemProp->dwActiveSkillLv;

  0018c	8b be cc 00 00
	00		 mov	 edi, DWORD PTR [esi+204]

; 670  : 				if( dwActiveSkillLevel == NULL_ID )

  00192	b9 01 00 00 00	 mov	 ecx, 1
  00197	8b 86 70 01 00
	00		 mov	 eax, DWORD PTR [esi+368]
  0019d	83 ff ff	 cmp	 edi, -1
  001a0	89 45 08	 mov	 DWORD PTR _dwActiveSkill$1$[ebp], eax
  001a3	0f 44 f9	 cmove	 edi, ecx

; 671  : 					dwActiveSkillLevel = 1;
; 672  : 				if(  dwActiveSkill != NULL_ID )	// °ř°ÝŔÚŔÇ ą«±âżˇ ąßµż¸¶ąýŔĚ ŔÖ´Ů.

  001a6	83 f8 ff	 cmp	 eax, -1
  001a9	74 32		 je	 SHORT $LN26@ProcessAbn

; 674  : 					if( pAttackerHandItemProp->dwActiveSkillRate == NULL_ID ||		// = ¸é 100%

  001ab	83 be 74 01 00
	00 ff		 cmp	 DWORD PTR [esi+372], -1
  001b2	74 18		 je	 SHORT $LN27@ProcessAbn
; File C:\IAGOS\server\v18\Source\Source\_Common\xUtil.h

; 28   : inline int	random( int nNum ) { return rand() % nNum; }

  001b4	e8 00 00 00 00	 call	 _rand
  001b9	99		 cdq
  001ba	b9 64 00 00 00	 mov	 ecx, 100		; 00000064H
  001bf	f7 f9		 idiv	 ecx
; File C:\IAGOS\server\v18\Source\Source\WorldServer\AttackArbiter.cpp

; 674  : 					if( pAttackerHandItemProp->dwActiveSkillRate == NULL_ID ||		// = ¸é 100%

  001c1	3b 96 74 01 00
	00		 cmp	 edx, DWORD PTR [esi+372]
  001c7	73 14		 jae	 SHORT $LN26@ProcessAbn
  001c9	8b 45 08	 mov	 eax, DWORD PTR _dwActiveSkill$1$[ebp]
$LN27@ProcessAbn:

; 675  : 						(DWORD)( random(100) ) < pAttackerHandItemProp->dwActiveSkillRate )	// ąßµżČ®·üżˇ °É·Č´Â°ˇ.
; 676  : 					{
; 677  : 						m_pAttacker->DoActiveSkill( dwActiveSkill, dwActiveSkillLevel, m_pDefender, true );		// dwActiveSkill Lv1ŔĚ ąßµżµĘ. true¸¦ ÁŘ°Ç. ż©±âĽ­ Č®·ü°č»ę ÇŢŔ¸ąÇ·Î ł»şÎżˇĽ­´Â ÇĎÁö¸¶¶ó´Â¶ć.

  001cc	8b 4b 08	 mov	 ecx, DWORD PTR [ebx+8]
  001cf	6a 00		 push	 0
  001d1	6a 01		 push	 1
  001d3	ff 73 0c	 push	 DWORD PTR [ebx+12]
  001d6	57		 push	 edi
  001d7	50		 push	 eax
  001d8	e8 00 00 00 00	 call	 ?DoActiveSkill@CCtrl@@QAEXKHPAV1@_NH@Z ; CCtrl::DoActiveSkill
$LN26@ProcessAbn:

; 678  : 						TRACE( "%sŔÇ ActiveSkill ąßµż, ", m_pAttacker->GetName() );
; 679  : 					}
; 680  : 				}
; 681  : 			}
; 682  : 		}
; 683  : 	} // AF_GENERIC
; 684  : 
; 685  : 	if( m_dwAtkFlags & ( AF_MELEESKILL | AF_MAGICSKILL ) )	// ˝şĹł°ř°ÝŔĚ ˝ĂµµµÉ¶§

  001dd	f6 43 10 30	 test	 BYTE PTR [ebx+16], 48	; 00000030H
  001e1	0f 84 92 00 00
	00		 je	 $LN31@ProcessAbn

; 686  : 	{
; 687  : 		ItemProp* pSkillProp;
; 688  : 		AddSkillProp *pAddSkillProp;
; 689  : 		m_pAttacker->GetSkillProp( &pSkillProp, &pAddSkillProp, nSkill, pInfo->GetSkillLevel(), "ProcessAbnormal" );

  001e7	8b 73 08	 mov	 esi, DWORD PTR [ebx+8]
  001ea	8b 4d 0c	 mov	 ecx, DWORD PTR _pInfo$[ebp]
  001ed	68 00 00 00 00	 push	 OFFSET ??_C@_0BA@GFPHKILF@ProcessAbnormal@
  001f2	8b 3e		 mov	 edi, DWORD PTR [esi]
  001f4	e8 00 00 00 00	 call	 ?GetSkillLevel@ATTACK_INFO@@QBEHXZ ; ATTACK_INFO::GetSkillLevel
  001f9	50		 push	 eax
  001fa	ff 75 fc	 push	 DWORD PTR _nSkill$1$[ebp]
  001fd	8d 45 0c	 lea	 eax, DWORD PTR _pAddSkillProp$2[ebp]
  00200	8b ce		 mov	 ecx, esi
  00202	50		 push	 eax
  00203	8d 45 f8	 lea	 eax, DWORD PTR _pSkillProp$1[ebp]
  00206	50		 push	 eax
  00207	ff 57 30	 call	 DWORD PTR [edi+48]

; 690  : 		DWORD dwActiveSkill = pAddSkillProp->dwActiveSkill;

  0020a	8b 75 0c	 mov	 esi, DWORD PTR _pAddSkillProp$2[ebp]
  0020d	8b 46 48	 mov	 eax, DWORD PTR [esi+72]
  00210	89 45 08	 mov	 DWORD PTR _dwActiveSkill$1$[ebp], eax

; 691  : 		if( dwActiveSkill != NULL_ID )		// Ăß°ˇ ąßµż ˝şĹłŔĚ ŔÖ´Ů.

  00213	83 f8 ff	 cmp	 eax, -1
  00216	74 61		 je	 SHORT $LN31@ProcessAbn

; 692  : 		{
; 693  : 			DWORD dwActiveSkillRate	= pAddSkillProp->dwActiveSkillRate;
; 694  : #if __VER >= 9	// __SKILL_0706
; 695  : 			if( m_pAttacker->IsPlayer() && m_pDefender->IsPlayer() )

  00218	8b 43 08	 mov	 eax, DWORD PTR [ebx+8]
  0021b	8b 7e 4c	 mov	 edi, DWORD PTR [esi+76]
  0021e	83 b8 30 02 00
	00 00		 cmp	 DWORD PTR [eax+560], 0
  00225	74 0f		 je	 SHORT $LN30@ProcessAbn
  00227	8b 43 0c	 mov	 eax, DWORD PTR [ebx+12]
  0022a	83 b8 30 02 00
	00 00		 cmp	 DWORD PTR [eax+560], 0
  00231	74 03		 je	 SHORT $LN30@ProcessAbn

; 696  : 				dwActiveSkillRate	= pAddSkillProp->dwActiveSkillRatePVP;

  00233	8b 7e 50	 mov	 edi, DWORD PTR [esi+80]
$LN30@ProcessAbn:

; 699  : 			if( dwActiveSkillRate == NULL_ID || xRandom(100) < dwActiveSkillRate )

  00236	83 ff ff	 cmp	 edi, -1
  00239	74 29		 je	 SHORT $LN32@ProcessAbn
; File C:\IAGOS\server\v18\Source\Source\_Common\xUtil.h

; 16   : 	g_next = g_next * 1103515245 + 12345;// + nRandomSeed[ i++ ];

  0023b	69 0d 00 00 00
	00 6d 4e c6 41	 imul	 ecx, DWORD PTR ?g_next@@3KA, 1103515245 ; g_next

; 22   : 	return  xRand() % num;

  00245	b8 1f 85 eb 51	 mov	 eax, 1374389535		; 51eb851fH

; 16   : 	g_next = g_next * 1103515245 + 12345;// + nRandomSeed[ i++ ];

  0024a	81 c1 39 30 00
	00		 add	 ecx, 12345		; 00003039H

; 22   : 	return  xRand() % num;

  00250	f7 e1		 mul	 ecx

; 16   : 	g_next = g_next * 1103515245 + 12345;// + nRandomSeed[ i++ ];

  00252	89 0d 00 00 00
	00		 mov	 DWORD PTR ?g_next@@3KA, ecx ; g_next

; 22   : 	return  xRand() % num;

  00258	c1 ea 05	 shr	 edx, 5
  0025b	6b c2 64	 imul	 eax, edx, 100
  0025e	2b c8		 sub	 ecx, eax
; File C:\IAGOS\server\v18\Source\Source\WorldServer\AttackArbiter.cpp

; 699  : 			if( dwActiveSkillRate == NULL_ID || xRandom(100) < dwActiveSkillRate )

  00260	3b cf		 cmp	 ecx, edi
  00262	73 15		 jae	 SHORT $LN31@ProcessAbn
$LN32@ProcessAbn:

; 700  : 				m_pAttacker->DoActiveSkill( dwActiveSkill, pAddSkillProp->dwSkillLvl, m_pDefender );	// ąßµż

  00264	8b 4b 08	 mov	 ecx, DWORD PTR [ebx+8]
  00267	6a 00		 push	 0
  00269	6a 00		 push	 0
  0026b	ff 73 0c	 push	 DWORD PTR [ebx+12]
  0026e	ff 76 08	 push	 DWORD PTR [esi+8]
  00271	ff 75 08	 push	 DWORD PTR _dwActiveSkill$1$[ebp]
  00274	e8 00 00 00 00	 call	 ?DoActiveSkill@CCtrl@@QAEXKHPAV1@_NH@Z ; CCtrl::DoActiveSkill
$LN31@ProcessAbn:

; 701  : 		}
; 702  : 	}
; 703  : #ifdef __BARUNA_PIERCING
; 704  : 	if( m_dwAtkFlags &( AF_GENERIC | AF_MELEESKILL | AF_MAGICSKILL ))

  00279	f6 43 10 31	 test	 BYTE PTR [ebx+16], 49	; 00000031H
  0027d	0f 84 4f 01 00
	00		 je	 $LN83@ProcessAbn

; 705  : 	{
; 706  : 		if (m_pDefender->IsPlayer() || !m_pAttacker->IsPlayer())

  00283	8b 43 0c	 mov	 eax, DWORD PTR [ebx+12]
  00286	83 b8 30 02 00
	00 00		 cmp	 DWORD PTR [eax+560], 0
  0028d	0f 85 3f 01 00
	00		 jne	 $LN83@ProcessAbn
  00293	8b 4b 08	 mov	 ecx, DWORD PTR [ebx+8]
  00296	83 b9 30 02 00
	00 00		 cmp	 DWORD PTR [ecx+560], 0
  0029d	0f 84 2f 01 00
	00		 je	 $LN83@ProcessAbn

; 707  : 			return;
; 708  : 
; 709  : 		CItemElem *pItemElem = m_pAttacker->GetWeaponItem();

  002a3	6a 0a		 push	 10			; 0000000aH
  002a5	e8 00 00 00 00	 call	 ?GetWeaponItem@CMover@@QAEPAVCItemElem@@H@Z ; CMover::GetWeaponItem
  002aa	8b f0		 mov	 esi, eax
  002ac	89 75 0c	 mov	 DWORD PTR _pItemElem$1$[ebp], esi

; 710  : 		if( !pItemElem )

  002af	85 f6		 test	 esi, esi
  002b1	0f 84 1b 01 00
	00		 je	 $LN83@ProcessAbn

; 711  : 			return;
; 712  : 		ItemProp *pProp = pItemElem->GetProp();

  002b7	8b ce		 mov	 ecx, esi
  002b9	e8 00 00 00 00	 call	 ?GetPropA@CItemElem@@QAEPAUItemProp@@XZ ; CItemElem::GetPropA

; 713  : 		if ( !pProp )

  002be	85 c0		 test	 eax, eax
  002c0	0f 84 0c 01 00
	00		 je	 $LN83@ProcessAbn
; File C:\IAGOS\server\v18\Source\Source\_Common\ProjectCmn.h

; 446  : 		return( dwReferStat1 >= BARUNA_D && dwReferStat1 <= BARUNA_S );

  002c6	8b 80 d0 01 00
	00		 mov	 eax, DWORD PTR [eax+464]
  002cc	83 e8 04	 sub	 eax, 4
  002cf	83 f8 04	 cmp	 eax, 4
  002d2	0f 87 fa 00 00
	00		 ja	 $LN83@ProcessAbn
; File C:\IAGOS\server\v18\Source\Source\_Common\Item.h

; 103  : 	int		GetPiercingSize()	{	return m_piercing.GetPiercingSize();		}

  002d8	8d 4e 3c	 lea	 ecx, DWORD PTR [esi+60]
; File C:\IAGOS\server\v18\Source\Source\WorldServer\AttackArbiter.cpp

; 719  : 		for( int i = 0; i < pItemElem->GetPiercingSize(); i++ )

  002db	33 ff		 xor	 edi, edi
; File C:\IAGOS\server\v18\Source\Source\_Common\Item.h

; 103  : 	int		GetPiercingSize()	{	return m_piercing.GetPiercingSize();		}

  002dd	e8 00 00 00 00	 call	 ?GetPiercingSize@CPiercing@@QAEHXZ ; CPiercing::GetPiercingSize
; File C:\IAGOS\server\v18\Source\Source\WorldServer\AttackArbiter.cpp

; 719  : 		for( int i = 0; i < pItemElem->GetPiercingSize(); i++ )

  002e2	85 c0		 test	 eax, eax
  002e4	0f 8e e8 00 00
	00		 jle	 $LN83@ProcessAbn
  002ea	66 0f 1f 44 00
	00		 npad	 6
$LL8@ProcessAbn:
; File C:\IAGOS\server\v18\Source\Source\_Common\Item.h

; 105  : 	DWORD	GetPiercingItem( int nth )	{	return m_piercing.GetPiercingItem( nth );	}

  002f0	8b 75 0c	 mov	 esi, DWORD PTR _pItemElem$1$[ebp]
  002f3	57		 push	 edi
  002f4	8d 4e 3c	 lea	 ecx, DWORD PTR [esi+60]
  002f7	e8 00 00 00 00	 call	 ?GetPiercingItem@CPiercing@@QAEKH@Z ; CPiercing::GetPiercingItem
; File C:\IAGOS\server\v18\Source\Source\WorldServer\AttackArbiter.cpp

; 721  : 			if( pItemElem->GetPiercingItem( i ) != 0 )

  002fc	85 c0		 test	 eax, eax
  002fe	0f 84 9b 00 00
	00		 je	 $LN6@ProcessAbn
; File C:\IAGOS\server\v18\Source\Source\_Common\Item.h

; 105  : 	DWORD	GetPiercingItem( int nth )	{	return m_piercing.GetPiercingItem( nth );	}

  00304	57		 push	 edi
  00305	8d 4e 3c	 lea	 ecx, DWORD PTR [esi+60]
  00308	e8 00 00 00 00	 call	 ?GetPiercingItem@CPiercing@@QAEKH@Z ; CPiercing::GetPiercingItem
; File C:\IAGOS\server\v18\Source\Source\WorldServer\AttackArbiter.cpp

; 723  : 				DWORD dwRuneId = pItemElem->GetPiercingItem(i);				 

  0030d	8b c8		 mov	 ecx, eax
; File C:\IAGOS\server\v18\Source\Source\_Common\Project.h

; 1389 : 	VERIFY_RANGE_ASSERT( nIndex, 0, m_aPropItem.GetSize(), "GetItemProp range_error", NULL );

  0030f	a1 40 02 00 00	 mov	 eax, DWORD PTR ?prj@@3VCProject@@A+576
  00314	85 c9		 test	 ecx, ecx
  00316	0f 88 a0 00 00
	00		 js	 $LN67@ProcessAbn
  0031c	3b c8		 cmp	 ecx, eax
  0031e	0f 8d 98 00 00
	00		 jge	 $LN67@ProcessAbn
; File C:\IAGOS\server\v18\Source\Source\_Common\data.h

; 270  : 	if( dwIndex >= (DWORD)m_nMaxIndex )

  00324	72 04		 jb	 SHORT $LN72@ProcessAbn

; 271  : 		return NULL;

  00326	33 f6		 xor	 esi, esi
  00328	eb 08		 jmp	 SHORT $LN71@ProcessAbn
$LN72@ProcessAbn:

; 272  : 	return (T*) m_apOffset[ dwIndex ];

  0032a	a1 30 02 00 00	 mov	 eax, DWORD PTR ?prj@@3VCProject@@A+560
  0032f	8b 34 88	 mov	 esi, DWORD PTR [eax+ecx*4]
$LN71@ProcessAbn:
; File C:\IAGOS\server\v18\Source\Source\WorldServer\AttackArbiter.cpp

; 725  : 				if( !pRuneProp )

  00332	85 f6		 test	 esi, esi
  00334	0f 84 98 00 00
	00		 je	 $LN83@ProcessAbn
; File C:\IAGOS\server\v18\Source\Source\_Common\xUtil.h

; 16   : 	g_next = g_next * 1103515245 + 12345;// + nRandomSeed[ i++ ];

  0033a	69 0d 00 00 00
	00 6d 4e c6 41	 imul	 ecx, DWORD PTR ?g_next@@3KA, 1103515245 ; g_next

; 22   : 	return  xRand() % num;

  00344	b8 59 17 b7 d1	 mov	 eax, -776530087		; d1b71759H

; 16   : 	g_next = g_next * 1103515245 + 12345;// + nRandomSeed[ i++ ];

  00349	81 c1 39 30 00
	00		 add	 ecx, 12345		; 00003039H

; 22   : 	return  xRand() % num;

  0034f	f7 e1		 mul	 ecx

; 16   : 	g_next = g_next * 1103515245 + 12345;// + nRandomSeed[ i++ ];

  00351	89 0d 00 00 00
	00		 mov	 DWORD PTR ?g_next@@3KA, ecx ; g_next

; 22   : 	return  xRand() % num;

  00357	c1 ea 0d	 shr	 edx, 13			; 0000000dH
  0035a	69 c2 10 27 00
	00		 imul	 eax, edx, 10000
  00360	2b c8		 sub	 ecx, eax
; File C:\IAGOS\server\v18\Source\Source\WorldServer\AttackArbiter.cpp

; 727  : 				if( (int)( xRandom( 10000 ) ) < pRuneProp->dwHitActiveSkillProb )

  00362	3b 8e bc 02 00
	00		 cmp	 ecx, DWORD PTR [esi+700]
  00368	73 35		 jae	 SHORT $LN6@ProcessAbn

; 728  : 				{
; 729  : 					if( pRuneProp->dwHitActiveSkillTarget == IST_ANOTHER )

  0036a	8b 86 c0 02 00
	00		 mov	 eax, DWORD PTR [esi+704]
  00370	83 f8 02	 cmp	 eax, 2
  00373	75 0c		 jne	 SHORT $LN42@ProcessAbn

; 730  : 						m_pAttacker->DoActiveSkill( pRuneProp->dwHitActiveSkillId, pRuneProp->dwHitActiveSkillLv, m_pDefender );

  00375	8b 4b 08	 mov	 ecx, DWORD PTR [ebx+8]
  00378	6a 00		 push	 0
  0037a	6a 00		 push	 0
  0037c	ff 73 0c	 push	 DWORD PTR [ebx+12]
  0037f	eb 0d		 jmp	 SHORT $LN126@ProcessAbn
$LN42@ProcessAbn:

; 731  : 					else
; 732  : 					if( pRuneProp->dwHitActiveSkillTarget == IST_SELF )

  00381	83 f8 01	 cmp	 eax, 1
  00384	75 19		 jne	 SHORT $LN6@ProcessAbn

; 733  : 						m_pAttacker->DoActiveSkill( pRuneProp->dwHitActiveSkillId, pRuneProp->dwHitActiveSkillLv, m_pAttacker );

  00386	8b 4b 08	 mov	 ecx, DWORD PTR [ebx+8]
  00389	6a 00		 push	 0
  0038b	6a 00		 push	 0
  0038d	51		 push	 ecx
$LN126@ProcessAbn:

; 719  : 		for( int i = 0; i < pItemElem->GetPiercingSize(); i++ )

  0038e	ff b6 b8 02 00
	00		 push	 DWORD PTR [esi+696]
  00394	ff b6 b4 02 00
	00		 push	 DWORD PTR [esi+692]
  0039a	e8 00 00 00 00	 call	 ?DoActiveSkill@CCtrl@@QAEXKHPAV1@_NH@Z ; CCtrl::DoActiveSkill
$LN6@ProcessAbn:
; File C:\IAGOS\server\v18\Source\Source\_Common\Item.h

; 103  : 	int		GetPiercingSize()	{	return m_piercing.GetPiercingSize();		}

  0039f	8b 4d 0c	 mov	 ecx, DWORD PTR _pItemElem$1$[ebp]
; File C:\IAGOS\server\v18\Source\Source\WorldServer\AttackArbiter.cpp

; 719  : 		for( int i = 0; i < pItemElem->GetPiercingSize(); i++ )

  003a2	47		 inc	 edi
; File C:\IAGOS\server\v18\Source\Source\_Common\Item.h

; 103  : 	int		GetPiercingSize()	{	return m_piercing.GetPiercingSize();		}

  003a3	8d 49 3c	 lea	 ecx, DWORD PTR [ecx+60]
  003a6	e8 00 00 00 00	 call	 ?GetPiercingSize@CPiercing@@QAEHXZ ; CPiercing::GetPiercingSize
; File C:\IAGOS\server\v18\Source\Source\WorldServer\AttackArbiter.cpp

; 719  : 		for( int i = 0; i < pItemElem->GetPiercingSize(); i++ )

  003ab	3b f8		 cmp	 edi, eax
  003ad	0f 8c 3d ff ff
	ff		 jl	 $LL8@ProcessAbn

; 739  : }

  003b3	5f		 pop	 edi
  003b4	5e		 pop	 esi
  003b5	5b		 pop	 ebx
  003b6	8b e5		 mov	 esp, ebp
  003b8	5d		 pop	 ebp
  003b9	c2 08 00	 ret	 8
$LN67@ProcessAbn:
; File C:\IAGOS\server\v18\Source\Source\_Common\Project.h

; 579  : 	LPCTSTR szErr = Error( _T( "%s min:%d, max:%d, index:%d" ), szMsg, nMin, nMax, nIndex ); 

  003bc	51		 push	 ecx
  003bd	50		 push	 eax
  003be	6a 00		 push	 0
  003c0	68 00 00 00 00	 push	 OFFSET ??_C@_0BI@BEIFNGEL@GetItemProp?5range_error@
  003c5	68 00 00 00 00	 push	 OFFSET ??_C@_0BM@HMFGHCP@?$CFs?5min?3?$CFd?0?5max?3?$CFd?0?5index?3?$CFd@
  003ca	e8 00 00 00 00	 call	 ?Error@@YAPBDPBDZZ	; Error
  003cf	83 c4 14	 add	 esp, 20			; 00000014H
$LN83@ProcessAbn:
  003d2	5f		 pop	 edi
; File C:\IAGOS\server\v18\Source\Source\WorldServer\AttackArbiter.cpp

; 739  : }

  003d3	5e		 pop	 esi
  003d4	5b		 pop	 ebx
  003d5	8b e5		 mov	 esp, ebp
  003d7	5d		 pop	 ebp
  003d8	c2 08 00	 ret	 8
?ProcessAbnormal@CAttackArbiter@@AAEXHPAUATTACK_INFO@@@Z ENDP ; CAttackArbiter::ProcessAbnormal
_TEXT	ENDS
; Function compile flags: /Ogtp
; File C:\IAGOS\server\v18\Source\Source\WorldServer\AttackArbiter.cpp
; File C:\IAGOS\server\v18\Source\Source\_Common\xUtil.h
; File C:\IAGOS\server\v18\Source\Source\WorldServer\AttackArbiter.cpp
;	COMDAT ?ChanceSkill@CAttackArbiter@@AAEXHPAVCCtrl@@0@Z
_TEXT	SEGMENT
_nDestParam$ = 8					; size = 4
_pAttackCtrl$ = 12					; size = 4
_pDefendCtrl$ = 16					; size = 4
?ChanceSkill@CAttackArbiter@@AAEXHPAVCCtrl@@0@Z PROC	; CAttackArbiter::ChanceSkill, COMDAT
; _this$ = ecx

; 561  : {

  00000	55		 push	 ebp
  00001	8b ec		 mov	 ebp, esp

; 562  : #ifdef _DEBUG
; 563  : 	if( nDestParam == DST_CHR_CHANCESTEALHP )
; 564  : 	{
; 565  : 		int a = 0;
; 566  : 	}
; 567  : #endif
; 568  : 	if( m_pAttacker->GetType() != OT_MOVER )	return;

  00003	8b 41 08	 mov	 eax, DWORD PTR [ecx+8]
  00006	83 b8 70 01 00
	00 05		 cmp	 DWORD PTR [eax+368], 5
  0000d	75 79		 jne	 SHORT $LN6@ChanceSkil

; 569  : 	if( m_pDefender->GetType() != OT_MOVER )	return;

  0000f	8b 41 0c	 mov	 eax, DWORD PTR [ecx+12]
  00012	83 b8 70 01 00
	00 05		 cmp	 DWORD PTR [eax+368], 5
  00019	75 6d		 jne	 SHORT $LN6@ChanceSkil

; 570  : 	
; 571  : 	CMover *pAttacker = (CMover *)pAttackCtrl;
; 572  : 	CMover *pDefender = (CMover *)pDefendCtrl;
; 573  : 
; 574  : 	int nRate = pAttacker->GetAdjParam( nDestParam );

  0001b	53		 push	 ebx
  0001c	56		 push	 esi
  0001d	ff 75 08	 push	 DWORD PTR _nDestParam$[ebp]
  00020	8b 75 0c	 mov	 esi, DWORD PTR _pAttackCtrl$[ebp]
  00023	8b ce		 mov	 ecx, esi
  00025	e8 00 00 00 00	 call	 ?GetAdjParam@CMover@@QAEHH@Z ; CMover::GetAdjParam
  0002a	8b d8		 mov	 ebx, eax

; 575  : 	if( nRate > 0 )	// °ř°ÝŔÚ°ˇ ˝şĹłąßµż»óĹÂ

  0002c	85 db		 test	 ebx, ebx
  0002e	7e 56		 jle	 SHORT $LN17@ChanceSkil
; File C:\IAGOS\server\v18\Source\Source\_Common\xUtil.h

; 16   : 	g_next = g_next * 1103515245 + 12345;// + nRandomSeed[ i++ ];

  00030	69 0d 00 00 00
	00 6d 4e c6 41	 imul	 ecx, DWORD PTR ?g_next@@3KA, 1103515245 ; g_next

; 22   : 	return  xRand() % num;

  0003a	b8 1f 85 eb 51	 mov	 eax, 1374389535		; 51eb851fH

; 16   : 	g_next = g_next * 1103515245 + 12345;// + nRandomSeed[ i++ ];

  0003f	81 c1 39 30 00
	00		 add	 ecx, 12345		; 00003039H

; 22   : 	return  xRand() % num;

  00045	f7 e1		 mul	 ecx

; 16   : 	g_next = g_next * 1103515245 + 12345;// + nRandomSeed[ i++ ];

  00047	89 0d 00 00 00
	00		 mov	 DWORD PTR ?g_next@@3KA, ecx ; g_next

; 22   : 	return  xRand() % num;

  0004d	c1 ea 05	 shr	 edx, 5
  00050	6b c2 64	 imul	 eax, edx, 100
  00053	2b c8		 sub	 ecx, eax
; File C:\IAGOS\server\v18\Source\Source\WorldServer\AttackArbiter.cpp

; 577  : 		if( (int)( xRandom(100) ) <= nRate )

  00055	3b cb		 cmp	 ecx, ebx
  00057	7f 2d		 jg	 SHORT $LN17@ChanceSkil

; 578  : 		{
; 579  : 			DWORD dwAddSkill = pAttacker->GetChgParam( nDestParam );		// Ĺ¸°Ý˝Ă ąßµżµÉ ľÖµĺ˝şĹł

  00059	ff 75 08	 push	 DWORD PTR _nDestParam$[ebp]
  0005c	8b ce		 mov	 ecx, esi
  0005e	e8 00 00 00 00	 call	 ?GetChgParam@CMover@@QAEHH@Z ; CMover::GetChgParam

; 580  : 			
; 581  : 			AddSkillProp *pAddSkillProp;
; 582  : 			pAddSkillProp = prj.GetAddSkillProp( dwAddSkill );

  00063	50		 push	 eax
  00064	b9 00 00 00 00	 mov	 ecx, OFFSET ?prj@@3VCProject@@A ; prj
  00069	e8 00 00 00 00	 call	 ?GetAddSkillProp@CProject@@QAEPAUAddSkillProp@@K@Z ; CProject::GetAddSkillProp

; 583  : 			if( pAddSkillProp )

  0006e	85 c0		 test	 eax, eax
  00070	74 14		 je	 SHORT $LN17@ChanceSkil

; 584  : 				pAttacker->DoActiveSkill( pAddSkillProp->dwName, pAddSkillProp->dwSkillLvl, pDefender );		// dwActiveSkill Lv1ŔĚ ąßµżµĘ.

  00072	6a 00		 push	 0
  00074	6a 00		 push	 0
  00076	ff 75 10	 push	 DWORD PTR _pDefendCtrl$[ebp]
  00079	8b ce		 mov	 ecx, esi
  0007b	ff 70 08	 push	 DWORD PTR [eax+8]
  0007e	ff 70 04	 push	 DWORD PTR [eax+4]
  00081	e8 00 00 00 00	 call	 ?DoActiveSkill@CCtrl@@QAEXKHPAV1@_NH@Z ; CCtrl::DoActiveSkill
$LN17@ChanceSkil:
  00086	5e		 pop	 esi
  00087	5b		 pop	 ebx
$LN6@ChanceSkil:

; 585  : 			//				m_pDefender->SetPoison( TRUE, m_pAttacker->GetId(), m_pAttacker->GetChgParam( DST_CHR_CHANCEPOISON ), m_pAttacker->m_tmPoisonUnit, m_pAttacker->m_wPoisonDamage );
; 586  : 		}
; 587  : 		
; 588  : 	}
; 589  : }

  00088	5d		 pop	 ebp
  00089	c2 0c 00	 ret	 12			; 0000000cH
?ChanceSkill@CAttackArbiter@@AAEXHPAVCCtrl@@0@Z ENDP	; CAttackArbiter::ChanceSkill
_TEXT	ENDS
; Function compile flags: /Ogtp
; File C:\IAGOS\server\v18\Source\Source\WorldServer\AttackArbiter.cpp
;	COMDAT ?CalcDamage@CAttackArbiter@@AAEHPAUATTACK_INFO@@@Z
_TEXT	SEGMENT
_pInfo$ = 8						; size = 4
?CalcDamage@CAttackArbiter@@AAEHPAUATTACK_INFO@@@Z PROC	; CAttackArbiter::CalcDamage, COMDAT
; _this$ = ecx

; 353  : {

  00000	55		 push	 ebp
  00001	8b ec		 mov	 ebp, esp
  00003	57		 push	 edi
  00004	8b f9		 mov	 edi, ecx

; 354  : 	if( m_pAttacker->m_dwMode & ONEKILL_MODE )	// żřĹł ¸đµĺ

  00006	8b 47 08	 mov	 eax, DWORD PTR [edi+8]
  00009	f6 80 40 02 00
	00 04		 test	 BYTE PTR [eax+576], 4
  00010	74 0d		 je	 SHORT $LN2@CalcDamage

; 355  : 		return m_pDefender->GetHitPoint();	

  00012	8b 4f 0c	 mov	 ecx, DWORD PTR [edi+12]
  00015	e8 00 00 00 00	 call	 ?GetHitPoint@CMover@@QAEHXZ ; CMover::GetHitPoint
  0001a	5f		 pop	 edi

; 361  : }

  0001b	5d		 pop	 ebp
  0001c	c2 04 00	 ret	 4
$LN2@CalcDamage:
  0001f	56		 push	 esi

; 356  : 
; 357  : 	int nDamage = PostCalcDamage( CalcATK( pInfo ), pInfo );

  00020	8b 75 08	 mov	 esi, DWORD PTR _pInfo$[ebp]
  00023	56		 push	 esi
  00024	56		 push	 esi
  00025	e8 00 00 00 00	 call	 ?CalcATK@CAttackArbiter@@AAEHPAUATTACK_INFO@@@Z ; CAttackArbiter::CalcATK
  0002a	50		 push	 eax
  0002b	8b cf		 mov	 ecx, edi
  0002d	e8 00 00 00 00	 call	 ?PostCalcDamage@CAttackArbiter@@AAEHHPAUATTACK_INFO@@@Z ; CAttackArbiter::PostCalcDamage

; 358  : 	m_dwAtkFlags = pInfo->dwAtkFlags;

  00032	8b 4e 08	 mov	 ecx, DWORD PTR [esi+8]

; 359  : 
; 360  : 	return nDamage;

  00035	5e		 pop	 esi
  00036	89 4f 10	 mov	 DWORD PTR [edi+16], ecx
  00039	5f		 pop	 edi

; 361  : }

  0003a	5d		 pop	 ebp
  0003b	c2 04 00	 ret	 4
?CalcDamage@CAttackArbiter@@AAEHPAUATTACK_INFO@@@Z ENDP	; CAttackArbiter::CalcDamage
_TEXT	ENDS
; Function compile flags: /Ogtp
; File C:\IAGOS\server\v18\Source\Source\WorldServer\AttackArbiter.cpp
; File C:\IAGOS\server\v18\Source\Source\_Common\Mover.h
; File C:\IAGOS\server\v18\Source\Source\_Common\Project.h
; File C:\IAGOS\server\v18\Source\Source\WorldServer\AttackArbiter.cpp
; File C:\IAGOS\server\v18\Source\Source\_Common\Project.h
; File C:\IAGOS\server\v18\Source\Source\WorldServer\AttackArbiter.cpp
;	COMDAT ?CheckValidDamageMsg@CAttackArbiter@@AAEHXZ
_TEXT	SEGMENT
?CheckValidDamageMsg@CAttackArbiter@@AAEHXZ PROC	; CAttackArbiter::CheckValidDamageMsg, COMDAT
; _this$ = ecx

; 266  : {

  00000	57		 push	 edi
  00001	8b f9		 mov	 edi, ecx

; 267  : #ifdef __EVENT_MONSTER
; 268  : 	// ŔĚşĄĆ® ¸ó˝şĹÍŔĚ°í ·ąş§ŔĚ 15łŃ°Ô Â÷ŔĚłŞ¸é MISS
; 269  : 	if( m_pAttacker->IsPlayer() && !m_pDefender->IsPlayer() )

  00003	8b 47 08	 mov	 eax, DWORD PTR [edi+8]
  00006	83 b8 30 02 00
	00 00		 cmp	 DWORD PTR [eax+560], 0
  0000d	0f 84 83 00 00
	00		 je	 $LN4@CheckValid
  00013	8b 47 0c	 mov	 eax, DWORD PTR [edi+12]
  00016	83 b8 30 02 00
	00 00		 cmp	 DWORD PTR [eax+560], 0
  0001d	75 77		 jne	 SHORT $LN4@CheckValid
; File C:\IAGOS\server\v18\Source\Source\_Common\Mover.h

; 1020 : 	MoverProp*		GetProp() { return prj.GetMoverProp( m_dwIndex ); }	// °´ĂĽŔÇ ÇÁ·ÎĆŰĆĽ ľň±â 	

  0001f	8b 80 74 01 00
	00		 mov	 eax, DWORD PTR [eax+372]
; File C:\IAGOS\server\v18\Source\Source\_Common\Project.h

; 1406 : 	VERIFY_RANGE( nIndex, 0, m_nMoverPropSize, "GetMoverProp range_error", NULL );

  00025	8b 0d b4 01 00
	00		 mov	 ecx, DWORD PTR ?prj@@3VCProject@@A+436
  0002b	85 c0		 test	 eax, eax
  0002d	78 51		 js	 SHORT $LN19@CheckValid
  0002f	3b c1		 cmp	 eax, ecx
  00031	7d 4d		 jge	 SHORT $LN19@CheckValid

; 1407 : 	return m_pPropMover + nIndex;

  00033	69 c0 90 06 00
	00		 imul	 eax, eax, 1680
  00039	03 05 b8 01 00
	00		 add	 eax, DWORD PTR ?prj@@3VCProject@@A+440
; File C:\IAGOS\server\v18\Source\Source\WorldServer\AttackArbiter.cpp

; 272  : 		if( lpMoverProp && CEventMonster::GetInstance()->SetEventMonster( lpMoverProp->dwID ) )

  0003f	74 55		 je	 SHORT $LN4@CheckValid
  00041	ff 30		 push	 DWORD PTR [eax]
  00043	e8 00 00 00 00	 call	 ?GetInstance@CEventMonster@@SAPAV1@XZ ; CEventMonster::GetInstance
  00048	8b c8		 mov	 ecx, eax
  0004a	e8 00 00 00 00	 call	 ?SetEventMonster@CEventMonster@@QAEHK@Z ; CEventMonster::SetEventMonster
  0004f	85 c0		 test	 eax, eax
  00051	74 43		 je	 SHORT $LN4@CheckValid

; 273  : 			if( m_pAttacker->GetLevel() - m_pDefender->GetLevel() >= CEventMonster::GetInstance()->GetLevelGap() )

  00053	8b 47 08	 mov	 eax, DWORD PTR [edi+8]
  00056	8b 4f 0c	 mov	 ecx, DWORD PTR [edi+12]
  00059	56		 push	 esi
  0005a	8b b0 d8 05 00
	00		 mov	 esi, DWORD PTR [eax+1496]
  00060	2b b1 d8 05 00
	00		 sub	 esi, DWORD PTR [ecx+1496]
  00066	e8 00 00 00 00	 call	 ?GetInstance@CEventMonster@@SAPAV1@XZ ; CEventMonster::GetInstance
  0006b	8b c8		 mov	 ecx, eax
  0006d	e8 00 00 00 00	 call	 ?GetLevelGap@CEventMonster@@QAEHXZ ; CEventMonster::GetLevelGap
  00072	3b f0		 cmp	 esi, eax
  00074	5e		 pop	 esi
  00075	7c 1f		 jl	 SHORT $LN4@CheckValid

; 274  : 				m_dwAtkFlags = AF_MISS;

  00077	c7 47 10 02 00
	00 00		 mov	 DWORD PTR [edi+16], 2
  0007e	eb 16		 jmp	 SHORT $LN4@CheckValid
$LN19@CheckValid:
; File C:\IAGOS\server\v18\Source\Source\_Common\Project.h

; 579  : 	LPCTSTR szErr = Error( _T( "%s min:%d, max:%d, index:%d" ), szMsg, nMin, nMax, nIndex ); 

  00080	50		 push	 eax
  00081	51		 push	 ecx
  00082	6a 00		 push	 0
  00084	68 00 00 00 00	 push	 OFFSET ??_C@_0BJ@GKPOBPPI@GetMoverProp?5range_error@
  00089	68 00 00 00 00	 push	 OFFSET ??_C@_0BM@HMFGHCP@?$CFs?5min?3?$CFd?0?5max?3?$CFd?0?5index?3?$CFd@
  0008e	e8 00 00 00 00	 call	 ?Error@@YAPBDPBDZZ	; Error
  00093	83 c4 14	 add	 esp, 20			; 00000014H
$LN4@CheckValid:
; File C:\IAGOS\server\v18\Source\Source\WorldServer\AttackArbiter.cpp

; 279  : 	if( m_pAttacker->IsPlayer() && !CCreateMonster::GetInstance()->IsAttackAble( static_cast<CUser*>(m_pAttacker), m_pDefender, TRUE ) )

  00096	8b 47 08	 mov	 eax, DWORD PTR [edi+8]
  00099	83 b8 30 02 00
	00 00		 cmp	 DWORD PTR [eax+560], 0
  000a0	74 37		 je	 SHORT $LN5@CheckValid
  000a2	6a 01		 push	 1
  000a4	ff 77 0c	 push	 DWORD PTR [edi+12]
  000a7	50		 push	 eax
  000a8	e8 00 00 00 00	 call	 ?GetInstance@CCreateMonster@@SAPAV1@XZ ; CCreateMonster::GetInstance
  000ad	8b c8		 mov	 ecx, eax
  000af	e8 00 00 00 00	 call	 ?IsAttackAble@CCreateMonster@@QAEHPAVCUser@@PAVCMover@@H@Z ; CCreateMonster::IsAttackAble
  000b4	85 c0		 test	 eax, eax
  000b6	75 21		 jne	 SHORT $LN5@CheckValid

; 280  : 	{
; 281  : 		m_dwAtkFlags = AF_MISS;
; 282  : 		m_pDefender->m_idAttacker = NULL_ID;

  000b8	8b 47 0c	 mov	 eax, DWORD PTR [edi+12]
  000bb	c7 47 10 02 00
	00 00		 mov	 DWORD PTR [edi+16], 2
  000c2	c7 80 94 06 00
	00 ff ff ff ff	 mov	 DWORD PTR [eax+1684], -1

; 283  : 		m_pDefender->m_idTargeter = NULL_ID;

  000cc	8b 47 0c	 mov	 eax, DWORD PTR [edi+12]
  000cf	c7 80 98 06 00
	00 ff ff ff ff	 mov	 DWORD PTR [eax+1688], -1
$LN5@CheckValid:

; 284  : 	}
; 285  : #endif // __NEW_ITEMCREATEMON_SERVER
; 286  : 
; 287  : 	if( m_dwAtkFlags & AF_MISS ) 

  000d9	8b 4f 10	 mov	 ecx, DWORD PTR [edi+16]
  000dc	f6 c1 02	 test	 cl, 2
  000df	74 27		 je	 SHORT $LN6@CheckValid

; 288  : 	{
; 289  : 		g_UserMng.AddDamage( m_pDefender, GETID( m_pAttacker ), 0, m_dwAtkFlags );

  000e1	8b 47 08	 mov	 eax, DWORD PTR [edi+8]
  000e4	85 c0		 test	 eax, eax
  000e6	74 08		 je	 SHORT $LN10@CheckValid
  000e8	8b 80 bc 01 00
	00		 mov	 eax, DWORD PTR [eax+444]
  000ee	eb 03		 jmp	 SHORT $LN11@CheckValid
$LN10@CheckValid:
  000f0	83 c8 ff	 or	 eax, -1
$LN11@CheckValid:
  000f3	51		 push	 ecx
  000f4	6a 00		 push	 0
  000f6	50		 push	 eax
  000f7	ff 77 0c	 push	 DWORD PTR [edi+12]
  000fa	b9 00 00 00 00	 mov	 ecx, OFFSET ?g_UserMng@@3VCUserMng@@A ; g_UserMng
  000ff	e8 00 00 00 00	 call	 ?AddDamage@CUserMng@@QAEXPAVCMover@@KKK@Z ; CUserMng::AddDamage

; 290  : 		return FALSE;

  00104	33 c0		 xor	 eax, eax
  00106	5f		 pop	 edi

; 302  : }

  00107	c3		 ret	 0
$LN6@CheckValid:

; 291  : 	}
; 292  : 
; 293  : 	// ¸Â´Â˝ĂÁˇżˇµµ ˝şĆżĂĽĹ©¸¦ ÇŘľßÇŃ´Ů.
; 294  : 	// µż˝Ăżˇ ˝şĹłŔ» ˝čŔ»¶§ ąßµżÇĎ´Â˝ĂÁˇżˇ ˝şĹłŔ» »çżëÇĎ±â¶«żˇ µŃ´Ů ˝şĆż»óĹÂ°ˇ ľĆ´ŃĂ¤·Î µéľîżŔ±â ¶§ą®ŔĚ´Ů.
; 295  : 	// ąßµżÇĎ´Â ˝ĂÁˇżˇµµ żŞ˝Ă ˝şĆżĂĽĹ©¸¦ ÇŘľßÇĎ´Â°ÍŔş ł»¸÷Ŕ» µýłđŔĚ °ř°ÝÇĎ´Â ¸đĽÇŔĚ ľĆżą łŞżŔÁö ľĘ±â Ŕ§ÇŘĽ­ ąĚ¸® ĂĽĹ© ÇŘľßÇĎ±â¶§ą®.
; 296  : 	if( !g_eLocal.GetState( EVE_STEAL ) )

  00108	6a 0d		 push	 13			; 0000000dH
  0010a	b9 00 00 00 00	 mov	 ecx, OFFSET ?g_eLocal@@3VCFlyffEvent@@A ; g_eLocal
  0010f	e8 00 00 00 00	 call	 ?GetState@CFlyffEvent@@QAEEH@Z ; CFlyffEvent::GetState
  00114	84 c0		 test	 al, al
  00116	75 12		 jne	 SHORT $LN8@CheckValid

; 297  : 	{
; 298  : 		if( m_pAttacker->IsSteal( m_pDefender ) )	// m_pAttacker°ˇ ˝şĆżÇĎ·Á ÇĎ´Â°ˇ?

  00118	ff 77 0c	 push	 DWORD PTR [edi+12]
  0011b	8b 4f 08	 mov	 ecx, DWORD PTR [edi+8]
  0011e	e8 00 00 00 00	 call	 ?IsSteal@CMover@@QAEHPAV1@@Z ; CMover::IsSteal
  00123	f7 d8		 neg	 eax
  00125	5f		 pop	 edi
  00126	1b c0		 sbb	 eax, eax
  00128	40		 inc	 eax

; 302  : }

  00129	c3		 ret	 0
$LN8@CheckValid:

; 299  : 			return FALSE;					
; 300  : 	}
; 301  : 	return TRUE;

  0012a	b8 01 00 00 00	 mov	 eax, 1
  0012f	5f		 pop	 edi

; 302  : }

  00130	c3		 ret	 0
?CheckValidDamageMsg@CAttackArbiter@@AAEHXZ ENDP	; CAttackArbiter::CheckValidDamageMsg
_TEXT	ENDS
; Function compile flags: /Ogtp
; File C:\IAGOS\server\v18\Source\Source\WorldServer\AttackArbiter.cpp
; File C:\IAGOS\server\v18\Source\Source\_Common\Mover.h
; File C:\IAGOS\server\v18\Source\Source\WorldServer\AttackArbiter.cpp
; File C:\IAGOS\server\v18\Source\Source\_Common\Mover.h
; File C:\IAGOS\server\v18\Source\Source\WorldServer\AttackArbiter.cpp
; File C:\Program Files\Microsoft Visual Studio\2022\Professional\VC\Tools\MSVC\14.44.35207\include\xtree
; File C:\IAGOS\server\v18\Source\Source\WorldServer\AttackArbiter.cpp
; File C:\Program Files\Microsoft Visual Studio\2022\Professional\VC\Tools\MSVC\14.44.35207\include\xtree
; File C:\Program Files\Microsoft Visual Studio\2022\Professional\VC\Tools\MSVC\14.44.35207\include\type_traits
; File C:\Program Files\Microsoft Visual Studio\2022\Professional\VC\Tools\MSVC\14.44.35207\include\xtree
; File C:\Program Files\Microsoft Visual Studio\2022\Professional\VC\Tools\MSVC\14.44.35207\include\type_traits
; File C:\Program Files\Microsoft Visual Studio\2022\Professional\VC\Tools\MSVC\14.44.35207\include\xtree
; File C:\IAGOS\server\v18\Source\Source\WorldServer\AttackArbiter.cpp
; File C:\IAGOS\server\v18\Source\Source\_Common\Mover.h
; File C:\IAGOS\server\v18\Source\Source\WorldServer\AttackArbiter.cpp
; File C:\IAGOS\server\v18\Source\Source\_AIInterface\Action.h
; File C:\IAGOS\server\v18\Source\Source\WorldServer\AttackArbiter.cpp
; File C:\IAGOS\server\v18\Source\Source\_AIInterface\ActionMover.h
; File C:\IAGOS\server\v18\Source\Source\WorldServer\AttackArbiter.cpp
; File C:\IAGOS\server\v18\Source\Source\_AIInterface\ActionMover.h
; File C:\IAGOS\server\v18\Source\Source\WorldServer\AttackArbiter.cpp
;	COMDAT ?OnDamageMsgW@CAttackArbiter@@QAEHXZ
_TEXT	SEGMENT
_info$ = -28						; size = 24
_nDamage$ = -4						; size = 4
_nDamage$2$ = -4					; size = 4
_nActionHPRate$1$ = -4					; size = 4
_fAddHP$1$ = -4						; size = 4
?OnDamageMsgW@CAttackArbiter@@QAEHXZ PROC		; CAttackArbiter::OnDamageMsgW, COMDAT
; _this$ = ecx

; 126  : {

  00000	55		 push	 ebp
  00001	8b ec		 mov	 ebp, esp
  00003	83 ec 1c	 sub	 esp, 28			; 0000001cH
  00006	53		 push	 ebx
  00007	56		 push	 esi
  00008	57		 push	 edi
  00009	8b f1		 mov	 esi, ecx

; 127  : 	if( !CheckValidDamageMsg() )

  0000b	e8 00 00 00 00	 call	 ?CheckValidDamageMsg@CAttackArbiter@@AAEHXZ ; CAttackArbiter::CheckValidDamageMsg
  00010	85 c0		 test	 eax, eax
  00012	0f 84 1e 03 00
	00		 je	 $LN96@OnDamageMs

; 128  : 	{
; 129  : /*	şŇÇĘżäÇŃ ÄÚµĺ
; 130  : #if __VER >= 8 // __S8_PK
; 131  : 		if( m_pAttacker->IsPlayer() && m_pDefender->IsPlayer() )
; 132  : 		{
; 133  : 			HITTYPE type = m_pAttacker->GetHitType( m_pDefender, m_bTarget, m_nReflect );
; 134  : 			if( type == HITTYPE_PK )
; 135  : 			{
; 136  : 				if( m_nReflect )
; 137  : 					return 0;
; 138  : 				
; 139  : 				if( m_pAttacker->IsChaotic() || m_pDefender->IsChaotic() )
; 140  : 					return 0;
; 141  : #ifdef __JEFF_11_4
; 142  : 				CWorld* pWorld	= m_pDefender->GetWorld();
; 143  : 				if( pWorld && pWorld->IsArena() )
; 144  : 					return 0;
; 145  : #endif	// __JEFF_11_4
; 146  : 
; 147  : 				if( m_pDefender->IsPKPink() )
; 148  : 					m_pAttacker->SetPKPink( GetTickCount() + SEC(prj.m_PKSetting.nReadyAttack) );
; 149  : 				else
; 150  : 					m_pAttacker->SetPKPink( GetTickCount() + SEC(prj.m_PKSetting.nGeneralAttack) );
; 151  : 				g_UserMng.AddPKPink( m_pAttacker, 1 );
; 152  : 			}
; 153  : 		}
; 154  : #endif // __VER >= 8 __S8_PK
; 155  : */
; 156  : 		return 0;
; 157  : 	}
; 158  : 	ATTACK_INFO info;
; 159  : 	info.dwAtkFlags = m_dwAtkFlags;

  00018	8b 46 10	 mov	 eax, DWORD PTR [esi+16]

; 160  : 	info.pAttacker  = m_pAttacker;
; 161  : 	info.pDefender  = m_pDefender;
; 162  : 	info.nParam     = m_nParam;
; 163  : 	info.nParts     = PARTS_RWEAPON;
; 164  : 
; 165  : 	int nDamage = 0;
; 166  : 	BYTE cbHandFlag	= GetHandFlag();

  0001b	8b ce		 mov	 ecx, esi
  0001d	89 45 ec	 mov	 DWORD PTR _info$[ebp+8], eax
  00020	8b 46 08	 mov	 eax, DWORD PTR [esi+8]
  00023	89 45 e4	 mov	 DWORD PTR _info$[ebp], eax
  00026	8b 46 0c	 mov	 eax, DWORD PTR [esi+12]
  00029	89 45 e8	 mov	 DWORD PTR _info$[ebp+4], eax
  0002c	8b 46 14	 mov	 eax, DWORD PTR [esi+20]
  0002f	89 45 f0	 mov	 DWORD PTR _info$[ebp+12], eax
  00032	33 c0		 xor	 eax, eax
  00034	c7 45 f4 0a 00
	00 00		 mov	 DWORD PTR _info$[ebp+16], 10 ; 0000000aH
  0003b	89 45 fc	 mov	 DWORD PTR _nDamage$2$[ebp], eax
  0003e	e8 00 00 00 00	 call	 ?GetHandFlag@CAttackArbiter@@AAEEXZ ; CAttackArbiter::GetHandFlag

; 167  : 	for( BYTE cbFlag = 0x01; cbFlag <= 0x02; ++cbFlag )	

  00043	8b 3d 20 97 0d
	00		 mov	 edi, DWORD PTR ?prj@@3VCProject@@A+890656
  00049	8a f8		 mov	 bh, al
  0004b	b3 01		 mov	 bl, 1
  0004d	0f 1f 00	 npad	 3
$LL4@OnDamageMs:

; 168  : 	{
; 169  : 		if( cbHandFlag & cbFlag )

  00050	84 df		 test	 bl, bh
  00052	0f 84 a4 00 00
	00		 je	 $LN2@OnDamageMs
; File C:\IAGOS\server\v18\Source\Source\_Common\Mover.h

; 1015 : 	BOOL			IsNPC()				{ return !m_bPlayer; }

  00058	8b 56 0c	 mov	 edx, DWORD PTR [esi+12]
; File C:\IAGOS\server\v18\Source\Source\WorldServer\AttackArbiter.cpp

; 171  : 			info.nParts = (cbFlag & 0x01) ? PARTS_RWEAPON : PARTS_LWEAPON;

  0005b	0f b6 cb	 movzx	 ecx, bl
  0005e	83 e1 01	 and	 ecx, 1
  00061	83 c1 09	 add	 ecx, 9
  00064	89 4d f4	 mov	 DWORD PTR _info$[ebp+16], ecx
; File C:\IAGOS\server\v18\Source\Source\_Common\Mover.h

; 1015 : 	BOOL			IsNPC()				{ return !m_bPlayer; }

  00067	83 ba 30 02 00
	00 00		 cmp	 DWORD PTR [edx+560], 0
; File C:\IAGOS\server\v18\Source\Source\WorldServer\AttackArbiter.cpp

; 173  : 			if( m_pDefender->IsNPC() && prj.m_EventLua.IsEventSpawnMonster( m_pDefender->GetIndex() ) && !m_pAttacker->IsMode( ONEKILL_MODE ) )

  0006e	75 55		 jne	 SHORT $LN7@OnDamageMs
; File C:\Program Files\Microsoft Visual Studio\2022\Professional\VC\Tools\MSVC\14.44.35207\include\xtree

; 1630 :         _Tree_find_result<_Nodeptr> _Result{{_Scary->_Myhead->_Parent, _Tree_child::_Right}, _Scary->_Myhead};

  00070	8b 47 04	 mov	 eax, DWORD PTR [edi+4]
  00073	8b cf		 mov	 ecx, edi
; File C:\IAGOS\server\v18\Source\Source\WorldServer\AttackArbiter.cpp

; 173  : 			if( m_pDefender->IsNPC() && prj.m_EventLua.IsEventSpawnMonster( m_pDefender->GetIndex() ) && !m_pAttacker->IsMode( ONEKILL_MODE ) )

  00075	8b 92 74 01 00
	00		 mov	 edx, DWORD PTR [edx+372]
; File C:\Program Files\Microsoft Visual Studio\2022\Professional\VC\Tools\MSVC\14.44.35207\include\xtree

; 1632 :         while (!_Trynode->_Isnil) {

  0007b	80 78 0d 00	 cmp	 BYTE PTR [eax+13], 0
  0007f	75 14		 jne	 SHORT $LN43@OnDamageMs
$LL42@OnDamageMs:
; File C:\Program Files\Microsoft Visual Studio\2022\Professional\VC\Tools\MSVC\14.44.35207\include\type_traits

; 2380 :         return _Left < _Right;

  00081	39 50 10	 cmp	 DWORD PTR [eax+16], edx
; File C:\Program Files\Microsoft Visual Studio\2022\Professional\VC\Tools\MSVC\14.44.35207\include\xtree

; 1634 :             if (_DEBUG_LT_PRED(_Getcomp(), _Traits::_Kfn(_Trynode->_Myval), _Keyval)) {

  00084	73 05		 jae	 SHORT $LN44@OnDamageMs

; 1635 :                 _Result._Location._Child = _Tree_child::_Right;
; 1636 :                 _Trynode                 = _Trynode->_Right;

  00086	8b 40 08	 mov	 eax, DWORD PTR [eax+8]

; 1637 :             } else {

  00089	eb 04		 jmp	 SHORT $LN45@OnDamageMs
$LN44@OnDamageMs:

; 1638 :                 _Result._Location._Child = _Tree_child::_Left;
; 1639 :                 _Result._Bound           = _Trynode;

  0008b	8b c8		 mov	 ecx, eax

; 1640 :                 _Trynode                 = _Trynode->_Left;

  0008d	8b 00		 mov	 eax, DWORD PTR [eax]
$LN45@OnDamageMs:

; 1632 :         while (!_Trynode->_Isnil) {

  0008f	80 78 0d 00	 cmp	 BYTE PTR [eax+13], 0
  00093	74 ec		 je	 SHORT $LL42@OnDamageMs
$LN43@OnDamageMs:

; 1624 :         return !_Bound->_Isnil && !_DEBUG_LT_PRED(_Getcomp(), _Keyval, _Traits::_Kfn(_Bound->_Myval));

  00095	80 79 0d 00	 cmp	 BYTE PTR [ecx+13], 0
  00099	75 05		 jne	 SHORT $LN39@OnDamageMs
; File C:\Program Files\Microsoft Visual Studio\2022\Professional\VC\Tools\MSVC\14.44.35207\include\type_traits

; 2380 :         return _Left < _Right;

  0009b	3b 51 10	 cmp	 edx, DWORD PTR [ecx+16]
; File C:\Program Files\Microsoft Visual Studio\2022\Professional\VC\Tools\MSVC\14.44.35207\include\xtree

; 1624 :         return !_Bound->_Isnil && !_DEBUG_LT_PRED(_Getcomp(), _Keyval, _Traits::_Kfn(_Bound->_Myval));

  0009e	73 02		 jae	 SHORT $LN38@OnDamageMs
$LN39@OnDamageMs:

; 1389 :         return _Get_scary()->_Myhead;

  000a0	8b cf		 mov	 ecx, edi
$LN38@OnDamageMs:

; 232  :         return this->_Ptr == _Right._Ptr;

  000a2	3b cf		 cmp	 ecx, edi
; File C:\IAGOS\server\v18\Source\Source\WorldServer\AttackArbiter.cpp

; 173  : 			if( m_pDefender->IsNPC() && prj.m_EventLua.IsEventSpawnMonster( m_pDefender->GetIndex() ) && !m_pAttacker->IsMode( ONEKILL_MODE ) )

  000a4	74 1f		 je	 SHORT $LN7@OnDamageMs
  000a6	8b 46 08	 mov	 eax, DWORD PTR [esi+8]
; File C:\IAGOS\server\v18\Source\Source\_Common\Mover.h

; 1734 : 			if( m_dwAuthorization == AUTH_GENERAL )

  000a9	83 b8 40 06 00
	00 46		 cmp	 DWORD PTR [eax+1600], 70 ; 00000046H
  000b0	74 09		 je	 SHORT $LN95@OnDamageMs
; File C:\IAGOS\server\v18\Source\Source\WorldServer\AttackArbiter.cpp

; 173  : 			if( m_pDefender->IsNPC() && prj.m_EventLua.IsEventSpawnMonster( m_pDefender->GetIndex() ) && !m_pAttacker->IsMode( ONEKILL_MODE ) )

  000b2	f6 80 40 02 00
	00 04		 test	 BYTE PTR [eax+576], 4
  000b9	75 0a		 jne	 SHORT $LN7@OnDamageMs
$LN95@OnDamageMs:

; 174  : 			{
; 175  : 				nDamage = 1;

  000bb	b8 01 00 00 00	 mov	 eax, 1
  000c0	89 45 fc	 mov	 DWORD PTR _nDamage$2$[ebp], eax

; 176  : 				continue;

  000c3	eb 37		 jmp	 SHORT $LN2@OnDamageMs
$LN7@OnDamageMs:

; 177  : 			}
; 178  : #endif // __EVENTLUA_SPAWN
; 179  : #if __VER < 11 // __REMOVE_ENDURANCE
; 180  : 			m_pDefender->Abrade( m_pAttacker, info.nParts );
; 181  : #endif // __REMOVE_ENDURANCE
; 182  : 			int n = CalcDamage( &info );					// µĄąĚÁö¸¦ ±¸ÇŃ´Ů. (m_dwAtkFlagsµµ şŻ°ćµÉ Ľö ŔÖ´Ů) 

  000c5	8d 45 e4	 lea	 eax, DWORD PTR _info$[ebp]
  000c8	8b ce		 mov	 ecx, esi
  000ca	50		 push	 eax
  000cb	e8 00 00 00 00	 call	 ?CalcDamage@CAttackArbiter@@AAEHPAUATTACK_INFO@@@Z ; CAttackArbiter::CalcDamage
  000d0	8b f8		 mov	 edi, eax

; 183  : 			if( n > 0 )

  000d2	85 ff		 test	 edi, edi
  000d4	7e 20		 jle	 SHORT $LN98@OnDamageMs

; 184  : 			{
; 185  : 				ProcessAbnormal( n, &info );				// ˝şĹĎ, ľĎČć, µ¶, ąÝ»ç »óĹÂĂł¸® 

  000d6	8d 45 e4	 lea	 eax, DWORD PTR _info$[ebp]
  000d9	8b ce		 mov	 ecx, esi
  000db	50		 push	 eax
  000dc	57		 push	 edi
  000dd	e8 00 00 00 00	 call	 ?ProcessAbnormal@CAttackArbiter@@AAEXHPAUATTACK_INFO@@@Z ; CAttackArbiter::ProcessAbnormal

; 186  : #if __VER >= 9 // __ULTIMATE
; 187  : 				StealHP( n, info.GetAtkType() );								// ČíÇ÷ 

  000e2	8d 4d e4	 lea	 ecx, DWORD PTR _info$[ebp]
  000e5	e8 00 00 00 00	 call	 ?GetAtkType@ATTACK_INFO@@QBE?AW4ATK_TYPE@@XZ ; ATTACK_INFO::GetAtkType
  000ea	50		 push	 eax
  000eb	57		 push	 edi
  000ec	8b ce		 mov	 ecx, esi
  000ee	e8 00 00 00 00	 call	 ?StealHP@CAttackArbiter@@AAEXHW4ATK_TYPE@@@Z ; CAttackArbiter::StealHP

; 188  : #else // __ULTIMATE
; 189  : 				StealHP( n );								// ČíÇ÷ 
; 190  : #endif // __ULTIMATE
; 191  : 				nDamage += n;

  000f3	01 7d fc	 add	 DWORD PTR _nDamage$2$[ebp], edi
$LN98@OnDamageMs:

; 167  : 	for( BYTE cbFlag = 0x01; cbFlag <= 0x02; ++cbFlag )	

  000f6	8b 3d 20 97 0d
	00		 mov	 edi, DWORD PTR ?prj@@3VCProject@@A+890656
$LN2@OnDamageMs:
  000fc	fe c3		 inc	 bl
  000fe	80 fb 02	 cmp	 bl, 2
  00101	0f 86 49 ff ff
	ff		 jbe	 $LL4@OnDamageMs

; 192  : 			}
; 193  : 		}
; 194  : 	}
; 195  : 
; 196  : #if __VER >= 8 // __GUILDCOMBAT_85
; 197  : 	if( m_pAttacker->IsPlayer() && m_pDefender->IsPlayer() )

  00107	8b 46 08	 mov	 eax, DWORD PTR [esi+8]
  0010a	8b 4e 0c	 mov	 ecx, DWORD PTR [esi+12]
  0010d	83 b8 30 02 00
	00 00		 cmp	 DWORD PTR [eax+560], 0
  00114	74 74		 je	 SHORT $LN100@OnDamageMs
  00116	83 b9 30 02 00
	00 00		 cmp	 DWORD PTR [ecx+560], 0
  0011d	74 6b		 je	 SHORT $LN100@OnDamageMs

; 198  : 	{
; 199  : 		nDamage -= (nDamage * m_pDefender->GetParam( DST_PVP_DMG_RATE, 0) / 100);

  0011f	6a 00		 push	 0
  00121	6a 16		 push	 22			; 00000016H
  00123	e8 00 00 00 00	 call	 ?GetParam@CMover@@QAEHHH@Z ; CMover::GetParam
  00128	8b 5d fc	 mov	 ebx, DWORD PTR _nDamage$2$[ebp]
  0012b	8b c8		 mov	 ecx, eax

; 200  : #if __VER >= 9 // __CHAO_DMGDEC
; 201  : 		if( !m_pAttacker->IsGuildCombatTarget( m_pDefender ) )

  0012d	ff 76 0c	 push	 DWORD PTR [esi+12]
  00130	0f af cb	 imul	 ecx, ebx
  00133	b8 1f 85 eb 51	 mov	 eax, 1374389535		; 51eb851fH
  00138	f7 e9		 imul	 ecx
  0013a	8b 4e 08	 mov	 ecx, DWORD PTR [esi+8]
  0013d	c1 fa 05	 sar	 edx, 5
  00140	8b c2		 mov	 eax, edx
  00142	c1 e8 1f	 shr	 eax, 31			; 0000001fH
  00145	03 c2		 add	 eax, edx
  00147	2b d8		 sub	 ebx, eax
  00149	e8 00 00 00 00	 call	 ?IsGuildCombatTarget@CMover@@QAEHPAV1@@Z ; CMover::IsGuildCombatTarget
  0014e	85 c0		 test	 eax, eax
  00150	75 3b		 jne	 SHORT $LN10@OnDamageMs

; 202  : 		{
; 203  : 			int nDamageDecRate = m_pAttacker->GetPKValue() * 5;

  00152	8b 46 08	 mov	 eax, DWORD PTR [esi+8]

; 204  : 			if( nDamageDecRate > 99 )

  00155	b9 63 00 00 00	 mov	 ecx, 99			; 00000063H
  0015a	66 0f 6e c3	 movd	 xmm0, ebx

; 205  : 				nDamageDecRate = 99;
; 206  : 			nDamage -= (int)( nDamage * ( (float)nDamageDecRate/(float)100) );

  0015e	0f 5b c0	 cvtdq2ps xmm0, xmm0
  00161	8b 80 54 07 00
	00		 mov	 eax, DWORD PTR [eax+1876]
  00167	8d 04 80	 lea	 eax, DWORD PTR [eax+eax*4]
  0016a	3b c1		 cmp	 eax, ecx
  0016c	0f 4f c1	 cmovg	 eax, ecx
  0016f	66 0f 6e c8	 movd	 xmm1, eax
  00173	0f 5b c9	 cvtdq2ps xmm1, xmm1
  00176	f3 0f 5e 0d 00
	00 00 00	 divss	 xmm1, DWORD PTR __real@42c80000
  0017e	f3 0f 59 c8	 mulss	 xmm1, xmm0
  00182	f3 0f 2c c1	 cvttss2si eax, xmm1
  00186	2b d8		 sub	 ebx, eax
  00188	eb 03		 jmp	 SHORT $LN10@OnDamageMs
$LN100@OnDamageMs:

; 207  : 		}
; 208  : #endif // __CHAO_DMGDEC
; 209  : 	}
; 210  : #endif // __VER >= 8
; 211  : 
; 212  : 	nDamage = max( nDamage, 1 );

  0018a	8b 5d fc	 mov	 ebx, DWORD PTR _nDamage$2$[ebp]
$LN10@OnDamageMs:
  0018d	b8 01 00 00 00	 mov	 eax, 1

; 213  : 	int nHP = MinusHP( &nDamage );							// HP °¨ĽŇ ˝ĂĹ´ 

  00192	8b ce		 mov	 ecx, esi
  00194	3b d8		 cmp	 ebx, eax
  00196	0f 4f c3	 cmovg	 eax, ebx
  00199	89 45 fc	 mov	 DWORD PTR _nDamage$[ebp], eax
  0019c	8d 45 fc	 lea	 eax, DWORD PTR _nDamage$[ebp]
  0019f	50		 push	 eax
  001a0	e8 00 00 00 00	 call	 ?MinusHP@CAttackArbiter@@AAEHPAH@Z ; CAttackArbiter::MinusHP
  001a5	8b f8		 mov	 edi, eax

; 214  : 
; 215  : #if __VER >= 14 // __INSTANCE_DUNGEON
; 216  : 	if( CMonsterSkill::GetInstance()->MonsterTransform( m_pDefender, nHP ) )

  001a7	57		 push	 edi
  001a8	ff 76 0c	 push	 DWORD PTR [esi+12]
  001ab	e8 00 00 00 00	 call	 ?GetInstance@CMonsterSkill@@SAPAV1@XZ ; CMonsterSkill::GetInstance
  001b0	8b c8		 mov	 ecx, eax
  001b2	e8 00 00 00 00	 call	 ?MonsterTransform@CMonsterSkill@@QAEHPAVCMover@@H@Z ; CMonsterSkill::MonsterTransform
  001b7	85 c0		 test	 eax, eax
  001b9	0f 85 77 01 00
	00		 jne	 $LN96@OnDamageMs
; File C:\IAGOS\server\v18\Source\Source\_AIInterface\Action.h

; 311  : 	BOOL			IsSit() { return (m_dwStateFlag & OBJSTAF_SIT) ? TRUE : FALSE; }

  001bf	8b 46 0c	 mov	 eax, DWORD PTR [esi+12]
  001c2	8b 88 38 02 00
	00		 mov	 ecx, DWORD PTR [eax+568]
; File C:\IAGOS\server\v18\Source\Source\WorldServer\AttackArbiter.cpp

; 220  : 	if( m_pDefender->m_pActMover->IsSit() )					// ľÉ±âÇŘÁ¦ & ŔĚµżŔ» ¸ŘĂă 

  001c8	f6 41 08 04	 test	 BYTE PTR [ecx+8], 4
  001cc	74 0a		 je	 SHORT $LN13@OnDamageMs

; 221  : 		m_pDefender->m_pActMover->ResetState( OBJSTA_MOVE_ALL );

  001ce	68 ff 00 00 00	 push	 255			; 000000ffH
  001d3	e8 00 00 00 00	 call	 ?ResetState@CAction@@QAEXK@Z ; CAction::ResetState
$LN13@OnDamageMs:

; 222  : 	m_pDefender->m_pActMover->SendActMsg( OBJMSG_STAND );	

  001d8	8b 46 0c	 mov	 eax, DWORD PTR [esi+12]
  001db	6a 00		 push	 0
  001dd	6a 00		 push	 0
  001df	6a 00		 push	 0
  001e1	8b 88 38 02 00
	00		 mov	 ecx, DWORD PTR [eax+568]
  001e7	6a 00		 push	 0
  001e9	6a 00		 push	 0
  001eb	6a 03		 push	 3
  001ed	8b 01		 mov	 eax, DWORD PTR [ecx]
  001ef	ff 50 04	 call	 DWORD PTR [eax+4]

; 223  : 	
; 224  : 	m_pDefender->OnAttacked( m_pAttacker, nDamage, m_bTarget, m_nReflect );		// °ř°ÝŔÚ ÇÇ°ÝŔÚ ŔúŔĺ, °ćÇčÄˇ Áö±ŢŔ˛ şŻ°ć	

  001f2	ff 76 1c	 push	 DWORD PTR [esi+28]
  001f5	8b 5d fc	 mov	 ebx, DWORD PTR _nDamage$[ebp]
  001f8	ff 76 18	 push	 DWORD PTR [esi+24]
  001fb	8b 4e 0c	 mov	 ecx, DWORD PTR [esi+12]
  001fe	53		 push	 ebx
  001ff	ff 76 08	 push	 DWORD PTR [esi+8]
  00202	e8 00 00 00 00	 call	 ?OnAttacked@CMover@@QAEXPAV1@HHH@Z ; CMover::OnAttacked

; 225  : 	if( nHP > 0 )

  00207	8b ce		 mov	 ecx, esi
  00209	85 ff		 test	 edi, edi
  0020b	0f 8e 0e 01 00
	00		 jle	 $LN14@OnDamageMs

; 226  : 	{
; 227  : 		OnDamaged( nDamage );								// µĄąĚÁö ¸đĽÇ ĂëÇĎ±â, µĄąĚÁö ŔüĽŰ, ąüÁËŔÚĽłÁ¤ 

  00211	53		 push	 ebx
  00212	e8 00 00 00 00	 call	 ?OnDamaged@CAttackArbiter@@AAEXH@Z ; CAttackArbiter::OnDamaged

; 228  : 		// MinusHP()żˇĽ­ °ˇÁ®żČ - µĄąĚÁö ŔĚČÄ Č¸şą˝ĂÄŃľß ÇŃ´Ů.
; 229  : 		int nActionHPRate = m_pDefender->GetAdjParam( DST_AUTOHP );							// ąßµż HPŔ˛

  00217	8b 4e 0c	 mov	 ecx, DWORD PTR [esi+12]
  0021a	6a 3a		 push	 58			; 0000003aH
  0021c	e8 00 00 00 00	 call	 ?GetAdjParam@CMover@@QAEHH@Z ; CMover::GetAdjParam
  00221	89 45 fc	 mov	 DWORD PTR _nActionHPRate$1$[ebp], eax

; 230  : 		if( nActionHPRate > 0 )

  00224	85 c0		 test	 eax, eax
  00226	0f 8e af 00 00
	00		 jle	 $LN17@OnDamageMs

; 231  : 		{
; 232  : 			float fHPPercent = (float)nHP / m_pDefender->GetMaxHitPoint();					// ÇöŔç HPŔÇ ĆŰĽľĆ® Ŕ˛

  0022c	8b 4e 0c	 mov	 ecx, DWORD PTR [esi+12]
  0022f	e8 00 00 00 00	 call	 ?GetMaxHitPoint@CMover@@QAEHXZ ; CMover::GetMaxHitPoint
  00234	66 0f 6e cf	 movd	 xmm1, edi
  00238	0f 5b c9	 cvtdq2ps xmm1, xmm1
  0023b	66 0f 6e c0	 movd	 xmm0, eax
  0023f	0f 5b c0	 cvtdq2ps xmm0, xmm0
  00242	f3 0f 5e c8	 divss	 xmm1, xmm0
  00246	66 0f 6e 45 fc	 movd	 xmm0, DWORD PTR _nActionHPRate$1$[ebp]

; 233  : 			if( fHPPercent <= (nActionHPRate / 100.0f) )									// ÇöŔç HP°ˇ ąßµżHPŔĚÇĎ°ˇ µÇ¸é

  0024b	0f 5b c0	 cvtdq2ps xmm0, xmm0
  0024e	f3 0f 5e 05 00
	00 00 00	 divss	 xmm0, DWORD PTR __real@42c80000
  00256	0f 2f c1	 comiss	 xmm0, xmm1
  00259	0f 82 7c 00 00
	00		 jb	 $LN17@OnDamageMs

; 234  : 			{
; 235  : 				float fAddHP = m_pDefender->GetChgParam( DST_AUTOHP ) / 100.0f;				// Č¸şą˝ĂĹł HPŔ˛

  0025f	8b 4e 0c	 mov	 ecx, DWORD PTR [esi+12]
  00262	6a 3a		 push	 58			; 0000003aH
  00264	e8 00 00 00 00	 call	 ?GetChgParam@CMover@@QAEHH@Z ; CMover::GetChgParam

; 236  : 				int nAddHP = (int)( m_pDefender->GetMaxHitPoint() * fAddHP );				// MaxHPŔÇ ŔĎÁ¤şńŔ˛Ŕ» ĂëÇÔ.

  00269	8b 4e 0c	 mov	 ecx, DWORD PTR [esi+12]
  0026c	66 0f 6e c0	 movd	 xmm0, eax
  00270	0f 5b c0	 cvtdq2ps xmm0, xmm0
  00273	f3 0f 5e 05 00
	00 00 00	 divss	 xmm0, DWORD PTR __real@42c80000
  0027b	f3 0f 11 45 fc	 movss	 DWORD PTR _fAddHP$1$[ebp], xmm0
  00280	e8 00 00 00 00	 call	 ?GetMaxHitPoint@CMover@@QAEHXZ ; CMover::GetMaxHitPoint

; 237  : 				nHP += nAddHP;
; 238  : 				m_pDefender->SetPointParam( DST_HP, nHP, TRUE );									// HPÁő°ˇ.

  00285	8b 4e 0c	 mov	 ecx, DWORD PTR [esi+12]
  00288	6a 01		 push	 1
  0028a	66 0f 6e c0	 movd	 xmm0, eax
  0028e	0f 5b c0	 cvtdq2ps xmm0, xmm0
  00291	f3 0f 59 45 fc	 mulss	 xmm0, DWORD PTR _fAddHP$1$[ebp]
  00296	f3 0f 2c c0	 cvttss2si eax, xmm0
  0029a	03 f8		 add	 edi, eax
  0029c	57		 push	 edi
  0029d	6a 26		 push	 38			; 00000026H
  0029f	e8 00 00 00 00	 call	 ?SetPointParam@CMover@@QAEXHHH@Z ; CMover::SetPointParam

; 239  : 				g_UserMng.AddCreateSfxObj( m_pDefender, XI_GEN_CURE01 );					// Č¸şą Čż°ú ąß»ý.

  002a4	6a 00		 push	 0
  002a6	83 ec 0c	 sub	 esp, 12			; 0000000cH
  002a9	b9 00 00 00 00	 mov	 ecx, OFFSET ?g_UserMng@@3VCUserMng@@A ; g_UserMng
  002ae	c7 44 24 08 00
	00 00 00	 mov	 DWORD PTR [esp+8], 0
  002b6	c7 44 24 04 00
	00 00 00	 mov	 DWORD PTR [esp+4], 0
  002be	c7 04 24 00 00
	00 00		 mov	 DWORD PTR [esp], 0
  002c5	6a 3e		 push	 62			; 0000003eH
  002c7	ff 76 0c	 push	 DWORD PTR [esi+12]
  002ca	e8 00 00 00 00	 call	 ?AddCreateSfxObj@CUserMng@@QAEXPAVCCtrl@@KMMMH@Z ; CUserMng::AddCreateSfxObj

; 240  : 				m_pDefender->RemoveBuff( BUFF_SKILL, SI_ASS_HEAL_PREVENTION );	// ÇŘÁ¦.

  002cf	8b 4e 0c	 mov	 ecx, DWORD PTR [esi+12]
  002d2	6a 30		 push	 48			; 00000030H
  002d4	6a 01		 push	 1
  002d6	e8 00 00 00 00	 call	 ?RemoveBuff@CMover@@QAEXGG@Z ; CMover::RemoveBuff
$LN17@OnDamageMs:

; 241  : 			}
; 242  : 		}
; 243  : #if __VER >= 11 // __REFLECTDMG_AFTER
; 244  : 		if( m_nReflectDmg )

  002db	83 7e 20 00	 cmp	 DWORD PTR [esi+32], 0
  002df	74 43		 je	 SHORT $LN15@OnDamageMs

; 246  : 			m_pAttacker->m_pActMover->SendDamage( AF_FORCE, m_pDefender->GetId(), m_nReflectDmg, TRUE, 2 );

  002e1	8b 46 08	 mov	 eax, DWORD PTR [esi+8]
; File C:\IAGOS\server\v18\Source\Source\_AIInterface\ActionMover.h

; 134  : 	int				SendDamage( DWORD dwAtkFlags, OBJID idSender, int nParam = 0, BOOL bTarget = TRUE, int nReflect = 0 )	{	return SendActMsg( OBJMSG_DAMAGE, dwAtkFlags, idSender, nParam, bTarget, nReflect );	}

  002e4	6a 02		 push	 2
  002e6	6a 01		 push	 1
  002e8	ff 76 20	 push	 DWORD PTR [esi+32]
; File C:\IAGOS\server\v18\Source\Source\WorldServer\AttackArbiter.cpp

; 246  : 			m_pAttacker->m_pActMover->SendDamage( AF_FORCE, m_pDefender->GetId(), m_nReflectDmg, TRUE, 2 );

  002eb	8b 88 38 02 00
	00		 mov	 ecx, DWORD PTR [eax+568]
; File C:\IAGOS\server\v18\Source\Source\_AIInterface\ActionMover.h

; 134  : 	int				SendDamage( DWORD dwAtkFlags, OBJID idSender, int nParam = 0, BOOL bTarget = TRUE, int nReflect = 0 )	{	return SendActMsg( OBJMSG_DAMAGE, dwAtkFlags, idSender, nParam, bTarget, nReflect );	}

  002f1	8b 46 0c	 mov	 eax, DWORD PTR [esi+12]
  002f4	8b 11		 mov	 edx, DWORD PTR [ecx]
  002f6	ff b0 bc 01 00
	00		 push	 DWORD PTR [eax+444]
  002fc	68 00 20 00 00	 push	 8192			; 00002000H
  00301	6a 29		 push	 41			; 00000029H
  00303	ff 52 04	 call	 DWORD PTR [edx+4]
; File C:\IAGOS\server\v18\Source\Source\WorldServer\AttackArbiter.cpp

; 256  : 	m_pDefender->EndPVP(nHP);

  00306	8b 4e 0c	 mov	 ecx, DWORD PTR [esi+12]
  00309	57		 push	 edi
  0030a	c7 46 20 00 00
	00 00		 mov	 DWORD PTR [esi+32], 0
  00311	e8 00 00 00 00	 call	 ?EndPVP@CMover@@QAEXH@Z	; CMover::EndPVP
  00316	5f		 pop	 edi

; 257  : #else	//__VER >= 8
; 258  : 	m_pDefender->m_nHitPoint = nHP;
; 259  : #endif	//__VER >= 8
; 260  : 
; 261  : 	return nDamage;
; 262  : }

  00317	5e		 pop	 esi
  00318	8b c3		 mov	 eax, ebx
  0031a	5b		 pop	 ebx
  0031b	8b e5		 mov	 esp, ebp
  0031d	5d		 pop	 ebp
  0031e	c3		 ret	 0
$LN14@OnDamageMs:

; 247  : 			m_nReflectDmg = 0;
; 248  : 		}
; 249  : #endif// __REFLECTDMG_AFTER
; 250  : 	}
; 251  : 	else	
; 252  : 		OnDied();											// °ćÇčÄˇ, ľĆŔĚĹŰ µĺ¶ř 

  0031f	e8 00 00 00 00	 call	 ?OnDied@CAttackArbiter@@AAEXXZ ; CAttackArbiter::OnDied
$LN15@OnDamageMs:

; 256  : 	m_pDefender->EndPVP(nHP);

  00324	8b 4e 0c	 mov	 ecx, DWORD PTR [esi+12]
  00327	57		 push	 edi
  00328	e8 00 00 00 00	 call	 ?EndPVP@CMover@@QAEXH@Z	; CMover::EndPVP
  0032d	5f		 pop	 edi

; 257  : #else	//__VER >= 8
; 258  : 	m_pDefender->m_nHitPoint = nHP;
; 259  : #endif	//__VER >= 8
; 260  : 
; 261  : 	return nDamage;
; 262  : }

  0032e	5e		 pop	 esi
  0032f	8b c3		 mov	 eax, ebx
  00331	5b		 pop	 ebx
  00332	8b e5		 mov	 esp, ebp
  00334	5d		 pop	 ebp
  00335	c3		 ret	 0
$LN96@OnDamageMs:
  00336	5f		 pop	 edi
  00337	5e		 pop	 esi
  00338	33 c0		 xor	 eax, eax
  0033a	5b		 pop	 ebx
  0033b	8b e5		 mov	 esp, ebp
  0033d	5d		 pop	 ebp
  0033e	c3		 ret	 0
?OnDamageMsgW@CAttackArbiter@@QAEHXZ ENDP		; CAttackArbiter::OnDamageMsgW
_TEXT	ENDS
; Function compile flags: /Ogtp
; File C:\IAGOS\server\v18\Source\Source\WorldServer\AttackArbiter.cpp
;	COMDAT ??1CAttackArbiter@@UAE@XZ
_TEXT	SEGMENT
??1CAttackArbiter@@UAE@XZ PROC				; CAttackArbiter::~CAttackArbiter, COMDAT
; _this$ = ecx

; 122  : {

  00000	c7 01 00 00 00
	00		 mov	 DWORD PTR [ecx], OFFSET ??_7CAttackArbiter@@6B@

; 123  : }

  00006	c3		 ret	 0
??1CAttackArbiter@@UAE@XZ ENDP				; CAttackArbiter::~CAttackArbiter
_TEXT	ENDS
; Function compile flags: /Ogtp
; File C:\IAGOS\server\v18\Source\Source\WorldServer\AttackArbiter.cpp
;	COMDAT ??0CAttackArbiter@@QAE@KPAVCMover@@0KHHH@Z
_TEXT	SEGMENT
_dwMsg$ = 8						; size = 4
_pAttacker$ = 12					; size = 4
_pDefender$ = 16					; size = 4
_dwAtkFlags$ = 20					; size = 4
_nParam$ = 24						; size = 4
_bTarget$ = 28						; size = 4
_nReflect$ = 32						; size = 4
??0CAttackArbiter@@QAE@KPAVCMover@@0KHHH@Z PROC		; CAttackArbiter::CAttackArbiter, COMDAT
; _this$ = ecx

; 115  : {

  00000	55		 push	 ebp
  00001	8b ec		 mov	 ebp, esp

; 108  : 		: m_dwMsg( dwMsg ), 

  00003	8b 45 08	 mov	 eax, DWORD PTR _dwMsg$[ebp]
  00006	89 41 04	 mov	 DWORD PTR [ecx+4], eax

; 109  : 		  m_pAttacker( pAttacker ), 

  00009	8b 45 0c	 mov	 eax, DWORD PTR _pAttacker$[ebp]
  0000c	89 41 08	 mov	 DWORD PTR [ecx+8], eax

; 110  : 		  m_pDefender( pDefender ), 

  0000f	8b 45 10	 mov	 eax, DWORD PTR _pDefender$[ebp]
  00012	89 41 0c	 mov	 DWORD PTR [ecx+12], eax

; 111  : 		  m_dwAtkFlags( dwAtkFlags ), 

  00015	8b 45 14	 mov	 eax, DWORD PTR _dwAtkFlags$[ebp]
  00018	89 41 10	 mov	 DWORD PTR [ecx+16], eax

; 112  : 		  m_nParam( nParam ),

  0001b	8b 45 18	 mov	 eax, DWORD PTR _nParam$[ebp]
  0001e	89 41 14	 mov	 DWORD PTR [ecx+20], eax

; 113  : 		  m_bTarget( bTarget ),

  00021	8b 45 1c	 mov	 eax, DWORD PTR _bTarget$[ebp]
  00024	89 41 18	 mov	 DWORD PTR [ecx+24], eax

; 114  : 		  m_nReflect( nReflect )		  

  00027	8b 45 20	 mov	 eax, DWORD PTR _nReflect$[ebp]
  0002a	89 41 1c	 mov	 DWORD PTR [ecx+28], eax

; 116  : #if __VER >= 11 // __REFLECTDMG_AFTER
; 117  : 	m_nReflectDmg = 0;
; 118  : #endif // __REFLECTDMG_AFTER
; 119  : }

  0002d	8b c1		 mov	 eax, ecx
  0002f	c7 01 00 00 00
	00		 mov	 DWORD PTR [ecx], OFFSET ??_7CAttackArbiter@@6B@
  00035	c7 41 20 00 00
	00 00		 mov	 DWORD PTR [ecx+32], 0
  0003c	5d		 pop	 ebp
  0003d	c2 1c 00	 ret	 28			; 0000001cH
??0CAttackArbiter@@QAE@KPAVCMover@@0KHHH@Z ENDP		; CAttackArbiter::CAttackArbiter
_TEXT	ENDS
; Function compile flags: /Ogtp
; File C:\IAGOS\server\v18\Source\Source\_Common\Item.h
; File C:\IAGOS\server\v18\Source\Source\_Common\Project.h
; File C:\IAGOS\server\v18\Source\Source\_Common\data.h
; File C:\IAGOS\server\v18\Source\Source\_Common\Item.h
; File C:\IAGOS\server\v18\Source\Source\_Common\Project.h
; File C:\IAGOS\server\v18\Source\Source\_Common\Item.h
;	COMDAT ?GetPropA@CItemElem@@QAEPAUItemProp@@XZ
_TEXT	SEGMENT
?GetPropA@CItemElem@@QAEPAUItemProp@@XZ PROC		; CItemElem::GetPropA, COMDAT
; _this$ = ecx

; 230  : 	ItemProp*	GetProp()	{	return prj.GetItemProp( m_dwItemId );	}

  00000	8b 49 0c	 mov	 ecx, DWORD PTR [ecx+12]
; File C:\IAGOS\server\v18\Source\Source\_Common\Project.h

; 1389 : 	VERIFY_RANGE_ASSERT( nIndex, 0, m_aPropItem.GetSize(), "GetItemProp range_error", NULL );

  00003	a1 40 02 00 00	 mov	 eax, DWORD PTR ?prj@@3VCProject@@A+576
  00008	85 c9		 test	 ecx, ecx
  0000a	78 0f		 js	 SHORT $LN8@GetPropA
  0000c	3b c8		 cmp	 ecx, eax
  0000e	7d 0b		 jge	 SHORT $LN8@GetPropA
; File C:\IAGOS\server\v18\Source\Source\_Common\data.h

; 270  : 	if( dwIndex >= (DWORD)m_nMaxIndex )

  00010	73 1f		 jae	 SHORT $LN15@GetPropA

; 271  : 		return NULL;
; 272  : 	return (T*) m_apOffset[ dwIndex ];

  00012	a1 30 02 00 00	 mov	 eax, DWORD PTR ?prj@@3VCProject@@A+560
  00017	8b 04 88	 mov	 eax, DWORD PTR [eax+ecx*4]
; File C:\IAGOS\server\v18\Source\Source\_Common\Item.h

; 230  : 	ItemProp*	GetProp()	{	return prj.GetItemProp( m_dwItemId );	}

  0001a	c3		 ret	 0
$LN8@GetPropA:
; File C:\IAGOS\server\v18\Source\Source\_Common\Project.h

; 579  : 	LPCTSTR szErr = Error( _T( "%s min:%d, max:%d, index:%d" ), szMsg, nMin, nMax, nIndex ); 

  0001b	51		 push	 ecx
  0001c	50		 push	 eax
  0001d	6a 00		 push	 0
  0001f	68 00 00 00 00	 push	 OFFSET ??_C@_0BI@BEIFNGEL@GetItemProp?5range_error@
  00024	68 00 00 00 00	 push	 OFFSET ??_C@_0BM@HMFGHCP@?$CFs?5min?3?$CFd?0?5max?3?$CFd?0?5index?3?$CFd@
  00029	e8 00 00 00 00	 call	 ?Error@@YAPBDPBDZZ	; Error
  0002e	83 c4 14	 add	 esp, 20			; 00000014H
$LN15@GetPropA:
; File C:\IAGOS\server\v18\Source\Source\_Common\Item.h

; 230  : 	ItemProp*	GetProp()	{	return prj.GetItemProp( m_dwItemId );	}

  00031	33 c0		 xor	 eax, eax
  00033	c3		 ret	 0
?GetPropA@CItemElem@@QAEPAUItemProp@@XZ ENDP		; CItemElem::GetPropA
_TEXT	ENDS
; Function compile flags: /Ogtp
; File C:\IAGOS\server\v18\Source\Source\WorldServer\AttackArbiter.cpp
;	COMDAT ?GetSkillLevel@ATTACK_INFO@@QBEHXZ
_TEXT	SEGMENT
?GetSkillLevel@ATTACK_INFO@@QBEHXZ PROC			; ATTACK_INFO::GetSkillLevel, COMDAT
; _this$ = ecx

; 81   : 	ASSERT( IsSkillAttack( dwAtkFlags ) );
; 82   : 	return ( nParam & 0xFF);	

  00000	0f b6 41 0c	 movzx	 eax, BYTE PTR [ecx+12]

; 83   : }

  00004	c3		 ret	 0
?GetSkillLevel@ATTACK_INFO@@QBEHXZ ENDP			; ATTACK_INFO::GetSkillLevel
_TEXT	ENDS
; Function compile flags: /Ogtp
; File C:\IAGOS\server\v18\Source\Source\WorldServer\AttackArbiter.cpp
;	COMDAT ?IsRangeAttack@ATTACK_INFO@@QBEHXZ
_TEXT	SEGMENT
?IsRangeAttack@ATTACK_INFO@@QBEHXZ PROC			; ATTACK_INFO::IsRangeAttack, COMDAT
; _this$ = ecx

; 100  : 	return ( dwAtkFlags & AF_RANGE );

  00000	8b 41 08	 mov	 eax, DWORD PTR [ecx+8]
  00003	25 00 40 00 00	 and	 eax, 16384		; 00004000H

; 101  : }

  00008	c3		 ret	 0
?IsRangeAttack@ATTACK_INFO@@QBEHXZ ENDP			; ATTACK_INFO::IsRangeAttack
_TEXT	ENDS
; Function compile flags: /Ogtp
; File C:\IAGOS\server\v18\Source\Source\WorldServer\AttackArbiter.cpp
; File C:\IAGOS\server\v18\Source\Source\_AIInterface\ActionMover.h
; File C:\IAGOS\server\v18\Source\Source\WorldServer\AttackArbiter.cpp
;	COMDAT ?GetSkill@ATTACK_INFO@@QBEHXZ
_TEXT	SEGMENT
?GetSkill@ATTACK_INFO@@QBEHXZ PROC			; ATTACK_INFO::GetSkill, COMDAT
; _this$ = ecx
; File C:\IAGOS\server\v18\Source\Source\_AIInterface\ActionMover.h

; 49   : 	return (dwAtkFlags & (AF_MELEESKILL|AF_MAGICSKILL) );

  00000	f6 41 08 30	 test	 BYTE PTR [ecx+8], 48	; 00000030H
; File C:\IAGOS\server\v18\Source\Source\WorldServer\AttackArbiter.cpp

; 92   : 	if( IsSkillAttack( dwAtkFlags ) )

  00004	74 05		 je	 SHORT $LN2@GetSkill

; 93   : 		return ( nParam >> 16) & 0xFFFF;	// ˝şĹłŔĚľú´Ů¸é ˝şĹłID

  00006	0f b7 41 0e	 movzx	 eax, WORD PTR [ecx+14]

; 96   : }

  0000a	c3		 ret	 0
$LN2@GetSkill:

; 94   : 	else
; 95   : 		return 0;

  0000b	33 c0		 xor	 eax, eax

; 96   : }

  0000d	c3		 ret	 0
?GetSkill@ATTACK_INFO@@QBEHXZ ENDP			; ATTACK_INFO::GetSkill
_TEXT	ENDS
; Function compile flags: /Ogtp
; File C:\IAGOS\server\v18\Source\Source\WorldServer\AttackArbiter.cpp
;	COMDAT ?GetAttackCount@ATTACK_INFO@@QBEHXZ
_TEXT	SEGMENT
?GetAttackCount@ATTACK_INFO@@QBEHXZ PROC		; ATTACK_INFO::GetAttackCount, COMDAT
; _this$ = ecx

; 87   : 	return ( nParam >> 8) & 0xFF;		// ŔĎąÝ 0, ÁöĽÓµĄąĚÁö 1ŔĚ»ó 

  00000	8b 41 0c	 mov	 eax, DWORD PTR [ecx+12]
  00003	c1 f8 08	 sar	 eax, 8
  00006	0f b6 c0	 movzx	 eax, al

; 88   : }

  00009	c3		 ret	 0
?GetAttackCount@ATTACK_INFO@@QBEHXZ ENDP		; ATTACK_INFO::GetAttackCount
_TEXT	ENDS
; Function compile flags: /Ogtp
; File C:\IAGOS\server\v18\Source\Source\WorldServer\AttackArbiter.cpp
; File C:\IAGOS\server\v18\Source\Source\_AIInterface\ActionMover.h
; File C:\IAGOS\server\v18\Source\Source\WorldServer\AttackArbiter.cpp
;	COMDAT ?GetChargeLevel@ATTACK_INFO@@QBEHXZ
_TEXT	SEGMENT
?GetChargeLevel@ATTACK_INFO@@QBEHXZ PROC		; ATTACK_INFO::GetChargeLevel, COMDAT
; _this$ = ecx
; File C:\IAGOS\server\v18\Source\Source\_AIInterface\ActionMover.h

; 49   : 	return (dwAtkFlags & (AF_MELEESKILL|AF_MAGICSKILL) );

  00000	f6 41 08 30	 test	 BYTE PTR [ecx+8], 48	; 00000030H
; File C:\IAGOS\server\v18\Source\Source\WorldServer\AttackArbiter.cpp

; 73   : 	if( IsSkillAttack( dwAtkFlags ) )

  00004	74 03		 je	 SHORT $LN2@GetChargeL

; 74   : 		return 0;

  00006	33 c0		 xor	 eax, eax

; 77   : }

  00008	c3		 ret	 0
$LN2@GetChargeL:

; 75   : 	
; 76   : 	return ( nParam & 0xFF);			// żĎµĺĂćŔü·®

  00009	0f b6 41 0c	 movzx	 eax, BYTE PTR [ecx+12]

; 77   : }

  0000d	c3		 ret	 0
?GetChargeLevel@ATTACK_INFO@@QBEHXZ ENDP		; ATTACK_INFO::GetChargeLevel
_TEXT	ENDS
; Function compile flags: /Ogtp
; File C:\IAGOS\server\v18\Source\Source\WorldServer\AttackArbiter.cpp
;	COMDAT ?CanIgnoreDEF@ATTACK_INFO@@QBEHXZ
_TEXT	SEGMENT
?CanIgnoreDEF@ATTACK_INFO@@QBEHXZ PROC			; ATTACK_INFO::CanIgnoreDEF, COMDAT
; _this$ = ecx

; 56   : {

  00000	56		 push	 esi
  00001	8b f1		 mov	 esi, ecx

; 57   : 	int nSkill = GetSkill();

  00003	e8 00 00 00 00	 call	 ?GetSkill@ATTACK_INFO@@QBEHXZ ; ATTACK_INFO::GetSkill

; 58   : 	switch ( nSkill )

  00008	2d 9f 00 00 00	 sub	 eax, 159		; 0000009fH
  0000d	74 12		 je	 SHORT $LN4@CanIgnoreD
  0000f	83 e8 35	 sub	 eax, 53			; 00000035H
  00012	74 0d		 je	 SHORT $LN4@CanIgnoreD

; 62   : 	case SI_JST_YOYO_HITOFPENYA :
; 63   : 		return TRUE;
; 64   : 	}
; 65   : 
; 66   : 	if( dwAtkFlags & AF_FORCE )		// ąĚ¸®°č»ę µČ µĄąĚÁöŔÇ °ćżě, ąćľî·Â ą«˝Ă (żą: ąÝ»ç, »çŔĚĹ± żů)  

  00014	f7 46 08 00 20
	00 00		 test	 DWORD PTR [esi+8], 8192	; 00002000H
  0001b	75 04		 jne	 SHORT $LN4@CanIgnoreD

; 67   : 		return TRUE;
; 68   : 	return FALSE;

  0001d	33 c0		 xor	 eax, eax
  0001f	5e		 pop	 esi

; 69   : }

  00020	c3		 ret	 0
$LN4@CanIgnoreD:

; 59   : 	{
; 60   : 	case SI_BIL_PST_ASALRAALAIKUM :
; 61   : 		return TRUE;

  00021	b8 01 00 00 00	 mov	 eax, 1
  00026	5e		 pop	 esi

; 69   : }

  00027	c3		 ret	 0
?CanIgnoreDEF@ATTACK_INFO@@QBEHXZ ENDP			; ATTACK_INFO::CanIgnoreDEF
_TEXT	ENDS
; Function compile flags: /Ogtp
; File C:\IAGOS\server\v18\Source\Source\WorldServer\AttackArbiter.cpp
;	COMDAT ?GetAtkType@ATTACK_INFO@@QBE?AW4ATK_TYPE@@XZ
_TEXT	SEGMENT
?GetAtkType@ATTACK_INFO@@QBE?AW4ATK_TYPE@@XZ PROC	; ATTACK_INFO::GetAtkType, COMDAT
; _this$ = ecx

; 32   : 	ATK_TYPE type = ATK_GENERIC;
; 33   : 
; 34   : 	if( dwAtkFlags & AF_MELEESKILL )

  00000	8b 41 08	 mov	 eax, DWORD PTR [ecx+8]
  00003	ba 04 00 00 00	 mov	 edx, 4
  00008	a8 10		 test	 al, 16			; 00000010H
  0000a	74 06		 je	 SHORT $LN2@GetAtkType

; 47   : 	{
; 48   : 		type = ATK_FORCE;
; 49   : 	}
; 50   : 
; 51   : 	return type;

  0000c	b8 01 00 00 00	 mov	 eax, 1

; 52   : }

  00011	c3		 ret	 0
$LN2@GetAtkType:

; 35   : 	{
; 36   : 		type = ATK_MELEESKILL;
; 37   : 	}
; 38   : 	else if( dwAtkFlags & AF_MAGICSKILL )

  00012	a8 20		 test	 al, 32			; 00000020H
  00014	74 06		 je	 SHORT $LN4@GetAtkType

; 47   : 	{
; 48   : 		type = ATK_FORCE;
; 49   : 	}
; 50   : 
; 51   : 	return type;

  00016	b8 02 00 00 00	 mov	 eax, 2

; 52   : }

  0001b	c3		 ret	 0
$LN4@GetAtkType:

; 39   : 	{
; 40   : 		type = ATK_MAGICSKILL;
; 41   : 	}	
; 42   : 	else if( dwAtkFlags & AF_MAGIC )		// ŔĎąÝ żĎµĺ °ř°Ý

  0001c	a8 08		 test	 al, 8
  0001e	74 06		 je	 SHORT $LN6@GetAtkType

; 47   : 	{
; 48   : 		type = ATK_FORCE;
; 49   : 	}
; 50   : 
; 51   : 	return type;

  00020	b8 03 00 00 00	 mov	 eax, 3

; 52   : }

  00025	c3		 ret	 0
$LN6@GetAtkType:

; 43   : 	{
; 44   : 		type = ATK_MAGIC;
; 45   : 	}
; 46   : 	else if( dwAtkFlags & AF_FORCE )		// ąÝ»ç µĄąĚÁö°°Ŕş °ćżě 

  00026	a9 00 20 00 00	 test	 eax, 8192		; 00002000H
  0002b	b8 00 00 00 00	 mov	 eax, 0
  00030	0f 45 d0	 cmovne	 edx, eax

; 47   : 	{
; 48   : 		type = ATK_FORCE;
; 49   : 	}
; 50   : 
; 51   : 	return type;

  00033	8b c2		 mov	 eax, edx

; 52   : }

  00035	c3		 ret	 0
?GetAtkType@ATTACK_INFO@@QBE?AW4ATK_TYPE@@XZ ENDP	; ATTACK_INFO::GetAtkType
_TEXT	ENDS
; Function compile flags: /Ogtp
; File C:\IAGOS\server\v18\Source\Source\WorldServer\AttackArbiter.cpp
;	COMDAT ?__empty_global_delete@@YAXPAXI@Z
_TEXT	SEGMENT
___formal$ = 8						; size = 4
___formal$ = 12						; size = 4
?__empty_global_delete@@YAXPAXI@Z PROC			; __empty_global_delete, COMDAT

  00000	c2 00 00	 ret	 0
?__empty_global_delete@@YAXPAXI@Z ENDP			; __empty_global_delete
_TEXT	ENDS
; Function compile flags: /Ogtp
; File C:\IAGOS\server\v18\Source\Source\WorldServer\AttackArbiter.cpp
;	COMDAT ?__empty_global_delete@@YAXPAX@Z
_TEXT	SEGMENT
___formal$ = 8						; size = 4
?__empty_global_delete@@YAXPAX@Z PROC			; __empty_global_delete, COMDAT

  00000	c2 00 00	 ret	 0
?__empty_global_delete@@YAXPAX@Z ENDP			; __empty_global_delete
_TEXT	ENDS
END
