; Listing generated by Microsoft (R) Optimizing Compiler Version 19.44.35225.0 

	TITLE	C:\IAGOS\server\v18\Source\Output\WorldServer\Release\auction.obj
	.686P
	.XMM
	include listing.inc
	.model	flat

INCLUDELIB LIBCMT
INCLUDELIB OLDNAMES

PUBLIC	?__empty_global_delete@@YAXPAX@Z		; __empty_global_delete
PUBLIC	?__empty_global_delete@@YAXPAXI@Z		; __empty_global_delete
PUBLIC	??0CAuction@@QAE@XZ				; CAuction::CAuction
PUBLIC	??1CAuction@@UAE@XZ				; CAuction::~CAuction
PUBLIC	?GetInstance@CAuction@@SAPAV1@XZ		; CAuction::GetInstance
PUBLIC	?ActionOff@CAuction@@QAEXPAVCUser@@EFKK@Z	; CAuction::ActionOff
PUBLIC	?Bid@CAuction@@QAEXHKH@Z			; CAuction::Bid
PUBLIC	?KnockDown@CAuction@@QAEXKH@Z			; CAuction::KnockDown
PUBLIC	??_GCAuction@@UAEPAXI@Z				; CAuction::`scalar deleting destructor'
PUBLIC	??_7CAuction@@6B@				; CAuction::`vftable'
PUBLIC	??_R4CAuction@@6B@				; CAuction::`RTTI Complete Object Locator'
PUBLIC	??_R0?AVCAuction@@@8				; CAuction `RTTI Type Descriptor'
PUBLIC	??_R3CAuction@@8				; CAuction::`RTTI Class Hierarchy Descriptor'
PUBLIC	??_R2CAuction@@8				; CAuction::`RTTI Base Class Array'
PUBLIC	??_R1A@?0A@EA@CAuction@@8			; CAuction::`RTTI Base Class Descriptor at (0,-1,0,64)'
EXTRN	??3@YAXPAXI@Z:PROC				; operator delete
EXTRN	_atexit:PROC
EXTRN	__Init_thread_header:PROC
EXTRN	__Init_thread_footer:PROC
EXTRN	??_ECAuction@@UAEPAXI@Z:PROC			; CAuction::`vector deleting destructor'
EXTRN	__Init_thread_epoch:DWORD
EXTRN	??_7type_info@@6B@:QWORD			; type_info::`vftable'
EXTRN	__tls_array:DWORD
EXTRN	__tls_index:DWORD
;	COMDAT ?sAuction@?1??GetInstance@CAuction@@SAPAV2@XZ@4V2@A
_BSS	SEGMENT
?sAuction@?1??GetInstance@CAuction@@SAPAV2@XZ@4V2@A DD 01H DUP (?) ; `CAuction::GetInstance'::`2'::sAuction
_BSS	ENDS
;	COMDAT ?$TSS0@?1??GetInstance@CAuction@@SAPAV2@XZ@4HA
_BSS	SEGMENT
?$TSS0@?1??GetInstance@CAuction@@SAPAV2@XZ@4HA DD 01H DUP (?) ; `CAuction::GetInstance'::`2'::$TSS0
_BSS	ENDS
;	COMDAT ??_R1A@?0A@EA@CAuction@@8
rdata$r	SEGMENT
??_R1A@?0A@EA@CAuction@@8 DD FLAT:??_R0?AVCAuction@@@8	; CAuction::`RTTI Base Class Descriptor at (0,-1,0,64)'
	DD	00H
	DD	00H
	DD	0ffffffffH
	DD	00H
	DD	040H
	DD	FLAT:??_R3CAuction@@8
rdata$r	ENDS
;	COMDAT ??_R2CAuction@@8
rdata$r	SEGMENT
??_R2CAuction@@8 DD FLAT:??_R1A@?0A@EA@CAuction@@8	; CAuction::`RTTI Base Class Array'
rdata$r	ENDS
;	COMDAT ??_R3CAuction@@8
rdata$r	SEGMENT
??_R3CAuction@@8 DD 00H					; CAuction::`RTTI Class Hierarchy Descriptor'
	DD	00H
	DD	01H
	DD	FLAT:??_R2CAuction@@8
rdata$r	ENDS
;	COMDAT ??_R0?AVCAuction@@@8
data$rs	SEGMENT
??_R0?AVCAuction@@@8 DD FLAT:??_7type_info@@6B@		; CAuction `RTTI Type Descriptor'
	DD	00H
	DB	'.?AVCAuction@@', 00H
data$rs	ENDS
;	COMDAT ??_R4CAuction@@6B@
rdata$r	SEGMENT
??_R4CAuction@@6B@ DD 00H				; CAuction::`RTTI Complete Object Locator'
	DD	00H
	DD	00H
	DD	FLAT:??_R0?AVCAuction@@@8
	DD	FLAT:??_R3CAuction@@8
rdata$r	ENDS
;	COMDAT ??_7CAuction@@6B@
CONST	SEGMENT
??_7CAuction@@6B@ DD FLAT:??_R4CAuction@@6B@		; CAuction::`vftable'
	DD	FLAT:??_ECAuction@@UAEPAXI@Z
CONST	ENDS
; Function compile flags: /Ogtp
;	COMDAT ??__FsAuction@?1??GetInstance@CAuction@@SAPAV1@XZ@YAXXZ
text$yd	SEGMENT
??__FsAuction@?1??GetInstance@CAuction@@SAPAV1@XZ@YAXXZ PROC ; `CAuction::GetInstance'::`2'::`dynamic atexit destructor for 'sAuction'', COMDAT
  00000	b9 00 00 00 00	 mov	 ecx, OFFSET ?sAuction@?1??GetInstance@CAuction@@SAPAV2@XZ@4V2@A
  00005	e9 00 00 00 00	 jmp	 ??1CAuction@@UAE@XZ	; CAuction::~CAuction
??__FsAuction@?1??GetInstance@CAuction@@SAPAV1@XZ@YAXXZ ENDP ; `CAuction::GetInstance'::`2'::`dynamic atexit destructor for 'sAuction''
text$yd	ENDS
; Function compile flags: /Ogtp
;	COMDAT ??_GCAuction@@UAEPAXI@Z
_TEXT	SEGMENT
___flags$ = 8						; size = 4
??_GCAuction@@UAEPAXI@Z PROC				; CAuction::`scalar deleting destructor', COMDAT
; _this$ = ecx
  00000	55		 push	 ebp
  00001	8b ec		 mov	 ebp, esp
  00003	56		 push	 esi
  00004	8b f1		 mov	 esi, ecx
  00006	e8 00 00 00 00	 call	 ??1CAuction@@UAE@XZ	; CAuction::~CAuction
  0000b	f6 45 08 01	 test	 BYTE PTR ___flags$[ebp], 1
  0000f	74 0b		 je	 SHORT $LN5@scalar
  00011	6a 04		 push	 4
  00013	56		 push	 esi
  00014	e8 00 00 00 00	 call	 ??3@YAXPAXI@Z		; operator delete
  00019	83 c4 08	 add	 esp, 8
$LN5@scalar:
  0001c	8b c6		 mov	 eax, esi
  0001e	5e		 pop	 esi
  0001f	5d		 pop	 ebp
  00020	c2 04 00	 ret	 4
??_GCAuction@@UAEPAXI@Z ENDP				; CAuction::`scalar deleting destructor'
_TEXT	ENDS
; Function compile flags: /Ogtp
; File C:\IAGOS\server\v18\Source\Source\_Common\auction.cpp
;	COMDAT ?KnockDown@CAuction@@QAEXKH@Z
_TEXT	SEGMENT
_idPlayer$ = 8						; size = 4
_nAuctionId$ = 12					; size = 4
?KnockDown@CAuction@@QAEXKH@Z PROC			; CAuction::KnockDown, COMDAT
; _this$ = ecx

; 28   : }

  00000	c2 08 00	 ret	 8
?KnockDown@CAuction@@QAEXKH@Z ENDP			; CAuction::KnockDown
_TEXT	ENDS
; Function compile flags: /Ogtp
; File C:\IAGOS\server\v18\Source\Source\_Common\auction.cpp
;	COMDAT ?Bid@CAuction@@QAEXHKH@Z
_TEXT	SEGMENT
_nAuctionId$ = 8					; size = 4
_dwBid$ = 12						; size = 4
_bKnockdown$ = 16					; size = 4
?Bid@CAuction@@QAEXHKH@Z PROC				; CAuction::Bid, COMDAT
; _this$ = ecx

; 24   : }

  00000	c2 0c 00	 ret	 12			; 0000000cH
?Bid@CAuction@@QAEXHKH@Z ENDP				; CAuction::Bid
_TEXT	ENDS
; Function compile flags: /Ogtp
; File C:\IAGOS\server\v18\Source\Source\_Common\auction.cpp
;	COMDAT ?ActionOff@CAuction@@QAEXPAVCUser@@EFKK@Z
_TEXT	SEGMENT
_pUser$ = 8						; size = 4
_byId$ = 12						; size = 1
_nItemNum$ = 16						; size = 2
_dw1$ = 20						; size = 4
_dw2$ = 24						; size = 4
?ActionOff@CAuction@@QAEXPAVCUser@@EFKK@Z PROC		; CAuction::ActionOff, COMDAT
; _this$ = ecx

; 20   : }

  00000	c2 14 00	 ret	 20			; 00000014H
?ActionOff@CAuction@@QAEXPAVCUser@@EFKK@Z ENDP		; CAuction::ActionOff
_TEXT	ENDS
; Function compile flags: /Ogtp
; File C:\IAGOS\server\v18\Source\Source\_Common\auction.cpp
;	COMDAT ?GetInstance@CAuction@@SAPAV1@XZ
_TEXT	SEGMENT
?GetInstance@CAuction@@SAPAV1@XZ PROC			; CAuction::GetInstance, COMDAT

; 14   : 	static CAuction sAuction;

  00000	64 a1 00 00 00
	00		 mov	 eax, DWORD PTR fs:__tls_array
  00006	8b 0d 00 00 00
	00		 mov	 ecx, DWORD PTR __tls_index
  0000c	8b 0c 88	 mov	 ecx, DWORD PTR [eax+ecx*4]
  0000f	a1 00 00 00 00	 mov	 eax, DWORD PTR ?$TSS0@?1??GetInstance@CAuction@@SAPAV2@XZ@4HA
  00014	3b 81 00 00 00
	00		 cmp	 eax, DWORD PTR __Init_thread_epoch[ecx]
  0001a	7f 06		 jg	 SHORT $LN8@GetInstanc
$LN5@GetInstanc:

; 15   : 	return &sAuction;
; 16   : }

  0001c	b8 00 00 00 00	 mov	 eax, OFFSET ?sAuction@?1??GetInstance@CAuction@@SAPAV2@XZ@4V2@A
  00021	c3		 ret	 0
$LN8@GetInstanc:

; 14   : 	static CAuction sAuction;

  00022	68 00 00 00 00	 push	 OFFSET ?$TSS0@?1??GetInstance@CAuction@@SAPAV2@XZ@4HA
  00027	e8 00 00 00 00	 call	 __Init_thread_header
  0002c	83 c4 04	 add	 esp, 4
  0002f	83 3d 00 00 00
	00 ff		 cmp	 DWORD PTR ?$TSS0@?1??GetInstance@CAuction@@SAPAV2@XZ@4HA, -1
  00036	75 e4		 jne	 SHORT $LN5@GetInstanc
  00038	b9 00 00 00 00	 mov	 ecx, OFFSET ?sAuction@?1??GetInstance@CAuction@@SAPAV2@XZ@4V2@A
  0003d	e8 00 00 00 00	 call	 ??0CAuction@@QAE@XZ	; CAuction::CAuction
  00042	68 00 00 00 00	 push	 OFFSET ??__FsAuction@?1??GetInstance@CAuction@@SAPAV1@XZ@YAXXZ ; `CAuction::GetInstance'::`2'::`dynamic atexit destructor for 'sAuction''
  00047	e8 00 00 00 00	 call	 _atexit
  0004c	68 00 00 00 00	 push	 OFFSET ?$TSS0@?1??GetInstance@CAuction@@SAPAV2@XZ@4HA
  00051	e8 00 00 00 00	 call	 __Init_thread_footer
  00056	83 c4 08	 add	 esp, 8
  00059	eb c1		 jmp	 SHORT $LN5@GetInstanc
?GetInstance@CAuction@@SAPAV1@XZ ENDP			; CAuction::GetInstance
_TEXT	ENDS
; Function compile flags: /Ogtp
; File C:\IAGOS\server\v18\Source\Source\_Common\auction.cpp
;	COMDAT ??1CAuction@@UAE@XZ
_TEXT	SEGMENT
??1CAuction@@UAE@XZ PROC				; CAuction::~CAuction, COMDAT
; _this$ = ecx

; 9    : {

  00000	c7 01 00 00 00
	00		 mov	 DWORD PTR [ecx], OFFSET ??_7CAuction@@6B@

; 10   : }

  00006	c3		 ret	 0
??1CAuction@@UAE@XZ ENDP				; CAuction::~CAuction
_TEXT	ENDS
; Function compile flags: /Ogtp
; File C:\IAGOS\server\v18\Source\Source\_Common\auction.cpp
;	COMDAT ??0CAuction@@QAE@XZ
_TEXT	SEGMENT
??0CAuction@@QAE@XZ PROC				; CAuction::CAuction, COMDAT
; _this$ = ecx

; 5    : {

  00000	c7 01 00 00 00
	00		 mov	 DWORD PTR [ecx], OFFSET ??_7CAuction@@6B@

; 6    : }

  00006	8b c1		 mov	 eax, ecx
  00008	c3		 ret	 0
??0CAuction@@QAE@XZ ENDP				; CAuction::CAuction
_TEXT	ENDS
; Function compile flags: /Ogtp
; File C:\IAGOS\server\v18\Source\Source\_Common\auction.cpp
;	COMDAT ?__empty_global_delete@@YAXPAXI@Z
_TEXT	SEGMENT
___formal$ = 8						; size = 4
___formal$ = 12						; size = 4
?__empty_global_delete@@YAXPAXI@Z PROC			; __empty_global_delete, COMDAT

  00000	c2 00 00	 ret	 0
?__empty_global_delete@@YAXPAXI@Z ENDP			; __empty_global_delete
_TEXT	ENDS
; Function compile flags: /Ogtp
; File C:\IAGOS\server\v18\Source\Source\_Common\auction.cpp
;	COMDAT ?__empty_global_delete@@YAXPAX@Z
_TEXT	SEGMENT
___formal$ = 8						; size = 4
?__empty_global_delete@@YAXPAX@Z PROC			; __empty_global_delete, COMDAT

  00000	c2 00 00	 ret	 0
?__empty_global_delete@@YAXPAX@Z ENDP			; __empty_global_delete
_TEXT	ENDS
END
