; Listing generated by Microsoft (R) Optimizing Compiler Version 19.44.35225.0 

	TITLE	C:\IAGOS\server\v18\Source\Output\WorldServer\Release\Bone.obj
	.686P
	.XMM
	include listing.inc
	.model	flat

INCLUDELIB LIBCMT
INCLUDELIB OLDNAMES

PUBLIC	??_H@YGXPAXIIP6EPAX0@Z@Z			; `vector constructor iterator'
PUBLIC	?__empty_global_delete@@YAXPAX@Z		; __empty_global_delete
PUBLIC	?__empty_global_delete@@YAXPAXI@Z		; __empty_global_delete
PUBLIC	??1?$CStringT@DV?$StrTraitMFC@DV?$ChTraitsCRT@D@ATL@@@@@ATL@@QAE@XZ ; ATL::CStringT<char,StrTraitMFC<char,ATL::ChTraitsCRT<char> > >::~CStringT<char,StrTraitMFC<char,ATL::ChTraitsCRT<char> > >
PUBLIC	??0exception@std@@QAE@ABV01@@Z			; std::exception::exception
PUBLIC	??1exception@std@@UAE@XZ			; std::exception::~exception
PUBLIC	?what@exception@std@@UBEPBDXZ			; std::exception::what
PUBLIC	??_Gexception@std@@UAEPAXI@Z			; std::exception::`scalar deleting destructor'
PUBLIC	??0bad_alloc@std@@QAE@ABV01@@Z			; std::bad_alloc::bad_alloc
PUBLIC	??_Gbad_alloc@std@@UAEPAXI@Z			; std::bad_alloc::`scalar deleting destructor'
PUBLIC	??0bad_array_new_length@std@@QAE@XZ		; std::bad_array_new_length::bad_array_new_length
PUBLIC	??1bad_array_new_length@std@@UAE@XZ		; std::bad_array_new_length::~bad_array_new_length
PUBLIC	??0bad_array_new_length@std@@QAE@ABV01@@Z	; std::bad_array_new_length::bad_array_new_length
PUBLIC	??_Gbad_array_new_length@std@@UAEPAXI@Z		; std::bad_array_new_length::`scalar deleting destructor'
PUBLIC	?_Throw_bad_array_new_length@std@@YAXXZ		; std::_Throw_bad_array_new_length
PUBLIC	?_Xlen_string@std@@YAXXZ			; std::_Xlen_string
PUBLIC	??0?$basic_string@DU?$char_traits@D@std@@V?$allocator@D@2@@std@@QAE@ABV01@@Z ; std::basic_string<char,std::char_traits<char>,std::allocator<char> >::basic_string<char,std::char_traits<char>,std::allocator<char> >
PUBLIC	??0?$basic_string@DU?$char_traits@D@std@@V?$allocator@D@2@@std@@QAE@QBD@Z ; std::basic_string<char,std::char_traits<char>,std::allocator<char> >::basic_string<char,std::char_traits<char>,std::allocator<char> >
PUBLIC	??1?$basic_string@DU?$char_traits@D@std@@V?$allocator@D@2@@std@@QAE@XZ ; std::basic_string<char,std::char_traits<char>,std::allocator<char> >::~basic_string<char,std::char_traits<char>,std::allocator<char> >
PUBLIC	?_Throw_tree_length_error@std@@YAXXZ		; std::_Throw_tree_length_error
PUBLIC	??0D3DXVECTOR3@@QAE@XZ				; D3DXVECTOR3::D3DXVECTOR3
PUBLIC	??1CFileIO@@UAE@XZ				; CFileIO::~CFileIO
PUBLIC	?Flush@CFileIO@@UAEHXZ				; CFileIO::Flush
PUBLIC	?GetC@CFileIO@@UAEDXZ				; CFileIO::GetC
PUBLIC	?GetW@CFileIO@@UAEGXZ				; CFileIO::GetW
PUBLIC	?GetDW@CFileIO@@UAEKXZ				; CFileIO::GetDW
PUBLIC	?Tell@CFileIO@@UAEJXZ				; CFileIO::Tell
PUBLIC	?Seek@CFileIO@@UAEHJH@Z				; CFileIO::Seek
PUBLIC	?GetLength@CFileIO@@UAEJXZ			; CFileIO::GetLength
PUBLIC	?Read@CFileIO@@UAEIPAXII@Z			; CFileIO::Read
PUBLIC	??_GCFileIO@@UAEPAXI@Z				; CFileIO::`scalar deleting destructor'
PUBLIC	??0BONE@@QAE@XZ					; BONE::BONE
PUBLIC	?Init@CBones@@AAEXXZ				; CBones::Init
PUBLIC	?Destroy@CBones@@AAEXXZ				; CBones::Destroy
PUBLIC	??0CBones@@QAE@XZ				; CBones::CBones
PUBLIC	??1CBones@@QAE@XZ				; CBones::~CBones
PUBLIC	?LoadBone@CBones@@QAEHPBD@Z			; CBones::LoadBone
PUBLIC	?_Insert_node@?$_Tree_val@U?$_Tree_simple_types@U?$pair@$$CBV?$basic_string@DU?$char_traits@D@std@@V?$allocator@D@2@@std@@PAVCBones@@@std@@@std@@@std@@QAEPAU?$_Tree_node@U?$pair@$$CBV?$basic_string@DU?$char_traits@D@std@@V?$allocator@D@2@@std@@PAVCBones@@@std@@PAX@2@U?$_Tree_id@PAU?$_Tree_node@U?$pair@$$CBV?$basic_string@DU?$char_traits@D@std@@V?$allocator@D@2@@std@@PAVCBones@@@std@@PAX@std@@@2@QAU32@@Z ; std::_Tree_val<std::_Tree_simple_types<std::pair<std::basic_string<char,std::char_traits<char>,std::allocator<char> > const ,CBones *> > >::_Insert_node
PUBLIC	??0CBonesMng@@QAE@XZ				; CBonesMng::CBonesMng
PUBLIC	??1CBonesMng@@QAE@XZ				; CBonesMng::~CBonesMng
PUBLIC	?Init@CBonesMng@@QAEXXZ				; CBonesMng::Init
PUBLIC	?Destroy@CBonesMng@@QAEXXZ			; CBonesMng::Destroy
PUBLIC	?LoadBone@CBonesMng@@QAEPAVCBones@@PBD@Z	; CBonesMng::LoadBone
PUBLIC	??0TM_ANIMATION@@QAE@XZ				; TM_ANIMATION::TM_ANIMATION
PUBLIC	??0BONE_FRAME@@QAE@XZ				; BONE_FRAME::BONE_FRAME
PUBLIC	??0CMotion@@QAE@XZ				; CMotion::CMotion
PUBLIC	??1CMotion@@QAE@XZ				; CMotion::~CMotion
PUBLIC	?Init@CMotion@@QAEXXZ				; CMotion::Init
PUBLIC	?Destroy@CMotion@@QAEXXZ			; CMotion::Destroy
PUBLIC	?LoadMotion@CMotion@@QAEHPBD@Z			; CMotion::LoadMotion
PUBLIC	?ReadTM@CMotion@@QAEXPAVCFileIO@@HH@Z		; CMotion::ReadTM
PUBLIC	?AnimateBone@CMotion@@QAEXPAUD3DXMATRIX@@PAV1@MHHHM@Z ; CMotion::AnimateBone
PUBLIC	?_Insert_node@?$_Tree_val@U?$_Tree_simple_types@U?$pair@$$CBV?$basic_string@DU?$char_traits@D@std@@V?$allocator@D@2@@std@@PAVCMotion@@@std@@@std@@@std@@QAEPAU?$_Tree_node@U?$pair@$$CBV?$basic_string@DU?$char_traits@D@std@@V?$allocator@D@2@@std@@PAVCMotion@@@std@@PAX@2@U?$_Tree_id@PAU?$_Tree_node@U?$pair@$$CBV?$basic_string@DU?$char_traits@D@std@@V?$allocator@D@2@@std@@PAVCMotion@@@std@@PAX@std@@@2@QAU32@@Z ; std::_Tree_val<std::_Tree_simple_types<std::pair<std::basic_string<char,std::char_traits<char>,std::allocator<char> > const ,CMotion *> > >::_Insert_node
PUBLIC	??0CMotionMng@@QAE@XZ				; CMotionMng::CMotionMng
PUBLIC	??1CMotionMng@@QAE@XZ				; CMotionMng::~CMotionMng
PUBLIC	?Init@CMotionMng@@QAEXXZ			; CMotionMng::Init
PUBLIC	?Destroy@CMotionMng@@QAEXXZ			; CMotionMng::Destroy
PUBLIC	?LoadMotion@CMotionMng@@QAEPAVCMotion@@PBD@Z	; CMotionMng::LoadMotion
PUBLIC	??$?MDU?$char_traits@D@std@@V?$allocator@D@1@@std@@YA_NABV?$basic_string@DU?$char_traits@D@std@@V?$allocator@D@2@@0@0@Z ; std::operator<<char,std::char_traits<char>,std::allocator<char> >
PUBLIC	??$_Allocate_manually_vector_aligned@U_Default_allocate_traits@std@@@std@@YAPAXI@Z ; std::_Allocate_manually_vector_aligned<std::_Default_allocate_traits>
PUBLIC	??1?$pair@$$CBV?$basic_string@DU?$char_traits@D@std@@V?$allocator@D@2@@std@@PAVCBones@@@std@@QAE@XZ ; std::pair<std::basic_string<char,std::char_traits<char>,std::allocator<char> > const ,CBones *>::~pair<std::basic_string<char,std::char_traits<char>,std::allocator<char> > const ,CBones *>
PUBLIC	??1?$pair@$$CBV?$basic_string@DU?$char_traits@D@std@@V?$allocator@D@2@@std@@PAVCMotion@@@std@@QAE@XZ ; std::pair<std::basic_string<char,std::char_traits<char>,std::allocator<char> > const ,CMotion *>::~pair<std::basic_string<char,std::char_traits<char>,std::allocator<char> > const ,CMotion *>
PUBLIC	??$_Erase_tree@V?$allocator@U?$_Tree_node@U?$pair@$$CBV?$basic_string@DU?$char_traits@D@std@@V?$allocator@D@2@@std@@PAVCMotion@@@std@@PAX@std@@@std@@@?$_Tree_val@U?$_Tree_simple_types@U?$pair@$$CBV?$basic_string@DU?$char_traits@D@std@@V?$allocator@D@2@@std@@PAVCMotion@@@std@@@std@@@std@@QAEXAAV?$allocator@U?$_Tree_node@U?$pair@$$CBV?$basic_string@DU?$char_traits@D@std@@V?$allocator@D@2@@std@@PAVCMotion@@@std@@PAX@std@@@1@PAU?$_Tree_node@U?$pair@$$CBV?$basic_string@DU?$char_traits@D@std@@V?$allocator@D@2@@std@@PAVCMotion@@@std@@PAX@1@@Z ; std::_Tree_val<std::_Tree_simple_types<std::pair<std::basic_string<char,std::char_traits<char>,std::allocator<char> > const ,CMotion *> > >::_Erase_tree<std::allocator<std::_Tree_node<std::pair<std::basic_string<char,std::char_traits<char>,std::allocator<char> > const ,CMotion *>,void *> > >
PUBLIC	??$_Erase_tree@V?$allocator@U?$_Tree_node@U?$pair@$$CBV?$basic_string@DU?$char_traits@D@std@@V?$allocator@D@2@@std@@PAVCBones@@@std@@PAX@std@@@std@@@?$_Tree_val@U?$_Tree_simple_types@U?$pair@$$CBV?$basic_string@DU?$char_traits@D@std@@V?$allocator@D@2@@std@@PAVCBones@@@std@@@std@@@std@@QAEXAAV?$allocator@U?$_Tree_node@U?$pair@$$CBV?$basic_string@DU?$char_traits@D@std@@V?$allocator@D@2@@std@@PAVCBones@@@std@@PAX@std@@@1@PAU?$_Tree_node@U?$pair@$$CBV?$basic_string@DU?$char_traits@D@std@@V?$allocator@D@2@@std@@PAVCBones@@@std@@PAX@1@@Z ; std::_Tree_val<std::_Tree_simple_types<std::pair<std::basic_string<char,std::char_traits<char>,std::allocator<char> > const ,CBones *> > >::_Erase_tree<std::allocator<std::_Tree_node<std::pair<std::basic_string<char,std::char_traits<char>,std::allocator<char> > const ,CBones *>,void *> > >
PUBLIC	??$_Find_lower_bound@V?$basic_string@DU?$char_traits@D@std@@V?$allocator@D@2@@std@@@?$_Tree@V?$_Tmap_traits@V?$basic_string@DU?$char_traits@D@std@@V?$allocator@D@2@@std@@PAVCBones@@U?$less@V?$basic_string@DU?$char_traits@D@std@@V?$allocator@D@2@@std@@@2@V?$allocator@U?$pair@$$CBV?$basic_string@DU?$char_traits@D@std@@V?$allocator@D@2@@std@@PAVCBones@@@std@@@2@$0A@@std@@@std@@IBE?AU?$_Tree_find_result@PAU?$_Tree_node@U?$pair@$$CBV?$basic_string@DU?$char_traits@D@std@@V?$allocator@D@2@@std@@PAVCBones@@@std@@PAX@std@@@1@ABV?$basic_string@DU?$char_traits@D@std@@V?$allocator@D@2@@1@@Z ; std::_Tree<std::_Tmap_traits<std::basic_string<char,std::char_traits<char>,std::allocator<char> >,CBones *,std::less<std::basic_string<char,std::char_traits<char>,std::allocator<char> > >,std::allocator<std::pair<std::basic_string<char,std::char_traits<char>,std::allocator<char> > const ,CBones *> >,0> >::_Find_lower_bound<std::basic_string<char,std::char_traits<char>,std::allocator<char> > >
PUBLIC	??1?$_Alloc_construct_ptr@V?$allocator@U?$_Tree_node@U?$pair@$$CBV?$basic_string@DU?$char_traits@D@std@@V?$allocator@D@2@@std@@PAVCBones@@@std@@PAX@std@@@std@@@std@@QAE@XZ ; std::_Alloc_construct_ptr<std::allocator<std::_Tree_node<std::pair<std::basic_string<char,std::char_traits<char>,std::allocator<char> > const ,CBones *>,void *> > >::~_Alloc_construct_ptr<std::allocator<std::_Tree_node<std::pair<std::basic_string<char,std::char_traits<char>,std::allocator<char> > const ,CBones *>,void *> > >
PUBLIC	??1?$_Tree_temp_node_alloc@V?$allocator@U?$_Tree_node@U?$pair@$$CBV?$basic_string@DU?$char_traits@D@std@@V?$allocator@D@2@@std@@PAVCBones@@@std@@PAX@std@@@std@@@std@@QAE@XZ ; std::_Tree_temp_node_alloc<std::allocator<std::_Tree_node<std::pair<std::basic_string<char,std::char_traits<char>,std::allocator<char> > const ,CBones *>,void *> > >::~_Tree_temp_node_alloc<std::allocator<std::_Tree_node<std::pair<std::basic_string<char,std::char_traits<char>,std::allocator<char> > const ,CBones *>,void *> > >
PUBLIC	??$_Find_lower_bound@V?$basic_string@DU?$char_traits@D@std@@V?$allocator@D@2@@std@@@?$_Tree@V?$_Tmap_traits@V?$basic_string@DU?$char_traits@D@std@@V?$allocator@D@2@@std@@PAVCMotion@@U?$less@V?$basic_string@DU?$char_traits@D@std@@V?$allocator@D@2@@std@@@2@V?$allocator@U?$pair@$$CBV?$basic_string@DU?$char_traits@D@std@@V?$allocator@D@2@@std@@PAVCMotion@@@std@@@2@$0A@@std@@@std@@IBE?AU?$_Tree_find_result@PAU?$_Tree_node@U?$pair@$$CBV?$basic_string@DU?$char_traits@D@std@@V?$allocator@D@2@@std@@PAVCMotion@@@std@@PAX@std@@@1@ABV?$basic_string@DU?$char_traits@D@std@@V?$allocator@D@2@@1@@Z ; std::_Tree<std::_Tmap_traits<std::basic_string<char,std::char_traits<char>,std::allocator<char> >,CMotion *,std::less<std::basic_string<char,std::char_traits<char>,std::allocator<char> > >,std::allocator<std::pair<std::basic_string<char,std::char_traits<char>,std::allocator<char> > const ,CMotion *> >,0> >::_Find_lower_bound<std::basic_string<char,std::char_traits<char>,std::allocator<char> > >
PUBLIC	??1?$_Alloc_construct_ptr@V?$allocator@U?$_Tree_node@U?$pair@$$CBV?$basic_string@DU?$char_traits@D@std@@V?$allocator@D@2@@std@@PAVCMotion@@@std@@PAX@std@@@std@@@std@@QAE@XZ ; std::_Alloc_construct_ptr<std::allocator<std::_Tree_node<std::pair<std::basic_string<char,std::char_traits<char>,std::allocator<char> > const ,CMotion *>,void *> > >::~_Alloc_construct_ptr<std::allocator<std::_Tree_node<std::pair<std::basic_string<char,std::char_traits<char>,std::allocator<char> > const ,CMotion *>,void *> > >
PUBLIC	??1?$_Tree_temp_node_alloc@V?$allocator@U?$_Tree_node@U?$pair@$$CBV?$basic_string@DU?$char_traits@D@std@@V?$allocator@D@2@@std@@PAVCMotion@@@std@@PAX@std@@@std@@@std@@QAE@XZ ; std::_Tree_temp_node_alloc<std::allocator<std::_Tree_node<std::pair<std::basic_string<char,std::char_traits<char>,std::allocator<char> > const ,CMotion *>,void *> > >::~_Tree_temp_node_alloc<std::allocator<std::_Tree_node<std::pair<std::basic_string<char,std::char_traits<char>,std::allocator<char> > const ,CMotion *>,void *> > >
PUBLIC	??_7exception@std@@6B@				; std::exception::`vftable'
PUBLIC	??_C@_0BC@EOODALEL@Unknown?5exception@		; `string'
PUBLIC	??_7bad_alloc@std@@6B@				; std::bad_alloc::`vftable'
PUBLIC	??_7bad_array_new_length@std@@6B@		; std::bad_array_new_length::`vftable'
PUBLIC	??_C@_0BF@KINCDENJ@bad?5array?5new?5length@	; `string'
PUBLIC	??_R0?AVexception@std@@@8			; std::exception `RTTI Type Descriptor'
PUBLIC	__CT??_R0?AVexception@std@@@8??0exception@std@@QAE@ABV01@@Z12
PUBLIC	__TI3?AVbad_array_new_length@std@@
PUBLIC	__CTA3?AVbad_array_new_length@std@@
PUBLIC	??_R0?AVbad_array_new_length@std@@@8		; std::bad_array_new_length `RTTI Type Descriptor'
PUBLIC	__CT??_R0?AVbad_array_new_length@std@@@8??0bad_array_new_length@std@@QAE@ABV01@@Z12
PUBLIC	??_R0?AVbad_alloc@std@@@8			; std::bad_alloc `RTTI Type Descriptor'
PUBLIC	__CT??_R0?AVbad_alloc@std@@@8??0bad_alloc@std@@QAE@ABV01@@Z12
PUBLIC	??_C@_0BA@JFNIOLAK@string?5too?5long@		; `string'
PUBLIC	??_C@_0BB@GCADKGJO@map?1set?5too?5long@		; `string'
PUBLIC	??_7CFileIO@@6B@				; CFileIO::`vftable'
PUBLIC	?g_BonesMng@@3VCBonesMng@@A			; g_BonesMng
PUBLIC	?g_MotionMng@@3VCMotionMng@@A			; g_MotionMng
PUBLIC	??_R4exception@std@@6B@				; std::exception::`RTTI Complete Object Locator'
PUBLIC	??_R3exception@std@@8				; std::exception::`RTTI Class Hierarchy Descriptor'
PUBLIC	??_R2exception@std@@8				; std::exception::`RTTI Base Class Array'
PUBLIC	??_R1A@?0A@EA@exception@std@@8			; std::exception::`RTTI Base Class Descriptor at (0,-1,0,64)'
PUBLIC	??_R4bad_array_new_length@std@@6B@		; std::bad_array_new_length::`RTTI Complete Object Locator'
PUBLIC	??_R3bad_array_new_length@std@@8		; std::bad_array_new_length::`RTTI Class Hierarchy Descriptor'
PUBLIC	??_R2bad_array_new_length@std@@8		; std::bad_array_new_length::`RTTI Base Class Array'
PUBLIC	??_R1A@?0A@EA@bad_array_new_length@std@@8	; std::bad_array_new_length::`RTTI Base Class Descriptor at (0,-1,0,64)'
PUBLIC	??_R1A@?0A@EA@bad_alloc@std@@8			; std::bad_alloc::`RTTI Base Class Descriptor at (0,-1,0,64)'
PUBLIC	??_R3bad_alloc@std@@8				; std::bad_alloc::`RTTI Class Hierarchy Descriptor'
PUBLIC	??_R2bad_alloc@std@@8				; std::bad_alloc::`RTTI Base Class Array'
PUBLIC	??_R4bad_alloc@std@@6B@				; std::bad_alloc::`RTTI Complete Object Locator'
PUBLIC	??_R4CFileIO@@6B@				; CFileIO::`RTTI Complete Object Locator'
PUBLIC	??_R0?AVCFileIO@@@8				; CFileIO `RTTI Type Descriptor'
PUBLIC	??_R3CFileIO@@8					; CFileIO::`RTTI Class Hierarchy Descriptor'
PUBLIC	??_R2CFileIO@@8					; CFileIO::`RTTI Base Class Array'
PUBLIC	??_R1A@?0A@EA@CFileIO@@8			; CFileIO::`RTTI Base Class Descriptor at (0,-1,0,64)'
PUBLIC	??_C@_02JDPG@rb@				; `string'
PUBLIC	??_C@_06IJGEHPBH@Model?2@			; `string'
PUBLIC	??_C@_0BP@GIAEKCLE@?$CFs?$MA?G?5?$LJ?v?$MA?$PM?$MA?$LK?5?$CFd?4?5?5?C?V?$LN?E?$LJ?v?$MA?$PM?$MA?$LK?5?$CFd@ ; `string'
PUBLIC	??_C@_0BL@NEKCICIL@?$CFs?5?3?5file?5name?5is?5too?5long@ ; `string'
PUBLIC	??_C@_06HHMIAANG@r?5hand@			; `string'
PUBLIC	??_C@_06EACJOHEF@l?5hand@			; `string'
PUBLIC	??_C@_09CNKBAJKB@l?5forearm@			; `string'
PUBLIC	??_C@_09BEMGLIPK@r?5forearm@			; `string'
PUBLIC	??_C@_0CM@JIBAPMLJ@CMotion?3?3LoadMotion?5?3?5?$CFs?5read?5M@ ; `string'
PUBLIC	??_C@_0CK@PGCOLHFF@CMotion?3?3ReadTM?5?9?5?$CFs?5bonename?5i@ ; `string'
PUBLIC	??_C@_0BG@LDPENPKD@?$CFs?5?3?5frame?5size?5error@ ; `string'
EXTRN	??2@YAPAXI@Z:PROC				; operator new
EXTRN	??3@YAXPAXI@Z:PROC				; operator delete
EXTRN	??_U@YAPAXI@Z:PROC				; operator new[]
EXTRN	??_V@YAXPAX@Z:PROC				; operator delete[]
EXTRN	_atexit:PROC
EXTRN	___std_terminate:PROC
EXTRN	__invoke_watson:PROC
EXTRN	_strcmpi:PROC
EXTRN	_strlwr:PROC
EXTRN	_getwc:PROC
EXTRN	_fflush:PROC
EXTRN	_fread:PROC
EXTRN	_fseek:PROC
EXTRN	_ftell:PROC
EXTRN	_getc:PROC
EXTRN	_fileno:PROC
EXTRN	___std_exception_copy:PROC
EXTRN	___std_exception_destroy:PROC
EXTRN	??_Eexception@std@@UAEPAXI@Z:PROC		; std::exception::`vector deleting destructor'
EXTRN	??_Ebad_alloc@std@@UAEPAXI@Z:PROC		; std::bad_alloc::`vector deleting destructor'
EXTRN	??_Ebad_array_new_length@std@@UAEPAXI@Z:PROC	; std::bad_array_new_length::`vector deleting destructor'
EXTRN	?_Xlength_error@std@@YAXPBD@Z:PROC		; std::_Xlength_error
EXTRN	_D3DXMatrixMultiply@12:PROC
EXTRN	_D3DXMatrixTranslation@16:PROC
EXTRN	_D3DXMatrixRotationQuaternion@8:PROC
EXTRN	_D3DXQuaternionRotationMatrix@8:PROC
EXTRN	_D3DXQuaternionSlerp@16:PROC
EXTRN	__filelength:PROC
EXTRN	?Open@CFileIO@@UAEHPBDPAD@Z:PROC		; CFileIO::Open
EXTRN	?Close@CFileIO@@UAEHXZ:PROC			; CFileIO::Close
EXTRN	?Read@CFileIO@@UAEPAXXZ:PROC			; CFileIO::Read
EXTRN	??_ECFileIO@@UAEPAXI@Z:PROC			; CFileIO::`vector deleting destructor'
EXTRN	?MakePath@@YA?AV?$CStringT@DV?$StrTraitMFC@DV?$ChTraitsCRT@D@ATL@@@@@ATL@@PBD0@Z:PROC ; MakePath
EXTRN	?Error@@YAPBDPBDZZ:PROC				; Error
EXTRN	@__security_check_cookie@4:PROC
EXTRN	__CxxThrowException@8:PROC
EXTRN	___CxxFrameHandler3:PROC
EXTRN	_memcpy:PROC
EXTRN	_memset:PROC
EXTRN	??_7type_info@@6B@:QWORD			; type_info::`vftable'
EXTRN	___security_cookie:DWORD
EXTRN	__fltused:DWORD
_BSS	SEGMENT
?g_BonesMng@@3VCBonesMng@@A DQ 01H DUP (?)		; g_BonesMng
?g_MotionMng@@3VCMotionMng@@A DQ 01H DUP (?)		; g_MotionMng
_BSS	ENDS
CRT$XCU	SEGMENT
?g_BonesMng$initializer$@@3P6AXXZA DD FLAT:??__Eg_BonesMng@@YAXXZ ; g_BonesMng$initializer$
CRT$XCU	ENDS
;	COMDAT ??_C@_0BG@LDPENPKD@?$CFs?5?3?5frame?5size?5error@
CONST	SEGMENT
??_C@_0BG@LDPENPKD@?$CFs?5?3?5frame?5size?5error@ DB '%s : frame size err'
	DB	'or', 00H					; `string'
CONST	ENDS
;	COMDAT ??_C@_0CK@PGCOLHFF@CMotion?3?3ReadTM?5?9?5?$CFs?5bonename?5i@
CONST	SEGMENT
??_C@_0CK@PGCOLHFF@CMotion?3?3ReadTM?5?9?5?$CFs?5bonename?5i@ DB 'CMotion'
	DB	'::ReadTM - %s bonename is too long', 00H	; `string'
CONST	ENDS
;	COMDAT ??_C@_0CM@JIBAPMLJ@CMotion?3?3LoadMotion?5?3?5?$CFs?5read?5M@
CONST	SEGMENT
??_C@_0CM@JIBAPMLJ@CMotion?3?3LoadMotion?5?3?5?$CFs?5read?5M@ DB 'CMotion'
	DB	'::LoadMotion : %s read MaxFrame = %d', 00H	; `string'
CONST	ENDS
;	COMDAT ??_C@_09BEMGLIPK@r?5forearm@
CONST	SEGMENT
??_C@_09BEMGLIPK@r?5forearm@ DB 'r forearm', 00H	; `string'
CONST	ENDS
;	COMDAT ??_C@_09CNKBAJKB@l?5forearm@
CONST	SEGMENT
??_C@_09CNKBAJKB@l?5forearm@ DB 'l forearm', 00H	; `string'
CONST	ENDS
;	COMDAT ??_C@_06EACJOHEF@l?5hand@
CONST	SEGMENT
??_C@_06EACJOHEF@l?5hand@ DB 'l hand', 00H		; `string'
CONST	ENDS
;	COMDAT ??_C@_06HHMIAANG@r?5hand@
CONST	SEGMENT
??_C@_06HHMIAANG@r?5hand@ DB 'r hand', 00H		; `string'
CONST	ENDS
;	COMDAT ??_C@_0BL@NEKCICIL@?$CFs?5?3?5file?5name?5is?5too?5long@
CONST	SEGMENT
??_C@_0BL@NEKCICIL@?$CFs?5?3?5file?5name?5is?5too?5long@ DB '%s : file na'
	DB	'me is too long', 00H			; `string'
CONST	ENDS
;	COMDAT ??_C@_0BP@GIAEKCLE@?$CFs?$MA?G?5?$LJ?v?$MA?$PM?$MA?$LK?5?$CFd?4?5?5?C?V?$LN?E?$LJ?v?$MA?$PM?$MA?$LK?5?$CFd@
CONST	SEGMENT
??_C@_0BP@GIAEKCLE@?$CFs?$MA?G?5?$LJ?v?$MA?$PM?$MA?$LK?5?$CFd?4?5?5?C?V?$LN?E?$LJ?v?$MA?$PM?$MA?$LK?5?$CFd@ DB '%'
	DB	's', 0c0H, 0c7H, ' ', 0b9H, 0f6H, 0c0H, 0fcH, 0c0H, 0baH, ' %d'
	DB	'.  ', 0c3H, 0d6H, 0bdH, 0c5H, 0b9H, 0f6H, 0c0H, 0fcH, 0c0H, 0baH
	DB	' %d', 00H					; `string'
CONST	ENDS
;	COMDAT ??_C@_06IJGEHPBH@Model?2@
CONST	SEGMENT
??_C@_06IJGEHPBH@Model?2@ DB 'Model\', 00H		; `string'
CONST	ENDS
;	COMDAT ??_C@_02JDPG@rb@
CONST	SEGMENT
??_C@_02JDPG@rb@ DB 'rb', 00H				; `string'
CONST	ENDS
;	COMDAT ??_R1A@?0A@EA@CFileIO@@8
rdata$r	SEGMENT
??_R1A@?0A@EA@CFileIO@@8 DD FLAT:??_R0?AVCFileIO@@@8	; CFileIO::`RTTI Base Class Descriptor at (0,-1,0,64)'
	DD	00H
	DD	00H
	DD	0ffffffffH
	DD	00H
	DD	040H
	DD	FLAT:??_R3CFileIO@@8
rdata$r	ENDS
;	COMDAT ??_R2CFileIO@@8
rdata$r	SEGMENT
??_R2CFileIO@@8 DD FLAT:??_R1A@?0A@EA@CFileIO@@8	; CFileIO::`RTTI Base Class Array'
rdata$r	ENDS
;	COMDAT ??_R3CFileIO@@8
rdata$r	SEGMENT
??_R3CFileIO@@8 DD 00H					; CFileIO::`RTTI Class Hierarchy Descriptor'
	DD	00H
	DD	01H
	DD	FLAT:??_R2CFileIO@@8
rdata$r	ENDS
;	COMDAT ??_R0?AVCFileIO@@@8
data$rs	SEGMENT
??_R0?AVCFileIO@@@8 DD FLAT:??_7type_info@@6B@		; CFileIO `RTTI Type Descriptor'
	DD	00H
	DB	'.?AVCFileIO@@', 00H
data$rs	ENDS
;	COMDAT ??_R4CFileIO@@6B@
rdata$r	SEGMENT
??_R4CFileIO@@6B@ DD 00H				; CFileIO::`RTTI Complete Object Locator'
	DD	00H
	DD	00H
	DD	FLAT:??_R0?AVCFileIO@@@8
	DD	FLAT:??_R3CFileIO@@8
rdata$r	ENDS
;	COMDAT ??_R4bad_alloc@std@@6B@
rdata$r	SEGMENT
??_R4bad_alloc@std@@6B@ DD 00H				; std::bad_alloc::`RTTI Complete Object Locator'
	DD	00H
	DD	00H
	DD	FLAT:??_R0?AVbad_alloc@std@@@8
	DD	FLAT:??_R3bad_alloc@std@@8
rdata$r	ENDS
;	COMDAT ??_R2bad_alloc@std@@8
rdata$r	SEGMENT
??_R2bad_alloc@std@@8 DD FLAT:??_R1A@?0A@EA@bad_alloc@std@@8 ; std::bad_alloc::`RTTI Base Class Array'
	DD	FLAT:??_R1A@?0A@EA@exception@std@@8
rdata$r	ENDS
;	COMDAT ??_R3bad_alloc@std@@8
rdata$r	SEGMENT
??_R3bad_alloc@std@@8 DD 00H				; std::bad_alloc::`RTTI Class Hierarchy Descriptor'
	DD	00H
	DD	02H
	DD	FLAT:??_R2bad_alloc@std@@8
rdata$r	ENDS
;	COMDAT ??_R1A@?0A@EA@bad_alloc@std@@8
rdata$r	SEGMENT
??_R1A@?0A@EA@bad_alloc@std@@8 DD FLAT:??_R0?AVbad_alloc@std@@@8 ; std::bad_alloc::`RTTI Base Class Descriptor at (0,-1,0,64)'
	DD	01H
	DD	00H
	DD	0ffffffffH
	DD	00H
	DD	040H
	DD	FLAT:??_R3bad_alloc@std@@8
rdata$r	ENDS
;	COMDAT ??_R1A@?0A@EA@bad_array_new_length@std@@8
rdata$r	SEGMENT
??_R1A@?0A@EA@bad_array_new_length@std@@8 DD FLAT:??_R0?AVbad_array_new_length@std@@@8 ; std::bad_array_new_length::`RTTI Base Class Descriptor at (0,-1,0,64)'
	DD	02H
	DD	00H
	DD	0ffffffffH
	DD	00H
	DD	040H
	DD	FLAT:??_R3bad_array_new_length@std@@8
rdata$r	ENDS
;	COMDAT ??_R2bad_array_new_length@std@@8
rdata$r	SEGMENT
??_R2bad_array_new_length@std@@8 DD FLAT:??_R1A@?0A@EA@bad_array_new_length@std@@8 ; std::bad_array_new_length::`RTTI Base Class Array'
	DD	FLAT:??_R1A@?0A@EA@bad_alloc@std@@8
	DD	FLAT:??_R1A@?0A@EA@exception@std@@8
rdata$r	ENDS
;	COMDAT ??_R3bad_array_new_length@std@@8
rdata$r	SEGMENT
??_R3bad_array_new_length@std@@8 DD 00H			; std::bad_array_new_length::`RTTI Class Hierarchy Descriptor'
	DD	00H
	DD	03H
	DD	FLAT:??_R2bad_array_new_length@std@@8
rdata$r	ENDS
;	COMDAT ??_R4bad_array_new_length@std@@6B@
rdata$r	SEGMENT
??_R4bad_array_new_length@std@@6B@ DD 00H		; std::bad_array_new_length::`RTTI Complete Object Locator'
	DD	00H
	DD	00H
	DD	FLAT:??_R0?AVbad_array_new_length@std@@@8
	DD	FLAT:??_R3bad_array_new_length@std@@8
rdata$r	ENDS
;	COMDAT ??_R1A@?0A@EA@exception@std@@8
rdata$r	SEGMENT
??_R1A@?0A@EA@exception@std@@8 DD FLAT:??_R0?AVexception@std@@@8 ; std::exception::`RTTI Base Class Descriptor at (0,-1,0,64)'
	DD	00H
	DD	00H
	DD	0ffffffffH
	DD	00H
	DD	040H
	DD	FLAT:??_R3exception@std@@8
rdata$r	ENDS
;	COMDAT ??_R2exception@std@@8
rdata$r	SEGMENT
??_R2exception@std@@8 DD FLAT:??_R1A@?0A@EA@exception@std@@8 ; std::exception::`RTTI Base Class Array'
rdata$r	ENDS
;	COMDAT ??_R3exception@std@@8
rdata$r	SEGMENT
??_R3exception@std@@8 DD 00H				; std::exception::`RTTI Class Hierarchy Descriptor'
	DD	00H
	DD	01H
	DD	FLAT:??_R2exception@std@@8
rdata$r	ENDS
;	COMDAT ??_R4exception@std@@6B@
rdata$r	SEGMENT
??_R4exception@std@@6B@ DD 00H				; std::exception::`RTTI Complete Object Locator'
	DD	00H
	DD	00H
	DD	FLAT:??_R0?AVexception@std@@@8
	DD	FLAT:??_R3exception@std@@8
rdata$r	ENDS
;	COMDAT ??_7CFileIO@@6B@
CONST	SEGMENT
??_7CFileIO@@6B@ DD FLAT:??_R4CFileIO@@6B@		; CFileIO::`vftable'
	DD	FLAT:??_ECFileIO@@UAEPAXI@Z
	DD	FLAT:?Open@CFileIO@@UAEHPBDPAD@Z
	DD	FLAT:?Close@CFileIO@@UAEHXZ
	DD	FLAT:?Flush@CFileIO@@UAEHXZ
	DD	FLAT:?GetC@CFileIO@@UAEDXZ
	DD	FLAT:?GetW@CFileIO@@UAEGXZ
	DD	FLAT:?GetDW@CFileIO@@UAEKXZ
	DD	FLAT:?Tell@CFileIO@@UAEJXZ
	DD	FLAT:?Seek@CFileIO@@UAEHJH@Z
	DD	FLAT:?GetLength@CFileIO@@UAEJXZ
	DD	FLAT:?Read@CFileIO@@UAEPAXXZ
	DD	FLAT:?Read@CFileIO@@UAEIPAXII@Z
CONST	ENDS
;	COMDAT ??_C@_0BB@GCADKGJO@map?1set?5too?5long@
CONST	SEGMENT
??_C@_0BB@GCADKGJO@map?1set?5too?5long@ DB 'map/set too long', 00H ; `string'
CONST	ENDS
;	COMDAT ??_C@_0BA@JFNIOLAK@string?5too?5long@
CONST	SEGMENT
??_C@_0BA@JFNIOLAK@string?5too?5long@ DB 'string too long', 00H ; `string'
CONST	ENDS
;	COMDAT __CT??_R0?AVbad_alloc@std@@@8??0bad_alloc@std@@QAE@ABV01@@Z12
xdata$x	SEGMENT
__CT??_R0?AVbad_alloc@std@@@8??0bad_alloc@std@@QAE@ABV01@@Z12 DD 010H
	DD	FLAT:??_R0?AVbad_alloc@std@@@8
	DD	00H
	DD	0ffffffffH
	ORG $+4
	DD	0cH
	DD	FLAT:??0bad_alloc@std@@QAE@ABV01@@Z
xdata$x	ENDS
;	COMDAT ??_R0?AVbad_alloc@std@@@8
data$r	SEGMENT
??_R0?AVbad_alloc@std@@@8 DD FLAT:??_7type_info@@6B@	; std::bad_alloc `RTTI Type Descriptor'
	DD	00H
	DB	'.?AVbad_alloc@std@@', 00H
data$r	ENDS
;	COMDAT __CT??_R0?AVbad_array_new_length@std@@@8??0bad_array_new_length@std@@QAE@ABV01@@Z12
xdata$x	SEGMENT
__CT??_R0?AVbad_array_new_length@std@@@8??0bad_array_new_length@std@@QAE@ABV01@@Z12 DD 00H
	DD	FLAT:??_R0?AVbad_array_new_length@std@@@8
	DD	00H
	DD	0ffffffffH
	ORG $+4
	DD	0cH
	DD	FLAT:??0bad_array_new_length@std@@QAE@ABV01@@Z
xdata$x	ENDS
;	COMDAT ??_R0?AVbad_array_new_length@std@@@8
data$r	SEGMENT
??_R0?AVbad_array_new_length@std@@@8 DD FLAT:??_7type_info@@6B@ ; std::bad_array_new_length `RTTI Type Descriptor'
	DD	00H
	DB	'.?AVbad_array_new_length@std@@', 00H
data$r	ENDS
;	COMDAT __CTA3?AVbad_array_new_length@std@@
xdata$x	SEGMENT
__CTA3?AVbad_array_new_length@std@@ DD 03H
	DD	FLAT:__CT??_R0?AVbad_array_new_length@std@@@8??0bad_array_new_length@std@@QAE@ABV01@@Z12
	DD	FLAT:__CT??_R0?AVbad_alloc@std@@@8??0bad_alloc@std@@QAE@ABV01@@Z12
	DD	FLAT:__CT??_R0?AVexception@std@@@8??0exception@std@@QAE@ABV01@@Z12
xdata$x	ENDS
;	COMDAT __TI3?AVbad_array_new_length@std@@
xdata$x	SEGMENT
__TI3?AVbad_array_new_length@std@@ DD 00H
	DD	FLAT:??1bad_array_new_length@std@@UAE@XZ
	DD	00H
	DD	FLAT:__CTA3?AVbad_array_new_length@std@@
xdata$x	ENDS
;	COMDAT __CT??_R0?AVexception@std@@@8??0exception@std@@QAE@ABV01@@Z12
xdata$x	SEGMENT
__CT??_R0?AVexception@std@@@8??0exception@std@@QAE@ABV01@@Z12 DD 00H
	DD	FLAT:??_R0?AVexception@std@@@8
	DD	00H
	DD	0ffffffffH
	ORG $+4
	DD	0cH
	DD	FLAT:??0exception@std@@QAE@ABV01@@Z
xdata$x	ENDS
;	COMDAT ??_R0?AVexception@std@@@8
data$r	SEGMENT
??_R0?AVexception@std@@@8 DD FLAT:??_7type_info@@6B@	; std::exception `RTTI Type Descriptor'
	DD	00H
	DB	'.?AVexception@std@@', 00H
data$r	ENDS
;	COMDAT ??_C@_0BF@KINCDENJ@bad?5array?5new?5length@
CONST	SEGMENT
??_C@_0BF@KINCDENJ@bad?5array?5new?5length@ DB 'bad array new length', 00H ; `string'
CONST	ENDS
;	COMDAT ??_7bad_array_new_length@std@@6B@
CONST	SEGMENT
??_7bad_array_new_length@std@@6B@ DD FLAT:??_R4bad_array_new_length@std@@6B@ ; std::bad_array_new_length::`vftable'
	DD	FLAT:??_Ebad_array_new_length@std@@UAEPAXI@Z
	DD	FLAT:?what@exception@std@@UBEPBDXZ
CONST	ENDS
;	COMDAT ??_7bad_alloc@std@@6B@
CONST	SEGMENT
??_7bad_alloc@std@@6B@ DD FLAT:??_R4bad_alloc@std@@6B@	; std::bad_alloc::`vftable'
	DD	FLAT:??_Ebad_alloc@std@@UAEPAXI@Z
	DD	FLAT:?what@exception@std@@UBEPBDXZ
CONST	ENDS
;	COMDAT ??_C@_0BC@EOODALEL@Unknown?5exception@
CONST	SEGMENT
??_C@_0BC@EOODALEL@Unknown?5exception@ DB 'Unknown exception', 00H ; `string'
CONST	ENDS
;	COMDAT ??_7exception@std@@6B@
CONST	SEGMENT
??_7exception@std@@6B@ DD FLAT:??_R4exception@std@@6B@	; std::exception::`vftable'
	DD	FLAT:??_Eexception@std@@UAEPAXI@Z
	DD	FLAT:?what@exception@std@@UBEPBDXZ
CONST	ENDS
;	COMDAT xdata$x
xdata$x	SEGMENT
__unwindtable$??$?0U?$pair@$$CBV?$basic_string@DU?$char_traits@D@std@@V?$allocator@D@2@@std@@PAVCMotion@@@std@@@?$_Tree_temp_node@V?$allocator@U?$_Tree_node@U?$pair@$$CBV?$basic_string@DU?$char_traits@D@std@@V?$allocator@D@2@@std@@PAVCMotion@@@std@@PAX@std@@@std@@@std@@QAE@AAV?$allocator@U?$_Tree_node@U?$pair@$$CBV?$basic_string@DU?$char_traits@D@std@@V?$allocator@D@2@@std@@PAVCMotion@@@std@@PAX@std@@@1@PAU?$_Tree_node@U?$pair@$$CBV?$basic_string@DU?$char_traits@D@std@@V?$allocator@D@2@@std@@PAVCMotion@@@std@@PAX@1@$$QAU?$pair@$$CBV?$basic_string@DU?$char_traits@D@std@@V?$allocator@D@2@@std@@PAVCMotion@@@1@@Z DD 0ffffffffH
	DD	FLAT:__unwindfunclet$??$?0U?$pair@$$CBV?$basic_string@DU?$char_traits@D@std@@V?$allocator@D@2@@std@@PAVCMotion@@@std@@@?$_Tree_temp_node@V?$allocator@U?$_Tree_node@U?$pair@$$CBV?$basic_string@DU?$char_traits@D@std@@V?$allocator@D@2@@std@@PAVCMotion@@@std@@PAX@std@@@std@@@std@@QAE@AAV?$allocator@U?$_Tree_node@U?$pair@$$CBV?$basic_string@DU?$char_traits@D@std@@V?$allocator@D@2@@std@@PAVCMotion@@@std@@PAX@std@@@1@PAU?$_Tree_node@U?$pair@$$CBV?$basic_string@DU?$char_traits@D@std@@V?$allocator@D@2@@std@@PAVCMotion@@@std@@PAX@1@$$QAU?$pair@$$CBV?$basic_string@DU?$char_traits@D@std@@V?$allocator@D@2@@std@@PAVCMotion@@@1@@Z$1
	DD	0ffffffffH
	DD	FLAT:__unwindfunclet$??$?0U?$pair@$$CBV?$basic_string@DU?$char_traits@D@std@@V?$allocator@D@2@@std@@PAVCMotion@@@std@@@?$_Tree_temp_node@V?$allocator@U?$_Tree_node@U?$pair@$$CBV?$basic_string@DU?$char_traits@D@std@@V?$allocator@D@2@@std@@PAVCMotion@@@std@@PAX@std@@@std@@@std@@QAE@AAV?$allocator@U?$_Tree_node@U?$pair@$$CBV?$basic_string@DU?$char_traits@D@std@@V?$allocator@D@2@@std@@PAVCMotion@@@std@@PAX@std@@@1@PAU?$_Tree_node@U?$pair@$$CBV?$basic_string@DU?$char_traits@D@std@@V?$allocator@D@2@@std@@PAVCMotion@@@std@@PAX@1@$$QAU?$pair@$$CBV?$basic_string@DU?$char_traits@D@std@@V?$allocator@D@2@@std@@PAVCMotion@@@1@@Z$0
__ehfuncinfo$??$?0U?$pair@$$CBV?$basic_string@DU?$char_traits@D@std@@V?$allocator@D@2@@std@@PAVCMotion@@@std@@@?$_Tree_temp_node@V?$allocator@U?$_Tree_node@U?$pair@$$CBV?$basic_string@DU?$char_traits@D@std@@V?$allocator@D@2@@std@@PAVCMotion@@@std@@PAX@std@@@std@@@std@@QAE@AAV?$allocator@U?$_Tree_node@U?$pair@$$CBV?$basic_string@DU?$char_traits@D@std@@V?$allocator@D@2@@std@@PAVCMotion@@@std@@PAX@std@@@1@PAU?$_Tree_node@U?$pair@$$CBV?$basic_string@DU?$char_traits@D@std@@V?$allocator@D@2@@std@@PAVCMotion@@@std@@PAX@1@$$QAU?$pair@$$CBV?$basic_string@DU?$char_traits@D@std@@V?$allocator@D@2@@std@@PAVCMotion@@@1@@Z DD 019930522H
	DD	02H
	DD	FLAT:__unwindtable$??$?0U?$pair@$$CBV?$basic_string@DU?$char_traits@D@std@@V?$allocator@D@2@@std@@PAVCMotion@@@std@@@?$_Tree_temp_node@V?$allocator@U?$_Tree_node@U?$pair@$$CBV?$basic_string@DU?$char_traits@D@std@@V?$allocator@D@2@@std@@PAVCMotion@@@std@@PAX@std@@@std@@@std@@QAE@AAV?$allocator@U?$_Tree_node@U?$pair@$$CBV?$basic_string@DU?$char_traits@D@std@@V?$allocator@D@2@@std@@PAVCMotion@@@std@@PAX@std@@@1@PAU?$_Tree_node@U?$pair@$$CBV?$basic_string@DU?$char_traits@D@std@@V?$allocator@D@2@@std@@PAVCMotion@@@std@@PAX@1@$$QAU?$pair@$$CBV?$basic_string@DU?$char_traits@D@std@@V?$allocator@D@2@@std@@PAVCMotion@@@1@@Z
	DD	2 DUP(00H)
	DD	2 DUP(00H)
	DD	00H
	DD	01H
xdata$x	ENDS
;	COMDAT xdata$x
xdata$x	SEGMENT
__unwindtable$??0?$_Tree_temp_node_alloc@V?$allocator@U?$_Tree_node@U?$pair@$$CBV?$basic_string@DU?$char_traits@D@std@@V?$allocator@D@2@@std@@PAVCMotion@@@std@@PAX@std@@@std@@@std@@QAE@AAV?$allocator@U?$_Tree_node@U?$pair@$$CBV?$basic_string@DU?$char_traits@D@std@@V?$allocator@D@2@@std@@PAVCMotion@@@std@@PAX@std@@@1@@Z DD 0ffffffffH
	DD	FLAT:__unwindfunclet$??0?$_Tree_temp_node_alloc@V?$allocator@U?$_Tree_node@U?$pair@$$CBV?$basic_string@DU?$char_traits@D@std@@V?$allocator@D@2@@std@@PAVCMotion@@@std@@PAX@std@@@std@@@std@@QAE@AAV?$allocator@U?$_Tree_node@U?$pair@$$CBV?$basic_string@DU?$char_traits@D@std@@V?$allocator@D@2@@std@@PAVCMotion@@@std@@PAX@std@@@1@@Z$0
__ehfuncinfo$??0?$_Tree_temp_node_alloc@V?$allocator@U?$_Tree_node@U?$pair@$$CBV?$basic_string@DU?$char_traits@D@std@@V?$allocator@D@2@@std@@PAVCMotion@@@std@@PAX@std@@@std@@@std@@QAE@AAV?$allocator@U?$_Tree_node@U?$pair@$$CBV?$basic_string@DU?$char_traits@D@std@@V?$allocator@D@2@@std@@PAVCMotion@@@std@@PAX@std@@@1@@Z DD 019930522H
	DD	01H
	DD	FLAT:__unwindtable$??0?$_Tree_temp_node_alloc@V?$allocator@U?$_Tree_node@U?$pair@$$CBV?$basic_string@DU?$char_traits@D@std@@V?$allocator@D@2@@std@@PAVCMotion@@@std@@PAX@std@@@std@@@std@@QAE@AAV?$allocator@U?$_Tree_node@U?$pair@$$CBV?$basic_string@DU?$char_traits@D@std@@V?$allocator@D@2@@std@@PAVCMotion@@@std@@PAX@std@@@1@@Z
	DD	2 DUP(00H)
	DD	2 DUP(00H)
	DD	00H
	DD	01H
xdata$x	ENDS
;	COMDAT xdata$x
xdata$x	SEGMENT
__unwindtable$??$?0U?$pair@$$CBV?$basic_string@DU?$char_traits@D@std@@V?$allocator@D@2@@std@@PAVCBones@@@std@@@?$_Tree_temp_node@V?$allocator@U?$_Tree_node@U?$pair@$$CBV?$basic_string@DU?$char_traits@D@std@@V?$allocator@D@2@@std@@PAVCBones@@@std@@PAX@std@@@std@@@std@@QAE@AAV?$allocator@U?$_Tree_node@U?$pair@$$CBV?$basic_string@DU?$char_traits@D@std@@V?$allocator@D@2@@std@@PAVCBones@@@std@@PAX@std@@@1@PAU?$_Tree_node@U?$pair@$$CBV?$basic_string@DU?$char_traits@D@std@@V?$allocator@D@2@@std@@PAVCBones@@@std@@PAX@1@$$QAU?$pair@$$CBV?$basic_string@DU?$char_traits@D@std@@V?$allocator@D@2@@std@@PAVCBones@@@1@@Z DD 0ffffffffH
	DD	FLAT:__unwindfunclet$??$?0U?$pair@$$CBV?$basic_string@DU?$char_traits@D@std@@V?$allocator@D@2@@std@@PAVCBones@@@std@@@?$_Tree_temp_node@V?$allocator@U?$_Tree_node@U?$pair@$$CBV?$basic_string@DU?$char_traits@D@std@@V?$allocator@D@2@@std@@PAVCBones@@@std@@PAX@std@@@std@@@std@@QAE@AAV?$allocator@U?$_Tree_node@U?$pair@$$CBV?$basic_string@DU?$char_traits@D@std@@V?$allocator@D@2@@std@@PAVCBones@@@std@@PAX@std@@@1@PAU?$_Tree_node@U?$pair@$$CBV?$basic_string@DU?$char_traits@D@std@@V?$allocator@D@2@@std@@PAVCBones@@@std@@PAX@1@$$QAU?$pair@$$CBV?$basic_string@DU?$char_traits@D@std@@V?$allocator@D@2@@std@@PAVCBones@@@1@@Z$1
	DD	0ffffffffH
	DD	FLAT:__unwindfunclet$??$?0U?$pair@$$CBV?$basic_string@DU?$char_traits@D@std@@V?$allocator@D@2@@std@@PAVCBones@@@std@@@?$_Tree_temp_node@V?$allocator@U?$_Tree_node@U?$pair@$$CBV?$basic_string@DU?$char_traits@D@std@@V?$allocator@D@2@@std@@PAVCBones@@@std@@PAX@std@@@std@@@std@@QAE@AAV?$allocator@U?$_Tree_node@U?$pair@$$CBV?$basic_string@DU?$char_traits@D@std@@V?$allocator@D@2@@std@@PAVCBones@@@std@@PAX@std@@@1@PAU?$_Tree_node@U?$pair@$$CBV?$basic_string@DU?$char_traits@D@std@@V?$allocator@D@2@@std@@PAVCBones@@@std@@PAX@1@$$QAU?$pair@$$CBV?$basic_string@DU?$char_traits@D@std@@V?$allocator@D@2@@std@@PAVCBones@@@1@@Z$0
__ehfuncinfo$??$?0U?$pair@$$CBV?$basic_string@DU?$char_traits@D@std@@V?$allocator@D@2@@std@@PAVCBones@@@std@@@?$_Tree_temp_node@V?$allocator@U?$_Tree_node@U?$pair@$$CBV?$basic_string@DU?$char_traits@D@std@@V?$allocator@D@2@@std@@PAVCBones@@@std@@PAX@std@@@std@@@std@@QAE@AAV?$allocator@U?$_Tree_node@U?$pair@$$CBV?$basic_string@DU?$char_traits@D@std@@V?$allocator@D@2@@std@@PAVCBones@@@std@@PAX@std@@@1@PAU?$_Tree_node@U?$pair@$$CBV?$basic_string@DU?$char_traits@D@std@@V?$allocator@D@2@@std@@PAVCBones@@@std@@PAX@1@$$QAU?$pair@$$CBV?$basic_string@DU?$char_traits@D@std@@V?$allocator@D@2@@std@@PAVCBones@@@1@@Z DD 019930522H
	DD	02H
	DD	FLAT:__unwindtable$??$?0U?$pair@$$CBV?$basic_string@DU?$char_traits@D@std@@V?$allocator@D@2@@std@@PAVCBones@@@std@@@?$_Tree_temp_node@V?$allocator@U?$_Tree_node@U?$pair@$$CBV?$basic_string@DU?$char_traits@D@std@@V?$allocator@D@2@@std@@PAVCBones@@@std@@PAX@std@@@std@@@std@@QAE@AAV?$allocator@U?$_Tree_node@U?$pair@$$CBV?$basic_string@DU?$char_traits@D@std@@V?$allocator@D@2@@std@@PAVCBones@@@std@@PAX@std@@@1@PAU?$_Tree_node@U?$pair@$$CBV?$basic_string@DU?$char_traits@D@std@@V?$allocator@D@2@@std@@PAVCBones@@@std@@PAX@1@$$QAU?$pair@$$CBV?$basic_string@DU?$char_traits@D@std@@V?$allocator@D@2@@std@@PAVCBones@@@1@@Z
	DD	2 DUP(00H)
	DD	2 DUP(00H)
	DD	00H
	DD	01H
xdata$x	ENDS
;	COMDAT xdata$x
xdata$x	SEGMENT
__unwindtable$??0?$_Tree_temp_node_alloc@V?$allocator@U?$_Tree_node@U?$pair@$$CBV?$basic_string@DU?$char_traits@D@std@@V?$allocator@D@2@@std@@PAVCBones@@@std@@PAX@std@@@std@@@std@@QAE@AAV?$allocator@U?$_Tree_node@U?$pair@$$CBV?$basic_string@DU?$char_traits@D@std@@V?$allocator@D@2@@std@@PAVCBones@@@std@@PAX@std@@@1@@Z DD 0ffffffffH
	DD	FLAT:__unwindfunclet$??0?$_Tree_temp_node_alloc@V?$allocator@U?$_Tree_node@U?$pair@$$CBV?$basic_string@DU?$char_traits@D@std@@V?$allocator@D@2@@std@@PAVCBones@@@std@@PAX@std@@@std@@@std@@QAE@AAV?$allocator@U?$_Tree_node@U?$pair@$$CBV?$basic_string@DU?$char_traits@D@std@@V?$allocator@D@2@@std@@PAVCBones@@@std@@PAX@std@@@1@@Z$0
__ehfuncinfo$??0?$_Tree_temp_node_alloc@V?$allocator@U?$_Tree_node@U?$pair@$$CBV?$basic_string@DU?$char_traits@D@std@@V?$allocator@D@2@@std@@PAVCBones@@@std@@PAX@std@@@std@@@std@@QAE@AAV?$allocator@U?$_Tree_node@U?$pair@$$CBV?$basic_string@DU?$char_traits@D@std@@V?$allocator@D@2@@std@@PAVCBones@@@std@@PAX@std@@@1@@Z DD 019930522H
	DD	01H
	DD	FLAT:__unwindtable$??0?$_Tree_temp_node_alloc@V?$allocator@U?$_Tree_node@U?$pair@$$CBV?$basic_string@DU?$char_traits@D@std@@V?$allocator@D@2@@std@@PAVCBones@@@std@@PAX@std@@@std@@@std@@QAE@AAV?$allocator@U?$_Tree_node@U?$pair@$$CBV?$basic_string@DU?$char_traits@D@std@@V?$allocator@D@2@@std@@PAVCBones@@@std@@PAX@std@@@1@@Z
	DD	2 DUP(00H)
	DD	2 DUP(00H)
	DD	00H
	DD	01H
xdata$x	ENDS
;	COMDAT xdata$x
xdata$x	SEGMENT
__unwindtable$??$_Emplace@U?$pair@$$CBV?$basic_string@DU?$char_traits@D@std@@V?$allocator@D@2@@std@@PAVCMotion@@@std@@@?$_Tree@V?$_Tmap_traits@V?$basic_string@DU?$char_traits@D@std@@V?$allocator@D@2@@std@@PAVCMotion@@U?$less@V?$basic_string@DU?$char_traits@D@std@@V?$allocator@D@2@@std@@@2@V?$allocator@U?$pair@$$CBV?$basic_string@DU?$char_traits@D@std@@V?$allocator@D@2@@std@@PAVCMotion@@@std@@@2@$0A@@std@@@std@@IAE?AU?$pair@PAU?$_Tree_node@U?$pair@$$CBV?$basic_string@DU?$char_traits@D@std@@V?$allocator@D@2@@std@@PAVCMotion@@@std@@PAX@std@@_N@1@$$QAU?$pair@$$CBV?$basic_string@DU?$char_traits@D@std@@V?$allocator@D@2@@std@@PAVCMotion@@@1@@Z DD 0ffffffffH
	DD	FLAT:__unwindfunclet$??$_Emplace@U?$pair@$$CBV?$basic_string@DU?$char_traits@D@std@@V?$allocator@D@2@@std@@PAVCMotion@@@std@@@?$_Tree@V?$_Tmap_traits@V?$basic_string@DU?$char_traits@D@std@@V?$allocator@D@2@@std@@PAVCMotion@@U?$less@V?$basic_string@DU?$char_traits@D@std@@V?$allocator@D@2@@std@@@2@V?$allocator@U?$pair@$$CBV?$basic_string@DU?$char_traits@D@std@@V?$allocator@D@2@@std@@PAVCMotion@@@std@@@2@$0A@@std@@@std@@IAE?AU?$pair@PAU?$_Tree_node@U?$pair@$$CBV?$basic_string@DU?$char_traits@D@std@@V?$allocator@D@2@@std@@PAVCMotion@@@std@@PAX@std@@_N@1@$$QAU?$pair@$$CBV?$basic_string@DU?$char_traits@D@std@@V?$allocator@D@2@@std@@PAVCMotion@@@1@@Z$2
	DD	0ffffffffH
	DD	FLAT:__unwindfunclet$??$_Emplace@U?$pair@$$CBV?$basic_string@DU?$char_traits@D@std@@V?$allocator@D@2@@std@@PAVCMotion@@@std@@@?$_Tree@V?$_Tmap_traits@V?$basic_string@DU?$char_traits@D@std@@V?$allocator@D@2@@std@@PAVCMotion@@U?$less@V?$basic_string@DU?$char_traits@D@std@@V?$allocator@D@2@@std@@@2@V?$allocator@U?$pair@$$CBV?$basic_string@DU?$char_traits@D@std@@V?$allocator@D@2@@std@@PAVCMotion@@@std@@@2@$0A@@std@@@std@@IAE?AU?$pair@PAU?$_Tree_node@U?$pair@$$CBV?$basic_string@DU?$char_traits@D@std@@V?$allocator@D@2@@std@@PAVCMotion@@@std@@PAX@std@@_N@1@$$QAU?$pair@$$CBV?$basic_string@DU?$char_traits@D@std@@V?$allocator@D@2@@std@@PAVCMotion@@@1@@Z$1
__ehfuncinfo$??$_Emplace@U?$pair@$$CBV?$basic_string@DU?$char_traits@D@std@@V?$allocator@D@2@@std@@PAVCMotion@@@std@@@?$_Tree@V?$_Tmap_traits@V?$basic_string@DU?$char_traits@D@std@@V?$allocator@D@2@@std@@PAVCMotion@@U?$less@V?$basic_string@DU?$char_traits@D@std@@V?$allocator@D@2@@std@@@2@V?$allocator@U?$pair@$$CBV?$basic_string@DU?$char_traits@D@std@@V?$allocator@D@2@@std@@PAVCMotion@@@std@@@2@$0A@@std@@@std@@IAE?AU?$pair@PAU?$_Tree_node@U?$pair@$$CBV?$basic_string@DU?$char_traits@D@std@@V?$allocator@D@2@@std@@PAVCMotion@@@std@@PAX@std@@_N@1@$$QAU?$pair@$$CBV?$basic_string@DU?$char_traits@D@std@@V?$allocator@D@2@@std@@PAVCMotion@@@1@@Z DD 019930522H
	DD	02H
	DD	FLAT:__unwindtable$??$_Emplace@U?$pair@$$CBV?$basic_string@DU?$char_traits@D@std@@V?$allocator@D@2@@std@@PAVCMotion@@@std@@@?$_Tree@V?$_Tmap_traits@V?$basic_string@DU?$char_traits@D@std@@V?$allocator@D@2@@std@@PAVCMotion@@U?$less@V?$basic_string@DU?$char_traits@D@std@@V?$allocator@D@2@@std@@@2@V?$allocator@U?$pair@$$CBV?$basic_string@DU?$char_traits@D@std@@V?$allocator@D@2@@std@@PAVCMotion@@@std@@@2@$0A@@std@@@std@@IAE?AU?$pair@PAU?$_Tree_node@U?$pair@$$CBV?$basic_string@DU?$char_traits@D@std@@V?$allocator@D@2@@std@@PAVCMotion@@@std@@PAX@std@@_N@1@$$QAU?$pair@$$CBV?$basic_string@DU?$char_traits@D@std@@V?$allocator@D@2@@std@@PAVCMotion@@@1@@Z
	DD	2 DUP(00H)
	DD	2 DUP(00H)
	DD	00H
	DD	01H
xdata$x	ENDS
;	COMDAT xdata$x
xdata$x	SEGMENT
__unwindtable$??$_Emplace@U?$pair@$$CBV?$basic_string@DU?$char_traits@D@std@@V?$allocator@D@2@@std@@PAVCBones@@@std@@@?$_Tree@V?$_Tmap_traits@V?$basic_string@DU?$char_traits@D@std@@V?$allocator@D@2@@std@@PAVCBones@@U?$less@V?$basic_string@DU?$char_traits@D@std@@V?$allocator@D@2@@std@@@2@V?$allocator@U?$pair@$$CBV?$basic_string@DU?$char_traits@D@std@@V?$allocator@D@2@@std@@PAVCBones@@@std@@@2@$0A@@std@@@std@@IAE?AU?$pair@PAU?$_Tree_node@U?$pair@$$CBV?$basic_string@DU?$char_traits@D@std@@V?$allocator@D@2@@std@@PAVCBones@@@std@@PAX@std@@_N@1@$$QAU?$pair@$$CBV?$basic_string@DU?$char_traits@D@std@@V?$allocator@D@2@@std@@PAVCBones@@@1@@Z DD 0ffffffffH
	DD	FLAT:__unwindfunclet$??$_Emplace@U?$pair@$$CBV?$basic_string@DU?$char_traits@D@std@@V?$allocator@D@2@@std@@PAVCBones@@@std@@@?$_Tree@V?$_Tmap_traits@V?$basic_string@DU?$char_traits@D@std@@V?$allocator@D@2@@std@@PAVCBones@@U?$less@V?$basic_string@DU?$char_traits@D@std@@V?$allocator@D@2@@std@@@2@V?$allocator@U?$pair@$$CBV?$basic_string@DU?$char_traits@D@std@@V?$allocator@D@2@@std@@PAVCBones@@@std@@@2@$0A@@std@@@std@@IAE?AU?$pair@PAU?$_Tree_node@U?$pair@$$CBV?$basic_string@DU?$char_traits@D@std@@V?$allocator@D@2@@std@@PAVCBones@@@std@@PAX@std@@_N@1@$$QAU?$pair@$$CBV?$basic_string@DU?$char_traits@D@std@@V?$allocator@D@2@@std@@PAVCBones@@@1@@Z$2
	DD	0ffffffffH
	DD	FLAT:__unwindfunclet$??$_Emplace@U?$pair@$$CBV?$basic_string@DU?$char_traits@D@std@@V?$allocator@D@2@@std@@PAVCBones@@@std@@@?$_Tree@V?$_Tmap_traits@V?$basic_string@DU?$char_traits@D@std@@V?$allocator@D@2@@std@@PAVCBones@@U?$less@V?$basic_string@DU?$char_traits@D@std@@V?$allocator@D@2@@std@@@2@V?$allocator@U?$pair@$$CBV?$basic_string@DU?$char_traits@D@std@@V?$allocator@D@2@@std@@PAVCBones@@@std@@@2@$0A@@std@@@std@@IAE?AU?$pair@PAU?$_Tree_node@U?$pair@$$CBV?$basic_string@DU?$char_traits@D@std@@V?$allocator@D@2@@std@@PAVCBones@@@std@@PAX@std@@_N@1@$$QAU?$pair@$$CBV?$basic_string@DU?$char_traits@D@std@@V?$allocator@D@2@@std@@PAVCBones@@@1@@Z$1
__ehfuncinfo$??$_Emplace@U?$pair@$$CBV?$basic_string@DU?$char_traits@D@std@@V?$allocator@D@2@@std@@PAVCBones@@@std@@@?$_Tree@V?$_Tmap_traits@V?$basic_string@DU?$char_traits@D@std@@V?$allocator@D@2@@std@@PAVCBones@@U?$less@V?$basic_string@DU?$char_traits@D@std@@V?$allocator@D@2@@std@@@2@V?$allocator@U?$pair@$$CBV?$basic_string@DU?$char_traits@D@std@@V?$allocator@D@2@@std@@PAVCBones@@@std@@@2@$0A@@std@@@std@@IAE?AU?$pair@PAU?$_Tree_node@U?$pair@$$CBV?$basic_string@DU?$char_traits@D@std@@V?$allocator@D@2@@std@@PAVCBones@@@std@@PAX@std@@_N@1@$$QAU?$pair@$$CBV?$basic_string@DU?$char_traits@D@std@@V?$allocator@D@2@@std@@PAVCBones@@@1@@Z DD 019930522H
	DD	02H
	DD	FLAT:__unwindtable$??$_Emplace@U?$pair@$$CBV?$basic_string@DU?$char_traits@D@std@@V?$allocator@D@2@@std@@PAVCBones@@@std@@@?$_Tree@V?$_Tmap_traits@V?$basic_string@DU?$char_traits@D@std@@V?$allocator@D@2@@std@@PAVCBones@@U?$less@V?$basic_string@DU?$char_traits@D@std@@V?$allocator@D@2@@std@@@2@V?$allocator@U?$pair@$$CBV?$basic_string@DU?$char_traits@D@std@@V?$allocator@D@2@@std@@PAVCBones@@@std@@@2@$0A@@std@@@std@@IAE?AU?$pair@PAU?$_Tree_node@U?$pair@$$CBV?$basic_string@DU?$char_traits@D@std@@V?$allocator@D@2@@std@@PAVCBones@@@std@@PAX@std@@_N@1@$$QAU?$pair@$$CBV?$basic_string@DU?$char_traits@D@std@@V?$allocator@D@2@@std@@PAVCBones@@@1@@Z
	DD	2 DUP(00H)
	DD	2 DUP(00H)
	DD	00H
	DD	01H
xdata$x	ENDS
;	COMDAT xdata$x
xdata$x	SEGMENT
__unwindtable$??$insert@$0A@$0A@@?$_Tree@V?$_Tmap_traits@V?$basic_string@DU?$char_traits@D@std@@V?$allocator@D@2@@std@@PAVCMotion@@U?$less@V?$basic_string@DU?$char_traits@D@std@@V?$allocator@D@2@@std@@@2@V?$allocator@U?$pair@$$CBV?$basic_string@DU?$char_traits@D@std@@V?$allocator@D@2@@std@@PAVCMotion@@@std@@@2@$0A@@std@@@std@@QAE?AU?$pair@V?$_Tree_iterator@V?$_Tree_val@U?$_Tree_simple_types@U?$pair@$$CBV?$basic_string@DU?$char_traits@D@std@@V?$allocator@D@2@@std@@PAVCMotion@@@std@@@std@@@std@@@std@@_N@1@$$QAU?$pair@$$CBV?$basic_string@DU?$char_traits@D@std@@V?$allocator@D@2@@std@@PAVCMotion@@@1@@Z DD 0ffffffffH
	DD	FLAT:__unwindfunclet$??$insert@$0A@$0A@@?$_Tree@V?$_Tmap_traits@V?$basic_string@DU?$char_traits@D@std@@V?$allocator@D@2@@std@@PAVCMotion@@U?$less@V?$basic_string@DU?$char_traits@D@std@@V?$allocator@D@2@@std@@@2@V?$allocator@U?$pair@$$CBV?$basic_string@DU?$char_traits@D@std@@V?$allocator@D@2@@std@@PAVCMotion@@@std@@@2@$0A@@std@@@std@@QAE?AU?$pair@V?$_Tree_iterator@V?$_Tree_val@U?$_Tree_simple_types@U?$pair@$$CBV?$basic_string@DU?$char_traits@D@std@@V?$allocator@D@2@@std@@PAVCMotion@@@std@@@std@@@std@@@std@@_N@1@$$QAU?$pair@$$CBV?$basic_string@DU?$char_traits@D@std@@V?$allocator@D@2@@std@@PAVCMotion@@@1@@Z$2
	DD	0ffffffffH
	DD	FLAT:__unwindfunclet$??$insert@$0A@$0A@@?$_Tree@V?$_Tmap_traits@V?$basic_string@DU?$char_traits@D@std@@V?$allocator@D@2@@std@@PAVCMotion@@U?$less@V?$basic_string@DU?$char_traits@D@std@@V?$allocator@D@2@@std@@@2@V?$allocator@U?$pair@$$CBV?$basic_string@DU?$char_traits@D@std@@V?$allocator@D@2@@std@@PAVCMotion@@@std@@@2@$0A@@std@@@std@@QAE?AU?$pair@V?$_Tree_iterator@V?$_Tree_val@U?$_Tree_simple_types@U?$pair@$$CBV?$basic_string@DU?$char_traits@D@std@@V?$allocator@D@2@@std@@PAVCMotion@@@std@@@std@@@std@@@std@@_N@1@$$QAU?$pair@$$CBV?$basic_string@DU?$char_traits@D@std@@V?$allocator@D@2@@std@@PAVCMotion@@@1@@Z$1
__ehfuncinfo$??$insert@$0A@$0A@@?$_Tree@V?$_Tmap_traits@V?$basic_string@DU?$char_traits@D@std@@V?$allocator@D@2@@std@@PAVCMotion@@U?$less@V?$basic_string@DU?$char_traits@D@std@@V?$allocator@D@2@@std@@@2@V?$allocator@U?$pair@$$CBV?$basic_string@DU?$char_traits@D@std@@V?$allocator@D@2@@std@@PAVCMotion@@@std@@@2@$0A@@std@@@std@@QAE?AU?$pair@V?$_Tree_iterator@V?$_Tree_val@U?$_Tree_simple_types@U?$pair@$$CBV?$basic_string@DU?$char_traits@D@std@@V?$allocator@D@2@@std@@PAVCMotion@@@std@@@std@@@std@@@std@@_N@1@$$QAU?$pair@$$CBV?$basic_string@DU?$char_traits@D@std@@V?$allocator@D@2@@std@@PAVCMotion@@@1@@Z DD 019930522H
	DD	02H
	DD	FLAT:__unwindtable$??$insert@$0A@$0A@@?$_Tree@V?$_Tmap_traits@V?$basic_string@DU?$char_traits@D@std@@V?$allocator@D@2@@std@@PAVCMotion@@U?$less@V?$basic_string@DU?$char_traits@D@std@@V?$allocator@D@2@@std@@@2@V?$allocator@U?$pair@$$CBV?$basic_string@DU?$char_traits@D@std@@V?$allocator@D@2@@std@@PAVCMotion@@@std@@@2@$0A@@std@@@std@@QAE?AU?$pair@V?$_Tree_iterator@V?$_Tree_val@U?$_Tree_simple_types@U?$pair@$$CBV?$basic_string@DU?$char_traits@D@std@@V?$allocator@D@2@@std@@PAVCMotion@@@std@@@std@@@std@@@std@@_N@1@$$QAU?$pair@$$CBV?$basic_string@DU?$char_traits@D@std@@V?$allocator@D@2@@std@@PAVCMotion@@@1@@Z
	DD	2 DUP(00H)
	DD	2 DUP(00H)
	DD	00H
	DD	01H
xdata$x	ENDS
;	COMDAT xdata$x
xdata$x	SEGMENT
__unwindtable$??$insert@$0A@$0A@@?$_Tree@V?$_Tmap_traits@V?$basic_string@DU?$char_traits@D@std@@V?$allocator@D@2@@std@@PAVCBones@@U?$less@V?$basic_string@DU?$char_traits@D@std@@V?$allocator@D@2@@std@@@2@V?$allocator@U?$pair@$$CBV?$basic_string@DU?$char_traits@D@std@@V?$allocator@D@2@@std@@PAVCBones@@@std@@@2@$0A@@std@@@std@@QAE?AU?$pair@V?$_Tree_iterator@V?$_Tree_val@U?$_Tree_simple_types@U?$pair@$$CBV?$basic_string@DU?$char_traits@D@std@@V?$allocator@D@2@@std@@PAVCBones@@@std@@@std@@@std@@@std@@_N@1@$$QAU?$pair@$$CBV?$basic_string@DU?$char_traits@D@std@@V?$allocator@D@2@@std@@PAVCBones@@@1@@Z DD 0ffffffffH
	DD	FLAT:__unwindfunclet$??$insert@$0A@$0A@@?$_Tree@V?$_Tmap_traits@V?$basic_string@DU?$char_traits@D@std@@V?$allocator@D@2@@std@@PAVCBones@@U?$less@V?$basic_string@DU?$char_traits@D@std@@V?$allocator@D@2@@std@@@2@V?$allocator@U?$pair@$$CBV?$basic_string@DU?$char_traits@D@std@@V?$allocator@D@2@@std@@PAVCBones@@@std@@@2@$0A@@std@@@std@@QAE?AU?$pair@V?$_Tree_iterator@V?$_Tree_val@U?$_Tree_simple_types@U?$pair@$$CBV?$basic_string@DU?$char_traits@D@std@@V?$allocator@D@2@@std@@PAVCBones@@@std@@@std@@@std@@@std@@_N@1@$$QAU?$pair@$$CBV?$basic_string@DU?$char_traits@D@std@@V?$allocator@D@2@@std@@PAVCBones@@@1@@Z$2
	DD	0ffffffffH
	DD	FLAT:__unwindfunclet$??$insert@$0A@$0A@@?$_Tree@V?$_Tmap_traits@V?$basic_string@DU?$char_traits@D@std@@V?$allocator@D@2@@std@@PAVCBones@@U?$less@V?$basic_string@DU?$char_traits@D@std@@V?$allocator@D@2@@std@@@2@V?$allocator@U?$pair@$$CBV?$basic_string@DU?$char_traits@D@std@@V?$allocator@D@2@@std@@PAVCBones@@@std@@@2@$0A@@std@@@std@@QAE?AU?$pair@V?$_Tree_iterator@V?$_Tree_val@U?$_Tree_simple_types@U?$pair@$$CBV?$basic_string@DU?$char_traits@D@std@@V?$allocator@D@2@@std@@PAVCBones@@@std@@@std@@@std@@@std@@_N@1@$$QAU?$pair@$$CBV?$basic_string@DU?$char_traits@D@std@@V?$allocator@D@2@@std@@PAVCBones@@@1@@Z$1
__ehfuncinfo$??$insert@$0A@$0A@@?$_Tree@V?$_Tmap_traits@V?$basic_string@DU?$char_traits@D@std@@V?$allocator@D@2@@std@@PAVCBones@@U?$less@V?$basic_string@DU?$char_traits@D@std@@V?$allocator@D@2@@std@@@2@V?$allocator@U?$pair@$$CBV?$basic_string@DU?$char_traits@D@std@@V?$allocator@D@2@@std@@PAVCBones@@@std@@@2@$0A@@std@@@std@@QAE?AU?$pair@V?$_Tree_iterator@V?$_Tree_val@U?$_Tree_simple_types@U?$pair@$$CBV?$basic_string@DU?$char_traits@D@std@@V?$allocator@D@2@@std@@PAVCBones@@@std@@@std@@@std@@@std@@_N@1@$$QAU?$pair@$$CBV?$basic_string@DU?$char_traits@D@std@@V?$allocator@D@2@@std@@PAVCBones@@@1@@Z DD 019930522H
	DD	02H
	DD	FLAT:__unwindtable$??$insert@$0A@$0A@@?$_Tree@V?$_Tmap_traits@V?$basic_string@DU?$char_traits@D@std@@V?$allocator@D@2@@std@@PAVCBones@@U?$less@V?$basic_string@DU?$char_traits@D@std@@V?$allocator@D@2@@std@@@2@V?$allocator@U?$pair@$$CBV?$basic_string@DU?$char_traits@D@std@@V?$allocator@D@2@@std@@PAVCBones@@@std@@@2@$0A@@std@@@std@@QAE?AU?$pair@V?$_Tree_iterator@V?$_Tree_val@U?$_Tree_simple_types@U?$pair@$$CBV?$basic_string@DU?$char_traits@D@std@@V?$allocator@D@2@@std@@PAVCBones@@@std@@@std@@@std@@@std@@_N@1@$$QAU?$pair@$$CBV?$basic_string@DU?$char_traits@D@std@@V?$allocator@D@2@@std@@PAVCBones@@@1@@Z
	DD	2 DUP(00H)
	DD	2 DUP(00H)
	DD	00H
	DD	01H
xdata$x	ENDS
;	COMDAT xdata$x
xdata$x	SEGMENT
__unwindtable$?LoadMotion@CMotionMng@@QAEPAVCMotion@@PBD@Z DD 0ffffffffH
	DD	FLAT:__unwindfunclet$?LoadMotion@CMotionMng@@QAEPAVCMotion@@PBD@Z$2
	DD	00H
	DD	FLAT:__unwindfunclet$?LoadMotion@CMotionMng@@QAEPAVCMotion@@PBD@Z$7
	DD	00H
	DD	FLAT:__unwindfunclet$?LoadMotion@CMotionMng@@QAEPAVCMotion@@PBD@Z$6
__ehfuncinfo$?LoadMotion@CMotionMng@@QAEPAVCMotion@@PBD@Z DD 019930522H
	DD	03H
	DD	FLAT:__unwindtable$?LoadMotion@CMotionMng@@QAEPAVCMotion@@PBD@Z
	DD	2 DUP(00H)
	DD	2 DUP(00H)
	DD	00H
	DD	01H
xdata$x	ENDS
;	COMDAT xdata$x
xdata$x	SEGMENT
__ehfuncinfo$?LoadMotion@CMotion@@QAEHPBD@Z DD 019930522H
	DD	07H
	DD	FLAT:__unwindtable$?LoadMotion@CMotion@@QAEHPBD@Z
	DD	2 DUP(00H)
	DD	2 DUP(00H)
	DD	00H
	DD	01H
__unwindtable$?LoadMotion@CMotion@@QAEHPBD@Z DD 0ffffffffH
	DD	FLAT:__unwindfunclet$?LoadMotion@CMotion@@QAEHPBD@Z$0
	DD	00H
	DD	FLAT:__unwindfunclet$?LoadMotion@CMotion@@QAEHPBD@Z$1
	DD	0ffffffffH
	DD	00H
	DD	0ffffffffH
	DD	00H
	DD	0ffffffffH
	DD	00H
	DD	0ffffffffH
	DD	00H
	DD	0ffffffffH
	DD	FLAT:___std_terminate
xdata$x	ENDS
;	COMDAT xdata$x
xdata$x	SEGMENT
__unwindtable$?LoadBone@CBonesMng@@QAEPAVCBones@@PBD@Z DD 0ffffffffH
	DD	FLAT:__unwindfunclet$?LoadBone@CBonesMng@@QAEPAVCBones@@PBD@Z$2
	DD	00H
	DD	FLAT:__unwindfunclet$?LoadBone@CBonesMng@@QAEPAVCBones@@PBD@Z$7
	DD	00H
	DD	FLAT:__unwindfunclet$?LoadBone@CBonesMng@@QAEPAVCBones@@PBD@Z$6
__ehfuncinfo$?LoadBone@CBonesMng@@QAEPAVCBones@@PBD@Z DD 019930522H
	DD	03H
	DD	FLAT:__unwindtable$?LoadBone@CBonesMng@@QAEPAVCBones@@PBD@Z
	DD	2 DUP(00H)
	DD	2 DUP(00H)
	DD	00H
	DD	01H
xdata$x	ENDS
;	COMDAT xdata$x
xdata$x	SEGMENT
__ehfuncinfo$?LoadBone@CBones@@QAEHPBD@Z DD 019930522H
	DD	06H
	DD	FLAT:__unwindtable$?LoadBone@CBones@@QAEHPBD@Z
	DD	2 DUP(00H)
	DD	2 DUP(00H)
	DD	00H
	DD	01H
__unwindtable$?LoadBone@CBones@@QAEHPBD@Z DD 0ffffffffH
	DD	FLAT:__unwindfunclet$?LoadBone@CBones@@QAEHPBD@Z$0
	DD	00H
	DD	FLAT:__unwindfunclet$?LoadBone@CBones@@QAEHPBD@Z$1
	DD	0ffffffffH
	DD	00H
	DD	0ffffffffH
	DD	00H
	DD	0ffffffffH
	DD	00H
	DD	0ffffffffH
	DD	FLAT:___std_terminate
xdata$x	ENDS
;	COMDAT xdata$x
xdata$x	SEGMENT
__unwindtable$??_GCFileIO@@UAEPAXI@Z DD 0ffffffffH
	DD	FLAT:___std_terminate
__ehfuncinfo$??_GCFileIO@@UAEPAXI@Z DD 019930522H
	DD	01H
	DD	FLAT:__unwindtable$??_GCFileIO@@UAEPAXI@Z
	DD	2 DUP(00H)
	DD	2 DUP(00H)
	DD	00H
	DD	05H
xdata$x	ENDS
;	COMDAT xdata$x
xdata$x	SEGMENT
__ehfuncinfo$??1CFileIO@@UAE@XZ DD 019930522H
	DD	00H
	DD	00H
	DD	2 DUP(00H)
	DD	2 DUP(00H)
	DD	00H
	DD	05H
xdata$x	ENDS
CRT$XCU	SEGMENT
?g_MotionMng$initializer$@@3P6AXXZA DD FLAT:??__Eg_MotionMng@@YAXXZ ; g_MotionMng$initializer$
CRT$XCU	ENDS
; Function compile flags: /Ogtp
; File C:\Program Files\Microsoft Visual Studio\2022\Professional\VC\Tools\MSVC\14.44.35207\include\xmemory
;	COMDAT ??1?$_Tree_temp_node_alloc@V?$allocator@U?$_Tree_node@U?$pair@$$CBV?$basic_string@DU?$char_traits@D@std@@V?$allocator@D@2@@std@@PAVCMotion@@@std@@PAX@std@@@std@@@std@@QAE@XZ
_TEXT	SEGMENT
??1?$_Tree_temp_node_alloc@V?$allocator@U?$_Tree_node@U?$pair@$$CBV?$basic_string@DU?$char_traits@D@std@@V?$allocator@D@2@@std@@PAVCMotion@@@std@@PAX@std@@@std@@@std@@QAE@XZ PROC ; std::_Tree_temp_node_alloc<std::allocator<std::_Tree_node<std::pair<std::basic_string<char,std::char_traits<char>,std::allocator<char> > const ,CMotion *>,void *> > >::~_Tree_temp_node_alloc<std::allocator<std::_Tree_node<std::pair<std::basic_string<char,std::char_traits<char>,std::allocator<char> > const ,CMotion *>,void *> > >, COMDAT
; _this$ = ecx

; 1172 :         if (_Ptr) {

  00000	8b 41 04	 mov	 eax, DWORD PTR [ecx+4]
  00003	85 c0		 test	 eax, eax
  00005	74 0b		 je	 SHORT $LN13@Tree_temp_

; 289  :         ::operator delete(_Ptr, _Bytes);

  00007	6a 2c		 push	 44			; 0000002cH
  00009	50		 push	 eax
  0000a	e8 00 00 00 00	 call	 ??3@YAXPAXI@Z		; operator delete
  0000f	83 c4 08	 add	 esp, 8
$LN13@Tree_temp_:
  00012	c3		 ret	 0
??1?$_Tree_temp_node_alloc@V?$allocator@U?$_Tree_node@U?$pair@$$CBV?$basic_string@DU?$char_traits@D@std@@V?$allocator@D@2@@std@@PAVCMotion@@@std@@PAX@std@@@std@@@std@@QAE@XZ ENDP ; std::_Tree_temp_node_alloc<std::allocator<std::_Tree_node<std::pair<std::basic_string<char,std::char_traits<char>,std::allocator<char> > const ,CMotion *>,void *> > >::~_Tree_temp_node_alloc<std::allocator<std::_Tree_node<std::pair<std::basic_string<char,std::char_traits<char>,std::allocator<char> > const ,CMotion *>,void *> > >
_TEXT	ENDS
; Function compile flags: /Ogtp
; File C:\Program Files\Microsoft Visual Studio\2022\Professional\VC\Tools\MSVC\14.44.35207\include\xmemory
;	COMDAT ??1?$_Alloc_construct_ptr@V?$allocator@U?$_Tree_node@U?$pair@$$CBV?$basic_string@DU?$char_traits@D@std@@V?$allocator@D@2@@std@@PAVCMotion@@@std@@PAX@std@@@std@@@std@@QAE@XZ
_TEXT	SEGMENT
??1?$_Alloc_construct_ptr@V?$allocator@U?$_Tree_node@U?$pair@$$CBV?$basic_string@DU?$char_traits@D@std@@V?$allocator@D@2@@std@@PAVCMotion@@@std@@PAX@std@@@std@@@std@@QAE@XZ PROC ; std::_Alloc_construct_ptr<std::allocator<std::_Tree_node<std::pair<std::basic_string<char,std::char_traits<char>,std::allocator<char> > const ,CMotion *>,void *> > >::~_Alloc_construct_ptr<std::allocator<std::_Tree_node<std::pair<std::basic_string<char,std::char_traits<char>,std::allocator<char> > const ,CMotion *>,void *> > >, COMDAT
; _this$ = ecx

; 1172 :         if (_Ptr) {

  00000	8b 41 04	 mov	 eax, DWORD PTR [ecx+4]
  00003	85 c0		 test	 eax, eax
  00005	74 0b		 je	 SHORT $LN10@Alloc_cons

; 289  :         ::operator delete(_Ptr, _Bytes);

  00007	6a 2c		 push	 44			; 0000002cH
  00009	50		 push	 eax
  0000a	e8 00 00 00 00	 call	 ??3@YAXPAXI@Z		; operator delete
  0000f	83 c4 08	 add	 esp, 8
$LN10@Alloc_cons:

; 1173 :             _Al.deallocate(_Ptr, 1);
; 1174 :         }
; 1175 :     }

  00012	c3		 ret	 0
??1?$_Alloc_construct_ptr@V?$allocator@U?$_Tree_node@U?$pair@$$CBV?$basic_string@DU?$char_traits@D@std@@V?$allocator@D@2@@std@@PAVCMotion@@@std@@PAX@std@@@std@@@std@@QAE@XZ ENDP ; std::_Alloc_construct_ptr<std::allocator<std::_Tree_node<std::pair<std::basic_string<char,std::char_traits<char>,std::allocator<char> > const ,CMotion *>,void *> > >::~_Alloc_construct_ptr<std::allocator<std::_Tree_node<std::pair<std::basic_string<char,std::char_traits<char>,std::allocator<char> > const ,CMotion *>,void *> > >
_TEXT	ENDS
; Function compile flags: /Ogtp
; File C:\Program Files\Microsoft Visual Studio\2022\Professional\VC\Tools\MSVC\14.44.35207\include\xtree
; File C:\Program Files\Microsoft Visual Studio\2022\Professional\VC\Tools\MSVC\14.44.35207\include\type_traits
; File C:\Program Files\Microsoft Visual Studio\2022\Professional\VC\Tools\MSVC\14.44.35207\include\xtree
;	COMDAT ??$_Find_lower_bound@V?$basic_string@DU?$char_traits@D@std@@V?$allocator@D@2@@std@@@?$_Tree@V?$_Tmap_traits@V?$basic_string@DU?$char_traits@D@std@@V?$allocator@D@2@@std@@PAVCMotion@@U?$less@V?$basic_string@DU?$char_traits@D@std@@V?$allocator@D@2@@std@@@2@V?$allocator@U?$pair@$$CBV?$basic_string@DU?$char_traits@D@std@@V?$allocator@D@2@@std@@PAVCMotion@@@std@@@2@$0A@@std@@@std@@IBE?AU?$_Tree_find_result@PAU?$_Tree_node@U?$pair@$$CBV?$basic_string@DU?$char_traits@D@std@@V?$allocator@D@2@@std@@PAVCMotion@@@std@@PAX@std@@@1@ABV?$basic_string@DU?$char_traits@D@std@@V?$allocator@D@2@@1@@Z
_TEXT	SEGMENT
___$ReturnUdt$ = 8					; size = 4
__Keyval$ = 12						; size = 4
??$_Find_lower_bound@V?$basic_string@DU?$char_traits@D@std@@V?$allocator@D@2@@std@@@?$_Tree@V?$_Tmap_traits@V?$basic_string@DU?$char_traits@D@std@@V?$allocator@D@2@@std@@PAVCMotion@@U?$less@V?$basic_string@DU?$char_traits@D@std@@V?$allocator@D@2@@std@@@2@V?$allocator@U?$pair@$$CBV?$basic_string@DU?$char_traits@D@std@@V?$allocator@D@2@@std@@PAVCMotion@@@std@@@2@$0A@@std@@@std@@IBE?AU?$_Tree_find_result@PAU?$_Tree_node@U?$pair@$$CBV?$basic_string@DU?$char_traits@D@std@@V?$allocator@D@2@@std@@PAVCMotion@@@std@@PAX@std@@@1@ABV?$basic_string@DU?$char_traits@D@std@@V?$allocator@D@2@@1@@Z PROC ; std::_Tree<std::_Tmap_traits<std::basic_string<char,std::char_traits<char>,std::allocator<char> >,CMotion *,std::less<std::basic_string<char,std::char_traits<char>,std::allocator<char> > >,std::allocator<std::pair<std::basic_string<char,std::char_traits<char>,std::allocator<char> > const ,CMotion *> >,0> >::_Find_lower_bound<std::basic_string<char,std::char_traits<char>,std::allocator<char> > >, COMDAT
; _this$ = ecx

; 1628 :     _Tree_find_result<_Nodeptr> _Find_lower_bound(const _Keyty& _Keyval) const {

  00000	55		 push	 ebp
  00001	8b ec		 mov	 ebp, esp

; 1629 :         const auto _Scary = _Get_scary();
; 1630 :         _Tree_find_result<_Nodeptr> _Result{{_Scary->_Myhead->_Parent, _Tree_child::_Right}, _Scary->_Myhead};

  00003	8b 01		 mov	 eax, DWORD PTR [ecx]
  00005	56		 push	 esi
  00006	57		 push	 edi
  00007	8b 7d 08	 mov	 edi, DWORD PTR ___$ReturnUdt$[ebp]
  0000a	8b 70 04	 mov	 esi, DWORD PTR [eax+4]
  0000d	89 37		 mov	 DWORD PTR [edi], esi

; 1631 :         _Nodeptr _Trynode = _Result._Location._Parent;
; 1632 :         while (!_Trynode->_Isnil) {

  0000f	80 7e 0d 00	 cmp	 BYTE PTR [esi+13], 0
  00013	c7 47 04 00 00
	00 00		 mov	 DWORD PTR [edi+4], 0
  0001a	89 47 08	 mov	 DWORD PTR [edi+8], eax
  0001d	75 32		 jne	 SHORT $LN13@Find_lower
  0001f	53		 push	 ebx
  00020	8b 5d 0c	 mov	 ebx, DWORD PTR __Keyval$[ebp]
$LL2@Find_lower:

; 1634 :             if (_DEBUG_LT_PRED(_Getcomp(), _Traits::_Kfn(_Trynode->_Myval), _Keyval)) {

  00023	8d 46 10	 lea	 eax, DWORD PTR [esi+16]
  00026	89 37		 mov	 DWORD PTR [edi], esi
; File C:\Program Files\Microsoft Visual Studio\2022\Professional\VC\Tools\MSVC\14.44.35207\include\type_traits

; 2380 :         return _Left < _Right;

  00028	53		 push	 ebx
  00029	50		 push	 eax
  0002a	e8 00 00 00 00	 call	 ??$?MDU?$char_traits@D@std@@V?$allocator@D@1@@std@@YA_NABV?$basic_string@DU?$char_traits@D@std@@V?$allocator@D@2@@0@0@Z ; std::operator<<char,std::char_traits<char>,std::allocator<char> >
  0002f	83 c4 08	 add	 esp, 8
; File C:\Program Files\Microsoft Visual Studio\2022\Professional\VC\Tools\MSVC\14.44.35207\include\xtree

; 1634 :             if (_DEBUG_LT_PRED(_Getcomp(), _Traits::_Kfn(_Trynode->_Myval), _Keyval)) {

  00032	84 c0		 test	 al, al
  00034	74 07		 je	 SHORT $LN4@Find_lower

; 1635 :                 _Result._Location._Child = _Tree_child::_Right;
; 1636 :                 _Trynode                 = _Trynode->_Right;

  00036	8b 76 08	 mov	 esi, DWORD PTR [esi+8]
  00039	33 c0		 xor	 eax, eax

; 1637 :             } else {

  0003b	eb 0a		 jmp	 SHORT $LN5@Find_lower
$LN4@Find_lower:

; 1638 :                 _Result._Location._Child = _Tree_child::_Left;
; 1639 :                 _Result._Bound           = _Trynode;

  0003d	89 77 08	 mov	 DWORD PTR [edi+8], esi

; 1640 :                 _Trynode                 = _Trynode->_Left;

  00040	b8 01 00 00 00	 mov	 eax, 1
  00045	8b 36		 mov	 esi, DWORD PTR [esi]
$LN5@Find_lower:

; 1631 :         _Nodeptr _Trynode = _Result._Location._Parent;
; 1632 :         while (!_Trynode->_Isnil) {

  00047	89 47 04	 mov	 DWORD PTR [edi+4], eax
  0004a	80 7e 0d 00	 cmp	 BYTE PTR [esi+13], 0
  0004e	74 d3		 je	 SHORT $LL2@Find_lower
  00050	5b		 pop	 ebx
$LN13@Find_lower:

; 1641 :             }
; 1642 :         }
; 1643 : 
; 1644 :         return _Result;
; 1645 :     }

  00051	8b c7		 mov	 eax, edi
  00053	5f		 pop	 edi
  00054	5e		 pop	 esi
  00055	5d		 pop	 ebp
  00056	c2 08 00	 ret	 8
??$_Find_lower_bound@V?$basic_string@DU?$char_traits@D@std@@V?$allocator@D@2@@std@@@?$_Tree@V?$_Tmap_traits@V?$basic_string@DU?$char_traits@D@std@@V?$allocator@D@2@@std@@PAVCMotion@@U?$less@V?$basic_string@DU?$char_traits@D@std@@V?$allocator@D@2@@std@@@2@V?$allocator@U?$pair@$$CBV?$basic_string@DU?$char_traits@D@std@@V?$allocator@D@2@@std@@PAVCMotion@@@std@@@2@$0A@@std@@@std@@IBE?AU?$_Tree_find_result@PAU?$_Tree_node@U?$pair@$$CBV?$basic_string@DU?$char_traits@D@std@@V?$allocator@D@2@@std@@PAVCMotion@@@std@@PAX@std@@@1@ABV?$basic_string@DU?$char_traits@D@std@@V?$allocator@D@2@@1@@Z ENDP ; std::_Tree<std::_Tmap_traits<std::basic_string<char,std::char_traits<char>,std::allocator<char> >,CMotion *,std::less<std::basic_string<char,std::char_traits<char>,std::allocator<char> > >,std::allocator<std::pair<std::basic_string<char,std::char_traits<char>,std::allocator<char> > const ,CMotion *> >,0> >::_Find_lower_bound<std::basic_string<char,std::char_traits<char>,std::allocator<char> > >
_TEXT	ENDS
; Function compile flags: /Ogtp
; File C:\Program Files\Microsoft Visual Studio\2022\Professional\VC\Tools\MSVC\14.44.35207\include\xmemory
;	COMDAT ??1?$_Tree_temp_node_alloc@V?$allocator@U?$_Tree_node@U?$pair@$$CBV?$basic_string@DU?$char_traits@D@std@@V?$allocator@D@2@@std@@PAVCBones@@@std@@PAX@std@@@std@@@std@@QAE@XZ
_TEXT	SEGMENT
??1?$_Tree_temp_node_alloc@V?$allocator@U?$_Tree_node@U?$pair@$$CBV?$basic_string@DU?$char_traits@D@std@@V?$allocator@D@2@@std@@PAVCBones@@@std@@PAX@std@@@std@@@std@@QAE@XZ PROC ; std::_Tree_temp_node_alloc<std::allocator<std::_Tree_node<std::pair<std::basic_string<char,std::char_traits<char>,std::allocator<char> > const ,CBones *>,void *> > >::~_Tree_temp_node_alloc<std::allocator<std::_Tree_node<std::pair<std::basic_string<char,std::char_traits<char>,std::allocator<char> > const ,CBones *>,void *> > >, COMDAT
; _this$ = ecx

; 1172 :         if (_Ptr) {

  00000	8b 41 04	 mov	 eax, DWORD PTR [ecx+4]
  00003	85 c0		 test	 eax, eax
  00005	74 0b		 je	 SHORT $LN13@Tree_temp_

; 289  :         ::operator delete(_Ptr, _Bytes);

  00007	6a 2c		 push	 44			; 0000002cH
  00009	50		 push	 eax
  0000a	e8 00 00 00 00	 call	 ??3@YAXPAXI@Z		; operator delete
  0000f	83 c4 08	 add	 esp, 8
$LN13@Tree_temp_:
  00012	c3		 ret	 0
??1?$_Tree_temp_node_alloc@V?$allocator@U?$_Tree_node@U?$pair@$$CBV?$basic_string@DU?$char_traits@D@std@@V?$allocator@D@2@@std@@PAVCBones@@@std@@PAX@std@@@std@@@std@@QAE@XZ ENDP ; std::_Tree_temp_node_alloc<std::allocator<std::_Tree_node<std::pair<std::basic_string<char,std::char_traits<char>,std::allocator<char> > const ,CBones *>,void *> > >::~_Tree_temp_node_alloc<std::allocator<std::_Tree_node<std::pair<std::basic_string<char,std::char_traits<char>,std::allocator<char> > const ,CBones *>,void *> > >
_TEXT	ENDS
; Function compile flags: /Ogtp
; File C:\Program Files\Microsoft Visual Studio\2022\Professional\VC\Tools\MSVC\14.44.35207\include\xmemory
;	COMDAT ??1?$_Alloc_construct_ptr@V?$allocator@U?$_Tree_node@U?$pair@$$CBV?$basic_string@DU?$char_traits@D@std@@V?$allocator@D@2@@std@@PAVCBones@@@std@@PAX@std@@@std@@@std@@QAE@XZ
_TEXT	SEGMENT
??1?$_Alloc_construct_ptr@V?$allocator@U?$_Tree_node@U?$pair@$$CBV?$basic_string@DU?$char_traits@D@std@@V?$allocator@D@2@@std@@PAVCBones@@@std@@PAX@std@@@std@@@std@@QAE@XZ PROC ; std::_Alloc_construct_ptr<std::allocator<std::_Tree_node<std::pair<std::basic_string<char,std::char_traits<char>,std::allocator<char> > const ,CBones *>,void *> > >::~_Alloc_construct_ptr<std::allocator<std::_Tree_node<std::pair<std::basic_string<char,std::char_traits<char>,std::allocator<char> > const ,CBones *>,void *> > >, COMDAT
; _this$ = ecx

; 1172 :         if (_Ptr) {

  00000	8b 41 04	 mov	 eax, DWORD PTR [ecx+4]
  00003	85 c0		 test	 eax, eax
  00005	74 0b		 je	 SHORT $LN10@Alloc_cons

; 289  :         ::operator delete(_Ptr, _Bytes);

  00007	6a 2c		 push	 44			; 0000002cH
  00009	50		 push	 eax
  0000a	e8 00 00 00 00	 call	 ??3@YAXPAXI@Z		; operator delete
  0000f	83 c4 08	 add	 esp, 8
$LN10@Alloc_cons:

; 1173 :             _Al.deallocate(_Ptr, 1);
; 1174 :         }
; 1175 :     }

  00012	c3		 ret	 0
??1?$_Alloc_construct_ptr@V?$allocator@U?$_Tree_node@U?$pair@$$CBV?$basic_string@DU?$char_traits@D@std@@V?$allocator@D@2@@std@@PAVCBones@@@std@@PAX@std@@@std@@@std@@QAE@XZ ENDP ; std::_Alloc_construct_ptr<std::allocator<std::_Tree_node<std::pair<std::basic_string<char,std::char_traits<char>,std::allocator<char> > const ,CBones *>,void *> > >::~_Alloc_construct_ptr<std::allocator<std::_Tree_node<std::pair<std::basic_string<char,std::char_traits<char>,std::allocator<char> > const ,CBones *>,void *> > >
_TEXT	ENDS
; Function compile flags: /Ogtp
; File C:\Program Files\Microsoft Visual Studio\2022\Professional\VC\Tools\MSVC\14.44.35207\include\xtree
; File C:\Program Files\Microsoft Visual Studio\2022\Professional\VC\Tools\MSVC\14.44.35207\include\type_traits
; File C:\Program Files\Microsoft Visual Studio\2022\Professional\VC\Tools\MSVC\14.44.35207\include\xtree
;	COMDAT ??$_Find_lower_bound@V?$basic_string@DU?$char_traits@D@std@@V?$allocator@D@2@@std@@@?$_Tree@V?$_Tmap_traits@V?$basic_string@DU?$char_traits@D@std@@V?$allocator@D@2@@std@@PAVCBones@@U?$less@V?$basic_string@DU?$char_traits@D@std@@V?$allocator@D@2@@std@@@2@V?$allocator@U?$pair@$$CBV?$basic_string@DU?$char_traits@D@std@@V?$allocator@D@2@@std@@PAVCBones@@@std@@@2@$0A@@std@@@std@@IBE?AU?$_Tree_find_result@PAU?$_Tree_node@U?$pair@$$CBV?$basic_string@DU?$char_traits@D@std@@V?$allocator@D@2@@std@@PAVCBones@@@std@@PAX@std@@@1@ABV?$basic_string@DU?$char_traits@D@std@@V?$allocator@D@2@@1@@Z
_TEXT	SEGMENT
___$ReturnUdt$ = 8					; size = 4
__Keyval$ = 12						; size = 4
??$_Find_lower_bound@V?$basic_string@DU?$char_traits@D@std@@V?$allocator@D@2@@std@@@?$_Tree@V?$_Tmap_traits@V?$basic_string@DU?$char_traits@D@std@@V?$allocator@D@2@@std@@PAVCBones@@U?$less@V?$basic_string@DU?$char_traits@D@std@@V?$allocator@D@2@@std@@@2@V?$allocator@U?$pair@$$CBV?$basic_string@DU?$char_traits@D@std@@V?$allocator@D@2@@std@@PAVCBones@@@std@@@2@$0A@@std@@@std@@IBE?AU?$_Tree_find_result@PAU?$_Tree_node@U?$pair@$$CBV?$basic_string@DU?$char_traits@D@std@@V?$allocator@D@2@@std@@PAVCBones@@@std@@PAX@std@@@1@ABV?$basic_string@DU?$char_traits@D@std@@V?$allocator@D@2@@1@@Z PROC ; std::_Tree<std::_Tmap_traits<std::basic_string<char,std::char_traits<char>,std::allocator<char> >,CBones *,std::less<std::basic_string<char,std::char_traits<char>,std::allocator<char> > >,std::allocator<std::pair<std::basic_string<char,std::char_traits<char>,std::allocator<char> > const ,CBones *> >,0> >::_Find_lower_bound<std::basic_string<char,std::char_traits<char>,std::allocator<char> > >, COMDAT
; _this$ = ecx

; 1628 :     _Tree_find_result<_Nodeptr> _Find_lower_bound(const _Keyty& _Keyval) const {

  00000	55		 push	 ebp
  00001	8b ec		 mov	 ebp, esp

; 1629 :         const auto _Scary = _Get_scary();
; 1630 :         _Tree_find_result<_Nodeptr> _Result{{_Scary->_Myhead->_Parent, _Tree_child::_Right}, _Scary->_Myhead};

  00003	8b 01		 mov	 eax, DWORD PTR [ecx]
  00005	56		 push	 esi
  00006	57		 push	 edi
  00007	8b 7d 08	 mov	 edi, DWORD PTR ___$ReturnUdt$[ebp]
  0000a	8b 70 04	 mov	 esi, DWORD PTR [eax+4]
  0000d	89 37		 mov	 DWORD PTR [edi], esi

; 1631 :         _Nodeptr _Trynode = _Result._Location._Parent;
; 1632 :         while (!_Trynode->_Isnil) {

  0000f	80 7e 0d 00	 cmp	 BYTE PTR [esi+13], 0
  00013	c7 47 04 00 00
	00 00		 mov	 DWORD PTR [edi+4], 0
  0001a	89 47 08	 mov	 DWORD PTR [edi+8], eax
  0001d	75 32		 jne	 SHORT $LN13@Find_lower
  0001f	53		 push	 ebx
  00020	8b 5d 0c	 mov	 ebx, DWORD PTR __Keyval$[ebp]
$LL2@Find_lower:

; 1634 :             if (_DEBUG_LT_PRED(_Getcomp(), _Traits::_Kfn(_Trynode->_Myval), _Keyval)) {

  00023	8d 46 10	 lea	 eax, DWORD PTR [esi+16]
  00026	89 37		 mov	 DWORD PTR [edi], esi
; File C:\Program Files\Microsoft Visual Studio\2022\Professional\VC\Tools\MSVC\14.44.35207\include\type_traits

; 2380 :         return _Left < _Right;

  00028	53		 push	 ebx
  00029	50		 push	 eax
  0002a	e8 00 00 00 00	 call	 ??$?MDU?$char_traits@D@std@@V?$allocator@D@1@@std@@YA_NABV?$basic_string@DU?$char_traits@D@std@@V?$allocator@D@2@@0@0@Z ; std::operator<<char,std::char_traits<char>,std::allocator<char> >
  0002f	83 c4 08	 add	 esp, 8
; File C:\Program Files\Microsoft Visual Studio\2022\Professional\VC\Tools\MSVC\14.44.35207\include\xtree

; 1634 :             if (_DEBUG_LT_PRED(_Getcomp(), _Traits::_Kfn(_Trynode->_Myval), _Keyval)) {

  00032	84 c0		 test	 al, al
  00034	74 07		 je	 SHORT $LN4@Find_lower

; 1635 :                 _Result._Location._Child = _Tree_child::_Right;
; 1636 :                 _Trynode                 = _Trynode->_Right;

  00036	8b 76 08	 mov	 esi, DWORD PTR [esi+8]
  00039	33 c0		 xor	 eax, eax

; 1637 :             } else {

  0003b	eb 0a		 jmp	 SHORT $LN5@Find_lower
$LN4@Find_lower:

; 1638 :                 _Result._Location._Child = _Tree_child::_Left;
; 1639 :                 _Result._Bound           = _Trynode;

  0003d	89 77 08	 mov	 DWORD PTR [edi+8], esi

; 1640 :                 _Trynode                 = _Trynode->_Left;

  00040	b8 01 00 00 00	 mov	 eax, 1
  00045	8b 36		 mov	 esi, DWORD PTR [esi]
$LN5@Find_lower:

; 1631 :         _Nodeptr _Trynode = _Result._Location._Parent;
; 1632 :         while (!_Trynode->_Isnil) {

  00047	89 47 04	 mov	 DWORD PTR [edi+4], eax
  0004a	80 7e 0d 00	 cmp	 BYTE PTR [esi+13], 0
  0004e	74 d3		 je	 SHORT $LL2@Find_lower
  00050	5b		 pop	 ebx
$LN13@Find_lower:

; 1641 :             }
; 1642 :         }
; 1643 : 
; 1644 :         return _Result;
; 1645 :     }

  00051	8b c7		 mov	 eax, edi
  00053	5f		 pop	 edi
  00054	5e		 pop	 esi
  00055	5d		 pop	 ebp
  00056	c2 08 00	 ret	 8
??$_Find_lower_bound@V?$basic_string@DU?$char_traits@D@std@@V?$allocator@D@2@@std@@@?$_Tree@V?$_Tmap_traits@V?$basic_string@DU?$char_traits@D@std@@V?$allocator@D@2@@std@@PAVCBones@@U?$less@V?$basic_string@DU?$char_traits@D@std@@V?$allocator@D@2@@std@@@2@V?$allocator@U?$pair@$$CBV?$basic_string@DU?$char_traits@D@std@@V?$allocator@D@2@@std@@PAVCBones@@@std@@@2@$0A@@std@@@std@@IBE?AU?$_Tree_find_result@PAU?$_Tree_node@U?$pair@$$CBV?$basic_string@DU?$char_traits@D@std@@V?$allocator@D@2@@std@@PAVCBones@@@std@@PAX@std@@@1@ABV?$basic_string@DU?$char_traits@D@std@@V?$allocator@D@2@@1@@Z ENDP ; std::_Tree<std::_Tmap_traits<std::basic_string<char,std::char_traits<char>,std::allocator<char> >,CBones *,std::less<std::basic_string<char,std::char_traits<char>,std::allocator<char> > >,std::allocator<std::pair<std::basic_string<char,std::char_traits<char>,std::allocator<char> > const ,CBones *> >,0> >::_Find_lower_bound<std::basic_string<char,std::char_traits<char>,std::allocator<char> > >
_TEXT	ENDS
; Function compile flags: /Ogtp
; File C:\Program Files\Microsoft Visual Studio\2022\Professional\VC\Tools\MSVC\14.44.35207\include\xtree
; File C:\Program Files\Microsoft Visual Studio\2022\Professional\VC\Tools\MSVC\14.44.35207\include\utility
; File C:\Program Files\Microsoft Visual Studio\2022\Professional\VC\Tools\MSVC\14.44.35207\include\xtree
; File C:\Program Files\Microsoft Visual Studio\2022\Professional\VC\Tools\MSVC\14.44.35207\include\xmemory
; File C:\Program Files\Microsoft Visual Studio\2022\Professional\VC\Tools\MSVC\14.44.35207\include\xtree
; File C:\Program Files\Microsoft Visual Studio\2022\Professional\VC\Tools\MSVC\14.44.35207\include\xmemory
; File C:\Program Files\Microsoft Visual Studio\2022\Professional\VC\Tools\MSVC\14.44.35207\include\xtree
;	COMDAT ??$_Erase_tree@V?$allocator@U?$_Tree_node@U?$pair@$$CBV?$basic_string@DU?$char_traits@D@std@@V?$allocator@D@2@@std@@PAVCBones@@@std@@PAX@std@@@std@@@?$_Tree_val@U?$_Tree_simple_types@U?$pair@$$CBV?$basic_string@DU?$char_traits@D@std@@V?$allocator@D@2@@std@@PAVCBones@@@std@@@std@@@std@@QAEXAAV?$allocator@U?$_Tree_node@U?$pair@$$CBV?$basic_string@DU?$char_traits@D@std@@V?$allocator@D@2@@std@@PAVCBones@@@std@@PAX@std@@@1@PAU?$_Tree_node@U?$pair@$$CBV?$basic_string@DU?$char_traits@D@std@@V?$allocator@D@2@@std@@PAVCBones@@@std@@PAX@1@@Z
_TEXT	SEGMENT
_this$1$ = -4						; size = 4
__Al$ = 8						; size = 4
__Rootnode$ = 12					; size = 4
??$_Erase_tree@V?$allocator@U?$_Tree_node@U?$pair@$$CBV?$basic_string@DU?$char_traits@D@std@@V?$allocator@D@2@@std@@PAVCBones@@@std@@PAX@std@@@std@@@?$_Tree_val@U?$_Tree_simple_types@U?$pair@$$CBV?$basic_string@DU?$char_traits@D@std@@V?$allocator@D@2@@std@@PAVCBones@@@std@@@std@@@std@@QAEXAAV?$allocator@U?$_Tree_node@U?$pair@$$CBV?$basic_string@DU?$char_traits@D@std@@V?$allocator@D@2@@std@@PAVCBones@@@std@@PAX@std@@@1@PAU?$_Tree_node@U?$pair@$$CBV?$basic_string@DU?$char_traits@D@std@@V?$allocator@D@2@@std@@PAVCBones@@@std@@PAX@1@@Z PROC ; std::_Tree_val<std::_Tree_simple_types<std::pair<std::basic_string<char,std::char_traits<char>,std::allocator<char> > const ,CBones *> > >::_Erase_tree<std::allocator<std::_Tree_node<std::pair<std::basic_string<char,std::char_traits<char>,std::allocator<char> > const ,CBones *>,void *> > >, COMDAT
; _this$ = ecx

; 767  :     void _Erase_tree(_Alnode& _Al, _Nodeptr _Rootnode) noexcept {

  00000	55		 push	 ebp
  00001	8b ec		 mov	 ebp, esp
  00003	51		 push	 ecx
  00004	56		 push	 esi

; 768  :         while (!_Rootnode->_Isnil) { // free subtrees, then node

  00005	8b 75 0c	 mov	 esi, DWORD PTR __Rootnode$[ebp]
  00008	8b c1		 mov	 eax, ecx
  0000a	89 45 fc	 mov	 DWORD PTR _this$1$[ebp], eax
  0000d	80 7e 0d 00	 cmp	 BYTE PTR [esi+13], 0
  00011	75 32		 jne	 SHORT $LN45@Erase_tree
  00013	53		 push	 ebx
  00014	8b 5d 08	 mov	 ebx, DWORD PTR __Al$[ebp]
  00017	57		 push	 edi
$LL2@Erase_tree:

; 769  :             _Erase_tree(_Al, _Rootnode->_Right);

  00018	ff 76 08	 push	 DWORD PTR [esi+8]
  0001b	8b c8		 mov	 ecx, eax
  0001d	53		 push	 ebx
  0001e	e8 00 00 00 00	 call	 ??$_Erase_tree@V?$allocator@U?$_Tree_node@U?$pair@$$CBV?$basic_string@DU?$char_traits@D@std@@V?$allocator@D@2@@std@@PAVCBones@@@std@@PAX@std@@@std@@@?$_Tree_val@U?$_Tree_simple_types@U?$pair@$$CBV?$basic_string@DU?$char_traits@D@std@@V?$allocator@D@2@@std@@PAVCBones@@@std@@@std@@@std@@QAEXAAV?$allocator@U?$_Tree_node@U?$pair@$$CBV?$basic_string@DU?$char_traits@D@std@@V?$allocator@D@2@@std@@PAVCBones@@@std@@PAX@std@@@1@PAU?$_Tree_node@U?$pair@$$CBV?$basic_string@DU?$char_traits@D@std@@V?$allocator@D@2@@std@@PAVCBones@@@std@@PAX@1@@Z ; std::_Tree_val<std::_Tree_simple_types<std::pair<std::basic_string<char,std::char_traits<char>,std::allocator<char> > const ,CBones *> > >::_Erase_tree<std::allocator<std::_Tree_node<std::pair<std::basic_string<char,std::char_traits<char>,std::allocator<char> > const ,CBones *>,void *> > >
; File C:\Program Files\Microsoft Visual Studio\2022\Professional\VC\Tools\MSVC\14.44.35207\include\utility

; 773  :     _Ty _Old_val = static_cast<_Ty&&>(_Val);

  00023	8b fe		 mov	 edi, esi

; 774  :     _Val         = static_cast<_Other&&>(_New_val);

  00025	8b 36		 mov	 esi, DWORD PTR [esi]
; File C:\Program Files\Microsoft Visual Studio\2022\Professional\VC\Tools\MSVC\14.44.35207\include\xtree

; 381  :         allocator_traits<_Alloc>::destroy(_Al, _STD addressof(_Ptr->_Myval));

  00027	8d 4f 10	 lea	 ecx, DWORD PTR [edi+16]
  0002a	e8 00 00 00 00	 call	 ??1?$basic_string@DU?$char_traits@D@std@@V?$allocator@D@2@@std@@QAE@XZ ; std::basic_string<char,std::char_traits<char>,std::allocator<char> >::~basic_string<char,std::char_traits<char>,std::allocator<char> >
; File C:\Program Files\Microsoft Visual Studio\2022\Professional\VC\Tools\MSVC\14.44.35207\include\xmemory

; 289  :         ::operator delete(_Ptr, _Bytes);

  0002f	6a 2c		 push	 44			; 0000002cH
  00031	57		 push	 edi
  00032	e8 00 00 00 00	 call	 ??3@YAXPAXI@Z		; operator delete
; File C:\Program Files\Microsoft Visual Studio\2022\Professional\VC\Tools\MSVC\14.44.35207\include\xtree

; 768  :         while (!_Rootnode->_Isnil) { // free subtrees, then node

  00037	8b 45 fc	 mov	 eax, DWORD PTR _this$1$[ebp]
; File C:\Program Files\Microsoft Visual Studio\2022\Professional\VC\Tools\MSVC\14.44.35207\include\xmemory

; 289  :         ::operator delete(_Ptr, _Bytes);

  0003a	83 c4 08	 add	 esp, 8
; File C:\Program Files\Microsoft Visual Studio\2022\Professional\VC\Tools\MSVC\14.44.35207\include\xtree

; 768  :         while (!_Rootnode->_Isnil) { // free subtrees, then node

  0003d	80 7e 0d 00	 cmp	 BYTE PTR [esi+13], 0
  00041	74 d5		 je	 SHORT $LL2@Erase_tree
  00043	5f		 pop	 edi
  00044	5b		 pop	 ebx
$LN45@Erase_tree:
  00045	5e		 pop	 esi

; 770  :             _Alnode::value_type::_Freenode(_Al, _STD exchange(_Rootnode, _Rootnode->_Left));
; 771  :         }
; 772  :     }

  00046	8b e5		 mov	 esp, ebp
  00048	5d		 pop	 ebp
  00049	c2 08 00	 ret	 8
??$_Erase_tree@V?$allocator@U?$_Tree_node@U?$pair@$$CBV?$basic_string@DU?$char_traits@D@std@@V?$allocator@D@2@@std@@PAVCBones@@@std@@PAX@std@@@std@@@?$_Tree_val@U?$_Tree_simple_types@U?$pair@$$CBV?$basic_string@DU?$char_traits@D@std@@V?$allocator@D@2@@std@@PAVCBones@@@std@@@std@@@std@@QAEXAAV?$allocator@U?$_Tree_node@U?$pair@$$CBV?$basic_string@DU?$char_traits@D@std@@V?$allocator@D@2@@std@@PAVCBones@@@std@@PAX@std@@@1@PAU?$_Tree_node@U?$pair@$$CBV?$basic_string@DU?$char_traits@D@std@@V?$allocator@D@2@@std@@PAVCBones@@@std@@PAX@1@@Z ENDP ; std::_Tree_val<std::_Tree_simple_types<std::pair<std::basic_string<char,std::char_traits<char>,std::allocator<char> > const ,CBones *> > >::_Erase_tree<std::allocator<std::_Tree_node<std::pair<std::basic_string<char,std::char_traits<char>,std::allocator<char> > const ,CBones *>,void *> > >
_TEXT	ENDS
; Function compile flags: /Ogtp
; File C:\Program Files\Microsoft Visual Studio\2022\Professional\VC\Tools\MSVC\14.44.35207\include\xtree
; File C:\Program Files\Microsoft Visual Studio\2022\Professional\VC\Tools\MSVC\14.44.35207\include\utility
; File C:\Program Files\Microsoft Visual Studio\2022\Professional\VC\Tools\MSVC\14.44.35207\include\xtree
; File C:\Program Files\Microsoft Visual Studio\2022\Professional\VC\Tools\MSVC\14.44.35207\include\xmemory
; File C:\Program Files\Microsoft Visual Studio\2022\Professional\VC\Tools\MSVC\14.44.35207\include\xtree
; File C:\Program Files\Microsoft Visual Studio\2022\Professional\VC\Tools\MSVC\14.44.35207\include\xmemory
; File C:\Program Files\Microsoft Visual Studio\2022\Professional\VC\Tools\MSVC\14.44.35207\include\xtree
;	COMDAT ??$_Erase_tree@V?$allocator@U?$_Tree_node@U?$pair@$$CBV?$basic_string@DU?$char_traits@D@std@@V?$allocator@D@2@@std@@PAVCMotion@@@std@@PAX@std@@@std@@@?$_Tree_val@U?$_Tree_simple_types@U?$pair@$$CBV?$basic_string@DU?$char_traits@D@std@@V?$allocator@D@2@@std@@PAVCMotion@@@std@@@std@@@std@@QAEXAAV?$allocator@U?$_Tree_node@U?$pair@$$CBV?$basic_string@DU?$char_traits@D@std@@V?$allocator@D@2@@std@@PAVCMotion@@@std@@PAX@std@@@1@PAU?$_Tree_node@U?$pair@$$CBV?$basic_string@DU?$char_traits@D@std@@V?$allocator@D@2@@std@@PAVCMotion@@@std@@PAX@1@@Z
_TEXT	SEGMENT
_this$1$ = -4						; size = 4
__Al$ = 8						; size = 4
__Rootnode$ = 12					; size = 4
??$_Erase_tree@V?$allocator@U?$_Tree_node@U?$pair@$$CBV?$basic_string@DU?$char_traits@D@std@@V?$allocator@D@2@@std@@PAVCMotion@@@std@@PAX@std@@@std@@@?$_Tree_val@U?$_Tree_simple_types@U?$pair@$$CBV?$basic_string@DU?$char_traits@D@std@@V?$allocator@D@2@@std@@PAVCMotion@@@std@@@std@@@std@@QAEXAAV?$allocator@U?$_Tree_node@U?$pair@$$CBV?$basic_string@DU?$char_traits@D@std@@V?$allocator@D@2@@std@@PAVCMotion@@@std@@PAX@std@@@1@PAU?$_Tree_node@U?$pair@$$CBV?$basic_string@DU?$char_traits@D@std@@V?$allocator@D@2@@std@@PAVCMotion@@@std@@PAX@1@@Z PROC ; std::_Tree_val<std::_Tree_simple_types<std::pair<std::basic_string<char,std::char_traits<char>,std::allocator<char> > const ,CMotion *> > >::_Erase_tree<std::allocator<std::_Tree_node<std::pair<std::basic_string<char,std::char_traits<char>,std::allocator<char> > const ,CMotion *>,void *> > >, COMDAT
; _this$ = ecx

; 767  :     void _Erase_tree(_Alnode& _Al, _Nodeptr _Rootnode) noexcept {

  00000	55		 push	 ebp
  00001	8b ec		 mov	 ebp, esp
  00003	51		 push	 ecx
  00004	56		 push	 esi

; 768  :         while (!_Rootnode->_Isnil) { // free subtrees, then node

  00005	8b 75 0c	 mov	 esi, DWORD PTR __Rootnode$[ebp]
  00008	8b c1		 mov	 eax, ecx
  0000a	89 45 fc	 mov	 DWORD PTR _this$1$[ebp], eax
  0000d	80 7e 0d 00	 cmp	 BYTE PTR [esi+13], 0
  00011	75 32		 jne	 SHORT $LN45@Erase_tree
  00013	53		 push	 ebx
  00014	8b 5d 08	 mov	 ebx, DWORD PTR __Al$[ebp]
  00017	57		 push	 edi
$LL2@Erase_tree:

; 769  :             _Erase_tree(_Al, _Rootnode->_Right);

  00018	ff 76 08	 push	 DWORD PTR [esi+8]
  0001b	8b c8		 mov	 ecx, eax
  0001d	53		 push	 ebx
  0001e	e8 00 00 00 00	 call	 ??$_Erase_tree@V?$allocator@U?$_Tree_node@U?$pair@$$CBV?$basic_string@DU?$char_traits@D@std@@V?$allocator@D@2@@std@@PAVCMotion@@@std@@PAX@std@@@std@@@?$_Tree_val@U?$_Tree_simple_types@U?$pair@$$CBV?$basic_string@DU?$char_traits@D@std@@V?$allocator@D@2@@std@@PAVCMotion@@@std@@@std@@@std@@QAEXAAV?$allocator@U?$_Tree_node@U?$pair@$$CBV?$basic_string@DU?$char_traits@D@std@@V?$allocator@D@2@@std@@PAVCMotion@@@std@@PAX@std@@@1@PAU?$_Tree_node@U?$pair@$$CBV?$basic_string@DU?$char_traits@D@std@@V?$allocator@D@2@@std@@PAVCMotion@@@std@@PAX@1@@Z ; std::_Tree_val<std::_Tree_simple_types<std::pair<std::basic_string<char,std::char_traits<char>,std::allocator<char> > const ,CMotion *> > >::_Erase_tree<std::allocator<std::_Tree_node<std::pair<std::basic_string<char,std::char_traits<char>,std::allocator<char> > const ,CMotion *>,void *> > >
; File C:\Program Files\Microsoft Visual Studio\2022\Professional\VC\Tools\MSVC\14.44.35207\include\utility

; 773  :     _Ty _Old_val = static_cast<_Ty&&>(_Val);

  00023	8b fe		 mov	 edi, esi

; 774  :     _Val         = static_cast<_Other&&>(_New_val);

  00025	8b 36		 mov	 esi, DWORD PTR [esi]
; File C:\Program Files\Microsoft Visual Studio\2022\Professional\VC\Tools\MSVC\14.44.35207\include\xtree

; 381  :         allocator_traits<_Alloc>::destroy(_Al, _STD addressof(_Ptr->_Myval));

  00027	8d 4f 10	 lea	 ecx, DWORD PTR [edi+16]
  0002a	e8 00 00 00 00	 call	 ??1?$basic_string@DU?$char_traits@D@std@@V?$allocator@D@2@@std@@QAE@XZ ; std::basic_string<char,std::char_traits<char>,std::allocator<char> >::~basic_string<char,std::char_traits<char>,std::allocator<char> >
; File C:\Program Files\Microsoft Visual Studio\2022\Professional\VC\Tools\MSVC\14.44.35207\include\xmemory

; 289  :         ::operator delete(_Ptr, _Bytes);

  0002f	6a 2c		 push	 44			; 0000002cH
  00031	57		 push	 edi
  00032	e8 00 00 00 00	 call	 ??3@YAXPAXI@Z		; operator delete
; File C:\Program Files\Microsoft Visual Studio\2022\Professional\VC\Tools\MSVC\14.44.35207\include\xtree

; 768  :         while (!_Rootnode->_Isnil) { // free subtrees, then node

  00037	8b 45 fc	 mov	 eax, DWORD PTR _this$1$[ebp]
; File C:\Program Files\Microsoft Visual Studio\2022\Professional\VC\Tools\MSVC\14.44.35207\include\xmemory

; 289  :         ::operator delete(_Ptr, _Bytes);

  0003a	83 c4 08	 add	 esp, 8
; File C:\Program Files\Microsoft Visual Studio\2022\Professional\VC\Tools\MSVC\14.44.35207\include\xtree

; 768  :         while (!_Rootnode->_Isnil) { // free subtrees, then node

  0003d	80 7e 0d 00	 cmp	 BYTE PTR [esi+13], 0
  00041	74 d5		 je	 SHORT $LL2@Erase_tree
  00043	5f		 pop	 edi
  00044	5b		 pop	 ebx
$LN45@Erase_tree:
  00045	5e		 pop	 esi

; 770  :             _Alnode::value_type::_Freenode(_Al, _STD exchange(_Rootnode, _Rootnode->_Left));
; 771  :         }
; 772  :     }

  00046	8b e5		 mov	 esp, ebp
  00048	5d		 pop	 ebp
  00049	c2 08 00	 ret	 8
??$_Erase_tree@V?$allocator@U?$_Tree_node@U?$pair@$$CBV?$basic_string@DU?$char_traits@D@std@@V?$allocator@D@2@@std@@PAVCMotion@@@std@@PAX@std@@@std@@@?$_Tree_val@U?$_Tree_simple_types@U?$pair@$$CBV?$basic_string@DU?$char_traits@D@std@@V?$allocator@D@2@@std@@PAVCMotion@@@std@@@std@@@std@@QAEXAAV?$allocator@U?$_Tree_node@U?$pair@$$CBV?$basic_string@DU?$char_traits@D@std@@V?$allocator@D@2@@std@@PAVCMotion@@@std@@PAX@std@@@1@PAU?$_Tree_node@U?$pair@$$CBV?$basic_string@DU?$char_traits@D@std@@V?$allocator@D@2@@std@@PAVCMotion@@@std@@PAX@1@@Z ENDP ; std::_Tree_val<std::_Tree_simple_types<std::pair<std::basic_string<char,std::char_traits<char>,std::allocator<char> > const ,CMotion *> > >::_Erase_tree<std::allocator<std::_Tree_node<std::pair<std::basic_string<char,std::char_traits<char>,std::allocator<char> > const ,CMotion *>,void *> > >
_TEXT	ENDS
; Function compile flags: /Ogtp
;	COMDAT ??1?$pair@$$CBV?$basic_string@DU?$char_traits@D@std@@V?$allocator@D@2@@std@@PAVCMotion@@@std@@QAE@XZ
_TEXT	SEGMENT
??1?$pair@$$CBV?$basic_string@DU?$char_traits@D@std@@V?$allocator@D@2@@std@@PAVCMotion@@@std@@QAE@XZ PROC ; std::pair<std::basic_string<char,std::char_traits<char>,std::allocator<char> > const ,CMotion *>::~pair<std::basic_string<char,std::char_traits<char>,std::allocator<char> > const ,CMotion *>, COMDAT
; _this$ = ecx
  00000	e9 00 00 00 00	 jmp	 ??1?$basic_string@DU?$char_traits@D@std@@V?$allocator@D@2@@std@@QAE@XZ ; std::basic_string<char,std::char_traits<char>,std::allocator<char> >::~basic_string<char,std::char_traits<char>,std::allocator<char> >
??1?$pair@$$CBV?$basic_string@DU?$char_traits@D@std@@V?$allocator@D@2@@std@@PAVCMotion@@@std@@QAE@XZ ENDP ; std::pair<std::basic_string<char,std::char_traits<char>,std::allocator<char> > const ,CMotion *>::~pair<std::basic_string<char,std::char_traits<char>,std::allocator<char> > const ,CMotion *>
_TEXT	ENDS
; Function compile flags: /Ogtp
;	COMDAT ??__Fg_MotionMng@@YAXXZ
text$yd	SEGMENT
??__Fg_MotionMng@@YAXXZ PROC				; `dynamic atexit destructor for 'g_MotionMng'', COMDAT
  00000	b9 00 00 00 00	 mov	 ecx, OFFSET ?g_MotionMng@@3VCMotionMng@@A ; g_MotionMng
  00005	e9 00 00 00 00	 jmp	 ??1CMotionMng@@QAE@XZ	; CMotionMng::~CMotionMng
??__Fg_MotionMng@@YAXXZ ENDP				; `dynamic atexit destructor for 'g_MotionMng''
text$yd	ENDS
; Function compile flags: /Ogtp
; File C:\IAGOS\server\v18\Source\Source\_Common\Bone.cpp
;	COMDAT ??__Eg_MotionMng@@YAXXZ
text$di	SEGMENT
??__Eg_MotionMng@@YAXXZ PROC				; `dynamic initializer for 'g_MotionMng'', COMDAT

; 303  : CMotionMng		g_MotionMng;

  00000	b9 00 00 00 00	 mov	 ecx, OFFSET ?g_MotionMng@@3VCMotionMng@@A ; g_MotionMng
  00005	e8 00 00 00 00	 call	 ??0CMotionMng@@QAE@XZ	; CMotionMng::CMotionMng
  0000a	68 00 00 00 00	 push	 OFFSET ??__Fg_MotionMng@@YAXXZ ; `dynamic atexit destructor for 'g_MotionMng''
  0000f	e8 00 00 00 00	 call	 _atexit
  00014	59		 pop	 ecx
  00015	c3		 ret	 0
??__Eg_MotionMng@@YAXXZ ENDP				; `dynamic initializer for 'g_MotionMng''
text$di	ENDS
; Function compile flags: /Ogtp
;	COMDAT ??1?$pair@$$CBV?$basic_string@DU?$char_traits@D@std@@V?$allocator@D@2@@std@@PAVCBones@@@std@@QAE@XZ
_TEXT	SEGMENT
??1?$pair@$$CBV?$basic_string@DU?$char_traits@D@std@@V?$allocator@D@2@@std@@PAVCBones@@@std@@QAE@XZ PROC ; std::pair<std::basic_string<char,std::char_traits<char>,std::allocator<char> > const ,CBones *>::~pair<std::basic_string<char,std::char_traits<char>,std::allocator<char> > const ,CBones *>, COMDAT
; _this$ = ecx
  00000	e9 00 00 00 00	 jmp	 ??1?$basic_string@DU?$char_traits@D@std@@V?$allocator@D@2@@std@@QAE@XZ ; std::basic_string<char,std::char_traits<char>,std::allocator<char> >::~basic_string<char,std::char_traits<char>,std::allocator<char> >
??1?$pair@$$CBV?$basic_string@DU?$char_traits@D@std@@V?$allocator@D@2@@std@@PAVCBones@@@std@@QAE@XZ ENDP ; std::pair<std::basic_string<char,std::char_traits<char>,std::allocator<char> > const ,CBones *>::~pair<std::basic_string<char,std::char_traits<char>,std::allocator<char> > const ,CBones *>
_TEXT	ENDS
; Function compile flags: /Ogtp
;	COMDAT ??__Fg_BonesMng@@YAXXZ
text$yd	SEGMENT
??__Fg_BonesMng@@YAXXZ PROC				; `dynamic atexit destructor for 'g_BonesMng'', COMDAT
  00000	b9 00 00 00 00	 mov	 ecx, OFFSET ?g_BonesMng@@3VCBonesMng@@A ; g_BonesMng
  00005	e9 00 00 00 00	 jmp	 ??1CBonesMng@@QAE@XZ	; CBonesMng::~CBonesMng
??__Fg_BonesMng@@YAXXZ ENDP				; `dynamic atexit destructor for 'g_BonesMng''
text$yd	ENDS
; Function compile flags: /Ogtp
; File C:\IAGOS\server\v18\Source\Source\_Common\Bone.cpp
;	COMDAT ??__Eg_BonesMng@@YAXXZ
text$di	SEGMENT
??__Eg_BonesMng@@YAXXZ PROC				; `dynamic initializer for 'g_BonesMng'', COMDAT

; 8    : CBonesMng		g_BonesMng;

  00000	b9 00 00 00 00	 mov	 ecx, OFFSET ?g_BonesMng@@3VCBonesMng@@A ; g_BonesMng
  00005	e8 00 00 00 00	 call	 ??0CBonesMng@@QAE@XZ	; CBonesMng::CBonesMng
  0000a	68 00 00 00 00	 push	 OFFSET ??__Fg_BonesMng@@YAXXZ ; `dynamic atexit destructor for 'g_BonesMng''
  0000f	e8 00 00 00 00	 call	 _atexit
  00014	59		 pop	 ecx
  00015	c3		 ret	 0
??__Eg_BonesMng@@YAXXZ ENDP				; `dynamic initializer for 'g_BonesMng''
text$di	ENDS
; Function compile flags: /Ogtp
; File C:\Program Files\Microsoft Visual Studio\2022\Professional\VC\Tools\MSVC\14.44.35207\include\xmemory
;	COMDAT ??$_Allocate_manually_vector_aligned@U_Default_allocate_traits@std@@@std@@YAPAXI@Z
_TEXT	SEGMENT
__Bytes$ = 8						; size = 4
??$_Allocate_manually_vector_aligned@U_Default_allocate_traits@std@@@std@@YAPAXI@Z PROC ; std::_Allocate_manually_vector_aligned<std::_Default_allocate_traits>, COMDAT

; 182  : __declspec(allocator) void* _Allocate_manually_vector_aligned(const size_t _Bytes) {

  00000	55		 push	 ebp
  00001	8b ec		 mov	 ebp, esp

; 183  :     // allocate _Bytes manually aligned to at least _Big_allocation_alignment
; 184  :     const size_t _Block_size = _Non_user_size + _Bytes;

  00003	8b 45 08	 mov	 eax, DWORD PTR __Bytes$[ebp]
  00006	8d 48 23	 lea	 ecx, DWORD PTR [eax+35]

; 185  :     if (_Block_size <= _Bytes) {

  00009	3b c8		 cmp	 ecx, eax
  0000b	0f 86 00 00 00
	00		 jbe	 ?_Throw_bad_array_new_length@std@@YAXXZ ; std::_Throw_bad_array_new_length

; 136  :         return ::operator new(_Bytes);

  00011	51		 push	 ecx
  00012	e8 00 00 00 00	 call	 ??2@YAPAXI@Z		; operator new

; 186  :         _Throw_bad_array_new_length(); // add overflow
; 187  :     }
; 188  : 
; 189  :     const uintptr_t _Ptr_container = reinterpret_cast<uintptr_t>(_Traits::_Allocate(_Block_size));

  00017	8b c8		 mov	 ecx, eax

; 136  :         return ::operator new(_Bytes);

  00019	83 c4 04	 add	 esp, 4

; 190  :     _STL_VERIFY(_Ptr_container != 0, "invalid argument"); // validate even in release since we're doing p[-1]

  0001c	85 c9		 test	 ecx, ecx
  0001e	74 0b		 je	 SHORT $LN9@Allocate_m

; 191  :     void* const _Ptr = reinterpret_cast<void*>((_Ptr_container + _Non_user_size) & ~(_Big_allocation_alignment - 1));

  00020	8d 41 23	 lea	 eax, DWORD PTR [ecx+35]
  00023	83 e0 e0	 and	 eax, -32		; ffffffe0H

; 192  :     static_cast<uintptr_t*>(_Ptr)[-1] = _Ptr_container;

  00026	89 48 fc	 mov	 DWORD PTR [eax-4], ecx

; 193  : 
; 194  : #ifdef _DEBUG
; 195  :     static_cast<uintptr_t*>(_Ptr)[-2] = _Big_allocation_sentinel;
; 196  : #endif // defined(_DEBUG)
; 197  :     return _Ptr;
; 198  : }

  00029	5d		 pop	 ebp
  0002a	c3		 ret	 0
$LN9@Allocate_m:

; 190  :     _STL_VERIFY(_Ptr_container != 0, "invalid argument"); // validate even in release since we're doing p[-1]

  0002b	6a 00		 push	 0
  0002d	6a 00		 push	 0
  0002f	6a 00		 push	 0
  00031	6a 00		 push	 0
  00033	6a 00		 push	 0
  00035	e8 00 00 00 00	 call	 __invoke_watson
$LN7@Allocate_m:
  0003a	cc		 int	 3
??$_Allocate_manually_vector_aligned@U_Default_allocate_traits@std@@@std@@YAPAXI@Z ENDP ; std::_Allocate_manually_vector_aligned<std::_Default_allocate_traits>
_TEXT	ENDS
; Function compile flags: /Ogtp
; File C:\Program Files\Microsoft Visual Studio\2022\Professional\VC\Tools\MSVC\14.44.35207\include\xstring
; File C:\Program Files\Microsoft Visual Studio\2022\Professional\VC\Tools\MSVC\14.44.35207\include\__msvc_string_view.hpp
; File C:\Program Files\Microsoft Visual Studio\2022\Professional\VC\Tools\MSVC\14.44.35207\include\xstring
; File C:\Program Files\Microsoft Visual Studio\2022\Professional\VC\Tools\MSVC\14.44.35207\include\__msvc_string_view.hpp
; File C:\Program Files\Microsoft Visual Studio\2022\Professional\VC\Tools\MSVC\14.44.35207\include\xstring
; File C:\Program Files\Microsoft Visual Studio\2022\Professional\VC\Tools\MSVC\14.44.35207\include\__msvc_string_view.hpp
; File C:\Program Files\Microsoft Visual Studio\2022\Professional\VC\Tools\MSVC\14.44.35207\include\xstring
;	COMDAT ??$?MDU?$char_traits@D@std@@V?$allocator@D@1@@std@@YA_NABV?$basic_string@DU?$char_traits@D@std@@V?$allocator@D@2@@0@0@Z
_TEXT	SEGMENT
__Left$ = 8						; size = 4
__Right$ = 12						; size = 4
??$?MDU?$char_traits@D@std@@V?$allocator@D@1@@std@@YA_NABV?$basic_string@DU?$char_traits@D@std@@V?$allocator@D@2@@0@0@Z PROC ; std::operator<<char,std::char_traits<char>,std::allocator<char> >, COMDAT

; 3307 :     const basic_string<_Elem, _Traits, _Alloc>& _Left, const basic_string<_Elem, _Traits, _Alloc>& _Right) noexcept {

  00000	55		 push	 ebp
  00001	8b ec		 mov	 ebp, esp

; 444  :         const value_type* _Result = _Bx._Buf;

  00003	8b 45 0c	 mov	 eax, DWORD PTR __Right$[ebp]
  00006	8b c8		 mov	 ecx, eax

; 453  :         return _Myres > _Small_string_capacity;

  00008	83 78 14 0f	 cmp	 DWORD PTR [eax+20], 15	; 0000000fH

; 445  :         if (_Large_mode_engaged()) {

  0000c	76 02		 jbe	 SHORT $LN8@operator

; 446  :             _Result = _Unfancy(_Bx._Ptr);

  0000e	8b 08		 mov	 ecx, DWORD PTR [eax]
$LN8@operator:
  00010	53		 push	 ebx
  00011	56		 push	 esi

; 444  :         const value_type* _Result = _Bx._Buf;

  00012	8b 75 08	 mov	 esi, DWORD PTR __Left$[ebp]
  00015	8b d6		 mov	 edx, esi
  00017	57		 push	 edi

; 453  :         return _Myres > _Small_string_capacity;

  00018	83 7e 14 0f	 cmp	 DWORD PTR [esi+20], 15	; 0000000fH

; 445  :         if (_Large_mode_engaged()) {

  0001c	76 02		 jbe	 SHORT $LN15@operator

; 446  :             _Result = _Unfancy(_Bx._Ptr);

  0001e	8b 16		 mov	 edx, DWORD PTR [esi]
$LN15@operator:

; 2890 :         return _Traits_compare<_Traits>(_Mypair._Myval2._Myptr(), _Mypair._Myval2._Mysize,

  00020	8b 5e 10	 mov	 ebx, DWORD PTR [esi+16]
  00023	8b f3		 mov	 esi, ebx
  00025	8b 78 10	 mov	 edi, DWORD PTR [eax+16]
  00028	3b fb		 cmp	 edi, ebx
  0002a	0f 42 f7	 cmovb	 esi, edi
; File C:\Program Files\Microsoft Visual Studio\2022\Professional\VC\Tools\MSVC\14.44.35207\include\__msvc_string_view.hpp

; 439  :         return _CSTD memcmp(_First1, _First2, _Count);

  0002d	83 ee 04	 sub	 esi, 4
  00030	72 11		 jb	 SHORT $LN35@operator
$LL36@operator:
  00032	8b 02		 mov	 eax, DWORD PTR [edx]
  00034	3b 01		 cmp	 eax, DWORD PTR [ecx]
  00036	75 10		 jne	 SHORT $LN34@operator
  00038	83 c2 04	 add	 edx, 4
  0003b	83 c1 04	 add	 ecx, 4
  0003e	83 ee 04	 sub	 esi, 4
  00041	73 ef		 jae	 SHORT $LL36@operator
$LN35@operator:
  00043	83 fe fc	 cmp	 esi, -4			; fffffffcH
  00046	74 34		 je	 SHORT $LN33@operator
$LN34@operator:
  00048	8a 02		 mov	 al, BYTE PTR [edx]
  0004a	3a 01		 cmp	 al, BYTE PTR [ecx]
  0004c	75 27		 jne	 SHORT $LN37@operator
  0004e	83 fe fd	 cmp	 esi, -3			; fffffffdH
  00051	74 29		 je	 SHORT $LN33@operator
  00053	8a 42 01	 mov	 al, BYTE PTR [edx+1]
  00056	3a 41 01	 cmp	 al, BYTE PTR [ecx+1]
  00059	75 1a		 jne	 SHORT $LN37@operator
  0005b	83 fe fe	 cmp	 esi, -2			; fffffffeH
  0005e	74 1c		 je	 SHORT $LN33@operator
  00060	8a 42 02	 mov	 al, BYTE PTR [edx+2]
  00063	3a 41 02	 cmp	 al, BYTE PTR [ecx+2]
  00066	75 0d		 jne	 SHORT $LN37@operator
  00068	83 fe ff	 cmp	 esi, -1
  0006b	74 0f		 je	 SHORT $LN33@operator
  0006d	8a 42 03	 mov	 al, BYTE PTR [edx+3]
  00070	3a 41 03	 cmp	 al, BYTE PTR [ecx+3]
  00073	74 07		 je	 SHORT $LN33@operator
$LN37@operator:
  00075	1b c0		 sbb	 eax, eax
  00077	83 c8 01	 or	 eax, 1
  0007a	eb 02		 jmp	 SHORT $LN38@operator
$LN33@operator:
  0007c	33 c0		 xor	 eax, eax
$LN38@operator:

; 621  :     if (_Ans != 0) {

  0007e	85 c0		 test	 eax, eax
  00080	75 13		 jne	 SHORT $LN24@operator

; 622  :         return _Ans;
; 623  :     }
; 624  : 
; 625  :     if (_Left_size < _Right_size) {

  00082	3b fb		 cmp	 edi, ebx
  00084	76 0b		 jbe	 SHORT $LN51@operator
; File C:\Program Files\Microsoft Visual Studio\2022\Professional\VC\Tools\MSVC\14.44.35207\include\xstring

; 3308 :     return _Left.compare(_Right) < 0;

  00086	5f		 pop	 edi
; File C:\Program Files\Microsoft Visual Studio\2022\Professional\VC\Tools\MSVC\14.44.35207\include\__msvc_string_view.hpp

; 626  :         return -1;

  00087	83 c8 ff	 or	 eax, -1
; File C:\Program Files\Microsoft Visual Studio\2022\Professional\VC\Tools\MSVC\14.44.35207\include\xstring

; 3308 :     return _Left.compare(_Right) < 0;

  0008a	5e		 pop	 esi
  0008b	c1 e8 1f	 shr	 eax, 31			; 0000001fH
  0008e	5b		 pop	 ebx

; 3309 : }

  0008f	5d		 pop	 ebp
  00090	c3		 ret	 0
$LN51@operator:
; File C:\Program Files\Microsoft Visual Studio\2022\Professional\VC\Tools\MSVC\14.44.35207\include\__msvc_string_view.hpp

; 629  :     if (_Left_size > _Right_size) {

  00091	1b c0		 sbb	 eax, eax
  00093	f7 d8		 neg	 eax
$LN24@operator:
; File C:\Program Files\Microsoft Visual Studio\2022\Professional\VC\Tools\MSVC\14.44.35207\include\xstring

; 3308 :     return _Left.compare(_Right) < 0;

  00095	5f		 pop	 edi
  00096	5e		 pop	 esi
  00097	c1 e8 1f	 shr	 eax, 31			; 0000001fH
  0009a	5b		 pop	 ebx

; 3309 : }

  0009b	5d		 pop	 ebp
  0009c	c3		 ret	 0
??$?MDU?$char_traits@D@std@@V?$allocator@D@1@@std@@YA_NABV?$basic_string@DU?$char_traits@D@std@@V?$allocator@D@2@@0@0@Z ENDP ; std::operator<<char,std::char_traits<char>,std::allocator<char> >
_TEXT	ENDS
; Function compile flags: /Ogtp
; File C:\IAGOS\server\v18\Source\Source\_Common\Bone.cpp
; File C:\Program Files\Microsoft Visual Studio\2022\Professional\VC\Tools\MSVC\14.44.35207\include\xtree
; File C:\Program Files\Microsoft Visual Studio\2022\Professional\VC\Tools\MSVC\14.44.35207\include\type_traits
; File C:\Program Files\Microsoft Visual Studio\2022\Professional\VC\Tools\MSVC\14.44.35207\include\xtree
; File C:\Program Files\Microsoft Visual Studio\2022\Professional\VC\Tools\MSVC\14.44.35207\include\xstring
; File C:\Program Files\Microsoft Visual Studio\2022\Professional\VC\Tools\MSVC\14.44.35207\include\xmemory
; File C:\Program Files\Microsoft Visual Studio\2022\Professional\VC\Tools\MSVC\14.44.35207\include\xstring
; File C:\Program Files\Microsoft Visual Studio\2022\Professional\VC\Tools\MSVC\14.44.35207\include\xmemory
; File C:\Program Files\Microsoft Visual Studio\2022\Professional\VC\Tools\MSVC\14.44.35207\include\xtree
; File C:\IAGOS\server\v18\Source\Source\_Common\Bone.cpp
; File C:\Program Files\Microsoft Visual Studio\2022\Professional\VC\Tools\MSVC\14.44.35207\include\utility
; File C:\Program Files\Microsoft Visual Studio\2022\Professional\VC\Tools\MSVC\14.44.35207\include\xtree
; File C:\IAGOS\server\v18\Source\Source\_Common\Bone.cpp
; File C:\Program Files\Microsoft Visual Studio\2022\Professional\VC\Tools\MSVC\14.44.35207\include\xtree
; File C:\Program Files\Microsoft Visual Studio\2022\Professional\VC\Tools\MSVC\14.44.35207\include\type_traits
; File C:\Program Files\Microsoft Visual Studio\2022\Professional\VC\Tools\MSVC\14.44.35207\include\xtree
; File C:\Program Files\Microsoft Visual Studio\2022\Professional\VC\Tools\MSVC\14.44.35207\include\xmemory
; File C:\Program Files\Microsoft Visual Studio\2022\Professional\VC\Tools\MSVC\14.44.35207\include\xtree
; File C:\Program Files\Microsoft Visual Studio\2022\Professional\VC\Tools\MSVC\14.44.35207\include\xmemory
; File C:\Program Files\Microsoft Visual Studio\2022\Professional\VC\Tools\MSVC\14.44.35207\include\utility
; File C:\Program Files\Microsoft Visual Studio\2022\Professional\VC\Tools\MSVC\14.44.35207\include\xtree
; File C:\Program Files\Microsoft Visual Studio\2022\Professional\VC\Tools\MSVC\14.44.35207\include\utility
; File C:\Program Files\Microsoft Visual Studio\2022\Professional\VC\Tools\MSVC\14.44.35207\include\xtree
; File C:\IAGOS\server\v18\Source\Source\_Common\Bone.cpp
; File C:\Program Files\Microsoft Visual Studio\2022\Professional\VC\Tools\MSVC\14.44.35207\include\xmemory
; File C:\Program Files\Microsoft Visual Studio\2022\Professional\VC\Tools\MSVC\14.44.35207\include\xtree
; File C:\IAGOS\server\v18\Source\Source\_Common\Bone.cpp
;	COMDAT ?LoadMotion@CMotionMng@@QAEPAVCMotion@@PBD@Z
_TEXT	SEGMENT
__Loc$2 = -336						; size = 12
__Loc$3 = -336						; size = 12
_this$GSCopy$1$ = -324					; size = 4
$T4 = -320						; size = 12
$T5 = -316						; size = 8
_szFileName$GSCopy$1$ = -312				; size = 4
$T6 = -308						; size = 4
$T7 = -308						; size = 4
$T8 = -304						; size = 28
$T9 = -300						; size = 24
_sFile$ = -276						; size = 260
__$ArrayPad$ = -16					; size = 4
__$EHRec$ = -12						; size = 12
_szFileName$ = 8					; size = 4
?LoadMotion@CMotionMng@@QAEPAVCMotion@@PBD@Z PROC	; CMotionMng::LoadMotion, COMDAT
; _this$ = ecx

; 361  : {

  00000	55		 push	 ebp
  00001	8b ec		 mov	 ebp, esp
  00003	6a ff		 push	 -1
  00005	68 00 00 00 00	 push	 __ehhandler$?LoadMotion@CMotionMng@@QAEPAVCMotion@@PBD@Z
  0000a	64 a1 00 00 00
	00		 mov	 eax, DWORD PTR fs:0
  00010	50		 push	 eax
  00011	81 ec 44 01 00
	00		 sub	 esp, 324		; 00000144H
  00017	a1 00 00 00 00	 mov	 eax, DWORD PTR ___security_cookie
  0001c	33 c5		 xor	 eax, ebp
  0001e	89 45 f0	 mov	 DWORD PTR __$ArrayPad$[ebp], eax
  00021	53		 push	 ebx
  00022	56		 push	 esi
  00023	57		 push	 edi
  00024	50		 push	 eax
  00025	8d 45 f4	 lea	 eax, DWORD PTR __$EHRec$[ebp]
  00028	64 a3 00 00 00
	00		 mov	 DWORD PTR fs:0, eax
  0002e	8b f1		 mov	 esi, ecx
  00030	89 b5 bc fe ff
	ff		 mov	 DWORD PTR _this$GSCopy$1$[ebp], esi
  00036	8b 5d 08	 mov	 ebx, DWORD PTR _szFileName$[ebp]

; 362  : #if __VER >= 12 // __LEAK_0827
; 363  : 	char sFile[MAX_PATH]	= { 0,};

  00039	8d 85 ec fe ff
	ff		 lea	 eax, DWORD PTR _sFile$[ebp]
  0003f	68 04 01 00 00	 push	 260			; 00000104H
  00044	6a 00		 push	 0
  00046	50		 push	 eax
  00047	89 9d c8 fe ff
	ff		 mov	 DWORD PTR _szFileName$GSCopy$1$[ebp], ebx
  0004d	e8 00 00 00 00	 call	 _memset
  00052	8d 95 ec fe ff
	ff		 lea	 edx, DWORD PTR _sFile$[ebp]
  00058	83 c4 0c	 add	 esp, 12			; 0000000cH

; 364  : 	strcpy( sFile, szFileName );

  0005b	8b cb		 mov	 ecx, ebx
  0005d	2b d3		 sub	 edx, ebx
  0005f	90		 npad	 1
$LL5@LoadMotion:
  00060	8a 01		 mov	 al, BYTE PTR [ecx]
  00062	8d 49 01	 lea	 ecx, DWORD PTR [ecx+1]
  00065	88 44 0a ff	 mov	 BYTE PTR [edx+ecx-1], al
  00069	84 c0		 test	 al, al
  0006b	75 f3		 jne	 SHORT $LL5@LoadMotion

; 365  : 	strlwr( sFile );

  0006d	8d 85 ec fe ff
	ff		 lea	 eax, DWORD PTR _sFile$[ebp]
  00073	50		 push	 eax
  00074	e8 00 00 00 00	 call	 _strlwr
  00079	83 c4 04	 add	 esp, 4

; 366  : 
; 367  : 	map<string, CMotion*>::iterator i	= m_mapMotions.find( sFile );

  0007c	8d 85 ec fe ff
	ff		 lea	 eax, DWORD PTR _sFile$[ebp]
  00082	8d 8d d4 fe ff
	ff		 lea	 ecx, DWORD PTR $T9[ebp]
  00088	50		 push	 eax
  00089	e8 00 00 00 00	 call	 ??0?$basic_string@DU?$char_traits@D@std@@V?$allocator@D@2@@std@@QAE@QBD@Z ; std::basic_string<char,std::char_traits<char>,std::allocator<char> >::basic_string<char,std::char_traits<char>,std::allocator<char> >
; File C:\Program Files\Microsoft Visual Studio\2022\Professional\VC\Tools\MSVC\14.44.35207\include\xtree

; 1384 :         const _Tree_find_result<_Nodeptr> _Loc = _Find_lower_bound(_Keyval);

  0008e	8d 85 d4 fe ff
	ff		 lea	 eax, DWORD PTR $T9[ebp]
  00094	8b ce		 mov	 ecx, esi
  00096	50		 push	 eax
  00097	8d 85 b0 fe ff
	ff		 lea	 eax, DWORD PTR __Loc$2[ebp]
  0009d	50		 push	 eax
  0009e	e8 00 00 00 00	 call	 ??$_Find_lower_bound@V?$basic_string@DU?$char_traits@D@std@@V?$allocator@D@2@@std@@@?$_Tree@V?$_Tmap_traits@V?$basic_string@DU?$char_traits@D@std@@V?$allocator@D@2@@std@@PAVCMotion@@U?$less@V?$basic_string@DU?$char_traits@D@std@@V?$allocator@D@2@@std@@@2@V?$allocator@U?$pair@$$CBV?$basic_string@DU?$char_traits@D@std@@V?$allocator@D@2@@std@@PAVCMotion@@@std@@@2@$0A@@std@@@std@@IBE?AU?$_Tree_find_result@PAU?$_Tree_node@U?$pair@$$CBV?$basic_string@DU?$char_traits@D@std@@V?$allocator@D@2@@std@@PAVCMotion@@@std@@PAX@std@@@1@ABV?$basic_string@DU?$char_traits@D@std@@V?$allocator@D@2@@1@@Z ; std::_Tree<std::_Tmap_traits<std::basic_string<char,std::char_traits<char>,std::allocator<char> >,CMotion *,std::less<std::basic_string<char,std::char_traits<char>,std::allocator<char> > >,std::allocator<std::pair<std::basic_string<char,std::char_traits<char>,std::allocator<char> > const ,CMotion *> >,0> >::_Find_lower_bound<std::basic_string<char,std::char_traits<char>,std::allocator<char> > >

; 1624 :         return !_Bound->_Isnil && !_DEBUG_LT_PRED(_Getcomp(), _Keyval, _Traits::_Kfn(_Bound->_Myval));

  000a3	8b bd b8 fe ff
	ff		 mov	 edi, DWORD PTR __Loc$2[ebp+8]
  000a9	80 7f 0d 00	 cmp	 BYTE PTR [edi+13], 0
  000ad	75 17		 jne	 SHORT $LN16@LoadMotion
  000af	8d 47 10	 lea	 eax, DWORD PTR [edi+16]
; File C:\Program Files\Microsoft Visual Studio\2022\Professional\VC\Tools\MSVC\14.44.35207\include\type_traits

; 2380 :         return _Left < _Right;

  000b2	50		 push	 eax
  000b3	8d 85 d4 fe ff
	ff		 lea	 eax, DWORD PTR $T9[ebp]
  000b9	50		 push	 eax
  000ba	e8 00 00 00 00	 call	 ??$?MDU?$char_traits@D@std@@V?$allocator@D@1@@std@@YA_NABV?$basic_string@DU?$char_traits@D@std@@V?$allocator@D@2@@0@0@Z ; std::operator<<char,std::char_traits<char>,std::allocator<char> >
  000bf	83 c4 08	 add	 esp, 8
; File C:\Program Files\Microsoft Visual Studio\2022\Professional\VC\Tools\MSVC\14.44.35207\include\xtree

; 1624 :         return !_Bound->_Isnil && !_DEBUG_LT_PRED(_Getcomp(), _Keyval, _Traits::_Kfn(_Bound->_Myval));

  000c2	84 c0		 test	 al, al
  000c4	74 02		 je	 SHORT $LN15@LoadMotion
$LN16@LoadMotion:

; 1389 :         return _Get_scary()->_Myhead;

  000c6	8b 3e		 mov	 edi, DWORD PTR [esi]
$LN15@LoadMotion:
; File C:\Program Files\Microsoft Visual Studio\2022\Professional\VC\Tools\MSVC\14.44.35207\include\xstring

; 453  :         return _Myres > _Small_string_capacity;

  000c8	8b 8d e8 fe ff
	ff		 mov	 ecx, DWORD PTR $T9[ebp+20]
  000ce	83 f9 0f	 cmp	 ecx, 15			; 0000000fH

; 3083 :         if (_My_data._Large_mode_engaged()) {

  000d1	76 2f		 jbe	 SHORT $LN54@LoadMotion
; File C:\Program Files\Microsoft Visual Studio\2022\Professional\VC\Tools\MSVC\14.44.35207\include\xmemory

; 985  :         _STD _Deallocate<_New_alignof<_Ty>>(_Ptr, sizeof(_Ty) * _Count);

  000d3	8b 95 d4 fe ff
	ff		 mov	 edx, DWORD PTR $T9[ebp]
; File C:\Program Files\Microsoft Visual Studio\2022\Professional\VC\Tools\MSVC\14.44.35207\include\xstring

; 852  :         _Al.deallocate(_Old_ptr, _Capacity + 1); // +1 for null terminator

  000d9	41		 inc	 ecx
; File C:\Program Files\Microsoft Visual Studio\2022\Professional\VC\Tools\MSVC\14.44.35207\include\xmemory

; 985  :         _STD _Deallocate<_New_alignof<_Ty>>(_Ptr, sizeof(_Ty) * _Count);

  000da	8b c2		 mov	 eax, edx

; 284  :         if (_Bytes >= _Big_allocation_threshold) {

  000dc	81 f9 00 10 00
	00		 cmp	 ecx, 4096		; 00001000H
  000e2	72 14		 jb	 SHORT $LN59@LoadMotion

; 205  :     const uintptr_t _Ptr_container   = _Ptr_user[-1];

  000e4	8b 50 fc	 mov	 edx, DWORD PTR [eax-4]
  000e7	83 c1 23	 add	 ecx, 35			; 00000023H
  000ea	2b c2		 sub	 eax, edx

; 219  :     _STL_VERIFY(_Back_shift >= _Min_back_shift && _Back_shift <= _Non_user_size, "invalid argument");

  000ec	83 c0 fc	 add	 eax, -4			; fffffffcH
  000ef	83 f8 1f	 cmp	 eax, 31			; 0000001fH
  000f2	0f 87 80 01 00
	00		 ja	 $LN261@LoadMotion
$LN59@LoadMotion:

; 289  :         ::operator delete(_Ptr, _Bytes);

  000f8	51		 push	 ecx
  000f9	52		 push	 edx
  000fa	e8 00 00 00 00	 call	 ??3@YAXPAXI@Z		; operator delete
  000ff	83 c4 08	 add	 esp, 8
$LN54@LoadMotion:
; File C:\Program Files\Microsoft Visual Studio\2022\Professional\VC\Tools\MSVC\14.44.35207\include\xtree

; 37   :     _Tree_unchecked_const_iterator(_Nodeptr _Pnode, const _Mytree* _Plist) noexcept : _Ptr(_Pnode) {

  00102	3b 3e		 cmp	 edi, DWORD PTR [esi]
; File C:\IAGOS\server\v18\Source\Source\_Common\Bone.cpp

; 368  : 	if( i != m_mapMotions.end() )

  00104	74 08		 je	 SHORT $LN2@LoadMotion

; 369  : 		return i->second;

  00106	8b 47 28	 mov	 eax, DWORD PTR [edi+40]
  00109	e9 4c 01 00 00	 jmp	 $LN1@LoadMotion
$LN2@LoadMotion:

; 370  : 
; 371  : 	// ·ÎµůµČ°Ô ľĆ´Ďľú´Ů¸é.  ˝ÇÁ¦·Î µĄŔĚĹ¸ ŔĐŔ˝.
; 372  : 	CMotion* pMotion	= new CMotion;

  0010e	68 a4 00 00 00	 push	 164			; 000000a4H
  00113	e8 00 00 00 00	 call	 ??2@YAPAXI@Z		; operator new
  00118	83 c4 04	 add	 esp, 4
  0011b	89 85 cc fe ff
	ff		 mov	 DWORD PTR $T6[ebp], eax
  00121	85 c0		 test	 eax, eax
  00123	74 11		 je	 SHORT $LN6@LoadMotion
  00125	8b c8		 mov	 ecx, eax
  00127	e8 00 00 00 00	 call	 ??0CMotion@@QAE@XZ	; CMotion::CMotion
  0012c	8b d8		 mov	 ebx, eax
  0012e	89 85 cc fe ff
	ff		 mov	 DWORD PTR $T7[ebp], eax
  00134	eb 08		 jmp	 SHORT $LN7@LoadMotion
$LN6@LoadMotion:
  00136	33 db		 xor	 ebx, ebx
  00138	89 9d cc fe ff
	ff		 mov	 DWORD PTR $T7[ebp], ebx
$LN7@LoadMotion:

; 373  : 	if( pMotion->LoadMotion( szFileName ) == FAIL )

  0013e	ff b5 c8 fe ff
	ff		 push	 DWORD PTR _szFileName$GSCopy$1$[ebp]
  00144	8b cb		 mov	 ecx, ebx
  00146	e8 00 00 00 00	 call	 ?LoadMotion@CMotion@@QAEHPBD@Z ; CMotion::LoadMotion
  0014b	83 f8 ff	 cmp	 eax, -1
  0014e	75 20		 jne	 SHORT $LN3@LoadMotion

; 374  : 	{
; 375  : 		safe_delete( pMotion );

  00150	85 db		 test	 ebx, ebx
  00152	74 15		 je	 SHORT $LN94@LoadMotion
  00154	8b cb		 mov	 ecx, ebx
  00156	e8 00 00 00 00	 call	 ??1CMotion@@QAE@XZ	; CMotion::~CMotion
  0015b	68 a4 00 00 00	 push	 164			; 000000a4H
  00160	53		 push	 ebx
  00161	e8 00 00 00 00	 call	 ??3@YAXPAXI@Z		; operator delete
  00166	83 c4 08	 add	 esp, 8
$LN94@LoadMotion:

; 376  : 		return NULL;

  00169	33 c0		 xor	 eax, eax
  0016b	e9 ea 00 00 00	 jmp	 $LN1@LoadMotion
$LN3@LoadMotion:
; File C:\Program Files\Microsoft Visual Studio\2022\Professional\VC\Tools\MSVC\14.44.35207\include\utility

; 274  :         : first(_STD forward<_Other1>(_Val1)), second(_STD forward<_Other2>(_Val2)) {

  00170	8d 85 ec fe ff
	ff		 lea	 eax, DWORD PTR _sFile$[ebp]
  00176	50		 push	 eax
  00177	8d 8d d0 fe ff
	ff		 lea	 ecx, DWORD PTR $T8[ebp]
  0017d	e8 00 00 00 00	 call	 ??0?$basic_string@DU?$char_traits@D@std@@V?$allocator@D@2@@std@@QAE@QBD@Z ; std::basic_string<char,std::char_traits<char>,std::allocator<char> >::basic_string<char,std::char_traits<char>,std::allocator<char> >
  00182	89 9d e8 fe ff
	ff		 mov	 DWORD PTR $T8[ebp+24], ebx
; File C:\Program Files\Microsoft Visual Studio\2022\Professional\VC\Tools\MSVC\14.44.35207\include\xtree

; 1017 :             _Loc                = _Find_lower_bound(_Keyval);

  00188	8d 85 d0 fe ff
	ff		 lea	 eax, DWORD PTR $T8[ebp]
; File C:\IAGOS\server\v18\Source\Source\_Common\Bone.cpp

; 378  : 	bool bResult	= m_mapMotions.insert( map<string, CMotion*>::value_type( sFile, pMotion ) ).second;

  0018e	c7 45 fc 00 00
	00 00		 mov	 DWORD PTR __$EHRec$[ebp+8], 0
; File C:\Program Files\Microsoft Visual Studio\2022\Professional\VC\Tools\MSVC\14.44.35207\include\xtree

; 1017 :             _Loc                = _Find_lower_bound(_Keyval);

  00195	50		 push	 eax
  00196	8d 85 c0 fe ff
	ff		 lea	 eax, DWORD PTR $T4[ebp]
  0019c	8b ce		 mov	 ecx, esi
  0019e	50		 push	 eax
  0019f	e8 00 00 00 00	 call	 ??$_Find_lower_bound@V?$basic_string@DU?$char_traits@D@std@@V?$allocator@D@2@@std@@@?$_Tree@V?$_Tmap_traits@V?$basic_string@DU?$char_traits@D@std@@V?$allocator@D@2@@std@@PAVCMotion@@U?$less@V?$basic_string@DU?$char_traits@D@std@@V?$allocator@D@2@@std@@@2@V?$allocator@U?$pair@$$CBV?$basic_string@DU?$char_traits@D@std@@V?$allocator@D@2@@std@@PAVCMotion@@@std@@@2@$0A@@std@@@std@@IBE?AU?$_Tree_find_result@PAU?$_Tree_node@U?$pair@$$CBV?$basic_string@DU?$char_traits@D@std@@V?$allocator@D@2@@std@@PAVCMotion@@@std@@PAX@std@@@1@ABV?$basic_string@DU?$char_traits@D@std@@V?$allocator@D@2@@1@@Z ; std::_Tree<std::_Tmap_traits<std::basic_string<char,std::char_traits<char>,std::allocator<char> >,CMotion *,std::less<std::basic_string<char,std::char_traits<char>,std::allocator<char> > >,std::allocator<std::pair<std::basic_string<char,std::char_traits<char>,std::allocator<char> > const ,CMotion *> >,0> >::_Find_lower_bound<std::basic_string<char,std::char_traits<char>,std::allocator<char> > >
  001a4	f3 0f 7e 00	 movq	 xmm0, QWORD PTR [eax]
  001a8	8b 40 08	 mov	 eax, DWORD PTR [eax+8]
  001ab	66 0f d6 85 b0
	fe ff ff	 movq	 QWORD PTR __Loc$3[ebp], xmm0

; 1624 :         return !_Bound->_Isnil && !_DEBUG_LT_PRED(_Getcomp(), _Keyval, _Traits::_Kfn(_Bound->_Myval));

  001b3	80 78 0d 00	 cmp	 BYTE PTR [eax+13], 0
  001b7	75 17		 jne	 SHORT $LN108@LoadMotion
  001b9	83 c0 10	 add	 eax, 16			; 00000010H
; File C:\Program Files\Microsoft Visual Studio\2022\Professional\VC\Tools\MSVC\14.44.35207\include\type_traits

; 2380 :         return _Left < _Right;

  001bc	50		 push	 eax
  001bd	8d 85 d0 fe ff
	ff		 lea	 eax, DWORD PTR $T8[ebp]
  001c3	50		 push	 eax
  001c4	e8 00 00 00 00	 call	 ??$?MDU?$char_traits@D@std@@V?$allocator@D@1@@std@@YA_NABV?$basic_string@DU?$char_traits@D@std@@V?$allocator@D@2@@0@0@Z ; std::operator<<char,std::char_traits<char>,std::allocator<char> >
  001c9	83 c4 08	 add	 esp, 8
; File C:\Program Files\Microsoft Visual Studio\2022\Professional\VC\Tools\MSVC\14.44.35207\include\xtree

; 1624 :         return !_Bound->_Isnil && !_DEBUG_LT_PRED(_Getcomp(), _Keyval, _Traits::_Kfn(_Bound->_Myval));

  001cc	84 c0		 test	 al, al
  001ce	74 7d		 je	 SHORT $LN233@LoadMotion
$LN108@LoadMotion:

; 1648 :         if (max_size() == _Get_scary()->_Mysize) {

  001d0	81 7e 04 5d 74
	d1 05		 cmp	 DWORD PTR [esi+4], 97612893 ; 05d1745dH
  001d7	0f 84 aa 00 00
	00		 je	 $LN262@LoadMotion

; 1023 :             _Inserted = _Tree_temp_node<_Alnode>(_Getal(), _Scary->_Myhead, _STD forward<_Valtys>(_Vals)...)._Release();

  001dd	8b 1e		 mov	 ebx, DWORD PTR [esi]
; File C:\Program Files\Microsoft Visual Studio\2022\Professional\VC\Tools\MSVC\14.44.35207\include\xmemory

; 1160 :     _CONSTEXPR20 explicit _Alloc_construct_ptr(_Alloc& _Al_) : _Al(_Al_), _Ptr(nullptr) {}

  001df	89 b5 c4 fe ff
	ff		 mov	 DWORD PTR $T5[ebp], esi

; 136  :         return ::operator new(_Bytes);

  001e5	6a 2c		 push	 44			; 0000002cH
; File C:\Program Files\Microsoft Visual Studio\2022\Professional\VC\Tools\MSVC\14.44.35207\include\xtree

; 808  :     explicit _Tree_temp_node_alloc(_Alnode& _Al_) : _Alloc_construct_ptr<_Alnode>(_Al_) {

  001e7	c6 45 fc 01	 mov	 BYTE PTR __$EHRec$[ebp+8], 1
; File C:\Program Files\Microsoft Visual Studio\2022\Professional\VC\Tools\MSVC\14.44.35207\include\xmemory

; 1167 :         _Ptr = nullptr; // if allocate throws, prevents double-free

  001eb	c7 85 c8 fe ff
	ff 00 00 00 00	 mov	 DWORD PTR $T5[ebp+4], 0

; 136  :         return ::operator new(_Bytes);

  001f5	e8 00 00 00 00	 call	 ??2@YAPAXI@Z		; operator new

; 256  :         return _Traits::_Allocate(_Bytes);

  001fa	8b f8		 mov	 edi, eax

; 136  :         return ::operator new(_Bytes);

  001fc	83 c4 04	 add	 esp, 4

; 1168 :         _Ptr = _Al.allocate(1);

  001ff	89 bd c8 fe ff
	ff		 mov	 DWORD PTR $T5[ebp+4], edi
; File C:\Program Files\Microsoft Visual Studio\2022\Professional\VC\Tools\MSVC\14.44.35207\include\utility

; 278  :     pair(pair&&)      = default;

  00205	8d 85 d0 fe ff
	ff		 lea	 eax, DWORD PTR $T8[ebp]
; File C:\Program Files\Microsoft Visual Studio\2022\Professional\VC\Tools\MSVC\14.44.35207\include\xtree

; 829  :         : _Tree_temp_node_alloc<_Alnode>(_Al_) {

  0020b	c6 45 fc 02	 mov	 BYTE PTR __$EHRec$[ebp+8], 2
; File C:\Program Files\Microsoft Visual Studio\2022\Professional\VC\Tools\MSVC\14.44.35207\include\utility

; 278  :     pair(pair&&)      = default;

  0020f	50		 push	 eax
  00210	8d 4f 10	 lea	 ecx, DWORD PTR [edi+16]
  00213	e8 00 00 00 00	 call	 ??0?$basic_string@DU?$char_traits@D@std@@V?$allocator@D@2@@std@@QAE@ABV01@@Z ; std::basic_string<char,std::char_traits<char>,std::allocator<char> >::basic_string<char,std::char_traits<char>,std::allocator<char> >
  00218	8b 8d e8 fe ff
	ff		 mov	 ecx, DWORD PTR $T8[ebp+24]
  0021e	89 4f 28	 mov	 DWORD PTR [edi+40], ecx
; File C:\Program Files\Microsoft Visual Studio\2022\Professional\VC\Tools\MSVC\14.44.35207\include\xtree

; 1042 :         return {_Scary->_Insert_node(_Loc._Location, _Inserted), true};

  00221	8b 8d bc fe ff
	ff		 mov	 ecx, DWORD PTR _this$GSCopy$1$[ebp]
  00227	57		 push	 edi
  00228	ff b5 b4 fe ff
	ff		 push	 DWORD PTR __Loc$3[ebp+4]

; 831  :         _Construct_in_place(this->_Ptr->_Left, _Myhead);

  0022e	89 1f		 mov	 DWORD PTR [edi], ebx

; 1042 :         return {_Scary->_Insert_node(_Loc._Location, _Inserted), true};

  00230	ff b5 b0 fe ff
	ff		 push	 DWORD PTR __Loc$3[ebp]

; 832  :         _Construct_in_place(this->_Ptr->_Parent, _Myhead);

  00236	89 5f 04	 mov	 DWORD PTR [edi+4], ebx

; 833  :         _Construct_in_place(this->_Ptr->_Right, _Myhead);

  00239	89 5f 08	 mov	 DWORD PTR [edi+8], ebx

; 834  :         this->_Ptr->_Color = _Red;

  0023c	66 c7 47 0c 00
	00		 mov	 WORD PTR [edi+12], 0

; 1042 :         return {_Scary->_Insert_node(_Loc._Location, _Inserted), true};

  00242	e8 00 00 00 00	 call	 ?_Insert_node@?$_Tree_val@U?$_Tree_simple_types@U?$pair@$$CBV?$basic_string@DU?$char_traits@D@std@@V?$allocator@D@2@@std@@PAVCMotion@@@std@@@std@@@std@@QAEPAU?$_Tree_node@U?$pair@$$CBV?$basic_string@DU?$char_traits@D@std@@V?$allocator@D@2@@std@@PAVCMotion@@@std@@PAX@2@U?$_Tree_id@PAU?$_Tree_node@U?$pair@$$CBV?$basic_string@DU?$char_traits@D@std@@V?$allocator@D@2@@std@@PAVCMotion@@@std@@PAX@std@@@2@QAU32@@Z ; std::_Tree_val<std::_Tree_simple_types<std::pair<std::basic_string<char,std::char_traits<char>,std::allocator<char> > const ,CMotion *> > >::_Insert_node
  00247	8b 9d cc fe ff
	ff		 mov	 ebx, DWORD PTR $T7[ebp]
$LN233@LoadMotion:
  0024d	8d 8d d0 fe ff
	ff		 lea	 ecx, DWORD PTR $T8[ebp]
  00253	e8 00 00 00 00	 call	 ??1?$basic_string@DU?$char_traits@D@std@@V?$allocator@D@2@@std@@QAE@XZ ; std::basic_string<char,std::char_traits<char>,std::allocator<char> >::~basic_string<char,std::char_traits<char>,std::allocator<char> >
; File C:\IAGOS\server\v18\Source\Source\_Common\Bone.cpp

; 379  : 	return pMotion;

  00258	8b c3		 mov	 eax, ebx
$LN1@LoadMotion:

; 435  : }

  0025a	8b 4d f4	 mov	 ecx, DWORD PTR __$EHRec$[ebp]
  0025d	64 89 0d 00 00
	00 00		 mov	 DWORD PTR fs:0, ecx
  00264	59		 pop	 ecx
  00265	5f		 pop	 edi
  00266	5e		 pop	 esi
  00267	5b		 pop	 ebx
  00268	8b 4d f0	 mov	 ecx, DWORD PTR __$ArrayPad$[ebp]
  0026b	33 cd		 xor	 ecx, ebp
  0026d	e8 00 00 00 00	 call	 @__security_check_cookie@4
  00272	8b e5		 mov	 esp, ebp
  00274	5d		 pop	 ebp
  00275	c2 04 00	 ret	 4
$LN261@LoadMotion:
; File C:\Program Files\Microsoft Visual Studio\2022\Professional\VC\Tools\MSVC\14.44.35207\include\xmemory

; 219  :     _STL_VERIFY(_Back_shift >= _Min_back_shift && _Back_shift <= _Non_user_size, "invalid argument");

  00278	6a 00		 push	 0
  0027a	6a 00		 push	 0
  0027c	6a 00		 push	 0
  0027e	6a 00		 push	 0
  00280	6a 00		 push	 0
  00282	e8 00 00 00 00	 call	 __invoke_watson
$LN262@LoadMotion:
; File C:\Program Files\Microsoft Visual Studio\2022\Professional\VC\Tools\MSVC\14.44.35207\include\xtree

; 1649 :             _Throw_tree_length_error();

  00287	e8 00 00 00 00	 call	 ?_Throw_tree_length_error@std@@YAXXZ ; std::_Throw_tree_length_error
$LN259@LoadMotion:
  0028c	cc		 int	 3
_TEXT	ENDS
;	COMDAT text$x
text$x	SEGMENT
__unwindfunclet$?LoadMotion@CMotionMng@@QAEPAVCMotion@@PBD@Z$2:
  00000	8d 8d d0 fe ff
	ff		 lea	 ecx, DWORD PTR $T8[ebp]
  00006	e9 00 00 00 00	 jmp	 ??1?$pair@$$CBV?$basic_string@DU?$char_traits@D@std@@V?$allocator@D@2@@std@@PAVCMotion@@@std@@QAE@XZ
__unwindfunclet$?LoadMotion@CMotionMng@@QAEPAVCMotion@@PBD@Z$7:
  0000b	8d 8d c4 fe ff
	ff		 lea	 ecx, DWORD PTR $T5[ebp]
  00011	e9 00 00 00 00	 jmp	 ??1?$_Alloc_construct_ptr@V?$allocator@U?$_Tree_node@U?$pair@$$CBV?$basic_string@DU?$char_traits@D@std@@V?$allocator@D@2@@std@@PAVCMotion@@@std@@PAX@std@@@std@@@std@@QAE@XZ ; std::_Alloc_construct_ptr<std::allocator<std::_Tree_node<std::pair<std::basic_string<char,std::char_traits<char>,std::allocator<char> > const ,CMotion *>,void *> > >::~_Alloc_construct_ptr<std::allocator<std::_Tree_node<std::pair<std::basic_string<char,std::char_traits<char>,std::allocator<char> > const ,CMotion *>,void *> > >
__unwindfunclet$?LoadMotion@CMotionMng@@QAEPAVCMotion@@PBD@Z$6:
  00016	8d 8d c4 fe ff
	ff		 lea	 ecx, DWORD PTR $T5[ebp]
  0001c	e9 00 00 00 00	 jmp	 ??1?$_Tree_temp_node_alloc@V?$allocator@U?$_Tree_node@U?$pair@$$CBV?$basic_string@DU?$char_traits@D@std@@V?$allocator@D@2@@std@@PAVCMotion@@@std@@PAX@std@@@std@@@std@@QAE@XZ
  00021	cc		 int	 3
  00022	cc		 int	 3
  00023	cc		 int	 3
  00024	cc		 int	 3
  00025	cc		 int	 3
__ehhandler$?LoadMotion@CMotionMng@@QAEPAVCMotion@@PBD@Z:
  00026	90		 npad	 1
  00027	90		 npad	 1
  00028	8b 54 24 08	 mov	 edx, DWORD PTR [esp+8]
  0002c	8d 42 0c	 lea	 eax, DWORD PTR [edx+12]
  0002f	8b 8a ac fe ff
	ff		 mov	 ecx, DWORD PTR [edx-340]
  00035	33 c8		 xor	 ecx, eax
  00037	e8 00 00 00 00	 call	 @__security_check_cookie@4
  0003c	8b 4a fc	 mov	 ecx, DWORD PTR [edx-4]
  0003f	33 c8		 xor	 ecx, eax
  00041	e8 00 00 00 00	 call	 @__security_check_cookie@4
  00046	b8 00 00 00 00	 mov	 eax, OFFSET __ehfuncinfo$?LoadMotion@CMotionMng@@QAEPAVCMotion@@PBD@Z
  0004b	e9 00 00 00 00	 jmp	 ___CxxFrameHandler3
text$x	ENDS
?LoadMotion@CMotionMng@@QAEPAVCMotion@@PBD@Z ENDP	; CMotionMng::LoadMotion
; Function compile flags: /Ogtp
; File C:\IAGOS\server\v18\Source\Source\_Common\Bone.cpp
; File C:\Program Files\Microsoft Visual Studio\2022\Professional\VC\Tools\MSVC\14.44.35207\include\xtree
; File C:\IAGOS\server\v18\Source\Source\_Common\Bone.cpp
; File C:\Program Files\Microsoft Visual Studio\2022\Professional\VC\Tools\MSVC\14.44.35207\include\xtree
; File C:\IAGOS\server\v18\Source\Source\_Common\Bone.cpp
; File C:\Program Files\Microsoft Visual Studio\2022\Professional\VC\Tools\MSVC\14.44.35207\include\xtree
; File C:\IAGOS\server\v18\Source\Source\_Common\Bone.cpp
;	COMDAT ?Destroy@CMotionMng@@QAEXXZ
_TEXT	SEGMENT
?Destroy@CMotionMng@@QAEXXZ PROC			; CMotionMng::Destroy, COMDAT
; _this$ = ecx

; 335  : {

  00000	53		 push	 ebx
  00001	8b d9		 mov	 ebx, ecx
  00003	56		 push	 esi
  00004	57		 push	 edi
; File C:\Program Files\Microsoft Visual Studio\2022\Professional\VC\Tools\MSVC\14.44.35207\include\xtree

; 1142 :         return iterator(_Scary->_Myhead->_Left, _Scary);

  00005	8b 3b		 mov	 edi, DWORD PTR [ebx]

; 37   :     _Tree_unchecked_const_iterator(_Nodeptr _Pnode, const _Mytree* _Plist) noexcept : _Ptr(_Pnode) {

  00007	8b 37		 mov	 esi, DWORD PTR [edi]

; 237  :         return !(*this == _Right);

  00009	3b f7		 cmp	 esi, edi
; File C:\IAGOS\server\v18\Source\Source\_Common\Bone.cpp

; 337  : 	for( map<string, CMotion*>::iterator i = m_mapMotions.begin(); i != m_mapMotions.end(); ++i )

  0000b	74 65		 je	 SHORT $LN3@Destroy
  0000d	0f 1f 00	 npad	 3
$LL4@Destroy:

; 338  : 		safe_delete( i->second );

  00010	8b 7e 28	 mov	 edi, DWORD PTR [esi+40]
  00013	85 ff		 test	 edi, edi
  00015	74 15		 je	 SHORT $LN2@Destroy
  00017	8b cf		 mov	 ecx, edi
  00019	e8 00 00 00 00	 call	 ??1CMotion@@QAE@XZ	; CMotion::~CMotion
  0001e	68 a4 00 00 00	 push	 164			; 000000a4H
  00023	57		 push	 edi
  00024	e8 00 00 00 00	 call	 ??3@YAXPAXI@Z		; operator delete
  00029	83 c4 08	 add	 esp, 8
$LN2@Destroy:
; File C:\Program Files\Microsoft Visual Studio\2022\Professional\VC\Tools\MSVC\14.44.35207\include\xtree

; 50   :         if (_Ptr->_Right->_Isnil) { // climb looking for right subtree

  0002c	8b 46 08	 mov	 eax, DWORD PTR [esi+8]
  0002f	80 78 0d 00	 cmp	 BYTE PTR [eax+13], 0
  00033	74 1f		 je	 SHORT $LN29@Destroy

; 51   :             _Nodeptr _Pnode;
; 52   :             while (!(_Pnode = _Ptr->_Parent)->_Isnil && _Ptr == _Pnode->_Right) {

  00035	8b 46 04	 mov	 eax, DWORD PTR [esi+4]
  00038	80 78 0d 00	 cmp	 BYTE PTR [eax+13], 0
  0003c	75 12		 jne	 SHORT $LN84@Destroy
  0003e	66 90		 npad	 2
$LL27@Destroy:
  00040	3b 70 08	 cmp	 esi, DWORD PTR [eax+8]
  00043	75 0b		 jne	 SHORT $LN84@Destroy

; 53   :                 _Ptr = _Pnode; // ==> parent while right subtree

  00045	8b f0		 mov	 esi, eax
  00047	8b 40 04	 mov	 eax, DWORD PTR [eax+4]
  0004a	80 78 0d 00	 cmp	 BYTE PTR [eax+13], 0
  0004e	74 f0		 je	 SHORT $LL27@Destroy
$LN84@Destroy:

; 54   :             }
; 55   : 
; 56   :             _Ptr = _Pnode; // ==> parent (head if end())

  00050	8b f0		 mov	 esi, eax

; 57   :         } else {

  00052	eb 18		 jmp	 SHORT $LN35@Destroy
$LN29@Destroy:

; 58   :             _Ptr = _Mytree::_Min(_Ptr->_Right); // ==> smallest of right subtree

  00054	8b f0		 mov	 esi, eax

; 476  :         while (!_Pnode->_Left->_Isnil) {

  00056	8b 0e		 mov	 ecx, DWORD PTR [esi]
  00058	80 79 0d 00	 cmp	 BYTE PTR [ecx+13], 0
  0005c	75 0e		 jne	 SHORT $LN35@Destroy
  0005e	66 90		 npad	 2
$LL34@Destroy:
  00060	8b 01		 mov	 eax, DWORD PTR [ecx]

; 477  :             _Pnode = _Pnode->_Left;

  00062	8b f1		 mov	 esi, ecx
  00064	8b c8		 mov	 ecx, eax
  00066	80 78 0d 00	 cmp	 BYTE PTR [eax+13], 0
  0006a	74 f4		 je	 SHORT $LL34@Destroy
$LN35@Destroy:

; 37   :     _Tree_unchecked_const_iterator(_Nodeptr _Pnode, const _Mytree* _Plist) noexcept : _Ptr(_Pnode) {

  0006c	8b 3b		 mov	 edi, DWORD PTR [ebx]

; 237  :         return !(*this == _Right);

  0006e	3b f7		 cmp	 esi, edi
; File C:\IAGOS\server\v18\Source\Source\_Common\Bone.cpp

; 337  : 	for( map<string, CMotion*>::iterator i = m_mapMotions.begin(); i != m_mapMotions.end(); ++i )

  00070	75 9e		 jne	 SHORT $LL4@Destroy
$LN3@Destroy:
; File C:\Program Files\Microsoft Visual Studio\2022\Professional\VC\Tools\MSVC\14.44.35207\include\xtree

; 1374 :         _Scary->_Erase_tree(_Getal(), _Head->_Parent);

  00072	ff 77 04	 push	 DWORD PTR [edi+4]
  00075	8b cb		 mov	 ecx, ebx
  00077	53		 push	 ebx
  00078	e8 00 00 00 00	 call	 ??$_Erase_tree@V?$allocator@U?$_Tree_node@U?$pair@$$CBV?$basic_string@DU?$char_traits@D@std@@V?$allocator@D@2@@std@@PAVCMotion@@@std@@PAX@std@@@std@@@?$_Tree_val@U?$_Tree_simple_types@U?$pair@$$CBV?$basic_string@DU?$char_traits@D@std@@V?$allocator@D@2@@std@@PAVCMotion@@@std@@@std@@@std@@QAEXAAV?$allocator@U?$_Tree_node@U?$pair@$$CBV?$basic_string@DU?$char_traits@D@std@@V?$allocator@D@2@@std@@PAVCMotion@@@std@@PAX@std@@@1@PAU?$_Tree_node@U?$pair@$$CBV?$basic_string@DU?$char_traits@D@std@@V?$allocator@D@2@@std@@PAVCMotion@@@std@@PAX@1@@Z ; std::_Tree_val<std::_Tree_simple_types<std::pair<std::basic_string<char,std::char_traits<char>,std::allocator<char> > const ,CMotion *> > >::_Erase_tree<std::allocator<std::_Tree_node<std::pair<std::basic_string<char,std::char_traits<char>,std::allocator<char> > const ,CMotion *>,void *> > >

; 1375 :         _Head->_Parent  = _Head;

  0007d	89 7f 04	 mov	 DWORD PTR [edi+4], edi

; 1376 :         _Head->_Left    = _Head;

  00080	89 3f		 mov	 DWORD PTR [edi], edi

; 1377 :         _Head->_Right   = _Head;

  00082	89 7f 08	 mov	 DWORD PTR [edi+8], edi

; 1378 :         _Scary->_Mysize = 0;

  00085	5f		 pop	 edi
  00086	5e		 pop	 esi
  00087	c7 43 04 00 00
	00 00		 mov	 DWORD PTR [ebx+4], 0
  0008e	5b		 pop	 ebx
; File C:\IAGOS\server\v18\Source\Source\_Common\Bone.cpp

; 355  : }

  0008f	c3		 ret	 0
?Destroy@CMotionMng@@QAEXXZ ENDP			; CMotionMng::Destroy
_TEXT	ENDS
; Function compile flags: /Ogtp
; File C:\IAGOS\server\v18\Source\Source\_Common\Bone.cpp
;	COMDAT ?Init@CMotionMng@@QAEXXZ
_TEXT	SEGMENT
?Init@CMotionMng@@QAEXXZ PROC				; CMotionMng::Init, COMDAT
; _this$ = ecx

; 320  : #if __VER < 12 // __LEAK_0827
; 321  : 	int		i;
; 322  : 	m_nSize = 0;
; 323  : 	m_nMax = 0;
; 324  : 	m_nCachePos = 0;
; 325  : 
; 326  : 	for( i = 0; i < MAX_MOTION; i ++ )
; 327  : 		m_pMotionAry[i] = NULL;
; 328  : 	
; 329  : 	for( i = 0; i < MAX_MOTION_CACHE; i ++ )
; 330  : 		m_pCache[i] = NULL;
; 331  : #endif	// __LEAK_0827
; 332  : }

  00000	c2 00 00	 ret	 0
?Init@CMotionMng@@QAEXXZ ENDP				; CMotionMng::Init
_TEXT	ENDS
; Function compile flags: /Ogtp
; File C:\IAGOS\server\v18\Source\Source\_Common\Bone.cpp
; File C:\Program Files\Microsoft Visual Studio\2022\Professional\VC\Tools\MSVC\14.44.35207\include\xtree
; File C:\Program Files\Microsoft Visual Studio\2022\Professional\VC\Tools\MSVC\14.44.35207\include\xmemory
; File C:\IAGOS\server\v18\Source\Source\_Common\Bone.cpp
;	COMDAT ??1CMotionMng@@QAE@XZ
_TEXT	SEGMENT
??1CMotionMng@@QAE@XZ PROC				; CMotionMng::~CMotionMng, COMDAT
; _this$ = ecx

; 314  : {

  00000	56		 push	 esi
  00001	8b f1		 mov	 esi, ecx

; 315  : 	Destroy();

  00003	e8 00 00 00 00	 call	 ?Destroy@CMotionMng@@QAEXXZ ; CMotionMng::Destroy
; File C:\Program Files\Microsoft Visual Studio\2022\Professional\VC\Tools\MSVC\14.44.35207\include\xtree

; 777  :         _Erase_tree(_Al, _Myhead->_Parent);

  00008	8b 06		 mov	 eax, DWORD PTR [esi]
  0000a	8b ce		 mov	 ecx, esi
  0000c	ff 70 04	 push	 DWORD PTR [eax+4]
  0000f	56		 push	 esi
  00010	e8 00 00 00 00	 call	 ??$_Erase_tree@V?$allocator@U?$_Tree_node@U?$pair@$$CBV?$basic_string@DU?$char_traits@D@std@@V?$allocator@D@2@@std@@PAVCMotion@@@std@@PAX@std@@@std@@@?$_Tree_val@U?$_Tree_simple_types@U?$pair@$$CBV?$basic_string@DU?$char_traits@D@std@@V?$allocator@D@2@@std@@PAVCMotion@@@std@@@std@@@std@@QAEXAAV?$allocator@U?$_Tree_node@U?$pair@$$CBV?$basic_string@DU?$char_traits@D@std@@V?$allocator@D@2@@std@@PAVCMotion@@@std@@PAX@std@@@1@PAU?$_Tree_node@U?$pair@$$CBV?$basic_string@DU?$char_traits@D@std@@V?$allocator@D@2@@std@@PAVCMotion@@@std@@PAX@1@@Z ; std::_Tree_val<std::_Tree_simple_types<std::pair<std::basic_string<char,std::char_traits<char>,std::allocator<char> > const ,CMotion *> > >::_Erase_tree<std::allocator<std::_Tree_node<std::pair<std::basic_string<char,std::char_traits<char>,std::allocator<char> > const ,CMotion *>,void *> > >
; File C:\Program Files\Microsoft Visual Studio\2022\Professional\VC\Tools\MSVC\14.44.35207\include\xmemory

; 289  :         ::operator delete(_Ptr, _Bytes);

  00015	6a 2c		 push	 44			; 0000002cH
  00017	ff 36		 push	 DWORD PTR [esi]
  00019	e8 00 00 00 00	 call	 ??3@YAXPAXI@Z		; operator delete
  0001e	83 c4 08	 add	 esp, 8
  00021	5e		 pop	 esi
; File C:\IAGOS\server\v18\Source\Source\_Common\Bone.cpp

; 316  : }

  00022	c3		 ret	 0
??1CMotionMng@@QAE@XZ ENDP				; CMotionMng::~CMotionMng
_TEXT	ENDS
; Function compile flags: /Ogtp
; File C:\IAGOS\server\v18\Source\Source\_Common\Bone.cpp
; File C:\Program Files\Microsoft Visual Studio\2022\Professional\VC\Tools\MSVC\14.44.35207\include\xmemory
; File C:\IAGOS\server\v18\Source\Source\_Common\Bone.cpp
; File C:\Program Files\Microsoft Visual Studio\2022\Professional\VC\Tools\MSVC\14.44.35207\include\xtree
; File C:\Program Files\Microsoft Visual Studio\2022\Professional\VC\Tools\MSVC\14.44.35207\include\xmemory
; File C:\Program Files\Microsoft Visual Studio\2022\Professional\VC\Tools\MSVC\14.44.35207\include\xtree
; File C:\IAGOS\server\v18\Source\Source\_Common\Bone.cpp
;	COMDAT ??0CMotionMng@@QAE@XZ
_TEXT	SEGMENT
_this$ = -4						; size = 4
??0CMotionMng@@QAE@XZ PROC				; CMotionMng::CMotionMng, COMDAT
; _this$ = ecx

; 307  : {

  00000	55		 push	 ebp
  00001	8b ec		 mov	 ebp, esp
  00003	51		 push	 ecx
  00004	56		 push	 esi
  00005	8b f1		 mov	 esi, ecx
; File C:\Program Files\Microsoft Visual Studio\2022\Professional\VC\Tools\MSVC\14.44.35207\include\xmemory

; 136  :         return ::operator new(_Bytes);

  00007	6a 2c		 push	 44			; 0000002cH
; File C:\IAGOS\server\v18\Source\Source\_Common\Bone.cpp

; 307  : {

  00009	89 75 fc	 mov	 DWORD PTR _this$[ebp], esi
; File C:\Program Files\Microsoft Visual Studio\2022\Professional\VC\Tools\MSVC\14.44.35207\include\xtree

; 450  :     _Tree_val() noexcept : _Myhead(), _Mysize(0) {}

  0000c	c7 06 00 00 00
	00		 mov	 DWORD PTR [esi], 0
  00012	c7 46 04 00 00
	00 00		 mov	 DWORD PTR [esi+4], 0
; File C:\Program Files\Microsoft Visual Studio\2022\Professional\VC\Tools\MSVC\14.44.35207\include\xmemory

; 136  :         return ::operator new(_Bytes);

  00019	e8 00 00 00 00	 call	 ??2@YAPAXI@Z		; operator new
  0001e	83 c4 04	 add	 esp, 4
; File C:\Program Files\Microsoft Visual Studio\2022\Professional\VC\Tools\MSVC\14.44.35207\include\xtree

; 346  :         _Construct_in_place(_Pnode->_Left, _Pnode);

  00021	89 00		 mov	 DWORD PTR [eax], eax

; 347  :         _Construct_in_place(_Pnode->_Parent, _Pnode);

  00023	89 40 04	 mov	 DWORD PTR [eax+4], eax

; 348  :         _Construct_in_place(_Pnode->_Right, _Pnode);

  00026	89 40 08	 mov	 DWORD PTR [eax+8], eax

; 349  :         _Pnode->_Color = _Black;

  00029	66 c7 40 0c 01
	01		 mov	 WORD PTR [eax+12], 257	; 00000101H

; 1957 :         _Scary->_Myhead = _Node::_Buyheadnode(_Getal());

  0002f	89 06		 mov	 DWORD PTR [esi], eax
; File C:\IAGOS\server\v18\Source\Source\_Common\Bone.cpp

; 311  : }

  00031	8b c6		 mov	 eax, esi
  00033	5e		 pop	 esi
  00034	8b e5		 mov	 esp, ebp
  00036	5d		 pop	 ebp
  00037	c3		 ret	 0
??0CMotionMng@@QAE@XZ ENDP				; CMotionMng::CMotionMng
_TEXT	ENDS
; Function compile flags: /Ogtp
; File C:\Program Files\Microsoft Visual Studio\2022\Professional\VC\Tools\MSVC\14.44.35207\include\xtree
;	COMDAT ?_Insert_node@?$_Tree_val@U?$_Tree_simple_types@U?$pair@$$CBV?$basic_string@DU?$char_traits@D@std@@V?$allocator@D@2@@std@@PAVCMotion@@@std@@@std@@@std@@QAEPAU?$_Tree_node@U?$pair@$$CBV?$basic_string@DU?$char_traits@D@std@@V?$allocator@D@2@@std@@PAVCMotion@@@std@@PAX@2@U?$_Tree_id@PAU?$_Tree_node@U?$pair@$$CBV?$basic_string@DU?$char_traits@D@std@@V?$allocator@D@2@@std@@PAVCMotion@@@std@@PAX@std@@@2@QAU32@@Z
_TEXT	SEGMENT
__Head$1$ = -4						; size = 4
__Loc$ = 8						; size = 8
__Newnode$ = 16						; size = 4
?_Insert_node@?$_Tree_val@U?$_Tree_simple_types@U?$pair@$$CBV?$basic_string@DU?$char_traits@D@std@@V?$allocator@D@2@@std@@PAVCMotion@@@std@@@std@@@std@@QAEPAU?$_Tree_node@U?$pair@$$CBV?$basic_string@DU?$char_traits@D@std@@V?$allocator@D@2@@std@@PAVCMotion@@@std@@PAX@2@U?$_Tree_id@PAU?$_Tree_node@U?$pair@$$CBV?$basic_string@DU?$char_traits@D@std@@V?$allocator@D@2@@std@@PAVCMotion@@@std@@PAX@std@@@2@QAU32@@Z PROC ; std::_Tree_val<std::_Tree_simple_types<std::pair<std::basic_string<char,std::char_traits<char>,std::allocator<char> > const ,CMotion *> > >::_Insert_node, COMDAT
; _this$ = ecx

; 669  :     _Nodeptr _Insert_node(const _Tree_id<_Nodeptr> _Loc, const _Nodeptr _Newnode) noexcept {

  00000	55		 push	 ebp
  00001	8b ec		 mov	 ebp, esp
  00003	51		 push	 ecx

; 670  :         ++_Mysize;
; 671  :         const auto _Head  = _Myhead;
; 672  :         _Newnode->_Parent = _Loc._Parent;

  00004	8b 55 08	 mov	 edx, DWORD PTR __Loc$[ebp]
  00007	53		 push	 ebx
  00008	8b d9		 mov	 ebx, ecx
  0000a	57		 push	 edi
  0000b	8b 7d 10	 mov	 edi, DWORD PTR __Newnode$[ebp]
  0000e	8b 03		 mov	 eax, DWORD PTR [ebx]
  00010	ff 43 04	 inc	 DWORD PTR [ebx+4]
  00013	89 45 fc	 mov	 DWORD PTR __Head$1$[ebp], eax
  00016	89 57 04	 mov	 DWORD PTR [edi+4], edx

; 673  :         if (_Loc._Parent == _Head) { // first node in tree, just set head values

  00019	3b d0		 cmp	 edx, eax
  0001b	75 16		 jne	 SHORT $LN5@Insert_nod

; 674  :             _Head->_Left     = _Newnode;

  0001d	89 38		 mov	 DWORD PTR [eax], edi

; 675  :             _Head->_Parent   = _Newnode;

  0001f	89 78 04	 mov	 DWORD PTR [eax+4], edi

; 676  :             _Head->_Right    = _Newnode;

  00022	89 78 08	 mov	 DWORD PTR [eax+8], edi

; 735  :         return _Newnode;
; 736  :     }

  00025	8b c7		 mov	 eax, edi
  00027	c6 47 0c 01	 mov	 BYTE PTR [edi+12], 1
  0002b	5f		 pop	 edi
  0002c	5b		 pop	 ebx
  0002d	8b e5		 mov	 esp, ebp
  0002f	5d		 pop	 ebp
  00030	c2 0c 00	 ret	 12			; 0000000cH
$LN5@Insert_nod:

; 677  :             _Newnode->_Color = _Black; // the root is black
; 678  :             return _Newnode;
; 679  :         }
; 680  : 
; 681  :         _STL_INTERNAL_CHECK(_Loc._Child != _Tree_child::_Unused);
; 682  :         if (_Loc._Child == _Tree_child::_Right) { // add to right of _Loc._Parent

  00033	83 7d 0c 00	 cmp	 DWORD PTR __Loc$[ebp+4], 0
  00037	75 0d		 jne	 SHORT $LN6@Insert_nod

; 683  :             _STL_INTERNAL_CHECK(_Loc._Parent->_Right->_Isnil);
; 684  :             _Loc._Parent->_Right = _Newnode;

  00039	89 7a 08	 mov	 DWORD PTR [edx+8], edi

; 685  :             if (_Loc._Parent == _Head->_Right) { // remember rightmost node

  0003c	3b 50 08	 cmp	 edx, DWORD PTR [eax+8]
  0003f	75 0d		 jne	 SHORT $LN9@Insert_nod

; 686  :                 _Head->_Right = _Newnode;

  00041	89 78 08	 mov	 DWORD PTR [eax+8], edi

; 687  :             }
; 688  :         } else { // add to left of _Loc._Parent

  00044	eb 08		 jmp	 SHORT $LN9@Insert_nod
$LN6@Insert_nod:

; 689  :             _STL_INTERNAL_CHECK(_Loc._Parent->_Left->_Isnil);
; 690  :             _Loc._Parent->_Left = _Newnode;

  00046	89 3a		 mov	 DWORD PTR [edx], edi

; 691  :             if (_Loc._Parent == _Head->_Left) { // remember leftmost node

  00048	3b 10		 cmp	 edx, DWORD PTR [eax]
  0004a	75 02		 jne	 SHORT $LN9@Insert_nod

; 692  :                 _Head->_Left = _Newnode;

  0004c	89 38		 mov	 DWORD PTR [eax], edi
$LN9@Insert_nod:

; 693  :             }
; 694  :         }
; 695  : 
; 696  :         for (_Nodeptr _Pnode = _Newnode; _Pnode->_Parent->_Color == _Red;) {

  0004e	8b 4f 04	 mov	 ecx, DWORD PTR [edi+4]
  00051	8b c7		 mov	 eax, edi
  00053	80 79 0c 00	 cmp	 BYTE PTR [ecx+12], 0
  00057	0f 85 7d 01 00
	00		 jne	 $LN3@Insert_nod
  0005d	56		 push	 esi
  0005e	66 90		 npad	 2
$LL4@Insert_nod:

; 697  :             if (_Pnode->_Parent == _Pnode->_Parent->_Parent->_Left) { // fixup red-red in left subtree

  00060	8b 50 04	 mov	 edx, DWORD PTR [eax+4]
  00063	8b 72 04	 mov	 esi, DWORD PTR [edx+4]
  00066	8b 0e		 mov	 ecx, DWORD PTR [esi]
  00068	3b d1		 cmp	 edx, ecx
  0006a	0f 85 aa 00 00
	00		 jne	 $LN10@Insert_nod

; 698  :                 const auto _Parent_sibling = _Pnode->_Parent->_Parent->_Right;

  00070	8b 4e 08	 mov	 ecx, DWORD PTR [esi+8]

; 699  :                 if (_Parent_sibling->_Color == _Red) { // parent's sibling has two red children, blacken both

  00073	80 79 0c 00	 cmp	 BYTE PTR [ecx+12], 0
  00077	0f 84 a3 00 00
	00		 je	 $LN82@Insert_nod

; 700  :                     _Pnode->_Parent->_Color          = _Black;
; 701  :                     _Parent_sibling->_Color          = _Black;
; 702  :                     _Pnode->_Parent->_Parent->_Color = _Red;
; 703  :                     _Pnode                           = _Pnode->_Parent->_Parent;
; 704  :                 } else { // parent's sibling has red and black children
; 705  :                     if (_Pnode == _Pnode->_Parent->_Right) { // rotate right child to left

  0007d	8b 72 08	 mov	 esi, DWORD PTR [edx+8]
  00080	3b c6		 cmp	 eax, esi
  00082	75 37		 jne	 SHORT $LN57@Insert_nod

; 485  :         _Wherenode->_Right = _Pnode->_Left;

  00084	8b 0e		 mov	 ecx, DWORD PTR [esi]

; 706  :                         _Pnode = _Pnode->_Parent;

  00086	8b c2		 mov	 eax, edx

; 485  :         _Wherenode->_Right = _Pnode->_Left;

  00088	89 4a 08	 mov	 DWORD PTR [edx+8], ecx

; 486  : 
; 487  :         if (!_Pnode->_Left->_Isnil) {

  0008b	8b 0e		 mov	 ecx, DWORD PTR [esi]
  0008d	80 79 0d 00	 cmp	 BYTE PTR [ecx+13], 0
  00091	75 03		 jne	 SHORT $LN21@Insert_nod

; 488  :             _Pnode->_Left->_Parent = _Wherenode;

  00093	89 41 04	 mov	 DWORD PTR [ecx+4], eax
$LN21@Insert_nod:

; 489  :         }
; 490  : 
; 491  :         _Pnode->_Parent = _Wherenode->_Parent;

  00096	8b 4a 04	 mov	 ecx, DWORD PTR [edx+4]
  00099	89 4e 04	 mov	 DWORD PTR [esi+4], ecx

; 492  : 
; 493  :         if (_Wherenode == _Myhead->_Parent) {

  0009c	8b 0b		 mov	 ecx, DWORD PTR [ebx]
  0009e	3b 41 04	 cmp	 eax, DWORD PTR [ecx+4]
  000a1	75 05		 jne	 SHORT $LN22@Insert_nod

; 494  :             _Myhead->_Parent = _Pnode;

  000a3	89 71 04	 mov	 DWORD PTR [ecx+4], esi
  000a6	eb 0e		 jmp	 SHORT $LN25@Insert_nod
$LN22@Insert_nod:

; 495  :         } else if (_Wherenode == _Wherenode->_Parent->_Left) {

  000a8	8b 4a 04	 mov	 ecx, DWORD PTR [edx+4]
  000ab	3b 01		 cmp	 eax, DWORD PTR [ecx]
  000ad	75 04		 jne	 SHORT $LN24@Insert_nod

; 496  :             _Wherenode->_Parent->_Left = _Pnode;

  000af	89 31		 mov	 DWORD PTR [ecx], esi

; 497  :         } else {

  000b1	eb 03		 jmp	 SHORT $LN25@Insert_nod
$LN24@Insert_nod:

; 498  :             _Wherenode->_Parent->_Right = _Pnode;

  000b3	89 71 08	 mov	 DWORD PTR [ecx+8], esi
$LN25@Insert_nod:

; 499  :         }
; 500  : 
; 501  :         _Pnode->_Left       = _Wherenode;

  000b6	89 06		 mov	 DWORD PTR [esi], eax

; 502  :         _Wherenode->_Parent = _Pnode;

  000b8	89 70 04	 mov	 DWORD PTR [eax+4], esi
$LN57@Insert_nod:

; 707  :                         _Lrotate(_Pnode);
; 708  :                     }
; 709  : 
; 710  :                     _Pnode->_Parent->_Color          = _Black; // propagate red up

  000bb	8b 48 04	 mov	 ecx, DWORD PTR [eax+4]
  000be	c6 41 0c 01	 mov	 BYTE PTR [ecx+12], 1

; 711  :                     _Pnode->_Parent->_Parent->_Color = _Red;

  000c2	8b 48 04	 mov	 ecx, DWORD PTR [eax+4]
  000c5	8b 49 04	 mov	 ecx, DWORD PTR [ecx+4]
  000c8	c6 41 0c 00	 mov	 BYTE PTR [ecx+12], 0

; 712  :                     _Rrotate(_Pnode->_Parent->_Parent);

  000cc	8b 48 04	 mov	 ecx, DWORD PTR [eax+4]
  000cf	8b 51 04	 mov	 edx, DWORD PTR [ecx+4]

; 506  :         _Nodeptr _Pnode   = _Wherenode->_Left;

  000d2	8b 32		 mov	 esi, DWORD PTR [edx]

; 507  :         _Wherenode->_Left = _Pnode->_Right;

  000d4	8b 4e 08	 mov	 ecx, DWORD PTR [esi+8]
  000d7	89 0a		 mov	 DWORD PTR [edx], ecx

; 508  : 
; 509  :         if (!_Pnode->_Right->_Isnil) {

  000d9	8b 4e 08	 mov	 ecx, DWORD PTR [esi+8]
  000dc	80 79 0d 00	 cmp	 BYTE PTR [ecx+13], 0
  000e0	75 03		 jne	 SHORT $LN29@Insert_nod

; 510  :             _Pnode->_Right->_Parent = _Wherenode;

  000e2	89 51 04	 mov	 DWORD PTR [ecx+4], edx
$LN29@Insert_nod:

; 511  :         }
; 512  : 
; 513  :         _Pnode->_Parent = _Wherenode->_Parent;

  000e5	8b 4a 04	 mov	 ecx, DWORD PTR [edx+4]
  000e8	89 4e 04	 mov	 DWORD PTR [esi+4], ecx

; 514  : 
; 515  :         if (_Wherenode == _Myhead->_Parent) {

  000eb	8b 0b		 mov	 ecx, DWORD PTR [ebx]
  000ed	3b 51 04	 cmp	 edx, DWORD PTR [ecx+4]
  000f0	75 0b		 jne	 SHORT $LN30@Insert_nod

; 516  :             _Myhead->_Parent = _Pnode;

  000f2	89 71 04	 mov	 DWORD PTR [ecx+4], esi

; 521  :         }
; 522  : 
; 523  :         _Pnode->_Right      = _Wherenode;

  000f5	89 56 08	 mov	 DWORD PTR [esi+8], edx

; 713  :                 }
; 714  :             } else { // fixup red-red in right subtree

  000f8	e9 cc 00 00 00	 jmp	 $LN81@Insert_nod
$LN30@Insert_nod:

; 517  :         } else if (_Wherenode == _Wherenode->_Parent->_Right) {

  000fd	8b 4a 04	 mov	 ecx, DWORD PTR [edx+4]
  00100	3b 51 08	 cmp	 edx, DWORD PTR [ecx+8]
  00103	75 0b		 jne	 SHORT $LN32@Insert_nod

; 518  :             _Wherenode->_Parent->_Right = _Pnode;

  00105	89 71 08	 mov	 DWORD PTR [ecx+8], esi

; 521  :         }
; 522  : 
; 523  :         _Pnode->_Right      = _Wherenode;

  00108	89 56 08	 mov	 DWORD PTR [esi+8], edx

; 713  :                 }
; 714  :             } else { // fixup red-red in right subtree

  0010b	e9 b9 00 00 00	 jmp	 $LN81@Insert_nod
$LN32@Insert_nod:

; 520  :             _Wherenode->_Parent->_Left = _Pnode;

  00110	89 31		 mov	 DWORD PTR [ecx], esi

; 521  :         }
; 522  : 
; 523  :         _Pnode->_Right      = _Wherenode;

  00112	89 56 08	 mov	 DWORD PTR [esi+8], edx

; 713  :                 }
; 714  :             } else { // fixup red-red in right subtree

  00115	e9 af 00 00 00	 jmp	 $LN81@Insert_nod
$LN10@Insert_nod:

; 715  :                 const auto _Parent_sibling = _Pnode->_Parent->_Parent->_Left;
; 716  :                 if (_Parent_sibling->_Color == _Red) { // parent's sibling has two red children, blacken both

  0011a	80 79 0c 00	 cmp	 BYTE PTR [ecx+12], 0
  0011e	75 1d		 jne	 SHORT $LN15@Insert_nod
$LN82@Insert_nod:

; 693  :             }
; 694  :         }
; 695  : 
; 696  :         for (_Nodeptr _Pnode = _Newnode; _Pnode->_Parent->_Color == _Red;) {

  00120	c6 42 0c 01	 mov	 BYTE PTR [edx+12], 1
  00124	c6 41 0c 01	 mov	 BYTE PTR [ecx+12], 1
  00128	8b 48 04	 mov	 ecx, DWORD PTR [eax+4]
  0012b	8b 49 04	 mov	 ecx, DWORD PTR [ecx+4]
  0012e	c6 41 0c 00	 mov	 BYTE PTR [ecx+12], 0
  00132	8b 48 04	 mov	 ecx, DWORD PTR [eax+4]
  00135	8b 41 04	 mov	 eax, DWORD PTR [ecx+4]
  00138	e9 8f 00 00 00	 jmp	 $LN2@Insert_nod
$LN15@Insert_nod:

; 717  :                     _Pnode->_Parent->_Color          = _Black;
; 718  :                     _Parent_sibling->_Color          = _Black;
; 719  :                     _Pnode->_Parent->_Parent->_Color = _Red;
; 720  :                     _Pnode                           = _Pnode->_Parent->_Parent;
; 721  :                 } else { // parent's sibling has red and black children
; 722  :                     if (_Pnode == _Pnode->_Parent->_Left) { // rotate left child to right

  0013d	8b 32		 mov	 esi, DWORD PTR [edx]
  0013f	3b c6		 cmp	 eax, esi
  00141	75 3a		 jne	 SHORT $LN42@Insert_nod

; 507  :         _Wherenode->_Left = _Pnode->_Right;

  00143	8b 4e 08	 mov	 ecx, DWORD PTR [esi+8]

; 723  :                         _Pnode = _Pnode->_Parent;

  00146	8b c2		 mov	 eax, edx

; 507  :         _Wherenode->_Left = _Pnode->_Right;

  00148	89 08		 mov	 DWORD PTR [eax], ecx

; 508  : 
; 509  :         if (!_Pnode->_Right->_Isnil) {

  0014a	8b 4e 08	 mov	 ecx, DWORD PTR [esi+8]
  0014d	80 79 0d 00	 cmp	 BYTE PTR [ecx+13], 0
  00151	75 03		 jne	 SHORT $LN37@Insert_nod

; 510  :             _Pnode->_Right->_Parent = _Wherenode;

  00153	89 41 04	 mov	 DWORD PTR [ecx+4], eax
$LN37@Insert_nod:

; 511  :         }
; 512  : 
; 513  :         _Pnode->_Parent = _Wherenode->_Parent;

  00156	8b 4a 04	 mov	 ecx, DWORD PTR [edx+4]
  00159	89 4e 04	 mov	 DWORD PTR [esi+4], ecx

; 514  : 
; 515  :         if (_Wherenode == _Myhead->_Parent) {

  0015c	8b 0b		 mov	 ecx, DWORD PTR [ebx]
  0015e	3b 41 04	 cmp	 eax, DWORD PTR [ecx+4]
  00161	75 05		 jne	 SHORT $LN38@Insert_nod

; 516  :             _Myhead->_Parent = _Pnode;

  00163	89 71 04	 mov	 DWORD PTR [ecx+4], esi
  00166	eb 0f		 jmp	 SHORT $LN41@Insert_nod
$LN38@Insert_nod:

; 517  :         } else if (_Wherenode == _Wherenode->_Parent->_Right) {

  00168	8b 4a 04	 mov	 ecx, DWORD PTR [edx+4]
  0016b	3b 41 08	 cmp	 eax, DWORD PTR [ecx+8]
  0016e	75 05		 jne	 SHORT $LN40@Insert_nod

; 518  :             _Wherenode->_Parent->_Right = _Pnode;

  00170	89 71 08	 mov	 DWORD PTR [ecx+8], esi

; 519  :         } else {

  00173	eb 02		 jmp	 SHORT $LN41@Insert_nod
$LN40@Insert_nod:

; 520  :             _Wherenode->_Parent->_Left = _Pnode;

  00175	89 31		 mov	 DWORD PTR [ecx], esi
$LN41@Insert_nod:

; 521  :         }
; 522  : 
; 523  :         _Pnode->_Right      = _Wherenode;

  00177	89 46 08	 mov	 DWORD PTR [esi+8], eax

; 524  :         _Wherenode->_Parent = _Pnode;

  0017a	89 70 04	 mov	 DWORD PTR [eax+4], esi
$LN42@Insert_nod:

; 724  :                         _Rrotate(_Pnode);
; 725  :                     }
; 726  : 
; 727  :                     _Pnode->_Parent->_Color          = _Black; // propagate red up

  0017d	8b 48 04	 mov	 ecx, DWORD PTR [eax+4]
  00180	c6 41 0c 01	 mov	 BYTE PTR [ecx+12], 1

; 728  :                     _Pnode->_Parent->_Parent->_Color = _Red;

  00184	8b 48 04	 mov	 ecx, DWORD PTR [eax+4]
  00187	8b 49 04	 mov	 ecx, DWORD PTR [ecx+4]
  0018a	c6 41 0c 00	 mov	 BYTE PTR [ecx+12], 0

; 729  :                     _Lrotate(_Pnode->_Parent->_Parent);

  0018e	8b 48 04	 mov	 ecx, DWORD PTR [eax+4]
  00191	8b 51 04	 mov	 edx, DWORD PTR [ecx+4]

; 484  :         _Nodeptr _Pnode    = _Wherenode->_Right;

  00194	8b 72 08	 mov	 esi, DWORD PTR [edx+8]

; 485  :         _Wherenode->_Right = _Pnode->_Left;

  00197	8b 0e		 mov	 ecx, DWORD PTR [esi]
  00199	89 4a 08	 mov	 DWORD PTR [edx+8], ecx

; 486  : 
; 487  :         if (!_Pnode->_Left->_Isnil) {

  0019c	8b 0e		 mov	 ecx, DWORD PTR [esi]
  0019e	80 79 0d 00	 cmp	 BYTE PTR [ecx+13], 0
  001a2	75 03		 jne	 SHORT $LN45@Insert_nod

; 488  :             _Pnode->_Left->_Parent = _Wherenode;

  001a4	89 51 04	 mov	 DWORD PTR [ecx+4], edx
$LN45@Insert_nod:

; 489  :         }
; 490  : 
; 491  :         _Pnode->_Parent = _Wherenode->_Parent;

  001a7	8b 4a 04	 mov	 ecx, DWORD PTR [edx+4]
  001aa	89 4e 04	 mov	 DWORD PTR [esi+4], ecx

; 492  : 
; 493  :         if (_Wherenode == _Myhead->_Parent) {

  001ad	8b 0b		 mov	 ecx, DWORD PTR [ebx]
  001af	3b 51 04	 cmp	 edx, DWORD PTR [ecx+4]
  001b2	75 05		 jne	 SHORT $LN46@Insert_nod

; 494  :             _Myhead->_Parent = _Pnode;

  001b4	89 71 04	 mov	 DWORD PTR [ecx+4], esi
  001b7	eb 0e		 jmp	 SHORT $LN49@Insert_nod
$LN46@Insert_nod:

; 495  :         } else if (_Wherenode == _Wherenode->_Parent->_Left) {

  001b9	8b 4a 04	 mov	 ecx, DWORD PTR [edx+4]
  001bc	3b 11		 cmp	 edx, DWORD PTR [ecx]
  001be	75 04		 jne	 SHORT $LN48@Insert_nod

; 496  :             _Wherenode->_Parent->_Left = _Pnode;

  001c0	89 31		 mov	 DWORD PTR [ecx], esi

; 497  :         } else {

  001c2	eb 03		 jmp	 SHORT $LN49@Insert_nod
$LN48@Insert_nod:

; 498  :             _Wherenode->_Parent->_Right = _Pnode;

  001c4	89 71 08	 mov	 DWORD PTR [ecx+8], esi
$LN49@Insert_nod:

; 499  :         }
; 500  : 
; 501  :         _Pnode->_Left       = _Wherenode;

  001c7	89 16		 mov	 DWORD PTR [esi], edx
$LN81@Insert_nod:

; 693  :             }
; 694  :         }
; 695  : 
; 696  :         for (_Nodeptr _Pnode = _Newnode; _Pnode->_Parent->_Color == _Red;) {

  001c9	89 72 04	 mov	 DWORD PTR [edx+4], esi
$LN2@Insert_nod:
  001cc	8b 48 04	 mov	 ecx, DWORD PTR [eax+4]
  001cf	80 79 0c 00	 cmp	 BYTE PTR [ecx+12], 0
  001d3	0f 84 87 fe ff
	ff		 je	 $LL4@Insert_nod
  001d9	5e		 pop	 esi
$LN3@Insert_nod:

; 730  :                 }
; 731  :             }
; 732  :         }
; 733  : 
; 734  :         _Head->_Parent->_Color = _Black; // root is always black

  001da	8b 45 fc	 mov	 eax, DWORD PTR __Head$1$[ebp]
  001dd	8b 40 04	 mov	 eax, DWORD PTR [eax+4]
  001e0	c6 40 0c 01	 mov	 BYTE PTR [eax+12], 1

; 735  :         return _Newnode;
; 736  :     }

  001e4	8b c7		 mov	 eax, edi
  001e6	5f		 pop	 edi
  001e7	5b		 pop	 ebx
  001e8	8b e5		 mov	 esp, ebp
  001ea	5d		 pop	 ebp
  001eb	c2 0c 00	 ret	 12			; 0000000cH
?_Insert_node@?$_Tree_val@U?$_Tree_simple_types@U?$pair@$$CBV?$basic_string@DU?$char_traits@D@std@@V?$allocator@D@2@@std@@PAVCMotion@@@std@@@std@@@std@@QAEPAU?$_Tree_node@U?$pair@$$CBV?$basic_string@DU?$char_traits@D@std@@V?$allocator@D@2@@std@@PAVCMotion@@@std@@PAX@2@U?$_Tree_id@PAU?$_Tree_node@U?$pair@$$CBV?$basic_string@DU?$char_traits@D@std@@V?$allocator@D@2@@std@@PAVCMotion@@@std@@PAX@std@@@2@QAU32@@Z ENDP ; std::_Tree_val<std::_Tree_simple_types<std::pair<std::basic_string<char,std::char_traits<char>,std::allocator<char> > const ,CMotion *> > >::_Insert_node
_TEXT	ENDS
; Function compile flags: /Ogtp
; File C:\IAGOS\server\v18\Source\Source\_Common\Bone.cpp
; File C:\IAGOS\server\v18\Source\Source\DX_SDK\d3dx9math.inl
; File C:\IAGOS\server\v18\Source\Source\_Common\Bone.cpp
; File C:\IAGOS\server\v18\Source\Source\DX_SDK\d3dx9math.inl
; File C:\IAGOS\server\v18\Source\Source\_Common\Bone.cpp
; File C:\IAGOS\server\v18\Source\Source\DX_SDK\d3dx9math.inl
; File C:\IAGOS\server\v18\Source\Source\_Common\Bone.cpp
; File C:\IAGOS\server\v18\Source\Source\DX_SDK\d3dx9math.inl
; File C:\IAGOS\server\v18\Source\Source\_Common\Bone.cpp
; File C:\IAGOS\server\v18\Source\Source\DX_SDK\d3dx9math.inl
; File C:\IAGOS\server\v18\Source\Source\_Common\Bone.cpp
; File C:\IAGOS\server\v18\Source\Source\DX_SDK\d3dx9math.inl
; File C:\IAGOS\server\v18\Source\Source\_Common\Bone.cpp
; File C:\IAGOS\server\v18\Source\Source\DX_SDK\d3dx9math.inl
; File C:\IAGOS\server\v18\Source\Source\_Common\Bone.cpp
; File C:\IAGOS\server\v18\Source\Source\DX_SDK\d3dx9math.inl
; File C:\IAGOS\server\v18\Source\Source\_Common\Bone.cpp
; File C:\IAGOS\server\v18\Source\Source\DX_SDK\d3dx9math.inl
; File C:\IAGOS\server\v18\Source\Source\_Common\Bone.cpp
;	COMDAT ?AnimateBone@CMotion@@QAEXPAUD3DXMATRIX@@PAV1@MHHHM@Z
_TEXT	SEGMENT
_qLocal2$1 = -260					; size = 16
_qLocal$2 = -244					; size = 16
_qLocal$3 = -228					; size = 16
_i$1$ = -212						; size = 4
_nNextFrame$GSCopy$1$ = -208				; size = 4
_nCurrFrame$1$ = -204					; size = 4
_nFrameOld$GSCopy$1$ = -200				; size = 4
_qSlerp$ = -196						; size = 16
_pmUpdateBone$GSCopy$1$ = -180				; size = 4
_pMatBones$1$ = -176					; size = 4
tv1133 = -172						; size = 4
tv1140 = -172						; size = 4
tv1141 = -168						; size = 4
tv1132 = -168						; size = 4
_pBoneFrame$1$ = -164					; size = 4
_pBone$1$ = -160					; size = 4
tv1142 = -160						; size = 4
tv1153 = -156						; size = 4
_vSlerp$$sroa$493$2$ = -152				; size = 4
_vSlerp$$sroa$520$1$ = -152				; size = 4
_vSlerp$$sroa$69$1$ = -148				; size = 4
_vSlerp$$sroa$69$2$ = -148				; size = 4
_vSlerp$$sroa$520$2$ = -144				; size = 4
_vSlerp$$sroa$493$1$ = -144				; size = 4
_pBoneFrameOld$1$ = -140				; size = 4
tv1131 = -136						; size = 4
tv1149 = -136						; size = 4
_m1$ = -132						; size = 64
_m2$ = -68						; size = 64
__$ArrayPad$ = -4					; size = 4
_pmUpdateBone$ = 8					; size = 4
_pMotionOld$ = 12					; size = 4
_fFrameCurrent$ = 16					; size = 4
_nNextFrame$ = 20					; size = 4
_nFrameOld$ = 24					; size = 4
_bMotionTrans$ = 28					; size = 4
_fBlendWeight$ = 32					; size = 4
?AnimateBone@CMotion@@QAEXPAUD3DXMATRIX@@PAV1@MHHHM@Z PROC ; CMotion::AnimateBone, COMDAT
; _this$ = ecx

; 657  : {

  00000	55		 push	 ebp
  00001	8b ec		 mov	 ebp, esp
  00003	81 ec 04 01 00
	00		 sub	 esp, 260		; 00000104H
  00009	a1 00 00 00 00	 mov	 eax, DWORD PTR ___security_cookie
  0000e	33 c5		 xor	 eax, ebp
  00010	89 45 fc	 mov	 DWORD PTR __$ArrayPad$[ebp], eax
  00013	8b 45 08	 mov	 eax, DWORD PTR _pmUpdateBone$[ebp]

; 658  : 	int		i;
; 659  : 	BONE	*pBone = m_pBoneInfo;		// ŔĚ ¸đµ¨ŔÇ »Ŕ´ë ˝ĂŔŰ Ć÷ŔÎĹÍ.
; 660  : 	TM_ANIMATION	*pFrame = NULL;					// ÇöŔç ÇÁ·ąŔÓ
; 661  : 	TM_ANIMATION	*pNext = NULL;					// ´ŮŔ˝ ÇÁ·ąŔÓ
; 662  : 	TM_ANIMATION	*pFrameOld = NULL;				// ŔĚŔü¸đĽÇŔÇ ÇÁ·ąŔÓ
; 663  : //	D3DXMATRIX	*pMatBone = m_mUpdateBone;
; 664  : 	D3DXMATRIX	*pMatBones = pmUpdateBone;			// ľ÷µĄŔĚĆ® ¸ĹĆ®¸Ż˝ş ¸®˝şĆ® ˝ĂŔŰ Ć÷ŔÎĹÍ
; 665  : 	int			nCurrFrame;
; 666  : 	float		fSlp;
; 667  : 	D3DXQUATERNION		qSlerp;
; 668  : 	D3DXVECTOR3			vSlerp;
; 669  : 	BONE_FRAME	*pBoneFrame = NULL;
; 670  : 	BONE_FRAME	*pBoneFrameOld = NULL;		// ş»ŔÇ °čĂţ±¸Á¶
; 671  : 	D3DXMATRIX	m1, m2;
; 672  : 
; 673  : 	if( pMotionOld == NULL )	// pMotionOld-> ÇŇ¶§ łÎÂüÁ¶ żˇ·Ż¸¸ ľČłŞ°ÔÇÔ.
; 674  : 		pMotionOld = this;
; 675  : 
; 676  : 	// ľÖ´Ď¸ŢŔĚĽÇ µżŔŰŔĚ ŔÖ´Â °ćżě
; 677  : 	i = m_nMaxBone;
; 678  : 	// ş¸°ŁŔ» Ŕ§ÇŃ Slerp °č»ę.
; 679  : 	nCurrFrame = (int)fFrameCurrent;				// ĽŇĽýÁˇ ¶Ľł»°í Á¤ĽöşÎ¸¸..

  00016	f3 0f 10 4d 10	 movss	 xmm1, DWORD PTR _fFrameCurrent$[ebp]
  0001b	8b 55 0c	 mov	 edx, DWORD PTR _pMotionOld$[ebp]
  0001e	85 d2		 test	 edx, edx
  00020	89 85 4c ff ff
	ff		 mov	 DWORD PTR _pmUpdateBone$GSCopy$1$[ebp], eax
  00026	89 85 50 ff ff
	ff		 mov	 DWORD PTR _pMatBones$1$[ebp], eax
  0002c	f3 0f 2c c1	 cvttss2si eax, xmm1
  00030	53		 push	 ebx

; 680  : 	fSlp = fFrameCurrent - (float)nCurrFrame;	// ĽŇĽýÁˇ şÎşĐ¸¸ °ˇÁ®żČ
; 681  : 	/////////////////////////////
; 682  : 
; 683  : //	int	nNextFrame = GetNextFrame();
; 684  : 	pBoneFrame	  = m_pBoneFrame;

  00031	8b 59 64	 mov	 ebx, DWORD PTR [ecx+100]
  00034	56		 push	 esi
  00035	8b 75 14	 mov	 esi, DWORD PTR _nNextFrame$[ebp]
  00038	57		 push	 edi
  00039	8b 79 68	 mov	 edi, DWORD PTR [ecx+104]
  0003c	89 b5 30 ff ff
	ff		 mov	 DWORD PTR _nNextFrame$GSCopy$1$[ebp], esi
  00042	8b 75 18	 mov	 esi, DWORD PTR _nFrameOld$[ebp]
  00045	89 85 34 ff ff
	ff		 mov	 DWORD PTR _nCurrFrame$1$[ebp], eax
  0004b	89 b5 38 ff ff
	ff		 mov	 DWORD PTR _nFrameOld$GSCopy$1$[ebp], esi
  00051	66 0f 6e c0	 movd	 xmm0, eax
  00055	8b c1		 mov	 eax, ecx
  00057	8b 49 54	 mov	 ecx, DWORD PTR [ecx+84]
  0005a	0f 45 c2	 cmovne	 eax, edx
  0005d	89 bd 60 ff ff
	ff		 mov	 DWORD PTR _pBone$1$[ebp], edi
  00063	89 9d 5c ff ff
	ff		 mov	 DWORD PTR _pBoneFrame$1$[ebp], ebx
  00069	0f 5b c0	 cvtdq2ps xmm0, xmm0

; 685  : 	pBoneFrameOld = pMotionOld->m_pBoneFrame;		// ŔĚŔüµżŔŰŔÇ »Ŕ´ë °čĂţ

  0006c	8b 50 64	 mov	 edx, DWORD PTR [eax+100]
  0006f	89 95 74 ff ff
	ff		 mov	 DWORD PTR _pBoneFrameOld$1$[ebp], edx
  00075	f3 0f 5c c8	 subss	 xmm1, xmm0
  00079	f3 0f 11 4d 10	 movss	 DWORD PTR _fFrameCurrent$[ebp], xmm1

; 686  : 	// »Ŕ´ë °ąĽö¸¸Ĺ­ ·çÇÁ µ·´Ů
; 687  : 	while( i-- )

  0007e	85 c9		 test	 ecx, ecx
  00080	0f 84 d1 04 00
	00		 je	 $LN38@AnimateBon

; 657  : {

  00086	8d 72 38	 lea	 esi, DWORD PTR [edx+56]
  00089	8d 43 38	 lea	 eax, DWORD PTR [ebx+56]
  0008c	89 b5 78 ff ff
	ff		 mov	 DWORD PTR tv1149[ebp], esi
  00092	89 85 64 ff ff
	ff		 mov	 DWORD PTR tv1153[ebp], eax
  00098	0f 1f 84 00 00
	00 00 00	 npad	 8
$LL40@AnimateBon:

; 686  : 	// »Ŕ´ë °ąĽö¸¸Ĺ­ ·çÇÁ µ·´Ů
; 687  : 	while( i-- )

  000a0	49		 dec	 ecx
  000a1	89 8d 2c ff ff
	ff		 mov	 DWORD PTR _i$1$[ebp], ecx

; 688  : 	{
; 689  : 		if( pBoneFrameOld->m_pFrame )

  000a7	8b 0a		 mov	 ecx, DWORD PTR [edx]
  000a9	85 c9		 test	 ecx, ecx
  000ab	74 1a		 je	 SHORT $LN5@AnimateBon

; 690  : 			pFrameOld = &pBoneFrameOld->m_pFrame[nFrameOld];		// ŔĎ´ÜŔş 0Ŕ¸·Î ÇŃ´Ů.  ŔĚŔü¸đĽÇŔÇ nCurrFrameµµ ±âľďÇĎ°í ŔÖľîľß ÇŃ´Ů.

  000ad	8b 9d 38 ff ff
	ff		 mov	 ebx, DWORD PTR _nFrameOld$GSCopy$1$[ebp]
  000b3	8d 04 dd 00 00
	00 00		 lea	 eax, DWORD PTR [ebx*8]
  000ba	2b c3		 sub	 eax, ebx
  000bc	8d 1c 81	 lea	 ebx, DWORD PTR [ecx+eax*4]
  000bf	8b 85 64 ff ff
	ff		 mov	 eax, DWORD PTR tv1153[ebp]
  000c5	eb 02		 jmp	 SHORT $LN6@AnimateBon
$LN5@AnimateBon:

; 691  : 		else
; 692  : 			pFrameOld = NULL;		// ŔĎ´ÜŔş 0Ŕ¸·Î ÇŃ´Ů.  ŔĚŔü¸đĽÇŔÇ nCurrFrameµµ ±âľďÇĎ°í ŔÖľîľß ÇŃ´Ů.

  000c7	33 db		 xor	 ebx, ebx
$LN6@AnimateBon:

; 693  : 		if( pBoneFrame->m_pFrame )		// ŔĚ »Ŕ´ëżˇ ÇÁ·ąŔÓŔĚ ŔÖŔ»¶§

  000c9	8b 8d 5c ff ff
	ff		 mov	 ecx, DWORD PTR _pBoneFrame$1$[ebp]
  000cf	8b 09		 mov	 ecx, DWORD PTR [ecx]
  000d1	85 c9		 test	 ecx, ecx
  000d3	0f 84 16 02 00
	00		 je	 $LN7@AnimateBon

; 694  : 		{
; 695  : 			pFrame = &pBoneFrame->m_pFrame[ nCurrFrame ];		// ÇöŔç ÇÁ·ąŔÓ Ć÷ŔÎĹÍ ąŢŔ˝

  000d9	8b 95 34 ff ff
	ff		 mov	 edx, DWORD PTR _nCurrFrame$1$[ebp]

; 696  : 			pNext  = &pBoneFrame->m_pFrame[ nNextFrame ];		// ´ŮŔ˝ ÇÁ·ąŔÓ Ć÷ŔÎĹÍ ąŢŔ˝
; 697  : 
; 698  : 			D3DXQuaternionSlerp( &qSlerp, &pFrame->m_qRot, &pNext->m_qRot, fSlp );	// ş¸°ŁµČ ÄőĹÍ´Ďľđ ±¸ÇÔ

  000df	51		 push	 ecx
  000e0	f3 0f 11 0c 24	 movss	 DWORD PTR [esp], xmm1
  000e5	8d 04 d5 00 00
	00 00		 lea	 eax, DWORD PTR [edx*8]
  000ec	2b c2		 sub	 eax, edx
  000ee	8b 95 30 ff ff
	ff		 mov	 edx, DWORD PTR _nNextFrame$GSCopy$1$[ebp]
  000f4	8d 3c 81	 lea	 edi, DWORD PTR [ecx+eax*4]
  000f7	8d 04 d5 00 00
	00 00		 lea	 eax, DWORD PTR [edx*8]
  000fe	2b c2		 sub	 eax, edx
  00100	8d 34 81	 lea	 esi, DWORD PTR [ecx+eax*4]
  00103	56		 push	 esi
  00104	57		 push	 edi
  00105	8d 85 3c ff ff
	ff		 lea	 eax, DWORD PTR _qSlerp$[ebp]
  0010b	50		 push	 eax
  0010c	e8 00 00 00 00	 call	 _D3DXQuaternionSlerp@16

; 701  : 			if( bMotionTrans )	// ŔĚŔü ¸đĽÇ°ú şí·»µů ÇŘľß ÇĎ´Â°ˇ

  00111	83 7d 1c 00	 cmp	 DWORD PTR _bMotionTrans$[ebp], 0
; File C:\IAGOS\server\v18\Source\Source\DX_SDK\d3dx9math.inl

; 1809 :     pOut->x = pV1->x + s * (pV2->x - pV1->x);

  00115	f3 0f 10 4e 10	 movss	 xmm1, DWORD PTR [esi+16]

; 1810 :     pOut->y = pV1->y + s * (pV2->y - pV1->y);

  0011a	f3 0f 10 56 14	 movss	 xmm2, DWORD PTR [esi+20]

; 1811 :     pOut->z = pV1->z + s * (pV2->z - pV1->z);

  0011f	f3 0f 10 5e 18	 movss	 xmm3, DWORD PTR [esi+24]
  00124	f3 0f 5c 4f 10	 subss	 xmm1, DWORD PTR [edi+16]
  00129	f3 0f 5c 57 14	 subss	 xmm2, DWORD PTR [edi+20]
  0012e	f3 0f 5c 5f 18	 subss	 xmm3, DWORD PTR [edi+24]
  00133	f3 0f 10 65 10	 movss	 xmm4, DWORD PTR _fFrameCurrent$[ebp]
  00138	f3 0f 59 cc	 mulss	 xmm1, xmm4
  0013c	f3 0f 59 d4	 mulss	 xmm2, xmm4
  00140	f3 0f 58 4f 10	 addss	 xmm1, DWORD PTR [edi+16]
  00145	f3 0f 59 dc	 mulss	 xmm3, xmm4
  00149	f3 0f 58 57 14	 addss	 xmm2, DWORD PTR [edi+20]
  0014e	f3 0f 58 5f 18	 addss	 xmm3, DWORD PTR [edi+24]
  00153	f3 0f 11 8d 70
	ff ff ff	 movss	 DWORD PTR _vSlerp$$sroa$493$1$[ebp], xmm1
  0015b	f3 0f 11 95 6c
	ff ff ff	 movss	 DWORD PTR _vSlerp$$sroa$69$1$[ebp], xmm2
  00163	f3 0f 11 9d 68
	ff ff ff	 movss	 DWORD PTR _vSlerp$$sroa$520$1$[ebp], xmm3
; File C:\IAGOS\server\v18\Source\Source\_Common\Bone.cpp

; 701  : 			if( bMotionTrans )	// ŔĚŔü ¸đĽÇ°ú şí·»µů ÇŘľß ÇĎ´Â°ˇ

  0016b	74 68		 je	 SHORT $LN44@AnimateBon

; 702  : 			{
; 703  : 				float	fBlendSlp = fBlendWeight;
; 704  : 				if( pFrameOld )

  0016d	85 db		 test	 ebx, ebx
  0016f	0f 84 bb 00 00
	00		 je	 $LN10@AnimateBon

; 705  : 				{
; 706  : 					D3DXQuaternionSlerp( &qSlerp, &pFrameOld->m_qRot, &qSlerp, fBlendSlp );	// ŔĚŔü¸đĽÇ°ú ÇöŔç ÇÁ·ąŔÓŔ» şí·»µů

  00175	f3 0f 10 45 20	 movss	 xmm0, DWORD PTR _fBlendWeight$[ebp]
  0017a	8d 85 3c ff ff
	ff		 lea	 eax, DWORD PTR _qSlerp$[ebp]
  00180	51		 push	 ecx
  00181	f3 0f 11 04 24	 movss	 DWORD PTR [esp], xmm0
  00186	50		 push	 eax
  00187	53		 push	 ebx
  00188	50		 push	 eax
  00189	e8 00 00 00 00	 call	 _D3DXQuaternionSlerp@16
; File C:\IAGOS\server\v18\Source\Source\DX_SDK\d3dx9math.inl

; 1809 :     pOut->x = pV1->x + s * (pV2->x - pV1->x);

  0018e	f3 0f 10 8d 70
	ff ff ff	 movss	 xmm1, DWORD PTR _vSlerp$$sroa$493$1$[ebp]

; 1810 :     pOut->y = pV1->y + s * (pV2->y - pV1->y);

  00196	f3 0f 10 95 6c
	ff ff ff	 movss	 xmm2, DWORD PTR _vSlerp$$sroa$69$1$[ebp]

; 1811 :     pOut->z = pV1->z + s * (pV2->z - pV1->z);

  0019e	f3 0f 10 9d 68
	ff ff ff	 movss	 xmm3, DWORD PTR _vSlerp$$sroa$520$1$[ebp]
  001a6	f3 0f 5c 4b 10	 subss	 xmm1, DWORD PTR [ebx+16]
  001ab	f3 0f 5c 53 14	 subss	 xmm2, DWORD PTR [ebx+20]
  001b0	f3 0f 5c 5b 18	 subss	 xmm3, DWORD PTR [ebx+24]
  001b5	f3 0f 10 65 20	 movss	 xmm4, DWORD PTR _fBlendWeight$[ebp]
  001ba	f3 0f 59 cc	 mulss	 xmm1, xmm4
  001be	f3 0f 59 d4	 mulss	 xmm2, xmm4
  001c2	f3 0f 58 4b 10	 addss	 xmm1, DWORD PTR [ebx+16]
  001c7	f3 0f 59 dc	 mulss	 xmm3, xmm4
  001cb	f3 0f 58 53 14	 addss	 xmm2, DWORD PTR [ebx+20]
  001d0	f3 0f 58 5b 18	 addss	 xmm3, DWORD PTR [ebx+24]
$LN44@AnimateBon:
; File C:\IAGOS\server\v18\Source\Source\_Common\Bone.cpp

; 724  : 			D3DXMatrixTranslation( &m1,	 vSlerp.x,  vSlerp.y,  vSlerp.z );

  001d5	8b b5 78 ff ff
	ff		 mov	 esi, DWORD PTR tv1149[ebp]
$LN11@AnimateBon:
  001db	83 ec 0c	 sub	 esp, 12			; 0000000cH
  001de	8d 85 7c ff ff
	ff		 lea	 eax, DWORD PTR _m1$[ebp]
  001e4	f3 0f 11 5c 24
	08		 movss	 DWORD PTR [esp+8], xmm3
  001ea	f3 0f 11 54 24
	04		 movss	 DWORD PTR [esp+4], xmm2
  001f0	f3 0f 11 0c 24	 movss	 DWORD PTR [esp], xmm1
  001f5	50		 push	 eax
  001f6	e8 00 00 00 00	 call	 _D3DXMatrixTranslation@16

; 725  : 		
; 726  : 			// ÄőĹÍ´ĎżÂ ş¸°ŁµČ Č¸ŔüĹ°°ŞŔ» Č¸ŔüÇŕ·Ä·Î ¸¸µę
; 727  : 			D3DXMatrixRotationQuaternion( &m2, &qSlerp );

  001fb	8d 85 3c ff ff
	ff		 lea	 eax, DWORD PTR _qSlerp$[ebp]
  00201	50		 push	 eax
  00202	8d 45 bc	 lea	 eax, DWORD PTR _m2$[ebp]
  00205	50		 push	 eax
  00206	e8 00 00 00 00	 call	 _D3DXMatrixRotationQuaternion@8
; File C:\IAGOS\server\v18\Source\Source\DX_SDK\d3dx9math.inl

; 792  :     D3DXMatrixMultiply(this, this, &mat);

  0020b	8d 85 7c ff ff
	ff		 lea	 eax, DWORD PTR _m1$[ebp]
  00211	50		 push	 eax
  00212	8d 45 bc	 lea	 eax, DWORD PTR _m2$[ebp]
  00215	50		 push	 eax
  00216	50		 push	 eax
  00217	e8 00 00 00 00	 call	 _D3DXMatrixMultiply@12
; File C:\IAGOS\server\v18\Source\Source\_Common\Bone.cpp

; 730  : 			if( pBone->m_pParent )

  0021c	8b bd 60 ff ff
	ff		 mov	 edi, DWORD PTR _pBone$1$[ebp]
  00222	83 3f 00	 cmp	 DWORD PTR [edi], 0
  00225	0f 85 9a 02 00
	00		 jne	 $LN54@AnimateBon
  0022b	e9 ac 02 00 00	 jmp	 $LN55@AnimateBon
$LN10@AnimateBon:

; 707  : 					D3DXVec3Lerp( &vSlerp, &pFrameOld->m_vPos, &vSlerp, fBlendSlp );		// ş¸°ŁµČ Posş¤ĹÍ ±¸ÇÔ
; 708  : 				} else
; 709  : 				{
; 710  : 					D3DXQUATERNION	qLocal;
; 711  : 					D3DXVECTOR3		vLocal;
; 712  : 					D3DXMATRIX		*pmLocalTM = &pBoneFrameOld->m_mLocalTM;
; 713  : 					D3DXQuaternionRotationMatrix( &qLocal, pmLocalTM );

  00230	8b b5 78 ff ff
	ff		 mov	 esi, DWORD PTR tv1149[ebp]
  00236	8d 46 cc	 lea	 eax, DWORD PTR [esi-52]
  00239	50		 push	 eax
  0023a	8d 85 0c ff ff
	ff		 lea	 eax, DWORD PTR _qLocal$2[ebp]
  00240	50		 push	 eax
  00241	e8 00 00 00 00	 call	 _D3DXQuaternionRotationMatrix@8

; 714  : 					vLocal.x = pmLocalTM->_41;

  00246	f3 0f 10 46 fc	 movss	 xmm0, DWORD PTR [esi-4]

; 717  : 					D3DXQuaternionSlerp( &qSlerp, &qLocal, &qSlerp, fBlendSlp );	// ŔĚŔü¸đĽÇ°ú ÇöŔç ÇÁ·ąŔÓŔ» şí·»µů

  0024b	8d 85 3c ff ff
	ff		 lea	 eax, DWORD PTR _qSlerp$[ebp]
  00251	f3 0f 11 85 78
	ff ff ff	 movss	 DWORD PTR tv1131[ebp], xmm0
  00259	f3 0f 10 06	 movss	 xmm0, DWORD PTR [esi]
  0025d	f3 0f 11 85 58
	ff ff ff	 movss	 DWORD PTR tv1132[ebp], xmm0
  00265	f3 0f 10 46 04	 movss	 xmm0, DWORD PTR [esi+4]
  0026a	51		 push	 ecx
  0026b	f3 0f 11 85 54
	ff ff ff	 movss	 DWORD PTR tv1133[ebp], xmm0
  00273	f3 0f 10 45 20	 movss	 xmm0, DWORD PTR _fBlendWeight$[ebp]
  00278	f3 0f 11 04 24	 movss	 DWORD PTR [esp], xmm0
  0027d	50		 push	 eax
  0027e	8d 85 0c ff ff
	ff		 lea	 eax, DWORD PTR _qLocal$2[ebp]
  00284	50		 push	 eax
  00285	8d 85 3c ff ff
	ff		 lea	 eax, DWORD PTR _qSlerp$[ebp]
  0028b	50		 push	 eax
  0028c	e8 00 00 00 00	 call	 _D3DXQuaternionSlerp@16
  00291	f3 0f 10 8d 70
	ff ff ff	 movss	 xmm1, DWORD PTR _vSlerp$$sroa$493$1$[ebp]
; File C:\IAGOS\server\v18\Source\Source\DX_SDK\d3dx9math.inl

; 1809 :     pOut->x = pV1->x + s * (pV2->x - pV1->x);

  00299	f3 0f 10 95 6c
	ff ff ff	 movss	 xmm2, DWORD PTR _vSlerp$$sroa$69$1$[ebp]

; 1810 :     pOut->y = pV1->y + s * (pV2->y - pV1->y);

  002a1	f3 0f 10 9d 68
	ff ff ff	 movss	 xmm3, DWORD PTR _vSlerp$$sroa$520$1$[ebp]
; File C:\IAGOS\server\v18\Source\Source\_Common\Bone.cpp

; 717  : 					D3DXQuaternionSlerp( &qSlerp, &qLocal, &qSlerp, fBlendSlp );	// ŔĚŔü¸đĽÇ°ú ÇöŔç ÇÁ·ąŔÓŔ» şí·»µů

  002a9	f3 0f 5c 8d 78
	ff ff ff	 subss	 xmm1, DWORD PTR tv1131[ebp]
; File C:\IAGOS\server\v18\Source\Source\DX_SDK\d3dx9math.inl

; 1809 :     pOut->x = pV1->x + s * (pV2->x - pV1->x);

  002b1	f3 0f 5c 95 58
	ff ff ff	 subss	 xmm2, DWORD PTR tv1132[ebp]

; 1810 :     pOut->y = pV1->y + s * (pV2->y - pV1->y);

  002b9	f3 0f 5c 9d 54
	ff ff ff	 subss	 xmm3, DWORD PTR tv1133[ebp]
  002c1	f3 0f 10 65 20	 movss	 xmm4, DWORD PTR _fBlendWeight$[ebp]
  002c6	f3 0f 59 cc	 mulss	 xmm1, xmm4
  002ca	f3 0f 59 d4	 mulss	 xmm2, xmm4
  002ce	f3 0f 58 8d 78
	ff ff ff	 addss	 xmm1, DWORD PTR tv1131[ebp]

; 1811 :     pOut->z = pV1->z + s * (pV2->z - pV1->z);

  002d6	f3 0f 59 dc	 mulss	 xmm3, xmm4
  002da	f3 0f 58 95 58
	ff ff ff	 addss	 xmm2, DWORD PTR tv1132[ebp]
  002e2	f3 0f 58 9d 54
	ff ff ff	 addss	 xmm3, DWORD PTR tv1133[ebp]
; File C:\IAGOS\server\v18\Source\Source\_Common\Bone.cpp

; 701  : 			if( bMotionTrans )	// ŔĚŔü ¸đĽÇ°ú şí·»µů ÇŘľß ÇĎ´Â°ˇ

  002ea	e9 ec fe ff ff	 jmp	 $LN11@AnimateBon
$LN7@AnimateBon:

; 731  : 				m2 *= pMatBones[ pBone->m_nParentIdx ];		// şÎ¸đ°ˇ ľř´Ů¸é ·çĆ®ŔÎµĄ Ç×µîÇŕ·Ä°ú °öÇŇ ÇĘżä ľřľîĽ­ »ý·«Çß´Ů.
; 732  : //				else
; 733  : //					m2 = m2 * *pmWorld;  // ŔĚşÎşĐŔĚ »ý·«µĆ´Ů.  mCenter´Â Ç×µîÇŕ·Ä.
; 734  : 			
; 735  : 			// WorldTM = LocalTM * ParentTM;
; 736  : 			// ĂÖÁľ şŻČŻµČ żůµĺ¸ĹĆ®¸Ż˝ş¸¦ ¸âąöżˇ łÖľîĽ­ Render()żˇĽ­ SetTransfromÇÔ.
; 737  : 		} else
; 738  : 		// ŔĚ »Ŕ´ëżˇ ÇÁ·ąŔÓŔĚ ľřŔ»¶§.
; 739  : 		{
; 740  : 			if( bMotionTrans )	// ŔĚŔü ¸đĽÇ°ú şí·»µů ÇŘľß ÇĎ´Â°ˇ

  002ef	83 c0 cc	 add	 eax, -52		; ffffffccH
  002f2	83 7d 1c 00	 cmp	 DWORD PTR _bMotionTrans$[ebp], 0
  002f6	0f 84 a5 01 00
	00		 je	 $LN13@AnimateBon

; 741  : 			{
; 742  : 				float	fBlendSlp = fBlendWeight;
; 743  : 				D3DXQUATERNION	qLocal;
; 744  : 				D3DXVECTOR3		vLocal;
; 745  : 				D3DXMATRIX		*pmLocalTM = &pBoneFrame->m_mLocalTM;
; 746  : 				D3DXQuaternionRotationMatrix( &qLocal, pmLocalTM );

  002fc	50		 push	 eax
  002fd	8d 85 1c ff ff
	ff		 lea	 eax, DWORD PTR _qLocal$3[ebp]
  00303	50		 push	 eax
  00304	e8 00 00 00 00	 call	 _D3DXQuaternionRotationMatrix@8

; 747  : 				vLocal.x = pmLocalTM->_41;

  00309	8b 85 64 ff ff
	ff		 mov	 eax, DWORD PTR tv1153[ebp]
  0030f	f3 0f 10 40 fc	 movss	 xmm0, DWORD PTR [eax-4]
  00314	f3 0f 11 85 68
	ff ff ff	 movss	 DWORD PTR _vSlerp$$sroa$493$2$[ebp], xmm0

; 748  : 				vLocal.y = pmLocalTM->_42;

  0031c	f3 0f 10 00	 movss	 xmm0, DWORD PTR [eax]
  00320	f3 0f 11 85 6c
	ff ff ff	 movss	 DWORD PTR _vSlerp$$sroa$69$2$[ebp], xmm0

; 749  : 				vLocal.z = pmLocalTM->_43;	// ÇöŔçÇÁ·ąŔÓŔÇ LocalTMŔ» ÄőĹÍ´ĎżÂ°ú ş¤ĹÍ·Î »©łż.

  00328	f3 0f 10 40 04	 movss	 xmm0, DWORD PTR [eax+4]
  0032d	f3 0f 11 85 70
	ff ff ff	 movss	 DWORD PTR _vSlerp$$sroa$520$2$[ebp], xmm0

; 750  : 
; 751  : 				if( pFrameOld )

  00335	85 db		 test	 ebx, ebx
  00337	74 6b		 je	 SHORT $LN15@AnimateBon

; 752  : 				{
; 753  : 					D3DXQuaternionSlerp( &qSlerp, &pFrameOld->m_qRot, &qLocal, fBlendSlp );	// ŔĚŔü¸đĽÇ°ú ÇöŔç ÇÁ·ąŔÓŔ» şí·»µů

  00339	f3 0f 10 45 20	 movss	 xmm0, DWORD PTR _fBlendWeight$[ebp]
  0033e	8d 85 1c ff ff
	ff		 lea	 eax, DWORD PTR _qLocal$3[ebp]
  00344	51		 push	 ecx
  00345	f3 0f 11 04 24	 movss	 DWORD PTR [esp], xmm0
  0034a	50		 push	 eax
  0034b	53		 push	 ebx
  0034c	8d 85 3c ff ff
	ff		 lea	 eax, DWORD PTR _qSlerp$[ebp]
  00352	50		 push	 eax
  00353	e8 00 00 00 00	 call	 _D3DXQuaternionSlerp@16
; File C:\IAGOS\server\v18\Source\Source\DX_SDK\d3dx9math.inl

; 1809 :     pOut->x = pV1->x + s * (pV2->x - pV1->x);

  00358	f3 0f 10 8d 68
	ff ff ff	 movss	 xmm1, DWORD PTR _vSlerp$$sroa$493$2$[ebp]

; 1810 :     pOut->y = pV1->y + s * (pV2->y - pV1->y);

  00360	f3 0f 10 95 6c
	ff ff ff	 movss	 xmm2, DWORD PTR _vSlerp$$sroa$69$2$[ebp]

; 1811 :     pOut->z = pV1->z + s * (pV2->z - pV1->z);

  00368	f3 0f 10 9d 70
	ff ff ff	 movss	 xmm3, DWORD PTR _vSlerp$$sroa$520$2$[ebp]
  00370	f3 0f 5c 4b 10	 subss	 xmm1, DWORD PTR [ebx+16]
  00375	f3 0f 5c 53 14	 subss	 xmm2, DWORD PTR [ebx+20]
  0037a	f3 0f 5c 5b 18	 subss	 xmm3, DWORD PTR [ebx+24]
  0037f	f3 0f 10 65 20	 movss	 xmm4, DWORD PTR _fBlendWeight$[ebp]
  00384	f3 0f 59 cc	 mulss	 xmm1, xmm4
  00388	f3 0f 59 d4	 mulss	 xmm2, xmm4
  0038c	f3 0f 58 4b 10	 addss	 xmm1, DWORD PTR [ebx+16]
  00391	f3 0f 59 dc	 mulss	 xmm3, xmm4
  00395	f3 0f 58 53 14	 addss	 xmm2, DWORD PTR [ebx+20]
  0039a	f3 0f 58 5b 18	 addss	 xmm3, DWORD PTR [ebx+24]
; File C:\IAGOS\server\v18\Source\Source\_Common\Bone.cpp

; 755  : 				} else

  0039f	e9 b4 00 00 00	 jmp	 $LN16@AnimateBon
$LN15@AnimateBon:

; 756  : 				{
; 757  : 					D3DXQUATERNION	qLocal2;
; 758  : 					D3DXVECTOR3		vLocal2;
; 759  : 					D3DXMATRIX		*pmLocalTM2 = &pBoneFrameOld->m_mLocalTM;
; 760  : 					D3DXQuaternionRotationMatrix( &qLocal2, pmLocalTM2 );

  003a4	8d 46 cc	 lea	 eax, DWORD PTR [esi-52]
  003a7	50		 push	 eax
  003a8	8d 85 fc fe ff
	ff		 lea	 eax, DWORD PTR _qLocal2$1[ebp]
  003ae	50		 push	 eax
  003af	e8 00 00 00 00	 call	 _D3DXQuaternionRotationMatrix@8

; 761  : 					vLocal2.x = pmLocalTM2->_41;

  003b4	f3 0f 10 46 fc	 movss	 xmm0, DWORD PTR [esi-4]

; 764  : 					D3DXQuaternionSlerp( &qSlerp, &qLocal2, &qLocal, fBlendSlp );	// ŔĚŔü¸đĽÇ°ú ÇöŔç ÇÁ·ąŔÓŔ» şí·»µů

  003b9	8d 85 1c ff ff
	ff		 lea	 eax, DWORD PTR _qLocal$3[ebp]
  003bf	f3 0f 11 85 54
	ff ff ff	 movss	 DWORD PTR tv1140[ebp], xmm0
  003c7	f3 0f 10 06	 movss	 xmm0, DWORD PTR [esi]
  003cb	f3 0f 11 85 58
	ff ff ff	 movss	 DWORD PTR tv1141[ebp], xmm0
  003d3	f3 0f 10 46 04	 movss	 xmm0, DWORD PTR [esi+4]
  003d8	51		 push	 ecx
  003d9	f3 0f 11 85 60
	ff ff ff	 movss	 DWORD PTR tv1142[ebp], xmm0
  003e1	f3 0f 10 45 20	 movss	 xmm0, DWORD PTR _fBlendWeight$[ebp]
  003e6	f3 0f 11 04 24	 movss	 DWORD PTR [esp], xmm0
  003eb	50		 push	 eax
  003ec	8d 85 fc fe ff
	ff		 lea	 eax, DWORD PTR _qLocal2$1[ebp]
  003f2	50		 push	 eax
  003f3	8d 85 3c ff ff
	ff		 lea	 eax, DWORD PTR _qSlerp$[ebp]
  003f9	50		 push	 eax
  003fa	e8 00 00 00 00	 call	 _D3DXQuaternionSlerp@16
  003ff	f3 0f 10 8d 68
	ff ff ff	 movss	 xmm1, DWORD PTR _vSlerp$$sroa$493$2$[ebp]
; File C:\IAGOS\server\v18\Source\Source\DX_SDK\d3dx9math.inl

; 1809 :     pOut->x = pV1->x + s * (pV2->x - pV1->x);

  00407	f3 0f 10 95 6c
	ff ff ff	 movss	 xmm2, DWORD PTR _vSlerp$$sroa$69$2$[ebp]

; 1810 :     pOut->y = pV1->y + s * (pV2->y - pV1->y);

  0040f	f3 0f 10 9d 70
	ff ff ff	 movss	 xmm3, DWORD PTR _vSlerp$$sroa$520$2$[ebp]
; File C:\IAGOS\server\v18\Source\Source\_Common\Bone.cpp

; 764  : 					D3DXQuaternionSlerp( &qSlerp, &qLocal2, &qLocal, fBlendSlp );	// ŔĚŔü¸đĽÇ°ú ÇöŔç ÇÁ·ąŔÓŔ» şí·»µů

  00417	f3 0f 5c 8d 54
	ff ff ff	 subss	 xmm1, DWORD PTR tv1140[ebp]
; File C:\IAGOS\server\v18\Source\Source\DX_SDK\d3dx9math.inl

; 1809 :     pOut->x = pV1->x + s * (pV2->x - pV1->x);

  0041f	f3 0f 5c 95 58
	ff ff ff	 subss	 xmm2, DWORD PTR tv1141[ebp]

; 1810 :     pOut->y = pV1->y + s * (pV2->y - pV1->y);

  00427	f3 0f 5c 9d 60
	ff ff ff	 subss	 xmm3, DWORD PTR tv1142[ebp]
  0042f	f3 0f 10 65 20	 movss	 xmm4, DWORD PTR _fBlendWeight$[ebp]
  00434	f3 0f 59 cc	 mulss	 xmm1, xmm4
  00438	f3 0f 59 d4	 mulss	 xmm2, xmm4
  0043c	f3 0f 58 8d 54
	ff ff ff	 addss	 xmm1, DWORD PTR tv1140[ebp]

; 1811 :     pOut->z = pV1->z + s * (pV2->z - pV1->z);

  00444	f3 0f 59 dc	 mulss	 xmm3, xmm4
  00448	f3 0f 58 95 58
	ff ff ff	 addss	 xmm2, DWORD PTR tv1141[ebp]
  00450	f3 0f 58 9d 60
	ff ff ff	 addss	 xmm3, DWORD PTR tv1142[ebp]
$LN16@AnimateBon:
; File C:\IAGOS\server\v18\Source\Source\_Common\Bone.cpp

; 767  : 				D3DXMatrixTranslation( &m1,	 vSlerp.x,  vSlerp.y,  vSlerp.z );

  00458	83 ec 0c	 sub	 esp, 12			; 0000000cH
  0045b	8d 85 7c ff ff
	ff		 lea	 eax, DWORD PTR _m1$[ebp]
  00461	f3 0f 11 5c 24
	08		 movss	 DWORD PTR [esp+8], xmm3
  00467	f3 0f 11 54 24
	04		 movss	 DWORD PTR [esp+4], xmm2
  0046d	f3 0f 11 0c 24	 movss	 DWORD PTR [esp], xmm1
  00472	50		 push	 eax
  00473	e8 00 00 00 00	 call	 _D3DXMatrixTranslation@16

; 768  : 			
; 769  : 				// ÄőĹÍ´ĎżÂ ş¸°ŁµČ Č¸ŔüĹ°°ŞŔ» Č¸ŔüÇŕ·Ä·Î ¸¸µę
; 770  : 				D3DXMatrixRotationQuaternion( &m2, &qSlerp );

  00478	8d 85 3c ff ff
	ff		 lea	 eax, DWORD PTR _qSlerp$[ebp]
  0047e	50		 push	 eax
  0047f	8d 45 bc	 lea	 eax, DWORD PTR _m2$[ebp]
  00482	50		 push	 eax
  00483	e8 00 00 00 00	 call	 _D3DXMatrixRotationQuaternion@8
; File C:\IAGOS\server\v18\Source\Source\DX_SDK\d3dx9math.inl

; 792  :     D3DXMatrixMultiply(this, this, &mat);

  00488	8d 85 7c ff ff
	ff		 lea	 eax, DWORD PTR _m1$[ebp]
  0048e	50		 push	 eax
  0048f	8d 45 bc	 lea	 eax, DWORD PTR _m2$[ebp]
  00492	50		 push	 eax
  00493	50		 push	 eax
  00494	e8 00 00 00 00	 call	 _D3DXMatrixMultiply@12
; File C:\IAGOS\server\v18\Source\Source\_Common\Bone.cpp

; 772  : 			} else

  00499	8b 95 74 ff ff
	ff		 mov	 edx, DWORD PTR _pBoneFrameOld$1$[ebp]
  0049f	eb 1f		 jmp	 SHORT $LN14@AnimateBon
$LN13@AnimateBon:

; 773  : 				m2 = pBoneFrame->m_mLocalTM;

  004a1	0f 10 00	 movups	 xmm0, XMMWORD PTR [eax]
  004a4	0f 11 45 bc	 movups	 XMMWORD PTR _m2$[ebp], xmm0
  004a8	0f 10 40 10	 movups	 xmm0, XMMWORD PTR [eax+16]
  004ac	0f 11 45 cc	 movups	 XMMWORD PTR _m2$[ebp+16], xmm0
  004b0	0f 10 40 20	 movups	 xmm0, XMMWORD PTR [eax+32]
  004b4	0f 11 45 dc	 movups	 XMMWORD PTR _m2$[ebp+32], xmm0
  004b8	0f 10 40 30	 movups	 xmm0, XMMWORD PTR [eax+48]
  004bc	0f 11 45 ec	 movups	 XMMWORD PTR _m2$[ebp+48], xmm0
$LN14@AnimateBon:

; 774  : 
; 775  : 			if( pBone->m_pParent )

  004c0	83 3f 00	 cmp	 DWORD PTR [edi], 0
  004c3	74 1d		 je	 SHORT $LN17@AnimateBon
$LN54@AnimateBon:

; 776  : 				m2 *= pMatBones[ pBone->m_nParentIdx ];
; 777  : //				else
; 778  : //					m2 = m2 * *pmWorld;
; 779  : 		}
; 780  : 
; 781  : 		*pmUpdateBone = m2;		// ŔĚ »Ŕ´ëŔÇ ĂÖÁľ żůµĺ şŻČŻ ¸ĹĆ®¸Ż˝ş

  004c5	8b 47 04	 mov	 eax, DWORD PTR [edi+4]
  004c8	c1 e0 06	 shl	 eax, 6
  004cb	03 85 50 ff ff
	ff		 add	 eax, DWORD PTR _pMatBones$1$[ebp]
  004d1	50		 push	 eax
  004d2	8d 45 bc	 lea	 eax, DWORD PTR _m2$[ebp]
  004d5	50		 push	 eax
  004d6	50		 push	 eax
  004d7	e8 00 00 00 00	 call	 _D3DXMatrixMultiply@12
$LN55@AnimateBon:
  004dc	8b 95 74 ff ff
	ff		 mov	 edx, DWORD PTR _pBoneFrameOld$1$[ebp]
$LN17@AnimateBon:
  004e2	8b 9d 4c ff ff
	ff		 mov	 ebx, DWORD PTR _pmUpdateBone$GSCopy$1$[ebp]

; 782  : 
; 783  : 		pBoneFrame ++;
; 784  : 		pBoneFrameOld ++;

  004e8	83 c2 44	 add	 edx, 68			; 00000044H
  004eb	0f 10 45 bc	 movups	 xmm0, XMMWORD PTR _m2$[ebp]
  004ef	8b 85 64 ff ff
	ff		 mov	 eax, DWORD PTR tv1153[ebp]
  004f5	83 c6 44	 add	 esi, 68			; 00000044H
  004f8	83 85 5c ff ff
	ff 44		 add	 DWORD PTR _pBoneFrame$1$[ebp], 68 ; 00000044H
  004ff	83 c0 44	 add	 eax, 68			; 00000044H
  00502	8b 8d 2c ff ff
	ff		 mov	 ecx, DWORD PTR _i$1$[ebp]

; 785  : 		pBone ++;					// ş» ++

  00508	81 c7 e8 00 00
	00		 add	 edi, 232		; 000000e8H
  0050e	f3 0f 10 4d 10	 movss	 xmm1, DWORD PTR _fFrameCurrent$[ebp]
  00513	0f 11 03	 movups	 XMMWORD PTR [ebx], xmm0
  00516	89 85 64 ff ff
	ff		 mov	 DWORD PTR tv1153[ebp], eax
  0051c	0f 10 45 cc	 movups	 xmm0, XMMWORD PTR _m2$[ebp+16]
  00520	89 95 74 ff ff
	ff		 mov	 DWORD PTR _pBoneFrameOld$1$[ebp], edx
  00526	89 b5 78 ff ff
	ff		 mov	 DWORD PTR tv1149[ebp], esi
  0052c	0f 11 43 10	 movups	 XMMWORD PTR [ebx+16], xmm0
  00530	89 bd 60 ff ff
	ff		 mov	 DWORD PTR _pBone$1$[ebp], edi
  00536	0f 10 45 dc	 movups	 xmm0, XMMWORD PTR _m2$[ebp+32]
  0053a	0f 11 43 20	 movups	 XMMWORD PTR [ebx+32], xmm0
  0053e	0f 10 45 ec	 movups	 xmm0, XMMWORD PTR _m2$[ebp+48]
  00542	0f 11 43 30	 movups	 XMMWORD PTR [ebx+48], xmm0

; 786  : 		pmUpdateBone ++;			// ş» Ć®·Ł˝şĆű ¸ĹĆ®¸Ż˝ş ++

  00546	83 c3 40	 add	 ebx, 64			; 00000040H
  00549	89 9d 4c ff ff
	ff		 mov	 DWORD PTR _pmUpdateBone$GSCopy$1$[ebp], ebx
  0054f	85 c9		 test	 ecx, ecx
  00551	0f 85 49 fb ff
	ff		 jne	 $LL40@AnimateBon
$LN38@AnimateBon:

; 787  : 	}
; 788  : }

  00557	8b 4d fc	 mov	 ecx, DWORD PTR __$ArrayPad$[ebp]
  0055a	5f		 pop	 edi
  0055b	5e		 pop	 esi
  0055c	33 cd		 xor	 ecx, ebp
  0055e	5b		 pop	 ebx
  0055f	e8 00 00 00 00	 call	 @__security_check_cookie@4
  00564	8b e5		 mov	 esp, ebp
  00566	5d		 pop	 ebp
  00567	c2 1c 00	 ret	 28			; 0000001cH
?AnimateBone@CMotion@@QAEXPAUD3DXMATRIX@@PAV1@MHHHM@Z ENDP ; CMotion::AnimateBone
_TEXT	ENDS
; Function compile flags: /Ogtp
; File C:\IAGOS\server\v18\Source\Source\_Common\Bone.cpp
;	COMDAT ?ReadTM@CMotion@@QAEXPAVCFileIO@@HH@Z
_TEXT	SEGMENT
_nFrame$ = -20						; size = 4
_nNumSize$ = -16					; size = 4
_nLen$ = -12						; size = 4
$T1 = -8						; size = 4
tv543 = -8						; size = 4
_nCnt$1$ = -4						; size = 4
_file$ = 8						; size = 4
$T2 = 8							; size = 4
$T3 = 8							; size = 4
tv556 = 8						; size = 4
tv562 = 8						; size = 4
_p$1$ = 8						; size = 4
_nNumBone$ = 12						; size = 4
_nNumFrame$ = 16					; size = 4
?ReadTM@CMotion@@QAEXPAVCFileIO@@HH@Z PROC		; CMotion::ReadTM, COMDAT
; _this$ = ecx

; 577  : {

  00000	55		 push	 ebp
  00001	8b ec		 mov	 ebp, esp
  00003	83 ec 14	 sub	 esp, 20			; 00000014H

; 578  : 	int		nNumSize;
; 579  : 	int		nFrame;
; 580  : 	int		i;
; 581  : 
; 582  : 	m_nMaxBone = nNumBone;		// LoadMotion()żˇĽ­ şŇ·ÁÁł´Ů¸é ŔĚşÎşĐŔş ÇĘżäľřŔ¸łŞ ReadTM¸¸ µű·Î şŇ¸± ŔĎŔĚ ŔÖŔ¸¸é ŔĚ°Ô ÇĘżäÇĎ´Ů.
; 583  : 	m_nMaxFrame = nNumFrame;

  00006	8b 45 10	 mov	 eax, DWORD PTR _nNumFrame$[ebp]
  00009	53		 push	 ebx
  0000a	8b d9		 mov	 ebx, ecx

; 584  : 
; 585  : 	//--- »Ŕ´ë±¸ĽşÁ¤ş¸ ŔĐŔ˝.
; 586  : 	m_pBoneInfo = new BONE[ nNumBone ];			// ş» °łĽö ¸¸Ĺ­ ÇŇ´ç

  0000c	b9 e8 00 00 00	 mov	 ecx, 232		; 000000e8H
  00011	56		 push	 esi
  00012	57		 push	 edi
  00013	8b 7d 0c	 mov	 edi, DWORD PTR _nNumBone$[ebp]
  00016	89 43 08	 mov	 DWORD PTR [ebx+8], eax
  00019	8b c7		 mov	 eax, edi
  0001b	f7 e1		 mul	 ecx
  0001d	b9 ff ff ff ff	 mov	 ecx, -1
  00022	89 7b 54	 mov	 DWORD PTR [ebx+84], edi
  00025	0f 42 c1	 cmovb	 eax, ecx
  00028	50		 push	 eax
  00029	e8 00 00 00 00	 call	 ??_U@YAPAXI@Z		; operator new[]

; 587  : 	memset( m_pBoneInfo, 0, sizeof(BONE) * nNumBone );		// zero clear

  0002e	69 cf e8 00 00
	00		 imul	 ecx, edi, 232
  00034	89 45 f8	 mov	 DWORD PTR $T1[ebp], eax
  00037	89 43 68	 mov	 DWORD PTR [ebx+104], eax
  0003a	51		 push	 ecx
  0003b	6a 00		 push	 0
  0003d	50		 push	 eax
  0003e	e8 00 00 00 00	 call	 _memset

; 588  : 	
; 589  : 	int		nLen;
; 590  : 	for( i = 0; i < nNumBone; i ++ )

  00043	8b 75 08	 mov	 esi, DWORD PTR _file$[ebp]
  00046	83 c4 10	 add	 esp, 16			; 00000010H
  00049	85 ff		 test	 edi, edi
  0004b	0f 8e c8 00 00
	00		 jle	 $LN6@ReadTM

; 584  : 
; 585  : 	//--- »Ŕ´ë±¸ĽşÁ¤ş¸ ŔĐŔ˝.
; 586  : 	m_pBoneInfo = new BONE[ nNumBone ];			// ş» °łĽö ¸¸Ĺ­ ÇŇ´ç

  00051	89 7d 08	 mov	 DWORD PTR tv556[ebp], edi
  00054	33 ff		 xor	 edi, edi
$LL4@ReadTM:

; 591  : 	{
; 592  : 		file->Read( &nLen, 4, 1 );

  00056	8b 06		 mov	 eax, DWORD PTR [esi]
  00058	8d 4d f4	 lea	 ecx, DWORD PTR _nLen$[ebp]
  0005b	6a 01		 push	 1
  0005d	6a 04		 push	 4
  0005f	51		 push	 ecx
  00060	8b ce		 mov	 ecx, esi
  00062	ff 50 2c	 call	 DWORD PTR [eax+44]

; 593  : 		if( nLen > 32 )		

  00065	8b 45 f4	 mov	 eax, DWORD PTR _nLen$[ebp]
  00068	83 f8 20	 cmp	 eax, 32			; 00000020H
  0006b	7e 14		 jle	 SHORT $LN11@ReadTM

; 594  : 			Error("CMotion::ReadTM - %s bonename is too long", m_szName );

  0006d	8d 43 10	 lea	 eax, DWORD PTR [ebx+16]
  00070	50		 push	 eax
  00071	68 00 00 00 00	 push	 OFFSET ??_C@_0CK@PGCOLHFF@CMotion?3?3ReadTM?5?9?5?$CFs?5bonename?5i@
  00076	e8 00 00 00 00	 call	 ?Error@@YAPBDPBDZZ	; Error
  0007b	8b 45 f4	 mov	 eax, DWORD PTR _nLen$[ebp]
  0007e	83 c4 08	 add	 esp, 8
$LN11@ReadTM:

; 595  : 
; 596  : 		file->Read( m_pBoneInfo[i].m_szName,	nLen, 1 );		// bone node ŔĚ¸§

  00081	8b 16		 mov	 edx, DWORD PTR [esi]
  00083	8b ce		 mov	 ecx, esi
  00085	6a 01		 push	 1
  00087	50		 push	 eax
  00088	8b 43 68	 mov	 eax, DWORD PTR [ebx+104]
  0008b	83 c0 08	 add	 eax, 8
  0008e	03 c7		 add	 eax, edi
  00090	50		 push	 eax
  00091	ff 52 2c	 call	 DWORD PTR [edx+44]

; 597  : 		file->Read( &m_pBoneInfo[i].m_mInverseTM,	sizeof(D3DXMATRIX), 1 );			// Inv NODE TM

  00094	8b 43 68	 mov	 eax, DWORD PTR [ebx+104]
  00097	8b ce		 mov	 ecx, esi
  00099	8b 16		 mov	 edx, DWORD PTR [esi]
  0009b	83 c0 68	 add	 eax, 104		; 00000068H
  0009e	6a 01		 push	 1
  000a0	6a 40		 push	 64			; 00000040H
  000a2	03 c7		 add	 eax, edi
  000a4	50		 push	 eax
  000a5	ff 52 2c	 call	 DWORD PTR [edx+44]

; 598  : 		file->Read( &m_pBoneInfo[i].m_mLocalTM,		sizeof(D3DXMATRIX), 1 );			// LocalTM

  000a8	8b 43 68	 mov	 eax, DWORD PTR [ebx+104]
  000ab	8b ce		 mov	 ecx, esi
  000ad	8b 16		 mov	 edx, DWORD PTR [esi]
  000af	05 a8 00 00 00	 add	 eax, 168		; 000000a8H
  000b4	6a 01		 push	 1
  000b6	6a 40		 push	 64			; 00000040H
  000b8	03 c7		 add	 eax, edi
  000ba	50		 push	 eax
  000bb	ff 52 2c	 call	 DWORD PTR [edx+44]

; 599  : 		file->Read( &m_pBoneInfo[i].m_nParentIdx,	4, 1 );								// parent bone index

  000be	8b 43 68	 mov	 eax, DWORD PTR [ebx+104]
  000c1	8b ce		 mov	 ecx, esi
  000c3	8b 16		 mov	 edx, DWORD PTR [esi]
  000c5	83 c0 04	 add	 eax, 4
  000c8	6a 01		 push	 1
  000ca	6a 04		 push	 4
  000cc	03 c7		 add	 eax, edi
  000ce	50		 push	 eax
  000cf	ff 52 2c	 call	 DWORD PTR [edx+44]
  000d2	81 c7 e8 00 00
	00		 add	 edi, 232		; 000000e8H
  000d8	83 6d 08 01	 sub	 DWORD PTR tv556[ebp], 1
  000dc	0f 85 74 ff ff
	ff		 jne	 $LL4@ReadTM

; 600  : 	}
; 601  : 	
; 602  : 	// şÎ¸đ Ć÷ŔÎĹÍ¸¦ ĽÂĆĂ
; 603  : 	for( i = 0; i < nNumBone; i ++ )

  000e2	8b 7d 0c	 mov	 edi, DWORD PTR _nNumBone$[ebp]
  000e5	33 c9		 xor	 ecx, ecx
  000e7	66 0f 1f 84 00
	00 00 00 00	 npad	 9
$LL7@ReadTM:

; 604  : 	{
; 605  : 		if( m_pBoneInfo[i].m_nParentIdx == -1 )			// şÎ¸đ°ˇ ľřŔ¸¸é şÎ¸đĆ÷ŔÎĹÍ´Â łÎ

  000f0	8b 53 68	 mov	 edx, DWORD PTR [ebx+104]
  000f3	8b 44 11 04	 mov	 eax, DWORD PTR [ecx+edx+4]
  000f7	83 f8 ff	 cmp	 eax, -1
  000fa	75 04		 jne	 SHORT $LN12@ReadTM

; 606  : 			m_pBoneInfo[i].m_pParent = NULL;

  000fc	33 c0		 xor	 eax, eax
  000fe	eb 08		 jmp	 SHORT $LN5@ReadTM
$LN12@ReadTM:

; 607  : 		else
; 608  : 			m_pBoneInfo[i].m_pParent = &m_pBoneInfo[ m_pBoneInfo[i].m_nParentIdx ];

  00100	69 c0 e8 00 00
	00		 imul	 eax, eax, 232
  00106	03 c2		 add	 eax, edx
$LN5@ReadTM:

; 600  : 	}
; 601  : 	
; 602  : 	// şÎ¸đ Ć÷ŔÎĹÍ¸¦ ĽÂĆĂ
; 603  : 	for( i = 0; i < nNumBone; i ++ )

  00108	89 04 11	 mov	 DWORD PTR [ecx+edx], eax
  0010b	81 c1 e8 00 00
	00		 add	 ecx, 232		; 000000e8H
  00111	83 ef 01	 sub	 edi, 1
  00114	75 da		 jne	 SHORT $LL7@ReadTM
  00116	8b 7d 0c	 mov	 edi, DWORD PTR _nNumBone$[ebp]
$LN6@ReadTM:

; 609  : 	}
; 610  : 	
; 611  : 
; 612  : 	file->Read( &nNumSize, 4, 1 );			// ÇÁ·ąŔÓ »çŔĚÁî ŔĐŔ˝ - ¸Ţ¸đ¸® Ç® »çŔĚÁî

  00119	8b 06		 mov	 eax, DWORD PTR [esi]
  0011b	8d 4d f0	 lea	 ecx, DWORD PTR _nNumSize$[ebp]
  0011e	6a 01		 push	 1
  00120	6a 04		 push	 4
  00122	51		 push	 ecx
  00123	8b ce		 mov	 ecx, esi
  00125	ff 50 2c	 call	 DWORD PTR [eax+44]

; 613  : 	//--- ¸đĽÇ ŔĐŔ˝.
; 614  : 	m_pMotion		= new TM_ANIMATION[ nNumSize ];		// ¸Ţ¸đ¸® Ç®

  00128	8b 45 f0	 mov	 eax, DWORD PTR _nNumSize$[ebp]
  0012b	b9 1c 00 00 00	 mov	 ecx, 28			; 0000001cH
  00130	f7 e1		 mul	 ecx
  00132	b9 ff ff ff ff	 mov	 ecx, -1
  00137	0f 42 c1	 cmovb	 eax, ecx
  0013a	50		 push	 eax
  0013b	e8 00 00 00 00	 call	 ??_U@YAPAXI@Z		; operator new[]
  00140	89 45 08	 mov	 DWORD PTR $T2[ebp], eax

; 615  : 	m_pBoneFrame	= new BONE_FRAME[ nNumBone ];

  00143	b9 44 00 00 00	 mov	 ecx, 68			; 00000044H
  00148	89 03		 mov	 DWORD PTR [ebx], eax
  0014a	8b c7		 mov	 eax, edi
  0014c	f7 e1		 mul	 ecx
  0014e	b9 ff ff ff ff	 mov	 ecx, -1
  00153	0f 42 c1	 cmovb	 eax, ecx
  00156	50		 push	 eax
  00157	e8 00 00 00 00	 call	 ??_U@YAPAXI@Z		; operator new[]
  0015c	89 45 08	 mov	 DWORD PTR $T3[ebp], eax

; 616  : 	m_pAttr			= new MOTION_ATTR[ nNumFrame ];

  0015f	b9 0c 00 00 00	 mov	 ecx, 12			; 0000000cH
  00164	89 43 64	 mov	 DWORD PTR [ebx+100], eax
  00167	8b 45 10	 mov	 eax, DWORD PTR _nNumFrame$[ebp]
  0016a	f7 e1		 mul	 ecx
  0016c	b9 ff ff ff ff	 mov	 ecx, -1
  00171	0f 42 c1	 cmovb	 eax, ecx
  00174	50		 push	 eax
  00175	e8 00 00 00 00	 call	 ??_U@YAPAXI@Z		; operator new[]

; 617  : 	memset( m_pAttr, 0, sizeof(MOTION_ATTR) * nNumFrame );	// nNumSizeż´´ÂµĄ nNumFrameŔĚ ¸Â´Â°Ĺ °°´Ů.

  0017a	8b 4d 10	 mov	 ecx, DWORD PTR _nNumFrame$[ebp]
  0017d	89 43 04	 mov	 DWORD PTR [ebx+4], eax
  00180	8d 0c 49	 lea	 ecx, DWORD PTR [ecx+ecx*2]
  00183	c1 e1 02	 shl	 ecx, 2
  00186	51		 push	 ecx
  00187	6a 00		 push	 0
  00189	50		 push	 eax
  0018a	e8 00 00 00 00	 call	 _memset

; 618  : 	TM_ANIMATION	*p = m_pMotion;

  0018f	8b 03		 mov	 eax, DWORD PTR [ebx]
  00191	83 c4 18	 add	 esp, 24			; 00000018H
  00194	89 45 08	 mov	 DWORD PTR _p$1$[ebp], eax

; 619  : 	int		nCnt = 0;

  00197	33 c0		 xor	 eax, eax
  00199	89 45 fc	 mov	 DWORD PTR _nCnt$1$[ebp], eax

; 620  : 	
; 621  : 	// »Ŕ´ë Ľö ¸¸Ĺ­ ·çÇÁ
; 622  : 	for( i = 0; i < nNumBone; i ++ )

  0019c	85 ff		 test	 edi, edi
  0019e	7e 7e		 jle	 SHORT $LN9@ReadTM

; 615  : 	m_pBoneFrame	= new BONE_FRAME[ nNumBone ];

  001a0	33 ff		 xor	 edi, edi
  001a2	89 7d f8	 mov	 DWORD PTR tv543[ebp], edi
$LL10@ReadTM:

; 623  : 	{
; 624  : 		file->Read( &nFrame, 4, 1 );

  001a5	8b 06		 mov	 eax, DWORD PTR [esi]
  001a7	8d 4d ec	 lea	 ecx, DWORD PTR _nFrame$[ebp]
  001aa	6a 01		 push	 1
  001ac	6a 04		 push	 4
  001ae	51		 push	 ecx
  001af	8b ce		 mov	 ecx, esi
  001b1	ff 50 2c	 call	 DWORD PTR [eax+44]

; 625  : 		if( nFrame == 1 )		// 1ŔĚ¸é ÇöŔç »Ŕ´ëżˇ ÇÁ·ąŔÓ ŔÖŔ˝

  001b4	83 7d ec 01	 cmp	 DWORD PTR _nFrame$[ebp], 1
  001b8	8b 43 64	 mov	 eax, DWORD PTR [ebx+100]
  001bb	6a 01		 push	 1
  001bd	75 37		 jne	 SHORT $LN14@ReadTM

; 626  : 		{
; 627  : 			m_pBoneFrame[i].m_pFrame = p;

  001bf	8b 4d 08	 mov	 ecx, DWORD PTR _p$1$[ebp]
  001c2	89 0c 07	 mov	 DWORD PTR [edi+eax], ecx

; 628  : 			file->Read( m_pBoneFrame[i].m_pFrame, sizeof(TM_ANIMATION) * nNumFrame, 1 );		// ÇŃąćżˇ ŔĐľîąö¸®±â.

  001c5	8b 45 10	 mov	 eax, DWORD PTR _nNumFrame$[ebp]
  001c8	8b 4d f8	 mov	 ecx, DWORD PTR tv543[ebp]
  001cb	8b 16		 mov	 edx, DWORD PTR [esi]
  001cd	8d 3c c5 00 00
	00 00		 lea	 edi, DWORD PTR [eax*8]
  001d4	2b f8		 sub	 edi, eax
  001d6	8b 43 64	 mov	 eax, DWORD PTR [ebx+100]
  001d9	c1 e7 02	 shl	 edi, 2
  001dc	57		 push	 edi
  001dd	ff 34 01	 push	 DWORD PTR [ecx+eax]
  001e0	8b ce		 mov	 ecx, esi
  001e2	ff 52 2c	 call	 DWORD PTR [edx+44]

; 629  : 			p += nNumFrame;
; 630  : 			nCnt += nNumFrame;

  001e5	8b 45 fc	 mov	 eax, DWORD PTR _nCnt$1$[ebp]
  001e8	01 7d 08	 add	 DWORD PTR _p$1$[ebp], edi
  001eb	03 45 10	 add	 eax, DWORD PTR _nNumFrame$[ebp]

; 631  : //			for( j = 0; j < nNumFrame; j ++ )
; 632  : //			{
; 633  : //				file->Read( &(p->m_mAniTM), sizeof(D3DXMATRIX), 1 );
; 634  : //				file->Read( &(p->m_qRot), sizeof(D3DXQUATERNION), 1 );
; 635  : //				file->Read( &(p->m_vPos), sizeof(D3DXVECTOR3), 1 );
; 636  : //				p ++;
; 637  : //				nCnt ++;
; 638  : //			}
; 639  : 		} else			// ÇöŔç »Ŕ´ëżˇ ÇÁ·ąŔÓ ľřŔ˝

  001ee	8b 7d f8	 mov	 edi, DWORD PTR tv543[ebp]
  001f1	89 45 fc	 mov	 DWORD PTR _nCnt$1$[ebp], eax
  001f4	eb 1c		 jmp	 SHORT $LN8@ReadTM
$LN14@ReadTM:

; 640  : 		{
; 641  : 			file->Read( &(m_pBoneFrame[i].m_mLocalTM), sizeof(D3DXMATRIX), 1 );			// ÇÁ·ąŔÓŔĚ ľřŔ¸¸é LocalTM¸¸ ŔĐ°í

  001f6	8b 16		 mov	 edx, DWORD PTR [esi]
  001f8	83 c0 04	 add	 eax, 4
  001fb	6a 40		 push	 64			; 00000040H
  001fd	03 c7		 add	 eax, edi
  001ff	8b ce		 mov	 ecx, esi
  00201	50		 push	 eax
  00202	ff 52 2c	 call	 DWORD PTR [edx+44]

; 642  : 			m_pBoneFrame[i].m_pFrame = NULL;

  00205	8b 43 64	 mov	 eax, DWORD PTR [ebx+100]
  00208	c7 04 07 00 00
	00 00		 mov	 DWORD PTR [edi+eax], 0
  0020f	8b 45 fc	 mov	 eax, DWORD PTR _nCnt$1$[ebp]
$LN8@ReadTM:

; 620  : 	
; 621  : 	// »Ŕ´ë Ľö ¸¸Ĺ­ ·çÇÁ
; 622  : 	for( i = 0; i < nNumBone; i ++ )

  00212	83 c7 44	 add	 edi, 68			; 00000044H
  00215	83 6d 0c 01	 sub	 DWORD PTR _nNumBone$[ebp], 1
  00219	89 7d f8	 mov	 DWORD PTR tv543[ebp], edi
  0021c	75 87		 jne	 SHORT $LL10@ReadTM
$LN9@ReadTM:

; 643  : 			// m_mLocalTMżˇ łÖľúŔ¸ąÇ·Î ¸Ţ¸đ¸® Ç®żˇ´Â łÖŔ»ÇĘżä ľř´Ů.
; 644  : 		}
; 645  : 	}
; 646  : 	
; 647  : 	if( nCnt != nNumSize )

  0021e	3b 45 f0	 cmp	 eax, DWORD PTR _nNumSize$[ebp]
  00221	74 11		 je	 SHORT $LN16@ReadTM

; 648  : 	{
; 649  : 		Error( "%s : frame size error", m_szName );

  00223	8d 43 10	 lea	 eax, DWORD PTR [ebx+16]
  00226	50		 push	 eax
  00227	68 00 00 00 00	 push	 OFFSET ??_C@_0BG@LDPENPKD@?$CFs?5?3?5frame?5size?5error@
  0022c	e8 00 00 00 00	 call	 ?Error@@YAPBDPBDZZ	; Error
  00231	83 c4 08	 add	 esp, 8
$LN16@ReadTM:

; 650  : 	}	
; 651  : }

  00234	5f		 pop	 edi
  00235	5e		 pop	 esi
  00236	5b		 pop	 ebx
  00237	8b e5		 mov	 esp, ebp
  00239	5d		 pop	 ebp
  0023a	c2 0c 00	 ret	 12			; 0000000cH
?ReadTM@CMotion@@QAEXPAVCFileIO@@HH@Z ENDP		; CMotion::ReadTM
_TEXT	ENDS
; Function compile flags: /Ogtp
; File C:\IAGOS\server\v18\Source\Source\_Common\Bone.cpp
; File C:\IAGOS\server\v18\Source\Source\_Common\File.h
; File C:\IAGOS\server\v18\Source\Source\_Common\Bone.cpp
; File C:\Program Files\Microsoft Visual Studio\2022\Professional\VC\Tools\MSVC\14.44.35207\atlmfc\include\atlsimpstr.h
; File C:\IAGOS\server\v18\Source\Source\_Common\Bone.cpp
; File C:\Program Files\Microsoft Visual Studio\2022\Professional\VC\Tools\MSVC\14.44.35207\atlmfc\include\atlsimpstr.h
; File C:\IAGOS\server\v18\Source\Source\_Common\Bone.cpp
; File C:\Program Files\Microsoft Visual Studio\2022\Professional\VC\Tools\MSVC\14.44.35207\atlmfc\include\atlsimpstr.h
; File C:\IAGOS\server\v18\Source\Source\_Common\Bone.cpp
; File C:\IAGOS\server\v18\Source\Source\_Common\File.h
; File C:\IAGOS\server\v18\Source\Source\_Common\Bone.cpp
; File C:\IAGOS\server\v18\Source\Source\_Common\File.h
; File C:\IAGOS\server\v18\Source\Source\_Common\Bone.cpp
; File C:\IAGOS\server\v18\Source\Source\_Common\File.h
; File C:\IAGOS\server\v18\Source\Source\_Common\Bone.cpp
; File C:\IAGOS\server\v18\Source\Source\_Common\File.h
; File C:\IAGOS\server\v18\Source\Source\_Common\Bone.cpp
; File C:\IAGOS\server\v18\Source\Source\_Common\File.h
; File C:\IAGOS\server\v18\Source\Source\_Common\Bone.cpp
; File C:\IAGOS\server\v18\Source\Source\_Common\File.h
; File C:\IAGOS\server\v18\Source\Source\_Common\Bone.cpp
; File C:\IAGOS\server\v18\Source\Source\_Common\File.h
; File C:\IAGOS\server\v18\Source\Source\_Common\Bone.cpp
; File C:\IAGOS\server\v18\Source\Source\_Common\File.h
; File C:\IAGOS\server\v18\Source\Source\_Common\Bone.cpp
; File C:\IAGOS\server\v18\Source\Source\_Common\File.h
; File C:\IAGOS\server\v18\Source\Source\_Common\Bone.cpp
; File C:\IAGOS\server\v18\Source\Source\_Common\File.h
; File C:\IAGOS\server\v18\Source\Source\_Common\Bone.cpp
; File C:\IAGOS\server\v18\Source\Source\_Common\File.h
; File C:\IAGOS\server\v18\Source\Source\_Common\Bone.cpp
; File C:\IAGOS\server\v18\Source\Source\_Common\File.h
; File C:\IAGOS\server\v18\Source\Source\_Common\Bone.cpp
; File C:\IAGOS\server\v18\Source\Source\_Common\File.h
; File C:\IAGOS\server\v18\Source\Source\_Common\Bone.cpp
; File C:\IAGOS\server\v18\Source\Source\_Common\File.h
; File C:\IAGOS\server\v18\Source\Source\_Common\Bone.cpp
; File C:\IAGOS\server\v18\Source\Source\_Common\File.h
; File C:\IAGOS\server\v18\Source\Source\_Common\Bone.cpp
; File C:\IAGOS\server\v18\Source\Source\_Common\File.h
; File C:\IAGOS\server\v18\Source\Source\_Common\Bone.cpp
; File C:\IAGOS\server\v18\Source\Source\_Common\File.h
; File C:\IAGOS\server\v18\Source\Source\_Common\Bone.cpp
; File C:\IAGOS\server\v18\Source\Source\_Common\File.h
; File C:\IAGOS\server\v18\Source\Source\_Common\Bone.cpp
; File C:\IAGOS\server\v18\Source\Source\_Common\File.h
; File C:\IAGOS\server\v18\Source\Source\_Common\Bone.cpp
; File C:\IAGOS\server\v18\Source\Source\_Common\File.h
; File C:\IAGOS\server\v18\Source\Source\_Common\Bone.cpp
;	COMDAT ?LoadMotion@CMotion@@QAEHPBD@Z
_TEXT	SEGMENT
_resFp$ = -36						; size = 8
_nTemp$ = -28						; size = 4
_nVer$ = -24						; size = 4
$T2 = -20						; size = 4
$T3 = -20						; size = 4
_nNumBone$ = -16					; size = 4
__$EHRec$ = -12						; size = 12
_szFileName$ = 8					; size = 4
_nNumFrame$ = 8						; size = 4
?LoadMotion@CMotion@@QAEHPBD@Z PROC			; CMotion::LoadMotion, COMDAT
; _this$ = ecx

; 492  : {

  00000	55		 push	 ebp
  00001	8b ec		 mov	 ebp, esp
  00003	6a ff		 push	 -1
  00005	68 00 00 00 00	 push	 __ehhandler$?LoadMotion@CMotion@@QAEHPBD@Z
  0000a	64 a1 00 00 00
	00		 mov	 eax, DWORD PTR fs:0
  00010	50		 push	 eax
  00011	83 ec 18	 sub	 esp, 24			; 00000018H
  00014	53		 push	 ebx
  00015	56		 push	 esi
  00016	57		 push	 edi
  00017	a1 00 00 00 00	 mov	 eax, DWORD PTR ___security_cookie
  0001c	33 c5		 xor	 eax, ebp
  0001e	50		 push	 eax
  0001f	8d 45 f4	 lea	 eax, DWORD PTR __$EHRec$[ebp]
  00022	64 a3 00 00 00
	00		 mov	 DWORD PTR fs:0, eax
  00028	8b f9		 mov	 edi, ecx
; File C:\IAGOS\server\v18\Source\Source\_Common\File.h

; 15   : 	CFileIO() { fp = NULL; } 

  0002a	c7 45 dc 00 00
	00 00		 mov	 DWORD PTR _resFp$[ebp], OFFSET ??_7CFileIO@@6B@
  00031	c7 45 e0 00 00
	00 00		 mov	 DWORD PTR _resFp$[ebp+4], 0
; File C:\IAGOS\server\v18\Source\Source\_Common\Bone.cpp

; 500  : 	BOOL bRet = resFp.Open( MakePath( DIR_MODEL, szFileName ), "rb" );

  00038	8b 75 08	 mov	 esi, DWORD PTR _szFileName$[ebp]
  0003b	8d 45 ec	 lea	 eax, DWORD PTR $T2[ebp]
  0003e	56		 push	 esi
  0003f	68 00 00 00 00	 push	 OFFSET ??_C@_06IJGEHPBH@Model?2@
  00044	50		 push	 eax
  00045	c7 45 fc 00 00
	00 00		 mov	 DWORD PTR __$EHRec$[ebp+8], 0
  0004c	e8 00 00 00 00	 call	 ?MakePath@@YA?AV?$CStringT@DV?$StrTraitMFC@DV?$ChTraitsCRT@D@ATL@@@@@ATL@@PBD0@Z ; MakePath
  00051	83 c4 0c	 add	 esp, 12			; 0000000cH
  00054	68 00 00 00 00	 push	 OFFSET ??_C@_02JDPG@rb@
  00059	ff 30		 push	 DWORD PTR [eax]
  0005b	8d 4d dc	 lea	 ecx, DWORD PTR _resFp$[ebp]
  0005e	c6 45 fc 01	 mov	 BYTE PTR __$EHRec$[ebp+8], 1
  00062	e8 00 00 00 00	 call	 ?Open@CFileIO@@UAEHPBDPAD@Z ; CFileIO::Open
; File C:\Program Files\Microsoft Visual Studio\2022\Professional\VC\Tools\MSVC\14.44.35207\atlmfc\include\atlsimpstr.h

; 804  : 		return( reinterpret_cast< CStringData* >( m_pszData )-1 );

  00067	8b 55 ec	 mov	 edx, DWORD PTR $T2[ebp]
; File C:\IAGOS\server\v18\Source\Source\_Common\Bone.cpp

; 500  : 	BOOL bRet = resFp.Open( MakePath( DIR_MODEL, szFileName ), "rb" );

  0006a	8b d8		 mov	 ebx, eax
; File C:\Program Files\Microsoft Visual Studio\2022\Professional\VC\Tools\MSVC\14.44.35207\atlmfc\include\atlsimpstr.h

; 92   : 		if( _InterlockedDecrement( &nRefs ) <= 0 )

  0006c	83 c8 ff	 or	 eax, -1
; File C:\IAGOS\server\v18\Source\Source\_Common\Bone.cpp

; 500  : 	BOOL bRet = resFp.Open( MakePath( DIR_MODEL, szFileName ), "rb" );

  0006f	c6 45 fc 00	 mov	 BYTE PTR __$EHRec$[ebp+8], 0
; File C:\Program Files\Microsoft Visual Studio\2022\Professional\VC\Tools\MSVC\14.44.35207\atlmfc\include\atlsimpstr.h

; 804  : 		return( reinterpret_cast< CStringData* >( m_pszData )-1 );

  00073	83 c2 f0	 add	 edx, -16		; fffffff0H

; 92   : 		if( _InterlockedDecrement( &nRefs ) <= 0 )

  00076	8b c8		 mov	 ecx, eax
  00078	f0 0f c1 4a 0c	 lock	  xadd	 DWORD PTR [edx+12], ecx
  0007d	49		 dec	 ecx
  0007e	85 c9		 test	 ecx, ecx
  00080	7f 08		 jg	 SHORT $LN28@LoadMotion

; 93   : 		{
; 94   : 			pStringMgr->Free( this );

  00082	8b 0a		 mov	 ecx, DWORD PTR [edx]
  00084	52		 push	 edx
  00085	8b 01		 mov	 eax, DWORD PTR [ecx]
  00087	ff 50 04	 call	 DWORD PTR [eax+4]
$LN28@LoadMotion:
; File C:\IAGOS\server\v18\Source\Source\_Common\Bone.cpp

; 501  : 	if( bRet == FALSE )	

  0008a	85 db		 test	 ebx, ebx
  0008c	74 2c		 je	 SHORT $LN17@LoadMotion
; File C:\IAGOS\server\v18\Source\Source\_Common\File.h

; 27   : 	virtual size_t Read( void *ptr, size_t size, size_t n = 1 )	{ return fread( ptr, size, n, fp ); }

  0008e	ff 75 e0	 push	 DWORD PTR _resFp$[ebp+4]
  00091	8d 45 e8	 lea	 eax, DWORD PTR _nVer$[ebp]
  00094	6a 01		 push	 1
  00096	6a 04		 push	 4
  00098	50		 push	 eax
  00099	e8 00 00 00 00	 call	 _fread
; File C:\IAGOS\server\v18\Source\Source\_Common\Bone.cpp

; 510  : 	if( nVer != VER_MOTION )

  0009e	8b 45 e8	 mov	 eax, DWORD PTR _nVer$[ebp]
; File C:\IAGOS\server\v18\Source\Source\_Common\File.h

; 27   : 	virtual size_t Read( void *ptr, size_t size, size_t n = 1 )	{ return fread( ptr, size, n, fp ); }

  000a1	83 c4 10	 add	 esp, 16			; 00000010H
; File C:\IAGOS\server\v18\Source\Source\_Common\Bone.cpp

; 510  : 	if( nVer != VER_MOTION )

  000a4	83 f8 0a	 cmp	 eax, 10			; 0000000aH
  000a7	74 48		 je	 SHORT $LN3@LoadMotion

; 511  : 	{
; 512  : 		Error( "%sŔÇ ąöŔüŔş %d.  ĂÖ˝ĹąöŔüŔş %d", szFileName, nVer, VER_MOTION );

  000a9	6a 0a		 push	 10			; 0000000aH
  000ab	50		 push	 eax
  000ac	56		 push	 esi
  000ad	68 00 00 00 00	 push	 OFFSET ??_C@_0BP@GIAEKCLE@?$CFs?$MA?G?5?$LJ?v?$MA?$PM?$MA?$LK?5?$CFd?4?5?5?C?V?$LN?E?$LJ?v?$MA?$PM?$MA?$LK?5?$CFd@
  000b2	e8 00 00 00 00	 call	 ?Error@@YAPBDPBDZZ	; Error
  000b7	83 c4 10	 add	 esp, 16			; 00000010H
$LN17@LoadMotion:
  000ba	8d 4d dc	 lea	 ecx, DWORD PTR _resFp$[ebp]
  000bd	e8 00 00 00 00	 call	 ?Close@CFileIO@@UAEHXZ	; CFileIO::Close
  000c2	83 ce ff	 or	 esi, -1
$LN18@LoadMotion:
; File C:\IAGOS\server\v18\Source\Source\_Common\File.h

; 17   : 	virtual ~CFileIO() { Close(); }

  000c5	8d 4d dc	 lea	 ecx, DWORD PTR _resFp$[ebp]
  000c8	c7 45 fc 06 00
	00 00		 mov	 DWORD PTR __$EHRec$[ebp+8], 6
  000cf	c7 45 dc 00 00
	00 00		 mov	 DWORD PTR _resFp$[ebp], OFFSET ??_7CFileIO@@6B@
  000d6	e8 00 00 00 00	 call	 ?Close@CFileIO@@UAEHXZ	; CFileIO::Close
; File C:\IAGOS\server\v18\Source\Source\_Common\Bone.cpp

; 570  : 	return SUCCESS;

  000db	8b c6		 mov	 eax, esi

; 571  : }

  000dd	8b 4d f4	 mov	 ecx, DWORD PTR __$EHRec$[ebp]
  000e0	64 89 0d 00 00
	00 00		 mov	 DWORD PTR fs:0, ecx
  000e7	59		 pop	 ecx
  000e8	5f		 pop	 edi
  000e9	5e		 pop	 esi
  000ea	5b		 pop	 ebx
  000eb	8b e5		 mov	 esp, ebp
  000ed	5d		 pop	 ebp
  000ee	c2 04 00	 ret	 4
$LN3@LoadMotion:
; File C:\IAGOS\server\v18\Source\Source\_Common\File.h

; 27   : 	virtual size_t Read( void *ptr, size_t size, size_t n = 1 )	{ return fread( ptr, size, n, fp ); }

  000f1	ff 75 e0	 push	 DWORD PTR _resFp$[ebp+4]
; File C:\IAGOS\server\v18\Source\Source\_Common\Bone.cpp

; 518  : 	resFp.Read( &m_nID, 4, 1 );

  000f4	8d 47 0c	 lea	 eax, DWORD PTR [edi+12]
; File C:\IAGOS\server\v18\Source\Source\_Common\File.h

; 27   : 	virtual size_t Read( void *ptr, size_t size, size_t n = 1 )	{ return fread( ptr, size, n, fp ); }

  000f7	6a 01		 push	 1
  000f9	6a 04		 push	 4
  000fb	50		 push	 eax
  000fc	e8 00 00 00 00	 call	 _fread
; File C:\IAGOS\server\v18\Source\Source\_Common\Bone.cpp

; 520  : 	if( strlen( szFileName ) > sizeof(m_szName) )

  00101	8b ce		 mov	 ecx, esi
; File C:\IAGOS\server\v18\Source\Source\_Common\File.h

; 27   : 	virtual size_t Read( void *ptr, size_t size, size_t n = 1 )	{ return fread( ptr, size, n, fp ); }

  00103	83 c4 10	 add	 esp, 16			; 00000010H
; File C:\IAGOS\server\v18\Source\Source\_Common\Bone.cpp

; 520  : 	if( strlen( szFileName ) > sizeof(m_szName) )

  00106	8d 51 01	 lea	 edx, DWORD PTR [ecx+1]
  00109	0f 1f 80 00 00
	00 00		 npad	 7
$LL89@LoadMotion:
  00110	8a 01		 mov	 al, BYTE PTR [ecx]
  00112	41		 inc	 ecx
  00113	84 c0		 test	 al, al
  00115	75 f9		 jne	 SHORT $LL89@LoadMotion
  00117	2b ca		 sub	 ecx, edx
  00119	83 f9 40	 cmp	 ecx, 64			; 00000040H
  0011c	76 10		 jbe	 SHORT $LN4@LoadMotion

; 521  : 	{
; 522  : 		Error( "%s : file name is too long", szFileName );

  0011e	56		 push	 esi
  0011f	68 00 00 00 00	 push	 OFFSET ??_C@_0BL@NEKCICIL@?$CFs?5?3?5file?5name?5is?5too?5long@
  00124	e8 00 00 00 00	 call	 ?Error@@YAPBDPBDZZ	; Error
  00129	83 c4 08	 add	 esp, 8
  0012c	eb 8c		 jmp	 SHORT $LN17@LoadMotion
$LN4@LoadMotion:

; 523  : 		resFp.Close();
; 524  : 		return FAIL;
; 525  : 	}
; 526  : 
; 527  : 	// ĆÄŔĎ¸í Ä«ÇÇ
; 528  : 	strcpy( m_szName, szFileName );

  0012e	8b d7		 mov	 edx, edi
  00130	8b ce		 mov	 ecx, esi
  00132	2b d6		 sub	 edx, esi
$LL9@LoadMotion:
  00134	8a 01		 mov	 al, BYTE PTR [ecx]
  00136	8d 49 01	 lea	 ecx, DWORD PTR [ecx+1]
  00139	88 44 0a 0f	 mov	 BYTE PTR [edx+ecx+15], al
  0013d	84 c0		 test	 al, al
  0013f	75 f3		 jne	 SHORT $LL9@LoadMotion
; File C:\IAGOS\server\v18\Source\Source\_Common\File.h

; 27   : 	virtual size_t Read( void *ptr, size_t size, size_t n = 1 )	{ return fread( ptr, size, n, fp ); }

  00141	ff 75 e0	 push	 DWORD PTR _resFp$[ebp+4]
; File C:\IAGOS\server\v18\Source\Source\_Common\Bone.cpp

; 530  : 	resFp.Read( &m_fPerSlerp, sizeof(float), 1 );		// 

  00144	8d 47 50	 lea	 eax, DWORD PTR [edi+80]
; File C:\IAGOS\server\v18\Source\Source\_Common\File.h

; 27   : 	virtual size_t Read( void *ptr, size_t size, size_t n = 1 )	{ return fread( ptr, size, n, fp ); }

  00147	6a 01		 push	 1
  00149	6a 04		 push	 4
  0014b	50		 push	 eax
  0014c	e8 00 00 00 00	 call	 _fread

; 25   : 	virtual int  Seek( long offset, int whence ) { return fseek( fp, offset, whence ); }

  00151	6a 01		 push	 1
  00153	6a 20		 push	 32			; 00000020H
  00155	ff 75 e0	 push	 DWORD PTR _resFp$[ebp+4]
  00158	e8 00 00 00 00	 call	 _fseek

; 27   : 	virtual size_t Read( void *ptr, size_t size, size_t n = 1 )	{ return fread( ptr, size, n, fp ); }

  0015d	ff 75 e0	 push	 DWORD PTR _resFp$[ebp+4]
  00160	8d 45 f0	 lea	 eax, DWORD PTR _nNumBone$[ebp]
  00163	6a 01		 push	 1
  00165	6a 04		 push	 4
  00167	50		 push	 eax
  00168	e8 00 00 00 00	 call	 _fread
  0016d	ff 75 e0	 push	 DWORD PTR _resFp$[ebp+4]
  00170	8d 45 08	 lea	 eax, DWORD PTR _nNumFrame$[ebp]
  00173	6a 01		 push	 1
  00175	6a 04		 push	 4
  00177	50		 push	 eax
  00178	e8 00 00 00 00	 call	 _fread
; File C:\IAGOS\server\v18\Source\Source\_Common\Bone.cpp

; 535  : 	m_nMaxFrame = nNumFrame;

  0017d	8b 4d 08	 mov	 ecx, DWORD PTR _nNumFrame$[ebp]
; File C:\IAGOS\server\v18\Source\Source\_Common\File.h

; 27   : 	virtual size_t Read( void *ptr, size_t size, size_t n = 1 )	{ return fread( ptr, size, n, fp ); }

  00180	83 c4 3c	 add	 esp, 60			; 0000003cH
; File C:\IAGOS\server\v18\Source\Source\_Common\Bone.cpp

; 536  : 	m_nMaxBone = nNumBone;

  00183	8b 45 f0	 mov	 eax, DWORD PTR _nNumBone$[ebp]
  00186	89 4f 08	 mov	 DWORD PTR [edi+8], ecx
  00189	89 47 54	 mov	 DWORD PTR [edi+84], eax

; 537  : 
; 538  : 	if( nNumFrame <= 0 )

  0018c	85 c9		 test	 ecx, ecx
  0018e	7f 14		 jg	 SHORT $LN5@LoadMotion

; 539  : 	{
; 540  : 		Error( "CMotion::LoadMotion : %s read MaxFrame = %d", szFileName, nNumFrame );

  00190	51		 push	 ecx
  00191	56		 push	 esi
  00192	68 00 00 00 00	 push	 OFFSET ??_C@_0CM@JIBAPMLJ@CMotion?3?3LoadMotion?5?3?5?$CFs?5read?5M@
  00197	e8 00 00 00 00	 call	 ?Error@@YAPBDPBDZZ	; Error
  0019c	83 c4 0c	 add	 esp, 12			; 0000000cH
  0019f	e9 16 ff ff ff	 jmp	 $LN17@LoadMotion
$LN5@LoadMotion:
; File C:\IAGOS\server\v18\Source\Source\_Common\File.h

; 27   : 	virtual size_t Read( void *ptr, size_t size, size_t n = 1 )	{ return fread( ptr, size, n, fp ); }

  001a4	ff 75 e0	 push	 DWORD PTR _resFp$[ebp+4]
  001a7	8d 45 e4	 lea	 eax, DWORD PTR _nTemp$[ebp]
  001aa	6a 01		 push	 1
  001ac	6a 04		 push	 4
  001ae	50		 push	 eax
  001af	e8 00 00 00 00	 call	 _fread
  001b4	83 c4 10	 add	 esp, 16			; 00000010H
; File C:\IAGOS\server\v18\Source\Source\_Common\Bone.cpp

; 548  : 	if( nTemp )

  001b7	83 7d e4 00	 cmp	 DWORD PTR _nTemp$[ebp], 0
  001bb	74 39		 je	 SHORT $LN6@LoadMotion

; 550  : 		m_pPath = new D3DXVECTOR3[ nNumFrame ];

  001bd	8b 45 08	 mov	 eax, DWORD PTR _nNumFrame$[ebp]
  001c0	b9 0c 00 00 00	 mov	 ecx, 12			; 0000000cH
  001c5	f7 e1		 mul	 ecx
  001c7	b9 ff ff ff ff	 mov	 ecx, -1
  001cc	0f 42 c1	 cmovb	 eax, ecx
  001cf	50		 push	 eax
  001d0	e8 00 00 00 00	 call	 ??_U@YAPAXI@Z		; operator new[]
  001d5	89 45 ec	 mov	 DWORD PTR $T3[ebp], eax

; 551  : 		resFp.Read( m_pPath, sizeof(D3DXVECTOR3) * nNumFrame, 1 );		// nNumFrame¸¸Ĺ­ ÇŃąćżˇ ŔĐľîąö¸®±â.

  001d8	8b 4d 08	 mov	 ecx, DWORD PTR _nNumFrame$[ebp]
; File C:\IAGOS\server\v18\Source\Source\_Common\File.h

; 27   : 	virtual size_t Read( void *ptr, size_t size, size_t n = 1 )	{ return fread( ptr, size, n, fp ); }

  001db	ff 75 e0	 push	 DWORD PTR _resFp$[ebp+4]
; File C:\IAGOS\server\v18\Source\Source\_Common\Bone.cpp

; 550  : 		m_pPath = new D3DXVECTOR3[ nNumFrame ];

  001de	89 87 a0 00 00
	00		 mov	 DWORD PTR [edi+160], eax
; File C:\IAGOS\server\v18\Source\Source\_Common\File.h

; 27   : 	virtual size_t Read( void *ptr, size_t size, size_t n = 1 )	{ return fread( ptr, size, n, fp ); }

  001e4	6a 01		 push	 1
; File C:\IAGOS\server\v18\Source\Source\_Common\Bone.cpp

; 551  : 		resFp.Read( m_pPath, sizeof(D3DXVECTOR3) * nNumFrame, 1 );		// nNumFrame¸¸Ĺ­ ÇŃąćżˇ ŔĐľîąö¸®±â.

  001e6	8d 0c 49	 lea	 ecx, DWORD PTR [ecx+ecx*2]
  001e9	c1 e1 02	 shl	 ecx, 2
; File C:\IAGOS\server\v18\Source\Source\_Common\File.h

; 27   : 	virtual size_t Read( void *ptr, size_t size, size_t n = 1 )	{ return fread( ptr, size, n, fp ); }

  001ec	51		 push	 ecx
  001ed	50		 push	 eax
  001ee	e8 00 00 00 00	 call	 _fread
  001f3	83 c4 14	 add	 esp, 20			; 00000014H
$LN6@LoadMotion:
; File C:\IAGOS\server\v18\Source\Source\_Common\Bone.cpp

; 556  : 	ReadTM( &resFp, nNumBone, nNumFrame );

  001f6	ff 75 08	 push	 DWORD PTR _nNumFrame$[ebp]
  001f9	8d 45 dc	 lea	 eax, DWORD PTR _resFp$[ebp]
  001fc	8b cf		 mov	 ecx, edi
  001fe	ff 75 f0	 push	 DWORD PTR _nNumBone$[ebp]
  00201	50		 push	 eax
  00202	e8 00 00 00 00	 call	 ?ReadTM@CMotion@@QAEXPAVCFileIO@@HH@Z ; CMotion::ReadTM

; 559  : 	resFp.Read( m_pAttr, sizeof(MOTION_ATTR) * nNumFrame, 1 );

  00207	8b 45 08	 mov	 eax, DWORD PTR _nNumFrame$[ebp]
; File C:\IAGOS\server\v18\Source\Source\_Common\File.h

; 27   : 	virtual size_t Read( void *ptr, size_t size, size_t n = 1 )	{ return fread( ptr, size, n, fp ); }

  0020a	ff 75 e0	 push	 DWORD PTR _resFp$[ebp+4]
  0020d	6a 01		 push	 1
; File C:\IAGOS\server\v18\Source\Source\_Common\Bone.cpp

; 559  : 	resFp.Read( m_pAttr, sizeof(MOTION_ATTR) * nNumFrame, 1 );

  0020f	8d 04 40	 lea	 eax, DWORD PTR [eax+eax*2]
  00212	c1 e0 02	 shl	 eax, 2
; File C:\IAGOS\server\v18\Source\Source\_Common\File.h

; 27   : 	virtual size_t Read( void *ptr, size_t size, size_t n = 1 )	{ return fread( ptr, size, n, fp ); }

  00215	50		 push	 eax
  00216	ff 77 04	 push	 DWORD PTR [edi+4]
  00219	e8 00 00 00 00	 call	 _fread
  0021e	ff 75 e0	 push	 DWORD PTR _resFp$[ebp+4]
; File C:\IAGOS\server\v18\Source\Source\_Common\Bone.cpp

; 561  : 	resFp.Read( &m_nMaxEvent, 4, 1 );	// ŔĚşĄĆ® ÁÂÇĄ ŔúŔĺ

  00221	8d 77 6c	 lea	 esi, DWORD PTR [edi+108]
; File C:\IAGOS\server\v18\Source\Source\_Common\File.h

; 27   : 	virtual size_t Read( void *ptr, size_t size, size_t n = 1 )	{ return fread( ptr, size, n, fp ); }

  00224	6a 01		 push	 1
  00226	6a 04		 push	 4
  00228	56		 push	 esi
  00229	e8 00 00 00 00	 call	 _fread
; File C:\IAGOS\server\v18\Source\Source\_Common\Bone.cpp

; 562  : 	if( m_nMaxEvent > 0 )

  0022e	8b 06		 mov	 eax, DWORD PTR [esi]
; File C:\IAGOS\server\v18\Source\Source\_Common\File.h

; 27   : 	virtual size_t Read( void *ptr, size_t size, size_t n = 1 )	{ return fread( ptr, size, n, fp ); }

  00230	83 c4 20	 add	 esp, 32			; 00000020H
; File C:\IAGOS\server\v18\Source\Source\_Common\Bone.cpp

; 562  : 	if( m_nMaxEvent > 0 )

  00233	85 c0		 test	 eax, eax
  00235	7e 18		 jle	 SHORT $LN7@LoadMotion
; File C:\IAGOS\server\v18\Source\Source\_Common\File.h

; 27   : 	virtual size_t Read( void *ptr, size_t size, size_t n = 1 )	{ return fread( ptr, size, n, fp ); }

  00237	ff 75 e0	 push	 DWORD PTR _resFp$[ebp+4]
; File C:\IAGOS\server\v18\Source\Source\_Common\Bone.cpp

; 563  : 		resFp.Read( m_vEvent, sizeof(D3DXVECTOR3) * m_nMaxEvent, 1 );

  0023a	8d 04 40	 lea	 eax, DWORD PTR [eax+eax*2]
  0023d	c1 e0 02	 shl	 eax, 2
; File C:\IAGOS\server\v18\Source\Source\_Common\File.h

; 27   : 	virtual size_t Read( void *ptr, size_t size, size_t n = 1 )	{ return fread( ptr, size, n, fp ); }

  00240	6a 01		 push	 1
  00242	50		 push	 eax
; File C:\IAGOS\server\v18\Source\Source\_Common\Bone.cpp

; 563  : 		resFp.Read( m_vEvent, sizeof(D3DXVECTOR3) * m_nMaxEvent, 1 );

  00243	8d 47 70	 lea	 eax, DWORD PTR [edi+112]
; File C:\IAGOS\server\v18\Source\Source\_Common\File.h

; 27   : 	virtual size_t Read( void *ptr, size_t size, size_t n = 1 )	{ return fread( ptr, size, n, fp ); }

  00246	50		 push	 eax
  00247	e8 00 00 00 00	 call	 _fread
  0024c	83 c4 10	 add	 esp, 16			; 00000010H
$LN7@LoadMotion:
; File C:\IAGOS\server\v18\Source\Source\_Common\Bone.cpp

; 566  : 	resFp.Close();

  0024f	8d 4d dc	 lea	 ecx, DWORD PTR _resFp$[ebp]
  00252	e8 00 00 00 00	 call	 ?Close@CFileIO@@UAEHXZ	; CFileIO::Close

; 570  : 	return SUCCESS;

  00257	be 01 00 00 00	 mov	 esi, 1
  0025c	e9 64 fe ff ff	 jmp	 $LN18@LoadMotion
_TEXT	ENDS
;	COMDAT text$x
text$x	SEGMENT
__unwindfunclet$?LoadMotion@CMotion@@QAEHPBD@Z$0:
  00000	8d 4d dc	 lea	 ecx, DWORD PTR _resFp$[ebp]
  00003	e9 00 00 00 00	 jmp	 ??1CFileIO@@UAE@XZ	; CFileIO::~CFileIO
__unwindfunclet$?LoadMotion@CMotion@@QAEHPBD@Z$1:
  00008	8d 4d ec	 lea	 ecx, DWORD PTR $T2[ebp]
  0000b	e9 00 00 00 00	 jmp	 ??1?$CStringT@DV?$StrTraitMFC@DV?$ChTraitsCRT@D@ATL@@@@@ATL@@QAE@XZ ; ATL::CStringT<char,StrTraitMFC<char,ATL::ChTraitsCRT<char> > >::~CStringT<char,StrTraitMFC<char,ATL::ChTraitsCRT<char> > >
  00010	cc		 int	 3
  00011	cc		 int	 3
  00012	cc		 int	 3
  00013	cc		 int	 3
  00014	cc		 int	 3
__ehhandler$?LoadMotion@CMotion@@QAEHPBD@Z:
  00015	90		 npad	 1
  00016	90		 npad	 1
  00017	8b 54 24 08	 mov	 edx, DWORD PTR [esp+8]
  0001b	8d 42 0c	 lea	 eax, DWORD PTR [edx+12]
  0001e	8b 4a d8	 mov	 ecx, DWORD PTR [edx-40]
  00021	33 c8		 xor	 ecx, eax
  00023	e8 00 00 00 00	 call	 @__security_check_cookie@4
  00028	b8 00 00 00 00	 mov	 eax, OFFSET __ehfuncinfo$?LoadMotion@CMotion@@QAEHPBD@Z
  0002d	e9 00 00 00 00	 jmp	 ___CxxFrameHandler3
text$x	ENDS
?LoadMotion@CMotion@@QAEHPBD@Z ENDP			; CMotion::LoadMotion
; Function compile flags: /Ogtp
; File C:\IAGOS\server\v18\Source\Source\_Common\Bone.cpp
;	COMDAT ?Destroy@CMotion@@QAEXXZ
_TEXT	SEGMENT
?Destroy@CMotion@@QAEXXZ PROC				; CMotion::Destroy, COMDAT
; _this$ = ecx

; 471  : {

  00000	56		 push	 esi
  00001	8b f1		 mov	 esi, ecx

; 472  : 	int		i;
; 473  : 
; 474  : 	SAFE_DELETE_ARRAY( m_pAttr );

  00003	8b 46 04	 mov	 eax, DWORD PTR [esi+4]
  00006	85 c0		 test	 eax, eax
  00008	74 10		 je	 SHORT $LN5@Destroy
  0000a	50		 push	 eax
  0000b	e8 00 00 00 00	 call	 ??_V@YAXPAX@Z		; operator delete[]
  00010	83 c4 04	 add	 esp, 4
  00013	c7 46 04 00 00
	00 00		 mov	 DWORD PTR [esi+4], 0
$LN5@Destroy:

; 475  : 	SAFE_DELETE_ARRAY( m_pMotion );

  0001a	8b 06		 mov	 eax, DWORD PTR [esi]
  0001c	85 c0		 test	 eax, eax
  0001e	74 0f		 je	 SHORT $LN6@Destroy
  00020	50		 push	 eax
  00021	e8 00 00 00 00	 call	 ??_V@YAXPAX@Z		; operator delete[]
  00026	83 c4 04	 add	 esp, 4
  00029	c7 06 00 00 00
	00		 mov	 DWORD PTR [esi], 0
$LN6@Destroy:

; 476  : 	SAFE_DELETE_ARRAY( m_pPath );

  0002f	8b 86 a0 00 00
	00		 mov	 eax, DWORD PTR [esi+160]
  00035	85 c0		 test	 eax, eax
  00037	74 13		 je	 SHORT $LN7@Destroy
  00039	50		 push	 eax
  0003a	e8 00 00 00 00	 call	 ??_V@YAXPAX@Z		; operator delete[]
  0003f	83 c4 04	 add	 esp, 4
  00042	c7 86 a0 00 00
	00 00 00 00 00	 mov	 DWORD PTR [esi+160], 0
$LN7@Destroy:

; 477  : 	if( m_pBoneFrame )

  0004c	83 7e 64 00	 cmp	 DWORD PTR [esi+100], 0
  00050	74 22		 je	 SHORT $LN3@Destroy

; 478  : 	{
; 479  : 		for( i = 0; i < m_nMaxBone; i ++ )

  00052	33 d2		 xor	 edx, edx
  00054	39 56 54	 cmp	 DWORD PTR [esi+84], edx
  00057	7e 1b		 jle	 SHORT $LN3@Destroy
  00059	33 c9		 xor	 ecx, ecx
  0005b	0f 1f 44 00 00	 npad	 5
$LL4@Destroy:

; 480  : 			m_pBoneFrame[i].m_pFrame = NULL;

  00060	8b 46 64	 mov	 eax, DWORD PTR [esi+100]
  00063	8d 49 44	 lea	 ecx, DWORD PTR [ecx+68]
  00066	42		 inc	 edx
  00067	c7 44 01 bc 00
	00 00 00	 mov	 DWORD PTR [ecx+eax-68], 0
  0006f	3b 56 54	 cmp	 edx, DWORD PTR [esi+84]
  00072	7c ec		 jl	 SHORT $LL4@Destroy
$LN3@Destroy:

; 481  : 	}
; 482  : 	SAFE_DELETE_ARRAY( m_pBoneFrame );

  00074	8b 46 64	 mov	 eax, DWORD PTR [esi+100]
  00077	85 c0		 test	 eax, eax
  00079	74 10		 je	 SHORT $LN9@Destroy
  0007b	50		 push	 eax
  0007c	e8 00 00 00 00	 call	 ??_V@YAXPAX@Z		; operator delete[]
  00081	83 c4 04	 add	 esp, 4
  00084	c7 46 64 00 00
	00 00		 mov	 DWORD PTR [esi+100], 0
$LN9@Destroy:

; 483  : 	SAFE_DELETE_ARRAY( m_pBoneInfo );

  0008b	8b 46 68	 mov	 eax, DWORD PTR [esi+104]
  0008e	85 c0		 test	 eax, eax
  00090	74 10		 je	 SHORT $LN10@Destroy
  00092	50		 push	 eax
  00093	e8 00 00 00 00	 call	 ??_V@YAXPAX@Z		; operator delete[]
  00098	83 c4 04	 add	 esp, 4
  0009b	c7 46 68 00 00
	00 00		 mov	 DWORD PTR [esi+104], 0
$LN10@Destroy:

; 484  : 
; 485  : 	Init();

  000a2	8b ce		 mov	 ecx, esi
  000a4	5e		 pop	 esi
  000a5	e9 00 00 00 00	 jmp	 ?Init@CMotion@@QAEXXZ	; CMotion::Init
?Destroy@CMotion@@QAEXXZ ENDP				; CMotion::Destroy
_TEXT	ENDS
; Function compile flags: /Ogtp
; File C:\IAGOS\server\v18\Source\Source\_Common\Bone.cpp
;	COMDAT ?Init@CMotion@@QAEXXZ
_TEXT	SEGMENT
?Init@CMotion@@QAEXXZ PROC				; CMotion::Init, COMDAT
; _this$ = ecx

; 458  : {

  00000	56		 push	 esi
  00001	8b f1		 mov	 esi, ecx

; 459  : 	m_pMotion = NULL;
; 460  : 	m_pPath = NULL;
; 461  : 	m_pBoneFrame = NULL;
; 462  : 	m_fPerSlerp = 0.5f;
; 463  : 	m_nMaxEvent = 0;
; 464  : 	m_pBoneInfo = NULL;
; 465  : 	memset( m_vEvent, 0, sizeof(m_vEvent) );

  00003	6a 30		 push	 48			; 00000030H
  00005	6a 00		 push	 0
  00007	8d 46 70	 lea	 eax, DWORD PTR [esi+112]
  0000a	c7 06 00 00 00
	00		 mov	 DWORD PTR [esi], 0
  00010	50		 push	 eax
  00011	c7 86 a0 00 00
	00 00 00 00 00	 mov	 DWORD PTR [esi+160], 0
  0001b	c7 46 64 00 00
	00 00		 mov	 DWORD PTR [esi+100], 0
  00022	c7 46 50 00 00
	00 3f		 mov	 DWORD PTR [esi+80], 1056964608 ; 3f000000H
  00029	c7 46 6c 00 00
	00 00		 mov	 DWORD PTR [esi+108], 0
  00030	e8 00 00 00 00	 call	 _memset
  00035	83 c4 0c	 add	 esp, 12			; 0000000cH

; 466  : 	m_pAttr = NULL;

  00038	c7 46 04 00 00
	00 00		 mov	 DWORD PTR [esi+4], 0

; 467  : 	m_pBoneInfo = NULL;

  0003f	c7 46 68 00 00
	00 00		 mov	 DWORD PTR [esi+104], 0
  00046	5e		 pop	 esi

; 468  : }

  00047	c3		 ret	 0
?Init@CMotion@@QAEXXZ ENDP				; CMotion::Init
_TEXT	ENDS
; Function compile flags: /Ogtp
; File C:\IAGOS\server\v18\Source\Source\_Common\Bone.cpp
;	COMDAT ??1CMotion@@QAE@XZ
_TEXT	SEGMENT
??1CMotion@@QAE@XZ PROC					; CMotion::~CMotion, COMDAT
; _this$ = ecx

; 454  : 	Destroy();

  00000	e9 00 00 00 00	 jmp	 ?Destroy@CMotion@@QAEXXZ ; CMotion::Destroy
??1CMotion@@QAE@XZ ENDP					; CMotion::~CMotion
_TEXT	ENDS
; Function compile flags: /Ogtp
; File C:\IAGOS\server\v18\Source\Source\_Common\Bone.cpp
;	COMDAT ??0CMotion@@QAE@XZ
_TEXT	SEGMENT
??0CMotion@@QAE@XZ PROC					; CMotion::CMotion, COMDAT
; _this$ = ecx

; 448  : {

  00000	56		 push	 esi
  00001	8b f1		 mov	 esi, ecx

; 449  : 	Init();

  00003	e8 00 00 00 00	 call	 ?Init@CMotion@@QAEXXZ	; CMotion::Init

; 450  : }

  00008	8b c6		 mov	 eax, esi
  0000a	5e		 pop	 esi
  0000b	c3		 ret	 0
??0CMotion@@QAE@XZ ENDP					; CMotion::CMotion
_TEXT	ENDS
; Function compile flags: /Ogtp
;	COMDAT ??0BONE_FRAME@@QAE@XZ
_TEXT	SEGMENT
??0BONE_FRAME@@QAE@XZ PROC				; BONE_FRAME::BONE_FRAME, COMDAT
; _this$ = ecx
  00000	8b c1		 mov	 eax, ecx
  00002	c3		 ret	 0
??0BONE_FRAME@@QAE@XZ ENDP				; BONE_FRAME::BONE_FRAME
_TEXT	ENDS
; Function compile flags: /Ogtp
;	COMDAT ??0TM_ANIMATION@@QAE@XZ
_TEXT	SEGMENT
??0TM_ANIMATION@@QAE@XZ PROC				; TM_ANIMATION::TM_ANIMATION, COMDAT
; _this$ = ecx
  00000	8b c1		 mov	 eax, ecx
  00002	c3		 ret	 0
??0TM_ANIMATION@@QAE@XZ ENDP				; TM_ANIMATION::TM_ANIMATION
_TEXT	ENDS
; Function compile flags: /Ogtp
; File C:\IAGOS\server\v18\Source\Source\_Common\Bone.cpp
; File C:\Program Files\Microsoft Visual Studio\2022\Professional\VC\Tools\MSVC\14.44.35207\include\xtree
; File C:\Program Files\Microsoft Visual Studio\2022\Professional\VC\Tools\MSVC\14.44.35207\include\type_traits
; File C:\Program Files\Microsoft Visual Studio\2022\Professional\VC\Tools\MSVC\14.44.35207\include\xtree
; File C:\Program Files\Microsoft Visual Studio\2022\Professional\VC\Tools\MSVC\14.44.35207\include\xstring
; File C:\Program Files\Microsoft Visual Studio\2022\Professional\VC\Tools\MSVC\14.44.35207\include\xmemory
; File C:\Program Files\Microsoft Visual Studio\2022\Professional\VC\Tools\MSVC\14.44.35207\include\xstring
; File C:\Program Files\Microsoft Visual Studio\2022\Professional\VC\Tools\MSVC\14.44.35207\include\xmemory
; File C:\Program Files\Microsoft Visual Studio\2022\Professional\VC\Tools\MSVC\14.44.35207\include\xtree
; File C:\IAGOS\server\v18\Source\Source\_Common\Bone.cpp
; File C:\Program Files\Microsoft Visual Studio\2022\Professional\VC\Tools\MSVC\14.44.35207\include\utility
; File C:\Program Files\Microsoft Visual Studio\2022\Professional\VC\Tools\MSVC\14.44.35207\include\xtree
; File C:\IAGOS\server\v18\Source\Source\_Common\Bone.cpp
; File C:\Program Files\Microsoft Visual Studio\2022\Professional\VC\Tools\MSVC\14.44.35207\include\xtree
; File C:\Program Files\Microsoft Visual Studio\2022\Professional\VC\Tools\MSVC\14.44.35207\include\type_traits
; File C:\Program Files\Microsoft Visual Studio\2022\Professional\VC\Tools\MSVC\14.44.35207\include\xtree
; File C:\Program Files\Microsoft Visual Studio\2022\Professional\VC\Tools\MSVC\14.44.35207\include\xmemory
; File C:\Program Files\Microsoft Visual Studio\2022\Professional\VC\Tools\MSVC\14.44.35207\include\xtree
; File C:\Program Files\Microsoft Visual Studio\2022\Professional\VC\Tools\MSVC\14.44.35207\include\xmemory
; File C:\Program Files\Microsoft Visual Studio\2022\Professional\VC\Tools\MSVC\14.44.35207\include\utility
; File C:\Program Files\Microsoft Visual Studio\2022\Professional\VC\Tools\MSVC\14.44.35207\include\xtree
; File C:\Program Files\Microsoft Visual Studio\2022\Professional\VC\Tools\MSVC\14.44.35207\include\utility
; File C:\Program Files\Microsoft Visual Studio\2022\Professional\VC\Tools\MSVC\14.44.35207\include\xtree
; File C:\IAGOS\server\v18\Source\Source\_Common\Bone.cpp
; File C:\Program Files\Microsoft Visual Studio\2022\Professional\VC\Tools\MSVC\14.44.35207\include\xmemory
; File C:\Program Files\Microsoft Visual Studio\2022\Professional\VC\Tools\MSVC\14.44.35207\include\xtree
; File C:\IAGOS\server\v18\Source\Source\_Common\Bone.cpp
;	COMDAT ?LoadBone@CBonesMng@@QAEPAVCBones@@PBD@Z
_TEXT	SEGMENT
__Loc$2 = -336						; size = 12
__Loc$3 = -336						; size = 12
_this$GSCopy$1$ = -324					; size = 4
$T4 = -320						; size = 12
$T5 = -316						; size = 8
_szFileName$GSCopy$1$ = -312				; size = 4
$T6 = -308						; size = 4
$T7 = -308						; size = 4
$T8 = -304						; size = 28
$T9 = -300						; size = 24
_sFile$ = -276						; size = 260
__$ArrayPad$ = -16					; size = 4
__$EHRec$ = -12						; size = 12
_szFileName$ = 8					; size = 4
?LoadBone@CBonesMng@@QAEPAVCBones@@PBD@Z PROC		; CBonesMng::LoadBone, COMDAT
; _this$ = ecx

; 241  : {

  00000	55		 push	 ebp
  00001	8b ec		 mov	 ebp, esp
  00003	6a ff		 push	 -1
  00005	68 00 00 00 00	 push	 __ehhandler$?LoadBone@CBonesMng@@QAEPAVCBones@@PBD@Z
  0000a	64 a1 00 00 00
	00		 mov	 eax, DWORD PTR fs:0
  00010	50		 push	 eax
  00011	81 ec 44 01 00
	00		 sub	 esp, 324		; 00000144H
  00017	a1 00 00 00 00	 mov	 eax, DWORD PTR ___security_cookie
  0001c	33 c5		 xor	 eax, ebp
  0001e	89 45 f0	 mov	 DWORD PTR __$ArrayPad$[ebp], eax
  00021	53		 push	 ebx
  00022	56		 push	 esi
  00023	57		 push	 edi
  00024	50		 push	 eax
  00025	8d 45 f4	 lea	 eax, DWORD PTR __$EHRec$[ebp]
  00028	64 a3 00 00 00
	00		 mov	 DWORD PTR fs:0, eax
  0002e	8b f1		 mov	 esi, ecx
  00030	89 b5 bc fe ff
	ff		 mov	 DWORD PTR _this$GSCopy$1$[ebp], esi
  00036	8b 5d 08	 mov	 ebx, DWORD PTR _szFileName$[ebp]

; 242  : #if __VER >= 12 // __LEAK_0827
; 243  : 	char sFile[MAX_PATH]	= { 0,};

  00039	8d 85 ec fe ff
	ff		 lea	 eax, DWORD PTR _sFile$[ebp]
  0003f	68 04 01 00 00	 push	 260			; 00000104H
  00044	6a 00		 push	 0
  00046	50		 push	 eax
  00047	89 9d c8 fe ff
	ff		 mov	 DWORD PTR _szFileName$GSCopy$1$[ebp], ebx
  0004d	e8 00 00 00 00	 call	 _memset
  00052	8d 95 ec fe ff
	ff		 lea	 edx, DWORD PTR _sFile$[ebp]
  00058	83 c4 0c	 add	 esp, 12			; 0000000cH

; 244  : 	strcpy( sFile, szFileName );

  0005b	8b cb		 mov	 ecx, ebx
  0005d	2b d3		 sub	 edx, ebx
  0005f	90		 npad	 1
$LL5@LoadBone:
  00060	8a 01		 mov	 al, BYTE PTR [ecx]
  00062	8d 49 01	 lea	 ecx, DWORD PTR [ecx+1]
  00065	88 44 0a ff	 mov	 BYTE PTR [edx+ecx-1], al
  00069	84 c0		 test	 al, al
  0006b	75 f3		 jne	 SHORT $LL5@LoadBone

; 245  : 	strlwr( sFile );

  0006d	8d 85 ec fe ff
	ff		 lea	 eax, DWORD PTR _sFile$[ebp]
  00073	50		 push	 eax
  00074	e8 00 00 00 00	 call	 _strlwr
  00079	83 c4 04	 add	 esp, 4

; 246  : 
; 247  : 	map<string, CBones*>::iterator i	= m_mapBones.find( sFile );

  0007c	8d 85 ec fe ff
	ff		 lea	 eax, DWORD PTR _sFile$[ebp]
  00082	8d 8d d4 fe ff
	ff		 lea	 ecx, DWORD PTR $T9[ebp]
  00088	50		 push	 eax
  00089	e8 00 00 00 00	 call	 ??0?$basic_string@DU?$char_traits@D@std@@V?$allocator@D@2@@std@@QAE@QBD@Z ; std::basic_string<char,std::char_traits<char>,std::allocator<char> >::basic_string<char,std::char_traits<char>,std::allocator<char> >
; File C:\Program Files\Microsoft Visual Studio\2022\Professional\VC\Tools\MSVC\14.44.35207\include\xtree

; 1384 :         const _Tree_find_result<_Nodeptr> _Loc = _Find_lower_bound(_Keyval);

  0008e	8d 85 d4 fe ff
	ff		 lea	 eax, DWORD PTR $T9[ebp]
  00094	8b ce		 mov	 ecx, esi
  00096	50		 push	 eax
  00097	8d 85 b0 fe ff
	ff		 lea	 eax, DWORD PTR __Loc$2[ebp]
  0009d	50		 push	 eax
  0009e	e8 00 00 00 00	 call	 ??$_Find_lower_bound@V?$basic_string@DU?$char_traits@D@std@@V?$allocator@D@2@@std@@@?$_Tree@V?$_Tmap_traits@V?$basic_string@DU?$char_traits@D@std@@V?$allocator@D@2@@std@@PAVCBones@@U?$less@V?$basic_string@DU?$char_traits@D@std@@V?$allocator@D@2@@std@@@2@V?$allocator@U?$pair@$$CBV?$basic_string@DU?$char_traits@D@std@@V?$allocator@D@2@@std@@PAVCBones@@@std@@@2@$0A@@std@@@std@@IBE?AU?$_Tree_find_result@PAU?$_Tree_node@U?$pair@$$CBV?$basic_string@DU?$char_traits@D@std@@V?$allocator@D@2@@std@@PAVCBones@@@std@@PAX@std@@@1@ABV?$basic_string@DU?$char_traits@D@std@@V?$allocator@D@2@@1@@Z ; std::_Tree<std::_Tmap_traits<std::basic_string<char,std::char_traits<char>,std::allocator<char> >,CBones *,std::less<std::basic_string<char,std::char_traits<char>,std::allocator<char> > >,std::allocator<std::pair<std::basic_string<char,std::char_traits<char>,std::allocator<char> > const ,CBones *> >,0> >::_Find_lower_bound<std::basic_string<char,std::char_traits<char>,std::allocator<char> > >

; 1624 :         return !_Bound->_Isnil && !_DEBUG_LT_PRED(_Getcomp(), _Keyval, _Traits::_Kfn(_Bound->_Myval));

  000a3	8b bd b8 fe ff
	ff		 mov	 edi, DWORD PTR __Loc$2[ebp+8]
  000a9	80 7f 0d 00	 cmp	 BYTE PTR [edi+13], 0
  000ad	75 17		 jne	 SHORT $LN16@LoadBone
  000af	8d 47 10	 lea	 eax, DWORD PTR [edi+16]
; File C:\Program Files\Microsoft Visual Studio\2022\Professional\VC\Tools\MSVC\14.44.35207\include\type_traits

; 2380 :         return _Left < _Right;

  000b2	50		 push	 eax
  000b3	8d 85 d4 fe ff
	ff		 lea	 eax, DWORD PTR $T9[ebp]
  000b9	50		 push	 eax
  000ba	e8 00 00 00 00	 call	 ??$?MDU?$char_traits@D@std@@V?$allocator@D@1@@std@@YA_NABV?$basic_string@DU?$char_traits@D@std@@V?$allocator@D@2@@0@0@Z ; std::operator<<char,std::char_traits<char>,std::allocator<char> >
  000bf	83 c4 08	 add	 esp, 8
; File C:\Program Files\Microsoft Visual Studio\2022\Professional\VC\Tools\MSVC\14.44.35207\include\xtree

; 1624 :         return !_Bound->_Isnil && !_DEBUG_LT_PRED(_Getcomp(), _Keyval, _Traits::_Kfn(_Bound->_Myval));

  000c2	84 c0		 test	 al, al
  000c4	74 02		 je	 SHORT $LN15@LoadBone
$LN16@LoadBone:

; 1389 :         return _Get_scary()->_Myhead;

  000c6	8b 3e		 mov	 edi, DWORD PTR [esi]
$LN15@LoadBone:
; File C:\Program Files\Microsoft Visual Studio\2022\Professional\VC\Tools\MSVC\14.44.35207\include\xstring

; 453  :         return _Myres > _Small_string_capacity;

  000c8	8b 8d e8 fe ff
	ff		 mov	 ecx, DWORD PTR $T9[ebp+20]
  000ce	83 f9 0f	 cmp	 ecx, 15			; 0000000fH

; 3083 :         if (_My_data._Large_mode_engaged()) {

  000d1	76 2f		 jbe	 SHORT $LN54@LoadBone
; File C:\Program Files\Microsoft Visual Studio\2022\Professional\VC\Tools\MSVC\14.44.35207\include\xmemory

; 985  :         _STD _Deallocate<_New_alignof<_Ty>>(_Ptr, sizeof(_Ty) * _Count);

  000d3	8b 95 d4 fe ff
	ff		 mov	 edx, DWORD PTR $T9[ebp]
; File C:\Program Files\Microsoft Visual Studio\2022\Professional\VC\Tools\MSVC\14.44.35207\include\xstring

; 852  :         _Al.deallocate(_Old_ptr, _Capacity + 1); // +1 for null terminator

  000d9	41		 inc	 ecx
; File C:\Program Files\Microsoft Visual Studio\2022\Professional\VC\Tools\MSVC\14.44.35207\include\xmemory

; 985  :         _STD _Deallocate<_New_alignof<_Ty>>(_Ptr, sizeof(_Ty) * _Count);

  000da	8b c2		 mov	 eax, edx

; 284  :         if (_Bytes >= _Big_allocation_threshold) {

  000dc	81 f9 00 10 00
	00		 cmp	 ecx, 4096		; 00001000H
  000e2	72 14		 jb	 SHORT $LN59@LoadBone

; 205  :     const uintptr_t _Ptr_container   = _Ptr_user[-1];

  000e4	8b 50 fc	 mov	 edx, DWORD PTR [eax-4]
  000e7	83 c1 23	 add	 ecx, 35			; 00000023H
  000ea	2b c2		 sub	 eax, edx

; 219  :     _STL_VERIFY(_Back_shift >= _Min_back_shift && _Back_shift <= _Non_user_size, "invalid argument");

  000ec	83 c0 fc	 add	 eax, -4			; fffffffcH
  000ef	83 f8 1f	 cmp	 eax, 31			; 0000001fH
  000f2	0f 87 80 01 00
	00		 ja	 $LN261@LoadBone
$LN59@LoadBone:

; 289  :         ::operator delete(_Ptr, _Bytes);

  000f8	51		 push	 ecx
  000f9	52		 push	 edx
  000fa	e8 00 00 00 00	 call	 ??3@YAXPAXI@Z		; operator delete
  000ff	83 c4 08	 add	 esp, 8
$LN54@LoadBone:
; File C:\Program Files\Microsoft Visual Studio\2022\Professional\VC\Tools\MSVC\14.44.35207\include\xtree

; 37   :     _Tree_unchecked_const_iterator(_Nodeptr _Pnode, const _Mytree* _Plist) noexcept : _Ptr(_Pnode) {

  00102	3b 3e		 cmp	 edi, DWORD PTR [esi]
; File C:\IAGOS\server\v18\Source\Source\_Common\Bone.cpp

; 248  : 	if( i != m_mapBones.end() )

  00104	74 08		 je	 SHORT $LN2@LoadBone

; 249  : 		return i->second;

  00106	8b 47 28	 mov	 eax, DWORD PTR [edi+40]
  00109	e9 4c 01 00 00	 jmp	 $LN1@LoadBone
$LN2@LoadBone:

; 250  : 	// ·ÎµůµČ°Ô ľĆ´Ďľú´Ů¸é.  ˝ÇÁ¦·Î µĄŔĚĹ¸ ŔĐŔ˝.
; 251  : 	CBones* pBones	= new CBones;

  0010e	68 e0 01 00 00	 push	 480			; 000001e0H
  00113	e8 00 00 00 00	 call	 ??2@YAPAXI@Z		; operator new
  00118	83 c4 04	 add	 esp, 4
  0011b	89 85 cc fe ff
	ff		 mov	 DWORD PTR $T6[ebp], eax
  00121	85 c0		 test	 eax, eax
  00123	74 11		 je	 SHORT $LN6@LoadBone
  00125	8b c8		 mov	 ecx, eax
  00127	e8 00 00 00 00	 call	 ??0CBones@@QAE@XZ	; CBones::CBones
  0012c	8b d8		 mov	 ebx, eax
  0012e	89 85 cc fe ff
	ff		 mov	 DWORD PTR $T7[ebp], eax
  00134	eb 08		 jmp	 SHORT $LN7@LoadBone
$LN6@LoadBone:
  00136	33 db		 xor	 ebx, ebx
  00138	89 9d cc fe ff
	ff		 mov	 DWORD PTR $T7[ebp], ebx
$LN7@LoadBone:

; 252  : 	if( pBones->LoadBone( szFileName ) == FAIL )

  0013e	ff b5 c8 fe ff
	ff		 push	 DWORD PTR _szFileName$GSCopy$1$[ebp]
  00144	8b cb		 mov	 ecx, ebx
  00146	e8 00 00 00 00	 call	 ?LoadBone@CBones@@QAEHPBD@Z ; CBones::LoadBone
  0014b	83 f8 ff	 cmp	 eax, -1
  0014e	75 20		 jne	 SHORT $LN3@LoadBone

; 253  : 	{
; 254  : 		safe_delete( pBones );

  00150	85 db		 test	 ebx, ebx
  00152	74 15		 je	 SHORT $LN94@LoadBone
  00154	8b cb		 mov	 ecx, ebx
  00156	e8 00 00 00 00	 call	 ??1CBones@@QAE@XZ	; CBones::~CBones
  0015b	68 e0 01 00 00	 push	 480			; 000001e0H
  00160	53		 push	 ebx
  00161	e8 00 00 00 00	 call	 ??3@YAXPAXI@Z		; operator delete
  00166	83 c4 08	 add	 esp, 8
$LN94@LoadBone:

; 255  : 		return NULL;

  00169	33 c0		 xor	 eax, eax
  0016b	e9 ea 00 00 00	 jmp	 $LN1@LoadBone
$LN3@LoadBone:
; File C:\Program Files\Microsoft Visual Studio\2022\Professional\VC\Tools\MSVC\14.44.35207\include\utility

; 274  :         : first(_STD forward<_Other1>(_Val1)), second(_STD forward<_Other2>(_Val2)) {

  00170	8d 85 ec fe ff
	ff		 lea	 eax, DWORD PTR _sFile$[ebp]
  00176	50		 push	 eax
  00177	8d 8d d0 fe ff
	ff		 lea	 ecx, DWORD PTR $T8[ebp]
  0017d	e8 00 00 00 00	 call	 ??0?$basic_string@DU?$char_traits@D@std@@V?$allocator@D@2@@std@@QAE@QBD@Z ; std::basic_string<char,std::char_traits<char>,std::allocator<char> >::basic_string<char,std::char_traits<char>,std::allocator<char> >
  00182	89 9d e8 fe ff
	ff		 mov	 DWORD PTR $T8[ebp+24], ebx
; File C:\Program Files\Microsoft Visual Studio\2022\Professional\VC\Tools\MSVC\14.44.35207\include\xtree

; 1017 :             _Loc                = _Find_lower_bound(_Keyval);

  00188	8d 85 d0 fe ff
	ff		 lea	 eax, DWORD PTR $T8[ebp]
; File C:\IAGOS\server\v18\Source\Source\_Common\Bone.cpp

; 257  : 	bool bResult	= m_mapBones.insert( map<string, CBones*>::value_type( sFile, pBones ) ).second;

  0018e	c7 45 fc 00 00
	00 00		 mov	 DWORD PTR __$EHRec$[ebp+8], 0
; File C:\Program Files\Microsoft Visual Studio\2022\Professional\VC\Tools\MSVC\14.44.35207\include\xtree

; 1017 :             _Loc                = _Find_lower_bound(_Keyval);

  00195	50		 push	 eax
  00196	8d 85 c0 fe ff
	ff		 lea	 eax, DWORD PTR $T4[ebp]
  0019c	8b ce		 mov	 ecx, esi
  0019e	50		 push	 eax
  0019f	e8 00 00 00 00	 call	 ??$_Find_lower_bound@V?$basic_string@DU?$char_traits@D@std@@V?$allocator@D@2@@std@@@?$_Tree@V?$_Tmap_traits@V?$basic_string@DU?$char_traits@D@std@@V?$allocator@D@2@@std@@PAVCBones@@U?$less@V?$basic_string@DU?$char_traits@D@std@@V?$allocator@D@2@@std@@@2@V?$allocator@U?$pair@$$CBV?$basic_string@DU?$char_traits@D@std@@V?$allocator@D@2@@std@@PAVCBones@@@std@@@2@$0A@@std@@@std@@IBE?AU?$_Tree_find_result@PAU?$_Tree_node@U?$pair@$$CBV?$basic_string@DU?$char_traits@D@std@@V?$allocator@D@2@@std@@PAVCBones@@@std@@PAX@std@@@1@ABV?$basic_string@DU?$char_traits@D@std@@V?$allocator@D@2@@1@@Z ; std::_Tree<std::_Tmap_traits<std::basic_string<char,std::char_traits<char>,std::allocator<char> >,CBones *,std::less<std::basic_string<char,std::char_traits<char>,std::allocator<char> > >,std::allocator<std::pair<std::basic_string<char,std::char_traits<char>,std::allocator<char> > const ,CBones *> >,0> >::_Find_lower_bound<std::basic_string<char,std::char_traits<char>,std::allocator<char> > >
  001a4	f3 0f 7e 00	 movq	 xmm0, QWORD PTR [eax]
  001a8	8b 40 08	 mov	 eax, DWORD PTR [eax+8]
  001ab	66 0f d6 85 b0
	fe ff ff	 movq	 QWORD PTR __Loc$3[ebp], xmm0

; 1624 :         return !_Bound->_Isnil && !_DEBUG_LT_PRED(_Getcomp(), _Keyval, _Traits::_Kfn(_Bound->_Myval));

  001b3	80 78 0d 00	 cmp	 BYTE PTR [eax+13], 0
  001b7	75 17		 jne	 SHORT $LN108@LoadBone
  001b9	83 c0 10	 add	 eax, 16			; 00000010H
; File C:\Program Files\Microsoft Visual Studio\2022\Professional\VC\Tools\MSVC\14.44.35207\include\type_traits

; 2380 :         return _Left < _Right;

  001bc	50		 push	 eax
  001bd	8d 85 d0 fe ff
	ff		 lea	 eax, DWORD PTR $T8[ebp]
  001c3	50		 push	 eax
  001c4	e8 00 00 00 00	 call	 ??$?MDU?$char_traits@D@std@@V?$allocator@D@1@@std@@YA_NABV?$basic_string@DU?$char_traits@D@std@@V?$allocator@D@2@@0@0@Z ; std::operator<<char,std::char_traits<char>,std::allocator<char> >
  001c9	83 c4 08	 add	 esp, 8
; File C:\Program Files\Microsoft Visual Studio\2022\Professional\VC\Tools\MSVC\14.44.35207\include\xtree

; 1624 :         return !_Bound->_Isnil && !_DEBUG_LT_PRED(_Getcomp(), _Keyval, _Traits::_Kfn(_Bound->_Myval));

  001cc	84 c0		 test	 al, al
  001ce	74 7d		 je	 SHORT $LN233@LoadBone
$LN108@LoadBone:

; 1648 :         if (max_size() == _Get_scary()->_Mysize) {

  001d0	81 7e 04 5d 74
	d1 05		 cmp	 DWORD PTR [esi+4], 97612893 ; 05d1745dH
  001d7	0f 84 aa 00 00
	00		 je	 $LN262@LoadBone

; 1023 :             _Inserted = _Tree_temp_node<_Alnode>(_Getal(), _Scary->_Myhead, _STD forward<_Valtys>(_Vals)...)._Release();

  001dd	8b 1e		 mov	 ebx, DWORD PTR [esi]
; File C:\Program Files\Microsoft Visual Studio\2022\Professional\VC\Tools\MSVC\14.44.35207\include\xmemory

; 1160 :     _CONSTEXPR20 explicit _Alloc_construct_ptr(_Alloc& _Al_) : _Al(_Al_), _Ptr(nullptr) {}

  001df	89 b5 c4 fe ff
	ff		 mov	 DWORD PTR $T5[ebp], esi

; 136  :         return ::operator new(_Bytes);

  001e5	6a 2c		 push	 44			; 0000002cH
; File C:\Program Files\Microsoft Visual Studio\2022\Professional\VC\Tools\MSVC\14.44.35207\include\xtree

; 808  :     explicit _Tree_temp_node_alloc(_Alnode& _Al_) : _Alloc_construct_ptr<_Alnode>(_Al_) {

  001e7	c6 45 fc 01	 mov	 BYTE PTR __$EHRec$[ebp+8], 1
; File C:\Program Files\Microsoft Visual Studio\2022\Professional\VC\Tools\MSVC\14.44.35207\include\xmemory

; 1167 :         _Ptr = nullptr; // if allocate throws, prevents double-free

  001eb	c7 85 c8 fe ff
	ff 00 00 00 00	 mov	 DWORD PTR $T5[ebp+4], 0

; 136  :         return ::operator new(_Bytes);

  001f5	e8 00 00 00 00	 call	 ??2@YAPAXI@Z		; operator new

; 256  :         return _Traits::_Allocate(_Bytes);

  001fa	8b f8		 mov	 edi, eax

; 136  :         return ::operator new(_Bytes);

  001fc	83 c4 04	 add	 esp, 4

; 1168 :         _Ptr = _Al.allocate(1);

  001ff	89 bd c8 fe ff
	ff		 mov	 DWORD PTR $T5[ebp+4], edi
; File C:\Program Files\Microsoft Visual Studio\2022\Professional\VC\Tools\MSVC\14.44.35207\include\utility

; 278  :     pair(pair&&)      = default;

  00205	8d 85 d0 fe ff
	ff		 lea	 eax, DWORD PTR $T8[ebp]
; File C:\Program Files\Microsoft Visual Studio\2022\Professional\VC\Tools\MSVC\14.44.35207\include\xtree

; 829  :         : _Tree_temp_node_alloc<_Alnode>(_Al_) {

  0020b	c6 45 fc 02	 mov	 BYTE PTR __$EHRec$[ebp+8], 2
; File C:\Program Files\Microsoft Visual Studio\2022\Professional\VC\Tools\MSVC\14.44.35207\include\utility

; 278  :     pair(pair&&)      = default;

  0020f	50		 push	 eax
  00210	8d 4f 10	 lea	 ecx, DWORD PTR [edi+16]
  00213	e8 00 00 00 00	 call	 ??0?$basic_string@DU?$char_traits@D@std@@V?$allocator@D@2@@std@@QAE@ABV01@@Z ; std::basic_string<char,std::char_traits<char>,std::allocator<char> >::basic_string<char,std::char_traits<char>,std::allocator<char> >
  00218	8b 8d e8 fe ff
	ff		 mov	 ecx, DWORD PTR $T8[ebp+24]
  0021e	89 4f 28	 mov	 DWORD PTR [edi+40], ecx
; File C:\Program Files\Microsoft Visual Studio\2022\Professional\VC\Tools\MSVC\14.44.35207\include\xtree

; 1042 :         return {_Scary->_Insert_node(_Loc._Location, _Inserted), true};

  00221	8b 8d bc fe ff
	ff		 mov	 ecx, DWORD PTR _this$GSCopy$1$[ebp]
  00227	57		 push	 edi
  00228	ff b5 b4 fe ff
	ff		 push	 DWORD PTR __Loc$3[ebp+4]

; 831  :         _Construct_in_place(this->_Ptr->_Left, _Myhead);

  0022e	89 1f		 mov	 DWORD PTR [edi], ebx

; 1042 :         return {_Scary->_Insert_node(_Loc._Location, _Inserted), true};

  00230	ff b5 b0 fe ff
	ff		 push	 DWORD PTR __Loc$3[ebp]

; 832  :         _Construct_in_place(this->_Ptr->_Parent, _Myhead);

  00236	89 5f 04	 mov	 DWORD PTR [edi+4], ebx

; 833  :         _Construct_in_place(this->_Ptr->_Right, _Myhead);

  00239	89 5f 08	 mov	 DWORD PTR [edi+8], ebx

; 834  :         this->_Ptr->_Color = _Red;

  0023c	66 c7 47 0c 00
	00		 mov	 WORD PTR [edi+12], 0

; 1042 :         return {_Scary->_Insert_node(_Loc._Location, _Inserted), true};

  00242	e8 00 00 00 00	 call	 ?_Insert_node@?$_Tree_val@U?$_Tree_simple_types@U?$pair@$$CBV?$basic_string@DU?$char_traits@D@std@@V?$allocator@D@2@@std@@PAVCBones@@@std@@@std@@@std@@QAEPAU?$_Tree_node@U?$pair@$$CBV?$basic_string@DU?$char_traits@D@std@@V?$allocator@D@2@@std@@PAVCBones@@@std@@PAX@2@U?$_Tree_id@PAU?$_Tree_node@U?$pair@$$CBV?$basic_string@DU?$char_traits@D@std@@V?$allocator@D@2@@std@@PAVCBones@@@std@@PAX@std@@@2@QAU32@@Z ; std::_Tree_val<std::_Tree_simple_types<std::pair<std::basic_string<char,std::char_traits<char>,std::allocator<char> > const ,CBones *> > >::_Insert_node
  00247	8b 9d cc fe ff
	ff		 mov	 ebx, DWORD PTR $T7[ebp]
$LN233@LoadBone:
  0024d	8d 8d d0 fe ff
	ff		 lea	 ecx, DWORD PTR $T8[ebp]
  00253	e8 00 00 00 00	 call	 ??1?$basic_string@DU?$char_traits@D@std@@V?$allocator@D@2@@std@@QAE@XZ ; std::basic_string<char,std::char_traits<char>,std::allocator<char> >::~basic_string<char,std::char_traits<char>,std::allocator<char> >
; File C:\IAGOS\server\v18\Source\Source\_Common\Bone.cpp

; 258  : 	return pBones;

  00258	8b c3		 mov	 eax, ebx
$LN1@LoadBone:

; 293  : }

  0025a	8b 4d f4	 mov	 ecx, DWORD PTR __$EHRec$[ebp]
  0025d	64 89 0d 00 00
	00 00		 mov	 DWORD PTR fs:0, ecx
  00264	59		 pop	 ecx
  00265	5f		 pop	 edi
  00266	5e		 pop	 esi
  00267	5b		 pop	 ebx
  00268	8b 4d f0	 mov	 ecx, DWORD PTR __$ArrayPad$[ebp]
  0026b	33 cd		 xor	 ecx, ebp
  0026d	e8 00 00 00 00	 call	 @__security_check_cookie@4
  00272	8b e5		 mov	 esp, ebp
  00274	5d		 pop	 ebp
  00275	c2 04 00	 ret	 4
$LN261@LoadBone:
; File C:\Program Files\Microsoft Visual Studio\2022\Professional\VC\Tools\MSVC\14.44.35207\include\xmemory

; 219  :     _STL_VERIFY(_Back_shift >= _Min_back_shift && _Back_shift <= _Non_user_size, "invalid argument");

  00278	6a 00		 push	 0
  0027a	6a 00		 push	 0
  0027c	6a 00		 push	 0
  0027e	6a 00		 push	 0
  00280	6a 00		 push	 0
  00282	e8 00 00 00 00	 call	 __invoke_watson
$LN262@LoadBone:
; File C:\Program Files\Microsoft Visual Studio\2022\Professional\VC\Tools\MSVC\14.44.35207\include\xtree

; 1649 :             _Throw_tree_length_error();

  00287	e8 00 00 00 00	 call	 ?_Throw_tree_length_error@std@@YAXXZ ; std::_Throw_tree_length_error
$LN259@LoadBone:
  0028c	cc		 int	 3
_TEXT	ENDS
;	COMDAT text$x
text$x	SEGMENT
__unwindfunclet$?LoadBone@CBonesMng@@QAEPAVCBones@@PBD@Z$2:
  00000	8d 8d d0 fe ff
	ff		 lea	 ecx, DWORD PTR $T8[ebp]
  00006	e9 00 00 00 00	 jmp	 ??1?$pair@$$CBV?$basic_string@DU?$char_traits@D@std@@V?$allocator@D@2@@std@@PAVCBones@@@std@@QAE@XZ
__unwindfunclet$?LoadBone@CBonesMng@@QAEPAVCBones@@PBD@Z$7:
  0000b	8d 8d c4 fe ff
	ff		 lea	 ecx, DWORD PTR $T5[ebp]
  00011	e9 00 00 00 00	 jmp	 ??1?$_Alloc_construct_ptr@V?$allocator@U?$_Tree_node@U?$pair@$$CBV?$basic_string@DU?$char_traits@D@std@@V?$allocator@D@2@@std@@PAVCBones@@@std@@PAX@std@@@std@@@std@@QAE@XZ ; std::_Alloc_construct_ptr<std::allocator<std::_Tree_node<std::pair<std::basic_string<char,std::char_traits<char>,std::allocator<char> > const ,CBones *>,void *> > >::~_Alloc_construct_ptr<std::allocator<std::_Tree_node<std::pair<std::basic_string<char,std::char_traits<char>,std::allocator<char> > const ,CBones *>,void *> > >
__unwindfunclet$?LoadBone@CBonesMng@@QAEPAVCBones@@PBD@Z$6:
  00016	8d 8d c4 fe ff
	ff		 lea	 ecx, DWORD PTR $T5[ebp]
  0001c	e9 00 00 00 00	 jmp	 ??1?$_Tree_temp_node_alloc@V?$allocator@U?$_Tree_node@U?$pair@$$CBV?$basic_string@DU?$char_traits@D@std@@V?$allocator@D@2@@std@@PAVCBones@@@std@@PAX@std@@@std@@@std@@QAE@XZ
  00021	cc		 int	 3
  00022	cc		 int	 3
  00023	cc		 int	 3
  00024	cc		 int	 3
  00025	cc		 int	 3
__ehhandler$?LoadBone@CBonesMng@@QAEPAVCBones@@PBD@Z:
  00026	90		 npad	 1
  00027	90		 npad	 1
  00028	8b 54 24 08	 mov	 edx, DWORD PTR [esp+8]
  0002c	8d 42 0c	 lea	 eax, DWORD PTR [edx+12]
  0002f	8b 8a ac fe ff
	ff		 mov	 ecx, DWORD PTR [edx-340]
  00035	33 c8		 xor	 ecx, eax
  00037	e8 00 00 00 00	 call	 @__security_check_cookie@4
  0003c	8b 4a fc	 mov	 ecx, DWORD PTR [edx-4]
  0003f	33 c8		 xor	 ecx, eax
  00041	e8 00 00 00 00	 call	 @__security_check_cookie@4
  00046	b8 00 00 00 00	 mov	 eax, OFFSET __ehfuncinfo$?LoadBone@CBonesMng@@QAEPAVCBones@@PBD@Z
  0004b	e9 00 00 00 00	 jmp	 ___CxxFrameHandler3
text$x	ENDS
?LoadBone@CBonesMng@@QAEPAVCBones@@PBD@Z ENDP		; CBonesMng::LoadBone
; Function compile flags: /Ogtp
; File C:\IAGOS\server\v18\Source\Source\_Common\Bone.cpp
; File C:\Program Files\Microsoft Visual Studio\2022\Professional\VC\Tools\MSVC\14.44.35207\include\xtree
; File C:\IAGOS\server\v18\Source\Source\_Common\Bone.cpp
; File C:\Program Files\Microsoft Visual Studio\2022\Professional\VC\Tools\MSVC\14.44.35207\include\xtree
; File C:\IAGOS\server\v18\Source\Source\_Common\Bone.cpp
; File C:\Program Files\Microsoft Visual Studio\2022\Professional\VC\Tools\MSVC\14.44.35207\include\xtree
; File C:\IAGOS\server\v18\Source\Source\_Common\Bone.cpp
;	COMDAT ?Destroy@CBonesMng@@QAEXXZ
_TEXT	SEGMENT
?Destroy@CBonesMng@@QAEXXZ PROC				; CBonesMng::Destroy, COMDAT
; _this$ = ecx

; 215  : {

  00000	53		 push	 ebx
  00001	8b d9		 mov	 ebx, ecx
  00003	56		 push	 esi
  00004	57		 push	 edi
; File C:\Program Files\Microsoft Visual Studio\2022\Professional\VC\Tools\MSVC\14.44.35207\include\xtree

; 1142 :         return iterator(_Scary->_Myhead->_Left, _Scary);

  00005	8b 3b		 mov	 edi, DWORD PTR [ebx]

; 37   :     _Tree_unchecked_const_iterator(_Nodeptr _Pnode, const _Mytree* _Plist) noexcept : _Ptr(_Pnode) {

  00007	8b 37		 mov	 esi, DWORD PTR [edi]

; 237  :         return !(*this == _Right);

  00009	3b f7		 cmp	 esi, edi
; File C:\IAGOS\server\v18\Source\Source\_Common\Bone.cpp

; 217  : 	for( map<string, CBones*>::iterator i = m_mapBones.begin(); i != m_mapBones.end(); ++i )

  0000b	74 65		 je	 SHORT $LN3@Destroy
  0000d	0f 1f 00	 npad	 3
$LL4@Destroy:

; 218  : 		safe_delete( i->second );

  00010	8b 7e 28	 mov	 edi, DWORD PTR [esi+40]
  00013	85 ff		 test	 edi, edi
  00015	74 15		 je	 SHORT $LN2@Destroy
  00017	8b cf		 mov	 ecx, edi
  00019	e8 00 00 00 00	 call	 ??1CBones@@QAE@XZ	; CBones::~CBones
  0001e	68 e0 01 00 00	 push	 480			; 000001e0H
  00023	57		 push	 edi
  00024	e8 00 00 00 00	 call	 ??3@YAXPAXI@Z		; operator delete
  00029	83 c4 08	 add	 esp, 8
$LN2@Destroy:
; File C:\Program Files\Microsoft Visual Studio\2022\Professional\VC\Tools\MSVC\14.44.35207\include\xtree

; 50   :         if (_Ptr->_Right->_Isnil) { // climb looking for right subtree

  0002c	8b 46 08	 mov	 eax, DWORD PTR [esi+8]
  0002f	80 78 0d 00	 cmp	 BYTE PTR [eax+13], 0
  00033	74 1f		 je	 SHORT $LN29@Destroy

; 51   :             _Nodeptr _Pnode;
; 52   :             while (!(_Pnode = _Ptr->_Parent)->_Isnil && _Ptr == _Pnode->_Right) {

  00035	8b 46 04	 mov	 eax, DWORD PTR [esi+4]
  00038	80 78 0d 00	 cmp	 BYTE PTR [eax+13], 0
  0003c	75 12		 jne	 SHORT $LN84@Destroy
  0003e	66 90		 npad	 2
$LL27@Destroy:
  00040	3b 70 08	 cmp	 esi, DWORD PTR [eax+8]
  00043	75 0b		 jne	 SHORT $LN84@Destroy

; 53   :                 _Ptr = _Pnode; // ==> parent while right subtree

  00045	8b f0		 mov	 esi, eax
  00047	8b 40 04	 mov	 eax, DWORD PTR [eax+4]
  0004a	80 78 0d 00	 cmp	 BYTE PTR [eax+13], 0
  0004e	74 f0		 je	 SHORT $LL27@Destroy
$LN84@Destroy:

; 54   :             }
; 55   : 
; 56   :             _Ptr = _Pnode; // ==> parent (head if end())

  00050	8b f0		 mov	 esi, eax

; 57   :         } else {

  00052	eb 18		 jmp	 SHORT $LN35@Destroy
$LN29@Destroy:

; 58   :             _Ptr = _Mytree::_Min(_Ptr->_Right); // ==> smallest of right subtree

  00054	8b f0		 mov	 esi, eax

; 476  :         while (!_Pnode->_Left->_Isnil) {

  00056	8b 0e		 mov	 ecx, DWORD PTR [esi]
  00058	80 79 0d 00	 cmp	 BYTE PTR [ecx+13], 0
  0005c	75 0e		 jne	 SHORT $LN35@Destroy
  0005e	66 90		 npad	 2
$LL34@Destroy:
  00060	8b 01		 mov	 eax, DWORD PTR [ecx]

; 477  :             _Pnode = _Pnode->_Left;

  00062	8b f1		 mov	 esi, ecx
  00064	8b c8		 mov	 ecx, eax
  00066	80 78 0d 00	 cmp	 BYTE PTR [eax+13], 0
  0006a	74 f4		 je	 SHORT $LL34@Destroy
$LN35@Destroy:

; 37   :     _Tree_unchecked_const_iterator(_Nodeptr _Pnode, const _Mytree* _Plist) noexcept : _Ptr(_Pnode) {

  0006c	8b 3b		 mov	 edi, DWORD PTR [ebx]

; 237  :         return !(*this == _Right);

  0006e	3b f7		 cmp	 esi, edi
; File C:\IAGOS\server\v18\Source\Source\_Common\Bone.cpp

; 217  : 	for( map<string, CBones*>::iterator i = m_mapBones.begin(); i != m_mapBones.end(); ++i )

  00070	75 9e		 jne	 SHORT $LL4@Destroy
$LN3@Destroy:
; File C:\Program Files\Microsoft Visual Studio\2022\Professional\VC\Tools\MSVC\14.44.35207\include\xtree

; 1374 :         _Scary->_Erase_tree(_Getal(), _Head->_Parent);

  00072	ff 77 04	 push	 DWORD PTR [edi+4]
  00075	8b cb		 mov	 ecx, ebx
  00077	53		 push	 ebx
  00078	e8 00 00 00 00	 call	 ??$_Erase_tree@V?$allocator@U?$_Tree_node@U?$pair@$$CBV?$basic_string@DU?$char_traits@D@std@@V?$allocator@D@2@@std@@PAVCBones@@@std@@PAX@std@@@std@@@?$_Tree_val@U?$_Tree_simple_types@U?$pair@$$CBV?$basic_string@DU?$char_traits@D@std@@V?$allocator@D@2@@std@@PAVCBones@@@std@@@std@@@std@@QAEXAAV?$allocator@U?$_Tree_node@U?$pair@$$CBV?$basic_string@DU?$char_traits@D@std@@V?$allocator@D@2@@std@@PAVCBones@@@std@@PAX@std@@@1@PAU?$_Tree_node@U?$pair@$$CBV?$basic_string@DU?$char_traits@D@std@@V?$allocator@D@2@@std@@PAVCBones@@@std@@PAX@1@@Z ; std::_Tree_val<std::_Tree_simple_types<std::pair<std::basic_string<char,std::char_traits<char>,std::allocator<char> > const ,CBones *> > >::_Erase_tree<std::allocator<std::_Tree_node<std::pair<std::basic_string<char,std::char_traits<char>,std::allocator<char> > const ,CBones *>,void *> > >

; 1375 :         _Head->_Parent  = _Head;

  0007d	89 7f 04	 mov	 DWORD PTR [edi+4], edi

; 1376 :         _Head->_Left    = _Head;

  00080	89 3f		 mov	 DWORD PTR [edi], edi

; 1377 :         _Head->_Right   = _Head;

  00082	89 7f 08	 mov	 DWORD PTR [edi+8], edi

; 1378 :         _Scary->_Mysize = 0;

  00085	5f		 pop	 edi
  00086	5e		 pop	 esi
  00087	c7 43 04 00 00
	00 00		 mov	 DWORD PTR [ebx+4], 0
  0008e	5b		 pop	 ebx
; File C:\IAGOS\server\v18\Source\Source\_Common\Bone.cpp

; 235  : }

  0008f	c3		 ret	 0
?Destroy@CBonesMng@@QAEXXZ ENDP				; CBonesMng::Destroy
_TEXT	ENDS
; Function compile flags: /Ogtp
; File C:\IAGOS\server\v18\Source\Source\_Common\Bone.cpp
;	COMDAT ?Init@CBonesMng@@QAEXXZ
_TEXT	SEGMENT
?Init@CBonesMng@@QAEXXZ PROC				; CBonesMng::Init, COMDAT
; _this$ = ecx

; 206  : #if __VER < 12 // __LEAK_0827
; 207  : 	int		i;
; 208  : 	m_nSize = 0;
; 209  : 	m_nMax = 0;
; 210  : 	for( i = 0; i < MAX_BONES; i ++ )	m_pBonesAry[i] = NULL;
; 211  : #endif	// __LEAK_0827
; 212  : }

  00000	c2 00 00	 ret	 0
?Init@CBonesMng@@QAEXXZ ENDP				; CBonesMng::Init
_TEXT	ENDS
; Function compile flags: /Ogtp
; File C:\IAGOS\server\v18\Source\Source\_Common\Bone.cpp
; File C:\Program Files\Microsoft Visual Studio\2022\Professional\VC\Tools\MSVC\14.44.35207\include\xtree
; File C:\Program Files\Microsoft Visual Studio\2022\Professional\VC\Tools\MSVC\14.44.35207\include\xmemory
; File C:\IAGOS\server\v18\Source\Source\_Common\Bone.cpp
;	COMDAT ??1CBonesMng@@QAE@XZ
_TEXT	SEGMENT
??1CBonesMng@@QAE@XZ PROC				; CBonesMng::~CBonesMng, COMDAT
; _this$ = ecx

; 199  : {

  00000	56		 push	 esi
  00001	8b f1		 mov	 esi, ecx

; 200  : 	Destroy();

  00003	e8 00 00 00 00	 call	 ?Destroy@CBonesMng@@QAEXXZ ; CBonesMng::Destroy
; File C:\Program Files\Microsoft Visual Studio\2022\Professional\VC\Tools\MSVC\14.44.35207\include\xtree

; 777  :         _Erase_tree(_Al, _Myhead->_Parent);

  00008	8b 06		 mov	 eax, DWORD PTR [esi]
  0000a	8b ce		 mov	 ecx, esi
  0000c	ff 70 04	 push	 DWORD PTR [eax+4]
  0000f	56		 push	 esi
