; Listing generated by Microsoft (R) Optimizing Compiler Version 19.44.35225.0 

	TITLE	C:\IAGOS\server\v18\Source\Output\WorldServer\Release\buff.obj
	.686P
	.XMM
	include listing.inc
	.model	flat

INCLUDELIB LIBCMT
INCLUDELIB OLDNAMES

CONST	SEGMENT
?piecewise_construct@std@@3Upiecewise_construct_t@1@B	ORG $+1 ; std::piecewise_construct
CONST	ENDS
PUBLIC	?__empty_global_delete@@YAXPAX@Z		; __empty_global_delete
PUBLIC	?__empty_global_delete@@YAXPAXI@Z		; __empty_global_delete
PUBLIC	?AtlThrowImpl@ATL@@YGXJ@Z			; ATL::AtlThrowImpl
PUBLIC	??1?$CSimpleStringT@D$0A@@ATL@@QAE@XZ		; ATL::CSimpleStringT<char,0>::~CSimpleStringT<char,0>
PUBLIC	?SetString@?$CSimpleStringT@D$0A@@ATL@@QAEXPBDH@Z ; ATL::CSimpleStringT<char,0>::SetString
PUBLIC	?ThrowMemoryException@?$CSimpleStringT@D$0A@@ATL@@KAXXZ ; ATL::CSimpleStringT<char,0>::ThrowMemoryException
PUBLIC	?Fork@?$CSimpleStringT@D$0A@@ATL@@AAEXH@Z	; ATL::CSimpleStringT<char,0>::Fork
PUBLIC	?PrepareWrite2@?$CSimpleStringT@D$0A@@ATL@@AAEXH@Z ; ATL::CSimpleStringT<char,0>::PrepareWrite2
PUBLIC	?Reallocate@?$CSimpleStringT@D$0A@@ATL@@AAEXH@Z	; ATL::CSimpleStringT<char,0>::Reallocate
PUBLIC	??1?$CStringT@DV?$StrTraitMFC@DV?$ChTraitsCRT@D@ATL@@@@@ATL@@QAE@XZ ; ATL::CStringT<char,StrTraitMFC<char,ATL::ChTraitsCRT<char> > >::~CStringT<char,StrTraitMFC<char,ATL::ChTraitsCRT<char> > >
PUBLIC	?Replace@?$CStringT@DV?$StrTraitMFC@DV?$ChTraitsCRT@D@ATL@@@@@ATL@@QAEHDD@Z ; ATL::CStringT<char,StrTraitMFC<char,ATL::ChTraitsCRT<char> > >::Replace
PUBLIC	?LoadStringA@?$CStringT@DV?$StrTraitMFC@DV?$ChTraitsCRT@D@ATL@@@@@ATL@@QAEHI@Z ; ATL::CStringT<char,StrTraitMFC<char,ATL::ChTraitsCRT<char> > >::LoadStringA
PUBLIC	??0exception@std@@QAE@ABV01@@Z			; std::exception::exception
PUBLIC	??1exception@std@@UAE@XZ			; std::exception::~exception
PUBLIC	?what@exception@std@@UBEPBDXZ			; std::exception::what
PUBLIC	??_Gexception@std@@UAEPAXI@Z			; std::exception::`scalar deleting destructor'
PUBLIC	??0bad_alloc@std@@QAE@ABV01@@Z			; std::bad_alloc::bad_alloc
PUBLIC	??_Gbad_alloc@std@@UAEPAXI@Z			; std::bad_alloc::`scalar deleting destructor'
PUBLIC	??0bad_array_new_length@std@@QAE@XZ		; std::bad_array_new_length::bad_array_new_length
PUBLIC	??1bad_array_new_length@std@@UAE@XZ		; std::bad_array_new_length::~bad_array_new_length
PUBLIC	??0bad_array_new_length@std@@QAE@ABV01@@Z	; std::bad_array_new_length::bad_array_new_length
PUBLIC	??_Gbad_array_new_length@std@@UAEPAXI@Z		; std::bad_array_new_length::`scalar deleting destructor'
PUBLIC	?_Throw_bad_array_new_length@std@@YAXXZ		; std::_Throw_bad_array_new_length
PUBLIC	?_Throw_tree_length_error@std@@YAXXZ		; std::_Throw_tree_length_error
PUBLIC	??1?$vector@JV?$allocator@J@std@@@std@@QAE@XZ	; std::vector<long,std::allocator<long> >::~vector<long,std::allocator<long> >
PUBLIC	?_Xlength@?$vector@JV?$allocator@J@std@@@std@@CAXXZ ; std::vector<long,std::allocator<long> >::_Xlength
PUBLIC	??0IBuff@@QAE@XZ				; IBuff::IBuff
PUBLIC	??1IBuff@@UAE@XZ				; IBuff::~IBuff
PUBLIC	?SetTotal@IBuff@@QAEXK@Z			; IBuff::SetTotal
PUBLIC	?Serialize@IBuff@@UAEXAAVCAr@@PAVCMover@@@Z	; IBuff::Serialize
PUBLIC	?SerializeLevel@IBuff@@UAEXAAVCAr@@@Z		; IBuff::SerializeLevel
PUBLIC	??4IBuff@@UAEAAV0@ABV0@@Z			; IBuff::operator=
PUBLIC	?GetRemain@IBuff@@QAEKXZ			; IBuff::GetRemain
PUBLIC	?Process@IBuff@@UAEHPAVCMover@@K@Z		; IBuff::Process
PUBLIC	?IsIk1@IBuff@@UAEHK@Z				; IBuff::IsIk1
PUBLIC	?IsIk3@IBuff@@UAEHK@Z				; IBuff::IsIk3
PUBLIC	?IsAddable@IBuff@@UAEHPAVCMover@@@Z		; IBuff::IsAddable
PUBLIC	?AddTotal@IBuff@@UAEXK@Z			; IBuff::AddTotal
PUBLIC	?GetPropA@IBuff@@UAEPAUItemProp@@XZ		; IBuff::GetPropA
PUBLIC	?Release@IBuff@@UAEXPAVCBuffMgr@@@Z		; IBuff::Release
PUBLIC	?IsRemovable@IBuff@@UAEHPAVCMover@@@Z		; IBuff::IsRemovable
PUBLIC	?GetDisguise@IBuff@@UAEKXZ			; IBuff::GetDisguise
PUBLIC	?IsCommon@IBuff@@UAEHXZ				; IBuff::IsCommon
PUBLIC	?IsGood@IBuff@@UAEHPAVCMover@@@Z		; IBuff::IsGood
PUBLIC	?HasDstParam@IBuff@@UAEHPAVCMover@@K@Z		; IBuff::HasDstParam
PUBLIC	?HasChrState@IBuff@@UAEHPAVCMover@@K@Z		; IBuff::HasChrState
PUBLIC	?IsDebuf@IBuff@@UAEHPAVCMover@@@Z		; IBuff::IsDebuf
PUBLIC	?IsAttacker@IBuff@@UAEHPAVCMover@@K@Z		; IBuff::IsAttacker
PUBLIC	?IsInvalid@IBuff@@MAEHPAVCMover@@@Z		; IBuff::IsInvalid
PUBLIC	?Apply@IBuff@@MAEXPAVCMover@@@Z			; IBuff::Apply
PUBLIC	?Timeover@IBuff@@MAEHPAVCMover@@K@Z		; IBuff::Timeover
PUBLIC	?Expire@IBuff@@AAEHPAVCMover@@K@Z		; IBuff::Expire
PUBLIC	?OnExpire@IBuff@@UAEXPAVCMover@@@Z		; IBuff::OnExpire
PUBLIC	??_GIBuff@@UAEPAXI@Z				; IBuff::`scalar deleting destructor'
PUBLIC	??1IBuffItemBase@@UAE@XZ			; IBuffItemBase::~IBuffItemBase
PUBLIC	?GetPropA@IBuffItemBase@@UAEPAUItemProp@@XZ	; IBuffItemBase::GetPropA
PUBLIC	?Release@IBuffItemBase@@UAEXPAVCBuffMgr@@@Z	; IBuffItemBase::Release
PUBLIC	?IsCommon@IBuffItemBase@@UAEHXZ			; IBuffItemBase::IsCommon
PUBLIC	?HasChrState@IBuffItemBase@@UAEHPAVCMover@@K@Z	; IBuffItemBase::HasChrState
PUBLIC	?IsDebuf@IBuffItemBase@@UAEHPAVCMover@@@Z	; IBuffItemBase::IsDebuf
PUBLIC	??_GIBuffItemBase@@UAEPAXI@Z			; IBuffItemBase::`scalar deleting destructor'
PUBLIC	??1CBuffItem@@UAE@XZ				; CBuffItem::~CBuffItem
PUBLIC	?AddTotal@CBuffItem@@UAEXK@Z			; CBuffItem::AddTotal
PUBLIC	?IsRemovable@CBuffItem@@UAEHPAVCMover@@@Z	; CBuffItem::IsRemovable
PUBLIC	?GetDisguise@CBuffItem@@UAEKXZ			; CBuffItem::GetDisguise
PUBLIC	?IsIk1@CBuffItem@@UAEHK@Z			; CBuffItem::IsIk1
PUBLIC	?IsIk3@CBuffItem@@UAEHK@Z			; CBuffItem::IsIk3
PUBLIC	?Apply@CBuffItem@@MAEXPAVCMover@@@Z		; CBuffItem::Apply
PUBLIC	?OnExpire@CBuffItem@@UAEXPAVCMover@@@Z		; CBuffItem::OnExpire
PUBLIC	??_GCBuffItem@@UAEPAXI@Z			; CBuffItem::`scalar deleting destructor'
PUBLIC	??1CBuffSkill@@UAE@XZ				; CBuffSkill::~CBuffSkill
PUBLIC	?GetPropA@CBuffSkill@@UAEPAUItemProp@@XZ	; CBuffSkill::GetPropA
PUBLIC	?IsAddable@CBuffSkill@@UAEHPAVCMover@@@Z	; CBuffSkill::IsAddable
PUBLIC	?Release@CBuffSkill@@UAEXPAVCBuffMgr@@@Z	; CBuffSkill::Release
PUBLIC	?IsRemovable@CBuffSkill@@UAEHPAVCMover@@@Z	; CBuffSkill::IsRemovable
PUBLIC	?IsGood@CBuffSkill@@UAEHPAVCMover@@@Z		; CBuffSkill::IsGood
PUBLIC	?HasDstParam@CBuffSkill@@UAEHPAVCMover@@K@Z	; CBuffSkill::HasDstParam
PUBLIC	?HasChrState@CBuffSkill@@UAEHPAVCMover@@K@Z	; CBuffSkill::HasChrState
PUBLIC	?IsDebuf@CBuffSkill@@UAEHPAVCMover@@@Z		; CBuffSkill::IsDebuf
PUBLIC	?IsAttacker@CBuffSkill@@UAEHPAVCMover@@K@Z	; CBuffSkill::IsAttacker
PUBLIC	?IsInvalid@CBuffSkill@@MAEHPAVCMover@@@Z	; CBuffSkill::IsInvalid
PUBLIC	?Apply@CBuffSkill@@MAEXPAVCMover@@@Z		; CBuffSkill::Apply
PUBLIC	?OnExpire@CBuffSkill@@UAEXPAVCMover@@@Z		; CBuffSkill::OnExpire
PUBLIC	??_GCBuffSkill@@UAEPAXI@Z			; CBuffSkill::`scalar deleting destructor'
PUBLIC	??1CBuffPet@@UAE@XZ				; CBuffPet::~CBuffPet
PUBLIC	?IsRemovable@CBuffPet@@UAEHPAVCMover@@@Z	; CBuffPet::IsRemovable
PUBLIC	?IsCommon@CBuffPet@@UAEHXZ			; CBuffPet::IsCommon
PUBLIC	?Apply@CBuffPet@@MAEXPAVCMover@@@Z		; CBuffPet::Apply
PUBLIC	?Release@CBuffPet@@MAEXPAVCBuffMgr@@@Z		; CBuffPet::Release
PUBLIC	??_GCBuffPet@@UAEPAXI@Z				; CBuffPet::`scalar deleting destructor'
PUBLIC	??1CBuffItem2@@UAE@XZ				; CBuffItem2::~CBuffItem2
PUBLIC	?SerializeLevel@CBuffItem2@@UAEXAAVCAr@@@Z	; CBuffItem2::SerializeLevel
PUBLIC	?Timeover@CBuffItem2@@UAEHPAVCMover@@K@Z	; CBuffItem2::Timeover
PUBLIC	??_GCBuffItem2@@UAEPAXI@Z			; CBuffItem2::`scalar deleting destructor'
PUBLIC	??1CBuffEquip@@UAE@XZ				; CBuffEquip::~CBuffEquip
PUBLIC	?IsRemovable@CBuffEquip@@UAEHPAVCMover@@@Z	; CBuffEquip::IsRemovable
PUBLIC	?IsCommon@CBuffEquip@@UAEHXZ			; CBuffEquip::IsCommon
PUBLIC	??_GCBuffEquip@@UAEPAXI@Z			; CBuffEquip::`scalar deleting destructor'
PUBLIC	??0CBuffMgr@@QAE@PAVCMover@@@Z			; CBuffMgr::CBuffMgr
PUBLIC	??1CBuffMgr@@UAE@XZ				; CBuffMgr::~CBuffMgr
PUBLIC	?Clear@CBuffMgr@@QAEXXZ				; CBuffMgr::Clear
PUBLIC	?Serialize@CBuffMgr@@QAEXAAVCAr@@@Z		; CBuffMgr::Serialize
PUBLIC	??4CBuffMgr@@QAEAAV0@AAV0@@Z			; CBuffMgr::operator=
PUBLIC	?CreateBuff@CBuffMgr@@UAEPAVIBuff@@G@Z		; CBuffMgr::CreateBuff
PUBLIC	?GetTickCount@CBuffMgr@@MAEKXZ			; CBuffMgr::GetTickCount
PUBLIC	?Add@CBuffMgr@@AAE_NPAVIBuff@@@Z		; CBuffMgr::Add
PUBLIC	?Process@CBuffMgr@@QAEXXZ			; CBuffMgr::Process
PUBLIC	?HasBuff@CBuffMgr@@QAEHGG@Z			; CBuffMgr::HasBuff
PUBLIC	?RemoveBuff@CBuffMgr@@QAEXPAVIBuff@@H@Z		; CBuffMgr::RemoveBuff
PUBLIC	?RemoveBuff@CBuffMgr@@QAEXGGH@Z			; CBuffMgr::RemoveBuff
PUBLIC	?HasBuffByIk3@CBuffMgr@@QAEHK@Z			; CBuffMgr::HasBuffByIk3
PUBLIC	?RemoveBuffPet@CBuffMgr@@QAEXXZ			; CBuffMgr::RemoveBuffPet
PUBLIC	?GetBuffPet@CBuffMgr@@QAEPAVIBuff@@XZ		; CBuffMgr::GetBuffPet
PUBLIC	?GetBuff@CBuffMgr@@QAEPAVIBuff@@GG@Z		; CBuffMgr::GetBuff
PUBLIC	?GetBuffByIk3@CBuffMgr@@QAEPAVIBuff@@K@Z	; CBuffMgr::GetBuffByIk3
PUBLIC	?RemoveBuffs@CBuffMgr@@QAEXKK@Z			; CBuffMgr::RemoveBuffs
PUBLIC	?GetDisguise@CBuffMgr@@QAEKXZ			; CBuffMgr::GetDisguise
PUBLIC	?AddBuff@CBuffMgr@@QAEHGGKKK@Z			; CBuffMgr::AddBuff
PUBLIC	?AddBuff@CBuffMgr@@IAEHPAVIBuff@@@Z		; CBuffMgr::AddBuff
PUBLIC	?Overwrite@CBuffMgr@@AAEHPAVIBuff@@@Z		; CBuffMgr::Overwrite
PUBLIC	?PrepareBS@CBuffMgr@@AAEXPAVIBuff@@@Z		; CBuffMgr::PrepareBS
PUBLIC	?IsBSFull@CBuffMgr@@AAEHXZ			; CBuffMgr::IsBSFull
PUBLIC	?GetFirstBS@CBuffMgr@@AAEPAVIBuff@@XZ		; CBuffMgr::GetFirstBS
PUBLIC	?RemoveBuffPet@CBuffMgr@@QAEXPAVIBuff@@@Z	; CBuffMgr::RemoveBuffPet
PUBLIC	??1?$_Tree@V?$_Tmap_traits@KPAVIBuff@@U?$less@K@std@@V?$allocator@U?$pair@$$CBKPAVIBuff@@@std@@@3@$0A@@std@@@std@@QAE@XZ ; std::_Tree<std::_Tmap_traits<unsigned long,IBuff *,std::less<unsigned long>,std::allocator<std::pair<unsigned long const ,IBuff *> >,0> >::~_Tree<std::_Tmap_traits<unsigned long,IBuff *,std::less<unsigned long>,std::allocator<std::pair<unsigned long const ,IBuff *> >,0> >
PUBLIC	?clear@?$_Tree@V?$_Tmap_traits@KPAVIBuff@@U?$less@K@std@@V?$allocator@U?$pair@$$CBKPAVIBuff@@@std@@@3@$0A@@std@@@std@@QAEXXZ ; std::_Tree<std::_Tmap_traits<unsigned long,IBuff *,std::less<unsigned long>,std::allocator<std::pair<unsigned long const ,IBuff *> >,0> >::clear
PUBLIC	?_Lrotate@?$_Tree_val@U?$_Tree_simple_types@U?$pair@$$CBKPAVIBuff@@@std@@@std@@@std@@QAEXPAU?$_Tree_node@U?$pair@$$CBKPAVIBuff@@@std@@PAX@2@@Z ; std::_Tree_val<std::_Tree_simple_types<std::pair<unsigned long const ,IBuff *> > >::_Lrotate
PUBLIC	?_Rrotate@?$_Tree_val@U?$_Tree_simple_types@U?$pair@$$CBKPAVIBuff@@@std@@@std@@@std@@QAEXPAU?$_Tree_node@U?$pair@$$CBKPAVIBuff@@@std@@PAX@2@@Z ; std::_Tree_val<std::_Tree_simple_types<std::pair<unsigned long const ,IBuff *> > >::_Rrotate
PUBLIC	?_Extract@?$_Tree_val@U?$_Tree_simple_types@U?$pair@$$CBKPAVIBuff@@@std@@@std@@@std@@QAEPAU?$_Tree_node@U?$pair@$$CBKPAVIBuff@@@std@@PAX@2@V?$_Tree_unchecked_const_iterator@V?$_Tree_val@U?$_Tree_simple_types@U?$pair@$$CBKPAVIBuff@@@std@@@std@@@std@@U_Iterator_base0@2@@2@@Z ; std::_Tree_val<std::_Tree_simple_types<std::pair<unsigned long const ,IBuff *> > >::_Extract
PUBLIC	?_Insert_node@?$_Tree_val@U?$_Tree_simple_types@U?$pair@$$CBKPAVIBuff@@@std@@@std@@@std@@QAEPAU?$_Tree_node@U?$pair@$$CBKPAVIBuff@@@std@@PAX@2@U?$_Tree_id@PAU?$_Tree_node@U?$pair@$$CBKPAVIBuff@@@std@@PAX@std@@@2@QAU32@@Z ; std::_Tree_val<std::_Tree_simple_types<std::pair<unsigned long const ,IBuff *> > >::_Insert_node
PUBLIC	?GetRemoveBuffSize@CBuffMgr@@AAEIXZ		; CBuffMgr::GetRemoveBuffSize
PUBLIC	??_GCBuffMgr@@UAEPAXI@Z				; CBuffMgr::`scalar deleting destructor'
PUBLIC	??E?$_Tree_unchecked_const_iterator@V?$_Tree_val@U?$_Tree_simple_types@U?$pair@$$CBKPAVIBuff@@@std@@@std@@@std@@U_Iterator_base0@2@@std@@QAEAAV01@XZ ; std::_Tree_unchecked_const_iterator<std::_Tree_val<std::_Tree_simple_types<std::pair<unsigned long const ,IBuff *> > >,std::_Iterator_base0>::operator++
PUBLIC	??$_Find_lower_bound@K@?$_Tree@V?$_Tmap_traits@KPAVIBuff@@U?$less@K@std@@V?$allocator@U?$pair@$$CBKPAVIBuff@@@std@@@3@$0A@@std@@@std@@IBE?AU?$_Tree_find_result@PAU?$_Tree_node@U?$pair@$$CBKPAVIBuff@@@std@@PAX@std@@@1@ABK@Z ; std::_Tree<std::_Tmap_traits<unsigned long,IBuff *,std::less<unsigned long>,std::allocator<std::pair<unsigned long const ,IBuff *> >,0> >::_Find_lower_bound<unsigned long>
PUBLIC	??1?$_Alloc_construct_ptr@V?$allocator@U?$_Tree_node@U?$pair@$$CBKPAVIBuff@@@std@@PAX@std@@@std@@@std@@QAE@XZ ; std::_Alloc_construct_ptr<std::allocator<std::_Tree_node<std::pair<unsigned long const ,IBuff *>,void *> > >::~_Alloc_construct_ptr<std::allocator<std::_Tree_node<std::pair<unsigned long const ,IBuff *>,void *> > >
PUBLIC	??$_Copy_memmove@PAJPAJ@std@@YAPAJPAJ00@Z	; std::_Copy_memmove<long *,long *>
PUBLIC	??$_Copy_memmove_tail@PAJ@std@@YAPAJQBDQAJII@Z	; std::_Copy_memmove_tail<long *>
PUBLIC	??$_Allocate_manually_vector_aligned@U_Default_allocate_traits@std@@@std@@YAPAXI@Z ; std::_Allocate_manually_vector_aligned<std::_Default_allocate_traits>
PUBLIC	??$?6G@CAr@@QAEAAV0@ABG@Z			; CAr::operator<<<unsigned short>
PUBLIC	??$?5G@CAr@@QAEAAV0@AAG@Z			; CAr::operator>><unsigned short>
PUBLIC	??$?6I@CAr@@QAEAAV0@ABI@Z			; CAr::operator<<<unsigned int>
PUBLIC	??$?6K@CAr@@QAEAAV0@ABK@Z			; CAr::operator<<<unsigned long>
PUBLIC	??$?6J@CAr@@QAEAAV0@ABJ@Z			; CAr::operator<<<long>
PUBLIC	??$?5K@CAr@@QAEAAV0@AAK@Z			; CAr::operator>><unsigned long>
PUBLIC	??$?5J@CAr@@QAEAAV0@AAJ@Z			; CAr::operator>><long>
PUBLIC	??$?5I@CAr@@QAEAAV0@AAI@Z			; CAr::operator>><unsigned int>
PUBLIC	??$_Erase_tree@V?$allocator@U?$_Tree_node@U?$pair@$$CBKPAVIBuff@@@std@@PAX@std@@@std@@@?$_Tree_val@U?$_Tree_simple_types@U?$pair@$$CBKPAVIBuff@@@std@@@std@@@std@@QAEXAAV?$allocator@U?$_Tree_node@U?$pair@$$CBKPAVIBuff@@@std@@PAX@std@@@1@PAU?$_Tree_node@U?$pair@$$CBKPAVIBuff@@@std@@PAX@1@@Z ; std::_Tree_val<std::_Tree_simple_types<std::pair<unsigned long const ,IBuff *> > >::_Erase_tree<std::allocator<std::_Tree_node<std::pair<unsigned long const ,IBuff *>,void *> > >
PUBLIC	??$_Emplace_reallocate@J@?$vector@JV?$allocator@J@std@@@std@@AAEPAJQAJ$$QAJ@Z ; std::vector<long,std::allocator<long> >::_Emplace_reallocate<long>
PUBLIC	??_C@_00CNPNBAHC@@				; `string'
PUBLIC	??_7exception@std@@6B@				; std::exception::`vftable'
PUBLIC	??_C@_0BC@EOODALEL@Unknown?5exception@		; `string'
PUBLIC	??_7bad_alloc@std@@6B@				; std::bad_alloc::`vftable'
PUBLIC	??_7bad_array_new_length@std@@6B@		; std::bad_array_new_length::`vftable'
PUBLIC	??_C@_0BF@KINCDENJ@bad?5array?5new?5length@	; `string'
PUBLIC	??_R0?AVexception@std@@@8			; std::exception `RTTI Type Descriptor'
PUBLIC	__CT??_R0?AVexception@std@@@8??0exception@std@@QAE@ABV01@@Z12
PUBLIC	__TI3?AVbad_array_new_length@std@@
PUBLIC	__CTA3?AVbad_array_new_length@std@@
PUBLIC	??_R0?AVbad_array_new_length@std@@@8		; std::bad_array_new_length `RTTI Type Descriptor'
PUBLIC	__CT??_R0?AVbad_array_new_length@std@@@8??0bad_array_new_length@std@@QAE@ABV01@@Z12
PUBLIC	??_R0?AVbad_alloc@std@@@8			; std::bad_alloc `RTTI Type Descriptor'
PUBLIC	__CT??_R0?AVbad_alloc@std@@@8??0bad_alloc@std@@QAE@ABV01@@Z12
PUBLIC	??_C@_0BB@GCADKGJO@map?1set?5too?5long@		; `string'
PUBLIC	??_C@_0BM@HMFGHCP@?$CFs?5min?3?$CFd?0?5max?3?$CFd?0?5index?3?$CFd@ ; `string'
PUBLIC	??_C@_0BI@BEIFNGEL@GetItemProp?5range_error@	; `string'
PUBLIC	??_C@_0BJ@GPNGCFMK@GetSkillProp?5range_error@	; `string'
PUBLIC	??_C@_0BJ@GKPOBPPI@GetMoverProp?5range_error@	; `string'
PUBLIC	??_7IBuff@@6B@					; IBuff::`vftable'
PUBLIC	??_7IBuffItemBase@@6B@				; IBuffItemBase::`vftable'
PUBLIC	??_7CBuffItem@@6B@				; CBuffItem::`vftable'
PUBLIC	??_7CBuffSkill@@6B@				; CBuffSkill::`vftable'
PUBLIC	??_7CBuffPet@@6B@				; CBuffPet::`vftable'
PUBLIC	??_7CBuffItem2@@6B@				; CBuffItem2::`vftable'
PUBLIC	??_7CBuffEquip@@6B@				; CBuffEquip::`vftable'
PUBLIC	??_7CBuffMgr@@6B@				; CBuffMgr::`vftable'
PUBLIC	??_C@_0BA@FOIKENOD@vector?5too?5long@		; `string'
PUBLIC	??_R4exception@std@@6B@				; std::exception::`RTTI Complete Object Locator'
PUBLIC	??_R3exception@std@@8				; std::exception::`RTTI Class Hierarchy Descriptor'
PUBLIC	??_R2exception@std@@8				; std::exception::`RTTI Base Class Array'
PUBLIC	??_R1A@?0A@EA@exception@std@@8			; std::exception::`RTTI Base Class Descriptor at (0,-1,0,64)'
PUBLIC	??_R4bad_array_new_length@std@@6B@		; std::bad_array_new_length::`RTTI Complete Object Locator'
PUBLIC	??_R3bad_array_new_length@std@@8		; std::bad_array_new_length::`RTTI Class Hierarchy Descriptor'
PUBLIC	??_R2bad_array_new_length@std@@8		; std::bad_array_new_length::`RTTI Base Class Array'
PUBLIC	??_R1A@?0A@EA@bad_array_new_length@std@@8	; std::bad_array_new_length::`RTTI Base Class Descriptor at (0,-1,0,64)'
PUBLIC	??_R1A@?0A@EA@bad_alloc@std@@8			; std::bad_alloc::`RTTI Base Class Descriptor at (0,-1,0,64)'
PUBLIC	??_R3bad_alloc@std@@8				; std::bad_alloc::`RTTI Class Hierarchy Descriptor'
PUBLIC	??_R2bad_alloc@std@@8				; std::bad_alloc::`RTTI Base Class Array'
PUBLIC	??_R4bad_alloc@std@@6B@				; std::bad_alloc::`RTTI Complete Object Locator'
PUBLIC	??_R4IBuff@@6B@					; IBuff::`RTTI Complete Object Locator'
PUBLIC	??_R0?AVIBuff@@@8				; IBuff `RTTI Type Descriptor'
PUBLIC	??_R3IBuff@@8					; IBuff::`RTTI Class Hierarchy Descriptor'
PUBLIC	??_R2IBuff@@8					; IBuff::`RTTI Base Class Array'
PUBLIC	??_R1A@?0A@EA@IBuff@@8				; IBuff::`RTTI Base Class Descriptor at (0,-1,0,64)'
PUBLIC	??_R4IBuffItemBase@@6B@				; IBuffItemBase::`RTTI Complete Object Locator'
PUBLIC	??_R0?AVIBuffItemBase@@@8			; IBuffItemBase `RTTI Type Descriptor'
PUBLIC	??_R3IBuffItemBase@@8				; IBuffItemBase::`RTTI Class Hierarchy Descriptor'
PUBLIC	??_R2IBuffItemBase@@8				; IBuffItemBase::`RTTI Base Class Array'
PUBLIC	??_R1A@?0A@EA@IBuffItemBase@@8			; IBuffItemBase::`RTTI Base Class Descriptor at (0,-1,0,64)'
PUBLIC	??_R4CBuffItem@@6B@				; CBuffItem::`RTTI Complete Object Locator'
PUBLIC	??_R0?AVCBuffItem@@@8				; CBuffItem `RTTI Type Descriptor'
PUBLIC	??_R3CBuffItem@@8				; CBuffItem::`RTTI Class Hierarchy Descriptor'
PUBLIC	??_R2CBuffItem@@8				; CBuffItem::`RTTI Base Class Array'
PUBLIC	??_R1A@?0A@EA@CBuffItem@@8			; CBuffItem::`RTTI Base Class Descriptor at (0,-1,0,64)'
PUBLIC	??_R4CBuffSkill@@6B@				; CBuffSkill::`RTTI Complete Object Locator'
PUBLIC	??_R0?AVCBuffSkill@@@8				; CBuffSkill `RTTI Type Descriptor'
PUBLIC	??_R3CBuffSkill@@8				; CBuffSkill::`RTTI Class Hierarchy Descriptor'
PUBLIC	??_R2CBuffSkill@@8				; CBuffSkill::`RTTI Base Class Array'
PUBLIC	??_R1A@?0A@EA@CBuffSkill@@8			; CBuffSkill::`RTTI Base Class Descriptor at (0,-1,0,64)'
PUBLIC	??_R4CBuffPet@@6B@				; CBuffPet::`RTTI Complete Object Locator'
PUBLIC	??_R0?AVCBuffPet@@@8				; CBuffPet `RTTI Type Descriptor'
PUBLIC	??_R3CBuffPet@@8				; CBuffPet::`RTTI Class Hierarchy Descriptor'
PUBLIC	??_R2CBuffPet@@8				; CBuffPet::`RTTI Base Class Array'
PUBLIC	??_R1A@?0A@EA@CBuffPet@@8			; CBuffPet::`RTTI Base Class Descriptor at (0,-1,0,64)'
PUBLIC	??_R4CBuffItem2@@6B@				; CBuffItem2::`RTTI Complete Object Locator'
PUBLIC	??_R0?AVCBuffItem2@@@8				; CBuffItem2 `RTTI Type Descriptor'
PUBLIC	??_R3CBuffItem2@@8				; CBuffItem2::`RTTI Class Hierarchy Descriptor'
PUBLIC	??_R2CBuffItem2@@8				; CBuffItem2::`RTTI Base Class Array'
PUBLIC	??_R1A@?0A@EA@CBuffItem2@@8			; CBuffItem2::`RTTI Base Class Descriptor at (0,-1,0,64)'
PUBLIC	??_R4CBuffEquip@@6B@				; CBuffEquip::`RTTI Complete Object Locator'
PUBLIC	??_R0?AVCBuffEquip@@@8				; CBuffEquip `RTTI Type Descriptor'
PUBLIC	??_R3CBuffEquip@@8				; CBuffEquip::`RTTI Class Hierarchy Descriptor'
PUBLIC	??_R2CBuffEquip@@8				; CBuffEquip::`RTTI Base Class Array'
PUBLIC	??_R1A@?0A@EA@CBuffEquip@@8			; CBuffEquip::`RTTI Base Class Descriptor at (0,-1,0,64)'
PUBLIC	??_C@_01KMDKNFGN@?1@				; `string'
PUBLIC	??_C@_0L@LGANLGGI@BuffToGift@			; `string'
PUBLIC	??_C@_01JEJKBAGA@g@				; `string'
PUBLIC	??_C@_0BA@JAHGEPOA@BuffToGift_Post@		; `string'
PUBLIC	??_C@_04INBMAKPJ@?1dis@				; `string'
PUBLIC	??_C@_01FDFGLJHB@2@				; `string'
PUBLIC	??_C@_0BB@CAGKBMEO@CBuffSkill?4Apply@		; `string'
PUBLIC	??_C@_0BH@LADPBEID@CBuffSkill?4IsRemovable@	; `string'
PUBLIC	??_C@_0BC@DMLBIAFL@CBuffSkill?4IsGood@		; `string'
PUBLIC	??_C@_0BH@DNHMJEBK@CBuffSkill?4HasChrState@	; `string'
PUBLIC	??_C@_0BH@KFBAJICK@CBuffSkill?4HasDstParam@	; `string'
PUBLIC	??_C@_0BD@OMIIIOEI@CBuffSkill?4IsDebuf@		; `string'
PUBLIC	??_C@_0BG@CJPHBCAN@CBuffSkill?4IsAttacker@	; `string'
PUBLIC	??_C@_0DH@HIFEKJCC@CBuffMgr?4RemoveBuff?3?5could?5not?5@ ; `string'
PUBLIC	??_R4CBuffMgr@@6B@				; CBuffMgr::`RTTI Complete Object Locator'
PUBLIC	??_R0?AVCBuffMgr@@@8				; CBuffMgr `RTTI Type Descriptor'
PUBLIC	??_R3CBuffMgr@@8				; CBuffMgr::`RTTI Class Hierarchy Descriptor'
PUBLIC	??_R2CBuffMgr@@8				; CBuffMgr::`RTTI Base Class Array'
PUBLIC	??_R1A@?0A@EA@CBuffMgr@@8			; CBuffMgr::`RTTI Base Class Descriptor at (0,-1,0,64)'
EXTRN	??2@YAPAXI@Z:PROC				; operator new
EXTRN	??3@YAXPAXI@Z:PROC				; operator delete
EXTRN	__invalid_parameter_noinfo:PROC
EXTRN	__invoke_watson:PROC
EXTRN	__errno:PROC
EXTRN	_strstr:PROC
EXTRN	_strncpy:PROC
EXTRN	__imp__LoadResource@8:PROC
EXTRN	__imp__LockResource@4:PROC
EXTRN	__imp__SizeofResource@8:PROC
EXTRN	__imp__FindResourceW@12:PROC
EXTRN	__imp__WideCharToMultiByte@32:PROC
EXTRN	__mbsinc:PROC
EXTRN	__mbsstr:PROC
EXTRN	_atoi:PROC
EXTRN	?AfxThrowMemoryException@@YGXXZ:PROC		; AfxThrowMemoryException
EXTRN	?AfxThrowOleException@@YGXJ@Z:PROC		; AfxThrowOleException
EXTRN	?AfxFindStringResourceHandle@@YGPAUHINSTANCE__@@I@Z:PROC ; AfxFindStringResourceHandle
EXTRN	?AfxGetStringManager@@YGPAUIAtlStringMgr@ATL@@XZ:PROC ; AfxGetStringManager
EXTRN	___std_exception_copy:PROC
EXTRN	___std_exception_destroy:PROC
EXTRN	??_Eexception@std@@UAEPAXI@Z:PROC		; std::exception::`vector deleting destructor'
EXTRN	??_Ebad_alloc@std@@UAEPAXI@Z:PROC		; std::bad_alloc::`vector deleting destructor'
EXTRN	??_Ebad_array_new_length@std@@UAEPAXI@Z:PROC	; std::bad_array_new_length::`vector deleting destructor'
EXTRN	?_Xlength_error@std@@YAXPBD@Z:PROC		; std::_Xlength_error
EXTRN	__imp__timeGetTime@0:PROC
EXTRN	?ParsingCommand@@YAHPBDPAVCMover@@H@Z:PROC	; ParsingCommand
EXTRN	?xRandom@@YAKKK@Z:PROC				; xRandom
EXTRN	?Error@@YAPBDPBDZZ:PROC				; Error
EXTRN	?SetSerialNumber@CItemBase@@QAEXXZ:PROC		; CItemBase::SetSerialNumber
EXTRN	??0CItemElem@@QAE@XZ:PROC			; CItemElem::CItemElem
EXTRN	??1CItemElem@@UAE@XZ:PROC			; CItemElem::~CItemElem
EXTRN	?CheckBuf@CAr@@QAEXI@Z:PROC			; CAr::CheckBuf
EXTRN	??_EIBuff@@UAEPAXI@Z:PROC			; IBuff::`vector deleting destructor'
EXTRN	??_EIBuffItemBase@@UAEPAXI@Z:PROC		; IBuffItemBase::`vector deleting destructor'
EXTRN	??_ECBuffItem@@UAEPAXI@Z:PROC			; CBuffItem::`vector deleting destructor'
EXTRN	??_ECBuffSkill@@UAEPAXI@Z:PROC			; CBuffSkill::`vector deleting destructor'
EXTRN	??_ECBuffPet@@UAEPAXI@Z:PROC			; CBuffPet::`vector deleting destructor'
EXTRN	??_ECBuffItem2@@UAEPAXI@Z:PROC			; CBuffItem2::`vector deleting destructor'
EXTRN	??_ECBuffEquip@@UAEPAXI@Z:PROC			; CBuffEquip::`vector deleting destructor'
EXTRN	??_ECBuffMgr@@UAEPAXI@Z:PROC			; CBuffMgr::`vector deleting destructor'
EXTRN	?GetPetItem@CMover@@QAEPAVCItemElem@@XZ:PROC	; CMover::GetPetItem
EXTRN	?GetActiveHandItemProp@CMover@@QAEPAUItemProp@@H@Z:PROC ; CMover::GetActiveHandItemProp
EXTRN	?GetWeaponItem@CMover@@QAEPAVCItemElem@@H@Z:PROC ; CMover::GetWeaponItem
EXTRN	?GetLWeaponItem@CMover@@QAEPAVCItemElem@@XZ:PROC ; CMover::GetLWeaponItem
EXTRN	?IsDualWeapon@CMover@@QAEHXZ:PROC		; CMover::IsDualWeapon
EXTRN	?SetDestParam@CMover@@QAEXHHHH@Z:PROC		; CMover::SetDestParam
EXTRN	?ResetDestParam@CMover@@QAEXHHH@Z:PROC		; CMover::ResetDestParam
EXTRN	?GetAdjParam@CMover@@QAEHH@Z:PROC		; CMover::GetAdjParam
EXTRN	?OnEndSkillState@CMover@@QAEXKK@Z:PROC		; CMover::OnEndSkillState
EXTRN	?ResetDestParamRandomOptExtension@CMover@@QAEXPAVCItemElem@@@Z:PROC ; CMover::ResetDestParamRandomOptExtension
EXTRN	?ApplyParam@CMover@@QAEHPAVCCtrl@@PAUItemProp@@PAUAddSkillProp@@HH@Z:PROC ; CMover::ApplyParam
EXTRN	?CreateItem@CMover@@QAEHPAVCItemBase@@PAEPAFE@Z:PROC ; CMover::CreateItem
EXTRN	?AddSetSkillState@CUserMng@@QAEXPAVCMover@@0GGKK@Z:PROC ; CUserMng::AddSetSkillState
EXTRN	?AddCreateSfxObj@CUserMng@@QAEXPAVCCtrl@@KMMMH@Z:PROC ; CUserMng::AddCreateSfxObj
EXTRN	?AddRemoveSkillInfluence@CUserMng@@QAEXPAVCMover@@GG@Z:PROC ; CUserMng::AddRemoveSkillInfluence
EXTRN	?SendLogSMItemUse@CDPDatabaseClient@@QAEXPBDPAVCUser@@PAVCItemElem@@PAUItemProp@@0@Z:PROC ; CDPDatabaseClient::SendLogSMItemUse
EXTRN	?SendQueryPostMail@CDPDatabaseClient@@QAEXKKAAVCItemElem@@HPAD1@Z:PROC ; CDPDatabaseClient::SendQueryPostMail
EXTRN	?PutItemLog@CDPSrvr@@QAEXPAVCUser@@PBD1PAVCItemElem@@H@Z:PROC ; CDPSrvr::PutItemLog
EXTRN	@__security_check_cookie@4:PROC
EXTRN	__CxxThrowException@8:PROC
EXTRN	___CxxFrameHandler3:PROC
EXTRN	_memcpy:PROC
EXTRN	_memmove:PROC
EXTRN	_memset:PROC
EXTRN	??_7type_info@@6B@:QWORD			; type_info::`vftable'
EXTRN	?g_tCurrent@@3JA:DWORD				; g_tCurrent
EXTRN	?prj@@3VCProject@@A:BYTE			; prj
EXTRN	?g_tmCurrent@@3KA:DWORD				; g_tmCurrent
EXTRN	?g_UserMng@@3VCUserMng@@A:BYTE			; g_UserMng
EXTRN	?g_dpDBClient@@3VCDPDatabaseClient@@A:BYTE	; g_dpDBClient
EXTRN	?g_DPSrvr@@3VCDPSrvr@@A:BYTE			; g_DPSrvr
EXTRN	___security_cookie:DWORD
EXTRN	__fltused:DWORD
;	COMDAT ??_R1A@?0A@EA@CBuffMgr@@8
rdata$r	SEGMENT
??_R1A@?0A@EA@CBuffMgr@@8 DD FLAT:??_R0?AVCBuffMgr@@@8	; CBuffMgr::`RTTI Base Class Descriptor at (0,-1,0,64)'
	DD	00H
	DD	00H
	DD	0ffffffffH
	DD	00H
	DD	040H
	DD	FLAT:??_R3CBuffMgr@@8
rdata$r	ENDS
;	COMDAT ??_R2CBuffMgr@@8
rdata$r	SEGMENT
??_R2CBuffMgr@@8 DD FLAT:??_R1A@?0A@EA@CBuffMgr@@8	; CBuffMgr::`RTTI Base Class Array'
rdata$r	ENDS
;	COMDAT ??_R3CBuffMgr@@8
rdata$r	SEGMENT
??_R3CBuffMgr@@8 DD 00H					; CBuffMgr::`RTTI Class Hierarchy Descriptor'
	DD	00H
	DD	01H
	DD	FLAT:??_R2CBuffMgr@@8
rdata$r	ENDS
;	COMDAT ??_R0?AVCBuffMgr@@@8
data$rs	SEGMENT
??_R0?AVCBuffMgr@@@8 DD FLAT:??_7type_info@@6B@		; CBuffMgr `RTTI Type Descriptor'
	DD	00H
	DB	'.?AVCBuffMgr@@', 00H
data$rs	ENDS
;	COMDAT ??_R4CBuffMgr@@6B@
rdata$r	SEGMENT
??_R4CBuffMgr@@6B@ DD 00H				; CBuffMgr::`RTTI Complete Object Locator'
	DD	00H
	DD	00H
	DD	FLAT:??_R0?AVCBuffMgr@@@8
	DD	FLAT:??_R3CBuffMgr@@8
rdata$r	ENDS
;	COMDAT ??_C@_0DH@HIFEKJCC@CBuffMgr?4RemoveBuff?3?5could?5not?5@
CONST	SEGMENT
??_C@_0DH@HIFEKJCC@CBuffMgr?4RemoveBuff?3?5could?5not?5@ DB 'CBuffMgr.Rem'
	DB	'oveBuff: could not erase(type: %d, id: %d)', 00H ; `string'
CONST	ENDS
;	COMDAT ??_C@_0BG@CJPHBCAN@CBuffSkill?4IsAttacker@
CONST	SEGMENT
??_C@_0BG@CJPHBCAN@CBuffSkill?4IsAttacker@ DB 'CBuffSkill.IsAttacker', 00H ; `string'
CONST	ENDS
;	COMDAT ??_C@_0BD@OMIIIOEI@CBuffSkill?4IsDebuf@
CONST	SEGMENT
??_C@_0BD@OMIIIOEI@CBuffSkill?4IsDebuf@ DB 'CBuffSkill.IsDebuf', 00H ; `string'
CONST	ENDS
;	COMDAT ??_C@_0BH@KFBAJICK@CBuffSkill?4HasDstParam@
CONST	SEGMENT
??_C@_0BH@KFBAJICK@CBuffSkill?4HasDstParam@ DB 'CBuffSkill.HasDstParam', 00H ; `string'
CONST	ENDS
;	COMDAT ??_C@_0BH@DNHMJEBK@CBuffSkill?4HasChrState@
CONST	SEGMENT
??_C@_0BH@DNHMJEBK@CBuffSkill?4HasChrState@ DB 'CBuffSkill.HasChrState', 00H ; `string'
CONST	ENDS
;	COMDAT ??_C@_0BC@DMLBIAFL@CBuffSkill?4IsGood@
CONST	SEGMENT
??_C@_0BC@DMLBIAFL@CBuffSkill?4IsGood@ DB 'CBuffSkill.IsGood', 00H ; `string'
CONST	ENDS
;	COMDAT ??_C@_0BH@LADPBEID@CBuffSkill?4IsRemovable@
CONST	SEGMENT
??_C@_0BH@LADPBEID@CBuffSkill?4IsRemovable@ DB 'CBuffSkill.IsRemovable', 00H ; `string'
CONST	ENDS
;	COMDAT ??_C@_0BB@CAGKBMEO@CBuffSkill?4Apply@
CONST	SEGMENT
??_C@_0BB@CAGKBMEO@CBuffSkill?4Apply@ DB 'CBuffSkill.Apply', 00H ; `string'
CONST	ENDS
;	COMDAT ??_C@_01FDFGLJHB@2@
CONST	SEGMENT
??_C@_01FDFGLJHB@2@ DB '2', 00H				; `string'
CONST	ENDS
;	COMDAT ??_C@_04INBMAKPJ@?1dis@
CONST	SEGMENT
??_C@_04INBMAKPJ@?1dis@ DB '/dis', 00H			; `string'
CONST	ENDS
;	COMDAT ??_C@_0BA@JAHGEPOA@BuffToGift_Post@
CONST	SEGMENT
??_C@_0BA@JAHGEPOA@BuffToGift_Post@ DB 'BuffToGift_Post', 00H ; `string'
CONST	ENDS
;	COMDAT ??_C@_01JEJKBAGA@g@
CONST	SEGMENT
??_C@_01JEJKBAGA@g@ DB 'g', 00H				; `string'
CONST	ENDS
;	COMDAT ??_C@_0L@LGANLGGI@BuffToGift@
CONST	SEGMENT
??_C@_0L@LGANLGGI@BuffToGift@ DB 'BuffToGift', 00H	; `string'
CONST	ENDS
;	COMDAT ??_C@_01KMDKNFGN@?1@
CONST	SEGMENT
??_C@_01KMDKNFGN@?1@ DB '/', 00H			; `string'
CONST	ENDS
;	COMDAT ??_R1A@?0A@EA@CBuffEquip@@8
rdata$r	SEGMENT
??_R1A@?0A@EA@CBuffEquip@@8 DD FLAT:??_R0?AVCBuffEquip@@@8 ; CBuffEquip::`RTTI Base Class Descriptor at (0,-1,0,64)'
	DD	01H
	DD	00H
	DD	0ffffffffH
	DD	00H
	DD	040H
	DD	FLAT:??_R3CBuffEquip@@8
rdata$r	ENDS
;	COMDAT ??_R2CBuffEquip@@8
rdata$r	SEGMENT
??_R2CBuffEquip@@8 DD FLAT:??_R1A@?0A@EA@CBuffEquip@@8	; CBuffEquip::`RTTI Base Class Array'
	DD	FLAT:??_R1A@?0A@EA@IBuff@@8
rdata$r	ENDS
;	COMDAT ??_R3CBuffEquip@@8
rdata$r	SEGMENT
??_R3CBuffEquip@@8 DD 00H				; CBuffEquip::`RTTI Class Hierarchy Descriptor'
	DD	00H
	DD	02H
	DD	FLAT:??_R2CBuffEquip@@8
rdata$r	ENDS
;	COMDAT ??_R0?AVCBuffEquip@@@8
data$rs	SEGMENT
??_R0?AVCBuffEquip@@@8 DD FLAT:??_7type_info@@6B@	; CBuffEquip `RTTI Type Descriptor'
	DD	00H
	DB	'.?AVCBuffEquip@@', 00H
data$rs	ENDS
;	COMDAT ??_R4CBuffEquip@@6B@
rdata$r	SEGMENT
??_R4CBuffEquip@@6B@ DD 00H				; CBuffEquip::`RTTI Complete Object Locator'
	DD	00H
	DD	00H
	DD	FLAT:??_R0?AVCBuffEquip@@@8
	DD	FLAT:??_R3CBuffEquip@@8
rdata$r	ENDS
;	COMDAT ??_R1A@?0A@EA@CBuffItem2@@8
rdata$r	SEGMENT
??_R1A@?0A@EA@CBuffItem2@@8 DD FLAT:??_R0?AVCBuffItem2@@@8 ; CBuffItem2::`RTTI Base Class Descriptor at (0,-1,0,64)'
	DD	02H
	DD	00H
	DD	0ffffffffH
	DD	00H
	DD	040H
	DD	FLAT:??_R3CBuffItem2@@8
rdata$r	ENDS
;	COMDAT ??_R2CBuffItem2@@8
rdata$r	SEGMENT
??_R2CBuffItem2@@8 DD FLAT:??_R1A@?0A@EA@CBuffItem2@@8	; CBuffItem2::`RTTI Base Class Array'
	DD	FLAT:??_R1A@?0A@EA@IBuffItemBase@@8
	DD	FLAT:??_R1A@?0A@EA@IBuff@@8
rdata$r	ENDS
;	COMDAT ??_R3CBuffItem2@@8
rdata$r	SEGMENT
??_R3CBuffItem2@@8 DD 00H				; CBuffItem2::`RTTI Class Hierarchy Descriptor'
	DD	00H
	DD	03H
	DD	FLAT:??_R2CBuffItem2@@8
rdata$r	ENDS
;	COMDAT ??_R0?AVCBuffItem2@@@8
data$rs	SEGMENT
??_R0?AVCBuffItem2@@@8 DD FLAT:??_7type_info@@6B@	; CBuffItem2 `RTTI Type Descriptor'
	DD	00H
	DB	'.?AVCBuffItem2@@', 00H
data$rs	ENDS
;	COMDAT ??_R4CBuffItem2@@6B@
rdata$r	SEGMENT
??_R4CBuffItem2@@6B@ DD 00H				; CBuffItem2::`RTTI Complete Object Locator'
	DD	00H
	DD	00H
	DD	FLAT:??_R0?AVCBuffItem2@@@8
	DD	FLAT:??_R3CBuffItem2@@8
rdata$r	ENDS
;	COMDAT ??_R1A@?0A@EA@CBuffPet@@8
rdata$r	SEGMENT
??_R1A@?0A@EA@CBuffPet@@8 DD FLAT:??_R0?AVCBuffPet@@@8	; CBuffPet::`RTTI Base Class Descriptor at (0,-1,0,64)'
	DD	01H
	DD	00H
	DD	0ffffffffH
	DD	00H
	DD	040H
	DD	FLAT:??_R3CBuffPet@@8
rdata$r	ENDS
;	COMDAT ??_R2CBuffPet@@8
rdata$r	SEGMENT
??_R2CBuffPet@@8 DD FLAT:??_R1A@?0A@EA@CBuffPet@@8	; CBuffPet::`RTTI Base Class Array'
	DD	FLAT:??_R1A@?0A@EA@IBuff@@8
rdata$r	ENDS
;	COMDAT ??_R3CBuffPet@@8
rdata$r	SEGMENT
??_R3CBuffPet@@8 DD 00H					; CBuffPet::`RTTI Class Hierarchy Descriptor'
	DD	00H
	DD	02H
	DD	FLAT:??_R2CBuffPet@@8
rdata$r	ENDS
;	COMDAT ??_R0?AVCBuffPet@@@8
data$rs	SEGMENT
??_R0?AVCBuffPet@@@8 DD FLAT:??_7type_info@@6B@		; CBuffPet `RTTI Type Descriptor'
	DD	00H
	DB	'.?AVCBuffPet@@', 00H
data$rs	ENDS
;	COMDAT ??_R4CBuffPet@@6B@
rdata$r	SEGMENT
??_R4CBuffPet@@6B@ DD 00H				; CBuffPet::`RTTI Complete Object Locator'
	DD	00H
	DD	00H
	DD	FLAT:??_R0?AVCBuffPet@@@8
	DD	FLAT:??_R3CBuffPet@@8
rdata$r	ENDS
;	COMDAT ??_R1A@?0A@EA@CBuffSkill@@8
rdata$r	SEGMENT
??_R1A@?0A@EA@CBuffSkill@@8 DD FLAT:??_R0?AVCBuffSkill@@@8 ; CBuffSkill::`RTTI Base Class Descriptor at (0,-1,0,64)'
	DD	01H
	DD	00H
	DD	0ffffffffH
	DD	00H
	DD	040H
	DD	FLAT:??_R3CBuffSkill@@8
rdata$r	ENDS
;	COMDAT ??_R2CBuffSkill@@8
rdata$r	SEGMENT
??_R2CBuffSkill@@8 DD FLAT:??_R1A@?0A@EA@CBuffSkill@@8	; CBuffSkill::`RTTI Base Class Array'
	DD	FLAT:??_R1A@?0A@EA@IBuff@@8
rdata$r	ENDS
;	COMDAT ??_R3CBuffSkill@@8
rdata$r	SEGMENT
??_R3CBuffSkill@@8 DD 00H				; CBuffSkill::`RTTI Class Hierarchy Descriptor'
	DD	00H
	DD	02H
	DD	FLAT:??_R2CBuffSkill@@8
rdata$r	ENDS
;	COMDAT ??_R0?AVCBuffSkill@@@8
data$rs	SEGMENT
??_R0?AVCBuffSkill@@@8 DD FLAT:??_7type_info@@6B@	; CBuffSkill `RTTI Type Descriptor'
	DD	00H
	DB	'.?AVCBuffSkill@@', 00H
data$rs	ENDS
;	COMDAT ??_R4CBuffSkill@@6B@
rdata$r	SEGMENT
??_R4CBuffSkill@@6B@ DD 00H				; CBuffSkill::`RTTI Complete Object Locator'
	DD	00H
	DD	00H
	DD	FLAT:??_R0?AVCBuffSkill@@@8
	DD	FLAT:??_R3CBuffSkill@@8
rdata$r	ENDS
;	COMDAT ??_R1A@?0A@EA@CBuffItem@@8
rdata$r	SEGMENT
??_R1A@?0A@EA@CBuffItem@@8 DD FLAT:??_R0?AVCBuffItem@@@8 ; CBuffItem::`RTTI Base Class Descriptor at (0,-1,0,64)'
	DD	02H
	DD	00H
	DD	0ffffffffH
	DD	00H
	DD	040H
	DD	FLAT:??_R3CBuffItem@@8
rdata$r	ENDS
;	COMDAT ??_R2CBuffItem@@8
rdata$r	SEGMENT
??_R2CBuffItem@@8 DD FLAT:??_R1A@?0A@EA@CBuffItem@@8	; CBuffItem::`RTTI Base Class Array'
	DD	FLAT:??_R1A@?0A@EA@IBuffItemBase@@8
	DD	FLAT:??_R1A@?0A@EA@IBuff@@8
rdata$r	ENDS
;	COMDAT ??_R3CBuffItem@@8
rdata$r	SEGMENT
??_R3CBuffItem@@8 DD 00H				; CBuffItem::`RTTI Class Hierarchy Descriptor'
	DD	00H
	DD	03H
	DD	FLAT:??_R2CBuffItem@@8
rdata$r	ENDS
;	COMDAT ??_R0?AVCBuffItem@@@8
data$rs	SEGMENT
??_R0?AVCBuffItem@@@8 DD FLAT:??_7type_info@@6B@	; CBuffItem `RTTI Type Descriptor'
	DD	00H
	DB	'.?AVCBuffItem@@', 00H
data$rs	ENDS
;	COMDAT ??_R4CBuffItem@@6B@
rdata$r	SEGMENT
??_R4CBuffItem@@6B@ DD 00H				; CBuffItem::`RTTI Complete Object Locator'
	DD	00H
	DD	00H
	DD	FLAT:??_R0?AVCBuffItem@@@8
	DD	FLAT:??_R3CBuffItem@@8
rdata$r	ENDS
;	COMDAT ??_R1A@?0A@EA@IBuffItemBase@@8
rdata$r	SEGMENT
??_R1A@?0A@EA@IBuffItemBase@@8 DD FLAT:??_R0?AVIBuffItemBase@@@8 ; IBuffItemBase::`RTTI Base Class Descriptor at (0,-1,0,64)'
	DD	01H
	DD	00H
	DD	0ffffffffH
	DD	00H
	DD	040H
	DD	FLAT:??_R3IBuffItemBase@@8
rdata$r	ENDS
;	COMDAT ??_R2IBuffItemBase@@8
rdata$r	SEGMENT
??_R2IBuffItemBase@@8 DD FLAT:??_R1A@?0A@EA@IBuffItemBase@@8 ; IBuffItemBase::`RTTI Base Class Array'
	DD	FLAT:??_R1A@?0A@EA@IBuff@@8
rdata$r	ENDS
;	COMDAT ??_R3IBuffItemBase@@8
rdata$r	SEGMENT
??_R3IBuffItemBase@@8 DD 00H				; IBuffItemBase::`RTTI Class Hierarchy Descriptor'
	DD	00H
	DD	02H
	DD	FLAT:??_R2IBuffItemBase@@8
rdata$r	ENDS
;	COMDAT ??_R0?AVIBuffItemBase@@@8
data$rs	SEGMENT
??_R0?AVIBuffItemBase@@@8 DD FLAT:??_7type_info@@6B@	; IBuffItemBase `RTTI Type Descriptor'
	DD	00H
	DB	'.?AVIBuffItemBase@@', 00H
data$rs	ENDS
;	COMDAT ??_R4IBuffItemBase@@6B@
rdata$r	SEGMENT
??_R4IBuffItemBase@@6B@ DD 00H				; IBuffItemBase::`RTTI Complete Object Locator'
	DD	00H
	DD	00H
	DD	FLAT:??_R0?AVIBuffItemBase@@@8
	DD	FLAT:??_R3IBuffItemBase@@8
rdata$r	ENDS
;	COMDAT ??_R1A@?0A@EA@IBuff@@8
rdata$r	SEGMENT
??_R1A@?0A@EA@IBuff@@8 DD FLAT:??_R0?AVIBuff@@@8	; IBuff::`RTTI Base Class Descriptor at (0,-1,0,64)'
	DD	00H
	DD	00H
	DD	0ffffffffH
	DD	00H
	DD	040H
	DD	FLAT:??_R3IBuff@@8
rdata$r	ENDS
;	COMDAT ??_R2IBuff@@8
rdata$r	SEGMENT
??_R2IBuff@@8 DD FLAT:??_R1A@?0A@EA@IBuff@@8		; IBuff::`RTTI Base Class Array'
rdata$r	ENDS
;	COMDAT ??_R3IBuff@@8
rdata$r	SEGMENT
??_R3IBuff@@8 DD 00H					; IBuff::`RTTI Class Hierarchy Descriptor'
	DD	00H
	DD	01H
	DD	FLAT:??_R2IBuff@@8
rdata$r	ENDS
;	COMDAT ??_R0?AVIBuff@@@8
data$rs	SEGMENT
??_R0?AVIBuff@@@8 DD FLAT:??_7type_info@@6B@		; IBuff `RTTI Type Descriptor'
	DD	00H
	DB	'.?AVIBuff@@', 00H
data$rs	ENDS
;	COMDAT ??_R4IBuff@@6B@
rdata$r	SEGMENT
??_R4IBuff@@6B@ DD 00H					; IBuff::`RTTI Complete Object Locator'
	DD	00H
	DD	00H
	DD	FLAT:??_R0?AVIBuff@@@8
	DD	FLAT:??_R3IBuff@@8
rdata$r	ENDS
;	COMDAT ??_R4bad_alloc@std@@6B@
rdata$r	SEGMENT
??_R4bad_alloc@std@@6B@ DD 00H				; std::bad_alloc::`RTTI Complete Object Locator'
	DD	00H
	DD	00H
	DD	FLAT:??_R0?AVbad_alloc@std@@@8
	DD	FLAT:??_R3bad_alloc@std@@8
rdata$r	ENDS
;	COMDAT ??_R2bad_alloc@std@@8
rdata$r	SEGMENT
??_R2bad_alloc@std@@8 DD FLAT:??_R1A@?0A@EA@bad_alloc@std@@8 ; std::bad_alloc::`RTTI Base Class Array'
	DD	FLAT:??_R1A@?0A@EA@exception@std@@8
rdata$r	ENDS
;	COMDAT ??_R3bad_alloc@std@@8
rdata$r	SEGMENT
??_R3bad_alloc@std@@8 DD 00H				; std::bad_alloc::`RTTI Class Hierarchy Descriptor'
	DD	00H
	DD	02H
	DD	FLAT:??_R2bad_alloc@std@@8
rdata$r	ENDS
;	COMDAT ??_R1A@?0A@EA@bad_alloc@std@@8
rdata$r	SEGMENT
??_R1A@?0A@EA@bad_alloc@std@@8 DD FLAT:??_R0?AVbad_alloc@std@@@8 ; std::bad_alloc::`RTTI Base Class Descriptor at (0,-1,0,64)'
	DD	01H
	DD	00H
	DD	0ffffffffH
	DD	00H
	DD	040H
	DD	FLAT:??_R3bad_alloc@std@@8
rdata$r	ENDS
;	COMDAT ??_R1A@?0A@EA@bad_array_new_length@std@@8
rdata$r	SEGMENT
??_R1A@?0A@EA@bad_array_new_length@std@@8 DD FLAT:??_R0?AVbad_array_new_length@std@@@8 ; std::bad_array_new_length::`RTTI Base Class Descriptor at (0,-1,0,64)'
	DD	02H
	DD	00H
	DD	0ffffffffH
	DD	00H
	DD	040H
	DD	FLAT:??_R3bad_array_new_length@std@@8
rdata$r	ENDS
;	COMDAT ??_R2bad_array_new_length@std@@8
rdata$r	SEGMENT
??_R2bad_array_new_length@std@@8 DD FLAT:??_R1A@?0A@EA@bad_array_new_length@std@@8 ; std::bad_array_new_length::`RTTI Base Class Array'
	DD	FLAT:??_R1A@?0A@EA@bad_alloc@std@@8
	DD	FLAT:??_R1A@?0A@EA@exception@std@@8
rdata$r	ENDS
;	COMDAT ??_R3bad_array_new_length@std@@8
rdata$r	SEGMENT
??_R3bad_array_new_length@std@@8 DD 00H			; std::bad_array_new_length::`RTTI Class Hierarchy Descriptor'
	DD	00H
	DD	03H
	DD	FLAT:??_R2bad_array_new_length@std@@8
rdata$r	ENDS
;	COMDAT ??_R4bad_array_new_length@std@@6B@
rdata$r	SEGMENT
??_R4bad_array_new_length@std@@6B@ DD 00H		; std::bad_array_new_length::`RTTI Complete Object Locator'
	DD	00H
	DD	00H
	DD	FLAT:??_R0?AVbad_array_new_length@std@@@8
	DD	FLAT:??_R3bad_array_new_length@std@@8
rdata$r	ENDS
;	COMDAT ??_R1A@?0A@EA@exception@std@@8
rdata$r	SEGMENT
??_R1A@?0A@EA@exception@std@@8 DD FLAT:??_R0?AVexception@std@@@8 ; std::exception::`RTTI Base Class Descriptor at (0,-1,0,64)'
	DD	00H
	DD	00H
	DD	0ffffffffH
	DD	00H
	DD	040H
	DD	FLAT:??_R3exception@std@@8
rdata$r	ENDS
;	COMDAT ??_R2exception@std@@8
rdata$r	SEGMENT
??_R2exception@std@@8 DD FLAT:??_R1A@?0A@EA@exception@std@@8 ; std::exception::`RTTI Base Class Array'
rdata$r	ENDS
;	COMDAT ??_R3exception@std@@8
rdata$r	SEGMENT
??_R3exception@std@@8 DD 00H				; std::exception::`RTTI Class Hierarchy Descriptor'
	DD	00H
	DD	01H
	DD	FLAT:??_R2exception@std@@8
rdata$r	ENDS
;	COMDAT ??_R4exception@std@@6B@
rdata$r	SEGMENT
??_R4exception@std@@6B@ DD 00H				; std::exception::`RTTI Complete Object Locator'
	DD	00H
	DD	00H
	DD	FLAT:??_R0?AVexception@std@@@8
	DD	FLAT:??_R3exception@std@@8
rdata$r	ENDS
;	COMDAT ??_C@_0BA@FOIKENOD@vector?5too?5long@
CONST	SEGMENT
??_C@_0BA@FOIKENOD@vector?5too?5long@ DB 'vector too long', 00H ; `string'
CONST	ENDS
;	COMDAT ??_7CBuffMgr@@6B@
CONST	SEGMENT
??_7CBuffMgr@@6B@ DD FLAT:??_R4CBuffMgr@@6B@		; CBuffMgr::`vftable'
	DD	FLAT:??_ECBuffMgr@@UAEPAXI@Z
	DD	FLAT:?CreateBuff@CBuffMgr@@UAEPAVIBuff@@G@Z
	DD	FLAT:?GetTickCount@CBuffMgr@@MAEKXZ
CONST	ENDS
;	COMDAT ??_7CBuffEquip@@6B@
CONST	SEGMENT
??_7CBuffEquip@@6B@ DD FLAT:??_R4CBuffEquip@@6B@	; CBuffEquip::`vftable'
	DD	FLAT:??_ECBuffEquip@@UAEPAXI@Z
	DD	FLAT:?Serialize@IBuff@@UAEXAAVCAr@@PAVCMover@@@Z
	DD	FLAT:?SerializeLevel@IBuff@@UAEXAAVCAr@@@Z
	DD	FLAT:??4IBuff@@UAEAAV0@ABV0@@Z
	DD	FLAT:?Process@IBuff@@UAEHPAVCMover@@K@Z
	DD	FLAT:?IsIk1@IBuff@@UAEHK@Z
	DD	FLAT:?IsIk3@IBuff@@UAEHK@Z
	DD	FLAT:?IsAddable@IBuff@@UAEHPAVCMover@@@Z
	DD	FLAT:?AddTotal@IBuff@@UAEXK@Z
	DD	FLAT:?GetPropA@IBuff@@UAEPAUItemProp@@XZ
	DD	FLAT:?Release@IBuff@@UAEXPAVCBuffMgr@@@Z
	DD	FLAT:?IsRemovable@CBuffEquip@@UAEHPAVCMover@@@Z
	DD	FLAT:?GetDisguise@IBuff@@UAEKXZ
	DD	FLAT:?IsCommon@CBuffEquip@@UAEHXZ
	DD	FLAT:?IsGood@IBuff@@UAEHPAVCMover@@@Z
	DD	FLAT:?HasDstParam@IBuff@@UAEHPAVCMover@@K@Z
	DD	FLAT:?HasChrState@IBuff@@UAEHPAVCMover@@K@Z
	DD	FLAT:?IsDebuf@IBuff@@UAEHPAVCMover@@@Z
	DD	FLAT:?IsAttacker@IBuff@@UAEHPAVCMover@@K@Z
	DD	FLAT:?IsInvalid@IBuff@@MAEHPAVCMover@@@Z
	DD	FLAT:?Apply@IBuff@@MAEXPAVCMover@@@Z
	DD	FLAT:?Timeover@IBuff@@MAEHPAVCMover@@K@Z
	DD	FLAT:?OnExpire@IBuff@@UAEXPAVCMover@@@Z
CONST	ENDS
;	COMDAT ??_7CBuffItem2@@6B@
CONST	SEGMENT
??_7CBuffItem2@@6B@ DD FLAT:??_R4CBuffItem2@@6B@	; CBuffItem2::`vftable'
	DD	FLAT:??_ECBuffItem2@@UAEPAXI@Z
	DD	FLAT:?Serialize@IBuff@@UAEXAAVCAr@@PAVCMover@@@Z
	DD	FLAT:?SerializeLevel@CBuffItem2@@UAEXAAVCAr@@@Z
	DD	FLAT:??4IBuff@@UAEAAV0@ABV0@@Z
	DD	FLAT:?Process@IBuff@@UAEHPAVCMover@@K@Z
	DD	FLAT:?IsIk1@IBuff@@UAEHK@Z
	DD	FLAT:?IsIk3@IBuff@@UAEHK@Z
	DD	FLAT:?IsAddable@IBuff@@UAEHPAVCMover@@@Z
	DD	FLAT:?AddTotal@IBuff@@UAEXK@Z
	DD	FLAT:?GetPropA@IBuffItemBase@@UAEPAUItemProp@@XZ
	DD	FLAT:?Release@IBuffItemBase@@UAEXPAVCBuffMgr@@@Z
	DD	FLAT:?IsRemovable@IBuff@@UAEHPAVCMover@@@Z
	DD	FLAT:?GetDisguise@IBuff@@UAEKXZ
	DD	FLAT:?IsCommon@IBuffItemBase@@UAEHXZ
	DD	FLAT:?IsGood@IBuff@@UAEHPAVCMover@@@Z
	DD	FLAT:?HasDstParam@IBuff@@UAEHPAVCMover@@K@Z
	DD	FLAT:?HasChrState@IBuffItemBase@@UAEHPAVCMover@@K@Z
	DD	FLAT:?IsDebuf@IBuffItemBase@@UAEHPAVCMover@@@Z
	DD	FLAT:?IsAttacker@IBuff@@UAEHPAVCMover@@K@Z
	DD	FLAT:?IsInvalid@IBuff@@MAEHPAVCMover@@@Z
	DD	FLAT:?Apply@IBuff@@MAEXPAVCMover@@@Z
	DD	FLAT:?Timeover@CBuffItem2@@UAEHPAVCMover@@K@Z
	DD	FLAT:?OnExpire@IBuff@@UAEXPAVCMover@@@Z
CONST	ENDS
;	COMDAT ??_7CBuffPet@@6B@
CONST	SEGMENT
??_7CBuffPet@@6B@ DD FLAT:??_R4CBuffPet@@6B@		; CBuffPet::`vftable'
	DD	FLAT:??_ECBuffPet@@UAEPAXI@Z
	DD	FLAT:?Serialize@IBuff@@UAEXAAVCAr@@PAVCMover@@@Z
	DD	FLAT:?SerializeLevel@IBuff@@UAEXAAVCAr@@@Z
	DD	FLAT:??4IBuff@@UAEAAV0@ABV0@@Z
	DD	FLAT:?Process@IBuff@@UAEHPAVCMover@@K@Z
	DD	FLAT:?IsIk1@IBuff@@UAEHK@Z
	DD	FLAT:?IsIk3@IBuff@@UAEHK@Z
	DD	FLAT:?IsAddable@IBuff@@UAEHPAVCMover@@@Z
	DD	FLAT:?AddTotal@IBuff@@UAEXK@Z
	DD	FLAT:?GetPropA@IBuff@@UAEPAUItemProp@@XZ
	DD	FLAT:?Release@CBuffPet@@MAEXPAVCBuffMgr@@@Z
	DD	FLAT:?IsRemovable@CBuffPet@@UAEHPAVCMover@@@Z
	DD	FLAT:?GetDisguise@IBuff@@UAEKXZ
	DD	FLAT:?IsCommon@CBuffPet@@UAEHXZ
	DD	FLAT:?IsGood@IBuff@@UAEHPAVCMover@@@Z
	DD	FLAT:?HasDstParam@IBuff@@UAEHPAVCMover@@K@Z
	DD	FLAT:?HasChrState@IBuff@@UAEHPAVCMover@@K@Z
	DD	FLAT:?IsDebuf@IBuff@@UAEHPAVCMover@@@Z
	DD	FLAT:?IsAttacker@IBuff@@UAEHPAVCMover@@K@Z
	DD	FLAT:?IsInvalid@IBuff@@MAEHPAVCMover@@@Z
	DD	FLAT:?Apply@CBuffPet@@MAEXPAVCMover@@@Z
	DD	FLAT:?Timeover@IBuff@@MAEHPAVCMover@@K@Z
	DD	FLAT:?OnExpire@IBuff@@UAEXPAVCMover@@@Z
CONST	ENDS
;	COMDAT ??_7CBuffSkill@@6B@
CONST	SEGMENT
??_7CBuffSkill@@6B@ DD FLAT:??_R4CBuffSkill@@6B@	; CBuffSkill::`vftable'
	DD	FLAT:??_ECBuffSkill@@UAEPAXI@Z
	DD	FLAT:?Serialize@IBuff@@UAEXAAVCAr@@PAVCMover@@@Z
	DD	FLAT:?SerializeLevel@IBuff@@UAEXAAVCAr@@@Z
	DD	FLAT:??4IBuff@@UAEAAV0@ABV0@@Z
	DD	FLAT:?Process@IBuff@@UAEHPAVCMover@@K@Z
	DD	FLAT:?IsIk1@IBuff@@UAEHK@Z
	DD	FLAT:?IsIk3@IBuff@@UAEHK@Z
	DD	FLAT:?IsAddable@CBuffSkill@@UAEHPAVCMover@@@Z
	DD	FLAT:?AddTotal@IBuff@@UAEXK@Z
	DD	FLAT:?GetPropA@CBuffSkill@@UAEPAUItemProp@@XZ
	DD	FLAT:?Release@CBuffSkill@@UAEXPAVCBuffMgr@@@Z
	DD	FLAT:?IsRemovable@CBuffSkill@@UAEHPAVCMover@@@Z
	DD	FLAT:?GetDisguise@IBuff@@UAEKXZ
	DD	FLAT:?IsCommon@IBuff@@UAEHXZ
	DD	FLAT:?IsGood@CBuffSkill@@UAEHPAVCMover@@@Z
	DD	FLAT:?HasDstParam@CBuffSkill@@UAEHPAVCMover@@K@Z
	DD	FLAT:?HasChrState@CBuffSkill@@UAEHPAVCMover@@K@Z
	DD	FLAT:?IsDebuf@CBuffSkill@@UAEHPAVCMover@@@Z
	DD	FLAT:?IsAttacker@CBuffSkill@@UAEHPAVCMover@@K@Z
	DD	FLAT:?IsInvalid@CBuffSkill@@MAEHPAVCMover@@@Z
	DD	FLAT:?Apply@CBuffSkill@@MAEXPAVCMover@@@Z
	DD	FLAT:?Timeover@IBuff@@MAEHPAVCMover@@K@Z
	DD	FLAT:?OnExpire@CBuffSkill@@UAEXPAVCMover@@@Z
CONST	ENDS
;	COMDAT ??_7CBuffItem@@6B@
CONST	SEGMENT
??_7CBuffItem@@6B@ DD FLAT:??_R4CBuffItem@@6B@		; CBuffItem::`vftable'
	DD	FLAT:??_ECBuffItem@@UAEPAXI@Z
	DD	FLAT:?Serialize@IBuff@@UAEXAAVCAr@@PAVCMover@@@Z
	DD	FLAT:?SerializeLevel@IBuff@@UAEXAAVCAr@@@Z
	DD	FLAT:??4IBuff@@UAEAAV0@ABV0@@Z
	DD	FLAT:?Process@IBuff@@UAEHPAVCMover@@K@Z
	DD	FLAT:?IsIk1@CBuffItem@@UAEHK@Z
	DD	FLAT:?IsIk3@CBuffItem@@UAEHK@Z
	DD	FLAT:?IsAddable@IBuff@@UAEHPAVCMover@@@Z
	DD	FLAT:?AddTotal@CBuffItem@@UAEXK@Z
	DD	FLAT:?GetPropA@IBuffItemBase@@UAEPAUItemProp@@XZ
	DD	FLAT:?Release@IBuffItemBase@@UAEXPAVCBuffMgr@@@Z
	DD	FLAT:?IsRemovable@CBuffItem@@UAEHPAVCMover@@@Z
	DD	FLAT:?GetDisguise@CBuffItem@@UAEKXZ
	DD	FLAT:?IsCommon@IBuffItemBase@@UAEHXZ
	DD	FLAT:?IsGood@IBuff@@UAEHPAVCMover@@@Z
	DD	FLAT:?HasDstParam@IBuff@@UAEHPAVCMover@@K@Z
	DD	FLAT:?HasChrState@IBuffItemBase@@UAEHPAVCMover@@K@Z
	DD	FLAT:?IsDebuf@IBuffItemBase@@UAEHPAVCMover@@@Z
	DD	FLAT:?IsAttacker@IBuff@@UAEHPAVCMover@@K@Z
	DD	FLAT:?IsInvalid@IBuff@@MAEHPAVCMover@@@Z
	DD	FLAT:?Apply@CBuffItem@@MAEXPAVCMover@@@Z
	DD	FLAT:?Timeover@IBuff@@MAEHPAVCMover@@K@Z
	DD	FLAT:?OnExpire@CBuffItem@@UAEXPAVCMover@@@Z
CONST	ENDS
;	COMDAT ??_7IBuffItemBase@@6B@
CONST	SEGMENT
??_7IBuffItemBase@@6B@ DD FLAT:??_R4IBuffItemBase@@6B@	; IBuffItemBase::`vftable'
	DD	FLAT:??_EIBuffItemBase@@UAEPAXI@Z
	DD	FLAT:?Serialize@IBuff@@UAEXAAVCAr@@PAVCMover@@@Z
	DD	FLAT:?SerializeLevel@IBuff@@UAEXAAVCAr@@@Z
	DD	FLAT:??4IBuff@@UAEAAV0@ABV0@@Z
	DD	FLAT:?Process@IBuff@@UAEHPAVCMover@@K@Z
	DD	FLAT:?IsIk1@IBuff@@UAEHK@Z
	DD	FLAT:?IsIk3@IBuff@@UAEHK@Z
	DD	FLAT:?IsAddable@IBuff@@UAEHPAVCMover@@@Z
	DD	FLAT:?AddTotal@IBuff@@UAEXK@Z
	DD	FLAT:?GetPropA@IBuffItemBase@@UAEPAUItemProp@@XZ
	DD	FLAT:?Release@IBuffItemBase@@UAEXPAVCBuffMgr@@@Z
	DD	FLAT:?IsRemovable@IBuff@@UAEHPAVCMover@@@Z
	DD	FLAT:?GetDisguise@IBuff@@UAEKXZ
	DD	FLAT:?IsCommon@IBuffItemBase@@UAEHXZ
	DD	FLAT:?IsGood@IBuff@@UAEHPAVCMover@@@Z
	DD	FLAT:?HasDstParam@IBuff@@UAEHPAVCMover@@K@Z
	DD	FLAT:?HasChrState@IBuffItemBase@@UAEHPAVCMover@@K@Z
	DD	FLAT:?IsDebuf@IBuffItemBase@@UAEHPAVCMover@@@Z
	DD	FLAT:?IsAttacker@IBuff@@UAEHPAVCMover@@K@Z
	DD	FLAT:?IsInvalid@IBuff@@MAEHPAVCMover@@@Z
	DD	FLAT:?Apply@IBuff@@MAEXPAVCMover@@@Z
	DD	FLAT:?Timeover@IBuff@@MAEHPAVCMover@@K@Z
	DD	FLAT:?OnExpire@IBuff@@UAEXPAVCMover@@@Z
CONST	ENDS
;	COMDAT ??_7IBuff@@6B@
CONST	SEGMENT
??_7IBuff@@6B@ DD FLAT:??_R4IBuff@@6B@			; IBuff::`vftable'
	DD	FLAT:??_EIBuff@@UAEPAXI@Z
	DD	FLAT:?Serialize@IBuff@@UAEXAAVCAr@@PAVCMover@@@Z
	DD	FLAT:?SerializeLevel@IBuff@@UAEXAAVCAr@@@Z
	DD	FLAT:??4IBuff@@UAEAAV0@ABV0@@Z
	DD	FLAT:?Process@IBuff@@UAEHPAVCMover@@K@Z
	DD	FLAT:?IsIk1@IBuff@@UAEHK@Z
	DD	FLAT:?IsIk3@IBuff@@UAEHK@Z
	DD	FLAT:?IsAddable@IBuff@@UAEHPAVCMover@@@Z
	DD	FLAT:?AddTotal@IBuff@@UAEXK@Z
	DD	FLAT:?GetPropA@IBuff@@UAEPAUItemProp@@XZ
	DD	FLAT:?Release@IBuff@@UAEXPAVCBuffMgr@@@Z
	DD	FLAT:?IsRemovable@IBuff@@UAEHPAVCMover@@@Z
	DD	FLAT:?GetDisguise@IBuff@@UAEKXZ
	DD	FLAT:?IsCommon@IBuff@@UAEHXZ
	DD	FLAT:?IsGood@IBuff@@UAEHPAVCMover@@@Z
	DD	FLAT:?HasDstParam@IBuff@@UAEHPAVCMover@@K@Z
	DD	FLAT:?HasChrState@IBuff@@UAEHPAVCMover@@K@Z
	DD	FLAT:?IsDebuf@IBuff@@UAEHPAVCMover@@@Z
	DD	FLAT:?IsAttacker@IBuff@@UAEHPAVCMover@@K@Z
	DD	FLAT:?IsInvalid@IBuff@@MAEHPAVCMover@@@Z
	DD	FLAT:?Apply@IBuff@@MAEXPAVCMover@@@Z
	DD	FLAT:?Timeover@IBuff@@MAEHPAVCMover@@K@Z
	DD	FLAT:?OnExpire@IBuff@@UAEXPAVCMover@@@Z
CONST	ENDS
;	COMDAT ??_C@_0BJ@GKPOBPPI@GetMoverProp?5range_error@
CONST	SEGMENT
??_C@_0BJ@GKPOBPPI@GetMoverProp?5range_error@ DB 'GetMoverProp range_erro'
	DB	'r', 00H					; `string'
CONST	ENDS
;	COMDAT ??_C@_0BJ@GPNGCFMK@GetSkillProp?5range_error@
CONST	SEGMENT
??_C@_0BJ@GPNGCFMK@GetSkillProp?5range_error@ DB 'GetSkillProp range_erro'
	DB	'r', 00H					; `string'
CONST	ENDS
;	COMDAT ??_C@_0BI@BEIFNGEL@GetItemProp?5range_error@
CONST	SEGMENT
??_C@_0BI@BEIFNGEL@GetItemProp?5range_error@ DB 'GetItemProp range_error', 00H ; `string'
CONST	ENDS
;	COMDAT ??_C@_0BM@HMFGHCP@?$CFs?5min?3?$CFd?0?5max?3?$CFd?0?5index?3?$CFd@
CONST	SEGMENT
??_C@_0BM@HMFGHCP@?$CFs?5min?3?$CFd?0?5max?3?$CFd?0?5index?3?$CFd@ DB '%s'
	DB	' min:%d, max:%d, index:%d', 00H		; `string'
CONST	ENDS
;	COMDAT ??_C@_0BB@GCADKGJO@map?1set?5too?5long@
CONST	SEGMENT
??_C@_0BB@GCADKGJO@map?1set?5too?5long@ DB 'map/set too long', 00H ; `string'
CONST	ENDS
;	COMDAT __CT??_R0?AVbad_alloc@std@@@8??0bad_alloc@std@@QAE@ABV01@@Z12
xdata$x	SEGMENT
__CT??_R0?AVbad_alloc@std@@@8??0bad_alloc@std@@QAE@ABV01@@Z12 DD 010H
	DD	FLAT:??_R0?AVbad_alloc@std@@@8
	DD	00H
	DD	0ffffffffH
	ORG $+4
	DD	0cH
	DD	FLAT:??0bad_alloc@std@@QAE@ABV01@@Z
xdata$x	ENDS
;	COMDAT ??_R0?AVbad_alloc@std@@@8
data$r	SEGMENT
??_R0?AVbad_alloc@std@@@8 DD FLAT:??_7type_info@@6B@	; std::bad_alloc `RTTI Type Descriptor'
	DD	00H
	DB	'.?AVbad_alloc@std@@', 00H
data$r	ENDS
;	COMDAT __CT??_R0?AVbad_array_new_length@std@@@8??0bad_array_new_length@std@@QAE@ABV01@@Z12
xdata$x	SEGMENT
__CT??_R0?AVbad_array_new_length@std@@@8??0bad_array_new_length@std@@QAE@ABV01@@Z12 DD 00H
	DD	FLAT:??_R0?AVbad_array_new_length@std@@@8
	DD	00H
	DD	0ffffffffH
	ORG $+4
	DD	0cH
	DD	FLAT:??0bad_array_new_length@std@@QAE@ABV01@@Z
xdata$x	ENDS
;	COMDAT ??_R0?AVbad_array_new_length@std@@@8
data$r	SEGMENT
??_R0?AVbad_array_new_length@std@@@8 DD FLAT:??_7type_info@@6B@ ; std::bad_array_new_length `RTTI Type Descriptor'
	DD	00H
	DB	'.?AVbad_array_new_length@std@@', 00H
data$r	ENDS
;	COMDAT __CTA3?AVbad_array_new_length@std@@
xdata$x	SEGMENT
__CTA3?AVbad_array_new_length@std@@ DD 03H
	DD	FLAT:__CT??_R0?AVbad_array_new_length@std@@@8??0bad_array_new_length@std@@QAE@ABV01@@Z12
	DD	FLAT:__CT??_R0?AVbad_alloc@std@@@8??0bad_alloc@std@@QAE@ABV01@@Z12
	DD	FLAT:__CT??_R0?AVexception@std@@@8??0exception@std@@QAE@ABV01@@Z12
xdata$x	ENDS
;	COMDAT __TI3?AVbad_array_new_length@std@@
xdata$x	SEGMENT
__TI3?AVbad_array_new_length@std@@ DD 00H
	DD	FLAT:??1bad_array_new_length@std@@UAE@XZ
	DD	00H
	DD	FLAT:__CTA3?AVbad_array_new_length@std@@
xdata$x	ENDS
;	COMDAT __CT??_R0?AVexception@std@@@8??0exception@std@@QAE@ABV01@@Z12
xdata$x	SEGMENT
__CT??_R0?AVexception@std@@@8??0exception@std@@QAE@ABV01@@Z12 DD 00H
	DD	FLAT:??_R0?AVexception@std@@@8
	DD	00H
	DD	0ffffffffH
	ORG $+4
	DD	0cH
	DD	FLAT:??0exception@std@@QAE@ABV01@@Z
xdata$x	ENDS
;	COMDAT ??_R0?AVexception@std@@@8
data$r	SEGMENT
??_R0?AVexception@std@@@8 DD FLAT:??_7type_info@@6B@	; std::exception `RTTI Type Descriptor'
	DD	00H
	DB	'.?AVexception@std@@', 00H
data$r	ENDS
;	COMDAT ??_C@_0BF@KINCDENJ@bad?5array?5new?5length@
CONST	SEGMENT
??_C@_0BF@KINCDENJ@bad?5array?5new?5length@ DB 'bad array new length', 00H ; `string'
CONST	ENDS
;	COMDAT ??_7bad_array_new_length@std@@6B@
CONST	SEGMENT
??_7bad_array_new_length@std@@6B@ DD FLAT:??_R4bad_array_new_length@std@@6B@ ; std::bad_array_new_length::`vftable'
	DD	FLAT:??_Ebad_array_new_length@std@@UAEPAXI@Z
	DD	FLAT:?what@exception@std@@UBEPBDXZ
CONST	ENDS
;	COMDAT ??_7bad_alloc@std@@6B@
CONST	SEGMENT
??_7bad_alloc@std@@6B@ DD FLAT:??_R4bad_alloc@std@@6B@	; std::bad_alloc::`vftable'
	DD	FLAT:??_Ebad_alloc@std@@UAEPAXI@Z
	DD	FLAT:?what@exception@std@@UBEPBDXZ
CONST	ENDS
;	COMDAT ??_C@_0BC@EOODALEL@Unknown?5exception@
CONST	SEGMENT
??_C@_0BC@EOODALEL@Unknown?5exception@ DB 'Unknown exception', 00H ; `string'
CONST	ENDS
;	COMDAT ??_7exception@std@@6B@
CONST	SEGMENT
??_7exception@std@@6B@ DD FLAT:??_R4exception@std@@6B@	; std::exception::`vftable'
	DD	FLAT:??_Eexception@std@@UAEPAXI@Z
	DD	FLAT:?what@exception@std@@UBEPBDXZ
CONST	ENDS
;	COMDAT ??_C@_00CNPNBAHC@@
CONST	SEGMENT
??_C@_00CNPNBAHC@@ DB 00H				; `string'
CONST	ENDS
;	COMDAT xdata$x
xdata$x	SEGMENT
__unwindtable$??$?0U?$pair@$$CBKPAVIBuff@@@std@@@?$_Tree_temp_node@V?$allocator@U?$_Tree_node@U?$pair@$$CBKPAVIBuff@@@std@@PAX@std@@@std@@@std@@QAE@AAV?$allocator@U?$_Tree_node@U?$pair@$$CBKPAVIBuff@@@std@@PAX@std@@@1@PAU?$_Tree_node@U?$pair@$$CBKPAVIBuff@@@std@@PAX@1@$$QAU?$pair@$$CBKPAVIBuff@@@1@@Z DD 0ffffffffH
	DD	FLAT:__unwindfunclet$??$?0U?$pair@$$CBKPAVIBuff@@@std@@@?$_Tree_temp_node@V?$allocator@U?$_Tree_node@U?$pair@$$CBKPAVIBuff@@@std@@PAX@std@@@std@@@std@@QAE@AAV?$allocator@U?$_Tree_node@U?$pair@$$CBKPAVIBuff@@@std@@PAX@std@@@1@PAU?$_Tree_node@U?$pair@$$CBKPAVIBuff@@@std@@PAX@1@$$QAU?$pair@$$CBKPAVIBuff@@@1@@Z$1
__ehfuncinfo$??$?0U?$pair@$$CBKPAVIBuff@@@std@@@?$_Tree_temp_node@V?$allocator@U?$_Tree_node@U?$pair@$$CBKPAVIBuff@@@std@@PAX@std@@@std@@@std@@QAE@AAV?$allocator@U?$_Tree_node@U?$pair@$$CBKPAVIBuff@@@std@@PAX@std@@@1@PAU?$_Tree_node@U?$pair@$$CBKPAVIBuff@@@std@@PAX@1@$$QAU?$pair@$$CBKPAVIBuff@@@1@@Z DD 019930522H
	DD	01H
	DD	FLAT:__unwindtable$??$?0U?$pair@$$CBKPAVIBuff@@@std@@@?$_Tree_temp_node@V?$allocator@U?$_Tree_node@U?$pair@$$CBKPAVIBuff@@@std@@PAX@std@@@std@@@std@@QAE@AAV?$allocator@U?$_Tree_node@U?$pair@$$CBKPAVIBuff@@@std@@PAX@std@@@1@PAU?$_Tree_node@U?$pair@$$CBKPAVIBuff@@@std@@PAX@1@$$QAU?$pair@$$CBKPAVIBuff@@@1@@Z
	DD	2 DUP(00H)
	DD	2 DUP(00H)
	DD	00H
	DD	01H
xdata$x	ENDS
;	COMDAT xdata$x
xdata$x	SEGMENT
__unwindtable$??0?$_Tree_temp_node_alloc@V?$allocator@U?$_Tree_node@U?$pair@$$CBKPAVIBuff@@@std@@PAX@std@@@std@@@std@@QAE@AAV?$allocator@U?$_Tree_node@U?$pair@$$CBKPAVIBuff@@@std@@PAX@std@@@1@@Z DD 0ffffffffH
	DD	FLAT:__unwindfunclet$??0?$_Tree_temp_node_alloc@V?$allocator@U?$_Tree_node@U?$pair@$$CBKPAVIBuff@@@std@@PAX@std@@@std@@@std@@QAE@AAV?$allocator@U?$_Tree_node@U?$pair@$$CBKPAVIBuff@@@std@@PAX@std@@@1@@Z$0
__ehfuncinfo$??0?$_Tree_temp_node_alloc@V?$allocator@U?$_Tree_node@U?$pair@$$CBKPAVIBuff@@@std@@PAX@std@@@std@@@std@@QAE@AAV?$allocator@U?$_Tree_node@U?$pair@$$CBKPAVIBuff@@@std@@PAX@std@@@1@@Z DD 019930522H
	DD	01H
	DD	FLAT:__unwindtable$??0?$_Tree_temp_node_alloc@V?$allocator@U?$_Tree_node@U?$pair@$$CBKPAVIBuff@@@std@@PAX@std@@@std@@@std@@QAE@AAV?$allocator@U?$_Tree_node@U?$pair@$$CBKPAVIBuff@@@std@@PAX@std@@@1@@Z
	DD	2 DUP(00H)
	DD	2 DUP(00H)
	DD	00H
	DD	01H
xdata$x	ENDS
;	COMDAT xdata$x
xdata$x	SEGMENT
__unwindtable$??$_Emplace@U?$pair@$$CBKPAVIBuff@@@std@@@?$_Tree@V?$_Tmap_traits@KPAVIBuff@@U?$less@K@std@@V?$allocator@U?$pair@$$CBKPAVIBuff@@@std@@@3@$0A@@std@@@std@@IAE?AU?$pair@PAU?$_Tree_node@U?$pair@$$CBKPAVIBuff@@@std@@PAX@std@@_N@1@$$QAU?$pair@$$CBKPAVIBuff@@@1@@Z DD 0ffffffffH
	DD	FLAT:__unwindfunclet$??$_Emplace@U?$pair@$$CBKPAVIBuff@@@std@@@?$_Tree@V?$_Tmap_traits@KPAVIBuff@@U?$less@K@std@@V?$allocator@U?$pair@$$CBKPAVIBuff@@@std@@@3@$0A@@std@@@std@@IAE?AU?$pair@PAU?$_Tree_node@U?$pair@$$CBKPAVIBuff@@@std@@PAX@std@@_N@1@$$QAU?$pair@$$CBKPAVIBuff@@@1@@Z$2
__ehfuncinfo$??$_Emplace@U?$pair@$$CBKPAVIBuff@@@std@@@?$_Tree@V?$_Tmap_traits@KPAVIBuff@@U?$less@K@std@@V?$allocator@U?$pair@$$CBKPAVIBuff@@@std@@@3@$0A@@std@@@std@@IAE?AU?$pair@PAU?$_Tree_node@U?$pair@$$CBKPAVIBuff@@@std@@PAX@std@@_N@1@$$QAU?$pair@$$CBKPAVIBuff@@@1@@Z DD 019930522H
	DD	01H
	DD	FLAT:__unwindtable$??$_Emplace@U?$pair@$$CBKPAVIBuff@@@std@@@?$_Tree@V?$_Tmap_traits@KPAVIBuff@@U?$less@K@std@@V?$allocator@U?$pair@$$CBKPAVIBuff@@@std@@@3@$0A@@std@@@std@@IAE?AU?$pair@PAU?$_Tree_node@U?$pair@$$CBKPAVIBuff@@@std@@PAX@std@@_N@1@$$QAU?$pair@$$CBKPAVIBuff@@@1@@Z
	DD	2 DUP(00H)
	DD	2 DUP(00H)
	DD	00H
	DD	01H
xdata$x	ENDS
;	COMDAT xdata$x
xdata$x	SEGMENT
__unwindtable$??$insert@$0A@$0A@@?$_Tree@V?$_Tmap_traits@KPAVIBuff@@U?$less@K@std@@V?$allocator@U?$pair@$$CBKPAVIBuff@@@std@@@3@$0A@@std@@@std@@QAE?AU?$pair@V?$_Tree_iterator@V?$_Tree_val@U?$_Tree_simple_types@U?$pair@$$CBKPAVIBuff@@@std@@@std@@@std@@@std@@_N@1@$$QAU?$pair@$$CBKPAVIBuff@@@1@@Z DD 0ffffffffH
	DD	FLAT:__unwindfunclet$??$insert@$0A@$0A@@?$_Tree@V?$_Tmap_traits@KPAVIBuff@@U?$less@K@std@@V?$allocator@U?$pair@$$CBKPAVIBuff@@@std@@@3@$0A@@std@@@std@@QAE?AU?$pair@V?$_Tree_iterator@V?$_Tree_val@U?$_Tree_simple_types@U?$pair@$$CBKPAVIBuff@@@std@@@std@@@std@@@std@@_N@1@$$QAU?$pair@$$CBKPAVIBuff@@@1@@Z$2
__ehfuncinfo$??$insert@$0A@$0A@@?$_Tree@V?$_Tmap_traits@KPAVIBuff@@U?$less@K@std@@V?$allocator@U?$pair@$$CBKPAVIBuff@@@std@@@3@$0A@@std@@@std@@QAE?AU?$pair@V?$_Tree_iterator@V?$_Tree_val@U?$_Tree_simple_types@U?$pair@$$CBKPAVIBuff@@@std@@@std@@@std@@@std@@_N@1@$$QAU?$pair@$$CBKPAVIBuff@@@1@@Z DD 019930522H
	DD	01H
	DD	FLAT:__unwindtable$??$insert@$0A@$0A@@?$_Tree@V?$_Tmap_traits@KPAVIBuff@@U?$less@K@std@@V?$allocator@U?$pair@$$CBKPAVIBuff@@@std@@@3@$0A@@std@@@std@@QAE?AU?$pair@V?$_Tree_iterator@V?$_Tree_val@U?$_Tree_simple_types@U?$pair@$$CBKPAVIBuff@@@std@@@std@@@std@@@std@@_N@1@$$QAU?$pair@$$CBKPAVIBuff@@@1@@Z
	DD	2 DUP(00H)
	DD	2 DUP(00H)
	DD	00H
	DD	01H
xdata$x	ENDS
;	COMDAT xdata$x
xdata$x	SEGMENT
__unwindtable$?RemoveBuffs@CBuffMgr@@QAEXKK@Z DD 0ffffffffH
	DD	FLAT:__unwindfunclet$?RemoveBuffs@CBuffMgr@@QAEXKK@Z$0
__ehfuncinfo$?RemoveBuffs@CBuffMgr@@QAEXKK@Z DD 019930522H
	DD	01H
	DD	FLAT:__unwindtable$?RemoveBuffs@CBuffMgr@@QAEXKK@Z
	DD	2 DUP(00H)
	DD	2 DUP(00H)
	DD	00H
	DD	01H
xdata$x	ENDS
;	COMDAT xdata$x
xdata$x	SEGMENT
__unwindtable$?Process@CBuffMgr@@QAEXXZ DD 0ffffffffH
	DD	FLAT:__unwindfunclet$?Process@CBuffMgr@@QAEXXZ$0
__ehfuncinfo$?Process@CBuffMgr@@QAEXXZ DD 019930522H
	DD	01H
	DD	FLAT:__unwindtable$?Process@CBuffMgr@@QAEXXZ
	DD	2 DUP(00H)
	DD	2 DUP(00H)
	DD	00H
	DD	01H
xdata$x	ENDS
;	COMDAT xdata$x
xdata$x	SEGMENT
__unwindtable$?Add@CBuffMgr@@AAE_NPAVIBuff@@@Z DD 0ffffffffH
	DD	FLAT:__unwindfunclet$?Add@CBuffMgr@@AAE_NPAVIBuff@@@Z$2
__ehfuncinfo$?Add@CBuffMgr@@AAE_NPAVIBuff@@@Z DD 019930522H
	DD	01H
	DD	FLAT:__unwindtable$?Add@CBuffMgr@@AAE_NPAVIBuff@@@Z
	DD	2 DUP(00H)
	DD	2 DUP(00H)
	DD	00H
	DD	01H
xdata$x	ENDS
;	COMDAT xdata$x
xdata$x	SEGMENT
__unwindtable$??4CBuffMgr@@QAEAAV0@AAV0@@Z DD 0ffffffffH
	DD	FLAT:__unwindfunclet$??4CBuffMgr@@QAEAAV0@AAV0@@Z$2
__ehfuncinfo$??4CBuffMgr@@QAEAAV0@AAV0@@Z DD 019930522H
	DD	01H
	DD	FLAT:__unwindtable$??4CBuffMgr@@QAEAAV0@AAV0@@Z
	DD	2 DUP(00H)
	DD	2 DUP(00H)
	DD	00H
	DD	01H
xdata$x	ENDS
;	COMDAT xdata$x
xdata$x	SEGMENT
__unwindtable$?Serialize@CBuffMgr@@QAEXAAVCAr@@@Z DD 0ffffffffH
	DD	FLAT:__unwindfunclet$?Serialize@CBuffMgr@@QAEXAAVCAr@@@Z$2
__ehfuncinfo$?Serialize@CBuffMgr@@QAEXAAVCAr@@@Z DD 019930522H
	DD	01H
	DD	FLAT:__unwindtable$?Serialize@CBuffMgr@@QAEXAAVCAr@@@Z
	DD	2 DUP(00H)
	DD	2 DUP(00H)
	DD	00H
	DD	01H
xdata$x	ENDS
;	COMDAT xdata$x
xdata$x	SEGMENT
__unwindtable$?Release@IBuffItemBase@@UAEXPAVCBuffMgr@@@Z DD 0ffffffffH
	DD	FLAT:__unwindfunclet$?Release@IBuffItemBase@@UAEXPAVCBuffMgr@@@Z$2
	DD	0ffffffffH
	DD	FLAT:__unwindfunclet$?Release@IBuffItemBase@@UAEXPAVCBuffMgr@@@Z$0
	DD	0ffffffffH
	DD	FLAT:__unwindfunclet$?Release@IBuffItemBase@@UAEXPAVCBuffMgr@@@Z$1
__ehfuncinfo$?Release@IBuffItemBase@@UAEXPAVCBuffMgr@@@Z DD 019930522H
	DD	03H
	DD	FLAT:__unwindtable$?Release@IBuffItemBase@@UAEXPAVCBuffMgr@@@Z
	DD	2 DUP(00H)
	DD	2 DUP(00H)
	DD	00H
	DD	01H
xdata$x	ENDS
;	COMDAT xdata$x
xdata$x	SEGMENT
__unwindtable$??0?$CStringT@DV?$StrTraitMFC@DV?$ChTraitsCRT@D@ATL@@@@@ATL@@QAE@PBD@Z DD 0ffffffffH
	DD	FLAT:__unwindfunclet$??0?$CStringT@DV?$StrTraitMFC@DV?$ChTraitsCRT@D@ATL@@@@@ATL@@QAE@PBD@Z$0
__ehfuncinfo$??0?$CStringT@DV?$StrTraitMFC@DV?$ChTraitsCRT@D@ATL@@@@@ATL@@QAE@PBD@Z DD 019930522H
	DD	01H
	DD	FLAT:__unwindtable$??0?$CStringT@DV?$StrTraitMFC@DV?$ChTraitsCRT@D@ATL@@@@@ATL@@QAE@PBD@Z
	DD	2 DUP(00H)
	DD	2 DUP(00H)
	DD	00H
	DD	01H
xdata$x	ENDS
; Function compile flags: /Ogtp
; File C:\Program Files\Microsoft Visual Studio\2022\Professional\VC\Tools\MSVC\14.44.35207\include\vector
; File C:\Program Files\Microsoft Visual Studio\2022\Professional\VC\Tools\MSVC\14.44.35207\include\xmemory
; File C:\Program Files\Microsoft Visual Studio\2022\Professional\VC\Tools\MSVC\14.44.35207\include\vector
; File C:\Program Files\Microsoft Visual Studio\2022\Professional\VC\Tools\MSVC\14.44.35207\include\xmemory
; File C:\Program Files\Microsoft Visual Studio\2022\Professional\VC\Tools\MSVC\14.44.35207\include\vector
; File C:\Program Files\Microsoft Visual Studio\2022\Professional\VC\Tools\MSVC\14.44.35207\include\xmemory
; File C:\Program Files\Microsoft Visual Studio\2022\Professional\VC\Tools\MSVC\14.44.35207\include\vector
; File C:\Program Files\Microsoft Visual Studio\2022\Professional\VC\Tools\MSVC\14.44.35207\include\xmemory
; File C:\Program Files\Microsoft Visual Studio\2022\Professional\VC\Tools\MSVC\14.44.35207\include\vector
; File C:\Program Files\Microsoft Visual Studio\2022\Professional\VC\Tools\MSVC\14.44.35207\include\xmemory
; File C:\Program Files\Microsoft Visual Studio\2022\Professional\VC\Tools\MSVC\14.44.35207\include\vector
; File C:\Program Files\Microsoft Visual Studio\2022\Professional\VC\Tools\MSVC\14.44.35207\include\xmemory
; File C:\Program Files\Microsoft Visual Studio\2022\Professional\VC\Tools\MSVC\14.44.35207\include\vector
; File C:\Program Files\Microsoft Visual Studio\2022\Professional\VC\Tools\MSVC\14.44.35207\include\xmemory
; File C:\Program Files\Microsoft Visual Studio\2022\Professional\VC\Tools\MSVC\14.44.35207\include\vector
; File C:\Program Files\Microsoft Visual Studio\2022\Professional\VC\Tools\MSVC\14.44.35207\include\xmemory
; File C:\Program Files\Microsoft Visual Studio\2022\Professional\VC\Tools\MSVC\14.44.35207\include\vector
;	COMDAT ??$_Emplace_reallocate@J@?$vector@JV?$allocator@J@std@@@std@@AAEPAJQAJ$$QAJ@Z
_TEXT	SEGMENT
__Newsize$1$ = -12					; size = 4
tv652 = -8						; size = 4
tv650 = -4						; size = 4
__Whereptr$ = 8						; size = 4
_<_Val_0>$ = 12						; size = 4
??$_Emplace_reallocate@J@?$vector@JV?$allocator@J@std@@@std@@AAEPAJQAJ$$QAJ@Z PROC ; std::vector<long,std::allocator<long> >::_Emplace_reallocate<long>, COMDAT
; _this$ = ecx

; 875  :     _CONSTEXPR20 pointer _Emplace_reallocate(const pointer _Whereptr, _Valty&&... _Val) {

  00000	55		 push	 ebp
  00001	8b ec		 mov	 ebp, esp
  00003	83 ec 0c	 sub	 esp, 12			; 0000000cH
  00006	53		 push	 ebx

; 876  :         // reallocate and insert by perfectly forwarding _Val at _Whereptr
; 877  :         _Alty& _Al        = _Getal();
; 878  :         auto& _My_data    = _Mypair._Myval2;
; 879  :         pointer& _Myfirst = _My_data._Myfirst;
; 880  :         pointer& _Mylast  = _My_data._Mylast;
; 881  : 
; 882  :         _STL_INTERNAL_CHECK(_Mylast == _My_data._Myend); // check that we have no unused capacity
; 883  : 
; 884  :         const auto _Whereoff = static_cast<size_type>(_Whereptr - _Myfirst);

  00007	8b 5d 08	 mov	 ebx, DWORD PTR __Whereptr$[ebp]
  0000a	56		 push	 esi
  0000b	8b f1		 mov	 esi, ecx
  0000d	57		 push	 edi
  0000e	8b 0e		 mov	 ecx, DWORD PTR [esi]
  00010	2b d9		 sub	 ebx, ecx

; 885  :         const auto _Oldsize  = static_cast<size_type>(_Mylast - _Myfirst);

  00012	8b 46 04	 mov	 eax, DWORD PTR [esi+4]
  00015	2b c1		 sub	 eax, ecx
  00017	c1 fb 02	 sar	 ebx, 2
  0001a	c1 f8 02	 sar	 eax, 2

; 886  : 
; 887  :         if (_Oldsize == max_size()) {

  0001d	3d ff ff ff 3f	 cmp	 eax, 1073741823		; 3fffffffH
  00022	0f 84 13 01 00
	00		 je	 $LN111@Emplace_re

; 1924 :         return static_cast<size_type>(_My_data._Myend - _My_data._Myfirst);

  00028	8b 56 08	 mov	 edx, DWORD PTR [esi+8]

; 889  :         }
; 890  : 
; 891  :         const size_type _Newsize = _Oldsize + 1;

  0002b	8d 78 01	 lea	 edi, DWORD PTR [eax+1]

; 1924 :         return static_cast<size_type>(_My_data._Myend - _My_data._Myfirst);

  0002e	2b d1		 sub	 edx, ecx

; 889  :         }
; 890  : 
; 891  :         const size_type _Newsize = _Oldsize + 1;

  00030	89 7d f4	 mov	 DWORD PTR __Newsize$1$[ebp], edi

; 1924 :         return static_cast<size_type>(_My_data._Myend - _My_data._Myfirst);

  00033	c1 fa 02	 sar	 edx, 2

; 2011 :         if (_Oldcapacity > _Max - _Oldcapacity / 2) {

  00036	b8 ff ff ff 3f	 mov	 eax, 1073741823		; 3fffffffH
  0003b	8b ca		 mov	 ecx, edx
  0003d	d1 e9		 shr	 ecx, 1
  0003f	2b c1		 sub	 eax, ecx
  00041	3b d0		 cmp	 edx, eax
  00043	76 14		 jbe	 SHORT $LN8@Emplace_re

; 2012 :             return _Max; // geometric growth would overflow

  00045	b8 fc ff ff ff	 mov	 eax, -4			; fffffffcH
  0004a	c7 45 f8 fc ff
	ff ff		 mov	 DWORD PTR tv652[ebp], -4 ; fffffffcH
; File C:\Program Files\Microsoft Visual Studio\2022\Professional\VC\Tools\MSVC\14.44.35207\include\xmemory

; 253  :             return _Allocate_manually_vector_aligned<_Traits>(_Bytes);

  00051	50		 push	 eax
  00052	e8 00 00 00 00	 call	 ??$_Allocate_manually_vector_aligned@U_Default_allocate_traits@std@@@std@@YAPAXI@Z ; std::_Allocate_manually_vector_aligned<std::_Default_allocate_traits>
  00057	eb 3d		 jmp	 SHORT $LN109@Emplace_re
$LN8@Emplace_re:
; File C:\Program Files\Microsoft Visual Studio\2022\Professional\VC\Tools\MSVC\14.44.35207\include\vector

; 2015 :         const size_type _Geometric = _Oldcapacity + _Oldcapacity / 2;

  00059	8d 04 11	 lea	 eax, DWORD PTR [ecx+edx]
; File C:\Program Files\Microsoft Visual Studio\2022\Professional\VC\Tools\MSVC\14.44.35207\include\xmemory

; 117  :         if (_Count > _Max_possible) {

  0005c	8b cf		 mov	 ecx, edi
  0005e	3b c7		 cmp	 eax, edi
  00060	0f 43 c8	 cmovae	 ecx, eax
  00063	81 f9 ff ff ff
	3f		 cmp	 ecx, 1073741823		; 3fffffffH
  00069	0f 87 d1 00 00
	00		 ja	 $LN112@Emplace_re

; 119  :         }
; 120  :     }
; 121  : 
; 122  :     return _Count * _Ty_size;

  0006f	8d 04 8d 00 00
	00 00		 lea	 eax, DWORD PTR [ecx*4]
  00076	89 45 f8	 mov	 DWORD PTR tv652[ebp], eax

; 227  :     if (_Bytes == 0) {

  00079	85 c0		 test	 eax, eax
  0007b	75 04		 jne	 SHORT $LN23@Emplace_re

; 228  :         return nullptr;

  0007d	33 ff		 xor	 edi, edi
  0007f	eb 1a		 jmp	 SHORT $LN22@Emplace_re
$LN23@Emplace_re:

; 229  :     }
; 230  : 
; 231  : #if _HAS_CXX20 // TRANSITION, GH-1532
; 232  :     if (_STD is_constant_evaluated()) {
; 233  :         return _Traits::_Allocate(_Bytes);
; 234  :     }
; 235  : #endif // _HAS_CXX20
; 236  : 
; 237  : #ifdef __cpp_aligned_new
; 238  :     if constexpr (_Align > __STDCPP_DEFAULT_NEW_ALIGNMENT__) {
; 239  :         size_t _Passed_align = _Align;
; 240  : #if defined(_M_IX86) || defined(_M_X64)
; 241  :         if (_Bytes >= _Big_allocation_threshold) {
; 242  :             // boost the alignment of big allocations to help autovectorization
; 243  :             _Passed_align = (_STD max)(_Align, _Big_allocation_alignment);
; 244  :         }
; 245  : #endif // defined(_M_IX86) || defined(_M_X64)
; 246  :         return _Traits::_Allocate_aligned(_Bytes, _Passed_align);
; 247  :     } else
; 248  : #endif // defined(__cpp_aligned_new)
; 249  :     {
; 250  : #if defined(_M_IX86) || defined(_M_X64)
; 251  :         if (_Bytes >= _Big_allocation_threshold) {

  00081	3d 00 10 00 00	 cmp	 eax, 4096		; 00001000H
  00086	72 08		 jb	 SHORT $LN24@Emplace_re

; 253  :             return _Allocate_manually_vector_aligned<_Traits>(_Bytes);

  00088	50		 push	 eax
  00089	e8 00 00 00 00	 call	 ??$_Allocate_manually_vector_aligned@U_Default_allocate_traits@std@@@std@@YAPAXI@Z ; std::_Allocate_manually_vector_aligned<std::_Default_allocate_traits>
  0008e	eb 06		 jmp	 SHORT $LN109@Emplace_re
$LN24@Emplace_re:

; 136  :         return ::operator new(_Bytes);

  00090	50		 push	 eax
  00091	e8 00 00 00 00	 call	 ??2@YAPAXI@Z		; operator new
$LN109@Emplace_re:
; File C:\Program Files\Microsoft Visual Studio\2022\Professional\VC\Tools\MSVC\14.44.35207\include\vector

; 900  :         _Alty_traits::construct(_Al, _STD _Unfancy(_Newvec + _Whereoff), _STD forward<_Valty>(_Val)...);

  00096	8b f8		 mov	 edi, eax
  00098	83 c4 04	 add	 esp, 4
$LN22@Emplace_re:
  0009b	8b 45 0c	 mov	 eax, DWORD PTR _<_Val_0>$[ebp]
  0009e	8d 0c 9f	 lea	 ecx, DWORD PTR [edi+ebx*4]

; 901  :         _Constructed_first = _Newvec + _Whereoff;
; 902  : 
; 903  :         if (_Whereptr == _Mylast) { // at back, provide strong guarantee

  000a1	8b 5d 08	 mov	 ebx, DWORD PTR __Whereptr$[ebp]
  000a4	89 4d fc	 mov	 DWORD PTR tv650[ebp], ecx
  000a7	8b 00		 mov	 eax, DWORD PTR [eax]
  000a9	89 01		 mov	 DWORD PTR [ecx], eax
  000ab	8b 46 04	 mov	 eax, DWORD PTR [esi+4]
  000ae	8b 0e		 mov	 ecx, DWORD PTR [esi]
  000b0	3b d8		 cmp	 ebx, eax
  000b2	75 07		 jne	 SHORT $LN3@Emplace_re

; 909  :         } else { // provide basic guarantee

  000b4	8b 5d fc	 mov	 ebx, DWORD PTR tv650[ebp]
; File C:\Program Files\Microsoft Visual Studio\2022\Professional\VC\Tools\MSVC\14.44.35207\include\xmemory

; 1992 :             _STD _Copy_memmove(_UFirst, _ULast, _STD _Unfancy(_Dest));

  000b7	8b d7		 mov	 edx, edi
; File C:\Program Files\Microsoft Visual Studio\2022\Professional\VC\Tools\MSVC\14.44.35207\include\vector

; 909  :         } else { // provide basic guarantee

  000b9	eb 16		 jmp	 SHORT $LN52@Emplace_re
$LN3@Emplace_re:
; File C:\Program Files\Microsoft Visual Studio\2022\Professional\VC\Tools\MSVC\14.44.35207\include\xmemory

; 1992 :             _STD _Copy_memmove(_UFirst, _ULast, _STD _Unfancy(_Dest));

  000bb	57		 push	 edi
  000bc	53		 push	 ebx
  000bd	51		 push	 ecx
  000be	e8 00 00 00 00	 call	 ??$_Copy_memmove@PAJPAJ@std@@YAPAJPAJ00@Z ; std::_Copy_memmove<long *,long *>
  000c3	8b 46 04	 mov	 eax, DWORD PTR [esi+4]
  000c6	8b cb		 mov	 ecx, ebx
; File C:\Program Files\Microsoft Visual Studio\2022\Professional\VC\Tools\MSVC\14.44.35207\include\vector

; 912  :             _STD _Uninitialized_move(_Whereptr, _Mylast, _Newvec + _Whereoff + 1, _Al);

  000c8	8b 5d fc	 mov	 ebx, DWORD PTR tv650[ebp]
; File C:\Program Files\Microsoft Visual Studio\2022\Professional\VC\Tools\MSVC\14.44.35207\include\xmemory

; 1992 :             _STD _Copy_memmove(_UFirst, _ULast, _STD _Unfancy(_Dest));

  000cb	83 c4 0c	 add	 esp, 12			; 0000000cH
; File C:\Program Files\Microsoft Visual Studio\2022\Professional\VC\Tools\MSVC\14.44.35207\include\vector

; 912  :             _STD _Uninitialized_move(_Whereptr, _Mylast, _Newvec + _Whereoff + 1, _Al);

  000ce	8d 53 04	 lea	 edx, DWORD PTR [ebx+4]
$LN52@Emplace_re:

; 913  :         }
; 914  : 
; 915  :         _Guard._New_begin = nullptr;

  000d1	52		 push	 edx
  000d2	50		 push	 eax
  000d3	51		 push	 ecx
  000d4	e8 00 00 00 00	 call	 ??$_Copy_memmove@PAJPAJ@std@@YAPAJPAJ00@Z ; std::_Copy_memmove<long *,long *>

; 2069 :         if (_Myfirst) { // destroy and deallocate old array

  000d9	8b 06		 mov	 eax, DWORD PTR [esi]

; 913  :         }
; 914  : 
; 915  :         _Guard._New_begin = nullptr;

  000db	83 c4 0c	 add	 esp, 12			; 0000000cH

; 2069 :         if (_Myfirst) { // destroy and deallocate old array

  000de	85 c0		 test	 eax, eax
  000e0	74 2c		 je	 SHORT $LN72@Emplace_re

; 2070 :             _STD _Destroy_range(_Myfirst, _Mylast, _Al);
; 2071 :             _ASAN_VECTOR_REMOVE;
; 2072 :             _Al.deallocate(_Myfirst, static_cast<size_type>(_Myend - _Myfirst));

  000e2	8b 4e 08	 mov	 ecx, DWORD PTR [esi+8]
  000e5	2b c8		 sub	 ecx, eax
; File C:\Program Files\Microsoft Visual Studio\2022\Professional\VC\Tools\MSVC\14.44.35207\include\xmemory

; 985  :         _STD _Deallocate<_New_alignof<_Ty>>(_Ptr, sizeof(_Ty) * _Count);

  000e7	83 e1 fc	 and	 ecx, -4			; fffffffcH

; 284  :         if (_Bytes >= _Big_allocation_threshold) {

  000ea	81 f9 00 10 00
	00		 cmp	 ecx, 4096		; 00001000H
  000f0	72 12		 jb	 SHORT $LN77@Emplace_re

; 205  :     const uintptr_t _Ptr_container   = _Ptr_user[-1];

  000f2	8b 50 fc	 mov	 edx, DWORD PTR [eax-4]
  000f5	83 c1 23	 add	 ecx, 35			; 00000023H

; 206  : 
; 207  :     // If the following asserts, it likely means that we are performing
; 208  :     // an aligned delete on memory coming from an unaligned allocation.
; 209  :     _STL_ASSERT(_Ptr_user[-2] == _Big_allocation_sentinel, "invalid argument");
; 210  : 
; 211  :     // Extra paranoia on aligned allocation/deallocation; ensure _Ptr_container is
; 212  :     // in range [_Min_back_shift, _Non_user_size]
; 213  : #ifdef _DEBUG
; 214  :     constexpr uintptr_t _Min_back_shift = 2 * sizeof(void*);
; 215  : #else // ^^^ defined(_DEBUG) / !defined(_DEBUG) vvv
; 216  :     constexpr uintptr_t _Min_back_shift = sizeof(void*);
; 217  : #endif // ^^^ !defined(_DEBUG) ^^^
; 218  :     const uintptr_t _Back_shift = reinterpret_cast<uintptr_t>(_Ptr) - _Ptr_container;

  000f8	2b c2		 sub	 eax, edx

; 219  :     _STL_VERIFY(_Back_shift >= _Min_back_shift && _Back_shift <= _Non_user_size, "invalid argument");

  000fa	83 c0 fc	 add	 eax, -4			; fffffffcH
  000fd	83 f8 1f	 cmp	 eax, 31			; 0000001fH
  00100	77 2a		 ja	 SHORT $LN76@Emplace_re

; 220  :     _Ptr = reinterpret_cast<void*>(_Ptr_container);

  00102	8b c2		 mov	 eax, edx
$LN77@Emplace_re:

; 289  :         ::operator delete(_Ptr, _Bytes);

  00104	51		 push	 ecx
  00105	50		 push	 eax
  00106	e8 00 00 00 00	 call	 ??3@YAXPAXI@Z		; operator delete
  0010b	83 c4 08	 add	 esp, 8
$LN72@Emplace_re:
; File C:\Program Files\Microsoft Visual Studio\2022\Professional\VC\Tools\MSVC\14.44.35207\include\vector

; 2076 :         _Mylast  = _Newvec + _Newsize;

  0010e	8b 45 f4	 mov	 eax, DWORD PTR __Newsize$1$[ebp]
  00111	89 3e		 mov	 DWORD PTR [esi], edi
  00113	8d 0c 87	 lea	 ecx, DWORD PTR [edi+eax*4]

; 916  :         _Change_array(_Newvec, _Newsize, _Newcapacity);
; 917  :         return _Newvec + _Whereoff;

  00116	8b c3		 mov	 eax, ebx

; 2076 :         _Mylast  = _Newvec + _Newsize;

  00118	89 4e 04	 mov	 DWORD PTR [esi+4], ecx

; 2077 :         _Myend   = _Newvec + _Newcapacity;

  0011b	8b 4d f8	 mov	 ecx, DWORD PTR tv652[ebp]
  0011e	03 cf		 add	 ecx, edi

; 918  :     }

  00120	5f		 pop	 edi

; 2077 :         _Myend   = _Newvec + _Newcapacity;

  00121	89 4e 08	 mov	 DWORD PTR [esi+8], ecx

; 918  :     }

  00124	5e		 pop	 esi
  00125	5b		 pop	 ebx
  00126	8b e5		 mov	 esp, ebp
  00128	5d		 pop	 ebp
  00129	c2 08 00	 ret	 8
$LN76@Emplace_re:
; File C:\Program Files\Microsoft Visual Studio\2022\Professional\VC\Tools\MSVC\14.44.35207\include\xmemory

; 219  :     _STL_VERIFY(_Back_shift >= _Min_back_shift && _Back_shift <= _Non_user_size, "invalid argument");

  0012c	6a 00		 push	 0
  0012e	6a 00		 push	 0
  00130	6a 00		 push	 0
  00132	6a 00		 push	 0
  00134	6a 00		 push	 0
  00136	e8 00 00 00 00	 call	 __invoke_watson
$LN111@Emplace_re:
; File C:\Program Files\Microsoft Visual Studio\2022\Professional\VC\Tools\MSVC\14.44.35207\include\vector

; 888  :             _Xlength();

  0013b	e8 00 00 00 00	 call	 ?_Xlength@?$vector@JV?$allocator@J@std@@@std@@CAXXZ ; std::vector<long,std::allocator<long> >::_Xlength
$LN112@Emplace_re:
; File C:\Program Files\Microsoft Visual Studio\2022\Professional\VC\Tools\MSVC\14.44.35207\include\xmemory

; 118  :             _Throw_bad_array_new_length(); // multiply overflow

  00140	e8 00 00 00 00	 call	 ?_Throw_bad_array_new_length@std@@YAXXZ ; std::_Throw_bad_array_new_length
$LN108@Emplace_re:
  00145	cc		 int	 3
??$_Emplace_reallocate@J@?$vector@JV?$allocator@J@std@@@std@@AAEPAJQAJ$$QAJ@Z ENDP ; std::vector<long,std::allocator<long> >::_Emplace_reallocate<long>
_TEXT	ENDS
; Function compile flags: /Ogtp
; File C:\Program Files\Microsoft Visual Studio\2022\Professional\VC\Tools\MSVC\14.44.35207\include\xtree
; File C:\Program Files\Microsoft Visual Studio\2022\Professional\VC\Tools\MSVC\14.44.35207\include\utility
; File C:\Program Files\Microsoft Visual Studio\2022\Professional\VC\Tools\MSVC\14.44.35207\include\xmemory
; File C:\Program Files\Microsoft Visual Studio\2022\Professional\VC\Tools\MSVC\14.44.35207\include\xtree
;	COMDAT ??$_Erase_tree@V?$allocator@U?$_Tree_node@U?$pair@$$CBKPAVIBuff@@@std@@PAX@std@@@std@@@?$_Tree_val@U?$_Tree_simple_types@U?$pair@$$CBKPAVIBuff@@@std@@@std@@@std@@QAEXAAV?$allocator@U?$_Tree_node@U?$pair@$$CBKPAVIBuff@@@std@@PAX@std@@@1@PAU?$_Tree_node@U?$pair@$$CBKPAVIBuff@@@std@@PAX@1@@Z
_TEXT	SEGMENT
__Al$ = 8						; size = 4
__Rootnode$ = 12					; size = 4
??$_Erase_tree@V?$allocator@U?$_Tree_node@U?$pair@$$CBKPAVIBuff@@@std@@PAX@std@@@std@@@?$_Tree_val@U?$_Tree_simple_types@U?$pair@$$CBKPAVIBuff@@@std@@@std@@@std@@QAEXAAV?$allocator@U?$_Tree_node@U?$pair@$$CBKPAVIBuff@@@std@@PAX@std@@@1@PAU?$_Tree_node@U?$pair@$$CBKPAVIBuff@@@std@@PAX@1@@Z PROC ; std::_Tree_val<std::_Tree_simple_types<std::pair<unsigned long const ,IBuff *> > >::_Erase_tree<std::allocator<std::_Tree_node<std::pair<unsigned long const ,IBuff *>,void *> > >, COMDAT
; _this$ = ecx

; 767  :     void _Erase_tree(_Alnode& _Al, _Nodeptr _Rootnode) noexcept {

  00000	55		 push	 ebp
  00001	8b ec		 mov	 ebp, esp
  00003	53		 push	 ebx
  00004	56		 push	 esi

; 768  :         while (!_Rootnode->_Isnil) { // free subtrees, then node

  00005	8b 75 0c	 mov	 esi, DWORD PTR __Rootnode$[ebp]
  00008	8b d9		 mov	 ebx, ecx
  0000a	80 7e 0d 00	 cmp	 BYTE PTR [esi+13], 0
  0000e	75 25		 jne	 SHORT $LN34@Erase_tree
  00010	57		 push	 edi
  00011	8b 7d 08	 mov	 edi, DWORD PTR __Al$[ebp]
$LL2@Erase_tree:

; 769  :             _Erase_tree(_Al, _Rootnode->_Right);

  00014	ff 76 08	 push	 DWORD PTR [esi+8]
  00017	8b cb		 mov	 ecx, ebx
  00019	57		 push	 edi
  0001a	e8 00 00 00 00	 call	 ??$_Erase_tree@V?$allocator@U?$_Tree_node@U?$pair@$$CBKPAVIBuff@@@std@@PAX@std@@@std@@@?$_Tree_val@U?$_Tree_simple_types@U?$pair@$$CBKPAVIBuff@@@std@@@std@@@std@@QAEXAAV?$allocator@U?$_Tree_node@U?$pair@$$CBKPAVIBuff@@@std@@PAX@std@@@1@PAU?$_Tree_node@U?$pair@$$CBKPAVIBuff@@@std@@PAX@1@@Z ; std::_Tree_val<std::_Tree_simple_types<std::pair<unsigned long const ,IBuff *> > >::_Erase_tree<std::allocator<std::_Tree_node<std::pair<unsigned long const ,IBuff *>,void *> > >
; File C:\Program Files\Microsoft Visual Studio\2022\Professional\VC\Tools\MSVC\14.44.35207\include\utility

; 773  :     _Ty _Old_val = static_cast<_Ty&&>(_Val);

  0001f	8b c6		 mov	 eax, esi

; 774  :     _Val         = static_cast<_Other&&>(_New_val);

  00021	8b 36		 mov	 esi, DWORD PTR [esi]
; File C:\Program Files\Microsoft Visual Studio\2022\Professional\VC\Tools\MSVC\14.44.35207\include\xmemory

; 289  :         ::operator delete(_Ptr, _Bytes);

  00023	6a 18		 push	 24			; 00000018H
  00025	50		 push	 eax
  00026	e8 00 00 00 00	 call	 ??3@YAXPAXI@Z		; operator delete
  0002b	83 c4 08	 add	 esp, 8
; File C:\Program Files\Microsoft Visual Studio\2022\Professional\VC\Tools\MSVC\14.44.35207\include\xtree

; 768  :         while (!_Rootnode->_Isnil) { // free subtrees, then node

  0002e	80 7e 0d 00	 cmp	 BYTE PTR [esi+13], 0
  00032	74 e0		 je	 SHORT $LL2@Erase_tree
  00034	5f		 pop	 edi
$LN34@Erase_tree:
  00035	5e		 pop	 esi

; 770  :             _Alnode::value_type::_Freenode(_Al, _STD exchange(_Rootnode, _Rootnode->_Left));
; 771  :         }
; 772  :     }

  00036	5b		 pop	 ebx
  00037	5d		 pop	 ebp
  00038	c2 08 00	 ret	 8
??$_Erase_tree@V?$allocator@U?$_Tree_node@U?$pair@$$CBKPAVIBuff@@@std@@PAX@std@@@std@@@?$_Tree_val@U?$_Tree_simple_types@U?$pair@$$CBKPAVIBuff@@@std@@@std@@@std@@QAEXAAV?$allocator@U?$_Tree_node@U?$pair@$$CBKPAVIBuff@@@std@@PAX@std@@@1@PAU?$_Tree_node@U?$pair@$$CBKPAVIBuff@@@std@@PAX@1@@Z ENDP ; std::_Tree_val<std::_Tree_simple_types<std::pair<unsigned long const ,IBuff *> > >::_Erase_tree<std::allocator<std::_Tree_node<std::pair<unsigned long const ,IBuff *>,void *> > >
_TEXT	ENDS
; Function compile flags: /Ogtp
; File C:\IAGOS\server\v18\Source\Source\_Network\Misc\Include\ar.h
;	COMDAT ??$?5I@CAr@@QAEAAV0@AAI@Z
_TEXT	SEGMENT
_t$ = 8							; size = 4
??$?5I@CAr@@QAEAAV0@AAI@Z PROC				; CAr::operator>><unsigned int>, COMDAT
; _this$ = ecx

; 302  : {

  00000	55		 push	 ebp
  00001	8b ec		 mov	 ebp, esp
  00003	8b d1		 mov	 edx, ecx

; 303  : 	if (m_lpBufCur + sizeof(T) <= m_lpBufMax)

  00005	8b 4a 08	 mov	 ecx, DWORD PTR [edx+8]
  00008	8d 41 04	 lea	 eax, DWORD PTR [ecx+4]
  0000b	3b 42 0c	 cmp	 eax, DWORD PTR [edx+12]
  0000e	8b 45 08	 mov	 eax, DWORD PTR _t$[ebp]
  00011	77 0e		 ja	 SHORT $LN2@operator

; 304  : 	{
; 305  : 		t = *(UNALIGNED T*)m_lpBufCur;

  00013	8b 09		 mov	 ecx, DWORD PTR [ecx]
  00015	89 08		 mov	 DWORD PTR [eax], ecx

; 312  : 	}
; 313  : 	return *this;
; 314  : }

  00017	8b c2		 mov	 eax, edx
  00019	83 42 08 04	 add	 DWORD PTR [edx+8], 4
  0001d	5d		 pop	 ebp
  0001e	c2 04 00	 ret	 4
$LN2@operator:

; 306  : 		m_lpBufCur += sizeof(T);
; 307  : 	}
; 308  : 	else
; 309  : 	{
; 310  : 		t = T();

  00021	c7 00 00 00 00
	00		 mov	 DWORD PTR [eax], 0

; 311  : 		m_lpBufCur = m_lpBufMax;

  00027	8b 42 0c	 mov	 eax, DWORD PTR [edx+12]
  0002a	89 42 08	 mov	 DWORD PTR [edx+8], eax

; 312  : 	}
; 313  : 	return *this;
; 314  : }

  0002d	8b c2		 mov	 eax, edx
  0002f	5d		 pop	 ebp
  00030	c2 04 00	 ret	 4
??$?5I@CAr@@QAEAAV0@AAI@Z ENDP				; CAr::operator>><unsigned int>
_TEXT	ENDS
; Function compile flags: /Ogtp
; File C:\IAGOS\server\v18\Source\Source\_Network\Misc\Include\ar.h
;	COMDAT ??$?5J@CAr@@QAEAAV0@AAJ@Z
_TEXT	SEGMENT
_t$ = 8							; size = 4
??$?5J@CAr@@QAEAAV0@AAJ@Z PROC				; CAr::operator>><long>, COMDAT
; _this$ = ecx

; 302  : {

  00000	55		 push	 ebp
  00001	8b ec		 mov	 ebp, esp
  00003	8b d1		 mov	 edx, ecx

; 303  : 	if (m_lpBufCur + sizeof(T) <= m_lpBufMax)

  00005	8b 4a 08	 mov	 ecx, DWORD PTR [edx+8]
  00008	8d 41 04	 lea	 eax, DWORD PTR [ecx+4]
  0000b	3b 42 0c	 cmp	 eax, DWORD PTR [edx+12]
  0000e	8b 45 08	 mov	 eax, DWORD PTR _t$[ebp]
  00011	77 0e		 ja	 SHORT $LN2@operator

; 304  : 	{
; 305  : 		t = *(UNALIGNED T*)m_lpBufCur;

  00013	8b 09		 mov	 ecx, DWORD PTR [ecx]
  00015	89 08		 mov	 DWORD PTR [eax], ecx

; 312  : 	}
; 313  : 	return *this;
; 314  : }

  00017	8b c2		 mov	 eax, edx
  00019	83 42 08 04	 add	 DWORD PTR [edx+8], 4
  0001d	5d		 pop	 ebp
  0001e	c2 04 00	 ret	 4
$LN2@operator:

; 306  : 		m_lpBufCur += sizeof(T);
; 307  : 	}
; 308  : 	else
; 309  : 	{
; 310  : 		t = T();

  00021	c7 00 00 00 00
	00		 mov	 DWORD PTR [eax], 0

; 311  : 		m_lpBufCur = m_lpBufMax;

  00027	8b 42 0c	 mov	 eax, DWORD PTR [edx+12]
  0002a	89 42 08	 mov	 DWORD PTR [edx+8], eax

; 312  : 	}
; 313  : 	return *this;
; 314  : }

  0002d	8b c2		 mov	 eax, edx
  0002f	5d		 pop	 ebp
  00030	c2 04 00	 ret	 4
??$?5J@CAr@@QAEAAV0@AAJ@Z ENDP				; CAr::operator>><long>
_TEXT	ENDS
; Function compile flags: /Ogtp
; File C:\IAGOS\server\v18\Source\Source\_Network\Misc\Include\ar.h
;	COMDAT ??$?5K@CAr@@QAEAAV0@AAK@Z
_TEXT	SEGMENT
_t$ = 8							; size = 4
??$?5K@CAr@@QAEAAV0@AAK@Z PROC				; CAr::operator>><unsigned long>, COMDAT
; _this$ = ecx

; 302  : {

  00000	55		 push	 ebp
  00001	8b ec		 mov	 ebp, esp
  00003	8b d1		 mov	 edx, ecx

; 303  : 	if (m_lpBufCur + sizeof(T) <= m_lpBufMax)

  00005	8b 4a 08	 mov	 ecx, DWORD PTR [edx+8]
  00008	8d 41 04	 lea	 eax, DWORD PTR [ecx+4]
  0000b	3b 42 0c	 cmp	 eax, DWORD PTR [edx+12]
  0000e	8b 45 08	 mov	 eax, DWORD PTR _t$[ebp]
  00011	77 0e		 ja	 SHORT $LN2@operator

; 304  : 	{
; 305  : 		t = *(UNALIGNED T*)m_lpBufCur;

  00013	8b 09		 mov	 ecx, DWORD PTR [ecx]
  00015	89 08		 mov	 DWORD PTR [eax], ecx

; 312  : 	}
; 313  : 	return *this;
; 314  : }

  00017	8b c2		 mov	 eax, edx
  00019	83 42 08 04	 add	 DWORD PTR [edx+8], 4
  0001d	5d		 pop	 ebp
  0001e	c2 04 00	 ret	 4
$LN2@operator:

; 306  : 		m_lpBufCur += sizeof(T);
; 307  : 	}
; 308  : 	else
; 309  : 	{
; 310  : 		t = T();

  00021	c7 00 00 00 00
	00		 mov	 DWORD PTR [eax], 0

; 311  : 		m_lpBufCur = m_lpBufMax;

  00027	8b 42 0c	 mov	 eax, DWORD PTR [edx+12]
  0002a	89 42 08	 mov	 DWORD PTR [edx+8], eax

; 312  : 	}
; 313  : 	return *this;
; 314  : }

  0002d	8b c2		 mov	 eax, edx
  0002f	5d		 pop	 ebp
  00030	c2 04 00	 ret	 4
??$?5K@CAr@@QAEAAV0@AAK@Z ENDP				; CAr::operator>><unsigned long>
_TEXT	ENDS
; Function compile flags: /Ogtp
; File C:\IAGOS\server\v18\Source\Source\_Network\Misc\Include\ar.h
;	COMDAT ??$?6J@CAr@@QAEAAV0@ABJ@Z
_TEXT	SEGMENT
_t$ = 8							; size = 4
??$?6J@CAr@@QAEAAV0@ABJ@Z PROC				; CAr::operator<<<long>, COMDAT
; _this$ = ecx

; 255  : {

  00000	55		 push	 ebp
  00001	8b ec		 mov	 ebp, esp
  00003	56		 push	 esi

; 256  : 	CheckBuf(sizeof(T));

  00004	6a 04		 push	 4
  00006	8b f1		 mov	 esi, ecx
  00008	e8 00 00 00 00	 call	 ?CheckBuf@CAr@@QAEXI@Z	; CAr::CheckBuf

; 257  : 	*(UNALIGNED T*)m_lpBufCur = t;

  0000d	8b 56 08	 mov	 edx, DWORD PTR [esi+8]
  00010	8b 45 08	 mov	 eax, DWORD PTR _t$[ebp]
  00013	8b 00		 mov	 eax, DWORD PTR [eax]
  00015	89 02		 mov	 DWORD PTR [edx], eax

; 258  : 	m_lpBufCur += sizeof(T);
; 259  : 	return *this;

  00017	8b c6		 mov	 eax, esi
  00019	83 46 08 04	 add	 DWORD PTR [esi+8], 4
  0001d	5e		 pop	 esi

; 260  : }

  0001e	5d		 pop	 ebp
  0001f	c2 04 00	 ret	 4
??$?6J@CAr@@QAEAAV0@ABJ@Z ENDP				; CAr::operator<<<long>
_TEXT	ENDS
; Function compile flags: /Ogtp
; File C:\IAGOS\server\v18\Source\Source\_Network\Misc\Include\ar.h
;	COMDAT ??$?6K@CAr@@QAEAAV0@ABK@Z
_TEXT	SEGMENT
_t$ = 8							; size = 4
??$?6K@CAr@@QAEAAV0@ABK@Z PROC				; CAr::operator<<<unsigned long>, COMDAT
; _this$ = ecx

; 255  : {

  00000	55		 push	 ebp
  00001	8b ec		 mov	 ebp, esp
  00003	56		 push	 esi

; 256  : 	CheckBuf(sizeof(T));

  00004	6a 04		 push	 4
  00006	8b f1		 mov	 esi, ecx
  00008	e8 00 00 00 00	 call	 ?CheckBuf@CAr@@QAEXI@Z	; CAr::CheckBuf

; 257  : 	*(UNALIGNED T*)m_lpBufCur = t;

  0000d	8b 56 08	 mov	 edx, DWORD PTR [esi+8]
  00010	8b 45 08	 mov	 eax, DWORD PTR _t$[ebp]
  00013	8b 00		 mov	 eax, DWORD PTR [eax]
  00015	89 02		 mov	 DWORD PTR [edx], eax

; 258  : 	m_lpBufCur += sizeof(T);
; 259  : 	return *this;

  00017	8b c6		 mov	 eax, esi
  00019	83 46 08 04	 add	 DWORD PTR [esi+8], 4
  0001d	5e		 pop	 esi

; 260  : }

  0001e	5d		 pop	 ebp
  0001f	c2 04 00	 ret	 4
??$?6K@CAr@@QAEAAV0@ABK@Z ENDP				; CAr::operator<<<unsigned long>
_TEXT	ENDS
; Function compile flags: /Ogtp
; File C:\IAGOS\server\v18\Source\Source\_Network\Misc\Include\ar.h
;	COMDAT ??$?6I@CAr@@QAEAAV0@ABI@Z
_TEXT	SEGMENT
_t$ = 8							; size = 4
??$?6I@CAr@@QAEAAV0@ABI@Z PROC				; CAr::operator<<<unsigned int>, COMDAT
; _this$ = ecx

; 255  : {

  00000	55		 push	 ebp
  00001	8b ec		 mov	 ebp, esp
  00003	56		 push	 esi

; 256  : 	CheckBuf(sizeof(T));

  00004	6a 04		 push	 4
  00006	8b f1		 mov	 esi, ecx
  00008	e8 00 00 00 00	 call	 ?CheckBuf@CAr@@QAEXI@Z	; CAr::CheckBuf

; 257  : 	*(UNALIGNED T*)m_lpBufCur = t;

  0000d	8b 56 08	 mov	 edx, DWORD PTR [esi+8]
  00010	8b 45 08	 mov	 eax, DWORD PTR _t$[ebp]
  00013	8b 00		 mov	 eax, DWORD PTR [eax]
  00015	89 02		 mov	 DWORD PTR [edx], eax

; 258  : 	m_lpBufCur += sizeof(T);
; 259  : 	return *this;

  00017	8b c6		 mov	 eax, esi
  00019	83 46 08 04	 add	 DWORD PTR [esi+8], 4
  0001d	5e		 pop	 esi

; 260  : }

  0001e	5d		 pop	 ebp
  0001f	c2 04 00	 ret	 4
??$?6I@CAr@@QAEAAV0@ABI@Z ENDP				; CAr::operator<<<unsigned int>
_TEXT	ENDS
; Function compile flags: /Ogtp
; File C:\IAGOS\server\v18\Source\Source\_Network\Misc\Include\ar.h
;	COMDAT ??$?5G@CAr@@QAEAAV0@AAG@Z
_TEXT	SEGMENT
_t$ = 8							; size = 4
??$?5G@CAr@@QAEAAV0@AAG@Z PROC				; CAr::operator>><unsigned short>, COMDAT
; _this$ = ecx

; 302  : {

  00000	55		 push	 ebp
  00001	8b ec		 mov	 ebp, esp
  00003	8b d1		 mov	 edx, ecx

; 303  : 	if (m_lpBufCur + sizeof(T) <= m_lpBufMax)

  00005	8b 4a 08	 mov	 ecx, DWORD PTR [edx+8]
  00008	8d 41 02	 lea	 eax, DWORD PTR [ecx+2]
  0000b	3b 42 0c	 cmp	 eax, DWORD PTR [edx+12]
  0000e	8b 45 08	 mov	 eax, DWORD PTR _t$[ebp]
  00011	77 10		 ja	 SHORT $LN2@operator

; 304  : 	{
; 305  : 		t = *(UNALIGNED T*)m_lpBufCur;

  00013	66 8b 09	 mov	 cx, WORD PTR [ecx]
  00016	66 89 08	 mov	 WORD PTR [eax], cx

; 312  : 	}
; 313  : 	return *this;
; 314  : }

  00019	8b c2		 mov	 eax, edx
  0001b	83 42 08 02	 add	 DWORD PTR [edx+8], 2
  0001f	5d		 pop	 ebp
  00020	c2 04 00	 ret	 4
$LN2@operator:

; 306  : 		m_lpBufCur += sizeof(T);
; 307  : 	}
; 308  : 	else
; 309  : 	{
; 310  : 		t = T();

  00023	33 c9		 xor	 ecx, ecx
  00025	66 89 08	 mov	 WORD PTR [eax], cx

; 311  : 		m_lpBufCur = m_lpBufMax;

  00028	8b 42 0c	 mov	 eax, DWORD PTR [edx+12]
  0002b	89 42 08	 mov	 DWORD PTR [edx+8], eax

; 312  : 	}
; 313  : 	return *this;
; 314  : }

  0002e	8b c2		 mov	 eax, edx
  00030	5d		 pop	 ebp
  00031	c2 04 00	 ret	 4
??$?5G@CAr@@QAEAAV0@AAG@Z ENDP				; CAr::operator>><unsigned short>
_TEXT	ENDS
; Function compile flags: /Ogtp
; File C:\IAGOS\server\v18\Source\Source\_Network\Misc\Include\ar.h
;	COMDAT ??$?6G@CAr@@QAEAAV0@ABG@Z
_TEXT	SEGMENT
_t$ = 8							; size = 4
??$?6G@CAr@@QAEAAV0@ABG@Z PROC				; CAr::operator<<<unsigned short>, COMDAT
; _this$ = ecx

; 255  : {

  00000	55		 push	 ebp
  00001	8b ec		 mov	 ebp, esp
  00003	56		 push	 esi

; 256  : 	CheckBuf(sizeof(T));

  00004	6a 02		 push	 2
  00006	8b f1		 mov	 esi, ecx
  00008	e8 00 00 00 00	 call	 ?CheckBuf@CAr@@QAEXI@Z	; CAr::CheckBuf

; 257  : 	*(UNALIGNED T*)m_lpBufCur = t;

  0000d	8b 45 08	 mov	 eax, DWORD PTR _t$[ebp]
  00010	8b 56 08	 mov	 edx, DWORD PTR [esi+8]
  00013	66 8b 00	 mov	 ax, WORD PTR [eax]
  00016	66 89 02	 mov	 WORD PTR [edx], ax

; 258  : 	m_lpBufCur += sizeof(T);
; 259  : 	return *this;

  00019	8b c6		 mov	 eax, esi
  0001b	83 46 08 02	 add	 DWORD PTR [esi+8], 2
  0001f	5e		 pop	 esi

; 260  : }

  00020	5d		 pop	 ebp
  00021	c2 04 00	 ret	 4
??$?6G@CAr@@QAEAAV0@ABG@Z ENDP				; CAr::operator<<<unsigned short>
_TEXT	ENDS
; Function compile flags: /Ogtp
; File C:\Program Files\Microsoft Visual Studio\2022\Professional\VC\Tools\MSVC\14.44.35207\include\xmemory
;	COMDAT ??$_Allocate_manually_vector_aligned@U_Default_allocate_traits@std@@@std@@YAPAXI@Z
_TEXT	SEGMENT
__Bytes$ = 8						; size = 4
??$_Allocate_manually_vector_aligned@U_Default_allocate_traits@std@@@std@@YAPAXI@Z PROC ; std::_Allocate_manually_vector_aligned<std::_Default_allocate_traits>, COMDAT

; 182  : __declspec(allocator) void* _Allocate_manually_vector_aligned(const size_t _Bytes) {

  00000	55		 push	 ebp
  00001	8b ec		 mov	 ebp, esp

; 183  :     // allocate _Bytes manually aligned to at least _Big_allocation_alignment
; 184  :     const size_t _Block_size = _Non_user_size + _Bytes;

  00003	8b 45 08	 mov	 eax, DWORD PTR __Bytes$[ebp]
  00006	8d 48 23	 lea	 ecx, DWORD PTR [eax+35]

; 185  :     if (_Block_size <= _Bytes) {

  00009	3b c8		 cmp	 ecx, eax
  0000b	0f 86 00 00 00
	00		 jbe	 ?_Throw_bad_array_new_length@std@@YAXXZ ; std::_Throw_bad_array_new_length

; 136  :         return ::operator new(_Bytes);

  00011	51		 push	 ecx
  00012	e8 00 00 00 00	 call	 ??2@YAPAXI@Z		; operator new

; 186  :         _Throw_bad_array_new_length(); // add overflow
; 187  :     }
; 188  : 
; 189  :     const uintptr_t _Ptr_container = reinterpret_cast<uintptr_t>(_Traits::_Allocate(_Block_size));

  00017	8b c8		 mov	 ecx, eax

; 136  :         return ::operator new(_Bytes);

  00019	83 c4 04	 add	 esp, 4

; 190  :     _STL_VERIFY(_Ptr_container != 0, "invalid argument"); // validate even in release since we're doing p[-1]

  0001c	85 c9		 test	 ecx, ecx
  0001e	74 0b		 je	 SHORT $LN9@Allocate_m

; 191  :     void* const _Ptr = reinterpret_cast<void*>((_Ptr_container + _Non_user_size) & ~(_Big_allocation_alignment - 1));

  00020	8d 41 23	 lea	 eax, DWORD PTR [ecx+35]
  00023	83 e0 e0	 and	 eax, -32		; ffffffe0H

; 192  :     static_cast<uintptr_t*>(_Ptr)[-1] = _Ptr_container;

  00026	89 48 fc	 mov	 DWORD PTR [eax-4], ecx

; 193  : 
; 194  : #ifdef _DEBUG
; 195  :     static_cast<uintptr_t*>(_Ptr)[-2] = _Big_allocation_sentinel;
; 196  : #endif // defined(_DEBUG)
; 197  :     return _Ptr;
; 198  : }

  00029	5d		 pop	 ebp
  0002a	c3		 ret	 0
$LN9@Allocate_m:

; 190  :     _STL_VERIFY(_Ptr_container != 0, "invalid argument"); // validate even in release since we're doing p[-1]

  0002b	6a 00		 push	 0
  0002d	6a 00		 push	 0
  0002f	6a 00		 push	 0
  00031	6a 00		 push	 0
  00033	6a 00		 push	 0
  00035	e8 00 00 00 00	 call	 __invoke_watson
$LN7@Allocate_m:
  0003a	cc		 int	 3
??$_Allocate_manually_vector_aligned@U_Default_allocate_traits@std@@@std@@YAPAXI@Z ENDP ; std::_Allocate_manually_vector_aligned<std::_Default_allocate_traits>
_TEXT	ENDS
; Function compile flags: /Ogtp
; File C:\Program Files\Microsoft Visual Studio\2022\Professional\VC\Tools\MSVC\14.44.35207\include\xutility
;	COMDAT ??$_Copy_memmove_tail@PAJ@std@@YAPAJQBDQAJII@Z
_TEXT	SEGMENT
__First_ch$ = 8						; size = 4
__Dest$ = 12						; size = 4
__Byte_count$ = 16					; size = 4
__Object_count$ = 20					; size = 4
??$_Copy_memmove_tail@PAJ@std@@YAPAJQBDQAJII@Z PROC	; std::_Copy_memmove_tail<long *>, COMDAT

; 4747 :     const char* const _First_ch, const _OutCtgIt _Dest, const size_t _Byte_count, const size_t _Object_count) {

  00000	55		 push	 ebp
  00001	8b ec		 mov	 ebp, esp
  00003	56		 push	 esi

; 4748 :     _STL_INTERNAL_CHECK(_Byte_count == _Object_count * sizeof(*_Dest));
; 4749 :     const auto _Dest_ptr = _STD _To_address(_Dest);
; 4750 :     const auto _Dest_ch  = const_cast<char*>(reinterpret_cast<const volatile char*>(_Dest_ptr));
; 4751 :     _CSTD memmove(_Dest_ch, _First_ch, _Byte_count);

  00004	8b 75 0c	 mov	 esi, DWORD PTR __Dest$[ebp]
  00007	57		 push	 edi
  00008	8b 7d 10	 mov	 edi, DWORD PTR __Byte_count$[ebp]
  0000b	57		 push	 edi
  0000c	ff 75 08	 push	 DWORD PTR __First_ch$[ebp]
  0000f	56		 push	 esi
  00010	e8 00 00 00 00	 call	 _memmove
  00015	83 c4 0c	 add	 esp, 12			; 0000000cH

; 4752 :     if constexpr (is_pointer_v<_OutCtgIt>) {
; 4753 :         (void) _Object_count;
; 4754 :         // CodeQL [SM02986] This cast is correct: we're bypassing pointer arithmetic for performance.
; 4755 :         return reinterpret_cast<_OutCtgIt>(_Dest_ch + _Byte_count);

  00018	8d 04 3e	 lea	 eax, DWORD PTR [esi+edi]
  0001b	5f		 pop	 edi
  0001c	5e		 pop	 esi

; 4756 :     } else {
; 4757 :         return _Dest + static_cast<_Iter_diff_t<_OutCtgIt>>(_Object_count);
; 4758 :     }
; 4759 : }

  0001d	5d		 pop	 ebp
  0001e	c3		 ret	 0
??$_Copy_memmove_tail@PAJ@std@@YAPAJQBDQAJII@Z ENDP	; std::_Copy_memmove_tail<long *>
_TEXT	ENDS
; Function compile flags: /Ogtp
; File C:\Program Files\Microsoft Visual Studio\2022\Professional\VC\Tools\MSVC\14.44.35207\include\xutility
;	COMDAT ??$_Copy_memmove@PAJPAJ@std@@YAPAJPAJ00@Z
_TEXT	SEGMENT
__First$ = 8						; size = 4
__Last$ = 12						; size = 4
__Dest$ = 16						; size = 4
??$_Copy_memmove@PAJPAJ@std@@YAPAJPAJ00@Z PROC		; std::_Copy_memmove<long *,long *>, COMDAT

; 4762 : _OutCtgIt _Copy_memmove(_CtgIt _First, _CtgIt _Last, _OutCtgIt _Dest) {

  00000	55		 push	 ebp
  00001	8b ec		 mov	 ebp, esp

; 4763 :     _STL_INTERNAL_CHECK(_First <= _Last);
; 4764 :     const auto _First_ptr    = _STD _To_address(_First);
; 4765 :     const auto _Last_ptr     = _STD _To_address(_Last);
; 4766 :     const auto _Object_count = static_cast<size_t>(_Last_ptr - _First_ptr);

  00003	8b 55 08	 mov	 edx, DWORD PTR __First$[ebp]
  00006	8b 4d 0c	 mov	 ecx, DWORD PTR __Last$[ebp]
  00009	2b ca		 sub	 ecx, edx
  0000b	8b c1		 mov	 eax, ecx
  0000d	c1 f8 02	 sar	 eax, 2

; 4767 :     const auto _First_ch     = const_cast<const char*>(reinterpret_cast<const volatile char*>(_First_ptr));
; 4768 :     const auto _Last_ch      = const_cast<const char*>(reinterpret_cast<const volatile char*>(_Last_ptr));
; 4769 :     const auto _Byte_count   = static_cast<size_t>(_Last_ch - _First_ch);
; 4770 :     return _STD _Copy_memmove_tail(_First_ch, _STD move(_Dest), _Byte_count, _Object_count);

  00010	50		 push	 eax
  00011	51		 push	 ecx
  00012	ff 75 10	 push	 DWORD PTR __Dest$[ebp]
  00015	52		 push	 edx
  00016	e8 00 00 00 00	 call	 ??$_Copy_memmove_tail@PAJ@std@@YAPAJQBDQAJII@Z ; std::_Copy_memmove_tail<long *>
  0001b	83 c4 10	 add	 esp, 16			; 00000010H

; 4771 : }

  0001e	5d		 pop	 ebp
  0001f	c3		 ret	 0
??$_Copy_memmove@PAJPAJ@std@@YAPAJPAJ00@Z ENDP		; std::_Copy_memmove<long *,long *>
_TEXT	ENDS
; Function compile flags: /Ogtp
; File C:\Program Files\Microsoft Visual Studio\2022\Professional\VC\Tools\MSVC\14.44.35207\include\xmemory
;	COMDAT ??1?$_Alloc_construct_ptr@V?$allocator@U?$_Tree_node@U?$pair@$$CBKPAVIBuff@@@std@@PAX@std@@@std@@@std@@QAE@XZ
_TEXT	SEGMENT
??1?$_Alloc_construct_ptr@V?$allocator@U?$_Tree_node@U?$pair@$$CBKPAVIBuff@@@std@@PAX@std@@@std@@@std@@QAE@XZ PROC ; std::_Alloc_construct_ptr<std::allocator<std::_Tree_node<std::pair<unsigned long const ,IBuff *>,void *> > >::~_Alloc_construct_ptr<std::allocator<std::_Tree_node<std::pair<unsigned long const ,IBuff *>,void *> > >, COMDAT
; _this$ = ecx

; 1172 :         if (_Ptr) {

  00000	8b 41 04	 mov	 eax, DWORD PTR [ecx+4]
  00003	85 c0		 test	 eax, eax
  00005	74 0b		 je	 SHORT $LN10@Alloc_cons

; 289  :         ::operator delete(_Ptr, _Bytes);

  00007	6a 18		 push	 24			; 00000018H
  00009	50		 push	 eax
  0000a	e8 00 00 00 00	 call	 ??3@YAXPAXI@Z		; operator delete
  0000f	83 c4 08	 add	 esp, 8
$LN10@Alloc_cons:

; 1173 :             _Al.deallocate(_Ptr, 1);
; 1174 :         }
; 1175 :     }

  00012	c3		 ret	 0
??1?$_Alloc_construct_ptr@V?$allocator@U?$_Tree_node@U?$pair@$$CBKPAVIBuff@@@std@@PAX@std@@@std@@@std@@QAE@XZ ENDP ; std::_Alloc_construct_ptr<std::allocator<std::_Tree_node<std::pair<unsigned long const ,IBuff *>,void *> > >::~_Alloc_construct_ptr<std::allocator<std::_Tree_node<std::pair<unsigned long const ,IBuff *>,void *> > >
_TEXT	ENDS
; Function compile flags: /Ogtp
; File C:\Program Files\Microsoft Visual Studio\2022\Professional\VC\Tools\MSVC\14.44.35207\include\xtree
; File C:\Program Files\Microsoft Visual Studio\2022\Professional\VC\Tools\MSVC\14.44.35207\include\type_traits
; File C:\Program Files\Microsoft Visual Studio\2022\Professional\VC\Tools\MSVC\14.44.35207\include\xtree
; File C:\Program Files\Microsoft Visual Studio\2022\Professional\VC\Tools\MSVC\14.44.35207\include\type_traits
; File C:\Program Files\Microsoft Visual Studio\2022\Professional\VC\Tools\MSVC\14.44.35207\include\xtree
;	COMDAT ??$_Find_lower_bound@K@?$_Tree@V?$_Tmap_traits@KPAVIBuff@@U?$less@K@std@@V?$allocator@U?$pair@$$CBKPAVIBuff@@@std@@@3@$0A@@std@@@std@@IBE?AU?$_Tree_find_result@PAU?$_Tree_node@U?$pair@$$CBKPAVIBuff@@@std@@PAX@std@@@1@ABK@Z
_TEXT	SEGMENT
___$ReturnUdt$ = 8					; size = 4
__Keyval$ = 12						; size = 4
??$_Find_lower_bound@K@?$_Tree@V?$_Tmap_traits@KPAVIBuff@@U?$less@K@std@@V?$allocator@U?$pair@$$CBKPAVIBuff@@@std@@@3@$0A@@std@@@std@@IBE?AU?$_Tree_find_result@PAU?$_Tree_node@U?$pair@$$CBKPAVIBuff@@@std@@PAX@std@@@1@ABK@Z PROC ; std::_Tree<std::_Tmap_traits<unsigned long,IBuff *,std::less<unsigned long>,std::allocator<std::pair<unsigned long const ,IBuff *> >,0> >::_Find_lower_bound<unsigned long>, COMDAT
; _this$ = ecx

; 1628 :     _Tree_find_result<_Nodeptr> _Find_lower_bound(const _Keyty& _Keyval) const {

  00000	55		 push	 ebp
  00001	8b ec		 mov	 ebp, esp

; 1629 :         const auto _Scary = _Get_scary();
; 1630 :         _Tree_find_result<_Nodeptr> _Result{{_Scary->_Myhead->_Parent, _Tree_child::_Right}, _Scary->_Myhead};

  00003	8b 09		 mov	 ecx, DWORD PTR [ecx]
  00005	8b 55 08	 mov	 edx, DWORD PTR ___$ReturnUdt$[ebp]
  00008	8b 41 04	 mov	 eax, DWORD PTR [ecx+4]
  0000b	89 02		 mov	 DWORD PTR [edx], eax
  0000d	c7 42 04 00 00
	00 00		 mov	 DWORD PTR [edx+4], 0
  00014	89 4a 08	 mov	 DWORD PTR [edx+8], ecx

; 1631 :         _Nodeptr _Trynode = _Result._Location._Parent;
; 1632 :         while (!_Trynode->_Isnil) {

  00017	80 78 0d 00	 cmp	 BYTE PTR [eax+13], 0
  0001b	75 28		 jne	 SHORT $LN13@Find_lower
; File C:\Program Files\Microsoft Visual Studio\2022\Professional\VC\Tools\MSVC\14.44.35207\include\type_traits

; 2380 :         return _Left < _Right;

  0001d	8b 4d 0c	 mov	 ecx, DWORD PTR __Keyval$[ebp]
  00020	56		 push	 esi
  00021	8b 31		 mov	 esi, DWORD PTR [ecx]
$LL2@Find_lower:
; File C:\Program Files\Microsoft Visual Studio\2022\Professional\VC\Tools\MSVC\14.44.35207\include\xtree

; 1633 :             _Result._Location._Parent = _Trynode;

  00023	89 02		 mov	 DWORD PTR [edx], eax
; File C:\Program Files\Microsoft Visual Studio\2022\Professional\VC\Tools\MSVC\14.44.35207\include\type_traits

; 2380 :         return _Left < _Right;

  00025	39 70 10	 cmp	 DWORD PTR [eax+16], esi
; File C:\Program Files\Microsoft Visual Studio\2022\Professional\VC\Tools\MSVC\14.44.35207\include\xtree

; 1634 :             if (_DEBUG_LT_PRED(_Getcomp(), _Traits::_Kfn(_Trynode->_Myval), _Keyval)) {

  00028	73 07		 jae	 SHORT $LN4@Find_lower

; 1635 :                 _Result._Location._Child = _Tree_child::_Right;
; 1636 :                 _Trynode                 = _Trynode->_Right;

  0002a	8b 40 08	 mov	 eax, DWORD PTR [eax+8]
  0002d	33 c9		 xor	 ecx, ecx

; 1637 :             } else {

  0002f	eb 0a		 jmp	 SHORT $LN5@Find_lower
$LN4@Find_lower:

; 1638 :                 _Result._Location._Child = _Tree_child::_Left;
; 1639 :                 _Result._Bound           = _Trynode;

  00031	89 42 08	 mov	 DWORD PTR [edx+8], eax

; 1640 :                 _Trynode                 = _Trynode->_Left;

  00034	b9 01 00 00 00	 mov	 ecx, 1
  00039	8b 00		 mov	 eax, DWORD PTR [eax]
$LN5@Find_lower:

; 1631 :         _Nodeptr _Trynode = _Result._Location._Parent;
; 1632 :         while (!_Trynode->_Isnil) {

  0003b	89 4a 04	 mov	 DWORD PTR [edx+4], ecx
  0003e	80 78 0d 00	 cmp	 BYTE PTR [eax+13], 0
  00042	74 df		 je	 SHORT $LL2@Find_lower
  00044	5e		 pop	 esi
$LN13@Find_lower:

; 1641 :             }
; 1642 :         }
; 1643 : 
; 1644 :         return _Result;
; 1645 :     }

  00045	8b c2		 mov	 eax, edx
  00047	5d		 pop	 ebp
  00048	c2 08 00	 ret	 8
??$_Find_lower_bound@K@?$_Tree@V?$_Tmap_traits@KPAVIBuff@@U?$less@K@std@@V?$allocator@U?$pair@$$CBKPAVIBuff@@@std@@@3@$0A@@std@@@std@@IBE?AU?$_Tree_find_result@PAU?$_Tree_node@U?$pair@$$CBKPAVIBuff@@@std@@PAX@std@@@1@ABK@Z ENDP ; std::_Tree<std::_Tmap_traits<unsigned long,IBuff *,std::less<unsigned long>,std::allocator<std::pair<unsigned long const ,IBuff *> >,0> >::_Find_lower_bound<unsigned long>
_TEXT	ENDS
; Function compile flags: /Ogtp
; File C:\Program Files\Microsoft Visual Studio\2022\Professional\VC\Tools\MSVC\14.44.35207\include\xtree
;	COMDAT ??E?$_Tree_unchecked_const_iterator@V?$_Tree_val@U?$_Tree_simple_types@U?$pair@$$CBKPAVIBuff@@@std@@@std@@@std@@U_Iterator_base0@2@@std@@QAEAAV01@XZ
_TEXT	SEGMENT
??E?$_Tree_unchecked_const_iterator@V?$_Tree_val@U?$_Tree_simple_types@U?$pair@$$CBKPAVIBuff@@@std@@@std@@@std@@U_Iterator_base0@2@@std@@QAEAAV01@XZ PROC ; std::_Tree_unchecked_const_iterator<std::_Tree_val<std::_Tree_simple_types<std::pair<unsigned long const ,IBuff *> > >,std::_Iterator_base0>::operator++, COMDAT
; _this$ = ecx

; 49   :     _Tree_unchecked_const_iterator& operator++() noexcept {

  00000	56		 push	 esi
  00001	8b f1		 mov	 esi, ecx
  00003	57		 push	 edi

; 50   :         if (_Ptr->_Right->_Isnil) { // climb looking for right subtree

  00004	8b 16		 mov	 edx, DWORD PTR [esi]
  00006	8b 7a 08	 mov	 edi, DWORD PTR [edx+8]
  00009	80 7f 0d 00	 cmp	 BYTE PTR [edi+13], 0
  0000d	74 22		 je	 SHORT $LN4@operator

; 51   :             _Nodeptr _Pnode;
; 52   :             while (!(_Pnode = _Ptr->_Parent)->_Isnil && _Ptr == _Pnode->_Right) {

  0000f	8b 42 04	 mov	 eax, DWORD PTR [edx+4]
  00012	80 78 0d 00	 cmp	 BYTE PTR [eax+13], 0
  00016	75 12		 jne	 SHORT $LN21@operator
$LL2@operator:
  00018	3b 50 08	 cmp	 edx, DWORD PTR [eax+8]
  0001b	75 0d		 jne	 SHORT $LN21@operator

; 53   :                 _Ptr = _Pnode; // ==> parent while right subtree

  0001d	89 06		 mov	 DWORD PTR [esi], eax
  0001f	8b d0		 mov	 edx, eax
  00021	8b 40 04	 mov	 eax, DWORD PTR [eax+4]
  00024	80 78 0d 00	 cmp	 BYTE PTR [eax+13], 0
  00028	74 ee		 je	 SHORT $LL2@operator
$LN21@operator:

; 54   :             }
; 55   : 
; 56   :             _Ptr = _Pnode; // ==> parent (head if end())
; 57   :         } else {
; 58   :             _Ptr = _Mytree::_Min(_Ptr->_Right); // ==> smallest of right subtree
; 59   :         }
; 60   : 
; 61   :         return *this;

  0002a	89 06		 mov	 DWORD PTR [esi], eax

; 62   :     }

  0002c	8b c6		 mov	 eax, esi
  0002e	5f		 pop	 edi
  0002f	5e		 pop	 esi
  00030	c3		 ret	 0
$LN4@operator:

; 476  :         while (!_Pnode->_Left->_Isnil) {

  00031	8b 0f		 mov	 ecx, DWORD PTR [edi]
  00033	80 79 0d 00	 cmp	 BYTE PTR [ecx+13], 0
  00037	75 13		 jne	 SHORT $LN10@operator
  00039	0f 1f 80 00 00
	00 00		 npad	 7
$LL9@operator:
  00040	8b 01		 mov	 eax, DWORD PTR [ecx]

; 477  :             _Pnode = _Pnode->_Left;

  00042	8b f9		 mov	 edi, ecx
  00044	8b c8		 mov	 ecx, eax
  00046	80 78 0d 00	 cmp	 BYTE PTR [eax+13], 0
  0004a	74 f4		 je	 SHORT $LL9@operator
$LN10@operator:

; 54   :             }
; 55   : 
; 56   :             _Ptr = _Pnode; // ==> parent (head if end())
; 57   :         } else {
; 58   :             _Ptr = _Mytree::_Min(_Ptr->_Right); // ==> smallest of right subtree
; 59   :         }
; 60   : 
; 61   :         return *this;

  0004c	89 3e		 mov	 DWORD PTR [esi], edi

; 62   :     }

  0004e	8b c6		 mov	 eax, esi
  00050	5f		 pop	 edi
  00051	5e		 pop	 esi
  00052	c3		 ret	 0
??E?$_Tree_unchecked_const_iterator@V?$_Tree_val@U?$_Tree_simple_types@U?$pair@$$CBKPAVIBuff@@@std@@@std@@@std@@U_Iterator_base0@2@@std@@QAEAAV01@XZ ENDP ; std::_Tree_unchecked_const_iterator<std::_Tree_val<std::_Tree_simple_types<std::pair<unsigned long const ,IBuff *> > >,std::_Iterator_base0>::operator++
_TEXT	ENDS
; Function compile flags: /Ogtp
;	COMDAT ??_GCBuffMgr@@UAEPAXI@Z
_TEXT	SEGMENT
___flags$ = 8						; size = 4
??_GCBuffMgr@@UAEPAXI@Z PROC				; CBuffMgr::`scalar deleting destructor', COMDAT
; _this$ = ecx
  00000	55		 push	 ebp
  00001	8b ec		 mov	 ebp, esp
  00003	56		 push	 esi
  00004	8b f1		 mov	 esi, ecx
  00006	e8 00 00 00 00	 call	 ??1CBuffMgr@@UAE@XZ	; CBuffMgr::~CBuffMgr
  0000b	f6 45 08 01	 test	 BYTE PTR ___flags$[ebp], 1
  0000f	74 0b		 je	 SHORT $LN5@scalar
  00011	6a 10		 push	 16			; 00000010H
  00013	56		 push	 esi
  00014	e8 00 00 00 00	 call	 ??3@YAXPAXI@Z		; operator delete
  00019	83 c4 08	 add	 esp, 8
$LN5@scalar:
  0001c	8b c6		 mov	 eax, esi
  0001e	5e		 pop	 esi
  0001f	5d		 pop	 ebp
  00020	c2 04 00	 ret	 4
??_GCBuffMgr@@UAEPAXI@Z ENDP				; CBuffMgr::`scalar deleting destructor'
_TEXT	ENDS
; Function compile flags: /Ogtp
; File C:\IAGOS\server\v18\Source\Source\_Common\buff.cpp
; File C:\Program Files\Microsoft Visual Studio\2022\Professional\VC\Tools\MSVC\14.44.35207\include\xtree
; File C:\IAGOS\server\v18\Source\Source\_Common\buff.cpp
; File C:\Program Files\Microsoft Visual Studio\2022\Professional\VC\Tools\MSVC\14.44.35207\include\xtree
; File C:\IAGOS\server\v18\Source\Source\_Common\buff.cpp
; File C:\Program Files\Microsoft Visual Studio\2022\Professional\VC\Tools\MSVC\14.44.35207\include\xtree
; File C:\IAGOS\server\v18\Source\Source\_Common\buff.cpp
;	COMDAT ?GetRemoveBuffSize@CBuffMgr@@AAEIXZ
_TEXT	SEGMENT
_it$1 = -4						; size = 4
?GetRemoveBuffSize@CBuffMgr@@AAEIXZ PROC		; CBuffMgr::GetRemoveBuffSize, COMDAT
; _this$ = ecx

; 1030 : {

  00000	55		 push	 ebp
  00001	8b ec		 mov	 ebp, esp
  00003	51		 push	 ecx
  00004	56		 push	 esi
  00005	57		 push	 edi
; File C:\Program Files\Microsoft Visual Studio\2022\Professional\VC\Tools\MSVC\14.44.35207\include\xtree

; 1142 :         return iterator(_Scary->_Myhead->_Left, _Scary);

  00006	8b 79 04	 mov	 edi, DWORD PTR [ecx+4]
; File C:\IAGOS\server\v18\Source\Source\_Common\buff.cpp

; 1031 : 	size_t nCount = 0;

  00009	33 f6		 xor	 esi, esi
; File C:\Program Files\Microsoft Visual Studio\2022\Professional\VC\Tools\MSVC\14.44.35207\include\xtree

; 37   :     _Tree_unchecked_const_iterator(_Nodeptr _Pnode, const _Mytree* _Plist) noexcept : _Ptr(_Pnode) {

  0000b	8b 07		 mov	 eax, DWORD PTR [edi]
  0000d	89 45 fc	 mov	 DWORD PTR _it$1[ebp], eax

; 237  :         return !(*this == _Right);

  00010	3b c7		 cmp	 eax, edi
; File C:\IAGOS\server\v18\Source\Source\_Common\buff.cpp

; 1032 : 	for( MAPBUFF::iterator it=m_mapBuffs.begin(); it!=m_mapBuffs.end(); it++ )

  00012	74 1e		 je	 SHORT $LN56@GetRemoveB
$LL4@GetRemoveB:
; File C:\Program Files\Microsoft Visual Studio\2022\Professional\VC\Tools\MSVC\14.44.35207\include\xtree

; 198  :         _Mybase::operator++();

  00014	8b 40 14	 mov	 eax, DWORD PTR [eax+20]
  00017	8d 4e 01	 lea	 ecx, DWORD PTR [esi+1]
  0001a	83 78 18 00	 cmp	 DWORD PTR [eax+24], 0
  0001e	0f 44 ce	 cmove	 ecx, esi
  00021	8b f1		 mov	 esi, ecx
  00023	8d 4d fc	 lea	 ecx, DWORD PTR _it$1[ebp]
  00026	e8 00 00 00 00	 call	 ??E?$_Tree_unchecked_const_iterator@V?$_Tree_val@U?$_Tree_simple_types@U?$pair@$$CBKPAVIBuff@@@std@@@std@@@std@@U_Iterator_base0@2@@std@@QAEAAV01@XZ ; std::_Tree_unchecked_const_iterator<std::_Tree_val<std::_Tree_simple_types<std::pair<unsigned long const ,IBuff *> > >,std::_Iterator_base0>::operator++

; 237  :         return !(*this == _Right);

  0002b	8b 45 fc	 mov	 eax, DWORD PTR _it$1[ebp]
  0002e	3b c7		 cmp	 eax, edi
; File C:\IAGOS\server\v18\Source\Source\_Common\buff.cpp

; 1032 : 	for( MAPBUFF::iterator it=m_mapBuffs.begin(); it!=m_mapBuffs.end(); it++ )

  00030	75 e2		 jne	 SHORT $LL4@GetRemoveB
$LN56@GetRemoveB:
  00032	5f		 pop	 edi

; 1033 : 	{
; 1034 : 		if( it->second->GetRemove() )
; 1035 : 			nCount++;
; 1036 : 	}
; 1037 : 
; 1038 : 	return nCount;
; 1039 : }

  00033	8b c6		 mov	 eax, esi
  00035	5e		 pop	 esi
  00036	8b e5		 mov	 esp, ebp
  00038	5d		 pop	 ebp
  00039	c3		 ret	 0
?GetRemoveBuffSize@CBuffMgr@@AAEIXZ ENDP		; CBuffMgr::GetRemoveBuffSize
_TEXT	ENDS
; Function compile flags: /Ogtp
; File C:\Program Files\Microsoft Visual Studio\2022\Professional\VC\Tools\MSVC\14.44.35207\include\xtree
;	COMDAT ?_Insert_node@?$_Tree_val@U?$_Tree_simple_types@U?$pair@$$CBKPAVIBuff@@@std@@@std@@@std@@QAEPAU?$_Tree_node@U?$pair@$$CBKPAVIBuff@@@std@@PAX@2@U?$_Tree_id@PAU?$_Tree_node@U?$pair@$$CBKPAVIBuff@@@std@@PAX@std@@@2@QAU32@@Z
_TEXT	SEGMENT
__Head$1$ = -4						; size = 4
__Loc$ = 8						; size = 8
__Newnode$ = 16						; size = 4
?_Insert_node@?$_Tree_val@U?$_Tree_simple_types@U?$pair@$$CBKPAVIBuff@@@std@@@std@@@std@@QAEPAU?$_Tree_node@U?$pair@$$CBKPAVIBuff@@@std@@PAX@2@U?$_Tree_id@PAU?$_Tree_node@U?$pair@$$CBKPAVIBuff@@@std@@PAX@std@@@2@QAU32@@Z PROC ; std::_Tree_val<std::_Tree_simple_types<std::pair<unsigned long const ,IBuff *> > >::_Insert_node, COMDAT
; _this$ = ecx

; 669  :     _Nodeptr _Insert_node(const _Tree_id<_Nodeptr> _Loc, const _Nodeptr _Newnode) noexcept {

  00000	55		 push	 ebp
  00001	8b ec		 mov	 ebp, esp
  00003	51		 push	 ecx

; 670  :         ++_Mysize;
; 671  :         const auto _Head  = _Myhead;
; 672  :         _Newnode->_Parent = _Loc._Parent;

  00004	8b 55 08	 mov	 edx, DWORD PTR __Loc$[ebp]
  00007	53		 push	 ebx
  00008	8b d9		 mov	 ebx, ecx
  0000a	57		 push	 edi
  0000b	8b 7d 10	 mov	 edi, DWORD PTR __Newnode$[ebp]
  0000e	8b 03		 mov	 eax, DWORD PTR [ebx]
  00010	ff 43 04	 inc	 DWORD PTR [ebx+4]
  00013	89 45 fc	 mov	 DWORD PTR __Head$1$[ebp], eax
  00016	89 57 04	 mov	 DWORD PTR [edi+4], edx

; 673  :         if (_Loc._Parent == _Head) { // first node in tree, just set head values

  00019	3b d0		 cmp	 edx, eax
  0001b	75 16		 jne	 SHORT $LN5@Insert_nod

; 674  :             _Head->_Left     = _Newnode;

  0001d	89 38		 mov	 DWORD PTR [eax], edi

; 675  :             _Head->_Parent   = _Newnode;

  0001f	89 78 04	 mov	 DWORD PTR [eax+4], edi

; 676  :             _Head->_Right    = _Newnode;

  00022	89 78 08	 mov	 DWORD PTR [eax+8], edi

; 735  :         return _Newnode;
; 736  :     }

  00025	8b c7		 mov	 eax, edi
  00027	c6 47 0c 01	 mov	 BYTE PTR [edi+12], 1
  0002b	5f		 pop	 edi
  0002c	5b		 pop	 ebx
  0002d	8b e5		 mov	 esp, ebp
  0002f	5d		 pop	 ebp
  00030	c2 0c 00	 ret	 12			; 0000000cH
$LN5@Insert_nod:

; 677  :             _Newnode->_Color = _Black; // the root is black
; 678  :             return _Newnode;
; 679  :         }
; 680  : 
; 681  :         _STL_INTERNAL_CHECK(_Loc._Child != _Tree_child::_Unused);
; 682  :         if (_Loc._Child == _Tree_child::_Right) { // add to right of _Loc._Parent

  00033	83 7d 0c 00	 cmp	 DWORD PTR __Loc$[ebp+4], 0
  00037	75 0d		 jne	 SHORT $LN6@Insert_nod

; 683  :             _STL_INTERNAL_CHECK(_Loc._Parent->_Right->_Isnil);
; 684  :             _Loc._Parent->_Right = _Newnode;

  00039	89 7a 08	 mov	 DWORD PTR [edx+8], edi

; 685  :             if (_Loc._Parent == _Head->_Right) { // remember rightmost node

  0003c	3b 50 08	 cmp	 edx, DWORD PTR [eax+8]
  0003f	75 0d		 jne	 SHORT $LN9@Insert_nod

; 686  :                 _Head->_Right = _Newnode;

  00041	89 78 08	 mov	 DWORD PTR [eax+8], edi

; 687  :             }
; 688  :         } else { // add to left of _Loc._Parent

  00044	eb 08		 jmp	 SHORT $LN9@Insert_nod
$LN6@Insert_nod:

; 689  :             _STL_INTERNAL_CHECK(_Loc._Parent->_Left->_Isnil);
; 690  :             _Loc._Parent->_Left = _Newnode;

  00046	89 3a		 mov	 DWORD PTR [edx], edi

; 691  :             if (_Loc._Parent == _Head->_Left) { // remember leftmost node

  00048	3b 10		 cmp	 edx, DWORD PTR [eax]
  0004a	75 02		 jne	 SHORT $LN9@Insert_nod

; 692  :                 _Head->_Left = _Newnode;

  0004c	89 38		 mov	 DWORD PTR [eax], edi
$LN9@Insert_nod:

; 693  :             }
; 694  :         }
; 695  : 
; 696  :         for (_Nodeptr _Pnode = _Newnode; _Pnode->_Parent->_Color == _Red;) {

  0004e	8b 4f 04	 mov	 ecx, DWORD PTR [edi+4]
  00051	8b c7		 mov	 eax, edi
  00053	80 79 0c 00	 cmp	 BYTE PTR [ecx+12], 0
  00057	0f 85 7d 01 00
	00		 jne	 $LN3@Insert_nod
  0005d	56		 push	 esi
  0005e	66 90		 npad	 2
$LL4@Insert_nod:

; 697  :             if (_Pnode->_Parent == _Pnode->_Parent->_Parent->_Left) { // fixup red-red in left subtree

  00060	8b 50 04	 mov	 edx, DWORD PTR [eax+4]
  00063	8b 72 04	 mov	 esi, DWORD PTR [edx+4]
  00066	8b 0e		 mov	 ecx, DWORD PTR [esi]
  00068	3b d1		 cmp	 edx, ecx
  0006a	0f 85 aa 00 00
	00		 jne	 $LN10@Insert_nod

; 698  :                 const auto _Parent_sibling = _Pnode->_Parent->_Parent->_Right;

  00070	8b 4e 08	 mov	 ecx, DWORD PTR [esi+8]

; 699  :                 if (_Parent_sibling->_Color == _Red) { // parent's sibling has two red children, blacken both

  00073	80 79 0c 00	 cmp	 BYTE PTR [ecx+12], 0
  00077	0f 84 a3 00 00
	00		 je	 $LN82@Insert_nod

; 700  :                     _Pnode->_Parent->_Color          = _Black;
; 701  :                     _Parent_sibling->_Color          = _Black;
; 702  :                     _Pnode->_Parent->_Parent->_Color = _Red;
; 703  :                     _Pnode                           = _Pnode->_Parent->_Parent;
; 704  :                 } else { // parent's sibling has red and black children
; 705  :                     if (_Pnode == _Pnode->_Parent->_Right) { // rotate right child to left

  0007d	8b 72 08	 mov	 esi, DWORD PTR [edx+8]
  00080	3b c6		 cmp	 eax, esi
  00082	75 37		 jne	 SHORT $LN57@Insert_nod

; 485  :         _Wherenode->_Right = _Pnode->_Left;

  00084	8b 0e		 mov	 ecx, DWORD PTR [esi]

; 706  :                         _Pnode = _Pnode->_Parent;

  00086	8b c2		 mov	 eax, edx

; 485  :         _Wherenode->_Right = _Pnode->_Left;

  00088	89 4a 08	 mov	 DWORD PTR [edx+8], ecx

; 486  : 
; 487  :         if (!_Pnode->_Left->_Isnil) {

  0008b	8b 0e		 mov	 ecx, DWORD PTR [esi]
  0008d	80 79 0d 00	 cmp	 BYTE PTR [ecx+13], 0
  00091	75 03		 jne	 SHORT $LN21@Insert_nod

; 488  :             _Pnode->_Left->_Parent = _Wherenode;

  00093	89 41 04	 mov	 DWORD PTR [ecx+4], eax
$LN21@Insert_nod:

; 489  :         }
; 490  : 
; 491  :         _Pnode->_Parent = _Wherenode->_Parent;

  00096	8b 4a 04	 mov	 ecx, DWORD PTR [edx+4]
  00099	89 4e 04	 mov	 DWORD PTR [esi+4], ecx

; 492  : 
; 493  :         if (_Wherenode == _Myhead->_Parent) {

  0009c	8b 0b		 mov	 ecx, DWORD PTR [ebx]
  0009e	3b 41 04	 cmp	 eax, DWORD PTR [ecx+4]
  000a1	75 05		 jne	 SHORT $LN22@Insert_nod

; 494  :             _Myhead->_Parent = _Pnode;

  000a3	89 71 04	 mov	 DWORD PTR [ecx+4], esi
  000a6	eb 0e		 jmp	 SHORT $LN25@Insert_nod
$LN22@Insert_nod:

; 495  :         } else if (_Wherenode == _Wherenode->_Parent->_Left) {

  000a8	8b 4a 04	 mov	 ecx, DWORD PTR [edx+4]
  000ab	3b 01		 cmp	 eax, DWORD PTR [ecx]
  000ad	75 04		 jne	 SHORT $LN24@Insert_nod

; 496  :             _Wherenode->_Parent->_Left = _Pnode;

  000af	89 31		 mov	 DWORD PTR [ecx], esi

; 497  :         } else {

  000b1	eb 03		 jmp	 SHORT $LN25@Insert_nod
$LN24@Insert_nod:

; 498  :             _Wherenode->_Parent->_Right = _Pnode;

  000b3	89 71 08	 mov	 DWORD PTR [ecx+8], esi
$LN25@Insert_nod:

; 499  :         }
; 500  : 
; 501  :         _Pnode->_Left       = _Wherenode;

  000b6	89 06		 mov	 DWORD PTR [esi], eax

; 502  :         _Wherenode->_Parent = _Pnode;

  000b8	89 70 04	 mov	 DWORD PTR [eax+4], esi
$LN57@Insert_nod:

; 707  :                         _Lrotate(_Pnode);
; 708  :                     }
; 709  : 
; 710  :                     _Pnode->_Parent->_Color          = _Black; // propagate red up

  000bb	8b 48 04	 mov	 ecx, DWORD PTR [eax+4]
  000be	c6 41 0c 01	 mov	 BYTE PTR [ecx+12], 1

; 711  :                     _Pnode->_Parent->_Parent->_Color = _Red;

  000c2	8b 48 04	 mov	 ecx, DWORD PTR [eax+4]
  000c5	8b 49 04	 mov	 ecx, DWORD PTR [ecx+4]
  000c8	c6 41 0c 00	 mov	 BYTE PTR [ecx+12], 0

; 712  :                     _Rrotate(_Pnode->_Parent->_Parent);

  000cc	8b 48 04	 mov	 ecx, DWORD PTR [eax+4]
  000cf	8b 51 04	 mov	 edx, DWORD PTR [ecx+4]

; 506  :         _Nodeptr _Pnode   = _Wherenode->_Left;

  000d2	8b 32		 mov	 esi, DWORD PTR [edx]

; 507  :         _Wherenode->_Left = _Pnode->_Right;

  000d4	8b 4e 08	 mov	 ecx, DWORD PTR [esi+8]
  000d7	89 0a		 mov	 DWORD PTR [edx], ecx

; 508  : 
; 509  :         if (!_Pnode->_Right->_Isnil) {

  000d9	8b 4e 08	 mov	 ecx, DWORD PTR [esi+8]
  000dc	80 79 0d 00	 cmp	 BYTE PTR [ecx+13], 0
  000e0	75 03		 jne	 SHORT $LN29@Insert_nod

; 510  :             _Pnode->_Right->_Parent = _Wherenode;

  000e2	89 51 04	 mov	 DWORD PTR [ecx+4], edx
$LN29@Insert_nod:

; 511  :         }
; 512  : 
; 513  :         _Pnode->_Parent = _Wherenode->_Parent;

  000e5	8b 4a 04	 mov	 ecx, DWORD PTR [edx+4]
  000e8	89 4e 04	 mov	 DWORD PTR [esi+4], ecx

; 514  : 
; 515  :         if (_Wherenode == _Myhead->_Parent) {

  000eb	8b 0b		 mov	 ecx, DWORD PTR [ebx]
  000ed	3b 51 04	 cmp	 edx, DWORD PTR [ecx+4]
  000f0	75 0b		 jne	 SHORT $LN30@Insert_nod

; 516  :             _Myhead->_Parent = _Pnode;

  000f2	89 71 04	 mov	 DWORD PTR [ecx+4], esi

; 521  :         }
; 522  : 
; 523  :         _Pnode->_Right      = _Wherenode;

  000f5	89 56 08	 mov	 DWORD PTR [esi+8], edx

; 713  :                 }
; 714  :             } else { // fixup red-red in right subtree

  000f8	e9 cc 00 00 00	 jmp	 $LN81@Insert_nod
$LN30@Insert_nod:

; 517  :         } else if (_Wherenode == _Wherenode->_Parent->_Right) {

  000fd	8b 4a 04	 mov	 ecx, DWORD PTR [edx+4]
  00100	3b 51 08	 cmp	 edx, DWORD PTR [ecx+8]
  00103	75 0b		 jne	 SHORT $LN32@Insert_nod

; 518  :             _Wherenode->_Parent->_Right = _Pnode;

  00105	89 71 08	 mov	 DWORD PTR [ecx+8], esi

; 521  :         }
; 522  : 
; 523  :         _Pnode->_Right      = _Wherenode;

  00108	89 56 08	 mov	 DWORD PTR [esi+8], edx

; 713  :                 }
; 714  :             } else { // fixup red-red in right subtree

  0010b	e9 b9 00 00 00	 jmp	 $LN81@Insert_nod
$LN32@Insert_nod:

; 520  :             _Wherenode->_Parent->_Left = _Pnode;

  00110	89 31		 mov	 DWORD PTR [ecx], esi

; 521  :         }
; 522  : 
; 523  :         _Pnode->_Right      = _Wherenode;

  00112	89 56 08	 mov	 DWORD PTR [esi+8], edx

; 713  :                 }
; 714  :             } else { // fixup red-red in right subtree

  00115	e9 af 00 00 00	 jmp	 $LN81@Insert_nod
$LN10@Insert_nod:

; 715  :                 const auto _Parent_sibling = _Pnode->_Parent->_Parent->_Left;
; 716  :                 if (_Parent_sibling->_Color == _Red) { // parent's sibling has two red children, blacken both

  0011a	80 79 0c 00	 cmp	 BYTE PTR [ecx+12], 0
  0011e	75 1d		 jne	 SHORT $LN15@Insert_nod
$LN82@Insert_nod:

; 693  :             }
; 694  :         }
; 695  : 
; 696  :         for (_Nodeptr _Pnode = _Newnode; _Pnode->_Parent->_Color == _Red;) {

  00120	c6 42 0c 01	 mov	 BYTE PTR [edx+12], 1
  00124	c6 41 0c 01	 mov	 BYTE PTR [ecx+12], 1
  00128	8b 48 04	 mov	 ecx, DWORD PTR [eax+4]
  0012b	8b 49 04	 mov	 ecx, DWORD PTR [ecx+4]
  0012e	c6 41 0c 00	 mov	 BYTE PTR [ecx+12], 0
  00132	8b 48 04	 mov	 ecx, DWORD PTR [eax+4]
  00135	8b 41 04	 mov	 eax, DWORD PTR [ecx+4]
  00138	e9 8f 00 00 00	 jmp	 $LN2@Insert_nod
$LN15@Insert_nod:

; 717  :                     _Pnode->_Parent->_Color          = _Black;
; 718  :                     _Parent_sibling->_Color          = _Black;
; 719  :                     _Pnode->_Parent->_Parent->_Color = _Red;
; 720  :                     _Pnode                           = _Pnode->_Parent->_Parent;
; 721  :                 } else { // parent's sibling has red and black children
; 722  :                     if (_Pnode == _Pnode->_Parent->_Left) { // rotate left child to right

  0013d	8b 32		 mov	 esi, DWORD PTR [edx]
  0013f	3b c6		 cmp	 eax, esi
  00141	75 3a		 jne	 SHORT $LN42@Insert_nod

; 507  :         _Wherenode->_Left = _Pnode->_Right;

  00143	8b 4e 08	 mov	 ecx, DWORD PTR [esi+8]

; 723  :                         _Pnode = _Pnode->_Parent;

  00146	8b c2		 mov	 eax, edx

; 507  :         _Wherenode->_Left = _Pnode->_Right;

  00148	89 08		 mov	 DWORD PTR [eax], ecx

; 508  : 
; 509  :         if (!_Pnode->_Right->_Isnil) {

  0014a	8b 4e 08	 mov	 ecx, DWORD PTR [esi+8]
  0014d	80 79 0d 00	 cmp	 BYTE PTR [ecx+13], 0
  00151	75 03		 jne	 SHORT $LN37@Insert_nod

; 510  :             _Pnode->_Right->_Parent = _Wherenode;

  00153	89 41 04	 mov	 DWORD PTR [ecx+4], eax
$LN37@Insert_nod:

; 511  :         }
; 512  : 
; 513  :         _Pnode->_Parent = _Wherenode->_Parent;

  00156	8b 4a 04	 mov	 ecx, DWORD PTR [edx+4]
  00159	89 4e 04	 mov	 DWORD PTR [esi+4], ecx

; 514  : 
; 515  :         if (_Wherenode == _Myhead->_Parent) {

  0015c	8b 0b		 mov	 ecx, DWORD PTR [ebx]
  0015e	3b 41 04	 cmp	 eax, DWORD PTR [ecx+4]
  00161	75 05		 jne	 SHORT $LN38@Insert_nod

; 516  :             _Myhead->_Parent = _Pnode;

  00163	89 71 04	 mov	 DWORD PTR [ecx+4], esi
  00166	eb 0f		 jmp	 SHORT $LN41@Insert_nod
$LN38@Insert_nod:

; 517  :         } else if (_Wherenode == _Wherenode->_Parent->_Right) {

  00168	8b 4a 04	 mov	 ecx, DWORD PTR [edx+4]
  0016b	3b 41 08	 cmp	 eax, DWORD PTR [ecx+8]
  0016e	75 05		 jne	 SHORT $LN40@Insert_nod

; 518  :             _Wherenode->_Parent->_Right = _Pnode;

  00170	89 71 08	 mov	 DWORD PTR [ecx+8], esi

; 519  :         } else {

  00173	eb 02		 jmp	 SHORT $LN41@Insert_nod
$LN40@Insert_nod:

; 520  :             _Wherenode->_Parent->_Left = _Pnode;

  00175	89 31		 mov	 DWORD PTR [ecx], esi
$LN41@Insert_nod:

; 521  :         }
; 522  : 
; 523  :         _Pnode->_Right      = _Wherenode;

  00177	89 46 08	 mov	 DWORD PTR [esi+8], eax

; 524  :         _Wherenode->_Parent = _Pnode;

  0017a	89 70 04	 mov	 DWORD PTR [eax+4], esi
$LN42@Insert_nod:

; 724  :                         _Rrotate(_Pnode);
; 725  :                     }
; 726  : 
; 727  :                     _Pnode->_Parent->_Color          = _Black; // propagate red up

  0017d	8b 48 04	 mov	 ecx, DWORD PTR [eax+4]
  00180	c6 41 0c 01	 mov	 BYTE PTR [ecx+12], 1

; 728  :                     _Pnode->_Parent->_Parent->_Color = _Red;

  00184	8b 48 04	 mov	 ecx, DWORD PTR [eax+4]
  00187	8b 49 04	 mov	 ecx, DWORD PTR [ecx+4]
  0018a	c6 41 0c 00	 mov	 BYTE PTR [ecx+12], 0

; 729  :                     _Lrotate(_Pnode->_Parent->_Parent);

  0018e	8b 48 04	 mov	 ecx, DWORD PTR [eax+4]
  00191	8b 51 04	 mov	 edx, DWORD PTR [ecx+4]

; 484  :         _Nodeptr _Pnode    = _Wherenode->_Right;

  00194	8b 72 08	 mov	 esi, DWORD PTR [edx+8]

; 485  :         _Wherenode->_Right = _Pnode->_Left;

  00197	8b 0e		 mov	 ecx, DWORD PTR [esi]
  00199	89 4a 08	 mov	 DWORD PTR [edx+8], ecx

; 486  : 
; 487  :         if (!_Pnode->_Left->_Isnil) {

  0019c	8b 0e		 mov	 ecx, DWORD PTR [esi]
  0019e	80 79 0d 00	 cmp	 BYTE PTR [ecx+13], 0
  001a2	75 03		 jne	 SHORT $LN45@Insert_nod

; 488  :             _Pnode->_Left->_Parent = _Wherenode;

  001a4	89 51 04	 mov	 DWORD PTR [ecx+4], edx
$LN45@Insert_nod:

; 489  :         }
; 490  : 
; 491  :         _Pnode->_Parent = _Wherenode->_Parent;

  001a7	8b 4a 04	 mov	 ecx, DWORD PTR [edx+4]
  001aa	89 4e 04	 mov	 DWORD PTR [esi+4], ecx

; 492  : 
; 493  :         if (_Wherenode == _Myhead->_Parent) {

  001ad	8b 0b		 mov	 ecx, DWORD PTR [ebx]
  001af	3b 51 04	 cmp	 edx, DWORD PTR [ecx+4]
  001b2	75 05		 jne	 SHORT $LN46@Insert_nod

; 494  :             _Myhead->_Parent = _Pnode;

  001b4	89 71 04	 mov	 DWORD PTR [ecx+4], esi
  001b7	eb 0e		 jmp	 SHORT $LN49@Insert_nod
$LN46@Insert_nod:

; 495  :         } else if (_Wherenode == _Wherenode->_Parent->_Left) {

  001b9	8b 4a 04	 mov	 ecx, DWORD PTR [edx+4]
  001bc	3b 11		 cmp	 edx, DWORD PTR [ecx]
  001be	75 04		 jne	 SHORT $LN48@Insert_nod

; 496  :             _Wherenode->_Parent->_Left = _Pnode;

  001c0	89 31		 mov	 DWORD PTR [ecx], esi

; 497  :         } else {

  001c2	eb 03		 jmp	 SHORT $LN49@Insert_nod
$LN48@Insert_nod:

; 498  :             _Wherenode->_Parent->_Right = _Pnode;

  001c4	89 71 08	 mov	 DWORD PTR [ecx+8], esi
$LN49@Insert_nod:

; 499  :         }
; 500  : 
; 501  :         _Pnode->_Left       = _Wherenode;

  001c7	89 16		 mov	 DWORD PTR [esi], edx
$LN81@Insert_nod:

; 693  :             }
; 694  :         }
; 695  : 
; 696  :         for (_Nodeptr _Pnode = _Newnode; _Pnode->_Parent->_Color == _Red;) {

  001c9	89 72 04	 mov	 DWORD PTR [edx+4], esi
$LN2@Insert_nod:
  001cc	8b 48 04	 mov	 ecx, DWORD PTR [eax+4]
  001cf	80 79 0c 00	 cmp	 BYTE PTR [ecx+12], 0
  001d3	0f 84 87 fe ff
	ff		 je	 $LL4@Insert_nod
  001d9	5e		 pop	 esi
$LN3@Insert_nod:

; 730  :                 }
; 731  :             }
; 732  :         }
; 733  : 
; 734  :         _Head->_Parent->_Color = _Black; // root is always black

  001da	8b 45 fc	 mov	 eax, DWORD PTR __Head$1$[ebp]
  001dd	8b 40 04	 mov	 eax, DWORD PTR [eax+4]
  001e0	c6 40 0c 01	 mov	 BYTE PTR [eax+12], 1

; 735  :         return _Newnode;
; 736  :     }

  001e4	8b c7		 mov	 eax, edi
  001e6	5f		 pop	 edi
  001e7	5b		 pop	 ebx
  001e8	8b e5		 mov	 esp, ebp
  001ea	5d		 pop	 ebp
  001eb	c2 0c 00	 ret	 12			; 0000000cH
?_Insert_node@?$_Tree_val@U?$_Tree_simple_types@U?$pair@$$CBKPAVIBuff@@@std@@@std@@@std@@QAEPAU?$_Tree_node@U?$pair@$$CBKPAVIBuff@@@std@@PAX@2@U?$_Tree_id@PAU?$_Tree_node@U?$pair@$$CBKPAVIBuff@@@std@@PAX@std@@@2@QAU32@@Z ENDP ; std::_Tree_val<std::_Tree_simple_types<std::pair<unsigned long const ,IBuff *> > >::_Insert_node
_TEXT	ENDS
; Function compile flags: /Ogtp
; File C:\Program Files\Microsoft Visual Studio\2022\Professional\VC\Tools\MSVC\14.44.35207\include\xtree
; File C:\Program Files\Microsoft Visual Studio\2022\Professional\VC\Tools\MSVC\14.44.35207\include\utility
; File C:\Program Files\Microsoft Visual Studio\2022\Professional\VC\Tools\MSVC\14.44.35207\include\xtree
;	COMDAT ?_Extract@?$_Tree_val@U?$_Tree_simple_types@U?$pair@$$CBKPAVIBuff@@@std@@@std@@@std@@QAEPAU?$_Tree_node@U?$pair@$$CBKPAVIBuff@@@std@@PAX@2@V?$_Tree_unchecked_const_iterator@V?$_Tree_val@U?$_Tree_simple_types@U?$pair@$$CBKPAVIBuff@@@std@@@std@@@std@@U_Iterator_base0@2@@2@@Z
_TEXT	SEGMENT
tv1039 = -16						; size = 4
tv1073 = -12						; size = 4
tv1093 = -12						; size = 4
$T1 = -12						; size = 4
__Erasednode$1$ = -8					; size = 4
_this$1$ = -4						; size = 4
__Where$ = 8						; size = 4
?_Extract@?$_Tree_val@U?$_Tree_simple_types@U?$pair@$$CBKPAVIBuff@@@std@@@std@@@std@@QAEPAU?$_Tree_node@U?$pair@$$CBKPAVIBuff@@@std@@PAX@2@V?$_Tree_unchecked_const_iterator@V?$_Tree_val@U?$_Tree_simple_types@U?$pair@$$CBKPAVIBuff@@@std@@@std@@@std@@U_Iterator_base0@2@@2@@Z PROC ; std::_Tree_val<std::_Tree_simple_types<std::pair<unsigned long const ,IBuff *> > >::_Extract, COMDAT
; _this$ = ecx

; 527  :     _Nodeptr _Extract(_Unchecked_const_iterator _Where) noexcept {

  00000	55		 push	 ebp
  00001	8b ec		 mov	 ebp, esp
  00003	83 ec 10	 sub	 esp, 16			; 00000010H

; 528  :         _Nodeptr _Erasednode = _Where._Ptr; // node to erase

  00006	8b 45 08	 mov	 eax, DWORD PTR __Where$[ebp]
  00009	53		 push	 ebx
  0000a	56		 push	 esi
  0000b	8b d9		 mov	 ebx, ecx
  0000d	89 45 f8	 mov	 DWORD PTR __Erasednode$1$[ebp], eax
  00010	57		 push	 edi

; 529  :         ++_Where; // save successor iterator for return

  00011	8d 4d 08	 lea	 ecx, DWORD PTR __Where$[ebp]
  00014	89 5d fc	 mov	 DWORD PTR _this$1$[ebp], ebx
  00017	e8 00 00 00 00	 call	 ??E?$_Tree_unchecked_const_iterator@V?$_Tree_val@U?$_Tree_simple_types@U?$pair@$$CBKPAVIBuff@@@std@@@std@@@std@@U_Iterator_base0@2@@std@@QAEAAV01@XZ ; std::_Tree_unchecked_const_iterator<std::_Tree_val<std::_Tree_simple_types<std::pair<unsigned long const ,IBuff *> > >,std::_Iterator_base0>::operator++

; 530  : 
; 531  :         _Nodeptr _Fixnode; // the node to recolor as needed
; 532  :         _Nodeptr _Fixnodeparent; // parent of _Fixnode (which may be nil)
; 533  :         _Nodeptr _Pnode = _Erasednode;
; 534  : 
; 535  :         if (_Pnode->_Left->_Isnil) {

  0001c	8b 4d f8	 mov	 ecx, DWORD PTR __Erasednode$1$[ebp]
  0001f	8b 01		 mov	 eax, DWORD PTR [ecx]
  00021	8b 79 08	 mov	 edi, DWORD PTR [ecx+8]
  00024	80 78 0d 00	 cmp	 BYTE PTR [eax+13], 0
  00028	75 18		 jne	 SHORT $LN94@Extract

; 536  :             _Fixnode = _Pnode->_Right; // stitch up right subtree
; 537  :         } else if (_Pnode->_Right->_Isnil) {

  0002a	80 7f 0d 00	 cmp	 BYTE PTR [edi+13], 0
  0002e	74 04		 je	 SHORT $LN7@Extract

; 538  :             _Fixnode = _Pnode->_Left; // stitch up left subtree

  00030	8b f8		 mov	 edi, eax

; 539  :         } else { // two subtrees, must lift successor node to replace erased

  00032	eb 0e		 jmp	 SHORT $LN94@Extract
$LN7@Extract:

; 540  :             _Pnode   = _Where._Ptr; // _Pnode is successor node

  00034	8b 55 08	 mov	 edx, DWORD PTR __Where$[ebp]

; 541  :             _Fixnode = _Pnode->_Right; // _Fixnode is only subtree

  00037	8b 7a 08	 mov	 edi, DWORD PTR [edx+8]
  0003a	3b d1		 cmp	 edx, ecx

; 542  :         }
; 543  : 
; 544  :         if (_Pnode == _Erasednode) { // at most one subtree, relink it

  0003c	0f 85 91 00 00
	00		 jne	 $LN9@Extract
$LN94@Extract:

; 545  :             _Fixnodeparent = _Erasednode->_Parent;
; 546  :             if (!_Fixnode->_Isnil) {

  00042	80 7f 0d 00	 cmp	 BYTE PTR [edi+13], 0
  00046	8b 71 04	 mov	 esi, DWORD PTR [ecx+4]
  00049	75 03		 jne	 SHORT $LN11@Extract

; 547  :                 _Fixnode->_Parent = _Fixnodeparent; // link up

  0004b	89 77 04	 mov	 DWORD PTR [edi+4], esi
$LN11@Extract:

; 548  :             }
; 549  : 
; 550  :             if (_Myhead->_Parent == _Erasednode) {

  0004e	8b 03		 mov	 eax, DWORD PTR [ebx]
  00050	39 48 04	 cmp	 DWORD PTR [eax+4], ecx
  00053	75 05		 jne	 SHORT $LN12@Extract

; 551  :                 _Myhead->_Parent = _Fixnode; // link down from root

  00055	89 78 04	 mov	 DWORD PTR [eax+4], edi
  00058	eb 0b		 jmp	 SHORT $LN15@Extract
$LN12@Extract:

; 552  :             } else if (_Fixnodeparent->_Left == _Erasednode) {

  0005a	39 0e		 cmp	 DWORD PTR [esi], ecx
  0005c	75 04		 jne	 SHORT $LN14@Extract

; 553  :                 _Fixnodeparent->_Left = _Fixnode; // link down to left

  0005e	89 3e		 mov	 DWORD PTR [esi], edi

; 554  :             } else {

  00060	eb 03		 jmp	 SHORT $LN15@Extract
$LN14@Extract:

; 555  :                 _Fixnodeparent->_Right = _Fixnode; // link down to right

  00062	89 7e 08	 mov	 DWORD PTR [esi+8], edi
$LN15@Extract:

; 556  :             }
; 557  : 
; 558  :             if (_Myhead->_Left == _Erasednode) {

  00065	8b 03		 mov	 eax, DWORD PTR [ebx]
  00067	39 08		 cmp	 DWORD PTR [eax], ecx
  00069	75 28		 jne	 SHORT $LN16@Extract

; 559  :                 _Myhead->_Left = _Fixnode->_Isnil ? _Fixnodeparent // smallest is parent of erased node

  0006b	80 7f 0d 00	 cmp	 BYTE PTR [edi+13], 0
  0006f	74 04		 je	 SHORT $LN42@Extract
  00071	8b d6		 mov	 edx, esi
  00073	eb 1c		 jmp	 SHORT $LN43@Extract
$LN42@Extract:

; 476  :         while (!_Pnode->_Left->_Isnil) {

  00075	8b 0f		 mov	 ecx, DWORD PTR [edi]

; 559  :                 _Myhead->_Left = _Fixnode->_Isnil ? _Fixnodeparent // smallest is parent of erased node

  00077	8b d7		 mov	 edx, edi

; 476  :         while (!_Pnode->_Left->_Isnil) {

  00079	80 79 0d 00	 cmp	 BYTE PTR [ecx+13], 0
  0007d	75 0f		 jne	 SHORT $LN49@Extract
  0007f	90		 npad	 1
$LL48@Extract:
  00080	8b 01		 mov	 eax, DWORD PTR [ecx]

; 477  :             _Pnode = _Pnode->_Left;

  00082	8b d1		 mov	 edx, ecx
  00084	8b c8		 mov	 ecx, eax
  00086	80 78 0d 00	 cmp	 BYTE PTR [eax+13], 0
  0008a	74 f4		 je	 SHORT $LL48@Extract
  0008c	8b 03		 mov	 eax, DWORD PTR [ebx]
$LN49@Extract:
  0008e	8b 4d f8	 mov	 ecx, DWORD PTR __Erasednode$1$[ebp]
$LN43@Extract:

; 559  :                 _Myhead->_Left = _Fixnode->_Isnil ? _Fixnodeparent // smallest is parent of erased node

  00091	89 10		 mov	 DWORD PTR [eax], edx
$LN16@Extract:

; 560  :                                                   : _Min(_Fixnode); // smallest in relinked subtree
; 561  :             }
; 562  : 
; 563  :             if (_Myhead->_Right == _Erasednode) {

  00093	8b 13		 mov	 edx, DWORD PTR [ebx]
  00095	39 4a 08	 cmp	 DWORD PTR [edx+8], ecx
  00098	75 34		 jne	 SHORT $LN17@Extract

; 564  :                 _Myhead->_Right = _Fixnode->_Isnil ? _Fixnodeparent // largest is parent of erased node

  0009a	80 7f 0d 00	 cmp	 BYTE PTR [edi+13], 0
  0009e	74 0d		 je	 SHORT $LN44@Extract

; 565  :                                                    : _Max(_Fixnode); // largest in relinked subtree
; 566  :             }
; 567  :         } else { // erased has two subtrees, _Pnode is successor to erased

  000a0	8b 45 f8	 mov	 eax, DWORD PTR __Erasednode$1$[ebp]
  000a3	8b ce		 mov	 ecx, esi
  000a5	89 4a 08	 mov	 DWORD PTR [edx+8], ecx
  000a8	e9 94 00 00 00	 jmp	 $LN58@Extract
$LN44@Extract:

; 468  :         while (!_Pnode->_Right->_Isnil) {

  000ad	8b 47 08	 mov	 eax, DWORD PTR [edi+8]

; 564  :                 _Myhead->_Right = _Fixnode->_Isnil ? _Fixnodeparent // largest is parent of erased node

  000b0	8b cf		 mov	 ecx, edi

; 468  :         while (!_Pnode->_Right->_Isnil) {

  000b2	80 78 0d 00	 cmp	 BYTE PTR [eax+13], 0
  000b6	75 13		 jne	 SHORT $LN54@Extract
  000b8	0f 1f 84 00 00
	00 00 00	 npad	 8
$LL53@Extract:

; 469  :             _Pnode = _Pnode->_Right;

  000c0	8b c8		 mov	 ecx, eax
  000c2	8b 41 08	 mov	 eax, DWORD PTR [ecx+8]
  000c5	80 78 0d 00	 cmp	 BYTE PTR [eax+13], 0
  000c9	74 f5		 je	 SHORT $LL53@Extract
$LN54@Extract:

; 564  :                 _Myhead->_Right = _Fixnode->_Isnil ? _Fixnodeparent // largest is parent of erased node

  000cb	89 4a 08	 mov	 DWORD PTR [edx+8], ecx
$LN17@Extract:

; 565  :                                                    : _Max(_Fixnode); // largest in relinked subtree
; 566  :             }
; 567  :         } else { // erased has two subtrees, _Pnode is successor to erased

  000ce	8b 45 f8	 mov	 eax, DWORD PTR __Erasednode$1$[ebp]
  000d1	eb 6e		 jmp	 SHORT $LN58@Extract
$LN9@Extract:

; 568  :             _Erasednode->_Left->_Parent = _Pnode; // link left up

  000d3	89 50 04	 mov	 DWORD PTR [eax+4], edx

; 569  :             _Pnode->_Left               = _Erasednode->_Left; // link successor down

  000d6	8b 01		 mov	 eax, DWORD PTR [ecx]
  000d8	89 02		 mov	 DWORD PTR [edx], eax

; 570  : 
; 571  :             if (_Pnode == _Erasednode->_Right) {

  000da	8d 42 04	 lea	 eax, DWORD PTR [edx+4]
  000dd	89 45 f4	 mov	 DWORD PTR $T1[ebp], eax
  000e0	3b 51 08	 cmp	 edx, DWORD PTR [ecx+8]
  000e3	75 04		 jne	 SHORT $LN18@Extract

; 572  :                 _Fixnodeparent = _Pnode; // successor is next to erased

  000e5	8b f2		 mov	 esi, edx

; 573  :             } else { // successor further down, link in place of erased

  000e7	eb 1f		 jmp	 SHORT $LN19@Extract
$LN18@Extract:

; 574  :                 _Fixnodeparent = _Pnode->_Parent; // parent is successor's
; 575  :                 if (!_Fixnode->_Isnil) {

  000e9	80 7f 0d 00	 cmp	 BYTE PTR [edi+13], 0
  000ed	8b 30		 mov	 esi, DWORD PTR [eax]
  000ef	75 03		 jne	 SHORT $LN20@Extract

; 576  :                     _Fixnode->_Parent = _Fixnodeparent; // link fix up

  000f1	89 77 04	 mov	 DWORD PTR [edi+4], esi
$LN20@Extract:

; 577  :                 }
; 578  : 
; 579  :                 _Fixnodeparent->_Left        = _Fixnode; // link fix down

  000f4	89 3e		 mov	 DWORD PTR [esi], edi

; 580  :                 _Pnode->_Right               = _Erasednode->_Right; // link next down

  000f6	8b 41 08	 mov	 eax, DWORD PTR [ecx+8]
  000f9	89 42 08	 mov	 DWORD PTR [edx+8], eax

; 581  :                 _Erasednode->_Right->_Parent = _Pnode; // right up

  000fc	8b 41 08	 mov	 eax, DWORD PTR [ecx+8]
  000ff	89 50 04	 mov	 DWORD PTR [eax+4], edx
  00102	8d 42 04	 lea	 eax, DWORD PTR [edx+4]
  00105	89 45 f4	 mov	 DWORD PTR $T1[ebp], eax
$LN19@Extract:

; 582  :             }
; 583  : 
; 584  :             if (_Myhead->_Parent == _Erasednode) {

  00108	8b 03		 mov	 eax, DWORD PTR [ebx]
  0010a	39 48 04	 cmp	 DWORD PTR [eax+4], ecx
  0010d	75 05		 jne	 SHORT $LN21@Extract

; 585  :                 _Myhead->_Parent = _Pnode; // link down from root

  0010f	89 50 04	 mov	 DWORD PTR [eax+4], edx
  00112	eb 0e		 jmp	 SHORT $LN141@Extract
$LN21@Extract:

; 586  :             } else if (_Erasednode->_Parent->_Left == _Erasednode) {

  00114	8b 41 04	 mov	 eax, DWORD PTR [ecx+4]
  00117	39 08		 cmp	 DWORD PTR [eax], ecx
  00119	75 04		 jne	 SHORT $LN23@Extract

; 587  :                 _Erasednode->_Parent->_Left = _Pnode; // link down to left

  0011b	89 10		 mov	 DWORD PTR [eax], edx

; 588  :             } else {

  0011d	eb 03		 jmp	 SHORT $LN141@Extract
$LN23@Extract:

; 589  :                 _Erasednode->_Parent->_Right = _Pnode; // link down to right

  0011f	89 50 08	 mov	 DWORD PTR [eax+8], edx
$LN141@Extract:

; 590  :             }
; 591  : 
; 592  :             _Pnode->_Parent = _Erasednode->_Parent; // link successor up

  00122	b8 04 00 00 00	 mov	 eax, 4
  00127	8b 04 08	 mov	 eax, DWORD PTR [eax+ecx]
  0012a	8b 4d f4	 mov	 ecx, DWORD PTR $T1[ebp]
  0012d	89 01		 mov	 DWORD PTR [ecx], eax
; File C:\Program Files\Microsoft Visual Studio\2022\Professional\VC\Tools\MSVC\14.44.35207\include\utility

; 140  :     _Left    = _STD move(_Right);

  0012f	8b 45 f8	 mov	 eax, DWORD PTR __Erasednode$1$[ebp]
  00132	8a 4a 0c	 mov	 cl, BYTE PTR [edx+12]
  00135	8a 40 0c	 mov	 al, BYTE PTR [eax+12]
  00138	88 42 0c	 mov	 BYTE PTR [edx+12], al

; 141  :     _Right   = _STD move(_Tmp);

  0013b	8b 45 f8	 mov	 eax, DWORD PTR __Erasednode$1$[ebp]
  0013e	88 48 0c	 mov	 BYTE PTR [eax+12], cl
$LN58@Extract:
; File C:\Program Files\Microsoft Visual Studio\2022\Professional\VC\Tools\MSVC\14.44.35207\include\xtree

; 596  :         if (_Erasednode->_Color == _Black) { // erasing black link, must recolor/rebalance tree

  00141	80 78 0c 01	 cmp	 BYTE PTR [eax+12], 1
  00145	0f 85 ba 01 00
	00		 jne	 $LN25@Extract

; 597  :             for (; _Fixnode != _Myhead->_Parent && _Fixnode->_Color == _Black; _Fixnodeparent = _Fixnode->_Parent) {

  0014b	8b 03		 mov	 eax, DWORD PTR [ebx]
  0014d	3b 78 04	 cmp	 edi, DWORD PTR [eax+4]
  00150	0f 84 a8 01 00
	00		 je	 $LN3@Extract
  00156	80 7f 0c 01	 cmp	 BYTE PTR [edi+12], 1
  0015a	89 75 f4	 mov	 DWORD PTR tv1093[ebp], esi
  0015d	0f 85 9b 01 00
	00		 jne	 $LN3@Extract
$LL4@Extract:

; 598  :                 if (_Fixnode == _Fixnodeparent->_Left) { // fixup left subtree

  00163	8b 0e		 mov	 ecx, DWORD PTR [esi]
  00165	3b f9		 cmp	 edi, ecx
  00167	0f 85 be 00 00
	00		 jne	 $LN26@Extract

; 599  :                     _Pnode = _Fixnodeparent->_Right;

  0016d	8b 4e 08	 mov	 ecx, DWORD PTR [esi+8]

; 600  :                     if (_Pnode->_Color == _Red) { // rotate red up from right subtree

  00170	80 79 0c 00	 cmp	 BYTE PTR [ecx+12], 0
  00174	75 54		 jne	 SHORT $LN95@Extract

; 601  :                         _Pnode->_Color         = _Black;

  00176	c6 41 0c 01	 mov	 BYTE PTR [ecx+12], 1

; 484  :         _Nodeptr _Pnode    = _Wherenode->_Right;

  0017a	8b 4e 08	 mov	 ecx, DWORD PTR [esi+8]

; 602  :                         _Fixnodeparent->_Color = _Red;

  0017d	c6 46 0c 00	 mov	 BYTE PTR [esi+12], 0

; 485  :         _Wherenode->_Right = _Pnode->_Left;

  00181	8b 01		 mov	 eax, DWORD PTR [ecx]
  00183	89 46 08	 mov	 DWORD PTR [esi+8], eax

; 486  : 
; 487  :         if (!_Pnode->_Left->_Isnil) {

  00186	8b 01		 mov	 eax, DWORD PTR [ecx]
  00188	80 78 0d 00	 cmp	 BYTE PTR [eax+13], 0
  0018c	75 03		 jne	 SHORT $LN61@Extract

; 488  :             _Pnode->_Left->_Parent = _Wherenode;

  0018e	89 70 04	 mov	 DWORD PTR [eax+4], esi
$LN61@Extract:

; 489  :         }
; 490  : 
; 491  :         _Pnode->_Parent = _Wherenode->_Parent;

  00191	8b 46 04	 mov	 eax, DWORD PTR [esi+4]
  00194	8d 56 04	 lea	 edx, DWORD PTR [esi+4]
  00197	89 41 04	 mov	 DWORD PTR [ecx+4], eax

; 492  : 
; 493  :         if (_Wherenode == _Myhead->_Parent) {

  0019a	8b 03		 mov	 eax, DWORD PTR [ebx]
  0019c	3b 70 04	 cmp	 esi, DWORD PTR [eax+4]
  0019f	75 0c		 jne	 SHORT $LN62@Extract

; 494  :             _Myhead->_Parent = _Pnode;

  001a1	89 48 04	 mov	 DWORD PTR [eax+4], ecx

; 499  :         }
; 500  : 
; 501  :         _Pnode->_Left       = _Wherenode;

  001a4	89 31		 mov	 DWORD PTR [ecx], esi

; 502  :         _Wherenode->_Parent = _Pnode;

  001a6	89 0a		 mov	 DWORD PTR [edx], ecx

; 603  :                         _Lrotate(_Fixnodeparent);
; 604  :                         _Pnode = _Fixnodeparent->_Right;

  001a8	8b 4e 08	 mov	 ecx, DWORD PTR [esi+8]
  001ab	eb 20		 jmp	 SHORT $LN87@Extract
$LN62@Extract:

; 495  :         } else if (_Wherenode == _Wherenode->_Parent->_Left) {

  001ad	8b 02		 mov	 eax, DWORD PTR [edx]
  001af	3b 30		 cmp	 esi, DWORD PTR [eax]
  001b1	75 0b		 jne	 SHORT $LN64@Extract

; 496  :             _Wherenode->_Parent->_Left = _Pnode;

  001b3	89 08		 mov	 DWORD PTR [eax], ecx

; 499  :         }
; 500  : 
; 501  :         _Pnode->_Left       = _Wherenode;

  001b5	89 31		 mov	 DWORD PTR [ecx], esi

; 502  :         _Wherenode->_Parent = _Pnode;

  001b7	89 0a		 mov	 DWORD PTR [edx], ecx

; 603  :                         _Lrotate(_Fixnodeparent);
; 604  :                         _Pnode = _Fixnodeparent->_Right;

  001b9	8b 4e 08	 mov	 ecx, DWORD PTR [esi+8]
  001bc	eb 0f		 jmp	 SHORT $LN87@Extract
$LN64@Extract:

; 498  :             _Wherenode->_Parent->_Right = _Pnode;

  001be	89 48 08	 mov	 DWORD PTR [eax+8], ecx

; 499  :         }
; 500  : 
; 501  :         _Pnode->_Left       = _Wherenode;

  001c1	89 31		 mov	 DWORD PTR [ecx], esi

; 502  :         _Wherenode->_Parent = _Pnode;

  001c3	89 0a		 mov	 DWORD PTR [edx], ecx

; 603  :                         _Lrotate(_Fixnodeparent);
; 604  :                         _Pnode = _Fixnodeparent->_Right;

  001c5	8b 4e 08	 mov	 ecx, DWORD PTR [esi+8]
  001c8	eb 03		 jmp	 SHORT $LN87@Extract
$LN95@Extract:
  001ca	8d 56 04	 lea	 edx, DWORD PTR [esi+4]
$LN87@Extract:

; 605  :                     }
; 606  : 
; 607  :                     if (_Pnode->_Isnil) {

  001cd	80 79 0d 00	 cmp	 BYTE PTR [ecx+13], 0
  001d1	0f 85 d0 00 00
	00		 jne	 $LN2@Extract

; 608  :                         _Fixnode = _Fixnodeparent; // shouldn't happen
; 609  :                     } else if (_Pnode->_Left->_Color == _Black
; 610  :                                && _Pnode->_Right->_Color == _Black) { // redden right subtree with black children

  001d7	8b 01		 mov	 eax, DWORD PTR [ecx]
  001d9	80 78 0c 01	 cmp	 BYTE PTR [eax+12], 1
  001dd	75 0d		 jne	 SHORT $LN97@Extract
  001df	8b 41 08	 mov	 eax, DWORD PTR [ecx+8]
  001e2	80 78 0c 01	 cmp	 BYTE PTR [eax+12], 1
  001e6	0f 84 b4 00 00
	00		 je	 $LN142@Extract
$LN97@Extract:

; 611  :                         _Pnode->_Color = _Red;
; 612  :                         _Fixnode       = _Fixnodeparent;
; 613  :                     } else { // must rearrange right subtree
; 614  :                         if (_Pnode->_Right->_Color == _Black) { // rotate red up from left sub-subtree

  001ec	8b 41 08	 mov	 eax, DWORD PTR [ecx+8]
  001ef	8b 5d fc	 mov	 ebx, DWORD PTR _this$1$[ebp]
  001f2	80 78 0c 01	 cmp	 BYTE PTR [eax+12], 1
  001f6	75 15		 jne	 SHORT $LN33@Extract

; 615  :                             _Pnode->_Left->_Color = _Black;

  001f8	8b 01		 mov	 eax, DWORD PTR [ecx]

; 616  :                             _Pnode->_Color        = _Red;
; 617  :                             _Rrotate(_Pnode);

  001fa	51		 push	 ecx
  001fb	c6 40 0c 01	 mov	 BYTE PTR [eax+12], 1
  001ff	c6 41 0c 00	 mov	 BYTE PTR [ecx+12], 0
  00203	8b cb		 mov	 ecx, ebx
  00205	e8 00 00 00 00	 call	 ?_Rrotate@?$_Tree_val@U?$_Tree_simple_types@U?$pair@$$CBKPAVIBuff@@@std@@@std@@@std@@QAEXPAU?$_Tree_node@U?$pair@$$CBKPAVIBuff@@@std@@PAX@2@@Z ; std::_Tree_val<std::_Tree_simple_types<std::pair<unsigned long const ,IBuff *> > >::_Rrotate

; 618  :                             _Pnode = _Fixnodeparent->_Right;

  0020a	8b 4e 08	 mov	 ecx, DWORD PTR [esi+8]
$LN33@Extract:

; 619  :                         }
; 620  : 
; 621  :                         _Pnode->_Color         = _Fixnodeparent->_Color;

  0020d	8a 46 0c	 mov	 al, BYTE PTR [esi+12]
  00210	88 41 0c	 mov	 BYTE PTR [ecx+12], al

; 622  :                         _Fixnodeparent->_Color = _Black;

  00213	c6 46 0c 01	 mov	 BYTE PTR [esi+12], 1

; 623  :                         _Pnode->_Right->_Color = _Black;

  00217	8b 41 08	 mov	 eax, DWORD PTR [ecx+8]

; 624  :                         _Lrotate(_Fixnodeparent);

  0021a	8b cb		 mov	 ecx, ebx
  0021c	56		 push	 esi
  0021d	c6 40 0c 01	 mov	 BYTE PTR [eax+12], 1
  00221	e8 00 00 00 00	 call	 ?_Lrotate@?$_Tree_val@U?$_Tree_simple_types@U?$pair@$$CBKPAVIBuff@@@std@@@std@@@std@@QAEXPAU?$_Tree_node@U?$pair@$$CBKPAVIBuff@@@std@@PAX@2@@Z ; std::_Tree_val<std::_Tree_simple_types<std::pair<unsigned long const ,IBuff *> > >::_Lrotate

; 625  :                         break; // tree now recolored/rebalanced

  00226	e9 d3 00 00 00	 jmp	 $LN3@Extract
$LN26@Extract:

; 626  :                     }
; 627  :                 } else { // fixup right subtree
; 628  :                     _Pnode = _Fixnodeparent->_Left;
; 629  :                     if (_Pnode->_Color == _Red) { // rotate red up from left subtree

  0022b	80 79 0c 00	 cmp	 BYTE PTR [ecx+12], 0
  0022f	75 55		 jne	 SHORT $LN96@Extract

; 630  :                         _Pnode->_Color         = _Black;

  00231	c6 41 0c 01	 mov	 BYTE PTR [ecx+12], 1

; 506  :         _Nodeptr _Pnode   = _Wherenode->_Left;

  00235	8b 0e		 mov	 ecx, DWORD PTR [esi]

; 631  :                         _Fixnodeparent->_Color = _Red;

  00237	c6 46 0c 00	 mov	 BYTE PTR [esi+12], 0

; 507  :         _Wherenode->_Left = _Pnode->_Right;

  0023b	8b 41 08	 mov	 eax, DWORD PTR [ecx+8]
  0023e	89 06		 mov	 DWORD PTR [esi], eax

; 508  : 
; 509  :         if (!_Pnode->_Right->_Isnil) {

  00240	8b 41 08	 mov	 eax, DWORD PTR [ecx+8]
  00243	80 78 0d 00	 cmp	 BYTE PTR [eax+13], 0
  00247	75 03		 jne	 SHORT $LN69@Extract

; 510  :             _Pnode->_Right->_Parent = _Wherenode;

  00249	89 70 04	 mov	 DWORD PTR [eax+4], esi
$LN69@Extract:

; 511  :         }
; 512  : 
; 513  :         _Pnode->_Parent = _Wherenode->_Parent;

  0024c	8b 46 04	 mov	 eax, DWORD PTR [esi+4]
  0024f	8d 56 04	 lea	 edx, DWORD PTR [esi+4]
  00252	89 41 04	 mov	 DWORD PTR [ecx+4], eax

; 514  : 
; 515  :         if (_Wherenode == _Myhead->_Parent) {

  00255	8b 03		 mov	 eax, DWORD PTR [ebx]
  00257	3b 70 04	 cmp	 esi, DWORD PTR [eax+4]
  0025a	75 0c		 jne	 SHORT $LN70@Extract

; 516  :             _Myhead->_Parent = _Pnode;

  0025c	89 48 04	 mov	 DWORD PTR [eax+4], ecx

; 521  :         }
; 522  : 
; 523  :         _Pnode->_Right      = _Wherenode;

  0025f	89 71 08	 mov	 DWORD PTR [ecx+8], esi

; 524  :         _Wherenode->_Parent = _Pnode;

  00262	89 0a		 mov	 DWORD PTR [edx], ecx

; 632  :                         _Rrotate(_Fixnodeparent);
; 633  :                         _Pnode = _Fixnodeparent->_Left;

  00264	8b 0e		 mov	 ecx, DWORD PTR [esi]
  00266	eb 21		 jmp	 SHORT $LN86@Extract
$LN70@Extract:

; 517  :         } else if (_Wherenode == _Wherenode->_Parent->_Right) {

  00268	8b 02		 mov	 eax, DWORD PTR [edx]
  0026a	3b 70 08	 cmp	 esi, DWORD PTR [eax+8]
  0026d	75 0c		 jne	 SHORT $LN72@Extract

; 518  :             _Wherenode->_Parent->_Right = _Pnode;

  0026f	89 48 08	 mov	 DWORD PTR [eax+8], ecx

; 521  :         }
; 522  : 
; 523  :         _Pnode->_Right      = _Wherenode;

  00272	89 71 08	 mov	 DWORD PTR [ecx+8], esi

; 524  :         _Wherenode->_Parent = _Pnode;

  00275	89 0a		 mov	 DWORD PTR [edx], ecx

; 632  :                         _Rrotate(_Fixnodeparent);
; 633  :                         _Pnode = _Fixnodeparent->_Left;

  00277	8b 0e		 mov	 ecx, DWORD PTR [esi]
  00279	eb 0e		 jmp	 SHORT $LN86@Extract
$LN72@Extract:

; 520  :             _Wherenode->_Parent->_Left = _Pnode;

  0027b	89 08		 mov	 DWORD PTR [eax], ecx

; 521  :         }
; 522  : 
; 523  :         _Pnode->_Right      = _Wherenode;

  0027d	89 71 08	 mov	 DWORD PTR [ecx+8], esi

; 524  :         _Wherenode->_Parent = _Pnode;

  00280	89 0a		 mov	 DWORD PTR [edx], ecx

; 632  :                         _Rrotate(_Fixnodeparent);
; 633  :                         _Pnode = _Fixnodeparent->_Left;

  00282	8b 0e		 mov	 ecx, DWORD PTR [esi]
  00284	eb 03		 jmp	 SHORT $LN86@Extract
$LN96@Extract:
  00286	8d 56 04	 lea	 edx, DWORD PTR [esi+4]
$LN86@Extract:

; 634  :                     }
; 635  : 
; 636  :                     if (_Pnode->_Isnil) {

  00289	80 79 0d 00	 cmp	 BYTE PTR [ecx+13], 0
  0028d	75 18		 jne	 SHORT $LN2@Extract

; 637  :                         _Fixnode = _Fixnodeparent; // shouldn't happen
; 638  :                     } else if (_Pnode->_Right->_Color == _Black
; 639  :                                && _Pnode->_Left->_Color == _Black) { // redden left subtree with black children

  0028f	8b 59 08	 mov	 ebx, DWORD PTR [ecx+8]
  00292	80 7b 0c 01	 cmp	 BYTE PTR [ebx+12], 1
  00296	75 2c		 jne	 SHORT $LN98@Extract
  00298	8b 01		 mov	 eax, DWORD PTR [ecx]
  0029a	80 78 0c 01	 cmp	 BYTE PTR [eax+12], 1
  0029e	75 24		 jne	 SHORT $LN98@Extract
$LN142@Extract:

; 597  :             for (; _Fixnode != _Myhead->_Parent && _Fixnode->_Color == _Black; _Fixnodeparent = _Fixnode->_Parent) {

  002a0	8b 5d fc	 mov	 ebx, DWORD PTR _this$1$[ebp]
  002a3	c6 41 0c 00	 mov	 BYTE PTR [ecx+12], 0
$LN2@Extract:
  002a7	8b 03		 mov	 eax, DWORD PTR [ebx]
  002a9	8b 4d f4	 mov	 ecx, DWORD PTR tv1093[ebp]
  002ac	8b f9		 mov	 edi, ecx
  002ae	8b 32		 mov	 esi, DWORD PTR [edx]
  002b0	3b 48 04	 cmp	 ecx, DWORD PTR [eax+4]
  002b3	74 49		 je	 SHORT $LN3@Extract
  002b5	80 7f 0c 01	 cmp	 BYTE PTR [edi+12], 1
  002b9	89 75 f4	 mov	 DWORD PTR tv1093[ebp], esi
  002bc	0f 84 a1 fe ff
	ff		 je	 $LL4@Extract
  002c2	eb 3a		 jmp	 SHORT $LN3@Extract
$LN98@Extract:

; 640  :                         _Pnode->_Color = _Red;
; 641  :                         _Fixnode       = _Fixnodeparent;
; 642  :                     } else { // must rearrange left subtree
; 643  :                         if (_Pnode->_Left->_Color == _Black) { // rotate red up from right sub-subtree

  002c4	8b 01		 mov	 eax, DWORD PTR [ecx]
  002c6	80 78 0c 01	 cmp	 BYTE PTR [eax+12], 1
  002ca	75 17		 jne	 SHORT $LN101@Extract

; 644  :                             _Pnode->_Right->_Color = _Black;

  002cc	c6 43 0c 01	 mov	 BYTE PTR [ebx+12], 1

; 645  :                             _Pnode->_Color         = _Red;
; 646  :                             _Lrotate(_Pnode);

  002d0	8b 5d fc	 mov	 ebx, DWORD PTR _this$1$[ebp]
  002d3	c6 41 0c 00	 mov	 BYTE PTR [ecx+12], 0
  002d7	51		 push	 ecx
  002d8	8b cb		 mov	 ecx, ebx
  002da	e8 00 00 00 00	 call	 ?_Lrotate@?$_Tree_val@U?$_Tree_simple_types@U?$pair@$$CBKPAVIBuff@@@std@@@std@@@std@@QAEXPAU?$_Tree_node@U?$pair@$$CBKPAVIBuff@@@std@@PAX@2@@Z ; std::_Tree_val<std::_Tree_simple_types<std::pair<unsigned long const ,IBuff *> > >::_Lrotate

; 647  :                             _Pnode = _Fixnodeparent->_Left;

  002df	8b 0e		 mov	 ecx, DWORD PTR [esi]
  002e1	eb 03		 jmp	 SHORT $LN39@Extract
$LN101@Extract:

; 640  :                         _Pnode->_Color = _Red;
; 641  :                         _Fixnode       = _Fixnodeparent;
; 642  :                     } else { // must rearrange left subtree
; 643  :                         if (_Pnode->_Left->_Color == _Black) { // rotate red up from right sub-subtree

  002e3	8b 5d fc	 mov	 ebx, DWORD PTR _this$1$[ebp]
$LN39@Extract:

; 648  :                         }
; 649  : 
; 650  :                         _Pnode->_Color         = _Fixnodeparent->_Color;

  002e6	8a 46 0c	 mov	 al, BYTE PTR [esi+12]
  002e9	88 41 0c	 mov	 BYTE PTR [ecx+12], al

; 651  :                         _Fixnodeparent->_Color = _Black;

  002ec	c6 46 0c 01	 mov	 BYTE PTR [esi+12], 1

; 652  :                         _Pnode->_Left->_Color  = _Black;

  002f0	8b 01		 mov	 eax, DWORD PTR [ecx]

; 653  :                         _Rrotate(_Fixnodeparent);

  002f2	8b cb		 mov	 ecx, ebx
  002f4	56		 push	 esi
  002f5	c6 40 0c 01	 mov	 BYTE PTR [eax+12], 1
  002f9	e8 00 00 00 00	 call	 ?_Rrotate@?$_Tree_val@U?$_Tree_simple_types@U?$pair@$$CBKPAVIBuff@@@std@@@std@@@std@@QAEXPAU?$_Tree_node@U?$pair@$$CBKPAVIBuff@@@std@@PAX@2@@Z ; std::_Tree_val<std::_Tree_simple_types<std::pair<unsigned long const ,IBuff *> > >::_Rrotate
$LN3@Extract:

; 654  :                         break; // tree now recolored/rebalanced
; 655  :                     }
; 656  :                 }
; 657  :             }
; 658  : 
; 659  :             _Fixnode->_Color = _Black; // stopping node is black

  002fe	8b 45 f8	 mov	 eax, DWORD PTR __Erasednode$1$[ebp]
  00301	c6 47 0c 01	 mov	 BYTE PTR [edi+12], 1
$LN25@Extract:

; 660  :         }
; 661  : 
; 662  :         if (0 < _Mysize) {

  00305	8b 4b 04	 mov	 ecx, DWORD PTR [ebx+4]
  00308	85 c9		 test	 ecx, ecx
  0030a	74 04		 je	 SHORT $LN40@Extract

; 663  :             --_Mysize;

  0030c	49		 dec	 ecx
  0030d	89 4b 04	 mov	 DWORD PTR [ebx+4], ecx
$LN40@Extract:

; 664  :         }
; 665  : 
; 666  :         return _Erasednode;
; 667  :     }

  00310	5f		 pop	 edi
  00311	5e		 pop	 esi
  00312	5b		 pop	 ebx
  00313	8b e5		 mov	 esp, ebp
  00315	5d		 pop	 ebp
  00316	c2 04 00	 ret	 4
?_Extract@?$_Tree_val@U?$_Tree_simple_types@U?$pair@$$CBKPAVIBuff@@@std@@@std@@@std@@QAEPAU?$_Tree_node@U?$pair@$$CBKPAVIBuff@@@std@@PAX@2@V?$_Tree_unchecked_const_iterator@V?$_Tree_val@U?$_Tree_simple_types@U?$pair@$$CBKPAVIBuff@@@std@@@std@@@std@@U_Iterator_base0@2@@2@@Z ENDP ; std::_Tree_val<std::_Tree_simple_types<std::pair<unsigned long const ,IBuff *> > >::_Extract
_TEXT	ENDS
; Function compile flags: /Ogtp
; File C:\Program Files\Microsoft Visual Studio\2022\Professional\VC\Tools\MSVC\14.44.35207\include\xtree
;	COMDAT ?_Rrotate@?$_Tree_val@U?$_Tree_simple_types@U?$pair@$$CBKPAVIBuff@@@std@@@std@@@std@@QAEXPAU?$_Tree_node@U?$pair@$$CBKPAVIBuff@@@std@@PAX@2@@Z
_TEXT	SEGMENT
__Wherenode$ = 8					; size = 4
?_Rrotate@?$_Tree_val@U?$_Tree_simple_types@U?$pair@$$CBKPAVIBuff@@@std@@@std@@@std@@QAEXPAU?$_Tree_node@U?$pair@$$CBKPAVIBuff@@@std@@PAX@2@@Z PROC ; std::_Tree_val<std::_Tree_simple_types<std::pair<unsigned long const ,IBuff *> > >::_Rrotate, COMDAT
; _this$ = ecx

; 505  :     void _Rrotate(_Nodeptr _Wherenode) noexcept { // promote left node to root of subtree

  00000	55		 push	 ebp
  00001	8b ec		 mov	 ebp, esp

; 506  :         _Nodeptr _Pnode   = _Wherenode->_Left;

  00003	8b 55 08	 mov	 edx, DWORD PTR __Wherenode$[ebp]
  00006	56		 push	 esi
  00007	8b 32		 mov	 esi, DWORD PTR [edx]

; 507  :         _Wherenode->_Left = _Pnode->_Right;

  00009	8b 46 08	 mov	 eax, DWORD PTR [esi+8]
  0000c	89 02		 mov	 DWORD PTR [edx], eax

; 508  : 
; 509  :         if (!_Pnode->_Right->_Isnil) {

  0000e	8b 46 08	 mov	 eax, DWORD PTR [esi+8]
  00011	80 78 0d 00	 cmp	 BYTE PTR [eax+13], 0
  00015	75 03		 jne	 SHORT $LN2@Rrotate

; 510  :             _Pnode->_Right->_Parent = _Wherenode;

  00017	89 50 04	 mov	 DWORD PTR [eax+4], edx
$LN2@Rrotate:

; 511  :         }
; 512  : 
; 513  :         _Pnode->_Parent = _Wherenode->_Parent;

  0001a	8b 42 04	 mov	 eax, DWORD PTR [edx+4]
  0001d	89 46 04	 mov	 DWORD PTR [esi+4], eax

; 514  : 
; 515  :         if (_Wherenode == _Myhead->_Parent) {

  00020	8b 01		 mov	 eax, DWORD PTR [ecx]
  00022	3b 50 04	 cmp	 edx, DWORD PTR [eax+4]
  00025	75 0e		 jne	 SHORT $LN3@Rrotate

; 516  :             _Myhead->_Parent = _Pnode;

  00027	89 70 04	 mov	 DWORD PTR [eax+4], esi

; 521  :         }
; 522  : 
; 523  :         _Pnode->_Right      = _Wherenode;
; 524  :         _Wherenode->_Parent = _Pnode;
; 525  :     }

  0002a	89 56 08	 mov	 DWORD PTR [esi+8], edx
  0002d	89 72 04	 mov	 DWORD PTR [edx+4], esi
  00030	5e		 pop	 esi
  00031	5d		 pop	 ebp
  00032	c2 04 00	 ret	 4
$LN3@Rrotate:

; 517  :         } else if (_Wherenode == _Wherenode->_Parent->_Right) {

  00035	8b 42 04	 mov	 eax, DWORD PTR [edx+4]
  00038	3b 50 08	 cmp	 edx, DWORD PTR [eax+8]
  0003b	75 0e		 jne	 SHORT $LN5@Rrotate

; 518  :             _Wherenode->_Parent->_Right = _Pnode;

  0003d	89 70 08	 mov	 DWORD PTR [eax+8], esi

; 521  :         }
; 522  : 
; 523  :         _Pnode->_Right      = _Wherenode;
; 524  :         _Wherenode->_Parent = _Pnode;
; 525  :     }

  00040	89 56 08	 mov	 DWORD PTR [esi+8], edx
  00043	89 72 04	 mov	 DWORD PTR [edx+4], esi
  00046	5e		 pop	 esi
  00047	5d		 pop	 ebp
  00048	c2 04 00	 ret	 4
$LN5@Rrotate:

; 519  :         } else {
; 520  :             _Wherenode->_Parent->_Left = _Pnode;

  0004b	89 30		 mov	 DWORD PTR [eax], esi

; 521  :         }
; 522  : 
; 523  :         _Pnode->_Right      = _Wherenode;
; 524  :         _Wherenode->_Parent = _Pnode;
; 525  :     }

  0004d	89 56 08	 mov	 DWORD PTR [esi+8], edx
  00050	89 72 04	 mov	 DWORD PTR [edx+4], esi
  00053	5e		 pop	 esi
  00054	5d		 pop	 ebp
  00055	c2 04 00	 ret	 4
?_Rrotate@?$_Tree_val@U?$_Tree_simple_types@U?$pair@$$CBKPAVIBuff@@@std@@@std@@@std@@QAEXPAU?$_Tree_node@U?$pair@$$CBKPAVIBuff@@@std@@PAX@2@@Z ENDP ; std::_Tree_val<std::_Tree_simple_types<std::pair<unsigned long const ,IBuff *> > >::_Rrotate
_TEXT	ENDS
; Function compile flags: /Ogtp
; File C:\Program Files\Microsoft Visual Studio\2022\Professional\VC\Tools\MSVC\14.44.35207\include\xtree
;	COMDAT ?_Lrotate@?$_Tree_val@U?$_Tree_simple_types@U?$pair@$$CBKPAVIBuff@@@std@@@std@@@std@@QAEXPAU?$_Tree_node@U?$pair@$$CBKPAVIBuff@@@std@@PAX@2@@Z
_TEXT	SEGMENT
__Wherenode$ = 8					; size = 4
?_Lrotate@?$_Tree_val@U?$_Tree_simple_types@U?$pair@$$CBKPAVIBuff@@@std@@@std@@@std@@QAEXPAU?$_Tree_node@U?$pair@$$CBKPAVIBuff@@@std@@PAX@2@@Z PROC ; std::_Tree_val<std::_Tree_simple_types<std::pair<unsigned long const ,IBuff *> > >::_Lrotate, COMDAT
; _this$ = ecx

; 483  :     void _Lrotate(_Nodeptr _Wherenode) noexcept { // promote right node to root of subtree

  00000	55		 push	 ebp
  00001	8b ec		 mov	 ebp, esp

; 484  :         _Nodeptr _Pnode    = _Wherenode->_Right;

  00003	8b 55 08	 mov	 edx, DWORD PTR __Wherenode$[ebp]
  00006	56		 push	 esi
  00007	8b 72 08	 mov	 esi, DWORD PTR [edx+8]

; 485  :         _Wherenode->_Right = _Pnode->_Left;

  0000a	8b 06		 mov	 eax, DWORD PTR [esi]
  0000c	89 42 08	 mov	 DWORD PTR [edx+8], eax

; 486  : 
; 487  :         if (!_Pnode->_Left->_Isnil) {

  0000f	8b 06		 mov	 eax, DWORD PTR [esi]
  00011	80 78 0d 00	 cmp	 BYTE PTR [eax+13], 0
  00015	75 03		 jne	 SHORT $LN2@Lrotate

; 488  :             _Pnode->_Left->_Parent = _Wherenode;

  00017	89 50 04	 mov	 DWORD PTR [eax+4], edx
$LN2@Lrotate:

; 489  :         }
; 490  : 
; 491  :         _Pnode->_Parent = _Wherenode->_Parent;

  0001a	8b 42 04	 mov	 eax, DWORD PTR [edx+4]
  0001d	89 46 04	 mov	 DWORD PTR [esi+4], eax

; 492  : 
; 493  :         if (_Wherenode == _Myhead->_Parent) {

  00020	8b 01		 mov	 eax, DWORD PTR [ecx]
  00022	3b 50 04	 cmp	 edx, DWORD PTR [eax+4]
  00025	75 0d		 jne	 SHORT $LN3@Lrotate

; 494  :             _Myhead->_Parent = _Pnode;

  00027	89 70 04	 mov	 DWORD PTR [eax+4], esi

; 499  :         }
; 500  : 
; 501  :         _Pnode->_Left       = _Wherenode;
; 502  :         _Wherenode->_Parent = _Pnode;
; 503  :     }

  0002a	89 16		 mov	 DWORD PTR [esi], edx
  0002c	89 72 04	 mov	 DWORD PTR [edx+4], esi
  0002f	5e		 pop	 esi
  00030	5d		 pop	 ebp
  00031	c2 04 00	 ret	 4
$LN3@Lrotate:

; 495  :         } else if (_Wherenode == _Wherenode->_Parent->_Left) {

  00034	8b 42 04	 mov	 eax, DWORD PTR [edx+4]
  00037	3b 10		 cmp	 edx, DWORD PTR [eax]
  00039	75 0c		 jne	 SHORT $LN5@Lrotate

; 496  :             _Wherenode->_Parent->_Left = _Pnode;

  0003b	89 30		 mov	 DWORD PTR [eax], esi

; 499  :         }
; 500  : 
; 501  :         _Pnode->_Left       = _Wherenode;
; 502  :         _Wherenode->_Parent = _Pnode;
; 503  :     }

  0003d	89 16		 mov	 DWORD PTR [esi], edx
  0003f	89 72 04	 mov	 DWORD PTR [edx+4], esi
  00042	5e		 pop	 esi
  00043	5d		 pop	 ebp
  00044	c2 04 00	 ret	 4
$LN5@Lrotate:

; 497  :         } else {
; 498  :             _Wherenode->_Parent->_Right = _Pnode;

  00047	89 70 08	 mov	 DWORD PTR [eax+8], esi

; 499  :         }
; 500  : 
; 501  :         _Pnode->_Left       = _Wherenode;
; 502  :         _Wherenode->_Parent = _Pnode;
; 503  :     }

  0004a	89 16		 mov	 DWORD PTR [esi], edx
  0004c	89 72 04	 mov	 DWORD PTR [edx+4], esi
  0004f	5e		 pop	 esi
  00050	5d		 pop	 ebp
  00051	c2 04 00	 ret	 4
?_Lrotate@?$_Tree_val@U?$_Tree_simple_types@U?$pair@$$CBKPAVIBuff@@@std@@@std@@@std@@QAEXPAU?$_Tree_node@U?$pair@$$CBKPAVIBuff@@@std@@PAX@2@@Z ENDP ; std::_Tree_val<std::_Tree_simple_types<std::pair<unsigned long const ,IBuff *> > >::_Lrotate
_TEXT	ENDS
; Function compile flags: /Ogtp
; File C:\Program Files\Microsoft Visual Studio\2022\Professional\VC\Tools\MSVC\14.44.35207\include\xtree
; File C:\Program Files\Microsoft Visual Studio\2022\Professional\VC\Tools\MSVC\14.44.35207\include\utility
; File C:\Program Files\Microsoft Visual Studio\2022\Professional\VC\Tools\MSVC\14.44.35207\include\xmemory
; File C:\Program Files\Microsoft Visual Studio\2022\Professional\VC\Tools\MSVC\14.44.35207\include\xtree
;	COMDAT ?clear@?$_Tree@V?$_Tmap_traits@KPAVIBuff@@U?$less@K@std@@V?$allocator@U?$pair@$$CBKPAVIBuff@@@std@@@3@$0A@@std@@@std@@QAEXXZ
_TEXT	SEGMENT
?clear@?$_Tree@V?$_Tmap_traits@KPAVIBuff@@U?$less@K@std@@V?$allocator@U?$pair@$$CBKPAVIBuff@@@std@@@3@$0A@@std@@@std@@QAEXXZ PROC ; std::_Tree<std::_Tmap_traits<unsigned long,IBuff *,std::less<unsigned long>,std::allocator<std::pair<unsigned long const ,IBuff *> >,0> >::clear, COMDAT
; _this$ = ecx

; 1370 :     void clear() noexcept {

  00000	53		 push	 ebx
  00001	8b d9		 mov	 ebx, ecx
  00003	56		 push	 esi
  00004	57		 push	 edi

; 1371 :         const auto _Scary = _Get_scary();
; 1372 :         _Scary->_Orphan_ptr(nullptr);
; 1373 :         auto _Head = _Scary->_Myhead;

  00005	8b 3b		 mov	 edi, DWORD PTR [ebx]

; 1374 :         _Scary->_Erase_tree(_Getal(), _Head->_Parent);

  00007	8b 77 04	 mov	 esi, DWORD PTR [edi+4]

; 768  :         while (!_Rootnode->_Isnil) { // free subtrees, then node

  0000a	80 7e 0d 00	 cmp	 BYTE PTR [esi+13], 0
  0000e	75 20		 jne	 SHORT $LN38@clear
$LL5@clear:

; 769  :             _Erase_tree(_Al, _Rootnode->_Right);

  00010	ff 76 08	 push	 DWORD PTR [esi+8]
  00013	8b cb		 mov	 ecx, ebx
  00015	53		 push	 ebx
  00016	e8 00 00 00 00	 call	 ??$_Erase_tree@V?$allocator@U?$_Tree_node@U?$pair@$$CBKPAVIBuff@@@std@@PAX@std@@@std@@@?$_Tree_val@U?$_Tree_simple_types@U?$pair@$$CBKPAVIBuff@@@std@@@std@@@std@@QAEXAAV?$allocator@U?$_Tree_node@U?$pair@$$CBKPAVIBuff@@@std@@PAX@std@@@1@PAU?$_Tree_node@U?$pair@$$CBKPAVIBuff@@@std@@PAX@1@@Z ; std::_Tree_val<std::_Tree_simple_types<std::pair<unsigned long const ,IBuff *> > >::_Erase_tree<std::allocator<std::_Tree_node<std::pair<unsigned long const ,IBuff *>,void *> > >
; File C:\Program Files\Microsoft Visual Studio\2022\Professional\VC\Tools\MSVC\14.44.35207\include\utility

; 773  :     _Ty _Old_val = static_cast<_Ty&&>(_Val);

  0001b	8b c6		 mov	 eax, esi

; 774  :     _Val         = static_cast<_Other&&>(_New_val);

  0001d	8b 36		 mov	 esi, DWORD PTR [esi]
; File C:\Program Files\Microsoft Visual Studio\2022\Professional\VC\Tools\MSVC\14.44.35207\include\xmemory

; 289  :         ::operator delete(_Ptr, _Bytes);

  0001f	6a 18		 push	 24			; 00000018H
  00021	50		 push	 eax
  00022	e8 00 00 00 00	 call	 ??3@YAXPAXI@Z		; operator delete
  00027	83 c4 08	 add	 esp, 8
; File C:\Program Files\Microsoft Visual Studio\2022\Professional\VC\Tools\MSVC\14.44.35207\include\xtree

; 768  :         while (!_Rootnode->_Isnil) { // free subtrees, then node

  0002a	80 7e 0d 00	 cmp	 BYTE PTR [esi+13], 0
  0002e	74 e0		 je	 SHORT $LL5@clear
$LN38@clear:

; 1375 :         _Head->_Parent  = _Head;

  00030	89 7f 04	 mov	 DWORD PTR [edi+4], edi

; 1376 :         _Head->_Left    = _Head;

  00033	89 3f		 mov	 DWORD PTR [edi], edi

; 1377 :         _Head->_Right   = _Head;

  00035	89 7f 08	 mov	 DWORD PTR [edi+8], edi

; 1378 :         _Scary->_Mysize = 0;

  00038	5f		 pop	 edi
  00039	5e		 pop	 esi
  0003a	c7 43 04 00 00
	00 00		 mov	 DWORD PTR [ebx+4], 0
  00041	5b		 pop	 ebx

; 1379 :     }

  00042	c3		 ret	 0
?clear@?$_Tree@V?$_Tmap_traits@KPAVIBuff@@U?$less@K@std@@V?$allocator@U?$pair@$$CBKPAVIBuff@@@std@@@3@$0A@@std@@@std@@QAEXXZ ENDP ; std::_Tree<std::_Tmap_traits<unsigned long,IBuff *,std::less<unsigned long>,std::allocator<std::pair<unsigned long const ,IBuff *> >,0> >::clear
_TEXT	ENDS
; Function compile flags: /Ogtp
; File C:\Program Files\Microsoft Visual Studio\2022\Professional\VC\Tools\MSVC\14.44.35207\include\xtree
; File C:\Program Files\Microsoft Visual Studio\2022\Professional\VC\Tools\MSVC\14.44.35207\include\utility
; File C:\Program Files\Microsoft Visual Studio\2022\Professional\VC\Tools\MSVC\14.44.35207\include\xmemory
; File C:\Program Files\Microsoft Visual Studio\2022\Professional\VC\Tools\MSVC\14.44.35207\include\xtree
; File C:\Program Files\Microsoft Visual Studio\2022\Professional\VC\Tools\MSVC\14.44.35207\include\xmemory
; File C:\Program Files\Microsoft Visual Studio\2022\Professional\VC\Tools\MSVC\14.44.35207\include\xtree
;	COMDAT ??1?$_Tree@V?$_Tmap_traits@KPAVIBuff@@U?$less@K@std@@V?$allocator@U?$pair@$$CBKPAVIBuff@@@std@@@3@$0A@@std@@@std@@QAE@XZ
_TEXT	SEGMENT
??1?$_Tree@V?$_Tmap_traits@KPAVIBuff@@U?$less@K@std@@V?$allocator@U?$pair@$$CBKPAVIBuff@@@std@@@3@$0A@@std@@@std@@QAE@XZ PROC ; std::_Tree<std::_Tmap_traits<unsigned long,IBuff *,std::less<unsigned long>,std::allocator<std::pair<unsigned long const ,IBuff *> >,0> >::~_Tree<std::_Tmap_traits<unsigned long,IBuff *,std::less<unsigned long>,std::allocator<std::pair<unsigned long const ,IBuff *> >,0> >, COMDAT
; _this$ = ecx

; 1095 :     ~_Tree() noexcept {

  00000	56		 push	 esi
  00001	57		 push	 edi
  00002	8b f9		 mov	 edi, ecx

; 777  :         _Erase_tree(_Al, _Myhead->_Parent);

  00004	8b 37		 mov	 esi, DWORD PTR [edi]
  00006	8b 76 04	 mov	 esi, DWORD PTR [esi+4]

; 768  :         while (!_Rootnode->_Isnil) { // free subtrees, then node

  00009	80 7e 0d 00	 cmp	 BYTE PTR [esi+13], 0
  0000d	75 21		 jne	 SHORT $LN61@Tree
  0000f	90		 npad	 1
$LL8@Tree:

; 769  :             _Erase_tree(_Al, _Rootnode->_Right);

  00010	ff 76 08	 push	 DWORD PTR [esi+8]
  00013	8b cf		 mov	 ecx, edi
  00015	57		 push	 edi
  00016	e8 00 00 00 00	 call	 ??$_Erase_tree@V?$allocator@U?$_Tree_node@U?$pair@$$CBKPAVIBuff@@@std@@PAX@std@@@std@@@?$_Tree_val@U?$_Tree_simple_types@U?$pair@$$CBKPAVIBuff@@@std@@@std@@@std@@QAEXAAV?$allocator@U?$_Tree_node@U?$pair@$$CBKPAVIBuff@@@std@@PAX@std@@@1@PAU?$_Tree_node@U?$pair@$$CBKPAVIBuff@@@std@@PAX@1@@Z ; std::_Tree_val<std::_Tree_simple_types<std::pair<unsigned long const ,IBuff *> > >::_Erase_tree<std::allocator<std::_Tree_node<std::pair<unsigned long const ,IBuff *>,void *> > >
; File C:\Program Files\Microsoft Visual Studio\2022\Professional\VC\Tools\MSVC\14.44.35207\include\utility

; 773  :     _Ty _Old_val = static_cast<_Ty&&>(_Val);

  0001b	8b c6		 mov	 eax, esi

; 774  :     _Val         = static_cast<_Other&&>(_New_val);

  0001d	8b 36		 mov	 esi, DWORD PTR [esi]
; File C:\Program Files\Microsoft Visual Studio\2022\Professional\VC\Tools\MSVC\14.44.35207\include\xmemory

; 289  :         ::operator delete(_Ptr, _Bytes);

  0001f	6a 18		 push	 24			; 00000018H
  00021	50		 push	 eax
  00022	e8 00 00 00 00	 call	 ??3@YAXPAXI@Z		; operator delete
  00027	83 c4 08	 add	 esp, 8
; File C:\Program Files\Microsoft Visual Studio\2022\Professional\VC\Tools\MSVC\14.44.35207\include\xtree

; 768  :         while (!_Rootnode->_Isnil) { // free subtrees, then node

  0002a	80 7e 0d 00	 cmp	 BYTE PTR [esi+13], 0
  0002e	74 e0		 je	 SHORT $LL8@Tree
$LN61@Tree:
; File C:\Program Files\Microsoft Visual Studio\2022\Professional\VC\Tools\MSVC\14.44.35207\include\xmemory

; 289  :         ::operator delete(_Ptr, _Bytes);

  00030	6a 18		 push	 24			; 00000018H
  00032	ff 37		 push	 DWORD PTR [edi]
  00034	e8 00 00 00 00	 call	 ??3@YAXPAXI@Z		; operator delete
  00039	83 c4 08	 add	 esp, 8
  0003c	5f		 pop	 edi
  0003d	5e		 pop	 esi
; File C:\Program Files\Microsoft Visual Studio\2022\Professional\VC\Tools\MSVC\14.44.35207\include\xtree

; 1102 :     }

  0003e	c3		 ret	 0
??1?$_Tree@V?$_Tmap_traits@KPAVIBuff@@U?$less@K@std@@V?$allocator@U?$pair@$$CBKPAVIBuff@@@std@@@3@$0A@@std@@@std@@QAE@XZ ENDP ; std::_Tree<std::_Tmap_traits<unsigned long,IBuff *,std::less<unsigned long>,std::allocator<std::pair<unsigned long const ,IBuff *> >,0> >::~_Tree<std::_Tmap_traits<unsigned long,IBuff *,std::less<unsigned long>,std::allocator<std::pair<unsigned long const ,IBuff *> >,0> >
_TEXT	ENDS
; Function compile flags: /Ogtp
; File C:\IAGOS\server\v18\Source\Source\_Common\buff.cpp
;	COMDAT ?RemoveBuffPet@CBuffMgr@@QAEXPAVIBuff@@@Z
_TEXT	SEGMENT
_pBuff$ = 8						; size = 4
?RemoveBuffPet@CBuffMgr@@QAEXPAVIBuff@@@Z PROC		; CBuffMgr::RemoveBuffPet, COMDAT
; _this$ = ecx

; 918  : {

  00000	55		 push	 ebp
  00001	8b ec		 mov	 ebp, esp
  00003	56		 push	 esi

; 919  : 	ASSERT( pBuff );
; 920  : 	RemoveBuff( pBuff, FALSE );

  00004	6a 00		 push	 0
  00006	ff 75 08	 push	 DWORD PTR _pBuff$[ebp]
  00009	8b f1		 mov	 esi, ecx
  0000b	e8 00 00 00 00	 call	 ?RemoveBuff@CBuffMgr@@QAEXPAVIBuff@@H@Z ; CBuffMgr::RemoveBuff

; 921  : 	CItemElem* pItem	= GetMover()->GetPetItem();

  00010	8b 4e 0c	 mov	 ecx, DWORD PTR [esi+12]
  00013	e8 00 00 00 00	 call	 ?GetPetItem@CMover@@QAEPAVCItemElem@@XZ ; CMover::GetPetItem

; 922  : 	if( pItem )

  00018	85 c0		 test	 eax, eax
  0001a	74 09		 je	 SHORT $LN2@RemoveBuff

; 923  : 		GetMover()->ResetDestParamRandomOptExtension( pItem );

  0001c	8b 4e 0c	 mov	 ecx, DWORD PTR [esi+12]
  0001f	50		 push	 eax
  00020	e8 00 00 00 00	 call	 ?ResetDestParamRandomOptExtension@CMover@@QAEXPAVCItemElem@@@Z ; CMover::ResetDestParamRandomOptExtension
$LN2@RemoveBuff:
  00025	5e		 pop	 esi

; 924  : }

  00026	5d		 pop	 ebp
  00027	c2 04 00	 ret	 4
?RemoveBuffPet@CBuffMgr@@QAEXPAVIBuff@@@Z ENDP		; CBuffMgr::RemoveBuffPet
_TEXT	ENDS
; Function compile flags: /Ogtp
; File C:\IAGOS\server\v18\Source\Source\_Common\buff.cpp
; File C:\Program Files\Microsoft Visual Studio\2022\Professional\VC\Tools\MSVC\14.44.35207\include\xtree
; File C:\IAGOS\server\v18\Source\Source\_Common\buff.cpp
; File C:\Program Files\Microsoft Visual Studio\2022\Professional\VC\Tools\MSVC\14.44.35207\include\xtree
; File C:\IAGOS\server\v18\Source\Source\_Common\buff.cpp
;	COMDAT ?GetFirstBS@CBuffMgr@@AAEPAVIBuff@@XZ
_TEXT	SEGMENT
_i$1 = -4						; size = 4
?GetFirstBS@CBuffMgr@@AAEPAVIBuff@@XZ PROC		; CBuffMgr::GetFirstBS, COMDAT
; _this$ = ecx

; 827  : {

  00000	55		 push	 ebp
  00001	8b ec		 mov	 ebp, esp
  00003	51		 push	 ecx
  00004	56		 push	 esi
  00005	57		 push	 edi
  00006	8b f9		 mov	 edi, ecx
; File C:\Program Files\Microsoft Visual Studio\2022\Professional\VC\Tools\MSVC\14.44.35207\include\xtree

; 1142 :         return iterator(_Scary->_Myhead->_Left, _Scary);

  00008	8b 47 04	 mov	 eax, DWORD PTR [edi+4]

; 37   :     _Tree_unchecked_const_iterator(_Nodeptr _Pnode, const _Mytree* _Plist) noexcept : _Ptr(_Pnode) {

  0000b	8b 30		 mov	 esi, DWORD PTR [eax]
  0000d	89 75 fc	 mov	 DWORD PTR _i$1[ebp], esi

; 237  :         return !(*this == _Right);

  00010	3b f0		 cmp	 esi, eax
; File C:\IAGOS\server\v18\Source\Source\_Common\buff.cpp

; 828  : 	for( MAPBUFF::iterator i = m_mapBuffs.begin(); i != m_mapBuffs.end(); ++i )

  00012	74 2c		 je	 SHORT $LN74@GetFirstBS
$LL4@GetFirstBS:

; 829  : 	{
; 830  : 		if( i->second->GetType() == BUFF_SKILL )

  00014	8b 4e 14	 mov	 ecx, DWORD PTR [esi+20]
  00017	66 83 79 04 01	 cmp	 WORD PTR [ecx+4], 1
  0001c	75 12		 jne	 SHORT $LN2@GetFirstBS

; 831  : 		{
; 832  : 			ItemProp* pProp = i->second->GetProp();

  0001e	8b 01		 mov	 eax, DWORD PTR [ecx]
  00020	ff 50 24	 call	 DWORD PTR [eax+36]

; 833  : 			if( pProp && pProp->nEvildoing >= 0 )

  00023	85 c0		 test	 eax, eax
  00025	74 09		 je	 SHORT $LN2@GetFirstBS
  00027	83 b8 04 02 00
	00 00		 cmp	 DWORD PTR [eax+516], 0
  0002e	7d 18		 jge	 SHORT $LN72@GetFirstBS
$LN2@GetFirstBS:
; File C:\Program Files\Microsoft Visual Studio\2022\Professional\VC\Tools\MSVC\14.44.35207\include\xtree

; 198  :         _Mybase::operator++();

  00030	8d 4d fc	 lea	 ecx, DWORD PTR _i$1[ebp]
  00033	e8 00 00 00 00	 call	 ??E?$_Tree_unchecked_const_iterator@V?$_Tree_val@U?$_Tree_simple_types@U?$pair@$$CBKPAVIBuff@@@std@@@std@@@std@@U_Iterator_base0@2@@std@@QAEAAV01@XZ ; std::_Tree_unchecked_const_iterator<std::_Tree_val<std::_Tree_simple_types<std::pair<unsigned long const ,IBuff *> > >,std::_Iterator_base0>::operator++

; 237  :         return !(*this == _Right);

  00038	8b 75 fc	 mov	 esi, DWORD PTR _i$1[ebp]
  0003b	3b 77 04	 cmp	 esi, DWORD PTR [edi+4]
; File C:\IAGOS\server\v18\Source\Source\_Common\buff.cpp

; 828  : 	for( MAPBUFF::iterator i = m_mapBuffs.begin(); i != m_mapBuffs.end(); ++i )

  0003e	75 d4		 jne	 SHORT $LL4@GetFirstBS
$LN74@GetFirstBS:
  00040	5f		 pop	 edi

; 835  : 		}
; 836  : 	}
; 837  : 
; 838  : 	return NULL;

  00041	33 c0		 xor	 eax, eax

; 839  : }

  00043	5e		 pop	 esi
  00044	8b e5		 mov	 esp, ebp
  00046	5d		 pop	 ebp
  00047	c3		 ret	 0
$LN72@GetFirstBS:

; 834  : 				return i->second;

  00048	8b 46 14	 mov	 eax, DWORD PTR [esi+20]
  0004b	5f		 pop	 edi

; 839  : }

  0004c	5e		 pop	 esi
  0004d	8b e5		 mov	 esp, ebp
  0004f	5d		 pop	 ebp
  00050	c3		 ret	 0
?GetFirstBS@CBuffMgr@@AAEPAVIBuff@@XZ ENDP		; CBuffMgr::GetFirstBS
_TEXT	ENDS
; Function compile flags: /Ogtp
; File C:\IAGOS\server\v18\Source\Source\_Common\buff.cpp
; File C:\Program Files\Microsoft Visual Studio\2022\Professional\VC\Tools\MSVC\14.44.35207\include\xtree
; File C:\IAGOS\server\v18\Source\Source\_Common\buff.cpp
; File C:\Program Files\Microsoft Visual Studio\2022\Professional\VC\Tools\MSVC\14.44.35207\include\xtree
; File C:\IAGOS\server\v18\Source\Source\_Common\buff.cpp
; File C:\Program Files\Microsoft Visual Studio\2022\Professional\VC\Tools\MSVC\14.44.35207\include\xtree
; File C:\IAGOS\server\v18\Source\Source\_Common\buff.cpp
;	COMDAT ?IsBSFull@CBuffMgr@@AAEHXZ
_TEXT	SEGMENT
_i$1 = -4						; size = 4
?IsBSFull@CBuffMgr@@AAEHXZ PROC				; CBuffMgr::IsBSFull, COMDAT
; _this$ = ecx

; 815  : {

  00000	55		 push	 ebp
  00001	8b ec		 mov	 ebp, esp
  00003	51		 push	 ecx
  00004	56		 push	 esi
  00005	57		 push	 edi
; File C:\Program Files\Microsoft Visual Studio\2022\Professional\VC\Tools\MSVC\14.44.35207\include\xtree

; 1142 :         return iterator(_Scary->_Myhead->_Left, _Scary);

  00006	8b 79 04	 mov	 edi, DWORD PTR [ecx+4]
; File C:\IAGOS\server\v18\Source\Source\_Common\buff.cpp

; 816  : 	int nNum	= 0;

  00009	33 f6		 xor	 esi, esi
; File C:\Program Files\Microsoft Visual Studio\2022\Professional\VC\Tools\MSVC\14.44.35207\include\xtree

; 37   :     _Tree_unchecked_const_iterator(_Nodeptr _Pnode, const _Mytree* _Plist) noexcept : _Ptr(_Pnode) {

  0000b	8b 07		 mov	 eax, DWORD PTR [edi]
  0000d	89 45 fc	 mov	 DWORD PTR _i$1[ebp], eax

; 237  :         return !(*this == _Right);

  00010	3b c7		 cmp	 eax, edi
; File C:\IAGOS\server\v18\Source\Source\_Common\buff.cpp

; 817  : 	for( MAPBUFF::iterator i = m_mapBuffs.begin(); i != m_mapBuffs.end(); ++i )

  00012	74 1f		 je	 SHORT $LN3@IsBSFull
$LL4@IsBSFull:
; File C:\Program Files\Microsoft Visual Studio\2022\Professional\VC\Tools\MSVC\14.44.35207\include\xtree

; 198  :         _Mybase::operator++();

  00014	8b 40 14	 mov	 eax, DWORD PTR [eax+20]
  00017	8d 4e 01	 lea	 ecx, DWORD PTR [esi+1]
  0001a	66 83 78 04 01	 cmp	 WORD PTR [eax+4], 1
  0001f	0f 45 ce	 cmovne	 ecx, esi
  00022	8b f1		 mov	 esi, ecx
  00024	8d 4d fc	 lea	 ecx, DWORD PTR _i$1[ebp]
  00027	e8 00 00 00 00	 call	 ??E?$_Tree_unchecked_const_iterator@V?$_Tree_val@U?$_Tree_simple_types@U?$pair@$$CBKPAVIBuff@@@std@@@std@@@std@@U_Iterator_base0@2@@std@@QAEAAV01@XZ ; std::_Tree_unchecked_const_iterator<std::_Tree_val<std::_Tree_simple_types<std::pair<unsigned long const ,IBuff *> > >,std::_Iterator_base0>::operator++

; 237  :         return !(*this == _Right);

  0002c	8b 45 fc	 mov	 eax, DWORD PTR _i$1[ebp]
  0002f	3b c7		 cmp	 eax, edi
; File C:\IAGOS\server\v18\Source\Source\_Common\buff.cpp

; 817  : 	for( MAPBUFF::iterator i = m_mapBuffs.begin(); i != m_mapBuffs.end(); ++i )

  00031	75 e1		 jne	 SHORT $LL4@IsBSFull
$LN3@IsBSFull:

; 818  : 	{
; 819  : 		IBuff* pBuff	= i->second;
; 820  : 		if( pBuff->GetType() == BUFF_SKILL )
; 821  : 			nNum++;
; 822  : 	}
; 823  : 	return nNum >= MAX_SKILLBUFF_COUNT;

  00033	33 c0		 xor	 eax, eax
  00035	83 fe 40	 cmp	 esi, 64			; 00000040H
  00038	5f		 pop	 edi
  00039	0f 9d c0	 setge	 al
  0003c	5e		 pop	 esi

; 824  : }

  0003d	8b e5		 mov	 esp, ebp
  0003f	5d		 pop	 ebp
  00040	c3		 ret	 0
?IsBSFull@CBuffMgr@@AAEHXZ ENDP				; CBuffMgr::IsBSFull
_TEXT	ENDS
; Function compile flags: /Ogtp
; File C:\IAGOS\server\v18\Source\Source\_Common\buff.cpp
;	COMDAT ?PrepareBS@CBuffMgr@@AAEXPAVIBuff@@@Z
_TEXT	SEGMENT
_pBuff$ = 8						; size = 4
?PrepareBS@CBuffMgr@@AAEXPAVIBuff@@@Z PROC		; CBuffMgr::PrepareBS, COMDAT
; _this$ = ecx

; 803  : {

  00000	55		 push	 ebp
  00001	8b ec		 mov	 ebp, esp

; 804  : 	if( pBuff->GetType() == BUFF_SKILL && IsBSFull() )

  00003	8b 45 08	 mov	 eax, DWORD PTR _pBuff$[ebp]
  00006	56		 push	 esi
  00007	8b f1		 mov	 esi, ecx
  00009	66 83 78 04 01	 cmp	 WORD PTR [eax+4], 1
  0000e	75 1e		 jne	 SHORT $LN3@PrepareBS
  00010	e8 00 00 00 00	 call	 ?IsBSFull@CBuffMgr@@AAEHXZ ; CBuffMgr::IsBSFull
  00015	85 c0		 test	 eax, eax
  00017	74 15		 je	 SHORT $LN3@PrepareBS

; 805  : 	{
; 806  : 		IBuff* pFirst	= GetFirstBS();

  00019	8b ce		 mov	 ecx, esi
  0001b	e8 00 00 00 00	 call	 ?GetFirstBS@CBuffMgr@@AAEPAVIBuff@@XZ ; CBuffMgr::GetFirstBS

; 807  : 		//ItemProp* pProp	= pBuff->GetProp();
; 808  : 		//if( pProp && pProp->nEvildoing >= 0 )
; 809  : 		if( pFirst )

  00020	85 c0		 test	 eax, eax
  00022	74 0a		 je	 SHORT $LN3@PrepareBS

; 810  : 			RemoveBuff( pFirst, FALSE );

  00024	6a 00		 push	 0
  00026	50		 push	 eax
  00027	8b ce		 mov	 ecx, esi
  00029	e8 00 00 00 00	 call	 ?RemoveBuff@CBuffMgr@@QAEXPAVIBuff@@H@Z ; CBuffMgr::RemoveBuff
$LN3@PrepareBS:
  0002e	5e		 pop	 esi

; 811  : 	}
; 812  : }

  0002f	5d		 pop	 ebp
  00030	c2 04 00	 ret	 4
?PrepareBS@CBuffMgr@@AAEXPAVIBuff@@@Z ENDP		; CBuffMgr::PrepareBS
_TEXT	ENDS
; Function compile flags: /Ogtp
; File C:\IAGOS\server\v18\Source\Source\_Common\buff.cpp
;	COMDAT ?Overwrite@CBuffMgr@@AAEHPAVIBuff@@@Z
_TEXT	SEGMENT
_pBuff$ = 8						; size = 4
?Overwrite@CBuffMgr@@AAEHPAVIBuff@@@Z PROC		; CBuffMgr::Overwrite, COMDAT
; _this$ = ecx

; 693  : {

  00000	55		 push	 ebp
  00001	8b ec		 mov	 ebp, esp
  00003	56		 push	 esi

; 694  : 	IBuff* pOld	= GetBuff( pBuff->GetType(), pBuff->GetId() );

  00004	8b 75 08	 mov	 esi, DWORD PTR _pBuff$[ebp]
  00007	57		 push	 edi
  00008	8b f9		 mov	 edi, ecx
  0000a	0f b7 46 06	 movzx	 eax, WORD PTR [esi+6]
  0000e	50		 push	 eax
  0000f	0f b7 46 04	 movzx	 eax, WORD PTR [esi+4]
  00013	50		 push	 eax
  00014	e8 00 00 00 00	 call	 ?GetBuff@CBuffMgr@@QAEPAVIBuff@@GG@Z ; CBuffMgr::GetBuff

; 695  : 	if( pOld )

  00019	85 c0		 test	 eax, eax
  0001b	74 29		 je	 SHORT $LN6@Overwrite

; 696  : 	{
; 697  : 		if( pOld->GetLevel() == pBuff->GetLevel() )

  0001d	8b 48 08	 mov	 ecx, DWORD PTR [eax+8]
  00020	3b 4e 08	 cmp	 ecx, DWORD PTR [esi+8]
  00023	75 15		 jne	 SHORT $LN3@Overwrite

; 698  : 		{
; 699  : 			pOld->AddTotal( pBuff->GetTotal() );

  00025	8b 10		 mov	 edx, DWORD PTR [eax]
  00027	8b c8		 mov	 ecx, eax
  00029	ff 76 0c	 push	 DWORD PTR [esi+12]
  0002c	ff 52 20	 call	 DWORD PTR [edx+32]
$LN5@Overwrite:

; 708  : }

  0002f	5f		 pop	 edi
  00030	b8 01 00 00 00	 mov	 eax, 1
  00035	5e		 pop	 esi
  00036	5d		 pop	 ebp
  00037	c2 04 00	 ret	 4
$LN3@Overwrite:

; 700  : 			return TRUE;
; 701  : 		}
; 702  : 		else if( pOld->GetLevel() < pBuff->GetLevel() )

  0003a	73 f3		 jae	 SHORT $LN5@Overwrite

; 703  : 			RemoveBuff( pOld, FALSE );

  0003c	6a 00		 push	 0
  0003e	50		 push	 eax
  0003f	8b cf		 mov	 ecx, edi
  00041	e8 00 00 00 00	 call	 ?RemoveBuff@CBuffMgr@@QAEXPAVIBuff@@H@Z ; CBuffMgr::RemoveBuff
$LN6@Overwrite:

; 704  : 		else	// if( pOld->GetLevel() > pBuff->GetLevel() )	// ignore
; 705  : 			return TRUE;
; 706  : 	}
; 707  : 	return FALSE;

  00046	5f		 pop	 edi
  00047	33 c0		 xor	 eax, eax

; 708  : }

  00049	5e		 pop	 esi
  0004a	5d		 pop	 ebp
  0004b	c2 04 00	 ret	 4
?Overwrite@CBuffMgr@@AAEHPAVIBuff@@@Z ENDP		; CBuffMgr::Overwrite
_TEXT	ENDS
; Function compile flags: /Ogtp
; File C:\IAGOS\server\v18\Source\Source\_Common\buff.cpp
;	COMDAT ?AddBuff@CBuffMgr@@IAEHPAVIBuff@@@Z
_TEXT	SEGMENT
_pBuff$ = 8						; size = 4
?AddBuff@CBuffMgr@@IAEHPAVIBuff@@@Z PROC		; CBuffMgr::AddBuff, COMDAT
; _this$ = ecx

; 754  : {

  00000	55		 push	 ebp
  00001	8b ec		 mov	 ebp, esp
  00003	56		 push	 esi

; 755  : 	if( !pBuff->IsAddable( GetMover() ) )

  00004	8b 75 08	 mov	 esi, DWORD PTR _pBuff$[ebp]
  00007	57		 push	 edi
  00008	8b f9		 mov	 edi, ecx
  0000a	8b ce		 mov	 ecx, esi
  0000c	8b 06		 mov	 eax, DWORD PTR [esi]
  0000e	ff 77 0c	 push	 DWORD PTR [edi+12]
  00011	ff 50 1c	 call	 DWORD PTR [eax+28]
  00014	85 c0		 test	 eax, eax
  00016	74 2b		 je	 SHORT $LN9@AddBuff

; 756  : 		return FALSE;
; 757  : 	if( Overwrite( pBuff ) )

  00018	56		 push	 esi
  00019	8b cf		 mov	 ecx, edi
  0001b	e8 00 00 00 00	 call	 ?Overwrite@CBuffMgr@@AAEHPAVIBuff@@@Z ; CBuffMgr::Overwrite
  00020	85 c0		 test	 eax, eax
  00022	74 27		 je	 SHORT $LN3@AddBuff

; 758  : 	{
; 759  : #ifdef __WORLDSERVER
; 760  : 		g_UserMng.AddSetSkillState( GetMover(), GetMover(), pBuff->GetType(), pBuff->GetId(), pBuff->GetLevel(), pBuff->GetTotal() );

  00024	ff 76 0c	 push	 DWORD PTR [esi+12]
  00027	0f b7 46 06	 movzx	 eax, WORD PTR [esi+6]
  0002b	ff 76 08	 push	 DWORD PTR [esi+8]
  0002e	8b 4f 0c	 mov	 ecx, DWORD PTR [edi+12]
  00031	50		 push	 eax
  00032	0f b7 46 04	 movzx	 eax, WORD PTR [esi+4]
  00036	50		 push	 eax
  00037	51		 push	 ecx
  00038	51		 push	 ecx
  00039	b9 00 00 00 00	 mov	 ecx, OFFSET ?g_UserMng@@3VCUserMng@@A ; g_UserMng
  0003e	e8 00 00 00 00	 call	 ?AddSetSkillState@CUserMng@@QAEXPAVCMover@@0GGKK@Z ; CUserMng::AddSetSkillState
$LN9@AddBuff:

; 771  : }

  00043	5f		 pop	 edi
  00044	33 c0		 xor	 eax, eax
  00046	5e		 pop	 esi
  00047	5d		 pop	 ebp
  00048	c2 04 00	 ret	 4
$LN3@AddBuff:
  0004b	53		 push	 ebx

; 761  : #endif	// __WORLDSERVER
; 762  : 		return FALSE;
; 763  : 	}
; 764  : 	PrepareBS( pBuff );

  0004c	56		 push	 esi
  0004d	8b cf		 mov	 ecx, edi
  0004f	e8 00 00 00 00	 call	 ?PrepareBS@CBuffMgr@@AAEXPAVIBuff@@@Z ; CBuffMgr::PrepareBS

; 765  : 	bool bResult	= Add( pBuff );	

  00054	56		 push	 esi
  00055	8b cf		 mov	 ecx, edi
  00057	e8 00 00 00 00	 call	 ?Add@CBuffMgr@@AAE_NPAVIBuff@@@Z ; CBuffMgr::Add
  0005c	8a d8		 mov	 bl, al

; 766  : #ifdef __WORLDSERVER
; 767  : 	if( bResult == true )

  0005e	80 fb 01	 cmp	 bl, 1
  00061	75 1f		 jne	 SHORT $LN4@AddBuff

; 768  : 		g_UserMng.AddSetSkillState( GetMover(), GetMover(), pBuff->GetType(), pBuff->GetId(), pBuff->GetLevel(), pBuff->GetTotal() );

  00063	ff 76 0c	 push	 DWORD PTR [esi+12]
  00066	0f b7 4e 06	 movzx	 ecx, WORD PTR [esi+6]
  0006a	ff 76 08	 push	 DWORD PTR [esi+8]
  0006d	0f b7 46 04	 movzx	 eax, WORD PTR [esi+4]
  00071	8b 57 0c	 mov	 edx, DWORD PTR [edi+12]
  00074	51		 push	 ecx
  00075	50		 push	 eax
  00076	52		 push	 edx
  00077	52		 push	 edx
  00078	b9 00 00 00 00	 mov	 ecx, OFFSET ?g_UserMng@@3VCUserMng@@A ; g_UserMng
  0007d	e8 00 00 00 00	 call	 ?AddSetSkillState@CUserMng@@QAEXPAVCMover@@0GGKK@Z ; CUserMng::AddSetSkillState
$LN4@AddBuff:

; 769  : #endif	// __WORLDSERVER
; 770  : 	return static_cast<BOOL>( bResult );

  00082	0f b6 c3	 movzx	 eax, bl
  00085	5b		 pop	 ebx
  00086	5f		 pop	 edi

; 771  : }

  00087	5e		 pop	 esi
  00088	5d		 pop	 ebp
  00089	c2 04 00	 ret	 4
?AddBuff@CBuffMgr@@IAEHPAVIBuff@@@Z ENDP		; CBuffMgr::AddBuff
_TEXT	ENDS
; Function compile flags: /Ogtp
; File C:\IAGOS\server\v18\Source\Source\_Common\buff.cpp
; File C:\IAGOS\server\v18\Source\Source\_Common\buff.h
; File C:\IAGOS\server\v18\Source\Source\_Common\buff.cpp
;	COMDAT ?AddBuff@CBuffMgr@@QAEHGGKKK@Z
_TEXT	SEGMENT
_wType$ = 8						; size = 2
_wId$ = 12						; size = 2
_dwLevel$ = 16						; size = 4
_tmTotal$ = 20						; size = 4
_oiAttacker$ = 24					; size = 4
?AddBuff@CBuffMgr@@QAEHGGKKK@Z PROC			; CBuffMgr::AddBuff, COMDAT
; _this$ = ecx

; 740  : {

  00000	55		 push	 ebp
  00001	8b ec		 mov	 ebp, esp
  00003	56		 push	 esi
  00004	8b f1		 mov	 esi, ecx
  00006	57		 push	 edi

; 741  : 	IBuff* pBuff	= CreateBuff( wType );

  00007	ff 75 08	 push	 DWORD PTR _wType$[ebp]
  0000a	8b 06		 mov	 eax, DWORD PTR [esi]
  0000c	ff 50 04	 call	 DWORD PTR [eax+4]

; 742  : 	pBuff->SetId( wId );
; 743  : 	pBuff->SetLevel( dwLevel );

  0000f	8b 4d 10	 mov	 ecx, DWORD PTR _dwLevel$[ebp]
  00012	8b f8		 mov	 edi, eax
  00014	66 8b 55 0c	 mov	 dx, WORD PTR _wId$[ebp]

; 744  : 	pBuff->SetTotal( tmTotal );

  00018	ff 75 14	 push	 DWORD PTR _tmTotal$[ebp]
  0001b	89 4f 08	 mov	 DWORD PTR [edi+8], ecx
  0001e	8b cf		 mov	 ecx, edi
  00020	66 89 57 06	 mov	 WORD PTR [edi+6], dx
  00024	e8 00 00 00 00	 call	 ?SetTotal@IBuff@@QAEXK@Z ; IBuff::SetTotal

; 745  : 	pBuff->SetInst( ::timeGetTime() );		// +

  00029	ff 15 00 00 00
	00		 call	 DWORD PTR __imp__timeGetTime@0
; File C:\IAGOS\server\v18\Source\Source\_Common\buff.h

; 40   : 	void	SetInst( DWORD tmInst )	{	m_tmInst	= tmInst;	}

  0002f	89 47 10	 mov	 DWORD PTR [edi+16], eax
; File C:\IAGOS\server\v18\Source\Source\_Common\buff.cpp

; 747  : 	BOOL bNew	= AddBuff( pBuff );

  00032	8b ce		 mov	 ecx, esi
  00034	8b 45 18	 mov	 eax, DWORD PTR _oiAttacker$[ebp]
  00037	57		 push	 edi
  00038	89 47 14	 mov	 DWORD PTR [edi+20], eax
  0003b	e8 00 00 00 00	 call	 ?AddBuff@CBuffMgr@@IAEHPAVIBuff@@@Z ; CBuffMgr::AddBuff
  00040	8b f0		 mov	 esi, eax

; 748  : 	if( !bNew )

  00042	85 f6		 test	 esi, esi
  00044	75 0a		 jne	 SHORT $LN5@AddBuff

; 749  : 		SAFE_DELETE( pBuff );

  00046	8b 17		 mov	 edx, DWORD PTR [edi]
  00048	8b cf		 mov	 ecx, edi
  0004a	6a 01		 push	 1
  0004c	ff 12		 call	 DWORD PTR [edx]

; 750  : 	return bNew;

  0004e	8b c6		 mov	 eax, esi
$LN5@AddBuff:

; 751  : }

  00050	5f		 pop	 edi
  00051	5e		 pop	 esi
  00052	5d		 pop	 ebp
  00053	c2 14 00	 ret	 20			; 00000014H
?AddBuff@CBuffMgr@@QAEHGGKKK@Z ENDP			; CBuffMgr::AddBuff
_TEXT	ENDS
; Function compile flags: /Ogtp
; File C:\IAGOS\server\v18\Source\Source\_Common\buff.cpp
; File C:\Program Files\Microsoft Visual Studio\2022\Professional\VC\Tools\MSVC\14.44.35207\include\xtree
; File C:\IAGOS\server\v18\Source\Source\_Common\buff.cpp
; File C:\Program Files\Microsoft Visual Studio\2022\Professional\VC\Tools\MSVC\14.44.35207\include\xtree
; File C:\IAGOS\server\v18\Source\Source\_Common\buff.cpp
;	COMDAT ?GetDisguise@CBuffMgr@@QAEKXZ
_TEXT	SEGMENT
_i$1 = -4						; size = 4
?GetDisguise@CBuffMgr@@QAEKXZ PROC			; CBuffMgr::GetDisguise, COMDAT
; _this$ = ecx

; 894  : {

  00000	55		 push	 ebp
  00001	8b ec		 mov	 ebp, esp
  00003	51		 push	 ecx
  00004	56		 push	 esi
  00005	8b f1		 mov	 esi, ecx
; File C:\Program Files\Microsoft Visual Studio\2022\Professional\VC\Tools\MSVC\14.44.35207\include\xtree

; 1142 :         return iterator(_Scary->_Myhead->_Left, _Scary);

  00007	8b 56 04	 mov	 edx, DWORD PTR [esi+4]

; 37   :     _Tree_unchecked_const_iterator(_Nodeptr _Pnode, const _Mytree* _Plist) noexcept : _Ptr(_Pnode) {

  0000a	8b 02		 mov	 eax, DWORD PTR [edx]
  0000c	89 45 fc	 mov	 DWORD PTR _i$1[ebp], eax

; 237  :         return !(*this == _Right);

  0000f	3b c2		 cmp	 eax, edx
; File C:\IAGOS\server\v18\Source\Source\_Common\buff.cpp

; 895  : 	for( MAPBUFF::iterator i = m_mapBuffs.begin(); i != m_mapBuffs.end(); ++i )

  00011	74 1d		 je	 SHORT $LN3@GetDisguis
$LL4@GetDisguis:

; 896  : 	{
; 897  : 		DWORD dwIndex	= i->second->GetDisguise();

  00013	8b 48 14	 mov	 ecx, DWORD PTR [eax+20]
  00016	8b 01		 mov	 eax, DWORD PTR [ecx]
  00018	ff 50 30	 call	 DWORD PTR [eax+48]

; 898  : 		if( dwIndex != NULL_ID )

  0001b	83 f8 ff	 cmp	 eax, -1
  0001e	75 13		 jne	 SHORT $LN1@GetDisguis
; File C:\Program Files\Microsoft Visual Studio\2022\Professional\VC\Tools\MSVC\14.44.35207\include\xtree

; 198  :         _Mybase::operator++();

  00020	8d 4d fc	 lea	 ecx, DWORD PTR _i$1[ebp]
  00023	e8 00 00 00 00	 call	 ??E?$_Tree_unchecked_const_iterator@V?$_Tree_val@U?$_Tree_simple_types@U?$pair@$$CBKPAVIBuff@@@std@@@std@@@std@@U_Iterator_base0@2@@std@@QAEAAV01@XZ ; std::_Tree_unchecked_const_iterator<std::_Tree_val<std::_Tree_simple_types<std::pair<unsigned long const ,IBuff *> > >,std::_Iterator_base0>::operator++

; 237  :         return !(*this == _Right);

  00028	8b 45 fc	 mov	 eax, DWORD PTR _i$1[ebp]
  0002b	3b 46 04	 cmp	 eax, DWORD PTR [esi+4]
; File C:\IAGOS\server\v18\Source\Source\_Common\buff.cpp

; 895  : 	for( MAPBUFF::iterator i = m_mapBuffs.begin(); i != m_mapBuffs.end(); ++i )

  0002e	75 e3		 jne	 SHORT $LL4@GetDisguis
$LN3@GetDisguis:

; 899  : 			return dwIndex;
; 900  : 	}
; 901  : 	return NULL_ID;

  00030	83 c8 ff	 or	 eax, -1
$LN1@GetDisguis:
  00033	5e		 pop	 esi

; 902  : }

  00034	8b e5		 mov	 esp, ebp
  00036	5d		 pop	 ebp
  00037	c3		 ret	 0
?GetDisguise@CBuffMgr@@QAEKXZ ENDP			; CBuffMgr::GetDisguise
_TEXT	ENDS
; Function compile flags: /Ogtp
; File C:\IAGOS\server\v18\Source\Source\_Common\buff.cpp
; File C:\Program Files\Microsoft Visual Studio\2022\Professional\VC\Tools\MSVC\14.44.35207\include\vector
; File C:\Program Files\Microsoft Visual Studio\2022\Professional\VC\Tools\MSVC\14.44.35207\include\xtree
; File C:\IAGOS\server\v18\Source\Source\_Common\buff.cpp
; File C:\Program Files\Microsoft Visual Studio\2022\Professional\VC\Tools\MSVC\14.44.35207\include\xtree
; File C:\IAGOS\server\v18\Source\Source\_Common\buff.cpp
; File C:\Program Files\Microsoft Visual Studio\2022\Professional\VC\Tools\MSVC\14.44.35207\include\vector
; File C:\IAGOS\server\v18\Source\Source\_Common\buff.cpp
; File C:\Program Files\Microsoft Visual Studio\2022\Professional\VC\Tools\MSVC\14.44.35207\include\vector
; File C:\IAGOS\server\v18\Source\Source\_Common\buff.cpp
; File C:\Program Files\Microsoft Visual Studio\2022\Professional\VC\Tools\MSVC\14.44.35207\include\xtree
; File C:\IAGOS\server\v18\Source\Source\_Common\buff.cpp
; File C:\Program Files\Microsoft Visual Studio\2022\Professional\VC\Tools\MSVC\14.44.35207\include\xtree
; File C:\IAGOS\server\v18\Source\Source\_Common\buff.cpp
; File C:\Program Files\Microsoft Visual Studio\2022\Professional\VC\Tools\MSVC\14.44.35207\include\vector
; File C:\IAGOS\server\v18\Source\Source\_Common\buff.cpp
; File C:\Program Files\Microsoft Visual Studio\2022\Professional\VC\Tools\MSVC\14.44.35207\include\vector
; File C:\IAGOS\server\v18\Source\Source\_Common\buff.cpp
;	COMDAT ?RemoveBuffs@CBuffMgr@@QAEXKK@Z
_TEXT	SEGMENT
_vTemp$ = -32						; size = 12
tv567 = -20						; size = 4
_i$2 = -16						; size = 4
__$EHRec$ = -12						; size = 12
_dwFlags$ = 8						; size = 4
$T3 = 8							; size = 4
_dwParam$ = 12						; size = 4
?RemoveBuffs@CBuffMgr@@QAEXKK@Z PROC			; CBuffMgr::RemoveBuffs, COMDAT
; _this$ = ecx

; 860  : {

  00000	55		 push	 ebp
  00001	8b ec		 mov	 ebp, esp
  00003	6a ff		 push	 -1
  00005	68 00 00 00 00	 push	 __ehhandler$?RemoveBuffs@CBuffMgr@@QAEXKK@Z
  0000a	64 a1 00 00 00
	00		 mov	 eax, DWORD PTR fs:0
  00010	50		 push	 eax
  00011	83 ec 14	 sub	 esp, 20			; 00000014H
  00014	53		 push	 ebx
  00015	56		 push	 esi
  00016	57		 push	 edi
  00017	a1 00 00 00 00	 mov	 eax, DWORD PTR ___security_cookie
  0001c	33 c5		 xor	 eax, ebp
  0001e	50		 push	 eax
  0001f	8d 45 f4	 lea	 eax, DWORD PTR __$EHRec$[ebp]
  00022	64 a3 00 00 00
	00		 mov	 DWORD PTR fs:0, eax
  00028	8b f9		 mov	 edi, ecx
; File C:\Program Files\Microsoft Visual Studio\2022\Professional\VC\Tools\MSVC\14.44.35207\include\vector

; 400  :     _CONSTEXPR20 _Vector_val() noexcept : _Myfirst(), _Mylast(), _Myend() {}

  0002a	33 d2		 xor	 edx, edx
  0002c	89 55 e0	 mov	 DWORD PTR _vTemp$[ebp], edx
  0002f	89 55 e4	 mov	 DWORD PTR _vTemp$[ebp+4], edx
  00032	89 55 e8	 mov	 DWORD PTR _vTemp$[ebp+8], edx
; File C:\Program Files\Microsoft Visual Studio\2022\Professional\VC\Tools\MSVC\14.44.35207\include\xtree

; 1142 :         return iterator(_Scary->_Myhead->_Left, _Scary);

  00035	8b 4f 04	 mov	 ecx, DWORD PTR [edi+4]
; File C:\IAGOS\server\v18\Source\Source\_Common\buff.cpp

; 861  : 	vector<LONG> vTemp;

  00038	89 55 fc	 mov	 DWORD PTR __$EHRec$[ebp+8], edx
; File C:\Program Files\Microsoft Visual Studio\2022\Professional\VC\Tools\MSVC\14.44.35207\include\xtree

; 37   :     _Tree_unchecked_const_iterator(_Nodeptr _Pnode, const _Mytree* _Plist) noexcept : _Ptr(_Pnode) {

  0003b	8b 01		 mov	 eax, DWORD PTR [ecx]
  0003d	89 45 f0	 mov	 DWORD PTR _i$2[ebp], eax

; 237  :         return !(*this == _Right);

  00040	3b c1		 cmp	 eax, ecx
; File C:\IAGOS\server\v18\Source\Source\_Common\buff.cpp

; 862  : 	for( MAPBUFF::iterator i = m_mapBuffs.begin(); i != m_mapBuffs.end(); ++i )

  00042	0f 84 06 01 00
	00		 je	 $LN91@RemoveBuff
  00048	8b 5d 08	 mov	 ebx, DWORD PTR _dwFlags$[ebp]
  0004b	8b d3		 mov	 edx, ebx
  0004d	81 e2 00 00 00
	01		 and	 edx, 16777216		; 01000000H
  00053	89 55 ec	 mov	 DWORD PTR tv567[ebp], edx
$LL4@RemoveBuff:

; 863  : 	{
; 864  : 		IBuff* pBuff	= i->second;

  00056	8b 70 14	 mov	 esi, DWORD PTR [eax+20]

; 865  : 		if(
; 866  : 			( ( dwFlags & RBF_UNCONDITIONAL )
; 867  : #if __VER >= 13 // __HOUSING
; 868  : 				&& !pBuff->IsIk1( IK1_HOUSING )	// ÇĎżěÂˇ ąöÇÁ´Â "ąöÇÁÇŘÁ¦" ¸í·ÉŔ¸·Î »čÁ¦ ľČµĘ.
; 869  : #endif // __HOUSING	
; 870  : 			)
; 871  : 			|| ( ( dwFlags & RBF_COMMON ) && GetMover() && pBuff->IsCommon() )
; 872  : 			|| ( ( dwFlags & RBF_IK3 ) && pBuff->IsIk3( dwParam ) )
; 873  : 			|| ( ( dwFlags & RBF_GOODSKILL ) && pBuff->IsGood( GetMover() ) )
; 874  : 			|| ( ( dwFlags & RBF_CHRSTATE ) && pBuff->HasChrState( GetMover(), dwParam ) )
; 875  : 			|| ( ( dwFlags & RBF_DSTPARAM ) && pBuff->HasDstParam( GetMover(), dwParam ) )
; 876  : 			|| ( ( dwFlags & RBF_DEBUF ) && pBuff->IsDebuf( GetMover() ) )
; 877  : 			|| ( ( dwFlags & RBF_ATTACKER ) && pBuff->IsAttacker( GetMover(), dwParam ) )

  00059	85 d2		 test	 edx, edx
  0005b	74 11		 je	 SHORT $LN9@RemoveBuff
  0005d	8b 06		 mov	 eax, DWORD PTR [esi]
  0005f	8b ce		 mov	 ecx, esi
  00061	6a 07		 push	 7
  00063	ff 50 14	 call	 DWORD PTR [eax+20]
  00066	85 c0		 test	 eax, eax
  00068	0f 84 91 00 00
	00		 je	 $LN8@RemoveBuff
$LN9@RemoveBuff:
  0006e	f6 c3 01	 test	 bl, 1
  00071	74 11		 je	 SHORT $LN10@RemoveBuff
  00073	83 7f 0c 00	 cmp	 DWORD PTR [edi+12], 0
  00077	74 0b		 je	 SHORT $LN10@RemoveBuff
  00079	8b 06		 mov	 eax, DWORD PTR [esi]
  0007b	8b ce		 mov	 ecx, esi
  0007d	ff 50 34	 call	 DWORD PTR [eax+52]
  00080	85 c0		 test	 eax, eax
  00082	75 7b		 jne	 SHORT $LN8@RemoveBuff
$LN10@RemoveBuff:
  00084	f6 c3 02	 test	 bl, 2
  00087	74 0e		 je	 SHORT $LN11@RemoveBuff
  00089	8b 06		 mov	 eax, DWORD PTR [esi]
  0008b	8b ce		 mov	 ecx, esi
  0008d	ff 75 0c	 push	 DWORD PTR _dwParam$[ebp]
  00090	ff 50 18	 call	 DWORD PTR [eax+24]
  00093	85 c0		 test	 eax, eax
  00095	75 68		 jne	 SHORT $LN8@RemoveBuff
$LN11@RemoveBuff:
  00097	f6 c3 04	 test	 bl, 4
  0009a	74 0e		 je	 SHORT $LN12@RemoveBuff
  0009c	8b 06		 mov	 eax, DWORD PTR [esi]
  0009e	8b ce		 mov	 ecx, esi
  000a0	ff 77 0c	 push	 DWORD PTR [edi+12]
  000a3	ff 50 38	 call	 DWORD PTR [eax+56]
  000a6	85 c0		 test	 eax, eax
  000a8	75 55		 jne	 SHORT $LN8@RemoveBuff
$LN12@RemoveBuff:
  000aa	f6 c3 08	 test	 bl, 8
  000ad	74 11		 je	 SHORT $LN13@RemoveBuff
  000af	ff 75 0c	 push	 DWORD PTR _dwParam$[ebp]
  000b2	8b 06		 mov	 eax, DWORD PTR [esi]
  000b4	8b ce		 mov	 ecx, esi
  000b6	ff 77 0c	 push	 DWORD PTR [edi+12]
  000b9	ff 50 40	 call	 DWORD PTR [eax+64]
  000bc	85 c0		 test	 eax, eax
  000be	75 3f		 jne	 SHORT $LN8@RemoveBuff
$LN13@RemoveBuff:
  000c0	f6 c3 10	 test	 bl, 16			; 00000010H
  000c3	74 11		 je	 SHORT $LN14@RemoveBuff
  000c5	ff 75 0c	 push	 DWORD PTR _dwParam$[ebp]
  000c8	8b 06		 mov	 eax, DWORD PTR [esi]
  000ca	8b ce		 mov	 ecx, esi
  000cc	ff 77 0c	 push	 DWORD PTR [edi+12]
  000cf	ff 50 3c	 call	 DWORD PTR [eax+60]
  000d2	85 c0		 test	 eax, eax
  000d4	75 29		 jne	 SHORT $LN8@RemoveBuff
$LN14@RemoveBuff:
  000d6	f6 c3 20	 test	 bl, 32			; 00000020H
  000d9	74 0e		 je	 SHORT $LN15@RemoveBuff
  000db	8b 06		 mov	 eax, DWORD PTR [esi]
  000dd	8b ce		 mov	 ecx, esi
  000df	ff 77 0c	 push	 DWORD PTR [edi+12]
  000e2	ff 50 44	 call	 DWORD PTR [eax+68]
  000e5	85 c0		 test	 eax, eax
  000e7	75 16		 jne	 SHORT $LN8@RemoveBuff
$LN15@RemoveBuff:
  000e9	f6 c3 40	 test	 bl, 64			; 00000040H
  000ec	74 46		 je	 SHORT $LN2@RemoveBuff
  000ee	ff 75 0c	 push	 DWORD PTR _dwParam$[ebp]
  000f1	8b 06		 mov	 eax, DWORD PTR [esi]
  000f3	8b ce		 mov	 ecx, esi
  000f5	ff 77 0c	 push	 DWORD PTR [edi+12]
  000f8	ff 50 48	 call	 DWORD PTR [eax+72]
  000fb	85 c0		 test	 eax, eax
  000fd	74 35		 je	 SHORT $LN2@RemoveBuff
$LN8@RemoveBuff:

; 880  : 			vTemp.push_back( MAKELONG( pBuff->GetId(), pBuff->GetType() ) );

  000ff	0f b7 4e 04	 movzx	 ecx, WORD PTR [esi+4]
  00103	0f b7 46 06	 movzx	 eax, WORD PTR [esi+6]
  00107	c1 e1 10	 shl	 ecx, 16			; 00000010H
  0010a	0b c8		 or	 ecx, eax
; File C:\Program Files\Microsoft Visual Studio\2022\Professional\VC\Tools\MSVC\14.44.35207\include\vector

; 844  :         if (_Mylast != _My_data._Myend) {

  0010c	8b 45 e4	 mov	 eax, DWORD PTR _vTemp$[ebp+4]
; File C:\IAGOS\server\v18\Source\Source\_Common\buff.cpp

; 880  : 			vTemp.push_back( MAKELONG( pBuff->GetId(), pBuff->GetType() ) );

  0010f	89 4d 08	 mov	 DWORD PTR $T3[ebp], ecx
; File C:\Program Files\Microsoft Visual Studio\2022\Professional\VC\Tools\MSVC\14.44.35207\include\vector

; 844  :         if (_Mylast != _My_data._Myend) {

  00112	3b 45 e8	 cmp	 eax, DWORD PTR _vTemp$[ebp+8]
  00115	74 08		 je	 SHORT $LN40@RemoveBuff

; 860  :             _STD _Construct_in_place(*_Mylast, _STD forward<_Valty>(_Val)...);

  00117	89 08		 mov	 DWORD PTR [eax], ecx

; 861  :         } else {
; 862  :             _ASAN_VECTOR_EXTEND_GUARD(static_cast<size_type>(_Mylast - _My_data._Myfirst) + 1);
; 863  :             _Alty_traits::construct(_Getal(), _Unfancy(_Mylast), _STD forward<_Valty>(_Val)...);
; 864  :             _ASAN_VECTOR_RELEASE_GUARD;
; 865  :         }
; 866  : 
; 867  :         _Orphan_range(_Mylast, _Mylast);
; 868  :         _Ty& _Result = *_Mylast;
; 869  :         ++_Mylast;

  00119	83 45 e4 04	 add	 DWORD PTR _vTemp$[ebp+4], 4

; 845  :             return _Emplace_back_with_unused_capacity(_STD forward<_Valty>(_Val)...);

  0011d	eb 0d		 jmp	 SHORT $LN39@RemoveBuff
$LN40@RemoveBuff:

; 846  :         }
; 847  : 
; 848  :         return *_Emplace_reallocate(_Mylast, _STD forward<_Valty>(_Val)...);

  0011f	8d 4d 08	 lea	 ecx, DWORD PTR $T3[ebp]
  00122	51		 push	 ecx
  00123	50		 push	 eax
  00124	8d 4d e0	 lea	 ecx, DWORD PTR _vTemp$[ebp]
  00127	e8 00 00 00 00	 call	 ??$_Emplace_reallocate@J@?$vector@JV?$allocator@J@std@@@std@@AAEPAJQAJ$$QAJ@Z ; std::vector<long,std::allocator<long> >::_Emplace_reallocate<long>
$LN39@RemoveBuff:
; File C:\IAGOS\server\v18\Source\Source\_Common\buff.cpp

; 881  : 			if( dwFlags & RBF_ONCE )

  0012c	f7 c3 00 00 00
	10		 test	 ebx, 268435456		; 10000000H
  00132	75 17		 jne	 SHORT $LN101@RemoveBuff
$LN2@RemoveBuff:
; File C:\Program Files\Microsoft Visual Studio\2022\Professional\VC\Tools\MSVC\14.44.35207\include\xtree

; 198  :         _Mybase::operator++();

  00134	8d 4d f0	 lea	 ecx, DWORD PTR _i$2[ebp]
  00137	e8 00 00 00 00	 call	 ??E?$_Tree_unchecked_const_iterator@V?$_Tree_val@U?$_Tree_simple_types@U?$pair@$$CBKPAVIBuff@@@std@@@std@@@std@@U_Iterator_base0@2@@std@@QAEAAV01@XZ ; std::_Tree_unchecked_const_iterator<std::_Tree_val<std::_Tree_simple_types<std::pair<unsigned long const ,IBuff *> > >,std::_Iterator_base0>::operator++

; 237  :         return !(*this == _Right);

  0013c	8b 45 f0	 mov	 eax, DWORD PTR _i$2[ebp]
; File C:\IAGOS\server\v18\Source\Source\_Common\buff.cpp

; 862  : 	for( MAPBUFF::iterator i = m_mapBuffs.begin(); i != m_mapBuffs.end(); ++i )

  0013f	8b 55 ec	 mov	 edx, DWORD PTR tv567[ebp]
; File C:\Program Files\Microsoft Visual Studio\2022\Professional\VC\Tools\MSVC\14.44.35207\include\xtree

; 237  :         return !(*this == _Right);

  00142	3b 47 04	 cmp	 eax, DWORD PTR [edi+4]
; File C:\IAGOS\server\v18\Source\Source\_Common\buff.cpp

; 862  : 	for( MAPBUFF::iterator i = m_mapBuffs.begin(); i != m_mapBuffs.end(); ++i )

  00145	0f 85 0b ff ff
	ff		 jne	 $LL4@RemoveBuff
$LN101@RemoveBuff:

; 865  : 		if(
; 866  : 			( ( dwFlags & RBF_UNCONDITIONAL )
; 867  : #if __VER >= 13 // __HOUSING
; 868  : 				&& !pBuff->IsIk1( IK1_HOUSING )	// ÇĎżěÂˇ ąöÇÁ´Â "ąöÇÁÇŘÁ¦" ¸í·ÉŔ¸·Î »čÁ¦ ľČµĘ.
; 869  : #endif // __HOUSING	
; 870  : 			)
; 871  : 			|| ( ( dwFlags & RBF_COMMON ) && GetMover() && pBuff->IsCommon() )
; 872  : 			|| ( ( dwFlags & RBF_IK3 ) && pBuff->IsIk3( dwParam ) )
; 873  : 			|| ( ( dwFlags & RBF_GOODSKILL ) && pBuff->IsGood( GetMover() ) )
; 874  : 			|| ( ( dwFlags & RBF_CHRSTATE ) && pBuff->HasChrState( GetMover(), dwParam ) )
; 875  : 			|| ( ( dwFlags & RBF_DSTPARAM ) && pBuff->HasDstParam( GetMover(), dwParam ) )
; 876  : 			|| ( ( dwFlags & RBF_DEBUF ) && pBuff->IsDebuf( GetMover() ) )
; 877  : 			|| ( ( dwFlags & RBF_ATTACKER ) && pBuff->IsAttacker( GetMover(), dwParam ) )

  0014b	8b 55 e0	 mov	 edx, DWORD PTR _vTemp$[ebp]
$LN91@RemoveBuff:
; File C:\Program Files\Microsoft Visual Studio\2022\Professional\VC\Tools\MSVC\14.44.35207\include\vector

; 1910 :         return _My_data._Myfirst == _My_data._Mylast;

  0014e	3b 55 e4	 cmp	 edx, DWORD PTR _vTemp$[ebp+4]
; File C:\IAGOS\server\v18\Source\Source\_Common\buff.cpp

; 885  : 	while( !vTemp.empty() )

  00151	74 22		 je	 SHORT $LN6@RemoveBuff
$LL5@RemoveBuff:

; 886  : 	{
; 887  : 		LONG l	= vTemp.back();

  00153	8b 45 e4	 mov	 eax, DWORD PTR _vTemp$[ebp+4]

; 888  : 		RemoveBuff( HIWORD( l ), LOWORD( l ) );

  00156	8b cf		 mov	 ecx, edi
  00158	6a 01		 push	 1
  0015a	8b 40 fc	 mov	 eax, DWORD PTR [eax-4]
  0015d	50		 push	 eax
  0015e	c1 e8 10	 shr	 eax, 16			; 00000010H
  00161	50		 push	 eax
  00162	e8 00 00 00 00	 call	 ?RemoveBuff@CBuffMgr@@QAEXGGH@Z ; CBuffMgr::RemoveBuff
; File C:\Program Files\Microsoft Visual Studio\2022\Professional\VC\Tools\MSVC\14.44.35207\include\vector

; 1759 :         --_Mylast;

  00167	8b 45 e4	 mov	 eax, DWORD PTR _vTemp$[ebp+4]
  0016a	83 e8 04	 sub	 eax, 4
  0016d	89 45 e4	 mov	 DWORD PTR _vTemp$[ebp+4], eax
  00170	39 45 e0	 cmp	 DWORD PTR _vTemp$[ebp], eax
; File C:\IAGOS\server\v18\Source\Source\_Common\buff.cpp

; 885  : 	while( !vTemp.empty() )

  00173	75 de		 jne	 SHORT $LL5@RemoveBuff
$LN6@RemoveBuff:

; 889  : 		vTemp.pop_back();
; 890  : 	}
; 891  : }

  00175	8d 4d e0	 lea	 ecx, DWORD PTR _vTemp$[ebp]
  00178	e8 00 00 00 00	 call	 ??1?$vector@JV?$allocator@J@std@@@std@@QAE@XZ ; std::vector<long,std::allocator<long> >::~vector<long,std::allocator<long> >
  0017d	8b 4d f4	 mov	 ecx, DWORD PTR __$EHRec$[ebp]
  00180	64 89 0d 00 00
	00 00		 mov	 DWORD PTR fs:0, ecx
  00187	59		 pop	 ecx
  00188	5f		 pop	 edi
  00189	5e		 pop	 esi
  0018a	5b		 pop	 ebx
  0018b	8b e5		 mov	 esp, ebp
  0018d	5d		 pop	 ebp
  0018e	c2 08 00	 ret	 8
_TEXT	ENDS
;	COMDAT text$x
text$x	SEGMENT
__unwindfunclet$?RemoveBuffs@CBuffMgr@@QAEXKK@Z$0:
  00000	8d 4d e0	 lea	 ecx, DWORD PTR _vTemp$[ebp]
  00003	e9 00 00 00 00	 jmp	 ??1?$vector@JV?$allocator@J@std@@@std@@QAE@XZ ; std::vector<long,std::allocator<long> >::~vector<long,std::allocator<long> >
  00008	cc		 int	 3
  00009	cc		 int	 3
  0000a	cc		 int	 3
  0000b	cc		 int	 3
  0000c	cc		 int	 3
__ehhandler$?RemoveBuffs@CBuffMgr@@QAEXKK@Z:
  0000d	90		 npad	 1
  0000e	90		 npad	 1
  0000f	8b 54 24 08	 mov	 edx, DWORD PTR [esp+8]
  00013	8d 42 0c	 lea	 eax, DWORD PTR [edx+12]
  00016	8b 4a dc	 mov	 ecx, DWORD PTR [edx-36]
  00019	33 c8		 xor	 ecx, eax
  0001b	e8 00 00 00 00	 call	 @__security_check_cookie@4
  00020	b8 00 00 00 00	 mov	 eax, OFFSET __ehfuncinfo$?RemoveBuffs@CBuffMgr@@QAEXKK@Z
  00025	e9 00 00 00 00	 jmp	 ___CxxFrameHandler3
text$x	ENDS
?RemoveBuffs@CBuffMgr@@QAEXKK@Z ENDP			; CBuffMgr::RemoveBuffs
; Function compile flags: /Ogtp
; File C:\IAGOS\server\v18\Source\Source\_Common\buff.cpp
; File C:\Program Files\Microsoft Visual Studio\2022\Professional\VC\Tools\MSVC\14.44.35207\include\xtree
; File C:\IAGOS\server\v18\Source\Source\_Common\buff.cpp
; File C:\Program Files\Microsoft Visual Studio\2022\Professional\VC\Tools\MSVC\14.44.35207\include\xtree
; File C:\IAGOS\server\v18\Source\Source\_Common\buff.cpp
;	COMDAT ?GetBuffByIk3@CBuffMgr@@QAEPAVIBuff@@K@Z
_TEXT	SEGMENT
_i$1 = -4						; size = 4
_dwIk3$ = 8						; size = 4
?GetBuffByIk3@CBuffMgr@@QAEPAVIBuff@@K@Z PROC		; CBuffMgr::GetBuffByIk3, COMDAT
; _this$ = ecx

; 724  : {

  00000	55		 push	 ebp
  00001	8b ec		 mov	 ebp, esp
  00003	51		 push	 ecx
  00004	53		 push	 ebx
  00005	56		 push	 esi
  00006	57		 push	 edi
  00007	8b f9		 mov	 edi, ecx
; File C:\Program Files\Microsoft Visual Studio\2022\Professional\VC\Tools\MSVC\14.44.35207\include\xtree

; 1142 :         return iterator(_Scary->_Myhead->_Left, _Scary);

  00009	8b 57 04	 mov	 edx, DWORD PTR [edi+4]

; 37   :     _Tree_unchecked_const_iterator(_Nodeptr _Pnode, const _Mytree* _Plist) noexcept : _Ptr(_Pnode) {

  0000c	8b 02		 mov	 eax, DWORD PTR [edx]
  0000e	89 45 fc	 mov	 DWORD PTR _i$1[ebp], eax

; 237  :         return !(*this == _Right);

  00011	3b c2		 cmp	 eax, edx
; File C:\IAGOS\server\v18\Source\Source\_Common\buff.cpp

; 725  : 	for( MAPBUFF::iterator i = m_mapBuffs.begin(); i != m_mapBuffs.end(); ++i )

  00013	74 22		 je	 SHORT $LN3@GetBuffByI
  00015	8b 5d 08	 mov	 ebx, DWORD PTR _dwIk3$[ebp]
$LL4@GetBuffByI:

; 726  : 	{
; 727  : 		IBuff* pBuff	= i->second;

  00018	8b 70 14	 mov	 esi, DWORD PTR [eax+20]

; 728  : 		if( pBuff->IsIk3( dwIk3 ) )

  0001b	8b ce		 mov	 ecx, esi
  0001d	53		 push	 ebx
  0001e	8b 06		 mov	 eax, DWORD PTR [esi]
  00020	ff 50 18	 call	 DWORD PTR [eax+24]
  00023	85 c0		 test	 eax, eax
  00025	75 1b		 jne	 SHORT $LN53@GetBuffByI
; File C:\Program Files\Microsoft Visual Studio\2022\Professional\VC\Tools\MSVC\14.44.35207\include\xtree

; 198  :         _Mybase::operator++();

  00027	8d 4d fc	 lea	 ecx, DWORD PTR _i$1[ebp]
  0002a	e8 00 00 00 00	 call	 ??E?$_Tree_unchecked_const_iterator@V?$_Tree_val@U?$_Tree_simple_types@U?$pair@$$CBKPAVIBuff@@@std@@@std@@@std@@U_Iterator_base0@2@@std@@QAEAAV01@XZ ; std::_Tree_unchecked_const_iterator<std::_Tree_val<std::_Tree_simple_types<std::pair<unsigned long const ,IBuff *> > >,std::_Iterator_base0>::operator++

; 237  :         return !(*this == _Right);

  0002f	8b 45 fc	 mov	 eax, DWORD PTR _i$1[ebp]
  00032	3b 47 04	 cmp	 eax, DWORD PTR [edi+4]
; File C:\IAGOS\server\v18\Source\Source\_Common\buff.cpp

; 725  : 	for( MAPBUFF::iterator i = m_mapBuffs.begin(); i != m_mapBuffs.end(); ++i )

  00035	75 e1		 jne	 SHORT $LL4@GetBuffByI
$LN3@GetBuffByI:
  00037	5f		 pop	 edi

; 730  : 	}
; 731  : 	return NULL;
; 732  : }

  00038	5e		 pop	 esi
  00039	33 c0		 xor	 eax, eax
  0003b	5b		 pop	 ebx
  0003c	8b e5		 mov	 esp, ebp
  0003e	5d		 pop	 ebp
  0003f	c2 04 00	 ret	 4
$LN53@GetBuffByI:
  00042	5f		 pop	 edi

; 729  : 			return pBuff;

  00043	8b c6		 mov	 eax, esi

; 730  : 	}
; 731  : 	return NULL;
; 732  : }

  00045	5e		 pop	 esi
  00046	5b		 pop	 ebx
  00047	8b e5		 mov	 esp, ebp
  00049	5d		 pop	 ebp
  0004a	c2 04 00	 ret	 4
?GetBuffByIk3@CBuffMgr@@QAEPAVIBuff@@K@Z ENDP		; CBuffMgr::GetBuffByIk3
_TEXT	ENDS
; Function compile flags: /Ogtp
; File C:\IAGOS\server\v18\Source\Source\_Common\buff.cpp
; File C:\Program Files\Microsoft Visual Studio\2022\Professional\VC\Tools\MSVC\14.44.35207\include\xtree
; File C:\IAGOS\server\v18\Source\Source\_Common\buff.cpp
; File C:\Program Files\Microsoft Visual Studio\2022\Professional\VC\Tools\MSVC\14.44.35207\include\xtree
; File C:\Program Files\Microsoft Visual Studio\2022\Professional\VC\Tools\MSVC\14.44.35207\include\type_traits
; File C:\Program Files\Microsoft Visual Studio\2022\Professional\VC\Tools\MSVC\14.44.35207\include\xtree
; File C:\IAGOS\server\v18\Source\Source\_Common\buff.cpp
;	COMDAT ?GetBuff@CBuffMgr@@QAEPAVIBuff@@GG@Z
_TEXT	SEGMENT
__Loc$1 = -12						; size = 12
_wType$ = 8						; size = 2
$T2 = 8							; size = 4
_wId$ = 12						; size = 2
?GetBuff@CBuffMgr@@QAEPAVIBuff@@GG@Z PROC		; CBuffMgr::GetBuff, COMDAT
; _this$ = ecx

; 716  : {

  00000	55		 push	 ebp
  00001	8b ec		 mov	 ebp, esp
  00003	83 ec 0c	 sub	 esp, 12			; 0000000cH

; 717  : 	MAPBUFF::iterator i	= m_mapBuffs.find( MAKELONG( wId, wType ) );

  00006	0f b7 45 0c	 movzx	 eax, WORD PTR _wId$[ebp]
  0000a	56		 push	 esi
  0000b	0f b7 75 08	 movzx	 esi, WORD PTR _wType$[ebp]
  0000f	57		 push	 edi
  00010	c1 e6 10	 shl	 esi, 16			; 00000010H
  00013	8d 79 04	 lea	 edi, DWORD PTR [ecx+4]
  00016	0b f0		 or	 esi, eax
; File C:\Program Files\Microsoft Visual Studio\2022\Professional\VC\Tools\MSVC\14.44.35207\include\xtree

; 1384 :         const _Tree_find_result<_Nodeptr> _Loc = _Find_lower_bound(_Keyval);

  00018	8b cf		 mov	 ecx, edi
  0001a	8d 45 08	 lea	 eax, DWORD PTR $T2[ebp]
; File C:\IAGOS\server\v18\Source\Source\_Common\buff.cpp

; 717  : 	MAPBUFF::iterator i	= m_mapBuffs.find( MAKELONG( wId, wType ) );

  0001d	89 75 08	 mov	 DWORD PTR $T2[ebp], esi
; File C:\Program Files\Microsoft Visual Studio\2022\Professional\VC\Tools\MSVC\14.44.35207\include\xtree

; 1384 :         const _Tree_find_result<_Nodeptr> _Loc = _Find_lower_bound(_Keyval);

  00020	50		 push	 eax
  00021	8d 45 f4	 lea	 eax, DWORD PTR __Loc$1[ebp]
  00024	50		 push	 eax
  00025	e8 00 00 00 00	 call	 ??$_Find_lower_bound@K@?$_Tree@V?$_Tmap_traits@KPAVIBuff@@U?$less@K@std@@V?$allocator@U?$pair@$$CBKPAVIBuff@@@std@@@3@$0A@@std@@@std@@IBE?AU?$_Tree_find_result@PAU?$_Tree_node@U?$pair@$$CBKPAVIBuff@@@std@@PAX@std@@@1@ABK@Z ; std::_Tree<std::_Tmap_traits<unsigned long,IBuff *,std::less<unsigned long>,std::allocator<std::pair<unsigned long const ,IBuff *> >,0> >::_Find_lower_bound<unsigned long>

; 1624 :         return !_Bound->_Isnil && !_DEBUG_LT_PRED(_Getcomp(), _Keyval, _Traits::_Kfn(_Bound->_Myval));

  0002a	8b 45 fc	 mov	 eax, DWORD PTR __Loc$1[ebp+8]
  0002d	80 78 0d 00	 cmp	 BYTE PTR [eax+13], 0
  00031	75 14		 jne	 SHORT $LN2@GetBuff
; File C:\Program Files\Microsoft Visual Studio\2022\Professional\VC\Tools\MSVC\14.44.35207\include\type_traits

; 2380 :         return _Left < _Right;

  00033	3b 70 10	 cmp	 esi, DWORD PTR [eax+16]
; File C:\Program Files\Microsoft Visual Studio\2022\Professional\VC\Tools\MSVC\14.44.35207\include\xtree

; 1624 :         return !_Bound->_Isnil && !_DEBUG_LT_PRED(_Getcomp(), _Keyval, _Traits::_Kfn(_Bound->_Myval));

  00036	72 0f		 jb	 SHORT $LN2@GetBuff

; 37   :     _Tree_unchecked_const_iterator(_Nodeptr _Pnode, const _Mytree* _Plist) noexcept : _Ptr(_Pnode) {

  00038	3b 07		 cmp	 eax, DWORD PTR [edi]
; File C:\IAGOS\server\v18\Source\Source\_Common\buff.cpp

; 718  : 	if( i != m_mapBuffs.end() )

  0003a	74 0b		 je	 SHORT $LN2@GetBuff

; 719  : 		return i->second;

  0003c	8b 40 14	 mov	 eax, DWORD PTR [eax+20]
  0003f	5f		 pop	 edi

; 721  : }

  00040	5e		 pop	 esi
  00041	8b e5		 mov	 esp, ebp
  00043	5d		 pop	 ebp
  00044	c2 08 00	 ret	 8
$LN2@GetBuff:
  00047	5f		 pop	 edi

; 720  : 	return NULL;

  00048	33 c0		 xor	 eax, eax

; 721  : }

  0004a	5e		 pop	 esi
  0004b	8b e5		 mov	 esp, ebp
  0004d	5d		 pop	 ebp
  0004e	c2 08 00	 ret	 8
?GetBuff@CBuffMgr@@QAEPAVIBuff@@GG@Z ENDP		; CBuffMgr::GetBuff
_TEXT	ENDS
; Function compile flags: /Ogtp
; File C:\IAGOS\server\v18\Source\Source\_Common\buff.cpp
; File C:\Program Files\Microsoft Visual Studio\2022\Professional\VC\Tools\MSVC\14.44.35207\include\xtree
; File C:\IAGOS\server\v18\Source\Source\_Common\buff.cpp
; File C:\Program Files\Microsoft Visual Studio\2022\Professional\VC\Tools\MSVC\14.44.35207\include\xtree
; File C:\IAGOS\server\v18\Source\Source\_Common\buff.cpp
;	COMDAT ?GetBuffPet@CBuffMgr@@QAEPAVIBuff@@XZ
_TEXT	SEGMENT
_i$1 = -4						; size = 4
?GetBuffPet@CBuffMgr@@QAEPAVIBuff@@XZ PROC		; CBuffMgr::GetBuffPet, COMDAT
; _this$ = ecx

; 907  : {

  00000	55		 push	 ebp
  00001	8b ec		 mov	 ebp, esp
  00003	51		 push	 ecx
  00004	56		 push	 esi
; File C:\Program Files\Microsoft Visual Studio\2022\Professional\VC\Tools\MSVC\14.44.35207\include\xtree

; 1142 :         return iterator(_Scary->_Myhead->_Left, _Scary);

  00005	8b 71 04	 mov	 esi, DWORD PTR [ecx+4]

; 37   :     _Tree_unchecked_const_iterator(_Nodeptr _Pnode, const _Mytree* _Plist) noexcept : _Ptr(_Pnode) {

  00008	8b 06		 mov	 eax, DWORD PTR [esi]
  0000a	89 45 fc	 mov	 DWORD PTR _i$1[ebp], eax

; 237  :         return !(*this == _Right);

  0000d	3b c6		 cmp	 eax, esi
; File C:\IAGOS\server\v18\Source\Source\_Common\buff.cpp

; 908  : 	for( MAPBUFF::iterator i = m_mapBuffs.begin(); i != m_mapBuffs.end(); ++i )

  0000f	74 19		 je	 SHORT $LN3@GetBuffPet
$LL4@GetBuffPet:

; 909  : 	{
; 910  : 		IBuff* pBuff	= i->second;

  00011	8b 40 14	 mov	 eax, DWORD PTR [eax+20]

; 911  : 		if( pBuff->GetType() == BUFF_PET )

  00014	66 83 78 04 02	 cmp	 WORD PTR [eax+4], 2
  00019	74 11		 je	 SHORT $LN1@GetBuffPet
; File C:\Program Files\Microsoft Visual Studio\2022\Professional\VC\Tools\MSVC\14.44.35207\include\xtree

; 198  :         _Mybase::operator++();

  0001b	8d 4d fc	 lea	 ecx, DWORD PTR _i$1[ebp]
  0001e	e8 00 00 00 00	 call	 ??E?$_Tree_unchecked_const_iterator@V?$_Tree_val@U?$_Tree_simple_types@U?$pair@$$CBKPAVIBuff@@@std@@@std@@@std@@U_Iterator_base0@2@@std@@QAEAAV01@XZ ; std::_Tree_unchecked_const_iterator<std::_Tree_val<std::_Tree_simple_types<std::pair<unsigned long const ,IBuff *> > >,std::_Iterator_base0>::operator++

; 237  :         return !(*this == _Right);

  00023	8b 45 fc	 mov	 eax, DWORD PTR _i$1[ebp]
  00026	3b c6		 cmp	 eax, esi
; File C:\IAGOS\server\v18\Source\Source\_Common\buff.cpp

; 908  : 	for( MAPBUFF::iterator i = m_mapBuffs.begin(); i != m_mapBuffs.end(); ++i )

  00028	75 e7		 jne	 SHORT $LL4@GetBuffPet
$LN3@GetBuffPet:

; 912  : 			return pBuff;
; 913  : 	}
; 914  : 	return NULL;

  0002a	33 c0		 xor	 eax, eax
$LN1@GetBuffPet:
  0002c	5e		 pop	 esi

; 915  : }

  0002d	8b e5		 mov	 esp, ebp
  0002f	5d		 pop	 ebp
  00030	c3		 ret	 0
?GetBuffPet@CBuffMgr@@QAEPAVIBuff@@XZ ENDP		; CBuffMgr::GetBuffPet
_TEXT	ENDS
; Function compile flags: /Ogtp
; File C:\IAGOS\server\v18\Source\Source\_Common\buff.cpp
;	COMDAT ?RemoveBuffPet@CBuffMgr@@QAEXXZ
_TEXT	SEGMENT
?RemoveBuffPet@CBuffMgr@@QAEXXZ PROC			; CBuffMgr::RemoveBuffPet, COMDAT
; _this$ = ecx

; 927  : {

  00000	56		 push	 esi
  00001	8b f1		 mov	 esi, ecx

; 928  : 	IBuff* pBuff	= GetBuffPet();

  00003	e8 00 00 00 00	 call	 ?GetBuffPet@CBuffMgr@@QAEPAVIBuff@@XZ ; CBuffMgr::GetBuffPet

; 929  : 	if( pBuff )

  00008	85 c0		 test	 eax, eax
  0000a	74 08		 je	 SHORT $LN2@RemoveBuff

; 930  : 		RemoveBuffPet( pBuff );

  0000c	50		 push	 eax
  0000d	8b ce		 mov	 ecx, esi
  0000f	e8 00 00 00 00	 call	 ?RemoveBuffPet@CBuffMgr@@QAEXPAVIBuff@@@Z ; CBuffMgr::RemoveBuffPet
$LN2@RemoveBuff:

; 931  : }

  00014	5e		 pop	 esi
  00015	c3		 ret	 0
?RemoveBuffPet@CBuffMgr@@QAEXXZ ENDP			; CBuffMgr::RemoveBuffPet
_TEXT	ENDS
; Function compile flags: /Ogtp
; File C:\IAGOS\server\v18\Source\Source\_Common\buff.cpp
;	COMDAT ?HasBuffByIk3@CBuffMgr@@QAEHK@Z
_TEXT	SEGMENT
_dwIk3$ = 8						; size = 4
?HasBuffByIk3@CBuffMgr@@QAEHK@Z PROC			; CBuffMgr::HasBuffByIk3, COMDAT
; _this$ = ecx

; 735  : {

  00000	55		 push	 ebp
  00001	8b ec		 mov	 ebp, esp

; 736  : 	return GetBuffByIk3( dwIk3 ) != NULL;

  00003	ff 75 08	 push	 DWORD PTR _dwIk3$[ebp]
  00006	e8 00 00 00 00	 call	 ?GetBuffByIk3@CBuffMgr@@QAEPAVIBuff@@K@Z ; CBuffMgr::GetBuffByIk3
  0000b	f7 d8		 neg	 eax
  0000d	1b c0		 sbb	 eax, eax
  0000f	f7 d8		 neg	 eax

; 737  : }

  00011	5d		 pop	 ebp
  00012	c2 04 00	 ret	 4
?HasBuffByIk3@CBuffMgr@@QAEHK@Z ENDP			; CBuffMgr::HasBuffByIk3
_TEXT	ENDS
; Function compile flags: /Ogtp
; File C:\IAGOS\server\v18\Source\Source\_Common\buff.cpp
;	COMDAT ?RemoveBuff@CBuffMgr@@QAEXGGH@Z
_TEXT	SEGMENT
_wType$ = 8						; size = 2
_wId$ = 12						; size = 2
_bFake$ = 16						; size = 4
?RemoveBuff@CBuffMgr@@QAEXGGH@Z PROC			; CBuffMgr::RemoveBuff, COMDAT
; _this$ = ecx

; 796  : {

  00000	55		 push	 ebp
  00001	8b ec		 mov	 ebp, esp
  00003	56		 push	 esi

; 797  : 	IBuff* pBuff	= GetBuff( wType, wId );

  00004	ff 75 0c	 push	 DWORD PTR _wId$[ebp]
  00007	8b f1		 mov	 esi, ecx
  00009	ff 75 08	 push	 DWORD PTR _wType$[ebp]
  0000c	e8 00 00 00 00	 call	 ?GetBuff@CBuffMgr@@QAEPAVIBuff@@GG@Z ; CBuffMgr::GetBuff

; 798  : 	if( pBuff )

  00011	85 c0		 test	 eax, eax
  00013	74 0b		 je	 SHORT $LN2@RemoveBuff

; 799  : 		RemoveBuff( pBuff, bFake );

  00015	ff 75 10	 push	 DWORD PTR _bFake$[ebp]
  00018	8b ce		 mov	 ecx, esi
  0001a	50		 push	 eax
  0001b	e8 00 00 00 00	 call	 ?RemoveBuff@CBuffMgr@@QAEXPAVIBuff@@H@Z ; CBuffMgr::RemoveBuff
$LN2@RemoveBuff:
  00020	5e		 pop	 esi

; 800  : }

  00021	5d		 pop	 ebp
  00022	c2 0c 00	 ret	 12			; 0000000cH
?RemoveBuff@CBuffMgr@@QAEXGGH@Z ENDP			; CBuffMgr::RemoveBuff
_TEXT	ENDS
; Function compile flags: /Ogtp
; File C:\IAGOS\server\v18\Source\Source\_Common\buff.cpp
; File C:\Program Files\Microsoft Visual Studio\2022\Professional\VC\Tools\MSVC\14.44.35207\include\xtree
; File C:\IAGOS\server\v18\Source\Source\_Common\buff.cpp
; File C:\Program Files\Microsoft Visual Studio\2022\Professional\VC\Tools\MSVC\14.44.35207\include\xtree
; File C:\IAGOS\server\v18\Source\Source\_Common\buff.cpp
; File C:\Program Files\Microsoft Visual Studio\2022\Professional\VC\Tools\MSVC\14.44.35207\include\xtree
; File C:\IAGOS\server\v18\Source\Source\_Common\buff.cpp
; File C:\Program Files\Microsoft Visual Studio\2022\Professional\VC\Tools\MSVC\14.44.35207\include\xtree
; File C:\Program Files\Microsoft Visual Studio\2022\Professional\VC\Tools\MSVC\14.44.35207\include\type_traits
; File C:\Program Files\Microsoft Visual Studio\2022\Professional\VC\Tools\MSVC\14.44.35207\include\xtree
; File C:\Program Files\Microsoft Visual Studio\2022\Professional\VC\Tools\MSVC\14.44.35207\include\type_traits
; File C:\Program Files\Microsoft Visual Studio\2022\Professional\VC\Tools\MSVC\14.44.35207\include\xtree
; File C:\Program Files\Microsoft Visual Studio\2022\Professional\VC\Tools\MSVC\14.44.35207\include\type_traits
; File C:\Program Files\Microsoft Visual Studio\2022\Professional\VC\Tools\MSVC\14.44.35207\include\xtree
; File C:\Program Files\Microsoft Visual Studio\2022\Professional\VC\Tools\MSVC\14.44.35207\include\xutility
; File C:\Program Files\Microsoft Visual Studio\2022\Professional\VC\Tools\MSVC\14.44.35207\include\xtree
; File C:\Program Files\Microsoft Visual Studio\2022\Professional\VC\Tools\MSVC\14.44.35207\include\xutility
; File C:\Program Files\Microsoft Visual Studio\2022\Professional\VC\Tools\MSVC\14.44.35207\include\xtree
; File C:\Program Files\Microsoft Visual Studio\2022\Professional\VC\Tools\MSVC\14.44.35207\include\xutility
; File C:\Program Files\Microsoft Visual Studio\2022\Professional\VC\Tools\MSVC\14.44.35207\include\xtree
; File C:\Program Files\Microsoft Visual Studio\2022\Professional\VC\Tools\MSVC\14.44.35207\include\xutility
; File C:\Program Files\Microsoft Visual Studio\2022\Professional\VC\Tools\MSVC\14.44.35207\include\xtree
; File C:\Program Files\Microsoft Visual Studio\2022\Professional\VC\Tools\MSVC\14.44.35207\include\xmemory
; File C:\Program Files\Microsoft Visual Studio\2022\Professional\VC\Tools\MSVC\14.44.35207\include\xtree
; File C:\Program Files\Microsoft Visual Studio\2022\Professional\VC\Tools\MSVC\14.44.35207\include\xmemory
; File C:\Program Files\Microsoft Visual Studio\2022\Professional\VC\Tools\MSVC\14.44.35207\include\xtree
; File C:\IAGOS\server\v18\Source\Source\_Common\buff.cpp
;	COMDAT ?RemoveBuff@CBuffMgr@@QAEXPAVIBuff@@H@Z
_TEXT	SEGMENT
tv828 = -12						; size = 4
__Off$1$ = -8						; size = 4
__First$ = -4						; size = 4
_pBuff$ = 8						; size = 4
_bFake$ = 12						; size = 4
_this$1$ = 12						; size = 4
?RemoveBuff@CBuffMgr@@QAEXPAVIBuff@@H@Z PROC		; CBuffMgr::RemoveBuff, COMDAT
; _this$ = ecx

; 774  : {

  00000	55		 push	 ebp
  00001	8b ec		 mov	 ebp, esp
  00003	83 ec 0c	 sub	 esp, 12			; 0000000cH
  00006	56		 push	 esi
  00007	57		 push	 edi

; 775  : 	ASSERT( pBuff );
; 776  : 	if( !pBuff->GetRemove() )	// pBuffżˇ ´ëÇĎż© RemoveBuffŔÇ ĂÖĂĘ ČŁĂâ ˝Ă Release ČŁĂâ

  00008	8b 7d 08	 mov	 edi, DWORD PTR _pBuff$[ebp]
  0000b	8b f1		 mov	 esi, ecx
  0000d	83 7f 18 00	 cmp	 DWORD PTR [edi+24], 0
  00011	75 08		 jne	 SHORT $LN2@RemoveBuff

; 777  : 		pBuff->Release( this );

  00013	8b 07		 mov	 eax, DWORD PTR [edi]
  00015	8b cf		 mov	 ecx, edi
  00017	56		 push	 esi
  00018	ff 50 28	 call	 DWORD PTR [eax+40]
$LN2@RemoveBuff:

; 778  : #ifdef __WORLDSERVER
; 779  : 	if( bFake )

  0001b	83 7d 0c 00	 cmp	 DWORD PTR _bFake$[ebp], 0
  0001f	74 0f		 je	 SHORT $LN3@RemoveBuff

; 780  : 	{
; 781  : 		pBuff->SetRemove();

  00021	c7 47 18 01 00
	00 00		 mov	 DWORD PTR [edi+24], 1
  00028	5f		 pop	 edi

; 793  : }

  00029	5e		 pop	 esi
  0002a	8b e5		 mov	 esp, ebp
  0002c	5d		 pop	 ebp
  0002d	c2 08 00	 ret	 8
$LN3@RemoveBuff:

; 782  : 		return;
; 783  : 	}
; 784  : 	g_UserMng.AddRemoveSkillInfluence( GetMover(), pBuff->GetType(), pBuff->GetId() );

  00030	0f b7 47 06	 movzx	 eax, WORD PTR [edi+6]
  00034	b9 00 00 00 00	 mov	 ecx, OFFSET ?g_UserMng@@3VCUserMng@@A ; g_UserMng
  00039	53		 push	 ebx
  0003a	50		 push	 eax
  0003b	0f b7 47 04	 movzx	 eax, WORD PTR [edi+4]
  0003f	50		 push	 eax
  00040	ff 76 0c	 push	 DWORD PTR [esi+12]
  00043	e8 00 00 00 00	 call	 ?AddRemoveSkillInfluence@CUserMng@@QAEXPAVCMover@@GG@Z ; CUserMng::AddRemoveSkillInfluence

; 786  : 	int nResult	= m_mapBuffs.erase( MAKELONG( pBuff->GetId(), pBuff->GetType() ) );

  00048	0f b7 5f 04	 movzx	 ebx, WORD PTR [edi+4]
  0004c	0f b7 47 06	 movzx	 eax, WORD PTR [edi+6]
; File C:\Program Files\Microsoft Visual Studio\2022\Professional\VC\Tools\MSVC\14.44.35207\include\xtree

; 1709 :         _Nodeptr _Pnode   = _Scary->_Myhead->_Parent;

  00050	8b 56 04	 mov	 edx, DWORD PTR [esi+4]

; 1711 :         _Nodeptr _Hinode  = _Scary->_Myhead; // end() if search fails

  00053	8b fa		 mov	 edi, edx
; File C:\IAGOS\server\v18\Source\Source\_Common\buff.cpp

; 786  : 	int nResult	= m_mapBuffs.erase( MAKELONG( pBuff->GetId(), pBuff->GetType() ) );

  00055	c1 e3 10	 shl	 ebx, 16			; 00000010H
  00058	0b d8		 or	 ebx, eax
; File C:\Program Files\Microsoft Visual Studio\2022\Professional\VC\Tools\MSVC\14.44.35207\include\xtree

; 1709 :         _Nodeptr _Pnode   = _Scary->_Myhead->_Parent;

  0005a	89 55 f4	 mov	 DWORD PTR tv828[ebp], edx
; File C:\IAGOS\server\v18\Source\Source\_Common\buff.cpp

; 786  : 	int nResult	= m_mapBuffs.erase( MAKELONG( pBuff->GetId(), pBuff->GetType() ) );

  0005d	8d 46 04	 lea	 eax, DWORD PTR [esi+4]
; File C:\Program Files\Microsoft Visual Studio\2022\Professional\VC\Tools\MSVC\14.44.35207\include\xtree

; 1710 :         _Nodeptr _Lonode  = _Scary->_Myhead; // end() if search fails

  00060	8b f2		 mov	 esi, edx
  00062	8b 4a 04	 mov	 ecx, DWORD PTR [edx+4]
; File C:\IAGOS\server\v18\Source\Source\_Common\buff.cpp

; 786  : 	int nResult	= m_mapBuffs.erase( MAKELONG( pBuff->GetId(), pBuff->GetType() ) );

  00065	89 45 0c	 mov	 DWORD PTR _this$1$[ebp], eax
; File C:\Program Files\Microsoft Visual Studio\2022\Professional\VC\Tools\MSVC\14.44.35207\include\xtree

; 1709 :         _Nodeptr _Pnode   = _Scary->_Myhead->_Parent;

  00068	8b c1		 mov	 eax, ecx

; 1712 : 
; 1713 :         while (!_Pnode->_Isnil) {

  0006a	80 78 0d 00	 cmp	 BYTE PTR [eax+13], 0
  0006e	75 21		 jne	 SHORT $LN14@RemoveBuff
$LL13@RemoveBuff:
; File C:\Program Files\Microsoft Visual Studio\2022\Professional\VC\Tools\MSVC\14.44.35207\include\type_traits

; 2380 :         return _Left < _Right;

  00070	8b 50 10	 mov	 edx, DWORD PTR [eax+16]
  00073	3b d3		 cmp	 edx, ebx
; File C:\Program Files\Microsoft Visual Studio\2022\Professional\VC\Tools\MSVC\14.44.35207\include\xtree

; 1715 :             if (_DEBUG_LT_PRED(_Comp, _Nodekey, _Keyval)) {

  00075	73 05		 jae	 SHORT $LN17@RemoveBuff

; 1716 :                 _Pnode = _Pnode->_Right; // descend right subtree

  00077	8b 40 08	 mov	 eax, DWORD PTR [eax+8]

; 1717 :             } else { // _Pnode not less than _Keyval, remember it

  0007a	eb 0f		 jmp	 SHORT $LN18@RemoveBuff
$LN17@RemoveBuff:

; 1718 :                 if (_Hinode->_Isnil && _DEBUG_LT_PRED(_Comp, _Keyval, _Nodekey)) {

  0007c	80 7f 0d 00	 cmp	 BYTE PTR [edi+13], 0
  00080	74 05		 je	 SHORT $LN19@RemoveBuff
; File C:\Program Files\Microsoft Visual Studio\2022\Professional\VC\Tools\MSVC\14.44.35207\include\type_traits

; 2380 :         return _Left < _Right;

  00082	3b da		 cmp	 ebx, edx
; File C:\Program Files\Microsoft Visual Studio\2022\Professional\VC\Tools\MSVC\14.44.35207\include\xtree

; 1718 :                 if (_Hinode->_Isnil && _DEBUG_LT_PRED(_Comp, _Keyval, _Nodekey)) {

  00084	0f 42 f8	 cmovb	 edi, eax
$LN19@RemoveBuff:

; 1719 :                     _Hinode = _Pnode; // _Pnode greater, remember it
; 1720 :                 }
; 1721 : 
; 1722 :                 _Lonode = _Pnode;

  00087	8b f0		 mov	 esi, eax

; 1723 :                 _Pnode  = _Pnode->_Left; // descend left subtree

  00089	8b 00		 mov	 eax, DWORD PTR [eax]
$LN18@RemoveBuff:

; 1712 : 
; 1713 :         while (!_Pnode->_Isnil) {

  0008b	80 78 0d 00	 cmp	 BYTE PTR [eax+13], 0
  0008f	74 df		 je	 SHORT $LL13@RemoveBuff
$LN14@RemoveBuff:

; 1724 :             }
; 1725 :         }
; 1726 : 
; 1727 :         _Pnode = _Hinode->_Isnil ? _Scary->_Myhead->_Parent : _Hinode->_Left; // continue scan for upper bound

  00091	80 7f 0d 00	 cmp	 BYTE PTR [edi+13], 0
  00095	75 02		 jne	 SHORT $LN24@RemoveBuff
  00097	8b 0f		 mov	 ecx, DWORD PTR [edi]
$LN24@RemoveBuff:

; 1728 :         while (!_Pnode->_Isnil) {

  00099	80 79 0d 00	 cmp	 BYTE PTR [ecx+13], 0
  0009d	75 15		 jne	 SHORT $LN16@RemoveBuff
  0009f	90		 npad	 1
$LL15@RemoveBuff:
; File C:\Program Files\Microsoft Visual Studio\2022\Professional\VC\Tools\MSVC\14.44.35207\include\type_traits

; 2380 :         return _Left < _Right;

  000a0	3b 59 10	 cmp	 ebx, DWORD PTR [ecx+16]
; File C:\Program Files\Microsoft Visual Studio\2022\Professional\VC\Tools\MSVC\14.44.35207\include\xtree

; 1729 :             if (_DEBUG_LT_PRED(_Getcomp(), _Keyval, _Traits::_Kfn(_Pnode->_Myval))) {

  000a3	73 06		 jae	 SHORT $LN20@RemoveBuff

; 1730 :                 // _Pnode greater than _Keyval, remember it
; 1731 :                 _Hinode = _Pnode;

  000a5	8b f9		 mov	 edi, ecx

; 1732 :                 _Pnode  = _Pnode->_Left; // descend left subtree

  000a7	8b 09		 mov	 ecx, DWORD PTR [ecx]

; 1733 :             } else {

  000a9	eb 03		 jmp	 SHORT $LN21@RemoveBuff
$LN20@RemoveBuff:

; 1734 :                 _Pnode = _Pnode->_Right; // descend right subtree

  000ab	8b 49 08	 mov	 ecx, DWORD PTR [ecx+8]
$LN21@RemoveBuff:

; 1728 :         while (!_Pnode->_Isnil) {

  000ae	80 79 0d 00	 cmp	 BYTE PTR [ecx+13], 0
  000b2	74 ec		 je	 SHORT $LL15@RemoveBuff
$LN16@RemoveBuff:
; File C:\Program Files\Microsoft Visual Studio\2022\Professional\VC\Tools\MSVC\14.44.35207\include\xutility

; 1667 :         _Iter_diff_t<_InIt> _Off = 0;

  000b4	33 db		 xor	 ebx, ebx
  000b6	8b c6		 mov	 eax, esi
  000b8	89 5d f8	 mov	 DWORD PTR __Off$1$[ebp], ebx
; File C:\Program Files\Microsoft Visual Studio\2022\Professional\VC\Tools\MSVC\14.44.35207\include\xtree

; 101  :         return !(*this == _Right);

  000bb	3b f7		 cmp	 esi, edi
; File C:\Program Files\Microsoft Visual Studio\2022\Professional\VC\Tools\MSVC\14.44.35207\include\xutility

; 1668 :         for (; _UFirst != _ULast; ++_UFirst) {

  000bd	74 45		 je	 SHORT $LN49@RemoveBuff
  000bf	90		 npad	 1
$LL50@RemoveBuff:
; File C:\Program Files\Microsoft Visual Studio\2022\Professional\VC\Tools\MSVC\14.44.35207\include\xtree

; 50   :         if (_Ptr->_Right->_Isnil) { // climb looking for right subtree

  000c0	8b 48 08	 mov	 ecx, DWORD PTR [eax+8]
; File C:\Program Files\Microsoft Visual Studio\2022\Professional\VC\Tools\MSVC\14.44.35207\include\xutility

; 1669 :             ++_Off;

  000c3	43		 inc	 ebx
; File C:\Program Files\Microsoft Visual Studio\2022\Professional\VC\Tools\MSVC\14.44.35207\include\xtree

; 50   :         if (_Ptr->_Right->_Isnil) { // climb looking for right subtree

  000c4	80 79 0d 00	 cmp	 BYTE PTR [ecx+13], 0
  000c8	74 1d		 je	 SHORT $LN55@RemoveBuff

; 51   :             _Nodeptr _Pnode;
; 52   :             while (!(_Pnode = _Ptr->_Parent)->_Isnil && _Ptr == _Pnode->_Right) {

  000ca	8b 48 04	 mov	 ecx, DWORD PTR [eax+4]
  000cd	80 79 0d 00	 cmp	 BYTE PTR [ecx+13], 0
  000d1	75 10		 jne	 SHORT $LN150@RemoveBuff
$LL53@RemoveBuff:
  000d3	3b 41 08	 cmp	 eax, DWORD PTR [ecx+8]
  000d6	75 0b		 jne	 SHORT $LN150@RemoveBuff

; 53   :                 _Ptr = _Pnode; // ==> parent while right subtree

  000d8	8b c1		 mov	 eax, ecx
  000da	8b 49 04	 mov	 ecx, DWORD PTR [ecx+4]
  000dd	80 79 0d 00	 cmp	 BYTE PTR [ecx+13], 0
  000e1	74 f0		 je	 SHORT $LL53@RemoveBuff
$LN150@RemoveBuff:

; 54   :             }
; 55   : 
; 56   :             _Ptr = _Pnode; // ==> parent (head if end())

  000e3	8b c1		 mov	 eax, ecx

; 57   :         } else {

  000e5	eb 16		 jmp	 SHORT $LN61@RemoveBuff
$LN55@RemoveBuff:

; 58   :             _Ptr = _Mytree::_Min(_Ptr->_Right); // ==> smallest of right subtree

  000e7	8b c1		 mov	 eax, ecx

; 476  :         while (!_Pnode->_Left->_Isnil) {

  000e9	8b 10		 mov	 edx, DWORD PTR [eax]
  000eb	80 7a 0d 00	 cmp	 BYTE PTR [edx+13], 0
  000ef	75 0c		 jne	 SHORT $LN61@RemoveBuff
$LL60@RemoveBuff:
  000f1	8b 0a		 mov	 ecx, DWORD PTR [edx]

; 477  :             _Pnode = _Pnode->_Left;

  000f3	8b c2		 mov	 eax, edx
  000f5	8b d1		 mov	 edx, ecx
  000f7	80 79 0d 00	 cmp	 BYTE PTR [ecx+13], 0
  000fb	74 f4		 je	 SHORT $LL60@RemoveBuff
$LN61@RemoveBuff:

; 101  :         return !(*this == _Right);

  000fd	3b c7		 cmp	 eax, edi
; File C:\Program Files\Microsoft Visual Studio\2022\Professional\VC\Tools\MSVC\14.44.35207\include\xutility

; 1668 :         for (; _UFirst != _ULast; ++_UFirst) {

  000ff	75 bf		 jne	 SHORT $LL50@RemoveBuff
  00101	89 5d f8	 mov	 DWORD PTR __Off$1$[ebp], ebx
$LN49@RemoveBuff:
; File C:\Program Files\Microsoft Visual Studio\2022\Professional\VC\Tools\MSVC\14.44.35207\include\xtree

; 96   :         return _Ptr == _Right._Ptr;

  00104	8b 45 f4	 mov	 eax, DWORD PTR tv828[ebp]

; 1329 :         _Erase_unchecked(_First, _Last);

  00107	89 75 fc	 mov	 DWORD PTR __First$[ebp], esi

; 96   :         return _Ptr == _Right._Ptr;

  0010a	3b 30		 cmp	 esi, DWORD PTR [eax]

; 1311 :         if (_First == _Begin && _Last._Ptr->_Isnil) {

  0010c	75 10		 jne	 SHORT $LN131@RemoveBuff
  0010e	80 7f 0d 00	 cmp	 BYTE PTR [edi+13], 0
  00112	74 0a		 je	 SHORT $LN131@RemoveBuff

; 1312 :             // erase all
; 1313 :             clear();

  00114	8b 4d 0c	 mov	 ecx, DWORD PTR _this$1$[ebp]
  00117	e8 00 00 00 00	 call	 ?clear@?$_Tree@V?$_Tmap_traits@KPAVIBuff@@U?$less@K@std@@V?$allocator@U?$pair@$$CBKPAVIBuff@@@std@@@3@$0A@@std@@@std@@QAEXXZ ; std::_Tree<std::_Tmap_traits<unsigned long,IBuff *,std::less<unsigned long>,std::allocator<std::pair<unsigned long const ,IBuff *> >,0> >::clear

; 1314 :             return _Last._Ptr;

  0011c	eb 2c		 jmp	 SHORT $LN137@RemoveBuff
$LN131@RemoveBuff:

; 101  :         return !(*this == _Right);

  0011e	3b f7		 cmp	 esi, edi

; 1318 :         while (_First != _Last) {

  00120	74 28		 je	 SHORT $LN137@RemoveBuff
  00122	8b 5d 0c	 mov	 ebx, DWORD PTR _this$1$[ebp]
$LL71@RemoveBuff:

; 66   :         ++*this;

  00125	8d 4d fc	 lea	 ecx, DWORD PTR __First$[ebp]
  00128	e8 00 00 00 00	 call	 ??E?$_Tree_unchecked_const_iterator@V?$_Tree_val@U?$_Tree_simple_types@U?$pair@$$CBKPAVIBuff@@@std@@@std@@@std@@U_Iterator_base0@2@@std@@QAEAAV01@XZ ; std::_Tree_unchecked_const_iterator<std::_Tree_val<std::_Tree_simple_types<std::pair<unsigned long const ,IBuff *> > >,std::_Iterator_base0>::operator++

; 1303 :         _Nodeptr _Erasednode = _Scary->_Extract(_Where); // node to erase

  0012d	56		 push	 esi
  0012e	8b cb		 mov	 ecx, ebx
  00130	e8 00 00 00 00	 call	 ?_Extract@?$_Tree_val@U?$_Tree_simple_types@U?$pair@$$CBKPAVIBuff@@@std@@@std@@@std@@QAEPAU?$_Tree_node@U?$pair@$$CBKPAVIBuff@@@std@@PAX@2@V?$_Tree_unchecked_const_iterator@V?$_Tree_val@U?$_Tree_simple_types@U?$pair@$$CBKPAVIBuff@@@std@@@std@@@std@@U_Iterator_base0@2@@2@@Z ; std::_Tree_val<std::_Tree_simple_types<std::pair<unsigned long const ,IBuff *> > >::_Extract
; File C:\Program Files\Microsoft Visual Studio\2022\Professional\VC\Tools\MSVC\14.44.35207\include\xmemory

; 289  :         ::operator delete(_Ptr, _Bytes);

  00135	6a 18		 push	 24			; 00000018H
  00137	50		 push	 eax
  00138	e8 00 00 00 00	 call	 ??3@YAXPAXI@Z		; operator delete
; File C:\Program Files\Microsoft Visual Studio\2022\Professional\VC\Tools\MSVC\14.44.35207\include\xtree

; 101  :         return !(*this == _Right);

  0013d	8b 75 fc	 mov	 esi, DWORD PTR __First$[ebp]
; File C:\Program Files\Microsoft Visual Studio\2022\Professional\VC\Tools\MSVC\14.44.35207\include\xmemory

; 289  :         ::operator delete(_Ptr, _Bytes);

  00140	83 c4 08	 add	 esp, 8
; File C:\Program Files\Microsoft Visual Studio\2022\Professional\VC\Tools\MSVC\14.44.35207\include\xtree

; 101  :         return !(*this == _Right);

  00143	3b f7		 cmp	 esi, edi

; 1318 :         while (_First != _Last) {

  00145	75 de		 jne	 SHORT $LL71@RemoveBuff
  00147	8b 5d f8	 mov	 ebx, DWORD PTR __Off$1$[ebp]
$LN137@RemoveBuff:
; File C:\IAGOS\server\v18\Source\Source\_Common\buff.cpp

; 787  : 	if( !nResult )

  0014a	8b 4d 08	 mov	 ecx, DWORD PTR _pBuff$[ebp]
  0014d	85 db		 test	 ebx, ebx
  0014f	5b		 pop	 ebx
  00150	75 1f		 jne	 SHORT $LN4@RemoveBuff

; 788  : 	{
; 789  : 		Error( "CBuffMgr.RemoveBuff: could not erase(type: %d, id: %d)", pBuff->GetType(), pBuff->GetId() );

  00152	0f b7 41 06	 movzx	 eax, WORD PTR [ecx+6]
  00156	50		 push	 eax
  00157	0f b7 41 04	 movzx	 eax, WORD PTR [ecx+4]
  0015b	50		 push	 eax
  0015c	68 00 00 00 00	 push	 OFFSET ??_C@_0DH@HIFEKJCC@CBuffMgr?4RemoveBuff?3?5could?5not?5@
  00161	e8 00 00 00 00	 call	 ?Error@@YAPBDPBDZZ	; Error
  00166	83 c4 0c	 add	 esp, 12			; 0000000cH
  00169	5f		 pop	 edi

; 793  : }

  0016a	5e		 pop	 esi
  0016b	8b e5		 mov	 esp, ebp
  0016d	5d		 pop	 ebp
  0016e	c2 08 00	 ret	 8
$LN4@RemoveBuff:

; 790  : 		return;
; 791  : 	}
; 792  : 	SAFE_DELETE( pBuff );

  00171	8b 01		 mov	 eax, DWORD PTR [ecx]
  00173	6a 01		 push	 1
  00175	ff 10		 call	 DWORD PTR [eax]
  00177	5f		 pop	 edi

; 793  : }

  00178	5e		 pop	 esi
  00179	8b e5		 mov	 esp, ebp
  0017b	5d		 pop	 ebp
  0017c	c2 08 00	 ret	 8
?RemoveBuff@CBuffMgr@@QAEXPAVIBuff@@H@Z ENDP		; CBuffMgr::RemoveBuff
_TEXT	ENDS
; Function compile flags: /Ogtp
; File C:\IAGOS\server\v18\Source\Source\_Common\buff.cpp
;	COMDAT ?HasBuff@CBuffMgr@@QAEHGG@Z
_TEXT	SEGMENT
_wType$ = 8						; size = 2
_wId$ = 12						; size = 2
?HasBuff@CBuffMgr@@QAEHGG@Z PROC			; CBuffMgr::HasBuff, COMDAT
; _this$ = ecx

; 711  : {

  00000	55		 push	 ebp
  00001	8b ec		 mov	 ebp, esp

; 712  : 	return GetBuff( wType, wId ) != NULL;

  00003	ff 75 0c	 push	 DWORD PTR _wId$[ebp]
  00006	ff 75 08	 push	 DWORD PTR _wType$[ebp]
  00009	e8 00 00 00 00	 call	 ?GetBuff@CBuffMgr@@QAEPAVIBuff@@GG@Z ; CBuffMgr::GetBuff
  0000e	f7 d8		 neg	 eax
  00010	1b c0		 sbb	 eax, eax
  00012	f7 d8		 neg	 eax

; 713  : }

  00014	5d		 pop	 ebp
  00015	c2 08 00	 ret	 8
?HasBuff@CBuffMgr@@QAEHGG@Z ENDP			; CBuffMgr::HasBuff
_TEXT	ENDS
; Function compile flags: /Ogtp
; File C:\IAGOS\server\v18\Source\Source\_Common\buff.cpp
; File C:\Program Files\Microsoft Visual Studio\2022\Professional\VC\Tools\MSVC\14.44.35207\include\vector
; File C:\Program Files\Microsoft Visual Studio\2022\Professional\VC\Tools\MSVC\14.44.35207\include\xtree
; File C:\IAGOS\server\v18\Source\Source\_Common\buff.cpp
; File C:\Program Files\Microsoft Visual Studio\2022\Professional\VC\Tools\MSVC\14.44.35207\include\xtree
; File C:\IAGOS\server\v18\Source\Source\_Common\buff.cpp
; File C:\IAGOS\server\v18\Source\Source\_Common\buff.h
; File C:\IAGOS\server\v18\Source\Source\_Common\buff.cpp
; File C:\Program Files\Microsoft Visual Studio\2022\Professional\VC\Tools\MSVC\14.44.35207\include\vector
; File C:\IAGOS\server\v18\Source\Source\_Common\buff.cpp
; File C:\Program Files\Microsoft Visual Studio\2022\Professional\VC\Tools\MSVC\14.44.35207\include\vector
; File C:\Program Files\Microsoft Visual Studio\2022\Professional\VC\Tools\MSVC\14.44.35207\include\xtree
; File C:\IAGOS\server\v18\Source\Source\_Common\buff.cpp
; File C:\Program Files\Microsoft Visual Studio\2022\Professional\VC\Tools\MSVC\14.44.35207\include\vector
; File C:\IAGOS\server\v18\Source\Source\_Common\buff.cpp
; File C:\Program Files\Microsoft Visual Studio\2022\Professional\VC\Tools\MSVC\14.44.35207\include\vector
; File C:\IAGOS\server\v18\Source\Source\_Common\buff.cpp
;	COMDAT ?Process@CBuffMgr@@QAEXXZ
_TEXT	SEGMENT
_vTemp$ = -32						; size = 12
$T2 = -20						; size = 4
_pBuff$1$ = -20						; size = 4
_i$3 = -16						; size = 4
__$EHRec$ = -12						; size = 12
?Process@CBuffMgr@@QAEXXZ PROC				; CBuffMgr::Process, COMDAT
; _this$ = ecx

; 842  : {

  00000	55		 push	 ebp
  00001	8b ec		 mov	 ebp, esp
  00003	6a ff		 push	 -1
  00005	68 00 00 00 00	 push	 __ehhandler$?Process@CBuffMgr@@QAEXXZ
  0000a	64 a1 00 00 00
	00		 mov	 eax, DWORD PTR fs:0
  00010	50		 push	 eax
  00011	83 ec 14	 sub	 esp, 20			; 00000014H
  00014	53		 push	 ebx
  00015	56		 push	 esi
  00016	57		 push	 edi
  00017	a1 00 00 00 00	 mov	 eax, DWORD PTR ___security_cookie
  0001c	33 c5		 xor	 eax, ebp
  0001e	50		 push	 eax
  0001f	8d 45 f4	 lea	 eax, DWORD PTR __$EHRec$[ebp]
  00022	64 a3 00 00 00
	00		 mov	 DWORD PTR fs:0, eax
  00028	8b d9		 mov	 ebx, ecx
; File C:\Program Files\Microsoft Visual Studio\2022\Professional\VC\Tools\MSVC\14.44.35207\include\vector

; 400  :     _CONSTEXPR20 _Vector_val() noexcept : _Myfirst(), _Mylast(), _Myend() {}

  0002a	33 d2		 xor	 edx, edx
  0002c	33 f6		 xor	 esi, esi
  0002e	89 55 e0	 mov	 DWORD PTR _vTemp$[ebp], edx
  00031	89 75 e4	 mov	 DWORD PTR _vTemp$[ebp+4], esi
  00034	89 55 e8	 mov	 DWORD PTR _vTemp$[ebp+8], edx
; File C:\Program Files\Microsoft Visual Studio\2022\Professional\VC\Tools\MSVC\14.44.35207\include\xtree

; 1142 :         return iterator(_Scary->_Myhead->_Left, _Scary);

  00037	8b 4b 04	 mov	 ecx, DWORD PTR [ebx+4]
; File C:\IAGOS\server\v18\Source\Source\_Common\buff.cpp

; 843  : 	vector<LONG> vTemp;

  0003a	89 75 fc	 mov	 DWORD PTR __$EHRec$[ebp+8], esi
; File C:\Program Files\Microsoft Visual Studio\2022\Professional\VC\Tools\MSVC\14.44.35207\include\xtree

; 37   :     _Tree_unchecked_const_iterator(_Nodeptr _Pnode, const _Mytree* _Plist) noexcept : _Ptr(_Pnode) {

  0003d	8b 01		 mov	 eax, DWORD PTR [ecx]
  0003f	89 45 f0	 mov	 DWORD PTR _i$3[ebp], eax

; 237  :         return !(*this == _Right);

  00042	3b c1		 cmp	 eax, ecx
; File C:\IAGOS\server\v18\Source\Source\_Common\buff.cpp

; 844  : 	for( MAPBUFF::iterator i = m_mapBuffs.begin(); i != m_mapBuffs.end(); ++i )

  00044	74 68		 je	 SHORT $LN83@Process
$LL4@Process:

; 846  : 		IBuff* pBuff	= i->second;

  00046	8b 40 14	 mov	 eax, DWORD PTR [eax+20]

; 847  : 		BOOL bExpired	= pBuff->Process( GetMover(), this->GetCurrentTime() );

  00049	8b cb		 mov	 ecx, ebx
; File C:\IAGOS\server\v18\Source\Source\_Common\buff.h

; 204  : 	CMover*	GetMover()	{	return const_cast<CMover*>( m_pMover );	}

  0004b	8b 73 0c	 mov	 esi, DWORD PTR [ebx+12]
; File C:\IAGOS\server\v18\Source\Source\_Common\buff.cpp

; 846  : 		IBuff* pBuff	= i->second;

  0004e	89 45 ec	 mov	 DWORD PTR _pBuff$1$[ebp], eax

; 847  : 		BOOL bExpired	= pBuff->Process( GetMover(), this->GetCurrentTime() );

  00051	8b 38		 mov	 edi, DWORD PTR [eax]
  00053	8b 03		 mov	 eax, DWORD PTR [ebx]
  00055	ff 50 08	 call	 DWORD PTR [eax+8]
  00058	50		 push	 eax
  00059	56		 push	 esi
  0005a	8b 75 ec	 mov	 esi, DWORD PTR _pBuff$1$[ebp]
  0005d	8b ce		 mov	 ecx, esi
  0005f	ff 57 10	 call	 DWORD PTR [edi+16]

; 848  : 		if( bExpired )

  00062	85 c0		 test	 eax, eax
  00064	74 32		 je	 SHORT $LN90@Process

; 849  : 			vTemp.push_back( MAKELONG( pBuff->GetId(), pBuff->GetType() ) );

  00066	0f b7 4e 04	 movzx	 ecx, WORD PTR [esi+4]
  0006a	0f b7 46 06	 movzx	 eax, WORD PTR [esi+6]
  0006e	c1 e1 10	 shl	 ecx, 16			; 00000010H
  00071	0b c8		 or	 ecx, eax
; File C:\Program Files\Microsoft Visual Studio\2022\Professional\VC\Tools\MSVC\14.44.35207\include\vector

; 844  :         if (_Mylast != _My_data._Myend) {

  00073	8b 45 e4	 mov	 eax, DWORD PTR _vTemp$[ebp+4]
; File C:\IAGOS\server\v18\Source\Source\_Common\buff.cpp

; 849  : 			vTemp.push_back( MAKELONG( pBuff->GetId(), pBuff->GetType() ) );

  00076	89 4d ec	 mov	 DWORD PTR $T2[ebp], ecx
; File C:\Program Files\Microsoft Visual Studio\2022\Professional\VC\Tools\MSVC\14.44.35207\include\vector

; 844  :         if (_Mylast != _My_data._Myend) {

  00079	3b 45 e8	 cmp	 eax, DWORD PTR _vTemp$[ebp+8]
  0007c	74 0d		 je	 SHORT $LN57@Process

; 860  :             _STD _Construct_in_place(*_Mylast, _STD forward<_Valty>(_Val)...);

  0007e	89 08		 mov	 DWORD PTR [eax], ecx

; 861  :         } else {
; 862  :             _ASAN_VECTOR_EXTEND_GUARD(static_cast<size_type>(_Mylast - _My_data._Myfirst) + 1);
; 863  :             _Alty_traits::construct(_Getal(), _Unfancy(_Mylast), _STD forward<_Valty>(_Val)...);
; 864  :             _ASAN_VECTOR_RELEASE_GUARD;
; 865  :         }
; 866  : 
; 867  :         _Orphan_range(_Mylast, _Mylast);
; 868  :         _Ty& _Result = *_Mylast;
; 869  :         ++_Mylast;

  00080	8b 75 e4	 mov	 esi, DWORD PTR _vTemp$[ebp+4]
  00083	83 c6 04	 add	 esi, 4
  00086	89 75 e4	 mov	 DWORD PTR _vTemp$[ebp+4], esi

; 845  :             return _Emplace_back_with_unused_capacity(_STD forward<_Valty>(_Val)...);

  00089	eb 10		 jmp	 SHORT $LN2@Process
$LN57@Process:

; 846  :         }
; 847  : 
; 848  :         return *_Emplace_reallocate(_Mylast, _STD forward<_Valty>(_Val)...);

  0008b	8d 4d ec	 lea	 ecx, DWORD PTR $T2[ebp]
  0008e	51		 push	 ecx
  0008f	50		 push	 eax
  00090	8d 4d e0	 lea	 ecx, DWORD PTR _vTemp$[ebp]
  00093	e8 00 00 00 00	 call	 ??$_Emplace_reallocate@J@?$vector@JV?$allocator@J@std@@@std@@AAEPAJQAJ$$QAJ@Z ; std::vector<long,std::allocator<long> >::_Emplace_reallocate<long>
$LN90@Process:
; File C:\Program Files\Microsoft Visual Studio\2022\Professional\VC\Tools\MSVC\14.44.35207\include\xtree

; 198  :         _Mybase::operator++();

  00098	8b 75 e4	 mov	 esi, DWORD PTR _vTemp$[ebp+4]
$LN2@Process:
  0009b	8d 4d f0	 lea	 ecx, DWORD PTR _i$3[ebp]
  0009e	e8 00 00 00 00	 call	 ??E?$_Tree_unchecked_const_iterator@V?$_Tree_val@U?$_Tree_simple_types@U?$pair@$$CBKPAVIBuff@@@std@@@std@@@std@@U_Iterator_base0@2@@std@@QAEAAV01@XZ ; std::_Tree_unchecked_const_iterator<std::_Tree_val<std::_Tree_simple_types<std::pair<unsigned long const ,IBuff *> > >,std::_Iterator_base0>::operator++

; 237  :         return !(*this == _Right);

  000a3	8b 45 f0	 mov	 eax, DWORD PTR _i$3[ebp]
  000a6	3b 43 04	 cmp	 eax, DWORD PTR [ebx+4]
; File C:\IAGOS\server\v18\Source\Source\_Common\buff.cpp

; 844  : 	for( MAPBUFF::iterator i = m_mapBuffs.begin(); i != m_mapBuffs.end(); ++i )

  000a9	75 9b		 jne	 SHORT $LL4@Process
  000ab	8b 55 e0	 mov	 edx, DWORD PTR _vTemp$[ebp]
$LN83@Process:
; File C:\Program Files\Microsoft Visual Studio\2022\Professional\VC\Tools\MSVC\14.44.35207\include\vector

; 1910 :         return _My_data._Myfirst == _My_data._Mylast;

  000ae	3b d6		 cmp	 edx, esi
; File C:\IAGOS\server\v18\Source\Source\_Common\buff.cpp

; 851  : 	while( !vTemp.empty() )

  000b0	74 1f		 je	 SHORT $LN6@Process
$LL5@Process:

; 852  : 	{
; 853  : 		LONG l	= vTemp.back();

  000b2	8b 46 fc	 mov	 eax, DWORD PTR [esi-4]

; 854  : 		RemoveBuff( HIWORD( l ), LOWORD( l ), FALSE );

  000b5	8b cb		 mov	 ecx, ebx
  000b7	6a 00		 push	 0
  000b9	50		 push	 eax
  000ba	c1 e8 10	 shr	 eax, 16			; 00000010H
  000bd	50		 push	 eax
  000be	e8 00 00 00 00	 call	 ?RemoveBuff@CBuffMgr@@QAEXGGH@Z ; CBuffMgr::RemoveBuff
; File C:\Program Files\Microsoft Visual Studio\2022\Professional\VC\Tools\MSVC\14.44.35207\include\vector

; 1759 :         --_Mylast;

  000c3	8b 75 e4	 mov	 esi, DWORD PTR _vTemp$[ebp+4]
  000c6	83 ee 04	 sub	 esi, 4
  000c9	89 75 e4	 mov	 DWORD PTR _vTemp$[ebp+4], esi
  000cc	39 75 e0	 cmp	 DWORD PTR _vTemp$[ebp], esi
; File C:\IAGOS\server\v18\Source\Source\_Common\buff.cpp

; 851  : 	while( !vTemp.empty() )

  000cf	75 e1		 jne	 SHORT $LL5@Process
$LN6@Process:

; 855  : 		vTemp.pop_back();
; 856  : 	}
; 857  : }

  000d1	8d 4d e0	 lea	 ecx, DWORD PTR _vTemp$[ebp]
  000d4	e8 00 00 00 00	 call	 ??1?$vector@JV?$allocator@J@std@@@std@@QAE@XZ ; std::vector<long,std::allocator<long> >::~vector<long,std::allocator<long> >
  000d9	8b 4d f4	 mov	 ecx, DWORD PTR __$EHRec$[ebp]
  000dc	64 89 0d 00 00
	00 00		 mov	 DWORD PTR fs:0, ecx
  000e3	59		 pop	 ecx
  000e4	5f		 pop	 edi
  000e5	5e		 pop	 esi
  000e6	5b		 pop	 ebx
  000e7	8b e5		 mov	 esp, ebp
  000e9	5d		 pop	 ebp
  000ea	c3		 ret	 0
_TEXT	ENDS
;	COMDAT text$x
text$x	SEGMENT
__unwindfunclet$?Process@CBuffMgr@@QAEXXZ$0:
  00000	8d 4d e0	 lea	 ecx, DWORD PTR _vTemp$[ebp]
  00003	e9 00 00 00 00	 jmp	 ??1?$vector@JV?$allocator@J@std@@@std@@QAE@XZ ; std::vector<long,std::allocator<long> >::~vector<long,std::allocator<long> >
  00008	cc		 int	 3
  00009	cc		 int	 3
  0000a	cc		 int	 3
  0000b	cc		 int	 3
  0000c	cc		 int	 3
__ehhandler$?Process@CBuffMgr@@QAEXXZ:
  0000d	90		 npad	 1
  0000e	90		 npad	 1
  0000f	8b 54 24 08	 mov	 edx, DWORD PTR [esp+8]
  00013	8d 42 0c	 lea	 eax, DWORD PTR [edx+12]
  00016	8b 4a dc	 mov	 ecx, DWORD PTR [edx-36]
  00019	33 c8		 xor	 ecx, eax
  0001b	e8 00 00 00 00	 call	 @__security_check_cookie@4
  00020	b8 00 00 00 00	 mov	 eax, OFFSET __ehfuncinfo$?Process@CBuffMgr@@QAEXXZ
  00025	e9 00 00 00 00	 jmp	 ___CxxFrameHandler3
text$x	ENDS
?Process@CBuffMgr@@QAEXXZ ENDP				; CBuffMgr::Process
; Function compile flags: /Ogtp
; File C:\IAGOS\server\v18\Source\Source\_Common\buff.h
; File C:\Program Files\Microsoft Visual Studio\2022\Professional\VC\Tools\MSVC\14.44.35207\include\xtree
; File C:\Program Files\Microsoft Visual Studio\2022\Professional\VC\Tools\MSVC\14.44.35207\include\utility
; File C:\IAGOS\server\v18\Source\Source\_Common\buff.h
; File C:\Program Files\Microsoft Visual Studio\2022\Professional\VC\Tools\MSVC\14.44.35207\include\xtree
; File C:\Program Files\Microsoft Visual Studio\2022\Professional\VC\Tools\MSVC\14.44.35207\include\utility
; File C:\Program Files\Microsoft Visual Studio\2022\Professional\VC\Tools\MSVC\14.44.35207\include\xtree
; File C:\Program Files\Microsoft Visual Studio\2022\Professional\VC\Tools\MSVC\14.44.35207\include\type_traits
; File C:\Program Files\Microsoft Visual Studio\2022\Professional\VC\Tools\MSVC\14.44.35207\include\xtree
; File C:\Program Files\Microsoft Visual Studio\2022\Professional\VC\Tools\MSVC\14.44.35207\include\utility
; File C:\IAGOS\server\v18\Source\Source\_Common\buff.h
; File C:\Program Files\Microsoft Visual Studio\2022\Professional\VC\Tools\MSVC\14.44.35207\include\xtree
; File C:\Program Files\Microsoft Visual Studio\2022\Professional\VC\Tools\MSVC\14.44.35207\include\xmemory
; File C:\Program Files\Microsoft Visual Studio\2022\Professional\VC\Tools\MSVC\14.44.35207\include\xtree
; File C:\Program Files\Microsoft Visual Studio\2022\Professional\VC\Tools\MSVC\14.44.35207\include\xmemory
; File C:\Program Files\Microsoft Visual Studio\2022\Professional\VC\Tools\MSVC\14.44.35207\include\xtree
; File C:\Program Files\Microsoft Visual Studio\2022\Professional\VC\Tools\MSVC\14.44.35207\include\xmemory
; File C:\Program Files\Microsoft Visual Studio\2022\Professional\VC\Tools\MSVC\14.44.35207\include\xtree
; File C:\Program Files\Microsoft Visual Studio\2022\Professional\VC\Tools\MSVC\14.44.35207\include\utility
; File C:\IAGOS\server\v18\Source\Source\_Common\buff.h
; File C:\Program Files\Microsoft Visual Studio\2022\Professional\VC\Tools\MSVC\14.44.35207\include\xtree
; File C:\IAGOS\server\v18\Source\Source\_Common\buff.h
;	COMDAT ?Add@CBuffMgr@@AAE_NPAVIBuff@@@Z
_TEXT	SEGMENT
$T3 = -44						; size = 12
__Loc$4 = -32						; size = 12
$T5 = -20						; size = 8
$T6 = -20						; size = 8
__$EHRec$ = -12						; size = 12
_pBuff$ = 8						; size = 4
?Add@CBuffMgr@@AAE_NPAVIBuff@@@Z PROC			; CBuffMgr::Add, COMDAT
; _this$ = ecx

; 215  : 	bool	Add( IBuff* pBuff )	{	return m_mapBuffs.insert( MAPBUFF::value_type( MAKELONG( pBuff->GetId(), pBuff->GetType() ), pBuff ) ).second;	}

  00000	55		 push	 ebp
  00001	8b ec		 mov	 ebp, esp
  00003	6a ff		 push	 -1
  00005	68 00 00 00 00	 push	 __ehhandler$?Add@CBuffMgr@@AAE_NPAVIBuff@@@Z
  0000a	64 a1 00 00 00
	00		 mov	 eax, DWORD PTR fs:0
  00010	50		 push	 eax
  00011	83 ec 20	 sub	 esp, 32			; 00000020H
  00014	53		 push	 ebx
  00015	56		 push	 esi
  00016	57		 push	 edi
  00017	a1 00 00 00 00	 mov	 eax, DWORD PTR ___security_cookie
  0001c	33 c5		 xor	 eax, ebp
  0001e	50		 push	 eax
  0001f	8d 45 f4	 lea	 eax, DWORD PTR __$EHRec$[ebp]
  00022	64 a3 00 00 00
	00		 mov	 DWORD PTR fs:0, eax
  00028	8b 55 08	 mov	 edx, DWORD PTR _pBuff$[ebp]
  0002b	8d 79 04	 lea	 edi, DWORD PTR [ecx+4]
; File C:\Program Files\Microsoft Visual Studio\2022\Professional\VC\Tools\MSVC\14.44.35207\include\xtree

; 1017 :             _Loc                = _Find_lower_bound(_Keyval);

  0002e	8b cf		 mov	 ecx, edi
; File C:\Program Files\Microsoft Visual Studio\2022\Professional\VC\Tools\MSVC\14.44.35207\include\utility

; 274  :         : first(_STD forward<_Other1>(_Val1)), second(_STD forward<_Other2>(_Val2)) {

  00030	89 55 f0	 mov	 DWORD PTR $T5[ebp+4], edx
; File C:\IAGOS\server\v18\Source\Source\_Common\buff.h

; 215  : 	bool	Add( IBuff* pBuff )	{	return m_mapBuffs.insert( MAPBUFF::value_type( MAKELONG( pBuff->GetId(), pBuff->GetType() ), pBuff ) ).second;	}

  00033	0f b7 5a 04	 movzx	 ebx, WORD PTR [edx+4]
  00037	0f b7 42 06	 movzx	 eax, WORD PTR [edx+6]
  0003b	c1 e3 10	 shl	 ebx, 16			; 00000010H
  0003e	0b d8		 or	 ebx, eax
; File C:\Program Files\Microsoft Visual Studio\2022\Professional\VC\Tools\MSVC\14.44.35207\include\xtree

; 1017 :             _Loc                = _Find_lower_bound(_Keyval);

  00040	8d 45 ec	 lea	 eax, DWORD PTR $T5[ebp]
  00043	50		 push	 eax
  00044	8d 45 d4	 lea	 eax, DWORD PTR $T3[ebp]
; File C:\Program Files\Microsoft Visual Studio\2022\Professional\VC\Tools\MSVC\14.44.35207\include\utility

; 274  :         : first(_STD forward<_Other1>(_Val1)), second(_STD forward<_Other2>(_Val2)) {

  00047	89 5d ec	 mov	 DWORD PTR $T5[ebp], ebx
; File C:\Program Files\Microsoft Visual Studio\2022\Professional\VC\Tools\MSVC\14.44.35207\include\xtree

; 1017 :             _Loc                = _Find_lower_bound(_Keyval);

  0004a	50		 push	 eax
