; Listing generated by Microsoft (R) Optimizing Compiler Version 19.44.35225.0 

	TITLE	C:\IAGOS\server\v18\Source\Output\WorldServer\Release\buff.obj
	.686P
	.XMM
	include listing.inc
	.model	flat

INCLUDELIB LIBCMT
INCLUDELIB OLDNAMES

CONST	SEGMENT
?piecewise_construct@std@@3Upiecewise_construct_t@1@B	ORG $+1 ; std::piecewise_construct
CONST	ENDS
PUBLIC	?__empty_global_delete@@YAXPAX@Z		; __empty_global_delete
PUBLIC	?__empty_global_delete@@YAXPAXI@Z		; __empty_global_delete
PUBLIC	?AtlThrowImpl@ATL@@YGXJ@Z			; ATL::AtlThrowImpl
PUBLIC	??1?$CSimpleStringT@D$0A@@ATL@@QAE@XZ		; ATL::CSimpleStringT<char,0>::~CSimpleStringT<char,0>
PUBLIC	?SetString@?$CSimpleStringT@D$0A@@ATL@@QAEXPBDH@Z ; ATL::CSimpleStringT<char,0>::SetString
PUBLIC	?ThrowMemoryException@?$CSimpleStringT@D$0A@@ATL@@KAXXZ ; ATL::CSimpleStringT<char,0>::ThrowMemoryException
PUBLIC	?Fork@?$CSimpleStringT@D$0A@@ATL@@AAEXH@Z	; ATL::CSimpleStringT<char,0>::Fork
PUBLIC	?PrepareWrite2@?$CSimpleStringT@D$0A@@ATL@@AAEXH@Z ; ATL::CSimpleStringT<char,0>::PrepareWrite2
PUBLIC	?Reallocate@?$CSimpleStringT@D$0A@@ATL@@AAEXH@Z	; ATL::CSimpleStringT<char,0>::Reallocate
PUBLIC	??1?$CStringT@DV?$StrTraitMFC@DV?$ChTraitsCRT@D@ATL@@@@@ATL@@QAE@XZ ; ATL::CStringT<char,StrTraitMFC<char,ATL::ChTraitsCRT<char> > >::~CStringT<char,StrTraitMFC<char,ATL::ChTraitsCRT<char> > >
PUBLIC	?Replace@?$CStringT@DV?$StrTraitMFC@DV?$ChTraitsCRT@D@ATL@@@@@ATL@@QAEHDD@Z ; ATL::CStringT<char,StrTraitMFC<char,ATL::ChTraitsCRT<char> > >::Replace
PUBLIC	?LoadStringA@?$CStringT@DV?$StrTraitMFC@DV?$ChTraitsCRT@D@ATL@@@@@ATL@@QAEHI@Z ; ATL::CStringT<char,StrTraitMFC<char,ATL::ChTraitsCRT<char> > >::LoadStringA
PUBLIC	??0exception@std@@QAE@ABV01@@Z			; std::exception::exception
PUBLIC	??1exception@std@@UAE@XZ			; std::exception::~exception
PUBLIC	?what@exception@std@@UBEPBDXZ			; std::exception::what
PUBLIC	??_Gexception@std@@UAEPAXI@Z			; std::exception::`scalar deleting destructor'
PUBLIC	??0bad_alloc@std@@QAE@ABV01@@Z			; std::bad_alloc::bad_alloc
PUBLIC	??_Gbad_alloc@std@@UAEPAXI@Z			; std::bad_alloc::`scalar deleting destructor'
PUBLIC	??0bad_array_new_length@std@@QAE@XZ		; std::bad_array_new_length::bad_array_new_length
PUBLIC	??1bad_array_new_length@std@@UAE@XZ		; std::bad_array_new_length::~bad_array_new_length
PUBLIC	??0bad_array_new_length@std@@QAE@ABV01@@Z	; std::bad_array_new_length::bad_array_new_length
PUBLIC	??_Gbad_array_new_length@std@@UAEPAXI@Z		; std::bad_array_new_length::`scalar deleting destructor'
PUBLIC	?_Throw_bad_array_new_length@std@@YAXXZ		; std::_Throw_bad_array_new_length
PUBLIC	?_Throw_tree_length_error@std@@YAXXZ		; std::_Throw_tree_length_error
PUBLIC	??1?$vector@JV?$allocator@J@std@@@std@@QAE@XZ	; std::vector<long,std::allocator<long> >::~vector<long,std::allocator<long> >
PUBLIC	?_Xlength@?$vector@JV?$allocator@J@std@@@std@@CAXXZ ; std::vector<long,std::allocator<long> >::_Xlength
PUBLIC	??0IBuff@@QAE@XZ				; IBuff::IBuff
PUBLIC	??1IBuff@@UAE@XZ				; IBuff::~IBuff
PUBLIC	?SetTotal@IBuff@@QAEXK@Z			; IBuff::SetTotal
PUBLIC	?Serialize@IBuff@@UAEXAAVCAr@@PAVCMover@@@Z	; IBuff::Serialize
PUBLIC	?SerializeLevel@IBuff@@UAEXAAVCAr@@@Z		; IBuff::SerializeLevel
PUBLIC	??4IBuff@@UAEAAV0@ABV0@@Z			; IBuff::operator=
PUBLIC	?GetRemain@IBuff@@QAEKXZ			; IBuff::GetRemain
PUBLIC	?Process@IBuff@@UAEHPAVCMover@@K@Z		; IBuff::Process
PUBLIC	?IsIk1@IBuff@@UAEHK@Z				; IBuff::IsIk1
PUBLIC	?IsIk3@IBuff@@UAEHK@Z				; IBuff::IsIk3
PUBLIC	?IsAddable@IBuff@@UAEHPAVCMover@@@Z		; IBuff::IsAddable
PUBLIC	?AddTotal@IBuff@@UAEXK@Z			; IBuff::AddTotal
PUBLIC	?GetPropA@IBuff@@UAEPAUItemProp@@XZ		; IBuff::GetPropA
PUBLIC	?Release@IBuff@@UAEXPAVCBuffMgr@@@Z		; IBuff::Release
PUBLIC	?IsRemovable@IBuff@@UAEHPAVCMover@@@Z		; IBuff::IsRemovable
PUBLIC	?GetDisguise@IBuff@@UAEKXZ			; IBuff::GetDisguise
PUBLIC	?IsCommon@IBuff@@UAEHXZ				; IBuff::IsCommon
PUBLIC	?IsGood@IBuff@@UAEHPAVCMover@@@Z		; IBuff::IsGood
PUBLIC	?HasDstParam@IBuff@@UAEHPAVCMover@@K@Z		; IBuff::HasDstParam
PUBLIC	?HasChrState@IBuff@@UAEHPAVCMover@@K@Z		; IBuff::HasChrState
PUBLIC	?IsDebuf@IBuff@@UAEHPAVCMover@@@Z		; IBuff::IsDebuf
PUBLIC	?IsAttacker@IBuff@@UAEHPAVCMover@@K@Z		; IBuff::IsAttacker
PUBLIC	?IsInvalid@IBuff@@MAEHPAVCMover@@@Z		; IBuff::IsInvalid
PUBLIC	?Apply@IBuff@@MAEXPAVCMover@@@Z			; IBuff::Apply
PUBLIC	?Timeover@IBuff@@MAEHPAVCMover@@K@Z		; IBuff::Timeover
PUBLIC	?Expire@IBuff@@AAEHPAVCMover@@K@Z		; IBuff::Expire
PUBLIC	?OnExpire@IBuff@@UAEXPAVCMover@@@Z		; IBuff::OnExpire
PUBLIC	??_GIBuff@@UAEPAXI@Z				; IBuff::`scalar deleting destructor'
PUBLIC	??1IBuffItemBase@@UAE@XZ			; IBuffItemBase::~IBuffItemBase
PUBLIC	?GetPropA@IBuffItemBase@@UAEPAUItemProp@@XZ	; IBuffItemBase::GetPropA
PUBLIC	?Release@IBuffItemBase@@UAEXPAVCBuffMgr@@@Z	; IBuffItemBase::Release
PUBLIC	?IsCommon@IBuffItemBase@@UAEHXZ			; IBuffItemBase::IsCommon
PUBLIC	?HasChrState@IBuffItemBase@@UAEHPAVCMover@@K@Z	; IBuffItemBase::HasChrState
PUBLIC	?IsDebuf@IBuffItemBase@@UAEHPAVCMover@@@Z	; IBuffItemBase::IsDebuf
PUBLIC	??_GIBuffItemBase@@UAEPAXI@Z			; IBuffItemBase::`scalar deleting destructor'
PUBLIC	??1CBuffItem@@UAE@XZ				; CBuffItem::~CBuffItem
PUBLIC	?AddTotal@CBuffItem@@UAEXK@Z			; CBuffItem::AddTotal
PUBLIC	?IsRemovable@CBuffItem@@UAEHPAVCMover@@@Z	; CBuffItem::IsRemovable
PUBLIC	?GetDisguise@CBuffItem@@UAEKXZ			; CBuffItem::GetDisguise
PUBLIC	?IsIk1@CBuffItem@@UAEHK@Z			; CBuffItem::IsIk1
PUBLIC	?IsIk3@CBuffItem@@UAEHK@Z			; CBuffItem::IsIk3
PUBLIC	?Apply@CBuffItem@@MAEXPAVCMover@@@Z		; CBuffItem::Apply
PUBLIC	?OnExpire@CBuffItem@@UAEXPAVCMover@@@Z		; CBuffItem::OnExpire
PUBLIC	??_GCBuffItem@@UAEPAXI@Z			; CBuffItem::`scalar deleting destructor'
PUBLIC	??1CBuffSkill@@UAE@XZ				; CBuffSkill::~CBuffSkill
PUBLIC	?GetPropA@CBuffSkill@@UAEPAUItemProp@@XZ	; CBuffSkill::GetPropA
PUBLIC	?IsAddable@CBuffSkill@@UAEHPAVCMover@@@Z	; CBuffSkill::IsAddable
PUBLIC	?Release@CBuffSkill@@UAEXPAVCBuffMgr@@@Z	; CBuffSkill::Release
PUBLIC	?IsRemovable@CBuffSkill@@UAEHPAVCMover@@@Z	; CBuffSkill::IsRemovable
PUBLIC	?IsGood@CBuffSkill@@UAEHPAVCMover@@@Z		; CBuffSkill::IsGood
PUBLIC	?HasDstParam@CBuffSkill@@UAEHPAVCMover@@K@Z	; CBuffSkill::HasDstParam
PUBLIC	?HasChrState@CBuffSkill@@UAEHPAVCMover@@K@Z	; CBuffSkill::HasChrState
PUBLIC	?IsDebuf@CBuffSkill@@UAEHPAVCMover@@@Z		; CBuffSkill::IsDebuf
PUBLIC	?IsAttacker@CBuffSkill@@UAEHPAVCMover@@K@Z	; CBuffSkill::IsAttacker
PUBLIC	?IsInvalid@CBuffSkill@@MAEHPAVCMover@@@Z	; CBuffSkill::IsInvalid
PUBLIC	?Apply@CBuffSkill@@MAEXPAVCMover@@@Z		; CBuffSkill::Apply
PUBLIC	?OnExpire@CBuffSkill@@UAEXPAVCMover@@@Z		; CBuffSkill::OnExpire
PUBLIC	??_GCBuffSkill@@UAEPAXI@Z			; CBuffSkill::`scalar deleting destructor'
PUBLIC	??1CBuffPet@@UAE@XZ				; CBuffPet::~CBuffPet
PUBLIC	?IsRemovable@CBuffPet@@UAEHPAVCMover@@@Z	; CBuffPet::IsRemovable
PUBLIC	?IsCommon@CBuffPet@@UAEHXZ			; CBuffPet::IsCommon
PUBLIC	?Apply@CBuffPet@@MAEXPAVCMover@@@Z		; CBuffPet::Apply
PUBLIC	?Release@CBuffPet@@MAEXPAVCBuffMgr@@@Z		; CBuffPet::Release
PUBLIC	??_GCBuffPet@@UAEPAXI@Z				; CBuffPet::`scalar deleting destructor'
PUBLIC	??1CBuffItem2@@UAE@XZ				; CBuffItem2::~CBuffItem2
PUBLIC	?SerializeLevel@CBuffItem2@@UAEXAAVCAr@@@Z	; CBuffItem2::SerializeLevel
PUBLIC	?Timeover@CBuffItem2@@UAEHPAVCMover@@K@Z	; CBuffItem2::Timeover
PUBLIC	??_GCBuffItem2@@UAEPAXI@Z			; CBuffItem2::`scalar deleting destructor'
PUBLIC	??1CBuffEquip@@UAE@XZ				; CBuffEquip::~CBuffEquip
PUBLIC	?IsRemovable@CBuffEquip@@UAEHPAVCMover@@@Z	; CBuffEquip::IsRemovable
PUBLIC	?IsCommon@CBuffEquip@@UAEHXZ			; CBuffEquip::IsCommon
PUBLIC	??_GCBuffEquip@@UAEPAXI@Z			; CBuffEquip::`scalar deleting destructor'
PUBLIC	??0CBuffMgr@@QAE@PAVCMover@@@Z			; CBuffMgr::CBuffMgr
PUBLIC	??1CBuffMgr@@UAE@XZ				; CBuffMgr::~CBuffMgr
PUBLIC	?Clear@CBuffMgr@@QAEXXZ				; CBuffMgr::Clear
PUBLIC	?Serialize@CBuffMgr@@QAEXAAVCAr@@@Z		; CBuffMgr::Serialize
PUBLIC	??4CBuffMgr@@QAEAAV0@AAV0@@Z			; CBuffMgr::operator=
PUBLIC	?CreateBuff@CBuffMgr@@UAEPAVIBuff@@G@Z		; CBuffMgr::CreateBuff
PUBLIC	?GetTickCount@CBuffMgr@@MAEKXZ			; CBuffMgr::GetTickCount
PUBLIC	?Add@CBuffMgr@@AAE_NPAVIBuff@@@Z		; CBuffMgr::Add
PUBLIC	?Process@CBuffMgr@@QAEXXZ			; CBuffMgr::Process
PUBLIC	?HasBuff@CBuffMgr@@QAEHGG@Z			; CBuffMgr::HasBuff
PUBLIC	?RemoveBuff@CBuffMgr@@QAEXPAVIBuff@@H@Z		; CBuffMgr::RemoveBuff
PUBLIC	?RemoveBuff@CBuffMgr@@QAEXGGH@Z			; CBuffMgr::RemoveBuff
PUBLIC	?HasBuffByIk3@CBuffMgr@@QAEHK@Z			; CBuffMgr::HasBuffByIk3
PUBLIC	?RemoveBuffPet@CBuffMgr@@QAEXXZ			; CBuffMgr::RemoveBuffPet
PUBLIC	?GetBuffPet@CBuffMgr@@QAEPAVIBuff@@XZ		; CBuffMgr::GetBuffPet
PUBLIC	?GetBuff@CBuffMgr@@QAEPAVIBuff@@GG@Z		; CBuffMgr::GetBuff
PUBLIC	?GetBuffByIk3@CBuffMgr@@QAEPAVIBuff@@K@Z	; CBuffMgr::GetBuffByIk3
PUBLIC	?RemoveBuffs@CBuffMgr@@QAEXKK@Z			; CBuffMgr::RemoveBuffs
PUBLIC	?GetDisguise@CBuffMgr@@QAEKXZ			; CBuffMgr::GetDisguise
PUBLIC	?AddBuff@CBuffMgr@@QAEHGGKKK@Z			; CBuffMgr::AddBuff
PUBLIC	?AddBuff@CBuffMgr@@IAEHPAVIBuff@@@Z		; CBuffMgr::AddBuff
PUBLIC	?Overwrite@CBuffMgr@@AAEHPAVIBuff@@@Z		; CBuffMgr::Overwrite
PUBLIC	?PrepareBS@CBuffMgr@@AAEXPAVIBuff@@@Z		; CBuffMgr::PrepareBS
PUBLIC	?IsBSFull@CBuffMgr@@AAEHXZ			; CBuffMgr::IsBSFull
PUBLIC	?GetFirstBS@CBuffMgr@@AAEPAVIBuff@@XZ		; CBuffMgr::GetFirstBS
PUBLIC	?RemoveBuffPet@CBuffMgr@@QAEXPAVIBuff@@@Z	; CBuffMgr::RemoveBuffPet
PUBLIC	??1?$_Tree@V?$_Tmap_traits@KPAVIBuff@@U?$less@K@std@@V?$allocator@U?$pair@$$CBKPAVIBuff@@@std@@@3@$0A@@std@@@std@@QAE@XZ ; std::_Tree<std::_Tmap_traits<unsigned long,IBuff *,std::less<unsigned long>,std::allocator<std::pair<unsigned long const ,IBuff *> >,0> >::~_Tree<std::_Tmap_traits<unsigned long,IBuff *,std::less<unsigned long>,std::allocator<std::pair<unsigned long const ,IBuff *> >,0> >
PUBLIC	?clear@?$_Tree@V?$_Tmap_traits@KPAVIBuff@@U?$less@K@std@@V?$allocator@U?$pair@$$CBKPAVIBuff@@@std@@@3@$0A@@std@@@std@@QAEXXZ ; std::_Tree<std::_Tmap_traits<unsigned long,IBuff *,std::less<unsigned long>,std::allocator<std::pair<unsigned long const ,IBuff *> >,0> >::clear
PUBLIC	?_Lrotate@?$_Tree_val@U?$_Tree_simple_types@U?$pair@$$CBKPAVIBuff@@@std@@@std@@@std@@QAEXPAU?$_Tree_node@U?$pair@$$CBKPAVIBuff@@@std@@PAX@2@@Z ; std::_Tree_val<std::_Tree_simple_types<std::pair<unsigned long const ,IBuff *> > >::_Lrotate
PUBLIC	?_Rrotate@?$_Tree_val@U?$_Tree_simple_types@U?$pair@$$CBKPAVIBuff@@@std@@@std@@@std@@QAEXPAU?$_Tree_node@U?$pair@$$CBKPAVIBuff@@@std@@PAX@2@@Z ; std::_Tree_val<std::_Tree_simple_types<std::pair<unsigned long const ,IBuff *> > >::_Rrotate
PUBLIC	?_Extract@?$_Tree_val@U?$_Tree_simple_types@U?$pair@$$CBKPAVIBuff@@@std@@@std@@@std@@QAEPAU?$_Tree_node@U?$pair@$$CBKPAVIBuff@@@std@@PAX@2@V?$_Tree_unchecked_const_iterator@V?$_Tree_val@U?$_Tree_simple_types@U?$pair@$$CBKPAVIBuff@@@std@@@std@@@std@@U_Iterator_base0@2@@2@@Z ; std::_Tree_val<std::_Tree_simple_types<std::pair<unsigned long const ,IBuff *> > >::_Extract
PUBLIC	?_Insert_node@?$_Tree_val@U?$_Tree_simple_types@U?$pair@$$CBKPAVIBuff@@@std@@@std@@@std@@QAEPAU?$_Tree_node@U?$pair@$$CBKPAVIBuff@@@std@@PAX@2@U?$_Tree_id@PAU?$_Tree_node@U?$pair@$$CBKPAVIBuff@@@std@@PAX@std@@@2@QAU32@@Z ; std::_Tree_val<std::_Tree_simple_types<std::pair<unsigned long const ,IBuff *> > >::_Insert_node
PUBLIC	?GetRemoveBuffSize@CBuffMgr@@AAEIXZ		; CBuffMgr::GetRemoveBuffSize
PUBLIC	??_GCBuffMgr@@UAEPAXI@Z				; CBuffMgr::`scalar deleting destructor'
PUBLIC	??E?$_Tree_unchecked_const_iterator@V?$_Tree_val@U?$_Tree_simple_types@U?$pair@$$CBKPAVIBuff@@@std@@@std@@@std@@U_Iterator_base0@2@@std@@QAEAAV01@XZ ; std::_Tree_unchecked_const_iterator<std::_Tree_val<std::_Tree_simple_types<std::pair<unsigned long const ,IBuff *> > >,std::_Iterator_base0>::operator++
PUBLIC	??$_Find_lower_bound@K@?$_Tree@V?$_Tmap_traits@KPAVIBuff@@U?$less@K@std@@V?$allocator@U?$pair@$$CBKPAVIBuff@@@std@@@3@$0A@@std@@@std@@IBE?AU?$_Tree_find_result@PAU?$_Tree_node@U?$pair@$$CBKPAVIBuff@@@std@@PAX@std@@@1@ABK@Z ; std::_Tree<std::_Tmap_traits<unsigned long,IBuff *,std::less<unsigned long>,std::allocator<std::pair<unsigned long const ,IBuff *> >,0> >::_Find_lower_bound<unsigned long>
PUBLIC	??1?$_Alloc_construct_ptr@V?$allocator@U?$_Tree_node@U?$pair@$$CBKPAVIBuff@@@std@@PAX@std@@@std@@@std@@QAE@XZ ; std::_Alloc_construct_ptr<std::allocator<std::_Tree_node<std::pair<unsigned long const ,IBuff *>,void *> > >::~_Alloc_construct_ptr<std::allocator<std::_Tree_node<std::pair<unsigned long const ,IBuff *>,void *> > >
PUBLIC	??$_Copy_memmove@PAJPAJ@std@@YAPAJPAJ00@Z	; std::_Copy_memmove<long *,long *>
PUBLIC	??$_Copy_memmove_tail@PAJ@std@@YAPAJQBDQAJII@Z	; std::_Copy_memmove_tail<long *>
PUBLIC	??$_Allocate_manually_vector_aligned@U_Default_allocate_traits@std@@@std@@YAPAXI@Z ; std::_Allocate_manually_vector_aligned<std::_Default_allocate_traits>
PUBLIC	??$?6G@CAr@@QAEAAV0@ABG@Z			; CAr::operator<<<unsigned short>
PUBLIC	??$?5G@CAr@@QAEAAV0@AAG@Z			; CAr::operator>><unsigned short>
PUBLIC	??$?6I@CAr@@QAEAAV0@ABI@Z			; CAr::operator<<<unsigned int>
PUBLIC	??$?6K@CAr@@QAEAAV0@ABK@Z			; CAr::operator<<<unsigned long>
PUBLIC	??$?6J@CAr@@QAEAAV0@ABJ@Z			; CAr::operator<<<long>
PUBLIC	??$?5K@CAr@@QAEAAV0@AAK@Z			; CAr::operator>><unsigned long>
PUBLIC	??$?5J@CAr@@QAEAAV0@AAJ@Z			; CAr::operator>><long>
PUBLIC	??$?5I@CAr@@QAEAAV0@AAI@Z			; CAr::operator>><unsigned int>
PUBLIC	??$_Erase_tree@V?$allocator@U?$_Tree_node@U?$pair@$$CBKPAVIBuff@@@std@@PAX@std@@@std@@@?$_Tree_val@U?$_Tree_simple_types@U?$pair@$$CBKPAVIBuff@@@std@@@std@@@std@@QAEXAAV?$allocator@U?$_Tree_node@U?$pair@$$CBKPAVIBuff@@@std@@PAX@std@@@1@PAU?$_Tree_node@U?$pair@$$CBKPAVIBuff@@@std@@PAX@1@@Z ; std::_Tree_val<std::_Tree_simple_types<std::pair<unsigned long const ,IBuff *> > >::_Erase_tree<std::allocator<std::_Tree_node<std::pair<unsigned long const ,IBuff *>,void *> > >
PUBLIC	??$_Emplace_reallocate@J@?$vector@JV?$allocator@J@std@@@std@@AAEPAJQAJ$$QAJ@Z ; std::vector<long,std::allocator<long> >::_Emplace_reallocate<long>
PUBLIC	??_C@_00CNPNBAHC@@				; `string'
PUBLIC	??_7exception@std@@6B@				; std::exception::`vftable'
PUBLIC	??_C@_0BC@EOODALEL@Unknown?5exception@		; `string'
PUBLIC	??_7bad_alloc@std@@6B@				; std::bad_alloc::`vftable'
PUBLIC	??_7bad_array_new_length@std@@6B@		; std::bad_array_new_length::`vftable'
PUBLIC	??_C@_0BF@KINCDENJ@bad?5array?5new?5length@	; `string'
PUBLIC	??_R0?AVexception@std@@@8			; std::exception `RTTI Type Descriptor'
PUBLIC	__CT??_R0?AVexception@std@@@8??0exception@std@@QAE@ABV01@@Z12
PUBLIC	__TI3?AVbad_array_new_length@std@@
PUBLIC	__CTA3?AVbad_array_new_length@std@@
PUBLIC	??_R0?AVbad_array_new_length@std@@@8		; std::bad_array_new_length `RTTI Type Descriptor'
PUBLIC	__CT??_R0?AVbad_array_new_length@std@@@8??0bad_array_new_length@std@@QAE@ABV01@@Z12
PUBLIC	??_R0?AVbad_alloc@std@@@8			; std::bad_alloc `RTTI Type Descriptor'
PUBLIC	__CT??_R0?AVbad_alloc@std@@@8??0bad_alloc@std@@QAE@ABV01@@Z12
PUBLIC	??_C@_0BB@GCADKGJO@map?1set?5too?5long@		; `string'
PUBLIC	??_C@_0BM@HMFGHCP@?$CFs?5min?3?$CFd?0?5max?3?$CFd?0?5index?3?$CFd@ ; `string'
PUBLIC	??_C@_0BI@BEIFNGEL@GetItemProp?5range_error@	; `string'
PUBLIC	??_C@_0BJ@GPNGCFMK@GetSkillProp?5range_error@	; `string'
PUBLIC	??_C@_0BJ@GKPOBPPI@GetMoverProp?5range_error@	; `string'
PUBLIC	??_7IBuff@@6B@					; IBuff::`vftable'
PUBLIC	??_7IBuffItemBase@@6B@				; IBuffItemBase::`vftable'
PUBLIC	??_7CBuffItem@@6B@				; CBuffItem::`vftable'
PUBLIC	??_7CBuffSkill@@6B@				; CBuffSkill::`vftable'
PUBLIC	??_7CBuffPet@@6B@				; CBuffPet::`vftable'
PUBLIC	??_7CBuffItem2@@6B@				; CBuffItem2::`vftable'
PUBLIC	??_7CBuffEquip@@6B@				; CBuffEquip::`vftable'
PUBLIC	??_7CBuffMgr@@6B@				; CBuffMgr::`vftable'
PUBLIC	??_C@_0BA@FOIKENOD@vector?5too?5long@		; `string'
PUBLIC	??_R4exception@std@@6B@				; std::exception::`RTTI Complete Object Locator'
PUBLIC	??_R3exception@std@@8				; std::exception::`RTTI Class Hierarchy Descriptor'
PUBLIC	??_R2exception@std@@8				; std::exception::`RTTI Base Class Array'
PUBLIC	??_R1A@?0A@EA@exception@std@@8			; std::exception::`RTTI Base Class Descriptor at (0,-1,0,64)'
PUBLIC	??_R4bad_array_new_length@std@@6B@		; std::bad_array_new_length::`RTTI Complete Object Locator'
PUBLIC	??_R3bad_array_new_length@std@@8		; std::bad_array_new_length::`RTTI Class Hierarchy Descriptor'
PUBLIC	??_R2bad_array_new_length@std@@8		; std::bad_array_new_length::`RTTI Base Class Array'
PUBLIC	??_R1A@?0A@EA@bad_array_new_length@std@@8	; std::bad_array_new_length::`RTTI Base Class Descriptor at (0,-1,0,64)'
PUBLIC	??_R1A@?0A@EA@bad_alloc@std@@8			; std::bad_alloc::`RTTI Base Class Descriptor at (0,-1,0,64)'
PUBLIC	??_R3bad_alloc@std@@8				; std::bad_alloc::`RTTI Class Hierarchy Descriptor'
PUBLIC	??_R2bad_alloc@std@@8				; std::bad_alloc::`RTTI Base Class Array'
PUBLIC	??_R4bad_alloc@std@@6B@				; std::bad_alloc::`RTTI Complete Object Locator'
PUBLIC	??_R4IBuff@@6B@					; IBuff::`RTTI Complete Object Locator'
PUBLIC	??_R0?AVIBuff@@@8				; IBuff `RTTI Type Descriptor'
PUBLIC	??_R3IBuff@@8					; IBuff::`RTTI Class Hierarchy Descriptor'
PUBLIC	??_R2IBuff@@8					; IBuff::`RTTI Base Class Array'
PUBLIC	??_R1A@?0A@EA@IBuff@@8				; IBuff::`RTTI Base Class Descriptor at (0,-1,0,64)'
PUBLIC	??_R4IBuffItemBase@@6B@				; IBuffItemBase::`RTTI Complete Object Locator'
PUBLIC	??_R0?AVIBuffItemBase@@@8			; IBuffItemBase `RTTI Type Descriptor'
PUBLIC	??_R3IBuffItemBase@@8				; IBuffItemBase::`RTTI Class Hierarchy Descriptor'
PUBLIC	??_R2IBuffItemBase@@8				; IBuffItemBase::`RTTI Base Class Array'
PUBLIC	??_R1A@?0A@EA@IBuffItemBase@@8			; IBuffItemBase::`RTTI Base Class Descriptor at (0,-1,0,64)'
PUBLIC	??_R4CBuffItem@@6B@				; CBuffItem::`RTTI Complete Object Locator'
PUBLIC	??_R0?AVCBuffItem@@@8				; CBuffItem `RTTI Type Descriptor'
PUBLIC	??_R3CBuffItem@@8				; CBuffItem::`RTTI Class Hierarchy Descriptor'
PUBLIC	??_R2CBuffItem@@8				; CBuffItem::`RTTI Base Class Array'
PUBLIC	??_R1A@?0A@EA@CBuffItem@@8			; CBuffItem::`RTTI Base Class Descriptor at (0,-1,0,64)'
PUBLIC	??_R4CBuffSkill@@6B@				; CBuffSkill::`RTTI Complete Object Locator'
PUBLIC	??_R0?AVCBuffSkill@@@8				; CBuffSkill `RTTI Type Descriptor'
PUBLIC	??_R3CBuffSkill@@8				; CBuffSkill::`RTTI Class Hierarchy Descriptor'
PUBLIC	??_R2CBuffSkill@@8				; CBuffSkill::`RTTI Base Class Array'
PUBLIC	??_R1A@?0A@EA@CBuffSkill@@8			; CBuffSkill::`RTTI Base Class Descriptor at (0,-1,0,64)'
PUBLIC	??_R4CBuffPet@@6B@				; CBuffPet::`RTTI Complete Object Locator'
PUBLIC	??_R0?AVCBuffPet@@@8				; CBuffPet `RTTI Type Descriptor'
PUBLIC	??_R3CBuffPet@@8				; CBuffPet::`RTTI Class Hierarchy Descriptor'
PUBLIC	??_R2CBuffPet@@8				; CBuffPet::`RTTI Base Class Array'
PUBLIC	??_R1A@?0A@EA@CBuffPet@@8			; CBuffPet::`RTTI Base Class Descriptor at (0,-1,0,64)'
PUBLIC	??_R4CBuffItem2@@6B@				; CBuffItem2::`RTTI Complete Object Locator'
PUBLIC	??_R0?AVCBuffItem2@@@8				; CBuffItem2 `RTTI Type Descriptor'
PUBLIC	??_R3CBuffItem2@@8				; CBuffItem2::`RTTI Class Hierarchy Descriptor'
PUBLIC	??_R2CBuffItem2@@8				; CBuffItem2::`RTTI Base Class Array'
PUBLIC	??_R1A@?0A@EA@CBuffItem2@@8			; CBuffItem2::`RTTI Base Class Descriptor at (0,-1,0,64)'
PUBLIC	??_R4CBuffEquip@@6B@				; CBuffEquip::`RTTI Complete Object Locator'
PUBLIC	??_R0?AVCBuffEquip@@@8				; CBuffEquip `RTTI Type Descriptor'
PUBLIC	??_R3CBuffEquip@@8				; CBuffEquip::`RTTI Class Hierarchy Descriptor'
PUBLIC	??_R2CBuffEquip@@8				; CBuffEquip::`RTTI Base Class Array'
PUBLIC	??_R1A@?0A@EA@CBuffEquip@@8			; CBuffEquip::`RTTI Base Class Descriptor at (0,-1,0,64)'
PUBLIC	??_C@_01KMDKNFGN@?1@				; `string'
PUBLIC	??_C@_0L@LGANLGGI@BuffToGift@			; `string'
PUBLIC	??_C@_01JEJKBAGA@g@				; `string'
PUBLIC	??_C@_0BA@JAHGEPOA@BuffToGift_Post@		; `string'
PUBLIC	??_C@_04INBMAKPJ@?1dis@				; `string'
PUBLIC	??_C@_01FDFGLJHB@2@				; `string'
PUBLIC	??_C@_0BB@CAGKBMEO@CBuffSkill?4Apply@		; `string'
PUBLIC	??_C@_0BH@LADPBEID@CBuffSkill?4IsRemovable@	; `string'
PUBLIC	??_C@_0BC@DMLBIAFL@CBuffSkill?4IsGood@		; `string'
PUBLIC	??_C@_0BH@DNHMJEBK@CBuffSkill?4HasChrState@	; `string'
PUBLIC	??_C@_0BH@KFBAJICK@CBuffSkill?4HasDstParam@	; `string'
PUBLIC	??_C@_0BD@OMIIIOEI@CBuffSkill?4IsDebuf@		; `string'
PUBLIC	??_C@_0BG@CJPHBCAN@CBuffSkill?4IsAttacker@	; `string'
PUBLIC	??_C@_0DH@HIFEKJCC@CBuffMgr?4RemoveBuff?3?5could?5not?5@ ; `string'
PUBLIC	??_R4CBuffMgr@@6B@				; CBuffMgr::`RTTI Complete Object Locator'
PUBLIC	??_R0?AVCBuffMgr@@@8				; CBuffMgr `RTTI Type Descriptor'
PUBLIC	??_R3CBuffMgr@@8				; CBuffMgr::`RTTI Class Hierarchy Descriptor'
PUBLIC	??_R2CBuffMgr@@8				; CBuffMgr::`RTTI Base Class Array'
PUBLIC	??_R1A@?0A@EA@CBuffMgr@@8			; CBuffMgr::`RTTI Base Class Descriptor at (0,-1,0,64)'
EXTRN	??2@YAPAXI@Z:PROC				; operator new
EXTRN	??3@YAXPAXI@Z:PROC				; operator delete
EXTRN	__invalid_parameter_noinfo:PROC
EXTRN	__invoke_watson:PROC
EXTRN	__errno:PROC
EXTRN	_strstr:PROC
EXTRN	_strncpy:PROC
EXTRN	__imp__LoadResource@8:PROC
EXTRN	__imp__LockResource@4:PROC
EXTRN	__imp__SizeofResource@8:PROC
EXTRN	__imp__FindResourceW@12:PROC
EXTRN	__imp__WideCharToMultiByte@32:PROC
EXTRN	__mbsinc:PROC
EXTRN	__mbsstr:PROC
EXTRN	_atoi:PROC
EXTRN	?AfxThrowMemoryException@@YGXXZ:PROC		; AfxThrowMemoryException
EXTRN	?AfxThrowOleException@@YGXJ@Z:PROC		; AfxThrowOleException
EXTRN	?AfxFindStringResourceHandle@@YGPAUHINSTANCE__@@I@Z:PROC ; AfxFindStringResourceHandle
EXTRN	?AfxGetStringManager@@YGPAUIAtlStringMgr@ATL@@XZ:PROC ; AfxGetStringManager
EXTRN	___std_exception_copy:PROC
EXTRN	___std_exception_destroy:PROC
EXTRN	??_Eexception@std@@UAEPAXI@Z:PROC		; std::exception::`vector deleting destructor'
EXTRN	??_Ebad_alloc@std@@UAEPAXI@Z:PROC		; std::bad_alloc::`vector deleting destructor'
EXTRN	??_Ebad_array_new_length@std@@UAEPAXI@Z:PROC	; std::bad_array_new_length::`vector deleting destructor'
EXTRN	?_Xlength_error@std@@YAXPBD@Z:PROC		; std::_Xlength_error
EXTRN	__imp__timeGetTime@0:PROC
EXTRN	?ParsingCommand@@YAHPBDPAVCMover@@H@Z:PROC	; ParsingCommand
EXTRN	?xRandom@@YAKKK@Z:PROC				; xRandom
EXTRN	?Error@@YAPBDPBDZZ:PROC				; Error
EXTRN	?SetSerialNumber@CItemBase@@QAEXXZ:PROC		; CItemBase::SetSerialNumber
EXTRN	??0CItemElem@@QAE@XZ:PROC			; CItemElem::CItemElem
EXTRN	??1CItemElem@@UAE@XZ:PROC			; CItemElem::~CItemElem
EXTRN	?CheckBuf@CAr@@QAEXI@Z:PROC			; CAr::CheckBuf
EXTRN	??_EIBuff@@UAEPAXI@Z:PROC			; IBuff::`vector deleting destructor'
EXTRN	??_EIBuffItemBase@@UAEPAXI@Z:PROC		; IBuffItemBase::`vector deleting destructor'
EXTRN	??_ECBuffItem@@UAEPAXI@Z:PROC			; CBuffItem::`vector deleting destructor'
EXTRN	??_ECBuffSkill@@UAEPAXI@Z:PROC			; CBuffSkill::`vector deleting destructor'
EXTRN	??_ECBuffPet@@UAEPAXI@Z:PROC			; CBuffPet::`vector deleting destructor'
EXTRN	??_ECBuffItem2@@UAEPAXI@Z:PROC			; CBuffItem2::`vector deleting destructor'
EXTRN	??_ECBuffEquip@@UAEPAXI@Z:PROC			; CBuffEquip::`vector deleting destructor'
EXTRN	??_ECBuffMgr@@UAEPAXI@Z:PROC			; CBuffMgr::`vector deleting destructor'
EXTRN	?GetPetItem@CMover@@QAEPAVCItemElem@@XZ:PROC	; CMover::GetPetItem
EXTRN	?GetActiveHandItemProp@CMover@@QAEPAUItemProp@@H@Z:PROC ; CMover::GetActiveHandItemProp
EXTRN	?GetWeaponItem@CMover@@QAEPAVCItemElem@@H@Z:PROC ; CMover::GetWeaponItem
EXTRN	?GetLWeaponItem@CMover@@QAEPAVCItemElem@@XZ:PROC ; CMover::GetLWeaponItem
EXTRN	?IsDualWeapon@CMover@@QAEHXZ:PROC		; CMover::IsDualWeapon
EXTRN	?SetDestParam@CMover@@QAEXHHHH@Z:PROC		; CMover::SetDestParam
EXTRN	?ResetDestParam@CMover@@QAEXHHH@Z:PROC		; CMover::ResetDestParam
EXTRN	?GetAdjParam@CMover@@QAEHH@Z:PROC		; CMover::GetAdjParam
EXTRN	?OnEndSkillState@CMover@@QAEXKK@Z:PROC		; CMover::OnEndSkillState
EXTRN	?ResetDestParamRandomOptExtension@CMover@@QAEXPAVCItemElem@@@Z:PROC ; CMover::ResetDestParamRandomOptExtension
EXTRN	?ApplyParam@CMover@@QAEHPAVCCtrl@@PAUItemProp@@PAUAddSkillProp@@HH@Z:PROC ; CMover::ApplyParam
EXTRN	?CreateItem@CMover@@QAEHPAVCItemBase@@PAEPAFE@Z:PROC ; CMover::CreateItem
EXTRN	?AddSetSkillState@CUserMng@@QAEXPAVCMover@@0GGKK@Z:PROC ; CUserMng::AddSetSkillState
EXTRN	?AddCreateSfxObj@CUserMng@@QAEXPAVCCtrl@@KMMMH@Z:PROC ; CUserMng::AddCreateSfxObj
EXTRN	?AddRemoveSkillInfluence@CUserMng@@QAEXPAVCMover@@GG@Z:PROC ; CUserMng::AddRemoveSkillInfluence
EXTRN	?SendLogSMItemUse@CDPDatabaseClient@@QAEXPBDPAVCUser@@PAVCItemElem@@PAUItemProp@@0@Z:PROC ; CDPDatabaseClient::SendLogSMItemUse
EXTRN	?SendQueryPostMail@CDPDatabaseClient@@QAEXKKAAVCItemElem@@HPAD1@Z:PROC ; CDPDatabaseClient::SendQueryPostMail
EXTRN	?PutItemLog@CDPSrvr@@QAEXPAVCUser@@PBD1PAVCItemElem@@H@Z:PROC ; CDPSrvr::PutItemLog
EXTRN	@__security_check_cookie@4:PROC
EXTRN	__CxxThrowException@8:PROC
EXTRN	___CxxFrameHandler3:PROC
EXTRN	_memcpy:PROC
EXTRN	_memmove:PROC
EXTRN	_memset:PROC
EXTRN	??_7type_info@@6B@:QWORD			; type_info::`vftable'
EXTRN	?g_tCurrent@@3JA:DWORD				; g_tCurrent
EXTRN	?prj@@3VCProject@@A:BYTE			; prj
EXTRN	?g_tmCurrent@@3KA:DWORD				; g_tmCurrent
EXTRN	?g_UserMng@@3VCUserMng@@A:BYTE			; g_UserMng
EXTRN	?g_dpDBClient@@3VCDPDatabaseClient@@A:BYTE	; g_dpDBClient
EXTRN	?g_DPSrvr@@3VCDPSrvr@@A:BYTE			; g_DPSrvr
EXTRN	___security_cookie:DWORD
EXTRN	__fltused:DWORD
;	COMDAT ??_R1A@?0A@EA@CBuffMgr@@8
rdata$r	SEGMENT
??_R1A@?0A@EA@CBuffMgr@@8 DD FLAT:??_R0?AVCBuffMgr@@@8	; CBuffMgr::`RTTI Base Class Descriptor at (0,-1,0,64)'
	DD	00H
	DD	00H
	DD	0ffffffffH
	DD	00H
	DD	040H
	DD	FLAT:??_R3CBuffMgr@@8
rdata$r	ENDS
;	COMDAT ??_R2CBuffMgr@@8
rdata$r	SEGMENT
??_R2CBuffMgr@@8 DD FLAT:??_R1A@?0A@EA@CBuffMgr@@8	; CBuffMgr::`RTTI Base Class Array'
rdata$r	ENDS
;	COMDAT ??_R3CBuffMgr@@8
rdata$r	SEGMENT
??_R3CBuffMgr@@8 DD 00H					; CBuffMgr::`RTTI Class Hierarchy Descriptor'
	DD	00H
	DD	01H
	DD	FLAT:??_R2CBuffMgr@@8
rdata$r	ENDS
;	COMDAT ??_R0?AVCBuffMgr@@@8
data$rs	SEGMENT
??_R0?AVCBuffMgr@@@8 DD FLAT:??_7type_info@@6B@		; CBuffMgr `RTTI Type Descriptor'
	DD	00H
	DB	'.?AVCBuffMgr@@', 00H
data$rs	ENDS
;	COMDAT ??_R4CBuffMgr@@6B@
rdata$r	SEGMENT
??_R4CBuffMgr@@6B@ DD 00H				; CBuffMgr::`RTTI Complete Object Locator'
	DD	00H
	DD	00H
	DD	FLAT:??_R0?AVCBuffMgr@@@8
	DD	FLAT:??_R3CBuffMgr@@8
rdata$r	ENDS
;	COMDAT ??_C@_0DH@HIFEKJCC@CBuffMgr?4RemoveBuff?3?5could?5not?5@
CONST	SEGMENT
??_C@_0DH@HIFEKJCC@CBuffMgr?4RemoveBuff?3?5could?5not?5@ DB 'CBuffMgr.Rem'
	DB	'oveBuff: could not erase(type: %d, id: %d)', 00H ; `string'
CONST	ENDS
;	COMDAT ??_C@_0BG@CJPHBCAN@CBuffSkill?4IsAttacker@
CONST	SEGMENT
??_C@_0BG@CJPHBCAN@CBuffSkill?4IsAttacker@ DB 'CBuffSkill.IsAttacker', 00H ; `string'
CONST	ENDS
;	COMDAT ??_C@_0BD@OMIIIOEI@CBuffSkill?4IsDebuf@
CONST	SEGMENT
??_C@_0BD@OMIIIOEI@CBuffSkill?4IsDebuf@ DB 'CBuffSkill.IsDebuf', 00H ; `string'
CONST	ENDS
;	COMDAT ??_C@_0BH@KFBAJICK@CBuffSkill?4HasDstParam@
CONST	SEGMENT
??_C@_0BH@KFBAJICK@CBuffSkill?4HasDstParam@ DB 'CBuffSkill.HasDstParam', 00H ; `string'
CONST	ENDS
;	COMDAT ??_C@_0BH@DNHMJEBK@CBuffSkill?4HasChrState@
CONST	SEGMENT
??_C@_0BH@DNHMJEBK@CBuffSkill?4HasChrState@ DB 'CBuffSkill.HasChrState', 00H ; `string'
CONST	ENDS
;	COMDAT ??_C@_0BC@DMLBIAFL@CBuffSkill?4IsGood@
CONST	SEGMENT
??_C@_0BC@DMLBIAFL@CBuffSkill?4IsGood@ DB 'CBuffSkill.IsGood', 00H ; `string'
CONST	ENDS
;	COMDAT ??_C@_0BH@LADPBEID@CBuffSkill?4IsRemovable@
CONST	SEGMENT
??_C@_0BH@LADPBEID@CBuffSkill?4IsRemovable@ DB 'CBuffSkill.IsRemovable', 00H ; `string'
CONST	ENDS
;	COMDAT ??_C@_0BB@CAGKBMEO@CBuffSkill?4Apply@
CONST	SEGMENT
??_C@_0BB@CAGKBMEO@CBuffSkill?4Apply@ DB 'CBuffSkill.Apply', 00H ; `string'
CONST	ENDS
;	COMDAT ??_C@_01FDFGLJHB@2@
CONST	SEGMENT
??_C@_01FDFGLJHB@2@ DB '2', 00H				; `string'
CONST	ENDS
;	COMDAT ??_C@_04INBMAKPJ@?1dis@
CONST	SEGMENT
??_C@_04INBMAKPJ@?1dis@ DB '/dis', 00H			; `string'
CONST	ENDS
;	COMDAT ??_C@_0BA@JAHGEPOA@BuffToGift_Post@
CONST	SEGMENT
??_C@_0BA@JAHGEPOA@BuffToGift_Post@ DB 'BuffToGift_Post', 00H ; `string'
CONST	ENDS
;	COMDAT ??_C@_01JEJKBAGA@g@
CONST	SEGMENT
??_C@_01JEJKBAGA@g@ DB 'g', 00H				; `string'
CONST	ENDS
;	COMDAT ??_C@_0L@LGANLGGI@BuffToGift@
CONST	SEGMENT
??_C@_0L@LGANLGGI@BuffToGift@ DB 'BuffToGift', 00H	; `string'
CONST	ENDS
;	COMDAT ??_C@_01KMDKNFGN@?1@
CONST	SEGMENT
??_C@_01KMDKNFGN@?1@ DB '/', 00H			; `string'
CONST	ENDS
;	COMDAT ??_R1A@?0A@EA@CBuffEquip@@8
rdata$r	SEGMENT
??_R1A@?0A@EA@CBuffEquip@@8 DD FLAT:??_R0?AVCBuffEquip@@@8 ; CBuffEquip::`RTTI Base Class Descriptor at (0,-1,0,64)'
	DD	01H
	DD	00H
	DD	0ffffffffH
	DD	00H
	DD	040H
	DD	FLAT:??_R3CBuffEquip@@8
rdata$r	ENDS
;	COMDAT ??_R2CBuffEquip@@8
rdata$r	SEGMENT
??_R2CBuffEquip@@8 DD FLAT:??_R1A@?0A@EA@CBuffEquip@@8	; CBuffEquip::`RTTI Base Class Array'
	DD	FLAT:??_R1A@?0A@EA@IBuff@@8
rdata$r	ENDS
;	COMDAT ??_R3CBuffEquip@@8
rdata$r	SEGMENT
??_R3CBuffEquip@@8 DD 00H				; CBuffEquip::`RTTI Class Hierarchy Descriptor'
	DD	00H
	DD	02H
	DD	FLAT:??_R2CBuffEquip@@8
rdata$r	ENDS
;	COMDAT ??_R0?AVCBuffEquip@@@8
data$rs	SEGMENT
??_R0?AVCBuffEquip@@@8 DD FLAT:??_7type_info@@6B@	; CBuffEquip `RTTI Type Descriptor'
	DD	00H
	DB	'.?AVCBuffEquip@@', 00H
data$rs	ENDS
;	COMDAT ??_R4CBuffEquip@@6B@
rdata$r	SEGMENT
??_R4CBuffEquip@@6B@ DD 00H				; CBuffEquip::`RTTI Complete Object Locator'
	DD	00H
	DD	00H
	DD	FLAT:??_R0?AVCBuffEquip@@@8
	DD	FLAT:??_R3CBuffEquip@@8
rdata$r	ENDS
;	COMDAT ??_R1A@?0A@EA@CBuffItem2@@8
rdata$r	SEGMENT
??_R1A@?0A@EA@CBuffItem2@@8 DD FLAT:??_R0?AVCBuffItem2@@@8 ; CBuffItem2::`RTTI Base Class Descriptor at (0,-1,0,64)'
	DD	02H
	DD	00H
	DD	0ffffffffH
	DD	00H
	DD	040H
	DD	FLAT:??_R3CBuffItem2@@8
rdata$r	ENDS
;	COMDAT ??_R2CBuffItem2@@8
rdata$r	SEGMENT
??_R2CBuffItem2@@8 DD FLAT:??_R1A@?0A@EA@CBuffItem2@@8	; CBuffItem2::`RTTI Base Class Array'
	DD	FLAT:??_R1A@?0A@EA@IBuffItemBase@@8
	DD	FLAT:??_R1A@?0A@EA@IBuff@@8
rdata$r	ENDS
;	COMDAT ??_R3CBuffItem2@@8
rdata$r	SEGMENT
??_R3CBuffItem2@@8 DD 00H				; CBuffItem2::`RTTI Class Hierarchy Descriptor'
	DD	00H
	DD	03H
	DD	FLAT:??_R2CBuffItem2@@8
rdata$r	ENDS
;	COMDAT ??_R0?AVCBuffItem2@@@8
data$rs	SEGMENT
??_R0?AVCBuffItem2@@@8 DD FLAT:??_7type_info@@6B@	; CBuffItem2 `RTTI Type Descriptor'
	DD	00H
	DB	'.?AVCBuffItem2@@', 00H
data$rs	ENDS
;	COMDAT ??_R4CBuffItem2@@6B@
rdata$r	SEGMENT
??_R4CBuffItem2@@6B@ DD 00H				; CBuffItem2::`RTTI Complete Object Locator'
	DD	00H
	DD	00H
	DD	FLAT:??_R0?AVCBuffItem2@@@8
	DD	FLAT:??_R3CBuffItem2@@8
rdata$r	ENDS
;	COMDAT ??_R1A@?0A@EA@CBuffPet@@8
rdata$r	SEGMENT
??_R1A@?0A@EA@CBuffPet@@8 DD FLAT:??_R0?AVCBuffPet@@@8	; CBuffPet::`RTTI Base Class Descriptor at (0,-1,0,64)'
	DD	01H
	DD	00H
	DD	0ffffffffH
	DD	00H
	DD	040H
	DD	FLAT:??_R3CBuffPet@@8
rdata$r	ENDS
;	COMDAT ??_R2CBuffPet@@8
rdata$r	SEGMENT
??_R2CBuffPet@@8 DD FLAT:??_R1A@?0A@EA@CBuffPet@@8	; CBuffPet::`RTTI Base Class Array'
	DD	FLAT:??_R1A@?0A@EA@IBuff@@8
rdata$r	ENDS
;	COMDAT ??_R3CBuffPet@@8
rdata$r	SEGMENT
??_R3CBuffPet@@8 DD 00H					; CBuffPet::`RTTI Class Hierarchy Descriptor'
	DD	00H
	DD	02H
	DD	FLAT:??_R2CBuffPet@@8
rdata$r	ENDS
;	COMDAT ??_R0?AVCBuffPet@@@8
data$rs	SEGMENT
??_R0?AVCBuffPet@@@8 DD FLAT:??_7type_info@@6B@		; CBuffPet `RTTI Type Descriptor'
	DD	00H
	DB	'.?AVCBuffPet@@', 00H
data$rs	ENDS
;	COMDAT ??_R4CBuffPet@@6B@
rdata$r	SEGMENT
??_R4CBuffPet@@6B@ DD 00H				; CBuffPet::`RTTI Complete Object Locator'
	DD	00H
	DD	00H
	DD	FLAT:??_R0?AVCBuffPet@@@8
	DD	FLAT:??_R3CBuffPet@@8
rdata$r	ENDS
;	COMDAT ??_R1A@?0A@EA@CBuffSkill@@8
rdata$r	SEGMENT
??_R1A@?0A@EA@CBuffSkill@@8 DD FLAT:??_R0?AVCBuffSkill@@@8 ; CBuffSkill::`RTTI Base Class Descriptor at (0,-1,0,64)'
	DD	01H
	DD	00H
	DD	0ffffffffH
	DD	00H
	DD	040H
	DD	FLAT:??_R3CBuffSkill@@8
rdata$r	ENDS
;	COMDAT ??_R2CBuffSkill@@8
rdata$r	SEGMENT
??_R2CBuffSkill@@8 DD FLAT:??_R1A@?0A@EA@CBuffSkill@@8	; CBuffSkill::`RTTI Base Class Array'
	DD	FLAT:??_R1A@?0A@EA@IBuff@@8
rdata$r	ENDS
;	COMDAT ??_R3CBuffSkill@@8
rdata$r	SEGMENT
??_R3CBuffSkill@@8 DD 00H				; CBuffSkill::`RTTI Class Hierarchy Descriptor'
	DD	00H
	DD	02H
	DD	FLAT:??_R2CBuffSkill@@8
rdata$r	ENDS
;	COMDAT ??_R0?AVCBuffSkill@@@8
data$rs	SEGMENT
??_R0?AVCBuffSkill@@@8 DD FLAT:??_7type_info@@6B@	; CBuffSkill `RTTI Type Descriptor'
	DD	00H
	DB	'.?AVCBuffSkill@@', 00H
data$rs	ENDS
;	COMDAT ??_R4CBuffSkill@@6B@
rdata$r	SEGMENT
??_R4CBuffSkill@@6B@ DD 00H				; CBuffSkill::`RTTI Complete Object Locator'
	DD	00H
	DD	00H
	DD	FLAT:??_R0?AVCBuffSkill@@@8
	DD	FLAT:??_R3CBuffSkill@@8
rdata$r	ENDS
;	COMDAT ??_R1A@?0A@EA@CBuffItem@@8
rdata$r	SEGMENT
??_R1A@?0A@EA@CBuffItem@@8 DD FLAT:??_R0?AVCBuffItem@@@8 ; CBuffItem::`RTTI Base Class Descriptor at (0,-1,0,64)'
	DD	02H
	DD	00H
	DD	0ffffffffH
	DD	00H
	DD	040H
	DD	FLAT:??_R3CBuffItem@@8
rdata$r	ENDS
;	COMDAT ??_R2CBuffItem@@8
rdata$r	SEGMENT
??_R2CBuffItem@@8 DD FLAT:??_R1A@?0A@EA@CBuffItem@@8	; CBuffItem::`RTTI Base Class Array'
	DD	FLAT:??_R1A@?0A@EA@IBuffItemBase@@8
	DD	FLAT:??_R1A@?0A@EA@IBuff@@8
rdata$r	ENDS
;	COMDAT ??_R3CBuffItem@@8
rdata$r	SEGMENT
??_R3CBuffItem@@8 DD 00H				; CBuffItem::`RTTI Class Hierarchy Descriptor'
	DD	00H
	DD	03H
	DD	FLAT:??_R2CBuffItem@@8
rdata$r	ENDS
;	COMDAT ??_R0?AVCBuffItem@@@8
data$rs	SEGMENT
??_R0?AVCBuffItem@@@8 DD FLAT:??_7type_info@@6B@	; CBuffItem `RTTI Type Descriptor'
	DD	00H
	DB	'.?AVCBuffItem@@', 00H
data$rs	ENDS
;	COMDAT ??_R4CBuffItem@@6B@
rdata$r	SEGMENT
??_R4CBuffItem@@6B@ DD 00H				; CBuffItem::`RTTI Complete Object Locator'
	DD	00H
	DD	00H
	DD	FLAT:??_R0?AVCBuffItem@@@8
	DD	FLAT:??_R3CBuffItem@@8
rdata$r	ENDS
;	COMDAT ??_R1A@?0A@EA@IBuffItemBase@@8
rdata$r	SEGMENT
??_R1A@?0A@EA@IBuffItemBase@@8 DD FLAT:??_R0?AVIBuffItemBase@@@8 ; IBuffItemBase::`RTTI Base Class Descriptor at (0,-1,0,64)'
	DD	01H
	DD	00H
	DD	0ffffffffH
	DD	00H
	DD	040H
	DD	FLAT:??_R3IBuffItemBase@@8
rdata$r	ENDS
;	COMDAT ??_R2IBuffItemBase@@8
rdata$r	SEGMENT
??_R2IBuffItemBase@@8 DD FLAT:??_R1A@?0A@EA@IBuffItemBase@@8 ; IBuffItemBase::`RTTI Base Class Array'
	DD	FLAT:??_R1A@?0A@EA@IBuff@@8
rdata$r	ENDS
;	COMDAT ??_R3IBuffItemBase@@8
rdata$r	SEGMENT
??_R3IBuffItemBase@@8 DD 00H				; IBuffItemBase::`RTTI Class Hierarchy Descriptor'
	DD	00H
	DD	02H
	DD	FLAT:??_R2IBuffItemBase@@8
rdata$r	ENDS
;	COMDAT ??_R0?AVIBuffItemBase@@@8
data$rs	SEGMENT
??_R0?AVIBuffItemBase@@@8 DD FLAT:??_7type_info@@6B@	; IBuffItemBase `RTTI Type Descriptor'
	DD	00H
	DB	'.?AVIBuffItemBase@@', 00H
data$rs	ENDS
;	COMDAT ??_R4IBuffItemBase@@6B@
rdata$r	SEGMENT
??_R4IBuffItemBase@@6B@ DD 00H				; IBuffItemBase::`RTTI Complete Object Locator'
	DD	00H
	DD	00H
	DD	FLAT:??_R0?AVIBuffItemBase@@@8
	DD	FLAT:??_R3IBuffItemBase@@8
rdata$r	ENDS
;	COMDAT ??_R1A@?0A@EA@IBuff@@8
rdata$r	SEGMENT
??_R1A@?0A@EA@IBuff@@8 DD FLAT:??_R0?AVIBuff@@@8	; IBuff::`RTTI Base Class Descriptor at (0,-1,0,64)'
	DD	00H
	DD	00H
	DD	0ffffffffH
	DD	00H
	DD	040H
	DD	FLAT:??_R3IBuff@@8
rdata$r	ENDS
;	COMDAT ??_R2IBuff@@8
rdata$r	SEGMENT
??_R2IBuff@@8 DD FLAT:??_R1A@?0A@EA@IBuff@@8		; IBuff::`RTTI Base Class Array'
rdata$r	ENDS
;	COMDAT ??_R3IBuff@@8
rdata$r	SEGMENT
??_R3IBuff@@8 DD 00H					; IBuff::`RTTI Class Hierarchy Descriptor'
	DD	00H
	DD	01H
	DD	FLAT:??_R2IBuff@@8
rdata$r	ENDS
;	COMDAT ??_R0?AVIBuff@@@8
data$rs	SEGMENT
??_R0?AVIBuff@@@8 DD FLAT:??_7type_info@@6B@		; IBuff `RTTI Type Descriptor'
	DD	00H
	DB	'.?AVIBuff@@', 00H
data$rs	ENDS
;	COMDAT ??_R4IBuff@@6B@
rdata$r	SEGMENT
??_R4IBuff@@6B@ DD 00H					; IBuff::`RTTI Complete Object Locator'
	DD	00H
	DD	00H
	DD	FLAT:??_R0?AVIBuff@@@8
	DD	FLAT:??_R3IBuff@@8
rdata$r	ENDS
;	COMDAT ??_R4bad_alloc@std@@6B@
rdata$r	SEGMENT
??_R4bad_alloc@std@@6B@ DD 00H				; std::bad_alloc::`RTTI Complete Object Locator'
	DD	00H
	DD	00H
	DD	FLAT:??_R0?AVbad_alloc@std@@@8
	DD	FLAT:??_R3bad_alloc@std@@8
rdata$r	ENDS
;	COMDAT ??_R2bad_alloc@std@@8
rdata$r	SEGMENT
??_R2bad_alloc@std@@8 DD FLAT:??_R1A@?0A@EA@bad_alloc@std@@8 ; std::bad_alloc::`RTTI Base Class Array'
	DD	FLAT:??_R1A@?0A@EA@exception@std@@8
rdata$r	ENDS
;	COMDAT ??_R3bad_alloc@std@@8
rdata$r	SEGMENT
??_R3bad_alloc@std@@8 DD 00H				; std::bad_alloc::`RTTI Class Hierarchy Descriptor'
	DD	00H
	DD	02H
	DD	FLAT:??_R2bad_alloc@std@@8
rdata$r	ENDS
;	COMDAT ??_R1A@?0A@EA@bad_alloc@std@@8
rdata$r	SEGMENT
??_R1A@?0A@EA@bad_alloc@std@@8 DD FLAT:??_R0?AVbad_alloc@std@@@8 ; std::bad_alloc::`RTTI Base Class Descriptor at (0,-1,0,64)'
	DD	01H
	DD	00H
	DD	0ffffffffH
	DD	00H
	DD	040H
	DD	FLAT:??_R3bad_alloc@std@@8
rdata$r	ENDS
;	COMDAT ??_R1A@?0A@EA@bad_array_new_length@std@@8
rdata$r	SEGMENT
??_R1A@?0A@EA@bad_array_new_length@std@@8 DD FLAT:??_R0?AVbad_array_new_length@std@@@8 ; std::bad_array_new_length::`RTTI Base Class Descriptor at (0,-1,0,64)'
	DD	02H
	DD	00H
	DD	0ffffffffH
	DD	00H
	DD	040H
	DD	FLAT:??_R3bad_array_new_length@std@@8
rdata$r	ENDS
;	COMDAT ??_R2bad_array_new_length@std@@8
rdata$r	SEGMENT
??_R2bad_array_new_length@std@@8 DD FLAT:??_R1A@?0A@EA@bad_array_new_length@std@@8 ; std::bad_array_new_length::`RTTI Base Class Array'
	DD	FLAT:??_R1A@?0A@EA@bad_alloc@std@@8
	DD	FLAT:??_R1A@?0A@EA@exception@std@@8
rdata$r	ENDS
;	COMDAT ??_R3bad_array_new_length@std@@8
rdata$r	SEGMENT
??_R3bad_array_new_length@std@@8 DD 00H			; std::bad_array_new_length::`RTTI Class Hierarchy Descriptor'
	DD	00H
	DD	03H
	DD	FLAT:??_R2bad_array_new_length@std@@8
rdata$r	ENDS
;	COMDAT ??_R4bad_array_new_length@std@@6B@
rdata$r	SEGMENT
??_R4bad_array_new_length@std@@6B@ DD 00H		; std::bad_array_new_length::`RTTI Complete Object Locator'
	DD	00H
	DD	00H
	DD	FLAT:??_R0?AVbad_array_new_length@std@@@8
	DD	FLAT:??_R3bad_array_new_length@std@@8
rdata$r	ENDS
;	COMDAT ??_R1A@?0A@EA@exception@std@@8
rdata$r	SEGMENT
??_R1A@?0A@EA@exception@std@@8 DD FLAT:??_R0?AVexception@std@@@8 ; std::exception::`RTTI Base Class Descriptor at (0,-1,0,64)'
	DD	00H
	DD	00H
	DD	0ffffffffH
	DD	00H
	DD	040H
	DD	FLAT:??_R3exception@std@@8
rdata$r	ENDS
;	COMDAT ??_R2exception@std@@8
rdata$r	SEGMENT
??_R2exception@std@@8 DD FLAT:??_R1A@?0A@EA@exception@std@@8 ; std::exception::`RTTI Base Class Array'
rdata$r	ENDS
;	COMDAT ??_R3exception@std@@8
rdata$r	SEGMENT
??_R3exception@std@@8 DD 00H				; std::exception::`RTTI Class Hierarchy Descriptor'
	DD	00H
	DD	01H
	DD	FLAT:??_R2exception@std@@8
rdata$r	ENDS
;	COMDAT ??_R4exception@std@@6B@
rdata$r	SEGMENT
??_R4exception@std@@6B@ DD 00H				; std::exception::`RTTI Complete Object Locator'
	DD	00H
	DD	00H
	DD	FLAT:??_R0?AVexception@std@@@8
	DD	FLAT:??_R3exception@std@@8
rdata$r	ENDS
;	COMDAT ??_C@_0BA@FOIKENOD@vector?5too?5long@
CONST	SEGMENT
??_C@_0BA@FOIKENOD@vector?5too?5long@ DB 'vector too long', 00H ; `string'
CONST	ENDS
;	COMDAT ??_7CBuffMgr@@6B@
CONST	SEGMENT
??_7CBuffMgr@@6B@ DD FLAT:??_R4CBuffMgr@@6B@		; CBuffMgr::`vftable'
	DD	FLAT:??_ECBuffMgr@@UAEPAXI@Z
	DD	FLAT:?CreateBuff@CBuffMgr@@UAEPAVIBuff@@G@Z
	DD	FLAT:?GetTickCount@CBuffMgr@@MAEKXZ
CONST	ENDS
;	COMDAT ??_7CBuffEquip@@6B@
CONST	SEGMENT
??_7CBuffEquip@@6B@ DD FLAT:??_R4CBuffEquip@@6B@	; CBuffEquip::`vftable'
	DD	FLAT:??_ECBuffEquip@@UAEPAXI@Z
	DD	FLAT:?Serialize@IBuff@@UAEXAAVCAr@@PAVCMover@@@Z
	DD	FLAT:?SerializeLevel@IBuff@@UAEXAAVCAr@@@Z
	DD	FLAT:??4IBuff@@UAEAAV0@ABV0@@Z
	DD	FLAT:?Process@IBuff@@UAEHPAVCMover@@K@Z
	DD	FLAT:?IsIk1@IBuff@@UAEHK@Z
	DD	FLAT:?IsIk3@IBuff@@UAEHK@Z
	DD	FLAT:?IsAddable@IBuff@@UAEHPAVCMover@@@Z
	DD	FLAT:?AddTotal@IBuff@@UAEXK@Z
	DD	FLAT:?GetPropA@IBuff@@UAEPAUItemProp@@XZ
	DD	FLAT:?Release@IBuff@@UAEXPAVCBuffMgr@@@Z
	DD	FLAT:?IsRemovable@CBuffEquip@@UAEHPAVCMover@@@Z
	DD	FLAT:?GetDisguise@IBuff@@UAEKXZ
	DD	FLAT:?IsCommon@CBuffEquip@@UAEHXZ
	DD	FLAT:?IsGood@IBuff@@UAEHPAVCMover@@@Z
	DD	FLAT:?HasDstParam@IBuff@@UAEHPAVCMover@@K@Z
	DD	FLAT:?HasChrState@IBuff@@UAEHPAVCMover@@K@Z
	DD	FLAT:?IsDebuf@IBuff@@UAEHPAVCMover@@@Z
	DD	FLAT:?IsAttacker@IBuff@@UAEHPAVCMover@@K@Z
	DD	FLAT:?IsInvalid@IBuff@@MAEHPAVCMover@@@Z
	DD	FLAT:?Apply@IBuff@@MAEXPAVCMover@@@Z
	DD	FLAT:?Timeover@IBuff@@MAEHPAVCMover@@K@Z
	DD	FLAT:?OnExpire@IBuff@@UAEXPAVCMover@@@Z
CONST	ENDS
;	COMDAT ??_7CBuffItem2@@6B@
CONST	SEGMENT
??_7CBuffItem2@@6B@ DD FLAT:??_R4CBuffItem2@@6B@	; CBuffItem2::`vftable'
	DD	FLAT:??_ECBuffItem2@@UAEPAXI@Z
	DD	FLAT:?Serialize@IBuff@@UAEXAAVCAr@@PAVCMover@@@Z
	DD	FLAT:?SerializeLevel@CBuffItem2@@UAEXAAVCAr@@@Z
	DD	FLAT:??4IBuff@@UAEAAV0@ABV0@@Z
	DD	FLAT:?Process@IBuff@@UAEHPAVCMover@@K@Z
	DD	FLAT:?IsIk1@IBuff@@UAEHK@Z
	DD	FLAT:?IsIk3@IBuff@@UAEHK@Z
	DD	FLAT:?IsAddable@IBuff@@UAEHPAVCMover@@@Z
	DD	FLAT:?AddTotal@IBuff@@UAEXK@Z
	DD	FLAT:?GetPropA@IBuffItemBase@@UAEPAUItemProp@@XZ
	DD	FLAT:?Release@IBuffItemBase@@UAEXPAVCBuffMgr@@@Z
	DD	FLAT:?IsRemovable@IBuff@@UAEHPAVCMover@@@Z
	DD	FLAT:?GetDisguise@IBuff@@UAEKXZ
	DD	FLAT:?IsCommon@IBuffItemBase@@UAEHXZ
	DD	FLAT:?IsGood@IBuff@@UAEHPAVCMover@@@Z
	DD	FLAT:?HasDstParam@IBuff@@UAEHPAVCMover@@K@Z
	DD	FLAT:?HasChrState@IBuffItemBase@@UAEHPAVCMover@@K@Z
	DD	FLAT:?IsDebuf@IBuffItemBase@@UAEHPAVCMover@@@Z
	DD	FLAT:?IsAttacker@IBuff@@UAEHPAVCMover@@K@Z
	DD	FLAT:?IsInvalid@IBuff@@MAEHPAVCMover@@@Z
	DD	FLAT:?Apply@IBuff@@MAEXPAVCMover@@@Z
	DD	FLAT:?Timeover@CBuffItem2@@UAEHPAVCMover@@K@Z
	DD	FLAT:?OnExpire@IBuff@@UAEXPAVCMover@@@Z
CONST	ENDS
;	COMDAT ??_7CBuffPet@@6B@
CONST	SEGMENT
??_7CBuffPet@@6B@ DD FLAT:??_R4CBuffPet@@6B@		; CBuffPet::`vftable'
	DD	FLAT:??_ECBuffPet@@UAEPAXI@Z
	DD	FLAT:?Serialize@IBuff@@UAEXAAVCAr@@PAVCMover@@@Z
	DD	FLAT:?SerializeLevel@IBuff@@UAEXAAVCAr@@@Z
	DD	FLAT:??4IBuff@@UAEAAV0@ABV0@@Z
	DD	FLAT:?Process@IBuff@@UAEHPAVCMover@@K@Z
	DD	FLAT:?IsIk1@IBuff@@UAEHK@Z
	DD	FLAT:?IsIk3@IBuff@@UAEHK@Z
	DD	FLAT:?IsAddable@IBuff@@UAEHPAVCMover@@@Z
	DD	FLAT:?AddTotal@IBuff@@UAEXK@Z
	DD	FLAT:?GetPropA@IBuff@@UAEPAUItemProp@@XZ
	DD	FLAT:?Release@CBuffPet@@MAEXPAVCBuffMgr@@@Z
	DD	FLAT:?IsRemovable@CBuffPet@@UAEHPAVCMover@@@Z
	DD	FLAT:?GetDisguise@IBuff@@UAEKXZ
	DD	FLAT:?IsCommon@CBuffPet@@UAEHXZ
	DD	FLAT:?IsGood@IBuff@@UAEHPAVCMover@@@Z
	DD	FLAT:?HasDstParam@IBuff@@UAEHPAVCMover@@K@Z
	DD	FLAT:?HasChrState@IBuff@@UAEHPAVCMover@@K@Z
	DD	FLAT:?IsDebuf@IBuff@@UAEHPAVCMover@@@Z
	DD	FLAT:?IsAttacker@IBuff@@UAEHPAVCMover@@K@Z
	DD	FLAT:?IsInvalid@IBuff@@MAEHPAVCMover@@@Z
	DD	FLAT:?Apply@CBuffPet@@MAEXPAVCMover@@@Z
	DD	FLAT:?Timeover@IBuff@@MAEHPAVCMover@@K@Z
	DD	FLAT:?OnExpire@IBuff@@UAEXPAVCMover@@@Z
CONST	ENDS
;	COMDAT ??_7CBuffSkill@@6B@
CONST	SEGMENT
??_7CBuffSkill@@6B@ DD FLAT:??_R4CBuffSkill@@6B@	; CBuffSkill::`vftable'
	DD	FLAT:??_ECBuffSkill@@UAEPAXI@Z
	DD	FLAT:?Serialize@IBuff@@UAEXAAVCAr@@PAVCMover@@@Z
	DD	FLAT:?SerializeLevel@IBuff@@UAEXAAVCAr@@@Z
	DD	FLAT:??4IBuff@@UAEAAV0@ABV0@@Z
	DD	FLAT:?Process@IBuff@@UAEHPAVCMover@@K@Z
	DD	FLAT:?IsIk1@IBuff@@UAEHK@Z
	DD	FLAT:?IsIk3@IBuff@@UAEHK@Z
	DD	FLAT:?IsAddable@CBuffSkill@@UAEHPAVCMover@@@Z
	DD	FLAT:?AddTotal@IBuff@@UAEXK@Z
	DD	FLAT:?GetPropA@CBuffSkill@@UAEPAUItemProp@@XZ
	DD	FLAT:?Release@CBuffSkill@@UAEXPAVCBuffMgr@@@Z
	DD	FLAT:?IsRemovable@CBuffSkill@@UAEHPAVCMover@@@Z
	DD	FLAT:?GetDisguise@IBuff@@UAEKXZ
	DD	FLAT:?IsCommon@IBuff@@UAEHXZ
	DD	FLAT:?IsGood@CBuffSkill@@UAEHPAVCMover@@@Z
	DD	FLAT:?HasDstParam@CBuffSkill@@UAEHPAVCMover@@K@Z
	DD	FLAT:?HasChrState@CBuffSkill@@UAEHPAVCMover@@K@Z
	DD	FLAT:?IsDebuf@CBuffSkill@@UAEHPAVCMover@@@Z
	DD	FLAT:?IsAttacker@CBuffSkill@@UAEHPAVCMover@@K@Z
	DD	FLAT:?IsInvalid@CBuffSkill@@MAEHPAVCMover@@@Z
	DD	FLAT:?Apply@CBuffSkill@@MAEXPAVCMover@@@Z
	DD	FLAT:?Timeover@IBuff@@MAEHPAVCMover@@K@Z
	DD	FLAT:?OnExpire@CBuffSkill@@UAEXPAVCMover@@@Z
CONST	ENDS
;	COMDAT ??_7CBuffItem@@6B@
CONST	SEGMENT
??_7CBuffItem@@6B@ DD FLAT:??_R4CBuffItem@@6B@		; CBuffItem::`vftable'
	DD	FLAT:??_ECBuffItem@@UAEPAXI@Z
	DD	FLAT:?Serialize@IBuff@@UAEXAAVCAr@@PAVCMover@@@Z
	DD	FLAT:?SerializeLevel@IBuff@@UAEXAAVCAr@@@Z
	DD	FLAT:??4IBuff@@UAEAAV0@ABV0@@Z
	DD	FLAT:?Process@IBuff@@UAEHPAVCMover@@K@Z
	DD	FLAT:?IsIk1@CBuffItem@@UAEHK@Z
	DD	FLAT:?IsIk3@CBuffItem@@UAEHK@Z
	DD	FLAT:?IsAddable@IBuff@@UAEHPAVCMover@@@Z
	DD	FLAT:?AddTotal@CBuffItem@@UAEXK@Z
	DD	FLAT:?GetPropA@IBuffItemBase@@UAEPAUItemProp@@XZ
	DD	FLAT:?Release@IBuffItemBase@@UAEXPAVCBuffMgr@@@Z
	DD	FLAT:?IsRemovable@CBuffItem@@UAEHPAVCMover@@@Z
	DD	FLAT:?GetDisguise@CBuffItem@@UAEKXZ
	DD	FLAT:?IsCommon@IBuffItemBase@@UAEHXZ
	DD	FLAT:?IsGood@IBuff@@UAEHPAVCMover@@@Z
	DD	FLAT:?HasDstParam@IBuff@@UAEHPAVCMover@@K@Z
	DD	FLAT:?HasChrState@IBuffItemBase@@UAEHPAVCMover@@K@Z
	DD	FLAT:?IsDebuf@IBuffItemBase@@UAEHPAVCMover@@@Z
	DD	FLAT:?IsAttacker@IBuff@@UAEHPAVCMover@@K@Z
	DD	FLAT:?IsInvalid@IBuff@@MAEHPAVCMover@@@Z
	DD	FLAT:?Apply@CBuffItem@@MAEXPAVCMover@@@Z
	DD	FLAT:?Timeover@IBuff@@MAEHPAVCMover@@K@Z
	DD	FLAT:?OnExpire@CBuffItem@@UAEXPAVCMover@@@Z
CONST	ENDS
;	COMDAT ??_7IBuffItemBase@@6B@
CONST	SEGMENT
??_7IBuffItemBase@@6B@ DD FLAT:??_R4IBuffItemBase@@6B@	; IBuffItemBase::`vftable'
	DD	FLAT:??_EIBuffItemBase@@UAEPAXI@Z
	DD	FLAT:?Serialize@IBuff@@UAEXAAVCAr@@PAVCMover@@@Z
	DD	FLAT:?SerializeLevel@IBuff@@UAEXAAVCAr@@@Z
	DD	FLAT:??4IBuff@@UAEAAV0@ABV0@@Z
	DD	FLAT:?Process@IBuff@@UAEHPAVCMover@@K@Z
	DD	FLAT:?IsIk1@IBuff@@UAEHK@Z
	DD	FLAT:?IsIk3@IBuff@@UAEHK@Z
	DD	FLAT:?IsAddable@IBuff@@UAEHPAVCMover@@@Z
	DD	FLAT:?AddTotal@IBuff@@UAEXK@Z
	DD	FLAT:?GetPropA@IBuffItemBase@@UAEPAUItemProp@@XZ
	DD	FLAT:?Release@IBuffItemBase@@UAEXPAVCBuffMgr@@@Z
	DD	FLAT:?IsRemovable@IBuff@@UAEHPAVCMover@@@Z
	DD	FLAT:?GetDisguise@IBuff@@UAEKXZ
	DD	FLAT:?IsCommon@IBuffItemBase@@UAEHXZ
	DD	FLAT:?IsGood@IBuff@@UAEHPAVCMover@@@Z
	DD	FLAT:?HasDstParam@IBuff@@UAEHPAVCMover@@K@Z
	DD	FLAT:?HasChrState@IBuffItemBase@@UAEHPAVCMover@@K@Z
	DD	FLAT:?IsDebuf@IBuffItemBase@@UAEHPAVCMover@@@Z
	DD	FLAT:?IsAttacker@IBuff@@UAEHPAVCMover@@K@Z
	DD	FLAT:?IsInvalid@IBuff@@MAEHPAVCMover@@@Z
	DD	FLAT:?Apply@IBuff@@MAEXPAVCMover@@@Z
	DD	FLAT:?Timeover@IBuff@@MAEHPAVCMover@@K@Z
	DD	FLAT:?OnExpire@IBuff@@UAEXPAVCMover@@@Z
CONST	ENDS
;	COMDAT ??_7IBuff@@6B@
CONST	SEGMENT
??_7IBuff@@6B@ DD FLAT:??_R4IBuff@@6B@			; IBuff::`vftable'
	DD	FLAT:??_EIBuff@@UAEPAXI@Z
	DD	FLAT:?Serialize@IBuff@@UAEXAAVCAr@@PAVCMover@@@Z
	DD	FLAT:?SerializeLevel@IBuff@@UAEXAAVCAr@@@Z
	DD	FLAT:??4IBuff@@UAEAAV0@ABV0@@Z
	DD	FLAT:?Process@IBuff@@UAEHPAVCMover@@K@Z
	DD	FLAT:?IsIk1@IBuff@@UAEHK@Z
	DD	FLAT:?IsIk3@IBuff@@UAEHK@Z
	DD	FLAT:?IsAddable@IBuff@@UAEHPAVCMover@@@Z
	DD	FLAT:?AddTotal@IBuff@@UAEXK@Z
	DD	FLAT:?GetPropA@IBuff@@UAEPAUItemProp@@XZ
	DD	FLAT:?Release@IBuff@@UAEXPAVCBuffMgr@@@Z
	DD	FLAT:?IsRemovable@IBuff@@UAEHPAVCMover@@@Z
	DD	FLAT:?GetDisguise@IBuff@@UAEKXZ
	DD	FLAT:?IsCommon@IBuff@@UAEHXZ
	DD	FLAT:?IsGood@IBuff@@UAEHPAVCMover@@@Z
	DD	FLAT:?HasDstParam@IBuff@@UAEHPAVCMover@@K@Z
	DD	FLAT:?HasChrState@IBuff@@UAEHPAVCMover@@K@Z
	DD	FLAT:?IsDebuf@IBuff@@UAEHPAVCMover@@@Z
	DD	FLAT:?IsAttacker@IBuff@@UAEHPAVCMover@@K@Z
	DD	FLAT:?IsInvalid@IBuff@@MAEHPAVCMover@@@Z
	DD	FLAT:?Apply@IBuff@@MAEXPAVCMover@@@Z
	DD	FLAT:?Timeover@IBuff@@MAEHPAVCMover@@K@Z
	DD	FLAT:?OnExpire@IBuff@@UAEXPAVCMover@@@Z
CONST	ENDS
;	COMDAT ??_C@_0BJ@GKPOBPPI@GetMoverProp?5range_error@
CONST	SEGMENT
??_C@_0BJ@GKPOBPPI@GetMoverProp?5range_error@ DB 'GetMoverProp range_erro'
	DB	'r', 00H					; `string'
CONST	ENDS
;	COMDAT ??_C@_0BJ@GPNGCFMK@GetSkillProp?5range_error@
CONST	SEGMENT
??_C@_0BJ@GPNGCFMK@GetSkillProp?5range_error@ DB 'GetSkillProp range_erro'
	DB	'r', 00H					; `string'
CONST	ENDS
;	COMDAT ??_C@_0BI@BEIFNGEL@GetItemProp?5range_error@
CONST	SEGMENT
??_C@_0BI@BEIFNGEL@GetItemProp?5range_error@ DB 'GetItemProp range_error', 00H ; `string'
CONST	ENDS
;	COMDAT ??_C@_0BM@HMFGHCP@?$CFs?5min?3?$CFd?0?5max?3?$CFd?0?5index?3?$CFd@
CONST	SEGMENT
??_C@_0BM@HMFGHCP@?$CFs?5min?3?$CFd?0?5max?3?$CFd?0?5index?3?$CFd@ DB '%s'
	DB	' min:%d, max:%d, index:%d', 00H		; `string'
CONST	ENDS
;	COMDAT ??_C@_0BB@GCADKGJO@map?1set?5too?5long@
CONST	SEGMENT
??_C@_0BB@GCADKGJO@map?1set?5too?5long@ DB 'map/set too long', 00H ; `string'
CONST	ENDS
;	COMDAT __CT??_R0?AVbad_alloc@std@@@8??0bad_alloc@std@@QAE@ABV01@@Z12
xdata$x	SEGMENT
__CT??_R0?AVbad_alloc@std@@@8??0bad_alloc@std@@QAE@ABV01@@Z12 DD 010H
	DD	FLAT:??_R0?AVbad_alloc@std@@@8
	DD	00H
	DD	0ffffffffH
	ORG $+4
	DD	0cH
	DD	FLAT:??0bad_alloc@std@@QAE@ABV01@@Z
xdata$x	ENDS
;	COMDAT ??_R0?AVbad_alloc@std@@@8
data$r	SEGMENT
??_R0?AVbad_alloc@std@@@8 DD FLAT:??_7type_info@@6B@	; std::bad_alloc `RTTI Type Descriptor'
	DD	00H
	DB	'.?AVbad_alloc@std@@', 00H
data$r	ENDS
;	COMDAT __CT??_R0?AVbad_array_new_length@std@@@8??0bad_array_new_length@std@@QAE@ABV01@@Z12
xdata$x	SEGMENT
__CT??_R0?AVbad_array_new_length@std@@@8??0bad_array_new_length@std@@QAE@ABV01@@Z12 DD 00H
	DD	FLAT:??_R0?AVbad_array_new_length@std@@@8
	DD	00H
	DD	0ffffffffH
	ORG $+4
	DD	0cH
	DD	FLAT:??0bad_array_new_length@std@@QAE@ABV01@@Z
xdata$x	ENDS
;	COMDAT ??_R0?AVbad_array_new_length@std@@@8
data$r	SEGMENT
??_R0?AVbad_array_new_length@std@@@8 DD FLAT:??_7type_info@@6B@ ; std::bad_array_new_length `RTTI Type Descriptor'
	DD	00H
	DB	'.?AVbad_array_new_length@std@@', 00H
data$r	ENDS
;	COMDAT __CTA3?AVbad_array_new_length@std@@
xdata$x	SEGMENT
__CTA3?AVbad_array_new_length@std@@ DD 03H
	DD	FLAT:__CT??_R0?AVbad_array_new_length@std@@@8??0bad_array_new_length@std@@QAE@ABV01@@Z12
	DD	FLAT:__CT??_R0?AVbad_alloc@std@@@8??0bad_alloc@std@@QAE@ABV01@@Z12
	DD	FLAT:__CT??_R0?AVexception@std@@@8??0exception@std@@QAE@ABV01@@Z12
xdata$x	ENDS
;	COMDAT __TI3?AVbad_array_new_length@std@@
xdata$x	SEGMENT
__TI3?AVbad_array_new_length@std@@ DD 00H
	DD	FLAT:??1bad_array_new_length@std@@UAE@XZ
	DD	00H
	DD	FLAT:__CTA3?AVbad_array_new_length@std@@
xdata$x	ENDS
;	COMDAT __CT??_R0?AVexception@std@@@8??0exception@std@@QAE@ABV01@@Z12
xdata$x	SEGMENT
__CT??_R0?AVexception@std@@@8??0exception@std@@QAE@ABV01@@Z12 DD 00H
	DD	FLAT:??_R0?AVexception@std@@@8
	DD	00H
	DD	0ffffffffH
	ORG $+4
	DD	0cH
	DD	FLAT:??0exception@std@@QAE@ABV01@@Z
xdata$x	ENDS
;	COMDAT ??_R0?AVexception@std@@@8
data$r	SEGMENT
??_R0?AVexception@std@@@8 DD FLAT:??_7type_info@@6B@	; std::exception `RTTI Type Descriptor'
	DD	00H
	DB	'.?AVexception@std@@', 00H
data$r	ENDS
;	COMDAT ??_C@_0BF@KINCDENJ@bad?5array?5new?5length@
CONST	SEGMENT
??_C@_0BF@KINCDENJ@bad?5array?5new?5length@ DB 'bad array new length', 00H ; `string'
CONST	ENDS
;	COMDAT ??_7bad_array_new_length@std@@6B@
CONST	SEGMENT
??_7bad_array_new_length@std@@6B@ DD FLAT:??_R4bad_array_new_length@std@@6B@ ; std::bad_array_new_length::`vftable'
	DD	FLAT:??_Ebad_array_new_length@std@@UAEPAXI@Z
	DD	FLAT:?what@exception@std@@UBEPBDXZ
CONST	ENDS
;	COMDAT ??_7bad_alloc@std@@6B@
CONST	SEGMENT
??_7bad_alloc@std@@6B@ DD FLAT:??_R4bad_alloc@std@@6B@	; std::bad_alloc::`vftable'
	DD	FLAT:??_Ebad_alloc@std@@UAEPAXI@Z
	DD	FLAT:?what@exception@std@@UBEPBDXZ
CONST	ENDS
;	COMDAT ??_C@_0BC@EOODALEL@Unknown?5exception@
CONST	SEGMENT
??_C@_0BC@EOODALEL@Unknown?5exception@ DB 'Unknown exception', 00H ; `string'
CONST	ENDS
;	COMDAT ??_7exception@std@@6B@
CONST	SEGMENT
??_7exception@std@@6B@ DD FLAT:??_R4exception@std@@6B@	; std::exception::`vftable'
	DD	FLAT:??_Eexception@std@@UAEPAXI@Z
	DD	FLAT:?what@exception@std@@UBEPBDXZ
CONST	ENDS
;	COMDAT ??_C@_00CNPNBAHC@@
CONST	SEGMENT
??_C@_00CNPNBAHC@@ DB 00H				; `string'
CONST	ENDS
;	COMDAT xdata$x
xdata$x	SEGMENT
__unwindtable$??$?0U?$pair@$$CBKPAVIBuff@@@std@@@?$_Tree_temp_node@V?$allocator@U?$_Tree_node@U?$pair@$$CBKPAVIBuff@@@std@@PAX@std@@@std@@@std@@QAE@AAV?$allocator@U?$_Tree_node@U?$pair@$$CBKPAVIBuff@@@std@@PAX@std@@@1@PAU?$_Tree_node@U?$pair@$$CBKPAVIBuff@@@std@@PAX@1@$$QAU?$pair@$$CBKPAVIBuff@@@1@@Z DD 0ffffffffH
	DD	FLAT:__unwindfunclet$??$?0U?$pair@$$CBKPAVIBuff@@@std@@@?$_Tree_temp_node@V?$allocator@U?$_Tree_node@U?$pair@$$CBKPAVIBuff@@@std@@PAX@std@@@std@@@std@@QAE@AAV?$allocator@U?$_Tree_node@U?$pair@$$CBKPAVIBuff@@@std@@PAX@std@@@1@PAU?$_Tree_node@U?$pair@$$CBKPAVIBuff@@@std@@PAX@1@$$QAU?$pair@$$CBKPAVIBuff@@@1@@Z$1
__ehfuncinfo$??$?0U?$pair@$$CBKPAVIBuff@@@std@@@?$_Tree_temp_node@V?$allocator@U?$_Tree_node@U?$pair@$$CBKPAVIBuff@@@std@@PAX@std@@@std@@@std@@QAE@AAV?$allocator@U?$_Tree_node@U?$pair@$$CBKPAVIBuff@@@std@@PAX@std@@@1@PAU?$_Tree_node@U?$pair@$$CBKPAVIBuff@@@std@@PAX@1@$$QAU?$pair@$$CBKPAVIBuff@@@1@@Z DD 019930522H
	DD	01H
	DD	FLAT:__unwindtable$??$?0U?$pair@$$CBKPAVIBuff@@@std@@@?$_Tree_temp_node@V?$allocator@U?$_Tree_node@U?$pair@$$CBKPAVIBuff@@@std@@PAX@std@@@std@@@std@@QAE@AAV?$allocator@U?$_Tree_node@U?$pair@$$CBKPAVIBuff@@@std@@PAX@std@@@1@PAU?$_Tree_node@U?$pair@$$CBKPAVIBuff@@@std@@PAX@1@$$QAU?$pair@$$CBKPAVIBuff@@@1@@Z
	DD	2 DUP(00H)
	DD	2 DUP(00H)
	DD	00H
	DD	01H
xdata$x	ENDS
;	COMDAT xdata$x
xdata$x	SEGMENT
__unwindtable$??0?$_Tree_temp_node_alloc@V?$allocator@U?$_Tree_node@U?$pair@$$CBKPAVIBuff@@@std@@PAX@std@@@std@@@std@@QAE@AAV?$allocator@U?$_Tree_node@U?$pair@$$CBKPAVIBuff@@@std@@PAX@std@@@1@@Z DD 0ffffffffH
	DD	FLAT:__unwindfunclet$??0?$_Tree_temp_node_alloc@V?$allocator@U?$_Tree_node@U?$pair@$$CBKPAVIBuff@@@std@@PAX@std@@@std@@@std@@QAE@AAV?$allocator@U?$_Tree_node@U?$pair@$$CBKPAVIBuff@@@std@@PAX@std@@@1@@Z$0
__ehfuncinfo$??0?$_Tree_temp_node_alloc@V?$allocator@U?$_Tree_node@U?$pair@$$CBKPAVIBuff@@@std@@PAX@std@@@std@@@std@@QAE@AAV?$allocator@U?$_Tree_node@U?$pair@$$CBKPAVIBuff@@@std@@PAX@std@@@1@@Z DD 019930522H
	DD	01H
	DD	FLAT:__unwindtable$??0?$_Tree_temp_node_alloc@V?$allocator@U?$_Tree_node@U?$pair@$$CBKPAVIBuff@@@std@@PAX@std@@@std@@@std@@QAE@AAV?$allocator@U?$_Tree_node@U?$pair@$$CBKPAVIBuff@@@std@@PAX@std@@@1@@Z
	DD	2 DUP(00H)
	DD	2 DUP(00H)
	DD	00H
	DD	01H
xdata$x	ENDS
;	COMDAT xdata$x
xdata$x	SEGMENT
__unwindtable$??$_Emplace@U?$pair@$$CBKPAVIBuff@@@std@@@?$_Tree@V?$_Tmap_traits@KPAVIBuff@@U?$less@K@std@@V?$allocator@U?$pair@$$CBKPAVIBuff@@@std@@@3@$0A@@std@@@std@@IAE?AU?$pair@PAU?$_Tree_node@U?$pair@$$CBKPAVIBuff@@@std@@PAX@std@@_N@1@$$QAU?$pair@$$CBKPAVIBuff@@@1@@Z DD 0ffffffffH
	DD	FLAT:__unwindfunclet$??$_Emplace@U?$pair@$$CBKPAVIBuff@@@std@@@?$_Tree@V?$_Tmap_traits@KPAVIBuff@@U?$less@K@std@@V?$allocator@U?$pair@$$CBKPAVIBuff@@@std@@@3@$0A@@std@@@std@@IAE?AU?$pair@PAU?$_Tree_node@U?$pair@$$CBKPAVIBuff@@@std@@PAX@std@@_N@1@$$QAU?$pair@$$CBKPAVIBuff@@@1@@Z$2
__ehfuncinfo$??$_Emplace@U?$pair@$$CBKPAVIBuff@@@std@@@?$_Tree@V?$_Tmap_traits@KPAVIBuff@@U?$less@K@std@@V?$allocator@U?$pair@$$CBKPAVIBuff@@@std@@@3@$0A@@std@@@std@@IAE?AU?$pair@PAU?$_Tree_node@U?$pair@$$CBKPAVIBuff@@@std@@PAX@std@@_N@1@$$QAU?$pair@$$CBKPAVIBuff@@@1@@Z DD 019930522H
	DD	01H
	DD	FLAT:__unwindtable$??$_Emplace@U?$pair@$$CBKPAVIBuff@@@std@@@?$_Tree@V?$_Tmap_traits@KPAVIBuff@@U?$less@K@std@@V?$allocator@U?$pair@$$CBKPAVIBuff@@@std@@@3@$0A@@std@@@std@@IAE?AU?$pair@PAU?$_Tree_node@U?$pair@$$CBKPAVIBuff@@@std@@PAX@std@@_N@1@$$QAU?$pair@$$CBKPAVIBuff@@@1@@Z
	DD	2 DUP(00H)
	DD	2 DUP(00H)
	DD	00H
	DD	01H
xdata$x	ENDS
;	COMDAT xdata$x
xdata$x	SEGMENT
__unwindtable$??$insert@$0A@$0A@@?$_Tree@V?$_Tmap_traits@KPAVIBuff@@U?$less@K@std@@V?$allocator@U?$pair@$$CBKPAVIBuff@@@std@@@3@$0A@@std@@@std@@QAE?AU?$pair@V?$_Tree_iterator@V?$_Tree_val@U?$_Tree_simple_types@U?$pair@$$CBKPAVIBuff@@@std@@@std@@@std@@@std@@_N@1@$$QAU?$pair@$$CBKPAVIBuff@@@1@@Z DD 0ffffffffH
	DD	FLAT:__unwindfunclet$??$insert@$0A@$0A@@?$_Tree@V?$_Tmap_traits@KPAVIBuff@@U?$less@K@std@@V?$allocator@U?$pair@$$CBKPAVIBuff@@@std@@@3@$0A@@std@@@std@@QAE?AU?$pair@V?$_Tree_iterator@V?$_Tree_val@U?$_Tree_simple_types@U?$pair@$$CBKPAVIBuff@@@std@@@std@@@std@@@std@@_N@1@$$QAU?$pair@$$CBKPAVIBuff@@@1@@Z$2
__ehfuncinfo$??$insert@$0A@$0A@@?$_Tree@V?$_Tmap_traits@KPAVIBuff@@U?$less@K@std@@V?$allocator@U?$pair@$$CBKPAVIBuff@@@std@@@3@$0A@@std@@@std@@QAE?AU?$pair@V?$_Tree_iterator@V?$_Tree_val@U?$_Tree_simple_types@U?$pair@$$CBKPAVIBuff@@@std@@@std@@@std@@@std@@_N@1@$$QAU?$pair@$$CBKPAVIBuff@@@1@@Z DD 019930522H
	DD	01H
	DD	FLAT:__unwindtable$??$insert@$0A@$0A@@?$_Tree@V?$_Tmap_traits@KPAVIBuff@@U?$less@K@std@@V?$allocator@U?$pair@$$CBKPAVIBuff@@@std@@@3@$0A@@std@@@std@@QAE?AU?$pair@V?$_Tree_iterator@V?$_Tree_val@U?$_Tree_simple_types@U?$pair@$$CBKPAVIBuff@@@std@@@std@@@std@@@std@@_N@1@$$QAU?$pair@$$CBKPAVIBuff@@@1@@Z
	DD	2 DUP(00H)
	DD	2 DUP(00H)
	DD	00H
	DD	01H
xdata$x	ENDS
;	COMDAT xdata$x
xdata$x	SEGMENT
__unwindtable$?RemoveBuffs@CBuffMgr@@QAEXKK@Z DD 0ffffffffH
	DD	FLAT:__unwindfunclet$?RemoveBuffs@CBuffMgr@@QAEXKK@Z$0
__ehfuncinfo$?RemoveBuffs@CBuffMgr@@QAEXKK@Z DD 019930522H
	DD	01H
	DD	FLAT:__unwindtable$?RemoveBuffs@CBuffMgr@@QAEXKK@Z
	DD	2 DUP(00H)
	DD	2 DUP(00H)
	DD	00H
	DD	01H
xdata$x	ENDS
;	COMDAT xdata$x
xdata$x	SEGMENT
__unwindtable$?Process@CBuffMgr@@QAEXXZ DD 0ffffffffH
	DD	FLAT:__unwindfunclet$?Process@CBuffMgr@@QAEXXZ$0
__ehfuncinfo$?Process@CBuffMgr@@QAEXXZ DD 019930522H
	DD	01H
	DD	FLAT:__unwindtable$?Process@CBuffMgr@@QAEXXZ
	DD	2 DUP(00H)
	DD	2 DUP(00H)
	DD	00H
	DD	01H
xdata$x	ENDS
;	COMDAT xdata$x
xdata$x	SEGMENT
__unwindtable$?Add@CBuffMgr@@AAE_NPAVIBuff@@@Z DD 0ffffffffH
	DD	FLAT:__unwindfunclet$?Add@CBuffMgr@@AAE_NPAVIBuff@@@Z$2
__ehfuncinfo$?Add@CBuffMgr@@AAE_NPAVIBuff@@@Z DD 019930522H
	DD	01H
	DD	FLAT:__unwindtable$?Add@CBuffMgr@@AAE_NPAVIBuff@@@Z
	DD	2 DUP(00H)
	DD	2 DUP(00H)
	DD	00H
	DD	01H
xdata$x	ENDS
;	COMDAT xdata$x
xdata$x	SEGMENT
__unwindtable$??4CBuffMgr@@QAEAAV0@AAV0@@Z DD 0ffffffffH
	DD	FLAT:__unwindfunclet$??4CBuffMgr@@QAEAAV0@AAV0@@Z$2
__ehfuncinfo$??4CBuffMgr@@QAEAAV0@AAV0@@Z DD 019930522H
	DD	01H
	DD	FLAT:__unwindtable$??4CBuffMgr@@QAEAAV0@AAV0@@Z
	DD	2 DUP(00H)
	DD	2 DUP(00H)
	DD	00H
	DD	01H
xdata$x	ENDS
;	COMDAT xdata$x
xdata$x	SEGMENT
__unwindtable$?Serialize@CBuffMgr@@QAEXAAVCAr@@@Z DD 0ffffffffH
	DD	FLAT:__unwindfunclet$?Serialize@CBuffMgr@@QAEXAAVCAr@@@Z$2
__ehfuncinfo$?Serialize@CBuffMgr@@QAEXAAVCAr@@@Z DD 019930522H
	DD	01H
	DD	FLAT:__unwindtable$?Serialize@CBuffMgr@@QAEXAAVCAr@@@Z
	DD	2 DUP(00H)
	DD	2 DUP(00H)
	DD	00H
	DD	01H
xdata$x	ENDS
;	COMDAT xdata$x
xdata$x	SEGMENT
__unwindtable$?Release@IBuffItemBase@@UAEXPAVCBuffMgr@@@Z DD 0ffffffffH
	DD	FLAT:__unwindfunclet$?Release@IBuffItemBase@@UAEXPAVCBuffMgr@@@Z$2
	DD	0ffffffffH
	DD	FLAT:__unwindfunclet$?Release@IBuffItemBase@@UAEXPAVCBuffMgr@@@Z$0
	DD	0ffffffffH
	DD	FLAT:__unwindfunclet$?Release@IBuffItemBase@@UAEXPAVCBuffMgr@@@Z$1
__ehfuncinfo$?Release@IBuffItemBase@@UAEXPAVCBuffMgr@@@Z DD 019930522H
	DD	03H
	DD	FLAT:__unwindtable$?Release@IBuffItemBase@@UAEXPAVCBuffMgr@@@Z
	DD	2 DUP(00H)
	DD	2 DUP(00H)
	DD	00H
	DD	01H
xdata$x	ENDS
;	COMDAT xdata$x
xdata$x	SEGMENT
__unwindtable$??0?$CStringT@DV?$StrTraitMFC@DV?$ChTraitsCRT@D@ATL@@@@@ATL@@QAE@PBD@Z DD 0ffffffffH
	DD	FLAT:__unwindfunclet$??0?$CStringT@DV?$StrTraitMFC@DV?$ChTraitsCRT@D@ATL@@@@@ATL@@QAE@PBD@Z$0
__ehfuncinfo$??0?$CStringT@DV?$StrTraitMFC@DV?$ChTraitsCRT@D@ATL@@@@@ATL@@QAE@PBD@Z DD 019930522H
	DD	01H
	DD	FLAT:__unwindtable$??0?$CStringT@DV?$StrTraitMFC@DV?$ChTraitsCRT@D@ATL@@@@@ATL@@QAE@PBD@Z
	DD	2 DUP(00H)
	DD	2 DUP(00H)
	DD	00H
	DD	01H
xdata$x	ENDS
; Function compile flags: /Ogtp
; File C:\Program Files\Microsoft Visual Studio\2022\Professional\VC\Tools\MSVC\14.44.35207\include\vector
; File C:\Program Files\Microsoft Visual Studio\2022\Professional\VC\Tools\MSVC\14.44.35207\include\xmemory
; File C:\Program Files\Microsoft Visual Studio\2022\Professional\VC\Tools\MSVC\14.44.35207\include\vector
; File C:\Program Files\Microsoft Visual Studio\2022\Professional\VC\Tools\MSVC\14.44.35207\include\xmemory
; File C:\Program Files\Microsoft Visual Studio\2022\Professional\VC\Tools\MSVC\14.44.35207\include\vector
; File C:\Program Files\Microsoft Visual Studio\2022\Professional\VC\Tools\MSVC\14.44.35207\include\xmemory
; File C:\Program Files\Microsoft Visual Studio\2022\Professional\VC\Tools\MSVC\14.44.35207\include\vector
; File C:\Program Files\Microsoft Visual Studio\2022\Professional\VC\Tools\MSVC\14.44.35207\include\xmemory
; File C:\Program Files\Microsoft Visual Studio\2022\Professional\VC\Tools\MSVC\14.44.35207\include\vector
; File C:\Program Files\Microsoft Visual Studio\2022\Professional\VC\Tools\MSVC\14.44.35207\include\xmemory
; File C:\Program Files\Microsoft Visual Studio\2022\Professional\VC\Tools\MSVC\14.44.35207\include\vector
; File C:\Program Files\Microsoft Visual Studio\2022\Professional\VC\Tools\MSVC\14.44.35207\include\xmemory
; File C:\Program Files\Microsoft Visual Studio\2022\Professional\VC\Tools\MSVC\14.44.35207\include\vector
; File C:\Program Files\Microsoft Visual Studio\2022\Professional\VC\Tools\MSVC\14.44.35207\include\xmemory
; File C:\Program Files\Microsoft Visual Studio\2022\Professional\VC\Tools\MSVC\14.44.35207\include\vector
; File C:\Program Files\Microsoft Visual Studio\2022\Professional\VC\Tools\MSVC\14.44.35207\include\xmemory
; File C:\Program Files\Microsoft Visual Studio\2022\Professional\VC\Tools\MSVC\14.44.35207\include\vector
;	COMDAT ??$_Emplace_reallocate@J@?$vector@JV?$allocator@J@std@@@std@@AAEPAJQAJ$$QAJ@Z
_TEXT	SEGMENT
__Newsize$1$ = -12					; size = 4
tv652 = -8						; size = 4
tv650 = -4						; size = 4
__Whereptr$ = 8						; size = 4
_<_Val_0>$ = 12						; size = 4
??$_Emplace_reallocate@J@?$vector@JV?$allocator@J@std@@@std@@AAEPAJQAJ$$QAJ@Z PROC ; std::vector<long,std::allocator<long> >::_Emplace_reallocate<long>, COMDAT
; _this$ = ecx

; 875  :     _CONSTEXPR20 pointer _Emplace_reallocate(const pointer _Whereptr, _Valty&&... _Val) {

  00000	55		 push	 ebp
  00001	8b ec		 mov	 ebp, esp
  00003	83 ec 0c	 sub	 esp, 12			; 0000000cH
  00006	53		 push	 ebx

; 876  :         // reallocate and insert by perfectly forwarding _Val at _Whereptr
; 877  :         _Alty& _Al        = _Getal();
; 878  :         auto& _My_data    = _Mypair._Myval2;
; 879  :         pointer& _Myfirst = _My_data._Myfirst;
; 880  :         pointer& _Mylast  = _My_data._Mylast;
; 881  : 
; 882  :         _STL_INTERNAL_CHECK(_Mylast == _My_data._Myend); // check that we have no unused capacity
; 883  : 
; 884  :         const auto _Whereoff = static_cast<size_type>(_Whereptr - _Myfirst);

  00007	8b 5d 08	 mov	 ebx, DWORD PTR __Whereptr$[ebp]
  0000a	56		 push	 esi
  0000b	8b f1		 mov	 esi, ecx
  0000d	57		 push	 edi
  0000e	8b 0e		 mov	 ecx, DWORD PTR [esi]
  00010	2b d9		 sub	 ebx, ecx

; 885  :         const auto _Oldsize  = static_cast<size_type>(_Mylast - _Myfirst);

  00012	8b 46 04	 mov	 eax, DWORD PTR [esi+4]
  00015	2b c1		 sub	 eax, ecx
  00017	c1 fb 02	 sar	 ebx, 2
  0001a	c1 f8 02	 sar	 eax, 2

; 886  : 
; 887  :         if (_Oldsize == max_size()) {

  0001d	3d ff ff ff 3f	 cmp	 eax, 1073741823		; 3fffffffH
  00022	0f 84 13 01 00
	00		 je	 $LN111@Emplace_re

; 1924 :         return static_cast<size_type>(_My_data._Myend - _My_data._Myfirst);

  00028	8b 56 08	 mov	 edx, DWORD PTR [esi+8]

; 889  :         }
; 890  : 
; 891  :         const size_type _Newsize = _Oldsize + 1;

  0002b	8d 78 01	 lea	 edi, DWORD PTR [eax+1]

; 1924 :         return static_cast<size_type>(_My_data._Myend - _My_data._Myfirst);

  0002e	2b d1		 sub	 edx, ecx

; 889  :         }
; 890  : 
; 891  :         const size_type _Newsize = _Oldsize + 1;

  00030	89 7d f4	 mov	 DWORD PTR __Newsize$1$[ebp], edi

; 1924 :         return static_cast<size_type>(_My_data._Myend - _My_data._Myfirst);

  00033	c1 fa 02	 sar	 edx, 2

; 2011 :         if (_Oldcapacity > _Max - _Oldcapacity / 2) {

  00036	b8 ff ff ff 3f	 mov	 eax, 1073741823		; 3fffffffH
  0003b	8b ca		 mov	 ecx, edx
  0003d	d1 e9		 shr	 ecx, 1
  0003f	2b c1		 sub	 eax, ecx
  00041	3b d0		 cmp	 edx, eax
  00043	76 14		 jbe	 SHORT $LN8@Emplace_re

; 2012 :             return _Max; // geometric growth would overflow

  00045	b8 fc ff ff ff	 mov	 eax, -4			; fffffffcH
  0004a	c7 45 f8 fc ff
	ff ff		 mov	 DWORD PTR tv652[ebp], -4 ; fffffffcH
; File C:\Program Files\Microsoft Visual Studio\2022\Professional\VC\Tools\MSVC\14.44.35207\include\xmemory

; 253  :             return _Allocate_manually_vector_aligned<_Traits>(_Bytes);

  00051	50		 push	 eax
  00052	e8 00 00 00 00	 call	 ??$_Allocate_manually_vector_aligned@U_Default_allocate_traits@std@@@std@@YAPAXI@Z ; std::_Allocate_manually_vector_aligned<std::_Default_allocate_traits>
  00057	eb 3d		 jmp	 SHORT $LN109@Emplace_re
$LN8@Emplace_re:
; File C:\Program Files\Microsoft Visual Studio\2022\Professional\VC\Tools\MSVC\14.44.35207\include\vector

; 2015 :         const size_type _Geometric = _Oldcapacity + _Oldcapacity / 2;

  00059	8d 04 11	 lea	 eax, DWORD PTR [ecx+edx]
; File C:\Program Files\Microsoft Visual Studio\2022\Professional\VC\Tools\MSVC\14.44.35207\include\xmemory

; 117  :         if (_Count > _Max_possible) {

  0005c	8b cf		 mov	 ecx, edi
  0005e	3b c7		 cmp	 eax, edi
  00060	0f 43 c8	 cmovae	 ecx, eax
  00063	81 f9 ff ff ff
	3f		 cmp	 ecx, 1073741823		; 3fffffffH
  00069	0f 87 d1 00 00
	00		 ja	 $LN112@Emplace_re

; 119  :         }
; 120  :     }
; 121  : 
; 122  :     return _Count * _Ty_size;

  0006f	8d 04 8d 00 00
	00 00		 lea	 eax, DWORD PTR [ecx*4]
  00076	89 45 f8	 mov	 DWORD PTR tv652[ebp], eax

; 227  :     if (_Bytes == 0) {

  00079	85 c0		 test	 eax, eax
  0007b	75 04		 jne	 SHORT $LN23@Emplace_re

; 228  :         return nullptr;

  0007d	33 ff		 xor	 edi, edi
  0007f	eb 1a		 jmp	 SHORT $LN22@Emplace_re
$LN23@Emplace_re:

; 229  :     }
; 230  : 
; 231  : #if _HAS_CXX20 // TRANSITION, GH-1532
; 232  :     if (_STD is_constant_evaluated()) {
; 233  :         return _Traits::_Allocate(_Bytes);
; 234  :     }
; 235  : #endif // _HAS_CXX20
; 236  : 
; 237  : #ifdef __cpp_aligned_new
; 238  :     if constexpr (_Align > __STDCPP_DEFAULT_NEW_ALIGNMENT__) {
; 239  :         size_t _Passed_align = _Align;
; 240  : #if defined(_M_IX86) || defined(_M_X64)
; 241  :         if (_Bytes >= _Big_allocation_threshold) {
; 242  :             // boost the alignment of big allocations to help autovectorization
; 243  :             _Passed_align = (_STD max)(_Align, _Big_allocation_alignment);
; 244  :         }
; 245  : #endif // defined(_M_IX86) || defined(_M_X64)
; 246  :         return _Traits::_Allocate_aligned(_Bytes, _Passed_align);
; 247  :     } else
; 248  : #endif // defined(__cpp_aligned_new)
; 249  :     {
; 250  : #if defined(_M_IX86) || defined(_M_X64)
; 251  :         if (_Bytes >= _Big_allocation_threshold) {

  00081	3d 00 10 00 00	 cmp	 eax, 4096		; 00001000H
  00086	72 08		 jb	 SHORT $LN24@Emplace_re

; 253  :             return _Allocate_manually_vector_aligned<_Traits>(_Bytes);

  00088	50		 push	 eax
  00089	e8 00 00 00 00	 call	 ??$_Allocate_manually_vector_aligned@U_Default_allocate_traits@std@@@std@@YAPAXI@Z ; std::_Allocate_manually_vector_aligned<std::_Default_allocate_traits>
  0008e	eb 06		 jmp	 SHORT $LN109@Emplace_re
$LN24@Emplace_re:

; 136  :         return ::operator new(_Bytes);

  00090	50		 push	 eax
  00091	e8 00 00 00 00	 call	 ??2@YAPAXI@Z		; operator new
$LN109@Emplace_re:
; File C:\Program Files\Microsoft Visual Studio\2022\Professional\VC\Tools\MSVC\14.44.35207\include\vector

; 900  :         _Alty_traits::construct(_Al, _STD _Unfancy(_Newvec + _Whereoff), _STD forward<_Valty>(_Val)...);

  00096	8b f8		 mov	 edi, eax
  00098	83 c4 04	 add	 esp, 4
$LN22@Emplace_re:
  0009b	8b 45 0c	 mov	 eax, DWORD PTR _<_Val_0>$[ebp]
  0009e	8d 0c 9f	 lea	 ecx, DWORD PTR [edi+ebx*4]

; 901  :         _Constructed_first = _Newvec + _Whereoff;
; 902  : 
; 903  :         if (_Whereptr == _Mylast) { // at back, provide strong guarantee

  000a1	8b 5d 08	 mov	 ebx, DWORD PTR __Whereptr$[ebp]
  000a4	89 4d fc	 mov	 DWORD PTR tv650[ebp], ecx
  000a7	8b 00		 mov	 eax, DWORD PTR [eax]
  000a9	89 01		 mov	 DWORD PTR [ecx], eax
  000ab	8b 46 04	 mov	 eax, DWORD PTR [esi+4]
  000ae	8b 0e		 mov	 ecx, DWORD PTR [esi]
  000b0	3b d8		 cmp	 ebx, eax
  000b2	75 07		 jne	 SHORT $LN3@Emplace_re

; 909  :         } else { // provide basic guarantee

  000b4	8b 5d fc	 mov	 ebx, DWORD PTR tv650[ebp]
; File C:\Program Files\Microsoft Visual Studio\2022\Professional\VC\Tools\MSVC\14.44.35207\include\xmemory

; 1992 :             _STD _Copy_memmove(_UFirst, _ULast, _STD _Unfancy(_Dest));

  000b7	8b d7		 mov	 edx, edi
; File C:\Program Files\Microsoft Visual Studio\2022\Professional\VC\Tools\MSVC\14.44.35207\include\vector

; 909  :         } else { // provide basic guarantee

  000b9	eb 16		 jmp	 SHORT $LN52@Emplace_re
$LN3@Emplace_re:
; File C:\Program Files\Microsoft Visual Studio\2022\Professional\VC\Tools\MSVC\14.44.35207\include\xmemory

; 1992 :             _STD _Copy_memmove(_UFirst, _ULast, _STD _Unfancy(_Dest));

  000bb	57		 push	 edi
  000bc	53		 push	 ebx
  000bd	51		 push	 ecx
  000be	e8 00 00 00 00	 call	 ??$_Copy_memmove@PAJPAJ@std@@YAPAJPAJ00@Z ; std::_Copy_memmove<long *,long *>
  000c3	8b 46 04	 mov	 eax, DWORD PTR [esi+4]
  000c6	8b cb		 mov	 ecx, ebx
; File C:\Program Files\Microsoft Visual Studio\2022\Professional\VC\Tools\MSVC\14.44.35207\include\vector

; 912  :             _STD _Uninitialized_move(_Whereptr, _Mylast, _Newvec + _Whereoff + 1, _Al);

  000c8	8b 5d fc	 mov	 ebx, DWORD PTR tv650[ebp]
; File C:\Program Files\Microsoft Visual Studio\2022\Professional\VC\Tools\MSVC\14.44.35207\include\xmemory

; 1992 :             _STD _Copy_memmove(_UFirst, _ULast, _STD _Unfancy(_Dest));

  000cb	83 c4 0c	 add	 esp, 12			; 0000000cH
; File C:\Program Files\Microsoft Visual Studio\2022\Professional\VC\Tools\MSVC\14.44.35207\include\vector

; 912  :             _STD _Uninitialized_move(_Whereptr, _Mylast, _Newvec + _Whereoff + 1, _Al);

  000ce	8d 53 04	 lea	 edx, DWORD PTR [ebx+4]
$LN52@Emplace_re:

; 913  :         }
; 914  : 
; 915  :         _Guard._New_begin = nullptr;

  000d1	52		 push	 edx
  000d2	50		 push	 eax
  000d3	51		 push	 ecx
  000d4	e8 00 00 00 00	 call	 ??$_Copy_memmove@PAJPAJ@std@@YAPAJPAJ00@Z ; std::_Copy_memmove<long *,long *>

; 2069 :         if (_Myfirst) { // destroy and deallocate old array

  000d9	8b 06		 mov	 eax, DWORD PTR [esi]

; 913  :         }
; 914  : 
; 915  :         _Guard._New_begin = nullptr;

  000db	83 c4 0c	 add	 esp, 12			; 0000000cH

; 2069 :         if (_Myfirst) { // destroy and deallocate old array

  000de	85 c0		 test	 eax, eax
  000e0	74 2c		 je	 SHORT $LN72@Emplace_re

; 2070 :             _STD _Destroy_range(_Myfirst, _Mylast, _Al);
; 2071 :             _ASAN_VECTOR_REMOVE;
; 2072 :             _Al.deallocate(_Myfirst, static_cast<size_type>(_Myend - _Myfirst));

  000e2	8b 4e 08	 mov	 ecx, DWORD PTR [esi+8]
  000e5	2b c8		 sub	 ecx, eax
; File C:\Program Files\Microsoft Visual Studio\2022\Professional\VC\Tools\MSVC\14.44.35207\include\xmemory

; 985  :         _STD _Deallocate<_New_alignof<_Ty>>(_Ptr, sizeof(_Ty) * _Count);

  000e7	83 e1 fc	 and	 ecx, -4			; fffffffcH

; 284  :         if (_Bytes >= _Big_allocation_threshold) {

  000ea	81 f9 00 10 00
	00		 cmp	 ecx, 4096		; 00001000H
  000f0	72 12		 jb	 SHORT $LN77@Emplace_re

; 205  :     const uintptr_t _Ptr_container   = _Ptr_user[-1];

  000f2	8b 50 fc	 mov	 edx, DWORD PTR [eax-4]
  000f5	83 c1 23	 add	 ecx, 35			; 00000023H

; 206  : 
; 207  :     // If the following asserts, it likely means that we are performing
; 208  :     // an aligned delete on memory coming from an unaligned allocation.
; 209  :     _STL_ASSERT(_Ptr_user[-2] == _Big_allocation_sentinel, "invalid argument");
; 210  : 
; 211  :     // Extra paranoia on aligned allocation/deallocation; ensure _Ptr_container is
; 212  :     // in range [_Min_back_shift, _Non_user_size]
; 213  : #ifdef _DEBUG
; 214  :     constexpr uintptr_t _Min_back_shift = 2 * sizeof(void*);
; 215  : #else // ^^^ defined(_DEBUG) / !defined(_DEBUG) vvv
; 216  :     constexpr uintptr_t _Min_back_shift = sizeof(void*);
; 217  : #endif // ^^^ !defined(_DEBUG) ^^^
; 218  :     const uintptr_t _Back_shift = reinterpret_cast<uintptr_t>(_Ptr) - _Ptr_container;

  000f8	2b c2		 sub	 eax, edx

; 219  :     _STL_VERIFY(_Back_shift >= _Min_back_shift && _Back_shift <= _Non_user_size, "invalid argument");

  000fa	83 c0 fc	 add	 eax, -4			; fffffffcH
  000fd	83 f8 1f	 cmp	 eax, 31			; 0000001fH
  00100	77 2a		 ja	 SHORT $LN76@Emplace_re

; 220  :     _Ptr = reinterpret_cast<void*>(_Ptr_container);

  00102	8b c2		 mov	 eax, edx
$LN77@Emplace_re:

; 289  :         ::operator delete(_Ptr, _Bytes);

  00104	51		 push	 ecx
  00105	50		 push	 eax
  00106	e8 00 00 00 00	 call	 ??3@YAXPAXI@Z		; operator delete
  0010b	83 c4 08	 add	 esp, 8
$LN72@Emplace_re:
; File C:\Program Files\Microsoft Visual Studio\2022\Professional\VC\Tools\MSVC\14.44.35207\include\vector

; 2076 :         _Mylast  = _Newvec + _Newsize;

  0010e	8b 45 f4	 mov	 eax, DWORD PTR __Newsize$1$[ebp]
  00111	89 3e		 mov	 DWORD PTR [esi], edi
  00113	8d 0c 87	 lea	 ecx, DWORD PTR [edi+eax*4]

; 916  :         _Change_array(_Newvec, _Newsize, _Newcapacity);
; 917  :         return _Newvec + _Whereoff;

  00116	8b c3		 mov	 eax, ebx

; 2076 :         _Mylast  = _Newvec + _Newsize;

  00118	89 4e 04	 mov	 DWORD PTR [esi+4], ecx

; 2077 :         _Myend   = _Newvec + _Newcapacity;

  0011b	8b 4d f8	 mov	 ecx, DWORD PTR tv652[ebp]
  0011e	03 cf		 add	 ecx, edi

; 918  :     }

  00120	5f		 pop	 edi

; 2077 :         _Myend   = _Newvec + _Newcapacity;

  00121	89 4e 08	 mov	 DWORD PTR [esi+8], ecx

; 918  :     }

  00124	5e		 pop	 esi
  00125	5b		 pop	 ebx
  00126	8b e5		 mov	 esp, ebp
  00128	5d		 pop	 ebp
  00129	c2 08 00	 ret	 8
$LN76@Emplace_re:
; File C:\Program Files\Microsoft Visual Studio\2022\Professional\VC\Tools\MSVC\14.44.35207\include\xmemory

; 219  :     _STL_VERIFY(_Back_shift >= _Min_back_shift && _Back_shift <= _Non_user_size, "invalid argument");

  0012c	6a 00		 push	 0
  0012e	6a 00		 push	 0
  00130	6a 00		 push	 0
  00132	6a 00		 push	 0
  00134	6a 00		 push	 0
  00136	e8 00 00 00 00	 call	 __invoke_watson
$LN111@Emplace_re:
; File C:\Program Files\Microsoft Visual Studio\2022\Professional\VC\Tools\MSVC\14.44.35207\include\vector

; 888  :             _Xlength();

  0013b	e8 00 00 00 00	 call	 ?_Xlength@?$vector@JV?$allocator@J@std@@@std@@CAXXZ ; std::vector<long,std::allocator<long> >::_Xlength
$LN112@Emplace_re:
; File C:\Program Files\Microsoft Visual Studio\2022\Professional\VC\Tools\MSVC\14.44.35207\include\xmemory

; 118  :             _Throw_bad_array_new_length(); // multiply overflow

  00140	e8 00 00 00 00	 call	 ?_Throw_bad_array_new_length@std@@YAXXZ ; std::_Throw_bad_array_new_length
$LN108@Emplace_re:
  00145	cc		 int	 3
??$_Emplace_reallocate@J@?$vector@JV?$allocator@J@std@@@std@@AAEPAJQAJ$$QAJ@Z ENDP ; std::vector<long,std::allocator<long> >::_Emplace_reallocate<long>
_TEXT	ENDS
; Function compile flags: /Ogtp
; File C:\Program Files\Microsoft Visual Studio\2022\Professional\VC\Tools\MSVC\14.44.35207\include\xtree
; File C:\Program Files\Microsoft Visual Studio\2022\Professional\VC\Tools\MSVC\14.44.35207\include\utility
; File C:\Program Files\Microsoft Visual Studio\2022\Professional\VC\Tools\MSVC\14.44.35207\include\xmemory
; File C:\Program Files\Microsoft Visual Studio\2022\Professional\VC\Tools\MSVC\14.44.35207\include\xtree
;	COMDAT ??$_Erase_tree@V?$allocator@U?$_Tree_node@U?$pair@$$CBKPAVIBuff@@@std@@PAX@std@@@std@@@?$_Tree_val@U?$_Tree_simple_types@U?$pair@$$CBKPAVIBuff@@@std@@@std@@@std@@QAEXAAV?$allocator@U?$_Tree_node@U?$pair@$$CBKPAVIBuff@@@std@@PAX@std@@@1@PAU?$_Tree_node@U?$pair@$$CBKPAVIBuff@@@std@@PAX@1@@Z
_TEXT	SEGMENT
__Al$ = 8						; size = 4
__Rootnode$ = 12					; size = 4
??$_Erase_tree@V?$allocator@U?$_Tree_node@U?$pair@$$CBKPAVIBuff@@@std@@PAX@std@@@std@@@?$_Tree_val@U?$_Tree_simple_types@U?$pair@$$CBKPAVIBuff@@@std@@@std@@@std@@QAEXAAV?$allocator@U?$_Tree_node@U?$pair@$$CBKPAVIBuff@@@std@@PAX@std@@@1@PAU?$_Tree_node@U?$pair@$$CBKPAVIBuff@@@std@@PAX@1@@Z PROC ; std::_Tree_val<std::_Tree_simple_types<std::pair<unsigned long const ,IBuff *> > >::_Erase_tree<std::allocator<std::_Tree_node<std::pair<unsigned long const ,IBuff *>,void *> > >, COMDAT
; _this$ = ecx

; 767  :     void _Erase_tree(_Alnode& _Al, _Nodeptr _Rootnode) noexcept {

  00000	55		 push	 ebp
  00001	8b ec		 mov	 ebp, esp
  00003	53		 push	 ebx
  00004	56		 push	 esi

; 768  :         while (!_Rootnode->_Isnil) { // free subtrees, then node

  00005	8b 75 0c	 mov	 esi, DWORD PTR __Rootnode$[ebp]
  00008	8b d9		 mov	 ebx, ecx
  0000a	80 7e 0d 00	 cmp	 BYTE PTR [esi+13], 0
  0000e	75 25		 jne	 SHORT $LN34@Erase_tree
  00010	57		 push	 edi
  00011	8b 7d 08	 mov	 edi, DWORD PTR __Al$[ebp]
$LL2@Erase_tree:

; 769  :             _Erase_tree(_Al, _Rootnode->_Right);

  00014	ff 76 08	 push	 DWORD PTR [esi+8]
  00017	8b cb		 mov	 ecx, ebx
  00019	57		 push	 edi
  0001a	e8 00 00 00 00	 call	 ??$_Erase_tree@V?$allocator@U?$_Tree_node@U?$pair@$$CBKPAVIBuff@@@std@@PAX@std@@@std@@@?$_Tree_val@U?$_Tree_simple_types@U?$pair@$$CBKPAVIBuff@@@std@@@std@@@std@@QAEXAAV?$allocator@U?$_Tree_node@U?$pair@$$CBKPAVIBuff@@@std@@PAX@std@@@1@PAU?$_Tree_node@U?$pair@$$CBKPAVIBuff@@@std@@PAX@1@@Z ; std::_Tree_val<std::_Tree_simple_types<std::pair<unsigned long const ,IBuff *> > >::_Erase_tree<std::allocator<std::_Tree_node<std::pair<unsigned long const ,IBuff *>,void *> > >
; File C:\Program Files\Microsoft Visual Studio\2022\Professional\VC\Tools\MSVC\14.44.35207\include\utility

; 773  :     _Ty _Old_val = static_cast<_Ty&&>(_Val);

  0001f	8b c6		 mov	 eax, esi

; 774  :     _Val         = static_cast<_Other&&>(_New_val);

  00021	8b 36		 mov	 esi, DWORD PTR [esi]
; File C:\Program Files\Microsoft Visual Studio\2022\Professional\VC\Tools\MSVC\14.44.35207\include\xmemory

; 289  :         ::operator delete(_Ptr, _Bytes);

  00023	6a 18		 push	 24			; 00000018H
  00025	50		 push	 eax
  00026	e8 00 00 00 00	 call	 ??3@YAXPAXI@Z		; operator delete
  0002b	83 c4 08	 add	 esp, 8
; File C:\Program Files\Microsoft Visual Studio\2022\Professional\VC\Tools\MSVC\14.44.35207\include\xtree

; 768  :         while (!_Rootnode->_Isnil) { // free subtrees, then node

  0002e	80 7e 0d 00	 cmp	 BYTE PTR [esi+13], 0
  00032	74 e0		 je	 SHORT $LL2@Erase_tree
  00034	5f		 pop	 edi
$LN34@Erase_tree:
  00035	5e		 pop	 esi

; 770  :             _Alnode::value_type::_Freenode(_Al, _STD exchange(_Rootnode, _Rootnode->_Left));
; 771  :         }
; 772  :     }

  00036	5b		 pop	 ebx
  00037	5d		 pop	 ebp
  00038	c2 08 00	 ret	 8
??$_Erase_tree@V?$allocator@U?$_Tree_node@U?$pair@$$CBKPAVIBuff@@@std@@PAX@std@@@std@@@?$_Tree_val@U?$_Tree_simple_types@U?$pair@$$CBKPAVIBuff@@@std@@@std@@@std@@QAEXAAV?$allocator@U?$_Tree_node@U?$pair@$$CBKPAVIBuff@@@std@@PAX@std@@@1@PAU?$_Tree_node@U?$pair@$$CBKPAVIBuff@@@std@@PAX@1@@Z ENDP ; std::_Tree_val<std::_Tree_simple_types<std::pair<unsigned long const ,IBuff *> > >::_Erase_tree<std::allocator<std::_Tree_node<std::pair<unsigned long const ,IBuff *>,void *> > >
_TEXT	ENDS
; Function compile flags: /Ogtp
; File C:\IAGOS\server\v18\Source\Source\_Network\Misc\Include\ar.h
;	COMDAT ??$?5I@CAr@@QAEAAV0@AAI@Z
_TEXT	SEGMENT
_t$ = 8							; size = 4
??$?5I@CAr@@QAEAAV0@AAI@Z PROC				; CAr::operator>><unsigned int>, COMDAT
; _this$ = ecx

; 302  : {

  00000	55		 push	 ebp
  00001	8b ec		 mov	 ebp, esp
  00003	8b d1		 mov	 edx, ecx

; 303  : 	if (m_lpBufCur + sizeof(T) <= m_lpBufMax)

  00005	8b 4a 08	 mov	 ecx, DWORD PTR [edx+8]
  00008	8d 41 04	 lea	 eax, DWORD PTR [ecx+4]
  0000b	3b 42 0c	 cmp	 eax, DWORD PTR [edx+12]
  0000e	8b 45 08	 mov	 eax, DWORD PTR _t$[ebp]
  00011	77 0e		 ja	 SHORT $LN2@operator

; 304  : 	{
; 305  : 		t = *(UNALIGNED T*)m_lpBufCur;

  00013	8b 09		 mov	 ecx, DWORD PTR [ecx]
  00015	89 08		 mov	 DWORD PTR [eax], ecx

; 312  : 	}
; 313  : 	return *this;
; 314  : }

  00017	8b c2		 mov	 eax, edx
  00019	83 42 08 04	 add	 DWORD PTR [edx+8], 4
  0001d	5d		 pop	 ebp
  0001e	c2 04 00	 ret	 4
$LN2@operator:

; 306  : 		m_lpBufCur += sizeof(T);
; 307  : 	}
; 308  : 	else
; 309  : 	{
; 310  : 		t = T();

  00021	c7 00 00 00 00
	00		 mov	 DWORD PTR [eax], 0

; 311  : 		m_lpBufCur = m_lpBufMax;

  00027	8b 42 0c	 mov	 eax, DWORD PTR [edx+12]
  0002a	89 42 08	 mov	 DWORD PTR [edx+8], eax

; 312  : 	}
; 313  : 	return *this;
; 314  : }

  0002d	8b c2		 mov	 eax, edx
  0002f	5d		 pop	 ebp
  00030	c2 04 00	 ret	 4
??$?5I@CAr@@QAEAAV0@AAI@Z ENDP				; CAr::operator>><unsigned int>
_TEXT	ENDS
; Function compile flags: /Ogtp
; File C:\IAGOS\server\v18\Source\Source\_Network\Misc\Include\ar.h
;	COMDAT ??$?5J@CAr@@QAEAAV0@AAJ@Z
_TEXT	SEGMENT
_t$ = 8							; size = 4
??$?5J@CAr@@QAEAAV0@AAJ@Z PROC				; CAr::operator>><long>, COMDAT
; _this$ = ecx

; 302  : {

  00000	55		 push	 ebp
  00001	8b ec		 mov	 ebp, esp
  00003	8b d1		 mov	 edx, ecx

; 303  : 	if (m_lpBufCur + sizeof(T) <= m_lpBufMax)

  00005	8b 4a 08	 mov	 ecx, DWORD PTR [edx+8]
  00008	8d 41 04	 lea	 eax, DWORD PTR [ecx+4]
  0000b	3b 42 0c	 cmp	 eax, DWORD PTR [edx+12]
  0000e	8b 45 08	 mov	 eax, DWORD PTR _t$[ebp]
  00011	77 0e		 ja	 SHORT $LN2@operator

; 304  : 	{
; 305  : 		t = *(UNALIGNED T*)m_lpBufCur;

  00013	8b 09		 mov	 ecx, DWORD PTR [ecx]
  00015	89 08		 mov	 DWORD PTR [eax], ecx

; 312  : 	}
; 313  : 	return *this;
; 314  : }

  00017	8b c2		 mov	 eax, edx
  00019	83 42 08 04	 add	 DWORD PTR [edx+8], 4
  0001d	5d		 pop	 ebp
  0001e	c2 04 00	 ret	 4
$LN2@operator:

; 306  : 		m_lpBufCur += sizeof(T);
; 307  : 	}
; 308  : 	else
; 309  : 	{
; 310  : 		t = T();

  00021	c7 00 00 00 00
	00		 mov	 DWORD PTR [eax], 0

; 311  : 		m_lpBufCur = m_lpBufMax;

  00027	8b 42 0c	 mov	 eax, DWORD PTR [edx+12]
  0002a	89 42 08	 mov	 DWORD PTR [edx+8], eax

; 312  : 	}
; 313  : 	return *this;
; 314  : }

  0002d	8b c2		 mov	 eax, edx
  0002f	5d		 pop	 ebp
  00030	c2 04 00	 ret	 4
??$?5J@CAr@@QAEAAV0@AAJ@Z ENDP				; CAr::operator>><long>
_TEXT	ENDS
; Function compile flags: /Ogtp
; File C:\IAGOS\server\v18\Source\Source\_Network\Misc\Include\ar.h
;	COMDAT ??$?5K@CAr@@QAEAAV0@AAK@Z
_TEXT	SEGMENT
_t$ = 8							; size = 4
??$?5K@CAr@@QAEAAV0@AAK@Z PROC				; CAr::operator>><unsigned long>, COMDAT
; _this$ = ecx

; 302  : {

  00000	55		 push	 ebp
  00001	8b ec		 mov	 ebp, esp
  00003	8b d1		 mov	 edx, ecx

; 303  : 	if (m_lpBufCur + sizeof(T) <= m_lpBufMax)

  00005	8b 4a 08	 mov	 ecx, DWORD PTR [edx+8]
  00008	8d 41 04	 lea	 eax, DWORD PTR [ecx+4]
  0000b	3b 42 0c	 cmp	 eax, DWORD PTR [edx+12]
  0000e	8b 45 08	 mov	 eax, DWORD PTR _t$[ebp]
  00011	77 0e		 ja	 SHORT $LN2@operator

; 304  : 	{
; 305  : 		t = *(UNALIGNED T*)m_lpBufCur;

  00013	8b 09		 mov	 ecx, DWORD PTR [ecx]
  00015	89 08		 mov	 DWORD PTR [eax], ecx

; 312  : 	}
; 313  : 	return *this;
; 314  : }

  00017	8b c2		 mov	 eax, edx
  00019	83 42 08 04	 add	 DWORD PTR [edx+8], 4
  0001d	5d		 pop	 ebp
  0001e	c2 04 00	 ret	 4
$LN2@operator:

; 306  : 		m_lpBufCur += sizeof(T);
; 307  : 	}
; 308  : 	else
; 309  : 	{
; 310  : 		t = T();

  00021	c7 00 00 00 00
	00		 mov	 DWORD PTR [eax], 0

; 311  : 		m_lpBufCur = m_lpBufMax;

  00027	8b 42 0c	 mov	 eax, DWORD PTR [edx+12]
  0002a	89 42 08	 mov	 DWORD PTR [edx+8], eax

; 312  : 	}
; 313  : 	return *this;
; 314  : }

  0002d	8b c2		 mov	 eax, edx
  0002f	5d		 pop	 ebp
  00030	c2 04 00	 ret	 4
??$?5K@CAr@@QAEAAV0@AAK@Z ENDP				; CAr::operator>><unsigned long>
_TEXT	ENDS
; Function compile flags: /Ogtp
; File C:\IAGOS\server\v18\Source\Source\_Network\Misc\Include\ar.h
;	COMDAT ??$?6J@CAr@@QAEAAV0@ABJ@Z
_TEXT	SEGMENT
_t$ = 8							; size = 4
??$?6J@CAr@@QAEAAV0@ABJ@Z PROC				; CAr::operator<<<long>, COMDAT
; _this$ = ecx

; 255  : {

  00000	55		 push	 ebp
  00001	8b ec		 mov	 ebp, esp
  00003	56		 push	 esi

; 256  : 	CheckBuf(sizeof(T));

  00004	6a 04		 push	 4
  00006	8b f1		 mov	 esi, ecx
  00008	e8 00 00 00 00	 call	 ?CheckBuf@CAr@@QAEXI@Z	; CAr::CheckBuf

; 257  : 	*(UNALIGNED T*)m_lpBufCur = t;

  0000d	8b 56 08	 mov	 edx, DWORD PTR [esi+8]
  00010	8b 45 08	 mov	 eax, DWORD PTR _t$[ebp]
  00013	8b 00		 mov	 eax, DWORD PTR [eax]
  00015	89 02		 mov	 DWORD PTR [edx], eax

; 258  : 	m_lpBufCur += sizeof(T);
; 259  : 	return *this;

  00017	8b c6		 mov	 eax, esi
  00019	83 46 08 04	 add	 DWORD PTR [esi+8], 4
  0001d	5e		 pop	 esi

; 260  : }

  0001e	5d		 pop	 ebp
  0001f	c2 04 00	 ret	 4
??$?6J@CAr@@QAEAAV0@ABJ@Z ENDP				; CAr::operator<<<long>
_TEXT	ENDS
; Function compile flags: /Ogtp
; File C:\IAGOS\server\v18\Source\Source\_Network\Misc\Include\ar.h
;	COMDAT ??$?6K@CAr@@QAEAAV0@ABK@Z
_TEXT	SEGMENT
_t$ = 8							; size = 4
??$?6K@CAr@@QAEAAV0@ABK@Z PROC				; CAr::operator<<<unsigned long>, COMDAT
; _this$ = ecx

; 255  : {

  00000	55		 push	 ebp
  00001	8b ec		 mov	 ebp, esp
  00003	56		 push	 esi

; 256  : 	CheckBuf(sizeof(T));

  00004	6a 04		 push	 4
  00006	8b f1		 mov	 esi, ecx
  00008	e8 00 00 00 00	 call	 ?CheckBuf@CAr@@QAEXI@Z	; CAr::CheckBuf

; 257  : 	*(UNALIGNED T*)m_lpBufCur = t;

  0000d	8b 56 08	 mov	 edx, DWORD PTR [esi+8]
  00010	8b 45 08	 mov	 eax, DWORD PTR _t$[ebp]
  00013	8b 00		 mov	 eax, DWORD PTR [eax]
  00015	89 02		 mov	 DWORD PTR [edx], eax

; 258  : 	m_lpBufCur += sizeof(T);
; 259  : 	return *this;

  00017	8b c6		 mov	 eax, esi
  00019	83 46 08 04	 add	 DWORD PTR [esi+8], 4
  0001d	5e		 pop	 esi

; 260  : }

  0001e	5d		 pop	 ebp
  0001f	c2 04 00	 ret	 4
??$?6K@CAr@@QAEAAV0@ABK@Z ENDP				; CAr::operator<<<unsigned long>
_TEXT	ENDS
; Function compile flags: /Ogtp
; File C:\IAGOS\server\v18\Source\Source\_Network\Misc\Include\ar.h
;	COMDAT ??$?6I@CAr@@QAEAAV0@ABI@Z
_TEXT	SEGMENT
_t$ = 8							; size = 4
??$?6I@CAr@@QAEAAV0@ABI@Z PROC				; CAr::operator<<<unsigned int>, COMDAT
; _this$ = ecx

; 255  : {

  00000	55		 push	 ebp
  00001	8b ec		 mov	 ebp, esp
  00003	56		 push	 esi

; 256  : 	CheckBuf(sizeof(T));

  00004	6a 04		 push	 4
  00006	8b f1		 mov	 esi, ecx
  00008	e8 00 00 00 00	 call	 ?CheckBuf@CAr@@QAEXI@Z	; CAr::CheckBuf

; 257  : 	*(UNALIGNED T*)m_lpBufCur = t;

  0000d	8b 56 08	 mov	 edx, DWORD PTR [esi+8]
  00010	8b 45 08	 mov	 eax, DWORD PTR _t$[ebp]
  00013	8b 00		 mov	 eax, DWORD PTR [eax]
  00015	89 02		 mov	 DWORD PTR [edx], eax

; 258  : 	m_lpBufCur += sizeof(T);
; 259  : 	return *this;

  00017	8b c6		 mov	 eax, esi
  00019	83 46 08 04	 add	 DWORD PTR [esi+8], 4
  0001d	5e		 pop	 esi

; 260  : }

  0001e	5d		 pop	 ebp
  0001f	c2 04 00	 ret	 4
??$?6I@CAr@@QAEAAV0@ABI@Z ENDP				; CAr::operator<<<unsigned int>
_TEXT	ENDS
; Function compile flags: /Ogtp
; File C:\IAGOS\server\v18\Source\Source\_Network\Misc\Include\ar.h
;	COMDAT ??$?5G@CAr@@QAEAAV0@AAG@Z
_TEXT	SEGMENT
_t$ = 8							; size = 4
??$?5G@CAr@@QAEAAV0@AAG@Z PROC				; CAr::operator>><unsigned short>, COMDAT
; _this$ = ecx

; 302  : {

  00000	55		 push	 ebp
  00001	8b ec		 mov	 ebp, esp
  00003	8b d1		 mov	 edx, ecx

; 303  : 	if (m_lpBufCur + sizeof(T) <= m_lpBufMax)

  00005	8b 4a 08	 mov	 ecx, DWORD PTR [edx+8]
  00008	8d 41 02	 lea	 eax, DWORD PTR [ecx+2]
  0000b	3b 42 0c	 cmp	 eax, DWORD PTR [edx+12]
  0000e	8b 45 08	 mov	 eax, DWORD PTR _t$[ebp]
  00011	77 10		 ja	 SHORT $LN2@operator

; 304  : 	{
; 305  : 		t = *(UNALIGNED T*)m_lpBufCur;

  00013	66 8b 09	 mov	 cx, WORD PTR [ecx]
  00016	66 89 08	 mov	 WORD PTR [eax], cx

; 312  : 	}
; 313  : 	return *this;
; 314  : }

  00019	8b c2		 mov	 eax, edx
  0001b	83 42 08 02	 add	 DWORD PTR [edx+8], 2
  0001f	5d		 pop	 ebp
  00020	c2 04 00	 ret	 4
$LN2@operator:

; 306  : 		m_lpBufCur += sizeof(T);
; 307  : 	}
; 308  : 	else
; 309  : 	{
; 310  : 		t = T();

  00023	33 c9		 xor	 ecx, ecx
  00025	66 89 08	 mov	 WORD PTR [eax], cx

; 311  : 		m_lpBufCur = m_lpBufMax;

  00028	8b 42 0c	 mov	 eax, DWORD PTR [edx+12]
  0002b	89 42 08	 mov	 DWORD PTR [edx+8], eax

; 312  : 	}
; 313  : 	return *this;
; 314  : }

  0002e	8b c2		 mov	 eax, edx
  00030	5d		 pop	 ebp
  00031	c2 04 00	 ret	 4
??$?5G@CAr@@QAEAAV0@AAG@Z ENDP				; CAr::operator>><unsigned short>
_TEXT	ENDS
; Function compile flags: /Ogtp
; File C:\IAGOS\server\v18\Source\Source\_Network\Misc\Include\ar.h
;	COMDAT ??$?6G@CAr@@QAEAAV0@ABG@Z
_TEXT	SEGMENT
_t$ = 8							; size = 4
??$?6G@CAr@@QAEAAV0@ABG@Z PROC				; CAr::operator<<<unsigned short>, COMDAT
; _this$ = ecx

; 255  : {

  00000	55		 push	 ebp
  00001	8b ec		 mov	 ebp, esp
  00003	56		 push	 esi

; 256  : 	CheckBuf(sizeof(T));

  00004	6a 02		 push	 2
  00006	8b f1		 mov	 esi, ecx
  00008	e8 00 00 00 00	 call	 ?CheckBuf@CAr@@QAEXI@Z	; CAr::CheckBuf

; 257  : 	*(UNALIGNED T*)m_lpBufCur = t;

  0000d	8b 45 08	 mov	 eax, DWORD PTR _t$[ebp]
  00010	8b 56 08	 mov	 edx, DWORD PTR [esi+8]
  00013	66 8b 00	 mov	 ax, WORD PTR [eax]
  00016	66 89 02	 mov	 WORD PTR [edx], ax

; 258  : 	m_lpBufCur += sizeof(T);
; 259  : 	return *this;

  00019	8b c6		 mov	 eax, esi
  0001b	83 46 08 02	 add	 DWORD PTR [esi+8], 2
  0001f	5e		 pop	 esi

; 260  : }

  00020	5d		 pop	 ebp
  00021	c2 04 00	 ret	 4
??$?6G@CAr@@QAEAAV0@ABG@Z ENDP				; CAr::operator<<<unsigned short>
_TEXT	ENDS
; Function compile flags: /Ogtp
; File C:\Program Files\Microsoft Visual Studio\2022\Professional\VC\Tools\MSVC\14.44.35207\include\xmemory
;	COMDAT ??$_Allocate_manually_vector_aligned@U_Default_allocate_traits@std@@@std@@YAPAXI@Z
_TEXT	SEGMENT
__Bytes$ = 8						; size = 4
??$_Allocate_manually_vector_aligned@U_Default_allocate_traits@std@@@std@@YAPAXI@Z PROC ; std::_Allocate_manually_vector_aligned<std::_Default_allocate_traits>, COMDAT

; 182  : __declspec(allocator) void* _Allocate_manually_vector_aligned(const size_t _Bytes) {

  00000	55		 push	 ebp
  00001	8b ec		 mov	 ebp, esp

; 183  :     // allocate _Bytes manually aligned to at least _Big_allocation_alignment
; 184  :     const size_t _Block_size = _Non_user_size + _Bytes;

  00003	8b 45 08	 mov	 eax, DWORD PTR __Bytes$[ebp]
  00006	8d 48 23	 lea	 ecx, DWORD PTR [eax+35]

; 185  :     if (_Block_size <= _Bytes) {

  00009	3b c8		 cmp	 ecx, eax
  0000b	0f 86 00 00 00
	00		 jbe	 ?_Throw_bad_array_new_length@std@@YAXXZ ; std::_Throw_bad_array_new_length

; 136  :         return ::operator new(_Bytes);

  00011	51		 push	 ecx
  00012	e8 00 00 00 00	 call	 ??2@YAPAXI@Z		; operator new

; 186  :         _Throw_bad_array_new_length(); // add overflow
; 187  :     }
; 188  : 
; 189  :     const uintptr_t _Ptr_container = reinterpret_cast<uintptr_t>(_Traits::_Allocate(_Block_size));

  00017	8b c8		 mov	 ecx, eax

; 136  :         return ::operator new(_Bytes);

  00019	83 c4 04	 add	 esp, 4

; 190  :     _STL_VERIFY(_Ptr_container != 0, "invalid argument"); // validate even in release since we're doing p[-1]

  0001c	85 c9		 test	 ecx, ecx
  0001e	74 0b		 je	 SHORT $LN9@Allocate_m

; 191  :     void* const _Ptr = reinterpret_cast<void*>((_Ptr_container + _Non_user_size) & ~(_Big_allocation_alignment - 1));

  00020	8d 41 23	 lea	 eax, DWORD PTR [ecx+35]
  00023	83 e0 e0	 and	 eax, -32		; ffffffe0H

; 192  :     static_cast<uintptr_t*>(_Ptr)[-1] = _Ptr_container;

  00026	89 48 fc	 mov	 DWORD PTR [eax-4], ecx

; 193  : 
; 194  : #ifdef _DEBUG
; 195  :     static_cast<uintptr_t*>(_Ptr)[-2] = _Big_allocation_sentinel;
; 196  : #endif // defined(_DEBUG)
; 197  :     return _Ptr;
; 198  : }

  00029	5d		 pop	 ebp
  0002a	c3		 ret	 0
$LN9@Allocate_m:

; 190  :     _STL_VERIFY(_Ptr_container != 0, "invalid argument"); // validate even in release since we're doing p[-1]

  0002b	6a 00		 push	 0
  0002d	6a 00		 push	 0
  0002f	6a 00		 push	 0
  00031	6a 00		 push	 0
  00033	6a 00		 push	 0
  00035	e8 00 00 00 00	 call	 __invoke_watson
$LN7@Allocate_m:
  0003a	cc		 int	 3
??$_Allocate_manually_vector_aligned@U_Default_allocate_traits@std@@@std@@YAPAXI@Z ENDP ; std::_Allocate_manually_vector_aligned<std::_Default_allocate_traits>
_TEXT	ENDS
; Function compile flags: /Ogtp
; File C:\Program Files\Microsoft Visual Studio\2022\Professional\VC\Tools\MSVC\14.44.35207\include\xutility
;	COMDAT ??$_Copy_memmove_tail@PAJ@std@@YAPAJQBDQAJII@Z
_TEXT	SEGMENT
__First_ch$ = 8						; size = 4
__Dest$ = 12						; size = 4
__Byte_count$ = 16					; size = 4
__Object_count$ = 20					; size = 4
??$_Copy_memmove_tail@PAJ@std@@YAPAJQBDQAJII@Z PROC	; std::_Copy_memmove_tail<long *>, COMDAT

; 4747 :     const char* const _First_ch, const _OutCtgIt _Dest, const size_t _Byte_count, const size_t _Object_count) {

  00000	55		 push	 ebp
  00001	8b ec		 mov	 ebp, esp
  00003	56		 push	 esi

; 4748 :     _STL_INTERNAL_CHECK(_Byte_count == _Object_count * sizeof(*_Dest));
; 4749 :     const auto _Dest_ptr = _STD _To_address(_Dest);
; 4750 :     const auto _Dest_ch  = const_cast<char*>(reinterpret_cast<const volatile char*>(_Dest_ptr));
; 4751 :     _CSTD memmove(_Dest_ch, _First_ch, _Byte_count);

  00004	8b 75 0c	 mov	 esi, DWORD PTR __Dest$[ebp]
  00007	57		 push	 edi
  00008	8b 7d 10	 mov	 edi, DWORD PTR __Byte_count$[ebp]
  0000b	57		 push	 edi
  0000c	ff 75 08	 push	 DWORD PTR __First_ch$[ebp]
  0000f	56		 push	 esi
  00010	e8 00 00 00 00	 call	 _memmove
  00015	83 c4 0c	 add	 esp, 12			; 0000000cH

; 4752 :     if constexpr (is_pointer_v<_OutCtgIt>) {
; 4753 :         (void) _Object_count;
; 4754 :         // CodeQL [SM02986] This cast is correct: we're bypassing pointer arithmetic for performance.
; 4755 :         return reinterpret_cast<_OutCtgIt>(_Dest_ch + _Byte_count);

  00018	8d 04 3e	 lea	 eax, DWORD PTR [esi+edi]
  0001b	5f		 pop	 edi
  0001c	5e		 pop	 esi

; 4756 :     } else {
; 4757 :         return _Dest + static_cast<_Iter_diff_t<_OutCtgIt>>(_Object_count);
; 4758 :     }
; 4759 : }

  0001d	5d		 pop	 ebp
  0001e	c3		 ret	 0
??$_Copy_memmove_tail@PAJ@std@@YAPAJQBDQAJII@Z ENDP	; std::_Copy_memmove_tail<long *>
_TEXT	ENDS
; Function compile flags: /Ogtp
; File C:\Program Files\Microsoft Visual Studio\2022\Professional\VC\Tools\MSVC\14.44.35207\include\xutility
;	COMDAT ??$_Copy_memmove@PAJPAJ@std@@YAPAJPAJ00@Z
_TEXT	SEGMENT
__First$ = 8						; size = 4
__Last$ = 12						; size = 4
__Dest$ = 16						; size = 4
??$_Copy_memmove@PAJPAJ@std@@YAPAJPAJ00@Z PROC		; std::_Copy_memmove<long *,long *>, COMDAT

; 4762 : _OutCtgIt _Copy_memmove(_CtgIt _First, _CtgIt _Last, _OutCtgIt _Dest) {

  00000	55		 push	 ebp
  00001	8b ec		 mov	 ebp, esp

; 4763 :     _STL_INTERNAL_CHECK(_First <= _Last);
; 4764 :     const auto _First_ptr    = _STD _To_address(_First);
; 4765 :     const auto _Last_ptr     = _STD _To_address(_Last);
; 4766 :     const auto _Object_count = static_cast<size_t>(_Last_ptr - _First_ptr);

  00003	8b 55 08	 mov	 edx, DWORD PTR __First$[ebp]
  00006	8b 4d 0c	 mov	 ecx, DWORD PTR __Last$[ebp]
  00009	2b ca		 sub	 ecx, edx
  0000b	8b c1		 mov	 eax, ecx
  0000d	c1 f8 02	 sar	 eax, 2

; 4767 :     const auto _First_ch     = const_cast<const char*>(reinterpret_cast<const volatile char*>(_First_ptr));
; 4768 :     const auto _Last_ch      = const_cast<const char*>(reinterpret_cast<const volatile char*>(_Last_ptr));
; 4769 :     const auto _Byte_count   = static_cast<size_t>(_Last_ch - _First_ch);
; 4770 :     return _STD _Copy_memmove_tail(_First_ch, _STD move(_Dest), _Byte_count, _Object_count);

  00010	50		 push	 eax
  00011	51		 push	 ecx
  00012	ff 75 10	 push	 DWORD PTR __Dest$[ebp]
  00015	52		 push	 edx
  00016	e8 00 00 00 00	 call	 ??$_Copy_memmove_tail@PAJ@std@@YAPAJQBDQAJII@Z ; std::_Copy_memmove_tail<long *>
  0001b	83 c4 10	 add	 esp, 16			; 00000010H

; 4771 : }

  0001e	5d		 pop	 ebp
  0001f	c3		 ret	 0
??$_Copy_memmove@PAJPAJ@std@@YAPAJPAJ00@Z ENDP		; std::_Copy_memmove<long *,long *>
_TEXT	ENDS
; Function compile flags: /Ogtp
; File C:\Program Files\Microsoft Visual Studio\2022\Professional\VC\Tools\MSVC\14.44.35207\include\xmemory
;	COMDAT ??1?$_Alloc_construct_ptr@V?$allocator@U?$_Tree_node@U?$pair@$$CBKPAVIBuff@@@std@@PAX@std@@@std@@@std@@QAE@XZ
_TEXT	SEGMENT
??1?$_Alloc_construct_ptr@V?$allocator@U?$_Tree_node@U?$pair@$$CBKPAVIBuff@@@std@@PAX@std@@@std@@@std@@QAE@XZ PROC ; std::_Alloc_construct_ptr<std::allocator<std::_Tree_node<std::pair<unsigned long const ,IBuff *>,void *> > >::~_Alloc_construct_ptr<std::allocator<std::_Tree_node<std::pair<unsigned long const ,IBuff *>,void *> > >, COMDAT
; _this$ = ecx

; 1172 :         if (_Ptr) {

  00000	8b 41 04	 mov	 eax, DWORD PTR [ecx+4]
  00003	85 c0		 test	 eax, eax
  00005	74 0b		 je	 SHORT $LN10@Alloc_cons

; 289  :         ::operator delete(_Ptr, _Bytes);

  00007	6a 18		 push	 24			; 00000018H
  00009	50		 push	 eax
  0000a	e8 00 00 00 00	 call	 ??3@YAXPAXI@Z		; operator delete
  0000f	83 c4 08	 add	 esp, 8
$LN10@Alloc_cons:

; 1173 :             _Al.deallocate(_Ptr, 1);
; 1174 :         }
; 1175 :     }

  00012	c3		 ret	 0
??1?$_Alloc_construct_ptr@V?$allocator@U?$_Tree_node@U?$pair@$$CBKPAVIBuff@@@std@@PAX@std@@@std@@@std@@QAE@XZ ENDP ; std::_Alloc_construct_ptr<std::allocator<std::_Tree_node<std::pair<unsigned long const ,IBuff *>,void *> > >::~_Alloc_construct_ptr<std::allocator<std::_Tree_node<std::pair<unsigned long const ,IBuff *>,void *> > >
_TEXT	ENDS
; Function compile flags: /Ogtp
; File C:\Program Files\Microsoft Visual Studio\2022\Professional\VC\Tools\MSVC\14.44.35207\include\xtree
; File C:\Program Files\Microsoft Visual Studio\2022\Professional\VC\Tools\MSVC\14.44.35207\include\type_traits
; File C:\Program Files\Microsoft Visual Studio\2022\Professional\VC\Tools\MSVC\14.44.35207\include\xtree
; File C:\Program Files\Microsoft Visual Studio\2022\Professional\VC\Tools\MSVC\14.44.35207\include\type_traits
; File C:\Program Files\Microsoft Visual Studio\2022\Professional\VC\Tools\MSVC\14.44.35207\include\xtree
;	COMDAT ??$_Find_lower_bound@K@?$_Tree@V?$_Tmap_traits@KPAVIBuff@@U?$less@K@std@@V?$allocator@U?$pair@$$CBKPAVIBuff@@@std@@@3@$0A@@std@@@std@@IBE?AU?$_Tree_find_result@PAU?$_Tree_node@U?$pair@$$CBKPAVIBuff@@@std@@PAX@std@@@1@ABK@Z
_TEXT	SEGMENT
___$ReturnUdt$ = 8					; size = 4
__Keyval$ = 12						; size = 4
??$_Find_lower_bound@K@?$_Tree@V?$_Tmap_traits@KPAVIBuff@@U?$less@K@std@@V?$allocator@U?$pair@$$CBKPAVIBuff@@@std@@@3@$0A@@std@@@std@@IBE?AU?$_Tree_find_result@PAU?$_Tree_node@U?$pair@$$CBKPAVIBuff@@@std@@PAX@std@@@1@ABK@Z PROC ; std::_Tree<std::_Tmap_traits<unsigned long,IBuff *,std::less<unsigned long>,std::allocator<std::pair<unsigned long const ,IBuff *> >,0> >::_Find_lower_bound<unsigned long>, COMDAT
; _this$ = ecx

; 1628 :     _Tree_find_result<_Nodeptr> _Find_lower_bound(const _Keyty& _Keyval) const {

  00000	55		 push	 ebp
  00001	8b ec		 mov	 ebp, esp

; 1629 :         const auto _Scary = _Get_scary();
; 1630 :         _Tree_find_result<_Nodeptr> _Result{{_Scary->_Myhead->_Parent, _Tree_child::_Right}, _Scary->_Myhead};

  00003	8b 09		 mov	 ecx, DWORD PTR [ecx]
  00005	8b 55 08	 mov	 edx, DWORD PTR ___$ReturnUdt$[ebp]
  00008	8b 41 04	 mov	 eax, DWORD PTR [ecx+4]
  0000b	89 02		 mov	 DWORD PTR [edx], eax
  0000d	c7 42 04 00 00
	00 00		 mov	 DWORD PTR [edx+4], 0
  00014	89 4a 08	 mov	 DWORD PTR [edx+8], ecx

; 1631 :         _Nodeptr _Trynode = _Result._Location._Parent;
; 1632 :         while (!_Trynode->_Isnil) {

  00017	80 78 0d 00	 cmp	 BYTE PTR [eax+13], 0
  0001b	75 28		 jne	 SHORT $LN13@Find_lower
; File C:\Program Files\Microsoft Visual Studio\2022\Professional\VC\Tools\MSVC\14.44.35207\include\type_traits

; 2380 :         return _Left < _Right;

  0001d	8b 4d 0c	 mov	 ecx, DWORD PTR __Keyval$[ebp]
  00020	56		 push	 esi
  00021	8b 31		 mov	 esi, DWORD PTR [ecx]
$LL2@Find_lower:
; File C:\Program Files\Microsoft Visual Studio\2022\Professional\VC\Tools\MSVC\14.44.35207\include\xtree

; 1633 :             _Result._Location._Parent = _Trynode;

  00023	89 02		 mov	 DWORD PTR [edx], eax
; File C:\Program Files\Microsoft Visual Studio\2022\Professional\VC\Tools\MSVC\14.44.35207\include\type_traits

; 2380 :         return _Left < _Right;

  00025	39 70 10	 cmp	 DWORD PTR [eax+16], esi
; File C:\Program Files\Microsoft Visual Studio\2022\Professional\VC\Tools\MSVC\14.44.35207\include\xtree

; 1634 :             if (_DEBUG_LT_PRED(_Getcomp(), _Traits::_Kfn(_Trynode->_Myval), _Keyval)) {

  00028	73 07		 jae	 SHORT $LN4@Find_lower

; 1635 :                 _Result._Location._Child = _Tree_child::_Right;
; 1636 :                 _Trynode                 = _Trynode->_Right;

  0002a	8b 40 08	 mov	 eax, DWORD PTR [eax+8]
  0002d	33 c9		 xor	 ecx, ecx

; 1637 :             } else {

  0002f	eb 0a		 jmp	 SHORT $LN5@Find_lower
$LN4@Find_lower:

; 1638 :                 _Result._Location._Child = _Tree_child::_Left;
; 1639 :                 _Result._Bound           = _Trynode;

  00031	89 42 08	 mov	 DWORD PTR [edx+8], eax

; 1640 :                 _Trynode                 = _Trynode->_Left;

  00034	b9 01 00 00 00	 mov	 ecx, 1
  00039	8b 00		 mov	 eax, DWORD PTR [eax]
$LN5@Find_lower:

; 1631 :         _Nodeptr _Trynode = _Result._Location._Parent;
; 1632 :         while (!_Trynode->_Isnil) {

  0003b	89 4a 04	 mov	 DWORD PTR [edx+4], ecx
  0003e	80 78 0d 00	 cmp	 BYTE PTR [eax+13], 0
  00042	74 df		 je	 SHORT $LL2@Find_lower
  00044	5e		 pop	 esi
$LN13@Find_lower:

; 1641 :             }
; 1642 :         }
; 1643 : 
; 1644 :         return _Result;
; 1645 :     }

  00045	8b c2		 mov	 eax, edx
  00047	5d		 pop	 ebp
  00048	c2 08 00	 ret	 8
??$_Find_lower_bound@K@?$_Tree@V?$_Tmap_traits@KPAVIBuff@@U?$less@K@std@@V?$allocator@U?$pair@$$CBKPAVIBuff@@@std@@@3@$0A@@std@@@std@@IBE?AU?$_Tree_find_result@PAU?$_Tree_node@U?$pair@$$CBKPAVIBuff@@@std@@PAX@std@@@1@ABK@Z ENDP ; std::_Tree<std::_Tmap_traits<unsigned long,IBuff *,std::less<unsigned long>,std::allocator<std::pair<unsigned long const ,IBuff *> >,0> >::_Find_lower_bound<unsigned long>
_TEXT	ENDS
; Function compile flags: /Ogtp
; File C:\Program Files\Microsoft Visual Studio\2022\Professional\VC\Tools\MSVC\14.44.35207\include\xtree
;	COMDAT ??E?$_Tree_unchecked_const_iterator@V?$_Tree_val@U?$_Tree_simple_types@U?$pair@$$CBKPAVIBuff@@@std@@@std@@@std@@U_Iterator_base0@2@@std@@QAEAAV01@XZ
_TEXT	SEGMENT
??E?$_Tree_unchecked_const_iterator@V?$_Tree_val@U?$_Tree_simple_types@U?$pair@$$CBKPAVIBuff@@@std@@@std@@@std@@U_Iterator_base0@2@@std@@QAEAAV01@XZ PROC ; std::_Tree_unchecked_const_iterator<std::_Tree_val<std::_Tree_simple_types<std::pair<unsigned long const ,IBuff *> > >,std::_Iterator_base0>::operator++, COMDAT
; _this$ = ecx

; 49   :     _Tree_unchecked_const_iterator& operator++() noexcept {

  00000	56		 push	 esi
  00001	8b f1		 mov	 esi, ecx
  00003	57		 push	 edi

; 50   :         if (_Ptr->_Right->_Isnil) { // climb looking for right subtree

  00004	8b 16		 mov	 edx, DWORD PTR [esi]
  00006	8b 7a 08	 mov	 edi, DWORD PTR [edx+8]
  00009	80 7f 0d 00	 cmp	 BYTE PTR [edi+13], 0
  0000d	74 22		 je	 SHORT $LN4@operator

; 51   :             _Nodeptr _Pnode;
; 52   :             while (!(_Pnode = _Ptr->_Parent)->_Isnil && _Ptr == _Pnode->_Right) {

  0000f	8b 42 04	 mov	 eax, DWORD PTR [edx+4]
  00012	80 78 0d 00	 cmp	 BYTE PTR [eax+13], 0
  00016	75 12		 jne	 SHORT $LN21@operator
$LL2@operator:
  00018	3b 50 08	 cmp	 edx, DWORD PTR [eax+8]
  0001b	75 0d		 jne	 SHORT $LN21@operator

; 53   :                 _Ptr = _Pnode; // ==> parent while right subtree

  0001d	89 06		 mov	 DWORD PTR [esi], eax
  0001f	8b d0		 mov	 edx, eax
  00021	8b 40 04	 mov	 eax, DWORD PTR [eax+4]
  00024	80 78 0d 00	 cmp	 BYTE PTR [eax+13], 0
  00028	74 ee		 je	 SHORT $LL2@operator
$LN21@operator:

; 54   :             }
; 55   : 
; 56   :             _Ptr = _Pnode; // ==> parent (head if end())
; 57   :         } else {
; 58   :             _Ptr = _Mytree::_Min(_Ptr->_Right); // ==> smallest of right subtree
; 59   :         }
; 60   : 
; 61   :         return *this;

  0002a	89 06		 mov	 DWORD PTR [esi], eax

; 62   :     }

  0002c	8b c6		 mov	 eax, esi
  0002e	5f		 pop	 edi
  0002f	5e		 pop	 esi
  00030	c3		 ret	 0
$LN4@operator:

; 476  :         while (!_Pnode->_Left->_Isnil) {

  00031	8b 0f		 mov	 ecx, DWORD PTR [edi]
  00033	80 79 0d 00	 cmp	 BYTE PTR [ecx+13], 0
  00037	75 13		 jne	 SHORT $LN10@operator
  00039	0f 1f 80 00 00
	00 00		 npad	 7
$LL9@operator:
  00040	8b 01		 mov	 eax, DWORD PTR [ecx]

; 477  :             _Pnode = _Pnode->_Left;

  00042	8b f9		 mov	 edi, ecx
  00044	8b c8		 mov	 ecx, eax
  00046	80 78 0d 00	 cmp	 BYTE PTR [eax+13], 0
  0004a	74 f4		 je	 SHORT $LL9@operator
$LN10@operator:

; 54   :             }
; 55   : 
; 56   :             _Ptr = _Pnode; // ==> parent (head if end())
; 57   :         } else {
; 58   :             _Ptr = _Mytree::_Min(_Ptr->_Right); // ==> smallest of right subtree
; 59   :         }
; 60   : 
; 61   :         return *this;

  0004c	89 3e		 mov	 DWORD PTR [esi], edi

; 62   :     }

  0004e	8b c6		 mov	 eax, esi
  00050	5f		 pop	 edi
  00051	5e		 pop	 esi
  00052	c3		 ret	 0
??E?$_Tree_unchecked_const_iterator@V?$_Tree_val@U?$_Tree_simple_types@U?$pair@$$CBKPAVIBuff@@@std@@@std@@@std@@U_Iterator_base0@2@@std@@QAEAAV01@XZ ENDP ; std::_Tree_unchecked_const_iterator<std::_Tree_val<std::_Tree_simple_types<std::pair<unsigned long const ,IBuff *> > >,std::_Iterator_base0>::operator++
_TEXT	ENDS
; Function compile flags: /Ogtp
;	COMDAT ??_GCBuffMgr@@UAEPAXI@Z
_TEXT	SEGMENT
___flags$ = 8						; size = 4
??_GCBuffMgr@@UAEPAXI@Z PROC				; CBuffMgr::`scalar deleting destructor', COMDAT
; _this$ = ecx
  00000	55		 push	 ebp
  00001	8b ec		 mov	 ebp, esp
  00003	56		 push	 esi
  00004	8b f1		 mov	 esi, ecx
  00006	e8 00 00 00 00	 call	 ??1CBuffMgr@@UAE@XZ	; CBuffMgr::~CBuffMgr
  0000b	f6 45 08 01	 test	 BYTE PTR ___flags$[ebp], 1
  0000f	74 0b		 je	 SHORT $LN5@scalar
  00011	6a 10		 push	 16			; 00000010H
  00013	56		 push	 esi
  00014	e8 00 00 00 00	 call	 ??3@YAXPAXI@Z		; operator delete
  00019	83 c4 08	 add	 esp, 8
$LN5@scalar:
  0001c	8b c6		 mov	 eax, esi
  0001e	5e		 pop	 esi
  0001f	5d		 pop	 ebp
  00020	c2 04 00	 ret	 4
??_GCBuffMgr@@UAEPAXI@Z ENDP				; CBuffMgr::`scalar deleting destructor'
_TEXT	ENDS
; Function compile flags: /Ogtp
; File C:\IAGOS\server\v18\Source\Source\_Common\buff.cpp
; File C:\Program Files\Microsoft Visual Studio\2022\Professional\VC\Tools\MSVC\14.44.35207\include\xtree
; File C:\IAGOS\server\v18\Source\Source\_Common\buff.cpp
; File C:\Program Files\Microsoft Visual Studio\2022\Professional\VC\Tools\MSVC\14.44.35207\include\xtree
; File C:\IAGOS\server\v18\Source\Source\_Common\buff.cpp
; File C:\Program Files\Microsoft Visual Studio\2022\Professional\VC\Tools\MSVC\14.44.35207\include\xtree
; File C:\IAGOS\server\v18\Source\Source\_Common\buff.cpp
;	COMDAT ?GetRemoveBuffSize@CBuffMgr@@AAEIXZ
_TEXT	SEGMENT
_it$1 = -4						; size = 4
?GetRemoveBuffSize@CBuffMgr@@AAEIXZ PROC		; CBuffMgr::GetRemoveBuffSize, COMDAT
; _this$ = ecx

; 1030 : {

  00000	55		 push	 ebp
  00001	8b ec		 mov	 ebp, esp
  00003	51		 push	 ecx
  00004	56		 push	 esi
  00005	57		 push	 edi
; File C:\Program Files\Microsoft Visual Studio\2022\Professional\VC\Tools\MSVC\14.44.35207\include\xtree

; 1142 :         return iterator(_Scary->_Myhead->_Left, _Scary);

  00006	8b 79 04	 mov	 edi, DWORD PTR [ecx+4]
; File C:\IAGOS\server\v18\Source\Source\_Common\buff.cpp

; 1031 : 	size_t nCount = 0;

  00009	33 f6		 xor	 esi, esi
; File C:\Program Files\Microsoft Visual Studio\2022\Professional\VC\Tools\MSVC\14.44.35207\include\xtree

; 37   :     _Tree_unchecked_const_iterator(_Nodeptr _Pnode, const _Mytree* _Plist) noexcept : _Ptr(_Pnode) {

  0000b	8b 07		 mov	 eax, DWORD PTR [edi]
  0000d	89 45 fc	 mov	 DWORD PTR _it$1[ebp], eax

; 237  :         return !(*this == _Right);

  00010	3b c7		 cmp	 eax, edi
; File C:\IAGOS\server\v18\Source\Source\_Common\buff.cpp

; 1032 : 	for( MAPBUFF::iterator it=m_mapBuffs.begin(); it!=m_mapBuffs.end(); it++ )

  00012	74 1e		 je	 SHORT $LN56@GetRemoveB
$LL4@GetRemoveB:
; File C:\Program Files\Microsoft Visual Studio\2022\Professional\VC\Tools\MSVC\14.44.35207\include\xtree

; 198  :         _Mybase::operator++();

  00014	8b 40 14	 mov	 eax, DWORD PTR [eax+20]
  00017	8d 4e 01	 lea	 ecx, DWORD PTR [esi+1]
  0001a	83 78 18 00	 cmp	 DWORD PTR [eax+24], 0
  0001e	0f 44 ce	 cmove	 ecx, esi
  00021	8b f1		 mov	 esi, ecx
  00023	8d 4d fc	 lea	 ecx, DWORD PTR _it$1[ebp]
  00026	e8 00 00 00 00	 call	 ??E?$_Tree_unchecked_const_iterator@V?$_Tree_val@U?$_Tree_simple_types@U?$pair@$$CBKPAVIBuff@@@std@@@std@@@std@@U_Iterator_base0@2@@std@@QAEAAV01@XZ ; std::_Tree_unchecked_const_iterator<std::_Tree_val<std::_Tree_simple_types<std::pair<unsigned long const ,IBuff *> > >,std::_Iterator_base0>::operator++

; 237  :         return !(*this == _Right);

  0002b	8b 45 fc	 mov	 eax, DWORD PTR _it$1[ebp]
  0002e	3b c7		 cmp	 eax, edi
; File C:\IAGOS\server\v18\Source\Source\_Common\buff.cpp

; 1032 : 	for( MAPBUFF::iterator it=m_mapBuffs.begin(); it!=m_mapBuffs.end(); it++ )

  00030	75 e2		 jne	 SHORT $LL4@GetRemoveB
$LN56@GetRemoveB:
  00032	5f		 pop	 edi

; 1033 : 	{
; 1034 : 		if( it->second->GetRemove() )
; 1035 : 			nCount++;
; 1036 : 	}
; 1037 : 
; 1038 : 	return nCount;
; 1039 : }

  00033	8b c6		 mov	 eax, esi
  00035	5e		 pop	 esi
  00036	8b e5		 mov	 esp, ebp
  00038	5d		 pop	 ebp
  00039	c3		 ret	 0
?GetRemoveBuffSize@CBuffMgr@@AAEIXZ ENDP		; CBuffMgr::GetRemoveBuffSize
_TEXT	ENDS
; Function compile flags: /Ogtp
; File C:\Program Files\Microsoft Visual Studio\2022\Professional\VC\Tools\MSVC\14.44.35207\include\xtree
;	COMDAT ?_Insert_node@?$_Tree_val@U?$_Tree_simple_types@U?$pair@$$CBKPAVIBuff@@@std@@@std@@@std@@QAEPAU?$_Tree_node@U?$pair@$$CBKPAVIBuff@@@std@@PAX@2@U?$_Tree_id@PAU?$_Tree_node@U?$pair@$$CBKPAVIBuff@@@std@@PAX@std@@@2@QAU32@@Z
_TEXT	SEGMENT
__Head$1$ = -4						; size = 4
__Loc$ = 8						; size = 8
__Newnode$ = 16						; size = 4
?_Insert_node@?$_Tree_val@U?$_Tree_simple_types@U?$pair@$$CBKPAVIBuff@@@std@@@std@@@std@@QAEPAU?$_Tree_node@U?$pair@$$CBKPAVIBuff@@@std@@PAX@2@U?$_Tree_id@PAU?$_Tree_node@U?$pair@$$CBKPAVIBuff@@@std@@PAX@std@@@2@QAU32@@Z PROC ; std::_Tree_val<std::_Tree_simple_types<std::pair<unsigned long const ,IBuff *> > >::_Insert_node, COMDAT
; _this$ = ecx

; 669  :     _Nodeptr _Insert_node(const _Tree_id<_Nodeptr> _Loc, const _Nodeptr _Newnode) noexcept {

  00000	55		 push	 ebp
  00001	8b ec		 mov	 ebp, esp
  00003	51		 push	 ecx

; 670  :         ++_Mysize;
; 671  :         const auto _Head  = _Myhead;
; 672  :         _Newnode->_Parent = _Loc._Parent;

  00004	8b 55 08	 mov	 edx, DWORD PTR __Loc$[ebp]
  00007	53		 push	 ebx
  00008	8b d9		 mov	 ebx, ecx
  0000a	57		 push	 edi
  0000b	8b 7d 10	 mov	 edi, DWORD PTR __Newnode$[ebp]
  0000e	8b 03		 mov	 eax, DWORD PTR [ebx]
  00010	ff 43 04	 inc	 DWORD PTR [ebx+4]
  00013	89 45 fc	 mov	 DWORD PTR __Head$1$[ebp], eax
  00016	89 57 04	 mov	 DWORD PTR [edi+4], edx

; 673  :         if (_Loc._Parent == _Head) { // first node in tree, just set head values

  00019	3b d0		 cmp	 edx, eax
  0001b	75 16		 jne	 SHORT $LN5@Insert_nod

; 674  :             _Head->_Left     = _Newnode;

  0001d	89 38		 mov	 DWORD PTR [eax], edi

; 675  :             _Head->_Parent   = _Newnode;

  0001f	89 78 04	 mov	 DWORD PTR [eax+4], edi

; 676  :             _Head->_Right    = _Newnode;

  00022	89 78 08	 mov	 DWORD PTR [eax+8], edi

; 735  :         return _Newnode;
; 736  :     }

  00025	8b c7		 mov	 eax, edi
  00027	c6 47 0c 01	 mov	 BYTE PTR [edi+12], 1
  0002b	5f		 pop	 edi
  0002c	5b		 pop	 ebx
  0002d	8b e5		 mov	 esp, ebp
  0002f	5d		 pop	 ebp
  00030	c2 0c 00	 ret	 12			; 0000000cH
$LN5@Insert_nod:

; 677  :             _Newnode->_Color = _Black; // the root is black
; 678  :             return _Newnode;
; 679  :         }
; 680  : 
; 681  :         _STL_INTERNAL_CHECK(_Loc._Child != _Tree_child::_Unused);
; 682  :         if (_Loc._Child == _Tree_child::_Right) { // add to right of _Loc._Parent

  00033	83 7d 0c 00	 cmp	 DWORD PTR __Loc$[ebp+4], 0
  00037	75 0d		 jne	 SHORT $LN6@Insert_nod

; 683  :             _STL_INTERNAL_CHECK(_Loc._Parent->_Right->_Isnil);
; 684  :             _Loc._Parent->_Right = _Newnode;

  00039	89 7a 08	 mov	 DWORD PTR [edx+8], edi

; 685  :             if (_Loc._Parent == _Head->_Right) { // remember rightmost node

  0003c	3b 50 08	 cmp	 edx, DWORD PTR [eax+8]
  0003f	75 0d		 jne	 SHORT $LN9@Insert_nod

; 686  :                 _Head->_Right = _Newnode;

  00041	89 78 08	 mov	 DWORD PTR [eax+8], edi

; 687  :             }
; 688  :         } else { // add to left of _Loc._Parent

  00044	eb 08		 jmp	 SHORT $LN9@Insert_nod
$LN6@Insert_nod:

; 689  :             _STL_INTERNAL_CHECK(_Loc._Parent->_Left->_Isnil);
; 690  :             _Loc._Parent->_Left = _Newnode;

  00046	89 3a		 mov	 DWORD PTR [edx], edi

; 691  :             if (_Loc._Parent == _Head->_Left) { // remember leftmost node

  00048	3b 10		 cmp	 edx, DWORD PTR [eax]
  0004a	75 02		 jne	 SHORT $LN9@Insert_nod

; 692  :                 _Head->_Left = _Newnode;

  0004c	89 38		 mov	 DWORD PTR [eax], edi
$LN9@Insert_nod:

; 693  :             }
; 694  :         }
; 695  : 
; 696  :         for (_Nodeptr _Pnode = _Newnode; _Pnode->_Parent->_Color == _Red;) {

  0004e	8b 4f 04	 mov	 ecx, DWORD PTR [edi+4]
  00051	8b c7		 mov	 eax, edi
  00053	80 79 0c 00	 cmp	 BYTE PTR [ecx+12], 0
  00057	0f 85 7d 01 00
	00		 jne	 $LN3@Insert_nod
  0005d	56		 push	 esi
  0005e	66 90		 npad	 2
$LL4@Insert_nod:

; 697  :             if (_Pnode->_Parent == _Pnode->_Parent->_Parent->_Left) { // fixup red-red in left subtree

  00060	8b 50 04	 mov	 edx, DWORD PTR [eax+4]
  00063	8b 72 04	 mov	 esi, DWORD PTR [edx+4]
  00066	8b 0e		 mov	 ecx, DWORD PTR [esi]
  00068	3b d1		 cmp	 edx, ecx
  0006a	0f 85 aa 00 00
	00		 jne	 $LN10@Insert_nod

; 698  :                 const auto _Parent_sibling = _Pnode->_Parent->_Parent->_Right;

  00070	8b 4e 08	 mov	 ecx, DWORD PTR [esi+8]

; 699  :                 if (_Parent_sibling->_Color == _Red) { // parent's sibling has two red children, blacken both

  00073	80 79 0c 00	 cmp	 BYTE PTR [ecx+12], 0
  00077	0f 84 a3 00 00
	00		 je	 $LN82@Insert_nod

; 700  :                     _Pnode->_Parent->_Color          = _Black;
; 701  :                     _Parent_sibling->_Color          = _Black;
; 702  :                     _Pnode->_Parent->_Parent->_Color = _Red;
; 703  :                     _Pnode                           = _Pnode->_Parent->_Parent;
; 704  :                 } else { // parent's sibling has red and black children
; 705  :                     if (_Pnode == _Pnode->_Parent->_Right) { // rotate right child to left

  0007d	8b 72 08	 mov	 esi, DWORD PTR [edx+8]
  00080	3b c6		 cmp	 eax, esi
  00082	75 37		 jne	 SHORT $LN57@Insert_nod

; 485  :         _Wherenode->_Right = _Pnode->_Left;

  00084	8b 0e		 mov	 ecx, DWORD PTR [esi]

; 706  :                         _Pnode = _Pnode->_Parent;

  00086	8b c2		 mov	 eax, edx

; 485  :         _Wherenode->_Right = _Pnode->_Left;

  00088	89 4a 08	 mov	 DWORD PTR [edx+8], ecx

; 486  : 
; 487  :         if (!_Pnode->_Left->_Isnil) {

  0008b	8b 0e		 mov	 ecx, DWORD PTR [esi]
  0008d	80 79 0d 00	 cmp	 BYTE PTR [ecx+13], 0
  00091	75 03		 jne	 SHORT $LN21@Insert_nod

; 488  :             _Pnode->_Left->_Parent = _Wherenode;

  00093	89 41 04	 mov	 DWORD PTR [ecx+4], eax
$LN21@Insert_nod:

; 489  :         }
; 490  : 
; 491  :         _Pnode->_Parent = _Wherenode->_Parent;

  00096	8b 4a 04	 mov	 ecx, DWORD PTR [edx+4]
  00099	89 4e 04	 mov	 DWORD PTR [esi+4], ecx

; 492  : 
; 493  :         if (_Wherenode == _Myhead->_Parent) {

  0009c	8b 0b		 mov	 ecx, DWORD PTR [ebx]
  0009e	3b 41 04	 cmp	 eax, DWORD PTR [ecx+4]
  000a1	75 05		 jne	 SHORT $LN22@Insert_nod

; 494  :             _Myhead->_Parent = _Pnode;

  000a3	89 71 04	 mov	 DWORD PTR [ecx+4], esi
  000a6	eb 0e		 jmp	 SHORT $LN25@Insert_nod
$LN22@Insert_nod:

; 495  :         } else if (_Wherenode == _Wherenode->_Parent->_Left) {

  000a8	8b 4a 04	 mov	 ecx, DWORD PTR [edx+4]
  000ab	3b 01		 cmp	 eax, DWORD PTR [ecx]
  000ad	75 04		 jne	 SHORT $LN24@Insert_nod

; 496  :             _Wherenode->_Parent->_Left = _Pnode;

  000af	89 31		 mov	 DWORD PTR [ecx], esi

; 497  :         } else {

  000b1	eb 03		 jmp	 SHORT $LN25@Insert_nod
$LN24@Insert_nod:

; 498  :             _Wherenode->_Parent->_Right = _Pnode;

  000b3	89 71 08	 mov	 DWORD PTR [ecx+8], esi
$LN25@Insert_nod:

; 499  :         }
; 500  : 
; 501  :         _Pnode->_Left       = _Wherenode;

  000b6	89 06		 mov	 DWORD PTR [esi], eax

; 502  :         _Wherenode->_Parent = _Pnode;

  000b8	89 70 04	 mov	 DWORD PTR [eax+4], esi
$LN57@Insert_nod:

; 707  :                         _Lrotate(_Pnode);
; 708  :                     }
; 709  : 
; 710  :                     _Pnode->_Parent->_Color          = _Black; // propagate red up

  000bb	8b 48 04	 mov	 ecx, DWORD PTR [eax+4]
  000be	c6 41 0c 01	 mov	 BYTE PTR [ecx+12], 1

; 711  :                     _Pnode->_Parent->_Parent->_Color = _Red;

  000c2	8b 48 04	 mov	 ecx, DWORD PTR [eax+4]
  000c5	8b 49 04	 mov	 ecx, DWORD PTR [ecx+4]
  000c8	c6 41 0c 00	 mov	 BYTE PTR [ecx+12], 0

; 712  :                     _Rrotate(_Pnode->_Parent->_Parent);

  000cc	8b 48 04	 mov	 ecx, DWORD PTR [eax+4]
  000cf	8b 51 04	 mov	 edx, DWORD PTR [ecx+4]

; 506  :         _Nodeptr _Pnode   = _Wherenode->_Left;

  000d2	8b 32		 mov	 esi, DWORD PTR [edx]

; 507  :         _Wherenode->_Left = _Pnode->_Right;

  000d4	8b 4e 08	 mov	 ecx, DWORD PTR [esi+8]
  000d7	89 0a		 mov	 DWORD PTR [edx], ecx

; 508  : 
; 509  :         if (!_Pnode->_Right->_Isnil) {

  000d9	8b 4e 08	 mov	 ecx, DWORD PTR [esi+8]
  000dc	80 79 0d 00	 cmp	 BYTE PTR [ecx+13], 0
  000e0	75 03		 jne	 SHORT $LN29@Insert_nod

; 510  :             _Pnode->_Right->_Parent = _Wherenode;

  000e2	89 51 04	 mov	 DWORD PTR [ecx+4], edx
$LN29@Insert_nod:

; 511  :         }
; 512  : 
; 513  :         _Pnode->_Parent = _Wherenode->_Parent;

  000e5	8b 4a 04	 mov	 ecx, DWORD PTR [edx+4]
  000e8	89 4e 04	 mov	 DWORD PTR [esi+4], ecx

; 514  : 
; 515  :         if (_Wherenode == _Myhead->_Parent) {

  000eb	8b 0b		 mov	 ecx, DWORD PTR [ebx]
  000ed	3b 51 04	 cmp	 edx, DWORD PTR [ecx+4]
  000f0	75 0b		 jne	 SHORT $LN30@Insert_nod

; 516  :             _Myhead->_Parent = _Pnode;

  000f2	89 71 04	 mov	 DWORD PTR [ecx+4], esi

; 521  :         }
; 522  : 
; 523  :         _Pnode->_Right      = _Wherenode;

  000f5	89 56 08	 mov	 DWORD PTR [esi+8], edx

; 713  :                 }
; 714  :             } else { // fixup red-red in right subtree

  000f8	e9 cc 00 00 00	 jmp	 $LN81@Insert_nod
$LN30@Insert_nod:

; 517  :         } else if (_Wherenode == _Wherenode->_Parent->_Right) {

  000fd	8b 4a 04	 mov	 ecx, DWORD PTR [edx+4]
  00100	3b 51 08	 cmp	 edx, DWORD PTR [ecx+8]
  00103	75 0b		 jne	 SHORT $LN32@Insert_nod

; 518  :             _Wherenode->_Parent->_Right = _Pnode;

  00105	89 71 08	 mov	 DWORD PTR [ecx+8], esi

; 521  :         }
; 522  : 
; 523  :         _Pnode->_Right      = _Wherenode;

  00108	89 56 08	 mov	 DWORD PTR [esi+8], edx

; 713  :                 }
; 714  :             } else { // fixup red-red in right subtree

  0010b	e9 b9 00 00 00	 jmp	 $LN81@Insert_nod
$LN32@Insert_nod:

; 520  :             _Wherenode->_Parent->_Left = _Pnode;

  00110	89 31		 mov	 DWORD PTR [ecx], esi

; 521  :         }
; 522  : 
; 523  :         _Pnode->_Right      = _Wherenode;

  00112	89 56 08	 mov	 DWORD PTR [esi+8], edx

; 713  :                 }
; 714  :             } else { // fixup red-red in right subtree

  00115	e9 af 00 00 00	 jmp	 $LN81@Insert_nod
$LN10@Insert_nod:

; 715  :                 const auto _Parent_sibling = _Pnode->_Parent->_Parent->_Left;
; 716  :                 if (_Parent_sibling->_Color == _Red) { // parent's sibling has two red children, blacken both

  0011a	80 79 0c 00	 cmp	 BYTE PTR [ecx+12], 0
  0011e	75 1d		 jne	 SHORT $LN15@Insert_nod
$LN82@Insert_nod:

; 693  :             }
; 694  :         }
; 695  : 
; 696  :         for (_Nodeptr _Pnode = _Newnode; _Pnode->_Parent->_Color == _Red;) {

  00120	c6 42 0c 01	 mov	 BYTE PTR [edx+12], 1
  00124	c6 41 0c 01	 mov	 BYTE PTR [ecx+12], 1
  00128	8b 48 04	 mov	 ecx, DWORD PTR [eax+4]
  0012b	8b 49 04	 mov	 ecx, DWORD PTR [ecx+4]
  0012e	c6 41 0c 00	 mov	 BYTE PTR [ecx+12], 0
  00132	8b 48 04	 mov	 ecx, DWORD PTR [eax+4]
  00135	8b 41 04	 mov	 eax, DWORD PTR [ecx+4]
  00138	e9 8f 00 00 00	 jmp	 $LN2@Insert_nod
$LN15@Insert_nod:

; 717  :                     _Pnode->_Parent->_Color          = _Black;
; 718  :                     _Parent_sibling->_Color          = _Black;
; 719  :                     _Pnode->_Parent->_Parent->_Color = _Red;
; 720  :                     _Pnode                           = _Pnode->_Parent->_Parent;
; 721  :                 } else { // parent's sibling has red and black children
; 722  :                     if (_Pnode == _Pnode->_Parent->_Left) { // rotate left child to right

  0013d	8b 32		 mov	 esi, DWORD PTR [edx]
  0013f	3b c6		 cmp	 eax, esi
  00141	75 3a		 jne	 SHORT $LN42@Insert_nod

; 507  :         _Wherenode->_Left = _Pnode->_Right;

  00143	8b 4e 08	 mov	 ecx, DWORD PTR [esi+8]

; 723  :                         _Pnode = _Pnode->_Parent;

  00146	8b c2		 mov	 eax, edx

; 507  :         _Wherenode->_Left = _Pnode->_Right;

  00148	89 08		 mov	 DWORD PTR [eax], ecx

; 508  : 
; 509  :         if (!_Pnode->_Right->_Isnil) {

  0014a	8b 4e 08	 mov	 ecx, DWORD PTR [esi+8]
  0014d	80 79 0d 00	 cmp	 BYTE PTR [ecx+13], 0
  00151	75 03		 jne	 SHORT $LN37@Insert_nod

; 510  :             _Pnode->_Right->_Parent = _Wherenode;

  00153	89 41 04	 mov	 DWORD PTR [ecx+4], eax
$LN37@Insert_nod:

; 511  :         }
; 512  : 
; 513  :         _Pnode->_Parent = _Wherenode->_Parent;

  00156	8b 4a 04	 mov	 ecx, DWORD PTR [edx+4]
  00159	89 4e 04	 mov	 DWORD PTR [esi+4], ecx

; 514  : 
; 515  :         if (_Wherenode == _Myhead->_Parent) {

  0015c	8b 0b		 mov	 ecx, DWORD PTR [ebx]
  0015e	3b 41 04	 cmp	 eax, DWORD PTR [ecx+4]
  00161	75 05		 jne	 SHORT $LN38@Insert_nod

; 516  :             _Myhead->_Parent = _Pnode;

  00163	89 71 04	 mov	 DWORD PTR [ecx+4], esi
  00166	eb 0f		 jmp	 SHORT $LN41@Insert_nod
$LN38@Insert_nod:

; 517  :         } else if (_Wherenode == _Wherenode->_Parent->_Right) {

  00168	8b 4a 04	 mov	 ecx, DWORD PTR [edx+4]
  0016b	3b 41 08	 cmp	 eax, DWORD PTR [ecx+8]
  0016e	75 05		 jne	 SHORT $LN40@Insert_nod

; 518  :             _Wherenode->_Parent->_Right = _Pnode;

  00170	89 71 08	 mov	 DWORD PTR [ecx+8], esi

; 519  :         } else {

  00173	eb 02		 jmp	 SHORT $LN41@Insert_nod
$LN40@Insert_nod:

; 520  :             _Wherenode->_Parent->_Left = _Pnode;

  00175	89 31		 mov	 DWORD PTR [ecx], esi
$LN41@Insert_nod:

; 521  :         }
; 522  : 
; 523  :         _Pnode->_Right      = _Wherenode;

  00177	89 46 08	 mov	 DWORD PTR [esi+8], eax

; 524  :         _Wherenode->_Parent = _Pnode;

  0017a	89 70 04	 mov	 DWORD PTR [eax+4], esi
$LN42@Insert_nod:

; 724  :                         _Rrotate(_Pnode);
; 725  :                     }
; 726  : 
; 727  :                     _Pnode->_Parent->_Color          = _Black; // propagate red up

  0017d	8b 48 04	 mov	 ecx, DWORD PTR [eax+4]
  00180	c6 41 0c 01	 mov	 BYTE PTR [ecx+12], 1

; 728  :                     _Pnode->_Parent->_Parent->_Color = _Red;

  00184	8b 48 04	 mov	 ecx, DWORD PTR [eax+4]
  00187	8b 49 04	 mov	 ecx, DWORD PTR [ecx+4]
  0018a	c6 41 0c 00	 mov	 BYTE PTR [ecx+12], 0

; 729  :                     _Lrotate(_Pnode->_Parent->_Parent);

  0018e	8b 48 04	 mov	 ecx, DWORD PTR [eax+4]
  00191	8b 51 04	 mov	 edx, DWORD PTR [ecx+4]

; 484  :         _Nodeptr _Pnode    = _Wherenode->_Right;

  00194	8b 72 08	 mov	 esi, DWORD PTR [edx+8]

; 485  :         _Wherenode->_Right = _Pnode->_Left;

  00197	8b 0e		 mov	 ecx, DWORD PTR [esi]
  00199	89 4a 08	 mov	 DWORD PTR [edx+8], ecx

; 486  : 
; 487  :         if (!_Pnode->_Left->_Isnil) {

  0019c	8b 0e		 mov	 ecx, DWORD PTR [esi]
  0019e	80 79 0d 00	 cmp	 BYTE PTR [ecx+13], 0
  001a2	75 03		 jne	 SHORT $LN45@Insert_nod

; 488  :             _Pnode->_Left->_Parent = _Wherenode;

  001a4	89 51 04	 mov	 DWORD PTR [ecx+4], edx
$LN45@Insert_nod:

; 489  :         }
; 490  : 
; 491  :         _Pnode->_Parent = _Wherenode->_Parent;

  001a7	8b 4a 04	 mov	 ecx, DWORD PTR [edx+4]
  001aa	89 4e 04	 mov	 DWORD PTR [esi+4], ecx

; 492  : 
; 493  :         if (_Wherenode == _Myhead->_Parent) {

  001ad	8b 0b		 mov	 ecx, DWORD PTR [ebx]
  001af	3b 51 04	 cmp	 edx, DWORD PTR [ecx+4]
  001b2	75 05		 jne	 SHORT $LN46@Insert_nod

; 494  :             _Myhead->_Parent = _Pnode;

  001b4	89 71 04	 mov	 DWORD PTR [ecx+4], esi
  001b7	eb 0e		 jmp	 SHORT $LN49@Insert_nod
$LN46@Insert_nod:

; 495  :         } else if (_Wherenode == _Wherenode->_Parent->_Left) {

  001b9	8b 4a 04	 mov	 ecx, DWORD PTR [edx+4]
  001bc	3b 11		 cmp	 edx, DWORD PTR [ecx]
  001be	75 04		 jne	 SHORT $LN48@Insert_nod

; 496  :             _Wherenode->_Parent->_Left = _Pnode;

  001c0	89 31		 mov	 DWORD PTR [ecx], esi

; 497  :         } else {

  001c2	eb 03		 jmp	 SHORT $LN49@Insert_nod
$LN48@Insert_nod:

; 498  :             _Wherenode->_Parent->_Right = _Pnode;

  001c4	89 71 08	 mov	 DWORD PTR [ecx+8], esi
$LN49@Insert_nod:

; 499  :         }
; 500  : 
; 501  :         _Pnode->_Left       = _Wherenode;

  001c7	89 16		 mov	 DWORD PTR [esi], edx
$LN81@Insert_nod:

; 693  :             }
; 694  :         }
; 695  : 
; 696  :         for (_Nodeptr _Pnode = _Newnode; _Pnode->_Parent->_Color == _Red;) {

  001c9	89 72 04	 mov	 DWORD PTR [edx+4], esi
$LN2@Insert_nod:
  001cc	8b 48 04	 mov	 ecx, DWORD PTR [eax+4]
  001cf	80 79 0c 00	 cmp	 BYTE PTR [ecx+12], 0
  001d3	0f 84 87 fe ff
	ff		 je	 $LL4@Insert_nod
  001d9	5e		 pop	 esi
$LN3@Insert_nod:

; 730  :                 }
; 731  :             }
; 732  :         }
; 733  : 
; 734  :         _Head->_Parent->_Color = _Black; // root is always black

  001da	8b 45 fc	 mov	 eax, DWORD PTR __Head$1$[ebp]
  001dd	8b 40 04	 mov	 eax, DWORD PTR [eax+4]
  001e0	c6 40 0c 01	 mov	 BYTE PTR [eax+12], 1

; 735  :         return _Newnode;
; 736  :     }

  001e4	8b c7		 mov	 eax, edi
  001e6	5f		 pop	 edi
  001e7	5b		 pop	 ebx
  001e8	8b e5		 mov	 esp, ebp
  001ea	5d		 pop	 ebp
  001eb	c2 0c 00	 ret	 12			; 0000000cH
?_Insert_node@?$_Tree_val@U?$_Tree_simple_types@U?$pair@$$CBKPAVIBuff@@@std@@@std@@@std@@QAEPAU?$_Tree_node@U?$pair@$$CBKPAVIBuff@@@std@@PAX@2@U?$_Tree_id@PAU?$_Tree_node@U?$pair@$$CBKPAVIBuff@@@std@@PAX@std@@@2@QAU32@@Z ENDP ; std::_Tree_val<std::_Tree_simple_types<std::pair<unsigned long const ,IBuff *> > >::_Insert_node
_TEXT	ENDS
; Function compile flags: /Ogtp
; File C:\Program Files\Microsoft Visual Studio\2022\Professional\VC\Tools\MSVC\14.44.35207\include\xtree
; File C:\Program Files\Microsoft Visual Studio\2022\Professional\VC\Tools\MSVC\14.44.35207\include\utility
; File C:\Program Files\Microsoft Visual Studio\2022\Professional\VC\Tools\MSVC\14.44.35207\include\xtree
;	COMDAT ?_Extract@?$_Tree_val@U?$_Tree_simple_types@U?$pair@$$CBKPAVIBuff@@@std@@@std@@@std@@QAEPAU?$_Tree_node@U?$pair@$$CBKPAVIBuff@@@std@@PAX@2@V?$_Tree_unchecked_const_iterator@V?$_Tree_val@U?$_Tree_simple_types@U?$pair@$$CBKPAVIBuff@@@std@@@std@@@std@@U_Iterator_base0@2@@2@@Z
_TEXT	SEGMENT
tv1039 = -16						; size = 4
tv1073 = -12						; size = 4
tv1093 = -12						; size = 4
$T1 = -12						; size = 4
__Erasednode$1$ = -8					; size = 4
_this$1$ = -4						; size = 4
__Where$ = 8						; size = 4
?_Extract@?$_Tree_val@U?$_Tree_simple_types@U?$pair@$$CBKPAVIBuff@@@std@@@std@@@std@@QAEPAU?$_Tree_node@U?$pair@$$CBKPAVIBuff@@@std@@PAX@2@V?$_Tree_unchecked_const_iterator@V?$_Tree_val@U?$_Tree_simple_types@U?$pair@$$CBKPAVIBuff@@@std@@@std@@@std@@U_Iterator_base0@2@@2@@Z PROC ; std::_Tree_val<std::_Tree_simple_types<std::pair<unsigned long const ,IBuff *> > >::_Extract, COMDAT
; _this$ = ecx

; 527  :     _Nodeptr _Extract(_Unchecked_const_iterator _Where) noexcept {

  00000	55		 push	 ebp
  00001	8b ec		 mov	 ebp, esp
  00003	83 ec 10	 sub	 esp, 16			; 00000010H

; 528  :         _Nodeptr _Erasednode = _Where._Ptr; // node to erase

  00006	8b 45 08	 mov	 eax, DWORD PTR __Where$[ebp]
  00009	53		 push	 ebx
  0000a	56		 push	 esi
  0000b	8b d9		 mov	 ebx, ecx
  0000d	89 45 f8	 mov	 DWORD PTR __Erasednode$1$[ebp], eax
  00010	57		 push	 edi

; 529  :         ++_Where; // save successor iterator for return

  00011	8d 4d 08	 lea	 ecx, DWORD PTR __Where$[ebp]
  00014	89 5d fc	 mov	 DWORD PTR _this$1$[ebp], ebx
  00017	e8 00 00 00 00	 call	 ??E?$_Tree_unchecked_const_iterator@V?$_Tree_val@U?$_Tree_simple_types@U?$pair@$$CBKPAVIBuff@@@std@@@std@@@std@@U_Iterator_base0@2@@std@@QAEAAV01@XZ ; std::_Tree_unchecked_const_iterator<std::_Tree_val<std::_Tree_simple_types<std::pair<unsigned long const ,IBuff *> > >,std::_Iterator_base0>::operator++

; 530  : 
; 531  :         _Nodeptr _Fixnode; // the node to recolor as needed
; 532  :         _Nodeptr _Fixnodeparent; // parent of _Fixnode (which may be nil)
; 533  :         _Nodeptr _Pnode = _Erasednode;
; 534  : 
; 535  :         if (_Pnode->_Left->_Isnil) {

  0001c	8b 4d f8	 mov	 ecx, DWORD PTR __Erasednode$1$[ebp]
  0001f	8b 01		 mov	 eax, DWORD PTR [ecx]
  00021	8b 79 08	 mov	 edi, DWORD PTR [ecx+8]
  00024	80 78 0d 00	 cmp	 BYTE PTR [eax+13], 0
  00028	75 18		 jne	 SHORT $LN94@Extract

; 536  :             _Fixnode = _Pnode->_Right; // stitch up right subtree
; 537  :         } else if (_Pnode->_Right->_Isnil) {

  0002a	80 7f 0d 00	 cmp	 BYTE PTR [edi+13], 0
  0002e	74 04		 je	 SHORT $LN7@Extract

; 538  :             _Fixnode = _Pnode->_Left; // stitch up left subtree

  00030	8b f8		 mov	 edi, eax

; 539  :         } else { // two subtrees, must lift successor node to replace erased

  00032	eb 0e		 jmp	 SHORT $LN94@Extract
$LN7@Extract:

; 540  :             _Pnode   = _Where._Ptr; // _Pnode is successor node

  00034	8b 55 08	 mov	 edx, DWORD PTR __Where$[ebp]

; 541  :             _Fixnode = _Pnode->_Right; // _Fixnode is only subtree

  00037	8b 7a 08	 mov	 edi, DWORD PTR [edx+8]
  0003a	3b d1		 cmp	 edx, ecx

; 542  :         }
; 543  : 
; 544  :         if (_Pnode == _Erasednode) { // at most one subtree, relink it

  0003c	0f 85 91 00 00
	00		 jne	 $LN9@Extract
$LN94@Extract:

; 545  :             _Fixnodeparent = _Erasednode->_Parent;
; 546  :             if (!_Fixnode->_Isnil) {

  00042	80 7f 0d 00	 cmp	 BYTE PTR [edi+13], 0
  00046	8b 71 04	 mov	 esi, DWORD PTR [ecx+4]
  00049	75 03		 jne	 SHORT $LN11@Extract

; 547  :                 _Fixnode->_Parent = _Fixnodeparent; // link up

  0004b	89 77 04	 mov	 DWORD PTR [edi+4], esi
$LN11@Extract:

; 548  :             }
; 549  : 
; 550  :             if (_Myhead->_Parent == _Erasednode) {

  0004e	8b 03		 mov	 eax, DWORD PTR [ebx]
  00050	39 48 04	 cmp	 DWORD PTR [eax+4], ecx
  00053	75 05		 jne	 SHORT $LN12@Extract

; 551  :                 _Myhead->_Parent = _Fixnode; // link down from root

  00055	89 78 04	 mov	 DWORD PTR [eax+4], edi
  00058	eb 0b		 jmp	 SHORT $LN15@Extract
$LN12@Extract:

; 552  :             } else if (_Fixnodeparent->_Left == _Erasednode) {

  0005a	39 0e		 cmp	 DWORD PTR [esi], ecx
  0005c	75 04		 jne	 SHORT $LN14@Extract

; 553  :                 _Fixnodeparent->_Left = _Fixnode; // link down to left

  0005e	89 3e		 mov	 DWORD PTR [esi], edi

; 554  :             } else {

  00060	eb 03		 jmp	 SHORT $LN15@Extract
$LN14@Extract:

; 555  :                 _Fixnodeparent->_Right = _Fixnode; // link down to right

  00062	89 7e 08	 mov	 DWORD PTR [esi+8], edi
$LN15@Extract:

; 556  :             }
; 557  : 
; 558  :             if (_Myhead->_Left == _Erasednode) {

  00065	8b 03		 mov	 eax, DWORD PTR [ebx]
  00067	39 08		 cmp	 DWORD PTR [eax], ecx
  00069	75 28		 jne	 SHORT $LN16@Extract

; 559  :                 _Myhead->_Left = _Fixnode->_Isnil ? _Fixnodeparent // smallest is parent of erased node

  0006b	80 7f 0d 00	 cmp	 BYTE PTR [edi+13], 0
  0006f	74 04		 je	 SHORT $LN42@Extract
  00071	8b d6		 mov	 edx, esi
  00073	eb 1c		 jmp	 SHORT $LN43@Extract
$LN42@Extract:

; 476  :         while (!_Pnode->_Left->_Isnil) {

  00075	8b 0f		 mov	 ecx, DWORD PTR [edi]

; 559  :                 _Myhead->_Left = _Fixnode->_Isnil ? _Fixnodeparent // smallest is parent of erased node

  00077	8b d7		 mov	 edx, edi

; 476  :         while (!_Pnode->_Left->_Isnil) {

  00079	80 79 0d 00	 cmp	 BYTE PTR [ecx+13], 0
  0007d	75 0f		 jne	 SHORT $LN49@Extract
  0007f	90		 npad	 1
$LL48@Extract:
  00080	8b 01		 mov	 eax, DWORD PTR [ecx]

; 477  :             _Pnode = _Pnode->_Left;

  00082	8b d1		 mov	 edx, ecx
  00084	8b c8		 mov	 ecx, eax
  00086	80 78 0d 00	 cmp	 BYTE PTR [eax+13], 0
  0008a	74 f4		 je	 SHORT $LL48@Extract
  0008c	8b 03		 mov	 eax, DWORD PTR [ebx]
$LN49@Extract:
  0008e	8b 4d f8	 mov	 ecx, DWORD PTR __Erasednode$1$[ebp]
$LN43@Extract:

; 559  :                 _Myhead->_Left = _Fixnode->_Isnil ? _Fixnodeparent // smallest is parent of erased node

  00091	89 10		 mov	 DWORD PTR [eax], edx
$LN16@Extract:

; 560  :                                                   : _Min(_Fixnode); // smallest in relinked subtree
; 561  :             }
; 562  : 
; 563  :             if (_Myhead->_Right == _Erasednode) {

  00093	8b 13		 mov	 edx, DWORD PTR [ebx]
  00095	39 4a 08	 cmp	 DWORD PTR [edx+8], ecx
  00098	75 34		 jne	 SHORT $LN17@Extract

; 564  :                 _Myhead->_Right = _Fixnode->_Isnil ? _Fixnodeparent // largest is parent of erased node

  0009a	80 7f 0d 00	 cmp	 BYTE PTR [edi+13], 0
  0009e	74 0d		 je	 SHORT $LN44@Extract

; 565  :                                                    : _Max(_Fixnode); // largest in relinked subtree
; 566  :             }
; 567  :         } else { // erased has two subtrees, _Pnode is successor to erased

  000a0	8b 45 f8	 mov	 eax, DWORD PTR __Erasednode$1$[ebp]
  000a3	8b ce		 mov	 ecx, esi
  000a5	89 4a 08	 mov	 DWORD PTR [edx+8], ecx
  000a8	e9 94 00 00 00	 jmp	 $LN58@Extract
$LN44@Extract:

; 468  :         while (!_Pnode->_Right->_Isnil) {

  000ad	8b 47 08	 mov	 eax, DWORD PTR [edi+8]

; 564  :                 _Myhead->_Right = _Fixnode->_Isnil ? _Fixnodeparent // largest is parent of erased node

  000b0	8b cf		 mov	 ecx, edi

; 468  :         while (!_Pnode->_Right->_Isnil) {

  000b2	80 78 0d 00	 cmp	 BYTE PTR [eax+13], 0
  000b6	75 13		 jne	 SHORT $LN54@Extract
  000b8	0f 1f 84 00 00
	00 00 00	 npad	 8
$LL53@Extract:

; 469  :             _Pnode = _Pnode->_Right;

  000c0	8b c8		 mov	 ecx, eax
  000c2	8b 41 08	 mov	 eax, DWORD PTR [ecx+8]
  000c5	80 78 0d 00	 cmp	 BYTE PTR [eax+13], 0
  000c9	74 f5		 je	 SHORT $LL53@Extract
$LN54@Extract:

; 564  :                 _Myhead->_Right = _Fixnode->_Isnil ? _Fixnodeparent // largest is parent of erased node

  000cb	89 4a 08	 mov	 DWORD PTR [edx+8], ecx
$LN17@Extract:

; 565  :                                                    : _Max(_Fixnode); // largest in relinked subtree
; 566  :             }
; 567  :         } else { // erased has two subtrees, _Pnode is successor to erased

  000ce	8b 45 f8	 mov	 eax, DWORD PTR __Erasednode$1$[ebp]
  000d1	eb 6e		 jmp	 SHORT $LN58@Extract
$LN9@Extract:

; 568  :             _Erasednode->_Left->_Parent = _Pnode; // link left up

  000d3	89 50 04	 mov	 DWORD PTR [eax+4], edx

; 569  :             _Pnode->_Left               = _Erasednode->_Left; // link successor down

  000d6	8b 01		 mov	 eax, DWORD PTR [ecx]
  000d8	89 02		 mov	 DWORD PTR [edx], eax

; 570  : 
; 571  :             if (_Pnode == _Erasednode->_Right) {

  000da	8d 42 04	 lea	 eax, DWORD PTR [edx+4]
  000dd	89 45 f4	 mov	 DWORD PTR $T1[ebp], eax
  000e0	3b 51 08	 cmp	 edx, DWORD PTR [ecx+8]
  000e3	75 04		 jne	 SHORT $LN18@Extract

; 572  :                 _Fixnodeparent = _Pnode; // successor is next to erased

  000e5	8b f2		 mov	 esi, edx

; 573  :             } else { // successor further down, link in place of erased

  000e7	eb 1f		 jmp	 SHORT $LN19@Extract
$LN18@Extract:

; 574  :                 _Fixnodeparent = _Pnode->_Parent; // parent is successor's
; 575  :                 if (!_Fixnode->_Isnil) {

  000e9	80 7f 0d 00	 cmp	 BYTE PTR [edi+13], 0
  000ed	8b 30		 mov	 esi, DWORD PTR [eax]
  000ef	75 03		 jne	 SHORT $LN20@Extract

; 576  :                     _Fixnode->_Parent = _Fixnodeparent; // link fix up

  000f1	89 77 04	 mov	 DWORD PTR [edi+4], esi
$LN20@Extract:

; 577  :                 }
; 578  : 
; 579  :                 _Fixnodeparent->_Left        = _Fixnode; // link fix down

  000f4	89 3e		 mov	 DWORD PTR [esi], edi

; 580  :                 _Pnode->_Right               = _Erasednode->_Right; // link next down

  000f6	8b 41 08	 mov	 eax, DWORD PTR [ecx+8]
  000f9	89 42 08	 mov	 DWORD PTR [edx+8], eax

; 581  :                 _Erasednode->_Right->_Parent = _Pnode; // right up

  000fc	8b 41 08	 mov	 eax, DWORD PTR [ecx+8]
  000ff	89 50 04	 mov	 DWORD PTR [eax+4], edx
  00102	8d 42 04	 lea	 eax, DWORD PTR [edx+4]
  00105	89 45 f4	 mov	 DWORD PTR $T1[ebp], eax
$LN19@Extract:

; 582  :             }
; 583  : 
; 584  :             if (_Myhead->_Parent == _Erasednode) {

  00108	8b 03		 mov	 eax, DWORD PTR [ebx]
  0010a	39 48 04	 cmp	 DWORD PTR [eax+4], ecx
  0010d	75 05		 jne	 SHORT $LN21@Extract

; 585  :                 _Myhead->_Parent = _Pnode; // link down from root

  0010f	89 50 04	 mov	 DWORD PTR [eax+4], edx
  00112	eb 0e		 jmp	 SHORT $LN141@Extract
$LN21@Extract:

; 586  :             } else if (_Erasednode->_Parent->_Left == _Erasednode) {

  00114	8b 41 04	 mov	 eax, DWORD PTR [ecx+4]
  00117	39 08		 cmp	 DWORD PTR [eax], ecx
  00119	75 04		 jne	 SHORT $LN23@Extract

; 587  :                 _Erasednode->_Parent->_Left = _Pnode; // link down to left

  0011b	89 10		 mov	 DWORD PTR [eax], edx

; 588  :             } else {

  0011d	eb 03		 jmp	 SHORT $LN141@Extract
$LN23@Extract:

; 589  :                 _Erasednode->_Parent->_Right = _Pnode; // link down to right

  0011f	89 50 08	 mov	 DWORD PTR [eax+8], edx
$LN141@Extract:

; 590  :             }
; 591  : 
; 592  :             _Pnode->_Parent = _Erasednode->_Parent; // link successor up

  00122	b8 04 00 00 00	 mov	 eax, 4
  00127	8b 04 08	 mov	 eax, DWORD PTR [eax+ecx]
  0012a	8b 4d f4	 mov	 ecx, DWORD PTR $T1[ebp]
  0012d	89 01		 mov	 DWORD PTR [ecx], eax
; File C:\Program Files\Microsoft Visual Studio\2022\Professional\VC\Tools\MSVC\14.44.35207\include\utility

; 140  :     _Left    = _STD move(_Right);

  0012f	8b 45 f8	 mov	 eax, DWORD PTR __Erasednode$1$[ebp]
  00132	8a 4a 0c	 mov	 cl, BYTE PTR [edx+12]
  00135	8a 40 0c	 mov	 al, BYTE PTR [eax+12]
  00138	88 42 0c	 mov	 BYTE PTR [edx+12], al

; 141  :     _Right   = _STD move(_Tmp);

  0013b	8b 45 f8	 mov	 eax, DWORD PTR __Erasednode$1$[ebp]
  0013e	88 48 0c	 mov	 BYTE PTR [eax+12], cl
$LN58@Extract:
; File C:\Program Files\Microsoft Visual Studio\2022\Professional\VC\Tools\MSVC\14.44.35207\include\xtree

; 596  :         if (_Erasednode->_Color == _Black) { // erasing black link, must recolor/rebalance tree

  00141	80 78 0c 01	 cmp	 BYTE PTR [eax+12], 1
  00145	0f 85 ba 01 00
	00		 jne	 $LN25@Extract

; 597  :             for (; _Fixnode != _Myhead->_Parent && _Fixnode->_Color == _Black; _Fixnodeparent = _Fixnode->_Parent) {

  0014b	8b 03		 mov	 eax, DWORD PTR [ebx]
  0014d	3b 78 04	 cmp	 edi, DWORD PTR [eax+4]
  00150	0f 84 a8 01 00
	00		 je	 $LN3@Extract
  00156	80 7f 0c 01	 cmp	 BYTE PTR [edi+12], 1
  0015a	89 75 f4	 mov	 DWORD PTR tv1093[ebp], esi
  0015d	0f 85 9b 01 00
	00		 jne	 $LN3@Extract
$LL4@Extract:

; 598  :                 if (_Fixnode == _Fixnodeparent->_Left) { // fixup left subtree

  00163	8b 0e		 mov	 ecx, DWORD PTR [esi]
  00165	3b f9		 cmp	 edi, ecx
  00167	0f 85 be 00 00
	00		 jne	 $LN26@Extract

; 599  :                     _Pnode = _Fixnodeparent->_Right;

  0016d	8b 4e 08	 mov	 ecx, DWORD PTR [esi+8]

; 600  :                     if (_Pnode->_Color == _Red) { // rotate red up from right subtree

  00170	80 79 0c 00	 cmp	 BYTE PTR [ecx+12], 0
  00174	75 54		 jne	 SHORT $LN95@Extract

; 601  :                         _Pnode->_Color         = _Black;

  00176	c6 41 0c 01	 mov	 BYTE PTR [ecx+12], 1

; 484  :         _Nodeptr _Pnode    = _Wherenode->_Right;

  0017a	8b 4e 08	 mov	 ecx, DWORD PTR [esi+8]

; 602  :                         _Fixnodeparent->_Color = _Red;

  0017d	c6 46 0c 00	 mov	 BYTE PTR [esi+12], 0

; 485  :         _Wherenode->_Right = _Pnode->_Left;

  00181	8b 01		 mov	 eax, DWORD PTR [ecx]
  00183	89 46 08	 mov	 DWORD PTR [esi+8], eax

; 486  : 
; 487  :         if (!_Pnode->_Left->_Isnil) {

  00186	8b 01		 mov	 eax, DWORD PTR [ecx]
  00188	80 78 0d 00	 cmp	 BYTE PTR [eax+13], 0
  0018c	75 03		 jne	 SHORT $LN61@Extract

; 488  :             _Pnode->_Left->_Parent = _Wherenode;

  0018e	89 70 04	 mov	 DWORD PTR [eax+4], esi
$LN61@Extract:

; 489  :         }
; 490  : 
; 491  :         _Pnode->_Parent = _Wherenode->_Parent;

  00191	8b 46 04	 mov	 eax, DWORD PTR [esi+4]
  00194	8d 56 04	 lea	 edx, DWORD PTR [esi+4]
  00197	89 41 04	 mov	 DWORD PTR [ecx+4], eax

; 492  : 
; 493  :         if (_Wherenode == _Myhead->_Parent) {

  0019a	8b 03		 mov	 eax, DWORD PTR [ebx]
  0019c	3b 70 04	 cmp	 esi, DWORD PTR [eax+4]
  0019f	75 0c		 jne	 SHORT $LN62@Extract

; 494  :             _Myhead->_Parent = _Pnode;

  001a1	89 48 04	 mov	 DWORD PTR [eax+4], ecx

; 499  :         }
; 500  : 
; 501  :         _Pnode->_Left       = _Wherenode;

  001a4	89 31		 mov	 DWORD PTR [ecx], esi

; 502  :         _Wherenode->_Parent = _Pnode;

  001a6	89 0a		 mov	 DWORD PTR [edx], ecx

; 603  :                         _Lrotate(_Fixnodeparent);
; 604  :                         _Pnode = _Fixnodeparent->_Right;

  001a8	8b 4e 08	 mov	 ecx, DWORD PTR [esi+8]
  001ab	eb 20		 jmp	 SHORT $LN87@Extract
$LN62@Extract:

; 495  :         } else if (_Wherenode == _Wherenode->_Parent->_Left) {

  001ad	8b 02		 mov	 eax, DWORD PTR [edx]
  001af	3b 30		 cmp	 esi, DWORD PTR [eax]
  001b1	75 0b		 jne	 SHORT $LN64@Extract

; 496  :             _Wherenode->_Parent->_Left = _Pnode;

  001b3	89 08		 mov	 DWORD PTR [eax], ecx

; 499  :         }
; 500  : 
; 501  :         _Pnode->_Left       = _Wherenode;

  001b5	89 31		 mov	 DWORD PTR [ecx], esi

; 502  :         _Wherenode->_Parent = _Pnode;

  001b7	89 0a		 mov	 DWORD PTR [edx], ecx

; 603  :                         _Lrotate(_Fixnodeparent);
; 604  :                         _Pnode = _Fixnodeparent->_Right;

  001b9	8b 4e 08	 mov	 ecx, DWORD PTR [esi+8]
  001bc	eb 0f		 jmp	 SHORT $LN87@Extract
$LN64@Extract:

; 498  :             _Wherenode->_Parent->_Right = _Pnode;

  001be	89 48 08	 mov	 DWORD PTR [eax+8], ecx

; 499  :         }
; 500  : 
; 501  :         _Pnode->_Left       = _Wherenode;

  001c1	89 31		 mov	 DWORD PTR [ecx], esi

; 502  :         _Wherenode->_Parent = _Pnode;

  001c3	89 0a		 mov	 DWORD PTR [edx], ecx

; 603  :                         _Lrotate(_Fixnodeparent);
; 604  :                         _Pnode = _Fixnodeparent->_Right;

  001c5	8b 4e 08	 mov	 ecx, DWORD PTR [esi+8]
  001c8	eb 03		 jmp	 SHORT $LN87@Extract
$LN95@Extract:
  001ca	8d 56 04	 lea	 edx, DWORD PTR [esi+4]
$LN87@Extract:

; 605  :                     }
; 606  : 
; 607  :                     if (_Pnode->_Isnil) {

  001cd	80 79 0d 00	 cmp	 BYTE PTR [ecx+13], 0
  001d1	0f 85 d0 00 00
	00		 jne	 $LN2@Extract

; 608  :                         _Fixnode = _Fixnodeparent; // shouldn't happen
; 609  :                     } else if (_Pnode->_Left->_Color == _Black
; 610  :                                && _Pnode->_Right->_Color == _Black) { // redden right subtree with black children

  001d7	8b 01		 mov	 eax, DWORD PTR [ecx]
  001d9	80 78 0c 01	 cmp	 BYTE PTR [eax+12], 1
  001dd	75 0d		 jne	 SHORT $LN97@Extract
  001df	8b 41 08	 mov	 eax, DWORD PTR [ecx+8]
  001e2	80 78 0c 01	 cmp	 BYTE PTR [eax+12], 1
  001e6	0f 84 b4 00 00
	00		 je	 $LN142@Extract
$LN97@Extract:

; 611  :                         _Pnode->_Color = _Red;
; 612  :                         _Fixnode       = _Fixnodeparent;
; 613  :                     } else { // must rearrange right subtree
; 614  :                         if (_Pnode->_Right->_Color == _Black) { // rotate red up from left sub-subtree

  001ec	8b 41 08	 mov	 eax, DWORD PTR [ecx+8]
  001ef	8b 5d fc	 mov	 ebx, DWORD PTR _this$1$[ebp]
  001f2	80 78 0c 01	 cmp	 BYTE PTR [eax+12], 1
  001f6	75 15		 jne	 SHORT $LN33@Extract

; 615  :                             _Pnode->_Left->_Color = _Black;

  001f8	8b 01		 mov	 eax, DWORD PTR [ecx]

; 616  :                             _Pnode->_Color        = _Red;
; 617  :                             _Rrotate(_Pnode);

  001fa	51		 push	 ecx
  001fb	c6 40 0c 01	 mov	 BYTE PTR [eax+12], 1
  001ff	c6 41 0c 00	 mov	 BYTE PTR [ecx+12], 0
  00203	8b cb		 mov	 ecx, ebx
  00205	e8 00 00 00 00	 call	 ?_Rrotate@?$_Tree_val@U?$_Tree_simple_types@U?$pair@$$CBKPAVIBuff@@@std@@@std@@@std@@QAEXPAU?$_Tree_node@U?$pair@$$CBKPAVIBuff@@@std@@PAX@2@@Z ; std::_Tree_val<std::_Tree_simple_types<std::pair<unsigned long const ,IBuff *> > >::_Rrotate

; 618  :                             _Pnode = _Fixnodeparent->_Right;

  0020a	8b 4e 08	 mov	 ecx, DWORD PTR [esi+8]
$LN33@Extract:

; 619  :                         }
; 620  : 
; 621  :                         _Pnode->_Color         = _Fixnodeparent->_Color;

  0020d	8a 46 0c	 mov	 al, BYTE PTR [esi+12]
  00210	88 41 0c	 mov	 BYTE PTR [ecx+12], al

; 622  :                         _Fixnodeparent->_Color = _Black;

  00213	c6 46 0c 01	 mov	 BYTE PTR [esi+12], 1

; 623  :                         _Pnode->_Right->_Color = _Black;

  00217	8b 41 08	 mov	 eax, DWORD PTR [ecx+8]

; 624  :                         _Lrotate(_Fixnodeparent);

  0021a	8b cb		 mov	 ecx, ebx
  0021c	56		 push	 esi
  0021d	c6 40 0c 01	 mov	 BYTE PTR [eax+12], 1
  00221	e8 00 00 00 00	 call	 ?_Lrotate@?$_Tree_val@U?$_Tree_simple_types@U?$pair@$$CBKPAVIBuff@@@std@@@std@@@std@@QAEXPAU?$_Tree_node@U?$pair@$$CBKPAVIBuff@@@std@@PAX@2@@Z ; std::_Tree_val<std::_Tree_simple_types<std::pair<unsigned long const ,IBuff *> > >::_Lrotate

; 625  :                         break; // tree now recolored/rebalanced

  00226	e9 d3 00 00 00	 jmp	 $LN3@Extract
$LN26@Extract:

; 626  :                     }
; 627  :                 } else { // fixup right subtree
; 628  :                     _Pnode = _Fixnodeparent->_Left;
; 629  :                     if (_Pnode->_Color == _Red) { // rotate red up from left subtree

  0022b	80 79 0c 00	 cmp	 BYTE PTR [ecx+12], 0
  0022f	75 55		 jne	 SHORT $LN96@Extract

; 630  :                         _Pnode->_Color         = _Black;

  00231	c6 41 0c 01	 mov	 BYTE PTR [ecx+12], 1

; 506  :         _Nodeptr _Pnode   = _Wherenode->_Left;

  00235	8b 0e		 mov	 ecx, DWORD PTR [esi]

; 631  :                         _Fixnodeparent->_Color = _Red;

  00237	c6 46 0c 00	 mov	 BYTE PTR [esi+12], 0

; 507  :         _Wherenode->_Left = _Pnode->_Right;

  0023b	8b 41 08	 mov	 eax, DWORD PTR [ecx+8]
  0023e	89 06		 mov	 DWORD PTR [esi], eax

; 508  : 
; 509  :         if (!_Pnode->_Right->_Isnil) {

  00240	8b 41 08	 mov	 eax, DWORD PTR [ecx+8]
  00243	80 78 0d 00	 cmp	 BYTE PTR [eax+13], 0
  00247	75 03		 jne	 SHORT $LN69@Extract

; 510  :             _Pnode->_Right->_Parent = _Wherenode;

  00249	89 70 04	 mov	 DWORD PTR [eax+4], esi
$LN69@Extract:

; 511  :         }
; 512  : 
; 513  :         _Pnode->_Parent = _Wherenode->_Parent;

  0024c	8b 46 04	 mov	 eax, DWORD PTR [esi+4]
  0024f	8d 56 04	 lea	 edx, DWORD PTR [esi+4]
  00252	89 41 04	 mov	 DWORD PTR [ecx+4], eax

; 514  : 
; 515  :         if (_Wherenode == _Myhead->_Parent) {

  00255	8b 03		 mov	 eax, DWORD PTR [ebx]
  00257	3b 70 04	 cmp	 esi, DWORD PTR [eax+4]
  0025a	75 0c		 jne	 SHORT $LN70@Extract

; 516  :             _Myhead->_Parent = _Pnode;

  0025c	89 48 04	 mov	 DWORD PTR [eax+4], ecx

; 521  :         }
; 522  : 
; 523  :         _Pnode->_Right      = _Wherenode;

  0025f	89 71 08	 mov	 DWORD PTR [ecx+8], esi

; 524  :         _Wherenode->_Parent = _Pnode;

  00262	89 0a		 mov	 DWORD PTR [edx], ecx

; 632  :                         _Rrotate(_Fixnodeparent);
; 633  :                         _Pnode = _Fixnodeparent->_Left;

  00264	8b 0e		 mov	 ecx, DWORD PTR [esi]
  00266	eb 21		 jmp	 SHORT $LN86@Extract
$LN70@Extract:

; 517  :         } else if (_Wherenode == _Wherenode->_Parent->_Right) {

  00268	8b 02		 mov	 eax, DWORD PTR [edx]
  0026a	3b 70 08	 cmp	 esi, DWORD PTR [eax+8]
  0026d	75 0c		 jne	 SHORT $LN72@Extract

; 518  :             _Wherenode->_Parent->_Right = _Pnode;

  0026f	89 48 08	 mov	 DWORD PTR [eax+8], ecx

; 521  :         }
; 522  : 
; 523  :         _Pnode->_Right      = _Wherenode;

  00272	89 71 08	 mov	 DWORD PTR [ecx+8], esi

; 524  :         _Wherenode->_Parent = _Pnode;

  00275	89 0a		 mov	 DWORD PTR [edx], ecx

; 632  :                         _Rrotate(_Fixnodeparent);
; 633  :                         _Pnode = _Fixnodeparent->_Left;

  00277	8b 0e		 mov	 ecx, DWORD PTR [esi]
  00279	eb 0e		 jmp	 SHORT $LN86@Extract
$LN72@Extract:

; 520  :             _Wherenode->_Parent->_Left = _Pnode;

  0027b	89 08		 mov	 DWORD PTR [eax], ecx

; 521  :         }
; 522  : 
; 523  :         _Pnode->_Right      = _Wherenode;

  0027d	89 71 08	 mov	 DWORD PTR [ecx+8], esi

; 524  :         _Wherenode->_Parent = _Pnode;

  00280	89 0a		 mov	 DWORD PTR [edx], ecx

; 632  :                         _Rrotate(_Fixnodeparent);
; 633  :                         _Pnode = _Fixnodeparent->_Left;

  00282	8b 0e		 mov	 ecx, DWORD PTR [esi]
  00284	eb 03		 jmp	 SHORT $LN86@Extract
$LN96@Extract:
  00286	8d 56 04	 lea	 edx, DWORD PTR [esi+4]
$LN86@Extract:

; 634  :                     }
; 635  : 
; 636  :                     if (_Pnode->_Isnil) {

  00289	80 79 0d 00	 cmp	 BYTE PTR [ecx+13], 0
  0028d	75 18		 jne	 SHORT $LN2@Extract

; 637  :                         _Fixnode = _Fixnodeparent; // shouldn't happen
; 638  :                     } else if (_Pnode->_Right->_Color == _Black
; 639  :                                && _Pnode->_Left->_Color == _Black) { // redden left subtree with black children

  0028f	8b 59 08	 mov	 ebx, DWORD PTR [ecx+8]
  00292	80 7b 0c 01	 cmp	 BYTE PTR [ebx+12], 1
  00296	75 2c		 jne	 SHORT $LN98@Extract
  00298	8b 01		 mov	 eax, DWORD PTR [ecx]
  0029a	80 78 0c 01	 cmp	 BYTE PTR [eax+12], 1
  0029e	75 24		 jne	 SHORT $LN98@Extract
$LN142@Extract:

; 597  :             for (; _Fixnode != _Myhead->_Parent && _Fixnode->_Color == _Black; _Fixnodeparent = _Fixnode->_Parent) {

  002a0	8b 5d fc	 mov	 ebx, DWORD PTR _this$1$[ebp]
  002a3	c6 41 0c 00	 mov	 BYTE PTR [ecx+12], 0
$LN2@Extract:
  002a7	8b 03		 mov	 eax, DWORD PTR [ebx]
  002a9	8b 4d f4	 mov	 ecx, DWORD PTR tv1093[ebp]
  002ac	8b f9		 mov	 edi, ecx
  002ae	8b 32		 mov	 esi, DWORD PTR [edx]
  002b0	3b 48 04	 cmp	 ecx, DWORD PTR [eax+4]
  002b3	74 49		 je	 SHORT $LN3@Extract
  002b5	80 7f 0c 01	 cmp	 BYTE PTR [edi+12], 1
  002b9	89 75 f4	 mov	 DWORD PTR tv1093[ebp], esi
  002bc	0f 84 a1 fe ff
	ff		 je	 $LL4@Extract
  002c2	eb 3a		 jmp	 SHORT $LN3@Extract
$LN98@Extract:

; 640  :                         _Pnode->_Color = _Red;
; 641  :                         _Fixnode       = _Fixnodeparent;
; 642  :                     } else { // must rearrange left subtree
; 643  :                         if (_Pnode->_Left->_Color == _Black) { // rotate red up from right sub-subtree

  002c4	8b 01		 mov	 eax, DWORD PTR [ecx]
  002c6	80 78 0c 01	 cmp	 BYTE PTR [eax+12], 1
  002ca	75 17		 jne	 SHORT $LN101@Extract

; 644  :                             _Pnode->_Right->_Color = _Black;

  002cc	c6 43 0c 01	 mov	 BYTE PTR [ebx+12], 1

; 645  :                             _Pnode->_Color         = _Red;
; 646  :                             _Lrotate(_Pnode);

  002d0	8b 5d fc	 mov	 ebx, DWORD PTR _this$1$[ebp]
  002d3	c6 41 0c 00	 mov	 BYTE PTR [ecx+12], 0
  002d7	51		 push	 ecx
  002d8	8b cb		 mov	 ecx, ebx
  002da	e8 00 00 00 00	 call	 ?_Lrotate@?$_Tree_val@U?$_Tree_simple_types@U?$pair@$$CBKPAVIBuff@@@std@@@std@@@std@@QAEXPAU?$_Tree_node@U?$pair@$$CBKPAVIBuff@@@std@@PAX@2@@Z ; std::_Tree_val<std::_Tree_simple_types<std::pair<unsigned long const ,IBuff *> > >::_Lrotate

; 647  :                             _Pnode = _Fixnodeparent->_Left;

  002df	8b 0e		 mov	 ecx, DWORD PTR [esi]
  002e1	eb 03		 jmp	 SHORT $LN39@Extract
$LN101@Extract:

; 640  :                         _Pnode->_Color = _Red;
; 641  :                         _Fixnode       = _Fixnodeparent;
; 642  :                     } else { // must rearrange left subtree
; 643  :                         if (_Pnode->_Left->_Color == _Black) { // rotate red up from right sub-subtree

  002e3	8b 5d fc	 mov	 ebx, DWORD PTR _this$1$[ebp]
$LN39@Extract:

; 648  :                         }
; 649  : 
; 650  :                         _Pnode->_Color         = _Fixnodeparent->_Color;

  002e6	8a 46 0c	 mov	 al, BYTE PTR [esi+12]
  002e9	88 41 0c	 mov	 BYTE PTR [ecx+12], al

; 651  :                         _Fixnodeparent->_Color = _Black;

  002ec	c6 46 0c 01	 mov	 BYTE PTR [esi+12], 1

; 652  :                         _Pnode->_Left->_Color  = _Black;

  002f0	8b 01		 mov	 eax, DWORD PTR [ecx]

; 653  :                         _Rrotate(_Fixnodeparent);

  002f2	8b cb		 mov	 ecx, ebx
  002f4	56		 push	 esi
  002f5	c6 40 0c 01	 mov	 BYTE PTR [eax+12], 1
  002f9	e8 00 00 00 00	 call	 ?_Rrotate@?$_Tree_val@U?$_Tree_simple_types@U?$pair@$$CBKPAVIBuff@@@std@@@std@@@std@@QAEXPAU?$_Tree_node@U?$pair@$$CBKPAVIBuff@@@std@@PAX@2@@Z ; std::_Tree_val<std::_Tree_simple_types<std::pair<unsigned long const ,IBuff *> > >::_Rrotate
$LN3@Extract:

; 654  :                         break; // tree now recolored/rebalanced
; 655  :                     }
; 656  :                 }
; 657  :             }
; 658  : 
; 659  :             _Fixnode->_Color = _Black; // stopping node is black

  002fe	8b 45 f8	 mov	 eax, DWORD PTR __Erasednode$1$[ebp]
  00301	c6 47 0c 01	 mov	 BYTE PTR [edi+12], 1
$LN25@Extract:

; 660  :         }
; 661  : 
; 662  :         if (0 < _Mysize) {

  00305	8b 4b 04	 mov	 ecx, DWORD PTR [ebx+4]
  00308	85 c9		 test	 ecx, ecx
  0030a	74 04		 je	 SHORT $LN40@Extract

; 663  :             --_Mysize;

  0030c	49		 dec	 ecx
  0030d	89 4b 04	 mov	 DWORD PTR [ebx+4], ecx
$LN40@Extract:

; 664  :         }
; 665  : 
; 666  :         return _Erasednode;
; 667  :     }

  00310	5f		 pop	 edi
  00311	5e		 pop	 esi
  00312	5b		 pop	 ebx
  00313	8b e5		 mov	 esp, ebp
  00315	5d		 pop	 ebp
  00316	c2 04 00	 ret	 4
?_Extract@?$_Tree_val@U?$_Tree_simple_types@U?$pair@$$CBKPAVIBuff@@@std@@@std@@@std@@QAEPAU?$_Tree_node@U?$pair@$$CBKPAVIBuff@@@std@@PAX@2@V?$_Tree_unchecked_const_iterator@V?$_Tree_val@U?$_Tree_simple_types@U?$pair@$$CBKPAVIBuff@@@std@@@std@@@std@@U_Iterator_base0@2@@2@@Z ENDP ; std::_Tree_val<std::_Tree_simple_types<std::pair<unsigned long const ,IBuff *> > >::_Extract
_TEXT	ENDS
; Function compile flags: /Ogtp
; File C:\Program Files\Microsoft Visual Studio\2022\Professional\VC\Tools\MSVC\14.44.35207\include\xtree
;	COMDAT ?_Rrotate@?$_Tree_val@U?$_Tree_simple_types@U?$pair@$$CBKPAVIBuff@@@std@@@std@@@std@@QAEXPAU?$_Tree_node@U?$pair@$$CBKPAVIBuff@@@std@@PAX@2@@Z
_TEXT	SEGMENT
__Wherenode$ = 8					; size = 4
?_Rrotate@?$_Tree_val@U?$_Tree_simple_types@U?$pair@$$CBKPAVIBuff@@@std@@@std@@@std@@QAEXPAU?$_Tree_node@U?$pair@$$CBKPAVIBuff@@@std@@PAX@2@@Z PROC ; std::_Tree_val<std::_Tree_simple_types<std::pair<unsigned long const ,IBuff *> > >::_Rrotate, COMDAT
; _this$ = ecx

; 505  :     void _Rrotate(_Nodeptr _Wherenode) noexcept { // promote left node to root of subtree

  00000	55		 push	 ebp
  00001	8b ec		 mov	 ebp, esp

; 506  :         _Nodeptr _Pnode   = _Wherenode->_Left;

  00003	8b 55 08	 mov	 edx, DWORD PTR __Wherenode$[ebp]
  00006	56		 push	 esi
  00007	8b 32		 mov	 esi, DWORD PTR [edx]

; 507  :         _Wherenode->_Left = _Pnode->_Right;

  00009	8b 46 08	 mov	 eax, DWORD PTR [esi+8]
  0000c	89 02		 mov	 DWORD PTR [edx], eax

; 508  : 
; 509  :         if (!_Pnode->_Right->_Isnil) {

  0000e	8b 46 08	 mov	 eax, DWORD PTR [esi+8]
  00011	80 78 0d 00	 cmp	 BYTE PTR [eax+13], 0
  00015	75 03		 jne	 SHORT $LN2@Rrotate

; 510  :             _Pnode->_Right->_Parent = _Wherenode;

  00017	89 50 04	 mov	 DWORD PTR [eax+4], edx
$LN2@Rrotate:

; 511  :         }
; 512  : 
; 513  :         _Pnode->_Parent = _Wherenode->_Parent;

  0001a	8b 42 04	 mov	 eax, DWORD PTR [edx+4]
  0001d	89 46 04	 mov	 DWORD PTR [esi+4], eax

; 514  : 
; 515  :         if (_Wherenode == _Myhead->_Parent) {

  00020	8b 01		 mov	 eax, DWORD PTR [ecx]
  00022	3b 50 04	 cmp	 edx, DWORD PTR [eax+4]
  00025	75 0e		 jne	 SHORT $LN3@Rrotate

; 516  :             _Myhead->_Parent = _Pnode;

  00027	89 70 04	 mov	 DWORD PTR [eax+4], esi

; 521  :         }
; 522  : 
; 523  :         _Pnode->_Right      = _Wherenode;
; 524  :         _Wherenode->_Parent = _Pnode;
; 525  :     }

  0002a	89 56 08	 mov	 DWORD PTR [esi+8], edx
  0002d	89 72 04	 mov	 DWORD PTR [edx+4], esi
  00030	5e		 pop	 esi
  00031	5d		 pop	 ebp
  00032	c2 04 00	 ret	 4
$LN3@Rrotate:

; 517  :         } else if (_Wherenode == _Wherenode->_Parent->_Right) {

  00035	8b 42 04	 mov	 eax, DWORD PTR [edx+4]
  00038	3b 50 08	 cmp	 edx, DWORD PTR [eax+8]
  0003b	75 0e		 jne	 SHORT $LN5@Rrotate

; 518  :             _Wherenode->_Parent->_Right = _Pnode;

  0003d	89 70 08	 mov	 DWORD PTR [eax+8], esi

; 521  :         }
; 522  : 
; 523  :         _Pnode->_Right      = _Wherenode;
; 524  :         _Wherenode->_Parent = _Pnode;
; 525  :     }

  00040	89 56 08	 mov	 DWORD PTR [esi+8], edx
  00043	89 72 04	 mov	 DWORD PTR [edx+4], esi
  00046	5e		 pop	 esi
  00047	5d		 pop	 ebp
  00048	c2 04 00	 ret	 4
$LN5@Rrotate:

; 519  :         } else {
; 520  :             _Wherenode->_Parent->_Left = _Pnode;

  0004b	89 30		 mov	 DWORD PTR [eax], esi

; 521  :         }
; 522  : 
; 523  :         _Pnode->_Right      = _Wherenode;
; 524  :         _Wherenode->_Parent = _Pnode;
; 525  :     }

  0004d	89 56 08	 mov	 DWORD PTR [esi+8], edx
  00050	89 72 04	 mov	 DWORD PTR [edx+4], esi
  00053	5e		 pop	 esi
  00054	5d		 pop	 ebp
  00055	c2 04 00	 ret	 4
?_Rrotate@?$_Tree_val@U?$_Tree_simple_types@U?$pair@$$CBKPAVIBuff@@@std@@@std@@@std@@QAEXPAU?$_Tree_node@U?$pair@$$CBKPAVIBuff@@@std@@PAX@2@@Z ENDP ; std::_Tree_val<std::_Tree_simple_types<std::pair<unsigned long const ,IBuff *> > >::_Rrotate
_TEXT	ENDS
; Function compile flags: /Ogtp
; File C:\Program Files\Microsoft Visual Studio\2022\Professional\VC\Tools\MSVC\14.44.35207\include\xtree
;	COMDAT ?_Lrotate@?$_Tree_val@U?$_Tree_simple_types@U?$pair@$$CBKPAVIBuff@@@std@@@std@@@std@@QAEXPAU?$_Tree_node@U?$pair@$$CBKPAVIBuff@@@std@@PAX@2@@Z
_TEXT	SEGMENT
__Wherenode$ = 8					; size = 4
?_Lrotate@?$_Tree_val@U?$_Tree_simple_types@U?$pair@$$CBKPAVIBuff@@@std@@@std@@@std@@QAEXPAU?$_Tree_node@U?$pair@$$CBKPAVIBuff@@@std@@PAX@2@@Z PROC ; std::_Tree_val<std::_Tree_simple_types<std::pair<unsigned long const ,IBuff *> > >::_Lrotate, COMDAT
; _this$ = ecx

; 483  :     void _Lrotate(_Nodeptr _Wherenode) noexcept { // promote right node to root of subtree

  00000	55		 push	 ebp
  00001	8b ec		 mov	 ebp, esp

; 484  :         _Nodeptr _Pnode    = _Wherenode->_Right;

  00003	8b 55 08	 mov	 edx, DWORD PTR __Wherenode$[ebp]
  00006	56		 push	 esi
  00007	8b 72 08	 mov	 esi, DWORD PTR [edx+8]

; 485  :         _Wherenode->_Right = _Pnode->_Left;

  0000a	8b 06		 mov	 eax, DWORD PTR [esi]
  0000c	89 42 08	 mov	 DWORD PTR [edx+8], eax

; 486  : 
; 487  :         if (!_Pnode->_Left->_Isnil) {

  0000f	8b 06		 mov	 eax, DWORD PTR [esi]
  00011	80 78 0d 00	 cmp	 BYTE PTR [eax+13], 0
  00015	75 03		 jne	 SHORT $LN2@Lrotate

; 488  :             _Pnode->_Left->_Parent = _Wherenode;

  00017	89 50 04	 mov	 DWORD PTR [eax+4], edx
$LN2@Lrotate:

; 489  :         }
; 490  : 
; 491  :         _Pnode->_Parent = _Wherenode->_Parent;

  0001a	8b 42 04	 mov	 eax, DWORD PTR [edx+4]
  0001d	89 46 04	 mov	 DWORD PTR [esi+4], eax

; 492  : 
; 493  :         if (_Wherenode == _Myhead->_Parent) {

  00020	8b 01		 mov	 eax, DWORD PTR [ecx]
  00022	3b 50 04	 cmp	 edx, DWORD PTR [eax+4]
  00025	75 0d		 jne	 SHORT $LN3@Lrotate

; 494  :             _Myhead->_Parent = _Pnode;

  00027	89 70 04	 mov	 DWORD PTR [eax+4], esi

; 499  :         }
; 500  : 
; 501  :         _Pnode->_Left       = _Wherenode;
; 502  :         _Wherenode->_Parent = _Pnode;
; 503  :     }

  0002a	89 16		 mov	 DWORD PTR [esi], edx
  0002c	89 72 04	 mov	 DWORD PTR [edx+4], esi
  0002f	5e		 pop	 esi
  00030	5d		 pop	 ebp
  00031	c2 04 00	 ret	 4
$LN3@Lrotate:

; 495  :         } else if (_Wherenode == _Wherenode->_Parent->_Left) {

  00034	8b 42 04	 mov	 eax, DWORD PTR [edx+4]
  00037	3b 10		 cmp	 edx, DWORD PTR [eax]
  00039	75 0c		 jne	 SHORT $LN5@Lrotate

; 496  :             _Wherenode->_Parent->_Left = _Pnode;

  0003b	89 30		 mov	 DWORD PTR [eax], esi

; 499  :         }
; 500  : 
; 501  :         _Pnode->_Left       = _Wherenode;
; 502  :         _Wherenode->_Parent = _Pnode;
; 503  :     }

  0003d	89 16		 mov	 DWORD PTR [esi], edx
  0003f	89 72 04	 mov	 DWORD PTR [edx+4], esi
  00042	5e		 pop	 esi
  00043	5d		 pop	 ebp
  00044	c2 04 00	 ret	 4
$LN5@Lrotate:

; 497  :         } else {
; 498  :             _Wherenode->_Parent->_Right = _Pnode;

  00047	89 70 08	 mov	 DWORD PTR [eax+8], esi

; 499  :         }
; 500  : 
; 501  :         _Pnode->_Left       = _Wherenode;
; 502  :         _Wherenode->_Parent = _Pnode;
; 503  :     }

  0004a	89 16		 mov	 DWORD PTR [esi], edx
  0004c	89 72 04	 mov	 DWORD PTR [edx+4], esi
  0004f	5e		 pop	 esi
  00050	5d		 pop	 ebp
  00051	c2 04 00	 ret	 4
?_Lrotate@?$_Tree_val@U?$_Tree_simple_types@U?$pair@$$CBKPAVIBuff@@@std@@@std@@@std@@QAEXPAU?$_Tree_node@U?$pair@$$CBKPAVIBuff@@@std@@PAX@2@@Z ENDP ; std::_Tree_val<std::_Tree_simple_types<std::pair<unsigned long const ,IBuff *> > >::_Lrotate
_TEXT	ENDS
; Function compile flags: /Ogtp
; File C:\Program Files\Microsoft Visual Studio\2022\Professional\VC\Tools\MSVC\14.44.35207\include\xtree
; File C:\Program Files\Microsoft Visual Studio\2022\Professional\VC\Tools\MSVC\14.44.35207\include\utility
; File C:\Program Files\Microsoft Visual Studio\2022\Professional\VC\Tools\MSVC\14.44.35207\include\xmemory
; File C:\Program Files\Microsoft Visual Studio\2022\Professional\VC\Tools\MSVC\14.44.35207\include\xtree
;	COMDAT ?clear@?$_Tree@V?$_Tmap_traits@KPAVIBuff@@U?$less@K@std@@V?$allocator@U?$pair@$$CBKPAVIBuff@@@std@@@3@$0A@@std@@@std@@QAEXXZ
_TEXT	SEGMENT
?clear@?$_Tree@V?$_Tmap_traits@KPAVIBuff@@U?$less@K@std@@V?$allocator@U?$pair@$$CBKPAVIBuff@@@std@@@3@$0A@@std@@@std@@QAEXXZ PROC ; std::_Tree<std::_Tmap_traits<unsigned long,IBuff *,std::less<unsigned long>,std::allocator<std::pair<unsigned long const ,IBuff *> >,0> >::clear, COMDAT
; _this$ = ecx

; 1370 :     void clear() noexcept {

  00000	53		 push	 ebx
  00001	8b d9		 mov	 ebx, ecx
  00003	56		 push	 esi
  00004	57		 push	 edi

; 1371 :         const auto _Scary = _Get_scary();
; 1372 :         _Scary->_Orphan_ptr(nullptr);
; 1373 :         auto _Head = _Scary->_Myhead;

  00005	8b 3b		 mov	 edi, DWORD PTR [ebx]

; 1374 :         _Scary->_Erase_tree(_Getal(), _Head->_Parent);

  00007	8b 77 04	 mov	 esi, DWORD PTR [edi+4]

; 768  :         while (!_Rootnode->_Isnil) { // free subtrees, then node

  0000a	80 7e 0d 00	 cmp	 BYTE PTR [esi+13], 0
  0000e	75 20		 jne	 SHORT $LN38@clear
$LL5@clear:

; 769  :             _Erase_tree(_Al, _Rootnode->_Right);

  00010	ff 76 08	 push	 DWORD PTR [esi+8]
  00013	8b cb		 mov	 ecx, ebx
  00015	53		 push	 ebx
  00016	e8 00 00 00 00	 call	 ??$_Erase_tree@V?$allocator@U?$_Tree_node@U?$pair@$$CBKPAVIBuff@@@std@@PAX@std@@@std@@@?$_Tree_val@U?$_Tree_simple_types@U?$pair@$$CBKPAVIBuff@@@std@@@std@@@std@@QAEXAAV?$allocator@U?$_Tree_node@U?$pair@$$CBKPAVIBuff@@@std@@PAX@std@@@1@PAU?$_Tree_node@U?$pair@$$CBKPAVIBuff@@@std@@PAX@1@@Z ; std::_Tree_val<std::_Tree_simple_types<std::pair<unsigned long const ,IBuff *> > >::_Erase_tree<std::allocator<std::_Tree_node<std::pair<unsigned long const ,IBuff *>,void *> > >
; File C:\Program Files\Microsoft Visual Studio\2022\Professional\VC\Tools\MSVC\14.44.35207\include\utility

; 773  :     _Ty _Old_val = static_cast<_Ty&&>(_Val);

  0001b	8b c6		 mov	 eax, esi

; 774  :     _Val         = static_cast<_Other&&>(_New_val);

  0001d	8b 36		 mov	 esi, DWORD PTR [esi]
; File C:\Program Files\Microsoft Visual Studio\2022\Professional\VC\Tools\MSVC\14.44.35207\include\xmemory

; 289  :         ::operator delete(_Ptr, _Bytes);

  0001f	6a 18		 push	 24			; 00000018H
  00021	50		 push	 eax
  00022	e8 00 00 00 00	 call	 ??3@YAXPAXI@Z		; operator delete
  00027	83 c4 08	 add	 esp, 8
; File C:\Program Files\Microsoft Visual Studio\2022\Professional\VC\Tools\MSVC\14.44.35207\include\xtree

; 768  :         while (!_Rootnode->_Isnil) { // free subtrees, then node

  0002a	80 7e 0d 00	 cmp	 BYTE PTR [esi+13], 0
  0002e	74 e0		 je	 SHORT $LL5@clear
$LN38@clear:

; 1375 :         _Head->_Parent  = _Head;

  00030	89 7f 04	 mov	 DWORD PTR [edi+4], edi

; 1376 :         _Head->_Left    = _Head;

  00033	89 3f		 mov	 DWORD PTR [edi], edi

; 1377 :         _Head->_Right   = _Head;

  00035	89 7f 08	 mov	 DWORD PTR [edi+8], edi

; 1378 :         _Scary->_Mysize = 0;

  00038	5f		 pop	 edi
  00039	5e		 pop	 esi
  0003a	c7 43 04 00 00
	00 00		 mov	 DWORD PTR [ebx+4], 0
  00041	5b		 pop	 ebx

; 1379 :     }

  00042	c3		 ret	 0
?clear@?$_Tree@V?$_Tmap_traits@KPAVIBuff@@U?$less@K@std@@V?$allocator@U?$pair@$$CBKPAVIBuff@@@std@@@3@$0A@@std@@@std@@QAEXXZ ENDP ; std::_Tree<std::_Tmap_traits<unsigned long,IBuff *,std::less<unsigned long>,std::allocator<std::pair<unsigned long const ,IBuff *> >,0> >::clear
_TEXT	ENDS
; Function compile flags: /Ogtp
; File C:\Program Files\Microsoft Visual Studio\2022\Professional\VC\Tools\MSVC\14.44.35207\include\xtree
; File C:\Program Files\Microsoft Visual Studio\2022\Professional\VC\Tools\MSVC\14.44.35207\include\utility
; File C:\Program Files\Microsoft Visual Studio\2022\Professional\VC\Tools\MSVC\14.44.35207\include\xmemory
; File C:\Program Files\Microsoft Visual Studio\2022\Professional\VC\Tools\MSVC\14.44.35207\include\xtree
; File C:\Program Files\Microsoft Visual Studio\2022\Professional\VC\Tools\MSVC\14.44.35207\include\xmemory
; File C:\Program Files\Microsoft Visual Studio\2022\Professional\VC\Tools\MSVC\14.44.35207\include\xtree
;	COMDAT ??1?$_Tree@V?$_Tmap_traits@KPAVIBuff@@U?$less@K@std@@V?$allocator@U?$pair@$$CBKPAVIBuff@@@std@@@3@$0A@@std@@@std@@QAE@XZ
_TEXT	SEGMENT
??1?$_Tree@V?$_Tmap_traits@KPAVIBuff@@U?$less@K@std@@V?$allocator@U?$pair@$$CBKPAVIBuff@@@std@@@3@$0A@@std@@@std@@QAE@XZ PROC ; std::_Tree<std::_Tmap_traits<unsigned long,IBuff *,std::less<unsigned long>,std::allocator<std::pair<unsigned long const ,IBuff *> >,0> >::~_Tree<std::_Tmap_traits<unsigned long,IBuff *,std::less<unsigned long>,std::allocator<std::pair<unsigned long const ,IBuff *> >,0> >, COMDAT
; _this$ = ecx

; 1095 :     ~_Tree() noexcept {

  00000	56		 push	 esi
  00001	57		 push	 edi
  00002	8b f9		 mov	 edi, ecx

; 777  :         _Erase_tree(_Al, _Myhead->_Parent);

  00004	8b 37		 mov	 esi, DWORD PTR [edi]
  00006	8b 76 04	 mov	 esi, DWORD PTR [esi+4]

; 768  :         while (!_Rootnode->_Isnil) { // free subtrees, then node

  00009	80 7e 0d 00	 cmp	 BYTE PTR [esi+13], 0
  0000d	75 21		 jne	 SHORT $LN61@Tree
  0000f	90		 npad	 1
$LL8@Tree:

; 769  :             _Erase_tree(_Al, _Rootnode->_Right);

  00010	ff 76 08	 push	 DWORD PTR [esi+8]
  00013	8b cf		 mov	 ecx, edi
  00015	57		 push	 edi
  00016	e8 00 00 00 00	 call	 ??$_Erase_tree@V?$allocator@U?$_Tree_node@U?$pair@$$CBKPAVIBuff@@@std@@PAX@std@@@std@@@?$_Tree_val@U?$_Tree_simple_types@U?$pair@$$CBKPAVIBuff@@@std@@@std@@@std@@QAEXAAV?$allocator@U?$_Tree_node@U?$pair@$$CBKPAVIBuff@@@std@@PAX@std@@@1@PAU?$_Tree_node@U?$pair@$$CBKPAVIBuff@@@std@@PAX@1@@Z ; std::_Tree_val<std::_Tree_simple_types<std::pair<unsigned long const ,IBuff *> > >::_Erase_tree<std::allocator<std::_Tree_node<std::pair<unsigned long const ,IBuff *>,void *> > >
; File C:\Program Files\Microsoft Visual Studio\2022\Professional\VC\Tools\MSVC\14.44.35207\include\utility

; 773  :     _Ty _Old_val = static_cast<_Ty&&>(_Val);

  0001b	8b c6		 mov	 eax, esi

; 774  :     _Val         = static_cast<_Other&&>(_New_val);

  0001d	8b 36		 mov	 esi, DWORD PTR [esi]
; File C:\Program Files\Microsoft Visual Studio\2022\Professional\VC\Tools\MSVC\14.44.35207\include\xmemory

; 289  :         ::operator delete(_Ptr, _Bytes);

  0001f	6a 18		 push	 24			; 00000018H
  00021	50		 push	 eax
  00022	e8 00 00 00 00	 call	 ??3@YAXPAXI@Z		; operator delete
  00027	83 c4 08	 add	 esp, 8
; File C:\Program Files\Microsoft Visual Studio\2022\Professional\VC\Tools\MSVC\14.44.35207\include\xtree

; 768  :         while (!_Rootnode->_Isnil) { // free subtrees, then node

  0002a	80 7e 0d 00	 cmp	 BYTE PTR [esi+13], 0
  0002e	74 e0		 je	 SHORT $LL8@Tree
$LN61@Tree:
; File C:\Program Files\Microsoft Visual Studio\2022\Professional\VC\Tools\MSVC\14.44.35207\include\xmemory

; 289  :         ::operator delete(_Ptr, _Bytes);

  00030	6a 18		 push	 24			; 00000018H
  00032	ff 37		 push	 DWORD PTR [edi]
  00034	e8 00 00 00 00	 call	 ??3@YAXPAXI@Z		; operator delete
  00039	83 c4 08	 add	 esp, 8
  0003c	5f		 pop	 edi
  0003d	5e		 pop	 esi
; File C:\Program Files\Microsoft Visual Studio\2022\Professional\VC\Tools\MSVC\14.44.35207\include\xtree

; 1102 :     }

  0003e	c3		 ret	 0
??1?$_Tree@V?$_Tmap_traits@KPAVIBuff@@U?$less@K@std@@V?$allocator@U?$pair@$$CBKPAVIBuff@@@std@@@3@$0A@@std@@@std@@QAE@XZ ENDP ; std::_Tree<std::_Tmap_traits<unsigned long,IBuff *,std::less<unsigned long>,std::allocator<std::pair<unsigned long const ,IBuff *> >,0> >::~_Tree<std::_Tmap_traits<unsigned long,IBuff *,std::less<unsigned long>,std::allocator<std::pair<unsigned long const ,IBuff *> >,0> >
_TEXT	ENDS
; Function compile flags: /Ogtp
; File C:\IAGOS\server\v18\Source\Source\_Common\buff.cpp
;	COMDAT ?RemoveBuffPet@CBuffMgr@@QAEXPAVIBuff@@@Z
_TEXT	SEGMENT
_pBuff$ = 8						; size = 4
?RemoveBuffPet@CBuffMgr@@QAEXPAVIBuff@@@Z PROC		; CBuffMgr::RemoveBuffPet, COMDAT
; _this$ = ecx

; 918  : {

  00000	55		 push	 ebp
  00001	8b ec		 mov	 ebp, esp
  00003	56		 push	 esi

; 919  : 	ASSERT( pBuff );
; 920  : 	RemoveBuff( pBuff, FALSE );

  00004	6a 00		 push	 0
  00006	ff 75 08	 push	 DWORD PTR _pBuff$[ebp]
  00009	8b f1		 mov	 esi, ecx
  0000b	e8 00 00 00 00	 call	 ?RemoveBuff@CBuffMgr@@QAEXPAVIBuff@@H@Z ; CBuffMgr::RemoveBuff

; 921  : 	CItemElem* pItem	= GetMover()->GetPetItem();

  00010	8b 4e 0c	 mov	 ecx, DWORD PTR [esi+12]
  00013	e8 00 00 00 00	 call	 ?GetPetItem@CMover@@QAEPAVCItemElem@@XZ ; CMover::GetPetItem

; 922  : 	if( pItem )

  00018	85 c0		 test	 eax, eax
  0001a	74 09		 je	 SHORT $LN2@RemoveBuff

; 923  : 		GetMover()->ResetDestParamRandomOptExtension( pItem );

  0001c	8b 4e 0c	 mov	 ecx, DWORD PTR [esi+12]
  0001f	50		 push	 eax
  00020	e8 00 00 00 00	 call	 ?ResetDestParamRandomOptExtension@CMover@@QAEXPAVCItemElem@@@Z ; CMover::ResetDestParamRandomOptExtension
$LN2@RemoveBuff:
  00025	5e		 pop	 esi

; 924  : }

  00026	5d		 pop	 ebp
  00027	c2 04 00	 ret	 4
?RemoveBuffPet@CBuffMgr@@QAEXPAVIBuff@@@Z ENDP		; CBuffMgr::RemoveBuffPet
_TEXT	ENDS
; Function compile flags: /Ogtp
; File C:\IAGOS\server\v18\Source\Source\_Common\buff.cpp
; File C:\Program Files\Microsoft Visual Studio\2022\Professional\VC\Tools\MSVC\14.44.35207\include\xtree
; File C:\IAGOS\server\v18\Source\Source\_Common\buff.cpp
; File C:\Program Files\Microsoft Visual Studio\2022\Professional\VC\Tools\MSVC\14.44.35207\include\xtree
; File C:\IAGOS\server\v18\Source\Source\_Common\buff.cpp
;	COMDAT ?GetFirstBS@CBuffMgr@@AAEPAVIBuff@@XZ
_TEXT	SEGMENT
_i$1 = -4						; size = 4
?GetFirstBS@CBuffMgr@@AAEPAVIBuff@@XZ PROC		; CBuffMgr::GetFirstBS, COMDAT
; _this$ = ecx

; 827  : {

  00000	55		 push	 ebp
  00001	8b ec		 mov	 ebp, esp
  00003	51		 push	 ecx
  00004	56		 push	 esi
  00005	57		 push	 edi
  00006	8b f9		 mov	 edi, ecx
; File C:\Program Files\Microsoft Visual Studio\2022\Professional\VC\Tools\MSVC\14.44.35207\include\xtree

; 1142 :         return iterator(_Scary->_Myhead->_Left, _Scary);

  00008	8b 47 04	 mov	 eax, DWORD PTR [edi+4]

; 37   :     _Tree_unchecked_const_iterator(_Nodeptr _Pnode, const _Mytree* _Plist) noexcept : _Ptr(_Pnode) {

  0000b	8b 30		 mov	 esi, DWORD PTR [eax]
  0000d	89 75 fc	 mov	 DWORD PTR _i$1[ebp], esi

; 237  :         return !(*this == _Right);

  00010	3b f0		 cmp	 esi, eax
; File C:\IAGOS\server\v18\Source\Source\_Common\buff.cpp

; 828  : 	for( MAPBUFF::iterator i = m_mapBuffs.begin(); i != m_mapBuffs.end(); ++i )

  00012	74 2c		 je	 SHORT $LN74@GetFirstBS
$LL4@GetFirstBS:

; 829  : 	{
; 830  : 		if( i->second->GetType() == BUFF_SKILL )

  00014	8b 4e 14	 mov	 ecx, DWORD PTR [esi+20]
  00017	66 83 79 04 01	 cmp	 WORD PTR [ecx+4], 1
  0001c	75 12		 jne	 SHORT $LN2@GetFirstBS

; 831  : 		{
; 832  : 			ItemProp* pProp = i->second->GetProp();

  0001e	8b 01		 mov	 eax, DWORD PTR [ecx]
  00020	ff 50 24	 call	 DWORD PTR [eax+36]

; 833  : 			if( pProp && pProp->nEvildoing >= 0 )

  00023	85 c0		 test	 eax, eax
  00025	74 09		 je	 SHORT $LN2@GetFirstBS
  00027	83 b8 04 02 00
	00 00		 cmp	 DWORD PTR [eax+516], 0
  0002e	7d 18		 jge	 SHORT $LN72@GetFirstBS
$LN2@GetFirstBS:
; File C:\Program Files\Microsoft Visual Studio\2022\Professional\VC\Tools\MSVC\14.44.35207\include\xtree

; 198  :         _Mybase::operator++();

  00030	8d 4d fc	 lea	 ecx, DWORD PTR _i$1[ebp]
  00033	e8 00 00 00 00	 call	 ??E?$_Tree_unchecked_const_iterator@V?$_Tree_val@U?$_Tree_simple_types@U?$pair@$$CBKPAVIBuff@@@std@@@std@@@std@@U_Iterator_base0@2@@std@@QAEAAV01@XZ ; std::_Tree_unchecked_const_iterator<std::_Tree_val<std::_Tree_simple_types<std::pair<unsigned long const ,IBuff *> > >,std::_Iterator_base0>::operator++

; 237  :         return !(*this == _Right);

  00038	8b 75 fc	 mov	 esi, DWORD PTR _i$1[ebp]
  0003b	3b 77 04	 cmp	 esi, DWORD PTR [edi+4]
; File C:\IAGOS\server\v18\Source\Source\_Common\buff.cpp

; 828  : 	for( MAPBUFF::iterator i = m_mapBuffs.begin(); i != m_mapBuffs.end(); ++i )

  0003e	75 d4		 jne	 SHORT $LL4@GetFirstBS
$LN74@GetFirstBS:
  00040	5f		 pop	 edi

; 835  : 		}
; 836  : 	}
; 837  : 
; 838  : 	return NULL;

  00041	33 c0		 xor	 eax, eax

; 839  : }

  00043	5e		 pop	 esi
  00044	8b e5		 mov	 esp, ebp
  00046	5d		 pop	 ebp
  00047	c3		 ret	 0
$LN72@GetFirstBS:

; 834  : 				return i->second;

  00048	8b 46 14	 mov	 eax, DWORD PTR [esi+20]
  0004b	5f		 pop	 edi

; 839  : }

  0004c	5e		 pop	 esi
  0004d	8b e5		 mov	 esp, ebp
  0004f	5d		 pop	 ebp
  00050	c3		 ret	 0
?GetFirstBS@CBuffMgr@@AAEPAVIBuff@@XZ ENDP		; CBuffMgr::GetFirstBS
_TEXT	ENDS
; Function compile flags: /Ogtp
; File C:\IAGOS\server\v18\Source\Source\_Common\buff.cpp
; File C:\Program Files\Microsoft Visual Studio\2022\Professional\VC\Tools\MSVC\14.44.35207\include\xtree
; File C:\IAGOS\server\v18\Source\Source\_Common\buff.cpp
; File C:\Program Files\Microsoft Visual Studio\2022\Professional\VC\Tools\MSVC\14.44.35207\include\xtree
; File C:\IAGOS\server\v18\Source\Source\_Common\buff.cpp
; File C:\Program Files\Microsoft Visual Studio\2022\Professional\VC\Tools\MSVC\14.44.35207\include\xtree
; File C:\IAGOS\server\v18\Source\Source\_Common\buff.cpp
;	COMDAT ?IsBSFull@CBuffMgr@@AAEHXZ
_TEXT	SEGMENT
_i$1 = -4						; size = 4
?IsBSFull@CBuffMgr@@AAEHXZ PROC				; CBuffMgr::IsBSFull, COMDAT
; _this$ = ecx

; 815  : {

  00000	55		 push	 ebp
  00001	8b ec		 mov	 ebp, esp
  00003	51		 push	 ecx
  00004	56		 push	 esi
  00005	57		 push	 edi
; File C:\Program Files\Microsoft Visual Studio\2022\Professional\VC\Tools\MSVC\14.44.35207\include\xtree

; 1142 :         return iterator(_Scary->_Myhead->_Left, _Scary);

  00006	8b 79 04	 mov	 edi, DWORD PTR [ecx+4]
; File C:\IAGOS\server\v18\Source\Source\_Common\buff.cpp

; 816  : 	int nNum	= 0;

  00009	33 f6		 xor	 esi, esi
; File C:\Program Files\Microsoft Visual Studio\2022\Professional\VC\Tools\MSVC\14.44.35207\include\xtree

; 37   :     _Tree_unchecked_const_iterator(_Nodeptr _Pnode, const _Mytree* _Plist) noexcept : _Ptr(_Pnode) {

  0000b	8b 07		 mov	 eax, DWORD PTR [edi]
  0000d	89 45 fc	 mov	 DWORD PTR _i$1[ebp], eax

; 237  :         return !(*this == _Right);

  00010	3b c7		 cmp	 eax, edi
; File C:\IAGOS\server\v18\Source\Source\_Common\buff.cpp

; 817  : 	for( MAPBUFF::iterator i = m_mapBuffs.begin(); i != m_mapBuffs.end(); ++i )

  00012	74 1f		 je	 SHORT $LN3@IsBSFull
$LL4@IsBSFull:
; File C:\Program Files\Microsoft Visual Studio\2022\Professional\VC\Tools\MSVC\14.44.35207\include\xtree

; 198  :         _Mybase::operator++();

  00014	8b 40 14	 mov	 eax, DWORD PTR [eax+20]
  00017	8d 4e 01	 lea	 ecx, DWORD PTR [esi+1]
  0001a	66 83 78 04 01	 cmp	 WORD PTR [eax+4], 1
  0001f	0f 45 ce	 cmovne	 ecx, esi
  00022	8b f1		 mov	 esi, ecx
  00024	8d 4d fc	 lea	 ecx, DWORD PTR _i$1[ebp]
  00027	e8 00 00 00 00	 call	 ??E?$_Tree_unchecked_const_iterator@V?$_Tree_val@U?$_Tree_simple_types@U?$pair@$$CBKPAVIBuff@@@std@@@std@@@std@@U_Iterator_base0@2@@std@@QAEAAV01@XZ ; std::_Tree_unchecked_const_iterator<std::_Tree_val<std::_Tree_simple_types<std::pair<unsigned long const ,IBuff *> > >,std::_Iterator_base0>::operator++

; 237  :         return !(*this == _Right);

  0002c	8b 45 fc	 mov	 eax, DWORD PTR _i$1[ebp]
  0002f	3b c7		 cmp	 eax, edi
; File C:\IAGOS\server\v18\Source\Source\_Common\buff.cpp

; 817  : 	for( MAPBUFF::iterator i = m_mapBuffs.begin(); i != m_mapBuffs.end(); ++i )

  00031	75 e1		 jne	 SHORT $LL4@IsBSFull
$LN3@IsBSFull:

; 818  : 	{
; 819  : 		IBuff* pBuff	= i->second;
; 820  : 		if( pBuff->GetType() == BUFF_SKILL )
; 821  : 			nNum++;
; 822  : 	}
; 823  : 	return nNum >= MAX_SKILLBUFF_COUNT;

  00033	33 c0		 xor	 eax, eax
  00035	83 fe 40	 cmp	 esi, 64			; 00000040H
  00038	5f		 pop	 edi
  00039	0f 9d c0	 setge	 al
  0003c	5e		 pop	 esi

; 824  : }

  0003d	8b e5		 mov	 esp, ebp
  0003f	5d		 pop	 ebp
  00040	c3		 ret	 0
?IsBSFull@CBuffMgr@@AAEHXZ ENDP				; CBuffMgr::IsBSFull
_TEXT	ENDS
; Function compile flags: /Ogtp
; File C:\IAGOS\server\v18\Source\Source\_Common\buff.cpp
;	COMDAT ?PrepareBS@CBuffMgr@@AAEXPAVIBuff@@@Z
_TEXT	SEGMENT
_pBuff$ = 8						; size = 4
?PrepareBS@CBuffMgr@@AAEXPAVIBuff@@@Z PROC		; CBuffMgr::PrepareBS, COMDAT
; _this$ = ecx

; 803  : {

  00000	55		 push	 ebp
  00001	8b ec		 mov	 ebp, esp

; 804  : 	if( pBuff->GetType() == BUFF_SKILL && IsBSFull() )

  00003	8b 45 08	 mov	 eax, DWORD PTR _pBuff$[ebp]
  00006	56		 push	 esi
  00007	8b f1		 mov	 esi, ecx
  00009	66 83 78 04 01	 cmp	 WORD PTR [eax+4], 1
  0000e	75 1e		 jne	 SHORT $LN3@PrepareBS
  00010	e8 00 00 00 00	 call	 ?IsBSFull@CBuffMgr@@AAEHXZ ; CBuffMgr::IsBSFull
  00015	85 c0		 test	 eax, eax
  00017	74 15		 je	 SHORT $LN3@PrepareBS

; 805  : 	{
; 806  : 		IBuff* pFirst	= GetFirstBS();

  00019	8b ce		 mov	 ecx, esi
  0001b	e8 00 00 00 00	 call	 ?GetFirstBS@CBuffMgr@@AAEPAVIBuff@@XZ ; CBuffMgr::GetFirstBS

; 807  : 		//ItemProp* pProp	= pBuff->GetProp();
; 808  : 		//if( pProp && pProp->nEvildoing >= 0 )
; 809  : 		if( pFirst )

  00020	85 c0		 test	 eax, eax
  00022	74 0a		 je	 SHORT $LN3@PrepareBS

; 810  : 			RemoveBuff( pFirst, FALSE );

  00024	6a 00		 push	 0
  00026	50		 push	 eax
  00027	8b ce		 mov	 ecx, esi
  00029	e8 00 00 00 00	 call	 ?RemoveBuff@CBuffMgr@@QAEXPAVIBuff@@H@Z ; CBuffMgr::RemoveBuff
$LN3@PrepareBS:
  0002e	5e		 pop	 esi

; 811  : 	}
; 812  : }

  0002f	5d		 pop	 ebp
  00030	c2 04 00	 ret	 4
?PrepareBS@CBuffMgr@@AAEXPAVIBuff@@@Z ENDP		; CBuffMgr::PrepareBS
_TEXT	ENDS
; Function compile flags: /Ogtp
; File C:\IAGOS\server\v18\Source\Source\_Common\buff.cpp
;	COMDAT ?Overwrite@CBuffMgr@@AAEHPAVIBuff@@@Z
_TEXT	SEGMENT
_pBuff$ = 8						; size = 4
?Overwrite@CBuffMgr@@AAEHPAVIBuff@@@Z PROC		; CBuffMgr::Overwrite, COMDAT
; _this$ = ecx

; 693  : {

  00000	55		 push	 ebp
  00001	8b ec		 mov	 ebp, esp
  00003	56		 push	 esi

; 694  : 	IBuff* pOld	= GetBuff( pBuff->GetType(), pBuff->GetId() );

  00004	8b 75 08	 mov	 esi, DWORD PTR _pBuff$[ebp]
  00007	57		 push	 edi
  00008	8b f9		 mov	 edi, ecx
  0000a	0f b7 46 06	 movzx	 eax, WORD PTR [esi+6]
  0000e	50		 push	 eax
  0000f	0f b7 46 04	 movzx	 eax, WORD PTR [esi+4]
  00013	50		 push	 eax
  00014	e8 00 00 00 00	 call	 ?GetBuff@CBuffMgr@@QAEPAVIBuff@@GG@Z ; CBuffMgr::GetBuff

; 695  : 	if( pOld )

  00019	85 c0		 test	 eax, eax
  0001b	74 29		 je	 SHORT $LN6@Overwrite

; 696  : 	{
; 697  : 		if( pOld->GetLevel() == pBuff->GetLevel() )

  0001d	8b 48 08	 mov	 ecx, DWORD PTR [eax+8]
  00020	3b 4e 08	 cmp	 ecx, DWORD PTR [esi+8]
  00023	75 15		 jne	 SHORT $LN3@Overwrite

; 698  : 		{
; 699  : 			pOld->AddTotal( pBuff->GetTotal() );

  00025	8b 10		 mov	 edx, DWORD PTR [eax]
  00027	8b c8		 mov	 ecx, eax
  00029	ff 76 0c	 push	 DWORD PTR [esi+12]
  0002c	ff 52 20	 call	 DWORD PTR [edx+32]
$LN5@Overwrite:

; 708  : }

  0002f	5f		 pop	 edi
  00030	b8 01 00 00 00	 mov	 eax, 1
  00035	5e		 pop	 esi
  00036	5d		 pop	 ebp
  00037	c2 04 00	 ret	 4
$LN3@Overwrite:

; 700  : 			return TRUE;
; 701  : 		}
; 702  : 		else if( pOld->GetLevel() < pBuff->GetLevel() )

  0003a	73 f3		 jae	 SHORT $LN5@Overwrite

; 703  : 			RemoveBuff( pOld, FALSE );

  0003c	6a 00		 push	 0
  0003e	50		 push	 eax
  0003f	8b cf		 mov	 ecx, edi
  00041	e8 00 00 00 00	 call	 ?RemoveBuff@CBuffMgr@@QAEXPAVIBuff@@H@Z ; CBuffMgr::RemoveBuff
$LN6@Overwrite:

; 704  : 		else	// if( pOld->GetLevel() > pBuff->GetLevel() )	// ignore
; 705  : 			return TRUE;
; 706  : 	}
; 707  : 	return FALSE;

  00046	5f		 pop	 edi
  00047	33 c0		 xor	 eax, eax

; 708  : }

  00049	5e		 pop	 esi
  0004a	5d		 pop	 ebp
  0004b	c2 04 00	 ret	 4
?Overwrite@CBuffMgr@@AAEHPAVIBuff@@@Z ENDP		; CBuffMgr::Overwrite
_TEXT	ENDS
; Function compile flags: /Ogtp
; File C:\IAGOS\server\v18\Source\Source\_Common\buff.cpp
;	COMDAT ?AddBuff@CBuffMgr@@IAEHPAVIBuff@@@Z
_TEXT	SEGMENT
_pBuff$ = 8						; size = 4
?AddBuff@CBuffMgr@@IAEHPAVIBuff@@@Z PROC		; CBuffMgr::AddBuff, COMDAT
; _this$ = ecx

; 754  : {

  00000	55		 push	 ebp
  00001	8b ec		 mov	 ebp, esp
  00003	56		 push	 esi

; 755  : 	if( !pBuff->IsAddable( GetMover() ) )

  00004	8b 75 08	 mov	 esi, DWORD PTR _pBuff$[ebp]
  00007	57		 push	 edi
  00008	8b f9		 mov	 edi, ecx
  0000a	8b ce		 mov	 ecx, esi
  0000c	8b 06		 mov	 eax, DWORD PTR [esi]
  0000e	ff 77 0c	 push	 DWORD PTR [edi+12]
  00011	ff 50 1c	 call	 DWORD PTR [eax+28]
  00014	85 c0		 test	 eax, eax
  00016	74 2b		 je	 SHORT $LN9@AddBuff

; 756  : 		return FALSE;
; 757  : 	if( Overwrite( pBuff ) )

  00018	56		 push	 esi
  00019	8b cf		 mov	 ecx, edi
  0001b	e8 00 00 00 00	 call	 ?Overwrite@CBuffMgr@@AAEHPAVIBuff@@@Z ; CBuffMgr::Overwrite
  00020	85 c0		 test	 eax, eax
  00022	74 27		 je	 SHORT $LN3@AddBuff

; 758  : 	{
; 759  : #ifdef __WORLDSERVER
; 760  : 		g_UserMng.AddSetSkillState( GetMover(), GetMover(), pBuff->GetType(), pBuff->GetId(), pBuff->GetLevel(), pBuff->GetTotal() );

  00024	ff 76 0c	 push	 DWORD PTR [esi+12]
  00027	0f b7 46 06	 movzx	 eax, WORD PTR [esi+6]
  0002b	ff 76 08	 push	 DWORD PTR [esi+8]
  0002e	8b 4f 0c	 mov	 ecx, DWORD PTR [edi+12]
  00031	50		 push	 eax
  00032	0f b7 46 04	 movzx	 eax, WORD PTR [esi+4]
  00036	50		 push	 eax
  00037	51		 push	 ecx
  00038	51		 push	 ecx
  00039	b9 00 00 00 00	 mov	 ecx, OFFSET ?g_UserMng@@3VCUserMng@@A ; g_UserMng
  0003e	e8 00 00 00 00	 call	 ?AddSetSkillState@CUserMng@@QAEXPAVCMover@@0GGKK@Z ; CUserMng::AddSetSkillState
$LN9@AddBuff:

; 771  : }

  00043	5f		 pop	 edi
  00044	33 c0		 xor	 eax, eax
  00046	5e		 pop	 esi
  00047	5d		 pop	 ebp
  00048	c2 04 00	 ret	 4
$LN3@AddBuff:
  0004b	53		 push	 ebx

; 761  : #endif	// __WORLDSERVER
; 762  : 		return FALSE;
; 763  : 	}
; 764  : 	PrepareBS( pBuff );

  0004c	56		 push	 esi
  0004d	8b cf		 mov	 ecx, edi
  0004f	e8 00 00 00 00	 call	 ?PrepareBS@CBuffMgr@@AAEXPAVIBuff@@@Z ; CBuffMgr::PrepareBS

; 765  : 	bool bResult	= Add( pBuff );	

  00054	56		 push	 esi
  00055	8b cf		 mov	 ecx, edi
  00057	e8 00 00 00 00	 call	 ?Add@CBuffMgr@@AAE_NPAVIBuff@@@Z ; CBuffMgr::Add
  0005c	8a d8		 mov	 bl, al

; 766  : #ifdef __WORLDSERVER
; 767  : 	if( bResult == true )

  0005e	80 fb 01	 cmp	 bl, 1
  00061	75 1f		 jne	 SHORT $LN4@AddBuff

; 768  : 		g_UserMng.AddSetSkillState( GetMover(), GetMover(), pBuff->GetType(), pBuff->GetId(), pBuff->GetLevel(), pBuff->GetTotal() );

  00063	ff 76 0c	 push	 DWORD PTR [esi+12]
  00066	0f b7 4e 06	 movzx	 ecx, WORD PTR [esi+6]
  0006a	ff 76 08	 push	 DWORD PTR [esi+8]
  0006d	0f b7 46 04	 movzx	 eax, WORD PTR [esi+4]
  00071	8b 57 0c	 mov	 edx, DWORD PTR [edi+12]
  00074	51		 push	 ecx
  00075	50		 push	 eax
  00076	52		 push	 edx
  00077	52		 push	 edx
  00078	b9 00 00 00 00	 mov	 ecx, OFFSET ?g_UserMng@@3VCUserMng@@A ; g_UserMng
  0007d	e8 00 00 00 00	 call	 ?AddSetSkillState@CUserMng@@QAEXPAVCMover@@0GGKK@Z ; CUserMng::AddSetSkillState
$LN4@AddBuff:

; 769  : #endif	// __WORLDSERVER
; 770  : 	return static_cast<BOOL>( bResult );

  00082	0f b6 c3	 movzx	 eax, bl
  00085	5b		 pop	 ebx
  00086	5f		 pop	 edi

; 771  : }

  00087	5e		 pop	 esi
  00088	5d		 pop	 ebp
  00089	c2 04 00	 ret	 4
?AddBuff@CBuffMgr@@IAEHPAVIBuff@@@Z ENDP		; CBuffMgr::AddBuff
_TEXT	ENDS
; Function compile flags: /Ogtp
; File C:\IAGOS\server\v18\Source\Source\_Common\buff.cpp
; File C:\IAGOS\server\v18\Source\Source\_Common\buff.h
; File C:\IAGOS\server\v18\Source\Source\_Common\buff.cpp
;	COMDAT ?AddBuff@CBuffMgr@@QAEHGGKKK@Z
_TEXT	SEGMENT
_wType$ = 8						; size = 2
_wId$ = 12						; size = 2
_dwLevel$ = 16						; size = 4
_tmTotal$ = 20						; size = 4
_oiAttacker$ = 24					; size = 4
?AddBuff@CBuffMgr@@QAEHGGKKK@Z PROC			; CBuffMgr::AddBuff, COMDAT
; _this$ = ecx

; 740  : {

  00000	55		 push	 ebp
  00001	8b ec		 mov	 ebp, esp
  00003	56		 push	 esi
  00004	8b f1		 mov	 esi, ecx
  00006	57		 push	 edi

; 741  : 	IBuff* pBuff	= CreateBuff( wType );

  00007	ff 75 08	 push	 DWORD PTR _wType$[ebp]
  0000a	8b 06		 mov	 eax, DWORD PTR [esi]
  0000c	ff 50 04	 call	 DWORD PTR [eax+4]

; 742  : 	pBuff->SetId( wId );
; 743  : 	pBuff->SetLevel( dwLevel );

  0000f	8b 4d 10	 mov	 ecx, DWORD PTR _dwLevel$[ebp]
  00012	8b f8		 mov	 edi, eax
  00014	66 8b 55 0c	 mov	 dx, WORD PTR _wId$[ebp]

; 744  : 	pBuff->SetTotal( tmTotal );

  00018	ff 75 14	 push	 DWORD PTR _tmTotal$[ebp]
  0001b	89 4f 08	 mov	 DWORD PTR [edi+8], ecx
  0001e	8b cf		 mov	 ecx, edi
  00020	66 89 57 06	 mov	 WORD PTR [edi+6], dx
  00024	e8 00 00 00 00	 call	 ?SetTotal@IBuff@@QAEXK@Z ; IBuff::SetTotal

; 745  : 	pBuff->SetInst( ::timeGetTime() );		// +

  00029	ff 15 00 00 00
	00		 call	 DWORD PTR __imp__timeGetTime@0
; File C:\IAGOS\server\v18\Source\Source\_Common\buff.h

; 40   : 	void	SetInst( DWORD tmInst )	{	m_tmInst	= tmInst;	}

  0002f	89 47 10	 mov	 DWORD PTR [edi+16], eax
; File C:\IAGOS\server\v18\Source\Source\_Common\buff.cpp

; 747  : 	BOOL bNew	= AddBuff( pBuff );

  00032	8b ce		 mov	 ecx, esi
  00034	8b 45 18	 mov	 eax, DWORD PTR _oiAttacker$[ebp]
  00037	57		 push	 edi
  00038	89 47 14	 mov	 DWORD PTR [edi+20], eax
  0003b	e8 00 00 00 00	 call	 ?AddBuff@CBuffMgr@@IAEHPAVIBuff@@@Z ; CBuffMgr::AddBuff
  00040	8b f0		 mov	 esi, eax

; 748  : 	if( !bNew )

  00042	85 f6		 test	 esi, esi
  00044	75 0a		 jne	 SHORT $LN5@AddBuff

; 749  : 		SAFE_DELETE( pBuff );

  00046	8b 17		 mov	 edx, DWORD PTR [edi]
  00048	8b cf		 mov	 ecx, edi
  0004a	6a 01		 push	 1
  0004c	ff 12		 call	 DWORD PTR [edx]

; 750  : 	return bNew;

  0004e	8b c6		 mov	 eax, esi
$LN5@AddBuff:

; 751  : }

  00050	5f		 pop	 edi
  00051	5e		 pop	 esi
  00052	5d		 pop	 ebp
  00053	c2 14 00	 ret	 20			; 00000014H
?AddBuff@CBuffMgr@@QAEHGGKKK@Z ENDP			; CBuffMgr::AddBuff
_TEXT	ENDS
; Function compile flags: /Ogtp
; File C:\IAGOS\server\v18\Source\Source\_Common\buff.cpp
; File C:\Program Files\Microsoft Visual Studio\2022\Professional\VC\Tools\MSVC\14.44.35207\include\xtree
; File C:\IAGOS\server\v18\Source\Source\_Common\buff.cpp
; File C:\Program Files\Microsoft Visual Studio\2022\Professional\VC\Tools\MSVC\14.44.35207\include\xtree
; File C:\IAGOS\server\v18\Source\Source\_Common\buff.cpp
;	COMDAT ?GetDisguise@CBuffMgr@@QAEKXZ
_TEXT	SEGMENT
_i$1 = -4						; size = 4
?GetDisguise@CBuffMgr@@QAEKXZ PROC			; CBuffMgr::GetDisguise, COMDAT
; _this$ = ecx

; 894  : {

  00000	55		 push	 ebp
  00001	8b ec		 mov	 ebp, esp
  00003	51		 push	 ecx
  00004	56		 push	 esi
  00005	8b f1		 mov	 esi, ecx
; File C:\Program Files\Microsoft Visual Studio\2022\Professional\VC\Tools\MSVC\14.44.35207\include\xtree

; 1142 :         return iterator(_Scary->_Myhead->_Left, _Scary);

  00007	8b 56 04	 mov	 edx, DWORD PTR [esi+4]

; 37   :     _Tree_unchecked_const_iterator(_Nodeptr _Pnode, const _Mytree* _Plist) noexcept : _Ptr(_Pnode) {

  0000a	8b 02		 mov	 eax, DWORD PTR [edx]
  0000c	89 45 fc	 mov	 DWORD PTR _i$1[ebp], eax

; 237  :         return !(*this == _Right);

  0000f	3b c2		 cmp	 eax, edx
; File C:\IAGOS\server\v18\Source\Source\_Common\buff.cpp

; 895  : 	for( MAPBUFF::iterator i = m_mapBuffs.begin(); i != m_mapBuffs.end(); ++i )

  00011	74 1d		 je	 SHORT $LN3@GetDisguis
$LL4@GetDisguis:

; 896  : 	{
; 897  : 		DWORD dwIndex	= i->second->GetDisguise();

  00013	8b 48 14	 mov	 ecx, DWORD PTR [eax+20]
  00016	8b 01		 mov	 eax, DWORD PTR [ecx]
  00018	ff 50 30	 call	 DWORD PTR [eax+48]

; 898  : 		if( dwIndex != NULL_ID )

  0001b	83 f8 ff	 cmp	 eax, -1
  0001e	75 13		 jne	 SHORT $LN1@GetDisguis
; File C:\Program Files\Microsoft Visual Studio\2022\Professional\VC\Tools\MSVC\14.44.35207\include\xtree

; 198  :         _Mybase::operator++();

  00020	8d 4d fc	 lea	 ecx, DWORD PTR _i$1[ebp]
  00023	e8 00 00 00 00	 call	 ??E?$_Tree_unchecked_const_iterator@V?$_Tree_val@U?$_Tree_simple_types@U?$pair@$$CBKPAVIBuff@@@std@@@std@@@std@@U_Iterator_base0@2@@std@@QAEAAV01@XZ ; std::_Tree_unchecked_const_iterator<std::_Tree_val<std::_Tree_simple_types<std::pair<unsigned long const ,IBuff *> > >,std::_Iterator_base0>::operator++

; 237  :         return !(*this == _Right);

  00028	8b 45 fc	 mov	 eax, DWORD PTR _i$1[ebp]
  0002b	3b 46 04	 cmp	 eax, DWORD PTR [esi+4]
; File C:\IAGOS\server\v18\Source\Source\_Common\buff.cpp

; 895  : 	for( MAPBUFF::iterator i = m_mapBuffs.begin(); i != m_mapBuffs.end(); ++i )

  0002e	75 e3		 jne	 SHORT $LL4@GetDisguis
$LN3@GetDisguis:

; 899  : 			return dwIndex;
; 900  : 	}
; 901  : 	return NULL_ID;

  00030	83 c8 ff	 or	 eax, -1
$LN1@GetDisguis:
  00033	5e		 pop	 esi

; 902  : }

  00034	8b e5		 mov	 esp, ebp
  00036	5d		 pop	 ebp
  00037	c3		 ret	 0
?GetDisguise@CBuffMgr@@QAEKXZ ENDP			; CBuffMgr::GetDisguise
_TEXT	ENDS
; Function compile flags: /Ogtp
; File C:\IAGOS\server\v18\Source\Source\_Common\buff.cpp
; File C:\Program Files\Microsoft Visual Studio\2022\Professional\VC\Tools\MSVC\14.44.35207\include\vector
; File C:\Program Files\Microsoft Visual Studio\2022\Professional\VC\Tools\MSVC\14.44.35207\include\xtree
; File C:\IAGOS\server\v18\Source\Source\_Common\buff.cpp
; File C:\Program Files\Microsoft Visual Studio\2022\Professional\VC\Tools\MSVC\14.44.35207\include\xtree
; File C:\IAGOS\server\v18\Source\Source\_Common\buff.cpp
; File C:\Program Files\Microsoft Visual Studio\2022\Professional\VC\Tools\MSVC\14.44.35207\include\vector
; File C:\IAGOS\server\v18\Source\Source\_Common\buff.cpp
; File C:\Program Files\Microsoft Visual Studio\2022\Professional\VC\Tools\MSVC\14.44.35207\include\vector
; File C:\IAGOS\server\v18\Source\Source\_Common\buff.cpp
; File C:\Program Files\Microsoft Visual Studio\2022\Professional\VC\Tools\MSVC\14.44.35207\include\xtree
; File C:\IAGOS\server\v18\Source\Source\_Common\buff.cpp
; File C:\Program Files\Microsoft Visual Studio\2022\Professional\VC\Tools\MSVC\14.44.35207\include\xtree
; File C:\IAGOS\server\v18\Source\Source\_Common\buff.cpp
; File C:\Program Files\Microsoft Visual Studio\2022\Professional\VC\Tools\MSVC\14.44.35207\include\vector
; File C:\IAGOS\server\v18\Source\Source\_Common\buff.cpp
; File C:\Program Files\Microsoft Visual Studio\2022\Professional\VC\Tools\MSVC\14.44.35207\include\vector
; File C:\IAGOS\server\v18\Source\Source\_Common\buff.cpp
;	COMDAT ?RemoveBuffs@CBuffMgr@@QAEXKK@Z
_TEXT	SEGMENT
_vTemp$ = -32						; size = 12
tv567 = -20						; size = 4
_i$2 = -16						; size = 4
__$EHRec$ = -12						; size = 12
_dwFlags$ = 8						; size = 4
$T3 = 8							; size = 4
_dwParam$ = 12						; size = 4
?RemoveBuffs@CBuffMgr@@QAEXKK@Z PROC			; CBuffMgr::RemoveBuffs, COMDAT
; _this$ = ecx

; 860  : {

  00000	55		 push	 ebp
  00001	8b ec		 mov	 ebp, esp
  00003	6a ff		 push	 -1
  00005	68 00 00 00 00	 push	 __ehhandler$?RemoveBuffs@CBuffMgr@@QAEXKK@Z
  0000a	64 a1 00 00 00
	00		 mov	 eax, DWORD PTR fs:0
  00010	50		 push	 eax
  00011	83 ec 14	 sub	 esp, 20			; 00000014H
  00014	53		 push	 ebx
  00015	56		 push	 esi
  00016	57		 push	 edi
  00017	a1 00 00 00 00	 mov	 eax, DWORD PTR ___security_cookie
  0001c	33 c5		 xor	 eax, ebp
  0001e	50		 push	 eax
  0001f	8d 45 f4	 lea	 eax, DWORD PTR __$EHRec$[ebp]
  00022	64 a3 00 00 00
	00		 mov	 DWORD PTR fs:0, eax
  00028	8b f9		 mov	 edi, ecx
; File C:\Program Files\Microsoft Visual Studio\2022\Professional\VC\Tools\MSVC\14.44.35207\include\vector

; 400  :     _CONSTEXPR20 _Vector_val() noexcept : _Myfirst(), _Mylast(), _Myend() {}

  0002a	33 d2		 xor	 edx, edx
  0002c	89 55 e0	 mov	 DWORD PTR _vTemp$[ebp], edx
  0002f	89 55 e4	 mov	 DWORD PTR _vTemp$[ebp+4], edx
  00032	89 55 e8	 mov	 DWORD PTR _vTemp$[ebp+8], edx
; File C:\Program Files\Microsoft Visual Studio\2022\Professional\VC\Tools\MSVC\14.44.35207\include\xtree

; 1142 :         return iterator(_Scary->_Myhead->_Left, _Scary);

  00035	8b 4f 04	 mov	 ecx, DWORD PTR [edi+4]
; File C:\IAGOS\server\v18\Source\Source\_Common\buff.cpp

; 861  : 	vector<LONG> vTemp;

  00038	89 55 fc	 mov	 DWORD PTR __$EHRec$[ebp+8], edx
; File C:\Program Files\Microsoft Visual Studio\2022\Professional\VC\Tools\MSVC\14.44.35207\include\xtree

; 37   :     _Tree_unchecked_const_iterator(_Nodeptr _Pnode, const _Mytree* _Plist) noexcept : _Ptr(_Pnode) {

  0003b	8b 01		 mov	 eax, DWORD PTR [ecx]
  0003d	89 45 f0	 mov	 DWORD PTR _i$2[ebp], eax

; 237  :         return !(*this == _Right);

  00040	3b c1		 cmp	 eax, ecx
; File C:\IAGOS\server\v18\Source\Source\_Common\buff.cpp

; 862  : 	for( MAPBUFF::iterator i = m_mapBuffs.begin(); i != m_mapBuffs.end(); ++i )

  00042	0f 84 06 01 00
	00		 je	 $LN91@RemoveBuff
  00048	8b 5d 08	 mov	 ebx, DWORD PTR _dwFlags$[ebp]
  0004b	8b d3		 mov	 edx, ebx
  0004d	81 e2 00 00 00
	01		 and	 edx, 16777216		; 01000000H
  00053	89 55 ec	 mov	 DWORD PTR tv567[ebp], edx
$LL4@RemoveBuff:

; 863  : 	{
; 864  : 		IBuff* pBuff	= i->second;

  00056	8b 70 14	 mov	 esi, DWORD PTR [eax+20]

; 865  : 		if(
; 866  : 			( ( dwFlags & RBF_UNCONDITIONAL )
; 867  : #if __VER >= 13 // __HOUSING
; 868  : 				&& !pBuff->IsIk1( IK1_HOUSING )	// ÇĎżěÂˇ ąöÇÁ´Â "ąöÇÁÇŘÁ¦" ¸í·ÉŔ¸·Î »čÁ¦ ľČµĘ.
; 869  : #endif // __HOUSING	
; 870  : 			)
; 871  : 			|| ( ( dwFlags & RBF_COMMON ) && GetMover() && pBuff->IsCommon() )
; 872  : 			|| ( ( dwFlags & RBF_IK3 ) && pBuff->IsIk3( dwParam ) )
; 873  : 			|| ( ( dwFlags & RBF_GOODSKILL ) && pBuff->IsGood( GetMover() ) )
; 874  : 			|| ( ( dwFlags & RBF_CHRSTATE ) && pBuff->HasChrState( GetMover(), dwParam ) )
; 875  : 			|| ( ( dwFlags & RBF_DSTPARAM ) && pBuff->HasDstParam( GetMover(), dwParam ) )
; 876  : 			|| ( ( dwFlags & RBF_DEBUF ) && pBuff->IsDebuf( GetMover() ) )
; 877  : 			|| ( ( dwFlags & RBF_ATTACKER ) && pBuff->IsAttacker( GetMover(), dwParam ) )

  00059	85 d2		 test	 edx, edx
  0005b	74 11		 je	 SHORT $LN9@RemoveBuff
  0005d	8b 06		 mov	 eax, DWORD PTR [esi]
  0005f	8b ce		 mov	 ecx, esi
  00061	6a 07		 push	 7
  00063	ff 50 14	 call	 DWORD PTR [eax+20]
  00066	85 c0		 test	 eax, eax
  00068	0f 84 91 00 00
	00		 je	 $LN8@RemoveBuff
$LN9@RemoveBuff:
  0006e	f6 c3 01	 test	 bl, 1
  00071	74 11		 je	 SHORT $LN10@RemoveBuff
  00073	83 7f 0c 00	 cmp	 DWORD PTR [edi+12], 0
  00077	74 0b		 je	 SHORT $LN10@RemoveBuff
  00079	8b 06		 mov	 eax, DWORD PTR [esi]
  0007b	8b ce		 mov	 ecx, esi
  0007d	ff 50 34	 call	 DWORD PTR [eax+52]
  00080	85 c0		 test	 eax, eax
  00082	75 7b		 jne	 SHORT $LN8@RemoveBuff
$LN10@RemoveBuff:
  00084	f6 c3 02	 test	 bl, 2
  00087	74 0e		 je	 SHORT $LN11@RemoveBuff
  00089	8b 06		 mov	 eax, DWORD PTR [esi]
  0008b	8b ce		 mov	 ecx, esi
  0008d	ff 75 0c	 push	 DWORD PTR _dwParam$[ebp]
  00090	ff 50 18	 call	 DWORD PTR [eax+24]
  00093	85 c0		 test	 eax, eax
  00095	75 68		 jne	 SHORT $LN8@RemoveBuff
$LN11@RemoveBuff:
  00097	f6 c3 04	 test	 bl, 4
  0009a	74 0e		 je	 SHORT $LN12@RemoveBuff
  0009c	8b 06		 mov	 eax, DWORD PTR [esi]
  0009e	8b ce		 mov	 ecx, esi
  000a0	ff 77 0c	 push	 DWORD PTR [edi+12]
  000a3	ff 50 38	 call	 DWORD PTR [eax+56]
  000a6	85 c0		 test	 eax, eax
  000a8	75 55		 jne	 SHORT $LN8@RemoveBuff
$LN12@RemoveBuff:
  000aa	f6 c3 08	 test	 bl, 8
  000ad	74 11		 je	 SHORT $LN13@RemoveBuff
  000af	ff 75 0c	 push	 DWORD PTR _dwParam$[ebp]
  000b2	8b 06		 mov	 eax, DWORD PTR [esi]
  000b4	8b ce		 mov	 ecx, esi
  000b6	ff 77 0c	 push	 DWORD PTR [edi+12]
  000b9	ff 50 40	 call	 DWORD PTR [eax+64]
  000bc	85 c0		 test	 eax, eax
  000be	75 3f		 jne	 SHORT $LN8@RemoveBuff
$LN13@RemoveBuff:
  000c0	f6 c3 10	 test	 bl, 16			; 00000010H
  000c3	74 11		 je	 SHORT $LN14@RemoveBuff
  000c5	ff 75 0c	 push	 DWORD PTR _dwParam$[ebp]
  000c8	8b 06		 mov	 eax, DWORD PTR [esi]
  000ca	8b ce		 mov	 ecx, esi
  000cc	ff 77 0c	 push	 DWORD PTR [edi+12]
  000cf	ff 50 3c	 call	 DWORD PTR [eax+60]
  000d2	85 c0		 test	 eax, eax
  000d4	75 29		 jne	 SHORT $LN8@RemoveBuff
$LN14@RemoveBuff:
  000d6	f6 c3 20	 test	 bl, 32			; 00000020H
  000d9	74 0e		 je	 SHORT $LN15@RemoveBuff
  000db	8b 06		 mov	 eax, DWORD PTR [esi]
  000dd	8b ce		 mov	 ecx, esi
  000df	ff 77 0c	 push	 DWORD PTR [edi+12]
  000e2	ff 50 44	 call	 DWORD PTR [eax+68]
  000e5	85 c0		 test	 eax, eax
  000e7	75 16		 jne	 SHORT $LN8@RemoveBuff
$LN15@RemoveBuff:
  000e9	f6 c3 40	 test	 bl, 64			; 00000040H
  000ec	74 46		 je	 SHORT $LN2@RemoveBuff
  000ee	ff 75 0c	 push	 DWORD PTR _dwParam$[ebp]
  000f1	8b 06		 mov	 eax, DWORD PTR [esi]
  000f3	8b ce		 mov	 ecx, esi
  000f5	ff 77 0c	 push	 DWORD PTR [edi+12]
  000f8	ff 50 48	 call	 DWORD PTR [eax+72]
  000fb	85 c0		 test	 eax, eax
  000fd	74 35		 je	 SHORT $LN2@RemoveBuff
$LN8@RemoveBuff:

; 880  : 			vTemp.push_back( MAKELONG( pBuff->GetId(), pBuff->GetType() ) );

  000ff	0f b7 4e 04	 movzx	 ecx, WORD PTR [esi+4]
  00103	0f b7 46 06	 movzx	 eax, WORD PTR [esi+6]
  00107	c1 e1 10	 shl	 ecx, 16			; 00000010H
  0010a	0b c8		 or	 ecx, eax
; File C:\Program Files\Microsoft Visual Studio\2022\Professional\VC\Tools\MSVC\14.44.35207\include\vector

; 844  :         if (_Mylast != _My_data._Myend) {

  0010c	8b 45 e4	 mov	 eax, DWORD PTR _vTemp$[ebp+4]
; File C:\IAGOS\server\v18\Source\Source\_Common\buff.cpp

; 880  : 			vTemp.push_back( MAKELONG( pBuff->GetId(), pBuff->GetType() ) );

  0010f	89 4d 08	 mov	 DWORD PTR $T3[ebp], ecx
; File C:\Program Files\Microsoft Visual Studio\2022\Professional\VC\Tools\MSVC\14.44.35207\include\vector

; 844  :         if (_Mylast != _My_data._Myend) {

  00112	3b 45 e8	 cmp	 eax, DWORD PTR _vTemp$[ebp+8]
  00115	74 08		 je	 SHORT $LN40@RemoveBuff

; 860  :             _STD _Construct_in_place(*_Mylast, _STD forward<_Valty>(_Val)...);

  00117	89 08		 mov	 DWORD PTR [eax], ecx

; 861  :         } else {
; 862  :             _ASAN_VECTOR_EXTEND_GUARD(static_cast<size_type>(_Mylast - _My_data._Myfirst) + 1);
; 863  :             _Alty_traits::construct(_Getal(), _Unfancy(_Mylast), _STD forward<_Valty>(_Val)...);
; 864  :             _ASAN_VECTOR_RELEASE_GUARD;
; 865  :         }
; 866  : 
; 867  :         _Orphan_range(_Mylast, _Mylast);
; 868  :         _Ty& _Result = *_Mylast;
; 869  :         ++_Mylast;

  00119	83 45 e4 04	 add	 DWORD PTR _vTemp$[ebp+4], 4

; 845  :             return _Emplace_back_with_unused_capacity(_STD forward<_Valty>(_Val)...);

  0011d	eb 0d		 jmp	 SHORT $LN39@RemoveBuff
$LN40@RemoveBuff:

; 846  :         }
; 847  : 
; 848  :         return *_Emplace_reallocate(_Mylast, _STD forward<_Valty>(_Val)...);

  0011f	8d 4d 08	 lea	 ecx, DWORD PTR $T3[ebp]
  00122	51		 push	 ecx
  00123	50		 push	 eax
  00124	8d 4d e0	 lea	 ecx, DWORD PTR _vTemp$[ebp]
  00127	e8 00 00 00 00	 call	 ??$_Emplace_reallocate@J@?$vector@JV?$allocator@J@std@@@std@@AAEPAJQAJ$$QAJ@Z ; std::vector<long,std::allocator<long> >::_Emplace_reallocate<long>
$LN39@RemoveBuff:
; File C:\IAGOS\server\v18\Source\Source\_Common\buff.cpp

; 881  : 			if( dwFlags & RBF_ONCE )

  0012c	f7 c3 00 00 00
	10		 test	 ebx, 268435456		; 10000000H
  00132	75 17		 jne	 SHORT $LN101@RemoveBuff
$LN2@RemoveBuff:
; File C:\Program Files\Microsoft Visual Studio\2022\Professional\VC\Tools\MSVC\14.44.35207\include\xtree

; 198  :         _Mybase::operator++();

  00134	8d 4d f0	 lea	 ecx, DWORD PTR _i$2[ebp]
  00137	e8 00 00 00 00	 call	 ??E?$_Tree_unchecked_const_iterator@V?$_Tree_val@U?$_Tree_simple_types@U?$pair@$$CBKPAVIBuff@@@std@@@std@@@std@@U_Iterator_base0@2@@std@@QAEAAV01@XZ ; std::_Tree_unchecked_const_iterator<std::_Tree_val<std::_Tree_simple_types<std::pair<unsigned long const ,IBuff *> > >,std::_Iterator_base0>::operator++

; 237  :         return !(*this == _Right);

  0013c	8b 45 f0	 mov	 eax, DWORD PTR _i$2[ebp]
; File C:\IAGOS\server\v18\Source\Source\_Common\buff.cpp

; 862  : 	for( MAPBUFF::iterator i = m_mapBuffs.begin(); i != m_mapBuffs.end(); ++i )

  0013f	8b 55 ec	 mov	 edx, DWORD PTR tv567[ebp]
; File C:\Program Files\Microsoft Visual Studio\2022\Professional\VC\Tools\MSVC\14.44.35207\include\xtree

; 237  :         return !(*this == _Right);

  00142	3b 47 04	 cmp	 eax, DWORD PTR [edi+4]
; File C:\IAGOS\server\v18\Source\Source\_Common\buff.cpp

; 862  : 	for( MAPBUFF::iterator i = m_mapBuffs.begin(); i != m_mapBuffs.end(); ++i )

  00145	0f 85 0b ff ff
	ff		 jne	 $LL4@RemoveBuff
$LN101@RemoveBuff:

; 865  : 		if(
; 866  : 			( ( dwFlags & RBF_UNCONDITIONAL )
; 867  : #if __VER >= 13 // __HOUSING
; 868  : 				&& !pBuff->IsIk1( IK1_HOUSING )	// ÇĎżěÂˇ ąöÇÁ´Â "ąöÇÁÇŘÁ¦" ¸í·ÉŔ¸·Î »čÁ¦ ľČµĘ.
; 869  : #endif // __HOUSING	
; 870  : 			)
; 871  : 			|| ( ( dwFlags & RBF_COMMON ) && GetMover() && pBuff->IsCommon() )
; 872  : 			|| ( ( dwFlags & RBF_IK3 ) && pBuff->IsIk3( dwParam ) )
; 873  : 			|| ( ( dwFlags & RBF_GOODSKILL ) && pBuff->IsGood( GetMover() ) )
; 874  : 			|| ( ( dwFlags & RBF_CHRSTATE ) && pBuff->HasChrState( GetMover(), dwParam ) )
; 875  : 			|| ( ( dwFlags & RBF_DSTPARAM ) && pBuff->HasDstParam( GetMover(), dwParam ) )
; 876  : 			|| ( ( dwFlags & RBF_DEBUF ) && pBuff->IsDebuf( GetMover() ) )
; 877  : 			|| ( ( dwFlags & RBF_ATTACKER ) && pBuff->IsAttacker( GetMover(), dwParam ) )

  0014b	8b 55 e0	 mov	 edx, DWORD PTR _vTemp$[ebp]
$LN91@RemoveBuff:
; File C:\Program Files\Microsoft Visual Studio\2022\Professional\VC\Tools\MSVC\14.44.35207\include\vector

; 1910 :         return _My_data._Myfirst == _My_data._Mylast;

  0014e	3b 55 e4	 cmp	 edx, DWORD PTR _vTemp$[ebp+4]
; File C:\IAGOS\server\v18\Source\Source\_Common\buff.cpp

; 885  : 	while( !vTemp.empty() )

  00151	74 22		 je	 SHORT $LN6@RemoveBuff
$LL5@RemoveBuff:

; 886  : 	{
; 887  : 		LONG l	= vTemp.back();

  00153	8b 45 e4	 mov	 eax, DWORD PTR _vTemp$[ebp+4]

; 888  : 		RemoveBuff( HIWORD( l ), LOWORD( l ) );

  00156	8b cf		 mov	 ecx, edi
  00158	6a 01		 push	 1
  0015a	8b 40 fc	 mov	 eax, DWORD PTR [eax-4]
  0015d	50		 push	 eax
  0015e	c1 e8 10	 shr	 eax, 16			; 00000010H
  00161	50		 push	 eax
  00162	e8 00 00 00 00	 call	 ?RemoveBuff@CBuffMgr@@QAEXGGH@Z ; CBuffMgr::RemoveBuff
; File C:\Program Files\Microsoft Visual Studio\2022\Professional\VC\Tools\MSVC\14.44.35207\include\vector

; 1759 :         --_Mylast;

  00167	8b 45 e4	 mov	 eax, DWORD PTR _vTemp$[ebp+4]
  0016a	83 e8 04	 sub	 eax, 4
  0016d	89 45 e4	 mov	 DWORD PTR _vTemp$[ebp+4], eax
  00170	39 45 e0	 cmp	 DWORD PTR _vTemp$[ebp], eax
; File C:\IAGOS\server\v18\Source\Source\_Common\buff.cpp

; 885  : 	while( !vTemp.empty() )

  00173	75 de		 jne	 SHORT $LL5@RemoveBuff
$LN6@RemoveBuff:

; 889  : 		vTemp.pop_back();
; 890  : 	}
; 891  : }

  00175	8d 4d e0	 lea	 ecx, DWORD PTR _vTemp$[ebp]
  00178	e8 00 00 00 00	 call	 ??1?$vector@JV?$allocator@J@std@@@std@@QAE@XZ ; std::vector<long,std::allocator<long> >::~vector<long,std::allocator<long> >
  0017d	8b 4d f4	 mov	 ecx, DWORD PTR __$EHRec$[ebp]
  00180	64 89 0d 00 00
	00 00		 mov	 DWORD PTR fs:0, ecx
  00187	59		 pop	 ecx
  00188	5f		 pop	 edi
  00189	5e		 pop	 esi
  0018a	5b		 pop	 ebx
  0018b	8b e5		 mov	 esp, ebp
  0018d	5d		 pop	 ebp
  0018e	c2 08 00	 ret	 8
_TEXT	ENDS
;	COMDAT text$x
text$x	SEGMENT
__unwindfunclet$?RemoveBuffs@CBuffMgr@@QAEXKK@Z$0:
  00000	8d 4d e0	 lea	 ecx, DWORD PTR _vTemp$[ebp]
  00003	e9 00 00 00 00	 jmp	 ??1?$vector@JV?$allocator@J@std@@@std@@QAE@XZ ; std::vector<long,std::allocator<long> >::~vector<long,std::allocator<long> >
  00008	cc		 int	 3
  00009	cc		 int	 3
  0000a	cc		 int	 3
  0000b	cc		 int	 3
  0000c	cc		 int	 3
__ehhandler$?RemoveBuffs@CBuffMgr@@QAEXKK@Z:
  0000d	90		 npad	 1
  0000e	90		 npad	 1
  0000f	8b 54 24 08	 mov	 edx, DWORD PTR [esp+8]
  00013	8d 42 0c	 lea	 eax, DWORD PTR [edx+12]
  00016	8b 4a dc	 mov	 ecx, DWORD PTR [edx-36]
  00019	33 c8		 xor	 ecx, eax
  0001b	e8 00 00 00 00	 call	 @__security_check_cookie@4
  00020	b8 00 00 00 00	 mov	 eax, OFFSET __ehfuncinfo$?RemoveBuffs@CBuffMgr@@QAEXKK@Z
  00025	e9 00 00 00 00	 jmp	 ___CxxFrameHandler3
text$x	ENDS
?RemoveBuffs@CBuffMgr@@QAEXKK@Z ENDP			; CBuffMgr::RemoveBuffs
; Function compile flags: /Ogtp
; File C:\IAGOS\server\v18\Source\Source\_Common\buff.cpp
; File C:\Program Files\Microsoft Visual Studio\2022\Professional\VC\Tools\MSVC\14.44.35207\include\xtree
; File C:\IAGOS\server\v18\Source\Source\_Common\buff.cpp
; File C:\Program Files\Microsoft Visual Studio\2022\Professional\VC\Tools\MSVC\14.44.35207\include\xtree
; File C:\IAGOS\server\v18\Source\Source\_Common\buff.cpp
;	COMDAT ?GetBuffByIk3@CBuffMgr@@QAEPAVIBuff@@K@Z
_TEXT	SEGMENT
_i$1 = -4						; size = 4
_dwIk3$ = 8						; size = 4
?GetBuffByIk3@CBuffMgr@@QAEPAVIBuff@@K@Z PROC		; CBuffMgr::GetBuffByIk3, COMDAT
; _this$ = ecx

; 724  : {

  00000	55		 push	 ebp
  00001	8b ec		 mov	 ebp, esp
  00003	51		 push	 ecx
  00004	53		 push	 ebx
  00005	56		 push	 esi
  00006	57		 push	 edi
  00007	8b f9		 mov	 edi, ecx
; File C:\Program Files\Microsoft Visual Studio\2022\Professional\VC\Tools\MSVC\14.44.35207\include\xtree

; 1142 :         return iterator(_Scary->_Myhead->_Left, _Scary);

  00009	8b 57 04	 mov	 edx, DWORD PTR [edi+4]

; 37   :     _Tree_unchecked_const_iterator(_Nodeptr _Pnode, const _Mytree* _Plist) noexcept : _Ptr(_Pnode) {

  0000c	8b 02		 mov	 eax, DWORD PTR [edx]
  0000e	89 45 fc	 mov	 DWORD PTR _i$1[ebp], eax

; 237  :         return !(*this == _Right);

  00011	3b c2		 cmp	 eax, edx
; File C:\IAGOS\server\v18\Source\Source\_Common\buff.cpp

; 725  : 	for( MAPBUFF::iterator i = m_mapBuffs.begin(); i != m_mapBuffs.end(); ++i )

  00013	74 22		 je	 SHORT $LN3@GetBuffByI
  00015	8b 5d 08	 mov	 ebx, DWORD PTR _dwIk3$[ebp]
$LL4@GetBuffByI:

; 726  : 	{
; 727  : 		IBuff* pBuff	= i->second;

  00018	8b 70 14	 mov	 esi, DWORD PTR [eax+20]

; 728  : 		if( pBuff->IsIk3( dwIk3 ) )

  0001b	8b ce		 mov	 ecx, esi
  0001d	53		 push	 ebx
  0001e	8b 06		 mov	 eax, DWORD PTR [esi]
  00020	ff 50 18	 call	 DWORD PTR [eax+24]
  00023	85 c0		 test	 eax, eax
  00025	75 1b		 jne	 SHORT $LN53@GetBuffByI
; File C:\Program Files\Microsoft Visual Studio\2022\Professional\VC\Tools\MSVC\14.44.35207\include\xtree

; 198  :         _Mybase::operator++();

  00027	8d 4d fc	 lea	 ecx, DWORD PTR _i$1[ebp]
  0002a	e8 00 00 00 00	 call	 ??E?$_Tree_unchecked_const_iterator@V?$_Tree_val@U?$_Tree_simple_types@U?$pair@$$CBKPAVIBuff@@@std@@@std@@@std@@U_Iterator_base0@2@@std@@QAEAAV01@XZ ; std::_Tree_unchecked_const_iterator<std::_Tree_val<std::_Tree_simple_types<std::pair<unsigned long const ,IBuff *> > >,std::_Iterator_base0>::operator++

; 237  :         return !(*this == _Right);

  0002f	8b 45 fc	 mov	 eax, DWORD PTR _i$1[ebp]
  00032	3b 47 04	 cmp	 eax, DWORD PTR [edi+4]
; File C:\IAGOS\server\v18\Source\Source\_Common\buff.cpp

; 725  : 	for( MAPBUFF::iterator i = m_mapBuffs.begin(); i != m_mapBuffs.end(); ++i )

  00035	75 e1		 jne	 SHORT $LL4@GetBuffByI
$LN3@GetBuffByI:
  00037	5f		 pop	 edi

; 730  : 	}
; 731  : 	return NULL;
; 732  : }

  00038	5e		 pop	 esi
  00039	33 c0		 xor	 eax, eax
  0003b	5b		 pop	 ebx
  0003c	8b e5		 mov	 esp, ebp
  0003e	5d		 pop	 ebp
  0003f	c2 04 00	 ret	 4
$LN53@GetBuffByI:
  00042	5f		 pop	 edi

; 729  : 			return pBuff;

  00043	8b c6		 mov	 eax, esi

; 730  : 	}
; 731  : 	return NULL;
; 732  : }

  00045	5e		 pop	 esi
  00046	5b		 pop	 ebx
  00047	8b e5		 mov	 esp, ebp
  00049	5d		 pop	 ebp
  0004a	c2 04 00	 ret	 4
?GetBuffByIk3@CBuffMgr@@QAEPAVIBuff@@K@Z ENDP		; CBuffMgr::GetBuffByIk3
_TEXT	ENDS
; Function compile flags: /Ogtp
; File C:\IAGOS\server\v18\Source\Source\_Common\buff.cpp
; File C:\Program Files\Microsoft Visual Studio\2022\Professional\VC\Tools\MSVC\14.44.35207\include\xtree
; File C:\IAGOS\server\v18\Source\Source\_Common\buff.cpp
; File C:\Program Files\Microsoft Visual Studio\2022\Professional\VC\Tools\MSVC\14.44.35207\include\xtree
; File C:\Program Files\Microsoft Visual Studio\2022\Professional\VC\Tools\MSVC\14.44.35207\include\type_traits
; File C:\Program Files\Microsoft Visual Studio\2022\Professional\VC\Tools\MSVC\14.44.35207\include\xtree
; File C:\IAGOS\server\v18\Source\Source\_Common\buff.cpp
;	COMDAT ?GetBuff@CBuffMgr@@QAEPAVIBuff@@GG@Z
_TEXT	SEGMENT
__Loc$1 = -12						; size = 12
_wType$ = 8						; size = 2
$T2 = 8							; size = 4
_wId$ = 12						; size = 2
?GetBuff@CBuffMgr@@QAEPAVIBuff@@GG@Z PROC		; CBuffMgr::GetBuff, COMDAT
; _this$ = ecx

; 716  : {

  00000	55		 push	 ebp
  00001	8b ec		 mov	 ebp, esp
  00003	83 ec 0c	 sub	 esp, 12			; 0000000cH

; 717  : 	MAPBUFF::iterator i	= m_mapBuffs.find( MAKELONG( wId, wType ) );

  00006	0f b7 45 0c	 movzx	 eax, WORD PTR _wId$[ebp]
  0000a	56		 push	 esi
  0000b	0f b7 75 08	 movzx	 esi, WORD PTR _wType$[ebp]
  0000f	57		 push	 edi
  00010	c1 e6 10	 shl	 esi, 16			; 00000010H
  00013	8d 79 04	 lea	 edi, DWORD PTR [ecx+4]
  00016	0b f0		 or	 esi, eax
; File C:\Program Files\Microsoft Visual Studio\2022\Professional\VC\Tools\MSVC\14.44.35207\include\xtree

; 1384 :         const _Tree_find_result<_Nodeptr> _Loc = _Find_lower_bound(_Keyval);

  00018	8b cf		 mov	 ecx, edi
  0001a	8d 45 08	 lea	 eax, DWORD PTR $T2[ebp]
; File C:\IAGOS\server\v18\Source\Source\_Common\buff.cpp

; 717  : 	MAPBUFF::iterator i	= m_mapBuffs.find( MAKELONG( wId, wType ) );

  0001d	89 75 08	 mov	 DWORD PTR $T2[ebp], esi
; File C:\Program Files\Microsoft Visual Studio\2022\Professional\VC\Tools\MSVC\14.44.35207\include\xtree

; 1384 :         const _Tree_find_result<_Nodeptr> _Loc = _Find_lower_bound(_Keyval);

  00020	50		 push	 eax
  00021	8d 45 f4	 lea	 eax, DWORD PTR __Loc$1[ebp]
  00024	50		 push	 eax
  00025	e8 00 00 00 00	 call	 ??$_Find_lower_bound@K@?$_Tree@V?$_Tmap_traits@KPAVIBuff@@U?$less@K@std@@V?$allocator@U?$pair@$$CBKPAVIBuff@@@std@@@3@$0A@@std@@@std@@IBE?AU?$_Tree_find_result@PAU?$_Tree_node@U?$pair@$$CBKPAVIBuff@@@std@@PAX@std@@@1@ABK@Z ; std::_Tree<std::_Tmap_traits<unsigned long,IBuff *,std::less<unsigned long>,std::allocator<std::pair<unsigned long const ,IBuff *> >,0> >::_Find_lower_bound<unsigned long>

; 1624 :         return !_Bound->_Isnil && !_DEBUG_LT_PRED(_Getcomp(), _Keyval, _Traits::_Kfn(_Bound->_Myval));

  0002a	8b 45 fc	 mov	 eax, DWORD PTR __Loc$1[ebp+8]
  0002d	80 78 0d 00	 cmp	 BYTE PTR [eax+13], 0
  00031	75 14		 jne	 SHORT $LN2@GetBuff
; File C:\Program Files\Microsoft Visual Studio\2022\Professional\VC\Tools\MSVC\14.44.35207\include\type_traits

; 2380 :         return _Left < _Right;

  00033	3b 70 10	 cmp	 esi, DWORD PTR [eax+16]
; File C:\Program Files\Microsoft Visual Studio\2022\Professional\VC\Tools\MSVC\14.44.35207\include\xtree

; 1624 :         return !_Bound->_Isnil && !_DEBUG_LT_PRED(_Getcomp(), _Keyval, _Traits::_Kfn(_Bound->_Myval));

  00036	72 0f		 jb	 SHORT $LN2@GetBuff

; 37   :     _Tree_unchecked_const_iterator(_Nodeptr _Pnode, const _Mytree* _Plist) noexcept : _Ptr(_Pnode) {

  00038	3b 07		 cmp	 eax, DWORD PTR [edi]
; File C:\IAGOS\server\v18\Source\Source\_Common\buff.cpp

; 718  : 	if( i != m_mapBuffs.end() )

  0003a	74 0b		 je	 SHORT $LN2@GetBuff

; 719  : 		return i->second;

  0003c	8b 40 14	 mov	 eax, DWORD PTR [eax+20]
  0003f	5f		 pop	 edi

; 721  : }

  00040	5e		 pop	 esi
  00041	8b e5		 mov	 esp, ebp
  00043	5d		 pop	 ebp
  00044	c2 08 00	 ret	 8
$LN2@GetBuff:
  00047	5f		 pop	 edi

; 720  : 	return NULL;

  00048	33 c0		 xor	 eax, eax

; 721  : }

  0004a	5e		 pop	 esi
  0004b	8b e5		 mov	 esp, ebp
  0004d	5d		 pop	 ebp
  0004e	c2 08 00	 ret	 8
?GetBuff@CBuffMgr@@QAEPAVIBuff@@GG@Z ENDP		; CBuffMgr::GetBuff
_TEXT	ENDS
; Function compile flags: /Ogtp
; File C:\IAGOS\server\v18\Source\Source\_Common\buff.cpp
; File C:\Program Files\Microsoft Visual Studio\2022\Professional\VC\Tools\MSVC\14.44.35207\include\xtree
; File C:\IAGOS\server\v18\Source\Source\_Common\buff.cpp
; File C:\Program Files\Microsoft Visual Studio\2022\Professional\VC\Tools\MSVC\14.44.35207\include\xtree
; File C:\IAGOS\server\v18\Source\Source\_Common\buff.cpp
;	COMDAT ?GetBuffPet@CBuffMgr@@QAEPAVIBuff@@XZ
_TEXT	SEGMENT
_i$1 = -4						; size = 4
?GetBuffPet@CBuffMgr@@QAEPAVIBuff@@XZ PROC		; CBuffMgr::GetBuffPet, COMDAT
; _this$ = ecx

; 907  : {

  00000	55		 push	 ebp
  00001	8b ec		 mov	 ebp, esp
  00003	51		 push	 ecx
  00004	56		 push	 esi
; File C:\Program Files\Microsoft Visual Studio\2022\Professional\VC\Tools\MSVC\14.44.35207\include\xtree

; 1142 :         return iterator(_Scary->_Myhead->_Left, _Scary);

  00005	8b 71 04	 mov	 esi, DWORD PTR [ecx+4]

; 37   :     _Tree_unchecked_const_iterator(_Nodeptr _Pnode, const _Mytree* _Plist) noexcept : _Ptr(_Pnode) {

  00008	8b 06		 mov	 eax, DWORD PTR [esi]
  0000a	89 45 fc	 mov	 DWORD PTR _i$1[ebp], eax

; 237  :         return !(*this == _Right);

  0000d	3b c6		 cmp	 eax, esi
; File C:\IAGOS\server\v18\Source\Source\_Common\buff.cpp

; 908  : 	for( MAPBUFF::iterator i = m_mapBuffs.begin(); i != m_mapBuffs.end(); ++i )

  0000f	74 19		 je	 SHORT $LN3@GetBuffPet
$LL4@GetBuffPet:

; 909  : 	{
; 910  : 		IBuff* pBuff	= i->second;

  00011	8b 40 14	 mov	 eax, DWORD PTR [eax+20]

; 911  : 		if( pBuff->GetType() == BUFF_PET )

  00014	66 83 78 04 02	 cmp	 WORD PTR [eax+4], 2
  00019	74 11		 je	 SHORT $LN1@GetBuffPet
; File C:\Program Files\Microsoft Visual Studio\2022\Professional\VC\Tools\MSVC\14.44.35207\include\xtree

; 198  :         _Mybase::operator++();

  0001b	8d 4d fc	 lea	 ecx, DWORD PTR _i$1[ebp]
  0001e	e8 00 00 00 00	 call	 ??E?$_Tree_unchecked_const_iterator@V?$_Tree_val@U?$_Tree_simple_types@U?$pair@$$CBKPAVIBuff@@@std@@@std@@@std@@U_Iterator_base0@2@@std@@QAEAAV01@XZ ; std::_Tree_unchecked_const_iterator<std::_Tree_val<std::_Tree_simple_types<std::pair<unsigned long const ,IBuff *> > >,std::_Iterator_base0>::operator++

; 237  :         return !(*this == _Right);

  00023	8b 45 fc	 mov	 eax, DWORD PTR _i$1[ebp]
  00026	3b c6		 cmp	 eax, esi
; File C:\IAGOS\server\v18\Source\Source\_Common\buff.cpp

; 908  : 	for( MAPBUFF::iterator i = m_mapBuffs.begin(); i != m_mapBuffs.end(); ++i )

  00028	75 e7		 jne	 SHORT $LL4@GetBuffPet
$LN3@GetBuffPet:

; 912  : 			return pBuff;
; 913  : 	}
; 914  : 	return NULL;

  0002a	33 c0		 xor	 eax, eax
$LN1@GetBuffPet:
  0002c	5e		 pop	 esi

; 915  : }

  0002d	8b e5		 mov	 esp, ebp
  0002f	5d		 pop	 ebp
  00030	c3		 ret	 0
?GetBuffPet@CBuffMgr@@QAEPAVIBuff@@XZ ENDP		; CBuffMgr::GetBuffPet
_TEXT	ENDS
; Function compile flags: /Ogtp
; File C:\IAGOS\server\v18\Source\Source\_Common\buff.cpp
;	COMDAT ?RemoveBuffPet@CBuffMgr@@QAEXXZ
_TEXT	SEGMENT
?RemoveBuffPet@CBuffMgr@@QAEXXZ PROC			; CBuffMgr::RemoveBuffPet, COMDAT
; _this$ = ecx

; 927  : {

  00000	56		 push	 esi
  00001	8b f1		 mov	 esi, ecx

; 928  : 	IBuff* pBuff	= GetBuffPet();

  00003	e8 00 00 00 00	 call	 ?GetBuffPet@CBuffMgr@@QAEPAVIBuff@@XZ ; CBuffMgr::GetBuffPet

; 929  : 	if( pBuff )

  00008	85 c0		 test	 eax, eax
  0000a	74 08		 je	 SHORT $LN2@RemoveBuff

; 930  : 		RemoveBuffPet( pBuff );

  0000c	50		 push	 eax
  0000d	8b ce		 mov	 ecx, esi
  0000f	e8 00 00 00 00	 call	 ?RemoveBuffPet@CBuffMgr@@QAEXPAVIBuff@@@Z ; CBuffMgr::RemoveBuffPet
$LN2@RemoveBuff:

; 931  : }

  00014	5e		 pop	 esi
  00015	c3		 ret	 0
?RemoveBuffPet@CBuffMgr@@QAEXXZ ENDP			; CBuffMgr::RemoveBuffPet
_TEXT	ENDS
; Function compile flags: /Ogtp
; File C:\IAGOS\server\v18\Source\Source\_Common\buff.cpp
;	COMDAT ?HasBuffByIk3@CBuffMgr@@QAEHK@Z
_TEXT	SEGMENT
_dwIk3$ = 8						; size = 4
?HasBuffByIk3@CBuffMgr@@QAEHK@Z PROC			; CBuffMgr::HasBuffByIk3, COMDAT
; _this$ = ecx

; 735  : {

  00000	55		 push	 ebp
  00001	8b ec		 mov	 ebp, esp

; 736  : 	return GetBuffByIk3( dwIk3 ) != NULL;

  00003	ff 75 08	 push	 DWORD PTR _dwIk3$[ebp]
  00006	e8 00 00 00 00	 call	 ?GetBuffByIk3@CBuffMgr@@QAEPAVIBuff@@K@Z ; CBuffMgr::GetBuffByIk3
  0000b	f7 d8		 neg	 eax
  0000d	1b c0		 sbb	 eax, eax
  0000f	f7 d8		 neg	 eax

; 737  : }

  00011	5d		 pop	 ebp
  00012	c2 04 00	 ret	 4
?HasBuffByIk3@CBuffMgr@@QAEHK@Z ENDP			; CBuffMgr::HasBuffByIk3
_TEXT	ENDS
; Function compile flags: /Ogtp
; File C:\IAGOS\server\v18\Source\Source\_Common\buff.cpp
;	COMDAT ?RemoveBuff@CBuffMgr@@QAEXGGH@Z
_TEXT	SEGMENT
_wType$ = 8						; size = 2
_wId$ = 12						; size = 2
_bFake$ = 16						; size = 4
?RemoveBuff@CBuffMgr@@QAEXGGH@Z PROC			; CBuffMgr::RemoveBuff, COMDAT
; _this$ = ecx

; 796  : {

  00000	55		 push	 ebp
  00001	8b ec		 mov	 ebp, esp
  00003	56		 push	 esi

; 797  : 	IBuff* pBuff	= GetBuff( wType, wId );

  00004	ff 75 0c	 push	 DWORD PTR _wId$[ebp]
  00007	8b f1		 mov	 esi, ecx
  00009	ff 75 08	 push	 DWORD PTR _wType$[ebp]
  0000c	e8 00 00 00 00	 call	 ?GetBuff@CBuffMgr@@QAEPAVIBuff@@GG@Z ; CBuffMgr::GetBuff

; 798  : 	if( pBuff )

  00011	85 c0		 test	 eax, eax
  00013	74 0b		 je	 SHORT $LN2@RemoveBuff

; 799  : 		RemoveBuff( pBuff, bFake );

  00015	ff 75 10	 push	 DWORD PTR _bFake$[ebp]
  00018	8b ce		 mov	 ecx, esi
  0001a	50		 push	 eax
  0001b	e8 00 00 00 00	 call	 ?RemoveBuff@CBuffMgr@@QAEXPAVIBuff@@H@Z ; CBuffMgr::RemoveBuff
$LN2@RemoveBuff:
  00020	5e		 pop	 esi

; 800  : }

  00021	5d		 pop	 ebp
  00022	c2 0c 00	 ret	 12			; 0000000cH
?RemoveBuff@CBuffMgr@@QAEXGGH@Z ENDP			; CBuffMgr::RemoveBuff
_TEXT	ENDS
; Function compile flags: /Ogtp
; File C:\IAGOS\server\v18\Source\Source\_Common\buff.cpp
; File C:\Program Files\Microsoft Visual Studio\2022\Professional\VC\Tools\MSVC\14.44.35207\include\xtree
; File C:\IAGOS\server\v18\Source\Source\_Common\buff.cpp
; File C:\Program Files\Microsoft Visual Studio\2022\Professional\VC\Tools\MSVC\14.44.35207\include\xtree
; File C:\IAGOS\server\v18\Source\Source\_Common\buff.cpp
; File C:\Program Files\Microsoft Visual Studio\2022\Professional\VC\Tools\MSVC\14.44.35207\include\xtree
; File C:\IAGOS\server\v18\Source\Source\_Common\buff.cpp
; File C:\Program Files\Microsoft Visual Studio\2022\Professional\VC\Tools\MSVC\14.44.35207\include\xtree
; File C:\Program Files\Microsoft Visual Studio\2022\Professional\VC\Tools\MSVC\14.44.35207\include\type_traits
; File C:\Program Files\Microsoft Visual Studio\2022\Professional\VC\Tools\MSVC\14.44.35207\include\xtree
; File C:\Program Files\Microsoft Visual Studio\2022\Professional\VC\Tools\MSVC\14.44.35207\include\type_traits
; File C:\Program Files\Microsoft Visual Studio\2022\Professional\VC\Tools\MSVC\14.44.35207\include\xtree
; File C:\Program Files\Microsoft Visual Studio\2022\Professional\VC\Tools\MSVC\14.44.35207\include\type_traits
; File C:\Program Files\Microsoft Visual Studio\2022\Professional\VC\Tools\MSVC\14.44.35207\include\xtree
; File C:\Program Files\Microsoft Visual Studio\2022\Professional\VC\Tools\MSVC\14.44.35207\include\xutility
; File C:\Program Files\Microsoft Visual Studio\2022\Professional\VC\Tools\MSVC\14.44.35207\include\xtree
; File C:\Program Files\Microsoft Visual Studio\2022\Professional\VC\Tools\MSVC\14.44.35207\include\xutility
; File C:\Program Files\Microsoft Visual Studio\2022\Professional\VC\Tools\MSVC\14.44.35207\include\xtree
; File C:\Program Files\Microsoft Visual Studio\2022\Professional\VC\Tools\MSVC\14.44.35207\include\xutility
; File C:\Program Files\Microsoft Visual Studio\2022\Professional\VC\Tools\MSVC\14.44.35207\include\xtree
; File C:\Program Files\Microsoft Visual Studio\2022\Professional\VC\Tools\MSVC\14.44.35207\include\xutility
; File C:\Program Files\Microsoft Visual Studio\2022\Professional\VC\Tools\MSVC\14.44.35207\include\xtree
; File C:\Program Files\Microsoft Visual Studio\2022\Professional\VC\Tools\MSVC\14.44.35207\include\xmemory
; File C:\Program Files\Microsoft Visual Studio\2022\Professional\VC\Tools\MSVC\14.44.35207\include\xtree
; File C:\Program Files\Microsoft Visual Studio\2022\Professional\VC\Tools\MSVC\14.44.35207\include\xmemory
; File C:\Program Files\Microsoft Visual Studio\2022\Professional\VC\Tools\MSVC\14.44.35207\include\xtree
; File C:\IAGOS\server\v18\Source\Source\_Common\buff.cpp
;	COMDAT ?RemoveBuff@CBuffMgr@@QAEXPAVIBuff@@H@Z
_TEXT	SEGMENT
tv828 = -12						; size = 4
__Off$1$ = -8						; size = 4
__First$ = -4						; size = 4
_pBuff$ = 8						; size = 4
_bFake$ = 12						; size = 4
_this$1$ = 12						; size = 4
?RemoveBuff@CBuffMgr@@QAEXPAVIBuff@@H@Z PROC		; CBuffMgr::RemoveBuff, COMDAT
; _this$ = ecx

; 774  : {

  00000	55		 push	 ebp
  00001	8b ec		 mov	 ebp, esp
  00003	83 ec 0c	 sub	 esp, 12			; 0000000cH
  00006	56		 push	 esi
  00007	57		 push	 edi

; 775  : 	ASSERT( pBuff );
; 776  : 	if( !pBuff->GetRemove() )	// pBuffżˇ ´ëÇĎż© RemoveBuffŔÇ ĂÖĂĘ ČŁĂâ ˝Ă Release ČŁĂâ

  00008	8b 7d 08	 mov	 edi, DWORD PTR _pBuff$[ebp]
  0000b	8b f1		 mov	 esi, ecx
  0000d	83 7f 18 00	 cmp	 DWORD PTR [edi+24], 0
  00011	75 08		 jne	 SHORT $LN2@RemoveBuff

; 777  : 		pBuff->Release( this );

  00013	8b 07		 mov	 eax, DWORD PTR [edi]
  00015	8b cf		 mov	 ecx, edi
  00017	56		 push	 esi
  00018	ff 50 28	 call	 DWORD PTR [eax+40]
$LN2@RemoveBuff:

; 778  : #ifdef __WORLDSERVER
; 779  : 	if( bFake )

  0001b	83 7d 0c 00	 cmp	 DWORD PTR _bFake$[ebp], 0
  0001f	74 0f		 je	 SHORT $LN3@RemoveBuff

; 780  : 	{
; 781  : 		pBuff->SetRemove();

  00021	c7 47 18 01 00
	00 00		 mov	 DWORD PTR [edi+24], 1
  00028	5f		 pop	 edi

; 793  : }

  00029	5e		 pop	 esi
  0002a	8b e5		 mov	 esp, ebp
  0002c	5d		 pop	 ebp
  0002d	c2 08 00	 ret	 8
$LN3@RemoveBuff:

; 782  : 		return;
; 783  : 	}
; 784  : 	g_UserMng.AddRemoveSkillInfluence( GetMover(), pBuff->GetType(), pBuff->GetId() );

  00030	0f b7 47 06	 movzx	 eax, WORD PTR [edi+6]
  00034	b9 00 00 00 00	 mov	 ecx, OFFSET ?g_UserMng@@3VCUserMng@@A ; g_UserMng
  00039	53		 push	 ebx
  0003a	50		 push	 eax
  0003b	0f b7 47 04	 movzx	 eax, WORD PTR [edi+4]
  0003f	50		 push	 eax
  00040	ff 76 0c	 push	 DWORD PTR [esi+12]
  00043	e8 00 00 00 00	 call	 ?AddRemoveSkillInfluence@CUserMng@@QAEXPAVCMover@@GG@Z ; CUserMng::AddRemoveSkillInfluence

; 786  : 	int nResult	= m_mapBuffs.erase( MAKELONG( pBuff->GetId(), pBuff->GetType() ) );

  00048	0f b7 5f 04	 movzx	 ebx, WORD PTR [edi+4]
  0004c	0f b7 47 06	 movzx	 eax, WORD PTR [edi+6]
; File C:\Program Files\Microsoft Visual Studio\2022\Professional\VC\Tools\MSVC\14.44.35207\include\xtree

; 1709 :         _Nodeptr _Pnode   = _Scary->_Myhead->_Parent;

  00050	8b 56 04	 mov	 edx, DWORD PTR [esi+4]

; 1711 :         _Nodeptr _Hinode  = _Scary->_Myhead; // end() if search fails

  00053	8b fa		 mov	 edi, edx
; File C:\IAGOS\server\v18\Source\Source\_Common\buff.cpp

; 786  : 	int nResult	= m_mapBuffs.erase( MAKELONG( pBuff->GetId(), pBuff->GetType() ) );

  00055	c1 e3 10	 shl	 ebx, 16			; 00000010H
  00058	0b d8		 or	 ebx, eax
; File C:\Program Files\Microsoft Visual Studio\2022\Professional\VC\Tools\MSVC\14.44.35207\include\xtree

; 1709 :         _Nodeptr _Pnode   = _Scary->_Myhead->_Parent;

  0005a	89 55 f4	 mov	 DWORD PTR tv828[ebp], edx
; File C:\IAGOS\server\v18\Source\Source\_Common\buff.cpp

; 786  : 	int nResult	= m_mapBuffs.erase( MAKELONG( pBuff->GetId(), pBuff->GetType() ) );

  0005d	8d 46 04	 lea	 eax, DWORD PTR [esi+4]
; File C:\Program Files\Microsoft Visual Studio\2022\Professional\VC\Tools\MSVC\14.44.35207\include\xtree

; 1710 :         _Nodeptr _Lonode  = _Scary->_Myhead; // end() if search fails

  00060	8b f2		 mov	 esi, edx
  00062	8b 4a 04	 mov	 ecx, DWORD PTR [edx+4]
; File C:\IAGOS\server\v18\Source\Source\_Common\buff.cpp

; 786  : 	int nResult	= m_mapBuffs.erase( MAKELONG( pBuff->GetId(), pBuff->GetType() ) );

  00065	89 45 0c	 mov	 DWORD PTR _this$1$[ebp], eax
; File C:\Program Files\Microsoft Visual Studio\2022\Professional\VC\Tools\MSVC\14.44.35207\include\xtree

; 1709 :         _Nodeptr _Pnode   = _Scary->_Myhead->_Parent;

  00068	8b c1		 mov	 eax, ecx

; 1712 : 
; 1713 :         while (!_Pnode->_Isnil) {

  0006a	80 78 0d 00	 cmp	 BYTE PTR [eax+13], 0
  0006e	75 21		 jne	 SHORT $LN14@RemoveBuff
$LL13@RemoveBuff:
; File C:\Program Files\Microsoft Visual Studio\2022\Professional\VC\Tools\MSVC\14.44.35207\include\type_traits

; 2380 :         return _Left < _Right;

  00070	8b 50 10	 mov	 edx, DWORD PTR [eax+16]
  00073	3b d3		 cmp	 edx, ebx
; File C:\Program Files\Microsoft Visual Studio\2022\Professional\VC\Tools\MSVC\14.44.35207\include\xtree

; 1715 :             if (_DEBUG_LT_PRED(_Comp, _Nodekey, _Keyval)) {

  00075	73 05		 jae	 SHORT $LN17@RemoveBuff

; 1716 :                 _Pnode = _Pnode->_Right; // descend right subtree

  00077	8b 40 08	 mov	 eax, DWORD PTR [eax+8]

; 1717 :             } else { // _Pnode not less than _Keyval, remember it

  0007a	eb 0f		 jmp	 SHORT $LN18@RemoveBuff
$LN17@RemoveBuff:

; 1718 :                 if (_Hinode->_Isnil && _DEBUG_LT_PRED(_Comp, _Keyval, _Nodekey)) {

  0007c	80 7f 0d 00	 cmp	 BYTE PTR [edi+13], 0
  00080	74 05		 je	 SHORT $LN19@RemoveBuff
; File C:\Program Files\Microsoft Visual Studio\2022\Professional\VC\Tools\MSVC\14.44.35207\include\type_traits

; 2380 :         return _Left < _Right;

  00082	3b da		 cmp	 ebx, edx
; File C:\Program Files\Microsoft Visual Studio\2022\Professional\VC\Tools\MSVC\14.44.35207\include\xtree

; 1718 :                 if (_Hinode->_Isnil && _DEBUG_LT_PRED(_Comp, _Keyval, _Nodekey)) {

  00084	0f 42 f8	 cmovb	 edi, eax
$LN19@RemoveBuff:

; 1719 :                     _Hinode = _Pnode; // _Pnode greater, remember it
; 1720 :                 }
; 1721 : 
; 1722 :                 _Lonode = _Pnode;

  00087	8b f0		 mov	 esi, eax

; 1723 :                 _Pnode  = _Pnode->_Left; // descend left subtree

  00089	8b 00		 mov	 eax, DWORD PTR [eax]
$LN18@RemoveBuff:

; 1712 : 
; 1713 :         while (!_Pnode->_Isnil) {

  0008b	80 78 0d 00	 cmp	 BYTE PTR [eax+13], 0
  0008f	74 df		 je	 SHORT $LL13@RemoveBuff
$LN14@RemoveBuff:

; 1724 :             }
; 1725 :         }
; 1726 : 
; 1727 :         _Pnode = _Hinode->_Isnil ? _Scary->_Myhead->_Parent : _Hinode->_Left; // continue scan for upper bound

  00091	80 7f 0d 00	 cmp	 BYTE PTR [edi+13], 0
  00095	75 02		 jne	 SHORT $LN24@RemoveBuff
  00097	8b 0f		 mov	 ecx, DWORD PTR [edi]
$LN24@RemoveBuff:

; 1728 :         while (!_Pnode->_Isnil) {

  00099	80 79 0d 00	 cmp	 BYTE PTR [ecx+13], 0
  0009d	75 15		 jne	 SHORT $LN16@RemoveBuff
  0009f	90		 npad	 1
$LL15@RemoveBuff:
; File C:\Program Files\Microsoft Visual Studio\2022\Professional\VC\Tools\MSVC\14.44.35207\include\type_traits

; 2380 :         return _Left < _Right;

  000a0	3b 59 10	 cmp	 ebx, DWORD PTR [ecx+16]
; File C:\Program Files\Microsoft Visual Studio\2022\Professional\VC\Tools\MSVC\14.44.35207\include\xtree

; 1729 :             if (_DEBUG_LT_PRED(_Getcomp(), _Keyval, _Traits::_Kfn(_Pnode->_Myval))) {

  000a3	73 06		 jae	 SHORT $LN20@RemoveBuff

; 1730 :                 // _Pnode greater than _Keyval, remember it
; 1731 :                 _Hinode = _Pnode;

  000a5	8b f9		 mov	 edi, ecx

; 1732 :                 _Pnode  = _Pnode->_Left; // descend left subtree

  000a7	8b 09		 mov	 ecx, DWORD PTR [ecx]

; 1733 :             } else {

  000a9	eb 03		 jmp	 SHORT $LN21@RemoveBuff
$LN20@RemoveBuff:

; 1734 :                 _Pnode = _Pnode->_Right; // descend right subtree

  000ab	8b 49 08	 mov	 ecx, DWORD PTR [ecx+8]
$LN21@RemoveBuff:

; 1728 :         while (!_Pnode->_Isnil) {

  000ae	80 79 0d 00	 cmp	 BYTE PTR [ecx+13], 0
  000b2	74 ec		 je	 SHORT $LL15@RemoveBuff
$LN16@RemoveBuff:
; File C:\Program Files\Microsoft Visual Studio\2022\Professional\VC\Tools\MSVC\14.44.35207\include\xutility

; 1667 :         _Iter_diff_t<_InIt> _Off = 0;

  000b4	33 db		 xor	 ebx, ebx
  000b6	8b c6		 mov	 eax, esi
  000b8	89 5d f8	 mov	 DWORD PTR __Off$1$[ebp], ebx
; File C:\Program Files\Microsoft Visual Studio\2022\Professional\VC\Tools\MSVC\14.44.35207\include\xtree

; 101  :         return !(*this == _Right);

  000bb	3b f7		 cmp	 esi, edi
; File C:\Program Files\Microsoft Visual Studio\2022\Professional\VC\Tools\MSVC\14.44.35207\include\xutility

; 1668 :         for (; _UFirst != _ULast; ++_UFirst) {

  000bd	74 45		 je	 SHORT $LN49@RemoveBuff
  000bf	90		 npad	 1
$LL50@RemoveBuff:
; File C:\Program Files\Microsoft Visual Studio\2022\Professional\VC\Tools\MSVC\14.44.35207\include\xtree

; 50   :         if (_Ptr->_Right->_Isnil) { // climb looking for right subtree

  000c0	8b 48 08	 mov	 ecx, DWORD PTR [eax+8]
; File C:\Program Files\Microsoft Visual Studio\2022\Professional\VC\Tools\MSVC\14.44.35207\include\xutility

; 1669 :             ++_Off;

  000c3	43		 inc	 ebx
; File C:\Program Files\Microsoft Visual Studio\2022\Professional\VC\Tools\MSVC\14.44.35207\include\xtree

; 50   :         if (_Ptr->_Right->_Isnil) { // climb looking for right subtree

  000c4	80 79 0d 00	 cmp	 BYTE PTR [ecx+13], 0
  000c8	74 1d		 je	 SHORT $LN55@RemoveBuff

; 51   :             _Nodeptr _Pnode;
; 52   :             while (!(_Pnode = _Ptr->_Parent)->_Isnil && _Ptr == _Pnode->_Right) {

  000ca	8b 48 04	 mov	 ecx, DWORD PTR [eax+4]
  000cd	80 79 0d 00	 cmp	 BYTE PTR [ecx+13], 0
  000d1	75 10		 jne	 SHORT $LN150@RemoveBuff
$LL53@RemoveBuff:
  000d3	3b 41 08	 cmp	 eax, DWORD PTR [ecx+8]
  000d6	75 0b		 jne	 SHORT $LN150@RemoveBuff

; 53   :                 _Ptr = _Pnode; // ==> parent while right subtree

  000d8	8b c1		 mov	 eax, ecx
  000da	8b 49 04	 mov	 ecx, DWORD PTR [ecx+4]
  000dd	80 79 0d 00	 cmp	 BYTE PTR [ecx+13], 0
  000e1	74 f0		 je	 SHORT $LL53@RemoveBuff
$LN150@RemoveBuff:

; 54   :             }
; 55   : 
; 56   :             _Ptr = _Pnode; // ==> parent (head if end())

  000e3	8b c1		 mov	 eax, ecx

; 57   :         } else {

  000e5	eb 16		 jmp	 SHORT $LN61@RemoveBuff
$LN55@RemoveBuff:

; 58   :             _Ptr = _Mytree::_Min(_Ptr->_Right); // ==> smallest of right subtree

  000e7	8b c1		 mov	 eax, ecx

; 476  :         while (!_Pnode->_Left->_Isnil) {

  000e9	8b 10		 mov	 edx, DWORD PTR [eax]
  000eb	80 7a 0d 00	 cmp	 BYTE PTR [edx+13], 0
  000ef	75 0c		 jne	 SHORT $LN61@RemoveBuff
$LL60@RemoveBuff:
  000f1	8b 0a		 mov	 ecx, DWORD PTR [edx]

; 477  :             _Pnode = _Pnode->_Left;

  000f3	8b c2		 mov	 eax, edx
  000f5	8b d1		 mov	 edx, ecx
  000f7	80 79 0d 00	 cmp	 BYTE PTR [ecx+13], 0
  000fb	74 f4		 je	 SHORT $LL60@RemoveBuff
$LN61@RemoveBuff:

; 101  :         return !(*this == _Right);

  000fd	3b c7		 cmp	 eax, edi
; File C:\Program Files\Microsoft Visual Studio\2022\Professional\VC\Tools\MSVC\14.44.35207\include\xutility

; 1668 :         for (; _UFirst != _ULast; ++_UFirst) {

  000ff	75 bf		 jne	 SHORT $LL50@RemoveBuff
  00101	89 5d f8	 mov	 DWORD PTR __Off$1$[ebp], ebx
$LN49@RemoveBuff:
; File C:\Program Files\Microsoft Visual Studio\2022\Professional\VC\Tools\MSVC\14.44.35207\include\xtree

; 96   :         return _Ptr == _Right._Ptr;

  00104	8b 45 f4	 mov	 eax, DWORD PTR tv828[ebp]

; 1329 :         _Erase_unchecked(_First, _Last);

  00107	89 75 fc	 mov	 DWORD PTR __First$[ebp], esi

; 96   :         return _Ptr == _Right._Ptr;

  0010a	3b 30		 cmp	 esi, DWORD PTR [eax]

; 1311 :         if (_First == _Begin && _Last._Ptr->_Isnil) {

  0010c	75 10		 jne	 SHORT $LN131@RemoveBuff
  0010e	80 7f 0d 00	 cmp	 BYTE PTR [edi+13], 0
  00112	74 0a		 je	 SHORT $LN131@RemoveBuff

; 1312 :             // erase all
; 1313 :             clear();

  00114	8b 4d 0c	 mov	 ecx, DWORD PTR _this$1$[ebp]
  00117	e8 00 00 00 00	 call	 ?clear@?$_Tree@V?$_Tmap_traits@KPAVIBuff@@U?$less@K@std@@V?$allocator@U?$pair@$$CBKPAVIBuff@@@std@@@3@$0A@@std@@@std@@QAEXXZ ; std::_Tree<std::_Tmap_traits<unsigned long,IBuff *,std::less<unsigned long>,std::allocator<std::pair<unsigned long const ,IBuff *> >,0> >::clear

; 1314 :             return _Last._Ptr;

  0011c	eb 2c		 jmp	 SHORT $LN137@RemoveBuff
$LN131@RemoveBuff:

; 101  :         return !(*this == _Right);

  0011e	3b f7		 cmp	 esi, edi

; 1318 :         while (_First != _Last) {

  00120	74 28		 je	 SHORT $LN137@RemoveBuff
  00122	8b 5d 0c	 mov	 ebx, DWORD PTR _this$1$[ebp]
$LL71@RemoveBuff:

; 66   :         ++*this;

  00125	8d 4d fc	 lea	 ecx, DWORD PTR __First$[ebp]
  00128	e8 00 00 00 00	 call	 ??E?$_Tree_unchecked_const_iterator@V?$_Tree_val@U?$_Tree_simple_types@U?$pair@$$CBKPAVIBuff@@@std@@@std@@@std@@U_Iterator_base0@2@@std@@QAEAAV01@XZ ; std::_Tree_unchecked_const_iterator<std::_Tree_val<std::_Tree_simple_types<std::pair<unsigned long const ,IBuff *> > >,std::_Iterator_base0>::operator++

; 1303 :         _Nodeptr _Erasednode = _Scary->_Extract(_Where); // node to erase

  0012d	56		 push	 esi
  0012e	8b cb		 mov	 ecx, ebx
  00130	e8 00 00 00 00	 call	 ?_Extract@?$_Tree_val@U?$_Tree_simple_types@U?$pair@$$CBKPAVIBuff@@@std@@@std@@@std@@QAEPAU?$_Tree_node@U?$pair@$$CBKPAVIBuff@@@std@@PAX@2@V?$_Tree_unchecked_const_iterator@V?$_Tree_val@U?$_Tree_simple_types@U?$pair@$$CBKPAVIBuff@@@std@@@std@@@std@@U_Iterator_base0@2@@2@@Z ; std::_Tree_val<std::_Tree_simple_types<std::pair<unsigned long const ,IBuff *> > >::_Extract
; File C:\Program Files\Microsoft Visual Studio\2022\Professional\VC\Tools\MSVC\14.44.35207\include\xmemory

; 289  :         ::operator delete(_Ptr, _Bytes);

  00135	6a 18		 push	 24			; 00000018H
  00137	50		 push	 eax
  00138	e8 00 00 00 00	 call	 ??3@YAXPAXI@Z		; operator delete
; File C:\Program Files\Microsoft Visual Studio\2022\Professional\VC\Tools\MSVC\14.44.35207\include\xtree

; 101  :         return !(*this == _Right);

  0013d	8b 75 fc	 mov	 esi, DWORD PTR __First$[ebp]
; File C:\Program Files\Microsoft Visual Studio\2022\Professional\VC\Tools\MSVC\14.44.35207\include\xmemory

; 289  :         ::operator delete(_Ptr, _Bytes);

  00140	83 c4 08	 add	 esp, 8
; File C:\Program Files\Microsoft Visual Studio\2022\Professional\VC\Tools\MSVC\14.44.35207\include\xtree

; 101  :         return !(*this == _Right);

  00143	3b f7		 cmp	 esi, edi

; 1318 :         while (_First != _Last) {

  00145	75 de		 jne	 SHORT $LL71@RemoveBuff
  00147	8b 5d f8	 mov	 ebx, DWORD PTR __Off$1$[ebp]
$LN137@RemoveBuff:
; File C:\IAGOS\server\v18\Source\Source\_Common\buff.cpp

; 787  : 	if( !nResult )

  0014a	8b 4d 08	 mov	 ecx, DWORD PTR _pBuff$[ebp]
  0014d	85 db		 test	 ebx, ebx
  0014f	5b		 pop	 ebx
  00150	75 1f		 jne	 SHORT $LN4@RemoveBuff

; 788  : 	{
; 789  : 		Error( "CBuffMgr.RemoveBuff: could not erase(type: %d, id: %d)", pBuff->GetType(), pBuff->GetId() );

  00152	0f b7 41 06	 movzx	 eax, WORD PTR [ecx+6]
  00156	50		 push	 eax
  00157	0f b7 41 04	 movzx	 eax, WORD PTR [ecx+4]
  0015b	50		 push	 eax
  0015c	68 00 00 00 00	 push	 OFFSET ??_C@_0DH@HIFEKJCC@CBuffMgr?4RemoveBuff?3?5could?5not?5@
  00161	e8 00 00 00 00	 call	 ?Error@@YAPBDPBDZZ	; Error
  00166	83 c4 0c	 add	 esp, 12			; 0000000cH
  00169	5f		 pop	 edi

; 793  : }

  0016a	5e		 pop	 esi
  0016b	8b e5		 mov	 esp, ebp
  0016d	5d		 pop	 ebp
  0016e	c2 08 00	 ret	 8
$LN4@RemoveBuff:

; 790  : 		return;
; 791  : 	}
; 792  : 	SAFE_DELETE( pBuff );

  00171	8b 01		 mov	 eax, DWORD PTR [ecx]
  00173	6a 01		 push	 1
  00175	ff 10		 call	 DWORD PTR [eax]
  00177	5f		 pop	 edi

; 793  : }

  00178	5e		 pop	 esi
  00179	8b e5		 mov	 esp, ebp
  0017b	5d		 pop	 ebp
  0017c	c2 08 00	 ret	 8
?RemoveBuff@CBuffMgr@@QAEXPAVIBuff@@H@Z ENDP		; CBuffMgr::RemoveBuff
_TEXT	ENDS
; Function compile flags: /Ogtp
; File C:\IAGOS\server\v18\Source\Source\_Common\buff.cpp
;	COMDAT ?HasBuff@CBuffMgr@@QAEHGG@Z
_TEXT	SEGMENT
_wType$ = 8						; size = 2
_wId$ = 12						; size = 2
?HasBuff@CBuffMgr@@QAEHGG@Z PROC			; CBuffMgr::HasBuff, COMDAT
; _this$ = ecx

; 711  : {

  00000	55		 push	 ebp
  00001	8b ec		 mov	 ebp, esp

; 712  : 	return GetBuff( wType, wId ) != NULL;

  00003	ff 75 0c	 push	 DWORD PTR _wId$[ebp]
  00006	ff 75 08	 push	 DWORD PTR _wType$[ebp]
  00009	e8 00 00 00 00	 call	 ?GetBuff@CBuffMgr@@QAEPAVIBuff@@GG@Z ; CBuffMgr::GetBuff
  0000e	f7 d8		 neg	 eax
  00010	1b c0		 sbb	 eax, eax
  00012	f7 d8		 neg	 eax

; 713  : }

  00014	5d		 pop	 ebp
  00015	c2 08 00	 ret	 8
?HasBuff@CBuffMgr@@QAEHGG@Z ENDP			; CBuffMgr::HasBuff
_TEXT	ENDS
; Function compile flags: /Ogtp
; File C:\IAGOS\server\v18\Source\Source\_Common\buff.cpp
; File C:\Program Files\Microsoft Visual Studio\2022\Professional\VC\Tools\MSVC\14.44.35207\include\vector
; File C:\Program Files\Microsoft Visual Studio\2022\Professional\VC\Tools\MSVC\14.44.35207\include\xtree
; File C:\IAGOS\server\v18\Source\Source\_Common\buff.cpp
; File C:\Program Files\Microsoft Visual Studio\2022\Professional\VC\Tools\MSVC\14.44.35207\include\xtree
; File C:\IAGOS\server\v18\Source\Source\_Common\buff.cpp
; File C:\IAGOS\server\v18\Source\Source\_Common\buff.h
; File C:\IAGOS\server\v18\Source\Source\_Common\buff.cpp
; File C:\Program Files\Microsoft Visual Studio\2022\Professional\VC\Tools\MSVC\14.44.35207\include\vector
; File C:\IAGOS\server\v18\Source\Source\_Common\buff.cpp
; File C:\Program Files\Microsoft Visual Studio\2022\Professional\VC\Tools\MSVC\14.44.35207\include\vector
; File C:\Program Files\Microsoft Visual Studio\2022\Professional\VC\Tools\MSVC\14.44.35207\include\xtree
; File C:\IAGOS\server\v18\Source\Source\_Common\buff.cpp
; File C:\Program Files\Microsoft Visual Studio\2022\Professional\VC\Tools\MSVC\14.44.35207\include\vector
; File C:\IAGOS\server\v18\Source\Source\_Common\buff.cpp
; File C:\Program Files\Microsoft Visual Studio\2022\Professional\VC\Tools\MSVC\14.44.35207\include\vector
; File C:\IAGOS\server\v18\Source\Source\_Common\buff.cpp
;	COMDAT ?Process@CBuffMgr@@QAEXXZ
_TEXT	SEGMENT
_vTemp$ = -32						; size = 12
$T2 = -20						; size = 4
_pBuff$1$ = -20						; size = 4
_i$3 = -16						; size = 4
__$EHRec$ = -12						; size = 12
?Process@CBuffMgr@@QAEXXZ PROC				; CBuffMgr::Process, COMDAT
; _this$ = ecx

; 842  : {

  00000	55		 push	 ebp
  00001	8b ec		 mov	 ebp, esp
  00003	6a ff		 push	 -1
  00005	68 00 00 00 00	 push	 __ehhandler$?Process@CBuffMgr@@QAEXXZ
  0000a	64 a1 00 00 00
	00		 mov	 eax, DWORD PTR fs:0
  00010	50		 push	 eax
  00011	83 ec 14	 sub	 esp, 20			; 00000014H
  00014	53		 push	 ebx
  00015	56		 push	 esi
  00016	57		 push	 edi
  00017	a1 00 00 00 00	 mov	 eax, DWORD PTR ___security_cookie
  0001c	33 c5		 xor	 eax, ebp
  0001e	50		 push	 eax
  0001f	8d 45 f4	 lea	 eax, DWORD PTR __$EHRec$[ebp]
  00022	64 a3 00 00 00
	00		 mov	 DWORD PTR fs:0, eax
  00028	8b d9		 mov	 ebx, ecx
; File C:\Program Files\Microsoft Visual Studio\2022\Professional\VC\Tools\MSVC\14.44.35207\include\vector

; 400  :     _CONSTEXPR20 _Vector_val() noexcept : _Myfirst(), _Mylast(), _Myend() {}

  0002a	33 d2		 xor	 edx, edx
  0002c	33 f6		 xor	 esi, esi
  0002e	89 55 e0	 mov	 DWORD PTR _vTemp$[ebp], edx
  00031	89 75 e4	 mov	 DWORD PTR _vTemp$[ebp+4], esi
  00034	89 55 e8	 mov	 DWORD PTR _vTemp$[ebp+8], edx
; File C:\Program Files\Microsoft Visual Studio\2022\Professional\VC\Tools\MSVC\14.44.35207\include\xtree

; 1142 :         return iterator(_Scary->_Myhead->_Left, _Scary);

  00037	8b 4b 04	 mov	 ecx, DWORD PTR [ebx+4]
; File C:\IAGOS\server\v18\Source\Source\_Common\buff.cpp

; 843  : 	vector<LONG> vTemp;

  0003a	89 75 fc	 mov	 DWORD PTR __$EHRec$[ebp+8], esi
; File C:\Program Files\Microsoft Visual Studio\2022\Professional\VC\Tools\MSVC\14.44.35207\include\xtree

; 37   :     _Tree_unchecked_const_iterator(_Nodeptr _Pnode, const _Mytree* _Plist) noexcept : _Ptr(_Pnode) {

  0003d	8b 01		 mov	 eax, DWORD PTR [ecx]
  0003f	89 45 f0	 mov	 DWORD PTR _i$3[ebp], eax

; 237  :         return !(*this == _Right);

  00042	3b c1		 cmp	 eax, ecx
; File C:\IAGOS\server\v18\Source\Source\_Common\buff.cpp

; 844  : 	for( MAPBUFF::iterator i = m_mapBuffs.begin(); i != m_mapBuffs.end(); ++i )

  00044	74 68		 je	 SHORT $LN83@Process
$LL4@Process:

; 846  : 		IBuff* pBuff	= i->second;

  00046	8b 40 14	 mov	 eax, DWORD PTR [eax+20]

; 847  : 		BOOL bExpired	= pBuff->Process( GetMover(), this->GetCurrentTime() );

  00049	8b cb		 mov	 ecx, ebx
; File C:\IAGOS\server\v18\Source\Source\_Common\buff.h

; 204  : 	CMover*	GetMover()	{	return const_cast<CMover*>( m_pMover );	}

  0004b	8b 73 0c	 mov	 esi, DWORD PTR [ebx+12]
; File C:\IAGOS\server\v18\Source\Source\_Common\buff.cpp

; 846  : 		IBuff* pBuff	= i->second;

  0004e	89 45 ec	 mov	 DWORD PTR _pBuff$1$[ebp], eax

; 847  : 		BOOL bExpired	= pBuff->Process( GetMover(), this->GetCurrentTime() );

  00051	8b 38		 mov	 edi, DWORD PTR [eax]
  00053	8b 03		 mov	 eax, DWORD PTR [ebx]
  00055	ff 50 08	 call	 DWORD PTR [eax+8]
  00058	50		 push	 eax
  00059	56		 push	 esi
  0005a	8b 75 ec	 mov	 esi, DWORD PTR _pBuff$1$[ebp]
  0005d	8b ce		 mov	 ecx, esi
  0005f	ff 57 10	 call	 DWORD PTR [edi+16]

; 848  : 		if( bExpired )

  00062	85 c0		 test	 eax, eax
  00064	74 32		 je	 SHORT $LN90@Process

; 849  : 			vTemp.push_back( MAKELONG( pBuff->GetId(), pBuff->GetType() ) );

  00066	0f b7 4e 04	 movzx	 ecx, WORD PTR [esi+4]
  0006a	0f b7 46 06	 movzx	 eax, WORD PTR [esi+6]
  0006e	c1 e1 10	 shl	 ecx, 16			; 00000010H
  00071	0b c8		 or	 ecx, eax
; File C:\Program Files\Microsoft Visual Studio\2022\Professional\VC\Tools\MSVC\14.44.35207\include\vector

; 844  :         if (_Mylast != _My_data._Myend) {

  00073	8b 45 e4	 mov	 eax, DWORD PTR _vTemp$[ebp+4]
; File C:\IAGOS\server\v18\Source\Source\_Common\buff.cpp

; 849  : 			vTemp.push_back( MAKELONG( pBuff->GetId(), pBuff->GetType() ) );

  00076	89 4d ec	 mov	 DWORD PTR $T2[ebp], ecx
; File C:\Program Files\Microsoft Visual Studio\2022\Professional\VC\Tools\MSVC\14.44.35207\include\vector

; 844  :         if (_Mylast != _My_data._Myend) {

  00079	3b 45 e8	 cmp	 eax, DWORD PTR _vTemp$[ebp+8]
  0007c	74 0d		 je	 SHORT $LN57@Process

; 860  :             _STD _Construct_in_place(*_Mylast, _STD forward<_Valty>(_Val)...);

  0007e	89 08		 mov	 DWORD PTR [eax], ecx

; 861  :         } else {
; 862  :             _ASAN_VECTOR_EXTEND_GUARD(static_cast<size_type>(_Mylast - _My_data._Myfirst) + 1);
; 863  :             _Alty_traits::construct(_Getal(), _Unfancy(_Mylast), _STD forward<_Valty>(_Val)...);
; 864  :             _ASAN_VECTOR_RELEASE_GUARD;
; 865  :         }
; 866  : 
; 867  :         _Orphan_range(_Mylast, _Mylast);
; 868  :         _Ty& _Result = *_Mylast;
; 869  :         ++_Mylast;

  00080	8b 75 e4	 mov	 esi, DWORD PTR _vTemp$[ebp+4]
  00083	83 c6 04	 add	 esi, 4
  00086	89 75 e4	 mov	 DWORD PTR _vTemp$[ebp+4], esi

; 845  :             return _Emplace_back_with_unused_capacity(_STD forward<_Valty>(_Val)...);

  00089	eb 10		 jmp	 SHORT $LN2@Process
$LN57@Process:

; 846  :         }
; 847  : 
; 848  :         return *_Emplace_reallocate(_Mylast, _STD forward<_Valty>(_Val)...);

  0008b	8d 4d ec	 lea	 ecx, DWORD PTR $T2[ebp]
  0008e	51		 push	 ecx
  0008f	50		 push	 eax
  00090	8d 4d e0	 lea	 ecx, DWORD PTR _vTemp$[ebp]
  00093	e8 00 00 00 00	 call	 ??$_Emplace_reallocate@J@?$vector@JV?$allocator@J@std@@@std@@AAEPAJQAJ$$QAJ@Z ; std::vector<long,std::allocator<long> >::_Emplace_reallocate<long>
$LN90@Process:
; File C:\Program Files\Microsoft Visual Studio\2022\Professional\VC\Tools\MSVC\14.44.35207\include\xtree

; 198  :         _Mybase::operator++();

  00098	8b 75 e4	 mov	 esi, DWORD PTR _vTemp$[ebp+4]
$LN2@Process:
  0009b	8d 4d f0	 lea	 ecx, DWORD PTR _i$3[ebp]
  0009e	e8 00 00 00 00	 call	 ??E?$_Tree_unchecked_const_iterator@V?$_Tree_val@U?$_Tree_simple_types@U?$pair@$$CBKPAVIBuff@@@std@@@std@@@std@@U_Iterator_base0@2@@std@@QAEAAV01@XZ ; std::_Tree_unchecked_const_iterator<std::_Tree_val<std::_Tree_simple_types<std::pair<unsigned long const ,IBuff *> > >,std::_Iterator_base0>::operator++

; 237  :         return !(*this == _Right);

  000a3	8b 45 f0	 mov	 eax, DWORD PTR _i$3[ebp]
  000a6	3b 43 04	 cmp	 eax, DWORD PTR [ebx+4]
; File C:\IAGOS\server\v18\Source\Source\_Common\buff.cpp

; 844  : 	for( MAPBUFF::iterator i = m_mapBuffs.begin(); i != m_mapBuffs.end(); ++i )

  000a9	75 9b		 jne	 SHORT $LL4@Process
  000ab	8b 55 e0	 mov	 edx, DWORD PTR _vTemp$[ebp]
$LN83@Process:
; File C:\Program Files\Microsoft Visual Studio\2022\Professional\VC\Tools\MSVC\14.44.35207\include\vector

; 1910 :         return _My_data._Myfirst == _My_data._Mylast;

  000ae	3b d6		 cmp	 edx, esi
; File C:\IAGOS\server\v18\Source\Source\_Common\buff.cpp

; 851  : 	while( !vTemp.empty() )

  000b0	74 1f		 je	 SHORT $LN6@Process
$LL5@Process:

; 852  : 	{
; 853  : 		LONG l	= vTemp.back();

  000b2	8b 46 fc	 mov	 eax, DWORD PTR [esi-4]

; 854  : 		RemoveBuff( HIWORD( l ), LOWORD( l ), FALSE );

  000b5	8b cb		 mov	 ecx, ebx
  000b7	6a 00		 push	 0
  000b9	50		 push	 eax
  000ba	c1 e8 10	 shr	 eax, 16			; 00000010H
  000bd	50		 push	 eax
  000be	e8 00 00 00 00	 call	 ?RemoveBuff@CBuffMgr@@QAEXGGH@Z ; CBuffMgr::RemoveBuff
; File C:\Program Files\Microsoft Visual Studio\2022\Professional\VC\Tools\MSVC\14.44.35207\include\vector

; 1759 :         --_Mylast;

  000c3	8b 75 e4	 mov	 esi, DWORD PTR _vTemp$[ebp+4]
  000c6	83 ee 04	 sub	 esi, 4
  000c9	89 75 e4	 mov	 DWORD PTR _vTemp$[ebp+4], esi
  000cc	39 75 e0	 cmp	 DWORD PTR _vTemp$[ebp], esi
; File C:\IAGOS\server\v18\Source\Source\_Common\buff.cpp

; 851  : 	while( !vTemp.empty() )

  000cf	75 e1		 jne	 SHORT $LL5@Process
$LN6@Process:

; 855  : 		vTemp.pop_back();
; 856  : 	}
; 857  : }

  000d1	8d 4d e0	 lea	 ecx, DWORD PTR _vTemp$[ebp]
  000d4	e8 00 00 00 00	 call	 ??1?$vector@JV?$allocator@J@std@@@std@@QAE@XZ ; std::vector<long,std::allocator<long> >::~vector<long,std::allocator<long> >
  000d9	8b 4d f4	 mov	 ecx, DWORD PTR __$EHRec$[ebp]
  000dc	64 89 0d 00 00
	00 00		 mov	 DWORD PTR fs:0, ecx
  000e3	59		 pop	 ecx
  000e4	5f		 pop	 edi
  000e5	5e		 pop	 esi
  000e6	5b		 pop	 ebx
  000e7	8b e5		 mov	 esp, ebp
  000e9	5d		 pop	 ebp
  000ea	c3		 ret	 0
_TEXT	ENDS
;	COMDAT text$x
text$x	SEGMENT
__unwindfunclet$?Process@CBuffMgr@@QAEXXZ$0:
  00000	8d 4d e0	 lea	 ecx, DWORD PTR _vTemp$[ebp]
  00003	e9 00 00 00 00	 jmp	 ??1?$vector@JV?$allocator@J@std@@@std@@QAE@XZ ; std::vector<long,std::allocator<long> >::~vector<long,std::allocator<long> >
  00008	cc		 int	 3
  00009	cc		 int	 3
  0000a	cc		 int	 3
  0000b	cc		 int	 3
  0000c	cc		 int	 3
__ehhandler$?Process@CBuffMgr@@QAEXXZ:
  0000d	90		 npad	 1
  0000e	90		 npad	 1
  0000f	8b 54 24 08	 mov	 edx, DWORD PTR [esp+8]
  00013	8d 42 0c	 lea	 eax, DWORD PTR [edx+12]
  00016	8b 4a dc	 mov	 ecx, DWORD PTR [edx-36]
  00019	33 c8		 xor	 ecx, eax
  0001b	e8 00 00 00 00	 call	 @__security_check_cookie@4
  00020	b8 00 00 00 00	 mov	 eax, OFFSET __ehfuncinfo$?Process@CBuffMgr@@QAEXXZ
  00025	e9 00 00 00 00	 jmp	 ___CxxFrameHandler3
text$x	ENDS
?Process@CBuffMgr@@QAEXXZ ENDP				; CBuffMgr::Process
; Function compile flags: /Ogtp
; File C:\IAGOS\server\v18\Source\Source\_Common\buff.h
; File C:\Program Files\Microsoft Visual Studio\2022\Professional\VC\Tools\MSVC\14.44.35207\include\xtree
; File C:\Program Files\Microsoft Visual Studio\2022\Professional\VC\Tools\MSVC\14.44.35207\include\utility
; File C:\IAGOS\server\v18\Source\Source\_Common\buff.h
; File C:\Program Files\Microsoft Visual Studio\2022\Professional\VC\Tools\MSVC\14.44.35207\include\xtree
; File C:\Program Files\Microsoft Visual Studio\2022\Professional\VC\Tools\MSVC\14.44.35207\include\utility
; File C:\Program Files\Microsoft Visual Studio\2022\Professional\VC\Tools\MSVC\14.44.35207\include\xtree
; File C:\Program Files\Microsoft Visual Studio\2022\Professional\VC\Tools\MSVC\14.44.35207\include\type_traits
; File C:\Program Files\Microsoft Visual Studio\2022\Professional\VC\Tools\MSVC\14.44.35207\include\xtree
; File C:\Program Files\Microsoft Visual Studio\2022\Professional\VC\Tools\MSVC\14.44.35207\include\utility
; File C:\IAGOS\server\v18\Source\Source\_Common\buff.h
; File C:\Program Files\Microsoft Visual Studio\2022\Professional\VC\Tools\MSVC\14.44.35207\include\xtree
; File C:\Program Files\Microsoft Visual Studio\2022\Professional\VC\Tools\MSVC\14.44.35207\include\xmemory
; File C:\Program Files\Microsoft Visual Studio\2022\Professional\VC\Tools\MSVC\14.44.35207\include\xtree
; File C:\Program Files\Microsoft Visual Studio\2022\Professional\VC\Tools\MSVC\14.44.35207\include\xmemory
; File C:\Program Files\Microsoft Visual Studio\2022\Professional\VC\Tools\MSVC\14.44.35207\include\xtree
; File C:\Program Files\Microsoft Visual Studio\2022\Professional\VC\Tools\MSVC\14.44.35207\include\xmemory
; File C:\Program Files\Microsoft Visual Studio\2022\Professional\VC\Tools\MSVC\14.44.35207\include\xtree
; File C:\Program Files\Microsoft Visual Studio\2022\Professional\VC\Tools\MSVC\14.44.35207\include\utility
; File C:\IAGOS\server\v18\Source\Source\_Common\buff.h
; File C:\Program Files\Microsoft Visual Studio\2022\Professional\VC\Tools\MSVC\14.44.35207\include\xtree
; File C:\IAGOS\server\v18\Source\Source\_Common\buff.h
;	COMDAT ?Add@CBuffMgr@@AAE_NPAVIBuff@@@Z
_TEXT	SEGMENT
$T3 = -44						; size = 12
__Loc$4 = -32						; size = 12
$T5 = -20						; size = 8
$T6 = -20						; size = 8
__$EHRec$ = -12						; size = 12
_pBuff$ = 8						; size = 4
?Add@CBuffMgr@@AAE_NPAVIBuff@@@Z PROC			; CBuffMgr::Add, COMDAT
; _this$ = ecx

; 215  : 	bool	Add( IBuff* pBuff )	{	return m_mapBuffs.insert( MAPBUFF::value_type( MAKELONG( pBuff->GetId(), pBuff->GetType() ), pBuff ) ).second;	}

  00000	55		 push	 ebp
  00001	8b ec		 mov	 ebp, esp
  00003	6a ff		 push	 -1
  00005	68 00 00 00 00	 push	 __ehhandler$?Add@CBuffMgr@@AAE_NPAVIBuff@@@Z
  0000a	64 a1 00 00 00
	00		 mov	 eax, DWORD PTR fs:0
  00010	50		 push	 eax
  00011	83 ec 20	 sub	 esp, 32			; 00000020H
  00014	53		 push	 ebx
  00015	56		 push	 esi
  00016	57		 push	 edi
  00017	a1 00 00 00 00	 mov	 eax, DWORD PTR ___security_cookie
  0001c	33 c5		 xor	 eax, ebp
  0001e	50		 push	 eax
  0001f	8d 45 f4	 lea	 eax, DWORD PTR __$EHRec$[ebp]
  00022	64 a3 00 00 00
	00		 mov	 DWORD PTR fs:0, eax
  00028	8b 55 08	 mov	 edx, DWORD PTR _pBuff$[ebp]
  0002b	8d 79 04	 lea	 edi, DWORD PTR [ecx+4]
; File C:\Program Files\Microsoft Visual Studio\2022\Professional\VC\Tools\MSVC\14.44.35207\include\xtree

; 1017 :             _Loc                = _Find_lower_bound(_Keyval);

  0002e	8b cf		 mov	 ecx, edi
; File C:\Program Files\Microsoft Visual Studio\2022\Professional\VC\Tools\MSVC\14.44.35207\include\utility

; 274  :         : first(_STD forward<_Other1>(_Val1)), second(_STD forward<_Other2>(_Val2)) {

  00030	89 55 f0	 mov	 DWORD PTR $T5[ebp+4], edx
; File C:\IAGOS\server\v18\Source\Source\_Common\buff.h

; 215  : 	bool	Add( IBuff* pBuff )	{	return m_mapBuffs.insert( MAPBUFF::value_type( MAKELONG( pBuff->GetId(), pBuff->GetType() ), pBuff ) ).second;	}

  00033	0f b7 5a 04	 movzx	 ebx, WORD PTR [edx+4]
  00037	0f b7 42 06	 movzx	 eax, WORD PTR [edx+6]
  0003b	c1 e3 10	 shl	 ebx, 16			; 00000010H
  0003e	0b d8		 or	 ebx, eax
; File C:\Program Files\Microsoft Visual Studio\2022\Professional\VC\Tools\MSVC\14.44.35207\include\xtree

; 1017 :             _Loc                = _Find_lower_bound(_Keyval);

  00040	8d 45 ec	 lea	 eax, DWORD PTR $T5[ebp]
  00043	50		 push	 eax
  00044	8d 45 d4	 lea	 eax, DWORD PTR $T3[ebp]
; File C:\Program Files\Microsoft Visual Studio\2022\Professional\VC\Tools\MSVC\14.44.35207\include\utility

; 274  :         : first(_STD forward<_Other1>(_Val1)), second(_STD forward<_Other2>(_Val2)) {

  00047	89 5d ec	 mov	 DWORD PTR $T5[ebp], ebx
; File C:\Program Files\Microsoft Visual Studio\2022\Professional\VC\Tools\MSVC\14.44.35207\include\xtree

; 1017 :             _Loc                = _Find_lower_bound(_Keyval);

  0004a	50		 push	 eax
  0004b	e8 00 00 00 00	 call	 ??$_Find_lower_bound@K@?$_Tree@V?$_Tmap_traits@KPAVIBuff@@U?$less@K@std@@V?$allocator@U?$pair@$$CBKPAVIBuff@@@std@@@3@$0A@@std@@@std@@IBE?AU?$_Tree_find_result@PAU?$_Tree_node@U?$pair@$$CBKPAVIBuff@@@std@@PAX@std@@@1@ABK@Z ; std::_Tree<std::_Tmap_traits<unsigned long,IBuff *,std::less<unsigned long>,std::allocator<std::pair<unsigned long const ,IBuff *> >,0> >::_Find_lower_bound<unsigned long>
  00050	f3 0f 7e 00	 movq	 xmm0, QWORD PTR [eax]
  00054	8b 40 08	 mov	 eax, DWORD PTR [eax+8]
  00057	66 0f d6 45 e0	 movq	 QWORD PTR __Loc$4[ebp], xmm0

; 1624 :         return !_Bound->_Isnil && !_DEBUG_LT_PRED(_Getcomp(), _Keyval, _Traits::_Kfn(_Bound->_Myval));

  0005c	80 78 0d 00	 cmp	 BYTE PTR [eax+13], 0
  00060	75 1b		 jne	 SHORT $LN9@Add
; File C:\Program Files\Microsoft Visual Studio\2022\Professional\VC\Tools\MSVC\14.44.35207\include\type_traits

; 2380 :         return _Left < _Right;

  00062	3b 58 10	 cmp	 ebx, DWORD PTR [eax+16]
; File C:\Program Files\Microsoft Visual Studio\2022\Professional\VC\Tools\MSVC\14.44.35207\include\xtree

; 1624 :         return !_Bound->_Isnil && !_DEBUG_LT_PRED(_Getcomp(), _Keyval, _Traits::_Kfn(_Bound->_Myval));

  00065	72 16		 jb	 SHORT $LN9@Add
; File C:\Program Files\Microsoft Visual Studio\2022\Professional\VC\Tools\MSVC\14.44.35207\include\utility

; 274  :         : first(_STD forward<_Other1>(_Val1)), second(_STD forward<_Other2>(_Val2)) {

  00067	32 c0		 xor	 al, al
; File C:\IAGOS\server\v18\Source\Source\_Common\buff.h

; 215  : 	bool	Add( IBuff* pBuff )	{	return m_mapBuffs.insert( MAPBUFF::value_type( MAKELONG( pBuff->GetId(), pBuff->GetType() ), pBuff ) ).second;	}

  00069	8b 4d f4	 mov	 ecx, DWORD PTR __$EHRec$[ebp]
  0006c	64 89 0d 00 00
	00 00		 mov	 DWORD PTR fs:0, ecx
  00073	59		 pop	 ecx
  00074	5f		 pop	 edi
  00075	5e		 pop	 esi
  00076	5b		 pop	 ebx
  00077	8b e5		 mov	 esp, ebp
  00079	5d		 pop	 ebp
  0007a	c2 04 00	 ret	 4
$LN9@Add:
; File C:\Program Files\Microsoft Visual Studio\2022\Professional\VC\Tools\MSVC\14.44.35207\include\xtree

; 1648 :         if (max_size() == _Get_scary()->_Mysize) {

  0007d	81 7f 04 aa aa
	aa 0a		 cmp	 DWORD PTR [edi+4], 178956970 ; 0aaaaaaaH
  00084	74 58		 je	 SHORT $LN109@Add

; 1023 :             _Inserted = _Tree_temp_node<_Alnode>(_Getal(), _Scary->_Myhead, _STD forward<_Valtys>(_Vals)...)._Release();

  00086	8b 37		 mov	 esi, DWORD PTR [edi]
; File C:\Program Files\Microsoft Visual Studio\2022\Professional\VC\Tools\MSVC\14.44.35207\include\xmemory

; 1160 :     _CONSTEXPR20 explicit _Alloc_construct_ptr(_Alloc& _Al_) : _Al(_Al_), _Ptr(nullptr) {}

  00088	89 7d ec	 mov	 DWORD PTR $T6[ebp], edi

; 136  :         return ::operator new(_Bytes);

  0008b	6a 18		 push	 24			; 00000018H
; File C:\Program Files\Microsoft Visual Studio\2022\Professional\VC\Tools\MSVC\14.44.35207\include\xtree

; 808  :     explicit _Tree_temp_node_alloc(_Alnode& _Al_) : _Alloc_construct_ptr<_Alnode>(_Al_) {

  0008d	c7 45 fc 00 00
	00 00		 mov	 DWORD PTR __$EHRec$[ebp+8], 0
; File C:\Program Files\Microsoft Visual Studio\2022\Professional\VC\Tools\MSVC\14.44.35207\include\xmemory

; 1167 :         _Ptr = nullptr; // if allocate throws, prevents double-free

  00094	c7 45 f0 00 00
	00 00		 mov	 DWORD PTR $T6[ebp+4], 0

; 136  :         return ::operator new(_Bytes);

  0009b	e8 00 00 00 00	 call	 ??2@YAPAXI@Z		; operator new
; File C:\Program Files\Microsoft Visual Studio\2022\Professional\VC\Tools\MSVC\14.44.35207\include\xtree

; 830  :         _Alnode_traits::construct(this->_Al, _STD addressof(this->_Ptr->_Myval), _STD forward<_Valtys>(_Vals)...);

  000a0	8b 4d 08	 mov	 ecx, DWORD PTR _pBuff$[ebp]
; File C:\Program Files\Microsoft Visual Studio\2022\Professional\VC\Tools\MSVC\14.44.35207\include\xmemory

; 136  :         return ::operator new(_Bytes);

  000a3	83 c4 04	 add	 esp, 4
; File C:\Program Files\Microsoft Visual Studio\2022\Professional\VC\Tools\MSVC\14.44.35207\include\xtree

; 830  :         _Alnode_traits::construct(this->_Al, _STD addressof(this->_Ptr->_Myval), _STD forward<_Valtys>(_Vals)...);

  000a6	89 58 10	 mov	 DWORD PTR [eax+16], ebx
  000a9	89 48 14	 mov	 DWORD PTR [eax+20], ecx

; 1042 :         return {_Scary->_Insert_node(_Loc._Location, _Inserted), true};

  000ac	8b cf		 mov	 ecx, edi
  000ae	50		 push	 eax
  000af	ff 75 e4	 push	 DWORD PTR __Loc$4[ebp+4]

; 831  :         _Construct_in_place(this->_Ptr->_Left, _Myhead);

  000b2	89 30		 mov	 DWORD PTR [eax], esi

; 1042 :         return {_Scary->_Insert_node(_Loc._Location, _Inserted), true};

  000b4	ff 75 e0	 push	 DWORD PTR __Loc$4[ebp]

; 832  :         _Construct_in_place(this->_Ptr->_Parent, _Myhead);

  000b7	89 70 04	 mov	 DWORD PTR [eax+4], esi

; 833  :         _Construct_in_place(this->_Ptr->_Right, _Myhead);

  000ba	89 70 08	 mov	 DWORD PTR [eax+8], esi

; 834  :         this->_Ptr->_Color = _Red;

  000bd	66 c7 40 0c 00
	00		 mov	 WORD PTR [eax+12], 0

; 1042 :         return {_Scary->_Insert_node(_Loc._Location, _Inserted), true};

  000c3	e8 00 00 00 00	 call	 ?_Insert_node@?$_Tree_val@U?$_Tree_simple_types@U?$pair@$$CBKPAVIBuff@@@std@@@std@@@std@@QAEPAU?$_Tree_node@U?$pair@$$CBKPAVIBuff@@@std@@PAX@2@U?$_Tree_id@PAU?$_Tree_node@U?$pair@$$CBKPAVIBuff@@@std@@PAX@std@@@2@QAU32@@Z ; std::_Tree_val<std::_Tree_simple_types<std::pair<unsigned long const ,IBuff *> > >::_Insert_node
; File C:\Program Files\Microsoft Visual Studio\2022\Professional\VC\Tools\MSVC\14.44.35207\include\utility

; 274  :         : first(_STD forward<_Other1>(_Val1)), second(_STD forward<_Other2>(_Val2)) {

  000c8	b0 01		 mov	 al, 1
; File C:\IAGOS\server\v18\Source\Source\_Common\buff.h

; 215  : 	bool	Add( IBuff* pBuff )	{	return m_mapBuffs.insert( MAPBUFF::value_type( MAKELONG( pBuff->GetId(), pBuff->GetType() ), pBuff ) ).second;	}

  000ca	8b 4d f4	 mov	 ecx, DWORD PTR __$EHRec$[ebp]
  000cd	64 89 0d 00 00
	00 00		 mov	 DWORD PTR fs:0, ecx
  000d4	59		 pop	 ecx
  000d5	5f		 pop	 edi
  000d6	5e		 pop	 esi
  000d7	5b		 pop	 ebx
  000d8	8b e5		 mov	 esp, ebp
  000da	5d		 pop	 ebp
  000db	c2 04 00	 ret	 4
$LN109@Add:
; File C:\Program Files\Microsoft Visual Studio\2022\Professional\VC\Tools\MSVC\14.44.35207\include\xtree

; 1649 :             _Throw_tree_length_error();

  000de	e8 00 00 00 00	 call	 ?_Throw_tree_length_error@std@@YAXXZ ; std::_Throw_tree_length_error
$LN107@Add:
  000e3	cc		 int	 3
_TEXT	ENDS
;	COMDAT text$x
text$x	SEGMENT
__unwindfunclet$?Add@CBuffMgr@@AAE_NPAVIBuff@@@Z$2:
  00000	8d 4d ec	 lea	 ecx, DWORD PTR $T6[ebp]
  00003	e9 00 00 00 00	 jmp	 ??1?$_Alloc_construct_ptr@V?$allocator@U?$_Tree_node@U?$pair@$$CBKPAVIBuff@@@std@@PAX@std@@@std@@@std@@QAE@XZ ; std::_Alloc_construct_ptr<std::allocator<std::_Tree_node<std::pair<unsigned long const ,IBuff *>,void *> > >::~_Alloc_construct_ptr<std::allocator<std::_Tree_node<std::pair<unsigned long const ,IBuff *>,void *> > >
  00008	cc		 int	 3
  00009	cc		 int	 3
  0000a	cc		 int	 3
  0000b	cc		 int	 3
  0000c	cc		 int	 3
__ehhandler$?Add@CBuffMgr@@AAE_NPAVIBuff@@@Z:
  0000d	90		 npad	 1
  0000e	90		 npad	 1
  0000f	8b 54 24 08	 mov	 edx, DWORD PTR [esp+8]
  00013	8d 42 0c	 lea	 eax, DWORD PTR [edx+12]
  00016	8b 4a d0	 mov	 ecx, DWORD PTR [edx-48]
  00019	33 c8		 xor	 ecx, eax
  0001b	e8 00 00 00 00	 call	 @__security_check_cookie@4
  00020	b8 00 00 00 00	 mov	 eax, OFFSET __ehfuncinfo$?Add@CBuffMgr@@AAE_NPAVIBuff@@@Z
  00025	e9 00 00 00 00	 jmp	 ___CxxFrameHandler3
text$x	ENDS
?Add@CBuffMgr@@AAE_NPAVIBuff@@@Z ENDP			; CBuffMgr::Add
; Function compile flags: /Ogtp
; File C:\IAGOS\server\v18\Source\Source\_Common\buff.h
;	COMDAT ?GetTickCount@CBuffMgr@@MAEKXZ
_TEXT	SEGMENT
?GetTickCount@CBuffMgr@@MAEKXZ PROC			; CBuffMgr::GetTickCount, COMDAT
; _this$ = ecx

; 209  : 	virtual	DWORD	GetCurrentTime()	{	return timeGetTime();	}

  00000	ff 25 00 00 00
	00		 jmp	 DWORD PTR __imp__timeGetTime@0
?GetTickCount@CBuffMgr@@MAEKXZ ENDP			; CBuffMgr::GetTickCount
_TEXT	ENDS
; Function compile flags: /Ogtp
; File C:\IAGOS\server\v18\Source\Source\_Common\buff.cpp
; File C:\IAGOS\server\v18\Source\Source\_Common\buff.h
; File C:\IAGOS\server\v18\Source\Source\_Common\buff.cpp
; File C:\IAGOS\server\v18\Source\Source\_Common\buff.h
; File C:\IAGOS\server\v18\Source\Source\_Common\buff.cpp
; File C:\IAGOS\server\v18\Source\Source\_Common\buff.h
; File C:\IAGOS\server\v18\Source\Source\_Common\buff.cpp
; File C:\IAGOS\server\v18\Source\Source\_Common\buff.h
; File C:\IAGOS\server\v18\Source\Source\_Common\buff.cpp
; File C:\IAGOS\server\v18\Source\Source\_Common\buff.h
; File C:\IAGOS\server\v18\Source\Source\_Common\buff.cpp
;	COMDAT ?CreateBuff@CBuffMgr@@UAEPAVIBuff@@G@Z
_TEXT	SEGMENT
_wType$ = 8						; size = 2
$T1 = 8							; size = 4
$T2 = 8							; size = 4
$T3 = 8							; size = 4
$T4 = 8							; size = 4
$T5 = 8							; size = 4
?CreateBuff@CBuffMgr@@UAEPAVIBuff@@G@Z PROC		; CBuffMgr::CreateBuff, COMDAT
; _this$ = ecx

; 672  : {

  00000	55		 push	 ebp
  00001	8b ec		 mov	 ebp, esp
  00003	56		 push	 esi
  00004	57		 push	 edi

; 673  : 	IBuff* ptr	= NULL;
; 674  : #ifdef __DBSERVER
; 675  : 	ptr	= new IBuff;
; 676  : #else	// __DBSERVER
; 677  : 	switch( wType )

  00005	66 8b 7d 08	 mov	 di, WORD PTR _wType$[ebp]
  00009	0f b7 c7	 movzx	 eax, di
  0000c	83 f8 04	 cmp	 eax, 4
  0000f	0f 87 f9 00 00
	00		 ja	 $LN9@CreateBuff
  00015	ff 24 85 00 00
	00 00		 jmp	 DWORD PTR $LN40@CreateBuff[eax*4]
$LN4@CreateBuff:

; 678  : 	{
; 679  : 		case BUFF_SKILL:	ptr	= new CBuffSkill;	break;

  0001c	6a 1c		 push	 28			; 0000001cH
  0001e	e8 00 00 00 00	 call	 ??2@YAPAXI@Z		; operator new
  00023	8b f0		 mov	 esi, eax
  00025	83 c4 04	 add	 esp, 4
  00028	89 75 08	 mov	 DWORD PTR $T1[ebp], esi
  0002b	85 f6		 test	 esi, esi
  0002d	0f 84 cd 00 00
	00		 je	 $LN19@CreateBuff
; File C:\IAGOS\server\v18\Source\Source\_Common\buff.h

; 140  : 	CBuffSkill()	{}

  00033	8b ce		 mov	 ecx, esi
  00035	e8 00 00 00 00	 call	 ??0IBuff@@QAE@XZ	; IBuff::IBuff
  0003a	c7 06 00 00 00
	00		 mov	 DWORD PTR [esi], OFFSET ??_7CBuffSkill@@6B@
; File C:\IAGOS\server\v18\Source\Source\_Common\buff.cpp

; 688  : 	return ptr;

  00040	8b c6		 mov	 eax, esi
  00042	66 89 7e 04	 mov	 WORD PTR [esi+4], di
  00046	5f		 pop	 edi

; 689  : }

  00047	5e		 pop	 esi
  00048	5d		 pop	 ebp
  00049	c2 04 00	 ret	 4
$LN5@CreateBuff:

; 680  : 		case BUFF_ITEM:		ptr	= new CBuffItem;	break;

  0004c	6a 1c		 push	 28			; 0000001cH
  0004e	e8 00 00 00 00	 call	 ??2@YAPAXI@Z		; operator new
  00053	8b f0		 mov	 esi, eax
  00055	83 c4 04	 add	 esp, 4
  00058	89 75 08	 mov	 DWORD PTR $T2[ebp], esi
  0005b	85 f6		 test	 esi, esi
  0005d	0f 84 9d 00 00
	00		 je	 $LN19@CreateBuff
; File C:\IAGOS\server\v18\Source\Source\_Common\buff.h

; 105  : 	IBuffItemBase()		{}

  00063	8b ce		 mov	 ecx, esi
  00065	e8 00 00 00 00	 call	 ??0IBuff@@QAE@XZ	; IBuff::IBuff

; 121  : 	CBuffItem()		{}

  0006a	c7 06 00 00 00
	00		 mov	 DWORD PTR [esi], OFFSET ??_7CBuffItem@@6B@
; File C:\IAGOS\server\v18\Source\Source\_Common\buff.cpp

; 688  : 	return ptr;

  00070	8b c6		 mov	 eax, esi
  00072	66 89 7e 04	 mov	 WORD PTR [esi+4], di
  00076	5f		 pop	 edi

; 689  : }

  00077	5e		 pop	 esi
  00078	5d		 pop	 ebp
  00079	c2 04 00	 ret	 4
$LN6@CreateBuff:

; 681  : 		case BUFF_ITEM2:	ptr	= new CBuffItem2;	break;

  0007c	6a 1c		 push	 28			; 0000001cH
  0007e	e8 00 00 00 00	 call	 ??2@YAPAXI@Z		; operator new
  00083	8b f0		 mov	 esi, eax
  00085	83 c4 04	 add	 esp, 4
  00088	89 75 08	 mov	 DWORD PTR $T3[ebp], esi
  0008b	85 f6		 test	 esi, esi
  0008d	74 71		 je	 SHORT $LN19@CreateBuff
; File C:\IAGOS\server\v18\Source\Source\_Common\buff.h

; 105  : 	IBuffItemBase()		{}

  0008f	8b ce		 mov	 ecx, esi
  00091	e8 00 00 00 00	 call	 ??0IBuff@@QAE@XZ	; IBuff::IBuff

; 176  : 	CBuffItem2()	{}

  00096	c7 06 00 00 00
	00		 mov	 DWORD PTR [esi], OFFSET ??_7CBuffItem2@@6B@
; File C:\IAGOS\server\v18\Source\Source\_Common\buff.cpp

; 688  : 	return ptr;

  0009c	8b c6		 mov	 eax, esi
  0009e	66 89 7e 04	 mov	 WORD PTR [esi+4], di
  000a2	5f		 pop	 edi

; 689  : }

  000a3	5e		 pop	 esi
  000a4	5d		 pop	 ebp
  000a5	c2 04 00	 ret	 4
$LN7@CreateBuff:

; 682  : 		case BUFF_PET:		ptr	= new CBuffPet;		break;

  000a8	6a 1c		 push	 28			; 0000001cH
  000aa	e8 00 00 00 00	 call	 ??2@YAPAXI@Z		; operator new
  000af	8b f0		 mov	 esi, eax
  000b1	83 c4 04	 add	 esp, 4
  000b4	89 75 08	 mov	 DWORD PTR $T4[ebp], esi
  000b7	85 f6		 test	 esi, esi
  000b9	74 45		 je	 SHORT $LN19@CreateBuff
; File C:\IAGOS\server\v18\Source\Source\_Common\buff.h

; 164  : 	CBuffPet()	{}

  000bb	8b ce		 mov	 ecx, esi
  000bd	e8 00 00 00 00	 call	 ??0IBuff@@QAE@XZ	; IBuff::IBuff
  000c2	c7 06 00 00 00
	00		 mov	 DWORD PTR [esi], OFFSET ??_7CBuffPet@@6B@
; File C:\IAGOS\server\v18\Source\Source\_Common\buff.cpp

; 688  : 	return ptr;

  000c8	8b c6		 mov	 eax, esi
  000ca	66 89 7e 04	 mov	 WORD PTR [esi+4], di
  000ce	5f		 pop	 edi

; 689  : }

  000cf	5e		 pop	 esi
  000d0	5d		 pop	 ebp
  000d1	c2 04 00	 ret	 4
$LN8@CreateBuff:

; 683  : 		case BUFF_EQUIP:	ptr	= new CBuffEquip;	break;

  000d4	6a 1c		 push	 28			; 0000001cH
  000d6	e8 00 00 00 00	 call	 ??2@YAPAXI@Z		; operator new
  000db	8b f0		 mov	 esi, eax
  000dd	83 c4 04	 add	 esp, 4
  000e0	89 75 08	 mov	 DWORD PTR $T5[ebp], esi
  000e3	85 f6		 test	 esi, esi
  000e5	74 19		 je	 SHORT $LN19@CreateBuff
; File C:\IAGOS\server\v18\Source\Source\_Common\buff.h

; 185  : 	CBuffEquip()	{}

  000e7	8b ce		 mov	 ecx, esi
  000e9	e8 00 00 00 00	 call	 ??0IBuff@@QAE@XZ	; IBuff::IBuff
  000ee	c7 06 00 00 00
	00		 mov	 DWORD PTR [esi], OFFSET ??_7CBuffEquip@@6B@
; File C:\IAGOS\server\v18\Source\Source\_Common\buff.cpp

; 688  : 	return ptr;

  000f4	8b c6		 mov	 eax, esi
  000f6	66 89 7e 04	 mov	 WORD PTR [esi+4], di
  000fa	5f		 pop	 edi

; 689  : }

  000fb	5e		 pop	 esi
  000fc	5d		 pop	 ebp
  000fd	c2 04 00	 ret	 4
$LN19@CreateBuff:

; 685  : 	}
; 686  : #endif	// __DBSERVER
; 687  : 	ptr->SetType( wType );

  00100	33 f6		 xor	 esi, esi

; 688  : 	return ptr;

  00102	8b c6		 mov	 eax, esi
  00104	66 89 7e 04	 mov	 WORD PTR [esi+4], di
  00108	5f		 pop	 edi

; 689  : }

  00109	5e		 pop	 esi
  0010a	5d		 pop	 ebp
  0010b	c2 04 00	 ret	 4
$LN9@CreateBuff:
  0010e	5f		 pop	 edi

; 684  : 		default:	return NULL;

  0010f	33 c0		 xor	 eax, eax

; 689  : }

  00111	5e		 pop	 esi
  00112	5d		 pop	 ebp
  00113	c2 04 00	 ret	 4
  00116	66 90		 npad	 2
$LN40@CreateBuff:
  00118	00 00 00 00	 DD	 $LN5@CreateBuff
  0011c	00 00 00 00	 DD	 $LN4@CreateBuff
  00120	00 00 00 00	 DD	 $LN7@CreateBuff
  00124	00 00 00 00	 DD	 $LN6@CreateBuff
  00128	00 00 00 00	 DD	 $LN8@CreateBuff
?CreateBuff@CBuffMgr@@UAEPAVIBuff@@G@Z ENDP		; CBuffMgr::CreateBuff
_TEXT	ENDS
; Function compile flags: /Ogtp
; File C:\IAGOS\server\v18\Source\Source\_Common\buff.cpp
; File C:\Program Files\Microsoft Visual Studio\2022\Professional\VC\Tools\MSVC\14.44.35207\include\xtree
; File C:\IAGOS\server\v18\Source\Source\_Common\buff.cpp
; File C:\IAGOS\server\v18\Source\Source\_Common\buff.h
; File C:\Program Files\Microsoft Visual Studio\2022\Professional\VC\Tools\MSVC\14.44.35207\include\utility
; File C:\IAGOS\server\v18\Source\Source\_Common\buff.h
; File C:\Program Files\Microsoft Visual Studio\2022\Professional\VC\Tools\MSVC\14.44.35207\include\xtree
; File C:\IAGOS\server\v18\Source\Source\_Common\buff.h
; File C:\Program Files\Microsoft Visual Studio\2022\Professional\VC\Tools\MSVC\14.44.35207\include\xtree
; File C:\Program Files\Microsoft Visual Studio\2022\Professional\VC\Tools\MSVC\14.44.35207\include\utility
; File C:\Program Files\Microsoft Visual Studio\2022\Professional\VC\Tools\MSVC\14.44.35207\include\xtree
; File C:\Program Files\Microsoft Visual Studio\2022\Professional\VC\Tools\MSVC\14.44.35207\include\type_traits
; File C:\Program Files\Microsoft Visual Studio\2022\Professional\VC\Tools\MSVC\14.44.35207\include\xtree
; File C:\Program Files\Microsoft Visual Studio\2022\Professional\VC\Tools\MSVC\14.44.35207\include\xmemory
; File C:\Program Files\Microsoft Visual Studio\2022\Professional\VC\Tools\MSVC\14.44.35207\include\xtree
; File C:\Program Files\Microsoft Visual Studio\2022\Professional\VC\Tools\MSVC\14.44.35207\include\xmemory
; File C:\Program Files\Microsoft Visual Studio\2022\Professional\VC\Tools\MSVC\14.44.35207\include\xtree
; File C:\Program Files\Microsoft Visual Studio\2022\Professional\VC\Tools\MSVC\14.44.35207\include\xmemory
; File C:\Program Files\Microsoft Visual Studio\2022\Professional\VC\Tools\MSVC\14.44.35207\include\xtree
; File C:\Program Files\Microsoft Visual Studio\2022\Professional\VC\Tools\MSVC\14.44.35207\include\utility
; File C:\Program Files\Microsoft Visual Studio\2022\Professional\VC\Tools\MSVC\14.44.35207\include\xtree
; File C:\IAGOS\server\v18\Source\Source\_Common\buff.cpp
; File C:\Program Files\Microsoft Visual Studio\2022\Professional\VC\Tools\MSVC\14.44.35207\include\xtree
; File C:\IAGOS\server\v18\Source\Source\_Common\buff.cpp
; File C:\Program Files\Microsoft Visual Studio\2022\Professional\VC\Tools\MSVC\14.44.35207\include\xtree
; File C:\IAGOS\server\v18\Source\Source\_Common\buff.cpp
;	COMDAT ??4CBuffMgr@@QAEAAV0@AAV0@@Z
_TEXT	SEGMENT
$T2 = -64						; size = 12
__Loc$3 = -52						; size = 12
$T4 = -40						; size = 8
$T5 = -32						; size = 8
_this$1$ = -24						; size = 4
_i$6 = -20						; size = 4
$T7 = -16						; size = 4
__$EHRec$ = -12						; size = 12
_bm$ = 8						; size = 4
??4CBuffMgr@@QAEAAV0@AAV0@@Z PROC			; CBuffMgr::operator=, COMDAT
; _this$ = ecx

; 969  : {

  00000	55		 push	 ebp
  00001	8b ec		 mov	 ebp, esp
  00003	6a ff		 push	 -1
  00005	68 00 00 00 00	 push	 __ehhandler$??4CBuffMgr@@QAEAAV0@AAV0@@Z
  0000a	64 a1 00 00 00
	00		 mov	 eax, DWORD PTR fs:0
  00010	50		 push	 eax
  00011	83 ec 34	 sub	 esp, 52			; 00000034H
  00014	53		 push	 ebx
  00015	56		 push	 esi
  00016	57		 push	 edi
  00017	a1 00 00 00 00	 mov	 eax, DWORD PTR ___security_cookie
  0001c	33 c5		 xor	 eax, ebp
  0001e	50		 push	 eax
  0001f	8d 45 f4	 lea	 eax, DWORD PTR __$EHRec$[ebp]
  00022	64 a3 00 00 00
	00		 mov	 DWORD PTR fs:0, eax
  00028	8b d9		 mov	 ebx, ecx
  0002a	89 5d e8	 mov	 DWORD PTR _this$1$[ebp], ebx

; 970  : 	Clear();

  0002d	e8 00 00 00 00	 call	 ?Clear@CBuffMgr@@QAEXXZ	; CBuffMgr::Clear
; File C:\Program Files\Microsoft Visual Studio\2022\Professional\VC\Tools\MSVC\14.44.35207\include\xtree

; 1142 :         return iterator(_Scary->_Myhead->_Left, _Scary);

  00032	8b 45 08	 mov	 eax, DWORD PTR _bm$[ebp]
  00035	8b 50 04	 mov	 edx, DWORD PTR [eax+4]

; 37   :     _Tree_unchecked_const_iterator(_Nodeptr _Pnode, const _Mytree* _Plist) noexcept : _Ptr(_Pnode) {

  00038	8b 02		 mov	 eax, DWORD PTR [edx]
  0003a	89 45 ec	 mov	 DWORD PTR _i$6[ebp], eax

; 237  :         return !(*this == _Right);

  0003d	3b c2		 cmp	 eax, edx
; File C:\IAGOS\server\v18\Source\Source\_Common\buff.cpp

; 971  : 	for( MAPBUFF::iterator i = bm.m_mapBuffs.begin(); i != bm.m_mapBuffs.end(); ++i )

  0003f	0f 84 d2 00 00
	00		 je	 $LN3@operator
  00045	8d 73 04	 lea	 esi, DWORD PTR [ebx+4]
$LL4@operator:

; 972  : 	{
; 973  : 		IBuff* pSource	= i->second;

  00048	8b 78 14	 mov	 edi, DWORD PTR [eax+20]

; 974  : 		IBuff* pDest	= CreateBuff( pSource->GetType() );

  0004b	8b cb		 mov	 ecx, ebx
  0004d	8b 13		 mov	 edx, DWORD PTR [ebx]
  0004f	0f b7 47 04	 movzx	 eax, WORD PTR [edi+4]
  00053	50		 push	 eax
  00054	ff 52 04	 call	 DWORD PTR [edx+4]
  00057	8b d8		 mov	 ebx, eax

; 975  : 		*pDest	= *pSource;

  00059	57		 push	 edi
  0005a	8b cb		 mov	 ecx, ebx
  0005c	89 5d f0	 mov	 DWORD PTR $T7[ebp], ebx
  0005f	8b 13		 mov	 edx, DWORD PTR [ebx]
  00061	ff 52 0c	 call	 DWORD PTR [edx+12]
; File C:\IAGOS\server\v18\Source\Source\_Common\buff.h

; 215  : 	bool	Add( IBuff* pBuff )	{	return m_mapBuffs.insert( MAPBUFF::value_type( MAKELONG( pBuff->GetId(), pBuff->GetType() ), pBuff ) ).second;	}

  00064	8b 45 f0	 mov	 eax, DWORD PTR $T7[ebp]
  00067	0f b7 5b 04	 movzx	 ebx, WORD PTR [ebx+4]
; File C:\Program Files\Microsoft Visual Studio\2022\Professional\VC\Tools\MSVC\14.44.35207\include\utility

; 274  :         : first(_STD forward<_Other1>(_Val1)), second(_STD forward<_Other2>(_Val2)) {

  0006b	89 45 e4	 mov	 DWORD PTR $T5[ebp+4], eax
; File C:\IAGOS\server\v18\Source\Source\_Common\buff.h

; 215  : 	bool	Add( IBuff* pBuff )	{	return m_mapBuffs.insert( MAPBUFF::value_type( MAKELONG( pBuff->GetId(), pBuff->GetType() ), pBuff ) ).second;	}

  0006e	c1 e3 10	 shl	 ebx, 16			; 00000010H
  00071	0f b7 48 06	 movzx	 ecx, WORD PTR [eax+6]
; File C:\Program Files\Microsoft Visual Studio\2022\Professional\VC\Tools\MSVC\14.44.35207\include\xtree

; 1017 :             _Loc                = _Find_lower_bound(_Keyval);

  00075	8d 45 e0	 lea	 eax, DWORD PTR $T5[ebp]
  00078	50		 push	 eax
; File C:\IAGOS\server\v18\Source\Source\_Common\buff.h

; 215  : 	bool	Add( IBuff* pBuff )	{	return m_mapBuffs.insert( MAPBUFF::value_type( MAKELONG( pBuff->GetId(), pBuff->GetType() ), pBuff ) ).second;	}

  00079	0b d9		 or	 ebx, ecx
; File C:\Program Files\Microsoft Visual Studio\2022\Professional\VC\Tools\MSVC\14.44.35207\include\xtree

; 1017 :             _Loc                = _Find_lower_bound(_Keyval);

  0007b	8d 45 c0	 lea	 eax, DWORD PTR $T2[ebp]
  0007e	50		 push	 eax
  0007f	8b ce		 mov	 ecx, esi
; File C:\Program Files\Microsoft Visual Studio\2022\Professional\VC\Tools\MSVC\14.44.35207\include\utility

; 274  :         : first(_STD forward<_Other1>(_Val1)), second(_STD forward<_Other2>(_Val2)) {

  00081	89 5d e0	 mov	 DWORD PTR $T5[ebp], ebx
; File C:\Program Files\Microsoft Visual Studio\2022\Professional\VC\Tools\MSVC\14.44.35207\include\xtree

; 1017 :             _Loc                = _Find_lower_bound(_Keyval);

  00084	e8 00 00 00 00	 call	 ??$_Find_lower_bound@K@?$_Tree@V?$_Tmap_traits@KPAVIBuff@@U?$less@K@std@@V?$allocator@U?$pair@$$CBKPAVIBuff@@@std@@@3@$0A@@std@@@std@@IBE?AU?$_Tree_find_result@PAU?$_Tree_node@U?$pair@$$CBKPAVIBuff@@@std@@PAX@std@@@1@ABK@Z ; std::_Tree<std::_Tmap_traits<unsigned long,IBuff *,std::less<unsigned long>,std::allocator<std::pair<unsigned long const ,IBuff *> >,0> >::_Find_lower_bound<unsigned long>
  00089	f3 0f 7e 00	 movq	 xmm0, QWORD PTR [eax]
  0008d	8b 40 08	 mov	 eax, DWORD PTR [eax+8]
  00090	66 0f d6 45 cc	 movq	 QWORD PTR __Loc$3[ebp], xmm0

; 1624 :         return !_Bound->_Isnil && !_DEBUG_LT_PRED(_Getcomp(), _Keyval, _Traits::_Kfn(_Bound->_Myval));

  00095	80 78 0d 00	 cmp	 BYTE PTR [eax+13], 0
  00099	75 05		 jne	 SHORT $LN59@operator
; File C:\Program Files\Microsoft Visual Studio\2022\Professional\VC\Tools\MSVC\14.44.35207\include\type_traits

; 2380 :         return _Left < _Right;

  0009b	3b 58 10	 cmp	 ebx, DWORD PTR [eax+16]
; File C:\Program Files\Microsoft Visual Studio\2022\Professional\VC\Tools\MSVC\14.44.35207\include\xtree

; 1624 :         return !_Bound->_Isnil && !_DEBUG_LT_PRED(_Getcomp(), _Keyval, _Traits::_Kfn(_Bound->_Myval));

  0009e	73 5d		 jae	 SHORT $LN139@operator
$LN59@operator:

; 1648 :         if (max_size() == _Get_scary()->_Mysize) {

  000a0	81 7e 04 aa aa
	aa 0a		 cmp	 DWORD PTR [esi+4], 178956970 ; 0aaaaaaaH
  000a7	0f 84 80 00 00
	00		 je	 $LN157@operator

; 1023 :             _Inserted = _Tree_temp_node<_Alnode>(_Getal(), _Scary->_Myhead, _STD forward<_Valtys>(_Vals)...)._Release();

  000ad	8b 3e		 mov	 edi, DWORD PTR [esi]
; File C:\Program Files\Microsoft Visual Studio\2022\Professional\VC\Tools\MSVC\14.44.35207\include\xmemory

; 1160 :     _CONSTEXPR20 explicit _Alloc_construct_ptr(_Alloc& _Al_) : _Al(_Al_), _Ptr(nullptr) {}

  000af	89 75 d8	 mov	 DWORD PTR $T4[ebp], esi

; 136  :         return ::operator new(_Bytes);

  000b2	6a 18		 push	 24			; 00000018H
; File C:\Program Files\Microsoft Visual Studio\2022\Professional\VC\Tools\MSVC\14.44.35207\include\xtree

; 808  :     explicit _Tree_temp_node_alloc(_Alnode& _Al_) : _Alloc_construct_ptr<_Alnode>(_Al_) {

  000b4	c7 45 fc 00 00
	00 00		 mov	 DWORD PTR __$EHRec$[ebp+8], 0
; File C:\Program Files\Microsoft Visual Studio\2022\Professional\VC\Tools\MSVC\14.44.35207\include\xmemory

; 1167 :         _Ptr = nullptr; // if allocate throws, prevents double-free

  000bb	c7 45 dc 00 00
	00 00		 mov	 DWORD PTR $T4[ebp+4], 0

; 136  :         return ::operator new(_Bytes);

  000c2	e8 00 00 00 00	 call	 ??2@YAPAXI@Z		; operator new
; File C:\Program Files\Microsoft Visual Studio\2022\Professional\VC\Tools\MSVC\14.44.35207\include\xtree

; 830  :         _Alnode_traits::construct(this->_Al, _STD addressof(this->_Ptr->_Myval), _STD forward<_Valtys>(_Vals)...);

  000c7	8b 4d f0	 mov	 ecx, DWORD PTR $T7[ebp]
; File C:\Program Files\Microsoft Visual Studio\2022\Professional\VC\Tools\MSVC\14.44.35207\include\xmemory

; 136  :         return ::operator new(_Bytes);

  000ca	83 c4 04	 add	 esp, 4
; File C:\Program Files\Microsoft Visual Studio\2022\Professional\VC\Tools\MSVC\14.44.35207\include\xtree

; 810  :     }

  000cd	c7 45 fc ff ff
	ff ff		 mov	 DWORD PTR __$EHRec$[ebp+8], -1
; File C:\Program Files\Microsoft Visual Studio\2022\Professional\VC\Tools\MSVC\14.44.35207\include\utility

; 774  :     _Val         = static_cast<_Other&&>(_New_val);

  000d4	c7 45 dc 00 00
	00 00		 mov	 DWORD PTR $T4[ebp+4], 0
; File C:\Program Files\Microsoft Visual Studio\2022\Professional\VC\Tools\MSVC\14.44.35207\include\xtree

; 830  :         _Alnode_traits::construct(this->_Al, _STD addressof(this->_Ptr->_Myval), _STD forward<_Valtys>(_Vals)...);

  000db	89 58 10	 mov	 DWORD PTR [eax+16], ebx
  000de	89 48 14	 mov	 DWORD PTR [eax+20], ecx

; 1042 :         return {_Scary->_Insert_node(_Loc._Location, _Inserted), true};

  000e1	8b ce		 mov	 ecx, esi
  000e3	50		 push	 eax
  000e4	ff 75 d0	 push	 DWORD PTR __Loc$3[ebp+4]

; 831  :         _Construct_in_place(this->_Ptr->_Left, _Myhead);

  000e7	89 38		 mov	 DWORD PTR [eax], edi

; 1042 :         return {_Scary->_Insert_node(_Loc._Location, _Inserted), true};

  000e9	ff 75 cc	 push	 DWORD PTR __Loc$3[ebp]

; 832  :         _Construct_in_place(this->_Ptr->_Parent, _Myhead);

  000ec	89 78 04	 mov	 DWORD PTR [eax+4], edi

; 833  :         _Construct_in_place(this->_Ptr->_Right, _Myhead);

  000ef	89 78 08	 mov	 DWORD PTR [eax+8], edi

; 834  :         this->_Ptr->_Color = _Red;

  000f2	66 c7 40 0c 00
	00		 mov	 WORD PTR [eax+12], 0

; 1042 :         return {_Scary->_Insert_node(_Loc._Location, _Inserted), true};

  000f8	e8 00 00 00 00	 call	 ?_Insert_node@?$_Tree_val@U?$_Tree_simple_types@U?$pair@$$CBKPAVIBuff@@@std@@@std@@@std@@QAEPAU?$_Tree_node@U?$pair@$$CBKPAVIBuff@@@std@@PAX@2@U?$_Tree_id@PAU?$_Tree_node@U?$pair@$$CBKPAVIBuff@@@std@@PAX@std@@@2@QAU32@@Z ; std::_Tree_val<std::_Tree_simple_types<std::pair<unsigned long const ,IBuff *> > >::_Insert_node
$LN139@operator:

; 198  :         _Mybase::operator++();

  000fd	8d 4d ec	 lea	 ecx, DWORD PTR _i$6[ebp]
  00100	e8 00 00 00 00	 call	 ??E?$_Tree_unchecked_const_iterator@V?$_Tree_val@U?$_Tree_simple_types@U?$pair@$$CBKPAVIBuff@@@std@@@std@@@std@@U_Iterator_base0@2@@std@@QAEAAV01@XZ ; std::_Tree_unchecked_const_iterator<std::_Tree_val<std::_Tree_simple_types<std::pair<unsigned long const ,IBuff *> > >,std::_Iterator_base0>::operator++

; 237  :         return !(*this == _Right);

  00105	8b 4d 08	 mov	 ecx, DWORD PTR _bm$[ebp]
  00108	8b 45 ec	 mov	 eax, DWORD PTR _i$6[ebp]
; File C:\IAGOS\server\v18\Source\Source\_Common\buff.cpp

; 971  : 	for( MAPBUFF::iterator i = bm.m_mapBuffs.begin(); i != bm.m_mapBuffs.end(); ++i )

  0010b	8b 5d e8	 mov	 ebx, DWORD PTR _this$1$[ebp]
; File C:\Program Files\Microsoft Visual Studio\2022\Professional\VC\Tools\MSVC\14.44.35207\include\xtree

; 237  :         return !(*this == _Right);

  0010e	3b 41 04	 cmp	 eax, DWORD PTR [ecx+4]
; File C:\IAGOS\server\v18\Source\Source\_Common\buff.cpp

; 971  : 	for( MAPBUFF::iterator i = bm.m_mapBuffs.begin(); i != bm.m_mapBuffs.end(); ++i )

  00111	0f 85 31 ff ff
	ff		 jne	 $LL4@operator
$LN3@operator:

; 976  : 		bool bResult	= Add( pDest );
; 977  : 		ASSERT( bResult );
; 978  : 	}
; 979  : 	return *this;

  00117	8b c3		 mov	 eax, ebx

; 980  : }

  00119	8b 4d f4	 mov	 ecx, DWORD PTR __$EHRec$[ebp]
  0011c	64 89 0d 00 00
	00 00		 mov	 DWORD PTR fs:0, ecx
  00123	59		 pop	 ecx
  00124	5f		 pop	 edi
  00125	5e		 pop	 esi
  00126	5b		 pop	 ebx
  00127	8b e5		 mov	 esp, ebp
  00129	5d		 pop	 ebp
  0012a	c2 04 00	 ret	 4
$LN157@operator:
; File C:\Program Files\Microsoft Visual Studio\2022\Professional\VC\Tools\MSVC\14.44.35207\include\xtree

; 1649 :             _Throw_tree_length_error();

  0012d	e8 00 00 00 00	 call	 ?_Throw_tree_length_error@std@@YAXXZ ; std::_Throw_tree_length_error
$LN165@operator:
  00132	cc		 int	 3
_TEXT	ENDS
;	COMDAT text$x
text$x	SEGMENT
__unwindfunclet$??4CBuffMgr@@QAEAAV0@AAV0@@Z$2:
  00000	8d 4d d8	 lea	 ecx, DWORD PTR $T4[ebp]
  00003	e9 00 00 00 00	 jmp	 ??1?$_Alloc_construct_ptr@V?$allocator@U?$_Tree_node@U?$pair@$$CBKPAVIBuff@@@std@@PAX@std@@@std@@@std@@QAE@XZ ; std::_Alloc_construct_ptr<std::allocator<std::_Tree_node<std::pair<unsigned long const ,IBuff *>,void *> > >::~_Alloc_construct_ptr<std::allocator<std::_Tree_node<std::pair<unsigned long const ,IBuff *>,void *> > >
  00008	cc		 int	 3
  00009	cc		 int	 3
  0000a	cc		 int	 3
  0000b	cc		 int	 3
  0000c	cc		 int	 3
__ehhandler$??4CBuffMgr@@QAEAAV0@AAV0@@Z:
  0000d	90		 npad	 1
  0000e	90		 npad	 1
  0000f	8b 54 24 08	 mov	 edx, DWORD PTR [esp+8]
  00013	8d 42 0c	 lea	 eax, DWORD PTR [edx+12]
  00016	8b 4a bc	 mov	 ecx, DWORD PTR [edx-68]
  00019	33 c8		 xor	 ecx, eax
  0001b	e8 00 00 00 00	 call	 @__security_check_cookie@4
  00020	b8 00 00 00 00	 mov	 eax, OFFSET __ehfuncinfo$??4CBuffMgr@@QAEAAV0@AAV0@@Z
  00025	e9 00 00 00 00	 jmp	 ___CxxFrameHandler3
text$x	ENDS
??4CBuffMgr@@QAEAAV0@AAV0@@Z ENDP			; CBuffMgr::operator=
; Function compile flags: /Ogtp
; File C:\IAGOS\server\v18\Source\Source\_Common\buff.cpp
; File C:\IAGOS\server\v18\Source\Source\_Network\Misc\Include\ar.h
; File C:\IAGOS\server\v18\Source\Source\_Common\buff.cpp
; File C:\Program Files\Microsoft Visual Studio\2022\Professional\VC\Tools\MSVC\14.44.35207\include\xtree
; File C:\IAGOS\server\v18\Source\Source\_Common\buff.cpp
; File C:\Program Files\Microsoft Visual Studio\2022\Professional\VC\Tools\MSVC\14.44.35207\include\xtree
; File C:\IAGOS\server\v18\Source\Source\_Common\buff.cpp
; File C:\IAGOS\server\v18\Source\Source\_Common\buff.h
; File C:\Program Files\Microsoft Visual Studio\2022\Professional\VC\Tools\MSVC\14.44.35207\include\utility
; File C:\IAGOS\server\v18\Source\Source\_Common\buff.h
; File C:\Program Files\Microsoft Visual Studio\2022\Professional\VC\Tools\MSVC\14.44.35207\include\xtree
; File C:\IAGOS\server\v18\Source\Source\_Common\buff.h
; File C:\Program Files\Microsoft Visual Studio\2022\Professional\VC\Tools\MSVC\14.44.35207\include\utility
; File C:\Program Files\Microsoft Visual Studio\2022\Professional\VC\Tools\MSVC\14.44.35207\include\xtree
; File C:\Program Files\Microsoft Visual Studio\2022\Professional\VC\Tools\MSVC\14.44.35207\include\type_traits
; File C:\Program Files\Microsoft Visual Studio\2022\Professional\VC\Tools\MSVC\14.44.35207\include\xtree
; File C:\Program Files\Microsoft Visual Studio\2022\Professional\VC\Tools\MSVC\14.44.35207\include\xmemory
; File C:\Program Files\Microsoft Visual Studio\2022\Professional\VC\Tools\MSVC\14.44.35207\include\xtree
; File C:\Program Files\Microsoft Visual Studio\2022\Professional\VC\Tools\MSVC\14.44.35207\include\xmemory
; File C:\Program Files\Microsoft Visual Studio\2022\Professional\VC\Tools\MSVC\14.44.35207\include\xtree
; File C:\Program Files\Microsoft Visual Studio\2022\Professional\VC\Tools\MSVC\14.44.35207\include\xmemory
; File C:\Program Files\Microsoft Visual Studio\2022\Professional\VC\Tools\MSVC\14.44.35207\include\xtree
; File C:\Program Files\Microsoft Visual Studio\2022\Professional\VC\Tools\MSVC\14.44.35207\include\utility
; File C:\Program Files\Microsoft Visual Studio\2022\Professional\VC\Tools\MSVC\14.44.35207\include\xtree
; File C:\IAGOS\server\v18\Source\Source\_Common\buff.cpp
; File C:\Program Files\Microsoft Visual Studio\2022\Professional\VC\Tools\MSVC\14.44.35207\include\xtree
; File C:\IAGOS\server\v18\Source\Source\_Common\buff.cpp
;	COMDAT ?Serialize@CBuffMgr@@QAEXAAVCAr@@@Z
_TEXT	SEGMENT
$T2 = -72						; size = 12
__Loc$3 = -60						; size = 12
$T4 = -48						; size = 8
$T5 = -40						; size = 8
_wType$6 = -32						; size = 2
_t$7 = -28						; size = 4
_i$1$ = -24						; size = 4
$T8 = -20						; size = 4
$T9 = -16						; size = 4
__$EHRec$ = -12						; size = 12
_ar$ = 8						; size = 4
$T10 = 8						; size = 4
_i$11 = 8						; size = 4
?Serialize@CBuffMgr@@QAEXAAVCAr@@@Z PROC		; CBuffMgr::Serialize, COMDAT
; _this$ = ecx

; 935  : {

  00000	55		 push	 ebp
  00001	8b ec		 mov	 ebp, esp
  00003	6a ff		 push	 -1
  00005	68 00 00 00 00	 push	 __ehhandler$?Serialize@CBuffMgr@@QAEXAAVCAr@@@Z
  0000a	64 a1 00 00 00
	00		 mov	 eax, DWORD PTR fs:0
  00010	50		 push	 eax
  00011	83 ec 3c	 sub	 esp, 60			; 0000003cH
  00014	53		 push	 ebx
  00015	56		 push	 esi
  00016	57		 push	 edi
  00017	a1 00 00 00 00	 mov	 eax, DWORD PTR ___security_cookie
  0001c	33 c5		 xor	 eax, ebp
  0001e	50		 push	 eax
  0001f	8d 45 f4	 lea	 eax, DWORD PTR __$EHRec$[ebp]
  00022	64 a3 00 00 00
	00		 mov	 DWORD PTR fs:0, eax
  00028	8b f9		 mov	 edi, ecx
; File C:\IAGOS\server\v18\Source\Source\_Network\Misc\Include\ar.h

; 146  : 	return (m_nMode & CAr::load) == 0;

  0002a	8b 5d 08	 mov	 ebx, DWORD PTR _ar$[ebp]
  0002d	f6 03 01	 test	 BYTE PTR [ebx], 1
; File C:\IAGOS\server\v18\Source\Source\_Common\buff.cpp

; 936  : 	if( ar.IsStoring() )

  00030	75 64		 jne	 SHORT $LN8@Serialize

; 937  : 	{
; 938  : 		// ar << m_mapBuffs.size();
; 939  : 		// chipi_090217
; 940  : 		ar << m_mapBuffs.size() - GetRemoveBuffSize();

  00032	8b 77 08	 mov	 esi, DWORD PTR [edi+8]
  00035	e8 00 00 00 00	 call	 ?GetRemoveBuffSize@CBuffMgr@@AAEIXZ ; CBuffMgr::GetRemoveBuffSize
  0003a	2b f0		 sub	 esi, eax
  0003c	8b cb		 mov	 ecx, ebx
  0003e	8d 45 08	 lea	 eax, DWORD PTR $T10[ebp]
  00041	89 75 08	 mov	 DWORD PTR $T10[ebp], esi
  00044	50		 push	 eax
  00045	e8 00 00 00 00	 call	 ??$?6I@CAr@@QAEAAV0@ABI@Z ; CAr::operator<<<unsigned int>
; File C:\Program Files\Microsoft Visual Studio\2022\Professional\VC\Tools\MSVC\14.44.35207\include\xtree

; 1142 :         return iterator(_Scary->_Myhead->_Left, _Scary);

  0004a	8b 4f 04	 mov	 ecx, DWORD PTR [edi+4]

; 37   :     _Tree_unchecked_const_iterator(_Nodeptr _Pnode, const _Mytree* _Plist) noexcept : _Ptr(_Pnode) {

  0004d	8b 01		 mov	 eax, DWORD PTR [ecx]
  0004f	89 45 08	 mov	 DWORD PTR _i$11[ebp], eax

; 237  :         return !(*this == _Right);

  00052	3b c1		 cmp	 eax, ecx
; File C:\IAGOS\server\v18\Source\Source\_Common\buff.cpp

; 941  : 		for( MAPBUFF::iterator i = m_mapBuffs.begin(); i != m_mapBuffs.end(); ++i )

  00054	0f 84 38 01 00
	00		 je	 $LN9@Serialize
  0005a	66 0f 1f 44 00
	00		 npad	 6
$LL4@Serialize:

; 942  : 		{
; 943  : 			if( !i->second->GetRemove() )	// chipi_090217

  00060	8b 48 14	 mov	 ecx, DWORD PTR [eax+20]
  00063	83 79 18 00	 cmp	 DWORD PTR [ecx+24], 0
  00067	75 09		 jne	 SHORT $LN2@Serialize

; 944  : 				i->second->Serialize( ar, GetMover() );

  00069	ff 77 0c	 push	 DWORD PTR [edi+12]
  0006c	8b 01		 mov	 eax, DWORD PTR [ecx]
  0006e	53		 push	 ebx
  0006f	ff 50 04	 call	 DWORD PTR [eax+4]
$LN2@Serialize:
; File C:\Program Files\Microsoft Visual Studio\2022\Professional\VC\Tools\MSVC\14.44.35207\include\xtree

; 198  :         _Mybase::operator++();

  00072	8d 4d 08	 lea	 ecx, DWORD PTR _i$11[ebp]
  00075	e8 00 00 00 00	 call	 ??E?$_Tree_unchecked_const_iterator@V?$_Tree_val@U?$_Tree_simple_types@U?$pair@$$CBKPAVIBuff@@@std@@@std@@@std@@U_Iterator_base0@2@@std@@QAEAAV01@XZ ; std::_Tree_unchecked_const_iterator<std::_Tree_val<std::_Tree_simple_types<std::pair<unsigned long const ,IBuff *> > >,std::_Iterator_base0>::operator++

; 237  :         return !(*this == _Right);

  0007a	8b 45 08	 mov	 eax, DWORD PTR _i$11[ebp]
  0007d	3b 47 04	 cmp	 eax, DWORD PTR [edi+4]
; File C:\IAGOS\server\v18\Source\Source\_Common\buff.cpp

; 941  : 		for( MAPBUFF::iterator i = m_mapBuffs.begin(); i != m_mapBuffs.end(); ++i )

  00080	75 de		 jne	 SHORT $LL4@Serialize

; 966  : }

  00082	8b 4d f4	 mov	 ecx, DWORD PTR __$EHRec$[ebp]
  00085	64 89 0d 00 00
	00 00		 mov	 DWORD PTR fs:0, ecx
  0008c	59		 pop	 ecx
  0008d	5f		 pop	 edi
  0008e	5e		 pop	 esi
  0008f	5b		 pop	 ebx
  00090	8b e5		 mov	 esp, ebp
  00092	5d		 pop	 ebp
  00093	c2 04 00	 ret	 4
$LN8@Serialize:

; 945  : 		}
; 946  : 	}
; 947  : 	else
; 948  : 	{
; 949  : 		Clear();

  00096	e8 00 00 00 00	 call	 ?Clear@CBuffMgr@@QAEXXZ	; CBuffMgr::Clear

; 950  : 		size_t t;
; 951  : 		ar >> t;

  0009b	8d 45 e4	 lea	 eax, DWORD PTR _t$7[ebp]
  0009e	8b cb		 mov	 ecx, ebx
  000a0	50		 push	 eax
  000a1	e8 00 00 00 00	 call	 ??$?5I@CAr@@QAEAAV0@AAI@Z ; CAr::operator>><unsigned int>

; 952  : 		for( size_t i = 0; i < t; i++ )

  000a6	33 f6		 xor	 esi, esi
  000a8	89 75 e8	 mov	 DWORD PTR _i$1$[ebp], esi
  000ab	39 75 e4	 cmp	 DWORD PTR _t$7[ebp], esi
  000ae	0f 86 d7 00 00
	00		 jbe	 $LN6@Serialize
  000b4	8d 5f 04	 lea	 ebx, DWORD PTR [edi+4]
$LL7@Serialize:

; 953  : 		{
; 954  : 			WORD wType;
; 955  : 			ar >> wType;

  000b7	8b 4d 08	 mov	 ecx, DWORD PTR _ar$[ebp]
  000ba	8d 45 e0	 lea	 eax, DWORD PTR _wType$6[ebp]
  000bd	50		 push	 eax
  000be	e8 00 00 00 00	 call	 ??$?5G@CAr@@QAEAAV0@AAG@Z ; CAr::operator>><unsigned short>

; 956  : 			IBuff* pBuff	
; 957  : 				= CreateBuff( wType );

  000c3	8b 07		 mov	 eax, DWORD PTR [edi]
  000c5	8b cf		 mov	 ecx, edi
  000c7	ff 75 e0	 push	 DWORD PTR _wType$6[ebp]
  000ca	ff 50 04	 call	 DWORD PTR [eax+4]

; 958  : 			pBuff->Serialize( ar, GetMover() );

  000cd	ff 77 0c	 push	 DWORD PTR [edi+12]
  000d0	8b c8		 mov	 ecx, eax
  000d2	89 45 ec	 mov	 DWORD PTR $T8[ebp], eax
  000d5	ff 75 08	 push	 DWORD PTR _ar$[ebp]
  000d8	8b 10		 mov	 edx, DWORD PTR [eax]
  000da	ff 52 04	 call	 DWORD PTR [edx+4]
; File C:\IAGOS\server\v18\Source\Source\_Common\buff.h

; 215  : 	bool	Add( IBuff* pBuff )	{	return m_mapBuffs.insert( MAPBUFF::value_type( MAKELONG( pBuff->GetId(), pBuff->GetType() ), pBuff ) ).second;	}

  000dd	8b 55 ec	 mov	 edx, DWORD PTR $T8[ebp]
; File C:\Program Files\Microsoft Visual Studio\2022\Professional\VC\Tools\MSVC\14.44.35207\include\utility

; 274  :         : first(_STD forward<_Other1>(_Val1)), second(_STD forward<_Other2>(_Val2)) {

  000e0	89 55 dc	 mov	 DWORD PTR $T5[ebp+4], edx
; File C:\IAGOS\server\v18\Source\Source\_Common\buff.h

; 215  : 	bool	Add( IBuff* pBuff )	{	return m_mapBuffs.insert( MAPBUFF::value_type( MAKELONG( pBuff->GetId(), pBuff->GetType() ), pBuff ) ).second;	}

  000e3	0f b7 4a 04	 movzx	 ecx, WORD PTR [edx+4]
  000e7	0f b7 42 06	 movzx	 eax, WORD PTR [edx+6]
  000eb	c1 e1 10	 shl	 ecx, 16			; 00000010H
  000ee	0b c8		 or	 ecx, eax
; File C:\Program Files\Microsoft Visual Studio\2022\Professional\VC\Tools\MSVC\14.44.35207\include\xtree

; 1017 :             _Loc                = _Find_lower_bound(_Keyval);

  000f0	8d 45 d8	 lea	 eax, DWORD PTR $T5[ebp]
  000f3	50		 push	 eax
  000f4	8d 45 b8	 lea	 eax, DWORD PTR $T2[ebp]
; File C:\IAGOS\server\v18\Source\Source\_Common\buff.h

; 215  : 	bool	Add( IBuff* pBuff )	{	return m_mapBuffs.insert( MAPBUFF::value_type( MAKELONG( pBuff->GetId(), pBuff->GetType() ), pBuff ) ).second;	}

  000f7	89 4d f0	 mov	 DWORD PTR $T9[ebp], ecx
; File C:\Program Files\Microsoft Visual Studio\2022\Professional\VC\Tools\MSVC\14.44.35207\include\utility

; 274  :         : first(_STD forward<_Other1>(_Val1)), second(_STD forward<_Other2>(_Val2)) {

  000fa	89 4d d8	 mov	 DWORD PTR $T5[ebp], ecx
; File C:\Program Files\Microsoft Visual Studio\2022\Professional\VC\Tools\MSVC\14.44.35207\include\xtree

; 1017 :             _Loc                = _Find_lower_bound(_Keyval);

  000fd	8b cb		 mov	 ecx, ebx
  000ff	50		 push	 eax
  00100	e8 00 00 00 00	 call	 ??$_Find_lower_bound@K@?$_Tree@V?$_Tmap_traits@KPAVIBuff@@U?$less@K@std@@V?$allocator@U?$pair@$$CBKPAVIBuff@@@std@@@3@$0A@@std@@@std@@IBE?AU?$_Tree_find_result@PAU?$_Tree_node@U?$pair@$$CBKPAVIBuff@@@std@@PAX@std@@@1@ABK@Z ; std::_Tree<std::_Tmap_traits<unsigned long,IBuff *,std::less<unsigned long>,std::allocator<std::pair<unsigned long const ,IBuff *> >,0> >::_Find_lower_bound<unsigned long>
  00105	8b 48 08	 mov	 ecx, DWORD PTR [eax+8]
  00108	f3 0f 7e 00	 movq	 xmm0, QWORD PTR [eax]
  0010c	66 0f d6 45 c4	 movq	 QWORD PTR __Loc$3[ebp], xmm0

; 1624 :         return !_Bound->_Isnil && !_DEBUG_LT_PRED(_Getcomp(), _Keyval, _Traits::_Kfn(_Bound->_Myval));

  00111	80 79 0d 00	 cmp	 BYTE PTR [ecx+13], 0
  00115	75 08		 jne	 SHORT $LN53@Serialize
; File C:\Program Files\Microsoft Visual Studio\2022\Professional\VC\Tools\MSVC\14.44.35207\include\type_traits

; 2380 :         return _Left < _Right;

  00117	8b 45 f0	 mov	 eax, DWORD PTR $T9[ebp]
  0011a	3b 41 10	 cmp	 eax, DWORD PTR [ecx+16]
; File C:\Program Files\Microsoft Visual Studio\2022\Professional\VC\Tools\MSVC\14.44.35207\include\xtree

; 1624 :         return !_Bound->_Isnil && !_DEBUG_LT_PRED(_Getcomp(), _Keyval, _Traits::_Kfn(_Bound->_Myval));

  0011d	73 5f		 jae	 SHORT $LN133@Serialize
$LN53@Serialize:

; 1648 :         if (max_size() == _Get_scary()->_Mysize) {

  0011f	81 7b 04 aa aa
	aa 0a		 cmp	 DWORD PTR [ebx+4], 178956970 ; 0aaaaaaaH
  00126	74 7e		 je	 SHORT $LN175@Serialize

; 1023 :             _Inserted = _Tree_temp_node<_Alnode>(_Getal(), _Scary->_Myhead, _STD forward<_Valtys>(_Vals)...)._Release();

  00128	8b 33		 mov	 esi, DWORD PTR [ebx]
; File C:\Program Files\Microsoft Visual Studio\2022\Professional\VC\Tools\MSVC\14.44.35207\include\xmemory

; 1160 :     _CONSTEXPR20 explicit _Alloc_construct_ptr(_Alloc& _Al_) : _Al(_Al_), _Ptr(nullptr) {}

  0012a	89 5d d0	 mov	 DWORD PTR $T4[ebp], ebx

; 136  :         return ::operator new(_Bytes);

  0012d	6a 18		 push	 24			; 00000018H
; File C:\Program Files\Microsoft Visual Studio\2022\Professional\VC\Tools\MSVC\14.44.35207\include\xtree

; 808  :     explicit _Tree_temp_node_alloc(_Alnode& _Al_) : _Alloc_construct_ptr<_Alnode>(_Al_) {

  0012f	c7 45 fc 00 00
	00 00		 mov	 DWORD PTR __$EHRec$[ebp+8], 0
; File C:\Program Files\Microsoft Visual Studio\2022\Professional\VC\Tools\MSVC\14.44.35207\include\xmemory

; 1167 :         _Ptr = nullptr; // if allocate throws, prevents double-free

  00136	c7 45 d4 00 00
	00 00		 mov	 DWORD PTR $T4[ebp+4], 0

; 136  :         return ::operator new(_Bytes);

  0013d	e8 00 00 00 00	 call	 ??2@YAPAXI@Z		; operator new
; File C:\Program Files\Microsoft Visual Studio\2022\Professional\VC\Tools\MSVC\14.44.35207\include\xtree

; 830  :         _Alnode_traits::construct(this->_Al, _STD addressof(this->_Ptr->_Myval), _STD forward<_Valtys>(_Vals)...);

  00142	8b 4d f0	 mov	 ecx, DWORD PTR $T9[ebp]
; File C:\Program Files\Microsoft Visual Studio\2022\Professional\VC\Tools\MSVC\14.44.35207\include\xmemory

; 136  :         return ::operator new(_Bytes);

  00145	83 c4 04	 add	 esp, 4
; File C:\Program Files\Microsoft Visual Studio\2022\Professional\VC\Tools\MSVC\14.44.35207\include\xtree

; 810  :     }

  00148	c7 45 fc ff ff
	ff ff		 mov	 DWORD PTR __$EHRec$[ebp+8], -1
; File C:\Program Files\Microsoft Visual Studio\2022\Professional\VC\Tools\MSVC\14.44.35207\include\utility

; 774  :     _Val         = static_cast<_Other&&>(_New_val);

  0014f	c7 45 d4 00 00
	00 00		 mov	 DWORD PTR $T4[ebp+4], 0
; File C:\Program Files\Microsoft Visual Studio\2022\Professional\VC\Tools\MSVC\14.44.35207\include\xtree

; 830  :         _Alnode_traits::construct(this->_Al, _STD addressof(this->_Ptr->_Myval), _STD forward<_Valtys>(_Vals)...);

  00156	89 48 10	 mov	 DWORD PTR [eax+16], ecx
  00159	8b 4d ec	 mov	 ecx, DWORD PTR $T8[ebp]
  0015c	89 48 14	 mov	 DWORD PTR [eax+20], ecx

; 1042 :         return {_Scary->_Insert_node(_Loc._Location, _Inserted), true};

  0015f	8b cb		 mov	 ecx, ebx
  00161	50		 push	 eax
  00162	ff 75 c8	 push	 DWORD PTR __Loc$3[ebp+4]

; 831  :         _Construct_in_place(this->_Ptr->_Left, _Myhead);

  00165	89 30		 mov	 DWORD PTR [eax], esi

; 1042 :         return {_Scary->_Insert_node(_Loc._Location, _Inserted), true};

  00167	ff 75 c4	 push	 DWORD PTR __Loc$3[ebp]

; 832  :         _Construct_in_place(this->_Ptr->_Parent, _Myhead);

  0016a	89 70 04	 mov	 DWORD PTR [eax+4], esi

; 833  :         _Construct_in_place(this->_Ptr->_Right, _Myhead);

  0016d	89 70 08	 mov	 DWORD PTR [eax+8], esi

; 834  :         this->_Ptr->_Color = _Red;

  00170	66 c7 40 0c 00
	00		 mov	 WORD PTR [eax+12], 0

; 1042 :         return {_Scary->_Insert_node(_Loc._Location, _Inserted), true};

  00176	e8 00 00 00 00	 call	 ?_Insert_node@?$_Tree_val@U?$_Tree_simple_types@U?$pair@$$CBKPAVIBuff@@@std@@@std@@@std@@QAEPAU?$_Tree_node@U?$pair@$$CBKPAVIBuff@@@std@@PAX@2@U?$_Tree_id@PAU?$_Tree_node@U?$pair@$$CBKPAVIBuff@@@std@@PAX@std@@@2@QAU32@@Z ; std::_Tree_val<std::_Tree_simple_types<std::pair<unsigned long const ,IBuff *> > >::_Insert_node
  0017b	8b 75 e8	 mov	 esi, DWORD PTR _i$1$[ebp]
$LN133@Serialize:
; File C:\IAGOS\server\v18\Source\Source\_Common\buff.cpp

; 952  : 		for( size_t i = 0; i < t; i++ )

  0017e	46		 inc	 esi
  0017f	89 75 e8	 mov	 DWORD PTR _i$1$[ebp], esi
  00182	3b 75 e4	 cmp	 esi, DWORD PTR _t$7[ebp]
  00185	0f 82 2c ff ff
	ff		 jb	 $LL7@Serialize
$LN6@Serialize:

; 959  : 			bool bResult	= Add( pBuff );
; 960  : 			ASSERT( bResult );
; 961  : 		}
; 962  : #ifndef __DBSERVER
; 963  : 		Process();

  0018b	8b cf		 mov	 ecx, edi
  0018d	e8 00 00 00 00	 call	 ?Process@CBuffMgr@@QAEXXZ ; CBuffMgr::Process
$LN9@Serialize:

; 966  : }

  00192	8b 4d f4	 mov	 ecx, DWORD PTR __$EHRec$[ebp]
  00195	64 89 0d 00 00
	00 00		 mov	 DWORD PTR fs:0, ecx
  0019c	59		 pop	 ecx
  0019d	5f		 pop	 edi
  0019e	5e		 pop	 esi
  0019f	5b		 pop	 ebx
  001a0	8b e5		 mov	 esp, ebp
  001a2	5d		 pop	 ebp
  001a3	c2 04 00	 ret	 4
$LN175@Serialize:
; File C:\Program Files\Microsoft Visual Studio\2022\Professional\VC\Tools\MSVC\14.44.35207\include\xtree

; 1649 :             _Throw_tree_length_error();

  001a6	e8 00 00 00 00	 call	 ?_Throw_tree_length_error@std@@YAXXZ ; std::_Throw_tree_length_error
$LN186@Serialize:
  001ab	cc		 int	 3
_TEXT	ENDS
;	COMDAT text$x
text$x	SEGMENT
__unwindfunclet$?Serialize@CBuffMgr@@QAEXAAVCAr@@@Z$2:
  00000	8d 4d d0	 lea	 ecx, DWORD PTR $T4[ebp]
  00003	e9 00 00 00 00	 jmp	 ??1?$_Alloc_construct_ptr@V?$allocator@U?$_Tree_node@U?$pair@$$CBKPAVIBuff@@@std@@PAX@std@@@std@@@std@@QAE@XZ ; std::_Alloc_construct_ptr<std::allocator<std::_Tree_node<std::pair<unsigned long const ,IBuff *>,void *> > >::~_Alloc_construct_ptr<std::allocator<std::_Tree_node<std::pair<unsigned long const ,IBuff *>,void *> > >
  00008	cc		 int	 3
  00009	cc		 int	 3
  0000a	cc		 int	 3
  0000b	cc		 int	 3
  0000c	cc		 int	 3
__ehhandler$?Serialize@CBuffMgr@@QAEXAAVCAr@@@Z:
  0000d	90		 npad	 1
  0000e	90		 npad	 1
  0000f	8b 54 24 08	 mov	 edx, DWORD PTR [esp+8]
  00013	8d 42 0c	 lea	 eax, DWORD PTR [edx+12]
  00016	8b 4a b4	 mov	 ecx, DWORD PTR [edx-76]
  00019	33 c8		 xor	 ecx, eax
  0001b	e8 00 00 00 00	 call	 @__security_check_cookie@4
  00020	b8 00 00 00 00	 mov	 eax, OFFSET __ehfuncinfo$?Serialize@CBuffMgr@@QAEXAAVCAr@@@Z
  00025	e9 00 00 00 00	 jmp	 ___CxxFrameHandler3
text$x	ENDS
?Serialize@CBuffMgr@@QAEXAAVCAr@@@Z ENDP		; CBuffMgr::Serialize
; Function compile flags: /Ogtp
; File C:\IAGOS\server\v18\Source\Source\_Common\buff.cpp
; File C:\Program Files\Microsoft Visual Studio\2022\Professional\VC\Tools\MSVC\14.44.35207\include\xtree
; File C:\IAGOS\server\v18\Source\Source\_Common\buff.cpp
; File C:\Program Files\Microsoft Visual Studio\2022\Professional\VC\Tools\MSVC\14.44.35207\include\xtree
; File C:\IAGOS\server\v18\Source\Source\_Common\buff.cpp
; File C:\Program Files\Microsoft Visual Studio\2022\Professional\VC\Tools\MSVC\14.44.35207\include\xtree
; File C:\IAGOS\server\v18\Source\Source\_Common\buff.cpp
;	COMDAT ?Clear@CBuffMgr@@QAEXXZ
_TEXT	SEGMENT
_i$1 = -4						; size = 4
?Clear@CBuffMgr@@QAEXXZ PROC				; CBuffMgr::Clear, COMDAT
; _this$ = ecx

; 665  : {

  00000	55		 push	 ebp
  00001	8b ec		 mov	 ebp, esp
  00003	51		 push	 ecx
; File C:\Program Files\Microsoft Visual Studio\2022\Professional\VC\Tools\MSVC\14.44.35207\include\xtree

; 1142 :         return iterator(_Scary->_Myhead->_Left, _Scary);

  00004	8b 41 04	 mov	 eax, DWORD PTR [ecx+4]
; File C:\IAGOS\server\v18\Source\Source\_Common\buff.cpp

; 665  : {

  00007	56		 push	 esi
  00008	57		 push	 edi
; File C:\Program Files\Microsoft Visual Studio\2022\Professional\VC\Tools\MSVC\14.44.35207\include\xtree

; 1142 :         return iterator(_Scary->_Myhead->_Left, _Scary);

  00009	8d 79 04	 lea	 edi, DWORD PTR [ecx+4]

; 37   :     _Tree_unchecked_const_iterator(_Nodeptr _Pnode, const _Mytree* _Plist) noexcept : _Ptr(_Pnode) {

  0000c	8b 30		 mov	 esi, DWORD PTR [eax]
  0000e	89 75 fc	 mov	 DWORD PTR _i$1[ebp], esi

; 237  :         return !(*this == _Right);

  00011	3b f0		 cmp	 esi, eax
; File C:\IAGOS\server\v18\Source\Source\_Common\buff.cpp

; 666  : 	for( MAPBUFF::iterator i = m_mapBuffs.begin(); i != m_mapBuffs.end(); ++i )

  00013	74 23		 je	 SHORT $LN3@Clear
$LL4@Clear:

; 667  : 		SAFE_DELETE( i->second );

  00015	8b 4e 14	 mov	 ecx, DWORD PTR [esi+20]
  00018	85 c9		 test	 ecx, ecx
  0001a	74 0d		 je	 SHORT $LN2@Clear
  0001c	8b 01		 mov	 eax, DWORD PTR [ecx]
  0001e	6a 01		 push	 1
  00020	ff 10		 call	 DWORD PTR [eax]
  00022	c7 46 14 00 00
	00 00		 mov	 DWORD PTR [esi+20], 0
$LN2@Clear:
; File C:\Program Files\Microsoft Visual Studio\2022\Professional\VC\Tools\MSVC\14.44.35207\include\xtree

; 198  :         _Mybase::operator++();

  00029	8d 4d fc	 lea	 ecx, DWORD PTR _i$1[ebp]
  0002c	e8 00 00 00 00	 call	 ??E?$_Tree_unchecked_const_iterator@V?$_Tree_val@U?$_Tree_simple_types@U?$pair@$$CBKPAVIBuff@@@std@@@std@@@std@@U_Iterator_base0@2@@std@@QAEAAV01@XZ ; std::_Tree_unchecked_const_iterator<std::_Tree_val<std::_Tree_simple_types<std::pair<unsigned long const ,IBuff *> > >,std::_Iterator_base0>::operator++

; 237  :         return !(*this == _Right);

  00031	8b 75 fc	 mov	 esi, DWORD PTR _i$1[ebp]
  00034	3b 37		 cmp	 esi, DWORD PTR [edi]
; File C:\IAGOS\server\v18\Source\Source\_Common\buff.cpp

; 666  : 	for( MAPBUFF::iterator i = m_mapBuffs.begin(); i != m_mapBuffs.end(); ++i )

  00036	75 dd		 jne	 SHORT $LL4@Clear
$LN3@Clear:

; 668  : 	m_mapBuffs.clear();

  00038	8b cf		 mov	 ecx, edi
  0003a	e8 00 00 00 00	 call	 ?clear@?$_Tree@V?$_Tmap_traits@KPAVIBuff@@U?$less@K@std@@V?$allocator@U?$pair@$$CBKPAVIBuff@@@std@@@3@$0A@@std@@@std@@QAEXXZ ; std::_Tree<std::_Tmap_traits<unsigned long,IBuff *,std::less<unsigned long>,std::allocator<std::pair<unsigned long const ,IBuff *> >,0> >::clear
  0003f	5f		 pop	 edi
  00040	5e		 pop	 esi

; 669  : }

  00041	8b e5		 mov	 esp, ebp
  00043	5d		 pop	 ebp
  00044	c3		 ret	 0
?Clear@CBuffMgr@@QAEXXZ ENDP				; CBuffMgr::Clear
_TEXT	ENDS
; Function compile flags: /Ogtp
; File C:\IAGOS\server\v18\Source\Source\_Common\buff.cpp
;	COMDAT ??1CBuffMgr@@UAE@XZ
_TEXT	SEGMENT
??1CBuffMgr@@UAE@XZ PROC				; CBuffMgr::~CBuffMgr, COMDAT
; _this$ = ecx

; 660  : {

  00000	56		 push	 esi
  00001	8b f1		 mov	 esi, ecx
  00003	c7 06 00 00 00
	00		 mov	 DWORD PTR [esi], OFFSET ??_7CBuffMgr@@6B@

; 661  : 	Clear();

  00009	e8 00 00 00 00	 call	 ?Clear@CBuffMgr@@QAEXXZ	; CBuffMgr::Clear

; 662  : }

  0000e	8d 4e 04	 lea	 ecx, DWORD PTR [esi+4]
  00011	5e		 pop	 esi
  00012	e9 00 00 00 00	 jmp	 ??1?$_Tree@V?$_Tmap_traits@KPAVIBuff@@U?$less@K@std@@V?$allocator@U?$pair@$$CBKPAVIBuff@@@std@@@3@$0A@@std@@@std@@QAE@XZ ; std::_Tree<std::_Tmap_traits<unsigned long,IBuff *,std::less<unsigned long>,std::allocator<std::pair<unsigned long const ,IBuff *> >,0> >::~_Tree<std::_Tmap_traits<unsigned long,IBuff *,std::less<unsigned long>,std::allocator<std::pair<unsigned long const ,IBuff *> >,0> >
??1CBuffMgr@@UAE@XZ ENDP				; CBuffMgr::~CBuffMgr
_TEXT	ENDS
; Function compile flags: /Ogtp
; File C:\IAGOS\server\v18\Source\Source\_Common\buff.cpp
; File C:\Program Files\Microsoft Visual Studio\2022\Professional\VC\Tools\MSVC\14.44.35207\include\xmemory
; File C:\IAGOS\server\v18\Source\Source\_Common\buff.cpp
; File C:\Program Files\Microsoft Visual Studio\2022\Professional\VC\Tools\MSVC\14.44.35207\include\xtree
; File C:\Program Files\Microsoft Visual Studio\2022\Professional\VC\Tools\MSVC\14.44.35207\include\xmemory
; File C:\Program Files\Microsoft Visual Studio\2022\Professional\VC\Tools\MSVC\14.44.35207\include\xtree
; File C:\IAGOS\server\v18\Source\Source\_Common\buff.cpp
;	COMDAT ??0CBuffMgr@@QAE@PAVCMover@@@Z
_TEXT	SEGMENT
_this$ = -4						; size = 4
_this$ = -4						; size = 4
_pMover$ = 8						; size = 4
??0CBuffMgr@@QAE@PAVCMover@@@Z PROC			; CBuffMgr::CBuffMgr, COMDAT
; _this$ = ecx

; 656  : {

  00000	55		 push	 ebp
  00001	8b ec		 mov	 ebp, esp
  00003	51		 push	 ecx
  00004	56		 push	 esi
  00005	57		 push	 edi
  00006	8b f9		 mov	 edi, ecx
  00008	8d 77 04	 lea	 esi, DWORD PTR [edi+4]
  0000b	89 7d fc	 mov	 DWORD PTR _this$[ebp], edi
; File C:\Program Files\Microsoft Visual Studio\2022\Professional\VC\Tools\MSVC\14.44.35207\include\xmemory

; 136  :         return ::operator new(_Bytes);

  0000e	6a 18		 push	 24			; 00000018H
; File C:\IAGOS\server\v18\Source\Source\_Common\buff.cpp

; 656  : {

  00010	89 75 fc	 mov	 DWORD PTR _this$[ebp], esi
  00013	c7 07 00 00 00
	00		 mov	 DWORD PTR [edi], OFFSET ??_7CBuffMgr@@6B@
; File C:\Program Files\Microsoft Visual Studio\2022\Professional\VC\Tools\MSVC\14.44.35207\include\xtree

; 450  :     _Tree_val() noexcept : _Myhead(), _Mysize(0) {}

  00019	c7 06 00 00 00
	00		 mov	 DWORD PTR [esi], 0
  0001f	c7 46 04 00 00
	00 00		 mov	 DWORD PTR [esi+4], 0
; File C:\Program Files\Microsoft Visual Studio\2022\Professional\VC\Tools\MSVC\14.44.35207\include\xmemory

; 136  :         return ::operator new(_Bytes);

  00026	e8 00 00 00 00	 call	 ??2@YAPAXI@Z		; operator new
  0002b	83 c4 04	 add	 esp, 4
; File C:\Program Files\Microsoft Visual Studio\2022\Professional\VC\Tools\MSVC\14.44.35207\include\xtree

; 346  :         _Construct_in_place(_Pnode->_Left, _Pnode);

  0002e	89 00		 mov	 DWORD PTR [eax], eax

; 347  :         _Construct_in_place(_Pnode->_Parent, _Pnode);

  00030	89 40 04	 mov	 DWORD PTR [eax+4], eax

; 348  :         _Construct_in_place(_Pnode->_Right, _Pnode);

  00033	89 40 08	 mov	 DWORD PTR [eax+8], eax

; 349  :         _Pnode->_Color = _Black;

  00036	66 c7 40 0c 01
	01		 mov	 WORD PTR [eax+12], 257	; 00000101H

; 1957 :         _Scary->_Myhead = _Node::_Buyheadnode(_Getal());

  0003c	89 06		 mov	 DWORD PTR [esi], eax
; File C:\IAGOS\server\v18\Source\Source\_Common\buff.cpp

; 655  : m_pMover( pMover )

  0003e	8b 45 08	 mov	 eax, DWORD PTR _pMover$[ebp]
  00041	89 47 0c	 mov	 DWORD PTR [edi+12], eax

; 657  : }

  00044	8b c7		 mov	 eax, edi
  00046	5f		 pop	 edi
  00047	5e		 pop	 esi
  00048	8b e5		 mov	 esp, ebp
  0004a	5d		 pop	 ebp
  0004b	c2 04 00	 ret	 4
??0CBuffMgr@@QAE@PAVCMover@@@Z ENDP			; CBuffMgr::CBuffMgr
_TEXT	ENDS
; Function compile flags: /Ogtp
;	COMDAT ??_GCBuffEquip@@UAEPAXI@Z
_TEXT	SEGMENT
___flags$ = 8						; size = 4
??_GCBuffEquip@@UAEPAXI@Z PROC				; CBuffEquip::`scalar deleting destructor', COMDAT
; _this$ = ecx
  00000	55		 push	 ebp
  00001	8b ec		 mov	 ebp, esp
  00003	f6 45 08 01	 test	 BYTE PTR ___flags$[ebp], 1
  00007	56		 push	 esi
  00008	8b f1		 mov	 esi, ecx
  0000a	c7 06 00 00 00
	00		 mov	 DWORD PTR [esi], OFFSET ??_7IBuff@@6B@
  00010	74 0b		 je	 SHORT $LN5@scalar
  00012	6a 1c		 push	 28			; 0000001cH
  00014	56		 push	 esi
  00015	e8 00 00 00 00	 call	 ??3@YAXPAXI@Z		; operator delete
  0001a	83 c4 08	 add	 esp, 8
$LN5@scalar:
  0001d	8b c6		 mov	 eax, esi
  0001f	5e		 pop	 esi
  00020	5d		 pop	 ebp
  00021	c2 04 00	 ret	 4
??_GCBuffEquip@@UAEPAXI@Z ENDP				; CBuffEquip::`scalar deleting destructor'
_TEXT	ENDS
; Function compile flags: /Ogtp
; File C:\IAGOS\server\v18\Source\Source\_Common\buff.h
;	COMDAT ?IsCommon@CBuffEquip@@UAEHXZ
_TEXT	SEGMENT
?IsCommon@CBuffEquip@@UAEHXZ PROC			; CBuffEquip::IsCommon, COMDAT
; _this$ = ecx

; 188  : 	virtual	BOOL	IsCommon()	{	return FALSE;	}

  00000	33 c0		 xor	 eax, eax
  00002	c3		 ret	 0
?IsCommon@CBuffEquip@@UAEHXZ ENDP			; CBuffEquip::IsCommon
_TEXT	ENDS
; Function compile flags: /Ogtp
; File C:\IAGOS\server\v18\Source\Source\_Common\buff.h
;	COMDAT ?IsRemovable@CBuffEquip@@UAEHPAVCMover@@@Z
_TEXT	SEGMENT
_pMover$ = 8						; size = 4
?IsRemovable@CBuffEquip@@UAEHPAVCMover@@@Z PROC		; CBuffEquip::IsRemovable, COMDAT
; _this$ = ecx

; 187  : 	virtual	BOOL	IsRemovable( CMover* pMover )	{	return FALSE;	}

  00000	33 c0		 xor	 eax, eax
  00002	c2 04 00	 ret	 4
?IsRemovable@CBuffEquip@@UAEHPAVCMover@@@Z ENDP		; CBuffEquip::IsRemovable
_TEXT	ENDS
; Function compile flags: /Ogtp
; File C:\IAGOS\server\v18\Source\Source\_Common\buff.h
;	COMDAT ??1CBuffEquip@@UAE@XZ
_TEXT	SEGMENT
??1CBuffEquip@@UAE@XZ PROC				; CBuffEquip::~CBuffEquip, COMDAT
; _this$ = ecx

; 186  : 	virtual	~CBuffEquip()	{}

  00000	c7 01 00 00 00
	00		 mov	 DWORD PTR [ecx], OFFSET ??_7IBuff@@6B@
  00006	c3		 ret	 0
??1CBuffEquip@@UAE@XZ ENDP				; CBuffEquip::~CBuffEquip
_TEXT	ENDS
; Function compile flags: /Ogtp
;	COMDAT ??_GCBuffItem2@@UAEPAXI@Z
_TEXT	SEGMENT
___flags$ = 8						; size = 4
??_GCBuffItem2@@UAEPAXI@Z PROC				; CBuffItem2::`scalar deleting destructor', COMDAT
; _this$ = ecx
  00000	55		 push	 ebp
  00001	8b ec		 mov	 ebp, esp
  00003	f6 45 08 01	 test	 BYTE PTR ___flags$[ebp], 1
  00007	56		 push	 esi
  00008	8b f1		 mov	 esi, ecx
  0000a	c7 06 00 00 00
	00		 mov	 DWORD PTR [esi], OFFSET ??_7IBuff@@6B@
  00010	74 0b		 je	 SHORT $LN5@scalar
  00012	6a 1c		 push	 28			; 0000001cH
  00014	56		 push	 esi
  00015	e8 00 00 00 00	 call	 ??3@YAXPAXI@Z		; operator delete
  0001a	83 c4 08	 add	 esp, 8
$LN5@scalar:
  0001d	8b c6		 mov	 eax, esi
  0001f	5e		 pop	 esi
  00020	5d		 pop	 ebp
  00021	c2 04 00	 ret	 4
??_GCBuffItem2@@UAEPAXI@Z ENDP				; CBuffItem2::`scalar deleting destructor'
_TEXT	ENDS
; Function compile flags: /Ogtp
; File C:\IAGOS\server\v18\Source\Source\_Common\buff.cpp
;	COMDAT ?Timeover@CBuffItem2@@UAEHPAVCMover@@K@Z
_TEXT	SEGMENT
_pMover$ = 8						; size = 4
_tmCurrnet$ = 12					; size = 4
?Timeover@CBuffItem2@@UAEHPAVCMover@@K@Z PROC		; CBuffItem2::Timeover, COMDAT
; _this$ = ecx

; 623  : {

  00000	55		 push	 ebp
  00001	8b ec		 mov	 ebp, esp

; 624  : 	time_t	t	= time_null();
; 625  : 	if( (DWORD)( t ) >= GetLevel() )

  00003	a1 00 00 00 00	 mov	 eax, DWORD PTR ?g_tCurrent@@3JA ; g_tCurrent
  00008	3b 41 08	 cmp	 eax, DWORD PTR [ecx+8]
  0000b	72 36		 jb	 SHORT $LN2@Timeover

; 626  : 	{
; 627  : #ifdef __WORLDSERVER
; 628  : 		ItemProp *pProp	= GetProp();

  0000d	8b 01		 mov	 eax, DWORD PTR [ecx]
  0000f	ff 50 24	 call	 DWORD PTR [eax+36]

; 629  : 		if( pProp && pMover->IsPlayer() )

  00012	85 c0		 test	 eax, eax
  00014	74 24		 je	 SHORT $LN3@Timeover
  00016	8b 4d 08	 mov	 ecx, DWORD PTR _pMover$[ebp]
  00019	83 b9 30 02 00
	00 00		 cmp	 DWORD PTR [ecx+560], 0
  00020	74 18		 je	 SHORT $LN3@Timeover

; 630  : 			g_dpDBClient.SendLogSMItemUse( "2", static_cast<CUser*>( pMover ), NULL, pProp );

  00022	68 00 00 00 00	 push	 OFFSET ??_C@_00CNPNBAHC@@
  00027	50		 push	 eax
  00028	6a 00		 push	 0
  0002a	51		 push	 ecx
  0002b	68 00 00 00 00	 push	 OFFSET ??_C@_01FDFGLJHB@2@
  00030	b9 00 00 00 00	 mov	 ecx, OFFSET ?g_dpDBClient@@3VCDPDatabaseClient@@A ; g_dpDBClient
  00035	e8 00 00 00 00	 call	 ?SendLogSMItemUse@CDPDatabaseClient@@QAEXPBDPAVCUser@@PAVCItemElem@@PAUItemProp@@0@Z ; CDPDatabaseClient::SendLogSMItemUse
$LN3@Timeover:

; 631  : #endif	// __WORLDSERVER
; 632  : 		return TRUE;

  0003a	b8 01 00 00 00	 mov	 eax, 1

; 635  : }

  0003f	5d		 pop	 ebp
  00040	c2 08 00	 ret	 8
$LN2@Timeover:

; 633  : 	}
; 634  : 	return FALSE;

  00043	33 c0		 xor	 eax, eax

; 635  : }

  00045	5d		 pop	 ebp
  00046	c2 08 00	 ret	 8
?Timeover@CBuffItem2@@UAEHPAVCMover@@K@Z ENDP		; CBuffItem2::Timeover
_TEXT	ENDS
; Function compile flags: /Ogtp
; File C:\IAGOS\server\v18\Source\Source\_Common\buff.cpp
; File C:\IAGOS\server\v18\Source\Source\_Network\Misc\Include\ar.h
; File C:\IAGOS\server\v18\Source\Source\_Common\buff.cpp
;	COMDAT ?SerializeLevel@CBuffItem2@@UAEXAAVCAr@@@Z
_TEXT	SEGMENT
_ar$ = 8						; size = 4
_t$1 = 8						; size = 4
_t$2 = 8						; size = 4
?SerializeLevel@CBuffItem2@@UAEXAAVCAr@@@Z PROC		; CBuffItem2::SerializeLevel, COMDAT
; _this$ = ecx

; 638  : {

  00000	55		 push	 ebp
  00001	8b ec		 mov	 ebp, esp
  00003	56		 push	 esi
  00004	8b f1		 mov	 esi, ecx
; File C:\IAGOS\server\v18\Source\Source\_Network\Misc\Include\ar.h

; 146  : 	return (m_nMode & CAr::load) == 0;

  00006	8b 4d 08	 mov	 ecx, DWORD PTR _ar$[ebp]
  00009	f6 01 01	 test	 BYTE PTR [ecx], 1
; File C:\IAGOS\server\v18\Source\Source\_Common\buff.cpp

; 639  : 	if( ar.IsStoring() )

  0000c	75 1a		 jne	 SHORT $LN2@SerializeL

; 640  : 	{
; 641  : 		time_t t	= static_cast<time_t>( GetLevel() ) - time_null();

  0000e	8b 46 08	 mov	 eax, DWORD PTR [esi+8]
  00011	2b 05 00 00 00
	00		 sub	 eax, DWORD PTR ?g_tCurrent@@3JA ; g_tCurrent
  00017	89 45 08	 mov	 DWORD PTR _t$1[ebp], eax

; 642  : 		ar << t;

  0001a	8d 45 08	 lea	 eax, DWORD PTR _t$1[ebp]
  0001d	50		 push	 eax
  0001e	e8 00 00 00 00	 call	 ??$?6J@CAr@@QAEAAV0@ABJ@Z ; CAr::operator<<<long>
  00023	5e		 pop	 esi

; 649  : 	}
; 650  : }

  00024	5d		 pop	 ebp
  00025	c2 04 00	 ret	 4
$LN2@SerializeL:

; 643  : 	}
; 644  : 	else
; 645  : 	{
; 646  : 		time_t t;
; 647  : 		ar >> t;

  00028	8d 45 08	 lea	 eax, DWORD PTR _t$2[ebp]
  0002b	50		 push	 eax
  0002c	e8 00 00 00 00	 call	 ??$?5J@CAr@@QAEAAV0@AAJ@Z ; CAr::operator>><long>

; 648  : 		SetLevel( time_null() + t );

  00031	a1 00 00 00 00	 mov	 eax, DWORD PTR ?g_tCurrent@@3JA ; g_tCurrent
  00036	03 45 08	 add	 eax, DWORD PTR _t$2[ebp]
  00039	89 46 08	 mov	 DWORD PTR [esi+8], eax
  0003c	5e		 pop	 esi

; 649  : 	}
; 650  : }

  0003d	5d		 pop	 ebp
  0003e	c2 04 00	 ret	 4
?SerializeLevel@CBuffItem2@@UAEXAAVCAr@@@Z ENDP		; CBuffItem2::SerializeLevel
_TEXT	ENDS
; Function compile flags: /Ogtp
; File C:\IAGOS\server\v18\Source\Source\_Common\buff.h
;	COMDAT ??1CBuffItem2@@UAE@XZ
_TEXT	SEGMENT
??1CBuffItem2@@UAE@XZ PROC				; CBuffItem2::~CBuffItem2, COMDAT
; _this$ = ecx

; 177  : 	virtual	~CBuffItem2()	{}

  00000	c7 01 00 00 00
	00		 mov	 DWORD PTR [ecx], OFFSET ??_7IBuff@@6B@
  00006	c3		 ret	 0
??1CBuffItem2@@UAE@XZ ENDP				; CBuffItem2::~CBuffItem2
_TEXT	ENDS
; Function compile flags: /Ogtp
;	COMDAT ??_GCBuffPet@@UAEPAXI@Z
_TEXT	SEGMENT
___flags$ = 8						; size = 4
??_GCBuffPet@@UAEPAXI@Z PROC				; CBuffPet::`scalar deleting destructor', COMDAT
; _this$ = ecx
  00000	55		 push	 ebp
  00001	8b ec		 mov	 ebp, esp
  00003	f6 45 08 01	 test	 BYTE PTR ___flags$[ebp], 1
  00007	56		 push	 esi
  00008	8b f1		 mov	 esi, ecx
  0000a	c7 06 00 00 00
	00		 mov	 DWORD PTR [esi], OFFSET ??_7IBuff@@6B@
  00010	74 0b		 je	 SHORT $LN5@scalar
  00012	6a 1c		 push	 28			; 0000001cH
  00014	56		 push	 esi
  00015	e8 00 00 00 00	 call	 ??3@YAXPAXI@Z		; operator delete
  0001a	83 c4 08	 add	 esp, 8
$LN5@scalar:
  0001d	8b c6		 mov	 eax, esi
  0001f	5e		 pop	 esi
  00020	5d		 pop	 ebp
  00021	c2 04 00	 ret	 4
??_GCBuffPet@@UAEPAXI@Z ENDP				; CBuffPet::`scalar deleting destructor'
_TEXT	ENDS
; Function compile flags: /Ogtp
; File C:\IAGOS\server\v18\Source\Source\_Common\buff.cpp
;	COMDAT ?Release@CBuffPet@@MAEXPAVCBuffMgr@@@Z
_TEXT	SEGMENT
_pBuffMgr$ = 8						; size = 4
?Release@CBuffPet@@MAEXPAVCBuffMgr@@@Z PROC		; CBuffPet::Release, COMDAT
; _this$ = ecx

; 615  : {

  00000	55		 push	 ebp
  00001	8b ec		 mov	 ebp, esp

; 616  : #ifdef __WORLDSERVER
; 617  : 	pBuffMgr->GetMover()->ResetDestParam( HIWORD( GetLevel() ), LOWORD( GetLevel() ), TRUE );

  00003	0f b7 41 08	 movzx	 eax, WORD PTR [ecx+8]
  00007	6a 01		 push	 1
  00009	50		 push	 eax
  0000a	0f b7 41 0a	 movzx	 eax, WORD PTR [ecx+10]
  0000e	8b 4d 08	 mov	 ecx, DWORD PTR _pBuffMgr$[ebp]
  00011	50		 push	 eax
  00012	8b 49 0c	 mov	 ecx, DWORD PTR [ecx+12]
  00015	e8 00 00 00 00	 call	 ?ResetDestParam@CMover@@QAEXHHH@Z ; CMover::ResetDestParam

; 618  : #endif	// __WORLDSERVER
; 619  : }

  0001a	5d		 pop	 ebp
  0001b	c2 04 00	 ret	 4
?Release@CBuffPet@@MAEXPAVCBuffMgr@@@Z ENDP		; CBuffPet::Release
_TEXT	ENDS
; Function compile flags: /Ogtp
; File C:\IAGOS\server\v18\Source\Source\_Common\buff.cpp
;	COMDAT ?Apply@CBuffPet@@MAEXPAVCMover@@@Z
_TEXT	SEGMENT
_pMover$ = 8						; size = 4
?Apply@CBuffPet@@MAEXPAVCMover@@@Z PROC			; CBuffPet::Apply, COMDAT
; _this$ = ecx

; 610  : {

  00000	55		 push	 ebp
  00001	8b ec		 mov	 ebp, esp

; 611  : 	pMover->SetDestParam( HIWORD( GetLevel() ), LOWORD( GetLevel() ), NULL_CHGPARAM, FALSE );

  00003	0f b7 41 08	 movzx	 eax, WORD PTR [ecx+8]
  00007	6a 00		 push	 0
  00009	68 ff ff ff 7f	 push	 2147483647		; 7fffffffH
  0000e	50		 push	 eax
  0000f	0f b7 41 0a	 movzx	 eax, WORD PTR [ecx+10]
  00013	8b 4d 08	 mov	 ecx, DWORD PTR _pMover$[ebp]
  00016	50		 push	 eax
  00017	e8 00 00 00 00	 call	 ?SetDestParam@CMover@@QAEXHHHH@Z ; CMover::SetDestParam

; 612  : }

  0001c	5d		 pop	 ebp
  0001d	c2 04 00	 ret	 4
?Apply@CBuffPet@@MAEXPAVCMover@@@Z ENDP			; CBuffPet::Apply
_TEXT	ENDS
; Function compile flags: /Ogtp
; File C:\IAGOS\server\v18\Source\Source\_Common\buff.h
;	COMDAT ?IsCommon@CBuffPet@@UAEHXZ
_TEXT	SEGMENT
?IsCommon@CBuffPet@@UAEHXZ PROC				; CBuffPet::IsCommon, COMDAT
; _this$ = ecx

; 167  : 	virtual	BOOL	IsCommon()	{	return FALSE;	}

  00000	33 c0		 xor	 eax, eax
  00002	c3		 ret	 0
?IsCommon@CBuffPet@@UAEHXZ ENDP				; CBuffPet::IsCommon
_TEXT	ENDS
; Function compile flags: /Ogtp
; File C:\IAGOS\server\v18\Source\Source\_Common\buff.h
;	COMDAT ?IsRemovable@CBuffPet@@UAEHPAVCMover@@@Z
_TEXT	SEGMENT
_pMover$ = 8						; size = 4
?IsRemovable@CBuffPet@@UAEHPAVCMover@@@Z PROC		; CBuffPet::IsRemovable, COMDAT
; _this$ = ecx

; 166  : 	virtual	BOOL	IsRemovable( CMover* pMover )	{	return FALSE;	}

  00000	33 c0		 xor	 eax, eax
  00002	c2 04 00	 ret	 4
?IsRemovable@CBuffPet@@UAEHPAVCMover@@@Z ENDP		; CBuffPet::IsRemovable
_TEXT	ENDS
; Function compile flags: /Ogtp
; File C:\IAGOS\server\v18\Source\Source\_Common\buff.h
;	COMDAT ??1CBuffPet@@UAE@XZ
_TEXT	SEGMENT
??1CBuffPet@@UAE@XZ PROC				; CBuffPet::~CBuffPet, COMDAT
; _this$ = ecx

; 165  : 	virtual	~CBuffPet()	{}

  00000	c7 01 00 00 00
	00		 mov	 DWORD PTR [ecx], OFFSET ??_7IBuff@@6B@
  00006	c3		 ret	 0
??1CBuffPet@@UAE@XZ ENDP				; CBuffPet::~CBuffPet
_TEXT	ENDS
; Function compile flags: /Ogtp
;	COMDAT ??_GCBuffSkill@@UAEPAXI@Z
_TEXT	SEGMENT
___flags$ = 8						; size = 4
??_GCBuffSkill@@UAEPAXI@Z PROC				; CBuffSkill::`scalar deleting destructor', COMDAT
; _this$ = ecx
  00000	55		 push	 ebp
  00001	8b ec		 mov	 ebp, esp
  00003	f6 45 08 01	 test	 BYTE PTR ___flags$[ebp], 1
  00007	56		 push	 esi
  00008	8b f1		 mov	 esi, ecx
  0000a	c7 06 00 00 00
	00		 mov	 DWORD PTR [esi], OFFSET ??_7IBuff@@6B@
  00010	74 0b		 je	 SHORT $LN5@scalar
  00012	6a 1c		 push	 28			; 0000001cH
  00014	56		 push	 esi
  00015	e8 00 00 00 00	 call	 ??3@YAXPAXI@Z		; operator delete
  0001a	83 c4 08	 add	 esp, 8
$LN5@scalar:
  0001d	8b c6		 mov	 eax, esi
  0001f	5e		 pop	 esi
  00020	5d		 pop	 ebp
  00021	c2 04 00	 ret	 4
??_GCBuffSkill@@UAEPAXI@Z ENDP				; CBuffSkill::`scalar deleting destructor'
_TEXT	ENDS
; Function compile flags: /Ogtp
; File C:\IAGOS\server\v18\Source\Source\_Common\buff.cpp
; File C:\IAGOS\server\v18\Source\Source\_Common\Project.h
; File C:\IAGOS\server\v18\Source\Source\_Common\buff.cpp
; File C:\IAGOS\server\v18\Source\Source\_Common\data.h
; File C:\IAGOS\server\v18\Source\Source\_Common\buff.cpp
;	COMDAT ?OnExpire@CBuffSkill@@UAEXPAVCMover@@@Z
_TEXT	SEGMENT
_pMover$ = 8						; size = 4
?OnExpire@CBuffSkill@@UAEXPAVCMover@@@Z PROC		; CBuffSkill::OnExpire, COMDAT
; _this$ = ecx

; 595  : {

  00000	55		 push	 ebp
  00001	8b ec		 mov	 ebp, esp
  00003	57		 push	 edi
  00004	8b f9		 mov	 edi, ecx

; 596  : 	if( GetId() == SI_GEN_BURN )

  00006	b8 34 01 00 00	 mov	 eax, 308		; 00000134H
  0000b	66 39 47 06	 cmp	 WORD PTR [edi+6], ax
  0000f	0f 85 8e 00 00
	00		 jne	 $LN2@OnExpire
; File C:\IAGOS\server\v18\Source\Source\_Common\Project.h

; 1395 : 	VERIFY_RANGE( nIndex, 0, m_aPropSkill.GetSize(), "GetSkillProp range_error", NULL );

  00015	a1 64 02 00 00	 mov	 eax, DWORD PTR ?prj@@3VCProject@@A+612
  0001a	3d 34 01 00 00	 cmp	 eax, 308		; 00000134H
  0001f	7f 1e		 jg	 SHORT $LN5@OnExpire

; 579  : 	LPCTSTR szErr = Error( _T( "%s min:%d, max:%d, index:%d" ), szMsg, nMin, nMax, nIndex ); 

  00021	68 34 01 00 00	 push	 308			; 00000134H
  00026	50		 push	 eax
  00027	6a 00		 push	 0
  00029	68 00 00 00 00	 push	 OFFSET ??_C@_0BJ@GPNGCFMK@GetSkillProp?5range_error@
  0002e	68 00 00 00 00	 push	 OFFSET ??_C@_0BM@HMFGHCP@?$CFs?5min?3?$CFd?0?5max?3?$CFd?0?5index?3?$CFd@
  00033	e8 00 00 00 00	 call	 ?Error@@YAPBDPBDZZ	; Error
  00038	83 c4 14	 add	 esp, 20			; 00000014H
$LN19@OnExpire:
; File C:\IAGOS\server\v18\Source\Source\_Common\buff.cpp

; 601  : 		int nDamage	= xRandom( nMin, nMax );

  0003b	33 c0		 xor	 eax, eax
  0003d	eb 0d		 jmp	 SHORT $LN13@OnExpire
$LN5@OnExpire:
; File C:\IAGOS\server\v18\Source\Source\_Common\data.h

; 270  : 	if( dwIndex >= (DWORD)m_nMaxIndex )

  0003f	76 fa		 jbe	 SHORT $LN19@OnExpire

; 271  : 		return NULL;
; 272  : 	return (T*) m_apOffset[ dwIndex ];

  00041	a1 54 02 00 00	 mov	 eax, DWORD PTR ?prj@@3VCProject@@A+596
  00046	8b 80 d0 04 00
	00		 mov	 eax, DWORD PTR [eax+1232]
$LN13@OnExpire:
  0004c	56		 push	 esi
; File C:\IAGOS\server\v18\Source\Source\_Common\buff.cpp

; 601  : 		int nDamage	= xRandom( nMin, nMax );

  0004d	ff b0 e8 00 00
	00		 push	 DWORD PTR [eax+232]
  00053	ff b0 e4 00 00
	00		 push	 DWORD PTR [eax+228]
  00059	e8 00 00 00 00	 call	 ?xRandom@@YAKKK@Z	; xRandom

; 602  : 		pMover->SendDamage( AF_FORCE, GetAttacker(), nDamage );

  0005e	8b 75 08	 mov	 esi, DWORD PTR _pMover$[ebp]
  00061	83 c4 08	 add	 esp, 8
  00064	8b ce		 mov	 ecx, esi
  00066	8b 16		 mov	 edx, DWORD PTR [esi]
  00068	6a 01		 push	 1
  0006a	50		 push	 eax
  0006b	ff 77 14	 push	 DWORD PTR [edi+20]
  0006e	68 00 20 00 00	 push	 8192			; 00002000H
  00073	ff 52 34	 call	 DWORD PTR [edx+52]

; 603  : 		g_UserMng.AddCreateSfxObj( pMover, XI_SKILL_ELE_FIRE_BURINGFIELD02 );

  00076	6a 00		 push	 0
  00078	83 ec 0c	 sub	 esp, 12			; 0000000cH
  0007b	b9 00 00 00 00	 mov	 ecx, OFFSET ?g_UserMng@@3VCUserMng@@A ; g_UserMng
  00080	c7 44 24 08 00
	00 00 00	 mov	 DWORD PTR [esp+8], 0
  00088	c7 44 24 04 00
	00 00 00	 mov	 DWORD PTR [esp+4], 0
  00090	c7 04 24 00 00
	00 00		 mov	 DWORD PTR [esp], 0
  00097	68 a5 01 00 00	 push	 421			; 000001a5H
  0009c	56		 push	 esi
  0009d	e8 00 00 00 00	 call	 ?AddCreateSfxObj@CUserMng@@QAEXPAVCCtrl@@KMMMH@Z ; CUserMng::AddCreateSfxObj
  000a2	5e		 pop	 esi
$LN2@OnExpire:
  000a3	5f		 pop	 edi

; 604  : 	}
; 605  : }

  000a4	5d		 pop	 ebp
  000a5	c2 04 00	 ret	 4
?OnExpire@CBuffSkill@@UAEXPAVCMover@@@Z ENDP		; CBuffSkill::OnExpire
_TEXT	ENDS
; Function compile flags: /Ogtp
; File C:\IAGOS\server\v18\Source\Source\_Common\buff.cpp
;	COMDAT ?Apply@CBuffSkill@@MAEXPAVCMover@@@Z
_TEXT	SEGMENT
_pSkillProp$ = -4					; size = 4
_pMover$ = 8						; size = 4
_pAddSkillProp$ = 8					; size = 4
?Apply@CBuffSkill@@MAEXPAVCMover@@@Z PROC		; CBuffSkill::Apply, COMDAT
; _this$ = ecx

; 489  : {

  00000	55		 push	 ebp
  00001	8b ec		 mov	 ebp, esp
  00003	51		 push	 ecx

; 490  : #ifdef __CLIENT
; 491  : 	if( !pMover )	return;
; 492  : #endif	// __CLIENT
; 493  : 	ItemProp* pSkillProp;
; 494  : 	AddSkillProp* pAddSkillProp;
; 495  : 	BOOL bResult	= pMover->GetSkillProp( &pSkillProp, &pAddSkillProp, GetId(), GetLevel(), "CBuffSkill.Apply" );

  00004	0f b7 41 06	 movzx	 eax, WORD PTR [ecx+6]
  00008	56		 push	 esi
  00009	8b 75 08	 mov	 esi, DWORD PTR _pMover$[ebp]
  0000c	68 00 00 00 00	 push	 OFFSET ??_C@_0BB@CAGKBMEO@CBuffSkill?4Apply@
  00011	ff 71 08	 push	 DWORD PTR [ecx+8]
  00014	8b ce		 mov	 ecx, esi
  00016	8b 16		 mov	 edx, DWORD PTR [esi]
  00018	50		 push	 eax
  00019	8d 45 08	 lea	 eax, DWORD PTR _pAddSkillProp$[ebp]
  0001c	50		 push	 eax
  0001d	8d 45 fc	 lea	 eax, DWORD PTR _pSkillProp$[ebp]
  00020	50		 push	 eax
  00021	ff 52 30	 call	 DWORD PTR [edx+48]

; 496  : 	if( bResult )

  00024	85 c0		 test	 eax, eax
  00026	74 12		 je	 SHORT $LN2@Apply

; 497  : 		pMover->ApplyParam( pMover, pSkillProp, pAddSkillProp, FALSE, 0 );

  00028	6a 00		 push	 0
  0002a	6a 00		 push	 0
  0002c	ff 75 08	 push	 DWORD PTR _pAddSkillProp$[ebp]
  0002f	8b ce		 mov	 ecx, esi
  00031	ff 75 fc	 push	 DWORD PTR _pSkillProp$[ebp]
  00034	56		 push	 esi
  00035	e8 00 00 00 00	 call	 ?ApplyParam@CMover@@QAEHPAVCCtrl@@PAUItemProp@@PAUAddSkillProp@@HH@Z ; CMover::ApplyParam
$LN2@Apply:
  0003a	5e		 pop	 esi

; 498  : }

  0003b	8b e5		 mov	 esp, ebp
  0003d	5d		 pop	 ebp
  0003e	c2 04 00	 ret	 4
?Apply@CBuffSkill@@MAEXPAVCMover@@@Z ENDP		; CBuffSkill::Apply
_TEXT	ENDS
; Function compile flags: /Ogtp
; File C:\IAGOS\server\v18\Source\Source\_Common\buff.cpp
;	COMDAT ?IsInvalid@CBuffSkill@@MAEHPAVCMover@@@Z
_TEXT	SEGMENT
_pMover$ = 8						; size = 4
?IsInvalid@CBuffSkill@@MAEHPAVCMover@@@Z PROC		; CBuffSkill::IsInvalid, COMDAT
; _this$ = ecx

; 409  : {

  00000	55		 push	 ebp
  00001	8b ec		 mov	 ebp, esp

; 410  : #ifdef __WORLDSERVER
; 411  : 	switch( GetId() )

  00003	0f b7 41 06	 movzx	 eax, WORD PTR [ecx+6]
  00007	57		 push	 edi
  00008	3d 35 01 00 00	 cmp	 eax, 309		; 00000135H
  0000d	0f 87 ce 00 00
	00		 ja	 $LN44@IsInvalid
  00013	0f 84 b5 00 00
	00		 je	 $LN17@IsInvalid
  00019	83 e8 07	 sub	 eax, 7
  0001c	3d e9 00 00 00	 cmp	 eax, 233		; 000000e9H
  00021	77 4d		 ja	 SHORT $LN40@IsInvalid
  00023	0f b6 80 00 00
	00 00		 movzx	 eax, BYTE PTR $LN57@IsInvalid[eax]
  0002a	ff 24 85 00 00
	00 00		 jmp	 DWORD PTR $LN58@IsInvalid[eax*4]
$LN21@IsInvalid:

; 440  : 				return TRUE;
; 441  : 			break;
; 442  : 		case SI_MER_SUP_IMPOWERWEAPON:		// 
; 443  : 			{
; 444  : 				BOOL bRelease	= FALSE;
; 445  : 				CItemElem* pRight	= pMover->GetWeaponItem();

  00031	8b 4d 08	 mov	 ecx, DWORD PTR _pMover$[ebp]
  00034	6a 0a		 push	 10			; 0000000aH
  00036	e8 00 00 00 00	 call	 ?GetWeaponItem@CMover@@QAEPAVCItemElem@@H@Z ; CMover::GetWeaponItem

; 446  : 				CItemElem* pLeft	= pMover->GetLWeaponItem();

  0003b	8b 4d 08	 mov	 ecx, DWORD PTR _pMover$[ebp]
  0003e	8b f8		 mov	 edi, eax
  00040	e8 00 00 00 00	 call	 ?GetLWeaponItem@CMover@@QAEPAVCItemElem@@XZ ; CMover::GetLWeaponItem

; 447  : 				if( pRight && pLeft )

  00045	85 ff		 test	 edi, edi
  00047	74 2e		 je	 SHORT $LN45@IsInvalid
  00049	8a 4f 7c	 mov	 cl, BYTE PTR [edi+124]
  0004c	85 c0		 test	 eax, eax
  0004e	74 11		 je	 SHORT $LN22@IsInvalid

; 448  : 					bRelease	= pRight->m_bItemResist == SAI79::NO_PROP

  00050	84 c9		 test	 cl, cl
  00052	75 09		 jne	 SHORT $LN42@IsInvalid
  00054	38 48 7c	 cmp	 BYTE PTR [eax+124], cl
  00057	0f 84 df 00 00
	00		 je	 $LN48@IsInvalid
$LN42@IsInvalid:
  0005d	33 c0		 xor	 eax, eax
  0005f	eb 07		 jmp	 SHORT $LN26@IsInvalid
$LN22@IsInvalid:

; 449  : 												&& pLeft->m_bItemResist == SAI79::NO_PROP;
; 450  : 				else if( pRight && !pLeft )
; 451  : 					bRelease	= pRight->m_bItemResist == SAI79::NO_PROP;

  00061	33 c0		 xor	 eax, eax
  00063	84 c9		 test	 cl, cl
  00065	0f 94 c0	 sete	 al
$LN26@IsInvalid:

; 453  : 					bRelease	= TRUE;
; 454  : 				if( bRelease )

  00068	85 c0		 test	 eax, eax
$LN68@IsInvalid:

; 481  : 			break;
; 482  : #endif
; 483  : 	}
; 484  : #endif	// __WORLDSERVER
; 485  : 	return FALSE;

  0006a	0f 85 cc 00 00
	00		 jne	 $LN48@IsInvalid
$LN40@IsInvalid:
  00070	33 c0		 xor	 eax, eax
  00072	5f		 pop	 edi

; 486  : }

  00073	5d		 pop	 ebp
  00074	c2 04 00	 ret	 4
$LN45@IsInvalid:

; 452  : 				else if( !pRight && !pLeft )

  00077	85 c0		 test	 eax, eax
  00079	75 f5		 jne	 SHORT $LN40@IsInvalid

; 480  : 				return TRUE;

  0007b	b8 01 00 00 00	 mov	 eax, 1
  00080	5f		 pop	 edi

; 486  : }

  00081	5d		 pop	 ebp
  00082	c2 04 00	 ret	 4
$LN28@IsInvalid:

; 455  : 					return TRUE;
; 456  : 				break;
; 457  : 			}
; 458  : 		case SI_MER_SUP_BLAZINGSWORD:
; 459  : 		case SI_MER_SUP_SWORDMASTER:
; 460  : 			if( pMover->GetActiveHandItemProp()->dwWeaponType != WT_MELEE_SWD )

  00085	8b 4d 08	 mov	 ecx, DWORD PTR _pMover$[ebp]
  00088	6a 0a		 push	 10			; 0000000aH
  0008a	e8 00 00 00 00	 call	 ?GetActiveHandItemProp@CMover@@QAEPAUItemProp@@H@Z ; CMover::GetActiveHandItemProp
  0008f	83 b8 0c 01 00
	00 01		 cmp	 DWORD PTR [eax+268], 1
  00096	eb d2		 jmp	 SHORT $LN68@IsInvalid
$LN31@IsInvalid:

; 461  : 				return TRUE;
; 462  : 			break;
; 463  : 		case SI_MER_SUP_SMITEAXE:
; 464  : 		case SI_MER_SUP_AXEMASTER:
; 465  : 			if( pMover->GetActiveHandItemProp()->dwWeaponType != WT_MELEE_AXE )

  00098	8b 4d 08	 mov	 ecx, DWORD PTR _pMover$[ebp]
  0009b	6a 0a		 push	 10			; 0000000aH
  0009d	e8 00 00 00 00	 call	 ?GetActiveHandItemProp@CMover@@QAEPAUItemProp@@H@Z ; CMover::GetActiveHandItemProp
  000a2	83 b8 0c 01 00
	00 02		 cmp	 DWORD PTR [eax+268], 2
  000a9	eb bf		 jmp	 SHORT $LN68@IsInvalid
$LN34@IsInvalid:

; 466  : 				return TRUE;
; 467  : 			break;
; 468  : 		case SI_BIL_PST_ASMODEUS:
; 469  : 			if( pMover->GetActiveHandItemProp()->dwWeaponType != WT_MELEE_KNUCKLE )

  000ab	8b 4d 08	 mov	 ecx, DWORD PTR _pMover$[ebp]
  000ae	6a 0a		 push	 10			; 0000000aH
  000b0	e8 00 00 00 00	 call	 ?GetActiveHandItemProp@CMover@@QAEPAUItemProp@@H@Z ; CMover::GetActiveHandItemProp
  000b5	83 b8 0c 01 00
	00 04		 cmp	 DWORD PTR [eax+268], 4
  000bc	eb ac		 jmp	 SHORT $LN68@IsInvalid
$LN36@IsInvalid:

; 470  : 				return TRUE;
; 471  : 			break;
; 472  : 		case SI_MER_SHIELD_PROTECTION:
; 473  : 		case SI_MER_SHIELD_PANBARRIER:
; 474  : 			if( pMover->GetActiveHandItemProp( PARTS_SHIELD )->dwItemKind3 != IK3_SHIELD )

  000be	8b 4d 08	 mov	 ecx, DWORD PTR _pMover$[ebp]
  000c1	6a 0b		 push	 11			; 0000000bH
  000c3	e8 00 00 00 00	 call	 ?GetActiveHandItemProp@CMover@@QAEPAUItemProp@@H@Z ; CMover::GetActiveHandItemProp
  000c8	83 78 78 10	 cmp	 DWORD PTR [eax+120], 16	; 00000010H
  000cc	eb 9c		 jmp	 SHORT $LN68@IsInvalid
$LN17@IsInvalid:

; 432  : 				return TRUE;
; 433  : 			break;
; 434  : 		case SI_BLD_MASTER_ONEHANDMASTER:
; 435  : 			if( !pMover->IsDualWeapon() )

  000ce	8b 4d 08	 mov	 ecx, DWORD PTR _pMover$[ebp]
  000d1	e8 00 00 00 00	 call	 ?IsDualWeapon@CMover@@QAEHXZ ; CMover::IsDualWeapon
  000d6	85 c0		 test	 eax, eax
  000d8	74 62		 je	 SHORT $LN48@IsInvalid

; 481  : 			break;
; 482  : #endif
; 483  : 	}
; 484  : #endif	// __WORLDSERVER
; 485  : 	return FALSE;

  000da	33 c0		 xor	 eax, eax
  000dc	5f		 pop	 edi

; 486  : }

  000dd	5d		 pop	 ebp
  000de	c2 04 00	 ret	 4
$LN44@IsInvalid:

; 410  : #ifdef __WORLDSERVER
; 411  : 	switch( GetId() )

  000e1	2d 36 01 00 00	 sub	 eax, 310		; 00000136H
  000e6	83 f8 7d	 cmp	 eax, 125		; 0000007dH
  000e9	77 85		 ja	 SHORT $LN40@IsInvalid
  000eb	0f b6 80 00 00
	00 00		 movzx	 eax, BYTE PTR $LN59@IsInvalid[eax]
  000f2	ff 24 85 00 00
	00 00		 jmp	 DWORD PTR $LN60@IsInvalid[eax*4]
$LN4@IsInvalid:

; 412  : 	{
; 413  : 		case SI_JST_SUP_POISON:
; 414  : 		case SI_JST_SUP_BLEEDING:
; 415  : 		case SI_JST_SUP_ABSORB:
; 416  : 		case SI_ACR_SUP_YOYOMASTER:
; 417  : 		case SI_JST_YOYO_CRITICALSWING:
; 418  : #ifdef __3RD_LEGEND16
; 419  : 		case SI_JST_MASTER_YOYOMASTER:
; 420  : #endif
; 421  : 			if( pMover->GetActiveHandItemProp()->dwWeaponType != WT_MELEE_YOYO )

  000f9	8b 4d 08	 mov	 ecx, DWORD PTR _pMover$[ebp]
  000fc	6a 0a		 push	 10			; 0000000aH
  000fe	e8 00 00 00 00	 call	 ?GetActiveHandItemProp@CMover@@QAEPAUItemProp@@H@Z ; CMover::GetActiveHandItemProp
  00103	83 b8 0c 01 00
	00 14		 cmp	 DWORD PTR [eax+268], 20	; 00000014H
  0010a	e9 5b ff ff ff	 jmp	 $LN68@IsInvalid
$LN11@IsInvalid:

; 422  : 				return TRUE;
; 423  : 			break;
; 424  : 		case SI_RAG_SUP_FASTATTACK:
; 425  : 		case SI_ACR_SUP_BOWMASTER:
; 426  : #ifdef __3RD_LEGEND16
; 427  : 		case SI_RAG_MASTER_BOWMASTER:
; 428  : 		case SI_RAG_HERO_HAWKEYE:
; 429  : 		case SI_CRA_SUP_HAWKEYE:
; 430  : #endif
; 431  : 			if( pMover->GetActiveHandItemProp()->dwWeaponType != WT_RANGE_BOW )

  0010f	8b 4d 08	 mov	 ecx, DWORD PTR _pMover$[ebp]
  00112	6a 0a		 push	 10			; 0000000aH
  00114	e8 00 00 00 00	 call	 ?GetActiveHandItemProp@CMover@@QAEPAUItemProp@@H@Z ; CMover::GetActiveHandItemProp
  00119	83 b8 0c 01 00
	00 15		 cmp	 DWORD PTR [eax+268], 21	; 00000015H
  00120	e9 45 ff ff ff	 jmp	 $LN68@IsInvalid
$LN19@IsInvalid:

; 436  : 				return TRUE;
; 437  : 			break;
; 438  : 		case SI_KNT_MASTER_TWOHANDMASTER:
; 439  : 			if( pMover->GetActiveHandItemProp()->dwHanded != HD_TWO )

  00125	8b 4d 08	 mov	 ecx, DWORD PTR _pMover$[ebp]
  00128	6a 0a		 push	 10			; 0000000aH
  0012a	e8 00 00 00 00	 call	 ?GetActiveHandItemProp@CMover@@QAEPAUItemProp@@H@Z ; CMover::GetActiveHandItemProp
  0012f	83 b8 a0 00 00
	00 02		 cmp	 DWORD PTR [eax+160], 2
  00136	0f 84 34 ff ff
	ff		 je	 $LN40@IsInvalid
$LN48@IsInvalid:

; 480  : 				return TRUE;

  0013c	b8 01 00 00 00	 mov	 eax, 1
  00141	5f		 pop	 edi

; 486  : }

  00142	5d		 pop	 ebp
  00143	c2 04 00	 ret	 4
$LN39@IsInvalid:

; 475  : 				return TRUE;
; 476  : 			break;
; 477  : #ifdef __SLEEPING_FIX
; 478  : 		case SI_ELE_STF_SLIPPING:
; 479  : 			if ((pMover->GetAdjParam(DST_CHRSTATE) & CHS_STUN) == 0)

  00146	8b 4d 08	 mov	 ecx, DWORD PTR _pMover$[ebp]
  00149	6a 40		 push	 64			; 00000040H
  0014b	e8 00 00 00 00	 call	 ?GetAdjParam@CMover@@QAEHH@Z ; CMover::GetAdjParam
  00150	c1 e8 03	 shr	 eax, 3
  00153	f7 d0		 not	 eax
  00155	83 e0 01	 and	 eax, 1
  00158	5f		 pop	 edi

; 486  : }

  00159	5d		 pop	 ebp
  0015a	c2 04 00	 ret	 4
  0015d	0f 1f 00	 npad	 3
$LN58@IsInvalid:
  00160	00 00 00 00	 DD	 $LN28@IsInvalid
  00164	00 00 00 00	 DD	 $LN31@IsInvalid
  00168	00 00 00 00	 DD	 $LN36@IsInvalid
  0016c	00 00 00 00	 DD	 $LN21@IsInvalid
  00170	00 00 00 00	 DD	 $LN34@IsInvalid
  00174	00 00 00 00	 DD	 $LN4@IsInvalid
  00178	00 00 00 00	 DD	 $LN11@IsInvalid
  0017c	00 00 00 00	 DD	 $LN40@IsInvalid
$LN57@IsInvalid:
  00180	00		 DB	 0
  00181	01		 DB	 1
  00182	02		 DB	 2
  00183	02		 DB	 2
  00184	07		 DB	 7
  00185	07		 DB	 7
  00186	07		 DB	 7
  00187	07		 DB	 7
  00188	07		 DB	 7
  00189	07		 DB	 7
  0018a	07		 DB	 7
  0018b	07		 DB	 7
  0018c	07		 DB	 7
  0018d	07		 DB	 7
  0018e	07		 DB	 7
  0018f	07		 DB	 7
  00190	07		 DB	 7
  00191	07		 DB	 7
  00192	07		 DB	 7
  00193	07		 DB	 7
  00194	07		 DB	 7
  00195	07		 DB	 7
  00196	07		 DB	 7
  00197	07		 DB	 7
  00198	07		 DB	 7
  00199	07		 DB	 7
  0019a	07		 DB	 7
  0019b	07		 DB	 7
  0019c	07		 DB	 7
  0019d	07		 DB	 7
  0019e	07		 DB	 7
  0019f	07		 DB	 7
  001a0	07		 DB	 7
  001a1	07		 DB	 7
  001a2	07		 DB	 7
  001a3	07		 DB	 7
  001a4	07		 DB	 7
  001a5	07		 DB	 7
  001a6	07		 DB	 7
  001a7	07		 DB	 7
  001a8	07		 DB	 7
  001a9	07		 DB	 7
  001aa	07		 DB	 7
  001ab	07		 DB	 7
  001ac	07		 DB	 7
  001ad	07		 DB	 7
  001ae	07		 DB	 7
  001af	07		 DB	 7
  001b0	07		 DB	 7
  001b1	07		 DB	 7
  001b2	07		 DB	 7
  001b3	07		 DB	 7
  001b4	07		 DB	 7
  001b5	07		 DB	 7
  001b6	07		 DB	 7
  001b7	07		 DB	 7
  001b8	07		 DB	 7
  001b9	07		 DB	 7
  001ba	07		 DB	 7
  001bb	07		 DB	 7
  001bc	07		 DB	 7
  001bd	07		 DB	 7
  001be	07		 DB	 7
  001bf	07		 DB	 7
  001c0	07		 DB	 7
  001c1	07		 DB	 7
  001c2	07		 DB	 7
  001c3	07		 DB	 7
  001c4	07		 DB	 7
  001c5	07		 DB	 7
  001c6	07		 DB	 7
  001c7	07		 DB	 7
  001c8	07		 DB	 7
  001c9	07		 DB	 7
  001ca	07		 DB	 7
  001cb	07		 DB	 7
  001cc	07		 DB	 7
  001cd	07		 DB	 7
  001ce	07		 DB	 7
  001cf	07		 DB	 7
  001d0	07		 DB	 7
  001d1	07		 DB	 7
  001d2	07		 DB	 7
  001d3	07		 DB	 7
  001d4	07		 DB	 7
  001d5	07		 DB	 7
  001d6	07		 DB	 7
  001d7	07		 DB	 7
  001d8	07		 DB	 7
  001d9	07		 DB	 7
  001da	07		 DB	 7
  001db	07		 DB	 7
  001dc	07		 DB	 7
  001dd	07		 DB	 7
  001de	07		 DB	 7
  001df	07		 DB	 7
  001e0	07		 DB	 7
  001e1	07		 DB	 7
  001e2	07		 DB	 7
  001e3	07		 DB	 7
  001e4	07		 DB	 7
  001e5	00		 DB	 0
  001e6	01		 DB	 1
  001e7	07		 DB	 7
  001e8	03		 DB	 3
  001e9	07		 DB	 7
  001ea	07		 DB	 7
  001eb	07		 DB	 7
  001ec	07		 DB	 7
  001ed	07		 DB	 7
  001ee	07		 DB	 7
  001ef	07		 DB	 7
  001f0	07		 DB	 7
  001f1	07		 DB	 7
  001f2	07		 DB	 7
  001f3	07		 DB	 7
  001f4	07		 DB	 7
  001f5	07		 DB	 7
  001f6	07		 DB	 7
  001f7	07		 DB	 7
  001f8	07		 DB	 7
  001f9	07		 DB	 7
  001fa	07		 DB	 7
  001fb	07		 DB	 7
  001fc	07		 DB	 7
  001fd	07		 DB	 7
  001fe	07		 DB	 7
  001ff	07		 DB	 7
  00200	07		 DB	 7
  00201	07		 DB	 7
  00202	07		 DB	 7
  00203	07		 DB	 7
  00204	07		 DB	 7
  00205	07		 DB	 7
  00206	07		 DB	 7
  00207	07		 DB	 7
  00208	07		 DB	 7
  00209	07		 DB	 7
  0020a	07		 DB	 7
  0020b	07		 DB	 7
  0020c	07		 DB	 7
  0020d	07		 DB	 7
  0020e	07		 DB	 7
  0020f	07		 DB	 7
  00210	07		 DB	 7
  00211	07		 DB	 7
  00212	07		 DB	 7
  00213	07		 DB	 7
  00214	07		 DB	 7
  00215	04		 DB	 4
  00216	07		 DB	 7
  00217	07		 DB	 7
  00218	07		 DB	 7
  00219	07		 DB	 7
  0021a	07		 DB	 7
  0021b	07		 DB	 7
  0021c	07		 DB	 7
  0021d	07		 DB	 7
  0021e	07		 DB	 7
  0021f	07		 DB	 7
  00220	07		 DB	 7
  00221	07		 DB	 7
  00222	07		 DB	 7
  00223	07		 DB	 7
  00224	07		 DB	 7
  00225	07		 DB	 7
  00226	07		 DB	 7
  00227	07		 DB	 7
  00228	07		 DB	 7
  00229	07		 DB	 7
  0022a	07		 DB	 7
  0022b	07		 DB	 7
  0022c	07		 DB	 7
  0022d	07		 DB	 7
  0022e	07		 DB	 7
  0022f	07		 DB	 7
  00230	07		 DB	 7
  00231	07		 DB	 7
  00232	07		 DB	 7
  00233	07		 DB	 7
  00234	07		 DB	 7
  00235	07		 DB	 7
  00236	07		 DB	 7
  00237	07		 DB	 7
  00238	05		 DB	 5
  00239	06		 DB	 6
  0023a	07		 DB	 7
  0023b	07		 DB	 7
  0023c	07		 DB	 7
  0023d	07		 DB	 7
  0023e	07		 DB	 7
  0023f	07		 DB	 7
  00240	07		 DB	 7
  00241	07		 DB	 7
  00242	07		 DB	 7
  00243	07		 DB	 7
  00244	07		 DB	 7
  00245	07		 DB	 7
  00246	07		 DB	 7
  00247	07		 DB	 7
  00248	05		 DB	 5
  00249	05		 DB	 5
  0024a	05		 DB	 5
  0024b	05		 DB	 5
  0024c	07		 DB	 7
  0024d	07		 DB	 7
  0024e	07		 DB	 7
  0024f	07		 DB	 7
  00250	06		 DB	 6
  00251	07		 DB	 7
  00252	07		 DB	 7
  00253	07		 DB	 7
  00254	07		 DB	 7
  00255	07		 DB	 7
  00256	07		 DB	 7
  00257	07		 DB	 7
  00258	07		 DB	 7
  00259	07		 DB	 7
  0025a	07		 DB	 7
  0025b	07		 DB	 7
  0025c	07		 DB	 7
  0025d	07		 DB	 7
  0025e	07		 DB	 7
  0025f	07		 DB	 7
  00260	07		 DB	 7
  00261	07		 DB	 7
  00262	07		 DB	 7
  00263	07		 DB	 7
  00264	07		 DB	 7
  00265	07		 DB	 7
  00266	07		 DB	 7
  00267	07		 DB	 7
  00268	07		 DB	 7
  00269	06		 DB	 6
  0026a	66 90		 npad	 2
$LN60@IsInvalid:
  0026c	00 00 00 00	 DD	 $LN19@IsInvalid
  00270	00 00 00 00	 DD	 $LN4@IsInvalid
  00274	00 00 00 00	 DD	 $LN11@IsInvalid
  00278	00 00 00 00	 DD	 $LN39@IsInvalid
  0027c	00 00 00 00	 DD	 $LN40@IsInvalid
$LN59@IsInvalid:
  00280	00		 DB	 0
  00281	01		 DB	 1
  00282	02		 DB	 2
  00283	04		 DB	 4
  00284	04		 DB	 4
  00285	04		 DB	 4
  00286	04		 DB	 4
  00287	04		 DB	 4
  00288	04		 DB	 4
  00289	04		 DB	 4
  0028a	04		 DB	 4
  0028b	04		 DB	 4
  0028c	04		 DB	 4
  0028d	04		 DB	 4
  0028e	04		 DB	 4
  0028f	04		 DB	 4
  00290	04		 DB	 4
  00291	04		 DB	 4
  00292	04		 DB	 4
  00293	04		 DB	 4
  00294	04		 DB	 4
  00295	04		 DB	 4
  00296	04		 DB	 4
  00297	04		 DB	 4
  00298	04		 DB	 4
  00299	04		 DB	 4
  0029a	04		 DB	 4
  0029b	04		 DB	 4
  0029c	04		 DB	 4
  0029d	04		 DB	 4
  0029e	04		 DB	 4
  0029f	04		 DB	 4
  002a0	04		 DB	 4
  002a1	04		 DB	 4
  002a2	04		 DB	 4
  002a3	04		 DB	 4
  002a4	04		 DB	 4
  002a5	04		 DB	 4
  002a6	04		 DB	 4
  002a7	04		 DB	 4
  002a8	04		 DB	 4
  002a9	04		 DB	 4
  002aa	04		 DB	 4
  002ab	04		 DB	 4
  002ac	04		 DB	 4
  002ad	04		 DB	 4
  002ae	04		 DB	 4
  002af	04		 DB	 4
  002b0	04		 DB	 4
  002b1	04		 DB	 4
  002b2	04		 DB	 4
  002b3	04		 DB	 4
  002b4	04		 DB	 4
  002b5	04		 DB	 4
  002b6	04		 DB	 4
  002b7	04		 DB	 4
  002b8	04		 DB	 4
  002b9	04		 DB	 4
  002ba	04		 DB	 4
  002bb	04		 DB	 4
  002bc	04		 DB	 4
  002bd	04		 DB	 4
  002be	04		 DB	 4
  002bf	04		 DB	 4
  002c0	04		 DB	 4
  002c1	04		 DB	 4
  002c2	04		 DB	 4
  002c3	04		 DB	 4
  002c4	04		 DB	 4
  002c5	04		 DB	 4
  002c6	04		 DB	 4
  002c7	04		 DB	 4
  002c8	04		 DB	 4
  002c9	04		 DB	 4
  002ca	04		 DB	 4
  002cb	04		 DB	 4
  002cc	04		 DB	 4
  002cd	04		 DB	 4
  002ce	04		 DB	 4
  002cf	04		 DB	 4
  002d0	04		 DB	 4
  002d1	04		 DB	 4
  002d2	04		 DB	 4
  002d3	04		 DB	 4
  002d4	04		 DB	 4
  002d5	04		 DB	 4
  002d6	04		 DB	 4
  002d7	04		 DB	 4
  002d8	04		 DB	 4
  002d9	04		 DB	 4
  002da	04		 DB	 4
  002db	04		 DB	 4
  002dc	04		 DB	 4
  002dd	04		 DB	 4
  002de	04		 DB	 4
  002df	04		 DB	 4
  002e0	04		 DB	 4
  002e1	04		 DB	 4
  002e2	04		 DB	 4
  002e3	04		 DB	 4
  002e4	04		 DB	 4
  002e5	04		 DB	 4
  002e6	04		 DB	 4
  002e7	04		 DB	 4
  002e8	04		 DB	 4
  002e9	04		 DB	 4
  002ea	02		 DB	 2
  002eb	04		 DB	 4
  002ec	04		 DB	 4
  002ed	04		 DB	 4
  002ee	04		 DB	 4
  002ef	04		 DB	 4
  002f0	04		 DB	 4
  002f1	04		 DB	 4
  002f2	04		 DB	 4
  002f3	04		 DB	 4
  002f4	04		 DB	 4
  002f5	04		 DB	 4
  002f6	04		 DB	 4
  002f7	04		 DB	 4
  002f8	04		 DB	 4
  002f9	04		 DB	 4
  002fa	04		 DB	 4
  002fb	04		 DB	 4
  002fc	04		 DB	 4
  002fd	03		 DB	 3
?IsInvalid@CBuffSkill@@MAEHPAVCMover@@@Z ENDP		; CBuffSkill::IsInvalid
_TEXT	ENDS
; Function compile flags: /Ogtp
; File C:\IAGOS\server\v18\Source\Source\_Common\buff.cpp
;	COMDAT ?IsAttacker@CBuffSkill@@UAEHPAVCMover@@K@Z
_TEXT	SEGMENT
_pMover$ = 8						; size = 4
_pAddSkillProp$ = 8					; size = 4
_oiAttacker$ = 12					; size = 4
_pSkillProp$ = 12					; size = 4
?IsAttacker@CBuffSkill@@UAEHPAVCMover@@K@Z PROC		; CBuffSkill::IsAttacker, COMDAT
; _this$ = ecx

; 583  : {

  00000	55		 push	 ebp
  00001	8b ec		 mov	 ebp, esp
  00003	56		 push	 esi
  00004	57		 push	 edi
  00005	8b 7d 0c	 mov	 edi, DWORD PTR _oiAttacker$[ebp]
  00008	8b f1		 mov	 esi, ecx

; 584  : 	ASSERT( pMover );
; 585  : 	ItemProp* pSkillProp;
; 586  : 	AddSkillProp* pAddSkillProp;
; 587  : 	pMover->GetSkillProp( &pSkillProp, &pAddSkillProp, GetId(), GetLevel(), "CBuffSkill.IsAttacker" );

  0000a	8b 4d 08	 mov	 ecx, DWORD PTR _pMover$[ebp]
  0000d	68 00 00 00 00	 push	 OFFSET ??_C@_0BG@CJPHBCAN@CBuffSkill?4IsAttacker@
  00012	ff 76 08	 push	 DWORD PTR [esi+8]
  00015	0f b7 46 06	 movzx	 eax, WORD PTR [esi+6]
  00019	8b 11		 mov	 edx, DWORD PTR [ecx]
  0001b	50		 push	 eax
  0001c	8d 45 08	 lea	 eax, DWORD PTR _pAddSkillProp$[ebp]
  0001f	50		 push	 eax
  00020	8d 45 0c	 lea	 eax, DWORD PTR _pSkillProp$[ebp]
  00023	50		 push	 eax
  00024	ff 52 30	 call	 DWORD PTR [edx+48]

; 588  : 	if( pSkillProp && pSkillProp->nEvildoing < 0 && GetAttacker() == oiAttacker )

  00027	8b 45 0c	 mov	 eax, DWORD PTR _pSkillProp$[ebp]
  0002a	85 c0		 test	 eax, eax
  0002c	74 17		 je	 SHORT $LN2@IsAttacker
  0002e	83 b8 04 02 00
	00 00		 cmp	 DWORD PTR [eax+516], 0
  00035	7d 0e		 jge	 SHORT $LN2@IsAttacker
  00037	33 c0		 xor	 eax, eax
  00039	39 7e 14	 cmp	 DWORD PTR [esi+20], edi
  0003c	5f		 pop	 edi
  0003d	0f 94 c0	 sete	 al

; 591  : }

  00040	5e		 pop	 esi
  00041	5d		 pop	 ebp
  00042	c2 08 00	 ret	 8
$LN2@IsAttacker:
  00045	5f		 pop	 edi

; 589  : 		return TRUE;
; 590  : 	return FALSE;

  00046	33 c0		 xor	 eax, eax

; 591  : }

  00048	5e		 pop	 esi
  00049	5d		 pop	 ebp
  0004a	c2 08 00	 ret	 8
?IsAttacker@CBuffSkill@@UAEHPAVCMover@@K@Z ENDP		; CBuffSkill::IsAttacker
_TEXT	ENDS
; Function compile flags: /Ogtp
; File C:\IAGOS\server\v18\Source\Source\_Common\buff.cpp
;	COMDAT ?IsDebuf@CBuffSkill@@UAEHPAVCMover@@@Z
_TEXT	SEGMENT
_pAddSkillProp$ = -4					; size = 4
_pMover$ = 8						; size = 4
_pSkillProp$ = 8					; size = 4
?IsDebuf@CBuffSkill@@UAEHPAVCMover@@@Z PROC		; CBuffSkill::IsDebuf, COMDAT
; _this$ = ecx

; 574  : {

  00000	55		 push	 ebp
  00001	8b ec		 mov	 ebp, esp
  00003	51		 push	 ecx

; 575  : 	ASSERT( pMover );
; 576  : 	ItemProp* pSkillProp;
; 577  : 	AddSkillProp* pAddSkillProp;
; 578  : 	pMover->GetSkillProp( &pSkillProp, &pAddSkillProp, GetId(), GetLevel(), "CBuffSkill.IsDebuf" );

  00004	0f b7 41 06	 movzx	 eax, WORD PTR [ecx+6]
  00008	8b 55 08	 mov	 edx, DWORD PTR _pMover$[ebp]
  0000b	56		 push	 esi
  0000c	68 00 00 00 00	 push	 OFFSET ??_C@_0BD@OMIIIOEI@CBuffSkill?4IsDebuf@
  00011	ff 71 08	 push	 DWORD PTR [ecx+8]
  00014	8b 32		 mov	 esi, DWORD PTR [edx]
  00016	8b ca		 mov	 ecx, edx
  00018	50		 push	 eax
  00019	8d 45 fc	 lea	 eax, DWORD PTR _pAddSkillProp$[ebp]
  0001c	50		 push	 eax
  0001d	8d 45 08	 lea	 eax, DWORD PTR _pSkillProp$[ebp]
  00020	50		 push	 eax
  00021	ff 56 30	 call	 DWORD PTR [esi+48]

; 579  : 	return pSkillProp && pSkillProp->nEvildoing < 0;

  00024	8b 45 08	 mov	 eax, DWORD PTR _pSkillProp$[ebp]
  00027	5e		 pop	 esi
  00028	85 c0		 test	 eax, eax
  0002a	74 14		 je	 SHORT $LN3@IsDebuf
  0002c	83 b8 04 02 00
	00 00		 cmp	 DWORD PTR [eax+516], 0
  00033	7d 0b		 jge	 SHORT $LN3@IsDebuf
  00035	b8 01 00 00 00	 mov	 eax, 1

; 580  : }

  0003a	8b e5		 mov	 esp, ebp
  0003c	5d		 pop	 ebp
  0003d	c2 04 00	 ret	 4
$LN3@IsDebuf:

; 579  : 	return pSkillProp && pSkillProp->nEvildoing < 0;

  00040	33 c0		 xor	 eax, eax

; 580  : }

  00042	8b e5		 mov	 esp, ebp
  00044	5d		 pop	 ebp
  00045	c2 04 00	 ret	 4
?IsDebuf@CBuffSkill@@UAEHPAVCMover@@@Z ENDP		; CBuffSkill::IsDebuf
_TEXT	ENDS
; Function compile flags: /Ogtp
; File C:\IAGOS\server\v18\Source\Source\_Common\buff.cpp
;	COMDAT ?HasChrState@CBuffSkill@@UAEHPAVCMover@@K@Z
_TEXT	SEGMENT
_pSkillProp$ = -4					; size = 4
_pMover$ = 8						; size = 4
_pAddSkillProp$ = 8					; size = 4
_dwChrState$ = 12					; size = 4
?HasChrState@CBuffSkill@@UAEHPAVCMover@@K@Z PROC	; CBuffSkill::HasChrState, COMDAT
; _this$ = ecx

; 550  : {

  00000	55		 push	 ebp
  00001	8b ec		 mov	 ebp, esp
  00003	51		 push	 ecx

; 551  : 	ASSERT( pMover );
; 552  : 	ItemProp* pSkillProp;
; 553  : 	AddSkillProp* pAddSkillProp;
; 554  : 	pMover->GetSkillProp( &pSkillProp, &pAddSkillProp, GetId(), GetLevel(), "CBuffSkill.HasChrState" );

  00004	0f b7 41 06	 movzx	 eax, WORD PTR [ecx+6]
  00008	8b 55 08	 mov	 edx, DWORD PTR _pMover$[ebp]
  0000b	56		 push	 esi
  0000c	68 00 00 00 00	 push	 OFFSET ??_C@_0BH@DNHMJEBK@CBuffSkill?4HasChrState@
  00011	ff 71 08	 push	 DWORD PTR [ecx+8]
  00014	8b 32		 mov	 esi, DWORD PTR [edx]
  00016	8b ca		 mov	 ecx, edx
  00018	50		 push	 eax
  00019	8d 45 08	 lea	 eax, DWORD PTR _pAddSkillProp$[ebp]
  0001c	50		 push	 eax
  0001d	8d 45 fc	 lea	 eax, DWORD PTR _pSkillProp$[ebp]
  00020	50		 push	 eax
  00021	ff 56 30	 call	 DWORD PTR [esi+48]
  00024	8b 45 08	 mov	 eax, DWORD PTR _pAddSkillProp$[ebp]

; 555  : 	for( int i = 0; i < 2; i++ )

  00027	33 c9		 xor	 ecx, ecx
  00029	8b 55 0c	 mov	 edx, DWORD PTR _dwChrState$[ebp]
  0002c	83 c0 2c	 add	 eax, 44			; 0000002cH
  0002f	5e		 pop	 esi
$LL4@HasChrStat:

; 556  : 		if( pAddSkillProp->dwDestParam[i] == DST_CHRSTATE && pAddSkillProp->nAdjParamVal[i] & dwChrState )

  00030	83 78 f8 40	 cmp	 DWORD PTR [eax-8], 64	; 00000040H
  00034	75 04		 jne	 SHORT $LN2@HasChrStat
  00036	85 10		 test	 DWORD PTR [eax], edx
  00038	75 11		 jne	 SHORT $LN8@HasChrStat
$LN2@HasChrStat:

; 555  : 	for( int i = 0; i < 2; i++ )

  0003a	41		 inc	 ecx
  0003b	83 c0 04	 add	 eax, 4
  0003e	83 f9 02	 cmp	 ecx, 2
  00041	7c ed		 jl	 SHORT $LL4@HasChrStat

; 558  : 	return FALSE;

  00043	33 c0		 xor	 eax, eax

; 559  : }

  00045	8b e5		 mov	 esp, ebp
  00047	5d		 pop	 ebp
  00048	c2 08 00	 ret	 8
$LN8@HasChrStat:

; 557  : 			return TRUE;

  0004b	b8 01 00 00 00	 mov	 eax, 1

; 559  : }

  00050	8b e5		 mov	 esp, ebp
  00052	5d		 pop	 ebp
  00053	c2 08 00	 ret	 8
?HasChrState@CBuffSkill@@UAEHPAVCMover@@K@Z ENDP	; CBuffSkill::HasChrState
_TEXT	ENDS
; Function compile flags: /Ogtp
; File C:\IAGOS\server\v18\Source\Source\_Common\buff.cpp
;	COMDAT ?HasDstParam@CBuffSkill@@UAEHPAVCMover@@K@Z
_TEXT	SEGMENT
_pAddSkillProp$ = -4					; size = 4
_pMover$ = 8						; size = 4
_pSkillProp$ = 8					; size = 4
_dwDstParam$ = 12					; size = 4
?HasDstParam@CBuffSkill@@UAEHPAVCMover@@K@Z PROC	; CBuffSkill::HasDstParam, COMDAT
; _this$ = ecx

; 562  : {

  00000	55		 push	 ebp
  00001	8b ec		 mov	 ebp, esp
  00003	51		 push	 ecx

; 563  : 	ASSERT( pMover );
; 564  : 	ItemProp* pSkillProp;
; 565  : 	AddSkillProp* pAddSkillProp;
; 566  : 	pMover->GetSkillProp( &pSkillProp, &pAddSkillProp, GetId(), GetLevel(), "CBuffSkill.HasDstParam" );

  00004	0f b7 41 06	 movzx	 eax, WORD PTR [ecx+6]
  00008	8b 55 08	 mov	 edx, DWORD PTR _pMover$[ebp]
  0000b	56		 push	 esi
  0000c	68 00 00 00 00	 push	 OFFSET ??_C@_0BH@KFBAJICK@CBuffSkill?4HasDstParam@
  00011	ff 71 08	 push	 DWORD PTR [ecx+8]
  00014	8b 32		 mov	 esi, DWORD PTR [edx]
  00016	8b ca		 mov	 ecx, edx
  00018	50		 push	 eax
  00019	8d 45 fc	 lea	 eax, DWORD PTR _pAddSkillProp$[ebp]
  0001c	50		 push	 eax
  0001d	8d 45 08	 lea	 eax, DWORD PTR _pSkillProp$[ebp]
  00020	50		 push	 eax
  00021	ff 56 30	 call	 DWORD PTR [esi+48]

; 568  : 		if( pSkillProp->nEvildoing < 0 && pAddSkillProp->dwDestParam[i] == dwDstParam )

  00024	8b 45 08	 mov	 eax, DWORD PTR _pSkillProp$[ebp]
  00027	33 c9		 xor	 ecx, ecx
  00029	8b 75 0c	 mov	 esi, DWORD PTR _dwDstParam$[ebp]
  0002c	8b 90 04 02 00
	00		 mov	 edx, DWORD PTR [eax+516]
  00032	8b 45 fc	 mov	 eax, DWORD PTR _pAddSkillProp$[ebp]
  00035	83 c0 24	 add	 eax, 36			; 00000024H
$LL4@HasDstPara:
  00038	85 d2		 test	 edx, edx
  0003a	79 04		 jns	 SHORT $LN2@HasDstPara
  0003c	39 30		 cmp	 DWORD PTR [eax], esi
  0003e	74 12		 je	 SHORT $LN8@HasDstPara
$LN2@HasDstPara:

; 567  : 	for( int i = 0; i < 2; i++ )

  00040	41		 inc	 ecx
  00041	83 c0 04	 add	 eax, 4
  00044	83 f9 02	 cmp	 ecx, 2
  00047	7c ef		 jl	 SHORT $LL4@HasDstPara

; 570  : 	return FALSE;

  00049	33 c0		 xor	 eax, eax
  0004b	5e		 pop	 esi

; 571  : }

  0004c	8b e5		 mov	 esp, ebp
  0004e	5d		 pop	 ebp
  0004f	c2 08 00	 ret	 8
$LN8@HasDstPara:

; 569  : 			return TRUE;

  00052	b8 01 00 00 00	 mov	 eax, 1
  00057	5e		 pop	 esi

; 571  : }

  00058	8b e5		 mov	 esp, ebp
  0005a	5d		 pop	 ebp
  0005b	c2 08 00	 ret	 8
?HasDstParam@CBuffSkill@@UAEHPAVCMover@@K@Z ENDP	; CBuffSkill::HasDstParam
_TEXT	ENDS
; Function compile flags: /Ogtp
; File C:\IAGOS\server\v18\Source\Source\_Common\buff.cpp
;	COMDAT ?IsGood@CBuffSkill@@UAEHPAVCMover@@@Z
_TEXT	SEGMENT
_pAddSkillProp$ = -4					; size = 4
_pMover$ = 8						; size = 4
_pSkillProp$ = 8					; size = 4
?IsGood@CBuffSkill@@UAEHPAVCMover@@@Z PROC		; CBuffSkill::IsGood, COMDAT
; _this$ = ecx

; 541  : {

  00000	55		 push	 ebp
  00001	8b ec		 mov	 ebp, esp
  00003	51		 push	 ecx

; 542  : 	ASSERT( pMover );
; 543  : 	ItemProp* pSkillProp;
; 544  : 	AddSkillProp* pAddSkillProp;
; 545  : 	pMover->GetSkillProp( &pSkillProp, &pAddSkillProp, GetId(), GetLevel(), "CBuffSkill.IsGood" );

  00004	0f b7 41 06	 movzx	 eax, WORD PTR [ecx+6]
  00008	8b 55 08	 mov	 edx, DWORD PTR _pMover$[ebp]
  0000b	56		 push	 esi
  0000c	68 00 00 00 00	 push	 OFFSET ??_C@_0BC@DMLBIAFL@CBuffSkill?4IsGood@
  00011	ff 71 08	 push	 DWORD PTR [ecx+8]
  00014	8b 32		 mov	 esi, DWORD PTR [edx]
  00016	8b ca		 mov	 ecx, edx
  00018	50		 push	 eax
  00019	8d 45 fc	 lea	 eax, DWORD PTR _pAddSkillProp$[ebp]
  0001c	50		 push	 eax
  0001d	8d 45 08	 lea	 eax, DWORD PTR _pSkillProp$[ebp]
  00020	50		 push	 eax
  00021	ff 56 30	 call	 DWORD PTR [esi+48]

; 546  : 	return pSkillProp && pSkillProp->nEvildoing >= 0;

  00024	8b 45 08	 mov	 eax, DWORD PTR _pSkillProp$[ebp]
  00027	5e		 pop	 esi
  00028	85 c0		 test	 eax, eax
  0002a	74 14		 je	 SHORT $LN3@IsGood
  0002c	83 b8 04 02 00
	00 00		 cmp	 DWORD PTR [eax+516], 0
  00033	7c 0b		 jl	 SHORT $LN3@IsGood
  00035	b8 01 00 00 00	 mov	 eax, 1

; 547  : }

  0003a	8b e5		 mov	 esp, ebp
  0003c	5d		 pop	 ebp
  0003d	c2 04 00	 ret	 4
$LN3@IsGood:

; 546  : 	return pSkillProp && pSkillProp->nEvildoing >= 0;

  00040	33 c0		 xor	 eax, eax

; 547  : }

  00042	8b e5		 mov	 esp, ebp
  00044	5d		 pop	 ebp
  00045	c2 04 00	 ret	 4
?IsGood@CBuffSkill@@UAEHPAVCMover@@@Z ENDP		; CBuffSkill::IsGood
_TEXT	ENDS
; Function compile flags: /Ogtp
; File C:\IAGOS\server\v18\Source\Source\_Common\buff.cpp
;	COMDAT ?IsRemovable@CBuffSkill@@UAEHPAVCMover@@@Z
_TEXT	SEGMENT
_pSkillProp$ = -4					; size = 4
_pMover$ = 8						; size = 4
_pAddSkillProp$ = 8					; size = 4
?IsRemovable@CBuffSkill@@UAEHPAVCMover@@@Z PROC		; CBuffSkill::IsRemovable, COMDAT
; _this$ = ecx

; 512  : {

  00000	55		 push	 ebp
  00001	8b ec		 mov	 ebp, esp
  00003	51		 push	 ecx

; 513  : #ifdef __CLIENT
; 514  : 	if( !pMover )	return TRUE;
; 515  : #endif	// __CLIENT
; 516  : 	ItemProp* pSkillProp;
; 517  : 	AddSkillProp* pAddSkillProp;
; 518  : 	pMover->GetSkillProp( &pSkillProp, &pAddSkillProp, GetId(), GetLevel(), "CBuffSkill.IsRemovable" );

  00004	0f b7 41 06	 movzx	 eax, WORD PTR [ecx+6]
  00008	8b 55 08	 mov	 edx, DWORD PTR _pMover$[ebp]
  0000b	56		 push	 esi
  0000c	68 00 00 00 00	 push	 OFFSET ??_C@_0BH@LADPBEID@CBuffSkill?4IsRemovable@
  00011	ff 71 08	 push	 DWORD PTR [ecx+8]
  00014	8b 32		 mov	 esi, DWORD PTR [edx]
  00016	8b ca		 mov	 ecx, edx
  00018	50		 push	 eax
  00019	8d 45 08	 lea	 eax, DWORD PTR _pAddSkillProp$[ebp]
  0001c	50		 push	 eax
  0001d	8d 45 fc	 lea	 eax, DWORD PTR _pSkillProp$[ebp]
  00020	50		 push	 eax
  00021	ff 56 30	 call	 DWORD PTR [esi+48]

; 519  : 	return pAddSkillProp && pAddSkillProp->dwSkillTime > 0;

  00024	8b 45 08	 mov	 eax, DWORD PTR _pAddSkillProp$[ebp]
  00027	5e		 pop	 esi
  00028	85 c0		 test	 eax, eax
  0002a	74 11		 je	 SHORT $LN3@IsRemovabl
  0002c	83 78 70 00	 cmp	 DWORD PTR [eax+112], 0
  00030	76 0b		 jbe	 SHORT $LN3@IsRemovabl
  00032	b8 01 00 00 00	 mov	 eax, 1

; 520  : }

  00037	8b e5		 mov	 esp, ebp
  00039	5d		 pop	 ebp
  0003a	c2 04 00	 ret	 4
$LN3@IsRemovabl:

; 519  : 	return pAddSkillProp && pAddSkillProp->dwSkillTime > 0;

  0003d	33 c0		 xor	 eax, eax

; 520  : }

  0003f	8b e5		 mov	 esp, ebp
  00041	5d		 pop	 ebp
  00042	c2 04 00	 ret	 4
?IsRemovable@CBuffSkill@@UAEHPAVCMover@@@Z ENDP		; CBuffSkill::IsRemovable
_TEXT	ENDS
; Function compile flags: /Ogtp
; File C:\IAGOS\server\v18\Source\Source\_Common\buff.cpp
;	COMDAT ?Release@CBuffSkill@@UAEXPAVCBuffMgr@@@Z
_TEXT	SEGMENT
_pBuffMgr$ = 8						; size = 4
?Release@CBuffSkill@@UAEXPAVCBuffMgr@@@Z PROC		; CBuffSkill::Release, COMDAT
; _this$ = ecx

; 501  : {

  00000	55		 push	 ebp
  00001	8b ec		 mov	 ebp, esp

; 502  : #ifdef __CLIENT
; 503  : 	CMover* pMover	= pBuffMgr->GetMover();
; 504  : 	if( pMover )
; 505  : 		pMover->OnEndSkillState( GetId(), GetLevel() );
; 506  : #else	// __CLIENT
; 507  : 	pBuffMgr->GetMover()->OnEndSkillState( GetId(), GetLevel() );

  00003	ff 71 08	 push	 DWORD PTR [ecx+8]
  00006	0f b7 41 06	 movzx	 eax, WORD PTR [ecx+6]
  0000a	8b 4d 08	 mov	 ecx, DWORD PTR _pBuffMgr$[ebp]
  0000d	50		 push	 eax
  0000e	8b 49 0c	 mov	 ecx, DWORD PTR [ecx+12]
  00011	e8 00 00 00 00	 call	 ?OnEndSkillState@CMover@@QAEXKK@Z ; CMover::OnEndSkillState

; 508  : #endif	// __CLIENT
; 509  : }

  00016	5d		 pop	 ebp
  00017	c2 04 00	 ret	 4
?Release@CBuffSkill@@UAEXPAVCBuffMgr@@@Z ENDP		; CBuffSkill::Release
_TEXT	ENDS
; Function compile flags: /Ogtp
; File C:\IAGOS\server\v18\Source\Source\_Common\buff.cpp
;	COMDAT ?IsAddable@CBuffSkill@@UAEHPAVCMover@@@Z
_TEXT	SEGMENT
_pMover$ = 8						; size = 4
?IsAddable@CBuffSkill@@UAEHPAVCMover@@@Z PROC		; CBuffSkill::IsAddable, COMDAT
; _this$ = ecx

; 528  : {

  00000	55		 push	 ebp
  00001	8b ec		 mov	 ebp, esp
  00003	53		 push	 ebx
  00004	56		 push	 esi
  00005	8b f1		 mov	 esi, ecx
  00007	57		 push	 edi

; 529  : #ifdef __CLIENT
; 530  : 	ItemProp* pProp	= GetProp();
; 531  : 	return IBuff::IsAddable( pMover )
; 532  : 		&& !( pMover && pMover->IsPlayer() && pMover->m_nDead > 0 && pProp && pProp->nEvildoing < 0 );
; 533  : #else	// __CLIENT
; 534  : 	ItemProp* pProp	= GetProp();

  00008	8b 06		 mov	 eax, DWORD PTR [esi]
  0000a	ff 50 24	 call	 DWORD PTR [eax+36]

; 535  : 	return IBuff::IsAddable( pMover )

  0000d	8b 7d 08	 mov	 edi, DWORD PTR _pMover$[ebp]
  00010	8b ce		 mov	 ecx, esi
  00012	57		 push	 edi
  00013	8b d8		 mov	 ebx, eax
  00015	e8 00 00 00 00	 call	 ?IsAddable@IBuff@@UAEHPAVCMover@@@Z ; IBuff::IsAddable
  0001a	85 c0		 test	 eax, eax
  0001c	74 2b		 je	 SHORT $LN4@IsAddable
  0001e	83 bf 30 02 00
	00 00		 cmp	 DWORD PTR [edi+560], 0
  00025	74 16		 je	 SHORT $LN3@IsAddable
  00027	83 bf ac 0d 00
	00 00		 cmp	 DWORD PTR [edi+3500], 0
  0002e	7e 0d		 jle	 SHORT $LN3@IsAddable
  00030	85 db		 test	 ebx, ebx
  00032	74 09		 je	 SHORT $LN3@IsAddable
  00034	83 bb 04 02 00
	00 00		 cmp	 DWORD PTR [ebx+516], 0
  0003b	7c 0c		 jl	 SHORT $LN4@IsAddable
$LN3@IsAddable:
  0003d	5f		 pop	 edi

; 536  : 					&& !( pMover->IsPlayer() && pMover->m_nDead > 0 && pProp && pProp->nEvildoing < 0 );
; 537  : #endif	// __CLIENT
; 538  : }

  0003e	5e		 pop	 esi
  0003f	b8 01 00 00 00	 mov	 eax, 1
  00044	5b		 pop	 ebx
  00045	5d		 pop	 ebp
  00046	c2 04 00	 ret	 4
$LN4@IsAddable:
  00049	5f		 pop	 edi
  0004a	5e		 pop	 esi
  0004b	33 c0		 xor	 eax, eax
  0004d	5b		 pop	 ebx
  0004e	5d		 pop	 ebp
  0004f	c2 04 00	 ret	 4
?IsAddable@CBuffSkill@@UAEHPAVCMover@@@Z ENDP		; CBuffSkill::IsAddable
_TEXT	ENDS
; Function compile flags: /Ogtp
; File C:\IAGOS\server\v18\Source\Source\_Common\buff.cpp
; File C:\IAGOS\server\v18\Source\Source\_Common\Project.h
; File C:\IAGOS\server\v18\Source\Source\_Common\data.h
; File C:\IAGOS\server\v18\Source\Source\_Common\buff.cpp
; File C:\IAGOS\server\v18\Source\Source\_Common\Project.h
; File C:\IAGOS\server\v18\Source\Source\_Common\buff.cpp
;	COMDAT ?GetPropA@CBuffSkill@@UAEPAUItemProp@@XZ
_TEXT	SEGMENT
?GetPropA@CBuffSkill@@UAEPAUItemProp@@XZ PROC		; CBuffSkill::GetPropA, COMDAT
; _this$ = ecx

; 524  : 	return prj.GetSkillProp( GetId() );

  00000	0f b7 49 06	 movzx	 ecx, WORD PTR [ecx+6]
; File C:\IAGOS\server\v18\Source\Source\_Common\Project.h

; 1395 : 	VERIFY_RANGE( nIndex, 0, m_aPropSkill.GetSize(), "GetSkillProp range_error", NULL );

  00004	a1 64 02 00 00	 mov	 eax, DWORD PTR ?prj@@3VCProject@@A+612
  00009	3b c8		 cmp	 ecx, eax
  0000b	7d 0b		 jge	 SHORT $LN8@GetPropA
; File C:\IAGOS\server\v18\Source\Source\_Common\data.h

; 270  : 	if( dwIndex >= (DWORD)m_nMaxIndex )

  0000d	73 1f		 jae	 SHORT $LN15@GetPropA

; 271  : 		return NULL;
; 272  : 	return (T*) m_apOffset[ dwIndex ];

  0000f	a1 54 02 00 00	 mov	 eax, DWORD PTR ?prj@@3VCProject@@A+596
  00014	8b 04 88	 mov	 eax, DWORD PTR [eax+ecx*4]
; File C:\IAGOS\server\v18\Source\Source\_Common\buff.cpp

; 525  : }

  00017	c3		 ret	 0
$LN8@GetPropA:
; File C:\IAGOS\server\v18\Source\Source\_Common\Project.h

; 579  : 	LPCTSTR szErr = Error( _T( "%s min:%d, max:%d, index:%d" ), szMsg, nMin, nMax, nIndex ); 

  00018	51		 push	 ecx
  00019	50		 push	 eax
  0001a	6a 00		 push	 0
  0001c	68 00 00 00 00	 push	 OFFSET ??_C@_0BJ@GPNGCFMK@GetSkillProp?5range_error@
  00021	68 00 00 00 00	 push	 OFFSET ??_C@_0BM@HMFGHCP@?$CFs?5min?3?$CFd?0?5max?3?$CFd?0?5index?3?$CFd@
  00026	e8 00 00 00 00	 call	 ?Error@@YAPBDPBDZZ	; Error
  0002b	83 c4 14	 add	 esp, 20			; 00000014H
$LN15@GetPropA:
; File C:\IAGOS\server\v18\Source\Source\_Common\buff.cpp

; 525  : }

  0002e	33 c0		 xor	 eax, eax
  00030	c3		 ret	 0
?GetPropA@CBuffSkill@@UAEPAUItemProp@@XZ ENDP		; CBuffSkill::GetPropA
_TEXT	ENDS
; Function compile flags: /Ogtp
; File C:\IAGOS\server\v18\Source\Source\_Common\buff.h
;	COMDAT ??1CBuffSkill@@UAE@XZ
_TEXT	SEGMENT
??1CBuffSkill@@UAE@XZ PROC				; CBuffSkill::~CBuffSkill, COMDAT
; _this$ = ecx

; 141  : 	virtual	~CBuffSkill()	{}

  00000	c7 01 00 00 00
	00		 mov	 DWORD PTR [ecx], OFFSET ??_7IBuff@@6B@
  00006	c3		 ret	 0
??1CBuffSkill@@UAE@XZ ENDP				; CBuffSkill::~CBuffSkill
_TEXT	ENDS
; Function compile flags: /Ogtp
;	COMDAT ??_GCBuffItem@@UAEPAXI@Z
_TEXT	SEGMENT
___flags$ = 8						; size = 4
??_GCBuffItem@@UAEPAXI@Z PROC				; CBuffItem::`scalar deleting destructor', COMDAT
; _this$ = ecx
  00000	55		 push	 ebp
  00001	8b ec		 mov	 ebp, esp
  00003	f6 45 08 01	 test	 BYTE PTR ___flags$[ebp], 1
  00007	56		 push	 esi
  00008	8b f1		 mov	 esi, ecx
  0000a	c7 06 00 00 00
	00		 mov	 DWORD PTR [esi], OFFSET ??_7IBuff@@6B@
  00010	74 0b		 je	 SHORT $LN5@scalar
  00012	6a 1c		 push	 28			; 0000001cH
  00014	56		 push	 esi
  00015	e8 00 00 00 00	 call	 ??3@YAXPAXI@Z		; operator delete
  0001a	83 c4 08	 add	 esp, 8
$LN5@scalar:
  0001d	8b c6		 mov	 eax, esi
  0001f	5e		 pop	 esi
  00020	5d		 pop	 ebp
  00021	c2 04 00	 ret	 4
??_GCBuffItem@@UAEPAXI@Z ENDP				; CBuffItem::`scalar deleting destructor'
_TEXT	ENDS
; Function compile flags: /Ogtp
; File C:\IAGOS\server\v18\Source\Source\_Common\buff.cpp
;	COMDAT ?OnExpire@CBuffItem@@UAEXPAVCMover@@@Z
_TEXT	SEGMENT
_pMover$ = 8						; size = 4
?OnExpire@CBuffItem@@UAEXPAVCMover@@@Z PROC		; CBuffItem::OnExpire, COMDAT
; _this$ = ecx

; 397  : {

  00000	55		 push	 ebp
  00001	8b ec		 mov	 ebp, esp

; 398  : 	if( GetId() == II_SYS_SYS_SCR_PET_FEED_POCKET02 )

  00003	b8 a3 67 00 00	 mov	 eax, 26531		; 000067a3H
  00008	66 39 41 06	 cmp	 WORD PTR [ecx+6], ax
  0000c	75 2d		 jne	 SHORT $LN3@OnExpire

; 399  : 	{
; 400  : 		ItemProp* pProp	= GetProp();

  0000e	8b 01		 mov	 eax, DWORD PTR [ecx]
  00010	ff 50 24	 call	 DWORD PTR [eax+36]

; 401  : 		if( pProp && pMover->IsPlayer() )

  00013	85 c0		 test	 eax, eax
  00015	74 24		 je	 SHORT $LN3@OnExpire
  00017	8b 4d 08	 mov	 ecx, DWORD PTR _pMover$[ebp]
  0001a	83 b9 30 02 00
	00 00		 cmp	 DWORD PTR [ecx+560], 0
  00021	74 18		 je	 SHORT $LN3@OnExpire

; 402  : 			g_dpDBClient.SendLogSMItemUse( "2", static_cast<CUser*>( pMover ), NULL, pProp );

  00023	68 00 00 00 00	 push	 OFFSET ??_C@_00CNPNBAHC@@
  00028	50		 push	 eax
  00029	6a 00		 push	 0
  0002b	51		 push	 ecx
  0002c	68 00 00 00 00	 push	 OFFSET ??_C@_01FDFGLJHB@2@
  00031	b9 00 00 00 00	 mov	 ecx, OFFSET ?g_dpDBClient@@3VCDPDatabaseClient@@A ; g_dpDBClient
  00036	e8 00 00 00 00	 call	 ?SendLogSMItemUse@CDPDatabaseClient@@QAEXPBDPAVCUser@@PAVCItemElem@@PAUItemProp@@0@Z ; CDPDatabaseClient::SendLogSMItemUse
$LN3@OnExpire:

; 403  : 	}
; 404  : }

  0003b	5d		 pop	 ebp
  0003c	c2 04 00	 ret	 4
?OnExpire@CBuffItem@@UAEXPAVCMover@@@Z ENDP		; CBuffItem::OnExpire
_TEXT	ENDS
; Function compile flags: /Ogtp
; File C:\IAGOS\server\v18\Source\Source\_Common\buff.cpp
;	COMDAT ?Apply@CBuffItem@@MAEXPAVCMover@@@Z
_TEXT	SEGMENT
_pMover$ = 8						; size = 4
?Apply@CBuffItem@@MAEXPAVCMover@@@Z PROC		; CBuffItem::Apply, COMDAT
; _this$ = ecx

; 347  : {

  00000	55		 push	 ebp
  00001	8b ec		 mov	 ebp, esp

; 348  : 	ItemProp* pProp	= GetProp();

  00003	8b 01		 mov	 eax, DWORD PTR [ecx]
  00005	ff 50 24	 call	 DWORD PTR [eax+36]

; 349  : 	if( pProp )

  00008	85 c0		 test	 eax, eax
  0000a	74 10		 je	 SHORT $LN2@Apply

; 350  : 		pMover->ApplyParam( pMover, pProp, NULL, FALSE, 0 );

  0000c	8b 4d 08	 mov	 ecx, DWORD PTR _pMover$[ebp]
  0000f	6a 00		 push	 0
  00011	6a 00		 push	 0
  00013	6a 00		 push	 0
  00015	50		 push	 eax
  00016	51		 push	 ecx
  00017	e8 00 00 00 00	 call	 ?ApplyParam@CMover@@QAEHPAVCCtrl@@PAUItemProp@@PAUAddSkillProp@@HH@Z ; CMover::ApplyParam
$LN2@Apply:

; 351  : }

  0001c	5d		 pop	 ebp
  0001d	c2 04 00	 ret	 4
?Apply@CBuffItem@@MAEXPAVCMover@@@Z ENDP		; CBuffItem::Apply
_TEXT	ENDS
; Function compile flags: /Ogtp
; File C:\IAGOS\server\v18\Source\Source\_Common\buff.cpp
;	COMDAT ?IsIk3@CBuffItem@@UAEHK@Z
_TEXT	SEGMENT
_dwIk3$ = 8						; size = 4
?IsIk3@CBuffItem@@UAEHK@Z PROC				; CBuffItem::IsIk3, COMDAT
; _this$ = ecx

; 340  : {

  00000	55		 push	 ebp
  00001	8b ec		 mov	 ebp, esp

; 341  : 	ItemProp* pProp	= GetProp();

  00003	8b 01		 mov	 eax, DWORD PTR [ecx]
  00005	ff 50 24	 call	 DWORD PTR [eax+36]

; 342  : 	return pProp && pProp->dwItemKind3 == dwIk3;

  00008	85 c0		 test	 eax, eax
  0000a	74 11		 je	 SHORT $LN3@IsIk3
  0000c	8b 40 78	 mov	 eax, DWORD PTR [eax+120]
  0000f	3b 45 08	 cmp	 eax, DWORD PTR _dwIk3$[ebp]
  00012	75 09		 jne	 SHORT $LN3@IsIk3
  00014	b8 01 00 00 00	 mov	 eax, 1

; 343  : }

  00019	5d		 pop	 ebp
  0001a	c2 04 00	 ret	 4
$LN3@IsIk3:

; 342  : 	return pProp && pProp->dwItemKind3 == dwIk3;

  0001d	33 c0		 xor	 eax, eax

; 343  : }

  0001f	5d		 pop	 ebp
  00020	c2 04 00	 ret	 4
?IsIk3@CBuffItem@@UAEHK@Z ENDP				; CBuffItem::IsIk3
_TEXT	ENDS
; Function compile flags: /Ogtp
; File C:\IAGOS\server\v18\Source\Source\_Common\buff.cpp
;	COMDAT ?IsIk1@CBuffItem@@UAEHK@Z
_TEXT	SEGMENT
_dwIk1$ = 8						; size = 4
?IsIk1@CBuffItem@@UAEHK@Z PROC				; CBuffItem::IsIk1, COMDAT
; _this$ = ecx

; 334  : {

  00000	55		 push	 ebp
  00001	8b ec		 mov	 ebp, esp

; 335  : 	ItemProp* pProp	= GetProp();

  00003	8b 01		 mov	 eax, DWORD PTR [ecx]
  00005	ff 50 24	 call	 DWORD PTR [eax+36]

; 336  : 	return pProp && pProp->dwItemKind1 == dwIk1;

  00008	85 c0		 test	 eax, eax
  0000a	74 11		 je	 SHORT $LN3@IsIk1
  0000c	8b 40 70	 mov	 eax, DWORD PTR [eax+112]
  0000f	3b 45 08	 cmp	 eax, DWORD PTR _dwIk1$[ebp]
  00012	75 09		 jne	 SHORT $LN3@IsIk1
  00014	b8 01 00 00 00	 mov	 eax, 1

; 337  : }

  00019	5d		 pop	 ebp
  0001a	c2 04 00	 ret	 4
$LN3@IsIk1:

; 336  : 	return pProp && pProp->dwItemKind1 == dwIk1;

  0001d	33 c0		 xor	 eax, eax

; 337  : }

  0001f	5d		 pop	 ebp
  00020	c2 04 00	 ret	 4
?IsIk1@CBuffItem@@UAEHK@Z ENDP				; CBuffItem::IsIk1
_TEXT	ENDS
; Function compile flags: /Ogtp
; File C:\IAGOS\server\v18\Source\Source\_Common\buff.cpp
; File C:\Program Files (x86)\Windows Kits\10\Include\10.0.26100.0\ucrt\string.h
; File C:\IAGOS\server\v18\Source\Source\_Common\buff.cpp
; File C:\IAGOS\server\v18\Source\Source\_Common\Project.h
; File C:\IAGOS\server\v18\Source\Source\_Common\buff.cpp
; File C:\IAGOS\server\v18\Source\Source\_Common\Project.h
; File C:\IAGOS\server\v18\Source\Source\_Common\buff.cpp
;	COMDAT ?GetDisguise@CBuffItem@@UAEKXZ
_TEXT	SEGMENT
?GetDisguise@CBuffItem@@UAEKXZ PROC			; CBuffItem::GetDisguise, COMDAT
; _this$ = ecx

; 376  : 	char szCommand[100]	= { 0,};
; 377  : 	ItemProp* pProp	= GetProp();

  00000	8b 01		 mov	 eax, DWORD PTR [ecx]
  00002	ff 50 24	 call	 DWORD PTR [eax+36]

; 378  : 	if( pProp && pProp->dwItemKind3 == IK3_TEXT_DISGUISE )

  00005	85 c0		 test	 eax, eax
  00007	74 5e		 je	 SHORT $LN5@GetDisguis
  00009	83 78 78 51	 cmp	 DWORD PTR [eax+120], 81	; 00000051H
  0000d	75 58		 jne	 SHORT $LN5@GetDisguis

; 379  : 	{
; 380  : 		char* ptr	= ::strstr( pProp->szTextFileName, "/dis" );

  0000f	05 44 02 00 00	 add	 eax, 580		; 00000244H
; File C:\Program Files (x86)\Windows Kits\10\Include\10.0.26100.0\ucrt\string.h

; 520  :         return const_cast<char*>(strstr(static_cast<char const*>(_String), _SubString));

  00014	68 00 00 00 00	 push	 OFFSET ??_C@_04INBMAKPJ@?1dis@
  00019	50		 push	 eax
  0001a	e8 00 00 00 00	 call	 _strstr
  0001f	83 c4 08	 add	 esp, 8
; File C:\IAGOS\server\v18\Source\Source\_Common\buff.cpp

; 381  : 		if( ptr )

  00022	85 c0		 test	 eax, eax
  00024	74 41		 je	 SHORT $LN5@GetDisguis

; 382  : 		{
; 383  : 			int n	= atoi( ptr + 5 );	// "/dis "

  00026	83 c0 05	 add	 eax, 5
  00029	50		 push	 eax
  0002a	e8 00 00 00 00	 call	 _atoi
  0002f	83 c4 04	 add	 esp, 4

; 384  : 			if( n > 0 )

  00032	85 c0		 test	 eax, eax
  00034	7e 31		 jle	 SHORT $LN5@GetDisguis
; File C:\IAGOS\server\v18\Source\Source\_Common\Project.h

; 1406 : 	VERIFY_RANGE( nIndex, 0, m_nMoverPropSize, "GetMoverProp range_error", NULL );

  00036	8b 0d b4 01 00
	00		 mov	 ecx, DWORD PTR ?prj@@3VCProject@@A+436
  0003c	3b c1		 cmp	 eax, ecx
  0003e	7d 11		 jge	 SHORT $LN14@GetDisguis

; 1407 : 	return m_pPropMover + nIndex;

  00040	69 c0 90 06 00
	00		 imul	 eax, eax, 1680
  00046	03 05 b8 01 00
	00		 add	 eax, DWORD PTR ?prj@@3VCProject@@A+440
; File C:\IAGOS\server\v18\Source\Source\_Common\buff.cpp

; 387  : 				if( pMoverProp )

  0004c	74 19		 je	 SHORT $LN5@GetDisguis

; 388  : 					return pMoverProp->dwID;

  0004e	8b 00		 mov	 eax, DWORD PTR [eax]

; 393  : }

  00050	c3		 ret	 0
$LN14@GetDisguis:
; File C:\IAGOS\server\v18\Source\Source\_Common\Project.h

; 579  : 	LPCTSTR szErr = Error( _T( "%s min:%d, max:%d, index:%d" ), szMsg, nMin, nMax, nIndex ); 

  00051	50		 push	 eax
  00052	51		 push	 ecx
  00053	6a 00		 push	 0
  00055	68 00 00 00 00	 push	 OFFSET ??_C@_0BJ@GKPOBPPI@GetMoverProp?5range_error@
  0005a	68 00 00 00 00	 push	 OFFSET ??_C@_0BM@HMFGHCP@?$CFs?5min?3?$CFd?0?5max?3?$CFd?0?5index?3?$CFd@
  0005f	e8 00 00 00 00	 call	 ?Error@@YAPBDPBDZZ	; Error
  00064	83 c4 14	 add	 esp, 20			; 00000014H
$LN5@GetDisguis:
; File C:\IAGOS\server\v18\Source\Source\_Common\buff.cpp

; 392  : 	return NULL_ID;

  00067	83 c8 ff	 or	 eax, -1

; 393  : }

  0006a	c3		 ret	 0
?GetDisguise@CBuffItem@@UAEKXZ ENDP			; CBuffItem::GetDisguise
_TEXT	ENDS
; Function compile flags: /Ogtp
; File C:\IAGOS\server\v18\Source\Source\_Common\buff.cpp
;	COMDAT ?IsRemovable@CBuffItem@@UAEHPAVCMover@@@Z
_TEXT	SEGMENT
_pMover$ = 8						; size = 4
?IsRemovable@CBuffItem@@UAEHPAVCMover@@@Z PROC		; CBuffItem::IsRemovable, COMDAT
; _this$ = ecx

; 355  : 	ItemProp* pProp	= GetProp();

  00000	8b 01		 mov	 eax, DWORD PTR [ecx]
  00002	ff 50 24	 call	 DWORD PTR [eax+36]

; 356  : 	return !( pProp && 999999999 == pProp->dwSkillTime );

  00005	85 c0		 test	 eax, eax
  00007	74 11		 je	 SHORT $LN3@IsRemovabl
  00009	81 b8 c0 01 00
	00 ff c9 9a 3b	 cmp	 DWORD PTR [eax+448], 999999999 ; 3b9ac9ffH
  00013	75 05		 jne	 SHORT $LN3@IsRemovabl
  00015	33 c0		 xor	 eax, eax

; 357  : }

  00017	c2 04 00	 ret	 4
$LN3@IsRemovabl:

; 356  : 	return !( pProp && 999999999 == pProp->dwSkillTime );

  0001a	b8 01 00 00 00	 mov	 eax, 1

; 357  : }

  0001f	c2 04 00	 ret	 4
?IsRemovable@CBuffItem@@UAEHPAVCMover@@@Z ENDP		; CBuffItem::IsRemovable
_TEXT	ENDS
; Function compile flags: /Ogtp
; File C:\IAGOS\server\v18\Source\Source\_Common\buff.cpp
;	COMDAT ?AddTotal@CBuffItem@@UAEXK@Z
_TEXT	SEGMENT
_tmTotal$ = 8						; size = 4
?AddTotal@CBuffItem@@UAEXK@Z PROC			; CBuffItem::AddTotal, COMDAT
; _this$ = ecx

; 360  : {

  00000	55		 push	 ebp
  00001	8b ec		 mov	 ebp, esp
  00003	56		 push	 esi
  00004	8b f1		 mov	 esi, ecx

; 361  : 	switch( GetId() )

  00006	0f b7 46 06	 movzx	 eax, WORD PTR [esi+6]
  0000a	2d 28 52 00 00	 sub	 eax, 21032		; 00005228H
  0000f	74 1c		 je	 SHORT $LN4@AddTotal
  00011	83 e8 01	 sub	 eax, 1
  00014	74 17		 je	 SHORT $LN4@AddTotal
  00016	2d 7a 15 00 00	 sub	 eax, 5498		; 0000157aH
  0001b	74 10		 je	 SHORT $LN4@AddTotal
  0001d	8b 4d 08	 mov	 ecx, DWORD PTR _tmTotal$[ebp]

; 367  : 			break;
; 368  : 		default:
; 369  : 			break;
; 370  : 	}
; 371  : 	IBuff::AddTotal( tmTotal );

  00020	51		 push	 ecx
  00021	8b ce		 mov	 ecx, esi
  00023	e8 00 00 00 00	 call	 ?AddTotal@IBuff@@UAEXK@Z ; IBuff::AddTotal
  00028	5e		 pop	 esi

; 372  : }

  00029	5d		 pop	 ebp
  0002a	c2 04 00	 ret	 4
$LN4@AddTotal:

; 362  : 	{
; 363  : 		case II_SYS_SYS_SCR_PET_FEED_POCKET02:
; 364  : 		case II_SYS_SYS_SCR_PET_TONIC_A:
; 365  : 		case II_SYS_SYS_SCR_PET_TONIC_B:
; 366  : 			tmTotal	+= GetRemain();

  0002d	e8 00 00 00 00	 call	 ?GetRemain@IBuff@@QAEKXZ ; IBuff::GetRemain
  00032	8b 4d 08	 mov	 ecx, DWORD PTR _tmTotal$[ebp]
  00035	03 c8		 add	 ecx, eax

; 367  : 			break;
; 368  : 		default:
; 369  : 			break;
; 370  : 	}
; 371  : 	IBuff::AddTotal( tmTotal );

  00037	51		 push	 ecx
  00038	8b ce		 mov	 ecx, esi
  0003a	e8 00 00 00 00	 call	 ?AddTotal@IBuff@@UAEXK@Z ; IBuff::AddTotal
  0003f	5e		 pop	 esi

; 372  : }

  00040	5d		 pop	 ebp
  00041	c2 04 00	 ret	 4
?AddTotal@CBuffItem@@UAEXK@Z ENDP			; CBuffItem::AddTotal
_TEXT	ENDS
; Function compile flags: /Ogtp
; File C:\IAGOS\server\v18\Source\Source\_Common\buff.h
;	COMDAT ??1CBuffItem@@UAE@XZ
_TEXT	SEGMENT
??1CBuffItem@@UAE@XZ PROC				; CBuffItem::~CBuffItem, COMDAT
; _this$ = ecx

; 122  : 	virtual	~CBuffItem()	{}

  00000	c7 01 00 00 00
	00		 mov	 DWORD PTR [ecx], OFFSET ??_7IBuff@@6B@
  00006	c3		 ret	 0
??1CBuffItem@@UAE@XZ ENDP				; CBuffItem::~CBuffItem
_TEXT	ENDS
; Function compile flags: /Ogtp
;	COMDAT ??_GIBuffItemBase@@UAEPAXI@Z
_TEXT	SEGMENT
___flags$ = 8						; size = 4
??_GIBuffItemBase@@UAEPAXI@Z PROC			; IBuffItemBase::`scalar deleting destructor', COMDAT
; _this$ = ecx
  00000	55		 push	 ebp
  00001	8b ec		 mov	 ebp, esp
  00003	f6 45 08 01	 test	 BYTE PTR ___flags$[ebp], 1
  00007	56		 push	 esi
  00008	8b f1		 mov	 esi, ecx
  0000a	c7 06 00 00 00
	00		 mov	 DWORD PTR [esi], OFFSET ??_7IBuff@@6B@
  00010	74 0b		 je	 SHORT $LN5@scalar
  00012	6a 1c		 push	 28			; 0000001cH
  00014	56		 push	 esi
  00015	e8 00 00 00 00	 call	 ??3@YAXPAXI@Z		; operator delete
  0001a	83 c4 08	 add	 esp, 8
$LN5@scalar:
  0001d	8b c6		 mov	 eax, esi
  0001f	5e		 pop	 esi
  00020	5d		 pop	 ebp
  00021	c2 04 00	 ret	 4
??_GIBuffItemBase@@UAEPAXI@Z ENDP			; IBuffItemBase::`scalar deleting destructor'
_TEXT	ENDS
; Function compile flags: /Ogtp
; File C:\IAGOS\server\v18\Source\Source\_Common\buff.cpp
;	COMDAT ?IsDebuf@IBuffItemBase@@UAEHPAVCMover@@@Z
_TEXT	SEGMENT
_pMover$ = 8						; size = 4
?IsDebuf@IBuffItemBase@@UAEHPAVCMover@@@Z PROC		; IBuffItemBase::IsDebuf, COMDAT
; _this$ = ecx

; 320  : 	ItemProp* pProp	= GetProp();

  00000	8b 01		 mov	 eax, DWORD PTR [ecx]
  00002	ff 50 24	 call	 DWORD PTR [eax+36]

; 321  : 	return pProp && pProp->nEvildoing < 0;

  00005	85 c0		 test	 eax, eax
  00007	74 11		 je	 SHORT $LN3@IsDebuf
  00009	83 b8 04 02 00
	00 00		 cmp	 DWORD PTR [eax+516], 0
  00010	7d 08		 jge	 SHORT $LN3@IsDebuf
  00012	b8 01 00 00 00	 mov	 eax, 1

; 322  : }

  00017	c2 04 00	 ret	 4
$LN3@IsDebuf:

; 321  : 	return pProp && pProp->nEvildoing < 0;

  0001a	33 c0		 xor	 eax, eax

; 322  : }

  0001c	c2 04 00	 ret	 4
?IsDebuf@IBuffItemBase@@UAEHPAVCMover@@@Z ENDP		; IBuffItemBase::IsDebuf
_TEXT	ENDS
; Function compile flags: /Ogtp
; File C:\IAGOS\server\v18\Source\Source\_Common\buff.cpp
;	COMDAT ?HasChrState@IBuffItemBase@@UAEHPAVCMover@@K@Z
_TEXT	SEGMENT
___formal$ = 8						; size = 4
_dwChrState$ = 12					; size = 4
?HasChrState@IBuffItemBase@@UAEHPAVCMover@@K@Z PROC	; IBuffItemBase::HasChrState, COMDAT
; _this$ = ecx

; 307  : {

  00000	55		 push	 ebp
  00001	8b ec		 mov	 ebp, esp

; 308  : 	ItemProp* pProp	= GetProp();

  00003	8b 01		 mov	 eax, DWORD PTR [ecx]
  00005	ff 50 24	 call	 DWORD PTR [eax+36]

; 309  : 	if( pProp )

  00008	85 c0		 test	 eax, eax
  0000a	74 1d		 je	 SHORT $LN11@HasChrStat

; 310  : 	{
; 311  : 		for( int i = 0; i < 2; i++ )

  0000c	8b 55 0c	 mov	 edx, DWORD PTR _dwChrState$[ebp]
  0000f	33 c9		 xor	 ecx, ecx
  00011	05 4c 01 00 00	 add	 eax, 332		; 0000014cH
$LL4@HasChrStat:

; 312  : 			if( pProp->dwDestParam[i] == DST_CHRSTATE && pProp->nAdjParamVal[i] & dwChrState )

  00016	83 78 f4 40	 cmp	 DWORD PTR [eax-12], 64	; 00000040H
  0001a	75 04		 jne	 SHORT $LN2@HasChrStat
  0001c	85 10		 test	 edx, DWORD PTR [eax]
  0001e	75 0f		 jne	 SHORT $LN9@HasChrStat
$LN2@HasChrStat:

; 310  : 	{
; 311  : 		for( int i = 0; i < 2; i++ )

  00020	41		 inc	 ecx
  00021	83 c0 04	 add	 eax, 4
  00024	83 f9 02	 cmp	 ecx, 2
  00027	7c ed		 jl	 SHORT $LL4@HasChrStat
$LN11@HasChrStat:

; 314  : 	}
; 315  : 	return FALSE;

  00029	33 c0		 xor	 eax, eax

; 316  : }

  0002b	5d		 pop	 ebp
  0002c	c2 08 00	 ret	 8
$LN9@HasChrStat:

; 313  : 				return TRUE;

  0002f	b8 01 00 00 00	 mov	 eax, 1

; 316  : }

  00034	5d		 pop	 ebp
  00035	c2 08 00	 ret	 8
?HasChrState@IBuffItemBase@@UAEHPAVCMover@@K@Z ENDP	; IBuffItemBase::HasChrState
_TEXT	ENDS
; Function compile flags: /Ogtp
; File C:\IAGOS\server\v18\Source\Source\_Common\buff.cpp
;	COMDAT ?IsCommon@IBuffItemBase@@UAEHXZ
_TEXT	SEGMENT
?IsCommon@IBuffItemBase@@UAEHXZ PROC			; IBuffItemBase::IsCommon, COMDAT
; _this$ = ecx

; 302  : 	ItemProp* pProp	= GetProp();

  00000	8b 01		 mov	 eax, DWORD PTR [ecx]
  00002	ff 50 24	 call	 DWORD PTR [eax+36]

; 303  : 	return !( pProp && pProp->bCharged );

  00005	85 c0		 test	 eax, eax
  00007	74 0c		 je	 SHORT $LN3@IsCommon
  00009	83 b8 ec 00 00
	00 00		 cmp	 DWORD PTR [eax+236], 0
  00010	74 03		 je	 SHORT $LN3@IsCommon
  00012	33 c0		 xor	 eax, eax

; 304  : }

  00014	c3		 ret	 0
$LN3@IsCommon:

; 303  : 	return !( pProp && pProp->bCharged );

  00015	b8 01 00 00 00	 mov	 eax, 1

; 304  : }

  0001a	c3		 ret	 0
?IsCommon@IBuffItemBase@@UAEHXZ ENDP			; IBuffItemBase::IsCommon
_TEXT	ENDS
; Function compile flags: /Ogtp
; File C:\IAGOS\server\v18\Source\Source\_Common\buff.cpp
; File C:\Program Files\Microsoft Visual Studio\2022\Professional\VC\Tools\MSVC\14.44.35207\atlmfc\include\afxstr.h
; File C:\Program Files\Microsoft Visual Studio\2022\Professional\VC\Tools\MSVC\14.44.35207\atlmfc\include\atlsimpstr.h
; File C:\Program Files\Microsoft Visual Studio\2022\Professional\VC\Tools\MSVC\14.44.35207\atlmfc\include\cstringt.h
; File C:\Program Files\Microsoft Visual Studio\2022\Professional\VC\Tools\MSVC\14.44.35207\atlmfc\include\atlsimpstr.h
; File C:\IAGOS\server\v18\Source\Source\_Common\buff.cpp
; File C:\Program Files\Microsoft Visual Studio\2022\Professional\VC\Tools\MSVC\14.44.35207\atlmfc\include\atlsimpstr.h
; File C:\Program Files\Microsoft Visual Studio\2022\Professional\VC\Tools\MSVC\14.44.35207\atlmfc\include\cstringt.h
; File C:\IAGOS\server\v18\Source\Source\_Common\buff.cpp
; File C:\Program Files\Microsoft Visual Studio\2022\Professional\VC\Tools\MSVC\14.44.35207\atlmfc\include\atlsimpstr.h
; File C:\IAGOS\server\v18\Source\Source\_Common\buff.cpp
; File C:\IAGOS\server\v18\Source\Source\_Common\Project.h
; File C:\IAGOS\server\v18\Source\Source\_Common\data.h
; File C:\IAGOS\server\v18\Source\Source\_Common\Project.h
; File C:\IAGOS\server\v18\Source\Source\_Common\Obj.h
; File C:\IAGOS\server\v18\Source\Source\_Common\buff.cpp
; File C:\Program Files\Microsoft Visual Studio\2022\Professional\VC\Tools\MSVC\14.44.35207\atlmfc\include\atlsimpstr.h
; File C:\IAGOS\server\v18\Source\Source\_Common\buff.cpp
;	COMDAT ?Release@IBuffItemBase@@UAEXPAVCBuffMgr@@@Z
_TEXT	SEGMENT
_pBuffMgr$GSCopy$1$ = -300				; size = 4
_strCommand$2 = -296					; size = 4
tv90 = -296						; size = 4
_pProp$1$ = -296					; size = 4
_itemElem$3 = -292					; size = 176
_szCommand$4 = -116					; size = 100
__$ArrayPad$ = -16					; size = 4
__$EHRec$ = -12						; size = 12
_pBuffMgr$ = 8						; size = 4
?Release@IBuffItemBase@@UAEXPAVCBuffMgr@@@Z PROC	; IBuffItemBase::Release, COMDAT
; _this$ = ecx

; 224  : {

  00000	55		 push	 ebp
  00001	8b ec		 mov	 ebp, esp
  00003	6a ff		 push	 -1
  00005	68 00 00 00 00	 push	 __ehhandler$?Release@IBuffItemBase@@UAEXPAVCBuffMgr@@@Z
  0000a	64 a1 00 00 00
	00		 mov	 eax, DWORD PTR fs:0
  00010	50		 push	 eax
  00011	81 ec 20 01 00
	00		 sub	 esp, 288		; 00000120H
  00017	a1 00 00 00 00	 mov	 eax, DWORD PTR ___security_cookie
  0001c	33 c5		 xor	 eax, ebp
  0001e	89 45 f0	 mov	 DWORD PTR __$ArrayPad$[ebp], eax
  00021	53		 push	 ebx
  00022	56		 push	 esi
  00023	57		 push	 edi
  00024	50		 push	 eax
  00025	8d 45 f4	 lea	 eax, DWORD PTR __$EHRec$[ebp]
  00028	64 a3 00 00 00
	00		 mov	 DWORD PTR fs:0, eax
  0002e	8b 45 08	 mov	 eax, DWORD PTR _pBuffMgr$[ebp]
  00031	89 85 d4 fe ff
	ff		 mov	 DWORD PTR _pBuffMgr$GSCopy$1$[ebp], eax

; 225  : #ifdef __WORLDSERVER
; 226  : 	ItemProp* pProp	= GetProp();

  00037	8b 01		 mov	 eax, DWORD PTR [ecx]
  00039	ff 50 24	 call	 DWORD PTR [eax+36]
  0003c	8b d8		 mov	 ebx, eax
  0003e	89 9d d8 fe ff
	ff		 mov	 DWORD PTR _pProp$1$[ebp], ebx

; 227  : 	if( pProp )

  00044	85 db		 test	 ebx, ebx
  00046	0f 84 88 02 00
	00		 je	 $LN10@Release

; 228  : 	{
; 229  : #ifdef __FIX_STAT_BUFF
; 230  : #if __VER >= 19
; 231  : 		for (int i = 0; i < 6; i++)
; 232  : #else
; 233  : 		for (int i = 0; i < 3; i++)

  0004c	8d b3 40 01 00
	00		 lea	 esi, DWORD PTR [ebx+320]
  00052	bf 03 00 00 00	 mov	 edi, 3
  00057	8b 9d d4 fe ff
	ff		 mov	 ebx, DWORD PTR _pBuffMgr$GSCopy$1$[ebp]
  0005d	0f 1f 00	 npad	 3
$LL4@Release:

; 234  : #endif
; 235  : 		{
; 236  : 			pBuffMgr->GetMover()->ResetDestParam(pProp->dwDestParam[i], pProp->nAdjParamVal[i], true);

  00060	8b 4b 0c	 mov	 ecx, DWORD PTR [ebx+12]
  00063	6a 01		 push	 1
  00065	ff 76 0c	 push	 DWORD PTR [esi+12]
  00068	ff 36		 push	 DWORD PTR [esi]
  0006a	e8 00 00 00 00	 call	 ?ResetDestParam@CMover@@QAEXHHH@Z ; CMover::ResetDestParam
  0006f	8d 76 04	 lea	 esi, DWORD PTR [esi+4]
  00072	83 ef 01	 sub	 edi, 1
  00075	75 e9		 jne	 SHORT $LL4@Release

; 237  : 		}
; 238  : #else
; 239  : 		pBuffMgr->GetMover()->ResetDestParam(pProp->dwDestParam1, pProp->nAdjParamVal1, true);
; 240  : 		pBuffMgr->GetMover()->ResetDestParam(pProp->dwDestParam2, pProp->nAdjParamVal2, true);
; 241  : #ifdef __PROP_0827
; 242  : 		pBuffMgr->GetMover()->ResetDestParam(pProp->dwDestParam3, pProp->nAdjParamVal3, TRUE);
; 243  : #endif // __PROP_0827
; 244  : #if __VER >= 18
; 245  : 		pBuffMgr->GetMover()->ResetDestParam(pProp->dwDestParam4, pProp->nAdjParamVal4, TRUE);
; 246  : 		pBuffMgr->GetMover()->ResetDestParam(pProp->dwDestParam5, pProp->nAdjParamVal5, TRUE);
; 247  : 		pBuffMgr->GetMover()->ResetDestParam(pProp->dwDestParam6, pProp->nAdjParamVal6, TRUE);
; 248  : #endif
; 249  : #endif
; 250  : 		if( strlen( pProp->szTextFileName ) > 0 && IK3_ANGEL_BUFF != pProp->dwItemKind3 
; 251  : #if __VER >= 13 // __HOUSING
; 252  : 			&& IK2_PAPERING != pProp->dwItemKind2

  00077	8b 9d d8 fe ff
	ff		 mov	 ebx, DWORD PTR _pProp$1$[ebp]
  0007d	8d b3 44 02 00
	00		 lea	 esi, DWORD PTR [ebx+580]
  00083	8b ce		 mov	 ecx, esi
  00085	8d 51 01	 lea	 edx, DWORD PTR [ecx+1]
$LL99@Release:
  00088	8a 01		 mov	 al, BYTE PTR [ecx]
  0008a	41		 inc	 ecx
  0008b	84 c0		 test	 al, al
  0008d	75 f9		 jne	 SHORT $LL99@Release
  0008f	2b ca		 sub	 ecx, edx
  00091	0f 84 32 01 00
	00		 je	 $LN72@Release
  00097	83 7b 78 5f	 cmp	 DWORD PTR [ebx+120], 95	; 0000005fH
  0009b	0f 84 28 01 00
	00		 je	 $LN72@Release
  000a1	83 7b 74 23	 cmp	 DWORD PTR [ebx+116], 35	; 00000023H
  000a5	0f 84 1e 01 00
	00		 je	 $LN72@Release

; 253  : #endif // )__HOUSING
; 254  : 			)
; 255  : 		{
; 256  : 			if( NULL_ID != pProp->dwActiveSkill )

  000ab	8b 83 70 01 00
	00		 mov	 eax, DWORD PTR [ebx+368]
  000b1	8b bd d4 fe ff
	ff		 mov	 edi, DWORD PTR _pBuffMgr$GSCopy$1$[ebp]
  000b7	0f b7 c8	 movzx	 ecx, ax
  000ba	83 f8 ff	 cmp	 eax, -1
  000bd	74 0c		 je	 SHORT $LN7@Release

; 257  : 				pBuffMgr->RemoveBuff( BUFF_SKILL, (WORD)( pProp->dwActiveSkill ) );

  000bf	6a 01		 push	 1
  000c1	51		 push	 ecx
  000c2	6a 01		 push	 1
  000c4	8b cf		 mov	 ecx, edi
  000c6	e8 00 00 00 00	 call	 ?RemoveBuff@CBuffMgr@@QAEXGGH@Z ; CBuffMgr::RemoveBuff
$LN7@Release:

; 258  : 			char szCommand[100]	= { 0,};

  000cb	6a 64		 push	 100			; 00000064H
  000cd	8d 45 8c	 lea	 eax, DWORD PTR _szCommand$4[ebp]
  000d0	6a 00		 push	 0
  000d2	50		 push	 eax
  000d3	e8 00 00 00 00	 call	 _memset
  000d8	83 c4 0c	 add	 esp, 12			; 0000000cH
; File C:\Program Files\Microsoft Visual Studio\2022\Professional\VC\Tools\MSVC\14.44.35207\atlmfc\include\afxstr.h

; 56   : 		return( AfxGetStringManager() );

  000db	e8 00 00 00 00	 call	 ?AfxGetStringManager@@YGPAUIAtlStringMgr@ATL@@XZ ; AfxGetStringManager
  000e0	8b c8		 mov	 ecx, eax
; File C:\Program Files\Microsoft Visual Studio\2022\Professional\VC\Tools\MSVC\14.44.35207\atlmfc\include\atlsimpstr.h

; 209  : 		ATLENSURE( pStringMgr != NULL );

  000e2	85 c9		 test	 ecx, ecx
  000e4	0f 84 08 02 00
	00		 je	 $LN106@Release

; 210  : 		CStringData* pData = pStringMgr->GetNilString();

  000ea	8b 01		 mov	 eax, DWORD PTR [ecx]
  000ec	ff 50 0c	 call	 DWORD PTR [eax+12]

; 211  : 		Attach( pData );

  000ef	83 c0 10	 add	 eax, 16			; 00000010H
  000f2	89 85 d8 fe ff
	ff		 mov	 DWORD PTR _strCommand$2[ebp], eax
; File C:\Program Files\Microsoft Visual Studio\2022\Professional\VC\Tools\MSVC\14.44.35207\atlmfc\include\cstringt.h

; 1052 : 		CThisSimpleString( StringTraits::GetDefaultManager() )

  000f8	c7 45 fc 00 00
	00 00		 mov	 DWORD PTR __$EHRec$[ebp+8], 0

; 2712 : 		if( (pv != NULL) && IS_INTRESOURCE( pv ) )

  000ff	85 f6		 test	 esi, esi
  00101	74 29		 je	 SHORT $LN97@Release
  00103	f7 c6 00 00 ff
	ff		 test	 esi, -65536		; ffff0000H
  00109	75 11		 jne	 SHORT $LN43@Release

; 2713 : 		{
; 2714 : 			UINT nID = LOWORD( reinterpret_cast< DWORD_PTR >( pv ) );

  0010b	0f b7 c6	 movzx	 eax, si

; 2715 : 			(nID);
; 2716 : #ifdef _ATL_USE_WINAPI_FAMILY_DESKTOP_APP
; 2717 : 			if( !LoadString( nID ) )

  0010e	8d 8d d8 fe ff
	ff		 lea	 ecx, DWORD PTR _strCommand$2[ebp]
  00114	50		 push	 eax
  00115	e8 00 00 00 00	 call	 ?LoadStringA@?$CStringT@DV?$StrTraitMFC@DV?$ChTraitsCRT@D@ATL@@@@@ATL@@QAEHI@Z ; ATL::CStringT<char,StrTraitMFC<char,ATL::ChTraitsCRT<char> > >::LoadStringA

; 1054 : 		if( !CheckImplicitLoad( pszSrc ) )

  0011a	eb 1f		 jmp	 SHORT $LN17@Release
$LN43@Release:
; File C:\Program Files\Microsoft Visual Studio\2022\Professional\VC\Tools\MSVC\14.44.35207\atlmfc\include\atlsimpstr.h

; 730  : 		return( int( strlen( psz ) ) );

  0011c	8b ce		 mov	 ecx, esi
  0011e	8d 51 01	 lea	 edx, DWORD PTR [ecx+1]
$LL100@Release:
  00121	8a 01		 mov	 al, BYTE PTR [ecx]
  00123	41		 inc	 ecx
  00124	84 c0		 test	 al, al
  00126	75 f9		 jne	 SHORT $LL100@Release
  00128	2b ca		 sub	 ecx, edx
  0012a	eb 02		 jmp	 SHORT $LN42@Release
$LN97@Release:

; 607  : 	}
; 608  : 	void SetString(
; 609  : 		_In_reads_opt_(nLength) PCXSTR pszSrc,
; 610  : 		_In_ int nLength)
; 611  : 	{
; 612  : 		if( nLength == 0 )
; 613  : 		{
; 614  : 			Empty();
; 615  : 		}
; 616  : 		else
; 617  : 		{
; 618  : 			// It is possible that pszSrc points to a location inside of our
; 619  : 			// buffer.  GetBuffer() might change m_pszData if (1) the buffer
; 620  : 			// is shared or (2) the buffer is too small to hold the new
; 621  : 			// string.  We detect this aliasing, and modify pszSrc to point
; 622  : 			// into the newly allocated buffer instead.
; 623  : 
; 624  : 			if(pszSrc == NULL)
; 625  : 				AtlThrow(E_INVALIDARG);
; 626  : 
; 627  : 			UINT nOldLength = GetLength();
; 628  : 			UINT_PTR nOffset = pszSrc-GetString();
; 629  : 			// If 0 <= nOffset <= nOldLength, then pszSrc points into our
; 630  : 			// buffer
; 631  : 
; 632  : 			PXSTR pszBuffer = GetBuffer( nLength );
; 633  : 			if( nOffset <= nOldLength )
; 634  : 			{
; 635  : 				CopyCharsOverlapped( pszBuffer, GetAllocLength(),
; 636  : 					pszBuffer+nOffset, nLength );
; 637  : 			}
; 638  : 			else
; 639  : 			{
; 640  : 				memcpy_s( pszBuffer, GetAllocLength() * sizeof( XCHAR ), pszSrc, nLength * sizeof( XCHAR ));
; 641  : 			}
; 642  : 			ReleaseBufferSetLength( nLength );
; 643  : 		}
; 644  : 	}
; 645  : 
; 646  : public:
; 647  : 	friend CSimpleStringT operator+(
; 648  : 		_In_ const CSimpleStringT& str1,
; 649  : 		_In_ const CSimpleStringT& str2)
; 650  : 	{
; 651  : 		CSimpleStringT s( str1.GetManager() );
; 652  : 
; 653  : 		Concatenate( s, str1, str1.GetLength(), str2, str2.GetLength() );
; 654  : 
; 655  : 		return( s );
; 656  : 	}
; 657  : 
; 658  : 	friend CSimpleStringT operator+(
; 659  : 		_In_ const CSimpleStringT& str1,
; 660  : 		_In_z_ PCXSTR psz2)
; 661  : 	{
; 662  : 		CSimpleStringT s( str1.GetManager() );
; 663  : 
; 664  : 		Concatenate( s, str1, str1.GetLength(), psz2, StringLength( psz2 ) );
; 665  : 
; 666  : 		return( s );
; 667  : 	}
; 668  : 
; 669  : 	friend CSimpleStringT operator+(
; 670  : 		_In_z_ PCXSTR psz1,
; 671  : 		_In_ const CSimpleStringT& str2)
; 672  : 	{
; 673  : 		CSimpleStringT s( str2.GetManager() );
; 674  : 
; 675  : 		Concatenate( s, psz1, StringLength( psz1 ), str2, str2.GetLength() );
; 676  : 
; 677  : 		return( s );
; 678  : 	}
; 679  : 
; 680  : 	_ATL_INSECURE_DEPRECATE("CSimpleStringT::CopyChars must be passed a buffer size")
; 681  : 	static void __cdecl CopyChars(
; 682  : 		_Out_writes_(nChars) XCHAR* pchDest,
; 683  : 		_In_reads_opt_(nChars) const XCHAR* pchSrc,
; 684  : 		_In_ int nChars) throw()
; 685  : 	{
; 686  : 		if (pchSrc != NULL)
; 687  : 		{
; 688  : 			#pragma warning (push)
; 689  : 			#pragma warning(disable : 4996)
; 690  : 			memcpy( pchDest, pchSrc, nChars*sizeof( XCHAR ) );
; 691  : 			#pragma warning (pop)
; 692  : 		}
; 693  : 	}
; 694  : 	static void __cdecl CopyChars(
; 695  : 		_Out_writes_to_(nDestLen,nChars) XCHAR* pchDest,
; 696  : 		_In_ size_t nDestLen,
; 697  : 		_In_reads_opt_(nChars) const XCHAR* pchSrc,
; 698  : 		_In_ int nChars) throw()
; 699  : 	{
; 700  : 		memcpy_s( pchDest, nDestLen*sizeof( XCHAR ),
; 701  : 			pchSrc, nChars*sizeof( XCHAR ) );
; 702  : 	}
; 703  : 
; 704  : 	_ATL_INSECURE_DEPRECATE("CSimpleStringT::CopyCharsOverlapped must be passed a buffer size")
; 705  : 	static void __cdecl CopyCharsOverlapped(
; 706  : 		_Out_writes_(nChars) XCHAR* pchDest,
; 707  : 		_In_reads_(nChars) const XCHAR* pchSrc,
; 708  : 		_In_ int nChars) throw()
; 709  : 	{
; 710  : 		#pragma warning (push)
; 711  : 		#pragma warning(disable : 4996)
; 712  : 		memmove( pchDest, pchSrc, nChars*sizeof( XCHAR ) );
; 713  : 		#pragma warning (pop)
; 714  : 	}
; 715  : 	static void __cdecl CopyCharsOverlapped(
; 716  : 		_Out_writes_to_(nDestLen, nDestLen) XCHAR* pchDest,
; 717  : 		_In_ size_t nDestLen,
; 718  : 		_In_reads_(nChars) const XCHAR* pchSrc,
; 719  : 		_In_ int nChars) throw()
; 720  : 	{
; 721  : 		memmove_s( pchDest, nDestLen*sizeof( XCHAR ),
; 722  : 			pchSrc, nChars*sizeof( XCHAR ) );
; 723  : 	}
; 724  : 	static int __cdecl StringLength(_In_opt_z_ const char* psz) throw()
; 725  : 	{
; 726  : 		if( psz == NULL )
; 727  : 		{
; 728  : 			return( 0 );

  0012c	33 c9		 xor	 ecx, ecx
$LN42@Release:

; 606  : 		SetString( pszSrc, StringLength( pszSrc ) );

  0012e	51		 push	 ecx
  0012f	56		 push	 esi
  00130	8d 8d d8 fe ff
	ff		 lea	 ecx, DWORD PTR _strCommand$2[ebp]
  00136	e8 00 00 00 00	 call	 ?SetString@?$CSimpleStringT@D$0A@@ATL@@QAEXPBDH@Z ; ATL::CSimpleStringT<char,0>::SetString
$LN17@Release:
; File C:\IAGOS\server\v18\Source\Source\_Common\buff.cpp

; 260  : 			strCommand.Replace( '(', '\"' );

  0013b	6a 22		 push	 34			; 00000022H
  0013d	6a 28		 push	 40			; 00000028H
  0013f	8d 8d d8 fe ff
	ff		 lea	 ecx, DWORD PTR _strCommand$2[ebp]
  00145	c7 45 fc 01 00
	00 00		 mov	 DWORD PTR __$EHRec$[ebp+8], 1
  0014c	e8 00 00 00 00	 call	 ?Replace@?$CStringT@DV?$StrTraitMFC@DV?$ChTraitsCRT@D@ATL@@@@@ATL@@QAEHDD@Z ; ATL::CStringT<char,StrTraitMFC<char,ATL::ChTraitsCRT<char> > >::Replace

; 261  : 			strCommand.Replace( ')', '\"' ); 

  00151	6a 22		 push	 34			; 00000022H
  00153	6a 29		 push	 41			; 00000029H
  00155	8d 8d d8 fe ff
	ff		 lea	 ecx, DWORD PTR _strCommand$2[ebp]
  0015b	e8 00 00 00 00	 call	 ?Replace@?$CStringT@DV?$StrTraitMFC@DV?$ChTraitsCRT@D@ATL@@@@@ATL@@QAEHDD@Z ; ATL::CStringT<char,StrTraitMFC<char,ATL::ChTraitsCRT<char> > >::Replace
; File C:\Program Files\Microsoft Visual Studio\2022\Professional\VC\Tools\MSVC\14.44.35207\atlmfc\include\atlsimpstr.h

; 523  : 		return( GetData()->nDataLength );

  00160	8b b5 d8 fe ff
	ff		 mov	 esi, DWORD PTR _strCommand$2[ebp]
; File C:\Program Files\Microsoft Visual Studio\2022\Professional\VC\Tools\MSVC\14.44.35207\atlmfc\include\cstringt.h

; 1795 : 		if( iStart < 0 || iStart > nLength )

  00166	83 7e f4 01	 cmp	 DWORD PTR [esi-12], 1
  0016a	7c 3e		 jl	 SHORT $LN8@Release

; 1796 : 		{
; 1797 : 			return( -1 );
; 1798 : 		}
; 1799 : 
; 1800 : 		// find first matching substring
; 1801 : 		PCXSTR psz = StringTraits::StringFindString( this->GetString()+iStart, pszSub );

  0016c	8d 46 01	 lea	 eax, DWORD PTR [esi+1]

; 212  : 		return reinterpret_cast< LPCSTR >( _mbsstr( reinterpret_cast< const unsigned char* >( pszBlock ),

  0016f	68 00 00 00 00	 push	 OFFSET ??_C@_01KMDKNFGN@?1@
  00174	50		 push	 eax
  00175	e8 00 00 00 00	 call	 __mbsstr
  0017a	83 c4 08	 add	 esp, 8

; 1804 : 		return( (psz == NULL) ? -1 : int( psz - this->GetString() ) );

  0017d	85 c0		 test	 eax, eax
  0017f	74 29		 je	 SHORT $LN8@Release
  00181	2b c6		 sub	 eax, esi
; File C:\IAGOS\server\v18\Source\Source\_Common\buff.cpp

; 263  : 			if( n >= 0 )

  00183	78 25		 js	 SHORT $LN8@Release

; 264  : 			{
; 265  : 				strncpy( szCommand, &pProp->szTextFileName[n], strCommand.GetLength() );

  00185	ff 76 f4	 push	 DWORD PTR [esi-12]
  00188	05 44 02 00 00	 add	 eax, 580		; 00000244H
  0018d	03 c3		 add	 eax, ebx
  0018f	50		 push	 eax
  00190	8d 45 8c	 lea	 eax, DWORD PTR _szCommand$4[ebp]
  00193	50		 push	 eax
  00194	e8 00 00 00 00	 call	 _strncpy

; 266  : 				ParsingCommand( szCommand, pBuffMgr->GetMover(), TRUE );

  00199	6a 01		 push	 1
  0019b	ff 77 0c	 push	 DWORD PTR [edi+12]
  0019e	8d 45 8c	 lea	 eax, DWORD PTR _szCommand$4[ebp]
  001a1	50		 push	 eax
  001a2	e8 00 00 00 00	 call	 ?ParsingCommand@@YAHPBDPAVCMover@@H@Z ; ParsingCommand
  001a7	83 c4 18	 add	 esp, 24			; 00000018H
$LN8@Release:

; 267  : 			}
; 268  : 		}

  001aa	c7 45 fc ff ff
	ff ff		 mov	 DWORD PTR __$EHRec$[ebp+8], -1
; File C:\Program Files\Microsoft Visual Studio\2022\Professional\VC\Tools\MSVC\14.44.35207\atlmfc\include\atlsimpstr.h

; 804  : 		return( reinterpret_cast< CStringData* >( m_pszData )-1 );

  001b1	83 c6 f0	 add	 esi, -16		; fffffff0H

; 92   : 		if( _InterlockedDecrement( &nRefs ) <= 0 )

  001b4	83 c8 ff	 or	 eax, -1
  001b7	f0 0f c1 46 0c	 lock	  xadd	 DWORD PTR [esi+12], eax
  001bc	48		 dec	 eax
  001bd	85 c0		 test	 eax, eax
  001bf	7f 08		 jg	 SHORT $LN72@Release

; 93   : 		{
; 94   : 			pStringMgr->Free( this );

  001c1	8b 0e		 mov	 ecx, DWORD PTR [esi]
  001c3	56		 push	 esi
  001c4	8b 01		 mov	 eax, DWORD PTR [ecx]
  001c6	ff 50 04	 call	 DWORD PTR [eax+4]
$LN72@Release:
; File C:\IAGOS\server\v18\Source\Source\_Common\buff.cpp

; 270  : 		if( pProp->dwItemKind2 == IK2_BUFF_TOGIFT )

  001c9	83 7b 74 25	 cmp	 DWORD PTR [ebx+116], 37	; 00000025H
  001cd	0f 85 01 01 00
	00		 jne	 $LN10@Release

; 271  : 		{
; 272  : 			CUser* pUser = static_cast<CUser*>( pBuffMgr->GetMover() );

  001d3	8b 85 d4 fe ff
	ff		 mov	 eax, DWORD PTR _pBuffMgr$GSCopy$1$[ebp]

; 273  : 			ItemProp* pItemProp = prj.GetItemProp( pProp->dwReferTarget1 );

  001d9	8b 8b d8 01 00
	00		 mov	 ecx, DWORD PTR [ebx+472]
  001df	8b 78 0c	 mov	 edi, DWORD PTR [eax+12]
; File C:\IAGOS\server\v18\Source\Source\_Common\Project.h

; 1389 : 	VERIFY_RANGE_ASSERT( nIndex, 0, m_aPropItem.GetSize(), "GetItemProp range_error", NULL );

  001e2	a1 40 02 00 00	 mov	 eax, DWORD PTR ?prj@@3VCProject@@A+576
  001e7	85 c9		 test	 ecx, ecx
  001e9	78 10		 js	 SHORT $LN79@Release
  001eb	3b c8		 cmp	 ecx, eax
  001ed	7d 0c		 jge	 SHORT $LN79@Release
; File C:\IAGOS\server\v18\Source\Source\_Common\data.h

; 270  : 	if( dwIndex >= (DWORD)m_nMaxIndex )

  001ef	73 20		 jae	 SHORT $LN104@Release

; 271  : 		return NULL;
; 272  : 	return (T*) m_apOffset[ dwIndex ];

  001f1	a1 30 02 00 00	 mov	 eax, DWORD PTR ?prj@@3VCProject@@A+560
  001f6	8b 34 88	 mov	 esi, DWORD PTR [eax+ecx*4]
; File C:\IAGOS\server\v18\Source\Source\_Common\Project.h

; 1390 : 	return m_aPropItem.GetAt( nIndex ); 

  001f9	eb 18		 jmp	 SHORT $LN74@Release
$LN79@Release:

; 579  : 	LPCTSTR szErr = Error( _T( "%s min:%d, max:%d, index:%d" ), szMsg, nMin, nMax, nIndex ); 

  001fb	51		 push	 ecx
  001fc	50		 push	 eax
  001fd	6a 00		 push	 0
  001ff	68 00 00 00 00	 push	 OFFSET ??_C@_0BI@BEIFNGEL@GetItemProp?5range_error@
  00204	68 00 00 00 00	 push	 OFFSET ??_C@_0BM@HMFGHCP@?$CFs?5min?3?$CFd?0?5max?3?$CFd?0?5index?3?$CFd@
  00209	e8 00 00 00 00	 call	 ?Error@@YAPBDPBDZZ	; Error
  0020e	83 c4 14	 add	 esp, 20			; 00000014H
$LN104@Release:
; File C:\IAGOS\server\v18\Source\Source\_Common\Obj.h

; 327  : 	return pObj && ( pObj->IsDelete() == FALSE ); 

  00211	33 f6		 xor	 esi, esi
$LN74@Release:
  00213	85 ff		 test	 edi, edi
  00215	0f 84 b9 00 00
	00		 je	 $LN10@Release

; 180  : 	BOOL			IsDelete()	{ return (m_dwFlags & OBJ_FLAG_DELETE);  }

  0021b	f6 47 04 01	 test	 BYTE PTR [edi+4], 1

; 327  : 	return pObj && ( pObj->IsDelete() == FALSE ); 

  0021f	0f 85 af 00 00
	00		 jne	 $LN10@Release
; File C:\IAGOS\server\v18\Source\Source\_Common\buff.cpp

; 274  : 			if( IsValidObj( pUser ) && pItemProp )

  00225	85 f6		 test	 esi, esi
  00227	0f 84 a7 00 00
	00		 je	 $LN10@Release

; 275  : 			{
; 276  : 				CItemElem itemElem;

  0022d	8d 8d dc fe ff
	ff		 lea	 ecx, DWORD PTR _itemElem$3[ebp]
  00233	e8 00 00 00 00	 call	 ??0CItemElem@@QAE@XZ	; CItemElem::CItemElem

; 277  : 				itemElem.m_dwItemId = pItemProp->dwID;

  00238	8b 06		 mov	 eax, DWORD PTR [esi]

; 278  : 				itemElem.m_bCharged = pItemProp->bCharged;
; 279  : 				itemElem.m_nItemNum = 1;
; 280  : 				itemElem.SetSerialNumber();

  0023a	8d 8d dc fe ff
	ff		 lea	 ecx, DWORD PTR _itemElem$3[ebp]
  00240	89 85 e8 fe ff
	ff		 mov	 DWORD PTR _itemElem$3[ebp+12], eax
  00246	8b 86 ec 00 00
	00		 mov	 eax, DWORD PTR [esi+236]
  0024c	89 45 80	 mov	 DWORD PTR _itemElem$3[ebp+164], eax
  0024f	b8 01 00 00 00	 mov	 eax, 1
  00254	c7 45 fc 02 00
	00 00		 mov	 DWORD PTR __$EHRec$[ebp+8], 2
  0025b	66 89 85 50 ff
	ff ff		 mov	 WORD PTR _itemElem$3[ebp+116], ax
  00262	e8 00 00 00 00	 call	 ?SetSerialNumber@CItemBase@@QAEXXZ ; CItemBase::SetSerialNumber

; 281  : 				if( pUser->CreateItem( &itemElem ) )

  00267	6a 00		 push	 0
  00269	6a 00		 push	 0
  0026b	6a 00		 push	 0
  0026d	8d 85 dc fe ff
	ff		 lea	 eax, DWORD PTR _itemElem$3[ebp]
  00273	8b cf		 mov	 ecx, edi
  00275	50		 push	 eax
  00276	e8 00 00 00 00	 call	 ?CreateItem@CMover@@QAEHPAVCItemBase@@PAEPAFE@Z ; CMover::CreateItem
  0027b	85 c0		 test	 eax, eax
  0027d	74 07		 je	 SHORT $LN11@Release

; 282  : 					g_DPSrvr.PutItemLog( pUser, "g", "BuffToGift", &itemElem, 1 );

  0027f	b8 00 00 00 00	 mov	 eax, OFFSET ??_C@_0L@LGANLGGI@BuffToGift@
  00284	eb 29		 jmp	 SHORT $LN12@Release
$LN11@Release:

; 283  : 				else
; 284  : 				{
; 285  : 					g_dpDBClient.SendQueryPostMail( pUser->m_idPlayer, 0, itemElem, 0, pItemProp->szName, "" );

  00286	68 00 00 00 00	 push	 OFFSET ??_C@_00CNPNBAHC@@
  0028b	8d 46 04	 lea	 eax, DWORD PTR [esi+4]
  0028e	b9 00 00 00 00	 mov	 ecx, OFFSET ?g_dpDBClient@@3VCDPDatabaseClient@@A ; g_dpDBClient
  00293	50		 push	 eax
  00294	6a 00		 push	 0
  00296	8d 85 dc fe ff
	ff		 lea	 eax, DWORD PTR _itemElem$3[ebp]
  0029c	50		 push	 eax
  0029d	6a 00		 push	 0
  0029f	ff b7 34 02 00
	00		 push	 DWORD PTR [edi+564]
  002a5	e8 00 00 00 00	 call	 ?SendQueryPostMail@CDPDatabaseClient@@QAEXKKAAVCItemElem@@HPAD1@Z ; CDPDatabaseClient::SendQueryPostMail

; 286  : 					g_DPSrvr.PutItemLog( pUser, "g", "BuffToGift_Post", &itemElem, 1 );

  002aa	b8 00 00 00 00	 mov	 eax, OFFSET ??_C@_0BA@JAHGEPOA@BuffToGift_Post@
$LN12@Release:

; 287  : 				}
; 288  : 			}

  002af	6a 01		 push	 1
  002b1	8d 8d dc fe ff
	ff		 lea	 ecx, DWORD PTR _itemElem$3[ebp]
  002b7	51		 push	 ecx
  002b8	50		 push	 eax
  002b9	68 00 00 00 00	 push	 OFFSET ??_C@_01JEJKBAGA@g@
  002be	57		 push	 edi
  002bf	b9 00 00 00 00	 mov	 ecx, OFFSET ?g_DPSrvr@@3VCDPSrvr@@A ; g_DPSrvr
  002c4	e8 00 00 00 00	 call	 ?PutItemLog@CDPSrvr@@QAEXPAVCUser@@PBD1PAVCItemElem@@H@Z ; CDPSrvr::PutItemLog
  002c9	8d 8d dc fe ff
	ff		 lea	 ecx, DWORD PTR _itemElem$3[ebp]
  002cf	e8 00 00 00 00	 call	 ??1CItemElem@@UAE@XZ	; CItemElem::~CItemElem
$LN10@Release:

; 293  : }

  002d4	8b 4d f4	 mov	 ecx, DWORD PTR __$EHRec$[ebp]
  002d7	64 89 0d 00 00
	00 00		 mov	 DWORD PTR fs:0, ecx
  002de	59		 pop	 ecx
  002df	5f		 pop	 edi
  002e0	5e		 pop	 esi
  002e1	5b		 pop	 ebx
  002e2	8b 4d f0	 mov	 ecx, DWORD PTR __$ArrayPad$[ebp]
  002e5	33 cd		 xor	 ecx, ebp
  002e7	e8 00 00 00 00	 call	 @__security_check_cookie@4
  002ec	8b e5		 mov	 esp, ebp
  002ee	5d		 pop	 ebp
  002ef	c2 04 00	 ret	 4
$LN106@Release:
; File C:\Program Files\Microsoft Visual Studio\2022\Professional\VC\Tools\MSVC\14.44.35207\atlmfc\include\atlsimpstr.h

; 209  : 		ATLENSURE( pStringMgr != NULL );

  002f2	68 05 40 00 80	 push	 -2147467259		; 80004005H
  002f7	e8 00 00 00 00	 call	 ?AtlThrowImpl@ATL@@YGXJ@Z ; ATL::AtlThrowImpl
$LN103@Release:
  002fc	cc		 int	 3
_TEXT	ENDS
;	COMDAT text$x
text$x	SEGMENT
__unwindfunclet$?Release@IBuffItemBase@@UAEXPAVCBuffMgr@@@Z$2:
  00000	8d 8d d8 fe ff
	ff		 lea	 ecx, DWORD PTR _strCommand$2[ebp]
  00006	e9 00 00 00 00	 jmp	 ??1?$CSimpleStringT@D$0A@@ATL@@QAE@XZ ; ATL::CSimpleStringT<char,0>::~CSimpleStringT<char,0>
__unwindfunclet$?Release@IBuffItemBase@@UAEXPAVCBuffMgr@@@Z$0:
  0000b	8d 8d d8 fe ff
	ff		 lea	 ecx, DWORD PTR _strCommand$2[ebp]
  00011	e9 00 00 00 00	 jmp	 ??1?$CStringT@DV?$StrTraitMFC@DV?$ChTraitsCRT@D@ATL@@@@@ATL@@QAE@XZ ; ATL::CStringT<char,StrTraitMFC<char,ATL::ChTraitsCRT<char> > >::~CStringT<char,StrTraitMFC<char,ATL::ChTraitsCRT<char> > >
__unwindfunclet$?Release@IBuffItemBase@@UAEXPAVCBuffMgr@@@Z$1:
  00016	8d 8d dc fe ff
	ff		 lea	 ecx, DWORD PTR _itemElem$3[ebp]
  0001c	e9 00 00 00 00	 jmp	 ??1CItemElem@@UAE@XZ	; CItemElem::~CItemElem
  00021	cc		 int	 3
  00022	cc		 int	 3
  00023	cc		 int	 3
  00024	cc		 int	 3
  00025	cc		 int	 3
__ehhandler$?Release@IBuffItemBase@@UAEXPAVCBuffMgr@@@Z:
  00026	90		 npad	 1
  00027	90		 npad	 1
  00028	8b 54 24 08	 mov	 edx, DWORD PTR [esp+8]
  0002c	8d 42 0c	 lea	 eax, DWORD PTR [edx+12]
  0002f	8b 8a d0 fe ff
	ff		 mov	 ecx, DWORD PTR [edx-304]
  00035	33 c8		 xor	 ecx, eax
  00037	e8 00 00 00 00	 call	 @__security_check_cookie@4
  0003c	8b 4a fc	 mov	 ecx, DWORD PTR [edx-4]
  0003f	33 c8		 xor	 ecx, eax
  00041	e8 00 00 00 00	 call	 @__security_check_cookie@4
  00046	b8 00 00 00 00	 mov	 eax, OFFSET __ehfuncinfo$?Release@IBuffItemBase@@UAEXPAVCBuffMgr@@@Z
  0004b	e9 00 00 00 00	 jmp	 ___CxxFrameHandler3
text$x	ENDS
?Release@IBuffItemBase@@UAEXPAVCBuffMgr@@@Z ENDP	; IBuffItemBase::Release
; Function compile flags: /Ogtp
; File C:\IAGOS\server\v18\Source\Source\_Common\buff.cpp
; File C:\IAGOS\server\v18\Source\Source\_Common\Project.h
; File C:\IAGOS\server\v18\Source\Source\_Common\data.h
; File C:\IAGOS\server\v18\Source\Source\_Common\buff.cpp
; File C:\IAGOS\server\v18\Source\Source\_Common\Project.h
; File C:\IAGOS\server\v18\Source\Source\_Common\buff.cpp
;	COMDAT ?GetPropA@IBuffItemBase@@UAEPAUItemProp@@XZ
_TEXT	SEGMENT
?GetPropA@IBuffItemBase@@UAEPAUItemProp@@XZ PROC	; IBuffItemBase::GetPropA, COMDAT
; _this$ = ecx

; 297  : 	return prj.GetItemProp( GetId() );

  00000	0f b7 49 06	 movzx	 ecx, WORD PTR [ecx+6]
; File C:\IAGOS\server\v18\Source\Source\_Common\Project.h

; 1389 : 	VERIFY_RANGE_ASSERT( nIndex, 0, m_aPropItem.GetSize(), "GetItemProp range_error", NULL );

  00004	a1 40 02 00 00	 mov	 eax, DWORD PTR ?prj@@3VCProject@@A+576
  00009	3b c8		 cmp	 ecx, eax
  0000b	7d 0b		 jge	 SHORT $LN8@GetPropA
; File C:\IAGOS\server\v18\Source\Source\_Common\data.h

; 270  : 	if( dwIndex >= (DWORD)m_nMaxIndex )

  0000d	73 1f		 jae	 SHORT $LN15@GetPropA

; 271  : 		return NULL;
; 272  : 	return (T*) m_apOffset[ dwIndex ];

  0000f	a1 30 02 00 00	 mov	 eax, DWORD PTR ?prj@@3VCProject@@A+560
  00014	8b 04 88	 mov	 eax, DWORD PTR [eax+ecx*4]
; File C:\IAGOS\server\v18\Source\Source\_Common\buff.cpp

; 298  : }

  00017	c3		 ret	 0
$LN8@GetPropA:
; File C:\IAGOS\server\v18\Source\Source\_Common\Project.h

; 579  : 	LPCTSTR szErr = Error( _T( "%s min:%d, max:%d, index:%d" ), szMsg, nMin, nMax, nIndex ); 

  00018	51		 push	 ecx
  00019	50		 push	 eax
  0001a	6a 00		 push	 0
  0001c	68 00 00 00 00	 push	 OFFSET ??_C@_0BI@BEIFNGEL@GetItemProp?5range_error@
  00021	68 00 00 00 00	 push	 OFFSET ??_C@_0BM@HMFGHCP@?$CFs?5min?3?$CFd?0?5max?3?$CFd?0?5index?3?$CFd@
  00026	e8 00 00 00 00	 call	 ?Error@@YAPBDPBDZZ	; Error
  0002b	83 c4 14	 add	 esp, 20			; 00000014H
$LN15@GetPropA:
; File C:\IAGOS\server\v18\Source\Source\_Common\buff.cpp

; 298  : }

  0002e	33 c0		 xor	 eax, eax
  00030	c3		 ret	 0
?GetPropA@IBuffItemBase@@UAEPAUItemProp@@XZ ENDP	; IBuffItemBase::GetPropA
_TEXT	ENDS
; Function compile flags: /Ogtp
; File C:\IAGOS\server\v18\Source\Source\_Common\buff.h
;	COMDAT ??1IBuffItemBase@@UAE@XZ
_TEXT	SEGMENT
??1IBuffItemBase@@UAE@XZ PROC				; IBuffItemBase::~IBuffItemBase, COMDAT
; _this$ = ecx

; 106  : 	virtual	~IBuffItemBase()	{}

  00000	c7 01 00 00 00
	00		 mov	 DWORD PTR [ecx], OFFSET ??_7IBuff@@6B@
  00006	c3		 ret	 0
??1IBuffItemBase@@UAE@XZ ENDP				; IBuffItemBase::~IBuffItemBase
_TEXT	ENDS
; Function compile flags: /Ogtp
;	COMDAT ??_GIBuff@@UAEPAXI@Z
_TEXT	SEGMENT
___flags$ = 8						; size = 4
??_GIBuff@@UAEPAXI@Z PROC				; IBuff::`scalar deleting destructor', COMDAT
; _this$ = ecx
  00000	55		 push	 ebp
  00001	8b ec		 mov	 ebp, esp
  00003	f6 45 08 01	 test	 BYTE PTR ___flags$[ebp], 1
  00007	56		 push	 esi
  00008	8b f1		 mov	 esi, ecx
  0000a	c7 06 00 00 00
	00		 mov	 DWORD PTR [esi], OFFSET ??_7IBuff@@6B@
  00010	74 0b		 je	 SHORT $LN5@scalar
  00012	6a 1c		 push	 28			; 0000001cH
  00014	56		 push	 esi
  00015	e8 00 00 00 00	 call	 ??3@YAXPAXI@Z		; operator delete
  0001a	83 c4 08	 add	 esp, 8
$LN5@scalar:
  0001d	8b c6		 mov	 eax, esi
  0001f	5e		 pop	 esi
  00020	5d		 pop	 ebp
  00021	c2 04 00	 ret	 4
??_GIBuff@@UAEPAXI@Z ENDP				; IBuff::`scalar deleting destructor'
_TEXT	ENDS
; Function compile flags: /Ogtp
; File C:\IAGOS\server\v18\Source\Source\_Common\buff.h
;	COMDAT ?OnExpire@IBuff@@UAEXPAVCMover@@@Z
_TEXT	SEGMENT
_pMover$ = 8						; size = 4
?OnExpire@IBuff@@UAEXPAVCMover@@@Z PROC			; IBuff::OnExpire, COMDAT
; _this$ = ecx

; 76   : 	virtual	void	OnExpire( CMover* pMover )	{}

  00000	c2 04 00	 ret	 4
?OnExpire@IBuff@@UAEXPAVCMover@@@Z ENDP			; IBuff::OnExpire
_TEXT	ENDS
; Function compile flags: /Ogtp
; File C:\IAGOS\server\v18\Source\Source\_Common\buff.cpp
;	COMDAT ?Expire@IBuff@@AAEHPAVCMover@@K@Z
_TEXT	SEGMENT
_pMover$ = 8						; size = 4
_tmCurrent$ = 12					; size = 4
?Expire@IBuff@@AAEHPAVCMover@@K@Z PROC			; IBuff::Expire, COMDAT
; _this$ = ecx

; 168  : {

  00000	55		 push	 ebp
  00001	8b ec		 mov	 ebp, esp
  00003	56		 push	 esi
  00004	8b f1		 mov	 esi, ecx
  00006	57		 push	 edi

; 169  : 	if( IsRemovable( pMover ) && Timeover( pMover, tmCurrent ) )

  00007	8b 7d 08	 mov	 edi, DWORD PTR _pMover$[ebp]
  0000a	57		 push	 edi
  0000b	8b 06		 mov	 eax, DWORD PTR [esi]
  0000d	ff 50 2c	 call	 DWORD PTR [eax+44]
  00010	85 c0		 test	 eax, eax
  00012	74 22		 je	 SHORT $LN2@Expire
  00014	ff 75 0c	 push	 DWORD PTR _tmCurrent$[ebp]
  00017	8b 06		 mov	 eax, DWORD PTR [esi]
  00019	8b ce		 mov	 ecx, esi
  0001b	57		 push	 edi
  0001c	ff 50 54	 call	 DWORD PTR [eax+84]
  0001f	85 c0		 test	 eax, eax
  00021	74 13		 je	 SHORT $LN2@Expire

; 170  : 	{
; 171  : #ifdef __WORLDSERVER
; 172  : 		OnExpire( pMover );

  00023	8b 06		 mov	 eax, DWORD PTR [esi]
  00025	8b ce		 mov	 ecx, esi
  00027	57		 push	 edi
  00028	ff 50 58	 call	 DWORD PTR [eax+88]
  0002b	5f		 pop	 edi

; 173  : #endif	// __WORLDSERVER
; 174  : 		return TRUE;

  0002c	b8 01 00 00 00	 mov	 eax, 1

; 177  : }

  00031	5e		 pop	 esi
  00032	5d		 pop	 ebp
  00033	c2 08 00	 ret	 8
$LN2@Expire:
  00036	5f		 pop	 edi

; 175  : 	}
; 176  : 	return FALSE;

  00037	33 c0		 xor	 eax, eax

; 177  : }

  00039	5e		 pop	 esi
  0003a	5d		 pop	 ebp
  0003b	c2 08 00	 ret	 8
?Expire@IBuff@@AAEHPAVCMover@@K@Z ENDP			; IBuff::Expire
_TEXT	ENDS
; Function compile flags: /Ogtp
; File C:\IAGOS\server\v18\Source\Source\_Common\buff.cpp
;	COMDAT ?Timeover@IBuff@@MAEHPAVCMover@@K@Z
_TEXT	SEGMENT
_pMover$ = 8						; size = 4
_tmCurrent$ = 12					; size = 4
?Timeover@IBuff@@MAEHPAVCMover@@K@Z PROC		; IBuff::Timeover, COMDAT
; _this$ = ecx

; 163  : {

  00000	55		 push	 ebp
  00001	8b ec		 mov	 ebp, esp

; 164  : 	return tmCurrent - GetInst() >= GetTotal();

  00003	8b 45 0c	 mov	 eax, DWORD PTR _tmCurrent$[ebp]
  00006	2b 41 10	 sub	 eax, DWORD PTR [ecx+16]
  00009	3b 41 0c	 cmp	 eax, DWORD PTR [ecx+12]
  0000c	1b c0		 sbb	 eax, eax
  0000e	40		 inc	 eax

; 165  : }

  0000f	5d		 pop	 ebp
  00010	c2 08 00	 ret	 8
?Timeover@IBuff@@MAEHPAVCMover@@K@Z ENDP		; IBuff::Timeover
_TEXT	ENDS
; Function compile flags: /Ogtp
; File C:\IAGOS\server\v18\Source\Source\_Common\buff.h
;	COMDAT ?Apply@IBuff@@MAEXPAVCMover@@@Z
_TEXT	SEGMENT
_pMover$ = 8						; size = 4
?Apply@IBuff@@MAEXPAVCMover@@@Z PROC			; IBuff::Apply, COMDAT
; _this$ = ecx

; 68   : 	virtual	void	Apply( CMover* pMover )		{}

  00000	c2 04 00	 ret	 4
?Apply@IBuff@@MAEXPAVCMover@@@Z ENDP			; IBuff::Apply
_TEXT	ENDS
; Function compile flags: /Ogtp
; File C:\IAGOS\server\v18\Source\Source\_Common\buff.h
;	COMDAT ?IsInvalid@IBuff@@MAEHPAVCMover@@@Z
_TEXT	SEGMENT
___formal$ = 8						; size = 4
?IsInvalid@IBuff@@MAEHPAVCMover@@@Z PROC		; IBuff::IsInvalid, COMDAT
; _this$ = ecx

; 67   : 	virtual	BOOL	IsInvalid( CMover* )	{	return FALSE;	}

  00000	33 c0		 xor	 eax, eax
  00002	c2 04 00	 ret	 4
?IsInvalid@IBuff@@MAEHPAVCMover@@@Z ENDP		; IBuff::IsInvalid
_TEXT	ENDS
; Function compile flags: /Ogtp
; File C:\IAGOS\server\v18\Source\Source\_Common\buff.h
;	COMDAT ?IsAttacker@IBuff@@UAEHPAVCMover@@K@Z
_TEXT	SEGMENT
___formal$ = 8						; size = 4
_oiAttacker$ = 12					; size = 4
?IsAttacker@IBuff@@UAEHPAVCMover@@K@Z PROC		; IBuff::IsAttacker, COMDAT
; _this$ = ecx

; 65   : 	virtual	BOOL	IsAttacker( CMover*, OBJID oiAttacker )	{	return FALSE;	}

  00000	33 c0		 xor	 eax, eax
  00002	c2 08 00	 ret	 8
?IsAttacker@IBuff@@UAEHPAVCMover@@K@Z ENDP		; IBuff::IsAttacker
_TEXT	ENDS
; Function compile flags: /Ogtp
; File C:\IAGOS\server\v18\Source\Source\_Common\buff.h
;	COMDAT ?IsDebuf@IBuff@@UAEHPAVCMover@@@Z
_TEXT	SEGMENT
_pMover$ = 8						; size = 4
?IsDebuf@IBuff@@UAEHPAVCMover@@@Z PROC			; IBuff::IsDebuf, COMDAT
; _this$ = ecx

; 64   : 	virtual	BOOL	IsDebuf( CMover* pMover )	{	return FALSE;	}

  00000	33 c0		 xor	 eax, eax
  00002	c2 04 00	 ret	 4
?IsDebuf@IBuff@@UAEHPAVCMover@@@Z ENDP			; IBuff::IsDebuf
_TEXT	ENDS
; Function compile flags: /Ogtp
; File C:\IAGOS\server\v18\Source\Source\_Common\buff.h
;	COMDAT ?HasChrState@IBuff@@UAEHPAVCMover@@K@Z
_TEXT	SEGMENT
___formal$ = 8						; size = 4
_dwChrState$ = 12					; size = 4
?HasChrState@IBuff@@UAEHPAVCMover@@K@Z PROC		; IBuff::HasChrState, COMDAT
; _this$ = ecx

; 63   : 	virtual	BOOL	HasChrState( CMover*, DWORD dwChrState )	{	return FALSE;	}

  00000	33 c0		 xor	 eax, eax
  00002	c2 08 00	 ret	 8
?HasChrState@IBuff@@UAEHPAVCMover@@K@Z ENDP		; IBuff::HasChrState
_TEXT	ENDS
; Function compile flags: /Ogtp
; File C:\IAGOS\server\v18\Source\Source\_Common\buff.h
;	COMDAT ?HasDstParam@IBuff@@UAEHPAVCMover@@K@Z
_TEXT	SEGMENT
___formal$ = 8						; size = 4
_dwDstParam$ = 12					; size = 4
?HasDstParam@IBuff@@UAEHPAVCMover@@K@Z PROC		; IBuff::HasDstParam, COMDAT
; _this$ = ecx

; 62   : 	virtual	BOOL	HasDstParam( CMover*, DWORD dwDstParam )	{	return FALSE;	}

  00000	33 c0		 xor	 eax, eax
  00002	c2 08 00	 ret	 8
?HasDstParam@IBuff@@UAEHPAVCMover@@K@Z ENDP		; IBuff::HasDstParam
_TEXT	ENDS
; Function compile flags: /Ogtp
; File C:\IAGOS\server\v18\Source\Source\_Common\buff.h
;	COMDAT ?IsGood@IBuff@@UAEHPAVCMover@@@Z
_TEXT	SEGMENT
_pMover$ = 8						; size = 4
?IsGood@IBuff@@UAEHPAVCMover@@@Z PROC			; IBuff::IsGood, COMDAT
; _this$ = ecx

; 61   : 	virtual	BOOL	IsGood( CMover* pMover )	{	return FALSE;	}

  00000	33 c0		 xor	 eax, eax
  00002	c2 04 00	 ret	 4
?IsGood@IBuff@@UAEHPAVCMover@@@Z ENDP			; IBuff::IsGood
_TEXT	ENDS
; Function compile flags: /Ogtp
; File C:\IAGOS\server\v18\Source\Source\_Common\buff.h
;	COMDAT ?IsCommon@IBuff@@UAEHXZ
_TEXT	SEGMENT
?IsCommon@IBuff@@UAEHXZ PROC				; IBuff::IsCommon, COMDAT
; _this$ = ecx

; 60   : 	virtual	BOOL	IsCommon()	{	return TRUE;	}

  00000	b8 01 00 00 00	 mov	 eax, 1
  00005	c3		 ret	 0
?IsCommon@IBuff@@UAEHXZ ENDP				; IBuff::IsCommon
_TEXT	ENDS
; Function compile flags: /Ogtp
; File C:\IAGOS\server\v18\Source\Source\_Common\buff.h
;	COMDAT ?GetDisguise@IBuff@@UAEKXZ
_TEXT	SEGMENT
?GetDisguise@IBuff@@UAEKXZ PROC				; IBuff::GetDisguise, COMDAT
; _this$ = ecx

; 58   : 	virtual	DWORD	GetDisguise()	{	return NULL_ID;		}

  00000	83 c8 ff	 or	 eax, -1
  00003	c3		 ret	 0
?GetDisguise@IBuff@@UAEKXZ ENDP				; IBuff::GetDisguise
_TEXT	ENDS
; Function compile flags: /Ogtp
; File C:\IAGOS\server\v18\Source\Source\_Common\buff.h
;	COMDAT ?IsRemovable@IBuff@@UAEHPAVCMover@@@Z
_TEXT	SEGMENT
_pMover$ = 8						; size = 4
?IsRemovable@IBuff@@UAEHPAVCMover@@@Z PROC		; IBuff::IsRemovable, COMDAT
; _this$ = ecx

; 57   : 	virtual	BOOL	IsRemovable( CMover* pMover )	{	return TRUE;	}

  00000	b8 01 00 00 00	 mov	 eax, 1
  00005	c2 04 00	 ret	 4
?IsRemovable@IBuff@@UAEHPAVCMover@@@Z ENDP		; IBuff::IsRemovable
_TEXT	ENDS
; Function compile flags: /Ogtp
; File C:\IAGOS\server\v18\Source\Source\_Common\buff.h
;	COMDAT ?Release@IBuff@@UAEXPAVCBuffMgr@@@Z
_TEXT	SEGMENT
_pBuffMgr$ = 8						; size = 4
?Release@IBuff@@UAEXPAVCBuffMgr@@@Z PROC		; IBuff::Release, COMDAT
; _this$ = ecx

; 56   : 	virtual	void	Release( CBuffMgr* pBuffMgr )	{}

  00000	c2 04 00	 ret	 4
?Release@IBuff@@UAEXPAVCBuffMgr@@@Z ENDP		; IBuff::Release
_TEXT	ENDS
; Function compile flags: /Ogtp
; File C:\IAGOS\server\v18\Source\Source\_Common\buff.h
;	COMDAT ?GetPropA@IBuff@@UAEPAUItemProp@@XZ
_TEXT	SEGMENT
?GetPropA@IBuff@@UAEPAUItemProp@@XZ PROC		; IBuff::GetPropA, COMDAT
; _this$ = ecx

; 55   : 	virtual	ItemProp*	GetProp()	{	return NULL;	}

  00000	33 c0		 xor	 eax, eax
  00002	c3		 ret	 0
?GetPropA@IBuff@@UAEPAUItemProp@@XZ ENDP		; IBuff::GetPropA
_TEXT	ENDS
; Function compile flags: /Ogtp
; File C:\IAGOS\server\v18\Source\Source\_Common\buff.cpp
; File C:\IAGOS\server\v18\Source\Source\_Common\buff.h
; File C:\IAGOS\server\v18\Source\Source\_Common\buff.cpp
;	COMDAT ?AddTotal@IBuff@@UAEXK@Z
_TEXT	SEGMENT
_tmTotal$ = 8						; size = 4
?AddTotal@IBuff@@UAEXK@Z PROC				; IBuff::AddTotal, COMDAT
; _this$ = ecx

; 54   : {

  00000	55		 push	 ebp
  00001	8b ec		 mov	 ebp, esp
  00003	56		 push	 esi

; 55   : 	SetTotal( tmTotal );

  00004	ff 75 08	 push	 DWORD PTR _tmTotal$[ebp]
  00007	8b f1		 mov	 esi, ecx
  00009	e8 00 00 00 00	 call	 ?SetTotal@IBuff@@QAEXK@Z ; IBuff::SetTotal

; 56   : 	SetInst( ::timeGetTime() );		// +

  0000e	ff 15 00 00 00
	00		 call	 DWORD PTR __imp__timeGetTime@0
; File C:\IAGOS\server\v18\Source\Source\_Common\buff.h

; 40   : 	void	SetInst( DWORD tmInst )	{	m_tmInst	= tmInst;	}

  00014	89 46 10	 mov	 DWORD PTR [esi+16], eax
  00017	5e		 pop	 esi
; File C:\IAGOS\server\v18\Source\Source\_Common\buff.cpp

; 57   : }

  00018	5d		 pop	 ebp
  00019	c2 04 00	 ret	 4
?AddTotal@IBuff@@UAEXK@Z ENDP				; IBuff::AddTotal
_TEXT	ENDS
; Function compile flags: /Ogtp
; File C:\IAGOS\server\v18\Source\Source\_Common\buff.cpp
;	COMDAT ?IsAddable@IBuff@@UAEHPAVCMover@@@Z
_TEXT	SEGMENT
_pMover$ = 8						; size = 4
?IsAddable@IBuff@@UAEHPAVCMover@@@Z PROC		; IBuff::IsAddable, COMDAT
; _this$ = ecx

; 46   : 	int nTotal	= static_cast<int>( GetTotal() );
; 47   : 	ASSERT( nTotal >= 0 );
; 48   : 	if( nTotal < 0 )

  00000	33 c0		 xor	 eax, eax
  00002	39 41 0c	 cmp	 DWORD PTR [ecx+12], eax
  00005	0f 9d c0	 setge	 al

; 49   : 		return FALSE;
; 50   : 	return TRUE;
; 51   : }

  00008	c2 04 00	 ret	 4
?IsAddable@IBuff@@UAEHPAVCMover@@@Z ENDP		; IBuff::IsAddable
_TEXT	ENDS
; Function compile flags: /Ogtp
; File C:\IAGOS\server\v18\Source\Source\_Common\buff.h
;	COMDAT ?IsIk3@IBuff@@UAEHK@Z
_TEXT	SEGMENT
_dwIk3$ = 8						; size = 4
?IsIk3@IBuff@@UAEHK@Z PROC				; IBuff::IsIk3, COMDAT
; _this$ = ecx

; 52   : 	virtual	BOOL	IsIk3( DWORD dwIk3 )	{	return FALSE;	}

  00000	33 c0		 xor	 eax, eax
  00002	c2 04 00	 ret	 4
?IsIk3@IBuff@@UAEHK@Z ENDP				; IBuff::IsIk3
_TEXT	ENDS
; Function compile flags: /Ogtp
; File C:\IAGOS\server\v18\Source\Source\_Common\buff.h
;	COMDAT ?IsIk1@IBuff@@UAEHK@Z
_TEXT	SEGMENT
_dwIk1$ = 8						; size = 4
?IsIk1@IBuff@@UAEHK@Z PROC				; IBuff::IsIk1, COMDAT
; _this$ = ecx

; 51   : 	virtual	BOOL	IsIk1( DWORD dwIk1 )	{	return FALSE;	}

  00000	33 c0		 xor	 eax, eax
  00002	c2 04 00	 ret	 4
?IsIk1@IBuff@@UAEHK@Z ENDP				; IBuff::IsIk1
_TEXT	ENDS
; Function compile flags: /Ogtp
; File C:\IAGOS\server\v18\Source\Source\_Common\buff.cpp
; File C:\IAGOS\server\v18\Source\Source\_Common\buff.h
; File C:\IAGOS\server\v18\Source\Source\_Common\buff.cpp
;	COMDAT ?Process@IBuff@@UAEHPAVCMover@@K@Z
_TEXT	SEGMENT
_pMover$ = 8						; size = 4
_tmCurrent$ = 12					; size = 4
?Process@IBuff@@UAEHPAVCMover@@K@Z PROC			; IBuff::Process, COMDAT
; _this$ = ecx

; 180  : {

  00000	55		 push	 ebp
  00001	8b ec		 mov	 ebp, esp
  00003	56		 push	 esi
  00004	8b f1		 mov	 esi, ecx
  00006	57		 push	 edi

; 181  : 	if( GetRemove() )

  00007	83 7e 18 00	 cmp	 DWORD PTR [esi+24], 0
  0000b	75 35		 jne	 SHORT $LN9@Process

; 182  : 		return TRUE;
; 183  : 	if( IsInvalid( pMover ) )

  0000d	8b 06		 mov	 eax, DWORD PTR [esi]
  0000f	8b 7d 08	 mov	 edi, DWORD PTR _pMover$[ebp]
  00012	57		 push	 edi
  00013	ff 50 4c	 call	 DWORD PTR [eax+76]
  00016	85 c0		 test	 eax, eax
  00018	75 28		 jne	 SHORT $LN9@Process

; 185  : 	if( pMover )

  0001a	53		 push	 ebx
  0001b	8b 5d 0c	 mov	 ebx, DWORD PTR _tmCurrent$[ebp]
  0001e	85 ff		 test	 edi, edi
  00020	74 10		 je	 SHORT $LN5@Process

; 186  : 	{
; 187  : #ifdef __CLIENT
; 188  : 		CreateSFX( pMover );
; 189  : #endif	// __CLIENT
; 190  : 		if( GetInst() == 0 )

  00022	39 46 10	 cmp	 DWORD PTR [esi+16], eax
  00025	75 0b		 jne	 SHORT $LN5@Process

; 191  : 		{
; 192  : 			Apply( pMover );

  00027	8b 06		 mov	 eax, DWORD PTR [esi]
  00029	8b ce		 mov	 ecx, esi
  0002b	57		 push	 edi
  0002c	ff 50 50	 call	 DWORD PTR [eax+80]
; File C:\IAGOS\server\v18\Source\Source\_Common\buff.h

; 40   : 	void	SetInst( DWORD tmInst )	{	m_tmInst	= tmInst;	}

  0002f	89 5e 10	 mov	 DWORD PTR [esi+16], ebx
$LN5@Process:
; File C:\IAGOS\server\v18\Source\Source\_Common\buff.cpp

; 196  : 	return Expire( pMover, tmCurrent );

  00032	53		 push	 ebx
  00033	57		 push	 edi
  00034	8b ce		 mov	 ecx, esi
  00036	e8 00 00 00 00	 call	 ?Expire@IBuff@@AAEHPAVCMover@@K@Z ; IBuff::Expire
  0003b	5b		 pop	 ebx
  0003c	5f		 pop	 edi

; 197  : }

  0003d	5e		 pop	 esi
  0003e	5d		 pop	 ebp
  0003f	c2 08 00	 ret	 8
$LN9@Process:
  00042	5f		 pop	 edi

; 184  : 		return TRUE;

  00043	b8 01 00 00 00	 mov	 eax, 1

; 197  : }

  00048	5e		 pop	 esi
  00049	5d		 pop	 ebp
  0004a	c2 08 00	 ret	 8
?Process@IBuff@@UAEHPAVCMover@@K@Z ENDP			; IBuff::Process
_TEXT	ENDS
; Function compile flags: /Ogtp
; File C:\IAGOS\server\v18\Source\Source\_Common\buff.cpp
;	COMDAT ?GetRemain@IBuff@@QAEKXZ
_TEXT	SEGMENT
?GetRemain@IBuff@@QAEKXZ PROC				; IBuff::GetRemain, COMDAT
; _this$ = ecx

; 62   : {

  00000	56		 push	 esi
  00001	8b f1		 mov	 esi, ecx
  00003	57		 push	 edi

; 63   : 	if( GetInst() == 0 )

  00004	8b 7e 10	 mov	 edi, DWORD PTR [esi+16]
  00007	85 ff		 test	 edi, edi
  00009	74 1b		 je	 SHORT $LN7@GetRemain

; 64   : 		return 0;
; 65   : 	
; 66   : 	DWORD dwElapsedTime = ::timeGetTime() - GetInst();

  0000b	ff 15 00 00 00
	00		 call	 DWORD PTR __imp__timeGetTime@0

; 67   : 	if( dwElapsedTime > GetTotal() )	// ł˛Ŕş ˝Ă°ŁŔş ĂŃ ąöÇÁ ˝Ă°Łş¸´Ů Ĺ¬ Ľö ľř´Ů.

  00011	8b 4e 0c	 mov	 ecx, DWORD PTR [esi+12]
  00014	8b d0		 mov	 edx, eax
  00016	2b d7		 sub	 edx, edi
  00018	8b c1		 mov	 eax, ecx
  0001a	33 f6		 xor	 esi, esi
  0001c	2b c2		 sub	 eax, edx
  0001e	3b d1		 cmp	 edx, ecx
  00020	5f		 pop	 edi
  00021	0f 47 c6	 cmova	 eax, esi

; 69   : 
; 70   : 	return GetTotal() - dwElapsedTime;
; 71   : }

  00024	5e		 pop	 esi
  00025	c3		 ret	 0
$LN7@GetRemain:
  00026	5f		 pop	 edi

; 68   : 		return 0;						// ˝ÇÁ¦·Î ąöÇÁ Á¦°Ĺ´Â ˝Ă°Ł ¸¸·á ČÄ ´ŮŔ˝ ÇÁ·ÎĽĽ˝şżˇĽ­ ÇĎ±â ¶§ą®żˇ ąß»ý °ˇ´ÉÇĎ´Ů.

  00027	33 c0		 xor	 eax, eax

; 69   : 
; 70   : 	return GetTotal() - dwElapsedTime;
; 71   : }

  00029	5e		 pop	 esi
  0002a	c3		 ret	 0
?GetRemain@IBuff@@QAEKXZ ENDP				; IBuff::GetRemain
_TEXT	ENDS
; Function compile flags: /Ogtp
; File C:\IAGOS\server\v18\Source\Source\_Common\buff.cpp
;	COMDAT ??4IBuff@@UAEAAV0@ABV0@@Z
_TEXT	SEGMENT
_buff$ = 8						; size = 4
??4IBuff@@UAEAAV0@ABV0@@Z PROC				; IBuff::operator=, COMDAT
; _this$ = ecx

; 74   : {

  00000	55		 push	 ebp
  00001	8b ec		 mov	 ebp, esp

; 75   : 	m_wType	= buff.m_wType;

  00003	8b 55 08	 mov	 edx, DWORD PTR _buff$[ebp]
  00006	0f b7 42 04	 movzx	 eax, WORD PTR [edx+4]
  0000a	66 89 41 04	 mov	 WORD PTR [ecx+4], ax

; 76   : 	m_wId	= buff.m_wId;

  0000e	0f b7 42 06	 movzx	 eax, WORD PTR [edx+6]
  00012	66 89 41 06	 mov	 WORD PTR [ecx+6], ax

; 77   : 	m_dwLevel	= buff.m_dwLevel;

  00016	8b 42 08	 mov	 eax, DWORD PTR [edx+8]
  00019	89 41 08	 mov	 DWORD PTR [ecx+8], eax

; 78   : 	m_tmTotal	= buff.m_tmTotal;

  0001c	8b 42 0c	 mov	 eax, DWORD PTR [edx+12]
  0001f	89 41 0c	 mov	 DWORD PTR [ecx+12], eax

; 79   : 	m_tmInst	= buff.m_tmInst;

  00022	8b 42 10	 mov	 eax, DWORD PTR [edx+16]
  00025	89 41 10	 mov	 DWORD PTR [ecx+16], eax

; 80   : 	m_oiAttacker	= buff.m_oiAttacker;

  00028	8b 42 14	 mov	 eax, DWORD PTR [edx+20]
  0002b	89 41 14	 mov	 DWORD PTR [ecx+20], eax

; 81   : #ifdef __CLIENT
; 82   : 	m_bSFX	= buff.m_bSFX;
; 83   : #endif	// __CLIENT
; 84   : 	return *this;

  0002e	8b c1		 mov	 eax, ecx

; 85   : }

  00030	5d		 pop	 ebp
  00031	c2 04 00	 ret	 4
??4IBuff@@UAEAAV0@ABV0@@Z ENDP				; IBuff::operator=
_TEXT	ENDS
; Function compile flags: /Ogtp
; File C:\IAGOS\server\v18\Source\Source\_Common\buff.cpp
; File C:\IAGOS\server\v18\Source\Source\_Network\Misc\Include\ar.h
; File C:\IAGOS\server\v18\Source\Source\_Common\buff.cpp
;	COMDAT ?SerializeLevel@IBuff@@UAEXAAVCAr@@@Z
_TEXT	SEGMENT
_ar$ = 8						; size = 4
?SerializeLevel@IBuff@@UAEXAAVCAr@@@Z PROC		; IBuff::SerializeLevel, COMDAT
; _this$ = ecx

; 88   : {

  00000	55		 push	 ebp
  00001	8b ec		 mov	 ebp, esp
; File C:\IAGOS\server\v18\Source\Source\_Network\Misc\Include\ar.h

; 146  : 	return (m_nMode & CAr::load) == 0;

  00003	8d 41 08	 lea	 eax, DWORD PTR [ecx+8]
  00006	8b 4d 08	 mov	 ecx, DWORD PTR _ar$[ebp]
  00009	f6 01 01	 test	 BYTE PTR [ecx], 1
; File C:\IAGOS\server\v18\Source\Source\_Common\buff.cpp

; 89   : 	if( ar.IsStoring() )

  0000c	75 09		 jne	 SHORT $LN2@SerializeL

; 90   : 	{
; 91   : #ifdef __DBSERVER
; 92   : 		if( GetType() == BUFF_ITEM2 )
; 93   : 		{
; 94   : 			time_t t	= static_cast<time_t>( GetLevel() ) - time_null();
; 95   : 			ar << t;
; 96   : 		}
; 97   : 		else
; 98   : 		{
; 99   : 			ar << m_dwLevel;
; 100  : 		}
; 101  : #else	// __DBSERVER
; 102  : 		ar << m_dwLevel;

  0000e	89 45 08	 mov	 DWORD PTR _ar$[ebp], eax

; 120  : #endif	// __DBSERVER
; 121  : 	}
; 122  : }

  00011	5d		 pop	 ebp

; 90   : 	{
; 91   : #ifdef __DBSERVER
; 92   : 		if( GetType() == BUFF_ITEM2 )
; 93   : 		{
; 94   : 			time_t t	= static_cast<time_t>( GetLevel() ) - time_null();
; 95   : 			ar << t;
; 96   : 		}
; 97   : 		else
; 98   : 		{
; 99   : 			ar << m_dwLevel;
; 100  : 		}
; 101  : #else	// __DBSERVER
; 102  : 		ar << m_dwLevel;

  00012	e9 00 00 00 00	 jmp	 ??$?6K@CAr@@QAEAAV0@ABK@Z ; CAr::operator<<<unsigned long>
$LN2@SerializeL:

; 103  : #endif	// __DBSERVER
; 104  : 	}
; 105  : 	else
; 106  : 	{
; 107  : #ifdef __DBSERVER
; 108  : 		if( GetType() == BUFF_ITEM2 )
; 109  : 		{
; 110  : 			time_t t;
; 111  : 			ar >> t;
; 112  : 			SetLevel( time_null() + t );
; 113  : 		}
; 114  : 		else
; 115  : 		{
; 116  : 			ar >> m_dwLevel;
; 117  : 		}
; 118  : #else	// __DBSERVER
; 119  : 		ar >> m_dwLevel;

  00017	89 45 08	 mov	 DWORD PTR _ar$[ebp], eax

; 120  : #endif	// __DBSERVER
; 121  : 	}
; 122  : }

  0001a	5d		 pop	 ebp

; 103  : #endif	// __DBSERVER
; 104  : 	}
; 105  : 	else
; 106  : 	{
; 107  : #ifdef __DBSERVER
; 108  : 		if( GetType() == BUFF_ITEM2 )
; 109  : 		{
; 110  : 			time_t t;
; 111  : 			ar >> t;
; 112  : 			SetLevel( time_null() + t );
; 113  : 		}
; 114  : 		else
; 115  : 		{
; 116  : 			ar >> m_dwLevel;
; 117  : 		}
; 118  : #else	// __DBSERVER
; 119  : 		ar >> m_dwLevel;

  0001b	e9 00 00 00 00	 jmp	 ??$?5K@CAr@@QAEAAV0@AAK@Z ; CAr::operator>><unsigned long>
?SerializeLevel@IBuff@@UAEXAAVCAr@@@Z ENDP		; IBuff::SerializeLevel
_TEXT	ENDS
; Function compile flags: /Ogtp
; File C:\IAGOS\server\v18\Source\Source\_Common\buff.cpp
; File C:\IAGOS\server\v18\Source\Source\_Network\Misc\Include\ar.h
; File C:\IAGOS\server\v18\Source\Source\_Common\buff.cpp
; File C:\IAGOS\server\v18\Source\Source\_Network\Misc\Include\ar.h
; File C:\IAGOS\server\v18\Source\Source\_Common\buff.cpp
;	COMDAT ?Serialize@IBuff@@UAEXAAVCAr@@PAVCMover@@@Z
_TEXT	SEGMENT
_ar$ = 8						; size = 4
_tmTotal$1 = 8						; size = 4
_tmTotal$2 = 8						; size = 4
_pMover$ = 12						; size = 4
?Serialize@IBuff@@UAEXAAVCAr@@PAVCMover@@@Z PROC	; IBuff::Serialize, COMDAT
; _this$ = ecx

; 125  : {

  00000	55		 push	 ebp
  00001	8b ec		 mov	 ebp, esp
  00003	53		 push	 ebx
  00004	56		 push	 esi
  00005	57		 push	 edi
; File C:\IAGOS\server\v18\Source\Source\_Network\Misc\Include\ar.h

; 146  : 	return (m_nMode & CAr::load) == 0;

  00006	8b 7d 08	 mov	 edi, DWORD PTR _ar$[ebp]
; File C:\IAGOS\server\v18\Source\Source\_Common\buff.cpp

; 125  : {

  00009	8b f1		 mov	 esi, ecx

; 126  : 	if( ar.IsStoring() )

  0000b	8b cf		 mov	 ecx, edi
; File C:\IAGOS\server\v18\Source\Source\_Network\Misc\Include\ar.h

; 146  : 	return (m_nMode & CAr::load) == 0;

  0000d	f6 07 01	 test	 BYTE PTR [edi], 1
  00010	8d 5e 06	 lea	 ebx, DWORD PTR [esi+6]
; File C:\IAGOS\server\v18\Source\Source\_Common\buff.cpp

; 126  : 	if( ar.IsStoring() )

  00013	75 54		 jne	 SHORT $LN2@Serialize

; 127  : 	{
; 128  : 		ar << m_wType;

  00015	8d 46 04	 lea	 eax, DWORD PTR [esi+4]
  00018	50		 push	 eax
  00019	e8 00 00 00 00	 call	 ??$?6G@CAr@@QAEAAV0@ABG@Z ; CAr::operator<<<unsigned short>

; 129  : 		ar << m_wId;

  0001e	53		 push	 ebx
  0001f	8b cf		 mov	 ecx, edi
  00021	e8 00 00 00 00	 call	 ??$?6G@CAr@@QAEAAV0@ABG@Z ; CAr::operator<<<unsigned short>

; 130  : 		SerializeLevel( ar );

  00026	8b 06		 mov	 eax, DWORD PTR [esi]
  00028	8b ce		 mov	 ecx, esi
  0002a	57		 push	 edi
  0002b	ff 50 08	 call	 DWORD PTR [eax+8]

; 131  : #ifdef __WORLDSERVER
; 132  : 		DWORD tmTotal	= 0;
; 133  : 		if( GetTotal() > 0 )

  0002e	8b 46 0c	 mov	 eax, DWORD PTR [esi+12]
  00031	c7 45 08 00 00
	00 00		 mov	 DWORD PTR _tmTotal$1[ebp], 0
  00038	85 c0		 test	 eax, eax
  0003a	74 1b		 je	 SHORT $LN7@Serialize

; 134  : 		{
; 135  : 			if( GetInst() > 0 )

  0003c	8b 4e 10	 mov	 ecx, DWORD PTR [esi+16]
  0003f	85 c9		 test	 ecx, ecx
  00041	74 08		 je	 SHORT $LN5@Serialize

; 136  : 				tmTotal	= GetTotal() - ( g_tmCurrent - GetInst() );

  00043	2b 0d 00 00 00
	00		 sub	 ecx, DWORD PTR ?g_tmCurrent@@3KA ; g_tmCurrent
  00049	03 c1		 add	 eax, ecx
$LN5@Serialize:

; 137  : 			else
; 138  : 				tmTotal	= GetTotal();
; 139  : 		}
; 140  : 		if( static_cast<int>( tmTotal ) < 0 )

  0004b	33 d2		 xor	 edx, edx
  0004d	8b c8		 mov	 ecx, eax
  0004f	85 c0		 test	 eax, eax
  00051	0f 48 ca	 cmovs	 ecx, edx
  00054	89 4d 08	 mov	 DWORD PTR _tmTotal$1[ebp], ecx
$LN7@Serialize:

; 141  : 			tmTotal	= 0;
; 142  : 		ar << tmTotal;

  00057	8d 45 08	 lea	 eax, DWORD PTR _tmTotal$1[ebp]
  0005a	8b cf		 mov	 ecx, edi
  0005c	50		 push	 eax
  0005d	e8 00 00 00 00	 call	 ??$?6K@CAr@@QAEAAV0@ABK@Z ; CAr::operator<<<unsigned long>
  00062	5f		 pop	 edi

; 158  : 	}
; 159  : }

  00063	5e		 pop	 esi
  00064	5b		 pop	 ebx
  00065	5d		 pop	 ebp
  00066	c2 08 00	 ret	 8
$LN2@Serialize:

; 143  : #else	// __WORLDSERVER
; 144  : 		ar << m_tmTotal;
; 145  : #endif	// __WORLDSERVER
; 146  : 	}
; 147  : 	else
; 148  : 	{
; 149  : 		ar >> m_wId;

  00069	53		 push	 ebx
  0006a	e8 00 00 00 00	 call	 ??$?5G@CAr@@QAEAAV0@AAG@Z ; CAr::operator>><unsigned short>

; 150  : 		SerializeLevel( ar );

  0006f	8b 06		 mov	 eax, DWORD PTR [esi]
  00071	8b ce		 mov	 ecx, esi
  00073	57		 push	 edi
  00074	ff 50 08	 call	 DWORD PTR [eax+8]

; 151  : 		DWORD tmTotal;
; 152  : 		ar >> tmTotal;

  00077	8d 45 08	 lea	 eax, DWORD PTR _tmTotal$2[ebp]
  0007a	8b cf		 mov	 ecx, edi
  0007c	50		 push	 eax
  0007d	e8 00 00 00 00	 call	 ??$?5K@CAr@@QAEAAV0@AAK@Z ; CAr::operator>><unsigned long>

; 153  : #ifdef __WORLDSERVER
; 154  : 		if( IsCommon() && pMover && tmTotal >= MIN( 60 ) )

  00082	8b 06		 mov	 eax, DWORD PTR [esi]
  00084	8b ce		 mov	 ecx, esi
  00086	ff 50 34	 call	 DWORD PTR [eax+52]
  00089	85 c0		 test	 eax, eax
  0008b	74 22		 je	 SHORT $LN12@Serialize
  0008d	83 7d 0c 00	 cmp	 DWORD PTR _pMover$[ebp], 0
  00091	74 1c		 je	 SHORT $LN12@Serialize
  00093	8b 45 08	 mov	 eax, DWORD PTR _tmTotal$2[ebp]
  00096	b9 80 ee 36 00	 mov	 ecx, 3600000		; 0036ee80H
  0009b	3b c1		 cmp	 eax, ecx
  0009d	0f 43 c1	 cmovae	 eax, ecx

; 155  : 			tmTotal	= MIN( 60 );
; 156  : #endif	// __WORLDSERVER
; 157  : 		SetTotal( tmTotal );

  000a0	8b ce		 mov	 ecx, esi
  000a2	50		 push	 eax
  000a3	e8 00 00 00 00	 call	 ?SetTotal@IBuff@@QAEXK@Z ; IBuff::SetTotal
  000a8	5f		 pop	 edi

; 158  : 	}
; 159  : }

  000a9	5e		 pop	 esi
  000aa	5b		 pop	 ebx
  000ab	5d		 pop	 ebp
  000ac	c2 08 00	 ret	 8
$LN12@Serialize:

; 153  : #ifdef __WORLDSERVER
; 154  : 		if( IsCommon() && pMover && tmTotal >= MIN( 60 ) )

  000af	8b 45 08	 mov	 eax, DWORD PTR _tmTotal$2[ebp]

; 155  : 			tmTotal	= MIN( 60 );
; 156  : #endif	// __WORLDSERVER
; 157  : 		SetTotal( tmTotal );

  000b2	8b ce		 mov	 ecx, esi
  000b4	50		 push	 eax
  000b5	e8 00 00 00 00	 call	 ?SetTotal@IBuff@@QAEXK@Z ; IBuff::SetTotal
  000ba	5f		 pop	 edi

; 158  : 	}
; 159  : }

  000bb	5e		 pop	 esi
  000bc	5b		 pop	 ebx
  000bd	5d		 pop	 ebp
  000be	c2 08 00	 ret	 8
?Serialize@IBuff@@UAEXAAVCAr@@PAVCMover@@@Z ENDP	; IBuff::Serialize
_TEXT	ENDS
; Function compile flags: /Ogtp
; File C:\IAGOS\server\v18\Source\Source\_Common\buff.cpp
;	COMDAT ?SetTotal@IBuff@@QAEXK@Z
_TEXT	SEGMENT
_tmTotal$ = 8						; size = 4
?SetTotal@IBuff@@QAEXK@Z PROC				; IBuff::SetTotal, COMDAT
; _this$ = ecx

; 37   : {

  00000	55		 push	 ebp
  00001	8b ec		 mov	 ebp, esp
  00003	56		 push	 esi
  00004	8b f1		 mov	 esi, ecx

; 38   : //	if( tmTotal > GetRemain() )
; 39   : //		m_tmTotal = tmTotal;
; 40   : 	m_tmTotal	= max( tmTotal, GetRemain() );

  00006	e8 00 00 00 00	 call	 ?GetRemain@IBuff@@QAEKXZ ; IBuff::GetRemain
  0000b	8b 4d 08	 mov	 ecx, DWORD PTR _tmTotal$[ebp]
  0000e	3b c8		 cmp	 ecx, eax
  00010	76 08		 jbe	 SHORT $LN3@SetTotal
  00012	89 4e 0c	 mov	 DWORD PTR [esi+12], ecx
  00015	5e		 pop	 esi

; 41   : }

  00016	5d		 pop	 ebp
  00017	c2 04 00	 ret	 4
$LN3@SetTotal:

; 38   : //	if( tmTotal > GetRemain() )
; 39   : //		m_tmTotal = tmTotal;
; 40   : 	m_tmTotal	= max( tmTotal, GetRemain() );

  0001a	8b ce		 mov	 ecx, esi
  0001c	e8 00 00 00 00	 call	 ?GetRemain@IBuff@@QAEKXZ ; IBuff::GetRemain
  00021	89 46 0c	 mov	 DWORD PTR [esi+12], eax
  00024	5e		 pop	 esi

; 41   : }

  00025	5d		 pop	 ebp
  00026	c2 04 00	 ret	 4
?SetTotal@IBuff@@QAEXK@Z ENDP				; IBuff::SetTotal
_TEXT	ENDS
; Function compile flags: /Ogtp
; File C:\IAGOS\server\v18\Source\Source\_Common\buff.h
;	COMDAT ??1IBuff@@UAE@XZ
_TEXT	SEGMENT
??1IBuff@@UAE@XZ PROC					; IBuff::~IBuff, COMDAT
; _this$ = ecx

; 28   : 	virtual	~IBuff()	{}

  00000	c7 01 00 00 00
	00		 mov	 DWORD PTR [ecx], OFFSET ??_7IBuff@@6B@
  00006	c3		 ret	 0
??1IBuff@@UAE@XZ ENDP					; IBuff::~IBuff
_TEXT	ENDS
; Function compile flags: /Ogtp
; File C:\IAGOS\server\v18\Source\Source\_Common\buff.cpp
;	COMDAT ??0IBuff@@QAE@XZ
_TEXT	SEGMENT
??0IBuff@@QAE@XZ PROC					; IBuff::IBuff, COMDAT
; _this$ = ecx

; 23   : m_wType( 0 )

  00000	33 c0		 xor	 eax, eax
  00002	c7 01 00 00 00
	00		 mov	 DWORD PTR [ecx], OFFSET ??_7IBuff@@6B@
  00008	89 41 04	 mov	 DWORD PTR [ecx+4], eax

; 24   : , m_wId( 0 )
; 25   : , m_dwLevel( 0 )

  0000b	89 41 08	 mov	 DWORD PTR [ecx+8], eax

; 26   : , m_tmTotal( 0 )

  0000e	89 41 0c	 mov	 DWORD PTR [ecx+12], eax

; 27   : , m_tmInst( 0 )

  00011	89 41 10	 mov	 DWORD PTR [ecx+16], eax

; 28   : , m_oiAttacker( NULL_ID )
; 29   : #ifdef __CLIENT
; 30   : , m_bSFX( FALSE )
; 31   : #endif	// __CLIENT
; 32   : , m_bRemove( FALSE )

  00014	89 41 18	 mov	 DWORD PTR [ecx+24], eax

; 34   : }

  00017	8b c1		 mov	 eax, ecx
  00019	c7 41 14 ff ff
	ff ff		 mov	 DWORD PTR [ecx+20], -1
  00020	c3		 ret	 0
??0IBuff@@QAE@XZ ENDP					; IBuff::IBuff
_TEXT	ENDS
; Function compile flags: /Ogtp
; File C:\Program Files\Microsoft Visual Studio\2022\Professional\VC\Tools\MSVC\14.44.35207\include\vector
;	COMDAT ?_Xlength@?$vector@JV?$allocator@J@std@@@std@@CAXXZ
_TEXT	SEGMENT
?_Xlength@?$vector@JV?$allocator@J@std@@@std@@CAXXZ PROC ; std::vector<long,std::allocator<long> >::_Xlength, COMDAT

; 2184 :         _Xlength_error("vector too long");

  00000	68 00 00 00 00	 push	 OFFSET ??_C@_0BA@FOIKENOD@vector?5too?5long@
  00005	e8 00 00 00 00	 call	 ?_Xlength_error@std@@YAXPBD@Z ; std::_Xlength_error
$LN3@Xlength:
  0000a	cc		 int	 3
?_Xlength@?$vector@JV?$allocator@J@std@@@std@@CAXXZ ENDP ; std::vector<long,std::allocator<long> >::_Xlength
_TEXT	ENDS
; Function compile flags: /Ogtp
; File C:\Program Files\Microsoft Visual Studio\2022\Professional\VC\Tools\MSVC\14.44.35207\include\vector
; File C:\Program Files\Microsoft Visual Studio\2022\Professional\VC\Tools\MSVC\14.44.35207\include\xmemory
; File C:\Program Files\Microsoft Visual Studio\2022\Professional\VC\Tools\MSVC\14.44.35207\include\vector
; File C:\Program Files\Microsoft Visual Studio\2022\Professional\VC\Tools\MSVC\14.44.35207\include\xmemory
; File C:\Program Files\Microsoft Visual Studio\2022\Professional\VC\Tools\MSVC\14.44.35207\include\vector
; File C:\Program Files\Microsoft Visual Studio\2022\Professional\VC\Tools\MSVC\14.44.35207\include\xmemory
; File C:\Program Files\Microsoft Visual Studio\2022\Professional\VC\Tools\MSVC\14.44.35207\include\vector
;	COMDAT ??1?$vector@JV?$allocator@J@std@@@std@@QAE@XZ
_TEXT	SEGMENT
??1?$vector@JV?$allocator@J@std@@@std@@QAE@XZ PROC	; std::vector<long,std::allocator<long> >::~vector<long,std::allocator<long> >, COMDAT
; _this$ = ecx

; 829  :     _CONSTEXPR20 ~vector() noexcept {

  00000	56		 push	 esi
  00001	8b f1		 mov	 esi, ecx

; 2090 :         if (_Myfirst) { // destroy and deallocate old array

  00003	8b 06		 mov	 eax, DWORD PTR [esi]
  00005	85 c0		 test	 eax, eax
  00007	74 40		 je	 SHORT $LN5@vector

; 2091 :             _STD _Destroy_range(_Myfirst, _Mylast, _Al);
; 2092 :             _ASAN_VECTOR_REMOVE;
; 2093 :             _Al.deallocate(_Myfirst, static_cast<size_type>(_Myend - _Myfirst));

  00009	8b 4e 08	 mov	 ecx, DWORD PTR [esi+8]
  0000c	2b c8		 sub	 ecx, eax
; File C:\Program Files\Microsoft Visual Studio\2022\Professional\VC\Tools\MSVC\14.44.35207\include\xmemory

; 985  :         _STD _Deallocate<_New_alignof<_Ty>>(_Ptr, sizeof(_Ty) * _Count);

  0000e	83 e1 fc	 and	 ecx, -4			; fffffffcH

; 284  :         if (_Bytes >= _Big_allocation_threshold) {

  00011	81 f9 00 10 00
	00		 cmp	 ecx, 4096		; 00001000H
  00017	72 12		 jb	 SHORT $LN18@vector

; 205  :     const uintptr_t _Ptr_container   = _Ptr_user[-1];

  00019	8b 50 fc	 mov	 edx, DWORD PTR [eax-4]
  0001c	83 c1 23	 add	 ecx, 35			; 00000023H

; 206  : 
; 207  :     // If the following asserts, it likely means that we are performing
; 208  :     // an aligned delete on memory coming from an unaligned allocation.
; 209  :     _STL_ASSERT(_Ptr_user[-2] == _Big_allocation_sentinel, "invalid argument");
; 210  : 
; 211  :     // Extra paranoia on aligned allocation/deallocation; ensure _Ptr_container is
; 212  :     // in range [_Min_back_shift, _Non_user_size]
; 213  : #ifdef _DEBUG
; 214  :     constexpr uintptr_t _Min_back_shift = 2 * sizeof(void*);
; 215  : #else // ^^^ defined(_DEBUG) / !defined(_DEBUG) vvv
; 216  :     constexpr uintptr_t _Min_back_shift = sizeof(void*);
; 217  : #endif // ^^^ !defined(_DEBUG) ^^^
; 218  :     const uintptr_t _Back_shift = reinterpret_cast<uintptr_t>(_Ptr) - _Ptr_container;

  0001f	2b c2		 sub	 eax, edx

; 219  :     _STL_VERIFY(_Back_shift >= _Min_back_shift && _Back_shift <= _Non_user_size, "invalid argument");

  00021	83 c0 fc	 add	 eax, -4			; fffffffcH
  00024	83 f8 1f	 cmp	 eax, 31			; 0000001fH
  00027	77 22		 ja	 SHORT $LN17@vector

; 220  :     _Ptr = reinterpret_cast<void*>(_Ptr_container);

  00029	8b c2		 mov	 eax, edx
$LN18@vector:

; 289  :         ::operator delete(_Ptr, _Bytes);

  0002b	51		 push	 ecx
  0002c	50		 push	 eax
  0002d	e8 00 00 00 00	 call	 ??3@YAXPAXI@Z		; operator delete
; File C:\Program Files\Microsoft Visual Studio\2022\Professional\VC\Tools\MSVC\14.44.35207\include\vector

; 2095 :             _Myfirst = nullptr;

  00032	c7 06 00 00 00
	00		 mov	 DWORD PTR [esi], 0
; File C:\Program Files\Microsoft Visual Studio\2022\Professional\VC\Tools\MSVC\14.44.35207\include\xmemory

; 289  :         ::operator delete(_Ptr, _Bytes);

  00038	83 c4 08	 add	 esp, 8
; File C:\Program Files\Microsoft Visual Studio\2022\Professional\VC\Tools\MSVC\14.44.35207\include\vector

; 2096 :             _Mylast  = nullptr;

  0003b	c7 46 04 00 00
	00 00		 mov	 DWORD PTR [esi+4], 0

; 2097 :             _Myend   = nullptr;

  00042	c7 46 08 00 00
	00 00		 mov	 DWORD PTR [esi+8], 0
$LN5@vector:
  00049	5e		 pop	 esi

; 835  :     }

  0004a	c3		 ret	 0
$LN17@vector:
; File C:\Program Files\Microsoft Visual Studio\2022\Professional\VC\Tools\MSVC\14.44.35207\include\xmemory

; 219  :     _STL_VERIFY(_Back_shift >= _Min_back_shift && _Back_shift <= _Non_user_size, "invalid argument");

  0004b	6a 00		 push	 0
  0004d	6a 00		 push	 0
  0004f	6a 00		 push	 0
  00051	6a 00		 push	 0
  00053	6a 00		 push	 0
  00055	e8 00 00 00 00	 call	 __invoke_watson
$LN26@vector:
  0005a	cc		 int	 3
??1?$vector@JV?$allocator@J@std@@@std@@QAE@XZ ENDP	; std::vector<long,std::allocator<long> >::~vector<long,std::allocator<long> >
_TEXT	ENDS
; Function compile flags: /Ogtp
; File C:\Program Files\Microsoft Visual Studio\2022\Professional\VC\Tools\MSVC\14.44.35207\include\xtree
;	COMDAT ?_Throw_tree_length_error@std@@YAXXZ
_TEXT	SEGMENT
?_Throw_tree_length_error@std@@YAXXZ PROC		; std::_Throw_tree_length_error, COMDAT

; 417  :     _Xlength_error("map/set too long");

  00000	68 00 00 00 00	 push	 OFFSET ??_C@_0BB@GCADKGJO@map?1set?5too?5long@
  00005	e8 00 00 00 00	 call	 ?_Xlength_error@std@@YAXPBD@Z ; std::_Xlength_error
$LN3@Throw_tree:
  0000a	cc		 int	 3
?_Throw_tree_length_error@std@@YAXXZ ENDP		; std::_Throw_tree_length_error
_TEXT	ENDS
; Function compile flags: /Ogtp
; File C:\Program Files\Microsoft Visual Studio\2022\Professional\VC\Tools\MSVC\14.44.35207\include\xmemory
;	COMDAT ?_Throw_bad_array_new_length@std@@YAXXZ
_TEXT	SEGMENT
$T1 = -12						; size = 12
?_Throw_bad_array_new_length@std@@YAXXZ PROC		; std::_Throw_bad_array_new_length, COMDAT

; 107  : [[noreturn]] inline void _Throw_bad_array_new_length() {

  00000	55		 push	 ebp
  00001	8b ec		 mov	 ebp, esp
  00003	83 ec 0c	 sub	 esp, 12			; 0000000cH

; 108  :     _THROW(bad_array_new_length{});

  00006	8d 4d f4	 lea	 ecx, DWORD PTR $T1[ebp]
  00009	e8 00 00 00 00	 call	 ??0bad_array_new_length@std@@QAE@XZ ; std::bad_array_new_length::bad_array_new_length
  0000e	68 00 00 00 00	 push	 OFFSET __TI3?AVbad_array_new_length@std@@
  00013	8d 45 f4	 lea	 eax, DWORD PTR $T1[ebp]
  00016	50		 push	 eax
  00017	e8 00 00 00 00	 call	 __CxxThrowException@8
$LN3@Throw_bad_:
  0001c	cc		 int	 3
?_Throw_bad_array_new_length@std@@YAXXZ ENDP		; std::_Throw_bad_array_new_length
_TEXT	ENDS
; Function compile flags: /Ogtp
; File C:\Program Files\Microsoft Visual Studio\2022\Professional\VC\Tools\MSVC\14.44.35207\include\vcruntime_exception.h
;	COMDAT ??_Gbad_array_new_length@std@@UAEPAXI@Z
_TEXT	SEGMENT
___flags$ = 8						; size = 4
??_Gbad_array_new_length@std@@UAEPAXI@Z PROC		; std::bad_array_new_length::`scalar deleting destructor', COMDAT
; _this$ = ecx
  00000	55		 push	 ebp
  00001	8b ec		 mov	 ebp, esp

; 90   :     {

  00003	56		 push	 esi
  00004	8b f1		 mov	 esi, ecx

; 91   :         __std_exception_destroy(&_Data);

  00006	8d 46 04	 lea	 eax, DWORD PTR [esi+4]
  00009	c7 06 00 00 00
	00		 mov	 DWORD PTR [esi], OFFSET ??_7exception@std@@6B@
  0000f	50		 push	 eax
  00010	e8 00 00 00 00	 call	 ___std_exception_destroy
  00015	83 c4 04	 add	 esp, 4
  00018	f6 45 08 01	 test	 BYTE PTR ___flags$[ebp], 1
  0001c	74 0b		 je	 SHORT $LN18@scalar
  0001e	6a 0c		 push	 12			; 0000000cH
  00020	56		 push	 esi
  00021	e8 00 00 00 00	 call	 ??3@YAXPAXI@Z		; operator delete
  00026	83 c4 08	 add	 esp, 8
$LN18@scalar:
  00029	8b c6		 mov	 eax, esi
  0002b	5e		 pop	 esi
  0002c	5d		 pop	 ebp
  0002d	c2 04 00	 ret	 4
??_Gbad_array_new_length@std@@UAEPAXI@Z ENDP		; std::bad_array_new_length::`scalar deleting destructor'
_TEXT	ENDS
; Function compile flags: /Ogtp
; File C:\Program Files\Microsoft Visual Studio\2022\Professional\VC\Tools\MSVC\14.44.35207\include\vcruntime_exception.h
;	COMDAT ??0bad_array_new_length@std@@QAE@ABV01@@Z
_TEXT	SEGMENT
___that$ = 8						; size = 4
??0bad_array_new_length@std@@QAE@ABV01@@Z PROC		; std::bad_array_new_length::bad_array_new_length, COMDAT
; _this$ = ecx
  00000	55		 push	 ebp
  00001	8b ec		 mov	 ebp, esp

; 73   :     {

  00003	56		 push	 esi
  00004	8b f1		 mov	 esi, ecx
  00006	0f 57 c0	 xorps	 xmm0, xmm0

; 72   :         : _Data()

  00009	8d 46 04	 lea	 eax, DWORD PTR [esi+4]

; 74   :         __std_exception_copy(&_Other._Data, &_Data);

  0000c	50		 push	 eax
  0000d	c7 06 00 00 00
	00		 mov	 DWORD PTR [esi], OFFSET ??_7exception@std@@6B@
  00013	66 0f d6 00	 movq	 QWORD PTR [eax], xmm0
  00017	8b 45 08	 mov	 eax, DWORD PTR ___that$[ebp]
  0001a	83 c0 04	 add	 eax, 4
  0001d	50		 push	 eax
  0001e	e8 00 00 00 00	 call	 ___std_exception_copy
  00023	83 c4 08	 add	 esp, 8
  00026	c7 06 00 00 00
	00		 mov	 DWORD PTR [esi], OFFSET ??_7bad_array_new_length@std@@6B@
  0002c	8b c6		 mov	 eax, esi
  0002e	5e		 pop	 esi
  0002f	5d		 pop	 ebp
  00030	c2 04 00	 ret	 4
??0bad_array_new_length@std@@QAE@ABV01@@Z ENDP		; std::bad_array_new_length::bad_array_new_length
_TEXT	ENDS
; Function compile flags: /Ogtp
; File C:\Program Files\Microsoft Visual Studio\2022\Professional\VC\Tools\MSVC\14.44.35207\include\vcruntime_exception.h
;	COMDAT ??1bad_array_new_length@std@@UAE@XZ
_TEXT	SEGMENT
??1bad_array_new_length@std@@UAE@XZ PROC		; std::bad_array_new_length::~bad_array_new_length, COMDAT
; _this$ = ecx

; 91   :         __std_exception_destroy(&_Data);

  00000	8d 41 04	 lea	 eax, DWORD PTR [ecx+4]
  00003	c7 01 00 00 00
	00		 mov	 DWORD PTR [ecx], OFFSET ??_7exception@std@@6B@
  00009	50		 push	 eax
  0000a	e8 00 00 00 00	 call	 ___std_exception_destroy
  0000f	59		 pop	 ecx
  00010	c3		 ret	 0
??1bad_array_new_length@std@@UAE@XZ ENDP		; std::bad_array_new_length::~bad_array_new_length
_TEXT	ENDS
; Function compile flags: /Ogtp
; File C:\Program Files\Microsoft Visual Studio\2022\Professional\VC\Tools\MSVC\14.44.35207\include\vcruntime_exception.h
;	COMDAT ??0bad_array_new_length@std@@QAE@XZ
_TEXT	SEGMENT
??0bad_array_new_length@std@@QAE@XZ PROC		; std::bad_array_new_length::bad_array_new_length, COMDAT
; _this$ = ecx

; 144  :     {

  00000	0f 57 c0	 xorps	 xmm0, xmm0

; 145  :     }

  00003	8b c1		 mov	 eax, ecx

; 66   :         : _Data()

  00005	66 0f d6 41 04	 movq	 QWORD PTR [ecx+4], xmm0

; 67   :     {
; 68   :         _Data._What = _Message;

  0000a	c7 41 04 00 00
	00 00		 mov	 DWORD PTR [ecx+4], OFFSET ??_C@_0BF@KINCDENJ@bad?5array?5new?5length@

; 144  :     {

  00011	c7 01 00 00 00
	00		 mov	 DWORD PTR [ecx], OFFSET ??_7bad_array_new_length@std@@6B@

; 145  :     }

  00017	c3		 ret	 0
??0bad_array_new_length@std@@QAE@XZ ENDP		; std::bad_array_new_length::bad_array_new_length
_TEXT	ENDS
; Function compile flags: /Ogtp
; File C:\Program Files\Microsoft Visual Studio\2022\Professional\VC\Tools\MSVC\14.44.35207\include\vcruntime_exception.h
;	COMDAT ??_Gbad_alloc@std@@UAEPAXI@Z
_TEXT	SEGMENT
___flags$ = 8						; size = 4
??_Gbad_alloc@std@@UAEPAXI@Z PROC			; std::bad_alloc::`scalar deleting destructor', COMDAT
; _this$ = ecx
  00000	55		 push	 ebp
  00001	8b ec		 mov	 ebp, esp

; 90   :     {

  00003	56		 push	 esi
  00004	8b f1		 mov	 esi, ecx

; 91   :         __std_exception_destroy(&_Data);

  00006	8d 46 04	 lea	 eax, DWORD PTR [esi+4]
  00009	c7 06 00 00 00
	00		 mov	 DWORD PTR [esi], OFFSET ??_7exception@std@@6B@
  0000f	50		 push	 eax
  00010	e8 00 00 00 00	 call	 ___std_exception_destroy
  00015	83 c4 04	 add	 esp, 4
  00018	f6 45 08 01	 test	 BYTE PTR ___flags$[ebp], 1
  0001c	74 0b		 je	 SHORT $LN13@scalar
  0001e	6a 0c		 push	 12			; 0000000cH
  00020	56		 push	 esi
  00021	e8 00 00 00 00	 call	 ??3@YAXPAXI@Z		; operator delete
  00026	83 c4 08	 add	 esp, 8
$LN13@scalar:
  00029	8b c6		 mov	 eax, esi
  0002b	5e		 pop	 esi
  0002c	5d		 pop	 ebp
  0002d	c2 04 00	 ret	 4
??_Gbad_alloc@std@@UAEPAXI@Z ENDP			; std::bad_alloc::`scalar deleting destructor'
_TEXT	ENDS
; Function compile flags: /Ogtp
; File C:\Program Files\Microsoft Visual Studio\2022\Professional\VC\Tools\MSVC\14.44.35207\include\vcruntime_exception.h
;	COMDAT ??0bad_alloc@std@@QAE@ABV01@@Z
_TEXT	SEGMENT
___that$ = 8						; size = 4
??0bad_alloc@std@@QAE@ABV01@@Z PROC			; std::bad_alloc::bad_alloc, COMDAT
; _this$ = ecx
  00000	55		 push	 ebp
  00001	8b ec		 mov	 ebp, esp

; 73   :     {

  00003	56		 push	 esi
  00004	8b f1		 mov	 esi, ecx
  00006	0f 57 c0	 xorps	 xmm0, xmm0

; 72   :         : _Data()

  00009	8d 46 04	 lea	 eax, DWORD PTR [esi+4]

; 74   :         __std_exception_copy(&_Other._Data, &_Data);

  0000c	50		 push	 eax
  0000d	c7 06 00 00 00
	00		 mov	 DWORD PTR [esi], OFFSET ??_7exception@std@@6B@
  00013	66 0f d6 00	 movq	 QWORD PTR [eax], xmm0
  00017	8b 45 08	 mov	 eax, DWORD PTR ___that$[ebp]
  0001a	83 c0 04	 add	 eax, 4
  0001d	50		 push	 eax
  0001e	e8 00 00 00 00	 call	 ___std_exception_copy
  00023	83 c4 08	 add	 esp, 8
  00026	c7 06 00 00 00
	00		 mov	 DWORD PTR [esi], OFFSET ??_7bad_alloc@std@@6B@
  0002c	8b c6		 mov	 eax, esi
  0002e	5e		 pop	 esi
  0002f	5d		 pop	 ebp
  00030	c2 04 00	 ret	 4
??0bad_alloc@std@@QAE@ABV01@@Z ENDP			; std::bad_alloc::bad_alloc
_TEXT	ENDS
; Function compile flags: /Ogtp
; File C:\Program Files\Microsoft Visual Studio\2022\Professional\VC\Tools\MSVC\14.44.35207\include\vcruntime_exception.h
;	COMDAT ??_Gexception@std@@UAEPAXI@Z
_TEXT	SEGMENT
___flags$ = 8						; size = 4
??_Gexception@std@@UAEPAXI@Z PROC			; std::exception::`scalar deleting destructor', COMDAT
; _this$ = ecx
  00000	55		 push	 ebp
  00001	8b ec		 mov	 ebp, esp

; 90   :     {

  00003	56		 push	 esi
  00004	8b f1		 mov	 esi, ecx

; 91   :         __std_exception_destroy(&_Data);

  00006	8d 46 04	 lea	 eax, DWORD PTR [esi+4]
  00009	c7 06 00 00 00
	00		 mov	 DWORD PTR [esi], OFFSET ??_7exception@std@@6B@
  0000f	50		 push	 eax
  00010	e8 00 00 00 00	 call	 ___std_exception_destroy
  00015	83 c4 04	 add	 esp, 4
  00018	f6 45 08 01	 test	 BYTE PTR ___flags$[ebp], 1
  0001c	74 0b		 je	 SHORT $LN8@scalar
  0001e	6a 0c		 push	 12			; 0000000cH
  00020	56		 push	 esi
  00021	e8 00 00 00 00	 call	 ??3@YAXPAXI@Z		; operator delete
  00026	83 c4 08	 add	 esp, 8
$LN8@scalar:
  00029	8b c6		 mov	 eax, esi
  0002b	5e		 pop	 esi
  0002c	5d		 pop	 ebp
  0002d	c2 04 00	 ret	 4
??_Gexception@std@@UAEPAXI@Z ENDP			; std::exception::`scalar deleting destructor'
_TEXT	ENDS
; Function compile flags: /Ogtp
; File C:\Program Files\Microsoft Visual Studio\2022\Professional\VC\Tools\MSVC\14.44.35207\include\vcruntime_exception.h
;	COMDAT ?what@exception@std@@UBEPBDXZ
_TEXT	SEGMENT
?what@exception@std@@UBEPBDXZ PROC			; std::exception::what, COMDAT
; _this$ = ecx

; 96   :         return _Data._What ? _Data._What : "Unknown exception";

  00000	8b 49 04	 mov	 ecx, DWORD PTR [ecx+4]
  00003	b8 00 00 00 00	 mov	 eax, OFFSET ??_C@_0BC@EOODALEL@Unknown?5exception@
  00008	85 c9		 test	 ecx, ecx
  0000a	0f 45 c1	 cmovne	 eax, ecx

; 97   :     }

  0000d	c3		 ret	 0
?what@exception@std@@UBEPBDXZ ENDP			; std::exception::what
_TEXT	ENDS
; Function compile flags: /Ogtp
; File C:\Program Files\Microsoft Visual Studio\2022\Professional\VC\Tools\MSVC\14.44.35207\include\vcruntime_exception.h
;	COMDAT ??1exception@std@@UAE@XZ
_TEXT	SEGMENT
??1exception@std@@UAE@XZ PROC				; std::exception::~exception, COMDAT
; _this$ = ecx

; 91   :         __std_exception_destroy(&_Data);

  00000	8d 41 04	 lea	 eax, DWORD PTR [ecx+4]
  00003	c7 01 00 00 00
	00		 mov	 DWORD PTR [ecx], OFFSET ??_7exception@std@@6B@
  00009	50		 push	 eax
  0000a	e8 00 00 00 00	 call	 ___std_exception_destroy
  0000f	59		 pop	 ecx

; 92   :     }

  00010	c3		 ret	 0
??1exception@std@@UAE@XZ ENDP				; std::exception::~exception
_TEXT	ENDS
; Function compile flags: /Ogtp
; File C:\Program Files\Microsoft Visual Studio\2022\Professional\VC\Tools\MSVC\14.44.35207\include\vcruntime_exception.h
;	COMDAT ??0exception@std@@QAE@ABV01@@Z
_TEXT	SEGMENT
__Other$ = 8						; size = 4
??0exception@std@@QAE@ABV01@@Z PROC			; std::exception::exception, COMDAT
; _this$ = ecx

; 73   :     {

  00000	55		 push	 ebp
  00001	8b ec		 mov	 ebp, esp
  00003	56		 push	 esi
  00004	8b f1		 mov	 esi, ecx
  00006	0f 57 c0	 xorps	 xmm0, xmm0
  00009	8d 46 04	 lea	 eax, DWORD PTR [esi+4]

; 74   :         __std_exception_copy(&_Other._Data, &_Data);

  0000c	50		 push	 eax
  0000d	c7 06 00 00 00
	00		 mov	 DWORD PTR [esi], OFFSET ??_7exception@std@@6B@
  00013	66 0f d6 00	 movq	 QWORD PTR [eax], xmm0
  00017	8b 45 08	 mov	 eax, DWORD PTR __Other$[ebp]
  0001a	83 c0 04	 add	 eax, 4
  0001d	50		 push	 eax
  0001e	e8 00 00 00 00	 call	 ___std_exception_copy
  00023	83 c4 08	 add	 esp, 8

; 75   :     }

  00026	8b c6		 mov	 eax, esi
  00028	5e		 pop	 esi
  00029	5d		 pop	 ebp
  0002a	c2 04 00	 ret	 4
??0exception@std@@QAE@ABV01@@Z ENDP			; std::exception::exception
_TEXT	ENDS
; Function compile flags: /Ogtp
; File C:\Program Files\Microsoft Visual Studio\2022\Professional\VC\Tools\MSVC\14.44.35207\atlmfc\include\cstringt.h
; File C:\Program Files\Microsoft Visual Studio\2022\Professional\VC\Tools\MSVC\14.44.35207\atlmfc\include\afxstr.h
; File C:\Program Files\Microsoft Visual Studio\2022\Professional\VC\Tools\MSVC\14.44.35207\atlmfc\include\cstringt.h
; File C:\Program Files\Microsoft Visual Studio\2022\Professional\VC\Tools\MSVC\14.44.35207\atlmfc\include\afxstr.h
; File C:\Program Files\Microsoft Visual Studio\2022\Professional\VC\Tools\MSVC\14.44.35207\atlmfc\include\cstringt.h
; File C:\Program Files\Microsoft Visual Studio\2022\Professional\VC\Tools\MSVC\14.44.35207\atlmfc\include\atlcore.h
; File C:\Program Files\Microsoft Visual Studio\2022\Professional\VC\Tools\MSVC\14.44.35207\atlmfc\include\cstringt.h
; File C:\Program Files\Microsoft Visual Studio\2022\Professional\VC\Tools\MSVC\14.44.35207\atlmfc\include\atlsimpstr.h
; File C:\Program Files\Microsoft Visual Studio\2022\Professional\VC\Tools\MSVC\14.44.35207\atlmfc\include\cstringt.h
; File C:\Program Files\Microsoft Visual Studio\2022\Professional\VC\Tools\MSVC\14.44.35207\atlmfc\include\atlsimpstr.h
; File C:\Program Files\Microsoft Visual Studio\2022\Professional\VC\Tools\MSVC\14.44.35207\atlmfc\include\cstringt.h
; File C:\Program Files\Microsoft Visual Studio\2022\Professional\VC\Tools\MSVC\14.44.35207\atlmfc\include\atlsimpstr.h
; File C:\Program Files\Microsoft Visual Studio\2022\Professional\VC\Tools\MSVC\14.44.35207\atlmfc\include\cstringt.h
; File C:\Program Files\Microsoft Visual Studio\2022\Professional\VC\Tools\MSVC\14.44.35207\atlmfc\include\atlsimpstr.h
; File C:\Program Files\Microsoft Visual Studio\2022\Professional\VC\Tools\MSVC\14.44.35207\atlmfc\include\cstringt.h
;	COMDAT ?LoadStringA@?$CStringT@DV?$StrTraitMFC@DV?$ChTraitsCRT@D@ATL@@@@@ATL@@QAEHI@Z
_TEXT	SEGMENT
_this$1$ = -4						; size = 4
_nID$ = 8						; size = 4
_hResource$1$ = 8					; size = 4
?LoadStringA@?$CStringT@DV?$StrTraitMFC@DV?$ChTraitsCRT@D@ATL@@@@@ATL@@QAEHI@Z PROC ; ATL::CStringT<char,StrTraitMFC<char,ATL::ChTraitsCRT<char> > >::LoadStringA, COMDAT
; _this$ = ecx

; 2340 : 	{

  00000	55		 push	 ebp
  00001	8b ec		 mov	 ebp, esp
  00003	51		 push	 ecx
  00004	53		 push	 ebx
  00005	57		 push	 edi
; File C:\Program Files\Microsoft Visual Studio\2022\Professional\VC\Tools\MSVC\14.44.35207\atlmfc\include\afxstr.h

; 51   : 		return( AfxFindStringResourceHandle( nID ) );

  00006	8b 7d 08	 mov	 edi, DWORD PTR _nID$[ebp]
  00009	57		 push	 edi
; File C:\Program Files\Microsoft Visual Studio\2022\Professional\VC\Tools\MSVC\14.44.35207\atlmfc\include\cstringt.h

; 2340 : 	{

  0000a	89 4d fc	 mov	 DWORD PTR _this$1$[ebp], ecx
; File C:\Program Files\Microsoft Visual Studio\2022\Professional\VC\Tools\MSVC\14.44.35207\atlmfc\include\afxstr.h

; 51   : 		return( AfxFindStringResourceHandle( nID ) );

  0000d	e8 00 00 00 00	 call	 ?AfxFindStringResourceHandle@@YGPAUHINSTANCE__@@I@Z ; AfxFindStringResourceHandle
; File C:\Program Files\Microsoft Visual Studio\2022\Professional\VC\Tools\MSVC\14.44.35207\atlmfc\include\cstringt.h

; 2341 : 		HINSTANCE hInstance = StringTraits::FindStringResourceInstance( nID );

  00012	8b d8		 mov	 ebx, eax

; 2342 : 		if( hInstance == NULL )

  00014	85 db		 test	 ebx, ebx
  00016	75 08		 jne	 SHORT $LN2@LoadString

; 2348 : 	}

  00018	5f		 pop	 edi
  00019	5b		 pop	 ebx
  0001a	8b e5		 mov	 esp, ebp
  0001c	5d		 pop	 ebp
  0001d	c2 04 00	 ret	 4
$LN2@LoadString:
; File C:\Program Files\Microsoft Visual Studio\2022\Professional\VC\Tools\MSVC\14.44.35207\atlmfc\include\atlcore.h

; 380  : 	hResource = ::FindResourceW(hInstance, MAKEINTRESOURCEW( (((id>>4)+1) & static_cast<WORD>(~0)) ), (LPWSTR) RT_STRING);

  00020	8b c7		 mov	 eax, edi
  00022	c1 e8 04	 shr	 eax, 4
  00025	56		 push	 esi
  00026	40		 inc	 eax
  00027	6a 06		 push	 6
  00029	0f b7 c0	 movzx	 eax, ax
  0002c	50		 push	 eax
  0002d	53		 push	 ebx
  0002e	ff 15 00 00 00
	00		 call	 DWORD PTR __imp__FindResourceW@12
  00034	89 45 08	 mov	 DWORD PTR _hResource$1$[ebp], eax

; 381  : 	if( hResource == NULL )

  00037	85 c0		 test	 eax, eax
  00039	0f 84 cc 00 00
	00		 je	 $LN51@LoadString

; 338  : 	hGlobal = ::LoadResource( hInstance, hResource );

  0003f	50		 push	 eax
  00040	53		 push	 ebx
  00041	ff 15 00 00 00
	00		 call	 DWORD PTR __imp__LoadResource@8

; 339  : 	if( hGlobal == NULL )

  00047	85 c0		 test	 eax, eax
  00049	75 04		 jne	 SHORT $LN15@LoadString

; 340  : 	{
; 341  : 		return( NULL );

  0004b	33 f6		 xor	 esi, esi
  0004d	eb 43		 jmp	 SHORT $LN18@LoadString
$LN15@LoadString:

; 342  : 	}
; 343  : 
; 344  : 	pImage = (const ATLSTRINGRESOURCEIMAGE*)::LockResource( hGlobal );

  0004f	50		 push	 eax
  00050	ff 15 00 00 00
	00		 call	 DWORD PTR __imp__LockResource@4
  00056	8b f0		 mov	 esi, eax

; 345  : 	if( pImage == NULL )

  00058	85 f6		 test	 esi, esi
  0005a	74 36		 je	 SHORT $LN18@LoadString
$LN16@LoadString:

; 346  : 	{
; 347  : 		return( NULL );
; 348  : 	}
; 349  : 
; 350  : 	nResourceSize = ::SizeofResource( hInstance, hResource );

  0005c	ff 75 08	 push	 DWORD PTR _hResource$1$[ebp]
  0005f	53		 push	 ebx
  00060	ff 15 00 00 00
	00		 call	 DWORD PTR __imp__SizeofResource@8

; 351  : 	pImageEnd = (const ATLSTRINGRESOURCEIMAGE*)(LPBYTE( pImage )+nResourceSize);

  00066	8d 0c 06	 lea	 ecx, DWORD PTR [esi+eax]

; 352  : 	iIndex = id&0x000f;

  00069	83 e7 0f	 and	 edi, 15			; 0000000fH

; 353  : 
; 354  : 	while( (iIndex > 0) && (pImage < pImageEnd) )

  0006c	76 14		 jbe	 SHORT $LN14@LoadString
  0006e	66 90		 npad	 2
$LL13@LoadString:
  00070	3b f1		 cmp	 esi, ecx
  00072	73 12		 jae	 SHORT $LN50@LoadString

; 355  : 	{
; 356  : 		pImage = (const ATLSTRINGRESOURCEIMAGE*)(LPBYTE( pImage )+(sizeof( ATLSTRINGRESOURCEIMAGE )+(pImage->nLength*sizeof( WCHAR ))));

  00074	0f b7 06	 movzx	 eax, WORD PTR [esi]
  00077	8d 34 46	 lea	 esi, DWORD PTR [esi+eax*2]
  0007a	83 c6 02	 add	 esi, 2

; 357  : 		iIndex--;

  0007d	83 ef 01	 sub	 edi, 1
  00080	75 ee		 jne	 SHORT $LL13@LoadString
$LN14@LoadString:

; 358  : 	}
; 359  : 	if( pImage >= pImageEnd )

  00082	3b f1		 cmp	 esi, ecx
  00084	72 04		 jb	 SHORT $LN17@LoadString
$LN50@LoadString:

; 360  : 	{
; 361  : 		return( NULL );

  00086	33 f6		 xor	 esi, esi
  00088	eb 08		 jmp	 SHORT $LN18@LoadString
$LN17@LoadString:

; 362  : 	}
; 363  : 	if( pImage->nLength == 0 )

  0008a	33 c0		 xor	 eax, eax
  0008c	66 39 06	 cmp	 WORD PTR [esi], ax
  0008f	0f 44 f0	 cmove	 esi, eax
$LN18@LoadString:
; File C:\Program Files\Microsoft Visual Studio\2022\Professional\VC\Tools\MSVC\14.44.35207\atlmfc\include\cstringt.h

; 2356 : 		if( pImage == NULL )

  00092	85 f6		 test	 esi, esi
  00094	74 75		 je	 SHORT $LN51@LoadString

; 2359 : 		}
; 2360 : 
; 2361 : 		int nLength = StringTraits::GetBaseTypeLength( pImage->achString, pImage->nLength );

  00096	0f b7 06	 movzx	 eax, WORD PTR [esi]
  00099	8d 4e 02	 lea	 ecx, DWORD PTR [esi+2]

; 350  : 		return ::WideCharToMultiByte( _AtlGetConversionACP(), 0, pszSource, nLength, NULL, 0, NULL, NULL );

  0009c	6a 00		 push	 0
  0009e	6a 00		 push	 0
  000a0	6a 00		 push	 0
  000a2	6a 00		 push	 0
  000a4	50		 push	 eax
  000a5	51		 push	 ecx
  000a6	6a 00		 push	 0
  000a8	6a 03		 push	 3
  000aa	ff 15 00 00 00
	00		 call	 DWORD PTR __imp__WideCharToMultiByte@32

; 2361 : 		int nLength = StringTraits::GetBaseTypeLength( pImage->achString, pImage->nLength );

  000b0	8b f8		 mov	 edi, eax
; File C:\Program Files\Microsoft Visual Studio\2022\Professional\VC\Tools\MSVC\14.44.35207\atlmfc\include\atlsimpstr.h

; 808  : 		if (nLength < 0)

  000b2	85 ff		 test	 edi, edi
  000b4	78 60		 js	 SHORT $LN38@LoadString

; 804  : 		return( reinterpret_cast< CStringData* >( m_pszData )-1 );

  000b6	8b 5d fc	 mov	 ebx, DWORD PTR _this$1$[ebp]

; 812  : 		int nShared = 1-pOldData->nRefs;  // nShared < 0 means true, >= 0 means false

  000b9	ba 01 00 00 00	 mov	 edx, 1

; 804  : 		return( reinterpret_cast< CStringData* >( m_pszData )-1 );

  000be	8b 0b		 mov	 ecx, DWORD PTR [ebx]

; 812  : 		int nShared = 1-pOldData->nRefs;  // nShared < 0 means true, >= 0 means false

  000c0	2b 51 fc	 sub	 edx, DWORD PTR [ecx-4]

; 813  : 		int nTooShort = pOldData->nAllocLength-nLength;  // nTooShort < 0 means true, >= 0 means false

  000c3	8b 49 f8	 mov	 ecx, DWORD PTR [ecx-8]
  000c6	2b cf		 sub	 ecx, edi

; 814  : 		if( (nShared|nTooShort) < 0 )  // If either sign bit is set (i.e. either is less than zero), we need to copy data

  000c8	0b d1		 or	 edx, ecx
  000ca	7d 08		 jge	 SHORT $LN26@LoadString

; 815  : 		{
; 816  : 			PrepareWrite2( nLength );

  000cc	57		 push	 edi
  000cd	8b cb		 mov	 ecx, ebx
  000cf	e8 00 00 00 00	 call	 ?PrepareWrite2@?$CSimpleStringT@D$0A@@ATL@@AAEXH@Z ; ATL::CSimpleStringT<char,0>::PrepareWrite2
$LN26@LoadString:
; File C:\Program Files\Microsoft Visual Studio\2022\Professional\VC\Tools\MSVC\14.44.35207\atlmfc\include\cstringt.h

; 2363 : 		StringTraits::ConvertToBaseType( pszBuffer, nLength, pImage->achString, pImage->nLength );

  000d4	0f b7 06	 movzx	 eax, WORD PTR [esi]

; 372  : 		::WideCharToMultiByte( _AtlGetConversionACP(), 0, pszSrc, nSrcLength, pszDest, nDestLength, NULL, NULL );

  000d7	6a 00		 push	 0
  000d9	6a 00		 push	 0
  000db	57		 push	 edi
  000dc	ff 33		 push	 DWORD PTR [ebx]
  000de	50		 push	 eax
  000df	8d 46 02	 lea	 eax, DWORD PTR [esi+2]
  000e2	50		 push	 eax
  000e3	6a 00		 push	 0
  000e5	6a 03		 push	 3
  000e7	ff 15 00 00 00
	00		 call	 DWORD PTR __imp__WideCharToMultiByte@32
; File C:\Program Files\Microsoft Visual Studio\2022\Professional\VC\Tools\MSVC\14.44.35207\atlmfc\include\atlsimpstr.h

; 875  : 		if( nLength < 0 || nLength > GetData()->nAllocLength)

  000ed	8b 03		 mov	 eax, DWORD PTR [ebx]
  000ef	3b 78 f8	 cmp	 edi, DWORD PTR [eax-8]
  000f2	7f 22		 jg	 SHORT $LN38@LoadString

; 877  : 
; 878  : 		GetData()->nDataLength = nLength;

  000f4	89 78 f4	 mov	 DWORD PTR [eax-12], edi

; 879  : 		m_pszData[nLength] = 0;

  000f7	8b 03		 mov	 eax, DWORD PTR [ebx]
; File C:\Program Files\Microsoft Visual Studio\2022\Professional\VC\Tools\MSVC\14.44.35207\atlmfc\include\cstringt.h

; 2347 : 		return( LoadString( hInstance, nID ) );

  000f9	5e		 pop	 esi
; File C:\Program Files\Microsoft Visual Studio\2022\Professional\VC\Tools\MSVC\14.44.35207\atlmfc\include\atlsimpstr.h

; 879  : 		m_pszData[nLength] = 0;

  000fa	c6 04 07 00	 mov	 BYTE PTR [edi+eax], 0
; File C:\Program Files\Microsoft Visual Studio\2022\Professional\VC\Tools\MSVC\14.44.35207\atlmfc\include\cstringt.h

; 2366 : 		return( TRUE );

  000fe	b8 01 00 00 00	 mov	 eax, 1
  00103	5f		 pop	 edi

; 2348 : 	}

  00104	5b		 pop	 ebx
  00105	8b e5		 mov	 esp, ebp
  00107	5d		 pop	 ebp
  00108	c2 04 00	 ret	 4
$LN51@LoadString:

; 2347 : 		return( LoadString( hInstance, nID ) );

  0010b	5e		 pop	 esi
  0010c	5f		 pop	 edi

; 2358 : 			return( FALSE );

  0010d	33 c0		 xor	 eax, eax

; 2348 : 	}

  0010f	5b		 pop	 ebx
  00110	8b e5		 mov	 esp, ebp
  00112	5d		 pop	 ebp
  00113	c2 04 00	 ret	 4
$LN38@LoadString:
; File C:\Program Files\Microsoft Visual Studio\2022\Professional\VC\Tools\MSVC\14.44.35207\atlmfc\include\atlsimpstr.h

; 876  : 			AtlThrow(E_INVALIDARG);

  00116	68 57 00 07 80	 push	 -2147024809		; 80070057H
  0011b	e8 00 00 00 00	 call	 ?AtlThrowImpl@ATL@@YGXJ@Z ; ATL::AtlThrowImpl
$LN63@LoadString:
  00120	cc		 int	 3
?LoadStringA@?$CStringT@DV?$StrTraitMFC@DV?$ChTraitsCRT@D@ATL@@@@@ATL@@QAEHI@Z ENDP ; ATL::CStringT<char,StrTraitMFC<char,ATL::ChTraitsCRT<char> > >::LoadStringA
_TEXT	ENDS
; Function compile flags: /Ogtp
; File C:\Program Files\Microsoft Visual Studio\2022\Professional\VC\Tools\MSVC\14.44.35207\atlmfc\include\cstringt.h
; File C:\Program Files\Microsoft Visual Studio\2022\Professional\VC\Tools\MSVC\14.44.35207\atlmfc\include\atlsimpstr.h
; File C:\Program Files\Microsoft Visual Studio\2022\Professional\VC\Tools\MSVC\14.44.35207\atlmfc\include\cstringt.h
; File C:\Program Files\Microsoft Visual Studio\2022\Professional\VC\Tools\MSVC\14.44.35207\atlmfc\include\atlsimpstr.h
; File C:\Program Files\Microsoft Visual Studio\2022\Professional\VC\Tools\MSVC\14.44.35207\atlmfc\include\cstringt.h
; File C:\Program Files\Microsoft Visual Studio\2022\Professional\VC\Tools\MSVC\14.44.35207\atlmfc\include\atlsimpstr.h
; File C:\Program Files\Microsoft Visual Studio\2022\Professional\VC\Tools\MSVC\14.44.35207\atlmfc\include\cstringt.h
; File C:\Program Files\Microsoft Visual Studio\2022\Professional\VC\Tools\MSVC\14.44.35207\atlmfc\include\atlsimpstr.h
; File C:\Program Files\Microsoft Visual Studio\2022\Professional\VC\Tools\MSVC\14.44.35207\atlmfc\include\cstringt.h
;	COMDAT ?Replace@?$CStringT@DV?$StrTraitMFC@DV?$ChTraitsCRT@D@ATL@@@@@ATL@@QAEHDD@Z
_TEXT	SEGMENT
_nLength$1$ = -12					; size = 4
_nCount$1$ = -8						; size = 4
_bCopied$1$ = -1					; size = 1
_chOld$ = 8						; size = 1
_chNew$ = 12						; size = 1
?Replace@?$CStringT@DV?$StrTraitMFC@DV?$ChTraitsCRT@D@ATL@@@@@ATL@@QAEHDD@Z PROC ; ATL::CStringT<char,StrTraitMFC<char,ATL::ChTraitsCRT<char> > >::Replace, COMDAT
; _this$ = ecx

; 1569 : 	{

  00000	55		 push	 ebp
  00001	8b ec		 mov	 ebp, esp
  00003	83 ec 0c	 sub	 esp, 12			; 0000000cH
  00006	53		 push	 ebx
  00007	8b d9		 mov	 ebx, ecx

; 1570 : 		int nCount = 0;

  00009	33 c0		 xor	 eax, eax

; 1571 : 
; 1572 : 		// short-circuit the nop case
; 1573 : 		if( chOld != chNew )

  0000b	8a 6d 08	 mov	 ch, BYTE PTR _chOld$[ebp]
  0000e	89 45 f8	 mov	 DWORD PTR _nCount$1$[ebp], eax
  00011	3a 6d 0c	 cmp	 ch, BYTE PTR _chNew$[ebp]
  00014	0f 84 89 00 00
	00		 je	 $LN30@Replace

; 1574 : 		{
; 1575 : 			// otherwise modify each character that matches in the string
; 1576 : 			bool bCopied = false;
; 1577 : 			PXSTR pszBuffer = const_cast< PXSTR >( this->GetString() );  // We don't actually write to pszBuffer until we've called GetBuffer().

  0001a	56		 push	 esi
  0001b	8b 33		 mov	 esi, DWORD PTR [ebx]
  0001d	32 c9		 xor	 cl, cl
  0001f	57		 push	 edi

; 1578 : 
; 1579 : 			int nLength = this->GetLength();
; 1580 : 			int iChar = 0;

  00020	33 ff		 xor	 edi, edi
  00022	88 4d ff	 mov	 BYTE PTR _bCopied$1$[ebp], cl
  00025	8b 56 f4	 mov	 edx, DWORD PTR [esi-12]
  00028	89 55 f4	 mov	 DWORD PTR _nLength$1$[ebp], edx

; 1581 : 			while( iChar < nLength )

  0002b	85 d2		 test	 edx, edx
  0002d	7e 72		 jle	 SHORT $LN54@Replace
  0002f	eb 03		 jmp	 SHORT $LN2@Replace
$LL46@Replace:
  00031	8a 4d ff	 mov	 cl, BYTE PTR _bCopied$1$[ebp]
$LN2@Replace:

; 1582 : 			{
; 1583 : 				// replace instances of the specified character only
; 1584 : 				if( pszBuffer[iChar] == chOld )

  00034	38 2c 37	 cmp	 BYTE PTR [edi+esi], ch
  00037	75 32		 jne	 SHORT $LN5@Replace

; 1585 : 				{
; 1586 : 					if( !bCopied )

  00039	84 c9		 test	 cl, cl
  0003b	75 24		 jne	 SHORT $LN44@Replace
; File C:\Program Files\Microsoft Visual Studio\2022\Professional\VC\Tools\MSVC\14.44.35207\atlmfc\include\atlsimpstr.h

; 804  : 		return( reinterpret_cast< CStringData* >( m_pszData )-1 );

  0003d	8b 03		 mov	 eax, DWORD PTR [ebx]

; 812  : 		int nShared = 1-pOldData->nRefs;  // nShared < 0 means true, >= 0 means false

  0003f	b9 01 00 00 00	 mov	 ecx, 1
; File C:\Program Files\Microsoft Visual Studio\2022\Professional\VC\Tools\MSVC\14.44.35207\atlmfc\include\cstringt.h

; 1588 : 						bCopied = true;

  00044	c6 45 ff 01	 mov	 BYTE PTR _bCopied$1$[ebp], 1
; File C:\Program Files\Microsoft Visual Studio\2022\Professional\VC\Tools\MSVC\14.44.35207\atlmfc\include\atlsimpstr.h

; 812  : 		int nShared = 1-pOldData->nRefs;  // nShared < 0 means true, >= 0 means false

  00048	2b 48 fc	 sub	 ecx, DWORD PTR [eax-4]

; 813  : 		int nTooShort = pOldData->nAllocLength-nLength;  // nTooShort < 0 means true, >= 0 means false

  0004b	8b 40 f8	 mov	 eax, DWORD PTR [eax-8]
  0004e	2b c2		 sub	 eax, edx

; 814  : 		if( (nShared|nTooShort) < 0 )  // If either sign bit is set (i.e. either is less than zero), we need to copy data

  00050	0b c8		 or	 ecx, eax
  00052	7d 08		 jge	 SHORT $LN17@Replace

; 815  : 		{
; 816  : 			PrepareWrite2( nLength );

  00054	52		 push	 edx
  00055	8b cb		 mov	 ecx, ebx
  00057	e8 00 00 00 00	 call	 ?PrepareWrite2@?$CSimpleStringT@D$0A@@ATL@@AAEXH@Z ; ATL::CSimpleStringT<char,0>::PrepareWrite2
$LN17@Replace:
; File C:\Program Files\Microsoft Visual Studio\2022\Professional\VC\Tools\MSVC\14.44.35207\atlmfc\include\cstringt.h

; 1589 : 						pszBuffer = this->GetBuffer( nLength );

  0005c	8b 33		 mov	 esi, DWORD PTR [ebx]
  0005e	8b 45 f8	 mov	 eax, DWORD PTR _nCount$1$[ebp]
$LN44@Replace:

; 1590 : 					}
; 1591 : 					pszBuffer[iChar] = chNew;

  00061	8a 4d 0c	 mov	 cl, BYTE PTR _chNew$[ebp]

; 1592 : 					nCount++;

  00064	40		 inc	 eax
  00065	88 0c 37	 mov	 BYTE PTR [edi+esi], cl
  00068	89 45 f8	 mov	 DWORD PTR _nCount$1$[ebp], eax
$LN5@Replace:

; 1593 : 				}
; 1594 : 				iChar = int( StringTraits::CharNext( pszBuffer+iChar )-pszBuffer );

  0006b	8d 04 37	 lea	 eax, DWORD PTR [edi+esi]

; 167  : 		return reinterpret_cast< char* >( _mbsinc( reinterpret_cast< const unsigned char* >( p ) ) );

  0006e	50		 push	 eax
  0006f	e8 00 00 00 00	 call	 __mbsinc

; 1581 : 			while( iChar < nLength )

  00074	8b 55 f4	 mov	 edx, DWORD PTR _nLength$1$[ebp]

; 167  : 		return reinterpret_cast< char* >( _mbsinc( reinterpret_cast< const unsigned char* >( p ) ) );

  00077	8b f8		 mov	 edi, eax

; 1581 : 			while( iChar < nLength )

  00079	8b 45 f8	 mov	 eax, DWORD PTR _nCount$1$[ebp]

; 1593 : 				}
; 1594 : 				iChar = int( StringTraits::CharNext( pszBuffer+iChar )-pszBuffer );

  0007c	2b fe		 sub	 edi, esi
  0007e	8a 6d 08	 mov	 ch, BYTE PTR _chOld$[ebp]

; 167  : 		return reinterpret_cast< char* >( _mbsinc( reinterpret_cast< const unsigned char* >( p ) ) );

  00081	83 c4 04	 add	 esp, 4

; 1581 : 			while( iChar < nLength )

  00084	3b fa		 cmp	 edi, edx
  00086	7c a9		 jl	 SHORT $LL46@Replace

; 1596 : 			if( bCopied )

  00088	80 7d ff 00	 cmp	 BYTE PTR _bCopied$1$[ebp], 0
  0008c	74 10		 je	 SHORT $LN45@Replace
; File C:\Program Files\Microsoft Visual Studio\2022\Professional\VC\Tools\MSVC\14.44.35207\atlmfc\include\atlsimpstr.h

; 875  : 		if( nLength < 0 || nLength > GetData()->nAllocLength)

  0008e	8b 03		 mov	 eax, DWORD PTR [ebx]
  00090	3b 50 f8	 cmp	 edx, DWORD PTR [eax-8]
  00093	7f 15		 jg	 SHORT $LN29@Replace

; 877  : 
; 878  : 		GetData()->nDataLength = nLength;

  00095	89 50 f4	 mov	 DWORD PTR [eax-12], edx

; 879  : 		m_pszData[nLength] = 0;

  00098	8b 03		 mov	 eax, DWORD PTR [ebx]
  0009a	c6 04 02 00	 mov	 BYTE PTR [edx+eax], 0
$LN45@Replace:
; File C:\Program Files\Microsoft Visual Studio\2022\Professional\VC\Tools\MSVC\14.44.35207\atlmfc\include\cstringt.h

; 1596 : 			if( bCopied )

  0009e	8b 45 f8	 mov	 eax, DWORD PTR _nCount$1$[ebp]
$LN54@Replace:
  000a1	5f		 pop	 edi
  000a2	5e		 pop	 esi
$LN30@Replace:

; 1597 : 			{
; 1598 : 				this->ReleaseBufferSetLength( nLength );
; 1599 : 			}
; 1600 : 		}
; 1601 : 
; 1602 : 		return( nCount );

  000a3	5b		 pop	 ebx

; 1603 : 	}

  000a4	8b e5		 mov	 esp, ebp
  000a6	5d		 pop	 ebp
  000a7	c2 08 00	 ret	 8
$LN29@Replace:
; File C:\Program Files\Microsoft Visual Studio\2022\Professional\VC\Tools\MSVC\14.44.35207\atlmfc\include\atlsimpstr.h

; 876  : 			AtlThrow(E_INVALIDARG);

  000aa	68 57 00 07 80	 push	 -2147024809		; 80070057H
  000af	e8 00 00 00 00	 call	 ?AtlThrowImpl@ATL@@YGXJ@Z ; ATL::AtlThrowImpl
$LN56@Replace:
  000b4	cc		 int	 3
?Replace@?$CStringT@DV?$StrTraitMFC@DV?$ChTraitsCRT@D@ATL@@@@@ATL@@QAEHDD@Z ENDP ; ATL::CStringT<char,StrTraitMFC<char,ATL::ChTraitsCRT<char> > >::Replace
_TEXT	ENDS
; Function compile flags: /Ogtp
; File C:\Program Files\Microsoft Visual Studio\2022\Professional\VC\Tools\MSVC\14.44.35207\atlmfc\include\cstringt.h
; File C:\Program Files\Microsoft Visual Studio\2022\Professional\VC\Tools\MSVC\14.44.35207\atlmfc\include\atlsimpstr.h
; File C:\Program Files\Microsoft Visual Studio\2022\Professional\VC\Tools\MSVC\14.44.35207\atlmfc\include\cstringt.h
;	COMDAT ??1?$CStringT@DV?$StrTraitMFC@DV?$ChTraitsCRT@D@ATL@@@@@ATL@@QAE@XZ
_TEXT	SEGMENT
??1?$CStringT@DV?$StrTraitMFC@DV?$ChTraitsCRT@D@ATL@@@@@ATL@@QAE@XZ PROC ; ATL::CStringT<char,StrTraitMFC<char,ATL::ChTraitsCRT<char> > >::~CStringT<char,StrTraitMFC<char,ATL::ChTraitsCRT<char> > >, COMDAT
; _this$ = ecx
; File C:\Program Files\Microsoft Visual Studio\2022\Professional\VC\Tools\MSVC\14.44.35207\atlmfc\include\atlsimpstr.h

; 804  : 		return( reinterpret_cast< CStringData* >( m_pszData )-1 );

  00000	8b 11		 mov	 edx, DWORD PTR [ecx]

; 92   : 		if( _InterlockedDecrement( &nRefs ) <= 0 )

  00002	83 c8 ff	 or	 eax, -1

; 804  : 		return( reinterpret_cast< CStringData* >( m_pszData )-1 );

  00005	83 ea 10	 sub	 edx, 16			; 00000010H

; 92   : 		if( _InterlockedDecrement( &nRefs ) <= 0 )

  00008	f0 0f c1 42 0c	 lock	  xadd	 DWORD PTR [edx+12], eax
  0000d	48		 dec	 eax
  0000e	85 c0		 test	 eax, eax
  00010	7f 08		 jg	 SHORT $LN8@CStringT

; 93   : 		{
; 94   : 			pStringMgr->Free( this );

  00012	8b 0a		 mov	 ecx, DWORD PTR [edx]
  00014	52		 push	 edx
  00015	8b 01		 mov	 eax, DWORD PTR [ecx]
  00017	ff 50 04	 call	 DWORD PTR [eax+4]
$LN8@CStringT:
; File C:\Program Files\Microsoft Visual Studio\2022\Professional\VC\Tools\MSVC\14.44.35207\atlmfc\include\cstringt.h

; 1303 : 	}

  0001a	c3		 ret	 0
??1?$CStringT@DV?$StrTraitMFC@DV?$ChTraitsCRT@D@ATL@@@@@ATL@@QAE@XZ ENDP ; ATL::CStringT<char,StrTraitMFC<char,ATL::ChTraitsCRT<char> > >::~CStringT<char,StrTraitMFC<char,ATL::ChTraitsCRT<char> > >
_TEXT	ENDS
; Function compile flags: /Ogtp
; File C:\Program Files\Microsoft Visual Studio\2022\Professional\VC\Tools\MSVC\14.44.35207\atlmfc\include\atlsimpstr.h
;	COMDAT ?Reallocate@?$CSimpleStringT@D$0A@@ATL@@AAEXH@Z
_TEXT	SEGMENT
_nLength$ = 8						; size = 4
?Reallocate@?$CSimpleStringT@D$0A@@ATL@@AAEXH@Z PROC	; ATL::CSimpleStringT<char,0>::Reallocate, COMDAT
; _this$ = ecx

; 853  : 	{

  00000	55		 push	 ebp
  00001	8b ec		 mov	 ebp, esp
  00003	56		 push	 esi

; 854  : 		CStringData* pOldData = GetData();
; 855  : 		ATLASSERT( pOldData->nAllocLength < nLength );
; 856  : 		IAtlStringMgr* pStringMgr = pOldData->pStringMgr;
; 857  : 		if ( pOldData->nAllocLength >= nLength || nLength <= 0)

  00004	8b 75 08	 mov	 esi, DWORD PTR _nLength$[ebp]
  00007	57		 push	 edi
  00008	8b f9		 mov	 edi, ecx

; 804  : 		return( reinterpret_cast< CStringData* >( m_pszData )-1 );

  0000a	8b 17		 mov	 edx, DWORD PTR [edi]
  0000c	83 ea 10	 sub	 edx, 16			; 00000010H

; 854  : 		CStringData* pOldData = GetData();
; 855  : 		ATLASSERT( pOldData->nAllocLength < nLength );
; 856  : 		IAtlStringMgr* pStringMgr = pOldData->pStringMgr;
; 857  : 		if ( pOldData->nAllocLength >= nLength || nLength <= 0)

  0000f	39 72 08	 cmp	 DWORD PTR [edx+8], esi
  00012	7d 1e		 jge	 SHORT $LN3@Reallocate
  00014	85 f6		 test	 esi, esi
  00016	7e 1a		 jle	 SHORT $LN3@Reallocate

; 860  : 			return;
; 861  : 		}
; 862  : 		CStringData* pNewData = pStringMgr->Reallocate( pOldData, nLength, sizeof( XCHAR ) );

  00018	8b 0a		 mov	 ecx, DWORD PTR [edx]
  0001a	6a 01		 push	 1
  0001c	56		 push	 esi
  0001d	52		 push	 edx
  0001e	8b 01		 mov	 eax, DWORD PTR [ecx]
  00020	ff 50 08	 call	 DWORD PTR [eax+8]

; 863  : 		if( pNewData == NULL )

  00023	85 c0		 test	 eax, eax
  00025	74 0b		 je	 SHORT $LN3@Reallocate

; 864  : 		{
; 865  : 			ThrowMemoryException();
; 866  : 		}
; 867  : 		Attach( pNewData );

  00027	83 c0 10	 add	 eax, 16			; 00000010H
  0002a	89 07		 mov	 DWORD PTR [edi], eax
  0002c	5f		 pop	 edi
  0002d	5e		 pop	 esi

; 868  : 	}

  0002e	5d		 pop	 ebp
  0002f	c2 04 00	 ret	 4
$LN3@Reallocate:

; 858  : 		{
; 859  : 			ThrowMemoryException();

  00032	e8 00 00 00 00	 call	 ?ThrowMemoryException@?$CSimpleStringT@D$0A@@ATL@@KAXXZ ; ATL::CSimpleStringT<char,0>::ThrowMemoryException
$LN12@Reallocate:
  00037	cc		 int	 3
?Reallocate@?$CSimpleStringT@D$0A@@ATL@@AAEXH@Z ENDP	; ATL::CSimpleStringT<char,0>::Reallocate
_TEXT	ENDS
; Function compile flags: /Ogtp
; File C:\Program Files\Microsoft Visual Studio\2022\Professional\VC\Tools\MSVC\14.44.35207\atlmfc\include\atlsimpstr.h
;	COMDAT ?PrepareWrite2@?$CSimpleStringT@D$0A@@ATL@@AAEXH@Z
_TEXT	SEGMENT
_nLength$ = 8						; size = 4
?PrepareWrite2@?$CSimpleStringT@D$0A@@ATL@@AAEXH@Z PROC	; ATL::CSimpleStringT<char,0>::PrepareWrite2, COMDAT
; _this$ = ecx

; 822  : 	{

  00000	55		 push	 ebp
  00001	8b ec		 mov	 ebp, esp
  00003	56		 push	 esi

; 823  : 		CStringData* pOldData = GetData();
; 824  : 		if( pOldData->nDataLength > nLength )

  00004	8b 75 08	 mov	 esi, DWORD PTR _nLength$[ebp]
  00007	57		 push	 edi
  00008	8b f9		 mov	 edi, ecx

; 804  : 		return( reinterpret_cast< CStringData* >( m_pszData )-1 );

  0000a	8b 0f		 mov	 ecx, DWORD PTR [edi]

; 823  : 		CStringData* pOldData = GetData();
; 824  : 		if( pOldData->nDataLength > nLength )

  0000c	39 71 f4	 cmp	 DWORD PTR [ecx-12], esi
  0000f	0f 4f 71 f4	 cmovg	 esi, DWORD PTR [ecx-12]

; 77   : 		return( nRefs > 1 );

  00013	83 79 fc 01	 cmp	 DWORD PTR [ecx-4], 1

; 825  : 		{
; 826  : 			nLength = pOldData->nDataLength;
; 827  : 		}
; 828  : 		if( pOldData->IsShared() )

  00017	7e 0e		 jle	 SHORT $LN3@PrepareWri

; 829  : 		{
; 830  : 			Fork( nLength );

  00019	56		 push	 esi
  0001a	8b cf		 mov	 ecx, edi
  0001c	e8 00 00 00 00	 call	 ?Fork@?$CSimpleStringT@D$0A@@ATL@@AAEXH@Z ; ATL::CSimpleStringT<char,0>::Fork
  00021	5f		 pop	 edi

; 850  : 		}
; 851  : 	}

  00022	5e		 pop	 esi
  00023	5d		 pop	 ebp
  00024	c2 04 00	 ret	 4
$LN3@PrepareWri:

; 831  : 		}
; 832  : 		else if( pOldData->nAllocLength < nLength )

  00027	8b 49 f8	 mov	 ecx, DWORD PTR [ecx-8]
  0002a	3b ce		 cmp	 ecx, esi
  0002c	7d 25		 jge	 SHORT $LN5@PrepareWri

; 833  : 		{
; 834  : 			// Grow exponentially, until we hit 1G, then by 1M thereafter.
; 835  : 			int nNewLength = pOldData->nAllocLength;
; 836  : 			if( nNewLength > 1024 * 1024 * 1024 )

  0002e	81 f9 00 00 00
	40		 cmp	 ecx, 1073741824		; 40000000H
  00034	7e 07		 jle	 SHORT $LN6@PrepareWri

; 837  : 			{
; 838  : 				nNewLength += 1024 * 1024;

  00036	b8 00 00 10 00	 mov	 eax, 1048576		; 00100000H

; 839  : 			}

  0003b	eb 07		 jmp	 SHORT $LN7@PrepareWri
$LN6@PrepareWri:

; 840  : 			else
; 841  : 			{
; 842  : 				// Exponential growth factor is 1.5.
; 843  : 				nNewLength = nNewLength + nNewLength / 2;

  0003d	8b c1		 mov	 eax, ecx
  0003f	99		 cdq
  00040	2b c2		 sub	 eax, edx
  00042	d1 f8		 sar	 eax, 1
$LN7@PrepareWri:

; 844  : 			}
; 845  : 			if( nNewLength < nLength )

  00044	03 c1		 add	 eax, ecx

; 846  : 			{
; 847  : 				nNewLength = nLength;
; 848  : 			}
; 849  : 			Reallocate( nNewLength );

  00046	8b cf		 mov	 ecx, edi
  00048	3b c6		 cmp	 eax, esi
  0004a	0f 4d f0	 cmovge	 esi, eax
  0004d	56		 push	 esi
  0004e	e8 00 00 00 00	 call	 ?Reallocate@?$CSimpleStringT@D$0A@@ATL@@AAEXH@Z ; ATL::CSimpleStringT<char,0>::Reallocate
$LN5@PrepareWri:

; 850  : 		}
; 851  : 	}

  00053	5f		 pop	 edi
  00054	5e		 pop	 esi
  00055	5d		 pop	 ebp
  00056	c2 04 00	 ret	 4
?PrepareWrite2@?$CSimpleStringT@D$0A@@ATL@@AAEXH@Z ENDP	; ATL::CSimpleStringT<char,0>::PrepareWrite2
_TEXT	ENDS
; Function compile flags: /Ogtp
; File C:\Program Files\Microsoft Visual Studio\2022\Professional\VC\Tools\MSVC\14.44.35207\atlmfc\include\atlsimpstr.h
; File C:\Program Files (x86)\Windows Kits\10\Include\10.0.26100.0\ucrt\corecrt_memcpy_s.h
; File C:\Program Files\Microsoft Visual Studio\2022\Professional\VC\Tools\MSVC\14.44.35207\atlmfc\include\atlsimpstr.h
;	COMDAT ?Fork@?$CSimpleStringT@D$0A@@ATL@@AAEXH@Z
_TEXT	SEGMENT
_this$1$ = -12						; size = 4
_nOldLength$1$ = -8					; size = 4
__Source$1$ = -4					; size = 4
_nLength$ = 8						; size = 4
_pNewData$1$ = 8					; size = 4
?Fork@?$CSimpleStringT@D$0A@@ATL@@AAEXH@Z PROC		; ATL::CSimpleStringT<char,0>::Fork, COMDAT
; _this$ = ecx

; 787  : 	{

  00000	55		 push	 ebp
  00001	8b ec		 mov	 ebp, esp
  00003	83 ec 0c	 sub	 esp, 12			; 0000000cH
  00006	8b c1		 mov	 eax, ecx
  00008	89 45 f4	 mov	 DWORD PTR _this$1$[ebp], eax
  0000b	53		 push	 ebx
  0000c	56		 push	 esi

; 804  : 		return( reinterpret_cast< CStringData* >( m_pszData )-1 );

  0000d	8b 00		 mov	 eax, DWORD PTR [eax]

; 790  : 		CStringData* pNewData = pOldData->pStringMgr->Clone()->Allocate( nLength, sizeof( XCHAR ) );

  0000f	8b 48 f0	 mov	 ecx, DWORD PTR [eax-16]

; 804  : 		return( reinterpret_cast< CStringData* >( m_pszData )-1 );

  00012	8d 58 f0	 lea	 ebx, DWORD PTR [eax-16]
  00015	89 45 fc	 mov	 DWORD PTR __Source$1$[ebp], eax

; 787  : 	{

  00018	57		 push	 edi

; 788  : 		CStringData* pOldData = GetData();
; 789  : 		int nOldLength = pOldData->nDataLength;

  00019	8b 7b 04	 mov	 edi, DWORD PTR [ebx+4]

; 790  : 		CStringData* pNewData = pOldData->pStringMgr->Clone()->Allocate( nLength, sizeof( XCHAR ) );

  0001c	8b 01		 mov	 eax, DWORD PTR [ecx]
  0001e	89 7d f8	 mov	 DWORD PTR _nOldLength$1$[ebp], edi
  00021	ff 50 10	 call	 DWORD PTR [eax+16]
  00024	8b 75 08	 mov	 esi, DWORD PTR _nLength$[ebp]
  00027	8b c8		 mov	 ecx, eax
  00029	6a 01		 push	 1
  0002b	56		 push	 esi
  0002c	8b 10		 mov	 edx, DWORD PTR [eax]
  0002e	ff 12		 call	 DWORD PTR [edx]
  00030	89 45 08	 mov	 DWORD PTR _pNewData$1$[ebp], eax

; 791  : 		if( pNewData == NULL )

  00033	85 c0		 test	 eax, eax
  00035	74 6c		 je	 SHORT $LN25@Fork

; 794  : 		}
; 795  : 		int nCharsToCopy = ((nOldLength < nLength) ? nOldLength : nLength)+1;  // Copy '\0'

  00037	3b fe		 cmp	 edi, esi
  00039	0f 4c f7	 cmovl	 esi, edi

; 796  : 		memcpy_s( PXSTR( pNewData->data() ), nCharsToCopy * sizeof( XCHAR ),

  0003c	8d 78 10	 lea	 edi, DWORD PTR [eax+16]
  0003f	83 c6 01	 add	 esi, 1
; File C:\Program Files (x86)\Windows Kits\10\Include\10.0.26100.0\ucrt\corecrt_memcpy_s.h

; 47   :         if (_SourceSize == 0)

  00042	74 33		 je	 SHORT $LN11@Fork

; 48   :         {
; 49   :             return 0;
; 50   :         }
; 51   : 
; 52   :         _CRT_MEMCPY_S_VALIDATE_RETURN_ERRCODE(_Destination != NULL, EINVAL);

  00044	85 ff		 test	 edi, edi
  00046	74 1f		 je	 SHORT $LN23@Fork

; 53   :         if (_Source == NULL || _DestinationSize < _SourceSize)

  00048	8b 45 fc	 mov	 eax, DWORD PTR __Source$1$[ebp]
  0004b	56		 push	 esi
  0004c	85 c0		 test	 eax, eax
  0004e	74 0c		 je	 SHORT $LN10@Fork

; 56   : 
; 57   :             _CRT_MEMCPY_S_VALIDATE_RETURN_ERRCODE(_Source != NULL,                 EINVAL);
; 58   :             _CRT_MEMCPY_S_VALIDATE_RETURN_ERRCODE(_DestinationSize >= _SourceSize, ERANGE);
; 59   : 
; 60   :             // Unreachable, but required to suppress /analyze warnings:
; 61   :             return EINVAL;
; 62   :         }
; 63   :         memcpy(_Destination, _Source, _SourceSize);

  00050	50		 push	 eax
  00051	57		 push	 edi
  00052	e8 00 00 00 00	 call	 _memcpy
  00057	83 c4 0c	 add	 esp, 12			; 0000000cH
  0005a	eb 1b		 jmp	 SHORT $LN11@Fork
$LN10@Fork:

; 54   :         {
; 55   :             memset(_Destination, 0, _DestinationSize);

  0005c	6a 00		 push	 0
  0005e	57		 push	 edi
  0005f	e8 00 00 00 00	 call	 _memset
  00064	83 c4 0c	 add	 esp, 12			; 0000000cH
$LN23@Fork:
; File C:\Program Files\Microsoft Visual Studio\2022\Professional\VC\Tools\MSVC\14.44.35207\atlmfc\include\atlsimpstr.h

; 798  : 		pNewData->nDataLength = nOldLength;

  00067	e8 00 00 00 00	 call	 __errno
  0006c	c7 00 16 00 00
	00		 mov	 DWORD PTR [eax], 22	; 00000016H
  00072	e8 00 00 00 00	 call	 __invalid_parameter_noinfo
$LN11@Fork:
  00077	8b 4d 08	 mov	 ecx, DWORD PTR _pNewData$1$[ebp]
  0007a	8b 45 f8	 mov	 eax, DWORD PTR _nOldLength$1$[ebp]
  0007d	89 41 04	 mov	 DWORD PTR [ecx+4], eax

; 92   : 		if( _InterlockedDecrement( &nRefs ) <= 0 )

  00080	83 c8 ff	 or	 eax, -1
  00083	f0 0f c1 43 0c	 lock	  xadd	 DWORD PTR [ebx+12], eax
  00088	48		 dec	 eax
  00089	85 c0		 test	 eax, eax
  0008b	7f 08		 jg	 SHORT $LN15@Fork

; 93   : 		{
; 94   : 			pStringMgr->Free( this );

  0008d	8b 0b		 mov	 ecx, DWORD PTR [ebx]
  0008f	53		 push	 ebx
  00090	8b 01		 mov	 eax, DWORD PTR [ecx]
  00092	ff 50 04	 call	 DWORD PTR [eax+4]
$LN15@Fork:

; 799  : 		pOldData->Release();
; 800  : 		Attach( pNewData );

  00095	8b 45 f4	 mov	 eax, DWORD PTR _this$1$[ebp]
  00098	89 38		 mov	 DWORD PTR [eax], edi

; 801  : 	}

  0009a	5f		 pop	 edi
  0009b	5e		 pop	 esi
  0009c	5b		 pop	 ebx
  0009d	8b e5		 mov	 esp, ebp
  0009f	5d		 pop	 ebp
  000a0	c2 04 00	 ret	 4
$LN25@Fork:

; 792  : 		{
; 793  : 			ThrowMemoryException();

  000a3	e8 00 00 00 00	 call	 ?ThrowMemoryException@?$CSimpleStringT@D$0A@@ATL@@KAXXZ ; ATL::CSimpleStringT<char,0>::ThrowMemoryException
$LN22@Fork:
  000a8	cc		 int	 3
?Fork@?$CSimpleStringT@D$0A@@ATL@@AAEXH@Z ENDP		; ATL::CSimpleStringT<char,0>::Fork
_TEXT	ENDS
; Function compile flags: /Ogtp
; File C:\Program Files\Microsoft Visual Studio\2022\Professional\VC\Tools\MSVC\14.44.35207\atlmfc\include\atlsimpstr.h
;	COMDAT ?ThrowMemoryException@?$CSimpleStringT@D$0A@@ATL@@KAXXZ
_TEXT	SEGMENT
?ThrowMemoryException@?$CSimpleStringT@D$0A@@ATL@@KAXXZ PROC ; ATL::CSimpleStringT<char,0>::ThrowMemoryException, COMDAT

; 777  : 		AtlThrow( E_OUTOFMEMORY );

  00000	68 0e 00 07 80	 push	 -2147024882		; 8007000eH
  00005	e8 00 00 00 00	 call	 ?AtlThrowImpl@ATL@@YGXJ@Z ; ATL::AtlThrowImpl
$LN3@ThrowMemor:
  0000a	cc		 int	 3
?ThrowMemoryException@?$CSimpleStringT@D$0A@@ATL@@KAXXZ ENDP ; ATL::CSimpleStringT<char,0>::ThrowMemoryException
_TEXT	ENDS
; Function compile flags: /Ogtp
; File C:\Program Files\Microsoft Visual Studio\2022\Professional\VC\Tools\MSVC\14.44.35207\atlmfc\include\atlsimpstr.h
; File C:\Program Files (x86)\Windows Kits\10\Include\10.0.26100.0\ucrt\corecrt_memcpy_s.h
; File C:\Program Files\Microsoft Visual Studio\2022\Professional\VC\Tools\MSVC\14.44.35207\atlmfc\include\atlsimpstr.h
; File C:\Program Files (x86)\Windows Kits\10\Include\10.0.26100.0\ucrt\corecrt_memcpy_s.h
; File C:\Program Files\Microsoft Visual Studio\2022\Professional\VC\Tools\MSVC\14.44.35207\atlmfc\include\atlsimpstr.h
;	COMDAT ?SetString@?$CSimpleStringT@D$0A@@ATL@@QAEXPBDH@Z
_TEXT	SEGMENT
_pszSrc$ = 8						; size = 4
_nOldLength$1$ = 8					; size = 4
_nLength$ = 12						; size = 4
_nOffset$1$ = 12					; size = 4
?SetString@?$CSimpleStringT@D$0A@@ATL@@QAEXPBDH@Z PROC	; ATL::CSimpleStringT<char,0>::SetString, COMDAT
; _this$ = ecx

; 611  : 	{

  00000	55		 push	 ebp
  00001	8b ec		 mov	 ebp, esp
  00003	56		 push	 esi

; 612  : 		if( nLength == 0 )

  00004	8b 75 0c	 mov	 esi, DWORD PTR _nLength$[ebp]
  00007	57		 push	 edi
  00008	8b f9		 mov	 edi, ecx
  0000a	85 f6		 test	 esi, esi
  0000c	75 58		 jne	 SHORT $LN2@SetString

; 804  : 		return( reinterpret_cast< CStringData* >( m_pszData )-1 );

  0000e	8b 07		 mov	 eax, DWORD PTR [edi]

; 443  : 		if( pOldData->nDataLength == 0 )

  00010	83 78 f4 00	 cmp	 DWORD PTR [eax-12], 0

; 804  : 		return( reinterpret_cast< CStringData* >( m_pszData )-1 );

  00014	8d 50 f0	 lea	 edx, DWORD PTR [eax-16]

; 442  : 		IAtlStringMgr* pStringMgr = pOldData->pStringMgr;

  00017	8b 32		 mov	 esi, DWORD PTR [edx]

; 443  : 		if( pOldData->nDataLength == 0 )

  00019	74 1f		 je	 SHORT $LN72@SetString

; 73   : 		return nRefs < 0;

  0001b	83 7a 0c 00	 cmp	 DWORD PTR [edx+12], 0
  0001f	8d 4a 0c	 lea	 ecx, DWORD PTR [edx+12]

; 448  : 		if( pOldData->IsLocked() )

  00022	7d 1c		 jge	 SHORT $LN10@SetString

; 875  : 		if( nLength < 0 || nLength > GetData()->nAllocLength)

  00024	83 78 f8 00	 cmp	 DWORD PTR [eax-8], 0
  00028	0f 8c 0b 01 00
	00		 jl	 $LN71@SetString

; 877  : 
; 878  : 		GetData()->nDataLength = nLength;

  0002e	c7 40 f4 00 00
	00 00		 mov	 DWORD PTR [eax-12], 0

; 879  : 		m_pszData[nLength] = 0;

  00035	8b 07		 mov	 eax, DWORD PTR [edi]
  00037	c6 00 00	 mov	 BYTE PTR [eax], 0
$LN72@SetString:
  0003a	5f		 pop	 edi

; 638  : 			else
; 639  : 			{
; 640  : 				memcpy_s( pszBuffer, GetAllocLength() * sizeof( XCHAR ), pszSrc, nLength * sizeof( XCHAR ));
; 641  : 			}
; 642  : 			ReleaseBufferSetLength( nLength );
; 643  : 		}
; 644  : 	}

  0003b	5e		 pop	 esi
  0003c	5d		 pop	 ebp
  0003d	c2 08 00	 ret	 8
$LN10@SetString:

; 92   : 		if( _InterlockedDecrement( &nRefs ) <= 0 )

  00040	83 c8 ff	 or	 eax, -1
  00043	f0 0f c1 01	 lock	  xadd	 DWORD PTR [ecx], eax
  00047	48		 dec	 eax
  00048	85 c0		 test	 eax, eax
  0004a	7f 08		 jg	 SHORT $LN27@SetString

; 93   : 		{
; 94   : 			pStringMgr->Free( this );

  0004c	8b 0a		 mov	 ecx, DWORD PTR [edx]
  0004e	52		 push	 edx
  0004f	8b 01		 mov	 eax, DWORD PTR [ecx]
  00051	ff 50 04	 call	 DWORD PTR [eax+4]
$LN27@SetString:

; 456  : 			CStringData* pNewData = pStringMgr->GetNilString();

  00054	8b 06		 mov	 eax, DWORD PTR [esi]
  00056	8b ce		 mov	 ecx, esi
  00058	ff 50 0c	 call	 DWORD PTR [eax+12]

; 457  : 			Attach( pNewData );

  0005b	83 c0 10	 add	 eax, 16			; 00000010H
  0005e	89 07		 mov	 DWORD PTR [edi], eax
  00060	5f		 pop	 edi

; 638  : 			else
; 639  : 			{
; 640  : 				memcpy_s( pszBuffer, GetAllocLength() * sizeof( XCHAR ), pszSrc, nLength * sizeof( XCHAR ));
; 641  : 			}
; 642  : 			ReleaseBufferSetLength( nLength );
; 643  : 		}
; 644  : 	}

  00061	5e		 pop	 esi
  00062	5d		 pop	 ebp
  00063	c2 08 00	 ret	 8
$LN2@SetString:
  00066	53		 push	 ebx

; 613  : 		{
; 614  : 			Empty();
; 615  : 		}
; 616  : 		else
; 617  : 		{
; 618  : 			// It is possible that pszSrc points to a location inside of our
; 619  : 			// buffer.  GetBuffer() might change m_pszData if (1) the buffer
; 620  : 			// is shared or (2) the buffer is too small to hold the new
; 621  : 			// string.  We detect this aliasing, and modify pszSrc to point
; 622  : 			// into the newly allocated buffer instead.
; 623  : 
; 624  : 			if(pszSrc == NULL)

  00067	8b 5d 08	 mov	 ebx, DWORD PTR _pszSrc$[ebp]
  0006a	85 db		 test	 ebx, ebx
  0006c	0f 84 c7 00 00
	00		 je	 $LN71@SetString

; 523  : 		return( GetData()->nDataLength );

  00072	8b 07		 mov	 eax, DWORD PTR [edi]

; 625  : 				AtlThrow(E_INVALIDARG);
; 626  : 
; 627  : 			UINT nOldLength = GetLength();
; 628  : 			UINT_PTR nOffset = pszSrc-GetString();

  00074	8b d3		 mov	 edx, ebx
  00076	2b d0		 sub	 edx, eax
  00078	89 55 0c	 mov	 DWORD PTR _nOffset$1$[ebp], edx
  0007b	8b 48 f4	 mov	 ecx, DWORD PTR [eax-12]
  0007e	89 4d 08	 mov	 DWORD PTR _nOldLength$1$[ebp], ecx

; 808  : 		if (nLength < 0)

  00081	85 f6		 test	 esi, esi
  00083	0f 88 b0 00 00
	00		 js	 $LN71@SetString

; 809  : 			AtlThrow(E_INVALIDARG);
; 810  : 
; 811  : 		CStringData* pOldData = GetData();
; 812  : 		int nShared = 1-pOldData->nRefs;  // nShared < 0 means true, >= 0 means false

  00089	b9 01 00 00 00	 mov	 ecx, 1
  0008e	2b 48 fc	 sub	 ecx, DWORD PTR [eax-4]

; 813  : 		int nTooShort = pOldData->nAllocLength-nLength;  // nTooShort < 0 means true, >= 0 means false

  00091	8b 40 f8	 mov	 eax, DWORD PTR [eax-8]
  00094	2b c6		 sub	 eax, esi

; 814  : 		if( (nShared|nTooShort) < 0 )  // If either sign bit is set (i.e. either is less than zero), we need to copy data

  00096	0b c8		 or	 ecx, eax
  00098	7d 0b		 jge	 SHORT $LN38@SetString

; 815  : 		{
; 816  : 			PrepareWrite2( nLength );

  0009a	56		 push	 esi
  0009b	8b cf		 mov	 ecx, edi
  0009d	e8 00 00 00 00	 call	 ?PrepareWrite2@?$CSimpleStringT@D$0A@@ATL@@AAEXH@Z ; ATL::CSimpleStringT<char,0>::PrepareWrite2
  000a2	8b 55 0c	 mov	 edx, DWORD PTR _nOffset$1$[ebp]
$LN38@SetString:

; 629  : 			// If 0 <= nOffset <= nOldLength, then pszSrc points into our
; 630  : 			// buffer
; 631  : 
; 632  : 			PXSTR pszBuffer = GetBuffer( nLength );

  000a5	8b 07		 mov	 eax, DWORD PTR [edi]
  000a7	8b 48 f8	 mov	 ecx, DWORD PTR [eax-8]

; 633  : 			if( nOffset <= nOldLength )

  000aa	3b 55 08	 cmp	 edx, DWORD PTR _nOldLength$1$[ebp]
  000ad	77 35		 ja	 SHORT $LN5@SetString

; 634  : 			{
; 635  : 				CopyCharsOverlapped( pszBuffer, GetAllocLength(),

  000af	03 d0		 add	 edx, eax
; File C:\Program Files (x86)\Windows Kits\10\Include\10.0.26100.0\ucrt\corecrt_memcpy_s.h

; 81   :         _CRT_MEMCPY_S_VALIDATE_RETURN_ERRCODE(_Destination != NULL,            EINVAL);

  000b1	85 c0		 test	 eax, eax
  000b3	75 0d		 jne	 SHORT $LN51@SetString
  000b5	e8 00 00 00 00	 call	 __errno
  000ba	c7 00 16 00 00
	00		 mov	 DWORD PTR [eax], 22	; 00000016H
  000c0	eb 5b		 jmp	 SHORT $LN97@SetString
$LN51@SetString:

; 82   :         _CRT_MEMCPY_S_VALIDATE_RETURN_ERRCODE(_Source != NULL,                 EINVAL);

  000c2	85 d2		 test	 edx, edx
  000c4	75 0d		 jne	 SHORT $LN52@SetString
  000c6	e8 00 00 00 00	 call	 __errno
  000cb	c7 00 16 00 00
	00		 mov	 DWORD PTR [eax], 22	; 00000016H
  000d1	eb 4a		 jmp	 SHORT $LN97@SetString
$LN52@SetString:

; 83   :         _CRT_MEMCPY_S_VALIDATE_RETURN_ERRCODE(_DestinationSize >= _SourceSize, ERANGE);

  000d3	3b ce		 cmp	 ecx, esi
  000d5	72 3b		 jb	 SHORT $LN98@SetString

; 84   : 
; 85   :         memmove(_Destination, _Source, _SourceSize);

  000d7	56		 push	 esi
  000d8	52		 push	 edx
  000d9	50		 push	 eax
  000da	e8 00 00 00 00	 call	 _memmove
  000df	83 c4 0c	 add	 esp, 12			; 0000000cH
; File C:\Program Files\Microsoft Visual Studio\2022\Professional\VC\Tools\MSVC\14.44.35207\atlmfc\include\atlsimpstr.h

; 637  : 			}

  000e2	eb 3e		 jmp	 SHORT $LN65@SetString
$LN5@SetString:
; File C:\Program Files (x86)\Windows Kits\10\Include\10.0.26100.0\ucrt\corecrt_memcpy_s.h

; 52   :         _CRT_MEMCPY_S_VALIDATE_RETURN_ERRCODE(_Destination != NULL, EINVAL);

  000e4	85 c0		 test	 eax, eax
  000e6	75 0d		 jne	 SHORT $LN61@SetString
  000e8	e8 00 00 00 00	 call	 __errno
  000ed	c7 00 16 00 00
	00		 mov	 DWORD PTR [eax], 22	; 00000016H
  000f3	eb 28		 jmp	 SHORT $LN97@SetString
$LN61@SetString:

; 53   :         if (_Source == NULL || _DestinationSize < _SourceSize)

  000f5	3b ce		 cmp	 ecx, esi
  000f7	72 0d		 jb	 SHORT $LN63@SetString

; 56   : 
; 57   :             _CRT_MEMCPY_S_VALIDATE_RETURN_ERRCODE(_Source != NULL,                 EINVAL);
; 58   :             _CRT_MEMCPY_S_VALIDATE_RETURN_ERRCODE(_DestinationSize >= _SourceSize, ERANGE);
; 59   : 
; 60   :             // Unreachable, but required to suppress /analyze warnings:
; 61   :             return EINVAL;
; 62   :         }
; 63   :         memcpy(_Destination, _Source, _SourceSize);

  000f9	56		 push	 esi
  000fa	53		 push	 ebx
  000fb	50		 push	 eax
  000fc	e8 00 00 00 00	 call	 _memcpy
  00101	83 c4 0c	 add	 esp, 12			; 0000000cH
  00104	eb 1c		 jmp	 SHORT $LN65@SetString
$LN63@SetString:

; 54   :         {
; 55   :             memset(_Destination, 0, _DestinationSize);

  00106	51		 push	 ecx
  00107	6a 00		 push	 0
  00109	50		 push	 eax
  0010a	e8 00 00 00 00	 call	 _memset
  0010f	83 c4 0c	 add	 esp, 12			; 0000000cH
$LN98@SetString:
; File C:\Program Files\Microsoft Visual Studio\2022\Professional\VC\Tools\MSVC\14.44.35207\atlmfc\include\atlsimpstr.h

; 875  : 		if( nLength < 0 || nLength > GetData()->nAllocLength)

  00112	e8 00 00 00 00	 call	 __errno
  00117	c7 00 22 00 00
	00		 mov	 DWORD PTR [eax], 34	; 00000022H
$LN97@SetString:
  0011d	e8 00 00 00 00	 call	 __invalid_parameter_noinfo
$LN65@SetString:
  00122	8b 07		 mov	 eax, DWORD PTR [edi]
  00124	5b		 pop	 ebx
  00125	3b 70 f8	 cmp	 esi, DWORD PTR [eax-8]
  00128	7f 0f		 jg	 SHORT $LN71@SetString

; 877  : 
; 878  : 		GetData()->nDataLength = nLength;

  0012a	89 70 f4	 mov	 DWORD PTR [eax-12], esi

; 879  : 		m_pszData[nLength] = 0;

  0012d	8b 07		 mov	 eax, DWORD PTR [edi]
  0012f	5f		 pop	 edi
  00130	c6 04 06 00	 mov	 BYTE PTR [esi+eax], 0

; 638  : 			else
; 639  : 			{
; 640  : 				memcpy_s( pszBuffer, GetAllocLength() * sizeof( XCHAR ), pszSrc, nLength * sizeof( XCHAR ));
; 641  : 			}
; 642  : 			ReleaseBufferSetLength( nLength );
; 643  : 		}
; 644  : 	}

  00134	5e		 pop	 esi
  00135	5d		 pop	 ebp
  00136	c2 08 00	 ret	 8
$LN71@SetString:

; 876  : 			AtlThrow(E_INVALIDARG);

  00139	68 57 00 07 80	 push	 -2147024809		; 80070057H
  0013e	e8 00 00 00 00	 call	 ?AtlThrowImpl@ATL@@YGXJ@Z ; ATL::AtlThrowImpl
$LN96@SetString:
  00143	cc		 int	 3
?SetString@?$CSimpleStringT@D$0A@@ATL@@QAEXPBDH@Z ENDP	; ATL::CSimpleStringT<char,0>::SetString
_TEXT	ENDS
; Function compile flags: /Ogtp
; File C:\Program Files\Microsoft Visual Studio\2022\Professional\VC\Tools\MSVC\14.44.35207\atlmfc\include\atlsimpstr.h
;	COMDAT ??1?$CSimpleStringT@D$0A@@ATL@@QAE@XZ
_TEXT	SEGMENT
??1?$CSimpleStringT@D$0A@@ATL@@QAE@XZ PROC		; ATL::CSimpleStringT<char,0>::~CSimpleStringT<char,0>, COMDAT
; _this$ = ecx

; 804  : 		return( reinterpret_cast< CStringData* >( m_pszData )-1 );

  00000	8b 11		 mov	 edx, DWORD PTR [ecx]

; 92   : 		if( _InterlockedDecrement( &nRefs ) <= 0 )

  00002	83 c8 ff	 or	 eax, -1

; 804  : 		return( reinterpret_cast< CStringData* >( m_pszData )-1 );

  00005	83 ea 10	 sub	 edx, 16			; 00000010H

; 92   : 		if( _InterlockedDecrement( &nRefs ) <= 0 )

  00008	f0 0f c1 42 0c	 lock	  xadd	 DWORD PTR [edx+12], eax
  0000d	48		 dec	 eax
  0000e	85 c0		 test	 eax, eax
  00010	7f 08		 jg	 SHORT $LN6@CSimpleStr

; 93   : 		{
; 94   : 			pStringMgr->Free( this );

  00012	8b 0a		 mov	 ecx, DWORD PTR [edx]
  00014	52		 push	 edx
  00015	8b 01		 mov	 eax, DWORD PTR [ecx]
  00017	ff 50 04	 call	 DWORD PTR [eax+4]
$LN6@CSimpleStr:

; 265  : 		CStringData* pData = GetData();
; 266  : 		pData->Release();
; 267  : 	}

  0001a	c3		 ret	 0
??1?$CSimpleStringT@D$0A@@ATL@@QAE@XZ ENDP		; ATL::CSimpleStringT<char,0>::~CSimpleStringT<char,0>
_TEXT	ENDS
; Function compile flags: /Ogtp
; File C:\Program Files\Microsoft Visual Studio\2022\Professional\VC\Tools\MSVC\14.44.35207\atlmfc\include\atlexcept.h
;	COMDAT ?AtlThrowImpl@ATL@@YGXJ@Z
_TEXT	SEGMENT
_hr$ = 8						; size = 4
?AtlThrowImpl@ATL@@YGXJ@Z PROC				; ATL::AtlThrowImpl, COMDAT

; 69   : {

  00000	55		 push	 ebp
  00001	8b ec		 mov	 ebp, esp

; 70   : 	ATLTRACE(atlTraceException, 0, _T("AtlThrow: hr = 0x%x\n"), hr );
; 71   : #ifdef _AFX
; 72   : 	if( hr == E_OUTOFMEMORY )

  00003	8b 45 08	 mov	 eax, DWORD PTR _hr$[ebp]
  00006	3d 0e 00 07 80	 cmp	 eax, -2147024882	; 8007000eH
  0000b	75 05		 jne	 SHORT $LN2@AtlThrowIm

; 73   : 	{
; 74   : 		AfxThrowMemoryException();

  0000d	e8 00 00 00 00	 call	 ?AfxThrowMemoryException@@YGXXZ ; AfxThrowMemoryException
$LN2@AtlThrowIm:

; 75   : 	}
; 76   : 	else
; 77   : 	{
; 78   : 		AfxThrowOleException( hr );

  00012	50		 push	 eax
  00013	e8 00 00 00 00	 call	 ?AfxThrowOleException@@YGXJ@Z ; AfxThrowOleException
$LN5@AtlThrowIm:
  00018	cc		 int	 3
?AtlThrowImpl@ATL@@YGXJ@Z ENDP				; ATL::AtlThrowImpl
_TEXT	ENDS
; Function compile flags: /Ogtp
; File C:\IAGOS\server\v18\Source\Source\_Common\buff.cpp
;	COMDAT ?__empty_global_delete@@YAXPAXI@Z
_TEXT	SEGMENT
___formal$ = 8						; size = 4
___formal$ = 12						; size = 4
?__empty_global_delete@@YAXPAXI@Z PROC			; __empty_global_delete, COMDAT

  00000	c2 00 00	 ret	 0
?__empty_global_delete@@YAXPAXI@Z ENDP			; __empty_global_delete
_TEXT	ENDS
; Function compile flags: /Ogtp
; File C:\IAGOS\server\v18\Source\Source\_Common\buff.cpp
;	COMDAT ?__empty_global_delete@@YAXPAX@Z
_TEXT	SEGMENT
___formal$ = 8						; size = 4
?__empty_global_delete@@YAXPAX@Z PROC			; __empty_global_delete, COMDAT

  00000	c2 00 00	 ret	 0
?__empty_global_delete@@YAXPAX@Z ENDP			; __empty_global_delete
_TEXT	ENDS
END
