; Listing generated by Microsoft (R) Optimizing Compiler Version 19.44.35225.0 

	TITLE	C:\IAGOS\server\v18\Source\Output\WorldServer\Release\buffer.obj
	.686P
	.XMM
	include listing.inc
	.model	flat

INCLUDELIB LIBCMT
INCLUDELIB OLDNAMES

PUBLIC	?__empty_global_delete@@YAXPAX@Z		; __empty_global_delete
PUBLIC	?__empty_global_delete@@YAXPAXI@Z		; __empty_global_delete
PUBLIC	??1CMclCritSec@@UAE@XZ				; CMclCritSec::~CMclCritSec
PUBLIC	??_GCMclCritSec@@UAEPAXI@Z			; CMclCritSec::`scalar deleting destructor'
PUBLIC	??1CMclAutoLock@@QAE@XZ				; CMclAutoLock::~CMclAutoLock
PUBLIC	??0CBuffer@@QAE@K@Z				; CBuffer::CBuffer
PUBLIC	??1CBuffer@@UAE@XZ				; CBuffer::~CBuffer
PUBLIC	?GetPacketSize@CBuffer@@UAEKPAE@Z		; CBuffer::GetPacketSize
PUBLIC	?SetHeader@CBuffer@@UAEXK@Z			; CBuffer::SetHeader
PUBLIC	??_GCBuffer@@UAEPAXI@Z				; CBuffer::`scalar deleting destructor'
PUBLIC	?GetPacketSize@CBuffer2@@UAEKPAE@Z		; CBuffer2::GetPacketSize
PUBLIC	?SetHeader@CBuffer2@@UAEXK@Z			; CBuffer2::SetHeader
PUBLIC	??_GCBuffer2@@UAEPAXI@Z				; CBuffer2::`scalar deleting destructor'
PUBLIC	??0CBufferQueue@@QAE@XZ				; CBufferQueue::CBufferQueue
PUBLIC	??1CBufferQueue@@UAE@XZ				; CBufferQueue::~CBufferQueue
PUBLIC	?AddTail@CBufferQueue@@QAEXPAVCBuffer@@@Z	; CBufferQueue::AddTail
PUBLIC	?Clear@CBufferQueue@@QAEXH@Z			; CBufferQueue::Clear
PUBLIC	?AddData@CBufferQueue@@QAEXPAEKW4BUFFER_TYPE@@@Z ; CBufferQueue::AddData
PUBLIC	?GetData@CBufferQueue@@QAEXPAU_WSABUF@@PAK@Z	; CBufferQueue::GetData
PUBLIC	?RemoveData@CBufferQueue@@QAEXK@Z		; CBufferQueue::RemoveData
PUBLIC	??_GCBufferQueue@@UAEPAXI@Z			; CBufferQueue::`scalar deleting destructor'
PUBLIC	?CreateBuffer@CBufferFactory@@QAEPAVCBuffer@@W4BUFFER_TYPE@@K@Z ; CBufferFactory::CreateBuffer
PUBLIC	?GetInstance@CBufferFactory@@SAAAV1@XZ		; CBufferFactory::GetInstance
PUBLIC	??0CBufferFactory@@AAE@XZ			; CBufferFactory::CBufferFactory
PUBLIC	??_7CMclCritSec@@6B@				; CMclCritSec::`vftable'
PUBLIC	??_R4CMclCritSec@@6B@				; CMclCritSec::`RTTI Complete Object Locator'
PUBLIC	??_R0?AVCMclCritSec@@@8				; CMclCritSec `RTTI Type Descriptor'
PUBLIC	??_R3CMclCritSec@@8				; CMclCritSec::`RTTI Class Hierarchy Descriptor'
PUBLIC	??_R2CMclCritSec@@8				; CMclCritSec::`RTTI Base Class Array'
PUBLIC	??_R1A@?0A@EA@CMclCritSec@@8			; CMclCritSec::`RTTI Base Class Descriptor at (0,-1,0,64)'
PUBLIC	?m_pHeapMng@CBuffer@@2PAVCHeapMng@@A		; CBuffer::m_pHeapMng
PUBLIC	??_7CBuffer@@6B@				; CBuffer::`vftable'
PUBLIC	??_7CBuffer2@@6B@				; CBuffer2::`vftable'
PUBLIC	??_7CBufferQueue@@6B@				; CBufferQueue::`vftable'
PUBLIC	??_C@_0DO@DHIFEDBG@C?3?2IAGOS?2server?2v18?2Source?2Sour@ ; `string'
PUBLIC	??_C@_05DIALNFFA@?$CFs?5?$CFd@			; `string'
PUBLIC	??_R4CBuffer@@6B@				; CBuffer::`RTTI Complete Object Locator'
PUBLIC	??_R0?AVCBuffer@@@8				; CBuffer `RTTI Type Descriptor'
PUBLIC	??_R3CBuffer@@8					; CBuffer::`RTTI Class Hierarchy Descriptor'
PUBLIC	??_R2CBuffer@@8					; CBuffer::`RTTI Base Class Array'
PUBLIC	??_R1A@?0A@EA@CBuffer@@8			; CBuffer::`RTTI Base Class Descriptor at (0,-1,0,64)'
PUBLIC	??_R4CBuffer2@@6B@				; CBuffer2::`RTTI Complete Object Locator'
PUBLIC	??_R0?AVCBuffer2@@@8				; CBuffer2 `RTTI Type Descriptor'
PUBLIC	??_R3CBuffer2@@8				; CBuffer2::`RTTI Class Hierarchy Descriptor'
PUBLIC	??_R2CBuffer2@@8				; CBuffer2::`RTTI Base Class Array'
PUBLIC	??_R1A@?0A@EA@CBuffer2@@8			; CBuffer2::`RTTI Base Class Descriptor at (0,-1,0,64)'
PUBLIC	??_R4CBufferQueue@@6B@				; CBufferQueue::`RTTI Complete Object Locator'
PUBLIC	??_R0?AVCBufferQueue@@@8			; CBufferQueue `RTTI Type Descriptor'
PUBLIC	??_R3CBufferQueue@@8				; CBufferQueue::`RTTI Class Hierarchy Descriptor'
PUBLIC	??_R2CBufferQueue@@8				; CBufferQueue::`RTTI Base Class Array'
PUBLIC	??_R1A@?0A@EA@CBufferQueue@@8			; CBufferQueue::`RTTI Base Class Descriptor at (0,-1,0,64)'
EXTRN	??2@YAPAXI@Z:PROC				; operator new
EXTRN	??3@YAXPAXI@Z:PROC				; operator delete
EXTRN	__imp__InitializeCriticalSection@4:PROC
EXTRN	__imp__EnterCriticalSection@4:PROC
EXTRN	__imp__LeaveCriticalSection@4:PROC
EXTRN	__imp__DeleteCriticalSection@4:PROC
EXTRN	__imp__htons@4:PROC
EXTRN	__imp__ntohs@4:PROC
EXTRN	??_ECMclCritSec@@UAEPAXI@Z:PROC			; CMclCritSec::`vector deleting destructor'
EXTRN	?Error@@YAPBDPBDZZ:PROC				; Error
EXTRN	?Malloc@CHeapMng@@QAEPAXI@Z:PROC		; CHeapMng::Malloc
EXTRN	??0CHeapMng@@QAE@XZ:PROC			; CHeapMng::CHeapMng
EXTRN	?Free@CHeapMng@@QAEXPAX@Z:PROC			; CHeapMng::Free
EXTRN	??_ECBuffer@@UAEPAXI@Z:PROC			; CBuffer::`vector deleting destructor'
EXTRN	??_ECBuffer2@@UAEPAXI@Z:PROC			; CBuffer2::`vector deleting destructor'
EXTRN	??_ECBufferQueue@@UAEPAXI@Z:PROC		; CBufferQueue::`vector deleting destructor'
EXTRN	@__security_check_cookie@4:PROC
EXTRN	___CxxFrameHandler3:PROC
EXTRN	_memcpy:PROC
EXTRN	??_7type_info@@6B@:QWORD			; type_info::`vftable'
EXTRN	___security_cookie:DWORD
EXTRN	__tls_array:DWORD
EXTRN	__tls_index:DWORD
_BSS	SEGMENT
?m_pHeapMng@CBuffer@@2PAVCHeapMng@@A DD 01H DUP (?)	; CBuffer::m_pHeapMng
_BSS	ENDS
;	COMDAT ?g_factory@?1??GetInstance@CBufferFactory@@SAAAV2@XZ@4V2@A
_BSS	SEGMENT
?g_factory@?1??GetInstance@CBufferFactory@@SAAAV2@XZ@4V2@A DB 01H DUP (?) ; `CBufferFactory::GetInstance'::`2'::g_factory
_BSS	ENDS
CRT$XCU	SEGMENT
??m_pHeapMng$initializer$@CBuffer@@2P6AXXZA@@3P6AXXZA DD FLAT:??__E?m_pHeapMng@CBuffer@@2PAVCHeapMng@@A@@YAXXZ ; ??m_pHeapMng$initializer$@CBuffer@@2P6AXXZA@@3P6AXXZA
CRT$XCU	ENDS
;	COMDAT ??_R1A@?0A@EA@CBufferQueue@@8
rdata$r	SEGMENT
??_R1A@?0A@EA@CBufferQueue@@8 DD FLAT:??_R0?AVCBufferQueue@@@8 ; CBufferQueue::`RTTI Base Class Descriptor at (0,-1,0,64)'
	DD	00H
	DD	00H
	DD	0ffffffffH
	DD	00H
	DD	040H
	DD	FLAT:??_R3CBufferQueue@@8
rdata$r	ENDS
;	COMDAT ??_R2CBufferQueue@@8
rdata$r	SEGMENT
??_R2CBufferQueue@@8 DD FLAT:??_R1A@?0A@EA@CBufferQueue@@8 ; CBufferQueue::`RTTI Base Class Array'
rdata$r	ENDS
;	COMDAT ??_R3CBufferQueue@@8
rdata$r	SEGMENT
??_R3CBufferQueue@@8 DD 00H				; CBufferQueue::`RTTI Class Hierarchy Descriptor'
	DD	00H
	DD	01H
	DD	FLAT:??_R2CBufferQueue@@8
rdata$r	ENDS
;	COMDAT ??_R0?AVCBufferQueue@@@8
data$rs	SEGMENT
??_R0?AVCBufferQueue@@@8 DD FLAT:??_7type_info@@6B@	; CBufferQueue `RTTI Type Descriptor'
	DD	00H
	DB	'.?AVCBufferQueue@@', 00H
data$rs	ENDS
;	COMDAT ??_R4CBufferQueue@@6B@
rdata$r	SEGMENT
??_R4CBufferQueue@@6B@ DD 00H				; CBufferQueue::`RTTI Complete Object Locator'
	DD	00H
	DD	00H
	DD	FLAT:??_R0?AVCBufferQueue@@@8
	DD	FLAT:??_R3CBufferQueue@@8
rdata$r	ENDS
;	COMDAT ??_R1A@?0A@EA@CBuffer2@@8
rdata$r	SEGMENT
??_R1A@?0A@EA@CBuffer2@@8 DD FLAT:??_R0?AVCBuffer2@@@8	; CBuffer2::`RTTI Base Class Descriptor at (0,-1,0,64)'
	DD	01H
	DD	00H
	DD	0ffffffffH
	DD	00H
	DD	040H
	DD	FLAT:??_R3CBuffer2@@8
rdata$r	ENDS
;	COMDAT ??_R2CBuffer2@@8
rdata$r	SEGMENT
??_R2CBuffer2@@8 DD FLAT:??_R1A@?0A@EA@CBuffer2@@8	; CBuffer2::`RTTI Base Class Array'
	DD	FLAT:??_R1A@?0A@EA@CBuffer@@8
rdata$r	ENDS
;	COMDAT ??_R3CBuffer2@@8
rdata$r	SEGMENT
??_R3CBuffer2@@8 DD 00H					; CBuffer2::`RTTI Class Hierarchy Descriptor'
	DD	00H
	DD	02H
	DD	FLAT:??_R2CBuffer2@@8
rdata$r	ENDS
;	COMDAT ??_R0?AVCBuffer2@@@8
data$rs	SEGMENT
??_R0?AVCBuffer2@@@8 DD FLAT:??_7type_info@@6B@		; CBuffer2 `RTTI Type Descriptor'
	DD	00H
	DB	'.?AVCBuffer2@@', 00H
data$rs	ENDS
;	COMDAT ??_R4CBuffer2@@6B@
rdata$r	SEGMENT
??_R4CBuffer2@@6B@ DD 00H				; CBuffer2::`RTTI Complete Object Locator'
	DD	00H
	DD	00H
	DD	FLAT:??_R0?AVCBuffer2@@@8
	DD	FLAT:??_R3CBuffer2@@8
rdata$r	ENDS
;	COMDAT ??_R1A@?0A@EA@CBuffer@@8
rdata$r	SEGMENT
??_R1A@?0A@EA@CBuffer@@8 DD FLAT:??_R0?AVCBuffer@@@8	; CBuffer::`RTTI Base Class Descriptor at (0,-1,0,64)'
	DD	00H
	DD	00H
	DD	0ffffffffH
	DD	00H
	DD	040H
	DD	FLAT:??_R3CBuffer@@8
rdata$r	ENDS
;	COMDAT ??_R2CBuffer@@8
rdata$r	SEGMENT
??_R2CBuffer@@8 DD FLAT:??_R1A@?0A@EA@CBuffer@@8	; CBuffer::`RTTI Base Class Array'
rdata$r	ENDS
;	COMDAT ??_R3CBuffer@@8
rdata$r	SEGMENT
??_R3CBuffer@@8 DD 00H					; CBuffer::`RTTI Class Hierarchy Descriptor'
	DD	00H
	DD	01H
	DD	FLAT:??_R2CBuffer@@8
rdata$r	ENDS
;	COMDAT ??_R0?AVCBuffer@@@8
data$rs	SEGMENT
??_R0?AVCBuffer@@@8 DD FLAT:??_7type_info@@6B@		; CBuffer `RTTI Type Descriptor'
	DD	00H
	DB	'.?AVCBuffer@@', 00H
data$rs	ENDS
;	COMDAT ??_R4CBuffer@@6B@
rdata$r	SEGMENT
??_R4CBuffer@@6B@ DD 00H				; CBuffer::`RTTI Complete Object Locator'
	DD	00H
	DD	00H
	DD	FLAT:??_R0?AVCBuffer@@@8
	DD	FLAT:??_R3CBuffer@@8
rdata$r	ENDS
;	COMDAT ??_C@_05DIALNFFA@?$CFs?5?$CFd@
CONST	SEGMENT
??_C@_05DIALNFFA@?$CFs?5?$CFd@ DB '%s %d', 00H		; `string'
CONST	ENDS
;	COMDAT ??_C@_0DO@DHIFEDBG@C?3?2IAGOS?2server?2v18?2Source?2Sour@
CONST	SEGMENT
??_C@_0DO@DHIFEDBG@C?3?2IAGOS?2server?2v18?2Source?2Sour@ DB 'C:\IAGOS\se'
	DB	'rver\v18\Source\Source\_network\net\src\buffer.cpp', 00H ; `string'
CONST	ENDS
;	COMDAT ??_7CBufferQueue@@6B@
CONST	SEGMENT
??_7CBufferQueue@@6B@ DD FLAT:??_R4CBufferQueue@@6B@	; CBufferQueue::`vftable'
	DD	FLAT:??_ECBufferQueue@@UAEPAXI@Z
CONST	ENDS
;	COMDAT ??_7CBuffer2@@6B@
CONST	SEGMENT
??_7CBuffer2@@6B@ DD FLAT:??_R4CBuffer2@@6B@		; CBuffer2::`vftable'
	DD	FLAT:??_ECBuffer2@@UAEPAXI@Z
	DD	FLAT:?GetPacketSize@CBuffer2@@UAEKPAE@Z
	DD	FLAT:?SetHeader@CBuffer2@@UAEXK@Z
CONST	ENDS
;	COMDAT ??_7CBuffer@@6B@
CONST	SEGMENT
??_7CBuffer@@6B@ DD FLAT:??_R4CBuffer@@6B@		; CBuffer::`vftable'
	DD	FLAT:??_ECBuffer@@UAEPAXI@Z
	DD	FLAT:?GetPacketSize@CBuffer@@UAEKPAE@Z
	DD	FLAT:?SetHeader@CBuffer@@UAEXK@Z
CONST	ENDS
;	COMDAT ??_R1A@?0A@EA@CMclCritSec@@8
rdata$r	SEGMENT
??_R1A@?0A@EA@CMclCritSec@@8 DD FLAT:??_R0?AVCMclCritSec@@@8 ; CMclCritSec::`RTTI Base Class Descriptor at (0,-1,0,64)'
	DD	00H
	DD	00H
	DD	0ffffffffH
	DD	00H
	DD	040H
	DD	FLAT:??_R3CMclCritSec@@8
rdata$r	ENDS
;	COMDAT ??_R2CMclCritSec@@8
rdata$r	SEGMENT
??_R2CMclCritSec@@8 DD FLAT:??_R1A@?0A@EA@CMclCritSec@@8 ; CMclCritSec::`RTTI Base Class Array'
rdata$r	ENDS
;	COMDAT ??_R3CMclCritSec@@8
rdata$r	SEGMENT
??_R3CMclCritSec@@8 DD 00H				; CMclCritSec::`RTTI Class Hierarchy Descriptor'
	DD	00H
	DD	01H
	DD	FLAT:??_R2CMclCritSec@@8
rdata$r	ENDS
;	COMDAT ??_R0?AVCMclCritSec@@@8
data$rs	SEGMENT
??_R0?AVCMclCritSec@@@8 DD FLAT:??_7type_info@@6B@	; CMclCritSec `RTTI Type Descriptor'
	DD	00H
	DB	'.?AVCMclCritSec@@', 00H
data$rs	ENDS
;	COMDAT ??_R4CMclCritSec@@6B@
rdata$r	SEGMENT
??_R4CMclCritSec@@6B@ DD 00H				; CMclCritSec::`RTTI Complete Object Locator'
	DD	00H
	DD	00H
	DD	FLAT:??_R0?AVCMclCritSec@@@8
	DD	FLAT:??_R3CMclCritSec@@8
rdata$r	ENDS
;	COMDAT ??_7CMclCritSec@@6B@
CONST	SEGMENT
??_7CMclCritSec@@6B@ DD FLAT:??_R4CMclCritSec@@6B@	; CMclCritSec::`vftable'
	DD	FLAT:??_ECMclCritSec@@UAEPAXI@Z
CONST	ENDS
;	COMDAT xdata$x
xdata$x	SEGMENT
__unwindtable$??__E?m_pHeapMng@CBuffer@@2PAVCHeapMng@@A@@YAXXZ DD 0ffffffffH
	DD	FLAT:__unwindfunclet$??__E?m_pHeapMng@CBuffer@@2PAVCHeapMng@@A@@YAXXZ$0
__ehfuncinfo$??__E?m_pHeapMng@CBuffer@@2PAVCHeapMng@@A@@YAXXZ DD 019930522H
	DD	01H
	DD	FLAT:__unwindtable$??__E?m_pHeapMng@CBuffer@@2PAVCHeapMng@@A@@YAXXZ
	DD	2 DUP(00H)
	DD	2 DUP(00H)
	DD	00H
	DD	01H
xdata$x	ENDS
;	COMDAT xdata$x
xdata$x	SEGMENT
__unwindtable$?CreateBuffer@CBufferFactory@@QAEPAVCBuffer@@W4BUFFER_TYPE@@K@Z DD 0ffffffffH
	DD	FLAT:__unwindfunclet$?CreateBuffer@CBufferFactory@@QAEPAVCBuffer@@W4BUFFER_TYPE@@K@Z$0
	DD	0ffffffffH
	DD	FLAT:__unwindfunclet$?CreateBuffer@CBufferFactory@@QAEPAVCBuffer@@W4BUFFER_TYPE@@K@Z$1
__ehfuncinfo$?CreateBuffer@CBufferFactory@@QAEPAVCBuffer@@W4BUFFER_TYPE@@K@Z DD 019930522H
	DD	02H
	DD	FLAT:__unwindtable$?CreateBuffer@CBufferFactory@@QAEPAVCBuffer@@W4BUFFER_TYPE@@K@Z
	DD	2 DUP(00H)
	DD	2 DUP(00H)
	DD	00H
	DD	01H
xdata$x	ENDS
;	COMDAT xdata$x
xdata$x	SEGMENT
__unwindtable$?Clear@CBufferQueue@@QAEXH@Z DD 0ffffffffH
	DD	FLAT:__unwindfunclet$?Clear@CBufferQueue@@QAEXH@Z$0
__ehfuncinfo$?Clear@CBufferQueue@@QAEXH@Z DD 019930522H
	DD	01H
	DD	FLAT:__unwindtable$?Clear@CBufferQueue@@QAEXH@Z
	DD	2 DUP(00H)
	DD	2 DUP(00H)
	DD	00H
	DD	01H
xdata$x	ENDS
;	COMDAT xdata$x
xdata$x	SEGMENT
__ehfuncinfo$??1CBufferQueue@@UAE@XZ DD 019930522H
	DD	00H
	DD	00H
	DD	2 DUP(00H)
	DD	2 DUP(00H)
	DD	00H
	DD	05H
xdata$x	ENDS
;	COMDAT xdata$x
xdata$x	SEGMENT
__ehfuncinfo$??1CBuffer@@UAE@XZ DD 019930522H
	DD	00H
	DD	00H
	DD	2 DUP(00H)
	DD	2 DUP(00H)
	DD	00H
	DD	05H
xdata$x	ENDS
; Function compile flags: /Ogtp
; File C:\IAGOS\server\v18\Source\Source\_network\net\src\buffer.cpp
;	COMDAT ??__E?m_pHeapMng@CBuffer@@2PAVCHeapMng@@A@@YAXXZ
text$di	SEGMENT
$T2 = -16						; size = 4
__$EHRec$ = -12						; size = 12
??__E?m_pHeapMng@CBuffer@@2PAVCHeapMng@@A@@YAXXZ PROC	; `dynamic initializer for 'CBuffer::m_pHeapMng'', COMDAT

; 34   : CHeapMng*	CBuffer::m_pHeapMng		= new CHeapMng;

  00000	55		 push	 ebp
  00001	8b ec		 mov	 ebp, esp
  00003	6a ff		 push	 -1
  00005	68 00 00 00 00	 push	 __ehhandler$??__E?m_pHeapMng@CBuffer@@2PAVCHeapMng@@A@@YAXXZ
  0000a	64 a1 00 00 00
	00		 mov	 eax, DWORD PTR fs:0
  00010	50		 push	 eax
  00011	51		 push	 ecx
  00012	a1 00 00 00 00	 mov	 eax, DWORD PTR ___security_cookie
  00017	33 c5		 xor	 eax, ebp
  00019	50		 push	 eax
  0001a	8d 45 f4	 lea	 eax, DWORD PTR __$EHRec$[ebp]
  0001d	64 a3 00 00 00
	00		 mov	 DWORD PTR fs:0, eax
  00023	6a 08		 push	 8
  00025	e8 00 00 00 00	 call	 ??2@YAPAXI@Z		; operator new
  0002a	83 c4 04	 add	 esp, 4
  0002d	89 45 f0	 mov	 DWORD PTR $T2[ebp], eax
  00030	c7 45 fc 00 00
	00 00		 mov	 DWORD PTR __$EHRec$[ebp+8], 0
  00037	85 c0		 test	 eax, eax
  00039	74 1b		 je	 SHORT $LN3@m_pHeapMng
  0003b	8b c8		 mov	 ecx, eax
  0003d	e8 00 00 00 00	 call	 ??0CHeapMng@@QAE@XZ	; CHeapMng::CHeapMng
  00042	a3 00 00 00 00	 mov	 DWORD PTR ?m_pHeapMng@CBuffer@@2PAVCHeapMng@@A, eax ; CBuffer::m_pHeapMng
  00047	8b 4d f4	 mov	 ecx, DWORD PTR __$EHRec$[ebp]
  0004a	64 89 0d 00 00
	00 00		 mov	 DWORD PTR fs:0, ecx
  00051	59		 pop	 ecx
  00052	8b e5		 mov	 esp, ebp
  00054	5d		 pop	 ebp
  00055	c3		 ret	 0
$LN3@m_pHeapMng:
  00056	c7 05 00 00 00
	00 00 00 00 00	 mov	 DWORD PTR ?m_pHeapMng@CBuffer@@2PAVCHeapMng@@A, 0 ; CBuffer::m_pHeapMng
  00060	8b 4d f4	 mov	 ecx, DWORD PTR __$EHRec$[ebp]
  00063	64 89 0d 00 00
	00 00		 mov	 DWORD PTR fs:0, ecx
  0006a	59		 pop	 ecx
  0006b	8b e5		 mov	 esp, ebp
  0006d	5d		 pop	 ebp
  0006e	c3		 ret	 0
text$di	ENDS
;	COMDAT text$x
text$x	SEGMENT
__unwindfunclet$??__E?m_pHeapMng@CBuffer@@2PAVCHeapMng@@A@@YAXXZ$0:
  00000	6a 08		 push	 8
  00002	8b 45 f0	 mov	 eax, DWORD PTR $T2[ebp]
  00005	50		 push	 eax
  00006	e8 00 00 00 00	 call	 ??3@YAXPAXI@Z		; operator delete
  0000b	83 c4 08	 add	 esp, 8
  0000e	c3		 ret	 0
  0000f	cc		 int	 3
  00010	cc		 int	 3
  00011	cc		 int	 3
  00012	cc		 int	 3
  00013	cc		 int	 3
__ehhandler$??__E?m_pHeapMng@CBuffer@@2PAVCHeapMng@@A@@YAXXZ:
  00014	90		 npad	 1
  00015	90		 npad	 1
  00016	8b 54 24 08	 mov	 edx, DWORD PTR [esp+8]
  0001a	8d 42 0c	 lea	 eax, DWORD PTR [edx+12]
  0001d	8b 4a f8	 mov	 ecx, DWORD PTR [edx-8]
  00020	33 c8		 xor	 ecx, eax
  00022	e8 00 00 00 00	 call	 @__security_check_cookie@4
  00027	b8 00 00 00 00	 mov	 eax, OFFSET __ehfuncinfo$??__E?m_pHeapMng@CBuffer@@2PAVCHeapMng@@A@@YAXXZ
  0002c	e9 00 00 00 00	 jmp	 ___CxxFrameHandler3
text$x	ENDS
??__E?m_pHeapMng@CBuffer@@2PAVCHeapMng@@A@@YAXXZ ENDP	; `dynamic initializer for 'CBuffer::m_pHeapMng''
; Function compile flags: /Ogtp
; File C:\IAGOS\server\v18\Source\Source\_network\net\src\buffer.cpp
;	COMDAT ??0CBufferFactory@@AAE@XZ
_TEXT	SEGMENT
??0CBufferFactory@@AAE@XZ PROC				; CBufferFactory::CBufferFactory, COMDAT
; _this$ = ecx

; 271  : }

  00000	8b c1		 mov	 eax, ecx
  00002	c3		 ret	 0
??0CBufferFactory@@AAE@XZ ENDP				; CBufferFactory::CBufferFactory
_TEXT	ENDS
; Function compile flags: /Ogtp
; File C:\IAGOS\server\v18\Source\Source\_network\net\src\buffer.cpp
;	COMDAT ?GetInstance@CBufferFactory@@SAAAV1@XZ
_TEXT	SEGMENT
?GetInstance@CBufferFactory@@SAAAV1@XZ PROC		; CBufferFactory::GetInstance, COMDAT

; 275  : 	static CBufferFactory g_factory;
; 276  : 	return g_factory;

  00000	b8 00 00 00 00	 mov	 eax, OFFSET ?g_factory@?1??GetInstance@CBufferFactory@@SAAAV2@XZ@4V2@A

; 277  : }

  00005	c3		 ret	 0
?GetInstance@CBufferFactory@@SAAAV1@XZ ENDP		; CBufferFactory::GetInstance
_TEXT	ENDS
; Function compile flags: /Ogtp
; File C:\IAGOS\server\v18\Source\Source\_network\net\src\buffer.cpp
; File C:\IAGOS\server\v18\Source\Source\_Network\Net\Include\buffer.h
; File C:\IAGOS\server\v18\Source\Source\_network\net\src\buffer.cpp
; File C:\IAGOS\server\v18\Source\Source\_Network\Net\Include\buffer.h
; File C:\IAGOS\server\v18\Source\Source\_network\net\src\buffer.cpp
;	COMDAT ?CreateBuffer@CBufferFactory@@QAEPAVCBuffer@@W4BUFFER_TYPE@@K@Z
_TEXT	SEGMENT
__$EHRec$ = -12						; size = 12
_type$ = 8						; size = 4
$T2 = 8							; size = 4
$T3 = 8							; size = 4
_uBufSize$ = 12						; size = 4
?CreateBuffer@CBufferFactory@@QAEPAVCBuffer@@W4BUFFER_TYPE@@K@Z PROC ; CBufferFactory::CreateBuffer, COMDAT
; _this$ = ecx

; 280  : {

  00000	55		 push	 ebp
  00001	8b ec		 mov	 ebp, esp
  00003	6a ff		 push	 -1
  00005	68 00 00 00 00	 push	 __ehhandler$?CreateBuffer@CBufferFactory@@QAEPAVCBuffer@@W4BUFFER_TYPE@@K@Z
  0000a	64 a1 00 00 00
	00		 mov	 eax, DWORD PTR fs:0
  00010	50		 push	 eax
  00011	56		 push	 esi
  00012	a1 00 00 00 00	 mov	 eax, DWORD PTR ___security_cookie
  00017	33 c5		 xor	 eax, ebp
  00019	50		 push	 eax
  0001a	8d 45 f4	 lea	 eax, DWORD PTR __$EHRec$[ebp]
  0001d	64 a3 00 00 00
	00		 mov	 DWORD PTR fs:0, eax

; 281  : 	CBuffer* pBuffer = NULL;
; 282  : 	switch( type )

  00023	8b 45 08	 mov	 eax, DWORD PTR _type$[ebp]
  00026	83 e8 00	 sub	 eax, 0
  00029	74 6a		 je	 SHORT $LN4@CreateBuff
  0002b	83 e8 01	 sub	 eax, 1
  0002e	0f 85 98 00 00
	00		 jne	 $LN8@CreateBuff

; 286  : 		break;
; 287  : 	case BUFFER_TYPE_2BYTE:
; 288  : 		pBuffer = new CBuffer2( uBufSize );

  00034	68 28 20 00 00	 push	 8232			; 00002028H
  00039	e8 00 00 00 00	 call	 ??2@YAPAXI@Z		; operator new
  0003e	8b f0		 mov	 esi, eax
  00040	83 c4 04	 add	 esp, 4
  00043	89 75 08	 mov	 DWORD PTR $T3[ebp], esi
  00046	c7 45 fc 01 00
	00 00		 mov	 DWORD PTR __$EHRec$[ebp+8], 1
  0004d	85 f6		 test	 esi, esi
  0004f	74 2e		 je	 SHORT $LN10@CreateBuff
; File C:\IAGOS\server\v18\Source\Source\_Network\Net\Include\buffer.h

; 131  : 	CBuffer2( u_long uBufSize ) : CBuffer( uBufSize ) 

  00051	ff 75 0c	 push	 DWORD PTR _uBufSize$[ebp]
  00054	8b ce		 mov	 ecx, esi
  00056	e8 00 00 00 00	 call	 ??0CBuffer@@QAE@K@Z	; CBuffer::CBuffer

; 132  : 	{

  0005b	c7 06 00 00 00
	00		 mov	 DWORD PTR [esi], OFFSET ??_7CBuffer2@@6B@
; File C:\IAGOS\server\v18\Source\Source\_network\net\src\buffer.cpp

; 294  : 	return pBuffer;

  00061	8b c6		 mov	 eax, esi
; File C:\IAGOS\server\v18\Source\Source\_Network\Net\Include\buffer.h

; 133  : 		m_dwHeaderSize = 2;

  00063	c7 86 24 20 00
	00 02 00 00 00	 mov	 DWORD PTR [esi+8228], 2
; File C:\IAGOS\server\v18\Source\Source\_network\net\src\buffer.cpp

; 295  : }

  0006d	8b 4d f4	 mov	 ecx, DWORD PTR __$EHRec$[ebp]
  00070	64 89 0d 00 00
	00 00		 mov	 DWORD PTR fs:0, ecx
  00077	59		 pop	 ecx
  00078	5e		 pop	 esi
  00079	8b e5		 mov	 esp, ebp
  0007b	5d		 pop	 ebp
  0007c	c2 08 00	 ret	 8
$LN10@CreateBuff:

; 286  : 		break;
; 287  : 	case BUFFER_TYPE_2BYTE:
; 288  : 		pBuffer = new CBuffer2( uBufSize );

  0007f	33 f6		 xor	 esi, esi

; 294  : 	return pBuffer;

  00081	8b c6		 mov	 eax, esi

; 295  : }

  00083	8b 4d f4	 mov	 ecx, DWORD PTR __$EHRec$[ebp]
  00086	64 89 0d 00 00
	00 00		 mov	 DWORD PTR fs:0, ecx
  0008d	59		 pop	 ecx
  0008e	5e		 pop	 esi
  0008f	8b e5		 mov	 esp, ebp
  00091	5d		 pop	 ebp
  00092	c2 08 00	 ret	 8
$LN4@CreateBuff:

; 283  : 	{
; 284  : 	case BUFFER_TYPE_5BYTE:
; 285  : 		pBuffer = new CBuffer( uBufSize );

  00095	68 28 20 00 00	 push	 8232			; 00002028H
  0009a	e8 00 00 00 00	 call	 ??2@YAPAXI@Z		; operator new
  0009f	83 c4 04	 add	 esp, 4
  000a2	89 45 08	 mov	 DWORD PTR $T2[ebp], eax
  000a5	c7 45 fc 00 00
	00 00		 mov	 DWORD PTR __$EHRec$[ebp+8], 0
  000ac	85 c0		 test	 eax, eax
  000ae	74 1c		 je	 SHORT $LN8@CreateBuff
  000b0	ff 75 0c	 push	 DWORD PTR _uBufSize$[ebp]
  000b3	8b c8		 mov	 ecx, eax
  000b5	e8 00 00 00 00	 call	 ??0CBuffer@@QAE@K@Z	; CBuffer::CBuffer

; 295  : }

  000ba	8b 4d f4	 mov	 ecx, DWORD PTR __$EHRec$[ebp]
  000bd	64 89 0d 00 00
	00 00		 mov	 DWORD PTR fs:0, ecx
  000c4	59		 pop	 ecx
  000c5	5e		 pop	 esi
  000c6	8b e5		 mov	 esp, ebp
  000c8	5d		 pop	 ebp
  000c9	c2 08 00	 ret	 8
$LN8@CreateBuff:
  000cc	33 c0		 xor	 eax, eax
  000ce	8b 4d f4	 mov	 ecx, DWORD PTR __$EHRec$[ebp]
  000d1	64 89 0d 00 00
	00 00		 mov	 DWORD PTR fs:0, ecx
  000d8	59		 pop	 ecx
  000d9	5e		 pop	 esi
  000da	8b e5		 mov	 esp, ebp
  000dc	5d		 pop	 ebp
  000dd	c2 08 00	 ret	 8
_TEXT	ENDS
;	COMDAT text$x
text$x	SEGMENT
__unwindfunclet$?CreateBuffer@CBufferFactory@@QAEPAVCBuffer@@W4BUFFER_TYPE@@K@Z$1:
  00000	68 28 20 00 00	 push	 8232			; 00002028H
  00005	8b 45 08	 mov	 eax, DWORD PTR $T3[ebp]
  00008	50		 push	 eax
  00009	e8 00 00 00 00	 call	 ??3@YAXPAXI@Z		; operator delete
  0000e	83 c4 08	 add	 esp, 8
  00011	c3		 ret	 0
__unwindfunclet$?CreateBuffer@CBufferFactory@@QAEPAVCBuffer@@W4BUFFER_TYPE@@K@Z$0:
  00012	68 28 20 00 00	 push	 8232			; 00002028H
  00017	8b 45 08	 mov	 eax, DWORD PTR $T2[ebp]
  0001a	50		 push	 eax
  0001b	e8 00 00 00 00	 call	 ??3@YAXPAXI@Z		; operator delete
  00020	83 c4 08	 add	 esp, 8
  00023	c3		 ret	 0
  00024	cc		 int	 3
  00025	cc		 int	 3
  00026	cc		 int	 3
  00027	cc		 int	 3
  00028	cc		 int	 3
__ehhandler$?CreateBuffer@CBufferFactory@@QAEPAVCBuffer@@W4BUFFER_TYPE@@K@Z:
  00029	90		 npad	 1
  0002a	90		 npad	 1
  0002b	8b 54 24 08	 mov	 edx, DWORD PTR [esp+8]
  0002f	8d 42 0c	 lea	 eax, DWORD PTR [edx+12]
  00032	8b 4a f8	 mov	 ecx, DWORD PTR [edx-8]
  00035	33 c8		 xor	 ecx, eax
  00037	e8 00 00 00 00	 call	 @__security_check_cookie@4
  0003c	b8 00 00 00 00	 mov	 eax, OFFSET __ehfuncinfo$?CreateBuffer@CBufferFactory@@QAEPAVCBuffer@@W4BUFFER_TYPE@@K@Z
  00041	e9 00 00 00 00	 jmp	 ___CxxFrameHandler3
text$x	ENDS
?CreateBuffer@CBufferFactory@@QAEPAVCBuffer@@W4BUFFER_TYPE@@K@Z ENDP ; CBufferFactory::CreateBuffer
; Function compile flags: /Ogtp
;	COMDAT ??_GCBufferQueue@@UAEPAXI@Z
_TEXT	SEGMENT
___flags$ = 8						; size = 4
??_GCBufferQueue@@UAEPAXI@Z PROC			; CBufferQueue::`scalar deleting destructor', COMDAT
; _this$ = ecx
  00000	55		 push	 ebp
  00001	8b ec		 mov	 ebp, esp
  00003	56		 push	 esi
  00004	8b f1		 mov	 esi, ecx
  00006	e8 00 00 00 00	 call	 ??1CBufferQueue@@UAE@XZ	; CBufferQueue::~CBufferQueue
  0000b	f6 45 08 01	 test	 BYTE PTR ___flags$[ebp], 1
  0000f	74 0b		 je	 SHORT $LN5@scalar
  00011	6a 2c		 push	 44			; 0000002cH
  00013	56		 push	 esi
  00014	e8 00 00 00 00	 call	 ??3@YAXPAXI@Z		; operator delete
  00019	83 c4 08	 add	 esp, 8
$LN5@scalar:
  0001c	8b c6		 mov	 eax, esi
  0001e	5e		 pop	 esi
  0001f	5d		 pop	 ebp
  00020	c2 04 00	 ret	 4
??_GCBufferQueue@@UAEPAXI@Z ENDP			; CBufferQueue::`scalar deleting destructor'
_TEXT	ENDS
; Function compile flags: /Ogtp
; File C:\IAGOS\server\v18\Source\Source\_network\net\src\buffer.cpp
; File C:\IAGOS\server\v18\Source\Source\_Network\Net\Include\buffer.h
; File C:\IAGOS\server\v18\Source\Source\_network\net\src\buffer.cpp
; File C:\IAGOS\server\v18\Source\Source\_Network\Net\Include\buffer.h
; File C:\IAGOS\server\v18\Source\Source\_network\net\src\buffer.cpp
;	COMDAT ?RemoveData@CBufferQueue@@QAEXK@Z
_TEXT	SEGMENT
_uRemnant$1$ = -12					; size = 4
tv303 = -8						; size = 4
_this$1$ = -4						; size = 4
_uDataSize$ = 8						; size = 4
?RemoveData@CBufferQueue@@QAEXK@Z PROC			; CBufferQueue::RemoveData, COMDAT
; _this$ = ecx

; 219  : {

  00000	55		 push	 ebp
  00001	8b ec		 mov	 ebp, esp
  00003	83 ec 0c	 sub	 esp, 12			; 0000000cH
  00006	53		 push	 ebx

; 220  : 	CBuffer* pBuffer;
; 221  : 	
; 222  : //	CMclAutoLock	Lock( m_cs );
; 223  : 	u_long uRemnant;
; 224  : 
; 225  : 	INIT_LOOP;
; 226  : 	while( uDataSize > 0 )

  00007	8b 5d 08	 mov	 ebx, DWORD PTR _uDataSize$[ebp]
  0000a	56		 push	 esi
  0000b	57		 push	 edi
  0000c	8b f1		 mov	 esi, ecx
  0000e	33 ff		 xor	 edi, edi
  00010	89 75 fc	 mov	 DWORD PTR _this$1$[ebp], esi
  00013	85 db		 test	 ebx, ebx
  00015	0f 84 b8 00 00
	00		 je	 $LN21@RemoveData
  0001b	0f 1f 44 00 00	 npad	 5
$LL2@RemoveData:

; 227  : 	{
; 228  : 		VERIFY_LOOP( __FILE__, __LINE__ );

  00020	47		 inc	 edi
  00021	81 ff e8 03 00
	00		 cmp	 edi, 1000		; 000003e8H
  00027	75 17		 jne	 SHORT $LN4@RemoveData
  00029	68 e4 00 00 00	 push	 228			; 000000e4H
  0002e	68 00 00 00 00	 push	 OFFSET ??_C@_0DO@DHIFEDBG@C?3?2IAGOS?2server?2v18?2Source?2Sour@
  00033	68 00 00 00 00	 push	 OFFSET ??_C@_05DIALNFFA@?$CFs?5?$CFd@
  00038	e8 00 00 00 00	 call	 ?Error@@YAPBDPBDZZ	; Error
  0003d	83 c4 0c	 add	 esp, 12			; 0000000cH
$LN4@RemoveData:

; 229  : 
; 230  : 		pBuffer	= GetHead();

  00040	8b 4e 04	 mov	 ecx, DWORD PTR [esi+4]

; 231  : //		ASSERT( pBuffer );
; 232  : 		if( NULL == pBuffer )

  00043	85 c9		 test	 ecx, ecx
  00045	0f 84 88 00 00
	00		 je	 $LN21@RemoveData
; File C:\IAGOS\server\v18\Source\Source\_Network\Net\Include\buffer.h

; 121  : 	return (int)( m_pTail - m_pHead );	

  0004b	8b 81 18 20 00
	00		 mov	 eax, DWORD PTR [ecx+8216]
  00051	8b 91 14 20 00
	00		 mov	 edx, DWORD PTR [ecx+8212]
  00057	2b c2		 sub	 eax, edx
  00059	89 45 f4	 mov	 DWORD PTR _uRemnant$1$[ebp], eax
; File C:\IAGOS\server\v18\Source\Source\_network\net\src\buffer.cpp

; 236  : 		if( uRemnant > uDataSize )

  0005c	3b c3		 cmp	 eax, ebx
  0005e	77 6a		 ja	 SHORT $LN24@RemoveData
; File C:\IAGOS\server\v18\Source\Source\_Network\Net\Include\buffer.h

; 222  : 	{	return( m_uCount == 0 );	}

  00060	8b 5e 0c	 mov	 ebx, DWORD PTR [esi+12]
  00063	8d 56 0c	 lea	 edx, DWORD PTR [esi+12]
  00066	85 db		 test	 ebx, ebx

; 240  : 	if( !IsEmpty() )

  00068	74 3d		 je	 SHORT $LN14@RemoveData

; 241  : 	{
; 242  : 		if( m_pTail == m_pHead )

  0006a	8b c2		 mov	 eax, edx
  0006c	39 4e 08	 cmp	 DWORD PTR [esi+8], ecx
  0006f	75 0a		 jne	 SHORT $LN15@RemoveData

; 243  : 			m_pTail	= NULL;

  00071	c7 46 08 00 00
	00 00		 mov	 DWORD PTR [esi+8], 0
  00078	8d 46 0c	 lea	 eax, DWORD PTR [esi+12]
$LN15@RemoveData:

; 244  : 		if( m_pHead->pNext )

  0007b	83 b9 1c 20 00
	00 00		 cmp	 DWORD PTR [ecx+8220], 0
  00082	8b 75 fc	 mov	 esi, DWORD PTR _this$1$[ebp]
  00085	74 14		 je	 SHORT $LN25@RemoveData

; 245  : 			m_pHead->pNext->pPrevious	= NULL;

  00087	8b 99 1c 20 00
	00		 mov	 ebx, DWORD PTR [ecx+8220]
  0008d	c7 83 20 20 00
	00 00 00 00 00	 mov	 DWORD PTR [ebx+8224], 0
  00097	8b 1a		 mov	 ebx, DWORD PTR [edx]
  00099	8b d0		 mov	 edx, eax
$LN25@RemoveData:

; 246  : 		m_pHead		= m_pHead->pNext;

  0009b	8b 46 04	 mov	 eax, DWORD PTR [esi+4]
  0009e	8b 80 1c 20 00
	00		 mov	 eax, DWORD PTR [eax+8220]
  000a4	89 46 04	 mov	 DWORD PTR [esi+4], eax
$LN14@RemoveData:

; 247  : 	}
; 248  : 	m_uCount--;

  000a7	8d 43 ff	 lea	 eax, DWORD PTR [ebx-1]
  000aa	89 02		 mov	 DWORD PTR [edx], eax
; File C:\IAGOS\server\v18\Source\Source\_network\net\src\buffer.cpp

; 245  : 			safe_delete( pBuffer );

  000ac	8b 01		 mov	 eax, DWORD PTR [ecx]
  000ae	6a 01		 push	 1
  000b0	ff 10		 call	 DWORD PTR [eax]

; 246  : 			uDataSize	-= uRemnant;

  000b2	8b 5d 08	 mov	 ebx, DWORD PTR _uDataSize$[ebp]
  000b5	2b 5d f4	 sub	 ebx, DWORD PTR _uRemnant$1$[ebp]
  000b8	89 5d 08	 mov	 DWORD PTR _uDataSize$[ebp], ebx
  000bb	0f 85 5f ff ff
	ff		 jne	 $LL2@RemoveData

; 247  : 		}
; 248  : 	}
; 249  : }

  000c1	5f		 pop	 edi
  000c2	5e		 pop	 esi
  000c3	5b		 pop	 ebx
  000c4	8b e5		 mov	 esp, ebp
  000c6	5d		 pop	 ebp
  000c7	c2 04 00	 ret	 4
$LN24@RemoveData:

; 237  : 		{
; 238  : 			pBuffer->m_pHead	+= uDataSize;

  000ca	8d 04 1a	 lea	 eax, DWORD PTR [edx+ebx]
  000cd	89 81 14 20 00
	00		 mov	 DWORD PTR [ecx+8212], eax
$LN21@RemoveData:

; 247  : 		}
; 248  : 	}
; 249  : }

  000d3	5f		 pop	 edi
  000d4	5e		 pop	 esi
  000d5	5b		 pop	 ebx
  000d6	8b e5		 mov	 esp, ebp
  000d8	5d		 pop	 ebp
  000d9	c2 04 00	 ret	 4
?RemoveData@CBufferQueue@@QAEXK@Z ENDP			; CBufferQueue::RemoveData
_TEXT	ENDS
; Function compile flags: /Ogtp
; File C:\IAGOS\server\v18\Source\Source\_network\net\src\buffer.cpp
; File C:\IAGOS\server\v18\Source\Source\_Network\Net\Include\buffer.h
; File C:\IAGOS\server\v18\Source\Source\_network\net\src\buffer.cpp
;	COMDAT ?GetData@CBufferQueue@@QAEXPAU_WSABUF@@PAK@Z
_TEXT	SEGMENT
_lpBuffers$ = 8						; size = 4
_lpdwBufferCount$ = 12					; size = 4
?GetData@CBufferQueue@@QAEXPAU_WSABUF@@PAK@Z PROC	; CBufferQueue::GetData, COMDAT
; _this$ = ecx

; 252  : {

  00000	55		 push	 ebp
  00001	8b ec		 mov	 ebp, esp

; 253  : 	CBuffer* pBuffer;
; 254  : 	int	i	= 0;
; 255  : //	*lpdwBufferCount	= 0;
; 256  : //	CMclAutoLock	Lock( m_cs );	
; 257  : 	pBuffer	= GetHead();

  00003	8b 51 04	 mov	 edx, DWORD PTR [ecx+4]
  00006	33 c0		 xor	 eax, eax
  00008	56		 push	 esi
  00009	8b 75 08	 mov	 esi, DWORD PTR _lpBuffers$[ebp]

; 258  : 
; 259  : 	while( pBuffer && i < MAX_WSABUF )

  0000c	85 d2		 test	 edx, edx
  0000e	74 2b		 je	 SHORT $LN11@GetData
$LL2@GetData:
  00010	3d 80 00 00 00	 cmp	 eax, 128		; 00000080H
  00015	7d 24		 jge	 SHORT $LN11@GetData
; File C:\IAGOS\server\v18\Source\Source\_Network\Net\Include\buffer.h

; 115  : 	*pnBufSize	= (int)( m_pTail - m_pHead );	

  00017	8b 8a 18 20 00
	00		 mov	 ecx, DWORD PTR [edx+8216]
  0001d	2b 8a 14 20 00
	00		 sub	 ecx, DWORD PTR [edx+8212]
  00023	89 0c c6	 mov	 DWORD PTR [esi+eax*8], ecx
; File C:\IAGOS\server\v18\Source\Source\_network\net\src\buffer.cpp

; 261  : 		lpBuffers[i].buf	= (char*)pBuffer->GetReadableBuffer( (int*)&lpBuffers[i].len );

  00026	8b 8a 14 20 00
	00		 mov	 ecx, DWORD PTR [edx+8212]
  0002c	89 4c c6 04	 mov	 DWORD PTR [esi+eax*8+4], ecx

; 262  : 		i++;

  00030	40		 inc	 eax

; 263  : 		pBuffer	= pBuffer->pNext;

  00031	8b 92 1c 20 00
	00		 mov	 edx, DWORD PTR [edx+8220]
  00037	85 d2		 test	 edx, edx
  00039	75 d5		 jne	 SHORT $LL2@GetData
$LN11@GetData:

; 264  : 	}
; 265  : 	*lpdwBufferCount	= i;
; 266  : }

  0003b	8b 4d 0c	 mov	 ecx, DWORD PTR _lpdwBufferCount$[ebp]
  0003e	5e		 pop	 esi
  0003f	89 01		 mov	 DWORD PTR [ecx], eax
  00041	5d		 pop	 ebp
  00042	c2 08 00	 ret	 8
?GetData@CBufferQueue@@QAEXPAU_WSABUF@@PAK@Z ENDP	; CBufferQueue::GetData
_TEXT	ENDS
; Function compile flags: /Ogtp
; File C:\IAGOS\server\v18\Source\Source\_network\net\src\buffer.cpp
; File C:\IAGOS\server\v18\Source\Source\_Network\Net\Include\buffer.h
; File C:\IAGOS\server\v18\Source\Source\_network\net\src\buffer.cpp
; File C:\IAGOS\server\v18\Source\Source\_Network\Mcl\Include\CMclCritSec.h
; File C:\IAGOS\server\v18\Source\Source\_network\net\src\buffer.cpp
; File C:\IAGOS\server\v18\Source\Source\_Network\Mcl\Include\CMclCritSec.h
; File C:\IAGOS\server\v18\Source\Source\_Network\Net\Include\buffer.h
; File C:\IAGOS\server\v18\Source\Source\_Network\Mcl\Include\CMclCritSec.h
; File C:\IAGOS\server\v18\Source\Source\_Network\Net\Include\buffer.h
; File C:\IAGOS\server\v18\Source\Source\_Network\Mcl\Include\CMclCritSec.h
; File C:\IAGOS\server\v18\Source\Source\_network\net\src\buffer.cpp
; File C:\IAGOS\server\v18\Source\Source\_Network\Net\Include\buffer.h
; File C:\IAGOS\server\v18\Source\Source\_network\net\src\buffer.cpp
; File C:\IAGOS\server\v18\Source\Source\_Network\Net\Include\buffer.h
; File C:\IAGOS\server\v18\Source\Source\_network\net\src\buffer.cpp
; File C:\IAGOS\server\v18\Source\Source\_Network\Net\Include\buffer.h
; File C:\IAGOS\server\v18\Source\Source\_network\net\src\buffer.cpp
; File C:\IAGOS\server\v18\Source\Source\_Network\Mcl\Include\CMclCritSec.h
; File C:\IAGOS\server\v18\Source\Source\_network\net\src\buffer.cpp
; File C:\IAGOS\server\v18\Source\Source\_Network\Mcl\Include\CMclCritSec.h
; File C:\IAGOS\server\v18\Source\Source\_Network\Net\Include\buffer.h
; File C:\IAGOS\server\v18\Source\Source\_Network\Mcl\Include\CMclCritSec.h
; File C:\IAGOS\server\v18\Source\Source\_Network\Net\Include\buffer.h
; File C:\IAGOS\server\v18\Source\Source\_Network\Mcl\Include\CMclCritSec.h
; File C:\IAGOS\server\v18\Source\Source\_network\net\src\buffer.cpp
;	COMDAT ?AddData@CBufferQueue@@QAEXPAEKW4BUFFER_TYPE@@@Z
_TEXT	SEGMENT
___loop$1$ = -12					; size = 4
_cb$4$ = -8						; size = 4
_uRemnant$1$ = -4					; size = 4
_lpData$ = 8						; size = 4
_uDataSize$ = 12					; size = 4
_type$ = 16						; size = 4
?AddData@CBufferQueue@@QAEXPAEKW4BUFFER_TYPE@@@Z PROC	; CBufferQueue::AddData, COMDAT
; _this$ = ecx

; 117  : {

  00000	55		 push	 ebp
  00001	8b ec		 mov	 ebp, esp
  00003	83 ec 0c	 sub	 esp, 12			; 0000000cH
  00006	53		 push	 ebx
  00007	56		 push	 esi
  00008	8b f1		 mov	 esi, ecx
  0000a	57		 push	 edi

; 118  : //	CMclAutoLock	Lock( m_cs );
; 119  : 	u_long	uRemnant	= uDataSize;
; 120  : 	CBuffer* pBuffer	= GetTail();

  0000b	8b 5e 08	 mov	 ebx, DWORD PTR [esi+8]

; 121  : 	LPBYTE ptr;
; 122  : 	int cb;
; 123  : 
; 124  : 	if( pBuffer )

  0000e	85 db		 test	 ebx, ebx
  00010	74 34		 je	 SHORT $LN4@AddData
; File C:\IAGOS\server\v18\Source\Source\_Network\Net\Include\buffer.h

; 110  : 	return (int)( m_lpBufMax - m_pTail );	

  00012	8b 83 10 20 00
	00		 mov	 eax, DWORD PTR [ebx+8208]
  00018	2b 83 18 20 00
	00		 sub	 eax, DWORD PTR [ebx+8216]
; File C:\IAGOS\server\v18\Source\Source\_network\net\src\buffer.cpp

; 130  : 		if( cb < (int)( pBuffer->GetHeaderLength() ) )

  0001e	3b 83 24 20 00
	00		 cmp	 eax, DWORD PTR [ebx+8228]
  00024	7d 76		 jge	 SHORT $LN21@AddData

; 131  : #endif	// __CRC
; 132  : 		{
; 133  : 			pBuffer	= CBufferFactory::GetInstance().CreateBuffer( type );

  00026	68 00 20 00 00	 push	 8192			; 00002000H
  0002b	ff 75 10	 push	 DWORD PTR _type$[ebp]
  0002e	e8 00 00 00 00	 call	 ?GetInstance@CBufferFactory@@SAAAV1@XZ ; CBufferFactory::GetInstance
  00033	8b c8		 mov	 ecx, eax
  00035	e8 00 00 00 00	 call	 ?CreateBuffer@CBufferFactory@@QAEPAVCBuffer@@W4BUFFER_TYPE@@K@Z ; CBufferFactory::CreateBuffer
  0003a	8b d8		 mov	 ebx, eax

; 134  : 			AddTail( pBuffer );

  0003c	8b ce		 mov	 ecx, esi
  0003e	53		 push	 ebx
  0003f	e8 00 00 00 00	 call	 ?AddTail@CBufferQueue@@QAEXPAVCBuffer@@@Z ; CBufferQueue::AddTail

; 135  : 		}
; 136  : 	}

  00044	eb 56		 jmp	 SHORT $LN21@AddData
$LN4@AddData:

; 139  : 		pBuffer	= CBufferFactory::GetInstance().CreateBuffer( type );

  00046	68 00 20 00 00	 push	 8192			; 00002000H
  0004b	ff 75 10	 push	 DWORD PTR _type$[ebp]
  0004e	e8 00 00 00 00	 call	 ?GetInstance@CBufferFactory@@SAAAV1@XZ ; CBufferFactory::GetInstance
  00053	8b c8		 mov	 ecx, eax
  00055	e8 00 00 00 00	 call	 ?CreateBuffer@CBufferFactory@@QAEPAVCBuffer@@W4BUFFER_TYPE@@K@Z ; CBufferFactory::CreateBuffer
; File C:\IAGOS\server\v18\Source\Source\_Network\Mcl\Include\CMclCritSec.h

; 33   : 		::EnterCriticalSection( &m_CritSec );

  0005a	8d 7e 14	 lea	 edi, DWORD PTR [esi+20]
; File C:\IAGOS\server\v18\Source\Source\_network\net\src\buffer.cpp

; 139  : 		pBuffer	= CBufferFactory::GetInstance().CreateBuffer( type );

  0005d	8b d8		 mov	 ebx, eax
; File C:\IAGOS\server\v18\Source\Source\_Network\Mcl\Include\CMclCritSec.h

; 33   : 		::EnterCriticalSection( &m_CritSec );

  0005f	57		 push	 edi
  00060	ff 15 00 00 00
	00		 call	 DWORD PTR __imp__EnterCriticalSection@4
; File C:\IAGOS\server\v18\Source\Source\_Network\Net\Include\buffer.h

; 227  : 	if( !m_pHead )

  00066	83 7e 04 00	 cmp	 DWORD PTR [esi+4], 0
  0006a	75 03		 jne	 SHORT $LN13@AddData

; 228  : 		m_pHead		= pBuffer;

  0006c	89 5e 04	 mov	 DWORD PTR [esi+4], ebx
$LN13@AddData:

; 229  : 	if( m_pTail )

  0006f	8b 46 08	 mov	 eax, DWORD PTR [esi+8]
  00072	85 c0		 test	 eax, eax
  00074	74 06		 je	 SHORT $LN14@AddData

; 230  : 		m_pTail->pNext	= pBuffer;

  00076	89 98 1c 20 00
	00		 mov	 DWORD PTR [eax+8220], ebx
$LN14@AddData:

; 231  : 	pBuffer->pPrevious	= m_pTail;

  0007c	8b 46 08	 mov	 eax, DWORD PTR [esi+8]
  0007f	89 83 20 20 00
	00		 mov	 DWORD PTR [ebx+8224], eax

; 232  : 	pBuffer->pNext	= NULL;

  00085	c7 83 1c 20 00
	00 00 00 00 00	 mov	 DWORD PTR [ebx+8220], 0

; 234  : 	m_uCount++;

  0008f	ff 46 0c	 inc	 DWORD PTR [esi+12]
; File C:\IAGOS\server\v18\Source\Source\_Network\Mcl\Include\CMclCritSec.h

; 39   : 		::LeaveCriticalSection( &m_CritSec );

  00092	57		 push	 edi
; File C:\IAGOS\server\v18\Source\Source\_Network\Net\Include\buffer.h

; 233  : 	m_pTail		= pBuffer;

  00093	89 5e 08	 mov	 DWORD PTR [esi+8], ebx
; File C:\IAGOS\server\v18\Source\Source\_Network\Mcl\Include\CMclCritSec.h

; 39   : 		::LeaveCriticalSection( &m_CritSec );

  00096	ff 15 00 00 00
	00		 call	 DWORD PTR __imp__LeaveCriticalSection@4
$LN21@AddData:
; File C:\IAGOS\server\v18\Source\Source\_network\net\src\buffer.cpp

; 189  : 	pBuffer->SetHeader( uDataSize );	

  0009c	8b 03		 mov	 eax, DWORD PTR [ebx]
  0009e	8b cb		 mov	 ecx, ebx
; File C:\IAGOS\server\v18\Source\Source\_Network\Net\Include\buffer.h

; 104  : 	*pnBufSize	= (int)( m_lpBufMax - m_pTail );	

  000a0	8b bb 10 20 00
	00		 mov	 edi, DWORD PTR [ebx+8208]
; File C:\IAGOS\server\v18\Source\Source\_network\net\src\buffer.cpp

; 189  : 	pBuffer->SetHeader( uDataSize );	

  000a6	ff 75 0c	 push	 DWORD PTR _uDataSize$[ebp]
; File C:\IAGOS\server\v18\Source\Source\_Network\Net\Include\buffer.h

; 104  : 	*pnBufSize	= (int)( m_lpBufMax - m_pTail );	

  000a9	2b bb 18 20 00
	00		 sub	 edi, DWORD PTR [ebx+8216]
; File C:\IAGOS\server\v18\Source\Source\_network\net\src\buffer.cpp

; 189  : 	pBuffer->SetHeader( uDataSize );	

  000af	ff 50 08	 call	 DWORD PTR [eax+8]

; 190  : 	cb -= pBuffer->GetHeaderLength();

  000b2	2b bb 24 20 00
	00		 sub	 edi, DWORD PTR [ebx+8228]

; 191  : 
; 192  : 	if( cb >= (int)( uRemnant ) )

  000b8	3b 7d 0c	 cmp	 edi, DWORD PTR _uDataSize$[ebp]
  000bb	0f 4d 7d 0c	 cmovge	 edi, DWORD PTR _uDataSize$[ebp]

; 193  : 		cb = uRemnant;
; 194  : 
; 195  : 	memcpy( pBuffer->m_pTail, lpData, cb );

  000bf	57		 push	 edi
  000c0	ff 75 08	 push	 DWORD PTR _lpData$[ebp]
  000c3	ff b3 18 20 00
	00		 push	 DWORD PTR [ebx+8216]
  000c9	e8 00 00 00 00	 call	 _memcpy

; 196  : 	pBuffer->m_pTail +=  cb;
; 197  : 
; 198  : #endif	// __CRC
; 199  : 
; 200  : 	uRemnant	-= cb;

  000ce	8b 45 0c	 mov	 eax, DWORD PTR _uDataSize$[ebp]
  000d1	83 c4 0c	 add	 esp, 12			; 0000000cH
  000d4	01 bb 18 20 00
	00		 add	 DWORD PTR [ebx+8216], edi
  000da	2b c7		 sub	 eax, edi
  000dc	89 45 fc	 mov	 DWORD PTR _uRemnant$1$[ebp], eax

; 201  : 
; 202  : 	INIT_LOOP;

  000df	b8 00 00 00 00	 mov	 eax, 0

; 203  : 	while( uRemnant > 0 )

  000e4	0f 84 c9 00 00
	00		 je	 $LN3@AddData
  000ea	66 0f 1f 44 00
	00		 npad	 6
$LL2@AddData:

; 204  : 	{
; 205  : 		VERIFY_LOOP( __FILE__, __LINE__ );

  000f0	40		 inc	 eax
  000f1	89 45 f4	 mov	 DWORD PTR ___loop$1$[ebp], eax
  000f4	3d e8 03 00 00	 cmp	 eax, 1000		; 000003e8H
  000f9	75 17		 jne	 SHORT $LN8@AddData
  000fb	68 cd 00 00 00	 push	 205			; 000000cdH
  00100	68 00 00 00 00	 push	 OFFSET ??_C@_0DO@DHIFEDBG@C?3?2IAGOS?2server?2v18?2Source?2Sour@
  00105	68 00 00 00 00	 push	 OFFSET ??_C@_05DIALNFFA@?$CFs?5?$CFd@
  0010a	e8 00 00 00 00	 call	 ?Error@@YAPBDPBDZZ	; Error
  0010f	83 c4 0c	 add	 esp, 12			; 0000000cH
$LN8@AddData:

; 206  : 
; 207  : 		pBuffer	= CBufferFactory::GetInstance().CreateBuffer( type );

  00112	68 00 20 00 00	 push	 8192			; 00002000H
  00117	ff 75 10	 push	 DWORD PTR _type$[ebp]
  0011a	e8 00 00 00 00	 call	 ?GetInstance@CBufferFactory@@SAAAV1@XZ ; CBufferFactory::GetInstance
  0011f	8b c8		 mov	 ecx, eax
  00121	e8 00 00 00 00	 call	 ?CreateBuffer@CBufferFactory@@QAEPAVCBuffer@@W4BUFFER_TYPE@@K@Z ; CBufferFactory::CreateBuffer

; 209  : 		cb	= ( cb < (int)( uRemnant ) ? cb: uRemnant );

  00126	8b 55 fc	 mov	 edx, DWORD PTR _uRemnant$1$[ebp]
  00129	8b d8		 mov	 ebx, eax
  0012b	8b c2		 mov	 eax, edx
; File C:\IAGOS\server\v18\Source\Source\_Network\Net\Include\buffer.h

; 104  : 	*pnBufSize	= (int)( m_lpBufMax - m_pTail );	

  0012d	8b bb 18 20 00
	00		 mov	 edi, DWORD PTR [ebx+8216]
  00133	8b 8b 10 20 00
	00		 mov	 ecx, DWORD PTR [ebx+8208]
  00139	2b cf		 sub	 ecx, edi
; File C:\IAGOS\server\v18\Source\Source\_network\net\src\buffer.cpp

; 209  : 		cb	= ( cb < (int)( uRemnant ) ? cb: uRemnant );

  0013b	3b ca		 cmp	 ecx, edx
  0013d	0f 4c c1	 cmovl	 eax, ecx

; 210  : 		
; 211  : 		memcpy( (void*)ptr, &lpData[uDataSize - uRemnant], cb );

  00140	50		 push	 eax
  00141	89 45 f8	 mov	 DWORD PTR _cb$4$[ebp], eax
  00144	8b 45 08	 mov	 eax, DWORD PTR _lpData$[ebp]
  00147	2b c2		 sub	 eax, edx
  00149	03 45 0c	 add	 eax, DWORD PTR _uDataSize$[ebp]
  0014c	50		 push	 eax
  0014d	57		 push	 edi
  0014e	e8 00 00 00 00	 call	 _memcpy

; 212  : 		pBuffer->m_pTail	= ptr + cb;

  00153	8b 45 f8	 mov	 eax, DWORD PTR _cb$4$[ebp]
  00156	83 c4 0c	 add	 esp, 12			; 0000000cH
  00159	03 c7		 add	 eax, edi
; File C:\IAGOS\server\v18\Source\Source\_Network\Mcl\Include\CMclCritSec.h

; 33   : 		::EnterCriticalSection( &m_CritSec );

  0015b	8d 7e 14	 lea	 edi, DWORD PTR [esi+20]
; File C:\IAGOS\server\v18\Source\Source\_network\net\src\buffer.cpp

; 212  : 		pBuffer->m_pTail	= ptr + cb;

  0015e	89 83 18 20 00
	00		 mov	 DWORD PTR [ebx+8216], eax
; File C:\IAGOS\server\v18\Source\Source\_Network\Mcl\Include\CMclCritSec.h

; 33   : 		::EnterCriticalSection( &m_CritSec );

  00164	57		 push	 edi
  00165	ff 15 00 00 00
	00		 call	 DWORD PTR __imp__EnterCriticalSection@4
; File C:\IAGOS\server\v18\Source\Source\_Network\Net\Include\buffer.h

; 227  : 	if( !m_pHead )

  0016b	83 7e 04 00	 cmp	 DWORD PTR [esi+4], 0
  0016f	75 03		 jne	 SHORT $LN32@AddData

; 228  : 		m_pHead		= pBuffer;

  00171	89 5e 04	 mov	 DWORD PTR [esi+4], ebx
$LN32@AddData:

; 229  : 	if( m_pTail )

  00174	8b 46 08	 mov	 eax, DWORD PTR [esi+8]
  00177	85 c0		 test	 eax, eax
  00179	74 06		 je	 SHORT $LN33@AddData

; 230  : 		m_pTail->pNext	= pBuffer;

  0017b	89 98 1c 20 00
	00		 mov	 DWORD PTR [eax+8220], ebx
$LN33@AddData:

; 231  : 	pBuffer->pPrevious	= m_pTail;

  00181	8b 46 08	 mov	 eax, DWORD PTR [esi+8]
  00184	89 83 20 20 00
	00		 mov	 DWORD PTR [ebx+8224], eax

; 232  : 	pBuffer->pNext	= NULL;

  0018a	c7 83 1c 20 00
	00 00 00 00 00	 mov	 DWORD PTR [ebx+8220], 0

; 234  : 	m_uCount++;

  00194	ff 46 0c	 inc	 DWORD PTR [esi+12]
; File C:\IAGOS\server\v18\Source\Source\_Network\Mcl\Include\CMclCritSec.h

; 39   : 		::LeaveCriticalSection( &m_CritSec );

  00197	57		 push	 edi
; File C:\IAGOS\server\v18\Source\Source\_Network\Net\Include\buffer.h

; 233  : 	m_pTail		= pBuffer;

  00198	89 5e 08	 mov	 DWORD PTR [esi+8], ebx
; File C:\IAGOS\server\v18\Source\Source\_Network\Mcl\Include\CMclCritSec.h

; 39   : 		::LeaveCriticalSection( &m_CritSec );

  0019b	ff 15 00 00 00
	00		 call	 DWORD PTR __imp__LeaveCriticalSection@4
; File C:\IAGOS\server\v18\Source\Source\_network\net\src\buffer.cpp

; 214  : 		uRemnant	-= cb;

  001a1	8b 45 fc	 mov	 eax, DWORD PTR _uRemnant$1$[ebp]
  001a4	2b 45 f8	 sub	 eax, DWORD PTR _cb$4$[ebp]
  001a7	89 45 fc	 mov	 DWORD PTR _uRemnant$1$[ebp], eax
  001aa	8b 45 f4	 mov	 eax, DWORD PTR ___loop$1$[ebp]
  001ad	0f 85 3d ff ff
	ff		 jne	 $LL2@AddData
$LN3@AddData:
  001b3	5f		 pop	 edi

; 215  : 	}
; 216  : }

  001b4	5e		 pop	 esi
  001b5	5b		 pop	 ebx
  001b6	8b e5		 mov	 esp, ebp
  001b8	5d		 pop	 ebp
  001b9	c2 0c 00	 ret	 12			; 0000000cH
?AddData@CBufferQueue@@QAEXPAEKW4BUFFER_TYPE@@@Z ENDP	; CBufferQueue::AddData
_TEXT	ENDS
; Function compile flags: /Ogtp
; File C:\IAGOS\server\v18\Source\Source\_network\net\src\buffer.cpp
; File C:\IAGOS\server\v18\Source\Source\_Network\Mcl\Include\CMclAutoLock.h
; File C:\IAGOS\server\v18\Source\Source\_Network\Mcl\Include\CMclCritSec.h
; File C:\IAGOS\server\v18\Source\Source\_network\net\src\buffer.cpp
; File C:\IAGOS\server\v18\Source\Source\_Network\Mcl\Include\CMclCritSec.h
; File C:\IAGOS\server\v18\Source\Source\_network\net\src\buffer.cpp
; File C:\IAGOS\server\v18\Source\Source\_Network\Mcl\Include\CMclCritSec.h
; File C:\IAGOS\server\v18\Source\Source\_network\net\src\buffer.cpp
;	COMDAT ?Clear@CBufferQueue@@QAEXH@Z
_TEXT	SEGMENT
_Lock$ = -24						; size = 4
tv207 = -20						; size = 4
_this$1$ = -16						; size = 4
__$EHRec$ = -12						; size = 12
_bDelete$ = 8						; size = 4
?Clear@CBufferQueue@@QAEXH@Z PROC			; CBufferQueue::Clear, COMDAT
; _this$ = ecx

; 95   : {

  00000	55		 push	 ebp
  00001	8b ec		 mov	 ebp, esp
  00003	6a ff		 push	 -1
  00005	68 00 00 00 00	 push	 __ehhandler$?Clear@CBufferQueue@@QAEXH@Z
  0000a	64 a1 00 00 00
	00		 mov	 eax, DWORD PTR fs:0
  00010	50		 push	 eax
  00011	83 ec 0c	 sub	 esp, 12			; 0000000cH
  00014	53		 push	 ebx
  00015	56		 push	 esi
  00016	57		 push	 edi
  00017	a1 00 00 00 00	 mov	 eax, DWORD PTR ___security_cookie
  0001c	33 c5		 xor	 eax, ebp
  0001e	50		 push	 eax
  0001f	8d 45 f4	 lea	 eax, DWORD PTR __$EHRec$[ebp]
  00022	64 a3 00 00 00
	00		 mov	 DWORD PTR fs:0, eax
  00028	8b f1		 mov	 esi, ecx
  0002a	89 75 f0	 mov	 DWORD PTR _this$1$[ebp], esi

; 96   : 	CMclAutoLock	Lock( m_cs );

  0002d	8d 46 10	 lea	 eax, DWORD PTR [esi+16]
; File C:\IAGOS\server\v18\Source\Source\_Network\Mcl\Include\CMclAutoLock.h

; 21   : 		m_pcCritSec = &rCMclCritSec;

  00030	89 45 e8	 mov	 DWORD PTR _Lock$[ebp], eax
; File C:\IAGOS\server\v18\Source\Source\_Network\Mcl\Include\CMclCritSec.h

; 33   : 		::EnterCriticalSection( &m_CritSec );

  00033	83 c0 04	 add	 eax, 4
  00036	50		 push	 eax
  00037	89 45 ec	 mov	 DWORD PTR tv207[ebp], eax
  0003a	ff 15 00 00 00
	00		 call	 DWORD PTR __imp__EnterCriticalSection@4
; File C:\IAGOS\server\v18\Source\Source\_network\net\src\buffer.cpp

; 98   : 	if( bDelete )

  00040	83 7d 08 00	 cmp	 DWORD PTR _bDelete$[ebp], 0
  00044	c7 45 fc 00 00
	00 00		 mov	 DWORD PTR __$EHRec$[ebp+8], 0
  0004b	74 3d		 je	 SHORT $LN3@Clear

; 99   : 	{
; 100  : 		CBuffer* pBuffer	= GetHead(), *ptrtmp;

  0004d	8b 5e 04	 mov	 ebx, DWORD PTR [esi+4]

; 101  : 
; 102  : 		INIT_LOOP;

  00050	33 ff		 xor	 edi, edi

; 103  : 		while( pBuffer )

  00052	85 db		 test	 ebx, ebx
  00054	74 34		 je	 SHORT $LN3@Clear
$LL2@Clear:

; 104  : 		{
; 105  : 			VERIFY_LOOP( __FILE__, __LINE__ );

  00056	47		 inc	 edi
  00057	81 ff e8 03 00
	00		 cmp	 edi, 1000		; 000003e8H
  0005d	75 14		 jne	 SHORT $LN5@Clear
  0005f	6a 69		 push	 105			; 00000069H
  00061	68 00 00 00 00	 push	 OFFSET ??_C@_0DO@DHIFEDBG@C?3?2IAGOS?2server?2v18?2Source?2Sour@
  00066	68 00 00 00 00	 push	 OFFSET ??_C@_05DIALNFFA@?$CFs?5?$CFd@
  0006b	e8 00 00 00 00	 call	 ?Error@@YAPBDPBDZZ	; Error
  00070	83 c4 0c	 add	 esp, 12			; 0000000cH
$LN5@Clear:

; 106  : 
; 107  : 			ptrtmp	= pBuffer->pNext;
; 108  : 			SAFE_DELETE( pBuffer );

  00073	8b 03		 mov	 eax, DWORD PTR [ebx]
  00075	8b cb		 mov	 ecx, ebx
  00077	8b b3 1c 20 00
	00		 mov	 esi, DWORD PTR [ebx+8220]
  0007d	6a 01		 push	 1
  0007f	ff 10		 call	 DWORD PTR [eax]

; 109  : 			pBuffer	= ptrtmp;

  00081	8b de		 mov	 ebx, esi
  00083	85 f6		 test	 esi, esi
  00085	75 cf		 jne	 SHORT $LL2@Clear
  00087	8b 75 f0	 mov	 esi, DWORD PTR _this$1$[ebp]
$LN3@Clear:
; File C:\IAGOS\server\v18\Source\Source\_Network\Mcl\Include\CMclCritSec.h

; 39   : 		::LeaveCriticalSection( &m_CritSec );

  0008a	ff 75 ec	 push	 DWORD PTR tv207[ebp]
; File C:\IAGOS\server\v18\Source\Source\_network\net\src\buffer.cpp

; 112  : 	m_uCount	= 0;

  0008d	c7 46 0c 00 00
	00 00		 mov	 DWORD PTR [esi+12], 0

; 113  : 	m_pHead	= m_pTail	= NULL;

  00094	c7 46 08 00 00
	00 00		 mov	 DWORD PTR [esi+8], 0
  0009b	c7 46 04 00 00
	00 00		 mov	 DWORD PTR [esi+4], 0
; File C:\IAGOS\server\v18\Source\Source\_Network\Mcl\Include\CMclCritSec.h

; 39   : 		::LeaveCriticalSection( &m_CritSec );

  000a2	ff 15 00 00 00
	00		 call	 DWORD PTR __imp__LeaveCriticalSection@4
; File C:\IAGOS\server\v18\Source\Source\_network\net\src\buffer.cpp

; 114  : }

  000a8	8b 4d f4	 mov	 ecx, DWORD PTR __$EHRec$[ebp]
  000ab	64 89 0d 00 00
	00 00		 mov	 DWORD PTR fs:0, ecx
  000b2	59		 pop	 ecx
  000b3	5f		 pop	 edi
  000b4	5e		 pop	 esi
  000b5	5b		 pop	 ebx
  000b6	8b e5		 mov	 esp, ebp
  000b8	5d		 pop	 ebp
  000b9	c2 04 00	 ret	 4
_TEXT	ENDS
;	COMDAT text$x
text$x	SEGMENT
__unwindfunclet$?Clear@CBufferQueue@@QAEXH@Z$0:
  00000	8d 4d e8	 lea	 ecx, DWORD PTR _Lock$[ebp]
  00003	e9 00 00 00 00	 jmp	 ??1CMclAutoLock@@QAE@XZ	; CMclAutoLock::~CMclAutoLock
  00008	cc		 int	 3
  00009	cc		 int	 3
  0000a	cc		 int	 3
  0000b	cc		 int	 3
  0000c	cc		 int	 3
__ehhandler$?Clear@CBufferQueue@@QAEXH@Z:
  0000d	90		 npad	 1
  0000e	90		 npad	 1
  0000f	8b 54 24 08	 mov	 edx, DWORD PTR [esp+8]
  00013	8d 42 0c	 lea	 eax, DWORD PTR [edx+12]
  00016	8b 4a e4	 mov	 ecx, DWORD PTR [edx-28]
  00019	33 c8		 xor	 ecx, eax
  0001b	e8 00 00 00 00	 call	 @__security_check_cookie@4
  00020	b8 00 00 00 00	 mov	 eax, OFFSET __ehfuncinfo$?Clear@CBufferQueue@@QAEXH@Z
  00025	e9 00 00 00 00	 jmp	 ___CxxFrameHandler3
text$x	ENDS
?Clear@CBufferQueue@@QAEXH@Z ENDP			; CBufferQueue::Clear
; Function compile flags: /Ogtp
; File C:\IAGOS\server\v18\Source\Source\_Network\Net\Include\buffer.h
; File C:\IAGOS\server\v18\Source\Source\_Network\Mcl\Include\CMclCritSec.h
; File C:\IAGOS\server\v18\Source\Source\_Network\Net\Include\buffer.h
; File C:\IAGOS\server\v18\Source\Source\_Network\Mcl\Include\CMclCritSec.h
; File C:\IAGOS\server\v18\Source\Source\_Network\Net\Include\buffer.h
; File C:\IAGOS\server\v18\Source\Source\_Network\Mcl\Include\CMclCritSec.h
; File C:\IAGOS\server\v18\Source\Source\_Network\Net\Include\buffer.h
;	COMDAT ?AddTail@CBufferQueue@@QAEXPAVCBuffer@@@Z
_TEXT	SEGMENT
_pBuffer$ = 8						; size = 4
?AddTail@CBufferQueue@@QAEXPAVCBuffer@@@Z PROC		; CBufferQueue::AddTail, COMDAT
; _this$ = ecx

; 224  : {	

  00000	55		 push	 ebp
  00001	8b ec		 mov	 ebp, esp
  00003	56		 push	 esi
  00004	8b f1		 mov	 esi, ecx
  00006	57		 push	 edi
; File C:\IAGOS\server\v18\Source\Source\_Network\Mcl\Include\CMclCritSec.h

; 33   : 		::EnterCriticalSection( &m_CritSec );

  00007	8d 7e 14	 lea	 edi, DWORD PTR [esi+20]
  0000a	57		 push	 edi
  0000b	ff 15 00 00 00
	00		 call	 DWORD PTR __imp__EnterCriticalSection@4
; File C:\IAGOS\server\v18\Source\Source\_Network\Net\Include\buffer.h

; 227  : 	if( !m_pHead )

  00011	83 7e 04 00	 cmp	 DWORD PTR [esi+4], 0
  00015	8b 4d 08	 mov	 ecx, DWORD PTR _pBuffer$[ebp]
  00018	75 03		 jne	 SHORT $LN2@AddTail

; 228  : 		m_pHead		= pBuffer;

  0001a	89 4e 04	 mov	 DWORD PTR [esi+4], ecx
$LN2@AddTail:

; 229  : 	if( m_pTail )

  0001d	8b 46 08	 mov	 eax, DWORD PTR [esi+8]
  00020	85 c0		 test	 eax, eax
  00022	74 06		 je	 SHORT $LN3@AddTail

; 230  : 		m_pTail->pNext	= pBuffer;

  00024	89 88 1c 20 00
	00		 mov	 DWORD PTR [eax+8220], ecx
$LN3@AddTail:

; 231  : 	pBuffer->pPrevious	= m_pTail;

  0002a	8b 46 08	 mov	 eax, DWORD PTR [esi+8]
  0002d	89 81 20 20 00
	00		 mov	 DWORD PTR [ecx+8224], eax

; 232  : 	pBuffer->pNext	= NULL;

  00033	c7 81 1c 20 00
	00 00 00 00 00	 mov	 DWORD PTR [ecx+8220], 0

; 234  : 	m_uCount++;

  0003d	ff 46 0c	 inc	 DWORD PTR [esi+12]
; File C:\IAGOS\server\v18\Source\Source\_Network\Mcl\Include\CMclCritSec.h

; 39   : 		::LeaveCriticalSection( &m_CritSec );

  00040	57		 push	 edi
; File C:\IAGOS\server\v18\Source\Source\_Network\Net\Include\buffer.h

; 233  : 	m_pTail		= pBuffer;

  00041	89 4e 08	 mov	 DWORD PTR [esi+8], ecx
; File C:\IAGOS\server\v18\Source\Source\_Network\Mcl\Include\CMclCritSec.h

; 39   : 		::LeaveCriticalSection( &m_CritSec );

  00044	ff 15 00 00 00
	00		 call	 DWORD PTR __imp__LeaveCriticalSection@4
  0004a	5f		 pop	 edi
  0004b	5e		 pop	 esi
; File C:\IAGOS\server\v18\Source\Source\_Network\Net\Include\buffer.h

; 235  : }

  0004c	5d		 pop	 ebp
  0004d	c2 04 00	 ret	 4
?AddTail@CBufferQueue@@QAEXPAVCBuffer@@@Z ENDP		; CBufferQueue::AddTail
_TEXT	ENDS
; Function compile flags: /Ogtp
; File C:\IAGOS\server\v18\Source\Source\_network\net\src\buffer.cpp
; File C:\IAGOS\server\v18\Source\Source\_Network\Mcl\Include\CMclCritSec.h
; File C:\IAGOS\server\v18\Source\Source\_network\net\src\buffer.cpp
;	COMDAT ??1CBufferQueue@@UAE@XZ
_TEXT	SEGMENT
__$EHRec$ = -12						; size = 12
??1CBufferQueue@@UAE@XZ PROC				; CBufferQueue::~CBufferQueue, COMDAT
; _this$ = ecx

; 90   : {

  00000	55		 push	 ebp
  00001	8b ec		 mov	 ebp, esp
  00003	6a ff		 push	 -1
  00005	68 00 00 00 00	 push	 __ehhandler$??1CBufferQueue@@UAE@XZ
  0000a	64 a1 00 00 00
	00		 mov	 eax, DWORD PTR fs:0
  00010	50		 push	 eax
  00011	56		 push	 esi
  00012	a1 00 00 00 00	 mov	 eax, DWORD PTR ___security_cookie
  00017	33 c5		 xor	 eax, ebp
  00019	50		 push	 eax
  0001a	8d 45 f4	 lea	 eax, DWORD PTR __$EHRec$[ebp]
  0001d	64 a3 00 00 00
	00		 mov	 DWORD PTR fs:0, eax
  00023	8b f1		 mov	 esi, ecx

; 91   : 	Clear( TRUE );	// 2004/01/19

  00025	6a 01		 push	 1
  00027	c7 06 00 00 00
	00		 mov	 DWORD PTR [esi], OFFSET ??_7CBufferQueue@@6B@
  0002d	e8 00 00 00 00	 call	 ?Clear@CBufferQueue@@QAEXH@Z ; CBufferQueue::Clear
; File C:\IAGOS\server\v18\Source\Source\_Network\Mcl\Include\CMclCritSec.h

; 27   : 		::DeleteCriticalSection( &m_CritSec );

  00032	8d 46 14	 lea	 eax, DWORD PTR [esi+20]
  00035	c7 46 10 00 00
	00 00		 mov	 DWORD PTR [esi+16], OFFSET ??_7CMclCritSec@@6B@
  0003c	50		 push	 eax
  0003d	ff 15 00 00 00
	00		 call	 DWORD PTR __imp__DeleteCriticalSection@4
; File C:\IAGOS\server\v18\Source\Source\_network\net\src\buffer.cpp

; 92   : }

  00043	8b 4d f4	 mov	 ecx, DWORD PTR __$EHRec$[ebp]
  00046	64 89 0d 00 00
	00 00		 mov	 DWORD PTR fs:0, ecx
  0004d	59		 pop	 ecx
  0004e	5e		 pop	 esi
  0004f	8b e5		 mov	 esp, ebp
  00051	5d		 pop	 ebp
  00052	c3		 ret	 0
  00053	cc		 int	 3
  00054	cc		 int	 3
  00055	cc		 int	 3
  00056	cc		 int	 3
  00057	cc		 int	 3
_TEXT	ENDS
;	COMDAT text$x
text$x	SEGMENT
__ehhandler$??1CBufferQueue@@UAE@XZ:
  00000	90		 npad	 1
  00001	90		 npad	 1
  00002	8b 54 24 08	 mov	 edx, DWORD PTR [esp+8]
  00006	8d 42 0c	 lea	 eax, DWORD PTR [edx+12]
  00009	8b 4a f8	 mov	 ecx, DWORD PTR [edx-8]
  0000c	33 c8		 xor	 ecx, eax
  0000e	e8 00 00 00 00	 call	 @__security_check_cookie@4
  00013	b8 00 00 00 00	 mov	 eax, OFFSET __ehfuncinfo$??1CBufferQueue@@UAE@XZ
  00018	e9 00 00 00 00	 jmp	 ___CxxFrameHandler3
text$x	ENDS
??1CBufferQueue@@UAE@XZ ENDP				; CBufferQueue::~CBufferQueue
; Function compile flags: /Ogtp
; File C:\IAGOS\server\v18\Source\Source\_network\net\src\buffer.cpp
; File C:\IAGOS\server\v18\Source\Source\_Network\Mcl\Include\CMclCritSec.h
; File C:\IAGOS\server\v18\Source\Source\_network\net\src\buffer.cpp
; File C:\IAGOS\server\v18\Source\Source\_Network\Mcl\Include\CMclCritSec.h
; File C:\IAGOS\server\v18\Source\Source\_network\net\src\buffer.cpp
;	COMDAT ??0CBufferQueue@@QAE@XZ
_TEXT	SEGMENT
_this$ = -4						; size = 4
??0CBufferQueue@@QAE@XZ PROC				; CBufferQueue::CBufferQueue, COMDAT
; _this$ = ecx

; 72   : {

  00000	55		 push	 ebp
  00001	8b ec		 mov	 ebp, esp
  00003	51		 push	 ecx
  00004	56		 push	 esi
  00005	8b f1		 mov	 esi, ecx
  00007	89 75 fc	 mov	 DWORD PTR _this$[ebp], esi
; File C:\IAGOS\server\v18\Source\Source\_Network\Mcl\Include\CMclCritSec.h

; 21   : 		::InitializeCriticalSection( &m_CritSec );

  0000a	8d 46 14	 lea	 eax, DWORD PTR [esi+20]
; File C:\IAGOS\server\v18\Source\Source\_network\net\src\buffer.cpp

; 72   : {

  0000d	c7 06 00 00 00
	00		 mov	 DWORD PTR [esi], OFFSET ??_7CBufferQueue@@6B@
; File C:\IAGOS\server\v18\Source\Source\_Network\Mcl\Include\CMclCritSec.h

; 21   : 		::InitializeCriticalSection( &m_CritSec );

  00013	50		 push	 eax
  00014	c7 46 10 00 00
	00 00		 mov	 DWORD PTR [esi+16], OFFSET ??_7CMclCritSec@@6B@
  0001b	ff 15 00 00 00
	00		 call	 DWORD PTR __imp__InitializeCriticalSection@4
; File C:\IAGOS\server\v18\Source\Source\_network\net\src\buffer.cpp

; 73   : 	m_uCount	= 0;

  00021	c7 46 0c 00 00
	00 00		 mov	 DWORD PTR [esi+12], 0

; 74   : 	m_pHead		= m_pTail	= NULL;
; 75   : #ifdef __CRC
; 76   : 	m_pcrc	= NULL;
; 77   : 	m_dwWriteHeaderSize		= HEADERSIZE5;
; 78   : #endif	// __CRC
; 79   : 
; 80   : #ifdef __PROTOCOL0910
; 81   : 	m_pdwProtocolId		= NULL;
; 82   : #endif	// __PROTOCOL0910
; 83   : 
; 84   : #ifdef __PACKET_REPLAY_W
; 85   : 	m_nPacket	= 0;
; 86   : #endif	// __PACKET_REPLAY_W
; 87   : }

  00028	8b c6		 mov	 eax, esi
  0002a	c7 46 08 00 00
	00 00		 mov	 DWORD PTR [esi+8], 0
  00031	c7 46 04 00 00
	00 00		 mov	 DWORD PTR [esi+4], 0
  00038	5e		 pop	 esi
  00039	8b e5		 mov	 esp, ebp
  0003b	5d		 pop	 ebp
  0003c	c3		 ret	 0
??0CBufferQueue@@QAE@XZ ENDP				; CBufferQueue::CBufferQueue
_TEXT	ENDS
; Function compile flags: /Ogtp
;	COMDAT ??_GCBuffer2@@UAEPAXI@Z
_TEXT	SEGMENT
___flags$ = 8						; size = 4
??_GCBuffer2@@UAEPAXI@Z PROC				; CBuffer2::`scalar deleting destructor', COMDAT
; _this$ = ecx
  00000	55		 push	 ebp
  00001	8b ec		 mov	 ebp, esp
  00003	56		 push	 esi
  00004	8b f1		 mov	 esi, ecx
  00006	e8 00 00 00 00	 call	 ??1CBuffer@@UAE@XZ	; CBuffer::~CBuffer
  0000b	f6 45 08 01	 test	 BYTE PTR ___flags$[ebp], 1
  0000f	74 0e		 je	 SHORT $LN10@scalar
  00011	68 28 20 00 00	 push	 8232			; 00002028H
  00016	56		 push	 esi
  00017	e8 00 00 00 00	 call	 ??3@YAXPAXI@Z		; operator delete
  0001c	83 c4 08	 add	 esp, 8
$LN10@scalar:
  0001f	8b c6		 mov	 eax, esi
  00021	5e		 pop	 esi
  00022	5d		 pop	 ebp
  00023	c2 04 00	 ret	 4
??_GCBuffer2@@UAEPAXI@Z ENDP				; CBuffer2::`scalar deleting destructor'
_TEXT	ENDS
; Function compile flags: /Ogtp
; File C:\IAGOS\server\v18\Source\Source\_Network\Net\Include\buffer.h
;	COMDAT ?SetHeader@CBuffer2@@UAEXK@Z
_TEXT	SEGMENT
_uDataSize$ = 8						; size = 4
?SetHeader@CBuffer2@@UAEXK@Z PROC			; CBuffer2::SetHeader, COMDAT
; _this$ = ecx

; 147  : 	{

  00000	55		 push	 ebp
  00001	8b ec		 mov	 ebp, esp

; 148  : //		*(UNALIGNED WORD*)m_pTail	= (WORD)(uDataSize + 2);
; 149  : //		m_pTail += sizeof(WORD);
; 150  : 		*(UNALIGNED WORD*)m_pTail	= htons( (WORD)(uDataSize + 2) );

  00003	8b 45 08	 mov	 eax, DWORD PTR _uDataSize$[ebp]
  00006	56		 push	 esi
  00007	57		 push	 edi
  00008	8b f9		 mov	 edi, ecx
  0000a	83 c0 02	 add	 eax, 2
  0000d	50		 push	 eax
  0000e	8b b7 18 20 00
	00		 mov	 esi, DWORD PTR [edi+8216]
  00014	ff 15 00 00 00
	00		 call	 DWORD PTR __imp__htons@4
  0001a	66 89 06	 mov	 WORD PTR [esi], ax

; 151  : 		m_pTail += sizeof(WORD);

  0001d	83 87 18 20 00
	00 02		 add	 DWORD PTR [edi+8216], 2
  00024	5f		 pop	 edi
  00025	5e		 pop	 esi

; 152  : 	}

  00026	5d		 pop	 ebp
  00027	c2 04 00	 ret	 4
?SetHeader@CBuffer2@@UAEXK@Z ENDP			; CBuffer2::SetHeader
_TEXT	ENDS
; Function compile flags: /Ogtp
; File C:\IAGOS\server\v18\Source\Source\_Network\Net\Include\buffer.h
;	COMDAT ?GetPacketSize@CBuffer2@@UAEKPAE@Z
_TEXT	SEGMENT
_ptr$ = 8						; size = 4
?GetPacketSize@CBuffer2@@UAEKPAE@Z PROC			; CBuffer2::GetPacketSize, COMDAT
; _this$ = ecx

; 137  : 	{

  00000	55		 push	 ebp
  00001	8b ec		 mov	 ebp, esp

; 138  : //		DWORD dwSize = *(WORD *)ptr;
; 139  : //		dwSize -= 2;
; 140  : //		return dwSize;
; 141  : 		DWORD dwSize = ntohs( *(WORD *)ptr );

  00003	8b 45 08	 mov	 eax, DWORD PTR _ptr$[ebp]
  00006	0f b7 00	 movzx	 eax, WORD PTR [eax]
  00009	50		 push	 eax
  0000a	ff 15 00 00 00
	00		 call	 DWORD PTR __imp__ntohs@4
  00010	0f b7 c0	 movzx	 eax, ax

; 142  : 		dwSize -= 2;

  00013	83 e8 02	 sub	 eax, 2

; 143  : 		return dwSize;
; 144  : 	}

  00016	5d		 pop	 ebp
  00017	c2 04 00	 ret	 4
?GetPacketSize@CBuffer2@@UAEKPAE@Z ENDP			; CBuffer2::GetPacketSize
_TEXT	ENDS
; Function compile flags: /Ogtp
;	COMDAT ??_GCBuffer@@UAEPAXI@Z
_TEXT	SEGMENT
___flags$ = 8						; size = 4
??_GCBuffer@@UAEPAXI@Z PROC				; CBuffer::`scalar deleting destructor', COMDAT
; _this$ = ecx
  00000	55		 push	 ebp
  00001	8b ec		 mov	 ebp, esp
  00003	56		 push	 esi
  00004	8b f1		 mov	 esi, ecx
  00006	e8 00 00 00 00	 call	 ??1CBuffer@@UAE@XZ	; CBuffer::~CBuffer
  0000b	f6 45 08 01	 test	 BYTE PTR ___flags$[ebp], 1
  0000f	74 0e		 je	 SHORT $LN5@scalar
  00011	68 28 20 00 00	 push	 8232			; 00002028H
  00016	56		 push	 esi
  00017	e8 00 00 00 00	 call	 ??3@YAXPAXI@Z		; operator delete
  0001c	83 c4 08	 add	 esp, 8
$LN5@scalar:
  0001f	8b c6		 mov	 eax, esi
  00021	5e		 pop	 esi
  00022	5d		 pop	 ebp
  00023	c2 04 00	 ret	 4
??_GCBuffer@@UAEPAXI@Z ENDP				; CBuffer::`scalar deleting destructor'
_TEXT	ENDS
; Function compile flags: /Ogtp
; File C:\IAGOS\server\v18\Source\Source\_Network\Net\Include\buffer.h
;	COMDAT ?SetHeader@CBuffer@@UAEXK@Z
_TEXT	SEGMENT
_uDataSize$ = 8						; size = 4
?SetHeader@CBuffer@@UAEXK@Z PROC			; CBuffer::SetHeader, COMDAT
; _this$ = ecx

; 75   : 	{

  00000	55		 push	 ebp
  00001	8b ec		 mov	 ebp, esp

; 76   : 		*m_pTail					= HEADERMARK;

  00003	8b 81 18 20 00
	00		 mov	 eax, DWORD PTR [ecx+8216]
  00009	c6 00 5e	 mov	 BYTE PTR [eax], 94	; 0000005eH

; 77   : 		m_pTail++;

  0000c	ff 81 18 20 00
	00		 inc	 DWORD PTR [ecx+8216]
  00012	8b 91 18 20 00
	00		 mov	 edx, DWORD PTR [ecx+8216]

; 78   : 
; 79   : 		*(UNALIGNED DWORD*)m_pTail	= (DWORD)uDataSize;

  00018	8b 45 08	 mov	 eax, DWORD PTR _uDataSize$[ebp]
  0001b	89 02		 mov	 DWORD PTR [edx], eax

; 80   : 		m_pTail += sizeof(DWORD);

  0001d	83 81 18 20 00
	00 04		 add	 DWORD PTR [ecx+8216], 4

; 81   : 	}

  00024	5d		 pop	 ebp
  00025	c2 04 00	 ret	 4
?SetHeader@CBuffer@@UAEXK@Z ENDP			; CBuffer::SetHeader
_TEXT	ENDS
; Function compile flags: /Ogtp
; File C:\IAGOS\server\v18\Source\Source\_Network\Net\Include\buffer.h
;	COMDAT ?GetPacketSize@CBuffer@@UAEKPAE@Z
_TEXT	SEGMENT
_ptr$ = 8						; size = 4
?GetPacketSize@CBuffer@@UAEKPAE@Z PROC			; CBuffer::GetPacketSize, COMDAT
; _this$ = ecx

; 70   : 	{

  00000	55		 push	 ebp
  00001	8b ec		 mov	 ebp, esp

; 71   : 		return *(UNALIGNED LPDWORD)(ptr + 1);

  00003	8b 45 08	 mov	 eax, DWORD PTR _ptr$[ebp]
  00006	8b 40 01	 mov	 eax, DWORD PTR [eax+1]

; 72   : 	}

  00009	5d		 pop	 ebp
  0000a	c2 04 00	 ret	 4
?GetPacketSize@CBuffer@@UAEKPAE@Z ENDP			; CBuffer::GetPacketSize
_TEXT	ENDS
; Function compile flags: /Ogtp
; File C:\IAGOS\server\v18\Source\Source\_network\net\src\buffer.cpp
;	COMDAT ??1CBuffer@@UAE@XZ
_TEXT	SEGMENT
__$EHRec$ = -12						; size = 12
??1CBuffer@@UAE@XZ PROC					; CBuffer::~CBuffer, COMDAT
; _this$ = ecx

; 56   : {

  00000	55		 push	 ebp
  00001	8b ec		 mov	 ebp, esp
  00003	6a ff		 push	 -1
  00005	68 00 00 00 00	 push	 __ehhandler$??1CBuffer@@UAE@XZ
  0000a	64 a1 00 00 00
	00		 mov	 eax, DWORD PTR fs:0
  00010	50		 push	 eax
  00011	a1 00 00 00 00	 mov	 eax, DWORD PTR ___security_cookie
  00016	33 c5		 xor	 eax, ebp
  00018	50		 push	 eax
  00019	8d 45 f4	 lea	 eax, DWORD PTR __$EHRec$[ebp]
  0001c	64 a3 00 00 00
	00		 mov	 DWORD PTR fs:0, eax

; 57   : 	if( m_lpBufMax - m_lpBufStart > MAX_BUFFER )

  00022	8b 81 10 20 00
	00		 mov	 eax, DWORD PTR [ecx+8208]
  00028	8b 91 0c 20 00
	00		 mov	 edx, DWORD PTR [ecx+8204]
  0002e	2b c2		 sub	 eax, edx
  00030	c7 01 00 00 00
	00		 mov	 DWORD PTR [ecx], OFFSET ??_7CBuffer@@6B@
  00036	3d 00 20 00 00	 cmp	 eax, 8192		; 00002000H
  0003b	7e 0c		 jle	 SHORT $LN2@CBuffer

; 58   : 	{
; 59   : #ifdef __SO1014
; 60   : 		if( m_lpBufStart )
; 61   : #endif	// __SO1014
; 62   : #ifdef __VM_0819
; 63   : 			CBuffer::m_pHeapMng->Free( m_lpBufStart, GetSize() );
; 64   : #else	// __VM_0819
; 65   : 			CBuffer::m_pHeapMng->Free( m_lpBufStart );

  0003d	8b 0d 00 00 00
	00		 mov	 ecx, DWORD PTR ?m_pHeapMng@CBuffer@@2PAVCHeapMng@@A ; CBuffer::m_pHeapMng
  00043	52		 push	 edx
  00044	e8 00 00 00 00	 call	 ?Free@CHeapMng@@QAEXPAX@Z ; CHeapMng::Free
$LN2@CBuffer:

; 66   : #endif	// __VM_0819
; 67   : 	}
; 68   : }

  00049	8b 4d f4	 mov	 ecx, DWORD PTR __$EHRec$[ebp]
  0004c	64 89 0d 00 00
	00 00		 mov	 DWORD PTR fs:0, ecx
  00053	59		 pop	 ecx
  00054	8b e5		 mov	 esp, ebp
  00056	5d		 pop	 ebp
  00057	c3		 ret	 0
  00058	cc		 int	 3
  00059	cc		 int	 3
  0005a	cc		 int	 3
  0005b	cc		 int	 3
  0005c	cc		 int	 3
_TEXT	ENDS
;	COMDAT text$x
text$x	SEGMENT
__ehhandler$??1CBuffer@@UAE@XZ:
  00000	90		 npad	 1
  00001	90		 npad	 1
  00002	8b 54 24 08	 mov	 edx, DWORD PTR [esp+8]
  00006	8d 42 0c	 lea	 eax, DWORD PTR [edx+12]
  00009	8b 4a fc	 mov	 ecx, DWORD PTR [edx-4]
  0000c	33 c8		 xor	 ecx, eax
  0000e	e8 00 00 00 00	 call	 @__security_check_cookie@4
  00013	b8 00 00 00 00	 mov	 eax, OFFSET __ehfuncinfo$??1CBuffer@@UAE@XZ
  00018	e9 00 00 00 00	 jmp	 ___CxxFrameHandler3
text$x	ENDS
??1CBuffer@@UAE@XZ ENDP					; CBuffer::~CBuffer
; Function compile flags: /Ogtp
; File C:\IAGOS\server\v18\Source\Source\_network\net\src\buffer.cpp
;	COMDAT ??0CBuffer@@QAE@K@Z
_TEXT	SEGMENT
_uBufSize$ = 8						; size = 4
??0CBuffer@@QAE@K@Z PROC				; CBuffer::CBuffer, COMDAT
; _this$ = ecx

; 38   : {

  00000	55		 push	 ebp
  00001	8b ec		 mov	 ebp, esp
  00003	56		 push	 esi
  00004	8b f1		 mov	 esi, ecx
  00006	57		 push	 edi

; 39   : 	if( uBufSize > MAX_BUFFER ) {

  00007	8b 7d 08	 mov	 edi, DWORD PTR _uBufSize$[ebp]
  0000a	c7 06 00 00 00
	00		 mov	 DWORD PTR [esi], OFFSET ??_7CBuffer@@6B@
  00010	81 ff 00 20 00
	00		 cmp	 edi, 8192		; 00002000H
  00016	76 0e		 jbe	 SHORT $LN2@CBuffer

; 40   : 		m_lpBufStart	= (LPBYTE)CBuffer::m_pHeapMng->Malloc( uBufSize );

  00018	8b 0d 00 00 00
	00		 mov	 ecx, DWORD PTR ?m_pHeapMng@CBuffer@@2PAVCHeapMng@@A ; CBuffer::m_pHeapMng
  0001e	57		 push	 edi
  0001f	e8 00 00 00 00	 call	 ?Malloc@CHeapMng@@QAEPAXI@Z ; CHeapMng::Malloc

; 41   : //		ASSERT( m_lpBufStart );
; 42   : 	}

  00024	eb 08		 jmp	 SHORT $LN3@CBuffer
$LN2@CBuffer:

; 43   : 	else {
; 44   : 		m_lpBufStart	= m_lpBuf;
; 45   : 		uBufSize	= MAX_BUFFER;

  00026	bf 00 20 00 00	 mov	 edi, 8192		; 00002000H
  0002b	8d 46 0c	 lea	 eax, DWORD PTR [esi+12]
$LN3@CBuffer:

; 46   : 	}
; 47   : 	m_pHead		= m_pTail	= m_lpBufStart;

  0002e	89 86 0c 20 00
	00		 mov	 DWORD PTR [esi+8204], eax
  00034	89 86 18 20 00
	00		 mov	 DWORD PTR [esi+8216], eax
  0003a	89 86 14 20 00
	00		 mov	 DWORD PTR [esi+8212], eax

; 48   : 	m_lpBufMax	= m_lpBufStart + uBufSize;

  00040	03 c7		 add	 eax, edi
  00042	89 86 10 20 00
	00		 mov	 DWORD PTR [esi+8208], eax

; 49   : 	cb	= 0;
; 50   : 	dpid	= DPID_UNKNOWN;
; 51   : 	pPrevious	= pNext		= NULL;
; 52   : 	m_dwHeaderSize = sizeof(DWORD) + 1;
; 53   : }

  00048	8b c6		 mov	 eax, esi
  0004a	5f		 pop	 edi
  0004b	c7 46 08 00 00
	00 00		 mov	 DWORD PTR [esi+8], 0
  00052	c7 46 04 ff ff
	ff ff		 mov	 DWORD PTR [esi+4], -1
  00059	c7 86 1c 20 00
	00 00 00 00 00	 mov	 DWORD PTR [esi+8220], 0
  00063	c7 86 20 20 00
	00 00 00 00 00	 mov	 DWORD PTR [esi+8224], 0
  0006d	c7 86 24 20 00
	00 05 00 00 00	 mov	 DWORD PTR [esi+8228], 5
  00077	5e		 pop	 esi
  00078	5d		 pop	 ebp
  00079	c2 04 00	 ret	 4
??0CBuffer@@QAE@K@Z ENDP				; CBuffer::CBuffer
_TEXT	ENDS
; Function compile flags: /Ogtp
; File C:\IAGOS\server\v18\Source\Source\_Network\Mcl\Include\CMclAutoLock.h
; File C:\IAGOS\server\v18\Source\Source\_Network\Mcl\Include\CMclCritSec.h
; File C:\IAGOS\server\v18\Source\Source\_Network\Mcl\Include\CMclAutoLock.h
;	COMDAT ??1CMclAutoLock@@QAE@XZ
_TEXT	SEGMENT
??1CMclAutoLock@@QAE@XZ PROC				; CMclAutoLock::~CMclAutoLock, COMDAT
; _this$ = ecx
; File C:\IAGOS\server\v18\Source\Source\_Network\Mcl\Include\CMclCritSec.h

; 39   : 		::LeaveCriticalSection( &m_CritSec );

  00000	8b 01		 mov	 eax, DWORD PTR [ecx]
  00002	83 c0 04	 add	 eax, 4
  00005	50		 push	 eax
  00006	ff 15 00 00 00
	00		 call	 DWORD PTR __imp__LeaveCriticalSection@4
; File C:\IAGOS\server\v18\Source\Source\_Network\Mcl\Include\CMclAutoLock.h

; 29   : 	}

  0000c	c3		 ret	 0
??1CMclAutoLock@@QAE@XZ ENDP				; CMclAutoLock::~CMclAutoLock
_TEXT	ENDS
; Function compile flags: /Ogtp
; File C:\IAGOS\server\v18\Source\Source\_Network\Mcl\Include\CMclCritSec.h
;	COMDAT ??_GCMclCritSec@@UAEPAXI@Z
_TEXT	SEGMENT
___flags$ = 8						; size = 4
??_GCMclCritSec@@UAEPAXI@Z PROC				; CMclCritSec::`scalar deleting destructor', COMDAT
; _this$ = ecx
  00000	55		 push	 ebp
  00001	8b ec		 mov	 ebp, esp

; 26   : 	{

  00003	56		 push	 esi
  00004	8b f1		 mov	 esi, ecx

; 27   : 		::DeleteCriticalSection( &m_CritSec );

  00006	8d 46 04	 lea	 eax, DWORD PTR [esi+4]
  00009	c7 06 00 00 00
	00		 mov	 DWORD PTR [esi], OFFSET ??_7CMclCritSec@@6B@
  0000f	50		 push	 eax
  00010	ff 15 00 00 00
	00		 call	 DWORD PTR __imp__DeleteCriticalSection@4
  00016	f6 45 08 01	 test	 BYTE PTR ___flags$[ebp], 1
  0001a	74 0b		 je	 SHORT $LN8@scalar
  0001c	6a 1c		 push	 28			; 0000001cH
  0001e	56		 push	 esi
  0001f	e8 00 00 00 00	 call	 ??3@YAXPAXI@Z		; operator delete
  00024	83 c4 08	 add	 esp, 8
$LN8@scalar:
  00027	8b c6		 mov	 eax, esi
  00029	5e		 pop	 esi
  0002a	5d		 pop	 ebp
  0002b	c2 04 00	 ret	 4
??_GCMclCritSec@@UAEPAXI@Z ENDP				; CMclCritSec::`scalar deleting destructor'
_TEXT	ENDS
; Function compile flags: /Ogtp
; File C:\IAGOS\server\v18\Source\Source\_Network\Mcl\Include\CMclCritSec.h
;	COMDAT ??1CMclCritSec@@UAE@XZ
_TEXT	SEGMENT
??1CMclCritSec@@UAE@XZ PROC				; CMclCritSec::~CMclCritSec, COMDAT
; _this$ = ecx

; 27   : 		::DeleteCriticalSection( &m_CritSec );

  00000	8d 41 04	 lea	 eax, DWORD PTR [ecx+4]
  00003	c7 01 00 00 00
	00		 mov	 DWORD PTR [ecx], OFFSET ??_7CMclCritSec@@6B@
  00009	50		 push	 eax
  0000a	ff 15 00 00 00
	00		 call	 DWORD PTR __imp__DeleteCriticalSection@4

; 28   : 	}

  00010	c3		 ret	 0
??1CMclCritSec@@UAE@XZ ENDP				; CMclCritSec::~CMclCritSec
_TEXT	ENDS
; Function compile flags: /Ogtp
; File C:\IAGOS\server\v18\Source\Source\_network\net\src\buffer.cpp
;	COMDAT ?__empty_global_delete@@YAXPAXI@Z
_TEXT	SEGMENT
___formal$ = 8						; size = 4
___formal$ = 12						; size = 4
?__empty_global_delete@@YAXPAXI@Z PROC			; __empty_global_delete, COMDAT

  00000	c2 00 00	 ret	 0
?__empty_global_delete@@YAXPAXI@Z ENDP			; __empty_global_delete
_TEXT	ENDS
; Function compile flags: /Ogtp
; File C:\IAGOS\server\v18\Source\Source\_network\net\src\buffer.cpp
;	COMDAT ?__empty_global_delete@@YAXPAX@Z
_TEXT	SEGMENT
___formal$ = 8						; size = 4
?__empty_global_delete@@YAXPAX@Z PROC			; __empty_global_delete, COMDAT

  00000	c2 00 00	 ret	 0
?__empty_global_delete@@YAXPAX@Z ENDP			; __empty_global_delete
_TEXT	ENDS
END
