; Listing generated by Microsoft (R) Optimizing Compiler Version 19.44.35225.0 

	TITLE	C:\IAGOS\server\v18\Source\Output\WorldServer\Release\CampusHelper.obj
	.686P
	.XMM
	include listing.inc
	.model	flat

INCLUDELIB LIBCMT
INCLUDELIB OLDNAMES

CONST	SEGMENT
?piecewise_construct@std@@3Upiecewise_construct_t@1@B	ORG $+1 ; std::piecewise_construct
CONST	ENDS
PUBLIC	?__empty_global_delete@@YAXPAX@Z		; __empty_global_delete
PUBLIC	?__empty_global_delete@@YAXPAXI@Z		; __empty_global_delete
PUBLIC	??0exception@std@@QAE@ABV01@@Z			; std::exception::exception
PUBLIC	??1exception@std@@UAE@XZ			; std::exception::~exception
PUBLIC	?what@exception@std@@UBEPBDXZ			; std::exception::what
PUBLIC	??_Gexception@std@@UAEPAXI@Z			; std::exception::`scalar deleting destructor'
PUBLIC	??0bad_alloc@std@@QAE@ABV01@@Z			; std::bad_alloc::bad_alloc
PUBLIC	??_Gbad_alloc@std@@UAEPAXI@Z			; std::bad_alloc::`scalar deleting destructor'
PUBLIC	??0bad_array_new_length@std@@QAE@XZ		; std::bad_array_new_length::bad_array_new_length
PUBLIC	??1bad_array_new_length@std@@UAE@XZ		; std::bad_array_new_length::~bad_array_new_length
PUBLIC	??0bad_array_new_length@std@@QAE@ABV01@@Z	; std::bad_array_new_length::bad_array_new_length
PUBLIC	??_Gbad_array_new_length@std@@UAEPAXI@Z		; std::bad_array_new_length::`scalar deleting destructor'
PUBLIC	?_Throw_bad_array_new_length@std@@YAXXZ		; std::_Throw_bad_array_new_length
PUBLIC	?_Throw_tree_length_error@std@@YAXXZ		; std::_Throw_tree_length_error
PUBLIC	??1?$vector@KV?$allocator@K@std@@@std@@QAE@XZ	; std::vector<unsigned long,std::allocator<unsigned long> >::~vector<unsigned long,std::allocator<unsigned long> >
PUBLIC	??1?$vector@HV?$allocator@H@std@@@std@@QAE@XZ	; std::vector<int,std::allocator<int> >::~vector<int,std::allocator<int> >
PUBLIC	?_Xlength@?$vector@HV?$allocator@H@std@@@std@@CAXXZ ; std::vector<int,std::allocator<int> >::_Xlength
PUBLIC	??1?$_Tree@V?$_Tmap_traits@HKU?$less@H@std@@V?$allocator@U?$pair@$$CBHK@std@@@2@$0A@@std@@@std@@QAE@XZ ; std::_Tree<std::_Tmap_traits<int,unsigned long,std::less<int>,std::allocator<std::pair<int const ,unsigned long> >,0> >::~_Tree<std::_Tmap_traits<int,unsigned long,std::less<int>,std::allocator<std::pair<int const ,unsigned long> >,0> >
PUBLIC	?_Insert_node@?$_Tree_val@U?$_Tree_simple_types@U?$pair@$$CBHK@std@@@std@@@std@@QAEPAU?$_Tree_node@U?$pair@$$CBHK@std@@PAX@2@U?$_Tree_id@PAU?$_Tree_node@U?$pair@$$CBHK@std@@PAX@std@@@2@QAU32@@Z ; std::_Tree_val<std::_Tree_simple_types<std::pair<int const ,unsigned long> > >::_Insert_node
PUBLIC	??1?$map@HKU?$less@H@std@@V?$allocator@U?$pair@$$CBHK@std@@@2@@std@@QAE@XZ ; std::map<int,unsigned long,std::less<int>,std::allocator<std::pair<int const ,unsigned long> > >::~map<int,unsigned long,std::less<int>,std::allocator<std::pair<int const ,unsigned long> > >
PUBLIC	??$_Erase_tree@V?$allocator@U?$_Tree_node@U?$pair@$$CBHK@std@@PAX@std@@@std@@@?$_Tree_val@U?$_Tree_simple_types@U?$pair@$$CBHK@std@@@std@@@std@@QAEXAAV?$allocator@U?$_Tree_node@U?$pair@$$CBHK@std@@PAX@std@@@1@PAU?$_Tree_node@U?$pair@$$CBHK@std@@PAX@1@@Z ; std::_Tree_val<std::_Tree_simple_types<std::pair<int const ,unsigned long> > >::_Erase_tree<std::allocator<std::_Tree_node<std::pair<int const ,unsigned long>,void *> > >
PUBLIC	??$_Find_lower_bound@H@?$_Tree@V?$_Tmap_traits@HKU?$less@H@std@@V?$allocator@U?$pair@$$CBHK@std@@@2@$0A@@std@@@std@@IBE?AU?$_Tree_find_result@PAU?$_Tree_node@U?$pair@$$CBHK@std@@PAX@std@@@1@ABH@Z ; std::_Tree<std::_Tmap_traits<int,unsigned long,std::less<int>,std::allocator<std::pair<int const ,unsigned long> >,0> >::_Find_lower_bound<int>
PUBLIC	??$_Allocate_manually_vector_aligned@U_Default_allocate_traits@std@@@std@@YAPAXI@Z ; std::_Allocate_manually_vector_aligned<std::_Default_allocate_traits>
PUBLIC	?erase@?$_Tree@V?$_Tmap_traits@KKU?$less@K@std@@V?$allocator@U?$pair@$$CBKK@std@@@2@$0A@@std@@@std@@QAEIABK@Z ; std::_Tree<std::_Tmap_traits<unsigned long,unsigned long,std::less<unsigned long>,std::allocator<std::pair<unsigned long const ,unsigned long> >,0> >::erase
PUBLIC	?_Lrotate@?$_Tree_val@U?$_Tree_simple_types@U?$pair@$$CBKK@std@@@std@@@std@@QAEXPAU?$_Tree_node@U?$pair@$$CBKK@std@@PAX@2@@Z ; std::_Tree_val<std::_Tree_simple_types<std::pair<unsigned long const ,unsigned long> > >::_Lrotate
PUBLIC	?_Rrotate@?$_Tree_val@U?$_Tree_simple_types@U?$pair@$$CBKK@std@@@std@@@std@@QAEXPAU?$_Tree_node@U?$pair@$$CBKK@std@@PAX@2@@Z ; std::_Tree_val<std::_Tree_simple_types<std::pair<unsigned long const ,unsigned long> > >::_Rrotate
PUBLIC	?_Extract@?$_Tree_val@U?$_Tree_simple_types@U?$pair@$$CBKK@std@@@std@@@std@@QAEPAU?$_Tree_node@U?$pair@$$CBKK@std@@PAX@2@V?$_Tree_unchecked_const_iterator@V?$_Tree_val@U?$_Tree_simple_types@U?$pair@$$CBKK@std@@@std@@@std@@U_Iterator_base0@2@@2@@Z ; std::_Tree_val<std::_Tree_simple_types<std::pair<unsigned long const ,unsigned long> > >::_Extract
PUBLIC	??E?$_Tree_unchecked_const_iterator@V?$_Tree_val@U?$_Tree_simple_types@U?$pair@$$CBKK@std@@@std@@@std@@U_Iterator_base0@2@@std@@QAEAAV01@XZ ; std::_Tree_unchecked_const_iterator<std::_Tree_val<std::_Tree_simple_types<std::pair<unsigned long const ,unsigned long> > >,std::_Iterator_base0>::operator++
PUBLIC	??0CCampusHelper@@QAE@XZ			; CCampusHelper::CCampusHelper
PUBLIC	??1CCampusHelper@@QAE@XZ			; CCampusHelper::~CCampusHelper
PUBLIC	?GetInstance@CCampusHelper@@SAPAV1@XZ		; CCampusHelper::GetInstance
PUBLIC	?Clear@CCampusHelper@@QAEXXZ			; CCampusHelper::Clear
PUBLIC	?OnAddCampusMember@CCampusHelper@@QAEXAAVCAr@@@Z ; CCampusHelper::OnAddCampusMember
PUBLIC	?OnRemoveCampusMember@CCampusHelper@@QAEXAAVCAr@@@Z ; CCampusHelper::OnRemoveCampusMember
PUBLIC	?OnUpdateCampusPoint@CCampusHelper@@QAEXAAVCAr@@@Z ; CCampusHelper::OnUpdateCampusPoint
PUBLIC	?OnUpdatePlayerData@CCampusHelper@@QAEXKPAU_PlayerData@@@Z ; CCampusHelper::OnUpdatePlayerData
PUBLIC	?LoadScript@CCampusHelper@@QAEXXZ		; CCampusHelper::LoadScript
PUBLIC	?IsInviteAble@CCampusHelper@@QAEHPAVCUser@@0@Z	; CCampusHelper::IsInviteAble
PUBLIC	?IsMasterLevel@CCampusHelper@@QAEHPAVCUser@@@Z	; CCampusHelper::IsMasterLevel
PUBLIC	?IsPupilLevel@CCampusHelper@@QAEHPAVCUser@@@Z	; CCampusHelper::IsPupilLevel
PUBLIC	?GetMaxPupilNum@CCampusHelper@@QAEHPAVCUser@@@Z	; CCampusHelper::GetMaxPupilNum
PUBLIC	?IsCompleteCampusQuest@CCampusHelper@@QAEHPAVCUser@@@Z ; CCampusHelper::IsCompleteCampusQuest
PUBLIC	?AddAllMemberUpdateCampus@CCampusHelper@@QAEXPAVCCampus@@@Z ; CCampusHelper::AddAllMemberUpdateCampus
PUBLIC	?AddAllMemberRemoveCampus@CCampusHelper@@QAEXPAVCCampus@@@Z ; CCampusHelper::AddAllMemberRemoveCampus
PUBLIC	?GetCampusBuff@CCampusHelper@@QAEKH@Z		; CCampusHelper::GetCampusBuff
PUBLIC	?RecoveryCampusPoint@CCampusHelper@@QAEXPAVCUser@@K@Z ; CCampusHelper::RecoveryCampusPoint
PUBLIC	?SetLevelUpReward@CCampusHelper@@QAEXPAVCUser@@@Z ; CCampusHelper::SetLevelUpReward
PUBLIC	?GetReward@CCampusHelper@@QAEPAUREWARD@1@H@Z	; CCampusHelper::GetReward
PUBLIC	?OnInviteCampusMember@CCampusHelper@@QAEXPAVCUser@@0@Z ; CCampusHelper::OnInviteCampusMember
PUBLIC	?OnAcceptCampusMember@CCampusHelper@@QAEXPAVCUser@@0@Z ; CCampusHelper::OnAcceptCampusMember
PUBLIC	?OnRemoveCampusMember@CCampusHelper@@QAEXPAVCUser@@K@Z ; CCampusHelper::OnRemoveCampusMember
PUBLIC	??1?$_Tree@V?$_Tmap_traits@HUREWARD@CCampusHelper@@U?$less@H@std@@V?$allocator@U?$pair@$$CBHUREWARD@CCampusHelper@@@std@@@4@$0A@@std@@@std@@QAE@XZ ; std::_Tree<std::_Tmap_traits<int,CCampusHelper::REWARD,std::less<int>,std::allocator<std::pair<int const ,CCampusHelper::REWARD> >,0> >::~_Tree<std::_Tmap_traits<int,CCampusHelper::REWARD,std::less<int>,std::allocator<std::pair<int const ,CCampusHelper::REWARD> >,0> >
PUBLIC	?_Insert_node@?$_Tree_val@U?$_Tree_simple_types@U?$pair@$$CBHUREWARD@CCampusHelper@@@std@@@std@@@std@@QAEPAU?$_Tree_node@U?$pair@$$CBHUREWARD@CCampusHelper@@@std@@PAX@2@U?$_Tree_id@PAU?$_Tree_node@U?$pair@$$CBHUREWARD@CCampusHelper@@@std@@PAX@std@@@2@QAU32@@Z ; std::_Tree_val<std::_Tree_simple_types<std::pair<int const ,CCampusHelper::REWARD> > >::_Insert_node
PUBLIC	??1?$map@HUREWARD@CCampusHelper@@U?$less@H@std@@V?$allocator@U?$pair@$$CBHUREWARD@CCampusHelper@@@std@@@4@@std@@QAE@XZ ; std::map<int,CCampusHelper::REWARD,std::less<int>,std::allocator<std::pair<int const ,CCampusHelper::REWARD> > >::~map<int,CCampusHelper::REWARD,std::less<int>,std::allocator<std::pair<int const ,CCampusHelper::REWARD> > >
PUBLIC	??$?5H@CAr@@QAEAAV0@AAH@Z			; CAr::operator>><int>
PUBLIC	??$?5K@CAr@@QAEAAV0@AAK@Z			; CAr::operator>><unsigned long>
PUBLIC	??$_Erase_tree@V?$allocator@U?$_Tree_node@U?$pair@$$CBHUREWARD@CCampusHelper@@@std@@PAX@std@@@std@@@?$_Tree_val@U?$_Tree_simple_types@U?$pair@$$CBHUREWARD@CCampusHelper@@@std@@@std@@@std@@QAEXAAV?$allocator@U?$_Tree_node@U?$pair@$$CBHUREWARD@CCampusHelper@@@std@@PAX@std@@@1@PAU?$_Tree_node@U?$pair@$$CBHUREWARD@CCampusHelper@@@std@@PAX@1@@Z ; std::_Tree_val<std::_Tree_simple_types<std::pair<int const ,CCampusHelper::REWARD> > >::_Erase_tree<std::allocator<std::_Tree_node<std::pair<int const ,CCampusHelper::REWARD>,void *> > >
PUBLIC	??1?$_Alloc_construct_ptr@V?$allocator@U?$_Tree_node@U?$pair@$$CBHK@std@@PAX@std@@@std@@@std@@QAE@XZ ; std::_Alloc_construct_ptr<std::allocator<std::_Tree_node<std::pair<int const ,unsigned long>,void *> > >::~_Alloc_construct_ptr<std::allocator<std::_Tree_node<std::pair<int const ,unsigned long>,void *> > >
PUBLIC	??$_Find_lower_bound@H@?$_Tree@V?$_Tmap_traits@HUREWARD@CCampusHelper@@U?$less@H@std@@V?$allocator@U?$pair@$$CBHUREWARD@CCampusHelper@@@std@@@4@$0A@@std@@@std@@IBE?AU?$_Tree_find_result@PAU?$_Tree_node@U?$pair@$$CBHUREWARD@CCampusHelper@@@std@@PAX@std@@@1@ABH@Z ; std::_Tree<std::_Tmap_traits<int,CCampusHelper::REWARD,std::less<int>,std::allocator<std::pair<int const ,CCampusHelper::REWARD> >,0> >::_Find_lower_bound<int>
PUBLIC	??1?$_Alloc_construct_ptr@V?$allocator@U?$_Tree_node@U?$pair@$$CBHUREWARD@CCampusHelper@@@std@@PAX@std@@@std@@@std@@QAE@XZ ; std::_Alloc_construct_ptr<std::allocator<std::_Tree_node<std::pair<int const ,CCampusHelper::REWARD>,void *> > >::~_Alloc_construct_ptr<std::allocator<std::_Tree_node<std::pair<int const ,CCampusHelper::REWARD>,void *> > >
PUBLIC	??$_Emplace_reallocate@ABH@?$vector@HV?$allocator@H@std@@@std@@AAEPAHQAHABH@Z ; std::vector<int,std::allocator<int> >::_Emplace_reallocate<int const &>
PUBLIC	??$_Copy_memmove@PAHPAH@std@@YAPAHPAH00@Z	; std::_Copy_memmove<int *,int *>
PUBLIC	??$_Erase_tree@V?$allocator@U?$_Tree_node@U?$pair@$$CBKK@std@@PAX@std@@@std@@@?$_Tree_val@U?$_Tree_simple_types@U?$pair@$$CBKK@std@@@std@@@std@@QAEXAAV?$allocator@U?$_Tree_node@U?$pair@$$CBKK@std@@PAX@std@@@1@PAU?$_Tree_node@U?$pair@$$CBKK@std@@PAX@1@@Z ; std::_Tree_val<std::_Tree_simple_types<std::pair<unsigned long const ,unsigned long> > >::_Erase_tree<std::allocator<std::_Tree_node<std::pair<unsigned long const ,unsigned long>,void *> > >
PUBLIC	??$_Copy_memmove_tail@PAH@std@@YAPAHQBDQAHII@Z	; std::_Copy_memmove_tail<int *>
PUBLIC	??_7exception@std@@6B@				; std::exception::`vftable'
PUBLIC	??_C@_0BC@EOODALEL@Unknown?5exception@		; `string'
PUBLIC	??_7bad_alloc@std@@6B@				; std::bad_alloc::`vftable'
PUBLIC	??_7bad_array_new_length@std@@6B@		; std::bad_array_new_length::`vftable'
PUBLIC	??_C@_0BF@KINCDENJ@bad?5array?5new?5length@	; `string'
PUBLIC	??_R0?AVexception@std@@@8			; std::exception `RTTI Type Descriptor'
PUBLIC	__CT??_R0?AVexception@std@@@8??0exception@std@@QAE@ABV01@@Z12
PUBLIC	__TI3?AVbad_array_new_length@std@@
PUBLIC	__CTA3?AVbad_array_new_length@std@@
PUBLIC	??_R0?AVbad_array_new_length@std@@@8		; std::bad_array_new_length `RTTI Type Descriptor'
PUBLIC	__CT??_R0?AVbad_array_new_length@std@@@8??0bad_array_new_length@std@@QAE@ABV01@@Z12
PUBLIC	??_R0?AVbad_alloc@std@@@8			; std::bad_alloc `RTTI Type Descriptor'
PUBLIC	__CT??_R0?AVbad_alloc@std@@@8??0bad_alloc@std@@QAE@ABV01@@Z12
PUBLIC	??_C@_0BB@GCADKGJO@map?1set?5too?5long@		; `string'
PUBLIC	??_C@_0BA@FOIKENOD@vector?5too?5long@		; `string'
PUBLIC	??_R4exception@std@@6B@				; std::exception::`RTTI Complete Object Locator'
PUBLIC	??_R3exception@std@@8				; std::exception::`RTTI Class Hierarchy Descriptor'
PUBLIC	??_R2exception@std@@8				; std::exception::`RTTI Base Class Array'
PUBLIC	??_R1A@?0A@EA@exception@std@@8			; std::exception::`RTTI Base Class Descriptor at (0,-1,0,64)'
PUBLIC	??_R4bad_array_new_length@std@@6B@		; std::bad_array_new_length::`RTTI Complete Object Locator'
PUBLIC	??_R3bad_array_new_length@std@@8		; std::bad_array_new_length::`RTTI Class Hierarchy Descriptor'
PUBLIC	??_R2bad_array_new_length@std@@8		; std::bad_array_new_length::`RTTI Base Class Array'
PUBLIC	??_R1A@?0A@EA@bad_array_new_length@std@@8	; std::bad_array_new_length::`RTTI Base Class Descriptor at (0,-1,0,64)'
PUBLIC	??_R1A@?0A@EA@bad_alloc@std@@8			; std::bad_alloc::`RTTI Base Class Descriptor at (0,-1,0,64)'
PUBLIC	??_R3bad_alloc@std@@8				; std::bad_alloc::`RTTI Class Hierarchy Descriptor'
PUBLIC	??_R2bad_alloc@std@@8				; std::bad_alloc::`RTTI Base Class Array'
PUBLIC	??_R4bad_alloc@std@@6B@				; std::bad_alloc::`RTTI Complete Object Locator'
PUBLIC	??_C@_04OEDFLLKD@?$CC?$CFs?$CC@			; `string'
PUBLIC	??_C@_0BC@OJIPGJOP@Add?5Pupil?5failed?$CB@	; `string'
PUBLIC	??_C@_0BL@GFJOFHBB@Add?5Master?5?$CG?5Pupil?5failed?$CB@ ; `string'
PUBLIC	??_C@_0L@PGLAAALA@Campus?4lua@			; `string'
PUBLIC	??_C@_0BK@HAENFKOM@Campus?4lua?5Load?5Failed?$CB?$CB?$CB@ ; `string'
PUBLIC	??_C@_0N@FPCGBAAD@RecoveryTime@			; `string'
PUBLIC	??_C@_0O@EFODAEFI@RecoveryPoint@		; `string'
PUBLIC	??_C@_0N@FGBHEDOH@tCampusQuest@			; `string'
PUBLIC	??_C@_0L@IJFPJDFF@strQuestId@			; `string'
PUBLIC	??_C@_0M@OBFMMEAP@tCampusBuff@			; `string'
PUBLIC	??_C@_06FJFCPHDD@nLevel@			; `string'
PUBLIC	??_C@_09LMKPGHNK@strBuffId@			; `string'
PUBLIC	??_C@_0O@OJCKPBHJ@tCampusReward@		; `string'
PUBLIC	??_C@_0O@DCEIBGGG@nMasterReward@		; `string'
PUBLIC	??_C@_0N@EEKCBEOO@nPupilReward@			; `string'
EXTRN	??2@YAPAXI@Z:PROC				; operator new
EXTRN	??3@YAXPAXI@Z:PROC				; operator delete
EXTRN	_atexit:PROC
EXTRN	__Init_thread_header:PROC
EXTRN	__Init_thread_abort:PROC
EXTRN	__Init_thread_footer:PROC
EXTRN	__invoke_watson:PROC
EXTRN	_exit:PROC
EXTRN	___std_exception_copy:PROC
EXTRN	___std_exception_destroy:PROC
EXTRN	??_Eexception@std@@UAEPAXI@Z:PROC		; std::exception::`vector deleting destructor'
EXTRN	??_Ebad_alloc@std@@UAEPAXI@Z:PROC		; std::bad_alloc::`vector deleting destructor'
EXTRN	??_Ebad_array_new_length@std@@UAEPAXI@Z:PROC	; std::bad_array_new_length::`vector deleting destructor'
EXTRN	?_Xlength_error@std@@YAXPBD@Z:PROC		; std::_Xlength_error
EXTRN	?GetDefineNum@CScript@@SAHPBD@Z:PROC		; CScript::GetDefineNum
EXTRN	?Error@@YAPBDPBDZZ:PROC				; Error
EXTRN	_lua_pushnil:PROC
EXTRN	_lua_getglobal:PROC
EXTRN	_lua_next:PROC
EXTRN	??0CLuaBase@@QAE@XZ:PROC			; CLuaBase::CLuaBase
EXTRN	??1CLuaBase@@UAE@XZ:PROC			; CLuaBase::~CLuaBase
EXTRN	?RunScript@CLuaBase@@QAEHPBD@Z:PROC		; CLuaBase::RunScript
EXTRN	?Pop@CLuaBase@@QAEXH@Z:PROC			; CLuaBase::Pop
EXTRN	?GetGlobalNumber@CLuaBase@@QAENPAD@Z:PROC	; CLuaBase::GetGlobalNumber
EXTRN	?GetFieldToNumber@CLuaBase@@QAENHPAD@Z:PROC	; CLuaBase::GetFieldToNumber
EXTRN	?GetFieldToString@CLuaBase@@QAEPBDHPAD@Z:PROC	; CLuaBase::GetFieldToString
EXTRN	?IsCompleteQuest@CMover@@QAEHH@Z:PROC		; CMover::IsCompleteQuest
EXTRN	?GetName@CMover@@QAEPBDH@Z:PROC			; CMover::GetName
EXTRN	?GetJob@CMover@@QAEHXZ:PROC			; CMover::GetJob
EXTRN	??0CCampusMember@@QAE@XZ:PROC			; CCampusMember::CCampusMember
EXTRN	??1CCampusMember@@QAE@XZ:PROC			; CCampusMember::~CCampusMember
EXTRN	??0CCampus@@QAE@XZ:PROC				; CCampus::CCampus
EXTRN	?IsPupil@CCampus@@QAEHK@Z:PROC			; CCampus::IsPupil
EXTRN	?GetPupilNum@CCampus@@QAEHXZ:PROC		; CCampus::GetPupilNum
EXTRN	?GetAllMemberPlayerId@CCampus@@QAE?AV?$vector@KV?$allocator@K@std@@@std@@XZ:PROC ; CCampus::GetAllMemberPlayerId
EXTRN	?IsMember@CCampus@@QAEHK@Z:PROC			; CCampus::IsMember
EXTRN	?AddMember@CCampus@@QAEHPAVCCampusMember@@@Z:PROC ; CCampus::AddMember
EXTRN	?RemoveMember@CCampus@@QAEHK@Z:PROC		; CCampus::RemoveMember
EXTRN	??0CCampusMng@@QAE@XZ:PROC			; CCampusMng::CCampusMng
EXTRN	??1CCampusMng@@QAE@XZ:PROC			; CCampusMng::~CCampusMng
EXTRN	?AddCampus@CCampusMng@@QAEKPAVCCampus@@@Z:PROC	; CCampusMng::AddCampus
EXTRN	?RemoveCampus@CCampusMng@@QAEHK@Z:PROC		; CCampusMng::RemoveCampus
EXTRN	?GetCampus@CCampusMng@@QAEPAVCCampus@@K@Z:PROC	; CCampusMng::GetCampus
EXTRN	?AddPlayerId2CampusId@CCampusMng@@QAE_NKK@Z:PROC ; CCampusMng::AddPlayerId2CampusId
EXTRN	?GetCampusIdByPlayerId@CCampusMng@@QAEKK@Z:PROC	; CCampusMng::GetCampusIdByPlayerId
EXTRN	?GetInstance@CPlayerDataCenter@@SAPAV1@XZ:PROC	; CPlayerDataCenter::GetInstance
EXTRN	?GetPlayerData@CPlayerDataCenter@@QAEPAU_PlayerData@@K@Z:PROC ; CPlayerDataCenter::GetPlayerData
EXTRN	?AddDefinedText@CUser@@QAAXHPBDZZ:PROC		; CUser::AddDefinedText
EXTRN	?AddDefinedText@CUser@@QAEXH@Z:PROC		; CUser::AddDefinedText
EXTRN	?AddQueryPlayerData@CUser@@QAEXKPAU_PlayerData@@@Z:PROC ; CUser::AddQueryPlayerData
EXTRN	?AddInviteCampusMember@CUser@@QAEXPAV1@@Z:PROC	; CUser::AddInviteCampusMember
EXTRN	?AddUpdateCampus@CUser@@QAEXPAVCCampus@@@Z:PROC	; CUser::AddUpdateCampus
EXTRN	?AddRemoveCampus@CUser@@QAEXK@Z:PROC		; CUser::AddRemoveCampus
EXTRN	?AddUpdateCampusPoint@CUser@@QAEXH@Z:PROC	; CUser::AddUpdateCampusPoint
EXTRN	?GetUserByPlayerID@CUserMng@@QAEPAVCUser@@K@Z:PROC ; CUserMng::GetUserByPlayerID
EXTRN	?SendAddCampusMember@CDPDatabaseClient@@QAEXKHKH@Z:PROC ; CDPDatabaseClient::SendAddCampusMember
EXTRN	?SendRemoveCampusMember@CDPDatabaseClient@@QAEXKK@Z:PROC ; CDPDatabaseClient::SendRemoveCampusMember
EXTRN	?SendUpdateCampusPoint@CDPDatabaseClient@@QAEXKHHD@Z:PROC ; CDPDatabaseClient::SendUpdateCampusPoint
EXTRN	@__security_check_cookie@4:PROC
EXTRN	__CxxThrowException@8:PROC
EXTRN	___CxxFrameHandler3:PROC
EXTRN	__ftol2:PROC
EXTRN	__ftol2_sse:PROC
EXTRN	_memmove:PROC
EXTRN	__Init_thread_epoch:DWORD
EXTRN	??_7type_info@@6B@:QWORD			; type_info::`vftable'
EXTRN	?g_UserMng@@3VCUserMng@@A:BYTE			; g_UserMng
EXTRN	?g_dpDBClient@@3VCDPDatabaseClient@@A:BYTE	; g_dpDBClient
EXTRN	___security_cookie:DWORD
EXTRN	__fltused:DWORD
EXTRN	__tls_array:DWORD
EXTRN	__tls_index:DWORD
;	COMDAT ?sCH@?1??GetInstance@CCampusHelper@@SAPAV2@XZ@4V2@A
_BSS	SEGMENT
?sCH@?1??GetInstance@CCampusHelper@@SAPAV2@XZ@4V2@A DB 028H DUP (?) ; `CCampusHelper::GetInstance'::`2'::sCH
_BSS	ENDS
;	COMDAT ?$TSS0@?1??GetInstance@CCampusHelper@@SAPAV2@XZ@4HA
_BSS	SEGMENT
?$TSS0@?1??GetInstance@CCampusHelper@@SAPAV2@XZ@4HA DD 01H DUP (?) ; `CCampusHelper::GetInstance'::`2'::$TSS0
_BSS	ENDS
;	COMDAT ??_C@_0N@EEKCBEOO@nPupilReward@
CONST	SEGMENT
??_C@_0N@EEKCBEOO@nPupilReward@ DB 'nPupilReward', 00H	; `string'
CONST	ENDS
;	COMDAT ??_C@_0O@DCEIBGGG@nMasterReward@
CONST	SEGMENT
??_C@_0O@DCEIBGGG@nMasterReward@ DB 'nMasterReward', 00H ; `string'
CONST	ENDS
;	COMDAT ??_C@_0O@OJCKPBHJ@tCampusReward@
CONST	SEGMENT
??_C@_0O@OJCKPBHJ@tCampusReward@ DB 'tCampusReward', 00H ; `string'
CONST	ENDS
;	COMDAT ??_C@_09LMKPGHNK@strBuffId@
CONST	SEGMENT
??_C@_09LMKPGHNK@strBuffId@ DB 'strBuffId', 00H		; `string'
CONST	ENDS
;	COMDAT ??_C@_06FJFCPHDD@nLevel@
CONST	SEGMENT
??_C@_06FJFCPHDD@nLevel@ DB 'nLevel', 00H		; `string'
CONST	ENDS
;	COMDAT ??_C@_0M@OBFMMEAP@tCampusBuff@
CONST	SEGMENT
??_C@_0M@OBFMMEAP@tCampusBuff@ DB 'tCampusBuff', 00H	; `string'
CONST	ENDS
;	COMDAT ??_C@_0L@IJFPJDFF@strQuestId@
CONST	SEGMENT
??_C@_0L@IJFPJDFF@strQuestId@ DB 'strQuestId', 00H	; `string'
CONST	ENDS
;	COMDAT ??_C@_0N@FGBHEDOH@tCampusQuest@
CONST	SEGMENT
??_C@_0N@FGBHEDOH@tCampusQuest@ DB 'tCampusQuest', 00H	; `string'
CONST	ENDS
;	COMDAT ??_C@_0O@EFODAEFI@RecoveryPoint@
CONST	SEGMENT
??_C@_0O@EFODAEFI@RecoveryPoint@ DB 'RecoveryPoint', 00H ; `string'
CONST	ENDS
;	COMDAT ??_C@_0N@FPCGBAAD@RecoveryTime@
CONST	SEGMENT
??_C@_0N@FPCGBAAD@RecoveryTime@ DB 'RecoveryTime', 00H	; `string'
CONST	ENDS
;	COMDAT ??_C@_0BK@HAENFKOM@Campus?4lua?5Load?5Failed?$CB?$CB?$CB@
CONST	SEGMENT
??_C@_0BK@HAENFKOM@Campus?4lua?5Load?5Failed?$CB?$CB?$CB@ DB 'Campus.lua '
	DB	'Load Failed!!!', 00H			; `string'
CONST	ENDS
;	COMDAT ??_C@_0L@PGLAAALA@Campus?4lua@
CONST	SEGMENT
??_C@_0L@PGLAAALA@Campus?4lua@ DB 'Campus.lua', 00H	; `string'
CONST	ENDS
;	COMDAT ??_C@_0BL@GFJOFHBB@Add?5Master?5?$CG?5Pupil?5failed?$CB@
CONST	SEGMENT
??_C@_0BL@GFJOFHBB@Add?5Master?5?$CG?5Pupil?5failed?$CB@ DB 'Add Master &'
	DB	' Pupil failed!', 00H			; `string'
CONST	ENDS
;	COMDAT ??_C@_0BC@OJIPGJOP@Add?5Pupil?5failed?$CB@
CONST	SEGMENT
??_C@_0BC@OJIPGJOP@Add?5Pupil?5failed?$CB@ DB 'Add Pupil failed!', 00H ; `string'
CONST	ENDS
;	COMDAT ??_C@_04OEDFLLKD@?$CC?$CFs?$CC@
CONST	SEGMENT
??_C@_04OEDFLLKD@?$CC?$CFs?$CC@ DB '"%s"', 00H		; `string'
CONST	ENDS
;	COMDAT ??_R4bad_alloc@std@@6B@
rdata$r	SEGMENT
??_R4bad_alloc@std@@6B@ DD 00H				; std::bad_alloc::`RTTI Complete Object Locator'
	DD	00H
	DD	00H
	DD	FLAT:??_R0?AVbad_alloc@std@@@8
	DD	FLAT:??_R3bad_alloc@std@@8
rdata$r	ENDS
;	COMDAT ??_R2bad_alloc@std@@8
rdata$r	SEGMENT
??_R2bad_alloc@std@@8 DD FLAT:??_R1A@?0A@EA@bad_alloc@std@@8 ; std::bad_alloc::`RTTI Base Class Array'
	DD	FLAT:??_R1A@?0A@EA@exception@std@@8
rdata$r	ENDS
;	COMDAT ??_R3bad_alloc@std@@8
rdata$r	SEGMENT
??_R3bad_alloc@std@@8 DD 00H				; std::bad_alloc::`RTTI Class Hierarchy Descriptor'
	DD	00H
	DD	02H
	DD	FLAT:??_R2bad_alloc@std@@8
rdata$r	ENDS
;	COMDAT ??_R1A@?0A@EA@bad_alloc@std@@8
rdata$r	SEGMENT
??_R1A@?0A@EA@bad_alloc@std@@8 DD FLAT:??_R0?AVbad_alloc@std@@@8 ; std::bad_alloc::`RTTI Base Class Descriptor at (0,-1,0,64)'
	DD	01H
	DD	00H
	DD	0ffffffffH
	DD	00H
	DD	040H
	DD	FLAT:??_R3bad_alloc@std@@8
rdata$r	ENDS
;	COMDAT ??_R1A@?0A@EA@bad_array_new_length@std@@8
rdata$r	SEGMENT
??_R1A@?0A@EA@bad_array_new_length@std@@8 DD FLAT:??_R0?AVbad_array_new_length@std@@@8 ; std::bad_array_new_length::`RTTI Base Class Descriptor at (0,-1,0,64)'
	DD	02H
	DD	00H
	DD	0ffffffffH
	DD	00H
	DD	040H
	DD	FLAT:??_R3bad_array_new_length@std@@8
rdata$r	ENDS
;	COMDAT ??_R2bad_array_new_length@std@@8
rdata$r	SEGMENT
??_R2bad_array_new_length@std@@8 DD FLAT:??_R1A@?0A@EA@bad_array_new_length@std@@8 ; std::bad_array_new_length::`RTTI Base Class Array'
	DD	FLAT:??_R1A@?0A@EA@bad_alloc@std@@8
	DD	FLAT:??_R1A@?0A@EA@exception@std@@8
rdata$r	ENDS
;	COMDAT ??_R3bad_array_new_length@std@@8
rdata$r	SEGMENT
??_R3bad_array_new_length@std@@8 DD 00H			; std::bad_array_new_length::`RTTI Class Hierarchy Descriptor'
	DD	00H
	DD	03H
	DD	FLAT:??_R2bad_array_new_length@std@@8
rdata$r	ENDS
;	COMDAT ??_R4bad_array_new_length@std@@6B@
rdata$r	SEGMENT
??_R4bad_array_new_length@std@@6B@ DD 00H		; std::bad_array_new_length::`RTTI Complete Object Locator'
	DD	00H
	DD	00H
	DD	FLAT:??_R0?AVbad_array_new_length@std@@@8
	DD	FLAT:??_R3bad_array_new_length@std@@8
rdata$r	ENDS
;	COMDAT ??_R1A@?0A@EA@exception@std@@8
rdata$r	SEGMENT
??_R1A@?0A@EA@exception@std@@8 DD FLAT:??_R0?AVexception@std@@@8 ; std::exception::`RTTI Base Class Descriptor at (0,-1,0,64)'
	DD	00H
	DD	00H
	DD	0ffffffffH
	DD	00H
	DD	040H
	DD	FLAT:??_R3exception@std@@8
rdata$r	ENDS
;	COMDAT ??_R2exception@std@@8
rdata$r	SEGMENT
??_R2exception@std@@8 DD FLAT:??_R1A@?0A@EA@exception@std@@8 ; std::exception::`RTTI Base Class Array'
rdata$r	ENDS
;	COMDAT ??_R3exception@std@@8
rdata$r	SEGMENT
??_R3exception@std@@8 DD 00H				; std::exception::`RTTI Class Hierarchy Descriptor'
	DD	00H
	DD	01H
	DD	FLAT:??_R2exception@std@@8
rdata$r	ENDS
;	COMDAT ??_R4exception@std@@6B@
rdata$r	SEGMENT
??_R4exception@std@@6B@ DD 00H				; std::exception::`RTTI Complete Object Locator'
	DD	00H
	DD	00H
	DD	FLAT:??_R0?AVexception@std@@@8
	DD	FLAT:??_R3exception@std@@8
rdata$r	ENDS
;	COMDAT ??_C@_0BA@FOIKENOD@vector?5too?5long@
CONST	SEGMENT
??_C@_0BA@FOIKENOD@vector?5too?5long@ DB 'vector too long', 00H ; `string'
CONST	ENDS
;	COMDAT ??_C@_0BB@GCADKGJO@map?1set?5too?5long@
CONST	SEGMENT
??_C@_0BB@GCADKGJO@map?1set?5too?5long@ DB 'map/set too long', 00H ; `string'
CONST	ENDS
;	COMDAT __CT??_R0?AVbad_alloc@std@@@8??0bad_alloc@std@@QAE@ABV01@@Z12
xdata$x	SEGMENT
__CT??_R0?AVbad_alloc@std@@@8??0bad_alloc@std@@QAE@ABV01@@Z12 DD 010H
	DD	FLAT:??_R0?AVbad_alloc@std@@@8
	DD	00H
	DD	0ffffffffH
	ORG $+4
	DD	0cH
	DD	FLAT:??0bad_alloc@std@@QAE@ABV01@@Z
xdata$x	ENDS
;	COMDAT ??_R0?AVbad_alloc@std@@@8
data$r	SEGMENT
??_R0?AVbad_alloc@std@@@8 DD FLAT:??_7type_info@@6B@	; std::bad_alloc `RTTI Type Descriptor'
	DD	00H
	DB	'.?AVbad_alloc@std@@', 00H
data$r	ENDS
;	COMDAT __CT??_R0?AVbad_array_new_length@std@@@8??0bad_array_new_length@std@@QAE@ABV01@@Z12
xdata$x	SEGMENT
__CT??_R0?AVbad_array_new_length@std@@@8??0bad_array_new_length@std@@QAE@ABV01@@Z12 DD 00H
	DD	FLAT:??_R0?AVbad_array_new_length@std@@@8
	DD	00H
	DD	0ffffffffH
	ORG $+4
	DD	0cH
	DD	FLAT:??0bad_array_new_length@std@@QAE@ABV01@@Z
xdata$x	ENDS
;	COMDAT ??_R0?AVbad_array_new_length@std@@@8
data$r	SEGMENT
??_R0?AVbad_array_new_length@std@@@8 DD FLAT:??_7type_info@@6B@ ; std::bad_array_new_length `RTTI Type Descriptor'
	DD	00H
	DB	'.?AVbad_array_new_length@std@@', 00H
data$r	ENDS
;	COMDAT __CTA3?AVbad_array_new_length@std@@
xdata$x	SEGMENT
__CTA3?AVbad_array_new_length@std@@ DD 03H
	DD	FLAT:__CT??_R0?AVbad_array_new_length@std@@@8??0bad_array_new_length@std@@QAE@ABV01@@Z12
	DD	FLAT:__CT??_R0?AVbad_alloc@std@@@8??0bad_alloc@std@@QAE@ABV01@@Z12
	DD	FLAT:__CT??_R0?AVexception@std@@@8??0exception@std@@QAE@ABV01@@Z12
xdata$x	ENDS
;	COMDAT __TI3?AVbad_array_new_length@std@@
xdata$x	SEGMENT
__TI3?AVbad_array_new_length@std@@ DD 00H
	DD	FLAT:??1bad_array_new_length@std@@UAE@XZ
	DD	00H
	DD	FLAT:__CTA3?AVbad_array_new_length@std@@
xdata$x	ENDS
;	COMDAT __CT??_R0?AVexception@std@@@8??0exception@std@@QAE@ABV01@@Z12
xdata$x	SEGMENT
__CT??_R0?AVexception@std@@@8??0exception@std@@QAE@ABV01@@Z12 DD 00H
	DD	FLAT:??_R0?AVexception@std@@@8
	DD	00H
	DD	0ffffffffH
	ORG $+4
	DD	0cH
	DD	FLAT:??0exception@std@@QAE@ABV01@@Z
xdata$x	ENDS
;	COMDAT ??_R0?AVexception@std@@@8
data$r	SEGMENT
??_R0?AVexception@std@@@8 DD FLAT:??_7type_info@@6B@	; std::exception `RTTI Type Descriptor'
	DD	00H
	DB	'.?AVexception@std@@', 00H
data$r	ENDS
;	COMDAT ??_C@_0BF@KINCDENJ@bad?5array?5new?5length@
CONST	SEGMENT
??_C@_0BF@KINCDENJ@bad?5array?5new?5length@ DB 'bad array new length', 00H ; `string'
CONST	ENDS
;	COMDAT ??_7bad_array_new_length@std@@6B@
CONST	SEGMENT
??_7bad_array_new_length@std@@6B@ DD FLAT:??_R4bad_array_new_length@std@@6B@ ; std::bad_array_new_length::`vftable'
	DD	FLAT:??_Ebad_array_new_length@std@@UAEPAXI@Z
	DD	FLAT:?what@exception@std@@UBEPBDXZ
CONST	ENDS
;	COMDAT ??_7bad_alloc@std@@6B@
CONST	SEGMENT
??_7bad_alloc@std@@6B@ DD FLAT:??_R4bad_alloc@std@@6B@	; std::bad_alloc::`vftable'
	DD	FLAT:??_Ebad_alloc@std@@UAEPAXI@Z
	DD	FLAT:?what@exception@std@@UBEPBDXZ
CONST	ENDS
;	COMDAT ??_C@_0BC@EOODALEL@Unknown?5exception@
CONST	SEGMENT
??_C@_0BC@EOODALEL@Unknown?5exception@ DB 'Unknown exception', 00H ; `string'
CONST	ENDS
;	COMDAT ??_7exception@std@@6B@
CONST	SEGMENT
??_7exception@std@@6B@ DD FLAT:??_R4exception@std@@6B@	; std::exception::`vftable'
	DD	FLAT:??_Eexception@std@@UAEPAXI@Z
	DD	FLAT:?what@exception@std@@UBEPBDXZ
CONST	ENDS
;	COMDAT xdata$x
xdata$x	SEGMENT
__unwindtable$??$?0U?$pair@$$CBHUREWARD@CCampusHelper@@@std@@@?$_Tree_temp_node@V?$allocator@U?$_Tree_node@U?$pair@$$CBHUREWARD@CCampusHelper@@@std@@PAX@std@@@std@@@std@@QAE@AAV?$allocator@U?$_Tree_node@U?$pair@$$CBHUREWARD@CCampusHelper@@@std@@PAX@std@@@1@PAU?$_Tree_node@U?$pair@$$CBHUREWARD@CCampusHelper@@@std@@PAX@1@$$QAU?$pair@$$CBHUREWARD@CCampusHelper@@@1@@Z DD 0ffffffffH
	DD	FLAT:__unwindfunclet$??$?0U?$pair@$$CBHUREWARD@CCampusHelper@@@std@@@?$_Tree_temp_node@V?$allocator@U?$_Tree_node@U?$pair@$$CBHUREWARD@CCampusHelper@@@std@@PAX@std@@@std@@@std@@QAE@AAV?$allocator@U?$_Tree_node@U?$pair@$$CBHUREWARD@CCampusHelper@@@std@@PAX@std@@@1@PAU?$_Tree_node@U?$pair@$$CBHUREWARD@CCampusHelper@@@std@@PAX@1@$$QAU?$pair@$$CBHUREWARD@CCampusHelper@@@1@@Z$1
__ehfuncinfo$??$?0U?$pair@$$CBHUREWARD@CCampusHelper@@@std@@@?$_Tree_temp_node@V?$allocator@U?$_Tree_node@U?$pair@$$CBHUREWARD@CCampusHelper@@@std@@PAX@std@@@std@@@std@@QAE@AAV?$allocator@U?$_Tree_node@U?$pair@$$CBHUREWARD@CCampusHelper@@@std@@PAX@std@@@1@PAU?$_Tree_node@U?$pair@$$CBHUREWARD@CCampusHelper@@@std@@PAX@1@$$QAU?$pair@$$CBHUREWARD@CCampusHelper@@@1@@Z DD 019930522H
	DD	01H
	DD	FLAT:__unwindtable$??$?0U?$pair@$$CBHUREWARD@CCampusHelper@@@std@@@?$_Tree_temp_node@V?$allocator@U?$_Tree_node@U?$pair@$$CBHUREWARD@CCampusHelper@@@std@@PAX@std@@@std@@@std@@QAE@AAV?$allocator@U?$_Tree_node@U?$pair@$$CBHUREWARD@CCampusHelper@@@std@@PAX@std@@@1@PAU?$_Tree_node@U?$pair@$$CBHUREWARD@CCampusHelper@@@std@@PAX@1@$$QAU?$pair@$$CBHUREWARD@CCampusHelper@@@1@@Z
	DD	2 DUP(00H)
	DD	2 DUP(00H)
	DD	00H
	DD	01H
xdata$x	ENDS
;	COMDAT xdata$x
xdata$x	SEGMENT
__unwindtable$??0?$_Tree_temp_node_alloc@V?$allocator@U?$_Tree_node@U?$pair@$$CBHUREWARD@CCampusHelper@@@std@@PAX@std@@@std@@@std@@QAE@AAV?$allocator@U?$_Tree_node@U?$pair@$$CBHUREWARD@CCampusHelper@@@std@@PAX@std@@@1@@Z DD 0ffffffffH
	DD	FLAT:__unwindfunclet$??0?$_Tree_temp_node_alloc@V?$allocator@U?$_Tree_node@U?$pair@$$CBHUREWARD@CCampusHelper@@@std@@PAX@std@@@std@@@std@@QAE@AAV?$allocator@U?$_Tree_node@U?$pair@$$CBHUREWARD@CCampusHelper@@@std@@PAX@std@@@1@@Z$0
__ehfuncinfo$??0?$_Tree_temp_node_alloc@V?$allocator@U?$_Tree_node@U?$pair@$$CBHUREWARD@CCampusHelper@@@std@@PAX@std@@@std@@@std@@QAE@AAV?$allocator@U?$_Tree_node@U?$pair@$$CBHUREWARD@CCampusHelper@@@std@@PAX@std@@@1@@Z DD 019930522H
	DD	01H
	DD	FLAT:__unwindtable$??0?$_Tree_temp_node_alloc@V?$allocator@U?$_Tree_node@U?$pair@$$CBHUREWARD@CCampusHelper@@@std@@PAX@std@@@std@@@std@@QAE@AAV?$allocator@U?$_Tree_node@U?$pair@$$CBHUREWARD@CCampusHelper@@@std@@PAX@std@@@1@@Z
	DD	2 DUP(00H)
	DD	2 DUP(00H)
	DD	00H
	DD	01H
xdata$x	ENDS
;	COMDAT xdata$x
xdata$x	SEGMENT
__unwindtable$??$?0U?$pair@$$CBHK@std@@@?$_Tree_temp_node@V?$allocator@U?$_Tree_node@U?$pair@$$CBHK@std@@PAX@std@@@std@@@std@@QAE@AAV?$allocator@U?$_Tree_node@U?$pair@$$CBHK@std@@PAX@std@@@1@PAU?$_Tree_node@U?$pair@$$CBHK@std@@PAX@1@$$QAU?$pair@$$CBHK@1@@Z DD 0ffffffffH
	DD	FLAT:__unwindfunclet$??$?0U?$pair@$$CBHK@std@@@?$_Tree_temp_node@V?$allocator@U?$_Tree_node@U?$pair@$$CBHK@std@@PAX@std@@@std@@@std@@QAE@AAV?$allocator@U?$_Tree_node@U?$pair@$$CBHK@std@@PAX@std@@@1@PAU?$_Tree_node@U?$pair@$$CBHK@std@@PAX@1@$$QAU?$pair@$$CBHK@1@@Z$1
__ehfuncinfo$??$?0U?$pair@$$CBHK@std@@@?$_Tree_temp_node@V?$allocator@U?$_Tree_node@U?$pair@$$CBHK@std@@PAX@std@@@std@@@std@@QAE@AAV?$allocator@U?$_Tree_node@U?$pair@$$CBHK@std@@PAX@std@@@1@PAU?$_Tree_node@U?$pair@$$CBHK@std@@PAX@1@$$QAU?$pair@$$CBHK@1@@Z DD 019930522H
	DD	01H
	DD	FLAT:__unwindtable$??$?0U?$pair@$$CBHK@std@@@?$_Tree_temp_node@V?$allocator@U?$_Tree_node@U?$pair@$$CBHK@std@@PAX@std@@@std@@@std@@QAE@AAV?$allocator@U?$_Tree_node@U?$pair@$$CBHK@std@@PAX@std@@@1@PAU?$_Tree_node@U?$pair@$$CBHK@std@@PAX@1@$$QAU?$pair@$$CBHK@1@@Z
	DD	2 DUP(00H)
	DD	2 DUP(00H)
	DD	00H
	DD	01H
xdata$x	ENDS
;	COMDAT xdata$x
xdata$x	SEGMENT
__unwindtable$??0?$_Tree_temp_node_alloc@V?$allocator@U?$_Tree_node@U?$pair@$$CBHK@std@@PAX@std@@@std@@@std@@QAE@AAV?$allocator@U?$_Tree_node@U?$pair@$$CBHK@std@@PAX@std@@@1@@Z DD 0ffffffffH
	DD	FLAT:__unwindfunclet$??0?$_Tree_temp_node_alloc@V?$allocator@U?$_Tree_node@U?$pair@$$CBHK@std@@PAX@std@@@std@@@std@@QAE@AAV?$allocator@U?$_Tree_node@U?$pair@$$CBHK@std@@PAX@std@@@1@@Z$0
__ehfuncinfo$??0?$_Tree_temp_node_alloc@V?$allocator@U?$_Tree_node@U?$pair@$$CBHK@std@@PAX@std@@@std@@@std@@QAE@AAV?$allocator@U?$_Tree_node@U?$pair@$$CBHK@std@@PAX@std@@@1@@Z DD 019930522H
	DD	01H
	DD	FLAT:__unwindtable$??0?$_Tree_temp_node_alloc@V?$allocator@U?$_Tree_node@U?$pair@$$CBHK@std@@PAX@std@@@std@@@std@@QAE@AAV?$allocator@U?$_Tree_node@U?$pair@$$CBHK@std@@PAX@std@@@1@@Z
	DD	2 DUP(00H)
	DD	2 DUP(00H)
	DD	00H
	DD	01H
xdata$x	ENDS
;	COMDAT xdata$x
xdata$x	SEGMENT
__unwindtable$??$_Emplace@U?$pair@$$CBHUREWARD@CCampusHelper@@@std@@@?$_Tree@V?$_Tmap_traits@HUREWARD@CCampusHelper@@U?$less@H@std@@V?$allocator@U?$pair@$$CBHUREWARD@CCampusHelper@@@std@@@4@$0A@@std@@@std@@IAE?AU?$pair@PAU?$_Tree_node@U?$pair@$$CBHUREWARD@CCampusHelper@@@std@@PAX@std@@_N@1@$$QAU?$pair@$$CBHUREWARD@CCampusHelper@@@1@@Z DD 0ffffffffH
	DD	FLAT:__unwindfunclet$??$_Emplace@U?$pair@$$CBHUREWARD@CCampusHelper@@@std@@@?$_Tree@V?$_Tmap_traits@HUREWARD@CCampusHelper@@U?$less@H@std@@V?$allocator@U?$pair@$$CBHUREWARD@CCampusHelper@@@std@@@4@$0A@@std@@@std@@IAE?AU?$pair@PAU?$_Tree_node@U?$pair@$$CBHUREWARD@CCampusHelper@@@std@@PAX@std@@_N@1@$$QAU?$pair@$$CBHUREWARD@CCampusHelper@@@1@@Z$2
__ehfuncinfo$??$_Emplace@U?$pair@$$CBHUREWARD@CCampusHelper@@@std@@@?$_Tree@V?$_Tmap_traits@HUREWARD@CCampusHelper@@U?$less@H@std@@V?$allocator@U?$pair@$$CBHUREWARD@CCampusHelper@@@std@@@4@$0A@@std@@@std@@IAE?AU?$pair@PAU?$_Tree_node@U?$pair@$$CBHUREWARD@CCampusHelper@@@std@@PAX@std@@_N@1@$$QAU?$pair@$$CBHUREWARD@CCampusHelper@@@1@@Z DD 019930522H
	DD	01H
	DD	FLAT:__unwindtable$??$_Emplace@U?$pair@$$CBHUREWARD@CCampusHelper@@@std@@@?$_Tree@V?$_Tmap_traits@HUREWARD@CCampusHelper@@U?$less@H@std@@V?$allocator@U?$pair@$$CBHUREWARD@CCampusHelper@@@std@@@4@$0A@@std@@@std@@IAE?AU?$pair@PAU?$_Tree_node@U?$pair@$$CBHUREWARD@CCampusHelper@@@std@@PAX@std@@_N@1@$$QAU?$pair@$$CBHUREWARD@CCampusHelper@@@1@@Z
	DD	2 DUP(00H)
	DD	2 DUP(00H)
	DD	00H
	DD	01H
xdata$x	ENDS
;	COMDAT xdata$x
xdata$x	SEGMENT
__unwindtable$??$_Emplace@U?$pair@$$CBHK@std@@@?$_Tree@V?$_Tmap_traits@HKU?$less@H@std@@V?$allocator@U?$pair@$$CBHK@std@@@2@$0A@@std@@@std@@IAE?AU?$pair@PAU?$_Tree_node@U?$pair@$$CBHK@std@@PAX@std@@_N@1@$$QAU?$pair@$$CBHK@1@@Z DD 0ffffffffH
	DD	FLAT:__unwindfunclet$??$_Emplace@U?$pair@$$CBHK@std@@@?$_Tree@V?$_Tmap_traits@HKU?$less@H@std@@V?$allocator@U?$pair@$$CBHK@std@@@2@$0A@@std@@@std@@IAE?AU?$pair@PAU?$_Tree_node@U?$pair@$$CBHK@std@@PAX@std@@_N@1@$$QAU?$pair@$$CBHK@1@@Z$2
__ehfuncinfo$??$_Emplace@U?$pair@$$CBHK@std@@@?$_Tree@V?$_Tmap_traits@HKU?$less@H@std@@V?$allocator@U?$pair@$$CBHK@std@@@2@$0A@@std@@@std@@IAE?AU?$pair@PAU?$_Tree_node@U?$pair@$$CBHK@std@@PAX@std@@_N@1@$$QAU?$pair@$$CBHK@1@@Z DD 019930522H
	DD	01H
	DD	FLAT:__unwindtable$??$_Emplace@U?$pair@$$CBHK@std@@@?$_Tree@V?$_Tmap_traits@HKU?$less@H@std@@V?$allocator@U?$pair@$$CBHK@std@@@2@$0A@@std@@@std@@IAE?AU?$pair@PAU?$_Tree_node@U?$pair@$$CBHK@std@@PAX@std@@_N@1@$$QAU?$pair@$$CBHK@1@@Z
	DD	2 DUP(00H)
	DD	2 DUP(00H)
	DD	00H
	DD	01H
xdata$x	ENDS
;	COMDAT xdata$x
xdata$x	SEGMENT
__unwindtable$??$insert@$0A@$0A@@?$_Tree@V?$_Tmap_traits@HUREWARD@CCampusHelper@@U?$less@H@std@@V?$allocator@U?$pair@$$CBHUREWARD@CCampusHelper@@@std@@@4@$0A@@std@@@std@@QAE?AU?$pair@V?$_Tree_iterator@V?$_Tree_val@U?$_Tree_simple_types@U?$pair@$$CBHUREWARD@CCampusHelper@@@std@@@std@@@std@@@std@@_N@1@$$QAU?$pair@$$CBHUREWARD@CCampusHelper@@@1@@Z DD 0ffffffffH
	DD	FLAT:__unwindfunclet$??$insert@$0A@$0A@@?$_Tree@V?$_Tmap_traits@HUREWARD@CCampusHelper@@U?$less@H@std@@V?$allocator@U?$pair@$$CBHUREWARD@CCampusHelper@@@std@@@4@$0A@@std@@@std@@QAE?AU?$pair@V?$_Tree_iterator@V?$_Tree_val@U?$_Tree_simple_types@U?$pair@$$CBHUREWARD@CCampusHelper@@@std@@@std@@@std@@@std@@_N@1@$$QAU?$pair@$$CBHUREWARD@CCampusHelper@@@1@@Z$2
__ehfuncinfo$??$insert@$0A@$0A@@?$_Tree@V?$_Tmap_traits@HUREWARD@CCampusHelper@@U?$less@H@std@@V?$allocator@U?$pair@$$CBHUREWARD@CCampusHelper@@@std@@@4@$0A@@std@@@std@@QAE?AU?$pair@V?$_Tree_iterator@V?$_Tree_val@U?$_Tree_simple_types@U?$pair@$$CBHUREWARD@CCampusHelper@@@std@@@std@@@std@@@std@@_N@1@$$QAU?$pair@$$CBHUREWARD@CCampusHelper@@@1@@Z DD 019930522H
	DD	01H
	DD	FLAT:__unwindtable$??$insert@$0A@$0A@@?$_Tree@V?$_Tmap_traits@HUREWARD@CCampusHelper@@U?$less@H@std@@V?$allocator@U?$pair@$$CBHUREWARD@CCampusHelper@@@std@@@4@$0A@@std@@@std@@QAE?AU?$pair@V?$_Tree_iterator@V?$_Tree_val@U?$_Tree_simple_types@U?$pair@$$CBHUREWARD@CCampusHelper@@@std@@@std@@@std@@@std@@_N@1@$$QAU?$pair@$$CBHUREWARD@CCampusHelper@@@1@@Z
	DD	2 DUP(00H)
	DD	2 DUP(00H)
	DD	00H
	DD	01H
xdata$x	ENDS
;	COMDAT xdata$x
xdata$x	SEGMENT
__unwindtable$??$insert@$0A@$0A@@?$_Tree@V?$_Tmap_traits@HKU?$less@H@std@@V?$allocator@U?$pair@$$CBHK@std@@@2@$0A@@std@@@std@@QAE?AU?$pair@V?$_Tree_iterator@V?$_Tree_val@U?$_Tree_simple_types@U?$pair@$$CBHK@std@@@std@@@std@@@std@@_N@1@$$QAU?$pair@$$CBHK@1@@Z DD 0ffffffffH
	DD	FLAT:__unwindfunclet$??$insert@$0A@$0A@@?$_Tree@V?$_Tmap_traits@HKU?$less@H@std@@V?$allocator@U?$pair@$$CBHK@std@@@2@$0A@@std@@@std@@QAE?AU?$pair@V?$_Tree_iterator@V?$_Tree_val@U?$_Tree_simple_types@U?$pair@$$CBHK@std@@@std@@@std@@@std@@_N@1@$$QAU?$pair@$$CBHK@1@@Z$2
__ehfuncinfo$??$insert@$0A@$0A@@?$_Tree@V?$_Tmap_traits@HKU?$less@H@std@@V?$allocator@U?$pair@$$CBHK@std@@@2@$0A@@std@@@std@@QAE?AU?$pair@V?$_Tree_iterator@V?$_Tree_val@U?$_Tree_simple_types@U?$pair@$$CBHK@std@@@std@@@std@@@std@@_N@1@$$QAU?$pair@$$CBHK@1@@Z DD 019930522H
	DD	01H
	DD	FLAT:__unwindtable$??$insert@$0A@$0A@@?$_Tree@V?$_Tmap_traits@HKU?$less@H@std@@V?$allocator@U?$pair@$$CBHK@std@@@2@$0A@@std@@@std@@QAE?AU?$pair@V?$_Tree_iterator@V?$_Tree_val@U?$_Tree_simple_types@U?$pair@$$CBHK@std@@@std@@@std@@@std@@_N@1@$$QAU?$pair@$$CBHK@1@@Z
	DD	2 DUP(00H)
	DD	2 DUP(00H)
	DD	00H
	DD	01H
xdata$x	ENDS
;	COMDAT xdata$x
xdata$x	SEGMENT
__unwindtable$?AddAllMemberRemoveCampus@CCampusHelper@@QAEXPAVCCampus@@@Z DD 0ffffffffH
	DD	FLAT:__unwindfunclet$?AddAllMemberRemoveCampus@CCampusHelper@@QAEXPAVCCampus@@@Z$0
__ehfuncinfo$?AddAllMemberRemoveCampus@CCampusHelper@@QAEXPAVCCampus@@@Z DD 019930522H
	DD	01H
	DD	FLAT:__unwindtable$?AddAllMemberRemoveCampus@CCampusHelper@@QAEXPAVCCampus@@@Z
	DD	2 DUP(00H)
	DD	2 DUP(00H)
	DD	00H
	DD	01H
xdata$x	ENDS
;	COMDAT xdata$x
xdata$x	SEGMENT
__unwindtable$?AddAllMemberUpdateCampus@CCampusHelper@@QAEXPAVCCampus@@@Z DD 0ffffffffH
	DD	FLAT:__unwindfunclet$?AddAllMemberUpdateCampus@CCampusHelper@@QAEXPAVCCampus@@@Z$0
__ehfuncinfo$?AddAllMemberUpdateCampus@CCampusHelper@@QAEXPAVCCampus@@@Z DD 019930522H
	DD	01H
	DD	FLAT:__unwindtable$?AddAllMemberUpdateCampus@CCampusHelper@@QAEXPAVCCampus@@@Z
	DD	2 DUP(00H)
	DD	2 DUP(00H)
	DD	00H
	DD	01H
xdata$x	ENDS
;	COMDAT xdata$x
xdata$x	SEGMENT
__unwindtable$?LoadScript@CCampusHelper@@QAEXXZ DD 0ffffffffH
	DD	FLAT:__unwindfunclet$?LoadScript@CCampusHelper@@QAEXXZ$0
	DD	00H
	DD	FLAT:__unwindfunclet$?LoadScript@CCampusHelper@@QAEXXZ$3
	DD	00H
	DD	FLAT:__unwindfunclet$?LoadScript@CCampusHelper@@QAEXXZ$8
__ehfuncinfo$?LoadScript@CCampusHelper@@QAEXXZ DD 019930522H
	DD	03H
	DD	FLAT:__unwindtable$?LoadScript@CCampusHelper@@QAEXXZ
	DD	2 DUP(00H)
	DD	2 DUP(00H)
	DD	00H
	DD	01H
xdata$x	ENDS
;	COMDAT xdata$x
xdata$x	SEGMENT
__unwindtable$?OnUpdatePlayerData@CCampusHelper@@QAEXKPAU_PlayerData@@@Z DD 0ffffffffH
	DD	FLAT:__unwindfunclet$?OnUpdatePlayerData@CCampusHelper@@QAEXKPAU_PlayerData@@@Z$0
__ehfuncinfo$?OnUpdatePlayerData@CCampusHelper@@QAEXKPAU_PlayerData@@@Z DD 019930522H
	DD	01H
	DD	FLAT:__unwindtable$?OnUpdatePlayerData@CCampusHelper@@QAEXKPAU_PlayerData@@@Z
	DD	2 DUP(00H)
	DD	2 DUP(00H)
	DD	00H
	DD	01H
xdata$x	ENDS
;	COMDAT xdata$x
xdata$x	SEGMENT
__unwindtable$?OnAddCampusMember@CCampusHelper@@QAEXAAVCAr@@@Z DD 0ffffffffH
	DD	FLAT:__unwindfunclet$?OnAddCampusMember@CCampusHelper@@QAEXAAVCAr@@@Z$0
	DD	0ffffffffH
	DD	FLAT:__unwindfunclet$?OnAddCampusMember@CCampusHelper@@QAEXAAVCAr@@@Z$1
	DD	0ffffffffH
	DD	FLAT:__unwindfunclet$?OnAddCampusMember@CCampusHelper@@QAEXAAVCAr@@@Z$2
	DD	0ffffffffH
	DD	FLAT:__unwindfunclet$?OnAddCampusMember@CCampusHelper@@QAEXAAVCAr@@@Z$3
__ehfuncinfo$?OnAddCampusMember@CCampusHelper@@QAEXAAVCAr@@@Z DD 019930522H
	DD	04H
	DD	FLAT:__unwindtable$?OnAddCampusMember@CCampusHelper@@QAEXAAVCAr@@@Z
	DD	2 DUP(00H)
	DD	2 DUP(00H)
	DD	00H
	DD	01H
xdata$x	ENDS
;	COMDAT xdata$x
xdata$x	SEGMENT
__unwindtable$?GetInstance@CCampusHelper@@SAPAV1@XZ DD 0ffffffffH
	DD	FLAT:__unwindfunclet$?GetInstance@CCampusHelper@@SAPAV1@XZ$0
__ehfuncinfo$?GetInstance@CCampusHelper@@SAPAV1@XZ DD 019930522H
	DD	01H
	DD	FLAT:__unwindtable$?GetInstance@CCampusHelper@@SAPAV1@XZ
	DD	2 DUP(00H)
	DD	2 DUP(00H)
	DD	00H
	DD	01H
xdata$x	ENDS
;	COMDAT xdata$x
xdata$x	SEGMENT
__unwindtable$??0CCampusHelper@@QAE@XZ DD 0ffffffffH
	DD	FLAT:__unwindfunclet$??0CCampusHelper@@QAE@XZ$0
	DD	00H
	DD	FLAT:__unwindfunclet$??0CCampusHelper@@QAE@XZ$1
	DD	01H
	DD	FLAT:__unwindfunclet$??0CCampusHelper@@QAE@XZ$2
	DD	02H
	DD	FLAT:__unwindfunclet$??0CCampusHelper@@QAE@XZ$3
__ehfuncinfo$??0CCampusHelper@@QAE@XZ DD 019930522H
	DD	04H
	DD	FLAT:__unwindtable$??0CCampusHelper@@QAE@XZ
	DD	2 DUP(00H)
	DD	2 DUP(00H)
	DD	00H
	DD	01H
xdata$x	ENDS
; Function compile flags: /Ogtp
; File C:\Program Files\Microsoft Visual Studio\2022\Professional\VC\Tools\MSVC\14.44.35207\include\xutility
;	COMDAT ??$_Copy_memmove_tail@PAH@std@@YAPAHQBDQAHII@Z
_TEXT	SEGMENT
__First_ch$ = 8						; size = 4
__Dest$ = 12						; size = 4
__Byte_count$ = 16					; size = 4
__Object_count$ = 20					; size = 4
??$_Copy_memmove_tail@PAH@std@@YAPAHQBDQAHII@Z PROC	; std::_Copy_memmove_tail<int *>, COMDAT

; 4747 :     const char* const _First_ch, const _OutCtgIt _Dest, const size_t _Byte_count, const size_t _Object_count) {

  00000	55		 push	 ebp
  00001	8b ec		 mov	 ebp, esp
  00003	56		 push	 esi

; 4748 :     _STL_INTERNAL_CHECK(_Byte_count == _Object_count * sizeof(*_Dest));
; 4749 :     const auto _Dest_ptr = _STD _To_address(_Dest);
; 4750 :     const auto _Dest_ch  = const_cast<char*>(reinterpret_cast<const volatile char*>(_Dest_ptr));
; 4751 :     _CSTD memmove(_Dest_ch, _First_ch, _Byte_count);

  00004	8b 75 0c	 mov	 esi, DWORD PTR __Dest$[ebp]
  00007	57		 push	 edi
  00008	8b 7d 10	 mov	 edi, DWORD PTR __Byte_count$[ebp]
  0000b	57		 push	 edi
  0000c	ff 75 08	 push	 DWORD PTR __First_ch$[ebp]
  0000f	56		 push	 esi
  00010	e8 00 00 00 00	 call	 _memmove
  00015	83 c4 0c	 add	 esp, 12			; 0000000cH

; 4752 :     if constexpr (is_pointer_v<_OutCtgIt>) {
; 4753 :         (void) _Object_count;
; 4754 :         // CodeQL [SM02986] This cast is correct: we're bypassing pointer arithmetic for performance.
; 4755 :         return reinterpret_cast<_OutCtgIt>(_Dest_ch + _Byte_count);

  00018	8d 04 3e	 lea	 eax, DWORD PTR [esi+edi]
  0001b	5f		 pop	 edi
  0001c	5e		 pop	 esi

; 4756 :     } else {
; 4757 :         return _Dest + static_cast<_Iter_diff_t<_OutCtgIt>>(_Object_count);
; 4758 :     }
; 4759 : }

  0001d	5d		 pop	 ebp
  0001e	c3		 ret	 0
??$_Copy_memmove_tail@PAH@std@@YAPAHQBDQAHII@Z ENDP	; std::_Copy_memmove_tail<int *>
_TEXT	ENDS
; Function compile flags: /Ogtp
; File C:\Program Files\Microsoft Visual Studio\2022\Professional\VC\Tools\MSVC\14.44.35207\include\xtree
; File C:\Program Files\Microsoft Visual Studio\2022\Professional\VC\Tools\MSVC\14.44.35207\include\utility
; File C:\Program Files\Microsoft Visual Studio\2022\Professional\VC\Tools\MSVC\14.44.35207\include\xmemory
; File C:\Program Files\Microsoft Visual Studio\2022\Professional\VC\Tools\MSVC\14.44.35207\include\xtree
;	COMDAT ??$_Erase_tree@V?$allocator@U?$_Tree_node@U?$pair@$$CBKK@std@@PAX@std@@@std@@@?$_Tree_val@U?$_Tree_simple_types@U?$pair@$$CBKK@std@@@std@@@std@@QAEXAAV?$allocator@U?$_Tree_node@U?$pair@$$CBKK@std@@PAX@std@@@1@PAU?$_Tree_node@U?$pair@$$CBKK@std@@PAX@1@@Z
_TEXT	SEGMENT
__Al$ = 8						; size = 4
__Rootnode$ = 12					; size = 4
??$_Erase_tree@V?$allocator@U?$_Tree_node@U?$pair@$$CBKK@std@@PAX@std@@@std@@@?$_Tree_val@U?$_Tree_simple_types@U?$pair@$$CBKK@std@@@std@@@std@@QAEXAAV?$allocator@U?$_Tree_node@U?$pair@$$CBKK@std@@PAX@std@@@1@PAU?$_Tree_node@U?$pair@$$CBKK@std@@PAX@1@@Z PROC ; std::_Tree_val<std::_Tree_simple_types<std::pair<unsigned long const ,unsigned long> > >::_Erase_tree<std::allocator<std::_Tree_node<std::pair<unsigned long const ,unsigned long>,void *> > >, COMDAT
; _this$ = ecx

; 767  :     void _Erase_tree(_Alnode& _Al, _Nodeptr _Rootnode) noexcept {

  00000	55		 push	 ebp
  00001	8b ec		 mov	 ebp, esp
  00003	53		 push	 ebx
  00004	56		 push	 esi

; 768  :         while (!_Rootnode->_Isnil) { // free subtrees, then node

  00005	8b 75 0c	 mov	 esi, DWORD PTR __Rootnode$[ebp]
  00008	8b d9		 mov	 ebx, ecx
  0000a	80 7e 0d 00	 cmp	 BYTE PTR [esi+13], 0
  0000e	75 25		 jne	 SHORT $LN34@Erase_tree
  00010	57		 push	 edi
  00011	8b 7d 08	 mov	 edi, DWORD PTR __Al$[ebp]
$LL2@Erase_tree:

; 769  :             _Erase_tree(_Al, _Rootnode->_Right);

  00014	ff 76 08	 push	 DWORD PTR [esi+8]
  00017	8b cb		 mov	 ecx, ebx
  00019	57		 push	 edi
  0001a	e8 00 00 00 00	 call	 ??$_Erase_tree@V?$allocator@U?$_Tree_node@U?$pair@$$CBKK@std@@PAX@std@@@std@@@?$_Tree_val@U?$_Tree_simple_types@U?$pair@$$CBKK@std@@@std@@@std@@QAEXAAV?$allocator@U?$_Tree_node@U?$pair@$$CBKK@std@@PAX@std@@@1@PAU?$_Tree_node@U?$pair@$$CBKK@std@@PAX@1@@Z ; std::_Tree_val<std::_Tree_simple_types<std::pair<unsigned long const ,unsigned long> > >::_Erase_tree<std::allocator<std::_Tree_node<std::pair<unsigned long const ,unsigned long>,void *> > >
; File C:\Program Files\Microsoft Visual Studio\2022\Professional\VC\Tools\MSVC\14.44.35207\include\utility

; 773  :     _Ty _Old_val = static_cast<_Ty&&>(_Val);

  0001f	8b c6		 mov	 eax, esi

; 774  :     _Val         = static_cast<_Other&&>(_New_val);

  00021	8b 36		 mov	 esi, DWORD PTR [esi]
; File C:\Program Files\Microsoft Visual Studio\2022\Professional\VC\Tools\MSVC\14.44.35207\include\xmemory

; 289  :         ::operator delete(_Ptr, _Bytes);

  00023	6a 18		 push	 24			; 00000018H
  00025	50		 push	 eax
  00026	e8 00 00 00 00	 call	 ??3@YAXPAXI@Z		; operator delete
  0002b	83 c4 08	 add	 esp, 8
; File C:\Program Files\Microsoft Visual Studio\2022\Professional\VC\Tools\MSVC\14.44.35207\include\xtree

; 768  :         while (!_Rootnode->_Isnil) { // free subtrees, then node

  0002e	80 7e 0d 00	 cmp	 BYTE PTR [esi+13], 0
  00032	74 e0		 je	 SHORT $LL2@Erase_tree
  00034	5f		 pop	 edi
$LN34@Erase_tree:
  00035	5e		 pop	 esi

; 770  :             _Alnode::value_type::_Freenode(_Al, _STD exchange(_Rootnode, _Rootnode->_Left));
; 771  :         }
; 772  :     }

  00036	5b		 pop	 ebx
  00037	5d		 pop	 ebp
  00038	c2 08 00	 ret	 8
??$_Erase_tree@V?$allocator@U?$_Tree_node@U?$pair@$$CBKK@std@@PAX@std@@@std@@@?$_Tree_val@U?$_Tree_simple_types@U?$pair@$$CBKK@std@@@std@@@std@@QAEXAAV?$allocator@U?$_Tree_node@U?$pair@$$CBKK@std@@PAX@std@@@1@PAU?$_Tree_node@U?$pair@$$CBKK@std@@PAX@1@@Z ENDP ; std::_Tree_val<std::_Tree_simple_types<std::pair<unsigned long const ,unsigned long> > >::_Erase_tree<std::allocator<std::_Tree_node<std::pair<unsigned long const ,unsigned long>,void *> > >
_TEXT	ENDS
; Function compile flags: /Ogtp
; File C:\Program Files\Microsoft Visual Studio\2022\Professional\VC\Tools\MSVC\14.44.35207\include\xutility
;	COMDAT ??$_Copy_memmove@PAHPAH@std@@YAPAHPAH00@Z
_TEXT	SEGMENT
__First$ = 8						; size = 4
__Last$ = 12						; size = 4
__Dest$ = 16						; size = 4
??$_Copy_memmove@PAHPAH@std@@YAPAHPAH00@Z PROC		; std::_Copy_memmove<int *,int *>, COMDAT

; 4762 : _OutCtgIt _Copy_memmove(_CtgIt _First, _CtgIt _Last, _OutCtgIt _Dest) {

  00000	55		 push	 ebp
  00001	8b ec		 mov	 ebp, esp

; 4763 :     _STL_INTERNAL_CHECK(_First <= _Last);
; 4764 :     const auto _First_ptr    = _STD _To_address(_First);
; 4765 :     const auto _Last_ptr     = _STD _To_address(_Last);
; 4766 :     const auto _Object_count = static_cast<size_t>(_Last_ptr - _First_ptr);

  00003	8b 55 08	 mov	 edx, DWORD PTR __First$[ebp]
  00006	8b 4d 0c	 mov	 ecx, DWORD PTR __Last$[ebp]
  00009	2b ca		 sub	 ecx, edx
  0000b	8b c1		 mov	 eax, ecx
  0000d	c1 f8 02	 sar	 eax, 2

; 4767 :     const auto _First_ch     = const_cast<const char*>(reinterpret_cast<const volatile char*>(_First_ptr));
; 4768 :     const auto _Last_ch      = const_cast<const char*>(reinterpret_cast<const volatile char*>(_Last_ptr));
; 4769 :     const auto _Byte_count   = static_cast<size_t>(_Last_ch - _First_ch);
; 4770 :     return _STD _Copy_memmove_tail(_First_ch, _STD move(_Dest), _Byte_count, _Object_count);

  00010	50		 push	 eax
  00011	51		 push	 ecx
  00012	ff 75 10	 push	 DWORD PTR __Dest$[ebp]
  00015	52		 push	 edx
  00016	e8 00 00 00 00	 call	 ??$_Copy_memmove_tail@PAH@std@@YAPAHQBDQAHII@Z ; std::_Copy_memmove_tail<int *>
  0001b	83 c4 10	 add	 esp, 16			; 00000010H

; 4771 : }

  0001e	5d		 pop	 ebp
  0001f	c3		 ret	 0
??$_Copy_memmove@PAHPAH@std@@YAPAHPAH00@Z ENDP		; std::_Copy_memmove<int *,int *>
_TEXT	ENDS
; Function compile flags: /Ogtp
; File C:\Program Files\Microsoft Visual Studio\2022\Professional\VC\Tools\MSVC\14.44.35207\include\vector
; File C:\Program Files\Microsoft Visual Studio\2022\Professional\VC\Tools\MSVC\14.44.35207\include\xmemory
; File C:\Program Files\Microsoft Visual Studio\2022\Professional\VC\Tools\MSVC\14.44.35207\include\vector
; File C:\Program Files\Microsoft Visual Studio\2022\Professional\VC\Tools\MSVC\14.44.35207\include\xmemory
; File C:\Program Files\Microsoft Visual Studio\2022\Professional\VC\Tools\MSVC\14.44.35207\include\vector
; File C:\Program Files\Microsoft Visual Studio\2022\Professional\VC\Tools\MSVC\14.44.35207\include\xmemory
; File C:\Program Files\Microsoft Visual Studio\2022\Professional\VC\Tools\MSVC\14.44.35207\include\vector
; File C:\Program Files\Microsoft Visual Studio\2022\Professional\VC\Tools\MSVC\14.44.35207\include\xmemory
; File C:\Program Files\Microsoft Visual Studio\2022\Professional\VC\Tools\MSVC\14.44.35207\include\vector
; File C:\Program Files\Microsoft Visual Studio\2022\Professional\VC\Tools\MSVC\14.44.35207\include\xmemory
; File C:\Program Files\Microsoft Visual Studio\2022\Professional\VC\Tools\MSVC\14.44.35207\include\vector
; File C:\Program Files\Microsoft Visual Studio\2022\Professional\VC\Tools\MSVC\14.44.35207\include\xmemory
; File C:\Program Files\Microsoft Visual Studio\2022\Professional\VC\Tools\MSVC\14.44.35207\include\vector
; File C:\Program Files\Microsoft Visual Studio\2022\Professional\VC\Tools\MSVC\14.44.35207\include\xmemory
; File C:\Program Files\Microsoft Visual Studio\2022\Professional\VC\Tools\MSVC\14.44.35207\include\vector
; File C:\Program Files\Microsoft Visual Studio\2022\Professional\VC\Tools\MSVC\14.44.35207\include\xmemory
; File C:\Program Files\Microsoft Visual Studio\2022\Professional\VC\Tools\MSVC\14.44.35207\include\vector
;	COMDAT ??$_Emplace_reallocate@ABH@?$vector@HV?$allocator@H@std@@@std@@AAEPAHQAHABH@Z
_TEXT	SEGMENT
__Newsize$1$ = -12					; size = 4
tv652 = -8						; size = 4
tv650 = -4						; size = 4
__Whereptr$ = 8						; size = 4
_<_Val_0>$ = 12						; size = 4
??$_Emplace_reallocate@ABH@?$vector@HV?$allocator@H@std@@@std@@AAEPAHQAHABH@Z PROC ; std::vector<int,std::allocator<int> >::_Emplace_reallocate<int const &>, COMDAT
; _this$ = ecx

; 875  :     _CONSTEXPR20 pointer _Emplace_reallocate(const pointer _Whereptr, _Valty&&... _Val) {

  00000	55		 push	 ebp
  00001	8b ec		 mov	 ebp, esp
  00003	83 ec 0c	 sub	 esp, 12			; 0000000cH
  00006	53		 push	 ebx

; 876  :         // reallocate and insert by perfectly forwarding _Val at _Whereptr
; 877  :         _Alty& _Al        = _Getal();
; 878  :         auto& _My_data    = _Mypair._Myval2;
; 879  :         pointer& _Myfirst = _My_data._Myfirst;
; 880  :         pointer& _Mylast  = _My_data._Mylast;
; 881  : 
; 882  :         _STL_INTERNAL_CHECK(_Mylast == _My_data._Myend); // check that we have no unused capacity
; 883  : 
; 884  :         const auto _Whereoff = static_cast<size_type>(_Whereptr - _Myfirst);

  00007	8b 5d 08	 mov	 ebx, DWORD PTR __Whereptr$[ebp]
  0000a	56		 push	 esi
  0000b	8b f1		 mov	 esi, ecx
  0000d	57		 push	 edi
  0000e	8b 0e		 mov	 ecx, DWORD PTR [esi]
  00010	2b d9		 sub	 ebx, ecx

; 885  :         const auto _Oldsize  = static_cast<size_type>(_Mylast - _Myfirst);

  00012	8b 46 04	 mov	 eax, DWORD PTR [esi+4]
  00015	2b c1		 sub	 eax, ecx
  00017	c1 fb 02	 sar	 ebx, 2
  0001a	c1 f8 02	 sar	 eax, 2

; 886  : 
; 887  :         if (_Oldsize == max_size()) {

  0001d	3d ff ff ff 3f	 cmp	 eax, 1073741823		; 3fffffffH
  00022	0f 84 13 01 00
	00		 je	 $LN111@Emplace_re

; 1924 :         return static_cast<size_type>(_My_data._Myend - _My_data._Myfirst);

  00028	8b 56 08	 mov	 edx, DWORD PTR [esi+8]

; 889  :         }
; 890  : 
; 891  :         const size_type _Newsize = _Oldsize + 1;

  0002b	8d 78 01	 lea	 edi, DWORD PTR [eax+1]

; 1924 :         return static_cast<size_type>(_My_data._Myend - _My_data._Myfirst);

  0002e	2b d1		 sub	 edx, ecx

; 889  :         }
; 890  : 
; 891  :         const size_type _Newsize = _Oldsize + 1;

  00030	89 7d f4	 mov	 DWORD PTR __Newsize$1$[ebp], edi

; 1924 :         return static_cast<size_type>(_My_data._Myend - _My_data._Myfirst);

  00033	c1 fa 02	 sar	 edx, 2

; 2011 :         if (_Oldcapacity > _Max - _Oldcapacity / 2) {

  00036	b8 ff ff ff 3f	 mov	 eax, 1073741823		; 3fffffffH
  0003b	8b ca		 mov	 ecx, edx
  0003d	d1 e9		 shr	 ecx, 1
  0003f	2b c1		 sub	 eax, ecx
  00041	3b d0		 cmp	 edx, eax
  00043	76 14		 jbe	 SHORT $LN8@Emplace_re

; 2012 :             return _Max; // geometric growth would overflow

  00045	b8 fc ff ff ff	 mov	 eax, -4			; fffffffcH
  0004a	c7 45 f8 fc ff
	ff ff		 mov	 DWORD PTR tv652[ebp], -4 ; fffffffcH
; File C:\Program Files\Microsoft Visual Studio\2022\Professional\VC\Tools\MSVC\14.44.35207\include\xmemory

; 253  :             return _Allocate_manually_vector_aligned<_Traits>(_Bytes);

  00051	50		 push	 eax
  00052	e8 00 00 00 00	 call	 ??$_Allocate_manually_vector_aligned@U_Default_allocate_traits@std@@@std@@YAPAXI@Z ; std::_Allocate_manually_vector_aligned<std::_Default_allocate_traits>
  00057	eb 3d		 jmp	 SHORT $LN109@Emplace_re
$LN8@Emplace_re:
; File C:\Program Files\Microsoft Visual Studio\2022\Professional\VC\Tools\MSVC\14.44.35207\include\vector

; 2015 :         const size_type _Geometric = _Oldcapacity + _Oldcapacity / 2;

  00059	8d 04 11	 lea	 eax, DWORD PTR [ecx+edx]
; File C:\Program Files\Microsoft Visual Studio\2022\Professional\VC\Tools\MSVC\14.44.35207\include\xmemory

; 117  :         if (_Count > _Max_possible) {

  0005c	8b cf		 mov	 ecx, edi
  0005e	3b c7		 cmp	 eax, edi
  00060	0f 43 c8	 cmovae	 ecx, eax
  00063	81 f9 ff ff ff
	3f		 cmp	 ecx, 1073741823		; 3fffffffH
  00069	0f 87 d1 00 00
	00		 ja	 $LN112@Emplace_re

; 119  :         }
; 120  :     }
; 121  : 
; 122  :     return _Count * _Ty_size;

  0006f	8d 04 8d 00 00
	00 00		 lea	 eax, DWORD PTR [ecx*4]
  00076	89 45 f8	 mov	 DWORD PTR tv652[ebp], eax

; 227  :     if (_Bytes == 0) {

  00079	85 c0		 test	 eax, eax
  0007b	75 04		 jne	 SHORT $LN23@Emplace_re

; 228  :         return nullptr;

  0007d	33 ff		 xor	 edi, edi
  0007f	eb 1a		 jmp	 SHORT $LN22@Emplace_re
$LN23@Emplace_re:

; 229  :     }
; 230  : 
; 231  : #if _HAS_CXX20 // TRANSITION, GH-1532
; 232  :     if (_STD is_constant_evaluated()) {
; 233  :         return _Traits::_Allocate(_Bytes);
; 234  :     }
; 235  : #endif // _HAS_CXX20
; 236  : 
; 237  : #ifdef __cpp_aligned_new
; 238  :     if constexpr (_Align > __STDCPP_DEFAULT_NEW_ALIGNMENT__) {
; 239  :         size_t _Passed_align = _Align;
; 240  : #if defined(_M_IX86) || defined(_M_X64)
; 241  :         if (_Bytes >= _Big_allocation_threshold) {
; 242  :             // boost the alignment of big allocations to help autovectorization
; 243  :             _Passed_align = (_STD max)(_Align, _Big_allocation_alignment);
; 244  :         }
; 245  : #endif // defined(_M_IX86) || defined(_M_X64)
; 246  :         return _Traits::_Allocate_aligned(_Bytes, _Passed_align);
; 247  :     } else
; 248  : #endif // defined(__cpp_aligned_new)
; 249  :     {
; 250  : #if defined(_M_IX86) || defined(_M_X64)
; 251  :         if (_Bytes >= _Big_allocation_threshold) {

  00081	3d 00 10 00 00	 cmp	 eax, 4096		; 00001000H
  00086	72 08		 jb	 SHORT $LN24@Emplace_re

; 253  :             return _Allocate_manually_vector_aligned<_Traits>(_Bytes);

  00088	50		 push	 eax
  00089	e8 00 00 00 00	 call	 ??$_Allocate_manually_vector_aligned@U_Default_allocate_traits@std@@@std@@YAPAXI@Z ; std::_Allocate_manually_vector_aligned<std::_Default_allocate_traits>
  0008e	eb 06		 jmp	 SHORT $LN109@Emplace_re
$LN24@Emplace_re:

; 136  :         return ::operator new(_Bytes);

  00090	50		 push	 eax
  00091	e8 00 00 00 00	 call	 ??2@YAPAXI@Z		; operator new
$LN109@Emplace_re:
; File C:\Program Files\Microsoft Visual Studio\2022\Professional\VC\Tools\MSVC\14.44.35207\include\vector

; 900  :         _Alty_traits::construct(_Al, _STD _Unfancy(_Newvec + _Whereoff), _STD forward<_Valty>(_Val)...);

  00096	8b f8		 mov	 edi, eax
  00098	83 c4 04	 add	 esp, 4
$LN22@Emplace_re:
  0009b	8b 45 0c	 mov	 eax, DWORD PTR _<_Val_0>$[ebp]
  0009e	8d 0c 9f	 lea	 ecx, DWORD PTR [edi+ebx*4]

; 901  :         _Constructed_first = _Newvec + _Whereoff;
; 902  : 
; 903  :         if (_Whereptr == _Mylast) { // at back, provide strong guarantee

  000a1	8b 5d 08	 mov	 ebx, DWORD PTR __Whereptr$[ebp]
  000a4	89 4d fc	 mov	 DWORD PTR tv650[ebp], ecx
  000a7	8b 00		 mov	 eax, DWORD PTR [eax]
  000a9	89 01		 mov	 DWORD PTR [ecx], eax
  000ab	8b 46 04	 mov	 eax, DWORD PTR [esi+4]
  000ae	8b 0e		 mov	 ecx, DWORD PTR [esi]
  000b0	3b d8		 cmp	 ebx, eax
  000b2	75 07		 jne	 SHORT $LN3@Emplace_re

; 909  :         } else { // provide basic guarantee

  000b4	8b 5d fc	 mov	 ebx, DWORD PTR tv650[ebp]
; File C:\Program Files\Microsoft Visual Studio\2022\Professional\VC\Tools\MSVC\14.44.35207\include\xmemory

; 1992 :             _STD _Copy_memmove(_UFirst, _ULast, _STD _Unfancy(_Dest));

  000b7	8b d7		 mov	 edx, edi
; File C:\Program Files\Microsoft Visual Studio\2022\Professional\VC\Tools\MSVC\14.44.35207\include\vector

; 909  :         } else { // provide basic guarantee

  000b9	eb 16		 jmp	 SHORT $LN52@Emplace_re
$LN3@Emplace_re:
; File C:\Program Files\Microsoft Visual Studio\2022\Professional\VC\Tools\MSVC\14.44.35207\include\xmemory

; 1992 :             _STD _Copy_memmove(_UFirst, _ULast, _STD _Unfancy(_Dest));

  000bb	57		 push	 edi
  000bc	53		 push	 ebx
  000bd	51		 push	 ecx
  000be	e8 00 00 00 00	 call	 ??$_Copy_memmove@PAHPAH@std@@YAPAHPAH00@Z ; std::_Copy_memmove<int *,int *>
  000c3	8b 46 04	 mov	 eax, DWORD PTR [esi+4]
  000c6	8b cb		 mov	 ecx, ebx
; File C:\Program Files\Microsoft Visual Studio\2022\Professional\VC\Tools\MSVC\14.44.35207\include\vector

; 912  :             _STD _Uninitialized_move(_Whereptr, _Mylast, _Newvec + _Whereoff + 1, _Al);

  000c8	8b 5d fc	 mov	 ebx, DWORD PTR tv650[ebp]
; File C:\Program Files\Microsoft Visual Studio\2022\Professional\VC\Tools\MSVC\14.44.35207\include\xmemory

; 1992 :             _STD _Copy_memmove(_UFirst, _ULast, _STD _Unfancy(_Dest));

  000cb	83 c4 0c	 add	 esp, 12			; 0000000cH
; File C:\Program Files\Microsoft Visual Studio\2022\Professional\VC\Tools\MSVC\14.44.35207\include\vector

; 912  :             _STD _Uninitialized_move(_Whereptr, _Mylast, _Newvec + _Whereoff + 1, _Al);

  000ce	8d 53 04	 lea	 edx, DWORD PTR [ebx+4]
$LN52@Emplace_re:

; 913  :         }
; 914  : 
; 915  :         _Guard._New_begin = nullptr;

  000d1	52		 push	 edx
  000d2	50		 push	 eax
  000d3	51		 push	 ecx
  000d4	e8 00 00 00 00	 call	 ??$_Copy_memmove@PAHPAH@std@@YAPAHPAH00@Z ; std::_Copy_memmove<int *,int *>

; 2069 :         if (_Myfirst) { // destroy and deallocate old array

  000d9	8b 06		 mov	 eax, DWORD PTR [esi]

; 913  :         }
; 914  : 
; 915  :         _Guard._New_begin = nullptr;

  000db	83 c4 0c	 add	 esp, 12			; 0000000cH

; 2069 :         if (_Myfirst) { // destroy and deallocate old array

  000de	85 c0		 test	 eax, eax
  000e0	74 2c		 je	 SHORT $LN72@Emplace_re

; 2070 :             _STD _Destroy_range(_Myfirst, _Mylast, _Al);
; 2071 :             _ASAN_VECTOR_REMOVE;
; 2072 :             _Al.deallocate(_Myfirst, static_cast<size_type>(_Myend - _Myfirst));

  000e2	8b 4e 08	 mov	 ecx, DWORD PTR [esi+8]
  000e5	2b c8		 sub	 ecx, eax
; File C:\Program Files\Microsoft Visual Studio\2022\Professional\VC\Tools\MSVC\14.44.35207\include\xmemory

; 985  :         _STD _Deallocate<_New_alignof<_Ty>>(_Ptr, sizeof(_Ty) * _Count);

  000e7	83 e1 fc	 and	 ecx, -4			; fffffffcH

; 284  :         if (_Bytes >= _Big_allocation_threshold) {

  000ea	81 f9 00 10 00
	00		 cmp	 ecx, 4096		; 00001000H
  000f0	72 12		 jb	 SHORT $LN77@Emplace_re

; 205  :     const uintptr_t _Ptr_container   = _Ptr_user[-1];

  000f2	8b 50 fc	 mov	 edx, DWORD PTR [eax-4]
  000f5	83 c1 23	 add	 ecx, 35			; 00000023H

; 206  : 
; 207  :     // If the following asserts, it likely means that we are performing
; 208  :     // an aligned delete on memory coming from an unaligned allocation.
; 209  :     _STL_ASSERT(_Ptr_user[-2] == _Big_allocation_sentinel, "invalid argument");
; 210  : 
; 211  :     // Extra paranoia on aligned allocation/deallocation; ensure _Ptr_container is
; 212  :     // in range [_Min_back_shift, _Non_user_size]
; 213  : #ifdef _DEBUG
; 214  :     constexpr uintptr_t _Min_back_shift = 2 * sizeof(void*);
; 215  : #else // ^^^ defined(_DEBUG) / !defined(_DEBUG) vvv
; 216  :     constexpr uintptr_t _Min_back_shift = sizeof(void*);
; 217  : #endif // ^^^ !defined(_DEBUG) ^^^
; 218  :     const uintptr_t _Back_shift = reinterpret_cast<uintptr_t>(_Ptr) - _Ptr_container;

  000f8	2b c2		 sub	 eax, edx

; 219  :     _STL_VERIFY(_Back_shift >= _Min_back_shift && _Back_shift <= _Non_user_size, "invalid argument");

  000fa	83 c0 fc	 add	 eax, -4			; fffffffcH
  000fd	83 f8 1f	 cmp	 eax, 31			; 0000001fH
  00100	77 2a		 ja	 SHORT $LN76@Emplace_re

; 220  :     _Ptr = reinterpret_cast<void*>(_Ptr_container);

  00102	8b c2		 mov	 eax, edx
$LN77@Emplace_re:

; 289  :         ::operator delete(_Ptr, _Bytes);

  00104	51		 push	 ecx
  00105	50		 push	 eax
  00106	e8 00 00 00 00	 call	 ??3@YAXPAXI@Z		; operator delete
  0010b	83 c4 08	 add	 esp, 8
$LN72@Emplace_re:
; File C:\Program Files\Microsoft Visual Studio\2022\Professional\VC\Tools\MSVC\14.44.35207\include\vector

; 2076 :         _Mylast  = _Newvec + _Newsize;

  0010e	8b 45 f4	 mov	 eax, DWORD PTR __Newsize$1$[ebp]
  00111	89 3e		 mov	 DWORD PTR [esi], edi
  00113	8d 0c 87	 lea	 ecx, DWORD PTR [edi+eax*4]

; 916  :         _Change_array(_Newvec, _Newsize, _Newcapacity);
; 917  :         return _Newvec + _Whereoff;

  00116	8b c3		 mov	 eax, ebx

; 2076 :         _Mylast  = _Newvec + _Newsize;

  00118	89 4e 04	 mov	 DWORD PTR [esi+4], ecx

; 2077 :         _Myend   = _Newvec + _Newcapacity;

  0011b	8b 4d f8	 mov	 ecx, DWORD PTR tv652[ebp]
  0011e	03 cf		 add	 ecx, edi

; 918  :     }

  00120	5f		 pop	 edi

; 2077 :         _Myend   = _Newvec + _Newcapacity;

  00121	89 4e 08	 mov	 DWORD PTR [esi+8], ecx

; 918  :     }

  00124	5e		 pop	 esi
  00125	5b		 pop	 ebx
  00126	8b e5		 mov	 esp, ebp
  00128	5d		 pop	 ebp
  00129	c2 08 00	 ret	 8
$LN76@Emplace_re:
; File C:\Program Files\Microsoft Visual Studio\2022\Professional\VC\Tools\MSVC\14.44.35207\include\xmemory

; 219  :     _STL_VERIFY(_Back_shift >= _Min_back_shift && _Back_shift <= _Non_user_size, "invalid argument");

  0012c	6a 00		 push	 0
  0012e	6a 00		 push	 0
  00130	6a 00		 push	 0
  00132	6a 00		 push	 0
  00134	6a 00		 push	 0
  00136	e8 00 00 00 00	 call	 __invoke_watson
$LN111@Emplace_re:
; File C:\Program Files\Microsoft Visual Studio\2022\Professional\VC\Tools\MSVC\14.44.35207\include\vector

; 888  :             _Xlength();

  0013b	e8 00 00 00 00	 call	 ?_Xlength@?$vector@HV?$allocator@H@std@@@std@@CAXXZ ; std::vector<int,std::allocator<int> >::_Xlength
$LN112@Emplace_re:
; File C:\Program Files\Microsoft Visual Studio\2022\Professional\VC\Tools\MSVC\14.44.35207\include\xmemory

; 118  :             _Throw_bad_array_new_length(); // multiply overflow

  00140	e8 00 00 00 00	 call	 ?_Throw_bad_array_new_length@std@@YAXXZ ; std::_Throw_bad_array_new_length
$LN108@Emplace_re:
  00145	cc		 int	 3
??$_Emplace_reallocate@ABH@?$vector@HV?$allocator@H@std@@@std@@AAEPAHQAHABH@Z ENDP ; std::vector<int,std::allocator<int> >::_Emplace_reallocate<int const &>
_TEXT	ENDS
; Function compile flags: /Ogtp
; File C:\Program Files\Microsoft Visual Studio\2022\Professional\VC\Tools\MSVC\14.44.35207\include\xmemory
;	COMDAT ??1?$_Alloc_construct_ptr@V?$allocator@U?$_Tree_node@U?$pair@$$CBHUREWARD@CCampusHelper@@@std@@PAX@std@@@std@@@std@@QAE@XZ
_TEXT	SEGMENT
??1?$_Alloc_construct_ptr@V?$allocator@U?$_Tree_node@U?$pair@$$CBHUREWARD@CCampusHelper@@@std@@PAX@std@@@std@@@std@@QAE@XZ PROC ; std::_Alloc_construct_ptr<std::allocator<std::_Tree_node<std::pair<int const ,CCampusHelper::REWARD>,void *> > >::~_Alloc_construct_ptr<std::allocator<std::_Tree_node<std::pair<int const ,CCampusHelper::REWARD>,void *> > >, COMDAT
; _this$ = ecx

; 1172 :         if (_Ptr) {

  00000	8b 41 04	 mov	 eax, DWORD PTR [ecx+4]
  00003	85 c0		 test	 eax, eax
  00005	74 0b		 je	 SHORT $LN10@Alloc_cons

; 289  :         ::operator delete(_Ptr, _Bytes);

  00007	6a 1c		 push	 28			; 0000001cH
  00009	50		 push	 eax
  0000a	e8 00 00 00 00	 call	 ??3@YAXPAXI@Z		; operator delete
  0000f	83 c4 08	 add	 esp, 8
$LN10@Alloc_cons:

; 1173 :             _Al.deallocate(_Ptr, 1);
; 1174 :         }
; 1175 :     }

  00012	c3		 ret	 0
??1?$_Alloc_construct_ptr@V?$allocator@U?$_Tree_node@U?$pair@$$CBHUREWARD@CCampusHelper@@@std@@PAX@std@@@std@@@std@@QAE@XZ ENDP ; std::_Alloc_construct_ptr<std::allocator<std::_Tree_node<std::pair<int const ,CCampusHelper::REWARD>,void *> > >::~_Alloc_construct_ptr<std::allocator<std::_Tree_node<std::pair<int const ,CCampusHelper::REWARD>,void *> > >
_TEXT	ENDS
; Function compile flags: /Ogtp
; File C:\Program Files\Microsoft Visual Studio\2022\Professional\VC\Tools\MSVC\14.44.35207\include\xtree
; File C:\Program Files\Microsoft Visual Studio\2022\Professional\VC\Tools\MSVC\14.44.35207\include\type_traits
; File C:\Program Files\Microsoft Visual Studio\2022\Professional\VC\Tools\MSVC\14.44.35207\include\xtree
; File C:\Program Files\Microsoft Visual Studio\2022\Professional\VC\Tools\MSVC\14.44.35207\include\type_traits
; File C:\Program Files\Microsoft Visual Studio\2022\Professional\VC\Tools\MSVC\14.44.35207\include\xtree
;	COMDAT ??$_Find_lower_bound@H@?$_Tree@V?$_Tmap_traits@HUREWARD@CCampusHelper@@U?$less@H@std@@V?$allocator@U?$pair@$$CBHUREWARD@CCampusHelper@@@std@@@4@$0A@@std@@@std@@IBE?AU?$_Tree_find_result@PAU?$_Tree_node@U?$pair@$$CBHUREWARD@CCampusHelper@@@std@@PAX@std@@@1@ABH@Z
_TEXT	SEGMENT
___$ReturnUdt$ = 8					; size = 4
__Keyval$ = 12						; size = 4
??$_Find_lower_bound@H@?$_Tree@V?$_Tmap_traits@HUREWARD@CCampusHelper@@U?$less@H@std@@V?$allocator@U?$pair@$$CBHUREWARD@CCampusHelper@@@std@@@4@$0A@@std@@@std@@IBE?AU?$_Tree_find_result@PAU?$_Tree_node@U?$pair@$$CBHUREWARD@CCampusHelper@@@std@@PAX@std@@@1@ABH@Z PROC ; std::_Tree<std::_Tmap_traits<int,CCampusHelper::REWARD,std::less<int>,std::allocator<std::pair<int const ,CCampusHelper::REWARD> >,0> >::_Find_lower_bound<int>, COMDAT
; _this$ = ecx

; 1628 :     _Tree_find_result<_Nodeptr> _Find_lower_bound(const _Keyty& _Keyval) const {

  00000	55		 push	 ebp
  00001	8b ec		 mov	 ebp, esp

; 1629 :         const auto _Scary = _Get_scary();
; 1630 :         _Tree_find_result<_Nodeptr> _Result{{_Scary->_Myhead->_Parent, _Tree_child::_Right}, _Scary->_Myhead};

  00003	8b 09		 mov	 ecx, DWORD PTR [ecx]
  00005	8b 55 08	 mov	 edx, DWORD PTR ___$ReturnUdt$[ebp]
  00008	8b 41 04	 mov	 eax, DWORD PTR [ecx+4]
  0000b	89 02		 mov	 DWORD PTR [edx], eax
  0000d	c7 42 04 00 00
	00 00		 mov	 DWORD PTR [edx+4], 0
  00014	89 4a 08	 mov	 DWORD PTR [edx+8], ecx

; 1631 :         _Nodeptr _Trynode = _Result._Location._Parent;
; 1632 :         while (!_Trynode->_Isnil) {

  00017	80 78 0d 00	 cmp	 BYTE PTR [eax+13], 0
  0001b	75 28		 jne	 SHORT $LN13@Find_lower
; File C:\Program Files\Microsoft Visual Studio\2022\Professional\VC\Tools\MSVC\14.44.35207\include\type_traits

; 2380 :         return _Left < _Right;

  0001d	8b 4d 0c	 mov	 ecx, DWORD PTR __Keyval$[ebp]
  00020	56		 push	 esi
  00021	8b 31		 mov	 esi, DWORD PTR [ecx]
$LL2@Find_lower:
; File C:\Program Files\Microsoft Visual Studio\2022\Professional\VC\Tools\MSVC\14.44.35207\include\xtree

; 1633 :             _Result._Location._Parent = _Trynode;

  00023	89 02		 mov	 DWORD PTR [edx], eax
; File C:\Program Files\Microsoft Visual Studio\2022\Professional\VC\Tools\MSVC\14.44.35207\include\type_traits

; 2380 :         return _Left < _Right;

  00025	39 70 10	 cmp	 DWORD PTR [eax+16], esi
; File C:\Program Files\Microsoft Visual Studio\2022\Professional\VC\Tools\MSVC\14.44.35207\include\xtree

; 1634 :             if (_DEBUG_LT_PRED(_Getcomp(), _Traits::_Kfn(_Trynode->_Myval), _Keyval)) {

  00028	7d 07		 jge	 SHORT $LN4@Find_lower

; 1635 :                 _Result._Location._Child = _Tree_child::_Right;
; 1636 :                 _Trynode                 = _Trynode->_Right;

  0002a	8b 40 08	 mov	 eax, DWORD PTR [eax+8]
  0002d	33 c9		 xor	 ecx, ecx

; 1637 :             } else {

  0002f	eb 0a		 jmp	 SHORT $LN5@Find_lower
$LN4@Find_lower:

; 1638 :                 _Result._Location._Child = _Tree_child::_Left;
; 1639 :                 _Result._Bound           = _Trynode;

  00031	89 42 08	 mov	 DWORD PTR [edx+8], eax

; 1640 :                 _Trynode                 = _Trynode->_Left;

  00034	b9 01 00 00 00	 mov	 ecx, 1
  00039	8b 00		 mov	 eax, DWORD PTR [eax]
$LN5@Find_lower:

; 1631 :         _Nodeptr _Trynode = _Result._Location._Parent;
; 1632 :         while (!_Trynode->_Isnil) {

  0003b	89 4a 04	 mov	 DWORD PTR [edx+4], ecx
  0003e	80 78 0d 00	 cmp	 BYTE PTR [eax+13], 0
  00042	74 df		 je	 SHORT $LL2@Find_lower
  00044	5e		 pop	 esi
$LN13@Find_lower:

; 1641 :             }
; 1642 :         }
; 1643 : 
; 1644 :         return _Result;
; 1645 :     }

  00045	8b c2		 mov	 eax, edx
  00047	5d		 pop	 ebp
  00048	c2 08 00	 ret	 8
??$_Find_lower_bound@H@?$_Tree@V?$_Tmap_traits@HUREWARD@CCampusHelper@@U?$less@H@std@@V?$allocator@U?$pair@$$CBHUREWARD@CCampusHelper@@@std@@@4@$0A@@std@@@std@@IBE?AU?$_Tree_find_result@PAU?$_Tree_node@U?$pair@$$CBHUREWARD@CCampusHelper@@@std@@PAX@std@@@1@ABH@Z ENDP ; std::_Tree<std::_Tmap_traits<int,CCampusHelper::REWARD,std::less<int>,std::allocator<std::pair<int const ,CCampusHelper::REWARD> >,0> >::_Find_lower_bound<int>
_TEXT	ENDS
; Function compile flags: /Ogtp
; File C:\Program Files\Microsoft Visual Studio\2022\Professional\VC\Tools\MSVC\14.44.35207\include\xmemory
;	COMDAT ??1?$_Alloc_construct_ptr@V?$allocator@U?$_Tree_node@U?$pair@$$CBHK@std@@PAX@std@@@std@@@std@@QAE@XZ
_TEXT	SEGMENT
??1?$_Alloc_construct_ptr@V?$allocator@U?$_Tree_node@U?$pair@$$CBHK@std@@PAX@std@@@std@@@std@@QAE@XZ PROC ; std::_Alloc_construct_ptr<std::allocator<std::_Tree_node<std::pair<int const ,unsigned long>,void *> > >::~_Alloc_construct_ptr<std::allocator<std::_Tree_node<std::pair<int const ,unsigned long>,void *> > >, COMDAT
; _this$ = ecx

; 1172 :         if (_Ptr) {

  00000	8b 41 04	 mov	 eax, DWORD PTR [ecx+4]
  00003	85 c0		 test	 eax, eax
  00005	74 0b		 je	 SHORT $LN10@Alloc_cons

; 289  :         ::operator delete(_Ptr, _Bytes);

  00007	6a 18		 push	 24			; 00000018H
  00009	50		 push	 eax
  0000a	e8 00 00 00 00	 call	 ??3@YAXPAXI@Z		; operator delete
  0000f	83 c4 08	 add	 esp, 8
$LN10@Alloc_cons:

; 1173 :             _Al.deallocate(_Ptr, 1);
; 1174 :         }
; 1175 :     }

  00012	c3		 ret	 0
??1?$_Alloc_construct_ptr@V?$allocator@U?$_Tree_node@U?$pair@$$CBHK@std@@PAX@std@@@std@@@std@@QAE@XZ ENDP ; std::_Alloc_construct_ptr<std::allocator<std::_Tree_node<std::pair<int const ,unsigned long>,void *> > >::~_Alloc_construct_ptr<std::allocator<std::_Tree_node<std::pair<int const ,unsigned long>,void *> > >
_TEXT	ENDS
; Function compile flags: /Ogtp
; File C:\Program Files\Microsoft Visual Studio\2022\Professional\VC\Tools\MSVC\14.44.35207\include\xtree
; File C:\Program Files\Microsoft Visual Studio\2022\Professional\VC\Tools\MSVC\14.44.35207\include\utility
; File C:\Program Files\Microsoft Visual Studio\2022\Professional\VC\Tools\MSVC\14.44.35207\include\xmemory
; File C:\Program Files\Microsoft Visual Studio\2022\Professional\VC\Tools\MSVC\14.44.35207\include\xtree
;	COMDAT ??$_Erase_tree@V?$allocator@U?$_Tree_node@U?$pair@$$CBHUREWARD@CCampusHelper@@@std@@PAX@std@@@std@@@?$_Tree_val@U?$_Tree_simple_types@U?$pair@$$CBHUREWARD@CCampusHelper@@@std@@@std@@@std@@QAEXAAV?$allocator@U?$_Tree_node@U?$pair@$$CBHUREWARD@CCampusHelper@@@std@@PAX@std@@@1@PAU?$_Tree_node@U?$pair@$$CBHUREWARD@CCampusHelper@@@std@@PAX@1@@Z
_TEXT	SEGMENT
__Al$ = 8						; size = 4
__Rootnode$ = 12					; size = 4
??$_Erase_tree@V?$allocator@U?$_Tree_node@U?$pair@$$CBHUREWARD@CCampusHelper@@@std@@PAX@std@@@std@@@?$_Tree_val@U?$_Tree_simple_types@U?$pair@$$CBHUREWARD@CCampusHelper@@@std@@@std@@@std@@QAEXAAV?$allocator@U?$_Tree_node@U?$pair@$$CBHUREWARD@CCampusHelper@@@std@@PAX@std@@@1@PAU?$_Tree_node@U?$pair@$$CBHUREWARD@CCampusHelper@@@std@@PAX@1@@Z PROC ; std::_Tree_val<std::_Tree_simple_types<std::pair<int const ,CCampusHelper::REWARD> > >::_Erase_tree<std::allocator<std::_Tree_node<std::pair<int const ,CCampusHelper::REWARD>,void *> > >, COMDAT
; _this$ = ecx

; 767  :     void _Erase_tree(_Alnode& _Al, _Nodeptr _Rootnode) noexcept {

  00000	55		 push	 ebp
  00001	8b ec		 mov	 ebp, esp
  00003	53		 push	 ebx
  00004	56		 push	 esi

; 768  :         while (!_Rootnode->_Isnil) { // free subtrees, then node

  00005	8b 75 0c	 mov	 esi, DWORD PTR __Rootnode$[ebp]
  00008	8b d9		 mov	 ebx, ecx
  0000a	80 7e 0d 00	 cmp	 BYTE PTR [esi+13], 0
  0000e	75 25		 jne	 SHORT $LN34@Erase_tree
  00010	57		 push	 edi
  00011	8b 7d 08	 mov	 edi, DWORD PTR __Al$[ebp]
$LL2@Erase_tree:

; 769  :             _Erase_tree(_Al, _Rootnode->_Right);

  00014	ff 76 08	 push	 DWORD PTR [esi+8]
  00017	8b cb		 mov	 ecx, ebx
  00019	57		 push	 edi
  0001a	e8 00 00 00 00	 call	 ??$_Erase_tree@V?$allocator@U?$_Tree_node@U?$pair@$$CBHUREWARD@CCampusHelper@@@std@@PAX@std@@@std@@@?$_Tree_val@U?$_Tree_simple_types@U?$pair@$$CBHUREWARD@CCampusHelper@@@std@@@std@@@std@@QAEXAAV?$allocator@U?$_Tree_node@U?$pair@$$CBHUREWARD@CCampusHelper@@@std@@PAX@std@@@1@PAU?$_Tree_node@U?$pair@$$CBHUREWARD@CCampusHelper@@@std@@PAX@1@@Z ; std::_Tree_val<std::_Tree_simple_types<std::pair<int const ,CCampusHelper::REWARD> > >::_Erase_tree<std::allocator<std::_Tree_node<std::pair<int const ,CCampusHelper::REWARD>,void *> > >
; File C:\Program Files\Microsoft Visual Studio\2022\Professional\VC\Tools\MSVC\14.44.35207\include\utility

; 773  :     _Ty _Old_val = static_cast<_Ty&&>(_Val);

  0001f	8b c6		 mov	 eax, esi

; 774  :     _Val         = static_cast<_Other&&>(_New_val);

  00021	8b 36		 mov	 esi, DWORD PTR [esi]
; File C:\Program Files\Microsoft Visual Studio\2022\Professional\VC\Tools\MSVC\14.44.35207\include\xmemory

; 289  :         ::operator delete(_Ptr, _Bytes);

  00023	6a 1c		 push	 28			; 0000001cH
  00025	50		 push	 eax
  00026	e8 00 00 00 00	 call	 ??3@YAXPAXI@Z		; operator delete
  0002b	83 c4 08	 add	 esp, 8
; File C:\Program Files\Microsoft Visual Studio\2022\Professional\VC\Tools\MSVC\14.44.35207\include\xtree

; 768  :         while (!_Rootnode->_Isnil) { // free subtrees, then node

  0002e	80 7e 0d 00	 cmp	 BYTE PTR [esi+13], 0
  00032	74 e0		 je	 SHORT $LL2@Erase_tree
  00034	5f		 pop	 edi
$LN34@Erase_tree:
  00035	5e		 pop	 esi

; 770  :             _Alnode::value_type::_Freenode(_Al, _STD exchange(_Rootnode, _Rootnode->_Left));
; 771  :         }
; 772  :     }

  00036	5b		 pop	 ebx
  00037	5d		 pop	 ebp
  00038	c2 08 00	 ret	 8
??$_Erase_tree@V?$allocator@U?$_Tree_node@U?$pair@$$CBHUREWARD@CCampusHelper@@@std@@PAX@std@@@std@@@?$_Tree_val@U?$_Tree_simple_types@U?$pair@$$CBHUREWARD@CCampusHelper@@@std@@@std@@@std@@QAEXAAV?$allocator@U?$_Tree_node@U?$pair@$$CBHUREWARD@CCampusHelper@@@std@@PAX@std@@@1@PAU?$_Tree_node@U?$pair@$$CBHUREWARD@CCampusHelper@@@std@@PAX@1@@Z ENDP ; std::_Tree_val<std::_Tree_simple_types<std::pair<int const ,CCampusHelper::REWARD> > >::_Erase_tree<std::allocator<std::_Tree_node<std::pair<int const ,CCampusHelper::REWARD>,void *> > >
_TEXT	ENDS
; Function compile flags: /Ogtp
;	COMDAT ??__FsCH@?1??GetInstance@CCampusHelper@@SAPAV1@XZ@YAXXZ
text$yd	SEGMENT
??__FsCH@?1??GetInstance@CCampusHelper@@SAPAV1@XZ@YAXXZ PROC ; `CCampusHelper::GetInstance'::`2'::`dynamic atexit destructor for 'sCH'', COMDAT
  00000	b9 00 00 00 00	 mov	 ecx, OFFSET ?sCH@?1??GetInstance@CCampusHelper@@SAPAV2@XZ@4V2@A
  00005	e9 00 00 00 00	 jmp	 ??1CCampusHelper@@QAE@XZ ; CCampusHelper::~CCampusHelper
??__FsCH@?1??GetInstance@CCampusHelper@@SAPAV1@XZ@YAXXZ ENDP ; `CCampusHelper::GetInstance'::`2'::`dynamic atexit destructor for 'sCH''
text$yd	ENDS
; Function compile flags: /Ogtp
; File C:\IAGOS\server\v18\Source\Source\_Network\Misc\Include\ar.h
;	COMDAT ??$?5K@CAr@@QAEAAV0@AAK@Z
_TEXT	SEGMENT
_t$ = 8							; size = 4
??$?5K@CAr@@QAEAAV0@AAK@Z PROC				; CAr::operator>><unsigned long>, COMDAT
; _this$ = ecx

; 302  : {

  00000	55		 push	 ebp
  00001	8b ec		 mov	 ebp, esp
  00003	8b d1		 mov	 edx, ecx

; 303  : 	if (m_lpBufCur + sizeof(T) <= m_lpBufMax)

  00005	8b 4a 08	 mov	 ecx, DWORD PTR [edx+8]
  00008	8d 41 04	 lea	 eax, DWORD PTR [ecx+4]
  0000b	3b 42 0c	 cmp	 eax, DWORD PTR [edx+12]
  0000e	8b 45 08	 mov	 eax, DWORD PTR _t$[ebp]
  00011	77 0e		 ja	 SHORT $LN2@operator

; 304  : 	{
; 305  : 		t = *(UNALIGNED T*)m_lpBufCur;

  00013	8b 09		 mov	 ecx, DWORD PTR [ecx]
  00015	89 08		 mov	 DWORD PTR [eax], ecx

; 312  : 	}
; 313  : 	return *this;
; 314  : }

  00017	8b c2		 mov	 eax, edx
  00019	83 42 08 04	 add	 DWORD PTR [edx+8], 4
  0001d	5d		 pop	 ebp
  0001e	c2 04 00	 ret	 4
$LN2@operator:

; 306  : 		m_lpBufCur += sizeof(T);
; 307  : 	}
; 308  : 	else
; 309  : 	{
; 310  : 		t = T();

  00021	c7 00 00 00 00
	00		 mov	 DWORD PTR [eax], 0

; 311  : 		m_lpBufCur = m_lpBufMax;

  00027	8b 42 0c	 mov	 eax, DWORD PTR [edx+12]
  0002a	89 42 08	 mov	 DWORD PTR [edx+8], eax

; 312  : 	}
; 313  : 	return *this;
; 314  : }

  0002d	8b c2		 mov	 eax, edx
  0002f	5d		 pop	 ebp
  00030	c2 04 00	 ret	 4
??$?5K@CAr@@QAEAAV0@AAK@Z ENDP				; CAr::operator>><unsigned long>
_TEXT	ENDS
; Function compile flags: /Ogtp
; File C:\IAGOS\server\v18\Source\Source\_Network\Misc\Include\ar.h
;	COMDAT ??$?5H@CAr@@QAEAAV0@AAH@Z
_TEXT	SEGMENT
_t$ = 8							; size = 4
??$?5H@CAr@@QAEAAV0@AAH@Z PROC				; CAr::operator>><int>, COMDAT
; _this$ = ecx

; 302  : {

  00000	55		 push	 ebp
  00001	8b ec		 mov	 ebp, esp
  00003	8b d1		 mov	 edx, ecx

; 303  : 	if (m_lpBufCur + sizeof(T) <= m_lpBufMax)

  00005	8b 4a 08	 mov	 ecx, DWORD PTR [edx+8]
  00008	8d 41 04	 lea	 eax, DWORD PTR [ecx+4]
  0000b	3b 42 0c	 cmp	 eax, DWORD PTR [edx+12]
  0000e	8b 45 08	 mov	 eax, DWORD PTR _t$[ebp]
  00011	77 0e		 ja	 SHORT $LN2@operator

; 304  : 	{
; 305  : 		t = *(UNALIGNED T*)m_lpBufCur;

  00013	8b 09		 mov	 ecx, DWORD PTR [ecx]
  00015	89 08		 mov	 DWORD PTR [eax], ecx

; 312  : 	}
; 313  : 	return *this;
; 314  : }

  00017	8b c2		 mov	 eax, edx
  00019	83 42 08 04	 add	 DWORD PTR [edx+8], 4
  0001d	5d		 pop	 ebp
  0001e	c2 04 00	 ret	 4
$LN2@operator:

; 306  : 		m_lpBufCur += sizeof(T);
; 307  : 	}
; 308  : 	else
; 309  : 	{
; 310  : 		t = T();

  00021	c7 00 00 00 00
	00		 mov	 DWORD PTR [eax], 0

; 311  : 		m_lpBufCur = m_lpBufMax;

  00027	8b 42 0c	 mov	 eax, DWORD PTR [edx+12]
  0002a	89 42 08	 mov	 DWORD PTR [edx+8], eax

; 312  : 	}
; 313  : 	return *this;
; 314  : }

  0002d	8b c2		 mov	 eax, edx
  0002f	5d		 pop	 ebp
  00030	c2 04 00	 ret	 4
??$?5H@CAr@@QAEAAV0@AAH@Z ENDP				; CAr::operator>><int>
_TEXT	ENDS
; Function compile flags: /Ogtp
;	COMDAT ??1?$map@HUREWARD@CCampusHelper@@U?$less@H@std@@V?$allocator@U?$pair@$$CBHUREWARD@CCampusHelper@@@std@@@4@@std@@QAE@XZ
_TEXT	SEGMENT
??1?$map@HUREWARD@CCampusHelper@@U?$less@H@std@@V?$allocator@U?$pair@$$CBHUREWARD@CCampusHelper@@@std@@@4@@std@@QAE@XZ PROC ; std::map<int,CCampusHelper::REWARD,std::less<int>,std::allocator<std::pair<int const ,CCampusHelper::REWARD> > >::~map<int,CCampusHelper::REWARD,std::less<int>,std::allocator<std::pair<int const ,CCampusHelper::REWARD> > >, COMDAT
; _this$ = ecx
  00000	e9 00 00 00 00	 jmp	 ??1?$_Tree@V?$_Tmap_traits@HUREWARD@CCampusHelper@@U?$less@H@std@@V?$allocator@U?$pair@$$CBHUREWARD@CCampusHelper@@@std@@@4@$0A@@std@@@std@@QAE@XZ ; std::_Tree<std::_Tmap_traits<int,CCampusHelper::REWARD,std::less<int>,std::allocator<std::pair<int const ,CCampusHelper::REWARD> >,0> >::~_Tree<std::_Tmap_traits<int,CCampusHelper::REWARD,std::less<int>,std::allocator<std::pair<int const ,CCampusHelper::REWARD> >,0> >
??1?$map@HUREWARD@CCampusHelper@@U?$less@H@std@@V?$allocator@U?$pair@$$CBHUREWARD@CCampusHelper@@@std@@@4@@std@@QAE@XZ ENDP ; std::map<int,CCampusHelper::REWARD,std::less<int>,std::allocator<std::pair<int const ,CCampusHelper::REWARD> > >::~map<int,CCampusHelper::REWARD,std::less<int>,std::allocator<std::pair<int const ,CCampusHelper::REWARD> > >
_TEXT	ENDS
; Function compile flags: /Ogtp
; File C:\Program Files\Microsoft Visual Studio\2022\Professional\VC\Tools\MSVC\14.44.35207\include\xtree
;	COMDAT ?_Insert_node@?$_Tree_val@U?$_Tree_simple_types@U?$pair@$$CBHUREWARD@CCampusHelper@@@std@@@std@@@std@@QAEPAU?$_Tree_node@U?$pair@$$CBHUREWARD@CCampusHelper@@@std@@PAX@2@U?$_Tree_id@PAU?$_Tree_node@U?$pair@$$CBHUREWARD@CCampusHelper@@@std@@PAX@std@@@2@QAU32@@Z
_TEXT	SEGMENT
__Head$1$ = -4						; size = 4
__Loc$ = 8						; size = 8
__Newnode$ = 16						; size = 4
?_Insert_node@?$_Tree_val@U?$_Tree_simple_types@U?$pair@$$CBHUREWARD@CCampusHelper@@@std@@@std@@@std@@QAEPAU?$_Tree_node@U?$pair@$$CBHUREWARD@CCampusHelper@@@std@@PAX@2@U?$_Tree_id@PAU?$_Tree_node@U?$pair@$$CBHUREWARD@CCampusHelper@@@std@@PAX@std@@@2@QAU32@@Z PROC ; std::_Tree_val<std::_Tree_simple_types<std::pair<int const ,CCampusHelper::REWARD> > >::_Insert_node, COMDAT
; _this$ = ecx

; 669  :     _Nodeptr _Insert_node(const _Tree_id<_Nodeptr> _Loc, const _Nodeptr _Newnode) noexcept {

  00000	55		 push	 ebp
  00001	8b ec		 mov	 ebp, esp
  00003	51		 push	 ecx

; 670  :         ++_Mysize;
; 671  :         const auto _Head  = _Myhead;
; 672  :         _Newnode->_Parent = _Loc._Parent;

  00004	8b 55 08	 mov	 edx, DWORD PTR __Loc$[ebp]
  00007	53		 push	 ebx
  00008	8b d9		 mov	 ebx, ecx
  0000a	57		 push	 edi
  0000b	8b 7d 10	 mov	 edi, DWORD PTR __Newnode$[ebp]
  0000e	8b 03		 mov	 eax, DWORD PTR [ebx]
  00010	ff 43 04	 inc	 DWORD PTR [ebx+4]
  00013	89 45 fc	 mov	 DWORD PTR __Head$1$[ebp], eax
  00016	89 57 04	 mov	 DWORD PTR [edi+4], edx

; 673  :         if (_Loc._Parent == _Head) { // first node in tree, just set head values

  00019	3b d0		 cmp	 edx, eax
  0001b	75 16		 jne	 SHORT $LN5@Insert_nod

; 674  :             _Head->_Left     = _Newnode;

  0001d	89 38		 mov	 DWORD PTR [eax], edi

; 675  :             _Head->_Parent   = _Newnode;

  0001f	89 78 04	 mov	 DWORD PTR [eax+4], edi

; 676  :             _Head->_Right    = _Newnode;

  00022	89 78 08	 mov	 DWORD PTR [eax+8], edi

; 735  :         return _Newnode;
; 736  :     }

  00025	8b c7		 mov	 eax, edi
  00027	c6 47 0c 01	 mov	 BYTE PTR [edi+12], 1
  0002b	5f		 pop	 edi
  0002c	5b		 pop	 ebx
  0002d	8b e5		 mov	 esp, ebp
  0002f	5d		 pop	 ebp
  00030	c2 0c 00	 ret	 12			; 0000000cH
$LN5@Insert_nod:

; 677  :             _Newnode->_Color = _Black; // the root is black
; 678  :             return _Newnode;
; 679  :         }
; 680  : 
; 681  :         _STL_INTERNAL_CHECK(_Loc._Child != _Tree_child::_Unused);
; 682  :         if (_Loc._Child == _Tree_child::_Right) { // add to right of _Loc._Parent

  00033	83 7d 0c 00	 cmp	 DWORD PTR __Loc$[ebp+4], 0
  00037	75 0d		 jne	 SHORT $LN6@Insert_nod

; 683  :             _STL_INTERNAL_CHECK(_Loc._Parent->_Right->_Isnil);
; 684  :             _Loc._Parent->_Right = _Newnode;

  00039	89 7a 08	 mov	 DWORD PTR [edx+8], edi

; 685  :             if (_Loc._Parent == _Head->_Right) { // remember rightmost node

  0003c	3b 50 08	 cmp	 edx, DWORD PTR [eax+8]
  0003f	75 0d		 jne	 SHORT $LN9@Insert_nod

; 686  :                 _Head->_Right = _Newnode;

  00041	89 78 08	 mov	 DWORD PTR [eax+8], edi

; 687  :             }
; 688  :         } else { // add to left of _Loc._Parent

  00044	eb 08		 jmp	 SHORT $LN9@Insert_nod
$LN6@Insert_nod:

; 689  :             _STL_INTERNAL_CHECK(_Loc._Parent->_Left->_Isnil);
; 690  :             _Loc._Parent->_Left = _Newnode;

  00046	89 3a		 mov	 DWORD PTR [edx], edi

; 691  :             if (_Loc._Parent == _Head->_Left) { // remember leftmost node

  00048	3b 10		 cmp	 edx, DWORD PTR [eax]
  0004a	75 02		 jne	 SHORT $LN9@Insert_nod

; 692  :                 _Head->_Left = _Newnode;

  0004c	89 38		 mov	 DWORD PTR [eax], edi
$LN9@Insert_nod:

; 693  :             }
; 694  :         }
; 695  : 
; 696  :         for (_Nodeptr _Pnode = _Newnode; _Pnode->_Parent->_Color == _Red;) {

  0004e	8b 4f 04	 mov	 ecx, DWORD PTR [edi+4]
  00051	8b c7		 mov	 eax, edi
  00053	80 79 0c 00	 cmp	 BYTE PTR [ecx+12], 0
  00057	0f 85 7d 01 00
	00		 jne	 $LN3@Insert_nod
  0005d	56		 push	 esi
  0005e	66 90		 npad	 2
$LL4@Insert_nod:

; 697  :             if (_Pnode->_Parent == _Pnode->_Parent->_Parent->_Left) { // fixup red-red in left subtree

  00060	8b 50 04	 mov	 edx, DWORD PTR [eax+4]
  00063	8b 72 04	 mov	 esi, DWORD PTR [edx+4]
  00066	8b 0e		 mov	 ecx, DWORD PTR [esi]
  00068	3b d1		 cmp	 edx, ecx
  0006a	0f 85 aa 00 00
	00		 jne	 $LN10@Insert_nod

; 698  :                 const auto _Parent_sibling = _Pnode->_Parent->_Parent->_Right;

  00070	8b 4e 08	 mov	 ecx, DWORD PTR [esi+8]

; 699  :                 if (_Parent_sibling->_Color == _Red) { // parent's sibling has two red children, blacken both

  00073	80 79 0c 00	 cmp	 BYTE PTR [ecx+12], 0
  00077	0f 84 a3 00 00
	00		 je	 $LN82@Insert_nod

; 700  :                     _Pnode->_Parent->_Color          = _Black;
; 701  :                     _Parent_sibling->_Color          = _Black;
; 702  :                     _Pnode->_Parent->_Parent->_Color = _Red;
; 703  :                     _Pnode                           = _Pnode->_Parent->_Parent;
; 704  :                 } else { // parent's sibling has red and black children
; 705  :                     if (_Pnode == _Pnode->_Parent->_Right) { // rotate right child to left

  0007d	8b 72 08	 mov	 esi, DWORD PTR [edx+8]
  00080	3b c6		 cmp	 eax, esi
  00082	75 37		 jne	 SHORT $LN57@Insert_nod

; 485  :         _Wherenode->_Right = _Pnode->_Left;

  00084	8b 0e		 mov	 ecx, DWORD PTR [esi]

; 706  :                         _Pnode = _Pnode->_Parent;

  00086	8b c2		 mov	 eax, edx

; 485  :         _Wherenode->_Right = _Pnode->_Left;

  00088	89 4a 08	 mov	 DWORD PTR [edx+8], ecx

; 486  : 
; 487  :         if (!_Pnode->_Left->_Isnil) {

  0008b	8b 0e		 mov	 ecx, DWORD PTR [esi]
  0008d	80 79 0d 00	 cmp	 BYTE PTR [ecx+13], 0
  00091	75 03		 jne	 SHORT $LN21@Insert_nod

; 488  :             _Pnode->_Left->_Parent = _Wherenode;

  00093	89 41 04	 mov	 DWORD PTR [ecx+4], eax
$LN21@Insert_nod:

; 489  :         }
; 490  : 
; 491  :         _Pnode->_Parent = _Wherenode->_Parent;

  00096	8b 4a 04	 mov	 ecx, DWORD PTR [edx+4]
  00099	89 4e 04	 mov	 DWORD PTR [esi+4], ecx

; 492  : 
; 493  :         if (_Wherenode == _Myhead->_Parent) {

  0009c	8b 0b		 mov	 ecx, DWORD PTR [ebx]
  0009e	3b 41 04	 cmp	 eax, DWORD PTR [ecx+4]
  000a1	75 05		 jne	 SHORT $LN22@Insert_nod

; 494  :             _Myhead->_Parent = _Pnode;

  000a3	89 71 04	 mov	 DWORD PTR [ecx+4], esi
  000a6	eb 0e		 jmp	 SHORT $LN25@Insert_nod
$LN22@Insert_nod:

; 495  :         } else if (_Wherenode == _Wherenode->_Parent->_Left) {

  000a8	8b 4a 04	 mov	 ecx, DWORD PTR [edx+4]
  000ab	3b 01		 cmp	 eax, DWORD PTR [ecx]
  000ad	75 04		 jne	 SHORT $LN24@Insert_nod

; 496  :             _Wherenode->_Parent->_Left = _Pnode;

  000af	89 31		 mov	 DWORD PTR [ecx], esi

; 497  :         } else {

  000b1	eb 03		 jmp	 SHORT $LN25@Insert_nod
$LN24@Insert_nod:

; 498  :             _Wherenode->_Parent->_Right = _Pnode;

  000b3	89 71 08	 mov	 DWORD PTR [ecx+8], esi
$LN25@Insert_nod:

; 499  :         }
; 500  : 
; 501  :         _Pnode->_Left       = _Wherenode;

  000b6	89 06		 mov	 DWORD PTR [esi], eax

; 502  :         _Wherenode->_Parent = _Pnode;

  000b8	89 70 04	 mov	 DWORD PTR [eax+4], esi
$LN57@Insert_nod:

; 707  :                         _Lrotate(_Pnode);
; 708  :                     }
; 709  : 
; 710  :                     _Pnode->_Parent->_Color          = _Black; // propagate red up

  000bb	8b 48 04	 mov	 ecx, DWORD PTR [eax+4]
  000be	c6 41 0c 01	 mov	 BYTE PTR [ecx+12], 1

; 711  :                     _Pnode->_Parent->_Parent->_Color = _Red;

  000c2	8b 48 04	 mov	 ecx, DWORD PTR [eax+4]
  000c5	8b 49 04	 mov	 ecx, DWORD PTR [ecx+4]
  000c8	c6 41 0c 00	 mov	 BYTE PTR [ecx+12], 0

; 712  :                     _Rrotate(_Pnode->_Parent->_Parent);

  000cc	8b 48 04	 mov	 ecx, DWORD PTR [eax+4]
  000cf	8b 51 04	 mov	 edx, DWORD PTR [ecx+4]

; 506  :         _Nodeptr _Pnode   = _Wherenode->_Left;

  000d2	8b 32		 mov	 esi, DWORD PTR [edx]

; 507  :         _Wherenode->_Left = _Pnode->_Right;

  000d4	8b 4e 08	 mov	 ecx, DWORD PTR [esi+8]
  000d7	89 0a		 mov	 DWORD PTR [edx], ecx

; 508  : 
; 509  :         if (!_Pnode->_Right->_Isnil) {

  000d9	8b 4e 08	 mov	 ecx, DWORD PTR [esi+8]
  000dc	80 79 0d 00	 cmp	 BYTE PTR [ecx+13], 0
  000e0	75 03		 jne	 SHORT $LN29@Insert_nod

; 510  :             _Pnode->_Right->_Parent = _Wherenode;

  000e2	89 51 04	 mov	 DWORD PTR [ecx+4], edx
$LN29@Insert_nod:

; 511  :         }
; 512  : 
; 513  :         _Pnode->_Parent = _Wherenode->_Parent;

  000e5	8b 4a 04	 mov	 ecx, DWORD PTR [edx+4]
  000e8	89 4e 04	 mov	 DWORD PTR [esi+4], ecx

; 514  : 
; 515  :         if (_Wherenode == _Myhead->_Parent) {

  000eb	8b 0b		 mov	 ecx, DWORD PTR [ebx]
  000ed	3b 51 04	 cmp	 edx, DWORD PTR [ecx+4]
  000f0	75 0b		 jne	 SHORT $LN30@Insert_nod

; 516  :             _Myhead->_Parent = _Pnode;

  000f2	89 71 04	 mov	 DWORD PTR [ecx+4], esi

; 521  :         }
; 522  : 
; 523  :         _Pnode->_Right      = _Wherenode;

  000f5	89 56 08	 mov	 DWORD PTR [esi+8], edx

; 713  :                 }
; 714  :             } else { // fixup red-red in right subtree

  000f8	e9 cc 00 00 00	 jmp	 $LN81@Insert_nod
$LN30@Insert_nod:

; 517  :         } else if (_Wherenode == _Wherenode->_Parent->_Right) {

  000fd	8b 4a 04	 mov	 ecx, DWORD PTR [edx+4]
  00100	3b 51 08	 cmp	 edx, DWORD PTR [ecx+8]
  00103	75 0b		 jne	 SHORT $LN32@Insert_nod

; 518  :             _Wherenode->_Parent->_Right = _Pnode;

  00105	89 71 08	 mov	 DWORD PTR [ecx+8], esi

; 521  :         }
; 522  : 
; 523  :         _Pnode->_Right      = _Wherenode;

  00108	89 56 08	 mov	 DWORD PTR [esi+8], edx

; 713  :                 }
; 714  :             } else { // fixup red-red in right subtree

  0010b	e9 b9 00 00 00	 jmp	 $LN81@Insert_nod
$LN32@Insert_nod:

; 520  :             _Wherenode->_Parent->_Left = _Pnode;

  00110	89 31		 mov	 DWORD PTR [ecx], esi

; 521  :         }
; 522  : 
; 523  :         _Pnode->_Right      = _Wherenode;

  00112	89 56 08	 mov	 DWORD PTR [esi+8], edx

; 713  :                 }
; 714  :             } else { // fixup red-red in right subtree

  00115	e9 af 00 00 00	 jmp	 $LN81@Insert_nod
$LN10@Insert_nod:

; 715  :                 const auto _Parent_sibling = _Pnode->_Parent->_Parent->_Left;
; 716  :                 if (_Parent_sibling->_Color == _Red) { // parent's sibling has two red children, blacken both

  0011a	80 79 0c 00	 cmp	 BYTE PTR [ecx+12], 0
  0011e	75 1d		 jne	 SHORT $LN15@Insert_nod
$LN82@Insert_nod:

; 693  :             }
; 694  :         }
; 695  : 
; 696  :         for (_Nodeptr _Pnode = _Newnode; _Pnode->_Parent->_Color == _Red;) {

  00120	c6 42 0c 01	 mov	 BYTE PTR [edx+12], 1
  00124	c6 41 0c 01	 mov	 BYTE PTR [ecx+12], 1
  00128	8b 48 04	 mov	 ecx, DWORD PTR [eax+4]
  0012b	8b 49 04	 mov	 ecx, DWORD PTR [ecx+4]
  0012e	c6 41 0c 00	 mov	 BYTE PTR [ecx+12], 0
  00132	8b 48 04	 mov	 ecx, DWORD PTR [eax+4]
  00135	8b 41 04	 mov	 eax, DWORD PTR [ecx+4]
  00138	e9 8f 00 00 00	 jmp	 $LN2@Insert_nod
$LN15@Insert_nod:

; 717  :                     _Pnode->_Parent->_Color          = _Black;
; 718  :                     _Parent_sibling->_Color          = _Black;
; 719  :                     _Pnode->_Parent->_Parent->_Color = _Red;
; 720  :                     _Pnode                           = _Pnode->_Parent->_Parent;
; 721  :                 } else { // parent's sibling has red and black children
; 722  :                     if (_Pnode == _Pnode->_Parent->_Left) { // rotate left child to right

  0013d	8b 32		 mov	 esi, DWORD PTR [edx]
  0013f	3b c6		 cmp	 eax, esi
  00141	75 3a		 jne	 SHORT $LN42@Insert_nod

; 507  :         _Wherenode->_Left = _Pnode->_Right;

  00143	8b 4e 08	 mov	 ecx, DWORD PTR [esi+8]

; 723  :                         _Pnode = _Pnode->_Parent;

  00146	8b c2		 mov	 eax, edx

; 507  :         _Wherenode->_Left = _Pnode->_Right;

  00148	89 08		 mov	 DWORD PTR [eax], ecx

; 508  : 
; 509  :         if (!_Pnode->_Right->_Isnil) {

  0014a	8b 4e 08	 mov	 ecx, DWORD PTR [esi+8]
  0014d	80 79 0d 00	 cmp	 BYTE PTR [ecx+13], 0
  00151	75 03		 jne	 SHORT $LN37@Insert_nod

; 510  :             _Pnode->_Right->_Parent = _Wherenode;

  00153	89 41 04	 mov	 DWORD PTR [ecx+4], eax
$LN37@Insert_nod:

; 511  :         }
; 512  : 
; 513  :         _Pnode->_Parent = _Wherenode->_Parent;

  00156	8b 4a 04	 mov	 ecx, DWORD PTR [edx+4]
  00159	89 4e 04	 mov	 DWORD PTR [esi+4], ecx

; 514  : 
; 515  :         if (_Wherenode == _Myhead->_Parent) {

  0015c	8b 0b		 mov	 ecx, DWORD PTR [ebx]
  0015e	3b 41 04	 cmp	 eax, DWORD PTR [ecx+4]
  00161	75 05		 jne	 SHORT $LN38@Insert_nod

; 516  :             _Myhead->_Parent = _Pnode;

  00163	89 71 04	 mov	 DWORD PTR [ecx+4], esi
  00166	eb 0f		 jmp	 SHORT $LN41@Insert_nod
$LN38@Insert_nod:

; 517  :         } else if (_Wherenode == _Wherenode->_Parent->_Right) {

  00168	8b 4a 04	 mov	 ecx, DWORD PTR [edx+4]
  0016b	3b 41 08	 cmp	 eax, DWORD PTR [ecx+8]
  0016e	75 05		 jne	 SHORT $LN40@Insert_nod

; 518  :             _Wherenode->_Parent->_Right = _Pnode;

  00170	89 71 08	 mov	 DWORD PTR [ecx+8], esi

; 519  :         } else {

  00173	eb 02		 jmp	 SHORT $LN41@Insert_nod
$LN40@Insert_nod:

; 520  :             _Wherenode->_Parent->_Left = _Pnode;

  00175	89 31		 mov	 DWORD PTR [ecx], esi
$LN41@Insert_nod:

; 521  :         }
; 522  : 
; 523  :         _Pnode->_Right      = _Wherenode;

  00177	89 46 08	 mov	 DWORD PTR [esi+8], eax

; 524  :         _Wherenode->_Parent = _Pnode;

  0017a	89 70 04	 mov	 DWORD PTR [eax+4], esi
$LN42@Insert_nod:

; 724  :                         _Rrotate(_Pnode);
; 725  :                     }
; 726  : 
; 727  :                     _Pnode->_Parent->_Color          = _Black; // propagate red up

  0017d	8b 48 04	 mov	 ecx, DWORD PTR [eax+4]
  00180	c6 41 0c 01	 mov	 BYTE PTR [ecx+12], 1

; 728  :                     _Pnode->_Parent->_Parent->_Color = _Red;

  00184	8b 48 04	 mov	 ecx, DWORD PTR [eax+4]
  00187	8b 49 04	 mov	 ecx, DWORD PTR [ecx+4]
  0018a	c6 41 0c 00	 mov	 BYTE PTR [ecx+12], 0

; 729  :                     _Lrotate(_Pnode->_Parent->_Parent);

  0018e	8b 48 04	 mov	 ecx, DWORD PTR [eax+4]
  00191	8b 51 04	 mov	 edx, DWORD PTR [ecx+4]

; 484  :         _Nodeptr _Pnode    = _Wherenode->_Right;

  00194	8b 72 08	 mov	 esi, DWORD PTR [edx+8]

; 485  :         _Wherenode->_Right = _Pnode->_Left;

  00197	8b 0e		 mov	 ecx, DWORD PTR [esi]
  00199	89 4a 08	 mov	 DWORD PTR [edx+8], ecx

; 486  : 
; 487  :         if (!_Pnode->_Left->_Isnil) {

  0019c	8b 0e		 mov	 ecx, DWORD PTR [esi]
  0019e	80 79 0d 00	 cmp	 BYTE PTR [ecx+13], 0
  001a2	75 03		 jne	 SHORT $LN45@Insert_nod

; 488  :             _Pnode->_Left->_Parent = _Wherenode;

  001a4	89 51 04	 mov	 DWORD PTR [ecx+4], edx
$LN45@Insert_nod:

; 489  :         }
; 490  : 
; 491  :         _Pnode->_Parent = _Wherenode->_Parent;

  001a7	8b 4a 04	 mov	 ecx, DWORD PTR [edx+4]
  001aa	89 4e 04	 mov	 DWORD PTR [esi+4], ecx

; 492  : 
; 493  :         if (_Wherenode == _Myhead->_Parent) {

  001ad	8b 0b		 mov	 ecx, DWORD PTR [ebx]
  001af	3b 51 04	 cmp	 edx, DWORD PTR [ecx+4]
  001b2	75 05		 jne	 SHORT $LN46@Insert_nod

; 494  :             _Myhead->_Parent = _Pnode;

  001b4	89 71 04	 mov	 DWORD PTR [ecx+4], esi
  001b7	eb 0e		 jmp	 SHORT $LN49@Insert_nod
$LN46@Insert_nod:

; 495  :         } else if (_Wherenode == _Wherenode->_Parent->_Left) {

  001b9	8b 4a 04	 mov	 ecx, DWORD PTR [edx+4]
  001bc	3b 11		 cmp	 edx, DWORD PTR [ecx]
  001be	75 04		 jne	 SHORT $LN48@Insert_nod

; 496  :             _Wherenode->_Parent->_Left = _Pnode;

  001c0	89 31		 mov	 DWORD PTR [ecx], esi

; 497  :         } else {

  001c2	eb 03		 jmp	 SHORT $LN49@Insert_nod
$LN48@Insert_nod:

; 498  :             _Wherenode->_Parent->_Right = _Pnode;

  001c4	89 71 08	 mov	 DWORD PTR [ecx+8], esi
$LN49@Insert_nod:

; 499  :         }
; 500  : 
; 501  :         _Pnode->_Left       = _Wherenode;

  001c7	89 16		 mov	 DWORD PTR [esi], edx
$LN81@Insert_nod:

; 693  :             }
; 694  :         }
; 695  : 
; 696  :         for (_Nodeptr _Pnode = _Newnode; _Pnode->_Parent->_Color == _Red;) {

  001c9	89 72 04	 mov	 DWORD PTR [edx+4], esi
$LN2@Insert_nod:
  001cc	8b 48 04	 mov	 ecx, DWORD PTR [eax+4]
  001cf	80 79 0c 00	 cmp	 BYTE PTR [ecx+12], 0
  001d3	0f 84 87 fe ff
	ff		 je	 $LL4@Insert_nod
  001d9	5e		 pop	 esi
$LN3@Insert_nod:

; 730  :                 }
; 731  :             }
; 732  :         }
; 733  : 
; 734  :         _Head->_Parent->_Color = _Black; // root is always black

  001da	8b 45 fc	 mov	 eax, DWORD PTR __Head$1$[ebp]
  001dd	8b 40 04	 mov	 eax, DWORD PTR [eax+4]
  001e0	c6 40 0c 01	 mov	 BYTE PTR [eax+12], 1

; 735  :         return _Newnode;
; 736  :     }

  001e4	8b c7		 mov	 eax, edi
  001e6	5f		 pop	 edi
  001e7	5b		 pop	 ebx
  001e8	8b e5		 mov	 esp, ebp
  001ea	5d		 pop	 ebp
  001eb	c2 0c 00	 ret	 12			; 0000000cH
?_Insert_node@?$_Tree_val@U?$_Tree_simple_types@U?$pair@$$CBHUREWARD@CCampusHelper@@@std@@@std@@@std@@QAEPAU?$_Tree_node@U?$pair@$$CBHUREWARD@CCampusHelper@@@std@@PAX@2@U?$_Tree_id@PAU?$_Tree_node@U?$pair@$$CBHUREWARD@CCampusHelper@@@std@@PAX@std@@@2@QAU32@@Z ENDP ; std::_Tree_val<std::_Tree_simple_types<std::pair<int const ,CCampusHelper::REWARD> > >::_Insert_node
_TEXT	ENDS
; Function compile flags: /Ogtp
; File C:\Program Files\Microsoft Visual Studio\2022\Professional\VC\Tools\MSVC\14.44.35207\include\xtree
; File C:\Program Files\Microsoft Visual Studio\2022\Professional\VC\Tools\MSVC\14.44.35207\include\utility
; File C:\Program Files\Microsoft Visual Studio\2022\Professional\VC\Tools\MSVC\14.44.35207\include\xmemory
; File C:\Program Files\Microsoft Visual Studio\2022\Professional\VC\Tools\MSVC\14.44.35207\include\xtree
; File C:\Program Files\Microsoft Visual Studio\2022\Professional\VC\Tools\MSVC\14.44.35207\include\xmemory
; File C:\Program Files\Microsoft Visual Studio\2022\Professional\VC\Tools\MSVC\14.44.35207\include\xtree
;	COMDAT ??1?$_Tree@V?$_Tmap_traits@HUREWARD@CCampusHelper@@U?$less@H@std@@V?$allocator@U?$pair@$$CBHUREWARD@CCampusHelper@@@std@@@4@$0A@@std@@@std@@QAE@XZ
_TEXT	SEGMENT
??1?$_Tree@V?$_Tmap_traits@HUREWARD@CCampusHelper@@U?$less@H@std@@V?$allocator@U?$pair@$$CBHUREWARD@CCampusHelper@@@std@@@4@$0A@@std@@@std@@QAE@XZ PROC ; std::_Tree<std::_Tmap_traits<int,CCampusHelper::REWARD,std::less<int>,std::allocator<std::pair<int const ,CCampusHelper::REWARD> >,0> >::~_Tree<std::_Tmap_traits<int,CCampusHelper::REWARD,std::less<int>,std::allocator<std::pair<int const ,CCampusHelper::REWARD> >,0> >, COMDAT
; _this$ = ecx

; 1095 :     ~_Tree() noexcept {

  00000	56		 push	 esi
  00001	57		 push	 edi
  00002	8b f9		 mov	 edi, ecx

; 777  :         _Erase_tree(_Al, _Myhead->_Parent);

  00004	8b 37		 mov	 esi, DWORD PTR [edi]
  00006	8b 76 04	 mov	 esi, DWORD PTR [esi+4]

; 768  :         while (!_Rootnode->_Isnil) { // free subtrees, then node

  00009	80 7e 0d 00	 cmp	 BYTE PTR [esi+13], 0
  0000d	75 21		 jne	 SHORT $LN61@Tree
  0000f	90		 npad	 1
$LL8@Tree:

; 769  :             _Erase_tree(_Al, _Rootnode->_Right);

  00010	ff 76 08	 push	 DWORD PTR [esi+8]
  00013	8b cf		 mov	 ecx, edi
  00015	57		 push	 edi
  00016	e8 00 00 00 00	 call	 ??$_Erase_tree@V?$allocator@U?$_Tree_node@U?$pair@$$CBHUREWARD@CCampusHelper@@@std@@PAX@std@@@std@@@?$_Tree_val@U?$_Tree_simple_types@U?$pair@$$CBHUREWARD@CCampusHelper@@@std@@@std@@@std@@QAEXAAV?$allocator@U?$_Tree_node@U?$pair@$$CBHUREWARD@CCampusHelper@@@std@@PAX@std@@@1@PAU?$_Tree_node@U?$pair@$$CBHUREWARD@CCampusHelper@@@std@@PAX@1@@Z ; std::_Tree_val<std::_Tree_simple_types<std::pair<int const ,CCampusHelper::REWARD> > >::_Erase_tree<std::allocator<std::_Tree_node<std::pair<int const ,CCampusHelper::REWARD>,void *> > >
; File C:\Program Files\Microsoft Visual Studio\2022\Professional\VC\Tools\MSVC\14.44.35207\include\utility

; 773  :     _Ty _Old_val = static_cast<_Ty&&>(_Val);

  0001b	8b c6		 mov	 eax, esi

; 774  :     _Val         = static_cast<_Other&&>(_New_val);

  0001d	8b 36		 mov	 esi, DWORD PTR [esi]
; File C:\Program Files\Microsoft Visual Studio\2022\Professional\VC\Tools\MSVC\14.44.35207\include\xmemory

; 289  :         ::operator delete(_Ptr, _Bytes);

  0001f	6a 1c		 push	 28			; 0000001cH
  00021	50		 push	 eax
  00022	e8 00 00 00 00	 call	 ??3@YAXPAXI@Z		; operator delete
  00027	83 c4 08	 add	 esp, 8
; File C:\Program Files\Microsoft Visual Studio\2022\Professional\VC\Tools\MSVC\14.44.35207\include\xtree

; 768  :         while (!_Rootnode->_Isnil) { // free subtrees, then node

  0002a	80 7e 0d 00	 cmp	 BYTE PTR [esi+13], 0
  0002e	74 e0		 je	 SHORT $LL8@Tree
$LN61@Tree:
; File C:\Program Files\Microsoft Visual Studio\2022\Professional\VC\Tools\MSVC\14.44.35207\include\xmemory

; 289  :         ::operator delete(_Ptr, _Bytes);

  00030	6a 1c		 push	 28			; 0000001cH
  00032	ff 37		 push	 DWORD PTR [edi]
  00034	e8 00 00 00 00	 call	 ??3@YAXPAXI@Z		; operator delete
  00039	83 c4 08	 add	 esp, 8
  0003c	5f		 pop	 edi
  0003d	5e		 pop	 esi
; File C:\Program Files\Microsoft Visual Studio\2022\Professional\VC\Tools\MSVC\14.44.35207\include\xtree

; 1102 :     }

  0003e	c3		 ret	 0
??1?$_Tree@V?$_Tmap_traits@HUREWARD@CCampusHelper@@U?$less@H@std@@V?$allocator@U?$pair@$$CBHUREWARD@CCampusHelper@@@std@@@4@$0A@@std@@@std@@QAE@XZ ENDP ; std::_Tree<std::_Tmap_traits<int,CCampusHelper::REWARD,std::less<int>,std::allocator<std::pair<int const ,CCampusHelper::REWARD> >,0> >::~_Tree<std::_Tmap_traits<int,CCampusHelper::REWARD,std::less<int>,std::allocator<std::pair<int const ,CCampusHelper::REWARD> >,0> >
_TEXT	ENDS
; Function compile flags: /Ogtp
; File C:\IAGOS\server\v18\Source\Source\WorldServer\CampusHelper.cpp
; File C:\IAGOS\server\v18\Source\Source\_Common\Obj.h
; File C:\IAGOS\server\v18\Source\Source\WorldServer\CampusHelper.cpp
; File C:\IAGOS\server\v18\Source\Source\WorldServer\CampusHelper.h
; File C:\IAGOS\server\v18\Source\Source\WorldServer\CampusHelper.cpp
; File C:\IAGOS\server\v18\Source\Source\_Common\Campus.h
; File C:\IAGOS\server\v18\Source\Source\WorldServer\CampusHelper.cpp
; File C:\IAGOS\server\v18\Source\Source\_Common\Campus.h
; File C:\IAGOS\server\v18\Source\Source\WorldServer\CampusHelper.cpp
;	COMDAT ?OnRemoveCampusMember@CCampusHelper@@QAEXPAVCUser@@K@Z
_TEXT	SEGMENT
_pRequest$ = 8						; size = 4
_idTarget$ = 12						; size = 4
?OnRemoveCampusMember@CCampusHelper@@QAEXPAVCUser@@K@Z PROC ; CCampusHelper::OnRemoveCampusMember, COMDAT
; _this$ = ecx

; 473  : {

  00000	55		 push	 ebp
  00001	8b ec		 mov	 ebp, esp
  00003	56		 push	 esi
; File C:\IAGOS\server\v18\Source\Source\_Common\Obj.h

; 327  : 	return pObj && ( pObj->IsDelete() == FALSE ); 

  00004	8b 75 08	 mov	 esi, DWORD PTR _pRequest$[ebp]
  00007	85 f6		 test	 esi, esi
  00009	0f 84 8a 00 00
	00		 je	 $LN7@OnRemoveCa

; 180  : 	BOOL			IsDelete()	{ return (m_dwFlags & OBJ_FLAG_DELETE);  }

  0000f	f6 46 04 01	 test	 BYTE PTR [esi+4], 1

; 327  : 	return pObj && ( pObj->IsDelete() == FALSE ); 

  00013	0f 85 80 00 00
	00		 jne	 $LN7@OnRemoveCa
; File C:\IAGOS\server\v18\Source\Source\WorldServer\CampusHelper.cpp

; 474  : 	if( !IsValidObj( pRequest ) || idTarget <= 0 )

  00019	57		 push	 edi
  0001a	8b 7d 0c	 mov	 edi, DWORD PTR _idTarget$[ebp]
  0001d	85 ff		 test	 edi, edi
  0001f	74 77		 je	 SHORT $LN33@OnRemoveCa
; File C:\IAGOS\server\v18\Source\Source\WorldServer\CampusHelper.h

; 41   : 	CCampus*	GetCampus( u_long idCampus )	{	return m_pCampusMng->GetCampus( idCampus );	}

  00021	8b 09		 mov	 ecx, DWORD PTR [ecx]
  00023	53		 push	 ebx
  00024	ff b6 cc 14 00
	00		 push	 DWORD PTR [esi+5324]
  0002a	e8 00 00 00 00	 call	 ?GetCampus@CCampusMng@@QAEPAVCCampus@@K@Z ; CCampusMng::GetCampus
  0002f	8b d8		 mov	 ebx, eax
; File C:\IAGOS\server\v18\Source\Source\WorldServer\CampusHelper.cpp

; 478  : 	if( pCampus && pCampus->IsMember( idTarget ) )

  00031	85 db		 test	 ebx, ebx
  00033	74 62		 je	 SHORT $LN34@OnRemoveCa
  00035	57		 push	 edi
  00036	8b cb		 mov	 ecx, ebx
  00038	e8 00 00 00 00	 call	 ?IsMember@CCampus@@QAEHK@Z ; CCampus::IsMember
  0003d	85 c0		 test	 eax, eax
  0003f	74 56		 je	 SHORT $LN34@OnRemoveCa
; File C:\IAGOS\server\v18\Source\Source\_Common\Campus.h

; 54   : 	BOOL	IsMaster( u_long idPlayer )		{	return ( idPlayer == m_idMaster );	}

  00041	8b 86 34 02 00
	00		 mov	 eax, DWORD PTR [esi+564]
  00047	3b 43 04	 cmp	 eax, DWORD PTR [ebx+4]
; File C:\IAGOS\server\v18\Source\Source\WorldServer\CampusHelper.cpp

; 480  : 		if( pCampus->IsMaster( pRequest->m_idPlayer ) && pCampus->IsPupil( idTarget ) )

  0004a	75 0c		 jne	 SHORT $LN23@OnRemoveCa
  0004c	57		 push	 edi
  0004d	8b cb		 mov	 ecx, ebx
  0004f	e8 00 00 00 00	 call	 ?IsPupil@CCampus@@QAEHK@Z ; CCampus::IsPupil
  00054	85 c0		 test	 eax, eax
  00056	75 1c		 jne	 SHORT $LN8@OnRemoveCa
$LN23@OnRemoveCa:

; 482  : 		else if( pCampus->IsPupil( pRequest->m_idPlayer ) && pCampus->IsMaster( idTarget ) )

  00058	ff b6 34 02 00
	00		 push	 DWORD PTR [esi+564]
  0005e	8b cb		 mov	 ecx, ebx
  00060	e8 00 00 00 00	 call	 ?IsPupil@CCampus@@QAEHK@Z ; CCampus::IsPupil
  00065	85 c0		 test	 eax, eax
  00067	74 2e		 je	 SHORT $LN34@OnRemoveCa
; File C:\IAGOS\server\v18\Source\Source\_Common\Campus.h

; 54   : 	BOOL	IsMaster( u_long idPlayer )		{	return ( idPlayer == m_idMaster );	}

  00069	3b 7b 04	 cmp	 edi, DWORD PTR [ebx+4]
; File C:\IAGOS\server\v18\Source\Source\WorldServer\CampusHelper.cpp

; 482  : 		else if( pCampus->IsPupil( pRequest->m_idPlayer ) && pCampus->IsMaster( idTarget ) )

  0006c	75 29		 jne	 SHORT $LN34@OnRemoveCa

; 483  : 			g_dpDBClient.SendRemoveCampusMember( pCampus->GetCampusId(), pRequest->m_idPlayer );

  0006e	8b be 34 02 00
	00		 mov	 edi, DWORD PTR [esi+564]
$LN8@OnRemoveCa:

; 484  : 		else
; 485  : 			return;
; 486  : 		
; 487  : 		g_dpDBClient.SendUpdateCampusPoint( pRequest->m_idPlayer, REMOVE_CAMPUS_POINT, FALSE, 'D' );

  00074	57		 push	 edi
  00075	ff 33		 push	 DWORD PTR [ebx]
  00077	b9 00 00 00 00	 mov	 ecx, OFFSET ?g_dpDBClient@@3VCDPDatabaseClient@@A ; g_dpDBClient
  0007c	e8 00 00 00 00	 call	 ?SendRemoveCampusMember@CDPDatabaseClient@@QAEXKK@Z ; CDPDatabaseClient::SendRemoveCampusMember
  00081	6a 44		 push	 68			; 00000044H
  00083	6a 00		 push	 0
  00085	6a 05		 push	 5
  00087	ff b6 34 02 00
	00		 push	 DWORD PTR [esi+564]
  0008d	b9 00 00 00 00	 mov	 ecx, OFFSET ?g_dpDBClient@@3VCDPDatabaseClient@@A ; g_dpDBClient
  00092	e8 00 00 00 00	 call	 ?SendUpdateCampusPoint@CDPDatabaseClient@@QAEXKHHD@Z ; CDPDatabaseClient::SendUpdateCampusPoint
$LN34@OnRemoveCa:
  00097	5b		 pop	 ebx
$LN33@OnRemoveCa:
  00098	5f		 pop	 edi
$LN7@OnRemoveCa:
  00099	5e		 pop	 esi

; 488  : 	}
; 489  : }

  0009a	5d		 pop	 ebp
  0009b	c2 08 00	 ret	 8
?OnRemoveCampusMember@CCampusHelper@@QAEXPAVCUser@@K@Z ENDP ; CCampusHelper::OnRemoveCampusMember
_TEXT	ENDS
; Function compile flags: /Ogtp
; File C:\IAGOS\server\v18\Source\Source\WorldServer\CampusHelper.cpp
; File C:\IAGOS\server\v18\Source\Source\_Common\Obj.h
; File C:\IAGOS\server\v18\Source\Source\WorldServer\CampusHelper.cpp
; File C:\IAGOS\server\v18\Source\Source\_Common\Obj.h
; File C:\IAGOS\server\v18\Source\Source\WorldServer\CampusHelper.cpp
;	COMDAT ?OnAcceptCampusMember@CCampusHelper@@QAEXPAVCUser@@0@Z
_TEXT	SEGMENT
_pRequest$ = 8						; size = 4
_pTarget$ = 12						; size = 4
?OnAcceptCampusMember@CCampusHelper@@QAEXPAVCUser@@0@Z PROC ; CCampusHelper::OnAcceptCampusMember, COMDAT
; _this$ = ecx

; 461  : {

  00000	55		 push	 ebp
  00001	8b ec		 mov	 ebp, esp
  00003	53		 push	 ebx
  00004	56		 push	 esi
; File C:\IAGOS\server\v18\Source\Source\_Common\Obj.h

; 327  : 	return pObj && ( pObj->IsDelete() == FALSE ); 

  00005	8b 75 08	 mov	 esi, DWORD PTR _pRequest$[ebp]
; File C:\IAGOS\server\v18\Source\Source\WorldServer\CampusHelper.cpp

; 461  : {

  00008	8b d9		 mov	 ebx, ecx
; File C:\IAGOS\server\v18\Source\Source\_Common\Obj.h

; 327  : 	return pObj && ( pObj->IsDelete() == FALSE ); 

  0000a	85 f6		 test	 esi, esi
  0000c	0f 84 b4 00 00
	00		 je	 $LN3@OnAcceptCa

; 180  : 	BOOL			IsDelete()	{ return (m_dwFlags & OBJ_FLAG_DELETE);  }

  00012	f6 46 04 01	 test	 BYTE PTR [esi+4], 1

; 327  : 	return pObj && ( pObj->IsDelete() == FALSE ); 

  00016	0f 85 aa 00 00
	00		 jne	 $LN3@OnAcceptCa
  0001c	57		 push	 edi
  0001d	8b 7d 0c	 mov	 edi, DWORD PTR _pTarget$[ebp]
  00020	85 ff		 test	 edi, edi
  00022	0f 84 9d 00 00
	00		 je	 $LN32@OnAcceptCa

; 180  : 	BOOL			IsDelete()	{ return (m_dwFlags & OBJ_FLAG_DELETE);  }

  00028	f6 47 04 01	 test	 BYTE PTR [edi+4], 1

; 327  : 	return pObj && ( pObj->IsDelete() == FALSE ); 

  0002c	0f 85 93 00 00
	00		 jne	 $LN32@OnAcceptCa
; File C:\IAGOS\server\v18\Source\Source\WorldServer\CampusHelper.cpp

; 465  : 	if( IsMasterLevel( pRequest ) && IsPupilLevel( pTarget ) && IsInviteAble( pRequest, pTarget ) )

  00032	56		 push	 esi
  00033	e8 00 00 00 00	 call	 ?IsMasterLevel@CCampusHelper@@QAEHPAVCUser@@@Z ; CCampusHelper::IsMasterLevel
  00038	85 c0		 test	 eax, eax
  0003a	74 42		 je	 SHORT $LN4@OnAcceptCa
  0003c	57		 push	 edi
  0003d	8b cb		 mov	 ecx, ebx
  0003f	e8 00 00 00 00	 call	 ?IsPupilLevel@CCampusHelper@@QAEHPAVCUser@@@Z ; CCampusHelper::IsPupilLevel
  00044	85 c0		 test	 eax, eax
  00046	74 36		 je	 SHORT $LN4@OnAcceptCa
  00048	57		 push	 edi
  00049	56		 push	 esi
  0004a	8b cb		 mov	 ecx, ebx
  0004c	e8 00 00 00 00	 call	 ?IsInviteAble@CCampusHelper@@QAEHPAVCUser@@0@Z ; CCampusHelper::IsInviteAble
  00051	85 c0		 test	 eax, eax
  00053	74 29		 je	 SHORT $LN4@OnAcceptCa

; 466  : 		g_dpDBClient.SendAddCampusMember( pRequest->m_idPlayer, pRequest->GetCampusPoint(), pTarget->m_idPlayer, pTarget->GetCampusPoint() );

  00055	ff b7 d0 14 00
	00		 push	 DWORD PTR [edi+5328]

; 469  : 		g_dpDBClient.SendAddCampusMember( pTarget->m_idPlayer, pTarget->GetCampusPoint(), pRequest->m_idPlayer, pRequest->GetCampusPoint() );

  0005b	b9 00 00 00 00	 mov	 ecx, OFFSET ?g_dpDBClient@@3VCDPDatabaseClient@@A ; g_dpDBClient
  00060	ff b7 34 02 00
	00		 push	 DWORD PTR [edi+564]
  00066	ff b6 d0 14 00
	00		 push	 DWORD PTR [esi+5328]
  0006c	ff b6 34 02 00
	00		 push	 DWORD PTR [esi+564]
  00072	e8 00 00 00 00	 call	 ?SendAddCampusMember@CDPDatabaseClient@@QAEXKHKH@Z ; CDPDatabaseClient::SendAddCampusMember
  00077	5f		 pop	 edi
  00078	5e		 pop	 esi

; 470  : }

  00079	5b		 pop	 ebx
  0007a	5d		 pop	 ebp
  0007b	c2 08 00	 ret	 8
$LN4@OnAcceptCa:

; 467  : 	
; 468  : 	else if( IsMasterLevel( pTarget ) && IsPupilLevel( pRequest ) && IsInviteAble( pRequest, pTarget ) )

  0007e	57		 push	 edi
  0007f	8b cb		 mov	 ecx, ebx
  00081	e8 00 00 00 00	 call	 ?IsMasterLevel@CCampusHelper@@QAEHPAVCUser@@@Z ; CCampusHelper::IsMasterLevel
  00086	85 c0		 test	 eax, eax
  00088	74 3b		 je	 SHORT $LN32@OnAcceptCa
  0008a	56		 push	 esi
  0008b	8b cb		 mov	 ecx, ebx
  0008d	e8 00 00 00 00	 call	 ?IsPupilLevel@CCampusHelper@@QAEHPAVCUser@@@Z ; CCampusHelper::IsPupilLevel
  00092	85 c0		 test	 eax, eax
  00094	74 2f		 je	 SHORT $LN32@OnAcceptCa
  00096	57		 push	 edi
  00097	56		 push	 esi
  00098	8b cb		 mov	 ecx, ebx
  0009a	e8 00 00 00 00	 call	 ?IsInviteAble@CCampusHelper@@QAEHPAVCUser@@0@Z ; CCampusHelper::IsInviteAble
  0009f	85 c0		 test	 eax, eax
  000a1	74 22		 je	 SHORT $LN32@OnAcceptCa

; 469  : 		g_dpDBClient.SendAddCampusMember( pTarget->m_idPlayer, pTarget->GetCampusPoint(), pRequest->m_idPlayer, pRequest->GetCampusPoint() );

  000a3	ff b6 d0 14 00
	00		 push	 DWORD PTR [esi+5328]
  000a9	b9 00 00 00 00	 mov	 ecx, OFFSET ?g_dpDBClient@@3VCDPDatabaseClient@@A ; g_dpDBClient
  000ae	ff b6 34 02 00
	00		 push	 DWORD PTR [esi+564]
  000b4	ff b7 d0 14 00
	00		 push	 DWORD PTR [edi+5328]
  000ba	ff b7 34 02 00
	00		 push	 DWORD PTR [edi+564]
  000c0	e8 00 00 00 00	 call	 ?SendAddCampusMember@CDPDatabaseClient@@QAEXKHKH@Z ; CDPDatabaseClient::SendAddCampusMember
$LN32@OnAcceptCa:
  000c5	5f		 pop	 edi
$LN3@OnAcceptCa:
  000c6	5e		 pop	 esi

; 470  : }

  000c7	5b		 pop	 ebx
  000c8	5d		 pop	 ebp
  000c9	c2 08 00	 ret	 8
?OnAcceptCampusMember@CCampusHelper@@QAEXPAVCUser@@0@Z ENDP ; CCampusHelper::OnAcceptCampusMember
_TEXT	ENDS
; Function compile flags: /Ogtp
; File C:\IAGOS\server\v18\Source\Source\WorldServer\CampusHelper.cpp
; File C:\IAGOS\server\v18\Source\Source\_Common\Obj.h
; File C:\IAGOS\server\v18\Source\Source\WorldServer\CampusHelper.cpp
;	COMDAT ?OnInviteCampusMember@CCampusHelper@@QAEXPAVCUser@@0@Z
_TEXT	SEGMENT
_pRequest$ = 8						; size = 4
_pTarget$ = 12						; size = 4
?OnInviteCampusMember@CCampusHelper@@QAEXPAVCUser@@0@Z PROC ; CCampusHelper::OnInviteCampusMember, COMDAT
; _this$ = ecx

; 452  : {

  00000	55		 push	 ebp
  00001	8b ec		 mov	 ebp, esp
  00003	56		 push	 esi
; File C:\IAGOS\server\v18\Source\Source\_Common\Obj.h

; 327  : 	return pObj && ( pObj->IsDelete() == FALSE ); 

  00004	8b 75 08	 mov	 esi, DWORD PTR _pRequest$[ebp]
  00007	85 f6		 test	 esi, esi
  00009	74 28		 je	 SHORT $LN3@OnInviteCa

; 180  : 	BOOL			IsDelete()	{ return (m_dwFlags & OBJ_FLAG_DELETE);  }

  0000b	f6 46 04 01	 test	 BYTE PTR [esi+4], 1

; 327  : 	return pObj && ( pObj->IsDelete() == FALSE ); 

  0000f	75 22		 jne	 SHORT $LN3@OnInviteCa
  00011	57		 push	 edi
  00012	8b 7d 0c	 mov	 edi, DWORD PTR _pTarget$[ebp]
  00015	85 ff		 test	 edi, edi
  00017	74 19		 je	 SHORT $LN25@OnInviteCa

; 180  : 	BOOL			IsDelete()	{ return (m_dwFlags & OBJ_FLAG_DELETE);  }

  00019	f6 47 04 01	 test	 BYTE PTR [edi+4], 1

; 327  : 	return pObj && ( pObj->IsDelete() == FALSE ); 

  0001d	75 13		 jne	 SHORT $LN25@OnInviteCa
; File C:\IAGOS\server\v18\Source\Source\WorldServer\CampusHelper.cpp

; 456  : 	if( IsInviteAble( pRequest, pTarget ) )

  0001f	57		 push	 edi
  00020	56		 push	 esi
  00021	e8 00 00 00 00	 call	 ?IsInviteAble@CCampusHelper@@QAEHPAVCUser@@0@Z ; CCampusHelper::IsInviteAble
  00026	85 c0		 test	 eax, eax
  00028	74 08		 je	 SHORT $LN25@OnInviteCa

; 457  : 		pTarget->AddInviteCampusMember( pRequest );

  0002a	56		 push	 esi
  0002b	8b cf		 mov	 ecx, edi
  0002d	e8 00 00 00 00	 call	 ?AddInviteCampusMember@CUser@@QAEXPAV1@@Z ; CUser::AddInviteCampusMember
$LN25@OnInviteCa:
  00032	5f		 pop	 edi
$LN3@OnInviteCa:
  00033	5e		 pop	 esi

; 458  : }

  00034	5d		 pop	 ebp
  00035	c2 08 00	 ret	 8
?OnInviteCampusMember@CCampusHelper@@QAEXPAVCUser@@0@Z ENDP ; CCampusHelper::OnInviteCampusMember
_TEXT	ENDS
; Function compile flags: /Ogtp
; File C:\IAGOS\server\v18\Source\Source\WorldServer\CampusHelper.cpp
; File C:\Program Files\Microsoft Visual Studio\2022\Professional\VC\Tools\MSVC\14.44.35207\include\xtree
; File C:\IAGOS\server\v18\Source\Source\WorldServer\CampusHelper.cpp
; File C:\Program Files\Microsoft Visual Studio\2022\Professional\VC\Tools\MSVC\14.44.35207\include\xtree
; File C:\Program Files\Microsoft Visual Studio\2022\Professional\VC\Tools\MSVC\14.44.35207\include\type_traits
; File C:\Program Files\Microsoft Visual Studio\2022\Professional\VC\Tools\MSVC\14.44.35207\include\xtree
; File C:\IAGOS\server\v18\Source\Source\WorldServer\CampusHelper.cpp
;	COMDAT ?GetReward@CCampusHelper@@QAEPAUREWARD@1@H@Z
_TEXT	SEGMENT
__Loc$1 = -12						; size = 12
_nLevel$ = 8						; size = 4
?GetReward@CCampusHelper@@QAEPAUREWARD@1@H@Z PROC	; CCampusHelper::GetReward, COMDAT
; _this$ = ecx

; 443  : {

  00000	55		 push	 ebp
  00001	8b ec		 mov	 ebp, esp
  00003	83 ec 0c	 sub	 esp, 12			; 0000000cH
  00006	56		 push	 esi
; File C:\Program Files\Microsoft Visual Studio\2022\Professional\VC\Tools\MSVC\14.44.35207\include\xtree

; 1384 :         const _Tree_find_result<_Nodeptr> _Loc = _Find_lower_bound(_Keyval);

  00007	8d 45 08	 lea	 eax, DWORD PTR _nLevel$[ebp]
  0000a	50		 push	 eax
; File C:\IAGOS\server\v18\Source\Source\WorldServer\CampusHelper.cpp

; 444  : 	MAP_CREWORD::iterator it = m_mapCReward.find( nLevel );

  0000b	8d 71 20	 lea	 esi, DWORD PTR [ecx+32]
; File C:\Program Files\Microsoft Visual Studio\2022\Professional\VC\Tools\MSVC\14.44.35207\include\xtree

; 1384 :         const _Tree_find_result<_Nodeptr> _Loc = _Find_lower_bound(_Keyval);

  0000e	8d 45 f4	 lea	 eax, DWORD PTR __Loc$1[ebp]
  00011	8b ce		 mov	 ecx, esi
  00013	50		 push	 eax
  00014	e8 00 00 00 00	 call	 ??$_Find_lower_bound@H@?$_Tree@V?$_Tmap_traits@HUREWARD@CCampusHelper@@U?$less@H@std@@V?$allocator@U?$pair@$$CBHUREWARD@CCampusHelper@@@std@@@4@$0A@@std@@@std@@IBE?AU?$_Tree_find_result@PAU?$_Tree_node@U?$pair@$$CBHUREWARD@CCampusHelper@@@std@@PAX@std@@@1@ABH@Z ; std::_Tree<std::_Tmap_traits<int,CCampusHelper::REWARD,std::less<int>,std::allocator<std::pair<int const ,CCampusHelper::REWARD> >,0> >::_Find_lower_bound<int>

; 1624 :         return !_Bound->_Isnil && !_DEBUG_LT_PRED(_Getcomp(), _Keyval, _Traits::_Kfn(_Bound->_Myval));

  00019	8b 55 fc	 mov	 edx, DWORD PTR __Loc$1[ebp+8]
  0001c	80 7a 0d 00	 cmp	 BYTE PTR [edx+13], 0
  00020	75 19		 jne	 SHORT $LN2@GetReward
; File C:\Program Files\Microsoft Visual Studio\2022\Professional\VC\Tools\MSVC\14.44.35207\include\type_traits

; 2380 :         return _Left < _Right;

  00022	8b 45 08	 mov	 eax, DWORD PTR _nLevel$[ebp]
  00025	3b 42 10	 cmp	 eax, DWORD PTR [edx+16]
; File C:\Program Files\Microsoft Visual Studio\2022\Professional\VC\Tools\MSVC\14.44.35207\include\xtree

; 1624 :         return !_Bound->_Isnil && !_DEBUG_LT_PRED(_Getcomp(), _Keyval, _Traits::_Kfn(_Bound->_Myval));

  00028	7c 11		 jl	 SHORT $LN2@GetReward

; 37   :     _Tree_unchecked_const_iterator(_Nodeptr _Pnode, const _Mytree* _Plist) noexcept : _Ptr(_Pnode) {

  0002a	33 c0		 xor	 eax, eax
  0002c	8d 4a 14	 lea	 ecx, DWORD PTR [edx+20]
  0002f	3b 16		 cmp	 edx, DWORD PTR [esi]
  00031	5e		 pop	 esi
  00032	0f 45 c1	 cmovne	 eax, ecx
; File C:\IAGOS\server\v18\Source\Source\WorldServer\CampusHelper.cpp

; 449  : }

  00035	8b e5		 mov	 esp, ebp
  00037	5d		 pop	 ebp
  00038	c2 04 00	 ret	 4
$LN2@GetReward:

; 445  : 	if( it != m_mapCReward.end() )
; 446  : 		return &it->second;
; 447  : 
; 448  : 	return NULL;

  0003b	33 c0		 xor	 eax, eax
  0003d	5e		 pop	 esi

; 449  : }

  0003e	8b e5		 mov	 esp, ebp
  00040	5d		 pop	 ebp
  00041	c2 04 00	 ret	 4
?GetReward@CCampusHelper@@QAEPAUREWARD@1@H@Z ENDP	; CCampusHelper::GetReward
_TEXT	ENDS
; Function compile flags: /Ogtp
; File C:\IAGOS\server\v18\Source\Source\WorldServer\CampusHelper.cpp
; File C:\IAGOS\server\v18\Source\Source\_Common\Obj.h
; File C:\IAGOS\server\v18\Source\Source\WorldServer\CampusHelper.cpp
; File C:\IAGOS\server\v18\Source\Source\_Common\Obj.h
; File C:\IAGOS\server\v18\Source\Source\WorldServer\CampusHelper.h
; File C:\IAGOS\server\v18\Source\Source\WorldServer\CampusHelper.cpp
; File C:\IAGOS\server\v18\Source\Source\_Common\Campus.h
; File C:\IAGOS\server\v18\Source\Source\WorldServer\CampusHelper.cpp
;	COMDAT ?SetLevelUpReward@CCampusHelper@@QAEXPAVCUser@@@Z
_TEXT	SEGMENT
_this$1$ = -4						; size = 4
_pUser$ = 8						; size = 4
_pReward$1$ = 8						; size = 4
?SetLevelUpReward@CCampusHelper@@QAEXPAVCUser@@@Z PROC	; CCampusHelper::SetLevelUpReward, COMDAT
; _this$ = ecx

; 420  : {

  00000	55		 push	 ebp
  00001	8b ec		 mov	 ebp, esp
  00003	51		 push	 ecx
  00004	56		 push	 esi
; File C:\IAGOS\server\v18\Source\Source\_Common\Obj.h

; 327  : 	return pObj && ( pObj->IsDelete() == FALSE ); 

  00005	8b 75 08	 mov	 esi, DWORD PTR _pUser$[ebp]
; File C:\IAGOS\server\v18\Source\Source\WorldServer\CampusHelper.cpp

; 420  : {

  00008	8b c1		 mov	 eax, ecx
  0000a	89 45 fc	 mov	 DWORD PTR _this$1$[ebp], eax
; File C:\IAGOS\server\v18\Source\Source\_Common\Obj.h

; 327  : 	return pObj && ( pObj->IsDelete() == FALSE ); 

  0000d	85 f6		 test	 esi, esi
  0000f	0f 84 98 00 00
	00		 je	 $LN6@SetLevelUp

; 180  : 	BOOL			IsDelete()	{ return (m_dwFlags & OBJ_FLAG_DELETE);  }

  00015	f6 46 04 01	 test	 BYTE PTR [esi+4], 1

; 327  : 	return pObj && ( pObj->IsDelete() == FALSE ); 

  00019	0f 85 8e 00 00
	00		 jne	 $LN6@SetLevelUp
; File C:\IAGOS\server\v18\Source\Source\WorldServer\CampusHelper.h

; 41   : 	CCampus*	GetCampus( u_long idCampus )	{	return m_pCampusMng->GetCampus( idCampus );	}

  0001f	8b 08		 mov	 ecx, DWORD PTR [eax]
  00021	57		 push	 edi
  00022	ff b6 cc 14 00
	00		 push	 DWORD PTR [esi+5324]
  00028	e8 00 00 00 00	 call	 ?GetCampus@CCampusMng@@QAEPAVCCampus@@K@Z ; CCampusMng::GetCampus
; File C:\IAGOS\server\v18\Source\Source\WorldServer\CampusHelper.cpp

; 424  : 	CCampus* pCampus = GetCampus( pUser->GetCampusId() );

  0002d	8b f8		 mov	 edi, eax

; 425  : 	if( pCampus && pCampus->IsMember( pUser->m_idPlayer ) )

  0002f	85 ff		 test	 edi, edi
  00031	74 79		 je	 SHORT $LN26@SetLevelUp
  00033	ff b6 34 02 00
	00		 push	 DWORD PTR [esi+564]
  00039	8b cf		 mov	 ecx, edi
  0003b	e8 00 00 00 00	 call	 ?IsMember@CCampus@@QAEHK@Z ; CCampus::IsMember
  00040	85 c0		 test	 eax, eax
  00042	74 68		 je	 SHORT $LN26@SetLevelUp
  00044	53		 push	 ebx
; File C:\IAGOS\server\v18\Source\Source\_Common\Campus.h

; 54   : 	BOOL	IsMaster( u_long idPlayer )		{	return ( idPlayer == m_idMaster );	}

  00045	8b 5f 04	 mov	 ebx, DWORD PTR [edi+4]
  00048	39 9e 34 02 00
	00		 cmp	 DWORD PTR [esi+564], ebx
; File C:\IAGOS\server\v18\Source\Source\WorldServer\CampusHelper.cpp

; 427  : 		if( pCampus->IsMaster( pUser->m_idPlayer ) )

  0004e	74 5b		 je	 SHORT $LN27@SetLevelUp

; 428  : 			return;
; 429  : 
; 430  : 		REWARD* pReward = GetReward( pUser->GetLevel() );

  00050	ff b6 d8 05 00
	00		 push	 DWORD PTR [esi+1496]
  00056	8b 4d fc	 mov	 ecx, DWORD PTR _this$1$[ebp]
  00059	e8 00 00 00 00	 call	 ?GetReward@CCampusHelper@@QAEPAUREWARD@1@H@Z ; CCampusHelper::GetReward
  0005e	89 45 08	 mov	 DWORD PTR _pReward$1$[ebp], eax

; 431  : 		if( pReward )

  00061	85 c0		 test	 eax, eax
  00063	74 2b		 je	 SHORT $LN5@SetLevelUp

; 432  : 		{
; 433  : 			g_dpDBClient.SendUpdateCampusPoint( pCampus->GetMaster(), pReward->nMasterReward, TRUE, 'L' );

  00065	6a 4c		 push	 76			; 0000004cH
  00067	6a 01		 push	 1
  00069	ff 30		 push	 DWORD PTR [eax]
  0006b	b9 00 00 00 00	 mov	 ecx, OFFSET ?g_dpDBClient@@3VCDPDatabaseClient@@A ; g_dpDBClient
  00070	53		 push	 ebx
  00071	e8 00 00 00 00	 call	 ?SendUpdateCampusPoint@CDPDatabaseClient@@QAEXKHHD@Z ; CDPDatabaseClient::SendUpdateCampusPoint

; 434  : 			g_dpDBClient.SendUpdateCampusPoint( pUser->m_idPlayer, pReward->nPupilReward, TRUE, 'L' );

  00076	8b 45 08	 mov	 eax, DWORD PTR _pReward$1$[ebp]
  00079	b9 00 00 00 00	 mov	 ecx, OFFSET ?g_dpDBClient@@3VCDPDatabaseClient@@A ; g_dpDBClient
  0007e	6a 4c		 push	 76			; 0000004cH
  00080	6a 01		 push	 1
  00082	ff 70 04	 push	 DWORD PTR [eax+4]
  00085	ff b6 34 02 00
	00		 push	 DWORD PTR [esi+564]
  0008b	e8 00 00 00 00	 call	 ?SendUpdateCampusPoint@CDPDatabaseClient@@QAEXKHHD@Z ; CDPDatabaseClient::SendUpdateCampusPoint
$LN5@SetLevelUp:

; 435  : 		}
; 436  : 		// Á¦ŔÚŔÇ ·ąş§ŔĚ Áąľ÷°ˇ´ÉÇŃ ·ąş§ŔĚ µÇ´Â °ćżě »çÁ¦°ü°č ÇŘÁö
; 437  : 		if( pUser->GetLevel() == COMPLETE_PUPIL_LEVEL )

  00090	83 be d8 05 00
	00 4b		 cmp	 DWORD PTR [esi+1496], 75 ; 0000004bH
  00097	75 12		 jne	 SHORT $LN27@SetLevelUp

; 438  : 			g_dpDBClient.SendRemoveCampusMember( pCampus->GetCampusId(), pUser->m_idPlayer );

  00099	ff b6 34 02 00
	00		 push	 DWORD PTR [esi+564]
  0009f	b9 00 00 00 00	 mov	 ecx, OFFSET ?g_dpDBClient@@3VCDPDatabaseClient@@A ; g_dpDBClient
  000a4	ff 37		 push	 DWORD PTR [edi]
  000a6	e8 00 00 00 00	 call	 ?SendRemoveCampusMember@CDPDatabaseClient@@QAEXKK@Z ; CDPDatabaseClient::SendRemoveCampusMember
$LN27@SetLevelUp:
  000ab	5b		 pop	 ebx
$LN26@SetLevelUp:
  000ac	5f		 pop	 edi
$LN6@SetLevelUp:
  000ad	5e		 pop	 esi

; 439  : 	}
; 440  : }

  000ae	8b e5		 mov	 esp, ebp
  000b0	5d		 pop	 ebp
  000b1	c2 04 00	 ret	 4
?SetLevelUpReward@CCampusHelper@@QAEXPAVCUser@@@Z ENDP	; CCampusHelper::SetLevelUpReward
_TEXT	ENDS
; Function compile flags: /Ogtp
; File C:\IAGOS\server\v18\Source\Source\WorldServer\CampusHelper.cpp
;	COMDAT ?RecoveryCampusPoint@CCampusHelper@@QAEXPAVCUser@@K@Z
_TEXT	SEGMENT
_pUser$ = 8						; size = 4
_dwTick$ = 12						; size = 4
?RecoveryCampusPoint@CCampusHelper@@QAEXPAVCUser@@K@Z PROC ; CCampusHelper::RecoveryCampusPoint, COMDAT
; _this$ = ecx

; 406  : {

  00000	55		 push	 ebp
  00001	8b ec		 mov	 ebp, esp

; 407  : 	if( pUser->GetCampusPoint() < 0 )

  00003	8b 55 08	 mov	 edx, DWORD PTR _pUser$[ebp]
  00006	83 ba d0 14 00
	00 00		 cmp	 DWORD PTR [edx+5328], 0
  0000d	7d 44		 jge	 SHORT $LN5@RecoveryCa

; 408  : 	{
; 409  : 		if( pUser->GetCampusTick() == NULL_ID )

  0000f	56		 push	 esi
  00010	8b b2 ac 8f 00
	00		 mov	 esi, DWORD PTR [edx+36780]
  00016	83 fe ff	 cmp	 esi, -1
  00019	75 0e		 jne	 SHORT $LN3@RecoveryCa

; 410  : 			pUser->SetCampusTick( dwTick );

  0001b	8b 45 0c	 mov	 eax, DWORD PTR _dwTick$[ebp]
  0001e	89 82 ac 8f 00
	00		 mov	 DWORD PTR [edx+36780], eax
  00024	5e		 pop	 esi

; 415  : 		}
; 416  : 	}
; 417  : }

  00025	5d		 pop	 ebp
  00026	c2 08 00	 ret	 8
$LN3@RecoveryCa:

; 411  : 		else if( dwTick > pUser->GetCampusTick() + m_dwRecoveryTime )

  00029	8b 41 04	 mov	 eax, DWORD PTR [ecx+4]
  0002c	03 c6		 add	 eax, esi
  0002e	8b 75 0c	 mov	 esi, DWORD PTR _dwTick$[ebp]
  00031	3b f0		 cmp	 esi, eax
  00033	76 1d		 jbe	 SHORT $LN10@RecoveryCa

; 412  : 		{
; 413  : 			pUser->SetCampusTick( dwTick );
; 414  : 			g_dpDBClient.SendUpdateCampusPoint( pUser->m_idPlayer, m_nRecoveryPoint, TRUE, 'R' );

  00035	6a 52		 push	 82			; 00000052H
  00037	6a 01		 push	 1
  00039	89 b2 ac 8f 00
	00		 mov	 DWORD PTR [edx+36780], esi
  0003f	ff 71 08	 push	 DWORD PTR [ecx+8]
  00042	b9 00 00 00 00	 mov	 ecx, OFFSET ?g_dpDBClient@@3VCDPDatabaseClient@@A ; g_dpDBClient
  00047	ff b2 34 02 00
	00		 push	 DWORD PTR [edx+564]
  0004d	e8 00 00 00 00	 call	 ?SendUpdateCampusPoint@CDPDatabaseClient@@QAEXKHHD@Z ; CDPDatabaseClient::SendUpdateCampusPoint
$LN10@RecoveryCa:
  00052	5e		 pop	 esi
$LN5@RecoveryCa:

; 415  : 		}
; 416  : 	}
; 417  : }

  00053	5d		 pop	 ebp
  00054	c2 08 00	 ret	 8
?RecoveryCampusPoint@CCampusHelper@@QAEXPAVCUser@@K@Z ENDP ; CCampusHelper::RecoveryCampusPoint
_TEXT	ENDS
; Function compile flags: /Ogtp
; File C:\IAGOS\server\v18\Source\Source\WorldServer\CampusHelper.cpp
; File C:\Program Files\Microsoft Visual Studio\2022\Professional\VC\Tools\MSVC\14.44.35207\include\xtree
; File C:\IAGOS\server\v18\Source\Source\WorldServer\CampusHelper.cpp
; File C:\Program Files\Microsoft Visual Studio\2022\Professional\VC\Tools\MSVC\14.44.35207\include\xtree
; File C:\Program Files\Microsoft Visual Studio\2022\Professional\VC\Tools\MSVC\14.44.35207\include\type_traits
; File C:\Program Files\Microsoft Visual Studio\2022\Professional\VC\Tools\MSVC\14.44.35207\include\xtree
; File C:\IAGOS\server\v18\Source\Source\WorldServer\CampusHelper.cpp
;	COMDAT ?GetCampusBuff@CCampusHelper@@QAEKH@Z
_TEXT	SEGMENT
__Loc$1 = -12						; size = 12
_nLevel$ = 8						; size = 4
?GetCampusBuff@CCampusHelper@@QAEKH@Z PROC		; CCampusHelper::GetCampusBuff, COMDAT
; _this$ = ecx

; 397  : {

  00000	55		 push	 ebp
  00001	8b ec		 mov	 ebp, esp
  00003	83 ec 0c	 sub	 esp, 12			; 0000000cH
  00006	56		 push	 esi
; File C:\Program Files\Microsoft Visual Studio\2022\Professional\VC\Tools\MSVC\14.44.35207\include\xtree

; 1384 :         const _Tree_find_result<_Nodeptr> _Loc = _Find_lower_bound(_Keyval);

  00007	8d 45 08	 lea	 eax, DWORD PTR _nLevel$[ebp]
  0000a	50		 push	 eax
; File C:\IAGOS\server\v18\Source\Source\WorldServer\CampusHelper.cpp

; 398  : 	MAP_CBUFF::iterator it = m_mapCBuff.find( nLevel );

  0000b	8d 71 18	 lea	 esi, DWORD PTR [ecx+24]
; File C:\Program Files\Microsoft Visual Studio\2022\Professional\VC\Tools\MSVC\14.44.35207\include\xtree

; 1384 :         const _Tree_find_result<_Nodeptr> _Loc = _Find_lower_bound(_Keyval);

  0000e	8d 45 f4	 lea	 eax, DWORD PTR __Loc$1[ebp]
  00011	8b ce		 mov	 ecx, esi
  00013	50		 push	 eax
  00014	e8 00 00 00 00	 call	 ??$_Find_lower_bound@H@?$_Tree@V?$_Tmap_traits@HKU?$less@H@std@@V?$allocator@U?$pair@$$CBHK@std@@@2@$0A@@std@@@std@@IBE?AU?$_Tree_find_result@PAU?$_Tree_node@U?$pair@$$CBHK@std@@PAX@std@@@1@ABH@Z ; std::_Tree<std::_Tmap_traits<int,unsigned long,std::less<int>,std::allocator<std::pair<int const ,unsigned long> >,0> >::_Find_lower_bound<int>

; 1624 :         return !_Bound->_Isnil && !_DEBUG_LT_PRED(_Getcomp(), _Keyval, _Traits::_Kfn(_Bound->_Myval));

  00019	8b 45 fc	 mov	 eax, DWORD PTR __Loc$1[ebp+8]
  0001c	80 78 0d 00	 cmp	 BYTE PTR [eax+13], 0
  00020	75 16		 jne	 SHORT $LN2@GetCampusB
; File C:\Program Files\Microsoft Visual Studio\2022\Professional\VC\Tools\MSVC\14.44.35207\include\type_traits

; 2380 :         return _Left < _Right;

  00022	8b 4d 08	 mov	 ecx, DWORD PTR _nLevel$[ebp]
  00025	3b 48 10	 cmp	 ecx, DWORD PTR [eax+16]
; File C:\Program Files\Microsoft Visual Studio\2022\Professional\VC\Tools\MSVC\14.44.35207\include\xtree

; 1624 :         return !_Bound->_Isnil && !_DEBUG_LT_PRED(_Getcomp(), _Keyval, _Traits::_Kfn(_Bound->_Myval));

  00028	7c 0e		 jl	 SHORT $LN2@GetCampusB

; 37   :     _Tree_unchecked_const_iterator(_Nodeptr _Pnode, const _Mytree* _Plist) noexcept : _Ptr(_Pnode) {

  0002a	3b 06		 cmp	 eax, DWORD PTR [esi]
; File C:\IAGOS\server\v18\Source\Source\WorldServer\CampusHelper.cpp

; 399  : 	if( it != m_mapCBuff.end() )

  0002c	74 0a		 je	 SHORT $LN2@GetCampusB

; 400  : 		return it->second;

  0002e	8b 40 14	 mov	 eax, DWORD PTR [eax+20]
  00031	5e		 pop	 esi

; 403  : }

  00032	8b e5		 mov	 esp, ebp
  00034	5d		 pop	 ebp
  00035	c2 04 00	 ret	 4
$LN2@GetCampusB:

; 401  : 
; 402  : 	return 0;

  00038	33 c0		 xor	 eax, eax
  0003a	5e		 pop	 esi

; 403  : }

  0003b	8b e5		 mov	 esp, ebp
  0003d	5d		 pop	 ebp
  0003e	c2 04 00	 ret	 4
?GetCampusBuff@CCampusHelper@@QAEKH@Z ENDP		; CCampusHelper::GetCampusBuff
_TEXT	ENDS
; Function compile flags: /Ogtp
; File C:\IAGOS\server\v18\Source\Source\WorldServer\CampusHelper.cpp
; File C:\Program Files\Microsoft Visual Studio\2022\Professional\VC\Tools\MSVC\14.44.35207\include\vector
; File C:\IAGOS\server\v18\Source\Source\WorldServer\CampusHelper.cpp
; File C:\Program Files\Microsoft Visual Studio\2022\Professional\VC\Tools\MSVC\14.44.35207\include\vector
; File C:\IAGOS\server\v18\Source\Source\WorldServer\CampusHelper.cpp
; File C:\IAGOS\server\v18\Source\Source\WorldServer\CampusHelper.h
; File C:\IAGOS\server\v18\Source\Source\_Common\Campus.h
; File C:\IAGOS\server\v18\Source\Source\WorldServer\CampusHelper.h
; File C:\IAGOS\server\v18\Source\Source\_Common\Campus.h
; File C:\IAGOS\server\v18\Source\Source\WorldServer\CampusHelper.cpp
; File C:\IAGOS\server\v18\Source\Source\_Common\Obj.h
; File C:\IAGOS\server\v18\Source\Source\WorldServer\CampusHelper.cpp
; File C:\IAGOS\server\v18\Source\Source\_Common\Mover.h
; File C:\IAGOS\server\v18\Source\Source\WorldServer\CampusHelper.cpp
; File C:\Program Files\Microsoft Visual Studio\2022\Professional\VC\Tools\MSVC\14.44.35207\include\vector
; File C:\IAGOS\server\v18\Source\Source\WorldServer\CampusHelper.cpp
;	COMDAT ?AddAllMemberRemoveCampus@CCampusHelper@@QAEXPAVCCampus@@@Z
_TEXT	SEGMENT
_vecMember$ = -28					; size = 12
_this$1$ = -16						; size = 4
__$EHRec$ = -12						; size = 12
_pCampus$ = 8						; size = 4
_idPlayer$ = 8						; size = 4
?AddAllMemberRemoveCampus@CCampusHelper@@QAEXPAVCCampus@@@Z PROC ; CCampusHelper::AddAllMemberRemoveCampus, COMDAT
; _this$ = ecx

; 379  : {

  00000	55		 push	 ebp
  00001	8b ec		 mov	 ebp, esp
  00003	6a ff		 push	 -1
  00005	68 00 00 00 00	 push	 __ehhandler$?AddAllMemberRemoveCampus@CCampusHelper@@QAEXPAVCCampus@@@Z
  0000a	64 a1 00 00 00
	00		 mov	 eax, DWORD PTR fs:0
  00010	50		 push	 eax
  00011	83 ec 10	 sub	 esp, 16			; 00000010H
  00014	53		 push	 ebx
  00015	56		 push	 esi
  00016	57		 push	 edi
  00017	a1 00 00 00 00	 mov	 eax, DWORD PTR ___security_cookie
  0001c	33 c5		 xor	 eax, ebp
  0001e	50		 push	 eax
  0001f	8d 45 f4	 lea	 eax, DWORD PTR __$EHRec$[ebp]
  00022	64 a3 00 00 00
	00		 mov	 DWORD PTR fs:0, eax
  00028	8b f9		 mov	 edi, ecx
  0002a	89 7d f0	 mov	 DWORD PTR _this$1$[ebp], edi

; 380  : 	if( !pCampus )

  0002d	8b 5d 08	 mov	 ebx, DWORD PTR _pCampus$[ebp]
  00030	85 db		 test	 ebx, ebx
  00032	74 6d		 je	 SHORT $LN1@AddAllMemb

; 383  : 	vector<u_long> vecMember = pCampus->GetAllMemberPlayerId();

  00034	8d 45 e4	 lea	 eax, DWORD PTR _vecMember$[ebp]
  00037	8b cb		 mov	 ecx, ebx
  00039	50		 push	 eax
  0003a	e8 00 00 00 00	 call	 ?GetAllMemberPlayerId@CCampus@@QAE?AV?$vector@KV?$allocator@K@std@@@std@@XZ ; CCampus::GetAllMemberPlayerId
; File C:\Program Files\Microsoft Visual Studio\2022\Professional\VC\Tools\MSVC\14.44.35207\include\vector

; 46   :     _CONSTEXPR20 _Vector_const_iterator(_Tptr _Parg, const _Container_base* _Pvector) noexcept : _Ptr(_Parg) {

  0003f	8b 75 e4	 mov	 esi, DWORD PTR _vecMember$[ebp]
; File C:\IAGOS\server\v18\Source\Source\WorldServer\CampusHelper.cpp

; 383  : 	vector<u_long> vecMember = pCampus->GetAllMemberPlayerId();

  00042	c7 45 fc 00 00
	00 00		 mov	 DWORD PTR __$EHRec$[ebp+8], 0
; File C:\Program Files\Microsoft Visual Studio\2022\Professional\VC\Tools\MSVC\14.44.35207\include\vector

; 46   :     _CONSTEXPR20 _Vector_const_iterator(_Tptr _Parg, const _Container_base* _Pvector) noexcept : _Ptr(_Parg) {

  00049	3b 75 e8	 cmp	 esi, DWORD PTR _vecMember$[ebp+4]
; File C:\IAGOS\server\v18\Source\Source\WorldServer\CampusHelper.cpp

; 384  : 	for( vector<u_long>::iterator it = vecMember.begin(); it != vecMember.end(); ++it )

  0004c	74 4b		 je	 SHORT $LN3@AddAllMemb
  0004e	66 90		 npad	 2
$LL4@AddAllMemb:
; File C:\IAGOS\server\v18\Source\Source\WorldServer\CampusHelper.h

; 44   : 	void	RemovePlayerId2CampusId( u_long idPlayer )	{	m_pCampusMng->RemovePlayerId2CampusId( idPlayer );	}

  00050	8b 06		 mov	 eax, DWORD PTR [esi]
; File C:\IAGOS\server\v18\Source\Source\_Common\Campus.h

; 102  : 	void	RemovePlayerId2CampusId( u_long idPlayer )	{	m_mapPid2Cid.erase( idPlayer );	}

  00052	8b 0f		 mov	 ecx, DWORD PTR [edi]
; File C:\IAGOS\server\v18\Source\Source\WorldServer\CampusHelper.h

; 44   : 	void	RemovePlayerId2CampusId( u_long idPlayer )	{	m_pCampusMng->RemovePlayerId2CampusId( idPlayer );	}

  00054	89 45 08	 mov	 DWORD PTR _idPlayer$[ebp], eax
; File C:\IAGOS\server\v18\Source\Source\_Common\Campus.h

; 102  : 	void	RemovePlayerId2CampusId( u_long idPlayer )	{	m_mapPid2Cid.erase( idPlayer );	}

  00057	83 c1 0c	 add	 ecx, 12			; 0000000cH
  0005a	8d 45 08	 lea	 eax, DWORD PTR _idPlayer$[ebp]
  0005d	50		 push	 eax
  0005e	e8 00 00 00 00	 call	 ?erase@?$_Tree@V?$_Tmap_traits@KKU?$less@K@std@@V?$allocator@U?$pair@$$CBKK@std@@@2@$0A@@std@@@std@@QAEIABK@Z ; std::_Tree<std::_Tmap_traits<unsigned long,unsigned long,std::less<unsigned long>,std::allocator<std::pair<unsigned long const ,unsigned long> >,0> >::erase
; File C:\IAGOS\server\v18\Source\Source\WorldServer\CampusHelper.cpp

; 387  : 		CUser* pUser = g_UserMng.GetUserByPlayerID( *it );

  00063	ff 36		 push	 DWORD PTR [esi]
  00065	b9 00 00 00 00	 mov	 ecx, OFFSET ?g_UserMng@@3VCUserMng@@A ; g_UserMng
  0006a	e8 00 00 00 00	 call	 ?GetUserByPlayerID@CUserMng@@QAEPAVCUser@@K@Z ; CUserMng::GetUserByPlayerID
  0006f	8b f8		 mov	 edi, eax
; File C:\IAGOS\server\v18\Source\Source\_Common\Obj.h

; 327  : 	return pObj && ( pObj->IsDelete() == FALSE ); 

  00071	85 ff		 test	 edi, edi
  00073	74 19		 je	 SHORT $LN2@AddAllMemb

; 180  : 	BOOL			IsDelete()	{ return (m_dwFlags & OBJ_FLAG_DELETE);  }

  00075	f6 47 04 01	 test	 BYTE PTR [edi+4], 1

; 327  : 	return pObj && ( pObj->IsDelete() == FALSE ); 

  00079	75 13		 jne	 SHORT $LN2@AddAllMemb
; File C:\IAGOS\server\v18\Source\Source\WorldServer\CampusHelper.cpp

; 390  : 			pUser->AddRemoveCampus( pCampus->GetCampusId() );

  0007b	ff 33		 push	 DWORD PTR [ebx]
  0007d	8b cf		 mov	 ecx, edi
  0007f	e8 00 00 00 00	 call	 ?AddRemoveCampus@CUser@@QAEXK@Z ; CUser::AddRemoveCampus
; File C:\IAGOS\server\v18\Source\Source\_Common\Mover.h

; 941  : 	void	SetCampusId( u_long idCampus )		{	m_idCampus = idCampus;	}

  00084	c7 87 cc 14 00
	00 00 00 00 00	 mov	 DWORD PTR [edi+5324], 0
$LN2@AddAllMemb:
; File C:\IAGOS\server\v18\Source\Source\WorldServer\CampusHelper.cpp

; 384  : 	for( vector<u_long>::iterator it = vecMember.begin(); it != vecMember.end(); ++it )

  0008e	8b 7d f0	 mov	 edi, DWORD PTR _this$1$[ebp]
; File C:\Program Files\Microsoft Visual Studio\2022\Professional\VC\Tools\MSVC\14.44.35207\include\vector

; 82   :         ++_Ptr;

  00091	83 c6 04	 add	 esi, 4

; 176  :         return !(*this == _Right);

  00094	3b 75 e8	 cmp	 esi, DWORD PTR _vecMember$[ebp+4]
; File C:\IAGOS\server\v18\Source\Source\WorldServer\CampusHelper.cpp

; 384  : 	for( vector<u_long>::iterator it = vecMember.begin(); it != vecMember.end(); ++it )

  00097	75 b7		 jne	 SHORT $LL4@AddAllMemb
$LN3@AddAllMemb:

; 391  : 			pUser->SetCampusId( 0 );
; 392  : 		}
; 393  : 	}
; 394  : }

  00099	8d 4d e4	 lea	 ecx, DWORD PTR _vecMember$[ebp]
  0009c	e8 00 00 00 00	 call	 ??1?$vector@KV?$allocator@K@std@@@std@@QAE@XZ ; std::vector<unsigned long,std::allocator<unsigned long> >::~vector<unsigned long,std::allocator<unsigned long> >
$LN1@AddAllMemb:
  000a1	8b 4d f4	 mov	 ecx, DWORD PTR __$EHRec$[ebp]
  000a4	64 89 0d 00 00
	00 00		 mov	 DWORD PTR fs:0, ecx
  000ab	59		 pop	 ecx
  000ac	5f		 pop	 edi
  000ad	5e		 pop	 esi
  000ae	5b		 pop	 ebx
  000af	8b e5		 mov	 esp, ebp
  000b1	5d		 pop	 ebp
  000b2	c2 04 00	 ret	 4
_TEXT	ENDS
;	COMDAT text$x
text$x	SEGMENT
__unwindfunclet$?AddAllMemberRemoveCampus@CCampusHelper@@QAEXPAVCCampus@@@Z$0:
  00000	8d 4d e4	 lea	 ecx, DWORD PTR _vecMember$[ebp]
  00003	e9 00 00 00 00	 jmp	 ??1?$vector@KV?$allocator@K@std@@@std@@QAE@XZ ; std::vector<unsigned long,std::allocator<unsigned long> >::~vector<unsigned long,std::allocator<unsigned long> >
  00008	cc		 int	 3
  00009	cc		 int	 3
  0000a	cc		 int	 3
  0000b	cc		 int	 3
  0000c	cc		 int	 3
__ehhandler$?AddAllMemberRemoveCampus@CCampusHelper@@QAEXPAVCCampus@@@Z:
  0000d	90		 npad	 1
  0000e	90		 npad	 1
  0000f	8b 54 24 08	 mov	 edx, DWORD PTR [esp+8]
  00013	8d 42 0c	 lea	 eax, DWORD PTR [edx+12]
  00016	8b 4a e0	 mov	 ecx, DWORD PTR [edx-32]
  00019	33 c8		 xor	 ecx, eax
  0001b	e8 00 00 00 00	 call	 @__security_check_cookie@4
  00020	b8 00 00 00 00	 mov	 eax, OFFSET __ehfuncinfo$?AddAllMemberRemoveCampus@CCampusHelper@@QAEXPAVCCampus@@@Z
  00025	e9 00 00 00 00	 jmp	 ___CxxFrameHandler3
text$x	ENDS
?AddAllMemberRemoveCampus@CCampusHelper@@QAEXPAVCCampus@@@Z ENDP ; CCampusHelper::AddAllMemberRemoveCampus
; Function compile flags: /Ogtp
; File C:\IAGOS\server\v18\Source\Source\WorldServer\CampusHelper.cpp
; File C:\Program Files\Microsoft Visual Studio\2022\Professional\VC\Tools\MSVC\14.44.35207\include\vector
; File C:\IAGOS\server\v18\Source\Source\WorldServer\CampusHelper.cpp
; File C:\Program Files\Microsoft Visual Studio\2022\Professional\VC\Tools\MSVC\14.44.35207\include\vector
; File C:\IAGOS\server\v18\Source\Source\WorldServer\CampusHelper.cpp
; File C:\IAGOS\server\v18\Source\Source\_Common\Obj.h
; File C:\IAGOS\server\v18\Source\Source\WorldServer\CampusHelper.cpp
; File C:\Program Files\Microsoft Visual Studio\2022\Professional\VC\Tools\MSVC\14.44.35207\include\vector
; File C:\IAGOS\server\v18\Source\Source\WorldServer\CampusHelper.cpp
;	COMDAT ?AddAllMemberUpdateCampus@CCampusHelper@@QAEXPAVCCampus@@@Z
_TEXT	SEGMENT
_vecMember$ = -24					; size = 12
__$EHRec$ = -12						; size = 12
_pCampus$ = 8						; size = 4
?AddAllMemberUpdateCampus@CCampusHelper@@QAEXPAVCCampus@@@Z PROC ; CCampusHelper::AddAllMemberUpdateCampus, COMDAT
; _this$ = ecx

; 365  : {

  00000	55		 push	 ebp
  00001	8b ec		 mov	 ebp, esp
  00003	6a ff		 push	 -1
  00005	68 00 00 00 00	 push	 __ehhandler$?AddAllMemberUpdateCampus@CCampusHelper@@QAEXPAVCCampus@@@Z
  0000a	64 a1 00 00 00
	00		 mov	 eax, DWORD PTR fs:0
  00010	50		 push	 eax
  00011	83 ec 0c	 sub	 esp, 12			; 0000000cH
  00014	56		 push	 esi
  00015	57		 push	 edi
  00016	a1 00 00 00 00	 mov	 eax, DWORD PTR ___security_cookie
  0001b	33 c5		 xor	 eax, ebp
  0001d	50		 push	 eax
  0001e	8d 45 f4	 lea	 eax, DWORD PTR __$EHRec$[ebp]
  00021	64 a3 00 00 00
	00		 mov	 DWORD PTR fs:0, eax

; 366  : 	if( !pCampus )

  00027	8b 7d 08	 mov	 edi, DWORD PTR _pCampus$[ebp]
  0002a	85 ff		 test	 edi, edi
  0002c	74 50		 je	 SHORT $LN1@AddAllMemb

; 369  : 	vector<u_long> vecMember = pCampus->GetAllMemberPlayerId();

  0002e	8d 45 e8	 lea	 eax, DWORD PTR _vecMember$[ebp]
  00031	8b cf		 mov	 ecx, edi
  00033	50		 push	 eax
  00034	e8 00 00 00 00	 call	 ?GetAllMemberPlayerId@CCampus@@QAE?AV?$vector@KV?$allocator@K@std@@@std@@XZ ; CCampus::GetAllMemberPlayerId
; File C:\Program Files\Microsoft Visual Studio\2022\Professional\VC\Tools\MSVC\14.44.35207\include\vector

; 46   :     _CONSTEXPR20 _Vector_const_iterator(_Tptr _Parg, const _Container_base* _Pvector) noexcept : _Ptr(_Parg) {

  00039	8b 75 e8	 mov	 esi, DWORD PTR _vecMember$[ebp]
; File C:\IAGOS\server\v18\Source\Source\WorldServer\CampusHelper.cpp

; 369  : 	vector<u_long> vecMember = pCampus->GetAllMemberPlayerId();

  0003c	c7 45 fc 00 00
	00 00		 mov	 DWORD PTR __$EHRec$[ebp+8], 0
; File C:\Program Files\Microsoft Visual Studio\2022\Professional\VC\Tools\MSVC\14.44.35207\include\vector

; 46   :     _CONSTEXPR20 _Vector_const_iterator(_Tptr _Parg, const _Container_base* _Pvector) noexcept : _Ptr(_Parg) {

  00043	3b 75 ec	 cmp	 esi, DWORD PTR _vecMember$[ebp+4]
; File C:\IAGOS\server\v18\Source\Source\WorldServer\CampusHelper.cpp

; 370  : 	for( vector<u_long>::iterator it = vecMember.begin(); it != vecMember.end(); ++it )

  00046	74 2e		 je	 SHORT $LN3@AddAllMemb
  00048	0f 1f 84 00 00
	00 00 00	 npad	 8
$LL4@AddAllMemb:

; 371  : 	{
; 372  : 		CUser* pUser = g_UserMng.GetUserByPlayerID( *it );

  00050	ff 36		 push	 DWORD PTR [esi]
  00052	b9 00 00 00 00	 mov	 ecx, OFFSET ?g_UserMng@@3VCUserMng@@A ; g_UserMng
  00057	e8 00 00 00 00	 call	 ?GetUserByPlayerID@CUserMng@@QAEPAVCUser@@K@Z ; CUserMng::GetUserByPlayerID
; File C:\IAGOS\server\v18\Source\Source\_Common\Obj.h

; 327  : 	return pObj && ( pObj->IsDelete() == FALSE ); 

  0005c	85 c0		 test	 eax, eax
  0005e	74 0e		 je	 SHORT $LN2@AddAllMemb

; 180  : 	BOOL			IsDelete()	{ return (m_dwFlags & OBJ_FLAG_DELETE);  }

  00060	f6 40 04 01	 test	 BYTE PTR [eax+4], 1

; 327  : 	return pObj && ( pObj->IsDelete() == FALSE ); 

  00064	75 08		 jne	 SHORT $LN2@AddAllMemb
; File C:\IAGOS\server\v18\Source\Source\WorldServer\CampusHelper.cpp

; 374  : 			pUser->AddUpdateCampus( pCampus );

  00066	57		 push	 edi
  00067	8b c8		 mov	 ecx, eax
  00069	e8 00 00 00 00	 call	 ?AddUpdateCampus@CUser@@QAEXPAVCCampus@@@Z ; CUser::AddUpdateCampus
$LN2@AddAllMemb:
; File C:\Program Files\Microsoft Visual Studio\2022\Professional\VC\Tools\MSVC\14.44.35207\include\vector

; 82   :         ++_Ptr;

  0006e	83 c6 04	 add	 esi, 4

; 176  :         return !(*this == _Right);

  00071	3b 75 ec	 cmp	 esi, DWORD PTR _vecMember$[ebp+4]
; File C:\IAGOS\server\v18\Source\Source\WorldServer\CampusHelper.cpp

; 370  : 	for( vector<u_long>::iterator it = vecMember.begin(); it != vecMember.end(); ++it )

  00074	75 da		 jne	 SHORT $LL4@AddAllMemb
$LN3@AddAllMemb:

; 375  : 	}
; 376  : }

  00076	8d 4d e8	 lea	 ecx, DWORD PTR _vecMember$[ebp]
  00079	e8 00 00 00 00	 call	 ??1?$vector@KV?$allocator@K@std@@@std@@QAE@XZ ; std::vector<unsigned long,std::allocator<unsigned long> >::~vector<unsigned long,std::allocator<unsigned long> >
$LN1@AddAllMemb:
  0007e	8b 4d f4	 mov	 ecx, DWORD PTR __$EHRec$[ebp]
  00081	64 89 0d 00 00
	00 00		 mov	 DWORD PTR fs:0, ecx
  00088	59		 pop	 ecx
  00089	5f		 pop	 edi
  0008a	5e		 pop	 esi
  0008b	8b e5		 mov	 esp, ebp
  0008d	5d		 pop	 ebp
  0008e	c2 04 00	 ret	 4
_TEXT	ENDS
;	COMDAT text$x
text$x	SEGMENT
__unwindfunclet$?AddAllMemberUpdateCampus@CCampusHelper@@QAEXPAVCCampus@@@Z$0:
  00000	8d 4d e8	 lea	 ecx, DWORD PTR _vecMember$[ebp]
  00003	e9 00 00 00 00	 jmp	 ??1?$vector@KV?$allocator@K@std@@@std@@QAE@XZ ; std::vector<unsigned long,std::allocator<unsigned long> >::~vector<unsigned long,std::allocator<unsigned long> >
  00008	cc		 int	 3
  00009	cc		 int	 3
  0000a	cc		 int	 3
  0000b	cc		 int	 3
  0000c	cc		 int	 3
__ehhandler$?AddAllMemberUpdateCampus@CCampusHelper@@QAEXPAVCCampus@@@Z:
  0000d	90		 npad	 1
  0000e	90		 npad	 1
  0000f	8b 54 24 08	 mov	 edx, DWORD PTR [esp+8]
  00013	8d 42 0c	 lea	 eax, DWORD PTR [edx+12]
  00016	8b 4a e8	 mov	 ecx, DWORD PTR [edx-24]
  00019	33 c8		 xor	 ecx, eax
  0001b	e8 00 00 00 00	 call	 @__security_check_cookie@4
  00020	b8 00 00 00 00	 mov	 eax, OFFSET __ehfuncinfo$?AddAllMemberUpdateCampus@CCampusHelper@@QAEXPAVCCampus@@@Z
  00025	e9 00 00 00 00	 jmp	 ___CxxFrameHandler3
text$x	ENDS
?AddAllMemberUpdateCampus@CCampusHelper@@QAEXPAVCCampus@@@Z ENDP ; CCampusHelper::AddAllMemberUpdateCampus
; Function compile flags: /Ogtp
; File C:\IAGOS\server\v18\Source\Source\WorldServer\CampusHelper.cpp
; File C:\IAGOS\server\v18\Source\Source\_Common\Obj.h
; File C:\IAGOS\server\v18\Source\Source\WorldServer\CampusHelper.cpp
; File C:\IAGOS\server\v18\Source\Source\_Common\Obj.h
; File C:\Program Files\Microsoft Visual Studio\2022\Professional\VC\Tools\MSVC\14.44.35207\include\vector
; File C:\IAGOS\server\v18\Source\Source\WorldServer\CampusHelper.cpp
; File C:\Program Files\Microsoft Visual Studio\2022\Professional\VC\Tools\MSVC\14.44.35207\include\vector
; File C:\IAGOS\server\v18\Source\Source\WorldServer\CampusHelper.cpp
;	COMDAT ?IsCompleteCampusQuest@CCampusHelper@@QAEHPAVCUser@@@Z
_TEXT	SEGMENT
_pUser$ = 8						; size = 4
?IsCompleteCampusQuest@CCampusHelper@@QAEHPAVCUser@@@Z PROC ; CCampusHelper::IsCompleteCampusQuest, COMDAT
; _this$ = ecx

; 352  : {

  00000	55		 push	 ebp
  00001	8b ec		 mov	 ebp, esp
  00003	53		 push	 ebx
; File C:\IAGOS\server\v18\Source\Source\_Common\Obj.h

; 327  : 	return pObj && ( pObj->IsDelete() == FALSE ); 

  00004	8b 5d 08	 mov	 ebx, DWORD PTR _pUser$[ebp]
; File C:\IAGOS\server\v18\Source\Source\WorldServer\CampusHelper.cpp

; 352  : {

  00007	56		 push	 esi
  00008	57		 push	 edi
  00009	8b f9		 mov	 edi, ecx
; File C:\IAGOS\server\v18\Source\Source\_Common\Obj.h

; 327  : 	return pObj && ( pObj->IsDelete() == FALSE ); 

  0000b	85 db		 test	 ebx, ebx
  0000d	74 32		 je	 SHORT $LN45@IsComplete

; 180  : 	BOOL			IsDelete()	{ return (m_dwFlags & OBJ_FLAG_DELETE);  }

  0000f	f6 43 04 01	 test	 BYTE PTR [ebx+4], 1

; 327  : 	return pObj && ( pObj->IsDelete() == FALSE ); 

  00013	75 2c		 jne	 SHORT $LN45@IsComplete
; File C:\Program Files\Microsoft Visual Studio\2022\Professional\VC\Tools\MSVC\14.44.35207\include\vector

; 46   :     _CONSTEXPR20 _Vector_const_iterator(_Tptr _Parg, const _Container_base* _Pvector) noexcept : _Ptr(_Parg) {

  00015	8b 77 0c	 mov	 esi, DWORD PTR [edi+12]

; 176  :         return !(*this == _Right);

  00018	3b 77 10	 cmp	 esi, DWORD PTR [edi+16]
; File C:\IAGOS\server\v18\Source\Source\WorldServer\CampusHelper.cpp

; 356  : 	for( vector<int>::iterator it = m_vecCQuest.begin(); it != m_vecCQuest.end(); ++it )

  0001b	74 18		 je	 SHORT $LN3@IsComplete
  0001d	0f 1f 00	 npad	 3
$LL4@IsComplete:

; 357  : 	{
; 358  : 		if( !pUser->IsCompleteQuest( *it ) )

  00020	ff 36		 push	 DWORD PTR [esi]
  00022	8b cb		 mov	 ecx, ebx
  00024	e8 00 00 00 00	 call	 ?IsCompleteQuest@CMover@@QAEHH@Z ; CMover::IsCompleteQuest
  00029	85 c0		 test	 eax, eax
  0002b	74 14		 je	 SHORT $LN45@IsComplete
; File C:\Program Files\Microsoft Visual Studio\2022\Professional\VC\Tools\MSVC\14.44.35207\include\vector

; 82   :         ++_Ptr;

  0002d	83 c6 04	 add	 esi, 4

; 176  :         return !(*this == _Right);

  00030	3b 77 10	 cmp	 esi, DWORD PTR [edi+16]
; File C:\IAGOS\server\v18\Source\Source\WorldServer\CampusHelper.cpp

; 356  : 	for( vector<int>::iterator it = m_vecCQuest.begin(); it != m_vecCQuest.end(); ++it )

  00033	75 eb		 jne	 SHORT $LL4@IsComplete
$LN3@IsComplete:
  00035	5f		 pop	 edi

; 359  : 			return FALSE;
; 360  : 	}
; 361  : 	return TRUE;
; 362  : }

  00036	5e		 pop	 esi
  00037	b8 01 00 00 00	 mov	 eax, 1
  0003c	5b		 pop	 ebx
  0003d	5d		 pop	 ebp
  0003e	c2 04 00	 ret	 4
$LN45@IsComplete:
  00041	5f		 pop	 edi
  00042	5e		 pop	 esi
  00043	33 c0		 xor	 eax, eax
  00045	5b		 pop	 ebx
  00046	5d		 pop	 ebp
  00047	c2 04 00	 ret	 4
?IsCompleteCampusQuest@CCampusHelper@@QAEHPAVCUser@@@Z ENDP ; CCampusHelper::IsCompleteCampusQuest
_TEXT	ENDS
; Function compile flags: /Ogtp
; File C:\IAGOS\server\v18\Source\Source\WorldServer\CampusHelper.cpp
; File C:\IAGOS\server\v18\Source\Source\_Common\Obj.h
; File C:\IAGOS\server\v18\Source\Source\WorldServer\CampusHelper.cpp
;	COMDAT ?GetMaxPupilNum@CCampusHelper@@QAEHPAVCUser@@@Z
_TEXT	SEGMENT
_pUser$ = 8						; size = 4
?GetMaxPupilNum@CCampusHelper@@QAEHPAVCUser@@@Z PROC	; CCampusHelper::GetMaxPupilNum, COMDAT
; _this$ = ecx

; 338  : {

  00000	55		 push	 ebp
  00001	8b ec		 mov	 ebp, esp
; File C:\IAGOS\server\v18\Source\Source\_Common\Obj.h

; 327  : 	return pObj && ( pObj->IsDelete() == FALSE ); 

  00003	8b 45 08	 mov	 eax, DWORD PTR _pUser$[ebp]
  00006	85 c0		 test	 eax, eax
  00008	74 2e		 je	 SHORT $LN7@GetMaxPupi

; 180  : 	BOOL			IsDelete()	{ return (m_dwFlags & OBJ_FLAG_DELETE);  }

  0000a	f6 40 04 01	 test	 BYTE PTR [eax+4], 1

; 327  : 	return pObj && ( pObj->IsDelete() == FALSE ); 

  0000e	75 28		 jne	 SHORT $LN7@GetMaxPupi
; File C:\IAGOS\server\v18\Source\Source\WorldServer\CampusHelper.cpp

; 341  : 		if( pUser->GetCampusPoint() >= 0 && pUser->GetCampusPoint() < MIN_LV2_POINT )

  00010	8b 88 d0 14 00
	00		 mov	 ecx, DWORD PTR [eax+5328]
  00016	83 f9 28	 cmp	 ecx, 40			; 00000028H
  00019	77 09		 ja	 SHORT $LN3@GetMaxPupi

; 342  : 			return 1;

  0001b	b8 01 00 00 00	 mov	 eax, 1

; 349  : }

  00020	5d		 pop	 ebp
  00021	c2 04 00	 ret	 4
$LN3@GetMaxPupi:

; 343  : 		else if( pUser->GetCampusPoint() >= MIN_LV2_POINT && pUser->GetCampusPoint() < MIN_LV3_POINT )

  00024	83 f9 29	 cmp	 ecx, 41			; 00000029H
  00027	7c 0f		 jl	 SHORT $LN7@GetMaxPupi
  00029	33 c0		 xor	 eax, eax
  0002b	83 f9 65	 cmp	 ecx, 101		; 00000065H
  0002e	0f 9d c0	 setge	 al
  00031	83 c0 02	 add	 eax, 2

; 349  : }

  00034	5d		 pop	 ebp
  00035	c2 04 00	 ret	 4
$LN7@GetMaxPupi:

; 344  : 			return 2;
; 345  : 		else if( pUser->GetCampusPoint() >= MIN_LV3_POINT )
; 346  : 			return 3;
; 347  : 	}
; 348  : 	return 0;

  00038	33 c0		 xor	 eax, eax

; 349  : }

  0003a	5d		 pop	 ebp
  0003b	c2 04 00	 ret	 4
?GetMaxPupilNum@CCampusHelper@@QAEHPAVCUser@@@Z ENDP	; CCampusHelper::GetMaxPupilNum
_TEXT	ENDS
; Function compile flags: /Ogtp
; File C:\IAGOS\server\v18\Source\Source\WorldServer\CampusHelper.cpp
; File C:\IAGOS\server\v18\Source\Source\_Common\Obj.h
; File C:\IAGOS\server\v18\Source\Source\WorldServer\CampusHelper.cpp
;	COMDAT ?IsPupilLevel@CCampusHelper@@QAEHPAVCUser@@@Z
_TEXT	SEGMENT
_pUser$ = 8						; size = 4
?IsPupilLevel@CCampusHelper@@QAEHPAVCUser@@@Z PROC	; CCampusHelper::IsPupilLevel, COMDAT
; _this$ = ecx

; 328  : {

  00000	55		 push	 ebp
  00001	8b ec		 mov	 ebp, esp
; File C:\IAGOS\server\v18\Source\Source\_Common\Obj.h

; 327  : 	return pObj && ( pObj->IsDelete() == FALSE ); 

  00003	8b 4d 08	 mov	 ecx, DWORD PTR _pUser$[ebp]
  00006	85 c9		 test	 ecx, ecx
  00008	74 19		 je	 SHORT $LN3@IsPupilLev

; 180  : 	BOOL			IsDelete()	{ return (m_dwFlags & OBJ_FLAG_DELETE);  }

  0000a	f6 41 04 01	 test	 BYTE PTR [ecx+4], 1

; 327  : 	return pObj && ( pObj->IsDelete() == FALSE ); 

  0000e	75 13		 jne	 SHORT $LN3@IsPupilLev
; File C:\IAGOS\server\v18\Source\Source\WorldServer\CampusHelper.cpp

; 331  : 		if( pUser->GetJob() < MAX_EXPERT )

  00010	e8 00 00 00 00	 call	 ?GetJob@CMover@@QAEHXZ	; CMover::GetJob
  00015	33 c9		 xor	 ecx, ecx
  00017	83 f8 06	 cmp	 eax, 6
  0001a	0f 9c c1	 setl	 cl

; 332  : 			return TRUE;

  0001d	8b c1		 mov	 eax, ecx

; 335  : }

  0001f	5d		 pop	 ebp
  00020	c2 04 00	 ret	 4
$LN3@IsPupilLev:

; 333  : 	}
; 334  : 	return FALSE;

  00023	33 c0		 xor	 eax, eax

; 335  : }

  00025	5d		 pop	 ebp
  00026	c2 04 00	 ret	 4
?IsPupilLevel@CCampusHelper@@QAEHPAVCUser@@@Z ENDP	; CCampusHelper::IsPupilLevel
_TEXT	ENDS
; Function compile flags: /Ogtp
; File C:\IAGOS\server\v18\Source\Source\WorldServer\CampusHelper.cpp
; File C:\IAGOS\server\v18\Source\Source\_Common\Obj.h
; File C:\IAGOS\server\v18\Source\Source\WorldServer\CampusHelper.cpp
;	COMDAT ?IsMasterLevel@CCampusHelper@@QAEHPAVCUser@@@Z
_TEXT	SEGMENT
_pUser$ = 8						; size = 4
?IsMasterLevel@CCampusHelper@@QAEHPAVCUser@@@Z PROC	; CCampusHelper::IsMasterLevel, COMDAT
; _this$ = ecx

; 318  : {

  00000	55		 push	 ebp
  00001	8b ec		 mov	 ebp, esp
; File C:\IAGOS\server\v18\Source\Source\_Common\Obj.h

; 327  : 	return pObj && ( pObj->IsDelete() == FALSE ); 

  00003	8b 4d 08	 mov	 ecx, DWORD PTR _pUser$[ebp]
  00006	85 c9		 test	 ecx, ecx
  00008	74 16		 je	 SHORT $LN3@IsMasterLe

; 180  : 	BOOL			IsDelete()	{ return (m_dwFlags & OBJ_FLAG_DELETE);  }

  0000a	f6 41 04 01	 test	 BYTE PTR [ecx+4], 1

; 327  : 	return pObj && ( pObj->IsDelete() == FALSE ); 

  0000e	75 10		 jne	 SHORT $LN3@IsMasterLe
; File C:\IAGOS\server\v18\Source\Source\WorldServer\CampusHelper.cpp

; 321  : 		if( pUser->GetLevel() >= MIN_MASTER_LEVEL )

  00010	33 c0		 xor	 eax, eax
  00012	83 b9 d8 05 00
	00 5b		 cmp	 DWORD PTR [ecx+1496], 91 ; 0000005bH
  00019	0f 9d c0	 setge	 al

; 325  : }

  0001c	5d		 pop	 ebp
  0001d	c2 04 00	 ret	 4
$LN3@IsMasterLe:

; 322  : 			return TRUE;
; 323  : 	}
; 324  : 	return FALSE;

  00020	33 c0		 xor	 eax, eax

; 325  : }

  00022	5d		 pop	 ebp
  00023	c2 04 00	 ret	 4
?IsMasterLevel@CCampusHelper@@QAEHPAVCUser@@@Z ENDP	; CCampusHelper::IsMasterLevel
_TEXT	ENDS
; Function compile flags: /Ogtp
; File C:\IAGOS\server\v18\Source\Source\WorldServer\CampusHelper.cpp
; File C:\IAGOS\server\v18\Source\Source\_Common\Obj.h
; File C:\IAGOS\server\v18\Source\Source\WorldServer\CampusHelper.cpp
; File C:\IAGOS\server\v18\Source\Source\_Common\Obj.h
; File C:\IAGOS\server\v18\Source\Source\WorldServer\CampusHelper.cpp
; File C:\IAGOS\server\v18\Source\Source\WorldServer\CampusHelper.h
; File C:\IAGOS\server\v18\Source\Source\WorldServer\CampusHelper.cpp
; File C:\IAGOS\server\v18\Source\Source\WorldServer\CampusHelper.h
; File C:\IAGOS\server\v18\Source\Source\WorldServer\CampusHelper.cpp
; File C:\IAGOS\server\v18\Source\Source\WorldServer\CampusHelper.h
; File C:\IAGOS\server\v18\Source\Source\WorldServer\CampusHelper.cpp
; File C:\IAGOS\server\v18\Source\Source\WorldServer\CampusHelper.h
; File C:\IAGOS\server\v18\Source\Source\WorldServer\CampusHelper.cpp
;	COMDAT ?IsInviteAble@CCampusHelper@@QAEHPAVCUser@@0@Z
_TEXT	SEGMENT
_this$1$ = -4						; size = 4
_pRequest$ = 8						; size = 4
_pCampus$1$ = 8						; size = 4
_pCampus$1$ = 8						; size = 4
_pTarget$ = 12						; size = 4
?IsInviteAble@CCampusHelper@@QAEHPAVCUser@@0@Z PROC	; CCampusHelper::IsInviteAble, COMDAT
; _this$ = ecx

; 241  : {

  00000	55		 push	 ebp
  00001	8b ec		 mov	 ebp, esp
  00003	51		 push	 ecx
  00004	53		 push	 ebx
  00005	56		 push	 esi
  00006	57		 push	 edi
; File C:\IAGOS\server\v18\Source\Source\_Common\Obj.h

; 327  : 	return pObj && ( pObj->IsDelete() == FALSE ); 

  00007	8b 7d 08	 mov	 edi, DWORD PTR _pRequest$[ebp]
; File C:\IAGOS\server\v18\Source\Source\WorldServer\CampusHelper.cpp

; 241  : {

  0000a	8b f1		 mov	 esi, ecx
  0000c	89 75 fc	 mov	 DWORD PTR _this$1$[ebp], esi
; File C:\IAGOS\server\v18\Source\Source\_Common\Obj.h

; 327  : 	return pObj && ( pObj->IsDelete() == FALSE ); 

  0000f	85 ff		 test	 edi, edi
  00011	0f 84 f7 01 00
	00		 je	 $LN3@IsInviteAb

; 180  : 	BOOL			IsDelete()	{ return (m_dwFlags & OBJ_FLAG_DELETE);  }

  00017	f6 47 04 01	 test	 BYTE PTR [edi+4], 1

; 327  : 	return pObj && ( pObj->IsDelete() == FALSE ); 

  0001b	0f 85 ed 01 00
	00		 jne	 $LN3@IsInviteAb
  00021	8b 5d 0c	 mov	 ebx, DWORD PTR _pTarget$[ebp]
  00024	85 db		 test	 ebx, ebx
  00026	0f 84 e2 01 00
	00		 je	 $LN3@IsInviteAb

; 180  : 	BOOL			IsDelete()	{ return (m_dwFlags & OBJ_FLAG_DELETE);  }

  0002c	f6 43 04 01	 test	 BYTE PTR [ebx+4], 1

; 327  : 	return pObj && ( pObj->IsDelete() == FALSE ); 

  00030	0f 85 d8 01 00
	00		 jne	 $LN3@IsInviteAb
; File C:\IAGOS\server\v18\Source\Source\WorldServer\CampusHelper.cpp

; 246  : 	if( pRequest->GetCampusPoint() < 0 )

  00036	83 bf d0 14 00
	00 00		 cmp	 DWORD PTR [edi+5328], 0
  0003d	7d 17		 jge	 SHORT $LN4@IsInviteAb

; 247  : 	{
; 248  : 		pRequest->AddDefinedText( TID_GAME_TS_WANTMYTSP );

  0003f	68 98 10 00 00	 push	 4248			; 00001098H

; 314  : 	return FALSE;
; 315  : }

  00044	8b cf		 mov	 ecx, edi
  00046	e8 00 00 00 00	 call	 ?AddDefinedText@CUser@@QAEXH@Z ; CUser::AddDefinedText
  0004b	5f		 pop	 edi
  0004c	5e		 pop	 esi
  0004d	33 c0		 xor	 eax, eax
  0004f	5b		 pop	 ebx
  00050	8b e5		 mov	 esp, ebp
  00052	5d		 pop	 ebp
  00053	c2 08 00	 ret	 8
$LN4@IsInviteAb:

; 249  : 		return FALSE;
; 250  : 	}
; 251  : 	// »ó´ëąćŔÇ »çÁ¦Ć÷ŔÎĆ®°ˇ 0 ąĚ¸¸ŔĚ¸é ľČµĘ
; 252  : 	if( pTarget->GetCampusPoint() < 0 )

  00056	83 bb d0 14 00
	00 00		 cmp	 DWORD PTR [ebx+5328], 0
  0005d	7d 17		 jge	 SHORT $LN5@IsInviteAb

; 253  : 	{
; 254  : 		pRequest->AddDefinedText( TID_GAME_TS_WANTYOURTSP );

  0005f	68 99 10 00 00	 push	 4249			; 00001099H

; 314  : 	return FALSE;
; 315  : }

  00064	8b cf		 mov	 ecx, edi
  00066	e8 00 00 00 00	 call	 ?AddDefinedText@CUser@@QAEXH@Z ; CUser::AddDefinedText
  0006b	5f		 pop	 edi
  0006c	5e		 pop	 esi
  0006d	33 c0		 xor	 eax, eax
  0006f	5b		 pop	 ebx
  00070	8b e5		 mov	 esp, ebp
  00072	5d		 pop	 ebp
  00073	c2 08 00	 ret	 8
$LN5@IsInviteAb:

; 255  : 		return FALSE;
; 256  : 	}
; 257  : 	// »çÁ¦¸Î±â¸¦ ˝ĹĂ»ÇŃ ŔŻŔú°ˇ ˝ş˝ÂŔĎ ¶§
; 258  : 	if( IsMasterLevel( pRequest ) && IsPupilLevel( pTarget ) )

  00076	57		 push	 edi
  00077	e8 00 00 00 00	 call	 ?IsMasterLevel@CCampusHelper@@QAEHPAVCUser@@@Z ; CCampusHelper::IsMasterLevel
  0007c	85 c0		 test	 eax, eax
  0007e	0f 84 d6 00 00
	00		 je	 $LN6@IsInviteAb
  00084	53		 push	 ebx
  00085	8b ce		 mov	 ecx, esi
  00087	e8 00 00 00 00	 call	 ?IsPupilLevel@CCampusHelper@@QAEHPAVCUser@@@Z ; CCampusHelper::IsPupilLevel
  0008c	85 c0		 test	 eax, eax
  0008e	0f 84 c6 00 00
	00		 je	 $LN6@IsInviteAb

; 259  : 	{
; 260  : 		// »çÁ¦ Äů˝şĆ®¸¦ ľČÇß´Ů¸é ľČµĘ
; 261  : 		if( !IsCompleteCampusQuest( pRequest ) )

  00094	57		 push	 edi
  00095	8b ce		 mov	 ecx, esi
  00097	e8 00 00 00 00	 call	 ?IsCompleteCampusQuest@CCampusHelper@@QAEHPAVCUser@@@Z ; CCampusHelper::IsCompleteCampusQuest
  0009c	85 c0		 test	 eax, eax
  0009e	75 28		 jne	 SHORT $LN8@IsInviteAb

; 262  : 		{
; 263  : 			pRequest->AddDefinedText( TID_GAME_TS_NOTQUEST, "\"%s\"", pRequest->GetName() );

  000a0	8b cf		 mov	 ecx, edi
$LN65@IsInviteAb:

; 314  : 	return FALSE;
; 315  : }

  000a2	6a 00		 push	 0
  000a4	e8 00 00 00 00	 call	 ?GetName@CMover@@QAEPBDH@Z ; CMover::GetName
  000a9	50		 push	 eax
  000aa	68 00 00 00 00	 push	 OFFSET ??_C@_04OEDFLLKD@?$CC?$CFs?$CC@
  000af	68 8b 10 00 00	 push	 4235			; 0000108bH
  000b4	57		 push	 edi
  000b5	e8 00 00 00 00	 call	 ?AddDefinedText@CUser@@QAAXHPBDZZ ; CUser::AddDefinedText
  000ba	83 c4 10	 add	 esp, 16			; 00000010H
  000bd	33 c0		 xor	 eax, eax
  000bf	5f		 pop	 edi
  000c0	5e		 pop	 esi
  000c1	5b		 pop	 ebx
  000c2	8b e5		 mov	 esp, ebp
  000c4	5d		 pop	 ebp
  000c5	c2 08 00	 ret	 8
$LN8@IsInviteAb:
; File C:\IAGOS\server\v18\Source\Source\WorldServer\CampusHelper.h

; 41   : 	CCampus*	GetCampus( u_long idCampus )	{	return m_pCampusMng->GetCampus( idCampus );	}

  000c8	ff b7 cc 14 00
	00		 push	 DWORD PTR [edi+5324]
  000ce	8b 0e		 mov	 ecx, DWORD PTR [esi]
  000d0	e8 00 00 00 00	 call	 ?GetCampus@CCampusMng@@QAEPAVCCampus@@K@Z ; CCampusMng::GetCampus
; File C:\IAGOS\server\v18\Source\Source\WorldServer\CampusHelper.cpp

; 266  : 		CCampus* pCampus = GetCampus( pRequest->GetCampusId() );

  000d5	89 45 08	 mov	 DWORD PTR _pCampus$1$[ebp], eax

; 267  : 		if( pCampus )

  000d8	85 c0		 test	 eax, eax
  000da	74 41		 je	 SHORT $LN10@IsInviteAb

; 268  : 		{
; 269  : 			// µż˝Ăżˇ ąŢŔ» Ľö ŔÖ´Â Á¦ŔÚŔÇ Ľö¸¦ łŃŔ¸¸é ľČµĘ
; 270  : 			if( pCampus->GetPupilNum() >= GetMaxPupilNum( pRequest ) )

  000dc	57		 push	 edi
  000dd	8b ce		 mov	 ecx, esi
  000df	e8 00 00 00 00	 call	 ?GetMaxPupilNum@CCampusHelper@@QAEHPAVCUser@@@Z ; CCampusHelper::GetMaxPupilNum
  000e4	8b 4d 08	 mov	 ecx, DWORD PTR _pCampus$1$[ebp]
  000e7	8b f0		 mov	 esi, eax
  000e9	e8 00 00 00 00	 call	 ?GetPupilNum@CCampus@@QAEHXZ ; CCampus::GetPupilNum
  000ee	3b c6		 cmp	 eax, esi
  000f0	7c 28		 jl	 SHORT $LN41@IsInviteAb

; 271  : 			{
; 272  : 				pRequest->AddDefinedText( TID_GAME_TS_FULLSTUDENT, "\"%s\"", pRequest->GetName() );

  000f2	6a 00		 push	 0
  000f4	8b cf		 mov	 ecx, edi
  000f6	e8 00 00 00 00	 call	 ?GetName@CMover@@QAEPBDH@Z ; CMover::GetName
  000fb	50		 push	 eax
  000fc	68 00 00 00 00	 push	 OFFSET ??_C@_04OEDFLLKD@?$CC?$CFs?$CC@
  00101	68 8c 10 00 00	 push	 4236			; 0000108cH
  00106	57		 push	 edi
  00107	e8 00 00 00 00	 call	 ?AddDefinedText@CUser@@QAAXHPBDZZ ; CUser::AddDefinedText
  0010c	83 c4 10	 add	 esp, 16			; 00000010H

; 314  : 	return FALSE;
; 315  : }

  0010f	33 c0		 xor	 eax, eax
  00111	5f		 pop	 edi
  00112	5e		 pop	 esi
  00113	5b		 pop	 ebx
  00114	8b e5		 mov	 esp, ebp
  00116	5d		 pop	 ebp
  00117	c2 08 00	 ret	 8
$LN41@IsInviteAb:

; 268  : 		{
; 269  : 			// µż˝Ăżˇ ąŢŔ» Ľö ŔÖ´Â Á¦ŔÚŔÇ Ľö¸¦ łŃŔ¸¸é ľČµĘ
; 270  : 			if( pCampus->GetPupilNum() >= GetMaxPupilNum( pRequest ) )

  0011a	8b 75 fc	 mov	 esi, DWORD PTR _this$1$[ebp]
$LN10@IsInviteAb:
; File C:\IAGOS\server\v18\Source\Source\WorldServer\CampusHelper.h

; 41   : 	CCampus*	GetCampus( u_long idCampus )	{	return m_pCampusMng->GetCampus( idCampus );	}

  0011d	ff b3 cc 14 00
	00		 push	 DWORD PTR [ebx+5324]
  00123	8b 0e		 mov	 ecx, DWORD PTR [esi]
  00125	e8 00 00 00 00	 call	 ?GetCampus@CCampusMng@@QAEPAVCCampus@@K@Z ; CCampusMng::GetCampus
; File C:\IAGOS\server\v18\Source\Source\WorldServer\CampusHelper.cpp

; 277  : 		if( GetCampus( pTarget->GetCampusId() ) )

  0012a	85 c0		 test	 eax, eax
  0012c	0f 84 c2 00 00
	00		 je	 $LN17@IsInviteAb

; 278  : 		{
; 279  : 			pRequest->AddDefinedText( TID_GAME_TS_ALREADY, "\"%s\"", pTarget->GetName() );

  00132	8b cb		 mov	 ecx, ebx
$LN64@IsInviteAb:

; 314  : 	return FALSE;
; 315  : }

  00134	6a 00		 push	 0
  00136	e8 00 00 00 00	 call	 ?GetName@CMover@@QAEPBDH@Z ; CMover::GetName
  0013b	50		 push	 eax
  0013c	68 00 00 00 00	 push	 OFFSET ??_C@_04OEDFLLKD@?$CC?$CFs?$CC@
  00141	68 94 10 00 00	 push	 4244			; 00001094H
  00146	57		 push	 edi
  00147	e8 00 00 00 00	 call	 ?AddDefinedText@CUser@@QAAXHPBDZZ ; CUser::AddDefinedText
  0014c	83 c4 10	 add	 esp, 16			; 00000010H
  0014f	33 c0		 xor	 eax, eax
  00151	5f		 pop	 edi
  00152	5e		 pop	 esi
  00153	5b		 pop	 ebx
  00154	8b e5		 mov	 esp, ebp
  00156	5d		 pop	 ebp
  00157	c2 08 00	 ret	 8
$LN6@IsInviteAb:

; 280  : 			return FALSE;
; 281  : 		}
; 282  : 		return TRUE;
; 283  : 	}
; 284  : 	// »çÁ¦¸Î±â¸¦ ˝ĹĂ»ÇŃ ŔŻŔú°ˇ Á¦ŔÚŔĎ ¶§
; 285  : 	else if( IsPupilLevel( pRequest ) && IsMasterLevel( pTarget ) )

  0015a	57		 push	 edi
  0015b	8b ce		 mov	 ecx, esi
  0015d	e8 00 00 00 00	 call	 ?IsPupilLevel@CCampusHelper@@QAEHPAVCUser@@@Z ; CCampusHelper::IsPupilLevel
  00162	85 c0		 test	 eax, eax
  00164	0f 84 98 00 00
	00		 je	 $LN12@IsInviteAb
  0016a	53		 push	 ebx
  0016b	8b ce		 mov	 ecx, esi
  0016d	e8 00 00 00 00	 call	 ?IsMasterLevel@CCampusHelper@@QAEHPAVCUser@@@Z ; CCampusHelper::IsMasterLevel
  00172	85 c0		 test	 eax, eax
  00174	0f 84 88 00 00
	00		 je	 $LN12@IsInviteAb
; File C:\IAGOS\server\v18\Source\Source\WorldServer\CampusHelper.h

; 41   : 	CCampus*	GetCampus( u_long idCampus )	{	return m_pCampusMng->GetCampus( idCampus );	}

  0017a	ff b7 cc 14 00
	00		 push	 DWORD PTR [edi+5324]
  00180	8b 0e		 mov	 ecx, DWORD PTR [esi]
  00182	e8 00 00 00 00	 call	 ?GetCampus@CCampusMng@@QAEPAVCCampus@@K@Z ; CCampusMng::GetCampus
; File C:\IAGOS\server\v18\Source\Source\WorldServer\CampusHelper.cpp

; 288  : 		if( GetCampus( pRequest->GetCampusId() ) )

  00187	85 c0		 test	 eax, eax
  00189	74 04		 je	 SHORT $LN14@IsInviteAb

; 289  : 		{
; 290  : 			pRequest->AddDefinedText( TID_GAME_TS_ALREADY, "\"%s\"", pRequest->GetName() );

  0018b	8b cf		 mov	 ecx, edi

; 291  : 			return FALSE;

  0018d	eb a5		 jmp	 SHORT $LN64@IsInviteAb
$LN14@IsInviteAb:

; 292  : 		}
; 293  : 		// »ó´ëąćŔĚ »çÁ¦ Äů˝şĆ®¸¦ ľČÇß´Ů¸é ľČµĘ
; 294  : 		if( !IsCompleteCampusQuest( pTarget ) )

  0018f	53		 push	 ebx
  00190	8b ce		 mov	 ecx, esi
  00192	e8 00 00 00 00	 call	 ?IsCompleteCampusQuest@CCampusHelper@@QAEHPAVCUser@@@Z ; CCampusHelper::IsCompleteCampusQuest
  00197	85 c0		 test	 eax, eax
  00199	75 07		 jne	 SHORT $LN15@IsInviteAb

; 295  : 		{
; 296  : 			pRequest->AddDefinedText( TID_GAME_TS_NOTQUEST, "\"%s\"", pTarget->GetName() );

  0019b	8b cb		 mov	 ecx, ebx

; 297  : 			return FALSE;

  0019d	e9 00 ff ff ff	 jmp	 $LN65@IsInviteAb
$LN15@IsInviteAb:
; File C:\IAGOS\server\v18\Source\Source\WorldServer\CampusHelper.h

; 41   : 	CCampus*	GetCampus( u_long idCampus )	{	return m_pCampusMng->GetCampus( idCampus );	}

  001a2	ff b3 cc 14 00
	00		 push	 DWORD PTR [ebx+5324]
  001a8	8b 0e		 mov	 ecx, DWORD PTR [esi]
  001aa	e8 00 00 00 00	 call	 ?GetCampus@CCampusMng@@QAEPAVCCampus@@K@Z ; CCampusMng::GetCampus
; File C:\IAGOS\server\v18\Source\Source\WorldServer\CampusHelper.cpp

; 299  : 		CCampus* pCampus = GetCampus( pTarget->GetCampusId() );

  001af	89 45 08	 mov	 DWORD PTR _pCampus$1$[ebp], eax

; 300  : 		if( pCampus )

  001b2	85 c0		 test	 eax, eax
  001b4	74 3e		 je	 SHORT $LN17@IsInviteAb

; 301  : 		{
; 302  : 			// »ó´ëąćŔĚ µż˝Ăżˇ ąŢŔ» Ľö ŔÖ´Â Á¦ŔÚŔÇ Ľö¸¦ łŃŔ¸¸é ľČµĘ
; 303  : 			if( pCampus->GetPupilNum() >= GetMaxPupilNum( pTarget ) )

  001b6	53		 push	 ebx
  001b7	8b ce		 mov	 ecx, esi
  001b9	e8 00 00 00 00	 call	 ?GetMaxPupilNum@CCampusHelper@@QAEHPAVCUser@@@Z ; CCampusHelper::GetMaxPupilNum
  001be	8b 4d 08	 mov	 ecx, DWORD PTR _pCampus$1$[ebp]
  001c1	8b f0		 mov	 esi, eax
  001c3	e8 00 00 00 00	 call	 ?GetPupilNum@CCampus@@QAEHXZ ; CCampus::GetPupilNum
  001c8	3b c6		 cmp	 eax, esi
  001ca	7c 28		 jl	 SHORT $LN17@IsInviteAb

; 304  : 			{
; 305  : 				pRequest->AddDefinedText( TID_GAME_TS_FULLSTUDENT, "\"%s\"", pTarget->GetName() );

  001cc	6a 00		 push	 0
  001ce	8b cb		 mov	 ecx, ebx
  001d0	e8 00 00 00 00	 call	 ?GetName@CMover@@QAEPBDH@Z ; CMover::GetName
  001d5	50		 push	 eax
  001d6	68 00 00 00 00	 push	 OFFSET ??_C@_04OEDFLLKD@?$CC?$CFs?$CC@
  001db	68 8c 10 00 00	 push	 4236			; 0000108cH

; 314  : 	return FALSE;
; 315  : }

  001e0	57		 push	 edi
  001e1	e8 00 00 00 00	 call	 ?AddDefinedText@CUser@@QAAXHPBDZZ ; CUser::AddDefinedText
  001e6	83 c4 10	 add	 esp, 16			; 00000010H
  001e9	33 c0		 xor	 eax, eax
  001eb	5f		 pop	 edi
  001ec	5e		 pop	 esi
  001ed	5b		 pop	 ebx
  001ee	8b e5		 mov	 esp, ebp
  001f0	5d		 pop	 ebp
  001f1	c2 08 00	 ret	 8
$LN17@IsInviteAb:
  001f4	5f		 pop	 edi
  001f5	5e		 pop	 esi
  001f6	b8 01 00 00 00	 mov	 eax, 1
  001fb	5b		 pop	 ebx
  001fc	8b e5		 mov	 esp, ebp
  001fe	5d		 pop	 ebp
  001ff	c2 08 00	 ret	 8
$LN12@IsInviteAb:

; 306  : 				return FALSE;
; 307  : 			}
; 308  : 		}
; 309  : 		return TRUE;
; 310  : 	}
; 311  : 	// ŔĚµµ Ŕúµµ ľĆ´Ň¶§...
; 312  : 	else
; 313  : 		pRequest->AddDefinedText( TID_GAME_TS_NOTLEVEL );

  00202	68 93 10 00 00	 push	 4243			; 00001093H

; 314  : 	return FALSE;
; 315  : }

  00207	8b cf		 mov	 ecx, edi
  00209	e8 00 00 00 00	 call	 ?AddDefinedText@CUser@@QAEXH@Z ; CUser::AddDefinedText
$LN3@IsInviteAb:
  0020e	5f		 pop	 edi
  0020f	5e		 pop	 esi
  00210	33 c0		 xor	 eax, eax
  00212	5b		 pop	 ebx
  00213	8b e5		 mov	 esp, ebp
  00215	5d		 pop	 ebp
  00216	c2 08 00	 ret	 8
?IsInviteAble@CCampusHelper@@QAEHPAVCUser@@0@Z ENDP	; CCampusHelper::IsInviteAble
_TEXT	ENDS
; Function compile flags: /Ogtp
; File C:\IAGOS\server\v18\Source\Source\WorldServer\CampusHelper.cpp
; File C:\IAGOS\server\v18\Source\Source\_Common\LuaBase.h
; File C:\IAGOS\server\v18\Source\Source\WorldServer\CampusHelper.cpp
; File C:\IAGOS\server\v18\Source\Source\_Common\LuaBase.h
; File C:\IAGOS\server\v18\Source\Source\WorldServer\CampusHelper.cpp
; File C:\Program Files\Microsoft Visual Studio\2022\Professional\VC\Tools\MSVC\14.44.35207\include\vector
; File C:\IAGOS\server\v18\Source\Source\WorldServer\CampusHelper.cpp
; File C:\Program Files\Microsoft Visual Studio\2022\Professional\VC\Tools\MSVC\14.44.35207\include\vector
; File C:\IAGOS\server\v18\Source\Source\WorldServer\CampusHelper.cpp
; File C:\IAGOS\server\v18\Source\Source\_Common\LuaBase.h
; File C:\IAGOS\server\v18\Source\Source\WorldServer\CampusHelper.cpp
; File C:\IAGOS\server\v18\Source\Source\_Common\LuaBase.h
; File C:\IAGOS\server\v18\Source\Source\WorldServer\CampusHelper.cpp
; File C:\Program Files\Microsoft Visual Studio\2022\Professional\VC\Tools\MSVC\14.44.35207\include\utility
; File C:\Program Files\Microsoft Visual Studio\2022\Professional\VC\Tools\MSVC\14.44.35207\include\xtree
; File C:\Program Files\Microsoft Visual Studio\2022\Professional\VC\Tools\MSVC\14.44.35207\include\utility
; File C:\Program Files\Microsoft Visual Studio\2022\Professional\VC\Tools\MSVC\14.44.35207\include\xtree
; File C:\Program Files\Microsoft Visual Studio\2022\Professional\VC\Tools\MSVC\14.44.35207\include\type_traits
; File C:\Program Files\Microsoft Visual Studio\2022\Professional\VC\Tools\MSVC\14.44.35207\include\xtree
; File C:\Program Files\Microsoft Visual Studio\2022\Professional\VC\Tools\MSVC\14.44.35207\include\xmemory
; File C:\Program Files\Microsoft Visual Studio\2022\Professional\VC\Tools\MSVC\14.44.35207\include\xtree
; File C:\Program Files\Microsoft Visual Studio\2022\Professional\VC\Tools\MSVC\14.44.35207\include\xmemory
; File C:\Program Files\Microsoft Visual Studio\2022\Professional\VC\Tools\MSVC\14.44.35207\include\xtree
; File C:\Program Files\Microsoft Visual Studio\2022\Professional\VC\Tools\MSVC\14.44.35207\include\xmemory
; File C:\Program Files\Microsoft Visual Studio\2022\Professional\VC\Tools\MSVC\14.44.35207\include\xtree
; File C:\Program Files\Microsoft Visual Studio\2022\Professional\VC\Tools\MSVC\14.44.35207\include\utility
; File C:\Program Files\Microsoft Visual Studio\2022\Professional\VC\Tools\MSVC\14.44.35207\include\xtree
; File C:\IAGOS\server\v18\Source\Source\WorldServer\CampusHelper.cpp
; File C:\IAGOS\server\v18\Source\Source\_Common\LuaBase.h
; File C:\IAGOS\server\v18\Source\Source\WorldServer\CampusHelper.cpp
; File C:\IAGOS\server\v18\Source\Source\_Common\LuaBase.h
; File C:\IAGOS\server\v18\Source\Source\WorldServer\CampusHelper.cpp
; File C:\Program Files\Microsoft Visual Studio\2022\Professional\VC\Tools\MSVC\14.44.35207\include\xtree
; File C:\Program Files\Microsoft Visual Studio\2022\Professional\VC\Tools\MSVC\14.44.35207\include\utility
; File C:\IAGOS\server\v18\Source\Source\WorldServer\CampusHelper.cpp
; File C:\Program Files\Microsoft Visual Studio\2022\Professional\VC\Tools\MSVC\14.44.35207\include\utility
; File C:\Program Files\Microsoft Visual Studio\2022\Professional\VC\Tools\MSVC\14.44.35207\include\xtree
; File C:\Program Files\Microsoft Visual Studio\2022\Professional\VC\Tools\MSVC\14.44.35207\include\type_traits
; File C:\Program Files\Microsoft Visual Studio\2022\Professional\VC\Tools\MSVC\14.44.35207\include\xtree
; File C:\Program Files\Microsoft Visual Studio\2022\Professional\VC\Tools\MSVC\14.44.35207\include\xmemory
; File C:\Program Files\Microsoft Visual Studio\2022\Professional\VC\Tools\MSVC\14.44.35207\include\xtree
; File C:\Program Files\Microsoft Visual Studio\2022\Professional\VC\Tools\MSVC\14.44.35207\include\xmemory
; File C:\Program Files\Microsoft Visual Studio\2022\Professional\VC\Tools\MSVC\14.44.35207\include\xtree
; File C:\Program Files\Microsoft Visual Studio\2022\Professional\VC\Tools\MSVC\14.44.35207\include\xmemory
; File C:\Program Files\Microsoft Visual Studio\2022\Professional\VC\Tools\MSVC\14.44.35207\include\xtree
; File C:\Program Files\Microsoft Visual Studio\2022\Professional\VC\Tools\MSVC\14.44.35207\include\xmemory
; File C:\Program Files\Microsoft Visual Studio\2022\Professional\VC\Tools\MSVC\14.44.35207\include\xtree
; File C:\Program Files\Microsoft Visual Studio\2022\Professional\VC\Tools\MSVC\14.44.35207\include\utility
; File C:\Program Files\Microsoft Visual Studio\2022\Professional\VC\Tools\MSVC\14.44.35207\include\xtree
; File C:\IAGOS\server\v18\Source\Source\WorldServer\CampusHelper.cpp
; File C:\IAGOS\server\v18\Source\Source\_Common\LuaBase.h
; File C:\IAGOS\server\v18\Source\Source\WorldServer\CampusHelper.cpp
; File C:\Program Files\Microsoft Visual Studio\2022\Professional\VC\Tools\MSVC\14.44.35207\include\xtree
; File C:\IAGOS\server\v18\Source\Source\WorldServer\CampusHelper.cpp
;	COMDAT ?LoadScript@CCampusHelper@@QAEXXZ
_TEXT	SEGMENT
$T2 = -80						; size = 12
$T3 = -80						; size = 12
__Loc$4 = -68						; size = 12
__Loc$5 = -68						; size = 12
$T6 = -56						; size = 8
tv1235 = -56						; size = 8
tv1241 = -56						; size = 8
$T7 = -48						; size = 8
tv1231 = -48						; size = 8
_Lua$ = -40						; size = 8
$T8 = -32						; size = 8
_this$1$ = -28						; size = 4
$T9 = -24						; size = 12
tv1266 = -20						; size = 8
_nQuestId$10 = -16					; size = 4
$T11 = -16						; size = 4
__$EHRec$ = -12						; size = 12
?LoadScript@CCampusHelper@@QAEXXZ PROC			; CCampusHelper::LoadScript, COMDAT
; _this$ = ecx

; 194  : {

  00000	55		 push	 ebp
  00001	8b ec		 mov	 ebp, esp
  00003	6a ff		 push	 -1
  00005	68 00 00 00 00	 push	 __ehhandler$?LoadScript@CCampusHelper@@QAEXXZ
  0000a	64 a1 00 00 00
	00		 mov	 eax, DWORD PTR fs:0
  00010	50		 push	 eax
  00011	83 ec 44	 sub	 esp, 68			; 00000044H
  00014	53		 push	 ebx
  00015	56		 push	 esi
  00016	57		 push	 edi
  00017	a1 00 00 00 00	 mov	 eax, DWORD PTR ___security_cookie
  0001c	33 c5		 xor	 eax, ebp
  0001e	50		 push	 eax
  0001f	8d 45 f4	 lea	 eax, DWORD PTR __$EHRec$[ebp]
  00022	64 a3 00 00 00
	00		 mov	 DWORD PTR fs:0, eax
  00028	8b d9		 mov	 ebx, ecx
  0002a	89 5d e4	 mov	 DWORD PTR _this$1$[ebp], ebx

; 195  : 	CLuaBase Lua;

  0002d	8d 4d d8	 lea	 ecx, DWORD PTR _Lua$[ebp]
  00030	e8 00 00 00 00	 call	 ??0CLuaBase@@QAE@XZ	; CLuaBase::CLuaBase

; 196  : 	if( Lua.RunScript( "Campus.lua" ) != 0 )

  00035	68 00 00 00 00	 push	 OFFSET ??_C@_0L@PGLAAALA@Campus?4lua@
  0003a	8d 4d d8	 lea	 ecx, DWORD PTR _Lua$[ebp]
  0003d	c7 45 fc 00 00
	00 00		 mov	 DWORD PTR __$EHRec$[ebp+8], 0
  00044	e8 00 00 00 00	 call	 ?RunScript@CLuaBase@@QAEHPBD@Z ; CLuaBase::RunScript
  00049	85 c0		 test	 eax, eax
  0004b	0f 85 0c 03 00
	00		 jne	 $LN266@LoadScript

; 200  : 	}
; 201  : 	m_dwRecoveryTime		=	static_cast<DWORD>( Lua.GetGlobalNumber( "RecoveryTime" ) );

  00051	68 00 00 00 00	 push	 OFFSET ??_C@_0N@FPCGBAAD@RecoveryTime@
  00056	8d 4d d8	 lea	 ecx, DWORD PTR _Lua$[ebp]
  00059	e8 00 00 00 00	 call	 ?GetGlobalNumber@CLuaBase@@QAENPAD@Z ; CLuaBase::GetGlobalNumber
  0005e	e8 00 00 00 00	 call	 __ftol2

; 202  : 	m_nRecoveryPoint		=	static_cast<int>( Lua.GetGlobalNumber( "RecoveryPoint" ) );

  00063	68 00 00 00 00	 push	 OFFSET ??_C@_0O@EFODAEFI@RecoveryPoint@
  00068	8d 4d d8	 lea	 ecx, DWORD PTR _Lua$[ebp]
  0006b	89 43 04	 mov	 DWORD PTR [ebx+4], eax
  0006e	e8 00 00 00 00	 call	 ?GetGlobalNumber@CLuaBase@@QAENPAD@Z ; CLuaBase::GetGlobalNumber
  00073	e8 00 00 00 00	 call	 __ftol2_sse
; File C:\IAGOS\server\v18\Source\Source\_Common\LuaBase.h

; 47   : 	void		GetGloabal( char* szName )					{  lua_getglobal( m_pLuaState, szName );  }

  00078	68 00 00 00 00	 push	 OFFSET ??_C@_0N@FGBHEDOH@tCampusQuest@
  0007d	ff 75 dc	 push	 DWORD PTR _Lua$[ebp+4]
; File C:\IAGOS\server\v18\Source\Source\WorldServer\CampusHelper.cpp

; 202  : 	m_nRecoveryPoint		=	static_cast<int>( Lua.GetGlobalNumber( "RecoveryPoint" ) );

  00080	89 43 08	 mov	 DWORD PTR [ebx+8], eax
; File C:\IAGOS\server\v18\Source\Source\_Common\LuaBase.h

; 47   : 	void		GetGloabal( char* szName )					{  lua_getglobal( m_pLuaState, szName );  }

  00083	e8 00 00 00 00	 call	 _lua_getglobal

; 40   : 	void		PushNil()									{  lua_pushnil( m_pLuaState );  }

  00088	ff 75 dc	 push	 DWORD PTR _Lua$[ebp+4]
  0008b	e8 00 00 00 00	 call	 _lua_pushnil

; 46   : 	int			TableLoop( int nStackPos )					{  return lua_next( m_pLuaState, nStackPos );  }	

  00090	6a fe		 push	 -2			; fffffffeH
  00092	ff 75 dc	 push	 DWORD PTR _Lua$[ebp+4]
  00095	e8 00 00 00 00	 call	 _lua_next
  0009a	83 c4 14	 add	 esp, 20			; 00000014H
; File C:\IAGOS\server\v18\Source\Source\WorldServer\CampusHelper.cpp

; 206  : 	while( Lua.TableLoop( -2 ) )

  0009d	85 c0		 test	 eax, eax
  0009f	74 53		 je	 SHORT $LN3@LoadScript
$LL2@LoadScript:

; 208  : 		int nQuestId		=	static_cast<int>( CScript::GetDefineNum( Lua.GetFieldToString( -1, "strQuestId" ) ) );

  000a1	68 00 00 00 00	 push	 OFFSET ??_C@_0L@IJFPJDFF@strQuestId@
  000a6	6a ff		 push	 -1
  000a8	8d 4d d8	 lea	 ecx, DWORD PTR _Lua$[ebp]
  000ab	e8 00 00 00 00	 call	 ?GetFieldToString@CLuaBase@@QAEPBDHPAD@Z ; CLuaBase::GetFieldToString
  000b0	50		 push	 eax
  000b1	e8 00 00 00 00	 call	 ?GetDefineNum@CScript@@SAHPBD@Z ; CScript::GetDefineNum
; File C:\Program Files\Microsoft Visual Studio\2022\Professional\VC\Tools\MSVC\14.44.35207\include\vector

; 844  :         if (_Mylast != _My_data._Myend) {

  000b6	8b 4b 10	 mov	 ecx, DWORD PTR [ebx+16]
; File C:\IAGOS\server\v18\Source\Source\WorldServer\CampusHelper.cpp

; 208  : 		int nQuestId		=	static_cast<int>( CScript::GetDefineNum( Lua.GetFieldToString( -1, "strQuestId" ) ) );

  000b9	83 c4 04	 add	 esp, 4
  000bc	89 45 f0	 mov	 DWORD PTR _nQuestId$10[ebp], eax
; File C:\Program Files\Microsoft Visual Studio\2022\Professional\VC\Tools\MSVC\14.44.35207\include\vector

; 844  :         if (_Mylast != _My_data._Myend) {

  000bf	3b 4b 14	 cmp	 ecx, DWORD PTR [ebx+20]
  000c2	74 08		 je	 SHORT $LN20@LoadScript

; 860  :             _STD _Construct_in_place(*_Mylast, _STD forward<_Valty>(_Val)...);

  000c4	89 01		 mov	 DWORD PTR [ecx], eax

; 861  :         } else {
; 862  :             _ASAN_VECTOR_EXTEND_GUARD(static_cast<size_type>(_Mylast - _My_data._Myfirst) + 1);
; 863  :             _Alty_traits::construct(_Getal(), _Unfancy(_Mylast), _STD forward<_Valty>(_Val)...);
; 864  :             _ASAN_VECTOR_RELEASE_GUARD;
; 865  :         }
; 866  : 
; 867  :         _Orphan_range(_Mylast, _Mylast);
; 868  :         _Ty& _Result = *_Mylast;
; 869  :         ++_Mylast;

  000c6	83 43 10 04	 add	 DWORD PTR [ebx+16], 4

; 845  :             return _Emplace_back_with_unused_capacity(_STD forward<_Valty>(_Val)...);

  000ca	eb 0d		 jmp	 SHORT $LN19@LoadScript
$LN20@LoadScript:

; 846  :         }
; 847  : 
; 848  :         return *_Emplace_reallocate(_Mylast, _STD forward<_Valty>(_Val)...);

  000cc	8d 45 f0	 lea	 eax, DWORD PTR _nQuestId$10[ebp]
  000cf	50		 push	 eax
  000d0	51		 push	 ecx
  000d1	8d 4b 0c	 lea	 ecx, DWORD PTR [ebx+12]
  000d4	e8 00 00 00 00	 call	 ??$_Emplace_reallocate@ABH@?$vector@HV?$allocator@H@std@@@std@@AAEPAHQAHABH@Z ; std::vector<int,std::allocator<int> >::_Emplace_reallocate<int const &>
$LN19@LoadScript:
; File C:\IAGOS\server\v18\Source\Source\WorldServer\CampusHelper.cpp

; 210  : 		Lua.Pop( 1 );

  000d9	6a 01		 push	 1
  000db	8d 4d d8	 lea	 ecx, DWORD PTR _Lua$[ebp]
  000de	e8 00 00 00 00	 call	 ?Pop@CLuaBase@@QAEXH@Z	; CLuaBase::Pop
; File C:\IAGOS\server\v18\Source\Source\_Common\LuaBase.h

; 46   : 	int			TableLoop( int nStackPos )					{  return lua_next( m_pLuaState, nStackPos );  }	

  000e3	6a fe		 push	 -2			; fffffffeH
  000e5	ff 75 dc	 push	 DWORD PTR _Lua$[ebp+4]
  000e8	e8 00 00 00 00	 call	 _lua_next
  000ed	83 c4 08	 add	 esp, 8
; File C:\IAGOS\server\v18\Source\Source\WorldServer\CampusHelper.cpp

; 206  : 	while( Lua.TableLoop( -2 ) )

  000f0	85 c0		 test	 eax, eax
  000f2	75 ad		 jne	 SHORT $LL2@LoadScript
$LN3@LoadScript:

; 211  : 	}
; 212  : 	Lua.Pop( 0 );

  000f4	6a 00		 push	 0
  000f6	8d 4d d8	 lea	 ecx, DWORD PTR _Lua$[ebp]
  000f9	e8 00 00 00 00	 call	 ?Pop@CLuaBase@@QAEXH@Z	; CLuaBase::Pop
; File C:\IAGOS\server\v18\Source\Source\_Common\LuaBase.h

; 47   : 	void		GetGloabal( char* szName )					{  lua_getglobal( m_pLuaState, szName );  }

  000fe	68 00 00 00 00	 push	 OFFSET ??_C@_0M@OBFMMEAP@tCampusBuff@
  00103	ff 75 dc	 push	 DWORD PTR _Lua$[ebp+4]
  00106	e8 00 00 00 00	 call	 _lua_getglobal

; 40   : 	void		PushNil()									{  lua_pushnil( m_pLuaState );  }

  0010b	ff 75 dc	 push	 DWORD PTR _Lua$[ebp+4]
  0010e	e8 00 00 00 00	 call	 _lua_pushnil

; 46   : 	int			TableLoop( int nStackPos )					{  return lua_next( m_pLuaState, nStackPos );  }	

  00113	6a fe		 push	 -2			; fffffffeH
  00115	ff 75 dc	 push	 DWORD PTR _Lua$[ebp+4]
  00118	e8 00 00 00 00	 call	 _lua_next
  0011d	83 c4 14	 add	 esp, 20			; 00000014H
; File C:\IAGOS\server\v18\Source\Source\WorldServer\CampusHelper.cpp

; 216  : 	while( Lua.TableLoop( -2 ) )

  00120	85 c0		 test	 eax, eax
  00122	0f 84 df 00 00
	00		 je	 $LN5@LoadScript
  00128	8d 7b 18	 lea	 edi, DWORD PTR [ebx+24]
  0012b	0f 1f 44 00 00	 npad	 5
$LL4@LoadScript:

; 217  : 	{
; 218  : 		int nLevel			=	static_cast<int>( Lua.GetFieldToNumber( -1, "nLevel" ) );

  00130	68 00 00 00 00	 push	 OFFSET ??_C@_06FJFCPHDD@nLevel@
  00135	6a ff		 push	 -1
  00137	8d 4d d8	 lea	 ecx, DWORD PTR _Lua$[ebp]
  0013a	e8 00 00 00 00	 call	 ?GetFieldToNumber@CLuaBase@@QAENHPAD@Z ; CLuaBase::GetFieldToNumber

; 219  : 		DWORD dwBuffId		=	static_cast<DWORD>( CScript::GetDefineNum( Lua.GetFieldToString( -1, "strBuffId" ) ) );

  0013f	68 00 00 00 00	 push	 OFFSET ??_C@_09LMKPGHNK@strBuffId@
  00144	dd 5d ec	 fstp	 QWORD PTR tv1266[ebp]
  00147	f2 0f 2c 5d ec	 cvttsd2si ebx, QWORD PTR tv1266[ebp]
  0014c	6a ff		 push	 -1
  0014e	8d 4d d8	 lea	 ecx, DWORD PTR _Lua$[ebp]
  00151	e8 00 00 00 00	 call	 ?GetFieldToString@CLuaBase@@QAEPBDHPAD@Z ; CLuaBase::GetFieldToString
  00156	50		 push	 eax
  00157	e8 00 00 00 00	 call	 ?GetDefineNum@CScript@@SAHPBD@Z ; CScript::GetDefineNum
  0015c	83 c4 04	 add	 esp, 4
  0015f	89 45 f0	 mov	 DWORD PTR $T11[ebp], eax
; File C:\Program Files\Microsoft Visual Studio\2022\Professional\VC\Tools\MSVC\14.44.35207\include\utility

; 274  :         : first(_STD forward<_Other1>(_Val1)), second(_STD forward<_Other2>(_Val2)) {

  00162	89 45 d4	 mov	 DWORD PTR $T7[ebp+4], eax
; File C:\Program Files\Microsoft Visual Studio\2022\Professional\VC\Tools\MSVC\14.44.35207\include\xtree

; 1017 :             _Loc                = _Find_lower_bound(_Keyval);

  00165	8b cf		 mov	 ecx, edi
  00167	8d 45 d0	 lea	 eax, DWORD PTR $T7[ebp]
; File C:\Program Files\Microsoft Visual Studio\2022\Professional\VC\Tools\MSVC\14.44.35207\include\utility

; 274  :         : first(_STD forward<_Other1>(_Val1)), second(_STD forward<_Other2>(_Val2)) {

  0016a	89 5d d0	 mov	 DWORD PTR $T7[ebp], ebx
; File C:\Program Files\Microsoft Visual Studio\2022\Professional\VC\Tools\MSVC\14.44.35207\include\xtree

; 1017 :             _Loc                = _Find_lower_bound(_Keyval);

  0016d	50		 push	 eax
  0016e	8d 45 b0	 lea	 eax, DWORD PTR $T2[ebp]
  00171	50		 push	 eax
  00172	e8 00 00 00 00	 call	 ??$_Find_lower_bound@H@?$_Tree@V?$_Tmap_traits@HKU?$less@H@std@@V?$allocator@U?$pair@$$CBHK@std@@@2@$0A@@std@@@std@@IBE?AU?$_Tree_find_result@PAU?$_Tree_node@U?$pair@$$CBHK@std@@PAX@std@@@1@ABH@Z ; std::_Tree<std::_Tmap_traits<int,unsigned long,std::less<int>,std::allocator<std::pair<int const ,unsigned long> >,0> >::_Find_lower_bound<int>
  00177	f3 0f 7e 00	 movq	 xmm0, QWORD PTR [eax]
  0017b	8b 40 08	 mov	 eax, DWORD PTR [eax+8]
  0017e	66 0f d6 45 bc	 movq	 QWORD PTR __Loc$4[ebp], xmm0

; 1624 :         return !_Bound->_Isnil && !_DEBUG_LT_PRED(_Getcomp(), _Keyval, _Traits::_Kfn(_Bound->_Myval));

  00183	80 78 0d 00	 cmp	 BYTE PTR [eax+13], 0
  00187	75 05		 jne	 SHORT $LN35@LoadScript
; File C:\Program Files\Microsoft Visual Studio\2022\Professional\VC\Tools\MSVC\14.44.35207\include\type_traits

; 2380 :         return _Left < _Right;

  00189	3b 58 10	 cmp	 ebx, DWORD PTR [eax+16]
; File C:\Program Files\Microsoft Visual Studio\2022\Professional\VC\Tools\MSVC\14.44.35207\include\xtree

; 1624 :         return !_Bound->_Isnil && !_DEBUG_LT_PRED(_Getcomp(), _Keyval, _Traits::_Kfn(_Bound->_Myval));

  0018c	7d 57		 jge	 SHORT $LN110@LoadScript
$LN35@LoadScript:

; 1648 :         if (max_size() == _Get_scary()->_Mysize) {

  0018e	81 7f 04 aa aa
	aa 0a		 cmp	 DWORD PTR [edi+4], 178956970 ; 0aaaaaaaH
  00195	0f 84 bd 01 00
	00		 je	 $LN248@LoadScript

; 1023 :             _Inserted = _Tree_temp_node<_Alnode>(_Getal(), _Scary->_Myhead, _STD forward<_Valtys>(_Vals)...)._Release();

  0019b	8b 37		 mov	 esi, DWORD PTR [edi]
; File C:\Program Files\Microsoft Visual Studio\2022\Professional\VC\Tools\MSVC\14.44.35207\include\xmemory

; 1160 :     _CONSTEXPR20 explicit _Alloc_construct_ptr(_Alloc& _Al_) : _Al(_Al_), _Ptr(nullptr) {}

  0019d	89 7d c8	 mov	 DWORD PTR $T6[ebp], edi

; 136  :         return ::operator new(_Bytes);

  001a0	6a 18		 push	 24			; 00000018H
; File C:\Program Files\Microsoft Visual Studio\2022\Professional\VC\Tools\MSVC\14.44.35207\include\xtree

; 808  :     explicit _Tree_temp_node_alloc(_Alnode& _Al_) : _Alloc_construct_ptr<_Alnode>(_Al_) {

  001a2	c6 45 fc 01	 mov	 BYTE PTR __$EHRec$[ebp+8], 1
; File C:\Program Files\Microsoft Visual Studio\2022\Professional\VC\Tools\MSVC\14.44.35207\include\xmemory

; 1167 :         _Ptr = nullptr; // if allocate throws, prevents double-free

  001a6	c7 45 cc 00 00
	00 00		 mov	 DWORD PTR $T6[ebp+4], 0

; 136  :         return ::operator new(_Bytes);

  001ad	e8 00 00 00 00	 call	 ??2@YAPAXI@Z		; operator new
; File C:\Program Files\Microsoft Visual Studio\2022\Professional\VC\Tools\MSVC\14.44.35207\include\xtree

; 830  :         _Alnode_traits::construct(this->_Al, _STD addressof(this->_Ptr->_Myval), _STD forward<_Valtys>(_Vals)...);

  001b2	8b 4d f0	 mov	 ecx, DWORD PTR $T11[ebp]
; File C:\Program Files\Microsoft Visual Studio\2022\Professional\VC\Tools\MSVC\14.44.35207\include\xmemory

; 136  :         return ::operator new(_Bytes);

  001b5	83 c4 04	 add	 esp, 4
; File C:\Program Files\Microsoft Visual Studio\2022\Professional\VC\Tools\MSVC\14.44.35207\include\xtree

; 810  :     }

  001b8	c6 45 fc 00	 mov	 BYTE PTR __$EHRec$[ebp+8], 0
; File C:\Program Files\Microsoft Visual Studio\2022\Professional\VC\Tools\MSVC\14.44.35207\include\utility

; 774  :     _Val         = static_cast<_Other&&>(_New_val);

  001bc	c7 45 cc 00 00
	00 00		 mov	 DWORD PTR $T6[ebp+4], 0
; File C:\Program Files\Microsoft Visual Studio\2022\Professional\VC\Tools\MSVC\14.44.35207\include\xtree

; 830  :         _Alnode_traits::construct(this->_Al, _STD addressof(this->_Ptr->_Myval), _STD forward<_Valtys>(_Vals)...);

  001c3	89 58 10	 mov	 DWORD PTR [eax+16], ebx
  001c6	89 48 14	 mov	 DWORD PTR [eax+20], ecx

; 1042 :         return {_Scary->_Insert_node(_Loc._Location, _Inserted), true};

  001c9	8b cf		 mov	 ecx, edi
  001cb	50		 push	 eax
  001cc	ff 75 c0	 push	 DWORD PTR __Loc$4[ebp+4]

; 831  :         _Construct_in_place(this->_Ptr->_Left, _Myhead);

  001cf	89 30		 mov	 DWORD PTR [eax], esi

; 1042 :         return {_Scary->_Insert_node(_Loc._Location, _Inserted), true};

  001d1	ff 75 bc	 push	 DWORD PTR __Loc$4[ebp]

; 832  :         _Construct_in_place(this->_Ptr->_Parent, _Myhead);

  001d4	89 70 04	 mov	 DWORD PTR [eax+4], esi

; 833  :         _Construct_in_place(this->_Ptr->_Right, _Myhead);

  001d7	89 70 08	 mov	 DWORD PTR [eax+8], esi

; 834  :         this->_Ptr->_Color = _Red;

  001da	66 c7 40 0c 00
	00		 mov	 WORD PTR [eax+12], 0

; 1042 :         return {_Scary->_Insert_node(_Loc._Location, _Inserted), true};

  001e0	e8 00 00 00 00	 call	 ?_Insert_node@?$_Tree_val@U?$_Tree_simple_types@U?$pair@$$CBHK@std@@@std@@@std@@QAEPAU?$_Tree_node@U?$pair@$$CBHK@std@@PAX@2@U?$_Tree_id@PAU?$_Tree_node@U?$pair@$$CBHK@std@@PAX@std@@@2@QAU32@@Z ; std::_Tree_val<std::_Tree_simple_types<std::pair<int const ,unsigned long> > >::_Insert_node
$LN110@LoadScript:
; File C:\IAGOS\server\v18\Source\Source\WorldServer\CampusHelper.cpp

; 221  : 		Lua.Pop( 1 );

  001e5	6a 01		 push	 1
  001e7	8d 4d d8	 lea	 ecx, DWORD PTR _Lua$[ebp]
  001ea	e8 00 00 00 00	 call	 ?Pop@CLuaBase@@QAEXH@Z	; CLuaBase::Pop
; File C:\IAGOS\server\v18\Source\Source\_Common\LuaBase.h

; 46   : 	int			TableLoop( int nStackPos )					{  return lua_next( m_pLuaState, nStackPos );  }	

  001ef	6a fe		 push	 -2			; fffffffeH
  001f1	ff 75 dc	 push	 DWORD PTR _Lua$[ebp+4]
  001f4	e8 00 00 00 00	 call	 _lua_next
  001f9	83 c4 08	 add	 esp, 8
; File C:\IAGOS\server\v18\Source\Source\WorldServer\CampusHelper.cpp

; 216  : 	while( Lua.TableLoop( -2 ) )

  001fc	85 c0		 test	 eax, eax
  001fe	0f 85 2c ff ff
	ff		 jne	 $LL4@LoadScript
  00204	8b 5d e4	 mov	 ebx, DWORD PTR _this$1$[ebp]
$LN5@LoadScript:

; 222  : 	}
; 223  : 	Lua.Pop( 0 );

  00207	6a 00		 push	 0
  00209	8d 4d d8	 lea	 ecx, DWORD PTR _Lua$[ebp]
  0020c	e8 00 00 00 00	 call	 ?Pop@CLuaBase@@QAEXH@Z	; CLuaBase::Pop
; File C:\IAGOS\server\v18\Source\Source\_Common\LuaBase.h

; 47   : 	void		GetGloabal( char* szName )					{  lua_getglobal( m_pLuaState, szName );  }

  00211	68 00 00 00 00	 push	 OFFSET ??_C@_0O@OJCKPBHJ@tCampusReward@
  00216	ff 75 dc	 push	 DWORD PTR _Lua$[ebp+4]
  00219	e8 00 00 00 00	 call	 _lua_getglobal

; 40   : 	void		PushNil()									{  lua_pushnil( m_pLuaState );  }

  0021e	ff 75 dc	 push	 DWORD PTR _Lua$[ebp+4]
  00221	e8 00 00 00 00	 call	 _lua_pushnil

; 46   : 	int			TableLoop( int nStackPos )					{  return lua_next( m_pLuaState, nStackPos );  }	

  00226	6a fe		 push	 -2			; fffffffeH
  00228	ff 75 dc	 push	 DWORD PTR _Lua$[ebp+4]
  0022b	e8 00 00 00 00	 call	 _lua_next
  00230	83 c4 14	 add	 esp, 20			; 00000014H
; File C:\IAGOS\server\v18\Source\Source\WorldServer\CampusHelper.cpp

; 227  : 	while( Lua.TableLoop( -2 ) )

  00233	85 c0		 test	 eax, eax
  00235	0f 84 f9 00 00
	00		 je	 $LN7@LoadScript
  0023b	8d 7b 20	 lea	 edi, DWORD PTR [ebx+32]
  0023e	66 90		 npad	 2
$LL6@LoadScript:

; 228  : 	{
; 229  : 		REWARD reward;
; 230  : 		int nLevel				=	static_cast<int>( Lua.GetFieldToNumber( -1, "nLevel" ) );

  00240	68 00 00 00 00	 push	 OFFSET ??_C@_06FJFCPHDD@nLevel@
  00245	6a ff		 push	 -1
  00247	8d 4d d8	 lea	 ecx, DWORD PTR _Lua$[ebp]
  0024a	e8 00 00 00 00	 call	 ?GetFieldToNumber@CLuaBase@@QAENHPAD@Z ; CLuaBase::GetFieldToNumber

; 231  : 		reward.nMasterReward	=	static_cast<int>( Lua.GetFieldToNumber( -1, "nMasterReward" ) );

  0024f	68 00 00 00 00	 push	 OFFSET ??_C@_0O@DCEIBGGG@nMasterReward@
  00254	dd 5d c8	 fstp	 QWORD PTR tv1241[ebp]
  00257	f2 0f 2c 5d c8	 cvttsd2si ebx, QWORD PTR tv1241[ebp]
  0025c	6a ff		 push	 -1
  0025e	8d 4d d8	 lea	 ecx, DWORD PTR _Lua$[ebp]
  00261	e8 00 00 00 00	 call	 ?GetFieldToNumber@CLuaBase@@QAENHPAD@Z ; CLuaBase::GetFieldToNumber

; 232  : 		reward.nPupilReward		=	static_cast<int>( Lua.GetFieldToNumber( -1, "nPupilReward" ) );

  00266	68 00 00 00 00	 push	 OFFSET ??_C@_0N@EEKCBEOO@nPupilReward@
  0026b	6a ff		 push	 -1
  0026d	8d 4d d8	 lea	 ecx, DWORD PTR _Lua$[ebp]
  00270	dd 5d c8	 fstp	 QWORD PTR tv1235[ebp]
  00273	f2 0f 2c 75 c8	 cvttsd2si esi, QWORD PTR tv1235[ebp]
  00278	e8 00 00 00 00	 call	 ?GetFieldToNumber@CLuaBase@@QAENHPAD@Z ; CLuaBase::GetFieldToNumber
; File C:\Program Files\Microsoft Visual Studio\2022\Professional\VC\Tools\MSVC\14.44.35207\include\xtree

; 1017 :             _Loc                = _Find_lower_bound(_Keyval);

  0027d	8b cf		 mov	 ecx, edi
; File C:\Program Files\Microsoft Visual Studio\2022\Professional\VC\Tools\MSVC\14.44.35207\include\utility

; 274  :         : first(_STD forward<_Other1>(_Val1)), second(_STD forward<_Other2>(_Val2)) {

  0027f	89 5d e8	 mov	 DWORD PTR $T9[ebp], ebx
  00282	89 75 ec	 mov	 DWORD PTR $T9[ebp+4], esi
; File C:\IAGOS\server\v18\Source\Source\WorldServer\CampusHelper.cpp

; 232  : 		reward.nPupilReward		=	static_cast<int>( Lua.GetFieldToNumber( -1, "nPupilReward" ) );

  00285	dd 5d d0	 fstp	 QWORD PTR tv1231[ebp]
  00288	f2 0f 2c 45 d0	 cvttsd2si eax, QWORD PTR tv1231[ebp]
; File C:\Program Files\Microsoft Visual Studio\2022\Professional\VC\Tools\MSVC\14.44.35207\include\utility

; 274  :         : first(_STD forward<_Other1>(_Val1)), second(_STD forward<_Other2>(_Val2)) {

  0028d	89 45 f0	 mov	 DWORD PTR $T9[ebp+8], eax
; File C:\Program Files\Microsoft Visual Studio\2022\Professional\VC\Tools\MSVC\14.44.35207\include\xtree

; 1017 :             _Loc                = _Find_lower_bound(_Keyval);

  00290	8d 45 e8	 lea	 eax, DWORD PTR $T9[ebp]
  00293	50		 push	 eax
  00294	8d 45 b0	 lea	 eax, DWORD PTR $T3[ebp]
  00297	50		 push	 eax
  00298	e8 00 00 00 00	 call	 ??$_Find_lower_bound@H@?$_Tree@V?$_Tmap_traits@HUREWARD@CCampusHelper@@U?$less@H@std@@V?$allocator@U?$pair@$$CBHUREWARD@CCampusHelper@@@std@@@4@$0A@@std@@@std@@IBE?AU?$_Tree_find_result@PAU?$_Tree_node@U?$pair@$$CBHUREWARD@CCampusHelper@@@std@@PAX@std@@@1@ABH@Z ; std::_Tree<std::_Tmap_traits<int,CCampusHelper::REWARD,std::less<int>,std::allocator<std::pair<int const ,CCampusHelper::REWARD> >,0> >::_Find_lower_bound<int>
  0029d	f3 0f 7e 00	 movq	 xmm0, QWORD PTR [eax]
  002a1	8b 40 08	 mov	 eax, DWORD PTR [eax+8]
  002a4	66 0f d6 45 bc	 movq	 QWORD PTR __Loc$5[ebp], xmm0

; 1624 :         return !_Bound->_Isnil && !_DEBUG_LT_PRED(_Getcomp(), _Keyval, _Traits::_Kfn(_Bound->_Myval));

  002a9	80 78 0d 00	 cmp	 BYTE PTR [eax+13], 0
  002ad	75 05		 jne	 SHORT $LN262@LoadScript
; File C:\Program Files\Microsoft Visual Studio\2022\Professional\VC\Tools\MSVC\14.44.35207\include\type_traits

; 2380 :         return _Left < _Right;

  002af	3b 58 10	 cmp	 ebx, DWORD PTR [eax+16]
; File C:\Program Files\Microsoft Visual Studio\2022\Professional\VC\Tools\MSVC\14.44.35207\include\xtree

; 1624 :         return !_Bound->_Isnil && !_DEBUG_LT_PRED(_Getcomp(), _Keyval, _Traits::_Kfn(_Bound->_Myval));

  002b2	7d 61		 jge	 SHORT $LN216@LoadScript
$LN262@LoadScript:

; 1648 :         if (max_size() == _Get_scary()->_Mysize) {

  002b4	81 7f 04 49 92
	24 09		 cmp	 DWORD PTR [edi+4], 153391689 ; 09249249H
  002bb	0f 84 97 00 00
	00		 je	 $LN248@LoadScript

; 1023 :             _Inserted = _Tree_temp_node<_Alnode>(_Getal(), _Scary->_Myhead, _STD forward<_Valtys>(_Vals)...)._Release();

  002c1	8b 37		 mov	 esi, DWORD PTR [edi]
; File C:\Program Files\Microsoft Visual Studio\2022\Professional\VC\Tools\MSVC\14.44.35207\include\xmemory

; 1160 :     _CONSTEXPR20 explicit _Alloc_construct_ptr(_Alloc& _Al_) : _Al(_Al_), _Ptr(nullptr) {}

  002c3	89 7d e0	 mov	 DWORD PTR $T8[ebp], edi

; 136  :         return ::operator new(_Bytes);

  002c6	6a 1c		 push	 28			; 0000001cH
; File C:\Program Files\Microsoft Visual Studio\2022\Professional\VC\Tools\MSVC\14.44.35207\include\xtree

; 808  :     explicit _Tree_temp_node_alloc(_Alnode& _Al_) : _Alloc_construct_ptr<_Alnode>(_Al_) {

  002c8	c6 45 fc 02	 mov	 BYTE PTR __$EHRec$[ebp+8], 2
; File C:\Program Files\Microsoft Visual Studio\2022\Professional\VC\Tools\MSVC\14.44.35207\include\xmemory

; 1167 :         _Ptr = nullptr; // if allocate throws, prevents double-free

  002cc	c7 45 e4 00 00
	00 00		 mov	 DWORD PTR $T8[ebp+4], 0

; 136  :         return ::operator new(_Bytes);

  002d3	e8 00 00 00 00	 call	 ??2@YAPAXI@Z		; operator new
; File C:\Program Files\Microsoft Visual Studio\2022\Professional\VC\Tools\MSVC\14.44.35207\include\xtree

; 810  :     }

  002d8	c6 45 fc 00	 mov	 BYTE PTR __$EHRec$[ebp+8], 0
; File C:\Program Files\Microsoft Visual Studio\2022\Professional\VC\Tools\MSVC\14.44.35207\include\xmemory

; 136  :         return ::operator new(_Bytes);

  002dc	83 c4 04	 add	 esp, 4

; 732  :         ::new (const_cast<void*>(static_cast<const volatile void*>(_Ptr))) _Objty(_STD forward<_Types>(_Args)...);

  002df	89 58 10	 mov	 DWORD PTR [eax+16], ebx
  002e2	f2 0f 2c 4d c8	 cvttsd2si ecx, QWORD PTR tv1235[ebp]
; File C:\Program Files\Microsoft Visual Studio\2022\Professional\VC\Tools\MSVC\14.44.35207\include\xtree

; 1042 :         return {_Scary->_Insert_node(_Loc._Location, _Inserted), true};

  002e7	50		 push	 eax
; File C:\Program Files\Microsoft Visual Studio\2022\Professional\VC\Tools\MSVC\14.44.35207\include\xmemory

; 732  :         ::new (const_cast<void*>(static_cast<const volatile void*>(_Ptr))) _Objty(_STD forward<_Types>(_Args)...);

  002e8	89 48 14	 mov	 DWORD PTR [eax+20], ecx
  002eb	f2 0f 2c 4d d0	 cvttsd2si ecx, QWORD PTR tv1231[ebp]
  002f0	89 48 18	 mov	 DWORD PTR [eax+24], ecx
; File C:\Program Files\Microsoft Visual Studio\2022\Professional\VC\Tools\MSVC\14.44.35207\include\xtree

; 1042 :         return {_Scary->_Insert_node(_Loc._Location, _Inserted), true};

  002f3	8b cf		 mov	 ecx, edi
  002f5	ff 75 c0	 push	 DWORD PTR __Loc$5[ebp+4]

; 831  :         _Construct_in_place(this->_Ptr->_Left, _Myhead);

  002f8	89 30		 mov	 DWORD PTR [eax], esi

; 1042 :         return {_Scary->_Insert_node(_Loc._Location, _Inserted), true};

  002fa	ff 75 bc	 push	 DWORD PTR __Loc$5[ebp]

; 832  :         _Construct_in_place(this->_Ptr->_Parent, _Myhead);

  002fd	89 70 04	 mov	 DWORD PTR [eax+4], esi

; 833  :         _Construct_in_place(this->_Ptr->_Right, _Myhead);

  00300	89 70 08	 mov	 DWORD PTR [eax+8], esi

; 834  :         this->_Ptr->_Color = _Red;

  00303	66 c7 40 0c 00
	00		 mov	 WORD PTR [eax+12], 0
; File C:\Program Files\Microsoft Visual Studio\2022\Professional\VC\Tools\MSVC\14.44.35207\include\utility

; 774  :     _Val         = static_cast<_Other&&>(_New_val);

  00309	c7 45 e4 00 00
	00 00		 mov	 DWORD PTR $T8[ebp+4], 0
; File C:\Program Files\Microsoft Visual Studio\2022\Professional\VC\Tools\MSVC\14.44.35207\include\xtree

; 1042 :         return {_Scary->_Insert_node(_Loc._Location, _Inserted), true};

  00310	e8 00 00 00 00	 call	 ?_Insert_node@?$_Tree_val@U?$_Tree_simple_types@U?$pair@$$CBHUREWARD@CCampusHelper@@@std@@@std@@@std@@QAEPAU?$_Tree_node@U?$pair@$$CBHUREWARD@CCampusHelper@@@std@@PAX@2@U?$_Tree_id@PAU?$_Tree_node@U?$pair@$$CBHUREWARD@CCampusHelper@@@std@@PAX@std@@@2@QAU32@@Z ; std::_Tree_val<std::_Tree_simple_types<std::pair<int const ,CCampusHelper::REWARD> > >::_Insert_node
$LN216@LoadScript:
; File C:\IAGOS\server\v18\Source\Source\WorldServer\CampusHelper.cpp

; 235  : 		Lua.Pop( 1 );

  00315	6a 01		 push	 1
  00317	8d 4d d8	 lea	 ecx, DWORD PTR _Lua$[ebp]
  0031a	e8 00 00 00 00	 call	 ?Pop@CLuaBase@@QAEXH@Z	; CLuaBase::Pop
; File C:\IAGOS\server\v18\Source\Source\_Common\LuaBase.h

; 46   : 	int			TableLoop( int nStackPos )					{  return lua_next( m_pLuaState, nStackPos );  }	

  0031f	6a fe		 push	 -2			; fffffffeH
  00321	ff 75 dc	 push	 DWORD PTR _Lua$[ebp+4]
  00324	e8 00 00 00 00	 call	 _lua_next
  00329	83 c4 08	 add	 esp, 8
; File C:\IAGOS\server\v18\Source\Source\WorldServer\CampusHelper.cpp

; 227  : 	while( Lua.TableLoop( -2 ) )

  0032c	85 c0		 test	 eax, eax
  0032e	0f 85 0c ff ff
	ff		 jne	 $LL6@LoadScript
$LN7@LoadScript:

; 236  : 	}
; 237  : 	Lua.Pop( 0 );

  00334	6a 00		 push	 0
  00336	8d 4d d8	 lea	 ecx, DWORD PTR _Lua$[ebp]
  00339	e8 00 00 00 00	 call	 ?Pop@CLuaBase@@QAEXH@Z	; CLuaBase::Pop

; 238  : }

  0033e	8d 4d d8	 lea	 ecx, DWORD PTR _Lua$[ebp]
  00341	e8 00 00 00 00	 call	 ??1CLuaBase@@UAE@XZ	; CLuaBase::~CLuaBase
  00346	8b 4d f4	 mov	 ecx, DWORD PTR __$EHRec$[ebp]
  00349	64 89 0d 00 00
	00 00		 mov	 DWORD PTR fs:0, ecx
  00350	59		 pop	 ecx
  00351	5f		 pop	 edi
  00352	5e		 pop	 esi
  00353	5b		 pop	 ebx
  00354	8b e5		 mov	 esp, ebp
  00356	5d		 pop	 ebp
  00357	c3		 ret	 0
$LN248@LoadScript:
; File C:\Program Files\Microsoft Visual Studio\2022\Professional\VC\Tools\MSVC\14.44.35207\include\xtree

; 1649 :             _Throw_tree_length_error();

  00358	e8 00 00 00 00	 call	 ?_Throw_tree_length_error@std@@YAXXZ ; std::_Throw_tree_length_error
$LN266@LoadScript:
; File C:\IAGOS\server\v18\Source\Source\WorldServer\CampusHelper.cpp

; 198  : 		Error( "Campus.lua Load Failed!!!" );

  0035d	68 00 00 00 00	 push	 OFFSET ??_C@_0BK@HAENFKOM@Campus?4lua?5Load?5Failed?$CB?$CB?$CB@
  00362	e8 00 00 00 00	 call	 ?Error@@YAPBDPBDZZ	; Error
  00367	83 c4 04	 add	 esp, 4

; 199  : 		exit(0);

  0036a	6a 00		 push	 0
  0036c	e8 00 00 00 00	 call	 _exit
$LN264@LoadScript:
  00371	cc		 int	 3
_TEXT	ENDS
;	COMDAT text$x
text$x	SEGMENT
__unwindfunclet$?LoadScript@CCampusHelper@@QAEXXZ$0:
  00000	8d 4d d8	 lea	 ecx, DWORD PTR _Lua$[ebp]
  00003	e9 00 00 00 00	 jmp	 ??1CLuaBase@@UAE@XZ	; CLuaBase::~CLuaBase
__unwindfunclet$?LoadScript@CCampusHelper@@QAEXXZ$3:
  00008	8d 4d c8	 lea	 ecx, DWORD PTR $T6[ebp]
  0000b	e9 00 00 00 00	 jmp	 ??1?$_Alloc_construct_ptr@V?$allocator@U?$_Tree_node@U?$pair@$$CBHK@std@@PAX@std@@@std@@@std@@QAE@XZ ; std::_Alloc_construct_ptr<std::allocator<std::_Tree_node<std::pair<int const ,unsigned long>,void *> > >::~_Alloc_construct_ptr<std::allocator<std::_Tree_node<std::pair<int const ,unsigned long>,void *> > >
__unwindfunclet$?LoadScript@CCampusHelper@@QAEXXZ$8:
  00010	8d 4d e0	 lea	 ecx, DWORD PTR $T8[ebp]
  00013	e9 00 00 00 00	 jmp	 ??1?$_Alloc_construct_ptr@V?$allocator@U?$_Tree_node@U?$pair@$$CBHUREWARD@CCampusHelper@@@std@@PAX@std@@@std@@@std@@QAE@XZ ; std::_Alloc_construct_ptr<std::allocator<std::_Tree_node<std::pair<int const ,CCampusHelper::REWARD>,void *> > >::~_Alloc_construct_ptr<std::allocator<std::_Tree_node<std::pair<int const ,CCampusHelper::REWARD>,void *> > >
  00018	cc		 int	 3
  00019	cc		 int	 3
  0001a	cc		 int	 3
  0001b	cc		 int	 3
  0001c	cc		 int	 3
__ehhandler$?LoadScript@CCampusHelper@@QAEXXZ:
  0001d	90		 npad	 1
  0001e	90		 npad	 1
  0001f	8b 54 24 08	 mov	 edx, DWORD PTR [esp+8]
  00023	8d 42 0c	 lea	 eax, DWORD PTR [edx+12]
  00026	8b 4a ac	 mov	 ecx, DWORD PTR [edx-84]
  00029	33 c8		 xor	 ecx, eax
  0002b	e8 00 00 00 00	 call	 @__security_check_cookie@4
  00030	b8 00 00 00 00	 mov	 eax, OFFSET __ehfuncinfo$?LoadScript@CCampusHelper@@QAEXXZ
  00035	e9 00 00 00 00	 jmp	 ___CxxFrameHandler3
text$x	ENDS
?LoadScript@CCampusHelper@@QAEXXZ ENDP			; CCampusHelper::LoadScript
; Function compile flags: /Ogtp
; File C:\IAGOS\server\v18\Source\Source\WorldServer\CampusHelper.cpp
; File C:\IAGOS\server\v18\Source\Source\WorldServer\CampusHelper.h
; File C:\IAGOS\server\v18\Source\Source\WorldServer\CampusHelper.cpp
; File C:\Program Files\Microsoft Visual Studio\2022\Professional\VC\Tools\MSVC\14.44.35207\include\vector
; File C:\IAGOS\server\v18\Source\Source\WorldServer\CampusHelper.cpp
; File C:\Program Files\Microsoft Visual Studio\2022\Professional\VC\Tools\MSVC\14.44.35207\include\vector
; File C:\IAGOS\server\v18\Source\Source\WorldServer\CampusHelper.cpp
; File C:\IAGOS\server\v18\Source\Source\_Common\Obj.h
; File C:\IAGOS\server\v18\Source\Source\WorldServer\CampusHelper.cpp
; File C:\Program Files\Microsoft Visual Studio\2022\Professional\VC\Tools\MSVC\14.44.35207\include\vector
; File C:\IAGOS\server\v18\Source\Source\WorldServer\CampusHelper.cpp
;	COMDAT ?OnUpdatePlayerData@CCampusHelper@@QAEXKPAU_PlayerData@@@Z
_TEXT	SEGMENT
_vecMember$2 = -24					; size = 12
__$EHRec$ = -12						; size = 12
_idPlayer$ = 8						; size = 4
_pPlayerData$ = 12					; size = 4
?OnUpdatePlayerData@CCampusHelper@@QAEXKPAU_PlayerData@@@Z PROC ; CCampusHelper::OnUpdatePlayerData, COMDAT
; _this$ = ecx

; 179  : {

  00000	55		 push	 ebp
  00001	8b ec		 mov	 ebp, esp
  00003	6a ff		 push	 -1
  00005	68 00 00 00 00	 push	 __ehhandler$?OnUpdatePlayerData@CCampusHelper@@QAEXKPAU_PlayerData@@@Z
  0000a	64 a1 00 00 00
	00		 mov	 eax, DWORD PTR fs:0
  00010	50		 push	 eax
  00011	83 ec 0c	 sub	 esp, 12			; 0000000cH
  00014	53		 push	 ebx
  00015	56		 push	 esi
  00016	57		 push	 edi
  00017	a1 00 00 00 00	 mov	 eax, DWORD PTR ___security_cookie
  0001c	33 c5		 xor	 eax, ebp
  0001e	50		 push	 eax
  0001f	8d 45 f4	 lea	 eax, DWORD PTR __$EHRec$[ebp]
  00022	64 a3 00 00 00
	00		 mov	 DWORD PTR fs:0, eax
  00028	8b f1		 mov	 esi, ecx
; File C:\IAGOS\server\v18\Source\Source\WorldServer\CampusHelper.h

; 45   : 	u_long	GetCampusIdByPlayerId( u_long idPlayer )	{	return m_pCampusMng->GetCampusIdByPlayerId( idPlayer );	}

  0002a	8b 5d 08	 mov	 ebx, DWORD PTR _idPlayer$[ebp]
  0002d	8b 0e		 mov	 ecx, DWORD PTR [esi]
  0002f	53		 push	 ebx
  00030	e8 00 00 00 00	 call	 ?GetCampusIdByPlayerId@CCampusMng@@QAEKK@Z ; CCampusMng::GetCampusIdByPlayerId

; 41   : 	CCampus*	GetCampus( u_long idCampus )	{	return m_pCampusMng->GetCampus( idCampus );	}

  00035	8b 0e		 mov	 ecx, DWORD PTR [esi]
  00037	50		 push	 eax
  00038	e8 00 00 00 00	 call	 ?GetCampus@CCampusMng@@QAEPAVCCampus@@K@Z ; CCampusMng::GetCampus
; File C:\IAGOS\server\v18\Source\Source\WorldServer\CampusHelper.cpp

; 181  : 	if( pCampus )

  0003d	85 c0		 test	 eax, eax
  0003f	74 4e		 je	 SHORT $LN5@OnUpdatePl

; 183  : 		vector<u_long> vecMember = pCampus->GetAllMemberPlayerId();

  00041	8d 4d e8	 lea	 ecx, DWORD PTR _vecMember$2[ebp]
  00044	51		 push	 ecx
  00045	8b c8		 mov	 ecx, eax
  00047	e8 00 00 00 00	 call	 ?GetAllMemberPlayerId@CCampus@@QAE?AV?$vector@KV?$allocator@K@std@@@std@@XZ ; CCampus::GetAllMemberPlayerId
; File C:\Program Files\Microsoft Visual Studio\2022\Professional\VC\Tools\MSVC\14.44.35207\include\vector

; 46   :     _CONSTEXPR20 _Vector_const_iterator(_Tptr _Parg, const _Container_base* _Pvector) noexcept : _Ptr(_Parg) {

  0004c	8b 75 e8	 mov	 esi, DWORD PTR _vecMember$2[ebp]
; File C:\IAGOS\server\v18\Source\Source\WorldServer\CampusHelper.cpp

; 183  : 		vector<u_long> vecMember = pCampus->GetAllMemberPlayerId();

  0004f	c7 45 fc 00 00
	00 00		 mov	 DWORD PTR __$EHRec$[ebp+8], 0
; File C:\Program Files\Microsoft Visual Studio\2022\Professional\VC\Tools\MSVC\14.44.35207\include\vector

; 46   :     _CONSTEXPR20 _Vector_const_iterator(_Tptr _Parg, const _Container_base* _Pvector) noexcept : _Ptr(_Parg) {

  00056	3b 75 ec	 cmp	 esi, DWORD PTR _vecMember$2[ebp+4]
; File C:\IAGOS\server\v18\Source\Source\WorldServer\CampusHelper.cpp

; 184  : 		for( vector<u_long>::iterator it = vecMember.begin(); it != vecMember.end(); ++it )

  00059	74 2c		 je	 SHORT $LN3@OnUpdatePl
  0005b	8b 7d 0c	 mov	 edi, DWORD PTR _pPlayerData$[ebp]
  0005e	66 90		 npad	 2
$LL4@OnUpdatePl:

; 185  : 		{
; 186  : 			CUser* pMember = g_UserMng.GetUserByPlayerID( *it );

  00060	ff 36		 push	 DWORD PTR [esi]
  00062	b9 00 00 00 00	 mov	 ecx, OFFSET ?g_UserMng@@3VCUserMng@@A ; g_UserMng
  00067	e8 00 00 00 00	 call	 ?GetUserByPlayerID@CUserMng@@QAEPAVCUser@@K@Z ; CUserMng::GetUserByPlayerID
; File C:\IAGOS\server\v18\Source\Source\_Common\Obj.h

; 327  : 	return pObj && ( pObj->IsDelete() == FALSE ); 

  0006c	85 c0		 test	 eax, eax
  0006e	74 0f		 je	 SHORT $LN2@OnUpdatePl

; 180  : 	BOOL			IsDelete()	{ return (m_dwFlags & OBJ_FLAG_DELETE);  }

  00070	f6 40 04 01	 test	 BYTE PTR [eax+4], 1

; 327  : 	return pObj && ( pObj->IsDelete() == FALSE ); 

  00074	75 09		 jne	 SHORT $LN2@OnUpdatePl
; File C:\IAGOS\server\v18\Source\Source\WorldServer\CampusHelper.cpp

; 188  : 				pMember->AddQueryPlayerData( idPlayer, pPlayerData );

  00076	57		 push	 edi
  00077	53		 push	 ebx
  00078	8b c8		 mov	 ecx, eax
  0007a	e8 00 00 00 00	 call	 ?AddQueryPlayerData@CUser@@QAEXKPAU_PlayerData@@@Z ; CUser::AddQueryPlayerData
$LN2@OnUpdatePl:
; File C:\Program Files\Microsoft Visual Studio\2022\Professional\VC\Tools\MSVC\14.44.35207\include\vector

; 82   :         ++_Ptr;

  0007f	83 c6 04	 add	 esi, 4

; 176  :         return !(*this == _Right);

  00082	3b 75 ec	 cmp	 esi, DWORD PTR _vecMember$2[ebp+4]
; File C:\IAGOS\server\v18\Source\Source\WorldServer\CampusHelper.cpp

; 184  : 		for( vector<u_long>::iterator it = vecMember.begin(); it != vecMember.end(); ++it )

  00085	75 d9		 jne	 SHORT $LL4@OnUpdatePl
$LN3@OnUpdatePl:

; 189  : 		}
; 190  : 	}

  00087	8d 4d e8	 lea	 ecx, DWORD PTR _vecMember$2[ebp]
  0008a	e8 00 00 00 00	 call	 ??1?$vector@KV?$allocator@K@std@@@std@@QAE@XZ ; std::vector<unsigned long,std::allocator<unsigned long> >::~vector<unsigned long,std::allocator<unsigned long> >
$LN5@OnUpdatePl:

; 191  : }

  0008f	8b 4d f4	 mov	 ecx, DWORD PTR __$EHRec$[ebp]
  00092	64 89 0d 00 00
	00 00		 mov	 DWORD PTR fs:0, ecx
  00099	59		 pop	 ecx
  0009a	5f		 pop	 edi
  0009b	5e		 pop	 esi
  0009c	5b		 pop	 ebx
  0009d	8b e5		 mov	 esp, ebp
  0009f	5d		 pop	 ebp
  000a0	c2 08 00	 ret	 8
_TEXT	ENDS
;	COMDAT text$x
text$x	SEGMENT
__unwindfunclet$?OnUpdatePlayerData@CCampusHelper@@QAEXKPAU_PlayerData@@@Z$0:
  00000	8d 4d e8	 lea	 ecx, DWORD PTR _vecMember$2[ebp]
  00003	e9 00 00 00 00	 jmp	 ??1?$vector@KV?$allocator@K@std@@@std@@QAE@XZ ; std::vector<unsigned long,std::allocator<unsigned long> >::~vector<unsigned long,std::allocator<unsigned long> >
  00008	cc		 int	 3
  00009	cc		 int	 3
  0000a	cc		 int	 3
  0000b	cc		 int	 3
  0000c	cc		 int	 3
__ehhandler$?OnUpdatePlayerData@CCampusHelper@@QAEXKPAU_PlayerData@@@Z:
  0000d	90		 npad	 1
  0000e	90		 npad	 1
  0000f	8b 54 24 08	 mov	 edx, DWORD PTR [esp+8]
  00013	8d 42 0c	 lea	 eax, DWORD PTR [edx+12]
  00016	8b 4a e4	 mov	 ecx, DWORD PTR [edx-28]
  00019	33 c8		 xor	 ecx, eax
  0001b	e8 00 00 00 00	 call	 @__security_check_cookie@4
  00020	b8 00 00 00 00	 mov	 eax, OFFSET __ehfuncinfo$?OnUpdatePlayerData@CCampusHelper@@QAEXKPAU_PlayerData@@@Z
  00025	e9 00 00 00 00	 jmp	 ___CxxFrameHandler3
text$x	ENDS
?OnUpdatePlayerData@CCampusHelper@@QAEXKPAU_PlayerData@@@Z ENDP ; CCampusHelper::OnUpdatePlayerData
; Function compile flags: /Ogtp
; File C:\IAGOS\server\v18\Source\Source\WorldServer\CampusHelper.cpp
; File C:\IAGOS\server\v18\Source\Source\_Common\Obj.h
; File C:\IAGOS\server\v18\Source\Source\WorldServer\CampusHelper.cpp
;	COMDAT ?OnUpdateCampusPoint@CCampusHelper@@QAEXAAVCAr@@@Z
_TEXT	SEGMENT
_nCampusPoint$ = -8					; size = 4
_idPlayer$ = -4						; size = 4
_ar$ = 8						; size = 4
?OnUpdateCampusPoint@CCampusHelper@@QAEXAAVCAr@@@Z PROC	; CCampusHelper::OnUpdateCampusPoint, COMDAT
; _this$ = ecx

; 164  : {

  00000	55		 push	 ebp
  00001	8b ec		 mov	 ebp, esp
  00003	83 ec 08	 sub	 esp, 8

; 165  : 	u_long idPlayer;
; 166  : 	int nCampusPoint;
; 167  : 	ar >> idPlayer >> nCampusPoint;

  00006	8b 4d 08	 mov	 ecx, DWORD PTR _ar$[ebp]
  00009	8d 45 f8	 lea	 eax, DWORD PTR _nCampusPoint$[ebp]
  0000c	56		 push	 esi
  0000d	50		 push	 eax
  0000e	8d 45 fc	 lea	 eax, DWORD PTR _idPlayer$[ebp]
  00011	50		 push	 eax
  00012	e8 00 00 00 00	 call	 ??$?5K@CAr@@QAEAAV0@AAK@Z ; CAr::operator>><unsigned long>
  00017	8b c8		 mov	 ecx, eax
  00019	e8 00 00 00 00	 call	 ??$?5H@CAr@@QAEAAV0@AAH@Z ; CAr::operator>><int>

; 168  : 	CUser* pUser = g_UserMng.GetUserByPlayerID( idPlayer );

  0001e	ff 75 fc	 push	 DWORD PTR _idPlayer$[ebp]
  00021	b9 00 00 00 00	 mov	 ecx, OFFSET ?g_UserMng@@3VCUserMng@@A ; g_UserMng
  00026	e8 00 00 00 00	 call	 ?GetUserByPlayerID@CUserMng@@QAEPAVCUser@@K@Z ; CUserMng::GetUserByPlayerID
  0002b	8b f0		 mov	 esi, eax
; File C:\IAGOS\server\v18\Source\Source\_Common\Obj.h

; 327  : 	return pObj && ( pObj->IsDelete() == FALSE ); 

  0002d	85 f6		 test	 esi, esi
  0002f	74 2a		 je	 SHORT $LN3@OnUpdateCa

; 180  : 	BOOL			IsDelete()	{ return (m_dwFlags & OBJ_FLAG_DELETE);  }

  00031	f6 46 04 01	 test	 BYTE PTR [esi+4], 1

; 327  : 	return pObj && ( pObj->IsDelete() == FALSE ); 

  00035	75 24		 jne	 SHORT $LN3@OnUpdateCa
; File C:\IAGOS\server\v18\Source\Source\WorldServer\CampusHelper.cpp

; 171  : 		pUser->SetCampusPoint( nCampusPoint );

  00037	8b 4d f8	 mov	 ecx, DWORD PTR _nCampusPoint$[ebp]
  0003a	89 8e d0 14 00
	00		 mov	 DWORD PTR [esi+5328], ecx

; 172  : 		pUser->AddUpdateCampusPoint( nCampusPoint );

  00040	51		 push	 ecx
  00041	8b ce		 mov	 ecx, esi
  00043	e8 00 00 00 00	 call	 ?AddUpdateCampusPoint@CUser@@QAEXH@Z ; CUser::AddUpdateCampusPoint

; 173  : 		if( pUser->GetCampusPoint() > 0 )

  00048	83 be d0 14 00
	00 00		 cmp	 DWORD PTR [esi+5328], 0
  0004f	7e 0a		 jle	 SHORT $LN3@OnUpdateCa

; 174  : 			pUser->SetCampusTick( NULL_ID );

  00051	c7 86 ac 8f 00
	00 ff ff ff ff	 mov	 DWORD PTR [esi+36780], -1
$LN3@OnUpdateCa:
  0005b	5e		 pop	 esi

; 175  : 	}
; 176  : }

  0005c	8b e5		 mov	 esp, ebp
  0005e	5d		 pop	 ebp
  0005f	c2 04 00	 ret	 4
?OnUpdateCampusPoint@CCampusHelper@@QAEXAAVCAr@@@Z ENDP	; CCampusHelper::OnUpdateCampusPoint
_TEXT	ENDS
; Function compile flags: /Ogtp
; File C:\IAGOS\server\v18\Source\Source\WorldServer\CampusHelper.cpp
; File C:\IAGOS\server\v18\Source\Source\WorldServer\CampusHelper.h
; File C:\IAGOS\server\v18\Source\Source\WorldServer\CampusHelper.cpp
; File C:\IAGOS\server\v18\Source\Source\_Common\Campus.h
; File C:\IAGOS\server\v18\Source\Source\WorldServer\CampusHelper.cpp
; File C:\IAGOS\server\v18\Source\Source\WorldServer\CampusHelper.h
; File C:\IAGOS\server\v18\Source\Source\WorldServer\CampusHelper.cpp
; File C:\IAGOS\server\v18\Source\Source\_Common\Campus.h
; File C:\IAGOS\server\v18\Source\Source\WorldServer\CampusHelper.h
; File C:\IAGOS\server\v18\Source\Source\_Common\Campus.h
; File C:\IAGOS\server\v18\Source\Source\WorldServer\CampusHelper.cpp
; File C:\IAGOS\server\v18\Source\Source\_Common\Obj.h
; File C:\IAGOS\server\v18\Source\Source\WorldServer\CampusHelper.cpp
; File C:\IAGOS\server\v18\Source\Source\_Common\Mover.h
; File C:\IAGOS\server\v18\Source\Source\WorldServer\CampusHelper.cpp
; File C:\IAGOS\server\v18\Source\Source\_Common\Obj.h
; File C:\IAGOS\server\v18\Source\Source\WorldServer\CampusHelper.cpp
; File C:\IAGOS\server\v18\Source\Source\WorldServer\CampusHelper.h
; File C:\IAGOS\server\v18\Source\Source\WorldServer\CampusHelper.cpp
;	COMDAT ?OnRemoveCampusMember@CCampusHelper@@QAEXAAVCAr@@@Z
_TEXT	SEGMENT
_idPlayer$ = -8						; size = 4
_idCampus$ = -4						; size = 4
_ar$ = 8						; size = 4
_idPlayer$ = 8						; size = 4
_pPupil$1$ = 8						; size = 4
_pMaster$1$ = 8						; size = 4
?OnRemoveCampusMember@CCampusHelper@@QAEXAAVCAr@@@Z PROC ; CCampusHelper::OnRemoveCampusMember, COMDAT
; _this$ = ecx

; 118  : {

  00000	55		 push	 ebp
  00001	8b ec		 mov	 ebp, esp
  00003	83 ec 08	 sub	 esp, 8
  00006	56		 push	 esi
  00007	57		 push	 edi

; 119  : 	u_long idCampus, idPlayer;
; 120  : 	ar >> idCampus >> idPlayer;

  00008	8d 45 f8	 lea	 eax, DWORD PTR _idPlayer$[ebp]
  0000b	8b f9		 mov	 edi, ecx
  0000d	8b 4d 08	 mov	 ecx, DWORD PTR _ar$[ebp]
  00010	50		 push	 eax
  00011	8d 45 fc	 lea	 eax, DWORD PTR _idCampus$[ebp]
  00014	50		 push	 eax
  00015	e8 00 00 00 00	 call	 ??$?5K@CAr@@QAEAAV0@AAK@Z ; CAr::operator>><unsigned long>
  0001a	8b c8		 mov	 ecx, eax
  0001c	e8 00 00 00 00	 call	 ??$?5K@CAr@@QAEAAV0@AAK@Z ; CAr::operator>><unsigned long>
; File C:\IAGOS\server\v18\Source\Source\WorldServer\CampusHelper.h

; 41   : 	CCampus*	GetCampus( u_long idCampus )	{	return m_pCampusMng->GetCampus( idCampus );	}

  00021	ff 75 fc	 push	 DWORD PTR _idCampus$[ebp]
  00024	8b 0f		 mov	 ecx, DWORD PTR [edi]
  00026	e8 00 00 00 00	 call	 ?GetCampus@CCampusMng@@QAEPAVCCampus@@K@Z ; CCampusMng::GetCampus
; File C:\IAGOS\server\v18\Source\Source\WorldServer\CampusHelper.cpp

; 122  : 	CCampus* pCampus = GetCampus( idCampus );

  0002b	8b f0		 mov	 esi, eax

; 123  : 	if( pCampus && pCampus->IsMember( idPlayer ) )

  0002d	85 f6		 test	 esi, esi
  0002f	0f 84 15 01 00
	00		 je	 $LN10@OnRemoveCa
  00035	53		 push	 ebx
  00036	8b 5d f8	 mov	 ebx, DWORD PTR _idPlayer$[ebp]
  00039	8b ce		 mov	 ecx, esi
  0003b	53		 push	 ebx
  0003c	e8 00 00 00 00	 call	 ?IsMember@CCampus@@QAEHK@Z ; CCampus::IsMember
  00041	85 c0		 test	 eax, eax
  00043	0f 84 00 01 00
	00		 je	 $LN50@OnRemoveCa
; File C:\IAGOS\server\v18\Source\Source\_Common\Campus.h

; 54   : 	BOOL	IsMaster( u_long idPlayer )		{	return ( idPlayer == m_idMaster );	}

  00049	3b 5e 04	 cmp	 ebx, DWORD PTR [esi+4]
; File C:\IAGOS\server\v18\Source\Source\WorldServer\CampusHelper.cpp

; 125  : 		if( pCampus->IsMaster( idPlayer ) )

  0004c	75 1c		 jne	 SHORT $LN3@OnRemoveCa

; 126  : 		{
; 127  : 			AddAllMemberRemoveCampus( pCampus );

  0004e	56		 push	 esi
  0004f	8b cf		 mov	 ecx, edi
  00051	e8 00 00 00 00	 call	 ?AddAllMemberRemoveCampus@CCampusHelper@@QAEXPAVCCampus@@@Z ; CCampusHelper::AddAllMemberRemoveCampus
; File C:\IAGOS\server\v18\Source\Source\WorldServer\CampusHelper.h

; 39   : 	BOOL	RemoveCampus( u_long idCampus )	{	return m_pCampusMng->RemoveCampus( idCampus );	}

  00056	8b 4d fc	 mov	 ecx, DWORD PTR _idCampus$[ebp]
  00059	51		 push	 ecx
  0005a	8b 0f		 mov	 ecx, DWORD PTR [edi]
  0005c	e8 00 00 00 00	 call	 ?RemoveCampus@CCampusMng@@QAEHK@Z ; CCampusMng::RemoveCampus
  00061	5b		 pop	 ebx
  00062	5f		 pop	 edi
; File C:\IAGOS\server\v18\Source\Source\WorldServer\CampusHelper.cpp

; 161  : }

  00063	5e		 pop	 esi
  00064	8b e5		 mov	 esp, ebp
  00066	5d		 pop	 ebp
  00067	c2 04 00	 ret	 4
$LN3@OnRemoveCa:

; 128  : 			RemoveCampus( idCampus );
; 129  : 		}
; 130  : 		else
; 131  : 		{
; 132  : 			pCampus->RemoveMember( idPlayer );

  0006a	53		 push	 ebx
  0006b	8b ce		 mov	 ecx, esi
  0006d	e8 00 00 00 00	 call	 ?RemoveMember@CCampus@@QAEHK@Z ; CCampus::RemoveMember
; File C:\IAGOS\server\v18\Source\Source\_Common\Campus.h

; 102  : 	void	RemovePlayerId2CampusId( u_long idPlayer )	{	m_mapPid2Cid.erase( idPlayer );	}

  00072	8b 0f		 mov	 ecx, DWORD PTR [edi]
  00074	8d 45 08	 lea	 eax, DWORD PTR _idPlayer$[ebp]
  00077	50		 push	 eax
  00078	83 c1 0c	 add	 ecx, 12			; 0000000cH
; File C:\IAGOS\server\v18\Source\Source\WorldServer\CampusHelper.h

; 44   : 	void	RemovePlayerId2CampusId( u_long idPlayer )	{	m_pCampusMng->RemovePlayerId2CampusId( idPlayer );	}

  0007b	89 5d 08	 mov	 DWORD PTR _idPlayer$[ebp], ebx
; File C:\IAGOS\server\v18\Source\Source\_Common\Campus.h

; 102  : 	void	RemovePlayerId2CampusId( u_long idPlayer )	{	m_mapPid2Cid.erase( idPlayer );	}

  0007e	e8 00 00 00 00	 call	 ?erase@?$_Tree@V?$_Tmap_traits@KKU?$less@K@std@@V?$allocator@U?$pair@$$CBKK@std@@@2@$0A@@std@@@std@@QAEIABK@Z ; std::_Tree<std::_Tmap_traits<unsigned long,unsigned long,std::less<unsigned long>,std::allocator<std::pair<unsigned long const ,unsigned long> >,0> >::erase
; File C:\IAGOS\server\v18\Source\Source\WorldServer\CampusHelper.cpp

; 134  : 			CUser* pPupil = g_UserMng.GetUserByPlayerID( idPlayer );

  00083	53		 push	 ebx
  00084	b9 00 00 00 00	 mov	 ecx, OFFSET ?g_UserMng@@3VCUserMng@@A ; g_UserMng
  00089	e8 00 00 00 00	 call	 ?GetUserByPlayerID@CUserMng@@QAEPAVCUser@@K@Z ; CUserMng::GetUserByPlayerID
  0008e	89 45 08	 mov	 DWORD PTR _pPupil$1$[ebp], eax
; File C:\IAGOS\server\v18\Source\Source\_Common\Obj.h

; 327  : 	return pObj && ( pObj->IsDelete() == FALSE ); 

  00091	85 c0		 test	 eax, eax
  00093	74 4a		 je	 SHORT $LN6@OnRemoveCa

; 180  : 	BOOL			IsDelete()	{ return (m_dwFlags & OBJ_FLAG_DELETE);  }

  00095	f6 40 04 01	 test	 BYTE PTR [eax+4], 1

; 327  : 	return pObj && ( pObj->IsDelete() == FALSE ); 

  00099	75 44		 jne	 SHORT $LN6@OnRemoveCa
; File C:\IAGOS\server\v18\Source\Source\WorldServer\CampusHelper.cpp

; 137  : 				pPupil->AddRemoveCampus( idCampus );

  0009b	8b 4d fc	 mov	 ecx, DWORD PTR _idCampus$[ebp]
  0009e	51		 push	 ecx
  0009f	8b c8		 mov	 ecx, eax
  000a1	e8 00 00 00 00	 call	 ?AddRemoveCampus@CUser@@QAEXK@Z ; CUser::AddRemoveCampus
; File C:\IAGOS\server\v18\Source\Source\_Common\Mover.h

; 941  : 	void	SetCampusId( u_long idCampus )		{	m_idCampus = idCampus;	}

  000a6	8b 45 08	 mov	 eax, DWORD PTR _pPupil$1$[ebp]
  000a9	c7 80 cc 14 00
	00 00 00 00 00	 mov	 DWORD PTR [eax+5324], 0
; File C:\IAGOS\server\v18\Source\Source\WorldServer\CampusHelper.cpp

; 139  : 				PlayerData* pPlayerData = CPlayerDataCenter::GetInstance()->GetPlayerData( pCampus->GetMaster() );

  000b3	ff 76 04	 push	 DWORD PTR [esi+4]
  000b6	e8 00 00 00 00	 call	 ?GetInstance@CPlayerDataCenter@@SAPAV1@XZ ; CPlayerDataCenter::GetInstance
  000bb	8b c8		 mov	 ecx, eax
  000bd	e8 00 00 00 00	 call	 ?GetPlayerData@CPlayerDataCenter@@QAEPAU_PlayerData@@K@Z ; CPlayerDataCenter::GetPlayerData

; 140  : 				if( pPlayerData )

  000c2	85 c0		 test	 eax, eax
  000c4	74 19		 je	 SHORT $LN6@OnRemoveCa

; 141  : 					pPupil->AddDefinedText( TID_GAME_TS_BREAK, "\"%s\"", pPlayerData->szPlayer );

  000c6	83 c0 14	 add	 eax, 20			; 00000014H
  000c9	50		 push	 eax
  000ca	68 00 00 00 00	 push	 OFFSET ??_C@_04OEDFLLKD@?$CC?$CFs?$CC@
  000cf	68 97 10 00 00	 push	 4247			; 00001097H
  000d4	ff 75 08	 push	 DWORD PTR _pPupil$1$[ebp]
  000d7	e8 00 00 00 00	 call	 ?AddDefinedText@CUser@@QAAXHPBDZZ ; CUser::AddDefinedText
  000dc	83 c4 10	 add	 esp, 16			; 00000010H
$LN6@OnRemoveCa:

; 142  : 			}
; 143  : 
; 144  : 			CUser* pMaster = g_UserMng.GetUserByPlayerID( pCampus->GetMaster() );

  000df	ff 76 04	 push	 DWORD PTR [esi+4]
  000e2	b9 00 00 00 00	 mov	 ecx, OFFSET ?g_UserMng@@3VCUserMng@@A ; g_UserMng
  000e7	e8 00 00 00 00	 call	 ?GetUserByPlayerID@CUserMng@@QAEPAVCUser@@K@Z ; CUserMng::GetUserByPlayerID
  000ec	89 45 08	 mov	 DWORD PTR _pMaster$1$[ebp], eax
; File C:\IAGOS\server\v18\Source\Source\_Common\Obj.h

; 327  : 	return pObj && ( pObj->IsDelete() == FALSE ); 

  000ef	85 c0		 test	 eax, eax
  000f1	74 30		 je	 SHORT $LN8@OnRemoveCa

; 180  : 	BOOL			IsDelete()	{ return (m_dwFlags & OBJ_FLAG_DELETE);  }

  000f3	f6 40 04 01	 test	 BYTE PTR [eax+4], 1

; 327  : 	return pObj && ( pObj->IsDelete() == FALSE ); 

  000f7	75 2a		 jne	 SHORT $LN8@OnRemoveCa
; File C:\IAGOS\server\v18\Source\Source\WorldServer\CampusHelper.cpp

; 147  : 				PlayerData* pPlayerData = CPlayerDataCenter::GetInstance()->GetPlayerData( idPlayer );

  000f9	53		 push	 ebx
  000fa	e8 00 00 00 00	 call	 ?GetInstance@CPlayerDataCenter@@SAPAV1@XZ ; CPlayerDataCenter::GetInstance
  000ff	8b c8		 mov	 ecx, eax
  00101	e8 00 00 00 00	 call	 ?GetPlayerData@CPlayerDataCenter@@QAEPAU_PlayerData@@K@Z ; CPlayerDataCenter::GetPlayerData

; 148  : 				if( pPlayerData )

  00106	85 c0		 test	 eax, eax
  00108	74 19		 je	 SHORT $LN8@OnRemoveCa

; 149  : 					pMaster->AddDefinedText( TID_GAME_TS_BREAK, "\"%s\"", pPlayerData->szPlayer );

  0010a	83 c0 14	 add	 eax, 20			; 00000014H
  0010d	50		 push	 eax
  0010e	68 00 00 00 00	 push	 OFFSET ??_C@_04OEDFLLKD@?$CC?$CFs?$CC@
  00113	68 97 10 00 00	 push	 4247			; 00001097H
  00118	ff 75 08	 push	 DWORD PTR _pMaster$1$[ebp]
  0011b	e8 00 00 00 00	 call	 ?AddDefinedText@CUser@@QAAXHPBDZZ ; CUser::AddDefinedText
  00120	83 c4 10	 add	 esp, 16			; 00000010H
$LN8@OnRemoveCa:

; 150  : 			}
; 151  : 
; 152  : 			if( pCampus->GetMemberSize() < 2 )

  00123	83 7e 0c 02	 cmp	 DWORD PTR [esi+12], 2
  00127	8b cf		 mov	 ecx, edi
  00129	56		 push	 esi
  0012a	7d 18		 jge	 SHORT $LN9@OnRemoveCa

; 153  : 			{
; 154  : 				AddAllMemberRemoveCampus( pCampus );

  0012c	e8 00 00 00 00	 call	 ?AddAllMemberRemoveCampus@CCampusHelper@@QAEXPAVCCampus@@@Z ; CCampusHelper::AddAllMemberRemoveCampus
; File C:\IAGOS\server\v18\Source\Source\WorldServer\CampusHelper.h

; 39   : 	BOOL	RemoveCampus( u_long idCampus )	{	return m_pCampusMng->RemoveCampus( idCampus );	}

  00131	ff 75 fc	 push	 DWORD PTR _idCampus$[ebp]
  00134	8b 0f		 mov	 ecx, DWORD PTR [edi]
  00136	e8 00 00 00 00	 call	 ?RemoveCampus@CCampusMng@@QAEHK@Z ; CCampusMng::RemoveCampus
  0013b	5b		 pop	 ebx
  0013c	5f		 pop	 edi
; File C:\IAGOS\server\v18\Source\Source\WorldServer\CampusHelper.cpp

; 161  : }

  0013d	5e		 pop	 esi
  0013e	8b e5		 mov	 esp, ebp
  00140	5d		 pop	 ebp
  00141	c2 04 00	 ret	 4
$LN9@OnRemoveCa:

; 155  : 				RemoveCampus( idCampus );
; 156  : 			}
; 157  : 			else
; 158  : 				AddAllMemberUpdateCampus( pCampus );

  00144	e8 00 00 00 00	 call	 ?AddAllMemberUpdateCampus@CCampusHelper@@QAEXPAVCCampus@@@Z ; CCampusHelper::AddAllMemberUpdateCampus
$LN50@OnRemoveCa:
  00149	5b		 pop	 ebx
$LN10@OnRemoveCa:
  0014a	5f		 pop	 edi

; 161  : }

  0014b	5e		 pop	 esi
  0014c	8b e5		 mov	 esp, ebp
  0014e	5d		 pop	 ebp
  0014f	c2 04 00	 ret	 4
?OnRemoveCampusMember@CCampusHelper@@QAEXAAVCAr@@@Z ENDP ; CCampusHelper::OnRemoveCampusMember
_TEXT	ENDS
; Function compile flags: /Ogtp
; File C:\IAGOS\server\v18\Source\Source\WorldServer\CampusHelper.cpp
; File C:\IAGOS\server\v18\Source\Source\WorldServer\CampusHelper.h
; File C:\IAGOS\server\v18\Source\Source\WorldServer\CampusHelper.cpp
; File C:\IAGOS\server\v18\Source\Source\WorldServer\CampusHelper.h
; File C:\IAGOS\server\v18\Source\Source\WorldServer\CampusHelper.cpp
; File C:\IAGOS\server\v18\Source\Source\_Common\Campus.h
; File C:\IAGOS\server\v18\Source\Source\WorldServer\CampusHelper.cpp
; File C:\IAGOS\server\v18\Source\Source\WorldServer\CampusHelper.h
; File C:\IAGOS\server\v18\Source\Source\WorldServer\CampusHelper.cpp
; File C:\IAGOS\server\v18\Source\Source\_Common\Obj.h
; File C:\IAGOS\server\v18\Source\Source\WorldServer\CampusHelper.cpp
; File C:\IAGOS\server\v18\Source\Source\_Common\Obj.h
; File C:\IAGOS\server\v18\Source\Source\WorldServer\CampusHelper.cpp
; File C:\IAGOS\server\v18\Source\Source\WorldServer\CampusHelper.h
; File C:\IAGOS\server\v18\Source\Source\WorldServer\CampusHelper.cpp
; File C:\IAGOS\server\v18\Source\Source\WorldServer\CampusHelper.h
; File C:\IAGOS\server\v18\Source\Source\WorldServer\CampusHelper.cpp
; File C:\IAGOS\server\v18\Source\Source\WorldServer\CampusHelper.h
; File C:\IAGOS\server\v18\Source\Source\WorldServer\CampusHelper.cpp
; File C:\IAGOS\server\v18\Source\Source\WorldServer\CampusHelper.h
; File C:\IAGOS\server\v18\Source\Source\WorldServer\CampusHelper.cpp
; File C:\IAGOS\server\v18\Source\Source\WorldServer\CampusHelper.h
; File C:\IAGOS\server\v18\Source\Source\WorldServer\CampusHelper.cpp
; File C:\IAGOS\server\v18\Source\Source\_Common\Obj.h
; File C:\IAGOS\server\v18\Source\Source\WorldServer\CampusHelper.cpp
; File C:\IAGOS\server\v18\Source\Source\_Common\Obj.h
; File C:\IAGOS\server\v18\Source\Source\WorldServer\CampusHelper.cpp
; File C:\IAGOS\server\v18\Source\Source\WorldServer\CampusHelper.h
; File C:\IAGOS\server\v18\Source\Source\WorldServer\CampusHelper.cpp
;	COMDAT ?OnAddCampusMember@CCampusHelper@@QAEXAAVCAr@@@Z
_TEXT	SEGMENT
$T2 = -32						; size = 4
$T3 = -32						; size = 4
_idCampus$ = -28					; size = 4
_idPupil$ = -24						; size = 4
_idMaster$ = -20					; size = 4
_this$1$ = -16						; size = 4
__$EHRec$ = -12						; size = 12
_ar$ = 8						; size = 4
$T4 = 8							; size = 4
$T5 = 8							; size = 4
$T6 = 8							; size = 4
$T7 = 8							; size = 4
$T8 = 8							; size = 4
?OnAddCampusMember@CCampusHelper@@QAEXAAVCAr@@@Z PROC	; CCampusHelper::OnAddCampusMember, COMDAT
; _this$ = ecx

; 44   : {

  00000	55		 push	 ebp
  00001	8b ec		 mov	 ebp, esp
  00003	6a ff		 push	 -1
  00005	68 00 00 00 00	 push	 __ehhandler$?OnAddCampusMember@CCampusHelper@@QAEXAAVCAr@@@Z
  0000a	64 a1 00 00 00
	00		 mov	 eax, DWORD PTR fs:0
  00010	50		 push	 eax
  00011	83 ec 14	 sub	 esp, 20			; 00000014H
  00014	53		 push	 ebx
  00015	56		 push	 esi
  00016	57		 push	 edi
  00017	a1 00 00 00 00	 mov	 eax, DWORD PTR ___security_cookie
  0001c	33 c5		 xor	 eax, ebp
  0001e	50		 push	 eax
  0001f	8d 45 f4	 lea	 eax, DWORD PTR __$EHRec$[ebp]
  00022	64 a3 00 00 00
	00		 mov	 DWORD PTR fs:0, eax
  00028	8b f1		 mov	 esi, ecx
  0002a	89 75 f0	 mov	 DWORD PTR _this$1$[ebp], esi

; 45   : 	u_long idCampus, idMaster, idPupil;
; 46   : 	ar >> idCampus >> idMaster >> idPupil;

  0002d	8b 4d 08	 mov	 ecx, DWORD PTR _ar$[ebp]
  00030	8d 45 e8	 lea	 eax, DWORD PTR _idPupil$[ebp]
  00033	50		 push	 eax
  00034	8d 45 ec	 lea	 eax, DWORD PTR _idMaster$[ebp]
  00037	50		 push	 eax
  00038	8d 45 e4	 lea	 eax, DWORD PTR _idCampus$[ebp]
  0003b	50		 push	 eax
  0003c	e8 00 00 00 00	 call	 ??$?5K@CAr@@QAEAAV0@AAK@Z ; CAr::operator>><unsigned long>
  00041	8b c8		 mov	 ecx, eax
  00043	e8 00 00 00 00	 call	 ??$?5K@CAr@@QAEAAV0@AAK@Z ; CAr::operator>><unsigned long>
  00048	8b c8		 mov	 ecx, eax
  0004a	e8 00 00 00 00	 call	 ??$?5K@CAr@@QAEAAV0@AAK@Z ; CAr::operator>><unsigned long>

; 47   : 	
; 48   : 	CUser* pMaster = g_UserMng.GetUserByPlayerID( idMaster );

  0004f	8b 55 ec	 mov	 edx, DWORD PTR _idMaster$[ebp]
  00052	b9 00 00 00 00	 mov	 ecx, OFFSET ?g_UserMng@@3VCUserMng@@A ; g_UserMng
  00057	52		 push	 edx
  00058	e8 00 00 00 00	 call	 ?GetUserByPlayerID@CUserMng@@QAEPAVCUser@@K@Z ; CUserMng::GetUserByPlayerID

; 49   : 	CUser* pPupil = g_UserMng.GetUserByPlayerID( idPupil );

  0005d	ff 75 e8	 push	 DWORD PTR _idPupil$[ebp]
  00060	b9 00 00 00 00	 mov	 ecx, OFFSET ?g_UserMng@@3VCUserMng@@A ; g_UserMng
  00065	8b d8		 mov	 ebx, eax
  00067	e8 00 00 00 00	 call	 ?GetUserByPlayerID@CUserMng@@QAEPAVCUser@@K@Z ; CUserMng::GetUserByPlayerID
; File C:\IAGOS\server\v18\Source\Source\WorldServer\CampusHelper.h

; 41   : 	CCampus*	GetCampus( u_long idCampus )	{	return m_pCampusMng->GetCampus( idCampus );	}

  0006c	ff 75 e4	 push	 DWORD PTR _idCampus$[ebp]
  0006f	8b 0e		 mov	 ecx, DWORD PTR [esi]
; File C:\IAGOS\server\v18\Source\Source\WorldServer\CampusHelper.cpp

; 49   : 	CUser* pPupil = g_UserMng.GetUserByPlayerID( idPupil );

  00071	8b f8		 mov	 edi, eax
; File C:\IAGOS\server\v18\Source\Source\WorldServer\CampusHelper.h

; 41   : 	CCampus*	GetCampus( u_long idCampus )	{	return m_pCampusMng->GetCampus( idCampus );	}

  00073	e8 00 00 00 00	 call	 ?GetCampus@CCampusMng@@QAEPAVCCampus@@K@Z ; CCampusMng::GetCampus
; File C:\IAGOS\server\v18\Source\Source\WorldServer\CampusHelper.cpp

; 51   : 	CCampus* pCampus = GetCampus( idCampus );

  00078	8b f0		 mov	 esi, eax

; 52   : 	if( pCampus )

  0007a	85 f6		 test	 esi, esi
  0007c	0f 84 11 01 00
	00		 je	 $LN2@OnAddCampu
; File C:\IAGOS\server\v18\Source\Source\_Common\Campus.h

; 54   : 	BOOL	IsMaster( u_long idPlayer )		{	return ( idPlayer == m_idMaster );	}

  00082	8b 45 ec	 mov	 eax, DWORD PTR _idMaster$[ebp]
  00085	3b 46 04	 cmp	 eax, DWORD PTR [esi+4]
; File C:\IAGOS\server\v18\Source\Source\WorldServer\CampusHelper.cpp

; 54   : 		if( pCampus->IsMaster( idMaster ) )

  00088	0f 85 b2 00 00
	00		 jne	 $LN12@OnAddCampu

; 55   : 		{
; 56   : 			CCampusMember* pCMPupil = new CCampusMember;

  0008e	6a 08		 push	 8
  00090	e8 00 00 00 00	 call	 ??2@YAPAXI@Z		; operator new
  00095	83 c4 04	 add	 esp, 4
  00098	89 45 08	 mov	 DWORD PTR $T4[ebp], eax
  0009b	c7 45 fc 00 00
	00 00		 mov	 DWORD PTR __$EHRec$[ebp+8], 0
  000a2	85 c0		 test	 eax, eax
  000a4	74 09		 je	 SHORT $LN18@OnAddCampu
  000a6	8b c8		 mov	 ecx, eax
  000a8	e8 00 00 00 00	 call	 ??0CCampusMember@@QAE@XZ ; CCampusMember::CCampusMember
  000ad	eb 02		 jmp	 SHORT $LN91@OnAddCampu
$LN18@OnAddCampu:
  000af	33 c0		 xor	 eax, eax
$LN91@OnAddCampu:

; 57   : 			pCMPupil->SetLevel( CAMPUS_PUPIL );
; 58   : 			pCMPupil->SetPlayerId( idPupil );

  000b1	8b 55 e8	 mov	 edx, DWORD PTR _idPupil$[ebp]

; 59   : 			if( pCampus->AddMember( pCMPupil ) && AddPlayerId2CampusId( idPupil, pCampus->GetCampusId() ) )

  000b4	8b ce		 mov	 ecx, esi
  000b6	50		 push	 eax
  000b7	89 45 08	 mov	 DWORD PTR $T7[ebp], eax
  000ba	c7 45 fc ff ff
	ff ff		 mov	 DWORD PTR __$EHRec$[ebp+8], -1
  000c1	c7 40 04 02 00
	00 00		 mov	 DWORD PTR [eax+4], 2
  000c8	89 10		 mov	 DWORD PTR [eax], edx
  000ca	e8 00 00 00 00	 call	 ?AddMember@CCampus@@QAEHPAVCCampusMember@@@Z ; CCampus::AddMember
  000cf	85 c0		 test	 eax, eax
  000d1	0f 84 86 00 00
	00		 je	 $LN5@OnAddCampu
; File C:\IAGOS\server\v18\Source\Source\WorldServer\CampusHelper.h

; 43   : 	bool	AddPlayerId2CampusId( u_long idPlayer, u_long idCampus )	{	return m_pCampusMng->AddPlayerId2CampusId( idPlayer, idCampus );	}

  000d7	ff 36		 push	 DWORD PTR [esi]
  000d9	8b 4d f0	 mov	 ecx, DWORD PTR _this$1$[ebp]
  000dc	ff 75 e8	 push	 DWORD PTR _idPupil$[ebp]
  000df	8b 09		 mov	 ecx, DWORD PTR [ecx]
  000e1	e8 00 00 00 00	 call	 ?AddPlayerId2CampusId@CCampusMng@@QAE_NKK@Z ; CCampusMng::AddPlayerId2CampusId
; File C:\IAGOS\server\v18\Source\Source\WorldServer\CampusHelper.cpp

; 59   : 			if( pCampus->AddMember( pCMPupil ) && AddPlayerId2CampusId( idPupil, pCampus->GetCampusId() ) )

  000e6	84 c0		 test	 al, al
  000e8	74 73		 je	 SHORT $LN5@OnAddCampu
; File C:\IAGOS\server\v18\Source\Source\_Common\Obj.h

; 327  : 	return pObj && ( pObj->IsDelete() == FALSE ); 

  000ea	85 ff		 test	 edi, edi
  000ec	74 2b		 je	 SHORT $LN7@OnAddCampu

; 180  : 	BOOL			IsDelete()	{ return (m_dwFlags & OBJ_FLAG_DELETE);  }

  000ee	f6 47 04 01	 test	 BYTE PTR [edi+4], 1

; 327  : 	return pObj && ( pObj->IsDelete() == FALSE ); 

  000f2	75 25		 jne	 SHORT $LN7@OnAddCampu
; File C:\IAGOS\server\v18\Source\Source\WorldServer\CampusHelper.cpp

; 64   : 					pPupil->AddDefinedText( TID_GAME_TS_ACCSTUDENT, "\"%s\"", pPupil->GetName() );

  000f4	8b 06		 mov	 eax, DWORD PTR [esi]
  000f6	8b cf		 mov	 ecx, edi
  000f8	6a 00		 push	 0
  000fa	89 87 cc 14 00
	00		 mov	 DWORD PTR [edi+5324], eax
  00100	e8 00 00 00 00	 call	 ?GetName@CMover@@QAEPBDH@Z ; CMover::GetName
  00105	50		 push	 eax
  00106	68 00 00 00 00	 push	 OFFSET ??_C@_04OEDFLLKD@?$CC?$CFs?$CC@
  0010b	68 92 10 00 00	 push	 4242			; 00001092H
  00110	57		 push	 edi
  00111	e8 00 00 00 00	 call	 ?AddDefinedText@CUser@@QAAXHPBDZZ ; CUser::AddDefinedText
  00116	83 c4 10	 add	 esp, 16			; 00000010H
$LN7@OnAddCampu:
; File C:\IAGOS\server\v18\Source\Source\_Common\Obj.h

; 327  : 	return pObj && ( pObj->IsDelete() == FALSE ); 

  00119	85 db		 test	 ebx, ebx
  0011b	74 23		 je	 SHORT $LN12@OnAddCampu

; 180  : 	BOOL			IsDelete()	{ return (m_dwFlags & OBJ_FLAG_DELETE);  }

  0011d	f6 43 04 01	 test	 BYTE PTR [ebx+4], 1

; 327  : 	return pObj && ( pObj->IsDelete() == FALSE ); 

  00121	75 1d		 jne	 SHORT $LN12@OnAddCampu
; File C:\IAGOS\server\v18\Source\Source\WorldServer\CampusHelper.cpp

; 67   : 					pMaster->AddDefinedText( TID_GAME_TS_ACCTEATHER, "\"%s\"", pMaster->GetName() );

  00123	6a 00		 push	 0
  00125	8b cb		 mov	 ecx, ebx
  00127	e8 00 00 00 00	 call	 ?GetName@CMover@@QAEPBDH@Z ; CMover::GetName
  0012c	50		 push	 eax
  0012d	68 00 00 00 00	 push	 OFFSET ??_C@_04OEDFLLKD@?$CC?$CFs?$CC@
  00132	68 8e 10 00 00	 push	 4238			; 0000108eH
  00137	53		 push	 ebx
$LN93@OnAddCampu:

; 107  : 				SAFE_DELETE( pCMMaster );
; 108  : 				SAFE_DELETE( pCMPupil );
; 109  : 				RemoveCampus( idCampus );
; 110  : 				return;
; 111  : 			}
; 112  : 		}
; 113  : 	}
; 114  : 	AddAllMemberUpdateCampus( pCampus );

  00138	e8 00 00 00 00	 call	 ?AddDefinedText@CUser@@QAAXHPBDZZ ; CUser::AddDefinedText
  0013d	83 c4 10	 add	 esp, 16			; 00000010H
$LN12@OnAddCampu:
  00140	8b 4d f0	 mov	 ecx, DWORD PTR _this$1$[ebp]
  00143	56		 push	 esi
  00144	e8 00 00 00 00	 call	 ?AddAllMemberUpdateCampus@CCampusHelper@@QAEXPAVCCampus@@@Z ; CCampusHelper::AddAllMemberUpdateCampus

; 115  : }

  00149	8b 4d f4	 mov	 ecx, DWORD PTR __$EHRec$[ebp]
  0014c	64 89 0d 00 00
	00 00		 mov	 DWORD PTR fs:0, ecx
  00153	59		 pop	 ecx
  00154	5f		 pop	 edi
  00155	5e		 pop	 esi
  00156	5b		 pop	 ebx
  00157	8b e5		 mov	 esp, ebp
  00159	5d		 pop	 ebp
  0015a	c2 04 00	 ret	 4
$LN5@OnAddCampu:

; 68   : 			}
; 69   : 			else
; 70   : 			{
; 71   : 				Error( "Add Pupil failed!" );

  0015d	68 00 00 00 00	 push	 OFFSET ??_C@_0BC@OJIPGJOP@Add?5Pupil?5failed?$CB@
  00162	e8 00 00 00 00	 call	 ?Error@@YAPBDPBDZZ	; Error
  00167	8b 75 08	 mov	 esi, DWORD PTR $T7[ebp]
  0016a	83 c4 04	 add	 esp, 4
  0016d	8b ce		 mov	 ecx, esi
  0016f	e8 00 00 00 00	 call	 ??1CCampusMember@@QAE@XZ ; CCampusMember::~CCampusMember
  00174	6a 08		 push	 8
  00176	56		 push	 esi
  00177	e8 00 00 00 00	 call	 ??3@YAXPAXI@Z		; operator delete
  0017c	83 c4 08	 add	 esp, 8

; 115  : }

  0017f	8b 4d f4	 mov	 ecx, DWORD PTR __$EHRec$[ebp]
  00182	64 89 0d 00 00
	00 00		 mov	 DWORD PTR fs:0, ecx
  00189	59		 pop	 ecx
  0018a	5f		 pop	 edi
  0018b	5e		 pop	 esi
  0018c	5b		 pop	 ebx
  0018d	8b e5		 mov	 esp, ebp
  0018f	5d		 pop	 ebp
  00190	c2 04 00	 ret	 4
$LN2@OnAddCampu:

; 79   : 		pCampus = new CCampus;

  00193	6a 14		 push	 20			; 00000014H
  00195	e8 00 00 00 00	 call	 ??2@YAPAXI@Z		; operator new
  0019a	83 c4 04	 add	 esp, 4
  0019d	89 45 08	 mov	 DWORD PTR $T5[ebp], eax
  001a0	c7 45 fc 01 00
	00 00		 mov	 DWORD PTR __$EHRec$[ebp+8], 1
  001a7	85 c0		 test	 eax, eax
  001a9	74 0b		 je	 SHORT $LN22@OnAddCampu
  001ab	8b c8		 mov	 ecx, eax
  001ad	e8 00 00 00 00	 call	 ??0CCampus@@QAE@XZ	; CCampus::CCampus
  001b2	8b f0		 mov	 esi, eax
  001b4	eb 02		 jmp	 SHORT $LN23@OnAddCampu
$LN22@OnAddCampu:
  001b6	33 f6		 xor	 esi, esi
$LN23@OnAddCampu:

; 80   : 		pCampus->SetCampusId( idCampus );

  001b8	8b 45 e4	 mov	 eax, DWORD PTR _idCampus$[ebp]
; File C:\IAGOS\server\v18\Source\Source\WorldServer\CampusHelper.h

; 38   : 	u_long	AddCampus( CCampus* pCampus )	{	return m_pCampusMng->AddCampus( pCampus );	}

  001bb	8b 4d f0	 mov	 ecx, DWORD PTR _this$1$[ebp]
; File C:\IAGOS\server\v18\Source\Source\WorldServer\CampusHelper.cpp

; 80   : 		pCampus->SetCampusId( idCampus );

  001be	89 06		 mov	 DWORD PTR [esi], eax

; 81   : 		pCampus->SetMaster( idMaster );

  001c0	8b 45 ec	 mov	 eax, DWORD PTR _idMaster$[ebp]
  001c3	89 46 04	 mov	 DWORD PTR [esi+4], eax
; File C:\IAGOS\server\v18\Source\Source\WorldServer\CampusHelper.h

; 38   : 	u_long	AddCampus( CCampus* pCampus )	{	return m_pCampusMng->AddCampus( pCampus );	}

  001c6	8b 09		 mov	 ecx, DWORD PTR [ecx]
  001c8	56		 push	 esi
; File C:\IAGOS\server\v18\Source\Source\WorldServer\CampusHelper.cpp

; 79   : 		pCampus = new CCampus;

  001c9	c7 45 fc ff ff
	ff ff		 mov	 DWORD PTR __$EHRec$[ebp+8], -1
; File C:\IAGOS\server\v18\Source\Source\WorldServer\CampusHelper.h

; 38   : 	u_long	AddCampus( CCampus* pCampus )	{	return m_pCampusMng->AddCampus( pCampus );	}

  001d0	e8 00 00 00 00	 call	 ?AddCampus@CCampusMng@@QAEKPAVCCampus@@@Z ; CCampusMng::AddCampus
; File C:\IAGOS\server\v18\Source\Source\WorldServer\CampusHelper.cpp

; 82   : 		if( AddCampus( pCampus ) )

  001d5	85 c0		 test	 eax, eax
  001d7	0f 84 63 ff ff
	ff		 je	 $LN12@OnAddCampu

; 83   : 		{
; 84   : 			CCampusMember* pCMMaster = new CCampusMember;

  001dd	6a 08		 push	 8
  001df	e8 00 00 00 00	 call	 ??2@YAPAXI@Z		; operator new
  001e4	83 c4 04	 add	 esp, 4
  001e7	89 45 08	 mov	 DWORD PTR $T6[ebp], eax
  001ea	c7 45 fc 02 00
	00 00		 mov	 DWORD PTR __$EHRec$[ebp+8], 2
  001f1	85 c0		 test	 eax, eax
  001f3	74 0c		 je	 SHORT $LN24@OnAddCampu
  001f5	8b c8		 mov	 ecx, eax
  001f7	e8 00 00 00 00	 call	 ??0CCampusMember@@QAE@XZ ; CCampusMember::CCampusMember
  001fc	89 45 08	 mov	 DWORD PTR $T8[ebp], eax
  001ff	eb 07		 jmp	 SHORT $LN25@OnAddCampu
$LN24@OnAddCampu:
  00201	c7 45 08 00 00
	00 00		 mov	 DWORD PTR $T8[ebp], 0
$LN25@OnAddCampu:

; 85   : 			CCampusMember* pCMPupil = new CCampusMember;

  00208	6a 08		 push	 8
  0020a	c7 45 fc ff ff
	ff ff		 mov	 DWORD PTR __$EHRec$[ebp+8], -1
  00211	e8 00 00 00 00	 call	 ??2@YAPAXI@Z		; operator new
  00216	83 c4 04	 add	 esp, 4
  00219	89 45 e0	 mov	 DWORD PTR $T2[ebp], eax
  0021c	c7 45 fc 03 00
	00 00		 mov	 DWORD PTR __$EHRec$[ebp+8], 3
  00223	85 c0		 test	 eax, eax
  00225	74 09		 je	 SHORT $LN26@OnAddCampu
  00227	8b c8		 mov	 ecx, eax
  00229	e8 00 00 00 00	 call	 ??0CCampusMember@@QAE@XZ ; CCampusMember::CCampusMember
  0022e	eb 02		 jmp	 SHORT $LN92@OnAddCampu
$LN26@OnAddCampu:
  00230	33 c0		 xor	 eax, eax
$LN92@OnAddCampu:

; 86   : 			pCMMaster->SetPlayerId( idMaster );

  00232	8b 4d 08	 mov	 ecx, DWORD PTR $T8[ebp]
  00235	8b 55 ec	 mov	 edx, DWORD PTR _idMaster$[ebp]

; 91   : 				&& AddPlayerId2CampusId( idMaster, idCampus ) && AddPlayerId2CampusId( idPupil, idCampus ) )

  00238	51		 push	 ecx
  00239	89 45 e0	 mov	 DWORD PTR $T3[ebp], eax
  0023c	89 11		 mov	 DWORD PTR [ecx], edx
  0023e	8b 55 e8	 mov	 edx, DWORD PTR _idPupil$[ebp]
  00241	c7 41 04 01 00
	00 00		 mov	 DWORD PTR [ecx+4], 1
  00248	8b ce		 mov	 ecx, esi
  0024a	c7 45 fc ff ff
	ff ff		 mov	 DWORD PTR __$EHRec$[ebp+8], -1
  00251	89 10		 mov	 DWORD PTR [eax], edx
  00253	c7 40 04 02 00
	00 00		 mov	 DWORD PTR [eax+4], 2
  0025a	e8 00 00 00 00	 call	 ?AddMember@CCampus@@QAEHPAVCCampusMember@@@Z ; CCampus::AddMember
  0025f	85 c0		 test	 eax, eax
  00261	0f 84 9d 00 00
	00		 je	 $LN11@OnAddCampu
  00267	ff 75 e0	 push	 DWORD PTR $T3[ebp]
  0026a	8b ce		 mov	 ecx, esi
  0026c	e8 00 00 00 00	 call	 ?AddMember@CCampus@@QAEHPAVCCampusMember@@@Z ; CCampus::AddMember
  00271	85 c0		 test	 eax, eax
  00273	0f 84 8b 00 00
	00		 je	 $LN11@OnAddCampu
; File C:\IAGOS\server\v18\Source\Source\WorldServer\CampusHelper.h

; 43   : 	bool	AddPlayerId2CampusId( u_long idPlayer, u_long idCampus )	{	return m_pCampusMng->AddPlayerId2CampusId( idPlayer, idCampus );	}

  00279	8b 45 f0	 mov	 eax, DWORD PTR _this$1$[ebp]
  0027c	ff 75 e4	 push	 DWORD PTR _idCampus$[ebp]
  0027f	ff 75 ec	 push	 DWORD PTR _idMaster$[ebp]
  00282	8b 08		 mov	 ecx, DWORD PTR [eax]
  00284	e8 00 00 00 00	 call	 ?AddPlayerId2CampusId@CCampusMng@@QAE_NKK@Z ; CCampusMng::AddPlayerId2CampusId
; File C:\IAGOS\server\v18\Source\Source\WorldServer\CampusHelper.cpp

; 91   : 				&& AddPlayerId2CampusId( idMaster, idCampus ) && AddPlayerId2CampusId( idPupil, idCampus ) )

  00289	84 c0		 test	 al, al
  0028b	74 77		 je	 SHORT $LN11@OnAddCampu
; File C:\IAGOS\server\v18\Source\Source\WorldServer\CampusHelper.h

; 43   : 	bool	AddPlayerId2CampusId( u_long idPlayer, u_long idCampus )	{	return m_pCampusMng->AddPlayerId2CampusId( idPlayer, idCampus );	}

  0028d	8b 45 f0	 mov	 eax, DWORD PTR _this$1$[ebp]
  00290	ff 75 e4	 push	 DWORD PTR _idCampus$[ebp]
  00293	ff 75 e8	 push	 DWORD PTR _idPupil$[ebp]
  00296	8b 08		 mov	 ecx, DWORD PTR [eax]
  00298	e8 00 00 00 00	 call	 ?AddPlayerId2CampusId@CCampusMng@@QAE_NKK@Z ; CCampusMng::AddPlayerId2CampusId
; File C:\IAGOS\server\v18\Source\Source\WorldServer\CampusHelper.cpp

; 91   : 				&& AddPlayerId2CampusId( idMaster, idCampus ) && AddPlayerId2CampusId( idPupil, idCampus ) )

  0029d	84 c0		 test	 al, al
  0029f	74 63		 je	 SHORT $LN11@OnAddCampu
; File C:\IAGOS\server\v18\Source\Source\_Common\Obj.h

; 327  : 	return pObj && ( pObj->IsDelete() == FALSE ); 

  002a1	85 db		 test	 ebx, ebx
  002a3	74 2b		 je	 SHORT $LN13@OnAddCampu

; 180  : 	BOOL			IsDelete()	{ return (m_dwFlags & OBJ_FLAG_DELETE);  }

  002a5	f6 43 04 01	 test	 BYTE PTR [ebx+4], 1

; 327  : 	return pObj && ( pObj->IsDelete() == FALSE ); 

  002a9	75 25		 jne	 SHORT $LN13@OnAddCampu
; File C:\IAGOS\server\v18\Source\Source\WorldServer\CampusHelper.cpp

; 96   : 					pMaster->AddDefinedText( TID_GAME_TS_ACCTEATHER, "\"%s\"", pMaster->GetName() );

  002ab	8b 06		 mov	 eax, DWORD PTR [esi]
  002ad	8b cb		 mov	 ecx, ebx
  002af	6a 00		 push	 0
  002b1	89 83 cc 14 00
	00		 mov	 DWORD PTR [ebx+5324], eax
  002b7	e8 00 00 00 00	 call	 ?GetName@CMover@@QAEPBDH@Z ; CMover::GetName
  002bc	50		 push	 eax
  002bd	68 00 00 00 00	 push	 OFFSET ??_C@_04OEDFLLKD@?$CC?$CFs?$CC@
  002c2	68 8e 10 00 00	 push	 4238			; 0000108eH
  002c7	53		 push	 ebx
  002c8	e8 00 00 00 00	 call	 ?AddDefinedText@CUser@@QAAXHPBDZZ ; CUser::AddDefinedText
  002cd	83 c4 10	 add	 esp, 16			; 00000010H
$LN13@OnAddCampu:
; File C:\IAGOS\server\v18\Source\Source\_Common\Obj.h

; 327  : 	return pObj && ( pObj->IsDelete() == FALSE ); 

  002d0	85 ff		 test	 edi, edi
  002d2	0f 84 68 fe ff
	ff		 je	 $LN12@OnAddCampu

; 180  : 	BOOL			IsDelete()	{ return (m_dwFlags & OBJ_FLAG_DELETE);  }

  002d8	f6 47 04 01	 test	 BYTE PTR [edi+4], 1

; 327  : 	return pObj && ( pObj->IsDelete() == FALSE ); 

  002dc	0f 85 5e fe ff
	ff		 jne	 $LN12@OnAddCampu
; File C:\IAGOS\server\v18\Source\Source\WorldServer\CampusHelper.cpp

; 101  : 					pPupil->AddDefinedText( TID_GAME_TS_ACCSTUDENT, "\"%s\"", pPupil->GetName() );

  002e2	8b 06		 mov	 eax, DWORD PTR [esi]
  002e4	8b cf		 mov	 ecx, edi
  002e6	6a 00		 push	 0
  002e8	89 87 cc 14 00
	00		 mov	 DWORD PTR [edi+5324], eax
  002ee	e8 00 00 00 00	 call	 ?GetName@CMover@@QAEPBDH@Z ; CMover::GetName
  002f3	50		 push	 eax
  002f4	68 00 00 00 00	 push	 OFFSET ??_C@_04OEDFLLKD@?$CC?$CFs?$CC@
  002f9	68 92 10 00 00	 push	 4242			; 00001092H
  002fe	57		 push	 edi

; 102  : 				}
; 103  : 			}

  002ff	e9 34 fe ff ff	 jmp	 $LN93@OnAddCampu
$LN11@OnAddCampu:

; 104  : 			else
; 105  : 			{
; 106  : 				Error( "Add Master & Pupil failed!" );

  00304	68 00 00 00 00	 push	 OFFSET ??_C@_0BL@GFJOFHBB@Add?5Master?5?$CG?5Pupil?5failed?$CB@
  00309	e8 00 00 00 00	 call	 ?Error@@YAPBDPBDZZ	; Error
  0030e	8b 75 08	 mov	 esi, DWORD PTR $T8[ebp]
  00311	83 c4 04	 add	 esp, 4
  00314	8b ce		 mov	 ecx, esi
  00316	e8 00 00 00 00	 call	 ??1CCampusMember@@QAE@XZ ; CCampusMember::~CCampusMember
  0031b	6a 08		 push	 8
  0031d	56		 push	 esi
  0031e	e8 00 00 00 00	 call	 ??3@YAXPAXI@Z		; operator delete
  00323	8b 5d e0	 mov	 ebx, DWORD PTR $T3[ebp]
  00326	83 c4 08	 add	 esp, 8
  00329	8b cb		 mov	 ecx, ebx
  0032b	e8 00 00 00 00	 call	 ??1CCampusMember@@QAE@XZ ; CCampusMember::~CCampusMember
  00330	6a 08		 push	 8
  00332	53		 push	 ebx
  00333	e8 00 00 00 00	 call	 ??3@YAXPAXI@Z		; operator delete
; File C:\IAGOS\server\v18\Source\Source\WorldServer\CampusHelper.h

; 39   : 	BOOL	RemoveCampus( u_long idCampus )	{	return m_pCampusMng->RemoveCampus( idCampus );	}

  00338	8b 45 f0	 mov	 eax, DWORD PTR _this$1$[ebp]
  0033b	83 c4 08	 add	 esp, 8
  0033e	ff 75 e4	 push	 DWORD PTR _idCampus$[ebp]
  00341	8b 08		 mov	 ecx, DWORD PTR [eax]
  00343	e8 00 00 00 00	 call	 ?RemoveCampus@CCampusMng@@QAEHK@Z ; CCampusMng::RemoveCampus
; File C:\IAGOS\server\v18\Source\Source\WorldServer\CampusHelper.cpp

; 115  : }

  00348	8b 4d f4	 mov	 ecx, DWORD PTR __$EHRec$[ebp]
  0034b	64 89 0d 00 00
	00 00		 mov	 DWORD PTR fs:0, ecx
  00352	59		 pop	 ecx
  00353	5f		 pop	 edi
  00354	5e		 pop	 esi
  00355	5b		 pop	 ebx
  00356	8b e5		 mov	 esp, ebp
  00358	5d		 pop	 ebp
  00359	c2 04 00	 ret	 4
_TEXT	ENDS
;	COMDAT text$x
text$x	SEGMENT
__unwindfunclet$?OnAddCampusMember@CCampusHelper@@QAEXAAVCAr@@@Z$0:
  00000	6a 08		 push	 8
  00002	8b 45 08	 mov	 eax, DWORD PTR $T4[ebp]
  00005	50		 push	 eax
  00006	e8 00 00 00 00	 call	 ??3@YAXPAXI@Z		; operator delete
  0000b	83 c4 08	 add	 esp, 8
  0000e	c3		 ret	 0
__unwindfunclet$?OnAddCampusMember@CCampusHelper@@QAEXAAVCAr@@@Z$1:
  0000f	6a 14		 push	 20			; 00000014H
  00011	8b 45 08	 mov	 eax, DWORD PTR $T5[ebp]
  00014	50		 push	 eax
  00015	e8 00 00 00 00	 call	 ??3@YAXPAXI@Z		; operator delete
  0001a	83 c4 08	 add	 esp, 8
  0001d	c3		 ret	 0
__unwindfunclet$?OnAddCampusMember@CCampusHelper@@QAEXAAVCAr@@@Z$2:
  0001e	6a 08		 push	 8
  00020	8b 45 08	 mov	 eax, DWORD PTR $T6[ebp]
  00023	50		 push	 eax
  00024	e8 00 00 00 00	 call	 ??3@YAXPAXI@Z		; operator delete
  00029	83 c4 08	 add	 esp, 8
  0002c	c3		 ret	 0
__unwindfunclet$?OnAddCampusMember@CCampusHelper@@QAEXAAVCAr@@@Z$3:
  0002d	6a 08		 push	 8
  0002f	8b 45 e0	 mov	 eax, DWORD PTR $T2[ebp]
  00032	50		 push	 eax
  00033	e8 00 00 00 00	 call	 ??3@YAXPAXI@Z		; operator delete
  00038	83 c4 08	 add	 esp, 8
  0003b	c3		 ret	 0
  0003c	cc		 int	 3
  0003d	cc		 int	 3
  0003e	cc		 int	 3
  0003f	cc		 int	 3
  00040	cc		 int	 3
__ehhandler$?OnAddCampusMember@CCampusHelper@@QAEXAAVCAr@@@Z:
  00041	90		 npad	 1
  00042	90		 npad	 1
  00043	8b 54 24 08	 mov	 edx, DWORD PTR [esp+8]
  00047	8d 42 0c	 lea	 eax, DWORD PTR [edx+12]
  0004a	8b 4a dc	 mov	 ecx, DWORD PTR [edx-36]
  0004d	33 c8		 xor	 ecx, eax
  0004f	e8 00 00 00 00	 call	 @__security_check_cookie@4
  00054	b8 00 00 00 00	 mov	 eax, OFFSET __ehfuncinfo$?OnAddCampusMember@CCampusHelper@@QAEXAAVCAr@@@Z
  00059	e9 00 00 00 00	 jmp	 ___CxxFrameHandler3
text$x	ENDS
?OnAddCampusMember@CCampusHelper@@QAEXAAVCAr@@@Z ENDP	; CCampusHelper::OnAddCampusMember
; Function compile flags: /Ogtp
; File C:\IAGOS\server\v18\Source\Source\WorldServer\CampusHelper.cpp
; File C:\Program Files\Microsoft Visual Studio\2022\Professional\VC\Tools\MSVC\14.44.35207\include\vector
; File C:\Program Files\Microsoft Visual Studio\2022\Professional\VC\Tools\MSVC\14.44.35207\include\xtree
; File C:\IAGOS\server\v18\Source\Source\WorldServer\CampusHelper.cpp
; File C:\Program Files\Microsoft Visual Studio\2022\Professional\VC\Tools\MSVC\14.44.35207\include\xtree
; File C:\Program Files\Microsoft Visual Studio\2022\Professional\VC\Tools\MSVC\14.44.35207\include\utility
; File C:\Program Files\Microsoft Visual Studio\2022\Professional\VC\Tools\MSVC\14.44.35207\include\xmemory
; File C:\Program Files\Microsoft Visual Studio\2022\Professional\VC\Tools\MSVC\14.44.35207\include\xtree
; File C:\IAGOS\server\v18\Source\Source\WorldServer\CampusHelper.cpp
; File C:\Program Files\Microsoft Visual Studio\2022\Professional\VC\Tools\MSVC\14.44.35207\include\xtree
; File C:\Program Files\Microsoft Visual Studio\2022\Professional\VC\Tools\MSVC\14.44.35207\include\utility
; File C:\Program Files\Microsoft Visual Studio\2022\Professional\VC\Tools\MSVC\14.44.35207\include\xmemory
; File C:\Program Files\Microsoft Visual Studio\2022\Professional\VC\Tools\MSVC\14.44.35207\include\xtree
; File C:\IAGOS\server\v18\Source\Source\WorldServer\CampusHelper.cpp
; File C:\Program Files\Microsoft Visual Studio\2022\Professional\VC\Tools\MSVC\14.44.35207\include\xtree
; File C:\IAGOS\server\v18\Source\Source\WorldServer\CampusHelper.cpp
;	COMDAT ?Clear@CCampusHelper@@QAEXXZ
_TEXT	SEGMENT
_this$1$ = -8						; size = 4
__Head$1$ = -4						; size = 4
?Clear@CCampusHelper@@QAEXXZ PROC			; CCampusHelper::Clear, COMDAT
; _this$ = ecx

; 36   : {

  00000	55		 push	 ebp
  00001	8b ec		 mov	 ebp, esp
  00003	83 ec 08	 sub	 esp, 8
  00006	53		 push	 ebx
  00007	8b d9		 mov	 ebx, ecx
  00009	56		 push	 esi
  0000a	57		 push	 edi
  0000b	89 5d f8	 mov	 DWORD PTR _this$1$[ebp], ebx
; File C:\Program Files\Microsoft Visual Studio\2022\Professional\VC\Tools\MSVC\14.44.35207\include\vector

; 1812 :         if (_Myfirst == _Mylast) { // already empty, nothing to do

  0000e	8b 43 0c	 mov	 eax, DWORD PTR [ebx+12]
  00011	3b 43 10	 cmp	 eax, DWORD PTR [ebx+16]
  00014	74 03		 je	 SHORT $LN6@Clear

; 1813 :             // This is an optimization for debug mode: we can avoid taking the debug lock to invalidate iterators.
; 1814 :             // Note that when clearing an empty vector, this will preserve past-the-end iterators, which is allowed by
; 1815 :             // N4950 [sequence.reqmts]/54 "a.clear() [...] may invalidate the past-the-end iterator".
; 1816 :             return;
; 1817 :         }
; 1818 : 
; 1819 :         _My_data._Orphan_all();
; 1820 :         _Destroy_range(_Myfirst, _Mylast, _Getal());
; 1821 :         _ASAN_VECTOR_MODIFY(static_cast<difference_type>(_Myfirst - _Mylast)); // negative when destroying elements
; 1822 :         _Mylast = _Myfirst;

  00016	89 43 10	 mov	 DWORD PTR [ebx+16], eax
$LN6@Clear:
; File C:\Program Files\Microsoft Visual Studio\2022\Professional\VC\Tools\MSVC\14.44.35207\include\xtree

; 1373 :         auto _Head = _Scary->_Myhead;

  00019	8b 43 18	 mov	 eax, DWORD PTR [ebx+24]
; File C:\IAGOS\server\v18\Source\Source\WorldServer\CampusHelper.cpp

; 38   : 	m_mapCBuff.clear();

  0001c	8d 7b 18	 lea	 edi, DWORD PTR [ebx+24]
; File C:\Program Files\Microsoft Visual Studio\2022\Professional\VC\Tools\MSVC\14.44.35207\include\xtree

; 1373 :         auto _Head = _Scary->_Myhead;

  0001f	89 45 fc	 mov	 DWORD PTR __Head$1$[ebp], eax

; 1374 :         _Scary->_Erase_tree(_Getal(), _Head->_Parent);

  00022	8b 70 04	 mov	 esi, DWORD PTR [eax+4]

; 768  :         while (!_Rootnode->_Isnil) { // free subtrees, then node

  00025	80 7e 0d 00	 cmp	 BYTE PTR [esi+13], 0
  00029	75 28		 jne	 SHORT $LN89@Clear
  0002b	0f 1f 44 00 00	 npad	 5
$LL14@Clear:

; 769  :             _Erase_tree(_Al, _Rootnode->_Right);

  00030	ff 76 08	 push	 DWORD PTR [esi+8]
  00033	8b cf		 mov	 ecx, edi
  00035	57		 push	 edi
  00036	e8 00 00 00 00	 call	 ??$_Erase_tree@V?$allocator@U?$_Tree_node@U?$pair@$$CBHK@std@@PAX@std@@@std@@@?$_Tree_val@U?$_Tree_simple_types@U?$pair@$$CBHK@std@@@std@@@std@@QAEXAAV?$allocator@U?$_Tree_node@U?$pair@$$CBHK@std@@PAX@std@@@1@PAU?$_Tree_node@U?$pair@$$CBHK@std@@PAX@1@@Z ; std::_Tree_val<std::_Tree_simple_types<std::pair<int const ,unsigned long> > >::_Erase_tree<std::allocator<std::_Tree_node<std::pair<int const ,unsigned long>,void *> > >
; File C:\Program Files\Microsoft Visual Studio\2022\Professional\VC\Tools\MSVC\14.44.35207\include\utility

; 773  :     _Ty _Old_val = static_cast<_Ty&&>(_Val);

  0003b	8b c6		 mov	 eax, esi

; 774  :     _Val         = static_cast<_Other&&>(_New_val);

  0003d	8b 36		 mov	 esi, DWORD PTR [esi]
; File C:\Program Files\Microsoft Visual Studio\2022\Professional\VC\Tools\MSVC\14.44.35207\include\xmemory

; 289  :         ::operator delete(_Ptr, _Bytes);

  0003f	6a 18		 push	 24			; 00000018H
  00041	50		 push	 eax
  00042	e8 00 00 00 00	 call	 ??3@YAXPAXI@Z		; operator delete
  00047	83 c4 08	 add	 esp, 8
; File C:\Program Files\Microsoft Visual Studio\2022\Professional\VC\Tools\MSVC\14.44.35207\include\xtree

; 768  :         while (!_Rootnode->_Isnil) { // free subtrees, then node

  0004a	80 7e 0d 00	 cmp	 BYTE PTR [esi+13], 0
  0004e	74 e0		 je	 SHORT $LL14@Clear
  00050	8b 45 fc	 mov	 eax, DWORD PTR __Head$1$[ebp]
$LN89@Clear:

; 1375 :         _Head->_Parent  = _Head;

  00053	89 40 04	 mov	 DWORD PTR [eax+4], eax

; 1376 :         _Head->_Left    = _Head;

  00056	89 00		 mov	 DWORD PTR [eax], eax

; 1377 :         _Head->_Right   = _Head;

  00058	89 40 08	 mov	 DWORD PTR [eax+8], eax

; 1378 :         _Scary->_Mysize = 0;

  0005b	c7 47 04 00 00
	00 00		 mov	 DWORD PTR [edi+4], 0
; File C:\IAGOS\server\v18\Source\Source\WorldServer\CampusHelper.cpp

; 39   : 	m_mapCReward.clear();

  00062	8d 7b 20	 lea	 edi, DWORD PTR [ebx+32]
; File C:\Program Files\Microsoft Visual Studio\2022\Professional\VC\Tools\MSVC\14.44.35207\include\xtree

; 1373 :         auto _Head = _Scary->_Myhead;

  00065	8b 1f		 mov	 ebx, DWORD PTR [edi]

; 1374 :         _Scary->_Erase_tree(_Getal(), _Head->_Parent);

  00067	8b 73 04	 mov	 esi, DWORD PTR [ebx+4]

; 768  :         while (!_Rootnode->_Isnil) { // free subtrees, then node

  0006a	80 7e 0d 00	 cmp	 BYTE PTR [esi+13], 0
  0006e	75 20		 jne	 SHORT $LN90@Clear
$LL49@Clear:

; 769  :             _Erase_tree(_Al, _Rootnode->_Right);

  00070	ff 76 08	 push	 DWORD PTR [esi+8]
  00073	8b cf		 mov	 ecx, edi
  00075	57		 push	 edi
  00076	e8 00 00 00 00	 call	 ??$_Erase_tree@V?$allocator@U?$_Tree_node@U?$pair@$$CBHUREWARD@CCampusHelper@@@std@@PAX@std@@@std@@@?$_Tree_val@U?$_Tree_simple_types@U?$pair@$$CBHUREWARD@CCampusHelper@@@std@@@std@@@std@@QAEXAAV?$allocator@U?$_Tree_node@U?$pair@$$CBHUREWARD@CCampusHelper@@@std@@PAX@std@@@1@PAU?$_Tree_node@U?$pair@$$CBHUREWARD@CCampusHelper@@@std@@PAX@1@@Z ; std::_Tree_val<std::_Tree_simple_types<std::pair<int const ,CCampusHelper::REWARD> > >::_Erase_tree<std::allocator<std::_Tree_node<std::pair<int const ,CCampusHelper::REWARD>,void *> > >
; File C:\Program Files\Microsoft Visual Studio\2022\Professional\VC\Tools\MSVC\14.44.35207\include\utility

; 773  :     _Ty _Old_val = static_cast<_Ty&&>(_Val);

  0007b	8b c6		 mov	 eax, esi

; 774  :     _Val         = static_cast<_Other&&>(_New_val);

  0007d	8b 36		 mov	 esi, DWORD PTR [esi]
; File C:\Program Files\Microsoft Visual Studio\2022\Professional\VC\Tools\MSVC\14.44.35207\include\xmemory

; 289  :         ::operator delete(_Ptr, _Bytes);

  0007f	6a 1c		 push	 28			; 0000001cH
  00081	50		 push	 eax
  00082	e8 00 00 00 00	 call	 ??3@YAXPAXI@Z		; operator delete
  00087	83 c4 08	 add	 esp, 8
; File C:\Program Files\Microsoft Visual Studio\2022\Professional\VC\Tools\MSVC\14.44.35207\include\xtree

; 768  :         while (!_Rootnode->_Isnil) { // free subtrees, then node

  0008a	80 7e 0d 00	 cmp	 BYTE PTR [esi+13], 0
  0008e	74 e0		 je	 SHORT $LL49@Clear
$LN90@Clear:
; File C:\IAGOS\server\v18\Source\Source\WorldServer\CampusHelper.cpp

; 40   : 	SAFE_DELETE( m_pCampusMng );

  00090	8b 75 f8	 mov	 esi, DWORD PTR _this$1$[ebp]
; File C:\Program Files\Microsoft Visual Studio\2022\Professional\VC\Tools\MSVC\14.44.35207\include\xtree

; 1375 :         _Head->_Parent  = _Head;

  00093	89 5b 04	 mov	 DWORD PTR [ebx+4], ebx

; 1376 :         _Head->_Left    = _Head;

  00096	89 1b		 mov	 DWORD PTR [ebx], ebx

; 1377 :         _Head->_Right   = _Head;

  00098	89 5b 08	 mov	 DWORD PTR [ebx+8], ebx

; 1378 :         _Scary->_Mysize = 0;

  0009b	c7 47 04 00 00
	00 00		 mov	 DWORD PTR [edi+4], 0
; File C:\IAGOS\server\v18\Source\Source\WorldServer\CampusHelper.cpp

; 40   : 	SAFE_DELETE( m_pCampusMng );

  000a2	8b 3e		 mov	 edi, DWORD PTR [esi]
  000a4	85 ff		 test	 edi, edi
  000a6	74 18		 je	 SHORT $LN2@Clear
  000a8	8b cf		 mov	 ecx, edi
  000aa	e8 00 00 00 00	 call	 ??1CCampusMng@@QAE@XZ	; CCampusMng::~CCampusMng
  000af	6a 14		 push	 20			; 00000014H
  000b1	57		 push	 edi
  000b2	e8 00 00 00 00	 call	 ??3@YAXPAXI@Z		; operator delete
  000b7	83 c4 08	 add	 esp, 8
  000ba	c7 06 00 00 00
	00		 mov	 DWORD PTR [esi], 0
$LN2@Clear:

; 41   : }

  000c0	5f		 pop	 edi
  000c1	5e		 pop	 esi
  000c2	5b		 pop	 ebx
  000c3	8b e5		 mov	 esp, ebp
  000c5	5d		 pop	 ebp
  000c6	c3		 ret	 0
?Clear@CCampusHelper@@QAEXXZ ENDP			; CCampusHelper::Clear
_TEXT	ENDS
; Function compile flags: /Ogtp
; File C:\IAGOS\server\v18\Source\Source\WorldServer\CampusHelper.cpp
;	COMDAT ?GetInstance@CCampusHelper@@SAPAV1@XZ
_TEXT	SEGMENT
__$EHRec$ = -12						; size = 12
?GetInstance@CCampusHelper@@SAPAV1@XZ PROC		; CCampusHelper::GetInstance, COMDAT

; 30   : {

  00000	55		 push	 ebp
  00001	8b ec		 mov	 ebp, esp
  00003	6a ff		 push	 -1
  00005	68 00 00 00 00	 push	 __ehhandler$?GetInstance@CCampusHelper@@SAPAV1@XZ
  0000a	64 a1 00 00 00
	00		 mov	 eax, DWORD PTR fs:0
  00010	50		 push	 eax
  00011	a1 00 00 00 00	 mov	 eax, DWORD PTR ___security_cookie
  00016	33 c5		 xor	 eax, ebp
  00018	50		 push	 eax
  00019	8d 45 f4	 lea	 eax, DWORD PTR __$EHRec$[ebp]
  0001c	64 a3 00 00 00
	00		 mov	 DWORD PTR fs:0, eax

; 31   : 	static CCampusHelper sCH;

  00022	64 a1 00 00 00
	00		 mov	 eax, DWORD PTR fs:__tls_array
  00028	8b 0d 00 00 00
	00		 mov	 ecx, DWORD PTR __tls_index
  0002e	8b 0c 88	 mov	 ecx, DWORD PTR [eax+ecx*4]
  00031	a1 00 00 00 00	 mov	 eax, DWORD PTR ?$TSS0@?1??GetInstance@CCampusHelper@@SAPAV2@XZ@4HA
  00036	3b 81 00 00 00
	00		 cmp	 eax, DWORD PTR __Init_thread_epoch[ecx]
  0003c	7f 14		 jg	 SHORT $LN9@GetInstanc
$LN5@GetInstanc:

; 32   : 	return & sCH;
; 33   : }

  0003e	b8 00 00 00 00	 mov	 eax, OFFSET ?sCH@?1??GetInstance@CCampusHelper@@SAPAV2@XZ@4V2@A
  00043	8b 4d f4	 mov	 ecx, DWORD PTR __$EHRec$[ebp]
  00046	64 89 0d 00 00
	00 00		 mov	 DWORD PTR fs:0, ecx
  0004d	59		 pop	 ecx
  0004e	8b e5		 mov	 esp, ebp
  00050	5d		 pop	 ebp
  00051	c3		 ret	 0
$LN9@GetInstanc:

; 31   : 	static CCampusHelper sCH;

  00052	68 00 00 00 00	 push	 OFFSET ?$TSS0@?1??GetInstance@CCampusHelper@@SAPAV2@XZ@4HA
  00057	e8 00 00 00 00	 call	 __Init_thread_header
  0005c	83 c4 04	 add	 esp, 4
  0005f	83 3d 00 00 00
	00 ff		 cmp	 DWORD PTR ?$TSS0@?1??GetInstance@CCampusHelper@@SAPAV2@XZ@4HA, -1
  00066	75 d6		 jne	 SHORT $LN5@GetInstanc
  00068	b9 00 00 00 00	 mov	 ecx, OFFSET ?sCH@?1??GetInstance@CCampusHelper@@SAPAV2@XZ@4V2@A
  0006d	c7 45 fc 00 00
	00 00		 mov	 DWORD PTR __$EHRec$[ebp+8], 0
  00074	e8 00 00 00 00	 call	 ??0CCampusHelper@@QAE@XZ ; CCampusHelper::CCampusHelper
  00079	68 00 00 00 00	 push	 OFFSET ??__FsCH@?1??GetInstance@CCampusHelper@@SAPAV1@XZ@YAXXZ ; `CCampusHelper::GetInstance'::`2'::`dynamic atexit destructor for 'sCH''
  0007e	e8 00 00 00 00	 call	 _atexit
  00083	68 00 00 00 00	 push	 OFFSET ?$TSS0@?1??GetInstance@CCampusHelper@@SAPAV2@XZ@4HA
  00088	e8 00 00 00 00	 call	 __Init_thread_footer
  0008d	83 c4 08	 add	 esp, 8
  00090	eb ac		 jmp	 SHORT $LN5@GetInstanc
_TEXT	ENDS
;	COMDAT text$x
text$x	SEGMENT
__unwindfunclet$?GetInstance@CCampusHelper@@SAPAV1@XZ$0:
  00000	68 00 00 00 00	 push	 OFFSET ?$TSS0@?1??GetInstance@CCampusHelper@@SAPAV2@XZ@4HA
  00005	e8 00 00 00 00	 call	 __Init_thread_abort
  0000a	59		 pop	 ecx
  0000b	c3		 ret	 0
  0000c	cc		 int	 3
  0000d	cc		 int	 3
  0000e	cc		 int	 3
  0000f	cc		 int	 3
  00010	cc		 int	 3
__ehhandler$?GetInstance@CCampusHelper@@SAPAV1@XZ:
  00011	90		 npad	 1
  00012	90		 npad	 1
  00013	8b 54 24 08	 mov	 edx, DWORD PTR [esp+8]
  00017	8d 42 0c	 lea	 eax, DWORD PTR [edx+12]
  0001a	8b 4a fc	 mov	 ecx, DWORD PTR [edx-4]
  0001d	33 c8		 xor	 ecx, eax
  0001f	e8 00 00 00 00	 call	 @__security_check_cookie@4
  00024	b8 00 00 00 00	 mov	 eax, OFFSET __ehfuncinfo$?GetInstance@CCampusHelper@@SAPAV1@XZ
  00029	e9 00 00 00 00	 jmp	 ___CxxFrameHandler3
text$x	ENDS
?GetInstance@CCampusHelper@@SAPAV1@XZ ENDP		; CCampusHelper::GetInstance
; Function compile flags: /Ogtp
; File C:\IAGOS\server\v18\Source\Source\WorldServer\CampusHelper.cpp
;	COMDAT ??1CCampusHelper@@QAE@XZ
_TEXT	SEGMENT
??1CCampusHelper@@QAE@XZ PROC				; CCampusHelper::~CCampusHelper, COMDAT
; _this$ = ecx

; 25   : {

  00000	56		 push	 esi
  00001	8b f1		 mov	 esi, ecx

; 26   : 	Clear();

  00003	e8 00 00 00 00	 call	 ?Clear@CCampusHelper@@QAEXXZ ; CCampusHelper::Clear

; 27   : }

  00008	8d 4e 20	 lea	 ecx, DWORD PTR [esi+32]
  0000b	e8 00 00 00 00	 call	 ??1?$_Tree@V?$_Tmap_traits@HUREWARD@CCampusHelper@@U?$less@H@std@@V?$allocator@U?$pair@$$CBHUREWARD@CCampusHelper@@@std@@@4@$0A@@std@@@std@@QAE@XZ ; std::_Tree<std::_Tmap_traits<int,CCampusHelper::REWARD,std::less<int>,std::allocator<std::pair<int const ,CCampusHelper::REWARD> >,0> >::~_Tree<std::_Tmap_traits<int,CCampusHelper::REWARD,std::less<int>,std::allocator<std::pair<int const ,CCampusHelper::REWARD> >,0> >
  00010	8d 4e 18	 lea	 ecx, DWORD PTR [esi+24]
  00013	e8 00 00 00 00	 call	 ??1?$_Tree@V?$_Tmap_traits@HKU?$less@H@std@@V?$allocator@U?$pair@$$CBHK@std@@@2@$0A@@std@@@std@@QAE@XZ ; std::_Tree<std::_Tmap_traits<int,unsigned long,std::less<int>,std::allocator<std::pair<int const ,unsigned long> >,0> >::~_Tree<std::_Tmap_traits<int,unsigned long,std::less<int>,std::allocator<std::pair<int const ,unsigned long> >,0> >
  00018	8d 4e 0c	 lea	 ecx, DWORD PTR [esi+12]
  0001b	5e		 pop	 esi
  0001c	e9 00 00 00 00	 jmp	 ??1?$vector@HV?$allocator@H@std@@@std@@QAE@XZ ; std::vector<int,std::allocator<int> >::~vector<int,std::allocator<int> >
??1CCampusHelper@@QAE@XZ ENDP				; CCampusHelper::~CCampusHelper
_TEXT	ENDS
; Function compile flags: /Ogtp
; File C:\IAGOS\server\v18\Source\Source\WorldServer\CampusHelper.cpp
; File C:\Program Files\Microsoft Visual Studio\2022\Professional\VC\Tools\MSVC\14.44.35207\include\vector
; File C:\IAGOS\server\v18\Source\Source\WorldServer\CampusHelper.cpp
; File C:\Program Files\Microsoft Visual Studio\2022\Professional\VC\Tools\MSVC\14.44.35207\include\xmemory
; File C:\Program Files\Microsoft Visual Studio\2022\Professional\VC\Tools\MSVC\14.44.35207\include\xtree
; File C:\Program Files\Microsoft Visual Studio\2022\Professional\VC\Tools\MSVC\14.44.35207\include\xmemory
; File C:\Program Files\Microsoft Visual Studio\2022\Professional\VC\Tools\MSVC\14.44.35207\include\xtree
; File C:\IAGOS\server\v18\Source\Source\WorldServer\CampusHelper.cpp
; File C:\Program Files\Microsoft Visual Studio\2022\Professional\VC\Tools\MSVC\14.44.35207\include\xmemory
; File C:\Program Files\Microsoft Visual Studio\2022\Professional\VC\Tools\MSVC\14.44.35207\include\xtree
; File C:\Program Files\Microsoft Visual Studio\2022\Professional\VC\Tools\MSVC\14.44.35207\include\xmemory
; File C:\Program Files\Microsoft Visual Studio\2022\Professional\VC\Tools\MSVC\14.44.35207\include\xtree
; File C:\IAGOS\server\v18\Source\Source\WorldServer\CampusHelper.cpp
;	COMDAT ??0CCampusHelper@@QAE@XZ
_TEXT	SEGMENT
$T2 = -20						; size = 4
_this$ = -20						; size = 4
_this$ = -20						; size = 4
_this$ = -16						; size = 4
__$EHRec$ = -12						; size = 12
??0CCampusHelper@@QAE@XZ PROC				; CCampusHelper::CCampusHelper, COMDAT
; _this$ = ecx

; 20   : {

  00000	55		 push	 ebp
  00001	8b ec		 mov	 ebp, esp
  00003	6a ff		 push	 -1
  00005	68 00 00 00 00	 push	 __ehhandler$??0CCampusHelper@@QAE@XZ
  0000a	64 a1 00 00 00
	00		 mov	 eax, DWORD PTR fs:0
  00010	50		 push	 eax
  00011	83 ec 08	 sub	 esp, 8
  00014	56		 push	 esi
  00015	57		 push	 edi
  00016	a1 00 00 00 00	 mov	 eax, DWORD PTR ___security_cookie
  0001b	33 c5		 xor	 eax, ebp
  0001d	50		 push	 eax
  0001e	8d 45 f4	 lea	 eax, DWORD PTR __$EHRec$[ebp]
  00021	64 a3 00 00 00
	00		 mov	 DWORD PTR fs:0, eax
  00027	8b f9		 mov	 edi, ecx
  00029	89 7d f0	 mov	 DWORD PTR _this$[ebp], edi
; File C:\Program Files\Microsoft Visual Studio\2022\Professional\VC\Tools\MSVC\14.44.35207\include\vector

; 400  :     _CONSTEXPR20 _Vector_val() noexcept : _Myfirst(), _Mylast(), _Myend() {}

  0002c	c7 47 0c 00 00
	00 00		 mov	 DWORD PTR [edi+12], 0
  00033	c7 47 10 00 00
	00 00		 mov	 DWORD PTR [edi+16], 0
  0003a	c7 47 14 00 00
	00 00		 mov	 DWORD PTR [edi+20], 0
; File C:\IAGOS\server\v18\Source\Source\WorldServer\CampusHelper.cpp

; 20   : {

  00041	8d 77 18	 lea	 esi, DWORD PTR [edi+24]
  00044	c7 45 fc 00 00
	00 00		 mov	 DWORD PTR __$EHRec$[ebp+8], 0
  0004b	89 75 ec	 mov	 DWORD PTR _this$[ebp], esi
; File C:\Program Files\Microsoft Visual Studio\2022\Professional\VC\Tools\MSVC\14.44.35207\include\xmemory

; 136  :         return ::operator new(_Bytes);

  0004e	6a 18		 push	 24			; 00000018H
; File C:\Program Files\Microsoft Visual Studio\2022\Professional\VC\Tools\MSVC\14.44.35207\include\xtree

; 450  :     _Tree_val() noexcept : _Myhead(), _Mysize(0) {}

  00050	c7 06 00 00 00
	00		 mov	 DWORD PTR [esi], 0
  00056	c7 46 04 00 00
	00 00		 mov	 DWORD PTR [esi+4], 0
; File C:\Program Files\Microsoft Visual Studio\2022\Professional\VC\Tools\MSVC\14.44.35207\include\xmemory

; 136  :         return ::operator new(_Bytes);

  0005d	e8 00 00 00 00	 call	 ??2@YAPAXI@Z		; operator new
; File C:\Program Files\Microsoft Visual Studio\2022\Professional\VC\Tools\MSVC\14.44.35207\include\xtree

; 346  :         _Construct_in_place(_Pnode->_Left, _Pnode);

  00062	89 00		 mov	 DWORD PTR [eax], eax

; 347  :         _Construct_in_place(_Pnode->_Parent, _Pnode);

  00064	89 40 04	 mov	 DWORD PTR [eax+4], eax

; 348  :         _Construct_in_place(_Pnode->_Right, _Pnode);

  00067	89 40 08	 mov	 DWORD PTR [eax+8], eax

; 349  :         _Pnode->_Color = _Black;

  0006a	66 c7 40 0c 01
	01		 mov	 WORD PTR [eax+12], 257	; 00000101H

; 1957 :         _Scary->_Myhead = _Node::_Buyheadnode(_Getal());

  00070	89 06		 mov	 DWORD PTR [esi], eax
; File C:\IAGOS\server\v18\Source\Source\WorldServer\CampusHelper.cpp

; 20   : {

  00072	8d 77 20	 lea	 esi, DWORD PTR [edi+32]
  00075	c6 45 fc 01	 mov	 BYTE PTR __$EHRec$[ebp+8], 1
  00079	89 75 ec	 mov	 DWORD PTR _this$[ebp], esi
; File C:\Program Files\Microsoft Visual Studio\2022\Professional\VC\Tools\MSVC\14.44.35207\include\xmemory

; 136  :         return ::operator new(_Bytes);

  0007c	6a 1c		 push	 28			; 0000001cH
; File C:\Program Files\Microsoft Visual Studio\2022\Professional\VC\Tools\MSVC\14.44.35207\include\xtree

; 450  :     _Tree_val() noexcept : _Myhead(), _Mysize(0) {}

  0007e	c7 06 00 00 00
	00		 mov	 DWORD PTR [esi], 0
  00084	c7 46 04 00 00
	00 00		 mov	 DWORD PTR [esi+4], 0
; File C:\Program Files\Microsoft Visual Studio\2022\Professional\VC\Tools\MSVC\14.44.35207\include\xmemory

; 136  :         return ::operator new(_Bytes);

  0008b	e8 00 00 00 00	 call	 ??2@YAPAXI@Z		; operator new
; File C:\Program Files\Microsoft Visual Studio\2022\Professional\VC\Tools\MSVC\14.44.35207\include\xtree

; 346  :         _Construct_in_place(_Pnode->_Left, _Pnode);

  00090	89 00		 mov	 DWORD PTR [eax], eax

; 347  :         _Construct_in_place(_Pnode->_Parent, _Pnode);

  00092	89 40 04	 mov	 DWORD PTR [eax+4], eax

; 348  :         _Construct_in_place(_Pnode->_Right, _Pnode);

  00095	89 40 08	 mov	 DWORD PTR [eax+8], eax

; 349  :         _Pnode->_Color = _Black;

  00098	66 c7 40 0c 01
	01		 mov	 WORD PTR [eax+12], 257	; 00000101H

; 1957 :         _Scary->_Myhead = _Node::_Buyheadnode(_Getal());

  0009e	89 06		 mov	 DWORD PTR [esi], eax
; File C:\IAGOS\server\v18\Source\Source\WorldServer\CampusHelper.cpp

; 21   : 	m_pCampusMng = new CCampusMng;

  000a0	6a 14		 push	 20			; 00000014H
  000a2	c6 45 fc 02	 mov	 BYTE PTR __$EHRec$[ebp+8], 2
  000a6	e8 00 00 00 00	 call	 ??2@YAPAXI@Z		; operator new
  000ab	83 c4 0c	 add	 esp, 12			; 0000000cH
  000ae	89 45 ec	 mov	 DWORD PTR $T2[ebp], eax
  000b1	c6 45 fc 03	 mov	 BYTE PTR __$EHRec$[ebp+8], 3
  000b5	85 c0		 test	 eax, eax
  000b7	74 1c		 je	 SHORT $LN3@CCampusHel
  000b9	8b c8		 mov	 ecx, eax
  000bb	e8 00 00 00 00	 call	 ??0CCampusMng@@QAE@XZ	; CCampusMng::CCampusMng
  000c0	89 07		 mov	 DWORD PTR [edi], eax

; 22   : }

  000c2	8b c7		 mov	 eax, edi
  000c4	8b 4d f4	 mov	 ecx, DWORD PTR __$EHRec$[ebp]
  000c7	64 89 0d 00 00
	00 00		 mov	 DWORD PTR fs:0, ecx
  000ce	59		 pop	 ecx
  000cf	5f		 pop	 edi
  000d0	5e		 pop	 esi
  000d1	8b e5		 mov	 esp, ebp
  000d3	5d		 pop	 ebp
  000d4	c3		 ret	 0
$LN3@CCampusHel:

; 21   : 	m_pCampusMng = new CCampusMng;

  000d5	c7 07 00 00 00
	00		 mov	 DWORD PTR [edi], 0

; 22   : }

  000db	8b c7		 mov	 eax, edi
  000dd	8b 4d f4	 mov	 ecx, DWORD PTR __$EHRec$[ebp]
  000e0	64 89 0d 00 00
	00 00		 mov	 DWORD PTR fs:0, ecx
  000e7	59		 pop	 ecx
  000e8	5f		 pop	 edi
  000e9	5e		 pop	 esi
  000ea	8b e5		 mov	 esp, ebp
  000ec	5d		 pop	 ebp
  000ed	c3		 ret	 0
_TEXT	ENDS
;	COMDAT text$x
text$x	SEGMENT
__unwindfunclet$??0CCampusHelper@@QAE@XZ$0:
  00000	8b 4d f0	 mov	 ecx, DWORD PTR _this$[ebp]
  00003	83 c1 0c	 add	 ecx, 12			; 0000000cH
  00006	e9 00 00 00 00	 jmp	 ??1?$vector@HV?$allocator@H@std@@@std@@QAE@XZ ; std::vector<int,std::allocator<int> >::~vector<int,std::allocator<int> >
__unwindfunclet$??0CCampusHelper@@QAE@XZ$1:
  0000b	8b 4d f0	 mov	 ecx, DWORD PTR _this$[ebp]
  0000e	83 c1 18	 add	 ecx, 24			; 00000018H
  00011	e9 00 00 00 00	 jmp	 ??1?$map@HKU?$less@H@std@@V?$allocator@U?$pair@$$CBHK@std@@@2@@std@@QAE@XZ
__unwindfunclet$??0CCampusHelper@@QAE@XZ$2:
  00016	8b 4d f0	 mov	 ecx, DWORD PTR _this$[ebp]
  00019	83 c1 20	 add	 ecx, 32			; 00000020H
  0001c	e9 00 00 00 00	 jmp	 ??1?$map@HUREWARD@CCampusHelper@@U?$less@H@std@@V?$allocator@U?$pair@$$CBHUREWARD@CCampusHelper@@@std@@@4@@std@@QAE@XZ
__unwindfunclet$??0CCampusHelper@@QAE@XZ$3:
  00021	6a 14		 push	 20			; 00000014H
  00023	8b 45 ec	 mov	 eax, DWORD PTR $T2[ebp]
  00026	50		 push	 eax
  00027	e8 00 00 00 00	 call	 ??3@YAXPAXI@Z		; operator delete
  0002c	83 c4 08	 add	 esp, 8
  0002f	c3		 ret	 0
  00030	cc		 int	 3
  00031	cc		 int	 3
  00032	cc		 int	 3
  00033	cc		 int	 3
  00034	cc		 int	 3
__ehhandler$??0CCampusHelper@@QAE@XZ:
  00035	90		 npad	 1
  00036	90		 npad	 1
  00037	8b 54 24 08	 mov	 edx, DWORD PTR [esp+8]
  0003b	8d 42 0c	 lea	 eax, DWORD PTR [edx+12]
  0003e	8b 4a ec	 mov	 ecx, DWORD PTR [edx-20]
  00041	33 c8		 xor	 ecx, eax
  00043	e8 00 00 00 00	 call	 @__security_check_cookie@4
  00048	b8 00 00 00 00	 mov	 eax, OFFSET __ehfuncinfo$??0CCampusHelper@@QAE@XZ
  0004d	e9 00 00 00 00	 jmp	 ___CxxFrameHandler3
text$x	ENDS
??0CCampusHelper@@QAE@XZ ENDP				; CCampusHelper::CCampusHelper
; Function compile flags: /Ogtp
; File C:\Program Files\Microsoft Visual Studio\2022\Professional\VC\Tools\MSVC\14.44.35207\include\xtree
;	COMDAT ??E?$_Tree_unchecked_const_iterator@V?$_Tree_val@U?$_Tree_simple_types@U?$pair@$$CBKK@std@@@std@@@std@@U_Iterator_base0@2@@std@@QAEAAV01@XZ
_TEXT	SEGMENT
??E?$_Tree_unchecked_const_iterator@V?$_Tree_val@U?$_Tree_simple_types@U?$pair@$$CBKK@std@@@std@@@std@@U_Iterator_base0@2@@std@@QAEAAV01@XZ PROC ; std::_Tree_unchecked_const_iterator<std::_Tree_val<std::_Tree_simple_types<std::pair<unsigned long const ,unsigned long> > >,std::_Iterator_base0>::operator++, COMDAT
; _this$ = ecx

; 49   :     _Tree_unchecked_const_iterator& operator++() noexcept {

  00000	56		 push	 esi
  00001	8b f1		 mov	 esi, ecx
  00003	57		 push	 edi

; 50   :         if (_Ptr->_Right->_Isnil) { // climb looking for right subtree

  00004	8b 16		 mov	 edx, DWORD PTR [esi]
  00006	8b 7a 08	 mov	 edi, DWORD PTR [edx+8]
  00009	80 7f 0d 00	 cmp	 BYTE PTR [edi+13], 0
  0000d	74 22		 je	 SHORT $LN4@operator

; 51   :             _Nodeptr _Pnode;
; 52   :             while (!(_Pnode = _Ptr->_Parent)->_Isnil && _Ptr == _Pnode->_Right) {

  0000f	8b 42 04	 mov	 eax, DWORD PTR [edx+4]
  00012	80 78 0d 00	 cmp	 BYTE PTR [eax+13], 0
  00016	75 12		 jne	 SHORT $LN21@operator
$LL2@operator:
  00018	3b 50 08	 cmp	 edx, DWORD PTR [eax+8]
  0001b	75 0d		 jne	 SHORT $LN21@operator

; 53   :                 _Ptr = _Pnode; // ==> parent while right subtree

  0001d	89 06		 mov	 DWORD PTR [esi], eax
  0001f	8b d0		 mov	 edx, eax
  00021	8b 40 04	 mov	 eax, DWORD PTR [eax+4]
  00024	80 78 0d 00	 cmp	 BYTE PTR [eax+13], 0
  00028	74 ee		 je	 SHORT $LL2@operator
$LN21@operator:

; 54   :             }
; 55   : 
; 56   :             _Ptr = _Pnode; // ==> parent (head if end())
; 57   :         } else {
; 58   :             _Ptr = _Mytree::_Min(_Ptr->_Right); // ==> smallest of right subtree
; 59   :         }
; 60   : 
; 61   :         return *this;

  0002a	89 06		 mov	 DWORD PTR [esi], eax

; 62   :     }

  0002c	8b c6		 mov	 eax, esi
  0002e	5f		 pop	 edi
  0002f	5e		 pop	 esi
  00030	c3		 ret	 0
$LN4@operator:

; 476  :         while (!_Pnode->_Left->_Isnil) {

  00031	8b 0f		 mov	 ecx, DWORD PTR [edi]
  00033	80 79 0d 00	 cmp	 BYTE PTR [ecx+13], 0
  00037	75 13		 jne	 SHORT $LN10@operator
  00039	0f 1f 80 00 00
	00 00		 npad	 7
$LL9@operator:
  00040	8b 01		 mov	 eax, DWORD PTR [ecx]

; 477  :             _Pnode = _Pnode->_Left;

  00042	8b f9		 mov	 edi, ecx
  00044	8b c8		 mov	 ecx, eax
  00046	80 78 0d 00	 cmp	 BYTE PTR [eax+13], 0
  0004a	74 f4		 je	 SHORT $LL9@operator
$LN10@operator:

; 54   :             }
; 55   : 
; 56   :             _Ptr = _Pnode; // ==> parent (head if end())
; 57   :         } else {
; 58   :             _Ptr = _Mytree::_Min(_Ptr->_Right); // ==> smallest of right subtree
; 59   :         }
; 60   : 
; 61   :         return *this;

  0004c	89 3e		 mov	 DWORD PTR [esi], edi

; 62   :     }

  0004e	8b c6		 mov	 eax, esi
  00050	5f		 pop	 edi
  00051	5e		 pop	 esi
  00052	c3		 ret	 0
??E?$_Tree_unchecked_const_iterator@V?$_Tree_val@U?$_Tree_simple_types@U?$pair@$$CBKK@std@@@std@@@std@@U_Iterator_base0@2@@std@@QAEAAV01@XZ ENDP ; std::_Tree_unchecked_const_iterator<std::_Tree_val<std::_Tree_simple_types<std::pair<unsigned long const ,unsigned long> > >,std::_Iterator_base0>::operator++
_TEXT	ENDS
; Function compile flags: /Ogtp
; File C:\Program Files\Microsoft Visual Studio\2022\Professional\VC\Tools\MSVC\14.44.35207\include\xtree
; File C:\Program Files\Microsoft Visual Studio\2022\Professional\VC\Tools\MSVC\14.44.35207\include\utility
; File C:\Program Files\Microsoft Visual Studio\2022\Professional\VC\Tools\MSVC\14.44.35207\include\xtree
;	COMDAT ?_Extract@?$_Tree_val@U?$_Tree_simple_types@U?$pair@$$CBKK@std@@@std@@@std@@QAEPAU?$_Tree_node@U?$pair@$$CBKK@std@@PAX@2@V?$_Tree_unchecked_const_iterator@V?$_Tree_val@U?$_Tree_simple_types@U?$pair@$$CBKK@std@@@std@@@std@@U_Iterator_base0@2@@2@@Z
_TEXT	SEGMENT
tv1039 = -16						; size = 4
tv1073 = -12						; size = 4
tv1093 = -12						; size = 4
$T1 = -12						; size = 4
__Erasednode$1$ = -8					; size = 4
_this$1$ = -4						; size = 4
__Where$ = 8						; size = 4
?_Extract@?$_Tree_val@U?$_Tree_simple_types@U?$pair@$$CBKK@std@@@std@@@std@@QAEPAU?$_Tree_node@U?$pair@$$CBKK@std@@PAX@2@V?$_Tree_unchecked_const_iterator@V?$_Tree_val@U?$_Tree_simple_types@U?$pair@$$CBKK@std@@@std@@@std@@U_Iterator_base0@2@@2@@Z PROC ; std::_Tree_val<std::_Tree_simple_types<std::pair<unsigned long const ,unsigned long> > >::_Extract, COMDAT
; _this$ = ecx

; 527  :     _Nodeptr _Extract(_Unchecked_const_iterator _Where) noexcept {

  00000	55		 push	 ebp
  00001	8b ec		 mov	 ebp, esp
  00003	83 ec 10	 sub	 esp, 16			; 00000010H

; 528  :         _Nodeptr _Erasednode = _Where._Ptr; // node to erase

  00006	8b 45 08	 mov	 eax, DWORD PTR __Where$[ebp]
  00009	53		 push	 ebx
  0000a	56		 push	 esi
  0000b	8b d9		 mov	 ebx, ecx
  0000d	89 45 f8	 mov	 DWORD PTR __Erasednode$1$[ebp], eax
  00010	57		 push	 edi

; 529  :         ++_Where; // save successor iterator for return

  00011	8d 4d 08	 lea	 ecx, DWORD PTR __Where$[ebp]
  00014	89 5d fc	 mov	 DWORD PTR _this$1$[ebp], ebx
  00017	e8 00 00 00 00	 call	 ??E?$_Tree_unchecked_const_iterator@V?$_Tree_val@U?$_Tree_simple_types@U?$pair@$$CBKK@std@@@std@@@std@@U_Iterator_base0@2@@std@@QAEAAV01@XZ ; std::_Tree_unchecked_const_iterator<std::_Tree_val<std::_Tree_simple_types<std::pair<unsigned long const ,unsigned long> > >,std::_Iterator_base0>::operator++

; 530  : 
; 531  :         _Nodeptr _Fixnode; // the node to recolor as needed
; 532  :         _Nodeptr _Fixnodeparent; // parent of _Fixnode (which may be nil)
; 533  :         _Nodeptr _Pnode = _Erasednode;
; 534  : 
; 535  :         if (_Pnode->_Left->_Isnil) {

  0001c	8b 4d f8	 mov	 ecx, DWORD PTR __Erasednode$1$[ebp]
  0001f	8b 01		 mov	 eax, DWORD PTR [ecx]
  00021	8b 79 08	 mov	 edi, DWORD PTR [ecx+8]
  00024	80 78 0d 00	 cmp	 BYTE PTR [eax+13], 0
  00028	75 18		 jne	 SHORT $LN94@Extract

; 536  :             _Fixnode = _Pnode->_Right; // stitch up right subtree
; 537  :         } else if (_Pnode->_Right->_Isnil) {

  0002a	80 7f 0d 00	 cmp	 BYTE PTR [edi+13], 0
  0002e	74 04		 je	 SHORT $LN7@Extract

; 538  :             _Fixnode = _Pnode->_Left; // stitch up left subtree

  00030	8b f8		 mov	 edi, eax

; 539  :         } else { // two subtrees, must lift successor node to replace erased

  00032	eb 0e		 jmp	 SHORT $LN94@Extract
$LN7@Extract:

; 540  :             _Pnode   = _Where._Ptr; // _Pnode is successor node

  00034	8b 55 08	 mov	 edx, DWORD PTR __Where$[ebp]

; 541  :             _Fixnode = _Pnode->_Right; // _Fixnode is only subtree

  00037	8b 7a 08	 mov	 edi, DWORD PTR [edx+8]
  0003a	3b d1		 cmp	 edx, ecx

; 542  :         }
; 543  : 
; 544  :         if (_Pnode == _Erasednode) { // at most one subtree, relink it

  0003c	0f 85 91 00 00
	00		 jne	 $LN9@Extract
$LN94@Extract:

; 545  :             _Fixnodeparent = _Erasednode->_Parent;
; 546  :             if (!_Fixnode->_Isnil) {

  00042	80 7f 0d 00	 cmp	 BYTE PTR [edi+13], 0
  00046	8b 71 04	 mov	 esi, DWORD PTR [ecx+4]
  00049	75 03		 jne	 SHORT $LN11@Extract

; 547  :                 _Fixnode->_Parent = _Fixnodeparent; // link up

  0004b	89 77 04	 mov	 DWORD PTR [edi+4], esi
$LN11@Extract:

; 548  :             }
; 549  : 
; 550  :             if (_Myhead->_Parent == _Erasednode) {

  0004e	8b 03		 mov	 eax, DWORD PTR [ebx]
  00050	39 48 04	 cmp	 DWORD PTR [eax+4], ecx
  00053	75 05		 jne	 SHORT $LN12@Extract

; 551  :                 _Myhead->_Parent = _Fixnode; // link down from root

  00055	89 78 04	 mov	 DWORD PTR [eax+4], edi
  00058	eb 0b		 jmp	 SHORT $LN15@Extract
$LN12@Extract:

; 552  :             } else if (_Fixnodeparent->_Left == _Erasednode) {

  0005a	39 0e		 cmp	 DWORD PTR [esi], ecx
  0005c	75 04		 jne	 SHORT $LN14@Extract

; 553  :                 _Fixnodeparent->_Left = _Fixnode; // link down to left

  0005e	89 3e		 mov	 DWORD PTR [esi], edi

; 554  :             } else {

  00060	eb 03		 jmp	 SHORT $LN15@Extract
$LN14@Extract:

; 555  :                 _Fixnodeparent->_Right = _Fixnode; // link down to right

  00062	89 7e 08	 mov	 DWORD PTR [esi+8], edi
$LN15@Extract:

; 556  :             }
; 557  : 
; 558  :             if (_Myhead->_Left == _Erasednode) {

  00065	8b 03		 mov	 eax, DWORD PTR [ebx]
  00067	39 08		 cmp	 DWORD PTR [eax], ecx
  00069	75 28		 jne	 SHORT $LN16@Extract

; 559  :                 _Myhead->_Left = _Fixnode->_Isnil ? _Fixnodeparent // smallest is parent of erased node

  0006b	80 7f 0d 00	 cmp	 BYTE PTR [edi+13], 0
  0006f	74 04		 je	 SHORT $LN42@Extract
  00071	8b d6		 mov	 edx, esi
  00073	eb 1c		 jmp	 SHORT $LN43@Extract
$LN42@Extract:

; 476  :         while (!_Pnode->_Left->_Isnil) {

  00075	8b 0f		 mov	 ecx, DWORD PTR [edi]

; 559  :                 _Myhead->_Left = _Fixnode->_Isnil ? _Fixnodeparent // smallest is parent of erased node

  00077	8b d7		 mov	 edx, edi

; 476  :         while (!_Pnode->_Left->_Isnil) {

  00079	80 79 0d 00	 cmp	 BYTE PTR [ecx+13], 0
  0007d	75 0f		 jne	 SHORT $LN49@Extract
  0007f	90		 npad	 1
$LL48@Extract:
  00080	8b 01		 mov	 eax, DWORD PTR [ecx]

; 477  :             _Pnode = _Pnode->_Left;

  00082	8b d1		 mov	 edx, ecx
  00084	8b c8		 mov	 ecx, eax
  00086	80 78 0d 00	 cmp	 BYTE PTR [eax+13], 0
  0008a	74 f4		 je	 SHORT $LL48@Extract
  0008c	8b 03		 mov	 eax, DWORD PTR [ebx]
$LN49@Extract:
  0008e	8b 4d f8	 mov	 ecx, DWORD PTR __Erasednode$1$[ebp]
$LN43@Extract:

; 559  :                 _Myhead->_Left = _Fixnode->_Isnil ? _Fixnodeparent // smallest is parent of erased node

  00091	89 10		 mov	 DWORD PTR [eax], edx
$LN16@Extract:

; 560  :                                                   : _Min(_Fixnode); // smallest in relinked subtree
; 561  :             }
; 562  : 
; 563  :             if (_Myhead->_Right == _Erasednode) {

  00093	8b 13		 mov	 edx, DWORD PTR [ebx]
  00095	39 4a 08	 cmp	 DWORD PTR [edx+8], ecx
  00098	75 34		 jne	 SHORT $LN17@Extract

; 564  :                 _Myhead->_Right = _Fixnode->_Isnil ? _Fixnodeparent // largest is parent of erased node

  0009a	80 7f 0d 00	 cmp	 BYTE PTR [edi+13], 0
  0009e	74 0d		 je	 SHORT $LN44@Extract

; 565  :                                                    : _Max(_Fixnode); // largest in relinked subtree
; 566  :             }
; 567  :         } else { // erased has two subtrees, _Pnode is successor to erased

  000a0	8b 45 f8	 mov	 eax, DWORD PTR __Erasednode$1$[ebp]
  000a3	8b ce		 mov	 ecx, esi
  000a5	89 4a 08	 mov	 DWORD PTR [edx+8], ecx
  000a8	e9 94 00 00 00	 jmp	 $LN58@Extract
$LN44@Extract:

; 468  :         while (!_Pnode->_Right->_Isnil) {

  000ad	8b 47 08	 mov	 eax, DWORD PTR [edi+8]

; 564  :                 _Myhead->_Right = _Fixnode->_Isnil ? _Fixnodeparent // largest is parent of erased node

  000b0	8b cf		 mov	 ecx, edi

; 468  :         while (!_Pnode->_Right->_Isnil) {

  000b2	80 78 0d 00	 cmp	 BYTE PTR [eax+13], 0
  000b6	75 13		 jne	 SHORT $LN54@Extract
  000b8	0f 1f 84 00 00
	00 00 00	 npad	 8
$LL53@Extract:

; 469  :             _Pnode = _Pnode->_Right;

  000c0	8b c8		 mov	 ecx, eax
  000c2	8b 41 08	 mov	 eax, DWORD PTR [ecx+8]
  000c5	80 78 0d 00	 cmp	 BYTE PTR [eax+13], 0
  000c9	74 f5		 je	 SHORT $LL53@Extract
$LN54@Extract:

; 564  :                 _Myhead->_Right = _Fixnode->_Isnil ? _Fixnodeparent // largest is parent of erased node

  000cb	89 4a 08	 mov	 DWORD PTR [edx+8], ecx
$LN17@Extract:

; 565  :                                                    : _Max(_Fixnode); // largest in relinked subtree
; 566  :             }
; 567  :         } else { // erased has two subtrees, _Pnode is successor to erased

  000ce	8b 45 f8	 mov	 eax, DWORD PTR __Erasednode$1$[ebp]
  000d1	eb 6e		 jmp	 SHORT $LN58@Extract
$LN9@Extract:

; 568  :             _Erasednode->_Left->_Parent = _Pnode; // link left up

  000d3	89 50 04	 mov	 DWORD PTR [eax+4], edx

; 569  :             _Pnode->_Left               = _Erasednode->_Left; // link successor down

  000d6	8b 01		 mov	 eax, DWORD PTR [ecx]
  000d8	89 02		 mov	 DWORD PTR [edx], eax

; 570  : 
; 571  :             if (_Pnode == _Erasednode->_Right) {

  000da	8d 42 04	 lea	 eax, DWORD PTR [edx+4]
  000dd	89 45 f4	 mov	 DWORD PTR $T1[ebp], eax
  000e0	3b 51 08	 cmp	 edx, DWORD PTR [ecx+8]
  000e3	75 04		 jne	 SHORT $LN18@Extract

; 572  :                 _Fixnodeparent = _Pnode; // successor is next to erased

  000e5	8b f2		 mov	 esi, edx

; 573  :             } else { // successor further down, link in place of erased

  000e7	eb 1f		 jmp	 SHORT $LN19@Extract
$LN18@Extract:

; 574  :                 _Fixnodeparent = _Pnode->_Parent; // parent is successor's
; 575  :                 if (!_Fixnode->_Isnil) {

  000e9	80 7f 0d 00	 cmp	 BYTE PTR [edi+13], 0
  000ed	8b 30		 mov	 esi, DWORD PTR [eax]
  000ef	75 03		 jne	 SHORT $LN20@Extract

; 576  :                     _Fixnode->_Parent = _Fixnodeparent; // link fix up

  000f1	89 77 04	 mov	 DWORD PTR [edi+4], esi
$LN20@Extract:

; 577  :                 }
; 578  : 
; 579  :                 _Fixnodeparent->_Left        = _Fixnode; // link fix down

  000f4	89 3e		 mov	 DWORD PTR [esi], edi

; 580  :                 _Pnode->_Right               = _Erasednode->_Right; // link next down

  000f6	8b 41 08	 mov	 eax, DWORD PTR [ecx+8]
  000f9	89 42 08	 mov	 DWORD PTR [edx+8], eax

; 581  :                 _Erasednode->_Right->_Parent = _Pnode; // right up

  000fc	8b 41 08	 mov	 eax, DWORD PTR [ecx+8]
  000ff	89 50 04	 mov	 DWORD PTR [eax+4], edx
  00102	8d 42 04	 lea	 eax, DWORD PTR [edx+4]
  00105	89 45 f4	 mov	 DWORD PTR $T1[ebp], eax
$LN19@Extract:

; 582  :             }
; 583  : 
; 584  :             if (_Myhead->_Parent == _Erasednode) {

  00108	8b 03		 mov	 eax, DWORD PTR [ebx]
  0010a	39 48 04	 cmp	 DWORD PTR [eax+4], ecx
  0010d	75 05		 jne	 SHORT $LN21@Extract

; 585  :                 _Myhead->_Parent = _Pnode; // link down from root

  0010f	89 50 04	 mov	 DWORD PTR [eax+4], edx
  00112	eb 0e		 jmp	 SHORT $LN141@Extract
$LN21@Extract:

; 586  :             } else if (_Erasednode->_Parent->_Left == _Erasednode) {

  00114	8b 41 04	 mov	 eax, DWORD PTR [ecx+4]
  00117	39 08		 cmp	 DWORD PTR [eax], ecx
  00119	75 04		 jne	 SHORT $LN23@Extract

; 587  :                 _Erasednode->_Parent->_Left = _Pnode; // link down to left

  0011b	89 10		 mov	 DWORD PTR [eax], edx

; 588  :             } else {

  0011d	eb 03		 jmp	 SHORT $LN141@Extract
$LN23@Extract:

; 589  :                 _Erasednode->_Parent->_Right = _Pnode; // link down to right

  0011f	89 50 08	 mov	 DWORD PTR [eax+8], edx
$LN141@Extract:

; 590  :             }
; 591  : 
; 592  :             _Pnode->_Parent = _Erasednode->_Parent; // link successor up

  00122	b8 04 00 00 00	 mov	 eax, 4
  00127	8b 04 08	 mov	 eax, DWORD PTR [eax+ecx]
  0012a	8b 4d f4	 mov	 ecx, DWORD PTR $T1[ebp]
  0012d	89 01		 mov	 DWORD PTR [ecx], eax
; File C:\Program Files\Microsoft Visual Studio\2022\Professional\VC\Tools\MSVC\14.44.35207\include\utility

; 140  :     _Left    = _STD move(_Right);

  0012f	8b 45 f8	 mov	 eax, DWORD PTR __Erasednode$1$[ebp]
  00132	8a 4a 0c	 mov	 cl, BYTE PTR [edx+12]
  00135	8a 40 0c	 mov	 al, BYTE PTR [eax+12]
  00138	88 42 0c	 mov	 BYTE PTR [edx+12], al

; 141  :     _Right   = _STD move(_Tmp);

  0013b	8b 45 f8	 mov	 eax, DWORD PTR __Erasednode$1$[ebp]
  0013e	88 48 0c	 mov	 BYTE PTR [eax+12], cl
$LN58@Extract:
; File C:\Program Files\Microsoft Visual Studio\2022\Professional\VC\Tools\MSVC\14.44.35207\include\xtree

; 596  :         if (_Erasednode->_Color == _Black) { // erasing black link, must recolor/rebalance tree

  00141	80 78 0c 01	 cmp	 BYTE PTR [eax+12], 1
  00145	0f 85 ba 01 00
	00		 jne	 $LN25@Extract

; 597  :             for (; _Fixnode != _Myhead->_Parent && _Fixnode->_Color == _Black; _Fixnodeparent = _Fixnode->_Parent) {

  0014b	8b 03		 mov	 eax, DWORD PTR [ebx]
  0014d	3b 78 04	 cmp	 edi, DWORD PTR [eax+4]
  00150	0f 84 a8 01 00
	00		 je	 $LN3@Extract
  00156	80 7f 0c 01	 cmp	 BYTE PTR [edi+12], 1
  0015a	89 75 f4	 mov	 DWORD PTR tv1093[ebp], esi
  0015d	0f 85 9b 01 00
	00		 jne	 $LN3@Extract
$LL4@Extract:

; 598  :                 if (_Fixnode == _Fixnodeparent->_Left) { // fixup left subtree

  00163	8b 0e		 mov	 ecx, DWORD PTR [esi]
  00165	3b f9		 cmp	 edi, ecx
  00167	0f 85 be 00 00
	00		 jne	 $LN26@Extract

; 599  :                     _Pnode = _Fixnodeparent->_Right;

  0016d	8b 4e 08	 mov	 ecx, DWORD PTR [esi+8]

; 600  :                     if (_Pnode->_Color == _Red) { // rotate red up from right subtree

  00170	80 79 0c 00	 cmp	 BYTE PTR [ecx+12], 0
  00174	75 54		 jne	 SHORT $LN95@Extract

; 601  :                         _Pnode->_Color         = _Black;

  00176	c6 41 0c 01	 mov	 BYTE PTR [ecx+12], 1

; 484  :         _Nodeptr _Pnode    = _Wherenode->_Right;

  0017a	8b 4e 08	 mov	 ecx, DWORD PTR [esi+8]

; 602  :                         _Fixnodeparent->_Color = _Red;

  0017d	c6 46 0c 00	 mov	 BYTE PTR [esi+12], 0

; 485  :         _Wherenode->_Right = _Pnode->_Left;

  00181	8b 01		 mov	 eax, DWORD PTR [ecx]
  00183	89 46 08	 mov	 DWORD PTR [esi+8], eax

; 486  : 
; 487  :         if (!_Pnode->_Left->_Isnil) {

  00186	8b 01		 mov	 eax, DWORD PTR [ecx]
  00188	80 78 0d 00	 cmp	 BYTE PTR [eax+13], 0
  0018c	75 03		 jne	 SHORT $LN61@Extract

; 488  :             _Pnode->_Left->_Parent = _Wherenode;

  0018e	89 70 04	 mov	 DWORD PTR [eax+4], esi
$LN61@Extract:

; 489  :         }
; 490  : 
; 491  :         _Pnode->_Parent = _Wherenode->_Parent;

  00191	8b 46 04	 mov	 eax, DWORD PTR [esi+4]
  00194	8d 56 04	 lea	 edx, DWORD PTR [esi+4]
  00197	89 41 04	 mov	 DWORD PTR [ecx+4], eax

; 492  : 
; 493  :         if (_Wherenode == _Myhead->_Parent) {

  0019a	8b 03		 mov	 eax, DWORD PTR [ebx]
  0019c	3b 70 04	 cmp	 esi, DWORD PTR [eax+4]
  0019f	75 0c		 jne	 SHORT $LN62@Extract

; 494  :             _Myhead->_Parent = _Pnode;

  001a1	89 48 04	 mov	 DWORD PTR [eax+4], ecx

; 499  :         }
; 500  : 
; 501  :         _Pnode->_Left       = _Wherenode;

  001a4	89 31		 mov	 DWORD PTR [ecx], esi

; 502  :         _Wherenode->_Parent = _Pnode;

  001a6	89 0a		 mov	 DWORD PTR [edx], ecx

; 603  :                         _Lrotate(_Fixnodeparent);
; 604  :                         _Pnode = _Fixnodeparent->_Right;

  001a8	8b 4e 08	 mov	 ecx, DWORD PTR [esi+8]
  001ab	eb 20		 jmp	 SHORT $LN87@Extract
$LN62@Extract:

; 495  :         } else if (_Wherenode == _Wherenode->_Parent->_Left) {

  001ad	8b 02		 mov	 eax, DWORD PTR [edx]
  001af	3b 30		 cmp	 esi, DWORD PTR [eax]
  001b1	75 0b		 jne	 SHORT $LN64@Extract

; 496  :             _Wherenode->_Parent->_Left = _Pnode;

  001b3	89 08		 mov	 DWORD PTR [eax], ecx

; 499  :         }
; 500  : 
; 501  :         _Pnode->_Left       = _Wherenode;

  001b5	89 31		 mov	 DWORD PTR [ecx], esi

; 502  :         _Wherenode->_Parent = _Pnode;

  001b7	89 0a		 mov	 DWORD PTR [edx], ecx

; 603  :                         _Lrotate(_Fixnodeparent);
; 604  :                         _Pnode = _Fixnodeparent->_Right;

  001b9	8b 4e 08	 mov	 ecx, DWORD PTR [esi+8]
  001bc	eb 0f		 jmp	 SHORT $LN87@Extract
$LN64@Extract:

; 498  :             _Wherenode->_Parent->_Right = _Pnode;

  001be	89 48 08	 mov	 DWORD PTR [eax+8], ecx

; 499  :         }
; 500  : 
; 501  :         _Pnode->_Left       = _Wherenode;

  001c1	89 31		 mov	 DWORD PTR [ecx], esi

; 502  :         _Wherenode->_Parent = _Pnode;

  001c3	89 0a		 mov	 DWORD PTR [edx], ecx

; 603  :                         _Lrotate(_Fixnodeparent);
; 604  :                         _Pnode = _Fixnodeparent->_Right;

  001c5	8b 4e 08	 mov	 ecx, DWORD PTR [esi+8]
  001c8	eb 03		 jmp	 SHORT $LN87@Extract
$LN95@Extract:
  001ca	8d 56 04	 lea	 edx, DWORD PTR [esi+4]
$LN87@Extract:

; 605  :                     }
; 606  : 
; 607  :                     if (_Pnode->_Isnil) {

  001cd	80 79 0d 00	 cmp	 BYTE PTR [ecx+13], 0
  001d1	0f 85 d0 00 00
	00		 jne	 $LN2@Extract

; 608  :                         _Fixnode = _Fixnodeparent; // shouldn't happen
; 609  :                     } else if (_Pnode->_Left->_Color == _Black
; 610  :                                && _Pnode->_Right->_Color == _Black) { // redden right subtree with black children

  001d7	8b 01		 mov	 eax, DWORD PTR [ecx]
  001d9	80 78 0c 01	 cmp	 BYTE PTR [eax+12], 1
  001dd	75 0d		 jne	 SHORT $LN97@Extract
  001df	8b 41 08	 mov	 eax, DWORD PTR [ecx+8]
  001e2	80 78 0c 01	 cmp	 BYTE PTR [eax+12], 1
  001e6	0f 84 b4 00 00
	00		 je	 $LN142@Extract
$LN97@Extract:

; 611  :                         _Pnode->_Color = _Red;
; 612  :                         _Fixnode       = _Fixnodeparent;
; 613  :                     } else { // must rearrange right subtree
; 614  :                         if (_Pnode->_Right->_Color == _Black) { // rotate red up from left sub-subtree

  001ec	8b 41 08	 mov	 eax, DWORD PTR [ecx+8]
  001ef	8b 5d fc	 mov	 ebx, DWORD PTR _this$1$[ebp]
  001f2	80 78 0c 01	 cmp	 BYTE PTR [eax+12], 1
  001f6	75 15		 jne	 SHORT $LN33@Extract

; 615  :                             _Pnode->_Left->_Color = _Black;

  001f8	8b 01		 mov	 eax, DWORD PTR [ecx]

; 616  :                             _Pnode->_Color        = _Red;
; 617  :                             _Rrotate(_Pnode);

  001fa	51		 push	 ecx
  001fb	c6 40 0c 01	 mov	 BYTE PTR [eax+12], 1
  001ff	c6 41 0c 00	 mov	 BYTE PTR [ecx+12], 0
  00203	8b cb		 mov	 ecx, ebx
  00205	e8 00 00 00 00	 call	 ?_Rrotate@?$_Tree_val@U?$_Tree_simple_types@U?$pair@$$CBKK@std@@@std@@@std@@QAEXPAU?$_Tree_node@U?$pair@$$CBKK@std@@PAX@2@@Z ; std::_Tree_val<std::_Tree_simple_types<std::pair<unsigned long const ,unsigned long> > >::_Rrotate

; 618  :                             _Pnode = _Fixnodeparent->_Right;

  0020a	8b 4e 08	 mov	 ecx, DWORD PTR [esi+8]
$LN33@Extract:

; 619  :                         }
; 620  : 
; 621  :                         _Pnode->_Color         = _Fixnodeparent->_Color;

  0020d	8a 46 0c	 mov	 al, BYTE PTR [esi+12]
  00210	88 41 0c	 mov	 BYTE PTR [ecx+12], al

; 622  :                         _Fixnodeparent->_Color = _Black;

  00213	c6 46 0c 01	 mov	 BYTE PTR [esi+12], 1

; 623  :                         _Pnode->_Right->_Color = _Black;

  00217	8b 41 08	 mov	 eax, DWORD PTR [ecx+8]

; 624  :                         _Lrotate(_Fixnodeparent);

  0021a	8b cb		 mov	 ecx, ebx
  0021c	56		 push	 esi
  0021d	c6 40 0c 01	 mov	 BYTE PTR [eax+12], 1
  00221	e8 00 00 00 00	 call	 ?_Lrotate@?$_Tree_val@U?$_Tree_simple_types@U?$pair@$$CBKK@std@@@std@@@std@@QAEXPAU?$_Tree_node@U?$pair@$$CBKK@std@@PAX@2@@Z ; std::_Tree_val<std::_Tree_simple_types<std::pair<unsigned long const ,unsigned long> > >::_Lrotate

; 625  :                         break; // tree now recolored/rebalanced

  00226	e9 d3 00 00 00	 jmp	 $LN3@Extract
$LN26@Extract:

; 626  :                     }
; 627  :                 } else { // fixup right subtree
; 628  :                     _Pnode = _Fixnodeparent->_Left;
; 629  :                     if (_Pnode->_Color == _Red) { // rotate red up from left subtree

  0022b	80 79 0c 00	 cmp	 BYTE PTR [ecx+12], 0
  0022f	75 55		 jne	 SHORT $LN96@Extract

; 630  :                         _Pnode->_Color         = _Black;

  00231	c6 41 0c 01	 mov	 BYTE PTR [ecx+12], 1

; 506  :         _Nodeptr _Pnode   = _Wherenode->_Left;

  00235	8b 0e		 mov	 ecx, DWORD PTR [esi]

; 631  :                         _Fixnodeparent->_Color = _Red;

  00237	c6 46 0c 00	 mov	 BYTE PTR [esi+12], 0

; 507  :         _Wherenode->_Left = _Pnode->_Right;

  0023b	8b 41 08	 mov	 eax, DWORD PTR [ecx+8]
  0023e	89 06		 mov	 DWORD PTR [esi], eax

; 508  : 
; 509  :         if (!_Pnode->_Right->_Isnil) {

  00240	8b 41 08	 mov	 eax, DWORD PTR [ecx+8]
  00243	80 78 0d 00	 cmp	 BYTE PTR [eax+13], 0
  00247	75 03		 jne	 SHORT $LN69@Extract

; 510  :             _Pnode->_Right->_Parent = _Wherenode;

  00249	89 70 04	 mov	 DWORD PTR [eax+4], esi
$LN69@Extract:

; 511  :         }
; 512  : 
; 513  :         _Pnode->_Parent = _Wherenode->_Parent;

  0024c	8b 46 04	 mov	 eax, DWORD PTR [esi+4]
  0024f	8d 56 04	 lea	 edx, DWORD PTR [esi+4]
  00252	89 41 04	 mov	 DWORD PTR [ecx+4], eax

; 514  : 
; 515  :         if (_Wherenode == _Myhead->_Parent) {

  00255	8b 03		 mov	 eax, DWORD PTR [ebx]
  00257	3b 70 04	 cmp	 esi, DWORD PTR [eax+4]
  0025a	75 0c		 jne	 SHORT $LN70@Extract

; 516  :             _Myhead->_Parent = _Pnode;

  0025c	89 48 04	 mov	 DWORD PTR [eax+4], ecx

; 521  :         }
; 522  : 
; 523  :         _Pnode->_Right      = _Wherenode;

  0025f	89 71 08	 mov	 DWORD PTR [ecx+8], esi

; 524  :         _Wherenode->_Parent = _Pnode;

  00262	89 0a		 mov	 DWORD PTR [edx], ecx

; 632  :                         _Rrotate(_Fixnodeparent);
; 633  :                         _Pnode = _Fixnodeparent->_Left;

  00264	8b 0e		 mov	 ecx, DWORD PTR [esi]
  00266	eb 21		 jmp	 SHORT $LN86@Extract
$LN70@Extract:

; 517  :         } else if (_Wherenode == _Wherenode->_Parent->_Right) {

  00268	8b 02		 mov	 eax, DWORD PTR [edx]
  0026a	3b 70 08	 cmp	 esi, DWORD PTR [eax+8]
  0026d	75 0c		 jne	 SHORT $LN72@Extract

; 518  :             _Wherenode->_Parent->_Right = _Pnode;

  0026f	89 48 08	 mov	 DWORD PTR [eax+8], ecx

; 521  :         }
; 522  : 
; 523  :         _Pnode->_Right      = _Wherenode;

  00272	89 71 08	 mov	 DWORD PTR [ecx+8], esi

; 524  :         _Wherenode->_Parent = _Pnode;

  00275	89 0a		 mov	 DWORD PTR [edx], ecx

; 632  :                         _Rrotate(_Fixnodeparent);
; 633  :                         _Pnode = _Fixnodeparent->_Left;

  00277	8b 0e		 mov	 ecx, DWORD PTR [esi]
  00279	eb 0e		 jmp	 SHORT $LN86@Extract
$LN72@Extract:

; 520  :             _Wherenode->_Parent->_Left = _Pnode;

  0027b	89 08		 mov	 DWORD PTR [eax], ecx

; 521  :         }
; 522  : 
; 523  :         _Pnode->_Right      = _Wherenode;

  0027d	89 71 08	 mov	 DWORD PTR [ecx+8], esi

; 524  :         _Wherenode->_Parent = _Pnode;

  00280	89 0a		 mov	 DWORD PTR [edx], ecx

; 632  :                         _Rrotate(_Fixnodeparent);
; 633  :                         _Pnode = _Fixnodeparent->_Left;

  00282	8b 0e		 mov	 ecx, DWORD PTR [esi]
  00284	eb 03		 jmp	 SHORT $LN86@Extract
$LN96@Extract:
  00286	8d 56 04	 lea	 edx, DWORD PTR [esi+4]
$LN86@Extract:

; 634  :                     }
; 635  : 
; 636  :                     if (_Pnode->_Isnil) {

  00289	80 79 0d 00	 cmp	 BYTE PTR [ecx+13], 0
  0028d	75 18		 jne	 SHORT $LN2@Extract

; 637  :                         _Fixnode = _Fixnodeparent; // shouldn't happen
; 638  :                     } else if (_Pnode->_Right->_Color == _Black
; 639  :                                && _Pnode->_Left->_Color == _Black) { // redden left subtree with black children

  0028f	8b 59 08	 mov	 ebx, DWORD PTR [ecx+8]
  00292	80 7b 0c 01	 cmp	 BYTE PTR [ebx+12], 1
  00296	75 2c		 jne	 SHORT $LN98@Extract
  00298	8b 01		 mov	 eax, DWORD PTR [ecx]
  0029a	80 78 0c 01	 cmp	 BYTE PTR [eax+12], 1
  0029e	75 24		 jne	 SHORT $LN98@Extract
$LN142@Extract:

; 597  :             for (; _Fixnode != _Myhead->_Parent && _Fixnode->_Color == _Black; _Fixnodeparent = _Fixnode->_Parent) {

  002a0	8b 5d fc	 mov	 ebx, DWORD PTR _this$1$[ebp]
  002a3	c6 41 0c 00	 mov	 BYTE PTR [ecx+12], 0
$LN2@Extract:
  002a7	8b 03		 mov	 eax, DWORD PTR [ebx]
  002a9	8b 4d f4	 mov	 ecx, DWORD PTR tv1093[ebp]
  002ac	8b f9		 mov	 edi, ecx
  002ae	8b 32		 mov	 esi, DWORD PTR [edx]
  002b0	3b 48 04	 cmp	 ecx, DWORD PTR [eax+4]
  002b3	74 49		 je	 SHORT $LN3@Extract
  002b5	80 7f 0c 01	 cmp	 BYTE PTR [edi+12], 1
  002b9	89 75 f4	 mov	 DWORD PTR tv1093[ebp], esi
  002bc	0f 84 a1 fe ff
	ff		 je	 $LL4@Extract
  002c2	eb 3a		 jmp	 SHORT $LN3@Extract
$LN98@Extract:

; 640  :                         _Pnode->_Color = _Red;
; 641  :                         _Fixnode       = _Fixnodeparent;
; 642  :                     } else { // must rearrange left subtree
; 643  :                         if (_Pnode->_Left->_Color == _Black) { // rotate red up from right sub-subtree

  002c4	8b 01		 mov	 eax, DWORD PTR [ecx]
  002c6	80 78 0c 01	 cmp	 BYTE PTR [eax+12], 1
  002ca	75 17		 jne	 SHORT $LN101@Extract

; 644  :                             _Pnode->_Right->_Color = _Black;

  002cc	c6 43 0c 01	 mov	 BYTE PTR [ebx+12], 1

; 645  :                             _Pnode->_Color         = _Red;
; 646  :                             _Lrotate(_Pnode);

  002d0	8b 5d fc	 mov	 ebx, DWORD PTR _this$1$[ebp]
  002d3	c6 41 0c 00	 mov	 BYTE PTR [ecx+12], 0
  002d7	51		 push	 ecx
  002d8	8b cb		 mov	 ecx, ebx
  002da	e8 00 00 00 00	 call	 ?_Lrotate@?$_Tree_val@U?$_Tree_simple_types@U?$pair@$$CBKK@std@@@std@@@std@@QAEXPAU?$_Tree_node@U?$pair@$$CBKK@std@@PAX@2@@Z ; std::_Tree_val<std::_Tree_simple_types<std::pair<unsigned long const ,unsigned long> > >::_Lrotate

; 647  :                             _Pnode = _Fixnodeparent->_Left;

  002df	8b 0e		 mov	 ecx, DWORD PTR [esi]
  002e1	eb 03		 jmp	 SHORT $LN39@Extract
$LN101@Extract:

; 640  :                         _Pnode->_Color = _Red;
; 641  :                         _Fixnode       = _Fixnodeparent;
; 642  :                     } else { // must rearrange left subtree
; 643  :                         if (_Pnode->_Left->_Color == _Black) { // rotate red up from right sub-subtree

  002e3	8b 5d fc	 mov	 ebx, DWORD PTR _this$1$[ebp]
$LN39@Extract:

; 648  :                         }
; 649  : 
; 650  :                         _Pnode->_Color         = _Fixnodeparent->_Color;

  002e6	8a 46 0c	 mov	 al, BYTE PTR [esi+12]
  002e9	88 41 0c	 mov	 BYTE PTR [ecx+12], al

; 651  :                         _Fixnodeparent->_Color = _Black;

  002ec	c6 46 0c 01	 mov	 BYTE PTR [esi+12], 1

; 652  :                         _Pnode->_Left->_Color  = _Black;

  002f0	8b 01		 mov	 eax, DWORD PTR [ecx]

; 653  :                         _Rrotate(_Fixnodeparent);

  002f2	8b cb		 mov	 ecx, ebx
  002f4	56		 push	 esi
  002f5	c6 40 0c 01	 mov	 BYTE PTR [eax+12], 1
  002f9	e8 00 00 00 00	 call	 ?_Rrotate@?$_Tree_val@U?$_Tree_simple_types@U?$pair@$$CBKK@std@@@std@@@std@@QAEXPAU?$_Tree_node@U?$pair@$$CBKK@std@@PAX@2@@Z ; std::_Tree_val<std::_Tree_simple_types<std::pair<unsigned long const ,unsigned long> > >::_Rrotate
$LN3@Extract:

; 654  :                         break; // tree now recolored/rebalanced
; 655  :                     }
; 656  :                 }
; 657  :             }
; 658  : 
; 659  :             _Fixnode->_Color = _Black; // stopping node is black

  002fe	8b 45 f8	 mov	 eax, DWORD PTR __Erasednode$1$[ebp]
  00301	c6 47 0c 01	 mov	 BYTE PTR [edi+12], 1
$LN25@Extract:

; 660  :         }
; 661  : 
; 662  :         if (0 < _Mysize) {

  00305	8b 4b 04	 mov	 ecx, DWORD PTR [ebx+4]
  00308	85 c9		 test	 ecx, ecx
  0030a	74 04		 je	 SHORT $LN40@Extract

; 663  :             --_Mysize;

  0030c	49		 dec	 ecx
  0030d	89 4b 04	 mov	 DWORD PTR [ebx+4], ecx
$LN40@Extract:

; 664  :         }
; 665  : 
; 666  :         return _Erasednode;
; 667  :     }

  00310	5f		 pop	 edi
  00311	5e		 pop	 esi
  00312	5b		 pop	 ebx
  00313	8b e5		 mov	 esp, ebp
  00315	5d		 pop	 ebp
  00316	c2 04 00	 ret	 4
?_Extract@?$_Tree_val@U?$_Tree_simple_types@U?$pair@$$CBKK@std@@@std@@@std@@QAEPAU?$_Tree_node@U?$pair@$$CBKK@std@@PAX@2@V?$_Tree_unchecked_const_iterator@V?$_Tree_val@U?$_Tree_simple_types@U?$pair@$$CBKK@std@@@std@@@std@@U_Iterator_base0@2@@2@@Z ENDP ; std::_Tree_val<std::_Tree_simple_types<std::pair<unsigned long const ,unsigned long> > >::_Extract
_TEXT	ENDS
; Function compile flags: /Ogtp
; File C:\Program Files\Microsoft Visual Studio\2022\Professional\VC\Tools\MSVC\14.44.35207\include\xtree
;	COMDAT ?_Rrotate@?$_Tree_val@U?$_Tree_simple_types@U?$pair@$$CBKK@std@@@std@@@std@@QAEXPAU?$_Tree_node@U?$pair@$$CBKK@std@@PAX@2@@Z
_TEXT	SEGMENT
__Wherenode$ = 8					; size = 4
?_Rrotate@?$_Tree_val@U?$_Tree_simple_types@U?$pair@$$CBKK@std@@@std@@@std@@QAEXPAU?$_Tree_node@U?$pair@$$CBKK@std@@PAX@2@@Z PROC ; std::_Tree_val<std::_Tree_simple_types<std::pair<unsigned long const ,unsigned long> > >::_Rrotate, COMDAT
; _this$ = ecx

; 505  :     void _Rrotate(_Nodeptr _Wherenode) noexcept { // promote left node to root of subtree

  00000	55		 push	 ebp
  00001	8b ec		 mov	 ebp, esp

; 506  :         _Nodeptr _Pnode   = _Wherenode->_Left;

  00003	8b 55 08	 mov	 edx, DWORD PTR __Wherenode$[ebp]
  00006	56		 push	 esi
  00007	8b 32		 mov	 esi, DWORD PTR [edx]

; 507  :         _Wherenode->_Left = _Pnode->_Right;

  00009	8b 46 08	 mov	 eax, DWORD PTR [esi+8]
  0000c	89 02		 mov	 DWORD PTR [edx], eax

; 508  : 
; 509  :         if (!_Pnode->_Right->_Isnil) {

  0000e	8b 46 08	 mov	 eax, DWORD PTR [esi+8]
  00011	80 78 0d 00	 cmp	 BYTE PTR [eax+13], 0
  00015	75 03		 jne	 SHORT $LN2@Rrotate

; 510  :             _Pnode->_Right->_Parent = _Wherenode;

  00017	89 50 04	 mov	 DWORD PTR [eax+4], edx
$LN2@Rrotate:

; 511  :         }
; 512  : 
; 513  :         _Pnode->_Parent = _Wherenode->_Parent;

  0001a	8b 42 04	 mov	 eax, DWORD PTR [edx+4]
  0001d	89 46 04	 mov	 DWORD PTR [esi+4], eax

; 514  : 
; 515  :         if (_Wherenode == _Myhead->_Parent) {

  00020	8b 01		 mov	 eax, DWORD PTR [ecx]
  00022	3b 50 04	 cmp	 edx, DWORD PTR [eax+4]
  00025	75 0e		 jne	 SHORT $LN3@Rrotate

; 516  :             _Myhead->_Parent = _Pnode;

  00027	89 70 04	 mov	 DWORD PTR [eax+4], esi

; 521  :         }
; 522  : 
; 523  :         _Pnode->_Right      = _Wherenode;
; 524  :         _Wherenode->_Parent = _Pnode;
; 525  :     }

  0002a	89 56 08	 mov	 DWORD PTR [esi+8], edx
  0002d	89 72 04	 mov	 DWORD PTR [edx+4], esi
  00030	5e		 pop	 esi
  00031	5d		 pop	 ebp
  00032	c2 04 00	 ret	 4
$LN3@Rrotate:

; 517  :         } else if (_Wherenode == _Wherenode->_Parent->_Right) {

  00035	8b 42 04	 mov	 eax, DWORD PTR [edx+4]
  00038	3b 50 08	 cmp	 edx, DWORD PTR [eax+8]
  0003b	75 0e		 jne	 SHORT $LN5@Rrotate

; 518  :             _Wherenode->_Parent->_Right = _Pnode;

  0003d	89 70 08	 mov	 DWORD PTR [eax+8], esi

; 521  :         }
; 522  : 
; 523  :         _Pnode->_Right      = _Wherenode;
; 524  :         _Wherenode->_Parent = _Pnode;
; 525  :     }

  00040	89 56 08	 mov	 DWORD PTR [esi+8], edx
  00043	89 72 04	 mov	 DWORD PTR [edx+4], esi
  00046	5e		 pop	 esi
  00047	5d		 pop	 ebp
  00048	c2 04 00	 ret	 4
$LN5@Rrotate:

; 519  :         } else {
; 520  :             _Wherenode->_Parent->_Left = _Pnode;

  0004b	89 30		 mov	 DWORD PTR [eax], esi

; 521  :         }
; 522  : 
; 523  :         _Pnode->_Right      = _Wherenode;
; 524  :         _Wherenode->_Parent = _Pnode;
; 525  :     }

  0004d	89 56 08	 mov	 DWORD PTR [esi+8], edx
  00050	89 72 04	 mov	 DWORD PTR [edx+4], esi
  00053	5e		 pop	 esi
  00054	5d		 pop	 ebp
  00055	c2 04 00	 ret	 4
?_Rrotate@?$_Tree_val@U?$_Tree_simple_types@U?$pair@$$CBKK@std@@@std@@@std@@QAEXPAU?$_Tree_node@U?$pair@$$CBKK@std@@PAX@2@@Z ENDP ; std::_Tree_val<std::_Tree_simple_types<std::pair<unsigned long const ,unsigned long> > >::_Rrotate
_TEXT	ENDS
; Function compile flags: /Ogtp
; File C:\Program Files\Microsoft Visual Studio\2022\Professional\VC\Tools\MSVC\14.44.35207\include\xtree
;	COMDAT ?_Lrotate@?$_Tree_val@U?$_Tree_simple_types@U?$pair@$$CBKK@std@@@std@@@std@@QAEXPAU?$_Tree_node@U?$pair@$$CBKK@std@@PAX@2@@Z
_TEXT	SEGMENT
__Wherenode$ = 8					; size = 4
?_Lrotate@?$_Tree_val@U?$_Tree_simple_types@U?$pair@$$CBKK@std@@@std@@@std@@QAEXPAU?$_Tree_node@U?$pair@$$CBKK@std@@PAX@2@@Z PROC ; std::_Tree_val<std::_Tree_simple_types<std::pair<unsigned long const ,unsigned long> > >::_Lrotate, COMDAT
; _this$ = ecx

; 483  :     void _Lrotate(_Nodeptr _Wherenode) noexcept { // promote right node to root of subtree

  00000	55		 push	 ebp
  00001	8b ec		 mov	 ebp, esp

; 484  :         _Nodeptr _Pnode    = _Wherenode->_Right;

  00003	8b 55 08	 mov	 edx, DWORD PTR __Wherenode$[ebp]
  00006	56		 push	 esi
  00007	8b 72 08	 mov	 esi, DWORD PTR [edx+8]

; 485  :         _Wherenode->_Right = _Pnode->_Left;

  0000a	8b 06		 mov	 eax, DWORD PTR [esi]
  0000c	89 42 08	 mov	 DWORD PTR [edx+8], eax

; 486  : 
; 487  :         if (!_Pnode->_Left->_Isnil) {

  0000f	8b 06		 mov	 eax, DWORD PTR [esi]
  00011	80 78 0d 00	 cmp	 BYTE PTR [eax+13], 0
  00015	75 03		 jne	 SHORT $LN2@Lrotate

; 488  :             _Pnode->_Left->_Parent = _Wherenode;

  00017	89 50 04	 mov	 DWORD PTR [eax+4], edx
$LN2@Lrotate:

; 489  :         }
; 490  : 
; 491  :         _Pnode->_Parent = _Wherenode->_Parent;

  0001a	8b 42 04	 mov	 eax, DWORD PTR [edx+4]
  0001d	89 46 04	 mov	 DWORD PTR [esi+4], eax

; 492  : 
; 493  :         if (_Wherenode == _Myhead->_Parent) {

  00020	8b 01		 mov	 eax, DWORD PTR [ecx]
  00022	3b 50 04	 cmp	 edx, DWORD PTR [eax+4]
  00025	75 0d		 jne	 SHORT $LN3@Lrotate

; 494  :             _Myhead->_Parent = _Pnode;

  00027	89 70 04	 mov	 DWORD PTR [eax+4], esi

; 499  :         }
; 500  : 
; 501  :         _Pnode->_Left       = _Wherenode;
; 502  :         _Wherenode->_Parent = _Pnode;
; 503  :     }

  0002a	89 16		 mov	 DWORD PTR [esi], edx
  0002c	89 72 04	 mov	 DWORD PTR [edx+4], esi
  0002f	5e		 pop	 esi
  00030	5d		 pop	 ebp
  00031	c2 04 00	 ret	 4
$LN3@Lrotate:

; 495  :         } else if (_Wherenode == _Wherenode->_Parent->_Left) {

  00034	8b 42 04	 mov	 eax, DWORD PTR [edx+4]
  00037	3b 10		 cmp	 edx, DWORD PTR [eax]
  00039	75 0c		 jne	 SHORT $LN5@Lrotate

; 496  :             _Wherenode->_Parent->_Left = _Pnode;

  0003b	89 30		 mov	 DWORD PTR [eax], esi

; 499  :         }
; 500  : 
; 501  :         _Pnode->_Left       = _Wherenode;
; 502  :         _Wherenode->_Parent = _Pnode;
; 503  :     }

  0003d	89 16		 mov	 DWORD PTR [esi], edx
  0003f	89 72 04	 mov	 DWORD PTR [edx+4], esi
  00042	5e		 pop	 esi
  00043	5d		 pop	 ebp
  00044	c2 04 00	 ret	 4
$LN5@Lrotate:

; 497  :         } else {
; 498  :             _Wherenode->_Parent->_Right = _Pnode;

  00047	89 70 08	 mov	 DWORD PTR [eax+8], esi

; 499  :         }
; 500  : 
; 501  :         _Pnode->_Left       = _Wherenode;
; 502  :         _Wherenode->_Parent = _Pnode;
; 503  :     }

  0004a	89 16		 mov	 DWORD PTR [esi], edx
  0004c	89 72 04	 mov	 DWORD PTR [edx+4], esi
  0004f	5e		 pop	 esi
  00050	5d		 pop	 ebp
  00051	c2 04 00	 ret	 4
?_Lrotate@?$_Tree_val@U?$_Tree_simple_types@U?$pair@$$CBKK@std@@@std@@@std@@QAEXPAU?$_Tree_node@U?$pair@$$CBKK@std@@PAX@2@@Z ENDP ; std::_Tree_val<std::_Tree_simple_types<std::pair<unsigned long const ,unsigned long> > >::_Lrotate
_TEXT	ENDS
; Function compile flags: /Ogtp
; File C:\Program Files\Microsoft Visual Studio\2022\Professional\VC\Tools\MSVC\14.44.35207\include\xtree
; File C:\Program Files\Microsoft Visual Studio\2022\Professional\VC\Tools\MSVC\14.44.35207\include\type_traits
; File C:\Program Files\Microsoft Visual Studio\2022\Professional\VC\Tools\MSVC\14.44.35207\include\xtree
; File C:\Program Files\Microsoft Visual Studio\2022\Professional\VC\Tools\MSVC\14.44.35207\include\type_traits
; File C:\Program Files\Microsoft Visual Studio\2022\Professional\VC\Tools\MSVC\14.44.35207\include\xtree
; File C:\Program Files\Microsoft Visual Studio\2022\Professional\VC\Tools\MSVC\14.44.35207\include\type_traits
; File C:\Program Files\Microsoft Visual Studio\2022\Professional\VC\Tools\MSVC\14.44.35207\include\xtree
; File C:\Program Files\Microsoft Visual Studio\2022\Professional\VC\Tools\MSVC\14.44.35207\include\xutility
; File C:\Program Files\Microsoft Visual Studio\2022\Professional\VC\Tools\MSVC\14.44.35207\include\xtree
; File C:\Program Files\Microsoft Visual Studio\2022\Professional\VC\Tools\MSVC\14.44.35207\include\xutility
; File C:\Program Files\Microsoft Visual Studio\2022\Professional\VC\Tools\MSVC\14.44.35207\include\xtree
; File C:\Program Files\Microsoft Visual Studio\2022\Professional\VC\Tools\MSVC\14.44.35207\include\xutility
; File C:\Program Files\Microsoft Visual Studio\2022\Professional\VC\Tools\MSVC\14.44.35207\include\xtree
; File C:\Program Files\Microsoft Visual Studio\2022\Professional\VC\Tools\MSVC\14.44.35207\include\xutility
; File C:\Program Files\Microsoft Visual Studio\2022\Professional\VC\Tools\MSVC\14.44.35207\include\xtree
; File C:\Program Files\Microsoft Visual Studio\2022\Professional\VC\Tools\MSVC\14.44.35207\include\utility
; File C:\Program Files\Microsoft Visual Studio\2022\Professional\VC\Tools\MSVC\14.44.35207\include\xmemory
; File C:\Program Files\Microsoft Visual Studio\2022\Professional\VC\Tools\MSVC\14.44.35207\include\xtree
; File C:\Program Files\Microsoft Visual Studio\2022\Professional\VC\Tools\MSVC\14.44.35207\include\xmemory
; File C:\Program Files\Microsoft Visual Studio\2022\Professional\VC\Tools\MSVC\14.44.35207\include\xtree
; File C:\Program Files\Microsoft Visual Studio\2022\Professional\VC\Tools\MSVC\14.44.35207\include\xmemory
; File C:\Program Files\Microsoft Visual Studio\2022\Professional\VC\Tools\MSVC\14.44.35207\include\xtree
;	COMDAT ?erase@?$_Tree@V?$_Tmap_traits@KKU?$less@K@std@@V?$allocator@U?$pair@$$CBKK@std@@@2@$0A@@std@@@std@@QAEIABK@Z
_TEXT	SEGMENT
__First$ = -16						; size = 4
__Rootnode$1$ = -16					; size = 4
__Head$1$ = -12						; size = 4
_this$1$ = -8						; size = 4
tv820 = -1						; size = 1
__Keyval$ = 8						; size = 4
__Off$1$ = 8						; size = 4
?erase@?$_Tree@V?$_Tmap_traits@KKU?$less@K@std@@V?$allocator@U?$pair@$$CBKK@std@@@2@$0A@@std@@@std@@QAEIABK@Z PROC ; std::_Tree<std::_Tmap_traits<unsigned long,unsigned long,std::less<unsigned long>,std::allocator<std::pair<unsigned long const ,unsigned long> >,0> >::erase, COMDAT
; _this$ = ecx

; 1357 :     size_type erase(const key_type& _Keyval) noexcept(noexcept(_Eqrange(_Keyval))) /* strengthened */ {

  00000	55		 push	 ebp
  00001	8b ec		 mov	 ebp, esp
  00003	83 ec 10	 sub	 esp, 16			; 00000010H
  00006	8b c1		 mov	 eax, ecx
  00008	53		 push	 ebx
  00009	56		 push	 esi
  0000a	57		 push	 edi

; 1709 :         _Nodeptr _Pnode   = _Scary->_Myhead->_Parent;

  0000b	8b 38		 mov	 edi, DWORD PTR [eax]

; 1710 :         _Nodeptr _Lonode  = _Scary->_Myhead; // end() if search fails

  0000d	8b f7		 mov	 esi, edi

; 1357 :     size_type erase(const key_type& _Keyval) noexcept(noexcept(_Eqrange(_Keyval))) /* strengthened */ {

  0000f	89 45 f8	 mov	 DWORD PTR _this$1$[ebp], eax

; 1709 :         _Nodeptr _Pnode   = _Scary->_Myhead->_Parent;

  00012	89 7d f4	 mov	 DWORD PTR __Head$1$[ebp], edi
  00015	8b 5f 04	 mov	 ebx, DWORD PTR [edi+4]
  00018	8b c3		 mov	 eax, ebx
  0001a	89 5d f0	 mov	 DWORD PTR __Rootnode$1$[ebp], ebx

; 1711 :         _Nodeptr _Hinode  = _Scary->_Myhead; // end() if search fails
; 1712 : 
; 1713 :         while (!_Pnode->_Isnil) {

  0001d	8a 48 0d	 mov	 cl, BYTE PTR [eax+13]
  00020	88 4d ff	 mov	 BYTE PTR tv820[ebp], cl
  00023	84 c9		 test	 cl, cl
  00025	75 2a		 jne	 SHORT $LN6@erase
; File C:\Program Files\Microsoft Visual Studio\2022\Professional\VC\Tools\MSVC\14.44.35207\include\type_traits

; 2380 :         return _Left < _Right;

  00027	8b 55 08	 mov	 edx, DWORD PTR __Keyval$[ebp]
  0002a	8b 12		 mov	 edx, DWORD PTR [edx]
  0002c	0f 1f 40 00	 npad	 4
$LL5@erase:
  00030	8b 48 10	 mov	 ecx, DWORD PTR [eax+16]
  00033	3b ca		 cmp	 ecx, edx
; File C:\Program Files\Microsoft Visual Studio\2022\Professional\VC\Tools\MSVC\14.44.35207\include\xtree

; 1715 :             if (_DEBUG_LT_PRED(_Comp, _Nodekey, _Keyval)) {

  00035	73 05		 jae	 SHORT $LN9@erase

; 1716 :                 _Pnode = _Pnode->_Right; // descend right subtree

  00037	8b 40 08	 mov	 eax, DWORD PTR [eax+8]

; 1717 :             } else { // _Pnode not less than _Keyval, remember it

  0003a	eb 0f		 jmp	 SHORT $LN10@erase
$LN9@erase:

; 1718 :                 if (_Hinode->_Isnil && _DEBUG_LT_PRED(_Comp, _Keyval, _Nodekey)) {

  0003c	80 7f 0d 00	 cmp	 BYTE PTR [edi+13], 0
  00040	74 05		 je	 SHORT $LN11@erase
; File C:\Program Files\Microsoft Visual Studio\2022\Professional\VC\Tools\MSVC\14.44.35207\include\type_traits

; 2380 :         return _Left < _Right;

  00042	3b d1		 cmp	 edx, ecx
; File C:\Program Files\Microsoft Visual Studio\2022\Professional\VC\Tools\MSVC\14.44.35207\include\xtree

; 1718 :                 if (_Hinode->_Isnil && _DEBUG_LT_PRED(_Comp, _Keyval, _Nodekey)) {

  00044	0f 42 f8	 cmovb	 edi, eax
$LN11@erase:

; 1719 :                     _Hinode = _Pnode; // _Pnode greater, remember it
; 1720 :                 }
; 1721 : 
; 1722 :                 _Lonode = _Pnode;

  00047	8b f0		 mov	 esi, eax

; 1723 :                 _Pnode  = _Pnode->_Left; // descend left subtree

  00049	8b 00		 mov	 eax, DWORD PTR [eax]
$LN10@erase:

; 1711 :         _Nodeptr _Hinode  = _Scary->_Myhead; // end() if search fails
; 1712 : 
; 1713 :         while (!_Pnode->_Isnil) {

  0004b	80 78 0d 00	 cmp	 BYTE PTR [eax+13], 0
  0004f	74 df		 je	 SHORT $LL5@erase
$LN6@erase:

; 1724 :             }
; 1725 :         }
; 1726 : 
; 1727 :         _Pnode = _Hinode->_Isnil ? _Scary->_Myhead->_Parent : _Hinode->_Left; // continue scan for upper bound

  00051	80 7f 0d 00	 cmp	 BYTE PTR [edi+13], 0
  00055	8b c3		 mov	 eax, ebx
  00057	75 02		 jne	 SHORT $LN16@erase
  00059	8b 07		 mov	 eax, DWORD PTR [edi]
$LN16@erase:

; 1728 :         while (!_Pnode->_Isnil) {

  0005b	80 78 0d 00	 cmp	 BYTE PTR [eax+13], 0
  0005f	75 19		 jne	 SHORT $LN8@erase
; File C:\Program Files\Microsoft Visual Studio\2022\Professional\VC\Tools\MSVC\14.44.35207\include\type_traits

; 2380 :         return _Left < _Right;

  00061	8b 4d 08	 mov	 ecx, DWORD PTR __Keyval$[ebp]
  00064	8b 09		 mov	 ecx, DWORD PTR [ecx]
$LL7@erase:
  00066	3b 48 10	 cmp	 ecx, DWORD PTR [eax+16]
; File C:\Program Files\Microsoft Visual Studio\2022\Professional\VC\Tools\MSVC\14.44.35207\include\xtree

; 1729 :             if (_DEBUG_LT_PRED(_Getcomp(), _Keyval, _Traits::_Kfn(_Pnode->_Myval))) {

  00069	73 06		 jae	 SHORT $LN12@erase

; 1730 :                 // _Pnode greater than _Keyval, remember it
; 1731 :                 _Hinode = _Pnode;

  0006b	8b f8		 mov	 edi, eax

; 1732 :                 _Pnode  = _Pnode->_Left; // descend left subtree

  0006d	8b 00		 mov	 eax, DWORD PTR [eax]

; 1733 :             } else {

  0006f	eb 03		 jmp	 SHORT $LN13@erase
$LN12@erase:

; 1734 :                 _Pnode = _Pnode->_Right; // descend right subtree

  00071	8b 40 08	 mov	 eax, DWORD PTR [eax+8]
$LN13@erase:

; 1728 :         while (!_Pnode->_Isnil) {

  00074	80 78 0d 00	 cmp	 BYTE PTR [eax+13], 0
  00078	74 ec		 je	 SHORT $LL7@erase
$LN8@erase:
; File C:\Program Files\Microsoft Visual Studio\2022\Professional\VC\Tools\MSVC\14.44.35207\include\xutility

; 1667 :         _Iter_diff_t<_InIt> _Off = 0;

  0007a	33 c9		 xor	 ecx, ecx
  0007c	8b c6		 mov	 eax, esi
  0007e	89 4d 08	 mov	 DWORD PTR __Off$1$[ebp], ecx
; File C:\Program Files\Microsoft Visual Studio\2022\Professional\VC\Tools\MSVC\14.44.35207\include\xtree

; 101  :         return !(*this == _Right);

  00081	3b f7		 cmp	 esi, edi
; File C:\Program Files\Microsoft Visual Studio\2022\Professional\VC\Tools\MSVC\14.44.35207\include\xutility

; 1668 :         for (; _UFirst != _ULast; ++_UFirst) {

  00083	74 54		 je	 SHORT $LN41@erase
  00085	33 db		 xor	 ebx, ebx
$LL42@erase:
; File C:\Program Files\Microsoft Visual Studio\2022\Professional\VC\Tools\MSVC\14.44.35207\include\xtree

; 50   :         if (_Ptr->_Right->_Isnil) { // climb looking for right subtree

  00087	8b 48 08	 mov	 ecx, DWORD PTR [eax+8]
; File C:\Program Files\Microsoft Visual Studio\2022\Professional\VC\Tools\MSVC\14.44.35207\include\xutility

; 1669 :             ++_Off;

  0008a	43		 inc	 ebx
; File C:\Program Files\Microsoft Visual Studio\2022\Professional\VC\Tools\MSVC\14.44.35207\include\xtree

; 50   :         if (_Ptr->_Right->_Isnil) { // climb looking for right subtree

  0008b	80 79 0d 00	 cmp	 BYTE PTR [ecx+13], 0
  0008f	74 23		 je	 SHORT $LN47@erase

; 51   :             _Nodeptr _Pnode;
; 52   :             while (!(_Pnode = _Ptr->_Parent)->_Isnil && _Ptr == _Pnode->_Right) {

  00091	8b 48 04	 mov	 ecx, DWORD PTR [eax+4]
  00094	80 79 0d 00	 cmp	 BYTE PTR [ecx+13], 0
  00098	75 16		 jne	 SHORT $LN182@erase
  0009a	66 0f 1f 44 00
	00		 npad	 6
$LL45@erase:
  000a0	3b 41 08	 cmp	 eax, DWORD PTR [ecx+8]
  000a3	75 0b		 jne	 SHORT $LN182@erase

; 53   :                 _Ptr = _Pnode; // ==> parent while right subtree

  000a5	8b c1		 mov	 eax, ecx
  000a7	8b 49 04	 mov	 ecx, DWORD PTR [ecx+4]
  000aa	80 79 0d 00	 cmp	 BYTE PTR [ecx+13], 0
  000ae	74 f0		 je	 SHORT $LL45@erase
$LN182@erase:

; 54   :             }
; 55   : 
; 56   :             _Ptr = _Pnode; // ==> parent (head if end())

  000b0	8b c1		 mov	 eax, ecx

; 57   :         } else {

  000b2	eb 18		 jmp	 SHORT $LN53@erase
$LN47@erase:

; 58   :             _Ptr = _Mytree::_Min(_Ptr->_Right); // ==> smallest of right subtree

  000b4	8b c1		 mov	 eax, ecx

; 476  :         while (!_Pnode->_Left->_Isnil) {

  000b6	8b 10		 mov	 edx, DWORD PTR [eax]
  000b8	80 7a 0d 00	 cmp	 BYTE PTR [edx+13], 0
  000bc	75 0e		 jne	 SHORT $LN53@erase
  000be	66 90		 npad	 2
$LL52@erase:
  000c0	8b 0a		 mov	 ecx, DWORD PTR [edx]

; 477  :             _Pnode = _Pnode->_Left;

  000c2	8b c2		 mov	 eax, edx
  000c4	8b d1		 mov	 edx, ecx
  000c6	80 79 0d 00	 cmp	 BYTE PTR [ecx+13], 0
  000ca	74 f4		 je	 SHORT $LL52@erase
$LN53@erase:

; 101  :         return !(*this == _Right);

  000cc	3b c7		 cmp	 eax, edi
; File C:\Program Files\Microsoft Visual Studio\2022\Professional\VC\Tools\MSVC\14.44.35207\include\xutility

; 1668 :         for (; _UFirst != _ULast; ++_UFirst) {

  000ce	75 b7		 jne	 SHORT $LL42@erase
  000d0	89 5d 08	 mov	 DWORD PTR __Off$1$[ebp], ebx
  000d3	8b 5d f0	 mov	 ebx, DWORD PTR __Rootnode$1$[ebp]
  000d6	8b 4d 08	 mov	 ecx, DWORD PTR __Off$1$[ebp]
$LN41@erase:
; File C:\Program Files\Microsoft Visual Studio\2022\Professional\VC\Tools\MSVC\14.44.35207\include\xtree

; 96   :         return _Ptr == _Right._Ptr;

  000d9	8b 45 f4	 mov	 eax, DWORD PTR __Head$1$[ebp]

; 1329 :         _Erase_unchecked(_First, _Last);

  000dc	89 75 f0	 mov	 DWORD PTR __First$[ebp], esi

; 96   :         return _Ptr == _Right._Ptr;

  000df	3b 30		 cmp	 esi, DWORD PTR [eax]

; 1311 :         if (_First == _Begin && _Last._Ptr->_Isnil) {

  000e1	75 51		 jne	 SHORT $LN157@erase
  000e3	80 7f 0d 00	 cmp	 BYTE PTR [edi+13], 0
  000e7	74 4b		 je	 SHORT $LN157@erase

; 768  :         while (!_Rootnode->_Isnil) { // free subtrees, then node

  000e9	80 7d ff 00	 cmp	 BYTE PTR tv820[ebp], 0
  000ed	75 27		 jne	 SHORT $LN165@erase
  000ef	90		 npad	 1
$LL84@erase:

; 769  :             _Erase_tree(_Al, _Rootnode->_Right);

  000f0	ff 73 08	 push	 DWORD PTR [ebx+8]
  000f3	8b 45 f8	 mov	 eax, DWORD PTR _this$1$[ebp]
  000f6	8b c8		 mov	 ecx, eax
  000f8	50		 push	 eax
  000f9	e8 00 00 00 00	 call	 ??$_Erase_tree@V?$allocator@U?$_Tree_node@U?$pair@$$CBKK@std@@PAX@std@@@std@@@?$_Tree_val@U?$_Tree_simple_types@U?$pair@$$CBKK@std@@@std@@@std@@QAEXAAV?$allocator@U?$_Tree_node@U?$pair@$$CBKK@std@@PAX@std@@@1@PAU?$_Tree_node@U?$pair@$$CBKK@std@@PAX@1@@Z ; std::_Tree_val<std::_Tree_simple_types<std::pair<unsigned long const ,unsigned long> > >::_Erase_tree<std::allocator<std::_Tree_node<std::pair<unsigned long const ,unsigned long>,void *> > >
; File C:\Program Files\Microsoft Visual Studio\2022\Professional\VC\Tools\MSVC\14.44.35207\include\utility

; 773  :     _Ty _Old_val = static_cast<_Ty&&>(_Val);

  000fe	8b c3		 mov	 eax, ebx

; 774  :     _Val         = static_cast<_Other&&>(_New_val);

  00100	8b 1b		 mov	 ebx, DWORD PTR [ebx]
; File C:\Program Files\Microsoft Visual Studio\2022\Professional\VC\Tools\MSVC\14.44.35207\include\xmemory

; 289  :         ::operator delete(_Ptr, _Bytes);

  00102	6a 18		 push	 24			; 00000018H
  00104	50		 push	 eax
  00105	e8 00 00 00 00	 call	 ??3@YAXPAXI@Z		; operator delete
  0010a	83 c4 08	 add	 esp, 8
; File C:\Program Files\Microsoft Visual Studio\2022\Professional\VC\Tools\MSVC\14.44.35207\include\xtree

; 768  :         while (!_Rootnode->_Isnil) { // free subtrees, then node

  0010d	80 7b 0d 00	 cmp	 BYTE PTR [ebx+13], 0
  00111	74 dd		 je	 SHORT $LL84@erase
  00113	8b 45 f4	 mov	 eax, DWORD PTR __Head$1$[ebp]
$LN165@erase:

; 1378 :         _Scary->_Mysize = 0;

  00116	8b 5d f8	 mov	 ebx, DWORD PTR _this$1$[ebp]
  00119	5f		 pop	 edi

; 1360 : 
; 1361 : #if _HAS_CXX23
; 1362 :     template <class _Kx>
; 1363 :         requires _Is_transparent_v<key_compare> && (!is_convertible_v<_Kx, const_iterator>)
; 1364 :               && (!is_convertible_v<_Kx, iterator>)
; 1365 :     size_type erase(_Kx&& _Keyval) noexcept(noexcept(_Eqrange(_Keyval))) /* strengthened */ {
; 1366 :         return _Erase(_Eqrange(_Keyval));
; 1367 :     }
; 1368 : #endif // _HAS_CXX23
; 1369 : 
; 1370 :     void clear() noexcept {
; 1371 :         const auto _Scary = _Get_scary();
; 1372 :         _Scary->_Orphan_ptr(nullptr);
; 1373 :         auto _Head = _Scary->_Myhead;
; 1374 :         _Scary->_Erase_tree(_Getal(), _Head->_Parent);
; 1375 :         _Head->_Parent  = _Head;

  0011a	89 40 04	 mov	 DWORD PTR [eax+4], eax

; 1376 :         _Head->_Left    = _Head;

  0011d	89 00		 mov	 DWORD PTR [eax], eax

; 1377 :         _Head->_Right   = _Head;

  0011f	89 40 08	 mov	 DWORD PTR [eax+8], eax

; 1358 :         return _Erase(_Eqrange(_Keyval));

  00122	8b 45 08	 mov	 eax, DWORD PTR __Off$1$[ebp]

; 1359 :     }

  00125	5e		 pop	 esi

; 1378 :         _Scary->_Mysize = 0;

  00126	c7 43 04 00 00
	00 00		 mov	 DWORD PTR [ebx+4], 0

; 1359 :     }

  0012d	5b		 pop	 ebx
  0012e	8b e5		 mov	 esp, ebp
  00130	5d		 pop	 ebp
  00131	c2 04 00	 ret	 4
$LN157@erase:

; 101  :         return !(*this == _Right);

  00134	3b f7		 cmp	 esi, edi

; 1318 :         while (_First != _Last) {

  00136	74 36		 je	 SHORT $LN181@erase
  00138	8b 5d f8	 mov	 ebx, DWORD PTR _this$1$[ebp]
  0013b	0f 1f 44 00 00	 npad	 5
$LL63@erase:

; 66   :         ++*this;

  00140	8d 4d f0	 lea	 ecx, DWORD PTR __First$[ebp]
  00143	e8 00 00 00 00	 call	 ??E?$_Tree_unchecked_const_iterator@V?$_Tree_val@U?$_Tree_simple_types@U?$pair@$$CBKK@std@@@std@@@std@@U_Iterator_base0@2@@std@@QAEAAV01@XZ ; std::_Tree_unchecked_const_iterator<std::_Tree_val<std::_Tree_simple_types<std::pair<unsigned long const ,unsigned long> > >,std::_Iterator_base0>::operator++

; 1303 :         _Nodeptr _Erasednode = _Scary->_Extract(_Where); // node to erase

  00148	56		 push	 esi
  00149	8b cb		 mov	 ecx, ebx
  0014b	e8 00 00 00 00	 call	 ?_Extract@?$_Tree_val@U?$_Tree_simple_types@U?$pair@$$CBKK@std@@@std@@@std@@QAEPAU?$_Tree_node@U?$pair@$$CBKK@std@@PAX@2@V?$_Tree_unchecked_const_iterator@V?$_Tree_val@U?$_Tree_simple_types@U?$pair@$$CBKK@std@@@std@@@std@@U_Iterator_base0@2@@2@@Z ; std::_Tree_val<std::_Tree_simple_types<std::pair<unsigned long const ,unsigned long> > >::_Extract
; File C:\Program Files\Microsoft Visual Studio\2022\Professional\VC\Tools\MSVC\14.44.35207\include\xmemory

; 289  :         ::operator delete(_Ptr, _Bytes);

  00150	6a 18		 push	 24			; 00000018H
  00152	50		 push	 eax
  00153	e8 00 00 00 00	 call	 ??3@YAXPAXI@Z		; operator delete
; File C:\Program Files\Microsoft Visual Studio\2022\Professional\VC\Tools\MSVC\14.44.35207\include\xtree

; 101  :         return !(*this == _Right);

  00158	8b 75 f0	 mov	 esi, DWORD PTR __First$[ebp]
; File C:\Program Files\Microsoft Visual Studio\2022\Professional\VC\Tools\MSVC\14.44.35207\include\xmemory

; 289  :         ::operator delete(_Ptr, _Bytes);

  0015b	83 c4 08	 add	 esp, 8
; File C:\Program Files\Microsoft Visual Studio\2022\Professional\VC\Tools\MSVC\14.44.35207\include\xtree

; 101  :         return !(*this == _Right);

  0015e	3b f7		 cmp	 esi, edi

; 1318 :         while (_First != _Last) {

  00160	75 de		 jne	 SHORT $LL63@erase

; 1359 :     }

  00162	8b 45 08	 mov	 eax, DWORD PTR __Off$1$[ebp]
  00165	5f		 pop	 edi
  00166	5e		 pop	 esi
  00167	5b		 pop	 ebx
  00168	8b e5		 mov	 esp, ebp
  0016a	5d		 pop	 ebp
  0016b	c2 04 00	 ret	 4
$LN181@erase:
  0016e	5f		 pop	 edi
  0016f	5e		 pop	 esi
  00170	8b c1		 mov	 eax, ecx
  00172	5b		 pop	 ebx
  00173	8b e5		 mov	 esp, ebp
  00175	5d		 pop	 ebp
  00176	c2 04 00	 ret	 4
?erase@?$_Tree@V?$_Tmap_traits@KKU?$less@K@std@@V?$allocator@U?$pair@$$CBKK@std@@@2@$0A@@std@@@std@@QAEIABK@Z ENDP ; std::_Tree<std::_Tmap_traits<unsigned long,unsigned long,std::less<unsigned long>,std::allocator<std::pair<unsigned long const ,unsigned long> >,0> >::erase
_TEXT	ENDS
; Function compile flags: /Ogtp
; File C:\Program Files\Microsoft Visual Studio\2022\Professional\VC\Tools\MSVC\14.44.35207\include\xmemory
;	COMDAT ??$_Allocate_manually_vector_aligned@U_Default_allocate_traits@std@@@std@@YAPAXI@Z
_TEXT	SEGMENT
__Bytes$ = 8						; size = 4
??$_Allocate_manually_vector_aligned@U_Default_allocate_traits@std@@@std@@YAPAXI@Z PROC ; std::_Allocate_manually_vector_aligned<std::_Default_allocate_traits>, COMDAT

; 182  : __declspec(allocator) void* _Allocate_manually_vector_aligned(const size_t _Bytes) {

  00000	55		 push	 ebp
  00001	8b ec		 mov	 ebp, esp

; 183  :     // allocate _Bytes manually aligned to at least _Big_allocation_alignment
; 184  :     const size_t _Block_size = _Non_user_size + _Bytes;

  00003	8b 45 08	 mov	 eax, DWORD PTR __Bytes$[ebp]
  00006	8d 48 23	 lea	 ecx, DWORD PTR [eax+35]

; 185  :     if (_Block_size <= _Bytes) {

  00009	3b c8		 cmp	 ecx, eax
  0000b	0f 86 00 00 00
	00		 jbe	 ?_Throw_bad_array_new_length@std@@YAXXZ ; std::_Throw_bad_array_new_length

; 136  :         return ::operator new(_Bytes);

  00011	51		 push	 ecx
  00012	e8 00 00 00 00	 call	 ??2@YAPAXI@Z		; operator new

; 186  :         _Throw_bad_array_new_length(); // add overflow
; 187  :     }
; 188  : 
; 189  :     const uintptr_t _Ptr_container = reinterpret_cast<uintptr_t>(_Traits::_Allocate(_Block_size));

  00017	8b c8		 mov	 ecx, eax

; 136  :         return ::operator new(_Bytes);

  00019	83 c4 04	 add	 esp, 4

; 190  :     _STL_VERIFY(_Ptr_container != 0, "invalid argument"); // validate even in release since we're doing p[-1]

  0001c	85 c9		 test	 ecx, ecx
  0001e	74 0b		 je	 SHORT $LN9@Allocate_m

; 191  :     void* const _Ptr = reinterpret_cast<void*>((_Ptr_container + _Non_user_size) & ~(_Big_allocation_alignment - 1));

  00020	8d 41 23	 lea	 eax, DWORD PTR [ecx+35]
  00023	83 e0 e0	 and	 eax, -32		; ffffffe0H

; 192  :     static_cast<uintptr_t*>(_Ptr)[-1] = _Ptr_container;

  00026	89 48 fc	 mov	 DWORD PTR [eax-4], ecx

; 193  : 
; 194  : #ifdef _DEBUG
; 195  :     static_cast<uintptr_t*>(_Ptr)[-2] = _Big_allocation_sentinel;
; 196  : #endif // defined(_DEBUG)
; 197  :     return _Ptr;
; 198  : }

  00029	5d		 pop	 ebp
  0002a	c3		 ret	 0
$LN9@Allocate_m:

; 190  :     _STL_VERIFY(_Ptr_container != 0, "invalid argument"); // validate even in release since we're doing p[-1]

  0002b	6a 00		 push	 0
  0002d	6a 00		 push	 0
  0002f	6a 00		 push	 0
  00031	6a 00		 push	 0
  00033	6a 00		 push	 0
  00035	e8 00 00 00 00	 call	 __invoke_watson
$LN7@Allocate_m:
  0003a	cc		 int	 3
??$_Allocate_manually_vector_aligned@U_Default_allocate_traits@std@@@std@@YAPAXI@Z ENDP ; std::_Allocate_manually_vector_aligned<std::_Default_allocate_traits>
_TEXT	ENDS
; Function compile flags: /Ogtp
; File C:\Program Files\Microsoft Visual Studio\2022\Professional\VC\Tools\MSVC\14.44.35207\include\xtree
; File C:\Program Files\Microsoft Visual Studio\2022\Professional\VC\Tools\MSVC\14.44.35207\include\type_traits
; File C:\Program Files\Microsoft Visual Studio\2022\Professional\VC\Tools\MSVC\14.44.35207\include\xtree
; File C:\Program Files\Microsoft Visual Studio\2022\Professional\VC\Tools\MSVC\14.44.35207\include\type_traits
; File C:\Program Files\Microsoft Visual Studio\2022\Professional\VC\Tools\MSVC\14.44.35207\include\xtree
;	COMDAT ??$_Find_lower_bound@H@?$_Tree@V?$_Tmap_traits@HKU?$less@H@std@@V?$allocator@U?$pair@$$CBHK@std@@@2@$0A@@std@@@std@@IBE?AU?$_Tree_find_result@PAU?$_Tree_node@U?$pair@$$CBHK@std@@PAX@std@@@1@ABH@Z
_TEXT	SEGMENT
___$ReturnUdt$ = 8					; size = 4
__Keyval$ = 12						; size = 4
??$_Find_lower_bound@H@?$_Tree@V?$_Tmap_traits@HKU?$less@H@std@@V?$allocator@U?$pair@$$CBHK@std@@@2@$0A@@std@@@std@@IBE?AU?$_Tree_find_result@PAU?$_Tree_node@U?$pair@$$CBHK@std@@PAX@std@@@1@ABH@Z PROC ; std::_Tree<std::_Tmap_traits<int,unsigned long,std::less<int>,std::allocator<std::pair<int const ,unsigned long> >,0> >::_Find_lower_bound<int>, COMDAT
; _this$ = ecx

; 1628 :     _Tree_find_result<_Nodeptr> _Find_lower_bound(const _Keyty& _Keyval) const {

  00000	55		 push	 ebp
  00001	8b ec		 mov	 ebp, esp

; 1629 :         const auto _Scary = _Get_scary();
; 1630 :         _Tree_find_result<_Nodeptr> _Result{{_Scary->_Myhead->_Parent, _Tree_child::_Right}, _Scary->_Myhead};

  00003	8b 09		 mov	 ecx, DWORD PTR [ecx]
  00005	8b 55 08	 mov	 edx, DWORD PTR ___$ReturnUdt$[ebp]
  00008	8b 41 04	 mov	 eax, DWORD PTR [ecx+4]
  0000b	89 02		 mov	 DWORD PTR [edx], eax
  0000d	c7 42 04 00 00
	00 00		 mov	 DWORD PTR [edx+4], 0
  00014	89 4a 08	 mov	 DWORD PTR [edx+8], ecx

; 1631 :         _Nodeptr _Trynode = _Result._Location._Parent;
; 1632 :         while (!_Trynode->_Isnil) {

  00017	80 78 0d 00	 cmp	 BYTE PTR [eax+13], 0
  0001b	75 28		 jne	 SHORT $LN13@Find_lower
; File C:\Program Files\Microsoft Visual Studio\2022\Professional\VC\Tools\MSVC\14.44.35207\include\type_traits

; 2380 :         return _Left < _Right;

  0001d	8b 4d 0c	 mov	 ecx, DWORD PTR __Keyval$[ebp]
  00020	56		 push	 esi
  00021	8b 31		 mov	 esi, DWORD PTR [ecx]
$LL2@Find_lower:
; File C:\Program Files\Microsoft Visual Studio\2022\Professional\VC\Tools\MSVC\14.44.35207\include\xtree

; 1633 :             _Result._Location._Parent = _Trynode;

  00023	89 02		 mov	 DWORD PTR [edx], eax
; File C:\Program Files\Microsoft Visual Studio\2022\Professional\VC\Tools\MSVC\14.44.35207\include\type_traits

; 2380 :         return _Left < _Right;

  00025	39 70 10	 cmp	 DWORD PTR [eax+16], esi
; File C:\Program Files\Microsoft Visual Studio\2022\Professional\VC\Tools\MSVC\14.44.35207\include\xtree

; 1634 :             if (_DEBUG_LT_PRED(_Getcomp(), _Traits::_Kfn(_Trynode->_Myval), _Keyval)) {

  00028	7d 07		 jge	 SHORT $LN4@Find_lower

; 1635 :                 _Result._Location._Child = _Tree_child::_Right;
; 1636 :                 _Trynode                 = _Trynode->_Right;

  0002a	8b 40 08	 mov	 eax, DWORD PTR [eax+8]
  0002d	33 c9		 xor	 ecx, ecx

; 1637 :             } else {

  0002f	eb 0a		 jmp	 SHORT $LN5@Find_lower
$LN4@Find_lower:

; 1638 :                 _Result._Location._Child = _Tree_child::_Left;
; 1639 :                 _Result._Bound           = _Trynode;

  00031	89 42 08	 mov	 DWORD PTR [edx+8], eax

; 1640 :                 _Trynode                 = _Trynode->_Left;

  00034	b9 01 00 00 00	 mov	 ecx, 1
  00039	8b 00		 mov	 eax, DWORD PTR [eax]
$LN5@Find_lower:

; 1631 :         _Nodeptr _Trynode = _Result._Location._Parent;
; 1632 :         while (!_Trynode->_Isnil) {

  0003b	89 4a 04	 mov	 DWORD PTR [edx+4], ecx
  0003e	80 78 0d 00	 cmp	 BYTE PTR [eax+13], 0
  00042	74 df		 je	 SHORT $LL2@Find_lower
  00044	5e		 pop	 esi
$LN13@Find_lower:

; 1641 :             }
; 1642 :         }
; 1643 : 
; 1644 :         return _Result;
; 1645 :     }

  00045	8b c2		 mov	 eax, edx
  00047	5d		 pop	 ebp
  00048	c2 08 00	 ret	 8
??$_Find_lower_bound@H@?$_Tree@V?$_Tmap_traits@HKU?$less@H@std@@V?$allocator@U?$pair@$$CBHK@std@@@2@$0A@@std@@@std@@IBE?AU?$_Tree_find_result@PAU?$_Tree_node@U?$pair@$$CBHK@std@@PAX@std@@@1@ABH@Z ENDP ; std::_Tree<std::_Tmap_traits<int,unsigned long,std::less<int>,std::allocator<std::pair<int const ,unsigned long> >,0> >::_Find_lower_bound<int>
_TEXT	ENDS
; Function compile flags: /Ogtp
; File C:\Program Files\Microsoft Visual Studio\2022\Professional\VC\Tools\MSVC\14.44.35207\include\xtree
; File C:\Program Files\Microsoft Visual Studio\2022\Professional\VC\Tools\MSVC\14.44.35207\include\utility
; File C:\Program Files\Microsoft Visual Studio\2022\Professional\VC\Tools\MSVC\14.44.35207\include\xmemory
; File C:\Program Files\Microsoft Visual Studio\2022\Professional\VC\Tools\MSVC\14.44.35207\include\xtree
;	COMDAT ??$_Erase_tree@V?$allocator@U?$_Tree_node@U?$pair@$$CBHK@std@@PAX@std@@@std@@@?$_Tree_val@U?$_Tree_simple_types@U?$pair@$$CBHK@std@@@std@@@std@@QAEXAAV?$allocator@U?$_Tree_node@U?$pair@$$CBHK@std@@PAX@std@@@1@PAU?$_Tree_node@U?$pair@$$CBHK@std@@PAX@1@@Z
_TEXT	SEGMENT
__Al$ = 8						; size = 4
__Rootnode$ = 12					; size = 4
??$_Erase_tree@V?$allocator@U?$_Tree_node@U?$pair@$$CBHK@std@@PAX@std@@@std@@@?$_Tree_val@U?$_Tree_simple_types@U?$pair@$$CBHK@std@@@std@@@std@@QAEXAAV?$allocator@U?$_Tree_node@U?$pair@$$CBHK@std@@PAX@std@@@1@PAU?$_Tree_node@U?$pair@$$CBHK@std@@PAX@1@@Z PROC ; std::_Tree_val<std::_Tree_simple_types<std::pair<int const ,unsigned long> > >::_Erase_tree<std::allocator<std::_Tree_node<std::pair<int const ,unsigned long>,void *> > >, COMDAT
; _this$ = ecx

; 767  :     void _Erase_tree(_Alnode& _Al, _Nodeptr _Rootnode) noexcept {

  00000	55		 push	 ebp
  00001	8b ec		 mov	 ebp, esp
  00003	53		 push	 ebx
  00004	56		 push	 esi

; 768  :         while (!_Rootnode->_Isnil) { // free subtrees, then node

  00005	8b 75 0c	 mov	 esi, DWORD PTR __Rootnode$[ebp]
  00008	8b d9		 mov	 ebx, ecx
  0000a	80 7e 0d 00	 cmp	 BYTE PTR [esi+13], 0
  0000e	75 25		 jne	 SHORT $LN34@Erase_tree
  00010	57		 push	 edi
  00011	8b 7d 08	 mov	 edi, DWORD PTR __Al$[ebp]
$LL2@Erase_tree:

; 769  :             _Erase_tree(_Al, _Rootnode->_Right);

  00014	ff 76 08	 push	 DWORD PTR [esi+8]
  00017	8b cb		 mov	 ecx, ebx
  00019	57		 push	 edi
  0001a	e8 00 00 00 00	 call	 ??$_Erase_tree@V?$allocator@U?$_Tree_node@U?$pair@$$CBHK@std@@PAX@std@@@std@@@?$_Tree_val@U?$_Tree_simple_types@U?$pair@$$CBHK@std@@@std@@@std@@QAEXAAV?$allocator@U?$_Tree_node@U?$pair@$$CBHK@std@@PAX@std@@@1@PAU?$_Tree_node@U?$pair@$$CBHK@std@@PAX@1@@Z ; std::_Tree_val<std::_Tree_simple_types<std::pair<int const ,unsigned long> > >::_Erase_tree<std::allocator<std::_Tree_node<std::pair<int const ,unsigned long>,void *> > >
; File C:\Program Files\Microsoft Visual Studio\2022\Professional\VC\Tools\MSVC\14.44.35207\include\utility

; 773  :     _Ty _Old_val = static_cast<_Ty&&>(_Val);

  0001f	8b c6		 mov	 eax, esi

; 774  :     _Val         = static_cast<_Other&&>(_New_val);

  00021	8b 36		 mov	 esi, DWORD PTR [esi]
; File C:\Program Files\Microsoft Visual Studio\2022\Professional\VC\Tools\MSVC\14.44.35207\include\xmemory

; 289  :         ::operator delete(_Ptr, _Bytes);

  00023	6a 18		 push	 24			; 00000018H
  00025	50		 push	 eax
  00026	e8 00 00 00 00	 call	 ??3@YAXPAXI@Z		; operator delete
  0002b	83 c4 08	 add	 esp, 8
; File C:\Program Files\Microsoft Visual Studio\2022\Professional\VC\Tools\MSVC\14.44.35207\include\xtree

; 768  :         while (!_Rootnode->_Isnil) { // free subtrees, then node

  0002e	80 7e 0d 00	 cmp	 BYTE PTR [esi+13], 0
  00032	74 e0		 je	 SHORT $LL2@Erase_tree
  00034	5f		 pop	 edi
$LN34@Erase_tree:
  00035	5e		 pop	 esi

; 770  :             _Alnode::value_type::_Freenode(_Al, _STD exchange(_Rootnode, _Rootnode->_Left));
; 771  :         }
; 772  :     }

  00036	5b		 pop	 ebx
  00037	5d		 pop	 ebp
  00038	c2 08 00	 ret	 8
??$_Erase_tree@V?$allocator@U?$_Tree_node@U?$pair@$$CBHK@std@@PAX@std@@@std@@@?$_Tree_val@U?$_Tree_simple_types@U?$pair@$$CBHK@std@@@std@@@std@@QAEXAAV?$allocator@U?$_Tree_node@U?$pair@$$CBHK@std@@PAX@std@@@1@PAU?$_Tree_node@U?$pair@$$CBHK@std@@PAX@1@@Z ENDP ; std::_Tree_val<std::_Tree_simple_types<std::pair<int const ,unsigned long> > >::_Erase_tree<std::allocator<std::_Tree_node<std::pair<int const ,unsigned long>,void *> > >
_TEXT	ENDS
; Function compile flags: /Ogtp
;	COMDAT ??1?$map@HKU?$less@H@std@@V?$allocator@U?$pair@$$CBHK@std@@@2@@std@@QAE@XZ
_TEXT	SEGMENT
??1?$map@HKU?$less@H@std@@V?$allocator@U?$pair@$$CBHK@std@@@2@@std@@QAE@XZ PROC ; std::map<int,unsigned long,std::less<int>,std::allocator<std::pair<int const ,unsigned long> > >::~map<int,unsigned long,std::less<int>,std::allocator<std::pair<int const ,unsigned long> > >, COMDAT
; _this$ = ecx
  00000	e9 00 00 00 00	 jmp	 ??1?$_Tree@V?$_Tmap_traits@HKU?$less@H@std@@V?$allocator@U?$pair@$$CBHK@std@@@2@$0A@@std@@@std@@QAE@XZ ; std::_Tree<std::_Tmap_traits<int,unsigned long,std::less<int>,std::allocator<std::pair<int const ,unsigned long> >,0> >::~_Tree<std::_Tmap_traits<int,unsigned long,std::less<int>,std::allocator<std::pair<int const ,unsigned long> >,0> >
??1?$map@HKU?$less@H@std@@V?$allocator@U?$pair@$$CBHK@std@@@2@@std@@QAE@XZ ENDP ; std::map<int,unsigned long,std::less<int>,std::allocator<std::pair<int const ,unsigned long> > >::~map<int,unsigned long,std::less<int>,std::allocator<std::pair<int const ,unsigned long> > >
_TEXT	ENDS
; Function compile flags: /Ogtp
; File C:\Program Files\Microsoft Visual Studio\2022\Professional\VC\Tools\MSVC\14.44.35207\include\xtree
;	COMDAT ?_Insert_node@?$_Tree_val@U?$_Tree_simple_types@U?$pair@$$CBHK@std@@@std@@@std@@QAEPAU?$_Tree_node@U?$pair@$$CBHK@std@@PAX@2@U?$_Tree_id@PAU?$_Tree_node@U?$pair@$$CBHK@std@@PAX@std@@@2@QAU32@@Z
_TEXT	SEGMENT
__Head$1$ = -4						; size = 4
__Loc$ = 8						; size = 8
__Newnode$ = 16						; size = 4
?_Insert_node@?$_Tree_val@U?$_Tree_simple_types@U?$pair@$$CBHK@std@@@std@@@std@@QAEPAU?$_Tree_node@U?$pair@$$CBHK@std@@PAX@2@U?$_Tree_id@PAU?$_Tree_node@U?$pair@$$CBHK@std@@PAX@std@@@2@QAU32@@Z PROC ; std::_Tree_val<std::_Tree_simple_types<std::pair<int const ,unsigned long> > >::_Insert_node, COMDAT
; _this$ = ecx

; 669  :     _Nodeptr _Insert_node(const _Tree_id<_Nodeptr> _Loc, const _Nodeptr _Newnode) noexcept {

  00000	55		 push	 ebp
  00001	8b ec		 mov	 ebp, esp
  00003	51		 push	 ecx

; 670  :         ++_Mysize;
; 671  :         const auto _Head  = _Myhead;
; 672  :         _Newnode->_Parent = _Loc._Parent;

  00004	8b 55 08	 mov	 edx, DWORD PTR __Loc$[ebp]
  00007	53		 push	 ebx
  00008	8b d9		 mov	 ebx, ecx
  0000a	57		 push	 edi
  0000b	8b 7d 10	 mov	 edi, DWORD PTR __Newnode$[ebp]
  0000e	8b 03		 mov	 eax, DWORD PTR [ebx]
  00010	ff 43 04	 inc	 DWORD PTR [ebx+4]
  00013	89 45 fc	 mov	 DWORD PTR __Head$1$[ebp], eax
  00016	89 57 04	 mov	 DWORD PTR [edi+4], edx

; 673  :         if (_Loc._Parent == _Head) { // first node in tree, just set head values

  00019	3b d0		 cmp	 edx, eax
  0001b	75 16		 jne	 SHORT $LN5@Insert_nod

; 674  :             _Head->_Left     = _Newnode;

  0001d	89 38		 mov	 DWORD PTR [eax], edi

; 675  :             _Head->_Parent   = _Newnode;

  0001f	89 78 04	 mov	 DWORD PTR [eax+4], edi

; 676  :             _Head->_Right    = _Newnode;

  00022	89 78 08	 mov	 DWORD PTR [eax+8], edi

; 735  :         return _Newnode;
; 736  :     }

  00025	8b c7		 mov	 eax, edi
  00027	c6 47 0c 01	 mov	 BYTE PTR [edi+12], 1
  0002b	5f		 pop	 edi
  0002c	5b		 pop	 ebx
  0002d	8b e5		 mov	 esp, ebp
  0002f	5d		 pop	 ebp
  00030	c2 0c 00	 ret	 12			; 0000000cH
$LN5@Insert_nod:

; 677  :             _Newnode->_Color = _Black; // the root is black
; 678  :             return _Newnode;
; 679  :         }
; 680  : 
; 681  :         _STL_INTERNAL_CHECK(_Loc._Child != _Tree_child::_Unused);
; 682  :         if (_Loc._Child == _Tree_child::_Right) { // add to right of _Loc._Parent

  00033	83 7d 0c 00	 cmp	 DWORD PTR __Loc$[ebp+4], 0
  00037	75 0d		 jne	 SHORT $LN6@Insert_nod

; 683  :             _STL_INTERNAL_CHECK(_Loc._Parent->_Right->_Isnil);
; 684  :             _Loc._Parent->_Right = _Newnode;

  00039	89 7a 08	 mov	 DWORD PTR [edx+8], edi

; 685  :             if (_Loc._Parent == _Head->_Right) { // remember rightmost node

  0003c	3b 50 08	 cmp	 edx, DWORD PTR [eax+8]
  0003f	75 0d		 jne	 SHORT $LN9@Insert_nod

; 686  :                 _Head->_Right = _Newnode;

  00041	89 78 08	 mov	 DWORD PTR [eax+8], edi

; 687  :             }
; 688  :         } else { // add to left of _Loc._Parent

  00044	eb 08		 jmp	 SHORT $LN9@Insert_nod
$LN6@Insert_nod:

; 689  :             _STL_INTERNAL_CHECK(_Loc._Parent->_Left->_Isnil);
; 690  :             _Loc._Parent->_Left = _Newnode;

  00046	89 3a		 mov	 DWORD PTR [edx], edi

; 691  :             if (_Loc._Parent == _Head->_Left) { // remember leftmost node

  00048	3b 10		 cmp	 edx, DWORD PTR [eax]
  0004a	75 02		 jne	 SHORT $LN9@Insert_nod

; 692  :                 _Head->_Left = _Newnode;

  0004c	89 38		 mov	 DWORD PTR [eax], edi
$LN9@Insert_nod:

; 693  :             }
; 694  :         }
; 695  : 
; 696  :         for (_Nodeptr _Pnode = _Newnode; _Pnode->_Parent->_Color == _Red;) {

  0004e	8b 4f 04	 mov	 ecx, DWORD PTR [edi+4]
  00051	8b c7		 mov	 eax, edi
  00053	80 79 0c 00	 cmp	 BYTE PTR [ecx+12], 0
  00057	0f 85 7d 01 00
	00		 jne	 $LN3@Insert_nod
  0005d	56		 push	 esi
  0005e	66 90		 npad	 2
$LL4@Insert_nod:

; 697  :             if (_Pnode->_Parent == _Pnode->_Parent->_Parent->_Left) { // fixup red-red in left subtree

  00060	8b 50 04	 mov	 edx, DWORD PTR [eax+4]
  00063	8b 72 04	 mov	 esi, DWORD PTR [edx+4]
  00066	8b 0e		 mov	 ecx, DWORD PTR [esi]
  00068	3b d1		 cmp	 edx, ecx
  0006a	0f 85 aa 00 00
	00		 jne	 $LN10@Insert_nod

; 698  :                 const auto _Parent_sibling = _Pnode->_Parent->_Parent->_Right;

  00070	8b 4e 08	 mov	 ecx, DWORD PTR [esi+8]

; 699  :                 if (_Parent_sibling->_Color == _Red) { // parent's sibling has two red children, blacken both

  00073	80 79 0c 00	 cmp	 BYTE PTR [ecx+12], 0
  00077	0f 84 a3 00 00
	00		 je	 $LN82@Insert_nod

; 700  :                     _Pnode->_Parent->_Color          = _Black;
; 701  :                     _Parent_sibling->_Color          = _Black;
; 702  :                     _Pnode->_Parent->_Parent->_Color = _Red;
; 703  :                     _Pnode                           = _Pnode->_Parent->_Parent;
; 704  :                 } else { // parent's sibling has red and black children
; 705  :                     if (_Pnode == _Pnode->_Parent->_Right) { // rotate right child to left

  0007d	8b 72 08	 mov	 esi, DWORD PTR [edx+8]
  00080	3b c6		 cmp	 eax, esi
  00082	75 37		 jne	 SHORT $LN57@Insert_nod

; 485  :         _Wherenode->_Right = _Pnode->_Left;

  00084	8b 0e		 mov	 ecx, DWORD PTR [esi]

; 706  :                         _Pnode = _Pnode->_Parent;

  00086	8b c2		 mov	 eax, edx

; 485  :         _Wherenode->_Right = _Pnode->_Left;

  00088	89 4a 08	 mov	 DWORD PTR [edx+8], ecx

; 486  : 
; 487  :         if (!_Pnode->_Left->_Isnil) {

  0008b	8b 0e		 mov	 ecx, DWORD PTR [esi]
  0008d	80 79 0d 00	 cmp	 BYTE PTR [ecx+13], 0
  00091	75 03		 jne	 SHORT $LN21@Insert_nod

; 488  :             _Pnode->_Left->_Parent = _Wherenode;

  00093	89 41 04	 mov	 DWORD PTR [ecx+4], eax
$LN21@Insert_nod:

; 489  :         }
; 490  : 
; 491  :         _Pnode->_Parent = _Wherenode->_Parent;

  00096	8b 4a 04	 mov	 ecx, DWORD PTR [edx+4]
  00099	89 4e 04	 mov	 DWORD PTR [esi+4], ecx

; 492  : 
; 493  :         if (_Wherenode == _Myhead->_Parent) {

  0009c	8b 0b		 mov	 ecx, DWORD PTR [ebx]
  0009e	3b 41 04	 cmp	 eax, DWORD PTR [ecx+4]
  000a1	75 05		 jne	 SHORT $LN22@Insert_nod

; 494  :             _Myhead->_Parent = _Pnode;

  000a3	89 71 04	 mov	 DWORD PTR [ecx+4], esi
  000a6	eb 0e		 jmp	 SHORT $LN25@Insert_nod
$LN22@Insert_nod:

; 495  :         } else if (_Wherenode == _Wherenode->_Parent->_Left) {

  000a8	8b 4a 04	 mov	 ecx, DWORD PTR [edx+4]
  000ab	3b 01		 cmp	 eax, DWORD PTR [ecx]
  000ad	75 04		 jne	 SHORT $LN24@Insert_nod

; 496  :             _Wherenode->_Parent->_Left = _Pnode;

  000af	89 31		 mov	 DWORD PTR [ecx], esi

; 497  :         } else {

  000b1	eb 03		 jmp	 SHORT $LN25@Insert_nod
$LN24@Insert_nod:

; 498  :             _Wherenode->_Parent->_Right = _Pnode;

  000b3	89 71 08	 mov	 DWORD PTR [ecx+8], esi
$LN25@Insert_nod:

; 499  :         }
; 500  : 
; 501  :         _Pnode->_Left       = _Wherenode;

  000b6	89 06		 mov	 DWORD PTR [esi], eax

; 502  :         _Wherenode->_Parent = _Pnode;

  000b8	89 70 04	 mov	 DWORD PTR [eax+4], esi
$LN57@Insert_nod:

; 707  :                         _Lrotate(_Pnode);
; 708  :                     }
; 709  : 
; 710  :                     _Pnode->_Parent->_Color          = _Black; // propagate red up

  000bb	8b 48 04	 mov	 ecx, DWORD PTR [eax+4]
  000be	c6 41 0c 01	 mov	 BYTE PTR [ecx+12], 1

; 711  :                     _Pnode->_Parent->_Parent->_Color = _Red;

  000c2	8b 48 04	 mov	 ecx, DWORD PTR [eax+4]
  000c5	8b 49 04	 mov	 ecx, DWORD PTR [ecx+4]
  000c8	c6 41 0c 00	 mov	 BYTE PTR [ecx+12], 0

; 712  :                     _Rrotate(_Pnode->_Parent->_Parent);

  000cc	8b 48 04	 mov	 ecx, DWORD PTR [eax+4]
  000cf	8b 51 04	 mov	 edx, DWORD PTR [ecx+4]

; 506  :         _Nodeptr _Pnode   = _Wherenode->_Left;

  000d2	8b 32		 mov	 esi, DWORD PTR [edx]

; 507  :         _Wherenode->_Left = _Pnode->_Right;

  000d4	8b 4e 08	 mov	 ecx, DWORD PTR [esi+8]
  000d7	89 0a		 mov	 DWORD PTR [edx], ecx

; 508  : 
; 509  :         if (!_Pnode->_Right->_Isnil) {

  000d9	8b 4e 08	 mov	 ecx, DWORD PTR [esi+8]
  000dc	80 79 0d 00	 cmp	 BYTE PTR [ecx+13], 0
  000e0	75 03		 jne	 SHORT $LN29@Insert_nod

; 510  :             _Pnode->_Right->_Parent = _Wherenode;

  000e2	89 51 04	 mov	 DWORD PTR [ecx+4], edx
$LN29@Insert_nod:

; 511  :         }
; 512  : 
; 513  :         _Pnode->_Parent = _Wherenode->_Parent;

  000e5	8b 4a 04	 mov	 ecx, DWORD PTR [edx+4]
  000e8	89 4e 04	 mov	 DWORD PTR [esi+4], ecx

; 514  : 
; 515  :         if (_Wherenode == _Myhead->_Parent) {

  000eb	8b 0b		 mov	 ecx, DWORD PTR [ebx]
  000ed	3b 51 04	 cmp	 edx, DWORD PTR [ecx+4]
  000f0	75 0b		 jne	 SHORT $LN30@Insert_nod

; 516  :             _Myhead->_Parent = _Pnode;

  000f2	89 71 04	 mov	 DWORD PTR [ecx+4], esi

; 521  :         }
; 522  : 
; 523  :         _Pnode->_Right      = _Wherenode;

  000f5	89 56 08	 mov	 DWORD PTR [esi+8], edx

; 713  :                 }
; 714  :             } else { // fixup red-red in right subtree

  000f8	e9 cc 00 00 00	 jmp	 $LN81@Insert_nod
$LN30@Insert_nod:

; 517  :         } else if (_Wherenode == _Wherenode->_Parent->_Right) {

  000fd	8b 4a 04	 mov	 ecx, DWORD PTR [edx+4]
  00100	3b 51 08	 cmp	 edx, DWORD PTR [ecx+8]
  00103	75 0b		 jne	 SHORT $LN32@Insert_nod

; 518  :             _Wherenode->_Parent->_Right = _Pnode;

  00105	89 71 08	 mov	 DWORD PTR [ecx+8], esi

; 521  :         }
; 522  : 
; 523  :         _Pnode->_Right      = _Wherenode;

  00108	89 56 08	 mov	 DWORD PTR [esi+8], edx

; 713  :                 }
; 714  :             } else { // fixup red-red in right subtree

  0010b	e9 b9 00 00 00	 jmp	 $LN81@Insert_nod
$LN32@Insert_nod:

; 520  :             _Wherenode->_Parent->_Left = _Pnode;

  00110	89 31		 mov	 DWORD PTR [ecx], esi

; 521  :         }
; 522  : 
; 523  :         _Pnode->_Right      = _Wherenode;

  00112	89 56 08	 mov	 DWORD PTR [esi+8], edx

; 713  :                 }
; 714  :             } else { // fixup red-red in right subtree

  00115	e9 af 00 00 00	 jmp	 $LN81@Insert_nod
$LN10@Insert_nod:

; 715  :                 const auto _Parent_sibling = _Pnode->_Parent->_Parent->_Left;
; 716  :                 if (_Parent_sibling->_Color == _Red) { // parent's sibling has two red children, blacken both

  0011a	80 79 0c 00	 cmp	 BYTE PTR [ecx+12], 0
  0011e	75 1d		 jne	 SHORT $LN15@Insert_nod
$LN82@Insert_nod:

; 693  :             }
; 694  :         }
; 695  : 
; 696  :         for (_Nodeptr _Pnode = _Newnode; _Pnode->_Parent->_Color == _Red;) {

  00120	c6 42 0c 01	 mov	 BYTE PTR [edx+12], 1
  00124	c6 41 0c 01	 mov	 BYTE PTR [ecx+12], 1
  00128	8b 48 04	 mov	 ecx, DWORD PTR [eax+4]
  0012b	8b 49 04	 mov	 ecx, DWORD PTR [ecx+4]
  0012e	c6 41 0c 00	 mov	 BYTE PTR [ecx+12], 0
  00132	8b 48 04	 mov	 ecx, DWORD PTR [eax+4]
  00135	8b 41 04	 mov	 eax, DWORD PTR [ecx+4]
  00138	e9 8f 00 00 00	 jmp	 $LN2@Insert_nod
$LN15@Insert_nod:

; 717  :                     _Pnode->_Parent->_Color          = _Black;
; 718  :                     _Parent_sibling->_Color          = _Black;
; 719  :                     _Pnode->_Parent->_Parent->_Color = _Red;
; 720  :                     _Pnode                           = _Pnode->_Parent->_Parent;
; 721  :                 } else { // parent's sibling has red and black children
; 722  :                     if (_Pnode == _Pnode->_Parent->_Left) { // rotate left child to right

  0013d	8b 32		 mov	 esi, DWORD PTR [edx]
  0013f	3b c6		 cmp	 eax, esi
  00141	75 3a		 jne	 SHORT $LN42@Insert_nod

; 507  :         _Wherenode->_Left = _Pnode->_Right;

  00143	8b 4e 08	 mov	 ecx, DWORD PTR [esi+8]

; 723  :                         _Pnode = _Pnode->_Parent;

  00146	8b c2		 mov	 eax, edx

; 507  :         _Wherenode->_Left = _Pnode->_Right;

  00148	89 08		 mov	 DWORD PTR [eax], ecx

; 508  : 
; 509  :         if (!_Pnode->_Right->_Isnil) {

  0014a	8b 4e 08	 mov	 ecx, DWORD PTR [esi+8]
  0014d	80 79 0d 00	 cmp	 BYTE PTR [ecx+13], 0
  00151	75 03		 jne	 SHORT $LN37@Insert_nod

; 510  :             _Pnode->_Right->_Parent = _Wherenode;

  00153	89 41 04	 mov	 DWORD PTR [ecx+4], eax
$LN37@Insert_nod:

; 511  :         }
; 512  : 
; 513  :         _Pnode->_Parent = _Wherenode->_Parent;

  00156	8b 4a 04	 mov	 ecx, DWORD PTR [edx+4]
  00159	89 4e 04	 mov	 DWORD PTR [esi+4], ecx

; 514  : 
; 515  :         if (_Wherenode == _Myhead->_Parent) {

  0015c	8b 0b		 mov	 ecx, DWORD PTR [ebx]
  0015e	3b 41 04	 cmp	 eax, DWORD PTR [ecx+4]
  00161	75 05		 jne	 SHORT $LN38@Insert_nod

; 516  :             _Myhead->_Parent = _Pnode;

  00163	89 71 04	 mov	 DWORD PTR [ecx+4], esi
  00166	eb 0f		 jmp	 SHORT $LN41@Insert_nod
$LN38@Insert_nod:

; 517  :         } else if (_Wherenode == _Wherenode->_Parent->_Right) {

  00168	8b 4a 04	 mov	 ecx, DWORD PTR [edx+4]
  0016b	3b 41 08	 cmp	 eax, DWORD PTR [ecx+8]
  0016e	75 05		 jne	 SHORT $LN40@Insert_nod

; 518  :             _Wherenode->_Parent->_Right = _Pnode;

  00170	89 71 08	 mov	 DWORD PTR [ecx+8], esi

; 519  :         } else {

  00173	eb 02		 jmp	 SHORT $LN41@Insert_nod
$LN40@Insert_nod:

; 520  :             _Wherenode->_Parent->_Left = _Pnode;

  00175	89 31		 mov	 DWORD PTR [ecx], esi
$LN41@Insert_nod:

; 521  :         }
; 522  : 
; 523  :         _Pnode->_Right      = _Wherenode;

  00177	89 46 08	 mov	 DWORD PTR [esi+8], eax

; 524  :         _Wherenode->_Parent = _Pnode;

  0017a	89 70 04	 mov	 DWORD PTR [eax+4], esi
$LN42@Insert_nod:

; 724  :                         _Rrotate(_Pnode);
; 725  :                     }
; 726  : 
; 727  :                     _Pnode->_Parent->_Color          = _Black; // propagate red up

  0017d	8b 48 04	 mov	 ecx, DWORD PTR [eax+4]
  00180	c6 41 0c 01	 mov	 BYTE PTR [ecx+12], 1

; 728  :                     _Pnode->_Parent->_Parent->_Color = _Red;

  00184	8b 48 04	 mov	 ecx, DWORD PTR [eax+4]
  00187	8b 49 04	 mov	 ecx, DWORD PTR [ecx+4]
  0018a	c6 41 0c 00	 mov	 BYTE PTR [ecx+12], 0

; 729  :                     _Lrotate(_Pnode->_Parent->_Parent);

  0018e	8b 48 04	 mov	 ecx, DWORD PTR [eax+4]
  00191	8b 51 04	 mov	 edx, DWORD PTR [ecx+4]

; 484  :         _Nodeptr _Pnode    = _Wherenode->_Right;

  00194	8b 72 08	 mov	 esi, DWORD PTR [edx+8]

; 485  :         _Wherenode->_Right = _Pnode->_Left;

  00197	8b 0e		 mov	 ecx, DWORD PTR [esi]
  00199	89 4a 08	 mov	 DWORD PTR [edx+8], ecx

; 486  : 
; 487  :         if (!_Pnode->_Left->_Isnil) {

  0019c	8b 0e		 mov	 ecx, DWORD PTR [esi]
  0019e	80 79 0d 00	 cmp	 BYTE PTR [ecx+13], 0
  001a2	75 03		 jne	 SHORT $LN45@Insert_nod

; 488  :             _Pnode->_Left->_Parent = _Wherenode;

  001a4	89 51 04	 mov	 DWORD PTR [ecx+4], edx
$LN45@Insert_nod:

; 489  :         }
; 490  : 
; 491  :         _Pnode->_Parent = _Wherenode->_Parent;

  001a7	8b 4a 04	 mov	 ecx, DWORD PTR [edx+4]
  001aa	89 4e 04	 mov	 DWORD PTR [esi+4], ecx

; 492  : 
; 493  :         if (_Wherenode == _Myhead->_Parent) {

  001ad	8b 0b		 mov	 ecx, DWORD PTR [ebx]
  001af	3b 51 04	 cmp	 edx, DWORD PTR [ecx+4]
  001b2	75 05		 jne	 SHORT $LN46@Insert_nod

; 494  :             _Myhead->_Parent = _Pnode;

  001b4	89 71 04	 mov	 DWORD PTR [ecx+4], esi
  001b7	eb 0e		 jmp	 SHORT $LN49@Insert_nod
$LN46@Insert_nod:

; 495  :         } else if (_Wherenode == _Wherenode->_Parent->_Left) {

  001b9	8b 4a 04	 mov	 ecx, DWORD PTR [edx+4]
  001bc	3b 11		 cmp	 edx, DWORD PTR [ecx]
  001be	75 04		 jne	 SHORT $LN48@Insert_nod

; 496  :             _Wherenode->_Parent->_Left = _Pnode;

  001c0	89 31		 mov	 DWORD PTR [ecx], esi

; 497  :         } else {

  001c2	eb 03		 jmp	 SHORT $LN49@Insert_nod
$LN48@Insert_nod:

; 498  :             _Wherenode->_Parent->_Right = _Pnode;

  001c4	89 71 08	 mov	 DWORD PTR [ecx+8], esi
$LN49@Insert_nod:

; 499  :         }
; 500  : 
; 501  :         _Pnode->_Left       = _Wherenode;

  001c7	89 16		 mov	 DWORD PTR [esi], edx
$LN81@Insert_nod:

; 693  :             }
; 694  :         }
; 695  : 
; 696  :         for (_Nodeptr _Pnode = _Newnode; _Pnode->_Parent->_Color == _Red;) {

  001c9	89 72 04	 mov	 DWORD PTR [edx+4], esi
$LN2@Insert_nod:
  001cc	8b 48 04	 mov	 ecx, DWORD PTR [eax+4]
  001cf	80 79 0c 00	 cmp	 BYTE PTR [ecx+12], 0
  001d3	0f 84 87 fe ff
	ff		 je	 $LL4@Insert_nod
  001d9	5e		 pop	 esi
$LN3@Insert_nod:

; 730  :                 }
; 731  :             }
; 732  :         }
; 733  : 
; 734  :         _Head->_Parent->_Color = _Black; // root is always black

  001da	8b 45 fc	 mov	 eax, DWORD PTR __Head$1$[ebp]
  001dd	8b 40 04	 mov	 eax, DWORD PTR [eax+4]
  001e0	c6 40 0c 01	 mov	 BYTE PTR [eax+12], 1

; 735  :         return _Newnode;
; 736  :     }

  001e4	8b c7		 mov	 eax, edi
  001e6	5f		 pop	 edi
  001e7	5b		 pop	 ebx
  001e8	8b e5		 mov	 esp, ebp
  001ea	5d		 pop	 ebp
  001eb	c2 0c 00	 ret	 12			; 0000000cH
?_Insert_node@?$_Tree_val@U?$_Tree_simple_types@U?$pair@$$CBHK@std@@@std@@@std@@QAEPAU?$_Tree_node@U?$pair@$$CBHK@std@@PAX@2@U?$_Tree_id@PAU?$_Tree_node@U?$pair@$$CBHK@std@@PAX@std@@@2@QAU32@@Z ENDP ; std::_Tree_val<std::_Tree_simple_types<std::pair<int const ,unsigned long> > >::_Insert_node
_TEXT	ENDS
; Function compile flags: /Ogtp
; File C:\Program Files\Microsoft Visual Studio\2022\Professional\VC\Tools\MSVC\14.44.35207\include\xtree
; File C:\Program Files\Microsoft Visual Studio\2022\Professional\VC\Tools\MSVC\14.44.35207\include\utility
; File C:\Program Files\Microsoft Visual Studio\2022\Professional\VC\Tools\MSVC\14.44.35207\include\xmemory
; File C:\Program Files\Microsoft Visual Studio\2022\Professional\VC\Tools\MSVC\14.44.35207\include\xtree
; File C:\Program Files\Microsoft Visual Studio\2022\Professional\VC\Tools\MSVC\14.44.35207\include\xmemory
; File C:\Program Files\Microsoft Visual Studio\2022\Professional\VC\Tools\MSVC\14.44.35207\include\xtree
;	COMDAT ??1?$_Tree@V?$_Tmap_traits@HKU?$less@H@std@@V?$allocator@U?$pair@$$CBHK@std@@@2@$0A@@std@@@std@@QAE@XZ
_TEXT	SEGMENT
??1?$_Tree@V?$_Tmap_traits@HKU?$less@H@std@@V?$allocator@U?$pair@$$CBHK@std@@@2@$0A@@std@@@std@@QAE@XZ PROC ; std::_Tree<std::_Tmap_traits<int,unsigned long,std::less<int>,std::allocator<std::pair<int const ,unsigned long> >,0> >::~_Tree<std::_Tmap_traits<int,unsigned long,std::less<int>,std::allocator<std::pair<int const ,unsigned long> >,0> >, COMDAT
; _this$ = ecx

; 1095 :     ~_Tree() noexcept {

  00000	56		 push	 esi
  00001	57		 push	 edi
  00002	8b f9		 mov	 edi, ecx

; 777  :         _Erase_tree(_Al, _Myhead->_Parent);

  00004	8b 37		 mov	 esi, DWORD PTR [edi]
  00006	8b 76 04	 mov	 esi, DWORD PTR [esi+4]

; 768  :         while (!_Rootnode->_Isnil) { // free subtrees, then node

  00009	80 7e 0d 00	 cmp	 BYTE PTR [esi+13], 0
  0000d	75 21		 jne	 SHORT $LN61@Tree
  0000f	90		 npad	 1
$LL8@Tree:

; 769  :             _Erase_tree(_Al, _Rootnode->_Right);

  00010	ff 76 08	 push	 DWORD PTR [esi+8]
  00013	8b cf		 mov	 ecx, edi
  00015	57		 push	 edi
  00016	e8 00 00 00 00	 call	 ??$_Erase_tree@V?$allocator@U?$_Tree_node@U?$pair@$$CBHK@std@@PAX@std@@@std@@@?$_Tree_val@U?$_Tree_simple_types@U?$pair@$$CBHK@std@@@std@@@std@@QAEXAAV?$allocator@U?$_Tree_node@U?$pair@$$CBHK@std@@PAX@std@@@1@PAU?$_Tree_node@U?$pair@$$CBHK@std@@PAX@1@@Z ; std::_Tree_val<std::_Tree_simple_types<std::pair<int const ,unsigned long> > >::_Erase_tree<std::allocator<std::_Tree_node<std::pair<int const ,unsigned long>,void *> > >
; File C:\Program Files\Microsoft Visual Studio\2022\Professional\VC\Tools\MSVC\14.44.35207\include\utility

; 773  :     _Ty _Old_val = static_cast<_Ty&&>(_Val);

  0001b	8b c6		 mov	 eax, esi

; 774  :     _Val         = static_cast<_Other&&>(_New_val);

  0001d	8b 36		 mov	 esi, DWORD PTR [esi]
; File C:\Program Files\Microsoft Visual Studio\2022\Professional\VC\Tools\MSVC\14.44.35207\include\xmemory

; 289  :         ::operator delete(_Ptr, _Bytes);

  0001f	6a 18		 push	 24			; 00000018H
  00021	50		 push	 eax
  00022	e8 00 00 00 00	 call	 ??3@YAXPAXI@Z		; operator delete
  00027	83 c4 08	 add	 esp, 8
; File C:\Program Files\Microsoft Visual Studio\2022\Professional\VC\Tools\MSVC\14.44.35207\include\xtree

; 768  :         while (!_Rootnode->_Isnil) { // free subtrees, then node

  0002a	80 7e 0d 00	 cmp	 BYTE PTR [esi+13], 0
  0002e	74 e0		 je	 SHORT $LL8@Tree
$LN61@Tree:
; File C:\Program Files\Microsoft Visual Studio\2022\Professional\VC\Tools\MSVC\14.44.35207\include\xmemory

; 289  :         ::operator delete(_Ptr, _Bytes);

  00030	6a 18		 push	 24			; 00000018H
  00032	ff 37		 push	 DWORD PTR [edi]
  00034	e8 00 00 00 00	 call	 ??3@YAXPAXI@Z		; operator delete
  00039	83 c4 08	 add	 esp, 8
  0003c	5f		 pop	 edi
  0003d	5e		 pop	 esi
; File C:\Program Files\Microsoft Visual Studio\2022\Professional\VC\Tools\MSVC\14.44.35207\include\xtree

; 1102 :     }

  0003e	c3		 ret	 0
??1?$_Tree@V?$_Tmap_traits@HKU?$less@H@std@@V?$allocator@U?$pair@$$CBHK@std@@@2@$0A@@std@@@std@@QAE@XZ ENDP ; std::_Tree<std::_Tmap_traits<int,unsigned long,std::less<int>,std::allocator<std::pair<int const ,unsigned long> >,0> >::~_Tree<std::_Tmap_traits<int,unsigned long,std::less<int>,std::allocator<std::pair<int const ,unsigned long> >,0> >
_TEXT	ENDS
; Function compile flags: /Ogtp
; File C:\Program Files\Microsoft Visual Studio\2022\Professional\VC\Tools\MSVC\14.44.35207\include\vector
;	COMDAT ?_Xlength@?$vector@HV?$allocator@H@std@@@std@@CAXXZ
_TEXT	SEGMENT
?_Xlength@?$vector@HV?$allocator@H@std@@@std@@CAXXZ PROC ; std::vector<int,std::allocator<int> >::_Xlength, COMDAT

; 2184 :         _Xlength_error("vector too long");

  00000	68 00 00 00 00	 push	 OFFSET ??_C@_0BA@FOIKENOD@vector?5too?5long@
  00005	e8 00 00 00 00	 call	 ?_Xlength_error@std@@YAXPBD@Z ; std::_Xlength_error
$LN3@Xlength:
  0000a	cc		 int	 3
?_Xlength@?$vector@HV?$allocator@H@std@@@std@@CAXXZ ENDP ; std::vector<int,std::allocator<int> >::_Xlength
_TEXT	ENDS
; Function compile flags: /Ogtp
; File C:\Program Files\Microsoft Visual Studio\2022\Professional\VC\Tools\MSVC\14.44.35207\include\vector
; File C:\Program Files\Microsoft Visual Studio\2022\Professional\VC\Tools\MSVC\14.44.35207\include\xmemory
; File C:\Program Files\Microsoft Visual Studio\2022\Professional\VC\Tools\MSVC\14.44.35207\include\vector
; File C:\Program Files\Microsoft Visual Studio\2022\Professional\VC\Tools\MSVC\14.44.35207\include\xmemory
; File C:\Program Files\Microsoft Visual Studio\2022\Professional\VC\Tools\MSVC\14.44.35207\include\vector
; File C:\Program Files\Microsoft Visual Studio\2022\Professional\VC\Tools\MSVC\14.44.35207\include\xmemory
; File C:\Program Files\Microsoft Visual Studio\2022\Professional\VC\Tools\MSVC\14.44.35207\include\vector
;	COMDAT ??1?$vector@HV?$allocator@H@std@@@std@@QAE@XZ
_TEXT	SEGMENT
??1?$vector@HV?$allocator@H@std@@@std@@QAE@XZ PROC	; std::vector<int,std::allocator<int> >::~vector<int,std::allocator<int> >, COMDAT
; _this$ = ecx

; 829  :     _CONSTEXPR20 ~vector() noexcept {

  00000	56		 push	 esi
  00001	8b f1		 mov	 esi, ecx

; 2090 :         if (_Myfirst) { // destroy and deallocate old array

  00003	8b 06		 mov	 eax, DWORD PTR [esi]
  00005	85 c0		 test	 eax, eax
  00007	74 40		 je	 SHORT $LN5@vector

; 2091 :             _STD _Destroy_range(_Myfirst, _Mylast, _Al);
; 2092 :             _ASAN_VECTOR_REMOVE;
; 2093 :             _Al.deallocate(_Myfirst, static_cast<size_type>(_Myend - _Myfirst));

  00009	8b 4e 08	 mov	 ecx, DWORD PTR [esi+8]
  0000c	2b c8		 sub	 ecx, eax
; File C:\Program Files\Microsoft Visual Studio\2022\Professional\VC\Tools\MSVC\14.44.35207\include\xmemory

; 985  :         _STD _Deallocate<_New_alignof<_Ty>>(_Ptr, sizeof(_Ty) * _Count);

  0000e	83 e1 fc	 and	 ecx, -4			; fffffffcH

; 284  :         if (_Bytes >= _Big_allocation_threshold) {

  00011	81 f9 00 10 00
	00		 cmp	 ecx, 4096		; 00001000H
  00017	72 12		 jb	 SHORT $LN18@vector

; 205  :     const uintptr_t _Ptr_container   = _Ptr_user[-1];

  00019	8b 50 fc	 mov	 edx, DWORD PTR [eax-4]
  0001c	83 c1 23	 add	 ecx, 35			; 00000023H

; 206  : 
; 207  :     // If the following asserts, it likely means that we are performing
; 208  :     // an aligned delete on memory coming from an unaligned allocation.
; 209  :     _STL_ASSERT(_Ptr_user[-2] == _Big_allocation_sentinel, "invalid argument");
; 210  : 
; 211  :     // Extra paranoia on aligned allocation/deallocation; ensure _Ptr_container is
; 212  :     // in range [_Min_back_shift, _Non_user_size]
; 213  : #ifdef _DEBUG
; 214  :     constexpr uintptr_t _Min_back_shift = 2 * sizeof(void*);
; 215  : #else // ^^^ defined(_DEBUG) / !defined(_DEBUG) vvv
; 216  :     constexpr uintptr_t _Min_back_shift = sizeof(void*);
; 217  : #endif // ^^^ !defined(_DEBUG) ^^^
; 218  :     const uintptr_t _Back_shift = reinterpret_cast<uintptr_t>(_Ptr) - _Ptr_container;

  0001f	2b c2		 sub	 eax, edx

; 219  :     _STL_VERIFY(_Back_shift >= _Min_back_shift && _Back_shift <= _Non_user_size, "invalid argument");

  00021	83 c0 fc	 add	 eax, -4			; fffffffcH
  00024	83 f8 1f	 cmp	 eax, 31			; 0000001fH
  00027	77 22		 ja	 SHORT $LN17@vector

; 220  :     _Ptr = reinterpret_cast<void*>(_Ptr_container);

  00029	8b c2		 mov	 eax, edx
$LN18@vector:

; 289  :         ::operator delete(_Ptr, _Bytes);

  0002b	51		 push	 ecx
  0002c	50		 push	 eax
  0002d	e8 00 00 00 00	 call	 ??3@YAXPAXI@Z		; operator delete
; File C:\Program Files\Microsoft Visual Studio\2022\Professional\VC\Tools\MSVC\14.44.35207\include\vector

; 2095 :             _Myfirst = nullptr;

  00032	c7 06 00 00 00
	00		 mov	 DWORD PTR [esi], 0
; File C:\Program Files\Microsoft Visual Studio\2022\Professional\VC\Tools\MSVC\14.44.35207\include\xmemory

; 289  :         ::operator delete(_Ptr, _Bytes);

  00038	83 c4 08	 add	 esp, 8
; File C:\Program Files\Microsoft Visual Studio\2022\Professional\VC\Tools\MSVC\14.44.35207\include\vector

; 2096 :             _Mylast  = nullptr;

  0003b	c7 46 04 00 00
	00 00		 mov	 DWORD PTR [esi+4], 0

; 2097 :             _Myend   = nullptr;

  00042	c7 46 08 00 00
	00 00		 mov	 DWORD PTR [esi+8], 0
$LN5@vector:
  00049	5e		 pop	 esi

; 835  :     }

  0004a	c3		 ret	 0
$LN17@vector:
; File C:\Program Files\Microsoft Visual Studio\2022\Professional\VC\Tools\MSVC\14.44.35207\include\xmemory

; 219  :     _STL_VERIFY(_Back_shift >= _Min_back_shift && _Back_shift <= _Non_user_size, "invalid argument");

  0004b	6a 00		 push	 0
  0004d	6a 00		 push	 0
  0004f	6a 00		 push	 0
  00051	6a 00		 push	 0
  00053	6a 00		 push	 0
  00055	e8 00 00 00 00	 call	 __invoke_watson
$LN26@vector:
  0005a	cc		 int	 3
??1?$vector@HV?$allocator@H@std@@@std@@QAE@XZ ENDP	; std::vector<int,std::allocator<int> >::~vector<int,std::allocator<int> >
_TEXT	ENDS
; Function compile flags: /Ogtp
; File C:\Program Files\Microsoft Visual Studio\2022\Professional\VC\Tools\MSVC\14.44.35207\include\vector
; File C:\Program Files\Microsoft Visual Studio\2022\Professional\VC\Tools\MSVC\14.44.35207\include\xmemory
; File C:\Program Files\Microsoft Visual Studio\2022\Professional\VC\Tools\MSVC\14.44.35207\include\vector
; File C:\Program Files\Microsoft Visual Studio\2022\Professional\VC\Tools\MSVC\14.44.35207\include\xmemory
; File C:\Program Files\Microsoft Visual Studio\2022\Professional\VC\Tools\MSVC\14.44.35207\include\vector
; File C:\Program Files\Microsoft Visual Studio\2022\Professional\VC\Tools\MSVC\14.44.35207\include\xmemory
; File C:\Program Files\Microsoft Visual Studio\2022\Professional\VC\Tools\MSVC\14.44.35207\include\vector
;	COMDAT ??1?$vector@KV?$allocator@K@std@@@std@@QAE@XZ
_TEXT	SEGMENT
??1?$vector@KV?$allocator@K@std@@@std@@QAE@XZ PROC	; std::vector<unsigned long,std::allocator<unsigned long> >::~vector<unsigned long,std::allocator<unsigned long> >, COMDAT
; _this$ = ecx

; 829  :     _CONSTEXPR20 ~vector() noexcept {

  00000	56		 push	 esi
  00001	8b f1		 mov	 esi, ecx

; 2090 :         if (_Myfirst) { // destroy and deallocate old array

  00003	8b 06		 mov	 eax, DWORD PTR [esi]
  00005	85 c0		 test	 eax, eax
  00007	74 40		 je	 SHORT $LN5@vector

; 2091 :             _STD _Destroy_range(_Myfirst, _Mylast, _Al);
; 2092 :             _ASAN_VECTOR_REMOVE;
; 2093 :             _Al.deallocate(_Myfirst, static_cast<size_type>(_Myend - _Myfirst));

  00009	8b 4e 08	 mov	 ecx, DWORD PTR [esi+8]
  0000c	2b c8		 sub	 ecx, eax
; File C:\Program Files\Microsoft Visual Studio\2022\Professional\VC\Tools\MSVC\14.44.35207\include\xmemory

; 985  :         _STD _Deallocate<_New_alignof<_Ty>>(_Ptr, sizeof(_Ty) * _Count);

  0000e	83 e1 fc	 and	 ecx, -4			; fffffffcH

; 284  :         if (_Bytes >= _Big_allocation_threshold) {

  00011	81 f9 00 10 00
	00		 cmp	 ecx, 4096		; 00001000H
  00017	72 12		 jb	 SHORT $LN18@vector

; 205  :     const uintptr_t _Ptr_container   = _Ptr_user[-1];

  00019	8b 50 fc	 mov	 edx, DWORD PTR [eax-4]
  0001c	83 c1 23	 add	 ecx, 35			; 00000023H

; 206  : 
; 207  :     // If the following asserts, it likely means that we are performing
; 208  :     // an aligned delete on memory coming from an unaligned allocation.
; 209  :     _STL_ASSERT(_Ptr_user[-2] == _Big_allocation_sentinel, "invalid argument");
; 210  : 
; 211  :     // Extra paranoia on aligned allocation/deallocation; ensure _Ptr_container is
; 212  :     // in range [_Min_back_shift, _Non_user_size]
; 213  : #ifdef _DEBUG
; 214  :     constexpr uintptr_t _Min_back_shift = 2 * sizeof(void*);
; 215  : #else // ^^^ defined(_DEBUG) / !defined(_DEBUG) vvv
; 216  :     constexpr uintptr_t _Min_back_shift = sizeof(void*);
; 217  : #endif // ^^^ !defined(_DEBUG) ^^^
; 218  :     const uintptr_t _Back_shift = reinterpret_cast<uintptr_t>(_Ptr) - _Ptr_container;

  0001f	2b c2		 sub	 eax, edx

; 219  :     _STL_VERIFY(_Back_shift >= _Min_back_shift && _Back_shift <= _Non_user_size, "invalid argument");

  00021	83 c0 fc	 add	 eax, -4			; fffffffcH
  00024	83 f8 1f	 cmp	 eax, 31			; 0000001fH
  00027	77 22		 ja	 SHORT $LN17@vector

; 220  :     _Ptr = reinterpret_cast<void*>(_Ptr_container);

  00029	8b c2		 mov	 eax, edx
$LN18@vector:

; 289  :         ::operator delete(_Ptr, _Bytes);

  0002b	51		 push	 ecx
  0002c	50		 push	 eax
  0002d	e8 00 00 00 00	 call	 ??3@YAXPAXI@Z		; operator delete
; File C:\Program Files\Microsoft Visual Studio\2022\Professional\VC\Tools\MSVC\14.44.35207\include\vector

; 2095 :             _Myfirst = nullptr;

  00032	c7 06 00 00 00
	00		 mov	 DWORD PTR [esi], 0
; File C:\Program Files\Microsoft Visual Studio\2022\Professional\VC\Tools\MSVC\14.44.35207\include\xmemory

; 289  :         ::operator delete(_Ptr, _Bytes);

  00038	83 c4 08	 add	 esp, 8
; File C:\Program Files\Microsoft Visual Studio\2022\Professional\VC\Tools\MSVC\14.44.35207\include\vector

; 2096 :             _Mylast  = nullptr;

  0003b	c7 46 04 00 00
	00 00		 mov	 DWORD PTR [esi+4], 0

; 2097 :             _Myend   = nullptr;

  00042	c7 46 08 00 00
	00 00		 mov	 DWORD PTR [esi+8], 0
$LN5@vector:
  00049	5e		 pop	 esi

; 835  :     }

  0004a	c3		 ret	 0
$LN17@vector:
; File C:\Program Files\Microsoft Visual Studio\2022\Professional\VC\Tools\MSVC\14.44.35207\include\xmemory

; 219  :     _STL_VERIFY(_Back_shift >= _Min_back_shift && _Back_shift <= _Non_user_size, "invalid argument");

  0004b	6a 00		 push	 0
  0004d	6a 00		 push	 0
  0004f	6a 00		 push	 0
  00051	6a 00		 push	 0
  00053	6a 00		 push	 0
  00055	e8 00 00 00 00	 call	 __invoke_watson
$LN26@vector:
  0005a	cc		 int	 3
??1?$vector@KV?$allocator@K@std@@@std@@QAE@XZ ENDP	; std::vector<unsigned long,std::allocator<unsigned long> >::~vector<unsigned long,std::allocator<unsigned long> >
_TEXT	ENDS
; Function compile flags: /Ogtp
; File C:\Program Files\Microsoft Visual Studio\2022\Professional\VC\Tools\MSVC\14.44.35207\include\xtree
;	COMDAT ?_Throw_tree_length_error@std@@YAXXZ
_TEXT	SEGMENT
?_Throw_tree_length_error@std@@YAXXZ PROC		; std::_Throw_tree_length_error, COMDAT

; 417  :     _Xlength_error("map/set too long");

  00000	68 00 00 00 00	 push	 OFFSET ??_C@_0BB@GCADKGJO@map?1set?5too?5long@
  00005	e8 00 00 00 00	 call	 ?_Xlength_error@std@@YAXPBD@Z ; std::_Xlength_error
$LN3@Throw_tree:
  0000a	cc		 int	 3
?_Throw_tree_length_error@std@@YAXXZ ENDP		; std::_Throw_tree_length_error
_TEXT	ENDS
; Function compile flags: /Ogtp
; File C:\Program Files\Microsoft Visual Studio\2022\Professional\VC\Tools\MSVC\14.44.35207\include\xmemory
;	COMDAT ?_Throw_bad_array_new_length@std@@YAXXZ
_TEXT	SEGMENT
$T1 = -12						; size = 12
?_Throw_bad_array_new_length@std@@YAXXZ PROC		; std::_Throw_bad_array_new_length, COMDAT

; 107  : [[noreturn]] inline void _Throw_bad_array_new_length() {

  00000	55		 push	 ebp
  00001	8b ec		 mov	 ebp, esp
  00003	83 ec 0c	 sub	 esp, 12			; 0000000cH

; 108  :     _THROW(bad_array_new_length{});

  00006	8d 4d f4	 lea	 ecx, DWORD PTR $T1[ebp]
  00009	e8 00 00 00 00	 call	 ??0bad_array_new_length@std@@QAE@XZ ; std::bad_array_new_length::bad_array_new_length
  0000e	68 00 00 00 00	 push	 OFFSET __TI3?AVbad_array_new_length@std@@
  00013	8d 45 f4	 lea	 eax, DWORD PTR $T1[ebp]
  00016	50		 push	 eax
  00017	e8 00 00 00 00	 call	 __CxxThrowException@8
$LN3@Throw_bad_:
  0001c	cc		 int	 3
?_Throw_bad_array_new_length@std@@YAXXZ ENDP		; std::_Throw_bad_array_new_length
_TEXT	ENDS
; Function compile flags: /Ogtp
; File C:\Program Files\Microsoft Visual Studio\2022\Professional\VC\Tools\MSVC\14.44.35207\include\vcruntime_exception.h
;	COMDAT ??_Gbad_array_new_length@std@@UAEPAXI@Z
_TEXT	SEGMENT
___flags$ = 8						; size = 4
??_Gbad_array_new_length@std@@UAEPAXI@Z PROC		; std::bad_array_new_length::`scalar deleting destructor', COMDAT
; _this$ = ecx
  00000	55		 push	 ebp
  00001	8b ec		 mov	 ebp, esp

; 90   :     {

  00003	56		 push	 esi
  00004	8b f1		 mov	 esi, ecx

; 91   :         __std_exception_destroy(&_Data);

  00006	8d 46 04	 lea	 eax, DWORD PTR [esi+4]
  00009	c7 06 00 00 00
	00		 mov	 DWORD PTR [esi], OFFSET ??_7exception@std@@6B@
  0000f	50		 push	 eax
  00010	e8 00 00 00 00	 call	 ___std_exception_destroy
  00015	83 c4 04	 add	 esp, 4
  00018	f6 45 08 01	 test	 BYTE PTR ___flags$[ebp], 1
  0001c	74 0b		 je	 SHORT $LN18@scalar
  0001e	6a 0c		 push	 12			; 0000000cH
  00020	56		 push	 esi
  00021	e8 00 00 00 00	 call	 ??3@YAXPAXI@Z		; operator delete
  00026	83 c4 08	 add	 esp, 8
$LN18@scalar:
  00029	8b c6		 mov	 eax, esi
  0002b	5e		 pop	 esi
  0002c	5d		 pop	 ebp
  0002d	c2 04 00	 ret	 4
??_Gbad_array_new_length@std@@UAEPAXI@Z ENDP		; std::bad_array_new_length::`scalar deleting destructor'
_TEXT	ENDS
; Function compile flags: /Ogtp
; File C:\Program Files\Microsoft Visual Studio\2022\Professional\VC\Tools\MSVC\14.44.35207\include\vcruntime_exception.h
;	COMDAT ??0bad_array_new_length@std@@QAE@ABV01@@Z
_TEXT	SEGMENT
___that$ = 8						; size = 4
??0bad_array_new_length@std@@QAE@ABV01@@Z PROC		; std::bad_array_new_length::bad_array_new_length, COMDAT
; _this$ = ecx
  00000	55		 push	 ebp
  00001	8b ec		 mov	 ebp, esp

; 73   :     {

  00003	56		 push	 esi
  00004	8b f1		 mov	 esi, ecx
  00006	0f 57 c0	 xorps	 xmm0, xmm0

; 72   :         : _Data()

  00009	8d 46 04	 lea	 eax, DWORD PTR [esi+4]

; 74   :         __std_exception_copy(&_Other._Data, &_Data);

  0000c	50		 push	 eax
  0000d	c7 06 00 00 00
	00		 mov	 DWORD PTR [esi], OFFSET ??_7exception@std@@6B@
  00013	66 0f d6 00	 movq	 QWORD PTR [eax], xmm0
  00017	8b 45 08	 mov	 eax, DWORD PTR ___that$[ebp]
  0001a	83 c0 04	 add	 eax, 4
  0001d	50		 push	 eax
  0001e	e8 00 00 00 00	 call	 ___std_exception_copy
  00023	83 c4 08	 add	 esp, 8
  00026	c7 06 00 00 00
	00		 mov	 DWORD PTR [esi], OFFSET ??_7bad_array_new_length@std@@6B@
  0002c	8b c6		 mov	 eax, esi
  0002e	5e		 pop	 esi
  0002f	5d		 pop	 ebp
  00030	c2 04 00	 ret	 4
??0bad_array_new_length@std@@QAE@ABV01@@Z ENDP		; std::bad_array_new_length::bad_array_new_length
_TEXT	ENDS
; Function compile flags: /Ogtp
; File C:\Program Files\Microsoft Visual Studio\2022\Professional\VC\Tools\MSVC\14.44.35207\include\vcruntime_exception.h
;	COMDAT ??1bad_array_new_length@std@@UAE@XZ
_TEXT	SEGMENT
??1bad_array_new_length@std@@UAE@XZ PROC		; std::bad_array_new_length::~bad_array_new_length, COMDAT
; _this$ = ecx

; 91   :         __std_exception_destroy(&_Data);

  00000	8d 41 04	 lea	 eax, DWORD PTR [ecx+4]
  00003	c7 01 00 00 00
	00		 mov	 DWORD PTR [ecx], OFFSET ??_7exception@std@@6B@
  00009	50		 push	 eax
  0000a	e8 00 00 00 00	 call	 ___std_exception_destroy
  0000f	59		 pop	 ecx
  00010	c3		 ret	 0
??1bad_array_new_length@std@@UAE@XZ ENDP		; std::bad_array_new_length::~bad_array_new_length
_TEXT	ENDS
; Function compile flags: /Ogtp
; File C:\Program Files\Microsoft Visual Studio\2022\Professional\VC\Tools\MSVC\14.44.35207\include\vcruntime_exception.h
;	COMDAT ??0bad_array_new_length@std@@QAE@XZ
_TEXT	SEGMENT
??0bad_array_new_length@std@@QAE@XZ PROC		; std::bad_array_new_length::bad_array_new_length, COMDAT
; _this$ = ecx

; 144  :     {

  00000	0f 57 c0	 xorps	 xmm0, xmm0

; 145  :     }

  00003	8b c1		 mov	 eax, ecx

; 66   :         : _Data()

  00005	66 0f d6 41 04	 movq	 QWORD PTR [ecx+4], xmm0

; 67   :     {
; 68   :         _Data._What = _Message;

  0000a	c7 41 04 00 00
	00 00		 mov	 DWORD PTR [ecx+4], OFFSET ??_C@_0BF@KINCDENJ@bad?5array?5new?5length@

; 144  :     {

  00011	c7 01 00 00 00
	00		 mov	 DWORD PTR [ecx], OFFSET ??_7bad_array_new_length@std@@6B@

; 145  :     }

  00017	c3		 ret	 0
??0bad_array_new_length@std@@QAE@XZ ENDP		; std::bad_array_new_length::bad_array_new_length
_TEXT	ENDS
; Function compile flags: /Ogtp
; File C:\Program Files\Microsoft Visual Studio\2022\Professional\VC\Tools\MSVC\14.44.35207\include\vcruntime_exception.h
;	COMDAT ??_Gbad_alloc@std@@UAEPAXI@Z
_TEXT	SEGMENT
___flags$ = 8						; size = 4
??_Gbad_alloc@std@@UAEPAXI@Z PROC			; std::bad_alloc::`scalar deleting destructor', COMDAT
; _this$ = ecx
  00000	55		 push	 ebp
  00001	8b ec		 mov	 ebp, esp

; 90   :     {

  00003	56		 push	 esi
  00004	8b f1		 mov	 esi, ecx

; 91   :         __std_exception_destroy(&_Data);

  00006	8d 46 04	 lea	 eax, DWORD PTR [esi+4]
  00009	c7 06 00 00 00
	00		 mov	 DWORD PTR [esi], OFFSET ??_7exception@std@@6B@
  0000f	50		 push	 eax
  00010	e8 00 00 00 00	 call	 ___std_exception_destroy
  00015	83 c4 04	 add	 esp, 4
  00018	f6 45 08 01	 test	 BYTE PTR ___flags$[ebp], 1
  0001c	74 0b		 je	 SHORT $LN13@scalar
  0001e	6a 0c		 push	 12			; 0000000cH
  00020	56		 push	 esi
  00021	e8 00 00 00 00	 call	 ??3@YAXPAXI@Z		; operator delete
  00026	83 c4 08	 add	 esp, 8
$LN13@scalar:
  00029	8b c6		 mov	 eax, esi
  0002b	5e		 pop	 esi
  0002c	5d		 pop	 ebp
  0002d	c2 04 00	 ret	 4
??_Gbad_alloc@std@@UAEPAXI@Z ENDP			; std::bad_alloc::`scalar deleting destructor'
_TEXT	ENDS
; Function compile flags: /Ogtp
; File C:\Program Files\Microsoft Visual Studio\2022\Professional\VC\Tools\MSVC\14.44.35207\include\vcruntime_exception.h
;	COMDAT ??0bad_alloc@std@@QAE@ABV01@@Z
_TEXT	SEGMENT
___that$ = 8						; size = 4
??0bad_alloc@std@@QAE@ABV01@@Z PROC			; std::bad_alloc::bad_alloc, COMDAT
; _this$ = ecx
  00000	55		 push	 ebp
  00001	8b ec		 mov	 ebp, esp

; 73   :     {

  00003	56		 push	 esi
  00004	8b f1		 mov	 esi, ecx
  00006	0f 57 c0	 xorps	 xmm0, xmm0

; 72   :         : _Data()

  00009	8d 46 04	 lea	 eax, DWORD PTR [esi+4]

; 74   :         __std_exception_copy(&_Other._Data, &_Data);

  0000c	50		 push	 eax
  0000d	c7 06 00 00 00
	00		 mov	 DWORD PTR [esi], OFFSET ??_7exception@std@@6B@
  00013	66 0f d6 00	 movq	 QWORD PTR [eax], xmm0
  00017	8b 45 08	 mov	 eax, DWORD PTR ___that$[ebp]
  0001a	83 c0 04	 add	 eax, 4
  0001d	50		 push	 eax
  0001e	e8 00 00 00 00	 call	 ___std_exception_copy
  00023	83 c4 08	 add	 esp, 8
  00026	c7 06 00 00 00
	00		 mov	 DWORD PTR [esi], OFFSET ??_7bad_alloc@std@@6B@
  0002c	8b c6		 mov	 eax, esi
  0002e	5e		 pop	 esi
  0002f	5d		 pop	 ebp
  00030	c2 04 00	 ret	 4
??0bad_alloc@std@@QAE@ABV01@@Z ENDP			; std::bad_alloc::bad_alloc
_TEXT	ENDS
; Function compile flags: /Ogtp
; File C:\Program Files\Microsoft Visual Studio\2022\Professional\VC\Tools\MSVC\14.44.35207\include\vcruntime_exception.h
;	COMDAT ??_Gexception@std@@UAEPAXI@Z
_TEXT	SEGMENT
___flags$ = 8						; size = 4
??_Gexception@std@@UAEPAXI@Z PROC			; std::exception::`scalar deleting destructor', COMDAT
; _this$ = ecx
  00000	55		 push	 ebp
  00001	8b ec		 mov	 ebp, esp

; 90   :     {

  00003	56		 push	 esi
  00004	8b f1		 mov	 esi, ecx

; 91   :         __std_exception_destroy(&_Data);

  00006	8d 46 04	 lea	 eax, DWORD PTR [esi+4]
  00009	c7 06 00 00 00
	00		 mov	 DWORD PTR [esi], OFFSET ??_7exception@std@@6B@
  0000f	50		 push	 eax
  00010	e8 00 00 00 00	 call	 ___std_exception_destroy
  00015	83 c4 04	 add	 esp, 4
  00018	f6 45 08 01	 test	 BYTE PTR ___flags$[ebp], 1
  0001c	74 0b		 je	 SHORT $LN8@scalar
  0001e	6a 0c		 push	 12			; 0000000cH
  00020	56		 push	 esi
  00021	e8 00 00 00 00	 call	 ??3@YAXPAXI@Z		; operator delete
  00026	83 c4 08	 add	 esp, 8
$LN8@scalar:
  00029	8b c6		 mov	 eax, esi
  0002b	5e		 pop	 esi
  0002c	5d		 pop	 ebp
  0002d	c2 04 00	 ret	 4
??_Gexception@std@@UAEPAXI@Z ENDP			; std::exception::`scalar deleting destructor'
_TEXT	ENDS
; Function compile flags: /Ogtp
; File C:\Program Files\Microsoft Visual Studio\2022\Professional\VC\Tools\MSVC\14.44.35207\include\vcruntime_exception.h
;	COMDAT ?what@exception@std@@UBEPBDXZ
_TEXT	SEGMENT
?what@exception@std@@UBEPBDXZ PROC			; std::exception::what, COMDAT
; _this$ = ecx

; 96   :         return _Data._What ? _Data._What : "Unknown exception";

  00000	8b 49 04	 mov	 ecx, DWORD PTR [ecx+4]
  00003	b8 00 00 00 00	 mov	 eax, OFFSET ??_C@_0BC@EOODALEL@Unknown?5exception@
  00008	85 c9		 test	 ecx, ecx
  0000a	0f 45 c1	 cmovne	 eax, ecx

; 97   :     }

  0000d	c3		 ret	 0
?what@exception@std@@UBEPBDXZ ENDP			; std::exception::what
_TEXT	ENDS
; Function compile flags: /Ogtp
; File C:\Program Files\Microsoft Visual Studio\2022\Professional\VC\Tools\MSVC\14.44.35207\include\vcruntime_exception.h
;	COMDAT ??1exception@std@@UAE@XZ
_TEXT	SEGMENT
??1exception@std@@UAE@XZ PROC				; std::exception::~exception, COMDAT
; _this$ = ecx

; 91   :         __std_exception_destroy(&_Data);

  00000	8d 41 04	 lea	 eax, DWORD PTR [ecx+4]
  00003	c7 01 00 00 00
	00		 mov	 DWORD PTR [ecx], OFFSET ??_7exception@std@@6B@
  00009	50		 push	 eax
  0000a	e8 00 00 00 00	 call	 ___std_exception_destroy
  0000f	59		 pop	 ecx

; 92   :     }

  00010	c3		 ret	 0
??1exception@std@@UAE@XZ ENDP				; std::exception::~exception
_TEXT	ENDS
; Function compile flags: /Ogtp
; File C:\Program Files\Microsoft Visual Studio\2022\Professional\VC\Tools\MSVC\14.44.35207\include\vcruntime_exception.h
;	COMDAT ??0exception@std@@QAE@ABV01@@Z
_TEXT	SEGMENT
__Other$ = 8						; size = 4
??0exception@std@@QAE@ABV01@@Z PROC			; std::exception::exception, COMDAT
; _this$ = ecx

; 73   :     {

  00000	55		 push	 ebp
  00001	8b ec		 mov	 ebp, esp
  00003	56		 push	 esi
  00004	8b f1		 mov	 esi, ecx
  00006	0f 57 c0	 xorps	 xmm0, xmm0
  00009	8d 46 04	 lea	 eax, DWORD PTR [esi+4]

; 74   :         __std_exception_copy(&_Other._Data, &_Data);

  0000c	50		 push	 eax
  0000d	c7 06 00 00 00
	00		 mov	 DWORD PTR [esi], OFFSET ??_7exception@std@@6B@
  00013	66 0f d6 00	 movq	 QWORD PTR [eax], xmm0
  00017	8b 45 08	 mov	 eax, DWORD PTR __Other$[ebp]
  0001a	83 c0 04	 add	 eax, 4
  0001d	50		 push	 eax
  0001e	e8 00 00 00 00	 call	 ___std_exception_copy
  00023	83 c4 08	 add	 esp, 8

; 75   :     }

  00026	8b c6		 mov	 eax, esi
  00028	5e		 pop	 esi
  00029	5d		 pop	 ebp
  0002a	c2 04 00	 ret	 4
??0exception@std@@QAE@ABV01@@Z ENDP			; std::exception::exception
_TEXT	ENDS
; Function compile flags: /Ogtp
; File C:\IAGOS\server\v18\Source\Source\WorldServer\CampusHelper.cpp
;	COMDAT ?__empty_global_delete@@YAXPAXI@Z
_TEXT	SEGMENT
___formal$ = 8						; size = 4
___formal$ = 12						; size = 4
?__empty_global_delete@@YAXPAXI@Z PROC			; __empty_global_delete, COMDAT

  00000	c2 00 00	 ret	 0
?__empty_global_delete@@YAXPAXI@Z ENDP			; __empty_global_delete
_TEXT	ENDS
; Function compile flags: /Ogtp
; File C:\IAGOS\server\v18\Source\Source\WorldServer\CampusHelper.cpp
;	COMDAT ?__empty_global_delete@@YAXPAX@Z
_TEXT	SEGMENT
___formal$ = 8						; size = 4
?__empty_global_delete@@YAXPAX@Z PROC			; __empty_global_delete, COMDAT

  00000	c2 00 00	 ret	 0
?__empty_global_delete@@YAXPAX@Z ENDP			; __empty_global_delete
_TEXT	ENDS
END
