; Listing generated by Microsoft (R) Optimizing Compiler Version 19.44.35225.0 

	TITLE	C:\IAGOS\server\v18\Source\Output\WorldServer\Release\Colosseum.obj
	.686P
	.XMM
	include listing.inc
	.model	flat

INCLUDELIB LIBCMT
INCLUDELIB OLDNAMES

CONST	SEGMENT
?piecewise_construct@std@@3Upiecewise_construct_t@1@B	ORG $+1 ; std::piecewise_construct
CONST	ENDS
PUBLIC	?__empty_global_delete@@YAXPAX@Z		; __empty_global_delete
PUBLIC	?__empty_global_delete@@YAXPAXI@Z		; __empty_global_delete
PUBLIC	___local_stdio_printf_options
PUBLIC	?AtlThrowImpl@ATL@@YGXJ@Z			; ATL::AtlThrowImpl
PUBLIC	??1?$CSimpleStringT@D$0A@@ATL@@QAE@XZ		; ATL::CSimpleStringT<char,0>::~CSimpleStringT<char,0>
PUBLIC	?SetString@?$CSimpleStringT@D$0A@@ATL@@QAEXPBDH@Z ; ATL::CSimpleStringT<char,0>::SetString
PUBLIC	?ThrowMemoryException@?$CSimpleStringT@D$0A@@ATL@@KAXXZ ; ATL::CSimpleStringT<char,0>::ThrowMemoryException
PUBLIC	?Fork@?$CSimpleStringT@D$0A@@ATL@@AAEXH@Z	; ATL::CSimpleStringT<char,0>::Fork
PUBLIC	?PrepareWrite2@?$CSimpleStringT@D$0A@@ATL@@AAEXH@Z ; ATL::CSimpleStringT<char,0>::PrepareWrite2
PUBLIC	?Reallocate@?$CSimpleStringT@D$0A@@ATL@@AAEXH@Z	; ATL::CSimpleStringT<char,0>::Reallocate
PUBLIC	??1?$CStringT@DV?$StrTraitMFC@DV?$ChTraitsCRT@D@ATL@@@@@ATL@@QAE@XZ ; ATL::CStringT<char,StrTraitMFC<char,ATL::ChTraitsCRT<char> > >::~CStringT<char,StrTraitMFC<char,ATL::ChTraitsCRT<char> > >
PUBLIC	?Format@?$CStringT@DV?$StrTraitMFC@DV?$ChTraitsCRT@D@ATL@@@@@ATL@@QAAXPBDZZ ; ATL::CStringT<char,StrTraitMFC<char,ATL::ChTraitsCRT<char> > >::Format
PUBLIC	?FormatV@?$CStringT@DV?$StrTraitMFC@DV?$ChTraitsCRT@D@ATL@@@@@ATL@@QAEXPBDPAD@Z ; ATL::CStringT<char,StrTraitMFC<char,ATL::ChTraitsCRT<char> > >::FormatV
PUBLIC	?LoadStringA@?$CStringT@DV?$StrTraitMFC@DV?$ChTraitsCRT@D@ATL@@@@@ATL@@QAEHI@Z ; ATL::CStringT<char,StrTraitMFC<char,ATL::ChTraitsCRT<char> > >::LoadStringA
PUBLIC	??0exception@std@@QAE@ABV01@@Z			; std::exception::exception
PUBLIC	??1exception@std@@UAE@XZ			; std::exception::~exception
PUBLIC	?what@exception@std@@UBEPBDXZ			; std::exception::what
PUBLIC	??_Gexception@std@@UAEPAXI@Z			; std::exception::`scalar deleting destructor'
PUBLIC	??0bad_alloc@std@@QAE@ABV01@@Z			; std::bad_alloc::bad_alloc
PUBLIC	??_Gbad_alloc@std@@UAEPAXI@Z			; std::bad_alloc::`scalar deleting destructor'
PUBLIC	??0bad_array_new_length@std@@QAE@XZ		; std::bad_array_new_length::bad_array_new_length
PUBLIC	??1bad_array_new_length@std@@UAE@XZ		; std::bad_array_new_length::~bad_array_new_length
PUBLIC	??0bad_array_new_length@std@@QAE@ABV01@@Z	; std::bad_array_new_length::bad_array_new_length
PUBLIC	??_Gbad_array_new_length@std@@UAEPAXI@Z		; std::bad_array_new_length::`scalar deleting destructor'
PUBLIC	?_Throw_bad_array_new_length@std@@YAXXZ		; std::_Throw_bad_array_new_length
PUBLIC	?_Throw_tree_length_error@std@@YAXXZ		; std::_Throw_tree_length_error
PUBLIC	??1?$vector@KV?$allocator@K@std@@@std@@QAE@XZ	; std::vector<unsigned long,std::allocator<unsigned long> >::~vector<unsigned long,std::allocator<unsigned long> >
PUBLIC	?_Xlength@?$vector@KV?$allocator@K@std@@@std@@CAXXZ ; std::vector<unsigned long,std::allocator<unsigned long> >::_Xlength
PUBLIC	?_Xrange@?$vector@KV?$allocator@K@std@@@std@@CAXXZ ; std::vector<unsigned long,std::allocator<unsigned long> >::_Xrange
PUBLIC	??$_Allocate_manually_vector_aligned@U_Default_allocate_traits@std@@@std@@YAPAXI@Z ; std::_Allocate_manually_vector_aligned<std::_Default_allocate_traits>
PUBLIC	??0CColosseumMatch@@QAE@XZ			; CColosseumMatch::CColosseumMatch
PUBLIC	??1CColosseumMatch@@UAE@XZ			; CColosseumMatch::~CColosseumMatch
PUBLIC	?Process@CColosseumMatch@@QAEXXZ		; CColosseumMatch::Process
PUBLIC	?CreateMover@CColosseumMatch@@QAEXXZ		; CColosseumMatch::CreateMover
PUBLIC	?DestroyMover@CColosseumMatch@@QAEXXZ		; CColosseumMatch::DestroyMover
PUBLIC	?CreateRoomLayer@CColosseumMatch@@QAEXXZ	; CColosseumMatch::CreateRoomLayer
PUBLIC	?EnterRoom@CColosseumMatch@@QAEXPAVCUser@@@Z	; CColosseumMatch::EnterRoom
PUBLIC	?EndMatch@CColosseumMatch@@QAEXH@Z		; CColosseumMatch::EndMatch
PUBLIC	?GetUser@CColosseumMatch@@QAEPAVCUser@@K@Z	; CColosseumMatch::GetUser
PUBLIC	?EndWaitTime@CColosseumMatch@@QAEXXZ		; CColosseumMatch::EndWaitTime
PUBLIC	?KickUser@CColosseumMatch@@QAEXK@Z		; CColosseumMatch::KickUser
PUBLIC	?IsTeleported@CColosseumMatch@@QAEHK@Z		; CColosseumMatch::IsTeleported
PUBLIC	??_GCColosseumMatch@@UAEPAXI@Z			; CColosseumMatch::`scalar deleting destructor'
PUBLIC	??0CColosseumMng@@QAE@XZ			; CColosseumMng::CColosseumMng
PUBLIC	??1CColosseumMng@@UAE@XZ			; CColosseumMng::~CColosseumMng
PUBLIC	?GetInstance@CColosseumMng@@SAPAV1@XZ		; CColosseumMng::GetInstance
PUBLIC	?CreateNewMatch@CColosseumMng@@QAEHPAVCUser@@EE@Z ; CColosseumMng::CreateNewMatch
PUBLIC	?Process@CColosseumMng@@QAEXXZ			; CColosseumMng::Process
PUBLIC	?LoadScript@CColosseumMng@@QAEHXZ		; CColosseumMng::LoadScript
PUBLIC	?DestroyMatch@CColosseumMng@@QAEXK@Z		; CColosseumMng::DestroyMatch
PUBLIC	?GetMatchByParty@CColosseumMng@@QAEPAVCColosseumMatch@@PAVCParty@@@Z ; CColosseumMng::GetMatchByParty
PUBLIC	?GetMatchByMoverID@CColosseumMng@@QAEPAVCColosseumMatch@@K@Z ; CColosseumMng::GetMatchByMoverID
PUBLIC	??1?$_Tree@V?$_Tmap_traits@KPAVCColosseumMatch@@U?$less@K@std@@V?$allocator@U?$pair@$$CBKPAVCColosseumMatch@@@std@@@3@$0A@@std@@@std@@QAE@XZ ; std::_Tree<std::_Tmap_traits<unsigned long,CColosseumMatch *,std::less<unsigned long>,std::allocator<std::pair<unsigned long const ,CColosseumMatch *> >,0> >::~_Tree<std::_Tmap_traits<unsigned long,CColosseumMatch *,std::less<unsigned long>,std::allocator<std::pair<unsigned long const ,CColosseumMatch *> >,0> >
PUBLIC	?_Lrotate@?$_Tree_val@U?$_Tree_simple_types@U?$pair@$$CBKPAVCColosseumMatch@@@std@@@std@@@std@@QAEXPAU?$_Tree_node@U?$pair@$$CBKPAVCColosseumMatch@@@std@@PAX@2@@Z ; std::_Tree_val<std::_Tree_simple_types<std::pair<unsigned long const ,CColosseumMatch *> > >::_Lrotate
PUBLIC	?_Rrotate@?$_Tree_val@U?$_Tree_simple_types@U?$pair@$$CBKPAVCColosseumMatch@@@std@@@std@@@std@@QAEXPAU?$_Tree_node@U?$pair@$$CBKPAVCColosseumMatch@@@std@@PAX@2@@Z ; std::_Tree_val<std::_Tree_simple_types<std::pair<unsigned long const ,CColosseumMatch *> > >::_Rrotate
PUBLIC	?_Extract@?$_Tree_val@U?$_Tree_simple_types@U?$pair@$$CBKPAVCColosseumMatch@@@std@@@std@@@std@@QAEPAU?$_Tree_node@U?$pair@$$CBKPAVCColosseumMatch@@@std@@PAX@2@V?$_Tree_unchecked_const_iterator@V?$_Tree_val@U?$_Tree_simple_types@U?$pair@$$CBKPAVCColosseumMatch@@@std@@@std@@@std@@U_Iterator_base0@2@@2@@Z ; std::_Tree_val<std::_Tree_simple_types<std::pair<unsigned long const ,CColosseumMatch *> > >::_Extract
PUBLIC	?_Insert_node@?$_Tree_val@U?$_Tree_simple_types@U?$pair@$$CBKPAVCColosseumMatch@@@std@@@std@@@std@@QAEPAU?$_Tree_node@U?$pair@$$CBKPAVCColosseumMatch@@@std@@PAX@2@U?$_Tree_id@PAU?$_Tree_node@U?$pair@$$CBKPAVCColosseumMatch@@@std@@PAX@std@@@2@QAU32@@Z ; std::_Tree_val<std::_Tree_simple_types<std::pair<unsigned long const ,CColosseumMatch *> > >::_Insert_node
PUBLIC	??1?$vector@U__COLOSSEUM_MONSTER@@V?$allocator@U__COLOSSEUM_MONSTER@@@std@@@std@@QAE@XZ ; std::vector<__COLOSSEUM_MONSTER,std::allocator<__COLOSSEUM_MONSTER> >::~vector<__COLOSSEUM_MONSTER,std::allocator<__COLOSSEUM_MONSTER> >
PUBLIC	?_Tidy@?$vector@U__COLOSSEUM_MONSTER@@V?$allocator@U__COLOSSEUM_MONSTER@@@std@@@std@@AAEXXZ ; std::vector<__COLOSSEUM_MONSTER,std::allocator<__COLOSSEUM_MONSTER> >::_Tidy
PUBLIC	?_Xlength@?$vector@U__COLOSSEUM_MONSTER@@V?$allocator@U__COLOSSEUM_MONSTER@@@std@@@std@@CAXXZ ; std::vector<__COLOSSEUM_MONSTER,std::allocator<__COLOSSEUM_MONSTER> >::_Xlength
PUBLIC	?_Xrange@?$vector@U__COLOSSEUM_MONSTER@@V?$allocator@U__COLOSSEUM_MONSTER@@@std@@@std@@CAXXZ ; std::vector<__COLOSSEUM_MONSTER,std::allocator<__COLOSSEUM_MONSTER> >::_Xrange
PUBLIC	??_GCColosseumMng@@UAEPAXI@Z			; CColosseumMng::`scalar deleting destructor'
PUBLIC	??E?$_Tree_unchecked_const_iterator@V?$_Tree_val@U?$_Tree_simple_types@U?$pair@$$CBKPAVCColosseumMatch@@@std@@@std@@@std@@U_Iterator_base0@2@@std@@QAEAAV01@XZ ; std::_Tree_unchecked_const_iterator<std::_Tree_val<std::_Tree_simple_types<std::pair<unsigned long const ,CColosseumMatch *> > >,std::_Iterator_base0>::operator++
PUBLIC	??$_Emplace_reallocate@ABU__COLOSSEUM_MONSTER@@@?$vector@U__COLOSSEUM_MONSTER@@V?$allocator@U__COLOSSEUM_MONSTER@@@std@@@std@@AAEPAU__COLOSSEUM_MONSTER@@QAU2@ABU2@@Z ; std::vector<__COLOSSEUM_MONSTER,std::allocator<__COLOSSEUM_MONSTER> >::_Emplace_reallocate<__COLOSSEUM_MONSTER const &>
PUBLIC	??$_Find_lower_bound@K@?$_Tree@V?$_Tmap_traits@KPAVCColosseumMatch@@U?$less@K@std@@V?$allocator@U?$pair@$$CBKPAVCColosseumMatch@@@std@@@3@$0A@@std@@@std@@IBE?AU?$_Tree_find_result@PAU?$_Tree_node@U?$pair@$$CBKPAVCColosseumMatch@@@std@@PAX@std@@@1@ABK@Z ; std::_Tree<std::_Tmap_traits<unsigned long,CColosseumMatch *,std::less<unsigned long>,std::allocator<std::pair<unsigned long const ,CColosseumMatch *> >,0> >::_Find_lower_bound<unsigned long>
PUBLIC	??$_Erase_tree@V?$allocator@U?$_Tree_node@U?$pair@$$CBKPAVCColosseumMatch@@@std@@PAX@std@@@std@@@?$_Tree_val@U?$_Tree_simple_types@U?$pair@$$CBKPAVCColosseumMatch@@@std@@@std@@@std@@QAEXAAV?$allocator@U?$_Tree_node@U?$pair@$$CBKPAVCColosseumMatch@@@std@@PAX@std@@@1@PAU?$_Tree_node@U?$pair@$$CBKPAVCColosseumMatch@@@std@@PAX@1@@Z ; std::_Tree_val<std::_Tree_simple_types<std::pair<unsigned long const ,CColosseumMatch *> > >::_Erase_tree<std::allocator<std::_Tree_node<std::pair<unsigned long const ,CColosseumMatch *>,void *> > >
PUBLIC	??$_Copy_memmove@PAKPAK@std@@YAPAKPAK00@Z	; std::_Copy_memmove<unsigned long *,unsigned long *>
PUBLIC	??$_Emplace_reallocate@ABK@?$vector@KV?$allocator@K@std@@@std@@AAEPAKQAKABK@Z ; std::vector<unsigned long,std::allocator<unsigned long> >::_Emplace_reallocate<unsigned long const &>
PUBLIC	??1?$_Alloc_construct_ptr@V?$allocator@U?$_Tree_node@U?$pair@$$CBKPAVCColosseumMatch@@@std@@PAX@std@@@std@@@std@@QAE@XZ ; std::_Alloc_construct_ptr<std::allocator<std::_Tree_node<std::pair<unsigned long const ,CColosseumMatch *>,void *> > >::~_Alloc_construct_ptr<std::allocator<std::_Tree_node<std::pair<unsigned long const ,CColosseumMatch *>,void *> > >
PUBLIC	??$_Copy_memmove@PAU__COLOSSEUM_MONSTER@@PAU1@@std@@YAPAU__COLOSSEUM_MONSTER@@PAU1@00@Z ; std::_Copy_memmove<__COLOSSEUM_MONSTER *,__COLOSSEUM_MONSTER *>
PUBLIC	??$_Copy_memmove_tail@PAK@std@@YAPAKQBDQAKII@Z	; std::_Copy_memmove_tail<unsigned long *>
PUBLIC	??$_Copy_memmove_tail@PAU__COLOSSEUM_MONSTER@@@std@@YAPAU__COLOSSEUM_MONSTER@@QBDQAU1@II@Z ; std::_Copy_memmove_tail<__COLOSSEUM_MONSTER *>
PUBLIC	?_OptionsStorage@?1??__local_stdio_printf_options@@9@4_KA ; `__local_stdio_printf_options'::`2'::_OptionsStorage
PUBLIC	??_C@_00CNPNBAHC@@				; `string'
PUBLIC	??_7exception@std@@6B@				; std::exception::`vftable'
PUBLIC	??_C@_0BC@EOODALEL@Unknown?5exception@		; `string'
PUBLIC	??_7bad_alloc@std@@6B@				; std::bad_alloc::`vftable'
PUBLIC	??_7bad_array_new_length@std@@6B@		; std::bad_array_new_length::`vftable'
PUBLIC	??_C@_0BF@KINCDENJ@bad?5array?5new?5length@	; `string'
PUBLIC	??_R0?AVexception@std@@@8			; std::exception `RTTI Type Descriptor'
PUBLIC	__CT??_R0?AVexception@std@@@8??0exception@std@@QAE@ABV01@@Z12
PUBLIC	__TI3?AVbad_array_new_length@std@@
PUBLIC	__CTA3?AVbad_array_new_length@std@@
PUBLIC	??_R0?AVbad_array_new_length@std@@@8		; std::bad_array_new_length `RTTI Type Descriptor'
PUBLIC	__CT??_R0?AVbad_array_new_length@std@@@8??0bad_array_new_length@std@@QAE@ABV01@@Z12
PUBLIC	??_R0?AVbad_alloc@std@@@8			; std::bad_alloc `RTTI Type Descriptor'
PUBLIC	__CT??_R0?AVbad_alloc@std@@@8??0bad_alloc@std@@QAE@ABV01@@Z12
PUBLIC	??_C@_0BB@GCADKGJO@map?1set?5too?5long@		; `string'
PUBLIC	??_C@_0BM@HMFGHCP@?$CFs?5min?3?$CFd?0?5max?3?$CFd?0?5index?3?$CFd@ ; `string'
PUBLIC	??_C@_0BJ@GKPOBPPI@GetMoverProp?5range_error@	; `string'
PUBLIC	??_C@_0BE@OHDBLHOM@GetText?5range_error@	; `string'
PUBLIC	??_C@_05KKCIMGE@error@				; `string'
PUBLIC	??_C@_0BA@FOIKENOD@vector?5too?5long@		; `string'
PUBLIC	??_R4exception@std@@6B@				; std::exception::`RTTI Complete Object Locator'
PUBLIC	??_R3exception@std@@8				; std::exception::`RTTI Class Hierarchy Descriptor'
PUBLIC	??_R2exception@std@@8				; std::exception::`RTTI Base Class Array'
PUBLIC	??_R1A@?0A@EA@exception@std@@8			; std::exception::`RTTI Base Class Descriptor at (0,-1,0,64)'
PUBLIC	??_R4bad_array_new_length@std@@6B@		; std::bad_array_new_length::`RTTI Complete Object Locator'
PUBLIC	??_R3bad_array_new_length@std@@8		; std::bad_array_new_length::`RTTI Class Hierarchy Descriptor'
PUBLIC	??_R2bad_array_new_length@std@@8		; std::bad_array_new_length::`RTTI Base Class Array'
PUBLIC	??_R1A@?0A@EA@bad_array_new_length@std@@8	; std::bad_array_new_length::`RTTI Base Class Descriptor at (0,-1,0,64)'
PUBLIC	??_R1A@?0A@EA@bad_alloc@std@@8			; std::bad_alloc::`RTTI Base Class Descriptor at (0,-1,0,64)'
PUBLIC	??_R3bad_alloc@std@@8				; std::bad_alloc::`RTTI Class Hierarchy Descriptor'
PUBLIC	??_R2bad_alloc@std@@8				; std::bad_alloc::`RTTI Base Class Array'
PUBLIC	??_R4bad_alloc@std@@6B@				; std::bad_alloc::`RTTI Complete Object Locator'
PUBLIC	??_7CColosseumMatch@@6B@			; CColosseumMatch::`vftable'
PUBLIC	??_7CColosseumMng@@6B@				; CColosseumMng::`vftable'
PUBLIC	??_C@_0O@LDNHLNNB@Colosseum?4lua@		; `string'
PUBLIC	??_C@_0CF@IAGFACGP@?$FLCRITICAL?$FN?5Colosseum?4lua?5is?5mis@ ; `string'
PUBLIC	??_C@_0O@LCKPEMLD@StartWaitTime@		; `string'
PUBLIC	??_C@_0P@FHAALCDJ@WaitAfterStage@		; `string'
PUBLIC	??_C@_09HHJPKIBP@LowStages@			; `string'
PUBLIC	??_C@_0L@IGABJCKB@HardStages@			; `string'
PUBLIC	??_C@_08EABLEDPJ@tMonster@			; `string'
PUBLIC	??_C@_0N@PIEFIFMF@strMonsterId@			; `string'
PUBLIC	??_C@_05KPPLCGGF@nTime@				; `string'
PUBLIC	??_C@_06OJNKPJEO@nStage@			; `string'
PUBLIC	??_C@_05OLBMEBNJ@nType@				; `string'
PUBLIC	??_C@_0BJ@DHFDPMIM@invalid?5vector?5subscript@	; `string'
PUBLIC	??_R4CColosseumMatch@@6B@			; CColosseumMatch::`RTTI Complete Object Locator'
PUBLIC	??_R0?AVCColosseumMatch@@@8			; CColosseumMatch `RTTI Type Descriptor'
PUBLIC	??_R3CColosseumMatch@@8				; CColosseumMatch::`RTTI Class Hierarchy Descriptor'
PUBLIC	??_R2CColosseumMatch@@8				; CColosseumMatch::`RTTI Base Class Array'
PUBLIC	??_R1A@?0A@EA@CColosseumMatch@@8		; CColosseumMatch::`RTTI Base Class Descriptor at (0,-1,0,64)'
PUBLIC	??_R4CColosseumMng@@6B@				; CColosseumMng::`RTTI Complete Object Locator'
PUBLIC	??_R0?AVCColosseumMng@@@8			; CColosseumMng `RTTI Type Descriptor'
PUBLIC	??_R3CColosseumMng@@8				; CColosseumMng::`RTTI Class Hierarchy Descriptor'
PUBLIC	??_R2CColosseumMng@@8				; CColosseumMng::`RTTI Base Class Array'
PUBLIC	??_R1A@?0A@EA@CColosseumMng@@8			; CColosseumMng::`RTTI Base Class Descriptor at (0,-1,0,64)'
EXTRN	??2@YAPAXI@Z:PROC				; operator new
EXTRN	??3@YAXPAXI@Z:PROC				; operator delete
EXTRN	_atexit:PROC
EXTRN	__Init_thread_header:PROC
EXTRN	__Init_thread_abort:PROC
EXTRN	__Init_thread_footer:PROC
EXTRN	__invalid_parameter_noinfo:PROC
EXTRN	__invoke_watson:PROC
EXTRN	__errno:PROC
EXTRN	__imp__LoadResource@8:PROC
EXTRN	__imp__LockResource@4:PROC
EXTRN	__imp__SizeofResource@8:PROC
EXTRN	__imp__FindResourceW@12:PROC
EXTRN	__imp__WideCharToMultiByte@32:PROC
EXTRN	___stdio_common_vsprintf:PROC
EXTRN	___stdio_common_vsprintf_s:PROC
EXTRN	_exit:PROC
EXTRN	_itoa:PROC
EXTRN	?AfxThrowMemoryException@@YGXXZ:PROC		; AfxThrowMemoryException
EXTRN	?AfxThrowOleException@@YGXJ@Z:PROC		; AfxThrowOleException
EXTRN	?AfxFindStringResourceHandle@@YGPAUHINSTANCE__@@I@Z:PROC ; AfxFindStringResourceHandle
EXTRN	?AfxGetStringManager@@YGPAUIAtlStringMgr@ATL@@XZ:PROC ; AfxGetStringManager
EXTRN	___std_exception_copy:PROC
EXTRN	___std_exception_destroy:PROC
EXTRN	??_Eexception@std@@UAEPAXI@Z:PROC		; std::exception::`vector deleting destructor'
EXTRN	??_Ebad_alloc@std@@UAEPAXI@Z:PROC		; std::bad_alloc::`vector deleting destructor'
EXTRN	??_Ebad_array_new_length@std@@UAEPAXI@Z:PROC	; std::bad_array_new_length::`vector deleting destructor'
EXTRN	?_Xlength_error@std@@YAXPBD@Z:PROC		; std::_Xlength_error
EXTRN	?_Xout_of_range@std@@YAXPBD@Z:PROC		; std::_Xout_of_range
EXTRN	?GetDefineNum@CScript@@SAHPBD@Z:PROC		; CScript::GetDefineNum
EXTRN	?xRandom@@YAKKK@Z:PROC				; xRandom
EXTRN	?Error@@YAPBDPBDZZ:PROC				; Error
EXTRN	?UpdateLocalMatrix@CObj@@QAEXXZ:PROC		; CObj::UpdateLocalMatrix
EXTRN	?SetPos@CObj@@QAEXABUD3DXVECTOR3@@@Z:PROC	; CObj::SetPos
EXTRN	_lua_pushnil:PROC
EXTRN	_lua_getglobal:PROC
EXTRN	_lua_next:PROC
EXTRN	??0CLuaBase@@QAE@XZ:PROC			; CLuaBase::CLuaBase
EXTRN	??1CLuaBase@@UAE@XZ:PROC			; CLuaBase::~CLuaBase
EXTRN	?RunScript@CLuaBase@@QAEHPBD@Z:PROC		; CLuaBase::RunScript
EXTRN	?Pop@CLuaBase@@QAEXH@Z:PROC			; CLuaBase::Pop
EXTRN	?GetGlobalNumber@CLuaBase@@QAENPAD@Z:PROC	; CLuaBase::GetGlobalNumber
EXTRN	?GetFieldToNumber@CLuaBase@@QAENHPAD@Z:PROC	; CLuaBase::GetFieldToNumber
EXTRN	?GetFieldToString@CLuaBase@@QAEPBDHPAD@Z:PROC	; CLuaBase::GetFieldToString
EXTRN	?GetMover@CProject@@QAEPAVCMover@@K@Z:PROC	; CProject::GetMover
EXTRN	?GetGuild@CMover@@QAEPAVCGuild@@XZ:PROC		; CMover::GetGuild
EXTRN	?Replace@CMover@@QAEHKKAAUD3DXVECTOR3@@W4REPLACE_TYPE@@H@Z:PROC ; CMover::Replace
EXTRN	?GetLinkMap@CLayeredLinkMap@@QAEPAVCLinkMap@@H@Z:PROC ; CLayeredLinkMap::GetLinkMap
EXTRN	?Invalidate@CLayeredLinkMap@@QAEXHH@Z:PROC	; CLayeredLinkMap::Invalidate
EXTRN	?AddObj@CWorld@@QAEHPAVCObj@@HH@Z:PROC		; CWorld::AddObj
EXTRN	?CreateLayer@CWorld@@QAEHH@Z:PROC		; CWorld::CreateLayer
EXTRN	?CreateObj@@YAPAVCObj@@PAUIDirect3DDevice9@@KKH@Z:PROC ; CreateObj
EXTRN	??_ECColosseumMatch@@UAEPAXI@Z:PROC		; CColosseumMatch::`vector deleting destructor'
EXTRN	??_ECColosseumMng@@UAEPAXI@Z:PROC		; CColosseumMng::`vector deleting destructor'
EXTRN	?GetParty@CPartyMng@@QAEPAVCParty@@K@Z:PROC	; CPartyMng::GetParty
EXTRN	?AddText@CUser@@QAEXPBD@Z:PROC			; CUser::AddText
EXTRN	?SendColosseumEnter@CUser@@QAEXXZ:PROC		; CUser::SendColosseumEnter
EXTRN	?SendColosseumStart@CUser@@QAEXH@Z:PROC		; CUser::SendColosseumStart
EXTRN	?SendColosseumReady1@CUser@@QAEXHE@Z:PROC	; CUser::SendColosseumReady1
EXTRN	?SendColosseumReady2@CUser@@QAEXH@Z:PROC	; CUser::SendColosseumReady2
EXTRN	?SendColosseumEndMatch@CUser@@QAEXHH@Z:PROC	; CUser::SendColosseumEndMatch
EXTRN	?GetUserByPlayerID@CUserMng@@QAEPAVCUser@@K@Z:PROC ; CUserMng::GetUserByPlayerID
EXTRN	?GetWorld@CWorldMng@@QAEPAVCWorld@@K@Z:PROC	; CWorldMng::GetWorld
EXTRN	@__security_check_cookie@4:PROC
EXTRN	__CxxThrowException@8:PROC
EXTRN	___CxxFrameHandler3:PROC
EXTRN	__ftol2:PROC
EXTRN	__ftol2_sse:PROC
EXTRN	_memcpy:PROC
EXTRN	_memmove:PROC
EXTRN	_memset:PROC
EXTRN	__Init_thread_epoch:DWORD
EXTRN	??_7type_info@@6B@:QWORD			; type_info::`vftable'
EXTRN	?prj@@3VCProject@@A:BYTE			; prj
EXTRN	?g_tmCurrent@@3KA:DWORD				; g_tmCurrent
EXTRN	?g_uIdofMulti@@3KA:DWORD			; g_uIdofMulti
EXTRN	?g_WorldMng@@3VCWorldMng@@A:BYTE		; g_WorldMng
EXTRN	?g_UserMng@@3VCUserMng@@A:BYTE			; g_UserMng
EXTRN	?g_PartyMng@@3VCPartyMng@@A:BYTE		; g_PartyMng
EXTRN	___security_cookie:DWORD
EXTRN	__fltused:DWORD
EXTRN	__tls_array:DWORD
EXTRN	__tls_index:DWORD
;	COMDAT ?_OptionsStorage@?1??__local_stdio_printf_options@@9@4_KA
_BSS	SEGMENT
?_OptionsStorage@?1??__local_stdio_printf_options@@9@4_KA DQ 01H DUP (?) ; `__local_stdio_printf_options'::`2'::_OptionsStorage
_BSS	ENDS
;	COMDAT ?sColosseum@?1??GetInstance@CColosseumMng@@SAPAV2@XZ@4V2@A
_BSS	SEGMENT
?sColosseum@?1??GetInstance@CColosseumMng@@SAPAV2@XZ@4V2@A DB 02cH DUP (?) ; `CColosseumMng::GetInstance'::`2'::sColosseum
_BSS	ENDS
;	COMDAT ?$TSS0@?1??GetInstance@CColosseumMng@@SAPAV2@XZ@4HA
_BSS	SEGMENT
?$TSS0@?1??GetInstance@CColosseumMng@@SAPAV2@XZ@4HA DD 01H DUP (?) ; `CColosseumMng::GetInstance'::`2'::$TSS0
_BSS	ENDS
;	COMDAT ??_R1A@?0A@EA@CColosseumMng@@8
rdata$r	SEGMENT
??_R1A@?0A@EA@CColosseumMng@@8 DD FLAT:??_R0?AVCColosseumMng@@@8 ; CColosseumMng::`RTTI Base Class Descriptor at (0,-1,0,64)'
	DD	00H
	DD	00H
	DD	0ffffffffH
	DD	00H
	DD	040H
	DD	FLAT:??_R3CColosseumMng@@8
rdata$r	ENDS
;	COMDAT ??_R2CColosseumMng@@8
rdata$r	SEGMENT
??_R2CColosseumMng@@8 DD FLAT:??_R1A@?0A@EA@CColosseumMng@@8 ; CColosseumMng::`RTTI Base Class Array'
rdata$r	ENDS
;	COMDAT ??_R3CColosseumMng@@8
rdata$r	SEGMENT
??_R3CColosseumMng@@8 DD 00H				; CColosseumMng::`RTTI Class Hierarchy Descriptor'
	DD	00H
	DD	01H
	DD	FLAT:??_R2CColosseumMng@@8
rdata$r	ENDS
;	COMDAT ??_R0?AVCColosseumMng@@@8
data$rs	SEGMENT
??_R0?AVCColosseumMng@@@8 DD FLAT:??_7type_info@@6B@	; CColosseumMng `RTTI Type Descriptor'
	DD	00H
	DB	'.?AVCColosseumMng@@', 00H
data$rs	ENDS
;	COMDAT ??_R4CColosseumMng@@6B@
rdata$r	SEGMENT
??_R4CColosseumMng@@6B@ DD 00H				; CColosseumMng::`RTTI Complete Object Locator'
	DD	00H
	DD	00H
	DD	FLAT:??_R0?AVCColosseumMng@@@8
	DD	FLAT:??_R3CColosseumMng@@8
rdata$r	ENDS
;	COMDAT ??_R1A@?0A@EA@CColosseumMatch@@8
rdata$r	SEGMENT
??_R1A@?0A@EA@CColosseumMatch@@8 DD FLAT:??_R0?AVCColosseumMatch@@@8 ; CColosseumMatch::`RTTI Base Class Descriptor at (0,-1,0,64)'
	DD	00H
	DD	00H
	DD	0ffffffffH
	DD	00H
	DD	040H
	DD	FLAT:??_R3CColosseumMatch@@8
rdata$r	ENDS
;	COMDAT ??_R2CColosseumMatch@@8
rdata$r	SEGMENT
??_R2CColosseumMatch@@8 DD FLAT:??_R1A@?0A@EA@CColosseumMatch@@8 ; CColosseumMatch::`RTTI Base Class Array'
rdata$r	ENDS
;	COMDAT ??_R3CColosseumMatch@@8
rdata$r	SEGMENT
??_R3CColosseumMatch@@8 DD 00H				; CColosseumMatch::`RTTI Class Hierarchy Descriptor'
	DD	00H
	DD	01H
	DD	FLAT:??_R2CColosseumMatch@@8
rdata$r	ENDS
;	COMDAT ??_R0?AVCColosseumMatch@@@8
data$rs	SEGMENT
??_R0?AVCColosseumMatch@@@8 DD FLAT:??_7type_info@@6B@	; CColosseumMatch `RTTI Type Descriptor'
	DD	00H
	DB	'.?AVCColosseumMatch@@', 00H
data$rs	ENDS
;	COMDAT ??_R4CColosseumMatch@@6B@
rdata$r	SEGMENT
??_R4CColosseumMatch@@6B@ DD 00H			; CColosseumMatch::`RTTI Complete Object Locator'
	DD	00H
	DD	00H
	DD	FLAT:??_R0?AVCColosseumMatch@@@8
	DD	FLAT:??_R3CColosseumMatch@@8
rdata$r	ENDS
;	COMDAT ??_C@_0BJ@DHFDPMIM@invalid?5vector?5subscript@
CONST	SEGMENT
??_C@_0BJ@DHFDPMIM@invalid?5vector?5subscript@ DB 'invalid vector subscri'
	DB	'pt', 00H					; `string'
CONST	ENDS
;	COMDAT ??_C@_05OLBMEBNJ@nType@
CONST	SEGMENT
??_C@_05OLBMEBNJ@nType@ DB 'nType', 00H			; `string'
CONST	ENDS
;	COMDAT ??_C@_06OJNKPJEO@nStage@
CONST	SEGMENT
??_C@_06OJNKPJEO@nStage@ DB 'nStage', 00H		; `string'
CONST	ENDS
;	COMDAT ??_C@_05KPPLCGGF@nTime@
CONST	SEGMENT
??_C@_05KPPLCGGF@nTime@ DB 'nTime', 00H			; `string'
CONST	ENDS
;	COMDAT ??_C@_0N@PIEFIFMF@strMonsterId@
CONST	SEGMENT
??_C@_0N@PIEFIFMF@strMonsterId@ DB 'strMonsterId', 00H	; `string'
CONST	ENDS
;	COMDAT ??_C@_08EABLEDPJ@tMonster@
CONST	SEGMENT
??_C@_08EABLEDPJ@tMonster@ DB 'tMonster', 00H		; `string'
CONST	ENDS
;	COMDAT ??_C@_0L@IGABJCKB@HardStages@
CONST	SEGMENT
??_C@_0L@IGABJCKB@HardStages@ DB 'HardStages', 00H	; `string'
CONST	ENDS
;	COMDAT ??_C@_09HHJPKIBP@LowStages@
CONST	SEGMENT
??_C@_09HHJPKIBP@LowStages@ DB 'LowStages', 00H		; `string'
CONST	ENDS
;	COMDAT ??_C@_0P@FHAALCDJ@WaitAfterStage@
CONST	SEGMENT
??_C@_0P@FHAALCDJ@WaitAfterStage@ DB 'WaitAfterStage', 00H ; `string'
CONST	ENDS
;	COMDAT ??_C@_0O@LCKPEMLD@StartWaitTime@
CONST	SEGMENT
??_C@_0O@LCKPEMLD@StartWaitTime@ DB 'StartWaitTime', 00H ; `string'
CONST	ENDS
;	COMDAT ??_C@_0CF@IAGFACGP@?$FLCRITICAL?$FN?5Colosseum?4lua?5is?5mis@
CONST	SEGMENT
??_C@_0CF@IAGFACGP@?$FLCRITICAL?$FN?5Colosseum?4lua?5is?5mis@ DB '[CRITIC'
	DB	'AL] Colosseum.lua is missing.', 00H		; `string'
CONST	ENDS
;	COMDAT ??_C@_0O@LDNHLNNB@Colosseum?4lua@
CONST	SEGMENT
??_C@_0O@LDNHLNNB@Colosseum?4lua@ DB 'Colosseum.lua', 00H ; `string'
CONST	ENDS
;	COMDAT ??_7CColosseumMng@@6B@
CONST	SEGMENT
??_7CColosseumMng@@6B@ DD FLAT:??_R4CColosseumMng@@6B@	; CColosseumMng::`vftable'
	DD	FLAT:??_ECColosseumMng@@UAEPAXI@Z
CONST	ENDS
;	COMDAT ??_7CColosseumMatch@@6B@
CONST	SEGMENT
??_7CColosseumMatch@@6B@ DD FLAT:??_R4CColosseumMatch@@6B@ ; CColosseumMatch::`vftable'
	DD	FLAT:??_ECColosseumMatch@@UAEPAXI@Z
CONST	ENDS
;	COMDAT ??_R4bad_alloc@std@@6B@
rdata$r	SEGMENT
??_R4bad_alloc@std@@6B@ DD 00H				; std::bad_alloc::`RTTI Complete Object Locator'
	DD	00H
	DD	00H
	DD	FLAT:??_R0?AVbad_alloc@std@@@8
	DD	FLAT:??_R3bad_alloc@std@@8
rdata$r	ENDS
;	COMDAT ??_R2bad_alloc@std@@8
rdata$r	SEGMENT
??_R2bad_alloc@std@@8 DD FLAT:??_R1A@?0A@EA@bad_alloc@std@@8 ; std::bad_alloc::`RTTI Base Class Array'
	DD	FLAT:??_R1A@?0A@EA@exception@std@@8
rdata$r	ENDS
;	COMDAT ??_R3bad_alloc@std@@8
rdata$r	SEGMENT
??_R3bad_alloc@std@@8 DD 00H				; std::bad_alloc::`RTTI Class Hierarchy Descriptor'
	DD	00H
	DD	02H
	DD	FLAT:??_R2bad_alloc@std@@8
rdata$r	ENDS
;	COMDAT ??_R1A@?0A@EA@bad_alloc@std@@8
rdata$r	SEGMENT
??_R1A@?0A@EA@bad_alloc@std@@8 DD FLAT:??_R0?AVbad_alloc@std@@@8 ; std::bad_alloc::`RTTI Base Class Descriptor at (0,-1,0,64)'
	DD	01H
	DD	00H
	DD	0ffffffffH
	DD	00H
	DD	040H
	DD	FLAT:??_R3bad_alloc@std@@8
rdata$r	ENDS
;	COMDAT ??_R1A@?0A@EA@bad_array_new_length@std@@8
rdata$r	SEGMENT
??_R1A@?0A@EA@bad_array_new_length@std@@8 DD FLAT:??_R0?AVbad_array_new_length@std@@@8 ; std::bad_array_new_length::`RTTI Base Class Descriptor at (0,-1,0,64)'
	DD	02H
	DD	00H
	DD	0ffffffffH
	DD	00H
	DD	040H
	DD	FLAT:??_R3bad_array_new_length@std@@8
rdata$r	ENDS
;	COMDAT ??_R2bad_array_new_length@std@@8
rdata$r	SEGMENT
??_R2bad_array_new_length@std@@8 DD FLAT:??_R1A@?0A@EA@bad_array_new_length@std@@8 ; std::bad_array_new_length::`RTTI Base Class Array'
	DD	FLAT:??_R1A@?0A@EA@bad_alloc@std@@8
	DD	FLAT:??_R1A@?0A@EA@exception@std@@8
rdata$r	ENDS
;	COMDAT ??_R3bad_array_new_length@std@@8
rdata$r	SEGMENT
??_R3bad_array_new_length@std@@8 DD 00H			; std::bad_array_new_length::`RTTI Class Hierarchy Descriptor'
	DD	00H
	DD	03H
	DD	FLAT:??_R2bad_array_new_length@std@@8
rdata$r	ENDS
;	COMDAT ??_R4bad_array_new_length@std@@6B@
rdata$r	SEGMENT
??_R4bad_array_new_length@std@@6B@ DD 00H		; std::bad_array_new_length::`RTTI Complete Object Locator'
	DD	00H
	DD	00H
	DD	FLAT:??_R0?AVbad_array_new_length@std@@@8
	DD	FLAT:??_R3bad_array_new_length@std@@8
rdata$r	ENDS
;	COMDAT ??_R1A@?0A@EA@exception@std@@8
rdata$r	SEGMENT
??_R1A@?0A@EA@exception@std@@8 DD FLAT:??_R0?AVexception@std@@@8 ; std::exception::`RTTI Base Class Descriptor at (0,-1,0,64)'
	DD	00H
	DD	00H
	DD	0ffffffffH
	DD	00H
	DD	040H
	DD	FLAT:??_R3exception@std@@8
rdata$r	ENDS
;	COMDAT ??_R2exception@std@@8
rdata$r	SEGMENT
??_R2exception@std@@8 DD FLAT:??_R1A@?0A@EA@exception@std@@8 ; std::exception::`RTTI Base Class Array'
rdata$r	ENDS
;	COMDAT ??_R3exception@std@@8
rdata$r	SEGMENT
??_R3exception@std@@8 DD 00H				; std::exception::`RTTI Class Hierarchy Descriptor'
	DD	00H
	DD	01H
	DD	FLAT:??_R2exception@std@@8
rdata$r	ENDS
;	COMDAT ??_R4exception@std@@6B@
rdata$r	SEGMENT
??_R4exception@std@@6B@ DD 00H				; std::exception::`RTTI Complete Object Locator'
	DD	00H
	DD	00H
	DD	FLAT:??_R0?AVexception@std@@@8
	DD	FLAT:??_R3exception@std@@8
rdata$r	ENDS
;	COMDAT ??_C@_0BA@FOIKENOD@vector?5too?5long@
CONST	SEGMENT
??_C@_0BA@FOIKENOD@vector?5too?5long@ DB 'vector too long', 00H ; `string'
CONST	ENDS
;	COMDAT ??_C@_05KKCIMGE@error@
CONST	SEGMENT
??_C@_05KKCIMGE@error@ DB 'error', 00H			; `string'
CONST	ENDS
;	COMDAT ??_C@_0BE@OHDBLHOM@GetText?5range_error@
CONST	SEGMENT
??_C@_0BE@OHDBLHOM@GetText?5range_error@ DB 'GetText range_error', 00H ; `string'
CONST	ENDS
;	COMDAT ??_C@_0BJ@GKPOBPPI@GetMoverProp?5range_error@
CONST	SEGMENT
??_C@_0BJ@GKPOBPPI@GetMoverProp?5range_error@ DB 'GetMoverProp range_erro'
	DB	'r', 00H					; `string'
CONST	ENDS
;	COMDAT ??_C@_0BM@HMFGHCP@?$CFs?5min?3?$CFd?0?5max?3?$CFd?0?5index?3?$CFd@
CONST	SEGMENT
??_C@_0BM@HMFGHCP@?$CFs?5min?3?$CFd?0?5max?3?$CFd?0?5index?3?$CFd@ DB '%s'
	DB	' min:%d, max:%d, index:%d', 00H		; `string'
CONST	ENDS
;	COMDAT ??_C@_0BB@GCADKGJO@map?1set?5too?5long@
CONST	SEGMENT
??_C@_0BB@GCADKGJO@map?1set?5too?5long@ DB 'map/set too long', 00H ; `string'
CONST	ENDS
;	COMDAT __CT??_R0?AVbad_alloc@std@@@8??0bad_alloc@std@@QAE@ABV01@@Z12
xdata$x	SEGMENT
__CT??_R0?AVbad_alloc@std@@@8??0bad_alloc@std@@QAE@ABV01@@Z12 DD 010H
	DD	FLAT:??_R0?AVbad_alloc@std@@@8
	DD	00H
	DD	0ffffffffH
	ORG $+4
	DD	0cH
	DD	FLAT:??0bad_alloc@std@@QAE@ABV01@@Z
xdata$x	ENDS
;	COMDAT ??_R0?AVbad_alloc@std@@@8
data$r	SEGMENT
??_R0?AVbad_alloc@std@@@8 DD FLAT:??_7type_info@@6B@	; std::bad_alloc `RTTI Type Descriptor'
	DD	00H
	DB	'.?AVbad_alloc@std@@', 00H
data$r	ENDS
;	COMDAT __CT??_R0?AVbad_array_new_length@std@@@8??0bad_array_new_length@std@@QAE@ABV01@@Z12
xdata$x	SEGMENT
__CT??_R0?AVbad_array_new_length@std@@@8??0bad_array_new_length@std@@QAE@ABV01@@Z12 DD 00H
	DD	FLAT:??_R0?AVbad_array_new_length@std@@@8
	DD	00H
	DD	0ffffffffH
	ORG $+4
	DD	0cH
	DD	FLAT:??0bad_array_new_length@std@@QAE@ABV01@@Z
xdata$x	ENDS
;	COMDAT ??_R0?AVbad_array_new_length@std@@@8
data$r	SEGMENT
??_R0?AVbad_array_new_length@std@@@8 DD FLAT:??_7type_info@@6B@ ; std::bad_array_new_length `RTTI Type Descriptor'
	DD	00H
	DB	'.?AVbad_array_new_length@std@@', 00H
data$r	ENDS
;	COMDAT __CTA3?AVbad_array_new_length@std@@
xdata$x	SEGMENT
__CTA3?AVbad_array_new_length@std@@ DD 03H
	DD	FLAT:__CT??_R0?AVbad_array_new_length@std@@@8??0bad_array_new_length@std@@QAE@ABV01@@Z12
	DD	FLAT:__CT??_R0?AVbad_alloc@std@@@8??0bad_alloc@std@@QAE@ABV01@@Z12
	DD	FLAT:__CT??_R0?AVexception@std@@@8??0exception@std@@QAE@ABV01@@Z12
xdata$x	ENDS
;	COMDAT __TI3?AVbad_array_new_length@std@@
xdata$x	SEGMENT
__TI3?AVbad_array_new_length@std@@ DD 00H
	DD	FLAT:??1bad_array_new_length@std@@UAE@XZ
	DD	00H
	DD	FLAT:__CTA3?AVbad_array_new_length@std@@
xdata$x	ENDS
;	COMDAT __CT??_R0?AVexception@std@@@8??0exception@std@@QAE@ABV01@@Z12
xdata$x	SEGMENT
__CT??_R0?AVexception@std@@@8??0exception@std@@QAE@ABV01@@Z12 DD 00H
	DD	FLAT:??_R0?AVexception@std@@@8
	DD	00H
	DD	0ffffffffH
	ORG $+4
	DD	0cH
	DD	FLAT:??0exception@std@@QAE@ABV01@@Z
xdata$x	ENDS
;	COMDAT ??_R0?AVexception@std@@@8
data$r	SEGMENT
??_R0?AVexception@std@@@8 DD FLAT:??_7type_info@@6B@	; std::exception `RTTI Type Descriptor'
	DD	00H
	DB	'.?AVexception@std@@', 00H
data$r	ENDS
;	COMDAT ??_C@_0BF@KINCDENJ@bad?5array?5new?5length@
CONST	SEGMENT
??_C@_0BF@KINCDENJ@bad?5array?5new?5length@ DB 'bad array new length', 00H ; `string'
CONST	ENDS
;	COMDAT ??_7bad_array_new_length@std@@6B@
CONST	SEGMENT
??_7bad_array_new_length@std@@6B@ DD FLAT:??_R4bad_array_new_length@std@@6B@ ; std::bad_array_new_length::`vftable'
	DD	FLAT:??_Ebad_array_new_length@std@@UAEPAXI@Z
	DD	FLAT:?what@exception@std@@UBEPBDXZ
CONST	ENDS
;	COMDAT ??_7bad_alloc@std@@6B@
CONST	SEGMENT
??_7bad_alloc@std@@6B@ DD FLAT:??_R4bad_alloc@std@@6B@	; std::bad_alloc::`vftable'
	DD	FLAT:??_Ebad_alloc@std@@UAEPAXI@Z
	DD	FLAT:?what@exception@std@@UBEPBDXZ
CONST	ENDS
;	COMDAT ??_C@_0BC@EOODALEL@Unknown?5exception@
CONST	SEGMENT
??_C@_0BC@EOODALEL@Unknown?5exception@ DB 'Unknown exception', 00H ; `string'
CONST	ENDS
;	COMDAT ??_7exception@std@@6B@
CONST	SEGMENT
??_7exception@std@@6B@ DD FLAT:??_R4exception@std@@6B@	; std::exception::`vftable'
	DD	FLAT:??_Eexception@std@@UAEPAXI@Z
	DD	FLAT:?what@exception@std@@UBEPBDXZ
CONST	ENDS
;	COMDAT ??_C@_00CNPNBAHC@@
CONST	SEGMENT
??_C@_00CNPNBAHC@@ DB 00H				; `string'
CONST	ENDS
;	COMDAT xdata$x
xdata$x	SEGMENT
__unwindtable$??$?0U?$pair@KPAVCColosseumMatch@@@std@@@?$_Tree_temp_node@V?$allocator@U?$_Tree_node@U?$pair@$$CBKPAVCColosseumMatch@@@std@@PAX@std@@@std@@@std@@QAE@AAV?$allocator@U?$_Tree_node@U?$pair@$$CBKPAVCColosseumMatch@@@std@@PAX@std@@@1@PAU?$_Tree_node@U?$pair@$$CBKPAVCColosseumMatch@@@std@@PAX@1@$$QAU?$pair@KPAVCColosseumMatch@@@1@@Z DD 0ffffffffH
	DD	FLAT:__unwindfunclet$??$?0U?$pair@KPAVCColosseumMatch@@@std@@@?$_Tree_temp_node@V?$allocator@U?$_Tree_node@U?$pair@$$CBKPAVCColosseumMatch@@@std@@PAX@std@@@std@@@std@@QAE@AAV?$allocator@U?$_Tree_node@U?$pair@$$CBKPAVCColosseumMatch@@@std@@PAX@std@@@1@PAU?$_Tree_node@U?$pair@$$CBKPAVCColosseumMatch@@@std@@PAX@1@$$QAU?$pair@KPAVCColosseumMatch@@@1@@Z$1
__ehfuncinfo$??$?0U?$pair@KPAVCColosseumMatch@@@std@@@?$_Tree_temp_node@V?$allocator@U?$_Tree_node@U?$pair@$$CBKPAVCColosseumMatch@@@std@@PAX@std@@@std@@@std@@QAE@AAV?$allocator@U?$_Tree_node@U?$pair@$$CBKPAVCColosseumMatch@@@std@@PAX@std@@@1@PAU?$_Tree_node@U?$pair@$$CBKPAVCColosseumMatch@@@std@@PAX@1@$$QAU?$pair@KPAVCColosseumMatch@@@1@@Z DD 019930522H
	DD	01H
	DD	FLAT:__unwindtable$??$?0U?$pair@KPAVCColosseumMatch@@@std@@@?$_Tree_temp_node@V?$allocator@U?$_Tree_node@U?$pair@$$CBKPAVCColosseumMatch@@@std@@PAX@std@@@std@@@std@@QAE@AAV?$allocator@U?$_Tree_node@U?$pair@$$CBKPAVCColosseumMatch@@@std@@PAX@std@@@1@PAU?$_Tree_node@U?$pair@$$CBKPAVCColosseumMatch@@@std@@PAX@1@$$QAU?$pair@KPAVCColosseumMatch@@@1@@Z
	DD	2 DUP(00H)
	DD	2 DUP(00H)
	DD	00H
	DD	01H
xdata$x	ENDS
;	COMDAT xdata$x
xdata$x	SEGMENT
__unwindtable$??0?$_Tree_temp_node_alloc@V?$allocator@U?$_Tree_node@U?$pair@$$CBKPAVCColosseumMatch@@@std@@PAX@std@@@std@@@std@@QAE@AAV?$allocator@U?$_Tree_node@U?$pair@$$CBKPAVCColosseumMatch@@@std@@PAX@std@@@1@@Z DD 0ffffffffH
	DD	FLAT:__unwindfunclet$??0?$_Tree_temp_node_alloc@V?$allocator@U?$_Tree_node@U?$pair@$$CBKPAVCColosseumMatch@@@std@@PAX@std@@@std@@@std@@QAE@AAV?$allocator@U?$_Tree_node@U?$pair@$$CBKPAVCColosseumMatch@@@std@@PAX@std@@@1@@Z$0
__ehfuncinfo$??0?$_Tree_temp_node_alloc@V?$allocator@U?$_Tree_node@U?$pair@$$CBKPAVCColosseumMatch@@@std@@PAX@std@@@std@@@std@@QAE@AAV?$allocator@U?$_Tree_node@U?$pair@$$CBKPAVCColosseumMatch@@@std@@PAX@std@@@1@@Z DD 019930522H
	DD	01H
	DD	FLAT:__unwindtable$??0?$_Tree_temp_node_alloc@V?$allocator@U?$_Tree_node@U?$pair@$$CBKPAVCColosseumMatch@@@std@@PAX@std@@@std@@@std@@QAE@AAV?$allocator@U?$_Tree_node@U?$pair@$$CBKPAVCColosseumMatch@@@std@@PAX@std@@@1@@Z
	DD	2 DUP(00H)
	DD	2 DUP(00H)
	DD	00H
	DD	01H
xdata$x	ENDS
;	COMDAT xdata$x
xdata$x	SEGMENT
__unwindtable$??$_Emplace@U?$pair@KPAVCColosseumMatch@@@std@@@?$_Tree@V?$_Tmap_traits@KPAVCColosseumMatch@@U?$less@K@std@@V?$allocator@U?$pair@$$CBKPAVCColosseumMatch@@@std@@@3@$0A@@std@@@std@@IAE?AU?$pair@PAU?$_Tree_node@U?$pair@$$CBKPAVCColosseumMatch@@@std@@PAX@std@@_N@1@$$QAU?$pair@KPAVCColosseumMatch@@@1@@Z DD 0ffffffffH
	DD	FLAT:__unwindfunclet$??$_Emplace@U?$pair@KPAVCColosseumMatch@@@std@@@?$_Tree@V?$_Tmap_traits@KPAVCColosseumMatch@@U?$less@K@std@@V?$allocator@U?$pair@$$CBKPAVCColosseumMatch@@@std@@@3@$0A@@std@@@std@@IAE?AU?$pair@PAU?$_Tree_node@U?$pair@$$CBKPAVCColosseumMatch@@@std@@PAX@std@@_N@1@$$QAU?$pair@KPAVCColosseumMatch@@@1@@Z$2
__ehfuncinfo$??$_Emplace@U?$pair@KPAVCColosseumMatch@@@std@@@?$_Tree@V?$_Tmap_traits@KPAVCColosseumMatch@@U?$less@K@std@@V?$allocator@U?$pair@$$CBKPAVCColosseumMatch@@@std@@@3@$0A@@std@@@std@@IAE?AU?$pair@PAU?$_Tree_node@U?$pair@$$CBKPAVCColosseumMatch@@@std@@PAX@std@@_N@1@$$QAU?$pair@KPAVCColosseumMatch@@@1@@Z DD 019930522H
	DD	01H
	DD	FLAT:__unwindtable$??$_Emplace@U?$pair@KPAVCColosseumMatch@@@std@@@?$_Tree@V?$_Tmap_traits@KPAVCColosseumMatch@@U?$less@K@std@@V?$allocator@U?$pair@$$CBKPAVCColosseumMatch@@@std@@@3@$0A@@std@@@std@@IAE?AU?$pair@PAU?$_Tree_node@U?$pair@$$CBKPAVCColosseumMatch@@@std@@PAX@std@@_N@1@$$QAU?$pair@KPAVCColosseumMatch@@@1@@Z
	DD	2 DUP(00H)
	DD	2 DUP(00H)
	DD	00H
	DD	01H
xdata$x	ENDS
;	COMDAT xdata$x
xdata$x	SEGMENT
__unwindtable$??$emplace@U?$pair@KPAVCColosseumMatch@@@std@@@?$_Tree@V?$_Tmap_traits@KPAVCColosseumMatch@@U?$less@K@std@@V?$allocator@U?$pair@$$CBKPAVCColosseumMatch@@@std@@@3@$0A@@std@@@std@@QAE?AU?$pair@V?$_Tree_iterator@V?$_Tree_val@U?$_Tree_simple_types@U?$pair@$$CBKPAVCColosseumMatch@@@std@@@std@@@std@@@std@@_N@1@$$QAU?$pair@KPAVCColosseumMatch@@@1@@Z DD 0ffffffffH
	DD	FLAT:__unwindfunclet$??$emplace@U?$pair@KPAVCColosseumMatch@@@std@@@?$_Tree@V?$_Tmap_traits@KPAVCColosseumMatch@@U?$less@K@std@@V?$allocator@U?$pair@$$CBKPAVCColosseumMatch@@@std@@@3@$0A@@std@@@std@@QAE?AU?$pair@V?$_Tree_iterator@V?$_Tree_val@U?$_Tree_simple_types@U?$pair@$$CBKPAVCColosseumMatch@@@std@@@std@@@std@@@std@@_N@1@$$QAU?$pair@KPAVCColosseumMatch@@@1@@Z$2
__ehfuncinfo$??$emplace@U?$pair@KPAVCColosseumMatch@@@std@@@?$_Tree@V?$_Tmap_traits@KPAVCColosseumMatch@@U?$less@K@std@@V?$allocator@U?$pair@$$CBKPAVCColosseumMatch@@@std@@@3@$0A@@std@@@std@@QAE?AU?$pair@V?$_Tree_iterator@V?$_Tree_val@U?$_Tree_simple_types@U?$pair@$$CBKPAVCColosseumMatch@@@std@@@std@@@std@@@std@@_N@1@$$QAU?$pair@KPAVCColosseumMatch@@@1@@Z DD 019930522H
	DD	01H
	DD	FLAT:__unwindtable$??$emplace@U?$pair@KPAVCColosseumMatch@@@std@@@?$_Tree@V?$_Tmap_traits@KPAVCColosseumMatch@@U?$less@K@std@@V?$allocator@U?$pair@$$CBKPAVCColosseumMatch@@@std@@@3@$0A@@std@@@std@@QAE?AU?$pair@V?$_Tree_iterator@V?$_Tree_val@U?$_Tree_simple_types@U?$pair@$$CBKPAVCColosseumMatch@@@std@@@std@@@std@@@std@@_N@1@$$QAU?$pair@KPAVCColosseumMatch@@@1@@Z
	DD	2 DUP(00H)
	DD	2 DUP(00H)
	DD	00H
	DD	01H
xdata$x	ENDS
;	COMDAT xdata$x
xdata$x	SEGMENT
__unwindtable$??$insert@U?$pair@KPAVCColosseumMatch@@@std@@$0A@@?$map@KPAVCColosseumMatch@@U?$less@K@std@@V?$allocator@U?$pair@$$CBKPAVCColosseumMatch@@@std@@@3@@std@@QAE?AU?$pair@V?$_Tree_iterator@V?$_Tree_val@U?$_Tree_simple_types@U?$pair@$$CBKPAVCColosseumMatch@@@std@@@std@@@std@@@std@@_N@1@$$QAU?$pair@KPAVCColosseumMatch@@@1@@Z DD 0ffffffffH
	DD	FLAT:__unwindfunclet$??$insert@U?$pair@KPAVCColosseumMatch@@@std@@$0A@@?$map@KPAVCColosseumMatch@@U?$less@K@std@@V?$allocator@U?$pair@$$CBKPAVCColosseumMatch@@@std@@@3@@std@@QAE?AU?$pair@V?$_Tree_iterator@V?$_Tree_val@U?$_Tree_simple_types@U?$pair@$$CBKPAVCColosseumMatch@@@std@@@std@@@std@@@std@@_N@1@$$QAU?$pair@KPAVCColosseumMatch@@@1@@Z$2
__ehfuncinfo$??$insert@U?$pair@KPAVCColosseumMatch@@@std@@$0A@@?$map@KPAVCColosseumMatch@@U?$less@K@std@@V?$allocator@U?$pair@$$CBKPAVCColosseumMatch@@@std@@@3@@std@@QAE?AU?$pair@V?$_Tree_iterator@V?$_Tree_val@U?$_Tree_simple_types@U?$pair@$$CBKPAVCColosseumMatch@@@std@@@std@@@std@@@std@@_N@1@$$QAU?$pair@KPAVCColosseumMatch@@@1@@Z DD 019930522H
	DD	01H
	DD	FLAT:__unwindtable$??$insert@U?$pair@KPAVCColosseumMatch@@@std@@$0A@@?$map@KPAVCColosseumMatch@@U?$less@K@std@@V?$allocator@U?$pair@$$CBKPAVCColosseumMatch@@@std@@@3@@std@@QAE?AU?$pair@V?$_Tree_iterator@V?$_Tree_val@U?$_Tree_simple_types@U?$pair@$$CBKPAVCColosseumMatch@@@std@@@std@@@std@@@std@@_N@1@$$QAU?$pair@KPAVCColosseumMatch@@@1@@Z
	DD	2 DUP(00H)
	DD	2 DUP(00H)
	DD	00H
	DD	01H
xdata$x	ENDS
;	COMDAT xdata$x
xdata$x	SEGMENT
__unwindtable$?CreateNewMatch@CColosseumMng@@QAEHPAVCUser@@EE@Z DD 0ffffffffH
	DD	FLAT:__unwindfunclet$?CreateNewMatch@CColosseumMng@@QAEHPAVCUser@@EE@Z$0
	DD	0ffffffffH
	DD	FLAT:__unwindfunclet$?CreateNewMatch@CColosseumMng@@QAEHPAVCUser@@EE@Z$3
__ehfuncinfo$?CreateNewMatch@CColosseumMng@@QAEHPAVCUser@@EE@Z DD 019930522H
	DD	02H
	DD	FLAT:__unwindtable$?CreateNewMatch@CColosseumMng@@QAEHPAVCUser@@EE@Z
	DD	2 DUP(00H)
	DD	2 DUP(00H)
	DD	00H
	DD	01H
xdata$x	ENDS
;	COMDAT xdata$x
xdata$x	SEGMENT
__unwindtable$?GetInstance@CColosseumMng@@SAPAV1@XZ DD 0ffffffffH
	DD	FLAT:__unwindfunclet$?GetInstance@CColosseumMng@@SAPAV1@XZ$0
__ehfuncinfo$?GetInstance@CColosseumMng@@SAPAV1@XZ DD 019930522H
	DD	01H
	DD	FLAT:__unwindtable$?GetInstance@CColosseumMng@@SAPAV1@XZ
	DD	2 DUP(00H)
	DD	2 DUP(00H)
	DD	00H
	DD	01H
xdata$x	ENDS
;	COMDAT xdata$x
xdata$x	SEGMENT
__unwindtable$??0CColosseumMng@@QAE@XZ DD 0ffffffffH
	DD	FLAT:__unwindfunclet$??0CColosseumMng@@QAE@XZ$0
__ehfuncinfo$??0CColosseumMng@@QAE@XZ DD 019930522H
	DD	01H
	DD	FLAT:__unwindtable$??0CColosseumMng@@QAE@XZ
	DD	2 DUP(00H)
	DD	2 DUP(00H)
	DD	00H
	DD	01H
xdata$x	ENDS
;	COMDAT xdata$x
xdata$x	SEGMENT
__unwindtable$?DestroyMover@CColosseumMatch@@QAEXXZ DD 0ffffffffH
	DD	FLAT:__unwindfunclet$?DestroyMover@CColosseumMatch@@QAEXXZ$0
__ehfuncinfo$?DestroyMover@CColosseumMatch@@QAEXXZ DD 019930522H
	DD	01H
	DD	FLAT:__unwindtable$?DestroyMover@CColosseumMatch@@QAEXXZ
	DD	2 DUP(00H)
	DD	2 DUP(00H)
	DD	00H
	DD	01H
xdata$x	ENDS
;	COMDAT xdata$x
xdata$x	SEGMENT
__unwindtable$?CreateMover@CColosseumMatch@@QAEXXZ DD 0ffffffffH
	DD	FLAT:__unwindfunclet$?CreateMover@CColosseumMatch@@QAEXXZ$0
__ehfuncinfo$?CreateMover@CColosseumMatch@@QAEXXZ DD 019930522H
	DD	01H
	DD	FLAT:__unwindtable$?CreateMover@CColosseumMatch@@QAEXXZ
	DD	2 DUP(00H)
	DD	2 DUP(00H)
	DD	00H
	DD	01H
xdata$x	ENDS
;	COMDAT xdata$x
xdata$x	SEGMENT
__ehfuncinfo$??1CColosseumMatch@@UAE@XZ DD 019930522H
	DD	00H
	DD	00H
	DD	2 DUP(00H)
	DD	2 DUP(00H)
	DD	00H
	DD	05H
xdata$x	ENDS
;	COMDAT xdata$x
xdata$x	SEGMENT
__unwindtable$??0CColosseumMatch@@QAE@XZ DD 0ffffffffH
	DD	FLAT:__unwindfunclet$??0CColosseumMatch@@QAE@XZ$0
__ehfuncinfo$??0CColosseumMatch@@QAE@XZ DD 019930522H
	DD	01H
	DD	FLAT:__unwindtable$??0CColosseumMatch@@QAE@XZ
	DD	2 DUP(00H)
	DD	2 DUP(00H)
	DD	00H
	DD	01H
xdata$x	ENDS
;	COMDAT xdata$x
xdata$x	SEGMENT
__unwindtable$?FormatV@?$CStringT@DV?$StrTraitMFC@DV?$ChTraitsCRT@D@ATL@@@@@ATL@@QAEXPBDPAD@Z DD 0ffffffffH
	DD	FLAT:__unwindfunclet$?FormatV@?$CStringT@DV?$StrTraitMFC@DV?$ChTraitsCRT@D@ATL@@@@@ATL@@QAEXPBDPAD@Z$1
	DD	0ffffffffH
	DD	FLAT:__unwindfunclet$?FormatV@?$CStringT@DV?$StrTraitMFC@DV?$ChTraitsCRT@D@ATL@@@@@ATL@@QAEXPBDPAD@Z$0
__ehfuncinfo$?FormatV@?$CStringT@DV?$StrTraitMFC@DV?$ChTraitsCRT@D@ATL@@@@@ATL@@QAEXPBDPAD@Z DD 019930522H
	DD	02H
	DD	FLAT:__unwindtable$?FormatV@?$CStringT@DV?$StrTraitMFC@DV?$ChTraitsCRT@D@ATL@@@@@ATL@@QAEXPBDPAD@Z
	DD	2 DUP(00H)
	DD	2 DUP(00H)
	DD	00H
	DD	01H
xdata$x	ENDS
;	COMDAT xdata$x
xdata$x	SEGMENT
__unwindtable$??0?$CStringT@DV?$StrTraitMFC@DV?$ChTraitsCRT@D@ATL@@@@@ATL@@QAE@PBDPAUIAtlStringMgr@1@@Z DD 0ffffffffH
	DD	FLAT:__unwindfunclet$??0?$CStringT@DV?$StrTraitMFC@DV?$ChTraitsCRT@D@ATL@@@@@ATL@@QAE@PBDPAUIAtlStringMgr@1@@Z$0
__ehfuncinfo$??0?$CStringT@DV?$StrTraitMFC@DV?$ChTraitsCRT@D@ATL@@@@@ATL@@QAE@PBDPAUIAtlStringMgr@1@@Z DD 019930522H
	DD	01H
	DD	FLAT:__unwindtable$??0?$CStringT@DV?$StrTraitMFC@DV?$ChTraitsCRT@D@ATL@@@@@ATL@@QAE@PBDPAUIAtlStringMgr@1@@Z
	DD	2 DUP(00H)
	DD	2 DUP(00H)
	DD	00H
	DD	01H
xdata$x	ENDS
; Function compile flags: /Ogtp
; File C:\Program Files\Microsoft Visual Studio\2022\Professional\VC\Tools\MSVC\14.44.35207\include\xutility
;	COMDAT ??$_Copy_memmove_tail@PAU__COLOSSEUM_MONSTER@@@std@@YAPAU__COLOSSEUM_MONSTER@@QBDQAU1@II@Z
_TEXT	SEGMENT
__First_ch$ = 8						; size = 4
__Dest$ = 12						; size = 4
__Byte_count$ = 16					; size = 4
__Object_count$ = 20					; size = 4
??$_Copy_memmove_tail@PAU__COLOSSEUM_MONSTER@@@std@@YAPAU__COLOSSEUM_MONSTER@@QBDQAU1@II@Z PROC ; std::_Copy_memmove_tail<__COLOSSEUM_MONSTER *>, COMDAT

; 4747 :     const char* const _First_ch, const _OutCtgIt _Dest, const size_t _Byte_count, const size_t _Object_count) {

  00000	55		 push	 ebp
  00001	8b ec		 mov	 ebp, esp
  00003	56		 push	 esi

; 4748 :     _STL_INTERNAL_CHECK(_Byte_count == _Object_count * sizeof(*_Dest));
; 4749 :     const auto _Dest_ptr = _STD _To_address(_Dest);
; 4750 :     const auto _Dest_ch  = const_cast<char*>(reinterpret_cast<const volatile char*>(_Dest_ptr));
; 4751 :     _CSTD memmove(_Dest_ch, _First_ch, _Byte_count);

  00004	8b 75 0c	 mov	 esi, DWORD PTR __Dest$[ebp]
  00007	57		 push	 edi
  00008	8b 7d 10	 mov	 edi, DWORD PTR __Byte_count$[ebp]
  0000b	57		 push	 edi
  0000c	ff 75 08	 push	 DWORD PTR __First_ch$[ebp]
  0000f	56		 push	 esi
  00010	e8 00 00 00 00	 call	 _memmove
  00015	83 c4 0c	 add	 esp, 12			; 0000000cH

; 4752 :     if constexpr (is_pointer_v<_OutCtgIt>) {
; 4753 :         (void) _Object_count;
; 4754 :         // CodeQL [SM02986] This cast is correct: we're bypassing pointer arithmetic for performance.
; 4755 :         return reinterpret_cast<_OutCtgIt>(_Dest_ch + _Byte_count);

  00018	8d 04 3e	 lea	 eax, DWORD PTR [esi+edi]
  0001b	5f		 pop	 edi
  0001c	5e		 pop	 esi

; 4756 :     } else {
; 4757 :         return _Dest + static_cast<_Iter_diff_t<_OutCtgIt>>(_Object_count);
; 4758 :     }
; 4759 : }

  0001d	5d		 pop	 ebp
  0001e	c3		 ret	 0
??$_Copy_memmove_tail@PAU__COLOSSEUM_MONSTER@@@std@@YAPAU__COLOSSEUM_MONSTER@@QBDQAU1@II@Z ENDP ; std::_Copy_memmove_tail<__COLOSSEUM_MONSTER *>
_TEXT	ENDS
; Function compile flags: /Ogtp
; File C:\Program Files\Microsoft Visual Studio\2022\Professional\VC\Tools\MSVC\14.44.35207\include\xutility
;	COMDAT ??$_Copy_memmove_tail@PAK@std@@YAPAKQBDQAKII@Z
_TEXT	SEGMENT
__First_ch$ = 8						; size = 4
__Dest$ = 12						; size = 4
__Byte_count$ = 16					; size = 4
__Object_count$ = 20					; size = 4
??$_Copy_memmove_tail@PAK@std@@YAPAKQBDQAKII@Z PROC	; std::_Copy_memmove_tail<unsigned long *>, COMDAT

; 4747 :     const char* const _First_ch, const _OutCtgIt _Dest, const size_t _Byte_count, const size_t _Object_count) {

  00000	55		 push	 ebp
  00001	8b ec		 mov	 ebp, esp
  00003	56		 push	 esi

; 4748 :     _STL_INTERNAL_CHECK(_Byte_count == _Object_count * sizeof(*_Dest));
; 4749 :     const auto _Dest_ptr = _STD _To_address(_Dest);
; 4750 :     const auto _Dest_ch  = const_cast<char*>(reinterpret_cast<const volatile char*>(_Dest_ptr));
; 4751 :     _CSTD memmove(_Dest_ch, _First_ch, _Byte_count);

  00004	8b 75 0c	 mov	 esi, DWORD PTR __Dest$[ebp]
  00007	57		 push	 edi
  00008	8b 7d 10	 mov	 edi, DWORD PTR __Byte_count$[ebp]
  0000b	57		 push	 edi
  0000c	ff 75 08	 push	 DWORD PTR __First_ch$[ebp]
  0000f	56		 push	 esi
  00010	e8 00 00 00 00	 call	 _memmove
  00015	83 c4 0c	 add	 esp, 12			; 0000000cH

; 4752 :     if constexpr (is_pointer_v<_OutCtgIt>) {
; 4753 :         (void) _Object_count;
; 4754 :         // CodeQL [SM02986] This cast is correct: we're bypassing pointer arithmetic for performance.
; 4755 :         return reinterpret_cast<_OutCtgIt>(_Dest_ch + _Byte_count);

  00018	8d 04 3e	 lea	 eax, DWORD PTR [esi+edi]
  0001b	5f		 pop	 edi
  0001c	5e		 pop	 esi

; 4756 :     } else {
; 4757 :         return _Dest + static_cast<_Iter_diff_t<_OutCtgIt>>(_Object_count);
; 4758 :     }
; 4759 : }

  0001d	5d		 pop	 ebp
  0001e	c3		 ret	 0
??$_Copy_memmove_tail@PAK@std@@YAPAKQBDQAKII@Z ENDP	; std::_Copy_memmove_tail<unsigned long *>
_TEXT	ENDS
; Function compile flags: /Ogtp
; File C:\Program Files\Microsoft Visual Studio\2022\Professional\VC\Tools\MSVC\14.44.35207\include\xutility
;	COMDAT ??$_Copy_memmove@PAU__COLOSSEUM_MONSTER@@PAU1@@std@@YAPAU__COLOSSEUM_MONSTER@@PAU1@00@Z
_TEXT	SEGMENT
__First$ = 8						; size = 4
__Last$ = 12						; size = 4
__Dest$ = 16						; size = 4
??$_Copy_memmove@PAU__COLOSSEUM_MONSTER@@PAU1@@std@@YAPAU__COLOSSEUM_MONSTER@@PAU1@00@Z PROC ; std::_Copy_memmove<__COLOSSEUM_MONSTER *,__COLOSSEUM_MONSTER *>, COMDAT

; 4762 : _OutCtgIt _Copy_memmove(_CtgIt _First, _CtgIt _Last, _OutCtgIt _Dest) {

  00000	55		 push	 ebp
  00001	8b ec		 mov	 ebp, esp

; 4763 :     _STL_INTERNAL_CHECK(_First <= _Last);
; 4764 :     const auto _First_ptr    = _STD _To_address(_First);
; 4765 :     const auto _Last_ptr     = _STD _To_address(_Last);
; 4766 :     const auto _Object_count = static_cast<size_t>(_Last_ptr - _First_ptr);

  00003	8b 55 08	 mov	 edx, DWORD PTR __First$[ebp]
  00006	8b 4d 0c	 mov	 ecx, DWORD PTR __Last$[ebp]
  00009	2b ca		 sub	 ecx, edx
  0000b	8b c1		 mov	 eax, ecx
  0000d	c1 f8 04	 sar	 eax, 4

; 4767 :     const auto _First_ch     = const_cast<const char*>(reinterpret_cast<const volatile char*>(_First_ptr));
; 4768 :     const auto _Last_ch      = const_cast<const char*>(reinterpret_cast<const volatile char*>(_Last_ptr));
; 4769 :     const auto _Byte_count   = static_cast<size_t>(_Last_ch - _First_ch);
; 4770 :     return _STD _Copy_memmove_tail(_First_ch, _STD move(_Dest), _Byte_count, _Object_count);

  00010	50		 push	 eax
  00011	51		 push	 ecx
  00012	ff 75 10	 push	 DWORD PTR __Dest$[ebp]
  00015	52		 push	 edx
  00016	e8 00 00 00 00	 call	 ??$_Copy_memmove_tail@PAU__COLOSSEUM_MONSTER@@@std@@YAPAU__COLOSSEUM_MONSTER@@QBDQAU1@II@Z ; std::_Copy_memmove_tail<__COLOSSEUM_MONSTER *>
  0001b	83 c4 10	 add	 esp, 16			; 00000010H

; 4771 : }

  0001e	5d		 pop	 ebp
  0001f	c3		 ret	 0
??$_Copy_memmove@PAU__COLOSSEUM_MONSTER@@PAU1@@std@@YAPAU__COLOSSEUM_MONSTER@@PAU1@00@Z ENDP ; std::_Copy_memmove<__COLOSSEUM_MONSTER *,__COLOSSEUM_MONSTER *>
_TEXT	ENDS
; Function compile flags: /Ogtp
; File C:\Program Files\Microsoft Visual Studio\2022\Professional\VC\Tools\MSVC\14.44.35207\include\xmemory
;	COMDAT ??1?$_Alloc_construct_ptr@V?$allocator@U?$_Tree_node@U?$pair@$$CBKPAVCColosseumMatch@@@std@@PAX@std@@@std@@@std@@QAE@XZ
_TEXT	SEGMENT
??1?$_Alloc_construct_ptr@V?$allocator@U?$_Tree_node@U?$pair@$$CBKPAVCColosseumMatch@@@std@@PAX@std@@@std@@@std@@QAE@XZ PROC ; std::_Alloc_construct_ptr<std::allocator<std::_Tree_node<std::pair<unsigned long const ,CColosseumMatch *>,void *> > >::~_Alloc_construct_ptr<std::allocator<std::_Tree_node<std::pair<unsigned long const ,CColosseumMatch *>,void *> > >, COMDAT
; _this$ = ecx

; 1172 :         if (_Ptr) {

  00000	8b 41 04	 mov	 eax, DWORD PTR [ecx+4]
  00003	85 c0		 test	 eax, eax
  00005	74 0b		 je	 SHORT $LN10@Alloc_cons

; 289  :         ::operator delete(_Ptr, _Bytes);

  00007	6a 18		 push	 24			; 00000018H
  00009	50		 push	 eax
  0000a	e8 00 00 00 00	 call	 ??3@YAXPAXI@Z		; operator delete
  0000f	83 c4 08	 add	 esp, 8
$LN10@Alloc_cons:

; 1173 :             _Al.deallocate(_Ptr, 1);
; 1174 :         }
; 1175 :     }

  00012	c3		 ret	 0
??1?$_Alloc_construct_ptr@V?$allocator@U?$_Tree_node@U?$pair@$$CBKPAVCColosseumMatch@@@std@@PAX@std@@@std@@@std@@QAE@XZ ENDP ; std::_Alloc_construct_ptr<std::allocator<std::_Tree_node<std::pair<unsigned long const ,CColosseumMatch *>,void *> > >::~_Alloc_construct_ptr<std::allocator<std::_Tree_node<std::pair<unsigned long const ,CColosseumMatch *>,void *> > >
_TEXT	ENDS
; Function compile flags: /Ogtp
; File C:\Program Files\Microsoft Visual Studio\2022\Professional\VC\Tools\MSVC\14.44.35207\include\vector
; File C:\Program Files\Microsoft Visual Studio\2022\Professional\VC\Tools\MSVC\14.44.35207\include\xmemory
; File C:\Program Files\Microsoft Visual Studio\2022\Professional\VC\Tools\MSVC\14.44.35207\include\vector
; File C:\Program Files\Microsoft Visual Studio\2022\Professional\VC\Tools\MSVC\14.44.35207\include\xmemory
; File C:\Program Files\Microsoft Visual Studio\2022\Professional\VC\Tools\MSVC\14.44.35207\include\vector
; File C:\Program Files\Microsoft Visual Studio\2022\Professional\VC\Tools\MSVC\14.44.35207\include\xmemory
; File C:\Program Files\Microsoft Visual Studio\2022\Professional\VC\Tools\MSVC\14.44.35207\include\vector
; File C:\Program Files\Microsoft Visual Studio\2022\Professional\VC\Tools\MSVC\14.44.35207\include\xmemory
; File C:\Program Files\Microsoft Visual Studio\2022\Professional\VC\Tools\MSVC\14.44.35207\include\vector
; File C:\Program Files\Microsoft Visual Studio\2022\Professional\VC\Tools\MSVC\14.44.35207\include\xmemory
; File C:\Program Files\Microsoft Visual Studio\2022\Professional\VC\Tools\MSVC\14.44.35207\include\vector
; File C:\Program Files\Microsoft Visual Studio\2022\Professional\VC\Tools\MSVC\14.44.35207\include\xmemory
; File C:\Program Files\Microsoft Visual Studio\2022\Professional\VC\Tools\MSVC\14.44.35207\include\vector
; File C:\Program Files\Microsoft Visual Studio\2022\Professional\VC\Tools\MSVC\14.44.35207\include\xmemory
; File C:\Program Files\Microsoft Visual Studio\2022\Professional\VC\Tools\MSVC\14.44.35207\include\vector
; File C:\Program Files\Microsoft Visual Studio\2022\Professional\VC\Tools\MSVC\14.44.35207\include\xmemory
; File C:\Program Files\Microsoft Visual Studio\2022\Professional\VC\Tools\MSVC\14.44.35207\include\vector
;	COMDAT ??$_Emplace_reallocate@ABK@?$vector@KV?$allocator@K@std@@@std@@AAEPAKQAKABK@Z
_TEXT	SEGMENT
__Newsize$1$ = -12					; size = 4
tv652 = -8						; size = 4
tv650 = -4						; size = 4
__Whereptr$ = 8						; size = 4
_<_Val_0>$ = 12						; size = 4
??$_Emplace_reallocate@ABK@?$vector@KV?$allocator@K@std@@@std@@AAEPAKQAKABK@Z PROC ; std::vector<unsigned long,std::allocator<unsigned long> >::_Emplace_reallocate<unsigned long const &>, COMDAT
; _this$ = ecx

; 875  :     _CONSTEXPR20 pointer _Emplace_reallocate(const pointer _Whereptr, _Valty&&... _Val) {

  00000	55		 push	 ebp
  00001	8b ec		 mov	 ebp, esp
  00003	83 ec 0c	 sub	 esp, 12			; 0000000cH
  00006	53		 push	 ebx

; 876  :         // reallocate and insert by perfectly forwarding _Val at _Whereptr
; 877  :         _Alty& _Al        = _Getal();
; 878  :         auto& _My_data    = _Mypair._Myval2;
; 879  :         pointer& _Myfirst = _My_data._Myfirst;
; 880  :         pointer& _Mylast  = _My_data._Mylast;
; 881  : 
; 882  :         _STL_INTERNAL_CHECK(_Mylast == _My_data._Myend); // check that we have no unused capacity
; 883  : 
; 884  :         const auto _Whereoff = static_cast<size_type>(_Whereptr - _Myfirst);

  00007	8b 5d 08	 mov	 ebx, DWORD PTR __Whereptr$[ebp]
  0000a	56		 push	 esi
  0000b	8b f1		 mov	 esi, ecx
  0000d	57		 push	 edi
  0000e	8b 0e		 mov	 ecx, DWORD PTR [esi]
  00010	2b d9		 sub	 ebx, ecx

; 885  :         const auto _Oldsize  = static_cast<size_type>(_Mylast - _Myfirst);

  00012	8b 46 04	 mov	 eax, DWORD PTR [esi+4]
  00015	2b c1		 sub	 eax, ecx
  00017	c1 fb 02	 sar	 ebx, 2
  0001a	c1 f8 02	 sar	 eax, 2

; 886  : 
; 887  :         if (_Oldsize == max_size()) {

  0001d	3d ff ff ff 3f	 cmp	 eax, 1073741823		; 3fffffffH
  00022	0f 84 13 01 00
	00		 je	 $LN111@Emplace_re

; 1924 :         return static_cast<size_type>(_My_data._Myend - _My_data._Myfirst);

  00028	8b 56 08	 mov	 edx, DWORD PTR [esi+8]

; 889  :         }
; 890  : 
; 891  :         const size_type _Newsize = _Oldsize + 1;

  0002b	8d 78 01	 lea	 edi, DWORD PTR [eax+1]

; 1924 :         return static_cast<size_type>(_My_data._Myend - _My_data._Myfirst);

  0002e	2b d1		 sub	 edx, ecx

; 889  :         }
; 890  : 
; 891  :         const size_type _Newsize = _Oldsize + 1;

  00030	89 7d f4	 mov	 DWORD PTR __Newsize$1$[ebp], edi

; 1924 :         return static_cast<size_type>(_My_data._Myend - _My_data._Myfirst);

  00033	c1 fa 02	 sar	 edx, 2

; 2011 :         if (_Oldcapacity > _Max - _Oldcapacity / 2) {

  00036	b8 ff ff ff 3f	 mov	 eax, 1073741823		; 3fffffffH
  0003b	8b ca		 mov	 ecx, edx
  0003d	d1 e9		 shr	 ecx, 1
  0003f	2b c1		 sub	 eax, ecx
  00041	3b d0		 cmp	 edx, eax
  00043	76 14		 jbe	 SHORT $LN8@Emplace_re

; 2012 :             return _Max; // geometric growth would overflow

  00045	b8 fc ff ff ff	 mov	 eax, -4			; fffffffcH
  0004a	c7 45 f8 fc ff
	ff ff		 mov	 DWORD PTR tv652[ebp], -4 ; fffffffcH
; File C:\Program Files\Microsoft Visual Studio\2022\Professional\VC\Tools\MSVC\14.44.35207\include\xmemory

; 253  :             return _Allocate_manually_vector_aligned<_Traits>(_Bytes);

  00051	50		 push	 eax
  00052	e8 00 00 00 00	 call	 ??$_Allocate_manually_vector_aligned@U_Default_allocate_traits@std@@@std@@YAPAXI@Z ; std::_Allocate_manually_vector_aligned<std::_Default_allocate_traits>
  00057	eb 3d		 jmp	 SHORT $LN109@Emplace_re
$LN8@Emplace_re:
; File C:\Program Files\Microsoft Visual Studio\2022\Professional\VC\Tools\MSVC\14.44.35207\include\vector

; 2015 :         const size_type _Geometric = _Oldcapacity + _Oldcapacity / 2;

  00059	8d 04 11	 lea	 eax, DWORD PTR [ecx+edx]
; File C:\Program Files\Microsoft Visual Studio\2022\Professional\VC\Tools\MSVC\14.44.35207\include\xmemory

; 117  :         if (_Count > _Max_possible) {

  0005c	8b cf		 mov	 ecx, edi
  0005e	3b c7		 cmp	 eax, edi
  00060	0f 43 c8	 cmovae	 ecx, eax
  00063	81 f9 ff ff ff
	3f		 cmp	 ecx, 1073741823		; 3fffffffH
  00069	0f 87 d1 00 00
	00		 ja	 $LN112@Emplace_re

; 119  :         }
; 120  :     }
; 121  : 
; 122  :     return _Count * _Ty_size;

  0006f	8d 04 8d 00 00
	00 00		 lea	 eax, DWORD PTR [ecx*4]
  00076	89 45 f8	 mov	 DWORD PTR tv652[ebp], eax

; 227  :     if (_Bytes == 0) {

  00079	85 c0		 test	 eax, eax
  0007b	75 04		 jne	 SHORT $LN23@Emplace_re

; 228  :         return nullptr;

  0007d	33 ff		 xor	 edi, edi
  0007f	eb 1a		 jmp	 SHORT $LN22@Emplace_re
$LN23@Emplace_re:

; 229  :     }
; 230  : 
; 231  : #if _HAS_CXX20 // TRANSITION, GH-1532
; 232  :     if (_STD is_constant_evaluated()) {
; 233  :         return _Traits::_Allocate(_Bytes);
; 234  :     }
; 235  : #endif // _HAS_CXX20
; 236  : 
; 237  : #ifdef __cpp_aligned_new
; 238  :     if constexpr (_Align > __STDCPP_DEFAULT_NEW_ALIGNMENT__) {
; 239  :         size_t _Passed_align = _Align;
; 240  : #if defined(_M_IX86) || defined(_M_X64)
; 241  :         if (_Bytes >= _Big_allocation_threshold) {
; 242  :             // boost the alignment of big allocations to help autovectorization
; 243  :             _Passed_align = (_STD max)(_Align, _Big_allocation_alignment);
; 244  :         }
; 245  : #endif // defined(_M_IX86) || defined(_M_X64)
; 246  :         return _Traits::_Allocate_aligned(_Bytes, _Passed_align);
; 247  :     } else
; 248  : #endif // defined(__cpp_aligned_new)
; 249  :     {
; 250  : #if defined(_M_IX86) || defined(_M_X64)
; 251  :         if (_Bytes >= _Big_allocation_threshold) {

  00081	3d 00 10 00 00	 cmp	 eax, 4096		; 00001000H
  00086	72 08		 jb	 SHORT $LN24@Emplace_re

; 253  :             return _Allocate_manually_vector_aligned<_Traits>(_Bytes);

  00088	50		 push	 eax
  00089	e8 00 00 00 00	 call	 ??$_Allocate_manually_vector_aligned@U_Default_allocate_traits@std@@@std@@YAPAXI@Z ; std::_Allocate_manually_vector_aligned<std::_Default_allocate_traits>
  0008e	eb 06		 jmp	 SHORT $LN109@Emplace_re
$LN24@Emplace_re:

; 136  :         return ::operator new(_Bytes);

  00090	50		 push	 eax
  00091	e8 00 00 00 00	 call	 ??2@YAPAXI@Z		; operator new
$LN109@Emplace_re:
; File C:\Program Files\Microsoft Visual Studio\2022\Professional\VC\Tools\MSVC\14.44.35207\include\vector

; 900  :         _Alty_traits::construct(_Al, _STD _Unfancy(_Newvec + _Whereoff), _STD forward<_Valty>(_Val)...);

  00096	8b f8		 mov	 edi, eax
  00098	83 c4 04	 add	 esp, 4
$LN22@Emplace_re:
  0009b	8b 45 0c	 mov	 eax, DWORD PTR _<_Val_0>$[ebp]
  0009e	8d 0c 9f	 lea	 ecx, DWORD PTR [edi+ebx*4]

; 901  :         _Constructed_first = _Newvec + _Whereoff;
; 902  : 
; 903  :         if (_Whereptr == _Mylast) { // at back, provide strong guarantee

  000a1	8b 5d 08	 mov	 ebx, DWORD PTR __Whereptr$[ebp]
  000a4	89 4d fc	 mov	 DWORD PTR tv650[ebp], ecx
  000a7	8b 00		 mov	 eax, DWORD PTR [eax]
  000a9	89 01		 mov	 DWORD PTR [ecx], eax
  000ab	8b 46 04	 mov	 eax, DWORD PTR [esi+4]
  000ae	8b 0e		 mov	 ecx, DWORD PTR [esi]
  000b0	3b d8		 cmp	 ebx, eax
  000b2	75 07		 jne	 SHORT $LN3@Emplace_re

; 909  :         } else { // provide basic guarantee

  000b4	8b 5d fc	 mov	 ebx, DWORD PTR tv650[ebp]
; File C:\Program Files\Microsoft Visual Studio\2022\Professional\VC\Tools\MSVC\14.44.35207\include\xmemory

; 1992 :             _STD _Copy_memmove(_UFirst, _ULast, _STD _Unfancy(_Dest));

  000b7	8b d7		 mov	 edx, edi
; File C:\Program Files\Microsoft Visual Studio\2022\Professional\VC\Tools\MSVC\14.44.35207\include\vector

; 909  :         } else { // provide basic guarantee

  000b9	eb 16		 jmp	 SHORT $LN52@Emplace_re
$LN3@Emplace_re:
; File C:\Program Files\Microsoft Visual Studio\2022\Professional\VC\Tools\MSVC\14.44.35207\include\xmemory

; 1992 :             _STD _Copy_memmove(_UFirst, _ULast, _STD _Unfancy(_Dest));

  000bb	57		 push	 edi
  000bc	53		 push	 ebx
  000bd	51		 push	 ecx
  000be	e8 00 00 00 00	 call	 ??$_Copy_memmove@PAKPAK@std@@YAPAKPAK00@Z ; std::_Copy_memmove<unsigned long *,unsigned long *>
  000c3	8b 46 04	 mov	 eax, DWORD PTR [esi+4]
  000c6	8b cb		 mov	 ecx, ebx
; File C:\Program Files\Microsoft Visual Studio\2022\Professional\VC\Tools\MSVC\14.44.35207\include\vector

; 912  :             _STD _Uninitialized_move(_Whereptr, _Mylast, _Newvec + _Whereoff + 1, _Al);

  000c8	8b 5d fc	 mov	 ebx, DWORD PTR tv650[ebp]
; File C:\Program Files\Microsoft Visual Studio\2022\Professional\VC\Tools\MSVC\14.44.35207\include\xmemory

; 1992 :             _STD _Copy_memmove(_UFirst, _ULast, _STD _Unfancy(_Dest));

  000cb	83 c4 0c	 add	 esp, 12			; 0000000cH
; File C:\Program Files\Microsoft Visual Studio\2022\Professional\VC\Tools\MSVC\14.44.35207\include\vector

; 912  :             _STD _Uninitialized_move(_Whereptr, _Mylast, _Newvec + _Whereoff + 1, _Al);

  000ce	8d 53 04	 lea	 edx, DWORD PTR [ebx+4]
$LN52@Emplace_re:

; 913  :         }
; 914  : 
; 915  :         _Guard._New_begin = nullptr;

  000d1	52		 push	 edx
  000d2	50		 push	 eax
  000d3	51		 push	 ecx
  000d4	e8 00 00 00 00	 call	 ??$_Copy_memmove@PAKPAK@std@@YAPAKPAK00@Z ; std::_Copy_memmove<unsigned long *,unsigned long *>

; 2069 :         if (_Myfirst) { // destroy and deallocate old array

  000d9	8b 06		 mov	 eax, DWORD PTR [esi]

; 913  :         }
; 914  : 
; 915  :         _Guard._New_begin = nullptr;

  000db	83 c4 0c	 add	 esp, 12			; 0000000cH

; 2069 :         if (_Myfirst) { // destroy and deallocate old array

  000de	85 c0		 test	 eax, eax
  000e0	74 2c		 je	 SHORT $LN72@Emplace_re

; 2070 :             _STD _Destroy_range(_Myfirst, _Mylast, _Al);
; 2071 :             _ASAN_VECTOR_REMOVE;
; 2072 :             _Al.deallocate(_Myfirst, static_cast<size_type>(_Myend - _Myfirst));

  000e2	8b 4e 08	 mov	 ecx, DWORD PTR [esi+8]
  000e5	2b c8		 sub	 ecx, eax
; File C:\Program Files\Microsoft Visual Studio\2022\Professional\VC\Tools\MSVC\14.44.35207\include\xmemory

; 985  :         _STD _Deallocate<_New_alignof<_Ty>>(_Ptr, sizeof(_Ty) * _Count);

  000e7	83 e1 fc	 and	 ecx, -4			; fffffffcH

; 284  :         if (_Bytes >= _Big_allocation_threshold) {

  000ea	81 f9 00 10 00
	00		 cmp	 ecx, 4096		; 00001000H
  000f0	72 12		 jb	 SHORT $LN77@Emplace_re

; 205  :     const uintptr_t _Ptr_container   = _Ptr_user[-1];

  000f2	8b 50 fc	 mov	 edx, DWORD PTR [eax-4]
  000f5	83 c1 23	 add	 ecx, 35			; 00000023H

; 206  : 
; 207  :     // If the following asserts, it likely means that we are performing
; 208  :     // an aligned delete on memory coming from an unaligned allocation.
; 209  :     _STL_ASSERT(_Ptr_user[-2] == _Big_allocation_sentinel, "invalid argument");
; 210  : 
; 211  :     // Extra paranoia on aligned allocation/deallocation; ensure _Ptr_container is
; 212  :     // in range [_Min_back_shift, _Non_user_size]
; 213  : #ifdef _DEBUG
; 214  :     constexpr uintptr_t _Min_back_shift = 2 * sizeof(void*);
; 215  : #else // ^^^ defined(_DEBUG) / !defined(_DEBUG) vvv
; 216  :     constexpr uintptr_t _Min_back_shift = sizeof(void*);
; 217  : #endif // ^^^ !defined(_DEBUG) ^^^
; 218  :     const uintptr_t _Back_shift = reinterpret_cast<uintptr_t>(_Ptr) - _Ptr_container;

  000f8	2b c2		 sub	 eax, edx

; 219  :     _STL_VERIFY(_Back_shift >= _Min_back_shift && _Back_shift <= _Non_user_size, "invalid argument");

  000fa	83 c0 fc	 add	 eax, -4			; fffffffcH
  000fd	83 f8 1f	 cmp	 eax, 31			; 0000001fH
  00100	77 2a		 ja	 SHORT $LN76@Emplace_re

; 220  :     _Ptr = reinterpret_cast<void*>(_Ptr_container);

  00102	8b c2		 mov	 eax, edx
$LN77@Emplace_re:

; 289  :         ::operator delete(_Ptr, _Bytes);

  00104	51		 push	 ecx
  00105	50		 push	 eax
  00106	e8 00 00 00 00	 call	 ??3@YAXPAXI@Z		; operator delete
  0010b	83 c4 08	 add	 esp, 8
$LN72@Emplace_re:
; File C:\Program Files\Microsoft Visual Studio\2022\Professional\VC\Tools\MSVC\14.44.35207\include\vector

; 2076 :         _Mylast  = _Newvec + _Newsize;

  0010e	8b 45 f4	 mov	 eax, DWORD PTR __Newsize$1$[ebp]
  00111	89 3e		 mov	 DWORD PTR [esi], edi
  00113	8d 0c 87	 lea	 ecx, DWORD PTR [edi+eax*4]

; 916  :         _Change_array(_Newvec, _Newsize, _Newcapacity);
; 917  :         return _Newvec + _Whereoff;

  00116	8b c3		 mov	 eax, ebx

; 2076 :         _Mylast  = _Newvec + _Newsize;

  00118	89 4e 04	 mov	 DWORD PTR [esi+4], ecx

; 2077 :         _Myend   = _Newvec + _Newcapacity;

  0011b	8b 4d f8	 mov	 ecx, DWORD PTR tv652[ebp]
  0011e	03 cf		 add	 ecx, edi

; 918  :     }

  00120	5f		 pop	 edi

; 2077 :         _Myend   = _Newvec + _Newcapacity;

  00121	89 4e 08	 mov	 DWORD PTR [esi+8], ecx

; 918  :     }

  00124	5e		 pop	 esi
  00125	5b		 pop	 ebx
  00126	8b e5		 mov	 esp, ebp
  00128	5d		 pop	 ebp
  00129	c2 08 00	 ret	 8
$LN76@Emplace_re:
; File C:\Program Files\Microsoft Visual Studio\2022\Professional\VC\Tools\MSVC\14.44.35207\include\xmemory

; 219  :     _STL_VERIFY(_Back_shift >= _Min_back_shift && _Back_shift <= _Non_user_size, "invalid argument");

  0012c	6a 00		 push	 0
  0012e	6a 00		 push	 0
  00130	6a 00		 push	 0
  00132	6a 00		 push	 0
  00134	6a 00		 push	 0
  00136	e8 00 00 00 00	 call	 __invoke_watson
$LN111@Emplace_re:
; File C:\Program Files\Microsoft Visual Studio\2022\Professional\VC\Tools\MSVC\14.44.35207\include\vector

; 888  :             _Xlength();

  0013b	e8 00 00 00 00	 call	 ?_Xlength@?$vector@KV?$allocator@K@std@@@std@@CAXXZ ; std::vector<unsigned long,std::allocator<unsigned long> >::_Xlength
$LN112@Emplace_re:
; File C:\Program Files\Microsoft Visual Studio\2022\Professional\VC\Tools\MSVC\14.44.35207\include\xmemory

; 118  :             _Throw_bad_array_new_length(); // multiply overflow

  00140	e8 00 00 00 00	 call	 ?_Throw_bad_array_new_length@std@@YAXXZ ; std::_Throw_bad_array_new_length
$LN108@Emplace_re:
  00145	cc		 int	 3
??$_Emplace_reallocate@ABK@?$vector@KV?$allocator@K@std@@@std@@AAEPAKQAKABK@Z ENDP ; std::vector<unsigned long,std::allocator<unsigned long> >::_Emplace_reallocate<unsigned long const &>
_TEXT	ENDS
; Function compile flags: /Ogtp
; File C:\Program Files\Microsoft Visual Studio\2022\Professional\VC\Tools\MSVC\14.44.35207\include\xutility
;	COMDAT ??$_Copy_memmove@PAKPAK@std@@YAPAKPAK00@Z
_TEXT	SEGMENT
__First$ = 8						; size = 4
__Last$ = 12						; size = 4
__Dest$ = 16						; size = 4
??$_Copy_memmove@PAKPAK@std@@YAPAKPAK00@Z PROC		; std::_Copy_memmove<unsigned long *,unsigned long *>, COMDAT

; 4762 : _OutCtgIt _Copy_memmove(_CtgIt _First, _CtgIt _Last, _OutCtgIt _Dest) {

  00000	55		 push	 ebp
  00001	8b ec		 mov	 ebp, esp

; 4763 :     _STL_INTERNAL_CHECK(_First <= _Last);
; 4764 :     const auto _First_ptr    = _STD _To_address(_First);
; 4765 :     const auto _Last_ptr     = _STD _To_address(_Last);
; 4766 :     const auto _Object_count = static_cast<size_t>(_Last_ptr - _First_ptr);

  00003	8b 55 08	 mov	 edx, DWORD PTR __First$[ebp]
  00006	8b 4d 0c	 mov	 ecx, DWORD PTR __Last$[ebp]
  00009	2b ca		 sub	 ecx, edx
  0000b	8b c1		 mov	 eax, ecx
  0000d	c1 f8 02	 sar	 eax, 2

; 4767 :     const auto _First_ch     = const_cast<const char*>(reinterpret_cast<const volatile char*>(_First_ptr));
; 4768 :     const auto _Last_ch      = const_cast<const char*>(reinterpret_cast<const volatile char*>(_Last_ptr));
; 4769 :     const auto _Byte_count   = static_cast<size_t>(_Last_ch - _First_ch);
; 4770 :     return _STD _Copy_memmove_tail(_First_ch, _STD move(_Dest), _Byte_count, _Object_count);

  00010	50		 push	 eax
  00011	51		 push	 ecx
  00012	ff 75 10	 push	 DWORD PTR __Dest$[ebp]
  00015	52		 push	 edx
  00016	e8 00 00 00 00	 call	 ??$_Copy_memmove_tail@PAK@std@@YAPAKQBDQAKII@Z ; std::_Copy_memmove_tail<unsigned long *>
  0001b	83 c4 10	 add	 esp, 16			; 00000010H

; 4771 : }

  0001e	5d		 pop	 ebp
  0001f	c3		 ret	 0
??$_Copy_memmove@PAKPAK@std@@YAPAKPAK00@Z ENDP		; std::_Copy_memmove<unsigned long *,unsigned long *>
_TEXT	ENDS
; Function compile flags: /Ogtp
; File C:\Program Files\Microsoft Visual Studio\2022\Professional\VC\Tools\MSVC\14.44.35207\include\xtree
; File C:\Program Files\Microsoft Visual Studio\2022\Professional\VC\Tools\MSVC\14.44.35207\include\utility
; File C:\Program Files\Microsoft Visual Studio\2022\Professional\VC\Tools\MSVC\14.44.35207\include\xmemory
; File C:\Program Files\Microsoft Visual Studio\2022\Professional\VC\Tools\MSVC\14.44.35207\include\xtree
;	COMDAT ??$_Erase_tree@V?$allocator@U?$_Tree_node@U?$pair@$$CBKPAVCColosseumMatch@@@std@@PAX@std@@@std@@@?$_Tree_val@U?$_Tree_simple_types@U?$pair@$$CBKPAVCColosseumMatch@@@std@@@std@@@std@@QAEXAAV?$allocator@U?$_Tree_node@U?$pair@$$CBKPAVCColosseumMatch@@@std@@PAX@std@@@1@PAU?$_Tree_node@U?$pair@$$CBKPAVCColosseumMatch@@@std@@PAX@1@@Z
_TEXT	SEGMENT
__Al$ = 8						; size = 4
__Rootnode$ = 12					; size = 4
??$_Erase_tree@V?$allocator@U?$_Tree_node@U?$pair@$$CBKPAVCColosseumMatch@@@std@@PAX@std@@@std@@@?$_Tree_val@U?$_Tree_simple_types@U?$pair@$$CBKPAVCColosseumMatch@@@std@@@std@@@std@@QAEXAAV?$allocator@U?$_Tree_node@U?$pair@$$CBKPAVCColosseumMatch@@@std@@PAX@std@@@1@PAU?$_Tree_node@U?$pair@$$CBKPAVCColosseumMatch@@@std@@PAX@1@@Z PROC ; std::_Tree_val<std::_Tree_simple_types<std::pair<unsigned long const ,CColosseumMatch *> > >::_Erase_tree<std::allocator<std::_Tree_node<std::pair<unsigned long const ,CColosseumMatch *>,void *> > >, COMDAT
; _this$ = ecx

; 767  :     void _Erase_tree(_Alnode& _Al, _Nodeptr _Rootnode) noexcept {

  00000	55		 push	 ebp
  00001	8b ec		 mov	 ebp, esp
  00003	53		 push	 ebx
  00004	56		 push	 esi

; 768  :         while (!_Rootnode->_Isnil) { // free subtrees, then node

  00005	8b 75 0c	 mov	 esi, DWORD PTR __Rootnode$[ebp]
  00008	8b d9		 mov	 ebx, ecx
  0000a	80 7e 0d 00	 cmp	 BYTE PTR [esi+13], 0
  0000e	75 25		 jne	 SHORT $LN34@Erase_tree
  00010	57		 push	 edi
  00011	8b 7d 08	 mov	 edi, DWORD PTR __Al$[ebp]
$LL2@Erase_tree:

; 769  :             _Erase_tree(_Al, _Rootnode->_Right);

  00014	ff 76 08	 push	 DWORD PTR [esi+8]
  00017	8b cb		 mov	 ecx, ebx
  00019	57		 push	 edi
  0001a	e8 00 00 00 00	 call	 ??$_Erase_tree@V?$allocator@U?$_Tree_node@U?$pair@$$CBKPAVCColosseumMatch@@@std@@PAX@std@@@std@@@?$_Tree_val@U?$_Tree_simple_types@U?$pair@$$CBKPAVCColosseumMatch@@@std@@@std@@@std@@QAEXAAV?$allocator@U?$_Tree_node@U?$pair@$$CBKPAVCColosseumMatch@@@std@@PAX@std@@@1@PAU?$_Tree_node@U?$pair@$$CBKPAVCColosseumMatch@@@std@@PAX@1@@Z ; std::_Tree_val<std::_Tree_simple_types<std::pair<unsigned long const ,CColosseumMatch *> > >::_Erase_tree<std::allocator<std::_Tree_node<std::pair<unsigned long const ,CColosseumMatch *>,void *> > >
; File C:\Program Files\Microsoft Visual Studio\2022\Professional\VC\Tools\MSVC\14.44.35207\include\utility

; 773  :     _Ty _Old_val = static_cast<_Ty&&>(_Val);

  0001f	8b c6		 mov	 eax, esi

; 774  :     _Val         = static_cast<_Other&&>(_New_val);

  00021	8b 36		 mov	 esi, DWORD PTR [esi]
; File C:\Program Files\Microsoft Visual Studio\2022\Professional\VC\Tools\MSVC\14.44.35207\include\xmemory

; 289  :         ::operator delete(_Ptr, _Bytes);

  00023	6a 18		 push	 24			; 00000018H
  00025	50		 push	 eax
  00026	e8 00 00 00 00	 call	 ??3@YAXPAXI@Z		; operator delete
  0002b	83 c4 08	 add	 esp, 8
; File C:\Program Files\Microsoft Visual Studio\2022\Professional\VC\Tools\MSVC\14.44.35207\include\xtree

; 768  :         while (!_Rootnode->_Isnil) { // free subtrees, then node

  0002e	80 7e 0d 00	 cmp	 BYTE PTR [esi+13], 0
  00032	74 e0		 je	 SHORT $LL2@Erase_tree
  00034	5f		 pop	 edi
$LN34@Erase_tree:
  00035	5e		 pop	 esi

; 770  :             _Alnode::value_type::_Freenode(_Al, _STD exchange(_Rootnode, _Rootnode->_Left));
; 771  :         }
; 772  :     }

  00036	5b		 pop	 ebx
  00037	5d		 pop	 ebp
  00038	c2 08 00	 ret	 8
??$_Erase_tree@V?$allocator@U?$_Tree_node@U?$pair@$$CBKPAVCColosseumMatch@@@std@@PAX@std@@@std@@@?$_Tree_val@U?$_Tree_simple_types@U?$pair@$$CBKPAVCColosseumMatch@@@std@@@std@@@std@@QAEXAAV?$allocator@U?$_Tree_node@U?$pair@$$CBKPAVCColosseumMatch@@@std@@PAX@std@@@1@PAU?$_Tree_node@U?$pair@$$CBKPAVCColosseumMatch@@@std@@PAX@1@@Z ENDP ; std::_Tree_val<std::_Tree_simple_types<std::pair<unsigned long const ,CColosseumMatch *> > >::_Erase_tree<std::allocator<std::_Tree_node<std::pair<unsigned long const ,CColosseumMatch *>,void *> > >
_TEXT	ENDS
; Function compile flags: /Ogtp
; File C:\Program Files\Microsoft Visual Studio\2022\Professional\VC\Tools\MSVC\14.44.35207\include\xtree
; File C:\Program Files\Microsoft Visual Studio\2022\Professional\VC\Tools\MSVC\14.44.35207\include\type_traits
; File C:\Program Files\Microsoft Visual Studio\2022\Professional\VC\Tools\MSVC\14.44.35207\include\xtree
; File C:\Program Files\Microsoft Visual Studio\2022\Professional\VC\Tools\MSVC\14.44.35207\include\type_traits
; File C:\Program Files\Microsoft Visual Studio\2022\Professional\VC\Tools\MSVC\14.44.35207\include\xtree
;	COMDAT ??$_Find_lower_bound@K@?$_Tree@V?$_Tmap_traits@KPAVCColosseumMatch@@U?$less@K@std@@V?$allocator@U?$pair@$$CBKPAVCColosseumMatch@@@std@@@3@$0A@@std@@@std@@IBE?AU?$_Tree_find_result@PAU?$_Tree_node@U?$pair@$$CBKPAVCColosseumMatch@@@std@@PAX@std@@@1@ABK@Z
_TEXT	SEGMENT
___$ReturnUdt$ = 8					; size = 4
__Keyval$ = 12						; size = 4
??$_Find_lower_bound@K@?$_Tree@V?$_Tmap_traits@KPAVCColosseumMatch@@U?$less@K@std@@V?$allocator@U?$pair@$$CBKPAVCColosseumMatch@@@std@@@3@$0A@@std@@@std@@IBE?AU?$_Tree_find_result@PAU?$_Tree_node@U?$pair@$$CBKPAVCColosseumMatch@@@std@@PAX@std@@@1@ABK@Z PROC ; std::_Tree<std::_Tmap_traits<unsigned long,CColosseumMatch *,std::less<unsigned long>,std::allocator<std::pair<unsigned long const ,CColosseumMatch *> >,0> >::_Find_lower_bound<unsigned long>, COMDAT
; _this$ = ecx

; 1628 :     _Tree_find_result<_Nodeptr> _Find_lower_bound(const _Keyty& _Keyval) const {

  00000	55		 push	 ebp
  00001	8b ec		 mov	 ebp, esp

; 1629 :         const auto _Scary = _Get_scary();
; 1630 :         _Tree_find_result<_Nodeptr> _Result{{_Scary->_Myhead->_Parent, _Tree_child::_Right}, _Scary->_Myhead};

  00003	8b 09		 mov	 ecx, DWORD PTR [ecx]
  00005	8b 55 08	 mov	 edx, DWORD PTR ___$ReturnUdt$[ebp]
  00008	8b 41 04	 mov	 eax, DWORD PTR [ecx+4]
  0000b	89 02		 mov	 DWORD PTR [edx], eax
  0000d	c7 42 04 00 00
	00 00		 mov	 DWORD PTR [edx+4], 0
  00014	89 4a 08	 mov	 DWORD PTR [edx+8], ecx

; 1631 :         _Nodeptr _Trynode = _Result._Location._Parent;
; 1632 :         while (!_Trynode->_Isnil) {

  00017	80 78 0d 00	 cmp	 BYTE PTR [eax+13], 0
  0001b	75 28		 jne	 SHORT $LN13@Find_lower
; File C:\Program Files\Microsoft Visual Studio\2022\Professional\VC\Tools\MSVC\14.44.35207\include\type_traits

; 2380 :         return _Left < _Right;

  0001d	8b 4d 0c	 mov	 ecx, DWORD PTR __Keyval$[ebp]
  00020	56		 push	 esi
  00021	8b 31		 mov	 esi, DWORD PTR [ecx]
$LL2@Find_lower:
; File C:\Program Files\Microsoft Visual Studio\2022\Professional\VC\Tools\MSVC\14.44.35207\include\xtree

; 1633 :             _Result._Location._Parent = _Trynode;

  00023	89 02		 mov	 DWORD PTR [edx], eax
; File C:\Program Files\Microsoft Visual Studio\2022\Professional\VC\Tools\MSVC\14.44.35207\include\type_traits

; 2380 :         return _Left < _Right;

  00025	39 70 10	 cmp	 DWORD PTR [eax+16], esi
; File C:\Program Files\Microsoft Visual Studio\2022\Professional\VC\Tools\MSVC\14.44.35207\include\xtree

; 1634 :             if (_DEBUG_LT_PRED(_Getcomp(), _Traits::_Kfn(_Trynode->_Myval), _Keyval)) {

  00028	73 07		 jae	 SHORT $LN4@Find_lower

; 1635 :                 _Result._Location._Child = _Tree_child::_Right;
; 1636 :                 _Trynode                 = _Trynode->_Right;

  0002a	8b 40 08	 mov	 eax, DWORD PTR [eax+8]
  0002d	33 c9		 xor	 ecx, ecx

; 1637 :             } else {

  0002f	eb 0a		 jmp	 SHORT $LN5@Find_lower
$LN4@Find_lower:

; 1638 :                 _Result._Location._Child = _Tree_child::_Left;
; 1639 :                 _Result._Bound           = _Trynode;

  00031	89 42 08	 mov	 DWORD PTR [edx+8], eax

; 1640 :                 _Trynode                 = _Trynode->_Left;

  00034	b9 01 00 00 00	 mov	 ecx, 1
  00039	8b 00		 mov	 eax, DWORD PTR [eax]
$LN5@Find_lower:

; 1631 :         _Nodeptr _Trynode = _Result._Location._Parent;
; 1632 :         while (!_Trynode->_Isnil) {

  0003b	89 4a 04	 mov	 DWORD PTR [edx+4], ecx
  0003e	80 78 0d 00	 cmp	 BYTE PTR [eax+13], 0
  00042	74 df		 je	 SHORT $LL2@Find_lower
  00044	5e		 pop	 esi
$LN13@Find_lower:

; 1641 :             }
; 1642 :         }
; 1643 : 
; 1644 :         return _Result;
; 1645 :     }

  00045	8b c2		 mov	 eax, edx
  00047	5d		 pop	 ebp
  00048	c2 08 00	 ret	 8
??$_Find_lower_bound@K@?$_Tree@V?$_Tmap_traits@KPAVCColosseumMatch@@U?$less@K@std@@V?$allocator@U?$pair@$$CBKPAVCColosseumMatch@@@std@@@3@$0A@@std@@@std@@IBE?AU?$_Tree_find_result@PAU?$_Tree_node@U?$pair@$$CBKPAVCColosseumMatch@@@std@@PAX@std@@@1@ABK@Z ENDP ; std::_Tree<std::_Tmap_traits<unsigned long,CColosseumMatch *,std::less<unsigned long>,std::allocator<std::pair<unsigned long const ,CColosseumMatch *> >,0> >::_Find_lower_bound<unsigned long>
_TEXT	ENDS
; Function compile flags: /Ogtp
; File C:\Program Files\Microsoft Visual Studio\2022\Professional\VC\Tools\MSVC\14.44.35207\include\vector
; File C:\Program Files\Microsoft Visual Studio\2022\Professional\VC\Tools\MSVC\14.44.35207\include\xmemory
; File C:\Program Files\Microsoft Visual Studio\2022\Professional\VC\Tools\MSVC\14.44.35207\include\vector
; File C:\Program Files\Microsoft Visual Studio\2022\Professional\VC\Tools\MSVC\14.44.35207\include\xmemory
; File C:\Program Files\Microsoft Visual Studio\2022\Professional\VC\Tools\MSVC\14.44.35207\include\vector
; File C:\Program Files\Microsoft Visual Studio\2022\Professional\VC\Tools\MSVC\14.44.35207\include\xmemory
; File C:\Program Files\Microsoft Visual Studio\2022\Professional\VC\Tools\MSVC\14.44.35207\include\vector
; File C:\Program Files\Microsoft Visual Studio\2022\Professional\VC\Tools\MSVC\14.44.35207\include\xmemory
; File C:\Program Files\Microsoft Visual Studio\2022\Professional\VC\Tools\MSVC\14.44.35207\include\vector
; File C:\Program Files\Microsoft Visual Studio\2022\Professional\VC\Tools\MSVC\14.44.35207\include\xmemory
; File C:\Program Files\Microsoft Visual Studio\2022\Professional\VC\Tools\MSVC\14.44.35207\include\vector
; File C:\Program Files\Microsoft Visual Studio\2022\Professional\VC\Tools\MSVC\14.44.35207\include\xmemory
; File C:\Program Files\Microsoft Visual Studio\2022\Professional\VC\Tools\MSVC\14.44.35207\include\vector
; File C:\Program Files\Microsoft Visual Studio\2022\Professional\VC\Tools\MSVC\14.44.35207\include\xmemory
; File C:\Program Files\Microsoft Visual Studio\2022\Professional\VC\Tools\MSVC\14.44.35207\include\vector
; File C:\Program Files\Microsoft Visual Studio\2022\Professional\VC\Tools\MSVC\14.44.35207\include\xmemory
; File C:\Program Files\Microsoft Visual Studio\2022\Professional\VC\Tools\MSVC\14.44.35207\include\vector
; File C:\Program Files\Microsoft Visual Studio\2022\Professional\VC\Tools\MSVC\14.44.35207\include\xmemory
; File C:\Program Files\Microsoft Visual Studio\2022\Professional\VC\Tools\MSVC\14.44.35207\include\vector
; File C:\Program Files\Microsoft Visual Studio\2022\Professional\VC\Tools\MSVC\14.44.35207\include\xmemory
; File C:\Program Files\Microsoft Visual Studio\2022\Professional\VC\Tools\MSVC\14.44.35207\include\vector
;	COMDAT ??$_Emplace_reallocate@ABU__COLOSSEUM_MONSTER@@@?$vector@U__COLOSSEUM_MONSTER@@V?$allocator@U__COLOSSEUM_MONSTER@@@std@@@std@@AAEPAU__COLOSSEUM_MONSTER@@QAU2@ABU2@@Z
_TEXT	SEGMENT
__Newsize$1$ = -12					; size = 4
$T1 = -8						; size = 4
tv710 = -4						; size = 4
__Whereptr$ = 8						; size = 4
_<_Val_0>$ = 12						; size = 4
??$_Emplace_reallocate@ABU__COLOSSEUM_MONSTER@@@?$vector@U__COLOSSEUM_MONSTER@@V?$allocator@U__COLOSSEUM_MONSTER@@@std@@@std@@AAEPAU__COLOSSEUM_MONSTER@@QAU2@ABU2@@Z PROC ; std::vector<__COLOSSEUM_MONSTER,std::allocator<__COLOSSEUM_MONSTER> >::_Emplace_reallocate<__COLOSSEUM_MONSTER const &>, COMDAT
; _this$ = ecx

; 875  :     _CONSTEXPR20 pointer _Emplace_reallocate(const pointer _Whereptr, _Valty&&... _Val) {

  00000	55		 push	 ebp
  00001	8b ec		 mov	 ebp, esp
  00003	83 ec 0c	 sub	 esp, 12			; 0000000cH
  00006	53		 push	 ebx

; 876  :         // reallocate and insert by perfectly forwarding _Val at _Whereptr
; 877  :         _Alty& _Al        = _Getal();
; 878  :         auto& _My_data    = _Mypair._Myval2;
; 879  :         pointer& _Myfirst = _My_data._Myfirst;
; 880  :         pointer& _Mylast  = _My_data._Mylast;
; 881  : 
; 882  :         _STL_INTERNAL_CHECK(_Mylast == _My_data._Myend); // check that we have no unused capacity
; 883  : 
; 884  :         const auto _Whereoff = static_cast<size_type>(_Whereptr - _Myfirst);

  00007	8b 5d 08	 mov	 ebx, DWORD PTR __Whereptr$[ebp]
  0000a	56		 push	 esi
  0000b	8b f1		 mov	 esi, ecx
  0000d	57		 push	 edi
  0000e	8b 0e		 mov	 ecx, DWORD PTR [esi]
  00010	2b d9		 sub	 ebx, ecx

; 885  :         const auto _Oldsize  = static_cast<size_type>(_Mylast - _Myfirst);

  00012	8b 46 04	 mov	 eax, DWORD PTR [esi+4]
  00015	2b c1		 sub	 eax, ecx
  00017	c1 f8 04	 sar	 eax, 4

; 886  : 
; 887  :         if (_Oldsize == max_size()) {

  0001a	3d ff ff ff 0f	 cmp	 eax, 268435455		; 0fffffffH
  0001f	0f 84 18 01 00
	00		 je	 $LN119@Emplace_re

; 1924 :         return static_cast<size_type>(_My_data._Myend - _My_data._Myfirst);

  00025	8b 7e 08	 mov	 edi, DWORD PTR [esi+8]

; 889  :         }
; 890  : 
; 891  :         const size_type _Newsize = _Oldsize + 1;

  00028	8d 50 01	 lea	 edx, DWORD PTR [eax+1]

; 1924 :         return static_cast<size_type>(_My_data._Myend - _My_data._Myfirst);

  0002b	2b f9		 sub	 edi, ecx

; 889  :         }
; 890  : 
; 891  :         const size_type _Newsize = _Oldsize + 1;

  0002d	89 55 f4	 mov	 DWORD PTR __Newsize$1$[ebp], edx

; 1924 :         return static_cast<size_type>(_My_data._Myend - _My_data._Myfirst);

  00030	c1 ff 04	 sar	 edi, 4

; 2011 :         if (_Oldcapacity > _Max - _Oldcapacity / 2) {

  00033	b8 ff ff ff 0f	 mov	 eax, 268435455		; 0fffffffH
  00038	8b cf		 mov	 ecx, edi
  0003a	d1 e9		 shr	 ecx, 1
  0003c	2b c1		 sub	 eax, ecx
  0003e	3b f8		 cmp	 edi, eax
  00040	76 14		 jbe	 SHORT $LN8@Emplace_re

; 2012 :             return _Max; // geometric growth would overflow

  00042	b8 f0 ff ff ff	 mov	 eax, -16		; fffffff0H
  00047	c7 45 f8 f0 ff
	ff ff		 mov	 DWORD PTR $T1[ebp], -16	; fffffff0H
; File C:\Program Files\Microsoft Visual Studio\2022\Professional\VC\Tools\MSVC\14.44.35207\include\xmemory

; 253  :             return _Allocate_manually_vector_aligned<_Traits>(_Bytes);

  0004e	50		 push	 eax
  0004f	e8 00 00 00 00	 call	 ??$_Allocate_manually_vector_aligned@U_Default_allocate_traits@std@@@std@@YAPAXI@Z ; std::_Allocate_manually_vector_aligned<std::_Default_allocate_traits>
  00054	eb 3b		 jmp	 SHORT $LN117@Emplace_re
$LN8@Emplace_re:
; File C:\Program Files\Microsoft Visual Studio\2022\Professional\VC\Tools\MSVC\14.44.35207\include\vector

; 2015 :         const size_type _Geometric = _Oldcapacity + _Oldcapacity / 2;

  00056	8d 04 39	 lea	 eax, DWORD PTR [ecx+edi]
; File C:\Program Files\Microsoft Visual Studio\2022\Professional\VC\Tools\MSVC\14.44.35207\include\xmemory

; 117  :         if (_Count > _Max_possible) {

  00059	8b ca		 mov	 ecx, edx
  0005b	3b c2		 cmp	 eax, edx
  0005d	0f 43 c8	 cmovae	 ecx, eax
  00060	81 f9 ff ff ff
	0f		 cmp	 ecx, 268435455		; 0fffffffH
  00066	0f 87 d6 00 00
	00		 ja	 $LN120@Emplace_re

; 119  :         }
; 120  :     }
; 121  : 
; 122  :     return _Count * _Ty_size;

  0006c	c1 e1 04	 shl	 ecx, 4

; 990  :         return static_cast<_Ty*>(_STD _Allocate<_New_alignof<_Ty>>(_Get_size_of_n<sizeof(_Ty)>(_Count)));

  0006f	8b c1		 mov	 eax, ecx

; 122  :     return _Count * _Ty_size;

  00071	89 4d f8	 mov	 DWORD PTR $T1[ebp], ecx

; 227  :     if (_Bytes == 0) {

  00074	85 c0		 test	 eax, eax
  00076	75 04		 jne	 SHORT $LN23@Emplace_re

; 228  :         return nullptr;

  00078	33 ff		 xor	 edi, edi
  0007a	eb 1a		 jmp	 SHORT $LN22@Emplace_re
$LN23@Emplace_re:

; 229  :     }
; 230  : 
; 231  : #if _HAS_CXX20 // TRANSITION, GH-1532
; 232  :     if (_STD is_constant_evaluated()) {
; 233  :         return _Traits::_Allocate(_Bytes);
; 234  :     }
; 235  : #endif // _HAS_CXX20
; 236  : 
; 237  : #ifdef __cpp_aligned_new
; 238  :     if constexpr (_Align > __STDCPP_DEFAULT_NEW_ALIGNMENT__) {
; 239  :         size_t _Passed_align = _Align;
; 240  : #if defined(_M_IX86) || defined(_M_X64)
; 241  :         if (_Bytes >= _Big_allocation_threshold) {
; 242  :             // boost the alignment of big allocations to help autovectorization
; 243  :             _Passed_align = (_STD max)(_Align, _Big_allocation_alignment);
; 244  :         }
; 245  : #endif // defined(_M_IX86) || defined(_M_X64)
; 246  :         return _Traits::_Allocate_aligned(_Bytes, _Passed_align);
; 247  :     } else
; 248  : #endif // defined(__cpp_aligned_new)
; 249  :     {
; 250  : #if defined(_M_IX86) || defined(_M_X64)
; 251  :         if (_Bytes >= _Big_allocation_threshold) {

  0007c	3d 00 10 00 00	 cmp	 eax, 4096		; 00001000H
  00081	72 08		 jb	 SHORT $LN24@Emplace_re

; 253  :             return _Allocate_manually_vector_aligned<_Traits>(_Bytes);

  00083	50		 push	 eax
  00084	e8 00 00 00 00	 call	 ??$_Allocate_manually_vector_aligned@U_Default_allocate_traits@std@@@std@@YAPAXI@Z ; std::_Allocate_manually_vector_aligned<std::_Default_allocate_traits>
  00089	eb 06		 jmp	 SHORT $LN117@Emplace_re
$LN24@Emplace_re:

; 136  :         return ::operator new(_Bytes);

  0008b	50		 push	 eax
  0008c	e8 00 00 00 00	 call	 ??2@YAPAXI@Z		; operator new
$LN117@Emplace_re:
; File C:\Program Files\Microsoft Visual Studio\2022\Professional\VC\Tools\MSVC\14.44.35207\include\vector

; 900  :         _Alty_traits::construct(_Al, _STD _Unfancy(_Newvec + _Whereoff), _STD forward<_Valty>(_Val)...);

  00091	8b f8		 mov	 edi, eax
  00093	83 c4 04	 add	 esp, 4
$LN22@Emplace_re:
; File C:\Program Files\Microsoft Visual Studio\2022\Professional\VC\Tools\MSVC\14.44.35207\include\xmemory

; 732  :         ::new (const_cast<void*>(static_cast<const volatile void*>(_Ptr))) _Objty(_STD forward<_Types>(_Args)...);

  00096	8b 45 0c	 mov	 eax, DWORD PTR _<_Val_0>$[ebp]
; File C:\Program Files\Microsoft Visual Studio\2022\Professional\VC\Tools\MSVC\14.44.35207\include\vector

; 900  :         _Alty_traits::construct(_Al, _STD _Unfancy(_Newvec + _Whereoff), _STD forward<_Valty>(_Val)...);

  00099	83 e3 f0	 and	 ebx, -16		; fffffff0H
  0009c	8d 0c 3b	 lea	 ecx, DWORD PTR [ebx+edi]

; 903  :         if (_Whereptr == _Mylast) { // at back, provide strong guarantee

  0009f	8b 5d 08	 mov	 ebx, DWORD PTR __Whereptr$[ebp]
  000a2	89 4d fc	 mov	 DWORD PTR tv710[ebp], ecx
; File C:\Program Files\Microsoft Visual Studio\2022\Professional\VC\Tools\MSVC\14.44.35207\include\xmemory

; 732  :         ::new (const_cast<void*>(static_cast<const volatile void*>(_Ptr))) _Objty(_STD forward<_Types>(_Args)...);

  000a5	0f 10 00	 movups	 xmm0, XMMWORD PTR [eax]
  000a8	0f 11 01	 movups	 XMMWORD PTR [ecx], xmm0
; File C:\Program Files\Microsoft Visual Studio\2022\Professional\VC\Tools\MSVC\14.44.35207\include\vector

; 903  :         if (_Whereptr == _Mylast) { // at back, provide strong guarantee

  000ab	8b 4e 04	 mov	 ecx, DWORD PTR [esi+4]
  000ae	8b 06		 mov	 eax, DWORD PTR [esi]
  000b0	3b d9		 cmp	 ebx, ecx
  000b2	75 07		 jne	 SHORT $LN3@Emplace_re

; 909  :         } else { // provide basic guarantee

  000b4	8b 5d fc	 mov	 ebx, DWORD PTR tv710[ebp]
; File C:\Program Files\Microsoft Visual Studio\2022\Professional\VC\Tools\MSVC\14.44.35207\include\xmemory

; 1992 :             _STD _Copy_memmove(_UFirst, _ULast, _STD _Unfancy(_Dest));

  000b7	8b d7		 mov	 edx, edi
; File C:\Program Files\Microsoft Visual Studio\2022\Professional\VC\Tools\MSVC\14.44.35207\include\vector

; 909  :         } else { // provide basic guarantee

  000b9	eb 16		 jmp	 SHORT $LN58@Emplace_re
$LN3@Emplace_re:
; File C:\Program Files\Microsoft Visual Studio\2022\Professional\VC\Tools\MSVC\14.44.35207\include\xmemory

; 1992 :             _STD _Copy_memmove(_UFirst, _ULast, _STD _Unfancy(_Dest));

  000bb	57		 push	 edi
  000bc	53		 push	 ebx
  000bd	50		 push	 eax
  000be	e8 00 00 00 00	 call	 ??$_Copy_memmove@PAU__COLOSSEUM_MONSTER@@PAU1@@std@@YAPAU__COLOSSEUM_MONSTER@@PAU1@00@Z ; std::_Copy_memmove<__COLOSSEUM_MONSTER *,__COLOSSEUM_MONSTER *>
  000c3	8b 4e 04	 mov	 ecx, DWORD PTR [esi+4]
  000c6	8b c3		 mov	 eax, ebx
; File C:\Program Files\Microsoft Visual Studio\2022\Professional\VC\Tools\MSVC\14.44.35207\include\vector

; 912  :             _STD _Uninitialized_move(_Whereptr, _Mylast, _Newvec + _Whereoff + 1, _Al);

  000c8	8b 5d fc	 mov	 ebx, DWORD PTR tv710[ebp]
; File C:\Program Files\Microsoft Visual Studio\2022\Professional\VC\Tools\MSVC\14.44.35207\include\xmemory

; 1992 :             _STD _Copy_memmove(_UFirst, _ULast, _STD _Unfancy(_Dest));

  000cb	83 c4 0c	 add	 esp, 12			; 0000000cH
; File C:\Program Files\Microsoft Visual Studio\2022\Professional\VC\Tools\MSVC\14.44.35207\include\vector

; 912  :             _STD _Uninitialized_move(_Whereptr, _Mylast, _Newvec + _Whereoff + 1, _Al);

  000ce	8d 53 10	 lea	 edx, DWORD PTR [ebx+16]
$LN58@Emplace_re:

; 913  :         }
; 914  : 
; 915  :         _Guard._New_begin = nullptr;

  000d1	52		 push	 edx
  000d2	51		 push	 ecx
  000d3	50		 push	 eax
  000d4	e8 00 00 00 00	 call	 ??$_Copy_memmove@PAU__COLOSSEUM_MONSTER@@PAU1@@std@@YAPAU__COLOSSEUM_MONSTER@@PAU1@00@Z ; std::_Copy_memmove<__COLOSSEUM_MONSTER *,__COLOSSEUM_MONSTER *>

; 2069 :         if (_Myfirst) { // destroy and deallocate old array

  000d9	8b 06		 mov	 eax, DWORD PTR [esi]

; 913  :         }
; 914  : 
; 915  :         _Guard._New_begin = nullptr;

  000db	83 c4 0c	 add	 esp, 12			; 0000000cH

; 2069 :         if (_Myfirst) { // destroy and deallocate old array

  000de	85 c0		 test	 eax, eax
  000e0	74 2c		 je	 SHORT $LN80@Emplace_re

; 2070 :             _STD _Destroy_range(_Myfirst, _Mylast, _Al);
; 2071 :             _ASAN_VECTOR_REMOVE;
; 2072 :             _Al.deallocate(_Myfirst, static_cast<size_type>(_Myend - _Myfirst));

  000e2	8b 4e 08	 mov	 ecx, DWORD PTR [esi+8]
  000e5	2b c8		 sub	 ecx, eax
; File C:\Program Files\Microsoft Visual Studio\2022\Professional\VC\Tools\MSVC\14.44.35207\include\xmemory

; 985  :         _STD _Deallocate<_New_alignof<_Ty>>(_Ptr, sizeof(_Ty) * _Count);

  000e7	83 e1 f0	 and	 ecx, -16		; fffffff0H

; 284  :         if (_Bytes >= _Big_allocation_threshold) {

  000ea	81 f9 00 10 00
	00		 cmp	 ecx, 4096		; 00001000H
  000f0	72 12		 jb	 SHORT $LN85@Emplace_re

; 205  :     const uintptr_t _Ptr_container   = _Ptr_user[-1];

  000f2	8b 50 fc	 mov	 edx, DWORD PTR [eax-4]
  000f5	83 c1 23	 add	 ecx, 35			; 00000023H

; 206  : 
; 207  :     // If the following asserts, it likely means that we are performing
; 208  :     // an aligned delete on memory coming from an unaligned allocation.
; 209  :     _STL_ASSERT(_Ptr_user[-2] == _Big_allocation_sentinel, "invalid argument");
; 210  : 
; 211  :     // Extra paranoia on aligned allocation/deallocation; ensure _Ptr_container is
; 212  :     // in range [_Min_back_shift, _Non_user_size]
; 213  : #ifdef _DEBUG
; 214  :     constexpr uintptr_t _Min_back_shift = 2 * sizeof(void*);
; 215  : #else // ^^^ defined(_DEBUG) / !defined(_DEBUG) vvv
; 216  :     constexpr uintptr_t _Min_back_shift = sizeof(void*);
; 217  : #endif // ^^^ !defined(_DEBUG) ^^^
; 218  :     const uintptr_t _Back_shift = reinterpret_cast<uintptr_t>(_Ptr) - _Ptr_container;

  000f8	2b c2		 sub	 eax, edx

; 219  :     _STL_VERIFY(_Back_shift >= _Min_back_shift && _Back_shift <= _Non_user_size, "invalid argument");

  000fa	83 c0 fc	 add	 eax, -4			; fffffffcH
  000fd	83 f8 1f	 cmp	 eax, 31			; 0000001fH
  00100	77 2c		 ja	 SHORT $LN84@Emplace_re

; 220  :     _Ptr = reinterpret_cast<void*>(_Ptr_container);

  00102	8b c2		 mov	 eax, edx
$LN85@Emplace_re:

; 289  :         ::operator delete(_Ptr, _Bytes);

  00104	51		 push	 ecx
  00105	50		 push	 eax
  00106	e8 00 00 00 00	 call	 ??3@YAXPAXI@Z		; operator delete
  0010b	83 c4 08	 add	 esp, 8
$LN80@Emplace_re:
; File C:\Program Files\Microsoft Visual Studio\2022\Professional\VC\Tools\MSVC\14.44.35207\include\vector

; 2076 :         _Mylast  = _Newvec + _Newsize;

  0010e	8b 45 f4	 mov	 eax, DWORD PTR __Newsize$1$[ebp]

; 2077 :         _Myend   = _Newvec + _Newcapacity;

  00111	8b 4d f8	 mov	 ecx, DWORD PTR $T1[ebp]
  00114	c1 e0 04	 shl	 eax, 4
  00117	03 c7		 add	 eax, edi
  00119	89 3e		 mov	 DWORD PTR [esi], edi
  0011b	89 46 04	 mov	 DWORD PTR [esi+4], eax
  0011e	03 cf		 add	 ecx, edi

; 918  :     }

  00120	5f		 pop	 edi

; 2077 :         _Myend   = _Newvec + _Newcapacity;

  00121	89 4e 08	 mov	 DWORD PTR [esi+8], ecx

; 916  :         _Change_array(_Newvec, _Newsize, _Newcapacity);
; 917  :         return _Newvec + _Whereoff;

  00124	8b c3		 mov	 eax, ebx

; 918  :     }

  00126	5e		 pop	 esi
  00127	5b		 pop	 ebx
  00128	8b e5		 mov	 esp, ebp
  0012a	5d		 pop	 ebp
  0012b	c2 08 00	 ret	 8
$LN84@Emplace_re:
; File C:\Program Files\Microsoft Visual Studio\2022\Professional\VC\Tools\MSVC\14.44.35207\include\xmemory

; 219  :     _STL_VERIFY(_Back_shift >= _Min_back_shift && _Back_shift <= _Non_user_size, "invalid argument");

  0012e	6a 00		 push	 0
  00130	6a 00		 push	 0
  00132	6a 00		 push	 0
  00134	6a 00		 push	 0
  00136	6a 00		 push	 0
  00138	e8 00 00 00 00	 call	 __invoke_watson
$LN119@Emplace_re:
; File C:\Program Files\Microsoft Visual Studio\2022\Professional\VC\Tools\MSVC\14.44.35207\include\vector

; 888  :             _Xlength();

  0013d	e8 00 00 00 00	 call	 ?_Xlength@?$vector@U__COLOSSEUM_MONSTER@@V?$allocator@U__COLOSSEUM_MONSTER@@@std@@@std@@CAXXZ ; std::vector<__COLOSSEUM_MONSTER,std::allocator<__COLOSSEUM_MONSTER> >::_Xlength
$LN120@Emplace_re:
; File C:\Program Files\Microsoft Visual Studio\2022\Professional\VC\Tools\MSVC\14.44.35207\include\xmemory

; 118  :             _Throw_bad_array_new_length(); // multiply overflow

  00142	e8 00 00 00 00	 call	 ?_Throw_bad_array_new_length@std@@YAXXZ ; std::_Throw_bad_array_new_length
$LN116@Emplace_re:
  00147	cc		 int	 3
??$_Emplace_reallocate@ABU__COLOSSEUM_MONSTER@@@?$vector@U__COLOSSEUM_MONSTER@@V?$allocator@U__COLOSSEUM_MONSTER@@@std@@@std@@AAEPAU__COLOSSEUM_MONSTER@@QAU2@ABU2@@Z ENDP ; std::vector<__COLOSSEUM_MONSTER,std::allocator<__COLOSSEUM_MONSTER> >::_Emplace_reallocate<__COLOSSEUM_MONSTER const &>
_TEXT	ENDS
; Function compile flags: /Ogtp
; File C:\Program Files\Microsoft Visual Studio\2022\Professional\VC\Tools\MSVC\14.44.35207\include\xtree
;	COMDAT ??E?$_Tree_unchecked_const_iterator@V?$_Tree_val@U?$_Tree_simple_types@U?$pair@$$CBKPAVCColosseumMatch@@@std@@@std@@@std@@U_Iterator_base0@2@@std@@QAEAAV01@XZ
_TEXT	SEGMENT
??E?$_Tree_unchecked_const_iterator@V?$_Tree_val@U?$_Tree_simple_types@U?$pair@$$CBKPAVCColosseumMatch@@@std@@@std@@@std@@U_Iterator_base0@2@@std@@QAEAAV01@XZ PROC ; std::_Tree_unchecked_const_iterator<std::_Tree_val<std::_Tree_simple_types<std::pair<unsigned long const ,CColosseumMatch *> > >,std::_Iterator_base0>::operator++, COMDAT
; _this$ = ecx

; 49   :     _Tree_unchecked_const_iterator& operator++() noexcept {

  00000	56		 push	 esi
  00001	8b f1		 mov	 esi, ecx
  00003	57		 push	 edi

; 50   :         if (_Ptr->_Right->_Isnil) { // climb looking for right subtree

  00004	8b 16		 mov	 edx, DWORD PTR [esi]
  00006	8b 7a 08	 mov	 edi, DWORD PTR [edx+8]
  00009	80 7f 0d 00	 cmp	 BYTE PTR [edi+13], 0
  0000d	74 22		 je	 SHORT $LN4@operator

; 51   :             _Nodeptr _Pnode;
; 52   :             while (!(_Pnode = _Ptr->_Parent)->_Isnil && _Ptr == _Pnode->_Right) {

  0000f	8b 42 04	 mov	 eax, DWORD PTR [edx+4]
  00012	80 78 0d 00	 cmp	 BYTE PTR [eax+13], 0
  00016	75 12		 jne	 SHORT $LN21@operator
$LL2@operator:
  00018	3b 50 08	 cmp	 edx, DWORD PTR [eax+8]
  0001b	75 0d		 jne	 SHORT $LN21@operator

; 53   :                 _Ptr = _Pnode; // ==> parent while right subtree

  0001d	89 06		 mov	 DWORD PTR [esi], eax
  0001f	8b d0		 mov	 edx, eax
  00021	8b 40 04	 mov	 eax, DWORD PTR [eax+4]
  00024	80 78 0d 00	 cmp	 BYTE PTR [eax+13], 0
  00028	74 ee		 je	 SHORT $LL2@operator
$LN21@operator:

; 54   :             }
; 55   : 
; 56   :             _Ptr = _Pnode; // ==> parent (head if end())
; 57   :         } else {
; 58   :             _Ptr = _Mytree::_Min(_Ptr->_Right); // ==> smallest of right subtree
; 59   :         }
; 60   : 
; 61   :         return *this;

  0002a	89 06		 mov	 DWORD PTR [esi], eax

; 62   :     }

  0002c	8b c6		 mov	 eax, esi
  0002e	5f		 pop	 edi
  0002f	5e		 pop	 esi
  00030	c3		 ret	 0
$LN4@operator:

; 476  :         while (!_Pnode->_Left->_Isnil) {

  00031	8b 0f		 mov	 ecx, DWORD PTR [edi]
  00033	80 79 0d 00	 cmp	 BYTE PTR [ecx+13], 0
  00037	75 13		 jne	 SHORT $LN10@operator
  00039	0f 1f 80 00 00
	00 00		 npad	 7
$LL9@operator:
  00040	8b 01		 mov	 eax, DWORD PTR [ecx]

; 477  :             _Pnode = _Pnode->_Left;

  00042	8b f9		 mov	 edi, ecx
  00044	8b c8		 mov	 ecx, eax
  00046	80 78 0d 00	 cmp	 BYTE PTR [eax+13], 0
  0004a	74 f4		 je	 SHORT $LL9@operator
$LN10@operator:

; 54   :             }
; 55   : 
; 56   :             _Ptr = _Pnode; // ==> parent (head if end())
; 57   :         } else {
; 58   :             _Ptr = _Mytree::_Min(_Ptr->_Right); // ==> smallest of right subtree
; 59   :         }
; 60   : 
; 61   :         return *this;

  0004c	89 3e		 mov	 DWORD PTR [esi], edi

; 62   :     }

  0004e	8b c6		 mov	 eax, esi
  00050	5f		 pop	 edi
  00051	5e		 pop	 esi
  00052	c3		 ret	 0
??E?$_Tree_unchecked_const_iterator@V?$_Tree_val@U?$_Tree_simple_types@U?$pair@$$CBKPAVCColosseumMatch@@@std@@@std@@@std@@U_Iterator_base0@2@@std@@QAEAAV01@XZ ENDP ; std::_Tree_unchecked_const_iterator<std::_Tree_val<std::_Tree_simple_types<std::pair<unsigned long const ,CColosseumMatch *> > >,std::_Iterator_base0>::operator++
_TEXT	ENDS
; Function compile flags: /Ogtp
;	COMDAT ??__FsColosseum@?1??GetInstance@CColosseumMng@@SAPAV1@XZ@YAXXZ
text$yd	SEGMENT
??__FsColosseum@?1??GetInstance@CColosseumMng@@SAPAV1@XZ@YAXXZ PROC ; `CColosseumMng::GetInstance'::`2'::`dynamic atexit destructor for 'sColosseum'', COMDAT
  00000	b9 00 00 00 00	 mov	 ecx, OFFSET ?sColosseum@?1??GetInstance@CColosseumMng@@SAPAV2@XZ@4V2@A
  00005	e9 00 00 00 00	 jmp	 ??1CColosseumMng@@UAE@XZ ; CColosseumMng::~CColosseumMng
??__FsColosseum@?1??GetInstance@CColosseumMng@@SAPAV1@XZ@YAXXZ ENDP ; `CColosseumMng::GetInstance'::`2'::`dynamic atexit destructor for 'sColosseum''
text$yd	ENDS
; Function compile flags: /Ogtp
;	COMDAT ??_GCColosseumMng@@UAEPAXI@Z
_TEXT	SEGMENT
___flags$ = 8						; size = 4
??_GCColosseumMng@@UAEPAXI@Z PROC			; CColosseumMng::`scalar deleting destructor', COMDAT
; _this$ = ecx
  00000	55		 push	 ebp
  00001	8b ec		 mov	 ebp, esp
  00003	56		 push	 esi
  00004	8b f1		 mov	 esi, ecx
  00006	e8 00 00 00 00	 call	 ??1CColosseumMng@@UAE@XZ ; CColosseumMng::~CColosseumMng
  0000b	f6 45 08 01	 test	 BYTE PTR ___flags$[ebp], 1
  0000f	74 0b		 je	 SHORT $LN5@scalar
  00011	6a 2c		 push	 44			; 0000002cH
  00013	56		 push	 esi
  00014	e8 00 00 00 00	 call	 ??3@YAXPAXI@Z		; operator delete
  00019	83 c4 08	 add	 esp, 8
$LN5@scalar:
  0001c	8b c6		 mov	 eax, esi
  0001e	5e		 pop	 esi
  0001f	5d		 pop	 ebp
  00020	c2 04 00	 ret	 4
??_GCColosseumMng@@UAEPAXI@Z ENDP			; CColosseumMng::`scalar deleting destructor'
_TEXT	ENDS
; Function compile flags: /Ogtp
; File C:\Program Files\Microsoft Visual Studio\2022\Professional\VC\Tools\MSVC\14.44.35207\include\vector
;	COMDAT ?_Xrange@?$vector@U__COLOSSEUM_MONSTER@@V?$allocator@U__COLOSSEUM_MONSTER@@@std@@@std@@CAXXZ
_TEXT	SEGMENT
?_Xrange@?$vector@U__COLOSSEUM_MONSTER@@V?$allocator@U__COLOSSEUM_MONSTER@@@std@@@std@@CAXXZ PROC ; std::vector<__COLOSSEUM_MONSTER,std::allocator<__COLOSSEUM_MONSTER> >::_Xrange, COMDAT

; 2188 :         _Xout_of_range("invalid vector subscript");

  00000	68 00 00 00 00	 push	 OFFSET ??_C@_0BJ@DHFDPMIM@invalid?5vector?5subscript@
  00005	e8 00 00 00 00	 call	 ?_Xout_of_range@std@@YAXPBD@Z ; std::_Xout_of_range
$LN3@Xrange:
  0000a	cc		 int	 3
?_Xrange@?$vector@U__COLOSSEUM_MONSTER@@V?$allocator@U__COLOSSEUM_MONSTER@@@std@@@std@@CAXXZ ENDP ; std::vector<__COLOSSEUM_MONSTER,std::allocator<__COLOSSEUM_MONSTER> >::_Xrange
_TEXT	ENDS
; Function compile flags: /Ogtp
; File C:\Program Files\Microsoft Visual Studio\2022\Professional\VC\Tools\MSVC\14.44.35207\include\vector
;	COMDAT ?_Xlength@?$vector@U__COLOSSEUM_MONSTER@@V?$allocator@U__COLOSSEUM_MONSTER@@@std@@@std@@CAXXZ
_TEXT	SEGMENT
?_Xlength@?$vector@U__COLOSSEUM_MONSTER@@V?$allocator@U__COLOSSEUM_MONSTER@@@std@@@std@@CAXXZ PROC ; std::vector<__COLOSSEUM_MONSTER,std::allocator<__COLOSSEUM_MONSTER> >::_Xlength, COMDAT

; 2184 :         _Xlength_error("vector too long");

  00000	68 00 00 00 00	 push	 OFFSET ??_C@_0BA@FOIKENOD@vector?5too?5long@
  00005	e8 00 00 00 00	 call	 ?_Xlength_error@std@@YAXPBD@Z ; std::_Xlength_error
$LN3@Xlength:
  0000a	cc		 int	 3
?_Xlength@?$vector@U__COLOSSEUM_MONSTER@@V?$allocator@U__COLOSSEUM_MONSTER@@@std@@@std@@CAXXZ ENDP ; std::vector<__COLOSSEUM_MONSTER,std::allocator<__COLOSSEUM_MONSTER> >::_Xlength
_TEXT	ENDS
; Function compile flags: /Ogtp
; File C:\Program Files\Microsoft Visual Studio\2022\Professional\VC\Tools\MSVC\14.44.35207\include\vector
; File C:\Program Files\Microsoft Visual Studio\2022\Professional\VC\Tools\MSVC\14.44.35207\include\xmemory
; File C:\Program Files\Microsoft Visual Studio\2022\Professional\VC\Tools\MSVC\14.44.35207\include\vector
; File C:\Program Files\Microsoft Visual Studio\2022\Professional\VC\Tools\MSVC\14.44.35207\include\xmemory
; File C:\Program Files\Microsoft Visual Studio\2022\Professional\VC\Tools\MSVC\14.44.35207\include\vector
; File C:\Program Files\Microsoft Visual Studio\2022\Professional\VC\Tools\MSVC\14.44.35207\include\xmemory
; File C:\Program Files\Microsoft Visual Studio\2022\Professional\VC\Tools\MSVC\14.44.35207\include\vector
;	COMDAT ?_Tidy@?$vector@U__COLOSSEUM_MONSTER@@V?$allocator@U__COLOSSEUM_MONSTER@@@std@@@std@@AAEXXZ
_TEXT	SEGMENT
?_Tidy@?$vector@U__COLOSSEUM_MONSTER@@V?$allocator@U__COLOSSEUM_MONSTER@@@std@@@std@@AAEXXZ PROC ; std::vector<__COLOSSEUM_MONSTER,std::allocator<__COLOSSEUM_MONSTER> >::_Tidy, COMDAT
; _this$ = ecx

; 2081 :     _CONSTEXPR20 void _Tidy() noexcept { // free all storage

  00000	56		 push	 esi
  00001	8b f1		 mov	 esi, ecx

; 2082 :         auto& _Al         = _Getal();
; 2083 :         auto& _My_data    = _Mypair._Myval2;
; 2084 :         pointer& _Myfirst = _My_data._Myfirst;
; 2085 :         pointer& _Mylast  = _My_data._Mylast;
; 2086 :         pointer& _Myend   = _My_data._Myend;
; 2087 : 
; 2088 :         _My_data._Orphan_all();
; 2089 : 
; 2090 :         if (_Myfirst) { // destroy and deallocate old array

  00003	8b 06		 mov	 eax, DWORD PTR [esi]
  00005	85 c0		 test	 eax, eax
  00007	74 40		 je	 SHORT $LN2@Tidy

; 2091 :             _STD _Destroy_range(_Myfirst, _Mylast, _Al);
; 2092 :             _ASAN_VECTOR_REMOVE;
; 2093 :             _Al.deallocate(_Myfirst, static_cast<size_type>(_Myend - _Myfirst));

  00009	8b 4e 08	 mov	 ecx, DWORD PTR [esi+8]
  0000c	2b c8		 sub	 ecx, eax
; File C:\Program Files\Microsoft Visual Studio\2022\Professional\VC\Tools\MSVC\14.44.35207\include\xmemory

; 985  :         _STD _Deallocate<_New_alignof<_Ty>>(_Ptr, sizeof(_Ty) * _Count);

  0000e	83 e1 f0	 and	 ecx, -16		; fffffff0H

; 284  :         if (_Bytes >= _Big_allocation_threshold) {

  00011	81 f9 00 10 00
	00		 cmp	 ecx, 4096		; 00001000H
  00017	72 12		 jb	 SHORT $LN15@Tidy

; 205  :     const uintptr_t _Ptr_container   = _Ptr_user[-1];

  00019	8b 50 fc	 mov	 edx, DWORD PTR [eax-4]
  0001c	83 c1 23	 add	 ecx, 35			; 00000023H

; 206  : 
; 207  :     // If the following asserts, it likely means that we are performing
; 208  :     // an aligned delete on memory coming from an unaligned allocation.
; 209  :     _STL_ASSERT(_Ptr_user[-2] == _Big_allocation_sentinel, "invalid argument");
; 210  : 
; 211  :     // Extra paranoia on aligned allocation/deallocation; ensure _Ptr_container is
; 212  :     // in range [_Min_back_shift, _Non_user_size]
; 213  : #ifdef _DEBUG
; 214  :     constexpr uintptr_t _Min_back_shift = 2 * sizeof(void*);
; 215  : #else // ^^^ defined(_DEBUG) / !defined(_DEBUG) vvv
; 216  :     constexpr uintptr_t _Min_back_shift = sizeof(void*);
; 217  : #endif // ^^^ !defined(_DEBUG) ^^^
; 218  :     const uintptr_t _Back_shift = reinterpret_cast<uintptr_t>(_Ptr) - _Ptr_container;

  0001f	2b c2		 sub	 eax, edx

; 219  :     _STL_VERIFY(_Back_shift >= _Min_back_shift && _Back_shift <= _Non_user_size, "invalid argument");

  00021	83 c0 fc	 add	 eax, -4			; fffffffcH
  00024	83 f8 1f	 cmp	 eax, 31			; 0000001fH
  00027	77 22		 ja	 SHORT $LN14@Tidy

; 220  :     _Ptr = reinterpret_cast<void*>(_Ptr_container);

  00029	8b c2		 mov	 eax, edx
$LN15@Tidy:

; 289  :         ::operator delete(_Ptr, _Bytes);

  0002b	51		 push	 ecx
  0002c	50		 push	 eax
  0002d	e8 00 00 00 00	 call	 ??3@YAXPAXI@Z		; operator delete
; File C:\Program Files\Microsoft Visual Studio\2022\Professional\VC\Tools\MSVC\14.44.35207\include\vector

; 2095 :             _Myfirst = nullptr;

  00032	c7 06 00 00 00
	00		 mov	 DWORD PTR [esi], 0
; File C:\Program Files\Microsoft Visual Studio\2022\Professional\VC\Tools\MSVC\14.44.35207\include\xmemory

; 289  :         ::operator delete(_Ptr, _Bytes);

  00038	83 c4 08	 add	 esp, 8
; File C:\Program Files\Microsoft Visual Studio\2022\Professional\VC\Tools\MSVC\14.44.35207\include\vector

; 2096 :             _Mylast  = nullptr;

  0003b	c7 46 04 00 00
	00 00		 mov	 DWORD PTR [esi+4], 0

; 2097 :             _Myend   = nullptr;

  00042	c7 46 08 00 00
	00 00		 mov	 DWORD PTR [esi+8], 0
$LN2@Tidy:

; 2099 :     }

  00049	5e		 pop	 esi
  0004a	c3		 ret	 0
$LN14@Tidy:
; File C:\Program Files\Microsoft Visual Studio\2022\Professional\VC\Tools\MSVC\14.44.35207\include\xmemory

; 219  :     _STL_VERIFY(_Back_shift >= _Min_back_shift && _Back_shift <= _Non_user_size, "invalid argument");

  0004b	6a 00		 push	 0
  0004d	6a 00		 push	 0
  0004f	6a 00		 push	 0
  00051	6a 00		 push	 0
  00053	6a 00		 push	 0
  00055	e8 00 00 00 00	 call	 __invoke_watson
$LN22@Tidy:
  0005a	cc		 int	 3
?_Tidy@?$vector@U__COLOSSEUM_MONSTER@@V?$allocator@U__COLOSSEUM_MONSTER@@@std@@@std@@AAEXXZ ENDP ; std::vector<__COLOSSEUM_MONSTER,std::allocator<__COLOSSEUM_MONSTER> >::_Tidy
_TEXT	ENDS
; Function compile flags: /Ogtp
; File C:\Program Files\Microsoft Visual Studio\2022\Professional\VC\Tools\MSVC\14.44.35207\include\vector
;	COMDAT ??1?$vector@U__COLOSSEUM_MONSTER@@V?$allocator@U__COLOSSEUM_MONSTER@@@std@@@std@@QAE@XZ
_TEXT	SEGMENT
??1?$vector@U__COLOSSEUM_MONSTER@@V?$allocator@U__COLOSSEUM_MONSTER@@@std@@@std@@QAE@XZ PROC ; std::vector<__COLOSSEUM_MONSTER,std::allocator<__COLOSSEUM_MONSTER> >::~vector<__COLOSSEUM_MONSTER,std::allocator<__COLOSSEUM_MONSTER> >, COMDAT
; _this$ = ecx

; 830  :         _Tidy();

  00000	e9 00 00 00 00	 jmp	 ?_Tidy@?$vector@U__COLOSSEUM_MONSTER@@V?$allocator@U__COLOSSEUM_MONSTER@@@std@@@std@@AAEXXZ ; std::vector<__COLOSSEUM_MONSTER,std::allocator<__COLOSSEUM_MONSTER> >::_Tidy
??1?$vector@U__COLOSSEUM_MONSTER@@V?$allocator@U__COLOSSEUM_MONSTER@@@std@@@std@@QAE@XZ ENDP ; std::vector<__COLOSSEUM_MONSTER,std::allocator<__COLOSSEUM_MONSTER> >::~vector<__COLOSSEUM_MONSTER,std::allocator<__COLOSSEUM_MONSTER> >
_TEXT	ENDS
; Function compile flags: /Ogtp
; File C:\Program Files\Microsoft Visual Studio\2022\Professional\VC\Tools\MSVC\14.44.35207\include\xtree
;	COMDAT ?_Insert_node@?$_Tree_val@U?$_Tree_simple_types@U?$pair@$$CBKPAVCColosseumMatch@@@std@@@std@@@std@@QAEPAU?$_Tree_node@U?$pair@$$CBKPAVCColosseumMatch@@@std@@PAX@2@U?$_Tree_id@PAU?$_Tree_node@U?$pair@$$CBKPAVCColosseumMatch@@@std@@PAX@std@@@2@QAU32@@Z
_TEXT	SEGMENT
__Head$1$ = -4						; size = 4
__Loc$ = 8						; size = 8
__Newnode$ = 16						; size = 4
?_Insert_node@?$_Tree_val@U?$_Tree_simple_types@U?$pair@$$CBKPAVCColosseumMatch@@@std@@@std@@@std@@QAEPAU?$_Tree_node@U?$pair@$$CBKPAVCColosseumMatch@@@std@@PAX@2@U?$_Tree_id@PAU?$_Tree_node@U?$pair@$$CBKPAVCColosseumMatch@@@std@@PAX@std@@@2@QAU32@@Z PROC ; std::_Tree_val<std::_Tree_simple_types<std::pair<unsigned long const ,CColosseumMatch *> > >::_Insert_node, COMDAT
; _this$ = ecx

; 669  :     _Nodeptr _Insert_node(const _Tree_id<_Nodeptr> _Loc, const _Nodeptr _Newnode) noexcept {

  00000	55		 push	 ebp
  00001	8b ec		 mov	 ebp, esp
  00003	51		 push	 ecx

; 670  :         ++_Mysize;
; 671  :         const auto _Head  = _Myhead;
; 672  :         _Newnode->_Parent = _Loc._Parent;

  00004	8b 55 08	 mov	 edx, DWORD PTR __Loc$[ebp]
  00007	53		 push	 ebx
  00008	8b d9		 mov	 ebx, ecx
  0000a	57		 push	 edi
  0000b	8b 7d 10	 mov	 edi, DWORD PTR __Newnode$[ebp]
  0000e	8b 03		 mov	 eax, DWORD PTR [ebx]
  00010	ff 43 04	 inc	 DWORD PTR [ebx+4]
  00013	89 45 fc	 mov	 DWORD PTR __Head$1$[ebp], eax
  00016	89 57 04	 mov	 DWORD PTR [edi+4], edx

; 673  :         if (_Loc._Parent == _Head) { // first node in tree, just set head values

  00019	3b d0		 cmp	 edx, eax
  0001b	75 16		 jne	 SHORT $LN5@Insert_nod

; 674  :             _Head->_Left     = _Newnode;

  0001d	89 38		 mov	 DWORD PTR [eax], edi

; 675  :             _Head->_Parent   = _Newnode;

  0001f	89 78 04	 mov	 DWORD PTR [eax+4], edi

; 676  :             _Head->_Right    = _Newnode;

  00022	89 78 08	 mov	 DWORD PTR [eax+8], edi

; 735  :         return _Newnode;
; 736  :     }

  00025	8b c7		 mov	 eax, edi
  00027	c6 47 0c 01	 mov	 BYTE PTR [edi+12], 1
  0002b	5f		 pop	 edi
  0002c	5b		 pop	 ebx
  0002d	8b e5		 mov	 esp, ebp
  0002f	5d		 pop	 ebp
  00030	c2 0c 00	 ret	 12			; 0000000cH
$LN5@Insert_nod:

; 677  :             _Newnode->_Color = _Black; // the root is black
; 678  :             return _Newnode;
; 679  :         }
; 680  : 
; 681  :         _STL_INTERNAL_CHECK(_Loc._Child != _Tree_child::_Unused);
; 682  :         if (_Loc._Child == _Tree_child::_Right) { // add to right of _Loc._Parent

  00033	83 7d 0c 00	 cmp	 DWORD PTR __Loc$[ebp+4], 0
  00037	75 0d		 jne	 SHORT $LN6@Insert_nod

; 683  :             _STL_INTERNAL_CHECK(_Loc._Parent->_Right->_Isnil);
; 684  :             _Loc._Parent->_Right = _Newnode;

  00039	89 7a 08	 mov	 DWORD PTR [edx+8], edi

; 685  :             if (_Loc._Parent == _Head->_Right) { // remember rightmost node

  0003c	3b 50 08	 cmp	 edx, DWORD PTR [eax+8]
  0003f	75 0d		 jne	 SHORT $LN9@Insert_nod

; 686  :                 _Head->_Right = _Newnode;

  00041	89 78 08	 mov	 DWORD PTR [eax+8], edi

; 687  :             }
; 688  :         } else { // add to left of _Loc._Parent

  00044	eb 08		 jmp	 SHORT $LN9@Insert_nod
$LN6@Insert_nod:

; 689  :             _STL_INTERNAL_CHECK(_Loc._Parent->_Left->_Isnil);
; 690  :             _Loc._Parent->_Left = _Newnode;

  00046	89 3a		 mov	 DWORD PTR [edx], edi

; 691  :             if (_Loc._Parent == _Head->_Left) { // remember leftmost node

  00048	3b 10		 cmp	 edx, DWORD PTR [eax]
  0004a	75 02		 jne	 SHORT $LN9@Insert_nod

; 692  :                 _Head->_Left = _Newnode;

  0004c	89 38		 mov	 DWORD PTR [eax], edi
$LN9@Insert_nod:

; 693  :             }
; 694  :         }
; 695  : 
; 696  :         for (_Nodeptr _Pnode = _Newnode; _Pnode->_Parent->_Color == _Red;) {

  0004e	8b 4f 04	 mov	 ecx, DWORD PTR [edi+4]
  00051	8b c7		 mov	 eax, edi
  00053	80 79 0c 00	 cmp	 BYTE PTR [ecx+12], 0
  00057	0f 85 7d 01 00
	00		 jne	 $LN3@Insert_nod
  0005d	56		 push	 esi
  0005e	66 90		 npad	 2
$LL4@Insert_nod:

; 697  :             if (_Pnode->_Parent == _Pnode->_Parent->_Parent->_Left) { // fixup red-red in left subtree

  00060	8b 50 04	 mov	 edx, DWORD PTR [eax+4]
  00063	8b 72 04	 mov	 esi, DWORD PTR [edx+4]
  00066	8b 0e		 mov	 ecx, DWORD PTR [esi]
  00068	3b d1		 cmp	 edx, ecx
  0006a	0f 85 aa 00 00
	00		 jne	 $LN10@Insert_nod

; 698  :                 const auto _Parent_sibling = _Pnode->_Parent->_Parent->_Right;

  00070	8b 4e 08	 mov	 ecx, DWORD PTR [esi+8]

; 699  :                 if (_Parent_sibling->_Color == _Red) { // parent's sibling has two red children, blacken both

  00073	80 79 0c 00	 cmp	 BYTE PTR [ecx+12], 0
  00077	0f 84 a3 00 00
	00		 je	 $LN82@Insert_nod

; 700  :                     _Pnode->_Parent->_Color          = _Black;
; 701  :                     _Parent_sibling->_Color          = _Black;
; 702  :                     _Pnode->_Parent->_Parent->_Color = _Red;
; 703  :                     _Pnode                           = _Pnode->_Parent->_Parent;
; 704  :                 } else { // parent's sibling has red and black children
; 705  :                     if (_Pnode == _Pnode->_Parent->_Right) { // rotate right child to left

  0007d	8b 72 08	 mov	 esi, DWORD PTR [edx+8]
  00080	3b c6		 cmp	 eax, esi
  00082	75 37		 jne	 SHORT $LN57@Insert_nod

; 485  :         _Wherenode->_Right = _Pnode->_Left;

  00084	8b 0e		 mov	 ecx, DWORD PTR [esi]

; 706  :                         _Pnode = _Pnode->_Parent;

  00086	8b c2		 mov	 eax, edx

; 485  :         _Wherenode->_Right = _Pnode->_Left;

  00088	89 4a 08	 mov	 DWORD PTR [edx+8], ecx

; 486  : 
; 487  :         if (!_Pnode->_Left->_Isnil) {

  0008b	8b 0e		 mov	 ecx, DWORD PTR [esi]
  0008d	80 79 0d 00	 cmp	 BYTE PTR [ecx+13], 0
  00091	75 03		 jne	 SHORT $LN21@Insert_nod

; 488  :             _Pnode->_Left->_Parent = _Wherenode;

  00093	89 41 04	 mov	 DWORD PTR [ecx+4], eax
$LN21@Insert_nod:

; 489  :         }
; 490  : 
; 491  :         _Pnode->_Parent = _Wherenode->_Parent;

  00096	8b 4a 04	 mov	 ecx, DWORD PTR [edx+4]
  00099	89 4e 04	 mov	 DWORD PTR [esi+4], ecx

; 492  : 
; 493  :         if (_Wherenode == _Myhead->_Parent) {

  0009c	8b 0b		 mov	 ecx, DWORD PTR [ebx]
  0009e	3b 41 04	 cmp	 eax, DWORD PTR [ecx+4]
  000a1	75 05		 jne	 SHORT $LN22@Insert_nod

; 494  :             _Myhead->_Parent = _Pnode;

  000a3	89 71 04	 mov	 DWORD PTR [ecx+4], esi
  000a6	eb 0e		 jmp	 SHORT $LN25@Insert_nod
$LN22@Insert_nod:

; 495  :         } else if (_Wherenode == _Wherenode->_Parent->_Left) {

  000a8	8b 4a 04	 mov	 ecx, DWORD PTR [edx+4]
  000ab	3b 01		 cmp	 eax, DWORD PTR [ecx]
  000ad	75 04		 jne	 SHORT $LN24@Insert_nod

; 496  :             _Wherenode->_Parent->_Left = _Pnode;

  000af	89 31		 mov	 DWORD PTR [ecx], esi

; 497  :         } else {

  000b1	eb 03		 jmp	 SHORT $LN25@Insert_nod
$LN24@Insert_nod:

; 498  :             _Wherenode->_Parent->_Right = _Pnode;

  000b3	89 71 08	 mov	 DWORD PTR [ecx+8], esi
$LN25@Insert_nod:

; 499  :         }
; 500  : 
; 501  :         _Pnode->_Left       = _Wherenode;

  000b6	89 06		 mov	 DWORD PTR [esi], eax

; 502  :         _Wherenode->_Parent = _Pnode;

  000b8	89 70 04	 mov	 DWORD PTR [eax+4], esi
$LN57@Insert_nod:

; 707  :                         _Lrotate(_Pnode);
; 708  :                     }
; 709  : 
; 710  :                     _Pnode->_Parent->_Color          = _Black; // propagate red up

  000bb	8b 48 04	 mov	 ecx, DWORD PTR [eax+4]
  000be	c6 41 0c 01	 mov	 BYTE PTR [ecx+12], 1

; 711  :                     _Pnode->_Parent->_Parent->_Color = _Red;

  000c2	8b 48 04	 mov	 ecx, DWORD PTR [eax+4]
  000c5	8b 49 04	 mov	 ecx, DWORD PTR [ecx+4]
  000c8	c6 41 0c 00	 mov	 BYTE PTR [ecx+12], 0

; 712  :                     _Rrotate(_Pnode->_Parent->_Parent);

  000cc	8b 48 04	 mov	 ecx, DWORD PTR [eax+4]
  000cf	8b 51 04	 mov	 edx, DWORD PTR [ecx+4]

; 506  :         _Nodeptr _Pnode   = _Wherenode->_Left;

  000d2	8b 32		 mov	 esi, DWORD PTR [edx]

; 507  :         _Wherenode->_Left = _Pnode->_Right;

  000d4	8b 4e 08	 mov	 ecx, DWORD PTR [esi+8]
  000d7	89 0a		 mov	 DWORD PTR [edx], ecx

; 508  : 
; 509  :         if (!_Pnode->_Right->_Isnil) {

  000d9	8b 4e 08	 mov	 ecx, DWORD PTR [esi+8]
  000dc	80 79 0d 00	 cmp	 BYTE PTR [ecx+13], 0
  000e0	75 03		 jne	 SHORT $LN29@Insert_nod

; 510  :             _Pnode->_Right->_Parent = _Wherenode;

  000e2	89 51 04	 mov	 DWORD PTR [ecx+4], edx
$LN29@Insert_nod:

; 511  :         }
; 512  : 
; 513  :         _Pnode->_Parent = _Wherenode->_Parent;

  000e5	8b 4a 04	 mov	 ecx, DWORD PTR [edx+4]
  000e8	89 4e 04	 mov	 DWORD PTR [esi+4], ecx

; 514  : 
; 515  :         if (_Wherenode == _Myhead->_Parent) {

  000eb	8b 0b		 mov	 ecx, DWORD PTR [ebx]
  000ed	3b 51 04	 cmp	 edx, DWORD PTR [ecx+4]
  000f0	75 0b		 jne	 SHORT $LN30@Insert_nod

; 516  :             _Myhead->_Parent = _Pnode;

  000f2	89 71 04	 mov	 DWORD PTR [ecx+4], esi

; 521  :         }
; 522  : 
; 523  :         _Pnode->_Right      = _Wherenode;

  000f5	89 56 08	 mov	 DWORD PTR [esi+8], edx

; 713  :                 }
; 714  :             } else { // fixup red-red in right subtree

  000f8	e9 cc 00 00 00	 jmp	 $LN81@Insert_nod
$LN30@Insert_nod:

; 517  :         } else if (_Wherenode == _Wherenode->_Parent->_Right) {

  000fd	8b 4a 04	 mov	 ecx, DWORD PTR [edx+4]
  00100	3b 51 08	 cmp	 edx, DWORD PTR [ecx+8]
  00103	75 0b		 jne	 SHORT $LN32@Insert_nod

; 518  :             _Wherenode->_Parent->_Right = _Pnode;

  00105	89 71 08	 mov	 DWORD PTR [ecx+8], esi

; 521  :         }
; 522  : 
; 523  :         _Pnode->_Right      = _Wherenode;

  00108	89 56 08	 mov	 DWORD PTR [esi+8], edx

; 713  :                 }
; 714  :             } else { // fixup red-red in right subtree

  0010b	e9 b9 00 00 00	 jmp	 $LN81@Insert_nod
$LN32@Insert_nod:

; 520  :             _Wherenode->_Parent->_Left = _Pnode;

  00110	89 31		 mov	 DWORD PTR [ecx], esi

; 521  :         }
; 522  : 
; 523  :         _Pnode->_Right      = _Wherenode;

  00112	89 56 08	 mov	 DWORD PTR [esi+8], edx

; 713  :                 }
; 714  :             } else { // fixup red-red in right subtree

  00115	e9 af 00 00 00	 jmp	 $LN81@Insert_nod
$LN10@Insert_nod:

; 715  :                 const auto _Parent_sibling = _Pnode->_Parent->_Parent->_Left;
; 716  :                 if (_Parent_sibling->_Color == _Red) { // parent's sibling has two red children, blacken both

  0011a	80 79 0c 00	 cmp	 BYTE PTR [ecx+12], 0
  0011e	75 1d		 jne	 SHORT $LN15@Insert_nod
$LN82@Insert_nod:

; 693  :             }
; 694  :         }
; 695  : 
; 696  :         for (_Nodeptr _Pnode = _Newnode; _Pnode->_Parent->_Color == _Red;) {

  00120	c6 42 0c 01	 mov	 BYTE PTR [edx+12], 1
  00124	c6 41 0c 01	 mov	 BYTE PTR [ecx+12], 1
  00128	8b 48 04	 mov	 ecx, DWORD PTR [eax+4]
  0012b	8b 49 04	 mov	 ecx, DWORD PTR [ecx+4]
  0012e	c6 41 0c 00	 mov	 BYTE PTR [ecx+12], 0
  00132	8b 48 04	 mov	 ecx, DWORD PTR [eax+4]
  00135	8b 41 04	 mov	 eax, DWORD PTR [ecx+4]
  00138	e9 8f 00 00 00	 jmp	 $LN2@Insert_nod
$LN15@Insert_nod:

; 717  :                     _Pnode->_Parent->_Color          = _Black;
; 718  :                     _Parent_sibling->_Color          = _Black;
; 719  :                     _Pnode->_Parent->_Parent->_Color = _Red;
; 720  :                     _Pnode                           = _Pnode->_Parent->_Parent;
; 721  :                 } else { // parent's sibling has red and black children
; 722  :                     if (_Pnode == _Pnode->_Parent->_Left) { // rotate left child to right

  0013d	8b 32		 mov	 esi, DWORD PTR [edx]
  0013f	3b c6		 cmp	 eax, esi
  00141	75 3a		 jne	 SHORT $LN42@Insert_nod

; 507  :         _Wherenode->_Left = _Pnode->_Right;

  00143	8b 4e 08	 mov	 ecx, DWORD PTR [esi+8]

; 723  :                         _Pnode = _Pnode->_Parent;

  00146	8b c2		 mov	 eax, edx

; 507  :         _Wherenode->_Left = _Pnode->_Right;

  00148	89 08		 mov	 DWORD PTR [eax], ecx

; 508  : 
; 509  :         if (!_Pnode->_Right->_Isnil) {

  0014a	8b 4e 08	 mov	 ecx, DWORD PTR [esi+8]
  0014d	80 79 0d 00	 cmp	 BYTE PTR [ecx+13], 0
  00151	75 03		 jne	 SHORT $LN37@Insert_nod

; 510  :             _Pnode->_Right->_Parent = _Wherenode;

  00153	89 41 04	 mov	 DWORD PTR [ecx+4], eax
$LN37@Insert_nod:

; 511  :         }
; 512  : 
; 513  :         _Pnode->_Parent = _Wherenode->_Parent;

  00156	8b 4a 04	 mov	 ecx, DWORD PTR [edx+4]
  00159	89 4e 04	 mov	 DWORD PTR [esi+4], ecx

; 514  : 
; 515  :         if (_Wherenode == _Myhead->_Parent) {

  0015c	8b 0b		 mov	 ecx, DWORD PTR [ebx]
  0015e	3b 41 04	 cmp	 eax, DWORD PTR [ecx+4]
  00161	75 05		 jne	 SHORT $LN38@Insert_nod

; 516  :             _Myhead->_Parent = _Pnode;

  00163	89 71 04	 mov	 DWORD PTR [ecx+4], esi
  00166	eb 0f		 jmp	 SHORT $LN41@Insert_nod
$LN38@Insert_nod:

; 517  :         } else if (_Wherenode == _Wherenode->_Parent->_Right) {

  00168	8b 4a 04	 mov	 ecx, DWORD PTR [edx+4]
  0016b	3b 41 08	 cmp	 eax, DWORD PTR [ecx+8]
  0016e	75 05		 jne	 SHORT $LN40@Insert_nod

; 518  :             _Wherenode->_Parent->_Right = _Pnode;

  00170	89 71 08	 mov	 DWORD PTR [ecx+8], esi

; 519  :         } else {

  00173	eb 02		 jmp	 SHORT $LN41@Insert_nod
$LN40@Insert_nod:

; 520  :             _Wherenode->_Parent->_Left = _Pnode;

  00175	89 31		 mov	 DWORD PTR [ecx], esi
$LN41@Insert_nod:

; 521  :         }
; 522  : 
; 523  :         _Pnode->_Right      = _Wherenode;

  00177	89 46 08	 mov	 DWORD PTR [esi+8], eax

; 524  :         _Wherenode->_Parent = _Pnode;

  0017a	89 70 04	 mov	 DWORD PTR [eax+4], esi
$LN42@Insert_nod:

; 724  :                         _Rrotate(_Pnode);
; 725  :                     }
; 726  : 
; 727  :                     _Pnode->_Parent->_Color          = _Black; // propagate red up

  0017d	8b 48 04	 mov	 ecx, DWORD PTR [eax+4]
  00180	c6 41 0c 01	 mov	 BYTE PTR [ecx+12], 1

; 728  :                     _Pnode->_Parent->_Parent->_Color = _Red;

  00184	8b 48 04	 mov	 ecx, DWORD PTR [eax+4]
  00187	8b 49 04	 mov	 ecx, DWORD PTR [ecx+4]
  0018a	c6 41 0c 00	 mov	 BYTE PTR [ecx+12], 0

; 729  :                     _Lrotate(_Pnode->_Parent->_Parent);

  0018e	8b 48 04	 mov	 ecx, DWORD PTR [eax+4]
  00191	8b 51 04	 mov	 edx, DWORD PTR [ecx+4]

; 484  :         _Nodeptr _Pnode    = _Wherenode->_Right;

  00194	8b 72 08	 mov	 esi, DWORD PTR [edx+8]

; 485  :         _Wherenode->_Right = _Pnode->_Left;

  00197	8b 0e		 mov	 ecx, DWORD PTR [esi]
  00199	89 4a 08	 mov	 DWORD PTR [edx+8], ecx

; 486  : 
; 487  :         if (!_Pnode->_Left->_Isnil) {

  0019c	8b 0e		 mov	 ecx, DWORD PTR [esi]
  0019e	80 79 0d 00	 cmp	 BYTE PTR [ecx+13], 0
  001a2	75 03		 jne	 SHORT $LN45@Insert_nod

; 488  :             _Pnode->_Left->_Parent = _Wherenode;

  001a4	89 51 04	 mov	 DWORD PTR [ecx+4], edx
$LN45@Insert_nod:

; 489  :         }
; 490  : 
; 491  :         _Pnode->_Parent = _Wherenode->_Parent;

  001a7	8b 4a 04	 mov	 ecx, DWORD PTR [edx+4]
  001aa	89 4e 04	 mov	 DWORD PTR [esi+4], ecx

; 492  : 
; 493  :         if (_Wherenode == _Myhead->_Parent) {

  001ad	8b 0b		 mov	 ecx, DWORD PTR [ebx]
  001af	3b 51 04	 cmp	 edx, DWORD PTR [ecx+4]
  001b2	75 05		 jne	 SHORT $LN46@Insert_nod

; 494  :             _Myhead->_Parent = _Pnode;

  001b4	89 71 04	 mov	 DWORD PTR [ecx+4], esi
  001b7	eb 0e		 jmp	 SHORT $LN49@Insert_nod
$LN46@Insert_nod:

; 495  :         } else if (_Wherenode == _Wherenode->_Parent->_Left) {

  001b9	8b 4a 04	 mov	 ecx, DWORD PTR [edx+4]
  001bc	3b 11		 cmp	 edx, DWORD PTR [ecx]
  001be	75 04		 jne	 SHORT $LN48@Insert_nod

; 496  :             _Wherenode->_Parent->_Left = _Pnode;

  001c0	89 31		 mov	 DWORD PTR [ecx], esi

; 497  :         } else {

  001c2	eb 03		 jmp	 SHORT $LN49@Insert_nod
$LN48@Insert_nod:

; 498  :             _Wherenode->_Parent->_Right = _Pnode;

  001c4	89 71 08	 mov	 DWORD PTR [ecx+8], esi
$LN49@Insert_nod:

; 499  :         }
; 500  : 
; 501  :         _Pnode->_Left       = _Wherenode;

  001c7	89 16		 mov	 DWORD PTR [esi], edx
$LN81@Insert_nod:

; 693  :             }
; 694  :         }
; 695  : 
; 696  :         for (_Nodeptr _Pnode = _Newnode; _Pnode->_Parent->_Color == _Red;) {

  001c9	89 72 04	 mov	 DWORD PTR [edx+4], esi
$LN2@Insert_nod:
  001cc	8b 48 04	 mov	 ecx, DWORD PTR [eax+4]
  001cf	80 79 0c 00	 cmp	 BYTE PTR [ecx+12], 0
  001d3	0f 84 87 fe ff
	ff		 je	 $LL4@Insert_nod
  001d9	5e		 pop	 esi
$LN3@Insert_nod:

; 730  :                 }
; 731  :             }
; 732  :         }
; 733  : 
; 734  :         _Head->_Parent->_Color = _Black; // root is always black

  001da	8b 45 fc	 mov	 eax, DWORD PTR __Head$1$[ebp]
  001dd	8b 40 04	 mov	 eax, DWORD PTR [eax+4]
  001e0	c6 40 0c 01	 mov	 BYTE PTR [eax+12], 1

; 735  :         return _Newnode;
; 736  :     }

  001e4	8b c7		 mov	 eax, edi
  001e6	5f		 pop	 edi
  001e7	5b		 pop	 ebx
  001e8	8b e5		 mov	 esp, ebp
  001ea	5d		 pop	 ebp
  001eb	c2 0c 00	 ret	 12			; 0000000cH
?_Insert_node@?$_Tree_val@U?$_Tree_simple_types@U?$pair@$$CBKPAVCColosseumMatch@@@std@@@std@@@std@@QAEPAU?$_Tree_node@U?$pair@$$CBKPAVCColosseumMatch@@@std@@PAX@2@U?$_Tree_id@PAU?$_Tree_node@U?$pair@$$CBKPAVCColosseumMatch@@@std@@PAX@std@@@2@QAU32@@Z ENDP ; std::_Tree_val<std::_Tree_simple_types<std::pair<unsigned long const ,CColosseumMatch *> > >::_Insert_node
_TEXT	ENDS
; Function compile flags: /Ogtp
; File C:\Program Files\Microsoft Visual Studio\2022\Professional\VC\Tools\MSVC\14.44.35207\include\xtree
; File C:\Program Files\Microsoft Visual Studio\2022\Professional\VC\Tools\MSVC\14.44.35207\include\utility
; File C:\Program Files\Microsoft Visual Studio\2022\Professional\VC\Tools\MSVC\14.44.35207\include\xtree
;	COMDAT ?_Extract@?$_Tree_val@U?$_Tree_simple_types@U?$pair@$$CBKPAVCColosseumMatch@@@std@@@std@@@std@@QAEPAU?$_Tree_node@U?$pair@$$CBKPAVCColosseumMatch@@@std@@PAX@2@V?$_Tree_unchecked_const_iterator@V?$_Tree_val@U?$_Tree_simple_types@U?$pair@$$CBKPAVCColosseumMatch@@@std@@@std@@@std@@U_Iterator_base0@2@@2@@Z
_TEXT	SEGMENT
tv1039 = -16						; size = 4
tv1073 = -12						; size = 4
tv1093 = -12						; size = 4
$T1 = -12						; size = 4
__Erasednode$1$ = -8					; size = 4
_this$1$ = -4						; size = 4
__Where$ = 8						; size = 4
?_Extract@?$_Tree_val@U?$_Tree_simple_types@U?$pair@$$CBKPAVCColosseumMatch@@@std@@@std@@@std@@QAEPAU?$_Tree_node@U?$pair@$$CBKPAVCColosseumMatch@@@std@@PAX@2@V?$_Tree_unchecked_const_iterator@V?$_Tree_val@U?$_Tree_simple_types@U?$pair@$$CBKPAVCColosseumMatch@@@std@@@std@@@std@@U_Iterator_base0@2@@2@@Z PROC ; std::_Tree_val<std::_Tree_simple_types<std::pair<unsigned long const ,CColosseumMatch *> > >::_Extract, COMDAT
; _this$ = ecx

; 527  :     _Nodeptr _Extract(_Unchecked_const_iterator _Where) noexcept {

  00000	55		 push	 ebp
  00001	8b ec		 mov	 ebp, esp
  00003	83 ec 10	 sub	 esp, 16			; 00000010H

; 528  :         _Nodeptr _Erasednode = _Where._Ptr; // node to erase

  00006	8b 45 08	 mov	 eax, DWORD PTR __Where$[ebp]
  00009	53		 push	 ebx
  0000a	56		 push	 esi
  0000b	8b d9		 mov	 ebx, ecx
  0000d	89 45 f8	 mov	 DWORD PTR __Erasednode$1$[ebp], eax
  00010	57		 push	 edi

; 529  :         ++_Where; // save successor iterator for return

  00011	8d 4d 08	 lea	 ecx, DWORD PTR __Where$[ebp]
  00014	89 5d fc	 mov	 DWORD PTR _this$1$[ebp], ebx
  00017	e8 00 00 00 00	 call	 ??E?$_Tree_unchecked_const_iterator@V?$_Tree_val@U?$_Tree_simple_types@U?$pair@$$CBKPAVCColosseumMatch@@@std@@@std@@@std@@U_Iterator_base0@2@@std@@QAEAAV01@XZ ; std::_Tree_unchecked_const_iterator<std::_Tree_val<std::_Tree_simple_types<std::pair<unsigned long const ,CColosseumMatch *> > >,std::_Iterator_base0>::operator++

; 530  : 
; 531  :         _Nodeptr _Fixnode; // the node to recolor as needed
; 532  :         _Nodeptr _Fixnodeparent; // parent of _Fixnode (which may be nil)
; 533  :         _Nodeptr _Pnode = _Erasednode;
; 534  : 
; 535  :         if (_Pnode->_Left->_Isnil) {

  0001c	8b 4d f8	 mov	 ecx, DWORD PTR __Erasednode$1$[ebp]
  0001f	8b 01		 mov	 eax, DWORD PTR [ecx]
  00021	8b 79 08	 mov	 edi, DWORD PTR [ecx+8]
  00024	80 78 0d 00	 cmp	 BYTE PTR [eax+13], 0
  00028	75 18		 jne	 SHORT $LN94@Extract

; 536  :             _Fixnode = _Pnode->_Right; // stitch up right subtree
; 537  :         } else if (_Pnode->_Right->_Isnil) {

  0002a	80 7f 0d 00	 cmp	 BYTE PTR [edi+13], 0
  0002e	74 04		 je	 SHORT $LN7@Extract

; 538  :             _Fixnode = _Pnode->_Left; // stitch up left subtree

  00030	8b f8		 mov	 edi, eax

; 539  :         } else { // two subtrees, must lift successor node to replace erased

  00032	eb 0e		 jmp	 SHORT $LN94@Extract
$LN7@Extract:

; 540  :             _Pnode   = _Where._Ptr; // _Pnode is successor node

  00034	8b 55 08	 mov	 edx, DWORD PTR __Where$[ebp]

; 541  :             _Fixnode = _Pnode->_Right; // _Fixnode is only subtree

  00037	8b 7a 08	 mov	 edi, DWORD PTR [edx+8]
  0003a	3b d1		 cmp	 edx, ecx

; 542  :         }
; 543  : 
; 544  :         if (_Pnode == _Erasednode) { // at most one subtree, relink it

  0003c	0f 85 91 00 00
	00		 jne	 $LN9@Extract
$LN94@Extract:

; 545  :             _Fixnodeparent = _Erasednode->_Parent;
; 546  :             if (!_Fixnode->_Isnil) {

  00042	80 7f 0d 00	 cmp	 BYTE PTR [edi+13], 0
  00046	8b 71 04	 mov	 esi, DWORD PTR [ecx+4]
  00049	75 03		 jne	 SHORT $LN11@Extract

; 547  :                 _Fixnode->_Parent = _Fixnodeparent; // link up

  0004b	89 77 04	 mov	 DWORD PTR [edi+4], esi
$LN11@Extract:

; 548  :             }
; 549  : 
; 550  :             if (_Myhead->_Parent == _Erasednode) {

  0004e	8b 03		 mov	 eax, DWORD PTR [ebx]
  00050	39 48 04	 cmp	 DWORD PTR [eax+4], ecx
  00053	75 05		 jne	 SHORT $LN12@Extract

; 551  :                 _Myhead->_Parent = _Fixnode; // link down from root

  00055	89 78 04	 mov	 DWORD PTR [eax+4], edi
  00058	eb 0b		 jmp	 SHORT $LN15@Extract
$LN12@Extract:

; 552  :             } else if (_Fixnodeparent->_Left == _Erasednode) {

  0005a	39 0e		 cmp	 DWORD PTR [esi], ecx
  0005c	75 04		 jne	 SHORT $LN14@Extract

; 553  :                 _Fixnodeparent->_Left = _Fixnode; // link down to left

  0005e	89 3e		 mov	 DWORD PTR [esi], edi

; 554  :             } else {

  00060	eb 03		 jmp	 SHORT $LN15@Extract
$LN14@Extract:

; 555  :                 _Fixnodeparent->_Right = _Fixnode; // link down to right

  00062	89 7e 08	 mov	 DWORD PTR [esi+8], edi
$LN15@Extract:

; 556  :             }
; 557  : 
; 558  :             if (_Myhead->_Left == _Erasednode) {

  00065	8b 03		 mov	 eax, DWORD PTR [ebx]
  00067	39 08		 cmp	 DWORD PTR [eax], ecx
  00069	75 28		 jne	 SHORT $LN16@Extract

; 559  :                 _Myhead->_Left = _Fixnode->_Isnil ? _Fixnodeparent // smallest is parent of erased node

  0006b	80 7f 0d 00	 cmp	 BYTE PTR [edi+13], 0
  0006f	74 04		 je	 SHORT $LN42@Extract
  00071	8b d6		 mov	 edx, esi
  00073	eb 1c		 jmp	 SHORT $LN43@Extract
$LN42@Extract:

; 476  :         while (!_Pnode->_Left->_Isnil) {

  00075	8b 0f		 mov	 ecx, DWORD PTR [edi]

; 559  :                 _Myhead->_Left = _Fixnode->_Isnil ? _Fixnodeparent // smallest is parent of erased node

  00077	8b d7		 mov	 edx, edi

; 476  :         while (!_Pnode->_Left->_Isnil) {

  00079	80 79 0d 00	 cmp	 BYTE PTR [ecx+13], 0
  0007d	75 0f		 jne	 SHORT $LN49@Extract
  0007f	90		 npad	 1
$LL48@Extract:
  00080	8b 01		 mov	 eax, DWORD PTR [ecx]

; 477  :             _Pnode = _Pnode->_Left;

  00082	8b d1		 mov	 edx, ecx
  00084	8b c8		 mov	 ecx, eax
  00086	80 78 0d 00	 cmp	 BYTE PTR [eax+13], 0
  0008a	74 f4		 je	 SHORT $LL48@Extract
  0008c	8b 03		 mov	 eax, DWORD PTR [ebx]
$LN49@Extract:
  0008e	8b 4d f8	 mov	 ecx, DWORD PTR __Erasednode$1$[ebp]
$LN43@Extract:

; 559  :                 _Myhead->_Left = _Fixnode->_Isnil ? _Fixnodeparent // smallest is parent of erased node

  00091	89 10		 mov	 DWORD PTR [eax], edx
$LN16@Extract:

; 560  :                                                   : _Min(_Fixnode); // smallest in relinked subtree
; 561  :             }
; 562  : 
; 563  :             if (_Myhead->_Right == _Erasednode) {

  00093	8b 13		 mov	 edx, DWORD PTR [ebx]
  00095	39 4a 08	 cmp	 DWORD PTR [edx+8], ecx
  00098	75 34		 jne	 SHORT $LN17@Extract

; 564  :                 _Myhead->_Right = _Fixnode->_Isnil ? _Fixnodeparent // largest is parent of erased node

  0009a	80 7f 0d 00	 cmp	 BYTE PTR [edi+13], 0
  0009e	74 0d		 je	 SHORT $LN44@Extract

; 565  :                                                    : _Max(_Fixnode); // largest in relinked subtree
; 566  :             }
; 567  :         } else { // erased has two subtrees, _Pnode is successor to erased

  000a0	8b 45 f8	 mov	 eax, DWORD PTR __Erasednode$1$[ebp]
  000a3	8b ce		 mov	 ecx, esi
  000a5	89 4a 08	 mov	 DWORD PTR [edx+8], ecx
  000a8	e9 94 00 00 00	 jmp	 $LN58@Extract
$LN44@Extract:

; 468  :         while (!_Pnode->_Right->_Isnil) {

  000ad	8b 47 08	 mov	 eax, DWORD PTR [edi+8]

; 564  :                 _Myhead->_Right = _Fixnode->_Isnil ? _Fixnodeparent // largest is parent of erased node

  000b0	8b cf		 mov	 ecx, edi

; 468  :         while (!_Pnode->_Right->_Isnil) {

  000b2	80 78 0d 00	 cmp	 BYTE PTR [eax+13], 0
  000b6	75 13		 jne	 SHORT $LN54@Extract
  000b8	0f 1f 84 00 00
	00 00 00	 npad	 8
$LL53@Extract:

; 469  :             _Pnode = _Pnode->_Right;

  000c0	8b c8		 mov	 ecx, eax
  000c2	8b 41 08	 mov	 eax, DWORD PTR [ecx+8]
  000c5	80 78 0d 00	 cmp	 BYTE PTR [eax+13], 0
  000c9	74 f5		 je	 SHORT $LL53@Extract
$LN54@Extract:

; 564  :                 _Myhead->_Right = _Fixnode->_Isnil ? _Fixnodeparent // largest is parent of erased node

  000cb	89 4a 08	 mov	 DWORD PTR [edx+8], ecx
$LN17@Extract:

; 565  :                                                    : _Max(_Fixnode); // largest in relinked subtree
; 566  :             }
; 567  :         } else { // erased has two subtrees, _Pnode is successor to erased

  000ce	8b 45 f8	 mov	 eax, DWORD PTR __Erasednode$1$[ebp]
  000d1	eb 6e		 jmp	 SHORT $LN58@Extract
$LN9@Extract:

; 568  :             _Erasednode->_Left->_Parent = _Pnode; // link left up

  000d3	89 50 04	 mov	 DWORD PTR [eax+4], edx

; 569  :             _Pnode->_Left               = _Erasednode->_Left; // link successor down

  000d6	8b 01		 mov	 eax, DWORD PTR [ecx]
  000d8	89 02		 mov	 DWORD PTR [edx], eax

; 570  : 
; 571  :             if (_Pnode == _Erasednode->_Right) {

  000da	8d 42 04	 lea	 eax, DWORD PTR [edx+4]
  000dd	89 45 f4	 mov	 DWORD PTR $T1[ebp], eax
  000e0	3b 51 08	 cmp	 edx, DWORD PTR [ecx+8]
  000e3	75 04		 jne	 SHORT $LN18@Extract

; 572  :                 _Fixnodeparent = _Pnode; // successor is next to erased

  000e5	8b f2		 mov	 esi, edx

; 573  :             } else { // successor further down, link in place of erased

  000e7	eb 1f		 jmp	 SHORT $LN19@Extract
$LN18@Extract:

; 574  :                 _Fixnodeparent = _Pnode->_Parent; // parent is successor's
; 575  :                 if (!_Fixnode->_Isnil) {

  000e9	80 7f 0d 00	 cmp	 BYTE PTR [edi+13], 0
  000ed	8b 30		 mov	 esi, DWORD PTR [eax]
  000ef	75 03		 jne	 SHORT $LN20@Extract

; 576  :                     _Fixnode->_Parent = _Fixnodeparent; // link fix up

  000f1	89 77 04	 mov	 DWORD PTR [edi+4], esi
$LN20@Extract:

; 577  :                 }
; 578  : 
; 579  :                 _Fixnodeparent->_Left        = _Fixnode; // link fix down

  000f4	89 3e		 mov	 DWORD PTR [esi], edi

; 580  :                 _Pnode->_Right               = _Erasednode->_Right; // link next down

  000f6	8b 41 08	 mov	 eax, DWORD PTR [ecx+8]
  000f9	89 42 08	 mov	 DWORD PTR [edx+8], eax

; 581  :                 _Erasednode->_Right->_Parent = _Pnode; // right up

  000fc	8b 41 08	 mov	 eax, DWORD PTR [ecx+8]
  000ff	89 50 04	 mov	 DWORD PTR [eax+4], edx
  00102	8d 42 04	 lea	 eax, DWORD PTR [edx+4]
  00105	89 45 f4	 mov	 DWORD PTR $T1[ebp], eax
$LN19@Extract:

; 582  :             }
; 583  : 
; 584  :             if (_Myhead->_Parent == _Erasednode) {

  00108	8b 03		 mov	 eax, DWORD PTR [ebx]
  0010a	39 48 04	 cmp	 DWORD PTR [eax+4], ecx
  0010d	75 05		 jne	 SHORT $LN21@Extract

; 585  :                 _Myhead->_Parent = _Pnode; // link down from root

  0010f	89 50 04	 mov	 DWORD PTR [eax+4], edx
  00112	eb 0e		 jmp	 SHORT $LN141@Extract
$LN21@Extract:

; 586  :             } else if (_Erasednode->_Parent->_Left == _Erasednode) {

  00114	8b 41 04	 mov	 eax, DWORD PTR [ecx+4]
  00117	39 08		 cmp	 DWORD PTR [eax], ecx
  00119	75 04		 jne	 SHORT $LN23@Extract

; 587  :                 _Erasednode->_Parent->_Left = _Pnode; // link down to left

  0011b	89 10		 mov	 DWORD PTR [eax], edx

; 588  :             } else {

  0011d	eb 03		 jmp	 SHORT $LN141@Extract
$LN23@Extract:

; 589  :                 _Erasednode->_Parent->_Right = _Pnode; // link down to right

  0011f	89 50 08	 mov	 DWORD PTR [eax+8], edx
$LN141@Extract:

; 590  :             }
; 591  : 
; 592  :             _Pnode->_Parent = _Erasednode->_Parent; // link successor up

  00122	b8 04 00 00 00	 mov	 eax, 4
  00127	8b 04 08	 mov	 eax, DWORD PTR [eax+ecx]
  0012a	8b 4d f4	 mov	 ecx, DWORD PTR $T1[ebp]
  0012d	89 01		 mov	 DWORD PTR [ecx], eax
; File C:\Program Files\Microsoft Visual Studio\2022\Professional\VC\Tools\MSVC\14.44.35207\include\utility

; 140  :     _Left    = _STD move(_Right);

  0012f	8b 45 f8	 mov	 eax, DWORD PTR __Erasednode$1$[ebp]
  00132	8a 4a 0c	 mov	 cl, BYTE PTR [edx+12]
  00135	8a 40 0c	 mov	 al, BYTE PTR [eax+12]
  00138	88 42 0c	 mov	 BYTE PTR [edx+12], al

; 141  :     _Right   = _STD move(_Tmp);

  0013b	8b 45 f8	 mov	 eax, DWORD PTR __Erasednode$1$[ebp]
  0013e	88 48 0c	 mov	 BYTE PTR [eax+12], cl
$LN58@Extract:
; File C:\Program Files\Microsoft Visual Studio\2022\Professional\VC\Tools\MSVC\14.44.35207\include\xtree

; 596  :         if (_Erasednode->_Color == _Black) { // erasing black link, must recolor/rebalance tree

  00141	80 78 0c 01	 cmp	 BYTE PTR [eax+12], 1
  00145	0f 85 ba 01 00
	00		 jne	 $LN25@Extract

; 597  :             for (; _Fixnode != _Myhead->_Parent && _Fixnode->_Color == _Black; _Fixnodeparent = _Fixnode->_Parent) {

  0014b	8b 03		 mov	 eax, DWORD PTR [ebx]
  0014d	3b 78 04	 cmp	 edi, DWORD PTR [eax+4]
  00150	0f 84 a8 01 00
	00		 je	 $LN3@Extract
  00156	80 7f 0c 01	 cmp	 BYTE PTR [edi+12], 1
  0015a	89 75 f4	 mov	 DWORD PTR tv1093[ebp], esi
  0015d	0f 85 9b 01 00
	00		 jne	 $LN3@Extract
$LL4@Extract:

; 598  :                 if (_Fixnode == _Fixnodeparent->_Left) { // fixup left subtree

  00163	8b 0e		 mov	 ecx, DWORD PTR [esi]
  00165	3b f9		 cmp	 edi, ecx
  00167	0f 85 be 00 00
	00		 jne	 $LN26@Extract

; 599  :                     _Pnode = _Fixnodeparent->_Right;

  0016d	8b 4e 08	 mov	 ecx, DWORD PTR [esi+8]

; 600  :                     if (_Pnode->_Color == _Red) { // rotate red up from right subtree

  00170	80 79 0c 00	 cmp	 BYTE PTR [ecx+12], 0
  00174	75 54		 jne	 SHORT $LN95@Extract

; 601  :                         _Pnode->_Color         = _Black;

  00176	c6 41 0c 01	 mov	 BYTE PTR [ecx+12], 1

; 484  :         _Nodeptr _Pnode    = _Wherenode->_Right;

  0017a	8b 4e 08	 mov	 ecx, DWORD PTR [esi+8]

; 602  :                         _Fixnodeparent->_Color = _Red;

  0017d	c6 46 0c 00	 mov	 BYTE PTR [esi+12], 0

; 485  :         _Wherenode->_Right = _Pnode->_Left;

  00181	8b 01		 mov	 eax, DWORD PTR [ecx]
  00183	89 46 08	 mov	 DWORD PTR [esi+8], eax

; 486  : 
; 487  :         if (!_Pnode->_Left->_Isnil) {

  00186	8b 01		 mov	 eax, DWORD PTR [ecx]
  00188	80 78 0d 00	 cmp	 BYTE PTR [eax+13], 0
  0018c	75 03		 jne	 SHORT $LN61@Extract

; 488  :             _Pnode->_Left->_Parent = _Wherenode;

  0018e	89 70 04	 mov	 DWORD PTR [eax+4], esi
$LN61@Extract:

; 489  :         }
; 490  : 
; 491  :         _Pnode->_Parent = _Wherenode->_Parent;

  00191	8b 46 04	 mov	 eax, DWORD PTR [esi+4]
  00194	8d 56 04	 lea	 edx, DWORD PTR [esi+4]
  00197	89 41 04	 mov	 DWORD PTR [ecx+4], eax

; 492  : 
; 493  :         if (_Wherenode == _Myhead->_Parent) {

  0019a	8b 03		 mov	 eax, DWORD PTR [ebx]
  0019c	3b 70 04	 cmp	 esi, DWORD PTR [eax+4]
  0019f	75 0c		 jne	 SHORT $LN62@Extract

; 494  :             _Myhead->_Parent = _Pnode;

  001a1	89 48 04	 mov	 DWORD PTR [eax+4], ecx

; 499  :         }
; 500  : 
; 501  :         _Pnode->_Left       = _Wherenode;

  001a4	89 31		 mov	 DWORD PTR [ecx], esi

; 502  :         _Wherenode->_Parent = _Pnode;

  001a6	89 0a		 mov	 DWORD PTR [edx], ecx

; 603  :                         _Lrotate(_Fixnodeparent);
; 604  :                         _Pnode = _Fixnodeparent->_Right;

  001a8	8b 4e 08	 mov	 ecx, DWORD PTR [esi+8]
  001ab	eb 20		 jmp	 SHORT $LN87@Extract
$LN62@Extract:

; 495  :         } else if (_Wherenode == _Wherenode->_Parent->_Left) {

  001ad	8b 02		 mov	 eax, DWORD PTR [edx]
  001af	3b 30		 cmp	 esi, DWORD PTR [eax]
  001b1	75 0b		 jne	 SHORT $LN64@Extract

; 496  :             _Wherenode->_Parent->_Left = _Pnode;

  001b3	89 08		 mov	 DWORD PTR [eax], ecx

; 499  :         }
; 500  : 
; 501  :         _Pnode->_Left       = _Wherenode;

  001b5	89 31		 mov	 DWORD PTR [ecx], esi

; 502  :         _Wherenode->_Parent = _Pnode;

  001b7	89 0a		 mov	 DWORD PTR [edx], ecx

; 603  :                         _Lrotate(_Fixnodeparent);
; 604  :                         _Pnode = _Fixnodeparent->_Right;

  001b9	8b 4e 08	 mov	 ecx, DWORD PTR [esi+8]
  001bc	eb 0f		 jmp	 SHORT $LN87@Extract
$LN64@Extract:

; 498  :             _Wherenode->_Parent->_Right = _Pnode;

  001be	89 48 08	 mov	 DWORD PTR [eax+8], ecx

; 499  :         }
; 500  : 
; 501  :         _Pnode->_Left       = _Wherenode;

  001c1	89 31		 mov	 DWORD PTR [ecx], esi

; 502  :         _Wherenode->_Parent = _Pnode;

  001c3	89 0a		 mov	 DWORD PTR [edx], ecx

; 603  :                         _Lrotate(_Fixnodeparent);
; 604  :                         _Pnode = _Fixnodeparent->_Right;

  001c5	8b 4e 08	 mov	 ecx, DWORD PTR [esi+8]
  001c8	eb 03		 jmp	 SHORT $LN87@Extract
$LN95@Extract:
  001ca	8d 56 04	 lea	 edx, DWORD PTR [esi+4]
$LN87@Extract:

; 605  :                     }
; 606  : 
; 607  :                     if (_Pnode->_Isnil) {

  001cd	80 79 0d 00	 cmp	 BYTE PTR [ecx+13], 0
  001d1	0f 85 d0 00 00
	00		 jne	 $LN2@Extract

; 608  :                         _Fixnode = _Fixnodeparent; // shouldn't happen
; 609  :                     } else if (_Pnode->_Left->_Color == _Black
; 610  :                                && _Pnode->_Right->_Color == _Black) { // redden right subtree with black children

  001d7	8b 01		 mov	 eax, DWORD PTR [ecx]
  001d9	80 78 0c 01	 cmp	 BYTE PTR [eax+12], 1
  001dd	75 0d		 jne	 SHORT $LN97@Extract
  001df	8b 41 08	 mov	 eax, DWORD PTR [ecx+8]
  001e2	80 78 0c 01	 cmp	 BYTE PTR [eax+12], 1
  001e6	0f 84 b4 00 00
	00		 je	 $LN142@Extract
$LN97@Extract:

; 611  :                         _Pnode->_Color = _Red;
; 612  :                         _Fixnode       = _Fixnodeparent;
; 613  :                     } else { // must rearrange right subtree
; 614  :                         if (_Pnode->_Right->_Color == _Black) { // rotate red up from left sub-subtree

  001ec	8b 41 08	 mov	 eax, DWORD PTR [ecx+8]
  001ef	8b 5d fc	 mov	 ebx, DWORD PTR _this$1$[ebp]
  001f2	80 78 0c 01	 cmp	 BYTE PTR [eax+12], 1
  001f6	75 15		 jne	 SHORT $LN33@Extract

; 615  :                             _Pnode->_Left->_Color = _Black;

  001f8	8b 01		 mov	 eax, DWORD PTR [ecx]

; 616  :                             _Pnode->_Color        = _Red;
; 617  :                             _Rrotate(_Pnode);

  001fa	51		 push	 ecx
  001fb	c6 40 0c 01	 mov	 BYTE PTR [eax+12], 1
  001ff	c6 41 0c 00	 mov	 BYTE PTR [ecx+12], 0
  00203	8b cb		 mov	 ecx, ebx
  00205	e8 00 00 00 00	 call	 ?_Rrotate@?$_Tree_val@U?$_Tree_simple_types@U?$pair@$$CBKPAVCColosseumMatch@@@std@@@std@@@std@@QAEXPAU?$_Tree_node@U?$pair@$$CBKPAVCColosseumMatch@@@std@@PAX@2@@Z ; std::_Tree_val<std::_Tree_simple_types<std::pair<unsigned long const ,CColosseumMatch *> > >::_Rrotate

; 618  :                             _Pnode = _Fixnodeparent->_Right;

  0020a	8b 4e 08	 mov	 ecx, DWORD PTR [esi+8]
$LN33@Extract:

; 619  :                         }
; 620  : 
; 621  :                         _Pnode->_Color         = _Fixnodeparent->_Color;

  0020d	8a 46 0c	 mov	 al, BYTE PTR [esi+12]
  00210	88 41 0c	 mov	 BYTE PTR [ecx+12], al

; 622  :                         _Fixnodeparent->_Color = _Black;

  00213	c6 46 0c 01	 mov	 BYTE PTR [esi+12], 1

; 623  :                         _Pnode->_Right->_Color = _Black;

  00217	8b 41 08	 mov	 eax, DWORD PTR [ecx+8]

; 624  :                         _Lrotate(_Fixnodeparent);

  0021a	8b cb		 mov	 ecx, ebx
  0021c	56		 push	 esi
  0021d	c6 40 0c 01	 mov	 BYTE PTR [eax+12], 1
  00221	e8 00 00 00 00	 call	 ?_Lrotate@?$_Tree_val@U?$_Tree_simple_types@U?$pair@$$CBKPAVCColosseumMatch@@@std@@@std@@@std@@QAEXPAU?$_Tree_node@U?$pair@$$CBKPAVCColosseumMatch@@@std@@PAX@2@@Z ; std::_Tree_val<std::_Tree_simple_types<std::pair<unsigned long const ,CColosseumMatch *> > >::_Lrotate

; 625  :                         break; // tree now recolored/rebalanced

  00226	e9 d3 00 00 00	 jmp	 $LN3@Extract
$LN26@Extract:

; 626  :                     }
; 627  :                 } else { // fixup right subtree
; 628  :                     _Pnode = _Fixnodeparent->_Left;
; 629  :                     if (_Pnode->_Color == _Red) { // rotate red up from left subtree

  0022b	80 79 0c 00	 cmp	 BYTE PTR [ecx+12], 0
  0022f	75 55		 jne	 SHORT $LN96@Extract

; 630  :                         _Pnode->_Color         = _Black;

  00231	c6 41 0c 01	 mov	 BYTE PTR [ecx+12], 1

; 506  :         _Nodeptr _Pnode   = _Wherenode->_Left;

  00235	8b 0e		 mov	 ecx, DWORD PTR [esi]

; 631  :                         _Fixnodeparent->_Color = _Red;

  00237	c6 46 0c 00	 mov	 BYTE PTR [esi+12], 0

; 507  :         _Wherenode->_Left = _Pnode->_Right;

  0023b	8b 41 08	 mov	 eax, DWORD PTR [ecx+8]
  0023e	89 06		 mov	 DWORD PTR [esi], eax

; 508  : 
; 509  :         if (!_Pnode->_Right->_Isnil) {

  00240	8b 41 08	 mov	 eax, DWORD PTR [ecx+8]
  00243	80 78 0d 00	 cmp	 BYTE PTR [eax+13], 0
  00247	75 03		 jne	 SHORT $LN69@Extract

; 510  :             _Pnode->_Right->_Parent = _Wherenode;

  00249	89 70 04	 mov	 DWORD PTR [eax+4], esi
$LN69@Extract:

; 511  :         }
; 512  : 
; 513  :         _Pnode->_Parent = _Wherenode->_Parent;

  0024c	8b 46 04	 mov	 eax, DWORD PTR [esi+4]
  0024f	8d 56 04	 lea	 edx, DWORD PTR [esi+4]
  00252	89 41 04	 mov	 DWORD PTR [ecx+4], eax

; 514  : 
; 515  :         if (_Wherenode == _Myhead->_Parent) {

  00255	8b 03		 mov	 eax, DWORD PTR [ebx]
  00257	3b 70 04	 cmp	 esi, DWORD PTR [eax+4]
  0025a	75 0c		 jne	 SHORT $LN70@Extract

; 516  :             _Myhead->_Parent = _Pnode;

  0025c	89 48 04	 mov	 DWORD PTR [eax+4], ecx

; 521  :         }
; 522  : 
; 523  :         _Pnode->_Right      = _Wherenode;

  0025f	89 71 08	 mov	 DWORD PTR [ecx+8], esi

; 524  :         _Wherenode->_Parent = _Pnode;

  00262	89 0a		 mov	 DWORD PTR [edx], ecx

; 632  :                         _Rrotate(_Fixnodeparent);
; 633  :                         _Pnode = _Fixnodeparent->_Left;

  00264	8b 0e		 mov	 ecx, DWORD PTR [esi]
  00266	eb 21		 jmp	 SHORT $LN86@Extract
$LN70@Extract:

; 517  :         } else if (_Wherenode == _Wherenode->_Parent->_Right) {

  00268	8b 02		 mov	 eax, DWORD PTR [edx]
  0026a	3b 70 08	 cmp	 esi, DWORD PTR [eax+8]
  0026d	75 0c		 jne	 SHORT $LN72@Extract

; 518  :             _Wherenode->_Parent->_Right = _Pnode;

  0026f	89 48 08	 mov	 DWORD PTR [eax+8], ecx

; 521  :         }
; 522  : 
; 523  :         _Pnode->_Right      = _Wherenode;

  00272	89 71 08	 mov	 DWORD PTR [ecx+8], esi

; 524  :         _Wherenode->_Parent = _Pnode;

  00275	89 0a		 mov	 DWORD PTR [edx], ecx

; 632  :                         _Rrotate(_Fixnodeparent);
; 633  :                         _Pnode = _Fixnodeparent->_Left;

  00277	8b 0e		 mov	 ecx, DWORD PTR [esi]
  00279	eb 0e		 jmp	 SHORT $LN86@Extract
$LN72@Extract:

; 520  :             _Wherenode->_Parent->_Left = _Pnode;

  0027b	89 08		 mov	 DWORD PTR [eax], ecx

; 521  :         }
; 522  : 
; 523  :         _Pnode->_Right      = _Wherenode;

  0027d	89 71 08	 mov	 DWORD PTR [ecx+8], esi

; 524  :         _Wherenode->_Parent = _Pnode;

  00280	89 0a		 mov	 DWORD PTR [edx], ecx

; 632  :                         _Rrotate(_Fixnodeparent);
; 633  :                         _Pnode = _Fixnodeparent->_Left;

  00282	8b 0e		 mov	 ecx, DWORD PTR [esi]
  00284	eb 03		 jmp	 SHORT $LN86@Extract
$LN96@Extract:
  00286	8d 56 04	 lea	 edx, DWORD PTR [esi+4]
$LN86@Extract:

; 634  :                     }
; 635  : 
; 636  :                     if (_Pnode->_Isnil) {

  00289	80 79 0d 00	 cmp	 BYTE PTR [ecx+13], 0
  0028d	75 18		 jne	 SHORT $LN2@Extract

; 637  :                         _Fixnode = _Fixnodeparent; // shouldn't happen
; 638  :                     } else if (_Pnode->_Right->_Color == _Black
; 639  :                                && _Pnode->_Left->_Color == _Black) { // redden left subtree with black children

  0028f	8b 59 08	 mov	 ebx, DWORD PTR [ecx+8]
  00292	80 7b 0c 01	 cmp	 BYTE PTR [ebx+12], 1
  00296	75 2c		 jne	 SHORT $LN98@Extract
  00298	8b 01		 mov	 eax, DWORD PTR [ecx]
  0029a	80 78 0c 01	 cmp	 BYTE PTR [eax+12], 1
  0029e	75 24		 jne	 SHORT $LN98@Extract
$LN142@Extract:

; 597  :             for (; _Fixnode != _Myhead->_Parent && _Fixnode->_Color == _Black; _Fixnodeparent = _Fixnode->_Parent) {

  002a0	8b 5d fc	 mov	 ebx, DWORD PTR _this$1$[ebp]
  002a3	c6 41 0c 00	 mov	 BYTE PTR [ecx+12], 0
$LN2@Extract:
  002a7	8b 03		 mov	 eax, DWORD PTR [ebx]
  002a9	8b 4d f4	 mov	 ecx, DWORD PTR tv1093[ebp]
  002ac	8b f9		 mov	 edi, ecx
  002ae	8b 32		 mov	 esi, DWORD PTR [edx]
  002b0	3b 48 04	 cmp	 ecx, DWORD PTR [eax+4]
  002b3	74 49		 je	 SHORT $LN3@Extract
  002b5	80 7f 0c 01	 cmp	 BYTE PTR [edi+12], 1
  002b9	89 75 f4	 mov	 DWORD PTR tv1093[ebp], esi
  002bc	0f 84 a1 fe ff
	ff		 je	 $LL4@Extract
  002c2	eb 3a		 jmp	 SHORT $LN3@Extract
$LN98@Extract:

; 640  :                         _Pnode->_Color = _Red;
; 641  :                         _Fixnode       = _Fixnodeparent;
; 642  :                     } else { // must rearrange left subtree
; 643  :                         if (_Pnode->_Left->_Color == _Black) { // rotate red up from right sub-subtree

  002c4	8b 01		 mov	 eax, DWORD PTR [ecx]
  002c6	80 78 0c 01	 cmp	 BYTE PTR [eax+12], 1
  002ca	75 17		 jne	 SHORT $LN101@Extract

; 644  :                             _Pnode->_Right->_Color = _Black;

  002cc	c6 43 0c 01	 mov	 BYTE PTR [ebx+12], 1

; 645  :                             _Pnode->_Color         = _Red;
; 646  :                             _Lrotate(_Pnode);

  002d0	8b 5d fc	 mov	 ebx, DWORD PTR _this$1$[ebp]
  002d3	c6 41 0c 00	 mov	 BYTE PTR [ecx+12], 0
  002d7	51		 push	 ecx
  002d8	8b cb		 mov	 ecx, ebx
  002da	e8 00 00 00 00	 call	 ?_Lrotate@?$_Tree_val@U?$_Tree_simple_types@U?$pair@$$CBKPAVCColosseumMatch@@@std@@@std@@@std@@QAEXPAU?$_Tree_node@U?$pair@$$CBKPAVCColosseumMatch@@@std@@PAX@2@@Z ; std::_Tree_val<std::_Tree_simple_types<std::pair<unsigned long const ,CColosseumMatch *> > >::_Lrotate

; 647  :                             _Pnode = _Fixnodeparent->_Left;

  002df	8b 0e		 mov	 ecx, DWORD PTR [esi]
  002e1	eb 03		 jmp	 SHORT $LN39@Extract
$LN101@Extract:

; 640  :                         _Pnode->_Color = _Red;
; 641  :                         _Fixnode       = _Fixnodeparent;
; 642  :                     } else { // must rearrange left subtree
; 643  :                         if (_Pnode->_Left->_Color == _Black) { // rotate red up from right sub-subtree

  002e3	8b 5d fc	 mov	 ebx, DWORD PTR _this$1$[ebp]
$LN39@Extract:

; 648  :                         }
; 649  : 
; 650  :                         _Pnode->_Color         = _Fixnodeparent->_Color;

  002e6	8a 46 0c	 mov	 al, BYTE PTR [esi+12]
  002e9	88 41 0c	 mov	 BYTE PTR [ecx+12], al

; 651  :                         _Fixnodeparent->_Color = _Black;

  002ec	c6 46 0c 01	 mov	 BYTE PTR [esi+12], 1

; 652  :                         _Pnode->_Left->_Color  = _Black;

  002f0	8b 01		 mov	 eax, DWORD PTR [ecx]

; 653  :                         _Rrotate(_Fixnodeparent);

  002f2	8b cb		 mov	 ecx, ebx
  002f4	56		 push	 esi
  002f5	c6 40 0c 01	 mov	 BYTE PTR [eax+12], 1
  002f9	e8 00 00 00 00	 call	 ?_Rrotate@?$_Tree_val@U?$_Tree_simple_types@U?$pair@$$CBKPAVCColosseumMatch@@@std@@@std@@@std@@QAEXPAU?$_Tree_node@U?$pair@$$CBKPAVCColosseumMatch@@@std@@PAX@2@@Z ; std::_Tree_val<std::_Tree_simple_types<std::pair<unsigned long const ,CColosseumMatch *> > >::_Rrotate
$LN3@Extract:

; 654  :                         break; // tree now recolored/rebalanced
; 655  :                     }
; 656  :                 }
; 657  :             }
; 658  : 
; 659  :             _Fixnode->_Color = _Black; // stopping node is black

  002fe	8b 45 f8	 mov	 eax, DWORD PTR __Erasednode$1$[ebp]
  00301	c6 47 0c 01	 mov	 BYTE PTR [edi+12], 1
$LN25@Extract:

; 660  :         }
; 661  : 
; 662  :         if (0 < _Mysize) {

  00305	8b 4b 04	 mov	 ecx, DWORD PTR [ebx+4]
  00308	85 c9		 test	 ecx, ecx
  0030a	74 04		 je	 SHORT $LN40@Extract

; 663  :             --_Mysize;

  0030c	49		 dec	 ecx
  0030d	89 4b 04	 mov	 DWORD PTR [ebx+4], ecx
$LN40@Extract:

; 664  :         }
; 665  : 
; 666  :         return _Erasednode;
; 667  :     }

  00310	5f		 pop	 edi
  00311	5e		 pop	 esi
  00312	5b		 pop	 ebx
  00313	8b e5		 mov	 esp, ebp
  00315	5d		 pop	 ebp
  00316	c2 04 00	 ret	 4
?_Extract@?$_Tree_val@U?$_Tree_simple_types@U?$pair@$$CBKPAVCColosseumMatch@@@std@@@std@@@std@@QAEPAU?$_Tree_node@U?$pair@$$CBKPAVCColosseumMatch@@@std@@PAX@2@V?$_Tree_unchecked_const_iterator@V?$_Tree_val@U?$_Tree_simple_types@U?$pair@$$CBKPAVCColosseumMatch@@@std@@@std@@@std@@U_Iterator_base0@2@@2@@Z ENDP ; std::_Tree_val<std::_Tree_simple_types<std::pair<unsigned long const ,CColosseumMatch *> > >::_Extract
_TEXT	ENDS
; Function compile flags: /Ogtp
; File C:\Program Files\Microsoft Visual Studio\2022\Professional\VC\Tools\MSVC\14.44.35207\include\xtree
;	COMDAT ?_Rrotate@?$_Tree_val@U?$_Tree_simple_types@U?$pair@$$CBKPAVCColosseumMatch@@@std@@@std@@@std@@QAEXPAU?$_Tree_node@U?$pair@$$CBKPAVCColosseumMatch@@@std@@PAX@2@@Z
_TEXT	SEGMENT
__Wherenode$ = 8					; size = 4
?_Rrotate@?$_Tree_val@U?$_Tree_simple_types@U?$pair@$$CBKPAVCColosseumMatch@@@std@@@std@@@std@@QAEXPAU?$_Tree_node@U?$pair@$$CBKPAVCColosseumMatch@@@std@@PAX@2@@Z PROC ; std::_Tree_val<std::_Tree_simple_types<std::pair<unsigned long const ,CColosseumMatch *> > >::_Rrotate, COMDAT
; _this$ = ecx

; 505  :     void _Rrotate(_Nodeptr _Wherenode) noexcept { // promote left node to root of subtree

  00000	55		 push	 ebp
  00001	8b ec		 mov	 ebp, esp

; 506  :         _Nodeptr _Pnode   = _Wherenode->_Left;

  00003	8b 55 08	 mov	 edx, DWORD PTR __Wherenode$[ebp]
  00006	56		 push	 esi
  00007	8b 32		 mov	 esi, DWORD PTR [edx]

; 507  :         _Wherenode->_Left = _Pnode->_Right;

  00009	8b 46 08	 mov	 eax, DWORD PTR [esi+8]
  0000c	89 02		 mov	 DWORD PTR [edx], eax

; 508  : 
; 509  :         if (!_Pnode->_Right->_Isnil) {

  0000e	8b 46 08	 mov	 eax, DWORD PTR [esi+8]
  00011	80 78 0d 00	 cmp	 BYTE PTR [eax+13], 0
  00015	75 03		 jne	 SHORT $LN2@Rrotate

; 510  :             _Pnode->_Right->_Parent = _Wherenode;

  00017	89 50 04	 mov	 DWORD PTR [eax+4], edx
$LN2@Rrotate:

; 511  :         }
; 512  : 
; 513  :         _Pnode->_Parent = _Wherenode->_Parent;

  0001a	8b 42 04	 mov	 eax, DWORD PTR [edx+4]
  0001d	89 46 04	 mov	 DWORD PTR [esi+4], eax

; 514  : 
; 515  :         if (_Wherenode == _Myhead->_Parent) {

  00020	8b 01		 mov	 eax, DWORD PTR [ecx]
  00022	3b 50 04	 cmp	 edx, DWORD PTR [eax+4]
  00025	75 0e		 jne	 SHORT $LN3@Rrotate

; 516  :             _Myhead->_Parent = _Pnode;

  00027	89 70 04	 mov	 DWORD PTR [eax+4], esi

; 521  :         }
; 522  : 
; 523  :         _Pnode->_Right      = _Wherenode;
; 524  :         _Wherenode->_Parent = _Pnode;
; 525  :     }

  0002a	89 56 08	 mov	 DWORD PTR [esi+8], edx
  0002d	89 72 04	 mov	 DWORD PTR [edx+4], esi
  00030	5e		 pop	 esi
  00031	5d		 pop	 ebp
  00032	c2 04 00	 ret	 4
$LN3@Rrotate:

; 517  :         } else if (_Wherenode == _Wherenode->_Parent->_Right) {

  00035	8b 42 04	 mov	 eax, DWORD PTR [edx+4]
  00038	3b 50 08	 cmp	 edx, DWORD PTR [eax+8]
  0003b	75 0e		 jne	 SHORT $LN5@Rrotate

; 518  :             _Wherenode->_Parent->_Right = _Pnode;

  0003d	89 70 08	 mov	 DWORD PTR [eax+8], esi

; 521  :         }
; 522  : 
; 523  :         _Pnode->_Right      = _Wherenode;
; 524  :         _Wherenode->_Parent = _Pnode;
; 525  :     }

  00040	89 56 08	 mov	 DWORD PTR [esi+8], edx
  00043	89 72 04	 mov	 DWORD PTR [edx+4], esi
  00046	5e		 pop	 esi
  00047	5d		 pop	 ebp
  00048	c2 04 00	 ret	 4
$LN5@Rrotate:

; 519  :         } else {
; 520  :             _Wherenode->_Parent->_Left = _Pnode;

  0004b	89 30		 mov	 DWORD PTR [eax], esi

; 521  :         }
; 522  : 
; 523  :         _Pnode->_Right      = _Wherenode;
; 524  :         _Wherenode->_Parent = _Pnode;
; 525  :     }

  0004d	89 56 08	 mov	 DWORD PTR [esi+8], edx
  00050	89 72 04	 mov	 DWORD PTR [edx+4], esi
  00053	5e		 pop	 esi
  00054	5d		 pop	 ebp
  00055	c2 04 00	 ret	 4
?_Rrotate@?$_Tree_val@U?$_Tree_simple_types@U?$pair@$$CBKPAVCColosseumMatch@@@std@@@std@@@std@@QAEXPAU?$_Tree_node@U?$pair@$$CBKPAVCColosseumMatch@@@std@@PAX@2@@Z ENDP ; std::_Tree_val<std::_Tree_simple_types<std::pair<unsigned long const ,CColosseumMatch *> > >::_Rrotate
_TEXT	ENDS
; Function compile flags: /Ogtp
; File C:\Program Files\Microsoft Visual Studio\2022\Professional\VC\Tools\MSVC\14.44.35207\include\xtree
;	COMDAT ?_Lrotate@?$_Tree_val@U?$_Tree_simple_types@U?$pair@$$CBKPAVCColosseumMatch@@@std@@@std@@@std@@QAEXPAU?$_Tree_node@U?$pair@$$CBKPAVCColosseumMatch@@@std@@PAX@2@@Z
_TEXT	SEGMENT
__Wherenode$ = 8					; size = 4
?_Lrotate@?$_Tree_val@U?$_Tree_simple_types@U?$pair@$$CBKPAVCColosseumMatch@@@std@@@std@@@std@@QAEXPAU?$_Tree_node@U?$pair@$$CBKPAVCColosseumMatch@@@std@@PAX@2@@Z PROC ; std::_Tree_val<std::_Tree_simple_types<std::pair<unsigned long const ,CColosseumMatch *> > >::_Lrotate, COMDAT
; _this$ = ecx

; 483  :     void _Lrotate(_Nodeptr _Wherenode) noexcept { // promote right node to root of subtree

  00000	55		 push	 ebp
  00001	8b ec		 mov	 ebp, esp

; 484  :         _Nodeptr _Pnode    = _Wherenode->_Right;

  00003	8b 55 08	 mov	 edx, DWORD PTR __Wherenode$[ebp]
  00006	56		 push	 esi
  00007	8b 72 08	 mov	 esi, DWORD PTR [edx+8]

; 485  :         _Wherenode->_Right = _Pnode->_Left;

  0000a	8b 06		 mov	 eax, DWORD PTR [esi]
  0000c	89 42 08	 mov	 DWORD PTR [edx+8], eax

; 486  : 
; 487  :         if (!_Pnode->_Left->_Isnil) {

  0000f	8b 06		 mov	 eax, DWORD PTR [esi]
  00011	80 78 0d 00	 cmp	 BYTE PTR [eax+13], 0
  00015	75 03		 jne	 SHORT $LN2@Lrotate

; 488  :             _Pnode->_Left->_Parent = _Wherenode;

  00017	89 50 04	 mov	 DWORD PTR [eax+4], edx
$LN2@Lrotate:

; 489  :         }
; 490  : 
; 491  :         _Pnode->_Parent = _Wherenode->_Parent;

  0001a	8b 42 04	 mov	 eax, DWORD PTR [edx+4]
  0001d	89 46 04	 mov	 DWORD PTR [esi+4], eax

; 492  : 
; 493  :         if (_Wherenode == _Myhead->_Parent) {

  00020	8b 01		 mov	 eax, DWORD PTR [ecx]
  00022	3b 50 04	 cmp	 edx, DWORD PTR [eax+4]
  00025	75 0d		 jne	 SHORT $LN3@Lrotate

; 494  :             _Myhead->_Parent = _Pnode;

  00027	89 70 04	 mov	 DWORD PTR [eax+4], esi

; 499  :         }
; 500  : 
; 501  :         _Pnode->_Left       = _Wherenode;
; 502  :         _Wherenode->_Parent = _Pnode;
; 503  :     }

  0002a	89 16		 mov	 DWORD PTR [esi], edx
  0002c	89 72 04	 mov	 DWORD PTR [edx+4], esi
  0002f	5e		 pop	 esi
  00030	5d		 pop	 ebp
  00031	c2 04 00	 ret	 4
$LN3@Lrotate:

; 495  :         } else if (_Wherenode == _Wherenode->_Parent->_Left) {

  00034	8b 42 04	 mov	 eax, DWORD PTR [edx+4]
  00037	3b 10		 cmp	 edx, DWORD PTR [eax]
  00039	75 0c		 jne	 SHORT $LN5@Lrotate

; 496  :             _Wherenode->_Parent->_Left = _Pnode;

  0003b	89 30		 mov	 DWORD PTR [eax], esi

; 499  :         }
; 500  : 
; 501  :         _Pnode->_Left       = _Wherenode;
; 502  :         _Wherenode->_Parent = _Pnode;
; 503  :     }

  0003d	89 16		 mov	 DWORD PTR [esi], edx
  0003f	89 72 04	 mov	 DWORD PTR [edx+4], esi
  00042	5e		 pop	 esi
  00043	5d		 pop	 ebp
  00044	c2 04 00	 ret	 4
$LN5@Lrotate:

; 497  :         } else {
; 498  :             _Wherenode->_Parent->_Right = _Pnode;

  00047	89 70 08	 mov	 DWORD PTR [eax+8], esi

; 499  :         }
; 500  : 
; 501  :         _Pnode->_Left       = _Wherenode;
; 502  :         _Wherenode->_Parent = _Pnode;
; 503  :     }

  0004a	89 16		 mov	 DWORD PTR [esi], edx
  0004c	89 72 04	 mov	 DWORD PTR [edx+4], esi
  0004f	5e		 pop	 esi
  00050	5d		 pop	 ebp
  00051	c2 04 00	 ret	 4
?_Lrotate@?$_Tree_val@U?$_Tree_simple_types@U?$pair@$$CBKPAVCColosseumMatch@@@std@@@std@@@std@@QAEXPAU?$_Tree_node@U?$pair@$$CBKPAVCColosseumMatch@@@std@@PAX@2@@Z ENDP ; std::_Tree_val<std::_Tree_simple_types<std::pair<unsigned long const ,CColosseumMatch *> > >::_Lrotate
_TEXT	ENDS
; Function compile flags: /Ogtp
; File C:\Program Files\Microsoft Visual Studio\2022\Professional\VC\Tools\MSVC\14.44.35207\include\xtree
; File C:\Program Files\Microsoft Visual Studio\2022\Professional\VC\Tools\MSVC\14.44.35207\include\utility
; File C:\Program Files\Microsoft Visual Studio\2022\Professional\VC\Tools\MSVC\14.44.35207\include\xmemory
; File C:\Program Files\Microsoft Visual Studio\2022\Professional\VC\Tools\MSVC\14.44.35207\include\xtree
; File C:\Program Files\Microsoft Visual Studio\2022\Professional\VC\Tools\MSVC\14.44.35207\include\xmemory
; File C:\Program Files\Microsoft Visual Studio\2022\Professional\VC\Tools\MSVC\14.44.35207\include\xtree
;	COMDAT ??1?$_Tree@V?$_Tmap_traits@KPAVCColosseumMatch@@U?$less@K@std@@V?$allocator@U?$pair@$$CBKPAVCColosseumMatch@@@std@@@3@$0A@@std@@@std@@QAE@XZ
_TEXT	SEGMENT
??1?$_Tree@V?$_Tmap_traits@KPAVCColosseumMatch@@U?$less@K@std@@V?$allocator@U?$pair@$$CBKPAVCColosseumMatch@@@std@@@3@$0A@@std@@@std@@QAE@XZ PROC ; std::_Tree<std::_Tmap_traits<unsigned long,CColosseumMatch *,std::less<unsigned long>,std::allocator<std::pair<unsigned long const ,CColosseumMatch *> >,0> >::~_Tree<std::_Tmap_traits<unsigned long,CColosseumMatch *,std::less<unsigned long>,std::allocator<std::pair<unsigned long const ,CColosseumMatch *> >,0> >, COMDAT
; _this$ = ecx

; 1095 :     ~_Tree() noexcept {

  00000	56		 push	 esi
  00001	57		 push	 edi
  00002	8b f9		 mov	 edi, ecx

; 777  :         _Erase_tree(_Al, _Myhead->_Parent);

  00004	8b 37		 mov	 esi, DWORD PTR [edi]
  00006	8b 76 04	 mov	 esi, DWORD PTR [esi+4]

; 768  :         while (!_Rootnode->_Isnil) { // free subtrees, then node

  00009	80 7e 0d 00	 cmp	 BYTE PTR [esi+13], 0
  0000d	75 21		 jne	 SHORT $LN61@Tree
  0000f	90		 npad	 1
$LL8@Tree:

; 769  :             _Erase_tree(_Al, _Rootnode->_Right);

  00010	ff 76 08	 push	 DWORD PTR [esi+8]
  00013	8b cf		 mov	 ecx, edi
  00015	57		 push	 edi
  00016	e8 00 00 00 00	 call	 ??$_Erase_tree@V?$allocator@U?$_Tree_node@U?$pair@$$CBKPAVCColosseumMatch@@@std@@PAX@std@@@std@@@?$_Tree_val@U?$_Tree_simple_types@U?$pair@$$CBKPAVCColosseumMatch@@@std@@@std@@@std@@QAEXAAV?$allocator@U?$_Tree_node@U?$pair@$$CBKPAVCColosseumMatch@@@std@@PAX@std@@@1@PAU?$_Tree_node@U?$pair@$$CBKPAVCColosseumMatch@@@std@@PAX@1@@Z ; std::_Tree_val<std::_Tree_simple_types<std::pair<unsigned long const ,CColosseumMatch *> > >::_Erase_tree<std::allocator<std::_Tree_node<std::pair<unsigned long const ,CColosseumMatch *>,void *> > >
; File C:\Program Files\Microsoft Visual Studio\2022\Professional\VC\Tools\MSVC\14.44.35207\include\utility

; 773  :     _Ty _Old_val = static_cast<_Ty&&>(_Val);

  0001b	8b c6		 mov	 eax, esi

; 774  :     _Val         = static_cast<_Other&&>(_New_val);

  0001d	8b 36		 mov	 esi, DWORD PTR [esi]
; File C:\Program Files\Microsoft Visual Studio\2022\Professional\VC\Tools\MSVC\14.44.35207\include\xmemory

; 289  :         ::operator delete(_Ptr, _Bytes);

  0001f	6a 18		 push	 24			; 00000018H
  00021	50		 push	 eax
  00022	e8 00 00 00 00	 call	 ??3@YAXPAXI@Z		; operator delete
  00027	83 c4 08	 add	 esp, 8
; File C:\Program Files\Microsoft Visual Studio\2022\Professional\VC\Tools\MSVC\14.44.35207\include\xtree

; 768  :         while (!_Rootnode->_Isnil) { // free subtrees, then node

  0002a	80 7e 0d 00	 cmp	 BYTE PTR [esi+13], 0
  0002e	74 e0		 je	 SHORT $LL8@Tree
$LN61@Tree:
; File C:\Program Files\Microsoft Visual Studio\2022\Professional\VC\Tools\MSVC\14.44.35207\include\xmemory

; 289  :         ::operator delete(_Ptr, _Bytes);

  00030	6a 18		 push	 24			; 00000018H
  00032	ff 37		 push	 DWORD PTR [edi]
  00034	e8 00 00 00 00	 call	 ??3@YAXPAXI@Z		; operator delete
  00039	83 c4 08	 add	 esp, 8
  0003c	5f		 pop	 edi
  0003d	5e		 pop	 esi
; File C:\Program Files\Microsoft Visual Studio\2022\Professional\VC\Tools\MSVC\14.44.35207\include\xtree

; 1102 :     }

  0003e	c3		 ret	 0
??1?$_Tree@V?$_Tmap_traits@KPAVCColosseumMatch@@U?$less@K@std@@V?$allocator@U?$pair@$$CBKPAVCColosseumMatch@@@std@@@3@$0A@@std@@@std@@QAE@XZ ENDP ; std::_Tree<std::_Tmap_traits<unsigned long,CColosseumMatch *,std::less<unsigned long>,std::allocator<std::pair<unsigned long const ,CColosseumMatch *> >,0> >::~_Tree<std::_Tmap_traits<unsigned long,CColosseumMatch *,std::less<unsigned long>,std::allocator<std::pair<unsigned long const ,CColosseumMatch *> >,0> >
_TEXT	ENDS
; Function compile flags: /Ogtp
; File C:\IAGOS\server\v18\Source\Source\_Common\Colosseum.cpp
; File C:\Program Files\Microsoft Visual Studio\2022\Professional\VC\Tools\MSVC\14.44.35207\include\xtree
; File C:\IAGOS\server\v18\Source\Source\_Common\Colosseum.cpp
; File C:\Program Files\Microsoft Visual Studio\2022\Professional\VC\Tools\MSVC\14.44.35207\include\xtree
; File C:\IAGOS\server\v18\Source\Source\_Common\Colosseum.cpp
; File C:\Program Files\Microsoft Visual Studio\2022\Professional\VC\Tools\MSVC\14.44.35207\include\xtree
; File C:\IAGOS\server\v18\Source\Source\_Common\Colosseum.cpp
;	COMDAT ?GetMatchByMoverID@CColosseumMng@@QAEPAVCColosseumMatch@@K@Z
_TEXT	SEGMENT
_it$1 = -4						; size = 4
_dwMoverID$ = 8						; size = 4
?GetMatchByMoverID@CColosseumMng@@QAEPAVCColosseumMatch@@K@Z PROC ; CColosseumMng::GetMatchByMoverID, COMDAT
; _this$ = ecx

; 167  : {

  00000	55		 push	 ebp
  00001	8b ec		 mov	 ebp, esp
  00003	51		 push	 ecx
  00004	56		 push	 esi
; File C:\Program Files\Microsoft Visual Studio\2022\Professional\VC\Tools\MSVC\14.44.35207\include\xtree

; 1142 :         return iterator(_Scary->_Myhead->_Left, _Scary);

  00005	8b 71 18	 mov	 esi, DWORD PTR [ecx+24]
; File C:\IAGOS\server\v18\Source\Source\_Common\Colosseum.cpp

; 167  : {

  00008	57		 push	 edi
; File C:\Program Files\Microsoft Visual Studio\2022\Professional\VC\Tools\MSVC\14.44.35207\include\xtree

; 37   :     _Tree_unchecked_const_iterator(_Nodeptr _Pnode, const _Mytree* _Plist) noexcept : _Ptr(_Pnode) {

  00009	8b 06		 mov	 eax, DWORD PTR [esi]
  0000b	89 45 fc	 mov	 DWORD PTR _it$1[ebp], eax

; 237  :         return !(*this == _Right);

  0000e	3b c6		 cmp	 eax, esi
; File C:\IAGOS\server\v18\Source\Source\_Common\Colosseum.cpp

; 168  : 	for( COLOSSEUMMATCH::iterator it = m_mapMatch.begin(); it != m_mapMatch.end(); it++ )

  00010	74 1a		 je	 SHORT $LN3@GetMatchBy
  00012	8b 7d 08	 mov	 edi, DWORD PTR _dwMoverID$[ebp]
$LL4@GetMatchBy:

; 169  : 	{
; 170  : 		CColosseumMatch* cMatch = it->second;

  00015	8b 40 14	 mov	 eax, DWORD PTR [eax+20]

; 171  : 		if( cMatch->m_nMoverID == dwMoverID )

  00018	39 78 28	 cmp	 DWORD PTR [eax+40], edi
  0001b	74 11		 je	 SHORT $LN1@GetMatchBy
; File C:\Program Files\Microsoft Visual Studio\2022\Professional\VC\Tools\MSVC\14.44.35207\include\xtree

; 198  :         _Mybase::operator++();

  0001d	8d 4d fc	 lea	 ecx, DWORD PTR _it$1[ebp]
  00020	e8 00 00 00 00	 call	 ??E?$_Tree_unchecked_const_iterator@V?$_Tree_val@U?$_Tree_simple_types@U?$pair@$$CBKPAVCColosseumMatch@@@std@@@std@@@std@@U_Iterator_base0@2@@std@@QAEAAV01@XZ ; std::_Tree_unchecked_const_iterator<std::_Tree_val<std::_Tree_simple_types<std::pair<unsigned long const ,CColosseumMatch *> > >,std::_Iterator_base0>::operator++

; 237  :         return !(*this == _Right);

  00025	8b 45 fc	 mov	 eax, DWORD PTR _it$1[ebp]
  00028	3b c6		 cmp	 eax, esi
; File C:\IAGOS\server\v18\Source\Source\_Common\Colosseum.cpp

; 168  : 	for( COLOSSEUMMATCH::iterator it = m_mapMatch.begin(); it != m_mapMatch.end(); it++ )

  0002a	75 e9		 jne	 SHORT $LL4@GetMatchBy
$LN3@GetMatchBy:

; 172  : 			return cMatch;
; 173  : 	}
; 174  : 
; 175  : 	return NULL;

  0002c	33 c0		 xor	 eax, eax
$LN1@GetMatchBy:
  0002e	5f		 pop	 edi

; 176  : }

  0002f	5e		 pop	 esi
  00030	8b e5		 mov	 esp, ebp
  00032	5d		 pop	 ebp
  00033	c2 04 00	 ret	 4
?GetMatchByMoverID@CColosseumMng@@QAEPAVCColosseumMatch@@K@Z ENDP ; CColosseumMng::GetMatchByMoverID
_TEXT	ENDS
; Function compile flags: /Ogtp
; File C:\IAGOS\server\v18\Source\Source\_Common\Colosseum.cpp
; File C:\Program Files\Microsoft Visual Studio\2022\Professional\VC\Tools\MSVC\14.44.35207\include\xtree
; File C:\IAGOS\server\v18\Source\Source\_Common\Colosseum.cpp
; File C:\Program Files\Microsoft Visual Studio\2022\Professional\VC\Tools\MSVC\14.44.35207\include\xtree
; File C:\IAGOS\server\v18\Source\Source\_Common\Colosseum.cpp
; File C:\Program Files\Microsoft Visual Studio\2022\Professional\VC\Tools\MSVC\14.44.35207\include\xtree
; File C:\IAGOS\server\v18\Source\Source\_Common\Colosseum.cpp
;	COMDAT ?GetMatchByParty@CColosseumMng@@QAEPAVCColosseumMatch@@PAVCParty@@@Z
_TEXT	SEGMENT
_it$1 = -4						; size = 4
_pParty$ = 8						; size = 4
?GetMatchByParty@CColosseumMng@@QAEPAVCColosseumMatch@@PAVCParty@@@Z PROC ; CColosseumMng::GetMatchByParty, COMDAT
; _this$ = ecx

; 158  : {

  00000	55		 push	 ebp
  00001	8b ec		 mov	 ebp, esp
  00003	51		 push	 ecx
  00004	56		 push	 esi
; File C:\Program Files\Microsoft Visual Studio\2022\Professional\VC\Tools\MSVC\14.44.35207\include\xtree

; 1142 :         return iterator(_Scary->_Myhead->_Left, _Scary);

  00005	8b 71 18	 mov	 esi, DWORD PTR [ecx+24]
; File C:\IAGOS\server\v18\Source\Source\_Common\Colosseum.cpp

; 158  : {

  00008	57		 push	 edi
; File C:\Program Files\Microsoft Visual Studio\2022\Professional\VC\Tools\MSVC\14.44.35207\include\xtree

; 37   :     _Tree_unchecked_const_iterator(_Nodeptr _Pnode, const _Mytree* _Plist) noexcept : _Ptr(_Pnode) {

  00009	8b 06		 mov	 eax, DWORD PTR [esi]
  0000b	89 45 fc	 mov	 DWORD PTR _it$1[ebp], eax

; 237  :         return !(*this == _Right);

  0000e	3b c6		 cmp	 eax, esi
; File C:\IAGOS\server\v18\Source\Source\_Common\Colosseum.cpp

; 159  : 	for( COLOSSEUMMATCH::iterator it = m_mapMatch.begin(); it != m_mapMatch.end(); it++ )

  00010	74 19		 je	 SHORT $LN3@GetMatchBy

; 160  : 		if( pParty->m_uPartyId == it->first )

  00012	8b 4d 08	 mov	 ecx, DWORD PTR _pParty$[ebp]
  00015	8b 39		 mov	 edi, DWORD PTR [ecx]
$LL4@GetMatchBy:
  00017	3b 78 10	 cmp	 edi, DWORD PTR [eax+16]
  0001a	74 19		 je	 SHORT $LN62@GetMatchBy
; File C:\Program Files\Microsoft Visual Studio\2022\Professional\VC\Tools\MSVC\14.44.35207\include\xtree

; 198  :         _Mybase::operator++();

  0001c	8d 4d fc	 lea	 ecx, DWORD PTR _it$1[ebp]
  0001f	e8 00 00 00 00	 call	 ??E?$_Tree_unchecked_const_iterator@V?$_Tree_val@U?$_Tree_simple_types@U?$pair@$$CBKPAVCColosseumMatch@@@std@@@std@@@std@@U_Iterator_base0@2@@std@@QAEAAV01@XZ ; std::_Tree_unchecked_const_iterator<std::_Tree_val<std::_Tree_simple_types<std::pair<unsigned long const ,CColosseumMatch *> > >,std::_Iterator_base0>::operator++

; 237  :         return !(*this == _Right);

  00024	8b 45 fc	 mov	 eax, DWORD PTR _it$1[ebp]
  00027	3b c6		 cmp	 eax, esi
; File C:\IAGOS\server\v18\Source\Source\_Common\Colosseum.cpp

; 159  : 	for( COLOSSEUMMATCH::iterator it = m_mapMatch.begin(); it != m_mapMatch.end(); it++ )

  00029	75 ec		 jne	 SHORT $LL4@GetMatchBy
$LN3@GetMatchBy:
  0002b	5f		 pop	 edi

; 162  : 
; 163  : 	return NULL;

  0002c	33 c0		 xor	 eax, eax

; 164  : }

  0002e	5e		 pop	 esi
  0002f	8b e5		 mov	 esp, ebp
  00031	5d		 pop	 ebp
  00032	c2 04 00	 ret	 4
$LN62@GetMatchBy:

; 161  : 			return it->second;

  00035	8b 40 14	 mov	 eax, DWORD PTR [eax+20]
  00038	5f		 pop	 edi

; 164  : }

  00039	5e		 pop	 esi
  0003a	8b e5		 mov	 esp, ebp
  0003c	5d		 pop	 ebp
  0003d	c2 04 00	 ret	 4
?GetMatchByParty@CColosseumMng@@QAEPAVCColosseumMatch@@PAVCParty@@@Z ENDP ; CColosseumMng::GetMatchByParty
_TEXT	ENDS
; Function compile flags: /Ogtp
; File C:\IAGOS\server\v18\Source\Source\_Common\Colosseum.cpp
; File C:\Program Files\Microsoft Visual Studio\2022\Professional\VC\Tools\MSVC\14.44.35207\include\xtree
; File C:\IAGOS\server\v18\Source\Source\_Common\Colosseum.cpp
; File C:\Program Files\Microsoft Visual Studio\2022\Professional\VC\Tools\MSVC\14.44.35207\include\xtree
; File C:\Program Files\Microsoft Visual Studio\2022\Professional\VC\Tools\MSVC\14.44.35207\include\type_traits
; File C:\Program Files\Microsoft Visual Studio\2022\Professional\VC\Tools\MSVC\14.44.35207\include\xtree
; File C:\IAGOS\server\v18\Source\Source\_Common\Colosseum.cpp
; File C:\Program Files\Microsoft Visual Studio\2022\Professional\VC\Tools\MSVC\14.44.35207\include\xtree
; File C:\Program Files\Microsoft Visual Studio\2022\Professional\VC\Tools\MSVC\14.44.35207\include\xmemory
; File C:\IAGOS\server\v18\Source\Source\_Common\Colosseum.cpp
;	COMDAT ?DestroyMatch@CColosseumMng@@QAEXK@Z
_TEXT	SEGMENT
__Loc$1 = -12						; size = 12
_m_uPartyID$ = 8					; size = 4
?DestroyMatch@CColosseumMng@@QAEXK@Z PROC		; CColosseumMng::DestroyMatch, COMDAT
; _this$ = ecx

; 107  : {

  00000	55		 push	 ebp
  00001	8b ec		 mov	 ebp, esp
  00003	83 ec 0c	 sub	 esp, 12			; 0000000cH
  00006	56		 push	 esi
  00007	57		 push	 edi
; File C:\Program Files\Microsoft Visual Studio\2022\Professional\VC\Tools\MSVC\14.44.35207\include\xtree

; 1384 :         const _Tree_find_result<_Nodeptr> _Loc = _Find_lower_bound(_Keyval);

  00008	8d 45 08	 lea	 eax, DWORD PTR _m_uPartyID$[ebp]
  0000b	50		 push	 eax
; File C:\IAGOS\server\v18\Source\Source\_Common\Colosseum.cpp

; 108  : 	COLOSSEUMMATCH::iterator it=m_mapMatch.find( m_uPartyID );

  0000c	8d 79 18	 lea	 edi, DWORD PTR [ecx+24]
; File C:\Program Files\Microsoft Visual Studio\2022\Professional\VC\Tools\MSVC\14.44.35207\include\xtree

; 1384 :         const _Tree_find_result<_Nodeptr> _Loc = _Find_lower_bound(_Keyval);

  0000f	8d 45 f4	 lea	 eax, DWORD PTR __Loc$1[ebp]
  00012	8b cf		 mov	 ecx, edi
  00014	50		 push	 eax
  00015	e8 00 00 00 00	 call	 ??$_Find_lower_bound@K@?$_Tree@V?$_Tmap_traits@KPAVCColosseumMatch@@U?$less@K@std@@V?$allocator@U?$pair@$$CBKPAVCColosseumMatch@@@std@@@3@$0A@@std@@@std@@IBE?AU?$_Tree_find_result@PAU?$_Tree_node@U?$pair@$$CBKPAVCColosseumMatch@@@std@@PAX@std@@@1@ABK@Z ; std::_Tree<std::_Tmap_traits<unsigned long,CColosseumMatch *,std::less<unsigned long>,std::allocator<std::pair<unsigned long const ,CColosseumMatch *> >,0> >::_Find_lower_bound<unsigned long>

; 1624 :         return !_Bound->_Isnil && !_DEBUG_LT_PRED(_Getcomp(), _Keyval, _Traits::_Kfn(_Bound->_Myval));

  0001a	8b 75 fc	 mov	 esi, DWORD PTR __Loc$1[ebp+8]
  0001d	80 7e 0d 00	 cmp	 BYTE PTR [esi+13], 0
  00021	75 2c		 jne	 SHORT $LN96@DestroyMat
; File C:\Program Files\Microsoft Visual Studio\2022\Professional\VC\Tools\MSVC\14.44.35207\include\type_traits

; 2380 :         return _Left < _Right;

  00023	8b 45 08	 mov	 eax, DWORD PTR _m_uPartyID$[ebp]
  00026	3b 46 10	 cmp	 eax, DWORD PTR [esi+16]
; File C:\Program Files\Microsoft Visual Studio\2022\Professional\VC\Tools\MSVC\14.44.35207\include\xtree

; 1624 :         return !_Bound->_Isnil && !_DEBUG_LT_PRED(_Getcomp(), _Keyval, _Traits::_Kfn(_Bound->_Myval));

  00029	72 24		 jb	 SHORT $LN96@DestroyMat

; 37   :     _Tree_unchecked_const_iterator(_Nodeptr _Pnode, const _Mytree* _Plist) noexcept : _Ptr(_Pnode) {

  0002b	3b 37		 cmp	 esi, DWORD PTR [edi]
; File C:\IAGOS\server\v18\Source\Source\_Common\Colosseum.cpp

; 109  : 	if( it == m_mapMatch.end() )

  0002d	74 20		 je	 SHORT $LN96@DestroyMat

; 110  : 		return;
; 111  : 		
; 112  : 	safe_delete ( it->second );

  0002f	8b 4e 14	 mov	 ecx, DWORD PTR [esi+20]
  00032	85 c9		 test	 ecx, ecx
  00034	74 06		 je	 SHORT $LN4@DestroyMat
  00036	8b 01		 mov	 eax, DWORD PTR [ecx]
  00038	6a 01		 push	 1
  0003a	ff 10		 call	 DWORD PTR [eax]
$LN4@DestroyMat:
; File C:\Program Files\Microsoft Visual Studio\2022\Professional\VC\Tools\MSVC\14.44.35207\include\xtree

; 1303 :         _Nodeptr _Erasednode = _Scary->_Extract(_Where); // node to erase

  0003c	56		 push	 esi
  0003d	8b cf		 mov	 ecx, edi
  0003f	e8 00 00 00 00	 call	 ?_Extract@?$_Tree_val@U?$_Tree_simple_types@U?$pair@$$CBKPAVCColosseumMatch@@@std@@@std@@@std@@QAEPAU?$_Tree_node@U?$pair@$$CBKPAVCColosseumMatch@@@std@@PAX@2@V?$_Tree_unchecked_const_iterator@V?$_Tree_val@U?$_Tree_simple_types@U?$pair@$$CBKPAVCColosseumMatch@@@std@@@std@@@std@@U_Iterator_base0@2@@2@@Z ; std::_Tree_val<std::_Tree_simple_types<std::pair<unsigned long const ,CColosseumMatch *> > >::_Extract
; File C:\Program Files\Microsoft Visual Studio\2022\Professional\VC\Tools\MSVC\14.44.35207\include\xmemory

; 289  :         ::operator delete(_Ptr, _Bytes);

  00044	6a 18		 push	 24			; 00000018H
  00046	50		 push	 eax
  00047	e8 00 00 00 00	 call	 ??3@YAXPAXI@Z		; operator delete
  0004c	83 c4 08	 add	 esp, 8
$LN96@DestroyMat:
  0004f	5f		 pop	 edi
; File C:\IAGOS\server\v18\Source\Source\_Common\Colosseum.cpp

; 114  : }

  00050	5e		 pop	 esi
  00051	8b e5		 mov	 esp, ebp
  00053	5d		 pop	 ebp
  00054	c2 04 00	 ret	 4
?DestroyMatch@CColosseumMng@@QAEXK@Z ENDP		; CColosseumMng::DestroyMatch
_TEXT	ENDS
; Function compile flags: /Ogtp
; File C:\IAGOS\server\v18\Source\Source\_Common\Colosseum.cpp
; File C:\IAGOS\server\v18\Source\Source\_Common\LuaBase.h
; File C:\IAGOS\server\v18\Source\Source\_Common\Colosseum.cpp
; File C:\IAGOS\server\v18\Source\Source\_Common\LuaBase.h
; File C:\IAGOS\server\v18\Source\Source\_Common\Colosseum.cpp
; File C:\Program Files\Microsoft Visual Studio\2022\Professional\VC\Tools\MSVC\14.44.35207\include\vector
; File C:\IAGOS\server\v18\Source\Source\_Common\Colosseum.cpp
; File C:\Program Files\Microsoft Visual Studio\2022\Professional\VC\Tools\MSVC\14.44.35207\include\vector
; File C:\Program Files\Microsoft Visual Studio\2022\Professional\VC\Tools\MSVC\14.44.35207\include\xutility
; File C:\Program Files\Microsoft Visual Studio\2022\Professional\VC\Tools\MSVC\14.44.35207\include\vector
; File C:\IAGOS\server\v18\Source\Source\_Common\Colosseum.cpp
; File C:\IAGOS\server\v18\Source\Source\_Common\LuaBase.h
; File C:\IAGOS\server\v18\Source\Source\_Common\Colosseum.cpp
;	COMDAT ?LoadScript@CColosseumMng@@QAEHXZ
_TEXT	SEGMENT
_srMonster$1 = -44					; size = 16
tv304 = -28						; size = 8
tv310 = -20						; size = 8
tv316 = -12						; size = 8
tv295 = -4						; size = 4
?LoadScript@CColosseumMng@@QAEHXZ PROC			; CColosseumMng::LoadScript, COMDAT
; _this$ = ecx

; 74   : {

  00000	55		 push	 ebp
  00001	8b ec		 mov	 ebp, esp
  00003	83 ec 2c	 sub	 esp, 44			; 0000002cH
  00006	53		 push	 ebx
  00007	8b d9		 mov	 ebx, ecx
  00009	57		 push	 edi

; 75   : 	if( m_Lua.RunScript( "Colosseum.lua" ) != 0 )

  0000a	68 00 00 00 00	 push	 OFFSET ??_C@_0O@LDNHLNNB@Colosseum?4lua@
  0000f	8d 4b 04	 lea	 ecx, DWORD PTR [ebx+4]
  00012	e8 00 00 00 00	 call	 ?RunScript@CLuaBase@@QAEHPBD@Z ; CLuaBase::RunScript
  00017	85 c0		 test	 eax, eax
  00019	0f 85 55 01 00
	00		 jne	 $LN31@LoadScript

; 79   : 	}
; 80   : 
; 81   : 	nStartWaitTime = static_cast<int>( m_Lua.GetGlobalNumber( "StartWaitTime" ) );

  0001f	68 00 00 00 00	 push	 OFFSET ??_C@_0O@LCKPEMLD@StartWaitTime@
  00024	8d 4b 04	 lea	 ecx, DWORD PTR [ebx+4]
  00027	e8 00 00 00 00	 call	 ?GetGlobalNumber@CLuaBase@@QAENPAD@Z ; CLuaBase::GetGlobalNumber
  0002c	e8 00 00 00 00	 call	 __ftol2_sse

; 82   : 	nWaitAfterStage = static_cast<int>( m_Lua.GetGlobalNumber( "WaitAfterStage" ) );

  00031	68 00 00 00 00	 push	 OFFSET ??_C@_0P@FHAALCDJ@WaitAfterStage@
  00036	8d 4b 04	 lea	 ecx, DWORD PTR [ebx+4]
  00039	89 43 0c	 mov	 DWORD PTR [ebx+12], eax
  0003c	e8 00 00 00 00	 call	 ?GetGlobalNumber@CLuaBase@@QAENPAD@Z ; CLuaBase::GetGlobalNumber
  00041	e8 00 00 00 00	 call	 __ftol2_sse

; 83   : 	byMaxLowStage	=	static_cast<BYTE>( m_Lua.GetGlobalNumber( "LowStages" ) );

  00046	68 00 00 00 00	 push	 OFFSET ??_C@_09HHJPKIBP@LowStages@
  0004b	8d 4b 04	 lea	 ecx, DWORD PTR [ebx+4]
  0004e	89 43 10	 mov	 DWORD PTR [ebx+16], eax
  00051	e8 00 00 00 00	 call	 ?GetGlobalNumber@CLuaBase@@QAENPAD@Z ; CLuaBase::GetGlobalNumber
  00056	e8 00 00 00 00	 call	 __ftol2

; 84   : 	byMaxHardStage	=	static_cast<BYTE>( m_Lua.GetGlobalNumber( "HardStages" ) );

  0005b	68 00 00 00 00	 push	 OFFSET ??_C@_0L@IGABJCKB@HardStages@
  00060	8d 4b 04	 lea	 ecx, DWORD PTR [ebx+4]
  00063	88 43 14	 mov	 BYTE PTR [ebx+20], al
  00066	e8 00 00 00 00	 call	 ?GetGlobalNumber@CLuaBase@@QAENPAD@Z ; CLuaBase::GetGlobalNumber
  0006b	e8 00 00 00 00	 call	 __ftol2
; File C:\IAGOS\server\v18\Source\Source\_Common\LuaBase.h

; 47   : 	void		GetGloabal( char* szName )					{  lua_getglobal( m_pLuaState, szName );  }

  00070	68 00 00 00 00	 push	 OFFSET ??_C@_08EABLEDPJ@tMonster@
  00075	ff 73 08	 push	 DWORD PTR [ebx+8]
; File C:\IAGOS\server\v18\Source\Source\_Common\Colosseum.cpp

; 84   : 	byMaxHardStage	=	static_cast<BYTE>( m_Lua.GetGlobalNumber( "HardStages" ) );

  00078	88 43 15	 mov	 BYTE PTR [ebx+21], al
; File C:\IAGOS\server\v18\Source\Source\_Common\LuaBase.h

; 47   : 	void		GetGloabal( char* szName )					{  lua_getglobal( m_pLuaState, szName );  }

  0007b	e8 00 00 00 00	 call	 _lua_getglobal

; 40   : 	void		PushNil()									{  lua_pushnil( m_pLuaState );  }

  00080	ff 73 08	 push	 DWORD PTR [ebx+8]
  00083	e8 00 00 00 00	 call	 _lua_pushnil

; 46   : 	int			TableLoop( int nStackPos )					{  return lua_next( m_pLuaState, nStackPos );  }	

  00088	6a fe		 push	 -2			; fffffffeH
  0008a	ff 73 08	 push	 DWORD PTR [ebx+8]
  0008d	e8 00 00 00 00	 call	 _lua_next
  00092	83 c4 14	 add	 esp, 20			; 00000014H
; File C:\IAGOS\server\v18\Source\Source\_Common\Colosseum.cpp

; 89   : 	while( m_Lua.TableLoop( -2 ) )

  00095	85 c0		 test	 eax, eax
  00097	0f 84 c2 00 00
	00		 je	 $LN3@LoadScript
  0009d	56		 push	 esi
  0009e	66 90		 npad	 2
$LL2@LoadScript:

; 90   : 	{
; 91   : 		__COLOSSEUM_MONSTER srMonster;
; 92   : 		srMonster.dwId = static_cast<int>( CScript::GetDefineNum( m_Lua.GetFieldToString( -1, "strMonsterId" ) ) );

  000a0	68 00 00 00 00	 push	 OFFSET ??_C@_0N@PIEFIFMF@strMonsterId@
  000a5	6a ff		 push	 -1
  000a7	8d 4b 04	 lea	 ecx, DWORD PTR [ebx+4]
  000aa	e8 00 00 00 00	 call	 ?GetFieldToString@CLuaBase@@QAEPBDHPAD@Z ; CLuaBase::GetFieldToString
  000af	50		 push	 eax
  000b0	e8 00 00 00 00	 call	 ?GetDefineNum@CScript@@SAHPBD@Z ; CScript::GetDefineNum
  000b5	83 c4 04	 add	 esp, 4
  000b8	89 45 fc	 mov	 DWORD PTR tv295[ebp], eax

; 93   : 		srMonster.nTime = static_cast<int>( m_Lua.GetFieldToNumber( -1, "nTime" ) );

  000bb	8d 4b 04	 lea	 ecx, DWORD PTR [ebx+4]
  000be	89 45 d4	 mov	 DWORD PTR _srMonster$1[ebp], eax
  000c1	68 00 00 00 00	 push	 OFFSET ??_C@_05KPPLCGGF@nTime@
  000c6	6a ff		 push	 -1
  000c8	e8 00 00 00 00	 call	 ?GetFieldToNumber@CLuaBase@@QAENHPAD@Z ; CLuaBase::GetFieldToNumber
  000cd	dd 5d f4	 fstp	 QWORD PTR tv316[ebp]
  000d0	f2 0f 2c 45 f4	 cvttsd2si eax, QWORD PTR tv316[ebp]

; 94   : 		srMonster.nStage = static_cast<int>( m_Lua.GetFieldToNumber( -1, "nStage" ) );

  000d5	68 00 00 00 00	 push	 OFFSET ??_C@_06OJNKPJEO@nStage@
  000da	6a ff		 push	 -1
  000dc	8d 4b 04	 lea	 ecx, DWORD PTR [ebx+4]
  000df	89 45 d8	 mov	 DWORD PTR _srMonster$1[ebp+4], eax
  000e2	e8 00 00 00 00	 call	 ?GetFieldToNumber@CLuaBase@@QAENHPAD@Z ; CLuaBase::GetFieldToNumber
  000e7	dd 5d ec	 fstp	 QWORD PTR tv310[ebp]
  000ea	f2 0f 2c 45 ec	 cvttsd2si eax, QWORD PTR tv310[ebp]

; 95   : 		srMonster.nDifficult = static_cast<int>( m_Lua.GetFieldToNumber(-1, "nType" ) );

  000ef	68 00 00 00 00	 push	 OFFSET ??_C@_05OLBMEBNJ@nType@
  000f4	6a ff		 push	 -1
  000f6	8d 4b 04	 lea	 ecx, DWORD PTR [ebx+4]
  000f9	89 45 dc	 mov	 DWORD PTR _srMonster$1[ebp+8], eax
  000fc	e8 00 00 00 00	 call	 ?GetFieldToNumber@CLuaBase@@QAENHPAD@Z ; CLuaBase::GetFieldToNumber
; File C:\Program Files\Microsoft Visual Studio\2022\Professional\VC\Tools\MSVC\14.44.35207\include\vector

; 844  :         if (_Mylast != _My_data._Myend) {

  00101	8b 43 24	 mov	 eax, DWORD PTR [ebx+36]
; File C:\IAGOS\server\v18\Source\Source\_Common\Colosseum.cpp

; 95   : 		srMonster.nDifficult = static_cast<int>( m_Lua.GetFieldToNumber(-1, "nType" ) );

  00104	dd 5d e4	 fstp	 QWORD PTR tv304[ebp]
  00107	f2 0f 2c 55 e4	 cvttsd2si edx, QWORD PTR tv304[ebp]
  0010c	89 55 e0	 mov	 DWORD PTR _srMonster$1[ebp+12], edx
; File C:\Program Files\Microsoft Visual Studio\2022\Professional\VC\Tools\MSVC\14.44.35207\include\vector

; 844  :         if (_Mylast != _My_data._Myend) {

  0010f	3b 43 28	 cmp	 eax, DWORD PTR [ebx+40]
  00112	74 1e		 je	 SHORT $LN15@LoadScript
; File C:\Program Files\Microsoft Visual Studio\2022\Professional\VC\Tools\MSVC\14.44.35207\include\xutility

; 476  :         ::new (static_cast<void*>(_STD addressof(_Obj))) _Ty(_STD forward<_Types>(_Args)...);

  00114	8b 4d fc	 mov	 ecx, DWORD PTR tv295[ebp]
  00117	89 08		 mov	 DWORD PTR [eax], ecx
  00119	f2 0f 2c 4d f4	 cvttsd2si ecx, QWORD PTR tv316[ebp]
  0011e	89 48 04	 mov	 DWORD PTR [eax+4], ecx
  00121	f2 0f 2c 4d ec	 cvttsd2si ecx, QWORD PTR tv310[ebp]
  00126	89 48 08	 mov	 DWORD PTR [eax+8], ecx
  00129	89 50 0c	 mov	 DWORD PTR [eax+12], edx
; File C:\Program Files\Microsoft Visual Studio\2022\Professional\VC\Tools\MSVC\14.44.35207\include\vector

; 869  :         ++_Mylast;

  0012c	83 43 24 10	 add	 DWORD PTR [ebx+36], 16	; 00000010H

; 845  :             return _Emplace_back_with_unused_capacity(_STD forward<_Valty>(_Val)...);

  00130	eb 0d		 jmp	 SHORT $LN14@LoadScript
$LN15@LoadScript:

; 846  :         }
; 847  : 
; 848  :         return *_Emplace_reallocate(_Mylast, _STD forward<_Valty>(_Val)...);

  00132	8d 4d d4	 lea	 ecx, DWORD PTR _srMonster$1[ebp]
  00135	51		 push	 ecx
  00136	50		 push	 eax
  00137	8d 4b 20	 lea	 ecx, DWORD PTR [ebx+32]
  0013a	e8 00 00 00 00	 call	 ??$_Emplace_reallocate@ABU__COLOSSEUM_MONSTER@@@?$vector@U__COLOSSEUM_MONSTER@@V?$allocator@U__COLOSSEUM_MONSTER@@@std@@@std@@AAEPAU__COLOSSEUM_MONSTER@@QAU2@ABU2@@Z ; std::vector<__COLOSSEUM_MONSTER,std::allocator<__COLOSSEUM_MONSTER> >::_Emplace_reallocate<__COLOSSEUM_MONSTER const &>
$LN14@LoadScript:
; File C:\IAGOS\server\v18\Source\Source\_Common\Colosseum.cpp

; 97   : 		m_Lua.Pop(1);

  0013f	6a 01		 push	 1
  00141	8d 4b 04	 lea	 ecx, DWORD PTR [ebx+4]
  00144	e8 00 00 00 00	 call	 ?Pop@CLuaBase@@QAEXH@Z	; CLuaBase::Pop
; File C:\IAGOS\server\v18\Source\Source\_Common\LuaBase.h

; 46   : 	int			TableLoop( int nStackPos )					{  return lua_next( m_pLuaState, nStackPos );  }	

  00149	6a fe		 push	 -2			; fffffffeH
  0014b	ff 73 08	 push	 DWORD PTR [ebx+8]
  0014e	e8 00 00 00 00	 call	 _lua_next
  00153	83 c4 08	 add	 esp, 8
; File C:\IAGOS\server\v18\Source\Source\_Common\Colosseum.cpp

; 89   : 	while( m_Lua.TableLoop( -2 ) )

  00156	85 c0		 test	 eax, eax
  00158	0f 85 42 ff ff
	ff		 jne	 $LL2@LoadScript
  0015e	5e		 pop	 esi
$LN3@LoadScript:

; 98   : 	}
; 99   : 
; 100  : 	m_Lua.Pop(0);

  0015f	6a 00		 push	 0
  00161	8d 4b 04	 lea	 ecx, DWORD PTR [ebx+4]
  00164	e8 00 00 00 00	 call	 ?Pop@CLuaBase@@QAEXH@Z	; CLuaBase::Pop

; 101  : 
; 102  : 
; 103  : 	return TRUE;
; 104  : }

  00169	5f		 pop	 edi
  0016a	b8 01 00 00 00	 mov	 eax, 1
  0016f	5b		 pop	 ebx
  00170	8b e5		 mov	 esp, ebp
  00172	5d		 pop	 ebp
  00173	c3		 ret	 0
$LN31@LoadScript:

; 76   : 	{
; 77   : 		Error( "[CRITICAL] Colosseum.lua is missing." );

  00174	68 00 00 00 00	 push	 OFFSET ??_C@_0CF@IAGFACGP@?$FLCRITICAL?$FN?5Colosseum?4lua?5is?5mis@
  00179	e8 00 00 00 00	 call	 ?Error@@YAPBDPBDZZ	; Error
  0017e	83 c4 04	 add	 esp, 4

; 78   : 		exit(0);

  00181	6a 00		 push	 0
  00183	e8 00 00 00 00	 call	 _exit
$LN29@LoadScript:
  00188	cc		 int	 3
?LoadScript@CColosseumMng@@QAEHXZ ENDP			; CColosseumMng::LoadScript
_TEXT	ENDS
; Function compile flags: /Ogtp
; File C:\IAGOS\server\v18\Source\Source\_Common\Colosseum.cpp
; File C:\Program Files\Microsoft Visual Studio\2022\Professional\VC\Tools\MSVC\14.44.35207\include\xtree
; File C:\IAGOS\server\v18\Source\Source\_Common\Colosseum.cpp
; File C:\Program Files\Microsoft Visual Studio\2022\Professional\VC\Tools\MSVC\14.44.35207\include\vector
; File C:\IAGOS\server\v18\Source\Source\_Common\Colosseum.cpp
; File C:\Program Files\Microsoft Visual Studio\2022\Professional\VC\Tools\MSVC\14.44.35207\include\vector
; File C:\IAGOS\server\v18\Source\Source\_Common\Colosseum.cpp
; File C:\Program Files\Microsoft Visual Studio\2022\Professional\VC\Tools\MSVC\14.44.35207\include\vector
; File C:\IAGOS\server\v18\Source\Source\_Common\Colosseum.cpp
; File C:\IAGOS\server\v18\Source\Source\_Common\Obj.h
; File C:\IAGOS\server\v18\Source\Source\_Common\Colosseum.cpp
; File C:\Program Files\Microsoft Visual Studio\2022\Professional\VC\Tools\MSVC\14.44.35207\include\vector
; File C:\IAGOS\server\v18\Source\Source\_Common\Colosseum.cpp
; File C:\Program Files\Microsoft Visual Studio\2022\Professional\VC\Tools\MSVC\14.44.35207\include\vector
; File C:\IAGOS\server\v18\Source\Source\_Common\Colosseum.cpp
; File C:\Program Files\Microsoft Visual Studio\2022\Professional\VC\Tools\MSVC\14.44.35207\include\xtree
; File C:\IAGOS\server\v18\Source\Source\_Common\Colosseum.cpp
; File C:\Program Files\Microsoft Visual Studio\2022\Professional\VC\Tools\MSVC\14.44.35207\include\vector
; File C:\IAGOS\server\v18\Source\Source\_Common\Colosseum.cpp
;	COMDAT ?Process@CColosseumMng@@QAEXXZ
_TEXT	SEGMENT
_it$1 = -4						; size = 4
?Process@CColosseumMng@@QAEXXZ PROC			; CColosseumMng::Process, COMDAT
; _this$ = ecx

; 117  : {

  00000	55		 push	 ebp
  00001	8b ec		 mov	 ebp, esp
  00003	51		 push	 ecx
  00004	53		 push	 ebx
  00005	8b d9		 mov	 ebx, ecx
; File C:\Program Files\Microsoft Visual Studio\2022\Professional\VC\Tools\MSVC\14.44.35207\include\xtree

; 1142 :         return iterator(_Scary->_Myhead->_Left, _Scary);

  00007	8b 53 18	 mov	 edx, DWORD PTR [ebx+24]

; 37   :     _Tree_unchecked_const_iterator(_Nodeptr _Pnode, const _Mytree* _Plist) noexcept : _Ptr(_Pnode) {

  0000a	8b 02		 mov	 eax, DWORD PTR [edx]
  0000c	89 45 fc	 mov	 DWORD PTR _it$1[ebp], eax

; 237  :         return !(*this == _Right);

  0000f	3b c2		 cmp	 eax, edx
; File C:\IAGOS\server\v18\Source\Source\_Common\Colosseum.cpp

; 118  : 	for( COLOSSEUMMATCH::iterator it = m_mapMatch.begin(); it != m_mapMatch.end(); it++ )

  00011	0f 84 e1 00 00
	00		 je	 $LN91@Process
  00017	56		 push	 esi
  00018	57		 push	 edi
  00019	0f 1f 80 00 00
	00 00		 npad	 7
$LL4@Process:

; 119  : 	{
; 120  : 		u_long idParty = it->first;
; 121  : 		CColosseumMatch* pMatch = it->second;

  00020	8b 70 14	 mov	 esi, DWORD PTR [eax+20]

; 122  : 
; 123  : 		if( !pMatch ) return;

  00023	85 f6		 test	 esi, esi
  00025	0f 84 cb 00 00
	00		 je	 $LN109@Process

; 124  : 
; 125  : 		CMover* pMover = prj.GetMover(pMatch->m_nMoverID);

  0002b	ff 76 28	 push	 DWORD PTR [esi+40]
  0002e	b9 00 00 00 00	 mov	 ecx, OFFSET ?prj@@3VCProject@@A ; prj
  00033	e8 00 00 00 00	 call	 ?GetMover@CProject@@QAEPAVCMover@@K@Z ; CProject::GetMover
  00038	8b 4e 10	 mov	 ecx, DWORD PTR [esi+16]

; 126  : 		if( pMover )

  0003b	85 c0		 test	 eax, eax
  0003d	74 1a		 je	 SHORT $LN9@Process

; 127  : 		{
; 128  : 			if( pMatch->m_nNextStage < (int)g_tmCurrent )

  0003f	3b 0d 00 00 00
	00		 cmp	 ecx, DWORD PTR ?g_tmCurrent@@3KA ; g_tmCurrent
  00045	0f 8d 97 00 00
	00		 jge	 $LN2@Process

; 129  : 				pMatch->EndMatch( FALSE );

  0004b	6a 00		 push	 0
  0004d	8b ce		 mov	 ecx, esi
  0004f	e8 00 00 00 00	 call	 ?EndMatch@CColosseumMatch@@QAEXH@Z ; CColosseumMatch::EndMatch

; 130  : 		}

  00054	e9 89 00 00 00	 jmp	 $LN2@Process
$LN9@Process:

; 131  : 		else
; 132  : 		{
; 133  : 			if( pMatch->m_nNextStage < (int)g_tmCurrent )

  00059	3b 0d 00 00 00
	00		 cmp	 ecx, DWORD PTR ?g_tmCurrent@@3KA ; g_tmCurrent
  0005f	0f 8d 7d 00 00
	00		 jge	 $LN2@Process

; 134  : 			{
; 135  : 				if( pMatch->m_nStage == 0 )

  00065	80 7e 08 00	 cmp	 BYTE PTR [esi+8], 0
  00069	75 53		 jne	 SHORT $LN6@Process
; File C:\Program Files\Microsoft Visual Studio\2022\Professional\VC\Tools\MSVC\14.44.35207\include\vector

; 1915 :         return static_cast<size_type>(_My_data._Mylast - _My_data._Myfirst);

  0006b	8b 4e 20	 mov	 ecx, DWORD PTR [esi+32]
; File C:\IAGOS\server\v18\Source\Source\_Common\Colosseum.cpp

; 137  : 					for( string::size_type i = 0; i < pMatch->m_vecPlayerID.size(); i++ )

  0006e	33 ff		 xor	 edi, edi
; File C:\Program Files\Microsoft Visual Studio\2022\Professional\VC\Tools\MSVC\14.44.35207\include\vector

; 1915 :         return static_cast<size_type>(_My_data._Mylast - _My_data._Myfirst);

  00070	8b 56 1c	 mov	 edx, DWORD PTR [esi+28]
  00073	8b c1		 mov	 eax, ecx
  00075	2b c2		 sub	 eax, edx
  00077	c1 f8 02	 sar	 eax, 2
; File C:\IAGOS\server\v18\Source\Source\_Common\Colosseum.cpp

; 137  : 					for( string::size_type i = 0; i < pMatch->m_vecPlayerID.size(); i++ )

  0007a	85 c0		 test	 eax, eax
  0007c	74 40		 je	 SHORT $LN6@Process
  0007e	66 90		 npad	 2
$LL7@Process:
; File C:\Program Files\Microsoft Visual Studio\2022\Professional\VC\Tools\MSVC\14.44.35207\include\vector

; 1949 :         if (static_cast<size_type>(_My_data._Mylast - _My_data._Myfirst) <= _Pos) {

  00080	2b ca		 sub	 ecx, edx
  00082	c1 f9 02	 sar	 ecx, 2
  00085	3b cf		 cmp	 ecx, edi
  00087	76 74		 jbe	 SHORT $LN87@Process
; File C:\IAGOS\server\v18\Source\Source\_Common\Colosseum.cpp

; 139  : 						CUser* pUser = pMatch->GetUser( pMatch->m_vecPlayerID.at(i) );

  00089	ff 34 ba	 push	 DWORD PTR [edx+edi*4]
  0008c	8b ce		 mov	 ecx, esi
  0008e	e8 00 00 00 00	 call	 ?GetUser@CColosseumMatch@@QAEPAVCUser@@K@Z ; CColosseumMatch::GetUser
; File C:\IAGOS\server\v18\Source\Source\_Common\Obj.h

; 327  : 	return pObj && ( pObj->IsDelete() == FALSE ); 

  00093	85 c0		 test	 eax, eax
  00095	74 15		 je	 SHORT $LN5@Process

; 180  : 	BOOL			IsDelete()	{ return (m_dwFlags & OBJ_FLAG_DELETE);  }

  00097	f6 40 04 01	 test	 BYTE PTR [eax+4], 1

; 327  : 	return pObj && ( pObj->IsDelete() == FALSE ); 

  0009b	75 0f		 jne	 SHORT $LN5@Process
; File C:\IAGOS\server\v18\Source\Source\_Common\Colosseum.cpp

; 140  : 						if( IsValidObj( pUser ) && pMatch->m_bWaitTime )

  0009d	83 7e 14 00	 cmp	 DWORD PTR [esi+20], 0
  000a1	74 09		 je	 SHORT $LN5@Process

; 141  : 							pUser->SendColosseumStart(0);

  000a3	6a 00		 push	 0
  000a5	8b c8		 mov	 ecx, eax
  000a7	e8 00 00 00 00	 call	 ?SendColosseumStart@CUser@@QAEXH@Z ; CUser::SendColosseumStart
$LN5@Process:
; File C:\Program Files\Microsoft Visual Studio\2022\Professional\VC\Tools\MSVC\14.44.35207\include\vector

; 1915 :         return static_cast<size_type>(_My_data._Mylast - _My_data._Myfirst);

  000ac	8b 4e 20	 mov	 ecx, DWORD PTR [esi+32]
; File C:\IAGOS\server\v18\Source\Source\_Common\Colosseum.cpp

; 137  : 					for( string::size_type i = 0; i < pMatch->m_vecPlayerID.size(); i++ )

  000af	47		 inc	 edi
; File C:\Program Files\Microsoft Visual Studio\2022\Professional\VC\Tools\MSVC\14.44.35207\include\vector

; 1915 :         return static_cast<size_type>(_My_data._Mylast - _My_data._Myfirst);

  000b0	8b 56 1c	 mov	 edx, DWORD PTR [esi+28]
  000b3	8b c1		 mov	 eax, ecx
  000b5	2b c2		 sub	 eax, edx
  000b7	c1 f8 02	 sar	 eax, 2
; File C:\IAGOS\server\v18\Source\Source\_Common\Colosseum.cpp

; 137  : 					for( string::size_type i = 0; i < pMatch->m_vecPlayerID.size(); i++ )

  000ba	3b f8		 cmp	 edi, eax
  000bc	72 c2		 jb	 SHORT $LL7@Process
$LN6@Process:

; 142  : 					}
; 143  : 				}
; 144  : 				if( pMatch->m_nStage >= byMaxLowStage )

  000be	8a 46 08	 mov	 al, BYTE PTR [esi+8]
  000c1	8b ce		 mov	 ecx, esi
  000c3	3a 43 14	 cmp	 al, BYTE PTR [ebx+20]
  000c6	72 09		 jb	 SHORT $LN15@Process

; 145  : 					pMatch->EndMatch( TRUE );

  000c8	6a 01		 push	 1
  000ca	e8 00 00 00 00	 call	 ?EndMatch@CColosseumMatch@@QAEXH@Z ; CColosseumMatch::EndMatch
  000cf	eb 11		 jmp	 SHORT $LN2@Process
$LN15@Process:

; 146  : 				else
; 147  : 				{
; 148  : 					pMatch->m_bWaitTime = FALSE;
; 149  : 					pMatch->m_nStage++;

  000d1	fe c0		 inc	 al
  000d3	c7 46 14 00 00
	00 00		 mov	 DWORD PTR [esi+20], 0
  000da	88 46 08	 mov	 BYTE PTR [esi+8], al

; 150  : 					pMatch->CreateMover();

  000dd	e8 00 00 00 00	 call	 ?CreateMover@CColosseumMatch@@QAEXXZ ; CColosseumMatch::CreateMover
$LN2@Process:
; File C:\Program Files\Microsoft Visual Studio\2022\Professional\VC\Tools\MSVC\14.44.35207\include\xtree

; 198  :         _Mybase::operator++();

  000e2	8d 4d fc	 lea	 ecx, DWORD PTR _it$1[ebp]
  000e5	e8 00 00 00 00	 call	 ??E?$_Tree_unchecked_const_iterator@V?$_Tree_val@U?$_Tree_simple_types@U?$pair@$$CBKPAVCColosseumMatch@@@std@@@std@@@std@@U_Iterator_base0@2@@std@@QAEAAV01@XZ ; std::_Tree_unchecked_const_iterator<std::_Tree_val<std::_Tree_simple_types<std::pair<unsigned long const ,CColosseumMatch *> > >,std::_Iterator_base0>::operator++

; 237  :         return !(*this == _Right);

  000ea	8b 45 fc	 mov	 eax, DWORD PTR _it$1[ebp]
  000ed	3b 43 18	 cmp	 eax, DWORD PTR [ebx+24]
; File C:\IAGOS\server\v18\Source\Source\_Common\Colosseum.cpp

; 118  : 	for( COLOSSEUMMATCH::iterator it = m_mapMatch.begin(); it != m_mapMatch.end(); it++ )

  000f0	0f 85 2a ff ff
	ff		 jne	 $LL4@Process
$LN109@Process:
  000f6	5f		 pop	 edi
  000f7	5e		 pop	 esi
$LN91@Process:
  000f8	5b		 pop	 ebx

; 155  : }

  000f9	8b e5		 mov	 esp, ebp
  000fb	5d		 pop	 ebp
  000fc	c3		 ret	 0
$LN87@Process:
; File C:\Program Files\Microsoft Visual Studio\2022\Professional\VC\Tools\MSVC\14.44.35207\include\vector

; 1950 :             _Xrange();

  000fd	e8 00 00 00 00	 call	 ?_Xrange@?$vector@KV?$allocator@K@std@@@std@@CAXXZ ; std::vector<unsigned long,std::allocator<unsigned long> >::_Xrange
$LN111@Process:
  00102	cc		 int	 3
?Process@CColosseumMng@@QAEXXZ ENDP			; CColosseumMng::Process
_TEXT	ENDS
; Function compile flags: /Ogtp
; File C:\IAGOS\server\v18\Source\Source\_Common\Colosseum.cpp
; File C:\IAGOS\server\v18\Source\Source\_Common\Obj.h
; File C:\IAGOS\server\v18\Source\Source\_Common\Colosseum.cpp
; File C:\Program Files\Microsoft Visual Studio\2022\Professional\VC\Tools\MSVC\14.44.35207\include\utility
; File C:\Program Files\Microsoft Visual Studio\2022\Professional\VC\Tools\MSVC\14.44.35207\include\xtree
; File C:\IAGOS\server\v18\Source\Source\_Common\Colosseum.cpp
; File C:\Program Files\Microsoft Visual Studio\2022\Professional\VC\Tools\MSVC\14.44.35207\include\xtree
; File C:\Program Files\Microsoft Visual Studio\2022\Professional\VC\Tools\MSVC\14.44.35207\include\utility
; File C:\IAGOS\server\v18\Source\Source\_Common\Colosseum.cpp
; File C:\Program Files\Microsoft Visual Studio\2022\Professional\VC\Tools\MSVC\14.44.35207\include\utility
; File C:\Program Files\Microsoft Visual Studio\2022\Professional\VC\Tools\MSVC\14.44.35207\include\xtree
; File C:\Program Files\Microsoft Visual Studio\2022\Professional\VC\Tools\MSVC\14.44.35207\include\type_traits
; File C:\Program Files\Microsoft Visual Studio\2022\Professional\VC\Tools\MSVC\14.44.35207\include\xtree
; File C:\Program Files\Microsoft Visual Studio\2022\Professional\VC\Tools\MSVC\14.44.35207\include\xmemory
; File C:\Program Files\Microsoft Visual Studio\2022\Professional\VC\Tools\MSVC\14.44.35207\include\xtree
; File C:\Program Files\Microsoft Visual Studio\2022\Professional\VC\Tools\MSVC\14.44.35207\include\xmemory
; File C:\Program Files\Microsoft Visual Studio\2022\Professional\VC\Tools\MSVC\14.44.35207\include\utility
; File C:\Program Files\Microsoft Visual Studio\2022\Professional\VC\Tools\MSVC\14.44.35207\include\xmemory
; File C:\Program Files\Microsoft Visual Studio\2022\Professional\VC\Tools\MSVC\14.44.35207\include\utility
; File C:\Program Files\Microsoft Visual Studio\2022\Professional\VC\Tools\MSVC\14.44.35207\include\xtree
; File C:\Program Files\Microsoft Visual Studio\2022\Professional\VC\Tools\MSVC\14.44.35207\include\utility
; File C:\Program Files\Microsoft Visual Studio\2022\Professional\VC\Tools\MSVC\14.44.35207\include\xtree
; File C:\IAGOS\server\v18\Source\Source\_Common\Colosseum.cpp
; File C:\Program Files\Microsoft Visual Studio\2022\Professional\VC\Tools\MSVC\14.44.35207\include\xtree
; File C:\IAGOS\server\v18\Source\Source\_Common\Colosseum.cpp
;	COMDAT ?CreateNewMatch@CColosseumMng@@QAEHPAVCUser@@EE@Z
_TEXT	SEGMENT
$T2 = -36						; size = 12
$T3 = -32						; size = 8
_this$1$ = -28						; size = 4
__Loc$4 = -24						; size = 12
$T5 = -20						; size = 8
_pParty$1$ = -16					; size = 4
__$EHRec$ = -12						; size = 12
_pUser$ = 8						; size = 4
_byDifficult$ = 12					; size = 1
_byMenu$ = 16						; size = 1
$T6 = 16						; size = 4
$T7 = 16						; size = 4
?CreateNewMatch@CColosseumMng@@QAEHPAVCUser@@EE@Z PROC	; CColosseumMng::CreateNewMatch, COMDAT
; _this$ = ecx

; 30   : {

  00000	55		 push	 ebp
  00001	8b ec		 mov	 ebp, esp
  00003	6a ff		 push	 -1
  00005	68 00 00 00 00	 push	 __ehhandler$?CreateNewMatch@CColosseumMng@@QAEHPAVCUser@@EE@Z
  0000a	64 a1 00 00 00
	00		 mov	 eax, DWORD PTR fs:0
  00010	50		 push	 eax
  00011	83 ec 18	 sub	 esp, 24			; 00000018H
  00014	53		 push	 ebx
  00015	56		 push	 esi
  00016	57		 push	 edi
  00017	a1 00 00 00 00	 mov	 eax, DWORD PTR ___security_cookie
  0001c	33 c5		 xor	 eax, ebp
  0001e	50		 push	 eax
  0001f	8d 45 f4	 lea	 eax, DWORD PTR __$EHRec$[ebp]
  00022	64 a3 00 00 00
	00		 mov	 DWORD PTR fs:0, eax
  00028	8b d9		 mov	 ebx, ecx
  0002a	89 5d e4	 mov	 DWORD PTR _this$1$[ebp], ebx

; 31   : 		CParty* pParty = g_PartyMng.GetParty( pUser->GetPartyId() );

  0002d	8b 7d 08	 mov	 edi, DWORD PTR _pUser$[ebp]
  00030	b9 00 00 00 00	 mov	 ecx, OFFSET ?g_PartyMng@@3VCPartyMng@@A ; g_PartyMng
  00035	ff b7 10 07 00
	00		 push	 DWORD PTR [edi+1808]
  0003b	e8 00 00 00 00	 call	 ?GetParty@CPartyMng@@QAEPAVCParty@@K@Z ; CPartyMng::GetParty
  00040	8b f0		 mov	 esi, eax
  00042	89 75 f0	 mov	 DWORD PTR _pParty$1$[ebp], esi

; 32   : 		if( pParty && IsValidObj( pUser ) )

  00045	85 f6		 test	 esi, esi
  00047	0f 84 c8 01 00
	00		 je	 $LN5@CreateNewM
; File C:\IAGOS\server\v18\Source\Source\_Common\Obj.h

; 180  : 	BOOL			IsDelete()	{ return (m_dwFlags & OBJ_FLAG_DELETE);  }

  0004d	f6 47 04 01	 test	 BYTE PTR [edi+4], 1

; 327  : 	return pObj && ( pObj->IsDelete() == FALSE ); 

  00051	0f 85 be 01 00
	00		 jne	 $LN5@CreateNewM
; File C:\IAGOS\server\v18\Source\Source\_Common\Colosseum.cpp

; 34   : 			if( GetMatchByParty( pParty ) != 0 ) return FALSE;

  00057	56		 push	 esi
  00058	8b cb		 mov	 ecx, ebx
  0005a	e8 00 00 00 00	 call	 ?GetMatchByParty@CColosseumMng@@QAEPAVCColosseumMatch@@PAVCParty@@@Z ; CColosseumMng::GetMatchByParty
  0005f	85 c0		 test	 eax, eax
  00061	0f 85 ae 01 00
	00		 jne	 $LN5@CreateNewM

; 35   : 			if( !pUser->GetGuild() && byMenu == 2 ) return FALSE;

  00067	8b cf		 mov	 ecx, edi
  00069	e8 00 00 00 00	 call	 ?GetGuild@CMover@@QAEPAVCGuild@@XZ ; CMover::GetGuild
  0006e	8a 5d 10	 mov	 bl, BYTE PTR _byMenu$[ebp]
  00071	85 c0		 test	 eax, eax
  00073	75 09		 jne	 SHORT $LN7@CreateNewM
  00075	80 fb 02	 cmp	 bl, 2
  00078	0f 84 97 01 00
	00		 je	 $LN5@CreateNewM
$LN7@CreateNewM:

; 36   : 			if( byDifficult != 1 && byDifficult != 2 ) byDifficult = 1;

  0007e	8a 7d 0c	 mov	 bh, BYTE PTR _byDifficult$[ebp]
  00081	b9 01 00 00 00	 mov	 ecx, 1
  00086	3a f9		 cmp	 bh, cl
  00088	74 0b		 je	 SHORT $LN8@CreateNewM
  0008a	80 ff 02	 cmp	 bh, 2
  0008d	0f b6 c7	 movzx	 eax, bh
  00090	0f 45 c1	 cmovne	 eax, ecx
  00093	8a f8		 mov	 bh, al
$LN8@CreateNewM:

; 37   : 			if( byMenu != 1 && byMenu != 2 ) byMenu = 1;

  00095	80 fb 01	 cmp	 bl, 1
  00098	74 0b		 je	 SHORT $LN9@CreateNewM
  0009a	80 fb 02	 cmp	 bl, 2
  0009d	0f b6 c3	 movzx	 eax, bl
  000a0	0f 45 c1	 cmovne	 eax, ecx
  000a3	8a d8		 mov	 bl, al
$LN9@CreateNewM:

; 38   : 			if( byDifficult == 1 && pUser->m_nLevel > 90 ) return FALSE;

  000a5	80 ff 01	 cmp	 bh, 1
  000a8	75 0d		 jne	 SHORT $LN10@CreateNewM
  000aa	83 bf d8 05 00
	00 5a		 cmp	 DWORD PTR [edi+1496], 90 ; 0000005aH
  000b1	0f 8f 5e 01 00
	00		 jg	 $LN5@CreateNewM
$LN10@CreateNewM:

; 39   : 
; 40   : 			CColosseumMatch* pMatch = new CColosseumMatch;

  000b7	6a 34		 push	 52			; 00000034H
  000b9	e8 00 00 00 00	 call	 ??2@YAPAXI@Z		; operator new
  000be	83 c4 04	 add	 esp, 4
  000c1	89 45 10	 mov	 DWORD PTR $T6[ebp], eax
  000c4	c7 45 fc 00 00
	00 00		 mov	 DWORD PTR __$EHRec$[ebp+8], 0
  000cb	85 c0		 test	 eax, eax
  000cd	74 0b		 je	 SHORT $LN19@CreateNewM
  000cf	8b c8		 mov	 ecx, eax
  000d1	e8 00 00 00 00	 call	 ??0CColosseumMatch@@QAE@XZ ; CColosseumMatch::CColosseumMatch
  000d6	8b f8		 mov	 edi, eax
  000d8	eb 02		 jmp	 SHORT $LN20@CreateNewM
$LN19@CreateNewM:
  000da	33 ff		 xor	 edi, edi
$LN20@CreateNewM:

; 41   : 			pMatch->m_uPartyID = pParty->m_uPartyId;

  000dc	8b 06		 mov	 eax, DWORD PTR [esi]
  000de	c7 45 fc ff ff
	ff ff		 mov	 DWORD PTR __$EHRec$[ebp+8], -1
  000e5	89 47 04	 mov	 DWORD PTR [edi+4], eax

; 42   : 			pMatch->m_byDifficult = byDifficult;

  000e8	88 7f 18	 mov	 BYTE PTR [edi+24], bh

; 43   : 			pMatch->m_byMenu = byMenu;

  000eb	88 5f 19	 mov	 BYTE PTR [edi+25], bl

; 44   : 			if( byMenu == 2 )

  000ee	80 fb 02	 cmp	 bl, 2
  000f1	75 0e		 jne	 SHORT $LN146@CreateNewM

; 45   : 				pMatch->m_uGuildID = pUser->m_idGuild;

  000f3	8b 45 08	 mov	 eax, DWORD PTR _pUser$[ebp]
  000f6	8b 80 14 07 00
	00		 mov	 eax, DWORD PTR [eax+1812]
  000fc	89 47 2c	 mov	 DWORD PTR [edi+44], eax
  000ff	eb 0a		 jmp	 SHORT $LN12@CreateNewM
$LN146@CreateNewM:

; 46   : 
; 47   : 			if( byMenu == 1 )
; 48   : 				pMatch->m_byBossStage = (BYTE)xRandom( 1, (BYTE)byMaxLowStage );

  00101	b8 14 00 00 00	 mov	 eax, 20			; 00000014H
  00106	80 fb 01	 cmp	 bl, 1
  00109	74 05		 je	 SHORT $LN13@CreateNewM
$LN12@CreateNewM:

; 49   : 			else
; 50   : 				pMatch->m_byBossStage = (BYTE)xRandom( 1, (BYTE)byMaxHardStage );

  0010b	b8 15 00 00 00	 mov	 eax, 21			; 00000015H
$LN13@CreateNewM:

; 51   : 
; 52   : 			pMatch->CreateRoomLayer();

  00110	8b 4d e4	 mov	 ecx, DWORD PTR _this$1$[ebp]
  00113	0f b6 04 01	 movzx	 eax, BYTE PTR [ecx+eax]
  00117	50		 push	 eax
  00118	6a 01		 push	 1
  0011a	e8 00 00 00 00	 call	 ?xRandom@@YAKKK@Z	; xRandom
  0011f	83 c4 08	 add	 esp, 8
  00122	88 47 30	 mov	 BYTE PTR [edi+48], al
  00125	8b cf		 mov	 ecx, edi
  00127	e8 00 00 00 00	 call	 ?CreateRoomLayer@CColosseumMatch@@QAEXXZ ; CColosseumMatch::CreateRoomLayer

; 53   : 
; 54   : 			for( int i = 1; i < pParty->m_nSizeofMember; i++ )

  0012c	8b 45 f0	 mov	 eax, DWORD PTR _pParty$1$[ebp]
  0012f	be 01 00 00 00	 mov	 esi, 1
  00134	39 b0 cc 01 00
	00		 cmp	 DWORD PTR [eax+460], esi
  0013a	7e 3b		 jle	 SHORT $LN3@CreateNewM

; 51   : 
; 52   : 			pMatch->CreateRoomLayer();

  0013c	8d 58 44	 lea	 ebx, DWORD PTR [eax+68]
  0013f	90		 npad	 1
$LL4@CreateNewM:

; 55   : 			{
; 56   : 				CUser* pPartyUser = g_UserMng.GetUserByPlayerID( pParty->m_aMember[i].m_uPlayerId );

  00140	ff 33		 push	 DWORD PTR [ebx]
  00142	b9 00 00 00 00	 mov	 ecx, OFFSET ?g_UserMng@@3VCUserMng@@A ; g_UserMng
  00147	e8 00 00 00 00	 call	 ?GetUserByPlayerID@CUserMng@@QAEPAVCUser@@K@Z ; CUserMng::GetUserByPlayerID

; 57   : 				if( pPartyUser )

  0014c	85 c0		 test	 eax, eax
  0014e	74 18		 je	 SHORT $LN2@CreateNewM

; 58   : 					if( pMatch->m_byMenu == 2 )

  00150	80 7f 19 02	 cmp	 BYTE PTR [edi+25], 2
  00154	75 0b		 jne	 SHORT $LN15@CreateNewM

; 59   : 					{
; 60   : 						if( pPartyUser->m_idGuild == pMatch->m_uGuildID )

  00156	8b 88 14 07 00
	00		 mov	 ecx, DWORD PTR [eax+1812]
  0015c	3b 4f 2c	 cmp	 ecx, DWORD PTR [edi+44]
  0015f	75 07		 jne	 SHORT $LN2@CreateNewM
$LN15@CreateNewM:

; 61   : 							pPartyUser->SendColosseumEnter();
; 62   : 					}
; 63   : 					else
; 64   : 						pPartyUser->SendColosseumEnter();

  00161	8b c8		 mov	 ecx, eax
  00163	e8 00 00 00 00	 call	 ?SendColosseumEnter@CUser@@QAEXXZ ; CUser::SendColosseumEnter
$LN2@CreateNewM:

; 53   : 
; 54   : 			for( int i = 1; i < pParty->m_nSizeofMember; i++ )

  00168	8b 45 f0	 mov	 eax, DWORD PTR _pParty$1$[ebp]
  0016b	46		 inc	 esi
  0016c	83 c3 1c	 add	 ebx, 28			; 0000001cH
  0016f	3b b0 cc 01 00
	00		 cmp	 esi, DWORD PTR [eax+460]
  00175	7c c9		 jl	 SHORT $LL4@CreateNewM
$LN3@CreateNewM:
; File C:\Program Files\Microsoft Visual Studio\2022\Professional\VC\Tools\MSVC\14.44.35207\include\utility

; 274  :         : first(_STD forward<_Other1>(_Val1)), second(_STD forward<_Other2>(_Val2)) {

  00177	8b 30		 mov	 esi, DWORD PTR [eax]
; File C:\Program Files\Microsoft Visual Studio\2022\Professional\VC\Tools\MSVC\14.44.35207\include\xtree

; 1017 :             _Loc                = _Find_lower_bound(_Keyval);

  00179	8d 45 ec	 lea	 eax, DWORD PTR $T5[ebp]
; File C:\IAGOS\server\v18\Source\Source\_Common\Colosseum.cpp

; 67   : 			m_mapMatch.insert( make_pair( pParty->m_uPartyId, pMatch ));

  0017c	8b 5d e4	 mov	 ebx, DWORD PTR _this$1$[ebp]
; File C:\Program Files\Microsoft Visual Studio\2022\Professional\VC\Tools\MSVC\14.44.35207\include\xtree

; 1017 :             _Loc                = _Find_lower_bound(_Keyval);

  0017f	50		 push	 eax
  00180	8d 45 dc	 lea	 eax, DWORD PTR $T2[ebp]
; File C:\Program Files\Microsoft Visual Studio\2022\Professional\VC\Tools\MSVC\14.44.35207\include\utility

; 274  :         : first(_STD forward<_Other1>(_Val1)), second(_STD forward<_Other2>(_Val2)) {

  00183	89 75 ec	 mov	 DWORD PTR $T5[ebp], esi
; File C:\IAGOS\server\v18\Source\Source\_Common\Colosseum.cpp

; 67   : 			m_mapMatch.insert( make_pair( pParty->m_uPartyId, pMatch ));

  00186	83 c3 18	 add	 ebx, 24			; 00000018H
; File C:\Program Files\Microsoft Visual Studio\2022\Professional\VC\Tools\MSVC\14.44.35207\include\utility

; 274  :         : first(_STD forward<_Other1>(_Val1)), second(_STD forward<_Other2>(_Val2)) {

  00189	89 7d f0	 mov	 DWORD PTR $T5[ebp+4], edi
; File C:\Program Files\Microsoft Visual Studio\2022\Professional\VC\Tools\MSVC\14.44.35207\include\xtree

; 1017 :             _Loc                = _Find_lower_bound(_Keyval);

  0018c	50		 push	 eax
  0018d	8b cb		 mov	 ecx, ebx
  0018f	e8 00 00 00 00	 call	 ??$_Find_lower_bound@K@?$_Tree@V?$_Tmap_traits@KPAVCColosseumMatch@@U?$less@K@std@@V?$allocator@U?$pair@$$CBKPAVCColosseumMatch@@@std@@@3@$0A@@std@@@std@@IBE?AU?$_Tree_find_result@PAU?$_Tree_node@U?$pair@$$CBKPAVCColosseumMatch@@@std@@PAX@std@@@1@ABK@Z ; std::_Tree<std::_Tmap_traits<unsigned long,CColosseumMatch *,std::less<unsigned long>,std::allocator<std::pair<unsigned long const ,CColosseumMatch *> >,0> >::_Find_lower_bound<unsigned long>

; 1624 :         return !_Bound->_Isnil && !_DEBUG_LT_PRED(_Getcomp(), _Keyval, _Traits::_Kfn(_Bound->_Myval));

  00194	89 75 10	 mov	 DWORD PTR $T7[ebp], esi

; 1017 :             _Loc                = _Find_lower_bound(_Keyval);

  00197	f3 0f 7e 00	 movq	 xmm0, QWORD PTR [eax]
  0019b	8b 40 08	 mov	 eax, DWORD PTR [eax+8]
  0019e	66 0f d6 45 e8	 movq	 QWORD PTR __Loc$4[ebp], xmm0

; 1624 :         return !_Bound->_Isnil && !_DEBUG_LT_PRED(_Getcomp(), _Keyval, _Traits::_Kfn(_Bound->_Myval));

  001a3	80 78 0d 00	 cmp	 BYTE PTR [eax+13], 0
  001a7	75 08		 jne	 SHORT $LN44@CreateNewM
; File C:\Program Files\Microsoft Visual Studio\2022\Professional\VC\Tools\MSVC\14.44.35207\include\type_traits

; 2380 :         return _Left < _Right;

  001a9	89 75 10	 mov	 DWORD PTR $T7[ebp], esi
  001ac	3b 70 10	 cmp	 esi, DWORD PTR [eax+16]
; File C:\Program Files\Microsoft Visual Studio\2022\Professional\VC\Tools\MSVC\14.44.35207\include\xtree

; 1624 :         return !_Bound->_Isnil && !_DEBUG_LT_PRED(_Getcomp(), _Keyval, _Traits::_Kfn(_Bound->_Myval));

  001af	73 4b		 jae	 SHORT $LN124@CreateNewM
$LN44@CreateNewM:

; 1648 :         if (max_size() == _Get_scary()->_Mysize) {

  001b1	81 7b 04 aa aa
	aa 0a		 cmp	 DWORD PTR [ebx+4], 178956970 ; 0aaaaaaaH
  001b8	74 71		 je	 SHORT $LN156@CreateNewM

; 1023 :             _Inserted = _Tree_temp_node<_Alnode>(_Getal(), _Scary->_Myhead, _STD forward<_Valtys>(_Vals)...)._Release();

  001ba	8b 33		 mov	 esi, DWORD PTR [ebx]
; File C:\Program Files\Microsoft Visual Studio\2022\Professional\VC\Tools\MSVC\14.44.35207\include\xmemory

; 1160 :     _CONSTEXPR20 explicit _Alloc_construct_ptr(_Alloc& _Al_) : _Al(_Al_), _Ptr(nullptr) {}

  001bc	89 5d e0	 mov	 DWORD PTR $T3[ebp], ebx

; 136  :         return ::operator new(_Bytes);

  001bf	6a 18		 push	 24			; 00000018H
; File C:\Program Files\Microsoft Visual Studio\2022\Professional\VC\Tools\MSVC\14.44.35207\include\xtree

; 808  :     explicit _Tree_temp_node_alloc(_Alnode& _Al_) : _Alloc_construct_ptr<_Alnode>(_Al_) {

  001c1	c7 45 fc 01 00
	00 00		 mov	 DWORD PTR __$EHRec$[ebp+8], 1
; File C:\Program Files\Microsoft Visual Studio\2022\Professional\VC\Tools\MSVC\14.44.35207\include\xmemory

; 1167 :         _Ptr = nullptr; // if allocate throws, prevents double-free

  001c8	c7 45 e4 00 00
	00 00		 mov	 DWORD PTR $T3[ebp+4], 0

; 136  :         return ::operator new(_Bytes);

  001cf	e8 00 00 00 00	 call	 ??2@YAPAXI@Z		; operator new
; File C:\Program Files\Microsoft Visual Studio\2022\Professional\VC\Tools\MSVC\14.44.35207\include\utility

; 303  :         : first(_STD forward<_Other1>(_Right.first)), second(_STD forward<_Other2>(_Right.second)) {}

  001d4	8b 4d 10	 mov	 ecx, DWORD PTR $T7[ebp]
; File C:\Program Files\Microsoft Visual Studio\2022\Professional\VC\Tools\MSVC\14.44.35207\include\xmemory

; 136  :         return ::operator new(_Bytes);

  001d7	83 c4 04	 add	 esp, 4
; File C:\Program Files\Microsoft Visual Studio\2022\Professional\VC\Tools\MSVC\14.44.35207\include\utility

; 303  :         : first(_STD forward<_Other1>(_Right.first)), second(_STD forward<_Other2>(_Right.second)) {}

  001da	89 48 10	 mov	 DWORD PTR [eax+16], ecx
; File C:\Program Files\Microsoft Visual Studio\2022\Professional\VC\Tools\MSVC\14.44.35207\include\xtree

; 1042 :         return {_Scary->_Insert_node(_Loc._Location, _Inserted), true};

  001dd	8b cb		 mov	 ecx, ebx
  001df	50		 push	 eax
  001e0	ff 75 ec	 push	 DWORD PTR __Loc$4[ebp+4]
; File C:\Program Files\Microsoft Visual Studio\2022\Professional\VC\Tools\MSVC\14.44.35207\include\utility

; 303  :         : first(_STD forward<_Other1>(_Right.first)), second(_STD forward<_Other2>(_Right.second)) {}

  001e3	89 78 14	 mov	 DWORD PTR [eax+20], edi
; File C:\Program Files\Microsoft Visual Studio\2022\Professional\VC\Tools\MSVC\14.44.35207\include\xtree

; 1042 :         return {_Scary->_Insert_node(_Loc._Location, _Inserted), true};

  001e6	ff 75 e8	 push	 DWORD PTR __Loc$4[ebp]

; 831  :         _Construct_in_place(this->_Ptr->_Left, _Myhead);

  001e9	89 30		 mov	 DWORD PTR [eax], esi

; 832  :         _Construct_in_place(this->_Ptr->_Parent, _Myhead);

  001eb	89 70 04	 mov	 DWORD PTR [eax+4], esi

; 833  :         _Construct_in_place(this->_Ptr->_Right, _Myhead);

  001ee	89 70 08	 mov	 DWORD PTR [eax+8], esi

; 834  :         this->_Ptr->_Color = _Red;

  001f1	66 c7 40 0c 00
	00		 mov	 WORD PTR [eax+12], 0

; 1042 :         return {_Scary->_Insert_node(_Loc._Location, _Inserted), true};

  001f7	e8 00 00 00 00	 call	 ?_Insert_node@?$_Tree_val@U?$_Tree_simple_types@U?$pair@$$CBKPAVCColosseumMatch@@@std@@@std@@@std@@QAEPAU?$_Tree_node@U?$pair@$$CBKPAVCColosseumMatch@@@std@@PAX@2@U?$_Tree_id@PAU?$_Tree_node@U?$pair@$$CBKPAVCColosseumMatch@@@std@@PAX@std@@@2@QAU32@@Z ; std::_Tree_val<std::_Tree_simple_types<std::pair<unsigned long const ,CColosseumMatch *> > >::_Insert_node
$LN124@CreateNewM:
; File C:\IAGOS\server\v18\Source\Source\_Common\Colosseum.cpp

; 68   : 			return TRUE;

  001fc	b8 01 00 00 00	 mov	 eax, 1

; 71   : }

  00201	8b 4d f4	 mov	 ecx, DWORD PTR __$EHRec$[ebp]
  00204	64 89 0d 00 00
	00 00		 mov	 DWORD PTR fs:0, ecx
  0020b	59		 pop	 ecx
  0020c	5f		 pop	 edi
  0020d	5e		 pop	 esi
  0020e	5b		 pop	 ebx
  0020f	8b e5		 mov	 esp, ebp
  00211	5d		 pop	 ebp
  00212	c2 0c 00	 ret	 12			; 0000000cH
$LN5@CreateNewM:

; 69   : 		}
; 70   : 		return FALSE;

  00215	33 c0		 xor	 eax, eax

; 71   : }

  00217	8b 4d f4	 mov	 ecx, DWORD PTR __$EHRec$[ebp]
  0021a	64 89 0d 00 00
	00 00		 mov	 DWORD PTR fs:0, ecx
  00221	59		 pop	 ecx
  00222	5f		 pop	 edi
  00223	5e		 pop	 esi
  00224	5b		 pop	 ebx
  00225	8b e5		 mov	 esp, ebp
  00227	5d		 pop	 ebp
  00228	c2 0c 00	 ret	 12			; 0000000cH
$LN156@CreateNewM:
; File C:\Program Files\Microsoft Visual Studio\2022\Professional\VC\Tools\MSVC\14.44.35207\include\xtree

; 1649 :             _Throw_tree_length_error();

  0022b	e8 00 00 00 00	 call	 ?_Throw_tree_length_error@std@@YAXXZ ; std::_Throw_tree_length_error
$LN154@CreateNewM:
  00230	cc		 int	 3
_TEXT	ENDS
;	COMDAT text$x
text$x	SEGMENT
__unwindfunclet$?CreateNewMatch@CColosseumMng@@QAEHPAVCUser@@EE@Z$0:
  00000	6a 34		 push	 52			; 00000034H
  00002	8b 45 10	 mov	 eax, DWORD PTR $T6[ebp]
  00005	50		 push	 eax
  00006	e8 00 00 00 00	 call	 ??3@YAXPAXI@Z		; operator delete
  0000b	83 c4 08	 add	 esp, 8
  0000e	c3		 ret	 0
__unwindfunclet$?CreateNewMatch@CColosseumMng@@QAEHPAVCUser@@EE@Z$3:
  0000f	8d 4d e0	 lea	 ecx, DWORD PTR $T3[ebp]
  00012	e9 00 00 00 00	 jmp	 ??1?$_Alloc_construct_ptr@V?$allocator@U?$_Tree_node@U?$pair@$$CBKPAVCColosseumMatch@@@std@@PAX@std@@@std@@@std@@QAE@XZ ; std::_Alloc_construct_ptr<std::allocator<std::_Tree_node<std::pair<unsigned long const ,CColosseumMatch *>,void *> > >::~_Alloc_construct_ptr<std::allocator<std::_Tree_node<std::pair<unsigned long const ,CColosseumMatch *>,void *> > >
  00017	cc		 int	 3
  00018	cc		 int	 3
  00019	cc		 int	 3
  0001a	cc		 int	 3
  0001b	cc		 int	 3
__ehhandler$?CreateNewMatch@CColosseumMng@@QAEHPAVCUser@@EE@Z:
  0001c	90		 npad	 1
  0001d	90		 npad	 1
  0001e	8b 54 24 08	 mov	 edx, DWORD PTR [esp+8]
  00022	8d 42 0c	 lea	 eax, DWORD PTR [edx+12]
  00025	8b 4a d8	 mov	 ecx, DWORD PTR [edx-40]
  00028	33 c8		 xor	 ecx, eax
  0002a	e8 00 00 00 00	 call	 @__security_check_cookie@4
  0002f	b8 00 00 00 00	 mov	 eax, OFFSET __ehfuncinfo$?CreateNewMatch@CColosseumMng@@QAEHPAVCUser@@EE@Z
  00034	e9 00 00 00 00	 jmp	 ___CxxFrameHandler3
text$x	ENDS
?CreateNewMatch@CColosseumMng@@QAEHPAVCUser@@EE@Z ENDP	; CColosseumMng::CreateNewMatch
; Function compile flags: /Ogtp
; File C:\IAGOS\server\v18\Source\Source\_Common\Colosseum.cpp
;	COMDAT ?GetInstance@CColosseumMng@@SAPAV1@XZ
_TEXT	SEGMENT
__$EHRec$ = -12						; size = 12
?GetInstance@CColosseumMng@@SAPAV1@XZ PROC		; CColosseumMng::GetInstance, COMDAT

; 24   : {

  00000	55		 push	 ebp
  00001	8b ec		 mov	 ebp, esp
  00003	6a ff		 push	 -1
  00005	68 00 00 00 00	 push	 __ehhandler$?GetInstance@CColosseumMng@@SAPAV1@XZ
  0000a	64 a1 00 00 00
	00		 mov	 eax, DWORD PTR fs:0
  00010	50		 push	 eax
  00011	a1 00 00 00 00	 mov	 eax, DWORD PTR ___security_cookie
  00016	33 c5		 xor	 eax, ebp
  00018	50		 push	 eax
  00019	8d 45 f4	 lea	 eax, DWORD PTR __$EHRec$[ebp]
  0001c	64 a3 00 00 00
	00		 mov	 DWORD PTR fs:0, eax

; 25   : 	static CColosseumMng sColosseum;

  00022	64 a1 00 00 00
	00		 mov	 eax, DWORD PTR fs:__tls_array
  00028	8b 0d 00 00 00
	00		 mov	 ecx, DWORD PTR __tls_index
  0002e	8b 0c 88	 mov	 ecx, DWORD PTR [eax+ecx*4]
  00031	a1 00 00 00 00	 mov	 eax, DWORD PTR ?$TSS0@?1??GetInstance@CColosseumMng@@SAPAV2@XZ@4HA
  00036	3b 81 00 00 00
	00		 cmp	 eax, DWORD PTR __Init_thread_epoch[ecx]
  0003c	7f 14		 jg	 SHORT $LN9@GetInstanc
$LN5@GetInstanc:

; 26   : 	return &sColosseum;
; 27   : }

  0003e	b8 00 00 00 00	 mov	 eax, OFFSET ?sColosseum@?1??GetInstance@CColosseumMng@@SAPAV2@XZ@4V2@A
  00043	8b 4d f4	 mov	 ecx, DWORD PTR __$EHRec$[ebp]
  00046	64 89 0d 00 00
	00 00		 mov	 DWORD PTR fs:0, ecx
  0004d	59		 pop	 ecx
  0004e	8b e5		 mov	 esp, ebp
  00050	5d		 pop	 ebp
  00051	c3		 ret	 0
$LN9@GetInstanc:

; 25   : 	static CColosseumMng sColosseum;

  00052	68 00 00 00 00	 push	 OFFSET ?$TSS0@?1??GetInstance@CColosseumMng@@SAPAV2@XZ@4HA
  00057	e8 00 00 00 00	 call	 __Init_thread_header
  0005c	83 c4 04	 add	 esp, 4
  0005f	83 3d 00 00 00
	00 ff		 cmp	 DWORD PTR ?$TSS0@?1??GetInstance@CColosseumMng@@SAPAV2@XZ@4HA, -1
  00066	75 d6		 jne	 SHORT $LN5@GetInstanc
  00068	b9 00 00 00 00	 mov	 ecx, OFFSET ?sColosseum@?1??GetInstance@CColosseumMng@@SAPAV2@XZ@4V2@A
  0006d	c7 45 fc 00 00
	00 00		 mov	 DWORD PTR __$EHRec$[ebp+8], 0
  00074	e8 00 00 00 00	 call	 ??0CColosseumMng@@QAE@XZ ; CColosseumMng::CColosseumMng
  00079	68 00 00 00 00	 push	 OFFSET ??__FsColosseum@?1??GetInstance@CColosseumMng@@SAPAV1@XZ@YAXXZ ; `CColosseumMng::GetInstance'::`2'::`dynamic atexit destructor for 'sColosseum''
  0007e	e8 00 00 00 00	 call	 _atexit
  00083	68 00 00 00 00	 push	 OFFSET ?$TSS0@?1??GetInstance@CColosseumMng@@SAPAV2@XZ@4HA
  00088	e8 00 00 00 00	 call	 __Init_thread_footer
  0008d	83 c4 08	 add	 esp, 8
  00090	eb ac		 jmp	 SHORT $LN5@GetInstanc
_TEXT	ENDS
;	COMDAT text$x
text$x	SEGMENT
__unwindfunclet$?GetInstance@CColosseumMng@@SAPAV1@XZ$0:
  00000	68 00 00 00 00	 push	 OFFSET ?$TSS0@?1??GetInstance@CColosseumMng@@SAPAV2@XZ@4HA
  00005	e8 00 00 00 00	 call	 __Init_thread_abort
  0000a	59		 pop	 ecx
  0000b	c3		 ret	 0
  0000c	cc		 int	 3
  0000d	cc		 int	 3
  0000e	cc		 int	 3
  0000f	cc		 int	 3
  00010	cc		 int	 3
__ehhandler$?GetInstance@CColosseumMng@@SAPAV1@XZ:
  00011	90		 npad	 1
  00012	90		 npad	 1
  00013	8b 54 24 08	 mov	 edx, DWORD PTR [esp+8]
  00017	8d 42 0c	 lea	 eax, DWORD PTR [edx+12]
  0001a	8b 4a fc	 mov	 ecx, DWORD PTR [edx-4]
  0001d	33 c8		 xor	 ecx, eax
  0001f	e8 00 00 00 00	 call	 @__security_check_cookie@4
  00024	b8 00 00 00 00	 mov	 eax, OFFSET __ehfuncinfo$?GetInstance@CColosseumMng@@SAPAV1@XZ
  00029	e9 00 00 00 00	 jmp	 ___CxxFrameHandler3
text$x	ENDS
?GetInstance@CColosseumMng@@SAPAV1@XZ ENDP		; CColosseumMng::GetInstance
; Function compile flags: /Ogtp
; File C:\IAGOS\server\v18\Source\Source\_Common\Colosseum.cpp
; File C:\Program Files\Microsoft Visual Studio\2022\Professional\VC\Tools\MSVC\14.44.35207\include\vector
; File C:\IAGOS\server\v18\Source\Source\_Common\Colosseum.cpp
;	COMDAT ??1CColosseumMng@@UAE@XZ
_TEXT	SEGMENT
??1CColosseumMng@@UAE@XZ PROC				; CColosseumMng::~CColosseumMng, COMDAT
; _this$ = ecx

; 20   : {

  00000	56		 push	 esi
  00001	8b f1		 mov	 esi, ecx

; 21   : }

  00003	8d 4e 20	 lea	 ecx, DWORD PTR [esi+32]
  00006	c7 06 00 00 00
	00		 mov	 DWORD PTR [esi], OFFSET ??_7CColosseumMng@@6B@
; File C:\Program Files\Microsoft Visual Studio\2022\Professional\VC\Tools\MSVC\14.44.35207\include\vector

; 830  :         _Tidy();

  0000c	e8 00 00 00 00	 call	 ?_Tidy@?$vector@U__COLOSSEUM_MONSTER@@V?$allocator@U__COLOSSEUM_MONSTER@@@std@@@std@@AAEXXZ ; std::vector<__COLOSSEUM_MONSTER,std::allocator<__COLOSSEUM_MONSTER> >::_Tidy
; File C:\IAGOS\server\v18\Source\Source\_Common\Colosseum.cpp

; 21   : }

  00011	8d 4e 18	 lea	 ecx, DWORD PTR [esi+24]
  00014	e8 00 00 00 00	 call	 ??1?$_Tree@V?$_Tmap_traits@KPAVCColosseumMatch@@U?$less@K@std@@V?$allocator@U?$pair@$$CBKPAVCColosseumMatch@@@std@@@3@$0A@@std@@@std@@QAE@XZ ; std::_Tree<std::_Tmap_traits<unsigned long,CColosseumMatch *,std::less<unsigned long>,std::allocator<std::pair<unsigned long const ,CColosseumMatch *> >,0> >::~_Tree<std::_Tmap_traits<unsigned long,CColosseumMatch *,std::less<unsigned long>,std::allocator<std::pair<unsigned long const ,CColosseumMatch *> >,0> >
  00019	8d 4e 04	 lea	 ecx, DWORD PTR [esi+4]
  0001c	5e		 pop	 esi
  0001d	e9 00 00 00 00	 jmp	 ??1CLuaBase@@UAE@XZ	; CLuaBase::~CLuaBase
??1CColosseumMng@@UAE@XZ ENDP				; CColosseumMng::~CColosseumMng
_TEXT	ENDS
; Function compile flags: /Ogtp
; File C:\IAGOS\server\v18\Source\Source\_Common\Colosseum.cpp
; File C:\Program Files\Microsoft Visual Studio\2022\Professional\VC\Tools\MSVC\14.44.35207\include\xmemory
; File C:\IAGOS\server\v18\Source\Source\_Common\Colosseum.cpp
; File C:\Program Files\Microsoft Visual Studio\2022\Professional\VC\Tools\MSVC\14.44.35207\include\xtree
; File C:\Program Files\Microsoft Visual Studio\2022\Professional\VC\Tools\MSVC\14.44.35207\include\xmemory
; File C:\Program Files\Microsoft Visual Studio\2022\Professional\VC\Tools\MSVC\14.44.35207\include\xtree
; File C:\IAGOS\server\v18\Source\Source\_Common\Colosseum.cpp
; File C:\Program Files\Microsoft Visual Studio\2022\Professional\VC\Tools\MSVC\14.44.35207\include\vector
; File C:\IAGOS\server\v18\Source\Source\_Common\Colosseum.cpp
;	COMDAT ??0CColosseumMng@@QAE@XZ
_TEXT	SEGMENT
_this$ = -20						; size = 4
_this$ = -16						; size = 4
__$EHRec$ = -12						; size = 12
??0CColosseumMng@@QAE@XZ PROC				; CColosseumMng::CColosseumMng, COMDAT
; _this$ = ecx

; 16   : {

  00000	55		 push	 ebp
  00001	8b ec		 mov	 ebp, esp
  00003	6a ff		 push	 -1
  00005	68 00 00 00 00	 push	 __ehhandler$??0CColosseumMng@@QAE@XZ
  0000a	64 a1 00 00 00
	00		 mov	 eax, DWORD PTR fs:0
  00010	50		 push	 eax
  00011	83 ec 08	 sub	 esp, 8
  00014	56		 push	 esi
  00015	57		 push	 edi
  00016	a1 00 00 00 00	 mov	 eax, DWORD PTR ___security_cookie
  0001b	33 c5		 xor	 eax, ebp
  0001d	50		 push	 eax
  0001e	8d 45 f4	 lea	 eax, DWORD PTR __$EHRec$[ebp]
  00021	64 a3 00 00 00
	00		 mov	 DWORD PTR fs:0, eax
  00027	8b f9		 mov	 edi, ecx
  00029	89 7d f0	 mov	 DWORD PTR _this$[ebp], edi
  0002c	8d 4f 04	 lea	 ecx, DWORD PTR [edi+4]
  0002f	c7 07 00 00 00
	00		 mov	 DWORD PTR [edi], OFFSET ??_7CColosseumMng@@6B@
  00035	e8 00 00 00 00	 call	 ??0CLuaBase@@QAE@XZ	; CLuaBase::CLuaBase
  0003a	8d 77 18	 lea	 esi, DWORD PTR [edi+24]
  0003d	c7 45 fc 00 00
	00 00		 mov	 DWORD PTR __$EHRec$[ebp+8], 0
; File C:\Program Files\Microsoft Visual Studio\2022\Professional\VC\Tools\MSVC\14.44.35207\include\xmemory

; 136  :         return ::operator new(_Bytes);

  00044	6a 18		 push	 24			; 00000018H
; File C:\IAGOS\server\v18\Source\Source\_Common\Colosseum.cpp

; 16   : {

  00046	89 75 ec	 mov	 DWORD PTR _this$[ebp], esi
; File C:\Program Files\Microsoft Visual Studio\2022\Professional\VC\Tools\MSVC\14.44.35207\include\xtree

; 450  :     _Tree_val() noexcept : _Myhead(), _Mysize(0) {}

  00049	c7 06 00 00 00
	00		 mov	 DWORD PTR [esi], 0
  0004f	c7 46 04 00 00
	00 00		 mov	 DWORD PTR [esi+4], 0
; File C:\Program Files\Microsoft Visual Studio\2022\Professional\VC\Tools\MSVC\14.44.35207\include\xmemory

; 136  :         return ::operator new(_Bytes);

  00056	e8 00 00 00 00	 call	 ??2@YAPAXI@Z		; operator new
  0005b	83 c4 04	 add	 esp, 4
; File C:\Program Files\Microsoft Visual Studio\2022\Professional\VC\Tools\MSVC\14.44.35207\include\xtree

; 346  :         _Construct_in_place(_Pnode->_Left, _Pnode);

  0005e	89 00		 mov	 DWORD PTR [eax], eax

; 347  :         _Construct_in_place(_Pnode->_Parent, _Pnode);

  00060	89 40 04	 mov	 DWORD PTR [eax+4], eax

; 348  :         _Construct_in_place(_Pnode->_Right, _Pnode);

  00063	89 40 08	 mov	 DWORD PTR [eax+8], eax

; 349  :         _Pnode->_Color = _Black;

  00066	66 c7 40 0c 01
	01		 mov	 WORD PTR [eax+12], 257	; 00000101H

; 1957 :         _Scary->_Myhead = _Node::_Buyheadnode(_Getal());

  0006c	89 06		 mov	 DWORD PTR [esi], eax
; File C:\IAGOS\server\v18\Source\Source\_Common\Colosseum.cpp

; 17   : }

  0006e	8b c7		 mov	 eax, edi
; File C:\Program Files\Microsoft Visual Studio\2022\Professional\VC\Tools\MSVC\14.44.35207\include\vector

; 400  :     _CONSTEXPR20 _Vector_val() noexcept : _Myfirst(), _Mylast(), _Myend() {}

  00070	c7 47 20 00 00
	00 00		 mov	 DWORD PTR [edi+32], 0
  00077	c7 47 24 00 00
	00 00		 mov	 DWORD PTR [edi+36], 0
  0007e	c7 47 28 00 00
	00 00		 mov	 DWORD PTR [edi+40], 0
; File C:\IAGOS\server\v18\Source\Source\_Common\Colosseum.cpp

; 17   : }

  00085	8b 4d f4	 mov	 ecx, DWORD PTR __$EHRec$[ebp]
  00088	64 89 0d 00 00
	00 00		 mov	 DWORD PTR fs:0, ecx
  0008f	59		 pop	 ecx
  00090	5f		 pop	 edi
  00091	5e		 pop	 esi
  00092	8b e5		 mov	 esp, ebp
  00094	5d		 pop	 ebp
  00095	c3		 ret	 0
_TEXT	ENDS
;	COMDAT text$x
text$x	SEGMENT
__unwindfunclet$??0CColosseumMng@@QAE@XZ$0:
  00000	8b 4d f0	 mov	 ecx, DWORD PTR _this$[ebp]
  00003	83 c1 04	 add	 ecx, 4
  00006	e9 00 00 00 00	 jmp	 ??1CLuaBase@@UAE@XZ	; CLuaBase::~CLuaBase
  0000b	cc		 int	 3
  0000c	cc		 int	 3
  0000d	cc		 int	 3
  0000e	cc		 int	 3
  0000f	cc		 int	 3
__ehhandler$??0CColosseumMng@@QAE@XZ:
  00010	90		 npad	 1
  00011	90		 npad	 1
  00012	8b 54 24 08	 mov	 edx, DWORD PTR [esp+8]
  00016	8d 42 0c	 lea	 eax, DWORD PTR [edx+12]
  00019	8b 4a ec	 mov	 ecx, DWORD PTR [edx-20]
  0001c	33 c8		 xor	 ecx, eax
  0001e	e8 00 00 00 00	 call	 @__security_check_cookie@4
  00023	b8 00 00 00 00	 mov	 eax, OFFSET __ehfuncinfo$??0CColosseumMng@@QAE@XZ
  00028	e9 00 00 00 00	 jmp	 ___CxxFrameHandler3
text$x	ENDS
??0CColosseumMng@@QAE@XZ ENDP				; CColosseumMng::CColosseumMng
; Function compile flags: /Ogtp
;	COMDAT ??_GCColosseumMatch@@UAEPAXI@Z
_TEXT	SEGMENT
___flags$ = 8						; size = 4
??_GCColosseumMatch@@UAEPAXI@Z PROC			; CColosseumMatch::`scalar deleting destructor', COMDAT
; _this$ = ecx
  00000	55		 push	 ebp
  00001	8b ec		 mov	 ebp, esp
  00003	56		 push	 esi
  00004	8b f1		 mov	 esi, ecx
  00006	e8 00 00 00 00	 call	 ??1CColosseumMatch@@UAE@XZ ; CColosseumMatch::~CColosseumMatch
  0000b	f6 45 08 01	 test	 BYTE PTR ___flags$[ebp], 1
  0000f	74 0b		 je	 SHORT $LN5@scalar
  00011	6a 34		 push	 52			; 00000034H
  00013	56		 push	 esi
  00014	e8 00 00 00 00	 call	 ??3@YAXPAXI@Z		; operator delete
  00019	83 c4 08	 add	 esp, 8
$LN5@scalar:
  0001c	8b c6		 mov	 eax, esi
  0001e	5e		 pop	 esi
  0001f	5d		 pop	 ebp
  00020	c2 04 00	 ret	 4
??_GCColosseumMatch@@UAEPAXI@Z ENDP			; CColosseumMatch::`scalar deleting destructor'
_TEXT	ENDS
; Function compile flags: /Ogtp
; File C:\IAGOS\server\v18\Source\Source\_Common\Colosseum.cpp
; File C:\Program Files\Microsoft Visual Studio\2022\Professional\VC\Tools\MSVC\14.44.35207\include\vector
; File C:\IAGOS\server\v18\Source\Source\_Common\Colosseum.cpp
; File C:\Program Files\Microsoft Visual Studio\2022\Professional\VC\Tools\MSVC\14.44.35207\include\vector
; File C:\IAGOS\server\v18\Source\Source\_Common\Colosseum.cpp
; File C:\Program Files\Microsoft Visual Studio\2022\Professional\VC\Tools\MSVC\14.44.35207\include\vector
; File C:\IAGOS\server\v18\Source\Source\_Common\Colosseum.cpp
;	COMDAT ?IsTeleported@CColosseumMatch@@QAEHK@Z
_TEXT	SEGMENT
_m_uPlayerID$ = 8					; size = 4
?IsTeleported@CColosseumMatch@@QAEHK@Z PROC		; CColosseumMatch::IsTeleported, COMDAT
; _this$ = ecx

; 344  : {

  00000	55		 push	 ebp
  00001	8b ec		 mov	 ebp, esp
; File C:\Program Files\Microsoft Visual Studio\2022\Professional\VC\Tools\MSVC\14.44.35207\include\vector

; 1915 :         return static_cast<size_type>(_My_data._Mylast - _My_data._Myfirst);

  00003	8b 41 1c	 mov	 eax, DWORD PTR [ecx+28]
; File C:\IAGOS\server\v18\Source\Source\_Common\Colosseum.cpp

; 345  : 		for( string::size_type i = 0; i < m_vecPlayerID.size(); i++ )

  00006	33 d2		 xor	 edx, edx
; File C:\Program Files\Microsoft Visual Studio\2022\Professional\VC\Tools\MSVC\14.44.35207\include\vector

; 1915 :         return static_cast<size_type>(_My_data._Mylast - _My_data._Myfirst);

  00008	8b 49 20	 mov	 ecx, DWORD PTR [ecx+32]
  0000b	2b c8		 sub	 ecx, eax
  0000d	c1 f9 02	 sar	 ecx, 2
; File C:\IAGOS\server\v18\Source\Source\_Common\Colosseum.cpp

; 344  : {

  00010	56		 push	 esi

; 345  : 		for( string::size_type i = 0; i < m_vecPlayerID.size(); i++ )

  00011	85 c9		 test	 ecx, ecx
  00013	74 0f		 je	 SHORT $LN3@IsTeleport
; File C:\Program Files\Microsoft Visual Studio\2022\Professional\VC\Tools\MSVC\14.44.35207\include\vector

; 1914 :         auto& _My_data = _Mypair._Myval2;

  00015	8b 75 08	 mov	 esi, DWORD PTR _m_uPlayerID$[ebp]
$LL4@IsTeleport:
; File C:\IAGOS\server\v18\Source\Source\_Common\Colosseum.cpp

; 346  : 			if( m_vecPlayerID.at(i) == m_uPlayerID )

  00018	39 30		 cmp	 DWORD PTR [eax], esi
  0001a	74 0f		 je	 SHORT $LN16@IsTeleport

; 345  : 		for( string::size_type i = 0; i < m_vecPlayerID.size(); i++ )

  0001c	42		 inc	 edx
  0001d	83 c0 04	 add	 eax, 4
  00020	3b d1		 cmp	 edx, ecx
  00022	72 f4		 jb	 SHORT $LL4@IsTeleport
$LN3@IsTeleport:

; 348  : 		return FALSE;

  00024	33 c0		 xor	 eax, eax
  00026	5e		 pop	 esi

; 349  : }

  00027	5d		 pop	 ebp
  00028	c2 04 00	 ret	 4
$LN16@IsTeleport:

; 347  : 				return TRUE;

  0002b	b8 01 00 00 00	 mov	 eax, 1
  00030	5e		 pop	 esi

; 349  : }

  00031	5d		 pop	 ebp
  00032	c2 04 00	 ret	 4
?IsTeleported@CColosseumMatch@@QAEHK@Z ENDP		; CColosseumMatch::IsTeleported
_TEXT	ENDS
; Function compile flags: /Ogtp
; File C:\IAGOS\server\v18\Source\Source\_Common\Colosseum.cpp
; File C:\Program Files\Microsoft Visual Studio\2022\Professional\VC\Tools\MSVC\14.44.35207\include\vector
; File C:\IAGOS\server\v18\Source\Source\_Common\Colosseum.cpp
; File C:\Program Files\Microsoft Visual Studio\2022\Professional\VC\Tools\MSVC\14.44.35207\include\vector
; File C:\IAGOS\server\v18\Source\Source\_Common\Colosseum.cpp
; File C:\Program Files\Microsoft Visual Studio\2022\Professional\VC\Tools\MSVC\14.44.35207\include\vector
; File C:\IAGOS\server\v18\Source\Source\_Common\Colosseum.cpp
; File C:\IAGOS\server\v18\Source\Source\_Common\Obj.h
; File C:\IAGOS\server\v18\Source\Source\_Common\Colosseum.cpp
; File C:\IAGOS\server\v18\Source\Source\DX_SDK\d3dx9math.inl
; File C:\IAGOS\server\v18\Source\Source\_Common\Colosseum.cpp
; File C:\IAGOS\server\v18\Source\Source\DX_SDK\d3dx9math.inl
; File C:\IAGOS\server\v18\Source\Source\_Common\Colosseum.cpp
; File C:\Program Files\Microsoft Visual Studio\2022\Professional\VC\Tools\MSVC\14.44.35207\include\vector
; File C:\Program Files\Microsoft Visual Studio\2022\Professional\VC\Tools\MSVC\14.44.35207\include\xutility
; File C:\Program Files\Microsoft Visual Studio\2022\Professional\VC\Tools\MSVC\14.44.35207\include\vector
; File C:\Program Files\Microsoft Visual Studio\2022\Professional\VC\Tools\MSVC\14.44.35207\include\xutility
; File C:\Program Files\Microsoft Visual Studio\2022\Professional\VC\Tools\MSVC\14.44.35207\include\vector
; File C:\IAGOS\server\v18\Source\Source\_Common\Colosseum.cpp
; File C:\Program Files\Microsoft Visual Studio\2022\Professional\VC\Tools\MSVC\14.44.35207\include\vector
; File C:\IAGOS\server\v18\Source\Source\_Common\Colosseum.cpp
; File C:\Program Files\Microsoft Visual Studio\2022\Professional\VC\Tools\MSVC\14.44.35207\include\vector
; File C:\IAGOS\server\v18\Source\Source\_Common\Colosseum.cpp
;	COMDAT ?KickUser@CColosseumMatch@@QAEXK@Z
_TEXT	SEGMENT
$T1 = -16						; size = 12
__$ArrayPad$ = -4					; size = 4
_m_uPlayerID$ = 8					; size = 4
?KickUser@CColosseumMatch@@QAEXK@Z PROC			; CColosseumMatch::KickUser, COMDAT
; _this$ = ecx

; 271  : {

  00000	55		 push	 ebp
  00001	8b ec		 mov	 ebp, esp
  00003	83 ec 10	 sub	 esp, 16			; 00000010H
  00006	a1 00 00 00 00	 mov	 eax, DWORD PTR ___security_cookie
  0000b	33 c5		 xor	 eax, ebp
  0000d	89 45 fc	 mov	 DWORD PTR __$ArrayPad$[ebp], eax
  00010	56		 push	 esi
  00011	57		 push	 edi
  00012	8b f9		 mov	 edi, ecx

; 272  : 	for( string::size_type i = 0; i < m_vecPlayerID.size(); i++ )

  00014	33 f6		 xor	 esi, esi
; File C:\Program Files\Microsoft Visual Studio\2022\Professional\VC\Tools\MSVC\14.44.35207\include\vector

; 1915 :         return static_cast<size_type>(_My_data._Mylast - _My_data._Myfirst);

  00016	8b 47 20	 mov	 eax, DWORD PTR [edi+32]
  00019	8b 4f 1c	 mov	 ecx, DWORD PTR [edi+28]
  0001c	2b c1		 sub	 eax, ecx
  0001e	c1 f8 02	 sar	 eax, 2
; File C:\IAGOS\server\v18\Source\Source\_Common\Colosseum.cpp

; 272  : 	for( string::size_type i = 0; i < m_vecPlayerID.size(); i++ )

  00021	85 c0		 test	 eax, eax
  00023	0f 84 8d 00 00
	00		 je	 $LN3@KickUser
  00029	53		 push	 ebx
  0002a	66 0f 1f 44 00
	00		 npad	 6
$LL4@KickUser:
; File C:\Program Files\Microsoft Visual Studio\2022\Professional\VC\Tools\MSVC\14.44.35207\include\vector

; 1953 :         return _My_data._Myfirst[_Pos];

  00030	8d 1c b5 00 00
	00 00		 lea	 ebx, DWORD PTR [esi*4]
; File C:\IAGOS\server\v18\Source\Source\_Common\Colosseum.cpp

; 273  : 		if( m_uPlayerID == m_vecPlayerID.at(i) )

  00037	8b 0c 0b	 mov	 ecx, DWORD PTR [ebx+ecx]
  0003a	39 4d 08	 cmp	 DWORD PTR _m_uPlayerID$[ebp], ecx
  0003d	75 62		 jne	 SHORT $LN2@KickUser
; File C:\Program Files\Microsoft Visual Studio\2022\Professional\VC\Tools\MSVC\14.44.35207\include\vector

; 1949 :         if (static_cast<size_type>(_My_data._Mylast - _My_data._Myfirst) <= _Pos) {

  0003f	3b c6		 cmp	 eax, esi
  00041	0f 86 81 00 00
	00		 jbe	 $LN60@KickUser
; File C:\IAGOS\server\v18\Source\Source\_Common\Colosseum.cpp

; 275  : 			CUser* pUser = g_UserMng.GetUserByPlayerID( m_vecPlayerID.at(i) );

  00047	51		 push	 ecx
  00048	b9 00 00 00 00	 mov	 ecx, OFFSET ?g_UserMng@@3VCUserMng@@A ; g_UserMng
  0004d	e8 00 00 00 00	 call	 ?GetUserByPlayerID@CUserMng@@QAEPAVCUser@@K@Z ; CUserMng::GetUserByPlayerID
; File C:\IAGOS\server\v18\Source\Source\_Common\Obj.h

; 327  : 	return pObj && ( pObj->IsDelete() == FALSE ); 

  00052	85 c0		 test	 eax, eax
  00054	74 32		 je	 SHORT $LN6@KickUser

; 180  : 	BOOL			IsDelete()	{ return (m_dwFlags & OBJ_FLAG_DELETE);  }

  00056	f6 40 04 01	 test	 BYTE PTR [eax+4], 1

; 327  : 	return pObj && ( pObj->IsDelete() == FALSE ); 

  0005a	75 2c		 jne	 SHORT $LN6@KickUser
; File C:\IAGOS\server\v18\Source\Source\_Common\Colosseum.cpp

; 277  : 				pUser->REPLACE( g_uIdofMulti, WI_WORLD_MADRIGAL, D3DXVECTOR3( 6971.984f, 99.8f, 3336.884f ), REPLACE_NORMAL, nDefaultLayer );

  0005c	6a 00		 push	 0
  0005e	6a 00		 push	 0
  00060	8d 4d f0	 lea	 ecx, DWORD PTR $T1[ebp]
; File C:\IAGOS\server\v18\Source\Source\DX_SDK\d3dx9math.inl

; 300  :     x = fx;

  00063	c7 45 f0 df df
	d9 45		 mov	 DWORD PTR $T1[ebp], 1171906527 ; 45d9dfdfH
; File C:\IAGOS\server\v18\Source\Source\_Common\Colosseum.cpp

; 277  : 				pUser->REPLACE( g_uIdofMulti, WI_WORLD_MADRIGAL, D3DXVECTOR3( 6971.984f, 99.8f, 3336.884f ), REPLACE_NORMAL, nDefaultLayer );

  0006a	51		 push	 ecx
  0006b	6a 01		 push	 1
  0006d	ff 35 00 00 00
	00		 push	 DWORD PTR ?g_uIdofMulti@@3KA ; g_uIdofMulti
  00073	8b c8		 mov	 ecx, eax
; File C:\IAGOS\server\v18\Source\Source\DX_SDK\d3dx9math.inl

; 301  :     y = fy;

  00075	c7 45 f4 9a 99
	c7 42		 mov	 DWORD PTR $T1[ebp+4], 1120377242 ; 42c7999aH

; 302  :     z = fz;

  0007c	c7 45 f8 25 8e
	50 45		 mov	 DWORD PTR $T1[ebp+8], 1162907173 ; 45508e25H
; File C:\IAGOS\server\v18\Source\Source\_Common\Colosseum.cpp

; 277  : 				pUser->REPLACE( g_uIdofMulti, WI_WORLD_MADRIGAL, D3DXVECTOR3( 6971.984f, 99.8f, 3336.884f ), REPLACE_NORMAL, nDefaultLayer );

  00083	e8 00 00 00 00	 call	 ?Replace@CMover@@QAEHKKAAUD3DXVECTOR3@@W4REPLACE_TYPE@@H@Z ; CMover::Replace
$LN6@KickUser:
; File C:\Program Files\Microsoft Visual Studio\2022\Professional\VC\Tools\MSVC\14.44.35207\include\vector

; 129  :         _Ptr += _Off;

  00088	8b 47 1c	 mov	 eax, DWORD PTR [edi+28]
  0008b	03 c3		 add	 eax, ebx
; File C:\Program Files\Microsoft Visual Studio\2022\Professional\VC\Tools\MSVC\14.44.35207\include\xutility

; 5147 :                 return _STD _Copy_memmove(_First, _Last, _Dest);

  0008d	50		 push	 eax
  0008e	ff 77 20	 push	 DWORD PTR [edi+32]
; File C:\Program Files\Microsoft Visual Studio\2022\Professional\VC\Tools\MSVC\14.44.35207\include\vector

; 1775 :         _STD _Move_unchecked(_Whereptr + 1, _Mylast, _Whereptr);

  00091	83 c0 04	 add	 eax, 4
; File C:\Program Files\Microsoft Visual Studio\2022\Professional\VC\Tools\MSVC\14.44.35207\include\xutility

; 5147 :                 return _STD _Copy_memmove(_First, _Last, _Dest);

  00094	50		 push	 eax
  00095	e8 00 00 00 00	 call	 ??$_Copy_memmove@PAKPAK@std@@YAPAKPAK00@Z ; std::_Copy_memmove<unsigned long *,unsigned long *>
  0009a	83 c4 0c	 add	 esp, 12			; 0000000cH
; File C:\Program Files\Microsoft Visual Studio\2022\Professional\VC\Tools\MSVC\14.44.35207\include\vector

; 1778 :         --_Mylast;

  0009d	83 47 20 fc	 add	 DWORD PTR [edi+32], -4	; fffffffcH
$LN2@KickUser:

; 1915 :         return static_cast<size_type>(_My_data._Mylast - _My_data._Myfirst);

  000a1	8b 47 20	 mov	 eax, DWORD PTR [edi+32]
; File C:\IAGOS\server\v18\Source\Source\_Common\Colosseum.cpp

; 272  : 	for( string::size_type i = 0; i < m_vecPlayerID.size(); i++ )

  000a4	46		 inc	 esi
; File C:\Program Files\Microsoft Visual Studio\2022\Professional\VC\Tools\MSVC\14.44.35207\include\vector

; 1915 :         return static_cast<size_type>(_My_data._Mylast - _My_data._Myfirst);

  000a5	8b 4f 1c	 mov	 ecx, DWORD PTR [edi+28]
  000a8	2b c1		 sub	 eax, ecx
  000aa	c1 f8 02	 sar	 eax, 2
; File C:\IAGOS\server\v18\Source\Source\_Common\Colosseum.cpp

; 272  : 	for( string::size_type i = 0; i < m_vecPlayerID.size(); i++ )

  000ad	3b f0		 cmp	 esi, eax
  000af	0f 82 7b ff ff
	ff		 jb	 $LL4@KickUser
  000b5	5b		 pop	 ebx
$LN3@KickUser:

; 280  : }

  000b6	8b 4d fc	 mov	 ecx, DWORD PTR __$ArrayPad$[ebp]
  000b9	5f		 pop	 edi
  000ba	33 cd		 xor	 ecx, ebp
  000bc	5e		 pop	 esi
  000bd	e8 00 00 00 00	 call	 @__security_check_cookie@4
  000c2	8b e5		 mov	 esp, ebp
  000c4	5d		 pop	 ebp
  000c5	c2 04 00	 ret	 4
$LN60@KickUser:
; File C:\Program Files\Microsoft Visual Studio\2022\Professional\VC\Tools\MSVC\14.44.35207\include\vector

; 1950 :             _Xrange();

  000c8	e8 00 00 00 00	 call	 ?_Xrange@?$vector@KV?$allocator@K@std@@@std@@CAXXZ ; std::vector<unsigned long,std::allocator<unsigned long> >::_Xrange
$LN73@KickUser:
  000cd	cc		 int	 3
?KickUser@CColosseumMatch@@QAEXK@Z ENDP			; CColosseumMatch::KickUser
_TEXT	ENDS
; Function compile flags: /Ogtp
; File C:\IAGOS\server\v18\Source\Source\_Common\Colosseum.cpp
; File C:\Program Files\Microsoft Visual Studio\2022\Professional\VC\Tools\MSVC\14.44.35207\include\vector
; File C:\IAGOS\server\v18\Source\Source\_Common\Colosseum.cpp
; File C:\Program Files\Microsoft Visual Studio\2022\Professional\VC\Tools\MSVC\14.44.35207\include\vector
; File C:\IAGOS\server\v18\Source\Source\_Common\Colosseum.cpp
; File C:\Program Files\Microsoft Visual Studio\2022\Professional\VC\Tools\MSVC\14.44.35207\include\vector
; File C:\IAGOS\server\v18\Source\Source\_Common\Colosseum.cpp
; File C:\IAGOS\server\v18\Source\Source\_Common\Obj.h
; File C:\IAGOS\server\v18\Source\Source\_Common\Colosseum.cpp
; File C:\Program Files\Microsoft Visual Studio\2022\Professional\VC\Tools\MSVC\14.44.35207\include\vector
; File C:\IAGOS\server\v18\Source\Source\_Common\Colosseum.cpp
; File C:\Program Files\Microsoft Visual Studio\2022\Professional\VC\Tools\MSVC\14.44.35207\include\vector
; File C:\IAGOS\server\v18\Source\Source\_Common\Colosseum.cpp
; File C:\Program Files\Microsoft Visual Studio\2022\Professional\VC\Tools\MSVC\14.44.35207\include\vector
; File C:\IAGOS\server\v18\Source\Source\_Common\Colosseum.cpp
; File C:\Program Files\Microsoft Visual Studio\2022\Professional\VC\Tools\MSVC\14.44.35207\include\vector
; File C:\IAGOS\server\v18\Source\Source\_Common\Colosseum.cpp
;	COMDAT ?EndWaitTime@CColosseumMatch@@QAEXXZ
_TEXT	SEGMENT
?EndWaitTime@CColosseumMatch@@QAEXXZ PROC		; CColosseumMatch::EndWaitTime, COMDAT
; _this$ = ecx

; 283  : {

  00000	53		 push	 ebx
  00001	56		 push	 esi
  00002	8b f1		 mov	 esi, ecx

; 284  : 
; 285  : 	if( m_bWaitTime )

  00004	83 7e 14 00	 cmp	 DWORD PTR [esi+20], 0
  00008	74 18		 je	 SHORT $LN27@EndWaitTim

; 286  : 	{
; 287  : 		m_nNextStage = (int)g_tmCurrent + (int)CColosseumMng::GetInstance()->nWaitAfterStage;

  0000a	e8 00 00 00 00	 call	 ?GetInstance@CColosseumMng@@SAPAV1@XZ ; CColosseumMng::GetInstance
  0000f	8b 40 10	 mov	 eax, DWORD PTR [eax+16]
  00012	03 05 00 00 00
	00		 add	 eax, DWORD PTR ?g_tmCurrent@@3KA ; g_tmCurrent
  00018	89 46 10	 mov	 DWORD PTR [esi+16], eax

; 288  : 		m_bWaitTime	 = FALSE;

  0001b	c7 46 14 00 00
	00 00		 mov	 DWORD PTR [esi+20], 0
$LN27@EndWaitTim:
; File C:\Program Files\Microsoft Visual Studio\2022\Professional\VC\Tools\MSVC\14.44.35207\include\vector

; 1915 :         return static_cast<size_type>(_My_data._Mylast - _My_data._Myfirst);

  00022	8b 46 20	 mov	 eax, DWORD PTR [esi+32]
; File C:\IAGOS\server\v18\Source\Source\_Common\Colosseum.cpp

; 291  : 	for( string::size_type i = 0; i < m_vecPlayerID.size(); i++ )

  00025	33 db		 xor	 ebx, ebx
; File C:\Program Files\Microsoft Visual Studio\2022\Professional\VC\Tools\MSVC\14.44.35207\include\vector

; 1915 :         return static_cast<size_type>(_My_data._Mylast - _My_data._Myfirst);

  00027	8b 56 1c	 mov	 edx, DWORD PTR [esi+28]
  0002a	8b c8		 mov	 ecx, eax
  0002c	2b ca		 sub	 ecx, edx
  0002e	c1 f9 02	 sar	 ecx, 2
; File C:\IAGOS\server\v18\Source\Source\_Common\Colosseum.cpp

; 291  : 	for( string::size_type i = 0; i < m_vecPlayerID.size(); i++ )

  00031	85 c9		 test	 ecx, ecx
  00033	74 4f		 je	 SHORT $LN3@EndWaitTim
  00035	57		 push	 edi
$LL4@EndWaitTim:
; File C:\Program Files\Microsoft Visual Studio\2022\Professional\VC\Tools\MSVC\14.44.35207\include\vector

; 1949 :         if (static_cast<size_type>(_My_data._Mylast - _My_data._Myfirst) <= _Pos) {

  00036	2b c2		 sub	 eax, edx
  00038	c1 f8 02	 sar	 eax, 2
  0003b	3b c3		 cmp	 eax, ebx
  0003d	76 48		 jbe	 SHORT $LN22@EndWaitTim
; File C:\IAGOS\server\v18\Source\Source\_Common\Colosseum.cpp

; 294  : 		CUser* pUser = GetUser( m_vecPlayerID.at(i) );

  0003f	ff 34 9a	 push	 DWORD PTR [edx+ebx*4]
  00042	8b ce		 mov	 ecx, esi
  00044	e8 00 00 00 00	 call	 ?GetUser@CColosseumMatch@@QAEPAVCUser@@K@Z ; CColosseumMatch::GetUser
  00049	8b f8		 mov	 edi, eax
; File C:\IAGOS\server\v18\Source\Source\_Common\Obj.h

; 327  : 	return pObj && ( pObj->IsDelete() == FALSE ); 

  0004b	85 ff		 test	 edi, edi
  0004d	74 22		 je	 SHORT $LN2@EndWaitTim

; 180  : 	BOOL			IsDelete()	{ return (m_dwFlags & OBJ_FLAG_DELETE);  }

  0004f	f6 47 04 01	 test	 BYTE PTR [edi+4], 1

; 327  : 	return pObj && ( pObj->IsDelete() == FALSE ); 

  00053	75 1c		 jne	 SHORT $LN2@EndWaitTim
; File C:\IAGOS\server\v18\Source\Source\_Common\Colosseum.cpp

; 297  : 			pUser->SendColosseumStart(0);

  00055	6a 00		 push	 0
  00057	8b cf		 mov	 ecx, edi
  00059	e8 00 00 00 00	 call	 ?SendColosseumStart@CUser@@QAEXH@Z ; CUser::SendColosseumStart

; 298  : 			pUser->SendColosseumReady1( m_nNextStage, m_nStage + 1 );

  0005e	8a 46 08	 mov	 al, BYTE PTR [esi+8]
  00061	8b cf		 mov	 ecx, edi
  00063	fe c0		 inc	 al
  00065	0f b6 c0	 movzx	 eax, al
  00068	50		 push	 eax
  00069	ff 76 10	 push	 DWORD PTR [esi+16]
  0006c	e8 00 00 00 00	 call	 ?SendColosseumReady1@CUser@@QAEXHE@Z ; CUser::SendColosseumReady1
$LN2@EndWaitTim:
; File C:\Program Files\Microsoft Visual Studio\2022\Professional\VC\Tools\MSVC\14.44.35207\include\vector

; 1915 :         return static_cast<size_type>(_My_data._Mylast - _My_data._Myfirst);

  00071	8b 46 20	 mov	 eax, DWORD PTR [esi+32]
; File C:\IAGOS\server\v18\Source\Source\_Common\Colosseum.cpp

; 291  : 	for( string::size_type i = 0; i < m_vecPlayerID.size(); i++ )

  00074	43		 inc	 ebx
; File C:\Program Files\Microsoft Visual Studio\2022\Professional\VC\Tools\MSVC\14.44.35207\include\vector

; 1915 :         return static_cast<size_type>(_My_data._Mylast - _My_data._Myfirst);

  00075	8b 56 1c	 mov	 edx, DWORD PTR [esi+28]
  00078	8b c8		 mov	 ecx, eax
  0007a	2b ca		 sub	 ecx, edx
  0007c	c1 f9 02	 sar	 ecx, 2
; File C:\IAGOS\server\v18\Source\Source\_Common\Colosseum.cpp

; 291  : 	for( string::size_type i = 0; i < m_vecPlayerID.size(); i++ )

  0007f	3b d9		 cmp	 ebx, ecx
  00081	72 b3		 jb	 SHORT $LL4@EndWaitTim
; File C:\Program Files\Microsoft Visual Studio\2022\Professional\VC\Tools\MSVC\14.44.35207\include\vector

; 1949 :         if (static_cast<size_type>(_My_data._Mylast - _My_data._Myfirst) <= _Pos) {

  00083	5f		 pop	 edi
$LN3@EndWaitTim:
  00084	5e		 pop	 esi
; File C:\IAGOS\server\v18\Source\Source\_Common\Colosseum.cpp

; 301  : }

  00085	5b		 pop	 ebx
  00086	c3		 ret	 0
$LN22@EndWaitTim:
; File C:\Program Files\Microsoft Visual Studio\2022\Professional\VC\Tools\MSVC\14.44.35207\include\vector

; 1950 :             _Xrange();

  00087	e8 00 00 00 00	 call	 ?_Xrange@?$vector@KV?$allocator@K@std@@@std@@CAXXZ ; std::vector<unsigned long,std::allocator<unsigned long> >::_Xrange
$LN34@EndWaitTim:
  0008c	cc		 int	 3
?EndWaitTime@CColosseumMatch@@QAEXXZ ENDP		; CColosseumMatch::EndWaitTime
_TEXT	ENDS
; Function compile flags: /Ogtp
; File C:\IAGOS\server\v18\Source\Source\_Common\Colosseum.cpp
;	COMDAT ?GetUser@CColosseumMatch@@QAEPAVCUser@@K@Z
_TEXT	SEGMENT
_uPlayerID$ = 8						; size = 4
?GetUser@CColosseumMatch@@QAEPAVCUser@@K@Z PROC		; CColosseumMatch::GetUser, COMDAT
; _this$ = ecx

; 251  : {

  00000	55		 push	 ebp
  00001	8b ec		 mov	 ebp, esp

; 252  : 	return g_UserMng.GetUserByPlayerID( uPlayerID );

  00003	b9 00 00 00 00	 mov	 ecx, OFFSET ?g_UserMng@@3VCUserMng@@A ; g_UserMng

; 253  : }

  00008	5d		 pop	 ebp

; 252  : 	return g_UserMng.GetUserByPlayerID( uPlayerID );

  00009	e9 00 00 00 00	 jmp	 ?GetUserByPlayerID@CUserMng@@QAEPAVCUser@@K@Z ; CUserMng::GetUserByPlayerID
?GetUser@CColosseumMatch@@QAEPAVCUser@@K@Z ENDP		; CColosseumMatch::GetUser
_TEXT	ENDS
; Function compile flags: /Ogtp
; File C:\IAGOS\server\v18\Source\Source\_Common\Colosseum.cpp
; File C:\Program Files\Microsoft Visual Studio\2022\Professional\VC\Tools\MSVC\14.44.35207\include\vector
; File C:\IAGOS\server\v18\Source\Source\_Common\Colosseum.cpp
; File C:\Program Files\Microsoft Visual Studio\2022\Professional\VC\Tools\MSVC\14.44.35207\include\vector
; File C:\IAGOS\server\v18\Source\Source\_Common\Colosseum.cpp
; File C:\IAGOS\server\v18\Source\Source\_Common\Obj.h
; File C:\IAGOS\server\v18\Source\Source\_Common\Colosseum.cpp
; File C:\IAGOS\server\v18\Source\Source\DX_SDK\d3dx9math.inl
; File C:\IAGOS\server\v18\Source\Source\_Common\Colosseum.cpp
; File C:\IAGOS\server\v18\Source\Source\DX_SDK\d3dx9math.inl
; File C:\IAGOS\server\v18\Source\Source\_Common\Colosseum.cpp
; File C:\Program Files\Microsoft Visual Studio\2022\Professional\VC\Tools\MSVC\14.44.35207\include\vector
; File C:\IAGOS\server\v18\Source\Source\_Common\Colosseum.cpp
; File C:\Program Files\Microsoft Visual Studio\2022\Professional\VC\Tools\MSVC\14.44.35207\include\vector
; File C:\IAGOS\server\v18\Source\Source\_Common\Colosseum.cpp
; File C:\Program Files\Microsoft Visual Studio\2022\Professional\VC\Tools\MSVC\14.44.35207\include\vector
; File C:\IAGOS\server\v18\Source\Source\_Common\Colosseum.cpp
; File C:\Program Files\Microsoft Visual Studio\2022\Professional\VC\Tools\MSVC\14.44.35207\include\vector
; File C:\IAGOS\server\v18\Source\Source\_Common\Colosseum.cpp
;	COMDAT ?EndMatch@CColosseumMatch@@QAEXH@Z
_TEXT	SEGMENT
$T1 = -16						; size = 12
__$ArrayPad$ = -4					; size = 4
_bWin$ = 8						; size = 4
?EndMatch@CColosseumMatch@@QAEXH@Z PROC			; CColosseumMatch::EndMatch, COMDAT
; _this$ = ecx

; 329  : {

  00000	55		 push	 ebp
  00001	8b ec		 mov	 ebp, esp
  00003	83 ec 10	 sub	 esp, 16			; 00000010H
  00006	a1 00 00 00 00	 mov	 eax, DWORD PTR ___security_cookie
  0000b	33 c5		 xor	 eax, ebp
  0000d	89 45 fc	 mov	 DWORD PTR __$ArrayPad$[ebp], eax
  00010	53		 push	 ebx
  00011	8b d9		 mov	 ebx, ecx
  00013	57		 push	 edi

; 330  : 	for( string::size_type i = 0; i < m_vecPlayerID.size(); i++ )

  00014	33 ff		 xor	 edi, edi
; File C:\Program Files\Microsoft Visual Studio\2022\Professional\VC\Tools\MSVC\14.44.35207\include\vector

; 1915 :         return static_cast<size_type>(_My_data._Mylast - _My_data._Myfirst);

  00016	8b 4b 20	 mov	 ecx, DWORD PTR [ebx+32]
  00019	8b c1		 mov	 eax, ecx
  0001b	8b 53 1c	 mov	 edx, DWORD PTR [ebx+28]
  0001e	2b c2		 sub	 eax, edx
  00020	c1 f8 02	 sar	 eax, 2
; File C:\IAGOS\server\v18\Source\Source\_Common\Colosseum.cpp

; 330  : 	for( string::size_type i = 0; i < m_vecPlayerID.size(); i++ )

  00023	85 c0		 test	 eax, eax
  00025	74 77		 je	 SHORT $LN3@EndMatch
  00027	56		 push	 esi
$LL4@EndMatch:
; File C:\Program Files\Microsoft Visual Studio\2022\Professional\VC\Tools\MSVC\14.44.35207\include\vector

; 1949 :         if (static_cast<size_type>(_My_data._Mylast - _My_data._Myfirst) <= _Pos) {

  00028	2b ca		 sub	 ecx, edx
  0002a	c1 f9 02	 sar	 ecx, 2
  0002d	3b cf		 cmp	 ecx, edi
  0002f	0f 86 8a 00 00
	00		 jbe	 $LN23@EndMatch
; File C:\IAGOS\server\v18\Source\Source\_Common\Colosseum.cpp

; 332  : 		CUser* pUser = GetUser( m_vecPlayerID.at(i) );

  00035	ff 34 ba	 push	 DWORD PTR [edx+edi*4]
  00038	8b cb		 mov	 ecx, ebx
  0003a	e8 00 00 00 00	 call	 ?GetUser@CColosseumMatch@@QAEPAVCUser@@K@Z ; CColosseumMatch::GetUser
  0003f	8b f0		 mov	 esi, eax
; File C:\IAGOS\server\v18\Source\Source\_Common\Obj.h

; 327  : 	return pObj && ( pObj->IsDelete() == FALSE ); 

  00041	85 f6		 test	 esi, esi
  00043	74 46		 je	 SHORT $LN2@EndMatch

; 180  : 	BOOL			IsDelete()	{ return (m_dwFlags & OBJ_FLAG_DELETE);  }

  00045	f6 46 04 01	 test	 BYTE PTR [esi+4], 1

; 327  : 	return pObj && ( pObj->IsDelete() == FALSE ); 

  00049	75 40		 jne	 SHORT $LN2@EndMatch
; File C:\IAGOS\server\v18\Source\Source\_Common\Colosseum.cpp

; 335  : 			pUser->SendColosseumEndMatch( bWin, ( g_tmCurrent - m_nStartTime ) );

  0004b	8b 0d 00 00 00
	00		 mov	 ecx, DWORD PTR ?g_tmCurrent@@3KA ; g_tmCurrent
  00051	2b 4b 0c	 sub	 ecx, DWORD PTR [ebx+12]
  00054	51		 push	 ecx
  00055	ff 75 08	 push	 DWORD PTR _bWin$[ebp]
  00058	8b ce		 mov	 ecx, esi
  0005a	e8 00 00 00 00	 call	 ?SendColosseumEndMatch@CUser@@QAEXHH@Z ; CUser::SendColosseumEndMatch

; 337  : 			pUser->REPLACE( g_uIdofMulti, WI_WORLD_MADRIGAL, D3DXVECTOR3( 6971.984f, 99.8f, 3336.884f ), REPLACE_NORMAL, nDefaultLayer );

  0005f	6a 00		 push	 0
  00061	6a 00		 push	 0
  00063	8d 45 f0	 lea	 eax, DWORD PTR $T1[ebp]
; File C:\IAGOS\server\v18\Source\Source\DX_SDK\d3dx9math.inl

; 300  :     x = fx;

  00066	c7 45 f0 df df
	d9 45		 mov	 DWORD PTR $T1[ebp], 1171906527 ; 45d9dfdfH
; File C:\IAGOS\server\v18\Source\Source\_Common\Colosseum.cpp

; 337  : 			pUser->REPLACE( g_uIdofMulti, WI_WORLD_MADRIGAL, D3DXVECTOR3( 6971.984f, 99.8f, 3336.884f ), REPLACE_NORMAL, nDefaultLayer );

  0006d	50		 push	 eax
  0006e	6a 01		 push	 1
  00070	ff 35 00 00 00
	00		 push	 DWORD PTR ?g_uIdofMulti@@3KA ; g_uIdofMulti
  00076	8b ce		 mov	 ecx, esi
; File C:\IAGOS\server\v18\Source\Source\DX_SDK\d3dx9math.inl

; 301  :     y = fy;

  00078	c7 45 f4 9a 99
	c7 42		 mov	 DWORD PTR $T1[ebp+4], 1120377242 ; 42c7999aH

; 302  :     z = fz;

  0007f	c7 45 f8 25 8e
	50 45		 mov	 DWORD PTR $T1[ebp+8], 1162907173 ; 45508e25H
; File C:\IAGOS\server\v18\Source\Source\_Common\Colosseum.cpp

; 337  : 			pUser->REPLACE( g_uIdofMulti, WI_WORLD_MADRIGAL, D3DXVECTOR3( 6971.984f, 99.8f, 3336.884f ), REPLACE_NORMAL, nDefaultLayer );

  00086	e8 00 00 00 00	 call	 ?Replace@CMover@@QAEHKKAAUD3DXVECTOR3@@W4REPLACE_TYPE@@H@Z ; CMover::Replace
$LN2@EndMatch:
; File C:\Program Files\Microsoft Visual Studio\2022\Professional\VC\Tools\MSVC\14.44.35207\include\vector

; 1915 :         return static_cast<size_type>(_My_data._Mylast - _My_data._Myfirst);

  0008b	8b 4b 20	 mov	 ecx, DWORD PTR [ebx+32]
; File C:\IAGOS\server\v18\Source\Source\_Common\Colosseum.cpp

; 330  : 	for( string::size_type i = 0; i < m_vecPlayerID.size(); i++ )

  0008e	47		 inc	 edi
; File C:\Program Files\Microsoft Visual Studio\2022\Professional\VC\Tools\MSVC\14.44.35207\include\vector

; 1915 :         return static_cast<size_type>(_My_data._Mylast - _My_data._Myfirst);

  0008f	8b 53 1c	 mov	 edx, DWORD PTR [ebx+28]
  00092	8b c1		 mov	 eax, ecx
  00094	2b c2		 sub	 eax, edx
  00096	c1 f8 02	 sar	 eax, 2
; File C:\IAGOS\server\v18\Source\Source\_Common\Colosseum.cpp

; 330  : 	for( string::size_type i = 0; i < m_vecPlayerID.size(); i++ )

  00099	3b f8		 cmp	 edi, eax
  0009b	72 8b		 jb	 SHORT $LL4@EndMatch
; File C:\Program Files\Microsoft Visual Studio\2022\Professional\VC\Tools\MSVC\14.44.35207\include\vector

; 1949 :         if (static_cast<size_type>(_My_data._Mylast - _My_data._Myfirst) <= _Pos) {

  0009d	5e		 pop	 esi
$LN3@EndMatch:
; File C:\IAGOS\server\v18\Source\Source\_Common\Colosseum.cpp

; 340  : 	CColosseumMng::GetInstance()->DestroyMatch( m_uPartyID );

  0009e	ff 73 04	 push	 DWORD PTR [ebx+4]
  000a1	e8 00 00 00 00	 call	 ?GetInstance@CColosseumMng@@SAPAV1@XZ ; CColosseumMng::GetInstance
  000a6	8b c8		 mov	 ecx, eax
  000a8	e8 00 00 00 00	 call	 ?DestroyMatch@CColosseumMng@@QAEXK@Z ; CColosseumMng::DestroyMatch

; 341  : }

  000ad	8b 4d fc	 mov	 ecx, DWORD PTR __$ArrayPad$[ebp]
  000b0	5f		 pop	 edi
  000b1	33 cd		 xor	 ecx, ebp
  000b3	5b		 pop	 ebx
  000b4	e8 00 00 00 00	 call	 @__security_check_cookie@4
  000b9	8b e5		 mov	 esp, ebp
  000bb	5d		 pop	 ebp
  000bc	c2 04 00	 ret	 4
$LN23@EndMatch:
; File C:\Program Files\Microsoft Visual Studio\2022\Professional\VC\Tools\MSVC\14.44.35207\include\vector

; 1950 :             _Xrange();

  000bf	e8 00 00 00 00	 call	 ?_Xrange@?$vector@KV?$allocator@K@std@@@std@@CAXXZ ; std::vector<unsigned long,std::allocator<unsigned long> >::_Xrange
$LN32@EndMatch:
  000c4	cc		 int	 3
?EndMatch@CColosseumMatch@@QAEXH@Z ENDP			; CColosseumMatch::EndMatch
_TEXT	ENDS
; Function compile flags: /Ogtp
; File C:\IAGOS\server\v18\Source\Source\_Common\Colosseum.cpp
; File C:\IAGOS\server\v18\Source\Source\_Common\Obj.h
; File C:\IAGOS\server\v18\Source\Source\_Common\Colosseum.cpp
; File C:\Program Files\Microsoft Visual Studio\2022\Professional\VC\Tools\MSVC\14.44.35207\include\vector
; File C:\IAGOS\server\v18\Source\Source\_Common\Colosseum.cpp
; File C:\Program Files\Microsoft Visual Studio\2022\Professional\VC\Tools\MSVC\14.44.35207\include\vector
; File C:\IAGOS\server\v18\Source\Source\_Common\Colosseum.cpp
; File C:\IAGOS\server\v18\Source\Source\DX_SDK\d3dx9math.inl
; File C:\IAGOS\server\v18\Source\Source\_Common\Colosseum.cpp
; File C:\IAGOS\server\v18\Source\Source\DX_SDK\d3dx9math.inl
; File C:\IAGOS\server\v18\Source\Source\_Common\Colosseum.cpp
;	COMDAT ?EnterRoom@CColosseumMatch@@QAEXPAVCUser@@@Z
_TEXT	SEGMENT
$T1 = -16						; size = 12
__$ArrayPad$ = -4					; size = 4
_pUser$ = 8						; size = 4
?EnterRoom@CColosseumMatch@@QAEXPAVCUser@@@Z PROC	; CColosseumMatch::EnterRoom, COMDAT
; _this$ = ecx

; 256  : {

  00000	55		 push	 ebp
  00001	8b ec		 mov	 ebp, esp
  00003	83 ec 10	 sub	 esp, 16			; 00000010H
  00006	a1 00 00 00 00	 mov	 eax, DWORD PTR ___security_cookie
  0000b	33 c5		 xor	 eax, ebp
  0000d	89 45 fc	 mov	 DWORD PTR __$ArrayPad$[ebp], eax
  00010	56		 push	 esi
  00011	57		 push	 edi
  00012	8b 7d 08	 mov	 edi, DWORD PTR _pUser$[ebp]
  00015	8b f1		 mov	 esi, ecx
; File C:\IAGOS\server\v18\Source\Source\_Common\Obj.h

; 327  : 	return pObj && ( pObj->IsDelete() == FALSE ); 

  00017	85 ff		 test	 edi, edi
  00019	0f 84 a3 00 00
	00		 je	 $LN4@EnterRoom

; 180  : 	BOOL			IsDelete()	{ return (m_dwFlags & OBJ_FLAG_DELETE);  }

  0001f	f6 47 04 01	 test	 BYTE PTR [edi+4], 1

; 327  : 	return pObj && ( pObj->IsDelete() == FALSE ); 

  00023	0f 85 99 00 00
	00		 jne	 $LN4@EnterRoom
; File C:\IAGOS\server\v18\Source\Source\_Common\Colosseum.cpp

; 257  : 	if( IsValidObj( pUser ) && m_bWaitTime && !IsTeleported( pUser->m_idPlayer ) )

  00029	83 7e 14 00	 cmp	 DWORD PTR [esi+20], 0
  0002d	0f 84 8f 00 00
	00		 je	 $LN4@EnterRoom
  00033	53		 push	 ebx
  00034	ff b7 34 02 00
	00		 push	 DWORD PTR [edi+564]
  0003a	8d 9f 34 02 00
	00		 lea	 ebx, DWORD PTR [edi+564]
  00040	e8 00 00 00 00	 call	 ?IsTeleported@CColosseumMatch@@QAEHK@Z ; CColosseumMatch::IsTeleported
  00045	85 c0		 test	 eax, eax
  00047	75 78		 jne	 SHORT $LN29@EnterRoom
; File C:\Program Files\Microsoft Visual Studio\2022\Professional\VC\Tools\MSVC\14.44.35207\include\vector

; 844  :         if (_Mylast != _My_data._Myend) {

  00049	8b 56 20	 mov	 edx, DWORD PTR [esi+32]
; File C:\IAGOS\server\v18\Source\Source\_Common\Colosseum.cpp

; 259  : 		m_vecPlayerID.push_back( pUser->m_idPlayer );

  0004c	8d 4e 1c	 lea	 ecx, DWORD PTR [esi+28]
; File C:\Program Files\Microsoft Visual Studio\2022\Professional\VC\Tools\MSVC\14.44.35207\include\vector

; 844  :         if (_Mylast != _My_data._Myend) {

  0004f	3b 51 08	 cmp	 edx, DWORD PTR [ecx+8]
  00052	74 0a		 je	 SHORT $LN15@EnterRoom

; 860  :             _STD _Construct_in_place(*_Mylast, _STD forward<_Valty>(_Val)...);

  00054	8b 03		 mov	 eax, DWORD PTR [ebx]
  00056	89 02		 mov	 DWORD PTR [edx], eax

; 861  :         } else {
; 862  :             _ASAN_VECTOR_EXTEND_GUARD(static_cast<size_type>(_Mylast - _My_data._Myfirst) + 1);
; 863  :             _Alty_traits::construct(_Getal(), _Unfancy(_Mylast), _STD forward<_Valty>(_Val)...);
; 864  :             _ASAN_VECTOR_RELEASE_GUARD;
; 865  :         }
; 866  : 
; 867  :         _Orphan_range(_Mylast, _Mylast);
; 868  :         _Ty& _Result = *_Mylast;
; 869  :         ++_Mylast;

  00058	83 41 04 04	 add	 DWORD PTR [ecx+4], 4

; 845  :             return _Emplace_back_with_unused_capacity(_STD forward<_Valty>(_Val)...);

  0005c	eb 07		 jmp	 SHORT $LN14@EnterRoom
$LN15@EnterRoom:

; 846  :         }
; 847  : 
; 848  :         return *_Emplace_reallocate(_Mylast, _STD forward<_Valty>(_Val)...);

  0005e	53		 push	 ebx
  0005f	52		 push	 edx
  00060	e8 00 00 00 00	 call	 ??$_Emplace_reallocate@ABK@?$vector@KV?$allocator@K@std@@@std@@AAEPAKQAKABK@Z ; std::vector<unsigned long,std::allocator<unsigned long> >::_Emplace_reallocate<unsigned long const &>
$LN14@EnterRoom:
; File C:\IAGOS\server\v18\Source\Source\_Common\Colosseum.cpp

; 260  : 		CWorld* pWorld = g_WorldMng.GetWorld( WI_WORLD_COLOSSEUM );

  00065	68 e7 00 00 00	 push	 231			; 000000e7H
  0006a	b9 00 00 00 00	 mov	 ecx, OFFSET ?g_WorldMng@@3VCWorldMng@@A ; g_WorldMng
  0006f	e8 00 00 00 00	 call	 ?GetWorld@CWorldMng@@QAEPAVCWorld@@K@Z ; CWorldMng::GetWorld

; 261  : 		if( pWorld )

  00074	85 c0		 test	 eax, eax
  00076	74 49		 je	 SHORT $LN29@EnterRoom

; 262  : 			if( pWorld->m_linkMap.GetLinkMap( static_cast<int>( m_uPartyID ) ) )

  00078	ff 76 04	 push	 DWORD PTR [esi+4]
  0007b	8d 48 24	 lea	 ecx, DWORD PTR [eax+36]
  0007e	e8 00 00 00 00	 call	 ?GetLinkMap@CLayeredLinkMap@@QAEPAVCLinkMap@@H@Z ; CLayeredLinkMap::GetLinkMap
  00083	85 c0		 test	 eax, eax
  00085	74 3a		 je	 SHORT $LN29@EnterRoom

; 263  : 				{
; 264  : 					pUser->SendColosseumStart( (int)(m_nNextStage) );

  00087	ff 76 10	 push	 DWORD PTR [esi+16]
  0008a	8b cf		 mov	 ecx, edi
  0008c	e8 00 00 00 00	 call	 ?SendColosseumStart@CUser@@QAEXH@Z ; CUser::SendColosseumStart

; 265  : 					pUser->REPLACE( g_uIdofMulti, WI_WORLD_COLOSSEUM, D3DXVECTOR3( 1286.0F, 100.0F, 1087.0F ), REPLACE_NORMAL, static_cast<int>( m_uPartyID ) );

  00091	ff 76 04	 push	 DWORD PTR [esi+4]
  00094	8d 45 f0	 lea	 eax, DWORD PTR $T1[ebp]
; File C:\IAGOS\server\v18\Source\Source\DX_SDK\d3dx9math.inl

; 300  :     x = fx;

  00097	c7 45 f0 00 c0
	a0 44		 mov	 DWORD PTR $T1[ebp], 1151385600 ; 44a0c000H
; File C:\IAGOS\server\v18\Source\Source\_Common\Colosseum.cpp

; 265  : 					pUser->REPLACE( g_uIdofMulti, WI_WORLD_COLOSSEUM, D3DXVECTOR3( 1286.0F, 100.0F, 1087.0F ), REPLACE_NORMAL, static_cast<int>( m_uPartyID ) );

  0009e	6a 00		 push	 0
  000a0	50		 push	 eax
  000a1	68 e7 00 00 00	 push	 231			; 000000e7H
  000a6	ff 35 00 00 00
	00		 push	 DWORD PTR ?g_uIdofMulti@@3KA ; g_uIdofMulti
  000ac	8b cf		 mov	 ecx, edi
; File C:\IAGOS\server\v18\Source\Source\DX_SDK\d3dx9math.inl

; 301  :     y = fy;

  000ae	c7 45 f4 00 00
	c8 42		 mov	 DWORD PTR $T1[ebp+4], 1120403456 ; 42c80000H

; 302  :     z = fz;

  000b5	c7 45 f8 00 e0
	87 44		 mov	 DWORD PTR $T1[ebp+8], 1149755392 ; 4487e000H
; File C:\IAGOS\server\v18\Source\Source\_Common\Colosseum.cpp

; 265  : 					pUser->REPLACE( g_uIdofMulti, WI_WORLD_COLOSSEUM, D3DXVECTOR3( 1286.0F, 100.0F, 1087.0F ), REPLACE_NORMAL, static_cast<int>( m_uPartyID ) );

  000bc	e8 00 00 00 00	 call	 ?Replace@CMover@@QAEHKKAAUD3DXVECTOR3@@W4REPLACE_TYPE@@H@Z ; CMover::Replace
$LN29@EnterRoom:
  000c1	5b		 pop	 ebx
$LN4@EnterRoom:

; 266  : 				}
; 267  : 	}
; 268  : }

  000c2	8b 4d fc	 mov	 ecx, DWORD PTR __$ArrayPad$[ebp]
  000c5	5f		 pop	 edi
  000c6	33 cd		 xor	 ecx, ebp
  000c8	5e		 pop	 esi
  000c9	e8 00 00 00 00	 call	 @__security_check_cookie@4
  000ce	8b e5		 mov	 esp, ebp
  000d0	5d		 pop	 ebp
  000d1	c2 04 00	 ret	 4
?EnterRoom@CColosseumMatch@@QAEXPAVCUser@@@Z ENDP	; CColosseumMatch::EnterRoom
_TEXT	ENDS
; Function compile flags: /Ogtp
; File C:\IAGOS\server\v18\Source\Source\_Common\Colosseum.cpp
;	COMDAT ?CreateRoomLayer@CColosseumMatch@@QAEXXZ
_TEXT	SEGMENT
?CreateRoomLayer@CColosseumMatch@@QAEXXZ PROC		; CColosseumMatch::CreateRoomLayer, COMDAT
; _this$ = ecx

; 244  : {

  00000	56		 push	 esi
  00001	57		 push	 edi
  00002	8b f9		 mov	 edi, ecx

; 245  : 	CWorld* pWorld = g_WorldMng.GetWorld( WI_WORLD_COLOSSEUM );

  00004	b9 00 00 00 00	 mov	 ecx, OFFSET ?g_WorldMng@@3VCWorldMng@@A ; g_WorldMng
  00009	68 e7 00 00 00	 push	 231			; 000000e7H
  0000e	e8 00 00 00 00	 call	 ?GetWorld@CWorldMng@@QAEPAVCWorld@@K@Z ; CWorldMng::GetWorld
  00013	8b f0		 mov	 esi, eax

; 246  : 	if( pWorld && !pWorld->m_linkMap.GetLinkMap( static_cast<int>( m_uPartyID ) ) )

  00015	85 f6		 test	 esi, esi
  00017	74 19		 je	 SHORT $LN2@CreateRoom
  00019	ff 77 04	 push	 DWORD PTR [edi+4]
  0001c	8d 4e 24	 lea	 ecx, DWORD PTR [esi+36]
  0001f	e8 00 00 00 00	 call	 ?GetLinkMap@CLayeredLinkMap@@QAEPAVCLinkMap@@H@Z ; CLayeredLinkMap::GetLinkMap
  00024	85 c0		 test	 eax, eax
  00026	75 0a		 jne	 SHORT $LN2@CreateRoom

; 247  : 		pWorld->CreateLayer( static_cast<int>( m_uPartyID ) );

  00028	ff 77 04	 push	 DWORD PTR [edi+4]
  0002b	8b ce		 mov	 ecx, esi
  0002d	e8 00 00 00 00	 call	 ?CreateLayer@CWorld@@QAEHH@Z ; CWorld::CreateLayer
$LN2@CreateRoom:

; 248  : }

  00032	5f		 pop	 edi
  00033	5e		 pop	 esi
  00034	c3		 ret	 0
?CreateRoomLayer@CColosseumMatch@@QAEXXZ ENDP		; CColosseumMatch::CreateRoomLayer
_TEXT	ENDS
; Function compile flags: /Ogtp
; File C:\IAGOS\server\v18\Source\Source\_Common\Colosseum.cpp
; File C:\Program Files\Microsoft Visual Studio\2022\Professional\VC\Tools\MSVC\14.44.35207\include\vector
; File C:\IAGOS\server\v18\Source\Source\_Common\Colosseum.cpp
; File C:\Program Files\Microsoft Visual Studio\2022\Professional\VC\Tools\MSVC\14.44.35207\include\vector
; File C:\IAGOS\server\v18\Source\Source\_Common\Colosseum.cpp
; File C:\Program Files\Microsoft Visual Studio\2022\Professional\VC\Tools\MSVC\14.44.35207\include\vector
; File C:\IAGOS\server\v18\Source\Source\_Common\Colosseum.cpp
; File C:\Program Files\Microsoft Visual Studio\2022\Professional\VC\Tools\MSVC\14.44.35207\include\vector
; File C:\IAGOS\server\v18\Source\Source\_Common\Colosseum.cpp
; File C:\IAGOS\server\v18\Source\Source\_Common\Obj.h
; File C:\Program Files\Microsoft Visual Studio\2022\Professional\VC\Tools\MSVC\14.44.35207\atlmfc\include\afxstr.h
; File C:\Program Files\Microsoft Visual Studio\2022\Professional\VC\Tools\MSVC\14.44.35207\atlmfc\include\atlsimpstr.h
; File C:\IAGOS\server\v18\Source\Source\_Common\Project.h
; File C:\IAGOS\server\v18\Source\Source\_Common\Colosseum.cpp
; File C:\IAGOS\server\v18\Source\Source\_Common\Project.h
; File C:\IAGOS\server\v18\Source\Source\_Common\data.h
; File C:\IAGOS\server\v18\Source\Source\_Common\Project.h
; File C:\IAGOS\server\v18\Source\Source\_Common\Colosseum.cpp
; File C:\Program Files\Microsoft Visual Studio\2022\Professional\VC\Tools\MSVC\14.44.35207\atlmfc\include\atlsimpstr.h
; File C:\Program Files\Microsoft Visual Studio\2022\Professional\VC\Tools\MSVC\14.44.35207\include\vector
; File C:\IAGOS\server\v18\Source\Source\_Common\Colosseum.cpp
; File C:\Program Files\Microsoft Visual Studio\2022\Professional\VC\Tools\MSVC\14.44.35207\include\vector
; File C:\IAGOS\server\v18\Source\Source\_Common\Colosseum.cpp
; File C:\Program Files\Microsoft Visual Studio\2022\Professional\VC\Tools\MSVC\14.44.35207\include\vector
; File C:\IAGOS\server\v18\Source\Source\_Common\Colosseum.cpp
; File C:\Program Files\Microsoft Visual Studio\2022\Professional\VC\Tools\MSVC\14.44.35207\include\vector
; File C:\IAGOS\server\v18\Source\Source\_Common\Colosseum.cpp
; File C:\Program Files\Microsoft Visual Studio\2022\Professional\VC\Tools\MSVC\14.44.35207\atlmfc\include\atlsimpstr.h
; File C:\IAGOS\server\v18\Source\Source\_Common\Colosseum.cpp
;	COMDAT ?DestroyMover@CColosseumMatch@@QAEXXZ
_TEXT	SEGMENT
_i$1$ = -24						; size = 4
_strTemp$2 = -20					; size = 4
_strInt$ = -16						; size = 2
__$EHRec$ = -12						; size = 12
?DestroyMover@CColosseumMatch@@QAEXXZ PROC		; CColosseumMatch::DestroyMover, COMDAT
; _this$ = ecx

; 304  : {

  00000	55		 push	 ebp
  00001	8b ec		 mov	 ebp, esp
  00003	6a ff		 push	 -1
  00005	68 00 00 00 00	 push	 __ehhandler$?DestroyMover@CColosseumMatch@@QAEXXZ
  0000a	64 a1 00 00 00
	00		 mov	 eax, DWORD PTR fs:0
  00010	50		 push	 eax
  00011	83 ec 0c	 sub	 esp, 12			; 0000000cH
  00014	53		 push	 ebx
  00015	56		 push	 esi
  00016	57		 push	 edi
  00017	a1 00 00 00 00	 mov	 eax, DWORD PTR ___security_cookie
  0001c	33 c5		 xor	 eax, ebp
  0001e	50		 push	 eax
  0001f	8d 45 f4	 lea	 eax, DWORD PTR __$EHRec$[ebp]
  00022	64 a3 00 00 00
	00		 mov	 DWORD PTR fs:0, eax
  00028	8b f9		 mov	 edi, ecx

; 305  : 	m_nMoverID = NULL;

  0002a	c7 47 28 00 00
	00 00		 mov	 DWORD PTR [edi+40], 0

; 306  : 	m_bWaitTime  = FALSE;

  00031	c7 47 14 00 00
	00 00		 mov	 DWORD PTR [edi+20], 0

; 307  : 
; 308  : 	m_nNextStage = (int)g_tmCurrent + CColosseumMng::GetInstance()->nWaitAfterStage;

  00038	e8 00 00 00 00	 call	 ?GetInstance@CColosseumMng@@SAPAV1@XZ ; CColosseumMng::GetInstance

; 311  : 	itoa( m_nStage, strInt, 10 );

  0003d	6a 0a		 push	 10			; 0000000aH
  0003f	8b 40 10	 mov	 eax, DWORD PTR [eax+16]
  00042	03 05 00 00 00
	00		 add	 eax, DWORD PTR ?g_tmCurrent@@3KA ; g_tmCurrent
  00048	89 47 10	 mov	 DWORD PTR [edi+16], eax
  0004b	8d 45 f0	 lea	 eax, DWORD PTR _strInt$[ebp]
  0004e	50		 push	 eax
  0004f	0f b6 47 08	 movzx	 eax, BYTE PTR [edi+8]
  00053	50		 push	 eax
  00054	e8 00 00 00 00	 call	 _itoa
; File C:\Program Files\Microsoft Visual Studio\2022\Professional\VC\Tools\MSVC\14.44.35207\include\vector

; 1915 :         return static_cast<size_type>(_My_data._Mylast - _My_data._Myfirst);

  00059	8b 47 20	 mov	 eax, DWORD PTR [edi+32]
; File C:\IAGOS\server\v18\Source\Source\_Common\Colosseum.cpp

; 312  : 	for( string::size_type i = 0; i < m_vecPlayerID.size(); i++ )

  0005c	33 d2		 xor	 edx, edx
; File C:\Program Files\Microsoft Visual Studio\2022\Professional\VC\Tools\MSVC\14.44.35207\include\vector

; 1915 :         return static_cast<size_type>(_My_data._Mylast - _My_data._Myfirst);

  0005e	8b 4f 1c	 mov	 ecx, DWORD PTR [edi+28]
; File C:\IAGOS\server\v18\Source\Source\_Common\Colosseum.cpp

; 311  : 	itoa( m_nStage, strInt, 10 );

  00061	83 c4 0c	 add	 esp, 12			; 0000000cH
; File C:\Program Files\Microsoft Visual Studio\2022\Professional\VC\Tools\MSVC\14.44.35207\include\vector

; 1915 :         return static_cast<size_type>(_My_data._Mylast - _My_data._Myfirst);

  00064	2b c1		 sub	 eax, ecx
; File C:\IAGOS\server\v18\Source\Source\_Common\Colosseum.cpp

; 312  : 	for( string::size_type i = 0; i < m_vecPlayerID.size(); i++ )

  00066	89 55 e8	 mov	 DWORD PTR _i$1$[ebp], edx
; File C:\Program Files\Microsoft Visual Studio\2022\Professional\VC\Tools\MSVC\14.44.35207\include\vector

; 1915 :         return static_cast<size_type>(_My_data._Mylast - _My_data._Myfirst);

  00069	c1 f8 02	 sar	 eax, 2
; File C:\IAGOS\server\v18\Source\Source\_Common\Colosseum.cpp

; 312  : 	for( string::size_type i = 0; i < m_vecPlayerID.size(); i++ )

  0006c	85 c0		 test	 eax, eax
  0006e	0f 84 f9 00 00
	00		 je	 $LN3@DestroyMov
$LL4@DestroyMov:

; 313  : 	{
; 314  : 		CUser* pUser = GetUser( m_vecPlayerID.at(i) );

  00074	ff 34 91	 push	 DWORD PTR [ecx+edx*4]
  00077	8b cf		 mov	 ecx, edi
  00079	e8 00 00 00 00	 call	 ?GetUser@CColosseumMatch@@QAEPAVCUser@@K@Z ; CColosseumMatch::GetUser
  0007e	8b d8		 mov	 ebx, eax
; File C:\IAGOS\server\v18\Source\Source\_Common\Obj.h

; 327  : 	return pObj && ( pObj->IsDelete() == FALSE ); 

  00080	85 db		 test	 ebx, ebx
  00082	0f 84 cb 00 00
	00		 je	 $LN2@DestroyMov

; 180  : 	BOOL			IsDelete()	{ return (m_dwFlags & OBJ_FLAG_DELETE);  }

  00088	f6 43 04 01	 test	 BYTE PTR [ebx+4], 1

; 327  : 	return pObj && ( pObj->IsDelete() == FALSE ); 

  0008c	0f 85 c1 00 00
	00		 jne	 $LN2@DestroyMov
; File C:\Program Files\Microsoft Visual Studio\2022\Professional\VC\Tools\MSVC\14.44.35207\atlmfc\include\afxstr.h

; 56   : 		return( AfxGetStringManager() );

  00092	e8 00 00 00 00	 call	 ?AfxGetStringManager@@YGPAUIAtlStringMgr@ATL@@XZ ; AfxGetStringManager
  00097	8b c8		 mov	 ecx, eax
; File C:\Program Files\Microsoft Visual Studio\2022\Professional\VC\Tools\MSVC\14.44.35207\atlmfc\include\atlsimpstr.h

; 209  : 		ATLENSURE( pStringMgr != NULL );

  00099	85 c9		 test	 ecx, ecx
  0009b	0f 84 de 00 00
	00		 je	 $LN65@DestroyMov

; 210  : 		CStringData* pData = pStringMgr->GetNilString();

  000a1	8b 01		 mov	 eax, DWORD PTR [ecx]
  000a3	ff 50 0c	 call	 DWORD PTR [eax+12]

; 211  : 		Attach( pData );

  000a6	83 c0 10	 add	 eax, 16			; 00000010H
  000a9	89 45 ec	 mov	 DWORD PTR _strTemp$2[ebp], eax
; File C:\IAGOS\server\v18\Source\Source\_Common\Project.h

; 1427 : 	VERIFY_RANGE( (int)( dwIndex ), 0, m_colorText.GetSize(), "GetText range_error", "error" );

  000ac	a1 ac 02 00 00	 mov	 eax, DWORD PTR ?prj@@3VCProject@@A+684
; File C:\IAGOS\server\v18\Source\Source\_Common\Colosseum.cpp

; 317  : 				CString strTemp;

  000b1	c7 45 fc 00 00
	00 00		 mov	 DWORD PTR __$EHRec$[ebp+8], 0
; File C:\IAGOS\server\v18\Source\Source\_Common\Project.h

; 1427 : 	VERIFY_RANGE( (int)( dwIndex ), 0, m_colorText.GetSize(), "GetText range_error", "error" );

  000b8	3d e3 11 00 00	 cmp	 eax, 4579		; 000011e3H
  000bd	7f 21		 jg	 SHORT $LN37@DestroyMov

; 579  : 	LPCTSTR szErr = Error( _T( "%s min:%d, max:%d, index:%d" ), szMsg, nMin, nMax, nIndex ); 

  000bf	68 e3 11 00 00	 push	 4579			; 000011e3H
  000c4	50		 push	 eax
  000c5	6a 00		 push	 0
  000c7	68 00 00 00 00	 push	 OFFSET ??_C@_0BE@OHDBLHOM@GetText?5range_error@
  000cc	68 00 00 00 00	 push	 OFFSET ??_C@_0BM@HMFGHCP@?$CFs?5min?3?$CFd?0?5max?3?$CFd?0?5index?3?$CFd@
  000d1	e8 00 00 00 00	 call	 ?Error@@YAPBDPBDZZ	; Error
  000d6	83 c4 14	 add	 esp, 20			; 00000014H

; 1427 : 	VERIFY_RANGE( (int)( dwIndex ), 0, m_colorText.GetSize(), "GetText range_error", "error" );

  000d9	b8 00 00 00 00	 mov	 eax, OFFSET ??_C@_05KKCIMGE@error@
  000de	eb 1b		 jmp	 SHORT $LN36@DestroyMov
$LN37@DestroyMov:
; File C:\IAGOS\server\v18\Source\Source\_Common\data.h

; 270  : 	if( dwIndex >= (DWORD)m_nMaxIndex )

  000e0	76 14		 jbe	 SHORT $LN71@DestroyMov

; 271  : 		return NULL;
; 272  : 	return (T*) m_apOffset[ dwIndex ];

  000e2	a1 9c 02 00 00	 mov	 eax, DWORD PTR ?prj@@3VCProject@@A+668
  000e7	8b 80 8c 47 00
	00		 mov	 eax, DWORD PTR [eax+18316]
; File C:\IAGOS\server\v18\Source\Source\_Common\Project.h

; 1428 : 	if( m_colorText.GetAt( dwIndex ) == NULL )

  000ed	85 c0		 test	 eax, eax
  000ef	74 05		 je	 SHORT $LN71@DestroyMov

; 1430 : 	return m_colorText.GetAt( dwIndex )->lpszData; 

  000f1	8b 40 04	 mov	 eax, DWORD PTR [eax+4]
  000f4	eb 05		 jmp	 SHORT $LN36@DestroyMov
$LN71@DestroyMov:

; 1429 : 		return "";

  000f6	b8 00 00 00 00	 mov	 eax, OFFSET ??_C@_00CNPNBAHC@@
$LN36@DestroyMov:
; File C:\IAGOS\server\v18\Source\Source\_Common\Colosseum.cpp

; 318  : 				strTemp.Format(_T( prj.GetText(TID_COLOSSEUM_COLOSUCCESS01) ), strInt ); 

  000fb	8d 4d f0	 lea	 ecx, DWORD PTR _strInt$[ebp]
  000fe	51		 push	 ecx
  000ff	50		 push	 eax
  00100	8d 45 ec	 lea	 eax, DWORD PTR _strTemp$2[ebp]
  00103	50		 push	 eax
  00104	e8 00 00 00 00	 call	 ?Format@?$CStringT@DV?$StrTraitMFC@DV?$ChTraitsCRT@D@ATL@@@@@ATL@@QAAXPBDZZ ; ATL::CStringT<char,StrTraitMFC<char,ATL::ChTraitsCRT<char> > >::Format

; 319  : 				pUser->AddText( strTemp );

  00109	8b 75 ec	 mov	 esi, DWORD PTR _strTemp$2[ebp]
  0010c	83 c4 0c	 add	 esp, 12			; 0000000cH
  0010f	8b cb		 mov	 ecx, ebx
  00111	56		 push	 esi
  00112	e8 00 00 00 00	 call	 ?AddText@CUser@@QAEXPBD@Z ; CUser::AddText

; 320  : 
; 321  : 			if( m_nStage < CColosseumMng::GetInstance()->byMaxHardStage ) 

  00117	e8 00 00 00 00	 call	 ?GetInstance@CColosseumMng@@SAPAV1@XZ ; CColosseumMng::GetInstance
  0011c	8a 4f 08	 mov	 cl, BYTE PTR [edi+8]
  0011f	3a 48 15	 cmp	 cl, BYTE PTR [eax+21]
  00122	73 10		 jae	 SHORT $LN6@DestroyMov

; 322  : 			pUser->SendColosseumReady1( m_nNextStage, m_nStage + 1 );

  00124	fe c1		 inc	 cl
  00126	0f b6 c1	 movzx	 eax, cl
  00129	8b cb		 mov	 ecx, ebx
  0012b	50		 push	 eax
  0012c	ff 77 10	 push	 DWORD PTR [edi+16]
  0012f	e8 00 00 00 00	 call	 ?SendColosseumReady1@CUser@@QAEXHE@Z ; CUser::SendColosseumReady1
$LN6@DestroyMov:

; 323  : 		}

  00134	c7 45 fc ff ff
	ff ff		 mov	 DWORD PTR __$EHRec$[ebp+8], -1
; File C:\Program Files\Microsoft Visual Studio\2022\Professional\VC\Tools\MSVC\14.44.35207\atlmfc\include\atlsimpstr.h

; 804  : 		return( reinterpret_cast< CStringData* >( m_pszData )-1 );

  0013b	83 c6 f0	 add	 esi, -16		; fffffff0H

; 92   : 		if( _InterlockedDecrement( &nRefs ) <= 0 )

  0013e	83 c8 ff	 or	 eax, -1
  00141	f0 0f c1 46 0c	 lock	  xadd	 DWORD PTR [esi+12], eax
  00146	48		 dec	 eax
  00147	85 c0		 test	 eax, eax
  00149	7f 08		 jg	 SHORT $LN2@DestroyMov

; 93   : 		{
; 94   : 			pStringMgr->Free( this );

  0014b	8b 0e		 mov	 ecx, DWORD PTR [esi]
  0014d	56		 push	 esi
  0014e	8b 01		 mov	 eax, DWORD PTR [ecx]
  00150	ff 50 04	 call	 DWORD PTR [eax+4]
$LN2@DestroyMov:
; File C:\Program Files\Microsoft Visual Studio\2022\Professional\VC\Tools\MSVC\14.44.35207\include\vector

; 1915 :         return static_cast<size_type>(_My_data._Mylast - _My_data._Myfirst);

  00153	8b 47 20	 mov	 eax, DWORD PTR [edi+32]
; File C:\IAGOS\server\v18\Source\Source\_Common\Colosseum.cpp

; 312  : 	for( string::size_type i = 0; i < m_vecPlayerID.size(); i++ )

  00156	8b 55 e8	 mov	 edx, DWORD PTR _i$1$[ebp]
; File C:\Program Files\Microsoft Visual Studio\2022\Professional\VC\Tools\MSVC\14.44.35207\include\vector

; 1915 :         return static_cast<size_type>(_My_data._Mylast - _My_data._Myfirst);

  00159	8b 4f 1c	 mov	 ecx, DWORD PTR [edi+28]
; File C:\IAGOS\server\v18\Source\Source\_Common\Colosseum.cpp

; 312  : 	for( string::size_type i = 0; i < m_vecPlayerID.size(); i++ )

  0015c	42		 inc	 edx
; File C:\Program Files\Microsoft Visual Studio\2022\Professional\VC\Tools\MSVC\14.44.35207\include\vector

; 1915 :         return static_cast<size_type>(_My_data._Mylast - _My_data._Myfirst);

  0015d	2b c1		 sub	 eax, ecx
; File C:\IAGOS\server\v18\Source\Source\_Common\Colosseum.cpp

; 312  : 	for( string::size_type i = 0; i < m_vecPlayerID.size(); i++ )

  0015f	89 55 e8	 mov	 DWORD PTR _i$1$[ebp], edx
; File C:\Program Files\Microsoft Visual Studio\2022\Professional\VC\Tools\MSVC\14.44.35207\include\vector

; 1915 :         return static_cast<size_type>(_My_data._Mylast - _My_data._Myfirst);

  00162	c1 f8 02	 sar	 eax, 2
; File C:\IAGOS\server\v18\Source\Source\_Common\Colosseum.cpp

; 312  : 	for( string::size_type i = 0; i < m_vecPlayerID.size(); i++ )

  00165	3b d0		 cmp	 edx, eax
  00167	0f 82 07 ff ff
	ff		 jb	 $LL4@DestroyMov
$LN3@DestroyMov:

; 326  : }

  0016d	8b 4d f4	 mov	 ecx, DWORD PTR __$EHRec$[ebp]
  00170	64 89 0d 00 00
	00 00		 mov	 DWORD PTR fs:0, ecx
  00177	59		 pop	 ecx
  00178	5f		 pop	 edi
  00179	5e		 pop	 esi
  0017a	5b		 pop	 ebx
  0017b	8b e5		 mov	 esp, ebp
  0017d	5d		 pop	 ebp
  0017e	c3		 ret	 0
$LN65@DestroyMov:
; File C:\Program Files\Microsoft Visual Studio\2022\Professional\VC\Tools\MSVC\14.44.35207\atlmfc\include\atlsimpstr.h

; 209  : 		ATLENSURE( pStringMgr != NULL );

  0017f	68 05 40 00 80	 push	 -2147467259		; 80004005H
  00184	e8 00 00 00 00	 call	 ?AtlThrowImpl@ATL@@YGXJ@Z ; ATL::AtlThrowImpl
$LN74@DestroyMov:
  00189	cc		 int	 3
_TEXT	ENDS
;	COMDAT text$x
text$x	SEGMENT
__unwindfunclet$?DestroyMover@CColosseumMatch@@QAEXXZ$0:
  00000	8d 4d ec	 lea	 ecx, DWORD PTR _strTemp$2[ebp]
  00003	e9 00 00 00 00	 jmp	 ??1?$CStringT@DV?$StrTraitMFC@DV?$ChTraitsCRT@D@ATL@@@@@ATL@@QAE@XZ ; ATL::CStringT<char,StrTraitMFC<char,ATL::ChTraitsCRT<char> > >::~CStringT<char,StrTraitMFC<char,ATL::ChTraitsCRT<char> > >
  00008	cc		 int	 3
  00009	cc		 int	 3
  0000a	cc		 int	 3
  0000b	cc		 int	 3
  0000c	cc		 int	 3
__ehhandler$?DestroyMover@CColosseumMatch@@QAEXXZ:
  0000d	90		 npad	 1
  0000e	90		 npad	 1
  0000f	8b 54 24 08	 mov	 edx, DWORD PTR [esp+8]
  00013	8d 42 0c	 lea	 eax, DWORD PTR [edx+12]
  00016	8b 4a e4	 mov	 ecx, DWORD PTR [edx-28]
  00019	33 c8		 xor	 ecx, eax
  0001b	e8 00 00 00 00	 call	 @__security_check_cookie@4
  00020	b8 00 00 00 00	 mov	 eax, OFFSET __ehfuncinfo$?DestroyMover@CColosseumMatch@@QAEXXZ
  00025	e9 00 00 00 00	 jmp	 ___CxxFrameHandler3
text$x	ENDS
?DestroyMover@CColosseumMatch@@QAEXXZ ENDP		; CColosseumMatch::DestroyMover
; Function compile flags: /Ogtp
; File C:\IAGOS\server\v18\Source\Source\_Common\Colosseum.cpp
; File C:\Program Files\Microsoft Visual Studio\2022\Professional\VC\Tools\MSVC\14.44.35207\include\vector
; File C:\IAGOS\server\v18\Source\Source\_Common\Colosseum.cpp
; File C:\Program Files\Microsoft Visual Studio\2022\Professional\VC\Tools\MSVC\14.44.35207\include\vector
; File C:\IAGOS\server\v18\Source\Source\_Common\Colosseum.cpp
; File C:\Program Files\Microsoft Visual Studio\2022\Professional\VC\Tools\MSVC\14.44.35207\include\vector
; File C:\Program Files\Microsoft Visual Studio\2022\Professional\VC\Tools\MSVC\14.44.35207\include\xmemory
; File C:\Program Files\Microsoft Visual Studio\2022\Professional\VC\Tools\MSVC\14.44.35207\include\vector
; File C:\Program Files\Microsoft Visual Studio\2022\Professional\VC\Tools\MSVC\14.44.35207\include\xmemory
; File C:\Program Files\Microsoft Visual Studio\2022\Professional\VC\Tools\MSVC\14.44.35207\include\vector
; File C:\Program Files\Microsoft Visual Studio\2022\Professional\VC\Tools\MSVC\14.44.35207\include\xmemory
; File C:\Program Files\Microsoft Visual Studio\2022\Professional\VC\Tools\MSVC\14.44.35207\include\vector
; File C:\IAGOS\server\v18\Source\Source\_Common\Colosseum.cpp
; File C:\Program Files\Microsoft Visual Studio\2022\Professional\VC\Tools\MSVC\14.44.35207\include\vector
; File C:\IAGOS\server\v18\Source\Source\_Common\Colosseum.cpp
; File C:\Program Files\Microsoft Visual Studio\2022\Professional\VC\Tools\MSVC\14.44.35207\include\vector
; File C:\IAGOS\server\v18\Source\Source\_Common\Colosseum.cpp
; File C:\Program Files\Microsoft Visual Studio\2022\Professional\VC\Tools\MSVC\14.44.35207\include\vector
; File C:\IAGOS\server\v18\Source\Source\_Common\Colosseum.cpp
; File C:\IAGOS\server\v18\Source\Source\_Common\Project.h
; File C:\IAGOS\server\v18\Source\Source\_Common\Colosseum.cpp
; File C:\IAGOS\server\v18\Source\Source\DX_SDK\d3dx9math.inl
; File C:\IAGOS\server\v18\Source\Source\_Common\Colosseum.cpp
; File C:\Program Files\Microsoft Visual Studio\2022\Professional\VC\Tools\MSVC\14.44.35207\include\vector
; File C:\IAGOS\server\v18\Source\Source\_Common\Colosseum.cpp
; File C:\Program Files\Microsoft Visual Studio\2022\Professional\VC\Tools\MSVC\14.44.35207\include\vector
; File C:\IAGOS\server\v18\Source\Source\_Common\Colosseum.cpp
; File C:\Program Files\Microsoft Visual Studio\2022\Professional\VC\Tools\MSVC\14.44.35207\include\vector
; File C:\IAGOS\server\v18\Source\Source\_Common\Colosseum.cpp
; File C:\IAGOS\server\v18\Source\Source\_Common\Obj.h
; File C:\IAGOS\server\v18\Source\Source\_Common\Colosseum.cpp
; File C:\Program Files\Microsoft Visual Studio\2022\Professional\VC\Tools\MSVC\14.44.35207\include\vector
; File C:\IAGOS\server\v18\Source\Source\_Common\Colosseum.cpp
; File C:\Program Files\Microsoft Visual Studio\2022\Professional\VC\Tools\MSVC\14.44.35207\include\vector
; File C:\IAGOS\server\v18\Source\Source\_Common\Colosseum.cpp
; File C:\Program Files\Microsoft Visual Studio\2022\Professional\VC\Tools\MSVC\14.44.35207\include\vector
; File C:\IAGOS\server\v18\Source\Source\_Common\Colosseum.cpp
; File C:\IAGOS\server\v18\Source\Source\_Common\Project.h
; File C:\Program Files\Microsoft Visual Studio\2022\Professional\VC\Tools\MSVC\14.44.35207\include\vector
; File C:\IAGOS\server\v18\Source\Source\_Common\Colosseum.cpp
;	COMDAT ?CreateMover@CColosseumMatch@@QAEXXZ
_TEXT	SEGMENT
__Right$1$ = -56					; size = 4
_m_vecMobInfo$ = -52					; size = 12
_m_vecMobInfo$1$ = -40					; size = 4
_nMoverID$1$ = -36					; size = 4
tv1082 = -30						; size = 1
$T2 = -29						; size = 1
_vPos$3 = -28						; size = 12
__$ArrayPad$ = -16					; size = 4
__$EHRec$ = -12						; size = 12
?CreateMover@CColosseumMatch@@QAEXXZ PROC		; CColosseumMatch::CreateMover, COMDAT
; _this$ = ecx

; 200  : {

  00000	55		 push	 ebp
  00001	8b ec		 mov	 ebp, esp
  00003	6a ff		 push	 -1
  00005	68 00 00 00 00	 push	 __ehhandler$?CreateMover@CColosseumMatch@@QAEXXZ
  0000a	64 a1 00 00 00
	00		 mov	 eax, DWORD PTR fs:0
  00010	50		 push	 eax
  00011	83 ec 2c	 sub	 esp, 44			; 0000002cH
  00014	a1 00 00 00 00	 mov	 eax, DWORD PTR ___security_cookie
  00019	33 c5		 xor	 eax, ebp
  0001b	89 45 f0	 mov	 DWORD PTR __$ArrayPad$[ebp], eax
  0001e	53		 push	 ebx
  0001f	56		 push	 esi
  00020	57		 push	 edi
  00021	50		 push	 eax
  00022	8d 45 f4	 lea	 eax, DWORD PTR __$EHRec$[ebp]
  00025	64 a3 00 00 00
	00		 mov	 DWORD PTR fs:0, eax
  0002b	8b f9		 mov	 edi, ecx

; 201  : 		int nMoverID = 0;

  0002d	c7 45 dc 00 00
	00 00		 mov	 DWORD PTR _nMoverID$1$[ebp], 0

; 203  : 		vector<__COLOSSEUM_MONSTER>	m_vecMobInfo = CColosseumMng::GetInstance()->m_vecMonster;

  00034	e8 00 00 00 00	 call	 ?GetInstance@CColosseumMng@@SAPAV1@XZ ; CColosseumMng::GetInstance
; File C:\Program Files\Microsoft Visual Studio\2022\Professional\VC\Tools\MSVC\14.44.35207\include\vector

; 748  :         const auto _Count       = static_cast<size_type>(_Right_data._Mylast - _Right_data._Myfirst);

  00039	8b 70 24	 mov	 esi, DWORD PTR [eax+36]
; File C:\IAGOS\server\v18\Source\Source\_Common\Colosseum.cpp

; 203  : 		vector<__COLOSSEUM_MONSTER>	m_vecMobInfo = CColosseumMng::GetInstance()->m_vecMonster;

  0003c	83 c0 20	 add	 eax, 32			; 00000020H
; File C:\Program Files\Microsoft Visual Studio\2022\Professional\VC\Tools\MSVC\14.44.35207\include\vector

; 400  :     _CONSTEXPR20 _Vector_val() noexcept : _Myfirst(), _Mylast(), _Myend() {}

  0003f	33 c9		 xor	 ecx, ecx
; File C:\IAGOS\server\v18\Source\Source\_Common\Colosseum.cpp

; 203  : 		vector<__COLOSSEUM_MONSTER>	m_vecMobInfo = CColosseumMng::GetInstance()->m_vecMonster;

  00041	89 45 c8	 mov	 DWORD PTR __Right$1$[ebp], eax
; File C:\Program Files\Microsoft Visual Studio\2022\Professional\VC\Tools\MSVC\14.44.35207\include\vector

; 400  :     _CONSTEXPR20 _Vector_val() noexcept : _Myfirst(), _Mylast(), _Myend() {}

  00044	33 db		 xor	 ebx, ebx
  00046	89 4d cc	 mov	 DWORD PTR _m_vecMobInfo$[ebp], ecx
  00049	89 5d d0	 mov	 DWORD PTR _m_vecMobInfo$[ebp+4], ebx

; 748  :         const auto _Count       = static_cast<size_type>(_Right_data._Mylast - _Right_data._Myfirst);

  0004c	2b 30		 sub	 esi, DWORD PTR [eax]
  0004e	c1 fe 04	 sar	 esi, 4

; 400  :     _CONSTEXPR20 _Vector_val() noexcept : _Myfirst(), _Mylast(), _Myend() {}

  00051	89 4d d4	 mov	 DWORD PTR _m_vecMobInfo$[ebp+8], ecx

; 2111 :         if (_Count != 0) {

  00054	85 f6		 test	 esi, esi
  00056	74 59		 je	 SHORT $LN111@CreateMove

; 2051 :         if (_Newcapacity > max_size()) {

  00058	81 fe ff ff ff
	0f		 cmp	 esi, 268435455		; 0fffffffH
  0005e	0f 87 f0 01 00
	00		 ja	 $LN156@CreateMove
; File C:\Program Files\Microsoft Visual Studio\2022\Professional\VC\Tools\MSVC\14.44.35207\include\xmemory

; 122  :     return _Count * _Ty_size;

  00064	c1 e6 04	 shl	 esi, 4

; 227  :     if (_Bytes == 0) {

  00067	85 f6		 test	 esi, esi
  00069	74 1a		 je	 SHORT $LN152@CreateMove
$LN88@CreateMove:

; 228  :         return nullptr;
; 229  :     }
; 230  : 
; 231  : #if _HAS_CXX20 // TRANSITION, GH-1532
; 232  :     if (_STD is_constant_evaluated()) {
; 233  :         return _Traits::_Allocate(_Bytes);
; 234  :     }
; 235  : #endif // _HAS_CXX20
; 236  : 
; 237  : #ifdef __cpp_aligned_new
; 238  :     if constexpr (_Align > __STDCPP_DEFAULT_NEW_ALIGNMENT__) {
; 239  :         size_t _Passed_align = _Align;
; 240  : #if defined(_M_IX86) || defined(_M_X64)
; 241  :         if (_Bytes >= _Big_allocation_threshold) {
; 242  :             // boost the alignment of big allocations to help autovectorization
; 243  :             _Passed_align = (_STD max)(_Align, _Big_allocation_alignment);
; 244  :         }
; 245  : #endif // defined(_M_IX86) || defined(_M_X64)
; 246  :         return _Traits::_Allocate_aligned(_Bytes, _Passed_align);
; 247  :     } else
; 248  : #endif // defined(__cpp_aligned_new)
; 249  :     {
; 250  : #if defined(_M_IX86) || defined(_M_X64)
; 251  :         if (_Bytes >= _Big_allocation_threshold) {

  0006b	56		 push	 esi
  0006c	81 fe 00 10 00
	00		 cmp	 esi, 4096		; 00001000H
  00072	72 07		 jb	 SHORT $LN89@CreateMove

; 252  :             // boost the alignment of big allocations to help autovectorization
; 253  :             return _Allocate_manually_vector_aligned<_Traits>(_Bytes);

  00074	e8 00 00 00 00	 call	 ??$_Allocate_manually_vector_aligned@U_Default_allocate_traits@std@@@std@@YAPAXI@Z ; std::_Allocate_manually_vector_aligned<std::_Default_allocate_traits>
  00079	eb 05		 jmp	 SHORT $LN153@CreateMove
$LN89@CreateMove:

; 136  :         return ::operator new(_Bytes);

  0007b	e8 00 00 00 00	 call	 ??2@YAPAXI@Z		; operator new
$LN153@CreateMove:
; File C:\Program Files\Microsoft Visual Studio\2022\Professional\VC\Tools\MSVC\14.44.35207\include\vector

; 2035 :         _Myfirst              = _Newvec;

  00080	8b c8		 mov	 ecx, eax
  00082	83 c4 04	 add	 esp, 4
$LN152@CreateMove:

; 2036 :         _Mylast               = _Newvec;
; 2037 :         _Myend                = _Newvec + _Newcapacity;

  00085	8d 04 0e	 lea	 eax, DWORD PTR [esi+ecx]
  00088	89 4d d8	 mov	 DWORD PTR _m_vecMobInfo$1$[ebp], ecx

; 2120 :                 _My_data._Mylast = _STD _Uninitialized_copy(_STD forward<_Valty>(_Val)..., _My_data._Myfirst, _Al);

  0008b	8b 75 c8	 mov	 esi, DWORD PTR __Right$1$[ebp]
; File C:\Program Files\Microsoft Visual Studio\2022\Professional\VC\Tools\MSVC\14.44.35207\include\xmemory

; 1889 :                 _STD _Copy_memmove(_STD _To_address(_UFirst), _STD _To_address(_ULast), _STD _Unfancy(_Dest));

  0008e	51		 push	 ecx
; File C:\Program Files\Microsoft Visual Studio\2022\Professional\VC\Tools\MSVC\14.44.35207\include\vector

; 2035 :         _Myfirst              = _Newvec;

  0008f	89 4d cc	 mov	 DWORD PTR _m_vecMobInfo$[ebp], ecx

; 2036 :         _Mylast               = _Newvec;
; 2037 :         _Myend                = _Newvec + _Newcapacity;

  00092	89 45 d4	 mov	 DWORD PTR _m_vecMobInfo$[ebp+8], eax

; 2120 :                 _My_data._Mylast = _STD _Uninitialized_copy(_STD forward<_Valty>(_Val)..., _My_data._Myfirst, _Al);

  00095	8b 5e 04	 mov	 ebx, DWORD PTR [esi+4]
; File C:\Program Files\Microsoft Visual Studio\2022\Professional\VC\Tools\MSVC\14.44.35207\include\xmemory

; 1876 :     auto _UFirst = _STD _Get_unwrapped(_STD move(_First));

  00098	8b 36		 mov	 esi, DWORD PTR [esi]

; 1889 :                 _STD _Copy_memmove(_STD _To_address(_UFirst), _STD _To_address(_ULast), _STD _Unfancy(_Dest));

  0009a	53		 push	 ebx
  0009b	56		 push	 esi
  0009c	e8 00 00 00 00	 call	 ??$_Copy_memmove@PAU__COLOSSEUM_MONSTER@@PAU1@@std@@YAPAU__COLOSSEUM_MONSTER@@PAU1@00@Z ; std::_Copy_memmove<__COLOSSEUM_MONSTER *,__COLOSSEUM_MONSTER *>

; 1890 :                 _Dest += _ULast - _UFirst;

  000a1	8b 4d d8	 mov	 ecx, DWORD PTR _m_vecMobInfo$1$[ebp]
  000a4	2b de		 sub	 ebx, esi
  000a6	83 e3 f0	 and	 ebx, -16		; fffffff0H
  000a9	83 c4 0c	 add	 esp, 12			; 0000000cH
  000ac	03 d9		 add	 ebx, ecx
; File C:\Program Files\Microsoft Visual Studio\2022\Professional\VC\Tools\MSVC\14.44.35207\include\vector

; 2120 :                 _My_data._Mylast = _STD _Uninitialized_copy(_STD forward<_Valty>(_Val)..., _My_data._Myfirst, _Al);

  000ae	89 5d d0	 mov	 DWORD PTR _m_vecMobInfo$[ebp+4], ebx
$LN111@CreateMove:

; 1915 :         return static_cast<size_type>(_My_data._Mylast - _My_data._Myfirst);

  000b1	2b d9		 sub	 ebx, ecx
; File C:\IAGOS\server\v18\Source\Source\_Common\Colosseum.cpp

; 203  : 		vector<__COLOSSEUM_MONSTER>	m_vecMobInfo = CColosseumMng::GetInstance()->m_vecMonster;

  000b3	c7 45 fc 00 00
	00 00		 mov	 DWORD PTR __$EHRec$[ebp+8], 0
; File C:\Program Files\Microsoft Visual Studio\2022\Professional\VC\Tools\MSVC\14.44.35207\include\vector

; 1915 :         return static_cast<size_type>(_My_data._Mylast - _My_data._Myfirst);

  000ba	c1 fb 04	 sar	 ebx, 4
; File C:\IAGOS\server\v18\Source\Source\_Common\Colosseum.cpp

; 204  : 		for( string::size_type i = 0; i < m_vecMobInfo.size(); i++ )

  000bd	33 d2		 xor	 edx, edx
  000bf	85 db		 test	 ebx, ebx
  000c1	0f 84 69 01 00
	00		 je	 $LN147@CreateMove

; 206  : 			if( m_nStage == m_byBossStage && m_vecMobInfo.at(i).nDifficult == m_byDifficult )

  000c7	8a 47 08	 mov	 al, BYTE PTR [edi+8]
  000ca	83 c1 0c	 add	 ecx, 12			; 0000000cH
  000cd	8a 67 30	 mov	 ah, BYTE PTR [edi+48]
  000d0	88 45 e3	 mov	 BYTE PTR $T2[ebp], al
$LL4@CreateMove:
  000d3	3a c4		 cmp	 al, ah
  000d5	75 24		 jne	 SHORT $LN144@CreateMove
; File C:\Program Files\Microsoft Visual Studio\2022\Professional\VC\Tools\MSVC\14.44.35207\include\vector

; 1949 :         if (static_cast<size_type>(_My_data._Mylast - _My_data._Myfirst) <= _Pos) {

  000d7	3b da		 cmp	 ebx, edx
  000d9	0f 86 7a 01 00
	00		 jbe	 $LN130@CreateMove
; File C:\IAGOS\server\v18\Source\Source\_Common\Colosseum.cpp

; 206  : 			if( m_nStage == m_byBossStage && m_vecMobInfo.at(i).nDifficult == m_byDifficult )

  000df	0f b6 47 18	 movzx	 eax, BYTE PTR [edi+24]
  000e3	39 01		 cmp	 DWORD PTR [ecx], eax
  000e5	75 1c		 jne	 SHORT $LN146@CreateMove
$LN154@CreateMove:

; 204  : 		for( string::size_type i = 0; i < m_vecMobInfo.size(); i++ )

  000e7	8b 41 f8	 mov	 eax, DWORD PTR [ecx-8]
  000ea	8b 71 f4	 mov	 esi, DWORD PTR [ecx-12]
  000ed	03 05 00 00 00
	00		 add	 eax, DWORD PTR ?g_tmCurrent@@3KA ; g_tmCurrent
  000f3	89 75 dc	 mov	 DWORD PTR _nMoverID$1$[ebp], esi
  000f6	89 47 10	 mov	 DWORD PTR [edi+16], eax
  000f9	eb 1c		 jmp	 SHORT $LN2@CreateMove
$LN144@CreateMove:
; File C:\Program Files\Microsoft Visual Studio\2022\Professional\VC\Tools\MSVC\14.44.35207\include\vector

; 1949 :         if (static_cast<size_type>(_My_data._Mylast - _My_data._Myfirst) <= _Pos) {

  000fb	3b da		 cmp	 ebx, edx
  000fd	0f 86 56 01 00
	00		 jbe	 $LN130@CreateMove
$LN146@CreateMove:
; File C:\IAGOS\server\v18\Source\Source\_Common\Colosseum.cpp

; 212  : 				if( m_vecMobInfo.at(i).nDifficult == m_byDifficult && m_vecMobInfo.at(i).nStage == m_nStage )

  00103	0f b6 47 18	 movzx	 eax, BYTE PTR [edi+24]
  00107	39 01		 cmp	 DWORD PTR [ecx], eax
  00109	75 09		 jne	 SHORT $LN149@CreateMove
  0010b	0f b6 45 e3	 movzx	 eax, BYTE PTR $T2[ebp]
  0010f	39 41 fc	 cmp	 DWORD PTR [ecx-4], eax
  00112	74 d3		 je	 SHORT $LN154@CreateMove
$LN149@CreateMove:

; 204  : 		for( string::size_type i = 0; i < m_vecMobInfo.size(); i++ )

  00114	8b 75 dc	 mov	 esi, DWORD PTR _nMoverID$1$[ebp]
$LN2@CreateMove:
  00117	8a 45 e3	 mov	 al, BYTE PTR $T2[ebp]
  0011a	42		 inc	 edx
  0011b	8a 67 30	 mov	 ah, BYTE PTR [edi+48]
  0011e	83 c1 10	 add	 ecx, 16			; 00000010H
  00121	3b d3		 cmp	 edx, ebx
  00123	72 ae		 jb	 SHORT $LL4@CreateMove
; File C:\IAGOS\server\v18\Source\Source\_Common\Project.h

; 1412 : 	if( nIndex < 0 || nIndex >= m_nMoverPropSize )

  00125	85 f6		 test	 esi, esi
  00127	0f 89 05 01 00
	00		 jns	 $LN143@CreateMove
$LN36@CreateMove:

; 1413 : 		return NULL;

  0012d	33 f6		 xor	 esi, esi
$LN34@CreateMove:
; File C:\IAGOS\server\v18\Source\Source\_Common\Colosseum.cpp

; 220  : 		CWorld* pWorld = g_WorldMng.GetWorld( WI_WORLD_COLOSSEUM );

  0012f	68 e7 00 00 00	 push	 231			; 000000e7H
  00134	b9 00 00 00 00	 mov	 ecx, OFFSET ?g_WorldMng@@3VCWorldMng@@A ; g_WorldMng
  00139	e8 00 00 00 00	 call	 ?GetWorld@CWorldMng@@QAEPAVCWorld@@K@Z ; CWorldMng::GetWorld
  0013e	8b d8		 mov	 ebx, eax

; 221  : 		if( pWorld && pMoverProp && pMoverProp->dwID != 0 )

  00140	85 db		 test	 ebx, ebx
  00142	74 72		 je	 SHORT $LN11@CreateMove
  00144	85 f6		 test	 esi, esi
  00146	74 6e		 je	 SHORT $LN11@CreateMove
  00148	8b 0e		 mov	 ecx, DWORD PTR [esi]
  0014a	85 c9		 test	 ecx, ecx
  0014c	74 68		 je	 SHORT $LN11@CreateMove

; 224  : 					CObj* pObj	= CreateObj( D3DDEVICE, OT_MOVER, pMoverProp->dwID );

  0014e	6a 01		 push	 1
  00150	51		 push	 ecx
  00151	6a 05		 push	 5
  00153	6a 00		 push	 0
; File C:\IAGOS\server\v18\Source\Source\DX_SDK\d3dx9math.inl

; 300  :     x = fx;

  00155	c7 45 e4 00 00
	a2 44		 mov	 DWORD PTR _vPos$3[ebp], 1151467520 ; 44a20000H

; 301  :     y = fy;

  0015c	c7 45 e8 00 00
	c8 42		 mov	 DWORD PTR _vPos$3[ebp+4], 1120403456 ; 42c80000H

; 302  :     z = fz;

  00163	c7 45 ec 00 80
	99 44		 mov	 DWORD PTR _vPos$3[ebp+8], 1150910464 ; 44998000H
; File C:\IAGOS\server\v18\Source\Source\_Common\Colosseum.cpp

; 224  : 					CObj* pObj	= CreateObj( D3DDEVICE, OT_MOVER, pMoverProp->dwID );

  0016a	e8 00 00 00 00	 call	 ?CreateObj@@YAPAVCObj@@PAUIDirect3DDevice9@@KKH@Z ; CreateObj
  0016f	83 c4 10	 add	 esp, 16			; 00000010H
  00172	8b f0		 mov	 esi, eax

; 225  : 					pObj->SetPos( vPos );

  00174	8d 45 e4	 lea	 eax, DWORD PTR _vPos$3[ebp]
  00177	8b ce		 mov	 ecx, esi
  00179	50		 push	 eax
  0017a	e8 00 00 00 00	 call	 ?SetPos@CObj@@QAEXABUD3DXVECTOR3@@@Z ; CObj::SetPos

; 226  : 					pObj->InitMotion( MTI_STAND );

  0017f	8b 16		 mov	 edx, DWORD PTR [esi]
  00181	8b ce		 mov	 ecx, esi
  00183	6a 00		 push	 0
  00185	ff 52 08	 call	 DWORD PTR [edx+8]

; 227  : 					pObj->UpdateLocalMatrix();

  00188	8b ce		 mov	 ecx, esi
  0018a	e8 00 00 00 00	 call	 ?UpdateLocalMatrix@CObj@@QAEXXZ ; CObj::UpdateLocalMatrix

; 228  : 					((CMover*)pObj)->m_bActiveAttack = TRUE;
; 229  : 					((CMover*)pObj)->AddItToGlobalId();

  0018f	8b 06		 mov	 eax, DWORD PTR [esi]
  00191	8b ce		 mov	 ecx, esi
  00193	c7 86 68 06 00
	00 01 00 00 00	 mov	 DWORD PTR [esi+1640], 1
  0019d	ff 50 3c	 call	 DWORD PTR [eax+60]

; 230  : 					pWorld->ADDOBJ( pObj, FALSE, m_uPartyID );

  001a0	ff 77 04	 push	 DWORD PTR [edi+4]
  001a3	8b cb		 mov	 ecx, ebx
  001a5	6a 00		 push	 0
  001a7	56		 push	 esi
  001a8	e8 00 00 00 00	 call	 ?AddObj@CWorld@@QAEHPAVCObj@@HH@Z ; CWorld::AddObj

; 231  : 
; 232  : 			m_nMoverID = ((CMover*)pObj)->GetId();

  001ad	8b 86 bc 01 00
	00		 mov	 eax, DWORD PTR [esi+444]
  001b3	89 47 28	 mov	 DWORD PTR [edi+40], eax
$LN11@CreateMove:
; File C:\Program Files\Microsoft Visual Studio\2022\Professional\VC\Tools\MSVC\14.44.35207\include\vector

; 1915 :         return static_cast<size_type>(_My_data._Mylast - _My_data._Myfirst);

  001b6	8b 4f 20	 mov	 ecx, DWORD PTR [edi+32]
; File C:\IAGOS\server\v18\Source\Source\_Common\Colosseum.cpp

; 235  : 		for( string::size_type i = 0; i < m_vecPlayerID.size(); i++ )

  001b9	33 f6		 xor	 esi, esi
; File C:\Program Files\Microsoft Visual Studio\2022\Professional\VC\Tools\MSVC\14.44.35207\include\vector

; 1915 :         return static_cast<size_type>(_My_data._Mylast - _My_data._Myfirst);

  001bb	8b 57 1c	 mov	 edx, DWORD PTR [edi+28]
  001be	8b c1		 mov	 eax, ecx
  001c0	2b c2		 sub	 eax, edx
  001c2	c1 f8 02	 sar	 eax, 2
; File C:\IAGOS\server\v18\Source\Source\_Common\Colosseum.cpp

; 235  : 		for( string::size_type i = 0; i < m_vecPlayerID.size(); i++ )

  001c5	85 c0		 test	 eax, eax
  001c7	74 43		 je	 SHORT $LN6@CreateMove
  001c9	0f 1f 80 00 00
	00 00		 npad	 7
$LL7@CreateMove:
; File C:\Program Files\Microsoft Visual Studio\2022\Professional\VC\Tools\MSVC\14.44.35207\include\vector

; 1949 :         if (static_cast<size_type>(_My_data._Mylast - _My_data._Myfirst) <= _Pos) {

  001d0	2b ca		 sub	 ecx, edx
  001d2	c1 f9 02	 sar	 ecx, 2
  001d5	3b ce		 cmp	 ecx, esi
  001d7	76 76		 jbe	 SHORT $LN134@CreateMove
; File C:\IAGOS\server\v18\Source\Source\_Common\Colosseum.cpp

; 237  : 			CUser* pUser = g_UserMng.GetUserByPlayerID( m_vecPlayerID.at(i) );

  001d9	ff 34 b2	 push	 DWORD PTR [edx+esi*4]
  001dc	b9 00 00 00 00	 mov	 ecx, OFFSET ?g_UserMng@@3VCUserMng@@A ; g_UserMng
  001e1	e8 00 00 00 00	 call	 ?GetUserByPlayerID@CUserMng@@QAEPAVCUser@@K@Z ; CUserMng::GetUserByPlayerID
; File C:\IAGOS\server\v18\Source\Source\_Common\Obj.h

; 327  : 	return pObj && ( pObj->IsDelete() == FALSE ); 

  001e6	85 c0		 test	 eax, eax
  001e8	74 10		 je	 SHORT $LN5@CreateMove

; 180  : 	BOOL			IsDelete()	{ return (m_dwFlags & OBJ_FLAG_DELETE);  }

  001ea	f6 40 04 01	 test	 BYTE PTR [eax+4], 1

; 327  : 	return pObj && ( pObj->IsDelete() == FALSE ); 

  001ee	75 0a		 jne	 SHORT $LN5@CreateMove
; File C:\IAGOS\server\v18\Source\Source\_Common\Colosseum.cpp

; 239  : 				pUser->SendColosseumReady2( m_nNextStage );

  001f0	ff 77 10	 push	 DWORD PTR [edi+16]
  001f3	8b c8		 mov	 ecx, eax
  001f5	e8 00 00 00 00	 call	 ?SendColosseumReady2@CUser@@QAEXH@Z ; CUser::SendColosseumReady2
$LN5@CreateMove:
; File C:\Program Files\Microsoft Visual Studio\2022\Professional\VC\Tools\MSVC\14.44.35207\include\vector

; 1915 :         return static_cast<size_type>(_My_data._Mylast - _My_data._Myfirst);

  001fa	8b 4f 20	 mov	 ecx, DWORD PTR [edi+32]
; File C:\IAGOS\server\v18\Source\Source\_Common\Colosseum.cpp

; 235  : 		for( string::size_type i = 0; i < m_vecPlayerID.size(); i++ )

  001fd	46		 inc	 esi
; File C:\Program Files\Microsoft Visual Studio\2022\Professional\VC\Tools\MSVC\14.44.35207\include\vector

; 1915 :         return static_cast<size_type>(_My_data._Mylast - _My_data._Myfirst);

  001fe	8b 57 1c	 mov	 edx, DWORD PTR [edi+28]
  00201	8b c1		 mov	 eax, ecx
  00203	2b c2		 sub	 eax, edx
  00205	c1 f8 02	 sar	 eax, 2
; File C:\IAGOS\server\v18\Source\Source\_Common\Colosseum.cpp

; 235  : 		for( string::size_type i = 0; i < m_vecPlayerID.size(); i++ )

  00208	3b f0		 cmp	 esi, eax
  0020a	72 c4		 jb	 SHORT $LL7@CreateMove
$LN6@CreateMove:
; File C:\Program Files\Microsoft Visual Studio\2022\Professional\VC\Tools\MSVC\14.44.35207\include\vector

; 830  :         _Tidy();

  0020c	8d 4d cc	 lea	 ecx, DWORD PTR _m_vecMobInfo$[ebp]
  0020f	e8 00 00 00 00	 call	 ?_Tidy@?$vector@U__COLOSSEUM_MONSTER@@V?$allocator@U__COLOSSEUM_MONSTER@@@std@@@std@@AAEXXZ ; std::vector<__COLOSSEUM_MONSTER,std::allocator<__COLOSSEUM_MONSTER> >::_Tidy
; File C:\IAGOS\server\v18\Source\Source\_Common\Colosseum.cpp

; 241  : }

  00214	8b 4d f4	 mov	 ecx, DWORD PTR __$EHRec$[ebp]
  00217	64 89 0d 00 00
	00 00		 mov	 DWORD PTR fs:0, ecx
  0021e	59		 pop	 ecx
  0021f	5f		 pop	 edi
  00220	5e		 pop	 esi
  00221	5b		 pop	 ebx
  00222	8b 4d f0	 mov	 ecx, DWORD PTR __$ArrayPad$[ebp]
  00225	33 cd		 xor	 ecx, ebp
  00227	e8 00 00 00 00	 call	 @__security_check_cookie@4
  0022c	8b e5		 mov	 esp, ebp
  0022e	5d		 pop	 ebp
  0022f	c3		 ret	 0
$LN147@CreateMove:

; 204  : 		for( string::size_type i = 0; i < m_vecMobInfo.size(); i++ )

  00230	33 f6		 xor	 esi, esi
$LN143@CreateMove:
; File C:\IAGOS\server\v18\Source\Source\_Common\Project.h

; 1412 : 	if( nIndex < 0 || nIndex >= m_nMoverPropSize )

  00232	3b 35 b4 01 00
	00		 cmp	 esi, DWORD PTR ?prj@@3VCProject@@A+436
  00238	0f 8d ef fe ff
	ff		 jge	 $LN36@CreateMove

; 1407 : 	return m_pPropMover + nIndex;

  0023e	69 f6 90 06 00
	00		 imul	 esi, esi, 1680
  00244	03 35 b8 01 00
	00		 add	 esi, DWORD PTR ?prj@@3VCProject@@A+440

; 1414 : 	return GetMoverProp( nIndex );

  0024a	e9 e0 fe ff ff	 jmp	 $LN34@CreateMove
$LN134@CreateMove:
; File C:\Program Files\Microsoft Visual Studio\2022\Professional\VC\Tools\MSVC\14.44.35207\include\vector

; 1950 :             _Xrange();

  0024f	e8 00 00 00 00	 call	 ?_Xrange@?$vector@KV?$allocator@K@std@@@std@@CAXXZ ; std::vector<unsigned long,std::allocator<unsigned long> >::_Xrange
$LN156@CreateMove:

; 2052 :             _Xlength();

  00254	e8 00 00 00 00	 call	 ?_Xlength@?$vector@U__COLOSSEUM_MONSTER@@V?$allocator@U__COLOSSEUM_MONSTER@@@std@@@std@@CAXXZ ; std::vector<__COLOSSEUM_MONSTER,std::allocator<__COLOSSEUM_MONSTER> >::_Xlength
$LN130@CreateMove:

; 1950 :             _Xrange();

  00259	e8 00 00 00 00	 call	 ?_Xrange@?$vector@U__COLOSSEUM_MONSTER@@V?$allocator@U__COLOSSEUM_MONSTER@@@std@@@std@@CAXXZ ; std::vector<__COLOSSEUM_MONSTER,std::allocator<__COLOSSEUM_MONSTER> >::_Xrange
$LN151@CreateMove:
  0025e	cc		 int	 3
_TEXT	ENDS
;	COMDAT text$x
text$x	SEGMENT
__unwindfunclet$?CreateMover@CColosseumMatch@@QAEXXZ$0:
  00000	8d 4d cc	 lea	 ecx, DWORD PTR _m_vecMobInfo$[ebp]
  00003	e9 00 00 00 00	 jmp	 ??1?$vector@U__COLOSSEUM_MONSTER@@V?$allocator@U__COLOSSEUM_MONSTER@@@std@@@std@@QAE@XZ ; std::vector<__COLOSSEUM_MONSTER,std::allocator<__COLOSSEUM_MONSTER> >::~vector<__COLOSSEUM_MONSTER,std::allocator<__COLOSSEUM_MONSTER> >
  00008	cc		 int	 3
  00009	cc		 int	 3
  0000a	cc		 int	 3
  0000b	cc		 int	 3
  0000c	cc		 int	 3
__ehhandler$?CreateMover@CColosseumMatch@@QAEXXZ:
  0000d	90		 npad	 1
  0000e	90		 npad	 1
  0000f	8b 54 24 08	 mov	 edx, DWORD PTR [esp+8]
  00013	8d 42 0c	 lea	 eax, DWORD PTR [edx+12]
  00016	8b 4a c4	 mov	 ecx, DWORD PTR [edx-60]
  00019	33 c8		 xor	 ecx, eax
  0001b	e8 00 00 00 00	 call	 @__security_check_cookie@4
  00020	8b 4a fc	 mov	 ecx, DWORD PTR [edx-4]
  00023	33 c8		 xor	 ecx, eax
  00025	e8 00 00 00 00	 call	 @__security_check_cookie@4
  0002a	b8 00 00 00 00	 mov	 eax, OFFSET __ehfuncinfo$?CreateMover@CColosseumMatch@@QAEXXZ
  0002f	e9 00 00 00 00	 jmp	 ___CxxFrameHandler3
text$x	ENDS
?CreateMover@CColosseumMatch@@QAEXXZ ENDP		; CColosseumMatch::CreateMover
; Function compile flags: /Ogtp
; File C:\IAGOS\server\v18\Source\Source\_Common\Colosseum.cpp
;	COMDAT ?Process@CColosseumMatch@@QAEXXZ
_TEXT	SEGMENT
?Process@CColosseumMatch@@QAEXXZ PROC			; CColosseumMatch::Process, COMDAT
; _this$ = ecx

; 196  : 
; 197  : }

  00000	c2 00 00	 ret	 0
?Process@CColosseumMatch@@QAEXXZ ENDP			; CColosseumMatch::Process
_TEXT	ENDS
; Function compile flags: /Ogtp
; File C:\IAGOS\server\v18\Source\Source\_Common\Colosseum.cpp
; File C:\IAGOS\server\v18\Source\Source\_Common\World.h
; File C:\IAGOS\server\v18\Source\Source\_Common\Colosseum.cpp
;	COMDAT ??1CColosseumMatch@@UAE@XZ
_TEXT	SEGMENT
__$EHRec$ = -12						; size = 12
??1CColosseumMatch@@UAE@XZ PROC				; CColosseumMatch::~CColosseumMatch, COMDAT
; _this$ = ecx

; 188  : {

  00000	55		 push	 ebp
  00001	8b ec		 mov	 ebp, esp
  00003	6a ff		 push	 -1
  00005	68 00 00 00 00	 push	 __ehhandler$??1CColosseumMatch@@UAE@XZ
  0000a	64 a1 00 00 00
	00		 mov	 eax, DWORD PTR fs:0
  00010	50		 push	 eax
  00011	56		 push	 esi
  00012	57		 push	 edi
  00013	a1 00 00 00 00	 mov	 eax, DWORD PTR ___security_cookie
  00018	33 c5		 xor	 eax, ebp
  0001a	50		 push	 eax
  0001b	8d 45 f4	 lea	 eax, DWORD PTR __$EHRec$[ebp]
  0001e	64 a3 00 00 00
	00		 mov	 DWORD PTR fs:0, eax
  00024	8b f1		 mov	 esi, ecx

; 189  : 	CWorld* pWorld = g_WorldMng.GetWorld( WI_WORLD_COLOSSEUM );

  00026	68 e7 00 00 00	 push	 231			; 000000e7H
  0002b	b9 00 00 00 00	 mov	 ecx, OFFSET ?g_WorldMng@@3VCWorldMng@@A ; g_WorldMng
  00030	c7 06 00 00 00
	00		 mov	 DWORD PTR [esi], OFFSET ??_7CColosseumMatch@@6B@
  00036	e8 00 00 00 00	 call	 ?GetWorld@CWorldMng@@QAEPAVCWorld@@K@Z ; CWorldMng::GetWorld

; 190  : 	if( pWorld && pWorld->m_linkMap.GetLinkMap( static_cast<int>( m_uPartyID ) ) )

  0003b	85 c0		 test	 eax, eax
  0003d	74 1d		 je	 SHORT $LN2@CColosseum
  0003f	ff 76 04	 push	 DWORD PTR [esi+4]
  00042	8d 78 24	 lea	 edi, DWORD PTR [eax+36]
  00045	8b cf		 mov	 ecx, edi
  00047	e8 00 00 00 00	 call	 ?GetLinkMap@CLayeredLinkMap@@QAEPAVCLinkMap@@H@Z ; CLayeredLinkMap::GetLinkMap
  0004c	85 c0		 test	 eax, eax
  0004e	74 0c		 je	 SHORT $LN2@CColosseum
; File C:\IAGOS\server\v18\Source\Source\_Common\World.h

; 615  : 	void	Invalidate( int nLayer, BOOL bInvalid = TRUE )	{	m_linkMap.Invalidate( nLayer, bInvalid );	}

  00050	6a 01		 push	 1
  00052	ff 76 04	 push	 DWORD PTR [esi+4]
  00055	8b cf		 mov	 ecx, edi
  00057	e8 00 00 00 00	 call	 ?Invalidate@CLayeredLinkMap@@QAEXHH@Z ; CLayeredLinkMap::Invalidate
$LN2@CColosseum:
; File C:\IAGOS\server\v18\Source\Source\_Common\Colosseum.cpp

; 192  : }

  0005c	8d 4e 1c	 lea	 ecx, DWORD PTR [esi+28]
  0005f	e8 00 00 00 00	 call	 ??1?$vector@KV?$allocator@K@std@@@std@@QAE@XZ ; std::vector<unsigned long,std::allocator<unsigned long> >::~vector<unsigned long,std::allocator<unsigned long> >
  00064	8b 4d f4	 mov	 ecx, DWORD PTR __$EHRec$[ebp]
  00067	64 89 0d 00 00
	00 00		 mov	 DWORD PTR fs:0, ecx
  0006e	59		 pop	 ecx
  0006f	5f		 pop	 edi
  00070	5e		 pop	 esi
  00071	8b e5		 mov	 esp, ebp
  00073	5d		 pop	 ebp
  00074	c3		 ret	 0
  00075	cc		 int	 3
  00076	cc		 int	 3
  00077	cc		 int	 3
  00078	cc		 int	 3
  00079	cc		 int	 3
_TEXT	ENDS
;	COMDAT text$x
text$x	SEGMENT
__ehhandler$??1CColosseumMatch@@UAE@XZ:
  00000	90		 npad	 1
  00001	90		 npad	 1
  00002	8b 54 24 08	 mov	 edx, DWORD PTR [esp+8]
  00006	8d 42 0c	 lea	 eax, DWORD PTR [edx+12]
  00009	8b 4a f4	 mov	 ecx, DWORD PTR [edx-12]
  0000c	33 c8		 xor	 ecx, eax
  0000e	e8 00 00 00 00	 call	 @__security_check_cookie@4
  00013	b8 00 00 00 00	 mov	 eax, OFFSET __ehfuncinfo$??1CColosseumMatch@@UAE@XZ
  00018	e9 00 00 00 00	 jmp	 ___CxxFrameHandler3
text$x	ENDS
??1CColosseumMatch@@UAE@XZ ENDP				; CColosseumMatch::~CColosseumMatch
; Function compile flags: /Ogtp
; File C:\IAGOS\server\v18\Source\Source\_Common\Colosseum.cpp
; File C:\Program Files\Microsoft Visual Studio\2022\Professional\VC\Tools\MSVC\14.44.35207\include\vector
; File C:\IAGOS\server\v18\Source\Source\_Common\Colosseum.cpp
;	COMDAT ??0CColosseumMatch@@QAE@XZ
_TEXT	SEGMENT
_this$ = -16						; size = 4
__$EHRec$ = -12						; size = 12
??0CColosseumMatch@@QAE@XZ PROC				; CColosseumMatch::CColosseumMatch, COMDAT
; _this$ = ecx

; 179  : {

  00000	55		 push	 ebp
  00001	8b ec		 mov	 ebp, esp
  00003	6a ff		 push	 -1
  00005	68 00 00 00 00	 push	 __ehhandler$??0CColosseumMatch@@QAE@XZ
  0000a	64 a1 00 00 00
	00		 mov	 eax, DWORD PTR fs:0
  00010	50		 push	 eax
  00011	51		 push	 ecx
  00012	56		 push	 esi
  00013	a1 00 00 00 00	 mov	 eax, DWORD PTR ___security_cookie
  00018	33 c5		 xor	 eax, ebp
  0001a	50		 push	 eax
  0001b	8d 45 f4	 lea	 eax, DWORD PTR __$EHRec$[ebp]
  0001e	64 a3 00 00 00
	00		 mov	 DWORD PTR fs:0, eax
  00024	8b f1		 mov	 esi, ecx
  00026	89 75 f0	 mov	 DWORD PTR _this$[ebp], esi
  00029	c7 06 00 00 00
	00		 mov	 DWORD PTR [esi], OFFSET ??_7CColosseumMatch@@6B@
; File C:\Program Files\Microsoft Visual Studio\2022\Professional\VC\Tools\MSVC\14.44.35207\include\vector

; 400  :     _CONSTEXPR20 _Vector_val() noexcept : _Myfirst(), _Mylast(), _Myend() {}

  0002f	c7 46 1c 00 00
	00 00		 mov	 DWORD PTR [esi+28], 0
  00036	c7 46 20 00 00
	00 00		 mov	 DWORD PTR [esi+32], 0
  0003d	c7 46 24 00 00
	00 00		 mov	 DWORD PTR [esi+36], 0
; File C:\IAGOS\server\v18\Source\Source\_Common\Colosseum.cpp

; 180  : 	m_bWaitTime		= TRUE;

  00044	c7 46 14 01 00
	00 00		 mov	 DWORD PTR [esi+20], 1

; 181  : 	m_nMoverID		= NULL;

  0004b	c7 46 28 00 00
	00 00		 mov	 DWORD PTR [esi+40], 0

; 182  : 	m_nStartTime	= g_tmCurrent;

  00052	a1 00 00 00 00	 mov	 eax, DWORD PTR ?g_tmCurrent@@3KA ; g_tmCurrent
  00057	c7 45 fc 00 00
	00 00		 mov	 DWORD PTR __$EHRec$[ebp+8], 0
  0005e	89 46 0c	 mov	 DWORD PTR [esi+12], eax

; 183  : 	m_nStage		= 0;

  00061	c6 46 08 00	 mov	 BYTE PTR [esi+8], 0

; 184  : 	m_nNextStage	= (int)g_tmCurrent + CColosseumMng::GetInstance()->nStartWaitTime;

  00065	e8 00 00 00 00	 call	 ?GetInstance@CColosseumMng@@SAPAV1@XZ ; CColosseumMng::GetInstance
  0006a	8b 40 0c	 mov	 eax, DWORD PTR [eax+12]
  0006d	03 05 00 00 00
	00		 add	 eax, DWORD PTR ?g_tmCurrent@@3KA ; g_tmCurrent
  00073	89 46 10	 mov	 DWORD PTR [esi+16], eax

; 185  : }

  00076	8b c6		 mov	 eax, esi
  00078	8b 4d f4	 mov	 ecx, DWORD PTR __$EHRec$[ebp]
  0007b	64 89 0d 00 00
	00 00		 mov	 DWORD PTR fs:0, ecx
  00082	59		 pop	 ecx
  00083	5e		 pop	 esi
  00084	8b e5		 mov	 esp, ebp
  00086	5d		 pop	 ebp
  00087	c3		 ret	 0
_TEXT	ENDS
;	COMDAT text$x
text$x	SEGMENT
__unwindfunclet$??0CColosseumMatch@@QAE@XZ$0:
  00000	8b 4d f0	 mov	 ecx, DWORD PTR _this$[ebp]
  00003	83 c1 1c	 add	 ecx, 28			; 0000001cH
  00006	e9 00 00 00 00	 jmp	 ??1?$vector@KV?$allocator@K@std@@@std@@QAE@XZ ; std::vector<unsigned long,std::allocator<unsigned long> >::~vector<unsigned long,std::allocator<unsigned long> >
  0000b	cc		 int	 3
  0000c	cc		 int	 3
  0000d	cc		 int	 3
  0000e	cc		 int	 3
  0000f	cc		 int	 3
__ehhandler$??0CColosseumMatch@@QAE@XZ:
  00010	90		 npad	 1
  00011	90		 npad	 1
  00012	8b 54 24 08	 mov	 edx, DWORD PTR [esp+8]
  00016	8d 42 0c	 lea	 eax, DWORD PTR [edx+12]
  00019	8b 4a f4	 mov	 ecx, DWORD PTR [edx-12]
  0001c	33 c8		 xor	 ecx, eax
  0001e	e8 00 00 00 00	 call	 @__security_check_cookie@4
  00023	b8 00 00 00 00	 mov	 eax, OFFSET __ehfuncinfo$??0CColosseumMatch@@QAE@XZ
  00028	e9 00 00 00 00	 jmp	 ___CxxFrameHandler3
text$x	ENDS
??0CColosseumMatch@@QAE@XZ ENDP				; CColosseumMatch::CColosseumMatch
; Function compile flags: /Ogtp
; File C:\Program Files\Microsoft Visual Studio\2022\Professional\VC\Tools\MSVC\14.44.35207\include\xmemory
;	COMDAT ??$_Allocate_manually_vector_aligned@U_Default_allocate_traits@std@@@std@@YAPAXI@Z
_TEXT	SEGMENT
__Bytes$ = 8						; size = 4
??$_Allocate_manually_vector_aligned@U_Default_allocate_traits@std@@@std@@YAPAXI@Z PROC ; std::_Allocate_manually_vector_aligned<std::_Default_allocate_traits>, COMDAT

; 182  : __declspec(allocator) void* _Allocate_manually_vector_aligned(const size_t _Bytes) {

  00000	55		 push	 ebp
  00001	8b ec		 mov	 ebp, esp

; 183  :     // allocate _Bytes manually aligned to at least _Big_allocation_alignment
; 184  :     const size_t _Block_size = _Non_user_size + _Bytes;

  00003	8b 45 08	 mov	 eax, DWORD PTR __Bytes$[ebp]
  00006	8d 48 23	 lea	 ecx, DWORD PTR [eax+35]

; 185  :     if (_Block_size <= _Bytes) {

  00009	3b c8		 cmp	 ecx, eax
  0000b	0f 86 00 00 00
	00		 jbe	 ?_Throw_bad_array_new_length@std@@YAXXZ ; std::_Throw_bad_array_new_length

; 136  :         return ::operator new(_Bytes);

  00011	51		 push	 ecx
  00012	e8 00 00 00 00	 call	 ??2@YAPAXI@Z		; operator new

; 186  :         _Throw_bad_array_new_length(); // add overflow
; 187  :     }
; 188  : 
; 189  :     const uintptr_t _Ptr_container = reinterpret_cast<uintptr_t>(_Traits::_Allocate(_Block_size));

  00017	8b c8		 mov	 ecx, eax

; 136  :         return ::operator new(_Bytes);

  00019	83 c4 04	 add	 esp, 4

; 190  :     _STL_VERIFY(_Ptr_container != 0, "invalid argument"); // validate even in release since we're doing p[-1]

  0001c	85 c9		 test	 ecx, ecx
  0001e	74 0b		 je	 SHORT $LN9@Allocate_m

; 191  :     void* const _Ptr = reinterpret_cast<void*>((_Ptr_container + _Non_user_size) & ~(_Big_allocation_alignment - 1));

  00020	8d 41 23	 lea	 eax, DWORD PTR [ecx+35]
  00023	83 e0 e0	 and	 eax, -32		; ffffffe0H

; 192  :     static_cast<uintptr_t*>(_Ptr)[-1] = _Ptr_container;

  00026	89 48 fc	 mov	 DWORD PTR [eax-4], ecx

; 193  : 
; 194  : #ifdef _DEBUG
; 195  :     static_cast<uintptr_t*>(_Ptr)[-2] = _Big_allocation_sentinel;
; 196  : #endif // defined(_DEBUG)
; 197  :     return _Ptr;
; 198  : }

  00029	5d		 pop	 ebp
  0002a	c3		 ret	 0
$LN9@Allocate_m:

; 190  :     _STL_VERIFY(_Ptr_container != 0, "invalid argument"); // validate even in release since we're doing p[-1]

  0002b	6a 00		 push	 0
  0002d	6a 00		 push	 0
  0002f	6a 00		 push	 0
  00031	6a 00		 push	 0
  00033	6a 00		 push	 0
  00035	e8 00 00 00 00	 call	 __invoke_watson
$LN7@Allocate_m:
  0003a	cc		 int	 3
??$_Allocate_manually_vector_aligned@U_Default_allocate_traits@std@@@std@@YAPAXI@Z ENDP ; std::_Allocate_manually_vector_aligned<std::_Default_allocate_traits>
_TEXT	ENDS
; Function compile flags: /Ogtp
; File C:\Program Files\Microsoft Visual Studio\2022\Professional\VC\Tools\MSVC\14.44.35207\include\vector
;	COMDAT ?_Xrange@?$vector@KV?$allocator@K@std@@@std@@CAXXZ
_TEXT	SEGMENT
?_Xrange@?$vector@KV?$allocator@K@std@@@std@@CAXXZ PROC	; std::vector<unsigned long,std::allocator<unsigned long> >::_Xrange, COMDAT

; 2188 :         _Xout_of_range("invalid vector subscript");

  00000	68 00 00 00 00	 push	 OFFSET ??_C@_0BJ@DHFDPMIM@invalid?5vector?5subscript@
  00005	e8 00 00 00 00	 call	 ?_Xout_of_range@std@@YAXPBD@Z ; std::_Xout_of_range
$LN3@Xrange:
  0000a	cc		 int	 3
?_Xrange@?$vector@KV?$allocator@K@std@@@std@@CAXXZ ENDP	; std::vector<unsigned long,std::allocator<unsigned long> >::_Xrange
_TEXT	ENDS
; Function compile flags: /Ogtp
; File C:\Program Files\Microsoft Visual Studio\2022\Professional\VC\Tools\MSVC\14.44.35207\include\vector
;	COMDAT ?_Xlength@?$vector@KV?$allocator@K@std@@@std@@CAXXZ
_TEXT	SEGMENT
?_Xlength@?$vector@KV?$allocator@K@std@@@std@@CAXXZ PROC ; std::vector<unsigned long,std::allocator<unsigned long> >::_Xlength, COMDAT

; 2184 :         _Xlength_error("vector too long");

  00000	68 00 00 00 00	 push	 OFFSET ??_C@_0BA@FOIKENOD@vector?5too?5long@
  00005	e8 00 00 00 00	 call	 ?_Xlength_error@std@@YAXPBD@Z ; std::_Xlength_error
$LN3@Xlength:
  0000a	cc		 int	 3
?_Xlength@?$vector@KV?$allocator@K@std@@@std@@CAXXZ ENDP ; std::vector<unsigned long,std::allocator<unsigned long> >::_Xlength
_TEXT	ENDS
; Function compile flags: /Ogtp
; File C:\Program Files\Microsoft Visual Studio\2022\Professional\VC\Tools\MSVC\14.44.35207\include\vector
; File C:\Program Files\Microsoft Visual Studio\2022\Professional\VC\Tools\MSVC\14.44.35207\include\xmemory
; File C:\Program Files\Microsoft Visual Studio\2022\Professional\VC\Tools\MSVC\14.44.35207\include\vector
; File C:\Program Files\Microsoft Visual Studio\2022\Professional\VC\Tools\MSVC\14.44.35207\include\xmemory
; File C:\Program Files\Microsoft Visual Studio\2022\Professional\VC\Tools\MSVC\14.44.35207\include\vector
; File C:\Program Files\Microsoft Visual Studio\2022\Professional\VC\Tools\MSVC\14.44.35207\include\xmemory
; File C:\Program Files\Microsoft Visual Studio\2022\Professional\VC\Tools\MSVC\14.44.35207\include\vector
;	COMDAT ??1?$vector@KV?$allocator@K@std@@@std@@QAE@XZ
_TEXT	SEGMENT
??1?$vector@KV?$allocator@K@std@@@std@@QAE@XZ PROC	; std::vector<unsigned long,std::allocator<unsigned long> >::~vector<unsigned long,std::allocator<unsigned long> >, COMDAT
; _this$ = ecx

; 829  :     _CONSTEXPR20 ~vector() noexcept {

  00000	56		 push	 esi
  00001	8b f1		 mov	 esi, ecx

; 2090 :         if (_Myfirst) { // destroy and deallocate old array

  00003	8b 06		 mov	 eax, DWORD PTR [esi]
  00005	85 c0		 test	 eax, eax
  00007	74 40		 je	 SHORT $LN5@vector

; 2091 :             _STD _Destroy_range(_Myfirst, _Mylast, _Al);
; 2092 :             _ASAN_VECTOR_REMOVE;
; 2093 :             _Al.deallocate(_Myfirst, static_cast<size_type>(_Myend - _Myfirst));

  00009	8b 4e 08	 mov	 ecx, DWORD PTR [esi+8]
  0000c	2b c8		 sub	 ecx, eax
; File C:\Program Files\Microsoft Visual Studio\2022\Professional\VC\Tools\MSVC\14.44.35207\include\xmemory

; 985  :         _STD _Deallocate<_New_alignof<_Ty>>(_Ptr, sizeof(_Ty) * _Count);

  0000e	83 e1 fc	 and	 ecx, -4			; fffffffcH

; 284  :         if (_Bytes >= _Big_allocation_threshold) {

  00011	81 f9 00 10 00
	00		 cmp	 ecx, 4096		; 00001000H
  00017	72 12		 jb	 SHORT $LN18@vector

; 205  :     const uintptr_t _Ptr_container   = _Ptr_user[-1];

  00019	8b 50 fc	 mov	 edx, DWORD PTR [eax-4]
  0001c	83 c1 23	 add	 ecx, 35			; 00000023H

; 206  : 
; 207  :     // If the following asserts, it likely means that we are performing
; 208  :     // an aligned delete on memory coming from an unaligned allocation.
; 209  :     _STL_ASSERT(_Ptr_user[-2] == _Big_allocation_sentinel, "invalid argument");
; 210  : 
; 211  :     // Extra paranoia on aligned allocation/deallocation; ensure _Ptr_container is
; 212  :     // in range [_Min_back_shift, _Non_user_size]
; 213  : #ifdef _DEBUG
; 214  :     constexpr uintptr_t _Min_back_shift = 2 * sizeof(void*);
; 215  : #else // ^^^ defined(_DEBUG) / !defined(_DEBUG) vvv
; 216  :     constexpr uintptr_t _Min_back_shift = sizeof(void*);
; 217  : #endif // ^^^ !defined(_DEBUG) ^^^
; 218  :     const uintptr_t _Back_shift = reinterpret_cast<uintptr_t>(_Ptr) - _Ptr_container;

  0001f	2b c2		 sub	 eax, edx

; 219  :     _STL_VERIFY(_Back_shift >= _Min_back_shift && _Back_shift <= _Non_user_size, "invalid argument");

  00021	83 c0 fc	 add	 eax, -4			; fffffffcH
  00024	83 f8 1f	 cmp	 eax, 31			; 0000001fH
  00027	77 22		 ja	 SHORT $LN17@vector

; 220  :     _Ptr = reinterpret_cast<void*>(_Ptr_container);

  00029	8b c2		 mov	 eax, edx
$LN18@vector:

; 289  :         ::operator delete(_Ptr, _Bytes);

  0002b	51		 push	 ecx
  0002c	50		 push	 eax
  0002d	e8 00 00 00 00	 call	 ??3@YAXPAXI@Z		; operator delete
; File C:\Program Files\Microsoft Visual Studio\2022\Professional\VC\Tools\MSVC\14.44.35207\include\vector

; 2095 :             _Myfirst = nullptr;

  00032	c7 06 00 00 00
	00		 mov	 DWORD PTR [esi], 0
; File C:\Program Files\Microsoft Visual Studio\2022\Professional\VC\Tools\MSVC\14.44.35207\include\xmemory

; 289  :         ::operator delete(_Ptr, _Bytes);

  00038	83 c4 08	 add	 esp, 8
; File C:\Program Files\Microsoft Visual Studio\2022\Professional\VC\Tools\MSVC\14.44.35207\include\vector

; 2096 :             _Mylast  = nullptr;

  0003b	c7 46 04 00 00
	00 00		 mov	 DWORD PTR [esi+4], 0

; 2097 :             _Myend   = nullptr;

  00042	c7 46 08 00 00
	00 00		 mov	 DWORD PTR [esi+8], 0
$LN5@vector:
  00049	5e		 pop	 esi

; 835  :     }

  0004a	c3		 ret	 0
$LN17@vector:
; File C:\Program Files\Microsoft Visual Studio\2022\Professional\VC\Tools\MSVC\14.44.35207\include\xmemory

; 219  :     _STL_VERIFY(_Back_shift >= _Min_back_shift && _Back_shift <= _Non_user_size, "invalid argument");

  0004b	6a 00		 push	 0
  0004d	6a 00		 push	 0
  0004f	6a 00		 push	 0
  00051	6a 00		 push	 0
  00053	6a 00		 push	 0
  00055	e8 00 00 00 00	 call	 __invoke_watson
$LN26@vector:
  0005a	cc		 int	 3
??1?$vector@KV?$allocator@K@std@@@std@@QAE@XZ ENDP	; std::vector<unsigned long,std::allocator<unsigned long> >::~vector<unsigned long,std::allocator<unsigned long> >
_TEXT	ENDS
; Function compile flags: /Ogtp
; File C:\Program Files\Microsoft Visual Studio\2022\Professional\VC\Tools\MSVC\14.44.35207\include\xtree
;	COMDAT ?_Throw_tree_length_error@std@@YAXXZ
_TEXT	SEGMENT
?_Throw_tree_length_error@std@@YAXXZ PROC		; std::_Throw_tree_length_error, COMDAT

; 417  :     _Xlength_error("map/set too long");

  00000	68 00 00 00 00	 push	 OFFSET ??_C@_0BB@GCADKGJO@map?1set?5too?5long@
  00005	e8 00 00 00 00	 call	 ?_Xlength_error@std@@YAXPBD@Z ; std::_Xlength_error
$LN3@Throw_tree:
  0000a	cc		 int	 3
?_Throw_tree_length_error@std@@YAXXZ ENDP		; std::_Throw_tree_length_error
_TEXT	ENDS
; Function compile flags: /Ogtp
; File C:\Program Files\Microsoft Visual Studio\2022\Professional\VC\Tools\MSVC\14.44.35207\include\xmemory
;	COMDAT ?_Throw_bad_array_new_length@std@@YAXXZ
_TEXT	SEGMENT
$T1 = -12						; size = 12
?_Throw_bad_array_new_length@std@@YAXXZ PROC		; std::_Throw_bad_array_new_length, COMDAT

; 107  : [[noreturn]] inline void _Throw_bad_array_new_length() {

  00000	55		 push	 ebp
  00001	8b ec		 mov	 ebp, esp
  00003	83 ec 0c	 sub	 esp, 12			; 0000000cH

; 108  :     _THROW(bad_array_new_length{});

  00006	8d 4d f4	 lea	 ecx, DWORD PTR $T1[ebp]
  00009	e8 00 00 00 00	 call	 ??0bad_array_new_length@std@@QAE@XZ ; std::bad_array_new_length::bad_array_new_length
  0000e	68 00 00 00 00	 push	 OFFSET __TI3?AVbad_array_new_length@std@@
  00013	8d 45 f4	 lea	 eax, DWORD PTR $T1[ebp]
  00016	50		 push	 eax
  00017	e8 00 00 00 00	 call	 __CxxThrowException@8
$LN3@Throw_bad_:
  0001c	cc		 int	 3
?_Throw_bad_array_new_length@std@@YAXXZ ENDP		; std::_Throw_bad_array_new_length
_TEXT	ENDS
; Function compile flags: /Ogtp
; File C:\Program Files\Microsoft Visual Studio\2022\Professional\VC\Tools\MSVC\14.44.35207\include\vcruntime_exception.h
;	COMDAT ??_Gbad_array_new_length@std@@UAEPAXI@Z
_TEXT	SEGMENT
___flags$ = 8						; size = 4
??_Gbad_array_new_length@std@@UAEPAXI@Z PROC		; std::bad_array_new_length::`scalar deleting destructor', COMDAT
; _this$ = ecx
  00000	55		 push	 ebp
  00001	8b ec		 mov	 ebp, esp

; 90   :     {

  00003	56		 push	 esi
  00004	8b f1		 mov	 esi, ecx

; 91   :         __std_exception_destroy(&_Data);

  00006	8d 46 04	 lea	 eax, DWORD PTR [esi+4]
  00009	c7 06 00 00 00
	00		 mov	 DWORD PTR [esi], OFFSET ??_7exception@std@@6B@
  0000f	50		 push	 eax
  00010	e8 00 00 00 00	 call	 ___std_exception_destroy
  00015	83 c4 04	 add	 esp, 4
  00018	f6 45 08 01	 test	 BYTE PTR ___flags$[ebp], 1
  0001c	74 0b		 je	 SHORT $LN18@scalar
  0001e	6a 0c		 push	 12			; 0000000cH
  00020	56		 push	 esi
  00021	e8 00 00 00 00	 call	 ??3@YAXPAXI@Z		; operator delete
  00026	83 c4 08	 add	 esp, 8
$LN18@scalar:
  00029	8b c6		 mov	 eax, esi
  0002b	5e		 pop	 esi
  0002c	5d		 pop	 ebp
  0002d	c2 04 00	 ret	 4
??_Gbad_array_new_length@std@@UAEPAXI@Z ENDP		; std::bad_array_new_length::`scalar deleting destructor'
_TEXT	ENDS
; Function compile flags: /Ogtp
; File C:\Program Files\Microsoft Visual Studio\2022\Professional\VC\Tools\MSVC\14.44.35207\include\vcruntime_exception.h
;	COMDAT ??0bad_array_new_length@std@@QAE@ABV01@@Z
_TEXT	SEGMENT
___that$ = 8						; size = 4
??0bad_array_new_length@std@@QAE@ABV01@@Z PROC		; std::bad_array_new_length::bad_array_new_length, COMDAT
; _this$ = ecx
  00000	55		 push	 ebp
  00001	8b ec		 mov	 ebp, esp

; 73   :     {

  00003	56		 push	 esi
  00004	8b f1		 mov	 esi, ecx
  00006	0f 57 c0	 xorps	 xmm0, xmm0

; 72   :         : _Data()

  00009	8d 46 04	 lea	 eax, DWORD PTR [esi+4]

; 74   :         __std_exception_copy(&_Other._Data, &_Data);

  0000c	50		 push	 eax
  0000d	c7 06 00 00 00
	00		 mov	 DWORD PTR [esi], OFFSET ??_7exception@std@@6B@
  00013	66 0f d6 00	 movq	 QWORD PTR [eax], xmm0
  00017	8b 45 08	 mov	 eax, DWORD PTR ___that$[ebp]
  0001a	83 c0 04	 add	 eax, 4
  0001d	50		 push	 eax
  0001e	e8 00 00 00 00	 call	 ___std_exception_copy
  00023	83 c4 08	 add	 esp, 8
  00026	c7 06 00 00 00
	00		 mov	 DWORD PTR [esi], OFFSET ??_7bad_array_new_length@std@@6B@
  0002c	8b c6		 mov	 eax, esi
  0002e	5e		 pop	 esi
  0002f	5d		 pop	 ebp
  00030	c2 04 00	 ret	 4
??0bad_array_new_length@std@@QAE@ABV01@@Z ENDP		; std::bad_array_new_length::bad_array_new_length
_TEXT	ENDS
; Function compile flags: /Ogtp
; File C:\Program Files\Microsoft Visual Studio\2022\Professional\VC\Tools\MSVC\14.44.35207\include\vcruntime_exception.h
;	COMDAT ??1bad_array_new_length@std@@UAE@XZ
_TEXT	SEGMENT
??1bad_array_new_length@std@@UAE@XZ PROC		; std::bad_array_new_length::~bad_array_new_length, COMDAT
; _this$ = ecx

; 91   :         __std_exception_destroy(&_Data);

  00000	8d 41 04	 lea	 eax, DWORD PTR [ecx+4]
  00003	c7 01 00 00 00
	00		 mov	 DWORD PTR [ecx], OFFSET ??_7exception@std@@6B@
  00009	50		 push	 eax
  0000a	e8 00 00 00 00	 call	 ___std_exception_destroy
  0000f	59		 pop	 ecx
  00010	c3		 ret	 0
??1bad_array_new_length@std@@UAE@XZ ENDP		; std::bad_array_new_length::~bad_array_new_length
_TEXT	ENDS
; Function compile flags: /Ogtp
; File C:\Program Files\Microsoft Visual Studio\2022\Professional\VC\Tools\MSVC\14.44.35207\include\vcruntime_exception.h
;	COMDAT ??0bad_array_new_length@std@@QAE@XZ
_TEXT	SEGMENT
??0bad_array_new_length@std@@QAE@XZ PROC		; std::bad_array_new_length::bad_array_new_length, COMDAT
; _this$ = ecx

; 144  :     {

  00000	0f 57 c0	 xorps	 xmm0, xmm0

; 145  :     }

  00003	8b c1		 mov	 eax, ecx

; 66   :         : _Data()

  00005	66 0f d6 41 04	 movq	 QWORD PTR [ecx+4], xmm0

; 67   :     {
; 68   :         _Data._What = _Message;

  0000a	c7 41 04 00 00
	00 00		 mov	 DWORD PTR [ecx+4], OFFSET ??_C@_0BF@KINCDENJ@bad?5array?5new?5length@

; 144  :     {

  00011	c7 01 00 00 00
	00		 mov	 DWORD PTR [ecx], OFFSET ??_7bad_array_new_length@std@@6B@

; 145  :     }

  00017	c3		 ret	 0
??0bad_array_new_length@std@@QAE@XZ ENDP		; std::bad_array_new_length::bad_array_new_length
_TEXT	ENDS
; Function compile flags: /Ogtp
; File C:\Program Files\Microsoft Visual Studio\2022\Professional\VC\Tools\MSVC\14.44.35207\include\vcruntime_exception.h
;	COMDAT ??_Gbad_alloc@std@@UAEPAXI@Z
_TEXT	SEGMENT
___flags$ = 8						; size = 4
??_Gbad_alloc@std@@UAEPAXI@Z PROC			; std::bad_alloc::`scalar deleting destructor', COMDAT
; _this$ = ecx
  00000	55		 push	 ebp
  00001	8b ec		 mov	 ebp, esp

; 90   :     {

  00003	56		 push	 esi
  00004	8b f1		 mov	 esi, ecx

; 91   :         __std_exception_destroy(&_Data);

  00006	8d 46 04	 lea	 eax, DWORD PTR [esi+4]
  00009	c7 06 00 00 00
	00		 mov	 DWORD PTR [esi], OFFSET ??_7exception@std@@6B@
  0000f	50		 push	 eax
  00010	e8 00 00 00 00	 call	 ___std_exception_destroy
  00015	83 c4 04	 add	 esp, 4
  00018	f6 45 08 01	 test	 BYTE PTR ___flags$[ebp], 1
  0001c	74 0b		 je	 SHORT $LN13@scalar
  0001e	6a 0c		 push	 12			; 0000000cH
  00020	56		 push	 esi
  00021	e8 00 00 00 00	 call	 ??3@YAXPAXI@Z		; operator delete
  00026	83 c4 08	 add	 esp, 8
$LN13@scalar:
  00029	8b c6		 mov	 eax, esi
  0002b	5e		 pop	 esi
  0002c	5d		 pop	 ebp
  0002d	c2 04 00	 ret	 4
??_Gbad_alloc@std@@UAEPAXI@Z ENDP			; std::bad_alloc::`scalar deleting destructor'
_TEXT	ENDS
; Function compile flags: /Ogtp
; File C:\Program Files\Microsoft Visual Studio\2022\Professional\VC\Tools\MSVC\14.44.35207\include\vcruntime_exception.h
;	COMDAT ??0bad_alloc@std@@QAE@ABV01@@Z
_TEXT	SEGMENT
___that$ = 8						; size = 4
??0bad_alloc@std@@QAE@ABV01@@Z PROC			; std::bad_alloc::bad_alloc, COMDAT
; _this$ = ecx
  00000	55		 push	 ebp
  00001	8b ec		 mov	 ebp, esp

; 73   :     {

  00003	56		 push	 esi
  00004	8b f1		 mov	 esi, ecx
  00006	0f 57 c0	 xorps	 xmm0, xmm0

; 72   :         : _Data()

  00009	8d 46 04	 lea	 eax, DWORD PTR [esi+4]

; 74   :         __std_exception_copy(&_Other._Data, &_Data);

  0000c	50		 push	 eax
  0000d	c7 06 00 00 00
	00		 mov	 DWORD PTR [esi], OFFSET ??_7exception@std@@6B@
  00013	66 0f d6 00	 movq	 QWORD PTR [eax], xmm0
  00017	8b 45 08	 mov	 eax, DWORD PTR ___that$[ebp]
  0001a	83 c0 04	 add	 eax, 4
  0001d	50		 push	 eax
  0001e	e8 00 00 00 00	 call	 ___std_exception_copy
  00023	83 c4 08	 add	 esp, 8
  00026	c7 06 00 00 00
	00		 mov	 DWORD PTR [esi], OFFSET ??_7bad_alloc@std@@6B@
  0002c	8b c6		 mov	 eax, esi
  0002e	5e		 pop	 esi
  0002f	5d		 pop	 ebp
  00030	c2 04 00	 ret	 4
??0bad_alloc@std@@QAE@ABV01@@Z ENDP			; std::bad_alloc::bad_alloc
_TEXT	ENDS
; Function compile flags: /Ogtp
; File C:\Program Files\Microsoft Visual Studio\2022\Professional\VC\Tools\MSVC\14.44.35207\include\vcruntime_exception.h
;	COMDAT ??_Gexception@std@@UAEPAXI@Z
_TEXT	SEGMENT
___flags$ = 8						; size = 4
??_Gexception@std@@UAEPAXI@Z PROC			; std::exception::`scalar deleting destructor', COMDAT
; _this$ = ecx
  00000	55		 push	 ebp
  00001	8b ec		 mov	 ebp, esp

; 90   :     {

  00003	56		 push	 esi
  00004	8b f1		 mov	 esi, ecx

; 91   :         __std_exception_destroy(&_Data);

  00006	8d 46 04	 lea	 eax, DWORD PTR [esi+4]
  00009	c7 06 00 00 00
	00		 mov	 DWORD PTR [esi], OFFSET ??_7exception@std@@6B@
  0000f	50		 push	 eax
  00010	e8 00 00 00 00	 call	 ___std_exception_destroy
  00015	83 c4 04	 add	 esp, 4
  00018	f6 45 08 01	 test	 BYTE PTR ___flags$[ebp], 1
  0001c	74 0b		 je	 SHORT $LN8@scalar
  0001e	6a 0c		 push	 12			; 0000000cH
  00020	56		 push	 esi
  00021	e8 00 00 00 00	 call	 ??3@YAXPAXI@Z		; operator delete
  00026	83 c4 08	 add	 esp, 8
$LN8@scalar:
  00029	8b c6		 mov	 eax, esi
  0002b	5e		 pop	 esi
  0002c	5d		 pop	 ebp
  0002d	c2 04 00	 ret	 4
??_Gexception@std@@UAEPAXI@Z ENDP			; std::exception::`scalar deleting destructor'
_TEXT	ENDS
; Function compile flags: /Ogtp
; File C:\Program Files\Microsoft Visual Studio\2022\Professional\VC\Tools\MSVC\14.44.35207\include\vcruntime_exception.h
;	COMDAT ?what@exception@std@@UBEPBDXZ
_TEXT	SEGMENT
?what@exception@std@@UBEPBDXZ PROC			; std::exception::what, COMDAT
; _this$ = ecx

; 96   :         return _Data._What ? _Data._What : "Unknown exception";

  00000	8b 49 04	 mov	 ecx, DWORD PTR [ecx+4]
  00003	b8 00 00 00 00	 mov	 eax, OFFSET ??_C@_0BC@EOODALEL@Unknown?5exception@
  00008	85 c9		 test	 ecx, ecx
  0000a	0f 45 c1	 cmovne	 eax, ecx

; 97   :     }

  0000d	c3		 ret	 0
?what@exception@std@@UBEPBDXZ ENDP			; std::exception::what
_TEXT	ENDS
; Function compile flags: /Ogtp
; File C:\Program Files\Microsoft Visual Studio\2022\Professional\VC\Tools\MSVC\14.44.35207\include\vcruntime_exception.h
;	COMDAT ??1exception@std@@UAE@XZ
_TEXT	SEGMENT
??1exception@std@@UAE@XZ PROC				; std::exception::~exception, COMDAT
; _this$ = ecx

; 91   :         __std_exception_destroy(&_Data);

  00000	8d 41 04	 lea	 eax, DWORD PTR [ecx+4]
  00003	c7 01 00 00 00
	00		 mov	 DWORD PTR [ecx], OFFSET ??_7exception@std@@6B@
  00009	50		 push	 eax
  0000a	e8 00 00 00 00	 call	 ___std_exception_destroy
  0000f	59		 pop	 ecx

; 92   :     }

  00010	c3		 ret	 0
??1exception@std@@UAE@XZ ENDP				; std::exception::~exception
_TEXT	ENDS
; Function compile flags: /Ogtp
; File C:\Program Files\Microsoft Visual Studio\2022\Professional\VC\Tools\MSVC\14.44.35207\include\vcruntime_exception.h
;	COMDAT ??0exception@std@@QAE@ABV01@@Z
_TEXT	SEGMENT
__Other$ = 8						; size = 4
??0exception@std@@QAE@ABV01@@Z PROC			; std::exception::exception, COMDAT
; _this$ = ecx

; 73   :     {

  00000	55		 push	 ebp
  00001	8b ec		 mov	 ebp, esp
  00003	56		 push	 esi
  00004	8b f1		 mov	 esi, ecx
  00006	0f 57 c0	 xorps	 xmm0, xmm0
  00009	8d 46 04	 lea	 eax, DWORD PTR [esi+4]

; 74   :         __std_exception_copy(&_Other._Data, &_Data);

  0000c	50		 push	 eax
  0000d	c7 06 00 00 00
	00		 mov	 DWORD PTR [esi], OFFSET ??_7exception@std@@6B@
  00013	66 0f d6 00	 movq	 QWORD PTR [eax], xmm0
  00017	8b 45 08	 mov	 eax, DWORD PTR __Other$[ebp]
  0001a	83 c0 04	 add	 eax, 4
  0001d	50		 push	 eax
  0001e	e8 00 00 00 00	 call	 ___std_exception_copy
  00023	83 c4 08	 add	 esp, 8

; 75   :     }

  00026	8b c6		 mov	 eax, esi
  00028	5e		 pop	 esi
  00029	5d		 pop	 ebp
  0002a	c2 04 00	 ret	 4
??0exception@std@@QAE@ABV01@@Z ENDP			; std::exception::exception
_TEXT	ENDS
; Function compile flags: /Ogtp
; File C:\Program Files\Microsoft Visual Studio\2022\Professional\VC\Tools\MSVC\14.44.35207\atlmfc\include\cstringt.h
; File C:\Program Files\Microsoft Visual Studio\2022\Professional\VC\Tools\MSVC\14.44.35207\atlmfc\include\afxstr.h
; File C:\Program Files\Microsoft Visual Studio\2022\Professional\VC\Tools\MSVC\14.44.35207\atlmfc\include\cstringt.h
; File C:\Program Files\Microsoft Visual Studio\2022\Professional\VC\Tools\MSVC\14.44.35207\atlmfc\include\afxstr.h
; File C:\Program Files\Microsoft Visual Studio\2022\Professional\VC\Tools\MSVC\14.44.35207\atlmfc\include\cstringt.h
; File C:\Program Files\Microsoft Visual Studio\2022\Professional\VC\Tools\MSVC\14.44.35207\atlmfc\include\atlcore.h
; File C:\Program Files\Microsoft Visual Studio\2022\Professional\VC\Tools\MSVC\14.44.35207\atlmfc\include\cstringt.h
; File C:\Program Files\Microsoft Visual Studio\2022\Professional\VC\Tools\MSVC\14.44.35207\atlmfc\include\atlsimpstr.h
; File C:\Program Files\Microsoft Visual Studio\2022\Professional\VC\Tools\MSVC\14.44.35207\atlmfc\include\cstringt.h
; File C:\Program Files\Microsoft Visual Studio\2022\Professional\VC\Tools\MSVC\14.44.35207\atlmfc\include\atlsimpstr.h
; File C:\Program Files\Microsoft Visual Studio\2022\Professional\VC\Tools\MSVC\14.44.35207\atlmfc\include\cstringt.h
; File C:\Program Files\Microsoft Visual Studio\2022\Professional\VC\Tools\MSVC\14.44.35207\atlmfc\include\atlsimpstr.h
; File C:\Program Files\Microsoft Visual Studio\2022\Professional\VC\Tools\MSVC\14.44.35207\atlmfc\include\cstringt.h
; File C:\Program Files\Microsoft Visual Studio\2022\Professional\VC\Tools\MSVC\14.44.35207\atlmfc\include\atlsimpstr.h
; File C:\Program Files\Microsoft Visual Studio\2022\Professional\VC\Tools\MSVC\14.44.35207\atlmfc\include\cstringt.h
;	COMDAT ?LoadStringA@?$CStringT@DV?$StrTraitMFC@DV?$ChTraitsCRT@D@ATL@@@@@ATL@@QAEHI@Z
_TEXT	SEGMENT
_this$1$ = -4						; size = 4
_nID$ = 8						; size = 4
_hResource$1$ = 8					; size = 4
?LoadStringA@?$CStringT@DV?$StrTraitMFC@DV?$ChTraitsCRT@D@ATL@@@@@ATL@@QAEHI@Z PROC ; ATL::CStringT<char,StrTraitMFC<char,ATL::ChTraitsCRT<char> > >::LoadStringA, COMDAT
; _this$ = ecx

; 2340 : 	{

  00000	55		 push	 ebp
  00001	8b ec		 mov	 ebp, esp
  00003	51		 push	 ecx
  00004	53		 push	 ebx
  00005	57		 push	 edi
; File C:\Program Files\Microsoft Visual Studio\2022\Professional\VC\Tools\MSVC\14.44.35207\atlmfc\include\afxstr.h

; 51   : 		return( AfxFindStringResourceHandle( nID ) );

  00006	8b 7d 08	 mov	 edi, DWORD PTR _nID$[ebp]
  00009	57		 push	 edi
; File C:\Program Files\Microsoft Visual Studio\2022\Professional\VC\Tools\MSVC\14.44.35207\atlmfc\include\cstringt.h

; 2340 : 	{

  0000a	89 4d fc	 mov	 DWORD PTR _this$1$[ebp], ecx
; File C:\Program Files\Microsoft Visual Studio\2022\Professional\VC\Tools\MSVC\14.44.35207\atlmfc\include\afxstr.h

; 51   : 		return( AfxFindStringResourceHandle( nID ) );

  0000d	e8 00 00 00 00	 call	 ?AfxFindStringResourceHandle@@YGPAUHINSTANCE__@@I@Z ; AfxFindStringResourceHandle
; File C:\Program Files\Microsoft Visual Studio\2022\Professional\VC\Tools\MSVC\14.44.35207\atlmfc\include\cstringt.h

; 2341 : 		HINSTANCE hInstance = StringTraits::FindStringResourceInstance( nID );

  00012	8b d8		 mov	 ebx, eax

; 2342 : 		if( hInstance == NULL )

  00014	85 db		 test	 ebx, ebx
  00016	75 08		 jne	 SHORT $LN2@LoadString

; 2348 : 	}

  00018	5f		 pop	 edi
  00019	5b		 pop	 ebx
  0001a	8b e5		 mov	 esp, ebp
  0001c	5d		 pop	 ebp
  0001d	c2 04 00	 ret	 4
$LN2@LoadString:
; File C:\Program Files\Microsoft Visual Studio\2022\Professional\VC\Tools\MSVC\14.44.35207\atlmfc\include\atlcore.h

; 380  : 	hResource = ::FindResourceW(hInstance, MAKEINTRESOURCEW( (((id>>4)+1) & static_cast<WORD>(~0)) ), (LPWSTR) RT_STRING);

  00020	8b c7		 mov	 eax, edi
  00022	c1 e8 04	 shr	 eax, 4
  00025	56		 push	 esi
  00026	40		 inc	 eax
  00027	6a 06		 push	 6
  00029	0f b7 c0	 movzx	 eax, ax
  0002c	50		 push	 eax
  0002d	53		 push	 ebx
  0002e	ff 15 00 00 00
	00		 call	 DWORD PTR __imp__FindResourceW@12
  00034	89 45 08	 mov	 DWORD PTR _hResource$1$[ebp], eax

; 381  : 	if( hResource == NULL )

  00037	85 c0		 test	 eax, eax
  00039	0f 84 cc 00 00
	00		 je	 $LN51@LoadString

; 338  : 	hGlobal = ::LoadResource( hInstance, hResource );

  0003f	50		 push	 eax
  00040	53		 push	 ebx
  00041	ff 15 00 00 00
	00		 call	 DWORD PTR __imp__LoadResource@8

; 339  : 	if( hGlobal == NULL )

  00047	85 c0		 test	 eax, eax
  00049	75 04		 jne	 SHORT $LN15@LoadString

; 340  : 	{
; 341  : 		return( NULL );

  0004b	33 f6		 xor	 esi, esi
  0004d	eb 43		 jmp	 SHORT $LN18@LoadString
$LN15@LoadString:

; 342  : 	}
; 343  : 
; 344  : 	pImage = (const ATLSTRINGRESOURCEIMAGE*)::LockResource( hGlobal );

  0004f	50		 push	 eax
  00050	ff 15 00 00 00
	00		 call	 DWORD PTR __imp__LockResource@4
  00056	8b f0		 mov	 esi, eax

; 345  : 	if( pImage == NULL )

  00058	85 f6		 test	 esi, esi
  0005a	74 36		 je	 SHORT $LN18@LoadString
$LN16@LoadString:

; 346  : 	{
; 347  : 		return( NULL );
; 348  : 	}
; 349  : 
; 350  : 	nResourceSize = ::SizeofResource( hInstance, hResource );

  0005c	ff 75 08	 push	 DWORD PTR _hResource$1$[ebp]
  0005f	53		 push	 ebx
  00060	ff 15 00 00 00
	00		 call	 DWORD PTR __imp__SizeofResource@8

; 351  : 	pImageEnd = (const ATLSTRINGRESOURCEIMAGE*)(LPBYTE( pImage )+nResourceSize);

  00066	8d 0c 06	 lea	 ecx, DWORD PTR [esi+eax]

; 352  : 	iIndex = id&0x000f;

  00069	83 e7 0f	 and	 edi, 15			; 0000000fH

; 353  : 
; 354  : 	while( (iIndex > 0) && (pImage < pImageEnd) )

  0006c	76 14		 jbe	 SHORT $LN14@LoadString
  0006e	66 90		 npad	 2
$LL13@LoadString:
  00070	3b f1		 cmp	 esi, ecx
  00072	73 12		 jae	 SHORT $LN50@LoadString

; 355  : 	{
; 356  : 		pImage = (const ATLSTRINGRESOURCEIMAGE*)(LPBYTE( pImage )+(sizeof( ATLSTRINGRESOURCEIMAGE )+(pImage->nLength*sizeof( WCHAR ))));

  00074	0f b7 06	 movzx	 eax, WORD PTR [esi]
  00077	8d 34 46	 lea	 esi, DWORD PTR [esi+eax*2]
  0007a	83 c6 02	 add	 esi, 2

; 357  : 		iIndex--;

  0007d	83 ef 01	 sub	 edi, 1
  00080	75 ee		 jne	 SHORT $LL13@LoadString
$LN14@LoadString:

; 358  : 	}
; 359  : 	if( pImage >= pImageEnd )

  00082	3b f1		 cmp	 esi, ecx
  00084	72 04		 jb	 SHORT $LN17@LoadString
$LN50@LoadString:

; 360  : 	{
; 361  : 		return( NULL );

  00086	33 f6		 xor	 esi, esi
  00088	eb 08		 jmp	 SHORT $LN18@LoadString
$LN17@LoadString:

; 362  : 	}
; 363  : 	if( pImage->nLength == 0 )

  0008a	33 c0		 xor	 eax, eax
  0008c	66 39 06	 cmp	 WORD PTR [esi], ax
  0008f	0f 44 f0	 cmove	 esi, eax
$LN18@LoadString:
; File C:\Program Files\Microsoft Visual Studio\2022\Professional\VC\Tools\MSVC\14.44.35207\atlmfc\include\cstringt.h

; 2356 : 		if( pImage == NULL )

  00092	85 f6		 test	 esi, esi
  00094	74 75		 je	 SHORT $LN51@LoadString

; 2359 : 		}
; 2360 : 
; 2361 : 		int nLength = StringTraits::GetBaseTypeLength( pImage->achString, pImage->nLength );

  00096	0f b7 06	 movzx	 eax, WORD PTR [esi]
  00099	8d 4e 02	 lea	 ecx, DWORD PTR [esi+2]

; 350  : 		return ::WideCharToMultiByte( _AtlGetConversionACP(), 0, pszSource, nLength, NULL, 0, NULL, NULL );

  0009c	6a 00		 push	 0
  0009e	6a 00		 push	 0
  000a0	6a 00		 push	 0
  000a2	6a 00		 push	 0
  000a4	50		 push	 eax
  000a5	51		 push	 ecx
  000a6	6a 00		 push	 0
  000a8	6a 03		 push	 3
  000aa	ff 15 00 00 00
	00		 call	 DWORD PTR __imp__WideCharToMultiByte@32

; 2361 : 		int nLength = StringTraits::GetBaseTypeLength( pImage->achString, pImage->nLength );

  000b0	8b f8		 mov	 edi, eax
; File C:\Program Files\Microsoft Visual Studio\2022\Professional\VC\Tools\MSVC\14.44.35207\atlmfc\include\atlsimpstr.h

; 808  : 		if (nLength < 0)

  000b2	85 ff		 test	 edi, edi
  000b4	78 60		 js	 SHORT $LN38@LoadString

; 804  : 		return( reinterpret_cast< CStringData* >( m_pszData )-1 );

  000b6	8b 5d fc	 mov	 ebx, DWORD PTR _this$1$[ebp]

; 812  : 		int nShared = 1-pOldData->nRefs;  // nShared < 0 means true, >= 0 means false

  000b9	ba 01 00 00 00	 mov	 edx, 1

; 804  : 		return( reinterpret_cast< CStringData* >( m_pszData )-1 );

  000be	8b 0b		 mov	 ecx, DWORD PTR [ebx]

; 812  : 		int nShared = 1-pOldData->nRefs;  // nShared < 0 means true, >= 0 means false

  000c0	2b 51 fc	 sub	 edx, DWORD PTR [ecx-4]

; 813  : 		int nTooShort = pOldData->nAllocLength-nLength;  // nTooShort < 0 means true, >= 0 means false

  000c3	8b 49 f8	 mov	 ecx, DWORD PTR [ecx-8]
  000c6	2b cf		 sub	 ecx, edi

; 814  : 		if( (nShared|nTooShort) < 0 )  // If either sign bit is set (i.e. either is less than zero), we need to copy data

  000c8	0b d1		 or	 edx, ecx
  000ca	7d 08		 jge	 SHORT $LN26@LoadString

; 815  : 		{
; 816  : 			PrepareWrite2( nLength );

  000cc	57		 push	 edi
  000cd	8b cb		 mov	 ecx, ebx
  000cf	e8 00 00 00 00	 call	 ?PrepareWrite2@?$CSimpleStringT@D$0A@@ATL@@AAEXH@Z ; ATL::CSimpleStringT<char,0>::PrepareWrite2
$LN26@LoadString:
; File C:\Program Files\Microsoft Visual Studio\2022\Professional\VC\Tools\MSVC\14.44.35207\atlmfc\include\cstringt.h

; 2363 : 		StringTraits::ConvertToBaseType( pszBuffer, nLength, pImage->achString, pImage->nLength );

  000d4	0f b7 06	 movzx	 eax, WORD PTR [esi]

; 372  : 		::WideCharToMultiByte( _AtlGetConversionACP(), 0, pszSrc, nSrcLength, pszDest, nDestLength, NULL, NULL );

  000d7	6a 00		 push	 0
  000d9	6a 00		 push	 0
  000db	57		 push	 edi
  000dc	ff 33		 push	 DWORD PTR [ebx]
  000de	50		 push	 eax
  000df	8d 46 02	 lea	 eax, DWORD PTR [esi+2]
  000e2	50		 push	 eax
  000e3	6a 00		 push	 0
  000e5	6a 03		 push	 3
  000e7	ff 15 00 00 00
	00		 call	 DWORD PTR __imp__WideCharToMultiByte@32
; File C:\Program Files\Microsoft Visual Studio\2022\Professional\VC\Tools\MSVC\14.44.35207\atlmfc\include\atlsimpstr.h

; 875  : 		if( nLength < 0 || nLength > GetData()->nAllocLength)

  000ed	8b 03		 mov	 eax, DWORD PTR [ebx]
  000ef	3b 78 f8	 cmp	 edi, DWORD PTR [eax-8]
  000f2	7f 22		 jg	 SHORT $LN38@LoadString

; 877  : 
; 878  : 		GetData()->nDataLength = nLength;

  000f4	89 78 f4	 mov	 DWORD PTR [eax-12], edi

; 879  : 		m_pszData[nLength] = 0;

  000f7	8b 03		 mov	 eax, DWORD PTR [ebx]
; File C:\Program Files\Microsoft Visual Studio\2022\Professional\VC\Tools\MSVC\14.44.35207\atlmfc\include\cstringt.h

; 2347 : 		return( LoadString( hInstance, nID ) );

  000f9	5e		 pop	 esi
; File C:\Program Files\Microsoft Visual Studio\2022\Professional\VC\Tools\MSVC\14.44.35207\atlmfc\include\atlsimpstr.h

; 879  : 		m_pszData[nLength] = 0;

  000fa	c6 04 07 00	 mov	 BYTE PTR [edi+eax], 0
; File C:\Program Files\Microsoft Visual Studio\2022\Professional\VC\Tools\MSVC\14.44.35207\atlmfc\include\cstringt.h

; 2366 : 		return( TRUE );

  000fe	b8 01 00 00 00	 mov	 eax, 1
  00103	5f		 pop	 edi

; 2348 : 	}

  00104	5b		 pop	 ebx
  00105	8b e5		 mov	 esp, ebp
  00107	5d		 pop	 ebp
  00108	c2 04 00	 ret	 4
$LN51@LoadString:

; 2347 : 		return( LoadString( hInstance, nID ) );

  0010b	5e		 pop	 esi
  0010c	5f		 pop	 edi

; 2358 : 			return( FALSE );

  0010d	33 c0		 xor	 eax, eax

; 2348 : 	}

  0010f	5b		 pop	 ebx
  00110	8b e5		 mov	 esp, ebp
  00112	5d		 pop	 ebp
  00113	c2 04 00	 ret	 4
$LN38@LoadString:
; File C:\Program Files\Microsoft Visual Studio\2022\Professional\VC\Tools\MSVC\14.44.35207\atlmfc\include\atlsimpstr.h

; 876  : 			AtlThrow(E_INVALIDARG);

  00116	68 57 00 07 80	 push	 -2147024809		; 80070057H
  0011b	e8 00 00 00 00	 call	 ?AtlThrowImpl@ATL@@YGXJ@Z ; ATL::AtlThrowImpl
$LN63@LoadString:
  00120	cc		 int	 3
?LoadStringA@?$CStringT@DV?$StrTraitMFC@DV?$ChTraitsCRT@D@ATL@@@@@ATL@@QAEHI@Z ENDP ; ATL::CStringT<char,StrTraitMFC<char,ATL::ChTraitsCRT<char> > >::LoadStringA
_TEXT	ENDS
; Function compile flags: /Ogtp
; File C:\Program Files\Microsoft Visual Studio\2022\Professional\VC\Tools\MSVC\14.44.35207\atlmfc\include\cstringt.h
; File C:\Program Files (x86)\Windows Kits\10\Include\10.0.26100.0\ucrt\stdio.h
; File C:\Program Files\Microsoft Visual Studio\2022\Professional\VC\Tools\MSVC\14.44.35207\atlmfc\include\cstringt.h
; File C:\Program Files\Microsoft Visual Studio\2022\Professional\VC\Tools\MSVC\14.44.35207\atlmfc\include\atlsimpstr.h
; File C:\Program Files\Microsoft Visual Studio\2022\Professional\VC\Tools\MSVC\14.44.35207\atlmfc\include\cstringt.h
; File C:\Program Files\Microsoft Visual Studio\2022\Professional\VC\Tools\MSVC\14.44.35207\atlmfc\include\afxstr.h
; File C:\Program Files\Microsoft Visual Studio\2022\Professional\VC\Tools\MSVC\14.44.35207\atlmfc\include\cstringt.h
; File C:\Program Files\Microsoft Visual Studio\2022\Professional\VC\Tools\MSVC\14.44.35207\atlmfc\include\atlsimpstr.h
; File C:\Program Files\Microsoft Visual Studio\2022\Professional\VC\Tools\MSVC\14.44.35207\atlmfc\include\cstringt.h
; File C:\Program Files\Microsoft Visual Studio\2022\Professional\VC\Tools\MSVC\14.44.35207\atlmfc\include\atlsimpstr.h
; File C:\Program Files\Microsoft Visual Studio\2022\Professional\VC\Tools\MSVC\14.44.35207\atlmfc\include\cstringt.h
; File C:\Program Files\Microsoft Visual Studio\2022\Professional\VC\Tools\MSVC\14.44.35207\atlmfc\include\atlsimpstr.h
; File C:\Program Files (x86)\Windows Kits\10\Include\10.0.26100.0\ucrt\stdio.h
; File C:\Program Files\Microsoft Visual Studio\2022\Professional\VC\Tools\MSVC\14.44.35207\atlmfc\include\cstringt.h
; File C:\Program Files (x86)\Windows Kits\10\Include\10.0.26100.0\ucrt\stdio.h
; File C:\Program Files\Microsoft Visual Studio\2022\Professional\VC\Tools\MSVC\14.44.35207\atlmfc\include\atlsimpstr.h
; File C:\Program Files (x86)\Windows Kits\10\Include\10.0.26100.0\ucrt\stdio.h
; File C:\Program Files\Microsoft Visual Studio\2022\Professional\VC\Tools\MSVC\14.44.35207\atlmfc\include\atlsimpstr.h
; File C:\Program Files\Microsoft Visual Studio\2022\Professional\VC\Tools\MSVC\14.44.35207\atlmfc\include\cstringt.h
; File C:\Program Files\Microsoft Visual Studio\2022\Professional\VC\Tools\MSVC\14.44.35207\atlmfc\include\atlsimpstr.h
; File C:\Program Files\Microsoft Visual Studio\2022\Professional\VC\Tools\MSVC\14.44.35207\atlmfc\include\cstringt.h
; File C:\Program Files\Microsoft Visual Studio\2022\Professional\VC\Tools\MSVC\14.44.35207\atlmfc\include\atlsimpstr.h
; File C:\Program Files\Microsoft Visual Studio\2022\Professional\VC\Tools\MSVC\14.44.35207\atlmfc\include\cstringt.h
;	COMDAT ?FormatV@?$CStringT@DV?$StrTraitMFC@DV?$ChTraitsCRT@D@ATL@@@@@ATL@@QAEXPBDPAD@Z
_TEXT	SEGMENT
tv456 = -16						; size = 4
__$EHRec$ = -12						; size = 12
_pszFormat$ = 8						; size = 4
_temp$ = 8						; size = 4
_args$ = 12						; size = 4
?FormatV@?$CStringT@DV?$StrTraitMFC@DV?$ChTraitsCRT@D@ATL@@@@@ATL@@QAEXPBDPAD@Z PROC ; ATL::CStringT<char,StrTraitMFC<char,ATL::ChTraitsCRT<char> > >::FormatV, COMDAT
; _this$ = ecx

; 2225 : 	{

  00000	55		 push	 ebp
  00001	8b ec		 mov	 ebp, esp
  00003	6a ff		 push	 -1
  00005	68 00 00 00 00	 push	 __ehhandler$?FormatV@?$CStringT@DV?$StrTraitMFC@DV?$ChTraitsCRT@D@ATL@@@@@ATL@@QAEXPBDPAD@Z
  0000a	64 a1 00 00 00
	00		 mov	 eax, DWORD PTR fs:0
  00010	50		 push	 eax
  00011	51		 push	 ecx
  00012	53		 push	 ebx
  00013	56		 push	 esi
  00014	57		 push	 edi
  00015	a1 00 00 00 00	 mov	 eax, DWORD PTR ___security_cookie
  0001a	33 c5		 xor	 eax, ebp
  0001c	50		 push	 eax
  0001d	8d 45 f4	 lea	 eax, DWORD PTR __$EHRec$[ebp]
  00020	64 a3 00 00 00
	00		 mov	 DWORD PTR fs:0, eax
  00026	8b d9		 mov	 ebx, ecx

; 2226 : 		ATLASSERT( AtlIsValidString( pszFormat ) );
; 2227 : 		if(pszFormat == NULL)

  00028	8b 75 08	 mov	 esi, DWORD PTR _pszFormat$[ebp]
  0002b	85 f6		 test	 esi, esi
  0002d	0f 84 2e 01 00
	00		 je	 $LN70@FormatV
; File C:\Program Files (x86)\Windows Kits\10\Include\10.0.26100.0\ucrt\stdio.h

; 1652 :         int const _Result = __stdio_common_vsprintf(

  00033	e8 00 00 00 00	 call	 ___local_stdio_printf_options
  00038	ff 75 0c	 push	 DWORD PTR _args$[ebp]
  0003b	89 45 f0	 mov	 DWORD PTR tv456[ebp], eax
  0003e	6a 00		 push	 0
  00040	8b 08		 mov	 ecx, DWORD PTR [eax]
  00042	56		 push	 esi
  00043	6a 00		 push	 0
  00045	6a 00		 push	 0
  00047	ff 70 04	 push	 DWORD PTR [eax+4]
  0004a	83 c9 02	 or	 ecx, 2
  0004d	51		 push	 ecx
  0004e	e8 00 00 00 00	 call	 ___stdio_common_vsprintf
  00053	8b f8		 mov	 edi, eax
  00055	83 c4 1c	 add	 esp, 28			; 0000001cH

; 1653 :             _CRT_INTERNAL_LOCAL_PRINTF_OPTIONS | _CRT_INTERNAL_PRINTF_STANDARD_SNPRINTF_BEHAVIOR,
; 1654 :             NULL, 0, _Format, _Locale, _ArgList);
; 1655 : 
; 1656 :         return _Result < 0 ? -1 : _Result;

  00058	83 c8 ff	 or	 eax, -1
  0005b	85 ff		 test	 edi, edi
  0005d	0f 48 f8	 cmovs	 edi, eax
; File C:\Program Files\Microsoft Visual Studio\2022\Professional\VC\Tools\MSVC\14.44.35207\atlmfc\include\cstringt.h

; 2232 : 		if (nLength < 0)

  00060	85 ff		 test	 edi, edi
  00062	0f 88 ef 00 00
	00		 js	 $LN87@FormatV
; File C:\Program Files\Microsoft Visual Studio\2022\Professional\VC\Tools\MSVC\14.44.35207\atlmfc\include\atlsimpstr.h

; 527  : 		IAtlStringMgr* pStringMgr = GetData()->pStringMgr;

  00068	8b 03		 mov	 eax, DWORD PTR [ebx]
  0006a	8b 48 f0	 mov	 ecx, DWORD PTR [eax-16]

; 528  : 		return pStringMgr ? pStringMgr->Clone() : NULL;

  0006d	85 c9		 test	 ecx, ecx
  0006f	74 0b		 je	 SHORT $LN13@FormatV
  00071	8b 01		 mov	 eax, DWORD PTR [ecx]
  00073	ff 50 10	 call	 DWORD PTR [eax+16]
  00076	8b c8		 mov	 ecx, eax
; File C:\Program Files\Microsoft Visual Studio\2022\Professional\VC\Tools\MSVC\14.44.35207\atlmfc\include\cstringt.h

; 1442 : 		if(pStringMgr) { return pStringMgr; }

  00078	85 c9		 test	 ecx, ecx
  0007a	75 16		 jne	 SHORT $LN28@FormatV
$LN13@FormatV:
; File C:\Program Files\Microsoft Visual Studio\2022\Professional\VC\Tools\MSVC\14.44.35207\atlmfc\include\afxstr.h

; 56   : 		return( AfxGetStringManager() );

  0007c	e8 00 00 00 00	 call	 ?AfxGetStringManager@@YGPAUIAtlStringMgr@ATL@@XZ ; AfxGetStringManager
; File C:\Program Files\Microsoft Visual Studio\2022\Professional\VC\Tools\MSVC\14.44.35207\atlmfc\include\cstringt.h

; 1445 : 		return pStringMgr->Clone();

  00081	8b c8		 mov	 ecx, eax
  00083	8b 10		 mov	 edx, DWORD PTR [eax]
  00085	ff 52 10	 call	 DWORD PTR [edx+16]
  00088	8b c8		 mov	 ecx, eax
; File C:\Program Files\Microsoft Visual Studio\2022\Professional\VC\Tools\MSVC\14.44.35207\atlmfc\include\atlsimpstr.h

; 209  : 		ATLENSURE( pStringMgr != NULL );

  0008a	85 c9		 test	 ecx, ecx
  0008c	0f 84 c5 00 00
	00		 je	 $LN87@FormatV
$LN28@FormatV:

; 210  : 		CStringData* pData = pStringMgr->GetNilString();

  00092	8b 01		 mov	 eax, DWORD PTR [ecx]
  00094	ff 50 0c	 call	 DWORD PTR [eax+12]

; 211  : 		Attach( pData );

  00097	83 c0 10	 add	 eax, 16			; 00000010H
  0009a	89 45 08	 mov	 DWORD PTR _temp$[ebp], eax
; File C:\Program Files\Microsoft Visual Studio\2022\Professional\VC\Tools\MSVC\14.44.35207\atlmfc\include\cstringt.h

; 1063 : 		CThisSimpleString( pStringMgr )

  0009d	c7 45 fc 00 00
	00 00		 mov	 DWORD PTR __$EHRec$[ebp+8], 0

; 2712 : 		if( (pv != NULL) && IS_INTRESOURCE( pv ) )

  000a4	f7 c6 00 00 ff
	ff		 test	 esi, -65536		; ffff0000H
  000aa	75 0e		 jne	 SHORT $LN86@FormatV

; 2713 : 		{
; 2714 : 			UINT nID = LOWORD( reinterpret_cast< DWORD_PTR >( pv ) );

  000ac	0f b7 c6	 movzx	 eax, si

; 2715 : 			(nID);
; 2716 : #ifdef _ATL_USE_WINAPI_FAMILY_DESKTOP_APP
; 2717 : 			if( !LoadString( nID ) )

  000af	8d 4d 08	 lea	 ecx, DWORD PTR _temp$[ebp]
  000b2	50		 push	 eax
  000b3	e8 00 00 00 00	 call	 ?LoadStringA@?$CStringT@DV?$StrTraitMFC@DV?$ChTraitsCRT@D@ATL@@@@@ATL@@QAEHI@Z ; ATL::CStringT<char,StrTraitMFC<char,ATL::ChTraitsCRT<char> > >::LoadStringA

; 1065 : 		if( !CheckImplicitLoad( pszSrc ) )

  000b8	eb 19		 jmp	 SHORT $LN24@FormatV
$LN86@FormatV:
; File C:\Program Files\Microsoft Visual Studio\2022\Professional\VC\Tools\MSVC\14.44.35207\atlmfc\include\atlsimpstr.h

; 730  : 		return( int( strlen( psz ) ) );

  000ba	8b ce		 mov	 ecx, esi
  000bc	8d 51 01	 lea	 edx, DWORD PTR [ecx+1]
  000bf	90		 npad	 1
$LL89@FormatV:
  000c0	8a 01		 mov	 al, BYTE PTR [ecx]
  000c2	41		 inc	 ecx
  000c3	84 c0		 test	 al, al
  000c5	75 f9		 jne	 SHORT $LL89@FormatV
  000c7	2b ca		 sub	 ecx, edx

; 606  : 		SetString( pszSrc, StringLength( pszSrc ) );

  000c9	51		 push	 ecx
  000ca	56		 push	 esi
  000cb	8d 4d 08	 lea	 ecx, DWORD PTR _temp$[ebp]
  000ce	e8 00 00 00 00	 call	 ?SetString@?$CSimpleStringT@D$0A@@ATL@@QAEXPBDH@Z ; ATL::CSimpleStringT<char,0>::SetString
$LN24@FormatV:

; 804  : 		return( reinterpret_cast< CStringData* >( m_pszData )-1 );

  000d3	8b 03		 mov	 eax, DWORD PTR [ebx]

; 812  : 		int nShared = 1-pOldData->nRefs;  // nShared < 0 means true, >= 0 means false

  000d5	b9 01 00 00 00	 mov	 ecx, 1
; File C:\Program Files\Microsoft Visual Studio\2022\Professional\VC\Tools\MSVC\14.44.35207\atlmfc\include\cstringt.h

; 2235 : 		CStringT temp(pszFormat, this->GetManager());

  000da	c7 45 fc 01 00
	00 00		 mov	 DWORD PTR __$EHRec$[ebp+8], 1
; File C:\Program Files\Microsoft Visual Studio\2022\Professional\VC\Tools\MSVC\14.44.35207\atlmfc\include\atlsimpstr.h

; 812  : 		int nShared = 1-pOldData->nRefs;  // nShared < 0 means true, >= 0 means false

  000e1	2b 48 fc	 sub	 ecx, DWORD PTR [eax-4]

; 813  : 		int nTooShort = pOldData->nAllocLength-nLength;  // nTooShort < 0 means true, >= 0 means false

  000e4	8b 40 f8	 mov	 eax, DWORD PTR [eax-8]
  000e7	2b c7		 sub	 eax, edi

; 814  : 		if( (nShared|nTooShort) < 0 )  // If either sign bit is set (i.e. either is less than zero), we need to copy data

  000e9	0b c8		 or	 ecx, eax
  000eb	7d 08		 jge	 SHORT $LN55@FormatV

; 815  : 		{
; 816  : 			PrepareWrite2( nLength );

  000ed	57		 push	 edi
  000ee	8b cb		 mov	 ecx, ebx
  000f0	e8 00 00 00 00	 call	 ?PrepareWrite2@?$CSimpleStringT@D$0A@@ATL@@AAEXH@Z ; ATL::CSimpleStringT<char,0>::PrepareWrite2
$LN55@FormatV:
; File C:\Program Files (x86)\Windows Kits\10\Include\10.0.26100.0\ucrt\stdio.h

; 1491 :         int const _Result = __stdio_common_vsprintf_s(

  000f5	ff 75 0c	 push	 DWORD PTR _args$[ebp]
  000f8	8b 75 08	 mov	 esi, DWORD PTR _temp$[ebp]
; File C:\Program Files\Microsoft Visual Studio\2022\Professional\VC\Tools\MSVC\14.44.35207\atlmfc\include\cstringt.h

; 2237 : 		StringTraits::Format( pszBuffer, nLength+1, temp, args );

  000fb	8d 47 01	 lea	 eax, DWORD PTR [edi+1]
; File C:\Program Files (x86)\Windows Kits\10\Include\10.0.26100.0\ucrt\stdio.h

; 1491 :         int const _Result = __stdio_common_vsprintf_s(

  000fe	6a 00		 push	 0
  00100	56		 push	 esi
  00101	50		 push	 eax
  00102	8b 45 f0	 mov	 eax, DWORD PTR tv456[ebp]
  00105	ff 33		 push	 DWORD PTR [ebx]
  00107	ff 70 04	 push	 DWORD PTR [eax+4]
  0010a	ff 30		 push	 DWORD PTR [eax]
  0010c	e8 00 00 00 00	 call	 ___stdio_common_vsprintf_s
; File C:\Program Files\Microsoft Visual Studio\2022\Professional\VC\Tools\MSVC\14.44.35207\atlmfc\include\atlsimpstr.h

; 875  : 		if( nLength < 0 || nLength > GetData()->nAllocLength)

  00111	8b 03		 mov	 eax, DWORD PTR [ebx]
; File C:\Program Files (x86)\Windows Kits\10\Include\10.0.26100.0\ucrt\stdio.h

; 1491 :         int const _Result = __stdio_common_vsprintf_s(

  00113	83 c4 1c	 add	 esp, 28			; 0000001cH
; File C:\Program Files\Microsoft Visual Studio\2022\Professional\VC\Tools\MSVC\14.44.35207\atlmfc\include\atlsimpstr.h

; 875  : 		if( nLength < 0 || nLength > GetData()->nAllocLength)

  00116	3b 78 f8	 cmp	 edi, DWORD PTR [eax-8]
  00119	7f 46		 jg	 SHORT $LN70@FormatV

; 876  : 			AtlThrow(E_INVALIDARG);
; 877  : 
; 878  : 		GetData()->nDataLength = nLength;

  0011b	89 78 f4	 mov	 DWORD PTR [eax-12], edi

; 804  : 		return( reinterpret_cast< CStringData* >( m_pszData )-1 );

  0011e	83 c6 f0	 add	 esi, -16		; fffffff0H

; 879  : 		m_pszData[nLength] = 0;

  00121	8b 03		 mov	 eax, DWORD PTR [ebx]
; File C:\Program Files\Microsoft Visual Studio\2022\Professional\VC\Tools\MSVC\14.44.35207\atlmfc\include\cstringt.h

; 2239 : 	}

  00123	c7 45 fc ff ff
	ff ff		 mov	 DWORD PTR __$EHRec$[ebp+8], -1
; File C:\Program Files\Microsoft Visual Studio\2022\Professional\VC\Tools\MSVC\14.44.35207\atlmfc\include\atlsimpstr.h

; 879  : 		m_pszData[nLength] = 0;

  0012a	c6 04 07 00	 mov	 BYTE PTR [edi+eax], 0

; 92   : 		if( _InterlockedDecrement( &nRefs ) <= 0 )

  0012e	83 c8 ff	 or	 eax, -1
  00131	f0 0f c1 46 0c	 lock	  xadd	 DWORD PTR [esi+12], eax
  00136	48		 dec	 eax
  00137	85 c0		 test	 eax, eax
  00139	7f 08		 jg	 SHORT $LN84@FormatV

; 93   : 		{
; 94   : 			pStringMgr->Free( this );

  0013b	8b 0e		 mov	 ecx, DWORD PTR [esi]
  0013d	56		 push	 esi
  0013e	8b 01		 mov	 eax, DWORD PTR [ecx]
  00140	ff 50 04	 call	 DWORD PTR [eax+4]
$LN84@FormatV:
; File C:\Program Files\Microsoft Visual Studio\2022\Professional\VC\Tools\MSVC\14.44.35207\atlmfc\include\cstringt.h

; 2239 : 	}

  00143	8b 4d f4	 mov	 ecx, DWORD PTR __$EHRec$[ebp]
  00146	64 89 0d 00 00
	00 00		 mov	 DWORD PTR fs:0, ecx
  0014d	59		 pop	 ecx
  0014e	5f		 pop	 edi
  0014f	5e		 pop	 esi
  00150	5b		 pop	 ebx
  00151	8b e5		 mov	 esp, ebp
  00153	5d		 pop	 ebp
  00154	c2 08 00	 ret	 8
$LN87@FormatV:
; File C:\Program Files\Microsoft Visual Studio\2022\Professional\VC\Tools\MSVC\14.44.35207\atlmfc\include\atlsimpstr.h

; 209  : 		ATLENSURE( pStringMgr != NULL );

  00157	68 05 40 00 80	 push	 -2147467259		; 80004005H
  0015c	e8 00 00 00 00	 call	 ?AtlThrowImpl@ATL@@YGXJ@Z ; ATL::AtlThrowImpl
$LN70@FormatV:
; File C:\Program Files\Microsoft Visual Studio\2022\Professional\VC\Tools\MSVC\14.44.35207\atlmfc\include\cstringt.h

; 2239 : 	}

  00161	68 57 00 07 80	 push	 -2147024809		; 80070057H
  00166	e8 00 00 00 00	 call	 ?AtlThrowImpl@ATL@@YGXJ@Z ; ATL::AtlThrowImpl
$LN91@FormatV:
  0016b	cc		 int	 3
_TEXT	ENDS
;	COMDAT text$x
text$x	SEGMENT
__unwindfunclet$?FormatV@?$CStringT@DV?$StrTraitMFC@DV?$ChTraitsCRT@D@ATL@@@@@ATL@@QAEXPBDPAD@Z$1:
  00000	8d 4d 08	 lea	 ecx, DWORD PTR _temp$[ebp]
  00003	e9 00 00 00 00	 jmp	 ??1?$CSimpleStringT@D$0A@@ATL@@QAE@XZ ; ATL::CSimpleStringT<char,0>::~CSimpleStringT<char,0>
__unwindfunclet$?FormatV@?$CStringT@DV?$StrTraitMFC@DV?$ChTraitsCRT@D@ATL@@@@@ATL@@QAEXPBDPAD@Z$0:
  00008	8d 4d 08	 lea	 ecx, DWORD PTR _temp$[ebp]
  0000b	e9 00 00 00 00	 jmp	 ??1?$CStringT@DV?$StrTraitMFC@DV?$ChTraitsCRT@D@ATL@@@@@ATL@@QAE@XZ ; ATL::CStringT<char,StrTraitMFC<char,ATL::ChTraitsCRT<char> > >::~CStringT<char,StrTraitMFC<char,ATL::ChTraitsCRT<char> > >
  00010	cc		 int	 3
  00011	cc		 int	 3
  00012	cc		 int	 3
  00013	cc		 int	 3
  00014	cc		 int	 3
__ehhandler$?FormatV@?$CStringT@DV?$StrTraitMFC@DV?$ChTraitsCRT@D@ATL@@@@@ATL@@QAEXPBDPAD@Z:
  00015	90		 npad	 1
  00016	90		 npad	 1
  00017	8b 54 24 08	 mov	 edx, DWORD PTR [esp+8]
  0001b	8d 42 0c	 lea	 eax, DWORD PTR [edx+12]
  0001e	8b 4a ec	 mov	 ecx, DWORD PTR [edx-20]
  00021	33 c8		 xor	 ecx, eax
  00023	e8 00 00 00 00	 call	 @__security_check_cookie@4
  00028	b8 00 00 00 00	 mov	 eax, OFFSET __ehfuncinfo$?FormatV@?$CStringT@DV?$StrTraitMFC@DV?$ChTraitsCRT@D@ATL@@@@@ATL@@QAEXPBDPAD@Z
  0002d	e9 00 00 00 00	 jmp	 ___CxxFrameHandler3
text$x	ENDS
?FormatV@?$CStringT@DV?$StrTraitMFC@DV?$ChTraitsCRT@D@ATL@@@@@ATL@@QAEXPBDPAD@Z ENDP ; ATL::CStringT<char,StrTraitMFC<char,ATL::ChTraitsCRT<char> > >::FormatV
; Function compile flags: /Ogtp
; File C:\Program Files\Microsoft Visual Studio\2022\Professional\VC\Tools\MSVC\14.44.35207\atlmfc\include\cstringt.h
;	COMDAT ?Format@?$CStringT@DV?$StrTraitMFC@DV?$ChTraitsCRT@D@ATL@@@@@ATL@@QAAXPBDZZ
_TEXT	SEGMENT
_this$ = 8						; size = 4
_pszFormat$ = 12					; size = 4
?Format@?$CStringT@DV?$StrTraitMFC@DV?$ChTraitsCRT@D@ATL@@@@@ATL@@QAAXPBDZZ PROC ; ATL::CStringT<char,StrTraitMFC<char,ATL::ChTraitsCRT<char> > >::Format, COMDAT

; 2745 : {

  00000	55		 push	 ebp
  00001	8b ec		 mov	 ebp, esp

; 2746 : 	ATLASSERT( AtlIsValidString( pszFormat ) );
; 2747 : 
; 2748 : 	va_list argList;
; 2749 : 	va_start( argList, pszFormat );
; 2750 : 	FormatV( pszFormat, argList );

  00003	8b 4d 08	 mov	 ecx, DWORD PTR _this$[ebp]
  00006	8d 45 10	 lea	 eax, DWORD PTR _pszFormat$[ebp+4]
  00009	50		 push	 eax
  0000a	ff 75 0c	 push	 DWORD PTR _pszFormat$[ebp]
  0000d	e8 00 00 00 00	 call	 ?FormatV@?$CStringT@DV?$StrTraitMFC@DV?$ChTraitsCRT@D@ATL@@@@@ATL@@QAEXPBDPAD@Z ; ATL::CStringT<char,StrTraitMFC<char,ATL::ChTraitsCRT<char> > >::FormatV

; 2751 : 	va_end( argList );
; 2752 : }

  00012	5d		 pop	 ebp
  00013	c3		 ret	 0
?Format@?$CStringT@DV?$StrTraitMFC@DV?$ChTraitsCRT@D@ATL@@@@@ATL@@QAAXPBDZZ ENDP ; ATL::CStringT<char,StrTraitMFC<char,ATL::ChTraitsCRT<char> > >::Format
_TEXT	ENDS
; Function compile flags: /Ogtp
; File C:\Program Files\Microsoft Visual Studio\2022\Professional\VC\Tools\MSVC\14.44.35207\atlmfc\include\cstringt.h
; File C:\Program Files\Microsoft Visual Studio\2022\Professional\VC\Tools\MSVC\14.44.35207\atlmfc\include\atlsimpstr.h
; File C:\Program Files\Microsoft Visual Studio\2022\Professional\VC\Tools\MSVC\14.44.35207\atlmfc\include\cstringt.h
;	COMDAT ??1?$CStringT@DV?$StrTraitMFC@DV?$ChTraitsCRT@D@ATL@@@@@ATL@@QAE@XZ
_TEXT	SEGMENT
??1?$CStringT@DV?$StrTraitMFC@DV?$ChTraitsCRT@D@ATL@@@@@ATL@@QAE@XZ PROC ; ATL::CStringT<char,StrTraitMFC<char,ATL::ChTraitsCRT<char> > >::~CStringT<char,StrTraitMFC<char,ATL::ChTraitsCRT<char> > >, COMDAT
; _this$ = ecx
; File C:\Program Files\Microsoft Visual Studio\2022\Professional\VC\Tools\MSVC\14.44.35207\atlmfc\include\atlsimpstr.h

; 804  : 		return( reinterpret_cast< CStringData* >( m_pszData )-1 );

  00000	8b 11		 mov	 edx, DWORD PTR [ecx]

; 92   : 		if( _InterlockedDecrement( &nRefs ) <= 0 )

  00002	83 c8 ff	 or	 eax, -1

; 804  : 		return( reinterpret_cast< CStringData* >( m_pszData )-1 );

  00005	83 ea 10	 sub	 edx, 16			; 00000010H

; 92   : 		if( _InterlockedDecrement( &nRefs ) <= 0 )

  00008	f0 0f c1 42 0c	 lock	  xadd	 DWORD PTR [edx+12], eax
  0000d	48		 dec	 eax
  0000e	85 c0		 test	 eax, eax
  00010	7f 08		 jg	 SHORT $LN8@CStringT

; 93   : 		{
; 94   : 			pStringMgr->Free( this );

  00012	8b 0a		 mov	 ecx, DWORD PTR [edx]
  00014	52		 push	 edx
  00015	8b 01		 mov	 eax, DWORD PTR [ecx]
  00017	ff 50 04	 call	 DWORD PTR [eax+4]
$LN8@CStringT:
; File C:\Program Files\Microsoft Visual Studio\2022\Professional\VC\Tools\MSVC\14.44.35207\atlmfc\include\cstringt.h

; 1303 : 	}

  0001a	c3		 ret	 0
??1?$CStringT@DV?$StrTraitMFC@DV?$ChTraitsCRT@D@ATL@@@@@ATL@@QAE@XZ ENDP ; ATL::CStringT<char,StrTraitMFC<char,ATL::ChTraitsCRT<char> > >::~CStringT<char,StrTraitMFC<char,ATL::ChTraitsCRT<char> > >
_TEXT	ENDS
; Function compile flags: /Ogtp
; File C:\Program Files\Microsoft Visual Studio\2022\Professional\VC\Tools\MSVC\14.44.35207\atlmfc\include\atlsimpstr.h
;	COMDAT ?Reallocate@?$CSimpleStringT@D$0A@@ATL@@AAEXH@Z
_TEXT	SEGMENT
_nLength$ = 8						; size = 4
?Reallocate@?$CSimpleStringT@D$0A@@ATL@@AAEXH@Z PROC	; ATL::CSimpleStringT<char,0>::Reallocate, COMDAT
; _this$ = ecx

; 853  : 	{

  00000	55		 push	 ebp
  00001	8b ec		 mov	 ebp, esp
  00003	56		 push	 esi

; 854  : 		CStringData* pOldData = GetData();
; 855  : 		ATLASSERT( pOldData->nAllocLength < nLength );
; 856  : 		IAtlStringMgr* pStringMgr = pOldData->pStringMgr;
; 857  : 		if ( pOldData->nAllocLength >= nLength || nLength <= 0)

  00004	8b 75 08	 mov	 esi, DWORD PTR _nLength$[ebp]
  00007	57		 push	 edi
  00008	8b f9		 mov	 edi, ecx

; 804  : 		return( reinterpret_cast< CStringData* >( m_pszData )-1 );

  0000a	8b 17		 mov	 edx, DWORD PTR [edi]
  0000c	83 ea 10	 sub	 edx, 16			; 00000010H

; 854  : 		CStringData* pOldData = GetData();
; 855  : 		ATLASSERT( pOldData->nAllocLength < nLength );
; 856  : 		IAtlStringMgr* pStringMgr = pOldData->pStringMgr;
; 857  : 		if ( pOldData->nAllocLength >= nLength || nLength <= 0)

  0000f	39 72 08	 cmp	 DWORD PTR [edx+8], esi
  00012	7d 1e		 jge	 SHORT $LN3@Reallocate
  00014	85 f6		 test	 esi, esi
  00016	7e 1a		 jle	 SHORT $LN3@Reallocate

; 860  : 			return;
; 861  : 		}
; 862  : 		CStringData* pNewData = pStringMgr->Reallocate( pOldData, nLength, sizeof( XCHAR ) );

  00018	8b 0a		 mov	 ecx, DWORD PTR [edx]
  0001a	6a 01		 push	 1
  0001c	56		 push	 esi
  0001d	52		 push	 edx
  0001e	8b 01		 mov	 eax, DWORD PTR [ecx]
  00020	ff 50 08	 call	 DWORD PTR [eax+8]

; 863  : 		if( pNewData == NULL )

  00023	85 c0		 test	 eax, eax
  00025	74 0b		 je	 SHORT $LN3@Reallocate

; 864  : 		{
; 865  : 			ThrowMemoryException();
; 866  : 		}
; 867  : 		Attach( pNewData );

  00027	83 c0 10	 add	 eax, 16			; 00000010H
  0002a	89 07		 mov	 DWORD PTR [edi], eax
  0002c	5f		 pop	 edi
  0002d	5e		 pop	 esi

; 868  : 	}

  0002e	5d		 pop	 ebp
  0002f	c2 04 00	 ret	 4
$LN3@Reallocate:

; 858  : 		{
; 859  : 			ThrowMemoryException();

  00032	e8 00 00 00 00	 call	 ?ThrowMemoryException@?$CSimpleStringT@D$0A@@ATL@@KAXXZ ; ATL::CSimpleStringT<char,0>::ThrowMemoryException
$LN12@Reallocate:
  00037	cc		 int	 3
?Reallocate@?$CSimpleStringT@D$0A@@ATL@@AAEXH@Z ENDP	; ATL::CSimpleStringT<char,0>::Reallocate
_TEXT	ENDS
; Function compile flags: /Ogtp
; File C:\Program Files\Microsoft Visual Studio\2022\Professional\VC\Tools\MSVC\14.44.35207\atlmfc\include\atlsimpstr.h
;	COMDAT ?PrepareWrite2@?$CSimpleStringT@D$0A@@ATL@@AAEXH@Z
_TEXT	SEGMENT
_nLength$ = 8						; size = 4
?PrepareWrite2@?$CSimpleStringT@D$0A@@ATL@@AAEXH@Z PROC	; ATL::CSimpleStringT<char,0>::PrepareWrite2, COMDAT
; _this$ = ecx

; 822  : 	{

  00000	55		 push	 ebp
  00001	8b ec		 mov	 ebp, esp
  00003	56		 push	 esi

; 823  : 		CStringData* pOldData = GetData();
; 824  : 		if( pOldData->nDataLength > nLength )

  00004	8b 75 08	 mov	 esi, DWORD PTR _nLength$[ebp]
  00007	57		 push	 edi
  00008	8b f9		 mov	 edi, ecx

; 804  : 		return( reinterpret_cast< CStringData* >( m_pszData )-1 );

  0000a	8b 0f		 mov	 ecx, DWORD PTR [edi]

; 823  : 		CStringData* pOldData = GetData();
; 824  : 		if( pOldData->nDataLength > nLength )

  0000c	39 71 f4	 cmp	 DWORD PTR [ecx-12], esi
  0000f	0f 4f 71 f4	 cmovg	 esi, DWORD PTR [ecx-12]

; 77   : 		return( nRefs > 1 );

  00013	83 79 fc 01	 cmp	 DWORD PTR [ecx-4], 1

; 825  : 		{
; 826  : 			nLength = pOldData->nDataLength;
; 827  : 		}
; 828  : 		if( pOldData->IsShared() )

  00017	7e 0e		 jle	 SHORT $LN3@PrepareWri

; 829  : 		{
; 830  : 			Fork( nLength );

  00019	56		 push	 esi
  0001a	8b cf		 mov	 ecx, edi
  0001c	e8 00 00 00 00	 call	 ?Fork@?$CSimpleStringT@D$0A@@ATL@@AAEXH@Z ; ATL::CSimpleStringT<char,0>::Fork
  00021	5f		 pop	 edi

; 850  : 		}
; 851  : 	}

  00022	5e		 pop	 esi
  00023	5d		 pop	 ebp
  00024	c2 04 00	 ret	 4
$LN3@PrepareWri:

; 831  : 		}
; 832  : 		else if( pOldData->nAllocLength < nLength )

  00027	8b 49 f8	 mov	 ecx, DWORD PTR [ecx-8]
  0002a	3b ce		 cmp	 ecx, esi
  0002c	7d 25		 jge	 SHORT $LN5@PrepareWri

; 833  : 		{
; 834  : 			// Grow exponentially, until we hit 1G, then by 1M thereafter.
; 835  : 			int nNewLength = pOldData->nAllocLength;
; 836  : 			if( nNewLength > 1024 * 1024 * 1024 )

  0002e	81 f9 00 00 00
	40		 cmp	 ecx, 1073741824		; 40000000H
  00034	7e 07		 jle	 SHORT $LN6@PrepareWri

; 837  : 			{
; 838  : 				nNewLength += 1024 * 1024;

  00036	b8 00 00 10 00	 mov	 eax, 1048576		; 00100000H

; 839  : 			}

  0003b	eb 07		 jmp	 SHORT $LN7@PrepareWri
$LN6@PrepareWri:

; 840  : 			else
; 841  : 			{
; 842  : 				// Exponential growth factor is 1.5.
; 843  : 				nNewLength = nNewLength + nNewLength / 2;

  0003d	8b c1		 mov	 eax, ecx
  0003f	99		 cdq
  00040	2b c2		 sub	 eax, edx
  00042	d1 f8		 sar	 eax, 1
$LN7@PrepareWri:

; 844  : 			}
; 845  : 			if( nNewLength < nLength )

  00044	03 c1		 add	 eax, ecx

; 846  : 			{
; 847  : 				nNewLength = nLength;
; 848  : 			}
; 849  : 			Reallocate( nNewLength );

  00046	8b cf		 mov	 ecx, edi
  00048	3b c6		 cmp	 eax, esi
  0004a	0f 4d f0	 cmovge	 esi, eax
  0004d	56		 push	 esi
  0004e	e8 00 00 00 00	 call	 ?Reallocate@?$CSimpleStringT@D$0A@@ATL@@AAEXH@Z ; ATL::CSimpleStringT<char,0>::Reallocate
$LN5@PrepareWri:

; 850  : 		}
; 851  : 	}

  00053	5f		 pop	 edi
  00054	5e		 pop	 esi
  00055	5d		 pop	 ebp
  00056	c2 04 00	 ret	 4
?PrepareWrite2@?$CSimpleStringT@D$0A@@ATL@@AAEXH@Z ENDP	; ATL::CSimpleStringT<char,0>::PrepareWrite2
_TEXT	ENDS
; Function compile flags: /Ogtp
; File C:\Program Files\Microsoft Visual Studio\2022\Professional\VC\Tools\MSVC\14.44.35207\atlmfc\include\atlsimpstr.h
; File C:\Program Files (x86)\Windows Kits\10\Include\10.0.26100.0\ucrt\corecrt_memcpy_s.h
; File C:\Program Files\Microsoft Visual Studio\2022\Professional\VC\Tools\MSVC\14.44.35207\atlmfc\include\atlsimpstr.h
;	COMDAT ?Fork@?$CSimpleStringT@D$0A@@ATL@@AAEXH@Z
_TEXT	SEGMENT
_this$1$ = -12						; size = 4
_nOldLength$1$ = -8					; size = 4
__Source$1$ = -4					; size = 4
_nLength$ = 8						; size = 4
_pNewData$1$ = 8					; size = 4
?Fork@?$CSimpleStringT@D$0A@@ATL@@AAEXH@Z PROC		; ATL::CSimpleStringT<char,0>::Fork, COMDAT
; _this$ = ecx

; 787  : 	{

  00000	55		 push	 ebp
  00001	8b ec		 mov	 ebp, esp
  00003	83 ec 0c	 sub	 esp, 12			; 0000000cH
  00006	8b c1		 mov	 eax, ecx
  00008	89 45 f4	 mov	 DWORD PTR _this$1$[ebp], eax
  0000b	53		 push	 ebx
  0000c	56		 push	 esi

; 804  : 		return( reinterpret_cast< CStringData* >( m_pszData )-1 );

  0000d	8b 00		 mov	 eax, DWORD PTR [eax]

; 790  : 		CStringData* pNewData = pOldData->pStringMgr->Clone()->Allocate( nLength, sizeof( XCHAR ) );

  0000f	8b 48 f0	 mov	 ecx, DWORD PTR [eax-16]

; 804  : 		return( reinterpret_cast< CStringData* >( m_pszData )-1 );

  00012	8d 58 f0	 lea	 ebx, DWORD PTR [eax-16]
  00015	89 45 fc	 mov	 DWORD PTR __Source$1$[ebp], eax

; 787  : 	{

  00018	57		 push	 edi

; 788  : 		CStringData* pOldData = GetData();
; 789  : 		int nOldLength = pOldData->nDataLength;

  00019	8b 7b 04	 mov	 edi, DWORD PTR [ebx+4]

; 790  : 		CStringData* pNewData = pOldData->pStringMgr->Clone()->Allocate( nLength, sizeof( XCHAR ) );

  0001c	8b 01		 mov	 eax, DWORD PTR [ecx]
  0001e	89 7d f8	 mov	 DWORD PTR _nOldLength$1$[ebp], edi
  00021	ff 50 10	 call	 DWORD PTR [eax+16]
  00024	8b 75 08	 mov	 esi, DWORD PTR _nLength$[ebp]
  00027	8b c8		 mov	 ecx, eax
  00029	6a 01		 push	 1
  0002b	56		 push	 esi
  0002c	8b 10		 mov	 edx, DWORD PTR [eax]
  0002e	ff 12		 call	 DWORD PTR [edx]
  00030	89 45 08	 mov	 DWORD PTR _pNewData$1$[ebp], eax

; 791  : 		if( pNewData == NULL )

  00033	85 c0		 test	 eax, eax
  00035	74 6c		 je	 SHORT $LN25@Fork

; 794  : 		}
; 795  : 		int nCharsToCopy = ((nOldLength < nLength) ? nOldLength : nLength)+1;  // Copy '\0'

  00037	3b fe		 cmp	 edi, esi
  00039	0f 4c f7	 cmovl	 esi, edi

; 796  : 		memcpy_s( PXSTR( pNewData->data() ), nCharsToCopy * sizeof( XCHAR ),

  0003c	8d 78 10	 lea	 edi, DWORD PTR [eax+16]
  0003f	83 c6 01	 add	 esi, 1
; File C:\Program Files (x86)\Windows Kits\10\Include\10.0.26100.0\ucrt\corecrt_memcpy_s.h

; 47   :         if (_SourceSize == 0)

  00042	74 33		 je	 SHORT $LN11@Fork

; 48   :         {
; 49   :             return 0;
; 50   :         }
; 51   : 
; 52   :         _CRT_MEMCPY_S_VALIDATE_RETURN_ERRCODE(_Destination != NULL, EINVAL);

  00044	85 ff		 test	 edi, edi
  00046	74 1f		 je	 SHORT $LN23@Fork

; 53   :         if (_Source == NULL || _DestinationSize < _SourceSize)

  00048	8b 45 fc	 mov	 eax, DWORD PTR __Source$1$[ebp]
  0004b	56		 push	 esi
  0004c	85 c0		 test	 eax, eax
  0004e	74 0c		 je	 SHORT $LN10@Fork

; 56   : 
; 57   :             _CRT_MEMCPY_S_VALIDATE_RETURN_ERRCODE(_Source != NULL,                 EINVAL);
; 58   :             _CRT_MEMCPY_S_VALIDATE_RETURN_ERRCODE(_DestinationSize >= _SourceSize, ERANGE);
; 59   : 
; 60   :             // Unreachable, but required to suppress /analyze warnings:
; 61   :             return EINVAL;
; 62   :         }
; 63   :         memcpy(_Destination, _Source, _SourceSize);

  00050	50		 push	 eax
  00051	57		 push	 edi
  00052	e8 00 00 00 00	 call	 _memcpy
  00057	83 c4 0c	 add	 esp, 12			; 0000000cH
  0005a	eb 1b		 jmp	 SHORT $LN11@Fork
$LN10@Fork:

; 54   :         {
; 55   :             memset(_Destination, 0, _DestinationSize);

  0005c	6a 00		 push	 0
  0005e	57		 push	 edi
  0005f	e8 00 00 00 00	 call	 _memset
  00064	83 c4 0c	 add	 esp, 12			; 0000000cH
$LN23@Fork:
; File C:\Program Files\Microsoft Visual Studio\2022\Professional\VC\Tools\MSVC\14.44.35207\atlmfc\include\atlsimpstr.h

; 798  : 		pNewData->nDataLength = nOldLength;

  00067	e8 00 00 00 00	 call	 __errno
  0006c	c7 00 16 00 00
	00		 mov	 DWORD PTR [eax], 22	; 00000016H
  00072	e8 00 00 00 00	 call	 __invalid_parameter_noinfo
$LN11@Fork:
  00077	8b 4d 08	 mov	 ecx, DWORD PTR _pNewData$1$[ebp]
  0007a	8b 45 f8	 mov	 eax, DWORD PTR _nOldLength$1$[ebp]
  0007d	89 41 04	 mov	 DWORD PTR [ecx+4], eax

; 92   : 		if( _InterlockedDecrement( &nRefs ) <= 0 )

  00080	83 c8 ff	 or	 eax, -1
  00083	f0 0f c1 43 0c	 lock	  xadd	 DWORD PTR [ebx+12], eax
  00088	48		 dec	 eax
  00089	85 c0		 test	 eax, eax
  0008b	7f 08		 jg	 SHORT $LN15@Fork

; 93   : 		{
; 94   : 			pStringMgr->Free( this );

  0008d	8b 0b		 mov	 ecx, DWORD PTR [ebx]
  0008f	53		 push	 ebx
  00090	8b 01		 mov	 eax, DWORD PTR [ecx]
  00092	ff 50 04	 call	 DWORD PTR [eax+4]
$LN15@Fork:

; 799  : 		pOldData->Release();
; 800  : 		Attach( pNewData );

  00095	8b 45 f4	 mov	 eax, DWORD PTR _this$1$[ebp]
  00098	89 38		 mov	 DWORD PTR [eax], edi

; 801  : 	}

  0009a	5f		 pop	 edi
  0009b	5e		 pop	 esi
  0009c	5b		 pop	 ebx
  0009d	8b e5		 mov	 esp, ebp
  0009f	5d		 pop	 ebp
  000a0	c2 04 00	 ret	 4
$LN25@Fork:

; 792  : 		{
; 793  : 			ThrowMemoryException();

  000a3	e8 00 00 00 00	 call	 ?ThrowMemoryException@?$CSimpleStringT@D$0A@@ATL@@KAXXZ ; ATL::CSimpleStringT<char,0>::ThrowMemoryException
$LN22@Fork:
  000a8	cc		 int	 3
?Fork@?$CSimpleStringT@D$0A@@ATL@@AAEXH@Z ENDP		; ATL::CSimpleStringT<char,0>::Fork
_TEXT	ENDS
; Function compile flags: /Ogtp
; File C:\Program Files\Microsoft Visual Studio\2022\Professional\VC\Tools\MSVC\14.44.35207\atlmfc\include\atlsimpstr.h
;	COMDAT ?ThrowMemoryException@?$CSimpleStringT@D$0A@@ATL@@KAXXZ
_TEXT	SEGMENT
?ThrowMemoryException@?$CSimpleStringT@D$0A@@ATL@@KAXXZ PROC ; ATL::CSimpleStringT<char,0>::ThrowMemoryException, COMDAT

; 777  : 		AtlThrow( E_OUTOFMEMORY );

  00000	68 0e 00 07 80	 push	 -2147024882		; 8007000eH
  00005	e8 00 00 00 00	 call	 ?AtlThrowImpl@ATL@@YGXJ@Z ; ATL::AtlThrowImpl
$LN3@ThrowMemor:
  0000a	cc		 int	 3
?ThrowMemoryException@?$CSimpleStringT@D$0A@@ATL@@KAXXZ ENDP ; ATL::CSimpleStringT<char,0>::ThrowMemoryException
_TEXT	ENDS
; Function compile flags: /Ogtp
; File C:\Program Files\Microsoft Visual Studio\2022\Professional\VC\Tools\MSVC\14.44.35207\atlmfc\include\atlsimpstr.h
; File C:\Program Files (x86)\Windows Kits\10\Include\10.0.26100.0\ucrt\corecrt_memcpy_s.h
; File C:\Program Files\Microsoft Visual Studio\2022\Professional\VC\Tools\MSVC\14.44.35207\atlmfc\include\atlsimpstr.h
; File C:\Program Files (x86)\Windows Kits\10\Include\10.0.26100.0\ucrt\corecrt_memcpy_s.h
; File C:\Program Files\Microsoft Visual Studio\2022\Professional\VC\Tools\MSVC\14.44.35207\atlmfc\include\atlsimpstr.h
;	COMDAT ?SetString@?$CSimpleStringT@D$0A@@ATL@@QAEXPBDH@Z
_TEXT	SEGMENT
_pszSrc$ = 8						; size = 4
_nOldLength$1$ = 8					; size = 4
_nLength$ = 12						; size = 4
_nOffset$1$ = 12					; size = 4
?SetString@?$CSimpleStringT@D$0A@@ATL@@QAEXPBDH@Z PROC	; ATL::CSimpleStringT<char,0>::SetString, COMDAT
; _this$ = ecx

; 611  : 	{

  00000	55		 push	 ebp
  00001	8b ec		 mov	 ebp, esp
  00003	56		 push	 esi

; 612  : 		if( nLength == 0 )

  00004	8b 75 0c	 mov	 esi, DWORD PTR _nLength$[ebp]
  00007	57		 push	 edi
  00008	8b f9		 mov	 edi, ecx
  0000a	85 f6		 test	 esi, esi
  0000c	75 58		 jne	 SHORT $LN2@SetString

; 804  : 		return( reinterpret_cast< CStringData* >( m_pszData )-1 );

  0000e	8b 07		 mov	 eax, DWORD PTR [edi]

; 443  : 		if( pOldData->nDataLength == 0 )

  00010	83 78 f4 00	 cmp	 DWORD PTR [eax-12], 0

; 804  : 		return( reinterpret_cast< CStringData* >( m_pszData )-1 );

  00014	8d 50 f0	 lea	 edx, DWORD PTR [eax-16]

; 442  : 		IAtlStringMgr* pStringMgr = pOldData->pStringMgr;

  00017	8b 32		 mov	 esi, DWORD PTR [edx]

; 443  : 		if( pOldData->nDataLength == 0 )

  00019	74 1f		 je	 SHORT $LN72@SetString

; 73   : 		return nRefs < 0;

  0001b	83 7a 0c 00	 cmp	 DWORD PTR [edx+12], 0
  0001f	8d 4a 0c	 lea	 ecx, DWORD PTR [edx+12]

; 448  : 		if( pOldData->IsLocked() )

  00022	7d 1c		 jge	 SHORT $LN10@SetString

; 875  : 		if( nLength < 0 || nLength > GetData()->nAllocLength)

  00024	83 78 f8 00	 cmp	 DWORD PTR [eax-8], 0
  00028	0f 8c 0b 01 00
	00		 jl	 $LN71@SetString

; 877  : 
; 878  : 		GetData()->nDataLength = nLength;

  0002e	c7 40 f4 00 00
	00 00		 mov	 DWORD PTR [eax-12], 0

; 879  : 		m_pszData[nLength] = 0;

  00035	8b 07		 mov	 eax, DWORD PTR [edi]
  00037	c6 00 00	 mov	 BYTE PTR [eax], 0
$LN72@SetString:
  0003a	5f		 pop	 edi

; 638  : 			else
; 639  : 			{
; 640  : 				memcpy_s( pszBuffer, GetAllocLength() * sizeof( XCHAR ), pszSrc, nLength * sizeof( XCHAR ));
; 641  : 			}
; 642  : 			ReleaseBufferSetLength( nLength );
; 643  : 		}
; 644  : 	}

  0003b	5e		 pop	 esi
  0003c	5d		 pop	 ebp
  0003d	c2 08 00	 ret	 8
$LN10@SetString:

; 92   : 		if( _InterlockedDecrement( &nRefs ) <= 0 )

  00040	83 c8 ff	 or	 eax, -1
  00043	f0 0f c1 01	 lock	  xadd	 DWORD PTR [ecx], eax
  00047	48		 dec	 eax
  00048	85 c0		 test	 eax, eax
  0004a	7f 08		 jg	 SHORT $LN27@SetString

; 93   : 		{
; 94   : 			pStringMgr->Free( this );

  0004c	8b 0a		 mov	 ecx, DWORD PTR [edx]
  0004e	52		 push	 edx
  0004f	8b 01		 mov	 eax, DWORD PTR [ecx]
  00051	ff 50 04	 call	 DWORD PTR [eax+4]
$LN27@SetString:

; 456  : 			CStringData* pNewData = pStringMgr->GetNilString();

  00054	8b 06		 mov	 eax, DWORD PTR [esi]
  00056	8b ce		 mov	 ecx, esi
  00058	ff 50 0c	 call	 DWORD PTR [eax+12]

; 457  : 			Attach( pNewData );

  0005b	83 c0 10	 add	 eax, 16			; 00000010H
  0005e	89 07		 mov	 DWORD PTR [edi], eax
  00060	5f		 pop	 edi

; 638  : 			else
; 639  : 			{
; 640  : 				memcpy_s( pszBuffer, GetAllocLength() * sizeof( XCHAR ), pszSrc, nLength * sizeof( XCHAR ));
; 641  : 			}
; 642  : 			ReleaseBufferSetLength( nLength );
; 643  : 		}
; 644  : 	}

  00061	5e		 pop	 esi
  00062	5d		 pop	 ebp
  00063	c2 08 00	 ret	 8
$LN2@SetString:
  00066	53		 push	 ebx

; 613  : 		{
; 614  : 			Empty();
; 615  : 		}
; 616  : 		else
; 617  : 		{
; 618  : 			// It is possible that pszSrc points to a location inside of our
; 619  : 			// buffer.  GetBuffer() might change m_pszData if (1) the buffer
; 620  : 			// is shared or (2) the buffer is too small to hold the new
; 621  : 			// string.  We detect this aliasing, and modify pszSrc to point
; 622  : 			// into the newly allocated buffer instead.
; 623  : 
; 624  : 			if(pszSrc == NULL)

  00067	8b 5d 08	 mov	 ebx, DWORD PTR _pszSrc$[ebp]
  0006a	85 db		 test	 ebx, ebx
  0006c	0f 84 c7 00 00
	00		 je	 $LN71@SetString

; 523  : 		return( GetData()->nDataLength );

  00072	8b 07		 mov	 eax, DWORD PTR [edi]

; 625  : 				AtlThrow(E_INVALIDARG);
; 626  : 
; 627  : 			UINT nOldLength = GetLength();
; 628  : 			UINT_PTR nOffset = pszSrc-GetString();

  00074	8b d3		 mov	 edx, ebx
  00076	2b d0		 sub	 edx, eax
  00078	89 55 0c	 mov	 DWORD PTR _nOffset$1$[ebp], edx
  0007b	8b 48 f4	 mov	 ecx, DWORD PTR [eax-12]
  0007e	89 4d 08	 mov	 DWORD PTR _nOldLength$1$[ebp], ecx

; 808  : 		if (nLength < 0)

  00081	85 f6		 test	 esi, esi
  00083	0f 88 b0 00 00
	00		 js	 $LN71@SetString

; 809  : 			AtlThrow(E_INVALIDARG);
; 810  : 
; 811  : 		CStringData* pOldData = GetData();
; 812  : 		int nShared = 1-pOldData->nRefs;  // nShared < 0 means true, >= 0 means false

  00089	b9 01 00 00 00	 mov	 ecx, 1
  0008e	2b 48 fc	 sub	 ecx, DWORD PTR [eax-4]

; 813  : 		int nTooShort = pOldData->nAllocLength-nLength;  // nTooShort < 0 means true, >= 0 means false

  00091	8b 40 f8	 mov	 eax, DWORD PTR [eax-8]
  00094	2b c6		 sub	 eax, esi

; 814  : 		if( (nShared|nTooShort) < 0 )  // If either sign bit is set (i.e. either is less than zero), we need to copy data

  00096	0b c8		 or	 ecx, eax
  00098	7d 0b		 jge	 SHORT $LN38@SetString

; 815  : 		{
; 816  : 			PrepareWrite2( nLength );

  0009a	56		 push	 esi
  0009b	8b cf		 mov	 ecx, edi
  0009d	e8 00 00 00 00	 call	 ?PrepareWrite2@?$CSimpleStringT@D$0A@@ATL@@AAEXH@Z ; ATL::CSimpleStringT<char,0>::PrepareWrite2
  000a2	8b 55 0c	 mov	 edx, DWORD PTR _nOffset$1$[ebp]
$LN38@SetString:

; 629  : 			// If 0 <= nOffset <= nOldLength, then pszSrc points into our
; 630  : 			// buffer
; 631  : 
; 632  : 			PXSTR pszBuffer = GetBuffer( nLength );

  000a5	8b 07		 mov	 eax, DWORD PTR [edi]
  000a7	8b 48 f8	 mov	 ecx, DWORD PTR [eax-8]

; 633  : 			if( nOffset <= nOldLength )

  000aa	3b 55 08	 cmp	 edx, DWORD PTR _nOldLength$1$[ebp]
  000ad	77 35		 ja	 SHORT $LN5@SetString

; 634  : 			{
; 635  : 				CopyCharsOverlapped( pszBuffer, GetAllocLength(),

  000af	03 d0		 add	 edx, eax
; File C:\Program Files (x86)\Windows Kits\10\Include\10.0.26100.0\ucrt\corecrt_memcpy_s.h

; 81   :         _CRT_MEMCPY_S_VALIDATE_RETURN_ERRCODE(_Destination != NULL,            EINVAL);

  000b1	85 c0		 test	 eax, eax
  000b3	75 0d		 jne	 SHORT $LN51@SetString
  000b5	e8 00 00 00 00	 call	 __errno
  000ba	c7 00 16 00 00
	00		 mov	 DWORD PTR [eax], 22	; 00000016H
  000c0	eb 5b		 jmp	 SHORT $LN97@SetString
$LN51@SetString:

; 82   :         _CRT_MEMCPY_S_VALIDATE_RETURN_ERRCODE(_Source != NULL,                 EINVAL);

  000c2	85 d2		 test	 edx, edx
  000c4	75 0d		 jne	 SHORT $LN52@SetString
  000c6	e8 00 00 00 00	 call	 __errno
  000cb	c7 00 16 00 00
	00		 mov	 DWORD PTR [eax], 22	; 00000016H
  000d1	eb 4a		 jmp	 SHORT $LN97@SetString
$LN52@SetString:

; 83   :         _CRT_MEMCPY_S_VALIDATE_RETURN_ERRCODE(_DestinationSize >= _SourceSize, ERANGE);

  000d3	3b ce		 cmp	 ecx, esi
  000d5	72 3b		 jb	 SHORT $LN98@SetString

; 84   : 
; 85   :         memmove(_Destination, _Source, _SourceSize);

  000d7	56		 push	 esi
  000d8	52		 push	 edx
  000d9	50		 push	 eax
  000da	e8 00 00 00 00	 call	 _memmove
  000df	83 c4 0c	 add	 esp, 12			; 0000000cH
; File C:\Program Files\Microsoft Visual Studio\2022\Professional\VC\Tools\MSVC\14.44.35207\atlmfc\include\atlsimpstr.h

; 637  : 			}

  000e2	eb 3e		 jmp	 SHORT $LN65@SetString
$LN5@SetString:
; File C:\Program Files (x86)\Windows Kits\10\Include\10.0.26100.0\ucrt\corecrt_memcpy_s.h

; 52   :         _CRT_MEMCPY_S_VALIDATE_RETURN_ERRCODE(_Destination != NULL, EINVAL);

  000e4	85 c0		 test	 eax, eax
  000e6	75 0d		 jne	 SHORT $LN61@SetString
  000e8	e8 00 00 00 00	 call	 __errno
  000ed	c7 00 16 00 00
	00		 mov	 DWORD PTR [eax], 22	; 00000016H
  000f3	eb 28		 jmp	 SHORT $LN97@SetString
$LN61@SetString:

; 53   :         if (_Source == NULL || _DestinationSize < _SourceSize)

  000f5	3b ce		 cmp	 ecx, esi
  000f7	72 0d		 jb	 SHORT $LN63@SetString

; 56   : 
; 57   :             _CRT_MEMCPY_S_VALIDATE_RETURN_ERRCODE(_Source != NULL,                 EINVAL);
; 58   :             _CRT_MEMCPY_S_VALIDATE_RETURN_ERRCODE(_DestinationSize >= _SourceSize, ERANGE);
; 59   : 
; 60   :             // Unreachable, but required to suppress /analyze warnings:
; 61   :             return EINVAL;
; 62   :         }
; 63   :         memcpy(_Destination, _Source, _SourceSize);

  000f9	56		 push	 esi
  000fa	53		 push	 ebx
  000fb	50		 push	 eax
  000fc	e8 00 00 00 00	 call	 _memcpy
  00101	83 c4 0c	 add	 esp, 12			; 0000000cH
  00104	eb 1c		 jmp	 SHORT $LN65@SetString
$LN63@SetString:

; 54   :         {
; 55   :             memset(_Destination, 0, _DestinationSize);

  00106	51		 push	 ecx
  00107	6a 00		 push	 0
  00109	50		 push	 eax
  0010a	e8 00 00 00 00	 call	 _memset
  0010f	83 c4 0c	 add	 esp, 12			; 0000000cH
$LN98@SetString:
; File C:\Program Files\Microsoft Visual Studio\2022\Professional\VC\Tools\MSVC\14.44.35207\atlmfc\include\atlsimpstr.h

; 875  : 		if( nLength < 0 || nLength > GetData()->nAllocLength)

  00112	e8 00 00 00 00	 call	 __errno
  00117	c7 00 22 00 00
	00		 mov	 DWORD PTR [eax], 34	; 00000022H
$LN97@SetString:
  0011d	e8 00 00 00 00	 call	 __invalid_parameter_noinfo
$LN65@SetString:
  00122	8b 07		 mov	 eax, DWORD PTR [edi]
  00124	5b		 pop	 ebx
  00125	3b 70 f8	 cmp	 esi, DWORD PTR [eax-8]
  00128	7f 0f		 jg	 SHORT $LN71@SetString

; 877  : 
; 878  : 		GetData()->nDataLength = nLength;

  0012a	89 70 f4	 mov	 DWORD PTR [eax-12], esi

; 879  : 		m_pszData[nLength] = 0;

  0012d	8b 07		 mov	 eax, DWORD PTR [edi]
  0012f	5f		 pop	 edi
  00130	c6 04 06 00	 mov	 BYTE PTR [esi+eax], 0

; 638  : 			else
; 639  : 			{
; 640  : 				memcpy_s( pszBuffer, GetAllocLength() * sizeof( XCHAR ), pszSrc, nLength * sizeof( XCHAR ));
; 641  : 			}
; 642  : 			ReleaseBufferSetLength( nLength );
; 643  : 		}
; 644  : 	}

  00134	5e		 pop	 esi
  00135	5d		 pop	 ebp
  00136	c2 08 00	 ret	 8
$LN71@SetString:

; 876  : 			AtlThrow(E_INVALIDARG);

  00139	68 57 00 07 80	 push	 -2147024809		; 80070057H
  0013e	e8 00 00 00 00	 call	 ?AtlThrowImpl@ATL@@YGXJ@Z ; ATL::AtlThrowImpl
$LN96@SetString:
  00143	cc		 int	 3
?SetString@?$CSimpleStringT@D$0A@@ATL@@QAEXPBDH@Z ENDP	; ATL::CSimpleStringT<char,0>::SetString
_TEXT	ENDS
; Function compile flags: /Ogtp
; File C:\Program Files\Microsoft Visual Studio\2022\Professional\VC\Tools\MSVC\14.44.35207\atlmfc\include\atlsimpstr.h
;	COMDAT ??1?$CSimpleStringT@D$0A@@ATL@@QAE@XZ
_TEXT	SEGMENT
??1?$CSimpleStringT@D$0A@@ATL@@QAE@XZ PROC		; ATL::CSimpleStringT<char,0>::~CSimpleStringT<char,0>, COMDAT
; _this$ = ecx

; 804  : 		return( reinterpret_cast< CStringData* >( m_pszData )-1 );

  00000	8b 11		 mov	 edx, DWORD PTR [ecx]

; 92   : 		if( _InterlockedDecrement( &nRefs ) <= 0 )

  00002	83 c8 ff	 or	 eax, -1

; 804  : 		return( reinterpret_cast< CStringData* >( m_pszData )-1 );

  00005	83 ea 10	 sub	 edx, 16			; 00000010H

; 92   : 		if( _InterlockedDecrement( &nRefs ) <= 0 )

  00008	f0 0f c1 42 0c	 lock	  xadd	 DWORD PTR [edx+12], eax
  0000d	48		 dec	 eax
  0000e	85 c0		 test	 eax, eax
  00010	7f 08		 jg	 SHORT $LN6@CSimpleStr

; 93   : 		{
; 94   : 			pStringMgr->Free( this );

  00012	8b 0a		 mov	 ecx, DWORD PTR [edx]
  00014	52		 push	 edx
  00015	8b 01		 mov	 eax, DWORD PTR [ecx]
  00017	ff 50 04	 call	 DWORD PTR [eax+4]
$LN6@CSimpleStr:

; 265  : 		CStringData* pData = GetData();
; 266  : 		pData->Release();
; 267  : 	}

  0001a	c3		 ret	 0
??1?$CSimpleStringT@D$0A@@ATL@@QAE@XZ ENDP		; ATL::CSimpleStringT<char,0>::~CSimpleStringT<char,0>
_TEXT	ENDS
; Function compile flags: /Ogtp
; File C:\Program Files\Microsoft Visual Studio\2022\Professional\VC\Tools\MSVC\14.44.35207\atlmfc\include\atlexcept.h
;	COMDAT ?AtlThrowImpl@ATL@@YGXJ@Z
_TEXT	SEGMENT
_hr$ = 8						; size = 4
?AtlThrowImpl@ATL@@YGXJ@Z PROC				; ATL::AtlThrowImpl, COMDAT

; 69   : {

  00000	55		 push	 ebp
  00001	8b ec		 mov	 ebp, esp

; 70   : 	ATLTRACE(atlTraceException, 0, _T("AtlThrow: hr = 0x%x\n"), hr );
; 71   : #ifdef _AFX
; 72   : 	if( hr == E_OUTOFMEMORY )

  00003	8b 45 08	 mov	 eax, DWORD PTR _hr$[ebp]
  00006	3d 0e 00 07 80	 cmp	 eax, -2147024882	; 8007000eH
  0000b	75 05		 jne	 SHORT $LN2@AtlThrowIm

; 73   : 	{
; 74   : 		AfxThrowMemoryException();

  0000d	e8 00 00 00 00	 call	 ?AfxThrowMemoryException@@YGXXZ ; AfxThrowMemoryException
$LN2@AtlThrowIm:

; 75   : 	}
; 76   : 	else
; 77   : 	{
; 78   : 		AfxThrowOleException( hr );

  00012	50		 push	 eax
  00013	e8 00 00 00 00	 call	 ?AfxThrowOleException@@YGXJ@Z ; AfxThrowOleException
$LN5@AtlThrowIm:
  00018	cc		 int	 3
?AtlThrowImpl@ATL@@YGXJ@Z ENDP				; ATL::AtlThrowImpl
_TEXT	ENDS
; Function compile flags: /Ogtp
; File C:\Program Files (x86)\Windows Kits\10\Include\10.0.26100.0\ucrt\corecrt_stdio_config.h
;	COMDAT ___local_stdio_printf_options
_TEXT	SEGMENT
___local_stdio_printf_options PROC			; COMDAT

; 91   :         static unsigned __int64 _OptionsStorage;
; 92   :         return &_OptionsStorage;

  00000	b8 00 00 00 00	 mov	 eax, OFFSET ?_OptionsStorage@?1??__local_stdio_printf_options@@9@4_KA ; `__local_stdio_printf_options'::`2'::_OptionsStorage

; 93   :     }

  00005	c3		 ret	 0
___local_stdio_printf_options ENDP
_TEXT	ENDS
; Function compile flags: /Ogtp
; File C:\IAGOS\server\v18\Source\Source\_Common\Colosseum.cpp
;	COMDAT ?__empty_global_delete@@YAXPAXI@Z
_TEXT	SEGMENT
___formal$ = 8						; size = 4
___formal$ = 12						; size = 4
?__empty_global_delete@@YAXPAXI@Z PROC			; __empty_global_delete, COMDAT

  00000	c2 00 00	 ret	 0
?__empty_global_delete@@YAXPAXI@Z ENDP			; __empty_global_delete
_TEXT	ENDS
; Function compile flags: /Ogtp
; File C:\IAGOS\server\v18\Source\Source\_Common\Colosseum.cpp
;	COMDAT ?__empty_global_delete@@YAXPAX@Z
_TEXT	SEGMENT
___formal$ = 8						; size = 4
?__empty_global_delete@@YAXPAX@Z PROC			; __empty_global_delete, COMDAT

  00000	c2 00 00	 ret	 0
?__empty_global_delete@@YAXPAX@Z ENDP			; __empty_global_delete
_TEXT	ENDS
END
