; Listing generated by Microsoft (R) Optimizing Compiler Version 19.44.35225.0 

	TITLE	C:\IAGOS\server\v18\Source\Output\WorldServer\Release\Continent.obj
	.686P
	.XMM
	include listing.inc
	.model	flat

INCLUDELIB LIBCMT
INCLUDELIB OLDNAMES

PUBLIC	?__empty_global_delete@@YAXPAX@Z		; __empty_global_delete
PUBLIC	?__empty_global_delete@@YAXPAXI@Z		; __empty_global_delete
PUBLIC	?AtlThrowImpl@ATL@@YGXJ@Z			; ATL::AtlThrowImpl
PUBLIC	??1?$CSimpleStringT@D$0A@@ATL@@QAE@XZ		; ATL::CSimpleStringT<char,0>::~CSimpleStringT<char,0>
PUBLIC	?SetString@?$CSimpleStringT@D$0A@@ATL@@QAEXPBDH@Z ; ATL::CSimpleStringT<char,0>::SetString
PUBLIC	?ThrowMemoryException@?$CSimpleStringT@D$0A@@ATL@@KAXXZ ; ATL::CSimpleStringT<char,0>::ThrowMemoryException
PUBLIC	?Fork@?$CSimpleStringT@D$0A@@ATL@@AAEXH@Z	; ATL::CSimpleStringT<char,0>::Fork
PUBLIC	?PrepareWrite2@?$CSimpleStringT@D$0A@@ATL@@AAEXH@Z ; ATL::CSimpleStringT<char,0>::PrepareWrite2
PUBLIC	?Reallocate@?$CSimpleStringT@D$0A@@ATL@@AAEXH@Z	; ATL::CSimpleStringT<char,0>::Reallocate
PUBLIC	??1?$CStringT@DV?$StrTraitMFC@DV?$ChTraitsCRT@D@ATL@@@@@ATL@@QAE@XZ ; ATL::CStringT<char,StrTraitMFC<char,ATL::ChTraitsCRT<char> > >::~CStringT<char,StrTraitMFC<char,ATL::ChTraitsCRT<char> > >
PUBLIC	?LoadStringA@?$CStringT@DV?$StrTraitMFC@DV?$ChTraitsCRT@D@ATL@@@@@ATL@@QAEHI@Z ; ATL::CStringT<char,StrTraitMFC<char,ATL::ChTraitsCRT<char> > >::LoadStringA
PUBLIC	??HATL@@YA?AV?$CStringT@DV?$StrTraitMFC@DV?$ChTraitsCRT@D@ATL@@@@@0@ABV10@0@Z ; ATL::operator+
PUBLIC	??0exception@std@@QAE@ABV01@@Z			; std::exception::exception
PUBLIC	??1exception@std@@UAE@XZ			; std::exception::~exception
PUBLIC	?what@exception@std@@UBEPBDXZ			; std::exception::what
PUBLIC	??_Gexception@std@@UAEPAXI@Z			; std::exception::`scalar deleting destructor'
PUBLIC	??0bad_alloc@std@@QAE@ABV01@@Z			; std::bad_alloc::bad_alloc
PUBLIC	??_Gbad_alloc@std@@UAEPAXI@Z			; std::bad_alloc::`scalar deleting destructor'
PUBLIC	??0bad_array_new_length@std@@QAE@XZ		; std::bad_array_new_length::bad_array_new_length
PUBLIC	??1bad_array_new_length@std@@UAE@XZ		; std::bad_array_new_length::~bad_array_new_length
PUBLIC	??0bad_array_new_length@std@@QAE@ABV01@@Z	; std::bad_array_new_length::bad_array_new_length
PUBLIC	??_Gbad_array_new_length@std@@UAEPAXI@Z		; std::bad_array_new_length::`scalar deleting destructor'
PUBLIC	?_Throw_bad_array_new_length@std@@YAXXZ		; std::_Throw_bad_array_new_length
PUBLIC	?_Throw_tree_length_error@std@@YAXXZ		; std::_Throw_tree_length_error
PUBLIC	??0D3DXVECTOR3@@QAE@XZ				; D3DXVECTOR3::D3DXVECTOR3
PUBLIC	?GetText@CProject@@QAEPBDK@Z			; CProject::GetText
PUBLIC	??$_Allocate_manually_vector_aligned@U_Default_allocate_traits@std@@@std@@YAPAXI@Z ; std::_Allocate_manually_vector_aligned<std::_Default_allocate_traits>
PUBLIC	??0CContinent@@QAE@XZ				; CContinent::CContinent
PUBLIC	??1CContinent@@UAE@XZ				; CContinent::~CContinent
PUBLIC	?GetInstance@CContinent@@SAPAV1@XZ		; CContinent::GetInstance
PUBLIC	?GetContinent@CContinent@@QAEEPAVCMover@@@Z	; CContinent::GetContinent
PUBLIC	?GetArea@CContinent@@QAEEPAVCMover@@@Z		; CContinent::GetArea
PUBLIC	?IsValidObj@CContinent@@SAHPAVCMover@@@Z	; CContinent::IsValidObj
PUBLIC	?GetContinentName@CContinent@@QAE?AV?$CStringT@DV?$StrTraitMFC@DV?$ChTraitsCRT@D@ATL@@@@@ATL@@E@Z ; CContinent::GetContinentName
PUBLIC	?GetRevivalPos@CContinent@@QAE?AUD3DXVECTOR3@@E@Z ; CContinent::GetRevivalPos
PUBLIC	?GetContinentIndex@CContinent@@QAEHPBD@Z	; CContinent::GetContinentIndex
PUBLIC	?GetContinent@CContinent@@QAEEABUD3DXVECTOR3@@@Z ; CContinent::GetContinent
PUBLIC	?GetArea@CContinent@@AAEEE@Z			; CContinent::GetArea
PUBLIC	?Init@CContinent@@AAEXXZ			; CContinent::Init
PUBLIC	?Point_In_Poly@CContinent@@AAEHV?$vector@VCPoint@@V?$allocator@VCPoint@@@std@@@std@@VCPoint@@@Z ; CContinent::Point_In_Poly
PUBLIC	?_Insert_node@?$_Tree_val@U?$_Tree_simple_types@U?$pair@$$CBEV?$vector@VCPoint@@V?$allocator@VCPoint@@@std@@@std@@@std@@@std@@@std@@QAEPAU?$_Tree_node@U?$pair@$$CBEV?$vector@VCPoint@@V?$allocator@VCPoint@@@std@@@std@@@std@@PAX@2@U?$_Tree_id@PAU?$_Tree_node@U?$pair@$$CBEV?$vector@VCPoint@@V?$allocator@VCPoint@@@std@@@std@@@std@@PAX@std@@@2@QAU32@@Z ; std::_Tree_val<std::_Tree_simple_types<std::pair<unsigned char const ,std::vector<CPoint,std::allocator<CPoint> > > > >::_Insert_node
PUBLIC	??1?$map@EV?$vector@VCPoint@@V?$allocator@VCPoint@@@std@@@std@@U?$less@E@2@V?$allocator@U?$pair@$$CBEV?$vector@VCPoint@@V?$allocator@VCPoint@@@std@@@std@@@std@@@2@@std@@QAE@XZ ; std::map<unsigned char,std::vector<CPoint,std::allocator<CPoint> >,std::less<unsigned char>,std::allocator<std::pair<unsigned char const ,std::vector<CPoint,std::allocator<CPoint> > > > >::~map<unsigned char,std::vector<CPoint,std::allocator<CPoint> >,std::less<unsigned char>,std::allocator<std::pair<unsigned char const ,std::vector<CPoint,std::allocator<CPoint> > > > >
PUBLIC	?GetTown@CContinent@@QAEEABUD3DXVECTOR3@@@Z	; CContinent::GetTown
PUBLIC	??_GCContinent@@UAEPAXI@Z			; CContinent::`scalar deleting destructor'
PUBLIC	?deallocate@?$allocator@VCPoint@@@std@@QAEXQAVCPoint@@I@Z ; std::allocator<CPoint>::deallocate
PUBLIC	??1?$vector@VCPoint@@V?$allocator@VCPoint@@@std@@@std@@QAE@XZ ; std::vector<CPoint,std::allocator<CPoint> >::~vector<CPoint,std::allocator<CPoint> >
PUBLIC	?_Buy_raw@?$vector@VCPoint@@V?$allocator@VCPoint@@@std@@@std@@AAEXI@Z ; std::vector<CPoint,std::allocator<CPoint> >::_Buy_raw
PUBLIC	?_Tidy@?$vector@VCPoint@@V?$allocator@VCPoint@@@std@@@std@@AAEXXZ ; std::vector<CPoint,std::allocator<CPoint> >::_Tidy
PUBLIC	?_Xlength@?$vector@VCPoint@@V?$allocator@VCPoint@@@std@@@std@@CAXXZ ; std::vector<CPoint,std::allocator<CPoint> >::_Xlength
PUBLIC	??1?$pair@HV?$vector@VCPoint@@V?$allocator@VCPoint@@@std@@@std@@@std@@QAE@XZ ; std::pair<int,std::vector<CPoint,std::allocator<CPoint> > >::~pair<int,std::vector<CPoint,std::allocator<CPoint> > >
PUBLIC	??$insert@U?$pair@HV?$vector@VCPoint@@V?$allocator@VCPoint@@@std@@@std@@@std@@$0A@@?$map@EV?$vector@VCPoint@@V?$allocator@VCPoint@@@std@@@std@@U?$less@E@2@V?$allocator@U?$pair@$$CBEV?$vector@VCPoint@@V?$allocator@VCPoint@@@std@@@std@@@std@@@2@@std@@QAE?AU?$pair@V?$_Tree_iterator@V?$_Tree_val@U?$_Tree_simple_types@U?$pair@$$CBEV?$vector@VCPoint@@V?$allocator@VCPoint@@@std@@@std@@@std@@@std@@@std@@@std@@_N@1@$$QAU?$pair@HV?$vector@VCPoint@@V?$allocator@VCPoint@@@std@@@std@@@1@@Z ; std::map<unsigned char,std::vector<CPoint,std::allocator<CPoint> >,std::less<unsigned char>,std::allocator<std::pair<unsigned char const ,std::vector<CPoint,std::allocator<CPoint> > > > >::insert<std::pair<int,std::vector<CPoint,std::allocator<CPoint> > >,0>
PUBLIC	??$_Erase_tree@V?$allocator@U?$_Tree_node@U?$pair@$$CBEV?$vector@VCPoint@@V?$allocator@VCPoint@@@std@@@std@@@std@@PAX@std@@@std@@@?$_Tree_val@U?$_Tree_simple_types@U?$pair@$$CBEV?$vector@VCPoint@@V?$allocator@VCPoint@@@std@@@std@@@std@@@std@@@std@@QAEXAAV?$allocator@U?$_Tree_node@U?$pair@$$CBEV?$vector@VCPoint@@V?$allocator@VCPoint@@@std@@@std@@@std@@PAX@std@@@1@PAU?$_Tree_node@U?$pair@$$CBEV?$vector@VCPoint@@V?$allocator@VCPoint@@@std@@@std@@@std@@PAX@1@@Z ; std::_Tree_val<std::_Tree_simple_types<std::pair<unsigned char const ,std::vector<CPoint,std::allocator<CPoint> > > > >::_Erase_tree<std::allocator<std::_Tree_node<std::pair<unsigned char const ,std::vector<CPoint,std::allocator<CPoint> > >,void *> > >
PUBLIC	??$_Copy_memmove_n@PAVCPoint@@PAV1@@std@@YAPAVCPoint@@PAV1@I0@Z ; std::_Copy_memmove_n<CPoint *,CPoint *>
PUBLIC	??1?$_Alloc_construct_ptr@V?$allocator@U?$_Tree_node@U?$pair@$$CBEV?$vector@VCPoint@@V?$allocator@VCPoint@@@std@@@std@@@std@@PAX@std@@@std@@@std@@QAE@XZ ; std::_Alloc_construct_ptr<std::allocator<std::_Tree_node<std::pair<unsigned char const ,std::vector<CPoint,std::allocator<CPoint> > >,void *> > >::~_Alloc_construct_ptr<std::allocator<std::_Tree_node<std::pair<unsigned char const ,std::vector<CPoint,std::allocator<CPoint> > >,void *> > >
PUBLIC	??1?$_Tree_temp_node@V?$allocator@U?$_Tree_node@U?$pair@$$CBEV?$vector@VCPoint@@V?$allocator@VCPoint@@@std@@@std@@@std@@PAX@std@@@std@@@std@@QAE@XZ ; std::_Tree_temp_node<std::allocator<std::_Tree_node<std::pair<unsigned char const ,std::vector<CPoint,std::allocator<CPoint> > >,void *> > >::~_Tree_temp_node<std::allocator<std::_Tree_node<std::pair<unsigned char const ,std::vector<CPoint,std::allocator<CPoint> > >,void *> > >
PUBLIC	??$_Copy_memmove_tail@PAVCPoint@@@std@@YAPAVCPoint@@QBDQAV1@II@Z ; std::_Copy_memmove_tail<CPoint *>
PUBLIC	??$_Copy_memmove@PAVCPoint@@PAV1@@std@@YAPAVCPoint@@PAV1@00@Z ; std::_Copy_memmove<CPoint *,CPoint *>
PUBLIC	??_C@_00CNPNBAHC@@				; `string'
PUBLIC	??_7exception@std@@6B@				; std::exception::`vftable'
PUBLIC	??_C@_0BC@EOODALEL@Unknown?5exception@		; `string'
PUBLIC	??_7bad_alloc@std@@6B@				; std::bad_alloc::`vftable'
PUBLIC	??_7bad_array_new_length@std@@6B@		; std::bad_array_new_length::`vftable'
PUBLIC	??_C@_0BF@KINCDENJ@bad?5array?5new?5length@	; `string'
PUBLIC	??_R0?AVexception@std@@@8			; std::exception `RTTI Type Descriptor'
PUBLIC	__CT??_R0?AVexception@std@@@8??0exception@std@@QAE@ABV01@@Z12
PUBLIC	__TI3?AVbad_array_new_length@std@@
PUBLIC	__CTA3?AVbad_array_new_length@std@@
PUBLIC	??_R0?AVbad_array_new_length@std@@@8		; std::bad_array_new_length `RTTI Type Descriptor'
PUBLIC	__CT??_R0?AVbad_array_new_length@std@@@8??0bad_array_new_length@std@@QAE@ABV01@@Z12
PUBLIC	??_R0?AVbad_alloc@std@@@8			; std::bad_alloc `RTTI Type Descriptor'
PUBLIC	__CT??_R0?AVbad_alloc@std@@@8??0bad_alloc@std@@QAE@ABV01@@Z12
PUBLIC	??_C@_0BB@GCADKGJO@map?1set?5too?5long@		; `string'
PUBLIC	??_C@_0BM@HMFGHCP@?$CFs?5min?3?$CFd?0?5max?3?$CFd?0?5index?3?$CFd@ ; `string'
PUBLIC	??_C@_0BE@OHDBLHOM@GetText?5range_error@	; `string'
PUBLIC	??_C@_05KKCIMGE@error@				; `string'
PUBLIC	??_C@_0BA@FOIKENOD@vector?5too?5long@		; `string'
PUBLIC	??_R4exception@std@@6B@				; std::exception::`RTTI Complete Object Locator'
PUBLIC	??_R3exception@std@@8				; std::exception::`RTTI Class Hierarchy Descriptor'
PUBLIC	??_R2exception@std@@8				; std::exception::`RTTI Base Class Array'
PUBLIC	??_R1A@?0A@EA@exception@std@@8			; std::exception::`RTTI Base Class Descriptor at (0,-1,0,64)'
PUBLIC	??_R4bad_array_new_length@std@@6B@		; std::bad_array_new_length::`RTTI Complete Object Locator'
PUBLIC	??_R3bad_array_new_length@std@@8		; std::bad_array_new_length::`RTTI Class Hierarchy Descriptor'
PUBLIC	??_R2bad_array_new_length@std@@8		; std::bad_array_new_length::`RTTI Base Class Array'
PUBLIC	??_R1A@?0A@EA@bad_array_new_length@std@@8	; std::bad_array_new_length::`RTTI Base Class Descriptor at (0,-1,0,64)'
PUBLIC	??_R1A@?0A@EA@bad_alloc@std@@8			; std::bad_alloc::`RTTI Base Class Descriptor at (0,-1,0,64)'
PUBLIC	??_R3bad_alloc@std@@8				; std::bad_alloc::`RTTI Class Hierarchy Descriptor'
PUBLIC	??_R2bad_alloc@std@@8				; std::bad_alloc::`RTTI Base Class Array'
PUBLIC	??_R4bad_alloc@std@@6B@				; std::bad_alloc::`RTTI Complete Object Locator'
PUBLIC	??_7CContinent@@6B@				; CContinent::`vftable'
PUBLIC	??_C@_0L@KFPAPNMN@WdMadrigal@			; `string'
PUBLIC	??_C@_06NGHBMAIH@World?2@			; `string'
PUBLIC	??_C@_08HEFLNCGE@?4wld?4cnt@			; `string'
PUBLIC	??_C@_01KICIPPFI@?2@				; `string'
PUBLIC	??_C@_09DLHPOJLJ@Continent@			; `string'
PUBLIC	??_C@_05ILMMJGEC@BEGIN@				; `string'
PUBLIC	??_C@_03JMGAKCCH@END@				; `string'
PUBLIC	??_C@_04PDHHGLID@C_id@				; `string'
PUBLIC	??_C@_06HPIMPLPK@VERTEX@			; `string'
PUBLIC	??_C@_04DADAHDDM@TOWN@				; `string'
PUBLIC	??_C@_0O@EGCOAAKO@C_useRealData@		; `string'
PUBLIC	??_C@_06BMAOEDJD@Flaris@			; `string'
PUBLIC	??_C@_05CPEBJIKJ@Saint@				; `string'
PUBLIC	??_C@_05PBNOGAOL@Ricis@				; `string'
PUBLIC	??_C@_08JHEPJMJO@Darkon12@			; `string'
PUBLIC	??_C@_07GHKECFAJ@Darkon3@			; `string'
PUBLIC	??_C@_08NDIDOBMH@Harmonin@			; `string'
PUBLIC	??_C@_0M@OHPEKFLK@Estia_envir@			; `string'
PUBLIC	??_C@_05HAGHMCBO@Estia@				; `string'
PUBLIC	??_C@_06MLCICBFL@Darken@			; `string'
PUBLIC	??_C@_0O@JJLGFEMO@Flarinenosple@		; `string'
PUBLIC	??_C@_08FHABOGPM@Saincity@			; `string'
PUBLIC	??_C@_07GIGGNJIL@Kaillun@			; `string'
PUBLIC	??_C@_05KCAAALNE@Eliun@				; `string'
PUBLIC	??_C@_06HDOENCBM@Bahara@			; `string'
PUBLIC	??_C@_0L@NOHPMHGP@UpresiaEnt@			; `string'
PUBLIC	??_R4CContinent@@6B@				; CContinent::`RTTI Complete Object Locator'
PUBLIC	??_R0?AVCContinent@@@8				; CContinent `RTTI Type Descriptor'
PUBLIC	??_R3CContinent@@8				; CContinent::`RTTI Class Hierarchy Descriptor'
PUBLIC	??_R2CContinent@@8				; CContinent::`RTTI Base Class Array'
PUBLIC	??_R1A@?0A@EA@CContinent@@8			; CContinent::`RTTI Base Class Descriptor at (0,-1,0,64)'
EXTRN	??2@YAPAXI@Z:PROC				; operator new
EXTRN	??3@YAXPAXI@Z:PROC				; operator delete
EXTRN	_atexit:PROC
EXTRN	__Init_thread_header:PROC
EXTRN	__Init_thread_abort:PROC
EXTRN	__Init_thread_footer:PROC
EXTRN	__invalid_parameter_noinfo:PROC
EXTRN	__invoke_watson:PROC
EXTRN	__errno:PROC
EXTRN	__imp__LoadResource@8:PROC
EXTRN	__imp__LockResource@4:PROC
EXTRN	__imp__SizeofResource@8:PROC
EXTRN	__imp__FindResourceW@12:PROC
EXTRN	__imp__WideCharToMultiByte@32:PROC
EXTRN	__mbscmp:PROC
EXTRN	?AfxThrowMemoryException@@YGXXZ:PROC		; AfxThrowMemoryException
EXTRN	?AfxThrowOleException@@YGXJ@Z:PROC		; AfxThrowOleException
EXTRN	?AfxFindStringResourceHandle@@YGPAUHINSTANCE__@@I@Z:PROC ; AfxFindStringResourceHandle
EXTRN	?AfxGetStringManager@@YGPAUIAtlStringMgr@ATL@@XZ:PROC ; AfxGetStringManager
EXTRN	___std_exception_copy:PROC
EXTRN	___std_exception_destroy:PROC
EXTRN	??_Eexception@std@@UAEPAXI@Z:PROC		; std::exception::`vector deleting destructor'
EXTRN	??_Ebad_alloc@std@@UAEPAXI@Z:PROC		; std::bad_alloc::`vector deleting destructor'
EXTRN	??_Ebad_array_new_length@std@@UAEPAXI@Z:PROC	; std::bad_array_new_length::`vector deleting destructor'
EXTRN	?_Xlength_error@std@@YAXPBD@Z:PROC		; std::_Xlength_error
EXTRN	?MakePath@@YA?AV?$CStringT@DV?$StrTraitMFC@DV?$ChTraitsCRT@D@ATL@@@@@ATL@@PBD0@Z:PROC ; MakePath
EXTRN	?GetNumber@CScanner@@QAEHH@Z:PROC		; CScanner::GetNumber
EXTRN	?GetFloat@CScanner@@QAEMH@Z:PROC		; CScanner::GetFloat
EXTRN	??0CScript@@QAE@H@Z:PROC			; CScript::CScript
EXTRN	??1CScript@@UAE@XZ:PROC				; CScript::~CScript
EXTRN	?Load@CScript@@QAEHPBDHH@Z:PROC			; CScript::Load
EXTRN	?GetToken@CScript@@UAEHH@Z:PROC			; CScript::GetToken
EXTRN	?Error@@YAPBDPBDZZ:PROC				; Error
EXTRN	??_ECContinent@@UAEPAXI@Z:PROC			; CContinent::`vector deleting destructor'
EXTRN	@__security_check_cookie@4:PROC
EXTRN	__CxxThrowException@8:PROC
EXTRN	___CxxFrameHandler3:PROC
EXTRN	_memcpy:PROC
EXTRN	_memmove:PROC
EXTRN	_memset:PROC
EXTRN	__Init_thread_epoch:DWORD
EXTRN	??_7type_info@@6B@:QWORD			; type_info::`vftable'
EXTRN	?prj@@3VCProject@@A:BYTE			; prj
EXTRN	___security_cookie:DWORD
EXTRN	__fltused:DWORD
EXTRN	__tls_array:DWORD
EXTRN	__tls_index:DWORD
;	COMDAT ?sContinent@?1??GetInstance@CContinent@@SAPAV2@XZ@4V2@A
_BSS	SEGMENT
?sContinent@?1??GetInstance@CContinent@@SAPAV2@XZ@4V2@A DB 014H DUP (?) ; `CContinent::GetInstance'::`2'::sContinent
_BSS	ENDS
;	COMDAT ?$TSS0@?1??GetInstance@CContinent@@SAPAV2@XZ@4HA
_BSS	SEGMENT
?$TSS0@?1??GetInstance@CContinent@@SAPAV2@XZ@4HA DD 01H DUP (?) ; `CContinent::GetInstance'::`2'::$TSS0
_BSS	ENDS
;	COMDAT ??_R1A@?0A@EA@CContinent@@8
rdata$r	SEGMENT
??_R1A@?0A@EA@CContinent@@8 DD FLAT:??_R0?AVCContinent@@@8 ; CContinent::`RTTI Base Class Descriptor at (0,-1,0,64)'
	DD	00H
	DD	00H
	DD	0ffffffffH
	DD	00H
	DD	040H
	DD	FLAT:??_R3CContinent@@8
rdata$r	ENDS
;	COMDAT ??_R2CContinent@@8
rdata$r	SEGMENT
??_R2CContinent@@8 DD FLAT:??_R1A@?0A@EA@CContinent@@8	; CContinent::`RTTI Base Class Array'
rdata$r	ENDS
;	COMDAT ??_R3CContinent@@8
rdata$r	SEGMENT
??_R3CContinent@@8 DD 00H				; CContinent::`RTTI Class Hierarchy Descriptor'
	DD	00H
	DD	01H
	DD	FLAT:??_R2CContinent@@8
rdata$r	ENDS
;	COMDAT ??_R0?AVCContinent@@@8
data$rs	SEGMENT
??_R0?AVCContinent@@@8 DD FLAT:??_7type_info@@6B@	; CContinent `RTTI Type Descriptor'
	DD	00H
	DB	'.?AVCContinent@@', 00H
data$rs	ENDS
;	COMDAT ??_R4CContinent@@6B@
rdata$r	SEGMENT
??_R4CContinent@@6B@ DD 00H				; CContinent::`RTTI Complete Object Locator'
	DD	00H
	DD	00H
	DD	FLAT:??_R0?AVCContinent@@@8
	DD	FLAT:??_R3CContinent@@8
rdata$r	ENDS
;	COMDAT ??_C@_0L@NOHPMHGP@UpresiaEnt@
CONST	SEGMENT
??_C@_0L@NOHPMHGP@UpresiaEnt@ DB 'UpresiaEnt', 00H	; `string'
CONST	ENDS
;	COMDAT ??_C@_06HDOENCBM@Bahara@
CONST	SEGMENT
??_C@_06HDOENCBM@Bahara@ DB 'Bahara', 00H		; `string'
CONST	ENDS
;	COMDAT ??_C@_05KCAAALNE@Eliun@
CONST	SEGMENT
??_C@_05KCAAALNE@Eliun@ DB 'Eliun', 00H			; `string'
CONST	ENDS
;	COMDAT ??_C@_07GIGGNJIL@Kaillun@
CONST	SEGMENT
??_C@_07GIGGNJIL@Kaillun@ DB 'Kaillun', 00H		; `string'
CONST	ENDS
;	COMDAT ??_C@_08FHABOGPM@Saincity@
CONST	SEGMENT
??_C@_08FHABOGPM@Saincity@ DB 'Saincity', 00H		; `string'
CONST	ENDS
;	COMDAT ??_C@_0O@JJLGFEMO@Flarinenosple@
CONST	SEGMENT
??_C@_0O@JJLGFEMO@Flarinenosple@ DB 'Flarinenosple', 00H ; `string'
CONST	ENDS
;	COMDAT ??_C@_06MLCICBFL@Darken@
CONST	SEGMENT
??_C@_06MLCICBFL@Darken@ DB 'Darken', 00H		; `string'
CONST	ENDS
;	COMDAT ??_C@_05HAGHMCBO@Estia@
CONST	SEGMENT
??_C@_05HAGHMCBO@Estia@ DB 'Estia', 00H			; `string'
CONST	ENDS
;	COMDAT ??_C@_0M@OHPEKFLK@Estia_envir@
CONST	SEGMENT
??_C@_0M@OHPEKFLK@Estia_envir@ DB 'Estia_envir', 00H	; `string'
CONST	ENDS
;	COMDAT ??_C@_08NDIDOBMH@Harmonin@
CONST	SEGMENT
??_C@_08NDIDOBMH@Harmonin@ DB 'Harmonin', 00H		; `string'
CONST	ENDS
;	COMDAT ??_C@_07GHKECFAJ@Darkon3@
CONST	SEGMENT
??_C@_07GHKECFAJ@Darkon3@ DB 'Darkon3', 00H		; `string'
CONST	ENDS
;	COMDAT ??_C@_08JHEPJMJO@Darkon12@
CONST	SEGMENT
??_C@_08JHEPJMJO@Darkon12@ DB 'Darkon12', 00H		; `string'
CONST	ENDS
;	COMDAT ??_C@_05PBNOGAOL@Ricis@
CONST	SEGMENT
??_C@_05PBNOGAOL@Ricis@ DB 'Ricis', 00H			; `string'
CONST	ENDS
;	COMDAT ??_C@_05CPEBJIKJ@Saint@
CONST	SEGMENT
??_C@_05CPEBJIKJ@Saint@ DB 'Saint', 00H			; `string'
CONST	ENDS
;	COMDAT ??_C@_06BMAOEDJD@Flaris@
CONST	SEGMENT
??_C@_06BMAOEDJD@Flaris@ DB 'Flaris', 00H		; `string'
CONST	ENDS
;	COMDAT ??_C@_0O@EGCOAAKO@C_useRealData@
CONST	SEGMENT
??_C@_0O@EGCOAAKO@C_useRealData@ DB 'C_useRealData', 00H ; `string'
CONST	ENDS
;	COMDAT ??_C@_04DADAHDDM@TOWN@
CONST	SEGMENT
??_C@_04DADAHDDM@TOWN@ DB 'TOWN', 00H			; `string'
CONST	ENDS
;	COMDAT ??_C@_06HPIMPLPK@VERTEX@
CONST	SEGMENT
??_C@_06HPIMPLPK@VERTEX@ DB 'VERTEX', 00H		; `string'
CONST	ENDS
;	COMDAT ??_C@_04PDHHGLID@C_id@
CONST	SEGMENT
??_C@_04PDHHGLID@C_id@ DB 'C_id', 00H			; `string'
CONST	ENDS
;	COMDAT ??_C@_03JMGAKCCH@END@
CONST	SEGMENT
??_C@_03JMGAKCCH@END@ DB 'END', 00H			; `string'
CONST	ENDS
;	COMDAT ??_C@_05ILMMJGEC@BEGIN@
CONST	SEGMENT
??_C@_05ILMMJGEC@BEGIN@ DB 'BEGIN', 00H			; `string'
CONST	ENDS
;	COMDAT ??_C@_09DLHPOJLJ@Continent@
CONST	SEGMENT
??_C@_09DLHPOJLJ@Continent@ DB 'Continent', 00H		; `string'
CONST	ENDS
;	COMDAT ??_C@_01KICIPPFI@?2@
CONST	SEGMENT
??_C@_01KICIPPFI@?2@ DB '\', 00H			; `string'
CONST	ENDS
;	COMDAT ??_C@_08HEFLNCGE@?4wld?4cnt@
CONST	SEGMENT
??_C@_08HEFLNCGE@?4wld?4cnt@ DB '.wld.cnt', 00H		; `string'
CONST	ENDS
;	COMDAT ??_C@_06NGHBMAIH@World?2@
CONST	SEGMENT
??_C@_06NGHBMAIH@World?2@ DB 'World\', 00H		; `string'
CONST	ENDS
;	COMDAT ??_C@_0L@KFPAPNMN@WdMadrigal@
CONST	SEGMENT
??_C@_0L@KFPAPNMN@WdMadrigal@ DB 'WdMadrigal', 00H	; `string'
CONST	ENDS
;	COMDAT ??_7CContinent@@6B@
CONST	SEGMENT
??_7CContinent@@6B@ DD FLAT:??_R4CContinent@@6B@	; CContinent::`vftable'
	DD	FLAT:??_ECContinent@@UAEPAXI@Z
CONST	ENDS
;	COMDAT ??_R4bad_alloc@std@@6B@
rdata$r	SEGMENT
??_R4bad_alloc@std@@6B@ DD 00H				; std::bad_alloc::`RTTI Complete Object Locator'
	DD	00H
	DD	00H
	DD	FLAT:??_R0?AVbad_alloc@std@@@8
	DD	FLAT:??_R3bad_alloc@std@@8
rdata$r	ENDS
;	COMDAT ??_R2bad_alloc@std@@8
rdata$r	SEGMENT
??_R2bad_alloc@std@@8 DD FLAT:??_R1A@?0A@EA@bad_alloc@std@@8 ; std::bad_alloc::`RTTI Base Class Array'
	DD	FLAT:??_R1A@?0A@EA@exception@std@@8
rdata$r	ENDS
;	COMDAT ??_R3bad_alloc@std@@8
rdata$r	SEGMENT
??_R3bad_alloc@std@@8 DD 00H				; std::bad_alloc::`RTTI Class Hierarchy Descriptor'
	DD	00H
	DD	02H
	DD	FLAT:??_R2bad_alloc@std@@8
rdata$r	ENDS
;	COMDAT ??_R1A@?0A@EA@bad_alloc@std@@8
rdata$r	SEGMENT
??_R1A@?0A@EA@bad_alloc@std@@8 DD FLAT:??_R0?AVbad_alloc@std@@@8 ; std::bad_alloc::`RTTI Base Class Descriptor at (0,-1,0,64)'
	DD	01H
	DD	00H
	DD	0ffffffffH
	DD	00H
	DD	040H
	DD	FLAT:??_R3bad_alloc@std@@8
rdata$r	ENDS
;	COMDAT ??_R1A@?0A@EA@bad_array_new_length@std@@8
rdata$r	SEGMENT
??_R1A@?0A@EA@bad_array_new_length@std@@8 DD FLAT:??_R0?AVbad_array_new_length@std@@@8 ; std::bad_array_new_length::`RTTI Base Class Descriptor at (0,-1,0,64)'
	DD	02H
	DD	00H
	DD	0ffffffffH
	DD	00H
	DD	040H
	DD	FLAT:??_R3bad_array_new_length@std@@8
rdata$r	ENDS
;	COMDAT ??_R2bad_array_new_length@std@@8
rdata$r	SEGMENT
??_R2bad_array_new_length@std@@8 DD FLAT:??_R1A@?0A@EA@bad_array_new_length@std@@8 ; std::bad_array_new_length::`RTTI Base Class Array'
	DD	FLAT:??_R1A@?0A@EA@bad_alloc@std@@8
	DD	FLAT:??_R1A@?0A@EA@exception@std@@8
rdata$r	ENDS
;	COMDAT ??_R3bad_array_new_length@std@@8
rdata$r	SEGMENT
??_R3bad_array_new_length@std@@8 DD 00H			; std::bad_array_new_length::`RTTI Class Hierarchy Descriptor'
	DD	00H
	DD	03H
	DD	FLAT:??_R2bad_array_new_length@std@@8
rdata$r	ENDS
;	COMDAT ??_R4bad_array_new_length@std@@6B@
rdata$r	SEGMENT
??_R4bad_array_new_length@std@@6B@ DD 00H		; std::bad_array_new_length::`RTTI Complete Object Locator'
	DD	00H
	DD	00H
	DD	FLAT:??_R0?AVbad_array_new_length@std@@@8
	DD	FLAT:??_R3bad_array_new_length@std@@8
rdata$r	ENDS
;	COMDAT ??_R1A@?0A@EA@exception@std@@8
rdata$r	SEGMENT
??_R1A@?0A@EA@exception@std@@8 DD FLAT:??_R0?AVexception@std@@@8 ; std::exception::`RTTI Base Class Descriptor at (0,-1,0,64)'
	DD	00H
	DD	00H
	DD	0ffffffffH
	DD	00H
	DD	040H
	DD	FLAT:??_R3exception@std@@8
rdata$r	ENDS
;	COMDAT ??_R2exception@std@@8
rdata$r	SEGMENT
??_R2exception@std@@8 DD FLAT:??_R1A@?0A@EA@exception@std@@8 ; std::exception::`RTTI Base Class Array'
rdata$r	ENDS
;	COMDAT ??_R3exception@std@@8
rdata$r	SEGMENT
??_R3exception@std@@8 DD 00H				; std::exception::`RTTI Class Hierarchy Descriptor'
	DD	00H
	DD	01H
	DD	FLAT:??_R2exception@std@@8
rdata$r	ENDS
;	COMDAT ??_R4exception@std@@6B@
rdata$r	SEGMENT
??_R4exception@std@@6B@ DD 00H				; std::exception::`RTTI Complete Object Locator'
	DD	00H
	DD	00H
	DD	FLAT:??_R0?AVexception@std@@@8
	DD	FLAT:??_R3exception@std@@8
rdata$r	ENDS
;	COMDAT ??_C@_0BA@FOIKENOD@vector?5too?5long@
CONST	SEGMENT
??_C@_0BA@FOIKENOD@vector?5too?5long@ DB 'vector too long', 00H ; `string'
CONST	ENDS
;	COMDAT ??_C@_05KKCIMGE@error@
CONST	SEGMENT
??_C@_05KKCIMGE@error@ DB 'error', 00H			; `string'
CONST	ENDS
;	COMDAT ??_C@_0BE@OHDBLHOM@GetText?5range_error@
CONST	SEGMENT
??_C@_0BE@OHDBLHOM@GetText?5range_error@ DB 'GetText range_error', 00H ; `string'
CONST	ENDS
;	COMDAT ??_C@_0BM@HMFGHCP@?$CFs?5min?3?$CFd?0?5max?3?$CFd?0?5index?3?$CFd@
CONST	SEGMENT
??_C@_0BM@HMFGHCP@?$CFs?5min?3?$CFd?0?5max?3?$CFd?0?5index?3?$CFd@ DB '%s'
	DB	' min:%d, max:%d, index:%d', 00H		; `string'
CONST	ENDS
;	COMDAT ??_C@_0BB@GCADKGJO@map?1set?5too?5long@
CONST	SEGMENT
??_C@_0BB@GCADKGJO@map?1set?5too?5long@ DB 'map/set too long', 00H ; `string'
CONST	ENDS
;	COMDAT __CT??_R0?AVbad_alloc@std@@@8??0bad_alloc@std@@QAE@ABV01@@Z12
xdata$x	SEGMENT
__CT??_R0?AVbad_alloc@std@@@8??0bad_alloc@std@@QAE@ABV01@@Z12 DD 010H
	DD	FLAT:??_R0?AVbad_alloc@std@@@8
	DD	00H
	DD	0ffffffffH
	ORG $+4
	DD	0cH
	DD	FLAT:??0bad_alloc@std@@QAE@ABV01@@Z
xdata$x	ENDS
;	COMDAT ??_R0?AVbad_alloc@std@@@8
data$r	SEGMENT
??_R0?AVbad_alloc@std@@@8 DD FLAT:??_7type_info@@6B@	; std::bad_alloc `RTTI Type Descriptor'
	DD	00H
	DB	'.?AVbad_alloc@std@@', 00H
data$r	ENDS
;	COMDAT __CT??_R0?AVbad_array_new_length@std@@@8??0bad_array_new_length@std@@QAE@ABV01@@Z12
xdata$x	SEGMENT
__CT??_R0?AVbad_array_new_length@std@@@8??0bad_array_new_length@std@@QAE@ABV01@@Z12 DD 00H
	DD	FLAT:??_R0?AVbad_array_new_length@std@@@8
	DD	00H
	DD	0ffffffffH
	ORG $+4
	DD	0cH
	DD	FLAT:??0bad_array_new_length@std@@QAE@ABV01@@Z
xdata$x	ENDS
;	COMDAT ??_R0?AVbad_array_new_length@std@@@8
data$r	SEGMENT
??_R0?AVbad_array_new_length@std@@@8 DD FLAT:??_7type_info@@6B@ ; std::bad_array_new_length `RTTI Type Descriptor'
	DD	00H
	DB	'.?AVbad_array_new_length@std@@', 00H
data$r	ENDS
;	COMDAT __CTA3?AVbad_array_new_length@std@@
xdata$x	SEGMENT
__CTA3?AVbad_array_new_length@std@@ DD 03H
	DD	FLAT:__CT??_R0?AVbad_array_new_length@std@@@8??0bad_array_new_length@std@@QAE@ABV01@@Z12
	DD	FLAT:__CT??_R0?AVbad_alloc@std@@@8??0bad_alloc@std@@QAE@ABV01@@Z12
	DD	FLAT:__CT??_R0?AVexception@std@@@8??0exception@std@@QAE@ABV01@@Z12
xdata$x	ENDS
;	COMDAT __TI3?AVbad_array_new_length@std@@
xdata$x	SEGMENT
__TI3?AVbad_array_new_length@std@@ DD 00H
	DD	FLAT:??1bad_array_new_length@std@@UAE@XZ
	DD	00H
	DD	FLAT:__CTA3?AVbad_array_new_length@std@@
xdata$x	ENDS
;	COMDAT __CT??_R0?AVexception@std@@@8??0exception@std@@QAE@ABV01@@Z12
xdata$x	SEGMENT
__CT??_R0?AVexception@std@@@8??0exception@std@@QAE@ABV01@@Z12 DD 00H
	DD	FLAT:??_R0?AVexception@std@@@8
	DD	00H
	DD	0ffffffffH
	ORG $+4
	DD	0cH
	DD	FLAT:??0exception@std@@QAE@ABV01@@Z
xdata$x	ENDS
;	COMDAT ??_R0?AVexception@std@@@8
data$r	SEGMENT
??_R0?AVexception@std@@@8 DD FLAT:??_7type_info@@6B@	; std::exception `RTTI Type Descriptor'
	DD	00H
	DB	'.?AVexception@std@@', 00H
data$r	ENDS
;	COMDAT ??_C@_0BF@KINCDENJ@bad?5array?5new?5length@
CONST	SEGMENT
??_C@_0BF@KINCDENJ@bad?5array?5new?5length@ DB 'bad array new length', 00H ; `string'
CONST	ENDS
;	COMDAT ??_7bad_array_new_length@std@@6B@
CONST	SEGMENT
??_7bad_array_new_length@std@@6B@ DD FLAT:??_R4bad_array_new_length@std@@6B@ ; std::bad_array_new_length::`vftable'
	DD	FLAT:??_Ebad_array_new_length@std@@UAEPAXI@Z
	DD	FLAT:?what@exception@std@@UBEPBDXZ
CONST	ENDS
;	COMDAT ??_7bad_alloc@std@@6B@
CONST	SEGMENT
??_7bad_alloc@std@@6B@ DD FLAT:??_R4bad_alloc@std@@6B@	; std::bad_alloc::`vftable'
	DD	FLAT:??_Ebad_alloc@std@@UAEPAXI@Z
	DD	FLAT:?what@exception@std@@UBEPBDXZ
CONST	ENDS
;	COMDAT ??_C@_0BC@EOODALEL@Unknown?5exception@
CONST	SEGMENT
??_C@_0BC@EOODALEL@Unknown?5exception@ DB 'Unknown exception', 00H ; `string'
CONST	ENDS
;	COMDAT ??_7exception@std@@6B@
CONST	SEGMENT
??_7exception@std@@6B@ DD FLAT:??_R4exception@std@@6B@	; std::exception::`vftable'
	DD	FLAT:??_Eexception@std@@UAEPAXI@Z
	DD	FLAT:?what@exception@std@@UBEPBDXZ
CONST	ENDS
;	COMDAT ??_C@_00CNPNBAHC@@
CONST	SEGMENT
??_C@_00CNPNBAHC@@ DB 00H				; `string'
CONST	ENDS
;	COMDAT xdata$x
xdata$x	SEGMENT
__unwindtable$??$?0U?$pair@HV?$vector@VCPoint@@V?$allocator@VCPoint@@@std@@@std@@@std@@@?$_Tree_temp_node@V?$allocator@U?$_Tree_node@U?$pair@$$CBEV?$vector@VCPoint@@V?$allocator@VCPoint@@@std@@@std@@@std@@PAX@std@@@std@@@std@@QAE@AAV?$allocator@U?$_Tree_node@U?$pair@$$CBEV?$vector@VCPoint@@V?$allocator@VCPoint@@@std@@@std@@@std@@PAX@std@@@1@PAU?$_Tree_node@U?$pair@$$CBEV?$vector@VCPoint@@V?$allocator@VCPoint@@@std@@@std@@@std@@PAX@1@$$QAU?$pair@HV?$vector@VCPoint@@V?$allocator@VCPoint@@@std@@@std@@@1@@Z DD 0ffffffffH
	DD	FLAT:__unwindfunclet$??$?0U?$pair@HV?$vector@VCPoint@@V?$allocator@VCPoint@@@std@@@std@@@std@@@?$_Tree_temp_node@V?$allocator@U?$_Tree_node@U?$pair@$$CBEV?$vector@VCPoint@@V?$allocator@VCPoint@@@std@@@std@@@std@@PAX@std@@@std@@@std@@QAE@AAV?$allocator@U?$_Tree_node@U?$pair@$$CBEV?$vector@VCPoint@@V?$allocator@VCPoint@@@std@@@std@@@std@@PAX@std@@@1@PAU?$_Tree_node@U?$pair@$$CBEV?$vector@VCPoint@@V?$allocator@VCPoint@@@std@@@std@@@std@@PAX@1@$$QAU?$pair@HV?$vector@VCPoint@@V?$allocator@VCPoint@@@std@@@std@@@1@@Z$1
__ehfuncinfo$??$?0U?$pair@HV?$vector@VCPoint@@V?$allocator@VCPoint@@@std@@@std@@@std@@@?$_Tree_temp_node@V?$allocator@U?$_Tree_node@U?$pair@$$CBEV?$vector@VCPoint@@V?$allocator@VCPoint@@@std@@@std@@@std@@PAX@std@@@std@@@std@@QAE@AAV?$allocator@U?$_Tree_node@U?$pair@$$CBEV?$vector@VCPoint@@V?$allocator@VCPoint@@@std@@@std@@@std@@PAX@std@@@1@PAU?$_Tree_node@U?$pair@$$CBEV?$vector@VCPoint@@V?$allocator@VCPoint@@@std@@@std@@@std@@PAX@1@$$QAU?$pair@HV?$vector@VCPoint@@V?$allocator@VCPoint@@@std@@@std@@@1@@Z DD 019930522H
	DD	01H
	DD	FLAT:__unwindtable$??$?0U?$pair@HV?$vector@VCPoint@@V?$allocator@VCPoint@@@std@@@std@@@std@@@?$_Tree_temp_node@V?$allocator@U?$_Tree_node@U?$pair@$$CBEV?$vector@VCPoint@@V?$allocator@VCPoint@@@std@@@std@@@std@@PAX@std@@@std@@@std@@QAE@AAV?$allocator@U?$_Tree_node@U?$pair@$$CBEV?$vector@VCPoint@@V?$allocator@VCPoint@@@std@@@std@@@std@@PAX@std@@@1@PAU?$_Tree_node@U?$pair@$$CBEV?$vector@VCPoint@@V?$allocator@VCPoint@@@std@@@std@@@std@@PAX@1@$$QAU?$pair@HV?$vector@VCPoint@@V?$allocator@VCPoint@@@std@@@std@@@1@@Z
	DD	2 DUP(00H)
	DD	2 DUP(00H)
	DD	00H
	DD	01H
xdata$x	ENDS
;	COMDAT xdata$x
xdata$x	SEGMENT
__unwindtable$??0?$_Tree_temp_node_alloc@V?$allocator@U?$_Tree_node@U?$pair@$$CBEV?$vector@VCPoint@@V?$allocator@VCPoint@@@std@@@std@@@std@@PAX@std@@@std@@@std@@QAE@AAV?$allocator@U?$_Tree_node@U?$pair@$$CBEV?$vector@VCPoint@@V?$allocator@VCPoint@@@std@@@std@@@std@@PAX@std@@@1@@Z DD 0ffffffffH
	DD	FLAT:__unwindfunclet$??0?$_Tree_temp_node_alloc@V?$allocator@U?$_Tree_node@U?$pair@$$CBEV?$vector@VCPoint@@V?$allocator@VCPoint@@@std@@@std@@@std@@PAX@std@@@std@@@std@@QAE@AAV?$allocator@U?$_Tree_node@U?$pair@$$CBEV?$vector@VCPoint@@V?$allocator@VCPoint@@@std@@@std@@@std@@PAX@std@@@1@@Z$0
__ehfuncinfo$??0?$_Tree_temp_node_alloc@V?$allocator@U?$_Tree_node@U?$pair@$$CBEV?$vector@VCPoint@@V?$allocator@VCPoint@@@std@@@std@@@std@@PAX@std@@@std@@@std@@QAE@AAV?$allocator@U?$_Tree_node@U?$pair@$$CBEV?$vector@VCPoint@@V?$allocator@VCPoint@@@std@@@std@@@std@@PAX@std@@@1@@Z DD 019930522H
	DD	01H
	DD	FLAT:__unwindtable$??0?$_Tree_temp_node_alloc@V?$allocator@U?$_Tree_node@U?$pair@$$CBEV?$vector@VCPoint@@V?$allocator@VCPoint@@@std@@@std@@@std@@PAX@std@@@std@@@std@@QAE@AAV?$allocator@U?$_Tree_node@U?$pair@$$CBEV?$vector@VCPoint@@V?$allocator@VCPoint@@@std@@@std@@@std@@PAX@std@@@1@@Z
	DD	2 DUP(00H)
	DD	2 DUP(00H)
	DD	00H
	DD	01H
xdata$x	ENDS
;	COMDAT xdata$x
xdata$x	SEGMENT
__unwindtable$??$_Emplace@U?$pair@HV?$vector@VCPoint@@V?$allocator@VCPoint@@@std@@@std@@@std@@@?$_Tree@V?$_Tmap_traits@EV?$vector@VCPoint@@V?$allocator@VCPoint@@@std@@@std@@U?$less@E@2@V?$allocator@U?$pair@$$CBEV?$vector@VCPoint@@V?$allocator@VCPoint@@@std@@@std@@@std@@@2@$0A@@std@@@std@@IAE?AU?$pair@PAU?$_Tree_node@U?$pair@$$CBEV?$vector@VCPoint@@V?$allocator@VCPoint@@@std@@@std@@@std@@PAX@std@@_N@1@$$QAU?$pair@HV?$vector@VCPoint@@V?$allocator@VCPoint@@@std@@@std@@@1@@Z DD 0ffffffffH
	DD	FLAT:__unwindfunclet$??$_Emplace@U?$pair@HV?$vector@VCPoint@@V?$allocator@VCPoint@@@std@@@std@@@std@@@?$_Tree@V?$_Tmap_traits@EV?$vector@VCPoint@@V?$allocator@VCPoint@@@std@@@std@@U?$less@E@2@V?$allocator@U?$pair@$$CBEV?$vector@VCPoint@@V?$allocator@VCPoint@@@std@@@std@@@std@@@2@$0A@@std@@@std@@IAE?AU?$pair@PAU?$_Tree_node@U?$pair@$$CBEV?$vector@VCPoint@@V?$allocator@VCPoint@@@std@@@std@@@std@@PAX@std@@_N@1@$$QAU?$pair@HV?$vector@VCPoint@@V?$allocator@VCPoint@@@std@@@std@@@1@@Z$2
	DD	0ffffffffH
	DD	FLAT:__unwindfunclet$??$_Emplace@U?$pair@HV?$vector@VCPoint@@V?$allocator@VCPoint@@@std@@@std@@@std@@@?$_Tree@V?$_Tmap_traits@EV?$vector@VCPoint@@V?$allocator@VCPoint@@@std@@@std@@U?$less@E@2@V?$allocator@U?$pair@$$CBEV?$vector@VCPoint@@V?$allocator@VCPoint@@@std@@@std@@@std@@@2@$0A@@std@@@std@@IAE?AU?$pair@PAU?$_Tree_node@U?$pair@$$CBEV?$vector@VCPoint@@V?$allocator@VCPoint@@@std@@@std@@@std@@PAX@std@@_N@1@$$QAU?$pair@HV?$vector@VCPoint@@V?$allocator@VCPoint@@@std@@@std@@@1@@Z$0
__ehfuncinfo$??$_Emplace@U?$pair@HV?$vector@VCPoint@@V?$allocator@VCPoint@@@std@@@std@@@std@@@?$_Tree@V?$_Tmap_traits@EV?$vector@VCPoint@@V?$allocator@VCPoint@@@std@@@std@@U?$less@E@2@V?$allocator@U?$pair@$$CBEV?$vector@VCPoint@@V?$allocator@VCPoint@@@std@@@std@@@std@@@2@$0A@@std@@@std@@IAE?AU?$pair@PAU?$_Tree_node@U?$pair@$$CBEV?$vector@VCPoint@@V?$allocator@VCPoint@@@std@@@std@@@std@@PAX@std@@_N@1@$$QAU?$pair@HV?$vector@VCPoint@@V?$allocator@VCPoint@@@std@@@std@@@1@@Z DD 019930522H
	DD	02H
	DD	FLAT:__unwindtable$??$_Emplace@U?$pair@HV?$vector@VCPoint@@V?$allocator@VCPoint@@@std@@@std@@@std@@@?$_Tree@V?$_Tmap_traits@EV?$vector@VCPoint@@V?$allocator@VCPoint@@@std@@@std@@U?$less@E@2@V?$allocator@U?$pair@$$CBEV?$vector@VCPoint@@V?$allocator@VCPoint@@@std@@@std@@@std@@@2@$0A@@std@@@std@@IAE?AU?$pair@PAU?$_Tree_node@U?$pair@$$CBEV?$vector@VCPoint@@V?$allocator@VCPoint@@@std@@@std@@@std@@PAX@std@@_N@1@$$QAU?$pair@HV?$vector@VCPoint@@V?$allocator@VCPoint@@@std@@@std@@@1@@Z
	DD	2 DUP(00H)
	DD	2 DUP(00H)
	DD	00H
	DD	01H
xdata$x	ENDS
;	COMDAT xdata$x
xdata$x	SEGMENT
__unwindtable$??$emplace@U?$pair@HV?$vector@VCPoint@@V?$allocator@VCPoint@@@std@@@std@@@std@@@?$_Tree@V?$_Tmap_traits@EV?$vector@VCPoint@@V?$allocator@VCPoint@@@std@@@std@@U?$less@E@2@V?$allocator@U?$pair@$$CBEV?$vector@VCPoint@@V?$allocator@VCPoint@@@std@@@std@@@std@@@2@$0A@@std@@@std@@QAE?AU?$pair@V?$_Tree_iterator@V?$_Tree_val@U?$_Tree_simple_types@U?$pair@$$CBEV?$vector@VCPoint@@V?$allocator@VCPoint@@@std@@@std@@@std@@@std@@@std@@@std@@_N@1@$$QAU?$pair@HV?$vector@VCPoint@@V?$allocator@VCPoint@@@std@@@std@@@1@@Z DD 0ffffffffH
	DD	FLAT:__unwindfunclet$??$emplace@U?$pair@HV?$vector@VCPoint@@V?$allocator@VCPoint@@@std@@@std@@@std@@@?$_Tree@V?$_Tmap_traits@EV?$vector@VCPoint@@V?$allocator@VCPoint@@@std@@@std@@U?$less@E@2@V?$allocator@U?$pair@$$CBEV?$vector@VCPoint@@V?$allocator@VCPoint@@@std@@@std@@@std@@@2@$0A@@std@@@std@@QAE?AU?$pair@V?$_Tree_iterator@V?$_Tree_val@U?$_Tree_simple_types@U?$pair@$$CBEV?$vector@VCPoint@@V?$allocator@VCPoint@@@std@@@std@@@std@@@std@@@std@@@std@@_N@1@$$QAU?$pair@HV?$vector@VCPoint@@V?$allocator@VCPoint@@@std@@@std@@@1@@Z$2
	DD	0ffffffffH
	DD	FLAT:__unwindfunclet$??$emplace@U?$pair@HV?$vector@VCPoint@@V?$allocator@VCPoint@@@std@@@std@@@std@@@?$_Tree@V?$_Tmap_traits@EV?$vector@VCPoint@@V?$allocator@VCPoint@@@std@@@std@@U?$less@E@2@V?$allocator@U?$pair@$$CBEV?$vector@VCPoint@@V?$allocator@VCPoint@@@std@@@std@@@std@@@2@$0A@@std@@@std@@QAE?AU?$pair@V?$_Tree_iterator@V?$_Tree_val@U?$_Tree_simple_types@U?$pair@$$CBEV?$vector@VCPoint@@V?$allocator@VCPoint@@@std@@@std@@@std@@@std@@@std@@@std@@_N@1@$$QAU?$pair@HV?$vector@VCPoint@@V?$allocator@VCPoint@@@std@@@std@@@1@@Z$0
__ehfuncinfo$??$emplace@U?$pair@HV?$vector@VCPoint@@V?$allocator@VCPoint@@@std@@@std@@@std@@@?$_Tree@V?$_Tmap_traits@EV?$vector@VCPoint@@V?$allocator@VCPoint@@@std@@@std@@U?$less@E@2@V?$allocator@U?$pair@$$CBEV?$vector@VCPoint@@V?$allocator@VCPoint@@@std@@@std@@@std@@@2@$0A@@std@@@std@@QAE?AU?$pair@V?$_Tree_iterator@V?$_Tree_val@U?$_Tree_simple_types@U?$pair@$$CBEV?$vector@VCPoint@@V?$allocator@VCPoint@@@std@@@std@@@std@@@std@@@std@@@std@@_N@1@$$QAU?$pair@HV?$vector@VCPoint@@V?$allocator@VCPoint@@@std@@@std@@@1@@Z DD 019930522H
	DD	02H
	DD	FLAT:__unwindtable$??$emplace@U?$pair@HV?$vector@VCPoint@@V?$allocator@VCPoint@@@std@@@std@@@std@@@?$_Tree@V?$_Tmap_traits@EV?$vector@VCPoint@@V?$allocator@VCPoint@@@std@@@std@@U?$less@E@2@V?$allocator@U?$pair@$$CBEV?$vector@VCPoint@@V?$allocator@VCPoint@@@std@@@std@@@std@@@2@$0A@@std@@@std@@QAE?AU?$pair@V?$_Tree_iterator@V?$_Tree_val@U?$_Tree_simple_types@U?$pair@$$CBEV?$vector@VCPoint@@V?$allocator@VCPoint@@@std@@@std@@@std@@@std@@@std@@@std@@_N@1@$$QAU?$pair@HV?$vector@VCPoint@@V?$allocator@VCPoint@@@std@@@std@@@1@@Z
	DD	2 DUP(00H)
	DD	2 DUP(00H)
	DD	00H
	DD	01H
xdata$x	ENDS
;	COMDAT xdata$x
xdata$x	SEGMENT
__unwindtable$??$insert@U?$pair@HV?$vector@VCPoint@@V?$allocator@VCPoint@@@std@@@std@@@std@@$0A@@?$map@EV?$vector@VCPoint@@V?$allocator@VCPoint@@@std@@@std@@U?$less@E@2@V?$allocator@U?$pair@$$CBEV?$vector@VCPoint@@V?$allocator@VCPoint@@@std@@@std@@@std@@@2@@std@@QAE?AU?$pair@V?$_Tree_iterator@V?$_Tree_val@U?$_Tree_simple_types@U?$pair@$$CBEV?$vector@VCPoint@@V?$allocator@VCPoint@@@std@@@std@@@std@@@std@@@std@@@std@@_N@1@$$QAU?$pair@HV?$vector@VCPoint@@V?$allocator@VCPoint@@@std@@@std@@@1@@Z DD 0ffffffffH
	DD	FLAT:__unwindfunclet$??$insert@U?$pair@HV?$vector@VCPoint@@V?$allocator@VCPoint@@@std@@@std@@@std@@$0A@@?$map@EV?$vector@VCPoint@@V?$allocator@VCPoint@@@std@@@std@@U?$less@E@2@V?$allocator@U?$pair@$$CBEV?$vector@VCPoint@@V?$allocator@VCPoint@@@std@@@std@@@std@@@2@@std@@QAE?AU?$pair@V?$_Tree_iterator@V?$_Tree_val@U?$_Tree_simple_types@U?$pair@$$CBEV?$vector@VCPoint@@V?$allocator@VCPoint@@@std@@@std@@@std@@@std@@@std@@@std@@_N@1@$$QAU?$pair@HV?$vector@VCPoint@@V?$allocator@VCPoint@@@std@@@std@@@1@@Z$2
	DD	0ffffffffH
	DD	FLAT:__unwindfunclet$??$insert@U?$pair@HV?$vector@VCPoint@@V?$allocator@VCPoint@@@std@@@std@@@std@@$0A@@?$map@EV?$vector@VCPoint@@V?$allocator@VCPoint@@@std@@@std@@U?$less@E@2@V?$allocator@U?$pair@$$CBEV?$vector@VCPoint@@V?$allocator@VCPoint@@@std@@@std@@@std@@@2@@std@@QAE?AU?$pair@V?$_Tree_iterator@V?$_Tree_val@U?$_Tree_simple_types@U?$pair@$$CBEV?$vector@VCPoint@@V?$allocator@VCPoint@@@std@@@std@@@std@@@std@@@std@@@std@@_N@1@$$QAU?$pair@HV?$vector@VCPoint@@V?$allocator@VCPoint@@@std@@@std@@@1@@Z$0
__ehfuncinfo$??$insert@U?$pair@HV?$vector@VCPoint@@V?$allocator@VCPoint@@@std@@@std@@@std@@$0A@@?$map@EV?$vector@VCPoint@@V?$allocator@VCPoint@@@std@@@std@@U?$less@E@2@V?$allocator@U?$pair@$$CBEV?$vector@VCPoint@@V?$allocator@VCPoint@@@std@@@std@@@std@@@2@@std@@QAE?AU?$pair@V?$_Tree_iterator@V?$_Tree_val@U?$_Tree_simple_types@U?$pair@$$CBEV?$vector@VCPoint@@V?$allocator@VCPoint@@@std@@@std@@@std@@@std@@@std@@@std@@_N@1@$$QAU?$pair@HV?$vector@VCPoint@@V?$allocator@VCPoint@@@std@@@std@@@1@@Z DD 019930522H
	DD	02H
	DD	FLAT:__unwindtable$??$insert@U?$pair@HV?$vector@VCPoint@@V?$allocator@VCPoint@@@std@@@std@@@std@@$0A@@?$map@EV?$vector@VCPoint@@V?$allocator@VCPoint@@@std@@@std@@U?$less@E@2@V?$allocator@U?$pair@$$CBEV?$vector@VCPoint@@V?$allocator@VCPoint@@@std@@@std@@@std@@@2@@std@@QAE?AU?$pair@V?$_Tree_iterator@V?$_Tree_val@U?$_Tree_simple_types@U?$pair@$$CBEV?$vector@VCPoint@@V?$allocator@VCPoint@@@std@@@std@@@std@@@std@@@std@@@std@@_N@1@$$QAU?$pair@HV?$vector@VCPoint@@V?$allocator@VCPoint@@@std@@@std@@@1@@Z
	DD	2 DUP(00H)
	DD	2 DUP(00H)
	DD	00H
	DD	01H
xdata$x	ENDS
;	COMDAT xdata$x
xdata$x	SEGMENT
__unwindtable$?GetTown@CContinent@@QAEEABUD3DXVECTOR3@@@Z DD 0ffffffffH
	DD	FLAT:__unwindfunclet$?GetTown@CContinent@@QAEEABUD3DXVECTOR3@@@Z$0
__ehfuncinfo$?GetTown@CContinent@@QAEEABUD3DXVECTOR3@@@Z DD 019930522H
	DD	01H
	DD	FLAT:__unwindtable$?GetTown@CContinent@@QAEEABUD3DXVECTOR3@@@Z
	DD	2 DUP(00H)
	DD	2 DUP(00H)
	DD	00H
	DD	01H
xdata$x	ENDS
;	COMDAT xdata$x
xdata$x	SEGMENT
__ehfuncinfo$?Init@CContinent@@AAEXXZ DD 019930522H
	DD	013H
	DD	FLAT:__unwindtable$?Init@CContinent@@AAEXXZ
	DD	2 DUP(00H)
	DD	2 DUP(00H)
	DD	00H
	DD	01H
__unwindtable$?Init@CContinent@@AAEXXZ DD 0ffffffffH
	DD	FLAT:__unwindfunclet$?Init@CContinent@@AAEXXZ$0
	DD	00H
	DD	FLAT:__unwindfunclet$?Init@CContinent@@AAEXXZ$1
	DD	01H
	DD	FLAT:__unwindfunclet$?Init@CContinent@@AAEXXZ$11
	DD	01H
	DD	FLAT:__unwindfunclet$?Init@CContinent@@AAEXXZ$2
	DD	03H
	DD	FLAT:__unwindfunclet$?Init@CContinent@@AAEXXZ$12
	DD	03H
	DD	FLAT:__unwindfunclet$?Init@CContinent@@AAEXXZ$3
	DD	05H
	DD	FLAT:__unwindfunclet$?Init@CContinent@@AAEXXZ$13
	DD	05H
	DD	FLAT:__unwindfunclet$?Init@CContinent@@AAEXXZ$4
	DD	07H
	DD	FLAT:__unwindfunclet$?Init@CContinent@@AAEXXZ$5
	DD	08H
	DD	FLAT:__unwindfunclet$?Init@CContinent@@AAEXXZ$6
	DD	09H
	DD	FLAT:__unwindfunclet$?Init@CContinent@@AAEXXZ$7
	DD	08H
	DD	FLAT:__unwindfunclet$?Init@CContinent@@AAEXXZ$7
	DD	07H
	DD	FLAT:__unwindfunclet$?Init@CContinent@@AAEXXZ$7
	DD	05H
	DD	FLAT:__unwindfunclet$?Init@CContinent@@AAEXXZ$7
	DD	03H
	DD	FLAT:__unwindfunclet$?Init@CContinent@@AAEXXZ$7
	DD	01H
	DD	FLAT:__unwindfunclet$?Init@CContinent@@AAEXXZ$7
	DD	0fH
	DD	FLAT:__unwindfunclet$?Init@CContinent@@AAEXXZ$8
	DD	010H
	DD	FLAT:__unwindfunclet$?Init@CContinent@@AAEXXZ$9
	DD	011H
	DD	FLAT:__unwindfunclet$?Init@CContinent@@AAEXXZ$10
xdata$x	ENDS
;	COMDAT xdata$x
xdata$x	SEGMENT
__unwindtable$?GetContinent@CContinent@@QAEEABUD3DXVECTOR3@@@Z DD 0ffffffffH
	DD	FLAT:__unwindfunclet$?GetContinent@CContinent@@QAEEABUD3DXVECTOR3@@@Z$0
__ehfuncinfo$?GetContinent@CContinent@@QAEEABUD3DXVECTOR3@@@Z DD 019930522H
	DD	01H
	DD	FLAT:__unwindtable$?GetContinent@CContinent@@QAEEABUD3DXVECTOR3@@@Z
	DD	2 DUP(00H)
	DD	2 DUP(00H)
	DD	00H
	DD	01H
xdata$x	ENDS
;	COMDAT xdata$x
xdata$x	SEGMENT
__unwindtable$?GetContinentName@CContinent@@QAE?AV?$CStringT@DV?$StrTraitMFC@DV?$ChTraitsCRT@D@ATL@@@@@ATL@@E@Z DD 0ffffffffH
	DD	FLAT:__unwindfunclet$?GetContinentName@CContinent@@QAE?AV?$CStringT@DV?$StrTraitMFC@DV?$ChTraitsCRT@D@ATL@@@@@ATL@@E@Z$0
__ehfuncinfo$?GetContinentName@CContinent@@QAE?AV?$CStringT@DV?$StrTraitMFC@DV?$ChTraitsCRT@D@ATL@@@@@ATL@@E@Z DD 019930522H
	DD	01H
	DD	FLAT:__unwindtable$?GetContinentName@CContinent@@QAE?AV?$CStringT@DV?$StrTraitMFC@DV?$ChTraitsCRT@D@ATL@@@@@ATL@@E@Z
	DD	2 DUP(00H)
	DD	2 DUP(00H)
	DD	00H
	DD	01H
xdata$x	ENDS
;	COMDAT xdata$x
xdata$x	SEGMENT
__unwindtable$?GetInstance@CContinent@@SAPAV1@XZ DD 0ffffffffH
	DD	FLAT:__unwindfunclet$?GetInstance@CContinent@@SAPAV1@XZ$0
__ehfuncinfo$?GetInstance@CContinent@@SAPAV1@XZ DD 019930522H
	DD	01H
	DD	FLAT:__unwindtable$?GetInstance@CContinent@@SAPAV1@XZ
	DD	2 DUP(00H)
	DD	2 DUP(00H)
	DD	00H
	DD	01H
xdata$x	ENDS
;	COMDAT xdata$x
xdata$x	SEGMENT
__unwindtable$??0CContinent@@QAE@XZ DD 0ffffffffH
	DD	FLAT:__unwindfunclet$??0CContinent@@QAE@XZ$0
	DD	00H
	DD	FLAT:__unwindfunclet$??0CContinent@@QAE@XZ$1
__ehfuncinfo$??0CContinent@@QAE@XZ DD 019930522H
	DD	02H
	DD	FLAT:__unwindtable$??0CContinent@@QAE@XZ
	DD	2 DUP(00H)
	DD	2 DUP(00H)
	DD	00H
	DD	01H
xdata$x	ENDS
;	COMDAT xdata$x
xdata$x	SEGMENT
__unwindtable$??HATL@@YA?AV?$CStringT@DV?$StrTraitMFC@DV?$ChTraitsCRT@D@ATL@@@@@0@ABV10@0@Z DD 0ffffffffH
	DD	FLAT:__unwindfunclet$??HATL@@YA?AV?$CStringT@DV?$StrTraitMFC@DV?$ChTraitsCRT@D@ATL@@@@@0@ABV10@0@Z$0
__ehfuncinfo$??HATL@@YA?AV?$CStringT@DV?$StrTraitMFC@DV?$ChTraitsCRT@D@ATL@@@@@0@ABV10@0@Z DD 019930522H
	DD	01H
	DD	FLAT:__unwindtable$??HATL@@YA?AV?$CStringT@DV?$StrTraitMFC@DV?$ChTraitsCRT@D@ATL@@@@@0@ABV10@0@Z
	DD	2 DUP(00H)
	DD	2 DUP(00H)
	DD	00H
	DD	01H
xdata$x	ENDS
;	COMDAT xdata$x
xdata$x	SEGMENT
__unwindtable$??0?$CStringT@DV?$StrTraitMFC@DV?$ChTraitsCRT@D@ATL@@@@@ATL@@QAE@PBD@Z DD 0ffffffffH
	DD	FLAT:__unwindfunclet$??0?$CStringT@DV?$StrTraitMFC@DV?$ChTraitsCRT@D@ATL@@@@@ATL@@QAE@PBD@Z$0
__ehfuncinfo$??0?$CStringT@DV?$StrTraitMFC@DV?$ChTraitsCRT@D@ATL@@@@@ATL@@QAE@PBD@Z DD 019930522H
	DD	01H
	DD	FLAT:__unwindtable$??0?$CStringT@DV?$StrTraitMFC@DV?$ChTraitsCRT@D@ATL@@@@@ATL@@QAE@PBD@Z
	DD	2 DUP(00H)
	DD	2 DUP(00H)
	DD	00H
	DD	01H
xdata$x	ENDS
; Function compile flags: /Ogtp
; File C:\Program Files\Microsoft Visual Studio\2022\Professional\VC\Tools\MSVC\14.44.35207\include\xutility
;	COMDAT ??$_Copy_memmove@PAVCPoint@@PAV1@@std@@YAPAVCPoint@@PAV1@00@Z
_TEXT	SEGMENT
__First$ = 8						; size = 4
__Last$ = 12						; size = 4
__Dest$ = 16						; size = 4
??$_Copy_memmove@PAVCPoint@@PAV1@@std@@YAPAVCPoint@@PAV1@00@Z PROC ; std::_Copy_memmove<CPoint *,CPoint *>, COMDAT

; 4762 : _OutCtgIt _Copy_memmove(_CtgIt _First, _CtgIt _Last, _OutCtgIt _Dest) {

  00000	55		 push	 ebp
  00001	8b ec		 mov	 ebp, esp

; 4763 :     _STL_INTERNAL_CHECK(_First <= _Last);
; 4764 :     const auto _First_ptr    = _STD _To_address(_First);
; 4765 :     const auto _Last_ptr     = _STD _To_address(_Last);
; 4766 :     const auto _Object_count = static_cast<size_t>(_Last_ptr - _First_ptr);

  00003	8b 55 08	 mov	 edx, DWORD PTR __First$[ebp]
  00006	8b 4d 0c	 mov	 ecx, DWORD PTR __Last$[ebp]
  00009	2b ca		 sub	 ecx, edx
  0000b	8b c1		 mov	 eax, ecx
  0000d	c1 f8 03	 sar	 eax, 3

; 4767 :     const auto _First_ch     = const_cast<const char*>(reinterpret_cast<const volatile char*>(_First_ptr));
; 4768 :     const auto _Last_ch      = const_cast<const char*>(reinterpret_cast<const volatile char*>(_Last_ptr));
; 4769 :     const auto _Byte_count   = static_cast<size_t>(_Last_ch - _First_ch);
; 4770 :     return _STD _Copy_memmove_tail(_First_ch, _STD move(_Dest), _Byte_count, _Object_count);

  00010	50		 push	 eax
  00011	51		 push	 ecx
  00012	ff 75 10	 push	 DWORD PTR __Dest$[ebp]
  00015	52		 push	 edx
  00016	e8 00 00 00 00	 call	 ??$_Copy_memmove_tail@PAVCPoint@@@std@@YAPAVCPoint@@QBDQAV1@II@Z ; std::_Copy_memmove_tail<CPoint *>
  0001b	83 c4 10	 add	 esp, 16			; 00000010H

; 4771 : }

  0001e	5d		 pop	 ebp
  0001f	c3		 ret	 0
??$_Copy_memmove@PAVCPoint@@PAV1@@std@@YAPAVCPoint@@PAV1@00@Z ENDP ; std::_Copy_memmove<CPoint *,CPoint *>
_TEXT	ENDS
; Function compile flags: /Ogtp
; File C:\Program Files\Microsoft Visual Studio\2022\Professional\VC\Tools\MSVC\14.44.35207\include\xutility
;	COMDAT ??$_Copy_memmove_tail@PAVCPoint@@@std@@YAPAVCPoint@@QBDQAV1@II@Z
_TEXT	SEGMENT
__First_ch$ = 8						; size = 4
__Dest$ = 12						; size = 4
__Byte_count$ = 16					; size = 4
__Object_count$ = 20					; size = 4
??$_Copy_memmove_tail@PAVCPoint@@@std@@YAPAVCPoint@@QBDQAV1@II@Z PROC ; std::_Copy_memmove_tail<CPoint *>, COMDAT

; 4747 :     const char* const _First_ch, const _OutCtgIt _Dest, const size_t _Byte_count, const size_t _Object_count) {

  00000	55		 push	 ebp
  00001	8b ec		 mov	 ebp, esp
  00003	56		 push	 esi

; 4748 :     _STL_INTERNAL_CHECK(_Byte_count == _Object_count * sizeof(*_Dest));
; 4749 :     const auto _Dest_ptr = _STD _To_address(_Dest);
; 4750 :     const auto _Dest_ch  = const_cast<char*>(reinterpret_cast<const volatile char*>(_Dest_ptr));
; 4751 :     _CSTD memmove(_Dest_ch, _First_ch, _Byte_count);

  00004	8b 75 0c	 mov	 esi, DWORD PTR __Dest$[ebp]
  00007	57		 push	 edi
  00008	8b 7d 10	 mov	 edi, DWORD PTR __Byte_count$[ebp]
  0000b	57		 push	 edi
  0000c	ff 75 08	 push	 DWORD PTR __First_ch$[ebp]
  0000f	56		 push	 esi
  00010	e8 00 00 00 00	 call	 _memmove
  00015	83 c4 0c	 add	 esp, 12			; 0000000cH

; 4752 :     if constexpr (is_pointer_v<_OutCtgIt>) {
; 4753 :         (void) _Object_count;
; 4754 :         // CodeQL [SM02986] This cast is correct: we're bypassing pointer arithmetic for performance.
; 4755 :         return reinterpret_cast<_OutCtgIt>(_Dest_ch + _Byte_count);

  00018	8d 04 3e	 lea	 eax, DWORD PTR [esi+edi]
  0001b	5f		 pop	 edi
  0001c	5e		 pop	 esi

; 4756 :     } else {
; 4757 :         return _Dest + static_cast<_Iter_diff_t<_OutCtgIt>>(_Object_count);
; 4758 :     }
; 4759 : }

  0001d	5d		 pop	 ebp
  0001e	c3		 ret	 0
??$_Copy_memmove_tail@PAVCPoint@@@std@@YAPAVCPoint@@QBDQAV1@II@Z ENDP ; std::_Copy_memmove_tail<CPoint *>
_TEXT	ENDS
; Function compile flags: /Ogtp
; File C:\Program Files\Microsoft Visual Studio\2022\Professional\VC\Tools\MSVC\14.44.35207\include\xtree
; File C:\Program Files\Microsoft Visual Studio\2022\Professional\VC\Tools\MSVC\14.44.35207\include\vector
; File C:\Program Files\Microsoft Visual Studio\2022\Professional\VC\Tools\MSVC\14.44.35207\include\xmemory
; File C:\Program Files\Microsoft Visual Studio\2022\Professional\VC\Tools\MSVC\14.44.35207\include\xtree
;	COMDAT ??1?$_Tree_temp_node@V?$allocator@U?$_Tree_node@U?$pair@$$CBEV?$vector@VCPoint@@V?$allocator@VCPoint@@@std@@@std@@@std@@PAX@std@@@std@@@std@@QAE@XZ
_TEXT	SEGMENT
??1?$_Tree_temp_node@V?$allocator@U?$_Tree_node@U?$pair@$$CBEV?$vector@VCPoint@@V?$allocator@VCPoint@@@std@@@std@@@std@@PAX@std@@@std@@@std@@QAE@XZ PROC ; std::_Tree_temp_node<std::allocator<std::_Tree_node<std::pair<unsigned char const ,std::vector<CPoint,std::allocator<CPoint> > >,void *> > >::~_Tree_temp_node<std::allocator<std::_Tree_node<std::pair<unsigned char const ,std::vector<CPoint,std::allocator<CPoint> > >,void *> > >, COMDAT
; _this$ = ecx

; 841  :     ~_Tree_temp_node() {

  00000	56		 push	 esi
  00001	8b f1		 mov	 esi, ecx

; 842  :         if (this->_Ptr) {

  00003	8b 4e 04	 mov	 ecx, DWORD PTR [esi+4]
  00006	85 c9		 test	 ecx, ecx
  00008	74 08		 je	 SHORT $LN8@Tree_temp_

; 843  :             _Destroy_in_place(this->_Ptr->_Left);
; 844  :             _Destroy_in_place(this->_Ptr->_Parent);
; 845  :             _Destroy_in_place(this->_Ptr->_Right);
; 846  :             _Alnode_traits::destroy(this->_Al, _STD addressof(this->_Ptr->_Myval));

  0000a	83 c1 14	 add	 ecx, 20			; 00000014H
; File C:\Program Files\Microsoft Visual Studio\2022\Professional\VC\Tools\MSVC\14.44.35207\include\vector

; 830  :         _Tidy();

  0000d	e8 00 00 00 00	 call	 ?_Tidy@?$vector@VCPoint@@V?$allocator@VCPoint@@@std@@@std@@AAEXXZ ; std::vector<CPoint,std::allocator<CPoint> >::_Tidy
$LN8@Tree_temp_:
; File C:\Program Files\Microsoft Visual Studio\2022\Professional\VC\Tools\MSVC\14.44.35207\include\xmemory

; 1172 :         if (_Ptr) {

  00012	8b 46 04	 mov	 eax, DWORD PTR [esi+4]
  00015	5e		 pop	 esi
  00016	85 c0		 test	 eax, eax
  00018	74 0b		 je	 SHORT $LN33@Tree_temp_

; 289  :         ::operator delete(_Ptr, _Bytes);

  0001a	6a 20		 push	 32			; 00000020H
  0001c	50		 push	 eax
  0001d	e8 00 00 00 00	 call	 ??3@YAXPAXI@Z		; operator delete
  00022	83 c4 08	 add	 esp, 8
$LN33@Tree_temp_:
; File C:\Program Files\Microsoft Visual Studio\2022\Professional\VC\Tools\MSVC\14.44.35207\include\xtree

; 848  :     }

  00025	c3		 ret	 0
??1?$_Tree_temp_node@V?$allocator@U?$_Tree_node@U?$pair@$$CBEV?$vector@VCPoint@@V?$allocator@VCPoint@@@std@@@std@@@std@@PAX@std@@@std@@@std@@QAE@XZ ENDP ; std::_Tree_temp_node<std::allocator<std::_Tree_node<std::pair<unsigned char const ,std::vector<CPoint,std::allocator<CPoint> > >,void *> > >::~_Tree_temp_node<std::allocator<std::_Tree_node<std::pair<unsigned char const ,std::vector<CPoint,std::allocator<CPoint> > >,void *> > >
_TEXT	ENDS
; Function compile flags: /Ogtp
; File C:\Program Files\Microsoft Visual Studio\2022\Professional\VC\Tools\MSVC\14.44.35207\include\xmemory
;	COMDAT ??1?$_Alloc_construct_ptr@V?$allocator@U?$_Tree_node@U?$pair@$$CBEV?$vector@VCPoint@@V?$allocator@VCPoint@@@std@@@std@@@std@@PAX@std@@@std@@@std@@QAE@XZ
_TEXT	SEGMENT
??1?$_Alloc_construct_ptr@V?$allocator@U?$_Tree_node@U?$pair@$$CBEV?$vector@VCPoint@@V?$allocator@VCPoint@@@std@@@std@@@std@@PAX@std@@@std@@@std@@QAE@XZ PROC ; std::_Alloc_construct_ptr<std::allocator<std::_Tree_node<std::pair<unsigned char const ,std::vector<CPoint,std::allocator<CPoint> > >,void *> > >::~_Alloc_construct_ptr<std::allocator<std::_Tree_node<std::pair<unsigned char const ,std::vector<CPoint,std::allocator<CPoint> > >,void *> > >, COMDAT
; _this$ = ecx

; 1172 :         if (_Ptr) {

  00000	8b 41 04	 mov	 eax, DWORD PTR [ecx+4]
  00003	85 c0		 test	 eax, eax
  00005	74 0b		 je	 SHORT $LN10@Alloc_cons

; 289  :         ::operator delete(_Ptr, _Bytes);

  00007	6a 20		 push	 32			; 00000020H
  00009	50		 push	 eax
  0000a	e8 00 00 00 00	 call	 ??3@YAXPAXI@Z		; operator delete
  0000f	83 c4 08	 add	 esp, 8
$LN10@Alloc_cons:

; 1173 :             _Al.deallocate(_Ptr, 1);
; 1174 :         }
; 1175 :     }

  00012	c3		 ret	 0
??1?$_Alloc_construct_ptr@V?$allocator@U?$_Tree_node@U?$pair@$$CBEV?$vector@VCPoint@@V?$allocator@VCPoint@@@std@@@std@@@std@@PAX@std@@@std@@@std@@QAE@XZ ENDP ; std::_Alloc_construct_ptr<std::allocator<std::_Tree_node<std::pair<unsigned char const ,std::vector<CPoint,std::allocator<CPoint> > >,void *> > >::~_Alloc_construct_ptr<std::allocator<std::_Tree_node<std::pair<unsigned char const ,std::vector<CPoint,std::allocator<CPoint> > >,void *> > >
_TEXT	ENDS
; Function compile flags: /Ogtp
; File C:\Program Files\Microsoft Visual Studio\2022\Professional\VC\Tools\MSVC\14.44.35207\include\xutility
;	COMDAT ??$_Copy_memmove_n@PAVCPoint@@PAV1@@std@@YAPAVCPoint@@PAV1@I0@Z
_TEXT	SEGMENT
__First$ = 8						; size = 4
__Object_count$ = 12					; size = 4
__Dest$ = 16						; size = 4
??$_Copy_memmove_n@PAVCPoint@@PAV1@@std@@YAPAVCPoint@@PAV1@I0@Z PROC ; std::_Copy_memmove_n<CPoint *,CPoint *>, COMDAT

; 4774 : _OutCtgIt _Copy_memmove_n(_CtgIt _First, const size_t _Object_count, _OutCtgIt _Dest) {

  00000	55		 push	 ebp
  00001	8b ec		 mov	 ebp, esp

; 4775 :     const auto _First_ptr  = _STD _To_address(_First);
; 4776 :     const auto _First_ch   = const_cast<const char*>(reinterpret_cast<const volatile char*>(_First_ptr));
; 4777 :     const auto _Byte_count = _Object_count * sizeof(*_First_ptr);
; 4778 :     return _STD _Copy_memmove_tail(_First_ch, _STD move(_Dest), _Byte_count, _Object_count);

  00003	8b 45 0c	 mov	 eax, DWORD PTR __Object_count$[ebp]
  00006	50		 push	 eax
  00007	c1 e0 03	 shl	 eax, 3
  0000a	50		 push	 eax
  0000b	ff 75 10	 push	 DWORD PTR __Dest$[ebp]
  0000e	ff 75 08	 push	 DWORD PTR __First$[ebp]
  00011	e8 00 00 00 00	 call	 ??$_Copy_memmove_tail@PAVCPoint@@@std@@YAPAVCPoint@@QBDQAV1@II@Z ; std::_Copy_memmove_tail<CPoint *>
  00016	83 c4 10	 add	 esp, 16			; 00000010H

; 4779 : }

  00019	5d		 pop	 ebp
  0001a	c3		 ret	 0
??$_Copy_memmove_n@PAVCPoint@@PAV1@@std@@YAPAVCPoint@@PAV1@I0@Z ENDP ; std::_Copy_memmove_n<CPoint *,CPoint *>
_TEXT	ENDS
; Function compile flags: /Ogtp
; File C:\Program Files\Microsoft Visual Studio\2022\Professional\VC\Tools\MSVC\14.44.35207\include\xtree
; File C:\Program Files\Microsoft Visual Studio\2022\Professional\VC\Tools\MSVC\14.44.35207\include\utility
; File C:\Program Files\Microsoft Visual Studio\2022\Professional\VC\Tools\MSVC\14.44.35207\include\xtree
; File C:\Program Files\Microsoft Visual Studio\2022\Professional\VC\Tools\MSVC\14.44.35207\include\vector
; File C:\Program Files\Microsoft Visual Studio\2022\Professional\VC\Tools\MSVC\14.44.35207\include\xmemory
; File C:\Program Files\Microsoft Visual Studio\2022\Professional\VC\Tools\MSVC\14.44.35207\include\xtree
; File C:\Program Files\Microsoft Visual Studio\2022\Professional\VC\Tools\MSVC\14.44.35207\include\xmemory
; File C:\Program Files\Microsoft Visual Studio\2022\Professional\VC\Tools\MSVC\14.44.35207\include\xtree
;	COMDAT ??$_Erase_tree@V?$allocator@U?$_Tree_node@U?$pair@$$CBEV?$vector@VCPoint@@V?$allocator@VCPoint@@@std@@@std@@@std@@PAX@std@@@std@@@?$_Tree_val@U?$_Tree_simple_types@U?$pair@$$CBEV?$vector@VCPoint@@V?$allocator@VCPoint@@@std@@@std@@@std@@@std@@@std@@QAEXAAV?$allocator@U?$_Tree_node@U?$pair@$$CBEV?$vector@VCPoint@@V?$allocator@VCPoint@@@std@@@std@@@std@@PAX@std@@@1@PAU?$_Tree_node@U?$pair@$$CBEV?$vector@VCPoint@@V?$allocator@VCPoint@@@std@@@std@@@std@@PAX@1@@Z
_TEXT	SEGMENT
_this$1$ = -4						; size = 4
__Al$ = 8						; size = 4
__Rootnode$ = 12					; size = 4
??$_Erase_tree@V?$allocator@U?$_Tree_node@U?$pair@$$CBEV?$vector@VCPoint@@V?$allocator@VCPoint@@@std@@@std@@@std@@PAX@std@@@std@@@?$_Tree_val@U?$_Tree_simple_types@U?$pair@$$CBEV?$vector@VCPoint@@V?$allocator@VCPoint@@@std@@@std@@@std@@@std@@@std@@QAEXAAV?$allocator@U?$_Tree_node@U?$pair@$$CBEV?$vector@VCPoint@@V?$allocator@VCPoint@@@std@@@std@@@std@@PAX@std@@@1@PAU?$_Tree_node@U?$pair@$$CBEV?$vector@VCPoint@@V?$allocator@VCPoint@@@std@@@std@@@std@@PAX@1@@Z PROC ; std::_Tree_val<std::_Tree_simple_types<std::pair<unsigned char const ,std::vector<CPoint,std::allocator<CPoint> > > > >::_Erase_tree<std::allocator<std::_Tree_node<std::pair<unsigned char const ,std::vector<CPoint,std::allocator<CPoint> > >,void *> > >, COMDAT
; _this$ = ecx

; 767  :     void _Erase_tree(_Alnode& _Al, _Nodeptr _Rootnode) noexcept {

  00000	55		 push	 ebp
  00001	8b ec		 mov	 ebp, esp
  00003	51		 push	 ecx
  00004	56		 push	 esi

; 768  :         while (!_Rootnode->_Isnil) { // free subtrees, then node

  00005	8b 75 0c	 mov	 esi, DWORD PTR __Rootnode$[ebp]
  00008	8b c1		 mov	 eax, ecx
  0000a	89 45 fc	 mov	 DWORD PTR _this$1$[ebp], eax
  0000d	80 7e 0d 00	 cmp	 BYTE PTR [esi+13], 0
  00011	75 32		 jne	 SHORT $LN48@Erase_tree
  00013	53		 push	 ebx
  00014	8b 5d 08	 mov	 ebx, DWORD PTR __Al$[ebp]
  00017	57		 push	 edi
$LL2@Erase_tree:

; 769  :             _Erase_tree(_Al, _Rootnode->_Right);

  00018	ff 76 08	 push	 DWORD PTR [esi+8]
  0001b	8b c8		 mov	 ecx, eax
  0001d	53		 push	 ebx
  0001e	e8 00 00 00 00	 call	 ??$_Erase_tree@V?$allocator@U?$_Tree_node@U?$pair@$$CBEV?$vector@VCPoint@@V?$allocator@VCPoint@@@std@@@std@@@std@@PAX@std@@@std@@@?$_Tree_val@U?$_Tree_simple_types@U?$pair@$$CBEV?$vector@VCPoint@@V?$allocator@VCPoint@@@std@@@std@@@std@@@std@@@std@@QAEXAAV?$allocator@U?$_Tree_node@U?$pair@$$CBEV?$vector@VCPoint@@V?$allocator@VCPoint@@@std@@@std@@@std@@PAX@std@@@1@PAU?$_Tree_node@U?$pair@$$CBEV?$vector@VCPoint@@V?$allocator@VCPoint@@@std@@@std@@@std@@PAX@1@@Z ; std::_Tree_val<std::_Tree_simple_types<std::pair<unsigned char const ,std::vector<CPoint,std::allocator<CPoint> > > > >::_Erase_tree<std::allocator<std::_Tree_node<std::pair<unsigned char const ,std::vector<CPoint,std::allocator<CPoint> > >,void *> > >
; File C:\Program Files\Microsoft Visual Studio\2022\Professional\VC\Tools\MSVC\14.44.35207\include\utility

; 773  :     _Ty _Old_val = static_cast<_Ty&&>(_Val);

  00023	8b fe		 mov	 edi, esi

; 774  :     _Val         = static_cast<_Other&&>(_New_val);

  00025	8b 36		 mov	 esi, DWORD PTR [esi]
; File C:\Program Files\Microsoft Visual Studio\2022\Professional\VC\Tools\MSVC\14.44.35207\include\xtree

; 381  :         allocator_traits<_Alloc>::destroy(_Al, _STD addressof(_Ptr->_Myval));

  00027	8d 4f 14	 lea	 ecx, DWORD PTR [edi+20]
; File C:\Program Files\Microsoft Visual Studio\2022\Professional\VC\Tools\MSVC\14.44.35207\include\vector

; 830  :         _Tidy();

  0002a	e8 00 00 00 00	 call	 ?_Tidy@?$vector@VCPoint@@V?$allocator@VCPoint@@@std@@@std@@AAEXXZ ; std::vector<CPoint,std::allocator<CPoint> >::_Tidy
; File C:\Program Files\Microsoft Visual Studio\2022\Professional\VC\Tools\MSVC\14.44.35207\include\xmemory

; 289  :         ::operator delete(_Ptr, _Bytes);

  0002f	6a 20		 push	 32			; 00000020H
  00031	57		 push	 edi
  00032	e8 00 00 00 00	 call	 ??3@YAXPAXI@Z		; operator delete
; File C:\Program Files\Microsoft Visual Studio\2022\Professional\VC\Tools\MSVC\14.44.35207\include\xtree

; 768  :         while (!_Rootnode->_Isnil) { // free subtrees, then node

  00037	8b 45 fc	 mov	 eax, DWORD PTR _this$1$[ebp]
; File C:\Program Files\Microsoft Visual Studio\2022\Professional\VC\Tools\MSVC\14.44.35207\include\xmemory

; 289  :         ::operator delete(_Ptr, _Bytes);

  0003a	83 c4 08	 add	 esp, 8
; File C:\Program Files\Microsoft Visual Studio\2022\Professional\VC\Tools\MSVC\14.44.35207\include\xtree

; 768  :         while (!_Rootnode->_Isnil) { // free subtrees, then node

  0003d	80 7e 0d 00	 cmp	 BYTE PTR [esi+13], 0
  00041	74 d5		 je	 SHORT $LL2@Erase_tree
  00043	5f		 pop	 edi
  00044	5b		 pop	 ebx
$LN48@Erase_tree:
  00045	5e		 pop	 esi

; 770  :             _Alnode::value_type::_Freenode(_Al, _STD exchange(_Rootnode, _Rootnode->_Left));
; 771  :         }
; 772  :     }

  00046	8b e5		 mov	 esp, ebp
  00048	5d		 pop	 ebp
  00049	c2 08 00	 ret	 8
??$_Erase_tree@V?$allocator@U?$_Tree_node@U?$pair@$$CBEV?$vector@VCPoint@@V?$allocator@VCPoint@@@std@@@std@@@std@@PAX@std@@@std@@@?$_Tree_val@U?$_Tree_simple_types@U?$pair@$$CBEV?$vector@VCPoint@@V?$allocator@VCPoint@@@std@@@std@@@std@@@std@@@std@@QAEXAAV?$allocator@U?$_Tree_node@U?$pair@$$CBEV?$vector@VCPoint@@V?$allocator@VCPoint@@@std@@@std@@@std@@PAX@std@@@1@PAU?$_Tree_node@U?$pair@$$CBEV?$vector@VCPoint@@V?$allocator@VCPoint@@@std@@@std@@@std@@PAX@1@@Z ENDP ; std::_Tree_val<std::_Tree_simple_types<std::pair<unsigned char const ,std::vector<CPoint,std::allocator<CPoint> > > > >::_Erase_tree<std::allocator<std::_Tree_node<std::pair<unsigned char const ,std::vector<CPoint,std::allocator<CPoint> > >,void *> > >
_TEXT	ENDS
; Function compile flags: /Ogtp
; File C:\Program Files\Microsoft Visual Studio\2022\Professional\VC\Tools\MSVC\14.44.35207\include\map
; File C:\Program Files\Microsoft Visual Studio\2022\Professional\VC\Tools\MSVC\14.44.35207\include\xtree
; File C:\Program Files\Microsoft Visual Studio\2022\Professional\VC\Tools\MSVC\14.44.35207\include\xmemory
; File C:\Program Files\Microsoft Visual Studio\2022\Professional\VC\Tools\MSVC\14.44.35207\include\xtree
; File C:\Program Files\Microsoft Visual Studio\2022\Professional\VC\Tools\MSVC\14.44.35207\include\xmemory
; File C:\Program Files\Microsoft Visual Studio\2022\Professional\VC\Tools\MSVC\14.44.35207\include\utility
; File C:\Program Files\Microsoft Visual Studio\2022\Professional\VC\Tools\MSVC\14.44.35207\include\xmemory
; File C:\Program Files\Microsoft Visual Studio\2022\Professional\VC\Tools\MSVC\14.44.35207\include\utility
; File C:\Program Files\Microsoft Visual Studio\2022\Professional\VC\Tools\MSVC\14.44.35207\include\vector
; File C:\Program Files\Microsoft Visual Studio\2022\Professional\VC\Tools\MSVC\14.44.35207\include\xtree
; File C:\Program Files\Microsoft Visual Studio\2022\Professional\VC\Tools\MSVC\14.44.35207\include\type_traits
; File C:\Program Files\Microsoft Visual Studio\2022\Professional\VC\Tools\MSVC\14.44.35207\include\xtree
; File C:\Program Files\Microsoft Visual Studio\2022\Professional\VC\Tools\MSVC\14.44.35207\include\type_traits
; File C:\Program Files\Microsoft Visual Studio\2022\Professional\VC\Tools\MSVC\14.44.35207\include\xtree
; File C:\Program Files\Microsoft Visual Studio\2022\Professional\VC\Tools\MSVC\14.44.35207\include\type_traits
; File C:\Program Files\Microsoft Visual Studio\2022\Professional\VC\Tools\MSVC\14.44.35207\include\xtree
; File C:\Program Files\Microsoft Visual Studio\2022\Professional\VC\Tools\MSVC\14.44.35207\include\vector
; File C:\Program Files\Microsoft Visual Studio\2022\Professional\VC\Tools\MSVC\14.44.35207\include\utility
; File C:\Program Files\Microsoft Visual Studio\2022\Professional\VC\Tools\MSVC\14.44.35207\include\vector
; File C:\Program Files\Microsoft Visual Studio\2022\Professional\VC\Tools\MSVC\14.44.35207\include\xmemory
; File C:\Program Files\Microsoft Visual Studio\2022\Professional\VC\Tools\MSVC\14.44.35207\include\xtree
; File C:\Program Files\Microsoft Visual Studio\2022\Professional\VC\Tools\MSVC\14.44.35207\include\utility
; File C:\Program Files\Microsoft Visual Studio\2022\Professional\VC\Tools\MSVC\14.44.35207\include\map
; File C:\Program Files\Microsoft Visual Studio\2022\Professional\VC\Tools\MSVC\14.44.35207\include\xtree
; File C:\Program Files\Microsoft Visual Studio\2022\Professional\VC\Tools\MSVC\14.44.35207\include\map
;	COMDAT ??$insert@U?$pair@HV?$vector@VCPoint@@V?$allocator@VCPoint@@@std@@@std@@@std@@$0A@@?$map@EV?$vector@VCPoint@@V?$allocator@VCPoint@@@std@@@std@@U?$less@E@2@V?$allocator@U?$pair@$$CBEV?$vector@VCPoint@@V?$allocator@VCPoint@@@std@@@std@@@std@@@2@@std@@QAE?AU?$pair@V?$_Tree_iterator@V?$_Tree_val@U?$_Tree_simple_types@U?$pair@$$CBEV?$vector@VCPoint@@V?$allocator@VCPoint@@@std@@@std@@@std@@@std@@@std@@@std@@_N@1@$$QAU?$pair@HV?$vector@VCPoint@@V?$allocator@VCPoint@@@std@@@std@@@1@@Z
_TEXT	SEGMENT
__Newnode$5 = -24					; size = 8
_this$1$ = -16						; size = 4
__$EHRec$ = -12						; size = 12
___$ReturnUdt$ = 8					; size = 4
__Val$ = 12						; size = 4
__Result$3$sroa$546$1$ = 15				; size = 1
tv947 = 15						; size = 1
??$insert@U?$pair@HV?$vector@VCPoint@@V?$allocator@VCPoint@@@std@@@std@@@std@@$0A@@?$map@EV?$vector@VCPoint@@V?$allocator@VCPoint@@@std@@@std@@U?$less@E@2@V?$allocator@U?$pair@$$CBEV?$vector@VCPoint@@V?$allocator@VCPoint@@@std@@@std@@@std@@@2@@std@@QAE?AU?$pair@V?$_Tree_iterator@V?$_Tree_val@U?$_Tree_simple_types@U?$pair@$$CBEV?$vector@VCPoint@@V?$allocator@VCPoint@@@std@@@std@@@std@@@std@@@std@@@std@@_N@1@$$QAU?$pair@HV?$vector@VCPoint@@V?$allocator@VCPoint@@@std@@@std@@@1@@Z PROC ; std::map<unsigned char,std::vector<CPoint,std::allocator<CPoint> >,std::less<unsigned char>,std::allocator<std::pair<unsigned char const ,std::vector<CPoint,std::allocator<CPoint> > > > >::insert<std::pair<int,std::vector<CPoint,std::allocator<CPoint> > >,0>, COMDAT
; _this$ = ecx

; 185  :     pair<iterator, bool> insert(_Valty&& _Val) {

  00000	55		 push	 ebp
  00001	8b ec		 mov	 ebp, esp
  00003	6a ff		 push	 -1
  00005	68 00 00 00 00	 push	 __ehhandler$??$insert@U?$pair@HV?$vector@VCPoint@@V?$allocator@VCPoint@@@std@@@std@@@std@@$0A@@?$map@EV?$vector@VCPoint@@V?$allocator@VCPoint@@@std@@@std@@U?$less@E@2@V?$allocator@U?$pair@$$CBEV?$vector@VCPoint@@V?$allocator@VCPoint@@@std@@@std@@@std@@@2@@std@@QAE?AU?$pair@V?$_Tree_iterator@V?$_Tree_val@U?$_Tree_simple_types@U?$pair@$$CBEV?$vector@VCPoint@@V?$allocator@VCPoint@@@std@@@std@@@std@@@std@@@std@@@std@@_N@1@$$QAU?$pair@HV?$vector@VCPoint@@V?$allocator@VCPoint@@@std@@@std@@@1@@Z
  0000a	64 a1 00 00 00
	00		 mov	 eax, DWORD PTR fs:0
  00010	50		 push	 eax
  00011	83 ec 0c	 sub	 esp, 12			; 0000000cH
  00014	53		 push	 ebx
  00015	56		 push	 esi
  00016	57		 push	 edi
  00017	a1 00 00 00 00	 mov	 eax, DWORD PTR ___security_cookie
  0001c	33 c5		 xor	 eax, ebp
  0001e	50		 push	 eax
  0001f	8d 45 f4	 lea	 eax, DWORD PTR __$EHRec$[ebp]
  00022	64 a3 00 00 00
	00		 mov	 DWORD PTR fs:0, eax
  00028	8b c1		 mov	 eax, ecx
  0002a	89 45 f0	 mov	 DWORD PTR _this$1$[ebp], eax
; File C:\Program Files\Microsoft Visual Studio\2022\Professional\VC\Tools\MSVC\14.44.35207\include\xtree

; 1026 :             _Tree_temp_node<_Alnode> _Newnode(_Getal(), _Scary->_Myhead, _STD forward<_Valtys>(_Vals)...);

  0002d	8b 38		 mov	 edi, DWORD PTR [eax]
; File C:\Program Files\Microsoft Visual Studio\2022\Professional\VC\Tools\MSVC\14.44.35207\include\xmemory

; 1160 :     _CONSTEXPR20 explicit _Alloc_construct_ptr(_Alloc& _Al_) : _Al(_Al_), _Ptr(nullptr) {}

  0002f	89 45 e8	 mov	 DWORD PTR __Newnode$5[ebp], eax

; 136  :         return ::operator new(_Bytes);

  00032	6a 20		 push	 32			; 00000020H
; File C:\Program Files\Microsoft Visual Studio\2022\Professional\VC\Tools\MSVC\14.44.35207\include\xtree

; 808  :     explicit _Tree_temp_node_alloc(_Alnode& _Al_) : _Alloc_construct_ptr<_Alnode>(_Al_) {

  00034	c7 45 fc 00 00
	00 00		 mov	 DWORD PTR __$EHRec$[ebp+8], 0
; File C:\Program Files\Microsoft Visual Studio\2022\Professional\VC\Tools\MSVC\14.44.35207\include\xmemory

; 1167 :         _Ptr = nullptr; // if allocate throws, prevents double-free

  0003b	c7 45 ec 00 00
	00 00		 mov	 DWORD PTR __Newnode$5[ebp+4], 0

; 136  :         return ::operator new(_Bytes);

  00042	e8 00 00 00 00	 call	 ??2@YAPAXI@Z		; operator new
; File C:\Program Files\Microsoft Visual Studio\2022\Professional\VC\Tools\MSVC\14.44.35207\include\utility

; 303  :         : first(_STD forward<_Other1>(_Right.first)), second(_STD forward<_Other2>(_Right.second)) {}

  00047	8b 75 0c	 mov	 esi, DWORD PTR __Val$[ebp]
; File C:\Program Files\Microsoft Visual Studio\2022\Professional\VC\Tools\MSVC\14.44.35207\include\xmemory

; 256  :         return _Traits::_Allocate(_Bytes);

  0004a	8b d8		 mov	 ebx, eax

; 136  :         return ::operator new(_Bytes);

  0004c	83 c4 04	 add	 esp, 4

; 1168 :         _Ptr = _Al.allocate(1);

  0004f	89 5d ec	 mov	 DWORD PTR __Newnode$5[ebp+4], ebx
; File C:\Program Files\Microsoft Visual Studio\2022\Professional\VC\Tools\MSVC\14.44.35207\include\utility

; 303  :         : first(_STD forward<_Other1>(_Right.first)), second(_STD forward<_Other2>(_Right.second)) {}

  00052	8a 0e		 mov	 cl, BYTE PTR [esi]
  00054	88 4b 10	 mov	 BYTE PTR [ebx+16], cl

; 773  :     _Ty _Old_val = static_cast<_Ty&&>(_Val);

  00057	8b 56 0c	 mov	 edx, DWORD PTR [esi+12]
  0005a	8b 4e 08	 mov	 ecx, DWORD PTR [esi+8]
  0005d	8b 46 04	 mov	 eax, DWORD PTR [esi+4]

; 774  :     _Val         = static_cast<_Other&&>(_New_val);

  00060	c7 46 0c 00 00
	00 00		 mov	 DWORD PTR [esi+12], 0
  00067	c7 46 08 00 00
	00 00		 mov	 DWORD PTR [esi+8], 0
  0006e	c7 46 04 00 00
	00 00		 mov	 DWORD PTR [esi+4], 0
; File C:\Program Files\Microsoft Visual Studio\2022\Professional\VC\Tools\MSVC\14.44.35207\include\vector

; 403  :         : _Myfirst(_First), _Mylast(_Last), _Myend(_End) {}

  00075	89 43 14	 mov	 DWORD PTR [ebx+20], eax
  00078	89 4b 18	 mov	 DWORD PTR [ebx+24], ecx
  0007b	89 53 1c	 mov	 DWORD PTR [ebx+28], edx
; File C:\Program Files\Microsoft Visual Studio\2022\Professional\VC\Tools\MSVC\14.44.35207\include\xtree

; 831  :         _Construct_in_place(this->_Ptr->_Left, _Myhead);

  0007e	89 3b		 mov	 DWORD PTR [ebx], edi

; 832  :         _Construct_in_place(this->_Ptr->_Parent, _Myhead);

  00080	89 7b 04	 mov	 DWORD PTR [ebx+4], edi

; 833  :         _Construct_in_place(this->_Ptr->_Right, _Myhead);

  00083	89 7b 08	 mov	 DWORD PTR [ebx+8], edi

; 834  :         this->_Ptr->_Color = _Red;

  00086	66 c7 43 0c 00
	00		 mov	 WORD PTR [ebx+12], 0

; 1630 :         _Tree_find_result<_Nodeptr> _Result{{_Scary->_Myhead->_Parent, _Tree_child::_Right}, _Scary->_Myhead};

  0008c	8b 7d f0	 mov	 edi, DWORD PTR _this$1$[ebp]
  0008f	33 c9		 xor	 ecx, ecx

; 1026 :             _Tree_temp_node<_Alnode> _Newnode(_Getal(), _Scary->_Myhead, _STD forward<_Valtys>(_Vals)...);

  00091	c7 45 fc 01 00
	00 00		 mov	 DWORD PTR __$EHRec$[ebp+8], 1

; 1630 :         _Tree_find_result<_Nodeptr> _Result{{_Scary->_Myhead->_Parent, _Tree_child::_Right}, _Scary->_Myhead};

  00098	8b 37		 mov	 esi, DWORD PTR [edi]
  0009a	8b 56 04	 mov	 edx, DWORD PTR [esi+4]

; 1631 :         _Nodeptr _Trynode = _Result._Location._Parent;
; 1632 :         while (!_Trynode->_Isnil) {

  0009d	38 4a 0d	 cmp	 BYTE PTR [edx+13], cl
  000a0	75 25		 jne	 SHORT $LN62@insert
  000a2	8a 5b 10	 mov	 bl, BYTE PTR [ebx+16]
; File C:\Program Files\Microsoft Visual Studio\2022\Professional\VC\Tools\MSVC\14.44.35207\include\type_traits

; 2380 :         return _Left < _Right;

  000a5	8b c2		 mov	 eax, edx
$LL61@insert:
; File C:\Program Files\Microsoft Visual Studio\2022\Professional\VC\Tools\MSVC\14.44.35207\include\xtree

; 1633 :             _Result._Location._Parent = _Trynode;

  000a7	8b d0		 mov	 edx, eax
; File C:\Program Files\Microsoft Visual Studio\2022\Professional\VC\Tools\MSVC\14.44.35207\include\type_traits

; 2380 :         return _Left < _Right;

  000a9	38 58 10	 cmp	 BYTE PTR [eax+16], bl
; File C:\Program Files\Microsoft Visual Studio\2022\Professional\VC\Tools\MSVC\14.44.35207\include\xtree

; 1634 :             if (_DEBUG_LT_PRED(_Getcomp(), _Traits::_Kfn(_Trynode->_Myval), _Keyval)) {

  000ac	73 07		 jae	 SHORT $LN63@insert

; 1635 :                 _Result._Location._Child = _Tree_child::_Right;
; 1636 :                 _Trynode                 = _Trynode->_Right;

  000ae	8b 40 08	 mov	 eax, DWORD PTR [eax+8]
  000b1	33 c9		 xor	 ecx, ecx

; 1637 :             } else {

  000b3	eb 09		 jmp	 SHORT $LN64@insert
$LN63@insert:

; 1638 :                 _Result._Location._Child = _Tree_child::_Left;
; 1639 :                 _Result._Bound           = _Trynode;

  000b5	8b f0		 mov	 esi, eax
  000b7	b9 01 00 00 00	 mov	 ecx, 1

; 1640 :                 _Trynode                 = _Trynode->_Left;

  000bc	8b 00		 mov	 eax, DWORD PTR [eax]
$LN64@insert:

; 1631 :         _Nodeptr _Trynode = _Result._Location._Parent;
; 1632 :         while (!_Trynode->_Isnil) {

  000be	80 78 0d 00	 cmp	 BYTE PTR [eax+13], 0
  000c2	74 e3		 je	 SHORT $LL61@insert
  000c4	8b 5d ec	 mov	 ebx, DWORD PTR __Newnode$5[ebp+4]
$LN62@insert:

; 1624 :         return !_Bound->_Isnil && !_DEBUG_LT_PRED(_Getcomp(), _Keyval, _Traits::_Kfn(_Bound->_Myval));

  000c7	80 7e 0d 00	 cmp	 BYTE PTR [esi+13], 0
  000cb	75 21		 jne	 SHORT $LN6@insert
; File C:\Program Files\Microsoft Visual Studio\2022\Professional\VC\Tools\MSVC\14.44.35207\include\type_traits

; 2380 :         return _Left < _Right;

  000cd	8a 43 10	 mov	 al, BYTE PTR [ebx+16]
  000d0	3a 46 10	 cmp	 al, BYTE PTR [esi+16]
; File C:\Program Files\Microsoft Visual Studio\2022\Professional\VC\Tools\MSVC\14.44.35207\include\xtree

; 1624 :         return !_Bound->_Isnil && !_DEBUG_LT_PRED(_Getcomp(), _Keyval, _Traits::_Kfn(_Bound->_Myval));

  000d3	72 19		 jb	 SHORT $LN6@insert
; File C:\Program Files\Microsoft Visual Studio\2022\Professional\VC\Tools\MSVC\14.44.35207\include\vector

; 830  :         _Tidy();

  000d5	8d 4b 14	 lea	 ecx, DWORD PTR [ebx+20]
; File C:\Program Files\Microsoft Visual Studio\2022\Professional\VC\Tools\MSVC\14.44.35207\include\utility

; 274  :         : first(_STD forward<_Other1>(_Val1)), second(_STD forward<_Other2>(_Val2)) {

  000d8	c6 45 0f 00	 mov	 BYTE PTR __Result$3$sroa$546$1$[ebp], 0
; File C:\Program Files\Microsoft Visual Studio\2022\Professional\VC\Tools\MSVC\14.44.35207\include\vector

; 830  :         _Tidy();

  000dc	e8 00 00 00 00	 call	 ?_Tidy@?$vector@VCPoint@@V?$allocator@VCPoint@@@std@@@std@@AAEXXZ ; std::vector<CPoint,std::allocator<CPoint> >::_Tidy
; File C:\Program Files\Microsoft Visual Studio\2022\Professional\VC\Tools\MSVC\14.44.35207\include\xmemory

; 289  :         ::operator delete(_Ptr, _Bytes);

  000e1	6a 20		 push	 32			; 00000020H
  000e3	53		 push	 ebx
  000e4	e8 00 00 00 00	 call	 ??3@YAXPAXI@Z		; operator delete
  000e9	83 c4 08	 add	 esp, 8
; File C:\Program Files\Microsoft Visual Studio\2022\Professional\VC\Tools\MSVC\14.44.35207\include\xtree

; 1033 :                     return {_Loc._Bound, false};

  000ec	eb 19		 jmp	 SHORT $LN179@insert
$LN6@insert:

; 1648 :         if (max_size() == _Get_scary()->_Mysize) {

  000ee	81 7f 04 ff ff
	ff 07		 cmp	 DWORD PTR [edi+4], 134217727 ; 07ffffffH
  000f5	74 2f		 je	 SHORT $LN202@insert

; 1042 :         return {_Scary->_Insert_node(_Loc._Location, _Inserted), true};

  000f7	53		 push	 ebx
  000f8	51		 push	 ecx
  000f9	52		 push	 edx
  000fa	8b cf		 mov	 ecx, edi
  000fc	e8 00 00 00 00	 call	 ?_Insert_node@?$_Tree_val@U?$_Tree_simple_types@U?$pair@$$CBEV?$vector@VCPoint@@V?$allocator@VCPoint@@@std@@@std@@@std@@@std@@@std@@QAEPAU?$_Tree_node@U?$pair@$$CBEV?$vector@VCPoint@@V?$allocator@VCPoint@@@std@@@std@@@std@@PAX@2@U?$_Tree_id@PAU?$_Tree_node@U?$pair@$$CBEV?$vector@VCPoint@@V?$allocator@VCPoint@@@std@@@std@@@std@@PAX@std@@@2@QAU32@@Z ; std::_Tree_val<std::_Tree_simple_types<std::pair<unsigned char const ,std::vector<CPoint,std::allocator<CPoint> > > > >::_Insert_node
; File C:\Program Files\Microsoft Visual Studio\2022\Professional\VC\Tools\MSVC\14.44.35207\include\utility

; 274  :         : first(_STD forward<_Other1>(_Val1)), second(_STD forward<_Other2>(_Val2)) {

  00101	8b f0		 mov	 esi, eax
  00103	c6 45 0f 01	 mov	 BYTE PTR __Result$3$sroa$546$1$[ebp], 1
$LN179@insert:
  00107	8b 45 08	 mov	 eax, DWORD PTR ___$ReturnUdt$[ebp]
  0010a	8a 4d 0f	 mov	 cl, BYTE PTR __Result$3$sroa$546$1$[ebp]
  0010d	89 30		 mov	 DWORD PTR [eax], esi
  0010f	88 48 04	 mov	 BYTE PTR [eax+4], cl
; File C:\Program Files\Microsoft Visual Studio\2022\Professional\VC\Tools\MSVC\14.44.35207\include\map

; 187  :     }

  00112	8b 4d f4	 mov	 ecx, DWORD PTR __$EHRec$[ebp]
  00115	64 89 0d 00 00
	00 00		 mov	 DWORD PTR fs:0, ecx
  0011c	59		 pop	 ecx
  0011d	5f		 pop	 edi
  0011e	5e		 pop	 esi
  0011f	5b		 pop	 ebx
  00120	8b e5		 mov	 esp, ebp
  00122	5d		 pop	 ebp
  00123	c2 08 00	 ret	 8
$LN202@insert:
; File C:\Program Files\Microsoft Visual Studio\2022\Professional\VC\Tools\MSVC\14.44.35207\include\xtree

; 1649 :             _Throw_tree_length_error();

  00126	e8 00 00 00 00	 call	 ?_Throw_tree_length_error@std@@YAXXZ ; std::_Throw_tree_length_error
$LN200@insert:
  0012b	cc		 int	 3
_TEXT	ENDS
;	COMDAT text$x
text$x	SEGMENT
__unwindfunclet$??$insert@U?$pair@HV?$vector@VCPoint@@V?$allocator@VCPoint@@@std@@@std@@@std@@$0A@@?$map@EV?$vector@VCPoint@@V?$allocator@VCPoint@@@std@@@std@@U?$less@E@2@V?$allocator@U?$pair@$$CBEV?$vector@VCPoint@@V?$allocator@VCPoint@@@std@@@std@@@std@@@2@@std@@QAE?AU?$pair@V?$_Tree_iterator@V?$_Tree_val@U?$_Tree_simple_types@U?$pair@$$CBEV?$vector@VCPoint@@V?$allocator@VCPoint@@@std@@@std@@@std@@@std@@@std@@@std@@_N@1@$$QAU?$pair@HV?$vector@VCPoint@@V?$allocator@VCPoint@@@std@@@std@@@1@@Z$2:
  00000	8d 4d e8	 lea	 ecx, DWORD PTR __Newnode$5[ebp]
  00003	e9 00 00 00 00	 jmp	 ??1?$_Alloc_construct_ptr@V?$allocator@U?$_Tree_node@U?$pair@$$CBEV?$vector@VCPoint@@V?$allocator@VCPoint@@@std@@@std@@@std@@PAX@std@@@std@@@std@@QAE@XZ ; std::_Alloc_construct_ptr<std::allocator<std::_Tree_node<std::pair<unsigned char const ,std::vector<CPoint,std::allocator<CPoint> > >,void *> > >::~_Alloc_construct_ptr<std::allocator<std::_Tree_node<std::pair<unsigned char const ,std::vector<CPoint,std::allocator<CPoint> > >,void *> > >
__unwindfunclet$??$insert@U?$pair@HV?$vector@VCPoint@@V?$allocator@VCPoint@@@std@@@std@@@std@@$0A@@?$map@EV?$vector@VCPoint@@V?$allocator@VCPoint@@@std@@@std@@U?$less@E@2@V?$allocator@U?$pair@$$CBEV?$vector@VCPoint@@V?$allocator@VCPoint@@@std@@@std@@@std@@@2@@std@@QAE?AU?$pair@V?$_Tree_iterator@V?$_Tree_val@U?$_Tree_simple_types@U?$pair@$$CBEV?$vector@VCPoint@@V?$allocator@VCPoint@@@std@@@std@@@std@@@std@@@std@@@std@@_N@1@$$QAU?$pair@HV?$vector@VCPoint@@V?$allocator@VCPoint@@@std@@@std@@@1@@Z$0:
  00008	8d 4d e8	 lea	 ecx, DWORD PTR __Newnode$5[ebp]
  0000b	e9 00 00 00 00	 jmp	 ??1?$_Tree_temp_node@V?$allocator@U?$_Tree_node@U?$pair@$$CBEV?$vector@VCPoint@@V?$allocator@VCPoint@@@std@@@std@@@std@@PAX@std@@@std@@@std@@QAE@XZ ; std::_Tree_temp_node<std::allocator<std::_Tree_node<std::pair<unsigned char const ,std::vector<CPoint,std::allocator<CPoint> > >,void *> > >::~_Tree_temp_node<std::allocator<std::_Tree_node<std::pair<unsigned char const ,std::vector<CPoint,std::allocator<CPoint> > >,void *> > >
  00010	cc		 int	 3
  00011	cc		 int	 3
  00012	cc		 int	 3
  00013	cc		 int	 3
  00014	cc		 int	 3
__ehhandler$??$insert@U?$pair@HV?$vector@VCPoint@@V?$allocator@VCPoint@@@std@@@std@@@std@@$0A@@?$map@EV?$vector@VCPoint@@V?$allocator@VCPoint@@@std@@@std@@U?$less@E@2@V?$allocator@U?$pair@$$CBEV?$vector@VCPoint@@V?$allocator@VCPoint@@@std@@@std@@@std@@@2@@std@@QAE?AU?$pair@V?$_Tree_iterator@V?$_Tree_val@U?$_Tree_simple_types@U?$pair@$$CBEV?$vector@VCPoint@@V?$allocator@VCPoint@@@std@@@std@@@std@@@std@@@std@@@std@@_N@1@$$QAU?$pair@HV?$vector@VCPoint@@V?$allocator@VCPoint@@@std@@@std@@@1@@Z:
  00015	90		 npad	 1
  00016	90		 npad	 1
  00017	8b 54 24 08	 mov	 edx, DWORD PTR [esp+8]
  0001b	8d 42 0c	 lea	 eax, DWORD PTR [edx+12]
  0001e	8b 4a e4	 mov	 ecx, DWORD PTR [edx-28]
  00021	33 c8		 xor	 ecx, eax
  00023	e8 00 00 00 00	 call	 @__security_check_cookie@4
  00028	b8 00 00 00 00	 mov	 eax, OFFSET __ehfuncinfo$??$insert@U?$pair@HV?$vector@VCPoint@@V?$allocator@VCPoint@@@std@@@std@@@std@@$0A@@?$map@EV?$vector@VCPoint@@V?$allocator@VCPoint@@@std@@@std@@U?$less@E@2@V?$allocator@U?$pair@$$CBEV?$vector@VCPoint@@V?$allocator@VCPoint@@@std@@@std@@@std@@@2@@std@@QAE?AU?$pair@V?$_Tree_iterator@V?$_Tree_val@U?$_Tree_simple_types@U?$pair@$$CBEV?$vector@VCPoint@@V?$allocator@VCPoint@@@std@@@std@@@std@@@std@@@std@@@std@@_N@1@$$QAU?$pair@HV?$vector@VCPoint@@V?$allocator@VCPoint@@@std@@@std@@@1@@Z
  0002d	e9 00 00 00 00	 jmp	 ___CxxFrameHandler3
text$x	ENDS
??$insert@U?$pair@HV?$vector@VCPoint@@V?$allocator@VCPoint@@@std@@@std@@@std@@$0A@@?$map@EV?$vector@VCPoint@@V?$allocator@VCPoint@@@std@@@std@@U?$less@E@2@V?$allocator@U?$pair@$$CBEV?$vector@VCPoint@@V?$allocator@VCPoint@@@std@@@std@@@std@@@2@@std@@QAE?AU?$pair@V?$_Tree_iterator@V?$_Tree_val@U?$_Tree_simple_types@U?$pair@$$CBEV?$vector@VCPoint@@V?$allocator@VCPoint@@@std@@@std@@@std@@@std@@@std@@@std@@_N@1@$$QAU?$pair@HV?$vector@VCPoint@@V?$allocator@VCPoint@@@std@@@std@@@1@@Z ENDP ; std::map<unsigned char,std::vector<CPoint,std::allocator<CPoint> >,std::less<unsigned char>,std::allocator<std::pair<unsigned char const ,std::vector<CPoint,std::allocator<CPoint> > > > >::insert<std::pair<int,std::vector<CPoint,std::allocator<CPoint> > >,0>
; Function compile flags: /Ogtp
; File C:\Program Files\Microsoft Visual Studio\2022\Professional\VC\Tools\MSVC\14.44.35207\include\vector
;	COMDAT ??1?$pair@HV?$vector@VCPoint@@V?$allocator@VCPoint@@@std@@@std@@@std@@QAE@XZ
_TEXT	SEGMENT
??1?$pair@HV?$vector@VCPoint@@V?$allocator@VCPoint@@@std@@@std@@@std@@QAE@XZ PROC ; std::pair<int,std::vector<CPoint,std::allocator<CPoint> > >::~pair<int,std::vector<CPoint,std::allocator<CPoint> > >, COMDAT
; _this$ = ecx
  00000	83 c1 04	 add	 ecx, 4

; 830  :         _Tidy();

  00003	e9 00 00 00 00	 jmp	 ?_Tidy@?$vector@VCPoint@@V?$allocator@VCPoint@@@std@@@std@@AAEXXZ ; std::vector<CPoint,std::allocator<CPoint> >::_Tidy
??1?$pair@HV?$vector@VCPoint@@V?$allocator@VCPoint@@@std@@@std@@@std@@QAE@XZ ENDP ; std::pair<int,std::vector<CPoint,std::allocator<CPoint> > >::~pair<int,std::vector<CPoint,std::allocator<CPoint> > >
_TEXT	ENDS
; Function compile flags: /Ogtp
; File C:\Program Files\Microsoft Visual Studio\2022\Professional\VC\Tools\MSVC\14.44.35207\include\vector
;	COMDAT ?_Xlength@?$vector@VCPoint@@V?$allocator@VCPoint@@@std@@@std@@CAXXZ
_TEXT	SEGMENT
?_Xlength@?$vector@VCPoint@@V?$allocator@VCPoint@@@std@@@std@@CAXXZ PROC ; std::vector<CPoint,std::allocator<CPoint> >::_Xlength, COMDAT

; 2184 :         _Xlength_error("vector too long");

  00000	68 00 00 00 00	 push	 OFFSET ??_C@_0BA@FOIKENOD@vector?5too?5long@
  00005	e8 00 00 00 00	 call	 ?_Xlength_error@std@@YAXPBD@Z ; std::_Xlength_error
$LN3@Xlength:
  0000a	cc		 int	 3
?_Xlength@?$vector@VCPoint@@V?$allocator@VCPoint@@@std@@@std@@CAXXZ ENDP ; std::vector<CPoint,std::allocator<CPoint> >::_Xlength
_TEXT	ENDS
; Function compile flags: /Ogtp
; File C:\Program Files\Microsoft Visual Studio\2022\Professional\VC\Tools\MSVC\14.44.35207\include\vector
; File C:\Program Files\Microsoft Visual Studio\2022\Professional\VC\Tools\MSVC\14.44.35207\include\xmemory
; File C:\Program Files\Microsoft Visual Studio\2022\Professional\VC\Tools\MSVC\14.44.35207\include\vector
; File C:\Program Files\Microsoft Visual Studio\2022\Professional\VC\Tools\MSVC\14.44.35207\include\xmemory
; File C:\Program Files\Microsoft Visual Studio\2022\Professional\VC\Tools\MSVC\14.44.35207\include\vector
; File C:\Program Files\Microsoft Visual Studio\2022\Professional\VC\Tools\MSVC\14.44.35207\include\xmemory
; File C:\Program Files\Microsoft Visual Studio\2022\Professional\VC\Tools\MSVC\14.44.35207\include\vector
;	COMDAT ?_Tidy@?$vector@VCPoint@@V?$allocator@VCPoint@@@std@@@std@@AAEXXZ
_TEXT	SEGMENT
?_Tidy@?$vector@VCPoint@@V?$allocator@VCPoint@@@std@@@std@@AAEXXZ PROC ; std::vector<CPoint,std::allocator<CPoint> >::_Tidy, COMDAT
; _this$ = ecx

; 2081 :     _CONSTEXPR20 void _Tidy() noexcept { // free all storage

  00000	56		 push	 esi
  00001	8b f1		 mov	 esi, ecx

; 2082 :         auto& _Al         = _Getal();
; 2083 :         auto& _My_data    = _Mypair._Myval2;
; 2084 :         pointer& _Myfirst = _My_data._Myfirst;
; 2085 :         pointer& _Mylast  = _My_data._Mylast;
; 2086 :         pointer& _Myend   = _My_data._Myend;
; 2087 : 
; 2088 :         _My_data._Orphan_all();
; 2089 : 
; 2090 :         if (_Myfirst) { // destroy and deallocate old array

  00003	8b 06		 mov	 eax, DWORD PTR [esi]
  00005	85 c0		 test	 eax, eax
  00007	74 40		 je	 SHORT $LN2@Tidy

; 2091 :             _STD _Destroy_range(_Myfirst, _Mylast, _Al);
; 2092 :             _ASAN_VECTOR_REMOVE;
; 2093 :             _Al.deallocate(_Myfirst, static_cast<size_type>(_Myend - _Myfirst));

  00009	8b 4e 08	 mov	 ecx, DWORD PTR [esi+8]
  0000c	2b c8		 sub	 ecx, eax
; File C:\Program Files\Microsoft Visual Studio\2022\Professional\VC\Tools\MSVC\14.44.35207\include\xmemory

; 985  :         _STD _Deallocate<_New_alignof<_Ty>>(_Ptr, sizeof(_Ty) * _Count);

  0000e	83 e1 f8	 and	 ecx, -8			; fffffff8H

; 284  :         if (_Bytes >= _Big_allocation_threshold) {

  00011	81 f9 00 10 00
	00		 cmp	 ecx, 4096		; 00001000H
  00017	72 12		 jb	 SHORT $LN15@Tidy

; 205  :     const uintptr_t _Ptr_container   = _Ptr_user[-1];

  00019	8b 50 fc	 mov	 edx, DWORD PTR [eax-4]
  0001c	83 c1 23	 add	 ecx, 35			; 00000023H

; 206  : 
; 207  :     // If the following asserts, it likely means that we are performing
; 208  :     // an aligned delete on memory coming from an unaligned allocation.
; 209  :     _STL_ASSERT(_Ptr_user[-2] == _Big_allocation_sentinel, "invalid argument");
; 210  : 
; 211  :     // Extra paranoia on aligned allocation/deallocation; ensure _Ptr_container is
; 212  :     // in range [_Min_back_shift, _Non_user_size]
; 213  : #ifdef _DEBUG
; 214  :     constexpr uintptr_t _Min_back_shift = 2 * sizeof(void*);
; 215  : #else // ^^^ defined(_DEBUG) / !defined(_DEBUG) vvv
; 216  :     constexpr uintptr_t _Min_back_shift = sizeof(void*);
; 217  : #endif // ^^^ !defined(_DEBUG) ^^^
; 218  :     const uintptr_t _Back_shift = reinterpret_cast<uintptr_t>(_Ptr) - _Ptr_container;

  0001f	2b c2		 sub	 eax, edx

; 219  :     _STL_VERIFY(_Back_shift >= _Min_back_shift && _Back_shift <= _Non_user_size, "invalid argument");

  00021	83 c0 fc	 add	 eax, -4			; fffffffcH
  00024	83 f8 1f	 cmp	 eax, 31			; 0000001fH
  00027	77 22		 ja	 SHORT $LN14@Tidy

; 220  :     _Ptr = reinterpret_cast<void*>(_Ptr_container);

  00029	8b c2		 mov	 eax, edx
$LN15@Tidy:

; 289  :         ::operator delete(_Ptr, _Bytes);

  0002b	51		 push	 ecx
  0002c	50		 push	 eax
  0002d	e8 00 00 00 00	 call	 ??3@YAXPAXI@Z		; operator delete
; File C:\Program Files\Microsoft Visual Studio\2022\Professional\VC\Tools\MSVC\14.44.35207\include\vector

; 2095 :             _Myfirst = nullptr;

  00032	c7 06 00 00 00
	00		 mov	 DWORD PTR [esi], 0
; File C:\Program Files\Microsoft Visual Studio\2022\Professional\VC\Tools\MSVC\14.44.35207\include\xmemory

; 289  :         ::operator delete(_Ptr, _Bytes);

  00038	83 c4 08	 add	 esp, 8
; File C:\Program Files\Microsoft Visual Studio\2022\Professional\VC\Tools\MSVC\14.44.35207\include\vector

; 2096 :             _Mylast  = nullptr;

  0003b	c7 46 04 00 00
	00 00		 mov	 DWORD PTR [esi+4], 0

; 2097 :             _Myend   = nullptr;

  00042	c7 46 08 00 00
	00 00		 mov	 DWORD PTR [esi+8], 0
$LN2@Tidy:

; 2099 :     }

  00049	5e		 pop	 esi
  0004a	c3		 ret	 0
$LN14@Tidy:
; File C:\Program Files\Microsoft Visual Studio\2022\Professional\VC\Tools\MSVC\14.44.35207\include\xmemory

; 219  :     _STL_VERIFY(_Back_shift >= _Min_back_shift && _Back_shift <= _Non_user_size, "invalid argument");

  0004b	6a 00		 push	 0
  0004d	6a 00		 push	 0
  0004f	6a 00		 push	 0
  00051	6a 00		 push	 0
  00053	6a 00		 push	 0
  00055	e8 00 00 00 00	 call	 __invoke_watson
$LN22@Tidy:
  0005a	cc		 int	 3
?_Tidy@?$vector@VCPoint@@V?$allocator@VCPoint@@@std@@@std@@AAEXXZ ENDP ; std::vector<CPoint,std::allocator<CPoint> >::_Tidy
_TEXT	ENDS
; Function compile flags: /Ogtp
; File C:\Program Files\Microsoft Visual Studio\2022\Professional\VC\Tools\MSVC\14.44.35207\include\vector
; File C:\Program Files\Microsoft Visual Studio\2022\Professional\VC\Tools\MSVC\14.44.35207\include\xmemory
; File C:\Program Files\Microsoft Visual Studio\2022\Professional\VC\Tools\MSVC\14.44.35207\include\vector
; File C:\Program Files\Microsoft Visual Studio\2022\Professional\VC\Tools\MSVC\14.44.35207\include\xmemory
; File C:\Program Files\Microsoft Visual Studio\2022\Professional\VC\Tools\MSVC\14.44.35207\include\vector
; File C:\Program Files\Microsoft Visual Studio\2022\Professional\VC\Tools\MSVC\14.44.35207\include\xmemory
; File C:\Program Files\Microsoft Visual Studio\2022\Professional\VC\Tools\MSVC\14.44.35207\include\vector
; File C:\Program Files\Microsoft Visual Studio\2022\Professional\VC\Tools\MSVC\14.44.35207\include\xmemory
; File C:\Program Files\Microsoft Visual Studio\2022\Professional\VC\Tools\MSVC\14.44.35207\include\vector
; File C:\Program Files\Microsoft Visual Studio\2022\Professional\VC\Tools\MSVC\14.44.35207\include\xmemory
; File C:\Program Files\Microsoft Visual Studio\2022\Professional\VC\Tools\MSVC\14.44.35207\include\vector
;	COMDAT ?_Buy_raw@?$vector@VCPoint@@V?$allocator@VCPoint@@@std@@@std@@AAEXI@Z
_TEXT	SEGMENT
__Newcapacity$ = 8					; size = 4
?_Buy_raw@?$vector@VCPoint@@V?$allocator@VCPoint@@@std@@@std@@AAEXI@Z PROC ; std::vector<CPoint,std::allocator<CPoint> >::_Buy_raw, COMDAT
; _this$ = ecx

; 2024 :     _CONSTEXPR20 void _Buy_raw(size_type _Newcapacity) {

  00000	55		 push	 ebp
  00001	8b ec		 mov	 ebp, esp
  00003	56		 push	 esi
; File C:\Program Files\Microsoft Visual Studio\2022\Professional\VC\Tools\MSVC\14.44.35207\include\xmemory

; 117  :         if (_Count > _Max_possible) {

  00004	8b 75 08	 mov	 esi, DWORD PTR __Newcapacity$[ebp]
; File C:\Program Files\Microsoft Visual Studio\2022\Professional\VC\Tools\MSVC\14.44.35207\include\vector

; 2024 :     _CONSTEXPR20 void _Buy_raw(size_type _Newcapacity) {

  00007	57		 push	 edi
  00008	8b f9		 mov	 edi, ecx
; File C:\Program Files\Microsoft Visual Studio\2022\Professional\VC\Tools\MSVC\14.44.35207\include\xmemory

; 117  :         if (_Count > _Max_possible) {

  0000a	81 fe ff ff ff
	1f		 cmp	 esi, 536870911		; 1fffffffH
  00010	77 52		 ja	 SHORT $LN25@Buy_raw

; 119  :         }
; 120  :     }
; 121  : 
; 122  :     return _Count * _Ty_size;

  00012	c1 e6 03	 shl	 esi, 3

; 227  :     if (_Bytes == 0) {

  00015	85 f6		 test	 esi, esi
  00017	75 12		 jne	 SHORT $LN12@Buy_raw

; 228  :         return nullptr;

  00019	33 c0		 xor	 eax, eax
; File C:\Program Files\Microsoft Visual Studio\2022\Professional\VC\Tools\MSVC\14.44.35207\include\vector

; 2035 :         _Myfirst              = _Newvec;

  0001b	89 07		 mov	 DWORD PTR [edi], eax

; 2036 :         _Mylast               = _Newvec;

  0001d	89 47 04	 mov	 DWORD PTR [edi+4], eax

; 2037 :         _Myend                = _Newvec + _Newcapacity;

  00020	8b c6		 mov	 eax, esi
  00022	89 47 08	 mov	 DWORD PTR [edi+8], eax

; 2038 :     }

  00025	5f		 pop	 edi
  00026	5e		 pop	 esi
  00027	5d		 pop	 ebp
  00028	c2 04 00	 ret	 4
$LN12@Buy_raw:
; File C:\Program Files\Microsoft Visual Studio\2022\Professional\VC\Tools\MSVC\14.44.35207\include\xmemory

; 251  :         if (_Bytes >= _Big_allocation_threshold) {

  0002b	56		 push	 esi
  0002c	81 fe 00 10 00
	00		 cmp	 esi, 4096		; 00001000H
  00032	72 18		 jb	 SHORT $LN13@Buy_raw

; 252  :             // boost the alignment of big allocations to help autovectorization
; 253  :             return _Allocate_manually_vector_aligned<_Traits>(_Bytes);

  00034	e8 00 00 00 00	 call	 ??$_Allocate_manually_vector_aligned@U_Default_allocate_traits@std@@@std@@YAPAXI@Z ; std::_Allocate_manually_vector_aligned<std::_Default_allocate_traits>
; File C:\Program Files\Microsoft Visual Studio\2022\Professional\VC\Tools\MSVC\14.44.35207\include\vector

; 2035 :         _Myfirst              = _Newvec;

  00039	89 07		 mov	 DWORD PTR [edi], eax
  0003b	83 c4 04	 add	 esp, 4

; 2036 :         _Mylast               = _Newvec;

  0003e	89 47 04	 mov	 DWORD PTR [edi+4], eax

; 2037 :         _Myend                = _Newvec + _Newcapacity;

  00041	03 c6		 add	 eax, esi
  00043	89 47 08	 mov	 DWORD PTR [edi+8], eax

; 2038 :     }

  00046	5f		 pop	 edi
  00047	5e		 pop	 esi
  00048	5d		 pop	 ebp
  00049	c2 04 00	 ret	 4
$LN13@Buy_raw:
; File C:\Program Files\Microsoft Visual Studio\2022\Professional\VC\Tools\MSVC\14.44.35207\include\xmemory

; 136  :         return ::operator new(_Bytes);

  0004c	e8 00 00 00 00	 call	 ??2@YAPAXI@Z		; operator new
; File C:\Program Files\Microsoft Visual Studio\2022\Professional\VC\Tools\MSVC\14.44.35207\include\vector

; 2035 :         _Myfirst              = _Newvec;

  00051	89 07		 mov	 DWORD PTR [edi], eax
  00053	83 c4 04	 add	 esp, 4

; 2036 :         _Mylast               = _Newvec;

  00056	89 47 04	 mov	 DWORD PTR [edi+4], eax

; 2037 :         _Myend                = _Newvec + _Newcapacity;

  00059	03 c6		 add	 eax, esi
  0005b	89 47 08	 mov	 DWORD PTR [edi+8], eax

; 2038 :     }

  0005e	5f		 pop	 edi
  0005f	5e		 pop	 esi
  00060	5d		 pop	 ebp
  00061	c2 04 00	 ret	 4
$LN25@Buy_raw:
; File C:\Program Files\Microsoft Visual Studio\2022\Professional\VC\Tools\MSVC\14.44.35207\include\xmemory

; 118  :             _Throw_bad_array_new_length(); // multiply overflow

  00064	e8 00 00 00 00	 call	 ?_Throw_bad_array_new_length@std@@YAXXZ ; std::_Throw_bad_array_new_length
$LN22@Buy_raw:
  00069	cc		 int	 3
?_Buy_raw@?$vector@VCPoint@@V?$allocator@VCPoint@@@std@@@std@@AAEXI@Z ENDP ; std::vector<CPoint,std::allocator<CPoint> >::_Buy_raw
_TEXT	ENDS
; Function compile flags: /Ogtp
; File C:\Program Files\Microsoft Visual Studio\2022\Professional\VC\Tools\MSVC\14.44.35207\include\vector
;	COMDAT ??1?$vector@VCPoint@@V?$allocator@VCPoint@@@std@@@std@@QAE@XZ
_TEXT	SEGMENT
??1?$vector@VCPoint@@V?$allocator@VCPoint@@@std@@@std@@QAE@XZ PROC ; std::vector<CPoint,std::allocator<CPoint> >::~vector<CPoint,std::allocator<CPoint> >, COMDAT
; _this$ = ecx

; 830  :         _Tidy();

  00000	e9 00 00 00 00	 jmp	 ?_Tidy@?$vector@VCPoint@@V?$allocator@VCPoint@@@std@@@std@@AAEXXZ ; std::vector<CPoint,std::allocator<CPoint> >::_Tidy
??1?$vector@VCPoint@@V?$allocator@VCPoint@@@std@@@std@@QAE@XZ ENDP ; std::vector<CPoint,std::allocator<CPoint> >::~vector<CPoint,std::allocator<CPoint> >
_TEXT	ENDS
; Function compile flags: /Ogtp
; File C:\Program Files\Microsoft Visual Studio\2022\Professional\VC\Tools\MSVC\14.44.35207\include\xmemory
;	COMDAT ?deallocate@?$allocator@VCPoint@@@std@@QAEXQAVCPoint@@I@Z
_TEXT	SEGMENT
__Ptr$ = 8						; size = 4
__Count$ = 12						; size = 4
?deallocate@?$allocator@VCPoint@@@std@@QAEXQAVCPoint@@I@Z PROC ; std::allocator<CPoint>::deallocate, COMDAT
; _this$ = ecx

; 982  :     _CONSTEXPR20 void deallocate(_Ty* const _Ptr, const size_t _Count) noexcept /* strengthened */ {

  00000	55		 push	 ebp
  00001	8b ec		 mov	 ebp, esp

; 983  :         _STL_ASSERT(_Ptr != nullptr || _Count == 0, "null pointer cannot point to a block of non-zero size");
; 984  :         // no overflow check on the following multiply; we assume _Allocate did that check
; 985  :         _STD _Deallocate<_New_alignof<_Ty>>(_Ptr, sizeof(_Ty) * _Count);

  00003	8b 45 0c	 mov	 eax, DWORD PTR __Count$[ebp]
  00006	8d 0c c5 00 00
	00 00		 lea	 ecx, DWORD PTR [eax*8]
  0000d	8b 45 08	 mov	 eax, DWORD PTR __Ptr$[ebp]

; 284  :         if (_Bytes >= _Big_allocation_threshold) {

  00010	81 f9 00 10 00
	00		 cmp	 ecx, 4096		; 00001000H
  00016	72 12		 jb	 SHORT $LN11@deallocate

; 205  :     const uintptr_t _Ptr_container   = _Ptr_user[-1];

  00018	8b 50 fc	 mov	 edx, DWORD PTR [eax-4]
  0001b	83 c1 23	 add	 ecx, 35			; 00000023H

; 206  : 
; 207  :     // If the following asserts, it likely means that we are performing
; 208  :     // an aligned delete on memory coming from an unaligned allocation.
; 209  :     _STL_ASSERT(_Ptr_user[-2] == _Big_allocation_sentinel, "invalid argument");
; 210  : 
; 211  :     // Extra paranoia on aligned allocation/deallocation; ensure _Ptr_container is
; 212  :     // in range [_Min_back_shift, _Non_user_size]
; 213  : #ifdef _DEBUG
; 214  :     constexpr uintptr_t _Min_back_shift = 2 * sizeof(void*);
; 215  : #else // ^^^ defined(_DEBUG) / !defined(_DEBUG) vvv
; 216  :     constexpr uintptr_t _Min_back_shift = sizeof(void*);
; 217  : #endif // ^^^ !defined(_DEBUG) ^^^
; 218  :     const uintptr_t _Back_shift = reinterpret_cast<uintptr_t>(_Ptr) - _Ptr_container;

  0001e	2b c2		 sub	 eax, edx

; 219  :     _STL_VERIFY(_Back_shift >= _Min_back_shift && _Back_shift <= _Non_user_size, "invalid argument");

  00020	83 c0 fc	 add	 eax, -4			; fffffffcH
  00023	83 f8 1f	 cmp	 eax, 31			; 0000001fH
  00026	77 10		 ja	 SHORT $LN10@deallocate

; 220  :     _Ptr = reinterpret_cast<void*>(_Ptr_container);

  00028	8b c2		 mov	 eax, edx
$LN11@deallocate:

; 289  :         ::operator delete(_Ptr, _Bytes);

  0002a	51		 push	 ecx
  0002b	50		 push	 eax
  0002c	e8 00 00 00 00	 call	 ??3@YAXPAXI@Z		; operator delete
  00031	83 c4 08	 add	 esp, 8

; 986  :     }

  00034	5d		 pop	 ebp
  00035	c2 08 00	 ret	 8
$LN10@deallocate:

; 219  :     _STL_VERIFY(_Back_shift >= _Min_back_shift && _Back_shift <= _Non_user_size, "invalid argument");

  00038	6a 00		 push	 0
  0003a	6a 00		 push	 0
  0003c	6a 00		 push	 0
  0003e	6a 00		 push	 0
  00040	6a 00		 push	 0
  00042	e8 00 00 00 00	 call	 __invoke_watson
$LN14@deallocate:
  00047	cc		 int	 3
?deallocate@?$allocator@VCPoint@@@std@@QAEXQAVCPoint@@I@Z ENDP ; std::allocator<CPoint>::deallocate
_TEXT	ENDS
; Function compile flags: /Ogtp
;	COMDAT ??__FsContinent@?1??GetInstance@CContinent@@SAPAV1@XZ@YAXXZ
text$yd	SEGMENT
??__FsContinent@?1??GetInstance@CContinent@@SAPAV1@XZ@YAXXZ PROC ; `CContinent::GetInstance'::`2'::`dynamic atexit destructor for 'sContinent'', COMDAT
  00000	b9 00 00 00 00	 mov	 ecx, OFFSET ?sContinent@?1??GetInstance@CContinent@@SAPAV2@XZ@4V2@A
  00005	e9 00 00 00 00	 jmp	 ??1CContinent@@UAE@XZ	; CContinent::~CContinent
??__FsContinent@?1??GetInstance@CContinent@@SAPAV1@XZ@YAXXZ ENDP ; `CContinent::GetInstance'::`2'::`dynamic atexit destructor for 'sContinent''
text$yd	ENDS
; Function compile flags: /Ogtp
;	COMDAT ??_GCContinent@@UAEPAXI@Z
_TEXT	SEGMENT
___flags$ = 8						; size = 4
??_GCContinent@@UAEPAXI@Z PROC				; CContinent::`scalar deleting destructor', COMDAT
; _this$ = ecx
  00000	55		 push	 ebp
  00001	8b ec		 mov	 ebp, esp
  00003	56		 push	 esi
  00004	8b f1		 mov	 esi, ecx
  00006	e8 00 00 00 00	 call	 ??1CContinent@@UAE@XZ	; CContinent::~CContinent
  0000b	f6 45 08 01	 test	 BYTE PTR ___flags$[ebp], 1
  0000f	74 0b		 je	 SHORT $LN5@scalar
  00011	6a 14		 push	 20			; 00000014H
  00013	56		 push	 esi
  00014	e8 00 00 00 00	 call	 ??3@YAXPAXI@Z		; operator delete
  00019	83 c4 08	 add	 esp, 8
$LN5@scalar:
  0001c	8b c6		 mov	 eax, esi
  0001e	5e		 pop	 esi
  0001f	5d		 pop	 ebp
  00020	c2 04 00	 ret	 4
??_GCContinent@@UAEPAXI@Z ENDP				; CContinent::`scalar deleting destructor'
_TEXT	ENDS
; Function compile flags: /Ogtp
; File C:\IAGOS\server\v18\Source\Source\_Common\Continent.cpp
; File C:\Program Files\Microsoft Visual Studio\2022\Professional\VC\Tools\MSVC\14.44.35207\include\vector
; File C:\IAGOS\server\v18\Source\Source\_Common\Continent.cpp
; File C:\Program Files\Microsoft Visual Studio\2022\Professional\VC\Tools\MSVC\14.44.35207\include\xtree
; File C:\IAGOS\server\v18\Source\Source\_Common\Continent.cpp
; File C:\Program Files\Microsoft Visual Studio\2022\Professional\VC\Tools\MSVC\14.44.35207\include\vector
; File C:\Program Files\Microsoft Visual Studio\2022\Professional\VC\Tools\MSVC\14.44.35207\include\xmemory
; File C:\Program Files\Microsoft Visual Studio\2022\Professional\VC\Tools\MSVC\14.44.35207\include\vector
; File C:\Program Files\Microsoft Visual Studio\2022\Professional\VC\Tools\MSVC\14.44.35207\include\xmemory
; File C:\Program Files\Microsoft Visual Studio\2022\Professional\VC\Tools\MSVC\14.44.35207\include\vector
; File C:\Program Files\Microsoft Visual Studio\2022\Professional\VC\Tools\MSVC\14.44.35207\include\xmemory
; File C:\Program Files\Microsoft Visual Studio\2022\Professional\VC\Tools\MSVC\14.44.35207\include\vector
; File C:\Program Files\Microsoft Visual Studio\2022\Professional\VC\Tools\MSVC\14.44.35207\include\xmemory
; File C:\Program Files\Microsoft Visual Studio\2022\Professional\VC\Tools\MSVC\14.44.35207\include\vector
; File C:\Program Files\Microsoft Visual Studio\2022\Professional\VC\Tools\MSVC\14.44.35207\include\xutility
; File C:\Program Files\Microsoft Visual Studio\2022\Professional\VC\Tools\MSVC\14.44.35207\include\vector
; File C:\Program Files\Microsoft Visual Studio\2022\Professional\VC\Tools\MSVC\14.44.35207\include\xutility
; File C:\Program Files\Microsoft Visual Studio\2022\Professional\VC\Tools\MSVC\14.44.35207\include\vector
; File C:\IAGOS\server\v18\Source\Source\_Common\Continent.cpp
; File C:\Program Files\Microsoft Visual Studio\2022\Professional\VC\Tools\MSVC\14.44.35207\include\vector
; File C:\IAGOS\server\v18\Source\Source\_Common\Continent.cpp
; File C:\Program Files\Microsoft Visual Studio\2022\Professional\VC\Tools\MSVC\14.44.35207\include\vector
; File C:\IAGOS\server\v18\Source\Source\_Common\Continent.cpp
; File C:\Program Files\Microsoft Visual Studio\2022\Professional\VC\Tools\MSVC\14.44.35207\include\vector
; File C:\IAGOS\server\v18\Source\Source\_Common\Continent.cpp
; File C:\Program Files\Microsoft Visual Studio\2022\Professional\VC\Tools\MSVC\14.44.35207\include\vector
; File C:\Program Files\Microsoft Visual Studio\2022\Professional\VC\Tools\MSVC\14.44.35207\include\xmemory
; File C:\Program Files\Microsoft Visual Studio\2022\Professional\VC\Tools\MSVC\14.44.35207\include\vector
; File C:\Program Files\Microsoft Visual Studio\2022\Professional\VC\Tools\MSVC\14.44.35207\include\xmemory
; File C:\Program Files\Microsoft Visual Studio\2022\Professional\VC\Tools\MSVC\14.44.35207\include\vector
; File C:\IAGOS\server\v18\Source\Source\_Common\Continent.cpp
; File C:\Program Files\Microsoft Visual Studio\2022\Professional\VC\Tools\MSVC\14.44.35207\include\xtree
; File C:\IAGOS\server\v18\Source\Source\_Common\Continent.cpp
; File C:\Program Files\Microsoft Visual Studio\2022\Professional\VC\Tools\MSVC\14.44.35207\include\vector
; File C:\Program Files\Microsoft Visual Studio\2022\Professional\VC\Tools\MSVC\14.44.35207\include\xmemory
; File C:\Program Files\Microsoft Visual Studio\2022\Professional\VC\Tools\MSVC\14.44.35207\include\vector
; File C:\Program Files\Microsoft Visual Studio\2022\Professional\VC\Tools\MSVC\14.44.35207\include\xmemory
; File C:\IAGOS\server\v18\Source\Source\_Common\Continent.cpp
; File C:\Program Files\Microsoft Visual Studio\2022\Professional\VC\Tools\MSVC\14.44.35207\include\vector
; File C:\Program Files\Microsoft Visual Studio\2022\Professional\VC\Tools\MSVC\14.44.35207\include\xmemory
; File C:\IAGOS\server\v18\Source\Source\_Common\Continent.cpp
;	COMDAT ?GetTown@CContinent@@QAEEABUD3DXVECTOR3@@@Z
_TEXT	SEGMENT
_vecPoint$ = -48					; size = 12
_this$1$ = -36						; size = 4
_cpoint$1$ = -32					; size = 4
_cpoint$2$ = -28					; size = 4
_this$1$ = -24						; size = 4
__Oldsize$1$ = -24					; size = 4
$T2 = -20						; size = 4
__Bytes$1$ = -20					; size = 4
_vecPoint$3$ = -16					; size = 4
__$EHRec$ = -12						; size = 12
_vPos$ = 8						; size = 4
__First$2$ = 8						; size = 4
__Count$1$ = 8						; size = 4
$T3 = 11						; size = 1
?GetTown@CContinent@@QAEEABUD3DXVECTOR3@@@Z PROC	; CContinent::GetTown, COMDAT
; _this$ = ecx

; 307  : {

  00000	55		 push	 ebp
  00001	8b ec		 mov	 ebp, esp
  00003	6a ff		 push	 -1
  00005	68 00 00 00 00	 push	 __ehhandler$?GetTown@CContinent@@QAEEABUD3DXVECTOR3@@@Z
  0000a	64 a1 00 00 00
	00		 mov	 eax, DWORD PTR fs:0
  00010	50		 push	 eax
  00011	83 ec 24	 sub	 esp, 36			; 00000024H
  00014	53		 push	 ebx
  00015	56		 push	 esi
  00016	57		 push	 edi
  00017	a1 00 00 00 00	 mov	 eax, DWORD PTR ___security_cookie
  0001c	33 c5		 xor	 eax, ebp
  0001e	50		 push	 eax
  0001f	8d 45 f4	 lea	 eax, DWORD PTR __$EHRec$[ebp]
  00022	64 a3 00 00 00
	00		 mov	 DWORD PTR fs:0, eax
  00028	8b f1		 mov	 esi, ecx
  0002a	89 75 dc	 mov	 DWORD PTR _this$1$[ebp], esi
; File C:\Program Files\Microsoft Visual Studio\2022\Professional\VC\Tools\MSVC\14.44.35207\include\vector

; 400  :     _CONSTEXPR20 _Vector_val() noexcept : _Myfirst(), _Mylast(), _Myend() {}

  0002d	33 d2		 xor	 edx, edx
  0002f	33 c9		 xor	 ecx, ecx
  00031	33 db		 xor	 ebx, ebx
  00033	89 55 f0	 mov	 DWORD PTR _vecPoint$3$[ebp], edx
  00036	89 5d d0	 mov	 DWORD PTR _vecPoint$[ebp], ebx
  00039	89 55 d4	 mov	 DWORD PTR _vecPoint$[ebp+4], edx
  0003c	89 4d ec	 mov	 DWORD PTR __Bytes$1$[ebp], ecx
  0003f	89 4d d8	 mov	 DWORD PTR _vecPoint$[ebp+8], ecx
; File C:\IAGOS\server\v18\Source\Source\_Common\Continent.cpp

; 311  : 	cpoint.x    = (long)( vPos.x );

  00042	8b 45 08	 mov	 eax, DWORD PTR _vPos$[ebp]
  00045	89 4d fc	 mov	 DWORD PTR __$EHRec$[ebp+8], ecx
  00048	f3 0f 2c 38	 cvttss2si edi, DWORD PTR [eax]

; 312  : 	cpoint.y    = (long)( vPos.z );

  0004c	f3 0f 2c 40 08	 cvttss2si eax, DWORD PTR [eax+8]
  00051	89 7d e0	 mov	 DWORD PTR _cpoint$1$[ebp], edi
  00054	89 45 e4	 mov	 DWORD PTR _cpoint$2$[ebp], eax
; File C:\Program Files\Microsoft Visual Studio\2022\Professional\VC\Tools\MSVC\14.44.35207\include\xtree

; 1142 :         return iterator(_Scary->_Myhead->_Left, _Scary);

  00057	8b 46 0c	 mov	 eax, DWORD PTR [esi+12]

; 37   :     _Tree_unchecked_const_iterator(_Nodeptr _Pnode, const _Mytree* _Plist) noexcept : _Ptr(_Pnode) {

  0005a	8b 30		 mov	 esi, DWORD PTR [eax]

; 237  :         return !(*this == _Right);

  0005c	3b f0		 cmp	 esi, eax
; File C:\IAGOS\server\v18\Source\Source\_Common\Continent.cpp

; 314  : 	for( map< BYTE, vector<CPoint> >::iterator iter = m_MapContTown.begin(); iter != m_MapContTown.end(); ++iter )

  0005e	0f 84 b1 01 00
	00		 je	 $LN3@GetTown
$LL4@GetTown:

; 315  : 	{
; 316  : 		vecPoint  = iter->second;	

  00064	8d 7e 14	 lea	 edi, DWORD PTR [esi+20]
; File C:\Program Files\Microsoft Visual Studio\2022\Professional\VC\Tools\MSVC\14.44.35207\include\vector

; 1524 :         if (this == _STD addressof(_Right)) {

  00067	8d 45 d0	 lea	 eax, DWORD PTR _vecPoint$[ebp]
  0006a	3b c7		 cmp	 eax, edi
  0006c	0f 84 e2 00 00
	00		 je	 $LN87@GetTown

; 1525 :             return *this;
; 1526 :         }
; 1527 : 
; 1528 :         auto& _Al       = _Getal();
; 1529 :         auto& _Right_al = _Right._Getal();
; 1530 :         if constexpr (_Choose_pocca_v<_Alty>) {
; 1531 :             if (_Al != _Right_al) {
; 1532 :                 _Tidy();
; 1533 :                 _Mypair._Myval2._Reload_proxy(_GET_PROXY_ALLOCATOR(_Alty, _Al), _GET_PROXY_ALLOCATOR(_Alty, _Right_al));
; 1534 :             }
; 1535 :         }
; 1536 : 
; 1537 :         _Pocca(_Al, _Right_al);
; 1538 :         auto& _Right_data = _Right._Mypair._Myval2;
; 1539 :         _Assign_counted_range(_Right_data._Myfirst, static_cast<size_type>(_Right_data._Mylast - _Right_data._Myfirst));

  00072	8b 07		 mov	 eax, DWORD PTR [edi]

; 1432 :         const auto _Oldcapacity = static_cast<size_type>(_Myend - _Myfirst);

  00074	2b cb		 sub	 ecx, ebx

; 1539 :         _Assign_counted_range(_Right_data._Myfirst, static_cast<size_type>(_Right_data._Mylast - _Right_data._Myfirst));

  00076	8b 7f 04	 mov	 edi, DWORD PTR [edi+4]
  00079	2b f8		 sub	 edi, eax

; 1432 :         const auto _Oldcapacity = static_cast<size_type>(_Myend - _Myfirst);

  0007b	c1 f9 03	 sar	 ecx, 3

; 1539 :         _Assign_counted_range(_Right_data._Myfirst, static_cast<size_type>(_Right_data._Mylast - _Right_data._Myfirst));

  0007e	c1 ff 03	 sar	 edi, 3
  00081	89 45 08	 mov	 DWORD PTR __First$2$[ebp], eax

; 1433 :         if (_Newsize > _Oldcapacity) {

  00084	3b f9		 cmp	 edi, ecx
  00086	76 78		 jbe	 SHORT $LN85@GetTown

; 1703 :         if (_Newsize > max_size()) {

  00088	81 ff ff ff ff
	1f		 cmp	 edi, 536870911		; 1fffffffH
  0008e	0f 87 cc 01 00
	00		 ja	 $LN206@GetTown

; 2011 :         if (_Oldcapacity > _Max - _Oldcapacity / 2) {

  00094	8b d1		 mov	 edx, ecx
  00096	b8 ff ff ff 1f	 mov	 eax, 536870911		; 1fffffffH
  0009b	d1 ea		 shr	 edx, 1
  0009d	2b c2		 sub	 eax, edx
  0009f	3b c8		 cmp	 ecx, eax
  000a1	76 09		 jbe	 SHORT $LN95@GetTown

; 2012 :             return _Max; // geometric growth would overflow

  000a3	c7 45 ec ff ff
	ff 1f		 mov	 DWORD PTR $T2[ebp], 536870911 ; 1fffffffH
  000aa	eb 0b		 jmp	 SHORT $LN96@GetTown
$LN95@GetTown:

; 2013 :         }
; 2014 : 
; 2015 :         const size_type _Geometric = _Oldcapacity + _Oldcapacity / 2;

  000ac	8d 04 0a	 lea	 eax, DWORD PTR [edx+ecx]

; 2016 : 
; 2017 :         if (_Geometric < _Newsize) {

  000af	3b c7		 cmp	 eax, edi
  000b1	0f 42 c7	 cmovb	 eax, edi
  000b4	89 45 ec	 mov	 DWORD PTR $T2[ebp], eax
$LN96@GetTown:

; 1709 :         if (_Myfirst) { // destroy and deallocate old array

  000b7	85 db		 test	 ebx, ebx
  000b9	74 1f		 je	 SHORT $LN92@GetTown

; 1710 :             _Destroy_range(_Myfirst, _Mylast, _Al);
; 1711 :             _ASAN_VECTOR_REMOVE;
; 1712 :             _Al.deallocate(_Myfirst, static_cast<size_type>(_Myend - _Myfirst));

  000bb	51		 push	 ecx
  000bc	53		 push	 ebx
  000bd	8d 4d d0	 lea	 ecx, DWORD PTR _vecPoint$[ebp]
  000c0	e8 00 00 00 00	 call	 ?deallocate@?$allocator@VCPoint@@@std@@QAEXQAVCPoint@@I@Z ; std::allocator<CPoint>::deallocate

; 1713 : 
; 1714 :             _Myfirst = nullptr;

  000c5	c7 45 d0 00 00
	00 00		 mov	 DWORD PTR _vecPoint$[ebp], 0

; 1715 :             _Mylast  = nullptr;

  000cc	c7 45 d4 00 00
	00 00		 mov	 DWORD PTR _vecPoint$[ebp+4], 0

; 1716 :             _Myend   = nullptr;

  000d3	c7 45 d8 00 00
	00 00		 mov	 DWORD PTR _vecPoint$[ebp+8], 0
$LN92@GetTown:

; 1717 :         }
; 1718 : 
; 1719 :         _Buy_raw(_Newcapacity);

  000da	ff 75 ec	 push	 DWORD PTR $T2[ebp]
  000dd	8d 4d d0	 lea	 ecx, DWORD PTR _vecPoint$[ebp]
  000e0	e8 00 00 00 00	 call	 ?_Buy_raw@?$vector@VCPoint@@V?$allocator@VCPoint@@@std@@@std@@AAEXI@Z ; std::vector<CPoint,std::allocator<CPoint> >::_Buy_raw
; File C:\Program Files\Microsoft Visual Studio\2022\Professional\VC\Tools\MSVC\14.44.35207\include\xmemory

; 1930 :             _STD _Copy_memmove_n(_UFirst, _Count, _STD _Unfancy(_Dest));

  000e5	8b 5d d0	 mov	 ebx, DWORD PTR _vecPoint$[ebp]
  000e8	53		 push	 ebx
  000e9	57		 push	 edi
  000ea	ff 75 08	 push	 DWORD PTR __First$2$[ebp]
  000ed	e8 00 00 00 00	 call	 ??$_Copy_memmove_n@PAVCPoint@@PAV1@@std@@YAPAVCPoint@@PAV1@I0@Z ; std::_Copy_memmove_n<CPoint *,CPoint *>
; File C:\Program Files\Microsoft Visual Studio\2022\Professional\VC\Tools\MSVC\14.44.35207\include\vector

; 1442 :             return;

  000f2	8b 45 d8	 mov	 eax, DWORD PTR _vecPoint$[ebp+8]
; File C:\Program Files\Microsoft Visual Studio\2022\Professional\VC\Tools\MSVC\14.44.35207\include\xmemory

; 1931 :             _Dest += _Count;

  000f5	8d 14 fb	 lea	 edx, DWORD PTR [ebx+edi*8]
  000f8	89 55 f0	 mov	 DWORD PTR _vecPoint$3$[ebp], edx
; File C:\Program Files\Microsoft Visual Studio\2022\Professional\VC\Tools\MSVC\14.44.35207\include\vector

; 1442 :             return;

  000fb	89 45 ec	 mov	 DWORD PTR __Bytes$1$[ebp], eax
  000fe	eb 4e		 jmp	 SHORT $LN224@GetTown
$LN85@GetTown:

; 1443 :         }
; 1444 : 
; 1445 :         const auto _Oldsize = static_cast<size_type>(_Mylast - _Myfirst);

  00100	8b c2		 mov	 eax, edx
  00102	2b c3		 sub	 eax, ebx
  00104	c1 f8 03	 sar	 eax, 3
  00107	89 45 e8	 mov	 DWORD PTR __Oldsize$1$[ebp], eax

; 1446 :         if (_Newsize > _Oldsize) {

  0010a	53		 push	 ebx
  0010b	3b f8		 cmp	 edi, eax
  0010d	76 2d		 jbe	 SHORT $LN86@GetTown

; 1447 :             bool _Copied = false;
; 1448 :             if constexpr (_Iter_copy_cat<_Iter, pointer>::_Bitcopy_assignable) {
; 1449 : #if _HAS_CXX20
; 1450 :                 if (!_STD is_constant_evaluated())
; 1451 : #endif // _HAS_CXX20
; 1452 :                 {
; 1453 :                     _Copy_memmove_n(_First, static_cast<size_t>(_Oldsize), _Myfirst);

  0010f	50		 push	 eax
  00110	ff 75 08	 push	 DWORD PTR __First$2$[ebp]
  00113	e8 00 00 00 00	 call	 ??$_Copy_memmove_n@PAVCPoint@@PAV1@@std@@YAPAVCPoint@@PAV1@I0@Z ; std::_Copy_memmove_n<CPoint *,CPoint *>

; 1454 :                     _First += _Oldsize;

  00118	8b 4d e8	 mov	 ecx, DWORD PTR __Oldsize$1$[ebp]

; 1467 :                 _Mylast = _STD _Uninitialized_copy_n(_STD move(_First), _Newsize - _Oldsize, _Mylast, _Al);

  0011b	2b f9		 sub	 edi, ecx
  0011d	8b 45 08	 mov	 eax, DWORD PTR __First$2$[ebp]
  00120	8d 04 c8	 lea	 eax, DWORD PTR [eax+ecx*8]
; File C:\Program Files\Microsoft Visual Studio\2022\Professional\VC\Tools\MSVC\14.44.35207\include\xmemory

; 1930 :             _STD _Copy_memmove_n(_UFirst, _Count, _STD _Unfancy(_Dest));

  00123	8b 4d f0	 mov	 ecx, DWORD PTR _vecPoint$3$[ebp]
  00126	51		 push	 ecx
  00127	57		 push	 edi
  00128	50		 push	 eax
  00129	e8 00 00 00 00	 call	 ??$_Copy_memmove_n@PAVCPoint@@PAV1@@std@@YAPAVCPoint@@PAV1@I0@Z ; std::_Copy_memmove_n<CPoint *,CPoint *>
; File C:\Program Files\Microsoft Visual Studio\2022\Professional\VC\Tools\MSVC\14.44.35207\include\vector

; 1467 :                 _Mylast = _STD _Uninitialized_copy_n(_STD move(_First), _Newsize - _Oldsize, _Mylast, _Al);

  0012e	8b 55 f0	 mov	 edx, DWORD PTR _vecPoint$3$[ebp]
; File C:\Program Files\Microsoft Visual Studio\2022\Professional\VC\Tools\MSVC\14.44.35207\include\xmemory

; 1930 :             _STD _Copy_memmove_n(_UFirst, _Count, _STD _Unfancy(_Dest));

  00131	83 c4 18	 add	 esp, 24			; 00000018H
; File C:\Program Files\Microsoft Visual Studio\2022\Professional\VC\Tools\MSVC\14.44.35207\include\vector

; 1467 :                 _Mylast = _STD _Uninitialized_copy_n(_STD move(_First), _Newsize - _Oldsize, _Mylast, _Al);

  00134	8d 14 fa	 lea	 edx, DWORD PTR [edx+edi*8]
  00137	89 55 f0	 mov	 DWORD PTR _vecPoint$3$[ebp], edx

; 1468 :             } else {
; 1469 :                 _ASAN_VECTOR_EXTEND_GUARD(_Newsize);
; 1470 :                 _Mylast = _STD _Uninitialized_copy_n(_STD move(_First), _Newsize - _Oldsize, _Mylast, _Al);
; 1471 :                 _ASAN_VECTOR_RELEASE_GUARD;
; 1472 :             }
; 1473 :         } else {

  0013a	eb 15		 jmp	 SHORT $LN225@GetTown
$LN86@GetTown:
; File C:\Program Files\Microsoft Visual Studio\2022\Professional\VC\Tools\MSVC\14.44.35207\include\xutility

; 4808 :             return _Copy_memmove_n(_First, static_cast<size_t>(_Count), _Dest);

  0013c	57		 push	 edi
  0013d	ff 75 08	 push	 DWORD PTR __First$2$[ebp]
; File C:\Program Files\Microsoft Visual Studio\2022\Professional\VC\Tools\MSVC\14.44.35207\include\vector

; 1474 :             const pointer _Newlast = _Myfirst + _Newsize;

  00140	8d 0c fb	 lea	 ecx, DWORD PTR [ebx+edi*8]
  00143	89 4d f0	 mov	 DWORD PTR _vecPoint$3$[ebp], ecx
; File C:\Program Files\Microsoft Visual Studio\2022\Professional\VC\Tools\MSVC\14.44.35207\include\xutility

; 4808 :             return _Copy_memmove_n(_First, static_cast<size_t>(_Count), _Dest);

  00146	e8 00 00 00 00	 call	 ??$_Copy_memmove_n@PAVCPoint@@PAV1@@std@@YAPAVCPoint@@PAV1@I0@Z ; std::_Copy_memmove_n<CPoint *,CPoint *>
; File C:\Program Files\Microsoft Visual Studio\2022\Professional\VC\Tools\MSVC\14.44.35207\include\vector

; 1478 :             _Mylast = _Newlast;

  0014b	8b 55 f0	 mov	 edx, DWORD PTR _vecPoint$3$[ebp]
$LN224@GetTown:
; File C:\IAGOS\server\v18\Source\Source\_Common\Continent.cpp

; 317  : 		if( Point_In_Poly( vecPoint, cpoint ) )

  0014e	83 c4 0c	 add	 esp, 12			; 0000000cH
$LN225@GetTown:
  00151	89 55 d4	 mov	 DWORD PTR _vecPoint$[ebp+4], edx
$LN87@GetTown:
  00154	ff 75 e4	 push	 DWORD PTR _cpoint$2$[ebp]
; File C:\Program Files\Microsoft Visual Studio\2022\Professional\VC\Tools\MSVC\14.44.35207\include\vector

; 748  :         const auto _Count       = static_cast<size_type>(_Right_data._Mylast - _Right_data._Myfirst);

  00157	8b c2		 mov	 eax, edx
; File C:\IAGOS\server\v18\Source\Source\_Common\Continent.cpp

; 317  : 		if( Point_In_Poly( vecPoint, cpoint ) )

  00159	ff 75 e0	 push	 DWORD PTR _cpoint$1$[ebp]
; File C:\Program Files\Microsoft Visual Studio\2022\Professional\VC\Tools\MSVC\14.44.35207\include\vector

; 748  :         const auto _Count       = static_cast<size_type>(_Right_data._Mylast - _Right_data._Myfirst);

  0015c	2b c3		 sub	 eax, ebx
; File C:\IAGOS\server\v18\Source\Source\_Common\Continent.cpp

; 317  : 		if( Point_In_Poly( vecPoint, cpoint ) )

  0015e	83 ec 0c	 sub	 esp, 12			; 0000000cH
; File C:\Program Files\Microsoft Visual Studio\2022\Professional\VC\Tools\MSVC\14.44.35207\include\vector

; 748  :         const auto _Count       = static_cast<size_type>(_Right_data._Mylast - _Right_data._Myfirst);

  00161	c1 f8 03	 sar	 eax, 3
  00164	89 45 08	 mov	 DWORD PTR __Count$1$[ebp], eax
; File C:\IAGOS\server\v18\Source\Source\_Common\Continent.cpp

; 317  : 		if( Point_In_Poly( vecPoint, cpoint ) )

  00167	8b fc		 mov	 edi, esp
  00169	89 7d e8	 mov	 DWORD PTR _this$1$[ebp], edi
; File C:\Program Files\Microsoft Visual Studio\2022\Professional\VC\Tools\MSVC\14.44.35207\include\vector

; 400  :     _CONSTEXPR20 _Vector_val() noexcept : _Myfirst(), _Mylast(), _Myend() {}

  0016c	c7 07 00 00 00
	00		 mov	 DWORD PTR [edi], 0
  00172	c7 47 04 00 00
	00 00		 mov	 DWORD PTR [edi+4], 0
  00179	c7 47 08 00 00
	00 00		 mov	 DWORD PTR [edi+8], 0

; 2111 :         if (_Count != 0) {

  00180	85 c0		 test	 eax, eax
  00182	74 2f		 je	 SHORT $LN159@GetTown

; 2051 :         if (_Newcapacity > max_size()) {

  00184	3d ff ff ff 1f	 cmp	 eax, 536870911		; 1fffffffH
  00189	0f 87 d1 00 00
	00		 ja	 $LN206@GetTown

; 2053 :         }
; 2054 : 
; 2055 :         _Buy_raw(_Newcapacity);

  0018f	50		 push	 eax
  00190	8b cf		 mov	 ecx, edi
  00192	e8 00 00 00 00	 call	 ?_Buy_raw@?$vector@VCPoint@@V?$allocator@VCPoint@@@std@@@std@@AAEXI@Z ; std::vector<CPoint,std::allocator<CPoint> >::_Buy_raw

; 2120 :                 _My_data._Mylast = _STD _Uninitialized_copy(_STD forward<_Valty>(_Val)..., _My_data._Myfirst, _Al);

  00197	8b 3f		 mov	 edi, DWORD PTR [edi]
; File C:\Program Files\Microsoft Visual Studio\2022\Professional\VC\Tools\MSVC\14.44.35207\include\xmemory

; 1889 :                 _STD _Copy_memmove(_STD _To_address(_UFirst), _STD _To_address(_ULast), _STD _Unfancy(_Dest));

  00199	8b 4d f0	 mov	 ecx, DWORD PTR _vecPoint$3$[ebp]
  0019c	57		 push	 edi
  0019d	51		 push	 ecx
  0019e	53		 push	 ebx
  0019f	e8 00 00 00 00	 call	 ??$_Copy_memmove@PAVCPoint@@PAV1@@std@@YAPAVCPoint@@PAV1@00@Z ; std::_Copy_memmove<CPoint *,CPoint *>

; 1890 :                 _Dest += _ULast - _UFirst;

  001a4	8b 45 08	 mov	 eax, DWORD PTR __Count$1$[ebp]
  001a7	83 c4 0c	 add	 esp, 12			; 0000000cH
; File C:\Program Files\Microsoft Visual Studio\2022\Professional\VC\Tools\MSVC\14.44.35207\include\vector

; 2120 :                 _My_data._Mylast = _STD _Uninitialized_copy(_STD forward<_Valty>(_Val)..., _My_data._Myfirst, _Al);

  001aa	8b 4d e8	 mov	 ecx, DWORD PTR _this$1$[ebp]
; File C:\Program Files\Microsoft Visual Studio\2022\Professional\VC\Tools\MSVC\14.44.35207\include\xmemory

; 1890 :                 _Dest += _ULast - _UFirst;

  001ad	8d 04 c7	 lea	 eax, DWORD PTR [edi+eax*8]
; File C:\Program Files\Microsoft Visual Studio\2022\Professional\VC\Tools\MSVC\14.44.35207\include\vector

; 2120 :                 _My_data._Mylast = _STD _Uninitialized_copy(_STD forward<_Valty>(_Val)..., _My_data._Myfirst, _Al);

  001b0	89 41 04	 mov	 DWORD PTR [ecx+4], eax
$LN159@GetTown:
; File C:\IAGOS\server\v18\Source\Source\_Common\Continent.cpp

; 317  : 		if( Point_In_Poly( vecPoint, cpoint ) )

  001b3	8b 7d dc	 mov	 edi, DWORD PTR _this$1$[ebp]
  001b6	8b cf		 mov	 ecx, edi
  001b8	e8 00 00 00 00	 call	 ?Point_In_Poly@CContinent@@AAEHV?$vector@VCPoint@@V?$allocator@VCPoint@@@std@@@std@@VCPoint@@@Z ; CContinent::Point_In_Poly
  001bd	85 c0		 test	 eax, eax
  001bf	75 4c		 jne	 SHORT $LN207@GetTown
; File C:\Program Files\Microsoft Visual Studio\2022\Professional\VC\Tools\MSVC\14.44.35207\include\xtree

; 50   :         if (_Ptr->_Right->_Isnil) { // climb looking for right subtree

  001c1	8b 46 08	 mov	 eax, DWORD PTR [esi+8]
  001c4	80 78 0d 00	 cmp	 BYTE PTR [eax+13], 0
  001c8	74 1d		 je	 SHORT $LN42@GetTown

; 51   :             _Nodeptr _Pnode;
; 52   :             while (!(_Pnode = _Ptr->_Parent)->_Isnil && _Ptr == _Pnode->_Right) {

  001ca	8b 46 04	 mov	 eax, DWORD PTR [esi+4]
  001cd	80 78 0d 00	 cmp	 BYTE PTR [eax+13], 0
  001d1	75 10		 jne	 SHORT $LN221@GetTown
$LL40@GetTown:
  001d3	3b 70 08	 cmp	 esi, DWORD PTR [eax+8]
  001d6	75 0b		 jne	 SHORT $LN221@GetTown

; 53   :                 _Ptr = _Pnode; // ==> parent while right subtree

  001d8	8b f0		 mov	 esi, eax
  001da	8b 40 04	 mov	 eax, DWORD PTR [eax+4]
  001dd	80 78 0d 00	 cmp	 BYTE PTR [eax+13], 0
  001e1	74 f0		 je	 SHORT $LL40@GetTown
$LN221@GetTown:

; 54   :             }
; 55   : 
; 56   :             _Ptr = _Pnode; // ==> parent (head if end())

  001e3	8b f0		 mov	 esi, eax

; 57   :         } else {

  001e5	eb 16		 jmp	 SHORT $LN48@GetTown
$LN42@GetTown:

; 58   :             _Ptr = _Mytree::_Min(_Ptr->_Right); // ==> smallest of right subtree

  001e7	8b f0		 mov	 esi, eax

; 476  :         while (!_Pnode->_Left->_Isnil) {

  001e9	8b 0e		 mov	 ecx, DWORD PTR [esi]
  001eb	80 79 0d 00	 cmp	 BYTE PTR [ecx+13], 0
  001ef	75 0c		 jne	 SHORT $LN48@GetTown
$LL47@GetTown:
  001f1	8b 01		 mov	 eax, DWORD PTR [ecx]

; 477  :             _Pnode = _Pnode->_Left;

  001f3	8b f1		 mov	 esi, ecx
  001f5	8b c8		 mov	 ecx, eax
  001f7	80 78 0d 00	 cmp	 BYTE PTR [eax+13], 0
  001fb	74 f4		 je	 SHORT $LL47@GetTown
$LN48@GetTown:

; 237  :         return !(*this == _Right);

  001fd	3b 77 0c	 cmp	 esi, DWORD PTR [edi+12]
; File C:\IAGOS\server\v18\Source\Source\_Common\Continent.cpp

; 314  : 	for( map< BYTE, vector<CPoint> >::iterator iter = m_MapContTown.begin(); iter != m_MapContTown.end(); ++iter )

  00200	74 13		 je	 SHORT $LN3@GetTown
  00202	8b 55 f0	 mov	 edx, DWORD PTR _vecPoint$3$[ebp]
  00205	8b 4d ec	 mov	 ecx, DWORD PTR __Bytes$1$[ebp]
  00208	e9 57 fe ff ff	 jmp	 $LL4@GetTown
$LN207@GetTown:
  0020d	8a 46 10	 mov	 al, BYTE PTR [esi+16]
  00210	88 45 0b	 mov	 BYTE PTR $T3[ebp], al
  00213	eb 04		 jmp	 SHORT $LN9@GetTown
$LN3@GetTown:

; 321  : 	return CONT_NODATA;

  00215	c6 45 0b 00	 mov	 BYTE PTR $T3[ebp], 0
$LN9@GetTown:
; File C:\Program Files\Microsoft Visual Studio\2022\Professional\VC\Tools\MSVC\14.44.35207\include\vector

; 2090 :         if (_Myfirst) { // destroy and deallocate old array

  00219	85 db		 test	 ebx, ebx
  0021b	74 2c		 je	 SHORT $LN183@GetTown

; 2093 :             _Al.deallocate(_Myfirst, static_cast<size_type>(_Myend - _Myfirst));

  0021d	8b 4d ec	 mov	 ecx, DWORD PTR __Bytes$1$[ebp]
; File C:\Program Files\Microsoft Visual Studio\2022\Professional\VC\Tools\MSVC\14.44.35207\include\xmemory

; 985  :         _STD _Deallocate<_New_alignof<_Ty>>(_Ptr, sizeof(_Ty) * _Count);

  00220	8b c3		 mov	 eax, ebx
; File C:\Program Files\Microsoft Visual Studio\2022\Professional\VC\Tools\MSVC\14.44.35207\include\vector

; 2093 :             _Al.deallocate(_Myfirst, static_cast<size_type>(_Myend - _Myfirst));

  00222	2b cb		 sub	 ecx, ebx
; File C:\Program Files\Microsoft Visual Studio\2022\Professional\VC\Tools\MSVC\14.44.35207\include\xmemory

; 985  :         _STD _Deallocate<_New_alignof<_Ty>>(_Ptr, sizeof(_Ty) * _Count);

  00224	83 e1 f8	 and	 ecx, -8			; fffffff8H

; 284  :         if (_Bytes >= _Big_allocation_threshold) {

  00227	81 f9 00 10 00
	00		 cmp	 ecx, 4096		; 00001000H
  0022d	72 10		 jb	 SHORT $LN196@GetTown

; 205  :     const uintptr_t _Ptr_container   = _Ptr_user[-1];

  0022f	8b 58 fc	 mov	 ebx, DWORD PTR [eax-4]
  00232	83 c1 23	 add	 ecx, 35			; 00000023H
  00235	2b c3		 sub	 eax, ebx

; 219  :     _STL_VERIFY(_Back_shift >= _Min_back_shift && _Back_shift <= _Non_user_size, "invalid argument");

  00237	83 c0 fc	 add	 eax, -4			; fffffffcH
  0023a	83 f8 1f	 cmp	 eax, 31			; 0000001fH
  0023d	77 26		 ja	 SHORT $LN227@GetTown
$LN196@GetTown:

; 289  :         ::operator delete(_Ptr, _Bytes);

  0023f	51		 push	 ecx
  00240	53		 push	 ebx
  00241	e8 00 00 00 00	 call	 ??3@YAXPAXI@Z		; operator delete
  00246	83 c4 08	 add	 esp, 8
$LN183@GetTown:
; File C:\IAGOS\server\v18\Source\Source\_Common\Continent.cpp

; 321  : 	return CONT_NODATA;

  00249	8a 45 0b	 mov	 al, BYTE PTR $T3[ebp]

; 322  : }

  0024c	8b 4d f4	 mov	 ecx, DWORD PTR __$EHRec$[ebp]
  0024f	64 89 0d 00 00
	00 00		 mov	 DWORD PTR fs:0, ecx
  00256	59		 pop	 ecx
  00257	5f		 pop	 edi
  00258	5e		 pop	 esi
  00259	5b		 pop	 ebx
  0025a	8b e5		 mov	 esp, ebp
  0025c	5d		 pop	 ebp
  0025d	c2 04 00	 ret	 4
$LN206@GetTown:
; File C:\Program Files\Microsoft Visual Studio\2022\Professional\VC\Tools\MSVC\14.44.35207\include\vector

; 2052 :             _Xlength();

  00260	e8 00 00 00 00	 call	 ?_Xlength@?$vector@VCPoint@@V?$allocator@VCPoint@@@std@@@std@@CAXXZ ; std::vector<CPoint,std::allocator<CPoint> >::_Xlength
$LN227@GetTown:
; File C:\Program Files\Microsoft Visual Studio\2022\Professional\VC\Tools\MSVC\14.44.35207\include\xmemory

; 219  :     _STL_VERIFY(_Back_shift >= _Min_back_shift && _Back_shift <= _Non_user_size, "invalid argument");

  00265	6a 00		 push	 0
  00267	6a 00		 push	 0
  00269	6a 00		 push	 0
  0026b	6a 00		 push	 0
  0026d	6a 00		 push	 0
  0026f	e8 00 00 00 00	 call	 __invoke_watson
$LN223@GetTown:
  00274	cc		 int	 3
_TEXT	ENDS
;	COMDAT text$x
text$x	SEGMENT
__unwindfunclet$?GetTown@CContinent@@QAEEABUD3DXVECTOR3@@@Z$0:
  00000	8d 4d d0	 lea	 ecx, DWORD PTR _vecPoint$[ebp]
  00003	e9 00 00 00 00	 jmp	 ??1?$vector@VCPoint@@V?$allocator@VCPoint@@@std@@@std@@QAE@XZ ; std::vector<CPoint,std::allocator<CPoint> >::~vector<CPoint,std::allocator<CPoint> >
  00008	cc		 int	 3
  00009	cc		 int	 3
  0000a	cc		 int	 3
  0000b	cc		 int	 3
  0000c	cc		 int	 3
__ehhandler$?GetTown@CContinent@@QAEEABUD3DXVECTOR3@@@Z:
  0000d	90		 npad	 1
  0000e	90		 npad	 1
  0000f	8b 54 24 08	 mov	 edx, DWORD PTR [esp+8]
  00013	8d 42 0c	 lea	 eax, DWORD PTR [edx+12]
  00016	8b 4a cc	 mov	 ecx, DWORD PTR [edx-52]
  00019	33 c8		 xor	 ecx, eax
  0001b	e8 00 00 00 00	 call	 @__security_check_cookie@4
  00020	b8 00 00 00 00	 mov	 eax, OFFSET __ehfuncinfo$?GetTown@CContinent@@QAEEABUD3DXVECTOR3@@@Z
  00025	e9 00 00 00 00	 jmp	 ___CxxFrameHandler3
text$x	ENDS
?GetTown@CContinent@@QAEEABUD3DXVECTOR3@@@Z ENDP	; CContinent::GetTown
; Function compile flags: /Ogtp
; File C:\Program Files\Microsoft Visual Studio\2022\Professional\VC\Tools\MSVC\14.44.35207\include\xtree
; File C:\Program Files\Microsoft Visual Studio\2022\Professional\VC\Tools\MSVC\14.44.35207\include\xmemory
;	COMDAT ??1?$map@EV?$vector@VCPoint@@V?$allocator@VCPoint@@@std@@@std@@U?$less@E@2@V?$allocator@U?$pair@$$CBEV?$vector@VCPoint@@V?$allocator@VCPoint@@@std@@@std@@@std@@@2@@std@@QAE@XZ
_TEXT	SEGMENT
??1?$map@EV?$vector@VCPoint@@V?$allocator@VCPoint@@@std@@@std@@U?$less@E@2@V?$allocator@U?$pair@$$CBEV?$vector@VCPoint@@V?$allocator@VCPoint@@@std@@@std@@@std@@@2@@std@@QAE@XZ PROC ; std::map<unsigned char,std::vector<CPoint,std::allocator<CPoint> >,std::less<unsigned char>,std::allocator<std::pair<unsigned char const ,std::vector<CPoint,std::allocator<CPoint> > > > >::~map<unsigned char,std::vector<CPoint,std::allocator<CPoint> >,std::less<unsigned char>,std::allocator<std::pair<unsigned char const ,std::vector<CPoint,std::allocator<CPoint> > > > >, COMDAT
; _this$ = ecx
; File C:\Program Files\Microsoft Visual Studio\2022\Professional\VC\Tools\MSVC\14.44.35207\include\xtree

; 777  :         _Erase_tree(_Al, _Myhead->_Parent);

  00000	56		 push	 esi
  00001	8b f1		 mov	 esi, ecx
  00003	8b 06		 mov	 eax, DWORD PTR [esi]
  00005	ff 70 04	 push	 DWORD PTR [eax+4]
  00008	56		 push	 esi
  00009	e8 00 00 00 00	 call	 ??$_Erase_tree@V?$allocator@U?$_Tree_node@U?$pair@$$CBEV?$vector@VCPoint@@V?$allocator@VCPoint@@@std@@@std@@@std@@PAX@std@@@std@@@?$_Tree_val@U?$_Tree_simple_types@U?$pair@$$CBEV?$vector@VCPoint@@V?$allocator@VCPoint@@@std@@@std@@@std@@@std@@@std@@QAEXAAV?$allocator@U?$_Tree_node@U?$pair@$$CBEV?$vector@VCPoint@@V?$allocator@VCPoint@@@std@@@std@@@std@@PAX@std@@@1@PAU?$_Tree_node@U?$pair@$$CBEV?$vector@VCPoint@@V?$allocator@VCPoint@@@std@@@std@@@std@@PAX@1@@Z ; std::_Tree_val<std::_Tree_simple_types<std::pair<unsigned char const ,std::vector<CPoint,std::allocator<CPoint> > > > >::_Erase_tree<std::allocator<std::_Tree_node<std::pair<unsigned char const ,std::vector<CPoint,std::allocator<CPoint> > >,void *> > >
; File C:\Program Files\Microsoft Visual Studio\2022\Professional\VC\Tools\MSVC\14.44.35207\include\xmemory

; 289  :         ::operator delete(_Ptr, _Bytes);

  0000e	6a 20		 push	 32			; 00000020H
  00010	ff 36		 push	 DWORD PTR [esi]
  00012	e8 00 00 00 00	 call	 ??3@YAXPAXI@Z		; operator delete
  00017	83 c4 08	 add	 esp, 8
  0001a	5e		 pop	 esi
  0001b	c3		 ret	 0
??1?$map@EV?$vector@VCPoint@@V?$allocator@VCPoint@@@std@@@std@@U?$less@E@2@V?$allocator@U?$pair@$$CBEV?$vector@VCPoint@@V?$allocator@VCPoint@@@std@@@std@@@std@@@2@@std@@QAE@XZ ENDP ; std::map<unsigned char,std::vector<CPoint,std::allocator<CPoint> >,std::less<unsigned char>,std::allocator<std::pair<unsigned char const ,std::vector<CPoint,std::allocator<CPoint> > > > >::~map<unsigned char,std::vector<CPoint,std::allocator<CPoint> >,std::less<unsigned char>,std::allocator<std::pair<unsigned char const ,std::vector<CPoint,std::allocator<CPoint> > > > >
_TEXT	ENDS
; Function compile flags: /Ogtp
; File C:\Program Files\Microsoft Visual Studio\2022\Professional\VC\Tools\MSVC\14.44.35207\include\xtree
;	COMDAT ?_Insert_node@?$_Tree_val@U?$_Tree_simple_types@U?$pair@$$CBEV?$vector@VCPoint@@V?$allocator@VCPoint@@@std@@@std@@@std@@@std@@@std@@QAEPAU?$_Tree_node@U?$pair@$$CBEV?$vector@VCPoint@@V?$allocator@VCPoint@@@std@@@std@@@std@@PAX@2@U?$_Tree_id@PAU?$_Tree_node@U?$pair@$$CBEV?$vector@VCPoint@@V?$allocator@VCPoint@@@std@@@std@@@std@@PAX@std@@@2@QAU32@@Z
_TEXT	SEGMENT
__Head$1$ = -4						; size = 4
__Loc$ = 8						; size = 8
__Newnode$ = 16						; size = 4
?_Insert_node@?$_Tree_val@U?$_Tree_simple_types@U?$pair@$$CBEV?$vector@VCPoint@@V?$allocator@VCPoint@@@std@@@std@@@std@@@std@@@std@@QAEPAU?$_Tree_node@U?$pair@$$CBEV?$vector@VCPoint@@V?$allocator@VCPoint@@@std@@@std@@@std@@PAX@2@U?$_Tree_id@PAU?$_Tree_node@U?$pair@$$CBEV?$vector@VCPoint@@V?$allocator@VCPoint@@@std@@@std@@@std@@PAX@std@@@2@QAU32@@Z PROC ; std::_Tree_val<std::_Tree_simple_types<std::pair<unsigned char const ,std::vector<CPoint,std::allocator<CPoint> > > > >::_Insert_node, COMDAT
; _this$ = ecx

; 669  :     _Nodeptr _Insert_node(const _Tree_id<_Nodeptr> _Loc, const _Nodeptr _Newnode) noexcept {

  00000	55		 push	 ebp
  00001	8b ec		 mov	 ebp, esp
  00003	51		 push	 ecx

; 670  :         ++_Mysize;
; 671  :         const auto _Head  = _Myhead;
; 672  :         _Newnode->_Parent = _Loc._Parent;

  00004	8b 55 08	 mov	 edx, DWORD PTR __Loc$[ebp]
  00007	53		 push	 ebx
  00008	8b d9		 mov	 ebx, ecx
  0000a	57		 push	 edi
  0000b	8b 7d 10	 mov	 edi, DWORD PTR __Newnode$[ebp]
  0000e	8b 03		 mov	 eax, DWORD PTR [ebx]
  00010	ff 43 04	 inc	 DWORD PTR [ebx+4]
  00013	89 45 fc	 mov	 DWORD PTR __Head$1$[ebp], eax
  00016	89 57 04	 mov	 DWORD PTR [edi+4], edx

; 673  :         if (_Loc._Parent == _Head) { // first node in tree, just set head values

  00019	3b d0		 cmp	 edx, eax
  0001b	75 16		 jne	 SHORT $LN5@Insert_nod

; 674  :             _Head->_Left     = _Newnode;

  0001d	89 38		 mov	 DWORD PTR [eax], edi

; 675  :             _Head->_Parent   = _Newnode;

  0001f	89 78 04	 mov	 DWORD PTR [eax+4], edi

; 676  :             _Head->_Right    = _Newnode;

  00022	89 78 08	 mov	 DWORD PTR [eax+8], edi

; 735  :         return _Newnode;
; 736  :     }

  00025	8b c7		 mov	 eax, edi
  00027	c6 47 0c 01	 mov	 BYTE PTR [edi+12], 1
  0002b	5f		 pop	 edi
  0002c	5b		 pop	 ebx
  0002d	8b e5		 mov	 esp, ebp
  0002f	5d		 pop	 ebp
  00030	c2 0c 00	 ret	 12			; 0000000cH
$LN5@Insert_nod:

; 677  :             _Newnode->_Color = _Black; // the root is black
; 678  :             return _Newnode;
; 679  :         }
; 680  : 
; 681  :         _STL_INTERNAL_CHECK(_Loc._Child != _Tree_child::_Unused);
; 682  :         if (_Loc._Child == _Tree_child::_Right) { // add to right of _Loc._Parent

  00033	83 7d 0c 00	 cmp	 DWORD PTR __Loc$[ebp+4], 0
  00037	75 0d		 jne	 SHORT $LN6@Insert_nod

; 683  :             _STL_INTERNAL_CHECK(_Loc._Parent->_Right->_Isnil);
; 684  :             _Loc._Parent->_Right = _Newnode;

  00039	89 7a 08	 mov	 DWORD PTR [edx+8], edi

; 685  :             if (_Loc._Parent == _Head->_Right) { // remember rightmost node

  0003c	3b 50 08	 cmp	 edx, DWORD PTR [eax+8]
  0003f	75 0d		 jne	 SHORT $LN9@Insert_nod

; 686  :                 _Head->_Right = _Newnode;

  00041	89 78 08	 mov	 DWORD PTR [eax+8], edi

; 687  :             }
; 688  :         } else { // add to left of _Loc._Parent

  00044	eb 08		 jmp	 SHORT $LN9@Insert_nod
$LN6@Insert_nod:

; 689  :             _STL_INTERNAL_CHECK(_Loc._Parent->_Left->_Isnil);
; 690  :             _Loc._Parent->_Left = _Newnode;

  00046	89 3a		 mov	 DWORD PTR [edx], edi

; 691  :             if (_Loc._Parent == _Head->_Left) { // remember leftmost node

  00048	3b 10		 cmp	 edx, DWORD PTR [eax]
  0004a	75 02		 jne	 SHORT $LN9@Insert_nod

; 692  :                 _Head->_Left = _Newnode;

  0004c	89 38		 mov	 DWORD PTR [eax], edi
$LN9@Insert_nod:

; 693  :             }
; 694  :         }
; 695  : 
; 696  :         for (_Nodeptr _Pnode = _Newnode; _Pnode->_Parent->_Color == _Red;) {

  0004e	8b 4f 04	 mov	 ecx, DWORD PTR [edi+4]
  00051	8b c7		 mov	 eax, edi
  00053	80 79 0c 00	 cmp	 BYTE PTR [ecx+12], 0
  00057	0f 85 7d 01 00
	00		 jne	 $LN3@Insert_nod
  0005d	56		 push	 esi
  0005e	66 90		 npad	 2
$LL4@Insert_nod:

; 697  :             if (_Pnode->_Parent == _Pnode->_Parent->_Parent->_Left) { // fixup red-red in left subtree

  00060	8b 50 04	 mov	 edx, DWORD PTR [eax+4]
  00063	8b 72 04	 mov	 esi, DWORD PTR [edx+4]
  00066	8b 0e		 mov	 ecx, DWORD PTR [esi]
  00068	3b d1		 cmp	 edx, ecx
  0006a	0f 85 aa 00 00
	00		 jne	 $LN10@Insert_nod

; 698  :                 const auto _Parent_sibling = _Pnode->_Parent->_Parent->_Right;

  00070	8b 4e 08	 mov	 ecx, DWORD PTR [esi+8]

; 699  :                 if (_Parent_sibling->_Color == _Red) { // parent's sibling has two red children, blacken both

  00073	80 79 0c 00	 cmp	 BYTE PTR [ecx+12], 0
  00077	0f 84 a3 00 00
	00		 je	 $LN82@Insert_nod

; 700  :                     _Pnode->_Parent->_Color          = _Black;
; 701  :                     _Parent_sibling->_Color          = _Black;
; 702  :                     _Pnode->_Parent->_Parent->_Color = _Red;
; 703  :                     _Pnode                           = _Pnode->_Parent->_Parent;
; 704  :                 } else { // parent's sibling has red and black children
; 705  :                     if (_Pnode == _Pnode->_Parent->_Right) { // rotate right child to left

  0007d	8b 72 08	 mov	 esi, DWORD PTR [edx+8]
  00080	3b c6		 cmp	 eax, esi
  00082	75 37		 jne	 SHORT $LN57@Insert_nod

; 485  :         _Wherenode->_Right = _Pnode->_Left;

  00084	8b 0e		 mov	 ecx, DWORD PTR [esi]

; 706  :                         _Pnode = _Pnode->_Parent;

  00086	8b c2		 mov	 eax, edx

; 485  :         _Wherenode->_Right = _Pnode->_Left;

  00088	89 4a 08	 mov	 DWORD PTR [edx+8], ecx

; 486  : 
; 487  :         if (!_Pnode->_Left->_Isnil) {

  0008b	8b 0e		 mov	 ecx, DWORD PTR [esi]
  0008d	80 79 0d 00	 cmp	 BYTE PTR [ecx+13], 0
  00091	75 03		 jne	 SHORT $LN21@Insert_nod

; 488  :             _Pnode->_Left->_Parent = _Wherenode;

  00093	89 41 04	 mov	 DWORD PTR [ecx+4], eax
$LN21@Insert_nod:

; 489  :         }
; 490  : 
; 491  :         _Pnode->_Parent = _Wherenode->_Parent;

  00096	8b 4a 04	 mov	 ecx, DWORD PTR [edx+4]
  00099	89 4e 04	 mov	 DWORD PTR [esi+4], ecx

; 492  : 
; 493  :         if (_Wherenode == _Myhead->_Parent) {

  0009c	8b 0b		 mov	 ecx, DWORD PTR [ebx]
  0009e	3b 41 04	 cmp	 eax, DWORD PTR [ecx+4]
  000a1	75 05		 jne	 SHORT $LN22@Insert_nod

; 494  :             _Myhead->_Parent = _Pnode;

  000a3	89 71 04	 mov	 DWORD PTR [ecx+4], esi
  000a6	eb 0e		 jmp	 SHORT $LN25@Insert_nod
$LN22@Insert_nod:

; 495  :         } else if (_Wherenode == _Wherenode->_Parent->_Left) {

  000a8	8b 4a 04	 mov	 ecx, DWORD PTR [edx+4]
  000ab	3b 01		 cmp	 eax, DWORD PTR [ecx]
  000ad	75 04		 jne	 SHORT $LN24@Insert_nod

; 496  :             _Wherenode->_Parent->_Left = _Pnode;

  000af	89 31		 mov	 DWORD PTR [ecx], esi

; 497  :         } else {

  000b1	eb 03		 jmp	 SHORT $LN25@Insert_nod
$LN24@Insert_nod:

; 498  :             _Wherenode->_Parent->_Right = _Pnode;

  000b3	89 71 08	 mov	 DWORD PTR [ecx+8], esi
$LN25@Insert_nod:

; 499  :         }
; 500  : 
; 501  :         _Pnode->_Left       = _Wherenode;

  000b6	89 06		 mov	 DWORD PTR [esi], eax

; 502  :         _Wherenode->_Parent = _Pnode;

  000b8	89 70 04	 mov	 DWORD PTR [eax+4], esi
$LN57@Insert_nod:

; 707  :                         _Lrotate(_Pnode);
; 708  :                     }
; 709  : 
; 710  :                     _Pnode->_Parent->_Color          = _Black; // propagate red up

  000bb	8b 48 04	 mov	 ecx, DWORD PTR [eax+4]
  000be	c6 41 0c 01	 mov	 BYTE PTR [ecx+12], 1

; 711  :                     _Pnode->_Parent->_Parent->_Color = _Red;

  000c2	8b 48 04	 mov	 ecx, DWORD PTR [eax+4]
  000c5	8b 49 04	 mov	 ecx, DWORD PTR [ecx+4]
  000c8	c6 41 0c 00	 mov	 BYTE PTR [ecx+12], 0

; 712  :                     _Rrotate(_Pnode->_Parent->_Parent);

  000cc	8b 48 04	 mov	 ecx, DWORD PTR [eax+4]
  000cf	8b 51 04	 mov	 edx, DWORD PTR [ecx+4]

; 506  :         _Nodeptr _Pnode   = _Wherenode->_Left;

  000d2	8b 32		 mov	 esi, DWORD PTR [edx]

; 507  :         _Wherenode->_Left = _Pnode->_Right;

  000d4	8b 4e 08	 mov	 ecx, DWORD PTR [esi+8]
  000d7	89 0a		 mov	 DWORD PTR [edx], ecx

; 508  : 
; 509  :         if (!_Pnode->_Right->_Isnil) {

  000d9	8b 4e 08	 mov	 ecx, DWORD PTR [esi+8]
  000dc	80 79 0d 00	 cmp	 BYTE PTR [ecx+13], 0
  000e0	75 03		 jne	 SHORT $LN29@Insert_nod

; 510  :             _Pnode->_Right->_Parent = _Wherenode;

  000e2	89 51 04	 mov	 DWORD PTR [ecx+4], edx
$LN29@Insert_nod:

; 511  :         }
; 512  : 
; 513  :         _Pnode->_Parent = _Wherenode->_Parent;

  000e5	8b 4a 04	 mov	 ecx, DWORD PTR [edx+4]
  000e8	89 4e 04	 mov	 DWORD PTR [esi+4], ecx

; 514  : 
; 515  :         if (_Wherenode == _Myhead->_Parent) {

  000eb	8b 0b		 mov	 ecx, DWORD PTR [ebx]
  000ed	3b 51 04	 cmp	 edx, DWORD PTR [ecx+4]
  000f0	75 0b		 jne	 SHORT $LN30@Insert_nod

; 516  :             _Myhead->_Parent = _Pnode;

  000f2	89 71 04	 mov	 DWORD PTR [ecx+4], esi

; 521  :         }
; 522  : 
; 523  :         _Pnode->_Right      = _Wherenode;

  000f5	89 56 08	 mov	 DWORD PTR [esi+8], edx

; 713  :                 }
; 714  :             } else { // fixup red-red in right subtree

  000f8	e9 cc 00 00 00	 jmp	 $LN81@Insert_nod
$LN30@Insert_nod:

; 517  :         } else if (_Wherenode == _Wherenode->_Parent->_Right) {

  000fd	8b 4a 04	 mov	 ecx, DWORD PTR [edx+4]
  00100	3b 51 08	 cmp	 edx, DWORD PTR [ecx+8]
  00103	75 0b		 jne	 SHORT $LN32@Insert_nod

; 518  :             _Wherenode->_Parent->_Right = _Pnode;

  00105	89 71 08	 mov	 DWORD PTR [ecx+8], esi

; 521  :         }
; 522  : 
; 523  :         _Pnode->_Right      = _Wherenode;

  00108	89 56 08	 mov	 DWORD PTR [esi+8], edx

; 713  :                 }
; 714  :             } else { // fixup red-red in right subtree

  0010b	e9 b9 00 00 00	 jmp	 $LN81@Insert_nod
$LN32@Insert_nod:

; 520  :             _Wherenode->_Parent->_Left = _Pnode;

  00110	89 31		 mov	 DWORD PTR [ecx], esi

; 521  :         }
; 522  : 
; 523  :         _Pnode->_Right      = _Wherenode;

  00112	89 56 08	 mov	 DWORD PTR [esi+8], edx

; 713  :                 }
; 714  :             } else { // fixup red-red in right subtree

  00115	e9 af 00 00 00	 jmp	 $LN81@Insert_nod
$LN10@Insert_nod:

; 715  :                 const auto _Parent_sibling = _Pnode->_Parent->_Parent->_Left;
; 716  :                 if (_Parent_sibling->_Color == _Red) { // parent's sibling has two red children, blacken both

  0011a	80 79 0c 00	 cmp	 BYTE PTR [ecx+12], 0
  0011e	75 1d		 jne	 SHORT $LN15@Insert_nod
$LN82@Insert_nod:

; 693  :             }
; 694  :         }
; 695  : 
; 696  :         for (_Nodeptr _Pnode = _Newnode; _Pnode->_Parent->_Color == _Red;) {

  00120	c6 42 0c 01	 mov	 BYTE PTR [edx+12], 1
  00124	c6 41 0c 01	 mov	 BYTE PTR [ecx+12], 1
  00128	8b 48 04	 mov	 ecx, DWORD PTR [eax+4]
  0012b	8b 49 04	 mov	 ecx, DWORD PTR [ecx+4]
  0012e	c6 41 0c 00	 mov	 BYTE PTR [ecx+12], 0
  00132	8b 48 04	 mov	 ecx, DWORD PTR [eax+4]
  00135	8b 41 04	 mov	 eax, DWORD PTR [ecx+4]
  00138	e9 8f 00 00 00	 jmp	 $LN2@Insert_nod
$LN15@Insert_nod:

; 717  :                     _Pnode->_Parent->_Color          = _Black;
; 718  :                     _Parent_sibling->_Color          = _Black;
; 719  :                     _Pnode->_Parent->_Parent->_Color = _Red;
; 720  :                     _Pnode                           = _Pnode->_Parent->_Parent;
; 721  :                 } else { // parent's sibling has red and black children
; 722  :                     if (_Pnode == _Pnode->_Parent->_Left) { // rotate left child to right

  0013d	8b 32		 mov	 esi, DWORD PTR [edx]
  0013f	3b c6		 cmp	 eax, esi
  00141	75 3a		 jne	 SHORT $LN42@Insert_nod

; 507  :         _Wherenode->_Left = _Pnode->_Right;

  00143	8b 4e 08	 mov	 ecx, DWORD PTR [esi+8]

; 723  :                         _Pnode = _Pnode->_Parent;

  00146	8b c2		 mov	 eax, edx

; 507  :         _Wherenode->_Left = _Pnode->_Right;

  00148	89 08		 mov	 DWORD PTR [eax], ecx

; 508  : 
; 509  :         if (!_Pnode->_Right->_Isnil) {

  0014a	8b 4e 08	 mov	 ecx, DWORD PTR [esi+8]
  0014d	80 79 0d 00	 cmp	 BYTE PTR [ecx+13], 0
  00151	75 03		 jne	 SHORT $LN37@Insert_nod

; 510  :             _Pnode->_Right->_Parent = _Wherenode;

  00153	89 41 04	 mov	 DWORD PTR [ecx+4], eax
$LN37@Insert_nod:

; 511  :         }
; 512  : 
; 513  :         _Pnode->_Parent = _Wherenode->_Parent;

  00156	8b 4a 04	 mov	 ecx, DWORD PTR [edx+4]
  00159	89 4e 04	 mov	 DWORD PTR [esi+4], ecx

; 514  : 
; 515  :         if (_Wherenode == _Myhead->_Parent) {

  0015c	8b 0b		 mov	 ecx, DWORD PTR [ebx]
  0015e	3b 41 04	 cmp	 eax, DWORD PTR [ecx+4]
  00161	75 05		 jne	 SHORT $LN38@Insert_nod

; 516  :             _Myhead->_Parent = _Pnode;

  00163	89 71 04	 mov	 DWORD PTR [ecx+4], esi
  00166	eb 0f		 jmp	 SHORT $LN41@Insert_nod
$LN38@Insert_nod:

; 517  :         } else if (_Wherenode == _Wherenode->_Parent->_Right) {

  00168	8b 4a 04	 mov	 ecx, DWORD PTR [edx+4]
  0016b	3b 41 08	 cmp	 eax, DWORD PTR [ecx+8]
  0016e	75 05		 jne	 SHORT $LN40@Insert_nod

; 518  :             _Wherenode->_Parent->_Right = _Pnode;

  00170	89 71 08	 mov	 DWORD PTR [ecx+8], esi

; 519  :         } else {

  00173	eb 02		 jmp	 SHORT $LN41@Insert_nod
$LN40@Insert_nod:

; 520  :             _Wherenode->_Parent->_Left = _Pnode;

  00175	89 31		 mov	 DWORD PTR [ecx], esi
$LN41@Insert_nod:

; 521  :         }
; 522  : 
; 523  :         _Pnode->_Right      = _Wherenode;

  00177	89 46 08	 mov	 DWORD PTR [esi+8], eax

; 524  :         _Wherenode->_Parent = _Pnode;

  0017a	89 70 04	 mov	 DWORD PTR [eax+4], esi
$LN42@Insert_nod:

; 724  :                         _Rrotate(_Pnode);
; 725  :                     }
; 726  : 
; 727  :                     _Pnode->_Parent->_Color          = _Black; // propagate red up

  0017d	8b 48 04	 mov	 ecx, DWORD PTR [eax+4]
  00180	c6 41 0c 01	 mov	 BYTE PTR [ecx+12], 1

; 728  :                     _Pnode->_Parent->_Parent->_Color = _Red;

  00184	8b 48 04	 mov	 ecx, DWORD PTR [eax+4]
  00187	8b 49 04	 mov	 ecx, DWORD PTR [ecx+4]
  0018a	c6 41 0c 00	 mov	 BYTE PTR [ecx+12], 0

; 729  :                     _Lrotate(_Pnode->_Parent->_Parent);

  0018e	8b 48 04	 mov	 ecx, DWORD PTR [eax+4]
  00191	8b 51 04	 mov	 edx, DWORD PTR [ecx+4]

; 484  :         _Nodeptr _Pnode    = _Wherenode->_Right;

  00194	8b 72 08	 mov	 esi, DWORD PTR [edx+8]

; 485  :         _Wherenode->_Right = _Pnode->_Left;

  00197	8b 0e		 mov	 ecx, DWORD PTR [esi]
  00199	89 4a 08	 mov	 DWORD PTR [edx+8], ecx

; 486  : 
; 487  :         if (!_Pnode->_Left->_Isnil) {

  0019c	8b 0e		 mov	 ecx, DWORD PTR [esi]
  0019e	80 79 0d 00	 cmp	 BYTE PTR [ecx+13], 0
  001a2	75 03		 jne	 SHORT $LN45@Insert_nod

; 488  :             _Pnode->_Left->_Parent = _Wherenode;

  001a4	89 51 04	 mov	 DWORD PTR [ecx+4], edx
$LN45@Insert_nod:

; 489  :         }
; 490  : 
; 491  :         _Pnode->_Parent = _Wherenode->_Parent;

  001a7	8b 4a 04	 mov	 ecx, DWORD PTR [edx+4]
  001aa	89 4e 04	 mov	 DWORD PTR [esi+4], ecx

; 492  : 
; 493  :         if (_Wherenode == _Myhead->_Parent) {

  001ad	8b 0b		 mov	 ecx, DWORD PTR [ebx]
  001af	3b 51 04	 cmp	 edx, DWORD PTR [ecx+4]
  001b2	75 05		 jne	 SHORT $LN46@Insert_nod

; 494  :             _Myhead->_Parent = _Pnode;

  001b4	89 71 04	 mov	 DWORD PTR [ecx+4], esi
  001b7	eb 0e		 jmp	 SHORT $LN49@Insert_nod
$LN46@Insert_nod:

; 495  :         } else if (_Wherenode == _Wherenode->_Parent->_Left) {

  001b9	8b 4a 04	 mov	 ecx, DWORD PTR [edx+4]
  001bc	3b 11		 cmp	 edx, DWORD PTR [ecx]
  001be	75 04		 jne	 SHORT $LN48@Insert_nod

; 496  :             _Wherenode->_Parent->_Left = _Pnode;

  001c0	89 31		 mov	 DWORD PTR [ecx], esi

; 497  :         } else {

  001c2	eb 03		 jmp	 SHORT $LN49@Insert_nod
$LN48@Insert_nod:

; 498  :             _Wherenode->_Parent->_Right = _Pnode;

  001c4	89 71 08	 mov	 DWORD PTR [ecx+8], esi
$LN49@Insert_nod:

; 499  :         }
; 500  : 
; 501  :         _Pnode->_Left       = _Wherenode;

  001c7	89 16		 mov	 DWORD PTR [esi], edx
$LN81@Insert_nod:

; 693  :             }
; 694  :         }
; 695  : 
; 696  :         for (_Nodeptr _Pnode = _Newnode; _Pnode->_Parent->_Color == _Red;) {

  001c9	89 72 04	 mov	 DWORD PTR [edx+4], esi
$LN2@Insert_nod:
  001cc	8b 48 04	 mov	 ecx, DWORD PTR [eax+4]
  001cf	80 79 0c 00	 cmp	 BYTE PTR [ecx+12], 0
  001d3	0f 84 87 fe ff
	ff		 je	 $LL4@Insert_nod
  001d9	5e		 pop	 esi
$LN3@Insert_nod:

; 730  :                 }
; 731  :             }
; 732  :         }
; 733  : 
; 734  :         _Head->_Parent->_Color = _Black; // root is always black

  001da	8b 45 fc	 mov	 eax, DWORD PTR __Head$1$[ebp]
  001dd	8b 40 04	 mov	 eax, DWORD PTR [eax+4]
  001e0	c6 40 0c 01	 mov	 BYTE PTR [eax+12], 1

; 735  :         return _Newnode;
; 736  :     }

  001e4	8b c7		 mov	 eax, edi
  001e6	5f		 pop	 edi
  001e7	5b		 pop	 ebx
  001e8	8b e5		 mov	 esp, ebp
  001ea	5d		 pop	 ebp
  001eb	c2 0c 00	 ret	 12			; 0000000cH
?_Insert_node@?$_Tree_val@U?$_Tree_simple_types@U?$pair@$$CBEV?$vector@VCPoint@@V?$allocator@VCPoint@@@std@@@std@@@std@@@std@@@std@@QAEPAU?$_Tree_node@U?$pair@$$CBEV?$vector@VCPoint@@V?$allocator@VCPoint@@@std@@@std@@@std@@PAX@2@U?$_Tree_id@PAU?$_Tree_node@U?$pair@$$CBEV?$vector@VCPoint@@V?$allocator@VCPoint@@@std@@@std@@@std@@PAX@std@@@2@QAU32@@Z ENDP ; std::_Tree_val<std::_Tree_simple_types<std::pair<unsigned char const ,std::vector<CPoint,std::allocator<CPoint> > > > >::_Insert_node
_TEXT	ENDS
; Function compile flags: /Ogtp
; File C:\IAGOS\server\v18\Source\Source\_Common\Continent.cpp
; File C:\Program Files\Microsoft Visual Studio\2022\Professional\VC\Tools\MSVC\14.44.35207\include\vector
; File C:\IAGOS\server\v18\Source\Source\_Common\Continent.cpp
; File C:\Program Files\Microsoft Visual Studio\2022\Professional\VC\Tools\MSVC\14.44.35207\include\vector
; File C:\IAGOS\server\v18\Source\Source\_Common\Continent.cpp
; File C:\Program Files\Microsoft Visual Studio\2022\Professional\VC\Tools\MSVC\14.44.35207\include\vector
; File C:\IAGOS\server\v18\Source\Source\_Common\Continent.cpp
; File C:\Program Files\Microsoft Visual Studio\2022\Professional\VC\Tools\MSVC\14.44.35207\include\vector
; File C:\IAGOS\server\v18\Source\Source\_Common\Continent.cpp
; File C:\Program Files\Microsoft Visual Studio\2022\Professional\VC\Tools\MSVC\14.44.35207\include\vector
; File C:\IAGOS\server\v18\Source\Source\_Common\Continent.cpp
; File C:\Program Files\Microsoft Visual Studio\2022\Professional\VC\Tools\MSVC\14.44.35207\include\vector
; File C:\IAGOS\server\v18\Source\Source\_Common\Continent.cpp
; File C:\Program Files\Microsoft Visual Studio\2022\Professional\VC\Tools\MSVC\14.44.35207\include\vector
; File C:\IAGOS\server\v18\Source\Source\_Common\Continent.cpp
;	COMDAT ?Point_In_Poly@CContinent@@AAEHV?$vector@VCPoint@@V?$allocator@VCPoint@@@std@@@std@@VCPoint@@@Z
_TEXT	SEGMENT
tv600 = -40						; size = 4
$T1 = -36						; size = 4
$T2 = -32						; size = 4
$T3 = -28						; size = 4
$T4 = -24						; size = 4
$T5 = -20						; size = 4
_i$1$ = -16						; size = 4
$T6 = -12						; size = 4
_p1$1$ = -8						; size = 4
_counter$1$ = -4					; size = 4
_vecMap$ = 8						; size = 12
_test_point$ = 20					; size = 8
?Point_In_Poly@CContinent@@AAEHV?$vector@VCPoint@@V?$allocator@VCPoint@@@std@@@std@@VCPoint@@@Z PROC ; CContinent::Point_In_Poly, COMDAT
; _this$ = ecx

; 220  : {

  00000	55		 push	 ebp
  00001	8b ec		 mov	 ebp, esp
  00003	83 ec 28	 sub	 esp, 40			; 00000028H

; 226  : 	p1 = vecMap[0];

  00006	8b 4d 08	 mov	 ecx, DWORD PTR _vecMap$[ebp]
  00009	33 c0		 xor	 eax, eax
  0000b	53		 push	 ebx
  0000c	56		 push	 esi
  0000d	57		 push	 edi
; File C:\Program Files\Microsoft Visual Studio\2022\Professional\VC\Tools\MSVC\14.44.35207\include\vector

; 1915 :         return static_cast<size_type>(_My_data._Mylast - _My_data._Myfirst);

  0000e	8b 7d 0c	 mov	 edi, DWORD PTR _vecMap$[ebp+4]
; File C:\IAGOS\server\v18\Source\Source\_Common\Continent.cpp

; 227  : 	for( i=1;i<=(int)( vecMap.size() );i++ )

  00011	be 01 00 00 00	 mov	 esi, 1
  00016	8b 51 04	 mov	 edx, DWORD PTR [ecx+4]
; File C:\Program Files\Microsoft Visual Studio\2022\Professional\VC\Tools\MSVC\14.44.35207\include\vector

; 1915 :         return static_cast<size_type>(_My_data._Mylast - _My_data._Myfirst);

  00019	2b f9		 sub	 edi, ecx
; File C:\IAGOS\server\v18\Source\Source\_Common\Continent.cpp

; 226  : 	p1 = vecMap[0];

  0001b	8b 19		 mov	 ebx, DWORD PTR [ecx]
; File C:\Program Files\Microsoft Visual Studio\2022\Professional\VC\Tools\MSVC\14.44.35207\include\vector

; 1915 :         return static_cast<size_type>(_My_data._Mylast - _My_data._Myfirst);

  0001d	c1 ff 03	 sar	 edi, 3
; File C:\IAGOS\server\v18\Source\Source\_Common\Continent.cpp

; 221  : 	int counter = 0;

  00020	89 45 fc	 mov	 DWORD PTR _counter$1$[ebp], eax

; 226  : 	p1 = vecMap[0];

  00023	89 55 f8	 mov	 DWORD PTR _p1$1$[ebp], edx

; 227  : 	for( i=1;i<=(int)( vecMap.size() );i++ )

  00026	89 75 f0	 mov	 DWORD PTR _i$1$[ebp], esi
; File C:\Program Files\Microsoft Visual Studio\2022\Professional\VC\Tools\MSVC\14.44.35207\include\vector

; 1915 :         return static_cast<size_type>(_My_data._Mylast - _My_data._Myfirst);

  00029	89 7d d8	 mov	 DWORD PTR tv600[ebp], edi
; File C:\IAGOS\server\v18\Source\Source\_Common\Continent.cpp

; 227  : 	for( i=1;i<=(int)( vecMap.size() );i++ )

  0002c	3b fe		 cmp	 edi, esi
  0002e	0f 8c be 00 00
	00		 jl	 $LN3@Point_In_P
  00034	8b ca		 mov	 ecx, edx
  00036	89 55 ec	 mov	 DWORD PTR $T5[ebp], edx
  00039	89 55 e8	 mov	 DWORD PTR $T4[ebp], edx
  0003c	89 55 e4	 mov	 DWORD PTR $T3[ebp], edx
  0003f	89 5d f4	 mov	 DWORD PTR $T6[ebp], ebx
  00042	89 5d e0	 mov	 DWORD PTR $T2[ebp], ebx
  00045	89 55 dc	 mov	 DWORD PTR $T1[ebp], edx
$LL4@Point_In_P:

; 228  : 	{
; 229  : 		p2 = vecMap[i % vecMap.size()];

  00048	33 d2		 xor	 edx, edx
  0004a	8b c6		 mov	 eax, esi
  0004c	f7 f7		 div	 edi
  0004e	8b 45 08	 mov	 eax, DWORD PTR _vecMap$[ebp]
  00051	8b 74 d0 04	 mov	 esi, DWORD PTR [eax+edx*8+4]
  00055	3b ce		 cmp	 ecx, esi
  00057	8b 3c d0	 mov	 edi, DWORD PTR [eax+edx*8]
  0005a	8b c6		 mov	 eax, esi
  0005c	0f 4c 45 ec	 cmovl	 eax, DWORD PTR $T5[ebp]

; 230  : 		
; 231  : 		if (test_point.y > min_cont(p1.y,p2.y))

  00060	8b 4d 18	 mov	 ecx, DWORD PTR _test_point$[ebp+4]
  00063	3b c8		 cmp	 ecx, eax
  00065	7e 5b		 jle	 SHORT $LN49@Point_In_P

; 232  : 		{
; 233  : 			if (test_point.y <= max_cont(p1.y,p2.y))

  00067	39 75 e8	 cmp	 DWORD PTR $T4[ebp], esi
  0006a	8b c6		 mov	 eax, esi
  0006c	0f 4f 45 e4	 cmovg	 eax, DWORD PTR $T3[ebp]
  00070	3b c8		 cmp	 ecx, eax
  00072	7f 4e		 jg	 SHORT $LN49@Point_In_P

; 234  : 			{
; 235  : 				if (test_point.x <= max_cont(p1.x,p2.x))

  00074	39 7d f4	 cmp	 DWORD PTR $T6[ebp], edi
  00077	8b c7		 mov	 eax, edi
  00079	8b 55 14	 mov	 edx, DWORD PTR _test_point$[ebp]
  0007c	0f 4f 45 e0	 cmovg	 eax, DWORD PTR $T2[ebp]
  00080	3b d0		 cmp	 edx, eax
  00082	7f 3e		 jg	 SHORT $LN49@Point_In_P

; 236  : 				{
; 237  : 					if (p1.y != p2.y)

  00084	39 75 dc	 cmp	 DWORD PTR $T1[ebp], esi
  00087	74 39		 je	 SHORT $LN49@Point_In_P

; 240  : 						
; 241  : 						if (p1.x == p2.x || test_point.x <= xinters)

  00089	3b df		 cmp	 ebx, edi
  0008b	74 2c		 je	 SHORT $LN10@Point_In_P

; 238  : 					{
; 239  : 						xinters = (test_point.y-p1.y)*(p2.x-p1.x)/(p2.y-p1.y)+p1.x;

  0008d	66 0f 6e ca	 movd	 xmm1, edx
  00091	8b c1		 mov	 eax, ecx
  00093	2b 45 f8	 sub	 eax, DWORD PTR _p1$1$[ebp]

; 240  : 						
; 241  : 						if (p1.x == p2.x || test_point.x <= xinters)

  00096	8b d7		 mov	 edx, edi
  00098	2b d3		 sub	 edx, ebx
  0009a	8b ce		 mov	 ecx, esi
  0009c	2b 4d f8	 sub	 ecx, DWORD PTR _p1$1$[ebp]
  0009f	0f af c2	 imul	 eax, edx
  000a2	f3 0f e6 c9	 cvtdq2pd xmm1, xmm1
  000a6	99		 cdq
  000a7	f7 f9		 idiv	 ecx
  000a9	03 c3		 add	 eax, ebx
  000ab	66 0f 6e c0	 movd	 xmm0, eax
  000af	f3 0f e6 c0	 cvtdq2pd xmm0, xmm0
  000b3	66 0f 2f c1	 comisd	 xmm0, xmm1
  000b7	72 09		 jb	 SHORT $LN49@Point_In_P
$LN10@Point_In_P:

; 242  : 							counter++;

  000b9	8b 45 fc	 mov	 eax, DWORD PTR _counter$1$[ebp]
  000bc	40		 inc	 eax
  000bd	89 45 fc	 mov	 DWORD PTR _counter$1$[ebp], eax
  000c0	eb 03		 jmp	 SHORT $LN9@Point_In_P
$LN49@Point_In_P:

; 243  : 					}
; 244  : 				}
; 245  : 			}
; 246  : 		}
; 247  : 		p1 = p2;

  000c2	8b 45 fc	 mov	 eax, DWORD PTR _counter$1$[ebp]
$LN9@Point_In_P:
  000c5	8b ce		 mov	 ecx, esi
  000c7	89 75 f8	 mov	 DWORD PTR _p1$1$[ebp], esi
  000ca	8b 75 f0	 mov	 esi, DWORD PTR _i$1$[ebp]
  000cd	8b d7		 mov	 edx, edi
  000cf	46		 inc	 esi
  000d0	89 55 f4	 mov	 DWORD PTR $T6[ebp], edx
  000d3	8b df		 mov	 ebx, edi
  000d5	89 75 f0	 mov	 DWORD PTR _i$1$[ebp], esi
  000d8	8b 7d d8	 mov	 edi, DWORD PTR tv600[ebp]
; File C:\Program Files\Microsoft Visual Studio\2022\Professional\VC\Tools\MSVC\14.44.35207\include\vector

; 1915 :         return static_cast<size_type>(_My_data._Mylast - _My_data._Myfirst);

  000db	89 4d ec	 mov	 DWORD PTR $T5[ebp], ecx
  000de	89 4d e8	 mov	 DWORD PTR $T4[ebp], ecx
  000e1	89 4d e4	 mov	 DWORD PTR $T3[ebp], ecx
  000e4	89 55 e0	 mov	 DWORD PTR $T2[ebp], edx
  000e7	89 4d dc	 mov	 DWORD PTR $T1[ebp], ecx
; File C:\IAGOS\server\v18\Source\Source\_Common\Continent.cpp

; 227  : 	for( i=1;i<=(int)( vecMap.size() );i++ )

  000ea	3b f7		 cmp	 esi, edi
  000ec	0f 8e 56 ff ff
	ff		 jle	 $LL4@Point_In_P
$LN3@Point_In_P:

; 250  : 	if (counter % 2 == 0)

  000f2	83 e0 01	 and	 eax, 1
; File C:\Program Files\Microsoft Visual Studio\2022\Professional\VC\Tools\MSVC\14.44.35207\include\vector

; 830  :         _Tidy();

  000f5	8d 4d 08	 lea	 ecx, DWORD PTR _vecMap$[ebp]
; File C:\IAGOS\server\v18\Source\Source\_Common\Continent.cpp

; 250  : 	if (counter % 2 == 0)

  000f8	89 45 fc	 mov	 DWORD PTR _counter$1$[ebp], eax
; File C:\Program Files\Microsoft Visual Studio\2022\Professional\VC\Tools\MSVC\14.44.35207\include\vector

; 830  :         _Tidy();

  000fb	e8 00 00 00 00	 call	 ?_Tidy@?$vector@VCPoint@@V?$allocator@VCPoint@@@std@@@std@@AAEXXZ ; std::vector<CPoint,std::allocator<CPoint> >::_Tidy
; File C:\IAGOS\server\v18\Source\Source\_Common\Continent.cpp

; 253  : 		return TRUE;

  00100	8b 45 fc	 mov	 eax, DWORD PTR _counter$1$[ebp]
  00103	5f		 pop	 edi
  00104	5e		 pop	 esi
  00105	5b		 pop	 ebx

; 254  : }

  00106	8b e5		 mov	 esp, ebp
  00108	5d		 pop	 ebp
  00109	c2 14 00	 ret	 20			; 00000014H
?Point_In_Poly@CContinent@@AAEHV?$vector@VCPoint@@V?$allocator@VCPoint@@@std@@@std@@VCPoint@@@Z ENDP ; CContinent::Point_In_Poly
_TEXT	ENDS
; Function compile flags: /Ogtp
; File C:\IAGOS\server\v18\Source\Source\_Common\Continent.cpp
; File C:\Program Files\Microsoft Visual Studio\2022\Professional\VC\Tools\MSVC\14.44.35207\include\xtree
; File C:\IAGOS\server\v18\Source\Source\_Common\Continent.cpp
; File C:\Program Files\Microsoft Visual Studio\2022\Professional\VC\Tools\MSVC\14.44.35207\include\xtree
; File C:\Program Files\Microsoft Visual Studio\2022\Professional\VC\Tools\MSVC\14.44.35207\include\vector
; File C:\IAGOS\server\v18\Source\Source\_Common\Continent.cpp
; File C:\Program Files\Microsoft Visual Studio\2022\Professional\VC\Tools\MSVC\14.44.35207\atlmfc\include\afxstr.h
; File C:\Program Files\Microsoft Visual Studio\2022\Professional\VC\Tools\MSVC\14.44.35207\atlmfc\include\atlsimpstr.h
; File C:\Program Files\Microsoft Visual Studio\2022\Professional\VC\Tools\MSVC\14.44.35207\atlmfc\include\cstringt.h
; File C:\Program Files\Microsoft Visual Studio\2022\Professional\VC\Tools\MSVC\14.44.35207\atlmfc\include\atlsimpstr.h
; File C:\IAGOS\server\v18\Source\Source\_Common\Continent.cpp
; File C:\Program Files\Microsoft Visual Studio\2022\Professional\VC\Tools\MSVC\14.44.35207\atlmfc\include\afxstr.h
; File C:\Program Files\Microsoft Visual Studio\2022\Professional\VC\Tools\MSVC\14.44.35207\atlmfc\include\atlsimpstr.h
; File C:\Program Files\Microsoft Visual Studio\2022\Professional\VC\Tools\MSVC\14.44.35207\atlmfc\include\cstringt.h
; File C:\Program Files\Microsoft Visual Studio\2022\Professional\VC\Tools\MSVC\14.44.35207\atlmfc\include\atlsimpstr.h
; File C:\IAGOS\server\v18\Source\Source\_Common\Continent.cpp
; File C:\Program Files\Microsoft Visual Studio\2022\Professional\VC\Tools\MSVC\14.44.35207\atlmfc\include\afxstr.h
; File C:\Program Files\Microsoft Visual Studio\2022\Professional\VC\Tools\MSVC\14.44.35207\atlmfc\include\atlsimpstr.h
; File C:\Program Files\Microsoft Visual Studio\2022\Professional\VC\Tools\MSVC\14.44.35207\atlmfc\include\cstringt.h
; File C:\Program Files\Microsoft Visual Studio\2022\Professional\VC\Tools\MSVC\14.44.35207\atlmfc\include\atlsimpstr.h
; File C:\IAGOS\server\v18\Source\Source\_Common\Continent.cpp
; File C:\Program Files\Microsoft Visual Studio\2022\Professional\VC\Tools\MSVC\14.44.35207\atlmfc\include\atlsimpstr.h
; File C:\IAGOS\server\v18\Source\Source\_Common\Continent.cpp
; File C:\Program Files\Microsoft Visual Studio\2022\Professional\VC\Tools\MSVC\14.44.35207\atlmfc\include\atlsimpstr.h
; File C:\IAGOS\server\v18\Source\Source\_Common\Continent.cpp
; File C:\Program Files\Microsoft Visual Studio\2022\Professional\VC\Tools\MSVC\14.44.35207\atlmfc\include\atlsimpstr.h
; File C:\IAGOS\server\v18\Source\Source\_Common\Continent.cpp
; File C:\Program Files\Microsoft Visual Studio\2022\Professional\VC\Tools\MSVC\14.44.35207\atlmfc\include\atlsimpstr.h
; File C:\IAGOS\server\v18\Source\Source\_Common\Continent.cpp
; File C:\Program Files\Microsoft Visual Studio\2022\Professional\VC\Tools\MSVC\14.44.35207\atlmfc\include\atlsimpstr.h
; File C:\IAGOS\server\v18\Source\Source\_Common\Continent.cpp
; File C:\Program Files\Microsoft Visual Studio\2022\Professional\VC\Tools\MSVC\14.44.35207\atlmfc\include\atlsimpstr.h
; File C:\IAGOS\server\v18\Source\Source\_Common\Continent.cpp
; File C:\Program Files\Microsoft Visual Studio\2022\Professional\VC\Tools\MSVC\14.44.35207\atlmfc\include\cstringt.h
; File C:\IAGOS\server\v18\Source\Source\_Common\Continent.cpp
; File C:\Program Files\Microsoft Visual Studio\2022\Professional\VC\Tools\MSVC\14.44.35207\atlmfc\include\cstringt.h
; File C:\IAGOS\server\v18\Source\Source\_Common\Continent.cpp
; File C:\Program Files\Microsoft Visual Studio\2022\Professional\VC\Tools\MSVC\14.44.35207\include\vector
; File C:\IAGOS\server\v18\Source\Source\_Common\Continent.cpp
; File C:\Program Files\Microsoft Visual Studio\2022\Professional\VC\Tools\MSVC\14.44.35207\atlmfc\include\cstringt.h
; File C:\IAGOS\server\v18\Source\Source\_Common\Continent.cpp
; File C:\Program Files\Microsoft Visual Studio\2022\Professional\VC\Tools\MSVC\14.44.35207\include\vector
; File C:\IAGOS\server\v18\Source\Source\_Common\Continent.cpp
; File C:\Program Files\Microsoft Visual Studio\2022\Professional\VC\Tools\MSVC\14.44.35207\include\vector
; File C:\IAGOS\server\v18\Source\Source\_Common\Continent.cpp
; File C:\Program Files\Microsoft Visual Studio\2022\Professional\VC\Tools\MSVC\14.44.35207\include\vector
; File C:\Program Files\Microsoft Visual Studio\2022\Professional\VC\Tools\MSVC\14.44.35207\include\xmemory
; File C:\Program Files\Microsoft Visual Studio\2022\Professional\VC\Tools\MSVC\14.44.35207\include\vector
; File C:\Program Files\Microsoft Visual Studio\2022\Professional\VC\Tools\MSVC\14.44.35207\include\xmemory
; File C:\Program Files\Microsoft Visual Studio\2022\Professional\VC\Tools\MSVC\14.44.35207\include\vector
; File C:\Program Files\Microsoft Visual Studio\2022\Professional\VC\Tools\MSVC\14.44.35207\include\xmemory
; File C:\Program Files\Microsoft Visual Studio\2022\Professional\VC\Tools\MSVC\14.44.35207\include\vector
; File C:\Program Files\Microsoft Visual Studio\2022\Professional\VC\Tools\MSVC\14.44.35207\include\xmemory
; File C:\Program Files\Microsoft Visual Studio\2022\Professional\VC\Tools\MSVC\14.44.35207\include\vector
; File C:\Program Files\Microsoft Visual Studio\2022\Professional\VC\Tools\MSVC\14.44.35207\include\xmemory
; File C:\Program Files\Microsoft Visual Studio\2022\Professional\VC\Tools\MSVC\14.44.35207\include\vector
; File C:\Program Files\Microsoft Visual Studio\2022\Professional\VC\Tools\MSVC\14.44.35207\include\xmemory
; File C:\Program Files\Microsoft Visual Studio\2022\Professional\VC\Tools\MSVC\14.44.35207\include\vector
; File C:\Program Files\Microsoft Visual Studio\2022\Professional\VC\Tools\MSVC\14.44.35207\include\xmemory
; File C:\Program Files\Microsoft Visual Studio\2022\Professional\VC\Tools\MSVC\14.44.35207\include\vector
; File C:\IAGOS\server\v18\Source\Source\_Common\Continent.cpp
; File C:\Program Files\Microsoft Visual Studio\2022\Professional\VC\Tools\MSVC\14.44.35207\include\utility
; File C:\Program Files\Microsoft Visual Studio\2022\Professional\VC\Tools\MSVC\14.44.35207\include\vector
; File C:\Program Files\Microsoft Visual Studio\2022\Professional\VC\Tools\MSVC\14.44.35207\include\xmemory
; File C:\Program Files\Microsoft Visual Studio\2022\Professional\VC\Tools\MSVC\14.44.35207\include\vector
; File C:\Program Files\Microsoft Visual Studio\2022\Professional\VC\Tools\MSVC\14.44.35207\include\utility
; File C:\IAGOS\server\v18\Source\Source\_Common\Continent.cpp
; File C:\Program Files\Microsoft Visual Studio\2022\Professional\VC\Tools\MSVC\14.44.35207\include\utility
; File C:\Program Files\Microsoft Visual Studio\2022\Professional\VC\Tools\MSVC\14.44.35207\include\vector
; File C:\Program Files\Microsoft Visual Studio\2022\Professional\VC\Tools\MSVC\14.44.35207\include\xmemory
; File C:\Program Files\Microsoft Visual Studio\2022\Professional\VC\Tools\MSVC\14.44.35207\include\vector
; File C:\Program Files\Microsoft Visual Studio\2022\Professional\VC\Tools\MSVC\14.44.35207\include\utility
; File C:\IAGOS\server\v18\Source\Source\_Common\Continent.cpp
; File C:\Program Files\Microsoft Visual Studio\2022\Professional\VC\Tools\MSVC\14.44.35207\include\vector
; File C:\IAGOS\server\v18\Source\Source\_Common\Continent.cpp
; File C:\Program Files\Microsoft Visual Studio\2022\Professional\VC\Tools\MSVC\14.44.35207\include\vector
; File C:\IAGOS\server\v18\Source\Source\_Common\Continent.cpp
; File C:\Program Files\Microsoft Visual Studio\2022\Professional\VC\Tools\MSVC\14.44.35207\include\vector
; File C:\Program Files\Microsoft Visual Studio\2022\Professional\VC\Tools\MSVC\14.44.35207\include\xmemory
; File C:\Program Files\Microsoft Visual Studio\2022\Professional\VC\Tools\MSVC\14.44.35207\include\vector
; File C:\IAGOS\server\v18\Source\Source\_Common\Continent.cpp
; File C:\Program Files\Microsoft Visual Studio\2022\Professional\VC\Tools\MSVC\14.44.35207\atlmfc\include\cstringt.h
; File C:\IAGOS\server\v18\Source\Source\_Common\Continent.cpp
; File C:\Program Files\Microsoft Visual Studio\2022\Professional\VC\Tools\MSVC\14.44.35207\atlmfc\include\cstringt.h
; File C:\IAGOS\server\v18\Source\Source\_Common\Continent.cpp
; File C:\Program Files\Microsoft Visual Studio\2022\Professional\VC\Tools\MSVC\14.44.35207\include\vector
; File C:\IAGOS\server\v18\Source\Source\_Common\Continent.cpp
; File C:\Program Files\Microsoft Visual Studio\2022\Professional\VC\Tools\MSVC\14.44.35207\include\vector
; File C:\Program Files\Microsoft Visual Studio\2022\Professional\VC\Tools\MSVC\14.44.35207\include\xmemory
; File C:\Program Files\Microsoft Visual Studio\2022\Professional\VC\Tools\MSVC\14.44.35207\include\vector
; File C:\Program Files\Microsoft Visual Studio\2022\Professional\VC\Tools\MSVC\14.44.35207\include\xmemory
; File C:\Program Files\Microsoft Visual Studio\2022\Professional\VC\Tools\MSVC\14.44.35207\include\vector
; File C:\Program Files\Microsoft Visual Studio\2022\Professional\VC\Tools\MSVC\14.44.35207\include\xmemory
; File C:\Program Files\Microsoft Visual Studio\2022\Professional\VC\Tools\MSVC\14.44.35207\include\vector
; File C:\Program Files\Microsoft Visual Studio\2022\Professional\VC\Tools\MSVC\14.44.35207\include\xmemory
; File C:\Program Files\Microsoft Visual Studio\2022\Professional\VC\Tools\MSVC\14.44.35207\include\vector
; File C:\Program Files\Microsoft Visual Studio\2022\Professional\VC\Tools\MSVC\14.44.35207\include\xmemory
; File C:\Program Files\Microsoft Visual Studio\2022\Professional\VC\Tools\MSVC\14.44.35207\include\vector
; File C:\Program Files\Microsoft Visual Studio\2022\Professional\VC\Tools\MSVC\14.44.35207\include\xmemory
; File C:\Program Files\Microsoft Visual Studio\2022\Professional\VC\Tools\MSVC\14.44.35207\include\vector
; File C:\Program Files\Microsoft Visual Studio\2022\Professional\VC\Tools\MSVC\14.44.35207\include\xmemory
; File C:\Program Files\Microsoft Visual Studio\2022\Professional\VC\Tools\MSVC\14.44.35207\include\vector
; File C:\IAGOS\server\v18\Source\Source\_Common\Continent.cpp
; File C:\Program Files\Microsoft Visual Studio\2022\Professional\VC\Tools\MSVC\14.44.35207\atlmfc\include\cstringt.h
; File C:\IAGOS\server\v18\Source\Source\_Common\Continent.cpp
; File C:\Program Files\Microsoft Visual Studio\2022\Professional\VC\Tools\MSVC\14.44.35207\atlmfc\include\cstringt.h
; File C:\IAGOS\server\v18\Source\Source\_Common\Continent.cpp
; File C:\Program Files\Microsoft Visual Studio\2022\Professional\VC\Tools\MSVC\14.44.35207\atlmfc\include\cstringt.h
; File C:\IAGOS\server\v18\Source\Source\_Common\Continent.cpp
; File C:\Program Files\Microsoft Visual Studio\2022\Professional\VC\Tools\MSVC\14.44.35207\atlmfc\include\atlsimpstr.h
; File C:\IAGOS\server\v18\Source\Source\_Common\Continent.cpp
; File C:\Program Files\Microsoft Visual Studio\2022\Professional\VC\Tools\MSVC\14.44.35207\atlmfc\include\atlsimpstr.h
; File C:\IAGOS\server\v18\Source\Source\_Common\Continent.cpp
; File C:\Program Files\Microsoft Visual Studio\2022\Professional\VC\Tools\MSVC\14.44.35207\atlmfc\include\atlsimpstr.h
; File C:\Program Files\Microsoft Visual Studio\2022\Professional\VC\Tools\MSVC\14.44.35207\include\vector
; File C:\Program Files\Microsoft Visual Studio\2022\Professional\VC\Tools\MSVC\14.44.35207\include\xmemory
; File C:\Program Files\Microsoft Visual Studio\2022\Professional\VC\Tools\MSVC\14.44.35207\include\vector
; File C:\Program Files\Microsoft Visual Studio\2022\Professional\VC\Tools\MSVC\14.44.35207\include\xmemory
; File C:\IAGOS\server\v18\Source\Source\_Common\Continent.cpp
; File C:\Program Files\Microsoft Visual Studio\2022\Professional\VC\Tools\MSVC\14.44.35207\atlmfc\include\atlsimpstr.h
; File C:\IAGOS\server\v18\Source\Source\_Common\Continent.cpp
; File C:\Program Files\Microsoft Visual Studio\2022\Professional\VC\Tools\MSVC\14.44.35207\include\xmemory
; File C:\IAGOS\server\v18\Source\Source\_Common\Continent.cpp
;	COMDAT ?Init@CContinent@@AAEXXZ
_TEXT	SEGMENT
$T4 = -3688						; size = 8
$T5 = -3680						; size = 8
__Newsize$1$ = -3672					; size = 4
$T6 = -3668						; size = 16
_strDir$ = -3652					; size = 4
_strFullFileName$ = -3648				; size = 4
_this$GSCopy$1$ = -3644					; size = 4
$T7 = -3640						; size = 16
$T8 = -3624						; size = 4
__Oldsize$1$ = -3620					; size = 4
__Oldsize$1$ = -3620					; size = 4
tv2955 = -3616						; size = 4
tv2977 = -3616						; size = 4
$T9 = -3612						; size = 4
$T10 = -3608						; size = 4
_x$11 = -3608						; size = 4
tv2960 = -3608						; size = 4
$T12 = -3604						; size = 4
_z$13 = -3604						; size = 4
__Newsize$1$ = -3604					; size = 4
$T14 = -3600						; size = 4
__Ptr$1$ = -3600					; size = 4
$T15 = -3596						; size = 4
_id$1$ = -3596						; size = 4
$T16 = -3592						; size = 4
_bTown$1$ = -3592					; size = 4
_vecMap$ = -3588					; size = 12
_script$ = -3576					; size = 3560
__$ArrayPad$ = -16					; size = 4
__$EHRec$ = -12						; size = 12
?Init@CContinent@@AAEXXZ PROC				; CContinent::Init, COMDAT
; _this$ = ecx

; 30   : {

  00000	55		 push	 ebp
  00001	8b ec		 mov	 ebp, esp
  00003	6a ff		 push	 -1
  00005	68 00 00 00 00	 push	 __ehhandler$?Init@CContinent@@AAEXXZ
  0000a	64 a1 00 00 00
	00		 mov	 eax, DWORD PTR fs:0
  00010	50		 push	 eax
  00011	81 ec 5c 0e 00
	00		 sub	 esp, 3676		; 00000e5cH
  00017	a1 00 00 00 00	 mov	 eax, DWORD PTR ___security_cookie
  0001c	33 c5		 xor	 eax, ebp
  0001e	89 45 f0	 mov	 DWORD PTR __$ArrayPad$[ebp], eax
  00021	53		 push	 ebx
  00022	56		 push	 esi
  00023	57		 push	 edi
  00024	50		 push	 eax
  00025	8d 45 f4	 lea	 eax, DWORD PTR __$EHRec$[ebp]
  00028	64 a3 00 00 00
	00		 mov	 DWORD PTR fs:0, eax
  0002e	8b c1		 mov	 eax, ecx
  00030	89 85 c4 f1 ff
	ff		 mov	 DWORD PTR _this$GSCopy$1$[ebp], eax

; 31   : 	m_MapCont.clear();

  00036	8d 78 04	 lea	 edi, DWORD PTR [eax+4]
  00039	33 db		 xor	 ebx, ebx
  0003b	89 9d d8 f1 ff
	ff		 mov	 DWORD PTR $T8[ebp], ebx
; File C:\Program Files\Microsoft Visual Studio\2022\Professional\VC\Tools\MSVC\14.44.35207\include\xtree

; 1374 :         _Scary->_Erase_tree(_Getal(), _Head->_Parent);

  00041	8b cf		 mov	 ecx, edi
  00043	8b 37		 mov	 esi, DWORD PTR [edi]
; File C:\IAGOS\server\v18\Source\Source\_Common\Continent.cpp

; 30   : {

  00045	89 9d e4 f1 ff
	ff		 mov	 DWORD PTR $T9[ebp], ebx
; File C:\Program Files\Microsoft Visual Studio\2022\Professional\VC\Tools\MSVC\14.44.35207\include\xtree

; 1374 :         _Scary->_Erase_tree(_Getal(), _Head->_Parent);

  0004b	ff 76 04	 push	 DWORD PTR [esi+4]
  0004e	57		 push	 edi
  0004f	e8 00 00 00 00	 call	 ??$_Erase_tree@V?$allocator@U?$_Tree_node@U?$pair@$$CBEV?$vector@VCPoint@@V?$allocator@VCPoint@@@std@@@std@@@std@@PAX@std@@@std@@@?$_Tree_val@U?$_Tree_simple_types@U?$pair@$$CBEV?$vector@VCPoint@@V?$allocator@VCPoint@@@std@@@std@@@std@@@std@@@std@@QAEXAAV?$allocator@U?$_Tree_node@U?$pair@$$CBEV?$vector@VCPoint@@V?$allocator@VCPoint@@@std@@@std@@@std@@PAX@std@@@1@PAU?$_Tree_node@U?$pair@$$CBEV?$vector@VCPoint@@V?$allocator@VCPoint@@@std@@@std@@@std@@PAX@1@@Z ; std::_Tree_val<std::_Tree_simple_types<std::pair<unsigned char const ,std::vector<CPoint,std::allocator<CPoint> > > > >::_Erase_tree<std::allocator<std::_Tree_node<std::pair<unsigned char const ,std::vector<CPoint,std::allocator<CPoint> > >,void *> > >

; 1375 :         _Head->_Parent  = _Head;

  00054	89 76 04	 mov	 DWORD PTR [esi+4], esi

; 1376 :         _Head->_Left    = _Head;

  00057	89 36		 mov	 DWORD PTR [esi], esi

; 1377 :         _Head->_Right   = _Head;

  00059	89 76 08	 mov	 DWORD PTR [esi+8], esi

; 1378 :         _Scary->_Mysize = 0;

  0005c	89 5f 04	 mov	 DWORD PTR [edi+4], ebx
; File C:\Program Files\Microsoft Visual Studio\2022\Professional\VC\Tools\MSVC\14.44.35207\include\vector

; 400  :     _CONSTEXPR20 _Vector_val() noexcept : _Myfirst(), _Mylast(), _Myend() {}

  0005f	89 9d fc f1 ff
	ff		 mov	 DWORD PTR _vecMap$[ebp], ebx
  00065	89 9d 00 f2 ff
	ff		 mov	 DWORD PTR _vecMap$[ebp+4], ebx
  0006b	89 9d 04 f2 ff
	ff		 mov	 DWORD PTR _vecMap$[ebp+8], ebx
; File C:\IAGOS\server\v18\Source\Source\_Common\Continent.cpp

; 37   : 	CString strDir = MakePath( DIR_WORLD, szWorldName );

  00071	68 00 00 00 00	 push	 OFFSET ??_C@_0L@KFPAPNMN@WdMadrigal@
  00076	8d 85 bc f1 ff
	ff		 lea	 eax, DWORD PTR _strDir$[ebp]
  0007c	89 5d fc	 mov	 DWORD PTR __$EHRec$[ebp+8], ebx
  0007f	68 00 00 00 00	 push	 OFFSET ??_C@_06NGHBMAIH@World?2@
  00084	50		 push	 eax
  00085	e8 00 00 00 00	 call	 ?MakePath@@YA?AV?$CStringT@DV?$StrTraitMFC@DV?$ChTraitsCRT@D@ATL@@@@@ATL@@PBD0@Z ; MakePath
  0008a	83 c4 0c	 add	 esp, 12			; 0000000cH
  0008d	c6 45 fc 01	 mov	 BYTE PTR __$EHRec$[ebp+8], 1
; File C:\Program Files\Microsoft Visual Studio\2022\Professional\VC\Tools\MSVC\14.44.35207\atlmfc\include\afxstr.h

; 56   : 		return( AfxGetStringManager() );

  00091	e8 00 00 00 00	 call	 ?AfxGetStringManager@@YGPAUIAtlStringMgr@ATL@@XZ ; AfxGetStringManager
  00096	8b c8		 mov	 ecx, eax
; File C:\Program Files\Microsoft Visual Studio\2022\Professional\VC\Tools\MSVC\14.44.35207\atlmfc\include\atlsimpstr.h

; 209  : 		ATLENSURE( pStringMgr != NULL );

  00098	85 c9		 test	 ecx, ecx
  0009a	0f 84 84 09 00
	00		 je	 $LN760@Init

; 210  : 		CStringData* pData = pStringMgr->GetNilString();

  000a0	8b 01		 mov	 eax, DWORD PTR [ecx]
  000a2	ff 50 0c	 call	 DWORD PTR [eax+12]

; 211  : 		Attach( pData );

  000a5	83 c0 10	 add	 eax, 16			; 00000010H
  000a8	89 85 f0 f1 ff
	ff		 mov	 DWORD PTR $T14[ebp], eax
; File C:\Program Files\Microsoft Visual Studio\2022\Professional\VC\Tools\MSVC\14.44.35207\atlmfc\include\cstringt.h

; 2712 : 		if( (pv != NULL) && IS_INTRESOURCE( pv ) )

  000ae	b8 00 00 00 00	 mov	 eax, OFFSET ??_C@_08HEFLNCGE@?4wld?4cnt@

; 1052 : 		CThisSimpleString( StringTraits::GetDefaultManager() )

  000b3	c6 45 fc 02	 mov	 BYTE PTR __$EHRec$[ebp+8], 2

; 2712 : 		if( (pv != NULL) && IS_INTRESOURCE( pv ) )

  000b7	8d 8d f0 f1 ff
	ff		 lea	 ecx, DWORD PTR $T14[ebp]
  000bd	a9 00 00 ff ff	 test	 eax, -65536		; ffff0000H
  000c2	75 0b		 jne	 SHORT $LN746@Init

; 2713 : 		{
; 2714 : 			UINT nID = LOWORD( reinterpret_cast< DWORD_PTR >( pv ) );

  000c4	0f b7 c0	 movzx	 eax, ax

; 2715 : 			(nID);
; 2716 : #ifdef _ATL_USE_WINAPI_FAMILY_DESKTOP_APP
; 2717 : 			if( !LoadString( nID ) )

  000c7	50		 push	 eax
  000c8	e8 00 00 00 00	 call	 ?LoadStringA@?$CStringT@DV?$StrTraitMFC@DV?$ChTraitsCRT@D@ATL@@@@@ATL@@QAEHI@Z ; ATL::CStringT<char,StrTraitMFC<char,ATL::ChTraitsCRT<char> > >::LoadStringA

; 1054 : 		if( !CheckImplicitLoad( pszSrc ) )

  000cd	eb 0c		 jmp	 SHORT $LN140@Init
$LN746@Init:
; File C:\Program Files\Microsoft Visual Studio\2022\Professional\VC\Tools\MSVC\14.44.35207\atlmfc\include\atlsimpstr.h

; 606  : 		SetString( pszSrc, StringLength( pszSrc ) );

  000cf	6a 08		 push	 8
  000d1	68 00 00 00 00	 push	 OFFSET ??_C@_08HEFLNCGE@?4wld?4cnt@
  000d6	e8 00 00 00 00	 call	 ?SetString@?$CSimpleStringT@D$0A@@ATL@@QAEXPBDH@Z ; ATL::CSimpleStringT<char,0>::SetString
$LN140@Init:
; File C:\IAGOS\server\v18\Source\Source\_Common\Continent.cpp

; 38   : 	CString strFullFileName = strDir + CString( "\\" ) + CString(szWorldName) + CString(".wld.cnt");

  000db	c6 45 fc 03	 mov	 BYTE PTR __$EHRec$[ebp+8], 3
; File C:\Program Files\Microsoft Visual Studio\2022\Professional\VC\Tools\MSVC\14.44.35207\atlmfc\include\afxstr.h

; 56   : 		return( AfxGetStringManager() );

  000df	e8 00 00 00 00	 call	 ?AfxGetStringManager@@YGPAUIAtlStringMgr@ATL@@XZ ; AfxGetStringManager
  000e4	8b c8		 mov	 ecx, eax
; File C:\Program Files\Microsoft Visual Studio\2022\Professional\VC\Tools\MSVC\14.44.35207\atlmfc\include\atlsimpstr.h

; 209  : 		ATLENSURE( pStringMgr != NULL );

  000e6	85 c9		 test	 ecx, ecx
  000e8	0f 84 40 09 00
	00		 je	 $LN761@Init

; 210  : 		CStringData* pData = pStringMgr->GetNilString();

  000ee	8b 01		 mov	 eax, DWORD PTR [ecx]
  000f0	ff 50 0c	 call	 DWORD PTR [eax+12]

; 211  : 		Attach( pData );

  000f3	83 c0 10	 add	 eax, 16			; 00000010H
  000f6	89 85 f4 f1 ff
	ff		 mov	 DWORD PTR $T15[ebp], eax
; File C:\Program Files\Microsoft Visual Studio\2022\Professional\VC\Tools\MSVC\14.44.35207\atlmfc\include\cstringt.h

; 2712 : 		if( (pv != NULL) && IS_INTRESOURCE( pv ) )

  000fc	b8 00 00 00 00	 mov	 eax, OFFSET ??_C@_0L@KFPAPNMN@WdMadrigal@

; 1052 : 		CThisSimpleString( StringTraits::GetDefaultManager() )

  00101	c6 45 fc 04	 mov	 BYTE PTR __$EHRec$[ebp+8], 4

; 2712 : 		if( (pv != NULL) && IS_INTRESOURCE( pv ) )

  00105	8d 8d f4 f1 ff
	ff		 lea	 ecx, DWORD PTR $T15[ebp]
  0010b	a9 00 00 ff ff	 test	 eax, -65536		; ffff0000H
  00110	75 0b		 jne	 SHORT $LN747@Init

; 2713 : 		{
; 2714 : 			UINT nID = LOWORD( reinterpret_cast< DWORD_PTR >( pv ) );

  00112	0f b7 c0	 movzx	 eax, ax

; 2715 : 			(nID);
; 2716 : #ifdef _ATL_USE_WINAPI_FAMILY_DESKTOP_APP
; 2717 : 			if( !LoadString( nID ) )

  00115	50		 push	 eax
  00116	e8 00 00 00 00	 call	 ?LoadStringA@?$CStringT@DV?$StrTraitMFC@DV?$ChTraitsCRT@D@ATL@@@@@ATL@@QAEHI@Z ; ATL::CStringT<char,StrTraitMFC<char,ATL::ChTraitsCRT<char> > >::LoadStringA

; 1054 : 		if( !CheckImplicitLoad( pszSrc ) )

  0011b	eb 0c		 jmp	 SHORT $LN169@Init
$LN747@Init:
; File C:\Program Files\Microsoft Visual Studio\2022\Professional\VC\Tools\MSVC\14.44.35207\atlmfc\include\atlsimpstr.h

; 606  : 		SetString( pszSrc, StringLength( pszSrc ) );

  0011d	6a 0a		 push	 10			; 0000000aH
  0011f	68 00 00 00 00	 push	 OFFSET ??_C@_0L@KFPAPNMN@WdMadrigal@
  00124	e8 00 00 00 00	 call	 ?SetString@?$CSimpleStringT@D$0A@@ATL@@QAEXPBDH@Z ; ATL::CSimpleStringT<char,0>::SetString
$LN169@Init:
; File C:\IAGOS\server\v18\Source\Source\_Common\Continent.cpp

; 38   : 	CString strFullFileName = strDir + CString( "\\" ) + CString(szWorldName) + CString(".wld.cnt");

  00129	c6 45 fc 05	 mov	 BYTE PTR __$EHRec$[ebp+8], 5
; File C:\Program Files\Microsoft Visual Studio\2022\Professional\VC\Tools\MSVC\14.44.35207\atlmfc\include\afxstr.h

; 56   : 		return( AfxGetStringManager() );

  0012d	e8 00 00 00 00	 call	 ?AfxGetStringManager@@YGPAUIAtlStringMgr@ATL@@XZ ; AfxGetStringManager
  00132	8b c8		 mov	 ecx, eax
; File C:\Program Files\Microsoft Visual Studio\2022\Professional\VC\Tools\MSVC\14.44.35207\atlmfc\include\atlsimpstr.h

; 209  : 		ATLENSURE( pStringMgr != NULL );

  00134	85 c9		 test	 ecx, ecx
  00136	0f 84 fc 08 00
	00		 je	 $LN762@Init

; 210  : 		CStringData* pData = pStringMgr->GetNilString();

  0013c	8b 01		 mov	 eax, DWORD PTR [ecx]
  0013e	ff 50 0c	 call	 DWORD PTR [eax+12]

; 211  : 		Attach( pData );

  00141	83 c0 10	 add	 eax, 16			; 00000010H
  00144	89 85 f8 f1 ff
	ff		 mov	 DWORD PTR $T16[ebp], eax
; File C:\Program Files\Microsoft Visual Studio\2022\Professional\VC\Tools\MSVC\14.44.35207\atlmfc\include\cstringt.h

; 2712 : 		if( (pv != NULL) && IS_INTRESOURCE( pv ) )

  0014a	b8 00 00 00 00	 mov	 eax, OFFSET ??_C@_01KICIPPFI@?2@

; 1052 : 		CThisSimpleString( StringTraits::GetDefaultManager() )

  0014f	c6 45 fc 06	 mov	 BYTE PTR __$EHRec$[ebp+8], 6

; 2712 : 		if( (pv != NULL) && IS_INTRESOURCE( pv ) )

  00153	8d 8d f8 f1 ff
	ff		 lea	 ecx, DWORD PTR $T16[ebp]
  00159	a9 00 00 ff ff	 test	 eax, -65536		; ffff0000H
  0015e	75 0b		 jne	 SHORT $LN748@Init

; 2713 : 		{
; 2714 : 			UINT nID = LOWORD( reinterpret_cast< DWORD_PTR >( pv ) );

  00160	0f b7 c0	 movzx	 eax, ax

; 2715 : 			(nID);
; 2716 : #ifdef _ATL_USE_WINAPI_FAMILY_DESKTOP_APP
; 2717 : 			if( !LoadString( nID ) )

  00163	50		 push	 eax
  00164	e8 00 00 00 00	 call	 ?LoadStringA@?$CStringT@DV?$StrTraitMFC@DV?$ChTraitsCRT@D@ATL@@@@@ATL@@QAEHI@Z ; ATL::CStringT<char,StrTraitMFC<char,ATL::ChTraitsCRT<char> > >::LoadStringA

; 1054 : 		if( !CheckImplicitLoad( pszSrc ) )

  00169	eb 0c		 jmp	 SHORT $LN198@Init
$LN748@Init:
; File C:\Program Files\Microsoft Visual Studio\2022\Professional\VC\Tools\MSVC\14.44.35207\atlmfc\include\atlsimpstr.h

; 606  : 		SetString( pszSrc, StringLength( pszSrc ) );

  0016b	6a 01		 push	 1
  0016d	68 00 00 00 00	 push	 OFFSET ??_C@_01KICIPPFI@?2@
  00172	e8 00 00 00 00	 call	 ?SetString@?$CSimpleStringT@D$0A@@ATL@@QAEXPBDH@Z ; ATL::CSimpleStringT<char,0>::SetString
$LN198@Init:
; File C:\IAGOS\server\v18\Source\Source\_Common\Continent.cpp

; 38   : 	CString strFullFileName = strDir + CString( "\\" ) + CString(szWorldName) + CString(".wld.cnt");

  00177	8d 85 f8 f1 ff
	ff		 lea	 eax, DWORD PTR $T16[ebp]
  0017d	c6 45 fc 07	 mov	 BYTE PTR __$EHRec$[ebp+8], 7
  00181	50		 push	 eax
  00182	8d 85 bc f1 ff
	ff		 lea	 eax, DWORD PTR _strDir$[ebp]
  00188	50		 push	 eax
  00189	8d 85 ec f1 ff
	ff		 lea	 eax, DWORD PTR $T12[ebp]
  0018f	50		 push	 eax
  00190	e8 00 00 00 00	 call	 ??HATL@@YA?AV?$CStringT@DV?$StrTraitMFC@DV?$ChTraitsCRT@D@ATL@@@@@0@ABV10@0@Z ; ATL::operator+
  00195	8d 8d f4 f1 ff
	ff		 lea	 ecx, DWORD PTR $T15[ebp]
  0019b	c6 45 fc 08	 mov	 BYTE PTR __$EHRec$[ebp+8], 8
  0019f	51		 push	 ecx
  001a0	50		 push	 eax
  001a1	8d 85 e8 f1 ff
	ff		 lea	 eax, DWORD PTR $T10[ebp]
  001a7	50		 push	 eax
  001a8	e8 00 00 00 00	 call	 ??HATL@@YA?AV?$CStringT@DV?$StrTraitMFC@DV?$ChTraitsCRT@D@ATL@@@@@0@ABV10@0@Z ; ATL::operator+
  001ad	8d 8d f0 f1 ff
	ff		 lea	 ecx, DWORD PTR $T14[ebp]
  001b3	c6 45 fc 09	 mov	 BYTE PTR __$EHRec$[ebp+8], 9
  001b7	51		 push	 ecx
  001b8	50		 push	 eax
  001b9	8d 85 c0 f1 ff
	ff		 lea	 eax, DWORD PTR _strFullFileName$[ebp]
  001bf	50		 push	 eax
  001c0	e8 00 00 00 00	 call	 ??HATL@@YA?AV?$CStringT@DV?$StrTraitMFC@DV?$ChTraitsCRT@D@ATL@@@@@0@ABV10@0@Z ; ATL::operator+
  001c5	83 c4 24	 add	 esp, 36			; 00000024H
; File C:\Program Files\Microsoft Visual Studio\2022\Professional\VC\Tools\MSVC\14.44.35207\atlmfc\include\atlsimpstr.h

; 804  : 		return( reinterpret_cast< CStringData* >( m_pszData )-1 );

  001c8	8b 95 e8 f1 ff
	ff		 mov	 edx, DWORD PTR $T10[ebp]

; 92   : 		if( _InterlockedDecrement( &nRefs ) <= 0 )

  001ce	83 ce ff	 or	 esi, -1
; File C:\IAGOS\server\v18\Source\Source\_Common\Continent.cpp

; 38   : 	CString strFullFileName = strDir + CString( "\\" ) + CString(szWorldName) + CString(".wld.cnt");

  001d1	c6 45 fc 0b	 mov	 BYTE PTR __$EHRec$[ebp+8], 11 ; 0000000bH
; File C:\Program Files\Microsoft Visual Studio\2022\Professional\VC\Tools\MSVC\14.44.35207\atlmfc\include\atlsimpstr.h

; 804  : 		return( reinterpret_cast< CStringData* >( m_pszData )-1 );

  001d5	83 c2 f0	 add	 edx, -16		; fffffff0H

; 92   : 		if( _InterlockedDecrement( &nRefs ) <= 0 )

  001d8	8b c6		 mov	 eax, esi
  001da	f0 0f c1 42 0c	 lock	  xadd	 DWORD PTR [edx+12], eax
  001df	48		 dec	 eax
  001e0	85 c0		 test	 eax, eax
  001e2	7f 08		 jg	 SHORT $LN233@Init

; 93   : 		{
; 94   : 			pStringMgr->Free( this );

  001e4	8b 0a		 mov	 ecx, DWORD PTR [edx]
  001e6	52		 push	 edx
  001e7	8b 01		 mov	 eax, DWORD PTR [ecx]
  001e9	ff 50 04	 call	 DWORD PTR [eax+4]
$LN233@Init:

; 804  : 		return( reinterpret_cast< CStringData* >( m_pszData )-1 );

  001ec	8b 95 ec f1 ff
	ff		 mov	 edx, DWORD PTR $T12[ebp]

; 92   : 		if( _InterlockedDecrement( &nRefs ) <= 0 )

  001f2	8b c6		 mov	 eax, esi
; File C:\IAGOS\server\v18\Source\Source\_Common\Continent.cpp

; 38   : 	CString strFullFileName = strDir + CString( "\\" ) + CString(szWorldName) + CString(".wld.cnt");

  001f4	c6 45 fc 0c	 mov	 BYTE PTR __$EHRec$[ebp+8], 12 ; 0000000cH
; File C:\Program Files\Microsoft Visual Studio\2022\Professional\VC\Tools\MSVC\14.44.35207\atlmfc\include\atlsimpstr.h

; 804  : 		return( reinterpret_cast< CStringData* >( m_pszData )-1 );

  001f8	83 c2 f0	 add	 edx, -16		; fffffff0H

; 92   : 		if( _InterlockedDecrement( &nRefs ) <= 0 )

  001fb	f0 0f c1 42 0c	 lock	  xadd	 DWORD PTR [edx+12], eax
  00200	48		 dec	 eax
  00201	85 c0		 test	 eax, eax
  00203	7f 08		 jg	 SHORT $LN242@Init

; 93   : 		{
; 94   : 			pStringMgr->Free( this );

  00205	8b 0a		 mov	 ecx, DWORD PTR [edx]
  00207	52		 push	 edx
  00208	8b 01		 mov	 eax, DWORD PTR [ecx]
  0020a	ff 50 04	 call	 DWORD PTR [eax+4]
$LN242@Init:

; 804  : 		return( reinterpret_cast< CStringData* >( m_pszData )-1 );

  0020d	8b 95 f8 f1 ff
	ff		 mov	 edx, DWORD PTR $T16[ebp]

; 92   : 		if( _InterlockedDecrement( &nRefs ) <= 0 )

  00213	8b c6		 mov	 eax, esi
; File C:\IAGOS\server\v18\Source\Source\_Common\Continent.cpp

; 38   : 	CString strFullFileName = strDir + CString( "\\" ) + CString(szWorldName) + CString(".wld.cnt");

  00215	c6 45 fc 0d	 mov	 BYTE PTR __$EHRec$[ebp+8], 13 ; 0000000dH
; File C:\Program Files\Microsoft Visual Studio\2022\Professional\VC\Tools\MSVC\14.44.35207\atlmfc\include\atlsimpstr.h

; 804  : 		return( reinterpret_cast< CStringData* >( m_pszData )-1 );

  00219	83 c2 f0	 add	 edx, -16		; fffffff0H

; 92   : 		if( _InterlockedDecrement( &nRefs ) <= 0 )

  0021c	f0 0f c1 42 0c	 lock	  xadd	 DWORD PTR [edx+12], eax
  00221	48		 dec	 eax
  00222	85 c0		 test	 eax, eax
  00224	7f 08		 jg	 SHORT $LN251@Init

; 93   : 		{
; 94   : 			pStringMgr->Free( this );

  00226	8b 0a		 mov	 ecx, DWORD PTR [edx]
  00228	52		 push	 edx
  00229	8b 01		 mov	 eax, DWORD PTR [ecx]
  0022b	ff 50 04	 call	 DWORD PTR [eax+4]
$LN251@Init:

; 804  : 		return( reinterpret_cast< CStringData* >( m_pszData )-1 );

  0022e	8b 95 f4 f1 ff
	ff		 mov	 edx, DWORD PTR $T15[ebp]

; 92   : 		if( _InterlockedDecrement( &nRefs ) <= 0 )

  00234	8b c6		 mov	 eax, esi
; File C:\IAGOS\server\v18\Source\Source\_Common\Continent.cpp

; 38   : 	CString strFullFileName = strDir + CString( "\\" ) + CString(szWorldName) + CString(".wld.cnt");

  00236	c6 45 fc 0e	 mov	 BYTE PTR __$EHRec$[ebp+8], 14 ; 0000000eH
; File C:\Program Files\Microsoft Visual Studio\2022\Professional\VC\Tools\MSVC\14.44.35207\atlmfc\include\atlsimpstr.h

; 804  : 		return( reinterpret_cast< CStringData* >( m_pszData )-1 );

  0023a	83 c2 f0	 add	 edx, -16		; fffffff0H

; 92   : 		if( _InterlockedDecrement( &nRefs ) <= 0 )

  0023d	f0 0f c1 42 0c	 lock	  xadd	 DWORD PTR [edx+12], eax
  00242	48		 dec	 eax
  00243	85 c0		 test	 eax, eax
  00245	7f 08		 jg	 SHORT $LN260@Init

; 93   : 		{
; 94   : 			pStringMgr->Free( this );

  00247	8b 0a		 mov	 ecx, DWORD PTR [edx]
  00249	52		 push	 edx
  0024a	8b 01		 mov	 eax, DWORD PTR [ecx]
  0024c	ff 50 04	 call	 DWORD PTR [eax+4]
$LN260@Init:

; 804  : 		return( reinterpret_cast< CStringData* >( m_pszData )-1 );

  0024f	8b 95 f0 f1 ff
	ff		 mov	 edx, DWORD PTR $T14[ebp]

; 92   : 		if( _InterlockedDecrement( &nRefs ) <= 0 )

  00255	8b c6		 mov	 eax, esi
; File C:\IAGOS\server\v18\Source\Source\_Common\Continent.cpp

; 38   : 	CString strFullFileName = strDir + CString( "\\" ) + CString(szWorldName) + CString(".wld.cnt");

  00257	c6 45 fc 0f	 mov	 BYTE PTR __$EHRec$[ebp+8], 15 ; 0000000fH
; File C:\Program Files\Microsoft Visual Studio\2022\Professional\VC\Tools\MSVC\14.44.35207\atlmfc\include\atlsimpstr.h

; 804  : 		return( reinterpret_cast< CStringData* >( m_pszData )-1 );

  0025b	83 c2 f0	 add	 edx, -16		; fffffff0H

; 92   : 		if( _InterlockedDecrement( &nRefs ) <= 0 )

  0025e	f0 0f c1 42 0c	 lock	  xadd	 DWORD PTR [edx+12], eax
  00263	48		 dec	 eax
  00264	85 c0		 test	 eax, eax
  00266	7f 08		 jg	 SHORT $LN269@Init

; 93   : 		{
; 94   : 			pStringMgr->Free( this );

  00268	8b 0a		 mov	 ecx, DWORD PTR [edx]
  0026a	52		 push	 edx
  0026b	8b 01		 mov	 eax, DWORD PTR [ecx]
  0026d	ff 50 04	 call	 DWORD PTR [eax+4]
$LN269@Init:
; File C:\IAGOS\server\v18\Source\Source\_Common\Continent.cpp

; 40   : 	CScript script;

  00270	6a 00		 push	 0
  00272	8d 8d 08 f2 ff
	ff		 lea	 ecx, DWORD PTR _script$[ebp]
  00278	e8 00 00 00 00	 call	 ??0CScript@@QAE@H@Z	; CScript::CScript

; 41   : 	if( script.Load( strFullFileName ) == FALSE )

  0027d	6a 00		 push	 0
  0027f	6a 01		 push	 1
  00281	ff b5 c0 f1 ff
	ff		 push	 DWORD PTR _strFullFileName$[ebp]
  00287	8d 8d 08 f2 ff
	ff		 lea	 ecx, DWORD PTR _script$[ebp]
  0028d	c6 45 fc 10	 mov	 BYTE PTR __$EHRec$[ebp+8], 16 ; 00000010H
  00291	e8 00 00 00 00	 call	 ?Load@CScript@@QAEHPBDHH@Z ; CScript::Load
  00296	85 c0		 test	 eax, eax
  00298	0f 84 e6 06 00
	00		 je	 $LN3@Init

; 42   : 		return;
; 43   : 
; 44   : 	int id = 0;
; 45   : 	BOOL bTown = FALSE;

  0029e	8b 85 cc f1 ff
	ff		 mov	 eax, DWORD PTR $T7[ebp+4]
  002a4	c7 85 f4 f1 ff
	ff 00 00 00 00	 mov	 DWORD PTR _id$1$[ebp], 0
  002ae	c7 85 f8 f1 ff
	ff 00 00 00 00	 mov	 DWORD PTR _bTown$1$[ebp], 0
  002b8	89 85 f0 f1 ff
	ff		 mov	 DWORD PTR __Ptr$1$[ebp], eax
  002be	66 90		 npad	 2
$LL4@Init:

; 46   : 
; 47   : 	do{
; 48   : 		script.GetToken( );

  002c0	6a 00		 push	 0
  002c2	8d 8d 08 f2 ff
	ff		 lea	 ecx, DWORD PTR _script$[ebp]
  002c8	e8 00 00 00 00	 call	 ?GetToken@CScript@@UAEHH@Z ; CScript::GetToken
; File C:\Program Files\Microsoft Visual Studio\2022\Professional\VC\Tools\MSVC\14.44.35207\atlmfc\include\cstringt.h

; 184  : 		return _mbscmp( reinterpret_cast< const unsigned char* >( pszA ), reinterpret_cast< const unsigned char* >( pszB ) );

  002cd	68 00 00 00 00	 push	 OFFSET ??_C@_09DLHPOJLJ@Continent@
  002d2	ff b5 28 f2 ff
	ff		 push	 DWORD PTR _script$[ebp+32]
  002d8	e8 00 00 00 00	 call	 __mbscmp
  002dd	83 c4 08	 add	 esp, 8

; 2490 : 		return(str1.Compare(psz2) == 0);

  002e0	85 c0		 test	 eax, eax
; File C:\IAGOS\server\v18\Source\Source\_Common\Continent.cpp

; 50   : 		if( script.Token == _T( "Continent" ) )

  002e2	0f 85 09 04 00
	00		 jne	 $LN64@Init

; 51   : 		{
; 52   : 			script.GetToken();

  002e8	50		 push	 eax
  002e9	8d 8d 08 f2 ff
	ff		 lea	 ecx, DWORD PTR _script$[ebp]
  002ef	e8 00 00 00 00	 call	 ?GetToken@CScript@@UAEHH@Z ; CScript::GetToken
; File C:\Program Files\Microsoft Visual Studio\2022\Professional\VC\Tools\MSVC\14.44.35207\atlmfc\include\cstringt.h

; 184  : 		return _mbscmp( reinterpret_cast< const unsigned char* >( pszA ), reinterpret_cast< const unsigned char* >( pszB ) );

  002f4	68 00 00 00 00	 push	 OFFSET ??_C@_05ILMMJGEC@BEGIN@
  002f9	ff b5 28 f2 ff
	ff		 push	 DWORD PTR _script$[ebp+32]
  002ff	e8 00 00 00 00	 call	 __mbscmp
  00304	83 c4 08	 add	 esp, 8

; 2490 : 		return(str1.Compare(psz2) == 0);

  00307	85 c0		 test	 eax, eax
; File C:\IAGOS\server\v18\Source\Source\_Common\Continent.cpp

; 53   : 			if( script.Token == _T( "BEGIN" ) )

  00309	75 1d		 jne	 SHORT $LN96@Init
; File C:\Program Files\Microsoft Visual Studio\2022\Professional\VC\Tools\MSVC\14.44.35207\include\vector

; 1812 :         if (_Myfirst == _Mylast) { // already empty, nothing to do

  0030b	8b 85 fc f1 ff
	ff		 mov	 eax, DWORD PTR _vecMap$[ebp]
  00311	3b 85 00 f2 ff
	ff		 cmp	 eax, DWORD PTR _vecMap$[ebp+4]
  00317	0f 84 57 06 00
	00		 je	 $LN6@Init

; 1813 :             // This is an optimization for debug mode: we can avoid taking the debug lock to invalidate iterators.
; 1814 :             // Note that when clearing an empty vector, this will preserve past-the-end iterators, which is allowed by
; 1815 :             // N4950 [sequence.reqmts]/54 "a.clear() [...] may invalidate the past-the-end iterator".
; 1816 :             return;
; 1817 :         }
; 1818 : 
; 1819 :         _My_data._Orphan_all();
; 1820 :         _Destroy_range(_Myfirst, _Mylast, _Getal());
; 1821 :         _ASAN_VECTOR_MODIFY(static_cast<difference_type>(_Myfirst - _Mylast)); // negative when destroying elements
; 1822 :         _Mylast = _Myfirst;

  0031d	89 85 00 f2 ff
	ff		 mov	 DWORD PTR _vecMap$[ebp+4], eax
; File C:\IAGOS\server\v18\Source\Source\_Common\Continent.cpp

; 56   : 			}

  00323	e9 4c 06 00 00	 jmp	 $LN6@Init
$LN96@Init:
; File C:\Program Files\Microsoft Visual Studio\2022\Professional\VC\Tools\MSVC\14.44.35207\atlmfc\include\cstringt.h

; 184  : 		return _mbscmp( reinterpret_cast< const unsigned char* >( pszA ), reinterpret_cast< const unsigned char* >( pszB ) );

  00328	68 00 00 00 00	 push	 OFFSET ??_C@_03JMGAKCCH@END@
  0032d	ff b5 28 f2 ff
	ff		 push	 DWORD PTR _script$[ebp+32]
  00333	e8 00 00 00 00	 call	 __mbscmp
  00338	83 c4 08	 add	 esp, 8

; 2490 : 		return(str1.Compare(psz2) == 0);

  0033b	85 c0		 test	 eax, eax
; File C:\IAGOS\server\v18\Source\Source\_Common\Continent.cpp

; 57   : 			else if( script.Token == _T( "END" ) )

  0033d	0f 85 31 06 00
	00		 jne	 $LN6@Init
; File C:\Program Files\Microsoft Visual Studio\2022\Professional\VC\Tools\MSVC\14.44.35207\include\vector

; 1910 :         return _My_data._Myfirst == _My_data._Mylast;

  00343	8b bd fc f1 ff
	ff		 mov	 edi, DWORD PTR _vecMap$[ebp]
  00349	8b b5 00 f2 ff
	ff		 mov	 esi, DWORD PTR _vecMap$[ebp+4]
  0034f	3b fe		 cmp	 edi, esi
; File C:\IAGOS\server\v18\Source\Source\_Common\Continent.cpp

; 59   : 				if( !vecMap.empty() )

  00351	0f 84 81 01 00
	00		 je	 $LN675@Init
; File C:\Program Files\Microsoft Visual Studio\2022\Professional\VC\Tools\MSVC\14.44.35207\include\vector

; 844  :         if (_Mylast != _My_data._Myend) {

  00357	8b 8d 04 f2 ff
	ff		 mov	 ecx, DWORD PTR _vecMap$[ebp+8]
; File C:\IAGOS\server\v18\Source\Source\_Common\Continent.cpp

; 60   : 					vecMap.push_back( vecMap[ 0 ] );

  0035d	8b d7		 mov	 edx, edi
  0035f	89 95 e0 f1 ff
	ff		 mov	 DWORD PTR tv2977[ebp], edx
; File C:\Program Files\Microsoft Visual Studio\2022\Professional\VC\Tools\MSVC\14.44.35207\include\vector

; 844  :         if (_Mylast != _My_data._Myend) {

  00365	3b f1		 cmp	 esi, ecx
  00367	74 1e		 je	 SHORT $LN582@Init

; 860  :             _STD _Construct_in_place(*_Mylast, _STD forward<_Valty>(_Val)...);

  00369	8b 07		 mov	 eax, DWORD PTR [edi]
  0036b	8b 4f 04	 mov	 ecx, DWORD PTR [edi+4]
  0036e	89 06		 mov	 DWORD PTR [esi], eax
  00370	89 4e 04	 mov	 DWORD PTR [esi+4], ecx

; 861  :         } else {
; 862  :             _ASAN_VECTOR_EXTEND_GUARD(static_cast<size_type>(_Mylast - _My_data._Myfirst) + 1);
; 863  :             _Alty_traits::construct(_Getal(), _Unfancy(_Mylast), _STD forward<_Valty>(_Val)...);
; 864  :             _ASAN_VECTOR_RELEASE_GUARD;
; 865  :         }
; 866  : 
; 867  :         _Orphan_range(_Mylast, _Mylast);
; 868  :         _Ty& _Result = *_Mylast;
; 869  :         ++_Mylast;

  00373	8b b5 00 f2 ff
	ff		 mov	 esi, DWORD PTR _vecMap$[ebp+4]

; 845  :             return _Emplace_back_with_unused_capacity(_STD forward<_Valty>(_Val)...);

  00379	8b bd fc f1 ff
	ff		 mov	 edi, DWORD PTR _vecMap$[ebp]

; 869  :         ++_Mylast;

  0037f	83 c6 08	 add	 esi, 8

; 845  :             return _Emplace_back_with_unused_capacity(_STD forward<_Valty>(_Val)...);

  00382	e9 4b 01 00 00	 jmp	 $LN756@Init
$LN582@Init:

; 875  :     _CONSTEXPR20 pointer _Emplace_reallocate(const pointer _Whereptr, _Valty&&... _Val) {

  00387	8b c6		 mov	 eax, esi
  00389	2b c2		 sub	 eax, edx

; 876  :         // reallocate and insert by perfectly forwarding _Val at _Whereptr
; 877  :         _Alty& _Al        = _Getal();
; 878  :         auto& _My_data    = _Mypair._Myval2;
; 879  :         pointer& _Myfirst = _My_data._Myfirst;
; 880  :         pointer& _Mylast  = _My_data._Mylast;
; 881  : 
; 882  :         _STL_INTERNAL_CHECK(_Mylast == _My_data._Myend); // check that we have no unused capacity
; 883  : 
; 884  :         const auto _Whereoff = static_cast<size_type>(_Whereptr - _Myfirst);

  0038b	c1 f8 03	 sar	 eax, 3
  0038e	89 85 dc f1 ff
	ff		 mov	 DWORD PTR __Oldsize$1$[ebp], eax

; 885  :         const auto _Oldsize  = static_cast<size_type>(_Mylast - _Myfirst);
; 886  : 
; 887  :         if (_Oldsize == max_size()) {

  00394	3d ff ff ff 1f	 cmp	 eax, 536870911		; 1fffffffH
  00399	0f 84 b2 06 00
	00		 je	 $LN731@Init

; 888  :             _Xlength();
; 889  :         }
; 890  : 
; 891  :         const size_type _Newsize = _Oldsize + 1;

  0039f	2b ca		 sub	 ecx, edx
  003a1	40		 inc	 eax

; 1924 :         return static_cast<size_type>(_My_data._Myend - _My_data._Myfirst);

  003a2	c1 f9 03	 sar	 ecx, 3

; 891  :         const size_type _Newsize = _Oldsize + 1;

  003a5	89 85 ec f1 ff
	ff		 mov	 DWORD PTR __Newsize$1$[ebp], eax

; 2011 :         if (_Oldcapacity > _Max - _Oldcapacity / 2) {

  003ab	8b f9		 mov	 edi, ecx
  003ad	d1 ef		 shr	 edi, 1
  003af	b8 ff ff ff 1f	 mov	 eax, 536870911		; 1fffffffH
  003b4	2b c7		 sub	 eax, edi
  003b6	3b c8		 cmp	 ecx, eax
  003b8	76 17		 jbe	 SHORT $LN593@Init

; 2012 :             return _Max; // geometric growth would overflow

  003ba	b8 f8 ff ff ff	 mov	 eax, -8			; fffffff8H
  003bf	c7 85 e8 f1 ff
	ff f8 ff ff ff	 mov	 DWORD PTR tv2960[ebp], -8 ; fffffff8H
; File C:\Program Files\Microsoft Visual Studio\2022\Professional\VC\Tools\MSVC\14.44.35207\include\xmemory

; 253  :             return _Allocate_manually_vector_aligned<_Traits>(_Bytes);

  003c9	50		 push	 eax
  003ca	e8 00 00 00 00	 call	 ??$_Allocate_manually_vector_aligned@U_Default_allocate_traits@std@@@std@@YAPAXI@Z ; std::_Allocate_manually_vector_aligned<std::_Default_allocate_traits>
  003cf	eb 44		 jmp	 SHORT $LN757@Init
$LN593@Init:
; File C:\Program Files\Microsoft Visual Studio\2022\Professional\VC\Tools\MSVC\14.44.35207\include\vector

; 2015 :         const size_type _Geometric = _Oldcapacity + _Oldcapacity / 2;

  003d1	8d 04 39	 lea	 eax, DWORD PTR [ecx+edi]
; File C:\Program Files\Microsoft Visual Studio\2022\Professional\VC\Tools\MSVC\14.44.35207\include\xmemory

; 117  :         if (_Count > _Max_possible) {

  003d4	8b 8d ec f1 ff
	ff		 mov	 ecx, DWORD PTR __Newsize$1$[ebp]
  003da	3b c1		 cmp	 eax, ecx
  003dc	0f 43 c8	 cmovae	 ecx, eax
  003df	81 f9 ff ff ff
	1f		 cmp	 ecx, 536870911		; 1fffffffH
  003e5	0f 87 6b 06 00
	00		 ja	 $LN737@Init

; 119  :         }
; 120  :     }
; 121  : 
; 122  :     return _Count * _Ty_size;

  003eb	8d 04 cd 00 00
	00 00		 lea	 eax, DWORD PTR [ecx*8]
  003f2	89 85 e8 f1 ff
	ff		 mov	 DWORD PTR tv2960[ebp], eax

; 227  :     if (_Bytes == 0) {

  003f8	85 c0		 test	 eax, eax
  003fa	75 04		 jne	 SHORT $LN608@Init

; 228  :         return nullptr;

  003fc	33 ff		 xor	 edi, edi
  003fe	eb 20		 jmp	 SHORT $LN607@Init
$LN608@Init:

; 229  :     }
; 230  : 
; 231  : #if _HAS_CXX20 // TRANSITION, GH-1532
; 232  :     if (_STD is_constant_evaluated()) {
; 233  :         return _Traits::_Allocate(_Bytes);
; 234  :     }
; 235  : #endif // _HAS_CXX20
; 236  : 
; 237  : #ifdef __cpp_aligned_new
; 238  :     if constexpr (_Align > __STDCPP_DEFAULT_NEW_ALIGNMENT__) {
; 239  :         size_t _Passed_align = _Align;
; 240  : #if defined(_M_IX86) || defined(_M_X64)
; 241  :         if (_Bytes >= _Big_allocation_threshold) {
; 242  :             // boost the alignment of big allocations to help autovectorization
; 243  :             _Passed_align = (_STD max)(_Align, _Big_allocation_alignment);
; 244  :         }
; 245  : #endif // defined(_M_IX86) || defined(_M_X64)
; 246  :         return _Traits::_Allocate_aligned(_Bytes, _Passed_align);
; 247  :     } else
; 248  : #endif // defined(__cpp_aligned_new)
; 249  :     {
; 250  : #if defined(_M_IX86) || defined(_M_X64)
; 251  :         if (_Bytes >= _Big_allocation_threshold) {

  00400	3d 00 10 00 00	 cmp	 eax, 4096		; 00001000H
  00405	72 08		 jb	 SHORT $LN609@Init

; 253  :             return _Allocate_manually_vector_aligned<_Traits>(_Bytes);

  00407	50		 push	 eax
  00408	e8 00 00 00 00	 call	 ??$_Allocate_manually_vector_aligned@U_Default_allocate_traits@std@@@std@@YAPAXI@Z ; std::_Allocate_manually_vector_aligned<std::_Default_allocate_traits>
  0040d	eb 06		 jmp	 SHORT $LN757@Init
$LN609@Init:

; 136  :         return ::operator new(_Bytes);

  0040f	50		 push	 eax
  00410	e8 00 00 00 00	 call	 ??2@YAPAXI@Z		; operator new
$LN757@Init:
; File C:\Program Files\Microsoft Visual Studio\2022\Professional\VC\Tools\MSVC\14.44.35207\include\vector

; 900  :         _Alty_traits::construct(_Al, _STD _Unfancy(_Newvec + _Whereoff), _STD forward<_Valty>(_Val)...);

  00415	8b 95 e0 f1 ff
	ff		 mov	 edx, DWORD PTR tv2977[ebp]
  0041b	8b f8		 mov	 edi, eax
  0041d	83 c4 04	 add	 esp, 4
$LN607@Init:
  00420	8b 02		 mov	 eax, DWORD PTR [edx]
  00422	8b 4a 04	 mov	 ecx, DWORD PTR [edx+4]
  00425	8b 95 dc f1 ff
	ff		 mov	 edx, DWORD PTR __Oldsize$1$[ebp]
  0042b	89 04 d7	 mov	 DWORD PTR [edi+edx*8], eax
  0042e	89 4c d7 04	 mov	 DWORD PTR [edi+edx*8+4], ecx

; 901  :         _Constructed_first = _Newvec + _Whereoff;
; 902  : 
; 903  :         if (_Whereptr == _Mylast) { // at back, provide strong guarantee

  00432	8b 85 00 f2 ff
	ff		 mov	 eax, DWORD PTR _vecMap$[ebp+4]
  00438	3b f0		 cmp	 esi, eax
  0043a	75 0a		 jne	 SHORT $LN588@Init
; File C:\Program Files\Microsoft Visual Studio\2022\Professional\VC\Tools\MSVC\14.44.35207\include\xmemory

; 1992 :             _STD _Copy_memmove(_UFirst, _ULast, _STD _Unfancy(_Dest));

  0043c	8b b5 fc f1 ff
	ff		 mov	 esi, DWORD PTR _vecMap$[ebp]
  00442	8b cf		 mov	 ecx, edi
; File C:\Program Files\Microsoft Visual Studio\2022\Professional\VC\Tools\MSVC\14.44.35207\include\vector

; 909  :         } else { // provide basic guarantee

  00444	eb 20		 jmp	 SHORT $LN637@Init
$LN588@Init:
; File C:\Program Files\Microsoft Visual Studio\2022\Professional\VC\Tools\MSVC\14.44.35207\include\xmemory

; 1992 :             _STD _Copy_memmove(_UFirst, _ULast, _STD _Unfancy(_Dest));

  00446	57		 push	 edi
  00447	56		 push	 esi
  00448	ff b5 fc f1 ff
	ff		 push	 DWORD PTR _vecMap$[ebp]
  0044e	e8 00 00 00 00	 call	 ??$_Copy_memmove@PAVCPoint@@PAV1@@std@@YAPAVCPoint@@PAV1@00@Z ; std::_Copy_memmove<CPoint *,CPoint *>
; File C:\Program Files\Microsoft Visual Studio\2022\Professional\VC\Tools\MSVC\14.44.35207\include\vector

; 912  :             _STD _Uninitialized_move(_Whereptr, _Mylast, _Newvec + _Whereoff + 1, _Al);

  00453	8b 85 dc f1 ff
	ff		 mov	 eax, DWORD PTR __Oldsize$1$[ebp]
; File C:\Program Files\Microsoft Visual Studio\2022\Professional\VC\Tools\MSVC\14.44.35207\include\xmemory

; 1992 :             _STD _Copy_memmove(_UFirst, _ULast, _STD _Unfancy(_Dest));

  00459	83 c4 0c	 add	 esp, 12			; 0000000cH
; File C:\Program Files\Microsoft Visual Studio\2022\Professional\VC\Tools\MSVC\14.44.35207\include\vector

; 912  :             _STD _Uninitialized_move(_Whereptr, _Mylast, _Newvec + _Whereoff + 1, _Al);

  0045c	40		 inc	 eax
  0045d	8d 0c c7	 lea	 ecx, DWORD PTR [edi+eax*8]
; File C:\Program Files\Microsoft Visual Studio\2022\Professional\VC\Tools\MSVC\14.44.35207\include\xmemory

; 1992 :             _STD _Copy_memmove(_UFirst, _ULast, _STD _Unfancy(_Dest));

  00460	8b 85 00 f2 ff
	ff		 mov	 eax, DWORD PTR _vecMap$[ebp+4]
$LN637@Init:
; File C:\Program Files\Microsoft Visual Studio\2022\Professional\VC\Tools\MSVC\14.44.35207\include\vector

; 915  :         _Guard._New_begin = nullptr;

  00466	51		 push	 ecx
  00467	50		 push	 eax
  00468	56		 push	 esi
  00469	e8 00 00 00 00	 call	 ??$_Copy_memmove@PAVCPoint@@PAV1@@std@@YAPAVCPoint@@PAV1@00@Z ; std::_Copy_memmove<CPoint *,CPoint *>

; 2069 :         if (_Myfirst) { // destroy and deallocate old array

  0046e	8b 8d fc f1 ff
	ff		 mov	 ecx, DWORD PTR _vecMap$[ebp]

; 915  :         _Guard._New_begin = nullptr;

  00474	83 c4 0c	 add	 esp, 12			; 0000000cH

; 2069 :         if (_Myfirst) { // destroy and deallocate old array

  00477	85 c9		 test	 ecx, ecx
  00479	74 3a		 je	 SHORT $LN657@Init

; 2070 :             _STD _Destroy_range(_Myfirst, _Mylast, _Al);
; 2071 :             _ASAN_VECTOR_REMOVE;
; 2072 :             _Al.deallocate(_Myfirst, static_cast<size_type>(_Myend - _Myfirst));

  0047b	8b 85 04 f2 ff
	ff		 mov	 eax, DWORD PTR _vecMap$[ebp+8]
  00481	2b c1		 sub	 eax, ecx
  00483	c1 f8 03	 sar	 eax, 3
; File C:\Program Files\Microsoft Visual Studio\2022\Professional\VC\Tools\MSVC\14.44.35207\include\xmemory

; 985  :         _STD _Deallocate<_New_alignof<_Ty>>(_Ptr, sizeof(_Ty) * _Count);

  00486	8d 14 c5 00 00
	00 00		 lea	 edx, DWORD PTR [eax*8]
  0048d	8b c1		 mov	 eax, ecx

; 284  :         if (_Bytes >= _Big_allocation_threshold) {

  0048f	81 fa 00 10 00
	00		 cmp	 edx, 4096		; 00001000H
  00495	72 14		 jb	 SHORT $LN662@Init

; 205  :     const uintptr_t _Ptr_container   = _Ptr_user[-1];

  00497	8b 48 fc	 mov	 ecx, DWORD PTR [eax-4]
  0049a	83 c2 23	 add	 edx, 35			; 00000023H
  0049d	2b c1		 sub	 eax, ecx

; 206  : 
; 207  :     // If the following asserts, it likely means that we are performing
; 208  :     // an aligned delete on memory coming from an unaligned allocation.
; 209  :     _STL_ASSERT(_Ptr_user[-2] == _Big_allocation_sentinel, "invalid argument");
; 210  : 
; 211  :     // Extra paranoia on aligned allocation/deallocation; ensure _Ptr_container is
; 212  :     // in range [_Min_back_shift, _Non_user_size]
; 213  : #ifdef _DEBUG
; 214  :     constexpr uintptr_t _Min_back_shift = 2 * sizeof(void*);
; 215  : #else // ^^^ defined(_DEBUG) / !defined(_DEBUG) vvv
; 216  :     constexpr uintptr_t _Min_back_shift = sizeof(void*);
; 217  : #endif // ^^^ !defined(_DEBUG) ^^^
; 218  :     const uintptr_t _Back_shift = reinterpret_cast<uintptr_t>(_Ptr) - _Ptr_container;
; 219  :     _STL_VERIFY(_Back_shift >= _Min_back_shift && _Back_shift <= _Non_user_size, "invalid argument");

  0049f	83 c0 fc	 add	 eax, -4			; fffffffcH
  004a2	83 f8 1f	 cmp	 eax, 31			; 0000001fH
  004a5	0f 87 97 05 00
	00		 ja	 $LN287@Init
$LN662@Init:

; 289  :         ::operator delete(_Ptr, _Bytes);

  004ab	52		 push	 edx
  004ac	51		 push	 ecx
  004ad	e8 00 00 00 00	 call	 ??3@YAXPAXI@Z		; operator delete
  004b2	83 c4 08	 add	 esp, 8
$LN657@Init:
; File C:\Program Files\Microsoft Visual Studio\2022\Professional\VC\Tools\MSVC\14.44.35207\include\vector

; 2076 :         _Mylast  = _Newvec + _Newsize;

  004b5	8b 85 ec f1 ff
	ff		 mov	 eax, DWORD PTR __Newsize$1$[ebp]
  004bb	89 bd fc f1 ff
	ff		 mov	 DWORD PTR _vecMap$[ebp], edi
  004c1	8d 34 c7	 lea	 esi, DWORD PTR [edi+eax*8]

; 2077 :         _Myend   = _Newvec + _Newcapacity;

  004c4	8b 85 e8 f1 ff
	ff		 mov	 eax, DWORD PTR tv2960[ebp]
  004ca	03 c7		 add	 eax, edi
  004cc	89 85 04 f2 ff
	ff		 mov	 DWORD PTR _vecMap$[ebp+8], eax
$LN756@Init:
; File C:\IAGOS\server\v18\Source\Source\_Common\Continent.cpp

; 66   : 				rst = ( bTown ? m_MapContTown.insert( make_pair( id, vecMap ) ) : m_MapCont.insert( make_pair( id, vecMap ) ) ) ;

  004d2	89 b5 00 f2 ff
	ff		 mov	 DWORD PTR _vecMap$[ebp+4], esi
$LN675@Init:
  004d8	8b 85 f4 f1 ff
	ff		 mov	 eax, DWORD PTR _id$1$[ebp]
  004de	2b f7		 sub	 esi, edi
  004e0	c1 fe 03	 sar	 esi, 3
  004e3	83 bd f8 f1 ff
	ff 00		 cmp	 DWORD PTR _bTown$1$[ebp], 0
  004ea	0f 84 b4 00 00
	00		 je	 $LN24@Init
; File C:\Program Files\Microsoft Visual Studio\2022\Professional\VC\Tools\MSVC\14.44.35207\include\utility

; 274  :         : first(_STD forward<_Other1>(_Val1)), second(_STD forward<_Other2>(_Val2)) {

  004f0	89 85 c8 f1 ff
	ff		 mov	 DWORD PTR $T7[ebp], eax
; File C:\Program Files\Microsoft Visual Studio\2022\Professional\VC\Tools\MSVC\14.44.35207\include\vector

; 400  :     _CONSTEXPR20 _Vector_val() noexcept : _Myfirst(), _Mylast(), _Myend() {}

  004f6	c7 85 cc f1 ff
	ff 00 00 00 00	 mov	 DWORD PTR $T7[ebp+4], 0
  00500	c7 85 d0 f1 ff
	ff 00 00 00 00	 mov	 DWORD PTR $T7[ebp+8], 0
  0050a	c7 85 d4 f1 ff
	ff 00 00 00 00	 mov	 DWORD PTR $T7[ebp+12], 0

; 2111 :         if (_Count != 0) {

  00514	85 f6		 test	 esi, esi
  00516	74 49		 je	 SHORT $LN516@Init

; 2051 :         if (_Newcapacity > max_size()) {

  00518	81 fe ff ff ff
	1f		 cmp	 esi, 536870911		; 1fffffffH
  0051e	0f 87 2d 05 00
	00		 ja	 $LN731@Init

; 2052 :             _Xlength();
; 2053 :         }
; 2054 : 
; 2055 :         _Buy_raw(_Newcapacity);

  00524	56		 push	 esi
  00525	8d 8d cc f1 ff
	ff		 lea	 ecx, DWORD PTR $T7[ebp+4]
  0052b	e8 00 00 00 00	 call	 ?_Buy_raw@?$vector@VCPoint@@V?$allocator@VCPoint@@@std@@@std@@AAEXI@Z ; std::vector<CPoint,std::allocator<CPoint> >::_Buy_raw
; File C:\Program Files\Microsoft Visual Studio\2022\Professional\VC\Tools\MSVC\14.44.35207\include\xmemory

; 1889 :                 _STD _Copy_memmove(_STD _To_address(_UFirst), _STD _To_address(_ULast), _STD _Unfancy(_Dest));

  00530	8b b5 cc f1 ff
	ff		 mov	 esi, DWORD PTR $T7[ebp+4]
  00536	8b 9d 00 f2 ff
	ff		 mov	 ebx, DWORD PTR _vecMap$[ebp+4]
  0053c	8b bd fc f1 ff
	ff		 mov	 edi, DWORD PTR _vecMap$[ebp]
  00542	56		 push	 esi
  00543	53		 push	 ebx
  00544	57		 push	 edi
  00545	e8 00 00 00 00	 call	 ??$_Copy_memmove@PAVCPoint@@PAV1@@std@@YAPAVCPoint@@PAV1@00@Z ; std::_Copy_memmove<CPoint *,CPoint *>

; 1890 :                 _Dest += _ULast - _UFirst;

  0054a	2b df		 sub	 ebx, edi
  0054c	83 c4 0c	 add	 esp, 12			; 0000000cH
  0054f	c1 fb 03	 sar	 ebx, 3
  00552	8d 04 de	 lea	 eax, DWORD PTR [esi+ebx*8]
  00555	8b 9d e4 f1 ff
	ff		 mov	 ebx, DWORD PTR $T9[ebp]
; File C:\Program Files\Microsoft Visual Studio\2022\Professional\VC\Tools\MSVC\14.44.35207\include\vector

; 2120 :                 _My_data._Mylast = _STD _Uninitialized_copy(_STD forward<_Valty>(_Val)..., _My_data._Myfirst, _Al);

  0055b	89 85 d0 f1 ff
	ff		 mov	 DWORD PTR $T7[ebp+8], eax
$LN516@Init:
; File C:\Program Files\Microsoft Visual Studio\2022\Professional\VC\Tools\MSVC\14.44.35207\include\utility

; 581  :     return _Mypair(_STD forward<_Ty1>(_Val1), _STD forward<_Ty2>(_Val2));

  00561	83 cb 04	 or	 ebx, 4
; File C:\IAGOS\server\v18\Source\Source\_Common\Continent.cpp

; 66   : 				rst = ( bTown ? m_MapContTown.insert( make_pair( id, vecMap ) ) : m_MapCont.insert( make_pair( id, vecMap ) ) ) ;

  00564	8b 8d c4 f1 ff
	ff		 mov	 ecx, DWORD PTR _this$GSCopy$1$[ebp]
  0056a	8d 85 c8 f1 ff
	ff		 lea	 eax, DWORD PTR $T7[ebp]
  00570	50		 push	 eax
  00571	83 cb 01	 or	 ebx, 1
  00574	c6 45 fc 11	 mov	 BYTE PTR __$EHRec$[ebp+8], 17 ; 00000011H
  00578	8d 85 a0 f1 ff
	ff		 lea	 eax, DWORD PTR $T5[ebp]
  0057e	89 9d e4 f1 ff
	ff		 mov	 DWORD PTR $T9[ebp], ebx
  00584	50		 push	 eax
  00585	8d 49 0c	 lea	 ecx, DWORD PTR [ecx+12]
  00588	89 9d d8 f1 ff
	ff		 mov	 DWORD PTR $T8[ebp], ebx
  0058e	e8 00 00 00 00	 call	 ??$insert@U?$pair@HV?$vector@VCPoint@@V?$allocator@VCPoint@@@std@@@std@@@std@@$0A@@?$map@EV?$vector@VCPoint@@V?$allocator@VCPoint@@@std@@@std@@U?$less@E@2@V?$allocator@U?$pair@$$CBEV?$vector@VCPoint@@V?$allocator@VCPoint@@@std@@@std@@@std@@@2@@std@@QAE?AU?$pair@V?$_Tree_iterator@V?$_Tree_val@U?$_Tree_simple_types@U?$pair@$$CBEV?$vector@VCPoint@@V?$allocator@VCPoint@@@std@@@std@@@std@@@std@@@std@@@std@@_N@1@$$QAU?$pair@HV?$vector@VCPoint@@V?$allocator@VCPoint@@@std@@@std@@@1@@Z ; std::map<unsigned char,std::vector<CPoint,std::allocator<CPoint> >,std::less<unsigned char>,std::allocator<std::pair<unsigned char const ,std::vector<CPoint,std::allocator<CPoint> > > > >::insert<std::pair<int,std::vector<CPoint,std::allocator<CPoint> > >,0>
  00593	8b b5 cc f1 ff
	ff		 mov	 esi, DWORD PTR $T7[ebp+4]
  00599	89 b5 f0 f1 ff
	ff		 mov	 DWORD PTR __Ptr$1$[ebp], esi
  0059f	e9 ac 00 00 00	 jmp	 $LN25@Init
$LN24@Init:
; File C:\Program Files\Microsoft Visual Studio\2022\Professional\VC\Tools\MSVC\14.44.35207\include\utility

; 274  :         : first(_STD forward<_Other1>(_Val1)), second(_STD forward<_Other2>(_Val2)) {

  005a4	89 85 ac f1 ff
	ff		 mov	 DWORD PTR $T6[ebp], eax
; File C:\Program Files\Microsoft Visual Studio\2022\Professional\VC\Tools\MSVC\14.44.35207\include\vector

; 400  :     _CONSTEXPR20 _Vector_val() noexcept : _Myfirst(), _Mylast(), _Myend() {}

  005aa	c7 85 b0 f1 ff
	ff 00 00 00 00	 mov	 DWORD PTR $T6[ebp+4], 0
  005b4	c7 85 b4 f1 ff
	ff 00 00 00 00	 mov	 DWORD PTR $T6[ebp+8], 0
  005be	c7 85 b8 f1 ff
	ff 00 00 00 00	 mov	 DWORD PTR $T6[ebp+12], 0

; 2111 :         if (_Count != 0) {

  005c8	85 f6		 test	 esi, esi
  005ca	74 49		 je	 SHORT $LN573@Init

; 2051 :         if (_Newcapacity > max_size()) {

  005cc	81 fe ff ff ff
	1f		 cmp	 esi, 536870911		; 1fffffffH
  005d2	0f 87 79 04 00
	00		 ja	 $LN731@Init

; 2052 :             _Xlength();
; 2053 :         }
; 2054 : 
; 2055 :         _Buy_raw(_Newcapacity);

  005d8	56		 push	 esi
  005d9	8d 8d b0 f1 ff
	ff		 lea	 ecx, DWORD PTR $T6[ebp+4]
  005df	e8 00 00 00 00	 call	 ?_Buy_raw@?$vector@VCPoint@@V?$allocator@VCPoint@@@std@@@std@@AAEXI@Z ; std::vector<CPoint,std::allocator<CPoint> >::_Buy_raw
; File C:\Program Files\Microsoft Visual Studio\2022\Professional\VC\Tools\MSVC\14.44.35207\include\xmemory

; 1889 :                 _STD _Copy_memmove(_STD _To_address(_UFirst), _STD _To_address(_ULast), _STD _Unfancy(_Dest));

  005e4	8b b5 b0 f1 ff
	ff		 mov	 esi, DWORD PTR $T6[ebp+4]
  005ea	8b 9d 00 f2 ff
	ff		 mov	 ebx, DWORD PTR _vecMap$[ebp+4]
  005f0	8b bd fc f1 ff
	ff		 mov	 edi, DWORD PTR _vecMap$[ebp]
  005f6	56		 push	 esi
  005f7	53		 push	 ebx
  005f8	57		 push	 edi
  005f9	e8 00 00 00 00	 call	 ??$_Copy_memmove@PAVCPoint@@PAV1@@std@@YAPAVCPoint@@PAV1@00@Z ; std::_Copy_memmove<CPoint *,CPoint *>

; 1890 :                 _Dest += _ULast - _UFirst;

  005fe	2b df		 sub	 ebx, edi
  00600	83 c4 0c	 add	 esp, 12			; 0000000cH
  00603	c1 fb 03	 sar	 ebx, 3
  00606	8d 04 de	 lea	 eax, DWORD PTR [esi+ebx*8]
  00609	8b 9d e4 f1 ff
	ff		 mov	 ebx, DWORD PTR $T9[ebp]
; File C:\Program Files\Microsoft Visual Studio\2022\Professional\VC\Tools\MSVC\14.44.35207\include\vector

; 2120 :                 _My_data._Mylast = _STD _Uninitialized_copy(_STD forward<_Valty>(_Val)..., _My_data._Myfirst, _Al);

  0060f	89 85 b4 f1 ff
	ff		 mov	 DWORD PTR $T6[ebp+8], eax
$LN573@Init:
; File C:\Program Files\Microsoft Visual Studio\2022\Professional\VC\Tools\MSVC\14.44.35207\include\utility

; 581  :     return _Mypair(_STD forward<_Ty1>(_Val1), _STD forward<_Ty2>(_Val2));

  00615	83 cb 08	 or	 ebx, 8
; File C:\IAGOS\server\v18\Source\Source\_Common\Continent.cpp

; 66   : 				rst = ( bTown ? m_MapContTown.insert( make_pair( id, vecMap ) ) : m_MapCont.insert( make_pair( id, vecMap ) ) ) ;

  00618	8b 8d c4 f1 ff
	ff		 mov	 ecx, DWORD PTR _this$GSCopy$1$[ebp]
  0061e	8d 85 ac f1 ff
	ff		 lea	 eax, DWORD PTR $T6[ebp]
  00624	50		 push	 eax
  00625	83 cb 02	 or	 ebx, 2
  00628	c7 45 fc 12 00
	00 00		 mov	 DWORD PTR __$EHRec$[ebp+8], 18 ; 00000012H
  0062f	8d 85 98 f1 ff
	ff		 lea	 eax, DWORD PTR $T4[ebp]
  00635	89 9d e4 f1 ff
	ff		 mov	 DWORD PTR $T9[ebp], ebx
  0063b	50		 push	 eax
  0063c	8d 49 04	 lea	 ecx, DWORD PTR [ecx+4]
  0063f	89 9d d8 f1 ff
	ff		 mov	 DWORD PTR $T8[ebp], ebx
  00645	e8 00 00 00 00	 call	 ??$insert@U?$pair@HV?$vector@VCPoint@@V?$allocator@VCPoint@@@std@@@std@@@std@@$0A@@?$map@EV?$vector@VCPoint@@V?$allocator@VCPoint@@@std@@@std@@U?$less@E@2@V?$allocator@U?$pair@$$CBEV?$vector@VCPoint@@V?$allocator@VCPoint@@@std@@@std@@@std@@@2@@std@@QAE?AU?$pair@V?$_Tree_iterator@V?$_Tree_val@U?$_Tree_simple_types@U?$pair@$$CBEV?$vector@VCPoint@@V?$allocator@VCPoint@@@std@@@std@@@std@@@std@@@std@@@std@@_N@1@$$QAU?$pair@HV?$vector@VCPoint@@V?$allocator@VCPoint@@@std@@@std@@@1@@Z ; std::map<unsigned char,std::vector<CPoint,std::allocator<CPoint> >,std::less<unsigned char>,std::allocator<std::pair<unsigned char const ,std::vector<CPoint,std::allocator<CPoint> > > > >::insert<std::pair<int,std::vector<CPoint,std::allocator<CPoint> > >,0>
  0064a	8b b5 f0 f1 ff
	ff		 mov	 esi, DWORD PTR __Ptr$1$[ebp]
$LN25@Init:
  00650	f6 c3 02	 test	 bl, 2
  00653	74 1a		 je	 SHORT $LN476@Init
  00655	83 e3 fd	 and	 ebx, -3			; fffffffdH
; File C:\Program Files\Microsoft Visual Studio\2022\Professional\VC\Tools\MSVC\14.44.35207\include\vector

; 830  :         _Tidy();

  00658	8d 8d b0 f1 ff
	ff		 lea	 ecx, DWORD PTR $T6[ebp+4]
; File C:\IAGOS\server\v18\Source\Source\_Common\Continent.cpp

; 66   : 				rst = ( bTown ? m_MapContTown.insert( make_pair( id, vecMap ) ) : m_MapCont.insert( make_pair( id, vecMap ) ) ) ;

  0065e	89 9d e4 f1 ff
	ff		 mov	 DWORD PTR $T9[ebp], ebx
  00664	89 9d d8 f1 ff
	ff		 mov	 DWORD PTR $T8[ebp], ebx
; File C:\Program Files\Microsoft Visual Studio\2022\Professional\VC\Tools\MSVC\14.44.35207\include\vector

; 830  :         _Tidy();

  0066a	e8 00 00 00 00	 call	 ?_Tidy@?$vector@VCPoint@@V?$allocator@VCPoint@@@std@@@std@@AAEXXZ ; std::vector<CPoint,std::allocator<CPoint> >::_Tidy
$LN476@Init:
; File C:\IAGOS\server\v18\Source\Source\_Common\Continent.cpp

; 66   : 				rst = ( bTown ? m_MapContTown.insert( make_pair( id, vecMap ) ) : m_MapCont.insert( make_pair( id, vecMap ) ) ) ;

  0066f	c7 45 fc 10 00
	00 00		 mov	 DWORD PTR __$EHRec$[ebp+8], 16 ; 00000010H
  00676	f6 c3 01	 test	 bl, 1
  00679	74 67		 je	 SHORT $LN695@Init
  0067b	83 e3 fe	 and	 ebx, -2			; fffffffeH
  0067e	89 9d e4 f1 ff
	ff		 mov	 DWORD PTR $T9[ebp], ebx
  00684	89 9d d8 f1 ff
	ff		 mov	 DWORD PTR $T8[ebp], ebx
; File C:\Program Files\Microsoft Visual Studio\2022\Professional\VC\Tools\MSVC\14.44.35207\include\vector

; 2090 :         if (_Myfirst) { // destroy and deallocate old array

  0068a	85 f6		 test	 esi, esi
  0068c	74 54		 je	 SHORT $LN695@Init

; 2093 :             _Al.deallocate(_Myfirst, static_cast<size_type>(_Myend - _Myfirst));

  0068e	8b 85 d4 f1 ff
	ff		 mov	 eax, DWORD PTR $T7[ebp+12]
  00694	2b c6		 sub	 eax, esi
  00696	c1 f8 03	 sar	 eax, 3
; File C:\Program Files\Microsoft Visual Studio\2022\Professional\VC\Tools\MSVC\14.44.35207\include\xmemory

; 985  :         _STD _Deallocate<_New_alignof<_Ty>>(_Ptr, sizeof(_Ty) * _Count);

  00699	8d 0c c5 00 00
	00 00		 lea	 ecx, DWORD PTR [eax*8]
  006a0	8b c6		 mov	 eax, esi

; 284  :         if (_Bytes >= _Big_allocation_threshold) {

  006a2	81 f9 00 10 00
	00		 cmp	 ecx, 4096		; 00001000H
  006a8	72 14		 jb	 SHORT $LN708@Init

; 205  :     const uintptr_t _Ptr_container   = _Ptr_user[-1];

  006aa	8b 70 fc	 mov	 esi, DWORD PTR [eax-4]
  006ad	83 c1 23	 add	 ecx, 35			; 00000023H
  006b0	2b c6		 sub	 eax, esi

; 206  : 
; 207  :     // If the following asserts, it likely means that we are performing
; 208  :     // an aligned delete on memory coming from an unaligned allocation.
; 209  :     _STL_ASSERT(_Ptr_user[-2] == _Big_allocation_sentinel, "invalid argument");
; 210  : 
; 211  :     // Extra paranoia on aligned allocation/deallocation; ensure _Ptr_container is
; 212  :     // in range [_Min_back_shift, _Non_user_size]
; 213  : #ifdef _DEBUG
; 214  :     constexpr uintptr_t _Min_back_shift = 2 * sizeof(void*);
; 215  : #else // ^^^ defined(_DEBUG) / !defined(_DEBUG) vvv
; 216  :     constexpr uintptr_t _Min_back_shift = sizeof(void*);
; 217  : #endif // ^^^ !defined(_DEBUG) ^^^
; 218  :     const uintptr_t _Back_shift = reinterpret_cast<uintptr_t>(_Ptr) - _Ptr_container;
; 219  :     _STL_VERIFY(_Back_shift >= _Min_back_shift && _Back_shift <= _Non_user_size, "invalid argument");

  006b2	83 c0 fc	 add	 eax, -4			; fffffffcH
  006b5	83 f8 1f	 cmp	 eax, 31			; 0000001fH
  006b8	0f 87 84 03 00
	00		 ja	 $LN287@Init
$LN708@Init:

; 289  :         ::operator delete(_Ptr, _Bytes);

  006be	51		 push	 ecx
  006bf	56		 push	 esi
  006c0	e8 00 00 00 00	 call	 ??3@YAXPAXI@Z		; operator delete
  006c5	83 c4 08	 add	 esp, 8
; File C:\Program Files\Microsoft Visual Studio\2022\Professional\VC\Tools\MSVC\14.44.35207\include\vector

; 2095 :             _Myfirst = nullptr;

  006c8	33 c0		 xor	 eax, eax
  006ca	89 85 f0 f1 ff
	ff		 mov	 DWORD PTR __Ptr$1$[ebp], eax
  006d0	89 85 cc f1 ff
	ff		 mov	 DWORD PTR $T7[ebp+4], eax

; 2096 :             _Mylast  = nullptr;

  006d6	89 85 d0 f1 ff
	ff		 mov	 DWORD PTR $T7[ebp+8], eax

; 2097 :             _Myend   = nullptr;

  006dc	89 85 d4 f1 ff
	ff		 mov	 DWORD PTR $T7[ebp+12], eax
$LN695@Init:
; File C:\IAGOS\server\v18\Source\Source\_Common\Continent.cpp

; 70   : 				bTown = FALSE;		//reset town

  006e2	c7 85 f8 f1 ff
	ff 00 00 00 00	 mov	 DWORD PTR _bTown$1$[ebp], 0

; 71   : 			}
; 72   : 		}

  006ec	e9 83 02 00 00	 jmp	 $LN6@Init
$LN64@Init:
; File C:\Program Files\Microsoft Visual Studio\2022\Professional\VC\Tools\MSVC\14.44.35207\atlmfc\include\cstringt.h

; 184  : 		return _mbscmp( reinterpret_cast< const unsigned char* >( pszA ), reinterpret_cast< const unsigned char* >( pszB ) );

  006f1	68 00 00 00 00	 push	 OFFSET ??_C@_04PDHHGLID@C_id@
  006f6	ff b5 28 f2 ff
	ff		 push	 DWORD PTR _script$[ebp+32]
  006fc	e8 00 00 00 00	 call	 __mbscmp
  00701	83 c4 08	 add	 esp, 8

; 2490 : 		return(str1.Compare(psz2) == 0);

  00704	85 c0		 test	 eax, eax
; File C:\IAGOS\server\v18\Source\Source\_Common\Continent.cpp

; 74   : 		if( script.Token == _T( "C_id" ) )

  00706	75 17		 jne	 SHORT $LN116@Init

; 75   : 		{
; 76   : 			id = script.GetNumber( );

  00708	50		 push	 eax
  00709	8d 8d 08 f2 ff
	ff		 lea	 ecx, DWORD PTR _script$[ebp]
  0070f	e8 00 00 00 00	 call	 ?GetNumber@CScanner@@QAEHH@Z ; CScanner::GetNumber
  00714	89 85 f4 f1 ff
	ff		 mov	 DWORD PTR _id$1$[ebp], eax

; 77   : 		}

  0071a	e9 55 02 00 00	 jmp	 $LN6@Init
$LN116@Init:
; File C:\Program Files\Microsoft Visual Studio\2022\Professional\VC\Tools\MSVC\14.44.35207\atlmfc\include\cstringt.h

; 184  : 		return _mbscmp( reinterpret_cast< const unsigned char* >( pszA ), reinterpret_cast< const unsigned char* >( pszB ) );

  0071f	68 00 00 00 00	 push	 OFFSET ??_C@_06HPIMPLPK@VERTEX@
  00724	ff b5 28 f2 ff
	ff		 push	 DWORD PTR _script$[ebp+32]
  0072a	e8 00 00 00 00	 call	 __mbscmp
  0072f	83 c4 08	 add	 esp, 8

; 2490 : 		return(str1.Compare(psz2) == 0);

  00732	85 c0		 test	 eax, eax
; File C:\IAGOS\server\v18\Source\Source\_Common\Continent.cpp

; 79   : 		if( script.Token == _T( "VERTEX" ) )

  00734	0f 85 c1 01 00
	00		 jne	 $LN444@Init

; 80   : 		{
; 81   : 			float x = script.GetFloat();

  0073a	50		 push	 eax
  0073b	8d 8d 08 f2 ff
	ff		 lea	 ecx, DWORD PTR _script$[ebp]
  00741	e8 00 00 00 00	 call	 ?GetFloat@CScanner@@QAEMH@Z ; CScanner::GetFloat
  00746	d9 9d e8 f1 ff
	ff		 fstp	 DWORD PTR _x$11[ebp]

; 82   : 			float y = script.GetFloat();

  0074c	6a 00		 push	 0
  0074e	8d 8d 08 f2 ff
	ff		 lea	 ecx, DWORD PTR _script$[ebp]
  00754	e8 00 00 00 00	 call	 ?GetFloat@CScanner@@QAEMH@Z ; CScanner::GetFloat
  00759	dd d8		 fstp	 ST(0)

; 83   : 			float z = script.GetFloat();

  0075b	8d 8d 08 f2 ff
	ff		 lea	 ecx, DWORD PTR _script$[ebp]
  00761	6a 00		 push	 0
  00763	e8 00 00 00 00	 call	 ?GetFloat@CScanner@@QAEMH@Z ; CScanner::GetFloat
; File C:\Program Files\Microsoft Visual Studio\2022\Professional\VC\Tools\MSVC\14.44.35207\include\vector

; 844  :         if (_Mylast != _My_data._Myend) {

  00768	8b bd 00 f2 ff
	ff		 mov	 edi, DWORD PTR _vecMap$[ebp+4]
  0076e	8b 8d 04 f2 ff
	ff		 mov	 ecx, DWORD PTR _vecMap$[ebp+8]
; File C:\IAGOS\server\v18\Source\Source\_Common\Continent.cpp

; 84   : 			vecMap.push_back( CPoint( (int)( x ), (int)( z ) ) );

  00774	f3 0f 2c 85 e8
	f1 ff ff	 cvttss2si eax, DWORD PTR _x$11[ebp]
  0077c	d9 9d ec f1 ff
	ff		 fstp	 DWORD PTR _z$13[ebp]
  00782	f3 0f 2c 95 ec
	f1 ff ff	 cvttss2si edx, DWORD PTR _z$13[ebp]
; File C:\Program Files\Microsoft Visual Studio\2022\Professional\VC\Tools\MSVC\14.44.35207\include\vector

; 844  :         if (_Mylast != _My_data._Myend) {

  0078a	3b f9		 cmp	 edi, ecx
  0078c	74 11		 je	 SHORT $LN335@Init

; 860  :             _STD _Construct_in_place(*_Mylast, _STD forward<_Valty>(_Val)...);

  0078e	89 07		 mov	 DWORD PTR [edi], eax
  00790	89 57 04	 mov	 DWORD PTR [edi+4], edx

; 861  :         } else {
; 862  :             _ASAN_VECTOR_EXTEND_GUARD(static_cast<size_type>(_Mylast - _My_data._Myfirst) + 1);
; 863  :             _Alty_traits::construct(_Getal(), _Unfancy(_Mylast), _STD forward<_Valty>(_Val)...);
; 864  :             _ASAN_VECTOR_RELEASE_GUARD;
; 865  :         }
; 866  : 
; 867  :         _Orphan_range(_Mylast, _Mylast);
; 868  :         _Ty& _Result = *_Mylast;
; 869  :         ++_Mylast;

  00793	83 85 00 f2 ff
	ff 08		 add	 DWORD PTR _vecMap$[ebp+4], 8

; 845  :             return _Emplace_back_with_unused_capacity(_STD forward<_Valty>(_Val)...);

  0079a	e9 d5 01 00 00	 jmp	 $LN6@Init
$LN335@Init:

; 875  :     _CONSTEXPR20 pointer _Emplace_reallocate(const pointer _Whereptr, _Valty&&... _Val) {

  0079f	8b 95 fc f1 ff
	ff		 mov	 edx, DWORD PTR _vecMap$[ebp]
  007a5	8b c7		 mov	 eax, edi
  007a7	2b c2		 sub	 eax, edx

; 876  :         // reallocate and insert by perfectly forwarding _Val at _Whereptr
; 877  :         _Alty& _Al        = _Getal();
; 878  :         auto& _My_data    = _Mypair._Myval2;
; 879  :         pointer& _Myfirst = _My_data._Myfirst;
; 880  :         pointer& _Mylast  = _My_data._Mylast;
; 881  : 
; 882  :         _STL_INTERNAL_CHECK(_Mylast == _My_data._Myend); // check that we have no unused capacity
; 883  : 
; 884  :         const auto _Whereoff = static_cast<size_type>(_Whereptr - _Myfirst);

  007a9	c1 f8 03	 sar	 eax, 3
  007ac	89 85 dc f1 ff
	ff		 mov	 DWORD PTR __Oldsize$1$[ebp], eax

; 885  :         const auto _Oldsize  = static_cast<size_type>(_Mylast - _Myfirst);
; 886  : 
; 887  :         if (_Oldsize == max_size()) {

  007b2	3d ff ff ff 1f	 cmp	 eax, 536870911		; 1fffffffH
  007b7	0f 84 94 02 00
	00		 je	 $LN731@Init

; 888  :             _Xlength();
; 889  :         }
; 890  : 
; 891  :         const size_type _Newsize = _Oldsize + 1;

  007bd	2b ca		 sub	 ecx, edx
  007bf	8d 70 01	 lea	 esi, DWORD PTR [eax+1]

; 1924 :         return static_cast<size_type>(_My_data._Myend - _My_data._Myfirst);

  007c2	c1 f9 03	 sar	 ecx, 3

; 2011 :         if (_Oldcapacity > _Max - _Oldcapacity / 2) {

  007c5	b8 ff ff ff 1f	 mov	 eax, 536870911		; 1fffffffH
  007ca	8b d1		 mov	 edx, ecx

; 891  :         const size_type _Newsize = _Oldsize + 1;

  007cc	89 b5 a8 f1 ff
	ff		 mov	 DWORD PTR __Newsize$1$[ebp], esi

; 2011 :         if (_Oldcapacity > _Max - _Oldcapacity / 2) {

  007d2	d1 ea		 shr	 edx, 1
  007d4	2b c2		 sub	 eax, edx
  007d6	3b c8		 cmp	 ecx, eax
  007d8	76 17		 jbe	 SHORT $LN346@Init

; 2012 :             return _Max; // geometric growth would overflow

  007da	b8 f8 ff ff ff	 mov	 eax, -8			; fffffff8H
  007df	c7 85 e0 f1 ff
	ff f8 ff ff ff	 mov	 DWORD PTR tv2955[ebp], -8 ; fffffff8H
; File C:\Program Files\Microsoft Visual Studio\2022\Professional\VC\Tools\MSVC\14.44.35207\include\xmemory

; 253  :             return _Allocate_manually_vector_aligned<_Traits>(_Bytes);

  007e9	50		 push	 eax
  007ea	e8 00 00 00 00	 call	 ??$_Allocate_manually_vector_aligned@U_Default_allocate_traits@std@@@std@@YAPAXI@Z ; std::_Allocate_manually_vector_aligned<std::_Default_allocate_traits>
  007ef	eb 40		 jmp	 SHORT $LN758@Init
$LN346@Init:
; File C:\Program Files\Microsoft Visual Studio\2022\Professional\VC\Tools\MSVC\14.44.35207\include\vector

; 2015 :         const size_type _Geometric = _Oldcapacity + _Oldcapacity / 2;

  007f1	8d 04 11	 lea	 eax, DWORD PTR [ecx+edx]
; File C:\Program Files\Microsoft Visual Studio\2022\Professional\VC\Tools\MSVC\14.44.35207\include\xmemory

; 117  :         if (_Count > _Max_possible) {

  007f4	8b ce		 mov	 ecx, esi
  007f6	3b c6		 cmp	 eax, esi
  007f8	0f 43 c8	 cmovae	 ecx, eax
  007fb	81 f9 ff ff ff
	1f		 cmp	 ecx, 536870911		; 1fffffffH
  00801	0f 87 4f 02 00
	00		 ja	 $LN737@Init

; 119  :         }
; 120  :     }
; 121  : 
; 122  :     return _Count * _Ty_size;

  00807	8d 04 cd 00 00
	00 00		 lea	 eax, DWORD PTR [ecx*8]
  0080e	89 85 e0 f1 ff
	ff		 mov	 DWORD PTR tv2955[ebp], eax

; 227  :     if (_Bytes == 0) {

  00814	85 c0		 test	 eax, eax
  00816	75 04		 jne	 SHORT $LN361@Init

; 228  :         return nullptr;

  00818	33 f6		 xor	 esi, esi
  0081a	eb 1a		 jmp	 SHORT $LN360@Init
$LN361@Init:

; 229  :     }
; 230  : 
; 231  : #if _HAS_CXX20 // TRANSITION, GH-1532
; 232  :     if (_STD is_constant_evaluated()) {
; 233  :         return _Traits::_Allocate(_Bytes);
; 234  :     }
; 235  : #endif // _HAS_CXX20
; 236  : 
; 237  : #ifdef __cpp_aligned_new
; 238  :     if constexpr (_Align > __STDCPP_DEFAULT_NEW_ALIGNMENT__) {
; 239  :         size_t _Passed_align = _Align;
; 240  : #if defined(_M_IX86) || defined(_M_X64)
; 241  :         if (_Bytes >= _Big_allocation_threshold) {
; 242  :             // boost the alignment of big allocations to help autovectorization
; 243  :             _Passed_align = (_STD max)(_Align, _Big_allocation_alignment);
; 244  :         }
; 245  : #endif // defined(_M_IX86) || defined(_M_X64)
; 246  :         return _Traits::_Allocate_aligned(_Bytes, _Passed_align);
; 247  :     } else
; 248  : #endif // defined(__cpp_aligned_new)
; 249  :     {
; 250  : #if defined(_M_IX86) || defined(_M_X64)
; 251  :         if (_Bytes >= _Big_allocation_threshold) {

  0081c	3d 00 10 00 00	 cmp	 eax, 4096		; 00001000H
  00821	72 08		 jb	 SHORT $LN362@Init

; 253  :             return _Allocate_manually_vector_aligned<_Traits>(_Bytes);

  00823	50		 push	 eax
  00824	e8 00 00 00 00	 call	 ??$_Allocate_manually_vector_aligned@U_Default_allocate_traits@std@@@std@@YAPAXI@Z ; std::_Allocate_manually_vector_aligned<std::_Default_allocate_traits>
  00829	eb 06		 jmp	 SHORT $LN758@Init
$LN362@Init:

; 136  :         return ::operator new(_Bytes);

  0082b	50		 push	 eax
  0082c	e8 00 00 00 00	 call	 ??2@YAPAXI@Z		; operator new
$LN758@Init:
; File C:\Program Files\Microsoft Visual Studio\2022\Professional\VC\Tools\MSVC\14.44.35207\include\vector

; 900  :         _Alty_traits::construct(_Al, _STD _Unfancy(_Newvec + _Whereoff), _STD forward<_Valty>(_Val)...);

  00831	8b f0		 mov	 esi, eax
  00833	83 c4 04	 add	 esp, 4
$LN360@Init:
  00836	f3 0f 2c 8d e8
	f1 ff ff	 cvttss2si ecx, DWORD PTR _x$11[ebp]
  0083e	8b 85 dc f1 ff
	ff		 mov	 eax, DWORD PTR __Oldsize$1$[ebp]
  00844	89 0c c6	 mov	 DWORD PTR [esi+eax*8], ecx
  00847	f3 0f 2c 8d ec
	f1 ff ff	 cvttss2si ecx, DWORD PTR _z$13[ebp]
  0084f	89 4c c6 04	 mov	 DWORD PTR [esi+eax*8+4], ecx

; 901  :         _Constructed_first = _Newvec + _Whereoff;
; 902  : 
; 903  :         if (_Whereptr == _Mylast) { // at back, provide strong guarantee

  00853	8b 85 00 f2 ff
	ff		 mov	 eax, DWORD PTR _vecMap$[ebp+4]
  00859	3b f8		 cmp	 edi, eax
  0085b	75 0a		 jne	 SHORT $LN341@Init
; File C:\Program Files\Microsoft Visual Studio\2022\Professional\VC\Tools\MSVC\14.44.35207\include\xmemory

; 1992 :             _STD _Copy_memmove(_UFirst, _ULast, _STD _Unfancy(_Dest));

  0085d	8b bd fc f1 ff
	ff		 mov	 edi, DWORD PTR _vecMap$[ebp]
  00863	8b ce		 mov	 ecx, esi
; File C:\Program Files\Microsoft Visual Studio\2022\Professional\VC\Tools\MSVC\14.44.35207\include\vector

; 909  :         } else { // provide basic guarantee

  00865	eb 20		 jmp	 SHORT $LN390@Init
$LN341@Init:
; File C:\Program Files\Microsoft Visual Studio\2022\Professional\VC\Tools\MSVC\14.44.35207\include\xmemory

; 1992 :             _STD _Copy_memmove(_UFirst, _ULast, _STD _Unfancy(_Dest));

  00867	56		 push	 esi
  00868	57		 push	 edi
  00869	ff b5 fc f1 ff
	ff		 push	 DWORD PTR _vecMap$[ebp]
  0086f	e8 00 00 00 00	 call	 ??$_Copy_memmove@PAVCPoint@@PAV1@@std@@YAPAVCPoint@@PAV1@00@Z ; std::_Copy_memmove<CPoint *,CPoint *>
; File C:\Program Files\Microsoft Visual Studio\2022\Professional\VC\Tools\MSVC\14.44.35207\include\vector

; 912  :             _STD _Uninitialized_move(_Whereptr, _Mylast, _Newvec + _Whereoff + 1, _Al);

  00874	8b 85 dc f1 ff
	ff		 mov	 eax, DWORD PTR __Oldsize$1$[ebp]
; File C:\Program Files\Microsoft Visual Studio\2022\Professional\VC\Tools\MSVC\14.44.35207\include\xmemory

; 1992 :             _STD _Copy_memmove(_UFirst, _ULast, _STD _Unfancy(_Dest));

  0087a	83 c4 0c	 add	 esp, 12			; 0000000cH
; File C:\Program Files\Microsoft Visual Studio\2022\Professional\VC\Tools\MSVC\14.44.35207\include\vector

; 912  :             _STD _Uninitialized_move(_Whereptr, _Mylast, _Newvec + _Whereoff + 1, _Al);

  0087d	40		 inc	 eax
  0087e	8d 0c c6	 lea	 ecx, DWORD PTR [esi+eax*8]
; File C:\Program Files\Microsoft Visual Studio\2022\Professional\VC\Tools\MSVC\14.44.35207\include\xmemory

; 1992 :             _STD _Copy_memmove(_UFirst, _ULast, _STD _Unfancy(_Dest));

  00881	8b 85 00 f2 ff
	ff		 mov	 eax, DWORD PTR _vecMap$[ebp+4]
$LN390@Init:
; File C:\Program Files\Microsoft Visual Studio\2022\Professional\VC\Tools\MSVC\14.44.35207\include\vector

; 915  :         _Guard._New_begin = nullptr;

  00887	51		 push	 ecx
  00888	50		 push	 eax
  00889	57		 push	 edi
  0088a	e8 00 00 00 00	 call	 ??$_Copy_memmove@PAVCPoint@@PAV1@@std@@YAPAVCPoint@@PAV1@00@Z ; std::_Copy_memmove<CPoint *,CPoint *>

; 2069 :         if (_Myfirst) { // destroy and deallocate old array

  0088f	8b 8d fc f1 ff
	ff		 mov	 ecx, DWORD PTR _vecMap$[ebp]

; 915  :         _Guard._New_begin = nullptr;

  00895	83 c4 0c	 add	 esp, 12			; 0000000cH

; 2069 :         if (_Myfirst) { // destroy and deallocate old array

  00898	85 c9		 test	 ecx, ecx
  0089a	74 3a		 je	 SHORT $LN410@Init

; 2070 :             _STD _Destroy_range(_Myfirst, _Mylast, _Al);
; 2071 :             _ASAN_VECTOR_REMOVE;
; 2072 :             _Al.deallocate(_Myfirst, static_cast<size_type>(_Myend - _Myfirst));

  0089c	8b 85 04 f2 ff
	ff		 mov	 eax, DWORD PTR _vecMap$[ebp+8]
  008a2	2b c1		 sub	 eax, ecx
  008a4	c1 f8 03	 sar	 eax, 3
; File C:\Program Files\Microsoft Visual Studio\2022\Professional\VC\Tools\MSVC\14.44.35207\include\xmemory

; 985  :         _STD _Deallocate<_New_alignof<_Ty>>(_Ptr, sizeof(_Ty) * _Count);

  008a7	8d 14 c5 00 00
	00 00		 lea	 edx, DWORD PTR [eax*8]
  008ae	8b c1		 mov	 eax, ecx

; 284  :         if (_Bytes >= _Big_allocation_threshold) {

  008b0	81 fa 00 10 00
	00		 cmp	 edx, 4096		; 00001000H
  008b6	72 14		 jb	 SHORT $LN415@Init

; 205  :     const uintptr_t _Ptr_container   = _Ptr_user[-1];

  008b8	8b 48 fc	 mov	 ecx, DWORD PTR [eax-4]
  008bb	83 c2 23	 add	 edx, 35			; 00000023H
  008be	2b c1		 sub	 eax, ecx

; 206  : 
; 207  :     // If the following asserts, it likely means that we are performing
; 208  :     // an aligned delete on memory coming from an unaligned allocation.
; 209  :     _STL_ASSERT(_Ptr_user[-2] == _Big_allocation_sentinel, "invalid argument");
; 210  : 
; 211  :     // Extra paranoia on aligned allocation/deallocation; ensure _Ptr_container is
; 212  :     // in range [_Min_back_shift, _Non_user_size]
; 213  : #ifdef _DEBUG
; 214  :     constexpr uintptr_t _Min_back_shift = 2 * sizeof(void*);
; 215  : #else // ^^^ defined(_DEBUG) / !defined(_DEBUG) vvv
; 216  :     constexpr uintptr_t _Min_back_shift = sizeof(void*);
; 217  : #endif // ^^^ !defined(_DEBUG) ^^^
; 218  :     const uintptr_t _Back_shift = reinterpret_cast<uintptr_t>(_Ptr) - _Ptr_container;
; 219  :     _STL_VERIFY(_Back_shift >= _Min_back_shift && _Back_shift <= _Non_user_size, "invalid argument");

  008c0	83 c0 fc	 add	 eax, -4			; fffffffcH
  008c3	83 f8 1f	 cmp	 eax, 31			; 0000001fH
  008c6	0f 87 76 01 00
	00		 ja	 $LN287@Init
$LN415@Init:

; 289  :         ::operator delete(_Ptr, _Bytes);

  008cc	52		 push	 edx
  008cd	51		 push	 ecx
  008ce	e8 00 00 00 00	 call	 ??3@YAXPAXI@Z		; operator delete
  008d3	83 c4 08	 add	 esp, 8
$LN410@Init:
; File C:\Program Files\Microsoft Visual Studio\2022\Professional\VC\Tools\MSVC\14.44.35207\include\vector

; 2076 :         _Mylast  = _Newvec + _Newsize;

  008d6	8b 85 a8 f1 ff
	ff		 mov	 eax, DWORD PTR __Newsize$1$[ebp]
  008dc	89 b5 fc f1 ff
	ff		 mov	 DWORD PTR _vecMap$[ebp], esi
  008e2	8d 04 c6	 lea	 eax, DWORD PTR [esi+eax*8]
  008e5	89 85 00 f2 ff
	ff		 mov	 DWORD PTR _vecMap$[ebp+4], eax

; 2077 :         _Myend   = _Newvec + _Newcapacity;

  008eb	8b 85 e0 f1 ff
	ff		 mov	 eax, DWORD PTR tv2955[ebp]
  008f1	03 c6		 add	 eax, esi
  008f3	89 85 04 f2 ff
	ff		 mov	 DWORD PTR _vecMap$[ebp+8], eax
; File C:\IAGOS\server\v18\Source\Source\_Common\Continent.cpp

; 85   : 		}	

  008f9	eb 79		 jmp	 SHORT $LN6@Init
$LN444@Init:
; File C:\Program Files\Microsoft Visual Studio\2022\Professional\VC\Tools\MSVC\14.44.35207\atlmfc\include\cstringt.h

; 184  : 		return _mbscmp( reinterpret_cast< const unsigned char* >( pszA ), reinterpret_cast< const unsigned char* >( pszB ) );

  008fb	68 00 00 00 00	 push	 OFFSET ??_C@_04DADAHDDM@TOWN@
  00900	ff b5 28 f2 ff
	ff		 push	 DWORD PTR _script$[ebp+32]
  00906	e8 00 00 00 00	 call	 __mbscmp
  0090b	83 c4 08	 add	 esp, 8

; 2490 : 		return(str1.Compare(psz2) == 0);

  0090e	85 c0		 test	 eax, eax
; File C:\IAGOS\server\v18\Source\Source\_Common\Continent.cpp

; 87   : 		if( script.Token == _T( "TOWN" ) )

  00910	75 14		 jne	 SHORT $LN527@Init

; 88   : 		{
; 89   : 			bTown = script.GetNumber( );

  00912	50		 push	 eax
  00913	8d 8d 08 f2 ff
	ff		 lea	 ecx, DWORD PTR _script$[ebp]
  00919	e8 00 00 00 00	 call	 ?GetNumber@CScanner@@QAEHH@Z ; CScanner::GetNumber
  0091e	89 85 f8 f1 ff
	ff		 mov	 DWORD PTR _bTown$1$[ebp], eax

; 90   : 		}

  00924	eb 4e		 jmp	 SHORT $LN6@Init
$LN527@Init:
; File C:\Program Files\Microsoft Visual Studio\2022\Professional\VC\Tools\MSVC\14.44.35207\atlmfc\include\cstringt.h

; 184  : 		return _mbscmp( reinterpret_cast< const unsigned char* >( pszA ), reinterpret_cast< const unsigned char* >( pszB ) );

  00926	68 00 00 00 00	 push	 OFFSET ??_C@_0O@EGCOAAKO@C_useRealData@
  0092b	ff b5 28 f2 ff
	ff		 push	 DWORD PTR _script$[ebp+32]
  00931	e8 00 00 00 00	 call	 __mbscmp
  00936	83 c4 08	 add	 esp, 8

; 2490 : 		return(str1.Compare(psz2) == 0);

  00939	85 c0		 test	 eax, eax
; File C:\IAGOS\server\v18\Source\Source\_Common\Continent.cpp

; 92   : 		if( script.Token == _T( "C_useRealData" ) )

  0093b	75 37		 jne	 SHORT $LN6@Init

; 93   : 		{
; 94   : 			BOOL bReal = script.GetNumber( );

  0093d	50		 push	 eax
  0093e	8d 8d 08 f2 ff
	ff		 lea	 ecx, DWORD PTR _script$[ebp]
  00944	e8 00 00 00 00	 call	 ?GetNumber@CScanner@@QAEHH@Z ; CScanner::GetNumber

; 95   : 			if( !bReal )

  00949	85 c0		 test	 eax, eax
  0094b	75 27		 jne	 SHORT $LN6@Init
  0094d	0f 1f 00	 npad	 3
$LL7@Init:

; 96   : 			{
; 97   : 				//Ĺ¬¶óŔüżë şńÁęľóşŻČ­ µĄŔĚĹÍ·Î¸¸ ľ˛ŔÎ´Ů. Ĺ¬¶ó´Â żůµĺ ·Îµĺ˝Ă ÇŘ´ç ´ë·ú¸¸ ŔÚµż·ÎµĺµĘ.
; 98   : 				do{
; 99   : 					script.GetToken( );

  00950	6a 00		 push	 0
  00952	8d 8d 08 f2 ff
	ff		 lea	 ecx, DWORD PTR _script$[ebp]
  00958	e8 00 00 00 00	 call	 ?GetToken@CScript@@UAEHH@Z ; CScript::GetToken
; File C:\Program Files\Microsoft Visual Studio\2022\Professional\VC\Tools\MSVC\14.44.35207\atlmfc\include\cstringt.h

; 184  : 		return _mbscmp( reinterpret_cast< const unsigned char* >( pszA ), reinterpret_cast< const unsigned char* >( pszB ) );

  0095d	68 00 00 00 00	 push	 OFFSET ??_C@_03JMGAKCCH@END@
  00962	ff b5 28 f2 ff
	ff		 push	 DWORD PTR _script$[ebp+32]
  00968	e8 00 00 00 00	 call	 __mbscmp
  0096d	83 c4 08	 add	 esp, 8

; 2571 : 		return( str1.Compare( psz2 ) != 0 );

  00970	85 c0		 test	 eax, eax
; File C:\IAGOS\server\v18\Source\Source\_Common\Continent.cpp

; 100  : 				}while( script.Token != "END" );		//ÇŃ´ë·ú pass 

  00972	75 dc		 jne	 SHORT $LL7@Init
$LN6@Init:

; 101  : 			}
; 102  : 		} 
; 103  : 
; 104  : 	}while( script.tok != FINISHED );

  00974	83 bd 4c fa ff
	ff 15		 cmp	 DWORD PTR _script$[ebp+2116], 21 ; 00000015H
  0097b	0f 85 3f f9 ff
	ff		 jne	 $LL4@Init
  00981	83 ce ff	 or	 esi, -1
$LN3@Init:

; 217  : }

  00984	8d 8d 08 f2 ff
	ff		 lea	 ecx, DWORD PTR _script$[ebp]
  0098a	e8 00 00 00 00	 call	 ??1CScript@@UAE@XZ	; CScript::~CScript
; File C:\Program Files\Microsoft Visual Studio\2022\Professional\VC\Tools\MSVC\14.44.35207\atlmfc\include\atlsimpstr.h

; 804  : 		return( reinterpret_cast< CStringData* >( m_pszData )-1 );

  0098f	8b 95 c0 f1 ff
	ff		 mov	 edx, DWORD PTR _strFullFileName$[ebp]

; 92   : 		if( _InterlockedDecrement( &nRefs ) <= 0 )

  00995	8b c6		 mov	 eax, esi
; File C:\IAGOS\server\v18\Source\Source\_Common\Continent.cpp

; 217  : }

  00997	c6 45 fc 01	 mov	 BYTE PTR __$EHRec$[ebp+8], 1
; File C:\Program Files\Microsoft Visual Studio\2022\Professional\VC\Tools\MSVC\14.44.35207\atlmfc\include\atlsimpstr.h

; 804  : 		return( reinterpret_cast< CStringData* >( m_pszData )-1 );

  0099b	83 c2 f0	 add	 edx, -16		; fffffff0H

; 92   : 		if( _InterlockedDecrement( &nRefs ) <= 0 )

  0099e	f0 0f c1 42 0c	 lock	  xadd	 DWORD PTR [edx+12], eax
  009a3	48		 dec	 eax
  009a4	85 c0		 test	 eax, eax
  009a6	7f 08		 jg	 SHORT $LN300@Init

; 93   : 		{
; 94   : 			pStringMgr->Free( this );

  009a8	8b 0a		 mov	 ecx, DWORD PTR [edx]
  009aa	52		 push	 edx
  009ab	8b 01		 mov	 eax, DWORD PTR [ecx]
  009ad	ff 50 04	 call	 DWORD PTR [eax+4]
$LN300@Init:

; 804  : 		return( reinterpret_cast< CStringData* >( m_pszData )-1 );

  009b0	8b 95 bc f1 ff
	ff		 mov	 edx, DWORD PTR _strDir$[ebp]
; File C:\IAGOS\server\v18\Source\Source\_Common\Continent.cpp

; 217  : }

  009b6	c6 45 fc 00	 mov	 BYTE PTR __$EHRec$[ebp+8], 0
; File C:\Program Files\Microsoft Visual Studio\2022\Professional\VC\Tools\MSVC\14.44.35207\atlmfc\include\atlsimpstr.h

; 804  : 		return( reinterpret_cast< CStringData* >( m_pszData )-1 );

  009ba	83 c2 f0	 add	 edx, -16		; fffffff0H

; 92   : 		if( _InterlockedDecrement( &nRefs ) <= 0 )

  009bd	f0 0f c1 72 0c	 lock	  xadd	 DWORD PTR [edx+12], esi
  009c2	4e		 dec	 esi
  009c3	85 f6		 test	 esi, esi
  009c5	7f 08		 jg	 SHORT $LN309@Init

; 93   : 		{
; 94   : 			pStringMgr->Free( this );

  009c7	8b 0a		 mov	 ecx, DWORD PTR [edx]
  009c9	52		 push	 edx
  009ca	8b 01		 mov	 eax, DWORD PTR [ecx]
  009cc	ff 50 04	 call	 DWORD PTR [eax+4]
$LN309@Init:
; File C:\Program Files\Microsoft Visual Studio\2022\Professional\VC\Tools\MSVC\14.44.35207\include\vector

; 2090 :         if (_Myfirst) { // destroy and deallocate old array

  009cf	8b 95 fc f1 ff
	ff		 mov	 edx, DWORD PTR _vecMap$[ebp]
  009d5	85 d2		 test	 edx, edx
  009d7	74 2f		 je	 SHORT $LN275@Init

; 2093 :             _Al.deallocate(_Myfirst, static_cast<size_type>(_Myend - _Myfirst));

  009d9	8b 8d 04 f2 ff
	ff		 mov	 ecx, DWORD PTR _vecMap$[ebp+8]
; File C:\Program Files\Microsoft Visual Studio\2022\Professional\VC\Tools\MSVC\14.44.35207\include\xmemory

; 985  :         _STD _Deallocate<_New_alignof<_Ty>>(_Ptr, sizeof(_Ty) * _Count);

  009df	8b c2		 mov	 eax, edx
; File C:\Program Files\Microsoft Visual Studio\2022\Professional\VC\Tools\MSVC\14.44.35207\include\vector

; 2093 :             _Al.deallocate(_Myfirst, static_cast<size_type>(_Myend - _Myfirst));

  009e1	2b ca		 sub	 ecx, edx
; File C:\Program Files\Microsoft Visual Studio\2022\Professional\VC\Tools\MSVC\14.44.35207\include\xmemory

; 985  :         _STD _Deallocate<_New_alignof<_Ty>>(_Ptr, sizeof(_Ty) * _Count);

  009e3	83 e1 f8	 and	 ecx, -8			; fffffff8H

; 284  :         if (_Bytes >= _Big_allocation_threshold) {

  009e6	81 f9 00 10 00
	00		 cmp	 ecx, 4096		; 00001000H
  009ec	72 10		 jb	 SHORT $LN288@Init

; 205  :     const uintptr_t _Ptr_container   = _Ptr_user[-1];

  009ee	8b 50 fc	 mov	 edx, DWORD PTR [eax-4]
  009f1	83 c1 23	 add	 ecx, 35			; 00000023H
  009f4	2b c2		 sub	 eax, edx

; 206  : 
; 207  :     // If the following asserts, it likely means that we are performing
; 208  :     // an aligned delete on memory coming from an unaligned allocation.
; 209  :     _STL_ASSERT(_Ptr_user[-2] == _Big_allocation_sentinel, "invalid argument");
; 210  : 
; 211  :     // Extra paranoia on aligned allocation/deallocation; ensure _Ptr_container is
; 212  :     // in range [_Min_back_shift, _Non_user_size]
; 213  : #ifdef _DEBUG
; 214  :     constexpr uintptr_t _Min_back_shift = 2 * sizeof(void*);
; 215  : #else // ^^^ defined(_DEBUG) / !defined(_DEBUG) vvv
; 216  :     constexpr uintptr_t _Min_back_shift = sizeof(void*);
; 217  : #endif // ^^^ !defined(_DEBUG) ^^^
; 218  :     const uintptr_t _Back_shift = reinterpret_cast<uintptr_t>(_Ptr) - _Ptr_container;
; 219  :     _STL_VERIFY(_Back_shift >= _Min_back_shift && _Back_shift <= _Non_user_size, "invalid argument");

  009f6	83 c0 fc	 add	 eax, -4			; fffffffcH
  009f9	83 f8 1f	 cmp	 eax, 31			; 0000001fH
  009fc	77 44		 ja	 SHORT $LN287@Init
$LN288@Init:

; 289  :         ::operator delete(_Ptr, _Bytes);

  009fe	51		 push	 ecx
  009ff	52		 push	 edx
  00a00	e8 00 00 00 00	 call	 ??3@YAXPAXI@Z		; operator delete
  00a05	83 c4 08	 add	 esp, 8
$LN275@Init:
; File C:\IAGOS\server\v18\Source\Source\_Common\Continent.cpp

; 217  : }

  00a08	8b 4d f4	 mov	 ecx, DWORD PTR __$EHRec$[ebp]
  00a0b	64 89 0d 00 00
	00 00		 mov	 DWORD PTR fs:0, ecx
  00a12	59		 pop	 ecx
  00a13	5f		 pop	 edi
  00a14	5e		 pop	 esi
  00a15	5b		 pop	 ebx
  00a16	8b 4d f0	 mov	 ecx, DWORD PTR __$ArrayPad$[ebp]
  00a19	33 cd		 xor	 ecx, ebp
  00a1b	e8 00 00 00 00	 call	 @__security_check_cookie@4
  00a20	8b e5		 mov	 esp, ebp
  00a22	5d		 pop	 ebp
  00a23	c3		 ret	 0
$LN760@Init:
; File C:\Program Files\Microsoft Visual Studio\2022\Professional\VC\Tools\MSVC\14.44.35207\atlmfc\include\atlsimpstr.h

; 209  : 		ATLENSURE( pStringMgr != NULL );

  00a24	68 05 40 00 80	 push	 -2147467259		; 80004005H
  00a29	e8 00 00 00 00	 call	 ?AtlThrowImpl@ATL@@YGXJ@Z ; ATL::AtlThrowImpl
$LN761@Init:
  00a2e	68 05 40 00 80	 push	 -2147467259		; 80004005H
  00a33	e8 00 00 00 00	 call	 ?AtlThrowImpl@ATL@@YGXJ@Z ; ATL::AtlThrowImpl
$LN762@Init:
  00a38	68 05 40 00 80	 push	 -2147467259		; 80004005H
  00a3d	e8 00 00 00 00	 call	 ?AtlThrowImpl@ATL@@YGXJ@Z ; ATL::AtlThrowImpl
$LN287@Init:
; File C:\IAGOS\server\v18\Source\Source\_Common\Continent.cpp

; 217  : }

  00a42	6a 00		 push	 0
  00a44	6a 00		 push	 0
  00a46	6a 00		 push	 0
  00a48	6a 00		 push	 0
  00a4a	6a 00		 push	 0
  00a4c	e8 00 00 00 00	 call	 __invoke_watson
$LN731@Init:
  00a51	e8 00 00 00 00	 call	 ?_Xlength@?$vector@VCPoint@@V?$allocator@VCPoint@@@std@@@std@@CAXXZ ; std::vector<CPoint,std::allocator<CPoint> >::_Xlength
$LN737@Init:
; File C:\Program Files\Microsoft Visual Studio\2022\Professional\VC\Tools\MSVC\14.44.35207\include\xmemory

; 118  :             _Throw_bad_array_new_length(); // multiply overflow

  00a56	e8 00 00 00 00	 call	 ?_Throw_bad_array_new_length@std@@YAXXZ ; std::_Throw_bad_array_new_length
$LN755@Init:
  00a5b	cc		 int	 3
_TEXT	ENDS
;	COMDAT text$x
text$x	SEGMENT
__unwindfunclet$?Init@CContinent@@AAEXXZ$0:
  00000	8d 8d fc f1 ff
	ff		 lea	 ecx, DWORD PTR _vecMap$[ebp]
  00006	e9 00 00 00 00	 jmp	 ??1?$vector@VCPoint@@V?$allocator@VCPoint@@@std@@@std@@QAE@XZ ; std::vector<CPoint,std::allocator<CPoint> >::~vector<CPoint,std::allocator<CPoint> >
__unwindfunclet$?Init@CContinent@@AAEXXZ$1:
  0000b	8d 8d bc f1 ff
	ff		 lea	 ecx, DWORD PTR _strDir$[ebp]
  00011	e9 00 00 00 00	 jmp	 ??1?$CStringT@DV?$StrTraitMFC@DV?$ChTraitsCRT@D@ATL@@@@@ATL@@QAE@XZ ; ATL::CStringT<char,StrTraitMFC<char,ATL::ChTraitsCRT<char> > >::~CStringT<char,StrTraitMFC<char,ATL::ChTraitsCRT<char> > >
__unwindfunclet$?Init@CContinent@@AAEXXZ$11:
  00016	8d 8d f0 f1 ff
	ff		 lea	 ecx, DWORD PTR $T14[ebp]
  0001c	e9 00 00 00 00	 jmp	 ??1?$CSimpleStringT@D$0A@@ATL@@QAE@XZ ; ATL::CSimpleStringT<char,0>::~CSimpleStringT<char,0>
__unwindfunclet$?Init@CContinent@@AAEXXZ$2:
  00021	8d 8d f0 f1 ff
	ff		 lea	 ecx, DWORD PTR $T14[ebp]
  00027	e9 00 00 00 00	 jmp	 ??1?$CStringT@DV?$StrTraitMFC@DV?$ChTraitsCRT@D@ATL@@@@@ATL@@QAE@XZ ; ATL::CStringT<char,StrTraitMFC<char,ATL::ChTraitsCRT<char> > >::~CStringT<char,StrTraitMFC<char,ATL::ChTraitsCRT<char> > >
__unwindfunclet$?Init@CContinent@@AAEXXZ$12:
  0002c	8d 8d f4 f1 ff
	ff		 lea	 ecx, DWORD PTR $T15[ebp]
  00032	e9 00 00 00 00	 jmp	 ??1?$CSimpleStringT@D$0A@@ATL@@QAE@XZ ; ATL::CSimpleStringT<char,0>::~CSimpleStringT<char,0>
__unwindfunclet$?Init@CContinent@@AAEXXZ$3:
  00037	8d 8d f4 f1 ff
	ff		 lea	 ecx, DWORD PTR $T15[ebp]
  0003d	e9 00 00 00 00	 jmp	 ??1?$CStringT@DV?$StrTraitMFC@DV?$ChTraitsCRT@D@ATL@@@@@ATL@@QAE@XZ ; ATL::CStringT<char,StrTraitMFC<char,ATL::ChTraitsCRT<char> > >::~CStringT<char,StrTraitMFC<char,ATL::ChTraitsCRT<char> > >
__unwindfunclet$?Init@CContinent@@AAEXXZ$13:
  00042	8d 8d f8 f1 ff
	ff		 lea	 ecx, DWORD PTR $T16[ebp]
  00048	e9 00 00 00 00	 jmp	 ??1?$CSimpleStringT@D$0A@@ATL@@QAE@XZ ; ATL::CSimpleStringT<char,0>::~CSimpleStringT<char,0>
__unwindfunclet$?Init@CContinent@@AAEXXZ$4:
  0004d	8d 8d f8 f1 ff
	ff		 lea	 ecx, DWORD PTR $T16[ebp]
  00053	e9 00 00 00 00	 jmp	 ??1?$CStringT@DV?$StrTraitMFC@DV?$ChTraitsCRT@D@ATL@@@@@ATL@@QAE@XZ ; ATL::CStringT<char,StrTraitMFC<char,ATL::ChTraitsCRT<char> > >::~CStringT<char,StrTraitMFC<char,ATL::ChTraitsCRT<char> > >
__unwindfunclet$?Init@CContinent@@AAEXXZ$5:
  00058	8d 8d ec f1 ff
	ff		 lea	 ecx, DWORD PTR $T12[ebp]
  0005e	e9 00 00 00 00	 jmp	 ??1?$CStringT@DV?$StrTraitMFC@DV?$ChTraitsCRT@D@ATL@@@@@ATL@@QAE@XZ ; ATL::CStringT<char,StrTraitMFC<char,ATL::ChTraitsCRT<char> > >::~CStringT<char,StrTraitMFC<char,ATL::ChTraitsCRT<char> > >
__unwindfunclet$?Init@CContinent@@AAEXXZ$6:
  00063	8d 8d e8 f1 ff
	ff		 lea	 ecx, DWORD PTR $T10[ebp]
  00069	e9 00 00 00 00	 jmp	 ??1?$CStringT@DV?$StrTraitMFC@DV?$ChTraitsCRT@D@ATL@@@@@ATL@@QAE@XZ ; ATL::CStringT<char,StrTraitMFC<char,ATL::ChTraitsCRT<char> > >::~CStringT<char,StrTraitMFC<char,ATL::ChTraitsCRT<char> > >
__unwindfunclet$?Init@CContinent@@AAEXXZ$7:
  0006e	8d 8d c0 f1 ff
	ff		 lea	 ecx, DWORD PTR _strFullFileName$[ebp]
  00074	e9 00 00 00 00	 jmp	 ??1?$CStringT@DV?$StrTraitMFC@DV?$ChTraitsCRT@D@ATL@@@@@ATL@@QAE@XZ ; ATL::CStringT<char,StrTraitMFC<char,ATL::ChTraitsCRT<char> > >::~CStringT<char,StrTraitMFC<char,ATL::ChTraitsCRT<char> > >
__unwindfunclet$?Init@CContinent@@AAEXXZ$8:
  00079	8d 8d 08 f2 ff
	ff		 lea	 ecx, DWORD PTR _script$[ebp]
  0007f	e9 00 00 00 00	 jmp	 ??1CScript@@UAE@XZ	; CScript::~CScript
__unwindfunclet$?Init@CContinent@@AAEXXZ$9:
  00084	8b 85 d8 f1 ff
	ff		 mov	 eax, DWORD PTR $T8[ebp]
  0008a	83 e0 01	 and	 eax, 1
  0008d	0f 84 12 00 00
	00		 je	 $LN36@Init
  00093	83 a5 d8 f1 ff
	ff fe		 and	 DWORD PTR $T8[ebp], -2	; fffffffeH
  0009a	8d 8d c8 f1 ff
	ff		 lea	 ecx, DWORD PTR $T7[ebp]
  000a0	e9 00 00 00 00	 jmp	 ??1?$pair@HV?$vector@VCPoint@@V?$allocator@VCPoint@@@std@@@std@@@std@@QAE@XZ
$LN36@Init:
  000a5	c3		 ret	 0
__unwindfunclet$?Init@CContinent@@AAEXXZ$10:
  000a6	8b 85 d8 f1 ff
	ff		 mov	 eax, DWORD PTR $T8[ebp]
  000ac	83 e0 02	 and	 eax, 2
  000af	0f 84 12 00 00
	00		 je	 $LN38@Init
  000b5	83 a5 d8 f1 ff
	ff fd		 and	 DWORD PTR $T8[ebp], -3	; fffffffdH
  000bc	8d 8d ac f1 ff
	ff		 lea	 ecx, DWORD PTR $T6[ebp]
  000c2	e9 00 00 00 00	 jmp	 ??1?$pair@HV?$vector@VCPoint@@V?$allocator@VCPoint@@@std@@@std@@@std@@QAE@XZ
$LN38@Init:
  000c7	c3		 ret	 0
  000c8	cc		 int	 3
  000c9	cc		 int	 3
  000ca	cc		 int	 3
  000cb	cc		 int	 3
  000cc	cc		 int	 3
__ehhandler$?Init@CContinent@@AAEXXZ:
  000cd	90		 npad	 1
  000ce	90		 npad	 1
  000cf	8b 54 24 08	 mov	 edx, DWORD PTR [esp+8]
  000d3	8d 42 0c	 lea	 eax, DWORD PTR [edx+12]
  000d6	8b 8a 94 f1 ff
	ff		 mov	 ecx, DWORD PTR [edx-3692]
  000dc	33 c8		 xor	 ecx, eax
  000de	e8 00 00 00 00	 call	 @__security_check_cookie@4
  000e3	8b 4a fc	 mov	 ecx, DWORD PTR [edx-4]
  000e6	33 c8		 xor	 ecx, eax
  000e8	e8 00 00 00 00	 call	 @__security_check_cookie@4
  000ed	b8 00 00 00 00	 mov	 eax, OFFSET __ehfuncinfo$?Init@CContinent@@AAEXXZ
  000f2	e9 00 00 00 00	 jmp	 ___CxxFrameHandler3
text$x	ENDS
?Init@CContinent@@AAEXXZ ENDP				; CContinent::Init
; Function compile flags: /Ogtp
; File C:\IAGOS\server\v18\Source\Source\_Common\Continent.cpp
;	COMDAT ?GetArea@CContinent@@AAEEE@Z
_TEXT	SEGMENT
_nCont$ = 8						; size = 1
?GetArea@CContinent@@AAEEE@Z PROC			; CContinent::GetArea, COMDAT
; _this$ = ecx

; 325  : {

  00000	55		 push	 ebp
  00001	8b ec		 mov	 ebp, esp
  00003	8a 45 08	 mov	 al, BYTE PTR _nCont$[ebp]

; 326  : #if __VER >= 15 // __USING_CONTINENT_DATA
; 327  : 	if( nCont == CONT_NODATA )

  00006	84 c0		 test	 al, al
  00008	74 16		 je	 SHORT $LN6@GetArea

; 328  : 		return CONT_NODATA;
; 329  : 	else if( nCont <= CONT_EAST )

  0000a	3c 0f		 cmp	 al, 15			; 0000000fH
  0000c	77 06		 ja	 SHORT $LN4@GetArea

; 330  : 		return CONT_EAST;

  0000e	b0 0f		 mov	 al, 15			; 0000000fH

; 335  : #else // __USING_CONTINENT_DATA
; 336  : 	if( nCont & CONT_EAST )
; 337  : 		return CONT_EAST;
; 338  : 	else if( nCont & CONT_WEST )
; 339  : 		return CONT_WEST;
; 340  : 	else
; 341  : 		return CONT_NODATA;
; 342  : #endif // __USING_CONTINENT_DATA
; 343  : }

  00010	5d		 pop	 ebp
  00011	c2 04 00	 ret	 4
$LN4@GetArea:

; 331  : 	else if( nCont >= CONT_WEST )

  00014	3c f0		 cmp	 al, 240			; 000000f0H
  00016	1a c0		 sbb	 al, al
  00018	24 10		 and	 al, 16			; 00000010H
  0001a	04 f0		 add	 al, 240			; 000000f0H

; 335  : #else // __USING_CONTINENT_DATA
; 336  : 	if( nCont & CONT_EAST )
; 337  : 		return CONT_EAST;
; 338  : 	else if( nCont & CONT_WEST )
; 339  : 		return CONT_WEST;
; 340  : 	else
; 341  : 		return CONT_NODATA;
; 342  : #endif // __USING_CONTINENT_DATA
; 343  : }

  0001c	5d		 pop	 ebp
  0001d	c2 04 00	 ret	 4
$LN6@GetArea:

; 332  : 		return CONT_WEST;
; 333  : 
; 334  : 	return CONT_NODATA;

  00020	32 c0		 xor	 al, al

; 335  : #else // __USING_CONTINENT_DATA
; 336  : 	if( nCont & CONT_EAST )
; 337  : 		return CONT_EAST;
; 338  : 	else if( nCont & CONT_WEST )
; 339  : 		return CONT_WEST;
; 340  : 	else
; 341  : 		return CONT_NODATA;
; 342  : #endif // __USING_CONTINENT_DATA
; 343  : }

  00022	5d		 pop	 ebp
  00023	c2 04 00	 ret	 4
?GetArea@CContinent@@AAEEE@Z ENDP			; CContinent::GetArea
_TEXT	ENDS
; Function compile flags: /Ogtp
; File C:\IAGOS\server\v18\Source\Source\_Common\Continent.cpp
; File C:\Program Files\Microsoft Visual Studio\2022\Professional\VC\Tools\MSVC\14.44.35207\include\vector
; File C:\IAGOS\server\v18\Source\Source\_Common\Continent.cpp
; File C:\Program Files\Microsoft Visual Studio\2022\Professional\VC\Tools\MSVC\14.44.35207\include\xtree
; File C:\IAGOS\server\v18\Source\Source\_Common\Continent.cpp
; File C:\Program Files\Microsoft Visual Studio\2022\Professional\VC\Tools\MSVC\14.44.35207\include\vector
; File C:\Program Files\Microsoft Visual Studio\2022\Professional\VC\Tools\MSVC\14.44.35207\include\xmemory
; File C:\Program Files\Microsoft Visual Studio\2022\Professional\VC\Tools\MSVC\14.44.35207\include\vector
; File C:\Program Files\Microsoft Visual Studio\2022\Professional\VC\Tools\MSVC\14.44.35207\include\xmemory
; File C:\Program Files\Microsoft Visual Studio\2022\Professional\VC\Tools\MSVC\14.44.35207\include\vector
; File C:\Program Files\Microsoft Visual Studio\2022\Professional\VC\Tools\MSVC\14.44.35207\include\xmemory
; File C:\Program Files\Microsoft Visual Studio\2022\Professional\VC\Tools\MSVC\14.44.35207\include\vector
; File C:\Program Files\Microsoft Visual Studio\2022\Professional\VC\Tools\MSVC\14.44.35207\include\xmemory
; File C:\Program Files\Microsoft Visual Studio\2022\Professional\VC\Tools\MSVC\14.44.35207\include\vector
; File C:\Program Files\Microsoft Visual Studio\2022\Professional\VC\Tools\MSVC\14.44.35207\include\xutility
; File C:\Program Files\Microsoft Visual Studio\2022\Professional\VC\Tools\MSVC\14.44.35207\include\vector
; File C:\Program Files\Microsoft Visual Studio\2022\Professional\VC\Tools\MSVC\14.44.35207\include\xutility
; File C:\Program Files\Microsoft Visual Studio\2022\Professional\VC\Tools\MSVC\14.44.35207\include\vector
; File C:\IAGOS\server\v18\Source\Source\_Common\Continent.cpp
; File C:\Program Files\Microsoft Visual Studio\2022\Professional\VC\Tools\MSVC\14.44.35207\include\vector
; File C:\IAGOS\server\v18\Source\Source\_Common\Continent.cpp
; File C:\Program Files\Microsoft Visual Studio\2022\Professional\VC\Tools\MSVC\14.44.35207\include\vector
; File C:\IAGOS\server\v18\Source\Source\_Common\Continent.cpp
; File C:\Program Files\Microsoft Visual Studio\2022\Professional\VC\Tools\MSVC\14.44.35207\include\vector
; File C:\IAGOS\server\v18\Source\Source\_Common\Continent.cpp
; File C:\Program Files\Microsoft Visual Studio\2022\Professional\VC\Tools\MSVC\14.44.35207\include\vector
; File C:\Program Files\Microsoft Visual Studio\2022\Professional\VC\Tools\MSVC\14.44.35207\include\xmemory
; File C:\Program Files\Microsoft Visual Studio\2022\Professional\VC\Tools\MSVC\14.44.35207\include\vector
; File C:\Program Files\Microsoft Visual Studio\2022\Professional\VC\Tools\MSVC\14.44.35207\include\xmemory
; File C:\Program Files\Microsoft Visual Studio\2022\Professional\VC\Tools\MSVC\14.44.35207\include\vector
; File C:\IAGOS\server\v18\Source\Source\_Common\Continent.cpp
; File C:\Program Files\Microsoft Visual Studio\2022\Professional\VC\Tools\MSVC\14.44.35207\include\xtree
; File C:\IAGOS\server\v18\Source\Source\_Common\Continent.cpp
; File C:\Program Files\Microsoft Visual Studio\2022\Professional\VC\Tools\MSVC\14.44.35207\include\vector
; File C:\Program Files\Microsoft Visual Studio\2022\Professional\VC\Tools\MSVC\14.44.35207\include\xmemory
; File C:\Program Files\Microsoft Visual Studio\2022\Professional\VC\Tools\MSVC\14.44.35207\include\vector
; File C:\Program Files\Microsoft Visual Studio\2022\Professional\VC\Tools\MSVC\14.44.35207\include\xmemory
; File C:\IAGOS\server\v18\Source\Source\_Common\Continent.cpp
; File C:\Program Files\Microsoft Visual Studio\2022\Professional\VC\Tools\MSVC\14.44.35207\include\vector
; File C:\Program Files\Microsoft Visual Studio\2022\Professional\VC\Tools\MSVC\14.44.35207\include\xmemory
; File C:\IAGOS\server\v18\Source\Source\_Common\Continent.cpp
;	COMDAT ?GetContinent@CContinent@@QAEEABUD3DXVECTOR3@@@Z
_TEXT	SEGMENT
_vecPoint$ = -48					; size = 12
_this$1$ = -36						; size = 4
_cpoint$1$ = -32					; size = 4
_cpoint$2$ = -28					; size = 4
_this$1$ = -24						; size = 4
__Oldsize$1$ = -24					; size = 4
$T2 = -20						; size = 4
__Bytes$1$ = -20					; size = 4
_vecPoint$3$ = -16					; size = 4
__$EHRec$ = -12						; size = 12
_vPos$ = 8						; size = 4
__First$2$ = 8						; size = 4
__Count$1$ = 8						; size = 4
$T3 = 11						; size = 1
?GetContinent@CContinent@@QAEEABUD3DXVECTOR3@@@Z PROC	; CContinent::GetContinent, COMDAT
; _this$ = ecx

; 289  : {

  00000	55		 push	 ebp
  00001	8b ec		 mov	 ebp, esp
  00003	6a ff		 push	 -1
  00005	68 00 00 00 00	 push	 __ehhandler$?GetContinent@CContinent@@QAEEABUD3DXVECTOR3@@@Z
  0000a	64 a1 00 00 00
	00		 mov	 eax, DWORD PTR fs:0
  00010	50		 push	 eax
  00011	83 ec 24	 sub	 esp, 36			; 00000024H
  00014	53		 push	 ebx
  00015	56		 push	 esi
  00016	57		 push	 edi
  00017	a1 00 00 00 00	 mov	 eax, DWORD PTR ___security_cookie
  0001c	33 c5		 xor	 eax, ebp
  0001e	50		 push	 eax
  0001f	8d 45 f4	 lea	 eax, DWORD PTR __$EHRec$[ebp]
  00022	64 a3 00 00 00
	00		 mov	 DWORD PTR fs:0, eax
  00028	8b f1		 mov	 esi, ecx
  0002a	89 75 dc	 mov	 DWORD PTR _this$1$[ebp], esi
; File C:\Program Files\Microsoft Visual Studio\2022\Professional\VC\Tools\MSVC\14.44.35207\include\vector

; 400  :     _CONSTEXPR20 _Vector_val() noexcept : _Myfirst(), _Mylast(), _Myend() {}

  0002d	33 d2		 xor	 edx, edx
  0002f	33 c9		 xor	 ecx, ecx
  00031	33 db		 xor	 ebx, ebx
  00033	89 55 f0	 mov	 DWORD PTR _vecPoint$3$[ebp], edx
  00036	89 5d d0	 mov	 DWORD PTR _vecPoint$[ebp], ebx
  00039	89 55 d4	 mov	 DWORD PTR _vecPoint$[ebp+4], edx
  0003c	89 4d ec	 mov	 DWORD PTR __Bytes$1$[ebp], ecx
  0003f	89 4d d8	 mov	 DWORD PTR _vecPoint$[ebp+8], ecx
; File C:\IAGOS\server\v18\Source\Source\_Common\Continent.cpp

; 293  : 	cpoint.x    = (long)( vPos.x );

  00042	8b 45 08	 mov	 eax, DWORD PTR _vPos$[ebp]
  00045	89 4d fc	 mov	 DWORD PTR __$EHRec$[ebp+8], ecx
  00048	f3 0f 2c 38	 cvttss2si edi, DWORD PTR [eax]

; 294  : 	cpoint.y    = (long)( vPos.z );

  0004c	f3 0f 2c 40 08	 cvttss2si eax, DWORD PTR [eax+8]
  00051	89 7d e0	 mov	 DWORD PTR _cpoint$1$[ebp], edi
  00054	89 45 e4	 mov	 DWORD PTR _cpoint$2$[ebp], eax
; File C:\Program Files\Microsoft Visual Studio\2022\Professional\VC\Tools\MSVC\14.44.35207\include\xtree

; 1142 :         return iterator(_Scary->_Myhead->_Left, _Scary);

  00057	8b 46 04	 mov	 eax, DWORD PTR [esi+4]

; 37   :     _Tree_unchecked_const_iterator(_Nodeptr _Pnode, const _Mytree* _Plist) noexcept : _Ptr(_Pnode) {

  0005a	8b 30		 mov	 esi, DWORD PTR [eax]

; 237  :         return !(*this == _Right);

  0005c	3b f0		 cmp	 esi, eax
; File C:\IAGOS\server\v18\Source\Source\_Common\Continent.cpp

; 296  : 	for( map< BYTE, vector<CPoint> >::iterator iter = m_MapCont.begin(); iter != m_MapCont.end(); ++iter )

  0005e	0f 84 b1 01 00
	00		 je	 $LN3@GetContine
$LL4@GetContine:

; 297  : 	{
; 298  : 		vecPoint  = iter->second;	

  00064	8d 7e 14	 lea	 edi, DWORD PTR [esi+20]
; File C:\Program Files\Microsoft Visual Studio\2022\Professional\VC\Tools\MSVC\14.44.35207\include\vector

; 1524 :         if (this == _STD addressof(_Right)) {

  00067	8d 45 d0	 lea	 eax, DWORD PTR _vecPoint$[ebp]
  0006a	3b c7		 cmp	 eax, edi
  0006c	0f 84 e2 00 00
	00		 je	 $LN87@GetContine

; 1525 :             return *this;
; 1526 :         }
; 1527 : 
; 1528 :         auto& _Al       = _Getal();
; 1529 :         auto& _Right_al = _Right._Getal();
; 1530 :         if constexpr (_Choose_pocca_v<_Alty>) {
; 1531 :             if (_Al != _Right_al) {
; 1532 :                 _Tidy();
; 1533 :                 _Mypair._Myval2._Reload_proxy(_GET_PROXY_ALLOCATOR(_Alty, _Al), _GET_PROXY_ALLOCATOR(_Alty, _Right_al));
; 1534 :             }
; 1535 :         }
; 1536 : 
; 1537 :         _Pocca(_Al, _Right_al);
; 1538 :         auto& _Right_data = _Right._Mypair._Myval2;
; 1539 :         _Assign_counted_range(_Right_data._Myfirst, static_cast<size_type>(_Right_data._Mylast - _Right_data._Myfirst));

  00072	8b 07		 mov	 eax, DWORD PTR [edi]

; 1432 :         const auto _Oldcapacity = static_cast<size_type>(_Myend - _Myfirst);

  00074	2b cb		 sub	 ecx, ebx

; 1539 :         _Assign_counted_range(_Right_data._Myfirst, static_cast<size_type>(_Right_data._Mylast - _Right_data._Myfirst));

  00076	8b 7f 04	 mov	 edi, DWORD PTR [edi+4]
  00079	2b f8		 sub	 edi, eax

; 1432 :         const auto _Oldcapacity = static_cast<size_type>(_Myend - _Myfirst);

  0007b	c1 f9 03	 sar	 ecx, 3

; 1539 :         _Assign_counted_range(_Right_data._Myfirst, static_cast<size_type>(_Right_data._Mylast - _Right_data._Myfirst));

  0007e	c1 ff 03	 sar	 edi, 3
  00081	89 45 08	 mov	 DWORD PTR __First$2$[ebp], eax

; 1433 :         if (_Newsize > _Oldcapacity) {

  00084	3b f9		 cmp	 edi, ecx
  00086	76 78		 jbe	 SHORT $LN85@GetContine

; 1703 :         if (_Newsize > max_size()) {

  00088	81 ff ff ff ff
	1f		 cmp	 edi, 536870911		; 1fffffffH
  0008e	0f 87 cc 01 00
	00		 ja	 $LN206@GetContine

; 2011 :         if (_Oldcapacity > _Max - _Oldcapacity / 2) {

  00094	8b d1		 mov	 edx, ecx
  00096	b8 ff ff ff 1f	 mov	 eax, 536870911		; 1fffffffH
  0009b	d1 ea		 shr	 edx, 1
  0009d	2b c2		 sub	 eax, edx
  0009f	3b c8		 cmp	 ecx, eax
  000a1	76 09		 jbe	 SHORT $LN95@GetContine

; 2012 :             return _Max; // geometric growth would overflow

  000a3	c7 45 ec ff ff
	ff 1f		 mov	 DWORD PTR $T2[ebp], 536870911 ; 1fffffffH
  000aa	eb 0b		 jmp	 SHORT $LN96@GetContine
$LN95@GetContine:

; 2013 :         }
; 2014 : 
; 2015 :         const size_type _Geometric = _Oldcapacity + _Oldcapacity / 2;

  000ac	8d 04 0a	 lea	 eax, DWORD PTR [edx+ecx]

; 2016 : 
; 2017 :         if (_Geometric < _Newsize) {

  000af	3b c7		 cmp	 eax, edi
  000b1	0f 42 c7	 cmovb	 eax, edi
  000b4	89 45 ec	 mov	 DWORD PTR $T2[ebp], eax
$LN96@GetContine:

; 1709 :         if (_Myfirst) { // destroy and deallocate old array

  000b7	85 db		 test	 ebx, ebx
  000b9	74 1f		 je	 SHORT $LN92@GetContine

; 1710 :             _Destroy_range(_Myfirst, _Mylast, _Al);
; 1711 :             _ASAN_VECTOR_REMOVE;
; 1712 :             _Al.deallocate(_Myfirst, static_cast<size_type>(_Myend - _Myfirst));

  000bb	51		 push	 ecx
  000bc	53		 push	 ebx
  000bd	8d 4d d0	 lea	 ecx, DWORD PTR _vecPoint$[ebp]
  000c0	e8 00 00 00 00	 call	 ?deallocate@?$allocator@VCPoint@@@std@@QAEXQAVCPoint@@I@Z ; std::allocator<CPoint>::deallocate

; 1713 : 
; 1714 :             _Myfirst = nullptr;

  000c5	c7 45 d0 00 00
	00 00		 mov	 DWORD PTR _vecPoint$[ebp], 0

; 1715 :             _Mylast  = nullptr;

  000cc	c7 45 d4 00 00
	00 00		 mov	 DWORD PTR _vecPoint$[ebp+4], 0

; 1716 :             _Myend   = nullptr;

  000d3	c7 45 d8 00 00
	00 00		 mov	 DWORD PTR _vecPoint$[ebp+8], 0
$LN92@GetContine:

; 1717 :         }
; 1718 : 
; 1719 :         _Buy_raw(_Newcapacity);

  000da	ff 75 ec	 push	 DWORD PTR $T2[ebp]
  000dd	8d 4d d0	 lea	 ecx, DWORD PTR _vecPoint$[ebp]
  000e0	e8 00 00 00 00	 call	 ?_Buy_raw@?$vector@VCPoint@@V?$allocator@VCPoint@@@std@@@std@@AAEXI@Z ; std::vector<CPoint,std::allocator<CPoint> >::_Buy_raw
; File C:\Program Files\Microsoft Visual Studio\2022\Professional\VC\Tools\MSVC\14.44.35207\include\xmemory

; 1930 :             _STD _Copy_memmove_n(_UFirst, _Count, _STD _Unfancy(_Dest));

  000e5	8b 5d d0	 mov	 ebx, DWORD PTR _vecPoint$[ebp]
  000e8	53		 push	 ebx
  000e9	57		 push	 edi
  000ea	ff 75 08	 push	 DWORD PTR __First$2$[ebp]
  000ed	e8 00 00 00 00	 call	 ??$_Copy_memmove_n@PAVCPoint@@PAV1@@std@@YAPAVCPoint@@PAV1@I0@Z ; std::_Copy_memmove_n<CPoint *,CPoint *>
; File C:\Program Files\Microsoft Visual Studio\2022\Professional\VC\Tools\MSVC\14.44.35207\include\vector

; 1442 :             return;

  000f2	8b 45 d8	 mov	 eax, DWORD PTR _vecPoint$[ebp+8]
; File C:\Program Files\Microsoft Visual Studio\2022\Professional\VC\Tools\MSVC\14.44.35207\include\xmemory

; 1931 :             _Dest += _Count;

  000f5	8d 14 fb	 lea	 edx, DWORD PTR [ebx+edi*8]
  000f8	89 55 f0	 mov	 DWORD PTR _vecPoint$3$[ebp], edx
; File C:\Program Files\Microsoft Visual Studio\2022\Professional\VC\Tools\MSVC\14.44.35207\include\vector

; 1442 :             return;

  000fb	89 45 ec	 mov	 DWORD PTR __Bytes$1$[ebp], eax
  000fe	eb 4e		 jmp	 SHORT $LN224@GetContine
$LN85@GetContine:

; 1443 :         }
; 1444 : 
; 1445 :         const auto _Oldsize = static_cast<size_type>(_Mylast - _Myfirst);

  00100	8b c2		 mov	 eax, edx
  00102	2b c3		 sub	 eax, ebx
  00104	c1 f8 03	 sar	 eax, 3
  00107	89 45 e8	 mov	 DWORD PTR __Oldsize$1$[ebp], eax

; 1446 :         if (_Newsize > _Oldsize) {

  0010a	53		 push	 ebx
  0010b	3b f8		 cmp	 edi, eax
  0010d	76 2d		 jbe	 SHORT $LN86@GetContine

; 1447 :             bool _Copied = false;
; 1448 :             if constexpr (_Iter_copy_cat<_Iter, pointer>::_Bitcopy_assignable) {
; 1449 : #if _HAS_CXX20
; 1450 :                 if (!_STD is_constant_evaluated())
; 1451 : #endif // _HAS_CXX20
; 1452 :                 {
; 1453 :                     _Copy_memmove_n(_First, static_cast<size_t>(_Oldsize), _Myfirst);

  0010f	50		 push	 eax
  00110	ff 75 08	 push	 DWORD PTR __First$2$[ebp]
  00113	e8 00 00 00 00	 call	 ??$_Copy_memmove_n@PAVCPoint@@PAV1@@std@@YAPAVCPoint@@PAV1@I0@Z ; std::_Copy_memmove_n<CPoint *,CPoint *>

; 1454 :                     _First += _Oldsize;

  00118	8b 4d e8	 mov	 ecx, DWORD PTR __Oldsize$1$[ebp]

; 1467 :                 _Mylast = _STD _Uninitialized_copy_n(_STD move(_First), _Newsize - _Oldsize, _Mylast, _Al);

  0011b	2b f9		 sub	 edi, ecx
  0011d	8b 45 08	 mov	 eax, DWORD PTR __First$2$[ebp]
  00120	8d 04 c8	 lea	 eax, DWORD PTR [eax+ecx*8]
; File C:\Program Files\Microsoft Visual Studio\2022\Professional\VC\Tools\MSVC\14.44.35207\include\xmemory

; 1930 :             _STD _Copy_memmove_n(_UFirst, _Count, _STD _Unfancy(_Dest));

  00123	8b 4d f0	 mov	 ecx, DWORD PTR _vecPoint$3$[ebp]
  00126	51		 push	 ecx
  00127	57		 push	 edi
  00128	50		 push	 eax
  00129	e8 00 00 00 00	 call	 ??$_Copy_memmove_n@PAVCPoint@@PAV1@@std@@YAPAVCPoint@@PAV1@I0@Z ; std::_Copy_memmove_n<CPoint *,CPoint *>
; File C:\Program Files\Microsoft Visual Studio\2022\Professional\VC\Tools\MSVC\14.44.35207\include\vector

; 1467 :                 _Mylast = _STD _Uninitialized_copy_n(_STD move(_First), _Newsize - _Oldsize, _Mylast, _Al);

  0012e	8b 55 f0	 mov	 edx, DWORD PTR _vecPoint$3$[ebp]
; File C:\Program Files\Microsoft Visual Studio\2022\Professional\VC\Tools\MSVC\14.44.35207\include\xmemory

; 1930 :             _STD _Copy_memmove_n(_UFirst, _Count, _STD _Unfancy(_Dest));

  00131	83 c4 18	 add	 esp, 24			; 00000018H
; File C:\Program Files\Microsoft Visual Studio\2022\Professional\VC\Tools\MSVC\14.44.35207\include\vector

; 1467 :                 _Mylast = _STD _Uninitialized_copy_n(_STD move(_First), _Newsize - _Oldsize, _Mylast, _Al);

  00134	8d 14 fa	 lea	 edx, DWORD PTR [edx+edi*8]
  00137	89 55 f0	 mov	 DWORD PTR _vecPoint$3$[ebp], edx

; 1468 :             } else {
; 1469 :                 _ASAN_VECTOR_EXTEND_GUARD(_Newsize);
; 1470 :                 _Mylast = _STD _Uninitialized_copy_n(_STD move(_First), _Newsize - _Oldsize, _Mylast, _Al);
; 1471 :                 _ASAN_VECTOR_RELEASE_GUARD;
; 1472 :             }
; 1473 :         } else {

  0013a	eb 15		 jmp	 SHORT $LN225@GetContine
$LN86@GetContine:
; File C:\Program Files\Microsoft Visual Studio\2022\Professional\VC\Tools\MSVC\14.44.35207\include\xutility

; 4808 :             return _Copy_memmove_n(_First, static_cast<size_t>(_Count), _Dest);

  0013c	57		 push	 edi
  0013d	ff 75 08	 push	 DWORD PTR __First$2$[ebp]
; File C:\Program Files\Microsoft Visual Studio\2022\Professional\VC\Tools\MSVC\14.44.35207\include\vector

; 1474 :             const pointer _Newlast = _Myfirst + _Newsize;

  00140	8d 0c fb	 lea	 ecx, DWORD PTR [ebx+edi*8]
  00143	89 4d f0	 mov	 DWORD PTR _vecPoint$3$[ebp], ecx
; File C:\Program Files\Microsoft Visual Studio\2022\Professional\VC\Tools\MSVC\14.44.35207\include\xutility

; 4808 :             return _Copy_memmove_n(_First, static_cast<size_t>(_Count), _Dest);

  00146	e8 00 00 00 00	 call	 ??$_Copy_memmove_n@PAVCPoint@@PAV1@@std@@YAPAVCPoint@@PAV1@I0@Z ; std::_Copy_memmove_n<CPoint *,CPoint *>
; File C:\Program Files\Microsoft Visual Studio\2022\Professional\VC\Tools\MSVC\14.44.35207\include\vector

; 1478 :             _Mylast = _Newlast;

  0014b	8b 55 f0	 mov	 edx, DWORD PTR _vecPoint$3$[ebp]
$LN224@GetContine:
; File C:\IAGOS\server\v18\Source\Source\_Common\Continent.cpp

; 299  : 		if( Point_In_Poly( vecPoint, cpoint ) )

  0014e	83 c4 0c	 add	 esp, 12			; 0000000cH
$LN225@GetContine:
  00151	89 55 d4	 mov	 DWORD PTR _vecPoint$[ebp+4], edx
$LN87@GetContine:
  00154	ff 75 e4	 push	 DWORD PTR _cpoint$2$[ebp]
; File C:\Program Files\Microsoft Visual Studio\2022\Professional\VC\Tools\MSVC\14.44.35207\include\vector

; 748  :         const auto _Count       = static_cast<size_type>(_Right_data._Mylast - _Right_data._Myfirst);

  00157	8b c2		 mov	 eax, edx
; File C:\IAGOS\server\v18\Source\Source\_Common\Continent.cpp

; 299  : 		if( Point_In_Poly( vecPoint, cpoint ) )

  00159	ff 75 e0	 push	 DWORD PTR _cpoint$1$[ebp]
; File C:\Program Files\Microsoft Visual Studio\2022\Professional\VC\Tools\MSVC\14.44.35207\include\vector

; 748  :         const auto _Count       = static_cast<size_type>(_Right_data._Mylast - _Right_data._Myfirst);

  0015c	2b c3		 sub	 eax, ebx
; File C:\IAGOS\server\v18\Source\Source\_Common\Continent.cpp

; 299  : 		if( Point_In_Poly( vecPoint, cpoint ) )

  0015e	83 ec 0c	 sub	 esp, 12			; 0000000cH
; File C:\Program Files\Microsoft Visual Studio\2022\Professional\VC\Tools\MSVC\14.44.35207\include\vector

; 748  :         const auto _Count       = static_cast<size_type>(_Right_data._Mylast - _Right_data._Myfirst);

  00161	c1 f8 03	 sar	 eax, 3
  00164	89 45 08	 mov	 DWORD PTR __Count$1$[ebp], eax
; File C:\IAGOS\server\v18\Source\Source\_Common\Continent.cpp

; 299  : 		if( Point_In_Poly( vecPoint, cpoint ) )

  00167	8b fc		 mov	 edi, esp
  00169	89 7d e8	 mov	 DWORD PTR _this$1$[ebp], edi
; File C:\Program Files\Microsoft Visual Studio\2022\Professional\VC\Tools\MSVC\14.44.35207\include\vector

; 400  :     _CONSTEXPR20 _Vector_val() noexcept : _Myfirst(), _Mylast(), _Myend() {}

  0016c	c7 07 00 00 00
	00		 mov	 DWORD PTR [edi], 0
  00172	c7 47 04 00 00
	00 00		 mov	 DWORD PTR [edi+4], 0
  00179	c7 47 08 00 00
	00 00		 mov	 DWORD PTR [edi+8], 0

; 2111 :         if (_Count != 0) {

  00180	85 c0		 test	 eax, eax
  00182	74 2f		 je	 SHORT $LN159@GetContine

; 2051 :         if (_Newcapacity > max_size()) {

  00184	3d ff ff ff 1f	 cmp	 eax, 536870911		; 1fffffffH
  00189	0f 87 d1 00 00
	00		 ja	 $LN206@GetContine

; 2053 :         }
; 2054 : 
; 2055 :         _Buy_raw(_Newcapacity);

  0018f	50		 push	 eax
  00190	8b cf		 mov	 ecx, edi
  00192	e8 00 00 00 00	 call	 ?_Buy_raw@?$vector@VCPoint@@V?$allocator@VCPoint@@@std@@@std@@AAEXI@Z ; std::vector<CPoint,std::allocator<CPoint> >::_Buy_raw

; 2120 :                 _My_data._Mylast = _STD _Uninitialized_copy(_STD forward<_Valty>(_Val)..., _My_data._Myfirst, _Al);

  00197	8b 3f		 mov	 edi, DWORD PTR [edi]
; File C:\Program Files\Microsoft Visual Studio\2022\Professional\VC\Tools\MSVC\14.44.35207\include\xmemory

; 1889 :                 _STD _Copy_memmove(_STD _To_address(_UFirst), _STD _To_address(_ULast), _STD _Unfancy(_Dest));

  00199	8b 4d f0	 mov	 ecx, DWORD PTR _vecPoint$3$[ebp]
  0019c	57		 push	 edi
  0019d	51		 push	 ecx
  0019e	53		 push	 ebx
  0019f	e8 00 00 00 00	 call	 ??$_Copy_memmove@PAVCPoint@@PAV1@@std@@YAPAVCPoint@@PAV1@00@Z ; std::_Copy_memmove<CPoint *,CPoint *>

; 1890 :                 _Dest += _ULast - _UFirst;

  001a4	8b 45 08	 mov	 eax, DWORD PTR __Count$1$[ebp]
  001a7	83 c4 0c	 add	 esp, 12			; 0000000cH
; File C:\Program Files\Microsoft Visual Studio\2022\Professional\VC\Tools\MSVC\14.44.35207\include\vector

; 2120 :                 _My_data._Mylast = _STD _Uninitialized_copy(_STD forward<_Valty>(_Val)..., _My_data._Myfirst, _Al);

  001aa	8b 4d e8	 mov	 ecx, DWORD PTR _this$1$[ebp]
; File C:\Program Files\Microsoft Visual Studio\2022\Professional\VC\Tools\MSVC\14.44.35207\include\xmemory

; 1890 :                 _Dest += _ULast - _UFirst;

  001ad	8d 04 c7	 lea	 eax, DWORD PTR [edi+eax*8]
; File C:\Program Files\Microsoft Visual Studio\2022\Professional\VC\Tools\MSVC\14.44.35207\include\vector

; 2120 :                 _My_data._Mylast = _STD _Uninitialized_copy(_STD forward<_Valty>(_Val)..., _My_data._Myfirst, _Al);

  001b0	89 41 04	 mov	 DWORD PTR [ecx+4], eax
$LN159@GetContine:
; File C:\IAGOS\server\v18\Source\Source\_Common\Continent.cpp

; 299  : 		if( Point_In_Poly( vecPoint, cpoint ) )

  001b3	8b 7d dc	 mov	 edi, DWORD PTR _this$1$[ebp]
  001b6	8b cf		 mov	 ecx, edi
  001b8	e8 00 00 00 00	 call	 ?Point_In_Poly@CContinent@@AAEHV?$vector@VCPoint@@V?$allocator@VCPoint@@@std@@@std@@VCPoint@@@Z ; CContinent::Point_In_Poly
  001bd	85 c0		 test	 eax, eax
  001bf	75 4c		 jne	 SHORT $LN207@GetContine
; File C:\Program Files\Microsoft Visual Studio\2022\Professional\VC\Tools\MSVC\14.44.35207\include\xtree

; 50   :         if (_Ptr->_Right->_Isnil) { // climb looking for right subtree

  001c1	8b 46 08	 mov	 eax, DWORD PTR [esi+8]
  001c4	80 78 0d 00	 cmp	 BYTE PTR [eax+13], 0
  001c8	74 1d		 je	 SHORT $LN42@GetContine

; 51   :             _Nodeptr _Pnode;
; 52   :             while (!(_Pnode = _Ptr->_Parent)->_Isnil && _Ptr == _Pnode->_Right) {

  001ca	8b 46 04	 mov	 eax, DWORD PTR [esi+4]
  001cd	80 78 0d 00	 cmp	 BYTE PTR [eax+13], 0
  001d1	75 10		 jne	 SHORT $LN221@GetContine
$LL40@GetContine:
  001d3	3b 70 08	 cmp	 esi, DWORD PTR [eax+8]
  001d6	75 0b		 jne	 SHORT $LN221@GetContine

; 53   :                 _Ptr = _Pnode; // ==> parent while right subtree

  001d8	8b f0		 mov	 esi, eax
  001da	8b 40 04	 mov	 eax, DWORD PTR [eax+4]
  001dd	80 78 0d 00	 cmp	 BYTE PTR [eax+13], 0
  001e1	74 f0		 je	 SHORT $LL40@GetContine
$LN221@GetContine:

; 54   :             }
; 55   : 
; 56   :             _Ptr = _Pnode; // ==> parent (head if end())

  001e3	8b f0		 mov	 esi, eax

; 57   :         } else {

  001e5	eb 16		 jmp	 SHORT $LN48@GetContine
$LN42@GetContine:

; 58   :             _Ptr = _Mytree::_Min(_Ptr->_Right); // ==> smallest of right subtree

  001e7	8b f0		 mov	 esi, eax

; 476  :         while (!_Pnode->_Left->_Isnil) {

  001e9	8b 0e		 mov	 ecx, DWORD PTR [esi]
  001eb	80 79 0d 00	 cmp	 BYTE PTR [ecx+13], 0
  001ef	75 0c		 jne	 SHORT $LN48@GetContine
$LL47@GetContine:
  001f1	8b 01		 mov	 eax, DWORD PTR [ecx]

; 477  :             _Pnode = _Pnode->_Left;

  001f3	8b f1		 mov	 esi, ecx
  001f5	8b c8		 mov	 ecx, eax
  001f7	80 78 0d 00	 cmp	 BYTE PTR [eax+13], 0
  001fb	74 f4		 je	 SHORT $LL47@GetContine
$LN48@GetContine:

; 237  :         return !(*this == _Right);

  001fd	3b 77 04	 cmp	 esi, DWORD PTR [edi+4]
; File C:\IAGOS\server\v18\Source\Source\_Common\Continent.cpp

; 296  : 	for( map< BYTE, vector<CPoint> >::iterator iter = m_MapCont.begin(); iter != m_MapCont.end(); ++iter )

  00200	74 13		 je	 SHORT $LN3@GetContine
  00202	8b 55 f0	 mov	 edx, DWORD PTR _vecPoint$3$[ebp]
  00205	8b 4d ec	 mov	 ecx, DWORD PTR __Bytes$1$[ebp]
  00208	e9 57 fe ff ff	 jmp	 $LL4@GetContine
$LN207@GetContine:
  0020d	8a 46 10	 mov	 al, BYTE PTR [esi+16]
  00210	88 45 0b	 mov	 BYTE PTR $T3[ebp], al
  00213	eb 04		 jmp	 SHORT $LN9@GetContine
$LN3@GetContine:

; 303  : 	return CONT_NODATA;

  00215	c6 45 0b 00	 mov	 BYTE PTR $T3[ebp], 0
$LN9@GetContine:
; File C:\Program Files\Microsoft Visual Studio\2022\Professional\VC\Tools\MSVC\14.44.35207\include\vector

; 2090 :         if (_Myfirst) { // destroy and deallocate old array

  00219	85 db		 test	 ebx, ebx
  0021b	74 2c		 je	 SHORT $LN183@GetContine

; 2093 :             _Al.deallocate(_Myfirst, static_cast<size_type>(_Myend - _Myfirst));

  0021d	8b 4d ec	 mov	 ecx, DWORD PTR __Bytes$1$[ebp]
; File C:\Program Files\Microsoft Visual Studio\2022\Professional\VC\Tools\MSVC\14.44.35207\include\xmemory

; 985  :         _STD _Deallocate<_New_alignof<_Ty>>(_Ptr, sizeof(_Ty) * _Count);

  00220	8b c3		 mov	 eax, ebx
; File C:\Program Files\Microsoft Visual Studio\2022\Professional\VC\Tools\MSVC\14.44.35207\include\vector

; 2093 :             _Al.deallocate(_Myfirst, static_cast<size_type>(_Myend - _Myfirst));

  00222	2b cb		 sub	 ecx, ebx
; File C:\Program Files\Microsoft Visual Studio\2022\Professional\VC\Tools\MSVC\14.44.35207\include\xmemory

; 985  :         _STD _Deallocate<_New_alignof<_Ty>>(_Ptr, sizeof(_Ty) * _Count);

  00224	83 e1 f8	 and	 ecx, -8			; fffffff8H

; 284  :         if (_Bytes >= _Big_allocation_threshold) {

  00227	81 f9 00 10 00
	00		 cmp	 ecx, 4096		; 00001000H
  0022d	72 10		 jb	 SHORT $LN196@GetContine

; 205  :     const uintptr_t _Ptr_container   = _Ptr_user[-1];

  0022f	8b 58 fc	 mov	 ebx, DWORD PTR [eax-4]
  00232	83 c1 23	 add	 ecx, 35			; 00000023H
  00235	2b c3		 sub	 eax, ebx

; 219  :     _STL_VERIFY(_Back_shift >= _Min_back_shift && _Back_shift <= _Non_user_size, "invalid argument");

  00237	83 c0 fc	 add	 eax, -4			; fffffffcH
  0023a	83 f8 1f	 cmp	 eax, 31			; 0000001fH
  0023d	77 26		 ja	 SHORT $LN227@GetContine
$LN196@GetContine:

; 289  :         ::operator delete(_Ptr, _Bytes);

  0023f	51		 push	 ecx
  00240	53		 push	 ebx
  00241	e8 00 00 00 00	 call	 ??3@YAXPAXI@Z		; operator delete
  00246	83 c4 08	 add	 esp, 8
$LN183@GetContine:
; File C:\IAGOS\server\v18\Source\Source\_Common\Continent.cpp

; 303  : 	return CONT_NODATA;

  00249	8a 45 0b	 mov	 al, BYTE PTR $T3[ebp]

; 304  : }

  0024c	8b 4d f4	 mov	 ecx, DWORD PTR __$EHRec$[ebp]
  0024f	64 89 0d 00 00
	00 00		 mov	 DWORD PTR fs:0, ecx
  00256	59		 pop	 ecx
  00257	5f		 pop	 edi
  00258	5e		 pop	 esi
  00259	5b		 pop	 ebx
  0025a	8b e5		 mov	 esp, ebp
  0025c	5d		 pop	 ebp
  0025d	c2 04 00	 ret	 4
$LN206@GetContine:
; File C:\Program Files\Microsoft Visual Studio\2022\Professional\VC\Tools\MSVC\14.44.35207\include\vector

; 2052 :             _Xlength();

  00260	e8 00 00 00 00	 call	 ?_Xlength@?$vector@VCPoint@@V?$allocator@VCPoint@@@std@@@std@@CAXXZ ; std::vector<CPoint,std::allocator<CPoint> >::_Xlength
$LN227@GetContine:
; File C:\Program Files\Microsoft Visual Studio\2022\Professional\VC\Tools\MSVC\14.44.35207\include\xmemory

; 219  :     _STL_VERIFY(_Back_shift >= _Min_back_shift && _Back_shift <= _Non_user_size, "invalid argument");

  00265	6a 00		 push	 0
  00267	6a 00		 push	 0
  00269	6a 00		 push	 0
  0026b	6a 00		 push	 0
  0026d	6a 00		 push	 0
  0026f	e8 00 00 00 00	 call	 __invoke_watson
$LN223@GetContine:
  00274	cc		 int	 3
_TEXT	ENDS
;	COMDAT text$x
text$x	SEGMENT
__unwindfunclet$?GetContinent@CContinent@@QAEEABUD3DXVECTOR3@@@Z$0:
  00000	8d 4d d0	 lea	 ecx, DWORD PTR _vecPoint$[ebp]
  00003	e9 00 00 00 00	 jmp	 ??1?$vector@VCPoint@@V?$allocator@VCPoint@@@std@@@std@@QAE@XZ ; std::vector<CPoint,std::allocator<CPoint> >::~vector<CPoint,std::allocator<CPoint> >
  00008	cc		 int	 3
  00009	cc		 int	 3
  0000a	cc		 int	 3
  0000b	cc		 int	 3
  0000c	cc		 int	 3
__ehhandler$?GetContinent@CContinent@@QAEEABUD3DXVECTOR3@@@Z:
  0000d	90		 npad	 1
  0000e	90		 npad	 1
  0000f	8b 54 24 08	 mov	 edx, DWORD PTR [esp+8]
  00013	8d 42 0c	 lea	 eax, DWORD PTR [edx+12]
  00016	8b 4a cc	 mov	 ecx, DWORD PTR [edx-52]
  00019	33 c8		 xor	 ecx, eax
  0001b	e8 00 00 00 00	 call	 @__security_check_cookie@4
  00020	b8 00 00 00 00	 mov	 eax, OFFSET __ehfuncinfo$?GetContinent@CContinent@@QAEEABUD3DXVECTOR3@@@Z
  00025	e9 00 00 00 00	 jmp	 ___CxxFrameHandler3
text$x	ENDS
?GetContinent@CContinent@@QAEEABUD3DXVECTOR3@@@Z ENDP	; CContinent::GetContinent
; Function compile flags: /Ogtp
; File C:\IAGOS\server\v18\Source\Source\_Common\Continent.cpp
;	COMDAT ?GetContinentIndex@CContinent@@QAEHPBD@Z
_TEXT	SEGMENT
_continentName$ = 8					; size = 4
?GetContinentIndex@CContinent@@QAEHPBD@Z PROC		; CContinent::GetContinentIndex, COMDAT
; _this$ = ecx

; 444  : {

  00000	55		 push	 ebp
  00001	8b ec		 mov	 ebp, esp
  00003	56		 push	 esi

; 445  : 	if( strcmp( "Flaris", continentName ) == 0 )

  00004	8b 75 08	 mov	 esi, DWORD PTR _continentName$[ebp]
  00007	b8 00 00 00 00	 mov	 eax, OFFSET ??_C@_06BMAOEDJD@Flaris@
  0000c	8b ce		 mov	 ecx, esi
  0000e	66 90		 npad	 2
$LL36@GetContine:
  00010	8a 10		 mov	 dl, BYTE PTR [eax]
  00012	3a 11		 cmp	 dl, BYTE PTR [ecx]
  00014	75 1a		 jne	 SHORT $LN37@GetContine
  00016	84 d2		 test	 dl, dl
  00018	74 12		 je	 SHORT $LN38@GetContine
  0001a	8a 50 01	 mov	 dl, BYTE PTR [eax+1]
  0001d	3a 51 01	 cmp	 dl, BYTE PTR [ecx+1]
  00020	75 0e		 jne	 SHORT $LN37@GetContine
  00022	83 c0 02	 add	 eax, 2
  00025	83 c1 02	 add	 ecx, 2
  00028	84 d2		 test	 dl, dl
  0002a	75 e4		 jne	 SHORT $LL36@GetContine
$LN38@GetContine:
  0002c	33 c0		 xor	 eax, eax
  0002e	eb 05		 jmp	 SHORT $LN39@GetContine
$LN37@GetContine:
  00030	1b c0		 sbb	 eax, eax
  00032	83 c8 01	 or	 eax, 1
$LN39@GetContine:
  00035	85 c0		 test	 eax, eax
  00037	75 0a		 jne	 SHORT $LN2@GetContine

; 446  : 	{
; 447  : 		return CONT_FLARIS;

  00039	b8 01 00 00 00	 mov	 eax, 1
  0003e	5e		 pop	 esi

; 507  : 	}
; 508  : #endif
; 509  : 	return CONT_NODATA;
; 510  : }

  0003f	5d		 pop	 ebp
  00040	c2 04 00	 ret	 4
$LN2@GetContine:

; 448  : 	}
; 449  : 	else if (strcmp("Saint", continentName) == 0)

  00043	8b ce		 mov	 ecx, esi
  00045	b8 00 00 00 00	 mov	 eax, OFFSET ??_C@_05CPEBJIKJ@Saint@
  0004a	66 0f 1f 44 00
	00		 npad	 6
$LL40@GetContine:
  00050	8a 10		 mov	 dl, BYTE PTR [eax]
  00052	3a 11		 cmp	 dl, BYTE PTR [ecx]
  00054	75 1a		 jne	 SHORT $LN41@GetContine
  00056	84 d2		 test	 dl, dl
  00058	74 12		 je	 SHORT $LN42@GetContine
  0005a	8a 50 01	 mov	 dl, BYTE PTR [eax+1]
  0005d	3a 51 01	 cmp	 dl, BYTE PTR [ecx+1]
  00060	75 0e		 jne	 SHORT $LN41@GetContine
  00062	83 c0 02	 add	 eax, 2
  00065	83 c1 02	 add	 ecx, 2
  00068	84 d2		 test	 dl, dl
  0006a	75 e4		 jne	 SHORT $LL40@GetContine
$LN42@GetContine:
  0006c	33 c0		 xor	 eax, eax
  0006e	eb 05		 jmp	 SHORT $LN43@GetContine
$LN41@GetContine:
  00070	1b c0		 sbb	 eax, eax
  00072	83 c8 01	 or	 eax, 1
$LN43@GetContine:
  00075	85 c0		 test	 eax, eax
  00077	75 0a		 jne	 SHORT $LN4@GetContine

; 450  : 	{
; 451  : 		return CONT_SAINTMORNING;

  00079	b8 02 00 00 00	 mov	 eax, 2
  0007e	5e		 pop	 esi

; 507  : 	}
; 508  : #endif
; 509  : 	return CONT_NODATA;
; 510  : }

  0007f	5d		 pop	 ebp
  00080	c2 04 00	 ret	 4
$LN4@GetContine:

; 452  : 	}
; 453  : 	else if (strcmp("Ricis", continentName) == 0)

  00083	8b ce		 mov	 ecx, esi
  00085	b8 00 00 00 00	 mov	 eax, OFFSET ??_C@_05PBNOGAOL@Ricis@
  0008a	66 0f 1f 44 00
	00		 npad	 6
$LL44@GetContine:
  00090	8a 10		 mov	 dl, BYTE PTR [eax]
  00092	3a 11		 cmp	 dl, BYTE PTR [ecx]
  00094	75 1a		 jne	 SHORT $LN45@GetContine
  00096	84 d2		 test	 dl, dl
  00098	74 12		 je	 SHORT $LN46@GetContine
  0009a	8a 50 01	 mov	 dl, BYTE PTR [eax+1]
  0009d	3a 51 01	 cmp	 dl, BYTE PTR [ecx+1]
  000a0	75 0e		 jne	 SHORT $LN45@GetContine
  000a2	83 c0 02	 add	 eax, 2
  000a5	83 c1 02	 add	 ecx, 2
  000a8	84 d2		 test	 dl, dl
  000aa	75 e4		 jne	 SHORT $LL44@GetContine
$LN46@GetContine:
  000ac	33 c0		 xor	 eax, eax
  000ae	eb 05		 jmp	 SHORT $LN47@GetContine
$LN45@GetContine:
  000b0	1b c0		 sbb	 eax, eax
  000b2	83 c8 01	 or	 eax, 1
$LN47@GetContine:
  000b5	85 c0		 test	 eax, eax
  000b7	75 0a		 jne	 SHORT $LN6@GetContine

; 454  : 	{
; 455  : 		return CONT_RICIS;

  000b9	b8 03 00 00 00	 mov	 eax, 3
  000be	5e		 pop	 esi

; 507  : 	}
; 508  : #endif
; 509  : 	return CONT_NODATA;
; 510  : }

  000bf	5d		 pop	 ebp
  000c0	c2 04 00	 ret	 4
$LN6@GetContine:

; 456  : 	}
; 457  : 	else if (strcmp("Darkon12", continentName) == 0)

  000c3	8b ce		 mov	 ecx, esi
  000c5	b8 00 00 00 00	 mov	 eax, OFFSET ??_C@_08JHEPJMJO@Darkon12@
  000ca	66 0f 1f 44 00
	00		 npad	 6
$LL48@GetContine:
  000d0	8a 10		 mov	 dl, BYTE PTR [eax]
  000d2	3a 11		 cmp	 dl, BYTE PTR [ecx]
  000d4	75 1a		 jne	 SHORT $LN49@GetContine
  000d6	84 d2		 test	 dl, dl
  000d8	74 12		 je	 SHORT $LN50@GetContine
  000da	8a 50 01	 mov	 dl, BYTE PTR [eax+1]
  000dd	3a 51 01	 cmp	 dl, BYTE PTR [ecx+1]
  000e0	75 0e		 jne	 SHORT $LN49@GetContine
  000e2	83 c0 02	 add	 eax, 2
  000e5	83 c1 02	 add	 ecx, 2
  000e8	84 d2		 test	 dl, dl
  000ea	75 e4		 jne	 SHORT $LL48@GetContine
$LN50@GetContine:
  000ec	33 c0		 xor	 eax, eax
  000ee	eb 05		 jmp	 SHORT $LN51@GetContine
$LN49@GetContine:
  000f0	1b c0		 sbb	 eax, eax
  000f2	83 c8 01	 or	 eax, 1
$LN51@GetContine:
  000f5	85 c0		 test	 eax, eax
  000f7	75 0a		 jne	 SHORT $LN8@GetContine

; 458  : 	{
; 459  : 		return CONT_DARKON12;

  000f9	b8 f1 00 00 00	 mov	 eax, 241		; 000000f1H
  000fe	5e		 pop	 esi

; 507  : 	}
; 508  : #endif
; 509  : 	return CONT_NODATA;
; 510  : }

  000ff	5d		 pop	 ebp
  00100	c2 04 00	 ret	 4
$LN8@GetContine:

; 460  : 	}
; 461  : 	else if (strcmp("Darkon3", continentName) == 0)

  00103	8b ce		 mov	 ecx, esi
  00105	b8 00 00 00 00	 mov	 eax, OFFSET ??_C@_07GHKECFAJ@Darkon3@
  0010a	66 0f 1f 44 00
	00		 npad	 6
$LL52@GetContine:
  00110	8a 10		 mov	 dl, BYTE PTR [eax]
  00112	3a 11		 cmp	 dl, BYTE PTR [ecx]
  00114	75 1a		 jne	 SHORT $LN53@GetContine
  00116	84 d2		 test	 dl, dl
  00118	74 12		 je	 SHORT $LN54@GetContine
  0011a	8a 50 01	 mov	 dl, BYTE PTR [eax+1]
  0011d	3a 51 01	 cmp	 dl, BYTE PTR [ecx+1]
  00120	75 0e		 jne	 SHORT $LN53@GetContine
  00122	83 c0 02	 add	 eax, 2
  00125	83 c1 02	 add	 ecx, 2
  00128	84 d2		 test	 dl, dl
  0012a	75 e4		 jne	 SHORT $LL52@GetContine
$LN54@GetContine:
  0012c	33 c0		 xor	 eax, eax
  0012e	eb 05		 jmp	 SHORT $LN55@GetContine
$LN53@GetContine:
  00130	1b c0		 sbb	 eax, eax
  00132	83 c8 01	 or	 eax, 1
$LN55@GetContine:
  00135	85 c0		 test	 eax, eax
  00137	75 0a		 jne	 SHORT $LN10@GetContine

; 462  : 	{
; 463  : 		return CONT_DARKON3;

  00139	b8 f2 00 00 00	 mov	 eax, 242		; 000000f2H
  0013e	5e		 pop	 esi

; 507  : 	}
; 508  : #endif
; 509  : 	return CONT_NODATA;
; 510  : }

  0013f	5d		 pop	 ebp
  00140	c2 04 00	 ret	 4
$LN10@GetContine:

; 464  : 	}
; 465  : 	else if (strcmp("Harmonin", continentName) == 0)

  00143	8b ce		 mov	 ecx, esi
  00145	b8 00 00 00 00	 mov	 eax, OFFSET ??_C@_08NDIDOBMH@Harmonin@
  0014a	66 0f 1f 44 00
	00		 npad	 6
$LL56@GetContine:
  00150	8a 10		 mov	 dl, BYTE PTR [eax]
  00152	3a 11		 cmp	 dl, BYTE PTR [ecx]
  00154	75 1a		 jne	 SHORT $LN57@GetContine
  00156	84 d2		 test	 dl, dl
  00158	74 12		 je	 SHORT $LN58@GetContine
  0015a	8a 50 01	 mov	 dl, BYTE PTR [eax+1]
  0015d	3a 51 01	 cmp	 dl, BYTE PTR [ecx+1]
  00160	75 0e		 jne	 SHORT $LN57@GetContine
  00162	83 c0 02	 add	 eax, 2
  00165	83 c1 02	 add	 ecx, 2
  00168	84 d2		 test	 dl, dl
  0016a	75 e4		 jne	 SHORT $LL56@GetContine
$LN58@GetContine:
  0016c	33 c0		 xor	 eax, eax
  0016e	eb 05		 jmp	 SHORT $LN59@GetContine
$LN57@GetContine:
  00170	1b c0		 sbb	 eax, eax
  00172	83 c8 01	 or	 eax, 1
$LN59@GetContine:
  00175	85 c0		 test	 eax, eax
  00177	75 0a		 jne	 SHORT $LN12@GetContine

; 466  : 	{
; 467  : 		return CONT_HARMONIN;

  00179	b8 f3 00 00 00	 mov	 eax, 243		; 000000f3H
  0017e	5e		 pop	 esi

; 507  : 	}
; 508  : #endif
; 509  : 	return CONT_NODATA;
; 510  : }

  0017f	5d		 pop	 ebp
  00180	c2 04 00	 ret	 4
$LN12@GetContine:

; 468  : 	}
; 469  : 	else if (strcmp("Estia_envir", continentName) == 0)

  00183	8b ce		 mov	 ecx, esi
  00185	b8 00 00 00 00	 mov	 eax, OFFSET ??_C@_0M@OHPEKFLK@Estia_envir@
  0018a	66 0f 1f 44 00
	00		 npad	 6
$LL60@GetContine:
  00190	8a 10		 mov	 dl, BYTE PTR [eax]
  00192	3a 11		 cmp	 dl, BYTE PTR [ecx]
  00194	75 1a		 jne	 SHORT $LN61@GetContine
  00196	84 d2		 test	 dl, dl
  00198	74 12		 je	 SHORT $LN62@GetContine
  0019a	8a 50 01	 mov	 dl, BYTE PTR [eax+1]
  0019d	3a 51 01	 cmp	 dl, BYTE PTR [ecx+1]
  001a0	75 0e		 jne	 SHORT $LN61@GetContine
  001a2	83 c0 02	 add	 eax, 2
  001a5	83 c1 02	 add	 ecx, 2
  001a8	84 d2		 test	 dl, dl
  001aa	75 e4		 jne	 SHORT $LL60@GetContine
$LN62@GetContine:
  001ac	33 c0		 xor	 eax, eax
  001ae	eb 05		 jmp	 SHORT $LN63@GetContine
$LN61@GetContine:
  001b0	1b c0		 sbb	 eax, eax
  001b2	83 c8 01	 or	 eax, 1
$LN63@GetContine:
  001b5	85 c0		 test	 eax, eax
  001b7	0f 84 f2 01 00
	00		 je	 $LN34@GetContine

; 470  : 	{
; 471  : 		return CONT_ESTIA;
; 472  : 	}
; 473  : 	else if (strcmp("Estia", continentName) == 0)

  001bd	8b ce		 mov	 ecx, esi
  001bf	b8 00 00 00 00	 mov	 eax, OFFSET ??_C@_05HAGHMCBO@Estia@
$LL64@GetContine:
  001c4	8a 10		 mov	 dl, BYTE PTR [eax]
  001c6	3a 11		 cmp	 dl, BYTE PTR [ecx]
  001c8	75 1a		 jne	 SHORT $LN65@GetContine
  001ca	84 d2		 test	 dl, dl
  001cc	74 12		 je	 SHORT $LN66@GetContine
  001ce	8a 50 01	 mov	 dl, BYTE PTR [eax+1]
  001d1	3a 51 01	 cmp	 dl, BYTE PTR [ecx+1]
  001d4	75 0e		 jne	 SHORT $LN65@GetContine
  001d6	83 c0 02	 add	 eax, 2
  001d9	83 c1 02	 add	 ecx, 2
  001dc	84 d2		 test	 dl, dl
  001de	75 e4		 jne	 SHORT $LL64@GetContine
$LN66@GetContine:
  001e0	33 c0		 xor	 eax, eax
  001e2	eb 05		 jmp	 SHORT $LN67@GetContine
$LN65@GetContine:
  001e4	1b c0		 sbb	 eax, eax
  001e6	83 c8 01	 or	 eax, 1
$LN67@GetContine:
  001e9	85 c0		 test	 eax, eax
  001eb	0f 84 be 01 00
	00		 je	 $LN34@GetContine

; 476  : 	}
; 477  : 	else if (strcmp("Darken", continentName) == 0)

  001f1	8b ce		 mov	 ecx, esi
  001f3	b8 00 00 00 00	 mov	 eax, OFFSET ??_C@_06MLCICBFL@Darken@
$LL68@GetContine:
  001f8	8a 10		 mov	 dl, BYTE PTR [eax]
  001fa	3a 11		 cmp	 dl, BYTE PTR [ecx]
  001fc	75 1a		 jne	 SHORT $LN69@GetContine
  001fe	84 d2		 test	 dl, dl
  00200	74 12		 je	 SHORT $LN70@GetContine
  00202	8a 50 01	 mov	 dl, BYTE PTR [eax+1]
  00205	3a 51 01	 cmp	 dl, BYTE PTR [ecx+1]
  00208	75 0e		 jne	 SHORT $LN69@GetContine
  0020a	83 c0 02	 add	 eax, 2
  0020d	83 c1 02	 add	 ecx, 2
  00210	84 d2		 test	 dl, dl
  00212	75 e4		 jne	 SHORT $LL68@GetContine
$LN70@GetContine:
  00214	33 c0		 xor	 eax, eax
  00216	eb 05		 jmp	 SHORT $LN71@GetContine
$LN69@GetContine:
  00218	1b c0		 sbb	 eax, eax
  0021a	83 c8 01	 or	 eax, 1
$LN71@GetContine:
  0021d	85 c0		 test	 eax, eax
  0021f	75 0a		 jne	 SHORT $LN18@GetContine

; 478  : 	{
; 479  : 		return TOWN_DARKEN;

  00221	b8 34 00 00 00	 mov	 eax, 52			; 00000034H
  00226	5e		 pop	 esi

; 507  : 	}
; 508  : #endif
; 509  : 	return CONT_NODATA;
; 510  : }

  00227	5d		 pop	 ebp
  00228	c2 04 00	 ret	 4
$LN18@GetContine:

; 480  : 	}
; 481  : 	else if (strcmp("Flarinenosple", continentName) == 0)

  0022b	8b ce		 mov	 ecx, esi
  0022d	b8 00 00 00 00	 mov	 eax, OFFSET ??_C@_0O@JJLGFEMO@Flarinenosple@
$LL72@GetContine:
  00232	8a 10		 mov	 dl, BYTE PTR [eax]
  00234	3a 11		 cmp	 dl, BYTE PTR [ecx]
  00236	75 1a		 jne	 SHORT $LN73@GetContine
  00238	84 d2		 test	 dl, dl
  0023a	74 12		 je	 SHORT $LN74@GetContine
  0023c	8a 50 01	 mov	 dl, BYTE PTR [eax+1]
  0023f	3a 51 01	 cmp	 dl, BYTE PTR [ecx+1]
  00242	75 0e		 jne	 SHORT $LN73@GetContine
  00244	83 c0 02	 add	 eax, 2
  00247	83 c1 02	 add	 ecx, 2
  0024a	84 d2		 test	 dl, dl
  0024c	75 e4		 jne	 SHORT $LL72@GetContine
$LN74@GetContine:
  0024e	33 c0		 xor	 eax, eax
  00250	eb 05		 jmp	 SHORT $LN75@GetContine
$LN73@GetContine:
  00252	1b c0		 sbb	 eax, eax
  00254	83 c8 01	 or	 eax, 1
$LN75@GetContine:
  00257	85 c0		 test	 eax, eax
  00259	75 0a		 jne	 SHORT $LN20@GetContine

; 482  : 	{
; 483  : 		return TOWN_FLARINENOSPLE;

  0025b	b8 32 00 00 00	 mov	 eax, 50			; 00000032H
  00260	5e		 pop	 esi

; 507  : 	}
; 508  : #endif
; 509  : 	return CONT_NODATA;
; 510  : }

  00261	5d		 pop	 ebp
  00262	c2 04 00	 ret	 4
$LN20@GetContine:

; 484  : 	}
; 485  : 	else if (strcmp("Saincity", continentName) == 0)

  00265	8b ce		 mov	 ecx, esi
  00267	b8 00 00 00 00	 mov	 eax, OFFSET ??_C@_08FHABOGPM@Saincity@
  0026c	0f 1f 40 00	 npad	 4
$LL76@GetContine:
  00270	8a 10		 mov	 dl, BYTE PTR [eax]
  00272	3a 11		 cmp	 dl, BYTE PTR [ecx]
  00274	75 1a		 jne	 SHORT $LN77@GetContine
  00276	84 d2		 test	 dl, dl
  00278	74 12		 je	 SHORT $LN78@GetContine
  0027a	8a 50 01	 mov	 dl, BYTE PTR [eax+1]
  0027d	3a 51 01	 cmp	 dl, BYTE PTR [ecx+1]
  00280	75 0e		 jne	 SHORT $LN77@GetContine
  00282	83 c0 02	 add	 eax, 2
  00285	83 c1 02	 add	 ecx, 2
  00288	84 d2		 test	 dl, dl
  0028a	75 e4		 jne	 SHORT $LL76@GetContine
$LN78@GetContine:
  0028c	33 c0		 xor	 eax, eax
  0028e	eb 05		 jmp	 SHORT $LN79@GetContine
$LN77@GetContine:
  00290	1b c0		 sbb	 eax, eax
  00292	83 c8 01	 or	 eax, 1
$LN79@GetContine:
  00295	85 c0		 test	 eax, eax
  00297	75 0a		 jne	 SHORT $LN22@GetContine

; 486  : 	{
; 487  : 		return TOWN_SAINCITY;

  00299	b8 33 00 00 00	 mov	 eax, 51			; 00000033H
  0029e	5e		 pop	 esi

; 507  : 	}
; 508  : #endif
; 509  : 	return CONT_NODATA;
; 510  : }

  0029f	5d		 pop	 ebp
  002a0	c2 04 00	 ret	 4
$LN22@GetContine:

; 488  : 	}
; 489  : #if __VER >= 16
; 490  : 	else if (strcmp("Kaillun", continentName) == 0)

  002a3	8b ce		 mov	 ecx, esi
  002a5	b8 00 00 00 00	 mov	 eax, OFFSET ??_C@_07GIGGNJIL@Kaillun@
  002aa	66 0f 1f 44 00
	00		 npad	 6
$LL80@GetContine:
  002b0	8a 10		 mov	 dl, BYTE PTR [eax]
  002b2	3a 11		 cmp	 dl, BYTE PTR [ecx]
  002b4	75 1a		 jne	 SHORT $LN81@GetContine
  002b6	84 d2		 test	 dl, dl
  002b8	74 12		 je	 SHORT $LN82@GetContine
  002ba	8a 50 01	 mov	 dl, BYTE PTR [eax+1]
  002bd	3a 51 01	 cmp	 dl, BYTE PTR [ecx+1]
  002c0	75 0e		 jne	 SHORT $LN81@GetContine
  002c2	83 c0 02	 add	 eax, 2
  002c5	83 c1 02	 add	 ecx, 2
  002c8	84 d2		 test	 dl, dl
  002ca	75 e4		 jne	 SHORT $LL80@GetContine
$LN82@GetContine:
  002cc	33 c0		 xor	 eax, eax
  002ce	eb 05		 jmp	 SHORT $LN83@GetContine
$LN81@GetContine:
  002d0	1b c0		 sbb	 eax, eax
  002d2	83 c8 01	 or	 eax, 1
$LN83@GetContine:
  002d5	85 c0		 test	 eax, eax
  002d7	75 0a		 jne	 SHORT $LN24@GetContine

; 491  : 	{
; 492  : 		return CONT_KAILLUN;

  002d9	b8 f4 00 00 00	 mov	 eax, 244		; 000000f4H
  002de	5e		 pop	 esi

; 507  : 	}
; 508  : #endif
; 509  : 	return CONT_NODATA;
; 510  : }

  002df	5d		 pop	 ebp
  002e0	c2 04 00	 ret	 4
$LN24@GetContine:

; 493  : 	}
; 494  : 	else if (strcmp("Eliun", continentName) == 0)

  002e3	8b ce		 mov	 ecx, esi
  002e5	b8 00 00 00 00	 mov	 eax, OFFSET ??_C@_05KCAAALNE@Eliun@
  002ea	66 0f 1f 44 00
	00		 npad	 6
$LL84@GetContine:
  002f0	8a 10		 mov	 dl, BYTE PTR [eax]
  002f2	3a 11		 cmp	 dl, BYTE PTR [ecx]
  002f4	75 1a		 jne	 SHORT $LN85@GetContine
  002f6	84 d2		 test	 dl, dl
  002f8	74 12		 je	 SHORT $LN86@GetContine
  002fa	8a 50 01	 mov	 dl, BYTE PTR [eax+1]
  002fd	3a 51 01	 cmp	 dl, BYTE PTR [ecx+1]
  00300	75 0e		 jne	 SHORT $LN85@GetContine
  00302	83 c0 02	 add	 eax, 2
  00305	83 c1 02	 add	 ecx, 2
  00308	84 d2		 test	 dl, dl
  0030a	75 e4		 jne	 SHORT $LL84@GetContine
$LN86@GetContine:
  0030c	33 c0		 xor	 eax, eax
  0030e	eb 05		 jmp	 SHORT $LN87@GetContine
$LN85@GetContine:
  00310	1b c0		 sbb	 eax, eax
  00312	83 c8 01	 or	 eax, 1
$LN87@GetContine:
  00315	85 c0		 test	 eax, eax
  00317	75 0a		 jne	 SHORT $LN26@GetContine

; 495  : 	{
; 496  : 		return TOWN_ELIUN;

  00319	b8 35 00 00 00	 mov	 eax, 53			; 00000035H
  0031e	5e		 pop	 esi

; 507  : 	}
; 508  : #endif
; 509  : 	return CONT_NODATA;
; 510  : }

  0031f	5d		 pop	 ebp
  00320	c2 04 00	 ret	 4
$LN26@GetContine:

; 497  : 	}
; 498  : #endif
; 499  : #if __VER >= 17
; 500  : 	else if (strcmp("Bahara", continentName) == 0)

  00323	8b ce		 mov	 ecx, esi
  00325	b8 00 00 00 00	 mov	 eax, OFFSET ??_C@_06HDOENCBM@Bahara@
  0032a	66 0f 1f 44 00
	00		 npad	 6
$LL88@GetContine:
  00330	8a 10		 mov	 dl, BYTE PTR [eax]
  00332	3a 11		 cmp	 dl, BYTE PTR [ecx]
  00334	75 1a		 jne	 SHORT $LN89@GetContine
  00336	84 d2		 test	 dl, dl
  00338	74 12		 je	 SHORT $LN90@GetContine
  0033a	8a 50 01	 mov	 dl, BYTE PTR [eax+1]
  0033d	3a 51 01	 cmp	 dl, BYTE PTR [ecx+1]
  00340	75 0e		 jne	 SHORT $LN89@GetContine
  00342	83 c0 02	 add	 eax, 2
  00345	83 c1 02	 add	 ecx, 2
  00348	84 d2		 test	 dl, dl
  0034a	75 e4		 jne	 SHORT $LL88@GetContine
$LN90@GetContine:
  0034c	33 c0		 xor	 eax, eax
  0034e	eb 05		 jmp	 SHORT $LN91@GetContine
$LN89@GetContine:
  00350	1b c0		 sbb	 eax, eax
  00352	83 c8 01	 or	 eax, 1
$LN91@GetContine:
  00355	85 c0		 test	 eax, eax
  00357	74 4c		 je	 SHORT $LN32@GetContine

; 501  : 	{
; 502  : 		return CONT_BAHARA;
; 503  : 	}
; 504  : 	else if (strcmp("UpresiaEnt", continentName) == 0)

  00359	b8 00 00 00 00	 mov	 eax, OFFSET ??_C@_0L@NOHPMHGP@UpresiaEnt@
  0035e	66 90		 npad	 2
$LL92@GetContine:
  00360	8a 08		 mov	 cl, BYTE PTR [eax]
  00362	3a 0e		 cmp	 cl, BYTE PTR [esi]
  00364	75 29		 jne	 SHORT $LN93@GetContine
  00366	84 c9		 test	 cl, cl
  00368	74 12		 je	 SHORT $LN94@GetContine
  0036a	8a 48 01	 mov	 cl, BYTE PTR [eax+1]
  0036d	3a 4e 01	 cmp	 cl, BYTE PTR [esi+1]
  00370	75 1d		 jne	 SHORT $LN93@GetContine
  00372	83 c0 02	 add	 eax, 2
  00375	83 c6 02	 add	 esi, 2
  00378	84 c9		 test	 cl, cl
  0037a	75 e4		 jne	 SHORT $LL92@GetContine
$LN94@GetContine:
  0037c	33 c9		 xor	 ecx, ecx
  0037e	33 c0		 xor	 eax, eax
  00380	85 c9		 test	 ecx, ecx
  00382	ba f5 00 00 00	 mov	 edx, 245		; 000000f5H
  00387	5e		 pop	 esi
  00388	0f 44 c2	 cmove	 eax, edx

; 507  : 	}
; 508  : #endif
; 509  : 	return CONT_NODATA;
; 510  : }

  0038b	5d		 pop	 ebp
  0038c	c2 04 00	 ret	 4
$LN93@GetContine:

; 501  : 	{
; 502  : 		return CONT_BAHARA;
; 503  : 	}
; 504  : 	else if (strcmp("UpresiaEnt", continentName) == 0)

  0038f	1b c9		 sbb	 ecx, ecx
  00391	ba f5 00 00 00	 mov	 edx, 245		; 000000f5H
  00396	83 c9 01	 or	 ecx, 1
  00399	33 c0		 xor	 eax, eax
  0039b	85 c9		 test	 ecx, ecx
  0039d	5e		 pop	 esi
  0039e	0f 44 c2	 cmove	 eax, edx

; 507  : 	}
; 508  : #endif
; 509  : 	return CONT_NODATA;
; 510  : }

  003a1	5d		 pop	 ebp
  003a2	c2 04 00	 ret	 4
$LN32@GetContine:

; 505  : 	{
; 506  : 		return CONT_BAHARA;

  003a5	b8 f5 00 00 00	 mov	 eax, 245		; 000000f5H
  003aa	5e		 pop	 esi

; 507  : 	}
; 508  : #endif
; 509  : 	return CONT_NODATA;
; 510  : }

  003ab	5d		 pop	 ebp
  003ac	c2 04 00	 ret	 4
$LN34@GetContine:

; 474  : 	{
; 475  : 		return CONT_ESTIA;

  003af	b8 04 00 00 00	 mov	 eax, 4
  003b4	5e		 pop	 esi

; 507  : 	}
; 508  : #endif
; 509  : 	return CONT_NODATA;
; 510  : }

  003b5	5d		 pop	 ebp
  003b6	c2 04 00	 ret	 4
?GetContinentIndex@CContinent@@QAEHPBD@Z ENDP		; CContinent::GetContinentIndex
_TEXT	ENDS
; Function compile flags: /Ogtp
; File C:\IAGOS\server\v18\Source\Source\_Common\Continent.cpp
;	COMDAT ?GetRevivalPos@CContinent@@QAE?AUD3DXVECTOR3@@E@Z
_TEXT	SEGMENT
___$ReturnUdt$ = 8					; size = 4
_nContinent$ = 12					; size = 1
?GetRevivalPos@CContinent@@QAE?AUD3DXVECTOR3@@E@Z PROC	; CContinent::GetRevivalPos, COMDAT
; _this$ = ecx

; 384  : {

  00000	55		 push	 ebp
  00001	8b ec		 mov	 ebp, esp

; 385  : 	D3DXVECTOR3 vPos;
; 386  : 	
; 387  : 	switch( nContinent )

  00003	0f b6 45 0c	 movzx	 eax, BYTE PTR _nContinent$[ebp]
  00007	3d f2 00 00 00	 cmp	 eax, 242		; 000000f2H
  0000c	77 7a		 ja	 SHORT $LN12@GetRevival
  0000e	0f b6 80 00 00
	00 00		 movzx	 eax, BYTE PTR $LN32@GetRevival[eax]
  00015	ff 24 85 00 00
	00 00		 jmp	 DWORD PTR $LN33@GetRevival[eax*4]
$LN8@GetRevival:

; 388  : 	{
; 389  : 		case CONT_NODATA :			vPos = D3DXVECTOR3( 6968, 0, 3328 );	break;
; 390  : 		case CONT_FLARIS :			vPos = D3DXVECTOR3( 6968, 0, 3328 );	break;
; 391  : 		case CONT_SAINTMORNING :	vPos = D3DXVECTOR3( 8470, 0, 3635 );	break;
; 392  : 		case CONT_DARKON12 :		vPos = D3DXVECTOR3( 3808, 0, 4455 );	break;
; 393  : 		case CONT_DARKON3 :			vPos = D3DXVECTOR3( 3808, 0, 4455 );	break;

  0001c	8b 45 08	 mov	 eax, DWORD PTR ___$ReturnUdt$[ebp]
  0001f	c7 00 00 00 6e
	45		 mov	 DWORD PTR [eax], 1164836864 ; 456e0000H
  00025	c7 40 04 00 00
	00 00		 mov	 DWORD PTR [eax+4], 0
  0002c	c7 40 08 00 38
	8b 45		 mov	 DWORD PTR [eax+8], 1166751744 ; 458b3800H

; 399  : 	}
; 400  : 	
; 401  : 	return vPos;
; 402  : }

  00033	5d		 pop	 ebp
  00034	c2 08 00	 ret	 8
$LN9@GetRevival:

; 394  : 		case CONT_RICIS :			vPos = D3DXVECTOR3( 8470, 0, 3635 );	break;

  00037	8b 45 08	 mov	 eax, DWORD PTR ___$ReturnUdt$[ebp]
  0003a	c7 00 00 58 04
	46		 mov	 DWORD PTR [eax], 1174689792 ; 46045800H
  00040	c7 40 04 00 00
	00 00		 mov	 DWORD PTR [eax+4], 0
  00047	c7 40 08 00 30
	63 45		 mov	 DWORD PTR [eax+8], 1164128256 ; 45633000H

; 399  : 	}
; 400  : 	
; 401  : 	return vPos;
; 402  : }

  0004e	5d		 pop	 ebp
  0004f	c2 08 00	 ret	 8
$LN10@GetRevival:

; 395  : 		case CONT_EAST :			vPos = D3DXVECTOR3( 6959, 0, 3217 );	break;

  00052	8b 45 08	 mov	 eax, DWORD PTR ___$ReturnUdt$[ebp]
  00055	c7 00 00 78 d9
	45		 mov	 DWORD PTR [eax], 1171879936 ; 45d97800H
  0005b	c7 40 04 00 00
	00 00		 mov	 DWORD PTR [eax+4], 0
  00062	c7 40 08 00 10
	49 45		 mov	 DWORD PTR [eax+8], 1162416128 ; 45491000H

; 399  : 	}
; 400  : 	
; 401  : 	return vPos;
; 402  : }

  00069	5d		 pop	 ebp
  0006a	c2 08 00	 ret	 8
$LN11@GetRevival:

; 396  : 		case CONT_WEST :			vPos = D3DXVECTOR3( 3824, 0, 4456 );	break;

  0006d	8b 45 08	 mov	 eax, DWORD PTR ___$ReturnUdt$[ebp]
  00070	c7 00 00 00 6f
	45		 mov	 DWORD PTR [eax], 1164902400 ; 456f0000H
  00076	c7 40 04 00 00
	00 00		 mov	 DWORD PTR [eax+4], 0
  0007d	c7 40 08 00 40
	8b 45		 mov	 DWORD PTR [eax+8], 1166753792 ; 458b4000H

; 399  : 	}
; 400  : 	
; 401  : 	return vPos;
; 402  : }

  00084	5d		 pop	 ebp
  00085	c2 08 00	 ret	 8
$LN12@GetRevival:

; 397  : 		
; 398  : 		default :					vPos = D3DXVECTOR3( 6968, 0, 3328 );	break;

  00088	8b 45 08	 mov	 eax, DWORD PTR ___$ReturnUdt$[ebp]
  0008b	c7 00 00 c0 d9
	45		 mov	 DWORD PTR [eax], 1171898368 ; 45d9c000H
  00091	c7 40 04 00 00
	00 00		 mov	 DWORD PTR [eax+4], 0
  00098	c7 40 08 00 00
	50 45		 mov	 DWORD PTR [eax+8], 1162870784 ; 45500000H

; 399  : 	}
; 400  : 	
; 401  : 	return vPos;
; 402  : }

  0009f	5d		 pop	 ebp
  000a0	c2 08 00	 ret	 8
  000a3	90		 npad	 1
$LN33@GetRevival:
  000a4	00 00 00 00	 DD	 $LN12@GetRevival
  000a8	00 00 00 00	 DD	 $LN9@GetRevival
  000ac	00 00 00 00	 DD	 $LN10@GetRevival
  000b0	00 00 00 00	 DD	 $LN11@GetRevival
  000b4	00 00 00 00	 DD	 $LN8@GetRevival
  000b8	00 00 00 00	 DD	 $LN12@GetRevival
$LN32@GetRevival:
  000bc	00		 DB	 0
  000bd	00		 DB	 0
  000be	01		 DB	 1
  000bf	01		 DB	 1
  000c0	05		 DB	 5
  000c1	05		 DB	 5
  000c2	05		 DB	 5
  000c3	05		 DB	 5
  000c4	05		 DB	 5
  000c5	05		 DB	 5
  000c6	05		 DB	 5
  000c7	05		 DB	 5
  000c8	05		 DB	 5
  000c9	05		 DB	 5
  000ca	05		 DB	 5
  000cb	02		 DB	 2
  000cc	05		 DB	 5
  000cd	05		 DB	 5
  000ce	05		 DB	 5
  000cf	05		 DB	 5
  000d0	05		 DB	 5
  000d1	05		 DB	 5
  000d2	05		 DB	 5
  000d3	05		 DB	 5
  000d4	05		 DB	 5
  000d5	05		 DB	 5
  000d6	05		 DB	 5
  000d7	05		 DB	 5
  000d8	05		 DB	 5
  000d9	05		 DB	 5
  000da	05		 DB	 5
  000db	05		 DB	 5
  000dc	05		 DB	 5
  000dd	05		 DB	 5
  000de	05		 DB	 5
  000df	05		 DB	 5
  000e0	05		 DB	 5
  000e1	05		 DB	 5
  000e2	05		 DB	 5
  000e3	05		 DB	 5
  000e4	05		 DB	 5
  000e5	05		 DB	 5
  000e6	05		 DB	 5
  000e7	05		 DB	 5
  000e8	05		 DB	 5
  000e9	05		 DB	 5
  000ea	05		 DB	 5
  000eb	05		 DB	 5
  000ec	05		 DB	 5
  000ed	05		 DB	 5
  000ee	05		 DB	 5
  000ef	05		 DB	 5
  000f0	05		 DB	 5
  000f1	05		 DB	 5
  000f2	05		 DB	 5
  000f3	05		 DB	 5
  000f4	05		 DB	 5
  000f5	05		 DB	 5
  000f6	05		 DB	 5
  000f7	05		 DB	 5
  000f8	05		 DB	 5
  000f9	05		 DB	 5
  000fa	05		 DB	 5
  000fb	05		 DB	 5
  000fc	05		 DB	 5
  000fd	05		 DB	 5
  000fe	05		 DB	 5
  000ff	05		 DB	 5
  00100	05		 DB	 5
  00101	05		 DB	 5
  00102	05		 DB	 5
  00103	05		 DB	 5
  00104	05		 DB	 5
  00105	05		 DB	 5
  00106	05		 DB	 5
  00107	05		 DB	 5
  00108	05		 DB	 5
  00109	05		 DB	 5
  0010a	05		 DB	 5
  0010b	05		 DB	 5
  0010c	05		 DB	 5
  0010d	05		 DB	 5
  0010e	05		 DB	 5
  0010f	05		 DB	 5
  00110	05		 DB	 5
  00111	05		 DB	 5
  00112	05		 DB	 5
  00113	05		 DB	 5
  00114	05		 DB	 5
  00115	05		 DB	 5
  00116	05		 DB	 5
  00117	05		 DB	 5
  00118	05		 DB	 5
  00119	05		 DB	 5
  0011a	05		 DB	 5
  0011b	05		 DB	 5
  0011c	05		 DB	 5
  0011d	05		 DB	 5
  0011e	05		 DB	 5
  0011f	05		 DB	 5
  00120	05		 DB	 5
  00121	05		 DB	 5
  00122	05		 DB	 5
  00123	05		 DB	 5
  00124	05		 DB	 5
  00125	05		 DB	 5
  00126	05		 DB	 5
  00127	05		 DB	 5
  00128	05		 DB	 5
  00129	05		 DB	 5
  0012a	05		 DB	 5
  0012b	05		 DB	 5
  0012c	05		 DB	 5
  0012d	05		 DB	 5
  0012e	05		 DB	 5
  0012f	05		 DB	 5
  00130	05		 DB	 5
  00131	05		 DB	 5
  00132	05		 DB	 5
  00133	05		 DB	 5
  00134	05		 DB	 5
  00135	05		 DB	 5
  00136	05		 DB	 5
  00137	05		 DB	 5
  00138	05		 DB	 5
  00139	05		 DB	 5
  0013a	05		 DB	 5
  0013b	05		 DB	 5
  0013c	05		 DB	 5
  0013d	05		 DB	 5
  0013e	05		 DB	 5
  0013f	05		 DB	 5
  00140	05		 DB	 5
  00141	05		 DB	 5
  00142	05		 DB	 5
  00143	05		 DB	 5
  00144	05		 DB	 5
  00145	05		 DB	 5
  00146	05		 DB	 5
  00147	05		 DB	 5
  00148	05		 DB	 5
  00149	05		 DB	 5
  0014a	05		 DB	 5
  0014b	05		 DB	 5
  0014c	05		 DB	 5
  0014d	05		 DB	 5
  0014e	05		 DB	 5
  0014f	05		 DB	 5
  00150	05		 DB	 5
  00151	05		 DB	 5
  00152	05		 DB	 5
  00153	05		 DB	 5
  00154	05		 DB	 5
  00155	05		 DB	 5
  00156	05		 DB	 5
  00157	05		 DB	 5
  00158	05		 DB	 5
  00159	05		 DB	 5
  0015a	05		 DB	 5
  0015b	05		 DB	 5
  0015c	05		 DB	 5
  0015d	05		 DB	 5
  0015e	05		 DB	 5
  0015f	05		 DB	 5
  00160	05		 DB	 5
  00161	05		 DB	 5
  00162	05		 DB	 5
  00163	05		 DB	 5
  00164	05		 DB	 5
  00165	05		 DB	 5
  00166	05		 DB	 5
  00167	05		 DB	 5
  00168	05		 DB	 5
  00169	05		 DB	 5
  0016a	05		 DB	 5
  0016b	05		 DB	 5
  0016c	05		 DB	 5
  0016d	05		 DB	 5
  0016e	05		 DB	 5
  0016f	05		 DB	 5
  00170	05		 DB	 5
  00171	05		 DB	 5
  00172	05		 DB	 5
  00173	05		 DB	 5
  00174	05		 DB	 5
  00175	05		 DB	 5
  00176	05		 DB	 5
  00177	05		 DB	 5
  00178	05		 DB	 5
  00179	05		 DB	 5
  0017a	05		 DB	 5
  0017b	05		 DB	 5
  0017c	05		 DB	 5
  0017d	05		 DB	 5
  0017e	05		 DB	 5
  0017f	05		 DB	 5
  00180	05		 DB	 5
  00181	05		 DB	 5
  00182	05		 DB	 5
  00183	05		 DB	 5
  00184	05		 DB	 5
  00185	05		 DB	 5
  00186	05		 DB	 5
  00187	05		 DB	 5
  00188	05		 DB	 5
  00189	05		 DB	 5
  0018a	05		 DB	 5
  0018b	05		 DB	 5
  0018c	05		 DB	 5
  0018d	05		 DB	 5
  0018e	05		 DB	 5
  0018f	05		 DB	 5
  00190	05		 DB	 5
  00191	05		 DB	 5
  00192	05		 DB	 5
  00193	05		 DB	 5
  00194	05		 DB	 5
  00195	05		 DB	 5
  00196	05		 DB	 5
  00197	05		 DB	 5
  00198	05		 DB	 5
  00199	05		 DB	 5
  0019a	05		 DB	 5
  0019b	05		 DB	 5
  0019c	05		 DB	 5
  0019d	05		 DB	 5
  0019e	05		 DB	 5
  0019f	05		 DB	 5
  001a0	05		 DB	 5
  001a1	05		 DB	 5
  001a2	05		 DB	 5
  001a3	05		 DB	 5
  001a4	05		 DB	 5
  001a5	05		 DB	 5
  001a6	05		 DB	 5
  001a7	05		 DB	 5
  001a8	05		 DB	 5
  001a9	05		 DB	 5
  001aa	05		 DB	 5
  001ab	05		 DB	 5
  001ac	03		 DB	 3
  001ad	04		 DB	 4
  001ae	04		 DB	 4
?GetRevivalPos@CContinent@@QAE?AUD3DXVECTOR3@@E@Z ENDP	; CContinent::GetRevivalPos
_TEXT	ENDS
; Function compile flags: /Ogtp
; File C:\IAGOS\server\v18\Source\Source\_Common\Continent.cpp
; File C:\Program Files\Microsoft Visual Studio\2022\Professional\VC\Tools\MSVC\14.44.35207\atlmfc\include\afxstr.h
; File C:\Program Files\Microsoft Visual Studio\2022\Professional\VC\Tools\MSVC\14.44.35207\atlmfc\include\atlsimpstr.h
; File C:\IAGOS\server\v18\Source\Source\_Common\Continent.cpp
; File C:\Program Files\Microsoft Visual Studio\2022\Professional\VC\Tools\MSVC\14.44.35207\atlmfc\include\atlsimpstr.h
; File C:\IAGOS\server\v18\Source\Source\_Common\Continent.cpp
; File C:\Program Files\Microsoft Visual Studio\2022\Professional\VC\Tools\MSVC\14.44.35207\atlmfc\include\atlsimpstr.h
; File C:\IAGOS\server\v18\Source\Source\_Common\Continent.cpp
; File C:\Program Files\Microsoft Visual Studio\2022\Professional\VC\Tools\MSVC\14.44.35207\atlmfc\include\atlsimpstr.h
; File C:\IAGOS\server\v18\Source\Source\_Common\Continent.cpp
; File C:\Program Files\Microsoft Visual Studio\2022\Professional\VC\Tools\MSVC\14.44.35207\atlmfc\include\atlsimpstr.h
; File C:\IAGOS\server\v18\Source\Source\_Common\Continent.cpp
; File C:\Program Files\Microsoft Visual Studio\2022\Professional\VC\Tools\MSVC\14.44.35207\atlmfc\include\atlsimpstr.h
; File C:\IAGOS\server\v18\Source\Source\_Common\Continent.cpp
; File C:\Program Files\Microsoft Visual Studio\2022\Professional\VC\Tools\MSVC\14.44.35207\atlmfc\include\atlsimpstr.h
; File C:\IAGOS\server\v18\Source\Source\_Common\Continent.cpp
; File C:\Program Files\Microsoft Visual Studio\2022\Professional\VC\Tools\MSVC\14.44.35207\atlmfc\include\atlsimpstr.h
; File C:\IAGOS\server\v18\Source\Source\_Common\Continent.cpp
; File C:\Program Files\Microsoft Visual Studio\2022\Professional\VC\Tools\MSVC\14.44.35207\atlmfc\include\atlsimpstr.h
; File C:\IAGOS\server\v18\Source\Source\_Common\Continent.cpp
; File C:\Program Files\Microsoft Visual Studio\2022\Professional\VC\Tools\MSVC\14.44.35207\atlmfc\include\atlsimpstr.h
; File C:\IAGOS\server\v18\Source\Source\_Common\Continent.cpp
; File C:\Program Files\Microsoft Visual Studio\2022\Professional\VC\Tools\MSVC\14.44.35207\atlmfc\include\atlsimpstr.h
; File C:\IAGOS\server\v18\Source\Source\_Common\Continent.cpp
;	COMDAT ?GetContinentName@CContinent@@QAE?AV?$CStringT@DV?$StrTraitMFC@DV?$ChTraitsCRT@D@ATL@@@@@ATL@@E@Z
_TEXT	SEGMENT
$T2 = -16						; size = 4
__$EHRec$ = -12						; size = 12
___$ReturnUdt$ = 8					; size = 4
_nCont$ = 12						; size = 1
?GetContinentName@CContinent@@QAE?AV?$CStringT@DV?$StrTraitMFC@DV?$ChTraitsCRT@D@ATL@@@@@ATL@@E@Z PROC ; CContinent::GetContinentName, COMDAT
; _this$ = ecx

; 346  : {

  00000	55		 push	 ebp
  00001	8b ec		 mov	 ebp, esp
  00003	6a ff		 push	 -1
  00005	68 00 00 00 00	 push	 __ehhandler$?GetContinentName@CContinent@@QAE?AV?$CStringT@DV?$StrTraitMFC@DV?$ChTraitsCRT@D@ATL@@@@@ATL@@E@Z
  0000a	64 a1 00 00 00
	00		 mov	 eax, DWORD PTR fs:0
  00010	50		 push	 eax
  00011	51		 push	 ecx
  00012	56		 push	 esi
  00013	57		 push	 edi
  00014	a1 00 00 00 00	 mov	 eax, DWORD PTR ___security_cookie
  00019	33 c5		 xor	 eax, ebp
  0001b	50		 push	 eax
  0001c	8d 45 f4	 lea	 eax, DWORD PTR __$EHRec$[ebp]
  0001f	64 a3 00 00 00
	00		 mov	 DWORD PTR fs:0, eax
  00025	c7 45 fc 00 00
	00 00		 mov	 DWORD PTR __$EHRec$[ebp+8], 0
  0002c	c7 45 f0 00 00
	00 00		 mov	 DWORD PTR $T2[ebp], 0
; File C:\Program Files\Microsoft Visual Studio\2022\Professional\VC\Tools\MSVC\14.44.35207\atlmfc\include\afxstr.h

; 56   : 		return( AfxGetStringManager() );

  00033	e8 00 00 00 00	 call	 ?AfxGetStringManager@@YGPAUIAtlStringMgr@ATL@@XZ ; AfxGetStringManager
  00038	8b c8		 mov	 ecx, eax
; File C:\Program Files\Microsoft Visual Studio\2022\Professional\VC\Tools\MSVC\14.44.35207\atlmfc\include\atlsimpstr.h

; 209  : 		ATLENSURE( pStringMgr != NULL );

  0003a	85 c9		 test	 ecx, ecx
  0003c	0f 84 b5 01 00
	00		 je	 $LN117@GetContine

; 210  : 		CStringData* pData = pStringMgr->GetNilString();

  00042	8b 01		 mov	 eax, DWORD PTR [ecx]
  00044	ff 50 0c	 call	 DWORD PTR [eax+12]

; 211  : 		Attach( pData );

  00047	8b 75 08	 mov	 esi, DWORD PTR ___$ReturnUdt$[ebp]
  0004a	83 c0 10	 add	 eax, 16			; 00000010H
  0004d	89 06		 mov	 DWORD PTR [esi], eax
; File C:\IAGOS\server\v18\Source\Source\_Common\Continent.cpp

; 379  : 	return strTemp;

  0004f	0f b6 45 0c	 movzx	 eax, BYTE PTR _nCont$[ebp]
  00053	48		 dec	 eax
  00054	c7 45 fc 00 00
	00 00		 mov	 DWORD PTR __$EHRec$[ebp+8], 0
  0005b	c7 45 f0 01 00
	00 00		 mov	 DWORD PTR $T2[ebp], 1
  00062	3d fe 00 00 00	 cmp	 eax, 254		; 000000feH
  00067	0f 87 75 01 00
	00		 ja	 $LN2@GetContine

; 347  : 	CString strTemp;
; 348  : 	
; 349  : 	switch( nCont )

  0006d	0f b6 80 00 00
	00 00		 movzx	 eax, BYTE PTR $LN102@GetContine[eax]
  00074	ff 24 85 00 00
	00 00		 jmp	 DWORD PTR $LN103@GetContine[eax*4]
$LN4@GetContine:

; 350  : 	{
; 351  : 		case CONT_FLARIS :
; 352  : 			strTemp = prj.GetText( TID_GAME_CONT_FLARIS );

  0007b	68 81 0e 00 00	 push	 3713			; 00000e81H
  00080	b9 00 00 00 00	 mov	 ecx, OFFSET ?prj@@3VCProject@@A ; prj
  00085	e8 00 00 00 00	 call	 ?GetText@CProject@@QAEPBDK@Z ; CProject::GetText
  0008a	8b d0		 mov	 edx, eax
; File C:\Program Files\Microsoft Visual Studio\2022\Professional\VC\Tools\MSVC\14.44.35207\atlmfc\include\atlsimpstr.h

; 726  : 		if( psz == NULL )

  0008c	85 d2		 test	 edx, edx
  0008e	0f 84 2d 01 00
	00		 je	 $LN115@GetContine

; 730  : 		return( int( strlen( psz ) ) );

  00094	8b ca		 mov	 ecx, edx
  00096	8d 79 01	 lea	 edi, DWORD PTR [ecx+1]
  00099	0f 1f 80 00 00
	00 00		 npad	 7
$LL104@GetContine:
  000a0	8a 01		 mov	 al, BYTE PTR [ecx]
  000a2	41		 inc	 ecx
  000a3	84 c0		 test	 al, al
  000a5	75 f9		 jne	 SHORT $LL104@GetContine
; File C:\IAGOS\server\v18\Source\Source\_Common\Continent.cpp

; 353  : 			break;

  000a7	e9 2b 01 00 00	 jmp	 $LN114@GetContine
$LN5@GetContine:

; 354  : 		case CONT_SAINTMORNING :
; 355  : 			strTemp = prj.GetText( TID_GAME_CONT_SAINTMORNING );

  000ac	68 82 0e 00 00	 push	 3714			; 00000e82H
  000b1	b9 00 00 00 00	 mov	 ecx, OFFSET ?prj@@3VCProject@@A ; prj
  000b6	e8 00 00 00 00	 call	 ?GetText@CProject@@QAEPBDK@Z ; CProject::GetText
  000bb	8b d0		 mov	 edx, eax
; File C:\Program Files\Microsoft Visual Studio\2022\Professional\VC\Tools\MSVC\14.44.35207\atlmfc\include\atlsimpstr.h

; 726  : 		if( psz == NULL )

  000bd	85 d2		 test	 edx, edx
  000bf	0f 84 fc 00 00
	00		 je	 $LN115@GetContine

; 730  : 		return( int( strlen( psz ) ) );

  000c5	8b ca		 mov	 ecx, edx
  000c7	8d 79 01	 lea	 edi, DWORD PTR [ecx+1]
  000ca	66 0f 1f 44 00
	00		 npad	 6
$LL105@GetContine:
  000d0	8a 01		 mov	 al, BYTE PTR [ecx]
  000d2	41		 inc	 ecx
  000d3	84 c0		 test	 al, al
  000d5	75 f9		 jne	 SHORT $LL105@GetContine
; File C:\IAGOS\server\v18\Source\Source\_Common\Continent.cpp

; 356  : 			break;

  000d7	e9 fb 00 00 00	 jmp	 $LN114@GetContine
$LN6@GetContine:

; 357  : 		case CONT_DARKON12 :
; 358  : 			strTemp = prj.GetText( TID_GAME_CONT_DARKON12 );

  000dc	68 83 0e 00 00	 push	 3715			; 00000e83H
  000e1	b9 00 00 00 00	 mov	 ecx, OFFSET ?prj@@3VCProject@@A ; prj
  000e6	e8 00 00 00 00	 call	 ?GetText@CProject@@QAEPBDK@Z ; CProject::GetText
  000eb	8b d0		 mov	 edx, eax
; File C:\Program Files\Microsoft Visual Studio\2022\Professional\VC\Tools\MSVC\14.44.35207\atlmfc\include\atlsimpstr.h

; 726  : 		if( psz == NULL )

  000ed	85 d2		 test	 edx, edx
  000ef	0f 84 cc 00 00
	00		 je	 $LN115@GetContine

; 730  : 		return( int( strlen( psz ) ) );

  000f5	8b ca		 mov	 ecx, edx
  000f7	8d 79 01	 lea	 edi, DWORD PTR [ecx+1]
  000fa	66 0f 1f 44 00
	00		 npad	 6
$LL106@GetContine:
  00100	8a 01		 mov	 al, BYTE PTR [ecx]
  00102	41		 inc	 ecx
  00103	84 c0		 test	 al, al
  00105	75 f9		 jne	 SHORT $LL106@GetContine
; File C:\IAGOS\server\v18\Source\Source\_Common\Continent.cpp

; 359  : 			break;

  00107	e9 cb 00 00 00	 jmp	 $LN114@GetContine
$LN7@GetContine:

; 360  : 		case CONT_DARKON3 :
; 361  : 			strTemp = prj.GetText( TID_GAME_CONT_DARKON3 );

  0010c	68 84 0e 00 00	 push	 3716			; 00000e84H
  00111	b9 00 00 00 00	 mov	 ecx, OFFSET ?prj@@3VCProject@@A ; prj
  00116	e8 00 00 00 00	 call	 ?GetText@CProject@@QAEPBDK@Z ; CProject::GetText
  0011b	8b d0		 mov	 edx, eax
; File C:\Program Files\Microsoft Visual Studio\2022\Professional\VC\Tools\MSVC\14.44.35207\atlmfc\include\atlsimpstr.h

; 726  : 		if( psz == NULL )

  0011d	85 d2		 test	 edx, edx
  0011f	0f 84 9c 00 00
	00		 je	 $LN115@GetContine

; 730  : 		return( int( strlen( psz ) ) );

  00125	8b ca		 mov	 ecx, edx
  00127	8d 79 01	 lea	 edi, DWORD PTR [ecx+1]
  0012a	66 0f 1f 44 00
	00		 npad	 6
$LL107@GetContine:
  00130	8a 01		 mov	 al, BYTE PTR [ecx]
  00132	41		 inc	 ecx
  00133	84 c0		 test	 al, al
  00135	75 f9		 jne	 SHORT $LL107@GetContine
; File C:\IAGOS\server\v18\Source\Source\_Common\Continent.cpp

; 362  : 			break;

  00137	e9 9b 00 00 00	 jmp	 $LN114@GetContine
$LN8@GetContine:

; 363  : 		case CONT_RICIS :
; 364  : 			strTemp = prj.GetText( TID_GAME_CONT_RICIS );

  0013c	68 85 0e 00 00	 push	 3717			; 00000e85H
  00141	b9 00 00 00 00	 mov	 ecx, OFFSET ?prj@@3VCProject@@A ; prj
  00146	e8 00 00 00 00	 call	 ?GetText@CProject@@QAEPBDK@Z ; CProject::GetText
  0014b	8b d0		 mov	 edx, eax
; File C:\Program Files\Microsoft Visual Studio\2022\Professional\VC\Tools\MSVC\14.44.35207\atlmfc\include\atlsimpstr.h

; 726  : 		if( psz == NULL )

  0014d	85 d2		 test	 edx, edx
  0014f	74 70		 je	 SHORT $LN115@GetContine

; 730  : 		return( int( strlen( psz ) ) );

  00151	8b ca		 mov	 ecx, edx
  00153	8d 79 01	 lea	 edi, DWORD PTR [ecx+1]
$LL108@GetContine:
  00156	8a 01		 mov	 al, BYTE PTR [ecx]
  00158	41		 inc	 ecx
  00159	84 c0		 test	 al, al
  0015b	75 f9		 jne	 SHORT $LL108@GetContine
; File C:\IAGOS\server\v18\Source\Source\_Common\Continent.cpp

; 365  : 			break;

  0015d	eb 78		 jmp	 SHORT $LN114@GetContine
$LN9@GetContine:

; 366  : 		
; 367  : 		case CONT_EAST :
; 368  : 			strTemp = prj.GetText( TID_GAME_CONT_EAST );

  0015f	68 86 0e 00 00	 push	 3718			; 00000e86H
  00164	b9 00 00 00 00	 mov	 ecx, OFFSET ?prj@@3VCProject@@A ; prj
  00169	e8 00 00 00 00	 call	 ?GetText@CProject@@QAEPBDK@Z ; CProject::GetText
  0016e	8b d0		 mov	 edx, eax
; File C:\Program Files\Microsoft Visual Studio\2022\Professional\VC\Tools\MSVC\14.44.35207\atlmfc\include\atlsimpstr.h

; 726  : 		if( psz == NULL )

  00170	85 d2		 test	 edx, edx
  00172	74 4d		 je	 SHORT $LN115@GetContine

; 730  : 		return( int( strlen( psz ) ) );

  00174	8b ca		 mov	 ecx, edx
  00176	8d 79 01	 lea	 edi, DWORD PTR [ecx+1]
  00179	0f 1f 80 00 00
	00 00		 npad	 7
$LL109@GetContine:
  00180	8a 01		 mov	 al, BYTE PTR [ecx]
  00182	41		 inc	 ecx
  00183	84 c0		 test	 al, al
  00185	75 f9		 jne	 SHORT $LL109@GetContine
; File C:\IAGOS\server\v18\Source\Source\_Common\Continent.cpp

; 369  : 			break;

  00187	eb 4e		 jmp	 SHORT $LN114@GetContine
$LN10@GetContine:

; 370  : 		case CONT_WEST :
; 371  : 			strTemp = prj.GetText( TID_GAME_CONT_WEST );

  00189	68 87 0e 00 00	 push	 3719			; 00000e87H
  0018e	b9 00 00 00 00	 mov	 ecx, OFFSET ?prj@@3VCProject@@A ; prj
  00193	e8 00 00 00 00	 call	 ?GetText@CProject@@QAEPBDK@Z ; CProject::GetText
  00198	8b d0		 mov	 edx, eax
; File C:\Program Files\Microsoft Visual Studio\2022\Professional\VC\Tools\MSVC\14.44.35207\atlmfc\include\atlsimpstr.h

; 726  : 		if( psz == NULL )

  0019a	85 d2		 test	 edx, edx
  0019c	74 23		 je	 SHORT $LN115@GetContine

; 730  : 		return( int( strlen( psz ) ) );

  0019e	8b ca		 mov	 ecx, edx
  001a0	8d 79 01	 lea	 edi, DWORD PTR [ecx+1]
$LL110@GetContine:
  001a3	8a 01		 mov	 al, BYTE PTR [ecx]
  001a5	41		 inc	 ecx
  001a6	84 c0		 test	 al, al
  001a8	75 f9		 jne	 SHORT $LL110@GetContine
; File C:\IAGOS\server\v18\Source\Source\_Common\Continent.cpp

; 372  : 			break;

  001aa	eb 2b		 jmp	 SHORT $LN114@GetContine
$LN11@GetContine:

; 373  : 
; 374  : 		case CONT_ALL :
; 375  : 			strTemp = prj.GetText( TID_GAME_CONT_ALL );

  001ac	68 c4 0e 00 00	 push	 3780			; 00000ec4H
  001b1	b9 00 00 00 00	 mov	 ecx, OFFSET ?prj@@3VCProject@@A ; prj
  001b6	e8 00 00 00 00	 call	 ?GetText@CProject@@QAEPBDK@Z ; CProject::GetText
  001bb	8b d0		 mov	 edx, eax
; File C:\Program Files\Microsoft Visual Studio\2022\Professional\VC\Tools\MSVC\14.44.35207\atlmfc\include\atlsimpstr.h

; 726  : 		if( psz == NULL )

  001bd	85 d2		 test	 edx, edx
  001bf	75 04		 jne	 SHORT $LN100@GetContine
$LN115@GetContine:
; File C:\IAGOS\server\v18\Source\Source\_Common\Continent.cpp

; 379  : 	return strTemp;

  001c1	33 c9		 xor	 ecx, ecx
  001c3	eb 14		 jmp	 SHORT $LN99@GetContine
$LN100@GetContine:
; File C:\Program Files\Microsoft Visual Studio\2022\Professional\VC\Tools\MSVC\14.44.35207\atlmfc\include\atlsimpstr.h

; 730  : 		return( int( strlen( psz ) ) );

  001c5	8b ca		 mov	 ecx, edx
  001c7	8d 79 01	 lea	 edi, DWORD PTR [ecx+1]
  001ca	66 0f 1f 44 00
	00		 npad	 6
$LL111@GetContine:
  001d0	8a 01		 mov	 al, BYTE PTR [ecx]
  001d2	41		 inc	 ecx
  001d3	84 c0		 test	 al, al
  001d5	75 f9		 jne	 SHORT $LL111@GetContine
$LN114@GetContine:
; File C:\IAGOS\server\v18\Source\Source\_Common\Continent.cpp

; 379  : 	return strTemp;

  001d7	2b cf		 sub	 ecx, edi
$LN99@GetContine:
  001d9	51		 push	 ecx
  001da	52		 push	 edx
  001db	8b ce		 mov	 ecx, esi
  001dd	e8 00 00 00 00	 call	 ?SetString@?$CSimpleStringT@D$0A@@ATL@@QAEXPBDH@Z ; ATL::CSimpleStringT<char,0>::SetString
$LN2@GetContine:
  001e2	8b c6		 mov	 eax, esi

; 380  : }

  001e4	8b 4d f4	 mov	 ecx, DWORD PTR __$EHRec$[ebp]
  001e7	64 89 0d 00 00
	00 00		 mov	 DWORD PTR fs:0, ecx
  001ee	59		 pop	 ecx
  001ef	5f		 pop	 edi
  001f0	5e		 pop	 esi
  001f1	8b e5		 mov	 esp, ebp
  001f3	5d		 pop	 ebp
  001f4	c2 08 00	 ret	 8
$LN117@GetContine:
; File C:\Program Files\Microsoft Visual Studio\2022\Professional\VC\Tools\MSVC\14.44.35207\atlmfc\include\atlsimpstr.h

; 209  : 		ATLENSURE( pStringMgr != NULL );

  001f7	68 05 40 00 80	 push	 -2147467259		; 80004005H
  001fc	e8 00 00 00 00	 call	 ?AtlThrowImpl@ATL@@YGXJ@Z ; ATL::AtlThrowImpl
$LN113@GetContine:
  00201	0f 1f 00	 npad	 3
$LN103@GetContine:
; File C:\IAGOS\server\v18\Source\Source\_Common\Continent.cpp

; 380  : }

  00204	00 00 00 00	 DD	 $LN4@GetContine
  00208	00 00 00 00	 DD	 $LN5@GetContine
  0020c	00 00 00 00	 DD	 $LN8@GetContine
  00210	00 00 00 00	 DD	 $LN9@GetContine
  00214	00 00 00 00	 DD	 $LN10@GetContine
  00218	00 00 00 00	 DD	 $LN6@GetContine
  0021c	00 00 00 00	 DD	 $LN7@GetContine
  00220	00 00 00 00	 DD	 $LN11@GetContine
  00224	00 00 00 00	 DD	 $LN2@GetContine
$LN102@GetContine:
  00228	00		 DB	 0
  00229	01		 DB	 1
  0022a	02		 DB	 2
  0022b	08		 DB	 8
  0022c	08		 DB	 8
  0022d	08		 DB	 8
  0022e	08		 DB	 8
  0022f	08		 DB	 8
  00230	08		 DB	 8
  00231	08		 DB	 8
  00232	08		 DB	 8
  00233	08		 DB	 8
  00234	08		 DB	 8
  00235	08		 DB	 8
  00236	03		 DB	 3
  00237	08		 DB	 8
  00238	08		 DB	 8
  00239	08		 DB	 8
  0023a	08		 DB	 8
  0023b	08		 DB	 8
  0023c	08		 DB	 8
  0023d	08		 DB	 8
  0023e	08		 DB	 8
  0023f	08		 DB	 8
  00240	08		 DB	 8
  00241	08		 DB	 8
  00242	08		 DB	 8
  00243	08		 DB	 8
  00244	08		 DB	 8
  00245	08		 DB	 8
  00246	08		 DB	 8
  00247	08		 DB	 8
  00248	08		 DB	 8
  00249	08		 DB	 8
  0024a	08		 DB	 8
  0024b	08		 DB	 8
  0024c	08		 DB	 8
  0024d	08		 DB	 8
  0024e	08		 DB	 8
  0024f	08		 DB	 8
  00250	08		 DB	 8
  00251	08		 DB	 8
  00252	08		 DB	 8
  00253	08		 DB	 8
  00254	08		 DB	 8
  00255	08		 DB	 8
  00256	08		 DB	 8
  00257	08		 DB	 8
  00258	08		 DB	 8
  00259	08		 DB	 8
  0025a	08		 DB	 8
  0025b	08		 DB	 8
  0025c	08		 DB	 8
  0025d	08		 DB	 8
  0025e	08		 DB	 8
  0025f	08		 DB	 8
  00260	08		 DB	 8
  00261	08		 DB	 8
  00262	08		 DB	 8
  00263	08		 DB	 8
  00264	08		 DB	 8
  00265	08		 DB	 8
  00266	08		 DB	 8
  00267	08		 DB	 8
  00268	08		 DB	 8
  00269	08		 DB	 8
  0026a	08		 DB	 8
  0026b	08		 DB	 8
  0026c	08		 DB	 8
  0026d	08		 DB	 8
  0026e	08		 DB	 8
  0026f	08		 DB	 8
  00270	08		 DB	 8
  00271	08		 DB	 8
  00272	08		 DB	 8
  00273	08		 DB	 8
  00274	08		 DB	 8
  00275	08		 DB	 8
  00276	08		 DB	 8
  00277	08		 DB	 8
  00278	08		 DB	 8
  00279	08		 DB	 8
  0027a	08		 DB	 8
  0027b	08		 DB	 8
  0027c	08		 DB	 8
  0027d	08		 DB	 8
  0027e	08		 DB	 8
  0027f	08		 DB	 8
  00280	08		 DB	 8
  00281	08		 DB	 8
  00282	08		 DB	 8
  00283	08		 DB	 8
  00284	08		 DB	 8
  00285	08		 DB	 8
  00286	08		 DB	 8
  00287	08		 DB	 8
  00288	08		 DB	 8
  00289	08		 DB	 8
  0028a	08		 DB	 8
  0028b	08		 DB	 8
  0028c	08		 DB	 8
  0028d	08		 DB	 8
  0028e	08		 DB	 8
  0028f	08		 DB	 8
  00290	08		 DB	 8
  00291	08		 DB	 8
  00292	08		 DB	 8
  00293	08		 DB	 8
  00294	08		 DB	 8
  00295	08		 DB	 8
  00296	08		 DB	 8
  00297	08		 DB	 8
  00298	08		 DB	 8
  00299	08		 DB	 8
  0029a	08		 DB	 8
  0029b	08		 DB	 8
  0029c	08		 DB	 8
  0029d	08		 DB	 8
  0029e	08		 DB	 8
  0029f	08		 DB	 8
  002a0	08		 DB	 8
  002a1	08		 DB	 8
  002a2	08		 DB	 8
  002a3	08		 DB	 8
  002a4	08		 DB	 8
  002a5	08		 DB	 8
  002a6	08		 DB	 8
  002a7	08		 DB	 8
  002a8	08		 DB	 8
  002a9	08		 DB	 8
  002aa	08		 DB	 8
  002ab	08		 DB	 8
  002ac	08		 DB	 8
  002ad	08		 DB	 8
  002ae	08		 DB	 8
  002af	08		 DB	 8
  002b0	08		 DB	 8
  002b1	08		 DB	 8
  002b2	08		 DB	 8
  002b3	08		 DB	 8
  002b4	08		 DB	 8
  002b5	08		 DB	 8
  002b6	08		 DB	 8
  002b7	08		 DB	 8
  002b8	08		 DB	 8
  002b9	08		 DB	 8
  002ba	08		 DB	 8
  002bb	08		 DB	 8
  002bc	08		 DB	 8
  002bd	08		 DB	 8
  002be	08		 DB	 8
  002bf	08		 DB	 8
  002c0	08		 DB	 8
  002c1	08		 DB	 8
  002c2	08		 DB	 8
  002c3	08		 DB	 8
  002c4	08		 DB	 8
  002c5	08		 DB	 8
  002c6	08		 DB	 8
  002c7	08		 DB	 8
  002c8	08		 DB	 8
  002c9	08		 DB	 8
  002ca	08		 DB	 8
  002cb	08		 DB	 8
  002cc	08		 DB	 8
  002cd	08		 DB	 8
  002ce	08		 DB	 8
  002cf	08		 DB	 8
  002d0	08		 DB	 8
  002d1	08		 DB	 8
  002d2	08		 DB	 8
  002d3	08		 DB	 8
  002d4	08		 DB	 8
  002d5	08		 DB	 8
  002d6	08		 DB	 8
  002d7	08		 DB	 8
  002d8	08		 DB	 8
  002d9	08		 DB	 8
  002da	08		 DB	 8
  002db	08		 DB	 8
  002dc	08		 DB	 8
  002dd	08		 DB	 8
  002de	08		 DB	 8
  002df	08		 DB	 8
  002e0	08		 DB	 8
  002e1	08		 DB	 8
  002e2	08		 DB	 8
  002e3	08		 DB	 8
  002e4	08		 DB	 8
  002e5	08		 DB	 8
  002e6	08		 DB	 8
  002e7	08		 DB	 8
  002e8	08		 DB	 8
  002e9	08		 DB	 8
  002ea	08		 DB	 8
  002eb	08		 DB	 8
  002ec	08		 DB	 8
  002ed	08		 DB	 8
  002ee	08		 DB	 8
  002ef	08		 DB	 8
  002f0	08		 DB	 8
  002f1	08		 DB	 8
  002f2	08		 DB	 8
  002f3	08		 DB	 8
  002f4	08		 DB	 8
  002f5	08		 DB	 8
  002f6	08		 DB	 8
  002f7	08		 DB	 8
  002f8	08		 DB	 8
  002f9	08		 DB	 8
  002fa	08		 DB	 8
  002fb	08		 DB	 8
  002fc	08		 DB	 8
  002fd	08		 DB	 8
  002fe	08		 DB	 8
  002ff	08		 DB	 8
  00300	08		 DB	 8
  00301	08		 DB	 8
  00302	08		 DB	 8
  00303	08		 DB	 8
  00304	08		 DB	 8
  00305	08		 DB	 8
  00306	08		 DB	 8
  00307	08		 DB	 8
  00308	08		 DB	 8
  00309	08		 DB	 8
  0030a	08		 DB	 8
  0030b	08		 DB	 8
  0030c	08		 DB	 8
  0030d	08		 DB	 8
  0030e	08		 DB	 8
  0030f	08		 DB	 8
  00310	08		 DB	 8
  00311	08		 DB	 8
  00312	08		 DB	 8
  00313	08		 DB	 8
  00314	08		 DB	 8
  00315	08		 DB	 8
  00316	08		 DB	 8
  00317	04		 DB	 4
  00318	05		 DB	 5
  00319	06		 DB	 6
  0031a	08		 DB	 8
  0031b	08		 DB	 8
  0031c	08		 DB	 8
  0031d	08		 DB	 8
  0031e	08		 DB	 8
  0031f	08		 DB	 8
  00320	08		 DB	 8
  00321	08		 DB	 8
  00322	08		 DB	 8
  00323	08		 DB	 8
  00324	08		 DB	 8
  00325	08		 DB	 8
  00326	07		 DB	 7
_TEXT	ENDS
;	COMDAT text$x
text$x	SEGMENT
__unwindfunclet$?GetContinentName@CContinent@@QAE?AV?$CStringT@DV?$StrTraitMFC@DV?$ChTraitsCRT@D@ATL@@@@@ATL@@E@Z$0:
  00000	8b 45 f0	 mov	 eax, DWORD PTR $T2[ebp]
  00003	83 e0 01	 and	 eax, 1
  00006	0f 84 0c 00 00
	00		 je	 $LN14@GetContine
  0000c	83 65 f0 fe	 and	 DWORD PTR $T2[ebp], -2	; fffffffeH
  00010	8b 4d 08	 mov	 ecx, DWORD PTR ___$ReturnUdt$[ebp]
  00013	e9 00 00 00 00	 jmp	 ??1?$CStringT@DV?$StrTraitMFC@DV?$ChTraitsCRT@D@ATL@@@@@ATL@@QAE@XZ ; ATL::CStringT<char,StrTraitMFC<char,ATL::ChTraitsCRT<char> > >::~CStringT<char,StrTraitMFC<char,ATL::ChTraitsCRT<char> > >
$LN14@GetContine:
  00018	c3		 ret	 0
  00019	cc		 int	 3
  0001a	cc		 int	 3
  0001b	cc		 int	 3
  0001c	cc		 int	 3
  0001d	cc		 int	 3
__ehhandler$?GetContinentName@CContinent@@QAE?AV?$CStringT@DV?$StrTraitMFC@DV?$ChTraitsCRT@D@ATL@@@@@ATL@@E@Z:
  0001e	90		 npad	 1
  0001f	90		 npad	 1
  00020	8b 54 24 08	 mov	 edx, DWORD PTR [esp+8]
  00024	8d 42 0c	 lea	 eax, DWORD PTR [edx+12]
  00027	8b 4a f0	 mov	 ecx, DWORD PTR [edx-16]
  0002a	33 c8		 xor	 ecx, eax
  0002c	e8 00 00 00 00	 call	 @__security_check_cookie@4
  00031	b8 00 00 00 00	 mov	 eax, OFFSET __ehfuncinfo$?GetContinentName@CContinent@@QAE?AV?$CStringT@DV?$StrTraitMFC@DV?$ChTraitsCRT@D@ATL@@@@@ATL@@E@Z
  00036	e9 00 00 00 00	 jmp	 ___CxxFrameHandler3
text$x	ENDS
?GetContinentName@CContinent@@QAE?AV?$CStringT@DV?$StrTraitMFC@DV?$ChTraitsCRT@D@ATL@@@@@ATL@@E@Z ENDP ; CContinent::GetContinentName
; Function compile flags: /Ogtp
; File C:\IAGOS\server\v18\Source\Source\_Common\Continent.cpp
; File C:\IAGOS\server\v18\Source\Source\_Common\Obj.h
; File C:\IAGOS\server\v18\Source\Source\_Common\Continent.cpp
;	COMDAT ?IsValidObj@CContinent@@SAHPAVCMover@@@Z
_TEXT	SEGMENT
_pMover$ = 8						; size = 4
?IsValidObj@CContinent@@SAHPAVCMover@@@Z PROC		; CContinent::IsValidObj, COMDAT

; 282  : {

  00000	55		 push	 ebp
  00001	8b ec		 mov	 ebp, esp
; File C:\IAGOS\server\v18\Source\Source\_Common\Obj.h

; 327  : 	return pObj && ( pObj->IsDelete() == FALSE ); 

  00003	8b 45 08	 mov	 eax, DWORD PTR _pMover$[ebp]
  00006	85 c0		 test	 eax, eax
  00008	74 16		 je	 SHORT $LN3@IsValidObj

; 180  : 	BOOL			IsDelete()	{ return (m_dwFlags & OBJ_FLAG_DELETE);  }

  0000a	f6 40 04 01	 test	 BYTE PTR [eax+4], 1

; 327  : 	return pObj && ( pObj->IsDelete() == FALSE ); 

  0000e	75 10		 jne	 SHORT $LN3@IsValidObj
; File C:\IAGOS\server\v18\Source\Source\_Common\Continent.cpp

; 283  : 	return ( ::IsValidObj( pMover ) && pMover->GetWorld() );

  00010	83 b8 6c 01 00
	00 00		 cmp	 DWORD PTR [eax+364], 0
  00017	74 07		 je	 SHORT $LN3@IsValidObj
  00019	b8 01 00 00 00	 mov	 eax, 1

; 284  : }

  0001e	5d		 pop	 ebp
  0001f	c3		 ret	 0
$LN3@IsValidObj:

; 283  : 	return ( ::IsValidObj( pMover ) && pMover->GetWorld() );

  00020	33 c0		 xor	 eax, eax

; 284  : }

  00022	5d		 pop	 ebp
  00023	c3		 ret	 0
?IsValidObj@CContinent@@SAHPAVCMover@@@Z ENDP		; CContinent::IsValidObj
_TEXT	ENDS
; Function compile flags: /Ogtp
; File C:\IAGOS\server\v18\Source\Source\_Common\Continent.cpp
;	COMDAT ?GetArea@CContinent@@QAEEPAVCMover@@@Z
_TEXT	SEGMENT
_pMover$ = 8						; size = 4
?GetArea@CContinent@@QAEEPAVCMover@@@Z PROC		; CContinent::GetArea, COMDAT
; _this$ = ecx

; 273  : {

  00000	55		 push	 ebp
  00001	8b ec		 mov	 ebp, esp
  00003	57		 push	 edi

; 274  : 	if( !CContinent::IsValidObj( pMover ) )

  00004	ff 75 08	 push	 DWORD PTR _pMover$[ebp]
  00007	8b f9		 mov	 edi, ecx
  00009	e8 00 00 00 00	 call	 ?IsValidObj@CContinent@@SAHPAVCMover@@@Z ; CContinent::IsValidObj
  0000e	83 c4 04	 add	 esp, 4
  00011	85 c0		 test	 eax, eax
  00013	75 07		 jne	 SHORT $LN2@GetArea

; 275  : 		return CONT_NODATA;

  00015	32 c0		 xor	 al, al
  00017	5f		 pop	 edi

; 279  : }

  00018	5d		 pop	 ebp
  00019	c2 04 00	 ret	 4
$LN2@GetArea:

; 276  : 
; 277  : 
; 278  : 	return GetArea( GetContinent(pMover) );	

  0001c	ff 75 08	 push	 DWORD PTR _pMover$[ebp]
  0001f	8b cf		 mov	 ecx, edi
  00021	e8 00 00 00 00	 call	 ?GetContinent@CContinent@@QAEEPAVCMover@@@Z ; CContinent::GetContinent
  00026	0f b6 c0	 movzx	 eax, al
  00029	8b cf		 mov	 ecx, edi
  0002b	50		 push	 eax
  0002c	e8 00 00 00 00	 call	 ?GetArea@CContinent@@AAEEE@Z ; CContinent::GetArea
  00031	5f		 pop	 edi

; 279  : }

  00032	5d		 pop	 ebp
  00033	c2 04 00	 ret	 4
?GetArea@CContinent@@QAEEPAVCMover@@@Z ENDP		; CContinent::GetArea
_TEXT	ENDS
; Function compile flags: /Ogtp
; File C:\IAGOS\server\v18\Source\Source\_Common\Continent.cpp
; File C:\IAGOS\server\v18\Source\Source\_Common\Obj.h
; File C:\IAGOS\server\v18\Source\Source\_Common\Continent.cpp
; File C:\IAGOS\server\v18\Source\Source\_Common\Obj.h
; File C:\IAGOS\server\v18\Source\Source\_Common\Continent.cpp
; File C:\IAGOS\server\v18\Source\Source\_Common\Obj.h
; File C:\IAGOS\server\v18\Source\Source\_Common\Continent.cpp
;	COMDAT ?GetContinent@CContinent@@QAEEPAVCMover@@@Z
_TEXT	SEGMENT
$T1 = -12						; size = 12
_pMover$ = 8						; size = 4
?GetContinent@CContinent@@QAEEPAVCMover@@@Z PROC	; CContinent::GetContinent, COMDAT
; _this$ = ecx

; 258  : {

  00000	55		 push	 ebp
  00001	8b ec		 mov	 ebp, esp
  00003	83 ec 0c	 sub	 esp, 12			; 0000000cH
  00006	56		 push	 esi

; 259  : 	if( !CContinent::IsValidObj( pMover ) )

  00007	8b 75 08	 mov	 esi, DWORD PTR _pMover$[ebp]
  0000a	57		 push	 edi
  0000b	56		 push	 esi
  0000c	8b f9		 mov	 edi, ecx
  0000e	e8 00 00 00 00	 call	 ?IsValidObj@CContinent@@SAHPAVCMover@@@Z ; CContinent::IsValidObj
  00013	83 c4 04	 add	 esp, 4
  00016	85 c0		 test	 eax, eax
  00018	75 0a		 jne	 SHORT $LN4@GetContine
$LN15@GetContine:
  0001a	5f		 pop	 edi

; 267  : 	}
; 268  : 
; 269  : 	return CONT_NODATA;
; 270  : }

  0001b	32 c0		 xor	 al, al
  0001d	5e		 pop	 esi
  0001e	8b e5		 mov	 esp, ebp
  00020	5d		 pop	 ebp
  00021	c2 04 00	 ret	 4
$LN4@GetContine:

; 260  : 		return CONT_NODATA;
; 261  : 
; 262  : 	switch( pMover->GetWorld()->m_dwWorldID )

  00024	8b 86 6c 01 00
	00		 mov	 eax, DWORD PTR [esi+364]
  0002a	8b 00		 mov	 eax, DWORD PTR [eax]
  0002c	83 e8 01	 sub	 eax, 1
  0002f	74 20		 je	 SHORT $LN5@GetContine
  00031	2d c9 00 00 00	 sub	 eax, 201		; 000000c9H
  00036	74 0f		 je	 SHORT $LN7@GetContine
  00038	83 e8 06	 sub	 eax, 6
  0003b	75 dd		 jne	 SHORT $LN15@GetContine

; 265  : 		case WI_WORLD_ARENA:	return CONT_DARKON12;	// ľĆ·ąłŞ´Â ´ŮÄÜ 1, 2 Áö±¸żˇ Ć÷ÇÔ

  0003d	5f		 pop	 edi
  0003e	b0 f1		 mov	 al, 241			; 000000f1H

; 267  : 	}
; 268  : 
; 269  : 	return CONT_NODATA;
; 270  : }

  00040	5e		 pop	 esi
  00041	8b e5		 mov	 esp, ebp
  00043	5d		 pop	 ebp
  00044	c2 04 00	 ret	 4
$LN7@GetContine:
  00047	5f		 pop	 edi

; 266  : 		case WI_WORLD_GUILDWAR : return CONT_FLARIS;	// ±ćµĺ´ëŔüŔĺŔş ÇĂ¶ó¸®˝ş

  00048	b0 01		 mov	 al, 1

; 267  : 	}
; 268  : 
; 269  : 	return CONT_NODATA;
; 270  : }

  0004a	5e		 pop	 esi
  0004b	8b e5		 mov	 esp, ebp
  0004d	5d		 pop	 ebp
  0004e	c2 04 00	 ret	 4
$LN5@GetContine:
; File C:\IAGOS\server\v18\Source\Source\_Common\Obj.h

; 215  : 	D3DXVECTOR3		GetPos()	{ return m_vPos; }

  00051	8b 86 68 01 00
	00		 mov	 eax, DWORD PTR [esi+360]
; File C:\IAGOS\server\v18\Source\Source\_Common\Continent.cpp

; 264  : 		case WI_WORLD_MADRIGAL:	return GetContinent( pMover->GetPos() );

  00057	8b cf		 mov	 ecx, edi
; File C:\IAGOS\server\v18\Source\Source\_Common\Obj.h

; 215  : 	D3DXVECTOR3		GetPos()	{ return m_vPos; }

  00059	f3 0f 7e 86 60
	01 00 00	 movq	 xmm0, QWORD PTR [esi+352]
  00061	89 45 fc	 mov	 DWORD PTR $T1[ebp+8], eax
; File C:\IAGOS\server\v18\Source\Source\_Common\Continent.cpp

; 264  : 		case WI_WORLD_MADRIGAL:	return GetContinent( pMover->GetPos() );

  00064	8d 45 f4	 lea	 eax, DWORD PTR $T1[ebp]
  00067	50		 push	 eax
; File C:\IAGOS\server\v18\Source\Source\_Common\Obj.h

; 215  : 	D3DXVECTOR3		GetPos()	{ return m_vPos; }

  00068	66 0f d6 45 f4	 movq	 QWORD PTR $T1[ebp], xmm0
; File C:\IAGOS\server\v18\Source\Source\_Common\Continent.cpp

; 264  : 		case WI_WORLD_MADRIGAL:	return GetContinent( pMover->GetPos() );

  0006d	e8 00 00 00 00	 call	 ?GetContinent@CContinent@@QAEEABUD3DXVECTOR3@@@Z ; CContinent::GetContinent
  00072	5f		 pop	 edi

; 267  : 	}
; 268  : 
; 269  : 	return CONT_NODATA;
; 270  : }

  00073	5e		 pop	 esi
  00074	8b e5		 mov	 esp, ebp
  00076	5d		 pop	 ebp
  00077	c2 04 00	 ret	 4
?GetContinent@CContinent@@QAEEPAVCMover@@@Z ENDP	; CContinent::GetContinent
_TEXT	ENDS
; Function compile flags: /Ogtp
; File C:\IAGOS\server\v18\Source\Source\_Common\Continent.cpp
;	COMDAT ?GetInstance@CContinent@@SAPAV1@XZ
_TEXT	SEGMENT
__$EHRec$ = -12						; size = 12
?GetInstance@CContinent@@SAPAV1@XZ PROC			; CContinent::GetInstance, COMDAT

; 24   : {

  00000	55		 push	 ebp
  00001	8b ec		 mov	 ebp, esp
  00003	6a ff		 push	 -1
  00005	68 00 00 00 00	 push	 __ehhandler$?GetInstance@CContinent@@SAPAV1@XZ
  0000a	64 a1 00 00 00
	00		 mov	 eax, DWORD PTR fs:0
  00010	50		 push	 eax
  00011	a1 00 00 00 00	 mov	 eax, DWORD PTR ___security_cookie
  00016	33 c5		 xor	 eax, ebp
  00018	50		 push	 eax
  00019	8d 45 f4	 lea	 eax, DWORD PTR __$EHRec$[ebp]
  0001c	64 a3 00 00 00
	00		 mov	 DWORD PTR fs:0, eax

; 25   : 	static CContinent sContinent;

  00022	64 a1 00 00 00
	00		 mov	 eax, DWORD PTR fs:__tls_array
  00028	8b 0d 00 00 00
	00		 mov	 ecx, DWORD PTR __tls_index
  0002e	8b 0c 88	 mov	 ecx, DWORD PTR [eax+ecx*4]
  00031	a1 00 00 00 00	 mov	 eax, DWORD PTR ?$TSS0@?1??GetInstance@CContinent@@SAPAV2@XZ@4HA
  00036	3b 81 00 00 00
	00		 cmp	 eax, DWORD PTR __Init_thread_epoch[ecx]
  0003c	7f 14		 jg	 SHORT $LN9@GetInstanc
$LN5@GetInstanc:

; 26   : 	return &sContinent;	
; 27   : }

  0003e	b8 00 00 00 00	 mov	 eax, OFFSET ?sContinent@?1??GetInstance@CContinent@@SAPAV2@XZ@4V2@A
  00043	8b 4d f4	 mov	 ecx, DWORD PTR __$EHRec$[ebp]
  00046	64 89 0d 00 00
	00 00		 mov	 DWORD PTR fs:0, ecx
  0004d	59		 pop	 ecx
  0004e	8b e5		 mov	 esp, ebp
  00050	5d		 pop	 ebp
  00051	c3		 ret	 0
$LN9@GetInstanc:

; 25   : 	static CContinent sContinent;

  00052	68 00 00 00 00	 push	 OFFSET ?$TSS0@?1??GetInstance@CContinent@@SAPAV2@XZ@4HA
  00057	e8 00 00 00 00	 call	 __Init_thread_header
  0005c	83 c4 04	 add	 esp, 4
  0005f	83 3d 00 00 00
	00 ff		 cmp	 DWORD PTR ?$TSS0@?1??GetInstance@CContinent@@SAPAV2@XZ@4HA, -1
  00066	75 d6		 jne	 SHORT $LN5@GetInstanc
  00068	b9 00 00 00 00	 mov	 ecx, OFFSET ?sContinent@?1??GetInstance@CContinent@@SAPAV2@XZ@4V2@A
  0006d	c7 45 fc 00 00
	00 00		 mov	 DWORD PTR __$EHRec$[ebp+8], 0
  00074	e8 00 00 00 00	 call	 ??0CContinent@@QAE@XZ	; CContinent::CContinent
  00079	68 00 00 00 00	 push	 OFFSET ??__FsContinent@?1??GetInstance@CContinent@@SAPAV1@XZ@YAXXZ ; `CContinent::GetInstance'::`2'::`dynamic atexit destructor for 'sContinent''
  0007e	e8 00 00 00 00	 call	 _atexit
  00083	68 00 00 00 00	 push	 OFFSET ?$TSS0@?1??GetInstance@CContinent@@SAPAV2@XZ@4HA
  00088	e8 00 00 00 00	 call	 __Init_thread_footer
  0008d	83 c4 08	 add	 esp, 8
  00090	eb ac		 jmp	 SHORT $LN5@GetInstanc
_TEXT	ENDS
;	COMDAT text$x
text$x	SEGMENT
__unwindfunclet$?GetInstance@CContinent@@SAPAV1@XZ$0:
  00000	68 00 00 00 00	 push	 OFFSET ?$TSS0@?1??GetInstance@CContinent@@SAPAV2@XZ@4HA
  00005	e8 00 00 00 00	 call	 __Init_thread_abort
  0000a	59		 pop	 ecx
  0000b	c3		 ret	 0
  0000c	cc		 int	 3
  0000d	cc		 int	 3
  0000e	cc		 int	 3
  0000f	cc		 int	 3
  00010	cc		 int	 3
__ehhandler$?GetInstance@CContinent@@SAPAV1@XZ:
  00011	90		 npad	 1
  00012	90		 npad	 1
  00013	8b 54 24 08	 mov	 edx, DWORD PTR [esp+8]
  00017	8d 42 0c	 lea	 eax, DWORD PTR [edx+12]
  0001a	8b 4a fc	 mov	 ecx, DWORD PTR [edx-4]
  0001d	33 c8		 xor	 ecx, eax
  0001f	e8 00 00 00 00	 call	 @__security_check_cookie@4
  00024	b8 00 00 00 00	 mov	 eax, OFFSET __ehfuncinfo$?GetInstance@CContinent@@SAPAV1@XZ
  00029	e9 00 00 00 00	 jmp	 ___CxxFrameHandler3
text$x	ENDS
?GetInstance@CContinent@@SAPAV1@XZ ENDP			; CContinent::GetInstance
; Function compile flags: /Ogtp
; File C:\IAGOS\server\v18\Source\Source\_Common\Continent.cpp
; File C:\Program Files\Microsoft Visual Studio\2022\Professional\VC\Tools\MSVC\14.44.35207\include\xtree
; File C:\IAGOS\server\v18\Source\Source\_Common\Continent.cpp
; File C:\Program Files\Microsoft Visual Studio\2022\Professional\VC\Tools\MSVC\14.44.35207\include\xtree
; File C:\Program Files\Microsoft Visual Studio\2022\Professional\VC\Tools\MSVC\14.44.35207\include\xmemory
; File C:\Program Files\Microsoft Visual Studio\2022\Professional\VC\Tools\MSVC\14.44.35207\include\xtree
; File C:\IAGOS\server\v18\Source\Source\_Common\Continent.cpp
; File C:\Program Files\Microsoft Visual Studio\2022\Professional\VC\Tools\MSVC\14.44.35207\include\xmemory
; File C:\Program Files\Microsoft Visual Studio\2022\Professional\VC\Tools\MSVC\14.44.35207\include\xtree
; File C:\Program Files\Microsoft Visual Studio\2022\Professional\VC\Tools\MSVC\14.44.35207\include\xmemory
; File C:\IAGOS\server\v18\Source\Source\_Common\Continent.cpp
;	COMDAT ??1CContinent@@UAE@XZ
_TEXT	SEGMENT
??1CContinent@@UAE@XZ PROC				; CContinent::~CContinent, COMDAT
; _this$ = ecx

; 19   : {

  00000	56		 push	 esi
  00001	57		 push	 edi
  00002	8b f9		 mov	 edi, ecx

; 21   : }

  00004	8d 77 0c	 lea	 esi, DWORD PTR [edi+12]
; File C:\Program Files\Microsoft Visual Studio\2022\Professional\VC\Tools\MSVC\14.44.35207\include\xtree

; 777  :         _Erase_tree(_Al, _Myhead->_Parent);

  00007	8b ce		 mov	 ecx, esi
; File C:\IAGOS\server\v18\Source\Source\_Common\Continent.cpp

; 19   : {

  00009	c7 07 00 00 00
	00		 mov	 DWORD PTR [edi], OFFSET ??_7CContinent@@6B@
; File C:\Program Files\Microsoft Visual Studio\2022\Professional\VC\Tools\MSVC\14.44.35207\include\xtree

; 777  :         _Erase_tree(_Al, _Myhead->_Parent);

  0000f	8b 06		 mov	 eax, DWORD PTR [esi]
  00011	ff 70 04	 push	 DWORD PTR [eax+4]
  00014	56		 push	 esi
  00015	e8 00 00 00 00	 call	 ??$_Erase_tree@V?$allocator@U?$_Tree_node@U?$pair@$$CBEV?$vector@VCPoint@@V?$allocator@VCPoint@@@std@@@std@@@std@@PAX@std@@@std@@@?$_Tree_val@U?$_Tree_simple_types@U?$pair@$$CBEV?$vector@VCPoint@@V?$allocator@VCPoint@@@std@@@std@@@std@@@std@@@std@@QAEXAAV?$allocator@U?$_Tree_node@U?$pair@$$CBEV?$vector@VCPoint@@V?$allocator@VCPoint@@@std@@@std@@@std@@PAX@std@@@1@PAU?$_Tree_node@U?$pair@$$CBEV?$vector@VCPoint@@V?$allocator@VCPoint@@@std@@@std@@@std@@PAX@1@@Z ; std::_Tree_val<std::_Tree_simple_types<std::pair<unsigned char const ,std::vector<CPoint,std::allocator<CPoint> > > > >::_Erase_tree<std::allocator<std::_Tree_node<std::pair<unsigned char const ,std::vector<CPoint,std::allocator<CPoint> > >,void *> > >
; File C:\Program Files\Microsoft Visual Studio\2022\Professional\VC\Tools\MSVC\14.44.35207\include\xmemory

; 289  :         ::operator delete(_Ptr, _Bytes);

  0001a	6a 20		 push	 32			; 00000020H
  0001c	ff 36		 push	 DWORD PTR [esi]
  0001e	e8 00 00 00 00	 call	 ??3@YAXPAXI@Z		; operator delete
; File C:\Program Files\Microsoft Visual Studio\2022\Professional\VC\Tools\MSVC\14.44.35207\include\xtree

; 777  :         _Erase_tree(_Al, _Myhead->_Parent);

  00023	8b 47 04	 mov	 eax, DWORD PTR [edi+4]
; File C:\IAGOS\server\v18\Source\Source\_Common\Continent.cpp

; 21   : }

  00026	8d 77 04	 lea	 esi, DWORD PTR [edi+4]
; File C:\Program Files\Microsoft Visual Studio\2022\Professional\VC\Tools\MSVC\14.44.35207\include\xmemory

; 289  :         ::operator delete(_Ptr, _Bytes);

  00029	83 c4 08	 add	 esp, 8
; File C:\Program Files\Microsoft Visual Studio\2022\Professional\VC\Tools\MSVC\14.44.35207\include\xtree

; 777  :         _Erase_tree(_Al, _Myhead->_Parent);

  0002c	8b ce		 mov	 ecx, esi
  0002e	ff 70 04	 push	 DWORD PTR [eax+4]
  00031	56		 push	 esi
  00032	e8 00 00 00 00	 call	 ??$_Erase_tree@V?$allocator@U?$_Tree_node@U?$pair@$$CBEV?$vector@VCPoint@@V?$allocator@VCPoint@@@std@@@std@@@std@@PAX@std@@@std@@@?$_Tree_val@U?$_Tree_simple_types@U?$pair@$$CBEV?$vector@VCPoint@@V?$allocator@VCPoint@@@std@@@std@@@std@@@std@@@std@@QAEXAAV?$allocator@U?$_Tree_node@U?$pair@$$CBEV?$vector@VCPoint@@V?$allocator@VCPoint@@@std@@@std@@@std@@PAX@std@@@1@PAU?$_Tree_node@U?$pair@$$CBEV?$vector@VCPoint@@V?$allocator@VCPoint@@@std@@@std@@@std@@PAX@1@@Z ; std::_Tree_val<std::_Tree_simple_types<std::pair<unsigned char const ,std::vector<CPoint,std::allocator<CPoint> > > > >::_Erase_tree<std::allocator<std::_Tree_node<std::pair<unsigned char const ,std::vector<CPoint,std::allocator<CPoint> > >,void *> > >
; File C:\Program Files\Microsoft Visual Studio\2022\Professional\VC\Tools\MSVC\14.44.35207\include\xmemory

; 289  :         ::operator delete(_Ptr, _Bytes);

  00037	6a 20		 push	 32			; 00000020H
  00039	ff 36		 push	 DWORD PTR [esi]
  0003b	e8 00 00 00 00	 call	 ??3@YAXPAXI@Z		; operator delete
  00040	83 c4 08	 add	 esp, 8
  00043	5f		 pop	 edi
  00044	5e		 pop	 esi
; File C:\IAGOS\server\v18\Source\Source\_Common\Continent.cpp

; 21   : }

  00045	c3		 ret	 0
??1CContinent@@UAE@XZ ENDP				; CContinent::~CContinent
_TEXT	ENDS
; Function compile flags: /Ogtp
; File C:\IAGOS\server\v18\Source\Source\_Common\Continent.cpp
; File C:\Program Files\Microsoft Visual Studio\2022\Professional\VC\Tools\MSVC\14.44.35207\include\xmemory
; File C:\IAGOS\server\v18\Source\Source\_Common\Continent.cpp
; File C:\Program Files\Microsoft Visual Studio\2022\Professional\VC\Tools\MSVC\14.44.35207\include\xtree
; File C:\Program Files\Microsoft Visual Studio\2022\Professional\VC\Tools\MSVC\14.44.35207\include\xmemory
; File C:\Program Files\Microsoft Visual Studio\2022\Professional\VC\Tools\MSVC\14.44.35207\include\xtree
; File C:\IAGOS\server\v18\Source\Source\_Common\Continent.cpp
; File C:\Program Files\Microsoft Visual Studio\2022\Professional\VC\Tools\MSVC\14.44.35207\include\xmemory
; File C:\IAGOS\server\v18\Source\Source\_Common\Continent.cpp
; File C:\Program Files\Microsoft Visual Studio\2022\Professional\VC\Tools\MSVC\14.44.35207\include\xtree
; File C:\Program Files\Microsoft Visual Studio\2022\Professional\VC\Tools\MSVC\14.44.35207\include\xmemory
; File C:\Program Files\Microsoft Visual Studio\2022\Professional\VC\Tools\MSVC\14.44.35207\include\xtree
; File C:\IAGOS\server\v18\Source\Source\_Common\Continent.cpp
;	COMDAT ??0CContinent@@QAE@XZ
_TEXT	SEGMENT
_this$ = -20						; size = 4
_this$ = -20						; size = 4
_this$ = -16						; size = 4
__$EHRec$ = -12						; size = 12
??0CContinent@@QAE@XZ PROC				; CContinent::CContinent, COMDAT
; _this$ = ecx

; 14   : {

  00000	55		 push	 ebp
  00001	8b ec		 mov	 ebp, esp
  00003	6a ff		 push	 -1
  00005	68 00 00 00 00	 push	 __ehhandler$??0CContinent@@QAE@XZ
  0000a	64 a1 00 00 00
	00		 mov	 eax, DWORD PTR fs:0
  00010	50		 push	 eax
  00011	83 ec 08	 sub	 esp, 8
  00014	56		 push	 esi
  00015	57		 push	 edi
  00016	a1 00 00 00 00	 mov	 eax, DWORD PTR ___security_cookie
  0001b	33 c5		 xor	 eax, ebp
  0001d	50		 push	 eax
  0001e	8d 45 f4	 lea	 eax, DWORD PTR __$EHRec$[ebp]
  00021	64 a3 00 00 00
	00		 mov	 DWORD PTR fs:0, eax
  00027	8b f9		 mov	 edi, ecx
  00029	89 7d f0	 mov	 DWORD PTR _this$[ebp], edi
  0002c	8d 77 04	 lea	 esi, DWORD PTR [edi+4]
  0002f	c7 07 00 00 00
	00		 mov	 DWORD PTR [edi], OFFSET ??_7CContinent@@6B@
; File C:\Program Files\Microsoft Visual Studio\2022\Professional\VC\Tools\MSVC\14.44.35207\include\xmemory

; 136  :         return ::operator new(_Bytes);

  00035	6a 20		 push	 32			; 00000020H
; File C:\IAGOS\server\v18\Source\Source\_Common\Continent.cpp

; 14   : {

  00037	89 75 ec	 mov	 DWORD PTR _this$[ebp], esi
; File C:\Program Files\Microsoft Visual Studio\2022\Professional\VC\Tools\MSVC\14.44.35207\include\xtree

; 450  :     _Tree_val() noexcept : _Myhead(), _Mysize(0) {}

  0003a	c7 06 00 00 00
	00		 mov	 DWORD PTR [esi], 0
  00040	c7 46 04 00 00
	00 00		 mov	 DWORD PTR [esi+4], 0
; File C:\Program Files\Microsoft Visual Studio\2022\Professional\VC\Tools\MSVC\14.44.35207\include\xmemory

; 136  :         return ::operator new(_Bytes);

  00047	e8 00 00 00 00	 call	 ??2@YAPAXI@Z		; operator new
; File C:\Program Files\Microsoft Visual Studio\2022\Professional\VC\Tools\MSVC\14.44.35207\include\xtree

; 346  :         _Construct_in_place(_Pnode->_Left, _Pnode);

  0004c	89 00		 mov	 DWORD PTR [eax], eax

; 347  :         _Construct_in_place(_Pnode->_Parent, _Pnode);

  0004e	89 40 04	 mov	 DWORD PTR [eax+4], eax

; 348  :         _Construct_in_place(_Pnode->_Right, _Pnode);

  00051	89 40 08	 mov	 DWORD PTR [eax+8], eax

; 349  :         _Pnode->_Color = _Black;

  00054	66 c7 40 0c 01
	01		 mov	 WORD PTR [eax+12], 257	; 00000101H

; 1957 :         _Scary->_Myhead = _Node::_Buyheadnode(_Getal());

  0005a	89 06		 mov	 DWORD PTR [esi], eax
; File C:\IAGOS\server\v18\Source\Source\_Common\Continent.cpp

; 14   : {

  0005c	8d 77 0c	 lea	 esi, DWORD PTR [edi+12]
  0005f	c7 45 fc 00 00
	00 00		 mov	 DWORD PTR __$EHRec$[ebp+8], 0
; File C:\Program Files\Microsoft Visual Studio\2022\Professional\VC\Tools\MSVC\14.44.35207\include\xmemory

; 136  :         return ::operator new(_Bytes);

  00066	6a 20		 push	 32			; 00000020H
; File C:\IAGOS\server\v18\Source\Source\_Common\Continent.cpp

; 14   : {

  00068	89 75 ec	 mov	 DWORD PTR _this$[ebp], esi
; File C:\Program Files\Microsoft Visual Studio\2022\Professional\VC\Tools\MSVC\14.44.35207\include\xtree

; 450  :     _Tree_val() noexcept : _Myhead(), _Mysize(0) {}

  0006b	c7 06 00 00 00
	00		 mov	 DWORD PTR [esi], 0
  00071	c7 46 04 00 00
	00 00		 mov	 DWORD PTR [esi+4], 0
; File C:\Program Files\Microsoft Visual Studio\2022\Professional\VC\Tools\MSVC\14.44.35207\include\xmemory

; 136  :         return ::operator new(_Bytes);

  00078	e8 00 00 00 00	 call	 ??2@YAPAXI@Z		; operator new
  0007d	83 c4 08	 add	 esp, 8
; File C:\Program Files\Microsoft Visual Studio\2022\Professional\VC\Tools\MSVC\14.44.35207\include\xtree

; 346  :         _Construct_in_place(_Pnode->_Left, _Pnode);

  00080	89 00		 mov	 DWORD PTR [eax], eax

; 347  :         _Construct_in_place(_Pnode->_Parent, _Pnode);

  00082	89 40 04	 mov	 DWORD PTR [eax+4], eax

; 348  :         _Construct_in_place(_Pnode->_Right, _Pnode);

  00085	89 40 08	 mov	 DWORD PTR [eax+8], eax

; 349  :         _Pnode->_Color = _Black;

  00088	66 c7 40 0c 01
	01		 mov	 WORD PTR [eax+12], 257	; 00000101H

; 1957 :         _Scary->_Myhead = _Node::_Buyheadnode(_Getal());

  0008e	89 06		 mov	 DWORD PTR [esi], eax
; File C:\IAGOS\server\v18\Source\Source\_Common\Continent.cpp

; 15   : 	Init();

  00090	8b cf		 mov	 ecx, edi
  00092	c6 45 fc 01	 mov	 BYTE PTR __$EHRec$[ebp+8], 1
  00096	e8 00 00 00 00	 call	 ?Init@CContinent@@AAEXXZ ; CContinent::Init

; 16   : }

  0009b	8b c7		 mov	 eax, edi
  0009d	8b 4d f4	 mov	 ecx, DWORD PTR __$EHRec$[ebp]
  000a0	64 89 0d 00 00
	00 00		 mov	 DWORD PTR fs:0, ecx
  000a7	59		 pop	 ecx
  000a8	5f		 pop	 edi
  000a9	5e		 pop	 esi
  000aa	8b e5		 mov	 esp, ebp
  000ac	5d		 pop	 ebp
  000ad	c3		 ret	 0
_TEXT	ENDS
;	COMDAT text$x
text$x	SEGMENT
__unwindfunclet$??0CContinent@@QAE@XZ$0:
  00000	8b 4d f0	 mov	 ecx, DWORD PTR _this$[ebp]
  00003	83 c1 04	 add	 ecx, 4
  00006	e9 00 00 00 00	 jmp	 ??1?$map@EV?$vector@VCPoint@@V?$allocator@VCPoint@@@std@@@std@@U?$less@E@2@V?$allocator@U?$pair@$$CBEV?$vector@VCPoint@@V?$allocator@VCPoint@@@std@@@std@@@std@@@2@@std@@QAE@XZ
__unwindfunclet$??0CContinent@@QAE@XZ$1:
  0000b	8b 4d f0	 mov	 ecx, DWORD PTR _this$[ebp]
  0000e	83 c1 0c	 add	 ecx, 12			; 0000000cH
  00011	e9 00 00 00 00	 jmp	 ??1?$map@EV?$vector@VCPoint@@V?$allocator@VCPoint@@@std@@@std@@U?$less@E@2@V?$allocator@U?$pair@$$CBEV?$vector@VCPoint@@V?$allocator@VCPoint@@@std@@@std@@@std@@@2@@std@@QAE@XZ
  00016	cc		 int	 3
  00017	cc		 int	 3
  00018	cc		 int	 3
  00019	cc		 int	 3
  0001a	cc		 int	 3
__ehhandler$??0CContinent@@QAE@XZ:
  0001b	90		 npad	 1
  0001c	90		 npad	 1
  0001d	8b 54 24 08	 mov	 edx, DWORD PTR [esp+8]
  00021	8d 42 0c	 lea	 eax, DWORD PTR [edx+12]
  00024	8b 4a ec	 mov	 ecx, DWORD PTR [edx-20]
  00027	33 c8		 xor	 ecx, eax
  00029	e8 00 00 00 00	 call	 @__security_check_cookie@4
  0002e	b8 00 00 00 00	 mov	 eax, OFFSET __ehfuncinfo$??0CContinent@@QAE@XZ
  00033	e9 00 00 00 00	 jmp	 ___CxxFrameHandler3
text$x	ENDS
??0CContinent@@QAE@XZ ENDP				; CContinent::CContinent
; Function compile flags: /Ogtp
; File C:\Program Files\Microsoft Visual Studio\2022\Professional\VC\Tools\MSVC\14.44.35207\include\xmemory
;	COMDAT ??$_Allocate_manually_vector_aligned@U_Default_allocate_traits@std@@@std@@YAPAXI@Z
_TEXT	SEGMENT
__Bytes$ = 8						; size = 4
??$_Allocate_manually_vector_aligned@U_Default_allocate_traits@std@@@std@@YAPAXI@Z PROC ; std::_Allocate_manually_vector_aligned<std::_Default_allocate_traits>, COMDAT

; 182  : __declspec(allocator) void* _Allocate_manually_vector_aligned(const size_t _Bytes) {

  00000	55		 push	 ebp
  00001	8b ec		 mov	 ebp, esp

; 183  :     // allocate _Bytes manually aligned to at least _Big_allocation_alignment
; 184  :     const size_t _Block_size = _Non_user_size + _Bytes;

  00003	8b 45 08	 mov	 eax, DWORD PTR __Bytes$[ebp]
  00006	8d 48 23	 lea	 ecx, DWORD PTR [eax+35]

; 185  :     if (_Block_size <= _Bytes) {

  00009	3b c8		 cmp	 ecx, eax
  0000b	0f 86 00 00 00
	00		 jbe	 ?_Throw_bad_array_new_length@std@@YAXXZ ; std::_Throw_bad_array_new_length

; 136  :         return ::operator new(_Bytes);

  00011	51		 push	 ecx
  00012	e8 00 00 00 00	 call	 ??2@YAPAXI@Z		; operator new

; 186  :         _Throw_bad_array_new_length(); // add overflow
; 187  :     }
; 188  : 
; 189  :     const uintptr_t _Ptr_container = reinterpret_cast<uintptr_t>(_Traits::_Allocate(_Block_size));

  00017	8b c8		 mov	 ecx, eax

; 136  :         return ::operator new(_Bytes);

  00019	83 c4 04	 add	 esp, 4

; 190  :     _STL_VERIFY(_Ptr_container != 0, "invalid argument"); // validate even in release since we're doing p[-1]

  0001c	85 c9		 test	 ecx, ecx
  0001e	74 0b		 je	 SHORT $LN9@Allocate_m

; 191  :     void* const _Ptr = reinterpret_cast<void*>((_Ptr_container + _Non_user_size) & ~(_Big_allocation_alignment - 1));

  00020	8d 41 23	 lea	 eax, DWORD PTR [ecx+35]
  00023	83 e0 e0	 and	 eax, -32		; ffffffe0H

; 192  :     static_cast<uintptr_t*>(_Ptr)[-1] = _Ptr_container;

  00026	89 48 fc	 mov	 DWORD PTR [eax-4], ecx

; 193  : 
; 194  : #ifdef _DEBUG
; 195  :     static_cast<uintptr_t*>(_Ptr)[-2] = _Big_allocation_sentinel;
; 196  : #endif // defined(_DEBUG)
; 197  :     return _Ptr;
; 198  : }

  00029	5d		 pop	 ebp
  0002a	c3		 ret	 0
$LN9@Allocate_m:

; 190  :     _STL_VERIFY(_Ptr_container != 0, "invalid argument"); // validate even in release since we're doing p[-1]

  0002b	6a 00		 push	 0
  0002d	6a 00		 push	 0
  0002f	6a 00		 push	 0
  00031	6a 00		 push	 0
  00033	6a 00		 push	 0
  00035	e8 00 00 00 00	 call	 __invoke_watson
$LN7@Allocate_m:
  0003a	cc		 int	 3
??$_Allocate_manually_vector_aligned@U_Default_allocate_traits@std@@@std@@YAPAXI@Z ENDP ; std::_Allocate_manually_vector_aligned<std::_Default_allocate_traits>
_TEXT	ENDS
; Function compile flags: /Ogtp
; File C:\IAGOS\server\v18\Source\Source\_Common\Project.h
; File C:\IAGOS\server\v18\Source\Source\_Common\data.h
; File C:\IAGOS\server\v18\Source\Source\_Common\Project.h
;	COMDAT ?GetText@CProject@@QAEPBDK@Z
_TEXT	SEGMENT
_dwIndex$ = 8						; size = 4
?GetText@CProject@@QAEPBDK@Z PROC			; CProject::GetText, COMDAT
; _this$ = ecx

; 1426 : { 

  00000	55		 push	 ebp
  00001	8b ec		 mov	 ebp, esp

; 1427 : 	VERIFY_RANGE( (int)( dwIndex ), 0, m_colorText.GetSize(), "GetText range_error", "error" );

  00003	8b 55 08	 mov	 edx, DWORD PTR _dwIndex$[ebp]
  00006	56		 push	 esi
  00007	85 d2		 test	 edx, edx
  00009	78 29		 js	 SHORT $LN19@GetText
  0000b	3b 91 ac 02 00
	00		 cmp	 edx, DWORD PTR [ecx+684]
  00011	7d 21		 jge	 SHORT $LN19@GetText
; File C:\IAGOS\server\v18\Source\Source\_Common\data.h

; 270  : 	if( dwIndex >= (DWORD)m_nMaxIndex )

  00013	73 15		 jae	 SHORT $LN18@GetText

; 271  : 		return NULL;
; 272  : 	return (T*) m_apOffset[ dwIndex ];

  00015	8b 81 9c 02 00
	00		 mov	 eax, DWORD PTR [ecx+668]
  0001b	8b 04 90	 mov	 eax, DWORD PTR [eax+edx*4]
; File C:\IAGOS\server\v18\Source\Source\_Common\Project.h

; 1428 : 	if( m_colorText.GetAt( dwIndex ) == NULL )

  0001e	85 c0		 test	 eax, eax
  00020	74 08		 je	 SHORT $LN18@GetText

; 1430 : 	return m_colorText.GetAt( dwIndex )->lpszData; 

  00022	8b 40 04	 mov	 eax, DWORD PTR [eax+4]
  00025	5e		 pop	 esi

; 1431 : }

  00026	5d		 pop	 ebp
  00027	c2 04 00	 ret	 4
$LN18@GetText:

; 1429 : 		return "";

  0002a	b8 00 00 00 00	 mov	 eax, OFFSET ??_C@_00CNPNBAHC@@
  0002f	5e		 pop	 esi

; 1431 : }

  00030	5d		 pop	 ebp
  00031	c2 04 00	 ret	 4
$LN19@GetText:

; 579  : 	LPCTSTR szErr = Error( _T( "%s min:%d, max:%d, index:%d" ), szMsg, nMin, nMax, nIndex ); 

  00034	52		 push	 edx
  00035	ff b1 ac 02 00
	00		 push	 DWORD PTR [ecx+684]
  0003b	6a 00		 push	 0
  0003d	68 00 00 00 00	 push	 OFFSET ??_C@_0BE@OHDBLHOM@GetText?5range_error@
  00042	68 00 00 00 00	 push	 OFFSET ??_C@_0BM@HMFGHCP@?$CFs?5min?3?$CFd?0?5max?3?$CFd?0?5index?3?$CFd@
  00047	e8 00 00 00 00	 call	 ?Error@@YAPBDPBDZZ	; Error
  0004c	83 c4 14	 add	 esp, 20			; 00000014H

; 1427 : 	VERIFY_RANGE( (int)( dwIndex ), 0, m_colorText.GetSize(), "GetText range_error", "error" );

  0004f	b8 00 00 00 00	 mov	 eax, OFFSET ??_C@_05KKCIMGE@error@
  00054	5e		 pop	 esi

; 1431 : }

  00055	5d		 pop	 ebp
  00056	c2 04 00	 ret	 4
?GetText@CProject@@QAEPBDK@Z ENDP			; CProject::GetText
_TEXT	ENDS
; Function compile flags: /Ogtp
; File C:\IAGOS\server\v18\Source\Source\DX_SDK\d3dx9math.h
;	COMDAT ??0D3DXVECTOR3@@QAE@XZ
_TEXT	SEGMENT
??0D3DXVECTOR3@@QAE@XZ PROC				; D3DXVECTOR3::D3DXVECTOR3, COMDAT
; _this$ = ecx

; 165  :     D3DXVECTOR3() {};

  00000	8b c1		 mov	 eax, ecx
  00002	c3		 ret	 0
??0D3DXVECTOR3@@QAE@XZ ENDP				; D3DXVECTOR3::D3DXVECTOR3
_TEXT	ENDS
; Function compile flags: /Ogtp
; File C:\Program Files\Microsoft Visual Studio\2022\Professional\VC\Tools\MSVC\14.44.35207\include\xtree
;	COMDAT ?_Throw_tree_length_error@std@@YAXXZ
_TEXT	SEGMENT
?_Throw_tree_length_error@std@@YAXXZ PROC		; std::_Throw_tree_length_error, COMDAT

; 417  :     _Xlength_error("map/set too long");

  00000	68 00 00 00 00	 push	 OFFSET ??_C@_0BB@GCADKGJO@map?1set?5too?5long@
  00005	e8 00 00 00 00	 call	 ?_Xlength_error@std@@YAXPBD@Z ; std::_Xlength_error
$LN3@Throw_tree:
  0000a	cc		 int	 3
?_Throw_tree_length_error@std@@YAXXZ ENDP		; std::_Throw_tree_length_error
_TEXT	ENDS
; Function compile flags: /Ogtp
; File C:\Program Files\Microsoft Visual Studio\2022\Professional\VC\Tools\MSVC\14.44.35207\include\xmemory
;	COMDAT ?_Throw_bad_array_new_length@std@@YAXXZ
_TEXT	SEGMENT
$T1 = -12						; size = 12
?_Throw_bad_array_new_length@std@@YAXXZ PROC		; std::_Throw_bad_array_new_length, COMDAT

; 107  : [[noreturn]] inline void _Throw_bad_array_new_length() {

  00000	55		 push	 ebp
  00001	8b ec		 mov	 ebp, esp
  00003	83 ec 0c	 sub	 esp, 12			; 0000000cH

; 108  :     _THROW(bad_array_new_length{});

  00006	8d 4d f4	 lea	 ecx, DWORD PTR $T1[ebp]
  00009	e8 00 00 00 00	 call	 ??0bad_array_new_length@std@@QAE@XZ ; std::bad_array_new_length::bad_array_new_length
  0000e	68 00 00 00 00	 push	 OFFSET __TI3?AVbad_array_new_length@std@@
  00013	8d 45 f4	 lea	 eax, DWORD PTR $T1[ebp]
  00016	50		 push	 eax
  00017	e8 00 00 00 00	 call	 __CxxThrowException@8
$LN3@Throw_bad_:
  0001c	cc		 int	 3
?_Throw_bad_array_new_length@std@@YAXXZ ENDP		; std::_Throw_bad_array_new_length
_TEXT	ENDS
; Function compile flags: /Ogtp
; File C:\Program Files\Microsoft Visual Studio\2022\Professional\VC\Tools\MSVC\14.44.35207\include\vcruntime_exception.h
;	COMDAT ??_Gbad_array_new_length@std@@UAEPAXI@Z
_TEXT	SEGMENT
___flags$ = 8						; size = 4
??_Gbad_array_new_length@std@@UAEPAXI@Z PROC		; std::bad_array_new_length::`scalar deleting destructor', COMDAT
; _this$ = ecx
  00000	55		 push	 ebp
  00001	8b ec		 mov	 ebp, esp

; 90   :     {

  00003	56		 push	 esi
  00004	8b f1		 mov	 esi, ecx

; 91   :         __std_exception_destroy(&_Data);

  00006	8d 46 04	 lea	 eax, DWORD PTR [esi+4]
  00009	c7 06 00 00 00
	00		 mov	 DWORD PTR [esi], OFFSET ??_7exception@std@@6B@
  0000f	50		 push	 eax
  00010	e8 00 00 00 00	 call	 ___std_exception_destroy
  00015	83 c4 04	 add	 esp, 4
  00018	f6 45 08 01	 test	 BYTE PTR ___flags$[ebp], 1
  0001c	74 0b		 je	 SHORT $LN18@scalar
  0001e	6a 0c		 push	 12			; 0000000cH
  00020	56		 push	 esi
  00021	e8 00 00 00 00	 call	 ??3@YAXPAXI@Z		; operator delete
  00026	83 c4 08	 add	 esp, 8
$LN18@scalar:
  00029	8b c6		 mov	 eax, esi
  0002b	5e		 pop	 esi
  0002c	5d		 pop	 ebp
  0002d	c2 04 00	 ret	 4
??_Gbad_array_new_length@std@@UAEPAXI@Z ENDP		; std::bad_array_new_length::`scalar deleting destructor'
_TEXT	ENDS
; Function compile flags: /Ogtp
; File C:\Program Files\Microsoft Visual Studio\2022\Professional\VC\Tools\MSVC\14.44.35207\include\vcruntime_exception.h
;	COMDAT ??0bad_array_new_length@std@@QAE@ABV01@@Z
_TEXT	SEGMENT
___that$ = 8						; size = 4
??0bad_array_new_length@std@@QAE@ABV01@@Z PROC		; std::bad_array_new_length::bad_array_new_length, COMDAT
; _this$ = ecx
  00000	55		 push	 ebp
  00001	8b ec		 mov	 ebp, esp

; 73   :     {

  00003	56		 push	 esi
  00004	8b f1		 mov	 esi, ecx
  00006	0f 57 c0	 xorps	 xmm0, xmm0

; 72   :         : _Data()

  00009	8d 46 04	 lea	 eax, DWORD PTR [esi+4]

; 74   :         __std_exception_copy(&_Other._Data, &_Data);

  0000c	50		 push	 eax
  0000d	c7 06 00 00 00
	00		 mov	 DWORD PTR [esi], OFFSET ??_7exception@std@@6B@
  00013	66 0f d6 00	 movq	 QWORD PTR [eax], xmm0
  00017	8b 45 08	 mov	 eax, DWORD PTR ___that$[ebp]
  0001a	83 c0 04	 add	 eax, 4
  0001d	50		 push	 eax
  0001e	e8 00 00 00 00	 call	 ___std_exception_copy
  00023	83 c4 08	 add	 esp, 8
  00026	c7 06 00 00 00
	00		 mov	 DWORD PTR [esi], OFFSET ??_7bad_array_new_length@std@@6B@
  0002c	8b c6		 mov	 eax, esi
  0002e	5e		 pop	 esi
  0002f	5d		 pop	 ebp
  00030	c2 04 00	 ret	 4
??0bad_array_new_length@std@@QAE@ABV01@@Z ENDP		; std::bad_array_new_length::bad_array_new_length
_TEXT	ENDS
; Function compile flags: /Ogtp
; File C:\Program Files\Microsoft Visual Studio\2022\Professional\VC\Tools\MSVC\14.44.35207\include\vcruntime_exception.h
;	COMDAT ??1bad_array_new_length@std@@UAE@XZ
_TEXT	SEGMENT
??1bad_array_new_length@std@@UAE@XZ PROC		; std::bad_array_new_length::~bad_array_new_length, COMDAT
; _this$ = ecx

; 91   :         __std_exception_destroy(&_Data);

  00000	8d 41 04	 lea	 eax, DWORD PTR [ecx+4]
  00003	c7 01 00 00 00
	00		 mov	 DWORD PTR [ecx], OFFSET ??_7exception@std@@6B@
  00009	50		 push	 eax
  0000a	e8 00 00 00 00	 call	 ___std_exception_destroy
  0000f	59		 pop	 ecx
  00010	c3		 ret	 0
??1bad_array_new_length@std@@UAE@XZ ENDP		; std::bad_array_new_length::~bad_array_new_length
_TEXT	ENDS
; Function compile flags: /Ogtp
; File C:\Program Files\Microsoft Visual Studio\2022\Professional\VC\Tools\MSVC\14.44.35207\include\vcruntime_exception.h
;	COMDAT ??0bad_array_new_length@std@@QAE@XZ
_TEXT	SEGMENT
??0bad_array_new_length@std@@QAE@XZ PROC		; std::bad_array_new_length::bad_array_new_length, COMDAT
; _this$ = ecx

; 144  :     {

  00000	0f 57 c0	 xorps	 xmm0, xmm0

; 145  :     }

  00003	8b c1		 mov	 eax, ecx

; 66   :         : _Data()

  00005	66 0f d6 41 04	 movq	 QWORD PTR [ecx+4], xmm0

; 67   :     {
; 68   :         _Data._What = _Message;

  0000a	c7 41 04 00 00
	00 00		 mov	 DWORD PTR [ecx+4], OFFSET ??_C@_0BF@KINCDENJ@bad?5array?5new?5length@

; 144  :     {

  00011	c7 01 00 00 00
	00		 mov	 DWORD PTR [ecx], OFFSET ??_7bad_array_new_length@std@@6B@

; 145  :     }

  00017	c3		 ret	 0
??0bad_array_new_length@std@@QAE@XZ ENDP		; std::bad_array_new_length::bad_array_new_length
_TEXT	ENDS
; Function compile flags: /Ogtp
; File C:\Program Files\Microsoft Visual Studio\2022\Professional\VC\Tools\MSVC\14.44.35207\include\vcruntime_exception.h
;	COMDAT ??_Gbad_alloc@std@@UAEPAXI@Z
_TEXT	SEGMENT
___flags$ = 8						; size = 4
??_Gbad_alloc@std@@UAEPAXI@Z PROC			; std::bad_alloc::`scalar deleting destructor', COMDAT
; _this$ = ecx
  00000	55		 push	 ebp
  00001	8b ec		 mov	 ebp, esp

; 90   :     {

  00003	56		 push	 esi
  00004	8b f1		 mov	 esi, ecx

; 91   :         __std_exception_destroy(&_Data);

  00006	8d 46 04	 lea	 eax, DWORD PTR [esi+4]
  00009	c7 06 00 00 00
	00		 mov	 DWORD PTR [esi], OFFSET ??_7exception@std@@6B@
  0000f	50		 push	 eax
  00010	e8 00 00 00 00	 call	 ___std_exception_destroy
  00015	83 c4 04	 add	 esp, 4
  00018	f6 45 08 01	 test	 BYTE PTR ___flags$[ebp], 1
  0001c	74 0b		 je	 SHORT $LN13@scalar
  0001e	6a 0c		 push	 12			; 0000000cH
  00020	56		 push	 esi
  00021	e8 00 00 00 00	 call	 ??3@YAXPAXI@Z		; operator delete
  00026	83 c4 08	 add	 esp, 8
$LN13@scalar:
  00029	8b c6		 mov	 eax, esi
  0002b	5e		 pop	 esi
  0002c	5d		 pop	 ebp
  0002d	c2 04 00	 ret	 4
??_Gbad_alloc@std@@UAEPAXI@Z ENDP			; std::bad_alloc::`scalar deleting destructor'
_TEXT	ENDS
; Function compile flags: /Ogtp
; File C:\Program Files\Microsoft Visual Studio\2022\Professional\VC\Tools\MSVC\14.44.35207\include\vcruntime_exception.h
;	COMDAT ??0bad_alloc@std@@QAE@ABV01@@Z
_TEXT	SEGMENT
___that$ = 8						; size = 4
??0bad_alloc@std@@QAE@ABV01@@Z PROC			; std::bad_alloc::bad_alloc, COMDAT
; _this$ = ecx
  00000	55		 push	 ebp
  00001	8b ec		 mov	 ebp, esp

; 73   :     {

  00003	56		 push	 esi
  00004	8b f1		 mov	 esi, ecx
  00006	0f 57 c0	 xorps	 xmm0, xmm0

; 72   :         : _Data()

  00009	8d 46 04	 lea	 eax, DWORD PTR [esi+4]

; 74   :         __std_exception_copy(&_Other._Data, &_Data);

  0000c	50		 push	 eax
  0000d	c7 06 00 00 00
	00		 mov	 DWORD PTR [esi], OFFSET ??_7exception@std@@6B@
  00013	66 0f d6 00	 movq	 QWORD PTR [eax], xmm0
  00017	8b 45 08	 mov	 eax, DWORD PTR ___that$[ebp]
  0001a	83 c0 04	 add	 eax, 4
  0001d	50		 push	 eax
  0001e	e8 00 00 00 00	 call	 ___std_exception_copy
  00023	83 c4 08	 add	 esp, 8
  00026	c7 06 00 00 00
	00		 mov	 DWORD PTR [esi], OFFSET ??_7bad_alloc@std@@6B@
  0002c	8b c6		 mov	 eax, esi
  0002e	5e		 pop	 esi
  0002f	5d		 pop	 ebp
  00030	c2 04 00	 ret	 4
??0bad_alloc@std@@QAE@ABV01@@Z ENDP			; std::bad_alloc::bad_alloc
_TEXT	ENDS
; Function compile flags: /Ogtp
; File C:\Program Files\Microsoft Visual Studio\2022\Professional\VC\Tools\MSVC\14.44.35207\include\vcruntime_exception.h
;	COMDAT ??_Gexception@std@@UAEPAXI@Z
_TEXT	SEGMENT
___flags$ = 8						; size = 4
??_Gexception@std@@UAEPAXI@Z PROC			; std::exception::`scalar deleting destructor', COMDAT
; _this$ = ecx
  00000	55		 push	 ebp
  00001	8b ec		 mov	 ebp, esp

; 90   :     {

  00003	56		 push	 esi
  00004	8b f1		 mov	 esi, ecx

; 91   :         __std_exception_destroy(&_Data);

  00006	8d 46 04	 lea	 eax, DWORD PTR [esi+4]
  00009	c7 06 00 00 00
	00		 mov	 DWORD PTR [esi], OFFSET ??_7exception@std@@6B@
  0000f	50		 push	 eax
  00010	e8 00 00 00 00	 call	 ___std_exception_destroy
  00015	83 c4 04	 add	 esp, 4
  00018	f6 45 08 01	 test	 BYTE PTR ___flags$[ebp], 1
  0001c	74 0b		 je	 SHORT $LN8@scalar
  0001e	6a 0c		 push	 12			; 0000000cH
  00020	56		 push	 esi
  00021	e8 00 00 00 00	 call	 ??3@YAXPAXI@Z		; operator delete
  00026	83 c4 08	 add	 esp, 8
$LN8@scalar:
  00029	8b c6		 mov	 eax, esi
  0002b	5e		 pop	 esi
  0002c	5d		 pop	 ebp
  0002d	c2 04 00	 ret	 4
??_Gexception@std@@UAEPAXI@Z ENDP			; std::exception::`scalar deleting destructor'
_TEXT	ENDS
; Function compile flags: /Ogtp
; File C:\Program Files\Microsoft Visual Studio\2022\Professional\VC\Tools\MSVC\14.44.35207\include\vcruntime_exception.h
;	COMDAT ?what@exception@std@@UBEPBDXZ
_TEXT	SEGMENT
?what@exception@std@@UBEPBDXZ PROC			; std::exception::what, COMDAT
; _this$ = ecx

; 96   :         return _Data._What ? _Data._What : "Unknown exception";

  00000	8b 49 04	 mov	 ecx, DWORD PTR [ecx+4]
  00003	b8 00 00 00 00	 mov	 eax, OFFSET ??_C@_0BC@EOODALEL@Unknown?5exception@
  00008	85 c9		 test	 ecx, ecx
  0000a	0f 45 c1	 cmovne	 eax, ecx

; 97   :     }

  0000d	c3		 ret	 0
?what@exception@std@@UBEPBDXZ ENDP			; std::exception::what
_TEXT	ENDS
; Function compile flags: /Ogtp
; File C:\Program Files\Microsoft Visual Studio\2022\Professional\VC\Tools\MSVC\14.44.35207\include\vcruntime_exception.h
;	COMDAT ??1exception@std@@UAE@XZ
_TEXT	SEGMENT
??1exception@std@@UAE@XZ PROC				; std::exception::~exception, COMDAT
; _this$ = ecx

; 91   :         __std_exception_destroy(&_Data);

  00000	8d 41 04	 lea	 eax, DWORD PTR [ecx+4]
  00003	c7 01 00 00 00
	00		 mov	 DWORD PTR [ecx], OFFSET ??_7exception@std@@6B@
  00009	50		 push	 eax
  0000a	e8 00 00 00 00	 call	 ___std_exception_destroy
  0000f	59		 pop	 ecx

; 92   :     }

  00010	c3		 ret	 0
??1exception@std@@UAE@XZ ENDP				; std::exception::~exception
_TEXT	ENDS
; Function compile flags: /Ogtp
; File C:\Program Files\Microsoft Visual Studio\2022\Professional\VC\Tools\MSVC\14.44.35207\include\vcruntime_exception.h
;	COMDAT ??0exception@std@@QAE@ABV01@@Z
_TEXT	SEGMENT
__Other$ = 8						; size = 4
??0exception@std@@QAE@ABV01@@Z PROC			; std::exception::exception, COMDAT
; _this$ = ecx

; 73   :     {

  00000	55		 push	 ebp
  00001	8b ec		 mov	 ebp, esp
  00003	56		 push	 esi
  00004	8b f1		 mov	 esi, ecx
  00006	0f 57 c0	 xorps	 xmm0, xmm0
  00009	8d 46 04	 lea	 eax, DWORD PTR [esi+4]

; 74   :         __std_exception_copy(&_Other._Data, &_Data);

  0000c	50		 push	 eax
  0000d	c7 06 00 00 00
	00		 mov	 DWORD PTR [esi], OFFSET ??_7exception@std@@6B@
  00013	66 0f d6 00	 movq	 QWORD PTR [eax], xmm0
  00017	8b 45 08	 mov	 eax, DWORD PTR __Other$[ebp]
  0001a	83 c0 04	 add	 eax, 4
  0001d	50		 push	 eax
  0001e	e8 00 00 00 00	 call	 ___std_exception_copy
  00023	83 c4 08	 add	 esp, 8

; 75   :     }

  00026	8b c6		 mov	 eax, esi
  00028	5e		 pop	 esi
  00029	5d		 pop	 ebp
  0002a	c2 04 00	 ret	 4
??0exception@std@@QAE@ABV01@@Z ENDP			; std::exception::exception
_TEXT	ENDS
; Function compile flags: /Ogtp
; File C:\Program Files\Microsoft Visual Studio\2022\Professional\VC\Tools\MSVC\14.44.35207\atlmfc\include\cstringt.h
; File C:\Program Files\Microsoft Visual Studio\2022\Professional\VC\Tools\MSVC\14.44.35207\atlmfc\include\atlsimpstr.h
; File C:\Program Files\Microsoft Visual Studio\2022\Professional\VC\Tools\MSVC\14.44.35207\atlmfc\include\cstringt.h
; File C:\Program Files\Microsoft Visual Studio\2022\Professional\VC\Tools\MSVC\14.44.35207\atlmfc\include\atlsimpstr.h
; File C:\Program Files\Microsoft Visual Studio\2022\Professional\VC\Tools\MSVC\14.44.35207\atlmfc\include\cstringt.h
; File C:\Program Files\Microsoft Visual Studio\2022\Professional\VC\Tools\MSVC\14.44.35207\atlmfc\include\afxstr.h
; File C:\Program Files\Microsoft Visual Studio\2022\Professional\VC\Tools\MSVC\14.44.35207\atlmfc\include\cstringt.h
; File C:\Program Files\Microsoft Visual Studio\2022\Professional\VC\Tools\MSVC\14.44.35207\atlmfc\include\atlsimpstr.h
; File C:\Program Files\Microsoft Visual Studio\2022\Professional\VC\Tools\MSVC\14.44.35207\atlmfc\include\cstringt.h
; File C:\Program Files\Microsoft Visual Studio\2022\Professional\VC\Tools\MSVC\14.44.35207\atlmfc\include\atlsimpstr.h
; File C:\Program Files\Microsoft Visual Studio\2022\Professional\VC\Tools\MSVC\14.44.35207\atlmfc\include\cstringt.h
; File C:\Program Files\Microsoft Visual Studio\2022\Professional\VC\Tools\MSVC\14.44.35207\atlmfc\include\atlsimpstr.h
; File C:\Program Files (x86)\Windows Kits\10\Include\10.0.26100.0\ucrt\corecrt_memcpy_s.h
; File C:\Program Files\Microsoft Visual Studio\2022\Professional\VC\Tools\MSVC\14.44.35207\atlmfc\include\atlsimpstr.h
; File C:\Program Files (x86)\Windows Kits\10\Include\10.0.26100.0\ucrt\corecrt_memcpy_s.h
; File C:\Program Files\Microsoft Visual Studio\2022\Professional\VC\Tools\MSVC\14.44.35207\atlmfc\include\atlsimpstr.h
; File C:\Program Files (x86)\Windows Kits\10\Include\10.0.26100.0\ucrt\corecrt_memcpy_s.h
; File C:\Program Files\Microsoft Visual Studio\2022\Professional\VC\Tools\MSVC\14.44.35207\atlmfc\include\atlsimpstr.h
; File C:\Program Files (x86)\Windows Kits\10\Include\10.0.26100.0\ucrt\corecrt_memcpy_s.h
; File C:\Program Files\Microsoft Visual Studio\2022\Professional\VC\Tools\MSVC\14.44.35207\atlmfc\include\atlsimpstr.h
; File C:\Program Files\Microsoft Visual Studio\2022\Professional\VC\Tools\MSVC\14.44.35207\atlmfc\include\cstringt.h
; File C:\Program Files\Microsoft Visual Studio\2022\Professional\VC\Tools\MSVC\14.44.35207\atlmfc\include\atlsimpstr.h
; File C:\Program Files\Microsoft Visual Studio\2022\Professional\VC\Tools\MSVC\14.44.35207\atlmfc\include\cstringt.h
; File C:\Program Files\Microsoft Visual Studio\2022\Professional\VC\Tools\MSVC\14.44.35207\atlmfc\include\atlsimpstr.h
; File C:\Program Files\Microsoft Visual Studio\2022\Professional\VC\Tools\MSVC\14.44.35207\atlmfc\include\cstringt.h
;	COMDAT ??HATL@@YA?AV?$CStringT@DV?$StrTraitMFC@DV?$ChTraitsCRT@D@ATL@@@@@0@ABV10@0@Z
_TEXT	SEGMENT
_psz2$1$ = -28						; size = 4
_nLength2$1$ = -24					; size = 4
_psz1$1$ = -20						; size = 4
$T2 = -16						; size = 4
__$EHRec$ = -12						; size = 12
___$ReturnUdt$ = 8					; size = 4
_str1$ = 12						; size = 4
_nLength1$1$ = 12					; size = 4
_str2$ = 16						; size = 4
??HATL@@YA?AV?$CStringT@DV?$StrTraitMFC@DV?$ChTraitsCRT@D@ATL@@@@@0@ABV10@0@Z PROC ; ATL::operator+, COMDAT

; 2393 : 	{

  00000	55		 push	 ebp
  00001	8b ec		 mov	 ebp, esp
  00003	6a ff		 push	 -1
  00005	68 00 00 00 00	 push	 __ehhandler$??HATL@@YA?AV?$CStringT@DV?$StrTraitMFC@DV?$ChTraitsCRT@D@ATL@@@@@0@ABV10@0@Z
  0000a	64 a1 00 00 00
	00		 mov	 eax, DWORD PTR fs:0
  00010	50		 push	 eax
  00011	83 ec 10	 sub	 esp, 16			; 00000010H
  00014	53		 push	 ebx
  00015	56		 push	 esi
  00016	57		 push	 edi
  00017	a1 00 00 00 00	 mov	 eax, DWORD PTR ___security_cookie
  0001c	33 c5		 xor	 eax, ebp
  0001e	50		 push	 eax
  0001f	8d 45 f4	 lea	 eax, DWORD PTR __$EHRec$[ebp]
  00022	64 a3 00 00 00
	00		 mov	 DWORD PTR fs:0, eax
; File C:\Program Files\Microsoft Visual Studio\2022\Professional\VC\Tools\MSVC\14.44.35207\atlmfc\include\atlsimpstr.h

; 527  : 		IAtlStringMgr* pStringMgr = GetData()->pStringMgr;

  00028	8b 7d 0c	 mov	 edi, DWORD PTR _str1$[ebp]
; File C:\Program Files\Microsoft Visual Studio\2022\Professional\VC\Tools\MSVC\14.44.35207\atlmfc\include\cstringt.h

; 2393 : 	{

  0002b	c7 45 f0 00 00
	00 00		 mov	 DWORD PTR $T2[ebp], 0
  00032	c7 45 fc 00 00
	00 00		 mov	 DWORD PTR __$EHRec$[ebp+8], 0
; File C:\Program Files\Microsoft Visual Studio\2022\Professional\VC\Tools\MSVC\14.44.35207\atlmfc\include\atlsimpstr.h

; 527  : 		IAtlStringMgr* pStringMgr = GetData()->pStringMgr;

  00039	8b 07		 mov	 eax, DWORD PTR [edi]
  0003b	8b 48 f0	 mov	 ecx, DWORD PTR [eax-16]

; 528  : 		return pStringMgr ? pStringMgr->Clone() : NULL;

  0003e	85 c9		 test	 ecx, ecx
  00040	74 0b		 je	 SHORT $LN6@operator
  00042	8b 01		 mov	 eax, DWORD PTR [ecx]
  00044	ff 50 10	 call	 DWORD PTR [eax+16]
  00047	8b c8		 mov	 ecx, eax
; File C:\Program Files\Microsoft Visual Studio\2022\Professional\VC\Tools\MSVC\14.44.35207\atlmfc\include\cstringt.h

; 1442 : 		if(pStringMgr) { return pStringMgr; }

  00049	85 c9		 test	 ecx, ecx
  0004b	75 16		 jne	 SHORT $LN19@operator
$LN6@operator:
; File C:\Program Files\Microsoft Visual Studio\2022\Professional\VC\Tools\MSVC\14.44.35207\atlmfc\include\afxstr.h

; 56   : 		return( AfxGetStringManager() );

  0004d	e8 00 00 00 00	 call	 ?AfxGetStringManager@@YGPAUIAtlStringMgr@ATL@@XZ ; AfxGetStringManager
; File C:\Program Files\Microsoft Visual Studio\2022\Professional\VC\Tools\MSVC\14.44.35207\atlmfc\include\cstringt.h

; 1445 : 		return pStringMgr->Clone();

  00052	8b c8		 mov	 ecx, eax
  00054	8b 10		 mov	 edx, DWORD PTR [eax]
  00056	ff 52 10	 call	 DWORD PTR [edx+16]
  00059	8b c8		 mov	 ecx, eax
; File C:\Program Files\Microsoft Visual Studio\2022\Professional\VC\Tools\MSVC\14.44.35207\atlmfc\include\atlsimpstr.h

; 209  : 		ATLENSURE( pStringMgr != NULL );

  0005b	85 c9		 test	 ecx, ecx
  0005d	0f 84 01 01 00
	00		 je	 $LN83@operator
$LN19@operator:

; 210  : 		CStringData* pData = pStringMgr->GetNilString();

  00063	8b 01		 mov	 eax, DWORD PTR [ecx]
  00065	ff 50 0c	 call	 DWORD PTR [eax+12]

; 211  : 		Attach( pData );

  00068	8b 75 08	 mov	 esi, DWORD PTR ___$ReturnUdt$[ebp]
  0006b	8d 58 10	 lea	 ebx, DWORD PTR [eax+16]
  0006e	89 1e		 mov	 DWORD PTR [esi], ebx

; 523  : 		return( GetData()->nDataLength );

  00070	8b 45 10	 mov	 eax, DWORD PTR _str2$[ebp]
  00073	8b 17		 mov	 edx, DWORD PTR [edi]
; File C:\Program Files\Microsoft Visual Studio\2022\Professional\VC\Tools\MSVC\14.44.35207\atlmfc\include\cstringt.h

; 2398 : 		return( strResult );

  00075	c7 45 fc 00 00
	00 00		 mov	 DWORD PTR __$EHRec$[ebp+8], 0
  0007c	c7 45 f0 01 00
	00 00		 mov	 DWORD PTR $T2[ebp], 1
; File C:\Program Files\Microsoft Visual Studio\2022\Professional\VC\Tools\MSVC\14.44.35207\atlmfc\include\atlsimpstr.h

; 523  : 		return( GetData()->nDataLength );

  00083	8b 00		 mov	 eax, DWORD PTR [eax]
  00085	89 45 e4	 mov	 DWORD PTR _psz2$1$[ebp], eax
  00088	89 55 ec	 mov	 DWORD PTR _psz1$1$[ebp], edx
; File C:\Program Files\Microsoft Visual Studio\2022\Professional\VC\Tools\MSVC\14.44.35207\atlmfc\include\cstringt.h

; 2396 : 		CThisSimpleString::Concatenate( strResult, str1, str1.GetLength(), str2, str2.GetLength() );

  0008b	8b 48 f4	 mov	 ecx, DWORD PTR [eax-12]
  0008e	8b 42 f4	 mov	 eax, DWORD PTR [edx-12]
  00091	89 4d e8	 mov	 DWORD PTR _nLength2$1$[ebp], ecx
  00094	89 45 0c	 mov	 DWORD PTR _nLength1$1$[ebp], eax
; File C:\Program Files\Microsoft Visual Studio\2022\Professional\VC\Tools\MSVC\14.44.35207\atlmfc\include\atlsimpstr.h

; 769  : 		int nNewLength = nLength1+nLength2;

  00097	8d 3c 08	 lea	 edi, DWORD PTR [eax+ecx]

; 808  : 		if (nLength < 0)

  0009a	85 ff		 test	 edi, edi
  0009c	0f 88 b8 00 00
	00		 js	 $LN69@operator

; 809  : 			AtlThrow(E_INVALIDARG);
; 810  : 
; 811  : 		CStringData* pOldData = GetData();
; 812  : 		int nShared = 1-pOldData->nRefs;  // nShared < 0 means true, >= 0 means false
; 813  : 		int nTooShort = pOldData->nAllocLength-nLength;  // nTooShort < 0 means true, >= 0 means false

  000a2	8b 43 f8	 mov	 eax, DWORD PTR [ebx-8]
  000a5	b9 01 00 00 00	 mov	 ecx, 1
  000aa	2b 4b fc	 sub	 ecx, DWORD PTR [ebx-4]
  000ad	2b c7		 sub	 eax, edi

; 814  : 		if( (nShared|nTooShort) < 0 )  // If either sign bit is set (i.e. either is less than zero), we need to copy data

  000af	0b c8		 or	 ecx, eax
  000b1	7d 0b		 jge	 SHORT $LN43@operator

; 815  : 		{
; 816  : 			PrepareWrite2( nLength );

  000b3	57		 push	 edi
  000b4	8b ce		 mov	 ecx, esi
  000b6	e8 00 00 00 00	 call	 ?PrepareWrite2@?$CSimpleStringT@D$0A@@ATL@@AAEXH@Z ; ATL::CSimpleStringT<char,0>::PrepareWrite2
  000bb	8b 55 ec	 mov	 edx, DWORD PTR _psz1$1$[ebp]
$LN43@operator:
; File C:\Program Files (x86)\Windows Kits\10\Include\10.0.26100.0\ucrt\corecrt_memcpy_s.h

; 47   :         if (_SourceSize == 0)

  000be	8b 45 0c	 mov	 eax, DWORD PTR _nLength1$1$[ebp]
; File C:\Program Files\Microsoft Visual Studio\2022\Professional\VC\Tools\MSVC\14.44.35207\atlmfc\include\atlsimpstr.h

; 770  : 		PXSTR pszBuffer = strResult.GetBuffer( nNewLength );

  000c1	8b 1e		 mov	 ebx, DWORD PTR [esi]
; File C:\Program Files (x86)\Windows Kits\10\Include\10.0.26100.0\ucrt\corecrt_memcpy_s.h

; 47   :         if (_SourceSize == 0)

  000c3	85 c0		 test	 eax, eax
  000c5	74 33		 je	 SHORT $LN54@operator

; 48   :         {
; 49   :             return 0;
; 50   :         }
; 51   : 
; 52   :         _CRT_MEMCPY_S_VALIDATE_RETURN_ERRCODE(_Destination != NULL, EINVAL);

  000c7	85 db		 test	 ebx, ebx
  000c9	74 1c		 je	 SHORT $LN79@operator

; 53   :         if (_Source == NULL || _DestinationSize < _SourceSize)

  000cb	50		 push	 eax
  000cc	85 d2		 test	 edx, edx
  000ce	74 0c		 je	 SHORT $LN53@operator

; 56   : 
; 57   :             _CRT_MEMCPY_S_VALIDATE_RETURN_ERRCODE(_Source != NULL,                 EINVAL);
; 58   :             _CRT_MEMCPY_S_VALIDATE_RETURN_ERRCODE(_DestinationSize >= _SourceSize, ERANGE);
; 59   : 
; 60   :             // Unreachable, but required to suppress /analyze warnings:
; 61   :             return EINVAL;
; 62   :         }
; 63   :         memcpy(_Destination, _Source, _SourceSize);

  000d0	52		 push	 edx
  000d1	53		 push	 ebx
  000d2	e8 00 00 00 00	 call	 _memcpy
  000d7	83 c4 0c	 add	 esp, 12			; 0000000cH
  000da	eb 1b		 jmp	 SHORT $LN80@operator
$LN53@operator:

; 54   :         {
; 55   :             memset(_Destination, 0, _DestinationSize);

  000dc	6a 00		 push	 0
  000de	53		 push	 ebx
  000df	e8 00 00 00 00	 call	 _memset
  000e4	83 c4 0c	 add	 esp, 12			; 0000000cH
$LN79@operator:
; File C:\Program Files\Microsoft Visual Studio\2022\Professional\VC\Tools\MSVC\14.44.35207\atlmfc\include\atlsimpstr.h

; 772  : 		memcpy_s( pszBuffer+nLength1, nLength2 * sizeof( XCHAR ), psz2, nLength2 * sizeof( XCHAR ));

  000e7	e8 00 00 00 00	 call	 __errno
  000ec	c7 00 16 00 00
	00		 mov	 DWORD PTR [eax], 22	; 00000016H
  000f2	e8 00 00 00 00	 call	 __invalid_parameter_noinfo
$LN80@operator:
  000f7	8b 45 0c	 mov	 eax, DWORD PTR _nLength1$1$[ebp]
$LN54@operator:
; File C:\Program Files (x86)\Windows Kits\10\Include\10.0.26100.0\ucrt\corecrt_memcpy_s.h

; 47   :         if (_SourceSize == 0)

  000fa	8b 4d e8	 mov	 ecx, DWORD PTR _nLength2$1$[ebp]
; File C:\Program Files\Microsoft Visual Studio\2022\Professional\VC\Tools\MSVC\14.44.35207\atlmfc\include\atlsimpstr.h

; 772  : 		memcpy_s( pszBuffer+nLength1, nLength2 * sizeof( XCHAR ), psz2, nLength2 * sizeof( XCHAR ));

  000fd	03 c3		 add	 eax, ebx
; File C:\Program Files (x86)\Windows Kits\10\Include\10.0.26100.0\ucrt\corecrt_memcpy_s.h

; 47   :         if (_SourceSize == 0)

  000ff	85 c9		 test	 ecx, ecx
  00101	74 33		 je	 SHORT $LN62@operator

; 48   :         {
; 49   :             return 0;
; 50   :         }
; 51   : 
; 52   :         _CRT_MEMCPY_S_VALIDATE_RETURN_ERRCODE(_Destination != NULL, EINVAL);

  00103	85 c0		 test	 eax, eax
  00105	74 1f		 je	 SHORT $LN81@operator

; 53   :         if (_Source == NULL || _DestinationSize < _SourceSize)

  00107	8b 55 e4	 mov	 edx, DWORD PTR _psz2$1$[ebp]
  0010a	51		 push	 ecx
  0010b	85 d2		 test	 edx, edx
  0010d	74 0c		 je	 SHORT $LN61@operator

; 56   : 
; 57   :             _CRT_MEMCPY_S_VALIDATE_RETURN_ERRCODE(_Source != NULL,                 EINVAL);
; 58   :             _CRT_MEMCPY_S_VALIDATE_RETURN_ERRCODE(_DestinationSize >= _SourceSize, ERANGE);
; 59   : 
; 60   :             // Unreachable, but required to suppress /analyze warnings:
; 61   :             return EINVAL;
; 62   :         }
; 63   :         memcpy(_Destination, _Source, _SourceSize);

  0010f	52		 push	 edx
  00110	50		 push	 eax
  00111	e8 00 00 00 00	 call	 _memcpy
  00116	83 c4 0c	 add	 esp, 12			; 0000000cH
  00119	eb 1b		 jmp	 SHORT $LN62@operator
$LN61@operator:

; 54   :         {
; 55   :             memset(_Destination, 0, _DestinationSize);

  0011b	6a 00		 push	 0
  0011d	50		 push	 eax
  0011e	e8 00 00 00 00	 call	 _memset
  00123	83 c4 0c	 add	 esp, 12			; 0000000cH
$LN81@operator:
; File C:\Program Files\Microsoft Visual Studio\2022\Professional\VC\Tools\MSVC\14.44.35207\atlmfc\include\atlsimpstr.h

; 875  : 		if( nLength < 0 || nLength > GetData()->nAllocLength)

  00126	e8 00 00 00 00	 call	 __errno
  0012b	c7 00 16 00 00
	00		 mov	 DWORD PTR [eax], 22	; 00000016H
  00131	e8 00 00 00 00	 call	 __invalid_parameter_noinfo
$LN62@operator:
  00136	8b 06		 mov	 eax, DWORD PTR [esi]
  00138	3b 78 f8	 cmp	 edi, DWORD PTR [eax-8]
  0013b	7f 1d		 jg	 SHORT $LN69@operator

; 877  : 
; 878  : 		GetData()->nDataLength = nLength;

  0013d	89 78 f4	 mov	 DWORD PTR [eax-12], edi
; File C:\Program Files\Microsoft Visual Studio\2022\Professional\VC\Tools\MSVC\14.44.35207\atlmfc\include\cstringt.h

; 2398 : 		return( strResult );

  00140	8b c6		 mov	 eax, esi
; File C:\Program Files\Microsoft Visual Studio\2022\Professional\VC\Tools\MSVC\14.44.35207\atlmfc\include\atlsimpstr.h

; 879  : 		m_pszData[nLength] = 0;

  00142	8b 0e		 mov	 ecx, DWORD PTR [esi]
  00144	c6 04 0f 00	 mov	 BYTE PTR [edi+ecx], 0
; File C:\Program Files\Microsoft Visual Studio\2022\Professional\VC\Tools\MSVC\14.44.35207\atlmfc\include\cstringt.h

; 2399 : 	}

  00148	8b 4d f4	 mov	 ecx, DWORD PTR __$EHRec$[ebp]
  0014b	64 89 0d 00 00
	00 00		 mov	 DWORD PTR fs:0, ecx
  00152	59		 pop	 ecx
  00153	5f		 pop	 edi
  00154	5e		 pop	 esi
  00155	5b		 pop	 ebx
  00156	8b e5		 mov	 esp, ebp
  00158	5d		 pop	 ebp
  00159	c3		 ret	 0
$LN69@operator:
; File C:\Program Files\Microsoft Visual Studio\2022\Professional\VC\Tools\MSVC\14.44.35207\atlmfc\include\atlsimpstr.h

; 876  : 			AtlThrow(E_INVALIDARG);

  0015a	68 57 00 07 80	 push	 -2147024809		; 80070057H
  0015f	e8 00 00 00 00	 call	 ?AtlThrowImpl@ATL@@YGXJ@Z ; ATL::AtlThrowImpl
$LN83@operator:

; 209  : 		ATLENSURE( pStringMgr != NULL );

  00164	68 05 40 00 80	 push	 -2147467259		; 80004005H
  00169	e8 00 00 00 00	 call	 ?AtlThrowImpl@ATL@@YGXJ@Z ; ATL::AtlThrowImpl
$LN78@operator:
  0016e	cc		 int	 3
_TEXT	ENDS
;	COMDAT text$x
text$x	SEGMENT
__unwindfunclet$??HATL@@YA?AV?$CStringT@DV?$StrTraitMFC@DV?$ChTraitsCRT@D@ATL@@@@@0@ABV10@0@Z$0:
  00000	8b 45 f0	 mov	 eax, DWORD PTR $T2[ebp]
  00003	83 e0 01	 and	 eax, 1
  00006	0f 84 0c 00 00
	00		 je	 $LN4@operator
  0000c	83 65 f0 fe	 and	 DWORD PTR $T2[ebp], -2	; fffffffeH
  00010	8b 4d 08	 mov	 ecx, DWORD PTR ___$ReturnUdt$[ebp]
  00013	e9 00 00 00 00	 jmp	 ??1?$CStringT@DV?$StrTraitMFC@DV?$ChTraitsCRT@D@ATL@@@@@ATL@@QAE@XZ ; ATL::CStringT<char,StrTraitMFC<char,ATL::ChTraitsCRT<char> > >::~CStringT<char,StrTraitMFC<char,ATL::ChTraitsCRT<char> > >
$LN4@operator:
  00018	c3		 ret	 0
  00019	cc		 int	 3
  0001a	cc		 int	 3
  0001b	cc		 int	 3
  0001c	cc		 int	 3
  0001d	cc		 int	 3
__ehhandler$??HATL@@YA?AV?$CStringT@DV?$StrTraitMFC@DV?$ChTraitsCRT@D@ATL@@@@@0@ABV10@0@Z:
  0001e	90		 npad	 1
  0001f	90		 npad	 1
  00020	8b 54 24 08	 mov	 edx, DWORD PTR [esp+8]
  00024	8d 42 0c	 lea	 eax, DWORD PTR [edx+12]
  00027	8b 4a e0	 mov	 ecx, DWORD PTR [edx-32]
  0002a	33 c8		 xor	 ecx, eax
  0002c	e8 00 00 00 00	 call	 @__security_check_cookie@4
  00031	b8 00 00 00 00	 mov	 eax, OFFSET __ehfuncinfo$??HATL@@YA?AV?$CStringT@DV?$StrTraitMFC@DV?$ChTraitsCRT@D@ATL@@@@@0@ABV10@0@Z
  00036	e9 00 00 00 00	 jmp	 ___CxxFrameHandler3
text$x	ENDS
??HATL@@YA?AV?$CStringT@DV?$StrTraitMFC@DV?$ChTraitsCRT@D@ATL@@@@@0@ABV10@0@Z ENDP ; ATL::operator+
; Function compile flags: /Ogtp
; File C:\Program Files\Microsoft Visual Studio\2022\Professional\VC\Tools\MSVC\14.44.35207\atlmfc\include\cstringt.h
; File C:\Program Files\Microsoft Visual Studio\2022\Professional\VC\Tools\MSVC\14.44.35207\atlmfc\include\afxstr.h
; File C:\Program Files\Microsoft Visual Studio\2022\Professional\VC\Tools\MSVC\14.44.35207\atlmfc\include\cstringt.h
; File C:\Program Files\Microsoft Visual Studio\2022\Professional\VC\Tools\MSVC\14.44.35207\atlmfc\include\afxstr.h
; File C:\Program Files\Microsoft Visual Studio\2022\Professional\VC\Tools\MSVC\14.44.35207\atlmfc\include\cstringt.h
; File C:\Program Files\Microsoft Visual Studio\2022\Professional\VC\Tools\MSVC\14.44.35207\atlmfc\include\atlcore.h
; File C:\Program Files\Microsoft Visual Studio\2022\Professional\VC\Tools\MSVC\14.44.35207\atlmfc\include\cstringt.h
; File C:\Program Files\Microsoft Visual Studio\2022\Professional\VC\Tools\MSVC\14.44.35207\atlmfc\include\atlsimpstr.h
; File C:\Program Files\Microsoft Visual Studio\2022\Professional\VC\Tools\MSVC\14.44.35207\atlmfc\include\cstringt.h
; File C:\Program Files\Microsoft Visual Studio\2022\Professional\VC\Tools\MSVC\14.44.35207\atlmfc\include\atlsimpstr.h
; File C:\Program Files\Microsoft Visual Studio\2022\Professional\VC\Tools\MSVC\14.44.35207\atlmfc\include\cstringt.h
; File C:\Program Files\Microsoft Visual Studio\2022\Professional\VC\Tools\MSVC\14.44.35207\atlmfc\include\atlsimpstr.h
; File C:\Program Files\Microsoft Visual Studio\2022\Professional\VC\Tools\MSVC\14.44.35207\atlmfc\include\cstringt.h
; File C:\Program Files\Microsoft Visual Studio\2022\Professional\VC\Tools\MSVC\14.44.35207\atlmfc\include\atlsimpstr.h
; File C:\Program Files\Microsoft Visual Studio\2022\Professional\VC\Tools\MSVC\14.44.35207\atlmfc\include\cstringt.h
;	COMDAT ?LoadStringA@?$CStringT@DV?$StrTraitMFC@DV?$ChTraitsCRT@D@ATL@@@@@ATL@@QAEHI@Z
_TEXT	SEGMENT
_this$1$ = -4						; size = 4
_nID$ = 8						; size = 4
_hResource$1$ = 8					; size = 4
?LoadStringA@?$CStringT@DV?$StrTraitMFC@DV?$ChTraitsCRT@D@ATL@@@@@ATL@@QAEHI@Z PROC ; ATL::CStringT<char,StrTraitMFC<char,ATL::ChTraitsCRT<char> > >::LoadStringA, COMDAT
; _this$ = ecx

; 2340 : 	{

  00000	55		 push	 ebp
  00001	8b ec		 mov	 ebp, esp
  00003	51		 push	 ecx
  00004	53		 push	 ebx
  00005	57		 push	 edi
; File C:\Program Files\Microsoft Visual Studio\2022\Professional\VC\Tools\MSVC\14.44.35207\atlmfc\include\afxstr.h

; 51   : 		return( AfxFindStringResourceHandle( nID ) );

  00006	8b 7d 08	 mov	 edi, DWORD PTR _nID$[ebp]
  00009	57		 push	 edi
; File C:\Program Files\Microsoft Visual Studio\2022\Professional\VC\Tools\MSVC\14.44.35207\atlmfc\include\cstringt.h

; 2340 : 	{

  0000a	89 4d fc	 mov	 DWORD PTR _this$1$[ebp], ecx
; File C:\Program Files\Microsoft Visual Studio\2022\Professional\VC\Tools\MSVC\14.44.35207\atlmfc\include\afxstr.h

; 51   : 		return( AfxFindStringResourceHandle( nID ) );

  0000d	e8 00 00 00 00	 call	 ?AfxFindStringResourceHandle@@YGPAUHINSTANCE__@@I@Z ; AfxFindStringResourceHandle
; File C:\Program Files\Microsoft Visual Studio\2022\Professional\VC\Tools\MSVC\14.44.35207\atlmfc\include\cstringt.h

; 2341 : 		HINSTANCE hInstance = StringTraits::FindStringResourceInstance( nID );

  00012	8b d8		 mov	 ebx, eax

; 2342 : 		if( hInstance == NULL )

  00014	85 db		 test	 ebx, ebx
  00016	75 08		 jne	 SHORT $LN2@LoadString

; 2348 : 	}

  00018	5f		 pop	 edi
  00019	5b		 pop	 ebx
  0001a	8b e5		 mov	 esp, ebp
  0001c	5d		 pop	 ebp
  0001d	c2 04 00	 ret	 4
$LN2@LoadString:
; File C:\Program Files\Microsoft Visual Studio\2022\Professional\VC\Tools\MSVC\14.44.35207\atlmfc\include\atlcore.h

; 380  : 	hResource = ::FindResourceW(hInstance, MAKEINTRESOURCEW( (((id>>4)+1) & static_cast<WORD>(~0)) ), (LPWSTR) RT_STRING);

  00020	8b c7		 mov	 eax, edi
  00022	c1 e8 04	 shr	 eax, 4
  00025	56		 push	 esi
  00026	40		 inc	 eax
  00027	6a 06		 push	 6
  00029	0f b7 c0	 movzx	 eax, ax
  0002c	50		 push	 eax
  0002d	53		 push	 ebx
  0002e	ff 15 00 00 00
	00		 call	 DWORD PTR __imp__FindResourceW@12
  00034	89 45 08	 mov	 DWORD PTR _hResource$1$[ebp], eax

; 381  : 	if( hResource == NULL )

  00037	85 c0		 test	 eax, eax
  00039	0f 84 cc 00 00
	00		 je	 $LN51@LoadString

; 338  : 	hGlobal = ::LoadResource( hInstance, hResource );

  0003f	50		 push	 eax
  00040	53		 push	 ebx
  00041	ff 15 00 00 00
	00		 call	 DWORD PTR __imp__LoadResource@8

; 339  : 	if( hGlobal == NULL )

  00047	85 c0		 test	 eax, eax
  00049	75 04		 jne	 SHORT $LN15@LoadString

; 340  : 	{
; 341  : 		return( NULL );

  0004b	33 f6		 xor	 esi, esi
  0004d	eb 43		 jmp	 SHORT $LN18@LoadString
$LN15@LoadString:

; 342  : 	}
; 343  : 
; 344  : 	pImage = (const ATLSTRINGRESOURCEIMAGE*)::LockResource( hGlobal );

  0004f	50		 push	 eax
  00050	ff 15 00 00 00
	00		 call	 DWORD PTR __imp__LockResource@4
  00056	8b f0		 mov	 esi, eax

; 345  : 	if( pImage == NULL )

  00058	85 f6		 test	 esi, esi
  0005a	74 36		 je	 SHORT $LN18@LoadString
$LN16@LoadString:

; 346  : 	{
; 347  : 		return( NULL );
; 348  : 	}
; 349  : 
; 350  : 	nResourceSize = ::SizeofResource( hInstance, hResource );

  0005c	ff 75 08	 push	 DWORD PTR _hResource$1$[ebp]
  0005f	53		 push	 ebx
  00060	ff 15 00 00 00
	00		 call	 DWORD PTR __imp__SizeofResource@8

; 351  : 	pImageEnd = (const ATLSTRINGRESOURCEIMAGE*)(LPBYTE( pImage )+nResourceSize);

  00066	8d 0c 06	 lea	 ecx, DWORD PTR [esi+eax]

; 352  : 	iIndex = id&0x000f;

  00069	83 e7 0f	 and	 edi, 15			; 0000000fH

; 353  : 
; 354  : 	while( (iIndex > 0) && (pImage < pImageEnd) )

  0006c	76 14		 jbe	 SHORT $LN14@LoadString
  0006e	66 90		 npad	 2
$LL13@LoadString:
  00070	3b f1		 cmp	 esi, ecx
  00072	73 12		 jae	 SHORT $LN50@LoadString

; 355  : 	{
; 356  : 		pImage = (const ATLSTRINGRESOURCEIMAGE*)(LPBYTE( pImage )+(sizeof( ATLSTRINGRESOURCEIMAGE )+(pImage->nLength*sizeof( WCHAR ))));

  00074	0f b7 06	 movzx	 eax, WORD PTR [esi]
  00077	8d 34 46	 lea	 esi, DWORD PTR [esi+eax*2]
  0007a	83 c6 02	 add	 esi, 2

; 357  : 		iIndex--;

  0007d	83 ef 01	 sub	 edi, 1
  00080	75 ee		 jne	 SHORT $LL13@LoadString
$LN14@LoadString:

; 358  : 	}
; 359  : 	if( pImage >= pImageEnd )

  00082	3b f1		 cmp	 esi, ecx
  00084	72 04		 jb	 SHORT $LN17@LoadString
$LN50@LoadString:

; 360  : 	{
; 361  : 		return( NULL );

  00086	33 f6		 xor	 esi, esi
  00088	eb 08		 jmp	 SHORT $LN18@LoadString
$LN17@LoadString:

; 362  : 	}
; 363  : 	if( pImage->nLength == 0 )

  0008a	33 c0		 xor	 eax, eax
  0008c	66 39 06	 cmp	 WORD PTR [esi], ax
  0008f	0f 44 f0	 cmove	 esi, eax
$LN18@LoadString:
; File C:\Program Files\Microsoft Visual Studio\2022\Professional\VC\Tools\MSVC\14.44.35207\atlmfc\include\cstringt.h

; 2356 : 		if( pImage == NULL )

  00092	85 f6		 test	 esi, esi
  00094	74 75		 je	 SHORT $LN51@LoadString

; 2359 : 		}
; 2360 : 
; 2361 : 		int nLength = StringTraits::GetBaseTypeLength( pImage->achString, pImage->nLength );

  00096	0f b7 06	 movzx	 eax, WORD PTR [esi]
  00099	8d 4e 02	 lea	 ecx, DWORD PTR [esi+2]

; 350  : 		return ::WideCharToMultiByte( _AtlGetConversionACP(), 0, pszSource, nLength, NULL, 0, NULL, NULL );

  0009c	6a 00		 push	 0
  0009e	6a 00		 push	 0
  000a0	6a 00		 push	 0
  000a2	6a 00		 push	 0
  000a4	50		 push	 eax
  000a5	51		 push	 ecx
  000a6	6a 00		 push	 0
  000a8	6a 03		 push	 3
  000aa	ff 15 00 00 00
	00		 call	 DWORD PTR __imp__WideCharToMultiByte@32

; 2361 : 		int nLength = StringTraits::GetBaseTypeLength( pImage->achString, pImage->nLength );

  000b0	8b f8		 mov	 edi, eax
; File C:\Program Files\Microsoft Visual Studio\2022\Professional\VC\Tools\MSVC\14.44.35207\atlmfc\include\atlsimpstr.h

; 808  : 		if (nLength < 0)

  000b2	85 ff		 test	 edi, edi
  000b4	78 60		 js	 SHORT $LN38@LoadString

; 804  : 		return( reinterpret_cast< CStringData* >( m_pszData )-1 );

  000b6	8b 5d fc	 mov	 ebx, DWORD PTR _this$1$[ebp]

; 812  : 		int nShared = 1-pOldData->nRefs;  // nShared < 0 means true, >= 0 means false

  000b9	ba 01 00 00 00	 mov	 edx, 1

; 804  : 		return( reinterpret_cast< CStringData* >( m_pszData )-1 );

  000be	8b 0b		 mov	 ecx, DWORD PTR [ebx]

; 812  : 		int nShared = 1-pOldData->nRefs;  // nShared < 0 means true, >= 0 means false

  000c0	2b 51 fc	 sub	 edx, DWORD PTR [ecx-4]

; 813  : 		int nTooShort = pOldData->nAllocLength-nLength;  // nTooShort < 0 means true, >= 0 means false

  000c3	8b 49 f8	 mov	 ecx, DWORD PTR [ecx-8]
  000c6	2b cf		 sub	 ecx, edi

; 814  : 		if( (nShared|nTooShort) < 0 )  // If either sign bit is set (i.e. either is less than zero), we need to copy data

  000c8	0b d1		 or	 edx, ecx
  000ca	7d 08		 jge	 SHORT $LN26@LoadString

; 815  : 		{
; 816  : 			PrepareWrite2( nLength );

  000cc	57		 push	 edi
  000cd	8b cb		 mov	 ecx, ebx
  000cf	e8 00 00 00 00	 call	 ?PrepareWrite2@?$CSimpleStringT@D$0A@@ATL@@AAEXH@Z ; ATL::CSimpleStringT<char,0>::PrepareWrite2
$LN26@LoadString:
; File C:\Program Files\Microsoft Visual Studio\2022\Professional\VC\Tools\MSVC\14.44.35207\atlmfc\include\cstringt.h

; 2363 : 		StringTraits::ConvertToBaseType( pszBuffer, nLength, pImage->achString, pImage->nLength );

  000d4	0f b7 06	 movzx	 eax, WORD PTR [esi]

; 372  : 		::WideCharToMultiByte( _AtlGetConversionACP(), 0, pszSrc, nSrcLength, pszDest, nDestLength, NULL, NULL );

  000d7	6a 00		 push	 0
  000d9	6a 00		 push	 0
  000db	57		 push	 edi
  000dc	ff 33		 push	 DWORD PTR [ebx]
  000de	50		 push	 eax
  000df	8d 46 02	 lea	 eax, DWORD PTR [esi+2]
  000e2	50		 push	 eax
  000e3	6a 00		 push	 0
  000e5	6a 03		 push	 3
  000e7	ff 15 00 00 00
	00		 call	 DWORD PTR __imp__WideCharToMultiByte@32
; File C:\Program Files\Microsoft Visual Studio\2022\Professional\VC\Tools\MSVC\14.44.35207\atlmfc\include\atlsimpstr.h

; 875  : 		if( nLength < 0 || nLength > GetData()->nAllocLength)

  000ed	8b 03		 mov	 eax, DWORD PTR [ebx]
  000ef	3b 78 f8	 cmp	 edi, DWORD PTR [eax-8]
  000f2	7f 22		 jg	 SHORT $LN38@LoadString

; 877  : 
; 878  : 		GetData()->nDataLength = nLength;

  000f4	89 78 f4	 mov	 DWORD PTR [eax-12], edi

; 879  : 		m_pszData[nLength] = 0;

  000f7	8b 03		 mov	 eax, DWORD PTR [ebx]
; File C:\Program Files\Microsoft Visual Studio\2022\Professional\VC\Tools\MSVC\14.44.35207\atlmfc\include\cstringt.h

; 2347 : 		return( LoadString( hInstance, nID ) );

  000f9	5e		 pop	 esi
; File C:\Program Files\Microsoft Visual Studio\2022\Professional\VC\Tools\MSVC\14.44.35207\atlmfc\include\atlsimpstr.h

; 879  : 		m_pszData[nLength] = 0;

  000fa	c6 04 07 00	 mov	 BYTE PTR [edi+eax], 0
; File C:\Program Files\Microsoft Visual Studio\2022\Professional\VC\Tools\MSVC\14.44.35207\atlmfc\include\cstringt.h

; 2366 : 		return( TRUE );

  000fe	b8 01 00 00 00	 mov	 eax, 1
  00103	5f		 pop	 edi

; 2348 : 	}

  00104	5b		 pop	 ebx
  00105	8b e5		 mov	 esp, ebp
  00107	5d		 pop	 ebp
  00108	c2 04 00	 ret	 4
$LN51@LoadString:

; 2347 : 		return( LoadString( hInstance, nID ) );

  0010b	5e		 pop	 esi
  0010c	5f		 pop	 edi

; 2358 : 			return( FALSE );

  0010d	33 c0		 xor	 eax, eax

; 2348 : 	}

  0010f	5b		 pop	 ebx
  00110	8b e5		 mov	 esp, ebp
  00112	5d		 pop	 ebp
  00113	c2 04 00	 ret	 4
$LN38@LoadString:
; File C:\Program Files\Microsoft Visual Studio\2022\Professional\VC\Tools\MSVC\14.44.35207\atlmfc\include\atlsimpstr.h

; 876  : 			AtlThrow(E_INVALIDARG);

  00116	68 57 00 07 80	 push	 -2147024809		; 80070057H
  0011b	e8 00 00 00 00	 call	 ?AtlThrowImpl@ATL@@YGXJ@Z ; ATL::AtlThrowImpl
$LN63@LoadString:
  00120	cc		 int	 3
?LoadStringA@?$CStringT@DV?$StrTraitMFC@DV?$ChTraitsCRT@D@ATL@@@@@ATL@@QAEHI@Z ENDP ; ATL::CStringT<char,StrTraitMFC<char,ATL::ChTraitsCRT<char> > >::LoadStringA
_TEXT	ENDS
; Function compile flags: /Ogtp
; File C:\Program Files\Microsoft Visual Studio\2022\Professional\VC\Tools\MSVC\14.44.35207\atlmfc\include\cstringt.h
; File C:\Program Files\Microsoft Visual Studio\2022\Professional\VC\Tools\MSVC\14.44.35207\atlmfc\include\atlsimpstr.h
; File C:\Program Files\Microsoft Visual Studio\2022\Professional\VC\Tools\MSVC\14.44.35207\atlmfc\include\cstringt.h
;	COMDAT ??1?$CStringT@DV?$StrTraitMFC@DV?$ChTraitsCRT@D@ATL@@@@@ATL@@QAE@XZ
_TEXT	SEGMENT
??1?$CStringT@DV?$StrTraitMFC@DV?$ChTraitsCRT@D@ATL@@@@@ATL@@QAE@XZ PROC ; ATL::CStringT<char,StrTraitMFC<char,ATL::ChTraitsCRT<char> > >::~CStringT<char,StrTraitMFC<char,ATL::ChTraitsCRT<char> > >, COMDAT
; _this$ = ecx
; File C:\Program Files\Microsoft Visual Studio\2022\Professional\VC\Tools\MSVC\14.44.35207\atlmfc\include\atlsimpstr.h

; 804  : 		return( reinterpret_cast< CStringData* >( m_pszData )-1 );

  00000	8b 11		 mov	 edx, DWORD PTR [ecx]

; 92   : 		if( _InterlockedDecrement( &nRefs ) <= 0 )

  00002	83 c8 ff	 or	 eax, -1

; 804  : 		return( reinterpret_cast< CStringData* >( m_pszData )-1 );

  00005	83 ea 10	 sub	 edx, 16			; 00000010H

; 92   : 		if( _InterlockedDecrement( &nRefs ) <= 0 )

  00008	f0 0f c1 42 0c	 lock	  xadd	 DWORD PTR [edx+12], eax
  0000d	48		 dec	 eax
  0000e	85 c0		 test	 eax, eax
  00010	7f 08		 jg	 SHORT $LN8@CStringT

; 93   : 		{
; 94   : 			pStringMgr->Free( this );

  00012	8b 0a		 mov	 ecx, DWORD PTR [edx]
  00014	52		 push	 edx
  00015	8b 01		 mov	 eax, DWORD PTR [ecx]
  00017	ff 50 04	 call	 DWORD PTR [eax+4]
$LN8@CStringT:
; File C:\Program Files\Microsoft Visual Studio\2022\Professional\VC\Tools\MSVC\14.44.35207\atlmfc\include\cstringt.h

; 1303 : 	}

  0001a	c3		 ret	 0
??1?$CStringT@DV?$StrTraitMFC@DV?$ChTraitsCRT@D@ATL@@@@@ATL@@QAE@XZ ENDP ; ATL::CStringT<char,StrTraitMFC<char,ATL::ChTraitsCRT<char> > >::~CStringT<char,StrTraitMFC<char,ATL::ChTraitsCRT<char> > >
_TEXT	ENDS
; Function compile flags: /Ogtp
; File C:\Program Files\Microsoft Visual Studio\2022\Professional\VC\Tools\MSVC\14.44.35207\atlmfc\include\atlsimpstr.h
;	COMDAT ?Reallocate@?$CSimpleStringT@D$0A@@ATL@@AAEXH@Z
_TEXT	SEGMENT
_nLength$ = 8						; size = 4
?Reallocate@?$CSimpleStringT@D$0A@@ATL@@AAEXH@Z PROC	; ATL::CSimpleStringT<char,0>::Reallocate, COMDAT
; _this$ = ecx

; 853  : 	{

  00000	55		 push	 ebp
  00001	8b ec		 mov	 ebp, esp
  00003	56		 push	 esi

; 854  : 		CStringData* pOldData = GetData();
; 855  : 		ATLASSERT( pOldData->nAllocLength < nLength );
; 856  : 		IAtlStringMgr* pStringMgr = pOldData->pStringMgr;
; 857  : 		if ( pOldData->nAllocLength >= nLength || nLength <= 0)

  00004	8b 75 08	 mov	 esi, DWORD PTR _nLength$[ebp]
  00007	57		 push	 edi
  00008	8b f9		 mov	 edi, ecx

; 804  : 		return( reinterpret_cast< CStringData* >( m_pszData )-1 );

  0000a	8b 17		 mov	 edx, DWORD PTR [edi]
  0000c	83 ea 10	 sub	 edx, 16			; 00000010H

; 854  : 		CStringData* pOldData = GetData();
; 855  : 		ATLASSERT( pOldData->nAllocLength < nLength );
; 856  : 		IAtlStringMgr* pStringMgr = pOldData->pStringMgr;
; 857  : 		if ( pOldData->nAllocLength >= nLength || nLength <= 0)

  0000f	39 72 08	 cmp	 DWORD PTR [edx+8], esi
  00012	7d 1e		 jge	 SHORT $LN3@Reallocate
  00014	85 f6		 test	 esi, esi
  00016	7e 1a		 jle	 SHORT $LN3@Reallocate

; 860  : 			return;
; 861  : 		}
; 862  : 		CStringData* pNewData = pStringMgr->Reallocate( pOldData, nLength, sizeof( XCHAR ) );

  00018	8b 0a		 mov	 ecx, DWORD PTR [edx]
  0001a	6a 01		 push	 1
  0001c	56		 push	 esi
  0001d	52		 push	 edx
  0001e	8b 01		 mov	 eax, DWORD PTR [ecx]
  00020	ff 50 08	 call	 DWORD PTR [eax+8]

; 863  : 		if( pNewData == NULL )

  00023	85 c0		 test	 eax, eax
  00025	74 0b		 je	 SHORT $LN3@Reallocate

; 864  : 		{
; 865  : 			ThrowMemoryException();
; 866  : 		}
; 867  : 		Attach( pNewData );

  00027	83 c0 10	 add	 eax, 16			; 00000010H
  0002a	89 07		 mov	 DWORD PTR [edi], eax
  0002c	5f		 pop	 edi
  0002d	5e		 pop	 esi

; 868  : 	}

  0002e	5d		 pop	 ebp
  0002f	c2 04 00	 ret	 4
$LN3@Reallocate:

; 858  : 		{
; 859  : 			ThrowMemoryException();

  00032	e8 00 00 00 00	 call	 ?ThrowMemoryException@?$CSimpleStringT@D$0A@@ATL@@KAXXZ ; ATL::CSimpleStringT<char,0>::ThrowMemoryException
$LN12@Reallocate:
  00037	cc		 int	 3
?Reallocate@?$CSimpleStringT@D$0A@@ATL@@AAEXH@Z ENDP	; ATL::CSimpleStringT<char,0>::Reallocate
_TEXT	ENDS
; Function compile flags: /Ogtp
; File C:\Program Files\Microsoft Visual Studio\2022\Professional\VC\Tools\MSVC\14.44.35207\atlmfc\include\atlsimpstr.h
;	COMDAT ?PrepareWrite2@?$CSimpleStringT@D$0A@@ATL@@AAEXH@Z
_TEXT	SEGMENT
_nLength$ = 8						; size = 4
?PrepareWrite2@?$CSimpleStringT@D$0A@@ATL@@AAEXH@Z PROC	; ATL::CSimpleStringT<char,0>::PrepareWrite2, COMDAT
; _this$ = ecx

; 822  : 	{

  00000	55		 push	 ebp
  00001	8b ec		 mov	 ebp, esp
  00003	56		 push	 esi

; 823  : 		CStringData* pOldData = GetData();
; 824  : 		if( pOldData->nDataLength > nLength )

  00004	8b 75 08	 mov	 esi, DWORD PTR _nLength$[ebp]
  00007	57		 push	 edi
  00008	8b f9		 mov	 edi, ecx

; 804  : 		return( reinterpret_cast< CStringData* >( m_pszData )-1 );

  0000a	8b 0f		 mov	 ecx, DWORD PTR [edi]

; 823  : 		CStringData* pOldData = GetData();
; 824  : 		if( pOldData->nDataLength > nLength )

  0000c	39 71 f4	 cmp	 DWORD PTR [ecx-12], esi
  0000f	0f 4f 71 f4	 cmovg	 esi, DWORD PTR [ecx-12]

; 77   : 		return( nRefs > 1 );

  00013	83 79 fc 01	 cmp	 DWORD PTR [ecx-4], 1

; 825  : 		{
; 826  : 			nLength = pOldData->nDataLength;
; 827  : 		}
; 828  : 		if( pOldData->IsShared() )

  00017	7e 0e		 jle	 SHORT $LN3@PrepareWri

; 829  : 		{
; 830  : 			Fork( nLength );

  00019	56		 push	 esi
  0001a	8b cf		 mov	 ecx, edi
  0001c	e8 00 00 00 00	 call	 ?Fork@?$CSimpleStringT@D$0A@@ATL@@AAEXH@Z ; ATL::CSimpleStringT<char,0>::Fork
  00021	5f		 pop	 edi

; 850  : 		}
; 851  : 	}

  00022	5e		 pop	 esi
  00023	5d		 pop	 ebp
  00024	c2 04 00	 ret	 4
$LN3@PrepareWri:

; 831  : 		}
; 832  : 		else if( pOldData->nAllocLength < nLength )

  00027	8b 49 f8	 mov	 ecx, DWORD PTR [ecx-8]
  0002a	3b ce		 cmp	 ecx, esi
  0002c	7d 25		 jge	 SHORT $LN5@PrepareWri

; 833  : 		{
; 834  : 			// Grow exponentially, until we hit 1G, then by 1M thereafter.
; 835  : 			int nNewLength = pOldData->nAllocLength;
; 836  : 			if( nNewLength > 1024 * 1024 * 1024 )

  0002e	81 f9 00 00 00
	40		 cmp	 ecx, 1073741824		; 40000000H
  00034	7e 07		 jle	 SHORT $LN6@PrepareWri

; 837  : 			{
; 838  : 				nNewLength += 1024 * 1024;

  00036	b8 00 00 10 00	 mov	 eax, 1048576		; 00100000H

; 839  : 			}

  0003b	eb 07		 jmp	 SHORT $LN7@PrepareWri
$LN6@PrepareWri:

; 840  : 			else
; 841  : 			{
; 842  : 				// Exponential growth factor is 1.5.
; 843  : 				nNewLength = nNewLength + nNewLength / 2;

  0003d	8b c1		 mov	 eax, ecx
  0003f	99		 cdq
  00040	2b c2		 sub	 eax, edx
  00042	d1 f8		 sar	 eax, 1
$LN7@PrepareWri:

; 844  : 			}
; 845  : 			if( nNewLength < nLength )

  00044	03 c1		 add	 eax, ecx

; 846  : 			{
; 847  : 				nNewLength = nLength;
; 848  : 			}
; 849  : 			Reallocate( nNewLength );

  00046	8b cf		 mov	 ecx, edi
  00048	3b c6		 cmp	 eax, esi
  0004a	0f 4d f0	 cmovge	 esi, eax
  0004d	56		 push	 esi
  0004e	e8 00 00 00 00	 call	 ?Reallocate@?$CSimpleStringT@D$0A@@ATL@@AAEXH@Z ; ATL::CSimpleStringT<char,0>::Reallocate
$LN5@PrepareWri:

; 850  : 		}
; 851  : 	}

  00053	5f		 pop	 edi
  00054	5e		 pop	 esi
  00055	5d		 pop	 ebp
  00056	c2 04 00	 ret	 4
?PrepareWrite2@?$CSimpleStringT@D$0A@@ATL@@AAEXH@Z ENDP	; ATL::CSimpleStringT<char,0>::PrepareWrite2
_TEXT	ENDS
; Function compile flags: /Ogtp
; File C:\Program Files\Microsoft Visual Studio\2022\Professional\VC\Tools\MSVC\14.44.35207\atlmfc\include\atlsimpstr.h
; File C:\Program Files (x86)\Windows Kits\10\Include\10.0.26100.0\ucrt\corecrt_memcpy_s.h
; File C:\Program Files\Microsoft Visual Studio\2022\Professional\VC\Tools\MSVC\14.44.35207\atlmfc\include\atlsimpstr.h
;	COMDAT ?Fork@?$CSimpleStringT@D$0A@@ATL@@AAEXH@Z
_TEXT	SEGMENT
_this$1$ = -12						; size = 4
_nOldLength$1$ = -8					; size = 4
__Source$1$ = -4					; size = 4
_nLength$ = 8						; size = 4
_pNewData$1$ = 8					; size = 4
?Fork@?$CSimpleStringT@D$0A@@ATL@@AAEXH@Z PROC		; ATL::CSimpleStringT<char,0>::Fork, COMDAT
; _this$ = ecx

; 787  : 	{

  00000	55		 push	 ebp
  00001	8b ec		 mov	 ebp, esp
  00003	83 ec 0c	 sub	 esp, 12			; 0000000cH
  00006	8b c1		 mov	 eax, ecx
  00008	89 45 f4	 mov	 DWORD PTR _this$1$[ebp], eax
  0000b	53		 push	 ebx
  0000c	56		 push	 esi

; 804  : 		return( reinterpret_cast< CStringData* >( m_pszData )-1 );

  0000d	8b 00		 mov	 eax, DWORD PTR [eax]

; 790  : 		CStringData* pNewData = pOldData->pStringMgr->Clone()->Allocate( nLength, sizeof( XCHAR ) );

  0000f	8b 48 f0	 mov	 ecx, DWORD PTR [eax-16]

; 804  : 		return( reinterpret_cast< CStringData* >( m_pszData )-1 );

  00012	8d 58 f0	 lea	 ebx, DWORD PTR [eax-16]
  00015	89 45 fc	 mov	 DWORD PTR __Source$1$[ebp], eax

; 787  : 	{

  00018	57		 push	 edi

; 788  : 		CStringData* pOldData = GetData();
; 789  : 		int nOldLength = pOldData->nDataLength;

  00019	8b 7b 04	 mov	 edi, DWORD PTR [ebx+4]

; 790  : 		CStringData* pNewData = pOldData->pStringMgr->Clone()->Allocate( nLength, sizeof( XCHAR ) );

  0001c	8b 01		 mov	 eax, DWORD PTR [ecx]
  0001e	89 7d f8	 mov	 DWORD PTR _nOldLength$1$[ebp], edi
  00021	ff 50 10	 call	 DWORD PTR [eax+16]
  00024	8b 75 08	 mov	 esi, DWORD PTR _nLength$[ebp]
  00027	8b c8		 mov	 ecx, eax
  00029	6a 01		 push	 1
  0002b	56		 push	 esi
  0002c	8b 10		 mov	 edx, DWORD PTR [eax]
  0002e	ff 12		 call	 DWORD PTR [edx]
  00030	89 45 08	 mov	 DWORD PTR _pNewData$1$[ebp], eax

; 791  : 		if( pNewData == NULL )

  00033	85 c0		 test	 eax, eax
  00035	74 6c		 je	 SHORT $LN25@Fork

; 794  : 		}
; 795  : 		int nCharsToCopy = ((nOldLength < nLength) ? nOldLength : nLength)+1;  // Copy '\0'

  00037	3b fe		 cmp	 edi, esi
  00039	0f 4c f7	 cmovl	 esi, edi

; 796  : 		memcpy_s( PXSTR( pNewData->data() ), nCharsToCopy * sizeof( XCHAR ),

  0003c	8d 78 10	 lea	 edi, DWORD PTR [eax+16]
  0003f	83 c6 01	 add	 esi, 1
; File C:\Program Files (x86)\Windows Kits\10\Include\10.0.26100.0\ucrt\corecrt_memcpy_s.h

; 47   :         if (_SourceSize == 0)

  00042	74 33		 je	 SHORT $LN11@Fork

; 48   :         {
; 49   :             return 0;
; 50   :         }
; 51   : 
; 52   :         _CRT_MEMCPY_S_VALIDATE_RETURN_ERRCODE(_Destination != NULL, EINVAL);

  00044	85 ff		 test	 edi, edi
  00046	74 1f		 je	 SHORT $LN23@Fork

; 53   :         if (_Source == NULL || _DestinationSize < _SourceSize)

  00048	8b 45 fc	 mov	 eax, DWORD PTR __Source$1$[ebp]
  0004b	56		 push	 esi
  0004c	85 c0		 test	 eax, eax
  0004e	74 0c		 je	 SHORT $LN10@Fork

; 56   : 
; 57   :             _CRT_MEMCPY_S_VALIDATE_RETURN_ERRCODE(_Source != NULL,                 EINVAL);
; 58   :             _CRT_MEMCPY_S_VALIDATE_RETURN_ERRCODE(_DestinationSize >= _SourceSize, ERANGE);
; 59   : 
; 60   :             // Unreachable, but required to suppress /analyze warnings:
; 61   :             return EINVAL;
; 62   :         }
; 63   :         memcpy(_Destination, _Source, _SourceSize);

  00050	50		 push	 eax
  00051	57		 push	 edi
  00052	e8 00 00 00 00	 call	 _memcpy
  00057	83 c4 0c	 add	 esp, 12			; 0000000cH
  0005a	eb 1b		 jmp	 SHORT $LN11@Fork
$LN10@Fork:

; 54   :         {
; 55   :             memset(_Destination, 0, _DestinationSize);

  0005c	6a 00		 push	 0
  0005e	57		 push	 edi
  0005f	e8 00 00 00 00	 call	 _memset
  00064	83 c4 0c	 add	 esp, 12			; 0000000cH
$LN23@Fork:
; File C:\Program Files\Microsoft Visual Studio\2022\Professional\VC\Tools\MSVC\14.44.35207\atlmfc\include\atlsimpstr.h

; 798  : 		pNewData->nDataLength = nOldLength;

  00067	e8 00 00 00 00	 call	 __errno
  0006c	c7 00 16 00 00
	00		 mov	 DWORD PTR [eax], 22	; 00000016H
  00072	e8 00 00 00 00	 call	 __invalid_parameter_noinfo
$LN11@Fork:
  00077	8b 4d 08	 mov	 ecx, DWORD PTR _pNewData$1$[ebp]
  0007a	8b 45 f8	 mov	 eax, DWORD PTR _nOldLength$1$[ebp]
  0007d	89 41 04	 mov	 DWORD PTR [ecx+4], eax

; 92   : 		if( _InterlockedDecrement( &nRefs ) <= 0 )

  00080	83 c8 ff	 or	 eax, -1
  00083	f0 0f c1 43 0c	 lock	  xadd	 DWORD PTR [ebx+12], eax
  00088	48		 dec	 eax
  00089	85 c0		 test	 eax, eax
  0008b	7f 08		 jg	 SHORT $LN15@Fork

; 93   : 		{
; 94   : 			pStringMgr->Free( this );

  0008d	8b 0b		 mov	 ecx, DWORD PTR [ebx]
  0008f	53		 push	 ebx
  00090	8b 01		 mov	 eax, DWORD PTR [ecx]
  00092	ff 50 04	 call	 DWORD PTR [eax+4]
$LN15@Fork:

; 799  : 		pOldData->Release();
; 800  : 		Attach( pNewData );

  00095	8b 45 f4	 mov	 eax, DWORD PTR _this$1$[ebp]
  00098	89 38		 mov	 DWORD PTR [eax], edi

; 801  : 	}

  0009a	5f		 pop	 edi
  0009b	5e		 pop	 esi
  0009c	5b		 pop	 ebx
  0009d	8b e5		 mov	 esp, ebp
  0009f	5d		 pop	 ebp
  000a0	c2 04 00	 ret	 4
$LN25@Fork:

; 792  : 		{
; 793  : 			ThrowMemoryException();

  000a3	e8 00 00 00 00	 call	 ?ThrowMemoryException@?$CSimpleStringT@D$0A@@ATL@@KAXXZ ; ATL::CSimpleStringT<char,0>::ThrowMemoryException
$LN22@Fork:
  000a8	cc		 int	 3
?Fork@?$CSimpleStringT@D$0A@@ATL@@AAEXH@Z ENDP		; ATL::CSimpleStringT<char,0>::Fork
_TEXT	ENDS
; Function compile flags: /Ogtp
; File C:\Program Files\Microsoft Visual Studio\2022\Professional\VC\Tools\MSVC\14.44.35207\atlmfc\include\atlsimpstr.h
;	COMDAT ?ThrowMemoryException@?$CSimpleStringT@D$0A@@ATL@@KAXXZ
_TEXT	SEGMENT
?ThrowMemoryException@?$CSimpleStringT@D$0A@@ATL@@KAXXZ PROC ; ATL::CSimpleStringT<char,0>::ThrowMemoryException, COMDAT

; 777  : 		AtlThrow( E_OUTOFMEMORY );

  00000	68 0e 00 07 80	 push	 -2147024882		; 8007000eH
  00005	e8 00 00 00 00	 call	 ?AtlThrowImpl@ATL@@YGXJ@Z ; ATL::AtlThrowImpl
$LN3@ThrowMemor:
  0000a	cc		 int	 3
?ThrowMemoryException@?$CSimpleStringT@D$0A@@ATL@@KAXXZ ENDP ; ATL::CSimpleStringT<char,0>::ThrowMemoryException
_TEXT	ENDS
; Function compile flags: /Ogtp
; File C:\Program Files\Microsoft Visual Studio\2022\Professional\VC\Tools\MSVC\14.44.35207\atlmfc\include\atlsimpstr.h
; File C:\Program Files (x86)\Windows Kits\10\Include\10.0.26100.0\ucrt\corecrt_memcpy_s.h
; File C:\Program Files\Microsoft Visual Studio\2022\Professional\VC\Tools\MSVC\14.44.35207\atlmfc\include\atlsimpstr.h
; File C:\Program Files (x86)\Windows Kits\10\Include\10.0.26100.0\ucrt\corecrt_memcpy_s.h
; File C:\Program Files\Microsoft Visual Studio\2022\Professional\VC\Tools\MSVC\14.44.35207\atlmfc\include\atlsimpstr.h
;	COMDAT ?SetString@?$CSimpleStringT@D$0A@@ATL@@QAEXPBDH@Z
_TEXT	SEGMENT
_pszSrc$ = 8						; size = 4
_nOldLength$1$ = 8					; size = 4
_nLength$ = 12						; size = 4
_nOffset$1$ = 12					; size = 4
?SetString@?$CSimpleStringT@D$0A@@ATL@@QAEXPBDH@Z PROC	; ATL::CSimpleStringT<char,0>::SetString, COMDAT
; _this$ = ecx

; 611  : 	{

  00000	55		 push	 ebp
  00001	8b ec		 mov	 ebp, esp
  00003	56		 push	 esi

; 612  : 		if( nLength == 0 )

  00004	8b 75 0c	 mov	 esi, DWORD PTR _nLength$[ebp]
  00007	57		 push	 edi
  00008	8b f9		 mov	 edi, ecx
  0000a	85 f6		 test	 esi, esi
  0000c	75 58		 jne	 SHORT $LN2@SetString

; 804  : 		return( reinterpret_cast< CStringData* >( m_pszData )-1 );

  0000e	8b 07		 mov	 eax, DWORD PTR [edi]

; 443  : 		if( pOldData->nDataLength == 0 )

  00010	83 78 f4 00	 cmp	 DWORD PTR [eax-12], 0

; 804  : 		return( reinterpret_cast< CStringData* >( m_pszData )-1 );

  00014	8d 50 f0	 lea	 edx, DWORD PTR [eax-16]

; 442  : 		IAtlStringMgr* pStringMgr = pOldData->pStringMgr;

  00017	8b 32		 mov	 esi, DWORD PTR [edx]

; 443  : 		if( pOldData->nDataLength == 0 )

  00019	74 1f		 je	 SHORT $LN72@SetString

; 73   : 		return nRefs < 0;

  0001b	83 7a 0c 00	 cmp	 DWORD PTR [edx+12], 0
  0001f	8d 4a 0c	 lea	 ecx, DWORD PTR [edx+12]

; 448  : 		if( pOldData->IsLocked() )

  00022	7d 1c		 jge	 SHORT $LN10@SetString

; 875  : 		if( nLength < 0 || nLength > GetData()->nAllocLength)

  00024	83 78 f8 00	 cmp	 DWORD PTR [eax-8], 0
  00028	0f 8c 0b 01 00
	00		 jl	 $LN71@SetString

; 877  : 
; 878  : 		GetData()->nDataLength = nLength;

  0002e	c7 40 f4 00 00
	00 00		 mov	 DWORD PTR [eax-12], 0

; 879  : 		m_pszData[nLength] = 0;

  00035	8b 07		 mov	 eax, DWORD PTR [edi]
  00037	c6 00 00	 mov	 BYTE PTR [eax], 0
$LN72@SetString:
  0003a	5f		 pop	 edi

; 638  : 			else
; 639  : 			{
; 640  : 				memcpy_s( pszBuffer, GetAllocLength() * sizeof( XCHAR ), pszSrc, nLength * sizeof( XCHAR ));
; 641  : 			}
; 642  : 			ReleaseBufferSetLength( nLength );
; 643  : 		}
; 644  : 	}

  0003b	5e		 pop	 esi
  0003c	5d		 pop	 ebp
  0003d	c2 08 00	 ret	 8
$LN10@SetString:

; 92   : 		if( _InterlockedDecrement( &nRefs ) <= 0 )

  00040	83 c8 ff	 or	 eax, -1
  00043	f0 0f c1 01	 lock	  xadd	 DWORD PTR [ecx], eax
  00047	48		 dec	 eax
  00048	85 c0		 test	 eax, eax
  0004a	7f 08		 jg	 SHORT $LN27@SetString

; 93   : 		{
; 94   : 			pStringMgr->Free( this );

  0004c	8b 0a		 mov	 ecx, DWORD PTR [edx]
  0004e	52		 push	 edx
  0004f	8b 01		 mov	 eax, DWORD PTR [ecx]
  00051	ff 50 04	 call	 DWORD PTR [eax+4]
$LN27@SetString:

; 456  : 			CStringData* pNewData = pStringMgr->GetNilString();

  00054	8b 06		 mov	 eax, DWORD PTR [esi]
  00056	8b ce		 mov	 ecx, esi
  00058	ff 50 0c	 call	 DWORD PTR [eax+12]

; 457  : 			Attach( pNewData );

  0005b	83 c0 10	 add	 eax, 16			; 00000010H
  0005e	89 07		 mov	 DWORD PTR [edi], eax
  00060	5f		 pop	 edi

; 638  : 			else
; 639  : 			{
; 640  : 				memcpy_s( pszBuffer, GetAllocLength() * sizeof( XCHAR ), pszSrc, nLength * sizeof( XCHAR ));
; 641  : 			}
; 642  : 			ReleaseBufferSetLength( nLength );
; 643  : 		}
; 644  : 	}

  00061	5e		 pop	 esi
  00062	5d		 pop	 ebp
  00063	c2 08 00	 ret	 8
$LN2@SetString:
  00066	53		 push	 ebx

; 613  : 		{
; 614  : 			Empty();
; 615  : 		}
; 616  : 		else
; 617  : 		{
; 618  : 			// It is possible that pszSrc points to a location inside of our
; 619  : 			// buffer.  GetBuffer() might change m_pszData if (1) the buffer
; 620  : 			// is shared or (2) the buffer is too small to hold the new
; 621  : 			// string.  We detect this aliasing, and modify pszSrc to point
; 622  : 			// into the newly allocated buffer instead.
; 623  : 
; 624  : 			if(pszSrc == NULL)

  00067	8b 5d 08	 mov	 ebx, DWORD PTR _pszSrc$[ebp]
  0006a	85 db		 test	 ebx, ebx
  0006c	0f 84 c7 00 00
	00		 je	 $LN71@SetString

; 523  : 		return( GetData()->nDataLength );

  00072	8b 07		 mov	 eax, DWORD PTR [edi]

; 625  : 				AtlThrow(E_INVALIDARG);
; 626  : 
; 627  : 			UINT nOldLength = GetLength();
; 628  : 			UINT_PTR nOffset = pszSrc-GetString();

  00074	8b d3		 mov	 edx, ebx
  00076	2b d0		 sub	 edx, eax
  00078	89 55 0c	 mov	 DWORD PTR _nOffset$1$[ebp], edx
  0007b	8b 48 f4	 mov	 ecx, DWORD PTR [eax-12]
  0007e	89 4d 08	 mov	 DWORD PTR _nOldLength$1$[ebp], ecx

; 808  : 		if (nLength < 0)

  00081	85 f6		 test	 esi, esi
  00083	0f 88 b0 00 00
	00		 js	 $LN71@SetString

; 809  : 			AtlThrow(E_INVALIDARG);
; 810  : 
; 811  : 		CStringData* pOldData = GetData();
; 812  : 		int nShared = 1-pOldData->nRefs;  // nShared < 0 means true, >= 0 means false

  00089	b9 01 00 00 00	 mov	 ecx, 1
  0008e	2b 48 fc	 sub	 ecx, DWORD PTR [eax-4]

; 813  : 		int nTooShort = pOldData->nAllocLength-nLength;  // nTooShort < 0 means true, >= 0 means false

  00091	8b 40 f8	 mov	 eax, DWORD PTR [eax-8]
  00094	2b c6		 sub	 eax, esi

; 814  : 		if( (nShared|nTooShort) < 0 )  // If either sign bit is set (i.e. either is less than zero), we need to copy data

  00096	0b c8		 or	 ecx, eax
  00098	7d 0b		 jge	 SHORT $LN38@SetString

; 815  : 		{
; 816  : 			PrepareWrite2( nLength );

  0009a	56		 push	 esi
  0009b	8b cf		 mov	 ecx, edi
  0009d	e8 00 00 00 00	 call	 ?PrepareWrite2@?$CSimpleStringT@D$0A@@ATL@@AAEXH@Z ; ATL::CSimpleStringT<char,0>::PrepareWrite2
  000a2	8b 55 0c	 mov	 edx, DWORD PTR _nOffset$1$[ebp]
$LN38@SetString:

; 629  : 			// If 0 <= nOffset <= nOldLength, then pszSrc points into our
; 630  : 			// buffer
; 631  : 
; 632  : 			PXSTR pszBuffer = GetBuffer( nLength );

  000a5	8b 07		 mov	 eax, DWORD PTR [edi]
  000a7	8b 48 f8	 mov	 ecx, DWORD PTR [eax-8]

; 633  : 			if( nOffset <= nOldLength )

  000aa	3b 55 08	 cmp	 edx, DWORD PTR _nOldLength$1$[ebp]
  000ad	77 35		 ja	 SHORT $LN5@SetString

; 634  : 			{
; 635  : 				CopyCharsOverlapped( pszBuffer, GetAllocLength(),

  000af	03 d0		 add	 edx, eax
; File C:\Program Files (x86)\Windows Kits\10\Include\10.0.26100.0\ucrt\corecrt_memcpy_s.h

; 81   :         _CRT_MEMCPY_S_VALIDATE_RETURN_ERRCODE(_Destination != NULL,            EINVAL);

  000b1	85 c0		 test	 eax, eax
  000b3	75 0d		 jne	 SHORT $LN51@SetString
  000b5	e8 00 00 00 00	 call	 __errno
  000ba	c7 00 16 00 00
	00		 mov	 DWORD PTR [eax], 22	; 00000016H
  000c0	eb 5b		 jmp	 SHORT $LN97@SetString
$LN51@SetString:

; 82   :         _CRT_MEMCPY_S_VALIDATE_RETURN_ERRCODE(_Source != NULL,                 EINVAL);

  000c2	85 d2		 test	 edx, edx
  000c4	75 0d		 jne	 SHORT $LN52@SetString
  000c6	e8 00 00 00 00	 call	 __errno
  000cb	c7 00 16 00 00
	00		 mov	 DWORD PTR [eax], 22	; 00000016H
  000d1	eb 4a		 jmp	 SHORT $LN97@SetString
$LN52@SetString:

; 83   :         _CRT_MEMCPY_S_VALIDATE_RETURN_ERRCODE(_DestinationSize >= _SourceSize, ERANGE);

  000d3	3b ce		 cmp	 ecx, esi
  000d5	72 3b		 jb	 SHORT $LN98@SetString

; 84   : 
; 85   :         memmove(_Destination, _Source, _SourceSize);

  000d7	56		 push	 esi
  000d8	52		 push	 edx
  000d9	50		 push	 eax
  000da	e8 00 00 00 00	 call	 _memmove
  000df	83 c4 0c	 add	 esp, 12			; 0000000cH
; File C:\Program Files\Microsoft Visual Studio\2022\Professional\VC\Tools\MSVC\14.44.35207\atlmfc\include\atlsimpstr.h

; 637  : 			}

  000e2	eb 3e		 jmp	 SHORT $LN65@SetString
$LN5@SetString:
; File C:\Program Files (x86)\Windows Kits\10\Include\10.0.26100.0\ucrt\corecrt_memcpy_s.h

; 52   :         _CRT_MEMCPY_S_VALIDATE_RETURN_ERRCODE(_Destination != NULL, EINVAL);

  000e4	85 c0		 test	 eax, eax
  000e6	75 0d		 jne	 SHORT $LN61@SetString
  000e8	e8 00 00 00 00	 call	 __errno
  000ed	c7 00 16 00 00
	00		 mov	 DWORD PTR [eax], 22	; 00000016H
  000f3	eb 28		 jmp	 SHORT $LN97@SetString
$LN61@SetString:

; 53   :         if (_Source == NULL || _DestinationSize < _SourceSize)

  000f5	3b ce		 cmp	 ecx, esi
  000f7	72 0d		 jb	 SHORT $LN63@SetString

; 56   : 
; 57   :             _CRT_MEMCPY_S_VALIDATE_RETURN_ERRCODE(_Source != NULL,                 EINVAL);
; 58   :             _CRT_MEMCPY_S_VALIDATE_RETURN_ERRCODE(_DestinationSize >= _SourceSize, ERANGE);
; 59   : 
; 60   :             // Unreachable, but required to suppress /analyze warnings:
; 61   :             return EINVAL;
; 62   :         }
; 63   :         memcpy(_Destination, _Source, _SourceSize);

  000f9	56		 push	 esi
  000fa	53		 push	 ebx
  000fb	50		 push	 eax
  000fc	e8 00 00 00 00	 call	 _memcpy
  00101	83 c4 0c	 add	 esp, 12			; 0000000cH
  00104	eb 1c		 jmp	 SHORT $LN65@SetString
$LN63@SetString:

; 54   :         {
; 55   :             memset(_Destination, 0, _DestinationSize);

  00106	51		 push	 ecx
  00107	6a 00		 push	 0
  00109	50		 push	 eax
  0010a	e8 00 00 00 00	 call	 _memset
  0010f	83 c4 0c	 add	 esp, 12			; 0000000cH
$LN98@SetString:
; File C:\Program Files\Microsoft Visual Studio\2022\Professional\VC\Tools\MSVC\14.44.35207\atlmfc\include\atlsimpstr.h

; 875  : 		if( nLength < 0 || nLength > GetData()->nAllocLength)

  00112	e8 00 00 00 00	 call	 __errno
  00117	c7 00 22 00 00
	00		 mov	 DWORD PTR [eax], 34	; 00000022H
$LN97@SetString:
  0011d	e8 00 00 00 00	 call	 __invalid_parameter_noinfo
$LN65@SetString:
  00122	8b 07		 mov	 eax, DWORD PTR [edi]
  00124	5b		 pop	 ebx
  00125	3b 70 f8	 cmp	 esi, DWORD PTR [eax-8]
  00128	7f 0f		 jg	 SHORT $LN71@SetString

; 877  : 
; 878  : 		GetData()->nDataLength = nLength;

  0012a	89 70 f4	 mov	 DWORD PTR [eax-12], esi

; 879  : 		m_pszData[nLength] = 0;

  0012d	8b 07		 mov	 eax, DWORD PTR [edi]
  0012f	5f		 pop	 edi
  00130	c6 04 06 00	 mov	 BYTE PTR [esi+eax], 0

; 638  : 			else
; 639  : 			{
; 640  : 				memcpy_s( pszBuffer, GetAllocLength() * sizeof( XCHAR ), pszSrc, nLength * sizeof( XCHAR ));
; 641  : 			}
; 642  : 			ReleaseBufferSetLength( nLength );
; 643  : 		}
; 644  : 	}

  00134	5e		 pop	 esi
  00135	5d		 pop	 ebp
  00136	c2 08 00	 ret	 8
$LN71@SetString:

; 876  : 			AtlThrow(E_INVALIDARG);

  00139	68 57 00 07 80	 push	 -2147024809		; 80070057H
  0013e	e8 00 00 00 00	 call	 ?AtlThrowImpl@ATL@@YGXJ@Z ; ATL::AtlThrowImpl
$LN96@SetString:
  00143	cc		 int	 3
?SetString@?$CSimpleStringT@D$0A@@ATL@@QAEXPBDH@Z ENDP	; ATL::CSimpleStringT<char,0>::SetString
_TEXT	ENDS
; Function compile flags: /Ogtp
; File C:\Program Files\Microsoft Visual Studio\2022\Professional\VC\Tools\MSVC\14.44.35207\atlmfc\include\atlsimpstr.h
;	COMDAT ??1?$CSimpleStringT@D$0A@@ATL@@QAE@XZ
_TEXT	SEGMENT
??1?$CSimpleStringT@D$0A@@ATL@@QAE@XZ PROC		; ATL::CSimpleStringT<char,0>::~CSimpleStringT<char,0>, COMDAT
; _this$ = ecx

; 804  : 		return( reinterpret_cast< CStringData* >( m_pszData )-1 );

  00000	8b 11		 mov	 edx, DWORD PTR [ecx]

; 92   : 		if( _InterlockedDecrement( &nRefs ) <= 0 )

  00002	83 c8 ff	 or	 eax, -1

; 804  : 		return( reinterpret_cast< CStringData* >( m_pszData )-1 );

  00005	83 ea 10	 sub	 edx, 16			; 00000010H

; 92   : 		if( _InterlockedDecrement( &nRefs ) <= 0 )

  00008	f0 0f c1 42 0c	 lock	  xadd	 DWORD PTR [edx+12], eax
  0000d	48		 dec	 eax
  0000e	85 c0		 test	 eax, eax
  00010	7f 08		 jg	 SHORT $LN6@CSimpleStr

; 93   : 		{
; 94   : 			pStringMgr->Free( this );

  00012	8b 0a		 mov	 ecx, DWORD PTR [edx]
  00014	52		 push	 edx
  00015	8b 01		 mov	 eax, DWORD PTR [ecx]
  00017	ff 50 04	 call	 DWORD PTR [eax+4]
$LN6@CSimpleStr:

; 265  : 		CStringData* pData = GetData();
; 266  : 		pData->Release();
; 267  : 	}

  0001a	c3		 ret	 0
??1?$CSimpleStringT@D$0A@@ATL@@QAE@XZ ENDP		; ATL::CSimpleStringT<char,0>::~CSimpleStringT<char,0>
_TEXT	ENDS
; Function compile flags: /Ogtp
; File C:\Program Files\Microsoft Visual Studio\2022\Professional\VC\Tools\MSVC\14.44.35207\atlmfc\include\atlexcept.h
;	COMDAT ?AtlThrowImpl@ATL@@YGXJ@Z
_TEXT	SEGMENT
_hr$ = 8						; size = 4
?AtlThrowImpl@ATL@@YGXJ@Z PROC				; ATL::AtlThrowImpl, COMDAT

; 69   : {

  00000	55		 push	 ebp
  00001	8b ec		 mov	 ebp, esp

; 70   : 	ATLTRACE(atlTraceException, 0, _T("AtlThrow: hr = 0x%x\n"), hr );
; 71   : #ifdef _AFX
; 72   : 	if( hr == E_OUTOFMEMORY )

  00003	8b 45 08	 mov	 eax, DWORD PTR _hr$[ebp]
  00006	3d 0e 00 07 80	 cmp	 eax, -2147024882	; 8007000eH
  0000b	75 05		 jne	 SHORT $LN2@AtlThrowIm

; 73   : 	{
; 74   : 		AfxThrowMemoryException();

  0000d	e8 00 00 00 00	 call	 ?AfxThrowMemoryException@@YGXXZ ; AfxThrowMemoryException
$LN2@AtlThrowIm:

; 75   : 	}
; 76   : 	else
; 77   : 	{
; 78   : 		AfxThrowOleException( hr );

  00012	50		 push	 eax
  00013	e8 00 00 00 00	 call	 ?AfxThrowOleException@@YGXJ@Z ; AfxThrowOleException
$LN5@AtlThrowIm:
  00018	cc		 int	 3
?AtlThrowImpl@ATL@@YGXJ@Z ENDP				; ATL::AtlThrowImpl
_TEXT	ENDS
; Function compile flags: /Ogtp
; File C:\IAGOS\server\v18\Source\Source\_Common\Continent.cpp
;	COMDAT ?__empty_global_delete@@YAXPAXI@Z
_TEXT	SEGMENT
___formal$ = 8						; size = 4
___formal$ = 12						; size = 4
?__empty_global_delete@@YAXPAXI@Z PROC			; __empty_global_delete, COMDAT

  00000	c2 00 00	 ret	 0
?__empty_global_delete@@YAXPAXI@Z ENDP			; __empty_global_delete
_TEXT	ENDS
; Function compile flags: /Ogtp
; File C:\IAGOS\server\v18\Source\Source\_Common\Continent.cpp
;	COMDAT ?__empty_global_delete@@YAXPAX@Z
_TEXT	SEGMENT
___formal$ = 8						; size = 4
?__empty_global_delete@@YAXPAX@Z PROC			; __empty_global_delete, COMDAT

  00000	c2 00 00	 ret	 0
?__empty_global_delete@@YAXPAX@Z ENDP			; __empty_global_delete
_TEXT	ENDS
END
