; Listing generated by Microsoft (R) Optimizing Compiler Version 19.44.35225.0 

	TITLE	C:\IAGOS\server\v18\Source\Output\WorldServer\Release\CooltimeMgr.obj
	.686P
	.XMM
	include listing.inc
	.model	flat

INCLUDELIB LIBCMT
INCLUDELIB OLDNAMES

PUBLIC	?__empty_global_delete@@YAXPAX@Z		; __empty_global_delete
PUBLIC	?__empty_global_delete@@YAXPAXI@Z		; __empty_global_delete
PUBLIC	??0CCooltimeMgr@@QAE@XZ				; CCooltimeMgr::CCooltimeMgr
PUBLIC	??1CCooltimeMgr@@UAE@XZ				; CCooltimeMgr::~CCooltimeMgr
PUBLIC	?GetGroup@CCooltimeMgr@@SAKPAUItemProp@@@Z	; CCooltimeMgr::GetGroup
PUBLIC	?CanUse@CCooltimeMgr@@QAEHK@Z			; CCooltimeMgr::CanUse
PUBLIC	?SetTime@CCooltimeMgr@@QAEXKK@Z			; CCooltimeMgr::SetTime
PUBLIC	??_GCCooltimeMgr@@UAEPAXI@Z			; CCooltimeMgr::`scalar deleting destructor'
PUBLIC	??_7CCooltimeMgr@@6B@				; CCooltimeMgr::`vftable'
PUBLIC	??_R4CCooltimeMgr@@6B@				; CCooltimeMgr::`RTTI Complete Object Locator'
PUBLIC	??_R0?AVCCooltimeMgr@@@8			; CCooltimeMgr `RTTI Type Descriptor'
PUBLIC	??_R3CCooltimeMgr@@8				; CCooltimeMgr::`RTTI Class Hierarchy Descriptor'
PUBLIC	??_R2CCooltimeMgr@@8				; CCooltimeMgr::`RTTI Base Class Array'
PUBLIC	??_R1A@?0A@EA@CCooltimeMgr@@8			; CCooltimeMgr::`RTTI Base Class Descriptor at (0,-1,0,64)'
EXTRN	??3@YAXPAXI@Z:PROC				; operator delete
EXTRN	??_ECCooltimeMgr@@UAEPAXI@Z:PROC		; CCooltimeMgr::`vector deleting destructor'
EXTRN	??_7type_info@@6B@:QWORD			; type_info::`vftable'
EXTRN	?g_tmCurrent@@3KA:DWORD				; g_tmCurrent
;	COMDAT ??_R1A@?0A@EA@CCooltimeMgr@@8
rdata$r	SEGMENT
??_R1A@?0A@EA@CCooltimeMgr@@8 DD FLAT:??_R0?AVCCooltimeMgr@@@8 ; CCooltimeMgr::`RTTI Base Class Descriptor at (0,-1,0,64)'
	DD	00H
	DD	00H
	DD	0ffffffffH
	DD	00H
	DD	040H
	DD	FLAT:??_R3CCooltimeMgr@@8
rdata$r	ENDS
;	COMDAT ??_R2CCooltimeMgr@@8
rdata$r	SEGMENT
??_R2CCooltimeMgr@@8 DD FLAT:??_R1A@?0A@EA@CCooltimeMgr@@8 ; CCooltimeMgr::`RTTI Base Class Array'
rdata$r	ENDS
;	COMDAT ??_R3CCooltimeMgr@@8
rdata$r	SEGMENT
??_R3CCooltimeMgr@@8 DD 00H				; CCooltimeMgr::`RTTI Class Hierarchy Descriptor'
	DD	00H
	DD	01H
	DD	FLAT:??_R2CCooltimeMgr@@8
rdata$r	ENDS
;	COMDAT ??_R0?AVCCooltimeMgr@@@8
data$rs	SEGMENT
??_R0?AVCCooltimeMgr@@@8 DD FLAT:??_7type_info@@6B@	; CCooltimeMgr `RTTI Type Descriptor'
	DD	00H
	DB	'.?AVCCooltimeMgr@@', 00H
data$rs	ENDS
;	COMDAT ??_R4CCooltimeMgr@@6B@
rdata$r	SEGMENT
??_R4CCooltimeMgr@@6B@ DD 00H				; CCooltimeMgr::`RTTI Complete Object Locator'
	DD	00H
	DD	00H
	DD	FLAT:??_R0?AVCCooltimeMgr@@@8
	DD	FLAT:??_R3CCooltimeMgr@@8
rdata$r	ENDS
;	COMDAT ??_7CCooltimeMgr@@6B@
CONST	SEGMENT
??_7CCooltimeMgr@@6B@ DD FLAT:??_R4CCooltimeMgr@@6B@	; CCooltimeMgr::`vftable'
	DD	FLAT:??_ECCooltimeMgr@@UAEPAXI@Z
CONST	ENDS
; Function compile flags: /Ogtp
;	COMDAT ??_GCCooltimeMgr@@UAEPAXI@Z
_TEXT	SEGMENT
___flags$ = 8						; size = 4
??_GCCooltimeMgr@@UAEPAXI@Z PROC			; CCooltimeMgr::`scalar deleting destructor', COMDAT
; _this$ = ecx
  00000	55		 push	 ebp
  00001	8b ec		 mov	 ebp, esp
  00003	56		 push	 esi
  00004	8b f1		 mov	 esi, ecx
  00006	e8 00 00 00 00	 call	 ??1CCooltimeMgr@@UAE@XZ	; CCooltimeMgr::~CCooltimeMgr
  0000b	f6 45 08 01	 test	 BYTE PTR ___flags$[ebp], 1
  0000f	74 0b		 je	 SHORT $LN5@scalar
  00011	6a 1c		 push	 28			; 0000001cH
  00013	56		 push	 esi
  00014	e8 00 00 00 00	 call	 ??3@YAXPAXI@Z		; operator delete
  00019	83 c4 08	 add	 esp, 8
$LN5@scalar:
  0001c	8b c6		 mov	 eax, esi
  0001e	5e		 pop	 esi
  0001f	5d		 pop	 ebp
  00020	c2 04 00	 ret	 4
??_GCCooltimeMgr@@UAEPAXI@Z ENDP			; CCooltimeMgr::`scalar deleting destructor'
_TEXT	ENDS
; Function compile flags: /Ogtp
; File C:\IAGOS\server\v18\Source\Source\_Common\CooltimeMgr.cpp
;	COMDAT ?SetTime@CCooltimeMgr@@QAEXKK@Z
_TEXT	SEGMENT
_dwGroup$ = 8						; size = 4
_dwCoolTime$ = 12					; size = 4
?SetTime@CCooltimeMgr@@QAEXKK@Z PROC			; CCooltimeMgr::SetTime, COMDAT
; _this$ = ecx

; 55   : {

  00000	55		 push	 ebp
  00001	8b ec		 mov	 ebp, esp

; 56   : 	ASSERT( dwGroup > 0 && dwCoolTime > 0 );
; 57   : 	DWORD dwTick = g_tmCurrent;
; 58   : 
; 59   : 	m_times[dwGroup - 1] = dwTick + dwCoolTime;

  00003	8b 55 08	 mov	 edx, DWORD PTR _dwGroup$[ebp]
  00006	8b 45 0c	 mov	 eax, DWORD PTR _dwCoolTime$[ebp]
  00009	56		 push	 esi
  0000a	8b 35 00 00 00
	00		 mov	 esi, DWORD PTR ?g_tmCurrent@@3KA ; g_tmCurrent
  00010	03 c6		 add	 eax, esi

; 60   : 	m_bases[dwGroup - 1] = dwTick;

  00012	89 74 91 0c	 mov	 DWORD PTR [ecx+edx*4+12], esi
  00016	89 04 91	 mov	 DWORD PTR [ecx+edx*4], eax
  00019	5e		 pop	 esi

; 61   : }	

  0001a	5d		 pop	 ebp
  0001b	c2 08 00	 ret	 8
?SetTime@CCooltimeMgr@@QAEXKK@Z ENDP			; CCooltimeMgr::SetTime
_TEXT	ENDS
; Function compile flags: /Ogtp
; File C:\IAGOS\server\v18\Source\Source\_Common\CooltimeMgr.cpp
;	COMDAT ?CanUse@CCooltimeMgr@@QAEHK@Z
_TEXT	SEGMENT
_dwGroup$ = 8						; size = 4
?CanUse@CCooltimeMgr@@QAEHK@Z PROC			; CCooltimeMgr::CanUse, COMDAT
; _this$ = ecx

; 48   : {

  00000	55		 push	 ebp
  00001	8b ec		 mov	 ebp, esp

; 49   : 	ASSERT( dwGroup > 0 );
; 50   : 	return g_tmCurrent > GetTime( dwGroup );		// Ŕç»çżë ˝Ă°˘Ŕ» łŃŔ¸¸é »çżë°ˇ´É 

  00003	8b 45 08	 mov	 eax, DWORD PTR _dwGroup$[ebp]
  00006	8b 04 81	 mov	 eax, DWORD PTR [ecx+eax*4]
  00009	3b 05 00 00 00
	00		 cmp	 eax, DWORD PTR ?g_tmCurrent@@3KA ; g_tmCurrent
  0000f	1b c0		 sbb	 eax, eax
  00011	f7 d8		 neg	 eax

; 51   : }

  00013	5d		 pop	 ebp
  00014	c2 04 00	 ret	 4
?CanUse@CCooltimeMgr@@QAEHK@Z ENDP			; CCooltimeMgr::CanUse
_TEXT	ENDS
; Function compile flags: /Ogtp
; File C:\IAGOS\server\v18\Source\Source\_Common\CooltimeMgr.cpp
;	COMDAT ?GetGroup@CCooltimeMgr@@SAKPAUItemProp@@@Z
_TEXT	SEGMENT
_pItemProp$ = 8						; size = 4
?GetGroup@CCooltimeMgr@@SAKPAUItemProp@@@Z PROC		; CCooltimeMgr::GetGroup, COMDAT

; 20   : {

  00000	55		 push	 ebp
  00001	8b ec		 mov	 ebp, esp

; 21   : 	DWORD dwCooltimeItemGroup = 0;
; 22   : 
; 23   : 	if( pItemProp->dwSkillReady > 0 )

  00003	8b 4d 08	 mov	 ecx, DWORD PTR _pItemProp$[ebp]
  00006	83 b9 98 01 00
	00 00		 cmp	 DWORD PTR [ecx+408], 0
  0000d	76 27		 jbe	 SHORT $LN10@GetGroup

; 24   : 	{
; 25   : 		switch ( pItemProp->dwItemKind2 )

  0000f	8b 41 74	 mov	 eax, DWORD PTR [ecx+116]
  00012	83 f8 0e	 cmp	 eax, 14			; 0000000eH
  00015	74 0c		 je	 SHORT $LN5@GetGroup
  00017	83 f8 1f	 cmp	 eax, 31			; 0000001fH
  0001a	75 1a		 jne	 SHORT $LN10@GetGroup

; 30   : 				dwCooltimeItemGroup = 2;
; 31   : 			break;
; 32   : 		case IK2_SKILL:
; 33   : 			dwCooltimeItemGroup = 3;
; 34   : 			break;
; 35   : //		case IK2_POTION:
; 36   : //			dwCooltimeItemGroup = 3;
; 37   : //			break;
; 38   : 		}
; 39   : 
; 40   : 	}
; 41   : 
; 42   : 	return dwCooltimeItemGroup;

  0001c	b8 03 00 00 00	 mov	 eax, 3

; 43   : }

  00021	5d		 pop	 ebp
  00022	c3		 ret	 0
$LN5@GetGroup:

; 26   : 		{
; 27   : 		case IK2_FOOD:
; 28   : 			dwCooltimeItemGroup = 1;
; 29   : 			if( pItemProp->dwItemKind3 == IK3_PILL )

  00023	83 79 78 3b	 cmp	 DWORD PTR [ecx+120], 59	; 0000003bH
  00027	b8 01 00 00 00	 mov	 eax, 1
  0002c	ba 02 00 00 00	 mov	 edx, 2
  00031	0f 44 c2	 cmove	 eax, edx

; 43   : }

  00034	5d		 pop	 ebp
  00035	c3		 ret	 0
$LN10@GetGroup:
  00036	33 c0		 xor	 eax, eax
  00038	5d		 pop	 ebp
  00039	c3		 ret	 0
?GetGroup@CCooltimeMgr@@SAKPAUItemProp@@@Z ENDP		; CCooltimeMgr::GetGroup
_TEXT	ENDS
; Function compile flags: /Ogtp
; File C:\IAGOS\server\v18\Source\Source\_Common\CooltimeMgr.cpp
;	COMDAT ??1CCooltimeMgr@@UAE@XZ
_TEXT	SEGMENT
??1CCooltimeMgr@@UAE@XZ PROC				; CCooltimeMgr::~CCooltimeMgr, COMDAT
; _this$ = ecx

; 13   : {

  00000	c7 01 00 00 00
	00		 mov	 DWORD PTR [ecx], OFFSET ??_7CCooltimeMgr@@6B@

; 14   : }

  00006	c3		 ret	 0
??1CCooltimeMgr@@UAE@XZ ENDP				; CCooltimeMgr::~CCooltimeMgr
_TEXT	ENDS
; Function compile flags: /Ogtp
; File C:\IAGOS\server\v18\Source\Source\_Common\CooltimeMgr.cpp
;	COMDAT ??0CCooltimeMgr@@QAE@XZ
_TEXT	SEGMENT
??0CCooltimeMgr@@QAE@XZ PROC				; CCooltimeMgr::CCooltimeMgr, COMDAT
; _this$ = ecx

; 7    : {

  00000	c7 01 00 00 00
	00		 mov	 DWORD PTR [ecx], OFFSET ??_7CCooltimeMgr@@6B@
  00006	0f 57 c0	 xorps	 xmm0, xmm0

; 8    : 	ZeroMemory( m_times, sizeof(m_times) );

  00009	66 0f d6 41 04	 movq	 QWORD PTR [ecx+4], xmm0

; 9    : 	ZeroMemory( m_bases, sizeof(m_bases) );
; 10   : }

  0000e	8b c1		 mov	 eax, ecx
  00010	c7 41 0c 00 00
	00 00		 mov	 DWORD PTR [ecx+12], 0
  00017	66 0f d6 41 10	 movq	 QWORD PTR [ecx+16], xmm0
  0001c	c7 41 18 00 00
	00 00		 mov	 DWORD PTR [ecx+24], 0
  00023	c3		 ret	 0
??0CCooltimeMgr@@QAE@XZ ENDP				; CCooltimeMgr::CCooltimeMgr
_TEXT	ENDS
; Function compile flags: /Ogtp
; File C:\IAGOS\server\v18\Source\Source\_Common\CooltimeMgr.cpp
;	COMDAT ?__empty_global_delete@@YAXPAXI@Z
_TEXT	SEGMENT
___formal$ = 8						; size = 4
___formal$ = 12						; size = 4
?__empty_global_delete@@YAXPAXI@Z PROC			; __empty_global_delete, COMDAT

  00000	c2 00 00	 ret	 0
?__empty_global_delete@@YAXPAXI@Z ENDP			; __empty_global_delete
_TEXT	ENDS
; Function compile flags: /Ogtp
; File C:\IAGOS\server\v18\Source\Source\_Common\CooltimeMgr.cpp
;	COMDAT ?__empty_global_delete@@YAXPAX@Z
_TEXT	SEGMENT
___formal$ = 8						; size = 4
?__empty_global_delete@@YAXPAX@Z PROC			; __empty_global_delete, COMDAT

  00000	c2 00 00	 ret	 0
?__empty_global_delete@@YAXPAX@Z ENDP			; __empty_global_delete
_TEXT	ENDS
END
