; Listing generated by Microsoft (R) Optimizing Compiler Version 19.44.35225.0 

	TITLE	C:\IAGOS\server\v18\Source\Output\WorldServer\Release\couplehelper.obj
	.686P
	.XMM
	include listing.inc
	.model	flat

INCLUDELIB LIBCMT
INCLUDELIB OLDNAMES

CONST	SEGMENT
?piecewise_construct@std@@3Upiecewise_construct_t@1@B	ORG $+1 ; std::piecewise_construct
CONST	ENDS
PUBLIC	?__empty_global_delete@@YAXPAX@Z		; __empty_global_delete
PUBLIC	?__empty_global_delete@@YAXPAXI@Z		; __empty_global_delete
PUBLIC	___local_stdio_printf_options
PUBLIC	_sprintf
PUBLIC	?GetUserByID@CProject@@QAEPAVCMover@@K@Z	; CProject::GetUserByID
PUBLIC	??0CCoupleHelper@@AAE@XZ			; CCoupleHelper::CCoupleHelper
PUBLIC	??1CCoupleHelper@@UAE@XZ			; CCoupleHelper::~CCoupleHelper
PUBLIC	?Instance@CCoupleHelper@@SAPAV1@XZ		; CCoupleHelper::Instance
PUBLIC	?Initialize@CCoupleHelper@@QAEHPAVCDPDatabaseClient@@PAVCDPSrvr@@@Z ; CCoupleHelper::Initialize
PUBLIC	?Clear@CCoupleHelper@@QAEXXZ			; CCoupleHelper::Clear
PUBLIC	?OnPropose@CCoupleHelper@@QAEXPAVCUser@@PBD@Z	; CCoupleHelper::OnPropose
PUBLIC	?OnProposeResult@CCoupleHelper@@QAEXAAVCAr@@@Z	; CCoupleHelper::OnProposeResult
PUBLIC	?OnRefuse@CCoupleHelper@@QAEXPAVCUser@@@Z	; CCoupleHelper::OnRefuse
PUBLIC	?OnCouple@CCoupleHelper@@QAEXPAVCUser@@@Z	; CCoupleHelper::OnCouple
PUBLIC	?OnCoupleResult@CCoupleHelper@@QAEXAAVCAr@@@Z	; CCoupleHelper::OnCoupleResult
PUBLIC	?OnDecouple@CCoupleHelper@@QAEXPAVCUser@@@Z	; CCoupleHelper::OnDecouple
PUBLIC	?OnDecoupleResult@CCoupleHelper@@QAEXAAVCAr@@@Z	; CCoupleHelper::OnDecoupleResult
PUBLIC	?OnAddCoupleExperience@CCoupleHelper@@QAEXAAVCAr@@@Z ; CCoupleHelper::OnAddCoupleExperience
PUBLIC	?OnUpdatePlayerData@CCoupleHelper@@QAEXKPAU_PlayerData@@@Z ; CCoupleHelper::OnUpdatePlayerData
PUBLIC	?PlayProposeAnimation@CCoupleHelper@@AAEXPAVCUser@@0@Z ; CCoupleHelper::PlayProposeAnimation
PUBLIC	??_GCCoupleHelper@@UAEPAXI@Z			; CCoupleHelper::`scalar deleting destructor'
PUBLIC	??$?5H@CAr@@QAEAAV0@AAH@Z			; CAr::operator>><int>
PUBLIC	??$?5K@CAr@@QAEAAV0@AAK@Z			; CAr::operator>><unsigned long>
PUBLIC	??$?5J@CAr@@QAEAAV0@AAJ@Z			; CAr::operator>><long>
PUBLIC	?_OptionsStorage@?1??__local_stdio_printf_options@@9@4_KA ; `__local_stdio_printf_options'::`2'::_OptionsStorage
PUBLIC	??_C@_00CNPNBAHC@@				; `string'
PUBLIC	??_C@_0BM@HMFGHCP@?$CFs?5min?3?$CFd?0?5max?3?$CFd?0?5index?3?$CFd@ ; `string'
PUBLIC	??_C@_0BE@OHDBLHOM@GetText?5range_error@	; `string'
PUBLIC	??_C@_05KKCIMGE@error@				; `string'
PUBLIC	??_7CCoupleHelper@@6B@				; CCoupleHelper::`vftable'
PUBLIC	??_C@_0BP@GPFHEIL@S?3?5CCoupleHelper?4OnPropose?3?5?$CFs@ ; `string'
PUBLIC	??_C@_02DKCKIIND@?$CFs@				; `string'
PUBLIC	??_C@_0DB@LJFAIJCA@S?3?5CCoupleHelper?4OnProposeResul@ ; `string'
PUBLIC	??_C@_0BK@HCCAGLJM@S?3?5CCoupleHelper?4OnRefuse@ ; `string'
PUBLIC	??_C@_0BK@BFPGCGKN@S?3?5CCoupleHelper?4OnCouple@ ; `string'
PUBLIC	??_C@_0CM@GDLPIJML@S?3?5CCoupleHelper?4OnCoupleResult@ ; `string'
PUBLIC	??_C@_0BM@JJPLMFOM@S?3?5CCoupleHelper?4OnDecouple@ ; `string'
PUBLIC	??_C@_0CK@FFJBDECI@S?3?5CCoupleHelper?4OnDecoupleResu@ ; `string'
PUBLIC	??_R4CCoupleHelper@@6B@				; CCoupleHelper::`RTTI Complete Object Locator'
PUBLIC	??_R0?AVCCoupleHelper@@@8			; CCoupleHelper `RTTI Type Descriptor'
PUBLIC	??_R3CCoupleHelper@@8				; CCoupleHelper::`RTTI Class Hierarchy Descriptor'
PUBLIC	??_R2CCoupleHelper@@8				; CCoupleHelper::`RTTI Base Class Array'
PUBLIC	??_R1A@?0A@EA@CCoupleHelper@@8			; CCoupleHelper::`RTTI Base Class Descriptor at (0,-1,0,64)'
PUBLIC	__real@42652ee0
PUBLIC	__real@43b40000
PUBLIC	__xmm@80000000800000008000000080000000
EXTRN	??2@YAPAXI@Z:PROC				; operator new
EXTRN	??3@YAXPAXI@Z:PROC				; operator delete
EXTRN	_atexit:PROC
EXTRN	__Init_thread_header:PROC
EXTRN	__Init_thread_footer:PROC
EXTRN	___stdio_common_vsprintf:PROC
EXTRN	__imp__timeGetTime@0:PROC
EXTRN	_D3DXVec3Normalize@8:PROC
EXTRN	?Error@@YAPBDPBDZZ:PROC				; Error
EXTRN	?SetAngle@CObj@@QAEXM@Z:PROC			; CObj::SetAngle
EXTRN	?RemoveIk3Buffs@CMover@@QAEXK@Z:PROC		; CMover::RemoveIk3Buffs
EXTRN	?SetHonorCount@CMover@@QAEXHH@Z:PROC		; CMover::SetHonorCount
EXTRN	?SetHonorAdd@CMover@@QAEXHHH@Z:PROC		; CMover::SetHonorAdd
EXTRN	?GetName@CMover@@QAEPBDH@Z:PROC			; CMover::GetName
EXTRN	?AddExperience@CCouple@@QAEHH@Z:PROC		; CCouple::AddExperience
EXTRN	?GetLevel@CCouple@@QAEHH@Z:PROC			; CCouple::GetLevel
EXTRN	?GetPartner@CCouple@@QAEKK@Z:PROC		; CCouple::GetPartner
EXTRN	?Instance@CCoupleProperty@@SAPAV1@XZ:PROC	; CCoupleProperty::Instance
EXTRN	?Initialize@CCoupleProperty@@QAEHXZ:PROC	; CCoupleProperty::Initialize
EXTRN	??0CCoupleMgr@@QAE@XZ:PROC			; CCoupleMgr::CCoupleMgr
EXTRN	?Couple@CCoupleMgr@@QAEXKK@Z:PROC		; CCoupleMgr::Couple
EXTRN	?Decouple@CCoupleMgr@@QAEHK@Z:PROC		; CCoupleMgr::Decouple
EXTRN	?GetCouple@CCoupleMgr@@QAEPAVCCouple@@K@Z:PROC	; CCoupleMgr::GetCouple
EXTRN	?GetInstance@CPlayerDataCenter@@SAPAV1@XZ:PROC	; CPlayerDataCenter::GetInstance
EXTRN	?GetPlayerString@CPlayerDataCenter@@QAEPBDK@Z:PROC ; CPlayerDataCenter::GetPlayerString
EXTRN	?GetPlayerId@CPlayerDataCenter@@QAEKPAD@Z:PROC	; CPlayerDataCenter::GetPlayerId
EXTRN	??_ECCoupleHelper@@UAEPAXI@Z:PROC		; CCoupleHelper::`vector deleting destructor'
EXTRN	?AddText@CUser@@QAEXPBD@Z:PROC			; CUser::AddText
EXTRN	?AddDefinedText@CUser@@QAAXHPBDZZ:PROC		; CUser::AddDefinedText
EXTRN	?AddDefinedText@CUser@@QAEXH@Z:PROC		; CUser::AddDefinedText
EXTRN	?AddQueryPlayerData@CUser@@QAEXKPAU_PlayerData@@@Z:PROC ; CUser::AddQueryPlayerData
EXTRN	?AddHonorListAck@CUser@@QAEXXZ:PROC		; CUser::AddHonorListAck
EXTRN	?AddProposeResult@CUser@@QAEXKPBD@Z:PROC	; CUser::AddProposeResult
EXTRN	?AddCoupleResult@CUser@@QAEXKPBD@Z:PROC		; CUser::AddCoupleResult
EXTRN	?AddDecoupleResult@CUser@@QAEXXZ:PROC		; CUser::AddDecoupleResult
EXTRN	?AddAddCoupleExperience@CUser@@QAEXH@Z:PROC	; CUser::AddAddCoupleExperience
EXTRN	?GetUserByPlayerID@CUserMng@@QAEPAVCUser@@K@Z:PROC ; CUserMng::GetUserByPlayerID
EXTRN	?AddCreateSfxObj@CUserMng@@QAEXPAVCCtrl@@KMMMH@Z:PROC ; CUserMng::AddCreateSfxObj
EXTRN	?AddMoverBehavior@CUserMng@@QAEXPAVCMover@@AAUD3DXVECTOR3@@1MKKKHHK_JH@Z:PROC ; CUserMng::AddMoverBehavior
EXTRN	?SendPropose@CDPDatabaseClient@@QAEXKK@Z:PROC	; CDPDatabaseClient::SendPropose
EXTRN	?SendCouple@CDPDatabaseClient@@QAEXKK@Z:PROC	; CDPDatabaseClient::SendCouple
EXTRN	?SendDecouple@CDPDatabaseClient@@QAEXK@Z:PROC	; CDPDatabaseClient::SendDecouple
EXTRN	?OutputDebugStringA@election@@YAXPBDZZ:PROC	; election::OutputDebugStringA
EXTRN	?Instance@CTitleManager@@SAPAV1@XZ:PROC		; CTitleManager::Instance
EXTRN	?GetNeedCount@CTitleManager@@QAEHHH@Z:PROC	; CTitleManager::GetNeedCount
EXTRN	?GetIdx@CTitleManager@@QAEHHH@Z:PROC		; CTitleManager::GetIdx
EXTRN	@__security_check_cookie@4:PROC
EXTRN	___CxxFrameHandler3:PROC
EXTRN	__alldiv:PROC
EXTRN	__libm_sse2_acos_precise:PROC
EXTRN	__libm_sse2_cos_precise:PROC
EXTRN	__libm_sse2_sin_precise:PROC
EXTRN	_memset:PROC
EXTRN	__Init_thread_epoch:DWORD
EXTRN	??_7type_info@@6B@:QWORD			; type_info::`vftable'
EXTRN	?prj@@3VCProject@@A:BYTE			; prj
EXTRN	?g_TickCount@@3VCTickCount@@A:BYTE		; g_TickCount
EXTRN	?g_UserMng@@3VCUserMng@@A:BYTE			; g_UserMng
EXTRN	___security_cookie:DWORD
EXTRN	__fltused:DWORD
EXTRN	__tls_array:DWORD
EXTRN	__tls_index:DWORD
;	COMDAT ?_OptionsStorage@?1??__local_stdio_printf_options@@9@4_KA
_BSS	SEGMENT
?_OptionsStorage@?1??__local_stdio_printf_options@@9@4_KA DQ 01H DUP (?) ; `__local_stdio_printf_options'::`2'::_OptionsStorage
_BSS	ENDS
;	COMDAT ?sCoupleHelper@?1??Instance@CCoupleHelper@@SAPAV2@XZ@4V2@A
_BSS	SEGMENT
?sCoupleHelper@?1??Instance@CCoupleHelper@@SAPAV2@XZ@4V2@A DB 010H DUP (?) ; `CCoupleHelper::Instance'::`2'::sCoupleHelper
_BSS	ENDS
;	COMDAT ?$TSS0@?1??Instance@CCoupleHelper@@SAPAV2@XZ@4HA
_BSS	SEGMENT
?$TSS0@?1??Instance@CCoupleHelper@@SAPAV2@XZ@4HA DD 01H DUP (?) ; `CCoupleHelper::Instance'::`2'::$TSS0
_BSS	ENDS
;	COMDAT __xmm@80000000800000008000000080000000
CONST	SEGMENT
__xmm@80000000800000008000000080000000 DB 00H, 00H, 00H, 080H, 00H, 00H, 00H
	DB	080H, 00H, 00H, 00H, 080H, 00H, 00H, 00H, 080H
CONST	ENDS
;	COMDAT __real@43b40000
CONST	SEGMENT
__real@43b40000 DD 043b40000r			; 360
CONST	ENDS
;	COMDAT __real@42652ee0
CONST	SEGMENT
__real@42652ee0 DD 042652ee0r			; 57.2958
CONST	ENDS
;	COMDAT ??_R1A@?0A@EA@CCoupleHelper@@8
rdata$r	SEGMENT
??_R1A@?0A@EA@CCoupleHelper@@8 DD FLAT:??_R0?AVCCoupleHelper@@@8 ; CCoupleHelper::`RTTI Base Class Descriptor at (0,-1,0,64)'
	DD	00H
	DD	00H
	DD	0ffffffffH
	DD	00H
	DD	040H
	DD	FLAT:??_R3CCoupleHelper@@8
rdata$r	ENDS
;	COMDAT ??_R2CCoupleHelper@@8
rdata$r	SEGMENT
??_R2CCoupleHelper@@8 DD FLAT:??_R1A@?0A@EA@CCoupleHelper@@8 ; CCoupleHelper::`RTTI Base Class Array'
rdata$r	ENDS
;	COMDAT ??_R3CCoupleHelper@@8
rdata$r	SEGMENT
??_R3CCoupleHelper@@8 DD 00H				; CCoupleHelper::`RTTI Class Hierarchy Descriptor'
	DD	00H
	DD	01H
	DD	FLAT:??_R2CCoupleHelper@@8
rdata$r	ENDS
;	COMDAT ??_R0?AVCCoupleHelper@@@8
data$rs	SEGMENT
??_R0?AVCCoupleHelper@@@8 DD FLAT:??_7type_info@@6B@	; CCoupleHelper `RTTI Type Descriptor'
	DD	00H
	DB	'.?AVCCoupleHelper@@', 00H
data$rs	ENDS
;	COMDAT ??_R4CCoupleHelper@@6B@
rdata$r	SEGMENT
??_R4CCoupleHelper@@6B@ DD 00H				; CCoupleHelper::`RTTI Complete Object Locator'
	DD	00H
	DD	00H
	DD	FLAT:??_R0?AVCCoupleHelper@@@8
	DD	FLAT:??_R3CCoupleHelper@@8
rdata$r	ENDS
;	COMDAT ??_C@_0CK@FFJBDECI@S?3?5CCoupleHelper?4OnDecoupleResu@
CONST	SEGMENT
??_C@_0CK@FFJBDECI@S?3?5CCoupleHelper?4OnDecoupleResu@ DB 'S: CCoupleHelp'
	DB	'er.OnDecoupleResult: %d, %d', 00H		; `string'
CONST	ENDS
;	COMDAT ??_C@_0BM@JJPLMFOM@S?3?5CCoupleHelper?4OnDecouple@
CONST	SEGMENT
??_C@_0BM@JJPLMFOM@S?3?5CCoupleHelper?4OnDecouple@ DB 'S: CCoupleHelper.O'
	DB	'nDecouple', 00H				; `string'
CONST	ENDS
;	COMDAT ??_C@_0CM@GDLPIJML@S?3?5CCoupleHelper?4OnCoupleResult@
CONST	SEGMENT
??_C@_0CM@GDLPIJML@S?3?5CCoupleHelper?4OnCoupleResult@ DB 'S: CCoupleHelp'
	DB	'er.OnCoupleResult: %d, %d, %d', 00H		; `string'
CONST	ENDS
;	COMDAT ??_C@_0BK@BFPGCGKN@S?3?5CCoupleHelper?4OnCouple@
CONST	SEGMENT
??_C@_0BK@BFPGCGKN@S?3?5CCoupleHelper?4OnCouple@ DB 'S: CCoupleHelper.OnC'
	DB	'ouple', 00H					; `string'
CONST	ENDS
;	COMDAT ??_C@_0BK@HCCAGLJM@S?3?5CCoupleHelper?4OnRefuse@
CONST	SEGMENT
??_C@_0BK@HCCAGLJM@S?3?5CCoupleHelper?4OnRefuse@ DB 'S: CCoupleHelper.OnR'
	DB	'efuse', 00H					; `string'
CONST	ENDS
;	COMDAT ??_C@_0DB@LJFAIJCA@S?3?5CCoupleHelper?4OnProposeResul@
CONST	SEGMENT
??_C@_0DB@LJFAIJCA@S?3?5CCoupleHelper?4OnProposeResul@ DB 'S: CCoupleHelp'
	DB	'er.OnProposeResult: %d, %d, %d, %d', 00H	; `string'
CONST	ENDS
;	COMDAT ??_C@_02DKCKIIND@?$CFs@
CONST	SEGMENT
??_C@_02DKCKIIND@?$CFs@ DB '%s', 00H			; `string'
CONST	ENDS
;	COMDAT ??_C@_0BP@GPFHEIL@S?3?5CCoupleHelper?4OnPropose?3?5?$CFs@
CONST	SEGMENT
??_C@_0BP@GPFHEIL@S?3?5CCoupleHelper?4OnPropose?3?5?$CFs@ DB 'S: CCoupleH'
	DB	'elper.OnPropose: %s', 00H			; `string'
CONST	ENDS
;	COMDAT ??_7CCoupleHelper@@6B@
CONST	SEGMENT
??_7CCoupleHelper@@6B@ DD FLAT:??_R4CCoupleHelper@@6B@	; CCoupleHelper::`vftable'
	DD	FLAT:??_ECCoupleHelper@@UAEPAXI@Z
CONST	ENDS
;	COMDAT ??_C@_05KKCIMGE@error@
CONST	SEGMENT
??_C@_05KKCIMGE@error@ DB 'error', 00H			; `string'
CONST	ENDS
;	COMDAT ??_C@_0BE@OHDBLHOM@GetText?5range_error@
CONST	SEGMENT
??_C@_0BE@OHDBLHOM@GetText?5range_error@ DB 'GetText range_error', 00H ; `string'
CONST	ENDS
;	COMDAT ??_C@_0BM@HMFGHCP@?$CFs?5min?3?$CFd?0?5max?3?$CFd?0?5index?3?$CFd@
CONST	SEGMENT
??_C@_0BM@HMFGHCP@?$CFs?5min?3?$CFd?0?5max?3?$CFd?0?5index?3?$CFd@ DB '%s'
	DB	' min:%d, max:%d, index:%d', 00H		; `string'
CONST	ENDS
;	COMDAT ??_C@_00CNPNBAHC@@
CONST	SEGMENT
??_C@_00CNPNBAHC@@ DB 00H				; `string'
CONST	ENDS
;	COMDAT xdata$x
xdata$x	SEGMENT
__unwindtable$?Initialize@CCoupleHelper@@QAEHPAVCDPDatabaseClient@@PAVCDPSrvr@@@Z DD 0ffffffffH
	DD	FLAT:__unwindfunclet$?Initialize@CCoupleHelper@@QAEHPAVCDPDatabaseClient@@PAVCDPSrvr@@@Z$0
__ehfuncinfo$?Initialize@CCoupleHelper@@QAEHPAVCDPDatabaseClient@@PAVCDPSrvr@@@Z DD 019930522H
	DD	01H
	DD	FLAT:__unwindtable$?Initialize@CCoupleHelper@@QAEHPAVCDPDatabaseClient@@PAVCDPSrvr@@@Z
	DD	2 DUP(00H)
	DD	2 DUP(00H)
	DD	00H
	DD	01H
xdata$x	ENDS
; Function compile flags: /Ogtp
;	COMDAT ??__FsCoupleHelper@?1??Instance@CCoupleHelper@@SAPAV1@XZ@YAXXZ
text$yd	SEGMENT
??__FsCoupleHelper@?1??Instance@CCoupleHelper@@SAPAV1@XZ@YAXXZ PROC ; `CCoupleHelper::Instance'::`2'::`dynamic atexit destructor for 'sCoupleHelper'', COMDAT
  00000	b9 00 00 00 00	 mov	 ecx, OFFSET ?sCoupleHelper@?1??Instance@CCoupleHelper@@SAPAV2@XZ@4V2@A
  00005	e9 00 00 00 00	 jmp	 ??1CCoupleHelper@@UAE@XZ ; CCoupleHelper::~CCoupleHelper
??__FsCoupleHelper@?1??Instance@CCoupleHelper@@SAPAV1@XZ@YAXXZ ENDP ; `CCoupleHelper::Instance'::`2'::`dynamic atexit destructor for 'sCoupleHelper''
text$yd	ENDS
; Function compile flags: /Ogtp
; File C:\IAGOS\server\v18\Source\Source\_Network\Misc\Include\ar.h
;	COMDAT ??$?5J@CAr@@QAEAAV0@AAJ@Z
_TEXT	SEGMENT
_t$ = 8							; size = 4
??$?5J@CAr@@QAEAAV0@AAJ@Z PROC				; CAr::operator>><long>, COMDAT
; _this$ = ecx

; 302  : {

  00000	55		 push	 ebp
  00001	8b ec		 mov	 ebp, esp
  00003	8b d1		 mov	 edx, ecx

; 303  : 	if (m_lpBufCur + sizeof(T) <= m_lpBufMax)

  00005	8b 4a 08	 mov	 ecx, DWORD PTR [edx+8]
  00008	8d 41 04	 lea	 eax, DWORD PTR [ecx+4]
  0000b	3b 42 0c	 cmp	 eax, DWORD PTR [edx+12]
  0000e	8b 45 08	 mov	 eax, DWORD PTR _t$[ebp]
  00011	77 0e		 ja	 SHORT $LN2@operator

; 304  : 	{
; 305  : 		t = *(UNALIGNED T*)m_lpBufCur;

  00013	8b 09		 mov	 ecx, DWORD PTR [ecx]
  00015	89 08		 mov	 DWORD PTR [eax], ecx

; 312  : 	}
; 313  : 	return *this;
; 314  : }

  00017	8b c2		 mov	 eax, edx
  00019	83 42 08 04	 add	 DWORD PTR [edx+8], 4
  0001d	5d		 pop	 ebp
  0001e	c2 04 00	 ret	 4
$LN2@operator:

; 306  : 		m_lpBufCur += sizeof(T);
; 307  : 	}
; 308  : 	else
; 309  : 	{
; 310  : 		t = T();

  00021	c7 00 00 00 00
	00		 mov	 DWORD PTR [eax], 0

; 311  : 		m_lpBufCur = m_lpBufMax;

  00027	8b 42 0c	 mov	 eax, DWORD PTR [edx+12]
  0002a	89 42 08	 mov	 DWORD PTR [edx+8], eax

; 312  : 	}
; 313  : 	return *this;
; 314  : }

  0002d	8b c2		 mov	 eax, edx
  0002f	5d		 pop	 ebp
  00030	c2 04 00	 ret	 4
??$?5J@CAr@@QAEAAV0@AAJ@Z ENDP				; CAr::operator>><long>
_TEXT	ENDS
; Function compile flags: /Ogtp
; File C:\IAGOS\server\v18\Source\Source\_Network\Misc\Include\ar.h
;	COMDAT ??$?5K@CAr@@QAEAAV0@AAK@Z
_TEXT	SEGMENT
_t$ = 8							; size = 4
??$?5K@CAr@@QAEAAV0@AAK@Z PROC				; CAr::operator>><unsigned long>, COMDAT
; _this$ = ecx

; 302  : {

  00000	55		 push	 ebp
  00001	8b ec		 mov	 ebp, esp
  00003	8b d1		 mov	 edx, ecx

; 303  : 	if (m_lpBufCur + sizeof(T) <= m_lpBufMax)

  00005	8b 4a 08	 mov	 ecx, DWORD PTR [edx+8]
  00008	8d 41 04	 lea	 eax, DWORD PTR [ecx+4]
  0000b	3b 42 0c	 cmp	 eax, DWORD PTR [edx+12]
  0000e	8b 45 08	 mov	 eax, DWORD PTR _t$[ebp]
  00011	77 0e		 ja	 SHORT $LN2@operator

; 304  : 	{
; 305  : 		t = *(UNALIGNED T*)m_lpBufCur;

  00013	8b 09		 mov	 ecx, DWORD PTR [ecx]
  00015	89 08		 mov	 DWORD PTR [eax], ecx

; 312  : 	}
; 313  : 	return *this;
; 314  : }

  00017	8b c2		 mov	 eax, edx
  00019	83 42 08 04	 add	 DWORD PTR [edx+8], 4
  0001d	5d		 pop	 ebp
  0001e	c2 04 00	 ret	 4
$LN2@operator:

; 306  : 		m_lpBufCur += sizeof(T);
; 307  : 	}
; 308  : 	else
; 309  : 	{
; 310  : 		t = T();

  00021	c7 00 00 00 00
	00		 mov	 DWORD PTR [eax], 0

; 311  : 		m_lpBufCur = m_lpBufMax;

  00027	8b 42 0c	 mov	 eax, DWORD PTR [edx+12]
  0002a	89 42 08	 mov	 DWORD PTR [edx+8], eax

; 312  : 	}
; 313  : 	return *this;
; 314  : }

  0002d	8b c2		 mov	 eax, edx
  0002f	5d		 pop	 ebp
  00030	c2 04 00	 ret	 4
??$?5K@CAr@@QAEAAV0@AAK@Z ENDP				; CAr::operator>><unsigned long>
_TEXT	ENDS
; Function compile flags: /Ogtp
; File C:\IAGOS\server\v18\Source\Source\_Network\Misc\Include\ar.h
;	COMDAT ??$?5H@CAr@@QAEAAV0@AAH@Z
_TEXT	SEGMENT
_t$ = 8							; size = 4
??$?5H@CAr@@QAEAAV0@AAH@Z PROC				; CAr::operator>><int>, COMDAT
; _this$ = ecx

; 302  : {

  00000	55		 push	 ebp
  00001	8b ec		 mov	 ebp, esp
  00003	8b d1		 mov	 edx, ecx

; 303  : 	if (m_lpBufCur + sizeof(T) <= m_lpBufMax)

  00005	8b 4a 08	 mov	 ecx, DWORD PTR [edx+8]
  00008	8d 41 04	 lea	 eax, DWORD PTR [ecx+4]
  0000b	3b 42 0c	 cmp	 eax, DWORD PTR [edx+12]
  0000e	8b 45 08	 mov	 eax, DWORD PTR _t$[ebp]
  00011	77 0e		 ja	 SHORT $LN2@operator

; 304  : 	{
; 305  : 		t = *(UNALIGNED T*)m_lpBufCur;

  00013	8b 09		 mov	 ecx, DWORD PTR [ecx]
  00015	89 08		 mov	 DWORD PTR [eax], ecx

; 312  : 	}
; 313  : 	return *this;
; 314  : }

  00017	8b c2		 mov	 eax, edx
  00019	83 42 08 04	 add	 DWORD PTR [edx+8], 4
  0001d	5d		 pop	 ebp
  0001e	c2 04 00	 ret	 4
$LN2@operator:

; 306  : 		m_lpBufCur += sizeof(T);
; 307  : 	}
; 308  : 	else
; 309  : 	{
; 310  : 		t = T();

  00021	c7 00 00 00 00
	00		 mov	 DWORD PTR [eax], 0

; 311  : 		m_lpBufCur = m_lpBufMax;

  00027	8b 42 0c	 mov	 eax, DWORD PTR [edx+12]
  0002a	89 42 08	 mov	 DWORD PTR [edx+8], eax

; 312  : 	}
; 313  : 	return *this;
; 314  : }

  0002d	8b c2		 mov	 eax, edx
  0002f	5d		 pop	 ebp
  00030	c2 04 00	 ret	 4
??$?5H@CAr@@QAEAAV0@AAH@Z ENDP				; CAr::operator>><int>
_TEXT	ENDS
; Function compile flags: /Ogtp
;	COMDAT ??_GCCoupleHelper@@UAEPAXI@Z
_TEXT	SEGMENT
___flags$ = 8						; size = 4
??_GCCoupleHelper@@UAEPAXI@Z PROC			; CCoupleHelper::`scalar deleting destructor', COMDAT
; _this$ = ecx
  00000	55		 push	 ebp
  00001	8b ec		 mov	 ebp, esp
  00003	56		 push	 esi
  00004	8b f1		 mov	 esi, ecx
  00006	e8 00 00 00 00	 call	 ??1CCoupleHelper@@UAE@XZ ; CCoupleHelper::~CCoupleHelper
  0000b	f6 45 08 01	 test	 BYTE PTR ___flags$[ebp], 1
  0000f	74 0b		 je	 SHORT $LN5@scalar
  00011	6a 10		 push	 16			; 00000010H
  00013	56		 push	 esi
  00014	e8 00 00 00 00	 call	 ??3@YAXPAXI@Z		; operator delete
  00019	83 c4 08	 add	 esp, 8
$LN5@scalar:
  0001c	8b c6		 mov	 eax, esi
  0001e	5e		 pop	 esi
  0001f	5d		 pop	 ebp
  00020	c2 04 00	 ret	 4
??_GCCoupleHelper@@UAEPAXI@Z ENDP			; CCoupleHelper::`scalar deleting destructor'
_TEXT	ENDS
; Function compile flags: /Ogtp
; File C:\IAGOS\server\v18\Source\Source\WorldServer\couplehelper.cpp
; File C:\IAGOS\server\v18\Source\Source\_Common\Obj.h
; File C:\Program Files (x86)\Windows Kits\10\Include\10.0.26100.0\ucrt\corecrt_math.h
; File C:\IAGOS\server\v18\Source\Source\DX_SDK\d3dx9math.inl
; File C:\Program Files (x86)\Windows Kits\10\Include\10.0.26100.0\ucrt\corecrt_math.h
; File C:\IAGOS\server\v18\Source\Source\DX_SDK\d3dx9math.inl
; File C:\Program Files (x86)\Windows Kits\10\Include\10.0.26100.0\ucrt\corecrt_math.h
; File C:\IAGOS\server\v18\Source\Source\_Common\Obj.h
; File C:\IAGOS\server\v18\Source\Source\DX_SDK\d3dx9math.inl
; File C:\IAGOS\server\v18\Source\Source\_Common\Obj.h
; File C:\IAGOS\server\v18\Source\Source\DX_SDK\d3dx9math.inl
; File C:\Program Files (x86)\Windows Kits\10\Include\10.0.26100.0\ucrt\corecrt_math.h
; File C:\IAGOS\server\v18\Source\Source\_Common\Obj.h
; File C:\IAGOS\server\v18\Source\Source\WorldServer\couplehelper.cpp
; File C:\IAGOS\server\v18\Source\Source\_Common\Mover.h
; File C:\IAGOS\server\v18\Source\Source\WorldServer\couplehelper.cpp
; File C:\IAGOS\server\v18\Source\Source\_Network\Misc\Include\tickcount.h
; File C:\IAGOS\server\v18\Source\Source\_Common\Obj.h
; File C:\IAGOS\server\v18\Source\Source\WorldServer\couplehelper.cpp
; File C:\IAGOS\server\v18\Source\Source\_Common\Obj.h
; File C:\IAGOS\server\v18\Source\Source\_Network\Misc\Include\tickcount.h
; File C:\IAGOS\server\v18\Source\Source\WorldServer\couplehelper.cpp
; File C:\IAGOS\server\v18\Source\Source\_Common\Obj.h
; File C:\IAGOS\server\v18\Source\Source\WorldServer\couplehelper.cpp
; File C:\IAGOS\server\v18\Source\Source\_Network\Misc\Include\tickcount.h
; File C:\IAGOS\server\v18\Source\Source\WorldServer\couplehelper.cpp
;	COMDAT ?PlayProposeAnimation@CCoupleHelper@@AAEXPAVCUser@@0@Z
_TEXT	SEGMENT
$T1 = -52						; size = 12
$T2 = -40						; size = 12
$T3 = -40						; size = 12
_vDir1$4 = -28						; size = 12
_vDir2$5 = -16						; size = 12
__$ArrayPad$ = -4					; size = 4
_pProposer$ = 8						; size = 4
_pTarget$ = 12						; size = 4
?PlayProposeAnimation@CCoupleHelper@@AAEXPAVCUser@@0@Z PROC ; CCoupleHelper::PlayProposeAnimation, COMDAT
; _this$ = ecx

; 76   : {

  00000	55		 push	 ebp
  00001	8b ec		 mov	 ebp, esp
  00003	83 ec 34	 sub	 esp, 52			; 00000034H
  00006	a1 00 00 00 00	 mov	 eax, DWORD PTR ___security_cookie
  0000b	33 c5		 xor	 eax, ebp
  0000d	89 45 fc	 mov	 DWORD PTR __$ArrayPad$[ebp], eax
  00010	56		 push	 esi
  00011	8b 75 08	 mov	 esi, DWORD PTR _pProposer$[ebp]
  00014	57		 push	 edi
  00015	8b 7d 0c	 mov	 edi, DWORD PTR _pTarget$[ebp]
; File C:\IAGOS\server\v18\Source\Source\_Common\Obj.h

; 215  : 	D3DXVECTOR3		GetPos()	{ return m_vPos; }

  00018	f3 0f 7e 86 60
	01 00 00	 movq	 xmm0, QWORD PTR [esi+352]
  00020	8b 86 68 01 00
	00		 mov	 eax, DWORD PTR [esi+360]
  00026	66 0f d6 45 d8	 movq	 QWORD PTR $T2[ebp], xmm0
  0002b	f3 0f 7e 87 60
	01 00 00	 movq	 xmm0, QWORD PTR [edi+352]
  00033	89 45 e0	 mov	 DWORD PTR $T2[ebp+8], eax
  00036	8b 87 68 01 00
	00		 mov	 eax, DWORD PTR [edi+360]
  0003c	66 0f d6 45 cc	 movq	 QWORD PTR $T1[ebp], xmm0
  00041	0f 57 c0	 xorps	 xmm0, xmm0
  00044	89 45 d4	 mov	 DWORD PTR $T1[ebp+8], eax
; File C:\Program Files (x86)\Windows Kits\10\Include\10.0.26100.0\ucrt\corecrt_math.h

; 789  :             return (float)sin(_X);

  00047	e8 00 00 00 00	 call	 __libm_sse2_sin_precise
  0004c	0f 57 c9	 xorps	 xmm1, xmm1
; File C:\IAGOS\server\v18\Source\Source\DX_SDK\d3dx9math.inl

; 301  :     y = fy;

  0004f	c7 45 e8 00 00
	00 00		 mov	 DWORD PTR _vDir1$4[ebp+4], 0
; File C:\Program Files (x86)\Windows Kits\10\Include\10.0.26100.0\ucrt\corecrt_math.h

; 789  :             return (float)sin(_X);

  00056	f2 0f 5a c8	 cvtsd2ss xmm1, xmm0
  0005a	0f 57 c0	 xorps	 xmm0, xmm0
; File C:\IAGOS\server\v18\Source\Source\DX_SDK\d3dx9math.inl

; 300  :     x = fx;

  0005d	f3 0f 11 4d e4	 movss	 DWORD PTR _vDir1$4[ebp], xmm1
; File C:\Program Files (x86)\Windows Kits\10\Include\10.0.26100.0\ucrt\corecrt_math.h

; 683  :             return (float)cos(_X);

  00062	e8 00 00 00 00	 call	 __libm_sse2_cos_precise
  00067	f2 0f 5a c0	 cvtsd2ss xmm0, xmm0
; File C:\IAGOS\server\v18\Source\Source\_Common\Obj.h

; 294  : 	D3DXVec3Normalize( &vDir1, &vDir1 );

  0006b	8d 45 e4	 lea	 eax, DWORD PTR _vDir1$4[ebp]
  0006e	c7 45 f4 00 00
	00 00		 mov	 DWORD PTR _vDir2$5[ebp+4], 0
  00075	50		 push	 eax
  00076	50		 push	 eax

; 282  : 	FLOAT fz = -cosf( fTheta ) * fVelocity;

  00077	0f 57 05 00 00
	00 00		 xorps	 xmm0, DWORD PTR __xmm@80000000800000008000000080000000
; File C:\IAGOS\server\v18\Source\Source\DX_SDK\d3dx9math.inl

; 302  :     z = fz;

  0007e	f3 0f 11 45 ec	 movss	 DWORD PTR _vDir1$4[ebp+8], xmm0

; 383  :     return D3DXVECTOR3(x - v.x, y - v.y, z - v.z);

  00083	f3 0f 10 45 cc	 movss	 xmm0, DWORD PTR $T1[ebp]
  00088	f3 0f 5c 45 d8	 subss	 xmm0, DWORD PTR $T2[ebp]

; 300  :     x = fx;

  0008d	f3 0f 11 45 f0	 movss	 DWORD PTR _vDir2$5[ebp], xmm0

; 383  :     return D3DXVECTOR3(x - v.x, y - v.y, z - v.z);

  00092	f3 0f 10 45 d4	 movss	 xmm0, DWORD PTR $T1[ebp+8]
  00097	f3 0f 5c 45 e0	 subss	 xmm0, DWORD PTR $T2[ebp+8]

; 302  :     z = fz;

  0009c	f3 0f 11 45 f8	 movss	 DWORD PTR _vDir2$5[ebp+8], xmm0
; File C:\IAGOS\server\v18\Source\Source\_Common\Obj.h

; 294  : 	D3DXVec3Normalize( &vDir1, &vDir1 );

  000a1	e8 00 00 00 00	 call	 _D3DXVec3Normalize@8

; 295  : 	D3DXVec3Normalize( &vDir2, &vDir2 );

  000a6	8d 45 f0	 lea	 eax, DWORD PTR _vDir2$5[ebp]
  000a9	50		 push	 eax
  000aa	50		 push	 eax
  000ab	e8 00 00 00 00	 call	 _D3DXVec3Normalize@8
; File C:\IAGOS\server\v18\Source\Source\DX_SDK\d3dx9math.inl

; 1709 :     return pV1->x * pV2->x + pV1->y * pV2->y + pV1->z * pV2->z;

  000b0	f3 0f 10 4d e8	 movss	 xmm1, DWORD PTR _vDir1$4[ebp+4]
  000b5	f3 0f 10 45 e4	 movss	 xmm0, DWORD PTR _vDir1$4[ebp]
  000ba	f3 0f 59 45 f0	 mulss	 xmm0, DWORD PTR _vDir2$5[ebp]
  000bf	f3 0f 59 4d f4	 mulss	 xmm1, DWORD PTR _vDir2$5[ebp+4]
  000c4	f3 0f 58 c8	 addss	 xmm1, xmm0
  000c8	f3 0f 10 45 f8	 movss	 xmm0, DWORD PTR _vDir2$5[ebp+8]
  000cd	f3 0f 59 45 ec	 mulss	 xmm0, DWORD PTR _vDir1$4[ebp+8]
  000d2	f3 0f 58 c8	 addss	 xmm1, xmm0
; File C:\Program Files (x86)\Windows Kits\10\Include\10.0.26100.0\ucrt\corecrt_math.h

; 658  :             return (float)acos(_X);

  000d6	0f 5a c1	 cvtps2pd xmm0, xmm1
  000d9	e8 00 00 00 00	 call	 __libm_sse2_acos_precise
  000de	0f 57 c9	 xorps	 xmm1, xmm1
  000e1	f2 0f 5a c8	 cvtsd2ss xmm1, xmm0
  000e5	0f 57 c0	 xorps	 xmm0, xmm0
; File C:\IAGOS\server\v18\Source\Source\_Common\Obj.h

; 299  : 	if( vDir2.x < 0.0f )

  000e8	0f 2f 45 f0	 comiss	 xmm0, DWORD PTR _vDir2$5[ebp]
  000ec	f3 0f 59 0d 00
	00 00 00	 mulss	 xmm1, DWORD PTR __real@42652ee0
  000f4	76 0f		 jbe	 SHORT $LN8@PlayPropos

; 300  : 		fDegree = 360.0f - fDegree;

  000f6	f3 0f 10 05 00
	00 00 00	 movss	 xmm0, DWORD PTR __real@43b40000
  000fe	f3 0f 5c c1	 subss	 xmm0, xmm1
  00102	0f 28 c8	 movaps	 xmm1, xmm0
$LN8@PlayPropos:
; File C:\IAGOS\server\v18\Source\Source\WorldServer\couplehelper.cpp

; 80   : 	pProposer->SetAngle( fAngle );

  00105	51		 push	 ecx
  00106	8b ce		 mov	 ecx, esi
  00108	f3 0f 11 0c 24	 movss	 DWORD PTR [esp], xmm1
  0010d	e8 00 00 00 00	 call	 ?SetAngle@CObj@@QAEXM@Z	; CObj::SetAngle
; File C:\IAGOS\server\v18\Source\Source\_Common\Mover.h

; 1785 : 	if( m_pActMover )	

  00112	8b 8e 38 02 00
	00		 mov	 ecx, DWORD PTR [esi+568]
  00118	85 c9		 test	 ecx, ecx
  0011a	74 14		 je	 SHORT $LN28@PlayPropos

; 1786 : 		return m_pActMover->SendActMsg( dwMsg, nParam1, nParam2, nParam3, nParam4 );	

  0011c	8b 01		 mov	 eax, DWORD PTR [ecx]
  0011e	6a 00		 push	 0
  00120	6a 00		 push	 0
  00122	6a 00		 push	 0
  00124	6a 01		 push	 1
  00126	68 88 00 00 00	 push	 136			; 00000088H
  0012b	6a 2e		 push	 46			; 0000002eH
  0012d	ff 50 04	 call	 DWORD PTR [eax+4]
$LN28@PlayPropos:
; File C:\IAGOS\server\v18\Source\Source\WorldServer\couplehelper.cpp

; 82   : 	g_UserMng.AddCreateSfxObj( pProposer, XI_CHEERSENDEFFECT );

  00130	6a 00		 push	 0
  00132	83 ec 0c	 sub	 esp, 12			; 0000000cH
  00135	b9 00 00 00 00	 mov	 ecx, OFFSET ?g_UserMng@@3VCUserMng@@A ; g_UserMng
  0013a	c7 44 24 08 00
	00 00 00	 mov	 DWORD PTR [esp+8], 0
  00142	c7 44 24 04 00
	00 00 00	 mov	 DWORD PTR [esp+4], 0
  0014a	c7 04 24 00 00
	00 00		 mov	 DWORD PTR [esp], 0
  00151	68 b5 06 00 00	 push	 1717			; 000006b5H
  00156	56		 push	 esi
  00157	e8 00 00 00 00	 call	 ?AddCreateSfxObj@CUserMng@@QAEXPAVCCtrl@@KMMMH@Z ; CUserMng::AddCreateSfxObj

; 83   : 	g_UserMng.AddCreateSfxObj( pTarget, XI_CHEERRECEIVEEFFECT );

  0015c	6a 00		 push	 0
  0015e	83 ec 0c	 sub	 esp, 12			; 0000000cH
  00161	b9 00 00 00 00	 mov	 ecx, OFFSET ?g_UserMng@@3VCUserMng@@A ; g_UserMng
  00166	c7 44 24 08 00
	00 00 00	 mov	 DWORD PTR [esp+8], 0
  0016e	c7 44 24 04 00
	00 00 00	 mov	 DWORD PTR [esp+4], 0
  00176	c7 04 24 00 00
	00 00		 mov	 DWORD PTR [esp], 0
  0017d	68 b6 06 00 00	 push	 1718			; 000006b6H
  00182	57		 push	 edi
  00183	e8 00 00 00 00	 call	 ?AddCreateSfxObj@CUserMng@@QAEXPAVCCtrl@@KMMMH@Z ; CUserMng::AddCreateSfxObj
; File C:\IAGOS\server\v18\Source\Source\_Network\Misc\Include\tickcount.h

; 52   : 	m_dwOffset	= timeGetTime();

  00188	ff 15 00 00 00
	00		 call	 DWORD PTR __imp__timeGetTime@0
  0018e	a3 0c 00 00 00	 mov	 DWORD PTR ?g_TickCount@@3VCTickCount@@A+12, eax

; 53   : 	return( m_nStart + ( m_dwOffset - m_dwBase ) * 10000 );

  00193	2b 05 08 00 00
	00		 sub	 eax, DWORD PTR ?g_TickCount@@3VCTickCount@@A+8
; File C:\IAGOS\server\v18\Source\Source\_Common\Obj.h

; 215  : 	D3DXVECTOR3		GetPos()	{ return m_vPos; }

  00199	8b 8e 68 01 00
	00		 mov	 ecx, DWORD PTR [esi+360]
; File C:\IAGOS\server\v18\Source\Source\WorldServer\couplehelper.cpp

; 84   : 	g_UserMng.AddMoverBehavior( pProposer, pProposer->GetPos(), pProposer->m_pActMover->m_vDelta,

  0019f	8b 96 38 02 00
	00		 mov	 edx, DWORD PTR [esi+568]
; File C:\IAGOS\server\v18\Source\Source\_Common\Obj.h

; 215  : 	D3DXVECTOR3		GetPos()	{ return m_vPos; }

  001a5	f3 0f 7e 86 60
	01 00 00	 movq	 xmm0, QWORD PTR [esi+352]
  001ad	89 4d e0	 mov	 DWORD PTR $T3[ebp+8], ecx
; File C:\IAGOS\server\v18\Source\Source\_Network\Misc\Include\tickcount.h

; 53   : 	return( m_nStart + ( m_dwOffset - m_dwBase ) * 10000 );

  001b0	69 c8 10 27 00
	00		 imul	 ecx, eax, 10000
  001b6	33 c0		 xor	 eax, eax
; File C:\IAGOS\server\v18\Source\Source\WorldServer\couplehelper.cpp

; 84   : 	g_UserMng.AddMoverBehavior( pProposer, pProposer->GetPos(), pProposer->m_pActMover->m_vDelta,

  001b8	6a 01		 push	 1
; File C:\IAGOS\server\v18\Source\Source\_Common\Obj.h

; 215  : 	D3DXVECTOR3		GetPos()	{ return m_vPos; }

  001ba	66 0f d6 45 d8	 movq	 QWORD PTR $T3[ebp], xmm0
; File C:\IAGOS\server\v18\Source\Source\WorldServer\couplehelper.cpp

; 84   : 	g_UserMng.AddMoverBehavior( pProposer, pProposer->GetPos(), pProposer->m_pActMover->m_vDelta,

  001bf	f3 0f 10 46 18	 movss	 xmm0, DWORD PTR [esi+24]
; File C:\IAGOS\server\v18\Source\Source\_Network\Misc\Include\tickcount.h

; 53   : 	return( m_nStart + ( m_dwOffset - m_dwBase ) * 10000 );

  001c4	03 0d 00 00 00
	00		 add	 ecx, DWORD PTR ?g_TickCount@@3VCTickCount@@A
  001ca	13 05 04 00 00
	00		 adc	 eax, DWORD PTR ?g_TickCount@@3VCTickCount@@A+4
; File C:\IAGOS\server\v18\Source\Source\WorldServer\couplehelper.cpp

; 84   : 	g_UserMng.AddMoverBehavior( pProposer, pProposer->GetPos(), pProposer->m_pActMover->m_vDelta,

  001d0	50		 push	 eax
  001d1	8b 86 78 01 00
	00		 mov	 eax, DWORD PTR [esi+376]
  001d7	51		 push	 ecx
  001d8	ff b6 dc 02 00
	00		 push	 DWORD PTR [esi+732]
  001de	ff b0 b4 00 00
	00		 push	 DWORD PTR [eax+180]
  001e4	8d 42 50	 lea	 eax, DWORD PTR [edx+80]
  001e7	ff b2 8c 00 00
	00		 push	 DWORD PTR [edx+140]
  001ed	ff b6 d8 02 00
	00		 push	 DWORD PTR [esi+728]
  001f3	ff 72 08	 push	 DWORD PTR [edx+8]
  001f6	ff 72 04	 push	 DWORD PTR [edx+4]
  001f9	51		 push	 ecx
  001fa	f3 0f 11 04 24	 movss	 DWORD PTR [esp], xmm0
  001ff	b9 00 00 00 00	 mov	 ecx, OFFSET ?g_UserMng@@3VCUserMng@@A ; g_UserMng
  00204	50		 push	 eax
  00205	8d 45 d8	 lea	 eax, DWORD PTR $T3[ebp]
  00208	50		 push	 eax
  00209	56		 push	 esi
  0020a	e8 00 00 00 00	 call	 ?AddMoverBehavior@CUserMng@@QAEXPAVCMover@@AAUD3DXVECTOR3@@1MKKKHHK_JH@Z ; CUserMng::AddMoverBehavior

; 85   : 		pProposer->GetAngle(), pProposer->m_pActMover->GetState(), pProposer->m_pActMover->GetStateFlag(), 
; 86   : 		pProposer->m_dwMotion, pProposer->m_pActMover->m_nMotionEx, pProposer->m_pModel->m_nLoop, pProposer->m_dwMotionOption, g_TickCount.GetTickCount(), TRUE );
; 87   : }

  0020f	8b 4d fc	 mov	 ecx, DWORD PTR __$ArrayPad$[ebp]
  00212	5f		 pop	 edi
  00213	33 cd		 xor	 ecx, ebp
  00215	5e		 pop	 esi
  00216	e8 00 00 00 00	 call	 @__security_check_cookie@4
  0021b	8b e5		 mov	 esp, ebp
  0021d	5d		 pop	 ebp
  0021e	c2 08 00	 ret	 8
?PlayProposeAnimation@CCoupleHelper@@AAEXPAVCUser@@0@Z ENDP ; CCoupleHelper::PlayProposeAnimation
_TEXT	ENDS
; Function compile flags: /Ogtp
; File C:\IAGOS\server\v18\Source\Source\WorldServer\couplehelper.cpp
; File C:\IAGOS\server\v18\Source\Source\WorldServer\couplehelper.h
; File C:\IAGOS\server\v18\Source\Source\WorldServer\couplehelper.cpp
; File C:\IAGOS\server\v18\Source\Source\WorldServer\couplehelper.h
; File C:\IAGOS\server\v18\Source\Source\WorldServer\couplehelper.cpp
; File C:\IAGOS\server\v18\Source\Source\_Common\Obj.h
; File C:\IAGOS\server\v18\Source\Source\WorldServer\couplehelper.cpp
;	COMDAT ?OnUpdatePlayerData@CCoupleHelper@@QAEXKPAU_PlayerData@@@Z
_TEXT	SEGMENT
_idPlayer$ = 8						; size = 4
_pPlayerData$ = 12					; size = 4
?OnUpdatePlayerData@CCoupleHelper@@QAEXKPAU_PlayerData@@@Z PROC ; CCoupleHelper::OnUpdatePlayerData, COMDAT
; _this$ = ecx

; 298  : {

  00000	55		 push	 ebp
  00001	8b ec		 mov	 ebp, esp
; File C:\IAGOS\server\v18\Source\Source\WorldServer\couplehelper.h

; 28   : 	CCouple* GetCouple( u_long idPlayer )	{	ASSERT( m_pMgr );	return m_pMgr->GetCouple( idPlayer );	}

  00003	8b 49 04	 mov	 ecx, DWORD PTR [ecx+4]
; File C:\IAGOS\server\v18\Source\Source\WorldServer\couplehelper.cpp

; 298  : {

  00006	56		 push	 esi
; File C:\IAGOS\server\v18\Source\Source\WorldServer\couplehelper.h

; 28   : 	CCouple* GetCouple( u_long idPlayer )	{	ASSERT( m_pMgr );	return m_pMgr->GetCouple( idPlayer );	}

  00007	8b 75 08	 mov	 esi, DWORD PTR _idPlayer$[ebp]
  0000a	56		 push	 esi
  0000b	e8 00 00 00 00	 call	 ?GetCouple@CCoupleMgr@@QAEPAVCCouple@@K@Z ; CCoupleMgr::GetCouple
; File C:\IAGOS\server\v18\Source\Source\WorldServer\couplehelper.cpp

; 300  : 	if( pCouple )

  00010	85 c0		 test	 eax, eax
  00012	74 28		 je	 SHORT $LN3@OnUpdatePl

; 301  : 	{
; 302  : 		u_long idPartner	= pCouple->GetPartner( idPlayer );

  00014	56		 push	 esi
  00015	8b c8		 mov	 ecx, eax
  00017	e8 00 00 00 00	 call	 ?GetPartner@CCouple@@QAEKK@Z ; CCouple::GetPartner

; 303  : 		CUser* pPartner		= g_UserMng.GetUserByPlayerID( idPartner );

  0001c	50		 push	 eax
  0001d	b9 00 00 00 00	 mov	 ecx, OFFSET ?g_UserMng@@3VCUserMng@@A ; g_UserMng
  00022	e8 00 00 00 00	 call	 ?GetUserByPlayerID@CUserMng@@QAEPAVCUser@@K@Z ; CUserMng::GetUserByPlayerID
; File C:\IAGOS\server\v18\Source\Source\_Common\Obj.h

; 327  : 	return pObj && ( pObj->IsDelete() == FALSE ); 

  00027	85 c0		 test	 eax, eax
  00029	74 11		 je	 SHORT $LN3@OnUpdatePl

; 180  : 	BOOL			IsDelete()	{ return (m_dwFlags & OBJ_FLAG_DELETE);  }

  0002b	f6 40 04 01	 test	 BYTE PTR [eax+4], 1

; 327  : 	return pObj && ( pObj->IsDelete() == FALSE ); 

  0002f	75 0b		 jne	 SHORT $LN3@OnUpdatePl
; File C:\IAGOS\server\v18\Source\Source\WorldServer\couplehelper.cpp

; 305  : 			pPartner->AddQueryPlayerData( idPlayer, pPlayerData );

  00031	ff 75 0c	 push	 DWORD PTR _pPlayerData$[ebp]
  00034	8b c8		 mov	 ecx, eax
  00036	56		 push	 esi
  00037	e8 00 00 00 00	 call	 ?AddQueryPlayerData@CUser@@QAEXKPAU_PlayerData@@@Z ; CUser::AddQueryPlayerData
$LN3@OnUpdatePl:
  0003c	5e		 pop	 esi

; 306  : 	}
; 307  : }

  0003d	5d		 pop	 ebp
  0003e	c2 08 00	 ret	 8
?OnUpdatePlayerData@CCoupleHelper@@QAEXKPAU_PlayerData@@@Z ENDP ; CCoupleHelper::OnUpdatePlayerData
_TEXT	ENDS
; Function compile flags: /Ogtp
; File C:\IAGOS\server\v18\Source\Source\WorldServer\couplehelper.cpp
; File C:\IAGOS\server\v18\Source\Source\WorldServer\couplehelper.h
; File C:\IAGOS\server\v18\Source\Source\WorldServer\couplehelper.cpp
; File C:\Program Files\Microsoft Visual Studio\2022\Professional\VC\Tools\MSVC\14.44.35207\include\xtree
; File C:\Program Files\Microsoft Visual Studio\2022\Professional\VC\Tools\MSVC\14.44.35207\include\type_traits
; File C:\Program Files\Microsoft Visual Studio\2022\Professional\VC\Tools\MSVC\14.44.35207\include\xtree
; File C:\Program Files\Microsoft Visual Studio\2022\Professional\VC\Tools\MSVC\14.44.35207\include\type_traits
; File C:\Program Files\Microsoft Visual Studio\2022\Professional\VC\Tools\MSVC\14.44.35207\include\xtree
; File C:\IAGOS\server\v18\Source\Source\_Common\Project.h
; File C:\Program Files\Microsoft Visual Studio\2022\Professional\VC\Tools\MSVC\14.44.35207\include\xtree
; File C:\IAGOS\server\v18\Source\Source\WorldServer\couplehelper.cpp
; File C:\Program Files\Microsoft Visual Studio\2022\Professional\VC\Tools\MSVC\14.44.35207\include\xtree
; File C:\Program Files\Microsoft Visual Studio\2022\Professional\VC\Tools\MSVC\14.44.35207\include\type_traits
; File C:\Program Files\Microsoft Visual Studio\2022\Professional\VC\Tools\MSVC\14.44.35207\include\xtree
; File C:\Program Files\Microsoft Visual Studio\2022\Professional\VC\Tools\MSVC\14.44.35207\include\type_traits
; File C:\Program Files\Microsoft Visual Studio\2022\Professional\VC\Tools\MSVC\14.44.35207\include\xtree
; File C:\IAGOS\server\v18\Source\Source\_Common\Project.h
; File C:\IAGOS\server\v18\Source\Source\_Common\Obj.h
; File C:\IAGOS\server\v18\Source\Source\WorldServer\couplehelper.cpp
; File C:\IAGOS\server\v18\Source\Source\_Common\Obj.h
; File C:\IAGOS\server\v18\Source\Source\WorldServer\couplehelper.cpp
;	COMDAT ?OnAddCoupleExperience@CCoupleHelper@@QAEXAAVCAr@@@Z
_TEXT	SEGMENT
_idPlayer$ = -12					; size = 4
_nPreCouplelvl$1$ = -12					; size = 4
_nExperience$ = -8					; size = 4
_pCouple$1$ = -4					; size = 4
_ar$ = 8						; size = 4
tv833 = 11						; size = 1
?OnAddCoupleExperience@CCoupleHelper@@QAEXAAVCAr@@@Z PROC ; CCoupleHelper::OnAddCoupleExperience, COMDAT
; _this$ = ecx

; 262  : {

  00000	55		 push	 ebp
  00001	8b ec		 mov	 ebp, esp
  00003	83 ec 0c	 sub	 esp, 12			; 0000000cH
  00006	53		 push	 ebx
  00007	56		 push	 esi

; 263  : 	u_long idPlayer;
; 264  : 	int nExperience;
; 265  : 	ar >> idPlayer >> nExperience;

  00008	8d 45 f8	 lea	 eax, DWORD PTR _nExperience$[ebp]
  0000b	8b f1		 mov	 esi, ecx
  0000d	8b 4d 08	 mov	 ecx, DWORD PTR _ar$[ebp]
  00010	50		 push	 eax
  00011	8d 45 f4	 lea	 eax, DWORD PTR _idPlayer$[ebp]
  00014	50		 push	 eax
  00015	e8 00 00 00 00	 call	 ??$?5K@CAr@@QAEAAV0@AAK@Z ; CAr::operator>><unsigned long>
  0001a	8b c8		 mov	 ecx, eax
  0001c	e8 00 00 00 00	 call	 ??$?5H@CAr@@QAEAAV0@AAH@Z ; CAr::operator>><int>
; File C:\IAGOS\server\v18\Source\Source\WorldServer\couplehelper.h

; 28   : 	CCouple* GetCouple( u_long idPlayer )	{	ASSERT( m_pMgr );	return m_pMgr->GetCouple( idPlayer );	}

  00021	ff 75 f4	 push	 DWORD PTR _idPlayer$[ebp]
  00024	8b 4e 04	 mov	 ecx, DWORD PTR [esi+4]
  00027	e8 00 00 00 00	 call	 ?GetCouple@CCoupleMgr@@QAEPAVCCouple@@K@Z ; CCoupleMgr::GetCouple
; File C:\IAGOS\server\v18\Source\Source\WorldServer\couplehelper.cpp

; 266  : 	CCouple* pCouple	= GetCouple( idPlayer );

  0002c	8b d8		 mov	 ebx, eax
  0002e	89 5d fc	 mov	 DWORD PTR _pCouple$1$[ebp], ebx

; 267  : 	if( pCouple )

  00031	85 db		 test	 ebx, ebx
  00033	0f 84 32 01 00
	00		 je	 $LN6@OnAddCoupl

; 268  : 	{
; 269  : #if __VER >= 13 // __HONORABLE_TITLE			// ´ŢŔÎ
; 270  : 		int nPreCouplelvl =	pCouple->GetLevel();

  00039	6a 00		 push	 0
  0003b	8b cb		 mov	 ecx, ebx
  0003d	e8 00 00 00 00	 call	 ?GetLevel@CCouple@@QAEHH@Z ; CCouple::GetLevel

; 271  : #endif	// __HONORABLE_TITLE			// ´ŢŔÎ
; 272  : 		pCouple->AddExperience( nExperience );

  00042	ff 75 f8	 push	 DWORD PTR _nExperience$[ebp]
  00045	8b cb		 mov	 ecx, ebx
  00047	89 45 f4	 mov	 DWORD PTR _nPreCouplelvl$1$[ebp], eax
  0004a	e8 00 00 00 00	 call	 ?AddExperience@CCouple@@QAEHH@Z ; CCouple::AddExperience

; 273  : 		CUser* pFirst	= static_cast<CUser*>( prj.GetUserByID( pCouple->GetFirst() ) );

  0004f	8b 73 0c	 mov	 esi, DWORD PTR [ebx+12]
; File C:\Program Files\Microsoft Visual Studio\2022\Professional\VC\Tools\MSVC\14.44.35207\include\xtree

; 1630 :         _Tree_find_result<_Nodeptr> _Result{{_Scary->_Myhead->_Parent, _Tree_child::_Right}, _Scary->_Myhead};

  00052	8b 1d 28 00 00
	00		 mov	 ebx, DWORD PTR ?prj@@3VCProject@@A+40
  00058	8b d3		 mov	 edx, ebx
  0005a	8b 4b 04	 mov	 ecx, DWORD PTR [ebx+4]

; 1632 :         while (!_Trynode->_Isnil) {

  0005d	8a 41 0d	 mov	 al, BYTE PTR [ecx+13]
  00060	88 45 0b	 mov	 BYTE PTR tv833[ebp], al
  00063	84 c0		 test	 al, al
  00065	75 1d		 jne	 SHORT $LN22@OnAddCoupl
  00067	8b c1		 mov	 eax, ecx
  00069	0f 1f 80 00 00
	00 00		 npad	 7
$LL21@OnAddCoupl:
; File C:\Program Files\Microsoft Visual Studio\2022\Professional\VC\Tools\MSVC\14.44.35207\include\type_traits

; 2380 :         return _Left < _Right;

  00070	39 70 10	 cmp	 DWORD PTR [eax+16], esi
; File C:\Program Files\Microsoft Visual Studio\2022\Professional\VC\Tools\MSVC\14.44.35207\include\xtree

; 1634 :             if (_DEBUG_LT_PRED(_Getcomp(), _Traits::_Kfn(_Trynode->_Myval), _Keyval)) {

  00073	73 05		 jae	 SHORT $LN23@OnAddCoupl

; 1635 :                 _Result._Location._Child = _Tree_child::_Right;
; 1636 :                 _Trynode                 = _Trynode->_Right;

  00075	8b 40 08	 mov	 eax, DWORD PTR [eax+8]

; 1637 :             } else {

  00078	eb 04		 jmp	 SHORT $LN24@OnAddCoupl
$LN23@OnAddCoupl:

; 1638 :                 _Result._Location._Child = _Tree_child::_Left;
; 1639 :                 _Result._Bound           = _Trynode;

  0007a	8b d0		 mov	 edx, eax

; 1640 :                 _Trynode                 = _Trynode->_Left;

  0007c	8b 00		 mov	 eax, DWORD PTR [eax]
$LN24@OnAddCoupl:

; 1632 :         while (!_Trynode->_Isnil) {

  0007e	80 78 0d 00	 cmp	 BYTE PTR [eax+13], 0
  00082	74 ec		 je	 SHORT $LL21@OnAddCoupl
$LN22@OnAddCoupl:

; 1624 :         return !_Bound->_Isnil && !_DEBUG_LT_PRED(_Getcomp(), _Keyval, _Traits::_Kfn(_Bound->_Myval));

  00084	80 7a 0d 00	 cmp	 BYTE PTR [edx+13], 0
  00088	75 05		 jne	 SHORT $LN18@OnAddCoupl
; File C:\Program Files\Microsoft Visual Studio\2022\Professional\VC\Tools\MSVC\14.44.35207\include\type_traits

; 2380 :         return _Left < _Right;

  0008a	3b 72 10	 cmp	 esi, DWORD PTR [edx+16]
; File C:\Program Files\Microsoft Visual Studio\2022\Professional\VC\Tools\MSVC\14.44.35207\include\xtree

; 1624 :         return !_Bound->_Isnil && !_DEBUG_LT_PRED(_Getcomp(), _Keyval, _Traits::_Kfn(_Bound->_Myval));

  0008d	73 02		 jae	 SHORT $LN17@OnAddCoupl
$LN18@OnAddCoupl:

; 1389 :         return _Get_scary()->_Myhead;

  0008f	8b d3		 mov	 edx, ebx
$LN17@OnAddCoupl:
  00091	57		 push	 edi

; 37   :     _Tree_unchecked_const_iterator(_Nodeptr _Pnode, const _Mytree* _Plist) noexcept : _Ptr(_Pnode) {

  00092	3b d3		 cmp	 edx, ebx
; File C:\IAGOS\server\v18\Source\Source\_Common\Project.h

; 1436 : 	if( i != m_idPlayerToUserPtr.end() )

  00094	74 05		 je	 SHORT $LN13@OnAddCoupl

; 1437 : 		return i->second;

  00096	8b 7a 14	 mov	 edi, DWORD PTR [edx+20]
  00099	eb 02		 jmp	 SHORT $LN12@OnAddCoupl
$LN13@OnAddCoupl:

; 1438 : 	return NULL;

  0009b	33 ff		 xor	 edi, edi
$LN12@OnAddCoupl:
; File C:\Program Files\Microsoft Visual Studio\2022\Professional\VC\Tools\MSVC\14.44.35207\include\xtree

; 1632 :         while (!_Trynode->_Isnil) {

  0009d	80 7d 0b 00	 cmp	 BYTE PTR tv833[ebp], 0
  000a1	8b c3		 mov	 eax, ebx
; File C:\IAGOS\server\v18\Source\Source\WorldServer\couplehelper.cpp

; 274  : 		CUser* pSecond	= static_cast<CUser*>( prj.GetUserByID( pCouple->GetSecond() ) );

  000a3	8b 55 fc	 mov	 edx, DWORD PTR _pCouple$1$[ebp]
  000a6	8b 52 10	 mov	 edx, DWORD PTR [edx+16]
; File C:\Program Files\Microsoft Visual Studio\2022\Professional\VC\Tools\MSVC\14.44.35207\include\xtree

; 1632 :         while (!_Trynode->_Isnil) {

  000a9	75 19		 jne	 SHORT $LN82@OnAddCoupl
  000ab	0f 1f 44 00 00	 npad	 5
$LL81@OnAddCoupl:
; File C:\Program Files\Microsoft Visual Studio\2022\Professional\VC\Tools\MSVC\14.44.35207\include\type_traits

; 2380 :         return _Left < _Right;

  000b0	39 51 10	 cmp	 DWORD PTR [ecx+16], edx
; File C:\Program Files\Microsoft Visual Studio\2022\Professional\VC\Tools\MSVC\14.44.35207\include\xtree

; 1634 :             if (_DEBUG_LT_PRED(_Getcomp(), _Traits::_Kfn(_Trynode->_Myval), _Keyval)) {

  000b3	73 05		 jae	 SHORT $LN83@OnAddCoupl

; 1635 :                 _Result._Location._Child = _Tree_child::_Right;
; 1636 :                 _Trynode                 = _Trynode->_Right;

  000b5	8b 49 08	 mov	 ecx, DWORD PTR [ecx+8]

; 1637 :             } else {

  000b8	eb 04		 jmp	 SHORT $LN84@OnAddCoupl
$LN83@OnAddCoupl:

; 1638 :                 _Result._Location._Child = _Tree_child::_Left;
; 1639 :                 _Result._Bound           = _Trynode;

  000ba	8b c1		 mov	 eax, ecx

; 1640 :                 _Trynode                 = _Trynode->_Left;

  000bc	8b 09		 mov	 ecx, DWORD PTR [ecx]
$LN84@OnAddCoupl:

; 1632 :         while (!_Trynode->_Isnil) {

  000be	80 79 0d 00	 cmp	 BYTE PTR [ecx+13], 0
  000c2	74 ec		 je	 SHORT $LL81@OnAddCoupl
$LN82@OnAddCoupl:

; 1624 :         return !_Bound->_Isnil && !_DEBUG_LT_PRED(_Getcomp(), _Keyval, _Traits::_Kfn(_Bound->_Myval));

  000c4	80 78 0d 00	 cmp	 BYTE PTR [eax+13], 0
  000c8	75 05		 jne	 SHORT $LN78@OnAddCoupl
; File C:\Program Files\Microsoft Visual Studio\2022\Professional\VC\Tools\MSVC\14.44.35207\include\type_traits

; 2380 :         return _Left < _Right;

  000ca	3b 50 10	 cmp	 edx, DWORD PTR [eax+16]
; File C:\Program Files\Microsoft Visual Studio\2022\Professional\VC\Tools\MSVC\14.44.35207\include\xtree

; 1624 :         return !_Bound->_Isnil && !_DEBUG_LT_PRED(_Getcomp(), _Keyval, _Traits::_Kfn(_Bound->_Myval));

  000cd	73 02		 jae	 SHORT $LN77@OnAddCoupl
$LN78@OnAddCoupl:

; 1389 :         return _Get_scary()->_Myhead;

  000cf	8b c3		 mov	 eax, ebx
$LN77@OnAddCoupl:

; 37   :     _Tree_unchecked_const_iterator(_Nodeptr _Pnode, const _Mytree* _Plist) noexcept : _Ptr(_Pnode) {

  000d1	3b c3		 cmp	 eax, ebx
; File C:\IAGOS\server\v18\Source\Source\_Common\Project.h

; 1436 : 	if( i != m_idPlayerToUserPtr.end() )

  000d3	74 05		 je	 SHORT $LN73@OnAddCoupl

; 1437 : 		return i->second;

  000d5	8b 70 14	 mov	 esi, DWORD PTR [eax+20]
  000d8	eb 02		 jmp	 SHORT $LN72@OnAddCoupl
$LN73@OnAddCoupl:

; 1438 : 	return NULL;

  000da	33 f6		 xor	 esi, esi
$LN72@OnAddCoupl:
; File C:\IAGOS\server\v18\Source\Source\_Common\Obj.h

; 327  : 	return pObj && ( pObj->IsDelete() == FALSE ); 

  000dc	85 ff		 test	 edi, edi
  000de	74 44		 je	 SHORT $LN155@OnAddCoupl

; 180  : 	BOOL			IsDelete()	{ return (m_dwFlags & OBJ_FLAG_DELETE);  }

  000e0	f6 47 04 01	 test	 BYTE PTR [edi+4], 1

; 327  : 	return pObj && ( pObj->IsDelete() == FALSE ); 

  000e4	75 3e		 jne	 SHORT $LN155@OnAddCoupl
; File C:\IAGOS\server\v18\Source\Source\WorldServer\couplehelper.cpp

; 277  : 			pFirst->RemoveIk3Buffs( IK3_COUPLE_BUFF );

  000e6	68 85 00 00 00	 push	 133			; 00000085H
  000eb	8b cf		 mov	 ecx, edi
  000ed	e8 00 00 00 00	 call	 ?RemoveIk3Buffs@CMover@@QAEXK@Z ; CMover::RemoveIk3Buffs

; 278  : 			pFirst->AddAddCoupleExperience( nExperience );

  000f2	ff 75 f8	 push	 DWORD PTR _nExperience$[ebp]
  000f5	8b cf		 mov	 ecx, edi
  000f7	e8 00 00 00 00	 call	 ?AddAddCoupleExperience@CUser@@QAEXH@Z ; CUser::AddAddCoupleExperience

; 279  : #if __VER >= 13 // __HONORABLE_TITLE			// ´ŢŔÎ
; 280  : 			if(nPreCouplelvl < pCouple->GetLevel())

  000fc	8b 5d fc	 mov	 ebx, DWORD PTR _pCouple$1$[ebp]
  000ff	8b cb		 mov	 ecx, ebx
  00101	6a 00		 push	 0
  00103	e8 00 00 00 00	 call	 ?GetLevel@CCouple@@QAEHH@Z ; CCouple::GetLevel
  00108	39 45 f4	 cmp	 DWORD PTR _nPreCouplelvl$1$[ebp], eax
  0010b	7d 1a		 jge	 SHORT $LN4@OnAddCoupl

; 281  : 				pFirst->SetHonorAdd(HS_COUPLE_LV,HI_COUNT_CHECK,pCouple->GetLevel());

  0010d	6a 00		 push	 0
  0010f	8b cb		 mov	 ecx, ebx
  00111	e8 00 00 00 00	 call	 ?GetLevel@CCouple@@QAEHH@Z ; CCouple::GetLevel
  00116	50		 push	 eax
  00117	6a 02		 push	 2
  00119	6a 3f		 push	 63			; 0000003fH
  0011b	8b cf		 mov	 ecx, edi
  0011d	e8 00 00 00 00	 call	 ?SetHonorAdd@CMover@@QAEXHHH@Z ; CMover::SetHonorAdd
; File C:\IAGOS\server\v18\Source\Source\_Common\Obj.h

; 327  : 	return pObj && ( pObj->IsDelete() == FALSE ); 

  00122	eb 03		 jmp	 SHORT $LN4@OnAddCoupl
$LN155@OnAddCoupl:
  00124	8b 5d fc	 mov	 ebx, DWORD PTR _pCouple$1$[ebp]
$LN4@OnAddCoupl:
  00127	5f		 pop	 edi
  00128	85 f6		 test	 esi, esi
  0012a	74 3f		 je	 SHORT $LN6@OnAddCoupl

; 180  : 	BOOL			IsDelete()	{ return (m_dwFlags & OBJ_FLAG_DELETE);  }

  0012c	f6 46 04 01	 test	 BYTE PTR [esi+4], 1

; 327  : 	return pObj && ( pObj->IsDelete() == FALSE ); 

  00130	75 39		 jne	 SHORT $LN6@OnAddCoupl
; File C:\IAGOS\server\v18\Source\Source\WorldServer\couplehelper.cpp

; 286  : 			pSecond->RemoveIk3Buffs( IK3_COUPLE_BUFF );

  00132	68 85 00 00 00	 push	 133			; 00000085H
  00137	8b ce		 mov	 ecx, esi
  00139	e8 00 00 00 00	 call	 ?RemoveIk3Buffs@CMover@@QAEXK@Z ; CMover::RemoveIk3Buffs

; 287  : 			pSecond->AddAddCoupleExperience( nExperience );

  0013e	ff 75 f8	 push	 DWORD PTR _nExperience$[ebp]
  00141	8b ce		 mov	 ecx, esi
  00143	e8 00 00 00 00	 call	 ?AddAddCoupleExperience@CUser@@QAEXH@Z ; CUser::AddAddCoupleExperience

; 288  : #if __VER >= 13 // __HONORABLE_TITLE			// ´ŢŔÎ
; 289  : 			if(nPreCouplelvl < pCouple->GetLevel())

  00148	6a 00		 push	 0
  0014a	8b cb		 mov	 ecx, ebx
  0014c	e8 00 00 00 00	 call	 ?GetLevel@CCouple@@QAEHH@Z ; CCouple::GetLevel
  00151	39 45 f4	 cmp	 DWORD PTR _nPreCouplelvl$1$[ebp], eax
  00154	7d 15		 jge	 SHORT $LN6@OnAddCoupl

; 290  : 				pSecond->SetHonorAdd(HS_COUPLE_LV,HI_COUNT_CHECK,pCouple->GetLevel());

  00156	6a 00		 push	 0
  00158	8b cb		 mov	 ecx, ebx
  0015a	e8 00 00 00 00	 call	 ?GetLevel@CCouple@@QAEHH@Z ; CCouple::GetLevel
  0015f	50		 push	 eax
  00160	6a 02		 push	 2
  00162	6a 3f		 push	 63			; 0000003fH
  00164	8b ce		 mov	 ecx, esi
  00166	e8 00 00 00 00	 call	 ?SetHonorAdd@CMover@@QAEXHHH@Z ; CMover::SetHonorAdd
$LN6@OnAddCoupl:

; 291  : #endif	// __HONORABLE_TITLE			// ´ŢŔÎ
; 292  : 		}
; 293  : 	}
; 294  : }

  0016b	5e		 pop	 esi
  0016c	5b		 pop	 ebx
  0016d	8b e5		 mov	 esp, ebp
  0016f	5d		 pop	 ebp
  00170	c2 04 00	 ret	 4
?OnAddCoupleExperience@CCoupleHelper@@QAEXAAVCAr@@@Z ENDP ; CCoupleHelper::OnAddCoupleExperience
_TEXT	ENDS
; Function compile flags: /Ogtp
; File C:\IAGOS\server\v18\Source\Source\WorldServer\couplehelper.cpp
; File C:\Program Files\Microsoft Visual Studio\2022\Professional\VC\Tools\MSVC\14.44.35207\include\xtree
; File C:\IAGOS\server\v18\Source\Source\WorldServer\couplehelper.cpp
; File C:\Program Files\Microsoft Visual Studio\2022\Professional\VC\Tools\MSVC\14.44.35207\include\xtree
; File C:\Program Files\Microsoft Visual Studio\2022\Professional\VC\Tools\MSVC\14.44.35207\include\type_traits
; File C:\Program Files\Microsoft Visual Studio\2022\Professional\VC\Tools\MSVC\14.44.35207\include\xtree
; File C:\Program Files\Microsoft Visual Studio\2022\Professional\VC\Tools\MSVC\14.44.35207\include\type_traits
; File C:\Program Files\Microsoft Visual Studio\2022\Professional\VC\Tools\MSVC\14.44.35207\include\xtree
; File C:\IAGOS\server\v18\Source\Source\_Common\Project.h
; File C:\IAGOS\server\v18\Source\Source\WorldServer\couplehelper.cpp
; File C:\IAGOS\server\v18\Source\Source\_Common\Obj.h
; File C:\IAGOS\server\v18\Source\Source\WorldServer\couplehelper.cpp
; File C:\IAGOS\server\v18\Source\Source\_Common\Obj.h
; File C:\IAGOS\server\v18\Source\Source\WorldServer\couplehelper.cpp
; File C:\IAGOS\server\v18\Source\Source\_Common\Obj.h
; File C:\IAGOS\server\v18\Source\Source\WorldServer\couplehelper.cpp
;	COMDAT ?OnDecoupleResult@CCoupleHelper@@QAEXAAVCAr@@@Z
_TEXT	SEGMENT
_idPlayer$ = -12					; size = 4
_nResult$ = -8						; size = 4
_this$1$ = -4						; size = 4
_ar$ = 8						; size = 4
?OnDecoupleResult@CCoupleHelper@@QAEXAAVCAr@@@Z PROC	; CCoupleHelper::OnDecoupleResult, COMDAT
; _this$ = ecx

; 208  : {

  00000	55		 push	 ebp
  00001	8b ec		 mov	 ebp, esp
  00003	83 ec 0c	 sub	 esp, 12			; 0000000cH
  00006	53		 push	 ebx
  00007	56		 push	 esi
  00008	57		 push	 edi

; 209  : 	u_long idPlayer;
; 210  : 	int nResult;
; 211  : 	ar >> idPlayer >> nResult;

  00009	8d 45 f8	 lea	 eax, DWORD PTR _nResult$[ebp]
  0000c	89 4d fc	 mov	 DWORD PTR _this$1$[ebp], ecx
  0000f	8b 4d 08	 mov	 ecx, DWORD PTR _ar$[ebp]
  00012	50		 push	 eax
  00013	8d 45 f4	 lea	 eax, DWORD PTR _idPlayer$[ebp]
  00016	50		 push	 eax
  00017	e8 00 00 00 00	 call	 ??$?5K@CAr@@QAEAAV0@AAK@Z ; CAr::operator>><unsigned long>
  0001c	8b c8		 mov	 ecx, eax
  0001e	e8 00 00 00 00	 call	 ??$?5H@CAr@@QAEAAV0@AAH@Z ; CAr::operator>><int>

; 212  : 	election::OutputDebugString( "S: CCoupleHelper.OnDecoupleResult: %d, %d", idPlayer, nResult );

  00023	8b 5d f8	 mov	 ebx, DWORD PTR _nResult$[ebp]
  00026	8b 75 f4	 mov	 esi, DWORD PTR _idPlayer$[ebp]
  00029	53		 push	 ebx
  0002a	56		 push	 esi
  0002b	68 00 00 00 00	 push	 OFFSET ??_C@_0CK@FFJBDECI@S?3?5CCoupleHelper?4OnDecoupleResu@
  00030	e8 00 00 00 00	 call	 ?OutputDebugStringA@election@@YAXPBDZZ ; election::OutputDebugStringA
; File C:\Program Files\Microsoft Visual Studio\2022\Professional\VC\Tools\MSVC\14.44.35207\include\xtree

; 1630 :         _Tree_find_result<_Nodeptr> _Result{{_Scary->_Myhead->_Parent, _Tree_child::_Right}, _Scary->_Myhead};

  00035	8b 0d 28 00 00
	00		 mov	 ecx, DWORD PTR ?prj@@3VCProject@@A+40
; File C:\IAGOS\server\v18\Source\Source\WorldServer\couplehelper.cpp

; 212  : 	election::OutputDebugString( "S: CCoupleHelper.OnDecoupleResult: %d, %d", idPlayer, nResult );

  0003b	83 c4 0c	 add	 esp, 12			; 0000000cH
; File C:\Program Files\Microsoft Visual Studio\2022\Professional\VC\Tools\MSVC\14.44.35207\include\xtree

; 1630 :         _Tree_find_result<_Nodeptr> _Result{{_Scary->_Myhead->_Parent, _Tree_child::_Right}, _Scary->_Myhead};

  0003e	8b f9		 mov	 edi, ecx
  00040	8b 41 04	 mov	 eax, DWORD PTR [ecx+4]

; 1631 :         _Nodeptr _Trynode = _Result._Location._Parent;
; 1632 :         while (!_Trynode->_Isnil) {

  00043	80 78 0d 00	 cmp	 BYTE PTR [eax+13], 0
  00047	75 1b		 jne	 SHORT $LN23@OnDecouple
  00049	0f 1f 80 00 00
	00 00		 npad	 7
$LL22@OnDecouple:
; File C:\Program Files\Microsoft Visual Studio\2022\Professional\VC\Tools\MSVC\14.44.35207\include\type_traits

; 2380 :         return _Left < _Right;

  00050	39 70 10	 cmp	 DWORD PTR [eax+16], esi
; File C:\Program Files\Microsoft Visual Studio\2022\Professional\VC\Tools\MSVC\14.44.35207\include\xtree

; 1634 :             if (_DEBUG_LT_PRED(_Getcomp(), _Traits::_Kfn(_Trynode->_Myval), _Keyval)) {

  00053	73 05		 jae	 SHORT $LN24@OnDecouple

; 1635 :                 _Result._Location._Child = _Tree_child::_Right;
; 1636 :                 _Trynode                 = _Trynode->_Right;

  00055	8b 40 08	 mov	 eax, DWORD PTR [eax+8]

; 1637 :             } else {

  00058	eb 04		 jmp	 SHORT $LN25@OnDecouple
$LN24@OnDecouple:

; 1638 :                 _Result._Location._Child = _Tree_child::_Left;
; 1639 :                 _Result._Bound           = _Trynode;

  0005a	8b f8		 mov	 edi, eax

; 1640 :                 _Trynode                 = _Trynode->_Left;

  0005c	8b 00		 mov	 eax, DWORD PTR [eax]
$LN25@OnDecouple:

; 1631 :         _Nodeptr _Trynode = _Result._Location._Parent;
; 1632 :         while (!_Trynode->_Isnil) {

  0005e	80 78 0d 00	 cmp	 BYTE PTR [eax+13], 0
  00062	74 ec		 je	 SHORT $LL22@OnDecouple
$LN23@OnDecouple:

; 1624 :         return !_Bound->_Isnil && !_DEBUG_LT_PRED(_Getcomp(), _Keyval, _Traits::_Kfn(_Bound->_Myval));

  00064	80 7f 0d 00	 cmp	 BYTE PTR [edi+13], 0
  00068	75 05		 jne	 SHORT $LN19@OnDecouple
; File C:\Program Files\Microsoft Visual Studio\2022\Professional\VC\Tools\MSVC\14.44.35207\include\type_traits

; 2380 :         return _Left < _Right;

  0006a	3b 77 10	 cmp	 esi, DWORD PTR [edi+16]
; File C:\Program Files\Microsoft Visual Studio\2022\Professional\VC\Tools\MSVC\14.44.35207\include\xtree

; 1624 :         return !_Bound->_Isnil && !_DEBUG_LT_PRED(_Getcomp(), _Keyval, _Traits::_Kfn(_Bound->_Myval));

  0006d	73 02		 jae	 SHORT $LN18@OnDecouple
$LN19@OnDecouple:

; 1389 :         return _Get_scary()->_Myhead;

  0006f	8b f9		 mov	 edi, ecx
$LN18@OnDecouple:

; 37   :     _Tree_unchecked_const_iterator(_Nodeptr _Pnode, const _Mytree* _Plist) noexcept : _Ptr(_Pnode) {

  00071	3b f9		 cmp	 edi, ecx
; File C:\IAGOS\server\v18\Source\Source\_Common\Project.h

; 1436 : 	if( i != m_idPlayerToUserPtr.end() )

  00073	74 05		 je	 SHORT $LN14@OnDecouple

; 1437 : 		return i->second;

  00075	8b 7f 14	 mov	 edi, DWORD PTR [edi+20]
  00078	eb 02		 jmp	 SHORT $LN13@OnDecouple
$LN14@OnDecouple:

; 1438 : 	return NULL;

  0007a	33 ff		 xor	 edi, edi
$LN13@OnDecouple:
; File C:\IAGOS\server\v18\Source\Source\WorldServer\couplehelper.cpp

; 214  : 	if( nResult == 0 )

  0007c	85 db		 test	 ebx, ebx
  0007e	0f 85 e0 00 00
	00		 jne	 $LN2@OnDecouple

; 215  : 	{
; 216  : 		CCouple* pCouple	= m_pMgr->GetCouple( idPlayer );

  00084	8b 4d fc	 mov	 ecx, DWORD PTR _this$1$[ebp]
  00087	56		 push	 esi
  00088	8b 49 04	 mov	 ecx, DWORD PTR [ecx+4]
  0008b	e8 00 00 00 00	 call	 ?GetCouple@CCoupleMgr@@QAEPAVCCouple@@K@Z ; CCoupleMgr::GetCouple

; 217  : 		ASSERT( pCouple );
; 218  : 		if( !pCouple )

  00090	85 c0		 test	 eax, eax
  00092	0f 84 de 00 00
	00		 je	 $LN11@OnDecouple

; 219  : 			return;
; 220  : 		CUser* pPartner	= static_cast<CUser*>( prj.GetUserByID( pCouple->GetPartner( idPlayer ) ) );

  00098	56		 push	 esi
  00099	8b c8		 mov	 ecx, eax
  0009b	e8 00 00 00 00	 call	 ?GetPartner@CCouple@@QAEKK@Z ; CCouple::GetPartner
  000a0	50		 push	 eax
  000a1	b9 00 00 00 00	 mov	 ecx, OFFSET ?prj@@3VCProject@@A ; prj
  000a6	e8 00 00 00 00	 call	 ?GetUserByID@CProject@@QAEPAVCMover@@K@Z ; CProject::GetUserByID
  000ab	8b d8		 mov	 ebx, eax

; 221  : 		m_pMgr->Decouple( idPlayer );

  000ad	8b 45 fc	 mov	 eax, DWORD PTR _this$1$[ebp]
  000b0	56		 push	 esi
  000b1	8b 48 04	 mov	 ecx, DWORD PTR [eax+4]
  000b4	e8 00 00 00 00	 call	 ?Decouple@CCoupleMgr@@QAEHK@Z ; CCoupleMgr::Decouple
; File C:\IAGOS\server\v18\Source\Source\_Common\Obj.h

; 327  : 	return pObj && ( pObj->IsDelete() == FALSE ); 

  000b9	85 ff		 test	 edi, edi
  000bb	74 4d		 je	 SHORT $LN7@OnDecouple

; 180  : 	BOOL			IsDelete()	{ return (m_dwFlags & OBJ_FLAG_DELETE);  }

  000bd	f6 47 04 01	 test	 BYTE PTR [edi+4], 1

; 327  : 	return pObj && ( pObj->IsDelete() == FALSE ); 

  000c1	75 47		 jne	 SHORT $LN7@OnDecouple
; File C:\IAGOS\server\v18\Source\Source\WorldServer\couplehelper.cpp

; 224  : 			pUser->AddDecoupleResult();

  000c3	8b cf		 mov	 ecx, edi
  000c5	e8 00 00 00 00	 call	 ?AddDecoupleResult@CUser@@QAEXXZ ; CUser::AddDecoupleResult

; 225  : #if __VER >= 13 // __HONORABLE_TITLE			// ´ŢŔÎ
; 226  : 			int nIdx = CTitleManager::Instance()->GetIdx(HS_COUPLE_LV,HI_COUNT_CHECK);

  000ca	6a 02		 push	 2
  000cc	6a 3f		 push	 63			; 0000003fH
  000ce	e8 00 00 00 00	 call	 ?Instance@CTitleManager@@SAPAV1@XZ ; CTitleManager::Instance
  000d3	8b c8		 mov	 ecx, eax
  000d5	e8 00 00 00 00	 call	 ?GetIdx@CTitleManager@@QAEHHH@Z ; CTitleManager::GetIdx

; 227  : 			if( nIdx >= 0)

  000da	85 c0		 test	 eax, eax
  000dc	78 2c		 js	 SHORT $LN7@OnDecouple

; 228  : 			{	
; 229  : 				int nPrevLvl = pUser->GetHonorTitle(nIdx);

  000de	8b b4 87 78 08
	00 00		 mov	 esi, DWORD PTR [edi+eax*4+2168]

; 230  : 				pUser->SetHonorCount(nIdx,0);

  000e5	8b cf		 mov	 ecx, edi
  000e7	6a 00		 push	 0
  000e9	50		 push	 eax
  000ea	e8 00 00 00 00	 call	 ?SetHonorCount@CMover@@QAEXHH@Z ; CMover::SetHonorCount

; 231  : 				int nNeedCount = CTitleManager::Instance()->GetNeedCount(HS_COUPLE_LV,HI_COUNT_CHECK);

  000ef	6a 02		 push	 2
  000f1	6a 3f		 push	 63			; 0000003fH
  000f3	e8 00 00 00 00	 call	 ?Instance@CTitleManager@@SAPAV1@XZ ; CTitleManager::Instance
  000f8	8b c8		 mov	 ecx, eax
  000fa	e8 00 00 00 00	 call	 ?GetNeedCount@CTitleManager@@QAEHHH@Z ; CTitleManager::GetNeedCount

; 232  : 				if( nNeedCount >= nPrevLvl )

  000ff	3b c6		 cmp	 eax, esi
  00101	7c 07		 jl	 SHORT $LN7@OnDecouple

; 233  : 					pUser->AddHonorListAck();

  00103	8b cf		 mov	 ecx, edi
  00105	e8 00 00 00 00	 call	 ?AddHonorListAck@CUser@@QAEXXZ ; CUser::AddHonorListAck
$LN7@OnDecouple:
; File C:\IAGOS\server\v18\Source\Source\_Common\Obj.h

; 327  : 	return pObj && ( pObj->IsDelete() == FALSE ); 

  0010a	85 db		 test	 ebx, ebx
  0010c	74 68		 je	 SHORT $LN11@OnDecouple

; 180  : 	BOOL			IsDelete()	{ return (m_dwFlags & OBJ_FLAG_DELETE);  }

  0010e	f6 43 04 01	 test	 BYTE PTR [ebx+4], 1

; 327  : 	return pObj && ( pObj->IsDelete() == FALSE ); 

  00112	75 62		 jne	 SHORT $LN11@OnDecouple
; File C:\IAGOS\server\v18\Source\Source\WorldServer\couplehelper.cpp

; 239  : 			pPartner->AddDecoupleResult();

  00114	8b cb		 mov	 ecx, ebx
  00116	e8 00 00 00 00	 call	 ?AddDecoupleResult@CUser@@QAEXXZ ; CUser::AddDecoupleResult

; 240  : #if __VER >= 13 // __HONORABLE_TITLE			// ´ŢŔÎ
; 241  : 			int nIdx = CTitleManager::Instance()->GetIdx(HS_COUPLE_LV,HI_COUNT_CHECK);

  0011b	6a 02		 push	 2
  0011d	6a 3f		 push	 63			; 0000003fH
  0011f	e8 00 00 00 00	 call	 ?Instance@CTitleManager@@SAPAV1@XZ ; CTitleManager::Instance
  00124	8b c8		 mov	 ecx, eax
  00126	e8 00 00 00 00	 call	 ?GetIdx@CTitleManager@@QAEHHH@Z ; CTitleManager::GetIdx

; 242  : 			if( nIdx >= 0)

  0012b	85 c0		 test	 eax, eax
  0012d	78 47		 js	 SHORT $LN11@OnDecouple

; 243  : 			{	
; 244  : 				int nPrevLvl = pPartner->GetHonorTitle(nIdx);

  0012f	8b b4 83 78 08
	00 00		 mov	 esi, DWORD PTR [ebx+eax*4+2168]

; 245  : 				pPartner->SetHonorCount(nIdx,0);

  00136	8b cb		 mov	 ecx, ebx
  00138	6a 00		 push	 0
  0013a	50		 push	 eax
  0013b	e8 00 00 00 00	 call	 ?SetHonorCount@CMover@@QAEXHH@Z ; CMover::SetHonorCount

; 246  : 				int nNeedCount = CTitleManager::Instance()->GetNeedCount(HS_COUPLE_LV,HI_COUNT_CHECK);

  00140	6a 02		 push	 2
  00142	6a 3f		 push	 63			; 0000003fH
  00144	e8 00 00 00 00	 call	 ?Instance@CTitleManager@@SAPAV1@XZ ; CTitleManager::Instance
  00149	8b c8		 mov	 ecx, eax
  0014b	e8 00 00 00 00	 call	 ?GetNeedCount@CTitleManager@@QAEHHH@Z ; CTitleManager::GetNeedCount

; 247  : 				if( nNeedCount >= nPrevLvl )

  00150	3b c6		 cmp	 eax, esi
  00152	7c 22		 jl	 SHORT $LN11@OnDecouple

; 248  : 					pPartner->AddHonorListAck();

  00154	8b cb		 mov	 ecx, ebx
  00156	e8 00 00 00 00	 call	 ?AddHonorListAck@CUser@@QAEXXZ ; CUser::AddHonorListAck
  0015b	5f		 pop	 edi

; 257  : 	}
; 258  : }

  0015c	5e		 pop	 esi
  0015d	5b		 pop	 ebx
  0015e	8b e5		 mov	 esp, ebp
  00160	5d		 pop	 ebp
  00161	c2 04 00	 ret	 4
$LN2@OnDecouple:
; File C:\IAGOS\server\v18\Source\Source\_Common\Obj.h

; 327  : 	return pObj && ( pObj->IsDelete() == FALSE ); 

  00164	85 ff		 test	 edi, edi
  00166	74 0e		 je	 SHORT $LN11@OnDecouple

; 180  : 	BOOL			IsDelete()	{ return (m_dwFlags & OBJ_FLAG_DELETE);  }

  00168	f6 47 04 01	 test	 BYTE PTR [edi+4], 1

; 327  : 	return pObj && ( pObj->IsDelete() == FALSE ); 

  0016c	75 08		 jne	 SHORT $LN11@OnDecouple
; File C:\IAGOS\server\v18\Source\Source\WorldServer\couplehelper.cpp

; 256  : 			pUser->AddDefinedText( nResult );

  0016e	53		 push	 ebx
  0016f	8b cf		 mov	 ecx, edi
  00171	e8 00 00 00 00	 call	 ?AddDefinedText@CUser@@QAEXH@Z ; CUser::AddDefinedText
$LN11@OnDecouple:

; 257  : 	}
; 258  : }

  00176	5f		 pop	 edi
  00177	5e		 pop	 esi
  00178	5b		 pop	 ebx
  00179	8b e5		 mov	 esp, ebp
  0017b	5d		 pop	 ebp
  0017c	c2 04 00	 ret	 4
?OnDecoupleResult@CCoupleHelper@@QAEXAAVCAr@@@Z ENDP	; CCoupleHelper::OnDecoupleResult
_TEXT	ENDS
; Function compile flags: /Ogtp
; File C:\IAGOS\server\v18\Source\Source\WorldServer\couplehelper.cpp
;	COMDAT ?OnDecouple@CCoupleHelper@@QAEXPAVCUser@@@Z
_TEXT	SEGMENT
_pUser$ = 8						; size = 4
?OnDecouple@CCoupleHelper@@QAEXPAVCUser@@@Z PROC	; CCoupleHelper::OnDecouple, COMDAT
; _this$ = ecx

; 196  : {

  00000	55		 push	 ebp
  00001	8b ec		 mov	 ebp, esp
  00003	56		 push	 esi
  00004	57		 push	 edi

; 197  : 	election::OutputDebugString( "S: CCoupleHelper.OnDecouple" );

  00005	68 00 00 00 00	 push	 OFFSET ??_C@_0BM@JJPLMFOM@S?3?5CCoupleHelper?4OnDecouple@
  0000a	8b f9		 mov	 edi, ecx
  0000c	e8 00 00 00 00	 call	 ?OutputDebugStringA@election@@YAXPBDZZ ; election::OutputDebugStringA

; 198  : 	CCouple* pCouple	= m_pMgr->GetCouple( pUser->m_idPlayer );

  00011	8b 75 08	 mov	 esi, DWORD PTR _pUser$[ebp]
  00014	83 c4 04	 add	 esp, 4
  00017	8b 4f 04	 mov	 ecx, DWORD PTR [edi+4]
  0001a	ff b6 34 02 00
	00		 push	 DWORD PTR [esi+564]
  00020	e8 00 00 00 00	 call	 ?GetCouple@CCoupleMgr@@QAEPAVCCouple@@K@Z ; CCoupleMgr::GetCouple

; 199  : 	if( !pCouple )

  00025	85 c0		 test	 eax, eax
  00027	75 12		 jne	 SHORT $LN2@OnDecouple

; 200  : 	{
; 201  : 		pUser->AddDefinedText( TID_GAME_COUPLE_E05 );	// ÄżÇĂŔĚ ľĆ´Ő´Ď´Ů.

  00029	68 ce 0f 00 00	 push	 4046			; 00000fceH
  0002e	8b ce		 mov	 ecx, esi
  00030	e8 00 00 00 00	 call	 ?AddDefinedText@CUser@@QAEXH@Z ; CUser::AddDefinedText
  00035	5f		 pop	 edi

; 205  : }

  00036	5e		 pop	 esi
  00037	5d		 pop	 ebp
  00038	c2 04 00	 ret	 4
$LN2@OnDecouple:

; 202  : 		return;
; 203  : 	}
; 204  : 	m_pdpClient->SendDecouple( pUser->m_idPlayer );

  0003b	ff b6 34 02 00
	00		 push	 DWORD PTR [esi+564]
  00041	8b 4f 08	 mov	 ecx, DWORD PTR [edi+8]
  00044	e8 00 00 00 00	 call	 ?SendDecouple@CDPDatabaseClient@@QAEXK@Z ; CDPDatabaseClient::SendDecouple
  00049	5f		 pop	 edi

; 205  : }

  0004a	5e		 pop	 esi
  0004b	5d		 pop	 ebp
  0004c	c2 04 00	 ret	 4
?OnDecouple@CCoupleHelper@@QAEXPAVCUser@@@Z ENDP	; CCoupleHelper::OnDecouple
_TEXT	ENDS
; Function compile flags: /Ogtp
; File C:\IAGOS\server\v18\Source\Source\WorldServer\couplehelper.cpp
; File C:\Program Files\Microsoft Visual Studio\2022\Professional\VC\Tools\MSVC\14.44.35207\include\xtree
; File C:\IAGOS\server\v18\Source\Source\WorldServer\couplehelper.cpp
; File C:\Program Files\Microsoft Visual Studio\2022\Professional\VC\Tools\MSVC\14.44.35207\include\xtree
; File C:\Program Files\Microsoft Visual Studio\2022\Professional\VC\Tools\MSVC\14.44.35207\include\type_traits
; File C:\Program Files\Microsoft Visual Studio\2022\Professional\VC\Tools\MSVC\14.44.35207\include\xtree
; File C:\Program Files\Microsoft Visual Studio\2022\Professional\VC\Tools\MSVC\14.44.35207\include\type_traits
; File C:\Program Files\Microsoft Visual Studio\2022\Professional\VC\Tools\MSVC\14.44.35207\include\xtree
; File C:\IAGOS\server\v18\Source\Source\_Common\Project.h
; File C:\Program Files\Microsoft Visual Studio\2022\Professional\VC\Tools\MSVC\14.44.35207\include\xtree
; File C:\Program Files\Microsoft Visual Studio\2022\Professional\VC\Tools\MSVC\14.44.35207\include\type_traits
; File C:\Program Files\Microsoft Visual Studio\2022\Professional\VC\Tools\MSVC\14.44.35207\include\xtree
; File C:\Program Files\Microsoft Visual Studio\2022\Professional\VC\Tools\MSVC\14.44.35207\include\type_traits
; File C:\Program Files\Microsoft Visual Studio\2022\Professional\VC\Tools\MSVC\14.44.35207\include\xtree
; File C:\IAGOS\server\v18\Source\Source\_Common\Project.h
; File C:\IAGOS\server\v18\Source\Source\WorldServer\couplehelper.cpp
; File C:\IAGOS\server\v18\Source\Source\_Common\Obj.h
; File C:\IAGOS\server\v18\Source\Source\WorldServer\couplehelper.cpp
; File C:\IAGOS\server\v18\Source\Source\_Common\Obj.h
; File C:\IAGOS\server\v18\Source\Source\WorldServer\couplehelper.cpp
; File C:\IAGOS\server\v18\Source\Source\_Common\Obj.h
; File C:\IAGOS\server\v18\Source\Source\WorldServer\couplehelper.cpp
; File C:\IAGOS\server\v18\Source\Source\_Common\Obj.h
; File C:\IAGOS\server\v18\Source\Source\WorldServer\couplehelper.cpp
;	COMDAT ?OnCoupleResult@CCoupleHelper@@QAEXAAVCAr@@@Z
_TEXT	SEGMENT
_this$1$ = -16						; size = 4
_idProposer$ = -12					; size = 4
_idTarget$ = -8						; size = 4
$T3 = -8						; size = 4
_nResult$ = -4						; size = 4
_ar$ = 8						; size = 4
_pszProposer$2$ = 8					; size = 4
tv843 = 11						; size = 1
?OnCoupleResult@CCoupleHelper@@QAEXAAVCAr@@@Z PROC	; CCoupleHelper::OnCoupleResult, COMDAT
; _this$ = ecx

; 159  : {

  00000	55		 push	 ebp
  00001	8b ec		 mov	 ebp, esp
  00003	83 ec 10	 sub	 esp, 16			; 00000010H
  00006	53		 push	 ebx
  00007	56		 push	 esi
  00008	57		 push	 edi

; 160  : 	u_long idProposer, idTarget;
; 161  : 	int nResult;
; 162  : 	ar >> idProposer >> idTarget >> nResult;

  00009	8d 45 fc	 lea	 eax, DWORD PTR _nResult$[ebp]
  0000c	89 4d f0	 mov	 DWORD PTR _this$1$[ebp], ecx
  0000f	8b 4d 08	 mov	 ecx, DWORD PTR _ar$[ebp]
  00012	50		 push	 eax
  00013	8d 45 f8	 lea	 eax, DWORD PTR _idTarget$[ebp]
  00016	50		 push	 eax
  00017	8d 45 f4	 lea	 eax, DWORD PTR _idProposer$[ebp]
  0001a	50		 push	 eax
  0001b	e8 00 00 00 00	 call	 ??$?5K@CAr@@QAEAAV0@AAK@Z ; CAr::operator>><unsigned long>
  00020	8b c8		 mov	 ecx, eax
  00022	e8 00 00 00 00	 call	 ??$?5K@CAr@@QAEAAV0@AAK@Z ; CAr::operator>><unsigned long>
  00027	8b c8		 mov	 ecx, eax
  00029	e8 00 00 00 00	 call	 ??$?5H@CAr@@QAEAAV0@AAH@Z ; CAr::operator>><int>

; 163  : 	election::OutputDebugString( "S: CCoupleHelper.OnCoupleResult: %d, %d, %d", idProposer, idTarget, nResult );

  0002e	ff 75 fc	 push	 DWORD PTR _nResult$[ebp]
  00031	8b 5d f8	 mov	 ebx, DWORD PTR _idTarget$[ebp]
  00034	8b 75 f4	 mov	 esi, DWORD PTR _idProposer$[ebp]
  00037	53		 push	 ebx
  00038	56		 push	 esi
  00039	68 00 00 00 00	 push	 OFFSET ??_C@_0CM@GDLPIJML@S?3?5CCoupleHelper?4OnCoupleResult@
  0003e	e8 00 00 00 00	 call	 ?OutputDebugStringA@election@@YAXPBDZZ ; election::OutputDebugStringA
; File C:\Program Files\Microsoft Visual Studio\2022\Professional\VC\Tools\MSVC\14.44.35207\include\xtree

; 1630 :         _Tree_find_result<_Nodeptr> _Result{{_Scary->_Myhead->_Parent, _Tree_child::_Right}, _Scary->_Myhead};

  00043	8b 3d 28 00 00
	00		 mov	 edi, DWORD PTR ?prj@@3VCProject@@A+40
; File C:\IAGOS\server\v18\Source\Source\WorldServer\couplehelper.cpp

; 163  : 	election::OutputDebugString( "S: CCoupleHelper.OnCoupleResult: %d, %d, %d", idProposer, idTarget, nResult );

  00049	83 c4 10	 add	 esp, 16			; 00000010H
; File C:\Program Files\Microsoft Visual Studio\2022\Professional\VC\Tools\MSVC\14.44.35207\include\xtree

; 1630 :         _Tree_find_result<_Nodeptr> _Result{{_Scary->_Myhead->_Parent, _Tree_child::_Right}, _Scary->_Myhead};

  0004c	8b d7		 mov	 edx, edi
  0004e	8b 47 04	 mov	 eax, DWORD PTR [edi+4]

; 1632 :         while (!_Trynode->_Isnil) {

  00051	8a 48 0d	 mov	 cl, BYTE PTR [eax+13]
  00054	88 4d 0b	 mov	 BYTE PTR tv843[ebp], cl
  00057	84 c9		 test	 cl, cl
  00059	75 19		 jne	 SHORT $LN20@OnCoupleRe
  0005b	8b c8		 mov	 ecx, eax
  0005d	0f 1f 00	 npad	 3
$LL19@OnCoupleRe:
; File C:\Program Files\Microsoft Visual Studio\2022\Professional\VC\Tools\MSVC\14.44.35207\include\type_traits

; 2380 :         return _Left < _Right;

  00060	39 71 10	 cmp	 DWORD PTR [ecx+16], esi
; File C:\Program Files\Microsoft Visual Studio\2022\Professional\VC\Tools\MSVC\14.44.35207\include\xtree

; 1634 :             if (_DEBUG_LT_PRED(_Getcomp(), _Traits::_Kfn(_Trynode->_Myval), _Keyval)) {

  00063	73 05		 jae	 SHORT $LN21@OnCoupleRe

; 1635 :                 _Result._Location._Child = _Tree_child::_Right;
; 1636 :                 _Trynode                 = _Trynode->_Right;

  00065	8b 49 08	 mov	 ecx, DWORD PTR [ecx+8]

; 1637 :             } else {

  00068	eb 04		 jmp	 SHORT $LN22@OnCoupleRe
$LN21@OnCoupleRe:

; 1638 :                 _Result._Location._Child = _Tree_child::_Left;
; 1639 :                 _Result._Bound           = _Trynode;

  0006a	8b d1		 mov	 edx, ecx

; 1640 :                 _Trynode                 = _Trynode->_Left;

  0006c	8b 09		 mov	 ecx, DWORD PTR [ecx]
$LN22@OnCoupleRe:

; 1632 :         while (!_Trynode->_Isnil) {

  0006e	80 79 0d 00	 cmp	 BYTE PTR [ecx+13], 0
  00072	74 ec		 je	 SHORT $LL19@OnCoupleRe
$LN20@OnCoupleRe:

; 1624 :         return !_Bound->_Isnil && !_DEBUG_LT_PRED(_Getcomp(), _Keyval, _Traits::_Kfn(_Bound->_Myval));

  00074	80 7a 0d 00	 cmp	 BYTE PTR [edx+13], 0
  00078	75 05		 jne	 SHORT $LN16@OnCoupleRe
; File C:\Program Files\Microsoft Visual Studio\2022\Professional\VC\Tools\MSVC\14.44.35207\include\type_traits

; 2380 :         return _Left < _Right;

  0007a	3b 72 10	 cmp	 esi, DWORD PTR [edx+16]
; File C:\Program Files\Microsoft Visual Studio\2022\Professional\VC\Tools\MSVC\14.44.35207\include\xtree

; 1624 :         return !_Bound->_Isnil && !_DEBUG_LT_PRED(_Getcomp(), _Keyval, _Traits::_Kfn(_Bound->_Myval));

  0007d	73 02		 jae	 SHORT $LN15@OnCoupleRe
$LN16@OnCoupleRe:

; 1389 :         return _Get_scary()->_Myhead;

  0007f	8b d7		 mov	 edx, edi
$LN15@OnCoupleRe:

; 37   :     _Tree_unchecked_const_iterator(_Nodeptr _Pnode, const _Mytree* _Plist) noexcept : _Ptr(_Pnode) {

  00081	3b d7		 cmp	 edx, edi
; File C:\IAGOS\server\v18\Source\Source\_Common\Project.h

; 1436 : 	if( i != m_idPlayerToUserPtr.end() )

  00083	74 05		 je	 SHORT $LN11@OnCoupleRe

; 1437 : 		return i->second;

  00085	8b 4a 14	 mov	 ecx, DWORD PTR [edx+20]
  00088	eb 02		 jmp	 SHORT $LN175@OnCoupleRe
$LN11@OnCoupleRe:

; 1438 : 	return NULL;

  0008a	33 c9		 xor	 ecx, ecx
$LN175@OnCoupleRe:
; File C:\Program Files\Microsoft Visual Studio\2022\Professional\VC\Tools\MSVC\14.44.35207\include\xtree

; 1632 :         while (!_Trynode->_Isnil) {

  0008c	80 7d 0b 00	 cmp	 BYTE PTR tv843[ebp], 0
  00090	89 4d f8	 mov	 DWORD PTR $T3[ebp], ecx
  00093	75 14		 jne	 SHORT $LN80@OnCoupleRe
$LL79@OnCoupleRe:
; File C:\Program Files\Microsoft Visual Studio\2022\Professional\VC\Tools\MSVC\14.44.35207\include\type_traits

; 2380 :         return _Left < _Right;

  00095	39 58 10	 cmp	 DWORD PTR [eax+16], ebx
; File C:\Program Files\Microsoft Visual Studio\2022\Professional\VC\Tools\MSVC\14.44.35207\include\xtree

; 1634 :             if (_DEBUG_LT_PRED(_Getcomp(), _Traits::_Kfn(_Trynode->_Myval), _Keyval)) {

  00098	73 05		 jae	 SHORT $LN81@OnCoupleRe

; 1635 :                 _Result._Location._Child = _Tree_child::_Right;
; 1636 :                 _Trynode                 = _Trynode->_Right;

  0009a	8b 40 08	 mov	 eax, DWORD PTR [eax+8]

; 1637 :             } else {

  0009d	eb 04		 jmp	 SHORT $LN82@OnCoupleRe
$LN81@OnCoupleRe:

; 1638 :                 _Result._Location._Child = _Tree_child::_Left;
; 1639 :                 _Result._Bound           = _Trynode;

  0009f	8b f8		 mov	 edi, eax

; 1640 :                 _Trynode                 = _Trynode->_Left;

  000a1	8b 00		 mov	 eax, DWORD PTR [eax]
$LN82@OnCoupleRe:

; 1632 :         while (!_Trynode->_Isnil) {

  000a3	80 78 0d 00	 cmp	 BYTE PTR [eax+13], 0
  000a7	74 ec		 je	 SHORT $LL79@OnCoupleRe
$LN80@OnCoupleRe:

; 1624 :         return !_Bound->_Isnil && !_DEBUG_LT_PRED(_Getcomp(), _Keyval, _Traits::_Kfn(_Bound->_Myval));

  000a9	80 7f 0d 00	 cmp	 BYTE PTR [edi+13], 0
  000ad	75 0c		 jne	 SHORT $LN76@OnCoupleRe
; File C:\Program Files\Microsoft Visual Studio\2022\Professional\VC\Tools\MSVC\14.44.35207\include\type_traits

; 2380 :         return _Left < _Right;

  000af	3b 5f 10	 cmp	 ebx, DWORD PTR [edi+16]
; File C:\Program Files\Microsoft Visual Studio\2022\Professional\VC\Tools\MSVC\14.44.35207\include\xtree

; 1624 :         return !_Bound->_Isnil && !_DEBUG_LT_PRED(_Getcomp(), _Keyval, _Traits::_Kfn(_Bound->_Myval));

  000b2	72 07		 jb	 SHORT $LN76@OnCoupleRe

; 1386 :             return _Loc._Bound;

  000b4	a1 28 00 00 00	 mov	 eax, DWORD PTR ?prj@@3VCProject@@A+40
  000b9	eb 07		 jmp	 SHORT $LN75@OnCoupleRe
$LN76@OnCoupleRe:

; 1387 :         }
; 1388 : 
; 1389 :         return _Get_scary()->_Myhead;

  000bb	a1 28 00 00 00	 mov	 eax, DWORD PTR ?prj@@3VCProject@@A+40
  000c0	8b f8		 mov	 edi, eax
$LN75@OnCoupleRe:

; 37   :     _Tree_unchecked_const_iterator(_Nodeptr _Pnode, const _Mytree* _Plist) noexcept : _Ptr(_Pnode) {

  000c2	3b f8		 cmp	 edi, eax
; File C:\IAGOS\server\v18\Source\Source\_Common\Project.h

; 1436 : 	if( i != m_idPlayerToUserPtr.end() )

  000c4	74 05		 je	 SHORT $LN71@OnCoupleRe

; 1437 : 		return i->second;

  000c6	8b 7f 14	 mov	 edi, DWORD PTR [edi+20]
  000c9	eb 02		 jmp	 SHORT $LN70@OnCoupleRe
$LN71@OnCoupleRe:

; 1438 : 	return NULL;

  000cb	33 ff		 xor	 edi, edi
$LN70@OnCoupleRe:
; File C:\IAGOS\server\v18\Source\Source\WorldServer\couplehelper.cpp

; 166  : 	if( nResult == 0 )

  000cd	8b 45 fc	 mov	 eax, DWORD PTR _nResult$[ebp]
  000d0	85 c0		 test	 eax, eax
  000d2	0f 85 8e 00 00
	00		 jne	 $LN2@OnCoupleRe

; 167  : 	{
; 168  : 		m_pMgr->Couple( idProposer, idTarget );

  000d8	8b 4d f0	 mov	 ecx, DWORD PTR _this$1$[ebp]
  000db	53		 push	 ebx
  000dc	56		 push	 esi
  000dd	8b 49 04	 mov	 ecx, DWORD PTR [ecx+4]
  000e0	e8 00 00 00 00	 call	 ?Couple@CCoupleMgr@@QAEXKK@Z ; CCoupleMgr::Couple

; 169  : 		const char* pszProposer	= CPlayerDataCenter::GetInstance()->GetPlayerString( idProposer );

  000e5	56		 push	 esi
  000e6	e8 00 00 00 00	 call	 ?GetInstance@CPlayerDataCenter@@SAPAV1@XZ ; CPlayerDataCenter::GetInstance
  000eb	8b c8		 mov	 ecx, eax
  000ed	e8 00 00 00 00	 call	 ?GetPlayerString@CPlayerDataCenter@@QAEPBDK@Z ; CPlayerDataCenter::GetPlayerString

; 170  : 		const char* pszTarget	= CPlayerDataCenter::GetInstance()->GetPlayerString( idTarget );

  000f2	53		 push	 ebx
  000f3	8b f0		 mov	 esi, eax
  000f5	e8 00 00 00 00	 call	 ?GetInstance@CPlayerDataCenter@@SAPAV1@XZ ; CPlayerDataCenter::GetInstance
  000fa	8b c8		 mov	 ecx, eax
  000fc	e8 00 00 00 00	 call	 ?GetPlayerString@CPlayerDataCenter@@QAEPBDK@Z ; CPlayerDataCenter::GetPlayerString

; 171  : 		if( !pszProposer )	pszProposer	= "";

  00101	85 f6		 test	 esi, esi
  00103	b9 00 00 00 00	 mov	 ecx, OFFSET ??_C@_00CNPNBAHC@@
  00108	8b d1		 mov	 edx, ecx
  0010a	0f 45 d6	 cmovne	 edx, esi
; File C:\IAGOS\server\v18\Source\Source\_Common\Obj.h

; 327  : 	return pObj && ( pObj->IsDelete() == FALSE ); 

  0010d	8b 75 f8	 mov	 esi, DWORD PTR $T3[ebp]
; File C:\IAGOS\server\v18\Source\Source\WorldServer\couplehelper.cpp

; 172  : 		if( !pszTarget )	pszTarget	= "";

  00110	85 c0		 test	 eax, eax
  00112	89 55 08	 mov	 DWORD PTR _pszProposer$2$[ebp], edx
  00115	0f 45 c8	 cmovne	 ecx, eax
; File C:\IAGOS\server\v18\Source\Source\_Common\Obj.h

; 327  : 	return pObj && ( pObj->IsDelete() == FALSE ); 

  00118	85 f6		 test	 esi, esi
  0011a	74 1f		 je	 SHORT $LN6@OnCoupleRe

; 180  : 	BOOL			IsDelete()	{ return (m_dwFlags & OBJ_FLAG_DELETE);  }

  0011c	f6 46 04 01	 test	 BYTE PTR [esi+4], 1

; 327  : 	return pObj && ( pObj->IsDelete() == FALSE ); 

  00120	75 19		 jne	 SHORT $LN6@OnCoupleRe
; File C:\IAGOS\server\v18\Source\Source\WorldServer\couplehelper.cpp

; 175  : 			pProposer->AddCoupleResult( idTarget, pszTarget );

  00122	51		 push	 ecx
  00123	53		 push	 ebx
  00124	8b ce		 mov	 ecx, esi
  00126	e8 00 00 00 00	 call	 ?AddCoupleResult@CUser@@QAEXKPBD@Z ; CUser::AddCoupleResult

; 176  : #if __VER >= 13 // __HONORABLE_TITLE			// ´ŢŔÎ
; 177  : 			pProposer->SetHonorAdd(	HS_COUPLE_COUNT,HI_COUNT_CHECK );

  0012b	6a 00		 push	 0
  0012d	6a 02		 push	 2
  0012f	6a 3e		 push	 62			; 0000003eH
  00131	8b ce		 mov	 ecx, esi
  00133	e8 00 00 00 00	 call	 ?SetHonorAdd@CMover@@QAEXHHH@Z ; CMover::SetHonorAdd
  00138	8b 55 08	 mov	 edx, DWORD PTR _pszProposer$2$[ebp]
$LN6@OnCoupleRe:
; File C:\IAGOS\server\v18\Source\Source\_Common\Obj.h

; 327  : 	return pObj && ( pObj->IsDelete() == FALSE ); 

  0013b	85 ff		 test	 edi, edi
  0013d	74 39		 je	 SHORT $LN8@OnCoupleRe

; 180  : 	BOOL			IsDelete()	{ return (m_dwFlags & OBJ_FLAG_DELETE);  }

  0013f	f6 47 04 01	 test	 BYTE PTR [edi+4], 1

; 327  : 	return pObj && ( pObj->IsDelete() == FALSE ); 

  00143	75 33		 jne	 SHORT $LN8@OnCoupleRe
; File C:\IAGOS\server\v18\Source\Source\WorldServer\couplehelper.cpp

; 182  : 			pTarget->AddCoupleResult( idProposer, pszProposer );

  00145	52		 push	 edx
  00146	ff 75 f4	 push	 DWORD PTR _idProposer$[ebp]
  00149	8b cf		 mov	 ecx, edi
  0014b	e8 00 00 00 00	 call	 ?AddCoupleResult@CUser@@QAEXKPBD@Z ; CUser::AddCoupleResult

; 183  : #if __VER >= 13 // __HONORABLE_TITLE			// ´ŢŔÎ
; 184  : 			pTarget->SetHonorAdd(HS_COUPLE_COUNT,HI_COUNT_CHECK );

  00150	6a 00		 push	 0
  00152	6a 02		 push	 2
  00154	6a 3e		 push	 62			; 0000003eH
  00156	8b cf		 mov	 ecx, edi
  00158	e8 00 00 00 00	 call	 ?SetHonorAdd@CMover@@QAEXHHH@Z ; CMover::SetHonorAdd
  0015d	5f		 pop	 edi

; 192  : 	}
; 193  : }

  0015e	5e		 pop	 esi
  0015f	5b		 pop	 ebx
  00160	8b e5		 mov	 esp, ebp
  00162	5d		 pop	 ebp
  00163	c2 04 00	 ret	 4
$LN2@OnCoupleRe:
; File C:\IAGOS\server\v18\Source\Source\_Common\Obj.h

; 327  : 	return pObj && ( pObj->IsDelete() == FALSE ); 

  00166	85 ff		 test	 edi, edi
  00168	74 0e		 je	 SHORT $LN8@OnCoupleRe

; 180  : 	BOOL			IsDelete()	{ return (m_dwFlags & OBJ_FLAG_DELETE);  }

  0016a	f6 47 04 01	 test	 BYTE PTR [edi+4], 1

; 327  : 	return pObj && ( pObj->IsDelete() == FALSE ); 

  0016e	75 08		 jne	 SHORT $LN8@OnCoupleRe
; File C:\IAGOS\server\v18\Source\Source\WorldServer\couplehelper.cpp

; 191  : 			pTarget->AddDefinedText( nResult );

  00170	50		 push	 eax
  00171	8b cf		 mov	 ecx, edi
  00173	e8 00 00 00 00	 call	 ?AddDefinedText@CUser@@QAEXH@Z ; CUser::AddDefinedText
$LN8@OnCoupleRe:

; 192  : 	}
; 193  : }

  00178	5f		 pop	 edi
  00179	5e		 pop	 esi
  0017a	5b		 pop	 ebx
  0017b	8b e5		 mov	 esp, ebp
  0017d	5d		 pop	 ebp
  0017e	c2 04 00	 ret	 4
?OnCoupleResult@CCoupleHelper@@QAEXAAVCAr@@@Z ENDP	; CCoupleHelper::OnCoupleResult
_TEXT	ENDS
; Function compile flags: /Ogtp
; File C:\IAGOS\server\v18\Source\Source\WorldServer\couplehelper.cpp
;	COMDAT ?OnCouple@CCoupleHelper@@QAEXPAVCUser@@@Z
_TEXT	SEGMENT
_pUser$ = 8						; size = 4
?OnCouple@CCoupleHelper@@QAEXPAVCUser@@@Z PROC		; CCoupleHelper::OnCouple, COMDAT
; _this$ = ecx

; 148  : {

  00000	55		 push	 ebp
  00001	8b ec		 mov	 ebp, esp
  00003	56		 push	 esi

; 149  : 	election::OutputDebugString( "S: CCoupleHelper.OnCouple" );

  00004	68 00 00 00 00	 push	 OFFSET ??_C@_0BK@BFPGCGKN@S?3?5CCoupleHelper?4OnCouple@
  00009	8b f1		 mov	 esi, ecx
  0000b	e8 00 00 00 00	 call	 ?OutputDebugStringA@election@@YAXPBDZZ ; election::OutputDebugStringA

; 150  : 	if( pUser->GetProposer() == 0 )

  00010	8b 45 08	 mov	 eax, DWORD PTR _pUser$[ebp]
  00013	83 c4 04	 add	 esp, 4
  00016	8b 90 b0 8f 00
	00		 mov	 edx, DWORD PTR [eax+36784]
  0001c	85 d2		 test	 edx, edx
  0001e	75 10		 jne	 SHORT $LN2@OnCouple
  00020	5e		 pop	 esi

; 151  : 	{
; 152  : 		pUser->AddDefinedText( TID_GAME_COUPLE_E02 );	// ¸ŐŔú ÇÁ·ŻĆ÷Áî¸¦ ąŢľĆľß ÇŐ´Ď´Ů.

  00021	c7 45 08 cb 0f
	00 00		 mov	 DWORD PTR _pUser$[ebp], 4043 ; 00000fcbH
  00028	8b c8		 mov	 ecx, eax

; 156  : }

  0002a	5d		 pop	 ebp

; 151  : 	{
; 152  : 		pUser->AddDefinedText( TID_GAME_COUPLE_E02 );	// ¸ŐŔú ÇÁ·ŻĆ÷Áî¸¦ ąŢľĆľß ÇŐ´Ď´Ů.

  0002b	e9 00 00 00 00	 jmp	 ?AddDefinedText@CUser@@QAEXH@Z ; CUser::AddDefinedText
$LN2@OnCouple:

; 153  : 		return;
; 154  : 	}
; 155  : 	m_pdpClient->SendCouple( pUser->GetProposer(), pUser->m_idPlayer );

  00030	ff b0 34 02 00
	00		 push	 DWORD PTR [eax+564]
  00036	8b 4e 08	 mov	 ecx, DWORD PTR [esi+8]
  00039	52		 push	 edx
  0003a	e8 00 00 00 00	 call	 ?SendCouple@CDPDatabaseClient@@QAEXKK@Z ; CDPDatabaseClient::SendCouple
  0003f	5e		 pop	 esi

; 156  : }

  00040	5d		 pop	 ebp
  00041	c2 04 00	 ret	 4
?OnCouple@CCoupleHelper@@QAEXPAVCUser@@@Z ENDP		; CCoupleHelper::OnCouple
_TEXT	ENDS
; Function compile flags: /Ogtp
; File C:\IAGOS\server\v18\Source\Source\WorldServer\couplehelper.cpp
; File C:\Program Files\Microsoft Visual Studio\2022\Professional\VC\Tools\MSVC\14.44.35207\include\xtree
; File C:\Program Files\Microsoft Visual Studio\2022\Professional\VC\Tools\MSVC\14.44.35207\include\type_traits
; File C:\Program Files\Microsoft Visual Studio\2022\Professional\VC\Tools\MSVC\14.44.35207\include\xtree
; File C:\Program Files\Microsoft Visual Studio\2022\Professional\VC\Tools\MSVC\14.44.35207\include\type_traits
; File C:\Program Files\Microsoft Visual Studio\2022\Professional\VC\Tools\MSVC\14.44.35207\include\xtree
; File C:\IAGOS\server\v18\Source\Source\_Common\Project.h
; File C:\IAGOS\server\v18\Source\Source\_Common\Obj.h
; File C:\IAGOS\server\v18\Source\Source\WorldServer\couplehelper.cpp
;	COMDAT ?OnRefuse@CCoupleHelper@@QAEXPAVCUser@@@Z
_TEXT	SEGMENT
_pUser$ = 8						; size = 4
?OnRefuse@CCoupleHelper@@QAEXPAVCUser@@@Z PROC		; CCoupleHelper::OnRefuse, COMDAT
; _this$ = ecx

; 131  : {

  00000	55		 push	 ebp
  00001	8b ec		 mov	 ebp, esp
  00003	56		 push	 esi

; 132  : 	election::OutputDebugString( "S: CCoupleHelper.OnRefuse" );

  00004	68 00 00 00 00	 push	 OFFSET ??_C@_0BK@HCCAGLJM@S?3?5CCoupleHelper?4OnRefuse@
  00009	e8 00 00 00 00	 call	 ?OutputDebugStringA@election@@YAXPBDZZ ; election::OutputDebugStringA

; 133  : 	if( pUser->GetProposer() == 0 )

  0000e	8b 75 08	 mov	 esi, DWORD PTR _pUser$[ebp]
  00011	83 c4 04	 add	 esp, 4
  00014	8b 96 b0 8f 00
	00		 mov	 edx, DWORD PTR [esi+36784]
  0001a	85 d2		 test	 edx, edx
  0001c	75 11		 jne	 SHORT $LN2@OnRefuse

; 134  : 	{
; 135  : 		pUser->AddDefinedText( TID_GAME_COUPLE_E02 );	// ¸ŐŔú ÇÁ·ŻĆ÷Áî¸¦ ąŢľĆľß ÇŐ´Ď´Ů.

  0001e	68 cb 0f 00 00	 push	 4043			; 00000fcbH
  00023	8b ce		 mov	 ecx, esi
  00025	e8 00 00 00 00	 call	 ?AddDefinedText@CUser@@QAEXH@Z ; CUser::AddDefinedText
  0002a	5e		 pop	 esi

; 145  : }

  0002b	5d		 pop	 ebp
  0002c	c2 04 00	 ret	 4
$LN2@OnRefuse:
  0002f	57		 push	 edi
; File C:\Program Files\Microsoft Visual Studio\2022\Professional\VC\Tools\MSVC\14.44.35207\include\xtree

; 1630 :         _Tree_find_result<_Nodeptr> _Result{{_Scary->_Myhead->_Parent, _Tree_child::_Right}, _Scary->_Myhead};

  00030	8b 3d 28 00 00
	00		 mov	 edi, DWORD PTR ?prj@@3VCProject@@A+40
  00036	8b cf		 mov	 ecx, edi
  00038	8b 47 04	 mov	 eax, DWORD PTR [edi+4]

; 1631 :         _Nodeptr _Trynode = _Result._Location._Parent;
; 1632 :         while (!_Trynode->_Isnil) {

  0003b	80 78 0d 00	 cmp	 BYTE PTR [eax+13], 0
  0003f	75 14		 jne	 SHORT $LN16@OnRefuse
$LL15@OnRefuse:
; File C:\Program Files\Microsoft Visual Studio\2022\Professional\VC\Tools\MSVC\14.44.35207\include\type_traits

; 2380 :         return _Left < _Right;

  00041	39 50 10	 cmp	 DWORD PTR [eax+16], edx
; File C:\Program Files\Microsoft Visual Studio\2022\Professional\VC\Tools\MSVC\14.44.35207\include\xtree

; 1634 :             if (_DEBUG_LT_PRED(_Getcomp(), _Traits::_Kfn(_Trynode->_Myval), _Keyval)) {

  00044	73 05		 jae	 SHORT $LN17@OnRefuse

; 1635 :                 _Result._Location._Child = _Tree_child::_Right;
; 1636 :                 _Trynode                 = _Trynode->_Right;

  00046	8b 40 08	 mov	 eax, DWORD PTR [eax+8]

; 1637 :             } else {

  00049	eb 04		 jmp	 SHORT $LN18@OnRefuse
$LN17@OnRefuse:

; 1638 :                 _Result._Location._Child = _Tree_child::_Left;
; 1639 :                 _Result._Bound           = _Trynode;

  0004b	8b c8		 mov	 ecx, eax

; 1640 :                 _Trynode                 = _Trynode->_Left;

  0004d	8b 00		 mov	 eax, DWORD PTR [eax]
$LN18@OnRefuse:

; 1631 :         _Nodeptr _Trynode = _Result._Location._Parent;
; 1632 :         while (!_Trynode->_Isnil) {

  0004f	80 78 0d 00	 cmp	 BYTE PTR [eax+13], 0
  00053	74 ec		 je	 SHORT $LL15@OnRefuse
$LN16@OnRefuse:

; 1624 :         return !_Bound->_Isnil && !_DEBUG_LT_PRED(_Getcomp(), _Keyval, _Traits::_Kfn(_Bound->_Myval));

  00055	80 79 0d 00	 cmp	 BYTE PTR [ecx+13], 0
  00059	75 05		 jne	 SHORT $LN12@OnRefuse
; File C:\Program Files\Microsoft Visual Studio\2022\Professional\VC\Tools\MSVC\14.44.35207\include\type_traits

; 2380 :         return _Left < _Right;

  0005b	3b 51 10	 cmp	 edx, DWORD PTR [ecx+16]
; File C:\Program Files\Microsoft Visual Studio\2022\Professional\VC\Tools\MSVC\14.44.35207\include\xtree

; 1624 :         return !_Bound->_Isnil && !_DEBUG_LT_PRED(_Getcomp(), _Keyval, _Traits::_Kfn(_Bound->_Myval));

  0005e	73 02		 jae	 SHORT $LN11@OnRefuse
$LN12@OnRefuse:

; 1389 :         return _Get_scary()->_Myhead;

  00060	8b cf		 mov	 ecx, edi
$LN11@OnRefuse:

; 37   :     _Tree_unchecked_const_iterator(_Nodeptr _Pnode, const _Mytree* _Plist) noexcept : _Ptr(_Pnode) {

  00062	3b cf		 cmp	 ecx, edi
  00064	5f		 pop	 edi
; File C:\IAGOS\server\v18\Source\Source\_Common\Project.h

; 1436 : 	if( i != m_idPlayerToUserPtr.end() )

  00065	74 17		 je	 SHORT $LN3@OnRefuse

; 1437 : 		return i->second;

  00067	8b 49 14	 mov	 ecx, DWORD PTR [ecx+20]
; File C:\IAGOS\server\v18\Source\Source\_Common\Obj.h

; 327  : 	return pObj && ( pObj->IsDelete() == FALSE ); 

  0006a	85 c9		 test	 ecx, ecx
  0006c	74 10		 je	 SHORT $LN3@OnRefuse

; 180  : 	BOOL			IsDelete()	{ return (m_dwFlags & OBJ_FLAG_DELETE);  }

  0006e	f6 41 04 01	 test	 BYTE PTR [ecx+4], 1

; 327  : 	return pObj && ( pObj->IsDelete() == FALSE ); 

  00072	75 0a		 jne	 SHORT $LN3@OnRefuse
; File C:\IAGOS\server\v18\Source\Source\WorldServer\couplehelper.cpp

; 140  : 		pProposer->AddDefinedText( TID_GAME_COUPLE_E03 );	// »ó´ëąćŔĚ ÇÁ·ŻĆ÷Áî¸¦ °ĹŔý ÇĎż´˝Ŕ´Ď´Ů. 

  00074	68 cc 0f 00 00	 push	 4044			; 00000fccH
  00079	e8 00 00 00 00	 call	 ?AddDefinedText@CUser@@QAEXH@Z ; CUser::AddDefinedText
$LN3@OnRefuse:

; 141  : 	const char* pszProposer	= CPlayerDataCenter::GetInstance()->GetPlayerString( pUser->GetProposer() );

  0007e	ff b6 b0 8f 00
	00		 push	 DWORD PTR [esi+36784]
  00084	e8 00 00 00 00	 call	 ?GetInstance@CPlayerDataCenter@@SAPAV1@XZ ; CPlayerDataCenter::GetInstance
  00089	8b c8		 mov	 ecx, eax
  0008b	e8 00 00 00 00	 call	 ?GetPlayerString@CPlayerDataCenter@@QAEPBDK@Z ; CPlayerDataCenter::GetPlayerString

; 142  : 	if( pszProposer )

  00090	85 c0		 test	 eax, eax
  00092	74 14		 je	 SHORT $LN4@OnRefuse

; 143  : 		pUser->AddDefinedText( TID_GAME_COUPLE_E04, "%s", pszProposer );	// %s´ÔŔÇ ÇÁ·ŻĆ÷Áî¸¦ °ĹŔý ÇĎż´˝Ŕ´Ď´Ů.

  00094	50		 push	 eax
  00095	68 00 00 00 00	 push	 OFFSET ??_C@_02DKCKIIND@?$CFs@
  0009a	68 cd 0f 00 00	 push	 4045			; 00000fcdH
  0009f	56		 push	 esi
  000a0	e8 00 00 00 00	 call	 ?AddDefinedText@CUser@@QAAXHPBDZZ ; CUser::AddDefinedText
  000a5	83 c4 10	 add	 esp, 16			; 00000010H
$LN4@OnRefuse:

; 144  : 	pUser->SetProposer( 0 );

  000a8	c7 86 b0 8f 00
	00 00 00 00 00	 mov	 DWORD PTR [esi+36784], 0
  000b2	5e		 pop	 esi

; 145  : }

  000b3	5d		 pop	 ebp
  000b4	c2 04 00	 ret	 4
?OnRefuse@CCoupleHelper@@QAEXPAVCUser@@@Z ENDP		; CCoupleHelper::OnRefuse
_TEXT	ENDS
; Function compile flags: /Ogtp
; File C:\IAGOS\server\v18\Source\Source\WorldServer\couplehelper.cpp
; File C:\Program Files\Microsoft Visual Studio\2022\Professional\VC\Tools\MSVC\14.44.35207\include\xtree
; File C:\IAGOS\server\v18\Source\Source\WorldServer\couplehelper.cpp
; File C:\Program Files\Microsoft Visual Studio\2022\Professional\VC\Tools\MSVC\14.44.35207\include\xtree
; File C:\Program Files\Microsoft Visual Studio\2022\Professional\VC\Tools\MSVC\14.44.35207\include\type_traits
; File C:\Program Files\Microsoft Visual Studio\2022\Professional\VC\Tools\MSVC\14.44.35207\include\xtree
; File C:\Program Files\Microsoft Visual Studio\2022\Professional\VC\Tools\MSVC\14.44.35207\include\type_traits
; File C:\Program Files\Microsoft Visual Studio\2022\Professional\VC\Tools\MSVC\14.44.35207\include\xtree
; File C:\IAGOS\server\v18\Source\Source\_Common\Project.h
; File C:\IAGOS\server\v18\Source\Source\_Common\Obj.h
; File C:\IAGOS\server\v18\Source\Source\WorldServer\couplehelper.cpp
; File C:\IAGOS\server\v18\Source\Source\_Common\Obj.h
; File C:\IAGOS\server\v18\Source\Source\WorldServer\couplehelper.cpp
; File C:\Program Files\Microsoft Visual Studio\2022\Professional\VC\Tools\MSVC\14.44.35207\atlmfc\include\atltime.h
; File C:\IAGOS\server\v18\Source\Source\WorldServer\couplehelper.cpp
; File C:\Program Files\Microsoft Visual Studio\2022\Professional\VC\Tools\MSVC\14.44.35207\atlmfc\include\atltime.h
; File C:\IAGOS\server\v18\Source\Source\_Common\Project.h
; File C:\IAGOS\server\v18\Source\Source\_Common\data.h
; File C:\IAGOS\server\v18\Source\Source\_Common\Project.h
; File C:\IAGOS\server\v18\Source\Source\WorldServer\couplehelper.cpp
;	COMDAT ?OnProposeResult@CCoupleHelper@@QAEXAAVCAr@@@Z
_TEXT	SEGMENT
_idProposer$ = -224					; size = 4
_nResult$ = -220					; size = 4
_this$1$ = -216						; size = 4
tv634 = -216						; size = 4
_idTarget$ = -212					; size = 4
_t$ = -208						; size = 4
tv633 = -208						; size = 4
_szText$2 = -204					; size = 200
__$ArrayPad$ = -4					; size = 4
_ar$ = 8						; size = 4
?OnProposeResult@CCoupleHelper@@QAEXAAVCAr@@@Z PROC	; CCoupleHelper::OnProposeResult, COMDAT
; _this$ = ecx

; 90   : {

  00000	55		 push	 ebp
  00001	8b ec		 mov	 ebp, esp
  00003	81 ec e0 00 00
	00		 sub	 esp, 224		; 000000e0H
  00009	a1 00 00 00 00	 mov	 eax, DWORD PTR ___security_cookie
  0000e	33 c5		 xor	 eax, ebp
  00010	89 45 fc	 mov	 DWORD PTR __$ArrayPad$[ebp], eax
  00013	53		 push	 ebx
  00014	56		 push	 esi
  00015	57		 push	 edi

; 91   : 	u_long idProposer, idTarget;
; 92   : 	int nResult;
; 93   : 	time_t t;
; 94   : 	ar >> idProposer >> idTarget >> nResult >> t;

  00016	8d 85 30 ff ff
	ff		 lea	 eax, DWORD PTR _t$[ebp]
  0001c	89 8d 28 ff ff
	ff		 mov	 DWORD PTR _this$1$[ebp], ecx
  00022	8b 4d 08	 mov	 ecx, DWORD PTR _ar$[ebp]
  00025	50		 push	 eax
  00026	8d 85 24 ff ff
	ff		 lea	 eax, DWORD PTR _nResult$[ebp]
  0002c	50		 push	 eax
  0002d	8d 85 2c ff ff
	ff		 lea	 eax, DWORD PTR _idTarget$[ebp]
  00033	50		 push	 eax
  00034	8d 85 20 ff ff
	ff		 lea	 eax, DWORD PTR _idProposer$[ebp]
  0003a	50		 push	 eax
  0003b	e8 00 00 00 00	 call	 ??$?5K@CAr@@QAEAAV0@AAK@Z ; CAr::operator>><unsigned long>
  00040	8b c8		 mov	 ecx, eax
  00042	e8 00 00 00 00	 call	 ??$?5K@CAr@@QAEAAV0@AAK@Z ; CAr::operator>><unsigned long>
  00047	8b c8		 mov	 ecx, eax
  00049	e8 00 00 00 00	 call	 ??$?5H@CAr@@QAEAAV0@AAH@Z ; CAr::operator>><int>
  0004e	8b c8		 mov	 ecx, eax
  00050	e8 00 00 00 00	 call	 ??$?5J@CAr@@QAEAAV0@AAJ@Z ; CAr::operator>><long>

; 95   : 	election::OutputDebugString( "S: CCoupleHelper.OnProposeResult: %d, %d, %d, %d", idProposer, idTarget, nResult, t );

  00055	ff b5 30 ff ff
	ff		 push	 DWORD PTR _t$[ebp]
  0005b	8b bd 24 ff ff
	ff		 mov	 edi, DWORD PTR _nResult$[ebp]
  00061	8b b5 20 ff ff
	ff		 mov	 esi, DWORD PTR _idProposer$[ebp]
  00067	57		 push	 edi
  00068	ff b5 2c ff ff
	ff		 push	 DWORD PTR _idTarget$[ebp]
  0006e	56		 push	 esi
  0006f	68 00 00 00 00	 push	 OFFSET ??_C@_0DB@LJFAIJCA@S?3?5CCoupleHelper?4OnProposeResul@
  00074	e8 00 00 00 00	 call	 ?OutputDebugStringA@election@@YAXPBDZZ ; election::OutputDebugStringA
; File C:\Program Files\Microsoft Visual Studio\2022\Professional\VC\Tools\MSVC\14.44.35207\include\xtree

; 1630 :         _Tree_find_result<_Nodeptr> _Result{{_Scary->_Myhead->_Parent, _Tree_child::_Right}, _Scary->_Myhead};

  00079	8b 0d 28 00 00
	00		 mov	 ecx, DWORD PTR ?prj@@3VCProject@@A+40
; File C:\IAGOS\server\v18\Source\Source\WorldServer\couplehelper.cpp

; 95   : 	election::OutputDebugString( "S: CCoupleHelper.OnProposeResult: %d, %d, %d, %d", idProposer, idTarget, nResult, t );

  0007f	83 c4 14	 add	 esp, 20			; 00000014H
; File C:\Program Files\Microsoft Visual Studio\2022\Professional\VC\Tools\MSVC\14.44.35207\include\xtree

; 1630 :         _Tree_find_result<_Nodeptr> _Result{{_Scary->_Myhead->_Parent, _Tree_child::_Right}, _Scary->_Myhead};

  00082	8b d9		 mov	 ebx, ecx
  00084	8b 41 04	 mov	 eax, DWORD PTR [ecx+4]

; 1631 :         _Nodeptr _Trynode = _Result._Location._Parent;
; 1632 :         while (!_Trynode->_Isnil) {

  00087	80 78 0d 00	 cmp	 BYTE PTR [eax+13], 0
  0008b	75 17		 jne	 SHORT $LN20@OnProposeR
  0008d	0f 1f 00	 npad	 3
$LL19@OnProposeR:
; File C:\Program Files\Microsoft Visual Studio\2022\Professional\VC\Tools\MSVC\14.44.35207\include\type_traits

; 2380 :         return _Left < _Right;

  00090	39 70 10	 cmp	 DWORD PTR [eax+16], esi
; File C:\Program Files\Microsoft Visual Studio\2022\Professional\VC\Tools\MSVC\14.44.35207\include\xtree

; 1634 :             if (_DEBUG_LT_PRED(_Getcomp(), _Traits::_Kfn(_Trynode->_Myval), _Keyval)) {

  00093	73 05		 jae	 SHORT $LN21@OnProposeR

; 1635 :                 _Result._Location._Child = _Tree_child::_Right;
; 1636 :                 _Trynode                 = _Trynode->_Right;

  00095	8b 40 08	 mov	 eax, DWORD PTR [eax+8]

; 1637 :             } else {

  00098	eb 04		 jmp	 SHORT $LN22@OnProposeR
$LN21@OnProposeR:

; 1638 :                 _Result._Location._Child = _Tree_child::_Left;
; 1639 :                 _Result._Bound           = _Trynode;

  0009a	8b d8		 mov	 ebx, eax

; 1640 :                 _Trynode                 = _Trynode->_Left;

  0009c	8b 00		 mov	 eax, DWORD PTR [eax]
$LN22@OnProposeR:

; 1631 :         _Nodeptr _Trynode = _Result._Location._Parent;
; 1632 :         while (!_Trynode->_Isnil) {

  0009e	80 78 0d 00	 cmp	 BYTE PTR [eax+13], 0
  000a2	74 ec		 je	 SHORT $LL19@OnProposeR
$LN20@OnProposeR:

; 1624 :         return !_Bound->_Isnil && !_DEBUG_LT_PRED(_Getcomp(), _Keyval, _Traits::_Kfn(_Bound->_Myval));

  000a4	80 7b 0d 00	 cmp	 BYTE PTR [ebx+13], 0
  000a8	75 05		 jne	 SHORT $LN16@OnProposeR
; File C:\Program Files\Microsoft Visual Studio\2022\Professional\VC\Tools\MSVC\14.44.35207\include\type_traits

; 2380 :         return _Left < _Right;

  000aa	3b 73 10	 cmp	 esi, DWORD PTR [ebx+16]
; File C:\Program Files\Microsoft Visual Studio\2022\Professional\VC\Tools\MSVC\14.44.35207\include\xtree

; 1624 :         return !_Bound->_Isnil && !_DEBUG_LT_PRED(_Getcomp(), _Keyval, _Traits::_Kfn(_Bound->_Myval));

  000ad	73 02		 jae	 SHORT $LN15@OnProposeR
$LN16@OnProposeR:

; 1389 :         return _Get_scary()->_Myhead;

  000af	8b d9		 mov	 ebx, ecx
$LN15@OnProposeR:

; 37   :     _Tree_unchecked_const_iterator(_Nodeptr _Pnode, const _Mytree* _Plist) noexcept : _Ptr(_Pnode) {

  000b1	3b d9		 cmp	 ebx, ecx
; File C:\IAGOS\server\v18\Source\Source\_Common\Project.h

; 1436 : 	if( i != m_idPlayerToUserPtr.end() )

  000b3	0f 84 ac 01 00
	00		 je	 $LN8@OnProposeR

; 1437 : 		return i->second;

  000b9	8b 5b 14	 mov	 ebx, DWORD PTR [ebx+20]
; File C:\IAGOS\server\v18\Source\Source\_Common\Obj.h

; 327  : 	return pObj && ( pObj->IsDelete() == FALSE ); 

  000bc	85 db		 test	 ebx, ebx
  000be	0f 84 a1 01 00
	00		 je	 $LN8@OnProposeR

; 180  : 	BOOL			IsDelete()	{ return (m_dwFlags & OBJ_FLAG_DELETE);  }

  000c4	f6 43 04 01	 test	 BYTE PTR [ebx+4], 1

; 327  : 	return pObj && ( pObj->IsDelete() == FALSE ); 

  000c8	0f 85 97 01 00
	00		 jne	 $LN8@OnProposeR
; File C:\IAGOS\server\v18\Source\Source\WorldServer\couplehelper.cpp

; 101  : 	if( nResult == 0 )

  000ce	85 ff		 test	 edi, edi
  000d0	0f 85 84 00 00
	00		 jne	 $LN3@OnProposeR

; 102  : 	{
; 103  : 		CUser* pTarget	= static_cast<CUser*>( prj.GetUserByID( idTarget ) );

  000d6	ff b5 2c ff ff
	ff		 push	 DWORD PTR _idTarget$[ebp]
  000dc	b9 00 00 00 00	 mov	 ecx, OFFSET ?prj@@3VCProject@@A ; prj
  000e1	e8 00 00 00 00	 call	 ?GetUserByID@CProject@@QAEPAVCMover@@K@Z ; CProject::GetUserByID
  000e6	8b f8		 mov	 edi, eax
; File C:\IAGOS\server\v18\Source\Source\_Common\Obj.h

; 327  : 	return pObj && ( pObj->IsDelete() == FALSE ); 

  000e8	85 ff		 test	 edi, edi
  000ea	74 2b		 je	 SHORT $LN78@OnProposeR

; 180  : 	BOOL			IsDelete()	{ return (m_dwFlags & OBJ_FLAG_DELETE);  }

  000ec	f6 47 04 01	 test	 BYTE PTR [edi+4], 1

; 327  : 	return pObj && ( pObj->IsDelete() == FALSE ); 

  000f0	75 25		 jne	 SHORT $LN78@OnProposeR
; File C:\IAGOS\server\v18\Source\Source\WorldServer\couplehelper.cpp

; 107  : 			pTarget->AddProposeResult( idProposer, pProposer->GetName() );

  000f2	6a 00		 push	 0
  000f4	8b cb		 mov	 ecx, ebx
  000f6	89 b7 b0 8f 00
	00		 mov	 DWORD PTR [edi+36784], esi
  000fc	e8 00 00 00 00	 call	 ?GetName@CMover@@QAEPBDH@Z ; CMover::GetName
  00101	50		 push	 eax
  00102	56		 push	 esi
  00103	8b cf		 mov	 ecx, edi
  00105	e8 00 00 00 00	 call	 ?AddProposeResult@CUser@@QAEXKPBD@Z ; CUser::AddProposeResult

; 108  : 			PlayProposeAnimation( pProposer, pTarget );

  0010a	8b 8d 28 ff ff
	ff		 mov	 ecx, DWORD PTR _this$1$[ebp]
  00110	57		 push	 edi
  00111	53		 push	 ebx
  00112	e8 00 00 00 00	 call	 ?PlayProposeAnimation@CCoupleHelper@@AAEXPAVCUser@@0@Z ; CCoupleHelper::PlayProposeAnimation
$LN78@OnProposeR:

; 109  : 		}
; 110  : 		const char* pszTarget	= CPlayerDataCenter::GetInstance()->GetPlayerString( idTarget );	

  00117	ff b5 2c ff ff
	ff		 push	 DWORD PTR _idTarget$[ebp]
  0011d	e8 00 00 00 00	 call	 ?GetInstance@CPlayerDataCenter@@SAPAV1@XZ ; CPlayerDataCenter::GetInstance
  00122	8b c8		 mov	 ecx, eax
  00124	e8 00 00 00 00	 call	 ?GetPlayerString@CPlayerDataCenter@@QAEPBDK@Z ; CPlayerDataCenter::GetPlayerString

; 111  : 		if( !pszTarget )

  00129	85 c0		 test	 eax, eax
  0012b	b9 00 00 00 00	 mov	 ecx, OFFSET ??_C@_00CNPNBAHC@@
  00130	0f 45 c8	 cmovne	 ecx, eax

; 112  : 			pszTarget	= "";
; 113  : 		pProposer->AddDefinedText( TID_GAME_COUPLE_S01, "%s", pszTarget );	// %s´Ôżˇ°Ô ÇÁ·ŻĆ÷Áî ÇĎż´˝Ŕ´Ď´Ů.

  00133	51		 push	 ecx
  00134	68 00 00 00 00	 push	 OFFSET ??_C@_02DKCKIIND@?$CFs@
  00139	68 d0 0f 00 00	 push	 4048			; 00000fd0H
  0013e	53		 push	 ebx
  0013f	e8 00 00 00 00	 call	 ?AddDefinedText@CUser@@QAAXHPBDZZ ; CUser::AddDefinedText
  00144	83 c4 10	 add	 esp, 16			; 00000010H
  00147	5f		 pop	 edi

; 127  : 	}
; 128  : }

  00148	5e		 pop	 esi
  00149	5b		 pop	 ebx
  0014a	8b 4d fc	 mov	 ecx, DWORD PTR __$ArrayPad$[ebp]
  0014d	33 cd		 xor	 ecx, ebp
  0014f	e8 00 00 00 00	 call	 @__security_check_cookie@4
  00154	8b e5		 mov	 esp, ebp
  00156	5d		 pop	 ebp
  00157	c2 04 00	 ret	 4
$LN3@OnProposeR:

; 114  : 	}
; 115  : 	else
; 116  : 	{
; 117  : 		if( t > 0 )

  0015a	8b 85 30 ff ff
	ff		 mov	 eax, DWORD PTR _t$[ebp]
  00160	85 c0		 test	 eax, eax
  00162	0f 8e f5 00 00
	00		 jle	 $LN7@OnProposeR

; 118  : 		{
; 119  : 			CTimeSpan ts( t );

  00168	99		 cdq

; 120  : 			char szText[200]	= { 0,};

  00169	68 c8 00 00 00	 push	 200			; 000000c8H
; File C:\Program Files\Microsoft Visual Studio\2022\Professional\VC\Tools\MSVC\14.44.35207\atlmfc\include\atltime.h

; 266  : 	m_timeSpan( time )

  0016e	8b f8		 mov	 edi, eax
  00170	8b f2		 mov	 esi, edx
; File C:\IAGOS\server\v18\Source\Source\WorldServer\couplehelper.cpp

; 120  : 			char szText[200]	= { 0,};

  00172	8d 85 34 ff ff
	ff		 lea	 eax, DWORD PTR _szText$2[ebp]
  00178	6a 00		 push	 0
  0017a	50		 push	 eax
  0017b	e8 00 00 00 00	 call	 _memset
  00180	83 c4 0c	 add	 esp, 12			; 0000000cH
; File C:\Program Files\Microsoft Visual Studio\2022\Professional\VC\Tools\MSVC\14.44.35207\atlmfc\include\atltime.h

; 286  : 	return( m_timeSpan/3600 );

  00183	6a 00		 push	 0
  00185	68 10 0e 00 00	 push	 3600			; 00000e10H
  0018a	56		 push	 esi
  0018b	57		 push	 edi
  0018c	e8 00 00 00 00	 call	 __alldiv

; 296  : 	return( m_timeSpan/60 );

  00191	6a 00		 push	 0
  00193	6a 3c		 push	 60			; 0000003cH
  00195	56		 push	 esi
  00196	57		 push	 edi

; 301  : 	return( LONG( GetTotalMinutes()-(GetTotalHours()*60) ) );

  00197	89 85 30 ff ff
	ff		 mov	 DWORD PTR tv633[ebp], eax

; 296  : 	return( m_timeSpan/60 );

  0019d	e8 00 00 00 00	 call	 __alldiv

; 301  : 	return( LONG( GetTotalMinutes()-(GetTotalHours()*60) ) );

  001a2	8b 8d 30 ff ff
	ff		 mov	 ecx, DWORD PTR tv633[ebp]
  001a8	c1 e1 04	 shl	 ecx, 4
  001ab	2b 8d 30 ff ff
	ff		 sub	 ecx, DWORD PTR tv633[ebp]

; 281  : 	return( m_timeSpan/(24*3600) );

  001b1	6a 00		 push	 0
  001b3	68 80 51 01 00	 push	 86400			; 00015180H

; 301  : 	return( LONG( GetTotalMinutes()-(GetTotalHours()*60) ) );

  001b8	c1 e1 02	 shl	 ecx, 2

; 281  : 	return( m_timeSpan/(24*3600) );

  001bb	56		 push	 esi

; 301  : 	return( LONG( GetTotalMinutes()-(GetTotalHours()*60) ) );

  001bc	2b c1		 sub	 eax, ecx

; 281  : 	return( m_timeSpan/(24*3600) );

  001be	57		 push	 edi

; 301  : 	return( LONG( GetTotalMinutes()-(GetTotalHours()*60) ) );

  001bf	89 85 28 ff ff
	ff		 mov	 DWORD PTR tv634[ebp], eax

; 281  : 	return( m_timeSpan/(24*3600) );

  001c5	e8 00 00 00 00	 call	 __alldiv

; 291  : 	return( LONG( GetTotalHours()-(GetDays()*24) ) );

  001ca	8b b5 30 ff ff
	ff		 mov	 esi, DWORD PTR tv633[ebp]
  001d0	8b f8		 mov	 edi, eax
  001d2	8d 0c 7f	 lea	 ecx, DWORD PTR [edi+edi*2]
  001d5	c1 e1 03	 shl	 ecx, 3
  001d8	2b f1		 sub	 esi, ecx
; File C:\IAGOS\server\v18\Source\Source\_Common\Project.h

; 1427 : 	VERIFY_RANGE( (int)( dwIndex ), 0, m_colorText.GetSize(), "GetText range_error", "error" );

  001da	8b 0d ac 02 00
	00		 mov	 ecx, DWORD PTR ?prj@@3VCProject@@A+684
  001e0	81 f9 d7 0f 00
	00		 cmp	 ecx, 4055		; 00000fd7H
  001e6	7f 21		 jg	 SHORT $LN99@OnProposeR

; 579  : 	LPCTSTR szErr = Error( _T( "%s min:%d, max:%d, index:%d" ), szMsg, nMin, nMax, nIndex ); 

  001e8	68 d7 0f 00 00	 push	 4055			; 00000fd7H
  001ed	51		 push	 ecx
  001ee	6a 00		 push	 0
  001f0	68 00 00 00 00	 push	 OFFSET ??_C@_0BE@OHDBLHOM@GetText?5range_error@
  001f5	68 00 00 00 00	 push	 OFFSET ??_C@_0BM@HMFGHCP@?$CFs?5min?3?$CFd?0?5max?3?$CFd?0?5index?3?$CFd@
  001fa	e8 00 00 00 00	 call	 ?Error@@YAPBDPBDZZ	; Error
  001ff	83 c4 14	 add	 esp, 20			; 00000014H

; 1427 : 	VERIFY_RANGE( (int)( dwIndex ), 0, m_colorText.GetSize(), "GetText range_error", "error" );

  00202	b8 00 00 00 00	 mov	 eax, OFFSET ??_C@_05KKCIMGE@error@
  00207	eb 1b		 jmp	 SHORT $LN98@OnProposeR
$LN99@OnProposeR:
; File C:\IAGOS\server\v18\Source\Source\_Common\data.h

; 270  : 	if( dwIndex >= (DWORD)m_nMaxIndex )

  00209	76 14		 jbe	 SHORT $LN118@OnProposeR

; 271  : 		return NULL;
; 272  : 	return (T*) m_apOffset[ dwIndex ];

  0020b	a1 9c 02 00 00	 mov	 eax, DWORD PTR ?prj@@3VCProject@@A+668
  00210	8b 80 5c 3f 00
	00		 mov	 eax, DWORD PTR [eax+16220]
; File C:\IAGOS\server\v18\Source\Source\_Common\Project.h

; 1428 : 	if( m_colorText.GetAt( dwIndex ) == NULL )

  00216	85 c0		 test	 eax, eax
  00218	74 05		 je	 SHORT $LN118@OnProposeR

; 1430 : 	return m_colorText.GetAt( dwIndex )->lpszData; 

  0021a	8b 40 04	 mov	 eax, DWORD PTR [eax+4]
  0021d	eb 05		 jmp	 SHORT $LN98@OnProposeR
$LN118@OnProposeR:

; 1429 : 		return "";

  0021f	b8 00 00 00 00	 mov	 eax, OFFSET ??_C@_00CNPNBAHC@@
$LN98@OnProposeR:
; File C:\IAGOS\server\v18\Source\Source\WorldServer\couplehelper.cpp

; 122  : 			sprintf( szText, prj.GetText( TID_GAME_COUPLE_M00 ), static_cast<int>( ts.GetDays() ), ts.GetHours(), ts.GetMinutes() );

  00224	ff b5 28 ff ff
	ff		 push	 DWORD PTR tv634[ebp]
  0022a	56		 push	 esi
  0022b	57		 push	 edi
  0022c	50		 push	 eax
  0022d	8d 85 34 ff ff
	ff		 lea	 eax, DWORD PTR _szText$2[ebp]
  00233	50		 push	 eax
  00234	e8 00 00 00 00	 call	 _sprintf
  00239	83 c4 14	 add	 esp, 20			; 00000014H

; 123  : 			pProposer->AddText( szText );

  0023c	8d 85 34 ff ff
	ff		 lea	 eax, DWORD PTR _szText$2[ebp]
  00242	8b cb		 mov	 ecx, ebx
  00244	50		 push	 eax
  00245	e8 00 00 00 00	 call	 ?AddText@CUser@@QAEXPBD@Z ; CUser::AddText
  0024a	5f		 pop	 edi

; 127  : 	}
; 128  : }

  0024b	5e		 pop	 esi
  0024c	5b		 pop	 ebx
  0024d	8b 4d fc	 mov	 ecx, DWORD PTR __$ArrayPad$[ebp]
  00250	33 cd		 xor	 ecx, ebp
  00252	e8 00 00 00 00	 call	 @__security_check_cookie@4
  00257	8b e5		 mov	 esp, ebp
  00259	5d		 pop	 ebp
  0025a	c2 04 00	 ret	 4
$LN7@OnProposeR:

; 124  : 		}
; 125  : 		else
; 126  : 			pProposer->AddDefinedText( nResult );

  0025d	57		 push	 edi
  0025e	8b cb		 mov	 ecx, ebx
  00260	e8 00 00 00 00	 call	 ?AddDefinedText@CUser@@QAEXH@Z ; CUser::AddDefinedText
$LN8@OnProposeR:

; 127  : 	}
; 128  : }

  00265	8b 4d fc	 mov	 ecx, DWORD PTR __$ArrayPad$[ebp]
  00268	5f		 pop	 edi
  00269	5e		 pop	 esi
  0026a	33 cd		 xor	 ecx, ebp
  0026c	5b		 pop	 ebx
  0026d	e8 00 00 00 00	 call	 @__security_check_cookie@4
  00272	8b e5		 mov	 esp, ebp
  00274	5d		 pop	 ebp
  00275	c2 04 00	 ret	 4
?OnProposeResult@CCoupleHelper@@QAEXAAVCAr@@@Z ENDP	; CCoupleHelper::OnProposeResult
_TEXT	ENDS
; Function compile flags: /Ogtp
; File C:\IAGOS\server\v18\Source\Source\WorldServer\couplehelper.cpp
; File C:\Program Files\Microsoft Visual Studio\2022\Professional\VC\Tools\MSVC\14.44.35207\include\xtree
; File C:\Program Files\Microsoft Visual Studio\2022\Professional\VC\Tools\MSVC\14.44.35207\include\type_traits
; File C:\Program Files\Microsoft Visual Studio\2022\Professional\VC\Tools\MSVC\14.44.35207\include\xtree
; File C:\Program Files\Microsoft Visual Studio\2022\Professional\VC\Tools\MSVC\14.44.35207\include\type_traits
; File C:\Program Files\Microsoft Visual Studio\2022\Professional\VC\Tools\MSVC\14.44.35207\include\xtree
; File C:\IAGOS\server\v18\Source\Source\_Common\Project.h
; File C:\IAGOS\server\v18\Source\Source\_Common\Obj.h
; File C:\IAGOS\server\v18\Source\Source\WorldServer\couplehelper.cpp
;	COMDAT ?OnPropose@CCoupleHelper@@QAEXPAVCUser@@PBD@Z
_TEXT	SEGMENT
_pUser$ = 8						; size = 4
_szPlayer$ = 12						; size = 4
?OnPropose@CCoupleHelper@@QAEXPAVCUser@@PBD@Z PROC	; CCoupleHelper::OnPropose, COMDAT
; _this$ = ecx

; 48   : {

  00000	55		 push	 ebp
  00001	8b ec		 mov	 ebp, esp
  00003	56		 push	 esi

; 49   : 	election::OutputDebugString( "S: CCoupleHelper.OnPropose: %s", szPlayer );

  00004	8b 75 0c	 mov	 esi, DWORD PTR _szPlayer$[ebp]
  00007	57		 push	 edi
  00008	56		 push	 esi
  00009	68 00 00 00 00	 push	 OFFSET ??_C@_0BP@GPFHEIL@S?3?5CCoupleHelper?4OnPropose?3?5?$CFs@
  0000e	8b f9		 mov	 edi, ecx
  00010	e8 00 00 00 00	 call	 ?OutputDebugStringA@election@@YAXPBDZZ ; election::OutputDebugStringA
  00015	83 c4 08	 add	 esp, 8

; 50   : 	u_long idPlayer	= CPlayerDataCenter::GetInstance()->GetPlayerId( const_cast<char*>( szPlayer )  );

  00018	56		 push	 esi
  00019	e8 00 00 00 00	 call	 ?GetInstance@CPlayerDataCenter@@SAPAV1@XZ ; CPlayerDataCenter::GetInstance
  0001e	8b c8		 mov	 ecx, eax
  00020	e8 00 00 00 00	 call	 ?GetPlayerId@CPlayerDataCenter@@QAEKPAD@Z ; CPlayerDataCenter::GetPlayerId
  00025	8b d0		 mov	 edx, eax

; 51   : 	if( idPlayer == 0 )

  00027	85 d2		 test	 edx, edx
  00029	75 1c		 jne	 SHORT $LN2@OnPropose

; 52   : 	{
; 53   : 		pUser->AddDefinedText( TID_GAME_COUPLE_E00, "%s", szPlayer );	//%s´ÔŔ» ĂŁŔ» Ľö ľř˝Ŕ´Ď´Ů.

  0002b	56		 push	 esi
  0002c	68 00 00 00 00	 push	 OFFSET ??_C@_02DKCKIIND@?$CFs@
  00031	68 c9 0f 00 00	 push	 4041			; 00000fc9H
  00036	ff 75 08	 push	 DWORD PTR _pUser$[ebp]
  00039	e8 00 00 00 00	 call	 ?AddDefinedText@CUser@@QAAXHPBDZZ ; CUser::AddDefinedText
  0003e	83 c4 10	 add	 esp, 16			; 00000010H
  00041	5f		 pop	 edi

; 73   : }

  00042	5e		 pop	 esi
  00043	5d		 pop	 ebp
  00044	c2 08 00	 ret	 8
$LN2@OnPropose:
; File C:\Program Files\Microsoft Visual Studio\2022\Professional\VC\Tools\MSVC\14.44.35207\include\xtree

; 1630 :         _Tree_find_result<_Nodeptr> _Result{{_Scary->_Myhead->_Parent, _Tree_child::_Right}, _Scary->_Myhead};

  00047	8b 35 28 00 00
	00		 mov	 esi, DWORD PTR ?prj@@3VCProject@@A+40
  0004d	8b ce		 mov	 ecx, esi
  0004f	8b 46 04	 mov	 eax, DWORD PTR [esi+4]

; 1631 :         _Nodeptr _Trynode = _Result._Location._Parent;
; 1632 :         while (!_Trynode->_Isnil) {

  00052	80 78 0d 00	 cmp	 BYTE PTR [eax+13], 0
  00056	75 14		 jne	 SHORT $LN17@OnPropose
$LL16@OnPropose:
; File C:\Program Files\Microsoft Visual Studio\2022\Professional\VC\Tools\MSVC\14.44.35207\include\type_traits

; 2380 :         return _Left < _Right;

  00058	39 50 10	 cmp	 DWORD PTR [eax+16], edx
; File C:\Program Files\Microsoft Visual Studio\2022\Professional\VC\Tools\MSVC\14.44.35207\include\xtree

; 1634 :             if (_DEBUG_LT_PRED(_Getcomp(), _Traits::_Kfn(_Trynode->_Myval), _Keyval)) {

  0005b	73 05		 jae	 SHORT $LN18@OnPropose

; 1635 :                 _Result._Location._Child = _Tree_child::_Right;
; 1636 :                 _Trynode                 = _Trynode->_Right;

  0005d	8b 40 08	 mov	 eax, DWORD PTR [eax+8]

; 1637 :             } else {

  00060	eb 04		 jmp	 SHORT $LN19@OnPropose
$LN18@OnPropose:

; 1638 :                 _Result._Location._Child = _Tree_child::_Left;
; 1639 :                 _Result._Bound           = _Trynode;

  00062	8b c8		 mov	 ecx, eax

; 1640 :                 _Trynode                 = _Trynode->_Left;

  00064	8b 00		 mov	 eax, DWORD PTR [eax]
$LN19@OnPropose:

; 1631 :         _Nodeptr _Trynode = _Result._Location._Parent;
; 1632 :         while (!_Trynode->_Isnil) {

  00066	80 78 0d 00	 cmp	 BYTE PTR [eax+13], 0
  0006a	74 ec		 je	 SHORT $LL16@OnPropose
$LN17@OnPropose:

; 1624 :         return !_Bound->_Isnil && !_DEBUG_LT_PRED(_Getcomp(), _Keyval, _Traits::_Kfn(_Bound->_Myval));

  0006c	80 79 0d 00	 cmp	 BYTE PTR [ecx+13], 0
  00070	75 05		 jne	 SHORT $LN13@OnPropose
; File C:\Program Files\Microsoft Visual Studio\2022\Professional\VC\Tools\MSVC\14.44.35207\include\type_traits

; 2380 :         return _Left < _Right;

  00072	3b 51 10	 cmp	 edx, DWORD PTR [ecx+16]
; File C:\Program Files\Microsoft Visual Studio\2022\Professional\VC\Tools\MSVC\14.44.35207\include\xtree

; 1624 :         return !_Bound->_Isnil && !_DEBUG_LT_PRED(_Getcomp(), _Keyval, _Traits::_Kfn(_Bound->_Myval));

  00075	73 02		 jae	 SHORT $LN12@OnPropose
$LN13@OnPropose:

; 1389 :         return _Get_scary()->_Myhead;

  00077	8b ce		 mov	 ecx, esi
$LN12@OnPropose:

; 37   :     _Tree_unchecked_const_iterator(_Nodeptr _Pnode, const _Mytree* _Plist) noexcept : _Ptr(_Pnode) {

  00079	3b ce		 cmp	 ecx, esi
; File C:\IAGOS\server\v18\Source\Source\_Common\Project.h

; 1436 : 	if( i != m_idPlayerToUserPtr.end() )

  0007b	74 4e		 je	 SHORT $LN77@OnPropose

; 1437 : 		return i->second;

  0007d	8b 49 14	 mov	 ecx, DWORD PTR [ecx+20]
; File C:\IAGOS\server\v18\Source\Source\_Common\Obj.h

; 327  : 	return pObj && ( pObj->IsDelete() == FALSE ); 

  00080	85 c9		 test	 ecx, ecx
  00082	74 47		 je	 SHORT $LN77@OnPropose

; 180  : 	BOOL			IsDelete()	{ return (m_dwFlags & OBJ_FLAG_DELETE);  }

  00084	f6 41 04 01	 test	 BYTE PTR [ecx+4], 1

; 327  : 	return pObj && ( pObj->IsDelete() == FALSE ); 

  00088	75 41		 jne	 SHORT $LN77@OnPropose
; File C:\IAGOS\server\v18\Source\Source\WorldServer\couplehelper.cpp

; 62   : 	if( pUser == pTarget )

  0008a	8b 55 08	 mov	 edx, DWORD PTR _pUser$[ebp]
  0008d	3b d1		 cmp	 edx, ecx
  0008f	74 28		 je	 SHORT $LN78@OnPropose

; 63   : 	{
; 64   : 		pUser->AddDefinedText( TID_GAME_COUPLE_E01 );	// ´ë»óŔĚ şÎŔűÇŐ ÇŐ´Ď´Ů. ÄżÇĂŔĚ ľĆ´Ń ŔĚĽş Äł¸ŻĹÍżˇ°Ô¸¸ °ˇ´ÉÇŐ´Ď´Ů.
; 65   : 		return;
; 66   : 	}
; 67   : 	if( pUser->GetSex() == pTarget->GetSex() )

  00091	8a 82 18 06 00
	00		 mov	 al, BYTE PTR [edx+1560]
  00097	3a 81 18 06 00
	00		 cmp	 al, BYTE PTR [ecx+1560]
  0009d	74 1a		 je	 SHORT $LN78@OnPropose

; 70   : 		return;
; 71   : 	}
; 72   : 	m_pdpClient->SendPropose( pUser->m_idPlayer, pTarget->m_idPlayer );

  0009f	ff b1 34 02 00
	00		 push	 DWORD PTR [ecx+564]
  000a5	8b 4f 08	 mov	 ecx, DWORD PTR [edi+8]
  000a8	ff b2 34 02 00
	00		 push	 DWORD PTR [edx+564]
  000ae	e8 00 00 00 00	 call	 ?SendPropose@CDPDatabaseClient@@QAEXKK@Z ; CDPDatabaseClient::SendPropose
  000b3	5f		 pop	 edi

; 73   : }

  000b4	5e		 pop	 esi
  000b5	5d		 pop	 ebp
  000b6	c2 08 00	 ret	 8
$LN78@OnPropose:

; 68   : 	{
; 69   : 		pUser->AddDefinedText( TID_GAME_COUPLE_E01 );	// ´ë»óŔĚ şÎŔűÇŐ ÇŐ´Ď´Ů. ÄżÇĂŔĚ ľĆ´Ń ŔĚĽş Äł¸ŻĹÍżˇ°Ô¸¸ °ˇ´ÉÇŐ´Ď´Ů.

  000b9	68 ca 0f 00 00	 push	 4042			; 00000fcaH
  000be	8b ca		 mov	 ecx, edx

; 73   : }

  000c0	e8 00 00 00 00	 call	 ?AddDefinedText@CUser@@QAEXH@Z ; CUser::AddDefinedText
  000c5	5f		 pop	 edi
  000c6	5e		 pop	 esi
  000c7	5d		 pop	 ebp
  000c8	c2 08 00	 ret	 8
$LN77@OnPropose:

; 54   : 		return;
; 55   : 	}
; 56   : 	CUser* pTarget	= static_cast<CUser*>( prj.GetUserByID( idPlayer ) );
; 57   : 	if( !IsValidObj( pTarget ) )
; 58   : 	{
; 59   : 		pUser->AddDefinedText( TID_GAME_COUPLE_E00 );	//%s´ÔŔ» ĂŁŔ» Ľö ľř˝Ŕ´Ď´Ů.

  000cb	8b 4d 08	 mov	 ecx, DWORD PTR _pUser$[ebp]
  000ce	68 c9 0f 00 00	 push	 4041			; 00000fc9H

; 73   : }

  000d3	e8 00 00 00 00	 call	 ?AddDefinedText@CUser@@QAEXH@Z ; CUser::AddDefinedText
  000d8	5f		 pop	 edi
  000d9	5e		 pop	 esi
  000da	5d		 pop	 ebp
  000db	c2 08 00	 ret	 8
?OnPropose@CCoupleHelper@@QAEXPAVCUser@@PBD@Z ENDP	; CCoupleHelper::OnPropose
_TEXT	ENDS
; Function compile flags: /Ogtp
; File C:\IAGOS\server\v18\Source\Source\WorldServer\couplehelper.cpp
;	COMDAT ?Clear@CCoupleHelper@@QAEXXZ
_TEXT	SEGMENT
?Clear@CCoupleHelper@@QAEXXZ PROC			; CCoupleHelper::Clear, COMDAT
; _this$ = ecx

; 29   : {

  00000	56		 push	 esi
  00001	8b f1		 mov	 esi, ecx

; 30   : 	SAFE_DELETE( m_pMgr );

  00003	8b 4e 04	 mov	 ecx, DWORD PTR [esi+4]
  00006	85 c9		 test	 ecx, ecx
  00008	74 0d		 je	 SHORT $LN2@Clear
  0000a	8b 01		 mov	 eax, DWORD PTR [ecx]
  0000c	6a 01		 push	 1
  0000e	ff 10		 call	 DWORD PTR [eax]
  00010	c7 46 04 00 00
	00 00		 mov	 DWORD PTR [esi+4], 0
$LN2@Clear:

; 31   : }

  00017	5e		 pop	 esi
  00018	c3		 ret	 0
?Clear@CCoupleHelper@@QAEXXZ ENDP			; CCoupleHelper::Clear
_TEXT	ENDS
; Function compile flags: /Ogtp
; File C:\IAGOS\server\v18\Source\Source\WorldServer\couplehelper.cpp
;	COMDAT ?Initialize@CCoupleHelper@@QAEHPAVCDPDatabaseClient@@PAVCDPSrvr@@@Z
_TEXT	SEGMENT
$T2 = -16						; size = 4
__$EHRec$ = -12						; size = 12
_pdpClient$ = 8						; size = 4
_pdpServer$ = 12					; size = 4
?Initialize@CCoupleHelper@@QAEHPAVCDPDatabaseClient@@PAVCDPSrvr@@@Z PROC ; CCoupleHelper::Initialize, COMDAT
; _this$ = ecx

; 40   : {

  00000	55		 push	 ebp
  00001	8b ec		 mov	 ebp, esp
  00003	6a ff		 push	 -1
  00005	68 00 00 00 00	 push	 __ehhandler$?Initialize@CCoupleHelper@@QAEHPAVCDPDatabaseClient@@PAVCDPSrvr@@@Z
  0000a	64 a1 00 00 00
	00		 mov	 eax, DWORD PTR fs:0
  00010	50		 push	 eax
  00011	51		 push	 ecx
  00012	56		 push	 esi
  00013	a1 00 00 00 00	 mov	 eax, DWORD PTR ___security_cookie
  00018	33 c5		 xor	 eax, ebp
  0001a	50		 push	 eax
  0001b	8d 45 f4	 lea	 eax, DWORD PTR __$EHRec$[ebp]
  0001e	64 a3 00 00 00
	00		 mov	 DWORD PTR fs:0, eax
  00024	8b f1		 mov	 esi, ecx

; 41   : 	m_pMgr	= new CCoupleMgr;

  00026	6a 18		 push	 24			; 00000018H
  00028	e8 00 00 00 00	 call	 ??2@YAPAXI@Z		; operator new
  0002d	83 c4 04	 add	 esp, 4
  00030	89 45 f0	 mov	 DWORD PTR $T2[ebp], eax
  00033	c7 45 fc 00 00
	00 00		 mov	 DWORD PTR __$EHRec$[ebp+8], 0
  0003a	85 c0		 test	 eax, eax
  0003c	74 09		 je	 SHORT $LN3@Initialize
  0003e	8b c8		 mov	 ecx, eax
  00040	e8 00 00 00 00	 call	 ??0CCoupleMgr@@QAE@XZ	; CCoupleMgr::CCoupleMgr
  00045	eb 02		 jmp	 SHORT $LN4@Initialize
$LN3@Initialize:
  00047	33 c0		 xor	 eax, eax
$LN4@Initialize:
  00049	89 46 04	 mov	 DWORD PTR [esi+4], eax

; 42   : 	m_pdpClient	= pdpClient;

  0004c	8b 45 08	 mov	 eax, DWORD PTR _pdpClient$[ebp]
  0004f	89 46 08	 mov	 DWORD PTR [esi+8], eax

; 43   : 	m_pdpServer	= pdpServer;

  00052	8b 45 0c	 mov	 eax, DWORD PTR _pdpServer$[ebp]
  00055	c7 45 fc ff ff
	ff ff		 mov	 DWORD PTR __$EHRec$[ebp+8], -1
  0005c	89 46 0c	 mov	 DWORD PTR [esi+12], eax

; 44   : 	return CCoupleProperty::Instance()->Initialize();

  0005f	e8 00 00 00 00	 call	 ?Instance@CCoupleProperty@@SAPAV1@XZ ; CCoupleProperty::Instance
  00064	8b c8		 mov	 ecx, eax
  00066	e8 00 00 00 00	 call	 ?Initialize@CCoupleProperty@@QAEHXZ ; CCoupleProperty::Initialize

; 45   : }

  0006b	8b 4d f4	 mov	 ecx, DWORD PTR __$EHRec$[ebp]
  0006e	64 89 0d 00 00
	00 00		 mov	 DWORD PTR fs:0, ecx
  00075	59		 pop	 ecx
  00076	5e		 pop	 esi
  00077	8b e5		 mov	 esp, ebp
  00079	5d		 pop	 ebp
  0007a	c2 08 00	 ret	 8
_TEXT	ENDS
;	COMDAT text$x
text$x	SEGMENT
__unwindfunclet$?Initialize@CCoupleHelper@@QAEHPAVCDPDatabaseClient@@PAVCDPSrvr@@@Z$0:
  00000	6a 18		 push	 24			; 00000018H
  00002	8b 45 f0	 mov	 eax, DWORD PTR $T2[ebp]
  00005	50		 push	 eax
  00006	e8 00 00 00 00	 call	 ??3@YAXPAXI@Z		; operator delete
  0000b	83 c4 08	 add	 esp, 8
  0000e	c3		 ret	 0
  0000f	cc		 int	 3
  00010	cc		 int	 3
  00011	cc		 int	 3
  00012	cc		 int	 3
  00013	cc		 int	 3
__ehhandler$?Initialize@CCoupleHelper@@QAEHPAVCDPDatabaseClient@@PAVCDPSrvr@@@Z:
  00014	90		 npad	 1
  00015	90		 npad	 1
  00016	8b 54 24 08	 mov	 edx, DWORD PTR [esp+8]
  0001a	8d 42 0c	 lea	 eax, DWORD PTR [edx+12]
  0001d	8b 4a f4	 mov	 ecx, DWORD PTR [edx-12]
  00020	33 c8		 xor	 ecx, eax
  00022	e8 00 00 00 00	 call	 @__security_check_cookie@4
  00027	b8 00 00 00 00	 mov	 eax, OFFSET __ehfuncinfo$?Initialize@CCoupleHelper@@QAEHPAVCDPDatabaseClient@@PAVCDPSrvr@@@Z
  0002c	e9 00 00 00 00	 jmp	 ___CxxFrameHandler3
text$x	ENDS
?Initialize@CCoupleHelper@@QAEHPAVCDPDatabaseClient@@PAVCDPSrvr@@@Z ENDP ; CCoupleHelper::Initialize
; Function compile flags: /Ogtp
; File C:\IAGOS\server\v18\Source\Source\WorldServer\couplehelper.cpp
;	COMDAT ?Instance@CCoupleHelper@@SAPAV1@XZ
_TEXT	SEGMENT
?Instance@CCoupleHelper@@SAPAV1@XZ PROC			; CCoupleHelper::Instance, COMDAT

; 35   : 	static CCoupleHelper sCoupleHelper;

  00000	64 a1 00 00 00
	00		 mov	 eax, DWORD PTR fs:__tls_array
  00006	8b 0d 00 00 00
	00		 mov	 ecx, DWORD PTR __tls_index
  0000c	8b 0c 88	 mov	 ecx, DWORD PTR [eax+ecx*4]
  0000f	a1 00 00 00 00	 mov	 eax, DWORD PTR ?$TSS0@?1??Instance@CCoupleHelper@@SAPAV2@XZ@4HA
  00014	3b 81 00 00 00
	00		 cmp	 eax, DWORD PTR __Init_thread_epoch[ecx]
  0001a	7f 06		 jg	 SHORT $LN8@Instance
$LN5@Instance:

; 36   : 	return &sCoupleHelper;
; 37   : }

  0001c	b8 00 00 00 00	 mov	 eax, OFFSET ?sCoupleHelper@?1??Instance@CCoupleHelper@@SAPAV2@XZ@4V2@A
  00021	c3		 ret	 0
$LN8@Instance:

; 35   : 	static CCoupleHelper sCoupleHelper;

  00022	68 00 00 00 00	 push	 OFFSET ?$TSS0@?1??Instance@CCoupleHelper@@SAPAV2@XZ@4HA
  00027	e8 00 00 00 00	 call	 __Init_thread_header
  0002c	83 c4 04	 add	 esp, 4
  0002f	83 3d 00 00 00
	00 ff		 cmp	 DWORD PTR ?$TSS0@?1??Instance@CCoupleHelper@@SAPAV2@XZ@4HA, -1
  00036	75 e4		 jne	 SHORT $LN5@Instance
  00038	b9 00 00 00 00	 mov	 ecx, OFFSET ?sCoupleHelper@?1??Instance@CCoupleHelper@@SAPAV2@XZ@4V2@A
  0003d	e8 00 00 00 00	 call	 ??0CCoupleHelper@@AAE@XZ ; CCoupleHelper::CCoupleHelper
  00042	68 00 00 00 00	 push	 OFFSET ??__FsCoupleHelper@?1??Instance@CCoupleHelper@@SAPAV1@XZ@YAXXZ ; `CCoupleHelper::Instance'::`2'::`dynamic atexit destructor for 'sCoupleHelper''
  00047	e8 00 00 00 00	 call	 _atexit
  0004c	68 00 00 00 00	 push	 OFFSET ?$TSS0@?1??Instance@CCoupleHelper@@SAPAV2@XZ@4HA
  00051	e8 00 00 00 00	 call	 __Init_thread_footer
  00056	83 c4 08	 add	 esp, 8
  00059	eb c1		 jmp	 SHORT $LN5@Instance
?Instance@CCoupleHelper@@SAPAV1@XZ ENDP			; CCoupleHelper::Instance
_TEXT	ENDS
; Function compile flags: /Ogtp
; File C:\IAGOS\server\v18\Source\Source\WorldServer\couplehelper.cpp
;	COMDAT ??1CCoupleHelper@@UAE@XZ
_TEXT	SEGMENT
??1CCoupleHelper@@UAE@XZ PROC				; CCoupleHelper::~CCoupleHelper, COMDAT
; _this$ = ecx

; 24   : {

  00000	c7 01 00 00 00
	00		 mov	 DWORD PTR [ecx], OFFSET ??_7CCoupleHelper@@6B@

; 25   : 	Clear();

  00006	e9 00 00 00 00	 jmp	 ?Clear@CCoupleHelper@@QAEXXZ ; CCoupleHelper::Clear
??1CCoupleHelper@@UAE@XZ ENDP				; CCoupleHelper::~CCoupleHelper
_TEXT	ENDS
; Function compile flags: /Ogtp
; File C:\IAGOS\server\v18\Source\Source\WorldServer\couplehelper.cpp
;	COMDAT ??0CCoupleHelper@@AAE@XZ
_TEXT	SEGMENT
??0CCoupleHelper@@AAE@XZ PROC				; CCoupleHelper::CCoupleHelper, COMDAT
; _this$ = ecx

; 20   : {

  00000	c7 01 00 00 00
	00		 mov	 DWORD PTR [ecx], OFFSET ??_7CCoupleHelper@@6B@

; 21   : }

  00006	8b c1		 mov	 eax, ecx
  00008	c3		 ret	 0
??0CCoupleHelper@@AAE@XZ ENDP				; CCoupleHelper::CCoupleHelper
_TEXT	ENDS
; Function compile flags: /Ogtp
; File C:\IAGOS\server\v18\Source\Source\_Common\Project.h
; File C:\Program Files\Microsoft Visual Studio\2022\Professional\VC\Tools\MSVC\14.44.35207\include\xtree
; File C:\IAGOS\server\v18\Source\Source\_Common\Project.h
; File C:\Program Files\Microsoft Visual Studio\2022\Professional\VC\Tools\MSVC\14.44.35207\include\xtree
; File C:\Program Files\Microsoft Visual Studio\2022\Professional\VC\Tools\MSVC\14.44.35207\include\type_traits
; File C:\Program Files\Microsoft Visual Studio\2022\Professional\VC\Tools\MSVC\14.44.35207\include\xtree
; File C:\Program Files\Microsoft Visual Studio\2022\Professional\VC\Tools\MSVC\14.44.35207\include\type_traits
; File C:\Program Files\Microsoft Visual Studio\2022\Professional\VC\Tools\MSVC\14.44.35207\include\xtree
; File C:\IAGOS\server\v18\Source\Source\_Common\Project.h
;	COMDAT ?GetUserByID@CProject@@QAEPAVCMover@@K@Z
_TEXT	SEGMENT
_idPlayer$ = 8						; size = 4
?GetUserByID@CProject@@QAEPAVCMover@@K@Z PROC		; CProject::GetUserByID, COMDAT
; _this$ = ecx

; 1434 : {

  00000	55		 push	 ebp
  00001	8b ec		 mov	 ebp, esp
; File C:\Program Files\Microsoft Visual Studio\2022\Professional\VC\Tools\MSVC\14.44.35207\include\xtree

; 1630 :         _Tree_find_result<_Nodeptr> _Result{{_Scary->_Myhead->_Parent, _Tree_child::_Right}, _Scary->_Myhead};

  00003	8b 49 28	 mov	 ecx, DWORD PTR [ecx+40]

; 1632 :         while (!_Trynode->_Isnil) {

  00006	8b 55 08	 mov	 edx, DWORD PTR _idPlayer$[ebp]
; File C:\IAGOS\server\v18\Source\Source\_Common\Project.h

; 1434 : {

  00009	56		 push	 esi
; File C:\Program Files\Microsoft Visual Studio\2022\Professional\VC\Tools\MSVC\14.44.35207\include\xtree

; 1632 :         while (!_Trynode->_Isnil) {

  0000a	8b f1		 mov	 esi, ecx
  0000c	8b 41 04	 mov	 eax, DWORD PTR [ecx+4]
  0000f	80 78 0d 00	 cmp	 BYTE PTR [eax+13], 0
  00013	75 14		 jne	 SHORT $LN11@GetUserByI
$LL10@GetUserByI:
; File C:\Program Files\Microsoft Visual Studio\2022\Professional\VC\Tools\MSVC\14.44.35207\include\type_traits

; 2380 :         return _Left < _Right;

  00015	39 50 10	 cmp	 DWORD PTR [eax+16], edx
; File C:\Program Files\Microsoft Visual Studio\2022\Professional\VC\Tools\MSVC\14.44.35207\include\xtree

; 1634 :             if (_DEBUG_LT_PRED(_Getcomp(), _Traits::_Kfn(_Trynode->_Myval), _Keyval)) {

  00018	73 05		 jae	 SHORT $LN12@GetUserByI

; 1635 :                 _Result._Location._Child = _Tree_child::_Right;
; 1636 :                 _Trynode                 = _Trynode->_Right;

  0001a	8b 40 08	 mov	 eax, DWORD PTR [eax+8]

; 1637 :             } else {

  0001d	eb 04		 jmp	 SHORT $LN13@GetUserByI
$LN12@GetUserByI:

; 1638 :                 _Result._Location._Child = _Tree_child::_Left;
; 1639 :                 _Result._Bound           = _Trynode;

  0001f	8b c8		 mov	 ecx, eax

; 1640 :                 _Trynode                 = _Trynode->_Left;

  00021	8b 00		 mov	 eax, DWORD PTR [eax]
$LN13@GetUserByI:

; 1632 :         while (!_Trynode->_Isnil) {

  00023	80 78 0d 00	 cmp	 BYTE PTR [eax+13], 0
  00027	74 ec		 je	 SHORT $LL10@GetUserByI
$LN11@GetUserByI:

; 1624 :         return !_Bound->_Isnil && !_DEBUG_LT_PRED(_Getcomp(), _Keyval, _Traits::_Kfn(_Bound->_Myval));

  00029	80 79 0d 00	 cmp	 BYTE PTR [ecx+13], 0
  0002d	75 11		 jne	 SHORT $LN2@GetUserByI
; File C:\Program Files\Microsoft Visual Studio\2022\Professional\VC\Tools\MSVC\14.44.35207\include\type_traits

; 2380 :         return _Left < _Right;

  0002f	3b 51 10	 cmp	 edx, DWORD PTR [ecx+16]
; File C:\Program Files\Microsoft Visual Studio\2022\Professional\VC\Tools\MSVC\14.44.35207\include\xtree

; 1624 :         return !_Bound->_Isnil && !_DEBUG_LT_PRED(_Getcomp(), _Keyval, _Traits::_Kfn(_Bound->_Myval));

  00032	72 0c		 jb	 SHORT $LN2@GetUserByI

; 37   :     _Tree_unchecked_const_iterator(_Nodeptr _Pnode, const _Mytree* _Plist) noexcept : _Ptr(_Pnode) {

  00034	3b ce		 cmp	 ecx, esi
; File C:\IAGOS\server\v18\Source\Source\_Common\Project.h

; 1436 : 	if( i != m_idPlayerToUserPtr.end() )

  00036	74 08		 je	 SHORT $LN2@GetUserByI

; 1437 : 		return i->second;

  00038	8b 41 14	 mov	 eax, DWORD PTR [ecx+20]
  0003b	5e		 pop	 esi

; 1439 : }

  0003c	5d		 pop	 ebp
  0003d	c2 04 00	 ret	 4
$LN2@GetUserByI:

; 1438 : 	return NULL;

  00040	33 c0		 xor	 eax, eax
  00042	5e		 pop	 esi

; 1439 : }

  00043	5d		 pop	 ebp
  00044	c2 04 00	 ret	 4
?GetUserByID@CProject@@QAEPAVCMover@@K@Z ENDP		; CProject::GetUserByID
_TEXT	ENDS
; Function compile flags: /Ogtp
; File C:\Program Files (x86)\Windows Kits\10\Include\10.0.26100.0\ucrt\stdio.h
;	COMDAT _sprintf
_TEXT	SEGMENT
__Buffer$ = 8						; size = 4
__Format$ = 12						; size = 4
_sprintf PROC						; COMDAT

; 1771 :     {

  00000	55		 push	 ebp
  00001	8b ec		 mov	 ebp, esp

; 1392 :         int const _Result = __stdio_common_vsprintf(

  00003	8d 45 10	 lea	 eax, DWORD PTR __Format$[ebp+4]
  00006	50		 push	 eax
  00007	6a 00		 push	 0
  00009	ff 75 0c	 push	 DWORD PTR __Format$[ebp]
  0000c	6a ff		 push	 -1
  0000e	ff 75 08	 push	 DWORD PTR __Buffer$[ebp]
  00011	e8 00 00 00 00	 call	 ___local_stdio_printf_options
  00016	8b 08		 mov	 ecx, DWORD PTR [eax]
  00018	ff 70 04	 push	 DWORD PTR [eax+4]
  0001b	83 c9 01	 or	 ecx, 1
  0001e	51		 push	 ecx
  0001f	e8 00 00 00 00	 call	 ___stdio_common_vsprintf

; 1393 :             _CRT_INTERNAL_LOCAL_PRINTF_OPTIONS | _CRT_INTERNAL_PRINTF_LEGACY_VSPRINTF_NULL_TERMINATION,
; 1394 :             _Buffer, _BufferCount, _Format, _Locale, _ArgList);
; 1395 : 
; 1396 :         return _Result < 0 ? -1 : _Result;

  00024	83 c9 ff	 or	 ecx, -1
  00027	83 c4 1c	 add	 esp, 28			; 0000001cH
  0002a	85 c0		 test	 eax, eax
  0002c	0f 48 c1	 cmovs	 eax, ecx

; 1772 :         int _Result;
; 1773 :         va_list _ArgList;
; 1774 :         __crt_va_start(_ArgList, _Format);
; 1775 : 
; 1776 :         _Result = _vsprintf_l(_Buffer, _Format, NULL, _ArgList);
; 1777 : 
; 1778 :         __crt_va_end(_ArgList);
; 1779 :         return _Result;
; 1780 :     }

  0002f	5d		 pop	 ebp
  00030	c3		 ret	 0
_sprintf ENDP
_TEXT	ENDS
; Function compile flags: /Ogtp
; File C:\Program Files (x86)\Windows Kits\10\Include\10.0.26100.0\ucrt\corecrt_stdio_config.h
;	COMDAT ___local_stdio_printf_options
_TEXT	SEGMENT
___local_stdio_printf_options PROC			; COMDAT

; 91   :         static unsigned __int64 _OptionsStorage;
; 92   :         return &_OptionsStorage;

  00000	b8 00 00 00 00	 mov	 eax, OFFSET ?_OptionsStorage@?1??__local_stdio_printf_options@@9@4_KA ; `__local_stdio_printf_options'::`2'::_OptionsStorage

; 93   :     }

  00005	c3		 ret	 0
___local_stdio_printf_options ENDP
_TEXT	ENDS
; Function compile flags: /Ogtp
; File C:\IAGOS\server\v18\Source\Source\WorldServer\couplehelper.cpp
;	COMDAT ?__empty_global_delete@@YAXPAXI@Z
_TEXT	SEGMENT
___formal$ = 8						; size = 4
___formal$ = 12						; size = 4
?__empty_global_delete@@YAXPAXI@Z PROC			; __empty_global_delete, COMDAT

  00000	c2 00 00	 ret	 0
?__empty_global_delete@@YAXPAXI@Z ENDP			; __empty_global_delete
_TEXT	ENDS
; Function compile flags: /Ogtp
; File C:\IAGOS\server\v18\Source\Source\WorldServer\couplehelper.cpp
;	COMDAT ?__empty_global_delete@@YAXPAX@Z
_TEXT	SEGMENT
___formal$ = 8						; size = 4
?__empty_global_delete@@YAXPAX@Z PROC			; __empty_global_delete, COMDAT

  00000	c2 00 00	 ret	 0
?__empty_global_delete@@YAXPAX@Z ENDP			; __empty_global_delete
_TEXT	ENDS
END
