; Listing generated by Microsoft (R) Optimizing Compiler Version 19.44.35225.0 

	TITLE	C:\IAGOS\server\v18\Source\Output\WorldServer\Release\CreateObj.obj
	.686P
	.XMM
	include listing.inc
	.model	flat

INCLUDELIB LIBCMT
INCLUDELIB OLDNAMES

PUBLIC	?__empty_global_delete@@YAXPAX@Z		; __empty_global_delete
PUBLIC	?__empty_global_delete@@YAXPAXI@Z		; __empty_global_delete
PUBLIC	?GetPropA@CMover@@QAEPAUMoverProp@@XZ		; CMover::GetPropA
PUBLIC	?CreateMover@@YAPAVCMover@@PAVCWorld@@KABUD3DXVECTOR3@@H@Z ; CreateMover
PUBLIC	?CreateObj@@YAPAVCObj@@PAUIDirect3DDevice9@@KKH@Z ; CreateObj
PUBLIC	?ReadObj@@YAPAVCObj@@PAVCFileIO@@@Z		; ReadObj
PUBLIC	?CheckVersion@@YAHPAU_iobuf@@PBD1@Z		; CheckVersion
PUBLIC	?WriteVersion@@YAHPAU_iobuf@@PBD1@Z		; WriteVersion
PUBLIC	?CheckVersion@@YAHPAU_iobuf@@K@Z		; CheckVersion
PUBLIC	?WriteVersion@@YAHPAU_iobuf@@K@Z		; WriteVersion
PUBLIC	??_C@_0BM@HMFGHCP@?$CFs?5min?3?$CFd?0?5max?3?$CFd?0?5index?3?$CFd@ ; `string'
PUBLIC	??_C@_0BJ@GKPOBPPI@GetMoverProp?5range_error@	; `string'
PUBLIC	??_C@_0CM@LGAFIKMJ@CreateObj?5?3?5type?$DN?$CFd?0?5index?$DN?$CFd?0?5@ ; `string'
PUBLIC	__real@3f000000
EXTRN	??2@YAPAXI@Z:PROC				; operator new
EXTRN	??3@YAXPAXI@Z:PROC				; operator delete
EXTRN	_fread:PROC
EXTRN	_fwrite:PROC
EXTRN	?Error@@YAPBDPBDZZ:PROC				; Error
EXTRN	??0CObj@@QAE@XZ:PROC				; CObj::CObj
EXTRN	?UpdateLocalMatrix@CObj@@QAEXXZ:PROC		; CObj::UpdateLocalMatrix
EXTRN	?SetPos@CObj@@QAEXABUD3DXVECTOR3@@@Z:PROC	; CObj::SetPos
EXTRN	??0CItem@@QAE@XZ:PROC				; CItem::CItem
EXTRN	??0CMover@@QAE@XZ:PROC				; CMover::CMover
EXTRN	?InitNPCProperty@CMover@@QAEXXZ:PROC		; CMover::InitNPCProperty
EXTRN	??0CCommonCtrl@@QAE@XZ:PROC			; CCommonCtrl::CCommonCtrl
EXTRN	?AddObj@CWorld@@QAEHPAVCObj@@HH@Z:PROC		; CWorld::AddObj
EXTRN	??0CShip@@QAE@XZ:PROC				; CShip::CShip
EXTRN	??0CShipLoop@@QAE@XZ:PROC			; CShipLoop::CShipLoop
EXTRN	@__security_check_cookie@4:PROC
EXTRN	___CxxFrameHandler3:PROC
EXTRN	?prj@@3VCProject@@A:BYTE			; prj
EXTRN	___security_cookie:DWORD
EXTRN	__fltused:DWORD
;	COMDAT __real@3f000000
CONST	SEGMENT
__real@3f000000 DD 03f000000r			; 0.5
CONST	ENDS
;	COMDAT ??_C@_0CM@LGAFIKMJ@CreateObj?5?3?5type?$DN?$CFd?0?5index?$DN?$CFd?0?5@
CONST	SEGMENT
??_C@_0CM@LGAFIKMJ@CreateObj?5?3?5type?$DN?$CFd?0?5index?$DN?$CFd?0?5@ DB 'C'
	DB	'reateObj : type=%d, index=%d, bInitProp=%d', 00H ; `string'
CONST	ENDS
;	COMDAT ??_C@_0BJ@GKPOBPPI@GetMoverProp?5range_error@
CONST	SEGMENT
??_C@_0BJ@GKPOBPPI@GetMoverProp?5range_error@ DB 'GetMoverProp range_erro'
	DB	'r', 00H					; `string'
CONST	ENDS
;	COMDAT ??_C@_0BM@HMFGHCP@?$CFs?5min?3?$CFd?0?5max?3?$CFd?0?5index?3?$CFd@
CONST	SEGMENT
??_C@_0BM@HMFGHCP@?$CFs?5min?3?$CFd?0?5max?3?$CFd?0?5index?3?$CFd@ DB '%s'
	DB	' min:%d, max:%d, index:%d', 00H		; `string'
CONST	ENDS
;	COMDAT xdata$x
xdata$x	SEGMENT
__ehfuncinfo$?ReadObj@@YAPAVCObj@@PAVCFileIO@@@Z DD 019930522H
	DD	05H
	DD	FLAT:__unwindtable$?ReadObj@@YAPAVCObj@@PAVCFileIO@@@Z
	DD	2 DUP(00H)
	DD	2 DUP(00H)
	DD	00H
	DD	01H
__unwindtable$?ReadObj@@YAPAVCObj@@PAVCFileIO@@@Z DD 0ffffffffH
	DD	FLAT:__unwindfunclet$?ReadObj@@YAPAVCObj@@PAVCFileIO@@@Z$0
	DD	0ffffffffH
	DD	FLAT:__unwindfunclet$?ReadObj@@YAPAVCObj@@PAVCFileIO@@@Z$1
	DD	0ffffffffH
	DD	FLAT:__unwindfunclet$?ReadObj@@YAPAVCObj@@PAVCFileIO@@@Z$2
	DD	0ffffffffH
	DD	FLAT:__unwindfunclet$?ReadObj@@YAPAVCObj@@PAVCFileIO@@@Z$3
	DD	0ffffffffH
	DD	FLAT:__unwindfunclet$?ReadObj@@YAPAVCObj@@PAVCFileIO@@@Z$4
xdata$x	ENDS
;	COMDAT xdata$x
xdata$x	SEGMENT
__ehfuncinfo$?CreateObj@@YAPAVCObj@@PAUIDirect3DDevice9@@KKH@Z DD 019930522H
	DD	06H
	DD	FLAT:__unwindtable$?CreateObj@@YAPAVCObj@@PAUIDirect3DDevice9@@KKH@Z
	DD	2 DUP(00H)
	DD	2 DUP(00H)
	DD	00H
	DD	01H
__unwindtable$?CreateObj@@YAPAVCObj@@PAUIDirect3DDevice9@@KKH@Z DD 0ffffffffH
	DD	FLAT:__unwindfunclet$?CreateObj@@YAPAVCObj@@PAUIDirect3DDevice9@@KKH@Z$0
	DD	0ffffffffH
	DD	FLAT:__unwindfunclet$?CreateObj@@YAPAVCObj@@PAUIDirect3DDevice9@@KKH@Z$1
	DD	0ffffffffH
	DD	FLAT:__unwindfunclet$?CreateObj@@YAPAVCObj@@PAUIDirect3DDevice9@@KKH@Z$2
	DD	0ffffffffH
	DD	FLAT:__unwindfunclet$?CreateObj@@YAPAVCObj@@PAUIDirect3DDevice9@@KKH@Z$3
	DD	0ffffffffH
	DD	FLAT:__unwindfunclet$?CreateObj@@YAPAVCObj@@PAUIDirect3DDevice9@@KKH@Z$4
	DD	0ffffffffH
	DD	FLAT:__unwindfunclet$?CreateObj@@YAPAVCObj@@PAUIDirect3DDevice9@@KKH@Z$5
xdata$x	ENDS
; Function compile flags: /Ogtp
; File C:\IAGOS\server\v18\Source\Source\_Common\CreateObj.cpp
;	COMDAT ?WriteVersion@@YAHPAU_iobuf@@K@Z
_TEXT	SEGMENT
_fp$ = 8						; size = 4
_dwVersion$ = 12					; size = 4
?WriteVersion@@YAHPAU_iobuf@@K@Z PROC			; WriteVersion, COMDAT

; 767  : {

  00000	55		 push	 ebp
  00001	8b ec		 mov	 ebp, esp

; 768  : 	fwrite( &dwVersion, sizeof( DWORD ), 1, fp );

  00003	ff 75 08	 push	 DWORD PTR _fp$[ebp]
  00006	8d 45 0c	 lea	 eax, DWORD PTR _dwVersion$[ebp]
  00009	6a 01		 push	 1
  0000b	6a 04		 push	 4
  0000d	50		 push	 eax
  0000e	e8 00 00 00 00	 call	 _fwrite
  00013	83 c4 10	 add	 esp, 16			; 00000010H

; 769  : 	return TRUE;

  00016	b8 01 00 00 00	 mov	 eax, 1

; 770  : }

  0001b	5d		 pop	 ebp
  0001c	c3		 ret	 0
?WriteVersion@@YAHPAU_iobuf@@K@Z ENDP			; WriteVersion
_TEXT	ENDS
; Function compile flags: /Ogtp
; File C:\IAGOS\server\v18\Source\Source\_Common\CreateObj.cpp
;	COMDAT ?CheckVersion@@YAHPAU_iobuf@@K@Z
_TEXT	SEGMENT
_dwVer$ = -4						; size = 4
_fp$ = 8						; size = 4
_dwVersion$ = 12					; size = 4
?CheckVersion@@YAHPAU_iobuf@@K@Z PROC			; CheckVersion, COMDAT

; 757  : {

  00000	55		 push	 ebp
  00001	8b ec		 mov	 ebp, esp
  00003	51		 push	 ecx

; 758  : 	DWORD dwVer;
; 759  : 	fread( &dwVer, sizeof( DWORD ), 1, fp );

  00004	ff 75 08	 push	 DWORD PTR _fp$[ebp]
  00007	8d 45 fc	 lea	 eax, DWORD PTR _dwVer$[ebp]
  0000a	6a 01		 push	 1
  0000c	6a 04		 push	 4
  0000e	50		 push	 eax
  0000f	e8 00 00 00 00	 call	 _fread

; 760  : 
; 761  : 	if( dwVer == dwVersion )

  00014	8b 4d fc	 mov	 ecx, DWORD PTR _dwVer$[ebp]
  00017	33 c0		 xor	 eax, eax
  00019	83 c4 10	 add	 esp, 16			; 00000010H
  0001c	3b 4d 0c	 cmp	 ecx, DWORD PTR _dwVersion$[ebp]
  0001f	0f 94 c0	 sete	 al

; 762  : 		return TRUE;
; 763  : 
; 764  : 	return FALSE;
; 765  : }

  00022	8b e5		 mov	 esp, ebp
  00024	5d		 pop	 ebp
  00025	c3		 ret	 0
?CheckVersion@@YAHPAU_iobuf@@K@Z ENDP			; CheckVersion
_TEXT	ENDS
; Function compile flags: /Ogtp
; File C:\IAGOS\server\v18\Source\Source\_Common\CreateObj.cpp
;	COMDAT ?WriteVersion@@YAHPAU_iobuf@@PBD1@Z
_TEXT	SEGMENT
_fp$ = 8						; size = 4
_lpszName$ = 12						; size = 4
_lpszVersion$ = 16					; size = 4
?WriteVersion@@YAHPAU_iobuf@@PBD1@Z PROC		; WriteVersion, COMDAT

; 749  : {

  00000	55		 push	 ebp
  00001	8b ec		 mov	 ebp, esp

; 750  : 	if( strlen( lpszName ) >= 32 ||  strlen( lpszVersion ) >= 32 )

  00003	8b 55 0c	 mov	 edx, DWORD PTR _lpszName$[ebp]
  00006	8b ca		 mov	 ecx, edx
  00008	56		 push	 esi
  00009	8d 71 01	 lea	 esi, DWORD PTR [ecx+1]
  0000c	0f 1f 40 00	 npad	 4
$LL5@WriteVersi:
  00010	8a 01		 mov	 al, BYTE PTR [ecx]
  00012	41		 inc	 ecx
  00013	84 c0		 test	 al, al
  00015	75 f9		 jne	 SHORT $LL5@WriteVersi
  00017	2b ce		 sub	 ecx, esi
  00019	83 f9 20	 cmp	 ecx, 32			; 00000020H
  0001c	73 3a		 jae	 SHORT $LN3@WriteVersi
  0001e	8b 4d 10	 mov	 ecx, DWORD PTR _lpszVersion$[ebp]
  00021	8d 71 01	 lea	 esi, DWORD PTR [ecx+1]
$LL6@WriteVersi:
  00024	8a 01		 mov	 al, BYTE PTR [ecx]
  00026	41		 inc	 ecx
  00027	84 c0		 test	 al, al
  00029	75 f9		 jne	 SHORT $LL6@WriteVersi
  0002b	2b ce		 sub	 ecx, esi
  0002d	83 f9 20	 cmp	 ecx, 32			; 00000020H
  00030	73 26		 jae	 SHORT $LN3@WriteVersi

; 752  : 	fwrite( lpszName, sizeof( 32 ), 1, fp );

  00032	8b 75 08	 mov	 esi, DWORD PTR _fp$[ebp]
  00035	56		 push	 esi
  00036	6a 01		 push	 1
  00038	6a 04		 push	 4
  0003a	52		 push	 edx
  0003b	e8 00 00 00 00	 call	 _fwrite

; 753  : 	fwrite( lpszVersion, sizeof( 32 ), 1, fp );

  00040	56		 push	 esi
  00041	6a 01		 push	 1
  00043	6a 04		 push	 4
  00045	ff 75 10	 push	 DWORD PTR _lpszVersion$[ebp]
  00048	e8 00 00 00 00	 call	 _fwrite
  0004d	83 c4 20	 add	 esp, 32			; 00000020H

; 754  : 	return TRUE;

  00050	b8 01 00 00 00	 mov	 eax, 1
  00055	5e		 pop	 esi

; 755  : }

  00056	5d		 pop	 ebp
  00057	c3		 ret	 0
$LN3@WriteVersi:

; 751  : 		return FALSE;

  00058	33 c0		 xor	 eax, eax
  0005a	5e		 pop	 esi

; 755  : }

  0005b	5d		 pop	 ebp
  0005c	c3		 ret	 0
?WriteVersion@@YAHPAU_iobuf@@PBD1@Z ENDP		; WriteVersion
_TEXT	ENDS
; Function compile flags: /Ogtp
; File C:\IAGOS\server\v18\Source\Source\_Common\CreateObj.cpp
;	COMDAT ?CheckVersion@@YAHPAU_iobuf@@PBD1@Z
_TEXT	SEGMENT
_szVersion$ = -68					; size = 32
_szName$ = -36						; size = 32
__$ArrayPad$ = -4					; size = 4
_fp$ = 8						; size = 4
_lpszName$ = 12						; size = 4
_lpszVersion$ = 16					; size = 4
?CheckVersion@@YAHPAU_iobuf@@PBD1@Z PROC		; CheckVersion, COMDAT

; 736  : {

  00000	55		 push	 ebp
  00001	8b ec		 mov	 ebp, esp
  00003	83 ec 44	 sub	 esp, 68			; 00000044H
  00006	a1 00 00 00 00	 mov	 eax, DWORD PTR ___security_cookie
  0000b	33 c5		 xor	 eax, ebp
  0000d	89 45 fc	 mov	 DWORD PTR __$ArrayPad$[ebp], eax
  00010	56		 push	 esi
  00011	8b 75 08	 mov	 esi, DWORD PTR _fp$[ebp]

; 737  : 	CHAR szName[32];
; 738  : 	CHAR szVersion[32];
; 739  : 
; 740  : 	fread( szName, sizeof( szName ), 1, fp );

  00014	8d 45 dc	 lea	 eax, DWORD PTR _szName$[ebp]
  00017	56		 push	 esi
  00018	6a 01		 push	 1
  0001a	6a 20		 push	 32			; 00000020H
  0001c	50		 push	 eax
  0001d	e8 00 00 00 00	 call	 _fread

; 741  : 	fread( szVersion, sizeof( szVersion ), 1, fp );

  00022	56		 push	 esi
  00023	6a 01		 push	 1
  00025	8d 45 bc	 lea	 eax, DWORD PTR _szVersion$[ebp]
  00028	6a 20		 push	 32			; 00000020H
  0002a	50		 push	 eax
  0002b	e8 00 00 00 00	 call	 _fread

; 742  : 
; 743  : 	if( !strcmp( szName, lpszName ) && !strcmp( szVersion, lpszVersion) )

  00030	8b 4d 0c	 mov	 ecx, DWORD PTR _lpszName$[ebp]
  00033	8d 45 dc	 lea	 eax, DWORD PTR _szName$[ebp]
  00036	83 c4 20	 add	 esp, 32			; 00000020H
  00039	5e		 pop	 esi
  0003a	66 0f 1f 44 00
	00		 npad	 6
$LL4@CheckVersi:
  00040	8a 10		 mov	 dl, BYTE PTR [eax]
  00042	3a 11		 cmp	 dl, BYTE PTR [ecx]
  00044	75 1a		 jne	 SHORT $LN5@CheckVersi
  00046	84 d2		 test	 dl, dl
  00048	74 12		 je	 SHORT $LN6@CheckVersi
  0004a	8a 50 01	 mov	 dl, BYTE PTR [eax+1]
  0004d	3a 51 01	 cmp	 dl, BYTE PTR [ecx+1]
  00050	75 0e		 jne	 SHORT $LN5@CheckVersi
  00052	83 c0 02	 add	 eax, 2
  00055	83 c1 02	 add	 ecx, 2
  00058	84 d2		 test	 dl, dl
  0005a	75 e4		 jne	 SHORT $LL4@CheckVersi
$LN6@CheckVersi:
  0005c	33 c0		 xor	 eax, eax
  0005e	eb 05		 jmp	 SHORT $LN7@CheckVersi
$LN5@CheckVersi:
  00060	1b c0		 sbb	 eax, eax
  00062	83 c8 01	 or	 eax, 1
$LN7@CheckVersi:
  00065	85 c0		 test	 eax, eax
  00067	75 54		 jne	 SHORT $LN2@CheckVersi
  00069	8b 4d 10	 mov	 ecx, DWORD PTR _lpszVersion$[ebp]
  0006c	8d 45 bc	 lea	 eax, DWORD PTR _szVersion$[ebp]
  0006f	90		 npad	 1
$LL8@CheckVersi:
  00070	8a 10		 mov	 dl, BYTE PTR [eax]
  00072	3a 11		 cmp	 dl, BYTE PTR [ecx]
  00074	75 2d		 jne	 SHORT $LN9@CheckVersi
  00076	84 d2		 test	 dl, dl
  00078	74 12		 je	 SHORT $LN10@CheckVersi
  0007a	8a 50 01	 mov	 dl, BYTE PTR [eax+1]
  0007d	3a 51 01	 cmp	 dl, BYTE PTR [ecx+1]
  00080	75 21		 jne	 SHORT $LN9@CheckVersi
  00082	83 c0 02	 add	 eax, 2
  00085	83 c1 02	 add	 ecx, 2
  00088	84 d2		 test	 dl, dl
  0008a	75 e4		 jne	 SHORT $LL8@CheckVersi
$LN10@CheckVersi:
  0008c	33 c9		 xor	 ecx, ecx
  0008e	33 c0		 xor	 eax, eax
  00090	85 c9		 test	 ecx, ecx
  00092	0f 94 c0	 sete	 al

; 744  : 		return TRUE;
; 745  : 
; 746  : 	return FALSE;
; 747  : }

  00095	8b 4d fc	 mov	 ecx, DWORD PTR __$ArrayPad$[ebp]
  00098	33 cd		 xor	 ecx, ebp
  0009a	e8 00 00 00 00	 call	 @__security_check_cookie@4
  0009f	8b e5		 mov	 esp, ebp
  000a1	5d		 pop	 ebp
  000a2	c3		 ret	 0
$LN9@CheckVersi:

; 742  : 
; 743  : 	if( !strcmp( szName, lpszName ) && !strcmp( szVersion, lpszVersion) )

  000a3	1b c9		 sbb	 ecx, ecx
  000a5	33 c0		 xor	 eax, eax
  000a7	83 c9 01	 or	 ecx, 1
  000aa	85 c9		 test	 ecx, ecx
  000ac	0f 94 c0	 sete	 al

; 744  : 		return TRUE;
; 745  : 
; 746  : 	return FALSE;
; 747  : }

  000af	8b 4d fc	 mov	 ecx, DWORD PTR __$ArrayPad$[ebp]
  000b2	33 cd		 xor	 ecx, ebp
  000b4	e8 00 00 00 00	 call	 @__security_check_cookie@4
  000b9	8b e5		 mov	 esp, ebp
  000bb	5d		 pop	 ebp
  000bc	c3		 ret	 0
$LN2@CheckVersi:
  000bd	8b 4d fc	 mov	 ecx, DWORD PTR __$ArrayPad$[ebp]
  000c0	33 c0		 xor	 eax, eax
  000c2	33 cd		 xor	 ecx, ebp
  000c4	e8 00 00 00 00	 call	 @__security_check_cookie@4
  000c9	8b e5		 mov	 esp, ebp
  000cb	5d		 pop	 ebp
  000cc	c3		 ret	 0
?CheckVersion@@YAHPAU_iobuf@@PBD1@Z ENDP		; CheckVersion
_TEXT	ENDS
; Function compile flags: /Ogtp
; File C:\IAGOS\server\v18\Source\Source\_Common\CreateObj.cpp
;	COMDAT ?ReadObj@@YAPAVCObj@@PAVCFileIO@@@Z
_TEXT	SEGMENT
$T2 = -16						; size = 4
$T3 = -16						; size = 4
$T4 = -16						; size = 4
$T5 = -16						; size = 4
$T6 = -16						; size = 4
__$EHRec$ = -12						; size = 12
_pFile$ = 8						; size = 4
_dwObjType$ = 8						; size = 4
?ReadObj@@YAPAVCObj@@PAVCFileIO@@@Z PROC		; ReadObj, COMDAT

; 706  : {

  00000	55		 push	 ebp
  00001	8b ec		 mov	 ebp, esp
  00003	6a ff		 push	 -1
  00005	68 00 00 00 00	 push	 __ehhandler$?ReadObj@@YAPAVCObj@@PAVCFileIO@@@Z
  0000a	64 a1 00 00 00
	00		 mov	 eax, DWORD PTR fs:0
  00010	50		 push	 eax
  00011	51		 push	 ecx
  00012	56		 push	 esi
  00013	57		 push	 edi
  00014	a1 00 00 00 00	 mov	 eax, DWORD PTR ___security_cookie
  00019	33 c5		 xor	 eax, ebp
  0001b	50		 push	 eax
  0001c	8d 45 f4	 lea	 eax, DWORD PTR __$EHRec$[ebp]
  0001f	64 a3 00 00 00
	00		 mov	 DWORD PTR fs:0, eax

; 707  : 	DWORD dwObjType;
; 708  : 	pFile->Read( &dwObjType, sizeof( DWORD ), 1 );

  00025	8b 7d 08	 mov	 edi, DWORD PTR _pFile$[ebp]
  00028	8d 4d 08	 lea	 ecx, DWORD PTR _dwObjType$[ebp]
  0002b	6a 01		 push	 1
  0002d	6a 04		 push	 4
  0002f	51		 push	 ecx
  00030	8b 07		 mov	 eax, DWORD PTR [edi]
  00032	8b cf		 mov	 ecx, edi
  00034	ff 50 2c	 call	 DWORD PTR [eax+44]

; 709  : 
; 710  : 	CObj* pObj = NULL;
; 711  : 	switch( dwObjType )

  00037	8b 45 08	 mov	 eax, DWORD PTR _dwObjType$[ebp]
  0003a	83 f8 07	 cmp	 eax, 7
  0003d	0f 87 1b 01 00
	00		 ja	 $LN10@ReadObj
  00043	ff 24 85 00 00
	00 00		 jmp	 DWORD PTR $LN27@ReadObj[eax*4]
$LN4@ReadObj:

; 712  : 	{
; 713  : 		case OT_OBJ  : pObj = new CObj; break;

  0004a	68 bc 01 00 00	 push	 444			; 000001bcH
  0004f	e8 00 00 00 00	 call	 ??2@YAPAXI@Z		; operator new
  00054	83 c4 04	 add	 esp, 4
  00057	89 45 f0	 mov	 DWORD PTR $T2[ebp], eax
  0005a	c7 45 fc 00 00
	00 00		 mov	 DWORD PTR __$EHRec$[ebp+8], 0
  00061	85 c0		 test	 eax, eax
  00063	0f 84 cd 00 00
	00		 je	 $LN20@ReadObj
  00069	8b c8		 mov	 ecx, eax
  0006b	e8 00 00 00 00	 call	 ??0CObj@@QAE@XZ		; CObj::CObj
  00070	8b f0		 mov	 esi, eax
  00072	e9 c1 00 00 00	 jmp	 $LN21@ReadObj
$LN5@ReadObj:

; 714  : 		case OT_CTRL : pObj = new CCommonCtrl; break;

  00077	68 40 04 00 00	 push	 1088			; 00000440H
  0007c	e8 00 00 00 00	 call	 ??2@YAPAXI@Z		; operator new
  00081	83 c4 04	 add	 esp, 4
  00084	89 45 f0	 mov	 DWORD PTR $T3[ebp], eax
  00087	c7 45 fc 01 00
	00 00		 mov	 DWORD PTR __$EHRec$[ebp+8], 1
  0008e	85 c0		 test	 eax, eax
  00090	0f 84 a0 00 00
	00		 je	 $LN20@ReadObj
  00096	8b c8		 mov	 ecx, eax
  00098	e8 00 00 00 00	 call	 ??0CCommonCtrl@@QAE@XZ	; CCommonCtrl::CCommonCtrl
  0009d	8b f0		 mov	 esi, eax
  0009f	e9 94 00 00 00	 jmp	 $LN21@ReadObj
$LN7@ReadObj:

; 715  : 		case OT_SFX  : 
; 716  : 			#ifdef __CLIENT
; 717  : 				pObj = new CSfx; 
; 718  : 			#endif
; 719  : 			break;  
; 720  : 		case OT_ITEM : pObj = new CItem; break;

  000a4	68 48 02 00 00	 push	 584			; 00000248H
  000a9	e8 00 00 00 00	 call	 ??2@YAPAXI@Z		; operator new
  000ae	83 c4 04	 add	 esp, 4
  000b1	89 45 f0	 mov	 DWORD PTR $T4[ebp], eax
  000b4	c7 45 fc 02 00
	00 00		 mov	 DWORD PTR __$EHRec$[ebp+8], 2
  000bb	85 c0		 test	 eax, eax
  000bd	74 77		 je	 SHORT $LN20@ReadObj
  000bf	8b c8		 mov	 ecx, eax
  000c1	e8 00 00 00 00	 call	 ??0CItem@@QAE@XZ	; CItem::CItem
  000c6	8b f0		 mov	 esi, eax
  000c8	eb 6e		 jmp	 SHORT $LN21@ReadObj
$LN8@ReadObj:

; 721  : 		case OT_MOVER:				// ĆÄŔĎżˇĽ­ ŔĐľîµéŔĚ´Â °ÍŔş ¸đµÎ NPC
; 722  : 			pObj = new CMover; 

  000ca	68 30 15 00 00	 push	 5424			; 00001530H
  000cf	e8 00 00 00 00	 call	 ??2@YAPAXI@Z		; operator new
  000d4	83 c4 04	 add	 esp, 4
  000d7	89 45 f0	 mov	 DWORD PTR $T5[ebp], eax
  000da	c7 45 fc 03 00
	00 00		 mov	 DWORD PTR __$EHRec$[ebp+8], 3
  000e1	85 c0		 test	 eax, eax
  000e3	74 19		 je	 SHORT $LN18@ReadObj
  000e5	8b c8		 mov	 ecx, eax
  000e7	e8 00 00 00 00	 call	 ??0CMover@@QAE@XZ	; CMover::CMover
  000ec	8b f0		 mov	 esi, eax
  000ee	c7 45 fc ff ff
	ff ff		 mov	 DWORD PTR __$EHRec$[ebp+8], -1

; 723  : 			((CMover *)pObj)->InitNPCProperty();

  000f5	8b ce		 mov	 ecx, esi
  000f7	e8 00 00 00 00	 call	 ?InitNPCProperty@CMover@@QAEXXZ ; CMover::InitNPCProperty

; 724  : 			break;

  000fc	eb 41		 jmp	 SHORT $LN2@ReadObj
$LN18@ReadObj:

; 721  : 		case OT_MOVER:				// ĆÄŔĎżˇĽ­ ŔĐľîµéŔĚ´Â °ÍŔş ¸đµÎ NPC
; 722  : 			pObj = new CMover; 

  000fe	33 f6		 xor	 esi, esi
  00100	c7 45 fc ff ff
	ff ff		 mov	 DWORD PTR __$EHRec$[ebp+8], -1

; 723  : 			((CMover *)pObj)->InitNPCProperty();

  00107	8b ce		 mov	 ecx, esi
  00109	e8 00 00 00 00	 call	 ?InitNPCProperty@CMover@@QAEXXZ ; CMover::InitNPCProperty

; 724  : 			break;

  0010e	eb 2f		 jmp	 SHORT $LN2@ReadObj
$LN9@ReadObj:

; 725  : 		case OT_SHIP:	pObj = new CShip;	break;

  00110	68 a8 04 00 00	 push	 1192			; 000004a8H
  00115	e8 00 00 00 00	 call	 ??2@YAPAXI@Z		; operator new
  0011a	83 c4 04	 add	 esp, 4
  0011d	89 45 f0	 mov	 DWORD PTR $T6[ebp], eax
  00120	c7 45 fc 04 00
	00 00		 mov	 DWORD PTR __$EHRec$[ebp+8], 4
  00127	85 c0		 test	 eax, eax
  00129	74 0b		 je	 SHORT $LN20@ReadObj
  0012b	8b c8		 mov	 ecx, eax
  0012d	e8 00 00 00 00	 call	 ??0CShip@@QAE@XZ	; CShip::CShip
  00132	8b f0		 mov	 esi, eax
  00134	eb 02		 jmp	 SHORT $LN21@ReadObj
$LN20@ReadObj:

; 726  : 	}
; 727  : 
; 728  : 	if( pObj ) 

  00136	33 f6		 xor	 esi, esi
$LN21@ReadObj:
  00138	c7 45 fc ff ff
	ff ff		 mov	 DWORD PTR __$EHRec$[ebp+8], -1
$LN2@ReadObj:
  0013f	85 f6		 test	 esi, esi
  00141	74 1b		 je	 SHORT $LN10@ReadObj

; 729  : 	{
; 730  : 		pObj->Read( pFile );

  00143	8b 16		 mov	 edx, DWORD PTR [esi]
  00145	8b ce		 mov	 ecx, esi
  00147	57		 push	 edi
  00148	ff 52 1c	 call	 DWORD PTR [edx+28]

; 731  : 		return pObj;

  0014b	8b c6		 mov	 eax, esi

; 734  : }

  0014d	8b 4d f4	 mov	 ecx, DWORD PTR __$EHRec$[ebp]
  00150	64 89 0d 00 00
	00 00		 mov	 DWORD PTR fs:0, ecx
  00157	59		 pop	 ecx
  00158	5f		 pop	 edi
  00159	5e		 pop	 esi
  0015a	8b e5		 mov	 esp, ebp
  0015c	5d		 pop	 ebp
  0015d	c3		 ret	 0
$LN10@ReadObj:

; 732  : 	}
; 733  : 	return NULL;

  0015e	33 c0		 xor	 eax, eax

; 734  : }

  00160	8b 4d f4	 mov	 ecx, DWORD PTR __$EHRec$[ebp]
  00163	64 89 0d 00 00
	00 00		 mov	 DWORD PTR fs:0, ecx
  0016a	59		 pop	 ecx
  0016b	5f		 pop	 edi
  0016c	5e		 pop	 esi
  0016d	8b e5		 mov	 esp, ebp
  0016f	5d		 pop	 ebp
  00170	c3		 ret	 0
  00171	0f 1f 00	 npad	 3
$LN27@ReadObj:
  00174	00 00 00 00	 DD	 $LN4@ReadObj
  00178	00 00 00 00	 DD	 $LN10@ReadObj
  0017c	00 00 00 00	 DD	 $LN5@ReadObj
  00180	00 00 00 00	 DD	 $LN10@ReadObj
  00184	00 00 00 00	 DD	 $LN7@ReadObj
  00188	00 00 00 00	 DD	 $LN8@ReadObj
  0018c	00 00 00 00	 DD	 $LN10@ReadObj
  00190	00 00 00 00	 DD	 $LN9@ReadObj
_TEXT	ENDS
;	COMDAT text$x
text$x	SEGMENT
__unwindfunclet$?ReadObj@@YAPAVCObj@@PAVCFileIO@@@Z$0:
  00000	68 bc 01 00 00	 push	 444			; 000001bcH
  00005	8b 45 f0	 mov	 eax, DWORD PTR $T2[ebp]
  00008	50		 push	 eax
  00009	e8 00 00 00 00	 call	 ??3@YAXPAXI@Z		; operator delete
  0000e	83 c4 08	 add	 esp, 8
  00011	c3		 ret	 0
__unwindfunclet$?ReadObj@@YAPAVCObj@@PAVCFileIO@@@Z$1:
  00012	68 40 04 00 00	 push	 1088			; 00000440H
  00017	8b 45 f0	 mov	 eax, DWORD PTR $T3[ebp]
  0001a	50		 push	 eax
  0001b	e8 00 00 00 00	 call	 ??3@YAXPAXI@Z		; operator delete
  00020	83 c4 08	 add	 esp, 8
  00023	c3		 ret	 0
__unwindfunclet$?ReadObj@@YAPAVCObj@@PAVCFileIO@@@Z$2:
  00024	68 48 02 00 00	 push	 584			; 00000248H
  00029	8b 45 f0	 mov	 eax, DWORD PTR $T4[ebp]
  0002c	50		 push	 eax
  0002d	e8 00 00 00 00	 call	 ??3@YAXPAXI@Z		; operator delete
  00032	83 c4 08	 add	 esp, 8
  00035	c3		 ret	 0
__unwindfunclet$?ReadObj@@YAPAVCObj@@PAVCFileIO@@@Z$3:
  00036	68 30 15 00 00	 push	 5424			; 00001530H
  0003b	8b 45 f0	 mov	 eax, DWORD PTR $T5[ebp]
  0003e	50		 push	 eax
  0003f	e8 00 00 00 00	 call	 ??3@YAXPAXI@Z		; operator delete
  00044	83 c4 08	 add	 esp, 8
  00047	c3		 ret	 0
__unwindfunclet$?ReadObj@@YAPAVCObj@@PAVCFileIO@@@Z$4:
  00048	68 a8 04 00 00	 push	 1192			; 000004a8H
  0004d	8b 45 f0	 mov	 eax, DWORD PTR $T6[ebp]
  00050	50		 push	 eax
  00051	e8 00 00 00 00	 call	 ??3@YAXPAXI@Z		; operator delete
  00056	83 c4 08	 add	 esp, 8
  00059	c3		 ret	 0
  0005a	cc		 int	 3
  0005b	cc		 int	 3
  0005c	cc		 int	 3
  0005d	cc		 int	 3
  0005e	cc		 int	 3
__ehhandler$?ReadObj@@YAPAVCObj@@PAVCFileIO@@@Z:
  0005f	90		 npad	 1
  00060	90		 npad	 1
  00061	8b 54 24 08	 mov	 edx, DWORD PTR [esp+8]
  00065	8d 42 0c	 lea	 eax, DWORD PTR [edx+12]
  00068	8b 4a f0	 mov	 ecx, DWORD PTR [edx-16]
  0006b	33 c8		 xor	 ecx, eax
  0006d	e8 00 00 00 00	 call	 @__security_check_cookie@4
  00072	b8 00 00 00 00	 mov	 eax, OFFSET __ehfuncinfo$?ReadObj@@YAPAVCObj@@PAVCFileIO@@@Z
  00077	e9 00 00 00 00	 jmp	 ___CxxFrameHandler3
text$x	ENDS
?ReadObj@@YAPAVCObj@@PAVCFileIO@@@Z ENDP		; ReadObj
; Function compile flags: /Ogtp
; File C:\IAGOS\server\v18\Source\Source\_Common\CreateObj.cpp
;	COMDAT ?CreateObj@@YAPAVCObj@@PAUIDirect3DDevice9@@KKH@Z
_TEXT	SEGMENT
__$EHRec$ = -12						; size = 12
_pd3dDevice$ = 8					; size = 4
_dwObjType$ = 12					; size = 4
$T2 = 12						; size = 4
$T3 = 12						; size = 4
$T4 = 12						; size = 4
$T5 = 12						; size = 4
$T6 = 12						; size = 4
$T7 = 12						; size = 4
_dwObjIndex$ = 16					; size = 4
_bInitProp$ = 20					; size = 4
?CreateObj@@YAPAVCObj@@PAUIDirect3DDevice9@@KKH@Z PROC	; CreateObj, COMDAT

; 646  : {

  00000	55		 push	 ebp
  00001	8b ec		 mov	 ebp, esp
  00003	6a ff		 push	 -1
  00005	68 00 00 00 00	 push	 __ehhandler$?CreateObj@@YAPAVCObj@@PAUIDirect3DDevice9@@KKH@Z
  0000a	64 a1 00 00 00
	00		 mov	 eax, DWORD PTR fs:0
  00010	50		 push	 eax
  00011	53		 push	 ebx
  00012	56		 push	 esi
  00013	57		 push	 edi
  00014	a1 00 00 00 00	 mov	 eax, DWORD PTR ___security_cookie
  00019	33 c5		 xor	 eax, ebp
  0001b	50		 push	 eax
  0001c	8d 45 f4	 lea	 eax, DWORD PTR __$EHRec$[ebp]
  0001f	64 a3 00 00 00
	00		 mov	 DWORD PTR fs:0, eax
  00025	8b 7d 0c	 mov	 edi, DWORD PTR _dwObjType$[ebp]

; 647  : 	CObj* pObj = NULL;

  00028	33 f6		 xor	 esi, esi

; 648  : 	switch( dwObjType )

  0002a	8b 5d 10	 mov	 ebx, DWORD PTR _dwObjIndex$[ebp]
  0002d	83 ff 07	 cmp	 edi, 7
  00030	0f 87 57 01 00
	00		 ja	 $LN4@CreateObj
  00036	ff 24 bd 00 00
	00 00		 jmp	 DWORD PTR $LN41@CreateObj[edi*4]
$LN6@CreateObj:

; 649  : 	{
; 650  : 		case OT_OBJ  : pObj = new CObj;			break;

  0003d	68 bc 01 00 00	 push	 444			; 000001bcH
  00042	e8 00 00 00 00	 call	 ??2@YAPAXI@Z		; operator new
  00047	83 c4 04	 add	 esp, 4
  0004a	89 45 0c	 mov	 DWORD PTR $T2[ebp], eax
  0004d	c7 45 fc 00 00
	00 00		 mov	 DWORD PTR __$EHRec$[ebp+8], 0
  00054	85 c0		 test	 eax, eax
  00056	74 1b		 je	 SHORT $LN21@CreateObj
  00058	8b c8		 mov	 ecx, eax
  0005a	e8 00 00 00 00	 call	 ??0CObj@@QAE@XZ		; CObj::CObj
  0005f	8b f0		 mov	 esi, eax

; 672  : 	{
; 673  : 		#ifdef __CLIENT
; 674  : 			((CSfx*)pObj)->SetSfx( pd3dDevice, dwObjIndex, D3DXVECTOR3( 0.0f, 0.0f, 0.0f ), NULL_ID, D3DXVECTOR3( 0.0f, 0.0f, 0.0f ), NULL_ID ); 
; 675  : 		#endif
; 676  : 		return pObj;
; 677  : 	}
; 678  : 	else if( pObj->SetIndex( pd3dDevice, dwObjIndex, bInitProp ) == TRUE )

  00061	c7 45 fc ff ff
	ff ff		 mov	 DWORD PTR __$EHRec$[ebp+8], -1
  00068	89 be 70 01 00
	00		 mov	 DWORD PTR [esi+368], edi
  0006e	e9 25 01 00 00	 jmp	 $LN14@CreateObj
$LN21@CreateObj:
  00073	33 f6		 xor	 esi, esi
  00075	c7 45 fc ff ff
	ff ff		 mov	 DWORD PTR __$EHRec$[ebp+8], -1
  0007c	89 be 70 01 00
	00		 mov	 DWORD PTR [esi+368], edi
  00082	e9 11 01 00 00	 jmp	 $LN14@CreateObj
$LN7@CreateObj:

; 651  : 		case OT_CTRL : pObj = new CCommonCtrl;	break;

  00087	68 40 04 00 00	 push	 1088			; 00000440H
  0008c	e8 00 00 00 00	 call	 ??2@YAPAXI@Z		; operator new
  00091	83 c4 04	 add	 esp, 4
  00094	89 45 0c	 mov	 DWORD PTR $T3[ebp], eax
  00097	c7 45 fc 01 00
	00 00		 mov	 DWORD PTR __$EHRec$[ebp+8], 1
  0009e	85 c0		 test	 eax, eax
  000a0	74 d1		 je	 SHORT $LN21@CreateObj
  000a2	8b c8		 mov	 ecx, eax
  000a4	e8 00 00 00 00	 call	 ??0CCommonCtrl@@QAE@XZ	; CCommonCtrl::CCommonCtrl
  000a9	8b f0		 mov	 esi, eax

; 672  : 	{
; 673  : 		#ifdef __CLIENT
; 674  : 			((CSfx*)pObj)->SetSfx( pd3dDevice, dwObjIndex, D3DXVECTOR3( 0.0f, 0.0f, 0.0f ), NULL_ID, D3DXVECTOR3( 0.0f, 0.0f, 0.0f ), NULL_ID ); 
; 675  : 		#endif
; 676  : 		return pObj;
; 677  : 	}
; 678  : 	else if( pObj->SetIndex( pd3dDevice, dwObjIndex, bInitProp ) == TRUE )

  000ab	c7 45 fc ff ff
	ff ff		 mov	 DWORD PTR __$EHRec$[ebp+8], -1
  000b2	89 be 70 01 00
	00		 mov	 DWORD PTR [esi+368], edi
  000b8	e9 db 00 00 00	 jmp	 $LN14@CreateObj
$LN9@CreateObj:

; 652  : 		case OT_SFX  : 
; 653  : 			#ifdef __CLIENT
; 654  : 				pObj = new CSfx; 
; 655  : 			#else
; 656  : 				return NULL;
; 657  : 			#endif
; 658  : 			break;  
; 659  : 		case OT_ITEM : pObj = new CItem;		break;

  000bd	68 48 02 00 00	 push	 584			; 00000248H
  000c2	e8 00 00 00 00	 call	 ??2@YAPAXI@Z		; operator new
  000c7	83 c4 04	 add	 esp, 4
  000ca	89 45 0c	 mov	 DWORD PTR $T4[ebp], eax
  000cd	c7 45 fc 02 00
	00 00		 mov	 DWORD PTR __$EHRec$[ebp+8], 2
  000d4	85 c0		 test	 eax, eax
  000d6	74 9b		 je	 SHORT $LN21@CreateObj
  000d8	8b c8		 mov	 ecx, eax
  000da	e8 00 00 00 00	 call	 ??0CItem@@QAE@XZ	; CItem::CItem
  000df	8b f0		 mov	 esi, eax

; 672  : 	{
; 673  : 		#ifdef __CLIENT
; 674  : 			((CSfx*)pObj)->SetSfx( pd3dDevice, dwObjIndex, D3DXVECTOR3( 0.0f, 0.0f, 0.0f ), NULL_ID, D3DXVECTOR3( 0.0f, 0.0f, 0.0f ), NULL_ID ); 
; 675  : 		#endif
; 676  : 		return pObj;
; 677  : 	}
; 678  : 	else if( pObj->SetIndex( pd3dDevice, dwObjIndex, bInitProp ) == TRUE )

  000e1	c7 45 fc ff ff
	ff ff		 mov	 DWORD PTR __$EHRec$[ebp+8], -1
  000e8	89 be 70 01 00
	00		 mov	 DWORD PTR [esi+368], edi
  000ee	e9 a5 00 00 00	 jmp	 $LN14@CreateObj
$LN10@CreateObj:

; 660  : 		case OT_MOVER: pObj = new CMover;		break;

  000f3	68 30 15 00 00	 push	 5424			; 00001530H
  000f8	e8 00 00 00 00	 call	 ??2@YAPAXI@Z		; operator new
  000fd	83 c4 04	 add	 esp, 4
  00100	89 45 0c	 mov	 DWORD PTR $T5[ebp], eax
  00103	c7 45 fc 03 00
	00 00		 mov	 DWORD PTR __$EHRec$[ebp+8], 3
  0010a	85 c0		 test	 eax, eax
  0010c	0f 84 61 ff ff
	ff		 je	 $LN21@CreateObj
  00112	8b c8		 mov	 ecx, eax
  00114	e8 00 00 00 00	 call	 ??0CMover@@QAE@XZ	; CMover::CMover
  00119	8b f0		 mov	 esi, eax

; 672  : 	{
; 673  : 		#ifdef __CLIENT
; 674  : 			((CSfx*)pObj)->SetSfx( pd3dDevice, dwObjIndex, D3DXVECTOR3( 0.0f, 0.0f, 0.0f ), NULL_ID, D3DXVECTOR3( 0.0f, 0.0f, 0.0f ), NULL_ID ); 
; 675  : 		#endif
; 676  : 		return pObj;
; 677  : 	}
; 678  : 	else if( pObj->SetIndex( pd3dDevice, dwObjIndex, bInitProp ) == TRUE )

  0011b	c7 45 fc ff ff
	ff ff		 mov	 DWORD PTR __$EHRec$[ebp+8], -1
  00122	89 be 70 01 00
	00		 mov	 DWORD PTR [esi+368], edi
  00128	eb 6e		 jmp	 SHORT $LN14@CreateObj
$LN11@CreateObj:

; 661  : 		case OT_SHIP:	
; 662  : 			switch( dwObjIndex )

  0012a	68 a8 04 00 00	 push	 1192			; 000004a8H
  0012f	e8 00 00 00 00	 call	 ??2@YAPAXI@Z		; operator new
  00134	83 c4 04	 add	 esp, 4
  00137	89 45 0c	 mov	 DWORD PTR $T7[ebp], eax
  0013a	83 fb 04	 cmp	 ebx, 4
  0013d	74 27		 je	 SHORT $LN12@CreateObj

; 665  : 			default:	pObj = new CShip;		break;

  0013f	c7 45 fc 05 00
	00 00		 mov	 DWORD PTR __$EHRec$[ebp+8], 5
  00146	85 c0		 test	 eax, eax
  00148	0f 84 25 ff ff
	ff		 je	 $LN21@CreateObj
  0014e	8b c8		 mov	 ecx, eax
  00150	e8 00 00 00 00	 call	 ??0CShip@@QAE@XZ	; CShip::CShip
  00155	8b f0		 mov	 esi, eax

; 672  : 	{
; 673  : 		#ifdef __CLIENT
; 674  : 			((CSfx*)pObj)->SetSfx( pd3dDevice, dwObjIndex, D3DXVECTOR3( 0.0f, 0.0f, 0.0f ), NULL_ID, D3DXVECTOR3( 0.0f, 0.0f, 0.0f ), NULL_ID ); 
; 675  : 		#endif
; 676  : 		return pObj;
; 677  : 	}
; 678  : 	else if( pObj->SetIndex( pd3dDevice, dwObjIndex, bInitProp ) == TRUE )

  00157	c7 45 fc ff ff
	ff ff		 mov	 DWORD PTR __$EHRec$[ebp+8], -1
  0015e	89 be 70 01 00
	00		 mov	 DWORD PTR [esi+368], edi
  00164	eb 32		 jmp	 SHORT $LN14@CreateObj
$LN12@CreateObj:

; 663  : 			{
; 664  : 			case 4:		pObj = new CShipLoop;	break;

  00166	c7 45 fc 04 00
	00 00		 mov	 DWORD PTR __$EHRec$[ebp+8], 4
  0016d	85 c0		 test	 eax, eax
  0016f	0f 84 fe fe ff
	ff		 je	 $LN21@CreateObj
  00175	8b c8		 mov	 ecx, eax
  00177	e8 00 00 00 00	 call	 ??0CShipLoop@@QAE@XZ	; CShipLoop::CShipLoop
  0017c	8b f0		 mov	 esi, eax

; 672  : 	{
; 673  : 		#ifdef __CLIENT
; 674  : 			((CSfx*)pObj)->SetSfx( pd3dDevice, dwObjIndex, D3DXVECTOR3( 0.0f, 0.0f, 0.0f ), NULL_ID, D3DXVECTOR3( 0.0f, 0.0f, 0.0f ), NULL_ID ); 
; 675  : 		#endif
; 676  : 		return pObj;
; 677  : 	}
; 678  : 	else if( pObj->SetIndex( pd3dDevice, dwObjIndex, bInitProp ) == TRUE )

  0017e	c7 45 fc ff ff
	ff ff		 mov	 DWORD PTR __$EHRec$[ebp+8], -1
  00185	89 be 70 01 00
	00		 mov	 DWORD PTR [esi+368], edi
  0018b	eb 0b		 jmp	 SHORT $LN14@CreateObj
$LN4@CreateObj:

; 666  : 			}
; 667  : 			break;
; 668  : 	}
; 669  : 	pObj->m_dwType = dwObjType;

  0018d	89 be 70 01 00
	00		 mov	 DWORD PTR [esi+368], edi

; 670  : 
; 671  : 	if( pObj && pObj->GetType() == OT_SFX )

  00193	83 ff 03	 cmp	 edi, 3
  00196	74 60		 je	 SHORT $LN18@CreateObj
$LN14@CreateObj:

; 672  : 	{
; 673  : 		#ifdef __CLIENT
; 674  : 			((CSfx*)pObj)->SetSfx( pd3dDevice, dwObjIndex, D3DXVECTOR3( 0.0f, 0.0f, 0.0f ), NULL_ID, D3DXVECTOR3( 0.0f, 0.0f, 0.0f ), NULL_ID ); 
; 675  : 		#endif
; 676  : 		return pObj;
; 677  : 	}
; 678  : 	else if( pObj->SetIndex( pd3dDevice, dwObjIndex, bInitProp ) == TRUE )

  00198	ff 75 14	 push	 DWORD PTR _bInitProp$[ebp]
  0019b	8b 06		 mov	 eax, DWORD PTR [esi]
  0019d	8b ce		 mov	 ecx, esi
  0019f	53		 push	 ebx
  001a0	ff 75 08	 push	 DWORD PTR _pd3dDevice$[ebp]
  001a3	ff 50 2c	 call	 DWORD PTR [eax+44]
  001a6	83 f8 01	 cmp	 eax, 1
  001a9	75 61		 jne	 SHORT $LN16@CreateObj

; 679  : 	{
; 680  : 		pObj->SetMotion( MTI_STAND );

  001ab	8b 06		 mov	 eax, DWORD PTR [esi]
  001ad	8b ce		 mov	 ecx, esi
  001af	6a 00		 push	 0
  001b1	6a 04		 push	 4
  001b3	6a 00		 push	 0
  001b5	ff 50 04	 call	 DWORD PTR [eax+4]

; 681  : 		// ˝şÇÇµĺ¸¦ ĽłÁ¤ÇĎ·Á¸é ÇöŔç·ÎĽ± ŔĚĽöąŰżˇ....ÁżÄˇľČĹ¸.
; 682  : 		if( dwObjType == OT_MOVER )

  001b8	83 ff 05	 cmp	 edi, 5
  001bb	75 3b		 jne	 SHORT $LN18@CreateObj

; 683  : 		{
; 684  : 			CMover *pMover = (CMover *)pObj;
; 685  : 			pMover->m_pActMover->m_fSpeed = pMover->GetProp()->fSpeed;

  001bd	8b ce		 mov	 ecx, esi
  001bf	e8 00 00 00 00	 call	 ?GetPropA@CMover@@QAEPAUMoverProp@@XZ ; CMover::GetPropA
  001c4	8b 8e 38 02 00
	00		 mov	 ecx, DWORD PTR [esi+568]
  001ca	8b 80 08 01 00
	00		 mov	 eax, DWORD PTR [eax+264]
  001d0	89 41 48	 mov	 DWORD PTR [ecx+72], eax

; 686  : #if __VER >= 9	//__AI_0509
; 687  : 			MoverProp* pProp	= pMover->GetProp();

  001d3	8b ce		 mov	 ecx, esi
  001d5	e8 00 00 00 00	 call	 ?GetPropA@CMover@@QAEPAUMoverProp@@XZ ; CMover::GetPropA

; 688  : 			if( pProp->dwAI == AII_MONSTER )

  001da	83 78 48 02	 cmp	 DWORD PTR [eax+72], 2
  001de	75 18		 jne	 SHORT $LN18@CreateObj

; 689  : 			{
; 690  : 				pMover->m_pActMover->m_fSpeed	/= 2.0F;

  001e0	8b 86 38 02 00
	00		 mov	 eax, DWORD PTR [esi+568]
  001e6	f3 0f 10 40 48	 movss	 xmm0, DWORD PTR [eax+72]
  001eb	f3 0f 59 05 00
	00 00 00	 mulss	 xmm0, DWORD PTR __real@3f000000
  001f3	f3 0f 11 40 48	 movss	 DWORD PTR [eax+72], xmm0
$LN18@CreateObj:

; 701  : 	return NULL;
; 702  : }

  001f8	8b c6		 mov	 eax, esi
  001fa	8b 4d f4	 mov	 ecx, DWORD PTR __$EHRec$[ebp]
  001fd	64 89 0d 00 00
	00 00		 mov	 DWORD PTR fs:0, ecx
  00204	59		 pop	 ecx
  00205	5f		 pop	 edi
  00206	5e		 pop	 esi
  00207	5b		 pop	 ebx
  00208	8b e5		 mov	 esp, ebp
  0020a	5d		 pop	 ebp
  0020b	c3		 ret	 0
$LN16@CreateObj:

; 691  : //				if( pProp->dwClass == RANK_SUPER )
; 692  : //					pMover->m_pActMover->m_fSpeed	*= 1.5F;
; 693  : 			}
; 694  : #endif	// __AI_0509
; 695  : 		}
; 696  : 		return pObj;
; 697  : 	}
; 698  : 
; 699  : 	Error( "CreateObj : type=%d, index=%d, bInitProp=%d", dwObjType, dwObjIndex, bInitProp );

  0020c	ff 75 14	 push	 DWORD PTR _bInitProp$[ebp]
  0020f	53		 push	 ebx
  00210	57		 push	 edi
  00211	68 00 00 00 00	 push	 OFFSET ??_C@_0CM@LGAFIKMJ@CreateObj?5?3?5type?$DN?$CFd?0?5index?$DN?$CFd?0?5@
  00216	e8 00 00 00 00	 call	 ?Error@@YAPBDPBDZZ	; Error

; 700  : 	SAFE_DELETE( pObj );

  0021b	8b 06		 mov	 eax, DWORD PTR [esi]
  0021d	83 c4 10	 add	 esp, 16			; 00000010H
  00220	8b ce		 mov	 ecx, esi
  00222	6a 01		 push	 1
  00224	ff 10		 call	 DWORD PTR [eax]
$LN8@CreateObj:

; 701  : 	return NULL;
; 702  : }

  00226	33 c0		 xor	 eax, eax
  00228	8b 4d f4	 mov	 ecx, DWORD PTR __$EHRec$[ebp]
  0022b	64 89 0d 00 00
	00 00		 mov	 DWORD PTR fs:0, ecx
  00232	59		 pop	 ecx
  00233	5f		 pop	 edi
  00234	5e		 pop	 esi
  00235	5b		 pop	 ebx
  00236	8b e5		 mov	 esp, ebp
  00238	5d		 pop	 ebp
  00239	c3		 ret	 0
  0023a	66 90		 npad	 2
$LN41@CreateObj:
  0023c	00 00 00 00	 DD	 $LN6@CreateObj
  00240	00 00 00 00	 DD	 $LN4@CreateObj
  00244	00 00 00 00	 DD	 $LN7@CreateObj
  00248	00 00 00 00	 DD	 $LN8@CreateObj
  0024c	00 00 00 00	 DD	 $LN9@CreateObj
  00250	00 00 00 00	 DD	 $LN10@CreateObj
  00254	00 00 00 00	 DD	 $LN4@CreateObj
  00258	00 00 00 00	 DD	 $LN11@CreateObj
_TEXT	ENDS
;	COMDAT text$x
text$x	SEGMENT
__unwindfunclet$?CreateObj@@YAPAVCObj@@PAUIDirect3DDevice9@@KKH@Z$0:
  00000	68 bc 01 00 00	 push	 444			; 000001bcH
  00005	8b 45 0c	 mov	 eax, DWORD PTR $T2[ebp]
  00008	50		 push	 eax
  00009	e8 00 00 00 00	 call	 ??3@YAXPAXI@Z		; operator delete
  0000e	83 c4 08	 add	 esp, 8
  00011	c3		 ret	 0
__unwindfunclet$?CreateObj@@YAPAVCObj@@PAUIDirect3DDevice9@@KKH@Z$1:
  00012	68 40 04 00 00	 push	 1088			; 00000440H
  00017	8b 45 0c	 mov	 eax, DWORD PTR $T3[ebp]
  0001a	50		 push	 eax
  0001b	e8 00 00 00 00	 call	 ??3@YAXPAXI@Z		; operator delete
  00020	83 c4 08	 add	 esp, 8
  00023	c3		 ret	 0
__unwindfunclet$?CreateObj@@YAPAVCObj@@PAUIDirect3DDevice9@@KKH@Z$2:
  00024	68 48 02 00 00	 push	 584			; 00000248H
  00029	8b 45 0c	 mov	 eax, DWORD PTR $T4[ebp]
  0002c	50		 push	 eax
  0002d	e8 00 00 00 00	 call	 ??3@YAXPAXI@Z		; operator delete
  00032	83 c4 08	 add	 esp, 8
  00035	c3		 ret	 0
__unwindfunclet$?CreateObj@@YAPAVCObj@@PAUIDirect3DDevice9@@KKH@Z$3:
  00036	68 30 15 00 00	 push	 5424			; 00001530H
  0003b	8b 45 0c	 mov	 eax, DWORD PTR $T5[ebp]
  0003e	50		 push	 eax
  0003f	e8 00 00 00 00	 call	 ??3@YAXPAXI@Z		; operator delete
  00044	83 c4 08	 add	 esp, 8
  00047	c3		 ret	 0
__unwindfunclet$?CreateObj@@YAPAVCObj@@PAUIDirect3DDevice9@@KKH@Z$5:
  00048	68 a8 04 00 00	 push	 1192			; 000004a8H
  0004d	8b 45 0c	 mov	 eax, DWORD PTR $T7[ebp]
  00050	50		 push	 eax
  00051	e8 00 00 00 00	 call	 ??3@YAXPAXI@Z		; operator delete
  00056	83 c4 08	 add	 esp, 8
  00059	c3		 ret	 0
__unwindfunclet$?CreateObj@@YAPAVCObj@@PAUIDirect3DDevice9@@KKH@Z$4:
  0005a	68 a8 04 00 00	 push	 1192			; 000004a8H
  0005f	8b 45 0c	 mov	 eax, DWORD PTR $T6[ebp]
  00062	50		 push	 eax
  00063	e8 00 00 00 00	 call	 ??3@YAXPAXI@Z		; operator delete
  00068	83 c4 08	 add	 esp, 8
  0006b	c3		 ret	 0
  0006c	cc		 int	 3
  0006d	cc		 int	 3
  0006e	cc		 int	 3
  0006f	cc		 int	 3
  00070	cc		 int	 3
__ehhandler$?CreateObj@@YAPAVCObj@@PAUIDirect3DDevice9@@KKH@Z:
  00071	90		 npad	 1
  00072	90		 npad	 1
  00073	8b 54 24 08	 mov	 edx, DWORD PTR [esp+8]
  00077	8d 42 0c	 lea	 eax, DWORD PTR [edx+12]
  0007a	8b 4a f0	 mov	 ecx, DWORD PTR [edx-16]
  0007d	33 c8		 xor	 ecx, eax
  0007f	e8 00 00 00 00	 call	 @__security_check_cookie@4
  00084	b8 00 00 00 00	 mov	 eax, OFFSET __ehfuncinfo$?CreateObj@@YAPAVCObj@@PAUIDirect3DDevice9@@KKH@Z
  00089	e9 00 00 00 00	 jmp	 ___CxxFrameHandler3
text$x	ENDS
?CreateObj@@YAPAVCObj@@PAUIDirect3DDevice9@@KKH@Z ENDP	; CreateObj
; Function compile flags: /Ogtp
; File C:\IAGOS\server\v18\Source\Source\_Common\CreateObj.cpp
;	COMDAT ?CreateMover@@YAPAVCMover@@PAVCWorld@@KABUD3DXVECTOR3@@H@Z
_TEXT	SEGMENT
_pWorld$ = 8						; size = 4
_dwID$ = 12						; size = 4
_vPos$ = 16						; size = 4
_nLayer$ = 20						; size = 4
?CreateMover@@YAPAVCMover@@PAVCWorld@@KABUD3DXVECTOR3@@H@Z PROC ; CreateMover, COMDAT

; 629  : {

  00000	55		 push	 ebp
  00001	8b ec		 mov	 ebp, esp
  00003	56		 push	 esi

; 630  : 	CMover *pMover;
; 631  : 
; 632  : 	pMover = (CMover *)CreateObj( D3DDEVICE, OT_MOVER, dwID );

  00004	6a 01		 push	 1
  00006	ff 75 0c	 push	 DWORD PTR _dwID$[ebp]
  00009	6a 05		 push	 5
  0000b	6a 00		 push	 0
  0000d	e8 00 00 00 00	 call	 ?CreateObj@@YAPAVCObj@@PAUIDirect3DDevice9@@KKH@Z ; CreateObj
  00012	8b f0		 mov	 esi, eax
  00014	83 c4 10	 add	 esp, 16			; 00000010H

; 633  : 	if( pMover == NULL )	

  00017	85 f6		 test	 esi, esi
  00019	75 03		 jne	 SHORT $LN2@CreateMove
  0001b	5e		 pop	 esi

; 643  : }

  0001c	5d		 pop	 ebp
  0001d	c3		 ret	 0
$LN2@CreateMove:

; 634  : 		return NULL;
; 635  : 	pMover->SetPos( vPos );

  0001e	ff 75 10	 push	 DWORD PTR _vPos$[ebp]
  00021	8b ce		 mov	 ecx, esi
  00023	e8 00 00 00 00	 call	 ?SetPos@CObj@@QAEXABUD3DXVECTOR3@@@Z ; CObj::SetPos

; 636  : 	pMover->InitMotion( MTI_STAND );

  00028	8b 06		 mov	 eax, DWORD PTR [esi]
  0002a	8b ce		 mov	 ecx, esi
  0002c	6a 00		 push	 0
  0002e	ff 50 08	 call	 DWORD PTR [eax+8]

; 637  : 	pMover->UpdateLocalMatrix();

  00031	8b ce		 mov	 ecx, esi
  00033	e8 00 00 00 00	 call	 ?UpdateLocalMatrix@CObj@@QAEXXZ ; CObj::UpdateLocalMatrix

; 638  : 	
; 639  : 	pMover->AddItToGlobalId();

  00038	8b 06		 mov	 eax, DWORD PTR [esi]
  0003a	8b ce		 mov	 ecx, esi
  0003c	ff 50 3c	 call	 DWORD PTR [eax+60]

; 640  : 	pWorld->ADDOBJ( pMover, FALSE, nLayer );

  0003f	ff 75 14	 push	 DWORD PTR _nLayer$[ebp]
  00042	8b 4d 08	 mov	 ecx, DWORD PTR _pWorld$[ebp]
  00045	6a 00		 push	 0
  00047	56		 push	 esi
  00048	e8 00 00 00 00	 call	 ?AddObj@CWorld@@QAEHPAVCObj@@HH@Z ; CWorld::AddObj

; 641  : 
; 642  : 	return pMover;

  0004d	8b c6		 mov	 eax, esi
  0004f	5e		 pop	 esi

; 643  : }

  00050	5d		 pop	 ebp
  00051	c3		 ret	 0
?CreateMover@@YAPAVCMover@@PAVCWorld@@KABUD3DXVECTOR3@@H@Z ENDP ; CreateMover
_TEXT	ENDS
; Function compile flags: /Ogtp
; File C:\IAGOS\server\v18\Source\Source\_Common\Mover.h
; File C:\IAGOS\server\v18\Source\Source\_Common\Project.h
; File C:\IAGOS\server\v18\Source\Source\_Common\Mover.h
; File C:\IAGOS\server\v18\Source\Source\_Common\Project.h
; File C:\IAGOS\server\v18\Source\Source\_Common\Mover.h
;	COMDAT ?GetPropA@CMover@@QAEPAUMoverProp@@XZ
_TEXT	SEGMENT
?GetPropA@CMover@@QAEPAUMoverProp@@XZ PROC		; CMover::GetPropA, COMDAT
; _this$ = ecx

; 1020 : 	MoverProp*		GetProp() { return prj.GetMoverProp( m_dwIndex ); }	// °´ĂĽŔÇ ÇÁ·ÎĆŰĆĽ ľň±â 	

  00000	8b 81 74 01 00
	00		 mov	 eax, DWORD PTR [ecx+372]
; File C:\IAGOS\server\v18\Source\Source\_Common\Project.h

; 1406 : 	VERIFY_RANGE( nIndex, 0, m_nMoverPropSize, "GetMoverProp range_error", NULL );

  00006	8b 0d b4 01 00
	00		 mov	 ecx, DWORD PTR ?prj@@3VCProject@@A+436
  0000c	85 c0		 test	 eax, eax
  0000e	78 11		 js	 SHORT $LN8@GetPropA
  00010	3b c1		 cmp	 eax, ecx
  00012	7d 0d		 jge	 SHORT $LN8@GetPropA

; 1407 : 	return m_pPropMover + nIndex;

  00014	69 c0 90 06 00
	00		 imul	 eax, eax, 1680
  0001a	03 05 b8 01 00
	00		 add	 eax, DWORD PTR ?prj@@3VCProject@@A+440
; File C:\IAGOS\server\v18\Source\Source\_Common\Mover.h

; 1020 : 	MoverProp*		GetProp() { return prj.GetMoverProp( m_dwIndex ); }	// °´ĂĽŔÇ ÇÁ·ÎĆŰĆĽ ľň±â 	

  00020	c3		 ret	 0
$LN8@GetPropA:
; File C:\IAGOS\server\v18\Source\Source\_Common\Project.h

; 579  : 	LPCTSTR szErr = Error( _T( "%s min:%d, max:%d, index:%d" ), szMsg, nMin, nMax, nIndex ); 

  00021	50		 push	 eax
  00022	51		 push	 ecx
  00023	6a 00		 push	 0
  00025	68 00 00 00 00	 push	 OFFSET ??_C@_0BJ@GKPOBPPI@GetMoverProp?5range_error@
  0002a	68 00 00 00 00	 push	 OFFSET ??_C@_0BM@HMFGHCP@?$CFs?5min?3?$CFd?0?5max?3?$CFd?0?5index?3?$CFd@
  0002f	e8 00 00 00 00	 call	 ?Error@@YAPBDPBDZZ	; Error
  00034	83 c4 14	 add	 esp, 20			; 00000014H
; File C:\IAGOS\server\v18\Source\Source\_Common\Mover.h

; 1020 : 	MoverProp*		GetProp() { return prj.GetMoverProp( m_dwIndex ); }	// °´ĂĽŔÇ ÇÁ·ÎĆŰĆĽ ľň±â 	

  00037	33 c0		 xor	 eax, eax
  00039	c3		 ret	 0
?GetPropA@CMover@@QAEPAUMoverProp@@XZ ENDP		; CMover::GetPropA
_TEXT	ENDS
; Function compile flags: /Ogtp
; File C:\IAGOS\server\v18\Source\Source\_Common\CreateObj.cpp
;	COMDAT ?__empty_global_delete@@YAXPAXI@Z
_TEXT	SEGMENT
___formal$ = 8						; size = 4
___formal$ = 12						; size = 4
?__empty_global_delete@@YAXPAXI@Z PROC			; __empty_global_delete, COMDAT

  00000	c2 00 00	 ret	 0
?__empty_global_delete@@YAXPAXI@Z ENDP			; __empty_global_delete
_TEXT	ENDS
; Function compile flags: /Ogtp
; File C:\IAGOS\server\v18\Source\Source\_Common\CreateObj.cpp
;	COMDAT ?__empty_global_delete@@YAXPAX@Z
_TEXT	SEGMENT
___formal$ = 8						; size = 4
?__empty_global_delete@@YAXPAX@Z PROC			; __empty_global_delete, COMDAT

  00000	c2 00 00	 ret	 0
?__empty_global_delete@@YAXPAX@Z ENDP			; __empty_global_delete
_TEXT	ENDS
END
