; Listing generated by Microsoft (R) Optimizing Compiler Version 19.44.35225.0 

	TITLE	C:\IAGOS\server\v18\Source\Output\WorldServer\Release\CreateMonster.obj
	.686P
	.XMM
	include listing.inc
	.model	flat

INCLUDELIB LIBCMT
INCLUDELIB OLDNAMES

CONST	SEGMENT
?piecewise_construct@std@@3Upiecewise_construct_t@1@B	ORG $+1 ; std::piecewise_construct
CONST	ENDS
PUBLIC	?__empty_global_delete@@YAXPAX@Z		; __empty_global_delete
PUBLIC	?__empty_global_delete@@YAXPAXI@Z		; __empty_global_delete
PUBLIC	___local_stdio_printf_options
PUBLIC	_sprintf
PUBLIC	??0exception@std@@QAE@ABV01@@Z			; std::exception::exception
PUBLIC	??1exception@std@@UAE@XZ			; std::exception::~exception
PUBLIC	?what@exception@std@@UBEPBDXZ			; std::exception::what
PUBLIC	??_Gexception@std@@UAEPAXI@Z			; std::exception::`scalar deleting destructor'
PUBLIC	??0bad_alloc@std@@QAE@ABV01@@Z			; std::bad_alloc::bad_alloc
PUBLIC	??_Gbad_alloc@std@@UAEPAXI@Z			; std::bad_alloc::`scalar deleting destructor'
PUBLIC	??0bad_array_new_length@std@@QAE@XZ		; std::bad_array_new_length::bad_array_new_length
PUBLIC	??1bad_array_new_length@std@@UAE@XZ		; std::bad_array_new_length::~bad_array_new_length
PUBLIC	??0bad_array_new_length@std@@QAE@ABV01@@Z	; std::bad_array_new_length::bad_array_new_length
PUBLIC	??_Gbad_array_new_length@std@@UAEPAXI@Z		; std::bad_array_new_length::`scalar deleting destructor'
PUBLIC	?_Throw_bad_array_new_length@std@@YAXXZ		; std::_Throw_bad_array_new_length
PUBLIC	?_Throw_tree_length_error@std@@YAXXZ		; std::_Throw_tree_length_error
PUBLIC	??0_LogItemInfo@@QAE@XZ				; _LogItemInfo::_LogItemInfo
PUBLIC	??1?$_Tree@V?$_Tmap_traits@KHU?$less@K@std@@V?$allocator@U?$pair@$$CBKH@std@@@2@$0A@@std@@@std@@QAE@XZ ; std::_Tree<std::_Tmap_traits<unsigned long,int,std::less<unsigned long>,std::allocator<std::pair<unsigned long const ,int> >,0> >::~_Tree<std::_Tmap_traits<unsigned long,int,std::less<unsigned long>,std::allocator<std::pair<unsigned long const ,int> >,0> >
PUBLIC	?_Insert_node@?$_Tree_val@U?$_Tree_simple_types@U?$pair@$$CBKH@std@@@std@@@std@@QAEPAU?$_Tree_node@U?$pair@$$CBKH@std@@PAX@2@U?$_Tree_id@PAU?$_Tree_node@U?$pair@$$CBKH@std@@PAX@std@@@2@QAU32@@Z ; std::_Tree_val<std::_Tree_simple_types<std::pair<unsigned long const ,int> > >::_Insert_node
PUBLIC	?GetAtId@?$CItemContainer@VCItemElem@@@@QAEPAVCItemElem@@K@Z ; CItemContainer<CItemElem>::GetAtId
PUBLIC	??$_Erase_tree@V?$allocator@U?$_Tree_node@U?$pair@$$CBKH@std@@PAX@std@@@std@@@?$_Tree_val@U?$_Tree_simple_types@U?$pair@$$CBKH@std@@@std@@@std@@QAEXAAV?$allocator@U?$_Tree_node@U?$pair@$$CBKH@std@@PAX@std@@@1@PAU?$_Tree_node@U?$pair@$$CBKH@std@@PAX@1@@Z ; std::_Tree_val<std::_Tree_simple_types<std::pair<unsigned long const ,int> > >::_Erase_tree<std::allocator<std::_Tree_node<std::pair<unsigned long const ,int>,void *> > >
PUBLIC	??$_Allocate_manually_vector_aligned@U_Default_allocate_traits@std@@@std@@YAPAXI@Z ; std::_Allocate_manually_vector_aligned<std::_Default_allocate_traits>
PUBLIC	??0CCreateMonster@@QAE@XZ			; CCreateMonster::CCreateMonster
PUBLIC	??1CCreateMonster@@QAE@XZ			; CCreateMonster::~CCreateMonster
PUBLIC	?GetInstance@CCreateMonster@@SAPAV1@XZ		; CCreateMonster::GetInstance
PUBLIC	?LoadScript@CCreateMonster@@QAEXXZ		; CCreateMonster::LoadScript
PUBLIC	?SetState@CCreateMonster@@QAEXKD@Z		; CCreateMonster::SetState
PUBLIC	?ProcessRemoveMonster@CCreateMonster@@QAEXXZ	; CCreateMonster::ProcessRemoveMonster
PUBLIC	?IsAttackAble@CCreateMonster@@QAEHPAVCUser@@PAVCMover@@H@Z ; CCreateMonster::IsAttackAble
PUBLIC	?CreateMonster@CCreateMonster@@QAEXPAVCUser@@KUD3DXVECTOR3@@@Z ; CCreateMonster::CreateMonster
PUBLIC	?RemoveInfo@CCreateMonster@@QAEXPAVCMover@@@Z	; CCreateMonster::RemoveInfo
PUBLIC	?GetCreateMonsterProp@CCreateMonster@@AAEPAUCREATE_MONSTER_PROP@@PAVCItemElem@@@Z ; CCreateMonster::GetCreateMonsterProp
PUBLIC	??1?$_Tree@V?$_Tmap_traits@KPAUCREATE_MONSTER_PROP@@U?$less@K@std@@V?$allocator@U?$pair@$$CBKPAUCREATE_MONSTER_PROP@@@std@@@3@$0A@@std@@@std@@QAE@XZ ; std::_Tree<std::_Tmap_traits<unsigned long,CREATE_MONSTER_PROP *,std::less<unsigned long>,std::allocator<std::pair<unsigned long const ,CREATE_MONSTER_PROP *> >,0> >::~_Tree<std::_Tmap_traits<unsigned long,CREATE_MONSTER_PROP *,std::less<unsigned long>,std::allocator<std::pair<unsigned long const ,CREATE_MONSTER_PROP *> >,0> >
PUBLIC	?_Insert_node@?$_Tree_val@U?$_Tree_simple_types@U?$pair@$$CBKPAUCREATE_MONSTER_PROP@@@std@@@std@@@std@@QAEPAU?$_Tree_node@U?$pair@$$CBKPAUCREATE_MONSTER_PROP@@@std@@PAX@2@U?$_Tree_id@PAU?$_Tree_node@U?$pair@$$CBKPAUCREATE_MONSTER_PROP@@@std@@PAX@std@@@2@QAU32@@Z ; std::_Tree_val<std::_Tree_simple_types<std::pair<unsigned long const ,CREATE_MONSTER_PROP *> > >::_Insert_node
PUBLIC	??1?$map@KPAUCREATE_MONSTER_PROP@@U?$less@K@std@@V?$allocator@U?$pair@$$CBKPAUCREATE_MONSTER_PROP@@@std@@@3@@std@@QAE@XZ ; std::map<unsigned long,CREATE_MONSTER_PROP *,std::less<unsigned long>,std::allocator<std::pair<unsigned long const ,CREATE_MONSTER_PROP *> > >::~map<unsigned long,CREATE_MONSTER_PROP *,std::less<unsigned long>,std::allocator<std::pair<unsigned long const ,CREATE_MONSTER_PROP *> > >
PUBLIC	??1?$_Tree@V?$_Tmap_traits@KUCREATE_MONSTER_INFO@@U?$less@K@std@@V?$allocator@U?$pair@$$CBKUCREATE_MONSTER_INFO@@@std@@@3@$0A@@std@@@std@@QAE@XZ ; std::_Tree<std::_Tmap_traits<unsigned long,CREATE_MONSTER_INFO,std::less<unsigned long>,std::allocator<std::pair<unsigned long const ,CREATE_MONSTER_INFO> >,0> >::~_Tree<std::_Tmap_traits<unsigned long,CREATE_MONSTER_INFO,std::less<unsigned long>,std::allocator<std::pair<unsigned long const ,CREATE_MONSTER_INFO> >,0> >
PUBLIC	?_Lrotate@?$_Tree_val@U?$_Tree_simple_types@U?$pair@$$CBKUCREATE_MONSTER_INFO@@@std@@@std@@@std@@QAEXPAU?$_Tree_node@U?$pair@$$CBKUCREATE_MONSTER_INFO@@@std@@PAX@2@@Z ; std::_Tree_val<std::_Tree_simple_types<std::pair<unsigned long const ,CREATE_MONSTER_INFO> > >::_Lrotate
PUBLIC	?_Rrotate@?$_Tree_val@U?$_Tree_simple_types@U?$pair@$$CBKUCREATE_MONSTER_INFO@@@std@@@std@@@std@@QAEXPAU?$_Tree_node@U?$pair@$$CBKUCREATE_MONSTER_INFO@@@std@@PAX@2@@Z ; std::_Tree_val<std::_Tree_simple_types<std::pair<unsigned long const ,CREATE_MONSTER_INFO> > >::_Rrotate
PUBLIC	?_Extract@?$_Tree_val@U?$_Tree_simple_types@U?$pair@$$CBKUCREATE_MONSTER_INFO@@@std@@@std@@@std@@QAEPAU?$_Tree_node@U?$pair@$$CBKUCREATE_MONSTER_INFO@@@std@@PAX@2@V?$_Tree_unchecked_const_iterator@V?$_Tree_val@U?$_Tree_simple_types@U?$pair@$$CBKUCREATE_MONSTER_INFO@@@std@@@std@@@std@@U_Iterator_base0@2@@2@@Z ; std::_Tree_val<std::_Tree_simple_types<std::pair<unsigned long const ,CREATE_MONSTER_INFO> > >::_Extract
PUBLIC	?_Insert_node@?$_Tree_val@U?$_Tree_simple_types@U?$pair@$$CBKUCREATE_MONSTER_INFO@@@std@@@std@@@std@@QAEPAU?$_Tree_node@U?$pair@$$CBKUCREATE_MONSTER_INFO@@@std@@PAX@2@U?$_Tree_id@PAU?$_Tree_node@U?$pair@$$CBKUCREATE_MONSTER_INFO@@@std@@PAX@std@@@2@QAU32@@Z ; std::_Tree_val<std::_Tree_simple_types<std::pair<unsigned long const ,CREATE_MONSTER_INFO> > >::_Insert_node
PUBLIC	??E?$_Tree_unchecked_const_iterator@V?$_Tree_val@U?$_Tree_simple_types@U?$pair@$$CBKUCREATE_MONSTER_INFO@@@std@@@std@@@std@@U_Iterator_base0@2@@std@@QAEAAV01@XZ ; std::_Tree_unchecked_const_iterator<std::_Tree_val<std::_Tree_simple_types<std::pair<unsigned long const ,CREATE_MONSTER_INFO> > >,std::_Iterator_base0>::operator++
PUBLIC	??$_Erase_tree@V?$allocator@U?$_Tree_node@U?$pair@$$CBKUCREATE_MONSTER_INFO@@@std@@PAX@std@@@std@@@?$_Tree_val@U?$_Tree_simple_types@U?$pair@$$CBKUCREATE_MONSTER_INFO@@@std@@@std@@@std@@QAEXAAV?$allocator@U?$_Tree_node@U?$pair@$$CBKUCREATE_MONSTER_INFO@@@std@@PAX@std@@@1@PAU?$_Tree_node@U?$pair@$$CBKUCREATE_MONSTER_INFO@@@std@@PAX@1@@Z ; std::_Tree_val<std::_Tree_simple_types<std::pair<unsigned long const ,CREATE_MONSTER_INFO> > >::_Erase_tree<std::allocator<std::_Tree_node<std::pair<unsigned long const ,CREATE_MONSTER_INFO>,void *> > >
PUBLIC	??$_Erase_tree@V?$allocator@U?$_Tree_node@U?$pair@$$CBKPAUCREATE_MONSTER_PROP@@@std@@PAX@std@@@std@@@?$_Tree_val@U?$_Tree_simple_types@U?$pair@$$CBKPAUCREATE_MONSTER_PROP@@@std@@@std@@@std@@QAEXAAV?$allocator@U?$_Tree_node@U?$pair@$$CBKPAUCREATE_MONSTER_PROP@@@std@@PAX@std@@@1@PAU?$_Tree_node@U?$pair@$$CBKPAUCREATE_MONSTER_PROP@@@std@@PAX@1@@Z ; std::_Tree_val<std::_Tree_simple_types<std::pair<unsigned long const ,CREATE_MONSTER_PROP *> > >::_Erase_tree<std::allocator<std::_Tree_node<std::pair<unsigned long const ,CREATE_MONSTER_PROP *>,void *> > >
PUBLIC	??$_Find_lower_bound@K@?$_Tree@V?$_Tmap_traits@KUCREATE_MONSTER_INFO@@U?$less@K@std@@V?$allocator@U?$pair@$$CBKUCREATE_MONSTER_INFO@@@std@@@3@$0A@@std@@@std@@IBE?AU?$_Tree_find_result@PAU?$_Tree_node@U?$pair@$$CBKUCREATE_MONSTER_INFO@@@std@@PAX@std@@@1@ABK@Z ; std::_Tree<std::_Tmap_traits<unsigned long,CREATE_MONSTER_INFO,std::less<unsigned long>,std::allocator<std::pair<unsigned long const ,CREATE_MONSTER_INFO> >,0> >::_Find_lower_bound<unsigned long>
PUBLIC	??$_Find_lower_bound@K@?$_Tree@V?$_Tmap_traits@KPAUCREATE_MONSTER_PROP@@U?$less@K@std@@V?$allocator@U?$pair@$$CBKPAUCREATE_MONSTER_PROP@@@std@@@3@$0A@@std@@@std@@IBE?AU?$_Tree_find_result@PAU?$_Tree_node@U?$pair@$$CBKPAUCREATE_MONSTER_PROP@@@std@@PAX@std@@@1@ABK@Z ; std::_Tree<std::_Tmap_traits<unsigned long,CREATE_MONSTER_PROP *,std::less<unsigned long>,std::allocator<std::pair<unsigned long const ,CREATE_MONSTER_PROP *> >,0> >::_Find_lower_bound<unsigned long>
PUBLIC	??1?$_Alloc_construct_ptr@V?$allocator@U?$_Tree_node@U?$pair@$$CBKPAUCREATE_MONSTER_PROP@@@std@@PAX@std@@@std@@@std@@QAE@XZ ; std::_Alloc_construct_ptr<std::allocator<std::_Tree_node<std::pair<unsigned long const ,CREATE_MONSTER_PROP *>,void *> > >::~_Alloc_construct_ptr<std::allocator<std::_Tree_node<std::pair<unsigned long const ,CREATE_MONSTER_PROP *>,void *> > >
PUBLIC	??1?$_Alloc_construct_ptr@V?$allocator@U?$_Tree_node@U?$pair@$$CBKH@std@@PAX@std@@@std@@@std@@QAE@XZ ; std::_Alloc_construct_ptr<std::allocator<std::_Tree_node<std::pair<unsigned long const ,int>,void *> > >::~_Alloc_construct_ptr<std::allocator<std::_Tree_node<std::pair<unsigned long const ,int>,void *> > >
PUBLIC	??1?$_Alloc_construct_ptr@V?$allocator@U?$_Tree_node@U?$pair@$$CBKUCREATE_MONSTER_INFO@@@std@@PAX@std@@@std@@@std@@QAE@XZ ; std::_Alloc_construct_ptr<std::allocator<std::_Tree_node<std::pair<unsigned long const ,CREATE_MONSTER_INFO>,void *> > >::~_Alloc_construct_ptr<std::allocator<std::_Tree_node<std::pair<unsigned long const ,CREATE_MONSTER_INFO>,void *> > >
PUBLIC	?_OptionsStorage@?1??__local_stdio_printf_options@@9@4_KA ; `__local_stdio_printf_options'::`2'::_OptionsStorage
PUBLIC	??_C@_00CNPNBAHC@@				; `string'
PUBLIC	??_7exception@std@@6B@				; std::exception::`vftable'
PUBLIC	??_C@_0BC@EOODALEL@Unknown?5exception@		; `string'
PUBLIC	??_7bad_alloc@std@@6B@				; std::bad_alloc::`vftable'
PUBLIC	??_7bad_array_new_length@std@@6B@		; std::bad_array_new_length::`vftable'
PUBLIC	??_C@_0BF@KINCDENJ@bad?5array?5new?5length@	; `string'
PUBLIC	??_R0?AVexception@std@@@8			; std::exception `RTTI Type Descriptor'
PUBLIC	__CT??_R0?AVexception@std@@@8??0exception@std@@QAE@ABV01@@Z12
PUBLIC	__TI3?AVbad_array_new_length@std@@
PUBLIC	__CTA3?AVbad_array_new_length@std@@
PUBLIC	??_R0?AVbad_array_new_length@std@@@8		; std::bad_array_new_length `RTTI Type Descriptor'
PUBLIC	__CT??_R0?AVbad_array_new_length@std@@@8??0bad_array_new_length@std@@QAE@ABV01@@Z12
PUBLIC	??_R0?AVbad_alloc@std@@@8			; std::bad_alloc `RTTI Type Descriptor'
PUBLIC	__CT??_R0?AVbad_alloc@std@@@8??0bad_alloc@std@@QAE@ABV01@@Z12
PUBLIC	??_C@_0BB@GCADKGJO@map?1set?5too?5long@		; `string'
PUBLIC	??_C@_0BM@HMFGHCP@?$CFs?5min?3?$CFd?0?5max?3?$CFd?0?5index?3?$CFd@ ; `string'
PUBLIC	??_C@_0BJ@GKPOBPPI@GetMoverProp?5range_error@	; `string'
PUBLIC	??_R4exception@std@@6B@				; std::exception::`RTTI Complete Object Locator'
PUBLIC	??_R3exception@std@@8				; std::exception::`RTTI Class Hierarchy Descriptor'
PUBLIC	??_R2exception@std@@8				; std::exception::`RTTI Base Class Array'
PUBLIC	??_R1A@?0A@EA@exception@std@@8			; std::exception::`RTTI Base Class Descriptor at (0,-1,0,64)'
PUBLIC	??_R4bad_array_new_length@std@@6B@		; std::bad_array_new_length::`RTTI Complete Object Locator'
PUBLIC	??_R3bad_array_new_length@std@@8		; std::bad_array_new_length::`RTTI Class Hierarchy Descriptor'
PUBLIC	??_R2bad_array_new_length@std@@8		; std::bad_array_new_length::`RTTI Base Class Array'
PUBLIC	??_R1A@?0A@EA@bad_array_new_length@std@@8	; std::bad_array_new_length::`RTTI Base Class Descriptor at (0,-1,0,64)'
PUBLIC	??_R1A@?0A@EA@bad_alloc@std@@8			; std::bad_alloc::`RTTI Base Class Descriptor at (0,-1,0,64)'
PUBLIC	??_R3bad_alloc@std@@8				; std::bad_alloc::`RTTI Class Hierarchy Descriptor'
PUBLIC	??_R2bad_alloc@std@@8				; std::bad_alloc::`RTTI Base Class Array'
PUBLIC	??_R4bad_alloc@std@@6B@				; std::bad_alloc::`RTTI Complete Object Locator'
PUBLIC	??_C@_0BC@NNOGDONP@CreateMonster?4lua@		; `string'
PUBLIC	??_C@_0CA@BEGGHKIN@CreateMonser?4lua?5Load?5Failed?$CB?$CB?$CB@ ; `string'
PUBLIC	??_C@_0BA@JFHOHNLN@m_nMaxCreateNum@		; `string'
PUBLIC	??_C@_0P@HPCDNBKK@tCreateMonster@		; `string'
PUBLIC	??_C@_09OFFFBNFE@strItemId@			; `string'
PUBLIC	??_C@_0L@KFLIHONN@dwKeepTime@			; `string'
PUBLIC	??_C@_08EABLEDPJ@tMonster@			; `string'
PUBLIC	??_C@_0N@PIEFIFMF@strMonsterId@			; `string'
PUBLIC	??_C@_0N@FEKIKLPP@nProbability@			; `string'
PUBLIC	??_C@_04OEDFLLKD@?$CC?$CFs?$CC@			; `string'
PUBLIC	??_C@_01KBJDNOO@i@				; `string'
PUBLIC	??_C@_06MDOBNEJ@M_C_?$CFs@			; `string'
PUBLIC	??_C@_07NNNBEGCG@M_?$CFc_?$CFs@			; `string'
PUBLIC	__real@41700000
EXTRN	??2@YAPAXI@Z:PROC				; operator new
EXTRN	??3@YAXPAXI@Z:PROC				; operator delete
EXTRN	_atexit:PROC
EXTRN	__Init_thread_header:PROC
EXTRN	__Init_thread_abort:PROC
EXTRN	__Init_thread_footer:PROC
EXTRN	__invoke_watson:PROC
EXTRN	__imp__GetTickCount@0:PROC
EXTRN	___stdio_common_vsprintf:PROC
EXTRN	_exit:PROC
EXTRN	___std_exception_copy:PROC
EXTRN	___std_exception_destroy:PROC
EXTRN	??_Eexception@std@@UAEPAXI@Z:PROC		; std::exception::`vector deleting destructor'
EXTRN	??_Ebad_alloc@std@@UAEPAXI@Z:PROC		; std::bad_alloc::`vector deleting destructor'
EXTRN	??_Ebad_array_new_length@std@@UAEPAXI@Z:PROC	; std::bad_array_new_length::`vector deleting destructor'
EXTRN	?_Xlength_error@std@@YAXPBD@Z:PROC		; std::_Xlength_error
EXTRN	?GetDefineNum@CScript@@SAHPBD@Z:PROC		; CScript::GetDefineNum
EXTRN	?Error@@YAPBDPBDZZ:PROC				; Error
EXTRN	?UpdateLocalMatrix@CObj@@QAEXXZ:PROC		; CObj::UpdateLocalMatrix
EXTRN	?Delete@CObj@@QAEXXZ:PROC			; CObj::Delete
EXTRN	?SetPos@CObj@@QAEXABUD3DXVECTOR3@@@Z:PROC	; CObj::SetPos
EXTRN	_lua_pushnil:PROC
EXTRN	_lua_getglobal:PROC
EXTRN	_lua_getfield:PROC
EXTRN	_lua_next:PROC
EXTRN	??0CLuaBase@@QAE@XZ:PROC			; CLuaBase::CLuaBase
EXTRN	??1CLuaBase@@UAE@XZ:PROC			; CLuaBase::~CLuaBase
EXTRN	?RunScript@CLuaBase@@QAEHPBD@Z:PROC		; CLuaBase::RunScript
EXTRN	?Pop@CLuaBase@@QAEXH@Z:PROC			; CLuaBase::Pop
EXTRN	?GetGlobalNumber@CLuaBase@@QAENPAD@Z:PROC	; CLuaBase::GetGlobalNumber
EXTRN	?GetFieldToNumber@CLuaBase@@QAENHPAD@Z:PROC	; CLuaBase::GetFieldToNumber
EXTRN	?GetFieldToString@CLuaBase@@QAEPBDHPAD@Z:PROC	; CLuaBase::GetFieldToString
EXTRN	?GetMover@CProject@@QAEPAVCMover@@K@Z:PROC	; CProject::GetMover
EXTRN	?IsUsableItem@@YAHPAVCItemBase@@@Z:PROC		; IsUsableItem
EXTRN	?GetName@CMover@@QAEPBDH@Z:PROC			; CMover::GetName
EXTRN	?RemoveItem@CMover@@QAEXEF@Z:PROC		; CMover::RemoveItem
EXTRN	?AddObj@CWorld@@QAEHPAVCObj@@HH@Z:PROC		; CWorld::AddObj
EXTRN	?GetHeightAttribute@CWorld@@QAEHMM@Z:PROC	; CWorld::GetHeightAttribute
EXTRN	?CreateObj@@YAPAVCObj@@PAUIDirect3DDevice9@@KKH@Z:PROC ; CreateObj
EXTRN	?GetInstance@CPlayerDataCenter@@SAPAV1@XZ:PROC	; CPlayerDataCenter::GetInstance
EXTRN	?GetPlayerString@CPlayerDataCenter@@QAEPBDK@Z:PROC ; CPlayerDataCenter::GetPlayerString
EXTRN	?AddDefinedText@CUser@@QAAXHPBDZZ:PROC		; CUser::AddDefinedText
EXTRN	?AddDefinedText@CUser@@QAEXH@Z:PROC		; CUser::AddDefinedText
EXTRN	?OnLogItem@CDPSrvr@@QAEXAAU_LogItemInfo@@PAVCItemElem@@H@Z:PROC ; CDPSrvr::OnLogItem
EXTRN	@__security_check_cookie@4:PROC
EXTRN	__CxxThrowException@8:PROC
EXTRN	___CxxFrameHandler3:PROC
EXTRN	__ftol2:PROC
EXTRN	__ftol2_sse:PROC
EXTRN	__libm_sse2_sqrt_precise:PROC
EXTRN	_memset:PROC
EXTRN	__Init_thread_epoch:DWORD
EXTRN	??_7type_info@@6B@:QWORD			; type_info::`vftable'
EXTRN	?g_next@@3KA:DWORD				; g_next
EXTRN	?prj@@3VCProject@@A:BYTE			; prj
EXTRN	?g_DPSrvr@@3VCDPSrvr@@A:BYTE			; g_DPSrvr
EXTRN	___security_cookie:DWORD
EXTRN	__fltused:DWORD
EXTRN	__tls_array:DWORD
EXTRN	__tls_index:DWORD
;	COMDAT ?_OptionsStorage@?1??__local_stdio_printf_options@@9@4_KA
_BSS	SEGMENT
?_OptionsStorage@?1??__local_stdio_printf_options@@9@4_KA DQ 01H DUP (?) ; `__local_stdio_printf_options'::`2'::_OptionsStorage
_BSS	ENDS
;	COMDAT ?sCreateMonster@?1??GetInstance@CCreateMonster@@SAPAV2@XZ@4V2@A
_BSS	SEGMENT
?sCreateMonster@?1??GetInstance@CCreateMonster@@SAPAV2@XZ@4V2@A DB 014H DUP (?) ; `CCreateMonster::GetInstance'::`2'::sCreateMonster
_BSS	ENDS
;	COMDAT ?$TSS0@?1??GetInstance@CCreateMonster@@SAPAV2@XZ@4HA
_BSS	SEGMENT
?$TSS0@?1??GetInstance@CCreateMonster@@SAPAV2@XZ@4HA DD 01H DUP (?) ; `CCreateMonster::GetInstance'::`2'::$TSS0
_BSS	ENDS
;	COMDAT __real@41700000
CONST	SEGMENT
__real@41700000 DD 041700000r			; 15
CONST	ENDS
;	COMDAT ??_C@_07NNNBEGCG@M_?$CFc_?$CFs@
CONST	SEGMENT
??_C@_07NNNBEGCG@M_?$CFc_?$CFs@ DB 'M_%c_%s', 00H	; `string'
CONST	ENDS
;	COMDAT ??_C@_06MDOBNEJ@M_C_?$CFs@
CONST	SEGMENT
??_C@_06MDOBNEJ@M_C_?$CFs@ DB 'M_C_%s', 00H		; `string'
CONST	ENDS
;	COMDAT ??_C@_01KBJDNOO@i@
CONST	SEGMENT
??_C@_01KBJDNOO@i@ DB 'i', 00H				; `string'
CONST	ENDS
;	COMDAT ??_C@_04OEDFLLKD@?$CC?$CFs?$CC@
CONST	SEGMENT
??_C@_04OEDFLLKD@?$CC?$CFs?$CC@ DB '"%s"', 00H		; `string'
CONST	ENDS
;	COMDAT ??_C@_0N@FEKIKLPP@nProbability@
CONST	SEGMENT
??_C@_0N@FEKIKLPP@nProbability@ DB 'nProbability', 00H	; `string'
CONST	ENDS
;	COMDAT ??_C@_0N@PIEFIFMF@strMonsterId@
CONST	SEGMENT
??_C@_0N@PIEFIFMF@strMonsterId@ DB 'strMonsterId', 00H	; `string'
CONST	ENDS
;	COMDAT ??_C@_08EABLEDPJ@tMonster@
CONST	SEGMENT
??_C@_08EABLEDPJ@tMonster@ DB 'tMonster', 00H		; `string'
CONST	ENDS
;	COMDAT ??_C@_0L@KFLIHONN@dwKeepTime@
CONST	SEGMENT
??_C@_0L@KFLIHONN@dwKeepTime@ DB 'dwKeepTime', 00H	; `string'
CONST	ENDS
;	COMDAT ??_C@_09OFFFBNFE@strItemId@
CONST	SEGMENT
??_C@_09OFFFBNFE@strItemId@ DB 'strItemId', 00H		; `string'
CONST	ENDS
;	COMDAT ??_C@_0P@HPCDNBKK@tCreateMonster@
CONST	SEGMENT
??_C@_0P@HPCDNBKK@tCreateMonster@ DB 'tCreateMonster', 00H ; `string'
CONST	ENDS
;	COMDAT ??_C@_0BA@JFHOHNLN@m_nMaxCreateNum@
CONST	SEGMENT
??_C@_0BA@JFHOHNLN@m_nMaxCreateNum@ DB 'm_nMaxCreateNum', 00H ; `string'
CONST	ENDS
;	COMDAT ??_C@_0CA@BEGGHKIN@CreateMonser?4lua?5Load?5Failed?$CB?$CB?$CB@
CONST	SEGMENT
??_C@_0CA@BEGGHKIN@CreateMonser?4lua?5Load?5Failed?$CB?$CB?$CB@ DB 'Creat'
	DB	'eMonser.lua Load Failed!!!', 00H		; `string'
CONST	ENDS
;	COMDAT ??_C@_0BC@NNOGDONP@CreateMonster?4lua@
CONST	SEGMENT
??_C@_0BC@NNOGDONP@CreateMonster?4lua@ DB 'CreateMonster.lua', 00H ; `string'
CONST	ENDS
;	COMDAT ??_R4bad_alloc@std@@6B@
rdata$r	SEGMENT
??_R4bad_alloc@std@@6B@ DD 00H				; std::bad_alloc::`RTTI Complete Object Locator'
	DD	00H
	DD	00H
	DD	FLAT:??_R0?AVbad_alloc@std@@@8
	DD	FLAT:??_R3bad_alloc@std@@8
rdata$r	ENDS
;	COMDAT ??_R2bad_alloc@std@@8
rdata$r	SEGMENT
??_R2bad_alloc@std@@8 DD FLAT:??_R1A@?0A@EA@bad_alloc@std@@8 ; std::bad_alloc::`RTTI Base Class Array'
	DD	FLAT:??_R1A@?0A@EA@exception@std@@8
rdata$r	ENDS
;	COMDAT ??_R3bad_alloc@std@@8
rdata$r	SEGMENT
??_R3bad_alloc@std@@8 DD 00H				; std::bad_alloc::`RTTI Class Hierarchy Descriptor'
	DD	00H
	DD	02H
	DD	FLAT:??_R2bad_alloc@std@@8
rdata$r	ENDS
;	COMDAT ??_R1A@?0A@EA@bad_alloc@std@@8
rdata$r	SEGMENT
??_R1A@?0A@EA@bad_alloc@std@@8 DD FLAT:??_R0?AVbad_alloc@std@@@8 ; std::bad_alloc::`RTTI Base Class Descriptor at (0,-1,0,64)'
	DD	01H
	DD	00H
	DD	0ffffffffH
	DD	00H
	DD	040H
	DD	FLAT:??_R3bad_alloc@std@@8
rdata$r	ENDS
;	COMDAT ??_R1A@?0A@EA@bad_array_new_length@std@@8
rdata$r	SEGMENT
??_R1A@?0A@EA@bad_array_new_length@std@@8 DD FLAT:??_R0?AVbad_array_new_length@std@@@8 ; std::bad_array_new_length::`RTTI Base Class Descriptor at (0,-1,0,64)'
	DD	02H
	DD	00H
	DD	0ffffffffH
	DD	00H
	DD	040H
	DD	FLAT:??_R3bad_array_new_length@std@@8
rdata$r	ENDS
;	COMDAT ??_R2bad_array_new_length@std@@8
rdata$r	SEGMENT
??_R2bad_array_new_length@std@@8 DD FLAT:??_R1A@?0A@EA@bad_array_new_length@std@@8 ; std::bad_array_new_length::`RTTI Base Class Array'
	DD	FLAT:??_R1A@?0A@EA@bad_alloc@std@@8
	DD	FLAT:??_R1A@?0A@EA@exception@std@@8
rdata$r	ENDS
;	COMDAT ??_R3bad_array_new_length@std@@8
rdata$r	SEGMENT
??_R3bad_array_new_length@std@@8 DD 00H			; std::bad_array_new_length::`RTTI Class Hierarchy Descriptor'
	DD	00H
	DD	03H
	DD	FLAT:??_R2bad_array_new_length@std@@8
rdata$r	ENDS
;	COMDAT ??_R4bad_array_new_length@std@@6B@
rdata$r	SEGMENT
??_R4bad_array_new_length@std@@6B@ DD 00H		; std::bad_array_new_length::`RTTI Complete Object Locator'
	DD	00H
	DD	00H
	DD	FLAT:??_R0?AVbad_array_new_length@std@@@8
	DD	FLAT:??_R3bad_array_new_length@std@@8
rdata$r	ENDS
;	COMDAT ??_R1A@?0A@EA@exception@std@@8
rdata$r	SEGMENT
??_R1A@?0A@EA@exception@std@@8 DD FLAT:??_R0?AVexception@std@@@8 ; std::exception::`RTTI Base Class Descriptor at (0,-1,0,64)'
	DD	00H
	DD	00H
	DD	0ffffffffH
	DD	00H
	DD	040H
	DD	FLAT:??_R3exception@std@@8
rdata$r	ENDS
;	COMDAT ??_R2exception@std@@8
rdata$r	SEGMENT
??_R2exception@std@@8 DD FLAT:??_R1A@?0A@EA@exception@std@@8 ; std::exception::`RTTI Base Class Array'
rdata$r	ENDS
;	COMDAT ??_R3exception@std@@8
rdata$r	SEGMENT
??_R3exception@std@@8 DD 00H				; std::exception::`RTTI Class Hierarchy Descriptor'
	DD	00H
	DD	01H
	DD	FLAT:??_R2exception@std@@8
rdata$r	ENDS
;	COMDAT ??_R4exception@std@@6B@
rdata$r	SEGMENT
??_R4exception@std@@6B@ DD 00H				; std::exception::`RTTI Complete Object Locator'
	DD	00H
	DD	00H
	DD	FLAT:??_R0?AVexception@std@@@8
	DD	FLAT:??_R3exception@std@@8
rdata$r	ENDS
;	COMDAT ??_C@_0BJ@GKPOBPPI@GetMoverProp?5range_error@
CONST	SEGMENT
??_C@_0BJ@GKPOBPPI@GetMoverProp?5range_error@ DB 'GetMoverProp range_erro'
	DB	'r', 00H					; `string'
CONST	ENDS
;	COMDAT ??_C@_0BM@HMFGHCP@?$CFs?5min?3?$CFd?0?5max?3?$CFd?0?5index?3?$CFd@
CONST	SEGMENT
??_C@_0BM@HMFGHCP@?$CFs?5min?3?$CFd?0?5max?3?$CFd?0?5index?3?$CFd@ DB '%s'
	DB	' min:%d, max:%d, index:%d', 00H		; `string'
CONST	ENDS
;	COMDAT ??_C@_0BB@GCADKGJO@map?1set?5too?5long@
CONST	SEGMENT
??_C@_0BB@GCADKGJO@map?1set?5too?5long@ DB 'map/set too long', 00H ; `string'
CONST	ENDS
;	COMDAT __CT??_R0?AVbad_alloc@std@@@8??0bad_alloc@std@@QAE@ABV01@@Z12
xdata$x	SEGMENT
__CT??_R0?AVbad_alloc@std@@@8??0bad_alloc@std@@QAE@ABV01@@Z12 DD 010H
	DD	FLAT:??_R0?AVbad_alloc@std@@@8
	DD	00H
	DD	0ffffffffH
	ORG $+4
	DD	0cH
	DD	FLAT:??0bad_alloc@std@@QAE@ABV01@@Z
xdata$x	ENDS
;	COMDAT ??_R0?AVbad_alloc@std@@@8
data$r	SEGMENT
??_R0?AVbad_alloc@std@@@8 DD FLAT:??_7type_info@@6B@	; std::bad_alloc `RTTI Type Descriptor'
	DD	00H
	DB	'.?AVbad_alloc@std@@', 00H
data$r	ENDS
;	COMDAT __CT??_R0?AVbad_array_new_length@std@@@8??0bad_array_new_length@std@@QAE@ABV01@@Z12
xdata$x	SEGMENT
__CT??_R0?AVbad_array_new_length@std@@@8??0bad_array_new_length@std@@QAE@ABV01@@Z12 DD 00H
	DD	FLAT:??_R0?AVbad_array_new_length@std@@@8
	DD	00H
	DD	0ffffffffH
	ORG $+4
	DD	0cH
	DD	FLAT:??0bad_array_new_length@std@@QAE@ABV01@@Z
xdata$x	ENDS
;	COMDAT ??_R0?AVbad_array_new_length@std@@@8
data$r	SEGMENT
??_R0?AVbad_array_new_length@std@@@8 DD FLAT:??_7type_info@@6B@ ; std::bad_array_new_length `RTTI Type Descriptor'
	DD	00H
	DB	'.?AVbad_array_new_length@std@@', 00H
data$r	ENDS
;	COMDAT __CTA3?AVbad_array_new_length@std@@
xdata$x	SEGMENT
__CTA3?AVbad_array_new_length@std@@ DD 03H
	DD	FLAT:__CT??_R0?AVbad_array_new_length@std@@@8??0bad_array_new_length@std@@QAE@ABV01@@Z12
	DD	FLAT:__CT??_R0?AVbad_alloc@std@@@8??0bad_alloc@std@@QAE@ABV01@@Z12
	DD	FLAT:__CT??_R0?AVexception@std@@@8??0exception@std@@QAE@ABV01@@Z12
xdata$x	ENDS
;	COMDAT __TI3?AVbad_array_new_length@std@@
xdata$x	SEGMENT
__TI3?AVbad_array_new_length@std@@ DD 00H
	DD	FLAT:??1bad_array_new_length@std@@UAE@XZ
	DD	00H
	DD	FLAT:__CTA3?AVbad_array_new_length@std@@
xdata$x	ENDS
;	COMDAT __CT??_R0?AVexception@std@@@8??0exception@std@@QAE@ABV01@@Z12
xdata$x	SEGMENT
__CT??_R0?AVexception@std@@@8??0exception@std@@QAE@ABV01@@Z12 DD 00H
	DD	FLAT:??_R0?AVexception@std@@@8
	DD	00H
	DD	0ffffffffH
	ORG $+4
	DD	0cH
	DD	FLAT:??0exception@std@@QAE@ABV01@@Z
xdata$x	ENDS
;	COMDAT ??_R0?AVexception@std@@@8
data$r	SEGMENT
??_R0?AVexception@std@@@8 DD FLAT:??_7type_info@@6B@	; std::exception `RTTI Type Descriptor'
	DD	00H
	DB	'.?AVexception@std@@', 00H
data$r	ENDS
;	COMDAT ??_C@_0BF@KINCDENJ@bad?5array?5new?5length@
CONST	SEGMENT
??_C@_0BF@KINCDENJ@bad?5array?5new?5length@ DB 'bad array new length', 00H ; `string'
CONST	ENDS
;	COMDAT ??_7bad_array_new_length@std@@6B@
CONST	SEGMENT
??_7bad_array_new_length@std@@6B@ DD FLAT:??_R4bad_array_new_length@std@@6B@ ; std::bad_array_new_length::`vftable'
	DD	FLAT:??_Ebad_array_new_length@std@@UAEPAXI@Z
	DD	FLAT:?what@exception@std@@UBEPBDXZ
CONST	ENDS
;	COMDAT ??_7bad_alloc@std@@6B@
CONST	SEGMENT
??_7bad_alloc@std@@6B@ DD FLAT:??_R4bad_alloc@std@@6B@	; std::bad_alloc::`vftable'
	DD	FLAT:??_Ebad_alloc@std@@UAEPAXI@Z
	DD	FLAT:?what@exception@std@@UBEPBDXZ
CONST	ENDS
;	COMDAT ??_C@_0BC@EOODALEL@Unknown?5exception@
CONST	SEGMENT
??_C@_0BC@EOODALEL@Unknown?5exception@ DB 'Unknown exception', 00H ; `string'
CONST	ENDS
;	COMDAT ??_7exception@std@@6B@
CONST	SEGMENT
??_7exception@std@@6B@ DD FLAT:??_R4exception@std@@6B@	; std::exception::`vftable'
	DD	FLAT:??_Eexception@std@@UAEPAXI@Z
	DD	FLAT:?what@exception@std@@UBEPBDXZ
CONST	ENDS
;	COMDAT ??_C@_00CNPNBAHC@@
CONST	SEGMENT
??_C@_00CNPNBAHC@@ DB 00H				; `string'
CONST	ENDS
;	COMDAT xdata$x
xdata$x	SEGMENT
__unwindtable$??$?0U?$pair@KUCREATE_MONSTER_INFO@@@std@@@?$_Tree_temp_node@V?$allocator@U?$_Tree_node@U?$pair@$$CBKUCREATE_MONSTER_INFO@@@std@@PAX@std@@@std@@@std@@QAE@AAV?$allocator@U?$_Tree_node@U?$pair@$$CBKUCREATE_MONSTER_INFO@@@std@@PAX@std@@@1@PAU?$_Tree_node@U?$pair@$$CBKUCREATE_MONSTER_INFO@@@std@@PAX@1@$$QAU?$pair@KUCREATE_MONSTER_INFO@@@1@@Z DD 0ffffffffH
	DD	FLAT:__unwindfunclet$??$?0U?$pair@KUCREATE_MONSTER_INFO@@@std@@@?$_Tree_temp_node@V?$allocator@U?$_Tree_node@U?$pair@$$CBKUCREATE_MONSTER_INFO@@@std@@PAX@std@@@std@@@std@@QAE@AAV?$allocator@U?$_Tree_node@U?$pair@$$CBKUCREATE_MONSTER_INFO@@@std@@PAX@std@@@1@PAU?$_Tree_node@U?$pair@$$CBKUCREATE_MONSTER_INFO@@@std@@PAX@1@$$QAU?$pair@KUCREATE_MONSTER_INFO@@@1@@Z$1
__ehfuncinfo$??$?0U?$pair@KUCREATE_MONSTER_INFO@@@std@@@?$_Tree_temp_node@V?$allocator@U?$_Tree_node@U?$pair@$$CBKUCREATE_MONSTER_INFO@@@std@@PAX@std@@@std@@@std@@QAE@AAV?$allocator@U?$_Tree_node@U?$pair@$$CBKUCREATE_MONSTER_INFO@@@std@@PAX@std@@@1@PAU?$_Tree_node@U?$pair@$$CBKUCREATE_MONSTER_INFO@@@std@@PAX@1@$$QAU?$pair@KUCREATE_MONSTER_INFO@@@1@@Z DD 019930522H
	DD	01H
	DD	FLAT:__unwindtable$??$?0U?$pair@KUCREATE_MONSTER_INFO@@@std@@@?$_Tree_temp_node@V?$allocator@U?$_Tree_node@U?$pair@$$CBKUCREATE_MONSTER_INFO@@@std@@PAX@std@@@std@@@std@@QAE@AAV?$allocator@U?$_Tree_node@U?$pair@$$CBKUCREATE_MONSTER_INFO@@@std@@PAX@std@@@1@PAU?$_Tree_node@U?$pair@$$CBKUCREATE_MONSTER_INFO@@@std@@PAX@1@$$QAU?$pair@KUCREATE_MONSTER_INFO@@@1@@Z
	DD	2 DUP(00H)
	DD	2 DUP(00H)
	DD	00H
	DD	01H
xdata$x	ENDS
;	COMDAT xdata$x
xdata$x	SEGMENT
__unwindtable$??0?$_Tree_temp_node_alloc@V?$allocator@U?$_Tree_node@U?$pair@$$CBKUCREATE_MONSTER_INFO@@@std@@PAX@std@@@std@@@std@@QAE@AAV?$allocator@U?$_Tree_node@U?$pair@$$CBKUCREATE_MONSTER_INFO@@@std@@PAX@std@@@1@@Z DD 0ffffffffH
	DD	FLAT:__unwindfunclet$??0?$_Tree_temp_node_alloc@V?$allocator@U?$_Tree_node@U?$pair@$$CBKUCREATE_MONSTER_INFO@@@std@@PAX@std@@@std@@@std@@QAE@AAV?$allocator@U?$_Tree_node@U?$pair@$$CBKUCREATE_MONSTER_INFO@@@std@@PAX@std@@@1@@Z$0
__ehfuncinfo$??0?$_Tree_temp_node_alloc@V?$allocator@U?$_Tree_node@U?$pair@$$CBKUCREATE_MONSTER_INFO@@@std@@PAX@std@@@std@@@std@@QAE@AAV?$allocator@U?$_Tree_node@U?$pair@$$CBKUCREATE_MONSTER_INFO@@@std@@PAX@std@@@1@@Z DD 019930522H
	DD	01H
	DD	FLAT:__unwindtable$??0?$_Tree_temp_node_alloc@V?$allocator@U?$_Tree_node@U?$pair@$$CBKUCREATE_MONSTER_INFO@@@std@@PAX@std@@@std@@@std@@QAE@AAV?$allocator@U?$_Tree_node@U?$pair@$$CBKUCREATE_MONSTER_INFO@@@std@@PAX@std@@@1@@Z
	DD	2 DUP(00H)
	DD	2 DUP(00H)
	DD	00H
	DD	01H
xdata$x	ENDS
;	COMDAT xdata$x
xdata$x	SEGMENT
__unwindtable$??$?0U?$pair@KH@std@@@?$_Tree_temp_node@V?$allocator@U?$_Tree_node@U?$pair@$$CBKH@std@@PAX@std@@@std@@@std@@QAE@AAV?$allocator@U?$_Tree_node@U?$pair@$$CBKH@std@@PAX@std@@@1@PAU?$_Tree_node@U?$pair@$$CBKH@std@@PAX@1@$$QAU?$pair@KH@1@@Z DD 0ffffffffH
	DD	FLAT:__unwindfunclet$??$?0U?$pair@KH@std@@@?$_Tree_temp_node@V?$allocator@U?$_Tree_node@U?$pair@$$CBKH@std@@PAX@std@@@std@@@std@@QAE@AAV?$allocator@U?$_Tree_node@U?$pair@$$CBKH@std@@PAX@std@@@1@PAU?$_Tree_node@U?$pair@$$CBKH@std@@PAX@1@$$QAU?$pair@KH@1@@Z$1
__ehfuncinfo$??$?0U?$pair@KH@std@@@?$_Tree_temp_node@V?$allocator@U?$_Tree_node@U?$pair@$$CBKH@std@@PAX@std@@@std@@@std@@QAE@AAV?$allocator@U?$_Tree_node@U?$pair@$$CBKH@std@@PAX@std@@@1@PAU?$_Tree_node@U?$pair@$$CBKH@std@@PAX@1@$$QAU?$pair@KH@1@@Z DD 019930522H
	DD	01H
	DD	FLAT:__unwindtable$??$?0U?$pair@KH@std@@@?$_Tree_temp_node@V?$allocator@U?$_Tree_node@U?$pair@$$CBKH@std@@PAX@std@@@std@@@std@@QAE@AAV?$allocator@U?$_Tree_node@U?$pair@$$CBKH@std@@PAX@std@@@1@PAU?$_Tree_node@U?$pair@$$CBKH@std@@PAX@1@$$QAU?$pair@KH@1@@Z
	DD	2 DUP(00H)
	DD	2 DUP(00H)
	DD	00H
	DD	01H
xdata$x	ENDS
;	COMDAT xdata$x
xdata$x	SEGMENT
__unwindtable$??0?$_Tree_temp_node_alloc@V?$allocator@U?$_Tree_node@U?$pair@$$CBKH@std@@PAX@std@@@std@@@std@@QAE@AAV?$allocator@U?$_Tree_node@U?$pair@$$CBKH@std@@PAX@std@@@1@@Z DD 0ffffffffH
	DD	FLAT:__unwindfunclet$??0?$_Tree_temp_node_alloc@V?$allocator@U?$_Tree_node@U?$pair@$$CBKH@std@@PAX@std@@@std@@@std@@QAE@AAV?$allocator@U?$_Tree_node@U?$pair@$$CBKH@std@@PAX@std@@@1@@Z$0
__ehfuncinfo$??0?$_Tree_temp_node_alloc@V?$allocator@U?$_Tree_node@U?$pair@$$CBKH@std@@PAX@std@@@std@@@std@@QAE@AAV?$allocator@U?$_Tree_node@U?$pair@$$CBKH@std@@PAX@std@@@1@@Z DD 019930522H
	DD	01H
	DD	FLAT:__unwindtable$??0?$_Tree_temp_node_alloc@V?$allocator@U?$_Tree_node@U?$pair@$$CBKH@std@@PAX@std@@@std@@@std@@QAE@AAV?$allocator@U?$_Tree_node@U?$pair@$$CBKH@std@@PAX@std@@@1@@Z
	DD	2 DUP(00H)
	DD	2 DUP(00H)
	DD	00H
	DD	01H
xdata$x	ENDS
;	COMDAT xdata$x
xdata$x	SEGMENT
__unwindtable$??$?0U?$pair@KPAUCREATE_MONSTER_PROP@@@std@@@?$_Tree_temp_node@V?$allocator@U?$_Tree_node@U?$pair@$$CBKPAUCREATE_MONSTER_PROP@@@std@@PAX@std@@@std@@@std@@QAE@AAV?$allocator@U?$_Tree_node@U?$pair@$$CBKPAUCREATE_MONSTER_PROP@@@std@@PAX@std@@@1@PAU?$_Tree_node@U?$pair@$$CBKPAUCREATE_MONSTER_PROP@@@std@@PAX@1@$$QAU?$pair@KPAUCREATE_MONSTER_PROP@@@1@@Z DD 0ffffffffH
	DD	FLAT:__unwindfunclet$??$?0U?$pair@KPAUCREATE_MONSTER_PROP@@@std@@@?$_Tree_temp_node@V?$allocator@U?$_Tree_node@U?$pair@$$CBKPAUCREATE_MONSTER_PROP@@@std@@PAX@std@@@std@@@std@@QAE@AAV?$allocator@U?$_Tree_node@U?$pair@$$CBKPAUCREATE_MONSTER_PROP@@@std@@PAX@std@@@1@PAU?$_Tree_node@U?$pair@$$CBKPAUCREATE_MONSTER_PROP@@@std@@PAX@1@$$QAU?$pair@KPAUCREATE_MONSTER_PROP@@@1@@Z$1
__ehfuncinfo$??$?0U?$pair@KPAUCREATE_MONSTER_PROP@@@std@@@?$_Tree_temp_node@V?$allocator@U?$_Tree_node@U?$pair@$$CBKPAUCREATE_MONSTER_PROP@@@std@@PAX@std@@@std@@@std@@QAE@AAV?$allocator@U?$_Tree_node@U?$pair@$$CBKPAUCREATE_MONSTER_PROP@@@std@@PAX@std@@@1@PAU?$_Tree_node@U?$pair@$$CBKPAUCREATE_MONSTER_PROP@@@std@@PAX@1@$$QAU?$pair@KPAUCREATE_MONSTER_PROP@@@1@@Z DD 019930522H
	DD	01H
	DD	FLAT:__unwindtable$??$?0U?$pair@KPAUCREATE_MONSTER_PROP@@@std@@@?$_Tree_temp_node@V?$allocator@U?$_Tree_node@U?$pair@$$CBKPAUCREATE_MONSTER_PROP@@@std@@PAX@std@@@std@@@std@@QAE@AAV?$allocator@U?$_Tree_node@U?$pair@$$CBKPAUCREATE_MONSTER_PROP@@@std@@PAX@std@@@1@PAU?$_Tree_node@U?$pair@$$CBKPAUCREATE_MONSTER_PROP@@@std@@PAX@1@$$QAU?$pair@KPAUCREATE_MONSTER_PROP@@@1@@Z
	DD	2 DUP(00H)
	DD	2 DUP(00H)
	DD	00H
	DD	01H
xdata$x	ENDS
;	COMDAT xdata$x
xdata$x	SEGMENT
__unwindtable$??0?$_Tree_temp_node_alloc@V?$allocator@U?$_Tree_node@U?$pair@$$CBKPAUCREATE_MONSTER_PROP@@@std@@PAX@std@@@std@@@std@@QAE@AAV?$allocator@U?$_Tree_node@U?$pair@$$CBKPAUCREATE_MONSTER_PROP@@@std@@PAX@std@@@1@@Z DD 0ffffffffH
	DD	FLAT:__unwindfunclet$??0?$_Tree_temp_node_alloc@V?$allocator@U?$_Tree_node@U?$pair@$$CBKPAUCREATE_MONSTER_PROP@@@std@@PAX@std@@@std@@@std@@QAE@AAV?$allocator@U?$_Tree_node@U?$pair@$$CBKPAUCREATE_MONSTER_PROP@@@std@@PAX@std@@@1@@Z$0
__ehfuncinfo$??0?$_Tree_temp_node_alloc@V?$allocator@U?$_Tree_node@U?$pair@$$CBKPAUCREATE_MONSTER_PROP@@@std@@PAX@std@@@std@@@std@@QAE@AAV?$allocator@U?$_Tree_node@U?$pair@$$CBKPAUCREATE_MONSTER_PROP@@@std@@PAX@std@@@1@@Z DD 019930522H
	DD	01H
	DD	FLAT:__unwindtable$??0?$_Tree_temp_node_alloc@V?$allocator@U?$_Tree_node@U?$pair@$$CBKPAUCREATE_MONSTER_PROP@@@std@@PAX@std@@@std@@@std@@QAE@AAV?$allocator@U?$_Tree_node@U?$pair@$$CBKPAUCREATE_MONSTER_PROP@@@std@@PAX@std@@@1@@Z
	DD	2 DUP(00H)
	DD	2 DUP(00H)
	DD	00H
	DD	01H
xdata$x	ENDS
;	COMDAT xdata$x
xdata$x	SEGMENT
__unwindtable$??$_Emplace@U?$pair@KUCREATE_MONSTER_INFO@@@std@@@?$_Tree@V?$_Tmap_traits@KUCREATE_MONSTER_INFO@@U?$less@K@std@@V?$allocator@U?$pair@$$CBKUCREATE_MONSTER_INFO@@@std@@@3@$0A@@std@@@std@@IAE?AU?$pair@PAU?$_Tree_node@U?$pair@$$CBKUCREATE_MONSTER_INFO@@@std@@PAX@std@@_N@1@$$QAU?$pair@KUCREATE_MONSTER_INFO@@@1@@Z DD 0ffffffffH
	DD	FLAT:__unwindfunclet$??$_Emplace@U?$pair@KUCREATE_MONSTER_INFO@@@std@@@?$_Tree@V?$_Tmap_traits@KUCREATE_MONSTER_INFO@@U?$less@K@std@@V?$allocator@U?$pair@$$CBKUCREATE_MONSTER_INFO@@@std@@@3@$0A@@std@@@std@@IAE?AU?$pair@PAU?$_Tree_node@U?$pair@$$CBKUCREATE_MONSTER_INFO@@@std@@PAX@std@@_N@1@$$QAU?$pair@KUCREATE_MONSTER_INFO@@@1@@Z$2
__ehfuncinfo$??$_Emplace@U?$pair@KUCREATE_MONSTER_INFO@@@std@@@?$_Tree@V?$_Tmap_traits@KUCREATE_MONSTER_INFO@@U?$less@K@std@@V?$allocator@U?$pair@$$CBKUCREATE_MONSTER_INFO@@@std@@@3@$0A@@std@@@std@@IAE?AU?$pair@PAU?$_Tree_node@U?$pair@$$CBKUCREATE_MONSTER_INFO@@@std@@PAX@std@@_N@1@$$QAU?$pair@KUCREATE_MONSTER_INFO@@@1@@Z DD 019930522H
	DD	01H
	DD	FLAT:__unwindtable$??$_Emplace@U?$pair@KUCREATE_MONSTER_INFO@@@std@@@?$_Tree@V?$_Tmap_traits@KUCREATE_MONSTER_INFO@@U?$less@K@std@@V?$allocator@U?$pair@$$CBKUCREATE_MONSTER_INFO@@@std@@@3@$0A@@std@@@std@@IAE?AU?$pair@PAU?$_Tree_node@U?$pair@$$CBKUCREATE_MONSTER_INFO@@@std@@PAX@std@@_N@1@$$QAU?$pair@KUCREATE_MONSTER_INFO@@@1@@Z
	DD	2 DUP(00H)
	DD	2 DUP(00H)
	DD	00H
	DD	01H
xdata$x	ENDS
;	COMDAT xdata$x
xdata$x	SEGMENT
__unwindtable$??$_Emplace@U?$pair@KH@std@@@?$_Tree@V?$_Tmap_traits@KHU?$less@K@std@@V?$allocator@U?$pair@$$CBKH@std@@@2@$0A@@std@@@std@@IAE?AU?$pair@PAU?$_Tree_node@U?$pair@$$CBKH@std@@PAX@std@@_N@1@$$QAU?$pair@KH@1@@Z DD 0ffffffffH
	DD	FLAT:__unwindfunclet$??$_Emplace@U?$pair@KH@std@@@?$_Tree@V?$_Tmap_traits@KHU?$less@K@std@@V?$allocator@U?$pair@$$CBKH@std@@@2@$0A@@std@@@std@@IAE?AU?$pair@PAU?$_Tree_node@U?$pair@$$CBKH@std@@PAX@std@@_N@1@$$QAU?$pair@KH@1@@Z$2
__ehfuncinfo$??$_Emplace@U?$pair@KH@std@@@?$_Tree@V?$_Tmap_traits@KHU?$less@K@std@@V?$allocator@U?$pair@$$CBKH@std@@@2@$0A@@std@@@std@@IAE?AU?$pair@PAU?$_Tree_node@U?$pair@$$CBKH@std@@PAX@std@@_N@1@$$QAU?$pair@KH@1@@Z DD 019930522H
	DD	01H
	DD	FLAT:__unwindtable$??$_Emplace@U?$pair@KH@std@@@?$_Tree@V?$_Tmap_traits@KHU?$less@K@std@@V?$allocator@U?$pair@$$CBKH@std@@@2@$0A@@std@@@std@@IAE?AU?$pair@PAU?$_Tree_node@U?$pair@$$CBKH@std@@PAX@std@@_N@1@$$QAU?$pair@KH@1@@Z
	DD	2 DUP(00H)
	DD	2 DUP(00H)
	DD	00H
	DD	01H
xdata$x	ENDS
;	COMDAT xdata$x
xdata$x	SEGMENT
__unwindtable$??$_Emplace@U?$pair@KPAUCREATE_MONSTER_PROP@@@std@@@?$_Tree@V?$_Tmap_traits@KPAUCREATE_MONSTER_PROP@@U?$less@K@std@@V?$allocator@U?$pair@$$CBKPAUCREATE_MONSTER_PROP@@@std@@@3@$0A@@std@@@std@@IAE?AU?$pair@PAU?$_Tree_node@U?$pair@$$CBKPAUCREATE_MONSTER_PROP@@@std@@PAX@std@@_N@1@$$QAU?$pair@KPAUCREATE_MONSTER_PROP@@@1@@Z DD 0ffffffffH
	DD	FLAT:__unwindfunclet$??$_Emplace@U?$pair@KPAUCREATE_MONSTER_PROP@@@std@@@?$_Tree@V?$_Tmap_traits@KPAUCREATE_MONSTER_PROP@@U?$less@K@std@@V?$allocator@U?$pair@$$CBKPAUCREATE_MONSTER_PROP@@@std@@@3@$0A@@std@@@std@@IAE?AU?$pair@PAU?$_Tree_node@U?$pair@$$CBKPAUCREATE_MONSTER_PROP@@@std@@PAX@std@@_N@1@$$QAU?$pair@KPAUCREATE_MONSTER_PROP@@@1@@Z$2
__ehfuncinfo$??$_Emplace@U?$pair@KPAUCREATE_MONSTER_PROP@@@std@@@?$_Tree@V?$_Tmap_traits@KPAUCREATE_MONSTER_PROP@@U?$less@K@std@@V?$allocator@U?$pair@$$CBKPAUCREATE_MONSTER_PROP@@@std@@@3@$0A@@std@@@std@@IAE?AU?$pair@PAU?$_Tree_node@U?$pair@$$CBKPAUCREATE_MONSTER_PROP@@@std@@PAX@std@@_N@1@$$QAU?$pair@KPAUCREATE_MONSTER_PROP@@@1@@Z DD 019930522H
	DD	01H
	DD	FLAT:__unwindtable$??$_Emplace@U?$pair@KPAUCREATE_MONSTER_PROP@@@std@@@?$_Tree@V?$_Tmap_traits@KPAUCREATE_MONSTER_PROP@@U?$less@K@std@@V?$allocator@U?$pair@$$CBKPAUCREATE_MONSTER_PROP@@@std@@@3@$0A@@std@@@std@@IAE?AU?$pair@PAU?$_Tree_node@U?$pair@$$CBKPAUCREATE_MONSTER_PROP@@@std@@PAX@std@@_N@1@$$QAU?$pair@KPAUCREATE_MONSTER_PROP@@@1@@Z
	DD	2 DUP(00H)
	DD	2 DUP(00H)
	DD	00H
	DD	01H
xdata$x	ENDS
;	COMDAT xdata$x
xdata$x	SEGMENT
__unwindtable$??$emplace@U?$pair@KUCREATE_MONSTER_INFO@@@std@@@?$_Tree@V?$_Tmap_traits@KUCREATE_MONSTER_INFO@@U?$less@K@std@@V?$allocator@U?$pair@$$CBKUCREATE_MONSTER_INFO@@@std@@@3@$0A@@std@@@std@@QAE?AU?$pair@V?$_Tree_iterator@V?$_Tree_val@U?$_Tree_simple_types@U?$pair@$$CBKUCREATE_MONSTER_INFO@@@std@@@std@@@std@@@std@@_N@1@$$QAU?$pair@KUCREATE_MONSTER_INFO@@@1@@Z DD 0ffffffffH
	DD	FLAT:__unwindfunclet$??$emplace@U?$pair@KUCREATE_MONSTER_INFO@@@std@@@?$_Tree@V?$_Tmap_traits@KUCREATE_MONSTER_INFO@@U?$less@K@std@@V?$allocator@U?$pair@$$CBKUCREATE_MONSTER_INFO@@@std@@@3@$0A@@std@@@std@@QAE?AU?$pair@V?$_Tree_iterator@V?$_Tree_val@U?$_Tree_simple_types@U?$pair@$$CBKUCREATE_MONSTER_INFO@@@std@@@std@@@std@@@std@@_N@1@$$QAU?$pair@KUCREATE_MONSTER_INFO@@@1@@Z$2
__ehfuncinfo$??$emplace@U?$pair@KUCREATE_MONSTER_INFO@@@std@@@?$_Tree@V?$_Tmap_traits@KUCREATE_MONSTER_INFO@@U?$less@K@std@@V?$allocator@U?$pair@$$CBKUCREATE_MONSTER_INFO@@@std@@@3@$0A@@std@@@std@@QAE?AU?$pair@V?$_Tree_iterator@V?$_Tree_val@U?$_Tree_simple_types@U?$pair@$$CBKUCREATE_MONSTER_INFO@@@std@@@std@@@std@@@std@@_N@1@$$QAU?$pair@KUCREATE_MONSTER_INFO@@@1@@Z DD 019930522H
	DD	01H
	DD	FLAT:__unwindtable$??$emplace@U?$pair@KUCREATE_MONSTER_INFO@@@std@@@?$_Tree@V?$_Tmap_traits@KUCREATE_MONSTER_INFO@@U?$less@K@std@@V?$allocator@U?$pair@$$CBKUCREATE_MONSTER_INFO@@@std@@@3@$0A@@std@@@std@@QAE?AU?$pair@V?$_Tree_iterator@V?$_Tree_val@U?$_Tree_simple_types@U?$pair@$$CBKUCREATE_MONSTER_INFO@@@std@@@std@@@std@@@std@@_N@1@$$QAU?$pair@KUCREATE_MONSTER_INFO@@@1@@Z
	DD	2 DUP(00H)
	DD	2 DUP(00H)
	DD	00H
	DD	01H
xdata$x	ENDS
;	COMDAT xdata$x
xdata$x	SEGMENT
__unwindtable$??$emplace@U?$pair@KH@std@@@?$_Tree@V?$_Tmap_traits@KHU?$less@K@std@@V?$allocator@U?$pair@$$CBKH@std@@@2@$0A@@std@@@std@@QAE?AU?$pair@V?$_Tree_iterator@V?$_Tree_val@U?$_Tree_simple_types@U?$pair@$$CBKH@std@@@std@@@std@@@std@@_N@1@$$QAU?$pair@KH@1@@Z DD 0ffffffffH
	DD	FLAT:__unwindfunclet$??$emplace@U?$pair@KH@std@@@?$_Tree@V?$_Tmap_traits@KHU?$less@K@std@@V?$allocator@U?$pair@$$CBKH@std@@@2@$0A@@std@@@std@@QAE?AU?$pair@V?$_Tree_iterator@V?$_Tree_val@U?$_Tree_simple_types@U?$pair@$$CBKH@std@@@std@@@std@@@std@@_N@1@$$QAU?$pair@KH@1@@Z$2
__ehfuncinfo$??$emplace@U?$pair@KH@std@@@?$_Tree@V?$_Tmap_traits@KHU?$less@K@std@@V?$allocator@U?$pair@$$CBKH@std@@@2@$0A@@std@@@std@@QAE?AU?$pair@V?$_Tree_iterator@V?$_Tree_val@U?$_Tree_simple_types@U?$pair@$$CBKH@std@@@std@@@std@@@std@@_N@1@$$QAU?$pair@KH@1@@Z DD 019930522H
	DD	01H
	DD	FLAT:__unwindtable$??$emplace@U?$pair@KH@std@@@?$_Tree@V?$_Tmap_traits@KHU?$less@K@std@@V?$allocator@U?$pair@$$CBKH@std@@@2@$0A@@std@@@std@@QAE?AU?$pair@V?$_Tree_iterator@V?$_Tree_val@U?$_Tree_simple_types@U?$pair@$$CBKH@std@@@std@@@std@@@std@@_N@1@$$QAU?$pair@KH@1@@Z
	DD	2 DUP(00H)
	DD	2 DUP(00H)
	DD	00H
	DD	01H
xdata$x	ENDS
;	COMDAT xdata$x
xdata$x	SEGMENT
__unwindtable$??$emplace@U?$pair@KPAUCREATE_MONSTER_PROP@@@std@@@?$_Tree@V?$_Tmap_traits@KPAUCREATE_MONSTER_PROP@@U?$less@K@std@@V?$allocator@U?$pair@$$CBKPAUCREATE_MONSTER_PROP@@@std@@@3@$0A@@std@@@std@@QAE?AU?$pair@V?$_Tree_iterator@V?$_Tree_val@U?$_Tree_simple_types@U?$pair@$$CBKPAUCREATE_MONSTER_PROP@@@std@@@std@@@std@@@std@@_N@1@$$QAU?$pair@KPAUCREATE_MONSTER_PROP@@@1@@Z DD 0ffffffffH
	DD	FLAT:__unwindfunclet$??$emplace@U?$pair@KPAUCREATE_MONSTER_PROP@@@std@@@?$_Tree@V?$_Tmap_traits@KPAUCREATE_MONSTER_PROP@@U?$less@K@std@@V?$allocator@U?$pair@$$CBKPAUCREATE_MONSTER_PROP@@@std@@@3@$0A@@std@@@std@@QAE?AU?$pair@V?$_Tree_iterator@V?$_Tree_val@U?$_Tree_simple_types@U?$pair@$$CBKPAUCREATE_MONSTER_PROP@@@std@@@std@@@std@@@std@@_N@1@$$QAU?$pair@KPAUCREATE_MONSTER_PROP@@@1@@Z$2
__ehfuncinfo$??$emplace@U?$pair@KPAUCREATE_MONSTER_PROP@@@std@@@?$_Tree@V?$_Tmap_traits@KPAUCREATE_MONSTER_PROP@@U?$less@K@std@@V?$allocator@U?$pair@$$CBKPAUCREATE_MONSTER_PROP@@@std@@@3@$0A@@std@@@std@@QAE?AU?$pair@V?$_Tree_iterator@V?$_Tree_val@U?$_Tree_simple_types@U?$pair@$$CBKPAUCREATE_MONSTER_PROP@@@std@@@std@@@std@@@std@@_N@1@$$QAU?$pair@KPAUCREATE_MONSTER_PROP@@@1@@Z DD 019930522H
	DD	01H
	DD	FLAT:__unwindtable$??$emplace@U?$pair@KPAUCREATE_MONSTER_PROP@@@std@@@?$_Tree@V?$_Tmap_traits@KPAUCREATE_MONSTER_PROP@@U?$less@K@std@@V?$allocator@U?$pair@$$CBKPAUCREATE_MONSTER_PROP@@@std@@@3@$0A@@std@@@std@@QAE?AU?$pair@V?$_Tree_iterator@V?$_Tree_val@U?$_Tree_simple_types@U?$pair@$$CBKPAUCREATE_MONSTER_PROP@@@std@@@std@@@std@@@std@@_N@1@$$QAU?$pair@KPAUCREATE_MONSTER_PROP@@@1@@Z
	DD	2 DUP(00H)
	DD	2 DUP(00H)
	DD	00H
	DD	01H
xdata$x	ENDS
;	COMDAT xdata$x
xdata$x	SEGMENT
__unwindtable$??$insert@U?$pair@KUCREATE_MONSTER_INFO@@@std@@$0A@@?$map@KUCREATE_MONSTER_INFO@@U?$less@K@std@@V?$allocator@U?$pair@$$CBKUCREATE_MONSTER_INFO@@@std@@@3@@std@@QAE?AU?$pair@V?$_Tree_iterator@V?$_Tree_val@U?$_Tree_simple_types@U?$pair@$$CBKUCREATE_MONSTER_INFO@@@std@@@std@@@std@@@std@@_N@1@$$QAU?$pair@KUCREATE_MONSTER_INFO@@@1@@Z DD 0ffffffffH
	DD	FLAT:__unwindfunclet$??$insert@U?$pair@KUCREATE_MONSTER_INFO@@@std@@$0A@@?$map@KUCREATE_MONSTER_INFO@@U?$less@K@std@@V?$allocator@U?$pair@$$CBKUCREATE_MONSTER_INFO@@@std@@@3@@std@@QAE?AU?$pair@V?$_Tree_iterator@V?$_Tree_val@U?$_Tree_simple_types@U?$pair@$$CBKUCREATE_MONSTER_INFO@@@std@@@std@@@std@@@std@@_N@1@$$QAU?$pair@KUCREATE_MONSTER_INFO@@@1@@Z$2
__ehfuncinfo$??$insert@U?$pair@KUCREATE_MONSTER_INFO@@@std@@$0A@@?$map@KUCREATE_MONSTER_INFO@@U?$less@K@std@@V?$allocator@U?$pair@$$CBKUCREATE_MONSTER_INFO@@@std@@@3@@std@@QAE?AU?$pair@V?$_Tree_iterator@V?$_Tree_val@U?$_Tree_simple_types@U?$pair@$$CBKUCREATE_MONSTER_INFO@@@std@@@std@@@std@@@std@@_N@1@$$QAU?$pair@KUCREATE_MONSTER_INFO@@@1@@Z DD 019930522H
	DD	01H
	DD	FLAT:__unwindtable$??$insert@U?$pair@KUCREATE_MONSTER_INFO@@@std@@$0A@@?$map@KUCREATE_MONSTER_INFO@@U?$less@K@std@@V?$allocator@U?$pair@$$CBKUCREATE_MONSTER_INFO@@@std@@@3@@std@@QAE?AU?$pair@V?$_Tree_iterator@V?$_Tree_val@U?$_Tree_simple_types@U?$pair@$$CBKUCREATE_MONSTER_INFO@@@std@@@std@@@std@@@std@@_N@1@$$QAU?$pair@KUCREATE_MONSTER_INFO@@@1@@Z
	DD	2 DUP(00H)
	DD	2 DUP(00H)
	DD	00H
	DD	01H
xdata$x	ENDS
;	COMDAT xdata$x
xdata$x	SEGMENT
__unwindtable$??$insert@U?$pair@KH@std@@$0A@@?$map@KHU?$less@K@std@@V?$allocator@U?$pair@$$CBKH@std@@@2@@std@@QAE?AU?$pair@V?$_Tree_iterator@V?$_Tree_val@U?$_Tree_simple_types@U?$pair@$$CBKH@std@@@std@@@std@@@std@@_N@1@$$QAU?$pair@KH@1@@Z DD 0ffffffffH
	DD	FLAT:__unwindfunclet$??$insert@U?$pair@KH@std@@$0A@@?$map@KHU?$less@K@std@@V?$allocator@U?$pair@$$CBKH@std@@@2@@std@@QAE?AU?$pair@V?$_Tree_iterator@V?$_Tree_val@U?$_Tree_simple_types@U?$pair@$$CBKH@std@@@std@@@std@@@std@@_N@1@$$QAU?$pair@KH@1@@Z$2
__ehfuncinfo$??$insert@U?$pair@KH@std@@$0A@@?$map@KHU?$less@K@std@@V?$allocator@U?$pair@$$CBKH@std@@@2@@std@@QAE?AU?$pair@V?$_Tree_iterator@V?$_Tree_val@U?$_Tree_simple_types@U?$pair@$$CBKH@std@@@std@@@std@@@std@@_N@1@$$QAU?$pair@KH@1@@Z DD 019930522H
	DD	01H
	DD	FLAT:__unwindtable$??$insert@U?$pair@KH@std@@$0A@@?$map@KHU?$less@K@std@@V?$allocator@U?$pair@$$CBKH@std@@@2@@std@@QAE?AU?$pair@V?$_Tree_iterator@V?$_Tree_val@U?$_Tree_simple_types@U?$pair@$$CBKH@std@@@std@@@std@@@std@@_N@1@$$QAU?$pair@KH@1@@Z
	DD	2 DUP(00H)
	DD	2 DUP(00H)
	DD	00H
	DD	01H
xdata$x	ENDS
;	COMDAT xdata$x
xdata$x	SEGMENT
__unwindtable$??$insert@U?$pair@KPAUCREATE_MONSTER_PROP@@@std@@$0A@@?$map@KPAUCREATE_MONSTER_PROP@@U?$less@K@std@@V?$allocator@U?$pair@$$CBKPAUCREATE_MONSTER_PROP@@@std@@@3@@std@@QAE?AU?$pair@V?$_Tree_iterator@V?$_Tree_val@U?$_Tree_simple_types@U?$pair@$$CBKPAUCREATE_MONSTER_PROP@@@std@@@std@@@std@@@std@@_N@1@$$QAU?$pair@KPAUCREATE_MONSTER_PROP@@@1@@Z DD 0ffffffffH
	DD	FLAT:__unwindfunclet$??$insert@U?$pair@KPAUCREATE_MONSTER_PROP@@@std@@$0A@@?$map@KPAUCREATE_MONSTER_PROP@@U?$less@K@std@@V?$allocator@U?$pair@$$CBKPAUCREATE_MONSTER_PROP@@@std@@@3@@std@@QAE?AU?$pair@V?$_Tree_iterator@V?$_Tree_val@U?$_Tree_simple_types@U?$pair@$$CBKPAUCREATE_MONSTER_PROP@@@std@@@std@@@std@@@std@@_N@1@$$QAU?$pair@KPAUCREATE_MONSTER_PROP@@@1@@Z$2
__ehfuncinfo$??$insert@U?$pair@KPAUCREATE_MONSTER_PROP@@@std@@$0A@@?$map@KPAUCREATE_MONSTER_PROP@@U?$less@K@std@@V?$allocator@U?$pair@$$CBKPAUCREATE_MONSTER_PROP@@@std@@@3@@std@@QAE?AU?$pair@V?$_Tree_iterator@V?$_Tree_val@U?$_Tree_simple_types@U?$pair@$$CBKPAUCREATE_MONSTER_PROP@@@std@@@std@@@std@@@std@@_N@1@$$QAU?$pair@KPAUCREATE_MONSTER_PROP@@@1@@Z DD 019930522H
	DD	01H
	DD	FLAT:__unwindtable$??$insert@U?$pair@KPAUCREATE_MONSTER_PROP@@@std@@$0A@@?$map@KPAUCREATE_MONSTER_PROP@@U?$less@K@std@@V?$allocator@U?$pair@$$CBKPAUCREATE_MONSTER_PROP@@@std@@@3@@std@@QAE?AU?$pair@V?$_Tree_iterator@V?$_Tree_val@U?$_Tree_simple_types@U?$pair@$$CBKPAUCREATE_MONSTER_PROP@@@std@@@std@@@std@@@std@@_N@1@$$QAU?$pair@KPAUCREATE_MONSTER_PROP@@@1@@Z
	DD	2 DUP(00H)
	DD	2 DUP(00H)
	DD	00H
	DD	01H
xdata$x	ENDS
;	COMDAT xdata$x
xdata$x	SEGMENT
__unwindtable$?CreateMonster@CCreateMonster@@QAEXPAVCUser@@KUD3DXVECTOR3@@@Z DD 0ffffffffH
	DD	FLAT:__unwindfunclet$?CreateMonster@CCreateMonster@@QAEXPAVCUser@@KUD3DXVECTOR3@@@Z$2
__ehfuncinfo$?CreateMonster@CCreateMonster@@QAEXPAVCUser@@KUD3DXVECTOR3@@@Z DD 019930522H
	DD	01H
	DD	FLAT:__unwindtable$?CreateMonster@CCreateMonster@@QAEXPAVCUser@@KUD3DXVECTOR3@@@Z
	DD	2 DUP(00H)
	DD	2 DUP(00H)
	DD	00H
	DD	01H
xdata$x	ENDS
;	COMDAT xdata$x
xdata$x	SEGMENT
__unwindtable$?LoadScript@CCreateMonster@@QAEXXZ DD 0ffffffffH
	DD	FLAT:__unwindfunclet$?LoadScript@CCreateMonster@@QAEXXZ$0
	DD	00H
	DD	FLAT:__unwindfunclet$?LoadScript@CCreateMonster@@QAEXXZ$1
	DD	00H
	DD	FLAT:__unwindfunclet$?LoadScript@CCreateMonster@@QAEXXZ$6
	DD	00H
	DD	FLAT:__unwindfunclet$?LoadScript@CCreateMonster@@QAEXXZ$11
__ehfuncinfo$?LoadScript@CCreateMonster@@QAEXXZ DD 019930522H
	DD	04H
	DD	FLAT:__unwindtable$?LoadScript@CCreateMonster@@QAEXXZ
	DD	2 DUP(00H)
	DD	2 DUP(00H)
	DD	00H
	DD	01H
xdata$x	ENDS
;	COMDAT xdata$x
xdata$x	SEGMENT
__unwindtable$?GetInstance@CCreateMonster@@SAPAV1@XZ DD 0ffffffffH
	DD	FLAT:__unwindfunclet$?GetInstance@CCreateMonster@@SAPAV1@XZ$0
__ehfuncinfo$?GetInstance@CCreateMonster@@SAPAV1@XZ DD 019930522H
	DD	01H
	DD	FLAT:__unwindtable$?GetInstance@CCreateMonster@@SAPAV1@XZ
	DD	2 DUP(00H)
	DD	2 DUP(00H)
	DD	00H
	DD	01H
xdata$x	ENDS
;	COMDAT xdata$x
xdata$x	SEGMENT
__unwindtable$??0CCreateMonster@@QAE@XZ DD 0ffffffffH
	DD	FLAT:__unwindfunclet$??0CCreateMonster@@QAE@XZ$0
__ehfuncinfo$??0CCreateMonster@@QAE@XZ DD 019930522H
	DD	01H
	DD	FLAT:__unwindtable$??0CCreateMonster@@QAE@XZ
	DD	2 DUP(00H)
	DD	2 DUP(00H)
	DD	00H
	DD	01H
xdata$x	ENDS
; Function compile flags: /Ogtp
; File C:\Program Files\Microsoft Visual Studio\2022\Professional\VC\Tools\MSVC\14.44.35207\include\xmemory
;	COMDAT ??1?$_Alloc_construct_ptr@V?$allocator@U?$_Tree_node@U?$pair@$$CBKUCREATE_MONSTER_INFO@@@std@@PAX@std@@@std@@@std@@QAE@XZ
_TEXT	SEGMENT
??1?$_Alloc_construct_ptr@V?$allocator@U?$_Tree_node@U?$pair@$$CBKUCREATE_MONSTER_INFO@@@std@@PAX@std@@@std@@@std@@QAE@XZ PROC ; std::_Alloc_construct_ptr<std::allocator<std::_Tree_node<std::pair<unsigned long const ,CREATE_MONSTER_INFO>,void *> > >::~_Alloc_construct_ptr<std::allocator<std::_Tree_node<std::pair<unsigned long const ,CREATE_MONSTER_INFO>,void *> > >, COMDAT
; _this$ = ecx

; 1172 :         if (_Ptr) {

  00000	8b 41 04	 mov	 eax, DWORD PTR [ecx+4]
  00003	85 c0		 test	 eax, eax
  00005	74 0b		 je	 SHORT $LN10@Alloc_cons

; 289  :         ::operator delete(_Ptr, _Bytes);

  00007	6a 20		 push	 32			; 00000020H
  00009	50		 push	 eax
  0000a	e8 00 00 00 00	 call	 ??3@YAXPAXI@Z		; operator delete
  0000f	83 c4 08	 add	 esp, 8
$LN10@Alloc_cons:

; 1173 :             _Al.deallocate(_Ptr, 1);
; 1174 :         }
; 1175 :     }

  00012	c3		 ret	 0
??1?$_Alloc_construct_ptr@V?$allocator@U?$_Tree_node@U?$pair@$$CBKUCREATE_MONSTER_INFO@@@std@@PAX@std@@@std@@@std@@QAE@XZ ENDP ; std::_Alloc_construct_ptr<std::allocator<std::_Tree_node<std::pair<unsigned long const ,CREATE_MONSTER_INFO>,void *> > >::~_Alloc_construct_ptr<std::allocator<std::_Tree_node<std::pair<unsigned long const ,CREATE_MONSTER_INFO>,void *> > >
_TEXT	ENDS
; Function compile flags: /Ogtp
; File C:\Program Files\Microsoft Visual Studio\2022\Professional\VC\Tools\MSVC\14.44.35207\include\xmemory
;	COMDAT ??1?$_Alloc_construct_ptr@V?$allocator@U?$_Tree_node@U?$pair@$$CBKH@std@@PAX@std@@@std@@@std@@QAE@XZ
_TEXT	SEGMENT
??1?$_Alloc_construct_ptr@V?$allocator@U?$_Tree_node@U?$pair@$$CBKH@std@@PAX@std@@@std@@@std@@QAE@XZ PROC ; std::_Alloc_construct_ptr<std::allocator<std::_Tree_node<std::pair<unsigned long const ,int>,void *> > >::~_Alloc_construct_ptr<std::allocator<std::_Tree_node<std::pair<unsigned long const ,int>,void *> > >, COMDAT
; _this$ = ecx

; 1172 :         if (_Ptr) {

  00000	8b 41 04	 mov	 eax, DWORD PTR [ecx+4]
  00003	85 c0		 test	 eax, eax
  00005	74 0b		 je	 SHORT $LN10@Alloc_cons

; 289  :         ::operator delete(_Ptr, _Bytes);

  00007	6a 18		 push	 24			; 00000018H
  00009	50		 push	 eax
  0000a	e8 00 00 00 00	 call	 ??3@YAXPAXI@Z		; operator delete
  0000f	83 c4 08	 add	 esp, 8
$LN10@Alloc_cons:

; 1173 :             _Al.deallocate(_Ptr, 1);
; 1174 :         }
; 1175 :     }

  00012	c3		 ret	 0
??1?$_Alloc_construct_ptr@V?$allocator@U?$_Tree_node@U?$pair@$$CBKH@std@@PAX@std@@@std@@@std@@QAE@XZ ENDP ; std::_Alloc_construct_ptr<std::allocator<std::_Tree_node<std::pair<unsigned long const ,int>,void *> > >::~_Alloc_construct_ptr<std::allocator<std::_Tree_node<std::pair<unsigned long const ,int>,void *> > >
_TEXT	ENDS
; Function compile flags: /Ogtp
; File C:\Program Files\Microsoft Visual Studio\2022\Professional\VC\Tools\MSVC\14.44.35207\include\xmemory
;	COMDAT ??1?$_Alloc_construct_ptr@V?$allocator@U?$_Tree_node@U?$pair@$$CBKPAUCREATE_MONSTER_PROP@@@std@@PAX@std@@@std@@@std@@QAE@XZ
_TEXT	SEGMENT
??1?$_Alloc_construct_ptr@V?$allocator@U?$_Tree_node@U?$pair@$$CBKPAUCREATE_MONSTER_PROP@@@std@@PAX@std@@@std@@@std@@QAE@XZ PROC ; std::_Alloc_construct_ptr<std::allocator<std::_Tree_node<std::pair<unsigned long const ,CREATE_MONSTER_PROP *>,void *> > >::~_Alloc_construct_ptr<std::allocator<std::_Tree_node<std::pair<unsigned long const ,CREATE_MONSTER_PROP *>,void *> > >, COMDAT
; _this$ = ecx

; 1172 :         if (_Ptr) {

  00000	8b 41 04	 mov	 eax, DWORD PTR [ecx+4]
  00003	85 c0		 test	 eax, eax
  00005	74 0b		 je	 SHORT $LN10@Alloc_cons

; 289  :         ::operator delete(_Ptr, _Bytes);

  00007	6a 18		 push	 24			; 00000018H
  00009	50		 push	 eax
  0000a	e8 00 00 00 00	 call	 ??3@YAXPAXI@Z		; operator delete
  0000f	83 c4 08	 add	 esp, 8
$LN10@Alloc_cons:

; 1173 :             _Al.deallocate(_Ptr, 1);
; 1174 :         }
; 1175 :     }

  00012	c3		 ret	 0
??1?$_Alloc_construct_ptr@V?$allocator@U?$_Tree_node@U?$pair@$$CBKPAUCREATE_MONSTER_PROP@@@std@@PAX@std@@@std@@@std@@QAE@XZ ENDP ; std::_Alloc_construct_ptr<std::allocator<std::_Tree_node<std::pair<unsigned long const ,CREATE_MONSTER_PROP *>,void *> > >::~_Alloc_construct_ptr<std::allocator<std::_Tree_node<std::pair<unsigned long const ,CREATE_MONSTER_PROP *>,void *> > >
_TEXT	ENDS
; Function compile flags: /Ogtp
; File C:\Program Files\Microsoft Visual Studio\2022\Professional\VC\Tools\MSVC\14.44.35207\include\xtree
; File C:\Program Files\Microsoft Visual Studio\2022\Professional\VC\Tools\MSVC\14.44.35207\include\type_traits
; File C:\Program Files\Microsoft Visual Studio\2022\Professional\VC\Tools\MSVC\14.44.35207\include\xtree
; File C:\Program Files\Microsoft Visual Studio\2022\Professional\VC\Tools\MSVC\14.44.35207\include\type_traits
; File C:\Program Files\Microsoft Visual Studio\2022\Professional\VC\Tools\MSVC\14.44.35207\include\xtree
;	COMDAT ??$_Find_lower_bound@K@?$_Tree@V?$_Tmap_traits@KPAUCREATE_MONSTER_PROP@@U?$less@K@std@@V?$allocator@U?$pair@$$CBKPAUCREATE_MONSTER_PROP@@@std@@@3@$0A@@std@@@std@@IBE?AU?$_Tree_find_result@PAU?$_Tree_node@U?$pair@$$CBKPAUCREATE_MONSTER_PROP@@@std@@PAX@std@@@1@ABK@Z
_TEXT	SEGMENT
___$ReturnUdt$ = 8					; size = 4
__Keyval$ = 12						; size = 4
??$_Find_lower_bound@K@?$_Tree@V?$_Tmap_traits@KPAUCREATE_MONSTER_PROP@@U?$less@K@std@@V?$allocator@U?$pair@$$CBKPAUCREATE_MONSTER_PROP@@@std@@@3@$0A@@std@@@std@@IBE?AU?$_Tree_find_result@PAU?$_Tree_node@U?$pair@$$CBKPAUCREATE_MONSTER_PROP@@@std@@PAX@std@@@1@ABK@Z PROC ; std::_Tree<std::_Tmap_traits<unsigned long,CREATE_MONSTER_PROP *,std::less<unsigned long>,std::allocator<std::pair<unsigned long const ,CREATE_MONSTER_PROP *> >,0> >::_Find_lower_bound<unsigned long>, COMDAT
; _this$ = ecx

; 1628 :     _Tree_find_result<_Nodeptr> _Find_lower_bound(const _Keyty& _Keyval) const {

  00000	55		 push	 ebp
  00001	8b ec		 mov	 ebp, esp

; 1629 :         const auto _Scary = _Get_scary();
; 1630 :         _Tree_find_result<_Nodeptr> _Result{{_Scary->_Myhead->_Parent, _Tree_child::_Right}, _Scary->_Myhead};

  00003	8b 09		 mov	 ecx, DWORD PTR [ecx]
  00005	8b 55 08	 mov	 edx, DWORD PTR ___$ReturnUdt$[ebp]
  00008	8b 41 04	 mov	 eax, DWORD PTR [ecx+4]
  0000b	89 02		 mov	 DWORD PTR [edx], eax
  0000d	c7 42 04 00 00
	00 00		 mov	 DWORD PTR [edx+4], 0
  00014	89 4a 08	 mov	 DWORD PTR [edx+8], ecx

; 1631 :         _Nodeptr _Trynode = _Result._Location._Parent;
; 1632 :         while (!_Trynode->_Isnil) {

  00017	80 78 0d 00	 cmp	 BYTE PTR [eax+13], 0
  0001b	75 28		 jne	 SHORT $LN13@Find_lower
; File C:\Program Files\Microsoft Visual Studio\2022\Professional\VC\Tools\MSVC\14.44.35207\include\type_traits

; 2380 :         return _Left < _Right;

  0001d	8b 4d 0c	 mov	 ecx, DWORD PTR __Keyval$[ebp]
  00020	56		 push	 esi
  00021	8b 31		 mov	 esi, DWORD PTR [ecx]
$LL2@Find_lower:
; File C:\Program Files\Microsoft Visual Studio\2022\Professional\VC\Tools\MSVC\14.44.35207\include\xtree

; 1633 :             _Result._Location._Parent = _Trynode;

  00023	89 02		 mov	 DWORD PTR [edx], eax
; File C:\Program Files\Microsoft Visual Studio\2022\Professional\VC\Tools\MSVC\14.44.35207\include\type_traits

; 2380 :         return _Left < _Right;

  00025	39 70 10	 cmp	 DWORD PTR [eax+16], esi
; File C:\Program Files\Microsoft Visual Studio\2022\Professional\VC\Tools\MSVC\14.44.35207\include\xtree

; 1634 :             if (_DEBUG_LT_PRED(_Getcomp(), _Traits::_Kfn(_Trynode->_Myval), _Keyval)) {

  00028	73 07		 jae	 SHORT $LN4@Find_lower

; 1635 :                 _Result._Location._Child = _Tree_child::_Right;
; 1636 :                 _Trynode                 = _Trynode->_Right;

  0002a	8b 40 08	 mov	 eax, DWORD PTR [eax+8]
  0002d	33 c9		 xor	 ecx, ecx

; 1637 :             } else {

  0002f	eb 0a		 jmp	 SHORT $LN5@Find_lower
$LN4@Find_lower:

; 1638 :                 _Result._Location._Child = _Tree_child::_Left;
; 1639 :                 _Result._Bound           = _Trynode;

  00031	89 42 08	 mov	 DWORD PTR [edx+8], eax

; 1640 :                 _Trynode                 = _Trynode->_Left;

  00034	b9 01 00 00 00	 mov	 ecx, 1
  00039	8b 00		 mov	 eax, DWORD PTR [eax]
$LN5@Find_lower:

; 1631 :         _Nodeptr _Trynode = _Result._Location._Parent;
; 1632 :         while (!_Trynode->_Isnil) {

  0003b	89 4a 04	 mov	 DWORD PTR [edx+4], ecx
  0003e	80 78 0d 00	 cmp	 BYTE PTR [eax+13], 0
  00042	74 df		 je	 SHORT $LL2@Find_lower
  00044	5e		 pop	 esi
$LN13@Find_lower:

; 1641 :             }
; 1642 :         }
; 1643 : 
; 1644 :         return _Result;
; 1645 :     }

  00045	8b c2		 mov	 eax, edx
  00047	5d		 pop	 ebp
  00048	c2 08 00	 ret	 8
??$_Find_lower_bound@K@?$_Tree@V?$_Tmap_traits@KPAUCREATE_MONSTER_PROP@@U?$less@K@std@@V?$allocator@U?$pair@$$CBKPAUCREATE_MONSTER_PROP@@@std@@@3@$0A@@std@@@std@@IBE?AU?$_Tree_find_result@PAU?$_Tree_node@U?$pair@$$CBKPAUCREATE_MONSTER_PROP@@@std@@PAX@std@@@1@ABK@Z ENDP ; std::_Tree<std::_Tmap_traits<unsigned long,CREATE_MONSTER_PROP *,std::less<unsigned long>,std::allocator<std::pair<unsigned long const ,CREATE_MONSTER_PROP *> >,0> >::_Find_lower_bound<unsigned long>
_TEXT	ENDS
; Function compile flags: /Ogtp
; File C:\Program Files\Microsoft Visual Studio\2022\Professional\VC\Tools\MSVC\14.44.35207\include\xtree
; File C:\Program Files\Microsoft Visual Studio\2022\Professional\VC\Tools\MSVC\14.44.35207\include\type_traits
; File C:\Program Files\Microsoft Visual Studio\2022\Professional\VC\Tools\MSVC\14.44.35207\include\xtree
; File C:\Program Files\Microsoft Visual Studio\2022\Professional\VC\Tools\MSVC\14.44.35207\include\type_traits
; File C:\Program Files\Microsoft Visual Studio\2022\Professional\VC\Tools\MSVC\14.44.35207\include\xtree
;	COMDAT ??$_Find_lower_bound@K@?$_Tree@V?$_Tmap_traits@KUCREATE_MONSTER_INFO@@U?$less@K@std@@V?$allocator@U?$pair@$$CBKUCREATE_MONSTER_INFO@@@std@@@3@$0A@@std@@@std@@IBE?AU?$_Tree_find_result@PAU?$_Tree_node@U?$pair@$$CBKUCREATE_MONSTER_INFO@@@std@@PAX@std@@@1@ABK@Z
_TEXT	SEGMENT
___$ReturnUdt$ = 8					; size = 4
__Keyval$ = 12						; size = 4
??$_Find_lower_bound@K@?$_Tree@V?$_Tmap_traits@KUCREATE_MONSTER_INFO@@U?$less@K@std@@V?$allocator@U?$pair@$$CBKUCREATE_MONSTER_INFO@@@std@@@3@$0A@@std@@@std@@IBE?AU?$_Tree_find_result@PAU?$_Tree_node@U?$pair@$$CBKUCREATE_MONSTER_INFO@@@std@@PAX@std@@@1@ABK@Z PROC ; std::_Tree<std::_Tmap_traits<unsigned long,CREATE_MONSTER_INFO,std::less<unsigned long>,std::allocator<std::pair<unsigned long const ,CREATE_MONSTER_INFO> >,0> >::_Find_lower_bound<unsigned long>, COMDAT
; _this$ = ecx

; 1628 :     _Tree_find_result<_Nodeptr> _Find_lower_bound(const _Keyty& _Keyval) const {

  00000	55		 push	 ebp
  00001	8b ec		 mov	 ebp, esp

; 1629 :         const auto _Scary = _Get_scary();
; 1630 :         _Tree_find_result<_Nodeptr> _Result{{_Scary->_Myhead->_Parent, _Tree_child::_Right}, _Scary->_Myhead};

  00003	8b 09		 mov	 ecx, DWORD PTR [ecx]
  00005	8b 55 08	 mov	 edx, DWORD PTR ___$ReturnUdt$[ebp]
  00008	8b 41 04	 mov	 eax, DWORD PTR [ecx+4]
  0000b	89 02		 mov	 DWORD PTR [edx], eax
  0000d	c7 42 04 00 00
	00 00		 mov	 DWORD PTR [edx+4], 0
  00014	89 4a 08	 mov	 DWORD PTR [edx+8], ecx

; 1631 :         _Nodeptr _Trynode = _Result._Location._Parent;
; 1632 :         while (!_Trynode->_Isnil) {

  00017	80 78 0d 00	 cmp	 BYTE PTR [eax+13], 0
  0001b	75 28		 jne	 SHORT $LN13@Find_lower
; File C:\Program Files\Microsoft Visual Studio\2022\Professional\VC\Tools\MSVC\14.44.35207\include\type_traits

; 2380 :         return _Left < _Right;

  0001d	8b 4d 0c	 mov	 ecx, DWORD PTR __Keyval$[ebp]
  00020	56		 push	 esi
  00021	8b 31		 mov	 esi, DWORD PTR [ecx]
$LL2@Find_lower:
; File C:\Program Files\Microsoft Visual Studio\2022\Professional\VC\Tools\MSVC\14.44.35207\include\xtree

; 1633 :             _Result._Location._Parent = _Trynode;

  00023	89 02		 mov	 DWORD PTR [edx], eax
; File C:\Program Files\Microsoft Visual Studio\2022\Professional\VC\Tools\MSVC\14.44.35207\include\type_traits

; 2380 :         return _Left < _Right;

  00025	39 70 10	 cmp	 DWORD PTR [eax+16], esi
; File C:\Program Files\Microsoft Visual Studio\2022\Professional\VC\Tools\MSVC\14.44.35207\include\xtree

; 1634 :             if (_DEBUG_LT_PRED(_Getcomp(), _Traits::_Kfn(_Trynode->_Myval), _Keyval)) {

  00028	73 07		 jae	 SHORT $LN4@Find_lower

; 1635 :                 _Result._Location._Child = _Tree_child::_Right;
; 1636 :                 _Trynode                 = _Trynode->_Right;

  0002a	8b 40 08	 mov	 eax, DWORD PTR [eax+8]
  0002d	33 c9		 xor	 ecx, ecx

; 1637 :             } else {

  0002f	eb 0a		 jmp	 SHORT $LN5@Find_lower
$LN4@Find_lower:

; 1638 :                 _Result._Location._Child = _Tree_child::_Left;
; 1639 :                 _Result._Bound           = _Trynode;

  00031	89 42 08	 mov	 DWORD PTR [edx+8], eax

; 1640 :                 _Trynode                 = _Trynode->_Left;

  00034	b9 01 00 00 00	 mov	 ecx, 1
  00039	8b 00		 mov	 eax, DWORD PTR [eax]
$LN5@Find_lower:

; 1631 :         _Nodeptr _Trynode = _Result._Location._Parent;
; 1632 :         while (!_Trynode->_Isnil) {

  0003b	89 4a 04	 mov	 DWORD PTR [edx+4], ecx
  0003e	80 78 0d 00	 cmp	 BYTE PTR [eax+13], 0
  00042	74 df		 je	 SHORT $LL2@Find_lower
  00044	5e		 pop	 esi
$LN13@Find_lower:

; 1641 :             }
; 1642 :         }
; 1643 : 
; 1644 :         return _Result;
; 1645 :     }

  00045	8b c2		 mov	 eax, edx
  00047	5d		 pop	 ebp
  00048	c2 08 00	 ret	 8
??$_Find_lower_bound@K@?$_Tree@V?$_Tmap_traits@KUCREATE_MONSTER_INFO@@U?$less@K@std@@V?$allocator@U?$pair@$$CBKUCREATE_MONSTER_INFO@@@std@@@3@$0A@@std@@@std@@IBE?AU?$_Tree_find_result@PAU?$_Tree_node@U?$pair@$$CBKUCREATE_MONSTER_INFO@@@std@@PAX@std@@@1@ABK@Z ENDP ; std::_Tree<std::_Tmap_traits<unsigned long,CREATE_MONSTER_INFO,std::less<unsigned long>,std::allocator<std::pair<unsigned long const ,CREATE_MONSTER_INFO> >,0> >::_Find_lower_bound<unsigned long>
_TEXT	ENDS
; Function compile flags: /Ogtp
; File C:\Program Files\Microsoft Visual Studio\2022\Professional\VC\Tools\MSVC\14.44.35207\include\xtree
; File C:\Program Files\Microsoft Visual Studio\2022\Professional\VC\Tools\MSVC\14.44.35207\include\utility
; File C:\Program Files\Microsoft Visual Studio\2022\Professional\VC\Tools\MSVC\14.44.35207\include\xmemory
; File C:\Program Files\Microsoft Visual Studio\2022\Professional\VC\Tools\MSVC\14.44.35207\include\xtree
;	COMDAT ??$_Erase_tree@V?$allocator@U?$_Tree_node@U?$pair@$$CBKPAUCREATE_MONSTER_PROP@@@std@@PAX@std@@@std@@@?$_Tree_val@U?$_Tree_simple_types@U?$pair@$$CBKPAUCREATE_MONSTER_PROP@@@std@@@std@@@std@@QAEXAAV?$allocator@U?$_Tree_node@U?$pair@$$CBKPAUCREATE_MONSTER_PROP@@@std@@PAX@std@@@1@PAU?$_Tree_node@U?$pair@$$CBKPAUCREATE_MONSTER_PROP@@@std@@PAX@1@@Z
_TEXT	SEGMENT
__Al$ = 8						; size = 4
__Rootnode$ = 12					; size = 4
??$_Erase_tree@V?$allocator@U?$_Tree_node@U?$pair@$$CBKPAUCREATE_MONSTER_PROP@@@std@@PAX@std@@@std@@@?$_Tree_val@U?$_Tree_simple_types@U?$pair@$$CBKPAUCREATE_MONSTER_PROP@@@std@@@std@@@std@@QAEXAAV?$allocator@U?$_Tree_node@U?$pair@$$CBKPAUCREATE_MONSTER_PROP@@@std@@PAX@std@@@1@PAU?$_Tree_node@U?$pair@$$CBKPAUCREATE_MONSTER_PROP@@@std@@PAX@1@@Z PROC ; std::_Tree_val<std::_Tree_simple_types<std::pair<unsigned long const ,CREATE_MONSTER_PROP *> > >::_Erase_tree<std::allocator<std::_Tree_node<std::pair<unsigned long const ,CREATE_MONSTER_PROP *>,void *> > >, COMDAT
; _this$ = ecx

; 767  :     void _Erase_tree(_Alnode& _Al, _Nodeptr _Rootnode) noexcept {

  00000	55		 push	 ebp
  00001	8b ec		 mov	 ebp, esp
  00003	53		 push	 ebx
  00004	56		 push	 esi

; 768  :         while (!_Rootnode->_Isnil) { // free subtrees, then node

  00005	8b 75 0c	 mov	 esi, DWORD PTR __Rootnode$[ebp]
  00008	8b d9		 mov	 ebx, ecx
  0000a	80 7e 0d 00	 cmp	 BYTE PTR [esi+13], 0
  0000e	75 25		 jne	 SHORT $LN34@Erase_tree
  00010	57		 push	 edi
  00011	8b 7d 08	 mov	 edi, DWORD PTR __Al$[ebp]
$LL2@Erase_tree:

; 769  :             _Erase_tree(_Al, _Rootnode->_Right);

  00014	ff 76 08	 push	 DWORD PTR [esi+8]
  00017	8b cb		 mov	 ecx, ebx
  00019	57		 push	 edi
  0001a	e8 00 00 00 00	 call	 ??$_Erase_tree@V?$allocator@U?$_Tree_node@U?$pair@$$CBKPAUCREATE_MONSTER_PROP@@@std@@PAX@std@@@std@@@?$_Tree_val@U?$_Tree_simple_types@U?$pair@$$CBKPAUCREATE_MONSTER_PROP@@@std@@@std@@@std@@QAEXAAV?$allocator@U?$_Tree_node@U?$pair@$$CBKPAUCREATE_MONSTER_PROP@@@std@@PAX@std@@@1@PAU?$_Tree_node@U?$pair@$$CBKPAUCREATE_MONSTER_PROP@@@std@@PAX@1@@Z ; std::_Tree_val<std::_Tree_simple_types<std::pair<unsigned long const ,CREATE_MONSTER_PROP *> > >::_Erase_tree<std::allocator<std::_Tree_node<std::pair<unsigned long const ,CREATE_MONSTER_PROP *>,void *> > >
; File C:\Program Files\Microsoft Visual Studio\2022\Professional\VC\Tools\MSVC\14.44.35207\include\utility

; 773  :     _Ty _Old_val = static_cast<_Ty&&>(_Val);

  0001f	8b c6		 mov	 eax, esi

; 774  :     _Val         = static_cast<_Other&&>(_New_val);

  00021	8b 36		 mov	 esi, DWORD PTR [esi]
; File C:\Program Files\Microsoft Visual Studio\2022\Professional\VC\Tools\MSVC\14.44.35207\include\xmemory

; 289  :         ::operator delete(_Ptr, _Bytes);

  00023	6a 18		 push	 24			; 00000018H
  00025	50		 push	 eax
  00026	e8 00 00 00 00	 call	 ??3@YAXPAXI@Z		; operator delete
  0002b	83 c4 08	 add	 esp, 8
; File C:\Program Files\Microsoft Visual Studio\2022\Professional\VC\Tools\MSVC\14.44.35207\include\xtree

; 768  :         while (!_Rootnode->_Isnil) { // free subtrees, then node

  0002e	80 7e 0d 00	 cmp	 BYTE PTR [esi+13], 0
  00032	74 e0		 je	 SHORT $LL2@Erase_tree
  00034	5f		 pop	 edi
$LN34@Erase_tree:
  00035	5e		 pop	 esi

; 770  :             _Alnode::value_type::_Freenode(_Al, _STD exchange(_Rootnode, _Rootnode->_Left));
; 771  :         }
; 772  :     }

  00036	5b		 pop	 ebx
  00037	5d		 pop	 ebp
  00038	c2 08 00	 ret	 8
??$_Erase_tree@V?$allocator@U?$_Tree_node@U?$pair@$$CBKPAUCREATE_MONSTER_PROP@@@std@@PAX@std@@@std@@@?$_Tree_val@U?$_Tree_simple_types@U?$pair@$$CBKPAUCREATE_MONSTER_PROP@@@std@@@std@@@std@@QAEXAAV?$allocator@U?$_Tree_node@U?$pair@$$CBKPAUCREATE_MONSTER_PROP@@@std@@PAX@std@@@1@PAU?$_Tree_node@U?$pair@$$CBKPAUCREATE_MONSTER_PROP@@@std@@PAX@1@@Z ENDP ; std::_Tree_val<std::_Tree_simple_types<std::pair<unsigned long const ,CREATE_MONSTER_PROP *> > >::_Erase_tree<std::allocator<std::_Tree_node<std::pair<unsigned long const ,CREATE_MONSTER_PROP *>,void *> > >
_TEXT	ENDS
; Function compile flags: /Ogtp
; File C:\Program Files\Microsoft Visual Studio\2022\Professional\VC\Tools\MSVC\14.44.35207\include\xtree
; File C:\Program Files\Microsoft Visual Studio\2022\Professional\VC\Tools\MSVC\14.44.35207\include\utility
; File C:\Program Files\Microsoft Visual Studio\2022\Professional\VC\Tools\MSVC\14.44.35207\include\xmemory
; File C:\Program Files\Microsoft Visual Studio\2022\Professional\VC\Tools\MSVC\14.44.35207\include\xtree
;	COMDAT ??$_Erase_tree@V?$allocator@U?$_Tree_node@U?$pair@$$CBKUCREATE_MONSTER_INFO@@@std@@PAX@std@@@std@@@?$_Tree_val@U?$_Tree_simple_types@U?$pair@$$CBKUCREATE_MONSTER_INFO@@@std@@@std@@@std@@QAEXAAV?$allocator@U?$_Tree_node@U?$pair@$$CBKUCREATE_MONSTER_INFO@@@std@@PAX@std@@@1@PAU?$_Tree_node@U?$pair@$$CBKUCREATE_MONSTER_INFO@@@std@@PAX@1@@Z
_TEXT	SEGMENT
__Al$ = 8						; size = 4
__Rootnode$ = 12					; size = 4
??$_Erase_tree@V?$allocator@U?$_Tree_node@U?$pair@$$CBKUCREATE_MONSTER_INFO@@@std@@PAX@std@@@std@@@?$_Tree_val@U?$_Tree_simple_types@U?$pair@$$CBKUCREATE_MONSTER_INFO@@@std@@@std@@@std@@QAEXAAV?$allocator@U?$_Tree_node@U?$pair@$$CBKUCREATE_MONSTER_INFO@@@std@@PAX@std@@@1@PAU?$_Tree_node@U?$pair@$$CBKUCREATE_MONSTER_INFO@@@std@@PAX@1@@Z PROC ; std::_Tree_val<std::_Tree_simple_types<std::pair<unsigned long const ,CREATE_MONSTER_INFO> > >::_Erase_tree<std::allocator<std::_Tree_node<std::pair<unsigned long const ,CREATE_MONSTER_INFO>,void *> > >, COMDAT
; _this$ = ecx

; 767  :     void _Erase_tree(_Alnode& _Al, _Nodeptr _Rootnode) noexcept {

  00000	55		 push	 ebp
  00001	8b ec		 mov	 ebp, esp
  00003	53		 push	 ebx
  00004	56		 push	 esi

; 768  :         while (!_Rootnode->_Isnil) { // free subtrees, then node

  00005	8b 75 0c	 mov	 esi, DWORD PTR __Rootnode$[ebp]
  00008	8b d9		 mov	 ebx, ecx
  0000a	80 7e 0d 00	 cmp	 BYTE PTR [esi+13], 0
  0000e	75 25		 jne	 SHORT $LN34@Erase_tree
  00010	57		 push	 edi
  00011	8b 7d 08	 mov	 edi, DWORD PTR __Al$[ebp]
$LL2@Erase_tree:

; 769  :             _Erase_tree(_Al, _Rootnode->_Right);

  00014	ff 76 08	 push	 DWORD PTR [esi+8]
  00017	8b cb		 mov	 ecx, ebx
  00019	57		 push	 edi
  0001a	e8 00 00 00 00	 call	 ??$_Erase_tree@V?$allocator@U?$_Tree_node@U?$pair@$$CBKUCREATE_MONSTER_INFO@@@std@@PAX@std@@@std@@@?$_Tree_val@U?$_Tree_simple_types@U?$pair@$$CBKUCREATE_MONSTER_INFO@@@std@@@std@@@std@@QAEXAAV?$allocator@U?$_Tree_node@U?$pair@$$CBKUCREATE_MONSTER_INFO@@@std@@PAX@std@@@1@PAU?$_Tree_node@U?$pair@$$CBKUCREATE_MONSTER_INFO@@@std@@PAX@1@@Z ; std::_Tree_val<std::_Tree_simple_types<std::pair<unsigned long const ,CREATE_MONSTER_INFO> > >::_Erase_tree<std::allocator<std::_Tree_node<std::pair<unsigned long const ,CREATE_MONSTER_INFO>,void *> > >
; File C:\Program Files\Microsoft Visual Studio\2022\Professional\VC\Tools\MSVC\14.44.35207\include\utility

; 773  :     _Ty _Old_val = static_cast<_Ty&&>(_Val);

  0001f	8b c6		 mov	 eax, esi

; 774  :     _Val         = static_cast<_Other&&>(_New_val);

  00021	8b 36		 mov	 esi, DWORD PTR [esi]
; File C:\Program Files\Microsoft Visual Studio\2022\Professional\VC\Tools\MSVC\14.44.35207\include\xmemory

; 289  :         ::operator delete(_Ptr, _Bytes);

  00023	6a 20		 push	 32			; 00000020H
  00025	50		 push	 eax
  00026	e8 00 00 00 00	 call	 ??3@YAXPAXI@Z		; operator delete
  0002b	83 c4 08	 add	 esp, 8
; File C:\Program Files\Microsoft Visual Studio\2022\Professional\VC\Tools\MSVC\14.44.35207\include\xtree

; 768  :         while (!_Rootnode->_Isnil) { // free subtrees, then node

  0002e	80 7e 0d 00	 cmp	 BYTE PTR [esi+13], 0
  00032	74 e0		 je	 SHORT $LL2@Erase_tree
  00034	5f		 pop	 edi
$LN34@Erase_tree:
  00035	5e		 pop	 esi

; 770  :             _Alnode::value_type::_Freenode(_Al, _STD exchange(_Rootnode, _Rootnode->_Left));
; 771  :         }
; 772  :     }

  00036	5b		 pop	 ebx
  00037	5d		 pop	 ebp
  00038	c2 08 00	 ret	 8
??$_Erase_tree@V?$allocator@U?$_Tree_node@U?$pair@$$CBKUCREATE_MONSTER_INFO@@@std@@PAX@std@@@std@@@?$_Tree_val@U?$_Tree_simple_types@U?$pair@$$CBKUCREATE_MONSTER_INFO@@@std@@@std@@@std@@QAEXAAV?$allocator@U?$_Tree_node@U?$pair@$$CBKUCREATE_MONSTER_INFO@@@std@@PAX@std@@@1@PAU?$_Tree_node@U?$pair@$$CBKUCREATE_MONSTER_INFO@@@std@@PAX@1@@Z ENDP ; std::_Tree_val<std::_Tree_simple_types<std::pair<unsigned long const ,CREATE_MONSTER_INFO> > >::_Erase_tree<std::allocator<std::_Tree_node<std::pair<unsigned long const ,CREATE_MONSTER_INFO>,void *> > >
_TEXT	ENDS
; Function compile flags: /Ogtp
; File C:\Program Files\Microsoft Visual Studio\2022\Professional\VC\Tools\MSVC\14.44.35207\include\xtree
;	COMDAT ??E?$_Tree_unchecked_const_iterator@V?$_Tree_val@U?$_Tree_simple_types@U?$pair@$$CBKUCREATE_MONSTER_INFO@@@std@@@std@@@std@@U_Iterator_base0@2@@std@@QAEAAV01@XZ
_TEXT	SEGMENT
??E?$_Tree_unchecked_const_iterator@V?$_Tree_val@U?$_Tree_simple_types@U?$pair@$$CBKUCREATE_MONSTER_INFO@@@std@@@std@@@std@@U_Iterator_base0@2@@std@@QAEAAV01@XZ PROC ; std::_Tree_unchecked_const_iterator<std::_Tree_val<std::_Tree_simple_types<std::pair<unsigned long const ,CREATE_MONSTER_INFO> > >,std::_Iterator_base0>::operator++, COMDAT
; _this$ = ecx

; 49   :     _Tree_unchecked_const_iterator& operator++() noexcept {

  00000	56		 push	 esi
  00001	8b f1		 mov	 esi, ecx
  00003	57		 push	 edi

; 50   :         if (_Ptr->_Right->_Isnil) { // climb looking for right subtree

  00004	8b 16		 mov	 edx, DWORD PTR [esi]
  00006	8b 7a 08	 mov	 edi, DWORD PTR [edx+8]
  00009	80 7f 0d 00	 cmp	 BYTE PTR [edi+13], 0
  0000d	74 22		 je	 SHORT $LN4@operator

; 51   :             _Nodeptr _Pnode;
; 52   :             while (!(_Pnode = _Ptr->_Parent)->_Isnil && _Ptr == _Pnode->_Right) {

  0000f	8b 42 04	 mov	 eax, DWORD PTR [edx+4]
  00012	80 78 0d 00	 cmp	 BYTE PTR [eax+13], 0
  00016	75 12		 jne	 SHORT $LN21@operator
$LL2@operator:
  00018	3b 50 08	 cmp	 edx, DWORD PTR [eax+8]
  0001b	75 0d		 jne	 SHORT $LN21@operator

; 53   :                 _Ptr = _Pnode; // ==> parent while right subtree

  0001d	89 06		 mov	 DWORD PTR [esi], eax
  0001f	8b d0		 mov	 edx, eax
  00021	8b 40 04	 mov	 eax, DWORD PTR [eax+4]
  00024	80 78 0d 00	 cmp	 BYTE PTR [eax+13], 0
  00028	74 ee		 je	 SHORT $LL2@operator
$LN21@operator:

; 54   :             }
; 55   : 
; 56   :             _Ptr = _Pnode; // ==> parent (head if end())
; 57   :         } else {
; 58   :             _Ptr = _Mytree::_Min(_Ptr->_Right); // ==> smallest of right subtree
; 59   :         }
; 60   : 
; 61   :         return *this;

  0002a	89 06		 mov	 DWORD PTR [esi], eax

; 62   :     }

  0002c	8b c6		 mov	 eax, esi
  0002e	5f		 pop	 edi
  0002f	5e		 pop	 esi
  00030	c3		 ret	 0
$LN4@operator:

; 476  :         while (!_Pnode->_Left->_Isnil) {

  00031	8b 0f		 mov	 ecx, DWORD PTR [edi]
  00033	80 79 0d 00	 cmp	 BYTE PTR [ecx+13], 0
  00037	75 13		 jne	 SHORT $LN10@operator
  00039	0f 1f 80 00 00
	00 00		 npad	 7
$LL9@operator:
  00040	8b 01		 mov	 eax, DWORD PTR [ecx]

; 477  :             _Pnode = _Pnode->_Left;

  00042	8b f9		 mov	 edi, ecx
  00044	8b c8		 mov	 ecx, eax
  00046	80 78 0d 00	 cmp	 BYTE PTR [eax+13], 0
  0004a	74 f4		 je	 SHORT $LL9@operator
$LN10@operator:

; 54   :             }
; 55   : 
; 56   :             _Ptr = _Pnode; // ==> parent (head if end())
; 57   :         } else {
; 58   :             _Ptr = _Mytree::_Min(_Ptr->_Right); // ==> smallest of right subtree
; 59   :         }
; 60   : 
; 61   :         return *this;

  0004c	89 3e		 mov	 DWORD PTR [esi], edi

; 62   :     }

  0004e	8b c6		 mov	 eax, esi
  00050	5f		 pop	 edi
  00051	5e		 pop	 esi
  00052	c3		 ret	 0
??E?$_Tree_unchecked_const_iterator@V?$_Tree_val@U?$_Tree_simple_types@U?$pair@$$CBKUCREATE_MONSTER_INFO@@@std@@@std@@@std@@U_Iterator_base0@2@@std@@QAEAAV01@XZ ENDP ; std::_Tree_unchecked_const_iterator<std::_Tree_val<std::_Tree_simple_types<std::pair<unsigned long const ,CREATE_MONSTER_INFO> > >,std::_Iterator_base0>::operator++
_TEXT	ENDS
; Function compile flags: /Ogtp
;	COMDAT ??__FsCreateMonster@?1??GetInstance@CCreateMonster@@SAPAV1@XZ@YAXXZ
text$yd	SEGMENT
??__FsCreateMonster@?1??GetInstance@CCreateMonster@@SAPAV1@XZ@YAXXZ PROC ; `CCreateMonster::GetInstance'::`2'::`dynamic atexit destructor for 'sCreateMonster'', COMDAT
  00000	b9 00 00 00 00	 mov	 ecx, OFFSET ?sCreateMonster@?1??GetInstance@CCreateMonster@@SAPAV2@XZ@4V2@A
  00005	e9 00 00 00 00	 jmp	 ??1CCreateMonster@@QAE@XZ ; CCreateMonster::~CCreateMonster
??__FsCreateMonster@?1??GetInstance@CCreateMonster@@SAPAV1@XZ@YAXXZ ENDP ; `CCreateMonster::GetInstance'::`2'::`dynamic atexit destructor for 'sCreateMonster''
text$yd	ENDS
; Function compile flags: /Ogtp
; File C:\Program Files\Microsoft Visual Studio\2022\Professional\VC\Tools\MSVC\14.44.35207\include\xtree
;	COMDAT ?_Insert_node@?$_Tree_val@U?$_Tree_simple_types@U?$pair@$$CBKUCREATE_MONSTER_INFO@@@std@@@std@@@std@@QAEPAU?$_Tree_node@U?$pair@$$CBKUCREATE_MONSTER_INFO@@@std@@PAX@2@U?$_Tree_id@PAU?$_Tree_node@U?$pair@$$CBKUCREATE_MONSTER_INFO@@@std@@PAX@std@@@2@QAU32@@Z
_TEXT	SEGMENT
__Head$1$ = -4						; size = 4
__Loc$ = 8						; size = 8
__Newnode$ = 16						; size = 4
?_Insert_node@?$_Tree_val@U?$_Tree_simple_types@U?$pair@$$CBKUCREATE_MONSTER_INFO@@@std@@@std@@@std@@QAEPAU?$_Tree_node@U?$pair@$$CBKUCREATE_MONSTER_INFO@@@std@@PAX@2@U?$_Tree_id@PAU?$_Tree_node@U?$pair@$$CBKUCREATE_MONSTER_INFO@@@std@@PAX@std@@@2@QAU32@@Z PROC ; std::_Tree_val<std::_Tree_simple_types<std::pair<unsigned long const ,CREATE_MONSTER_INFO> > >::_Insert_node, COMDAT
; _this$ = ecx

; 669  :     _Nodeptr _Insert_node(const _Tree_id<_Nodeptr> _Loc, const _Nodeptr _Newnode) noexcept {

  00000	55		 push	 ebp
  00001	8b ec		 mov	 ebp, esp
  00003	51		 push	 ecx

; 670  :         ++_Mysize;
; 671  :         const auto _Head  = _Myhead;
; 672  :         _Newnode->_Parent = _Loc._Parent;

  00004	8b 55 08	 mov	 edx, DWORD PTR __Loc$[ebp]
  00007	53		 push	 ebx
  00008	8b d9		 mov	 ebx, ecx
  0000a	57		 push	 edi
  0000b	8b 7d 10	 mov	 edi, DWORD PTR __Newnode$[ebp]
  0000e	8b 03		 mov	 eax, DWORD PTR [ebx]
  00010	ff 43 04	 inc	 DWORD PTR [ebx+4]
  00013	89 45 fc	 mov	 DWORD PTR __Head$1$[ebp], eax
  00016	89 57 04	 mov	 DWORD PTR [edi+4], edx

; 673  :         if (_Loc._Parent == _Head) { // first node in tree, just set head values

  00019	3b d0		 cmp	 edx, eax
  0001b	75 16		 jne	 SHORT $LN5@Insert_nod

; 674  :             _Head->_Left     = _Newnode;

  0001d	89 38		 mov	 DWORD PTR [eax], edi

; 675  :             _Head->_Parent   = _Newnode;

  0001f	89 78 04	 mov	 DWORD PTR [eax+4], edi

; 676  :             _Head->_Right    = _Newnode;

  00022	89 78 08	 mov	 DWORD PTR [eax+8], edi

; 735  :         return _Newnode;
; 736  :     }

  00025	8b c7		 mov	 eax, edi
  00027	c6 47 0c 01	 mov	 BYTE PTR [edi+12], 1
  0002b	5f		 pop	 edi
  0002c	5b		 pop	 ebx
  0002d	8b e5		 mov	 esp, ebp
  0002f	5d		 pop	 ebp
  00030	c2 0c 00	 ret	 12			; 0000000cH
$LN5@Insert_nod:

; 677  :             _Newnode->_Color = _Black; // the root is black
; 678  :             return _Newnode;
; 679  :         }
; 680  : 
; 681  :         _STL_INTERNAL_CHECK(_Loc._Child != _Tree_child::_Unused);
; 682  :         if (_Loc._Child == _Tree_child::_Right) { // add to right of _Loc._Parent

  00033	83 7d 0c 00	 cmp	 DWORD PTR __Loc$[ebp+4], 0
  00037	75 0d		 jne	 SHORT $LN6@Insert_nod

; 683  :             _STL_INTERNAL_CHECK(_Loc._Parent->_Right->_Isnil);
; 684  :             _Loc._Parent->_Right = _Newnode;

  00039	89 7a 08	 mov	 DWORD PTR [edx+8], edi

; 685  :             if (_Loc._Parent == _Head->_Right) { // remember rightmost node

  0003c	3b 50 08	 cmp	 edx, DWORD PTR [eax+8]
  0003f	75 0d		 jne	 SHORT $LN9@Insert_nod

; 686  :                 _Head->_Right = _Newnode;

  00041	89 78 08	 mov	 DWORD PTR [eax+8], edi

; 687  :             }
; 688  :         } else { // add to left of _Loc._Parent

  00044	eb 08		 jmp	 SHORT $LN9@Insert_nod
$LN6@Insert_nod:

; 689  :             _STL_INTERNAL_CHECK(_Loc._Parent->_Left->_Isnil);
; 690  :             _Loc._Parent->_Left = _Newnode;

  00046	89 3a		 mov	 DWORD PTR [edx], edi

; 691  :             if (_Loc._Parent == _Head->_Left) { // remember leftmost node

  00048	3b 10		 cmp	 edx, DWORD PTR [eax]
  0004a	75 02		 jne	 SHORT $LN9@Insert_nod

; 692  :                 _Head->_Left = _Newnode;

  0004c	89 38		 mov	 DWORD PTR [eax], edi
$LN9@Insert_nod:

; 693  :             }
; 694  :         }
; 695  : 
; 696  :         for (_Nodeptr _Pnode = _Newnode; _Pnode->_Parent->_Color == _Red;) {

  0004e	8b 4f 04	 mov	 ecx, DWORD PTR [edi+4]
  00051	8b c7		 mov	 eax, edi
  00053	80 79 0c 00	 cmp	 BYTE PTR [ecx+12], 0
  00057	0f 85 7d 01 00
	00		 jne	 $LN3@Insert_nod
  0005d	56		 push	 esi
  0005e	66 90		 npad	 2
$LL4@Insert_nod:

; 697  :             if (_Pnode->_Parent == _Pnode->_Parent->_Parent->_Left) { // fixup red-red in left subtree

  00060	8b 50 04	 mov	 edx, DWORD PTR [eax+4]
  00063	8b 72 04	 mov	 esi, DWORD PTR [edx+4]
  00066	8b 0e		 mov	 ecx, DWORD PTR [esi]
  00068	3b d1		 cmp	 edx, ecx
  0006a	0f 85 aa 00 00
	00		 jne	 $LN10@Insert_nod

; 698  :                 const auto _Parent_sibling = _Pnode->_Parent->_Parent->_Right;

  00070	8b 4e 08	 mov	 ecx, DWORD PTR [esi+8]

; 699  :                 if (_Parent_sibling->_Color == _Red) { // parent's sibling has two red children, blacken both

  00073	80 79 0c 00	 cmp	 BYTE PTR [ecx+12], 0
  00077	0f 84 a3 00 00
	00		 je	 $LN82@Insert_nod

; 700  :                     _Pnode->_Parent->_Color          = _Black;
; 701  :                     _Parent_sibling->_Color          = _Black;
; 702  :                     _Pnode->_Parent->_Parent->_Color = _Red;
; 703  :                     _Pnode                           = _Pnode->_Parent->_Parent;
; 704  :                 } else { // parent's sibling has red and black children
; 705  :                     if (_Pnode == _Pnode->_Parent->_Right) { // rotate right child to left

  0007d	8b 72 08	 mov	 esi, DWORD PTR [edx+8]
  00080	3b c6		 cmp	 eax, esi
  00082	75 37		 jne	 SHORT $LN57@Insert_nod

; 485  :         _Wherenode->_Right = _Pnode->_Left;

  00084	8b 0e		 mov	 ecx, DWORD PTR [esi]

; 706  :                         _Pnode = _Pnode->_Parent;

  00086	8b c2		 mov	 eax, edx

; 485  :         _Wherenode->_Right = _Pnode->_Left;

  00088	89 4a 08	 mov	 DWORD PTR [edx+8], ecx

; 486  : 
; 487  :         if (!_Pnode->_Left->_Isnil) {

  0008b	8b 0e		 mov	 ecx, DWORD PTR [esi]
  0008d	80 79 0d 00	 cmp	 BYTE PTR [ecx+13], 0
  00091	75 03		 jne	 SHORT $LN21@Insert_nod

; 488  :             _Pnode->_Left->_Parent = _Wherenode;

  00093	89 41 04	 mov	 DWORD PTR [ecx+4], eax
$LN21@Insert_nod:

; 489  :         }
; 490  : 
; 491  :         _Pnode->_Parent = _Wherenode->_Parent;

  00096	8b 4a 04	 mov	 ecx, DWORD PTR [edx+4]
  00099	89 4e 04	 mov	 DWORD PTR [esi+4], ecx

; 492  : 
; 493  :         if (_Wherenode == _Myhead->_Parent) {

  0009c	8b 0b		 mov	 ecx, DWORD PTR [ebx]
  0009e	3b 41 04	 cmp	 eax, DWORD PTR [ecx+4]
  000a1	75 05		 jne	 SHORT $LN22@Insert_nod

; 494  :             _Myhead->_Parent = _Pnode;

  000a3	89 71 04	 mov	 DWORD PTR [ecx+4], esi
  000a6	eb 0e		 jmp	 SHORT $LN25@Insert_nod
$LN22@Insert_nod:

; 495  :         } else if (_Wherenode == _Wherenode->_Parent->_Left) {

  000a8	8b 4a 04	 mov	 ecx, DWORD PTR [edx+4]
  000ab	3b 01		 cmp	 eax, DWORD PTR [ecx]
  000ad	75 04		 jne	 SHORT $LN24@Insert_nod

; 496  :             _Wherenode->_Parent->_Left = _Pnode;

  000af	89 31		 mov	 DWORD PTR [ecx], esi

; 497  :         } else {

  000b1	eb 03		 jmp	 SHORT $LN25@Insert_nod
$LN24@Insert_nod:

; 498  :             _Wherenode->_Parent->_Right = _Pnode;

  000b3	89 71 08	 mov	 DWORD PTR [ecx+8], esi
$LN25@Insert_nod:

; 499  :         }
; 500  : 
; 501  :         _Pnode->_Left       = _Wherenode;

  000b6	89 06		 mov	 DWORD PTR [esi], eax

; 502  :         _Wherenode->_Parent = _Pnode;

  000b8	89 70 04	 mov	 DWORD PTR [eax+4], esi
$LN57@Insert_nod:

; 707  :                         _Lrotate(_Pnode);
; 708  :                     }
; 709  : 
; 710  :                     _Pnode->_Parent->_Color          = _Black; // propagate red up

  000bb	8b 48 04	 mov	 ecx, DWORD PTR [eax+4]
  000be	c6 41 0c 01	 mov	 BYTE PTR [ecx+12], 1

; 711  :                     _Pnode->_Parent->_Parent->_Color = _Red;

  000c2	8b 48 04	 mov	 ecx, DWORD PTR [eax+4]
  000c5	8b 49 04	 mov	 ecx, DWORD PTR [ecx+4]
  000c8	c6 41 0c 00	 mov	 BYTE PTR [ecx+12], 0

; 712  :                     _Rrotate(_Pnode->_Parent->_Parent);

  000cc	8b 48 04	 mov	 ecx, DWORD PTR [eax+4]
  000cf	8b 51 04	 mov	 edx, DWORD PTR [ecx+4]

; 506  :         _Nodeptr _Pnode   = _Wherenode->_Left;

  000d2	8b 32		 mov	 esi, DWORD PTR [edx]

; 507  :         _Wherenode->_Left = _Pnode->_Right;

  000d4	8b 4e 08	 mov	 ecx, DWORD PTR [esi+8]
  000d7	89 0a		 mov	 DWORD PTR [edx], ecx

; 508  : 
; 509  :         if (!_Pnode->_Right->_Isnil) {

  000d9	8b 4e 08	 mov	 ecx, DWORD PTR [esi+8]
  000dc	80 79 0d 00	 cmp	 BYTE PTR [ecx+13], 0
  000e0	75 03		 jne	 SHORT $LN29@Insert_nod

; 510  :             _Pnode->_Right->_Parent = _Wherenode;

  000e2	89 51 04	 mov	 DWORD PTR [ecx+4], edx
$LN29@Insert_nod:

; 511  :         }
; 512  : 
; 513  :         _Pnode->_Parent = _Wherenode->_Parent;

  000e5	8b 4a 04	 mov	 ecx, DWORD PTR [edx+4]
  000e8	89 4e 04	 mov	 DWORD PTR [esi+4], ecx

; 514  : 
; 515  :         if (_Wherenode == _Myhead->_Parent) {

  000eb	8b 0b		 mov	 ecx, DWORD PTR [ebx]
  000ed	3b 51 04	 cmp	 edx, DWORD PTR [ecx+4]
  000f0	75 0b		 jne	 SHORT $LN30@Insert_nod

; 516  :             _Myhead->_Parent = _Pnode;

  000f2	89 71 04	 mov	 DWORD PTR [ecx+4], esi

; 521  :         }
; 522  : 
; 523  :         _Pnode->_Right      = _Wherenode;

  000f5	89 56 08	 mov	 DWORD PTR [esi+8], edx

; 713  :                 }
; 714  :             } else { // fixup red-red in right subtree

  000f8	e9 cc 00 00 00	 jmp	 $LN81@Insert_nod
$LN30@Insert_nod:

; 517  :         } else if (_Wherenode == _Wherenode->_Parent->_Right) {

  000fd	8b 4a 04	 mov	 ecx, DWORD PTR [edx+4]
  00100	3b 51 08	 cmp	 edx, DWORD PTR [ecx+8]
  00103	75 0b		 jne	 SHORT $LN32@Insert_nod

; 518  :             _Wherenode->_Parent->_Right = _Pnode;

  00105	89 71 08	 mov	 DWORD PTR [ecx+8], esi

; 521  :         }
; 522  : 
; 523  :         _Pnode->_Right      = _Wherenode;

  00108	89 56 08	 mov	 DWORD PTR [esi+8], edx

; 713  :                 }
; 714  :             } else { // fixup red-red in right subtree

  0010b	e9 b9 00 00 00	 jmp	 $LN81@Insert_nod
$LN32@Insert_nod:

; 520  :             _Wherenode->_Parent->_Left = _Pnode;

  00110	89 31		 mov	 DWORD PTR [ecx], esi

; 521  :         }
; 522  : 
; 523  :         _Pnode->_Right      = _Wherenode;

  00112	89 56 08	 mov	 DWORD PTR [esi+8], edx

; 713  :                 }
; 714  :             } else { // fixup red-red in right subtree

  00115	e9 af 00 00 00	 jmp	 $LN81@Insert_nod
$LN10@Insert_nod:

; 715  :                 const auto _Parent_sibling = _Pnode->_Parent->_Parent->_Left;
; 716  :                 if (_Parent_sibling->_Color == _Red) { // parent's sibling has two red children, blacken both

  0011a	80 79 0c 00	 cmp	 BYTE PTR [ecx+12], 0
  0011e	75 1d		 jne	 SHORT $LN15@Insert_nod
$LN82@Insert_nod:

; 693  :             }
; 694  :         }
; 695  : 
; 696  :         for (_Nodeptr _Pnode = _Newnode; _Pnode->_Parent->_Color == _Red;) {

  00120	c6 42 0c 01	 mov	 BYTE PTR [edx+12], 1
  00124	c6 41 0c 01	 mov	 BYTE PTR [ecx+12], 1
  00128	8b 48 04	 mov	 ecx, DWORD PTR [eax+4]
  0012b	8b 49 04	 mov	 ecx, DWORD PTR [ecx+4]
  0012e	c6 41 0c 00	 mov	 BYTE PTR [ecx+12], 0
  00132	8b 48 04	 mov	 ecx, DWORD PTR [eax+4]
  00135	8b 41 04	 mov	 eax, DWORD PTR [ecx+4]
  00138	e9 8f 00 00 00	 jmp	 $LN2@Insert_nod
$LN15@Insert_nod:

; 717  :                     _Pnode->_Parent->_Color          = _Black;
; 718  :                     _Parent_sibling->_Color          = _Black;
; 719  :                     _Pnode->_Parent->_Parent->_Color = _Red;
; 720  :                     _Pnode                           = _Pnode->_Parent->_Parent;
; 721  :                 } else { // parent's sibling has red and black children
; 722  :                     if (_Pnode == _Pnode->_Parent->_Left) { // rotate left child to right

  0013d	8b 32		 mov	 esi, DWORD PTR [edx]
  0013f	3b c6		 cmp	 eax, esi
  00141	75 3a		 jne	 SHORT $LN42@Insert_nod

; 507  :         _Wherenode->_Left = _Pnode->_Right;

  00143	8b 4e 08	 mov	 ecx, DWORD PTR [esi+8]

; 723  :                         _Pnode = _Pnode->_Parent;

  00146	8b c2		 mov	 eax, edx

; 507  :         _Wherenode->_Left = _Pnode->_Right;

  00148	89 08		 mov	 DWORD PTR [eax], ecx

; 508  : 
; 509  :         if (!_Pnode->_Right->_Isnil) {

  0014a	8b 4e 08	 mov	 ecx, DWORD PTR [esi+8]
  0014d	80 79 0d 00	 cmp	 BYTE PTR [ecx+13], 0
  00151	75 03		 jne	 SHORT $LN37@Insert_nod

; 510  :             _Pnode->_Right->_Parent = _Wherenode;

  00153	89 41 04	 mov	 DWORD PTR [ecx+4], eax
$LN37@Insert_nod:

; 511  :         }
; 512  : 
; 513  :         _Pnode->_Parent = _Wherenode->_Parent;

  00156	8b 4a 04	 mov	 ecx, DWORD PTR [edx+4]
  00159	89 4e 04	 mov	 DWORD PTR [esi+4], ecx

; 514  : 
; 515  :         if (_Wherenode == _Myhead->_Parent) {

  0015c	8b 0b		 mov	 ecx, DWORD PTR [ebx]
  0015e	3b 41 04	 cmp	 eax, DWORD PTR [ecx+4]
  00161	75 05		 jne	 SHORT $LN38@Insert_nod

; 516  :             _Myhead->_Parent = _Pnode;

  00163	89 71 04	 mov	 DWORD PTR [ecx+4], esi
  00166	eb 0f		 jmp	 SHORT $LN41@Insert_nod
$LN38@Insert_nod:

; 517  :         } else if (_Wherenode == _Wherenode->_Parent->_Right) {

  00168	8b 4a 04	 mov	 ecx, DWORD PTR [edx+4]
  0016b	3b 41 08	 cmp	 eax, DWORD PTR [ecx+8]
  0016e	75 05		 jne	 SHORT $LN40@Insert_nod

; 518  :             _Wherenode->_Parent->_Right = _Pnode;

  00170	89 71 08	 mov	 DWORD PTR [ecx+8], esi

; 519  :         } else {

  00173	eb 02		 jmp	 SHORT $LN41@Insert_nod
$LN40@Insert_nod:

; 520  :             _Wherenode->_Parent->_Left = _Pnode;

  00175	89 31		 mov	 DWORD PTR [ecx], esi
$LN41@Insert_nod:

; 521  :         }
; 522  : 
; 523  :         _Pnode->_Right      = _Wherenode;

  00177	89 46 08	 mov	 DWORD PTR [esi+8], eax

; 524  :         _Wherenode->_Parent = _Pnode;

  0017a	89 70 04	 mov	 DWORD PTR [eax+4], esi
$LN42@Insert_nod:

; 724  :                         _Rrotate(_Pnode);
; 725  :                     }
; 726  : 
; 727  :                     _Pnode->_Parent->_Color          = _Black; // propagate red up

  0017d	8b 48 04	 mov	 ecx, DWORD PTR [eax+4]
  00180	c6 41 0c 01	 mov	 BYTE PTR [ecx+12], 1

; 728  :                     _Pnode->_Parent->_Parent->_Color = _Red;

  00184	8b 48 04	 mov	 ecx, DWORD PTR [eax+4]
  00187	8b 49 04	 mov	 ecx, DWORD PTR [ecx+4]
  0018a	c6 41 0c 00	 mov	 BYTE PTR [ecx+12], 0

; 729  :                     _Lrotate(_Pnode->_Parent->_Parent);

  0018e	8b 48 04	 mov	 ecx, DWORD PTR [eax+4]
  00191	8b 51 04	 mov	 edx, DWORD PTR [ecx+4]

; 484  :         _Nodeptr _Pnode    = _Wherenode->_Right;

  00194	8b 72 08	 mov	 esi, DWORD PTR [edx+8]

; 485  :         _Wherenode->_Right = _Pnode->_Left;

  00197	8b 0e		 mov	 ecx, DWORD PTR [esi]
  00199	89 4a 08	 mov	 DWORD PTR [edx+8], ecx

; 486  : 
; 487  :         if (!_Pnode->_Left->_Isnil) {

  0019c	8b 0e		 mov	 ecx, DWORD PTR [esi]
  0019e	80 79 0d 00	 cmp	 BYTE PTR [ecx+13], 0
  001a2	75 03		 jne	 SHORT $LN45@Insert_nod

; 488  :             _Pnode->_Left->_Parent = _Wherenode;

  001a4	89 51 04	 mov	 DWORD PTR [ecx+4], edx
$LN45@Insert_nod:

; 489  :         }
; 490  : 
; 491  :         _Pnode->_Parent = _Wherenode->_Parent;

  001a7	8b 4a 04	 mov	 ecx, DWORD PTR [edx+4]
  001aa	89 4e 04	 mov	 DWORD PTR [esi+4], ecx

; 492  : 
; 493  :         if (_Wherenode == _Myhead->_Parent) {

  001ad	8b 0b		 mov	 ecx, DWORD PTR [ebx]
  001af	3b 51 04	 cmp	 edx, DWORD PTR [ecx+4]
  001b2	75 05		 jne	 SHORT $LN46@Insert_nod

; 494  :             _Myhead->_Parent = _Pnode;

  001b4	89 71 04	 mov	 DWORD PTR [ecx+4], esi
  001b7	eb 0e		 jmp	 SHORT $LN49@Insert_nod
$LN46@Insert_nod:

; 495  :         } else if (_Wherenode == _Wherenode->_Parent->_Left) {

  001b9	8b 4a 04	 mov	 ecx, DWORD PTR [edx+4]
  001bc	3b 11		 cmp	 edx, DWORD PTR [ecx]
  001be	75 04		 jne	 SHORT $LN48@Insert_nod

; 496  :             _Wherenode->_Parent->_Left = _Pnode;

  001c0	89 31		 mov	 DWORD PTR [ecx], esi

; 497  :         } else {

  001c2	eb 03		 jmp	 SHORT $LN49@Insert_nod
$LN48@Insert_nod:

; 498  :             _Wherenode->_Parent->_Right = _Pnode;

  001c4	89 71 08	 mov	 DWORD PTR [ecx+8], esi
$LN49@Insert_nod:

; 499  :         }
; 500  : 
; 501  :         _Pnode->_Left       = _Wherenode;

  001c7	89 16		 mov	 DWORD PTR [esi], edx
$LN81@Insert_nod:

; 693  :             }
; 694  :         }
; 695  : 
; 696  :         for (_Nodeptr _Pnode = _Newnode; _Pnode->_Parent->_Color == _Red;) {

  001c9	89 72 04	 mov	 DWORD PTR [edx+4], esi
$LN2@Insert_nod:
  001cc	8b 48 04	 mov	 ecx, DWORD PTR [eax+4]
  001cf	80 79 0c 00	 cmp	 BYTE PTR [ecx+12], 0
  001d3	0f 84 87 fe ff
	ff		 je	 $LL4@Insert_nod
  001d9	5e		 pop	 esi
$LN3@Insert_nod:

; 730  :                 }
; 731  :             }
; 732  :         }
; 733  : 
; 734  :         _Head->_Parent->_Color = _Black; // root is always black

  001da	8b 45 fc	 mov	 eax, DWORD PTR __Head$1$[ebp]
  001dd	8b 40 04	 mov	 eax, DWORD PTR [eax+4]
  001e0	c6 40 0c 01	 mov	 BYTE PTR [eax+12], 1

; 735  :         return _Newnode;
; 736  :     }

  001e4	8b c7		 mov	 eax, edi
  001e6	5f		 pop	 edi
  001e7	5b		 pop	 ebx
  001e8	8b e5		 mov	 esp, ebp
  001ea	5d		 pop	 ebp
  001eb	c2 0c 00	 ret	 12			; 0000000cH
?_Insert_node@?$_Tree_val@U?$_Tree_simple_types@U?$pair@$$CBKUCREATE_MONSTER_INFO@@@std@@@std@@@std@@QAEPAU?$_Tree_node@U?$pair@$$CBKUCREATE_MONSTER_INFO@@@std@@PAX@2@U?$_Tree_id@PAU?$_Tree_node@U?$pair@$$CBKUCREATE_MONSTER_INFO@@@std@@PAX@std@@@2@QAU32@@Z ENDP ; std::_Tree_val<std::_Tree_simple_types<std::pair<unsigned long const ,CREATE_MONSTER_INFO> > >::_Insert_node
_TEXT	ENDS
; Function compile flags: /Ogtp
; File C:\Program Files\Microsoft Visual Studio\2022\Professional\VC\Tools\MSVC\14.44.35207\include\xtree
; File C:\Program Files\Microsoft Visual Studio\2022\Professional\VC\Tools\MSVC\14.44.35207\include\utility
; File C:\Program Files\Microsoft Visual Studio\2022\Professional\VC\Tools\MSVC\14.44.35207\include\xtree
;	COMDAT ?_Extract@?$_Tree_val@U?$_Tree_simple_types@U?$pair@$$CBKUCREATE_MONSTER_INFO@@@std@@@std@@@std@@QAEPAU?$_Tree_node@U?$pair@$$CBKUCREATE_MONSTER_INFO@@@std@@PAX@2@V?$_Tree_unchecked_const_iterator@V?$_Tree_val@U?$_Tree_simple_types@U?$pair@$$CBKUCREATE_MONSTER_INFO@@@std@@@std@@@std@@U_Iterator_base0@2@@2@@Z
_TEXT	SEGMENT
tv1039 = -16						; size = 4
tv1073 = -12						; size = 4
tv1093 = -12						; size = 4
$T1 = -12						; size = 4
__Erasednode$1$ = -8					; size = 4
_this$1$ = -4						; size = 4
__Where$ = 8						; size = 4
?_Extract@?$_Tree_val@U?$_Tree_simple_types@U?$pair@$$CBKUCREATE_MONSTER_INFO@@@std@@@std@@@std@@QAEPAU?$_Tree_node@U?$pair@$$CBKUCREATE_MONSTER_INFO@@@std@@PAX@2@V?$_Tree_unchecked_const_iterator@V?$_Tree_val@U?$_Tree_simple_types@U?$pair@$$CBKUCREATE_MONSTER_INFO@@@std@@@std@@@std@@U_Iterator_base0@2@@2@@Z PROC ; std::_Tree_val<std::_Tree_simple_types<std::pair<unsigned long const ,CREATE_MONSTER_INFO> > >::_Extract, COMDAT
; _this$ = ecx

; 527  :     _Nodeptr _Extract(_Unchecked_const_iterator _Where) noexcept {

  00000	55		 push	 ebp
  00001	8b ec		 mov	 ebp, esp
  00003	83 ec 10	 sub	 esp, 16			; 00000010H

; 528  :         _Nodeptr _Erasednode = _Where._Ptr; // node to erase

  00006	8b 45 08	 mov	 eax, DWORD PTR __Where$[ebp]
  00009	53		 push	 ebx
  0000a	56		 push	 esi
  0000b	8b d9		 mov	 ebx, ecx
  0000d	89 45 f8	 mov	 DWORD PTR __Erasednode$1$[ebp], eax
  00010	57		 push	 edi

; 529  :         ++_Where; // save successor iterator for return

  00011	8d 4d 08	 lea	 ecx, DWORD PTR __Where$[ebp]
  00014	89 5d fc	 mov	 DWORD PTR _this$1$[ebp], ebx
  00017	e8 00 00 00 00	 call	 ??E?$_Tree_unchecked_const_iterator@V?$_Tree_val@U?$_Tree_simple_types@U?$pair@$$CBKUCREATE_MONSTER_INFO@@@std@@@std@@@std@@U_Iterator_base0@2@@std@@QAEAAV01@XZ ; std::_Tree_unchecked_const_iterator<std::_Tree_val<std::_Tree_simple_types<std::pair<unsigned long const ,CREATE_MONSTER_INFO> > >,std::_Iterator_base0>::operator++

; 530  : 
; 531  :         _Nodeptr _Fixnode; // the node to recolor as needed
; 532  :         _Nodeptr _Fixnodeparent; // parent of _Fixnode (which may be nil)
; 533  :         _Nodeptr _Pnode = _Erasednode;
; 534  : 
; 535  :         if (_Pnode->_Left->_Isnil) {

  0001c	8b 4d f8	 mov	 ecx, DWORD PTR __Erasednode$1$[ebp]
  0001f	8b 01		 mov	 eax, DWORD PTR [ecx]
  00021	8b 79 08	 mov	 edi, DWORD PTR [ecx+8]
  00024	80 78 0d 00	 cmp	 BYTE PTR [eax+13], 0
  00028	75 18		 jne	 SHORT $LN94@Extract

; 536  :             _Fixnode = _Pnode->_Right; // stitch up right subtree
; 537  :         } else if (_Pnode->_Right->_Isnil) {

  0002a	80 7f 0d 00	 cmp	 BYTE PTR [edi+13], 0
  0002e	74 04		 je	 SHORT $LN7@Extract

; 538  :             _Fixnode = _Pnode->_Left; // stitch up left subtree

  00030	8b f8		 mov	 edi, eax

; 539  :         } else { // two subtrees, must lift successor node to replace erased

  00032	eb 0e		 jmp	 SHORT $LN94@Extract
$LN7@Extract:

; 540  :             _Pnode   = _Where._Ptr; // _Pnode is successor node

  00034	8b 55 08	 mov	 edx, DWORD PTR __Where$[ebp]

; 541  :             _Fixnode = _Pnode->_Right; // _Fixnode is only subtree

  00037	8b 7a 08	 mov	 edi, DWORD PTR [edx+8]
  0003a	3b d1		 cmp	 edx, ecx

; 542  :         }
; 543  : 
; 544  :         if (_Pnode == _Erasednode) { // at most one subtree, relink it

  0003c	0f 85 91 00 00
	00		 jne	 $LN9@Extract
$LN94@Extract:

; 545  :             _Fixnodeparent = _Erasednode->_Parent;
; 546  :             if (!_Fixnode->_Isnil) {

  00042	80 7f 0d 00	 cmp	 BYTE PTR [edi+13], 0
  00046	8b 71 04	 mov	 esi, DWORD PTR [ecx+4]
  00049	75 03		 jne	 SHORT $LN11@Extract

; 547  :                 _Fixnode->_Parent = _Fixnodeparent; // link up

  0004b	89 77 04	 mov	 DWORD PTR [edi+4], esi
$LN11@Extract:

; 548  :             }
; 549  : 
; 550  :             if (_Myhead->_Parent == _Erasednode) {

  0004e	8b 03		 mov	 eax, DWORD PTR [ebx]
  00050	39 48 04	 cmp	 DWORD PTR [eax+4], ecx
  00053	75 05		 jne	 SHORT $LN12@Extract

; 551  :                 _Myhead->_Parent = _Fixnode; // link down from root

  00055	89 78 04	 mov	 DWORD PTR [eax+4], edi
  00058	eb 0b		 jmp	 SHORT $LN15@Extract
$LN12@Extract:

; 552  :             } else if (_Fixnodeparent->_Left == _Erasednode) {

  0005a	39 0e		 cmp	 DWORD PTR [esi], ecx
  0005c	75 04		 jne	 SHORT $LN14@Extract

; 553  :                 _Fixnodeparent->_Left = _Fixnode; // link down to left

  0005e	89 3e		 mov	 DWORD PTR [esi], edi

; 554  :             } else {

  00060	eb 03		 jmp	 SHORT $LN15@Extract
$LN14@Extract:

; 555  :                 _Fixnodeparent->_Right = _Fixnode; // link down to right

  00062	89 7e 08	 mov	 DWORD PTR [esi+8], edi
$LN15@Extract:

; 556  :             }
; 557  : 
; 558  :             if (_Myhead->_Left == _Erasednode) {

  00065	8b 03		 mov	 eax, DWORD PTR [ebx]
  00067	39 08		 cmp	 DWORD PTR [eax], ecx
  00069	75 28		 jne	 SHORT $LN16@Extract

; 559  :                 _Myhead->_Left = _Fixnode->_Isnil ? _Fixnodeparent // smallest is parent of erased node

  0006b	80 7f 0d 00	 cmp	 BYTE PTR [edi+13], 0
  0006f	74 04		 je	 SHORT $LN42@Extract
  00071	8b d6		 mov	 edx, esi
  00073	eb 1c		 jmp	 SHORT $LN43@Extract
$LN42@Extract:

; 476  :         while (!_Pnode->_Left->_Isnil) {

  00075	8b 0f		 mov	 ecx, DWORD PTR [edi]

; 559  :                 _Myhead->_Left = _Fixnode->_Isnil ? _Fixnodeparent // smallest is parent of erased node

  00077	8b d7		 mov	 edx, edi

; 476  :         while (!_Pnode->_Left->_Isnil) {

  00079	80 79 0d 00	 cmp	 BYTE PTR [ecx+13], 0
  0007d	75 0f		 jne	 SHORT $LN49@Extract
  0007f	90		 npad	 1
$LL48@Extract:
  00080	8b 01		 mov	 eax, DWORD PTR [ecx]

; 477  :             _Pnode = _Pnode->_Left;

  00082	8b d1		 mov	 edx, ecx
  00084	8b c8		 mov	 ecx, eax
  00086	80 78 0d 00	 cmp	 BYTE PTR [eax+13], 0
  0008a	74 f4		 je	 SHORT $LL48@Extract
  0008c	8b 03		 mov	 eax, DWORD PTR [ebx]
$LN49@Extract:
  0008e	8b 4d f8	 mov	 ecx, DWORD PTR __Erasednode$1$[ebp]
$LN43@Extract:

; 559  :                 _Myhead->_Left = _Fixnode->_Isnil ? _Fixnodeparent // smallest is parent of erased node

  00091	89 10		 mov	 DWORD PTR [eax], edx
$LN16@Extract:

; 560  :                                                   : _Min(_Fixnode); // smallest in relinked subtree
; 561  :             }
; 562  : 
; 563  :             if (_Myhead->_Right == _Erasednode) {

  00093	8b 13		 mov	 edx, DWORD PTR [ebx]
  00095	39 4a 08	 cmp	 DWORD PTR [edx+8], ecx
  00098	75 34		 jne	 SHORT $LN17@Extract

; 564  :                 _Myhead->_Right = _Fixnode->_Isnil ? _Fixnodeparent // largest is parent of erased node

  0009a	80 7f 0d 00	 cmp	 BYTE PTR [edi+13], 0
  0009e	74 0d		 je	 SHORT $LN44@Extract

; 565  :                                                    : _Max(_Fixnode); // largest in relinked subtree
; 566  :             }
; 567  :         } else { // erased has two subtrees, _Pnode is successor to erased

  000a0	8b 45 f8	 mov	 eax, DWORD PTR __Erasednode$1$[ebp]
  000a3	8b ce		 mov	 ecx, esi
  000a5	89 4a 08	 mov	 DWORD PTR [edx+8], ecx
  000a8	e9 94 00 00 00	 jmp	 $LN58@Extract
$LN44@Extract:

; 468  :         while (!_Pnode->_Right->_Isnil) {

  000ad	8b 47 08	 mov	 eax, DWORD PTR [edi+8]

; 564  :                 _Myhead->_Right = _Fixnode->_Isnil ? _Fixnodeparent // largest is parent of erased node

  000b0	8b cf		 mov	 ecx, edi

; 468  :         while (!_Pnode->_Right->_Isnil) {

  000b2	80 78 0d 00	 cmp	 BYTE PTR [eax+13], 0
  000b6	75 13		 jne	 SHORT $LN54@Extract
  000b8	0f 1f 84 00 00
	00 00 00	 npad	 8
$LL53@Extract:

; 469  :             _Pnode = _Pnode->_Right;

  000c0	8b c8		 mov	 ecx, eax
  000c2	8b 41 08	 mov	 eax, DWORD PTR [ecx+8]
  000c5	80 78 0d 00	 cmp	 BYTE PTR [eax+13], 0
  000c9	74 f5		 je	 SHORT $LL53@Extract
$LN54@Extract:

; 564  :                 _Myhead->_Right = _Fixnode->_Isnil ? _Fixnodeparent // largest is parent of erased node

  000cb	89 4a 08	 mov	 DWORD PTR [edx+8], ecx
$LN17@Extract:

; 565  :                                                    : _Max(_Fixnode); // largest in relinked subtree
; 566  :             }
; 567  :         } else { // erased has two subtrees, _Pnode is successor to erased

  000ce	8b 45 f8	 mov	 eax, DWORD PTR __Erasednode$1$[ebp]
  000d1	eb 6e		 jmp	 SHORT $LN58@Extract
$LN9@Extract:

; 568  :             _Erasednode->_Left->_Parent = _Pnode; // link left up

  000d3	89 50 04	 mov	 DWORD PTR [eax+4], edx

; 569  :             _Pnode->_Left               = _Erasednode->_Left; // link successor down

  000d6	8b 01		 mov	 eax, DWORD PTR [ecx]
  000d8	89 02		 mov	 DWORD PTR [edx], eax

; 570  : 
; 571  :             if (_Pnode == _Erasednode->_Right) {

  000da	8d 42 04	 lea	 eax, DWORD PTR [edx+4]
  000dd	89 45 f4	 mov	 DWORD PTR $T1[ebp], eax
  000e0	3b 51 08	 cmp	 edx, DWORD PTR [ecx+8]
  000e3	75 04		 jne	 SHORT $LN18@Extract

; 572  :                 _Fixnodeparent = _Pnode; // successor is next to erased

  000e5	8b f2		 mov	 esi, edx

; 573  :             } else { // successor further down, link in place of erased

  000e7	eb 1f		 jmp	 SHORT $LN19@Extract
$LN18@Extract:

; 574  :                 _Fixnodeparent = _Pnode->_Parent; // parent is successor's
; 575  :                 if (!_Fixnode->_Isnil) {

  000e9	80 7f 0d 00	 cmp	 BYTE PTR [edi+13], 0
  000ed	8b 30		 mov	 esi, DWORD PTR [eax]
  000ef	75 03		 jne	 SHORT $LN20@Extract

; 576  :                     _Fixnode->_Parent = _Fixnodeparent; // link fix up

  000f1	89 77 04	 mov	 DWORD PTR [edi+4], esi
$LN20@Extract:

; 577  :                 }
; 578  : 
; 579  :                 _Fixnodeparent->_Left        = _Fixnode; // link fix down

  000f4	89 3e		 mov	 DWORD PTR [esi], edi

; 580  :                 _Pnode->_Right               = _Erasednode->_Right; // link next down

  000f6	8b 41 08	 mov	 eax, DWORD PTR [ecx+8]
  000f9	89 42 08	 mov	 DWORD PTR [edx+8], eax

; 581  :                 _Erasednode->_Right->_Parent = _Pnode; // right up

  000fc	8b 41 08	 mov	 eax, DWORD PTR [ecx+8]
  000ff	89 50 04	 mov	 DWORD PTR [eax+4], edx
  00102	8d 42 04	 lea	 eax, DWORD PTR [edx+4]
  00105	89 45 f4	 mov	 DWORD PTR $T1[ebp], eax
$LN19@Extract:

; 582  :             }
; 583  : 
; 584  :             if (_Myhead->_Parent == _Erasednode) {

  00108	8b 03		 mov	 eax, DWORD PTR [ebx]
  0010a	39 48 04	 cmp	 DWORD PTR [eax+4], ecx
  0010d	75 05		 jne	 SHORT $LN21@Extract

; 585  :                 _Myhead->_Parent = _Pnode; // link down from root

  0010f	89 50 04	 mov	 DWORD PTR [eax+4], edx
  00112	eb 0e		 jmp	 SHORT $LN141@Extract
$LN21@Extract:

; 586  :             } else if (_Erasednode->_Parent->_Left == _Erasednode) {

  00114	8b 41 04	 mov	 eax, DWORD PTR [ecx+4]
  00117	39 08		 cmp	 DWORD PTR [eax], ecx
  00119	75 04		 jne	 SHORT $LN23@Extract

; 587  :                 _Erasednode->_Parent->_Left = _Pnode; // link down to left

  0011b	89 10		 mov	 DWORD PTR [eax], edx

; 588  :             } else {

  0011d	eb 03		 jmp	 SHORT $LN141@Extract
$LN23@Extract:

; 589  :                 _Erasednode->_Parent->_Right = _Pnode; // link down to right

  0011f	89 50 08	 mov	 DWORD PTR [eax+8], edx
$LN141@Extract:

; 590  :             }
; 591  : 
; 592  :             _Pnode->_Parent = _Erasednode->_Parent; // link successor up

  00122	b8 04 00 00 00	 mov	 eax, 4
  00127	8b 04 08	 mov	 eax, DWORD PTR [eax+ecx]
  0012a	8b 4d f4	 mov	 ecx, DWORD PTR $T1[ebp]
  0012d	89 01		 mov	 DWORD PTR [ecx], eax
; File C:\Program Files\Microsoft Visual Studio\2022\Professional\VC\Tools\MSVC\14.44.35207\include\utility

; 140  :     _Left    = _STD move(_Right);

  0012f	8b 45 f8	 mov	 eax, DWORD PTR __Erasednode$1$[ebp]
  00132	8a 4a 0c	 mov	 cl, BYTE PTR [edx+12]
  00135	8a 40 0c	 mov	 al, BYTE PTR [eax+12]
  00138	88 42 0c	 mov	 BYTE PTR [edx+12], al

; 141  :     _Right   = _STD move(_Tmp);

  0013b	8b 45 f8	 mov	 eax, DWORD PTR __Erasednode$1$[ebp]
  0013e	88 48 0c	 mov	 BYTE PTR [eax+12], cl
$LN58@Extract:
; File C:\Program Files\Microsoft Visual Studio\2022\Professional\VC\Tools\MSVC\14.44.35207\include\xtree

; 596  :         if (_Erasednode->_Color == _Black) { // erasing black link, must recolor/rebalance tree

  00141	80 78 0c 01	 cmp	 BYTE PTR [eax+12], 1
  00145	0f 85 ba 01 00
	00		 jne	 $LN25@Extract

; 597  :             for (; _Fixnode != _Myhead->_Parent && _Fixnode->_Color == _Black; _Fixnodeparent = _Fixnode->_Parent) {

  0014b	8b 03		 mov	 eax, DWORD PTR [ebx]
  0014d	3b 78 04	 cmp	 edi, DWORD PTR [eax+4]
  00150	0f 84 a8 01 00
	00		 je	 $LN3@Extract
  00156	80 7f 0c 01	 cmp	 BYTE PTR [edi+12], 1
  0015a	89 75 f4	 mov	 DWORD PTR tv1093[ebp], esi
  0015d	0f 85 9b 01 00
	00		 jne	 $LN3@Extract
$LL4@Extract:

; 598  :                 if (_Fixnode == _Fixnodeparent->_Left) { // fixup left subtree

  00163	8b 0e		 mov	 ecx, DWORD PTR [esi]
  00165	3b f9		 cmp	 edi, ecx
  00167	0f 85 be 00 00
	00		 jne	 $LN26@Extract

; 599  :                     _Pnode = _Fixnodeparent->_Right;

  0016d	8b 4e 08	 mov	 ecx, DWORD PTR [esi+8]

; 600  :                     if (_Pnode->_Color == _Red) { // rotate red up from right subtree

  00170	80 79 0c 00	 cmp	 BYTE PTR [ecx+12], 0
  00174	75 54		 jne	 SHORT $LN95@Extract

; 601  :                         _Pnode->_Color         = _Black;

  00176	c6 41 0c 01	 mov	 BYTE PTR [ecx+12], 1

; 484  :         _Nodeptr _Pnode    = _Wherenode->_Right;

  0017a	8b 4e 08	 mov	 ecx, DWORD PTR [esi+8]

; 602  :                         _Fixnodeparent->_Color = _Red;

  0017d	c6 46 0c 00	 mov	 BYTE PTR [esi+12], 0

; 485  :         _Wherenode->_Right = _Pnode->_Left;

  00181	8b 01		 mov	 eax, DWORD PTR [ecx]
  00183	89 46 08	 mov	 DWORD PTR [esi+8], eax

; 486  : 
; 487  :         if (!_Pnode->_Left->_Isnil) {

  00186	8b 01		 mov	 eax, DWORD PTR [ecx]
  00188	80 78 0d 00	 cmp	 BYTE PTR [eax+13], 0
  0018c	75 03		 jne	 SHORT $LN61@Extract

; 488  :             _Pnode->_Left->_Parent = _Wherenode;

  0018e	89 70 04	 mov	 DWORD PTR [eax+4], esi
$LN61@Extract:

; 489  :         }
; 490  : 
; 491  :         _Pnode->_Parent = _Wherenode->_Parent;

  00191	8b 46 04	 mov	 eax, DWORD PTR [esi+4]
  00194	8d 56 04	 lea	 edx, DWORD PTR [esi+4]
  00197	89 41 04	 mov	 DWORD PTR [ecx+4], eax

; 492  : 
; 493  :         if (_Wherenode == _Myhead->_Parent) {

  0019a	8b 03		 mov	 eax, DWORD PTR [ebx]
  0019c	3b 70 04	 cmp	 esi, DWORD PTR [eax+4]
  0019f	75 0c		 jne	 SHORT $LN62@Extract

; 494  :             _Myhead->_Parent = _Pnode;

  001a1	89 48 04	 mov	 DWORD PTR [eax+4], ecx

; 499  :         }
; 500  : 
; 501  :         _Pnode->_Left       = _Wherenode;

  001a4	89 31		 mov	 DWORD PTR [ecx], esi

; 502  :         _Wherenode->_Parent = _Pnode;

  001a6	89 0a		 mov	 DWORD PTR [edx], ecx

; 603  :                         _Lrotate(_Fixnodeparent);
; 604  :                         _Pnode = _Fixnodeparent->_Right;

  001a8	8b 4e 08	 mov	 ecx, DWORD PTR [esi+8]
  001ab	eb 20		 jmp	 SHORT $LN87@Extract
$LN62@Extract:

; 495  :         } else if (_Wherenode == _Wherenode->_Parent->_Left) {

  001ad	8b 02		 mov	 eax, DWORD PTR [edx]
  001af	3b 30		 cmp	 esi, DWORD PTR [eax]
  001b1	75 0b		 jne	 SHORT $LN64@Extract

; 496  :             _Wherenode->_Parent->_Left = _Pnode;

  001b3	89 08		 mov	 DWORD PTR [eax], ecx

; 499  :         }
; 500  : 
; 501  :         _Pnode->_Left       = _Wherenode;

  001b5	89 31		 mov	 DWORD PTR [ecx], esi

; 502  :         _Wherenode->_Parent = _Pnode;

  001b7	89 0a		 mov	 DWORD PTR [edx], ecx

; 603  :                         _Lrotate(_Fixnodeparent);
; 604  :                         _Pnode = _Fixnodeparent->_Right;

  001b9	8b 4e 08	 mov	 ecx, DWORD PTR [esi+8]
  001bc	eb 0f		 jmp	 SHORT $LN87@Extract
$LN64@Extract:

; 498  :             _Wherenode->_Parent->_Right = _Pnode;

  001be	89 48 08	 mov	 DWORD PTR [eax+8], ecx

; 499  :         }
; 500  : 
; 501  :         _Pnode->_Left       = _Wherenode;

  001c1	89 31		 mov	 DWORD PTR [ecx], esi

; 502  :         _Wherenode->_Parent = _Pnode;

  001c3	89 0a		 mov	 DWORD PTR [edx], ecx

; 603  :                         _Lrotate(_Fixnodeparent);
; 604  :                         _Pnode = _Fixnodeparent->_Right;

  001c5	8b 4e 08	 mov	 ecx, DWORD PTR [esi+8]
  001c8	eb 03		 jmp	 SHORT $LN87@Extract
$LN95@Extract:
  001ca	8d 56 04	 lea	 edx, DWORD PTR [esi+4]
$LN87@Extract:

; 605  :                     }
; 606  : 
; 607  :                     if (_Pnode->_Isnil) {

  001cd	80 79 0d 00	 cmp	 BYTE PTR [ecx+13], 0
  001d1	0f 85 d0 00 00
	00		 jne	 $LN2@Extract

; 608  :                         _Fixnode = _Fixnodeparent; // shouldn't happen
; 609  :                     } else if (_Pnode->_Left->_Color == _Black
; 610  :                                && _Pnode->_Right->_Color == _Black) { // redden right subtree with black children

  001d7	8b 01		 mov	 eax, DWORD PTR [ecx]
  001d9	80 78 0c 01	 cmp	 BYTE PTR [eax+12], 1
  001dd	75 0d		 jne	 SHORT $LN97@Extract
  001df	8b 41 08	 mov	 eax, DWORD PTR [ecx+8]
  001e2	80 78 0c 01	 cmp	 BYTE PTR [eax+12], 1
  001e6	0f 84 b4 00 00
	00		 je	 $LN142@Extract
$LN97@Extract:

; 611  :                         _Pnode->_Color = _Red;
; 612  :                         _Fixnode       = _Fixnodeparent;
; 613  :                     } else { // must rearrange right subtree
; 614  :                         if (_Pnode->_Right->_Color == _Black) { // rotate red up from left sub-subtree

  001ec	8b 41 08	 mov	 eax, DWORD PTR [ecx+8]
  001ef	8b 5d fc	 mov	 ebx, DWORD PTR _this$1$[ebp]
  001f2	80 78 0c 01	 cmp	 BYTE PTR [eax+12], 1
  001f6	75 15		 jne	 SHORT $LN33@Extract

; 615  :                             _Pnode->_Left->_Color = _Black;

  001f8	8b 01		 mov	 eax, DWORD PTR [ecx]

; 616  :                             _Pnode->_Color        = _Red;
; 617  :                             _Rrotate(_Pnode);

  001fa	51		 push	 ecx
  001fb	c6 40 0c 01	 mov	 BYTE PTR [eax+12], 1
  001ff	c6 41 0c 00	 mov	 BYTE PTR [ecx+12], 0
  00203	8b cb		 mov	 ecx, ebx
  00205	e8 00 00 00 00	 call	 ?_Rrotate@?$_Tree_val@U?$_Tree_simple_types@U?$pair@$$CBKUCREATE_MONSTER_INFO@@@std@@@std@@@std@@QAEXPAU?$_Tree_node@U?$pair@$$CBKUCREATE_MONSTER_INFO@@@std@@PAX@2@@Z ; std::_Tree_val<std::_Tree_simple_types<std::pair<unsigned long const ,CREATE_MONSTER_INFO> > >::_Rrotate

; 618  :                             _Pnode = _Fixnodeparent->_Right;

  0020a	8b 4e 08	 mov	 ecx, DWORD PTR [esi+8]
$LN33@Extract:

; 619  :                         }
; 620  : 
; 621  :                         _Pnode->_Color         = _Fixnodeparent->_Color;

  0020d	8a 46 0c	 mov	 al, BYTE PTR [esi+12]
  00210	88 41 0c	 mov	 BYTE PTR [ecx+12], al

; 622  :                         _Fixnodeparent->_Color = _Black;

  00213	c6 46 0c 01	 mov	 BYTE PTR [esi+12], 1

; 623  :                         _Pnode->_Right->_Color = _Black;

  00217	8b 41 08	 mov	 eax, DWORD PTR [ecx+8]

; 624  :                         _Lrotate(_Fixnodeparent);

  0021a	8b cb		 mov	 ecx, ebx
  0021c	56		 push	 esi
  0021d	c6 40 0c 01	 mov	 BYTE PTR [eax+12], 1
  00221	e8 00 00 00 00	 call	 ?_Lrotate@?$_Tree_val@U?$_Tree_simple_types@U?$pair@$$CBKUCREATE_MONSTER_INFO@@@std@@@std@@@std@@QAEXPAU?$_Tree_node@U?$pair@$$CBKUCREATE_MONSTER_INFO@@@std@@PAX@2@@Z ; std::_Tree_val<std::_Tree_simple_types<std::pair<unsigned long const ,CREATE_MONSTER_INFO> > >::_Lrotate

; 625  :                         break; // tree now recolored/rebalanced

  00226	e9 d3 00 00 00	 jmp	 $LN3@Extract
$LN26@Extract:

; 626  :                     }
; 627  :                 } else { // fixup right subtree
; 628  :                     _Pnode = _Fixnodeparent->_Left;
; 629  :                     if (_Pnode->_Color == _Red) { // rotate red up from left subtree

  0022b	80 79 0c 00	 cmp	 BYTE PTR [ecx+12], 0
  0022f	75 55		 jne	 SHORT $LN96@Extract

; 630  :                         _Pnode->_Color         = _Black;

  00231	c6 41 0c 01	 mov	 BYTE PTR [ecx+12], 1

; 506  :         _Nodeptr _Pnode   = _Wherenode->_Left;

  00235	8b 0e		 mov	 ecx, DWORD PTR [esi]

; 631  :                         _Fixnodeparent->_Color = _Red;

  00237	c6 46 0c 00	 mov	 BYTE PTR [esi+12], 0

; 507  :         _Wherenode->_Left = _Pnode->_Right;

  0023b	8b 41 08	 mov	 eax, DWORD PTR [ecx+8]
  0023e	89 06		 mov	 DWORD PTR [esi], eax

; 508  : 
; 509  :         if (!_Pnode->_Right->_Isnil) {

  00240	8b 41 08	 mov	 eax, DWORD PTR [ecx+8]
  00243	80 78 0d 00	 cmp	 BYTE PTR [eax+13], 0
  00247	75 03		 jne	 SHORT $LN69@Extract

; 510  :             _Pnode->_Right->_Parent = _Wherenode;

  00249	89 70 04	 mov	 DWORD PTR [eax+4], esi
$LN69@Extract:

; 511  :         }
; 512  : 
; 513  :         _Pnode->_Parent = _Wherenode->_Parent;

  0024c	8b 46 04	 mov	 eax, DWORD PTR [esi+4]
  0024f	8d 56 04	 lea	 edx, DWORD PTR [esi+4]
  00252	89 41 04	 mov	 DWORD PTR [ecx+4], eax

; 514  : 
; 515  :         if (_Wherenode == _Myhead->_Parent) {

  00255	8b 03		 mov	 eax, DWORD PTR [ebx]
  00257	3b 70 04	 cmp	 esi, DWORD PTR [eax+4]
  0025a	75 0c		 jne	 SHORT $LN70@Extract

; 516  :             _Myhead->_Parent = _Pnode;

  0025c	89 48 04	 mov	 DWORD PTR [eax+4], ecx

; 521  :         }
; 522  : 
; 523  :         _Pnode->_Right      = _Wherenode;

  0025f	89 71 08	 mov	 DWORD PTR [ecx+8], esi

; 524  :         _Wherenode->_Parent = _Pnode;

  00262	89 0a		 mov	 DWORD PTR [edx], ecx

; 632  :                         _Rrotate(_Fixnodeparent);
; 633  :                         _Pnode = _Fixnodeparent->_Left;

  00264	8b 0e		 mov	 ecx, DWORD PTR [esi]
  00266	eb 21		 jmp	 SHORT $LN86@Extract
$LN70@Extract:

; 517  :         } else if (_Wherenode == _Wherenode->_Parent->_Right) {

  00268	8b 02		 mov	 eax, DWORD PTR [edx]
  0026a	3b 70 08	 cmp	 esi, DWORD PTR [eax+8]
  0026d	75 0c		 jne	 SHORT $LN72@Extract

; 518  :             _Wherenode->_Parent->_Right = _Pnode;

  0026f	89 48 08	 mov	 DWORD PTR [eax+8], ecx

; 521  :         }
; 522  : 
; 523  :         _Pnode->_Right      = _Wherenode;

  00272	89 71 08	 mov	 DWORD PTR [ecx+8], esi

; 524  :         _Wherenode->_Parent = _Pnode;

  00275	89 0a		 mov	 DWORD PTR [edx], ecx

; 632  :                         _Rrotate(_Fixnodeparent);
; 633  :                         _Pnode = _Fixnodeparent->_Left;

  00277	8b 0e		 mov	 ecx, DWORD PTR [esi]
  00279	eb 0e		 jmp	 SHORT $LN86@Extract
$LN72@Extract:

; 520  :             _Wherenode->_Parent->_Left = _Pnode;

  0027b	89 08		 mov	 DWORD PTR [eax], ecx

; 521  :         }
; 522  : 
; 523  :         _Pnode->_Right      = _Wherenode;

  0027d	89 71 08	 mov	 DWORD PTR [ecx+8], esi

; 524  :         _Wherenode->_Parent = _Pnode;

  00280	89 0a		 mov	 DWORD PTR [edx], ecx

; 632  :                         _Rrotate(_Fixnodeparent);
; 633  :                         _Pnode = _Fixnodeparent->_Left;

  00282	8b 0e		 mov	 ecx, DWORD PTR [esi]
  00284	eb 03		 jmp	 SHORT $LN86@Extract
$LN96@Extract:
  00286	8d 56 04	 lea	 edx, DWORD PTR [esi+4]
$LN86@Extract:

; 634  :                     }
; 635  : 
; 636  :                     if (_Pnode->_Isnil) {

  00289	80 79 0d 00	 cmp	 BYTE PTR [ecx+13], 0
  0028d	75 18		 jne	 SHORT $LN2@Extract

; 637  :                         _Fixnode = _Fixnodeparent; // shouldn't happen
; 638  :                     } else if (_Pnode->_Right->_Color == _Black
; 639  :                                && _Pnode->_Left->_Color == _Black) { // redden left subtree with black children

  0028f	8b 59 08	 mov	 ebx, DWORD PTR [ecx+8]
  00292	80 7b 0c 01	 cmp	 BYTE PTR [ebx+12], 1
  00296	75 2c		 jne	 SHORT $LN98@Extract
  00298	8b 01		 mov	 eax, DWORD PTR [ecx]
  0029a	80 78 0c 01	 cmp	 BYTE PTR [eax+12], 1
  0029e	75 24		 jne	 SHORT $LN98@Extract
$LN142@Extract:

; 597  :             for (; _Fixnode != _Myhead->_Parent && _Fixnode->_Color == _Black; _Fixnodeparent = _Fixnode->_Parent) {

  002a0	8b 5d fc	 mov	 ebx, DWORD PTR _this$1$[ebp]
  002a3	c6 41 0c 00	 mov	 BYTE PTR [ecx+12], 0
$LN2@Extract:
  002a7	8b 03		 mov	 eax, DWORD PTR [ebx]
  002a9	8b 4d f4	 mov	 ecx, DWORD PTR tv1093[ebp]
  002ac	8b f9		 mov	 edi, ecx
  002ae	8b 32		 mov	 esi, DWORD PTR [edx]
  002b0	3b 48 04	 cmp	 ecx, DWORD PTR [eax+4]
  002b3	74 49		 je	 SHORT $LN3@Extract
  002b5	80 7f 0c 01	 cmp	 BYTE PTR [edi+12], 1
  002b9	89 75 f4	 mov	 DWORD PTR tv1093[ebp], esi
  002bc	0f 84 a1 fe ff
	ff		 je	 $LL4@Extract
  002c2	eb 3a		 jmp	 SHORT $LN3@Extract
$LN98@Extract:

; 640  :                         _Pnode->_Color = _Red;
; 641  :                         _Fixnode       = _Fixnodeparent;
; 642  :                     } else { // must rearrange left subtree
; 643  :                         if (_Pnode->_Left->_Color == _Black) { // rotate red up from right sub-subtree

  002c4	8b 01		 mov	 eax, DWORD PTR [ecx]
  002c6	80 78 0c 01	 cmp	 BYTE PTR [eax+12], 1
  002ca	75 17		 jne	 SHORT $LN101@Extract

; 644  :                             _Pnode->_Right->_Color = _Black;

  002cc	c6 43 0c 01	 mov	 BYTE PTR [ebx+12], 1

; 645  :                             _Pnode->_Color         = _Red;
; 646  :                             _Lrotate(_Pnode);

  002d0	8b 5d fc	 mov	 ebx, DWORD PTR _this$1$[ebp]
  002d3	c6 41 0c 00	 mov	 BYTE PTR [ecx+12], 0
  002d7	51		 push	 ecx
  002d8	8b cb		 mov	 ecx, ebx
  002da	e8 00 00 00 00	 call	 ?_Lrotate@?$_Tree_val@U?$_Tree_simple_types@U?$pair@$$CBKUCREATE_MONSTER_INFO@@@std@@@std@@@std@@QAEXPAU?$_Tree_node@U?$pair@$$CBKUCREATE_MONSTER_INFO@@@std@@PAX@2@@Z ; std::_Tree_val<std::_Tree_simple_types<std::pair<unsigned long const ,CREATE_MONSTER_INFO> > >::_Lrotate

; 647  :                             _Pnode = _Fixnodeparent->_Left;

  002df	8b 0e		 mov	 ecx, DWORD PTR [esi]
  002e1	eb 03		 jmp	 SHORT $LN39@Extract
$LN101@Extract:

; 640  :                         _Pnode->_Color = _Red;
; 641  :                         _Fixnode       = _Fixnodeparent;
; 642  :                     } else { // must rearrange left subtree
; 643  :                         if (_Pnode->_Left->_Color == _Black) { // rotate red up from right sub-subtree

  002e3	8b 5d fc	 mov	 ebx, DWORD PTR _this$1$[ebp]
$LN39@Extract:

; 648  :                         }
; 649  : 
; 650  :                         _Pnode->_Color         = _Fixnodeparent->_Color;

  002e6	8a 46 0c	 mov	 al, BYTE PTR [esi+12]
  002e9	88 41 0c	 mov	 BYTE PTR [ecx+12], al

; 651  :                         _Fixnodeparent->_Color = _Black;

  002ec	c6 46 0c 01	 mov	 BYTE PTR [esi+12], 1

; 652  :                         _Pnode->_Left->_Color  = _Black;

  002f0	8b 01		 mov	 eax, DWORD PTR [ecx]

; 653  :                         _Rrotate(_Fixnodeparent);

  002f2	8b cb		 mov	 ecx, ebx
  002f4	56		 push	 esi
  002f5	c6 40 0c 01	 mov	 BYTE PTR [eax+12], 1
  002f9	e8 00 00 00 00	 call	 ?_Rrotate@?$_Tree_val@U?$_Tree_simple_types@U?$pair@$$CBKUCREATE_MONSTER_INFO@@@std@@@std@@@std@@QAEXPAU?$_Tree_node@U?$pair@$$CBKUCREATE_MONSTER_INFO@@@std@@PAX@2@@Z ; std::_Tree_val<std::_Tree_simple_types<std::pair<unsigned long const ,CREATE_MONSTER_INFO> > >::_Rrotate
$LN3@Extract:

; 654  :                         break; // tree now recolored/rebalanced
; 655  :                     }
; 656  :                 }
; 657  :             }
; 658  : 
; 659  :             _Fixnode->_Color = _Black; // stopping node is black

  002fe	8b 45 f8	 mov	 eax, DWORD PTR __Erasednode$1$[ebp]
  00301	c6 47 0c 01	 mov	 BYTE PTR [edi+12], 1
$LN25@Extract:

; 660  :         }
; 661  : 
; 662  :         if (0 < _Mysize) {

  00305	8b 4b 04	 mov	 ecx, DWORD PTR [ebx+4]
  00308	85 c9		 test	 ecx, ecx
  0030a	74 04		 je	 SHORT $LN40@Extract

; 663  :             --_Mysize;

  0030c	49		 dec	 ecx
  0030d	89 4b 04	 mov	 DWORD PTR [ebx+4], ecx
$LN40@Extract:

; 664  :         }
; 665  : 
; 666  :         return _Erasednode;
; 667  :     }

  00310	5f		 pop	 edi
  00311	5e		 pop	 esi
  00312	5b		 pop	 ebx
  00313	8b e5		 mov	 esp, ebp
  00315	5d		 pop	 ebp
  00316	c2 04 00	 ret	 4
?_Extract@?$_Tree_val@U?$_Tree_simple_types@U?$pair@$$CBKUCREATE_MONSTER_INFO@@@std@@@std@@@std@@QAEPAU?$_Tree_node@U?$pair@$$CBKUCREATE_MONSTER_INFO@@@std@@PAX@2@V?$_Tree_unchecked_const_iterator@V?$_Tree_val@U?$_Tree_simple_types@U?$pair@$$CBKUCREATE_MONSTER_INFO@@@std@@@std@@@std@@U_Iterator_base0@2@@2@@Z ENDP ; std::_Tree_val<std::_Tree_simple_types<std::pair<unsigned long const ,CREATE_MONSTER_INFO> > >::_Extract
_TEXT	ENDS
; Function compile flags: /Ogtp
; File C:\Program Files\Microsoft Visual Studio\2022\Professional\VC\Tools\MSVC\14.44.35207\include\xtree
;	COMDAT ?_Rrotate@?$_Tree_val@U?$_Tree_simple_types@U?$pair@$$CBKUCREATE_MONSTER_INFO@@@std@@@std@@@std@@QAEXPAU?$_Tree_node@U?$pair@$$CBKUCREATE_MONSTER_INFO@@@std@@PAX@2@@Z
_TEXT	SEGMENT
__Wherenode$ = 8					; size = 4
?_Rrotate@?$_Tree_val@U?$_Tree_simple_types@U?$pair@$$CBKUCREATE_MONSTER_INFO@@@std@@@std@@@std@@QAEXPAU?$_Tree_node@U?$pair@$$CBKUCREATE_MONSTER_INFO@@@std@@PAX@2@@Z PROC ; std::_Tree_val<std::_Tree_simple_types<std::pair<unsigned long const ,CREATE_MONSTER_INFO> > >::_Rrotate, COMDAT
; _this$ = ecx

; 505  :     void _Rrotate(_Nodeptr _Wherenode) noexcept { // promote left node to root of subtree

  00000	55		 push	 ebp
  00001	8b ec		 mov	 ebp, esp

; 506  :         _Nodeptr _Pnode   = _Wherenode->_Left;

  00003	8b 55 08	 mov	 edx, DWORD PTR __Wherenode$[ebp]
  00006	56		 push	 esi
  00007	8b 32		 mov	 esi, DWORD PTR [edx]

; 507  :         _Wherenode->_Left = _Pnode->_Right;

  00009	8b 46 08	 mov	 eax, DWORD PTR [esi+8]
  0000c	89 02		 mov	 DWORD PTR [edx], eax

; 508  : 
; 509  :         if (!_Pnode->_Right->_Isnil) {

  0000e	8b 46 08	 mov	 eax, DWORD PTR [esi+8]
  00011	80 78 0d 00	 cmp	 BYTE PTR [eax+13], 0
  00015	75 03		 jne	 SHORT $LN2@Rrotate

; 510  :             _Pnode->_Right->_Parent = _Wherenode;

  00017	89 50 04	 mov	 DWORD PTR [eax+4], edx
$LN2@Rrotate:

; 511  :         }
; 512  : 
; 513  :         _Pnode->_Parent = _Wherenode->_Parent;

  0001a	8b 42 04	 mov	 eax, DWORD PTR [edx+4]
  0001d	89 46 04	 mov	 DWORD PTR [esi+4], eax

; 514  : 
; 515  :         if (_Wherenode == _Myhead->_Parent) {

  00020	8b 01		 mov	 eax, DWORD PTR [ecx]
  00022	3b 50 04	 cmp	 edx, DWORD PTR [eax+4]
  00025	75 0e		 jne	 SHORT $LN3@Rrotate

; 516  :             _Myhead->_Parent = _Pnode;

  00027	89 70 04	 mov	 DWORD PTR [eax+4], esi

; 521  :         }
; 522  : 
; 523  :         _Pnode->_Right      = _Wherenode;
; 524  :         _Wherenode->_Parent = _Pnode;
; 525  :     }

  0002a	89 56 08	 mov	 DWORD PTR [esi+8], edx
  0002d	89 72 04	 mov	 DWORD PTR [edx+4], esi
  00030	5e		 pop	 esi
  00031	5d		 pop	 ebp
  00032	c2 04 00	 ret	 4
$LN3@Rrotate:

; 517  :         } else if (_Wherenode == _Wherenode->_Parent->_Right) {

  00035	8b 42 04	 mov	 eax, DWORD PTR [edx+4]
  00038	3b 50 08	 cmp	 edx, DWORD PTR [eax+8]
  0003b	75 0e		 jne	 SHORT $LN5@Rrotate

; 518  :             _Wherenode->_Parent->_Right = _Pnode;

  0003d	89 70 08	 mov	 DWORD PTR [eax+8], esi

; 521  :         }
; 522  : 
; 523  :         _Pnode->_Right      = _Wherenode;
; 524  :         _Wherenode->_Parent = _Pnode;
; 525  :     }

  00040	89 56 08	 mov	 DWORD PTR [esi+8], edx
  00043	89 72 04	 mov	 DWORD PTR [edx+4], esi
  00046	5e		 pop	 esi
  00047	5d		 pop	 ebp
  00048	c2 04 00	 ret	 4
$LN5@Rrotate:

; 519  :         } else {
; 520  :             _Wherenode->_Parent->_Left = _Pnode;

  0004b	89 30		 mov	 DWORD PTR [eax], esi

; 521  :         }
; 522  : 
; 523  :         _Pnode->_Right      = _Wherenode;
; 524  :         _Wherenode->_Parent = _Pnode;
; 525  :     }

  0004d	89 56 08	 mov	 DWORD PTR [esi+8], edx
  00050	89 72 04	 mov	 DWORD PTR [edx+4], esi
  00053	5e		 pop	 esi
  00054	5d		 pop	 ebp
  00055	c2 04 00	 ret	 4
?_Rrotate@?$_Tree_val@U?$_Tree_simple_types@U?$pair@$$CBKUCREATE_MONSTER_INFO@@@std@@@std@@@std@@QAEXPAU?$_Tree_node@U?$pair@$$CBKUCREATE_MONSTER_INFO@@@std@@PAX@2@@Z ENDP ; std::_Tree_val<std::_Tree_simple_types<std::pair<unsigned long const ,CREATE_MONSTER_INFO> > >::_Rrotate
_TEXT	ENDS
; Function compile flags: /Ogtp
; File C:\Program Files\Microsoft Visual Studio\2022\Professional\VC\Tools\MSVC\14.44.35207\include\xtree
;	COMDAT ?_Lrotate@?$_Tree_val@U?$_Tree_simple_types@U?$pair@$$CBKUCREATE_MONSTER_INFO@@@std@@@std@@@std@@QAEXPAU?$_Tree_node@U?$pair@$$CBKUCREATE_MONSTER_INFO@@@std@@PAX@2@@Z
_TEXT	SEGMENT
__Wherenode$ = 8					; size = 4
?_Lrotate@?$_Tree_val@U?$_Tree_simple_types@U?$pair@$$CBKUCREATE_MONSTER_INFO@@@std@@@std@@@std@@QAEXPAU?$_Tree_node@U?$pair@$$CBKUCREATE_MONSTER_INFO@@@std@@PAX@2@@Z PROC ; std::_Tree_val<std::_Tree_simple_types<std::pair<unsigned long const ,CREATE_MONSTER_INFO> > >::_Lrotate, COMDAT
; _this$ = ecx

; 483  :     void _Lrotate(_Nodeptr _Wherenode) noexcept { // promote right node to root of subtree

  00000	55		 push	 ebp
  00001	8b ec		 mov	 ebp, esp

; 484  :         _Nodeptr _Pnode    = _Wherenode->_Right;

  00003	8b 55 08	 mov	 edx, DWORD PTR __Wherenode$[ebp]
  00006	56		 push	 esi
  00007	8b 72 08	 mov	 esi, DWORD PTR [edx+8]

; 485  :         _Wherenode->_Right = _Pnode->_Left;

  0000a	8b 06		 mov	 eax, DWORD PTR [esi]
  0000c	89 42 08	 mov	 DWORD PTR [edx+8], eax

; 486  : 
; 487  :         if (!_Pnode->_Left->_Isnil) {

  0000f	8b 06		 mov	 eax, DWORD PTR [esi]
  00011	80 78 0d 00	 cmp	 BYTE PTR [eax+13], 0
  00015	75 03		 jne	 SHORT $LN2@Lrotate

; 488  :             _Pnode->_Left->_Parent = _Wherenode;

  00017	89 50 04	 mov	 DWORD PTR [eax+4], edx
$LN2@Lrotate:

; 489  :         }
; 490  : 
; 491  :         _Pnode->_Parent = _Wherenode->_Parent;

  0001a	8b 42 04	 mov	 eax, DWORD PTR [edx+4]
  0001d	89 46 04	 mov	 DWORD PTR [esi+4], eax

; 492  : 
; 493  :         if (_Wherenode == _Myhead->_Parent) {

  00020	8b 01		 mov	 eax, DWORD PTR [ecx]
  00022	3b 50 04	 cmp	 edx, DWORD PTR [eax+4]
  00025	75 0d		 jne	 SHORT $LN3@Lrotate

; 494  :             _Myhead->_Parent = _Pnode;

  00027	89 70 04	 mov	 DWORD PTR [eax+4], esi

; 499  :         }
; 500  : 
; 501  :         _Pnode->_Left       = _Wherenode;
; 502  :         _Wherenode->_Parent = _Pnode;
; 503  :     }

  0002a	89 16		 mov	 DWORD PTR [esi], edx
  0002c	89 72 04	 mov	 DWORD PTR [edx+4], esi
  0002f	5e		 pop	 esi
  00030	5d		 pop	 ebp
  00031	c2 04 00	 ret	 4
$LN3@Lrotate:

; 495  :         } else if (_Wherenode == _Wherenode->_Parent->_Left) {

  00034	8b 42 04	 mov	 eax, DWORD PTR [edx+4]
  00037	3b 10		 cmp	 edx, DWORD PTR [eax]
  00039	75 0c		 jne	 SHORT $LN5@Lrotate

; 496  :             _Wherenode->_Parent->_Left = _Pnode;

  0003b	89 30		 mov	 DWORD PTR [eax], esi

; 499  :         }
; 500  : 
; 501  :         _Pnode->_Left       = _Wherenode;
; 502  :         _Wherenode->_Parent = _Pnode;
; 503  :     }

  0003d	89 16		 mov	 DWORD PTR [esi], edx
  0003f	89 72 04	 mov	 DWORD PTR [edx+4], esi
  00042	5e		 pop	 esi
  00043	5d		 pop	 ebp
  00044	c2 04 00	 ret	 4
$LN5@Lrotate:

; 497  :         } else {
; 498  :             _Wherenode->_Parent->_Right = _Pnode;

  00047	89 70 08	 mov	 DWORD PTR [eax+8], esi

; 499  :         }
; 500  : 
; 501  :         _Pnode->_Left       = _Wherenode;
; 502  :         _Wherenode->_Parent = _Pnode;
; 503  :     }

  0004a	89 16		 mov	 DWORD PTR [esi], edx
  0004c	89 72 04	 mov	 DWORD PTR [edx+4], esi
  0004f	5e		 pop	 esi
  00050	5d		 pop	 ebp
  00051	c2 04 00	 ret	 4
?_Lrotate@?$_Tree_val@U?$_Tree_simple_types@U?$pair@$$CBKUCREATE_MONSTER_INFO@@@std@@@std@@@std@@QAEXPAU?$_Tree_node@U?$pair@$$CBKUCREATE_MONSTER_INFO@@@std@@PAX@2@@Z ENDP ; std::_Tree_val<std::_Tree_simple_types<std::pair<unsigned long const ,CREATE_MONSTER_INFO> > >::_Lrotate
_TEXT	ENDS
; Function compile flags: /Ogtp
; File C:\Program Files\Microsoft Visual Studio\2022\Professional\VC\Tools\MSVC\14.44.35207\include\xtree
; File C:\Program Files\Microsoft Visual Studio\2022\Professional\VC\Tools\MSVC\14.44.35207\include\utility
; File C:\Program Files\Microsoft Visual Studio\2022\Professional\VC\Tools\MSVC\14.44.35207\include\xmemory
; File C:\Program Files\Microsoft Visual Studio\2022\Professional\VC\Tools\MSVC\14.44.35207\include\xtree
; File C:\Program Files\Microsoft Visual Studio\2022\Professional\VC\Tools\MSVC\14.44.35207\include\xmemory
; File C:\Program Files\Microsoft Visual Studio\2022\Professional\VC\Tools\MSVC\14.44.35207\include\xtree
;	COMDAT ??1?$_Tree@V?$_Tmap_traits@KUCREATE_MONSTER_INFO@@U?$less@K@std@@V?$allocator@U?$pair@$$CBKUCREATE_MONSTER_INFO@@@std@@@3@$0A@@std@@@std@@QAE@XZ
_TEXT	SEGMENT
??1?$_Tree@V?$_Tmap_traits@KUCREATE_MONSTER_INFO@@U?$less@K@std@@V?$allocator@U?$pair@$$CBKUCREATE_MONSTER_INFO@@@std@@@3@$0A@@std@@@std@@QAE@XZ PROC ; std::_Tree<std::_Tmap_traits<unsigned long,CREATE_MONSTER_INFO,std::less<unsigned long>,std::allocator<std::pair<unsigned long const ,CREATE_MONSTER_INFO> >,0> >::~_Tree<std::_Tmap_traits<unsigned long,CREATE_MONSTER_INFO,std::less<unsigned long>,std::allocator<std::pair<unsigned long const ,CREATE_MONSTER_INFO> >,0> >, COMDAT
; _this$ = ecx

; 1095 :     ~_Tree() noexcept {

  00000	56		 push	 esi
  00001	57		 push	 edi
  00002	8b f9		 mov	 edi, ecx

; 777  :         _Erase_tree(_Al, _Myhead->_Parent);

  00004	8b 37		 mov	 esi, DWORD PTR [edi]
  00006	8b 76 04	 mov	 esi, DWORD PTR [esi+4]

; 768  :         while (!_Rootnode->_Isnil) { // free subtrees, then node

  00009	80 7e 0d 00	 cmp	 BYTE PTR [esi+13], 0
  0000d	75 21		 jne	 SHORT $LN61@Tree
  0000f	90		 npad	 1
$LL8@Tree:

; 769  :             _Erase_tree(_Al, _Rootnode->_Right);

  00010	ff 76 08	 push	 DWORD PTR [esi+8]
  00013	8b cf		 mov	 ecx, edi
  00015	57		 push	 edi
  00016	e8 00 00 00 00	 call	 ??$_Erase_tree@V?$allocator@U?$_Tree_node@U?$pair@$$CBKUCREATE_MONSTER_INFO@@@std@@PAX@std@@@std@@@?$_Tree_val@U?$_Tree_simple_types@U?$pair@$$CBKUCREATE_MONSTER_INFO@@@std@@@std@@@std@@QAEXAAV?$allocator@U?$_Tree_node@U?$pair@$$CBKUCREATE_MONSTER_INFO@@@std@@PAX@std@@@1@PAU?$_Tree_node@U?$pair@$$CBKUCREATE_MONSTER_INFO@@@std@@PAX@1@@Z ; std::_Tree_val<std::_Tree_simple_types<std::pair<unsigned long const ,CREATE_MONSTER_INFO> > >::_Erase_tree<std::allocator<std::_Tree_node<std::pair<unsigned long const ,CREATE_MONSTER_INFO>,void *> > >
; File C:\Program Files\Microsoft Visual Studio\2022\Professional\VC\Tools\MSVC\14.44.35207\include\utility

; 773  :     _Ty _Old_val = static_cast<_Ty&&>(_Val);

  0001b	8b c6		 mov	 eax, esi

; 774  :     _Val         = static_cast<_Other&&>(_New_val);

  0001d	8b 36		 mov	 esi, DWORD PTR [esi]
; File C:\Program Files\Microsoft Visual Studio\2022\Professional\VC\Tools\MSVC\14.44.35207\include\xmemory

; 289  :         ::operator delete(_Ptr, _Bytes);

  0001f	6a 20		 push	 32			; 00000020H
  00021	50		 push	 eax
  00022	e8 00 00 00 00	 call	 ??3@YAXPAXI@Z		; operator delete
  00027	83 c4 08	 add	 esp, 8
; File C:\Program Files\Microsoft Visual Studio\2022\Professional\VC\Tools\MSVC\14.44.35207\include\xtree

; 768  :         while (!_Rootnode->_Isnil) { // free subtrees, then node

  0002a	80 7e 0d 00	 cmp	 BYTE PTR [esi+13], 0
  0002e	74 e0		 je	 SHORT $LL8@Tree
$LN61@Tree:
; File C:\Program Files\Microsoft Visual Studio\2022\Professional\VC\Tools\MSVC\14.44.35207\include\xmemory

; 289  :         ::operator delete(_Ptr, _Bytes);

  00030	6a 20		 push	 32			; 00000020H
  00032	ff 37		 push	 DWORD PTR [edi]
  00034	e8 00 00 00 00	 call	 ??3@YAXPAXI@Z		; operator delete
  00039	83 c4 08	 add	 esp, 8
  0003c	5f		 pop	 edi
  0003d	5e		 pop	 esi
; File C:\Program Files\Microsoft Visual Studio\2022\Professional\VC\Tools\MSVC\14.44.35207\include\xtree

; 1102 :     }

  0003e	c3		 ret	 0
??1?$_Tree@V?$_Tmap_traits@KUCREATE_MONSTER_INFO@@U?$less@K@std@@V?$allocator@U?$pair@$$CBKUCREATE_MONSTER_INFO@@@std@@@3@$0A@@std@@@std@@QAE@XZ ENDP ; std::_Tree<std::_Tmap_traits<unsigned long,CREATE_MONSTER_INFO,std::less<unsigned long>,std::allocator<std::pair<unsigned long const ,CREATE_MONSTER_INFO> >,0> >::~_Tree<std::_Tmap_traits<unsigned long,CREATE_MONSTER_INFO,std::less<unsigned long>,std::allocator<std::pair<unsigned long const ,CREATE_MONSTER_INFO> >,0> >
_TEXT	ENDS
; Function compile flags: /Ogtp
;	COMDAT ??1?$map@KPAUCREATE_MONSTER_PROP@@U?$less@K@std@@V?$allocator@U?$pair@$$CBKPAUCREATE_MONSTER_PROP@@@std@@@3@@std@@QAE@XZ
_TEXT	SEGMENT
??1?$map@KPAUCREATE_MONSTER_PROP@@U?$less@K@std@@V?$allocator@U?$pair@$$CBKPAUCREATE_MONSTER_PROP@@@std@@@3@@std@@QAE@XZ PROC ; std::map<unsigned long,CREATE_MONSTER_PROP *,std::less<unsigned long>,std::allocator<std::pair<unsigned long const ,CREATE_MONSTER_PROP *> > >::~map<unsigned long,CREATE_MONSTER_PROP *,std::less<unsigned long>,std::allocator<std::pair<unsigned long const ,CREATE_MONSTER_PROP *> > >, COMDAT
; _this$ = ecx
  00000	e9 00 00 00 00	 jmp	 ??1?$_Tree@V?$_Tmap_traits@KPAUCREATE_MONSTER_PROP@@U?$less@K@std@@V?$allocator@U?$pair@$$CBKPAUCREATE_MONSTER_PROP@@@std@@@3@$0A@@std@@@std@@QAE@XZ ; std::_Tree<std::_Tmap_traits<unsigned long,CREATE_MONSTER_PROP *,std::less<unsigned long>,std::allocator<std::pair<unsigned long const ,CREATE_MONSTER_PROP *> >,0> >::~_Tree<std::_Tmap_traits<unsigned long,CREATE_MONSTER_PROP *,std::less<unsigned long>,std::allocator<std::pair<unsigned long const ,CREATE_MONSTER_PROP *> >,0> >
??1?$map@KPAUCREATE_MONSTER_PROP@@U?$less@K@std@@V?$allocator@U?$pair@$$CBKPAUCREATE_MONSTER_PROP@@@std@@@3@@std@@QAE@XZ ENDP ; std::map<unsigned long,CREATE_MONSTER_PROP *,std::less<unsigned long>,std::allocator<std::pair<unsigned long const ,CREATE_MONSTER_PROP *> > >::~map<unsigned long,CREATE_MONSTER_PROP *,std::less<unsigned long>,std::allocator<std::pair<unsigned long const ,CREATE_MONSTER_PROP *> > >
_TEXT	ENDS
; Function compile flags: /Ogtp
; File C:\Program Files\Microsoft Visual Studio\2022\Professional\VC\Tools\MSVC\14.44.35207\include\xtree
;	COMDAT ?_Insert_node@?$_Tree_val@U?$_Tree_simple_types@U?$pair@$$CBKPAUCREATE_MONSTER_PROP@@@std@@@std@@@std@@QAEPAU?$_Tree_node@U?$pair@$$CBKPAUCREATE_MONSTER_PROP@@@std@@PAX@2@U?$_Tree_id@PAU?$_Tree_node@U?$pair@$$CBKPAUCREATE_MONSTER_PROP@@@std@@PAX@std@@@2@QAU32@@Z
_TEXT	SEGMENT
__Head$1$ = -4						; size = 4
__Loc$ = 8						; size = 8
__Newnode$ = 16						; size = 4
?_Insert_node@?$_Tree_val@U?$_Tree_simple_types@U?$pair@$$CBKPAUCREATE_MONSTER_PROP@@@std@@@std@@@std@@QAEPAU?$_Tree_node@U?$pair@$$CBKPAUCREATE_MONSTER_PROP@@@std@@PAX@2@U?$_Tree_id@PAU?$_Tree_node@U?$pair@$$CBKPAUCREATE_MONSTER_PROP@@@std@@PAX@std@@@2@QAU32@@Z PROC ; std::_Tree_val<std::_Tree_simple_types<std::pair<unsigned long const ,CREATE_MONSTER_PROP *> > >::_Insert_node, COMDAT
; _this$ = ecx

; 669  :     _Nodeptr _Insert_node(const _Tree_id<_Nodeptr> _Loc, const _Nodeptr _Newnode) noexcept {

  00000	55		 push	 ebp
  00001	8b ec		 mov	 ebp, esp
  00003	51		 push	 ecx

; 670  :         ++_Mysize;
; 671  :         const auto _Head  = _Myhead;
; 672  :         _Newnode->_Parent = _Loc._Parent;

  00004	8b 55 08	 mov	 edx, DWORD PTR __Loc$[ebp]
  00007	53		 push	 ebx
  00008	8b d9		 mov	 ebx, ecx
  0000a	57		 push	 edi
  0000b	8b 7d 10	 mov	 edi, DWORD PTR __Newnode$[ebp]
  0000e	8b 03		 mov	 eax, DWORD PTR [ebx]
  00010	ff 43 04	 inc	 DWORD PTR [ebx+4]
  00013	89 45 fc	 mov	 DWORD PTR __Head$1$[ebp], eax
  00016	89 57 04	 mov	 DWORD PTR [edi+4], edx

; 673  :         if (_Loc._Parent == _Head) { // first node in tree, just set head values

  00019	3b d0		 cmp	 edx, eax
  0001b	75 16		 jne	 SHORT $LN5@Insert_nod

; 674  :             _Head->_Left     = _Newnode;

  0001d	89 38		 mov	 DWORD PTR [eax], edi

; 675  :             _Head->_Parent   = _Newnode;

  0001f	89 78 04	 mov	 DWORD PTR [eax+4], edi

; 676  :             _Head->_Right    = _Newnode;

  00022	89 78 08	 mov	 DWORD PTR [eax+8], edi

; 735  :         return _Newnode;
; 736  :     }

  00025	8b c7		 mov	 eax, edi
  00027	c6 47 0c 01	 mov	 BYTE PTR [edi+12], 1
  0002b	5f		 pop	 edi
  0002c	5b		 pop	 ebx
  0002d	8b e5		 mov	 esp, ebp
  0002f	5d		 pop	 ebp
  00030	c2 0c 00	 ret	 12			; 0000000cH
$LN5@Insert_nod:

; 677  :             _Newnode->_Color = _Black; // the root is black
; 678  :             return _Newnode;
; 679  :         }
; 680  : 
; 681  :         _STL_INTERNAL_CHECK(_Loc._Child != _Tree_child::_Unused);
; 682  :         if (_Loc._Child == _Tree_child::_Right) { // add to right of _Loc._Parent

  00033	83 7d 0c 00	 cmp	 DWORD PTR __Loc$[ebp+4], 0
  00037	75 0d		 jne	 SHORT $LN6@Insert_nod

; 683  :             _STL_INTERNAL_CHECK(_Loc._Parent->_Right->_Isnil);
; 684  :             _Loc._Parent->_Right = _Newnode;

  00039	89 7a 08	 mov	 DWORD PTR [edx+8], edi

; 685  :             if (_Loc._Parent == _Head->_Right) { // remember rightmost node

  0003c	3b 50 08	 cmp	 edx, DWORD PTR [eax+8]
  0003f	75 0d		 jne	 SHORT $LN9@Insert_nod

; 686  :                 _Head->_Right = _Newnode;

  00041	89 78 08	 mov	 DWORD PTR [eax+8], edi

; 687  :             }
; 688  :         } else { // add to left of _Loc._Parent

  00044	eb 08		 jmp	 SHORT $LN9@Insert_nod
$LN6@Insert_nod:

; 689  :             _STL_INTERNAL_CHECK(_Loc._Parent->_Left->_Isnil);
; 690  :             _Loc._Parent->_Left = _Newnode;

  00046	89 3a		 mov	 DWORD PTR [edx], edi

; 691  :             if (_Loc._Parent == _Head->_Left) { // remember leftmost node

  00048	3b 10		 cmp	 edx, DWORD PTR [eax]
  0004a	75 02		 jne	 SHORT $LN9@Insert_nod

; 692  :                 _Head->_Left = _Newnode;

  0004c	89 38		 mov	 DWORD PTR [eax], edi
$LN9@Insert_nod:

; 693  :             }
; 694  :         }
; 695  : 
; 696  :         for (_Nodeptr _Pnode = _Newnode; _Pnode->_Parent->_Color == _Red;) {

  0004e	8b 4f 04	 mov	 ecx, DWORD PTR [edi+4]
  00051	8b c7		 mov	 eax, edi
  00053	80 79 0c 00	 cmp	 BYTE PTR [ecx+12], 0
  00057	0f 85 7d 01 00
	00		 jne	 $LN3@Insert_nod
  0005d	56		 push	 esi
  0005e	66 90		 npad	 2
$LL4@Insert_nod:

; 697  :             if (_Pnode->_Parent == _Pnode->_Parent->_Parent->_Left) { // fixup red-red in left subtree

  00060	8b 50 04	 mov	 edx, DWORD PTR [eax+4]
  00063	8b 72 04	 mov	 esi, DWORD PTR [edx+4]
  00066	8b 0e		 mov	 ecx, DWORD PTR [esi]
  00068	3b d1		 cmp	 edx, ecx
  0006a	0f 85 aa 00 00
	00		 jne	 $LN10@Insert_nod

; 698  :                 const auto _Parent_sibling = _Pnode->_Parent->_Parent->_Right;

  00070	8b 4e 08	 mov	 ecx, DWORD PTR [esi+8]

; 699  :                 if (_Parent_sibling->_Color == _Red) { // parent's sibling has two red children, blacken both

  00073	80 79 0c 00	 cmp	 BYTE PTR [ecx+12], 0
  00077	0f 84 a3 00 00
	00		 je	 $LN82@Insert_nod

; 700  :                     _Pnode->_Parent->_Color          = _Black;
; 701  :                     _Parent_sibling->_Color          = _Black;
; 702  :                     _Pnode->_Parent->_Parent->_Color = _Red;
; 703  :                     _Pnode                           = _Pnode->_Parent->_Parent;
; 704  :                 } else { // parent's sibling has red and black children
; 705  :                     if (_Pnode == _Pnode->_Parent->_Right) { // rotate right child to left

  0007d	8b 72 08	 mov	 esi, DWORD PTR [edx+8]
  00080	3b c6		 cmp	 eax, esi
  00082	75 37		 jne	 SHORT $LN57@Insert_nod

; 485  :         _Wherenode->_Right = _Pnode->_Left;

  00084	8b 0e		 mov	 ecx, DWORD PTR [esi]

; 706  :                         _Pnode = _Pnode->_Parent;

  00086	8b c2		 mov	 eax, edx

; 485  :         _Wherenode->_Right = _Pnode->_Left;

  00088	89 4a 08	 mov	 DWORD PTR [edx+8], ecx

; 486  : 
; 487  :         if (!_Pnode->_Left->_Isnil) {

  0008b	8b 0e		 mov	 ecx, DWORD PTR [esi]
  0008d	80 79 0d 00	 cmp	 BYTE PTR [ecx+13], 0
  00091	75 03		 jne	 SHORT $LN21@Insert_nod

; 488  :             _Pnode->_Left->_Parent = _Wherenode;

  00093	89 41 04	 mov	 DWORD PTR [ecx+4], eax
$LN21@Insert_nod:

; 489  :         }
; 490  : 
; 491  :         _Pnode->_Parent = _Wherenode->_Parent;

  00096	8b 4a 04	 mov	 ecx, DWORD PTR [edx+4]
  00099	89 4e 04	 mov	 DWORD PTR [esi+4], ecx

; 492  : 
; 493  :         if (_Wherenode == _Myhead->_Parent) {

  0009c	8b 0b		 mov	 ecx, DWORD PTR [ebx]
  0009e	3b 41 04	 cmp	 eax, DWORD PTR [ecx+4]
  000a1	75 05		 jne	 SHORT $LN22@Insert_nod

; 494  :             _Myhead->_Parent = _Pnode;

  000a3	89 71 04	 mov	 DWORD PTR [ecx+4], esi
  000a6	eb 0e		 jmp	 SHORT $LN25@Insert_nod
$LN22@Insert_nod:

; 495  :         } else if (_Wherenode == _Wherenode->_Parent->_Left) {

  000a8	8b 4a 04	 mov	 ecx, DWORD PTR [edx+4]
  000ab	3b 01		 cmp	 eax, DWORD PTR [ecx]
  000ad	75 04		 jne	 SHORT $LN24@Insert_nod

; 496  :             _Wherenode->_Parent->_Left = _Pnode;

  000af	89 31		 mov	 DWORD PTR [ecx], esi

; 497  :         } else {

  000b1	eb 03		 jmp	 SHORT $LN25@Insert_nod
$LN24@Insert_nod:

; 498  :             _Wherenode->_Parent->_Right = _Pnode;

  000b3	89 71 08	 mov	 DWORD PTR [ecx+8], esi
$LN25@Insert_nod:

; 499  :         }
; 500  : 
; 501  :         _Pnode->_Left       = _Wherenode;

  000b6	89 06		 mov	 DWORD PTR [esi], eax

; 502  :         _Wherenode->_Parent = _Pnode;

  000b8	89 70 04	 mov	 DWORD PTR [eax+4], esi
$LN57@Insert_nod:

; 707  :                         _Lrotate(_Pnode);
; 708  :                     }
; 709  : 
; 710  :                     _Pnode->_Parent->_Color          = _Black; // propagate red up

  000bb	8b 48 04	 mov	 ecx, DWORD PTR [eax+4]
  000be	c6 41 0c 01	 mov	 BYTE PTR [ecx+12], 1

; 711  :                     _Pnode->_Parent->_Parent->_Color = _Red;

  000c2	8b 48 04	 mov	 ecx, DWORD PTR [eax+4]
  000c5	8b 49 04	 mov	 ecx, DWORD PTR [ecx+4]
  000c8	c6 41 0c 00	 mov	 BYTE PTR [ecx+12], 0

; 712  :                     _Rrotate(_Pnode->_Parent->_Parent);

  000cc	8b 48 04	 mov	 ecx, DWORD PTR [eax+4]
  000cf	8b 51 04	 mov	 edx, DWORD PTR [ecx+4]

; 506  :         _Nodeptr _Pnode   = _Wherenode->_Left;

  000d2	8b 32		 mov	 esi, DWORD PTR [edx]

; 507  :         _Wherenode->_Left = _Pnode->_Right;

  000d4	8b 4e 08	 mov	 ecx, DWORD PTR [esi+8]
  000d7	89 0a		 mov	 DWORD PTR [edx], ecx

; 508  : 
; 509  :         if (!_Pnode->_Right->_Isnil) {

  000d9	8b 4e 08	 mov	 ecx, DWORD PTR [esi+8]
  000dc	80 79 0d 00	 cmp	 BYTE PTR [ecx+13], 0
  000e0	75 03		 jne	 SHORT $LN29@Insert_nod

; 510  :             _Pnode->_Right->_Parent = _Wherenode;

  000e2	89 51 04	 mov	 DWORD PTR [ecx+4], edx
$LN29@Insert_nod:

; 511  :         }
; 512  : 
; 513  :         _Pnode->_Parent = _Wherenode->_Parent;

  000e5	8b 4a 04	 mov	 ecx, DWORD PTR [edx+4]
  000e8	89 4e 04	 mov	 DWORD PTR [esi+4], ecx

; 514  : 
; 515  :         if (_Wherenode == _Myhead->_Parent) {

  000eb	8b 0b		 mov	 ecx, DWORD PTR [ebx]
  000ed	3b 51 04	 cmp	 edx, DWORD PTR [ecx+4]
  000f0	75 0b		 jne	 SHORT $LN30@Insert_nod

; 516  :             _Myhead->_Parent = _Pnode;

  000f2	89 71 04	 mov	 DWORD PTR [ecx+4], esi

; 521  :         }
; 522  : 
; 523  :         _Pnode->_Right      = _Wherenode;

  000f5	89 56 08	 mov	 DWORD PTR [esi+8], edx

; 713  :                 }
; 714  :             } else { // fixup red-red in right subtree

  000f8	e9 cc 00 00 00	 jmp	 $LN81@Insert_nod
$LN30@Insert_nod:

; 517  :         } else if (_Wherenode == _Wherenode->_Parent->_Right) {

  000fd	8b 4a 04	 mov	 ecx, DWORD PTR [edx+4]
  00100	3b 51 08	 cmp	 edx, DWORD PTR [ecx+8]
  00103	75 0b		 jne	 SHORT $LN32@Insert_nod

; 518  :             _Wherenode->_Parent->_Right = _Pnode;

  00105	89 71 08	 mov	 DWORD PTR [ecx+8], esi

; 521  :         }
; 522  : 
; 523  :         _Pnode->_Right      = _Wherenode;

  00108	89 56 08	 mov	 DWORD PTR [esi+8], edx

; 713  :                 }
; 714  :             } else { // fixup red-red in right subtree

  0010b	e9 b9 00 00 00	 jmp	 $LN81@Insert_nod
$LN32@Insert_nod:

; 520  :             _Wherenode->_Parent->_Left = _Pnode;

  00110	89 31		 mov	 DWORD PTR [ecx], esi

; 521  :         }
; 522  : 
; 523  :         _Pnode->_Right      = _Wherenode;

  00112	89 56 08	 mov	 DWORD PTR [esi+8], edx

; 713  :                 }
; 714  :             } else { // fixup red-red in right subtree

  00115	e9 af 00 00 00	 jmp	 $LN81@Insert_nod
$LN10@Insert_nod:

; 715  :                 const auto _Parent_sibling = _Pnode->_Parent->_Parent->_Left;
; 716  :                 if (_Parent_sibling->_Color == _Red) { // parent's sibling has two red children, blacken both

  0011a	80 79 0c 00	 cmp	 BYTE PTR [ecx+12], 0
  0011e	75 1d		 jne	 SHORT $LN15@Insert_nod
$LN82@Insert_nod:

; 693  :             }
; 694  :         }
; 695  : 
; 696  :         for (_Nodeptr _Pnode = _Newnode; _Pnode->_Parent->_Color == _Red;) {

  00120	c6 42 0c 01	 mov	 BYTE PTR [edx+12], 1
  00124	c6 41 0c 01	 mov	 BYTE PTR [ecx+12], 1
  00128	8b 48 04	 mov	 ecx, DWORD PTR [eax+4]
  0012b	8b 49 04	 mov	 ecx, DWORD PTR [ecx+4]
  0012e	c6 41 0c 00	 mov	 BYTE PTR [ecx+12], 0
  00132	8b 48 04	 mov	 ecx, DWORD PTR [eax+4]
  00135	8b 41 04	 mov	 eax, DWORD PTR [ecx+4]
  00138	e9 8f 00 00 00	 jmp	 $LN2@Insert_nod
$LN15@Insert_nod:

; 717  :                     _Pnode->_Parent->_Color          = _Black;
; 718  :                     _Parent_sibling->_Color          = _Black;
; 719  :                     _Pnode->_Parent->_Parent->_Color = _Red;
; 720  :                     _Pnode                           = _Pnode->_Parent->_Parent;
; 721  :                 } else { // parent's sibling has red and black children
; 722  :                     if (_Pnode == _Pnode->_Parent->_Left) { // rotate left child to right

  0013d	8b 32		 mov	 esi, DWORD PTR [edx]
  0013f	3b c6		 cmp	 eax, esi
  00141	75 3a		 jne	 SHORT $LN42@Insert_nod

; 507  :         _Wherenode->_Left = _Pnode->_Right;

  00143	8b 4e 08	 mov	 ecx, DWORD PTR [esi+8]

; 723  :                         _Pnode = _Pnode->_Parent;

  00146	8b c2		 mov	 eax, edx

; 507  :         _Wherenode->_Left = _Pnode->_Right;

  00148	89 08		 mov	 DWORD PTR [eax], ecx

; 508  : 
; 509  :         if (!_Pnode->_Right->_Isnil) {

  0014a	8b 4e 08	 mov	 ecx, DWORD PTR [esi+8]
  0014d	80 79 0d 00	 cmp	 BYTE PTR [ecx+13], 0
  00151	75 03		 jne	 SHORT $LN37@Insert_nod

; 510  :             _Pnode->_Right->_Parent = _Wherenode;

  00153	89 41 04	 mov	 DWORD PTR [ecx+4], eax
$LN37@Insert_nod:

; 511  :         }
; 512  : 
; 513  :         _Pnode->_Parent = _Wherenode->_Parent;

  00156	8b 4a 04	 mov	 ecx, DWORD PTR [edx+4]
  00159	89 4e 04	 mov	 DWORD PTR [esi+4], ecx

; 514  : 
; 515  :         if (_Wherenode == _Myhead->_Parent) {

  0015c	8b 0b		 mov	 ecx, DWORD PTR [ebx]
  0015e	3b 41 04	 cmp	 eax, DWORD PTR [ecx+4]
  00161	75 05		 jne	 SHORT $LN38@Insert_nod

; 516  :             _Myhead->_Parent = _Pnode;

  00163	89 71 04	 mov	 DWORD PTR [ecx+4], esi
  00166	eb 0f		 jmp	 SHORT $LN41@Insert_nod
$LN38@Insert_nod:

; 517  :         } else if (_Wherenode == _Wherenode->_Parent->_Right) {

  00168	8b 4a 04	 mov	 ecx, DWORD PTR [edx+4]
  0016b	3b 41 08	 cmp	 eax, DWORD PTR [ecx+8]
  0016e	75 05		 jne	 SHORT $LN40@Insert_nod

; 518  :             _Wherenode->_Parent->_Right = _Pnode;

  00170	89 71 08	 mov	 DWORD PTR [ecx+8], esi

; 519  :         } else {

  00173	eb 02		 jmp	 SHORT $LN41@Insert_nod
$LN40@Insert_nod:

; 520  :             _Wherenode->_Parent->_Left = _Pnode;

  00175	89 31		 mov	 DWORD PTR [ecx], esi
$LN41@Insert_nod:

; 521  :         }
; 522  : 
; 523  :         _Pnode->_Right      = _Wherenode;

  00177	89 46 08	 mov	 DWORD PTR [esi+8], eax

; 524  :         _Wherenode->_Parent = _Pnode;

  0017a	89 70 04	 mov	 DWORD PTR [eax+4], esi
$LN42@Insert_nod:

; 724  :                         _Rrotate(_Pnode);
; 725  :                     }
; 726  : 
; 727  :                     _Pnode->_Parent->_Color          = _Black; // propagate red up

  0017d	8b 48 04	 mov	 ecx, DWORD PTR [eax+4]
  00180	c6 41 0c 01	 mov	 BYTE PTR [ecx+12], 1

; 728  :                     _Pnode->_Parent->_Parent->_Color = _Red;

  00184	8b 48 04	 mov	 ecx, DWORD PTR [eax+4]
  00187	8b 49 04	 mov	 ecx, DWORD PTR [ecx+4]
  0018a	c6 41 0c 00	 mov	 BYTE PTR [ecx+12], 0

; 729  :                     _Lrotate(_Pnode->_Parent->_Parent);

  0018e	8b 48 04	 mov	 ecx, DWORD PTR [eax+4]
  00191	8b 51 04	 mov	 edx, DWORD PTR [ecx+4]

; 484  :         _Nodeptr _Pnode    = _Wherenode->_Right;

  00194	8b 72 08	 mov	 esi, DWORD PTR [edx+8]

; 485  :         _Wherenode->_Right = _Pnode->_Left;

  00197	8b 0e		 mov	 ecx, DWORD PTR [esi]
  00199	89 4a 08	 mov	 DWORD PTR [edx+8], ecx

; 486  : 
; 487  :         if (!_Pnode->_Left->_Isnil) {

  0019c	8b 0e		 mov	 ecx, DWORD PTR [esi]
  0019e	80 79 0d 00	 cmp	 BYTE PTR [ecx+13], 0
  001a2	75 03		 jne	 SHORT $LN45@Insert_nod

; 488  :             _Pnode->_Left->_Parent = _Wherenode;

  001a4	89 51 04	 mov	 DWORD PTR [ecx+4], edx
$LN45@Insert_nod:

; 489  :         }
; 490  : 
; 491  :         _Pnode->_Parent = _Wherenode->_Parent;

  001a7	8b 4a 04	 mov	 ecx, DWORD PTR [edx+4]
  001aa	89 4e 04	 mov	 DWORD PTR [esi+4], ecx

; 492  : 
; 493  :         if (_Wherenode == _Myhead->_Parent) {

  001ad	8b 0b		 mov	 ecx, DWORD PTR [ebx]
  001af	3b 51 04	 cmp	 edx, DWORD PTR [ecx+4]
  001b2	75 05		 jne	 SHORT $LN46@Insert_nod

; 494  :             _Myhead->_Parent = _Pnode;

  001b4	89 71 04	 mov	 DWORD PTR [ecx+4], esi
  001b7	eb 0e		 jmp	 SHORT $LN49@Insert_nod
$LN46@Insert_nod:

; 495  :         } else if (_Wherenode == _Wherenode->_Parent->_Left) {

  001b9	8b 4a 04	 mov	 ecx, DWORD PTR [edx+4]
  001bc	3b 11		 cmp	 edx, DWORD PTR [ecx]
  001be	75 04		 jne	 SHORT $LN48@Insert_nod

; 496  :             _Wherenode->_Parent->_Left = _Pnode;

  001c0	89 31		 mov	 DWORD PTR [ecx], esi

; 497  :         } else {

  001c2	eb 03		 jmp	 SHORT $LN49@Insert_nod
$LN48@Insert_nod:

; 498  :             _Wherenode->_Parent->_Right = _Pnode;

  001c4	89 71 08	 mov	 DWORD PTR [ecx+8], esi
$LN49@Insert_nod:

; 499  :         }
; 500  : 
; 501  :         _Pnode->_Left       = _Wherenode;

  001c7	89 16		 mov	 DWORD PTR [esi], edx
$LN81@Insert_nod:

; 693  :             }
; 694  :         }
; 695  : 
; 696  :         for (_Nodeptr _Pnode = _Newnode; _Pnode->_Parent->_Color == _Red;) {

  001c9	89 72 04	 mov	 DWORD PTR [edx+4], esi
$LN2@Insert_nod:
  001cc	8b 48 04	 mov	 ecx, DWORD PTR [eax+4]
  001cf	80 79 0c 00	 cmp	 BYTE PTR [ecx+12], 0
  001d3	0f 84 87 fe ff
	ff		 je	 $LL4@Insert_nod
  001d9	5e		 pop	 esi
$LN3@Insert_nod:

; 730  :                 }
; 731  :             }
; 732  :         }
; 733  : 
; 734  :         _Head->_Parent->_Color = _Black; // root is always black

  001da	8b 45 fc	 mov	 eax, DWORD PTR __Head$1$[ebp]
  001dd	8b 40 04	 mov	 eax, DWORD PTR [eax+4]
  001e0	c6 40 0c 01	 mov	 BYTE PTR [eax+12], 1

; 735  :         return _Newnode;
; 736  :     }

  001e4	8b c7		 mov	 eax, edi
  001e6	5f		 pop	 edi
  001e7	5b		 pop	 ebx
  001e8	8b e5		 mov	 esp, ebp
  001ea	5d		 pop	 ebp
  001eb	c2 0c 00	 ret	 12			; 0000000cH
?_Insert_node@?$_Tree_val@U?$_Tree_simple_types@U?$pair@$$CBKPAUCREATE_MONSTER_PROP@@@std@@@std@@@std@@QAEPAU?$_Tree_node@U?$pair@$$CBKPAUCREATE_MONSTER_PROP@@@std@@PAX@2@U?$_Tree_id@PAU?$_Tree_node@U?$pair@$$CBKPAUCREATE_MONSTER_PROP@@@std@@PAX@std@@@2@QAU32@@Z ENDP ; std::_Tree_val<std::_Tree_simple_types<std::pair<unsigned long const ,CREATE_MONSTER_PROP *> > >::_Insert_node
_TEXT	ENDS
; Function compile flags: /Ogtp
; File C:\Program Files\Microsoft Visual Studio\2022\Professional\VC\Tools\MSVC\14.44.35207\include\xtree
; File C:\Program Files\Microsoft Visual Studio\2022\Professional\VC\Tools\MSVC\14.44.35207\include\utility
; File C:\Program Files\Microsoft Visual Studio\2022\Professional\VC\Tools\MSVC\14.44.35207\include\xmemory
; File C:\Program Files\Microsoft Visual Studio\2022\Professional\VC\Tools\MSVC\14.44.35207\include\xtree
; File C:\Program Files\Microsoft Visual Studio\2022\Professional\VC\Tools\MSVC\14.44.35207\include\xmemory
; File C:\Program Files\Microsoft Visual Studio\2022\Professional\VC\Tools\MSVC\14.44.35207\include\xtree
;	COMDAT ??1?$_Tree@V?$_Tmap_traits@KPAUCREATE_MONSTER_PROP@@U?$less@K@std@@V?$allocator@U?$pair@$$CBKPAUCREATE_MONSTER_PROP@@@std@@@3@$0A@@std@@@std@@QAE@XZ
_TEXT	SEGMENT
??1?$_Tree@V?$_Tmap_traits@KPAUCREATE_MONSTER_PROP@@U?$less@K@std@@V?$allocator@U?$pair@$$CBKPAUCREATE_MONSTER_PROP@@@std@@@3@$0A@@std@@@std@@QAE@XZ PROC ; std::_Tree<std::_Tmap_traits<unsigned long,CREATE_MONSTER_PROP *,std::less<unsigned long>,std::allocator<std::pair<unsigned long const ,CREATE_MONSTER_PROP *> >,0> >::~_Tree<std::_Tmap_traits<unsigned long,CREATE_MONSTER_PROP *,std::less<unsigned long>,std::allocator<std::pair<unsigned long const ,CREATE_MONSTER_PROP *> >,0> >, COMDAT
; _this$ = ecx

; 1095 :     ~_Tree() noexcept {

  00000	56		 push	 esi
  00001	57		 push	 edi
  00002	8b f9		 mov	 edi, ecx

; 777  :         _Erase_tree(_Al, _Myhead->_Parent);

  00004	8b 37		 mov	 esi, DWORD PTR [edi]
  00006	8b 76 04	 mov	 esi, DWORD PTR [esi+4]

; 768  :         while (!_Rootnode->_Isnil) { // free subtrees, then node

  00009	80 7e 0d 00	 cmp	 BYTE PTR [esi+13], 0
  0000d	75 21		 jne	 SHORT $LN61@Tree
  0000f	90		 npad	 1
$LL8@Tree:

; 769  :             _Erase_tree(_Al, _Rootnode->_Right);

  00010	ff 76 08	 push	 DWORD PTR [esi+8]
  00013	8b cf		 mov	 ecx, edi
  00015	57		 push	 edi
  00016	e8 00 00 00 00	 call	 ??$_Erase_tree@V?$allocator@U?$_Tree_node@U?$pair@$$CBKPAUCREATE_MONSTER_PROP@@@std@@PAX@std@@@std@@@?$_Tree_val@U?$_Tree_simple_types@U?$pair@$$CBKPAUCREATE_MONSTER_PROP@@@std@@@std@@@std@@QAEXAAV?$allocator@U?$_Tree_node@U?$pair@$$CBKPAUCREATE_MONSTER_PROP@@@std@@PAX@std@@@1@PAU?$_Tree_node@U?$pair@$$CBKPAUCREATE_MONSTER_PROP@@@std@@PAX@1@@Z ; std::_Tree_val<std::_Tree_simple_types<std::pair<unsigned long const ,CREATE_MONSTER_PROP *> > >::_Erase_tree<std::allocator<std::_Tree_node<std::pair<unsigned long const ,CREATE_MONSTER_PROP *>,void *> > >
; File C:\Program Files\Microsoft Visual Studio\2022\Professional\VC\Tools\MSVC\14.44.35207\include\utility

; 773  :     _Ty _Old_val = static_cast<_Ty&&>(_Val);

  0001b	8b c6		 mov	 eax, esi

; 774  :     _Val         = static_cast<_Other&&>(_New_val);

  0001d	8b 36		 mov	 esi, DWORD PTR [esi]
; File C:\Program Files\Microsoft Visual Studio\2022\Professional\VC\Tools\MSVC\14.44.35207\include\xmemory

; 289  :         ::operator delete(_Ptr, _Bytes);

  0001f	6a 18		 push	 24			; 00000018H
  00021	50		 push	 eax
  00022	e8 00 00 00 00	 call	 ??3@YAXPAXI@Z		; operator delete
  00027	83 c4 08	 add	 esp, 8
; File C:\Program Files\Microsoft Visual Studio\2022\Professional\VC\Tools\MSVC\14.44.35207\include\xtree

; 768  :         while (!_Rootnode->_Isnil) { // free subtrees, then node

  0002a	80 7e 0d 00	 cmp	 BYTE PTR [esi+13], 0
  0002e	74 e0		 je	 SHORT $LL8@Tree
$LN61@Tree:
; File C:\Program Files\Microsoft Visual Studio\2022\Professional\VC\Tools\MSVC\14.44.35207\include\xmemory

; 289  :         ::operator delete(_Ptr, _Bytes);

  00030	6a 18		 push	 24			; 00000018H
  00032	ff 37		 push	 DWORD PTR [edi]
  00034	e8 00 00 00 00	 call	 ??3@YAXPAXI@Z		; operator delete
  00039	83 c4 08	 add	 esp, 8
  0003c	5f		 pop	 edi
  0003d	5e		 pop	 esi
; File C:\Program Files\Microsoft Visual Studio\2022\Professional\VC\Tools\MSVC\14.44.35207\include\xtree

; 1102 :     }

  0003e	c3		 ret	 0
??1?$_Tree@V?$_Tmap_traits@KPAUCREATE_MONSTER_PROP@@U?$less@K@std@@V?$allocator@U?$pair@$$CBKPAUCREATE_MONSTER_PROP@@@std@@@3@$0A@@std@@@std@@QAE@XZ ENDP ; std::_Tree<std::_Tmap_traits<unsigned long,CREATE_MONSTER_PROP *,std::less<unsigned long>,std::allocator<std::pair<unsigned long const ,CREATE_MONSTER_PROP *> >,0> >::~_Tree<std::_Tmap_traits<unsigned long,CREATE_MONSTER_PROP *,std::less<unsigned long>,std::allocator<std::pair<unsigned long const ,CREATE_MONSTER_PROP *> >,0> >
_TEXT	ENDS
; Function compile flags: /Ogtp
; File C:\IAGOS\server\v18\Source\Source\_Common\CreateMonster.cpp
; File C:\Program Files\Microsoft Visual Studio\2022\Professional\VC\Tools\MSVC\14.44.35207\include\xtree
; File C:\IAGOS\server\v18\Source\Source\_Common\CreateMonster.cpp
; File C:\Program Files\Microsoft Visual Studio\2022\Professional\VC\Tools\MSVC\14.44.35207\include\xtree
; File C:\Program Files\Microsoft Visual Studio\2022\Professional\VC\Tools\MSVC\14.44.35207\include\type_traits
; File C:\Program Files\Microsoft Visual Studio\2022\Professional\VC\Tools\MSVC\14.44.35207\include\xtree
; File C:\IAGOS\server\v18\Source\Source\_Common\CreateMonster.cpp
;	COMDAT ?GetCreateMonsterProp@CCreateMonster@@AAEPAUCREATE_MONSTER_PROP@@PAVCItemElem@@@Z
_TEXT	SEGMENT
__Loc$1 = -12						; size = 12
_pItemElem$ = 8						; size = 4
?GetCreateMonsterProp@CCreateMonster@@AAEPAUCREATE_MONSTER_PROP@@PAVCItemElem@@@Z PROC ; CCreateMonster::GetCreateMonsterProp, COMDAT
; _this$ = ecx

; 81   : {

  00000	55		 push	 ebp
  00001	8b ec		 mov	 ebp, esp
  00003	83 ec 0c	 sub	 esp, 12			; 0000000cH
  00006	56		 push	 esi

; 82   : 	MAPPROP::iterator it = m_mapCreateMonsterProp.find( pItemElem->m_dwItemId );

  00007	8b 75 08	 mov	 esi, DWORD PTR _pItemElem$[ebp]
; File C:\Program Files\Microsoft Visual Studio\2022\Professional\VC\Tools\MSVC\14.44.35207\include\xtree

; 1384 :         const _Tree_find_result<_Nodeptr> _Loc = _Find_lower_bound(_Keyval);

  0000a	8d 45 f4	 lea	 eax, DWORD PTR __Loc$1[ebp]
; File C:\IAGOS\server\v18\Source\Source\_Common\CreateMonster.cpp

; 81   : {

  0000d	57		 push	 edi

; 82   : 	MAPPROP::iterator it = m_mapCreateMonsterProp.find( pItemElem->m_dwItemId );

  0000e	83 c6 0c	 add	 esi, 12			; 0000000cH
  00011	8d 79 04	 lea	 edi, DWORD PTR [ecx+4]
; File C:\Program Files\Microsoft Visual Studio\2022\Professional\VC\Tools\MSVC\14.44.35207\include\xtree

; 1384 :         const _Tree_find_result<_Nodeptr> _Loc = _Find_lower_bound(_Keyval);

  00014	56		 push	 esi
  00015	50		 push	 eax
  00016	8b cf		 mov	 ecx, edi
  00018	e8 00 00 00 00	 call	 ??$_Find_lower_bound@K@?$_Tree@V?$_Tmap_traits@KPAUCREATE_MONSTER_PROP@@U?$less@K@std@@V?$allocator@U?$pair@$$CBKPAUCREATE_MONSTER_PROP@@@std@@@3@$0A@@std@@@std@@IBE?AU?$_Tree_find_result@PAU?$_Tree_node@U?$pair@$$CBKPAUCREATE_MONSTER_PROP@@@std@@PAX@std@@@1@ABK@Z ; std::_Tree<std::_Tmap_traits<unsigned long,CREATE_MONSTER_PROP *,std::less<unsigned long>,std::allocator<std::pair<unsigned long const ,CREATE_MONSTER_PROP *> >,0> >::_Find_lower_bound<unsigned long>

; 1624 :         return !_Bound->_Isnil && !_DEBUG_LT_PRED(_Getcomp(), _Keyval, _Traits::_Kfn(_Bound->_Myval));

  0001d	8b 45 fc	 mov	 eax, DWORD PTR __Loc$1[ebp+8]
  00020	80 78 0d 00	 cmp	 BYTE PTR [eax+13], 0
  00024	75 16		 jne	 SHORT $LN50@GetCreateM
; File C:\Program Files\Microsoft Visual Studio\2022\Professional\VC\Tools\MSVC\14.44.35207\include\type_traits

; 2380 :         return _Left < _Right;

  00026	8b 0e		 mov	 ecx, DWORD PTR [esi]
  00028	3b 48 10	 cmp	 ecx, DWORD PTR [eax+16]
; File C:\Program Files\Microsoft Visual Studio\2022\Professional\VC\Tools\MSVC\14.44.35207\include\xtree

; 1624 :         return !_Bound->_Isnil && !_DEBUG_LT_PRED(_Getcomp(), _Keyval, _Traits::_Kfn(_Bound->_Myval));

  0002b	72 0f		 jb	 SHORT $LN50@GetCreateM

; 37   :     _Tree_unchecked_const_iterator(_Nodeptr _Pnode, const _Mytree* _Plist) noexcept : _Ptr(_Pnode) {

  0002d	3b 07		 cmp	 eax, DWORD PTR [edi]
; File C:\IAGOS\server\v18\Source\Source\_Common\CreateMonster.cpp

; 83   : 	if( it == m_mapCreateMonsterProp.end() )

  0002f	74 0b		 je	 SHORT $LN50@GetCreateM

; 85   : 
; 86   : 	return it->second;

  00031	8b 40 14	 mov	 eax, DWORD PTR [eax+20]
  00034	5f		 pop	 edi

; 87   : }

  00035	5e		 pop	 esi
  00036	8b e5		 mov	 esp, ebp
  00038	5d		 pop	 ebp
  00039	c2 04 00	 ret	 4
$LN50@GetCreateM:
  0003c	5f		 pop	 edi

; 84   :         return NULL;

  0003d	33 c0		 xor	 eax, eax

; 87   : }

  0003f	5e		 pop	 esi
  00040	8b e5		 mov	 esp, ebp
  00042	5d		 pop	 ebp
  00043	c2 04 00	 ret	 4
?GetCreateMonsterProp@CCreateMonster@@AAEPAUCREATE_MONSTER_PROP@@PAVCItemElem@@@Z ENDP ; CCreateMonster::GetCreateMonsterProp
_TEXT	ENDS
; Function compile flags: /Ogtp
; File C:\IAGOS\server\v18\Source\Source\_Common\CreateMonster.cpp
; File C:\Program Files\Microsoft Visual Studio\2022\Professional\VC\Tools\MSVC\14.44.35207\include\xtree
; File C:\IAGOS\server\v18\Source\Source\_Common\CreateMonster.cpp
; File C:\Program Files\Microsoft Visual Studio\2022\Professional\VC\Tools\MSVC\14.44.35207\include\xtree
; File C:\Program Files\Microsoft Visual Studio\2022\Professional\VC\Tools\MSVC\14.44.35207\include\type_traits
; File C:\Program Files\Microsoft Visual Studio\2022\Professional\VC\Tools\MSVC\14.44.35207\include\xtree
; File C:\IAGOS\server\v18\Source\Source\_Common\CreateMonster.cpp
; File C:\Program Files\Microsoft Visual Studio\2022\Professional\VC\Tools\MSVC\14.44.35207\include\xtree
; File C:\Program Files\Microsoft Visual Studio\2022\Professional\VC\Tools\MSVC\14.44.35207\include\xmemory
; File C:\IAGOS\server\v18\Source\Source\_Common\CreateMonster.cpp
;	COMDAT ?RemoveInfo@CCreateMonster@@QAEXPAVCMover@@@Z
_TEXT	SEGMENT
_createMonsterInfo$ = -352				; size = 12
__Loc$1 = -352						; size = 12
_pMover$GSCopy$1$ = -340				; size = 4
$T2 = -336						; size = 4
_aLogItem$3 = -332					; size = 200
_szTemp$4 = -132					; size = 128
__$ArrayPad$ = -4					; size = 4
_pMover$ = 8						; size = 4
?RemoveInfo@CCreateMonster@@QAEXPAVCMover@@@Z PROC	; CCreateMonster::RemoveInfo, COMDAT
; _this$ = ecx

; 221  : {

  00000	55		 push	 ebp
  00001	8b ec		 mov	 ebp, esp
  00003	81 ec 60 01 00
	00		 sub	 esp, 352		; 00000160H
  00009	a1 00 00 00 00	 mov	 eax, DWORD PTR ___security_cookie
  0000e	33 c5		 xor	 eax, ebp
  00010	89 45 fc	 mov	 DWORD PTR __$ArrayPad$[ebp], eax
  00013	8b 45 08	 mov	 eax, DWORD PTR _pMover$[ebp]
  00016	53		 push	 ebx
  00017	56		 push	 esi
  00018	57		 push	 edi

; 222  : 	MAPINFO::iterator it=m_mapCreateMonsterInfo.find( pMover->GetId() );

  00019	8b 98 bc 01 00
	00		 mov	 ebx, DWORD PTR [eax+444]
  0001f	8d 79 0c	 lea	 edi, DWORD PTR [ecx+12]
  00022	89 85 ac fe ff
	ff		 mov	 DWORD PTR _pMover$GSCopy$1$[ebp], eax
; File C:\Program Files\Microsoft Visual Studio\2022\Professional\VC\Tools\MSVC\14.44.35207\include\xtree

; 1384 :         const _Tree_find_result<_Nodeptr> _Loc = _Find_lower_bound(_Keyval);

  00028	8b cf		 mov	 ecx, edi
  0002a	8d 85 b0 fe ff
	ff		 lea	 eax, DWORD PTR $T2[ebp]
; File C:\IAGOS\server\v18\Source\Source\_Common\CreateMonster.cpp

; 222  : 	MAPINFO::iterator it=m_mapCreateMonsterInfo.find( pMover->GetId() );

  00030	89 9d b0 fe ff
	ff		 mov	 DWORD PTR $T2[ebp], ebx
; File C:\Program Files\Microsoft Visual Studio\2022\Professional\VC\Tools\MSVC\14.44.35207\include\xtree

; 1384 :         const _Tree_find_result<_Nodeptr> _Loc = _Find_lower_bound(_Keyval);

  00036	50		 push	 eax
  00037	8d 85 a0 fe ff
	ff		 lea	 eax, DWORD PTR __Loc$1[ebp]
  0003d	50		 push	 eax
  0003e	e8 00 00 00 00	 call	 ??$_Find_lower_bound@K@?$_Tree@V?$_Tmap_traits@KUCREATE_MONSTER_INFO@@U?$less@K@std@@V?$allocator@U?$pair@$$CBKUCREATE_MONSTER_INFO@@@std@@@3@$0A@@std@@@std@@IBE?AU?$_Tree_find_result@PAU?$_Tree_node@U?$pair@$$CBKUCREATE_MONSTER_INFO@@@std@@PAX@std@@@1@ABK@Z ; std::_Tree<std::_Tmap_traits<unsigned long,CREATE_MONSTER_INFO,std::less<unsigned long>,std::allocator<std::pair<unsigned long const ,CREATE_MONSTER_INFO> >,0> >::_Find_lower_bound<unsigned long>

; 1624 :         return !_Bound->_Isnil && !_DEBUG_LT_PRED(_Getcomp(), _Keyval, _Traits::_Kfn(_Bound->_Myval));

  00043	8b b5 a8 fe ff
	ff		 mov	 esi, DWORD PTR __Loc$1[ebp+8]
  00049	80 7e 0d 00	 cmp	 BYTE PTR [esi+13], 0
  0004d	0f 85 05 01 00
	00		 jne	 $LN95@RemoveInfo
; File C:\Program Files\Microsoft Visual Studio\2022\Professional\VC\Tools\MSVC\14.44.35207\include\type_traits

; 2380 :         return _Left < _Right;

  00053	3b 5e 10	 cmp	 ebx, DWORD PTR [esi+16]
; File C:\Program Files\Microsoft Visual Studio\2022\Professional\VC\Tools\MSVC\14.44.35207\include\xtree

; 1624 :         return !_Bound->_Isnil && !_DEBUG_LT_PRED(_Getcomp(), _Keyval, _Traits::_Kfn(_Bound->_Myval));

  00056	0f 82 fc 00 00
	00		 jb	 $LN95@RemoveInfo

; 37   :     _Tree_unchecked_const_iterator(_Nodeptr _Pnode, const _Mytree* _Plist) noexcept : _Ptr(_Pnode) {

  0005c	3b 37		 cmp	 esi, DWORD PTR [edi]
; File C:\IAGOS\server\v18\Source\Source\_Common\CreateMonster.cpp

; 223  : 	if( it == m_mapCreateMonsterInfo.end() )

  0005e	0f 84 f4 00 00
	00		 je	 $LN95@RemoveInfo

; 224  : 		return;
; 225  : 	
; 226  : 	CREATE_MONSTER_INFO createMonsterInfo = it->second;

  00064	f3 0f 7e 46 14	 movq	 xmm0, QWORD PTR [esi+20]

; 227  : 	if( pMover )
; 228  : 	{
; 229  : 		LogItemInfo aLogItem;

  00069	8d 8d b4 fe ff
	ff		 lea	 ecx, DWORD PTR _aLogItem$3[ebp]
  0006f	8b 46 1c	 mov	 eax, DWORD PTR [esi+28]
  00072	66 0f d6 85 a0
	fe ff ff	 movq	 QWORD PTR _createMonsterInfo$[ebp], xmm0
  0007a	89 85 a8 fe ff
	ff		 mov	 DWORD PTR _createMonsterInfo$[ebp+8], eax
  00080	e8 00 00 00 00	 call	 ??0_LogItemInfo@@QAE@XZ	; _LogItemInfo::_LogItemInfo

; 230  : 		aLogItem.Action = "i";
; 231  : 		aLogItem.SendName = CPlayerDataCenter::GetInstance()->GetPlayerString( createMonsterInfo.dwOwnerId );

  00085	ff b5 a0 fe ff
	ff		 push	 DWORD PTR _createMonsterInfo$[ebp]
  0008b	c7 85 b4 fe ff
	ff 00 00 00 00	 mov	 DWORD PTR _aLogItem$3[ebp], OFFSET ??_C@_01KBJDNOO@i@
  00095	e8 00 00 00 00	 call	 ?GetInstance@CPlayerDataCenter@@SAPAV1@XZ ; CPlayerDataCenter::GetInstance
  0009a	8b c8		 mov	 ecx, eax
  0009c	e8 00 00 00 00	 call	 ?GetPlayerString@CPlayerDataCenter@@QAEPBDK@Z ; CPlayerDataCenter::GetPlayerString

; 232  : 		char szTemp[128] = {0,};

  000a1	68 80 00 00 00	 push	 128			; 00000080H
  000a6	89 85 b8 fe ff
	ff		 mov	 DWORD PTR _aLogItem$3[ebp+4], eax
  000ac	8d 85 7c ff ff
	ff		 lea	 eax, DWORD PTR _szTemp$4[ebp]
  000b2	6a 00		 push	 0
  000b4	50		 push	 eax
  000b5	e8 00 00 00 00	 call	 _memset

; 233  : 		sprintf( szTemp, "M_%c_%s", createMonsterInfo.chState, pMover->GetName() ); 

  000ba	8b 9d ac fe ff
	ff		 mov	 ebx, DWORD PTR _pMover$GSCopy$1$[ebp]
  000c0	83 c4 0c	 add	 esp, 12			; 0000000cH
  000c3	8b cb		 mov	 ecx, ebx
  000c5	6a 00		 push	 0
  000c7	e8 00 00 00 00	 call	 ?GetName@CMover@@QAEPBDH@Z ; CMover::GetName
  000cc	50		 push	 eax
  000cd	0f be 85 a8 fe
	ff ff		 movsx	 eax, BYTE PTR _createMonsterInfo$[ebp+8]
  000d4	50		 push	 eax
  000d5	8d 85 7c ff ff
	ff		 lea	 eax, DWORD PTR _szTemp$4[ebp]
  000db	68 00 00 00 00	 push	 OFFSET ??_C@_07NNNBEGCG@M_?$CFc_?$CFs@
  000e0	50		 push	 eax
  000e1	e8 00 00 00 00	 call	 _sprintf

; 234  : 		memset( szTemp+31, 0, sizeof(szTemp)-31 );

  000e6	6a 61		 push	 97			; 00000061H
  000e8	8d 45 9b	 lea	 eax, DWORD PTR _szTemp$4[ebp+31]
  000eb	6a 00		 push	 0
  000ed	50		 push	 eax
  000ee	e8 00 00 00 00	 call	 _memset

; 235  : 		aLogItem.RecvName = szTemp;

  000f3	8d 85 7c ff ff
	ff		 lea	 eax, DWORD PTR _szTemp$4[ebp]

; 236  : 		aLogItem.Gold = aLogItem.Gold2 = 0;

  000f9	c7 85 c8 fe ff
	ff 00 00 00 00	 mov	 DWORD PTR _aLogItem$3[ebp+20], 0
  00103	89 85 bc fe ff
	ff		 mov	 DWORD PTR _aLogItem$3[ebp+8], eax
  00109	83 c4 1c	 add	 esp, 28			; 0000001cH

; 237  : 		aLogItem.Gold_1 = pMover->GetId();

  0010c	8b 83 bc 01 00
	00		 mov	 eax, DWORD PTR [ebx+444]

; 238  : 		aLogItem.WorldId = pMover->GetWorld()->GetID();
; 239  : 		g_DPSrvr.OnLogItem( aLogItem );

  00112	b9 00 00 00 00	 mov	 ecx, OFFSET ?g_DPSrvr@@3VCDPSrvr@@A ; g_DPSrvr
  00117	89 85 00 ff ff
	ff		 mov	 DWORD PTR _aLogItem$3[ebp+76], eax
  0011d	8b 83 6c 01 00
	00		 mov	 eax, DWORD PTR [ebx+364]
  00123	c7 85 c4 fe ff
	ff 00 00 00 00	 mov	 DWORD PTR _aLogItem$3[ebp+16], 0
  0012d	6a 00		 push	 0
  0012f	6a 00		 push	 0
  00131	8b 00		 mov	 eax, DWORD PTR [eax]
  00133	89 85 c0 fe ff
	ff		 mov	 DWORD PTR _aLogItem$3[ebp+12], eax
  00139	8d 85 b4 fe ff
	ff		 lea	 eax, DWORD PTR _aLogItem$3[ebp]
  0013f	50		 push	 eax
  00140	e8 00 00 00 00	 call	 ?OnLogItem@CDPSrvr@@QAEXAAU_LogItemInfo@@PAVCItemElem@@H@Z ; CDPSrvr::OnLogItem
; File C:\Program Files\Microsoft Visual Studio\2022\Professional\VC\Tools\MSVC\14.44.35207\include\xtree

; 1303 :         _Nodeptr _Erasednode = _Scary->_Extract(_Where); // node to erase

  00145	56		 push	 esi
  00146	8b cf		 mov	 ecx, edi
  00148	e8 00 00 00 00	 call	 ?_Extract@?$_Tree_val@U?$_Tree_simple_types@U?$pair@$$CBKUCREATE_MONSTER_INFO@@@std@@@std@@@std@@QAEPAU?$_Tree_node@U?$pair@$$CBKUCREATE_MONSTER_INFO@@@std@@PAX@2@V?$_Tree_unchecked_const_iterator@V?$_Tree_val@U?$_Tree_simple_types@U?$pair@$$CBKUCREATE_MONSTER_INFO@@@std@@@std@@@std@@U_Iterator_base0@2@@2@@Z ; std::_Tree_val<std::_Tree_simple_types<std::pair<unsigned long const ,CREATE_MONSTER_INFO> > >::_Extract
; File C:\Program Files\Microsoft Visual Studio\2022\Professional\VC\Tools\MSVC\14.44.35207\include\xmemory

; 289  :         ::operator delete(_Ptr, _Bytes);

  0014d	6a 20		 push	 32			; 00000020H
  0014f	50		 push	 eax
  00150	e8 00 00 00 00	 call	 ??3@YAXPAXI@Z		; operator delete
  00155	83 c4 08	 add	 esp, 8
$LN95@RemoveInfo:
; File C:\IAGOS\server\v18\Source\Source\_Common\CreateMonster.cpp

; 243  : }

  00158	8b 4d fc	 mov	 ecx, DWORD PTR __$ArrayPad$[ebp]
  0015b	5f		 pop	 edi
  0015c	5e		 pop	 esi
  0015d	33 cd		 xor	 ecx, ebp
  0015f	5b		 pop	 ebx
  00160	e8 00 00 00 00	 call	 @__security_check_cookie@4
  00165	8b e5		 mov	 esp, ebp
  00167	5d		 pop	 ebp
  00168	c2 04 00	 ret	 4
?RemoveInfo@CCreateMonster@@QAEXPAVCMover@@@Z ENDP	; CCreateMonster::RemoveInfo
_TEXT	ENDS
; Function compile flags: /Ogtp
; File C:\IAGOS\server\v18\Source\Source\_Common\CreateMonster.cpp
; File C:\IAGOS\server\v18\Source\Source\_Common\xUtil.h
; File C:\Program Files\Microsoft Visual Studio\2022\Professional\VC\Tools\MSVC\14.44.35207\include\xtree
; File C:\IAGOS\server\v18\Source\Source\_Common\xUtil.h
; File C:\Program Files\Microsoft Visual Studio\2022\Professional\VC\Tools\MSVC\14.44.35207\include\xtree
; File C:\IAGOS\server\v18\Source\Source\_Common\CreateMonster.h
; File C:\Program Files\Microsoft Visual Studio\2022\Professional\VC\Tools\MSVC\14.44.35207\include\xtree
; File C:\IAGOS\server\v18\Source\Source\_Common\CreateMonster.h
; File C:\IAGOS\server\v18\Source\Source\_Common\CreateMonster.cpp
; File C:\IAGOS\server\v18\Source\Source\_Common\Project.h
; File C:\IAGOS\server\v18\Source\Source\_Common\CreateMonster.cpp
; File C:\IAGOS\server\v18\Source\Source\_Common\Obj.h
; File C:\IAGOS\server\v18\Source\Source\DX_SDK\d3dx9math.inl
; File C:\IAGOS\server\v18\Source\Source\_Common\Obj.h
; File C:\IAGOS\server\v18\Source\Source\DX_SDK\d3dx9math.inl
; File C:\Program Files (x86)\Windows Kits\10\Include\10.0.26100.0\ucrt\corecrt_math.h
; File C:\IAGOS\server\v18\Source\Source\_Common\CreateMonster.cpp
; File C:\Program Files\Microsoft Visual Studio\2022\Professional\VC\Tools\MSVC\14.44.35207\include\utility
; File C:\IAGOS\server\v18\Source\Source\_Common\CreateMonster.cpp
; File C:\Program Files\Microsoft Visual Studio\2022\Professional\VC\Tools\MSVC\14.44.35207\include\utility
; File C:\IAGOS\server\v18\Source\Source\_Common\CreateMonster.cpp
; File C:\Program Files\Microsoft Visual Studio\2022\Professional\VC\Tools\MSVC\14.44.35207\include\utility
; File C:\IAGOS\server\v18\Source\Source\_Common\CreateMonster.cpp
; File C:\Program Files\Microsoft Visual Studio\2022\Professional\VC\Tools\MSVC\14.44.35207\include\utility
; File C:\Program Files\Microsoft Visual Studio\2022\Professional\VC\Tools\MSVC\14.44.35207\include\xtree
; File C:\Program Files\Microsoft Visual Studio\2022\Professional\VC\Tools\MSVC\14.44.35207\include\utility
; File C:\Program Files\Microsoft Visual Studio\2022\Professional\VC\Tools\MSVC\14.44.35207\include\xtree
; File C:\Program Files\Microsoft Visual Studio\2022\Professional\VC\Tools\MSVC\14.44.35207\include\type_traits
; File C:\Program Files\Microsoft Visual Studio\2022\Professional\VC\Tools\MSVC\14.44.35207\include\xtree
; File C:\Program Files\Microsoft Visual Studio\2022\Professional\VC\Tools\MSVC\14.44.35207\include\xmemory
; File C:\Program Files\Microsoft Visual Studio\2022\Professional\VC\Tools\MSVC\14.44.35207\include\xtree
; File C:\Program Files\Microsoft Visual Studio\2022\Professional\VC\Tools\MSVC\14.44.35207\include\xmemory
; File C:\Program Files\Microsoft Visual Studio\2022\Professional\VC\Tools\MSVC\14.44.35207\include\utility
; File C:\Program Files\Microsoft Visual Studio\2022\Professional\VC\Tools\MSVC\14.44.35207\include\xmemory
; File C:\Program Files\Microsoft Visual Studio\2022\Professional\VC\Tools\MSVC\14.44.35207\include\utility
; File C:\Program Files\Microsoft Visual Studio\2022\Professional\VC\Tools\MSVC\14.44.35207\include\xtree
; File C:\Program Files\Microsoft Visual Studio\2022\Professional\VC\Tools\MSVC\14.44.35207\include\utility
; File C:\Program Files\Microsoft Visual Studio\2022\Professional\VC\Tools\MSVC\14.44.35207\include\xtree
; File C:\Program Files\Microsoft Visual Studio\2022\Professional\VC\Tools\MSVC\14.44.35207\include\utility
; File C:\IAGOS\server\v18\Source\Source\_Common\CreateMonster.cpp
; File C:\Program Files\Microsoft Visual Studio\2022\Professional\VC\Tools\MSVC\14.44.35207\include\xtree
; File C:\IAGOS\server\v18\Source\Source\_Common\CreateMonster.cpp
;	COMDAT ?CreateMonster@CCreateMonster@@QAEXPAVCUser@@KUD3DXVECTOR3@@@Z
_TEXT	SEGMENT
$T2 = -400						; size = 12
$T3 = -396						; size = 8
_this$GSCopy$1$ = -392					; size = 4
$T4 = -388						; size = 16
__Loc$5 = -384						; size = 12
_pCreateMonsterProp$1$ = -372				; size = 4
_dwObjId$GSCopy$1$ = -368				; size = 4
_pItemElem$1$ = -364					; size = 4
$T6 = -360						; size = 12
_createMonsterInfo$7 = -360				; size = 12
_pObj$1$ = -348						; size = 4
_aLogItem$8 = -344					; size = 200
_szTemp$9 = -144					; size = 128
__$ArrayPad$ = -16					; size = 4
__$EHRec$ = -12						; size = 12
_pUser$ = 8						; size = 4
_dwObjId$ = 12						; size = 4
_vPos$ = 16						; size = 12
?CreateMonster@CCreateMonster@@QAEXPAVCUser@@KUD3DXVECTOR3@@@Z PROC ; CCreateMonster::CreateMonster, COMDAT
; _this$ = ecx

; 138  : {

  00000	55		 push	 ebp
  00001	8b ec		 mov	 ebp, esp
  00003	6a ff		 push	 -1
  00005	68 00 00 00 00	 push	 __ehhandler$?CreateMonster@CCreateMonster@@QAEXPAVCUser@@KUD3DXVECTOR3@@@Z
  0000a	64 a1 00 00 00
	00		 mov	 eax, DWORD PTR fs:0
  00010	50		 push	 eax
  00011	81 ec 84 01 00
	00		 sub	 esp, 388		; 00000184H
  00017	a1 00 00 00 00	 mov	 eax, DWORD PTR ___security_cookie
  0001c	33 c5		 xor	 eax, ebp
  0001e	89 45 f0	 mov	 DWORD PTR __$ArrayPad$[ebp], eax
  00021	53		 push	 ebx
  00022	56		 push	 esi
  00023	57		 push	 edi
  00024	50		 push	 eax
  00025	8d 45 f4	 lea	 eax, DWORD PTR __$EHRec$[ebp]
  00028	64 a3 00 00 00
	00		 mov	 DWORD PTR fs:0, eax
  0002e	8b d9		 mov	 ebx, ecx
  00030	89 9d 78 fe ff
	ff		 mov	 DWORD PTR _this$GSCopy$1$[ebp], ebx

; 139  : 	if( (int)( m_mapCreateMonsterInfo.size() ) >= m_nMaxCreateNum )

  00036	8b 43 10	 mov	 eax, DWORD PTR [ebx+16]
  00039	8b 4d 0c	 mov	 ecx, DWORD PTR _dwObjId$[ebp]
  0003c	8b 7d 08	 mov	 edi, DWORD PTR _pUser$[ebp]
  0003f	89 8d 90 fe ff
	ff		 mov	 DWORD PTR _dwObjId$GSCopy$1$[ebp], ecx
  00045	3b 03		 cmp	 eax, DWORD PTR [ebx]
  00047	7c 0a		 jl	 SHORT $LN2@CreateMons

; 140  : 	{
; 141  : 		pUser->AddDefinedText( TID_GAME_CREATEMON_LIMIT );

  00049	68 79 0f 00 00	 push	 3961			; 00000f79H

; 142  : 		return;

  0004e	e9 2b 04 00 00	 jmp	 $LN279@CreateMons
$LN2@CreateMons:

; 143  : 	}
; 144  : 	
; 145  : 	CItemElem* pItemElem = pUser->m_Inventory.GetAtId( dwObjId );

  00053	51		 push	 ecx
  00054	8d 8f fc 0a 00
	00		 lea	 ecx, DWORD PTR [edi+2812]
  0005a	e8 00 00 00 00	 call	 ?GetAtId@?$CItemContainer@VCItemElem@@@@QAEPAVCItemElem@@K@Z ; CItemContainer<CItemElem>::GetAtId
  0005f	8b f0		 mov	 esi, eax

; 146  : 	if( !IsUsableItem( pItemElem ) )

  00061	56		 push	 esi
  00062	89 b5 94 fe ff
	ff		 mov	 DWORD PTR _pItemElem$1$[ebp], esi
  00068	e8 00 00 00 00	 call	 ?IsUsableItem@@YAHPAVCItemBase@@@Z ; IsUsableItem
  0006d	83 c4 04	 add	 esp, 4
  00070	85 c0		 test	 eax, eax
  00072	0f 84 0d 04 00
	00		 je	 $LN253@CreateMons

; 147  : 		return;
; 148  : 
; 149  : 	CREATE_MONSTER_PROP* pCreateMonsterProp = GetCreateMonsterProp( pItemElem );

  00078	56		 push	 esi
  00079	8b cb		 mov	 ecx, ebx
  0007b	e8 00 00 00 00	 call	 ?GetCreateMonsterProp@CCreateMonster@@AAEPAUCREATE_MONSTER_PROP@@PAVCItemElem@@@Z ; CCreateMonster::GetCreateMonsterProp
  00080	8b d8		 mov	 ebx, eax
  00082	89 9d 8c fe ff
	ff		 mov	 DWORD PTR _pCreateMonsterProp$1$[ebp], ebx

; 150  : 	if( !pCreateMonsterProp )

  00088	85 db		 test	 ebx, ebx
  0008a	0f 84 f5 03 00
	00		 je	 $LN253@CreateMons
; File C:\IAGOS\server\v18\Source\Source\_Common\xUtil.h

; 16   : 	g_next = g_next * 1103515245 + 12345;// + nRandomSeed[ i++ ];

  00090	69 35 00 00 00
	00 6d 4e c6 41	 imul	 esi, DWORD PTR ?g_next@@3KA, 1103515245 ; g_next

; 22   : 	return  xRand() % num;

  0009a	b8 1f 85 eb 51	 mov	 eax, 1374389535		; 51eb851fH

; 16   : 	g_next = g_next * 1103515245 + 12345;// + nRandomSeed[ i++ ];

  0009f	81 c6 39 30 00
	00		 add	 esi, 12345		; 00003039H

; 22   : 	return  xRand() % num;

  000a5	f7 e6		 mul	 esi

; 16   : 	g_next = g_next * 1103515245 + 12345;// + nRandomSeed[ i++ ];

  000a7	89 35 00 00 00
	00		 mov	 DWORD PTR ?g_next@@3KA, esi ; g_next
; File C:\Program Files\Microsoft Visual Studio\2022\Professional\VC\Tools\MSVC\14.44.35207\include\xtree

; 1142 :         return iterator(_Scary->_Myhead->_Left, _Scary);

  000ad	8b 5b 04	 mov	 ebx, DWORD PTR [ebx+4]
; File C:\IAGOS\server\v18\Source\Source\_Common\xUtil.h

; 22   : 	return  xRand() % num;

  000b0	c1 ea 05	 shr	 edx, 5
  000b3	6b c2 64	 imul	 eax, edx, 100
  000b6	2b f0		 sub	 esi, eax
; File C:\Program Files\Microsoft Visual Studio\2022\Professional\VC\Tools\MSVC\14.44.35207\include\xtree

; 37   :     _Tree_unchecked_const_iterator(_Nodeptr _Pnode, const _Mytree* _Plist) noexcept : _Ptr(_Pnode) {

  000b8	8b 03		 mov	 eax, DWORD PTR [ebx]

; 237  :         return !(*this == _Right);

  000ba	3b c3		 cmp	 eax, ebx
; File C:\IAGOS\server\v18\Source\Source\_Common\CreateMonster.h

; 17   : 		for( ; it!=mapMonster.end(); it++ )

  000bc	0f 84 c3 03 00
	00		 je	 $LN253@CreateMons
$LL17@CreateMons:

; 18   : 		{
; 19   : 			if( nRandom < it->second )

  000c2	8b 48 14	 mov	 ecx, DWORD PTR [eax+20]
  000c5	3b f1		 cmp	 esi, ecx
  000c7	7c 4c		 jl	 SHORT $LN271@CreateMons

; 20   : 				break;
; 21   : 			nRandom -= it->second;

  000c9	2b f1		 sub	 esi, ecx
; File C:\Program Files\Microsoft Visual Studio\2022\Professional\VC\Tools\MSVC\14.44.35207\include\xtree

; 50   :         if (_Ptr->_Right->_Isnil) { // climb looking for right subtree

  000cb	8b 48 08	 mov	 ecx, DWORD PTR [eax+8]
  000ce	80 79 0d 00	 cmp	 BYTE PTR [ecx+13], 0
  000d2	74 20		 je	 SHORT $LN47@CreateMons

; 51   :             _Nodeptr _Pnode;
; 52   :             while (!(_Pnode = _Ptr->_Parent)->_Isnil && _Ptr == _Pnode->_Right) {

  000d4	8b 48 04	 mov	 ecx, DWORD PTR [eax+4]
  000d7	80 79 0d 00	 cmp	 BYTE PTR [ecx+13], 0
  000db	75 13		 jne	 SHORT $LN274@CreateMons
  000dd	0f 1f 00	 npad	 3
$LL45@CreateMons:
  000e0	3b 41 08	 cmp	 eax, DWORD PTR [ecx+8]
  000e3	75 0b		 jne	 SHORT $LN274@CreateMons

; 53   :                 _Ptr = _Pnode; // ==> parent while right subtree

  000e5	8b c1		 mov	 eax, ecx
  000e7	8b 49 04	 mov	 ecx, DWORD PTR [ecx+4]
  000ea	80 79 0d 00	 cmp	 BYTE PTR [ecx+13], 0
  000ee	74 f0		 je	 SHORT $LL45@CreateMons
$LN274@CreateMons:

; 54   :             }
; 55   : 
; 56   :             _Ptr = _Pnode; // ==> parent (head if end())

  000f0	8b c1		 mov	 eax, ecx

; 57   :         } else {

  000f2	eb 18		 jmp	 SHORT $LN53@CreateMons
$LN47@CreateMons:

; 58   :             _Ptr = _Mytree::_Min(_Ptr->_Right); // ==> smallest of right subtree

  000f4	8b c1		 mov	 eax, ecx

; 476  :         while (!_Pnode->_Left->_Isnil) {

  000f6	8b 10		 mov	 edx, DWORD PTR [eax]
  000f8	80 7a 0d 00	 cmp	 BYTE PTR [edx+13], 0
  000fc	75 0e		 jne	 SHORT $LN53@CreateMons
  000fe	66 90		 npad	 2
$LL52@CreateMons:
  00100	8b 0a		 mov	 ecx, DWORD PTR [edx]

; 477  :             _Pnode = _Pnode->_Left;

  00102	8b c2		 mov	 eax, edx
  00104	8b d1		 mov	 edx, ecx
  00106	80 79 0d 00	 cmp	 BYTE PTR [ecx+13], 0
  0010a	74 f4		 je	 SHORT $LL52@CreateMons
$LN53@CreateMons:

; 237  :         return !(*this == _Right);

  0010c	3b c3		 cmp	 eax, ebx
; File C:\IAGOS\server\v18\Source\Source\_Common\CreateMonster.h

; 17   : 		for( ; it!=mapMonster.end(); it++ )

  0010e	75 b2		 jne	 SHORT $LL17@CreateMons
  00110	e9 70 03 00 00	 jmp	 $LN253@CreateMons
$LN271@CreateMons:

; 22   : 		}
; 23   : 
; 24   : 		return it!=mapMonster.end() ? it->first : NULL_ID;

  00115	8b 40 10	 mov	 eax, DWORD PTR [eax+16]
; File C:\IAGOS\server\v18\Source\Source\_Common\CreateMonster.cpp

; 154  : 	if( dwMonsterId == NULL_ID )

  00118	83 f8 ff	 cmp	 eax, -1
  0011b	0f 84 64 03 00
	00		 je	 $LN253@CreateMons

; 155  : 		return;
; 156  : 
; 157  : 	CWorld* pWorld = pUser->GetWorld();

  00121	8b 9f 6c 01 00
	00		 mov	 ebx, DWORD PTR [edi+364]
; File C:\IAGOS\server\v18\Source\Source\_Common\Project.h

; 1406 : 	VERIFY_RANGE( nIndex, 0, m_nMoverPropSize, "GetMoverProp range_error", NULL );

  00127	8b 0d b4 01 00
	00		 mov	 ecx, DWORD PTR ?prj@@3VCProject@@A+436
  0012d	85 c0		 test	 eax, eax
  0012f	78 12		 js	 SHORT $LN124@CreateMons
  00131	3b c1		 cmp	 eax, ecx
  00133	7d 0e		 jge	 SHORT $LN124@CreateMons

; 1407 : 	return m_pPropMover + nIndex;

  00135	69 f0 90 06 00
	00		 imul	 esi, eax, 1680
  0013b	03 35 b8 01 00
	00		 add	 esi, DWORD PTR ?prj@@3VCProject@@A+440
  00141	eb 18		 jmp	 SHORT $LN119@CreateMons
$LN124@CreateMons:

; 579  : 	LPCTSTR szErr = Error( _T( "%s min:%d, max:%d, index:%d" ), szMsg, nMin, nMax, nIndex ); 

  00143	50		 push	 eax
  00144	51		 push	 ecx
  00145	6a 00		 push	 0
  00147	68 00 00 00 00	 push	 OFFSET ??_C@_0BJ@GKPOBPPI@GetMoverProp?5range_error@
  0014c	68 00 00 00 00	 push	 OFFSET ??_C@_0BM@HMFGHCP@?$CFs?5min?3?$CFd?0?5max?3?$CFd?0?5index?3?$CFd@
  00151	e8 00 00 00 00	 call	 ?Error@@YAPBDPBDZZ	; Error
  00156	83 c4 14	 add	 esp, 20			; 00000014H

; 1406 : 	VERIFY_RANGE( nIndex, 0, m_nMoverPropSize, "GetMoverProp range_error", NULL );

  00159	33 f6		 xor	 esi, esi
$LN119@CreateMons:
; File C:\IAGOS\server\v18\Source\Source\_Common\CreateMonster.cpp

; 160  : 	if( pWorld && pMoverProp && pMoverProp->dwID != 0 )

  0015b	85 db		 test	 ebx, ebx
  0015d	0f 84 22 03 00
	00		 je	 $LN253@CreateMons
  00163	85 f6		 test	 esi, esi
  00165	0f 84 1a 03 00
	00		 je	 $LN253@CreateMons
  0016b	83 3e 00	 cmp	 DWORD PTR [esi], 0
  0016e	0f 84 11 03 00
	00		 je	 $LN253@CreateMons
; File C:\IAGOS\server\v18\Source\Source\_Common\Obj.h

; 215  : 	D3DXVECTOR3		GetPos()	{ return m_vPos; }

  00174	f3 0f 7e 87 60
	01 00 00	 movq	 xmm0, QWORD PTR [edi+352]
  0017c	8b 87 68 01 00
	00		 mov	 eax, DWORD PTR [edi+360]
  00182	66 0f d6 85 98
	fe ff ff	 movq	 QWORD PTR $T6[ebp], xmm0
; File C:\IAGOS\server\v18\Source\Source\DX_SDK\d3dx9math.inl

; 383  :     return D3DXVECTOR3(x - v.x, y - v.y, z - v.z);

  0018a	f3 0f 10 8d 98
	fe ff ff	 movss	 xmm1, DWORD PTR $T6[ebp]
  00192	f3 0f 10 95 9c
	fe ff ff	 movss	 xmm2, DWORD PTR $T6[ebp+4]
  0019a	f3 0f 5c 55 14	 subss	 xmm2, DWORD PTR _vPos$[ebp+4]
  0019f	f3 0f 5c 4d 10	 subss	 xmm1, DWORD PTR _vPos$[ebp]
; File C:\IAGOS\server\v18\Source\Source\_Common\Obj.h

; 215  : 	D3DXVECTOR3		GetPos()	{ return m_vPos; }

  001a4	89 85 a0 fe ff
	ff		 mov	 DWORD PTR $T6[ebp+8], eax
; File C:\IAGOS\server\v18\Source\Source\DX_SDK\d3dx9math.inl

; 383  :     return D3DXVECTOR3(x - v.x, y - v.y, z - v.z);

  001aa	f3 0f 10 85 a0
	fe ff ff	 movss	 xmm0, DWORD PTR $T6[ebp+8]
  001b2	f3 0f 5c 45 18	 subss	 xmm0, DWORD PTR _vPos$[ebp+8]

; 1684 :     return sqrtf(pV->x * pV->x + pV->y * pV->y + pV->z * pV->z);

  001b7	f3 0f 59 d2	 mulss	 xmm2, xmm2

; 302  :     z = fz;

  001bb	f3 0f 59 c9	 mulss	 xmm1, xmm1

; 1684 :     return sqrtf(pV->x * pV->x + pV->y * pV->y + pV->z * pV->z);

  001bf	f3 0f 59 c0	 mulss	 xmm0, xmm0
  001c3	f3 0f 58 d1	 addss	 xmm2, xmm1
  001c7	0f 57 c9	 xorps	 xmm1, xmm1
  001ca	f3 0f 58 d0	 addss	 xmm2, xmm0
; File C:\Program Files (x86)\Windows Kits\10\Include\10.0.26100.0\ucrt\corecrt_math.h

; 799  :             return (float)sqrt(_X);

  001ce	0f 5a c2	 cvtps2pd xmm0, xmm2
  001d1	66 0f 2e c8	 ucomisd xmm1, xmm0
  001d5	77 06		 ja	 SHORT $LN276@CreateMons
  001d7	f2 0f 51 c0	 sqrtsd	 xmm0, xmm0
  001db	eb 05		 jmp	 SHORT $LN277@CreateMons
$LN276@CreateMons:
  001dd	e8 00 00 00 00	 call	 __libm_sse2_sqrt_precise
$LN277@CreateMons:
  001e2	f2 0f 5a c0	 cvtsd2ss xmm0, xmm0
; File C:\IAGOS\server\v18\Source\Source\_Common\CreateMonster.cpp

; 164  : 		if( 15.f < fDist )

  001e6	0f 2f 05 00 00
	00 00		 comiss	 xmm0, DWORD PTR __real@41700000
  001ed	76 0a		 jbe	 SHORT $LN7@CreateMons

; 165  : 		{
; 166  : 			pUser->AddDefinedText( TID_GAME_CREATEMON_F_15 );

  001ef	68 20 0b 00 00	 push	 2848			; 00000b20H

; 167  : 			return;

  001f4	e9 85 02 00 00	 jmp	 $LN279@CreateMons
$LN7@CreateMons:

; 168  : 		}
; 169  : 
; 170  : 		int nAttr = pWorld->GetHeightAttribute( vPos.x, vPos.z );		// ŔĚµżÇŇ Ŕ§ÄˇŔÇ ĽÓĽş ŔĐŔ˝.

  001f9	f3 0f 10 45 18	 movss	 xmm0, DWORD PTR _vPos$[ebp+8]
  001fe	83 ec 08	 sub	 esp, 8
  00201	8b cb		 mov	 ecx, ebx
  00203	f3 0f 11 44 24
	04		 movss	 DWORD PTR [esp+4], xmm0
  00209	f3 0f 10 45 10	 movss	 xmm0, DWORD PTR _vPos$[ebp]
  0020e	f3 0f 11 04 24	 movss	 DWORD PTR [esp], xmm0
  00213	e8 00 00 00 00	 call	 ?GetHeightAttribute@CWorld@@QAEHMM@Z ; CWorld::GetHeightAttribute

; 171  : 		if( nAttr == HATTR_NOWALK || nAttr == HATTR_NOMOVE )		// ¸ř żňÁ÷ŔĚ´Â °÷ŔĚ¸é Pass

  00218	83 f8 01	 cmp	 eax, 1
  0021b	0f 84 58 02 00
	00		 je	 $LN9@CreateMons
  00221	83 f8 03	 cmp	 eax, 3
  00224	0f 84 4f 02 00
	00		 je	 $LN9@CreateMons

; 174  : 			return;
; 175  : 		}
; 176  : 		if( pUser->IsRegionAttr( RA_SAFETY ))		// ľČŔüÁöżŞŔĚ¸é Pass

  0022a	f6 87 d0 02 00
	00 10		 test	 BYTE PTR [edi+720], 16	; 00000010H
  00231	0f 85 42 02 00
	00		 jne	 $LN9@CreateMons

; 177  : 		{
; 178  : 			pUser->AddDefinedText( TID_GAME_CREATEMON_F_AREA );
; 179  : 			return;
; 180  : 		}
; 181  : 		if( pWorld->GetID() != WI_WORLD_MADRIGAL )

  00237	83 3b 01	 cmp	 DWORD PTR [ebx], 1
  0023a	0f 85 39 02 00
	00		 jne	 $LN9@CreateMons

; 182  : 		{
; 183  : 			pUser->AddDefinedText( TID_GAME_CREATEMON_F_AREA );
; 184  : 			return;
; 185  : 		}
; 186  : 
; 187  : 		CObj* pObj	= CreateObj( D3DDEVICE, OT_MOVER, pMoverProp->dwID );

  00240	6a 01		 push	 1
  00242	ff 36		 push	 DWORD PTR [esi]
  00244	6a 05		 push	 5
  00246	6a 00		 push	 0
  00248	e8 00 00 00 00	 call	 ?CreateObj@@YAPAVCObj@@PAUIDirect3DDevice9@@KKH@Z ; CreateObj
  0024d	83 c4 10	 add	 esp, 16			; 00000010H
  00250	89 85 a4 fe ff
	ff		 mov	 DWORD PTR _pObj$1$[ebp], eax

; 188  : 		if( NULL == pObj )	return;	// ASSERT( pObj );

  00256	85 c0		 test	 eax, eax
  00258	0f 84 27 02 00
	00		 je	 $LN253@CreateMons

; 189  : 		pObj->SetPos( vPos );

  0025e	8d 4d 10	 lea	 ecx, DWORD PTR _vPos$[ebp]
  00261	51		 push	 ecx
  00262	8b c8		 mov	 ecx, eax
  00264	e8 00 00 00 00	 call	 ?SetPos@CObj@@QAEXABUD3DXVECTOR3@@@Z ; CObj::SetPos

; 190  : 		pObj->InitMotion( MTI_STAND );

  00269	8b 85 a4 fe ff
	ff		 mov	 eax, DWORD PTR _pObj$1$[ebp]
  0026f	8b c8		 mov	 ecx, eax
  00271	6a 00		 push	 0
  00273	8b 10		 mov	 edx, DWORD PTR [eax]
  00275	ff 52 08	 call	 DWORD PTR [edx+8]

; 191  : 		pObj->UpdateLocalMatrix();

  00278	8b 8d a4 fe ff
	ff		 mov	 ecx, DWORD PTR _pObj$1$[ebp]
  0027e	e8 00 00 00 00	 call	 ?UpdateLocalMatrix@CObj@@QAEXXZ ; CObj::UpdateLocalMatrix

; 192  : 		((CMover*)pObj)->m_bActiveAttack = FALSE;

  00283	8b 8d a4 fe ff
	ff		 mov	 ecx, DWORD PTR _pObj$1$[ebp]

; 193  : 		((CMover*)pObj)->AddItToGlobalId();

  00289	8b 01		 mov	 eax, DWORD PTR [ecx]
  0028b	c7 81 68 06 00
	00 00 00 00 00	 mov	 DWORD PTR [ecx+1640], 0
  00295	ff 50 3c	 call	 DWORD PTR [eax+60]

; 194  : 		pWorld->ADDOBJ( pObj, FALSE, pUser->GetLayer() );

  00298	ff b7 b8 01 00
	00		 push	 DWORD PTR [edi+440]
  0029e	8b cb		 mov	 ecx, ebx
  002a0	6a 00		 push	 0
  002a2	ff b5 a4 fe ff
	ff		 push	 DWORD PTR _pObj$1$[ebp]
  002a8	e8 00 00 00 00	 call	 ?AddObj@CWorld@@QAEHPAVCObj@@HH@Z ; CWorld::AddObj

; 195  : 		
; 196  : 		LogItemInfo aLogItem;

  002ad	8d 8d a8 fe ff
	ff		 lea	 ecx, DWORD PTR _aLogItem$8[ebp]
  002b3	e8 00 00 00 00	 call	 ??0_LogItemInfo@@QAE@XZ	; _LogItemInfo::_LogItemInfo

; 197  : 		aLogItem.Action = "i";
; 198  : 		aLogItem.SendName = pUser->GetName();

  002b8	6a 00		 push	 0
  002ba	8b cf		 mov	 ecx, edi
  002bc	c7 85 a8 fe ff
	ff 00 00 00 00	 mov	 DWORD PTR _aLogItem$8[ebp], OFFSET ??_C@_01KBJDNOO@i@
  002c6	e8 00 00 00 00	 call	 ?GetName@CMover@@QAEPBDH@Z ; CMover::GetName

; 199  : 		char szTemp[128] = {0,};

  002cb	68 80 00 00 00	 push	 128			; 00000080H
  002d0	89 85 ac fe ff
	ff		 mov	 DWORD PTR _aLogItem$8[ebp+4], eax
  002d6	8d 85 70 ff ff
	ff		 lea	 eax, DWORD PTR _szTemp$9[ebp]
  002dc	6a 00		 push	 0
  002de	50		 push	 eax
  002df	e8 00 00 00 00	 call	 _memset

; 200  : 		sprintf( szTemp, "M_C_%s", pMoverProp->szName ); 

  002e4	83 c6 04	 add	 esi, 4
  002e7	8d 85 70 ff ff
	ff		 lea	 eax, DWORD PTR _szTemp$9[ebp]
  002ed	56		 push	 esi
  002ee	68 00 00 00 00	 push	 OFFSET ??_C@_06MDOBNEJ@M_C_?$CFs@
  002f3	50		 push	 eax
  002f4	e8 00 00 00 00	 call	 _sprintf

; 201  : 		memset( szTemp+31, 0, sizeof(szTemp)-31 );

  002f9	6a 61		 push	 97			; 00000061H
  002fb	8d 45 8f	 lea	 eax, DWORD PTR _szTemp$9[ebp+31]
  002fe	6a 00		 push	 0
  00300	50		 push	 eax
  00301	e8 00 00 00 00	 call	 _memset

; 202  : 
; 203  : 		aLogItem.RecvName = szTemp;
; 204  : 		aLogItem.Gold = aLogItem.Gold2 = pUser->GetGold();
; 205  : 		aLogItem.Gold_1 = ((CMover*)pObj)->GetId();

  00306	8b 9d a4 fe ff
	ff		 mov	 ebx, DWORD PTR _pObj$1$[ebp]
  0030c	8d 85 70 ff ff
	ff		 lea	 eax, DWORD PTR _szTemp$9[ebp]
  00312	89 85 b0 fe ff
	ff		 mov	 DWORD PTR _aLogItem$8[ebp+8], eax
  00318	83 c4 24	 add	 esp, 36			; 00000024H
  0031b	8b 87 e0 14 00
	00		 mov	 eax, DWORD PTR [edi+5344]

; 206  : 		aLogItem.WorldId = pUser->GetWorld()->GetID();
; 207  : 		g_DPSrvr.OnLogItem( aLogItem, pItemElem, 1 );

  00321	b9 00 00 00 00	 mov	 ecx, OFFSET ?g_DPSrvr@@3VCDPSrvr@@A ; g_DPSrvr
  00326	89 85 bc fe ff
	ff		 mov	 DWORD PTR _aLogItem$8[ebp+20], eax
  0032c	89 85 b8 fe ff
	ff		 mov	 DWORD PTR _aLogItem$8[ebp+16], eax
  00332	8b 83 bc 01 00
	00		 mov	 eax, DWORD PTR [ebx+444]
  00338	89 85 f4 fe ff
	ff		 mov	 DWORD PTR _aLogItem$8[ebp+76], eax
  0033e	8b 87 6c 01 00
	00		 mov	 eax, DWORD PTR [edi+364]
  00344	6a 01		 push	 1
  00346	ff b5 94 fe ff
	ff		 push	 DWORD PTR _pItemElem$1$[ebp]
  0034c	8b 00		 mov	 eax, DWORD PTR [eax]
  0034e	89 85 b4 fe ff
	ff		 mov	 DWORD PTR _aLogItem$8[ebp+12], eax
  00354	8d 85 a8 fe ff
	ff		 lea	 eax, DWORD PTR _aLogItem$8[ebp]
  0035a	50		 push	 eax
  0035b	e8 00 00 00 00	 call	 ?OnLogItem@CDPSrvr@@QAEXAAU_LogItemInfo@@PAVCItemElem@@H@Z ; CDPSrvr::OnLogItem

; 208  : 
; 209  : 		pUser->AddDefinedText( TID_GAME_CREATEMON_S, "\"%s\"", pMoverProp->szName );

  00360	56		 push	 esi
  00361	68 00 00 00 00	 push	 OFFSET ??_C@_04OEDFLLKD@?$CC?$CFs?$CC@
  00366	68 22 0b 00 00	 push	 2850			; 00000b22H
  0036b	57		 push	 edi
  0036c	e8 00 00 00 00	 call	 ?AddDefinedText@CUser@@QAAXHPBDZZ ; CUser::AddDefinedText
  00371	83 c4 10	 add	 esp, 16			; 00000010H

; 210  : 		pUser->RemoveItem( (BYTE)( dwObjId ), (short)( 1 ) );

  00374	8b cf		 mov	 ecx, edi
  00376	6a 01		 push	 1
  00378	ff b5 90 fe ff
	ff		 push	 DWORD PTR _dwObjId$GSCopy$1$[ebp]
  0037e	e8 00 00 00 00	 call	 ?RemoveItem@CMover@@QAEXEF@Z ; CMover::RemoveItem

; 215  : 		createMonsterInfo.dwEndTick = pCreateMonsterProp->dwKeepTime + GetTickCount();

  00383	8b b5 8c fe ff
	ff		 mov	 esi, DWORD PTR _pCreateMonsterProp$1$[ebp]
  00389	8b 87 34 02 00
	00		 mov	 eax, DWORD PTR [edi+564]
  0038f	c6 85 a0 fe ff
	ff 4e		 mov	 BYTE PTR _createMonsterInfo$7[ebp+8], 78 ; 0000004eH
  00396	89 85 98 fe ff
	ff		 mov	 DWORD PTR _createMonsterInfo$7[ebp], eax
  0039c	8b 36		 mov	 esi, DWORD PTR [esi]
  0039e	ff 15 00 00 00
	00		 call	 DWORD PTR __imp__GetTickCount@0
; File C:\Program Files\Microsoft Visual Studio\2022\Professional\VC\Tools\MSVC\14.44.35207\include\utility

; 274  :         : first(_STD forward<_Other1>(_Val1)), second(_STD forward<_Other2>(_Val2)) {

  003a4	8b 9b bc 01 00
	00		 mov	 ebx, DWORD PTR [ebx+444]
; File C:\IAGOS\server\v18\Source\Source\_Common\CreateMonster.cpp

; 215  : 		createMonsterInfo.dwEndTick = pCreateMonsterProp->dwKeepTime + GetTickCount();

  003aa	03 c6		 add	 eax, esi
  003ac	89 85 9c fe ff
	ff		 mov	 DWORD PTR _createMonsterInfo$7[ebp+4], eax
; File C:\Program Files\Microsoft Visual Studio\2022\Professional\VC\Tools\MSVC\14.44.35207\include\utility

; 274  :         : first(_STD forward<_Other1>(_Val1)), second(_STD forward<_Other2>(_Val2)) {

  003b2	89 9d 7c fe ff
	ff		 mov	 DWORD PTR $T4[ebp], ebx
  003b8	8b 85 a0 fe ff
	ff		 mov	 eax, DWORD PTR _createMonsterInfo$7[ebp+8]
; File C:\IAGOS\server\v18\Source\Source\_Common\CreateMonster.cpp

; 216  : 		m_mapCreateMonsterInfo.insert( make_pair( ((CMover*)pObj)->GetId(), createMonsterInfo ) );

  003be	8b bd 78 fe ff
	ff		 mov	 edi, DWORD PTR _this$GSCopy$1$[ebp]
; File C:\Program Files\Microsoft Visual Studio\2022\Professional\VC\Tools\MSVC\14.44.35207\include\utility

; 274  :         : first(_STD forward<_Other1>(_Val1)), second(_STD forward<_Other2>(_Val2)) {

  003c4	f3 0f 7e 85 98
	fe ff ff	 movq	 xmm0, QWORD PTR _createMonsterInfo$7[ebp]
; File C:\IAGOS\server\v18\Source\Source\_Common\CreateMonster.cpp

; 216  : 		m_mapCreateMonsterInfo.insert( make_pair( ((CMover*)pObj)->GetId(), createMonsterInfo ) );

  003cc	83 c7 0c	 add	 edi, 12			; 0000000cH
; File C:\Program Files\Microsoft Visual Studio\2022\Professional\VC\Tools\MSVC\14.44.35207\include\utility

; 274  :         : first(_STD forward<_Other1>(_Val1)), second(_STD forward<_Other2>(_Val2)) {

  003cf	89 85 88 fe ff
	ff		 mov	 DWORD PTR $T4[ebp+12], eax
; File C:\Program Files\Microsoft Visual Studio\2022\Professional\VC\Tools\MSVC\14.44.35207\include\xtree

; 1017 :             _Loc                = _Find_lower_bound(_Keyval);

  003d5	8b cf		 mov	 ecx, edi
  003d7	8d 85 7c fe ff
	ff		 lea	 eax, DWORD PTR $T4[ebp]
; File C:\Program Files\Microsoft Visual Studio\2022\Professional\VC\Tools\MSVC\14.44.35207\include\utility

; 274  :         : first(_STD forward<_Other1>(_Val1)), second(_STD forward<_Other2>(_Val2)) {

  003dd	66 0f d6 85 80
	fe ff ff	 movq	 QWORD PTR $T4[ebp+4], xmm0
; File C:\Program Files\Microsoft Visual Studio\2022\Professional\VC\Tools\MSVC\14.44.35207\include\xtree

; 1017 :             _Loc                = _Find_lower_bound(_Keyval);

  003e5	50		 push	 eax
  003e6	8d 85 70 fe ff
	ff		 lea	 eax, DWORD PTR $T2[ebp]
  003ec	50		 push	 eax
  003ed	e8 00 00 00 00	 call	 ??$_Find_lower_bound@K@?$_Tree@V?$_Tmap_traits@KUCREATE_MONSTER_INFO@@U?$less@K@std@@V?$allocator@U?$pair@$$CBKUCREATE_MONSTER_INFO@@@std@@@3@$0A@@std@@@std@@IBE?AU?$_Tree_find_result@PAU?$_Tree_node@U?$pair@$$CBKUCREATE_MONSTER_INFO@@@std@@PAX@std@@@1@ABK@Z ; std::_Tree<std::_Tmap_traits<unsigned long,CREATE_MONSTER_INFO,std::less<unsigned long>,std::allocator<std::pair<unsigned long const ,CREATE_MONSTER_INFO> >,0> >::_Find_lower_bound<unsigned long>
  003f2	f3 0f 7e 00	 movq	 xmm0, QWORD PTR [eax]
  003f6	8b 40 08	 mov	 eax, DWORD PTR [eax+8]
  003f9	66 0f d6 85 80
	fe ff ff	 movq	 QWORD PTR __Loc$5[ebp], xmm0

; 1624 :         return !_Bound->_Isnil && !_DEBUG_LT_PRED(_Getcomp(), _Keyval, _Traits::_Kfn(_Bound->_Myval));

  00401	80 78 0d 00	 cmp	 BYTE PTR [eax+13], 0
  00405	75 05		 jne	 SHORT $LN270@CreateMons
; File C:\Program Files\Microsoft Visual Studio\2022\Professional\VC\Tools\MSVC\14.44.35207\include\type_traits

; 2380 :         return _Left < _Right;

  00407	3b 58 10	 cmp	 ebx, DWORD PTR [eax+16]
; File C:\Program Files\Microsoft Visual Studio\2022\Professional\VC\Tools\MSVC\14.44.35207\include\xtree

; 1624 :         return !_Bound->_Isnil && !_DEBUG_LT_PRED(_Getcomp(), _Keyval, _Traits::_Kfn(_Bound->_Myval));

  0040a	73 79		 jae	 SHORT $LN253@CreateMons
$LN270@CreateMons:

; 1648 :         if (max_size() == _Get_scary()->_Mysize) {

  0040c	81 7f 04 ff ff
	ff 07		 cmp	 DWORD PTR [edi+4], 134217727 ; 07ffffffH
  00413	0f 84 8a 00 00
	00		 je	 $LN281@CreateMons

; 1023 :             _Inserted = _Tree_temp_node<_Alnode>(_Getal(), _Scary->_Myhead, _STD forward<_Valtys>(_Vals)...)._Release();

  00419	8b 37		 mov	 esi, DWORD PTR [edi]
; File C:\Program Files\Microsoft Visual Studio\2022\Professional\VC\Tools\MSVC\14.44.35207\include\xmemory

; 1160 :     _CONSTEXPR20 explicit _Alloc_construct_ptr(_Alloc& _Al_) : _Al(_Al_), _Ptr(nullptr) {}

  0041b	89 bd 74 fe ff
	ff		 mov	 DWORD PTR $T3[ebp], edi

; 136  :         return ::operator new(_Bytes);

  00421	6a 20		 push	 32			; 00000020H
; File C:\Program Files\Microsoft Visual Studio\2022\Professional\VC\Tools\MSVC\14.44.35207\include\xtree

; 808  :     explicit _Tree_temp_node_alloc(_Alnode& _Al_) : _Alloc_construct_ptr<_Alnode>(_Al_) {

  00423	c7 45 fc 00 00
	00 00		 mov	 DWORD PTR __$EHRec$[ebp+8], 0
; File C:\Program Files\Microsoft Visual Studio\2022\Professional\VC\Tools\MSVC\14.44.35207\include\xmemory

; 1167 :         _Ptr = nullptr; // if allocate throws, prevents double-free

  0042a	c7 85 78 fe ff
	ff 00 00 00 00	 mov	 DWORD PTR $T3[ebp+4], 0

; 136  :         return ::operator new(_Bytes);

  00434	e8 00 00 00 00	 call	 ??2@YAPAXI@Z		; operator new
; File C:\Program Files\Microsoft Visual Studio\2022\Professional\VC\Tools\MSVC\14.44.35207\include\utility

; 303  :         : first(_STD forward<_Other1>(_Right.first)), second(_STD forward<_Other2>(_Right.second)) {}

  00439	f3 0f 7e 85 98
	fe ff ff	 movq	 xmm0, QWORD PTR _createMonsterInfo$7[ebp]
; File C:\Program Files\Microsoft Visual Studio\2022\Professional\VC\Tools\MSVC\14.44.35207\include\xmemory

; 136  :         return ::operator new(_Bytes);

  00441	83 c4 04	 add	 esp, 4
; File C:\Program Files\Microsoft Visual Studio\2022\Professional\VC\Tools\MSVC\14.44.35207\include\utility

; 303  :         : first(_STD forward<_Other1>(_Right.first)), second(_STD forward<_Other2>(_Right.second)) {}

  00444	8b 8d a0 fe ff
	ff		 mov	 ecx, DWORD PTR _createMonsterInfo$7[ebp+8]
  0044a	66 0f d6 40 14	 movq	 QWORD PTR [eax+20], xmm0
  0044f	89 48 1c	 mov	 DWORD PTR [eax+28], ecx
; File C:\Program Files\Microsoft Visual Studio\2022\Professional\VC\Tools\MSVC\14.44.35207\include\xtree

; 1042 :         return {_Scary->_Insert_node(_Loc._Location, _Inserted), true};

  00452	8b cf		 mov	 ecx, edi
  00454	50		 push	 eax
  00455	ff b5 84 fe ff
	ff		 push	 DWORD PTR __Loc$5[ebp+4]
; File C:\Program Files\Microsoft Visual Studio\2022\Professional\VC\Tools\MSVC\14.44.35207\include\utility

; 303  :         : first(_STD forward<_Other1>(_Right.first)), second(_STD forward<_Other2>(_Right.second)) {}

  0045b	89 58 10	 mov	 DWORD PTR [eax+16], ebx
; File C:\Program Files\Microsoft Visual Studio\2022\Professional\VC\Tools\MSVC\14.44.35207\include\xtree

; 1042 :         return {_Scary->_Insert_node(_Loc._Location, _Inserted), true};

  0045e	ff b5 80 fe ff
	ff		 push	 DWORD PTR __Loc$5[ebp]

; 831  :         _Construct_in_place(this->_Ptr->_Left, _Myhead);

  00464	89 30		 mov	 DWORD PTR [eax], esi

; 832  :         _Construct_in_place(this->_Ptr->_Parent, _Myhead);

  00466	89 70 04	 mov	 DWORD PTR [eax+4], esi

; 833  :         _Construct_in_place(this->_Ptr->_Right, _Myhead);

  00469	89 70 08	 mov	 DWORD PTR [eax+8], esi

; 834  :         this->_Ptr->_Color = _Red;

  0046c	66 c7 40 0c 00
	00		 mov	 WORD PTR [eax+12], 0

; 1042 :         return {_Scary->_Insert_node(_Loc._Location, _Inserted), true};

  00472	e8 00 00 00 00	 call	 ?_Insert_node@?$_Tree_val@U?$_Tree_simple_types@U?$pair@$$CBKUCREATE_MONSTER_INFO@@@std@@@std@@@std@@QAEPAU?$_Tree_node@U?$pair@$$CBKUCREATE_MONSTER_INFO@@@std@@PAX@2@U?$_Tree_id@PAU?$_Tree_node@U?$pair@$$CBKUCREATE_MONSTER_INFO@@@std@@PAX@std@@@2@QAU32@@Z ; std::_Tree_val<std::_Tree_simple_types<std::pair<unsigned long const ,CREATE_MONSTER_INFO> > >::_Insert_node
; File C:\Program Files\Microsoft Visual Studio\2022\Professional\VC\Tools\MSVC\14.44.35207\include\utility

; 274  :         : first(_STD forward<_Other1>(_Val1)), second(_STD forward<_Other2>(_Val2)) {

  00477	eb 0c		 jmp	 SHORT $LN253@CreateMons
$LN9@CreateMons:
; File C:\IAGOS\server\v18\Source\Source\_Common\CreateMonster.cpp

; 173  : 			pUser->AddDefinedText( TID_GAME_CREATEMON_F_AREA );

  00479	68 21 0b 00 00	 push	 2849			; 00000b21H
$LN279@CreateMons:

; 218  : }

  0047e	8b cf		 mov	 ecx, edi
  00480	e8 00 00 00 00	 call	 ?AddDefinedText@CUser@@QAEXH@Z ; CUser::AddDefinedText
$LN253@CreateMons:
  00485	8b 4d f4	 mov	 ecx, DWORD PTR __$EHRec$[ebp]
  00488	64 89 0d 00 00
	00 00		 mov	 DWORD PTR fs:0, ecx
  0048f	59		 pop	 ecx
  00490	5f		 pop	 edi
  00491	5e		 pop	 esi
  00492	5b		 pop	 ebx
  00493	8b 4d f0	 mov	 ecx, DWORD PTR __$ArrayPad$[ebp]
  00496	33 cd		 xor	 ecx, ebp
  00498	e8 00 00 00 00	 call	 @__security_check_cookie@4
  0049d	8b e5		 mov	 esp, ebp
  0049f	5d		 pop	 ebp
  004a0	c2 14 00	 ret	 20			; 00000014H
$LN281@CreateMons:
; File C:\Program Files\Microsoft Visual Studio\2022\Professional\VC\Tools\MSVC\14.44.35207\include\xtree

; 1649 :             _Throw_tree_length_error();

  004a3	e8 00 00 00 00	 call	 ?_Throw_tree_length_error@std@@YAXXZ ; std::_Throw_tree_length_error
$LN278@CreateMons:
  004a8	cc		 int	 3
_TEXT	ENDS
;	COMDAT text$x
text$x	SEGMENT
__unwindfunclet$?CreateMonster@CCreateMonster@@QAEXPAVCUser@@KUD3DXVECTOR3@@@Z$2:
  00000	8d 8d 74 fe ff
	ff		 lea	 ecx, DWORD PTR $T3[ebp]
  00006	e9 00 00 00 00	 jmp	 ??1?$_Alloc_construct_ptr@V?$allocator@U?$_Tree_node@U?$pair@$$CBKUCREATE_MONSTER_INFO@@@std@@PAX@std@@@std@@@std@@QAE@XZ ; std::_Alloc_construct_ptr<std::allocator<std::_Tree_node<std::pair<unsigned long const ,CREATE_MONSTER_INFO>,void *> > >::~_Alloc_construct_ptr<std::allocator<std::_Tree_node<std::pair<unsigned long const ,CREATE_MONSTER_INFO>,void *> > >
  0000b	cc		 int	 3
  0000c	cc		 int	 3
  0000d	cc		 int	 3
  0000e	cc		 int	 3
  0000f	cc		 int	 3
__ehhandler$?CreateMonster@CCreateMonster@@QAEXPAVCUser@@KUD3DXVECTOR3@@@Z:
  00010	90		 npad	 1
  00011	90		 npad	 1
  00012	8b 54 24 08	 mov	 edx, DWORD PTR [esp+8]
  00016	8d 42 0c	 lea	 eax, DWORD PTR [edx+12]
  00019	8b 8a 6c fe ff
	ff		 mov	 ecx, DWORD PTR [edx-404]
  0001f	33 c8		 xor	 ecx, eax
  00021	e8 00 00 00 00	 call	 @__security_check_cookie@4
  00026	8b 4a fc	 mov	 ecx, DWORD PTR [edx-4]
  00029	33 c8		 xor	 ecx, eax
  0002b	e8 00 00 00 00	 call	 @__security_check_cookie@4
  00030	b8 00 00 00 00	 mov	 eax, OFFSET __ehfuncinfo$?CreateMonster@CCreateMonster@@QAEXPAVCUser@@KUD3DXVECTOR3@@@Z
  00035	e9 00 00 00 00	 jmp	 ___CxxFrameHandler3
text$x	ENDS
?CreateMonster@CCreateMonster@@QAEXPAVCUser@@KUD3DXVECTOR3@@@Z ENDP ; CCreateMonster::CreateMonster
; Function compile flags: /Ogtp
; File C:\IAGOS\server\v18\Source\Source\_Common\CreateMonster.cpp
; File C:\IAGOS\server\v18\Source\Source\_Common\Obj.h
; File C:\IAGOS\server\v18\Source\Source\_Common\CreateMonster.cpp
; File C:\IAGOS\server\v18\Source\Source\_Common\Obj.h
; File C:\IAGOS\server\v18\Source\Source\_Common\CreateMonster.cpp
; File C:\Program Files\Microsoft Visual Studio\2022\Professional\VC\Tools\MSVC\14.44.35207\include\xtree
; File C:\IAGOS\server\v18\Source\Source\_Common\CreateMonster.cpp
; File C:\Program Files\Microsoft Visual Studio\2022\Professional\VC\Tools\MSVC\14.44.35207\include\xtree
; File C:\Program Files\Microsoft Visual Studio\2022\Professional\VC\Tools\MSVC\14.44.35207\include\type_traits
; File C:\Program Files\Microsoft Visual Studio\2022\Professional\VC\Tools\MSVC\14.44.35207\include\xtree
; File C:\IAGOS\server\v18\Source\Source\_Common\CreateMonster.cpp
; File C:\Program Files\Microsoft Visual Studio\2022\Professional\VC\Tools\MSVC\14.44.35207\include\xtree
; File C:\IAGOS\server\v18\Source\Source\_Common\CreateMonster.cpp
; File C:\Program Files\Microsoft Visual Studio\2022\Professional\VC\Tools\MSVC\14.44.35207\include\xtree
; File C:\Program Files\Microsoft Visual Studio\2022\Professional\VC\Tools\MSVC\14.44.35207\include\type_traits
; File C:\Program Files\Microsoft Visual Studio\2022\Professional\VC\Tools\MSVC\14.44.35207\include\xtree
; File C:\Program Files\Microsoft Visual Studio\2022\Professional\VC\Tools\MSVC\14.44.35207\include\type_traits
; File C:\Program Files\Microsoft Visual Studio\2022\Professional\VC\Tools\MSVC\14.44.35207\include\xtree
; File C:\IAGOS\server\v18\Source\Source\_Common\Project.h
; File C:\IAGOS\server\v18\Source\Source\_Common\Obj.h
; File C:\IAGOS\server\v18\Source\Source\_Common\CreateMonster.cpp
;	COMDAT ?IsAttackAble@CCreateMonster@@QAEHPAVCUser@@PAVCMover@@H@Z
_TEXT	SEGMENT
__Loc$2 = -12						; size = 12
_pUser$ = 8						; size = 4
$T3 = 8							; size = 4
_pTarget$ = 12						; size = 4
_bTextOut$ = 16						; size = 4
?IsAttackAble@CCreateMonster@@QAEHPAVCUser@@PAVCMover@@H@Z PROC ; CCreateMonster::IsAttackAble, COMDAT
; _this$ = ecx

; 115  : {

  00000	55		 push	 ebp
  00001	8b ec		 mov	 ebp, esp
  00003	83 ec 0c	 sub	 esp, 12			; 0000000cH
  00006	53		 push	 ebx
  00007	56		 push	 esi
; File C:\IAGOS\server\v18\Source\Source\_Common\Obj.h

; 327  : 	return pObj && ( pObj->IsDelete() == FALSE ); 

  00008	8b 75 08	 mov	 esi, DWORD PTR _pUser$[ebp]
; File C:\IAGOS\server\v18\Source\Source\_Common\CreateMonster.cpp

; 115  : {

  0000b	57		 push	 edi
; File C:\IAGOS\server\v18\Source\Source\_Common\Obj.h

; 327  : 	return pObj && ( pObj->IsDelete() == FALSE ); 

  0000c	85 f6		 test	 esi, esi
  0000e	0f 84 db 00 00
	00		 je	 $LN3@IsAttackAb

; 180  : 	BOOL			IsDelete()	{ return (m_dwFlags & OBJ_FLAG_DELETE);  }

  00014	f6 46 04 01	 test	 BYTE PTR [esi+4], 1

; 327  : 	return pObj && ( pObj->IsDelete() == FALSE ); 

  00018	0f 85 d1 00 00
	00		 jne	 $LN3@IsAttackAb
  0001e	8b 45 0c	 mov	 eax, DWORD PTR _pTarget$[ebp]
  00021	85 c0		 test	 eax, eax
  00023	0f 84 c6 00 00
	00		 je	 $LN3@IsAttackAb

; 180  : 	BOOL			IsDelete()	{ return (m_dwFlags & OBJ_FLAG_DELETE);  }

  00029	f6 40 04 01	 test	 BYTE PTR [eax+4], 1

; 327  : 	return pObj && ( pObj->IsDelete() == FALSE ); 

  0002d	0f 85 bc 00 00
	00		 jne	 $LN3@IsAttackAb
; File C:\IAGOS\server\v18\Source\Source\_Common\CreateMonster.cpp

; 120  : 	MAPINFO::iterator it = m_mapCreateMonsterInfo.find( pTarget->GetId() );

  00033	8b b8 bc 01 00
	00		 mov	 edi, DWORD PTR [eax+444]
  00039	8d 59 0c	 lea	 ebx, DWORD PTR [ecx+12]
; File C:\Program Files\Microsoft Visual Studio\2022\Professional\VC\Tools\MSVC\14.44.35207\include\xtree

; 1384 :         const _Tree_find_result<_Nodeptr> _Loc = _Find_lower_bound(_Keyval);

  0003c	8d 45 08	 lea	 eax, DWORD PTR $T3[ebp]
; File C:\IAGOS\server\v18\Source\Source\_Common\CreateMonster.cpp

; 120  : 	MAPINFO::iterator it = m_mapCreateMonsterInfo.find( pTarget->GetId() );

  0003f	89 7d 08	 mov	 DWORD PTR $T3[ebp], edi
; File C:\Program Files\Microsoft Visual Studio\2022\Professional\VC\Tools\MSVC\14.44.35207\include\xtree

; 1384 :         const _Tree_find_result<_Nodeptr> _Loc = _Find_lower_bound(_Keyval);

  00042	50		 push	 eax
  00043	8d 45 f4	 lea	 eax, DWORD PTR __Loc$2[ebp]
  00046	8b cb		 mov	 ecx, ebx
  00048	50		 push	 eax
  00049	e8 00 00 00 00	 call	 ??$_Find_lower_bound@K@?$_Tree@V?$_Tmap_traits@KUCREATE_MONSTER_INFO@@U?$less@K@std@@V?$allocator@U?$pair@$$CBKUCREATE_MONSTER_INFO@@@std@@@3@$0A@@std@@@std@@IBE?AU?$_Tree_find_result@PAU?$_Tree_node@U?$pair@$$CBKUCREATE_MONSTER_INFO@@@std@@PAX@std@@@1@ABK@Z ; std::_Tree<std::_Tmap_traits<unsigned long,CREATE_MONSTER_INFO,std::less<unsigned long>,std::allocator<std::pair<unsigned long const ,CREATE_MONSTER_INFO> >,0> >::_Find_lower_bound<unsigned long>

; 1624 :         return !_Bound->_Isnil && !_DEBUG_LT_PRED(_Getcomp(), _Keyval, _Traits::_Kfn(_Bound->_Myval));

  0004e	8b 55 fc	 mov	 edx, DWORD PTR __Loc$2[ebp+8]
  00051	80 7a 0d 00	 cmp	 BYTE PTR [edx+13], 0
  00055	0f 85 9f 00 00
	00		 jne	 $LN6@IsAttackAb
; File C:\Program Files\Microsoft Visual Studio\2022\Professional\VC\Tools\MSVC\14.44.35207\include\type_traits

; 2380 :         return _Left < _Right;

  0005b	3b 7a 10	 cmp	 edi, DWORD PTR [edx+16]
; File C:\Program Files\Microsoft Visual Studio\2022\Professional\VC\Tools\MSVC\14.44.35207\include\xtree

; 1624 :         return !_Bound->_Isnil && !_DEBUG_LT_PRED(_Getcomp(), _Keyval, _Traits::_Kfn(_Bound->_Myval));

  0005e	0f 82 96 00 00
	00		 jb	 $LN6@IsAttackAb

; 37   :     _Tree_unchecked_const_iterator(_Nodeptr _Pnode, const _Mytree* _Plist) noexcept : _Ptr(_Pnode) {

  00064	3b 13		 cmp	 edx, DWORD PTR [ebx]
; File C:\IAGOS\server\v18\Source\Source\_Common\CreateMonster.cpp

; 121  : 	if( it == m_mapCreateMonsterInfo.end() )

  00066	0f 84 8e 00 00
	00		 je	 $LN6@IsAttackAb
; File C:\Program Files\Microsoft Visual Studio\2022\Professional\VC\Tools\MSVC\14.44.35207\include\xtree

; 1630 :         _Tree_find_result<_Nodeptr> _Result{{_Scary->_Myhead->_Parent, _Tree_child::_Right}, _Scary->_Myhead};

  0006c	8b 3d 28 00 00
	00		 mov	 edi, DWORD PTR ?prj@@3VCProject@@A+40
  00072	8b cf		 mov	 ecx, edi
; File C:\IAGOS\server\v18\Source\Source\_Common\CreateMonster.cpp

; 125  : 	CUser* pOwner = static_cast<CUser*>( prj.GetUserByID( it->second.dwOwnerId ) );

  00074	8b 52 14	 mov	 edx, DWORD PTR [edx+20]
; File C:\Program Files\Microsoft Visual Studio\2022\Professional\VC\Tools\MSVC\14.44.35207\include\xtree

; 1630 :         _Tree_find_result<_Nodeptr> _Result{{_Scary->_Myhead->_Parent, _Tree_child::_Right}, _Scary->_Myhead};

  00077	8b 47 04	 mov	 eax, DWORD PTR [edi+4]

; 1631 :         _Nodeptr _Trynode = _Result._Location._Parent;
; 1632 :         while (!_Trynode->_Isnil) {

  0007a	80 78 0d 00	 cmp	 BYTE PTR [eax+13], 0
  0007e	75 14		 jne	 SHORT $LN76@IsAttackAb
$LL75@IsAttackAb:
; File C:\Program Files\Microsoft Visual Studio\2022\Professional\VC\Tools\MSVC\14.44.35207\include\type_traits

; 2380 :         return _Left < _Right;

  00080	39 50 10	 cmp	 DWORD PTR [eax+16], edx
; File C:\Program Files\Microsoft Visual Studio\2022\Professional\VC\Tools\MSVC\14.44.35207\include\xtree

; 1634 :             if (_DEBUG_LT_PRED(_Getcomp(), _Traits::_Kfn(_Trynode->_Myval), _Keyval)) {

  00083	73 05		 jae	 SHORT $LN77@IsAttackAb

; 1635 :                 _Result._Location._Child = _Tree_child::_Right;
; 1636 :                 _Trynode                 = _Trynode->_Right;

  00085	8b 40 08	 mov	 eax, DWORD PTR [eax+8]

; 1637 :             } else {

  00088	eb 04		 jmp	 SHORT $LN78@IsAttackAb
$LN77@IsAttackAb:

; 1638 :                 _Result._Location._Child = _Tree_child::_Left;
; 1639 :                 _Result._Bound           = _Trynode;

  0008a	8b c8		 mov	 ecx, eax

; 1640 :                 _Trynode                 = _Trynode->_Left;

  0008c	8b 00		 mov	 eax, DWORD PTR [eax]
$LN78@IsAttackAb:

; 1631 :         _Nodeptr _Trynode = _Result._Location._Parent;
; 1632 :         while (!_Trynode->_Isnil) {

  0008e	80 78 0d 00	 cmp	 BYTE PTR [eax+13], 0
  00092	74 ec		 je	 SHORT $LL75@IsAttackAb
$LN76@IsAttackAb:

; 1624 :         return !_Bound->_Isnil && !_DEBUG_LT_PRED(_Getcomp(), _Keyval, _Traits::_Kfn(_Bound->_Myval));

  00094	80 79 0d 00	 cmp	 BYTE PTR [ecx+13], 0
  00098	75 05		 jne	 SHORT $LN72@IsAttackAb
; File C:\Program Files\Microsoft Visual Studio\2022\Professional\VC\Tools\MSVC\14.44.35207\include\type_traits

; 2380 :         return _Left < _Right;

  0009a	3b 51 10	 cmp	 edx, DWORD PTR [ecx+16]
; File C:\Program Files\Microsoft Visual Studio\2022\Professional\VC\Tools\MSVC\14.44.35207\include\xtree

; 1624 :         return !_Bound->_Isnil && !_DEBUG_LT_PRED(_Getcomp(), _Keyval, _Traits::_Kfn(_Bound->_Myval));

  0009d	73 02		 jae	 SHORT $LN71@IsAttackAb
$LN72@IsAttackAb:

; 1389 :         return _Get_scary()->_Myhead;

  0009f	8b cf		 mov	 ecx, edi
$LN71@IsAttackAb:

; 37   :     _Tree_unchecked_const_iterator(_Nodeptr _Pnode, const _Mytree* _Plist) noexcept : _Ptr(_Pnode) {

  000a1	3b cf		 cmp	 ecx, edi
; File C:\IAGOS\server\v18\Source\Source\_Common\Project.h

; 1436 : 	if( i != m_idPlayerToUserPtr.end() )

  000a3	74 23		 je	 SHORT $LN5@IsAttackAb

; 1437 : 		return i->second;

  000a5	8b 41 14	 mov	 eax, DWORD PTR [ecx+20]
; File C:\IAGOS\server\v18\Source\Source\_Common\Obj.h

; 327  : 	return pObj && ( pObj->IsDelete() == FALSE ); 

  000a8	85 c0		 test	 eax, eax
  000aa	74 1c		 je	 SHORT $LN5@IsAttackAb

; 180  : 	BOOL			IsDelete()	{ return (m_dwFlags & OBJ_FLAG_DELETE);  }

  000ac	f6 40 04 01	 test	 BYTE PTR [eax+4], 1

; 327  : 	return pObj && ( pObj->IsDelete() == FALSE ); 

  000b0	75 16		 jne	 SHORT $LN5@IsAttackAb
; File C:\IAGOS\server\v18\Source\Source\_Common\CreateMonster.cpp

; 128  : 		&& ( ( pOwner == pUser ) || ( pOwner->GetPartyId() && pOwner->GetPartyId() == pUser->GetPartyId() ) ) )

  000b2	3b c6		 cmp	 eax, esi
  000b4	74 44		 je	 SHORT $LN6@IsAttackAb
  000b6	8b 80 10 07 00
	00		 mov	 eax, DWORD PTR [eax+1808]
  000bc	85 c0		 test	 eax, eax
  000be	74 08		 je	 SHORT $LN5@IsAttackAb
  000c0	3b 86 10 07 00
	00		 cmp	 eax, DWORD PTR [esi+1808]
  000c6	74 32		 je	 SHORT $LN6@IsAttackAb
$LN5@IsAttackAb:

; 129  : 		return TRUE;
; 130  : 
; 131  : 	if( bTextOut )

  000c8	83 7d 10 00	 cmp	 DWORD PTR _bTextOut$[ebp], 0
  000cc	74 21		 je	 SHORT $LN3@IsAttackAb

; 132  : 		pUser->AddDefinedText( TID_GAME_PRIORITYSUMMONMOB, "\"%s\"", CPlayerDataCenter::GetInstance()->GetPlayerString( it->second.dwOwnerId ) );

  000ce	52		 push	 edx
  000cf	e8 00 00 00 00	 call	 ?GetInstance@CPlayerDataCenter@@SAPAV1@XZ ; CPlayerDataCenter::GetInstance
  000d4	8b c8		 mov	 ecx, eax
  000d6	e8 00 00 00 00	 call	 ?GetPlayerString@CPlayerDataCenter@@QAEPBDK@Z ; CPlayerDataCenter::GetPlayerString
  000db	50		 push	 eax
  000dc	68 00 00 00 00	 push	 OFFSET ??_C@_04OEDFLLKD@?$CC?$CFs?$CC@
  000e1	68 78 0f 00 00	 push	 3960			; 00000f78H
  000e6	56		 push	 esi
  000e7	e8 00 00 00 00	 call	 ?AddDefinedText@CUser@@QAAXHPBDZZ ; CUser::AddDefinedText
  000ec	83 c4 10	 add	 esp, 16			; 00000010H
$LN3@IsAttackAb:

; 133  : 
; 134  : 	return FALSE;
; 135  : }

  000ef	5f		 pop	 edi
  000f0	5e		 pop	 esi
  000f1	33 c0		 xor	 eax, eax
  000f3	5b		 pop	 ebx
  000f4	8b e5		 mov	 esp, ebp
  000f6	5d		 pop	 ebp
  000f7	c2 0c 00	 ret	 12			; 0000000cH
$LN6@IsAttackAb:
  000fa	5f		 pop	 edi
  000fb	5e		 pop	 esi
  000fc	b8 01 00 00 00	 mov	 eax, 1
  00101	5b		 pop	 ebx
  00102	8b e5		 mov	 esp, ebp
  00104	5d		 pop	 ebp
  00105	c2 0c 00	 ret	 12			; 0000000cH
?IsAttackAble@CCreateMonster@@QAEHPAVCUser@@PAVCMover@@H@Z ENDP ; CCreateMonster::IsAttackAble
_TEXT	ENDS
; Function compile flags: /Ogtp
; File C:\IAGOS\server\v18\Source\Source\_Common\CreateMonster.cpp
; File C:\Program Files\Microsoft Visual Studio\2022\Professional\VC\Tools\MSVC\14.44.35207\include\xtree
; File C:\IAGOS\server\v18\Source\Source\_Common\CreateMonster.cpp
; File C:\Program Files\Microsoft Visual Studio\2022\Professional\VC\Tools\MSVC\14.44.35207\include\xtree
; File C:\IAGOS\server\v18\Source\Source\_Common\CreateMonster.cpp
; File C:\Program Files\Microsoft Visual Studio\2022\Professional\VC\Tools\MSVC\14.44.35207\include\xtree
; File C:\IAGOS\server\v18\Source\Source\_Common\CreateMonster.cpp
; File C:\IAGOS\server\v18\Source\Source\_Common\Obj.h
; File C:\IAGOS\server\v18\Source\Source\_Common\Mover.h
; File C:\IAGOS\server\v18\Source\Source\_Common\CreateMonster.cpp
; File C:\Program Files\Microsoft Visual Studio\2022\Professional\VC\Tools\MSVC\14.44.35207\include\xtree
; File C:\IAGOS\server\v18\Source\Source\_Common\CreateMonster.cpp
;	COMDAT ?ProcessRemoveMonster@CCreateMonster@@QAEXXZ
_TEXT	SEGMENT
_it$1 = -4						; size = 4
?ProcessRemoveMonster@CCreateMonster@@QAEXXZ PROC	; CCreateMonster::ProcessRemoveMonster, COMDAT
; _this$ = ecx

; 90   : {

  00000	55		 push	 ebp
  00001	8b ec		 mov	 ebp, esp
  00003	51		 push	 ecx
  00004	57		 push	 edi
  00005	8b f9		 mov	 edi, ecx
; File C:\Program Files\Microsoft Visual Studio\2022\Professional\VC\Tools\MSVC\14.44.35207\include\xtree

; 1218 :         return _Get_scary()->_Mysize == 0;

  00007	83 7f 10 00	 cmp	 DWORD PTR [edi+16], 0
; File C:\IAGOS\server\v18\Source\Source\_Common\CreateMonster.cpp

; 91   : 	if( m_mapCreateMonsterInfo.empty() )

  0000b	74 67		 je	 SHORT $LN3@ProcessRem

; 94   : 	DWORD dwTick = GetTickCount();

  0000d	53		 push	 ebx
  0000e	56		 push	 esi
  0000f	ff 15 00 00 00
	00		 call	 DWORD PTR __imp__GetTickCount@0
; File C:\Program Files\Microsoft Visual Studio\2022\Professional\VC\Tools\MSVC\14.44.35207\include\xtree

; 1142 :         return iterator(_Scary->_Myhead->_Left, _Scary);

  00015	8b 57 0c	 mov	 edx, DWORD PTR [edi+12]
; File C:\IAGOS\server\v18\Source\Source\_Common\CreateMonster.cpp

; 94   : 	DWORD dwTick = GetTickCount();

  00018	8b d8		 mov	 ebx, eax
; File C:\Program Files\Microsoft Visual Studio\2022\Professional\VC\Tools\MSVC\14.44.35207\include\xtree

; 37   :     _Tree_unchecked_const_iterator(_Nodeptr _Pnode, const _Mytree* _Plist) noexcept : _Ptr(_Pnode) {

  0001a	8b 32		 mov	 esi, DWORD PTR [edx]
  0001c	89 75 fc	 mov	 DWORD PTR _it$1[ebp], esi

; 237  :         return !(*this == _Right);

  0001f	3b f2		 cmp	 esi, edx
; File C:\IAGOS\server\v18\Source\Source\_Common\CreateMonster.cpp

; 96   : 	for( MAPINFO::iterator it=m_mapCreateMonsterInfo.begin(); it!=m_mapCreateMonsterInfo.end(); it++ )

  00021	74 4f		 je	 SHORT $LN97@ProcessRem
$LL4@ProcessRem:

; 97   : 	{
; 98   : 		CREATE_MONSTER_INFO* pCreateMonsterInfo = &it->second;
; 99   : 		if( dwTick >= pCreateMonsterInfo->dwEndTick )

  00023	3b 5e 18	 cmp	 ebx, DWORD PTR [esi+24]
  00026	72 3a		 jb	 SHORT $LN2@ProcessRem

; 100  : 		{
; 101  : 			CMover* pMover = prj.GetMover( it->first );

  00028	ff 76 10	 push	 DWORD PTR [esi+16]
  0002b	b9 00 00 00 00	 mov	 ecx, OFFSET ?prj@@3VCProject@@A ; prj
  00030	e8 00 00 00 00	 call	 ?GetMover@CProject@@QAEPAVCMover@@K@Z ; CProject::GetMover
; File C:\IAGOS\server\v18\Source\Source\_Common\Obj.h

; 327  : 	return pObj && ( pObj->IsDelete() == FALSE ); 

  00035	85 c0		 test	 eax, eax
  00037	74 29		 je	 SHORT $LN2@ProcessRem

; 180  : 	BOOL			IsDelete()	{ return (m_dwFlags & OBJ_FLAG_DELETE);  }

  00039	f6 40 04 01	 test	 BYTE PTR [eax+4], 1

; 327  : 	return pObj && ( pObj->IsDelete() == FALSE ); 

  0003d	75 23		 jne	 SHORT $LN2@ProcessRem
; File C:\IAGOS\server\v18\Source\Source\_Common\Mover.h

; 1251 : 	BOOL			IsLive() { return m_pActMover->IsDie() == FALSE || m_nHitPoint > 0; }		// && ¸¦  ||·Î ąŮ˛ĺŔ˝.  !=¸¦ >·Î ąŮ˛Ţ

  0003f	8b 88 38 02 00
	00		 mov	 ecx, DWORD PTR [eax+568]
  00045	f7 41 04 00 00
	00 08		 test	 DWORD PTR [ecx+4], 134217728 ; 08000000H
  0004c	74 09		 je	 SHORT $LN89@ProcessRem
  0004e	83 b8 f8 05 00
	00 00		 cmp	 DWORD PTR [eax+1528], 0
  00055	7e 0b		 jle	 SHORT $LN2@ProcessRem
$LN89@ProcessRem:
; File C:\IAGOS\server\v18\Source\Source\_Common\CreateMonster.cpp

; 107  : 					pMover->Delete();

  00057	8b c8		 mov	 ecx, eax
  00059	c6 46 1c 52	 mov	 BYTE PTR [esi+28], 82	; 00000052H
  0005d	e8 00 00 00 00	 call	 ?Delete@CObj@@QAEXXZ	; CObj::Delete
$LN2@ProcessRem:
; File C:\Program Files\Microsoft Visual Studio\2022\Professional\VC\Tools\MSVC\14.44.35207\include\xtree

; 198  :         _Mybase::operator++();

  00062	8d 4d fc	 lea	 ecx, DWORD PTR _it$1[ebp]
  00065	e8 00 00 00 00	 call	 ??E?$_Tree_unchecked_const_iterator@V?$_Tree_val@U?$_Tree_simple_types@U?$pair@$$CBKUCREATE_MONSTER_INFO@@@std@@@std@@@std@@U_Iterator_base0@2@@std@@QAEAAV01@XZ ; std::_Tree_unchecked_const_iterator<std::_Tree_val<std::_Tree_simple_types<std::pair<unsigned long const ,CREATE_MONSTER_INFO> > >,std::_Iterator_base0>::operator++

; 237  :         return !(*this == _Right);

  0006a	8b 75 fc	 mov	 esi, DWORD PTR _it$1[ebp]
  0006d	3b 77 0c	 cmp	 esi, DWORD PTR [edi+12]
; File C:\IAGOS\server\v18\Source\Source\_Common\CreateMonster.cpp

; 96   : 	for( MAPINFO::iterator it=m_mapCreateMonsterInfo.begin(); it!=m_mapCreateMonsterInfo.end(); it++ )

  00070	75 b1		 jne	 SHORT $LL4@ProcessRem
$LN97@ProcessRem:
  00072	5e		 pop	 esi
  00073	5b		 pop	 ebx
$LN3@ProcessRem:
  00074	5f		 pop	 edi

; 108  : 				}
; 109  : 			}
; 110  : 		}
; 111  : 	}
; 112  : }

  00075	8b e5		 mov	 esp, ebp
  00077	5d		 pop	 ebp
  00078	c3		 ret	 0
?ProcessRemoveMonster@CCreateMonster@@QAEXXZ ENDP	; CCreateMonster::ProcessRemoveMonster
_TEXT	ENDS
; Function compile flags: /Ogtp
; File C:\IAGOS\server\v18\Source\Source\_Common\CreateMonster.cpp
; File C:\Program Files\Microsoft Visual Studio\2022\Professional\VC\Tools\MSVC\14.44.35207\include\xtree
; File C:\IAGOS\server\v18\Source\Source\_Common\CreateMonster.cpp
; File C:\Program Files\Microsoft Visual Studio\2022\Professional\VC\Tools\MSVC\14.44.35207\include\xtree
; File C:\Program Files\Microsoft Visual Studio\2022\Professional\VC\Tools\MSVC\14.44.35207\include\type_traits
; File C:\Program Files\Microsoft Visual Studio\2022\Professional\VC\Tools\MSVC\14.44.35207\include\xtree
; File C:\IAGOS\server\v18\Source\Source\_Common\CreateMonster.cpp
;	COMDAT ?SetState@CCreateMonster@@QAEXKD@Z
_TEXT	SEGMENT
__Loc$1 = -12						; size = 12
_objId$ = 8						; size = 4
_chState$ = 12						; size = 1
?SetState@CCreateMonster@@QAEXKD@Z PROC			; CCreateMonster::SetState, COMDAT
; _this$ = ecx

; 72   : {

  00000	55		 push	 ebp
  00001	8b ec		 mov	 ebp, esp
  00003	83 ec 0c	 sub	 esp, 12			; 0000000cH
  00006	56		 push	 esi
; File C:\Program Files\Microsoft Visual Studio\2022\Professional\VC\Tools\MSVC\14.44.35207\include\xtree

; 1384 :         const _Tree_find_result<_Nodeptr> _Loc = _Find_lower_bound(_Keyval);

  00007	8d 45 08	 lea	 eax, DWORD PTR _objId$[ebp]
  0000a	50		 push	 eax
; File C:\IAGOS\server\v18\Source\Source\_Common\CreateMonster.cpp

; 73   : 	MAPINFO::iterator it = m_mapCreateMonsterInfo.find( objId );

  0000b	8d 71 0c	 lea	 esi, DWORD PTR [ecx+12]
; File C:\Program Files\Microsoft Visual Studio\2022\Professional\VC\Tools\MSVC\14.44.35207\include\xtree

; 1384 :         const _Tree_find_result<_Nodeptr> _Loc = _Find_lower_bound(_Keyval);

  0000e	8d 45 f4	 lea	 eax, DWORD PTR __Loc$1[ebp]
  00011	8b ce		 mov	 ecx, esi
  00013	50		 push	 eax
  00014	e8 00 00 00 00	 call	 ??$_Find_lower_bound@K@?$_Tree@V?$_Tmap_traits@KUCREATE_MONSTER_INFO@@U?$less@K@std@@V?$allocator@U?$pair@$$CBKUCREATE_MONSTER_INFO@@@std@@@3@$0A@@std@@@std@@IBE?AU?$_Tree_find_result@PAU?$_Tree_node@U?$pair@$$CBKUCREATE_MONSTER_INFO@@@std@@PAX@std@@@1@ABK@Z ; std::_Tree<std::_Tmap_traits<unsigned long,CREATE_MONSTER_INFO,std::less<unsigned long>,std::allocator<std::pair<unsigned long const ,CREATE_MONSTER_INFO> >,0> >::_Find_lower_bound<unsigned long>

; 1624 :         return !_Bound->_Isnil && !_DEBUG_LT_PRED(_Getcomp(), _Keyval, _Traits::_Kfn(_Bound->_Myval));

  00019	8b 4d fc	 mov	 ecx, DWORD PTR __Loc$1[ebp+8]
  0001c	80 79 0d 00	 cmp	 BYTE PTR [ecx+13], 0
  00020	75 12		 jne	 SHORT $LN1@SetState
; File C:\Program Files\Microsoft Visual Studio\2022\Professional\VC\Tools\MSVC\14.44.35207\include\type_traits

; 2380 :         return _Left < _Right;

  00022	8b 45 08	 mov	 eax, DWORD PTR _objId$[ebp]
  00025	3b 41 10	 cmp	 eax, DWORD PTR [ecx+16]
; File C:\Program Files\Microsoft Visual Studio\2022\Professional\VC\Tools\MSVC\14.44.35207\include\xtree

; 1624 :         return !_Bound->_Isnil && !_DEBUG_LT_PRED(_Getcomp(), _Keyval, _Traits::_Kfn(_Bound->_Myval));

  00028	72 0a		 jb	 SHORT $LN1@SetState

; 37   :     _Tree_unchecked_const_iterator(_Nodeptr _Pnode, const _Mytree* _Plist) noexcept : _Ptr(_Pnode) {

  0002a	3b 0e		 cmp	 ecx, DWORD PTR [esi]
; File C:\IAGOS\server\v18\Source\Source\_Common\CreateMonster.cpp

; 74   : 	if( it == m_mapCreateMonsterInfo.end() )

  0002c	74 06		 je	 SHORT $LN1@SetState

; 75   : 		return;
; 76   : 
; 77   : 	it->second.chState = chState;

  0002e	8a 45 0c	 mov	 al, BYTE PTR _chState$[ebp]
  00031	88 41 1c	 mov	 BYTE PTR [ecx+28], al
$LN1@SetState:
  00034	5e		 pop	 esi

; 78   : }

  00035	8b e5		 mov	 esp, ebp
  00037	5d		 pop	 ebp
  00038	c2 08 00	 ret	 8
?SetState@CCreateMonster@@QAEXKD@Z ENDP			; CCreateMonster::SetState
_TEXT	ENDS
; Function compile flags: /Ogtp
; File C:\IAGOS\server\v18\Source\Source\_Common\CreateMonster.cpp
; File C:\IAGOS\server\v18\Source\Source\_Common\LuaBase.h
; File C:\IAGOS\server\v18\Source\Source\_Common\CreateMonster.cpp
; File C:\IAGOS\server\v18\Source\Source\_Common\LuaBase.h
; File C:\IAGOS\server\v18\Source\Source\_Common\CreateMonster.cpp
; File C:\IAGOS\server\v18\Source\Source\_Common\CreateMonster.h
; File C:\Program Files\Microsoft Visual Studio\2022\Professional\VC\Tools\MSVC\14.44.35207\include\xmemory
; File C:\IAGOS\server\v18\Source\Source\_Common\CreateMonster.h
; File C:\Program Files\Microsoft Visual Studio\2022\Professional\VC\Tools\MSVC\14.44.35207\include\xtree
; File C:\Program Files\Microsoft Visual Studio\2022\Professional\VC\Tools\MSVC\14.44.35207\include\xmemory
; File C:\Program Files\Microsoft Visual Studio\2022\Professional\VC\Tools\MSVC\14.44.35207\include\xtree
; File C:\IAGOS\server\v18\Source\Source\_Common\CreateMonster.cpp
; File C:\Program Files\Microsoft Visual Studio\2022\Professional\VC\Tools\MSVC\14.44.35207\include\xtree
; File C:\IAGOS\server\v18\Source\Source\_Common\CreateMonster.cpp
; File C:\Program Files\Microsoft Visual Studio\2022\Professional\VC\Tools\MSVC\14.44.35207\include\xtree
; File C:\Program Files\Microsoft Visual Studio\2022\Professional\VC\Tools\MSVC\14.44.35207\include\utility
; File C:\Program Files\Microsoft Visual Studio\2022\Professional\VC\Tools\MSVC\14.44.35207\include\xtree
; File C:\Program Files\Microsoft Visual Studio\2022\Professional\VC\Tools\MSVC\14.44.35207\include\utility
; File C:\Program Files\Microsoft Visual Studio\2022\Professional\VC\Tools\MSVC\14.44.35207\include\xtree
; File C:\Program Files\Microsoft Visual Studio\2022\Professional\VC\Tools\MSVC\14.44.35207\include\type_traits
; File C:\Program Files\Microsoft Visual Studio\2022\Professional\VC\Tools\MSVC\14.44.35207\include\xtree
; File C:\Program Files\Microsoft Visual Studio\2022\Professional\VC\Tools\MSVC\14.44.35207\include\xmemory
; File C:\Program Files\Microsoft Visual Studio\2022\Professional\VC\Tools\MSVC\14.44.35207\include\xtree
; File C:\Program Files\Microsoft Visual Studio\2022\Professional\VC\Tools\MSVC\14.44.35207\include\xmemory
; File C:\Program Files\Microsoft Visual Studio\2022\Professional\VC\Tools\MSVC\14.44.35207\include\xtree
; File C:\Program Files\Microsoft Visual Studio\2022\Professional\VC\Tools\MSVC\14.44.35207\include\xmemory
; File C:\Program Files\Microsoft Visual Studio\2022\Professional\VC\Tools\MSVC\14.44.35207\include\xtree
; File C:\Program Files\Microsoft Visual Studio\2022\Professional\VC\Tools\MSVC\14.44.35207\include\xmemory
; File C:\Program Files\Microsoft Visual Studio\2022\Professional\VC\Tools\MSVC\14.44.35207\include\xtree
; File C:\Program Files\Microsoft Visual Studio\2022\Professional\VC\Tools\MSVC\14.44.35207\include\utility
; File C:\Program Files\Microsoft Visual Studio\2022\Professional\VC\Tools\MSVC\14.44.35207\include\xtree
; File C:\Program Files\Microsoft Visual Studio\2022\Professional\VC\Tools\MSVC\14.44.35207\include\utility
; File C:\Program Files\Microsoft Visual Studio\2022\Professional\VC\Tools\MSVC\14.44.35207\include\xtree
; File C:\IAGOS\server\v18\Source\Source\_Common\CreateMonster.cpp
; File C:\IAGOS\server\v18\Source\Source\_Common\LuaBase.h
; File C:\IAGOS\server\v18\Source\Source\_Common\CreateMonster.cpp
; File C:\IAGOS\server\v18\Source\Source\_Common\LuaBase.h
; File C:\IAGOS\server\v18\Source\Source\_Common\CreateMonster.cpp
; File C:\Program Files\Microsoft Visual Studio\2022\Professional\VC\Tools\MSVC\14.44.35207\include\xtree
; File C:\IAGOS\server\v18\Source\Source\_Common\CreateMonster.cpp
; File C:\Program Files\Microsoft Visual Studio\2022\Professional\VC\Tools\MSVC\14.44.35207\include\xtree
; File C:\Program Files\Microsoft Visual Studio\2022\Professional\VC\Tools\MSVC\14.44.35207\include\type_traits
; File C:\Program Files\Microsoft Visual Studio\2022\Professional\VC\Tools\MSVC\14.44.35207\include\xtree
; File C:\Program Files\Microsoft Visual Studio\2022\Professional\VC\Tools\MSVC\14.44.35207\include\type_traits
; File C:\Program Files\Microsoft Visual Studio\2022\Professional\VC\Tools\MSVC\14.44.35207\include\xtree
; File C:\Program Files\Microsoft Visual Studio\2022\Professional\VC\Tools\MSVC\14.44.35207\include\type_traits
; File C:\Program Files\Microsoft Visual Studio\2022\Professional\VC\Tools\MSVC\14.44.35207\include\xtree
; File C:\Program Files\Microsoft Visual Studio\2022\Professional\VC\Tools\MSVC\14.44.35207\include\xmemory
; File C:\Program Files\Microsoft Visual Studio\2022\Professional\VC\Tools\MSVC\14.44.35207\include\xtree
; File C:\Program Files\Microsoft Visual Studio\2022\Professional\VC\Tools\MSVC\14.44.35207\include\xmemory
; File C:\Program Files\Microsoft Visual Studio\2022\Professional\VC\Tools\MSVC\14.44.35207\include\utility
; File C:\Program Files\Microsoft Visual Studio\2022\Professional\VC\Tools\MSVC\14.44.35207\include\xmemory
; File C:\Program Files\Microsoft Visual Studio\2022\Professional\VC\Tools\MSVC\14.44.35207\include\xtree
; File C:\Program Files\Microsoft Visual Studio\2022\Professional\VC\Tools\MSVC\14.44.35207\include\utility
; File C:\Program Files\Microsoft Visual Studio\2022\Professional\VC\Tools\MSVC\14.44.35207\include\xtree
; File C:\Program Files\Microsoft Visual Studio\2022\Professional\VC\Tools\MSVC\14.44.35207\include\utility
; File C:\Program Files\Microsoft Visual Studio\2022\Professional\VC\Tools\MSVC\14.44.35207\include\xtree
; File C:\IAGOS\server\v18\Source\Source\_Common\CreateMonster.cpp
; File C:\IAGOS\server\v18\Source\Source\_Common\LuaBase.h
; File C:\IAGOS\server\v18\Source\Source\_Common\CreateMonster.cpp
; File C:\IAGOS\server\v18\Source\Source\_Common\LuaBase.h
; File C:\IAGOS\server\v18\Source\Source\_Common\CreateMonster.cpp
; File C:\Program Files\Microsoft Visual Studio\2022\Professional\VC\Tools\MSVC\14.44.35207\include\xtree
; File C:\IAGOS\server\v18\Source\Source\_Common\CreateMonster.cpp
;	COMDAT ?LoadScript@CCreateMonster@@QAEXXZ
_TEXT	SEGMENT
$T5 = -92						; size = 12
__Loc$6 = -80						; size = 12
tv1495 = -68						; size = 8
$T7 = -60						; size = 8
$T8 = -52						; size = 8
$T9 = -44						; size = 8
_lua$ = -36						; size = 8
$T10 = -28						; size = 4
_this$ = -24						; size = 4
__Myhead$1$ = -24					; size = 4
_this$1$ = -20						; size = 4
_this$1$ = -16						; size = 4
__$EHRec$ = -12						; size = 12
?LoadScript@CCreateMonster@@QAEXXZ PROC			; CCreateMonster::LoadScript, COMDAT
; _this$ = ecx

; 35   : {

  00000	55		 push	 ebp
  00001	8b ec		 mov	 ebp, esp
  00003	6a ff		 push	 -1
  00005	68 00 00 00 00	 push	 __ehhandler$?LoadScript@CCreateMonster@@QAEXXZ
  0000a	64 a1 00 00 00
	00		 mov	 eax, DWORD PTR fs:0
  00010	50		 push	 eax
  00011	83 ec 50	 sub	 esp, 80			; 00000050H
  00014	53		 push	 ebx
  00015	56		 push	 esi
  00016	57		 push	 edi
  00017	a1 00 00 00 00	 mov	 eax, DWORD PTR ___security_cookie
  0001c	33 c5		 xor	 eax, ebp
  0001e	50		 push	 eax
  0001f	8d 45 f4	 lea	 eax, DWORD PTR __$EHRec$[ebp]
  00022	64 a3 00 00 00
	00		 mov	 DWORD PTR fs:0, eax
  00028	8b f1		 mov	 esi, ecx

; 36   : 	CLuaBase lua;

  0002a	8d 4d dc	 lea	 ecx, DWORD PTR _lua$[ebp]
  0002d	e8 00 00 00 00	 call	 ??0CLuaBase@@QAE@XZ	; CLuaBase::CLuaBase

; 37   : 
; 38   : 	if( lua.RunScript( "CreateMonster.lua" ) != 0 )

  00032	68 00 00 00 00	 push	 OFFSET ??_C@_0BC@NNOGDONP@CreateMonster?4lua@
  00037	8d 4d dc	 lea	 ecx, DWORD PTR _lua$[ebp]
  0003a	c7 45 fc 00 00
	00 00		 mov	 DWORD PTR __$EHRec$[ebp+8], 0
  00041	e8 00 00 00 00	 call	 ?RunScript@CLuaBase@@QAEHPBD@Z ; CLuaBase::RunScript
  00046	85 c0		 test	 eax, eax
  00048	0f 85 ab 02 00
	00		 jne	 $LN319@LoadScript

; 44   : 	m_nMaxCreateNum = static_cast<int>( lua.GetGlobalNumber( "m_nMaxCreateNum" ) );

  0004e	68 00 00 00 00	 push	 OFFSET ??_C@_0BA@JFHOHNLN@m_nMaxCreateNum@
  00053	8d 4d dc	 lea	 ecx, DWORD PTR _lua$[ebp]
  00056	e8 00 00 00 00	 call	 ?GetGlobalNumber@CLuaBase@@QAENPAD@Z ; CLuaBase::GetGlobalNumber
  0005b	e8 00 00 00 00	 call	 __ftol2_sse
; File C:\IAGOS\server\v18\Source\Source\_Common\LuaBase.h

; 47   : 	void		GetGloabal( char* szName )					{  lua_getglobal( m_pLuaState, szName );  }

  00060	68 00 00 00 00	 push	 OFFSET ??_C@_0P@HPCDNBKK@tCreateMonster@
  00065	ff 75 e0	 push	 DWORD PTR _lua$[ebp+4]
; File C:\IAGOS\server\v18\Source\Source\_Common\CreateMonster.cpp

; 44   : 	m_nMaxCreateNum = static_cast<int>( lua.GetGlobalNumber( "m_nMaxCreateNum" ) );

  00068	89 06		 mov	 DWORD PTR [esi], eax
; File C:\IAGOS\server\v18\Source\Source\_Common\LuaBase.h

; 47   : 	void		GetGloabal( char* szName )					{  lua_getglobal( m_pLuaState, szName );  }

  0006a	e8 00 00 00 00	 call	 _lua_getglobal

; 40   : 	void		PushNil()									{  lua_pushnil( m_pLuaState );  }

  0006f	ff 75 e0	 push	 DWORD PTR _lua$[ebp+4]
  00072	e8 00 00 00 00	 call	 _lua_pushnil

; 46   : 	int			TableLoop( int nStackPos )					{  return lua_next( m_pLuaState, nStackPos );  }	

  00077	6a fe		 push	 -2			; fffffffeH
  00079	ff 75 e0	 push	 DWORD PTR _lua$[ebp+4]
  0007c	e8 00 00 00 00	 call	 _lua_next
  00081	83 c4 14	 add	 esp, 20			; 00000014H
; File C:\IAGOS\server\v18\Source\Source\_Common\CreateMonster.cpp

; 48   : 	while( lua.TableLoop( -2 ) )

  00084	85 c0		 test	 eax, eax
  00086	0f 84 49 02 00
	00		 je	 $LN3@LoadScript
  0008c	83 c6 04	 add	 esi, 4
  0008f	89 75 f0	 mov	 DWORD PTR _this$1$[ebp], esi
$LL2@LoadScript:

; 49   : 	{
; 50   : 		DWORD dwItemId = static_cast<DWORD>( CScript::GetDefineNum( lua.GetFieldToString( -1, "strItemId" ) ) );

  00092	68 00 00 00 00	 push	 OFFSET ??_C@_09OFFFBNFE@strItemId@
  00097	6a ff		 push	 -1
  00099	8d 4d dc	 lea	 ecx, DWORD PTR _lua$[ebp]
  0009c	e8 00 00 00 00	 call	 ?GetFieldToString@CLuaBase@@QAEPBDHPAD@Z ; CLuaBase::GetFieldToString
  000a1	50		 push	 eax
  000a2	e8 00 00 00 00	 call	 ?GetDefineNum@CScript@@SAHPBD@Z ; CScript::GetDefineNum

; 51   : 		CREATE_MONSTER_PROP* pCreateMonsterProp = new CREATE_MONSTER_PROP;

  000a7	6a 0c		 push	 12			; 0000000cH
  000a9	8b d8		 mov	 ebx, eax
  000ab	e8 00 00 00 00	 call	 ??2@YAPAXI@Z		; operator new
  000b0	8b f8		 mov	 edi, eax
  000b2	83 c4 08	 add	 esp, 8
  000b5	89 7d e4	 mov	 DWORD PTR $T10[ebp], edi
  000b8	c6 45 fc 01	 mov	 BYTE PTR __$EHRec$[ebp+8], 1
  000bc	85 ff		 test	 edi, edi
  000be	74 38		 je	 SHORT $LN8@LoadScript
; File C:\IAGOS\server\v18\Source\Source\_Common\CreateMonster.h

; 11   : 	CREATE_MONSTER_PROP() :	dwKeepTime(0) {}

  000c0	8d 77 04	 lea	 esi, DWORD PTR [edi+4]
  000c3	c7 07 00 00 00
	00		 mov	 DWORD PTR [edi], 0
; File C:\Program Files\Microsoft Visual Studio\2022\Professional\VC\Tools\MSVC\14.44.35207\include\xmemory

; 136  :         return ::operator new(_Bytes);

  000c9	6a 18		 push	 24			; 00000018H
; File C:\IAGOS\server\v18\Source\Source\_Common\CreateMonster.h

; 11   : 	CREATE_MONSTER_PROP() :	dwKeepTime(0) {}

  000cb	89 75 e8	 mov	 DWORD PTR _this$[ebp], esi
; File C:\Program Files\Microsoft Visual Studio\2022\Professional\VC\Tools\MSVC\14.44.35207\include\xtree

; 450  :     _Tree_val() noexcept : _Myhead(), _Mysize(0) {}

  000ce	c7 06 00 00 00
	00		 mov	 DWORD PTR [esi], 0
  000d4	c7 46 04 00 00
	00 00		 mov	 DWORD PTR [esi+4], 0
; File C:\Program Files\Microsoft Visual Studio\2022\Professional\VC\Tools\MSVC\14.44.35207\include\xmemory

; 136  :         return ::operator new(_Bytes);

  000db	e8 00 00 00 00	 call	 ??2@YAPAXI@Z		; operator new
  000e0	83 c4 04	 add	 esp, 4
; File C:\Program Files\Microsoft Visual Studio\2022\Professional\VC\Tools\MSVC\14.44.35207\include\xtree

; 346  :         _Construct_in_place(_Pnode->_Left, _Pnode);

  000e3	89 00		 mov	 DWORD PTR [eax], eax

; 347  :         _Construct_in_place(_Pnode->_Parent, _Pnode);

  000e5	89 40 04	 mov	 DWORD PTR [eax+4], eax

; 348  :         _Construct_in_place(_Pnode->_Right, _Pnode);

  000e8	89 40 08	 mov	 DWORD PTR [eax+8], eax

; 349  :         _Pnode->_Color = _Black;

  000eb	66 c7 40 0c 01
	01		 mov	 WORD PTR [eax+12], 257	; 00000101H

; 1957 :         _Scary->_Myhead = _Node::_Buyheadnode(_Getal());

  000f1	89 06		 mov	 DWORD PTR [esi], eax
; File C:\IAGOS\server\v18\Source\Source\_Common\CreateMonster.cpp

; 51   : 		CREATE_MONSTER_PROP* pCreateMonsterProp = new CREATE_MONSTER_PROP;

  000f3	8b 75 f0	 mov	 esi, DWORD PTR _this$1$[ebp]
  000f6	eb 02		 jmp	 SHORT $LN9@LoadScript
$LN8@LoadScript:
  000f8	33 ff		 xor	 edi, edi
$LN9@LoadScript:
; File C:\Program Files\Microsoft Visual Studio\2022\Professional\VC\Tools\MSVC\14.44.35207\include\xtree

; 1017 :             _Loc                = _Find_lower_bound(_Keyval);

  000fa	8d 45 d4	 lea	 eax, DWORD PTR $T9[ebp]
; File C:\IAGOS\server\v18\Source\Source\_Common\CreateMonster.cpp

; 51   : 		CREATE_MONSTER_PROP* pCreateMonsterProp = new CREATE_MONSTER_PROP;

  000fd	c6 45 fc 00	 mov	 BYTE PTR __$EHRec$[ebp+8], 0
; File C:\Program Files\Microsoft Visual Studio\2022\Professional\VC\Tools\MSVC\14.44.35207\include\xtree

; 1017 :             _Loc                = _Find_lower_bound(_Keyval);

  00101	50		 push	 eax
  00102	8d 45 a4	 lea	 eax, DWORD PTR $T5[ebp]
; File C:\Program Files\Microsoft Visual Studio\2022\Professional\VC\Tools\MSVC\14.44.35207\include\utility

; 274  :         : first(_STD forward<_Other1>(_Val1)), second(_STD forward<_Other2>(_Val2)) {

  00105	89 5d d4	 mov	 DWORD PTR $T9[ebp], ebx
; File C:\Program Files\Microsoft Visual Studio\2022\Professional\VC\Tools\MSVC\14.44.35207\include\xtree

; 1017 :             _Loc                = _Find_lower_bound(_Keyval);

  00108	50		 push	 eax
  00109	8b ce		 mov	 ecx, esi
; File C:\Program Files\Microsoft Visual Studio\2022\Professional\VC\Tools\MSVC\14.44.35207\include\utility

; 274  :         : first(_STD forward<_Other1>(_Val1)), second(_STD forward<_Other2>(_Val2)) {

  0010b	89 7d d8	 mov	 DWORD PTR $T9[ebp+4], edi
; File C:\Program Files\Microsoft Visual Studio\2022\Professional\VC\Tools\MSVC\14.44.35207\include\xtree

; 1017 :             _Loc                = _Find_lower_bound(_Keyval);

  0010e	e8 00 00 00 00	 call	 ??$_Find_lower_bound@K@?$_Tree@V?$_Tmap_traits@KPAUCREATE_MONSTER_PROP@@U?$less@K@std@@V?$allocator@U?$pair@$$CBKPAUCREATE_MONSTER_PROP@@@std@@@3@$0A@@std@@@std@@IBE?AU?$_Tree_find_result@PAU?$_Tree_node@U?$pair@$$CBKPAUCREATE_MONSTER_PROP@@@std@@PAX@std@@@1@ABK@Z ; std::_Tree<std::_Tmap_traits<unsigned long,CREATE_MONSTER_PROP *,std::less<unsigned long>,std::allocator<std::pair<unsigned long const ,CREATE_MONSTER_PROP *> >,0> >::_Find_lower_bound<unsigned long>
  00113	f3 0f 7e 00	 movq	 xmm0, QWORD PTR [eax]
  00117	8b 40 08	 mov	 eax, DWORD PTR [eax+8]
  0011a	66 0f d6 45 b0	 movq	 QWORD PTR __Loc$6[ebp], xmm0

; 1624 :         return !_Bound->_Isnil && !_DEBUG_LT_PRED(_Getcomp(), _Keyval, _Traits::_Kfn(_Bound->_Myval));

  0011f	80 78 0d 00	 cmp	 BYTE PTR [eax+13], 0
  00123	75 05		 jne	 SHORT $LN73@LoadScript
; File C:\Program Files\Microsoft Visual Studio\2022\Professional\VC\Tools\MSVC\14.44.35207\include\type_traits

; 2380 :         return _Left < _Right;

  00125	3b 58 10	 cmp	 ebx, DWORD PTR [eax+16]
; File C:\Program Files\Microsoft Visual Studio\2022\Professional\VC\Tools\MSVC\14.44.35207\include\xtree

; 1624 :         return !_Bound->_Isnil && !_DEBUG_LT_PRED(_Getcomp(), _Keyval, _Traits::_Kfn(_Bound->_Myval));

  00128	73 58		 jae	 SHORT $LN153@LoadScript
$LN73@LoadScript:

; 1648 :         if (max_size() == _Get_scary()->_Mysize) {

  0012a	81 7e 04 aa aa
	aa 0a		 cmp	 DWORD PTR [esi+4], 178956970 ; 0aaaaaaaH
  00131	0f 84 d6 01 00
	00		 je	 $LN301@LoadScript
; File C:\Program Files\Microsoft Visual Studio\2022\Professional\VC\Tools\MSVC\14.44.35207\include\xmemory

; 1160 :     _CONSTEXPR20 explicit _Alloc_construct_ptr(_Alloc& _Al_) : _Al(_Al_), _Ptr(nullptr) {}

  00137	8b 45 f0	 mov	 eax, DWORD PTR _this$1$[ebp]
; File C:\Program Files\Microsoft Visual Studio\2022\Professional\VC\Tools\MSVC\14.44.35207\include\xtree

; 1023 :             _Inserted = _Tree_temp_node<_Alnode>(_Getal(), _Scary->_Myhead, _STD forward<_Valtys>(_Vals)...)._Release();

  0013a	8b 36		 mov	 esi, DWORD PTR [esi]
; File C:\Program Files\Microsoft Visual Studio\2022\Professional\VC\Tools\MSVC\14.44.35207\include\xmemory

; 1160 :     _CONSTEXPR20 explicit _Alloc_construct_ptr(_Alloc& _Al_) : _Al(_Al_), _Ptr(nullptr) {}

  0013c	89 45 cc	 mov	 DWORD PTR $T8[ebp], eax

; 136  :         return ::operator new(_Bytes);

  0013f	6a 18		 push	 24			; 00000018H
; File C:\Program Files\Microsoft Visual Studio\2022\Professional\VC\Tools\MSVC\14.44.35207\include\xtree

; 808  :     explicit _Tree_temp_node_alloc(_Alnode& _Al_) : _Alloc_construct_ptr<_Alnode>(_Al_) {

  00141	c6 45 fc 02	 mov	 BYTE PTR __$EHRec$[ebp+8], 2
; File C:\Program Files\Microsoft Visual Studio\2022\Professional\VC\Tools\MSVC\14.44.35207\include\xmemory

; 1167 :         _Ptr = nullptr; // if allocate throws, prevents double-free

  00145	c7 45 d0 00 00
	00 00		 mov	 DWORD PTR $T8[ebp+4], 0

; 136  :         return ::operator new(_Bytes);

  0014c	e8 00 00 00 00	 call	 ??2@YAPAXI@Z		; operator new
; File C:\Program Files\Microsoft Visual Studio\2022\Professional\VC\Tools\MSVC\14.44.35207\include\xtree

; 1042 :         return {_Scary->_Insert_node(_Loc._Location, _Inserted), true};

  00151	8b 4d f0	 mov	 ecx, DWORD PTR _this$1$[ebp]
; File C:\Program Files\Microsoft Visual Studio\2022\Professional\VC\Tools\MSVC\14.44.35207\include\xmemory

; 136  :         return ::operator new(_Bytes);

  00154	83 c4 04	 add	 esp, 4
; File C:\Program Files\Microsoft Visual Studio\2022\Professional\VC\Tools\MSVC\14.44.35207\include\xtree

; 810  :     }

  00157	c6 45 fc 00	 mov	 BYTE PTR __$EHRec$[ebp+8], 0
; File C:\Program Files\Microsoft Visual Studio\2022\Professional\VC\Tools\MSVC\14.44.35207\include\utility

; 774  :     _Val         = static_cast<_Other&&>(_New_val);

  0015b	c7 45 d0 00 00
	00 00		 mov	 DWORD PTR $T8[ebp+4], 0

; 303  :         : first(_STD forward<_Other1>(_Right.first)), second(_STD forward<_Other2>(_Right.second)) {}

  00162	89 58 10	 mov	 DWORD PTR [eax+16], ebx
; File C:\Program Files\Microsoft Visual Studio\2022\Professional\VC\Tools\MSVC\14.44.35207\include\xtree

; 1042 :         return {_Scary->_Insert_node(_Loc._Location, _Inserted), true};

  00165	50		 push	 eax
  00166	ff 75 b4	 push	 DWORD PTR __Loc$6[ebp+4]
; File C:\Program Files\Microsoft Visual Studio\2022\Professional\VC\Tools\MSVC\14.44.35207\include\utility

; 303  :         : first(_STD forward<_Other1>(_Right.first)), second(_STD forward<_Other2>(_Right.second)) {}

  00169	89 78 14	 mov	 DWORD PTR [eax+20], edi
; File C:\Program Files\Microsoft Visual Studio\2022\Professional\VC\Tools\MSVC\14.44.35207\include\xtree

; 1042 :         return {_Scary->_Insert_node(_Loc._Location, _Inserted), true};

  0016c	ff 75 b0	 push	 DWORD PTR __Loc$6[ebp]

; 831  :         _Construct_in_place(this->_Ptr->_Left, _Myhead);

  0016f	89 30		 mov	 DWORD PTR [eax], esi

; 832  :         _Construct_in_place(this->_Ptr->_Parent, _Myhead);

  00171	89 70 04	 mov	 DWORD PTR [eax+4], esi

; 833  :         _Construct_in_place(this->_Ptr->_Right, _Myhead);

  00174	89 70 08	 mov	 DWORD PTR [eax+8], esi

; 834  :         this->_Ptr->_Color = _Red;

  00177	66 c7 40 0c 00
	00		 mov	 WORD PTR [eax+12], 0

; 1042 :         return {_Scary->_Insert_node(_Loc._Location, _Inserted), true};

  0017d	e8 00 00 00 00	 call	 ?_Insert_node@?$_Tree_val@U?$_Tree_simple_types@U?$pair@$$CBKPAUCREATE_MONSTER_PROP@@@std@@@std@@@std@@QAEPAU?$_Tree_node@U?$pair@$$CBKPAUCREATE_MONSTER_PROP@@@std@@PAX@2@U?$_Tree_id@PAU?$_Tree_node@U?$pair@$$CBKPAUCREATE_MONSTER_PROP@@@std@@PAX@std@@@2@QAU32@@Z ; std::_Tree_val<std::_Tree_simple_types<std::pair<unsigned long const ,CREATE_MONSTER_PROP *> > >::_Insert_node
$LN153@LoadScript:
; File C:\IAGOS\server\v18\Source\Source\_Common\CreateMonster.cpp

; 53   : 		pCreateMonsterProp->dwKeepTime = static_cast<DWORD>( lua.GetFieldToNumber( -1, "dwKeepTime" ) );

  00182	68 00 00 00 00	 push	 OFFSET ??_C@_0L@KFLIHONN@dwKeepTime@
  00187	6a ff		 push	 -1
  00189	8d 4d dc	 lea	 ecx, DWORD PTR _lua$[ebp]
  0018c	e8 00 00 00 00	 call	 ?GetFieldToNumber@CLuaBase@@QAENHPAD@Z ; CLuaBase::GetFieldToNumber
  00191	e8 00 00 00 00	 call	 __ftol2
; File C:\IAGOS\server\v18\Source\Source\_Common\LuaBase.h

; 51   : 	void		GetField( int nStackPos, char* szName )		{  lua_getfield( m_pLuaState, nStackPos, szName );  }

  00196	68 00 00 00 00	 push	 OFFSET ??_C@_08EABLEDPJ@tMonster@
; File C:\IAGOS\server\v18\Source\Source\_Common\CreateMonster.cpp

; 53   : 		pCreateMonsterProp->dwKeepTime = static_cast<DWORD>( lua.GetFieldToNumber( -1, "dwKeepTime" ) );

  0019b	89 07		 mov	 DWORD PTR [edi], eax
; File C:\IAGOS\server\v18\Source\Source\_Common\LuaBase.h

; 51   : 	void		GetField( int nStackPos, char* szName )		{  lua_getfield( m_pLuaState, nStackPos, szName );  }

  0019d	6a ff		 push	 -1
  0019f	ff 75 e0	 push	 DWORD PTR _lua$[ebp+4]
  001a2	e8 00 00 00 00	 call	 _lua_getfield

; 40   : 	void		PushNil()									{  lua_pushnil( m_pLuaState );  }

  001a7	ff 75 e0	 push	 DWORD PTR _lua$[ebp+4]
  001aa	e8 00 00 00 00	 call	 _lua_pushnil

; 46   : 	int			TableLoop( int nStackPos )					{  return lua_next( m_pLuaState, nStackPos );  }	

  001af	6a fe		 push	 -2			; fffffffeH
  001b1	ff 75 e0	 push	 DWORD PTR _lua$[ebp+4]
  001b4	e8 00 00 00 00	 call	 _lua_next
  001b9	83 c4 18	 add	 esp, 24			; 00000018H
; File C:\IAGOS\server\v18\Source\Source\_Common\CreateMonster.cpp

; 58   : 		while( lua.TableLoop( -2 ) )

  001bc	85 c0		 test	 eax, eax
  001be	0f 84 ee 00 00
	00		 je	 $LN305@LoadScript
  001c4	8d 4f 04	 lea	 ecx, DWORD PTR [edi+4]
  001c7	89 4d ec	 mov	 DWORD PTR _this$1$[ebp], ecx
  001ca	66 0f 1f 44 00
	00		 npad	 6
$LL4@LoadScript:

; 59   : 		{
; 60   : 			DWORD dwMonsterId = static_cast<DWORD>( CScript::GetDefineNum( lua.GetFieldToString( -1, "strMonsterId" ) ) );

  001d0	68 00 00 00 00	 push	 OFFSET ??_C@_0N@PIEFIFMF@strMonsterId@
  001d5	6a ff		 push	 -1
  001d7	8d 4d dc	 lea	 ecx, DWORD PTR _lua$[ebp]
  001da	e8 00 00 00 00	 call	 ?GetFieldToString@CLuaBase@@QAEPBDHPAD@Z ; CLuaBase::GetFieldToString
  001df	50		 push	 eax
  001e0	e8 00 00 00 00	 call	 ?GetDefineNum@CScript@@SAHPBD@Z ; CScript::GetDefineNum
  001e5	83 c4 04	 add	 esp, 4

; 61   : 			int nProbability = static_cast<int>( lua.GetFieldToNumber( -1, "nProbability" ) );

  001e8	8d 4d dc	 lea	 ecx, DWORD PTR _lua$[ebp]
  001eb	8b d8		 mov	 ebx, eax
  001ed	68 00 00 00 00	 push	 OFFSET ??_C@_0N@FEKIKLPP@nProbability@
  001f2	6a ff		 push	 -1
  001f4	e8 00 00 00 00	 call	 ?GetFieldToNumber@CLuaBase@@QAENHPAD@Z ; CLuaBase::GetFieldToNumber
; File C:\Program Files\Microsoft Visual Studio\2022\Professional\VC\Tools\MSVC\14.44.35207\include\xtree

; 1630 :         _Tree_find_result<_Nodeptr> _Result{{_Scary->_Myhead->_Parent, _Tree_child::_Right}, _Scary->_Myhead};

  001f9	8b 45 ec	 mov	 eax, DWORD PTR _this$1$[ebp]
  001fc	33 f6		 xor	 esi, esi
; File C:\IAGOS\server\v18\Source\Source\_Common\CreateMonster.cpp

; 61   : 			int nProbability = static_cast<int>( lua.GetFieldToNumber( -1, "nProbability" ) );

  001fe	dd 5d bc	 fstp	 QWORD PTR tv1495[ebp]
; File C:\Program Files\Microsoft Visual Studio\2022\Professional\VC\Tools\MSVC\14.44.35207\include\xtree

; 1630 :         _Tree_find_result<_Nodeptr> _Result{{_Scary->_Myhead->_Parent, _Tree_child::_Right}, _Scary->_Myhead};

  00201	8b 08		 mov	 ecx, DWORD PTR [eax]
  00203	89 4d e8	 mov	 DWORD PTR __Myhead$1$[ebp], ecx
  00206	8b 79 04	 mov	 edi, DWORD PTR [ecx+4]

; 1631 :         _Nodeptr _Trynode = _Result._Location._Parent;
; 1632 :         while (!_Trynode->_Isnil) {

  00209	80 7f 0d 00	 cmp	 BYTE PTR [edi+13], 0
  0020d	75 22		 jne	 SHORT $LN191@LoadScript
; File C:\Program Files\Microsoft Visual Studio\2022\Professional\VC\Tools\MSVC\14.44.35207\include\type_traits

; 2380 :         return _Left < _Right;

  0020f	8b c7		 mov	 eax, edi
$LL190@LoadScript:
; File C:\Program Files\Microsoft Visual Studio\2022\Professional\VC\Tools\MSVC\14.44.35207\include\xtree

; 1633 :             _Result._Location._Parent = _Trynode;

  00211	8b f8		 mov	 edi, eax
; File C:\Program Files\Microsoft Visual Studio\2022\Professional\VC\Tools\MSVC\14.44.35207\include\type_traits

; 2380 :         return _Left < _Right;

  00213	39 58 10	 cmp	 DWORD PTR [eax+16], ebx
; File C:\Program Files\Microsoft Visual Studio\2022\Professional\VC\Tools\MSVC\14.44.35207\include\xtree

; 1634 :             if (_DEBUG_LT_PRED(_Getcomp(), _Traits::_Kfn(_Trynode->_Myval), _Keyval)) {

  00216	73 07		 jae	 SHORT $LN192@LoadScript

; 1635 :                 _Result._Location._Child = _Tree_child::_Right;
; 1636 :                 _Trynode                 = _Trynode->_Right;

  00218	8b 40 08	 mov	 eax, DWORD PTR [eax+8]
  0021b	33 f6		 xor	 esi, esi

; 1637 :             } else {

  0021d	eb 09		 jmp	 SHORT $LN193@LoadScript
$LN192@LoadScript:

; 1638 :                 _Result._Location._Child = _Tree_child::_Left;
; 1639 :                 _Result._Bound           = _Trynode;

  0021f	8b c8		 mov	 ecx, eax
  00221	be 01 00 00 00	 mov	 esi, 1

; 1640 :                 _Trynode                 = _Trynode->_Left;

  00226	8b 00		 mov	 eax, DWORD PTR [eax]
$LN193@LoadScript:

; 1631 :         _Nodeptr _Trynode = _Result._Location._Parent;
; 1632 :         while (!_Trynode->_Isnil) {

  00228	80 78 0d 00	 cmp	 BYTE PTR [eax+13], 0
  0022c	74 e3		 je	 SHORT $LL190@LoadScript
  0022e	8b 45 ec	 mov	 eax, DWORD PTR _this$1$[ebp]
$LN191@LoadScript:

; 1624 :         return !_Bound->_Isnil && !_DEBUG_LT_PRED(_Getcomp(), _Keyval, _Traits::_Kfn(_Bound->_Myval));

  00231	80 79 0d 00	 cmp	 BYTE PTR [ecx+13], 0
  00235	75 05		 jne	 SHORT $LN315@LoadScript
; File C:\Program Files\Microsoft Visual Studio\2022\Professional\VC\Tools\MSVC\14.44.35207\include\type_traits

; 2380 :         return _Left < _Right;

  00237	3b 59 10	 cmp	 ebx, DWORD PTR [ecx+16]
; File C:\Program Files\Microsoft Visual Studio\2022\Professional\VC\Tools\MSVC\14.44.35207\include\xtree

; 1624 :         return !_Bound->_Isnil && !_DEBUG_LT_PRED(_Getcomp(), _Keyval, _Traits::_Kfn(_Bound->_Myval));

  0023a	73 57		 jae	 SHORT $LN280@LoadScript
$LN315@LoadScript:

; 1648 :         if (max_size() == _Get_scary()->_Mysize) {

  0023c	81 78 04 aa aa
	aa 0a		 cmp	 DWORD PTR [eax+4], 178956970 ; 0aaaaaaaH
  00243	0f 84 c4 00 00
	00		 je	 $LN301@LoadScript
; File C:\Program Files\Microsoft Visual Studio\2022\Professional\VC\Tools\MSVC\14.44.35207\include\xmemory

; 1160 :     _CONSTEXPR20 explicit _Alloc_construct_ptr(_Alloc& _Al_) : _Al(_Al_), _Ptr(nullptr) {}

  00249	89 45 c4	 mov	 DWORD PTR $T7[ebp], eax

; 136  :         return ::operator new(_Bytes);

  0024c	6a 18		 push	 24			; 00000018H
; File C:\Program Files\Microsoft Visual Studio\2022\Professional\VC\Tools\MSVC\14.44.35207\include\xtree

; 808  :     explicit _Tree_temp_node_alloc(_Alnode& _Al_) : _Alloc_construct_ptr<_Alnode>(_Al_) {

  0024e	c6 45 fc 03	 mov	 BYTE PTR __$EHRec$[ebp+8], 3
; File C:\Program Files\Microsoft Visual Studio\2022\Professional\VC\Tools\MSVC\14.44.35207\include\xmemory

; 1167 :         _Ptr = nullptr; // if allocate throws, prevents double-free

  00252	c7 45 c8 00 00
	00 00		 mov	 DWORD PTR $T7[ebp+4], 0

; 136  :         return ::operator new(_Bytes);

  00259	e8 00 00 00 00	 call	 ??2@YAPAXI@Z		; operator new
; File C:\Program Files\Microsoft Visual Studio\2022\Professional\VC\Tools\MSVC\14.44.35207\include\utility

; 303  :         : first(_STD forward<_Other1>(_Right.first)), second(_STD forward<_Other2>(_Right.second)) {}

  0025e	f2 0f 2c 4d bc	 cvttsd2si ecx, QWORD PTR tv1495[ebp]
; File C:\Program Files\Microsoft Visual Studio\2022\Professional\VC\Tools\MSVC\14.44.35207\include\xmemory

; 136  :         return ::operator new(_Bytes);

  00263	83 c4 04	 add	 esp, 4
; File C:\Program Files\Microsoft Visual Studio\2022\Professional\VC\Tools\MSVC\14.44.35207\include\xtree

; 810  :     }

  00266	c6 45 fc 00	 mov	 BYTE PTR __$EHRec$[ebp+8], 0
; File C:\Program Files\Microsoft Visual Studio\2022\Professional\VC\Tools\MSVC\14.44.35207\include\utility

; 774  :     _Val         = static_cast<_Other&&>(_New_val);

  0026a	c7 45 c8 00 00
	00 00		 mov	 DWORD PTR $T7[ebp+4], 0

; 303  :         : first(_STD forward<_Other1>(_Right.first)), second(_STD forward<_Other2>(_Right.second)) {}

  00271	89 58 10	 mov	 DWORD PTR [eax+16], ebx
; File C:\Program Files\Microsoft Visual Studio\2022\Professional\VC\Tools\MSVC\14.44.35207\include\xtree

; 1042 :         return {_Scary->_Insert_node(_Loc._Location, _Inserted), true};

  00274	50		 push	 eax
  00275	56		 push	 esi
  00276	57		 push	 edi
; File C:\Program Files\Microsoft Visual Studio\2022\Professional\VC\Tools\MSVC\14.44.35207\include\utility

; 303  :         : first(_STD forward<_Other1>(_Right.first)), second(_STD forward<_Other2>(_Right.second)) {}

  00277	89 48 14	 mov	 DWORD PTR [eax+20], ecx
; File C:\Program Files\Microsoft Visual Studio\2022\Professional\VC\Tools\MSVC\14.44.35207\include\xtree

; 831  :         _Construct_in_place(this->_Ptr->_Left, _Myhead);

  0027a	8b 4d e8	 mov	 ecx, DWORD PTR __Myhead$1$[ebp]
  0027d	89 08		 mov	 DWORD PTR [eax], ecx

; 832  :         _Construct_in_place(this->_Ptr->_Parent, _Myhead);

  0027f	89 48 04	 mov	 DWORD PTR [eax+4], ecx

; 833  :         _Construct_in_place(this->_Ptr->_Right, _Myhead);

  00282	89 48 08	 mov	 DWORD PTR [eax+8], ecx

; 1042 :         return {_Scary->_Insert_node(_Loc._Location, _Inserted), true};

  00285	8b 4d ec	 mov	 ecx, DWORD PTR _this$1$[ebp]

; 834  :         this->_Ptr->_Color = _Red;

  00288	66 c7 40 0c 00
	00		 mov	 WORD PTR [eax+12], 0

; 1042 :         return {_Scary->_Insert_node(_Loc._Location, _Inserted), true};

  0028e	e8 00 00 00 00	 call	 ?_Insert_node@?$_Tree_val@U?$_Tree_simple_types@U?$pair@$$CBKH@std@@@std@@@std@@QAEPAU?$_Tree_node@U?$pair@$$CBKH@std@@PAX@2@U?$_Tree_id@PAU?$_Tree_node@U?$pair@$$CBKH@std@@PAX@std@@@2@QAU32@@Z ; std::_Tree_val<std::_Tree_simple_types<std::pair<unsigned long const ,int> > >::_Insert_node
$LN280@LoadScript:
; File C:\IAGOS\server\v18\Source\Source\_Common\CreateMonster.cpp

; 63   : 			lua.Pop( 1 );

  00293	6a 01		 push	 1
  00295	8d 4d dc	 lea	 ecx, DWORD PTR _lua$[ebp]
  00298	e8 00 00 00 00	 call	 ?Pop@CLuaBase@@QAEXH@Z	; CLuaBase::Pop
; File C:\IAGOS\server\v18\Source\Source\_Common\LuaBase.h

; 46   : 	int			TableLoop( int nStackPos )					{  return lua_next( m_pLuaState, nStackPos );  }	

  0029d	6a fe		 push	 -2			; fffffffeH
  0029f	ff 75 e0	 push	 DWORD PTR _lua$[ebp+4]
  002a2	e8 00 00 00 00	 call	 _lua_next
  002a7	83 c4 08	 add	 esp, 8
; File C:\IAGOS\server\v18\Source\Source\_Common\CreateMonster.cpp

; 58   : 		while( lua.TableLoop( -2 ) )

  002aa	85 c0		 test	 eax, eax
  002ac	0f 85 1e ff ff
	ff		 jne	 $LL4@LoadScript
$LN305@LoadScript:

; 64   : 		}
; 65   : 		lua.Pop( 2 );

  002b2	6a 02		 push	 2
  002b4	8d 4d dc	 lea	 ecx, DWORD PTR _lua$[ebp]
  002b7	e8 00 00 00 00	 call	 ?Pop@CLuaBase@@QAEXH@Z	; CLuaBase::Pop
; File C:\IAGOS\server\v18\Source\Source\_Common\LuaBase.h

; 46   : 	int			TableLoop( int nStackPos )					{  return lua_next( m_pLuaState, nStackPos );  }	

  002bc	6a fe		 push	 -2			; fffffffeH
  002be	ff 75 e0	 push	 DWORD PTR _lua$[ebp+4]
  002c1	e8 00 00 00 00	 call	 _lua_next
  002c6	83 c4 08	 add	 esp, 8
; File C:\IAGOS\server\v18\Source\Source\_Common\CreateMonster.cpp

; 48   : 	while( lua.TableLoop( -2 ) )

  002c9	85 c0		 test	 eax, eax
  002cb	74 08		 je	 SHORT $LN3@LoadScript
  002cd	8b 75 f0	 mov	 esi, DWORD PTR _this$1$[ebp]
  002d0	e9 bd fd ff ff	 jmp	 $LL2@LoadScript
$LN3@LoadScript:

; 66   : 	}
; 67   : 
; 68   : 	lua.Pop( 0 );	

  002d5	6a 00		 push	 0
  002d7	8d 4d dc	 lea	 ecx, DWORD PTR _lua$[ebp]
  002da	e8 00 00 00 00	 call	 ?Pop@CLuaBase@@QAEXH@Z	; CLuaBase::Pop

; 69   : }

  002df	8d 4d dc	 lea	 ecx, DWORD PTR _lua$[ebp]
  002e2	e8 00 00 00 00	 call	 ??1CLuaBase@@UAE@XZ	; CLuaBase::~CLuaBase
  002e7	8b 4d f4	 mov	 ecx, DWORD PTR __$EHRec$[ebp]
  002ea	64 89 0d 00 00
	00 00		 mov	 DWORD PTR fs:0, ecx
  002f1	59		 pop	 ecx
  002f2	5f		 pop	 edi
  002f3	5e		 pop	 esi
  002f4	5b		 pop	 ebx
  002f5	8b e5		 mov	 esp, ebp
  002f7	5d		 pop	 ebp
  002f8	c3		 ret	 0
$LN319@LoadScript:

; 39   : 	{
; 40   : 		Error( "CreateMonser.lua Load Failed!!!" );

  002f9	68 00 00 00 00	 push	 OFFSET ??_C@_0CA@BEGGHKIN@CreateMonser?4lua?5Load?5Failed?$CB?$CB?$CB@
  002fe	e8 00 00 00 00	 call	 ?Error@@YAPBDPBDZZ	; Error
  00303	83 c4 04	 add	 esp, 4

; 41   : 		exit(0);

  00306	6a 00		 push	 0
  00308	e8 00 00 00 00	 call	 _exit
$LN301@LoadScript:
; File C:\Program Files\Microsoft Visual Studio\2022\Professional\VC\Tools\MSVC\14.44.35207\include\xtree

; 1649 :             _Throw_tree_length_error();

  0030d	e8 00 00 00 00	 call	 ?_Throw_tree_length_error@std@@YAXXZ ; std::_Throw_tree_length_error
$LN317@LoadScript:
  00312	cc		 int	 3
_TEXT	ENDS
;	COMDAT text$x
text$x	SEGMENT
__unwindfunclet$?LoadScript@CCreateMonster@@QAEXXZ$0:
  00000	8d 4d dc	 lea	 ecx, DWORD PTR _lua$[ebp]
  00003	e9 00 00 00 00	 jmp	 ??1CLuaBase@@UAE@XZ	; CLuaBase::~CLuaBase
__unwindfunclet$?LoadScript@CCreateMonster@@QAEXXZ$1:
  00008	6a 0c		 push	 12			; 0000000cH
  0000a	8b 45 e4	 mov	 eax, DWORD PTR $T10[ebp]
  0000d	50		 push	 eax
  0000e	e8 00 00 00 00	 call	 ??3@YAXPAXI@Z		; operator delete
  00013	83 c4 08	 add	 esp, 8
  00016	c3		 ret	 0
__unwindfunclet$?LoadScript@CCreateMonster@@QAEXXZ$6:
  00017	8d 4d cc	 lea	 ecx, DWORD PTR $T8[ebp]
  0001a	e9 00 00 00 00	 jmp	 ??1?$_Alloc_construct_ptr@V?$allocator@U?$_Tree_node@U?$pair@$$CBKPAUCREATE_MONSTER_PROP@@@std@@PAX@std@@@std@@@std@@QAE@XZ ; std::_Alloc_construct_ptr<std::allocator<std::_Tree_node<std::pair<unsigned long const ,CREATE_MONSTER_PROP *>,void *> > >::~_Alloc_construct_ptr<std::allocator<std::_Tree_node<std::pair<unsigned long const ,CREATE_MONSTER_PROP *>,void *> > >
__unwindfunclet$?LoadScript@CCreateMonster@@QAEXXZ$11:
  0001f	8d 4d c4	 lea	 ecx, DWORD PTR $T7[ebp]
  00022	e9 00 00 00 00	 jmp	 ??1?$_Alloc_construct_ptr@V?$allocator@U?$_Tree_node@U?$pair@$$CBKH@std@@PAX@std@@@std@@@std@@QAE@XZ ; std::_Alloc_construct_ptr<std::allocator<std::_Tree_node<std::pair<unsigned long const ,int>,void *> > >::~_Alloc_construct_ptr<std::allocator<std::_Tree_node<std::pair<unsigned long const ,int>,void *> > >
  00027	cc		 int	 3
  00028	cc		 int	 3
  00029	cc		 int	 3
  0002a	cc		 int	 3
  0002b	cc		 int	 3
__ehhandler$?LoadScript@CCreateMonster@@QAEXXZ:
  0002c	90		 npad	 1
  0002d	90		 npad	 1
  0002e	8b 54 24 08	 mov	 edx, DWORD PTR [esp+8]
  00032	8d 42 0c	 lea	 eax, DWORD PTR [edx+12]
  00035	8b 4a a0	 mov	 ecx, DWORD PTR [edx-96]
  00038	33 c8		 xor	 ecx, eax
  0003a	e8 00 00 00 00	 call	 @__security_check_cookie@4
  0003f	b8 00 00 00 00	 mov	 eax, OFFSET __ehfuncinfo$?LoadScript@CCreateMonster@@QAEXXZ
  00044	e9 00 00 00 00	 jmp	 ___CxxFrameHandler3
text$x	ENDS
?LoadScript@CCreateMonster@@QAEXXZ ENDP			; CCreateMonster::LoadScript
; Function compile flags: /Ogtp
; File C:\IAGOS\server\v18\Source\Source\_Common\CreateMonster.cpp
;	COMDAT ?GetInstance@CCreateMonster@@SAPAV1@XZ
_TEXT	SEGMENT
__$EHRec$ = -12						; size = 12
?GetInstance@CCreateMonster@@SAPAV1@XZ PROC		; CCreateMonster::GetInstance, COMDAT

; 29   : {

  00000	55		 push	 ebp
  00001	8b ec		 mov	 ebp, esp
  00003	6a ff		 push	 -1
  00005	68 00 00 00 00	 push	 __ehhandler$?GetInstance@CCreateMonster@@SAPAV1@XZ
  0000a	64 a1 00 00 00
	00		 mov	 eax, DWORD PTR fs:0
  00010	50		 push	 eax
  00011	a1 00 00 00 00	 mov	 eax, DWORD PTR ___security_cookie
  00016	33 c5		 xor	 eax, ebp
  00018	50		 push	 eax
  00019	8d 45 f4	 lea	 eax, DWORD PTR __$EHRec$[ebp]
  0001c	64 a3 00 00 00
	00		 mov	 DWORD PTR fs:0, eax

; 30   : 	static CCreateMonster sCreateMonster;

  00022	64 a1 00 00 00
	00		 mov	 eax, DWORD PTR fs:__tls_array
  00028	8b 0d 00 00 00
	00		 mov	 ecx, DWORD PTR __tls_index
  0002e	8b 0c 88	 mov	 ecx, DWORD PTR [eax+ecx*4]
  00031	a1 00 00 00 00	 mov	 eax, DWORD PTR ?$TSS0@?1??GetInstance@CCreateMonster@@SAPAV2@XZ@4HA
  00036	3b 81 00 00 00
	00		 cmp	 eax, DWORD PTR __Init_thread_epoch[ecx]
  0003c	7f 14		 jg	 SHORT $LN9@GetInstanc
$LN5@GetInstanc:

; 31   : 	return &sCreateMonster;
; 32   : }

  0003e	b8 00 00 00 00	 mov	 eax, OFFSET ?sCreateMonster@?1??GetInstance@CCreateMonster@@SAPAV2@XZ@4V2@A
  00043	8b 4d f4	 mov	 ecx, DWORD PTR __$EHRec$[ebp]
  00046	64 89 0d 00 00
	00 00		 mov	 DWORD PTR fs:0, ecx
  0004d	59		 pop	 ecx
  0004e	8b e5		 mov	 esp, ebp
  00050	5d		 pop	 ebp
  00051	c3		 ret	 0
$LN9@GetInstanc:

; 30   : 	static CCreateMonster sCreateMonster;

  00052	68 00 00 00 00	 push	 OFFSET ?$TSS0@?1??GetInstance@CCreateMonster@@SAPAV2@XZ@4HA
  00057	e8 00 00 00 00	 call	 __Init_thread_header
  0005c	83 c4 04	 add	 esp, 4
  0005f	83 3d 00 00 00
	00 ff		 cmp	 DWORD PTR ?$TSS0@?1??GetInstance@CCreateMonster@@SAPAV2@XZ@4HA, -1
  00066	75 d6		 jne	 SHORT $LN5@GetInstanc
  00068	b9 00 00 00 00	 mov	 ecx, OFFSET ?sCreateMonster@?1??GetInstance@CCreateMonster@@SAPAV2@XZ@4V2@A
  0006d	c7 45 fc 00 00
	00 00		 mov	 DWORD PTR __$EHRec$[ebp+8], 0
  00074	e8 00 00 00 00	 call	 ??0CCreateMonster@@QAE@XZ ; CCreateMonster::CCreateMonster
  00079	68 00 00 00 00	 push	 OFFSET ??__FsCreateMonster@?1??GetInstance@CCreateMonster@@SAPAV1@XZ@YAXXZ ; `CCreateMonster::GetInstance'::`2'::`dynamic atexit destructor for 'sCreateMonster''
  0007e	e8 00 00 00 00	 call	 _atexit
  00083	68 00 00 00 00	 push	 OFFSET ?$TSS0@?1??GetInstance@CCreateMonster@@SAPAV2@XZ@4HA
  00088	e8 00 00 00 00	 call	 __Init_thread_footer
  0008d	83 c4 08	 add	 esp, 8
  00090	eb ac		 jmp	 SHORT $LN5@GetInstanc
_TEXT	ENDS
;	COMDAT text$x
text$x	SEGMENT
__unwindfunclet$?GetInstance@CCreateMonster@@SAPAV1@XZ$0:
  00000	68 00 00 00 00	 push	 OFFSET ?$TSS0@?1??GetInstance@CCreateMonster@@SAPAV2@XZ@4HA
  00005	e8 00 00 00 00	 call	 __Init_thread_abort
  0000a	59		 pop	 ecx
  0000b	c3		 ret	 0
  0000c	cc		 int	 3
  0000d	cc		 int	 3
  0000e	cc		 int	 3
  0000f	cc		 int	 3
  00010	cc		 int	 3
__ehhandler$?GetInstance@CCreateMonster@@SAPAV1@XZ:
  00011	90		 npad	 1
  00012	90		 npad	 1
  00013	8b 54 24 08	 mov	 edx, DWORD PTR [esp+8]
  00017	8d 42 0c	 lea	 eax, DWORD PTR [edx+12]
  0001a	8b 4a fc	 mov	 ecx, DWORD PTR [edx-4]
  0001d	33 c8		 xor	 ecx, eax
  0001f	e8 00 00 00 00	 call	 @__security_check_cookie@4
  00024	b8 00 00 00 00	 mov	 eax, OFFSET __ehfuncinfo$?GetInstance@CCreateMonster@@SAPAV1@XZ
  00029	e9 00 00 00 00	 jmp	 ___CxxFrameHandler3
text$x	ENDS
?GetInstance@CCreateMonster@@SAPAV1@XZ ENDP		; CCreateMonster::GetInstance
; Function compile flags: /Ogtp
; File C:\IAGOS\server\v18\Source\Source\_Common\CreateMonster.cpp
; File C:\Program Files\Microsoft Visual Studio\2022\Professional\VC\Tools\MSVC\14.44.35207\include\xtree
; File C:\IAGOS\server\v18\Source\Source\_Common\CreateMonster.cpp
; File C:\Program Files\Microsoft Visual Studio\2022\Professional\VC\Tools\MSVC\14.44.35207\include\xtree
; File C:\IAGOS\server\v18\Source\Source\_Common\CreateMonster.cpp
; File C:\Program Files\Microsoft Visual Studio\2022\Professional\VC\Tools\MSVC\14.44.35207\include\xtree
; File C:\Program Files\Microsoft Visual Studio\2022\Professional\VC\Tools\MSVC\14.44.35207\include\utility
; File C:\Program Files\Microsoft Visual Studio\2022\Professional\VC\Tools\MSVC\14.44.35207\include\xmemory
; File C:\Program Files\Microsoft Visual Studio\2022\Professional\VC\Tools\MSVC\14.44.35207\include\xtree
; File C:\IAGOS\server\v18\Source\Source\_Common\CreateMonster.cpp
; File C:\Program Files\Microsoft Visual Studio\2022\Professional\VC\Tools\MSVC\14.44.35207\include\xtree
; File C:\IAGOS\server\v18\Source\Source\_Common\CreateMonster.cpp
; File C:\Program Files\Microsoft Visual Studio\2022\Professional\VC\Tools\MSVC\14.44.35207\include\xtree
; File C:\Program Files\Microsoft Visual Studio\2022\Professional\VC\Tools\MSVC\14.44.35207\include\utility
; File C:\Program Files\Microsoft Visual Studio\2022\Professional\VC\Tools\MSVC\14.44.35207\include\xmemory
; File C:\Program Files\Microsoft Visual Studio\2022\Professional\VC\Tools\MSVC\14.44.35207\include\xtree
; File C:\IAGOS\server\v18\Source\Source\_Common\CreateMonster.cpp
; File C:\Program Files\Microsoft Visual Studio\2022\Professional\VC\Tools\MSVC\14.44.35207\include\xtree
; File C:\Program Files\Microsoft Visual Studio\2022\Professional\VC\Tools\MSVC\14.44.35207\include\utility
; File C:\Program Files\Microsoft Visual Studio\2022\Professional\VC\Tools\MSVC\14.44.35207\include\xmemory
; File C:\Program Files\Microsoft Visual Studio\2022\Professional\VC\Tools\MSVC\14.44.35207\include\xtree
; File C:\IAGOS\server\v18\Source\Source\_Common\CreateMonster.cpp
;	COMDAT ??1CCreateMonster@@QAE@XZ
_TEXT	SEGMENT
__Head$1$ = -8						; size = 4
_this$1$ = -4						; size = 4
??1CCreateMonster@@QAE@XZ PROC				; CCreateMonster::~CCreateMonster, COMDAT
; _this$ = ecx

; 18   : {

  00000	55		 push	 ebp
  00001	8b ec		 mov	 ebp, esp
  00003	83 ec 08	 sub	 esp, 8
  00006	8b c1		 mov	 eax, ecx
  00008	53		 push	 ebx
  00009	56		 push	 esi
; File C:\Program Files\Microsoft Visual Studio\2022\Professional\VC\Tools\MSVC\14.44.35207\include\xtree

; 1142 :         return iterator(_Scary->_Myhead->_Left, _Scary);

  0000a	8d 58 04	 lea	 ebx, DWORD PTR [eax+4]
; File C:\IAGOS\server\v18\Source\Source\_Common\CreateMonster.cpp

; 18   : {

  0000d	89 45 fc	 mov	 DWORD PTR _this$1$[ebp], eax
  00010	57		 push	 edi
; File C:\Program Files\Microsoft Visual Studio\2022\Professional\VC\Tools\MSVC\14.44.35207\include\xtree

; 1142 :         return iterator(_Scary->_Myhead->_Left, _Scary);

  00011	8b 3b		 mov	 edi, DWORD PTR [ebx]

; 37   :     _Tree_unchecked_const_iterator(_Nodeptr _Pnode, const _Mytree* _Plist) noexcept : _Ptr(_Pnode) {

  00013	8b 37		 mov	 esi, DWORD PTR [edi]

; 237  :         return !(*this == _Right);

  00015	3b f7		 cmp	 esi, edi
; File C:\IAGOS\server\v18\Source\Source\_Common\CreateMonster.cpp

; 19   : 	for( MAPPROP::iterator it=m_mapCreateMonsterProp.begin(); it!=m_mapCreateMonsterProp.end(); it++ )

  00017	0f 84 af 00 00
	00		 je	 $LN227@CCreateMon
  0001d	0f 1f 00	 npad	 3
$LL4@CCreateMon:

; 20   : 	{
; 21   : 		it->second->mapMonster.clear();

  00020	8b 5e 14	 mov	 ebx, DWORD PTR [esi+20]
  00023	83 c3 04	 add	 ebx, 4
; File C:\Program Files\Microsoft Visual Studio\2022\Professional\VC\Tools\MSVC\14.44.35207\include\xtree

; 1373 :         auto _Head = _Scary->_Myhead;

  00026	8b 03		 mov	 eax, DWORD PTR [ebx]
  00028	89 45 f8	 mov	 DWORD PTR __Head$1$[ebp], eax

; 1374 :         _Scary->_Erase_tree(_Getal(), _Head->_Parent);

  0002b	8b 78 04	 mov	 edi, DWORD PTR [eax+4]

; 768  :         while (!_Rootnode->_Isnil) { // free subtrees, then node

  0002e	80 7f 0d 00	 cmp	 BYTE PTR [edi+13], 0
  00032	75 23		 jne	 SHORT $LN71@CCreateMon
$LL70@CCreateMon:

; 769  :             _Erase_tree(_Al, _Rootnode->_Right);

  00034	ff 77 08	 push	 DWORD PTR [edi+8]
  00037	8b cb		 mov	 ecx, ebx
  00039	53		 push	 ebx
  0003a	e8 00 00 00 00	 call	 ??$_Erase_tree@V?$allocator@U?$_Tree_node@U?$pair@$$CBKH@std@@PAX@std@@@std@@@?$_Tree_val@U?$_Tree_simple_types@U?$pair@$$CBKH@std@@@std@@@std@@QAEXAAV?$allocator@U?$_Tree_node@U?$pair@$$CBKH@std@@PAX@std@@@1@PAU?$_Tree_node@U?$pair@$$CBKH@std@@PAX@1@@Z ; std::_Tree_val<std::_Tree_simple_types<std::pair<unsigned long const ,int> > >::_Erase_tree<std::allocator<std::_Tree_node<std::pair<unsigned long const ,int>,void *> > >
; File C:\Program Files\Microsoft Visual Studio\2022\Professional\VC\Tools\MSVC\14.44.35207\include\utility

; 773  :     _Ty _Old_val = static_cast<_Ty&&>(_Val);

  0003f	8b c7		 mov	 eax, edi

; 774  :     _Val         = static_cast<_Other&&>(_New_val);

  00041	8b 3f		 mov	 edi, DWORD PTR [edi]
; File C:\Program Files\Microsoft Visual Studio\2022\Professional\VC\Tools\MSVC\14.44.35207\include\xmemory

; 289  :         ::operator delete(_Ptr, _Bytes);

  00043	6a 18		 push	 24			; 00000018H
  00045	50		 push	 eax
  00046	e8 00 00 00 00	 call	 ??3@YAXPAXI@Z		; operator delete
  0004b	83 c4 08	 add	 esp, 8
; File C:\Program Files\Microsoft Visual Studio\2022\Professional\VC\Tools\MSVC\14.44.35207\include\xtree

; 768  :         while (!_Rootnode->_Isnil) { // free subtrees, then node

  0004e	80 7f 0d 00	 cmp	 BYTE PTR [edi+13], 0
  00052	74 e0		 je	 SHORT $LL70@CCreateMon
  00054	8b 45 f8	 mov	 eax, DWORD PTR __Head$1$[ebp]
$LN71@CCreateMon:

; 1375 :         _Head->_Parent  = _Head;

  00057	89 40 04	 mov	 DWORD PTR [eax+4], eax

; 1376 :         _Head->_Left    = _Head;

  0005a	89 00		 mov	 DWORD PTR [eax], eax

; 1377 :         _Head->_Right   = _Head;

  0005c	89 40 08	 mov	 DWORD PTR [eax+8], eax

; 1378 :         _Scary->_Mysize = 0;

  0005f	c7 43 04 00 00
	00 00		 mov	 DWORD PTR [ebx+4], 0
; File C:\IAGOS\server\v18\Source\Source\_Common\CreateMonster.cpp

; 22   : 		safe_delete( it->second );

  00066	8b 7e 14	 mov	 edi, DWORD PTR [esi+20]
  00069	85 ff		 test	 edi, edi
  0006b	74 13		 je	 SHORT $LN2@CCreateMon
  0006d	8d 4f 04	 lea	 ecx, DWORD PTR [edi+4]
  00070	e8 00 00 00 00	 call	 ??1?$_Tree@V?$_Tmap_traits@KHU?$less@K@std@@V?$allocator@U?$pair@$$CBKH@std@@@2@$0A@@std@@@std@@QAE@XZ ; std::_Tree<std::_Tmap_traits<unsigned long,int,std::less<unsigned long>,std::allocator<std::pair<unsigned long const ,int> >,0> >::~_Tree<std::_Tmap_traits<unsigned long,int,std::less<unsigned long>,std::allocator<std::pair<unsigned long const ,int> >,0> >
  00075	6a 0c		 push	 12			; 0000000cH
  00077	57		 push	 edi
  00078	e8 00 00 00 00	 call	 ??3@YAXPAXI@Z		; operator delete
  0007d	83 c4 08	 add	 esp, 8
$LN2@CCreateMon:
; File C:\Program Files\Microsoft Visual Studio\2022\Professional\VC\Tools\MSVC\14.44.35207\include\xtree

; 50   :         if (_Ptr->_Right->_Isnil) { // climb looking for right subtree

  00080	8b 46 08	 mov	 eax, DWORD PTR [esi+8]
  00083	80 78 0d 00	 cmp	 BYTE PTR [eax+13], 0
  00087	74 1d		 je	 SHORT $LN30@CCreateMon

; 51   :             _Nodeptr _Pnode;
; 52   :             while (!(_Pnode = _Ptr->_Parent)->_Isnil && _Ptr == _Pnode->_Right) {

  00089	8b 46 04	 mov	 eax, DWORD PTR [esi+4]
  0008c	80 78 0d 00	 cmp	 BYTE PTR [eax+13], 0
  00090	75 10		 jne	 SHORT $LN235@CCreateMon
$LL28@CCreateMon:
  00092	3b 70 08	 cmp	 esi, DWORD PTR [eax+8]
  00095	75 0b		 jne	 SHORT $LN235@CCreateMon

; 53   :                 _Ptr = _Pnode; // ==> parent while right subtree

  00097	8b f0		 mov	 esi, eax
  00099	8b 40 04	 mov	 eax, DWORD PTR [eax+4]
  0009c	80 78 0d 00	 cmp	 BYTE PTR [eax+13], 0
  000a0	74 f0		 je	 SHORT $LL28@CCreateMon
$LN235@CCreateMon:

; 54   :             }
; 55   : 
; 56   :             _Ptr = _Pnode; // ==> parent (head if end())

  000a2	8b f0		 mov	 esi, eax

; 57   :         } else {

  000a4	eb 16		 jmp	 SHORT $LN36@CCreateMon
$LN30@CCreateMon:

; 58   :             _Ptr = _Mytree::_Min(_Ptr->_Right); // ==> smallest of right subtree

  000a6	8b f0		 mov	 esi, eax

; 476  :         while (!_Pnode->_Left->_Isnil) {

  000a8	8b 0e		 mov	 ecx, DWORD PTR [esi]
  000aa	80 79 0d 00	 cmp	 BYTE PTR [ecx+13], 0
  000ae	75 0c		 jne	 SHORT $LN36@CCreateMon
$LL35@CCreateMon:
  000b0	8b 01		 mov	 eax, DWORD PTR [ecx]

; 477  :             _Pnode = _Pnode->_Left;

  000b2	8b f1		 mov	 esi, ecx
  000b4	8b c8		 mov	 ecx, eax
  000b6	80 78 0d 00	 cmp	 BYTE PTR [eax+13], 0
  000ba	74 f4		 je	 SHORT $LL35@CCreateMon
$LN36@CCreateMon:

; 37   :     _Tree_unchecked_const_iterator(_Nodeptr _Pnode, const _Mytree* _Plist) noexcept : _Ptr(_Pnode) {

  000bc	8b 5d fc	 mov	 ebx, DWORD PTR _this$1$[ebp]
  000bf	83 c3 04	 add	 ebx, 4
  000c2	8b 3b		 mov	 edi, DWORD PTR [ebx]

; 237  :         return !(*this == _Right);

  000c4	3b f7		 cmp	 esi, edi
; File C:\IAGOS\server\v18\Source\Source\_Common\CreateMonster.cpp

; 19   : 	for( MAPPROP::iterator it=m_mapCreateMonsterProp.begin(); it!=m_mapCreateMonsterProp.end(); it++ )

  000c6	0f 85 54 ff ff
	ff		 jne	 $LL4@CCreateMon
$LN227@CCreateMon:
; File C:\Program Files\Microsoft Visual Studio\2022\Professional\VC\Tools\MSVC\14.44.35207\include\xtree

; 1374 :         _Scary->_Erase_tree(_Getal(), _Head->_Parent);

  000cc	8b 77 04	 mov	 esi, DWORD PTR [edi+4]

; 768  :         while (!_Rootnode->_Isnil) { // free subtrees, then node

  000cf	80 7e 0d 00	 cmp	 BYTE PTR [esi+13], 0
  000d3	75 20		 jne	 SHORT $LN228@CCreateMon
$LL128@CCreateMon:

; 769  :             _Erase_tree(_Al, _Rootnode->_Right);

  000d5	ff 76 08	 push	 DWORD PTR [esi+8]
  000d8	8b cb		 mov	 ecx, ebx
  000da	53		 push	 ebx
  000db	e8 00 00 00 00	 call	 ??$_Erase_tree@V?$allocator@U?$_Tree_node@U?$pair@$$CBKPAUCREATE_MONSTER_PROP@@@std@@PAX@std@@@std@@@?$_Tree_val@U?$_Tree_simple_types@U?$pair@$$CBKPAUCREATE_MONSTER_PROP@@@std@@@std@@@std@@QAEXAAV?$allocator@U?$_Tree_node@U?$pair@$$CBKPAUCREATE_MONSTER_PROP@@@std@@PAX@std@@@1@PAU?$_Tree_node@U?$pair@$$CBKPAUCREATE_MONSTER_PROP@@@std@@PAX@1@@Z ; std::_Tree_val<std::_Tree_simple_types<std::pair<unsigned long const ,CREATE_MONSTER_PROP *> > >::_Erase_tree<std::allocator<std::_Tree_node<std::pair<unsigned long const ,CREATE_MONSTER_PROP *>,void *> > >
; File C:\Program Files\Microsoft Visual Studio\2022\Professional\VC\Tools\MSVC\14.44.35207\include\utility

; 773  :     _Ty _Old_val = static_cast<_Ty&&>(_Val);

  000e0	8b c6		 mov	 eax, esi

; 774  :     _Val         = static_cast<_Other&&>(_New_val);

  000e2	8b 36		 mov	 esi, DWORD PTR [esi]
; File C:\Program Files\Microsoft Visual Studio\2022\Professional\VC\Tools\MSVC\14.44.35207\include\xmemory

; 289  :         ::operator delete(_Ptr, _Bytes);

  000e4	6a 18		 push	 24			; 00000018H
  000e6	50		 push	 eax
  000e7	e8 00 00 00 00	 call	 ??3@YAXPAXI@Z		; operator delete
  000ec	83 c4 08	 add	 esp, 8
; File C:\Program Files\Microsoft Visual Studio\2022\Professional\VC\Tools\MSVC\14.44.35207\include\xtree

; 768  :         while (!_Rootnode->_Isnil) { // free subtrees, then node

  000ef	80 7e 0d 00	 cmp	 BYTE PTR [esi+13], 0
  000f3	74 e0		 je	 SHORT $LL128@CCreateMon
$LN228@CCreateMon:

; 1375 :         _Head->_Parent  = _Head;

  000f5	89 7f 04	 mov	 DWORD PTR [edi+4], edi

; 1376 :         _Head->_Left    = _Head;

  000f8	89 3f		 mov	 DWORD PTR [edi], edi

; 1377 :         _Head->_Right   = _Head;

  000fa	89 7f 08	 mov	 DWORD PTR [edi+8], edi
; File C:\IAGOS\server\v18\Source\Source\_Common\CreateMonster.cpp

; 25   : 	m_mapCreateMonsterInfo.clear();

  000fd	8b 7d fc	 mov	 edi, DWORD PTR _this$1$[ebp]
  00100	83 c7 0c	 add	 edi, 12			; 0000000cH
; File C:\Program Files\Microsoft Visual Studio\2022\Professional\VC\Tools\MSVC\14.44.35207\include\xtree

; 1378 :         _Scary->_Mysize = 0;

  00103	c7 43 04 00 00
	00 00		 mov	 DWORD PTR [ebx+4], 0

; 1373 :         auto _Head = _Scary->_Myhead;

  0010a	8b 1f		 mov	 ebx, DWORD PTR [edi]

; 1374 :         _Scary->_Erase_tree(_Getal(), _Head->_Parent);

  0010c	8b 73 04	 mov	 esi, DWORD PTR [ebx+4]

; 768  :         while (!_Rootnode->_Isnil) { // free subtrees, then node

  0010f	80 7e 0d 00	 cmp	 BYTE PTR [esi+13], 0
  00113	75 20		 jne	 SHORT $LN219@CCreateMon
$LL162@CCreateMon:

; 769  :             _Erase_tree(_Al, _Rootnode->_Right);

  00115	ff 76 08	 push	 DWORD PTR [esi+8]
  00118	8b cf		 mov	 ecx, edi
  0011a	57		 push	 edi
  0011b	e8 00 00 00 00	 call	 ??$_Erase_tree@V?$allocator@U?$_Tree_node@U?$pair@$$CBKUCREATE_MONSTER_INFO@@@std@@PAX@std@@@std@@@?$_Tree_val@U?$_Tree_simple_types@U?$pair@$$CBKUCREATE_MONSTER_INFO@@@std@@@std@@@std@@QAEXAAV?$allocator@U?$_Tree_node@U?$pair@$$CBKUCREATE_MONSTER_INFO@@@std@@PAX@std@@@1@PAU?$_Tree_node@U?$pair@$$CBKUCREATE_MONSTER_INFO@@@std@@PAX@1@@Z ; std::_Tree_val<std::_Tree_simple_types<std::pair<unsigned long const ,CREATE_MONSTER_INFO> > >::_Erase_tree<std::allocator<std::_Tree_node<std::pair<unsigned long const ,CREATE_MONSTER_INFO>,void *> > >
; File C:\Program Files\Microsoft Visual Studio\2022\Professional\VC\Tools\MSVC\14.44.35207\include\utility

; 773  :     _Ty _Old_val = static_cast<_Ty&&>(_Val);

  00120	8b c6		 mov	 eax, esi

; 774  :     _Val         = static_cast<_Other&&>(_New_val);

  00122	8b 36		 mov	 esi, DWORD PTR [esi]
; File C:\Program Files\Microsoft Visual Studio\2022\Professional\VC\Tools\MSVC\14.44.35207\include\xmemory

; 289  :         ::operator delete(_Ptr, _Bytes);

  00124	6a 20		 push	 32			; 00000020H
  00126	50		 push	 eax
  00127	e8 00 00 00 00	 call	 ??3@YAXPAXI@Z		; operator delete
  0012c	83 c4 08	 add	 esp, 8
; File C:\Program Files\Microsoft Visual Studio\2022\Professional\VC\Tools\MSVC\14.44.35207\include\xtree

; 768  :         while (!_Rootnode->_Isnil) { // free subtrees, then node

  0012f	80 7e 0d 00	 cmp	 BYTE PTR [esi+13], 0
  00133	74 e0		 je	 SHORT $LL162@CCreateMon
$LN219@CCreateMon:

; 1375 :         _Head->_Parent  = _Head;

  00135	89 5b 04	 mov	 DWORD PTR [ebx+4], ebx
  00138	8b cf		 mov	 ecx, edi

; 1376 :         _Head->_Left    = _Head;

  0013a	89 1b		 mov	 DWORD PTR [ebx], ebx

; 1377 :         _Head->_Right   = _Head;

  0013c	89 5b 08	 mov	 DWORD PTR [ebx+8], ebx

; 1378 :         _Scary->_Mysize = 0;

  0013f	c7 47 04 00 00
	00 00		 mov	 DWORD PTR [edi+4], 0
  00146	e8 00 00 00 00	 call	 ??1?$_Tree@V?$_Tmap_traits@KUCREATE_MONSTER_INFO@@U?$less@K@std@@V?$allocator@U?$pair@$$CBKUCREATE_MONSTER_INFO@@@std@@@3@$0A@@std@@@std@@QAE@XZ ; std::_Tree<std::_Tmap_traits<unsigned long,CREATE_MONSTER_INFO,std::less<unsigned long>,std::allocator<std::pair<unsigned long const ,CREATE_MONSTER_INFO> >,0> >::~_Tree<std::_Tmap_traits<unsigned long,CREATE_MONSTER_INFO,std::less<unsigned long>,std::allocator<std::pair<unsigned long const ,CREATE_MONSTER_INFO> >,0> >
  0014b	8b 4d fc	 mov	 ecx, DWORD PTR _this$1$[ebp]
  0014e	8d 49 04	 lea	 ecx, DWORD PTR [ecx+4]
  00151	e8 00 00 00 00	 call	 ??1?$_Tree@V?$_Tmap_traits@KPAUCREATE_MONSTER_PROP@@U?$less@K@std@@V?$allocator@U?$pair@$$CBKPAUCREATE_MONSTER_PROP@@@std@@@3@$0A@@std@@@std@@QAE@XZ ; std::_Tree<std::_Tmap_traits<unsigned long,CREATE_MONSTER_PROP *,std::less<unsigned long>,std::allocator<std::pair<unsigned long const ,CREATE_MONSTER_PROP *> >,0> >::~_Tree<std::_Tmap_traits<unsigned long,CREATE_MONSTER_PROP *,std::less<unsigned long>,std::allocator<std::pair<unsigned long const ,CREATE_MONSTER_PROP *> >,0> >
  00156	5f		 pop	 edi
  00157	5e		 pop	 esi
  00158	5b		 pop	 ebx
; File C:\IAGOS\server\v18\Source\Source\_Common\CreateMonster.cpp

; 26   : }

  00159	8b e5		 mov	 esp, ebp
  0015b	5d		 pop	 ebp
  0015c	c3		 ret	 0
??1CCreateMonster@@QAE@XZ ENDP				; CCreateMonster::~CCreateMonster
_TEXT	ENDS
; Function compile flags: /Ogtp
; File C:\IAGOS\server\v18\Source\Source\_Common\CreateMonster.cpp
; File C:\Program Files\Microsoft Visual Studio\2022\Professional\VC\Tools\MSVC\14.44.35207\include\xmemory
; File C:\IAGOS\server\v18\Source\Source\_Common\CreateMonster.cpp
; File C:\Program Files\Microsoft Visual Studio\2022\Professional\VC\Tools\MSVC\14.44.35207\include\xtree
; File C:\Program Files\Microsoft Visual Studio\2022\Professional\VC\Tools\MSVC\14.44.35207\include\xmemory
; File C:\Program Files\Microsoft Visual Studio\2022\Professional\VC\Tools\MSVC\14.44.35207\include\xtree
; File C:\IAGOS\server\v18\Source\Source\_Common\CreateMonster.cpp
; File C:\Program Files\Microsoft Visual Studio\2022\Professional\VC\Tools\MSVC\14.44.35207\include\xmemory
; File C:\IAGOS\server\v18\Source\Source\_Common\CreateMonster.cpp
; File C:\Program Files\Microsoft Visual Studio\2022\Professional\VC\Tools\MSVC\14.44.35207\include\xtree
; File C:\Program Files\Microsoft Visual Studio\2022\Professional\VC\Tools\MSVC\14.44.35207\include\xmemory
; File C:\Program Files\Microsoft Visual Studio\2022\Professional\VC\Tools\MSVC\14.44.35207\include\xtree
; File C:\IAGOS\server\v18\Source\Source\_Common\CreateMonster.cpp
;	COMDAT ??0CCreateMonster@@QAE@XZ
_TEXT	SEGMENT
_this$ = -20						; size = 4
_this$ = -20						; size = 4
_this$ = -16						; size = 4
__$EHRec$ = -12						; size = 12
??0CCreateMonster@@QAE@XZ PROC				; CCreateMonster::CCreateMonster, COMDAT
; _this$ = ecx

; 13   : {

  00000	55		 push	 ebp
  00001	8b ec		 mov	 ebp, esp
  00003	6a ff		 push	 -1
  00005	68 00 00 00 00	 push	 __ehhandler$??0CCreateMonster@@QAE@XZ
  0000a	64 a1 00 00 00
	00		 mov	 eax, DWORD PTR fs:0
  00010	50		 push	 eax
  00011	83 ec 08	 sub	 esp, 8
  00014	56		 push	 esi
  00015	57		 push	 edi
  00016	a1 00 00 00 00	 mov	 eax, DWORD PTR ___security_cookie
  0001b	33 c5		 xor	 eax, ebp
  0001d	50		 push	 eax
  0001e	8d 45 f4	 lea	 eax, DWORD PTR __$EHRec$[ebp]
  00021	64 a3 00 00 00
	00		 mov	 DWORD PTR fs:0, eax
  00027	8b f9		 mov	 edi, ecx
  00029	89 7d f0	 mov	 DWORD PTR _this$[ebp], edi
  0002c	8d 77 04	 lea	 esi, DWORD PTR [edi+4]
  0002f	c7 07 00 00 00
	00		 mov	 DWORD PTR [edi], 0
; File C:\Program Files\Microsoft Visual Studio\2022\Professional\VC\Tools\MSVC\14.44.35207\include\xmemory

; 136  :         return ::operator new(_Bytes);

  00035	6a 18		 push	 24			; 00000018H
; File C:\IAGOS\server\v18\Source\Source\_Common\CreateMonster.cpp

; 13   : {

  00037	89 75 ec	 mov	 DWORD PTR _this$[ebp], esi
; File C:\Program Files\Microsoft Visual Studio\2022\Professional\VC\Tools\MSVC\14.44.35207\include\xtree

; 450  :     _Tree_val() noexcept : _Myhead(), _Mysize(0) {}

  0003a	c7 06 00 00 00
	00		 mov	 DWORD PTR [esi], 0
  00040	c7 46 04 00 00
	00 00		 mov	 DWORD PTR [esi+4], 0
; File C:\Program Files\Microsoft Visual Studio\2022\Professional\VC\Tools\MSVC\14.44.35207\include\xmemory

; 136  :         return ::operator new(_Bytes);

  00047	e8 00 00 00 00	 call	 ??2@YAPAXI@Z		; operator new
; File C:\Program Files\Microsoft Visual Studio\2022\Professional\VC\Tools\MSVC\14.44.35207\include\xtree

; 346  :         _Construct_in_place(_Pnode->_Left, _Pnode);

  0004c	89 00		 mov	 DWORD PTR [eax], eax

; 347  :         _Construct_in_place(_Pnode->_Parent, _Pnode);

  0004e	89 40 04	 mov	 DWORD PTR [eax+4], eax

; 348  :         _Construct_in_place(_Pnode->_Right, _Pnode);

  00051	89 40 08	 mov	 DWORD PTR [eax+8], eax

; 349  :         _Pnode->_Color = _Black;

  00054	66 c7 40 0c 01
	01		 mov	 WORD PTR [eax+12], 257	; 00000101H

; 1957 :         _Scary->_Myhead = _Node::_Buyheadnode(_Getal());

  0005a	89 06		 mov	 DWORD PTR [esi], eax
; File C:\IAGOS\server\v18\Source\Source\_Common\CreateMonster.cpp

; 13   : {

  0005c	8d 77 0c	 lea	 esi, DWORD PTR [edi+12]
  0005f	c7 45 fc 00 00
	00 00		 mov	 DWORD PTR __$EHRec$[ebp+8], 0
; File C:\Program Files\Microsoft Visual Studio\2022\Professional\VC\Tools\MSVC\14.44.35207\include\xmemory

; 136  :         return ::operator new(_Bytes);

  00066	6a 20		 push	 32			; 00000020H
; File C:\IAGOS\server\v18\Source\Source\_Common\CreateMonster.cpp

; 13   : {

  00068	89 75 ec	 mov	 DWORD PTR _this$[ebp], esi
; File C:\Program Files\Microsoft Visual Studio\2022\Professional\VC\Tools\MSVC\14.44.35207\include\xtree

; 450  :     _Tree_val() noexcept : _Myhead(), _Mysize(0) {}

  0006b	c7 06 00 00 00
	00		 mov	 DWORD PTR [esi], 0
  00071	c7 46 04 00 00
	00 00		 mov	 DWORD PTR [esi+4], 0
; File C:\Program Files\Microsoft Visual Studio\2022\Professional\VC\Tools\MSVC\14.44.35207\include\xmemory

; 136  :         return ::operator new(_Bytes);

  00078	e8 00 00 00 00	 call	 ??2@YAPAXI@Z		; operator new
  0007d	83 c4 08	 add	 esp, 8
; File C:\Program Files\Microsoft Visual Studio\2022\Professional\VC\Tools\MSVC\14.44.35207\include\xtree

; 346  :         _Construct_in_place(_Pnode->_Left, _Pnode);

  00080	89 00		 mov	 DWORD PTR [eax], eax

; 347  :         _Construct_in_place(_Pnode->_Parent, _Pnode);

  00082	89 40 04	 mov	 DWORD PTR [eax+4], eax

; 348  :         _Construct_in_place(_Pnode->_Right, _Pnode);

  00085	89 40 08	 mov	 DWORD PTR [eax+8], eax

; 349  :         _Pnode->_Color = _Black;

  00088	66 c7 40 0c 01
	01		 mov	 WORD PTR [eax+12], 257	; 00000101H

; 1957 :         _Scary->_Myhead = _Node::_Buyheadnode(_Getal());

  0008e	89 06		 mov	 DWORD PTR [esi], eax
; File C:\IAGOS\server\v18\Source\Source\_Common\CreateMonster.cpp

; 15   : }

  00090	8b c7		 mov	 eax, edi
  00092	8b 4d f4	 mov	 ecx, DWORD PTR __$EHRec$[ebp]
  00095	64 89 0d 00 00
	00 00		 mov	 DWORD PTR fs:0, ecx
  0009c	59		 pop	 ecx
  0009d	5f		 pop	 edi
  0009e	5e		 pop	 esi
  0009f	8b e5		 mov	 esp, ebp
  000a1	5d		 pop	 ebp
  000a2	c3		 ret	 0
_TEXT	ENDS
;	COMDAT text$x
text$x	SEGMENT
__unwindfunclet$??0CCreateMonster@@QAE@XZ$0:
  00000	8b 4d f0	 mov	 ecx, DWORD PTR _this$[ebp]
  00003	83 c1 04	 add	 ecx, 4
  00006	e9 00 00 00 00	 jmp	 ??1?$map@KPAUCREATE_MONSTER_PROP@@U?$less@K@std@@V?$allocator@U?$pair@$$CBKPAUCREATE_MONSTER_PROP@@@std@@@3@@std@@QAE@XZ
  0000b	cc		 int	 3
  0000c	cc		 int	 3
  0000d	cc		 int	 3
  0000e	cc		 int	 3
  0000f	cc		 int	 3
__ehhandler$??0CCreateMonster@@QAE@XZ:
  00010	90		 npad	 1
  00011	90		 npad	 1
  00012	8b 54 24 08	 mov	 edx, DWORD PTR [esp+8]
  00016	8d 42 0c	 lea	 eax, DWORD PTR [edx+12]
  00019	8b 4a ec	 mov	 ecx, DWORD PTR [edx-20]
  0001c	33 c8		 xor	 ecx, eax
  0001e	e8 00 00 00 00	 call	 @__security_check_cookie@4
  00023	b8 00 00 00 00	 mov	 eax, OFFSET __ehfuncinfo$??0CCreateMonster@@QAE@XZ
  00028	e9 00 00 00 00	 jmp	 ___CxxFrameHandler3
text$x	ENDS
??0CCreateMonster@@QAE@XZ ENDP				; CCreateMonster::CCreateMonster
; Function compile flags: /Ogtp
; File C:\Program Files\Microsoft Visual Studio\2022\Professional\VC\Tools\MSVC\14.44.35207\include\xmemory
;	COMDAT ??$_Allocate_manually_vector_aligned@U_Default_allocate_traits@std@@@std@@YAPAXI@Z
_TEXT	SEGMENT
__Bytes$ = 8						; size = 4
??$_Allocate_manually_vector_aligned@U_Default_allocate_traits@std@@@std@@YAPAXI@Z PROC ; std::_Allocate_manually_vector_aligned<std::_Default_allocate_traits>, COMDAT

; 182  : __declspec(allocator) void* _Allocate_manually_vector_aligned(const size_t _Bytes) {

  00000	55		 push	 ebp
  00001	8b ec		 mov	 ebp, esp

; 183  :     // allocate _Bytes manually aligned to at least _Big_allocation_alignment
; 184  :     const size_t _Block_size = _Non_user_size + _Bytes;

  00003	8b 45 08	 mov	 eax, DWORD PTR __Bytes$[ebp]
  00006	8d 48 23	 lea	 ecx, DWORD PTR [eax+35]

; 185  :     if (_Block_size <= _Bytes) {

  00009	3b c8		 cmp	 ecx, eax
  0000b	0f 86 00 00 00
	00		 jbe	 ?_Throw_bad_array_new_length@std@@YAXXZ ; std::_Throw_bad_array_new_length

; 136  :         return ::operator new(_Bytes);

  00011	51		 push	 ecx
  00012	e8 00 00 00 00	 call	 ??2@YAPAXI@Z		; operator new

; 186  :         _Throw_bad_array_new_length(); // add overflow
; 187  :     }
; 188  : 
; 189  :     const uintptr_t _Ptr_container = reinterpret_cast<uintptr_t>(_Traits::_Allocate(_Block_size));

  00017	8b c8		 mov	 ecx, eax

; 136  :         return ::operator new(_Bytes);

  00019	83 c4 04	 add	 esp, 4

; 190  :     _STL_VERIFY(_Ptr_container != 0, "invalid argument"); // validate even in release since we're doing p[-1]

  0001c	85 c9		 test	 ecx, ecx
  0001e	74 0b		 je	 SHORT $LN9@Allocate_m

; 191  :     void* const _Ptr = reinterpret_cast<void*>((_Ptr_container + _Non_user_size) & ~(_Big_allocation_alignment - 1));

  00020	8d 41 23	 lea	 eax, DWORD PTR [ecx+35]
  00023	83 e0 e0	 and	 eax, -32		; ffffffe0H

; 192  :     static_cast<uintptr_t*>(_Ptr)[-1] = _Ptr_container;

  00026	89 48 fc	 mov	 DWORD PTR [eax-4], ecx

; 193  : 
; 194  : #ifdef _DEBUG
; 195  :     static_cast<uintptr_t*>(_Ptr)[-2] = _Big_allocation_sentinel;
; 196  : #endif // defined(_DEBUG)
; 197  :     return _Ptr;
; 198  : }

  00029	5d		 pop	 ebp
  0002a	c3		 ret	 0
$LN9@Allocate_m:

; 190  :     _STL_VERIFY(_Ptr_container != 0, "invalid argument"); // validate even in release since we're doing p[-1]

  0002b	6a 00		 push	 0
  0002d	6a 00		 push	 0
  0002f	6a 00		 push	 0
  00031	6a 00		 push	 0
  00033	6a 00		 push	 0
  00035	e8 00 00 00 00	 call	 __invoke_watson
$LN7@Allocate_m:
  0003a	cc		 int	 3
??$_Allocate_manually_vector_aligned@U_Default_allocate_traits@std@@@std@@YAPAXI@Z ENDP ; std::_Allocate_manually_vector_aligned<std::_Default_allocate_traits>
_TEXT	ENDS
; Function compile flags: /Ogtp
; File C:\Program Files\Microsoft Visual Studio\2022\Professional\VC\Tools\MSVC\14.44.35207\include\xtree
; File C:\Program Files\Microsoft Visual Studio\2022\Professional\VC\Tools\MSVC\14.44.35207\include\utility
; File C:\Program Files\Microsoft Visual Studio\2022\Professional\VC\Tools\MSVC\14.44.35207\include\xmemory
; File C:\Program Files\Microsoft Visual Studio\2022\Professional\VC\Tools\MSVC\14.44.35207\include\xtree
;	COMDAT ??$_Erase_tree@V?$allocator@U?$_Tree_node@U?$pair@$$CBKH@std@@PAX@std@@@std@@@?$_Tree_val@U?$_Tree_simple_types@U?$pair@$$CBKH@std@@@std@@@std@@QAEXAAV?$allocator@U?$_Tree_node@U?$pair@$$CBKH@std@@PAX@std@@@1@PAU?$_Tree_node@U?$pair@$$CBKH@std@@PAX@1@@Z
_TEXT	SEGMENT
__Al$ = 8						; size = 4
__Rootnode$ = 12					; size = 4
??$_Erase_tree@V?$allocator@U?$_Tree_node@U?$pair@$$CBKH@std@@PAX@std@@@std@@@?$_Tree_val@U?$_Tree_simple_types@U?$pair@$$CBKH@std@@@std@@@std@@QAEXAAV?$allocator@U?$_Tree_node@U?$pair@$$CBKH@std@@PAX@std@@@1@PAU?$_Tree_node@U?$pair@$$CBKH@std@@PAX@1@@Z PROC ; std::_Tree_val<std::_Tree_simple_types<std::pair<unsigned long const ,int> > >::_Erase_tree<std::allocator<std::_Tree_node<std::pair<unsigned long const ,int>,void *> > >, COMDAT
; _this$ = ecx

; 767  :     void _Erase_tree(_Alnode& _Al, _Nodeptr _Rootnode) noexcept {

  00000	55		 push	 ebp
  00001	8b ec		 mov	 ebp, esp
  00003	53		 push	 ebx
  00004	56		 push	 esi

; 768  :         while (!_Rootnode->_Isnil) { // free subtrees, then node

  00005	8b 75 0c	 mov	 esi, DWORD PTR __Rootnode$[ebp]
  00008	8b d9		 mov	 ebx, ecx
  0000a	80 7e 0d 00	 cmp	 BYTE PTR [esi+13], 0
  0000e	75 25		 jne	 SHORT $LN34@Erase_tree
  00010	57		 push	 edi
  00011	8b 7d 08	 mov	 edi, DWORD PTR __Al$[ebp]
$LL2@Erase_tree:

; 769  :             _Erase_tree(_Al, _Rootnode->_Right);

  00014	ff 76 08	 push	 DWORD PTR [esi+8]
  00017	8b cb		 mov	 ecx, ebx
  00019	57		 push	 edi
  0001a	e8 00 00 00 00	 call	 ??$_Erase_tree@V?$allocator@U?$_Tree_node@U?$pair@$$CBKH@std@@PAX@std@@@std@@@?$_Tree_val@U?$_Tree_simple_types@U?$pair@$$CBKH@std@@@std@@@std@@QAEXAAV?$allocator@U?$_Tree_node@U?$pair@$$CBKH@std@@PAX@std@@@1@PAU?$_Tree_node@U?$pair@$$CBKH@std@@PAX@1@@Z ; std::_Tree_val<std::_Tree_simple_types<std::pair<unsigned long const ,int> > >::_Erase_tree<std::allocator<std::_Tree_node<std::pair<unsigned long const ,int>,void *> > >
; File C:\Program Files\Microsoft Visual Studio\2022\Professional\VC\Tools\MSVC\14.44.35207\include\utility

; 773  :     _Ty _Old_val = static_cast<_Ty&&>(_Val);

  0001f	8b c6		 mov	 eax, esi

; 774  :     _Val         = static_cast<_Other&&>(_New_val);

  00021	8b 36		 mov	 esi, DWORD PTR [esi]
; File C:\Program Files\Microsoft Visual Studio\2022\Professional\VC\Tools\MSVC\14.44.35207\include\xmemory

; 289  :         ::operator delete(_Ptr, _Bytes);

  00023	6a 18		 push	 24			; 00000018H
  00025	50		 push	 eax
  00026	e8 00 00 00 00	 call	 ??3@YAXPAXI@Z		; operator delete
  0002b	83 c4 08	 add	 esp, 8
; File C:\Program Files\Microsoft Visual Studio\2022\Professional\VC\Tools\MSVC\14.44.35207\include\xtree

; 768  :         while (!_Rootnode->_Isnil) { // free subtrees, then node

  0002e	80 7e 0d 00	 cmp	 BYTE PTR [esi+13], 0
  00032	74 e0		 je	 SHORT $LL2@Erase_tree
  00034	5f		 pop	 edi
$LN34@Erase_tree:
  00035	5e		 pop	 esi

; 770  :             _Alnode::value_type::_Freenode(_Al, _STD exchange(_Rootnode, _Rootnode->_Left));
; 771  :         }
; 772  :     }

  00036	5b		 pop	 ebx
  00037	5d		 pop	 ebp
  00038	c2 08 00	 ret	 8
??$_Erase_tree@V?$allocator@U?$_Tree_node@U?$pair@$$CBKH@std@@PAX@std@@@std@@@?$_Tree_val@U?$_Tree_simple_types@U?$pair@$$CBKH@std@@@std@@@std@@QAEXAAV?$allocator@U?$_Tree_node@U?$pair@$$CBKH@std@@PAX@std@@@1@PAU?$_Tree_node@U?$pair@$$CBKH@std@@PAX@1@@Z ENDP ; std::_Tree_val<std::_Tree_simple_types<std::pair<unsigned long const ,int> > >::_Erase_tree<std::allocator<std::_Tree_node<std::pair<unsigned long const ,int>,void *> > >
_TEXT	ENDS
; Function compile flags: /Ogtp
; File C:\IAGOS\server\v18\Source\Source\_Common\Item.h
;	COMDAT ?GetAtId@?$CItemContainer@VCItemElem@@@@QAEPAVCItemElem@@K@Z
_TEXT	SEGMENT
_dwId$ = 8						; size = 4
?GetAtId@?$CItemContainer@VCItemElem@@@@QAEPAVCItemElem@@K@Z PROC ; CItemContainer<CItemElem>::GetAtId, COMDAT
; _this$ = ecx

; 518  : {

  00000	55		 push	 ebp
  00001	8b ec		 mov	 ebp, esp

; 519  : 	if( dwId >= (DWORD)( GetMax() ) ) return NULL;

  00003	8b 45 08	 mov	 eax, DWORD PTR _dwId$[ebp]
  00006	3b 41 0c	 cmp	 eax, DWORD PTR [ecx+12]
  00009	73 15		 jae	 SHORT $LN7@GetAtId

; 520  : 	T* pItemElem = &m_apItem[ dwId ];

  0000b	69 c0 b0 00 00
	00		 imul	 eax, eax, 176
  00011	03 41 10	 add	 eax, DWORD PTR [ecx+16]

; 50   : 	BOOL			IsEmpty() { return m_dwItemId ? FALSE : TRUE; }

  00014	33 c9		 xor	 ecx, ecx
  00016	39 48 0c	 cmp	 DWORD PTR [eax+12], ecx
  00019	0f 44 c1	 cmove	 eax, ecx

; 523  : 	return pItemElem;
; 524  : }

  0001c	5d		 pop	 ebp
  0001d	c2 04 00	 ret	 4
$LN7@GetAtId:

; 521  : 	if( pItemElem->IsEmpty() ) 
; 522  : 		return NULL;

  00020	33 c0		 xor	 eax, eax

; 523  : 	return pItemElem;
; 524  : }

  00022	5d		 pop	 ebp
  00023	c2 04 00	 ret	 4
?GetAtId@?$CItemContainer@VCItemElem@@@@QAEPAVCItemElem@@K@Z ENDP ; CItemContainer<CItemElem>::GetAtId
_TEXT	ENDS
; Function compile flags: /Ogtp
; File C:\Program Files\Microsoft Visual Studio\2022\Professional\VC\Tools\MSVC\14.44.35207\include\xtree
;	COMDAT ?_Insert_node@?$_Tree_val@U?$_Tree_simple_types@U?$pair@$$CBKH@std@@@std@@@std@@QAEPAU?$_Tree_node@U?$pair@$$CBKH@std@@PAX@2@U?$_Tree_id@PAU?$_Tree_node@U?$pair@$$CBKH@std@@PAX@std@@@2@QAU32@@Z
_TEXT	SEGMENT
__Head$1$ = -4						; size = 4
__Loc$ = 8						; size = 8
__Newnode$ = 16						; size = 4
?_Insert_node@?$_Tree_val@U?$_Tree_simple_types@U?$pair@$$CBKH@std@@@std@@@std@@QAEPAU?$_Tree_node@U?$pair@$$CBKH@std@@PAX@2@U?$_Tree_id@PAU?$_Tree_node@U?$pair@$$CBKH@std@@PAX@std@@@2@QAU32@@Z PROC ; std::_Tree_val<std::_Tree_simple_types<std::pair<unsigned long const ,int> > >::_Insert_node, COMDAT
; _this$ = ecx

; 669  :     _Nodeptr _Insert_node(const _Tree_id<_Nodeptr> _Loc, const _Nodeptr _Newnode) noexcept {

  00000	55		 push	 ebp
  00001	8b ec		 mov	 ebp, esp
  00003	51		 push	 ecx

; 670  :         ++_Mysize;
; 671  :         const auto _Head  = _Myhead;
; 672  :         _Newnode->_Parent = _Loc._Parent;

  00004	8b 55 08	 mov	 edx, DWORD PTR __Loc$[ebp]
  00007	53		 push	 ebx
  00008	8b d9		 mov	 ebx, ecx
  0000a	57		 push	 edi
  0000b	8b 7d 10	 mov	 edi, DWORD PTR __Newnode$[ebp]
  0000e	8b 03		 mov	 eax, DWORD PTR [ebx]
  00010	ff 43 04	 inc	 DWORD PTR [ebx+4]
  00013	89 45 fc	 mov	 DWORD PTR __Head$1$[ebp], eax
  00016	89 57 04	 mov	 DWORD PTR [edi+4], edx

; 673  :         if (_Loc._Parent == _Head) { // first node in tree, just set head values

  00019	3b d0		 cmp	 edx, eax
  0001b	75 16		 jne	 SHORT $LN5@Insert_nod

; 674  :             _Head->_Left     = _Newnode;

  0001d	89 38		 mov	 DWORD PTR [eax], edi

; 675  :             _Head->_Parent   = _Newnode;

  0001f	89 78 04	 mov	 DWORD PTR [eax+4], edi

; 676  :             _Head->_Right    = _Newnode;

  00022	89 78 08	 mov	 DWORD PTR [eax+8], edi

; 735  :         return _Newnode;
; 736  :     }

  00025	8b c7		 mov	 eax, edi
  00027	c6 47 0c 01	 mov	 BYTE PTR [edi+12], 1
  0002b	5f		 pop	 edi
  0002c	5b		 pop	 ebx
  0002d	8b e5		 mov	 esp, ebp
  0002f	5d		 pop	 ebp
  00030	c2 0c 00	 ret	 12			; 0000000cH
$LN5@Insert_nod:

; 677  :             _Newnode->_Color = _Black; // the root is black
; 678  :             return _Newnode;
; 679  :         }
; 680  : 
; 681  :         _STL_INTERNAL_CHECK(_Loc._Child != _Tree_child::_Unused);
; 682  :         if (_Loc._Child == _Tree_child::_Right) { // add to right of _Loc._Parent

  00033	83 7d 0c 00	 cmp	 DWORD PTR __Loc$[ebp+4], 0
  00037	75 0d		 jne	 SHORT $LN6@Insert_nod

; 683  :             _STL_INTERNAL_CHECK(_Loc._Parent->_Right->_Isnil);
; 684  :             _Loc._Parent->_Right = _Newnode;

  00039	89 7a 08	 mov	 DWORD PTR [edx+8], edi

; 685  :             if (_Loc._Parent == _Head->_Right) { // remember rightmost node

  0003c	3b 50 08	 cmp	 edx, DWORD PTR [eax+8]
  0003f	75 0d		 jne	 SHORT $LN9@Insert_nod

; 686  :                 _Head->_Right = _Newnode;

  00041	89 78 08	 mov	 DWORD PTR [eax+8], edi

; 687  :             }
; 688  :         } else { // add to left of _Loc._Parent

  00044	eb 08		 jmp	 SHORT $LN9@Insert_nod
$LN6@Insert_nod:

; 689  :             _STL_INTERNAL_CHECK(_Loc._Parent->_Left->_Isnil);
; 690  :             _Loc._Parent->_Left = _Newnode;

  00046	89 3a		 mov	 DWORD PTR [edx], edi

; 691  :             if (_Loc._Parent == _Head->_Left) { // remember leftmost node

  00048	3b 10		 cmp	 edx, DWORD PTR [eax]
  0004a	75 02		 jne	 SHORT $LN9@Insert_nod

; 692  :                 _Head->_Left = _Newnode;

  0004c	89 38		 mov	 DWORD PTR [eax], edi
$LN9@Insert_nod:

; 693  :             }
; 694  :         }
; 695  : 
; 696  :         for (_Nodeptr _Pnode = _Newnode; _Pnode->_Parent->_Color == _Red;) {

  0004e	8b 4f 04	 mov	 ecx, DWORD PTR [edi+4]
  00051	8b c7		 mov	 eax, edi
  00053	80 79 0c 00	 cmp	 BYTE PTR [ecx+12], 0
  00057	0f 85 7d 01 00
	00		 jne	 $LN3@Insert_nod
  0005d	56		 push	 esi
  0005e	66 90		 npad	 2
$LL4@Insert_nod:

; 697  :             if (_Pnode->_Parent == _Pnode->_Parent->_Parent->_Left) { // fixup red-red in left subtree

  00060	8b 50 04	 mov	 edx, DWORD PTR [eax+4]
  00063	8b 72 04	 mov	 esi, DWORD PTR [edx+4]
  00066	8b 0e		 mov	 ecx, DWORD PTR [esi]
  00068	3b d1		 cmp	 edx, ecx
  0006a	0f 85 aa 00 00
	00		 jne	 $LN10@Insert_nod

; 698  :                 const auto _Parent_sibling = _Pnode->_Parent->_Parent->_Right;

  00070	8b 4e 08	 mov	 ecx, DWORD PTR [esi+8]

; 699  :                 if (_Parent_sibling->_Color == _Red) { // parent's sibling has two red children, blacken both

  00073	80 79 0c 00	 cmp	 BYTE PTR [ecx+12], 0
  00077	0f 84 a3 00 00
	00		 je	 $LN82@Insert_nod

; 700  :                     _Pnode->_Parent->_Color          = _Black;
; 701  :                     _Parent_sibling->_Color          = _Black;
; 702  :                     _Pnode->_Parent->_Parent->_Color = _Red;
; 703  :                     _Pnode                           = _Pnode->_Parent->_Parent;
; 704  :                 } else { // parent's sibling has red and black children
; 705  :                     if (_Pnode == _Pnode->_Parent->_Right) { // rotate right child to left

  0007d	8b 72 08	 mov	 esi, DWORD PTR [edx+8]
  00080	3b c6		 cmp	 eax, esi
  00082	75 37		 jne	 SHORT $LN57@Insert_nod

; 485  :         _Wherenode->_Right = _Pnode->_Left;

  00084	8b 0e		 mov	 ecx, DWORD PTR [esi]

; 706  :                         _Pnode = _Pnode->_Parent;

  00086	8b c2		 mov	 eax, edx

; 485  :         _Wherenode->_Right = _Pnode->_Left;

  00088	89 4a 08	 mov	 DWORD PTR [edx+8], ecx

; 486  : 
; 487  :         if (!_Pnode->_Left->_Isnil) {

  0008b	8b 0e		 mov	 ecx, DWORD PTR [esi]
  0008d	80 79 0d 00	 cmp	 BYTE PTR [ecx+13], 0
  00091	75 03		 jne	 SHORT $LN21@Insert_nod

; 488  :             _Pnode->_Left->_Parent = _Wherenode;

  00093	89 41 04	 mov	 DWORD PTR [ecx+4], eax
$LN21@Insert_nod:

; 489  :         }
; 490  : 
; 491  :         _Pnode->_Parent = _Wherenode->_Parent;

  00096	8b 4a 04	 mov	 ecx, DWORD PTR [edx+4]
  00099	89 4e 04	 mov	 DWORD PTR [esi+4], ecx

; 492  : 
; 493  :         if (_Wherenode == _Myhead->_Parent) {

  0009c	8b 0b		 mov	 ecx, DWORD PTR [ebx]
  0009e	3b 41 04	 cmp	 eax, DWORD PTR [ecx+4]
  000a1	75 05		 jne	 SHORT $LN22@Insert_nod

; 494  :             _Myhead->_Parent = _Pnode;

  000a3	89 71 04	 mov	 DWORD PTR [ecx+4], esi
  000a6	eb 0e		 jmp	 SHORT $LN25@Insert_nod
$LN22@Insert_nod:

; 495  :         } else if (_Wherenode == _Wherenode->_Parent->_Left) {

  000a8	8b 4a 04	 mov	 ecx, DWORD PTR [edx+4]
  000ab	3b 01		 cmp	 eax, DWORD PTR [ecx]
  000ad	75 04		 jne	 SHORT $LN24@Insert_nod

; 496  :             _Wherenode->_Parent->_Left = _Pnode;

  000af	89 31		 mov	 DWORD PTR [ecx], esi

; 497  :         } else {

  000b1	eb 03		 jmp	 SHORT $LN25@Insert_nod
$LN24@Insert_nod:

; 498  :             _Wherenode->_Parent->_Right = _Pnode;

  000b3	89 71 08	 mov	 DWORD PTR [ecx+8], esi
$LN25@Insert_nod:

; 499  :         }
; 500  : 
; 501  :         _Pnode->_Left       = _Wherenode;

  000b6	89 06		 mov	 DWORD PTR [esi], eax

; 502  :         _Wherenode->_Parent = _Pnode;

  000b8	89 70 04	 mov	 DWORD PTR [eax+4], esi
$LN57@Insert_nod:

; 707  :                         _Lrotate(_Pnode);
; 708  :                     }
; 709  : 
; 710  :                     _Pnode->_Parent->_Color          = _Black; // propagate red up

  000bb	8b 48 04	 mov	 ecx, DWORD PTR [eax+4]
  000be	c6 41 0c 01	 mov	 BYTE PTR [ecx+12], 1

; 711  :                     _Pnode->_Parent->_Parent->_Color = _Red;

  000c2	8b 48 04	 mov	 ecx, DWORD PTR [eax+4]
  000c5	8b 49 04	 mov	 ecx, DWORD PTR [ecx+4]
  000c8	c6 41 0c 00	 mov	 BYTE PTR [ecx+12], 0

; 712  :                     _Rrotate(_Pnode->_Parent->_Parent);

  000cc	8b 48 04	 mov	 ecx, DWORD PTR [eax+4]
  000cf	8b 51 04	 mov	 edx, DWORD PTR [ecx+4]

; 506  :         _Nodeptr _Pnode   = _Wherenode->_Left;

  000d2	8b 32		 mov	 esi, DWORD PTR [edx]

; 507  :         _Wherenode->_Left = _Pnode->_Right;

  000d4	8b 4e 08	 mov	 ecx, DWORD PTR [esi+8]
  000d7	89 0a		 mov	 DWORD PTR [edx], ecx

; 508  : 
; 509  :         if (!_Pnode->_Right->_Isnil) {

  000d9	8b 4e 08	 mov	 ecx, DWORD PTR [esi+8]
  000dc	80 79 0d 00	 cmp	 BYTE PTR [ecx+13], 0
  000e0	75 03		 jne	 SHORT $LN29@Insert_nod

; 510  :             _Pnode->_Right->_Parent = _Wherenode;

  000e2	89 51 04	 mov	 DWORD PTR [ecx+4], edx
$LN29@Insert_nod:

; 511  :         }
; 512  : 
; 513  :         _Pnode->_Parent = _Wherenode->_Parent;

  000e5	8b 4a 04	 mov	 ecx, DWORD PTR [edx+4]
  000e8	89 4e 04	 mov	 DWORD PTR [esi+4], ecx

; 514  : 
; 515  :         if (_Wherenode == _Myhead->_Parent) {

  000eb	8b 0b		 mov	 ecx, DWORD PTR [ebx]
  000ed	3b 51 04	 cmp	 edx, DWORD PTR [ecx+4]
  000f0	75 0b		 jne	 SHORT $LN30@Insert_nod

; 516  :             _Myhead->_Parent = _Pnode;

  000f2	89 71 04	 mov	 DWORD PTR [ecx+4], esi

; 521  :         }
; 522  : 
; 523  :         _Pnode->_Right      = _Wherenode;

  000f5	89 56 08	 mov	 DWORD PTR [esi+8], edx

; 713  :                 }
; 714  :             } else { // fixup red-red in right subtree

  000f8	e9 cc 00 00 00	 jmp	 $LN81@Insert_nod
$LN30@Insert_nod:

; 517  :         } else if (_Wherenode == _Wherenode->_Parent->_Right) {

  000fd	8b 4a 04	 mov	 ecx, DWORD PTR [edx+4]
  00100	3b 51 08	 cmp	 edx, DWORD PTR [ecx+8]
  00103	75 0b		 jne	 SHORT $LN32@Insert_nod

; 518  :             _Wherenode->_Parent->_Right = _Pnode;

  00105	89 71 08	 mov	 DWORD PTR [ecx+8], esi

; 521  :         }
; 522  : 
; 523  :         _Pnode->_Right      = _Wherenode;

  00108	89 56 08	 mov	 DWORD PTR [esi+8], edx

; 713  :                 }
; 714  :             } else { // fixup red-red in right subtree

  0010b	e9 b9 00 00 00	 jmp	 $LN81@Insert_nod
$LN32@Insert_nod:

; 520  :             _Wherenode->_Parent->_Left = _Pnode;

  00110	89 31		 mov	 DWORD PTR [ecx], esi

; 521  :         }
; 522  : 
; 523  :         _Pnode->_Right      = _Wherenode;

  00112	89 56 08	 mov	 DWORD PTR [esi+8], edx

; 713  :                 }
; 714  :             } else { // fixup red-red in right subtree

  00115	e9 af 00 00 00	 jmp	 $LN81@Insert_nod
$LN10@Insert_nod:

; 715  :                 const auto _Parent_sibling = _Pnode->_Parent->_Parent->_Left;
; 716  :                 if (_Parent_sibling->_Color == _Red) { // parent's sibling has two red children, blacken both

  0011a	80 79 0c 00	 cmp	 BYTE PTR [ecx+12], 0
  0011e	75 1d		 jne	 SHORT $LN15@Insert_nod
$LN82@Insert_nod:

; 693  :             }
; 694  :         }
; 695  : 
; 696  :         for (_Nodeptr _Pnode = _Newnode; _Pnode->_Parent->_Color == _Red;) {

  00120	c6 42 0c 01	 mov	 BYTE PTR [edx+12], 1
  00124	c6 41 0c 01	 mov	 BYTE PTR [ecx+12], 1
  00128	8b 48 04	 mov	 ecx, DWORD PTR [eax+4]
  0012b	8b 49 04	 mov	 ecx, DWORD PTR [ecx+4]
  0012e	c6 41 0c 00	 mov	 BYTE PTR [ecx+12], 0
  00132	8b 48 04	 mov	 ecx, DWORD PTR [eax+4]
  00135	8b 41 04	 mov	 eax, DWORD PTR [ecx+4]
  00138	e9 8f 00 00 00	 jmp	 $LN2@Insert_nod
$LN15@Insert_nod:

; 717  :                     _Pnode->_Parent->_Color          = _Black;
; 718  :                     _Parent_sibling->_Color          = _Black;
; 719  :                     _Pnode->_Parent->_Parent->_Color = _Red;
; 720  :                     _Pnode                           = _Pnode->_Parent->_Parent;
; 721  :                 } else { // parent's sibling has red and black children
; 722  :                     if (_Pnode == _Pnode->_Parent->_Left) { // rotate left child to right

  0013d	8b 32		 mov	 esi, DWORD PTR [edx]
  0013f	3b c6		 cmp	 eax, esi
  00141	75 3a		 jne	 SHORT $LN42@Insert_nod

; 507  :         _Wherenode->_Left = _Pnode->_Right;

  00143	8b 4e 08	 mov	 ecx, DWORD PTR [esi+8]

; 723  :                         _Pnode = _Pnode->_Parent;

  00146	8b c2		 mov	 eax, edx

; 507  :         _Wherenode->_Left = _Pnode->_Right;

  00148	89 08		 mov	 DWORD PTR [eax], ecx

; 508  : 
; 509  :         if (!_Pnode->_Right->_Isnil) {

  0014a	8b 4e 08	 mov	 ecx, DWORD PTR [esi+8]
  0014d	80 79 0d 00	 cmp	 BYTE PTR [ecx+13], 0
  00151	75 03		 jne	 SHORT $LN37@Insert_nod

; 510  :             _Pnode->_Right->_Parent = _Wherenode;

  00153	89 41 04	 mov	 DWORD PTR [ecx+4], eax
$LN37@Insert_nod:

; 511  :         }
; 512  : 
; 513  :         _Pnode->_Parent = _Wherenode->_Parent;

  00156	8b 4a 04	 mov	 ecx, DWORD PTR [edx+4]
  00159	89 4e 04	 mov	 DWORD PTR [esi+4], ecx

; 514  : 
; 515  :         if (_Wherenode == _Myhead->_Parent) {

  0015c	8b 0b		 mov	 ecx, DWORD PTR [ebx]
  0015e	3b 41 04	 cmp	 eax, DWORD PTR [ecx+4]
  00161	75 05		 jne	 SHORT $LN38@Insert_nod

; 516  :             _Myhead->_Parent = _Pnode;

  00163	89 71 04	 mov	 DWORD PTR [ecx+4], esi
  00166	eb 0f		 jmp	 SHORT $LN41@Insert_nod
$LN38@Insert_nod:

; 517  :         } else if (_Wherenode == _Wherenode->_Parent->_Right) {

  00168	8b 4a 04	 mov	 ecx, DWORD PTR [edx+4]
  0016b	3b 41 08	 cmp	 eax, DWORD PTR [ecx+8]
  0016e	75 05		 jne	 SHORT $LN40@Insert_nod

; 518  :             _Wherenode->_Parent->_Right = _Pnode;

  00170	89 71 08	 mov	 DWORD PTR [ecx+8], esi

; 519  :         } else {

  00173	eb 02		 jmp	 SHORT $LN41@Insert_nod
$LN40@Insert_nod:

; 520  :             _Wherenode->_Parent->_Left = _Pnode;

  00175	89 31		 mov	 DWORD PTR [ecx], esi
$LN41@Insert_nod:

; 521  :         }
; 522  : 
; 523  :         _Pnode->_Right      = _Wherenode;

  00177	89 46 08	 mov	 DWORD PTR [esi+8], eax

; 524  :         _Wherenode->_Parent = _Pnode;

  0017a	89 70 04	 mov	 DWORD PTR [eax+4], esi
$LN42@Insert_nod:

; 724  :                         _Rrotate(_Pnode);
; 725  :                     }
; 726  : 
; 727  :                     _Pnode->_Parent->_Color          = _Black; // propagate red up

  0017d	8b 48 04	 mov	 ecx, DWORD PTR [eax+4]
  00180	c6 41 0c 01	 mov	 BYTE PTR [ecx+12], 1

; 728  :                     _Pnode->_Parent->_Parent->_Color = _Red;

  00184	8b 48 04	 mov	 ecx, DWORD PTR [eax+4]
  00187	8b 49 04	 mov	 ecx, DWORD PTR [ecx+4]
  0018a	c6 41 0c 00	 mov	 BYTE PTR [ecx+12], 0

; 729  :                     _Lrotate(_Pnode->_Parent->_Parent);

  0018e	8b 48 04	 mov	 ecx, DWORD PTR [eax+4]
  00191	8b 51 04	 mov	 edx, DWORD PTR [ecx+4]

; 484  :         _Nodeptr _Pnode    = _Wherenode->_Right;

  00194	8b 72 08	 mov	 esi, DWORD PTR [edx+8]

; 485  :         _Wherenode->_Right = _Pnode->_Left;

  00197	8b 0e		 mov	 ecx, DWORD PTR [esi]
  00199	89 4a 08	 mov	 DWORD PTR [edx+8], ecx

; 486  : 
; 487  :         if (!_Pnode->_Left->_Isnil) {

  0019c	8b 0e		 mov	 ecx, DWORD PTR [esi]
  0019e	80 79 0d 00	 cmp	 BYTE PTR [ecx+13], 0
  001a2	75 03		 jne	 SHORT $LN45@Insert_nod

; 488  :             _Pnode->_Left->_Parent = _Wherenode;

  001a4	89 51 04	 mov	 DWORD PTR [ecx+4], edx
$LN45@Insert_nod:

; 489  :         }
; 490  : 
; 491  :         _Pnode->_Parent = _Wherenode->_Parent;

  001a7	8b 4a 04	 mov	 ecx, DWORD PTR [edx+4]
  001aa	89 4e 04	 mov	 DWORD PTR [esi+4], ecx

; 492  : 
; 493  :         if (_Wherenode == _Myhead->_Parent) {

  001ad	8b 0b		 mov	 ecx, DWORD PTR [ebx]
  001af	3b 51 04	 cmp	 edx, DWORD PTR [ecx+4]
  001b2	75 05		 jne	 SHORT $LN46@Insert_nod

; 494  :             _Myhead->_Parent = _Pnode;

  001b4	89 71 04	 mov	 DWORD PTR [ecx+4], esi
  001b7	eb 0e		 jmp	 SHORT $LN49@Insert_nod
$LN46@Insert_nod:

; 495  :         } else if (_Wherenode == _Wherenode->_Parent->_Left) {

  001b9	8b 4a 04	 mov	 ecx, DWORD PTR [edx+4]
  001bc	3b 11		 cmp	 edx, DWORD PTR [ecx]
  001be	75 04		 jne	 SHORT $LN48@Insert_nod

; 496  :             _Wherenode->_Parent->_Left = _Pnode;

  001c0	89 31		 mov	 DWORD PTR [ecx], esi

; 497  :         } else {

  001c2	eb 03		 jmp	 SHORT $LN49@Insert_nod
$LN48@Insert_nod:

; 498  :             _Wherenode->_Parent->_Right = _Pnode;

  001c4	89 71 08	 mov	 DWORD PTR [ecx+8], esi
$LN49@Insert_nod:

; 499  :         }
; 500  : 
; 501  :         _Pnode->_Left       = _Wherenode;

  001c7	89 16		 mov	 DWORD PTR [esi], edx
$LN81@Insert_nod:

; 693  :             }
; 694  :         }
; 695  : 
; 696  :         for (_Nodeptr _Pnode = _Newnode; _Pnode->_Parent->_Color == _Red;) {

  001c9	89 72 04	 mov	 DWORD PTR [edx+4], esi
$LN2@Insert_nod:
  001cc	8b 48 04	 mov	 ecx, DWORD PTR [eax+4]
  001cf	80 79 0c 00	 cmp	 BYTE PTR [ecx+12], 0
  001d3	0f 84 87 fe ff
	ff		 je	 $LL4@Insert_nod
  001d9	5e		 pop	 esi
$LN3@Insert_nod:

; 730  :                 }
; 731  :             }
; 732  :         }
; 733  : 
; 734  :         _Head->_Parent->_Color = _Black; // root is always black

  001da	8b 45 fc	 mov	 eax, DWORD PTR __Head$1$[ebp]
  001dd	8b 40 04	 mov	 eax, DWORD PTR [eax+4]
  001e0	c6 40 0c 01	 mov	 BYTE PTR [eax+12], 1

; 735  :         return _Newnode;
; 736  :     }

  001e4	8b c7		 mov	 eax, edi
  001e6	5f		 pop	 edi
  001e7	5b		 pop	 ebx
  001e8	8b e5		 mov	 esp, ebp
  001ea	5d		 pop	 ebp
  001eb	c2 0c 00	 ret	 12			; 0000000cH
?_Insert_node@?$_Tree_val@U?$_Tree_simple_types@U?$pair@$$CBKH@std@@@std@@@std@@QAEPAU?$_Tree_node@U?$pair@$$CBKH@std@@PAX@2@U?$_Tree_id@PAU?$_Tree_node@U?$pair@$$CBKH@std@@PAX@std@@@2@QAU32@@Z ENDP ; std::_Tree_val<std::_Tree_simple_types<std::pair<unsigned long const ,int> > >::_Insert_node
_TEXT	ENDS
; Function compile flags: /Ogtp
; File C:\Program Files\Microsoft Visual Studio\2022\Professional\VC\Tools\MSVC\14.44.35207\include\xtree
; File C:\Program Files\Microsoft Visual Studio\2022\Professional\VC\Tools\MSVC\14.44.35207\include\utility
; File C:\Program Files\Microsoft Visual Studio\2022\Professional\VC\Tools\MSVC\14.44.35207\include\xmemory
; File C:\Program Files\Microsoft Visual Studio\2022\Professional\VC\Tools\MSVC\14.44.35207\include\xtree
; File C:\Program Files\Microsoft Visual Studio\2022\Professional\VC\Tools\MSVC\14.44.35207\include\xmemory
; File C:\Program Files\Microsoft Visual Studio\2022\Professional\VC\Tools\MSVC\14.44.35207\include\xtree
;	COMDAT ??1?$_Tree@V?$_Tmap_traits@KHU?$less@K@std@@V?$allocator@U?$pair@$$CBKH@std@@@2@$0A@@std@@@std@@QAE@XZ
_TEXT	SEGMENT
??1?$_Tree@V?$_Tmap_traits@KHU?$less@K@std@@V?$allocator@U?$pair@$$CBKH@std@@@2@$0A@@std@@@std@@QAE@XZ PROC ; std::_Tree<std::_Tmap_traits<unsigned long,int,std::less<unsigned long>,std::allocator<std::pair<unsigned long const ,int> >,0> >::~_Tree<std::_Tmap_traits<unsigned long,int,std::less<unsigned long>,std::allocator<std::pair<unsigned long const ,int> >,0> >, COMDAT
; _this$ = ecx

; 1095 :     ~_Tree() noexcept {

  00000	56		 push	 esi
  00001	57		 push	 edi
  00002	8b f9		 mov	 edi, ecx

; 777  :         _Erase_tree(_Al, _Myhead->_Parent);

  00004	8b 37		 mov	 esi, DWORD PTR [edi]
  00006	8b 76 04	 mov	 esi, DWORD PTR [esi+4]

; 768  :         while (!_Rootnode->_Isnil) { // free subtrees, then node

  00009	80 7e 0d 00	 cmp	 BYTE PTR [esi+13], 0
  0000d	75 21		 jne	 SHORT $LN61@Tree
  0000f	90		 npad	 1
$LL8@Tree:

; 769  :             _Erase_tree(_Al, _Rootnode->_Right);

  00010	ff 76 08	 push	 DWORD PTR [esi+8]
  00013	8b cf		 mov	 ecx, edi
  00015	57		 push	 edi
  00016	e8 00 00 00 00	 call	 ??$_Erase_tree@V?$allocator@U?$_Tree_node@U?$pair@$$CBKH@std@@PAX@std@@@std@@@?$_Tree_val@U?$_Tree_simple_types@U?$pair@$$CBKH@std@@@std@@@std@@QAEXAAV?$allocator@U?$_Tree_node@U?$pair@$$CBKH@std@@PAX@std@@@1@PAU?$_Tree_node@U?$pair@$$CBKH@std@@PAX@1@@Z ; std::_Tree_val<std::_Tree_simple_types<std::pair<unsigned long const ,int> > >::_Erase_tree<std::allocator<std::_Tree_node<std::pair<unsigned long const ,int>,void *> > >
; File C:\Program Files\Microsoft Visual Studio\2022\Professional\VC\Tools\MSVC\14.44.35207\include\utility

; 773  :     _Ty _Old_val = static_cast<_Ty&&>(_Val);

  0001b	8b c6		 mov	 eax, esi

; 774  :     _Val         = static_cast<_Other&&>(_New_val);

  0001d	8b 36		 mov	 esi, DWORD PTR [esi]
; File C:\Program Files\Microsoft Visual Studio\2022\Professional\VC\Tools\MSVC\14.44.35207\include\xmemory

; 289  :         ::operator delete(_Ptr, _Bytes);

  0001f	6a 18		 push	 24			; 00000018H
  00021	50		 push	 eax
  00022	e8 00 00 00 00	 call	 ??3@YAXPAXI@Z		; operator delete
  00027	83 c4 08	 add	 esp, 8
; File C:\Program Files\Microsoft Visual Studio\2022\Professional\VC\Tools\MSVC\14.44.35207\include\xtree

; 768  :         while (!_Rootnode->_Isnil) { // free subtrees, then node

  0002a	80 7e 0d 00	 cmp	 BYTE PTR [esi+13], 0
  0002e	74 e0		 je	 SHORT $LL8@Tree
$LN61@Tree:
; File C:\Program Files\Microsoft Visual Studio\2022\Professional\VC\Tools\MSVC\14.44.35207\include\xmemory

; 289  :         ::operator delete(_Ptr, _Bytes);

  00030	6a 18		 push	 24			; 00000018H
  00032	ff 37		 push	 DWORD PTR [edi]
  00034	e8 00 00 00 00	 call	 ??3@YAXPAXI@Z		; operator delete
  00039	83 c4 08	 add	 esp, 8
  0003c	5f		 pop	 edi
  0003d	5e		 pop	 esi
; File C:\Program Files\Microsoft Visual Studio\2022\Professional\VC\Tools\MSVC\14.44.35207\include\xtree

; 1102 :     }

  0003e	c3		 ret	 0
??1?$_Tree@V?$_Tmap_traits@KHU?$less@K@std@@V?$allocator@U?$pair@$$CBKH@std@@@2@$0A@@std@@@std@@QAE@XZ ENDP ; std::_Tree<std::_Tmap_traits<unsigned long,int,std::less<unsigned long>,std::allocator<std::pair<unsigned long const ,int> >,0> >::~_Tree<std::_Tmap_traits<unsigned long,int,std::less<unsigned long>,std::allocator<std::pair<unsigned long const ,int> >,0> >
_TEXT	ENDS
; Function compile flags: /Ogtp
; File C:\IAGOS\server\v18\Source\Source\_network\CmnHdr.h
;	COMDAT ??0_LogItemInfo@@QAE@XZ
_TEXT	SEGMENT
??0_LogItemInfo@@QAE@XZ PROC				; _LogItemInfo::_LogItemInfo, COMDAT
; _this$ = ecx

; 636  : 	{
; 637  : 		Action = _T("");

  00000	c7 01 00 00 00
	00		 mov	 DWORD PTR [ecx], OFFSET ??_C@_00CNPNBAHC@@
  00006	0f 57 c0	 xorps	 xmm0, xmm0

; 638  : 		SendName = _T("");

  00009	c7 41 04 00 00
	00 00		 mov	 DWORD PTR [ecx+4], OFFSET ??_C@_00CNPNBAHC@@

; 639  : 		RecvName = _T("");
; 640  : 		WorldId = Gold = Gold2 = 0;
; 641  : 		Negudo = 0;
; 642  : 		MaxNegudo = 0;
; 643  : 		ItemNo = 0;
; 644  : 		//ItemName = _T("");
; 645  : 		::memset( szItemName, 0, sizeof(szItemName) );
; 646  : 		itemNumber = 0;
; 647  : 		nAbilityOption = 0;
; 648  : 		Gold_1 = 0;
; 649  : 		nSlot = 100;
; 650  : 		nSlot1 = 100;
; 651  : 		nItemResist = 0;
; 652  : 		nResistAbilityOption = 0;
; 653  : 		m_bCharged = FALSE;
; 654  : 		m_dwKeepTime = 0;
; 655  : #if __VER >= 11 // __SYS_IDENTIFY
; 656  : 		m_iRandomOptItemId = 0;
; 657  : #else	//__SYS_IDENTIFY
; 658  : 		m_nRandomOptItemId = 0;
; 659  : #endif	// __SYS_IDENTIFY
; 660  : #if __VER >= 12 // __EXT_PIERCING
; 661  : 		nPiercedSize = 0;
; 662  : //		for( int i=0; i<MAX_PIERCING_WEAPON; i++ )
; 663  : //			adwItemId[i] = 0;
; 664  : 		memset( adwItemId, 0, sizeof(adwItemId) );
; 665  : 		nUMPiercedSize = 0;
; 666  : //		for( i=0; i<MAX_PIERCING_ULTIMATE; i++ )
; 667  : //	adwUMItemId[i] = 0;
; 668  : 		memset( adwUMItemId, 0, sizeof(adwUMItemId) );
; 669  : #else // __EXT_PIERCING
; 670  : 		nPiercedSize = 0;
; 671  : 		adwItemId0 = 0;
; 672  : 		adwItemId1 = 0;
; 673  : 		adwItemId2 = 0;
; 674  : 		adwItemId3 = 0;
; 675  : #if __VER >= 9 // __ULTIMATE
; 676  : 		adwItemId4 = 0;
; 677  : #endif // __ULTIMATE
; 678  : #endif // __EXT_PIERCING
; 679  : #if __VER >= 9 // __PET_0410
; 680  : 		nPetKind = 0;
; 681  : 		nPetLevel = 0;
; 682  : 		dwPetExp = 0;
; 683  : 		wPetEnergy = 0;

  00010	33 c0		 xor	 eax, eax
  00012	c7 41 08 00 00
	00 00		 mov	 DWORD PTR [ecx+8], OFFSET ??_C@_00CNPNBAHC@@
  00019	c7 41 14 00 00
	00 00		 mov	 DWORD PTR [ecx+20], 0
  00020	c7 41 10 00 00
	00 00		 mov	 DWORD PTR [ecx+16], 0
  00027	c7 41 0c 00 00
	00 00		 mov	 DWORD PTR [ecx+12], 0
  0002e	c7 41 1c 00 00
	00 00		 mov	 DWORD PTR [ecx+28], 0
  00035	c7 41 20 00 00
	00 00		 mov	 DWORD PTR [ecx+32], 0
  0003c	c7 41 18 00 00
	00 00		 mov	 DWORD PTR [ecx+24], 0
  00043	0f 11 41 24	 movups	 XMMWORD PTR [ecx+36], xmm0
  00047	0f 11 41 34	 movups	 XMMWORD PTR [ecx+52], xmm0
  0004b	c7 41 44 00 00
	00 00		 mov	 DWORD PTR [ecx+68], 0
  00052	c7 41 48 00 00
	00 00		 mov	 DWORD PTR [ecx+72], 0
  00059	c7 41 4c 00 00
	00 00		 mov	 DWORD PTR [ecx+76], 0
  00060	c7 41 50 64 00
	00 00		 mov	 DWORD PTR [ecx+80], 100	; 00000064H
  00067	c7 41 54 64 00
	00 00		 mov	 DWORD PTR [ecx+84], 100	; 00000064H
  0006e	c7 41 58 00 00
	00 00		 mov	 DWORD PTR [ecx+88], 0
  00075	c7 41 5c 00 00
	00 00		 mov	 DWORD PTR [ecx+92], 0
  0007c	c7 41 60 00 00
	00 00		 mov	 DWORD PTR [ecx+96], 0
  00083	c7 41 64 00 00
	00 00		 mov	 DWORD PTR [ecx+100], 0
  0008a	c7 41 68 00 00
	00 00		 mov	 DWORD PTR [ecx+104], 0
  00091	c7 41 6c 00 00
	00 00		 mov	 DWORD PTR [ecx+108], 0
  00098	c7 41 70 00 00
	00 00		 mov	 DWORD PTR [ecx+112], 0
  0009f	0f 11 41 74	 movups	 XMMWORD PTR [ecx+116], xmm0
  000a3	0f 11 81 84 00
	00 00		 movups	 XMMWORD PTR [ecx+132], xmm0
  000aa	66 0f d6 81 94
	00 00 00	 movq	 QWORD PTR [ecx+148], xmm0
  000b2	c7 81 9c 00 00
	00 00 00 00 00	 mov	 DWORD PTR [ecx+156], 0
  000bc	0f 11 81 a0 00
	00 00		 movups	 XMMWORD PTR [ecx+160], xmm0
  000c3	c7 81 b0 00 00
	00 00 00 00 00	 mov	 DWORD PTR [ecx+176], 0
  000cd	89 81 bc 00 00
	00		 mov	 DWORD PTR [ecx+188], eax

; 684  : 		wPetLife = 0;
; 685  : 		nPetAL_D = 0;

  000d3	89 81 c0 00 00
	00		 mov	 DWORD PTR [ecx+192], eax

; 686  : 		nPetAL_C = 0;
; 687  : 		nPetAL_B = 0;
; 688  : 		nPetAL_A = 0;
; 689  : 		nPetAL_S = 0;

  000d9	88 81 c4 00 00
	00		 mov	 BYTE PTR [ecx+196], al

; 690  : #endif // __PET_0410
; 691  : 	}

  000df	8b c1		 mov	 eax, ecx
  000e1	66 c7 81 b4 00
	00 00 00 00	 mov	 WORD PTR [ecx+180], 0
  000ea	c7 81 b8 00 00
	00 00 00 00 00	 mov	 DWORD PTR [ecx+184], 0
  000f4	c3		 ret	 0
??0_LogItemInfo@@QAE@XZ ENDP				; _LogItemInfo::_LogItemInfo
_TEXT	ENDS
; Function compile flags: /Ogtp
; File C:\Program Files\Microsoft Visual Studio\2022\Professional\VC\Tools\MSVC\14.44.35207\include\xtree
;	COMDAT ?_Throw_tree_length_error@std@@YAXXZ
_TEXT	SEGMENT
?_Throw_tree_length_error@std@@YAXXZ PROC		; std::_Throw_tree_length_error, COMDAT

; 417  :     _Xlength_error("map/set too long");

  00000	68 00 00 00 00	 push	 OFFSET ??_C@_0BB@GCADKGJO@map?1set?5too?5long@
  00005	e8 00 00 00 00	 call	 ?_Xlength_error@std@@YAXPBD@Z ; std::_Xlength_error
$LN3@Throw_tree:
  0000a	cc		 int	 3
?_Throw_tree_length_error@std@@YAXXZ ENDP		; std::_Throw_tree_length_error
_TEXT	ENDS
; Function compile flags: /Ogtp
; File C:\Program Files\Microsoft Visual Studio\2022\Professional\VC\Tools\MSVC\14.44.35207\include\xmemory
;	COMDAT ?_Throw_bad_array_new_length@std@@YAXXZ
_TEXT	SEGMENT
$T1 = -12						; size = 12
?_Throw_bad_array_new_length@std@@YAXXZ PROC		; std::_Throw_bad_array_new_length, COMDAT

; 107  : [[noreturn]] inline void _Throw_bad_array_new_length() {

  00000	55		 push	 ebp
  00001	8b ec		 mov	 ebp, esp
  00003	83 ec 0c	 sub	 esp, 12			; 0000000cH

; 108  :     _THROW(bad_array_new_length{});

  00006	8d 4d f4	 lea	 ecx, DWORD PTR $T1[ebp]
  00009	e8 00 00 00 00	 call	 ??0bad_array_new_length@std@@QAE@XZ ; std::bad_array_new_length::bad_array_new_length
  0000e	68 00 00 00 00	 push	 OFFSET __TI3?AVbad_array_new_length@std@@
  00013	8d 45 f4	 lea	 eax, DWORD PTR $T1[ebp]
  00016	50		 push	 eax
  00017	e8 00 00 00 00	 call	 __CxxThrowException@8
$LN3@Throw_bad_:
  0001c	cc		 int	 3
?_Throw_bad_array_new_length@std@@YAXXZ ENDP		; std::_Throw_bad_array_new_length
_TEXT	ENDS
; Function compile flags: /Ogtp
; File C:\Program Files\Microsoft Visual Studio\2022\Professional\VC\Tools\MSVC\14.44.35207\include\vcruntime_exception.h
;	COMDAT ??_Gbad_array_new_length@std@@UAEPAXI@Z
_TEXT	SEGMENT
___flags$ = 8						; size = 4
??_Gbad_array_new_length@std@@UAEPAXI@Z PROC		; std::bad_array_new_length::`scalar deleting destructor', COMDAT
; _this$ = ecx
  00000	55		 push	 ebp
  00001	8b ec		 mov	 ebp, esp

; 90   :     {

  00003	56		 push	 esi
  00004	8b f1		 mov	 esi, ecx

; 91   :         __std_exception_destroy(&_Data);

  00006	8d 46 04	 lea	 eax, DWORD PTR [esi+4]
  00009	c7 06 00 00 00
	00		 mov	 DWORD PTR [esi], OFFSET ??_7exception@std@@6B@
  0000f	50		 push	 eax
  00010	e8 00 00 00 00	 call	 ___std_exception_destroy
  00015	83 c4 04	 add	 esp, 4
  00018	f6 45 08 01	 test	 BYTE PTR ___flags$[ebp], 1
  0001c	74 0b		 je	 SHORT $LN18@scalar
  0001e	6a 0c		 push	 12			; 0000000cH
  00020	56		 push	 esi
  00021	e8 00 00 00 00	 call	 ??3@YAXPAXI@Z		; operator delete
  00026	83 c4 08	 add	 esp, 8
$LN18@scalar:
  00029	8b c6		 mov	 eax, esi
  0002b	5e		 pop	 esi
  0002c	5d		 pop	 ebp
  0002d	c2 04 00	 ret	 4
??_Gbad_array_new_length@std@@UAEPAXI@Z ENDP		; std::bad_array_new_length::`scalar deleting destructor'
_TEXT	ENDS
; Function compile flags: /Ogtp
; File C:\Program Files\Microsoft Visual Studio\2022\Professional\VC\Tools\MSVC\14.44.35207\include\vcruntime_exception.h
;	COMDAT ??0bad_array_new_length@std@@QAE@ABV01@@Z
_TEXT	SEGMENT
___that$ = 8						; size = 4
??0bad_array_new_length@std@@QAE@ABV01@@Z PROC		; std::bad_array_new_length::bad_array_new_length, COMDAT
; _this$ = ecx
  00000	55		 push	 ebp
  00001	8b ec		 mov	 ebp, esp

; 73   :     {

  00003	56		 push	 esi
  00004	8b f1		 mov	 esi, ecx
  00006	0f 57 c0	 xorps	 xmm0, xmm0

; 72   :         : _Data()

  00009	8d 46 04	 lea	 eax, DWORD PTR [esi+4]

; 74   :         __std_exception_copy(&_Other._Data, &_Data);

  0000c	50		 push	 eax
  0000d	c7 06 00 00 00
	00		 mov	 DWORD PTR [esi], OFFSET ??_7exception@std@@6B@
  00013	66 0f d6 00	 movq	 QWORD PTR [eax], xmm0
  00017	8b 45 08	 mov	 eax, DWORD PTR ___that$[ebp]
  0001a	83 c0 04	 add	 eax, 4
  0001d	50		 push	 eax
  0001e	e8 00 00 00 00	 call	 ___std_exception_copy
  00023	83 c4 08	 add	 esp, 8
  00026	c7 06 00 00 00
	00		 mov	 DWORD PTR [esi], OFFSET ??_7bad_array_new_length@std@@6B@
  0002c	8b c6		 mov	 eax, esi
  0002e	5e		 pop	 esi
  0002f	5d		 pop	 ebp
  00030	c2 04 00	 ret	 4
??0bad_array_new_length@std@@QAE@ABV01@@Z ENDP		; std::bad_array_new_length::bad_array_new_length
_TEXT	ENDS
; Function compile flags: /Ogtp
; File C:\Program Files\Microsoft Visual Studio\2022\Professional\VC\Tools\MSVC\14.44.35207\include\vcruntime_exception.h
;	COMDAT ??1bad_array_new_length@std@@UAE@XZ
_TEXT	SEGMENT
??1bad_array_new_length@std@@UAE@XZ PROC		; std::bad_array_new_length::~bad_array_new_length, COMDAT
; _this$ = ecx

; 91   :         __std_exception_destroy(&_Data);

  00000	8d 41 04	 lea	 eax, DWORD PTR [ecx+4]
  00003	c7 01 00 00 00
	00		 mov	 DWORD PTR [ecx], OFFSET ??_7exception@std@@6B@
  00009	50		 push	 eax
  0000a	e8 00 00 00 00	 call	 ___std_exception_destroy
  0000f	59		 pop	 ecx
  00010	c3		 ret	 0
??1bad_array_new_length@std@@UAE@XZ ENDP		; std::bad_array_new_length::~bad_array_new_length
_TEXT	ENDS
; Function compile flags: /Ogtp
; File C:\Program Files\Microsoft Visual Studio\2022\Professional\VC\Tools\MSVC\14.44.35207\include\vcruntime_exception.h
;	COMDAT ??0bad_array_new_length@std@@QAE@XZ
_TEXT	SEGMENT
??0bad_array_new_length@std@@QAE@XZ PROC		; std::bad_array_new_length::bad_array_new_length, COMDAT
; _this$ = ecx

; 144  :     {

  00000	0f 57 c0	 xorps	 xmm0, xmm0

; 145  :     }

  00003	8b c1		 mov	 eax, ecx

; 66   :         : _Data()

  00005	66 0f d6 41 04	 movq	 QWORD PTR [ecx+4], xmm0

; 67   :     {
; 68   :         _Data._What = _Message;

  0000a	c7 41 04 00 00
	00 00		 mov	 DWORD PTR [ecx+4], OFFSET ??_C@_0BF@KINCDENJ@bad?5array?5new?5length@

; 144  :     {

  00011	c7 01 00 00 00
	00		 mov	 DWORD PTR [ecx], OFFSET ??_7bad_array_new_length@std@@6B@

; 145  :     }

  00017	c3		 ret	 0
??0bad_array_new_length@std@@QAE@XZ ENDP		; std::bad_array_new_length::bad_array_new_length
_TEXT	ENDS
; Function compile flags: /Ogtp
; File C:\Program Files\Microsoft Visual Studio\2022\Professional\VC\Tools\MSVC\14.44.35207\include\vcruntime_exception.h
;	COMDAT ??_Gbad_alloc@std@@UAEPAXI@Z
_TEXT	SEGMENT
___flags$ = 8						; size = 4
??_Gbad_alloc@std@@UAEPAXI@Z PROC			; std::bad_alloc::`scalar deleting destructor', COMDAT
; _this$ = ecx
  00000	55		 push	 ebp
  00001	8b ec		 mov	 ebp, esp

; 90   :     {

  00003	56		 push	 esi
  00004	8b f1		 mov	 esi, ecx

; 91   :         __std_exception_destroy(&_Data);

  00006	8d 46 04	 lea	 eax, DWORD PTR [esi+4]
  00009	c7 06 00 00 00
	00		 mov	 DWORD PTR [esi], OFFSET ??_7exception@std@@6B@
  0000f	50		 push	 eax
  00010	e8 00 00 00 00	 call	 ___std_exception_destroy
  00015	83 c4 04	 add	 esp, 4
  00018	f6 45 08 01	 test	 BYTE PTR ___flags$[ebp], 1
  0001c	74 0b		 je	 SHORT $LN13@scalar
  0001e	6a 0c		 push	 12			; 0000000cH
  00020	56		 push	 esi
  00021	e8 00 00 00 00	 call	 ??3@YAXPAXI@Z		; operator delete
  00026	83 c4 08	 add	 esp, 8
$LN13@scalar:
  00029	8b c6		 mov	 eax, esi
  0002b	5e		 pop	 esi
  0002c	5d		 pop	 ebp
  0002d	c2 04 00	 ret	 4
??_Gbad_alloc@std@@UAEPAXI@Z ENDP			; std::bad_alloc::`scalar deleting destructor'
_TEXT	ENDS
; Function compile flags: /Ogtp
; File C:\Program Files\Microsoft Visual Studio\2022\Professional\VC\Tools\MSVC\14.44.35207\include\vcruntime_exception.h
;	COMDAT ??0bad_alloc@std@@QAE@ABV01@@Z
_TEXT	SEGMENT
___that$ = 8						; size = 4
??0bad_alloc@std@@QAE@ABV01@@Z PROC			; std::bad_alloc::bad_alloc, COMDAT
; _this$ = ecx
  00000	55		 push	 ebp
  00001	8b ec		 mov	 ebp, esp

; 73   :     {

  00003	56		 push	 esi
  00004	8b f1		 mov	 esi, ecx
  00006	0f 57 c0	 xorps	 xmm0, xmm0

; 72   :         : _Data()

  00009	8d 46 04	 lea	 eax, DWORD PTR [esi+4]

; 74   :         __std_exception_copy(&_Other._Data, &_Data);

  0000c	50		 push	 eax
  0000d	c7 06 00 00 00
	00		 mov	 DWORD PTR [esi], OFFSET ??_7exception@std@@6B@
  00013	66 0f d6 00	 movq	 QWORD PTR [eax], xmm0
  00017	8b 45 08	 mov	 eax, DWORD PTR ___that$[ebp]
  0001a	83 c0 04	 add	 eax, 4
  0001d	50		 push	 eax
  0001e	e8 00 00 00 00	 call	 ___std_exception_copy
  00023	83 c4 08	 add	 esp, 8
  00026	c7 06 00 00 00
	00		 mov	 DWORD PTR [esi], OFFSET ??_7bad_alloc@std@@6B@
  0002c	8b c6		 mov	 eax, esi
  0002e	5e		 pop	 esi
  0002f	5d		 pop	 ebp
  00030	c2 04 00	 ret	 4
??0bad_alloc@std@@QAE@ABV01@@Z ENDP			; std::bad_alloc::bad_alloc
_TEXT	ENDS
; Function compile flags: /Ogtp
; File C:\Program Files\Microsoft Visual Studio\2022\Professional\VC\Tools\MSVC\14.44.35207\include\vcruntime_exception.h
;	COMDAT ??_Gexception@std@@UAEPAXI@Z
_TEXT	SEGMENT
___flags$ = 8						; size = 4
??_Gexception@std@@UAEPAXI@Z PROC			; std::exception::`scalar deleting destructor', COMDAT
; _this$ = ecx
  00000	55		 push	 ebp
  00001	8b ec		 mov	 ebp, esp

; 90   :     {

  00003	56		 push	 esi
  00004	8b f1		 mov	 esi, ecx

; 91   :         __std_exception_destroy(&_Data);

  00006	8d 46 04	 lea	 eax, DWORD PTR [esi+4]
  00009	c7 06 00 00 00
	00		 mov	 DWORD PTR [esi], OFFSET ??_7exception@std@@6B@
  0000f	50		 push	 eax
  00010	e8 00 00 00 00	 call	 ___std_exception_destroy
  00015	83 c4 04	 add	 esp, 4
  00018	f6 45 08 01	 test	 BYTE PTR ___flags$[ebp], 1
  0001c	74 0b		 je	 SHORT $LN8@scalar
  0001e	6a 0c		 push	 12			; 0000000cH
  00020	56		 push	 esi
  00021	e8 00 00 00 00	 call	 ??3@YAXPAXI@Z		; operator delete
  00026	83 c4 08	 add	 esp, 8
$LN8@scalar:
  00029	8b c6		 mov	 eax, esi
  0002b	5e		 pop	 esi
  0002c	5d		 pop	 ebp
  0002d	c2 04 00	 ret	 4
??_Gexception@std@@UAEPAXI@Z ENDP			; std::exception::`scalar deleting destructor'
_TEXT	ENDS
; Function compile flags: /Ogtp
; File C:\Program Files\Microsoft Visual Studio\2022\Professional\VC\Tools\MSVC\14.44.35207\include\vcruntime_exception.h
;	COMDAT ?what@exception@std@@UBEPBDXZ
_TEXT	SEGMENT
?what@exception@std@@UBEPBDXZ PROC			; std::exception::what, COMDAT
; _this$ = ecx

; 96   :         return _Data._What ? _Data._What : "Unknown exception";

  00000	8b 49 04	 mov	 ecx, DWORD PTR [ecx+4]
  00003	b8 00 00 00 00	 mov	 eax, OFFSET ??_C@_0BC@EOODALEL@Unknown?5exception@
  00008	85 c9		 test	 ecx, ecx
  0000a	0f 45 c1	 cmovne	 eax, ecx

; 97   :     }

  0000d	c3		 ret	 0
?what@exception@std@@UBEPBDXZ ENDP			; std::exception::what
_TEXT	ENDS
; Function compile flags: /Ogtp
; File C:\Program Files\Microsoft Visual Studio\2022\Professional\VC\Tools\MSVC\14.44.35207\include\vcruntime_exception.h
;	COMDAT ??1exception@std@@UAE@XZ
_TEXT	SEGMENT
??1exception@std@@UAE@XZ PROC				; std::exception::~exception, COMDAT
; _this$ = ecx

; 91   :         __std_exception_destroy(&_Data);

  00000	8d 41 04	 lea	 eax, DWORD PTR [ecx+4]
  00003	c7 01 00 00 00
	00		 mov	 DWORD PTR [ecx], OFFSET ??_7exception@std@@6B@
  00009	50		 push	 eax
  0000a	e8 00 00 00 00	 call	 ___std_exception_destroy
  0000f	59		 pop	 ecx

; 92   :     }

  00010	c3		 ret	 0
??1exception@std@@UAE@XZ ENDP				; std::exception::~exception
_TEXT	ENDS
; Function compile flags: /Ogtp
; File C:\Program Files\Microsoft Visual Studio\2022\Professional\VC\Tools\MSVC\14.44.35207\include\vcruntime_exception.h
;	COMDAT ??0exception@std@@QAE@ABV01@@Z
_TEXT	SEGMENT
__Other$ = 8						; size = 4
??0exception@std@@QAE@ABV01@@Z PROC			; std::exception::exception, COMDAT
; _this$ = ecx

; 73   :     {

  00000	55		 push	 ebp
  00001	8b ec		 mov	 ebp, esp
  00003	56		 push	 esi
  00004	8b f1		 mov	 esi, ecx
  00006	0f 57 c0	 xorps	 xmm0, xmm0
  00009	8d 46 04	 lea	 eax, DWORD PTR [esi+4]

; 74   :         __std_exception_copy(&_Other._Data, &_Data);

  0000c	50		 push	 eax
  0000d	c7 06 00 00 00
	00		 mov	 DWORD PTR [esi], OFFSET ??_7exception@std@@6B@
  00013	66 0f d6 00	 movq	 QWORD PTR [eax], xmm0
  00017	8b 45 08	 mov	 eax, DWORD PTR __Other$[ebp]
  0001a	83 c0 04	 add	 eax, 4
  0001d	50		 push	 eax
  0001e	e8 00 00 00 00	 call	 ___std_exception_copy
  00023	83 c4 08	 add	 esp, 8

; 75   :     }

  00026	8b c6		 mov	 eax, esi
  00028	5e		 pop	 esi
  00029	5d		 pop	 ebp
  0002a	c2 04 00	 ret	 4
??0exception@std@@QAE@ABV01@@Z ENDP			; std::exception::exception
_TEXT	ENDS
; Function compile flags: /Ogtp
; File C:\Program Files (x86)\Windows Kits\10\Include\10.0.26100.0\ucrt\stdio.h
;	COMDAT _sprintf
_TEXT	SEGMENT
__Buffer$ = 8						; size = 4
__Format$ = 12						; size = 4
_sprintf PROC						; COMDAT

; 1771 :     {

  00000	55		 push	 ebp
  00001	8b ec		 mov	 ebp, esp

; 1392 :         int const _Result = __stdio_common_vsprintf(

  00003	8d 45 10	 lea	 eax, DWORD PTR __Format$[ebp+4]
  00006	50		 push	 eax
  00007	6a 00		 push	 0
  00009	ff 75 0c	 push	 DWORD PTR __Format$[ebp]
  0000c	6a ff		 push	 -1
  0000e	ff 75 08	 push	 DWORD PTR __Buffer$[ebp]
  00011	e8 00 00 00 00	 call	 ___local_stdio_printf_options
  00016	8b 08		 mov	 ecx, DWORD PTR [eax]
  00018	ff 70 04	 push	 DWORD PTR [eax+4]
  0001b	83 c9 01	 or	 ecx, 1
  0001e	51		 push	 ecx
  0001f	e8 00 00 00 00	 call	 ___stdio_common_vsprintf

; 1393 :             _CRT_INTERNAL_LOCAL_PRINTF_OPTIONS | _CRT_INTERNAL_PRINTF_LEGACY_VSPRINTF_NULL_TERMINATION,
; 1394 :             _Buffer, _BufferCount, _Format, _Locale, _ArgList);
; 1395 : 
; 1396 :         return _Result < 0 ? -1 : _Result;

  00024	83 c9 ff	 or	 ecx, -1
  00027	83 c4 1c	 add	 esp, 28			; 0000001cH
  0002a	85 c0		 test	 eax, eax
  0002c	0f 48 c1	 cmovs	 eax, ecx

; 1772 :         int _Result;
; 1773 :         va_list _ArgList;
; 1774 :         __crt_va_start(_ArgList, _Format);
; 1775 : 
; 1776 :         _Result = _vsprintf_l(_Buffer, _Format, NULL, _ArgList);
; 1777 : 
; 1778 :         __crt_va_end(_ArgList);
; 1779 :         return _Result;
; 1780 :     }

  0002f	5d		 pop	 ebp
  00030	c3		 ret	 0
_sprintf ENDP
_TEXT	ENDS
; Function compile flags: /Ogtp
; File C:\Program Files (x86)\Windows Kits\10\Include\10.0.26100.0\ucrt\corecrt_stdio_config.h
;	COMDAT ___local_stdio_printf_options
_TEXT	SEGMENT
___local_stdio_printf_options PROC			; COMDAT

; 91   :         static unsigned __int64 _OptionsStorage;
; 92   :         return &_OptionsStorage;

  00000	b8 00 00 00 00	 mov	 eax, OFFSET ?_OptionsStorage@?1??__local_stdio_printf_options@@9@4_KA ; `__local_stdio_printf_options'::`2'::_OptionsStorage

; 93   :     }

  00005	c3		 ret	 0
___local_stdio_printf_options ENDP
_TEXT	ENDS
; Function compile flags: /Ogtp
; File C:\IAGOS\server\v18\Source\Source\_Common\CreateMonster.cpp
;	COMDAT ?__empty_global_delete@@YAXPAXI@Z
_TEXT	SEGMENT
___formal$ = 8						; size = 4
___formal$ = 12						; size = 4
?__empty_global_delete@@YAXPAXI@Z PROC			; __empty_global_delete, COMDAT

  00000	c2 00 00	 ret	 0
?__empty_global_delete@@YAXPAXI@Z ENDP			; __empty_global_delete
_TEXT	ENDS
; Function compile flags: /Ogtp
; File C:\IAGOS\server\v18\Source\Source\_Common\CreateMonster.cpp
;	COMDAT ?__empty_global_delete@@YAXPAX@Z
_TEXT	SEGMENT
___formal$ = 8						; size = 4
?__empty_global_delete@@YAXPAX@Z PROC			; __empty_global_delete, COMDAT

  00000	c2 00 00	 ret	 0
?__empty_global_delete@@YAXPAX@Z ENDP			; __empty_global_delete
_TEXT	ENDS
END
