; Listing generated by Microsoft (R) Optimizing Compiler Version 19.44.35225.0 

	TITLE	C:\IAGOS\server\v18\Source\Output\WorldServer\Release\ctrl.obj
	.686P
	.XMM
	include listing.inc
	.model	flat

INCLUDELIB LIBCMT
INCLUDELIB OLDNAMES

CONST	SEGMENT
?piecewise_construct@std@@3Upiecewise_construct_t@1@B	ORG $+1 ; std::piecewise_construct
CONST	ENDS
PUBLIC	?__empty_global_delete@@YAXPAX@Z		; __empty_global_delete
PUBLIC	?__empty_global_delete@@YAXPAXI@Z		; __empty_global_delete
PUBLIC	??0exception@std@@QAE@ABV01@@Z			; std::exception::exception
PUBLIC	??1exception@std@@UAE@XZ			; std::exception::~exception
PUBLIC	?what@exception@std@@UBEPBDXZ			; std::exception::what
PUBLIC	??_Gexception@std@@UAEPAXI@Z			; std::exception::`scalar deleting destructor'
PUBLIC	??0bad_alloc@std@@QAE@ABV01@@Z			; std::bad_alloc::bad_alloc
PUBLIC	??_Gbad_alloc@std@@UAEPAXI@Z			; std::bad_alloc::`scalar deleting destructor'
PUBLIC	??0bad_array_new_length@std@@QAE@XZ		; std::bad_array_new_length::bad_array_new_length
PUBLIC	??1bad_array_new_length@std@@UAE@XZ		; std::bad_array_new_length::~bad_array_new_length
PUBLIC	??0bad_array_new_length@std@@QAE@ABV01@@Z	; std::bad_array_new_length::bad_array_new_length
PUBLIC	??_Gbad_array_new_length@std@@UAEPAXI@Z		; std::bad_array_new_length::`scalar deleting destructor'
PUBLIC	?_Throw_bad_array_new_length@std@@YAXXZ		; std::_Throw_bad_array_new_length
PUBLIC	?_Xlen_string@std@@YAXXZ			; std::_Xlen_string
PUBLIC	??0?$basic_string@DU?$char_traits@D@std@@V?$allocator@D@2@@std@@QAE@QBD@Z ; std::basic_string<char,std::char_traits<char>,std::allocator<char> >::basic_string<char,std::char_traits<char>,std::allocator<char> >
PUBLIC	??1?$basic_string@DU?$char_traits@D@std@@V?$allocator@D@2@@std@@QAE@XZ ; std::basic_string<char,std::char_traits<char>,std::allocator<char> >::~basic_string<char,std::char_traits<char>,std::allocator<char> >
PUBLIC	?_Throw_tree_length_error@std@@YAXXZ		; std::_Throw_tree_length_error
PUBLIC	??0D3DXVECTOR3@@QAE@XZ				; D3DXVECTOR3::D3DXVECTOR3
PUBLIC	??1CMclAutoLock@@QAE@XZ				; CMclAutoLock::~CMclAutoLock
PUBLIC	?SetMotion@CObj@@UAEHKHK@Z			; CObj::SetMotion
PUBLIC	?InitMotion@CObj@@UAEHK@Z			; CObj::InitMotion
PUBLIC	?GetName@CObj@@UAEPBDXZ				; CObj::GetName
PUBLIC	?SetIndex@CObj@@UAEHPAUIDirect3DDevice9@@KH@Z	; CObj::SetIndex
PUBLIC	?GetDegree@@YAMABUD3DXVECTOR3@@0@Z		; GetDegree
PUBLIC	??0CCtrl@@QAE@XZ				; CCtrl::CCtrl
PUBLIC	??1CCtrl@@UAE@XZ				; CCtrl::~CCtrl
PUBLIC	??1?$_Tree@V?$_Tmap_traits@KPAVCUser@@U?$less@K@std@@V?$allocator@U?$pair@$$CBKPAVCUser@@@std@@@3@$0A@@std@@@std@@QAE@XZ ; std::_Tree<std::_Tmap_traits<unsigned long,CUser *,std::less<unsigned long>,std::allocator<std::pair<unsigned long const ,CUser *> >,0> >::~_Tree<std::_Tmap_traits<unsigned long,CUser *,std::less<unsigned long>,std::allocator<std::pair<unsigned long const ,CUser *> >,0> >
PUBLIC	?clear@?$_Tree@V?$_Tmap_traits@KPAVCUser@@U?$less@K@std@@V?$allocator@U?$pair@$$CBKPAVCUser@@@std@@@3@$0A@@std@@@std@@QAEXXZ ; std::_Tree<std::_Tmap_traits<unsigned long,CUser *,std::less<unsigned long>,std::allocator<std::pair<unsigned long const ,CUser *> >,0> >::clear
PUBLIC	?_Lrotate@?$_Tree_val@U?$_Tree_simple_types@U?$pair@$$CBKPAVCUser@@@std@@@std@@@std@@QAEXPAU?$_Tree_node@U?$pair@$$CBKPAVCUser@@@std@@PAX@2@@Z ; std::_Tree_val<std::_Tree_simple_types<std::pair<unsigned long const ,CUser *> > >::_Lrotate
PUBLIC	?_Rrotate@?$_Tree_val@U?$_Tree_simple_types@U?$pair@$$CBKPAVCUser@@@std@@@std@@@std@@QAEXPAU?$_Tree_node@U?$pair@$$CBKPAVCUser@@@std@@PAX@2@@Z ; std::_Tree_val<std::_Tree_simple_types<std::pair<unsigned long const ,CUser *> > >::_Rrotate
PUBLIC	?_Extract@?$_Tree_val@U?$_Tree_simple_types@U?$pair@$$CBKPAVCUser@@@std@@@std@@@std@@QAEPAU?$_Tree_node@U?$pair@$$CBKPAVCUser@@@std@@PAX@2@V?$_Tree_unchecked_const_iterator@V?$_Tree_val@U?$_Tree_simple_types@U?$pair@$$CBKPAVCUser@@@std@@@std@@@std@@U_Iterator_base0@2@@2@@Z ; std::_Tree_val<std::_Tree_simple_types<std::pair<unsigned long const ,CUser *> > >::_Extract
PUBLIC	?GetSkillProp@CCtrl@@UAEHPAPAUItemProp@@PAPAUAddSkillProp@@HKPBD@Z ; CCtrl::GetSkillProp
PUBLIC	?SendDamage@CCtrl@@UAEHKKHH@Z			; CCtrl::SendDamage
PUBLIC	?SendDamageForce@CCtrl@@UAEHKKHH@Z		; CCtrl::SendDamageForce
PUBLIC	?AddItToGlobalId@CCtrl@@UAEXXZ			; CCtrl::AddItToGlobalId
PUBLIC	?RemoveItFromGlobalId@CCtrl@@UAEXXZ		; CCtrl::RemoveItFromGlobalId
PUBLIC	?Process@CCtrl@@UAEXXZ				; CCtrl::Process
PUBLIC	?Render@CCtrl@@UAEXPAUIDirect3DDevice9@@@Z	; CCtrl::Render
PUBLIC	?Read@CCtrl@@UAEHPAVCFileIO@@@Z			; CCtrl::Read
PUBLIC	?TargetSelecter@CCtrl@@QAEHPAV1@@Z		; CCtrl::TargetSelecter
PUBLIC	?ShootSkill@CCtrl@@QAEHPAV1@PAUItemProp@@PAUAddSkillProp@@@Z ; CCtrl::ShootSkill
PUBLIC	?CreateSkillSfx@CCtrl@@QAEXPAV1@PAUItemProp@@PAUAddSkillProp@@@Z ; CCtrl::CreateSkillSfx
PUBLIC	?ApplyDamage@CCtrl@@QAEHPAV1@PAUItemProp@@PAUAddSkillProp@@HH@Z ; CCtrl::ApplyDamage
PUBLIC	?IsPossibleApplySkill@CCtrl@@QAEHPAV1@PAUItemProp@@PAUAddSkillProp@@@Z ; CCtrl::IsPossibleApplySkill
PUBLIC	?ApplySkill@CCtrl@@QAEXPAV1@PAUItemProp@@PAUAddSkillProp@@_NHHH@Z ; CCtrl::ApplySkill
PUBLIC	?DoApplySkill@CCtrl@@QAEHPAV1@PAUItemProp@@PAUAddSkillProp@@_NHHH@Z ; CCtrl::DoApplySkill
PUBLIC	?ApplySkillRegion@CCtrl@@QAEXABUD3DXVECTOR3@@HPAUItemProp@@PAUAddSkillProp@@_NHPAV1@H@Z ; CCtrl::ApplySkillRegion
PUBLIC	?ApplySkillAround@CCtrl@@QAEXPAV1@HPAUItemProp@@PAUAddSkillProp@@_NHMH@Z ; CCtrl::ApplySkillAround
PUBLIC	?ApplySkillLine@CCtrl@@QAEXHPAUItemProp@@PAUAddSkillProp@@MMM_NH@Z ; CCtrl::ApplySkillLine
PUBLIC	?ApplySkillAroundTroupe@CCtrl@@QAEHKPAUItemProp@@PAUAddSkillProp@@_N@Z ; CCtrl::ApplySkillAroundTroupe
PUBLIC	?ApplySkillHardCoding@CCtrl@@QAEHPAV1@PAUItemProp@@PAUAddSkillProp@@@Z ; CCtrl::ApplySkillHardCoding
PUBLIC	?DoActiveSkill@CCtrl@@QAEXKHPAV1@_NH@Z		; CCtrl::DoActiveSkill
PUBLIC	?SetIAObjLink@CCtrl@@QAEXPAVCShip@@@Z		; CCtrl::SetIAObjLink
PUBLIC	?RemoveItFromView@CCtrl@@QAEXH@Z		; CCtrl::RemoveItFromView
PUBLIC	?IsNearPC@CCtrl@@QAEHK@Z			; CCtrl::IsNearPC
PUBLIC	?IsNearPC@CCtrl@@QAEHPAVCUser@@@Z		; CCtrl::IsNearPC
PUBLIC	?ProcessDeleteRespawn@CCtrl@@QAEHXZ		; CCtrl::ProcessDeleteRespawn
PUBLIC	?CreateAggro@CCtrl@@QAEXPAV1@PAUItemProp@@PAUAddSkillProp@@@Z ; CCtrl::CreateAggro
PUBLIC	?DoApplySkillEx@CCtrl@@AAEHPAV1@PAUItemProp@@PAUAddSkillProp@@_NHHH@Z ; CCtrl::DoApplySkillEx
PUBLIC	??_GCCtrl@@UAEPAXI@Z				; CCtrl::`scalar deleting destructor'
PUBLIC	??E?$_Tree_unchecked_const_iterator@V?$_Tree_val@U?$_Tree_simple_types@U?$pair@$$CBKPAVCUser@@@std@@@std@@@std@@U_Iterator_base0@2@@std@@QAEAAV01@XZ ; std::_Tree_unchecked_const_iterator<std::_Tree_val<std::_Tree_simple_types<std::pair<unsigned long const ,CUser *> > >,std::_Iterator_base0>::operator++
PUBLIC	?erase@?$_Tree@V?$_Tmap_traits@KPAVCCtrl@@U?$less@K@std@@V?$allocator@U?$pair@$$CBKPAVCCtrl@@@std@@@3@$0A@@std@@@std@@QAEIABK@Z ; std::_Tree<std::_Tmap_traits<unsigned long,CCtrl *,std::less<unsigned long>,std::allocator<std::pair<unsigned long const ,CCtrl *> >,0> >::erase
PUBLIC	?_Lrotate@?$_Tree_val@U?$_Tree_simple_types@U?$pair@$$CBKPAVCCtrl@@@std@@@std@@@std@@QAEXPAU?$_Tree_node@U?$pair@$$CBKPAVCCtrl@@@std@@PAX@2@@Z ; std::_Tree_val<std::_Tree_simple_types<std::pair<unsigned long const ,CCtrl *> > >::_Lrotate
PUBLIC	?_Rrotate@?$_Tree_val@U?$_Tree_simple_types@U?$pair@$$CBKPAVCCtrl@@@std@@@std@@@std@@QAEXPAU?$_Tree_node@U?$pair@$$CBKPAVCCtrl@@@std@@PAX@2@@Z ; std::_Tree_val<std::_Tree_simple_types<std::pair<unsigned long const ,CCtrl *> > >::_Rrotate
PUBLIC	?_Extract@?$_Tree_val@U?$_Tree_simple_types@U?$pair@$$CBKPAVCCtrl@@@std@@@std@@@std@@QAEPAU?$_Tree_node@U?$pair@$$CBKPAVCCtrl@@@std@@PAX@2@V?$_Tree_unchecked_const_iterator@V?$_Tree_val@U?$_Tree_simple_types@U?$pair@$$CBKPAVCCtrl@@@std@@@std@@@std@@U_Iterator_base0@2@@2@@Z ; std::_Tree_val<std::_Tree_simple_types<std::pair<unsigned long const ,CCtrl *> > >::_Extract
PUBLIC	?_Insert_node@?$_Tree_val@U?$_Tree_simple_types@U?$pair@$$CBKPAVCCtrl@@@std@@@std@@@std@@QAEPAU?$_Tree_node@U?$pair@$$CBKPAVCCtrl@@@std@@PAX@2@U?$_Tree_id@PAU?$_Tree_node@U?$pair@$$CBKPAVCCtrl@@@std@@PAX@std@@@2@QAU32@@Z ; std::_Tree_val<std::_Tree_simple_types<std::pair<unsigned long const ,CCtrl *> > >::_Insert_node
PUBLIC	??E?$_Tree_unchecked_const_iterator@V?$_Tree_val@U?$_Tree_simple_types@U?$pair@$$CBKPAVCCtrl@@@std@@@std@@@std@@U_Iterator_base0@2@@std@@QAEAAV01@XZ ; std::_Tree_unchecked_const_iterator<std::_Tree_val<std::_Tree_simple_types<std::pair<unsigned long const ,CCtrl *> > >,std::_Iterator_base0>::operator++
PUBLIC	?erase@?$_Tree@V?$_Tmap_traits@V?$basic_string@DU?$char_traits@D@std@@V?$allocator@D@2@@std@@KU?$less@V?$basic_string@DU?$char_traits@D@std@@V?$allocator@D@2@@std@@@2@V?$allocator@U?$pair@$$CBV?$basic_string@DU?$char_traits@D@std@@V?$allocator@D@2@@std@@K@std@@@2@$0A@@std@@@std@@QAEIABV?$basic_string@DU?$char_traits@D@std@@V?$allocator@D@2@@2@@Z ; std::_Tree<std::_Tmap_traits<std::basic_string<char,std::char_traits<char>,std::allocator<char> >,unsigned long,std::less<std::basic_string<char,std::char_traits<char>,std::allocator<char> > >,std::allocator<std::pair<std::basic_string<char,std::char_traits<char>,std::allocator<char> > const ,unsigned long> >,0> >::erase
PUBLIC	?_Lrotate@?$_Tree_val@U?$_Tree_simple_types@U?$pair@$$CBV?$basic_string@DU?$char_traits@D@std@@V?$allocator@D@2@@std@@K@std@@@std@@@std@@QAEXPAU?$_Tree_node@U?$pair@$$CBV?$basic_string@DU?$char_traits@D@std@@V?$allocator@D@2@@std@@K@std@@PAX@2@@Z ; std::_Tree_val<std::_Tree_simple_types<std::pair<std::basic_string<char,std::char_traits<char>,std::allocator<char> > const ,unsigned long> > >::_Lrotate
PUBLIC	?_Rrotate@?$_Tree_val@U?$_Tree_simple_types@U?$pair@$$CBV?$basic_string@DU?$char_traits@D@std@@V?$allocator@D@2@@std@@K@std@@@std@@@std@@QAEXPAU?$_Tree_node@U?$pair@$$CBV?$basic_string@DU?$char_traits@D@std@@V?$allocator@D@2@@std@@K@std@@PAX@2@@Z ; std::_Tree_val<std::_Tree_simple_types<std::pair<std::basic_string<char,std::char_traits<char>,std::allocator<char> > const ,unsigned long> > >::_Rrotate
PUBLIC	?_Extract@?$_Tree_val@U?$_Tree_simple_types@U?$pair@$$CBV?$basic_string@DU?$char_traits@D@std@@V?$allocator@D@2@@std@@K@std@@@std@@@std@@QAEPAU?$_Tree_node@U?$pair@$$CBV?$basic_string@DU?$char_traits@D@std@@V?$allocator@D@2@@std@@K@std@@PAX@2@V?$_Tree_unchecked_const_iterator@V?$_Tree_val@U?$_Tree_simple_types@U?$pair@$$CBV?$basic_string@DU?$char_traits@D@std@@V?$allocator@D@2@@std@@K@std@@@std@@@std@@U_Iterator_base0@2@@2@@Z ; std::_Tree_val<std::_Tree_simple_types<std::pair<std::basic_string<char,std::char_traits<char>,std::allocator<char> > const ,unsigned long> > >::_Extract
PUBLIC	?_Insert_node@?$_Tree_val@U?$_Tree_simple_types@U?$pair@$$CBV?$basic_string@DU?$char_traits@D@std@@V?$allocator@D@2@@std@@K@std@@@std@@@std@@QAEPAU?$_Tree_node@U?$pair@$$CBV?$basic_string@DU?$char_traits@D@std@@V?$allocator@D@2@@std@@K@std@@PAX@2@U?$_Tree_id@PAU?$_Tree_node@U?$pair@$$CBV?$basic_string@DU?$char_traits@D@std@@V?$allocator@D@2@@std@@K@std@@PAX@std@@@2@QAU32@@Z ; std::_Tree_val<std::_Tree_simple_types<std::pair<std::basic_string<char,std::char_traits<char>,std::allocator<char> > const ,unsigned long> > >::_Insert_node
PUBLIC	?erase@?$_Tree@V?$_Tmap_traits@KPAVCMover@@U?$less@K@std@@V?$allocator@U?$pair@$$CBKPAVCMover@@@std@@@3@$0A@@std@@@std@@QAEIABK@Z ; std::_Tree<std::_Tmap_traits<unsigned long,CMover *,std::less<unsigned long>,std::allocator<std::pair<unsigned long const ,CMover *> >,0> >::erase
PUBLIC	?_Lrotate@?$_Tree_val@U?$_Tree_simple_types@U?$pair@$$CBKPAVCMover@@@std@@@std@@@std@@QAEXPAU?$_Tree_node@U?$pair@$$CBKPAVCMover@@@std@@PAX@2@@Z ; std::_Tree_val<std::_Tree_simple_types<std::pair<unsigned long const ,CMover *> > >::_Lrotate
PUBLIC	?_Rrotate@?$_Tree_val@U?$_Tree_simple_types@U?$pair@$$CBKPAVCMover@@@std@@@std@@@std@@QAEXPAU?$_Tree_node@U?$pair@$$CBKPAVCMover@@@std@@PAX@2@@Z ; std::_Tree_val<std::_Tree_simple_types<std::pair<unsigned long const ,CMover *> > >::_Rrotate
PUBLIC	?_Extract@?$_Tree_val@U?$_Tree_simple_types@U?$pair@$$CBKPAVCMover@@@std@@@std@@@std@@QAEPAU?$_Tree_node@U?$pair@$$CBKPAVCMover@@@std@@PAX@2@V?$_Tree_unchecked_const_iterator@V?$_Tree_val@U?$_Tree_simple_types@U?$pair@$$CBKPAVCMover@@@std@@@std@@@std@@U_Iterator_base0@2@@2@@Z ; std::_Tree_val<std::_Tree_simple_types<std::pair<unsigned long const ,CMover *> > >::_Extract
PUBLIC	?_Insert_node@?$_Tree_val@U?$_Tree_simple_types@U?$pair@$$CBKPAVCMover@@@std@@@std@@@std@@QAEPAU?$_Tree_node@U?$pair@$$CBKPAVCMover@@@std@@PAX@2@U?$_Tree_id@PAU?$_Tree_node@U?$pair@$$CBKPAVCMover@@@std@@PAX@std@@@2@QAU32@@Z ; std::_Tree_val<std::_Tree_simple_types<std::pair<unsigned long const ,CMover *> > >::_Insert_node
PUBLIC	??E?$_Tree_unchecked_const_iterator@V?$_Tree_val@U?$_Tree_simple_types@U?$pair@$$CBV?$basic_string@DU?$char_traits@D@std@@V?$allocator@D@2@@std@@K@std@@@std@@@std@@U_Iterator_base0@2@@std@@QAEAAV01@XZ ; std::_Tree_unchecked_const_iterator<std::_Tree_val<std::_Tree_simple_types<std::pair<std::basic_string<char,std::char_traits<char>,std::allocator<char> > const ,unsigned long> > >,std::_Iterator_base0>::operator++
PUBLIC	??1?$pair@$$CBV?$basic_string@DU?$char_traits@D@std@@V?$allocator@D@2@@std@@K@std@@QAE@XZ ; std::pair<std::basic_string<char,std::char_traits<char>,std::allocator<char> > const ,unsigned long>::~pair<std::basic_string<char,std::char_traits<char>,std::allocator<char> > const ,unsigned long>
PUBLIC	??E?$_Tree_unchecked_const_iterator@V?$_Tree_val@U?$_Tree_simple_types@U?$pair@$$CBKPAVCMover@@@std@@@std@@@std@@U_Iterator_base0@2@@std@@QAEAAV01@XZ ; std::_Tree_unchecked_const_iterator<std::_Tree_val<std::_Tree_simple_types<std::pair<unsigned long const ,CMover *> > >,std::_Iterator_base0>::operator++
PUBLIC	?GetPropA@CMover@@QAEPAUMoverProp@@XZ		; CMover::GetPropA
PUBLIC	?IsDie@CMover@@QAEHXZ				; CMover::IsDie
PUBLIC	??$_Find_lower_bound@K@?$_Tree@V?$_Tmap_traits@KPAVCCtrl@@U?$less@K@std@@V?$allocator@U?$pair@$$CBKPAVCCtrl@@@std@@@3@$0A@@std@@@std@@IBE?AU?$_Tree_find_result@PAU?$_Tree_node@U?$pair@$$CBKPAVCCtrl@@@std@@PAX@std@@@1@ABK@Z ; std::_Tree<std::_Tmap_traits<unsigned long,CCtrl *,std::less<unsigned long>,std::allocator<std::pair<unsigned long const ,CCtrl *> >,0> >::_Find_lower_bound<unsigned long>
PUBLIC	??1?$_Alloc_construct_ptr@V?$allocator@U?$_Tree_node@U?$pair@$$CBKPAVCCtrl@@@std@@PAX@std@@@std@@@std@@QAE@XZ ; std::_Alloc_construct_ptr<std::allocator<std::_Tree_node<std::pair<unsigned long const ,CCtrl *>,void *> > >::~_Alloc_construct_ptr<std::allocator<std::_Tree_node<std::pair<unsigned long const ,CCtrl *>,void *> > >
PUBLIC	??$?MDU?$char_traits@D@std@@V?$allocator@D@1@@std@@YA_NABV?$basic_string@DU?$char_traits@D@std@@V?$allocator@D@2@@0@0@Z ; std::operator<<char,std::char_traits<char>,std::allocator<char> >
PUBLIC	??$_Erase_tree@V?$allocator@U?$_Tree_node@U?$pair@$$CBKPAVCCtrl@@@std@@PAX@std@@@std@@@?$_Tree_val@U?$_Tree_simple_types@U?$pair@$$CBKPAVCCtrl@@@std@@@std@@@std@@QAEXAAV?$allocator@U?$_Tree_node@U?$pair@$$CBKPAVCCtrl@@@std@@PAX@std@@@1@PAU?$_Tree_node@U?$pair@$$CBKPAVCCtrl@@@std@@PAX@1@@Z ; std::_Tree_val<std::_Tree_simple_types<std::pair<unsigned long const ,CCtrl *> > >::_Erase_tree<std::allocator<std::_Tree_node<std::pair<unsigned long const ,CCtrl *>,void *> > >
PUBLIC	??$_Erase_tree@V?$allocator@U?$_Tree_node@U?$pair@$$CBKPAVCUser@@@std@@PAX@std@@@std@@@?$_Tree_val@U?$_Tree_simple_types@U?$pair@$$CBKPAVCUser@@@std@@@std@@@std@@QAEXAAV?$allocator@U?$_Tree_node@U?$pair@$$CBKPAVCUser@@@std@@PAX@std@@@1@PAU?$_Tree_node@U?$pair@$$CBKPAVCUser@@@std@@PAX@1@@Z ; std::_Tree_val<std::_Tree_simple_types<std::pair<unsigned long const ,CUser *> > >::_Erase_tree<std::allocator<std::_Tree_node<std::pair<unsigned long const ,CUser *>,void *> > >
PUBLIC	??$_Allocate_manually_vector_aligned@U_Default_allocate_traits@std@@@std@@YAPAXI@Z ; std::_Allocate_manually_vector_aligned<std::_Default_allocate_traits>
PUBLIC	??1CContDamageCtrl@@UAE@XZ			; CContDamageCtrl::~CContDamageCtrl
PUBLIC	??_GCContDamageCtrl@@UAEPAXI@Z			; CContDamageCtrl::`scalar deleting destructor'
PUBLIC	??$_Emplace@U?$pair@$$CBV?$basic_string@DU?$char_traits@D@std@@V?$allocator@D@2@@std@@K@std@@@?$_Tree@V?$_Tmap_traits@V?$basic_string@DU?$char_traits@D@std@@V?$allocator@D@2@@std@@KU?$less@V?$basic_string@DU?$char_traits@D@std@@V?$allocator@D@2@@std@@@2@V?$allocator@U?$pair@$$CBV?$basic_string@DU?$char_traits@D@std@@V?$allocator@D@2@@std@@K@std@@@2@$0A@@std@@@std@@IAE?AU?$pair@PAU?$_Tree_node@U?$pair@$$CBV?$basic_string@DU?$char_traits@D@std@@V?$allocator@D@2@@std@@K@std@@PAX@std@@_N@1@$$QAU?$pair@$$CBV?$basic_string@DU?$char_traits@D@std@@V?$allocator@D@2@@std@@K@1@@Z ; std::_Tree<std::_Tmap_traits<std::basic_string<char,std::char_traits<char>,std::allocator<char> >,unsigned long,std::less<std::basic_string<char,std::char_traits<char>,std::allocator<char> > >,std::allocator<std::pair<std::basic_string<char,std::char_traits<char>,std::allocator<char> > const ,unsigned long> >,0> >::_Emplace<std::pair<std::basic_string<char,std::char_traits<char>,std::allocator<char> > const ,unsigned long> >
PUBLIC	??1?$_Alloc_construct_ptr@V?$allocator@U?$_Tree_node@U?$pair@$$CBV?$basic_string@DU?$char_traits@D@std@@V?$allocator@D@2@@std@@K@std@@PAX@std@@@std@@@std@@QAE@XZ ; std::_Alloc_construct_ptr<std::allocator<std::_Tree_node<std::pair<std::basic_string<char,std::char_traits<char>,std::allocator<char> > const ,unsigned long>,void *> > >::~_Alloc_construct_ptr<std::allocator<std::_Tree_node<std::pair<std::basic_string<char,std::char_traits<char>,std::allocator<char> > const ,unsigned long>,void *> > >
PUBLIC	??1?$_Tree_temp_node_alloc@V?$allocator@U?$_Tree_node@U?$pair@$$CBV?$basic_string@DU?$char_traits@D@std@@V?$allocator@D@2@@std@@K@std@@PAX@std@@@std@@@std@@QAE@XZ ; std::_Tree_temp_node_alloc<std::allocator<std::_Tree_node<std::pair<std::basic_string<char,std::char_traits<char>,std::allocator<char> > const ,unsigned long>,void *> > >::~_Tree_temp_node_alloc<std::allocator<std::_Tree_node<std::pair<std::basic_string<char,std::char_traits<char>,std::allocator<char> > const ,unsigned long>,void *> > >
PUBLIC	??1?$_Alloc_construct_ptr@V?$allocator@U?$_Tree_node@U?$pair@$$CBKPAVCMover@@@std@@PAX@std@@@std@@@std@@QAE@XZ ; std::_Alloc_construct_ptr<std::allocator<std::_Tree_node<std::pair<unsigned long const ,CMover *>,void *> > >::~_Alloc_construct_ptr<std::allocator<std::_Tree_node<std::pair<unsigned long const ,CMover *>,void *> > >
PUBLIC	??$_Erase_tree@V?$allocator@U?$_Tree_node@U?$pair@$$CBKPAVCMover@@@std@@PAX@std@@@std@@@?$_Tree_val@U?$_Tree_simple_types@U?$pair@$$CBKPAVCMover@@@std@@@std@@@std@@QAEXAAV?$allocator@U?$_Tree_node@U?$pair@$$CBKPAVCMover@@@std@@PAX@std@@@1@PAU?$_Tree_node@U?$pair@$$CBKPAVCMover@@@std@@PAX@1@@Z ; std::_Tree_val<std::_Tree_simple_types<std::pair<unsigned long const ,CMover *> > >::_Erase_tree<std::allocator<std::_Tree_node<std::pair<unsigned long const ,CMover *>,void *> > >
PUBLIC	??$_Erase_tree@V?$allocator@U?$_Tree_node@U?$pair@$$CBV?$basic_string@DU?$char_traits@D@std@@V?$allocator@D@2@@std@@K@std@@PAX@std@@@std@@@?$_Tree_val@U?$_Tree_simple_types@U?$pair@$$CBV?$basic_string@DU?$char_traits@D@std@@V?$allocator@D@2@@std@@K@std@@@std@@@std@@QAEXAAV?$allocator@U?$_Tree_node@U?$pair@$$CBV?$basic_string@DU?$char_traits@D@std@@V?$allocator@D@2@@std@@K@std@@PAX@std@@@1@PAU?$_Tree_node@U?$pair@$$CBV?$basic_string@DU?$char_traits@D@std@@V?$allocator@D@2@@std@@K@std@@PAX@1@@Z ; std::_Tree_val<std::_Tree_simple_types<std::pair<std::basic_string<char,std::char_traits<char>,std::allocator<char> > const ,unsigned long> > >::_Erase_tree<std::allocator<std::_Tree_node<std::pair<std::basic_string<char,std::char_traits<char>,std::allocator<char> > const ,unsigned long>,void *> > >
PUBLIC	??_7exception@std@@6B@				; std::exception::`vftable'
PUBLIC	??_C@_0BC@EOODALEL@Unknown?5exception@		; `string'
PUBLIC	??_7bad_alloc@std@@6B@				; std::bad_alloc::`vftable'
PUBLIC	??_7bad_array_new_length@std@@6B@		; std::bad_array_new_length::`vftable'
PUBLIC	??_C@_0BF@KINCDENJ@bad?5array?5new?5length@	; `string'
PUBLIC	??_R0?AVexception@std@@@8			; std::exception `RTTI Type Descriptor'
PUBLIC	__CT??_R0?AVexception@std@@@8??0exception@std@@QAE@ABV01@@Z12
PUBLIC	__TI3?AVbad_array_new_length@std@@
PUBLIC	__CTA3?AVbad_array_new_length@std@@
PUBLIC	??_R0?AVbad_array_new_length@std@@@8		; std::bad_array_new_length `RTTI Type Descriptor'
PUBLIC	__CT??_R0?AVbad_array_new_length@std@@@8??0bad_array_new_length@std@@QAE@ABV01@@Z12
PUBLIC	??_R0?AVbad_alloc@std@@@8			; std::bad_alloc `RTTI Type Descriptor'
PUBLIC	__CT??_R0?AVbad_alloc@std@@@8??0bad_alloc@std@@QAE@ABV01@@Z12
PUBLIC	??_C@_0BA@JFNIOLAK@string?5too?5long@		; `string'
PUBLIC	??_C@_0BB@GCADKGJO@map?1set?5too?5long@		; `string'
PUBLIC	??_C@_05CJBACGMB@hello@				; `string'
PUBLIC	??_7CCtrl@@6B@					; CCtrl::`vftable'
PUBLIC	??_C@_0EB@BHPMDBMF@C?3?2IAGOS?2server?2v18?2Source?2Sour@ ; `string'
PUBLIC	??_C@_06OJLEAOEG@?$CFs?0?5?$CFd@		; `string'
PUBLIC	??_C@_0BM@HMFGHCP@?$CFs?5min?3?$CFd?0?5max?3?$CFd?0?5index?3?$CFd@ ; `string'
PUBLIC	??_C@_0BJ@GPNGCFMK@GetSkillProp?5range_error@	; `string'
PUBLIC	??_C@_0BJ@GKPOBPPI@GetMoverProp?5range_error@	; `string'
PUBLIC	??_C@_0DB@ILBMOCBP@C?3?2IAGOS?2server?2v18?2Source?2Sour@ ; `string'
PUBLIC	??_R4exception@std@@6B@				; std::exception::`RTTI Complete Object Locator'
PUBLIC	??_R3exception@std@@8				; std::exception::`RTTI Class Hierarchy Descriptor'
PUBLIC	??_R2exception@std@@8				; std::exception::`RTTI Base Class Array'
PUBLIC	??_R1A@?0A@EA@exception@std@@8			; std::exception::`RTTI Base Class Descriptor at (0,-1,0,64)'
PUBLIC	??_R4bad_array_new_length@std@@6B@		; std::bad_array_new_length::`RTTI Complete Object Locator'
PUBLIC	??_R3bad_array_new_length@std@@8		; std::bad_array_new_length::`RTTI Class Hierarchy Descriptor'
PUBLIC	??_R2bad_array_new_length@std@@8		; std::bad_array_new_length::`RTTI Base Class Array'
PUBLIC	??_R1A@?0A@EA@bad_array_new_length@std@@8	; std::bad_array_new_length::`RTTI Base Class Descriptor at (0,-1,0,64)'
PUBLIC	??_R1A@?0A@EA@bad_alloc@std@@8			; std::bad_alloc::`RTTI Base Class Descriptor at (0,-1,0,64)'
PUBLIC	??_R3bad_alloc@std@@8				; std::bad_alloc::`RTTI Class Hierarchy Descriptor'
PUBLIC	??_R2bad_alloc@std@@8				; std::bad_alloc::`RTTI Base Class Array'
PUBLIC	??_R4bad_alloc@std@@6B@				; std::bad_alloc::`RTTI Complete Object Locator'
PUBLIC	??_7CContDamageCtrl@@6B@			; CContDamageCtrl::`vftable'
PUBLIC	??_C@_0CC@KIBGGMOC@AddItToGlobalId?5id?3?$CFd?5duplicate@ ; `string'
PUBLIC	??_C@_0CF@DHKEIGNE@?$CFs?5?3?5?$CFd?4?5?$LN?$LK?E?$LD?$CI?$CFd?$CJ?$MA?G?5?G?A?$LH?N?F?$NL?F?$LM?$LA?$KB?5@ ; `string'
PUBLIC	??_C@_0CN@DHHEAMNP@?$CFs?5?3?5?$CFd?4?5Add?$LN?$LK?E?$LD?$CI?$CFd?$CJ?5Lv?$CFd?$MA?G?5?G?A?$LH@ ; `string'
PUBLIC	??_C@_0DO@DMAIFMKC@?$CFs?5?3?5?$CFd?4?5Add?$LN?$LK?E?$LD?$CI?$CFd?$CJ?5AddSkill?9?$DO@ ; `string'
PUBLIC	??_C@_0DF@PJNPMLMN@CCtrl?3?3ApplySkillRegion?5?3?5pSkil@ ; `string'
PUBLIC	??_C@_0CO@BGLKNHOL@?$LA?f?$LA?m?5?3?5?$LN?$LK?E?$LD?5?$CFd?$MA?G?5dwSkillRange?$LA?$KB@ ; `string'
PUBLIC	??_C@_0CN@JGJEJEIM@CCtrl?3?3ApplySkillRegion?5?3?5D?3?$CFd?5@ ; `string'
PUBLIC	??_C@_0CM@KNCEEHAG@ApplySkillRegion?5?3?5pObj?$LA?$KB?5MOVER@ ; `string'
PUBLIC	??_C@_0DK@JIMPMIEK@CCtrl?3?3ApplySkillAround?5?3?5pSkil@ ; `string'
PUBLIC	??_C@_0CN@LFDGIJNO@CCtrl?3?3ApplySkillAround?5?3?5D?3?$CFd?5@ ; `string'
PUBLIC	??_C@_0CM@KJHLJEPO@ApplySkillAround?5?3?5pObj?$LA?$KB?5MOVER@ ; `string'
PUBLIC	??_C@_0CO@JIAMLELL@CCtrl?3?3ApplySkillLine?5?3?5pSkillP@ ; `string'
PUBLIC	??_C@_0BO@OBMFFPCI@CCtrl?3?3ApplySkillLine?5?3?5?$CFd?5?$CFd@ ; `string'
PUBLIC	??_C@_0CK@CMFPMHIM@ApplySkillLine?5?3?5pObj?$LA?$KB?5MOVER?$LA?$KB@ ; `string'
PUBLIC	??_C@_0O@CLKCIBDE@DoActiveSkill@		; `string'
PUBLIC	??_R4CCtrl@@6B@					; CCtrl::`RTTI Complete Object Locator'
PUBLIC	??_R0?AVCCtrl@@@8				; CCtrl `RTTI Type Descriptor'
PUBLIC	??_R3CCtrl@@8					; CCtrl::`RTTI Class Hierarchy Descriptor'
PUBLIC	??_R2CCtrl@@8					; CCtrl::`RTTI Base Class Array'
PUBLIC	??_R1A@?0A@EA@CCtrl@@8				; CCtrl::`RTTI Base Class Descriptor at (0,-1,0,64)'
PUBLIC	??_R1A@?0A@EA@CObj@@8				; CObj::`RTTI Base Class Descriptor at (0,-1,0,64)'
PUBLIC	??_R0?AVCObj@@@8				; CObj `RTTI Type Descriptor'
PUBLIC	??_R3CObj@@8					; CObj::`RTTI Class Hierarchy Descriptor'
PUBLIC	??_R2CObj@@8					; CObj::`RTTI Base Class Array'
PUBLIC	??_R4CContDamageCtrl@@6B@			; CContDamageCtrl::`RTTI Complete Object Locator'
PUBLIC	??_R0?AVCContDamageCtrl@@@8			; CContDamageCtrl `RTTI Type Descriptor'
PUBLIC	??_R3CContDamageCtrl@@8				; CContDamageCtrl::`RTTI Class Hierarchy Descriptor'
PUBLIC	??_R2CContDamageCtrl@@8				; CContDamageCtrl::`RTTI Base Class Array'
PUBLIC	??_R1A@?0A@EA@CContDamageCtrl@@8		; CContDamageCtrl::`RTTI Base Class Descriptor at (0,-1,0,64)'
PUBLIC	__real@00000000
PUBLIC	__real@3a83126f
PUBLIC	__real@3c8efa35
PUBLIC	__real@3dcccccd
PUBLIC	__real@3e99999a
PUBLIC	__real@3f000000
PUBLIC	__real@3f333333
PUBLIC	__real@3f59999a
PUBLIC	__real@3f800000
PUBLIC	__real@40800000
PUBLIC	__real@41000000
PUBLIC	__real@41800000
PUBLIC	__real@42652ee0
PUBLIC	__real@43b40000
PUBLIC	__real@45100000
PUBLIC	__xmm@41f00000000000000000000000000000
PUBLIC	__xmm@80000000800000008000000080000000
EXTRN	??2@YAPAXI@Z:PROC				; operator new
EXTRN	??3@YAXPAXI@Z:PROC				; operator delete
EXTRN	___std_terminate:PROC
EXTRN	__invoke_watson:PROC
EXTRN	__imp__EnterCriticalSection@4:PROC
EXTRN	__imp__LeaveCriticalSection@4:PROC
EXTRN	___std_exception_copy:PROC
EXTRN	___std_exception_destroy:PROC
EXTRN	??_Eexception@std@@UAEPAXI@Z:PROC		; std::exception::`vector deleting destructor'
EXTRN	??_Ebad_alloc@std@@UAEPAXI@Z:PROC		; std::bad_alloc::`vector deleting destructor'
EXTRN	??_Ebad_array_new_length@std@@UAEPAXI@Z:PROC	; std::bad_array_new_length::`vector deleting destructor'
EXTRN	?_Xlength_error@std@@YAXPBD@Z:PROC		; std::_Xlength_error
EXTRN	_D3DXVec3Normalize@8:PROC
EXTRN	_D3DXVec3TransformCoord@12:PROC
EXTRN	_D3DXMatrixMultiply@12:PROC
EXTRN	_D3DXMatrixInverse@12:PROC
EXTRN	_D3DXMatrixTranslation@16:PROC
EXTRN	_D3DXMatrixRotationY@8:PROC
EXTRN	?WriteLog@@YAXPBDZZ:PROC			; WriteLog
EXTRN	?Error@@YAPBDPBDZZ:PROC				; Error
EXTRN	?IsTouchAABB@@YAHABUD3DXVECTOR3@@000@Z:PROC	; IsTouchAABB
EXTRN	??0CObj@@QAE@XZ:PROC				; CObj::CObj
EXTRN	??1CObj@@UAE@XZ:PROC				; CObj::~CObj
EXTRN	?LoadModel@CObj@@UAEPAVCModel@@PAUIDirect3DDevice9@@KK@Z:PROC ; CObj::LoadModel
EXTRN	?InitProp@CObj@@UAEXH@Z:PROC			; CObj::InitProp
EXTRN	?Process@CObj@@UAEXXZ:PROC			; CObj::Process
EXTRN	?Read@CObj@@UAEHPAVCFileIO@@@Z:PROC		; CObj::Read
EXTRN	?Render@CObj@@UAEXPAUIDirect3DDevice9@@@Z:PROC	; CObj::Render
EXTRN	?RenderName@CObj@@UAEXPAUIDirect3DDevice9@@PAVCD3DFont@@K@Z:PROC ; CObj::RenderName
EXTRN	?IsRangeObj@CObj@@QAEHPAV1@M@Z:PROC		; CObj::IsRangeObj
EXTRN	?IsRangeObj@CObj@@QAEHABUD3DXVECTOR3@@M@Z:PROC	; CObj::IsRangeObj
EXTRN	?SetTypeIndex@CObj@@QAEHPAUIDirect3DDevice9@@KKH@Z:PROC ; CObj::SetTypeIndex
EXTRN	?Delete@CObj@@QAEXXZ:PROC			; CObj::Delete
EXTRN	?SetPos@CObj@@QAEXABUD3DXVECTOR3@@@Z:PROC	; CObj::SetPos
EXTRN	?SetAngle@CObj@@QAEXM@Z:PROC			; CObj::SetAngle
EXTRN	?Serialize@CCtrl@@UAEXAAVCAr@@@Z:PROC		; CCtrl::Serialize
EXTRN	??_ECCtrl@@UAEPAXI@Z:PROC			; CCtrl::`vector deleting destructor'
EXTRN	?GetAddSkillProp@CProject@@QAEPAUAddSkillProp@@KK@Z:PROC ; CProject::GetAddSkillProp
EXTRN	?HasBuff@CMover@@QAEHGG@Z:PROC			; CMover::HasBuff
EXTRN	?RemoveBuff@CMover@@QAEXGG@Z:PROC		; CMover::RemoveBuff
EXTRN	?AddBuff@CMover@@QAEHGGKKK@Z:PROC		; CMover::AddBuff
EXTRN	?SetDarkCover@CMover@@QAEHHK@Z:PROC		; CMover::SetDarkCover
EXTRN	?PostAIMsg@CMover@@QAEXKKKK@Z:PROC		; CMover::PostAIMsg
EXTRN	?IsPVPTarget@CMover@@QAEHPAV1@@Z:PROC		; CMover::IsPVPTarget
EXTRN	?IsWarTarget@CMover@@QAEHPAV1@@Z:PROC		; CMover::IsWarTarget
EXTRN	?GetHitType@CMover@@QAE?AW4HITTYPE@@PAV1@HH@Z:PROC ; CMover::GetHitType
EXTRN	?IsArenaTarget@CMover@@QAEHPAV1@@Z:PROC		; CMover::IsArenaTarget
EXTRN	?GetHitType2@CMover@@QAE?AW4HITTYPE@@PAV1@HH@Z:PROC ; CMover::GetHitType2
EXTRN	?AddGold@CMover@@QAEHHH@Z:PROC			; CMover::AddGold
EXTRN	?GetAttackRange@CMover@@QAEMK@Z:PROC		; CMover::GetAttackRange
EXTRN	?IsPKPVPInspectionBase@CMover@@QAEHKH@Z:PROC	; CMover::IsPKPVPInspectionBase
EXTRN	?SubReferTime@CMover@@QAEXPAK0PAUItemProp@@PAUAddSkillProp@@@Z:PROC ; CMover::SubReferTime
EXTRN	?ApplyParam@CMover@@QAEHPAVCCtrl@@PAUItemProp@@PAUAddSkillProp@@HH@Z:PROC ; CMover::ApplyParam
EXTRN	?OnAttacked@CMover@@QAEXPAV1@HHH@Z:PROC		; CMover::OnAttacked
EXTRN	?GetPKPVPRegionAttr@CMover@@QAEKXZ:PROC		; CMover::GetPKPVPRegionAttr
EXTRN	?IsGuildCombatTarget@CMover@@QAEHPAV1@@Z:PROC	; CMover::IsGuildCombatTarget
EXTRN	?GetRespawnInfo@CLayerdRespawner@@QAEPAVCRespawnInfo@@HHH@Z:PROC ; CLayerdRespawner::GetRespawnInfo
EXTRN	?GetLinkWidth@CLayeredLinkMap@@QAEHKHH@Z:PROC	; CLayeredLinkMap::GetLinkWidth
EXTRN	?GetObj@CLayeredLinkMap@@QAEPAPAVCObj@@KKH@Z:PROC ; CLayeredLinkMap::GetObj
EXTRN	?GetMaxLinkLevel@CLayeredLinkMap@@QAEHKH@Z:PROC	; CLayeredLinkMap::GetMaxLinkLevel
EXTRN	?AddObj@CWorld@@QAEHPAVCObj@@HH@Z:PROC		; CWorld::AddObj
EXTRN	?CreateObj@@YAPAVCObj@@PAUIDirect3DDevice9@@KKH@Z:PROC ; CreateObj
EXTRN	?Init@CContDamageCtrl@@AAEXXZ:PROC		; CContDamageCtrl::Init
EXTRN	?Destroy@CContDamageCtrl@@AAEXXZ:PROC		; CContDamageCtrl::Destroy
EXTRN	?Process@CContDamageCtrl@@UAEXXZ:PROC		; CContDamageCtrl::Process
EXTRN	??_ECContDamageCtrl@@UAEPAXI@Z:PROC		; CContDamageCtrl::`vector deleting destructor'
EXTRN	?AddCtrl@CShip@@QAEXK@Z:PROC			; CShip::AddCtrl
EXTRN	?FindCtrl@CShip@@QAEPAKK@Z:PROC			; CShip::FindCtrl
EXTRN	?RemoveCtrl@CShip@@QAEXK@Z:PROC			; CShip::RemoveCtrl
EXTRN	?GetParty@CPartyMng@@QAEPAVCParty@@K@Z:PROC	; CPartyMng::GetParty
EXTRN	?AddHdr@CUser@@QAEXKG@Z:PROC			; CUser::AddHdr
EXTRN	?AddGoldText@CUser@@QAEXH@Z:PROC		; CUser::AddGoldText
EXTRN	?AddResurrectionMessage@CUser@@QAEXXZ:PROC	; CUser::AddResurrectionMessage
EXTRN	?AddCommonSkill@CUser@@QAEXKK@Z:PROC		; CUser::AddCommonSkill
EXTRN	?GetUserByPlayerID@CUserMng@@QAEPAVCUser@@K@Z:PROC ; CUserMng::GetUserByPlayerID
EXTRN	?AddCreateSfxObj@CUserMng@@QAEXPAVCCtrl@@KMMMH@Z:PROC ; CUserMng::AddCreateSfxObj
EXTRN	?AddRemoveSfxObj@CUserMng@@QAEXPAVCCtrl@@KMMMH@Z:PROC ; CUserMng::AddRemoveSfxObj
EXTRN	?AddPushPower@CUserMng@@QAEXPAVCMover@@UD3DXVECTOR3@@MMM@Z:PROC ; CUserMng::AddPushPower
EXTRN	?AddDoApplySkill@CUserMng@@QAEXPAVCCtrl@@KKK@Z:PROC ; CUserMng::AddDoApplySkill
EXTRN	?SendLogLevelUp@CDPDatabaseClient@@QAEXPAVCMover@@H@Z:PROC ; CDPDatabaseClient::SendLogLevelUp
EXTRN	@__security_check_cookie@4:PROC
EXTRN	__CxxThrowException@8:PROC
EXTRN	___CxxFrameHandler3:PROC
EXTRN	__libm_sse2_acos_precise:PROC
EXTRN	__libm_sse2_cos_precise:PROC
EXTRN	__libm_sse2_sin_precise:PROC
EXTRN	_memcpy:PROC
EXTRN	??_7type_info@@6B@:QWORD			; type_info::`vftable'
EXTRN	?g_next@@3KA:DWORD				; g_next
EXTRN	?prj@@3VCProject@@A:BYTE			; prj
EXTRN	?g_UserMng@@3VCUserMng@@A:BYTE			; g_UserMng
EXTRN	?g_PartyMng@@3VCPartyMng@@A:BYTE		; g_PartyMng
EXTRN	?g_dpDBClient@@3VCDPDatabaseClient@@A:BYTE	; g_dpDBClient
EXTRN	?g_MapStrToObjId@@3V?$map@V?$basic_string@DU?$char_traits@D@std@@V?$allocator@D@2@@std@@KU?$less@V?$basic_string@DU?$char_traits@D@std@@V?$allocator@D@2@@std@@@2@V?$allocator@U?$pair@$$CBV?$basic_string@DU?$char_traits@D@std@@V?$allocator@D@2@@std@@K@std@@@2@@std@@A:QWORD ; g_MapStrToObjId
EXTRN	___security_cookie:DWORD
EXTRN	__fltused:DWORD
;	COMDAT __xmm@80000000800000008000000080000000
CONST	SEGMENT
__xmm@80000000800000008000000080000000 DB 00H, 00H, 00H, 080H, 00H, 00H, 00H
	DB	080H, 00H, 00H, 00H, 080H, 00H, 00H, 00H, 080H
CONST	ENDS
;	COMDAT __xmm@41f00000000000000000000000000000
CONST	SEGMENT
__xmm@41f00000000000000000000000000000 DB 00H, 00H, 00H, 00H, 00H, 00H, 00H
	DB	00H, 00H, 00H, 00H, 00H, 00H, 00H, 0f0H, 'A'
CONST	ENDS
;	COMDAT __real@45100000
CONST	SEGMENT
__real@45100000 DD 045100000r			; 2304
CONST	ENDS
;	COMDAT __real@43b40000
CONST	SEGMENT
__real@43b40000 DD 043b40000r			; 360
CONST	ENDS
;	COMDAT __real@42652ee0
CONST	SEGMENT
__real@42652ee0 DD 042652ee0r			; 57.2958
CONST	ENDS
;	COMDAT __real@41800000
CONST	SEGMENT
__real@41800000 DD 041800000r			; 16
CONST	ENDS
;	COMDAT __real@41000000
CONST	SEGMENT
__real@41000000 DD 041000000r			; 8
CONST	ENDS
;	COMDAT __real@40800000
CONST	SEGMENT
__real@40800000 DD 040800000r			; 4
CONST	ENDS
;	COMDAT __real@3f800000
CONST	SEGMENT
__real@3f800000 DD 03f800000r			; 1
CONST	ENDS
;	COMDAT __real@3f59999a
CONST	SEGMENT
__real@3f59999a DD 03f59999ar			; 0.85
CONST	ENDS
;	COMDAT __real@3f333333
CONST	SEGMENT
__real@3f333333 DD 03f333333r			; 0.7
CONST	ENDS
;	COMDAT __real@3f000000
CONST	SEGMENT
__real@3f000000 DD 03f000000r			; 0.5
CONST	ENDS
;	COMDAT __real@3e99999a
CONST	SEGMENT
__real@3e99999a DD 03e99999ar			; 0.3
CONST	ENDS
;	COMDAT __real@3dcccccd
CONST	SEGMENT
__real@3dcccccd DD 03dcccccdr			; 0.1
CONST	ENDS
;	COMDAT __real@3c8efa35
CONST	SEGMENT
__real@3c8efa35 DD 03c8efa35r			; 0.0174533
CONST	ENDS
;	COMDAT __real@3a83126f
CONST	SEGMENT
__real@3a83126f DD 03a83126fr			; 0.001
CONST	ENDS
;	COMDAT __real@00000000
CONST	SEGMENT
__real@00000000 DD 000000000r			; 0
CONST	ENDS
;	COMDAT ??_R1A@?0A@EA@CContDamageCtrl@@8
rdata$r	SEGMENT
??_R1A@?0A@EA@CContDamageCtrl@@8 DD FLAT:??_R0?AVCContDamageCtrl@@@8 ; CContDamageCtrl::`RTTI Base Class Descriptor at (0,-1,0,64)'
	DD	02H
	DD	00H
	DD	0ffffffffH
	DD	00H
	DD	040H
	DD	FLAT:??_R3CContDamageCtrl@@8
rdata$r	ENDS
;	COMDAT ??_R2CContDamageCtrl@@8
rdata$r	SEGMENT
??_R2CContDamageCtrl@@8 DD FLAT:??_R1A@?0A@EA@CContDamageCtrl@@8 ; CContDamageCtrl::`RTTI Base Class Array'
	DD	FLAT:??_R1A@?0A@EA@CCtrl@@8
	DD	FLAT:??_R1A@?0A@EA@CObj@@8
rdata$r	ENDS
;	COMDAT ??_R3CContDamageCtrl@@8
rdata$r	SEGMENT
??_R3CContDamageCtrl@@8 DD 00H				; CContDamageCtrl::`RTTI Class Hierarchy Descriptor'
	DD	00H
	DD	03H
	DD	FLAT:??_R2CContDamageCtrl@@8
rdata$r	ENDS
;	COMDAT ??_R0?AVCContDamageCtrl@@@8
data$rs	SEGMENT
??_R0?AVCContDamageCtrl@@@8 DD FLAT:??_7type_info@@6B@	; CContDamageCtrl `RTTI Type Descriptor'
	DD	00H
	DB	'.?AVCContDamageCtrl@@', 00H
data$rs	ENDS
;	COMDAT ??_R4CContDamageCtrl@@6B@
rdata$r	SEGMENT
??_R4CContDamageCtrl@@6B@ DD 00H			; CContDamageCtrl::`RTTI Complete Object Locator'
	DD	00H
	DD	00H
	DD	FLAT:??_R0?AVCContDamageCtrl@@@8
	DD	FLAT:??_R3CContDamageCtrl@@8
rdata$r	ENDS
;	COMDAT ??_R2CObj@@8
rdata$r	SEGMENT
??_R2CObj@@8 DD	FLAT:??_R1A@?0A@EA@CObj@@8		; CObj::`RTTI Base Class Array'
rdata$r	ENDS
;	COMDAT ??_R3CObj@@8
rdata$r	SEGMENT
??_R3CObj@@8 DD	00H					; CObj::`RTTI Class Hierarchy Descriptor'
	DD	00H
	DD	01H
	DD	FLAT:??_R2CObj@@8
rdata$r	ENDS
;	COMDAT ??_R0?AVCObj@@@8
data$rs	SEGMENT
??_R0?AVCObj@@@8 DD FLAT:??_7type_info@@6B@		; CObj `RTTI Type Descriptor'
	DD	00H
	DB	'.?AVCObj@@', 00H
data$rs	ENDS
;	COMDAT ??_R1A@?0A@EA@CObj@@8
rdata$r	SEGMENT
??_R1A@?0A@EA@CObj@@8 DD FLAT:??_R0?AVCObj@@@8		; CObj::`RTTI Base Class Descriptor at (0,-1,0,64)'
	DD	00H
	DD	00H
	DD	0ffffffffH
	DD	00H
	DD	040H
	DD	FLAT:??_R3CObj@@8
rdata$r	ENDS
;	COMDAT ??_R1A@?0A@EA@CCtrl@@8
rdata$r	SEGMENT
??_R1A@?0A@EA@CCtrl@@8 DD FLAT:??_R0?AVCCtrl@@@8	; CCtrl::`RTTI Base Class Descriptor at (0,-1,0,64)'
	DD	01H
	DD	00H
	DD	0ffffffffH
	DD	00H
	DD	040H
	DD	FLAT:??_R3CCtrl@@8
rdata$r	ENDS
;	COMDAT ??_R2CCtrl@@8
rdata$r	SEGMENT
??_R2CCtrl@@8 DD FLAT:??_R1A@?0A@EA@CCtrl@@8		; CCtrl::`RTTI Base Class Array'
	DD	FLAT:??_R1A@?0A@EA@CObj@@8
rdata$r	ENDS
;	COMDAT ??_R3CCtrl@@8
rdata$r	SEGMENT
??_R3CCtrl@@8 DD 00H					; CCtrl::`RTTI Class Hierarchy Descriptor'
	DD	00H
	DD	02H
	DD	FLAT:??_R2CCtrl@@8
rdata$r	ENDS
;	COMDAT ??_R0?AVCCtrl@@@8
data$rs	SEGMENT
??_R0?AVCCtrl@@@8 DD FLAT:??_7type_info@@6B@		; CCtrl `RTTI Type Descriptor'
	DD	00H
	DB	'.?AVCCtrl@@', 00H
data$rs	ENDS
;	COMDAT ??_R4CCtrl@@6B@
rdata$r	SEGMENT
??_R4CCtrl@@6B@ DD 00H					; CCtrl::`RTTI Complete Object Locator'
	DD	00H
	DD	00H
	DD	FLAT:??_R0?AVCCtrl@@@8
	DD	FLAT:??_R3CCtrl@@8
rdata$r	ENDS
;	COMDAT ??_C@_0O@CLKCIBDE@DoActiveSkill@
CONST	SEGMENT
??_C@_0O@CLKCIBDE@DoActiveSkill@ DB 'DoActiveSkill', 00H ; `string'
CONST	ENDS
;	COMDAT ??_C@_0CK@CMFPMHIM@ApplySkillLine?5?3?5pObj?$LA?$KB?5MOVER?$LA?$KB@
CONST	SEGMENT
??_C@_0CK@CMFPMHIM@ApplySkillLine?5?3?5pObj?$LA?$KB?5MOVER?$LA?$KB@ DB 'A'
	DB	'pplySkillLine : pObj', 0b0H, 0a1H, ' MOVER', 0b0H, 0a1H, ' ', 0beH
	DB	0c6H, 0b4H, 0cfH, 0b4H, 0d9H, ' %d', 00H	; `string'
CONST	ENDS
;	COMDAT ??_C@_0BO@OBMFFPCI@CCtrl?3?3ApplySkillLine?5?3?5?$CFd?5?$CFd@
CONST	SEGMENT
??_C@_0BO@OBMFFPCI@CCtrl?3?3ApplySkillLine?5?3?5?$CFd?5?$CFd@ DB 'CCtrl::'
	DB	'ApplySkillLine : %d %d', 00H		; `string'
CONST	ENDS
;	COMDAT ??_C@_0CO@JIAMLELL@CCtrl?3?3ApplySkillLine?5?3?5pSkillP@
CONST	SEGMENT
??_C@_0CO@JIAMLELL@CCtrl?3?3ApplySkillLine?5?3?5pSkillP@ DB 'CCtrl::Apply'
	DB	'SkillLine : pSkillProp == NULL %d', 00H	; `string'
CONST	ENDS
;	COMDAT ??_C@_0CM@KJHLJEPO@ApplySkillAround?5?3?5pObj?$LA?$KB?5MOVER@
CONST	SEGMENT
??_C@_0CM@KJHLJEPO@ApplySkillAround?5?3?5pObj?$LA?$KB?5MOVER@ DB 'ApplySk'
	DB	'illAround : pObj', 0b0H, 0a1H, ' MOVER', 0b0H, 0a1H, ' ', 0beH
	DB	0c6H, 0b4H, 0cfH, 0b4H, 0d9H, ' %d', 00H	; `string'
CONST	ENDS
;	COMDAT ??_C@_0CN@LFDGIJNO@CCtrl?3?3ApplySkillAround?5?3?5D?3?$CFd?5@
CONST	SEGMENT
??_C@_0CN@LFDGIJNO@CCtrl?3?3ApplySkillAround?5?3?5D?3?$CFd?5@ DB 'CCtrl::'
	DB	'ApplySkillAround : D:%d A:%d-%d %d %f', 00H	; `string'
CONST	ENDS
;	COMDAT ??_C@_0DK@JIMPMIEK@CCtrl?3?3ApplySkillAround?5?3?5pSkil@
CONST	SEGMENT
??_C@_0DK@JIMPMIEK@CCtrl?3?3ApplySkillAround?5?3?5pSkil@ DB 'CCtrl::Apply'
	DB	'SkillAround : pSkillProp == NULL D:%d A:%d-%d', 00H ; `string'
CONST	ENDS
;	COMDAT ??_C@_0CM@KNCEEHAG@ApplySkillRegion?5?3?5pObj?$LA?$KB?5MOVER@
CONST	SEGMENT
??_C@_0CM@KNCEEHAG@ApplySkillRegion?5?3?5pObj?$LA?$KB?5MOVER@ DB 'ApplySk'
	DB	'illRegion : pObj', 0b0H, 0a1H, ' MOVER', 0b0H, 0a1H, ' ', 0beH
	DB	0c6H, 0b4H, 0cfH, 0b4H, 0d9H, ' %d', 00H	; `string'
CONST	ENDS
;	COMDAT ??_C@_0CN@JGJEJEIM@CCtrl?3?3ApplySkillRegion?5?3?5D?3?$CFd?5@
CONST	SEGMENT
??_C@_0CN@JGJEJEIM@CCtrl?3?3ApplySkillRegion?5?3?5D?3?$CFd?5@ DB 'CCtrl::'
	DB	'ApplySkillRegion : D:%d A:%d-%d %d %f', 00H	; `string'
CONST	ENDS
;	COMDAT ??_C@_0CO@BGLKNHOL@?$LA?f?$LA?m?5?3?5?$LN?$LK?E?$LD?5?$CFd?$MA?G?5dwSkillRange?$LA?$KB@
CONST	SEGMENT
??_C@_0CO@BGLKNHOL@?$LA?f?$LA?m?5?3?5?$LN?$LK?E?$LD?5?$CFd?$MA?G?5dwSkillRange?$LA?$KB@ DB 0b0H
	DB	0e6H, 0b0H, 0edH, ' : ', 0bdH, 0baH, 0c5H, 0b3H, ' %d', 0c0H, 0c7H
	DB	' dwSkillRange', 0b0H, 0a1H, ' ', 0c1H, 0f6H, 0c1H, 0a4H, 0b5H
	DB	0c7H, 0c1H, 0f6H, ' ', 0beH, 0caH, 0c0H, 0bdH, 00H ; `string'
CONST	ENDS
;	COMDAT ??_C@_0DF@PJNPMLMN@CCtrl?3?3ApplySkillRegion?5?3?5pSkil@
CONST	SEGMENT
??_C@_0DF@PJNPMLMN@CCtrl?3?3ApplySkillRegion?5?3?5pSkil@ DB 'CCtrl::Apply'
	DB	'SkillRegion : pSkillProp == NULL A:%d-%d', 00H ; `string'
CONST	ENDS
;	COMDAT ??_C@_0DO@DMAIFMKC@?$CFs?5?3?5?$CFd?4?5Add?$LN?$LK?E?$LD?$CI?$CFd?$CJ?5AddSkill?9?$DO@
CONST	SEGMENT
??_C@_0DO@DMAIFMKC@?$CFs?5?3?5?$CFd?4?5Add?$LN?$LK?E?$LD?$CI?$CFd?$CJ?5AddSkill?9?$DO@ DB '%'
	DB	's : %d. Add', 0bdH, 0baH, 0c5H, 0b3H, '(%d) AddSkill->dwName', 0b0H
	DB	0faH, ' Skill->dwID', 0b0H, 0a1H, ' ', 0b4H, 0d9H, 0b8H, 0a3H, 0b4H
	DB	0d9H, '.', 00H				; `string'
CONST	ENDS
;	COMDAT ??_C@_0CN@DHHEAMNP@?$CFs?5?3?5?$CFd?4?5Add?$LN?$LK?E?$LD?$CI?$CFd?$CJ?5Lv?$CFd?$MA?G?5?G?A?$LH@
CONST	SEGMENT
??_C@_0CN@DHHEAMNP@?$CFs?5?3?5?$CFd?4?5Add?$LN?$LK?E?$LD?$CI?$CFd?$CJ?5Lv?$CFd?$MA?G?5?G?A?$LH@ DB '%'
	DB	's : %d. Add', 0bdH, 0baH, 0c5H, 0b3H, '(%d) Lv%d', 0c0H, 0c7H
	DB	' ', 0c7H, 0c1H, 0b7H, 0ceH, 0c6H, 0dbH, 0c6H, 0bcH, 0b0H, 0a1H
	DB	' ', 0beH, 0f8H, 0b4H, 0d9H, '.', 00H	; `string'
CONST	ENDS
;	COMDAT ??_C@_0CF@DHKEIGNE@?$CFs?5?3?5?$CFd?4?5?$LN?$LK?E?$LD?$CI?$CFd?$CJ?$MA?G?5?G?A?$LH?N?F?$NL?F?$LM?$LA?$KB?5@
CONST	SEGMENT
??_C@_0CF@DHKEIGNE@?$CFs?5?3?5?$CFd?4?5?$LN?$LK?E?$LD?$CI?$CFd?$CJ?$MA?G?5?G?A?$LH?N?F?$NL?F?$LM?$LA?$KB?5@ DB '%'
	DB	's : %d. ', 0bdH, 0baH, 0c5H, 0b3H, '(%d)', 0c0H, 0c7H, ' ', 0c7H
	DB	0c1H, 0b7H, 0ceH, 0c6H, 0dbH, 0c6H, 0bcH, 0b0H, 0a1H, ' ', 0beH
	DB	0f8H, 0b4H, 0d9H, '.', 00H			; `string'
CONST	ENDS
;	COMDAT ??_C@_0CC@KIBGGMOC@AddItToGlobalId?5id?3?$CFd?5duplicate@
CONST	SEGMENT
??_C@_0CC@KIBGGMOC@AddItToGlobalId?5id?3?$CFd?5duplicate@ DB 'AddItToGlob'
	DB	'alId id:%d duplicated.', 00H		; `string'
CONST	ENDS
;	COMDAT ??_7CContDamageCtrl@@6B@
CONST	SEGMENT
??_7CContDamageCtrl@@6B@ DD FLAT:??_R4CContDamageCtrl@@6B@ ; CContDamageCtrl::`vftable'
	DD	FLAT:??_ECContDamageCtrl@@UAEPAXI@Z
	DD	FLAT:?SetMotion@CObj@@UAEHKHK@Z
	DD	FLAT:?InitMotion@CObj@@UAEHK@Z
	DD	FLAT:?LoadModel@CObj@@UAEPAVCModel@@PAUIDirect3DDevice9@@KK@Z
	DD	FLAT:?InitProp@CObj@@UAEXH@Z
	DD	FLAT:?GetName@CObj@@UAEPBDXZ
	DD	FLAT:?Process@CContDamageCtrl@@UAEXXZ
	DD	FLAT:?Read@CCtrl@@UAEHPAVCFileIO@@@Z
	DD	FLAT:?Serialize@CCtrl@@UAEXAAVCAr@@@Z
	DD	FLAT:?Render@CCtrl@@UAEXPAUIDirect3DDevice9@@@Z
	DD	FLAT:?RenderName@CObj@@UAEXPAUIDirect3DDevice9@@PAVCD3DFont@@K@Z
	DD	FLAT:?SetIndex@CObj@@UAEHPAUIDirect3DDevice9@@KH@Z
	DD	FLAT:?GetSkillProp@CCtrl@@UAEHPAPAUItemProp@@PAPAUAddSkillProp@@HKPBD@Z
	DD	FLAT:?SendDamage@CCtrl@@UAEHKKHH@Z
	DD	FLAT:?SendDamageForce@CCtrl@@UAEHKKHH@Z
	DD	FLAT:?AddItToGlobalId@CCtrl@@UAEXXZ
	DD	FLAT:?RemoveItFromGlobalId@CCtrl@@UAEXXZ
CONST	ENDS
;	COMDAT ??_R4bad_alloc@std@@6B@
rdata$r	SEGMENT
??_R4bad_alloc@std@@6B@ DD 00H				; std::bad_alloc::`RTTI Complete Object Locator'
	DD	00H
	DD	00H
	DD	FLAT:??_R0?AVbad_alloc@std@@@8
	DD	FLAT:??_R3bad_alloc@std@@8
rdata$r	ENDS
;	COMDAT ??_R2bad_alloc@std@@8
rdata$r	SEGMENT
??_R2bad_alloc@std@@8 DD FLAT:??_R1A@?0A@EA@bad_alloc@std@@8 ; std::bad_alloc::`RTTI Base Class Array'
	DD	FLAT:??_R1A@?0A@EA@exception@std@@8
rdata$r	ENDS
;	COMDAT ??_R3bad_alloc@std@@8
rdata$r	SEGMENT
??_R3bad_alloc@std@@8 DD 00H				; std::bad_alloc::`RTTI Class Hierarchy Descriptor'
	DD	00H
	DD	02H
	DD	FLAT:??_R2bad_alloc@std@@8
rdata$r	ENDS
;	COMDAT ??_R1A@?0A@EA@bad_alloc@std@@8
rdata$r	SEGMENT
??_R1A@?0A@EA@bad_alloc@std@@8 DD FLAT:??_R0?AVbad_alloc@std@@@8 ; std::bad_alloc::`RTTI Base Class Descriptor at (0,-1,0,64)'
	DD	01H
	DD	00H
	DD	0ffffffffH
	DD	00H
	DD	040H
	DD	FLAT:??_R3bad_alloc@std@@8
rdata$r	ENDS
;	COMDAT ??_R1A@?0A@EA@bad_array_new_length@std@@8
rdata$r	SEGMENT
??_R1A@?0A@EA@bad_array_new_length@std@@8 DD FLAT:??_R0?AVbad_array_new_length@std@@@8 ; std::bad_array_new_length::`RTTI Base Class Descriptor at (0,-1,0,64)'
	DD	02H
	DD	00H
	DD	0ffffffffH
	DD	00H
	DD	040H
	DD	FLAT:??_R3bad_array_new_length@std@@8
rdata$r	ENDS
;	COMDAT ??_R2bad_array_new_length@std@@8
rdata$r	SEGMENT
??_R2bad_array_new_length@std@@8 DD FLAT:??_R1A@?0A@EA@bad_array_new_length@std@@8 ; std::bad_array_new_length::`RTTI Base Class Array'
	DD	FLAT:??_R1A@?0A@EA@bad_alloc@std@@8
	DD	FLAT:??_R1A@?0A@EA@exception@std@@8
rdata$r	ENDS
;	COMDAT ??_R3bad_array_new_length@std@@8
rdata$r	SEGMENT
??_R3bad_array_new_length@std@@8 DD 00H			; std::bad_array_new_length::`RTTI Class Hierarchy Descriptor'
	DD	00H
	DD	03H
	DD	FLAT:??_R2bad_array_new_length@std@@8
rdata$r	ENDS
;	COMDAT ??_R4bad_array_new_length@std@@6B@
rdata$r	SEGMENT
??_R4bad_array_new_length@std@@6B@ DD 00H		; std::bad_array_new_length::`RTTI Complete Object Locator'
	DD	00H
	DD	00H
	DD	FLAT:??_R0?AVbad_array_new_length@std@@@8
	DD	FLAT:??_R3bad_array_new_length@std@@8
rdata$r	ENDS
;	COMDAT ??_R1A@?0A@EA@exception@std@@8
rdata$r	SEGMENT
??_R1A@?0A@EA@exception@std@@8 DD FLAT:??_R0?AVexception@std@@@8 ; std::exception::`RTTI Base Class Descriptor at (0,-1,0,64)'
	DD	00H
	DD	00H
	DD	0ffffffffH
	DD	00H
	DD	040H
	DD	FLAT:??_R3exception@std@@8
rdata$r	ENDS
;	COMDAT ??_R2exception@std@@8
rdata$r	SEGMENT
??_R2exception@std@@8 DD FLAT:??_R1A@?0A@EA@exception@std@@8 ; std::exception::`RTTI Base Class Array'
rdata$r	ENDS
;	COMDAT ??_R3exception@std@@8
rdata$r	SEGMENT
??_R3exception@std@@8 DD 00H				; std::exception::`RTTI Class Hierarchy Descriptor'
	DD	00H
	DD	01H
	DD	FLAT:??_R2exception@std@@8
rdata$r	ENDS
;	COMDAT ??_R4exception@std@@6B@
rdata$r	SEGMENT
??_R4exception@std@@6B@ DD 00H				; std::exception::`RTTI Complete Object Locator'
	DD	00H
	DD	00H
	DD	FLAT:??_R0?AVexception@std@@@8
	DD	FLAT:??_R3exception@std@@8
rdata$r	ENDS
;	COMDAT ??_C@_0DB@ILBMOCBP@C?3?2IAGOS?2server?2v18?2Source?2Sour@
CONST	SEGMENT
??_C@_0DB@ILBMOCBP@C?3?2IAGOS?2server?2v18?2Source?2Sour@ DB 'C:\IAGOS\se'
	DB	'rver\v18\Source\Source\_Common\data.h', 00H	; `string'
CONST	ENDS
;	COMDAT ??_C@_0BJ@GKPOBPPI@GetMoverProp?5range_error@
CONST	SEGMENT
??_C@_0BJ@GKPOBPPI@GetMoverProp?5range_error@ DB 'GetMoverProp range_erro'
	DB	'r', 00H					; `string'
CONST	ENDS
;	COMDAT ??_C@_0BJ@GPNGCFMK@GetSkillProp?5range_error@
CONST	SEGMENT
??_C@_0BJ@GPNGCFMK@GetSkillProp?5range_error@ DB 'GetSkillProp range_erro'
	DB	'r', 00H					; `string'
CONST	ENDS
;	COMDAT ??_C@_0BM@HMFGHCP@?$CFs?5min?3?$CFd?0?5max?3?$CFd?0?5index?3?$CFd@
CONST	SEGMENT
??_C@_0BM@HMFGHCP@?$CFs?5min?3?$CFd?0?5max?3?$CFd?0?5index?3?$CFd@ DB '%s'
	DB	' min:%d, max:%d, index:%d', 00H		; `string'
CONST	ENDS
;	COMDAT ??_C@_06OJLEAOEG@?$CFs?0?5?$CFd@
CONST	SEGMENT
??_C@_06OJLEAOEG@?$CFs?0?5?$CFd@ DB '%s, %d', 00H	; `string'
CONST	ENDS
;	COMDAT ??_C@_0EB@BHPMDBMF@C?3?2IAGOS?2server?2v18?2Source?2Sour@
CONST	SEGMENT
??_C@_0EB@BHPMDBMF@C?3?2IAGOS?2server?2v18?2Source?2Sour@ DB 'C:\IAGOS\se'
	DB	'rver\v18\Source\Source\_Network\Misc\Include\ObjMap.h', 00H ; `string'
CONST	ENDS
;	COMDAT ??_7CCtrl@@6B@
CONST	SEGMENT
??_7CCtrl@@6B@ DD FLAT:??_R4CCtrl@@6B@			; CCtrl::`vftable'
	DD	FLAT:??_ECCtrl@@UAEPAXI@Z
	DD	FLAT:?SetMotion@CObj@@UAEHKHK@Z
	DD	FLAT:?InitMotion@CObj@@UAEHK@Z
	DD	FLAT:?LoadModel@CObj@@UAEPAVCModel@@PAUIDirect3DDevice9@@KK@Z
	DD	FLAT:?InitProp@CObj@@UAEXH@Z
	DD	FLAT:?GetName@CObj@@UAEPBDXZ
	DD	FLAT:?Process@CCtrl@@UAEXXZ
	DD	FLAT:?Read@CCtrl@@UAEHPAVCFileIO@@@Z
	DD	FLAT:?Serialize@CCtrl@@UAEXAAVCAr@@@Z
	DD	FLAT:?Render@CCtrl@@UAEXPAUIDirect3DDevice9@@@Z
	DD	FLAT:?RenderName@CObj@@UAEXPAUIDirect3DDevice9@@PAVCD3DFont@@K@Z
	DD	FLAT:?SetIndex@CObj@@UAEHPAUIDirect3DDevice9@@KH@Z
	DD	FLAT:?GetSkillProp@CCtrl@@UAEHPAPAUItemProp@@PAPAUAddSkillProp@@HKPBD@Z
	DD	FLAT:?SendDamage@CCtrl@@UAEHKKHH@Z
	DD	FLAT:?SendDamageForce@CCtrl@@UAEHKKHH@Z
	DD	FLAT:?AddItToGlobalId@CCtrl@@UAEXXZ
	DD	FLAT:?RemoveItFromGlobalId@CCtrl@@UAEXXZ
CONST	ENDS
;	COMDAT ??_C@_05CJBACGMB@hello@
CONST	SEGMENT
??_C@_05CJBACGMB@hello@ DB 'hello', 00H			; `string'
CONST	ENDS
;	COMDAT ??_C@_0BB@GCADKGJO@map?1set?5too?5long@
CONST	SEGMENT
??_C@_0BB@GCADKGJO@map?1set?5too?5long@ DB 'map/set too long', 00H ; `string'
CONST	ENDS
;	COMDAT ??_C@_0BA@JFNIOLAK@string?5too?5long@
CONST	SEGMENT
??_C@_0BA@JFNIOLAK@string?5too?5long@ DB 'string too long', 00H ; `string'
CONST	ENDS
;	COMDAT __CT??_R0?AVbad_alloc@std@@@8??0bad_alloc@std@@QAE@ABV01@@Z12
xdata$x	SEGMENT
__CT??_R0?AVbad_alloc@std@@@8??0bad_alloc@std@@QAE@ABV01@@Z12 DD 010H
	DD	FLAT:??_R0?AVbad_alloc@std@@@8
	DD	00H
	DD	0ffffffffH
	ORG $+4
	DD	0cH
	DD	FLAT:??0bad_alloc@std@@QAE@ABV01@@Z
xdata$x	ENDS
;	COMDAT ??_R0?AVbad_alloc@std@@@8
data$r	SEGMENT
??_R0?AVbad_alloc@std@@@8 DD FLAT:??_7type_info@@6B@	; std::bad_alloc `RTTI Type Descriptor'
	DD	00H
	DB	'.?AVbad_alloc@std@@', 00H
data$r	ENDS
;	COMDAT __CT??_R0?AVbad_array_new_length@std@@@8??0bad_array_new_length@std@@QAE@ABV01@@Z12
xdata$x	SEGMENT
__CT??_R0?AVbad_array_new_length@std@@@8??0bad_array_new_length@std@@QAE@ABV01@@Z12 DD 00H
	DD	FLAT:??_R0?AVbad_array_new_length@std@@@8
	DD	00H
	DD	0ffffffffH
	ORG $+4
	DD	0cH
	DD	FLAT:??0bad_array_new_length@std@@QAE@ABV01@@Z
xdata$x	ENDS
;	COMDAT ??_R0?AVbad_array_new_length@std@@@8
data$r	SEGMENT
??_R0?AVbad_array_new_length@std@@@8 DD FLAT:??_7type_info@@6B@ ; std::bad_array_new_length `RTTI Type Descriptor'
	DD	00H
	DB	'.?AVbad_array_new_length@std@@', 00H
data$r	ENDS
;	COMDAT __CTA3?AVbad_array_new_length@std@@
xdata$x	SEGMENT
__CTA3?AVbad_array_new_length@std@@ DD 03H
	DD	FLAT:__CT??_R0?AVbad_array_new_length@std@@@8??0bad_array_new_length@std@@QAE@ABV01@@Z12
	DD	FLAT:__CT??_R0?AVbad_alloc@std@@@8??0bad_alloc@std@@QAE@ABV01@@Z12
	DD	FLAT:__CT??_R0?AVexception@std@@@8??0exception@std@@QAE@ABV01@@Z12
xdata$x	ENDS
;	COMDAT __TI3?AVbad_array_new_length@std@@
xdata$x	SEGMENT
__TI3?AVbad_array_new_length@std@@ DD 00H
	DD	FLAT:??1bad_array_new_length@std@@UAE@XZ
	DD	00H
	DD	FLAT:__CTA3?AVbad_array_new_length@std@@
xdata$x	ENDS
;	COMDAT __CT??_R0?AVexception@std@@@8??0exception@std@@QAE@ABV01@@Z12
xdata$x	SEGMENT
__CT??_R0?AVexception@std@@@8??0exception@std@@QAE@ABV01@@Z12 DD 00H
	DD	FLAT:??_R0?AVexception@std@@@8
	DD	00H
	DD	0ffffffffH
	ORG $+4
	DD	0cH
	DD	FLAT:??0exception@std@@QAE@ABV01@@Z
xdata$x	ENDS
;	COMDAT ??_R0?AVexception@std@@@8
data$r	SEGMENT
??_R0?AVexception@std@@@8 DD FLAT:??_7type_info@@6B@	; std::exception `RTTI Type Descriptor'
	DD	00H
	DB	'.?AVexception@std@@', 00H
data$r	ENDS
;	COMDAT ??_C@_0BF@KINCDENJ@bad?5array?5new?5length@
CONST	SEGMENT
??_C@_0BF@KINCDENJ@bad?5array?5new?5length@ DB 'bad array new length', 00H ; `string'
CONST	ENDS
;	COMDAT ??_7bad_array_new_length@std@@6B@
CONST	SEGMENT
??_7bad_array_new_length@std@@6B@ DD FLAT:??_R4bad_array_new_length@std@@6B@ ; std::bad_array_new_length::`vftable'
	DD	FLAT:??_Ebad_array_new_length@std@@UAEPAXI@Z
	DD	FLAT:?what@exception@std@@UBEPBDXZ
CONST	ENDS
;	COMDAT ??_7bad_alloc@std@@6B@
CONST	SEGMENT
??_7bad_alloc@std@@6B@ DD FLAT:??_R4bad_alloc@std@@6B@	; std::bad_alloc::`vftable'
	DD	FLAT:??_Ebad_alloc@std@@UAEPAXI@Z
	DD	FLAT:?what@exception@std@@UBEPBDXZ
CONST	ENDS
;	COMDAT ??_C@_0BC@EOODALEL@Unknown?5exception@
CONST	SEGMENT
??_C@_0BC@EOODALEL@Unknown?5exception@ DB 'Unknown exception', 00H ; `string'
CONST	ENDS
;	COMDAT ??_7exception@std@@6B@
CONST	SEGMENT
??_7exception@std@@6B@ DD FLAT:??_R4exception@std@@6B@	; std::exception::`vftable'
	DD	FLAT:??_Eexception@std@@UAEPAXI@Z
	DD	FLAT:?what@exception@std@@UBEPBDXZ
CONST	ENDS
;	COMDAT xdata$x
xdata$x	SEGMENT
__unwindtable$??$?0U?$pair@KPAVCMover@@@std@@@?$_Tree_temp_node@V?$allocator@U?$_Tree_node@U?$pair@$$CBKPAVCMover@@@std@@PAX@std@@@std@@@std@@QAE@AAV?$allocator@U?$_Tree_node@U?$pair@$$CBKPAVCMover@@@std@@PAX@std@@@1@PAU?$_Tree_node@U?$pair@$$CBKPAVCMover@@@std@@PAX@1@$$QAU?$pair@KPAVCMover@@@1@@Z DD 0ffffffffH
	DD	FLAT:__unwindfunclet$??$?0U?$pair@KPAVCMover@@@std@@@?$_Tree_temp_node@V?$allocator@U?$_Tree_node@U?$pair@$$CBKPAVCMover@@@std@@PAX@std@@@std@@@std@@QAE@AAV?$allocator@U?$_Tree_node@U?$pair@$$CBKPAVCMover@@@std@@PAX@std@@@1@PAU?$_Tree_node@U?$pair@$$CBKPAVCMover@@@std@@PAX@1@$$QAU?$pair@KPAVCMover@@@1@@Z$1
__ehfuncinfo$??$?0U?$pair@KPAVCMover@@@std@@@?$_Tree_temp_node@V?$allocator@U?$_Tree_node@U?$pair@$$CBKPAVCMover@@@std@@PAX@std@@@std@@@std@@QAE@AAV?$allocator@U?$_Tree_node@U?$pair@$$CBKPAVCMover@@@std@@PAX@std@@@1@PAU?$_Tree_node@U?$pair@$$CBKPAVCMover@@@std@@PAX@1@$$QAU?$pair@KPAVCMover@@@1@@Z DD 019930522H
	DD	01H
	DD	FLAT:__unwindtable$??$?0U?$pair@KPAVCMover@@@std@@@?$_Tree_temp_node@V?$allocator@U?$_Tree_node@U?$pair@$$CBKPAVCMover@@@std@@PAX@std@@@std@@@std@@QAE@AAV?$allocator@U?$_Tree_node@U?$pair@$$CBKPAVCMover@@@std@@PAX@std@@@1@PAU?$_Tree_node@U?$pair@$$CBKPAVCMover@@@std@@PAX@1@$$QAU?$pair@KPAVCMover@@@1@@Z
	DD	2 DUP(00H)
	DD	2 DUP(00H)
	DD	00H
	DD	01H
xdata$x	ENDS
;	COMDAT xdata$x
xdata$x	SEGMENT
__unwindtable$??0?$_Tree_temp_node_alloc@V?$allocator@U?$_Tree_node@U?$pair@$$CBKPAVCMover@@@std@@PAX@std@@@std@@@std@@QAE@AAV?$allocator@U?$_Tree_node@U?$pair@$$CBKPAVCMover@@@std@@PAX@std@@@1@@Z DD 0ffffffffH
	DD	FLAT:__unwindfunclet$??0?$_Tree_temp_node_alloc@V?$allocator@U?$_Tree_node@U?$pair@$$CBKPAVCMover@@@std@@PAX@std@@@std@@@std@@QAE@AAV?$allocator@U?$_Tree_node@U?$pair@$$CBKPAVCMover@@@std@@PAX@std@@@1@@Z$0
__ehfuncinfo$??0?$_Tree_temp_node_alloc@V?$allocator@U?$_Tree_node@U?$pair@$$CBKPAVCMover@@@std@@PAX@std@@@std@@@std@@QAE@AAV?$allocator@U?$_Tree_node@U?$pair@$$CBKPAVCMover@@@std@@PAX@std@@@1@@Z DD 019930522H
	DD	01H
	DD	FLAT:__unwindtable$??0?$_Tree_temp_node_alloc@V?$allocator@U?$_Tree_node@U?$pair@$$CBKPAVCMover@@@std@@PAX@std@@@std@@@std@@QAE@AAV?$allocator@U?$_Tree_node@U?$pair@$$CBKPAVCMover@@@std@@PAX@std@@@1@@Z
	DD	2 DUP(00H)
	DD	2 DUP(00H)
	DD	00H
	DD	01H
xdata$x	ENDS
;	COMDAT xdata$x
xdata$x	SEGMENT
__unwindtable$??$?0U?$pair@$$CBV?$basic_string@DU?$char_traits@D@std@@V?$allocator@D@2@@std@@K@std@@@?$_Tree_temp_node@V?$allocator@U?$_Tree_node@U?$pair@$$CBV?$basic_string@DU?$char_traits@D@std@@V?$allocator@D@2@@std@@K@std@@PAX@std@@@std@@@std@@QAE@AAV?$allocator@U?$_Tree_node@U?$pair@$$CBV?$basic_string@DU?$char_traits@D@std@@V?$allocator@D@2@@std@@K@std@@PAX@std@@@1@PAU?$_Tree_node@U?$pair@$$CBV?$basic_string@DU?$char_traits@D@std@@V?$allocator@D@2@@std@@K@std@@PAX@1@$$QAU?$pair@$$CBV?$basic_string@DU?$char_traits@D@std@@V?$allocator@D@2@@std@@K@1@@Z DD 0ffffffffH
	DD	FLAT:__unwindfunclet$??$?0U?$pair@$$CBV?$basic_string@DU?$char_traits@D@std@@V?$allocator@D@2@@std@@K@std@@@?$_Tree_temp_node@V?$allocator@U?$_Tree_node@U?$pair@$$CBV?$basic_string@DU?$char_traits@D@std@@V?$allocator@D@2@@std@@K@std@@PAX@std@@@std@@@std@@QAE@AAV?$allocator@U?$_Tree_node@U?$pair@$$CBV?$basic_string@DU?$char_traits@D@std@@V?$allocator@D@2@@std@@K@std@@PAX@std@@@1@PAU?$_Tree_node@U?$pair@$$CBV?$basic_string@DU?$char_traits@D@std@@V?$allocator@D@2@@std@@K@std@@PAX@1@$$QAU?$pair@$$CBV?$basic_string@DU?$char_traits@D@std@@V?$allocator@D@2@@std@@K@1@@Z$1
	DD	0ffffffffH
	DD	FLAT:__unwindfunclet$??$?0U?$pair@$$CBV?$basic_string@DU?$char_traits@D@std@@V?$allocator@D@2@@std@@K@std@@@?$_Tree_temp_node@V?$allocator@U?$_Tree_node@U?$pair@$$CBV?$basic_string@DU?$char_traits@D@std@@V?$allocator@D@2@@std@@K@std@@PAX@std@@@std@@@std@@QAE@AAV?$allocator@U?$_Tree_node@U?$pair@$$CBV?$basic_string@DU?$char_traits@D@std@@V?$allocator@D@2@@std@@K@std@@PAX@std@@@1@PAU?$_Tree_node@U?$pair@$$CBV?$basic_string@DU?$char_traits@D@std@@V?$allocator@D@2@@std@@K@std@@PAX@1@$$QAU?$pair@$$CBV?$basic_string@DU?$char_traits@D@std@@V?$allocator@D@2@@std@@K@1@@Z$0
__ehfuncinfo$??$?0U?$pair@$$CBV?$basic_string@DU?$char_traits@D@std@@V?$allocator@D@2@@std@@K@std@@@?$_Tree_temp_node@V?$allocator@U?$_Tree_node@U?$pair@$$CBV?$basic_string@DU?$char_traits@D@std@@V?$allocator@D@2@@std@@K@std@@PAX@std@@@std@@@std@@QAE@AAV?$allocator@U?$_Tree_node@U?$pair@$$CBV?$basic_string@DU?$char_traits@D@std@@V?$allocator@D@2@@std@@K@std@@PAX@std@@@1@PAU?$_Tree_node@U?$pair@$$CBV?$basic_string@DU?$char_traits@D@std@@V?$allocator@D@2@@std@@K@std@@PAX@1@$$QAU?$pair@$$CBV?$basic_string@DU?$char_traits@D@std@@V?$allocator@D@2@@std@@K@1@@Z DD 019930522H
	DD	02H
	DD	FLAT:__unwindtable$??$?0U?$pair@$$CBV?$basic_string@DU?$char_traits@D@std@@V?$allocator@D@2@@std@@K@std@@@?$_Tree_temp_node@V?$allocator@U?$_Tree_node@U?$pair@$$CBV?$basic_string@DU?$char_traits@D@std@@V?$allocator@D@2@@std@@K@std@@PAX@std@@@std@@@std@@QAE@AAV?$allocator@U?$_Tree_node@U?$pair@$$CBV?$basic_string@DU?$char_traits@D@std@@V?$allocator@D@2@@std@@K@std@@PAX@std@@@1@PAU?$_Tree_node@U?$pair@$$CBV?$basic_string@DU?$char_traits@D@std@@V?$allocator@D@2@@std@@K@std@@PAX@1@$$QAU?$pair@$$CBV?$basic_string@DU?$char_traits@D@std@@V?$allocator@D@2@@std@@K@1@@Z
	DD	2 DUP(00H)
	DD	2 DUP(00H)
	DD	00H
	DD	01H
xdata$x	ENDS
;	COMDAT xdata$x
xdata$x	SEGMENT
__unwindtable$??0?$_Tree_temp_node_alloc@V?$allocator@U?$_Tree_node@U?$pair@$$CBV?$basic_string@DU?$char_traits@D@std@@V?$allocator@D@2@@std@@K@std@@PAX@std@@@std@@@std@@QAE@AAV?$allocator@U?$_Tree_node@U?$pair@$$CBV?$basic_string@DU?$char_traits@D@std@@V?$allocator@D@2@@std@@K@std@@PAX@std@@@1@@Z DD 0ffffffffH
	DD	FLAT:__unwindfunclet$??0?$_Tree_temp_node_alloc@V?$allocator@U?$_Tree_node@U?$pair@$$CBV?$basic_string@DU?$char_traits@D@std@@V?$allocator@D@2@@std@@K@std@@PAX@std@@@std@@@std@@QAE@AAV?$allocator@U?$_Tree_node@U?$pair@$$CBV?$basic_string@DU?$char_traits@D@std@@V?$allocator@D@2@@std@@K@std@@PAX@std@@@1@@Z$0
__ehfuncinfo$??0?$_Tree_temp_node_alloc@V?$allocator@U?$_Tree_node@U?$pair@$$CBV?$basic_string@DU?$char_traits@D@std@@V?$allocator@D@2@@std@@K@std@@PAX@std@@@std@@@std@@QAE@AAV?$allocator@U?$_Tree_node@U?$pair@$$CBV?$basic_string@DU?$char_traits@D@std@@V?$allocator@D@2@@std@@K@std@@PAX@std@@@1@@Z DD 019930522H
	DD	01H
	DD	FLAT:__unwindtable$??0?$_Tree_temp_node_alloc@V?$allocator@U?$_Tree_node@U?$pair@$$CBV?$basic_string@DU?$char_traits@D@std@@V?$allocator@D@2@@std@@K@std@@PAX@std@@@std@@@std@@QAE@AAV?$allocator@U?$_Tree_node@U?$pair@$$CBV?$basic_string@DU?$char_traits@D@std@@V?$allocator@D@2@@std@@K@std@@PAX@std@@@1@@Z
	DD	2 DUP(00H)
	DD	2 DUP(00H)
	DD	00H
	DD	01H
xdata$x	ENDS
;	COMDAT xdata$x
xdata$x	SEGMENT
__unwindtable$??$_Emplace@U?$pair@KPAVCMover@@@std@@@?$_Tree@V?$_Tmap_traits@KPAVCMover@@U?$less@K@std@@V?$allocator@U?$pair@$$CBKPAVCMover@@@std@@@3@$0A@@std@@@std@@IAE?AU?$pair@PAU?$_Tree_node@U?$pair@$$CBKPAVCMover@@@std@@PAX@std@@_N@1@$$QAU?$pair@KPAVCMover@@@1@@Z DD 0ffffffffH
	DD	FLAT:__unwindfunclet$??$_Emplace@U?$pair@KPAVCMover@@@std@@@?$_Tree@V?$_Tmap_traits@KPAVCMover@@U?$less@K@std@@V?$allocator@U?$pair@$$CBKPAVCMover@@@std@@@3@$0A@@std@@@std@@IAE?AU?$pair@PAU?$_Tree_node@U?$pair@$$CBKPAVCMover@@@std@@PAX@std@@_N@1@$$QAU?$pair@KPAVCMover@@@1@@Z$2
__ehfuncinfo$??$_Emplace@U?$pair@KPAVCMover@@@std@@@?$_Tree@V?$_Tmap_traits@KPAVCMover@@U?$less@K@std@@V?$allocator@U?$pair@$$CBKPAVCMover@@@std@@@3@$0A@@std@@@std@@IAE?AU?$pair@PAU?$_Tree_node@U?$pair@$$CBKPAVCMover@@@std@@PAX@std@@_N@1@$$QAU?$pair@KPAVCMover@@@1@@Z DD 019930522H
	DD	01H
	DD	FLAT:__unwindtable$??$_Emplace@U?$pair@KPAVCMover@@@std@@@?$_Tree@V?$_Tmap_traits@KPAVCMover@@U?$less@K@std@@V?$allocator@U?$pair@$$CBKPAVCMover@@@std@@@3@$0A@@std@@@std@@IAE?AU?$pair@PAU?$_Tree_node@U?$pair@$$CBKPAVCMover@@@std@@PAX@std@@_N@1@$$QAU?$pair@KPAVCMover@@@1@@Z
	DD	2 DUP(00H)
	DD	2 DUP(00H)
	DD	00H
	DD	01H
xdata$x	ENDS
;	COMDAT xdata$x
xdata$x	SEGMENT
__unwindtable$??$_Emplace@U?$pair@$$CBV?$basic_string@DU?$char_traits@D@std@@V?$allocator@D@2@@std@@K@std@@@?$_Tree@V?$_Tmap_traits@V?$basic_string@DU?$char_traits@D@std@@V?$allocator@D@2@@std@@KU?$less@V?$basic_string@DU?$char_traits@D@std@@V?$allocator@D@2@@std@@@2@V?$allocator@U?$pair@$$CBV?$basic_string@DU?$char_traits@D@std@@V?$allocator@D@2@@std@@K@std@@@2@$0A@@std@@@std@@IAE?AU?$pair@PAU?$_Tree_node@U?$pair@$$CBV?$basic_string@DU?$char_traits@D@std@@V?$allocator@D@2@@std@@K@std@@PAX@std@@_N@1@$$QAU?$pair@$$CBV?$basic_string@DU?$char_traits@D@std@@V?$allocator@D@2@@std@@K@1@@Z DD 0ffffffffH
	DD	FLAT:__unwindfunclet$??$_Emplace@U?$pair@$$CBV?$basic_string@DU?$char_traits@D@std@@V?$allocator@D@2@@std@@K@std@@@?$_Tree@V?$_Tmap_traits@V?$basic_string@DU?$char_traits@D@std@@V?$allocator@D@2@@std@@KU?$less@V?$basic_string@DU?$char_traits@D@std@@V?$allocator@D@2@@std@@@2@V?$allocator@U?$pair@$$CBV?$basic_string@DU?$char_traits@D@std@@V?$allocator@D@2@@std@@K@std@@@2@$0A@@std@@@std@@IAE?AU?$pair@PAU?$_Tree_node@U?$pair@$$CBV?$basic_string@DU?$char_traits@D@std@@V?$allocator@D@2@@std@@K@std@@PAX@std@@_N@1@$$QAU?$pair@$$CBV?$basic_string@DU?$char_traits@D@std@@V?$allocator@D@2@@std@@K@1@@Z$2
	DD	0ffffffffH
	DD	FLAT:__unwindfunclet$??$_Emplace@U?$pair@$$CBV?$basic_string@DU?$char_traits@D@std@@V?$allocator@D@2@@std@@K@std@@@?$_Tree@V?$_Tmap_traits@V?$basic_string@DU?$char_traits@D@std@@V?$allocator@D@2@@std@@KU?$less@V?$basic_string@DU?$char_traits@D@std@@V?$allocator@D@2@@std@@@2@V?$allocator@U?$pair@$$CBV?$basic_string@DU?$char_traits@D@std@@V?$allocator@D@2@@std@@K@std@@@2@$0A@@std@@@std@@IAE?AU?$pair@PAU?$_Tree_node@U?$pair@$$CBV?$basic_string@DU?$char_traits@D@std@@V?$allocator@D@2@@std@@K@std@@PAX@std@@_N@1@$$QAU?$pair@$$CBV?$basic_string@DU?$char_traits@D@std@@V?$allocator@D@2@@std@@K@1@@Z$1
__ehfuncinfo$??$_Emplace@U?$pair@$$CBV?$basic_string@DU?$char_traits@D@std@@V?$allocator@D@2@@std@@K@std@@@?$_Tree@V?$_Tmap_traits@V?$basic_string@DU?$char_traits@D@std@@V?$allocator@D@2@@std@@KU?$less@V?$basic_string@DU?$char_traits@D@std@@V?$allocator@D@2@@std@@@2@V?$allocator@U?$pair@$$CBV?$basic_string@DU?$char_traits@D@std@@V?$allocator@D@2@@std@@K@std@@@2@$0A@@std@@@std@@IAE?AU?$pair@PAU?$_Tree_node@U?$pair@$$CBV?$basic_string@DU?$char_traits@D@std@@V?$allocator@D@2@@std@@K@std@@PAX@std@@_N@1@$$QAU?$pair@$$CBV?$basic_string@DU?$char_traits@D@std@@V?$allocator@D@2@@std@@K@1@@Z DD 019930522H
	DD	02H
	DD	FLAT:__unwindtable$??$_Emplace@U?$pair@$$CBV?$basic_string@DU?$char_traits@D@std@@V?$allocator@D@2@@std@@K@std@@@?$_Tree@V?$_Tmap_traits@V?$basic_string@DU?$char_traits@D@std@@V?$allocator@D@2@@std@@KU?$less@V?$basic_string@DU?$char_traits@D@std@@V?$allocator@D@2@@std@@@2@V?$allocator@U?$pair@$$CBV?$basic_string@DU?$char_traits@D@std@@V?$allocator@D@2@@std@@K@std@@@2@$0A@@std@@@std@@IAE?AU?$pair@PAU?$_Tree_node@U?$pair@$$CBV?$basic_string@DU?$char_traits@D@std@@V?$allocator@D@2@@std@@K@std@@PAX@std@@_N@1@$$QAU?$pair@$$CBV?$basic_string@DU?$char_traits@D@std@@V?$allocator@D@2@@std@@K@1@@Z
	DD	2 DUP(00H)
	DD	2 DUP(00H)
	DD	00H
	DD	01H
xdata$x	ENDS
;	COMDAT xdata$x
xdata$x	SEGMENT
__unwindtable$??$emplace@U?$pair@KPAVCMover@@@std@@@?$_Tree@V?$_Tmap_traits@KPAVCMover@@U?$less@K@std@@V?$allocator@U?$pair@$$CBKPAVCMover@@@std@@@3@$0A@@std@@@std@@QAE?AU?$pair@V?$_Tree_iterator@V?$_Tree_val@U?$_Tree_simple_types@U?$pair@$$CBKPAVCMover@@@std@@@std@@@std@@@std@@_N@1@$$QAU?$pair@KPAVCMover@@@1@@Z DD 0ffffffffH
	DD	FLAT:__unwindfunclet$??$emplace@U?$pair@KPAVCMover@@@std@@@?$_Tree@V?$_Tmap_traits@KPAVCMover@@U?$less@K@std@@V?$allocator@U?$pair@$$CBKPAVCMover@@@std@@@3@$0A@@std@@@std@@QAE?AU?$pair@V?$_Tree_iterator@V?$_Tree_val@U?$_Tree_simple_types@U?$pair@$$CBKPAVCMover@@@std@@@std@@@std@@@std@@_N@1@$$QAU?$pair@KPAVCMover@@@1@@Z$2
__ehfuncinfo$??$emplace@U?$pair@KPAVCMover@@@std@@@?$_Tree@V?$_Tmap_traits@KPAVCMover@@U?$less@K@std@@V?$allocator@U?$pair@$$CBKPAVCMover@@@std@@@3@$0A@@std@@@std@@QAE?AU?$pair@V?$_Tree_iterator@V?$_Tree_val@U?$_Tree_simple_types@U?$pair@$$CBKPAVCMover@@@std@@@std@@@std@@@std@@_N@1@$$QAU?$pair@KPAVCMover@@@1@@Z DD 019930522H
	DD	01H
	DD	FLAT:__unwindtable$??$emplace@U?$pair@KPAVCMover@@@std@@@?$_Tree@V?$_Tmap_traits@KPAVCMover@@U?$less@K@std@@V?$allocator@U?$pair@$$CBKPAVCMover@@@std@@@3@$0A@@std@@@std@@QAE?AU?$pair@V?$_Tree_iterator@V?$_Tree_val@U?$_Tree_simple_types@U?$pair@$$CBKPAVCMover@@@std@@@std@@@std@@@std@@_N@1@$$QAU?$pair@KPAVCMover@@@1@@Z
	DD	2 DUP(00H)
	DD	2 DUP(00H)
	DD	00H
	DD	01H
xdata$x	ENDS
;	COMDAT xdata$x
xdata$x	SEGMENT
__unwindtable$??$insert@U?$pair@KPAVCMover@@@std@@$0A@@?$map@KPAVCMover@@U?$less@K@std@@V?$allocator@U?$pair@$$CBKPAVCMover@@@std@@@3@@std@@QAE?AU?$pair@V?$_Tree_iterator@V?$_Tree_val@U?$_Tree_simple_types@U?$pair@$$CBKPAVCMover@@@std@@@std@@@std@@@std@@_N@1@$$QAU?$pair@KPAVCMover@@@1@@Z DD 0ffffffffH
	DD	FLAT:__unwindfunclet$??$insert@U?$pair@KPAVCMover@@@std@@$0A@@?$map@KPAVCMover@@U?$less@K@std@@V?$allocator@U?$pair@$$CBKPAVCMover@@@std@@@3@@std@@QAE?AU?$pair@V?$_Tree_iterator@V?$_Tree_val@U?$_Tree_simple_types@U?$pair@$$CBKPAVCMover@@@std@@@std@@@std@@@std@@_N@1@$$QAU?$pair@KPAVCMover@@@1@@Z$2
__ehfuncinfo$??$insert@U?$pair@KPAVCMover@@@std@@$0A@@?$map@KPAVCMover@@U?$less@K@std@@V?$allocator@U?$pair@$$CBKPAVCMover@@@std@@@3@@std@@QAE?AU?$pair@V?$_Tree_iterator@V?$_Tree_val@U?$_Tree_simple_types@U?$pair@$$CBKPAVCMover@@@std@@@std@@@std@@@std@@_N@1@$$QAU?$pair@KPAVCMover@@@1@@Z DD 019930522H
	DD	01H
	DD	FLAT:__unwindtable$??$insert@U?$pair@KPAVCMover@@@std@@$0A@@?$map@KPAVCMover@@U?$less@K@std@@V?$allocator@U?$pair@$$CBKPAVCMover@@@std@@@3@@std@@QAE?AU?$pair@V?$_Tree_iterator@V?$_Tree_val@U?$_Tree_simple_types@U?$pair@$$CBKPAVCMover@@@std@@@std@@@std@@@std@@_N@1@$$QAU?$pair@KPAVCMover@@@1@@Z
	DD	2 DUP(00H)
	DD	2 DUP(00H)
	DD	00H
	DD	01H
xdata$x	ENDS
;	COMDAT xdata$x
xdata$x	SEGMENT
__unwindtable$??_GCContDamageCtrl@@UAEPAXI@Z DD 0ffffffffH
	DD	FLAT:___std_terminate
__ehfuncinfo$??_GCContDamageCtrl@@UAEPAXI@Z DD 019930522H
	DD	01H
	DD	FLAT:__unwindtable$??_GCContDamageCtrl@@UAEPAXI@Z
	DD	2 DUP(00H)
	DD	2 DUP(00H)
	DD	00H
	DD	05H
xdata$x	ENDS
;	COMDAT xdata$x
xdata$x	SEGMENT
__ehfuncinfo$??1CContDamageCtrl@@UAE@XZ DD 019930522H
	DD	00H
	DD	00H
	DD	2 DUP(00H)
	DD	2 DUP(00H)
	DD	00H
	DD	05H
xdata$x	ENDS
;	COMDAT xdata$x
xdata$x	SEGMENT
__unwindtable$??0CContDamageCtrl@@QAE@XZ DD 0ffffffffH
	DD	FLAT:__unwindfunclet$??0CContDamageCtrl@@QAE@XZ$0
__ehfuncinfo$??0CContDamageCtrl@@QAE@XZ DD 019930522H
	DD	01H
	DD	FLAT:__unwindtable$??0CContDamageCtrl@@QAE@XZ
	DD	2 DUP(00H)
	DD	2 DUP(00H)
	DD	00H
	DD	01H
xdata$x	ENDS
;	COMDAT xdata$x
xdata$x	SEGMENT
__unwindtable$??$?0U?$pair@KPAVCCtrl@@@std@@@?$_Tree_temp_node@V?$allocator@U?$_Tree_node@U?$pair@$$CBKPAVCCtrl@@@std@@PAX@std@@@std@@@std@@QAE@AAV?$allocator@U?$_Tree_node@U?$pair@$$CBKPAVCCtrl@@@std@@PAX@std@@@1@PAU?$_Tree_node@U?$pair@$$CBKPAVCCtrl@@@std@@PAX@1@$$QAU?$pair@KPAVCCtrl@@@1@@Z DD 0ffffffffH
	DD	FLAT:__unwindfunclet$??$?0U?$pair@KPAVCCtrl@@@std@@@?$_Tree_temp_node@V?$allocator@U?$_Tree_node@U?$pair@$$CBKPAVCCtrl@@@std@@PAX@std@@@std@@@std@@QAE@AAV?$allocator@U?$_Tree_node@U?$pair@$$CBKPAVCCtrl@@@std@@PAX@std@@@1@PAU?$_Tree_node@U?$pair@$$CBKPAVCCtrl@@@std@@PAX@1@$$QAU?$pair@KPAVCCtrl@@@1@@Z$1
__ehfuncinfo$??$?0U?$pair@KPAVCCtrl@@@std@@@?$_Tree_temp_node@V?$allocator@U?$_Tree_node@U?$pair@$$CBKPAVCCtrl@@@std@@PAX@std@@@std@@@std@@QAE@AAV?$allocator@U?$_Tree_node@U?$pair@$$CBKPAVCCtrl@@@std@@PAX@std@@@1@PAU?$_Tree_node@U?$pair@$$CBKPAVCCtrl@@@std@@PAX@1@$$QAU?$pair@KPAVCCtrl@@@1@@Z DD 019930522H
	DD	01H
	DD	FLAT:__unwindtable$??$?0U?$pair@KPAVCCtrl@@@std@@@?$_Tree_temp_node@V?$allocator@U?$_Tree_node@U?$pair@$$CBKPAVCCtrl@@@std@@PAX@std@@@std@@@std@@QAE@AAV?$allocator@U?$_Tree_node@U?$pair@$$CBKPAVCCtrl@@@std@@PAX@std@@@1@PAU?$_Tree_node@U?$pair@$$CBKPAVCCtrl@@@std@@PAX@1@$$QAU?$pair@KPAVCCtrl@@@1@@Z
	DD	2 DUP(00H)
	DD	2 DUP(00H)
	DD	00H
	DD	01H
xdata$x	ENDS
;	COMDAT xdata$x
xdata$x	SEGMENT
__unwindtable$??0?$_Tree_temp_node_alloc@V?$allocator@U?$_Tree_node@U?$pair@$$CBKPAVCCtrl@@@std@@PAX@std@@@std@@@std@@QAE@AAV?$allocator@U?$_Tree_node@U?$pair@$$CBKPAVCCtrl@@@std@@PAX@std@@@1@@Z DD 0ffffffffH
	DD	FLAT:__unwindfunclet$??0?$_Tree_temp_node_alloc@V?$allocator@U?$_Tree_node@U?$pair@$$CBKPAVCCtrl@@@std@@PAX@std@@@std@@@std@@QAE@AAV?$allocator@U?$_Tree_node@U?$pair@$$CBKPAVCCtrl@@@std@@PAX@std@@@1@@Z$0
__ehfuncinfo$??0?$_Tree_temp_node_alloc@V?$allocator@U?$_Tree_node@U?$pair@$$CBKPAVCCtrl@@@std@@PAX@std@@@std@@@std@@QAE@AAV?$allocator@U?$_Tree_node@U?$pair@$$CBKPAVCCtrl@@@std@@PAX@std@@@1@@Z DD 019930522H
	DD	01H
	DD	FLAT:__unwindtable$??0?$_Tree_temp_node_alloc@V?$allocator@U?$_Tree_node@U?$pair@$$CBKPAVCCtrl@@@std@@PAX@std@@@std@@@std@@QAE@AAV?$allocator@U?$_Tree_node@U?$pair@$$CBKPAVCCtrl@@@std@@PAX@std@@@1@@Z
	DD	2 DUP(00H)
	DD	2 DUP(00H)
	DD	00H
	DD	01H
xdata$x	ENDS
;	COMDAT xdata$x
xdata$x	SEGMENT
__unwindtable$??$_Emplace@U?$pair@KPAVCCtrl@@@std@@@?$_Tree@V?$_Tmap_traits@KPAVCCtrl@@U?$less@K@std@@V?$allocator@U?$pair@$$CBKPAVCCtrl@@@std@@@3@$0A@@std@@@std@@IAE?AU?$pair@PAU?$_Tree_node@U?$pair@$$CBKPAVCCtrl@@@std@@PAX@std@@_N@1@$$QAU?$pair@KPAVCCtrl@@@1@@Z DD 0ffffffffH
	DD	FLAT:__unwindfunclet$??$_Emplace@U?$pair@KPAVCCtrl@@@std@@@?$_Tree@V?$_Tmap_traits@KPAVCCtrl@@U?$less@K@std@@V?$allocator@U?$pair@$$CBKPAVCCtrl@@@std@@@3@$0A@@std@@@std@@IAE?AU?$pair@PAU?$_Tree_node@U?$pair@$$CBKPAVCCtrl@@@std@@PAX@std@@_N@1@$$QAU?$pair@KPAVCCtrl@@@1@@Z$2
__ehfuncinfo$??$_Emplace@U?$pair@KPAVCCtrl@@@std@@@?$_Tree@V?$_Tmap_traits@KPAVCCtrl@@U?$less@K@std@@V?$allocator@U?$pair@$$CBKPAVCCtrl@@@std@@@3@$0A@@std@@@std@@IAE?AU?$pair@PAU?$_Tree_node@U?$pair@$$CBKPAVCCtrl@@@std@@PAX@std@@_N@1@$$QAU?$pair@KPAVCCtrl@@@1@@Z DD 019930522H
	DD	01H
	DD	FLAT:__unwindtable$??$_Emplace@U?$pair@KPAVCCtrl@@@std@@@?$_Tree@V?$_Tmap_traits@KPAVCCtrl@@U?$less@K@std@@V?$allocator@U?$pair@$$CBKPAVCCtrl@@@std@@@3@$0A@@std@@@std@@IAE?AU?$pair@PAU?$_Tree_node@U?$pair@$$CBKPAVCCtrl@@@std@@PAX@std@@_N@1@$$QAU?$pair@KPAVCCtrl@@@1@@Z
	DD	2 DUP(00H)
	DD	2 DUP(00H)
	DD	00H
	DD	01H
xdata$x	ENDS
;	COMDAT xdata$x
xdata$x	SEGMENT
__unwindtable$??$emplace@U?$pair@KPAVCCtrl@@@std@@@?$_Tree@V?$_Tmap_traits@KPAVCCtrl@@U?$less@K@std@@V?$allocator@U?$pair@$$CBKPAVCCtrl@@@std@@@3@$0A@@std@@@std@@QAE?AU?$pair@V?$_Tree_iterator@V?$_Tree_val@U?$_Tree_simple_types@U?$pair@$$CBKPAVCCtrl@@@std@@@std@@@std@@@std@@_N@1@$$QAU?$pair@KPAVCCtrl@@@1@@Z DD 0ffffffffH
	DD	FLAT:__unwindfunclet$??$emplace@U?$pair@KPAVCCtrl@@@std@@@?$_Tree@V?$_Tmap_traits@KPAVCCtrl@@U?$less@K@std@@V?$allocator@U?$pair@$$CBKPAVCCtrl@@@std@@@3@$0A@@std@@@std@@QAE?AU?$pair@V?$_Tree_iterator@V?$_Tree_val@U?$_Tree_simple_types@U?$pair@$$CBKPAVCCtrl@@@std@@@std@@@std@@@std@@_N@1@$$QAU?$pair@KPAVCCtrl@@@1@@Z$2
__ehfuncinfo$??$emplace@U?$pair@KPAVCCtrl@@@std@@@?$_Tree@V?$_Tmap_traits@KPAVCCtrl@@U?$less@K@std@@V?$allocator@U?$pair@$$CBKPAVCCtrl@@@std@@@3@$0A@@std@@@std@@QAE?AU?$pair@V?$_Tree_iterator@V?$_Tree_val@U?$_Tree_simple_types@U?$pair@$$CBKPAVCCtrl@@@std@@@std@@@std@@@std@@_N@1@$$QAU?$pair@KPAVCCtrl@@@1@@Z DD 019930522H
	DD	01H
	DD	FLAT:__unwindtable$??$emplace@U?$pair@KPAVCCtrl@@@std@@@?$_Tree@V?$_Tmap_traits@KPAVCCtrl@@U?$less@K@std@@V?$allocator@U?$pair@$$CBKPAVCCtrl@@@std@@@3@$0A@@std@@@std@@QAE?AU?$pair@V?$_Tree_iterator@V?$_Tree_val@U?$_Tree_simple_types@U?$pair@$$CBKPAVCCtrl@@@std@@@std@@@std@@@std@@_N@1@$$QAU?$pair@KPAVCCtrl@@@1@@Z
	DD	2 DUP(00H)
	DD	2 DUP(00H)
	DD	00H
	DD	01H
xdata$x	ENDS
;	COMDAT xdata$x
xdata$x	SEGMENT
__unwindtable$??$insert@U?$pair@KPAVCCtrl@@@std@@$0A@@?$map@KPAVCCtrl@@U?$less@K@std@@V?$allocator@U?$pair@$$CBKPAVCCtrl@@@std@@@3@@std@@QAE?AU?$pair@V?$_Tree_iterator@V?$_Tree_val@U?$_Tree_simple_types@U?$pair@$$CBKPAVCCtrl@@@std@@@std@@@std@@@std@@_N@1@$$QAU?$pair@KPAVCCtrl@@@1@@Z DD 0ffffffffH
	DD	FLAT:__unwindfunclet$??$insert@U?$pair@KPAVCCtrl@@@std@@$0A@@?$map@KPAVCCtrl@@U?$less@K@std@@V?$allocator@U?$pair@$$CBKPAVCCtrl@@@std@@@3@@std@@QAE?AU?$pair@V?$_Tree_iterator@V?$_Tree_val@U?$_Tree_simple_types@U?$pair@$$CBKPAVCCtrl@@@std@@@std@@@std@@@std@@_N@1@$$QAU?$pair@KPAVCCtrl@@@1@@Z$2
__ehfuncinfo$??$insert@U?$pair@KPAVCCtrl@@@std@@$0A@@?$map@KPAVCCtrl@@U?$less@K@std@@V?$allocator@U?$pair@$$CBKPAVCCtrl@@@std@@@3@@std@@QAE?AU?$pair@V?$_Tree_iterator@V?$_Tree_val@U?$_Tree_simple_types@U?$pair@$$CBKPAVCCtrl@@@std@@@std@@@std@@@std@@_N@1@$$QAU?$pair@KPAVCCtrl@@@1@@Z DD 019930522H
	DD	01H
	DD	FLAT:__unwindtable$??$insert@U?$pair@KPAVCCtrl@@@std@@$0A@@?$map@KPAVCCtrl@@U?$less@K@std@@V?$allocator@U?$pair@$$CBKPAVCCtrl@@@std@@@3@@std@@QAE?AU?$pair@V?$_Tree_iterator@V?$_Tree_val@U?$_Tree_simple_types@U?$pair@$$CBKPAVCCtrl@@@std@@@std@@@std@@@std@@_N@1@$$QAU?$pair@KPAVCCtrl@@@1@@Z
	DD	2 DUP(00H)
	DD	2 DUP(00H)
	DD	00H
	DD	01H
xdata$x	ENDS
;	COMDAT xdata$x
xdata$x	SEGMENT
__unwindtable$?Add@CObjMap@@QAEHPAVCCtrl@@@Z DD 0ffffffffH
	DD	FLAT:__unwindfunclet$?Add@CObjMap@@QAEHPAVCCtrl@@@Z$0
	DD	0ffffffffH
	DD	FLAT:__unwindfunclet$?Add@CObjMap@@QAEHPAVCCtrl@@@Z$3
__ehfuncinfo$?Add@CObjMap@@QAEHPAVCCtrl@@@Z DD 019930522H
	DD	02H
	DD	FLAT:__unwindtable$?Add@CObjMap@@QAEHPAVCCtrl@@@Z
	DD	2 DUP(00H)
	DD	2 DUP(00H)
	DD	00H
	DD	01H
xdata$x	ENDS
;	COMDAT xdata$x
xdata$x	SEGMENT
__unwindtable$?GetId@CIdStack@@QAEKXZ DD 0ffffffffH
	DD	FLAT:__unwindfunclet$?GetId@CIdStack@@QAEKXZ$0
__ehfuncinfo$?GetId@CIdStack@@QAEKXZ DD 019930522H
	DD	01H
	DD	FLAT:__unwindtable$?GetId@CIdStack@@QAEKXZ
	DD	2 DUP(00H)
	DD	2 DUP(00H)
	DD	00H
	DD	01H
xdata$x	ENDS
;	COMDAT xdata$x
xdata$x	SEGMENT
__unwindtable$?DoApplySkillEx@CCtrl@@AAEHPAV1@PAUItemProp@@PAUAddSkillProp@@_NHHH@Z DD 0ffffffffH
	DD	FLAT:__unwindfunclet$?DoApplySkillEx@CCtrl@@AAEHPAV1@PAUItemProp@@PAUAddSkillProp@@_NHHH@Z$0
	DD	00H
	DD	FLAT:__unwindfunclet$?DoApplySkillEx@CCtrl@@AAEHPAV1@PAUItemProp@@PAUAddSkillProp@@_NHHH@Z$1
__ehfuncinfo$?DoApplySkillEx@CCtrl@@AAEHPAV1@PAUItemProp@@PAUAddSkillProp@@_NHHH@Z DD 019930522H
	DD	02H
	DD	FLAT:__unwindtable$?DoApplySkillEx@CCtrl@@AAEHPAV1@PAUItemProp@@PAUAddSkillProp@@_NHHH@Z
	DD	2 DUP(00H)
	DD	2 DUP(00H)
	DD	00H
	DD	01H
xdata$x	ENDS
;	COMDAT xdata$x
xdata$x	SEGMENT
__unwindtable$?AddItToGlobalId@CCtrl@@UAEXXZ DD 0ffffffffH
	DD	FLAT:__unwindfunclet$?AddItToGlobalId@CCtrl@@UAEXXZ$1
	DD	0ffffffffH
	DD	FLAT:__unwindfunclet$?AddItToGlobalId@CCtrl@@UAEXXZ$4
	DD	0ffffffffH
	DD	FLAT:__unwindfunclet$?AddItToGlobalId@CCtrl@@UAEXXZ$9
	DD	0ffffffffH
	DD	FLAT:__unwindfunclet$?AddItToGlobalId@CCtrl@@UAEXXZ$0
__ehfuncinfo$?AddItToGlobalId@CCtrl@@UAEXXZ DD 019930522H
	DD	04H
	DD	FLAT:__unwindtable$?AddItToGlobalId@CCtrl@@UAEXXZ
	DD	2 DUP(00H)
	DD	2 DUP(00H)
	DD	00H
	DD	01H
xdata$x	ENDS
;	COMDAT xdata$x
xdata$x	SEGMENT
__ehfuncinfo$??1CCtrl@@UAE@XZ DD 019930522H
	DD	00H
	DD	00H
	DD	2 DUP(00H)
	DD	2 DUP(00H)
	DD	00H
	DD	05H
xdata$x	ENDS
;	COMDAT xdata$x
xdata$x	SEGMENT
__unwindtable$??0CCtrl@@QAE@XZ DD 0ffffffffH
	DD	FLAT:__unwindfunclet$??0CCtrl@@QAE@XZ$0
__ehfuncinfo$??0CCtrl@@QAE@XZ DD 019930522H
	DD	01H
	DD	FLAT:__unwindtable$??0CCtrl@@QAE@XZ
	DD	2 DUP(00H)
	DD	2 DUP(00H)
	DD	00H
	DD	01H
xdata$x	ENDS
; Function compile flags: /Ogtp
; File C:\Program Files\Microsoft Visual Studio\2022\Professional\VC\Tools\MSVC\14.44.35207\include\xtree
; File C:\Program Files\Microsoft Visual Studio\2022\Professional\VC\Tools\MSVC\14.44.35207\include\utility
; File C:\Program Files\Microsoft Visual Studio\2022\Professional\VC\Tools\MSVC\14.44.35207\include\xtree
; File C:\Program Files\Microsoft Visual Studio\2022\Professional\VC\Tools\MSVC\14.44.35207\include\xmemory
; File C:\Program Files\Microsoft Visual Studio\2022\Professional\VC\Tools\MSVC\14.44.35207\include\xtree
; File C:\Program Files\Microsoft Visual Studio\2022\Professional\VC\Tools\MSVC\14.44.35207\include\xmemory
; File C:\Program Files\Microsoft Visual Studio\2022\Professional\VC\Tools\MSVC\14.44.35207\include\xtree
;	COMDAT ??$_Erase_tree@V?$allocator@U?$_Tree_node@U?$pair@$$CBV?$basic_string@DU?$char_traits@D@std@@V?$allocator@D@2@@std@@K@std@@PAX@std@@@std@@@?$_Tree_val@U?$_Tree_simple_types@U?$pair@$$CBV?$basic_string@DU?$char_traits@D@std@@V?$allocator@D@2@@std@@K@std@@@std@@@std@@QAEXAAV?$allocator@U?$_Tree_node@U?$pair@$$CBV?$basic_string@DU?$char_traits@D@std@@V?$allocator@D@2@@std@@K@std@@PAX@std@@@1@PAU?$_Tree_node@U?$pair@$$CBV?$basic_string@DU?$char_traits@D@std@@V?$allocator@D@2@@std@@K@std@@PAX@1@@Z
_TEXT	SEGMENT
_this$1$ = -4						; size = 4
__Al$ = 8						; size = 4
__Rootnode$ = 12					; size = 4
??$_Erase_tree@V?$allocator@U?$_Tree_node@U?$pair@$$CBV?$basic_string@DU?$char_traits@D@std@@V?$allocator@D@2@@std@@K@std@@PAX@std@@@std@@@?$_Tree_val@U?$_Tree_simple_types@U?$pair@$$CBV?$basic_string@DU?$char_traits@D@std@@V?$allocator@D@2@@std@@K@std@@@std@@@std@@QAEXAAV?$allocator@U?$_Tree_node@U?$pair@$$CBV?$basic_string@DU?$char_traits@D@std@@V?$allocator@D@2@@std@@K@std@@PAX@std@@@1@PAU?$_Tree_node@U?$pair@$$CBV?$basic_string@DU?$char_traits@D@std@@V?$allocator@D@2@@std@@K@std@@PAX@1@@Z PROC ; std::_Tree_val<std::_Tree_simple_types<std::pair<std::basic_string<char,std::char_traits<char>,std::allocator<char> > const ,unsigned long> > >::_Erase_tree<std::allocator<std::_Tree_node<std::pair<std::basic_string<char,std::char_traits<char>,std::allocator<char> > const ,unsigned long>,void *> > >, COMDAT
; _this$ = ecx

; 767  :     void _Erase_tree(_Alnode& _Al, _Nodeptr _Rootnode) noexcept {

  00000	55		 push	 ebp
  00001	8b ec		 mov	 ebp, esp
  00003	51		 push	 ecx
  00004	56		 push	 esi

; 768  :         while (!_Rootnode->_Isnil) { // free subtrees, then node

  00005	8b 75 0c	 mov	 esi, DWORD PTR __Rootnode$[ebp]
  00008	8b c1		 mov	 eax, ecx
  0000a	89 45 fc	 mov	 DWORD PTR _this$1$[ebp], eax
  0000d	80 7e 0d 00	 cmp	 BYTE PTR [esi+13], 0
  00011	75 32		 jne	 SHORT $LN45@Erase_tree
  00013	53		 push	 ebx
  00014	8b 5d 08	 mov	 ebx, DWORD PTR __Al$[ebp]
  00017	57		 push	 edi
$LL2@Erase_tree:

; 769  :             _Erase_tree(_Al, _Rootnode->_Right);

  00018	ff 76 08	 push	 DWORD PTR [esi+8]
  0001b	8b c8		 mov	 ecx, eax
  0001d	53		 push	 ebx
  0001e	e8 00 00 00 00	 call	 ??$_Erase_tree@V?$allocator@U?$_Tree_node@U?$pair@$$CBV?$basic_string@DU?$char_traits@D@std@@V?$allocator@D@2@@std@@K@std@@PAX@std@@@std@@@?$_Tree_val@U?$_Tree_simple_types@U?$pair@$$CBV?$basic_string@DU?$char_traits@D@std@@V?$allocator@D@2@@std@@K@std@@@std@@@std@@QAEXAAV?$allocator@U?$_Tree_node@U?$pair@$$CBV?$basic_string@DU?$char_traits@D@std@@V?$allocator@D@2@@std@@K@std@@PAX@std@@@1@PAU?$_Tree_node@U?$pair@$$CBV?$basic_string@DU?$char_traits@D@std@@V?$allocator@D@2@@std@@K@std@@PAX@1@@Z ; std::_Tree_val<std::_Tree_simple_types<std::pair<std::basic_string<char,std::char_traits<char>,std::allocator<char> > const ,unsigned long> > >::_Erase_tree<std::allocator<std::_Tree_node<std::pair<std::basic_string<char,std::char_traits<char>,std::allocator<char> > const ,unsigned long>,void *> > >
; File C:\Program Files\Microsoft Visual Studio\2022\Professional\VC\Tools\MSVC\14.44.35207\include\utility

; 773  :     _Ty _Old_val = static_cast<_Ty&&>(_Val);

  00023	8b fe		 mov	 edi, esi

; 774  :     _Val         = static_cast<_Other&&>(_New_val);

  00025	8b 36		 mov	 esi, DWORD PTR [esi]
; File C:\Program Files\Microsoft Visual Studio\2022\Professional\VC\Tools\MSVC\14.44.35207\include\xtree

; 381  :         allocator_traits<_Alloc>::destroy(_Al, _STD addressof(_Ptr->_Myval));

  00027	8d 4f 10	 lea	 ecx, DWORD PTR [edi+16]
  0002a	e8 00 00 00 00	 call	 ??1?$basic_string@DU?$char_traits@D@std@@V?$allocator@D@2@@std@@QAE@XZ ; std::basic_string<char,std::char_traits<char>,std::allocator<char> >::~basic_string<char,std::char_traits<char>,std::allocator<char> >
; File C:\Program Files\Microsoft Visual Studio\2022\Professional\VC\Tools\MSVC\14.44.35207\include\xmemory

; 289  :         ::operator delete(_Ptr, _Bytes);

  0002f	6a 2c		 push	 44			; 0000002cH
  00031	57		 push	 edi
  00032	e8 00 00 00 00	 call	 ??3@YAXPAXI@Z		; operator delete
; File C:\Program Files\Microsoft Visual Studio\2022\Professional\VC\Tools\MSVC\14.44.35207\include\xtree

; 768  :         while (!_Rootnode->_Isnil) { // free subtrees, then node

  00037	8b 45 fc	 mov	 eax, DWORD PTR _this$1$[ebp]
; File C:\Program Files\Microsoft Visual Studio\2022\Professional\VC\Tools\MSVC\14.44.35207\include\xmemory

; 289  :         ::operator delete(_Ptr, _Bytes);

  0003a	83 c4 08	 add	 esp, 8
; File C:\Program Files\Microsoft Visual Studio\2022\Professional\VC\Tools\MSVC\14.44.35207\include\xtree

; 768  :         while (!_Rootnode->_Isnil) { // free subtrees, then node

  0003d	80 7e 0d 00	 cmp	 BYTE PTR [esi+13], 0
  00041	74 d5		 je	 SHORT $LL2@Erase_tree
  00043	5f		 pop	 edi
  00044	5b		 pop	 ebx
$LN45@Erase_tree:
  00045	5e		 pop	 esi

; 770  :             _Alnode::value_type::_Freenode(_Al, _STD exchange(_Rootnode, _Rootnode->_Left));
; 771  :         }
; 772  :     }

  00046	8b e5		 mov	 esp, ebp
  00048	5d		 pop	 ebp
  00049	c2 08 00	 ret	 8
??$_Erase_tree@V?$allocator@U?$_Tree_node@U?$pair@$$CBV?$basic_string@DU?$char_traits@D@std@@V?$allocator@D@2@@std@@K@std@@PAX@std@@@std@@@?$_Tree_val@U?$_Tree_simple_types@U?$pair@$$CBV?$basic_string@DU?$char_traits@D@std@@V?$allocator@D@2@@std@@K@std@@@std@@@std@@QAEXAAV?$allocator@U?$_Tree_node@U?$pair@$$CBV?$basic_string@DU?$char_traits@D@std@@V?$allocator@D@2@@std@@K@std@@PAX@std@@@1@PAU?$_Tree_node@U?$pair@$$CBV?$basic_string@DU?$char_traits@D@std@@V?$allocator@D@2@@std@@K@std@@PAX@1@@Z ENDP ; std::_Tree_val<std::_Tree_simple_types<std::pair<std::basic_string<char,std::char_traits<char>,std::allocator<char> > const ,unsigned long> > >::_Erase_tree<std::allocator<std::_Tree_node<std::pair<std::basic_string<char,std::char_traits<char>,std::allocator<char> > const ,unsigned long>,void *> > >
_TEXT	ENDS
; Function compile flags: /Ogtp
; File C:\Program Files\Microsoft Visual Studio\2022\Professional\VC\Tools\MSVC\14.44.35207\include\xtree
; File C:\Program Files\Microsoft Visual Studio\2022\Professional\VC\Tools\MSVC\14.44.35207\include\utility
; File C:\Program Files\Microsoft Visual Studio\2022\Professional\VC\Tools\MSVC\14.44.35207\include\xmemory
; File C:\Program Files\Microsoft Visual Studio\2022\Professional\VC\Tools\MSVC\14.44.35207\include\xtree
;	COMDAT ??$_Erase_tree@V?$allocator@U?$_Tree_node@U?$pair@$$CBKPAVCMover@@@std@@PAX@std@@@std@@@?$_Tree_val@U?$_Tree_simple_types@U?$pair@$$CBKPAVCMover@@@std@@@std@@@std@@QAEXAAV?$allocator@U?$_Tree_node@U?$pair@$$CBKPAVCMover@@@std@@PAX@std@@@1@PAU?$_Tree_node@U?$pair@$$CBKPAVCMover@@@std@@PAX@1@@Z
_TEXT	SEGMENT
__Al$ = 8						; size = 4
__Rootnode$ = 12					; size = 4
??$_Erase_tree@V?$allocator@U?$_Tree_node@U?$pair@$$CBKPAVCMover@@@std@@PAX@std@@@std@@@?$_Tree_val@U?$_Tree_simple_types@U?$pair@$$CBKPAVCMover@@@std@@@std@@@std@@QAEXAAV?$allocator@U?$_Tree_node@U?$pair@$$CBKPAVCMover@@@std@@PAX@std@@@1@PAU?$_Tree_node@U?$pair@$$CBKPAVCMover@@@std@@PAX@1@@Z PROC ; std::_Tree_val<std::_Tree_simple_types<std::pair<unsigned long const ,CMover *> > >::_Erase_tree<std::allocator<std::_Tree_node<std::pair<unsigned long const ,CMover *>,void *> > >, COMDAT
; _this$ = ecx

; 767  :     void _Erase_tree(_Alnode& _Al, _Nodeptr _Rootnode) noexcept {

  00000	55		 push	 ebp
  00001	8b ec		 mov	 ebp, esp
  00003	53		 push	 ebx
  00004	56		 push	 esi

; 768  :         while (!_Rootnode->_Isnil) { // free subtrees, then node

  00005	8b 75 0c	 mov	 esi, DWORD PTR __Rootnode$[ebp]
  00008	8b d9		 mov	 ebx, ecx
  0000a	80 7e 0d 00	 cmp	 BYTE PTR [esi+13], 0
  0000e	75 25		 jne	 SHORT $LN34@Erase_tree
  00010	57		 push	 edi
  00011	8b 7d 08	 mov	 edi, DWORD PTR __Al$[ebp]
$LL2@Erase_tree:

; 769  :             _Erase_tree(_Al, _Rootnode->_Right);

  00014	ff 76 08	 push	 DWORD PTR [esi+8]
  00017	8b cb		 mov	 ecx, ebx
  00019	57		 push	 edi
  0001a	e8 00 00 00 00	 call	 ??$_Erase_tree@V?$allocator@U?$_Tree_node@U?$pair@$$CBKPAVCMover@@@std@@PAX@std@@@std@@@?$_Tree_val@U?$_Tree_simple_types@U?$pair@$$CBKPAVCMover@@@std@@@std@@@std@@QAEXAAV?$allocator@U?$_Tree_node@U?$pair@$$CBKPAVCMover@@@std@@PAX@std@@@1@PAU?$_Tree_node@U?$pair@$$CBKPAVCMover@@@std@@PAX@1@@Z ; std::_Tree_val<std::_Tree_simple_types<std::pair<unsigned long const ,CMover *> > >::_Erase_tree<std::allocator<std::_Tree_node<std::pair<unsigned long const ,CMover *>,void *> > >
; File C:\Program Files\Microsoft Visual Studio\2022\Professional\VC\Tools\MSVC\14.44.35207\include\utility

; 773  :     _Ty _Old_val = static_cast<_Ty&&>(_Val);

  0001f	8b c6		 mov	 eax, esi

; 774  :     _Val         = static_cast<_Other&&>(_New_val);

  00021	8b 36		 mov	 esi, DWORD PTR [esi]
; File C:\Program Files\Microsoft Visual Studio\2022\Professional\VC\Tools\MSVC\14.44.35207\include\xmemory

; 289  :         ::operator delete(_Ptr, _Bytes);

  00023	6a 18		 push	 24			; 00000018H
  00025	50		 push	 eax
  00026	e8 00 00 00 00	 call	 ??3@YAXPAXI@Z		; operator delete
  0002b	83 c4 08	 add	 esp, 8
; File C:\Program Files\Microsoft Visual Studio\2022\Professional\VC\Tools\MSVC\14.44.35207\include\xtree

; 768  :         while (!_Rootnode->_Isnil) { // free subtrees, then node

  0002e	80 7e 0d 00	 cmp	 BYTE PTR [esi+13], 0
  00032	74 e0		 je	 SHORT $LL2@Erase_tree
  00034	5f		 pop	 edi
$LN34@Erase_tree:
  00035	5e		 pop	 esi

; 770  :             _Alnode::value_type::_Freenode(_Al, _STD exchange(_Rootnode, _Rootnode->_Left));
; 771  :         }
; 772  :     }

  00036	5b		 pop	 ebx
  00037	5d		 pop	 ebp
  00038	c2 08 00	 ret	 8
??$_Erase_tree@V?$allocator@U?$_Tree_node@U?$pair@$$CBKPAVCMover@@@std@@PAX@std@@@std@@@?$_Tree_val@U?$_Tree_simple_types@U?$pair@$$CBKPAVCMover@@@std@@@std@@@std@@QAEXAAV?$allocator@U?$_Tree_node@U?$pair@$$CBKPAVCMover@@@std@@PAX@std@@@1@PAU?$_Tree_node@U?$pair@$$CBKPAVCMover@@@std@@PAX@1@@Z ENDP ; std::_Tree_val<std::_Tree_simple_types<std::pair<unsigned long const ,CMover *> > >::_Erase_tree<std::allocator<std::_Tree_node<std::pair<unsigned long const ,CMover *>,void *> > >
_TEXT	ENDS
; Function compile flags: /Ogtp
; File C:\Program Files\Microsoft Visual Studio\2022\Professional\VC\Tools\MSVC\14.44.35207\include\xmemory
;	COMDAT ??1?$_Alloc_construct_ptr@V?$allocator@U?$_Tree_node@U?$pair@$$CBKPAVCMover@@@std@@PAX@std@@@std@@@std@@QAE@XZ
_TEXT	SEGMENT
??1?$_Alloc_construct_ptr@V?$allocator@U?$_Tree_node@U?$pair@$$CBKPAVCMover@@@std@@PAX@std@@@std@@@std@@QAE@XZ PROC ; std::_Alloc_construct_ptr<std::allocator<std::_Tree_node<std::pair<unsigned long const ,CMover *>,void *> > >::~_Alloc_construct_ptr<std::allocator<std::_Tree_node<std::pair<unsigned long const ,CMover *>,void *> > >, COMDAT
; _this$ = ecx

; 1172 :         if (_Ptr) {

  00000	8b 41 04	 mov	 eax, DWORD PTR [ecx+4]
  00003	85 c0		 test	 eax, eax
  00005	74 0b		 je	 SHORT $LN10@Alloc_cons

; 289  :         ::operator delete(_Ptr, _Bytes);

  00007	6a 18		 push	 24			; 00000018H
  00009	50		 push	 eax
  0000a	e8 00 00 00 00	 call	 ??3@YAXPAXI@Z		; operator delete
  0000f	83 c4 08	 add	 esp, 8
$LN10@Alloc_cons:

; 1173 :             _Al.deallocate(_Ptr, 1);
; 1174 :         }
; 1175 :     }

  00012	c3		 ret	 0
??1?$_Alloc_construct_ptr@V?$allocator@U?$_Tree_node@U?$pair@$$CBKPAVCMover@@@std@@PAX@std@@@std@@@std@@QAE@XZ ENDP ; std::_Alloc_construct_ptr<std::allocator<std::_Tree_node<std::pair<unsigned long const ,CMover *>,void *> > >::~_Alloc_construct_ptr<std::allocator<std::_Tree_node<std::pair<unsigned long const ,CMover *>,void *> > >
_TEXT	ENDS
; Function compile flags: /Ogtp
; File C:\Program Files\Microsoft Visual Studio\2022\Professional\VC\Tools\MSVC\14.44.35207\include\xmemory
;	COMDAT ??1?$_Tree_temp_node_alloc@V?$allocator@U?$_Tree_node@U?$pair@$$CBV?$basic_string@DU?$char_traits@D@std@@V?$allocator@D@2@@std@@K@std@@PAX@std@@@std@@@std@@QAE@XZ
_TEXT	SEGMENT
??1?$_Tree_temp_node_alloc@V?$allocator@U?$_Tree_node@U?$pair@$$CBV?$basic_string@DU?$char_traits@D@std@@V?$allocator@D@2@@std@@K@std@@PAX@std@@@std@@@std@@QAE@XZ PROC ; std::_Tree_temp_node_alloc<std::allocator<std::_Tree_node<std::pair<std::basic_string<char,std::char_traits<char>,std::allocator<char> > const ,unsigned long>,void *> > >::~_Tree_temp_node_alloc<std::allocator<std::_Tree_node<std::pair<std::basic_string<char,std::char_traits<char>,std::allocator<char> > const ,unsigned long>,void *> > >, COMDAT
; _this$ = ecx

; 1172 :         if (_Ptr) {

  00000	8b 41 04	 mov	 eax, DWORD PTR [ecx+4]
  00003	85 c0		 test	 eax, eax
  00005	74 0b		 je	 SHORT $LN13@Tree_temp_

; 289  :         ::operator delete(_Ptr, _Bytes);

  00007	6a 2c		 push	 44			; 0000002cH
  00009	50		 push	 eax
  0000a	e8 00 00 00 00	 call	 ??3@YAXPAXI@Z		; operator delete
  0000f	83 c4 08	 add	 esp, 8
$LN13@Tree_temp_:
  00012	c3		 ret	 0
??1?$_Tree_temp_node_alloc@V?$allocator@U?$_Tree_node@U?$pair@$$CBV?$basic_string@DU?$char_traits@D@std@@V?$allocator@D@2@@std@@K@std@@PAX@std@@@std@@@std@@QAE@XZ ENDP ; std::_Tree_temp_node_alloc<std::allocator<std::_Tree_node<std::pair<std::basic_string<char,std::char_traits<char>,std::allocator<char> > const ,unsigned long>,void *> > >::~_Tree_temp_node_alloc<std::allocator<std::_Tree_node<std::pair<std::basic_string<char,std::char_traits<char>,std::allocator<char> > const ,unsigned long>,void *> > >
_TEXT	ENDS
; Function compile flags: /Ogtp
; File C:\Program Files\Microsoft Visual Studio\2022\Professional\VC\Tools\MSVC\14.44.35207\include\xmemory
;	COMDAT ??1?$_Alloc_construct_ptr@V?$allocator@U?$_Tree_node@U?$pair@$$CBV?$basic_string@DU?$char_traits@D@std@@V?$allocator@D@2@@std@@K@std@@PAX@std@@@std@@@std@@QAE@XZ
_TEXT	SEGMENT
??1?$_Alloc_construct_ptr@V?$allocator@U?$_Tree_node@U?$pair@$$CBV?$basic_string@DU?$char_traits@D@std@@V?$allocator@D@2@@std@@K@std@@PAX@std@@@std@@@std@@QAE@XZ PROC ; std::_Alloc_construct_ptr<std::allocator<std::_Tree_node<std::pair<std::basic_string<char,std::char_traits<char>,std::allocator<char> > const ,unsigned long>,void *> > >::~_Alloc_construct_ptr<std::allocator<std::_Tree_node<std::pair<std::basic_string<char,std::char_traits<char>,std::allocator<char> > const ,unsigned long>,void *> > >, COMDAT
; _this$ = ecx

; 1172 :         if (_Ptr) {

  00000	8b 41 04	 mov	 eax, DWORD PTR [ecx+4]
  00003	85 c0		 test	 eax, eax
  00005	74 0b		 je	 SHORT $LN10@Alloc_cons

; 289  :         ::operator delete(_Ptr, _Bytes);

  00007	6a 2c		 push	 44			; 0000002cH
  00009	50		 push	 eax
  0000a	e8 00 00 00 00	 call	 ??3@YAXPAXI@Z		; operator delete
  0000f	83 c4 08	 add	 esp, 8
$LN10@Alloc_cons:

; 1173 :             _Al.deallocate(_Ptr, 1);
; 1174 :         }
; 1175 :     }

  00012	c3		 ret	 0
??1?$_Alloc_construct_ptr@V?$allocator@U?$_Tree_node@U?$pair@$$CBV?$basic_string@DU?$char_traits@D@std@@V?$allocator@D@2@@std@@K@std@@PAX@std@@@std@@@std@@QAE@XZ ENDP ; std::_Alloc_construct_ptr<std::allocator<std::_Tree_node<std::pair<std::basic_string<char,std::char_traits<char>,std::allocator<char> > const ,unsigned long>,void *> > >::~_Alloc_construct_ptr<std::allocator<std::_Tree_node<std::pair<std::basic_string<char,std::char_traits<char>,std::allocator<char> > const ,unsigned long>,void *> > >
_TEXT	ENDS
; Function compile flags: /Ogtp
; File C:\Program Files\Microsoft Visual Studio\2022\Professional\VC\Tools\MSVC\14.44.35207\include\xtree
; File C:\Program Files\Microsoft Visual Studio\2022\Professional\VC\Tools\MSVC\14.44.35207\include\type_traits
; File C:\Program Files\Microsoft Visual Studio\2022\Professional\VC\Tools\MSVC\14.44.35207\include\xtree
; File C:\Program Files\Microsoft Visual Studio\2022\Professional\VC\Tools\MSVC\14.44.35207\include\type_traits
; File C:\Program Files\Microsoft Visual Studio\2022\Professional\VC\Tools\MSVC\14.44.35207\include\xtree
; File C:\Program Files\Microsoft Visual Studio\2022\Professional\VC\Tools\MSVC\14.44.35207\include\type_traits
; File C:\Program Files\Microsoft Visual Studio\2022\Professional\VC\Tools\MSVC\14.44.35207\include\xtree
; File C:\Program Files\Microsoft Visual Studio\2022\Professional\VC\Tools\MSVC\14.44.35207\include\utility
; File C:\Program Files\Microsoft Visual Studio\2022\Professional\VC\Tools\MSVC\14.44.35207\include\xtree
; File C:\Program Files\Microsoft Visual Studio\2022\Professional\VC\Tools\MSVC\14.44.35207\include\xmemory
; File C:\Program Files\Microsoft Visual Studio\2022\Professional\VC\Tools\MSVC\14.44.35207\include\xtree
; File C:\Program Files\Microsoft Visual Studio\2022\Professional\VC\Tools\MSVC\14.44.35207\include\xmemory
; File C:\Program Files\Microsoft Visual Studio\2022\Professional\VC\Tools\MSVC\14.44.35207\include\xstring
; File C:\Program Files\Microsoft Visual Studio\2022\Professional\VC\Tools\MSVC\14.44.35207\include\xtree
; File C:\Program Files\Microsoft Visual Studio\2022\Professional\VC\Tools\MSVC\14.44.35207\include\xstring
; File C:\Program Files\Microsoft Visual Studio\2022\Professional\VC\Tools\MSVC\14.44.35207\include\__msvc_string_view.hpp
; File C:\Program Files\Microsoft Visual Studio\2022\Professional\VC\Tools\MSVC\14.44.35207\include\xstring
; File C:\Program Files\Microsoft Visual Studio\2022\Professional\VC\Tools\MSVC\14.44.35207\include\xmemory
; File C:\Program Files\Microsoft Visual Studio\2022\Professional\VC\Tools\MSVC\14.44.35207\include\xstring
; File C:\Program Files\Microsoft Visual Studio\2022\Professional\VC\Tools\MSVC\14.44.35207\include\xmemory
; File C:\Program Files\Microsoft Visual Studio\2022\Professional\VC\Tools\MSVC\14.44.35207\include\xstring
; File C:\Program Files\Microsoft Visual Studio\2022\Professional\VC\Tools\MSVC\14.44.35207\include\__msvc_string_view.hpp
; File C:\Program Files\Microsoft Visual Studio\2022\Professional\VC\Tools\MSVC\14.44.35207\include\xstring
; File C:\Program Files\Microsoft Visual Studio\2022\Professional\VC\Tools\MSVC\14.44.35207\include\__msvc_string_view.hpp
; File C:\Program Files\Microsoft Visual Studio\2022\Professional\VC\Tools\MSVC\14.44.35207\include\xstring
; File C:\Program Files\Microsoft Visual Studio\2022\Professional\VC\Tools\MSVC\14.44.35207\include\__msvc_string_view.hpp
; File C:\Program Files\Microsoft Visual Studio\2022\Professional\VC\Tools\MSVC\14.44.35207\include\utility
; File C:\Program Files\Microsoft Visual Studio\2022\Professional\VC\Tools\MSVC\14.44.35207\include\xtree
; File C:\Program Files\Microsoft Visual Studio\2022\Professional\VC\Tools\MSVC\14.44.35207\include\utility
; File C:\Program Files\Microsoft Visual Studio\2022\Professional\VC\Tools\MSVC\14.44.35207\include\xtree
; File C:\Program Files\Microsoft Visual Studio\2022\Professional\VC\Tools\MSVC\14.44.35207\include\utility
; File C:\Program Files\Microsoft Visual Studio\2022\Professional\VC\Tools\MSVC\14.44.35207\include\xtree
; File C:\Program Files\Microsoft Visual Studio\2022\Professional\VC\Tools\MSVC\14.44.35207\include\utility
; File C:\Program Files\Microsoft Visual Studio\2022\Professional\VC\Tools\MSVC\14.44.35207\include\xtree
; File C:\Program Files\Microsoft Visual Studio\2022\Professional\VC\Tools\MSVC\14.44.35207\include\xstring
; File C:\Program Files\Microsoft Visual Studio\2022\Professional\VC\Tools\MSVC\14.44.35207\include\xtree
;	COMDAT ??$_Emplace@U?$pair@$$CBV?$basic_string@DU?$char_traits@D@std@@V?$allocator@D@2@@std@@K@std@@@?$_Tree@V?$_Tmap_traits@V?$basic_string@DU?$char_traits@D@std@@V?$allocator@D@2@@std@@KU?$less@V?$basic_string@DU?$char_traits@D@std@@V?$allocator@D@2@@std@@@2@V?$allocator@U?$pair@$$CBV?$basic_string@DU?$char_traits@D@std@@V?$allocator@D@2@@std@@K@std@@@2@$0A@@std@@@std@@IAE?AU?$pair@PAU?$_Tree_node@U?$pair@$$CBV?$basic_string@DU?$char_traits@D@std@@V?$allocator@D@2@@std@@K@std@@PAX@std@@_N@1@$$QAU?$pair@$$CBV?$basic_string@DU?$char_traits@D@std@@V?$allocator@D@2@@std@@K@1@@Z
_TEXT	SEGMENT
$T3 = -44						; size = 8
__Myhead$1$ = -36					; size = 4
_this$1$ = -32						; size = 4
__Loc$1$ = -28						; size = 4
__Result$1$ = -24					; size = 4
__Count$1$ = -20					; size = 4
$T4 = -16						; size = 4
$T1$sroa$515$1$ = -16					; size = 4
__$EHRec$ = -12						; size = 12
___$ReturnUdt$ = 8					; size = 4
_<_Vals_0>$ = 12					; size = 4
??$_Emplace@U?$pair@$$CBV?$basic_string@DU?$char_traits@D@std@@V?$allocator@D@2@@std@@K@std@@@?$_Tree@V?$_Tmap_traits@V?$basic_string@DU?$char_traits@D@std@@V?$allocator@D@2@@std@@KU?$less@V?$basic_string@DU?$char_traits@D@std@@V?$allocator@D@2@@std@@@2@V?$allocator@U?$pair@$$CBV?$basic_string@DU?$char_traits@D@std@@V?$allocator@D@2@@std@@K@std@@@2@$0A@@std@@@std@@IAE?AU?$pair@PAU?$_Tree_node@U?$pair@$$CBV?$basic_string@DU?$char_traits@D@std@@V?$allocator@D@2@@std@@K@std@@PAX@std@@_N@1@$$QAU?$pair@$$CBV?$basic_string@DU?$char_traits@D@std@@V?$allocator@D@2@@std@@K@1@@Z PROC ; std::_Tree<std::_Tmap_traits<std::basic_string<char,std::char_traits<char>,std::allocator<char> >,unsigned long,std::less<std::basic_string<char,std::char_traits<char>,std::allocator<char> > >,std::allocator<std::pair<std::basic_string<char,std::char_traits<char>,std::allocator<char> > const ,unsigned long> >,0> >::_Emplace<std::pair<std::basic_string<char,std::char_traits<char>,std::allocator<char> > const ,unsigned long> >, COMDAT
; _this$ = ecx

; 1010 :     pair<_Nodeptr, bool> _Emplace(_Valtys&&... _Vals) {

  00000	55		 push	 ebp
  00001	8b ec		 mov	 ebp, esp
  00003	6a ff		 push	 -1
  00005	68 00 00 00 00	 push	 __ehhandler$??$_Emplace@U?$pair@$$CBV?$basic_string@DU?$char_traits@D@std@@V?$allocator@D@2@@std@@K@std@@@?$_Tree@V?$_Tmap_traits@V?$basic_string@DU?$char_traits@D@std@@V?$allocator@D@2@@std@@KU?$less@V?$basic_string@DU?$char_traits@D@std@@V?$allocator@D@2@@std@@@2@V?$allocator@U?$pair@$$CBV?$basic_string@DU?$char_traits@D@std@@V?$allocator@D@2@@std@@K@std@@@2@$0A@@std@@@std@@IAE?AU?$pair@PAU?$_Tree_node@U?$pair@$$CBV?$basic_string@DU?$char_traits@D@std@@V?$allocator@D@2@@std@@K@std@@PAX@std@@_N@1@$$QAU?$pair@$$CBV?$basic_string@DU?$char_traits@D@std@@V?$allocator@D@2@@std@@K@1@@Z
  0000a	64 a1 00 00 00
	00		 mov	 eax, DWORD PTR fs:0
  00010	50		 push	 eax
  00011	83 ec 20	 sub	 esp, 32			; 00000020H
  00014	56		 push	 esi
  00015	57		 push	 edi
  00016	a1 00 00 00 00	 mov	 eax, DWORD PTR ___security_cookie
  0001b	33 c5		 xor	 eax, ebp
  0001d	50		 push	 eax
  0001e	8d 45 f4	 lea	 eax, DWORD PTR __$EHRec$[ebp]
  00021	64 a3 00 00 00
	00		 mov	 DWORD PTR fs:0, eax
  00027	8b f1		 mov	 esi, ecx
  00029	89 75 e0	 mov	 DWORD PTR _this$1$[ebp], esi

; 1630 :         _Tree_find_result<_Nodeptr> _Result{{_Scary->_Myhead->_Parent, _Tree_child::_Right}, _Scary->_Myhead};

  0002c	8b 06		 mov	 eax, DWORD PTR [esi]
  0002e	33 ff		 xor	 edi, edi
  00030	89 45 dc	 mov	 DWORD PTR __Myhead$1$[ebp], eax
  00033	89 45 f0	 mov	 DWORD PTR $T1$sroa$515$1$[ebp], eax
  00036	8b 48 04	 mov	 ecx, DWORD PTR [eax+4]
  00039	89 4d e4	 mov	 DWORD PTR __Loc$1$[ebp], ecx

; 1631 :         _Nodeptr _Trynode = _Result._Location._Parent;
; 1632 :         while (!_Trynode->_Isnil) {

  0003c	80 79 0d 00	 cmp	 BYTE PTR [ecx+13], 0
  00040	75 37		 jne	 SHORT $LN7@Emplace
  00042	8b f1		 mov	 esi, ecx
$LL6@Emplace:
; File C:\Program Files\Microsoft Visual Studio\2022\Professional\VC\Tools\MSVC\14.44.35207\include\type_traits

; 2380 :         return _Left < _Right;

  00044	ff 75 0c	 push	 DWORD PTR _<_Vals_0>$[ebp]
; File C:\Program Files\Microsoft Visual Studio\2022\Professional\VC\Tools\MSVC\14.44.35207\include\xtree

; 1634 :             if (_DEBUG_LT_PRED(_Getcomp(), _Traits::_Kfn(_Trynode->_Myval), _Keyval)) {

  00047	8d 46 10	 lea	 eax, DWORD PTR [esi+16]
  0004a	89 75 e4	 mov	 DWORD PTR __Loc$1$[ebp], esi
; File C:\Program Files\Microsoft Visual Studio\2022\Professional\VC\Tools\MSVC\14.44.35207\include\type_traits

; 2380 :         return _Left < _Right;

  0004d	50		 push	 eax
  0004e	e8 00 00 00 00	 call	 ??$?MDU?$char_traits@D@std@@V?$allocator@D@1@@std@@YA_NABV?$basic_string@DU?$char_traits@D@std@@V?$allocator@D@2@@0@0@Z ; std::operator<<char,std::char_traits<char>,std::allocator<char> >
  00053	83 c4 08	 add	 esp, 8
; File C:\Program Files\Microsoft Visual Studio\2022\Professional\VC\Tools\MSVC\14.44.35207\include\xtree

; 1634 :             if (_DEBUG_LT_PRED(_Getcomp(), _Traits::_Kfn(_Trynode->_Myval), _Keyval)) {

  00056	84 c0		 test	 al, al
  00058	74 0a		 je	 SHORT $LN8@Emplace

; 1635 :                 _Result._Location._Child = _Tree_child::_Right;
; 1636 :                 _Trynode                 = _Trynode->_Right;

  0005a	8b 76 08	 mov	 esi, DWORD PTR [esi+8]
  0005d	33 ff		 xor	 edi, edi

; 1637 :             } else {

  0005f	8b 45 f0	 mov	 eax, DWORD PTR $T1$sroa$515$1$[ebp]
  00062	eb 0c		 jmp	 SHORT $LN9@Emplace
$LN8@Emplace:

; 1638 :                 _Result._Location._Child = _Tree_child::_Left;
; 1639 :                 _Result._Bound           = _Trynode;

  00064	8b c6		 mov	 eax, esi
  00066	bf 01 00 00 00	 mov	 edi, 1

; 1640 :                 _Trynode                 = _Trynode->_Left;

  0006b	8b 36		 mov	 esi, DWORD PTR [esi]
  0006d	89 45 f0	 mov	 DWORD PTR $T1$sroa$515$1$[ebp], eax
$LN9@Emplace:

; 1631 :         _Nodeptr _Trynode = _Result._Location._Parent;
; 1632 :         while (!_Trynode->_Isnil) {

  00070	80 7e 0d 00	 cmp	 BYTE PTR [esi+13], 0
  00074	74 ce		 je	 SHORT $LL6@Emplace
  00076	8b 75 e0	 mov	 esi, DWORD PTR _this$1$[ebp]
$LN7@Emplace:

; 1624 :         return !_Bound->_Isnil && !_DEBUG_LT_PRED(_Getcomp(), _Keyval, _Traits::_Kfn(_Bound->_Myval));

  00079	80 78 0d 00	 cmp	 BYTE PTR [eax+13], 0
  0007d	75 32		 jne	 SHORT $LN2@Emplace
  0007f	83 c0 10	 add	 eax, 16			; 00000010H
; File C:\Program Files\Microsoft Visual Studio\2022\Professional\VC\Tools\MSVC\14.44.35207\include\type_traits

; 2380 :         return _Left < _Right;

  00082	50		 push	 eax
  00083	ff 75 0c	 push	 DWORD PTR _<_Vals_0>$[ebp]
  00086	e8 00 00 00 00	 call	 ??$?MDU?$char_traits@D@std@@V?$allocator@D@1@@std@@YA_NABV?$basic_string@DU?$char_traits@D@std@@V?$allocator@D@2@@0@0@Z ; std::operator<<char,std::char_traits<char>,std::allocator<char> >
  0008b	83 c4 08	 add	 esp, 8
; File C:\Program Files\Microsoft Visual Studio\2022\Professional\VC\Tools\MSVC\14.44.35207\include\xtree

; 1624 :         return !_Bound->_Isnil && !_DEBUG_LT_PRED(_Getcomp(), _Keyval, _Traits::_Kfn(_Bound->_Myval));

  0008e	84 c0		 test	 al, al
  00090	75 1f		 jne	 SHORT $LN2@Emplace
; File C:\Program Files\Microsoft Visual Studio\2022\Professional\VC\Tools\MSVC\14.44.35207\include\utility

; 274  :         : first(_STD forward<_Other1>(_Val1)), second(_STD forward<_Other2>(_Val2)) {

  00092	8b 45 08	 mov	 eax, DWORD PTR ___$ReturnUdt$[ebp]
  00095	8b 4d f0	 mov	 ecx, DWORD PTR $T1$sroa$515$1$[ebp]
  00098	89 08		 mov	 DWORD PTR [eax], ecx
  0009a	c6 40 04 00	 mov	 BYTE PTR [eax+4], 0
; File C:\Program Files\Microsoft Visual Studio\2022\Professional\VC\Tools\MSVC\14.44.35207\include\xtree

; 1043 :     }

  0009e	8b 4d f4	 mov	 ecx, DWORD PTR __$EHRec$[ebp]
  000a1	64 89 0d 00 00
	00 00		 mov	 DWORD PTR fs:0, ecx
  000a8	59		 pop	 ecx
  000a9	5f		 pop	 edi
  000aa	5e		 pop	 esi
  000ab	8b e5		 mov	 esp, ebp
  000ad	5d		 pop	 ebp
  000ae	c2 08 00	 ret	 8
$LN2@Emplace:

; 1648 :         if (max_size() == _Get_scary()->_Mysize) {

  000b1	81 7e 04 5d 74
	d1 05		 cmp	 DWORD PTR [esi+4], 97612893 ; 05d1745dH
  000b8	0f 84 2c 01 00
	00		 je	 $LN207@Emplace
; File C:\Program Files\Microsoft Visual Studio\2022\Professional\VC\Tools\MSVC\14.44.35207\include\xmemory

; 1160 :     _CONSTEXPR20 explicit _Alloc_construct_ptr(_Alloc& _Al_) : _Al(_Al_), _Ptr(nullptr) {}

  000be	89 75 d4	 mov	 DWORD PTR $T3[ebp], esi

; 136  :         return ::operator new(_Bytes);

  000c1	6a 2c		 push	 44			; 0000002cH
; File C:\Program Files\Microsoft Visual Studio\2022\Professional\VC\Tools\MSVC\14.44.35207\include\xtree

; 808  :     explicit _Tree_temp_node_alloc(_Alnode& _Al_) : _Alloc_construct_ptr<_Alnode>(_Al_) {

  000c3	c7 45 fc 00 00
	00 00		 mov	 DWORD PTR __$EHRec$[ebp+8], 0
; File C:\Program Files\Microsoft Visual Studio\2022\Professional\VC\Tools\MSVC\14.44.35207\include\xmemory

; 1167 :         _Ptr = nullptr; // if allocate throws, prevents double-free

  000ca	c7 45 d8 00 00
	00 00		 mov	 DWORD PTR $T3[ebp+4], 0

; 136  :         return ::operator new(_Bytes);

  000d1	e8 00 00 00 00	 call	 ??2@YAPAXI@Z		; operator new

; 256  :         return _Traits::_Allocate(_Bytes);

  000d6	8b f0		 mov	 esi, eax

; 136  :         return ::operator new(_Bytes);

  000d8	83 c4 04	 add	 esp, 4

; 1168 :         _Ptr = _Al.allocate(1);

  000db	89 75 d8	 mov	 DWORD PTR $T3[ebp+4], esi
; File C:\Program Files\Microsoft Visual Studio\2022\Professional\VC\Tools\MSVC\14.44.35207\include\xstring

; 444  :         const value_type* _Result = _Bx._Buf;

  000de	8b 45 0c	 mov	 eax, DWORD PTR _<_Vals_0>$[ebp]
  000e1	0f 57 c0	 xorps	 xmm0, xmm0

; 493  :         _CONSTEXPR20 _Bxty() noexcept : _Buf() {} // user-provided, for fancy pointers

  000e4	0f 11 46 10	 movups	 XMMWORD PTR [esi+16], xmm0

; 517  :     size_type _Mysize = 0; // current length of string (size)

  000e8	c7 46 20 00 00
	00 00		 mov	 DWORD PTR [esi+32], 0

; 444  :         const value_type* _Result = _Bx._Buf;

  000ef	8b d0		 mov	 edx, eax

; 518  :     size_type _Myres  = 0; // current storage reserved for string (capacity)

  000f1	c7 46 24 00 00
	00 00		 mov	 DWORD PTR [esi+36], 0

; 453  :         return _Myres > _Small_string_capacity;

  000f8	83 78 14 0f	 cmp	 DWORD PTR [eax+20], 15	; 0000000fH
; File C:\Program Files\Microsoft Visual Studio\2022\Professional\VC\Tools\MSVC\14.44.35207\include\xtree

; 829  :         : _Tree_temp_node_alloc<_Alnode>(_Al_) {

  000fc	c7 45 fc 01 00
	00 00		 mov	 DWORD PTR __$EHRec$[ebp+8], 1
; File C:\Program Files\Microsoft Visual Studio\2022\Professional\VC\Tools\MSVC\14.44.35207\include\xstring

; 444  :         const value_type* _Result = _Bx._Buf;

  00103	89 45 e8	 mov	 DWORD PTR __Result$1$[ebp], eax

; 445  :         if (_Large_mode_engaged()) {

  00106	76 05		 jbe	 SHORT $LN74@Emplace

; 446  :             _Result = _Unfancy(_Bx._Ptr);

  00108	8b 10		 mov	 edx, DWORD PTR [eax]
  0010a	89 55 e8	 mov	 DWORD PTR __Result$1$[ebp], edx
$LN74@Emplace:

; 718  :         _Construct<_Construct_strategy::_From_string>(_Right._Mypair._Myval2._Myptr(), _Right._Mypair._Myval2._Mysize);

  0010d	8b 48 10	 mov	 ecx, DWORD PTR [eax+16]
  00110	89 4d ec	 mov	 DWORD PTR __Count$1$[ebp], ecx

; 881  :         if (_Count > max_size()) {

  00113	81 f9 ff ff ff
	7f		 cmp	 ecx, 2147483647		; 7fffffffH
  00119	0f 87 d0 00 00
	00		 ja	 $LN208@Emplace

; 883  :         }
; 884  : 
; 885  :         auto& _Al       = _Getal();
; 886  :         auto&& _Alproxy = _GET_PROXY_ALLOCATOR(_Alty, _Al);
; 887  :         _Container_proxy_ptr<_Alty> _Proxy(_Alproxy, _My_data);
; 888  : 
; 889  :         if (_Count <= _Small_string_capacity) {

  0011f	83 f9 0f	 cmp	 ecx, 15			; 0000000fH
  00122	77 13		 ja	 SHORT $LN82@Emplace

; 890  :             _My_data._Mysize = _Count;

  00124	89 4e 20	 mov	 DWORD PTR [esi+32], ecx

; 891  :             _My_data._Myres  = _Small_string_capacity;

  00127	c7 46 24 0f 00
	00 00		 mov	 DWORD PTR [esi+36], 15	; 0000000fH
; File C:\Program Files\Microsoft Visual Studio\2022\Professional\VC\Tools\MSVC\14.44.35207\include\__msvc_string_view.hpp

; 121  :         _CSTD memcpy(_First1, _First2, _Count * sizeof(_Elem));

  0012e	0f 10 02	 movups	 xmm0, XMMWORD PTR [edx]
  00131	0f 11 46 10	 movups	 XMMWORD PTR [esi+16], xmm0
; File C:\Program Files\Microsoft Visual Studio\2022\Professional\VC\Tools\MSVC\14.44.35207\include\xstring

; 908  :             return;

  00135	eb 71		 jmp	 SHORT $LN108@Emplace
$LN82@Emplace:

; 2978 :         const size_type _Masked = _Requested | _Alloc_mask;

  00137	8b c1		 mov	 eax, ecx
  00139	83 c8 0f	 or	 eax, 15			; 0000000fH
  0013c	3d ff ff ff 7f	 cmp	 eax, 2147483647		; 7fffffffH

; 2979 :         if (_Masked > _Max) { // the mask overflows, settle for max_size()

  00141	76 14		 jbe	 SHORT $LN88@Emplace

; 2980 :             return _Max;

  00143	ba 00 00 00 80	 mov	 edx, -2147483648	; 80000000H
  00148	c7 45 f0 ff ff
	ff 7f		 mov	 DWORD PTR $T4[ebp], 2147483647 ; 7fffffffH
; File C:\Program Files\Microsoft Visual Studio\2022\Professional\VC\Tools\MSVC\14.44.35207\include\xmemory

; 253  :             return _Allocate_manually_vector_aligned<_Traits>(_Bytes);

  0014f	52		 push	 edx
  00150	e8 00 00 00 00	 call	 ??$_Allocate_manually_vector_aligned@U_Default_allocate_traits@std@@@std@@YAPAXI@Z ; std::_Allocate_manually_vector_aligned<std::_Default_allocate_traits>
  00155	eb 2a		 jmp	 SHORT $LN205@Emplace
$LN88@Emplace:
; File C:\Program Files\Microsoft Visual Studio\2022\Professional\VC\Tools\MSVC\14.44.35207\include\xstring

; 2987 :         return (_STD max)(_Masked, _Old + _Old / 2);

  00157	ba 16 00 00 00	 mov	 edx, 22			; 00000016H
  0015c	3b c2		 cmp	 eax, edx
  0015e	0f 42 c2	 cmovb	 eax, edx
  00161	89 45 f0	 mov	 DWORD PTR $T4[ebp], eax

; 825  :         ++_Capacity; // Take null terminator into consideration

  00164	8d 50 01	 lea	 edx, DWORD PTR [eax+1]
; File C:\Program Files\Microsoft Visual Studio\2022\Professional\VC\Tools\MSVC\14.44.35207\include\xmemory

; 227  :     if (_Bytes == 0) {

  00167	85 d2		 test	 edx, edx
  00169	74 21		 je	 SHORT $LN101@Emplace
$LN102@Emplace:

; 228  :         return nullptr;
; 229  :     }
; 230  : 
; 231  : #if _HAS_CXX20 // TRANSITION, GH-1532
; 232  :     if (_STD is_constant_evaluated()) {
; 233  :         return _Traits::_Allocate(_Bytes);
; 234  :     }
; 235  : #endif // _HAS_CXX20
; 236  : 
; 237  : #ifdef __cpp_aligned_new
; 238  :     if constexpr (_Align > __STDCPP_DEFAULT_NEW_ALIGNMENT__) {
; 239  :         size_t _Passed_align = _Align;
; 240  : #if defined(_M_IX86) || defined(_M_X64)
; 241  :         if (_Bytes >= _Big_allocation_threshold) {
; 242  :             // boost the alignment of big allocations to help autovectorization
; 243  :             _Passed_align = (_STD max)(_Align, _Big_allocation_alignment);
; 244  :         }
; 245  : #endif // defined(_M_IX86) || defined(_M_X64)
; 246  :         return _Traits::_Allocate_aligned(_Bytes, _Passed_align);
; 247  :     } else
; 248  : #endif // defined(__cpp_aligned_new)
; 249  :     {
; 250  : #if defined(_M_IX86) || defined(_M_X64)
; 251  :         if (_Bytes >= _Big_allocation_threshold) {

  0016b	81 fa 00 10 00
	00		 cmp	 edx, 4096		; 00001000H
  00171	72 08		 jb	 SHORT $LN103@Emplace

; 253  :             return _Allocate_manually_vector_aligned<_Traits>(_Bytes);

  00173	52		 push	 edx
  00174	e8 00 00 00 00	 call	 ??$_Allocate_manually_vector_aligned@U_Default_allocate_traits@std@@@std@@YAPAXI@Z ; std::_Allocate_manually_vector_aligned<std::_Default_allocate_traits>
  00179	eb 06		 jmp	 SHORT $LN205@Emplace
$LN103@Emplace:

; 136  :         return ::operator new(_Bytes);

  0017b	52		 push	 edx
  0017c	e8 00 00 00 00	 call	 ??2@YAPAXI@Z		; operator new
$LN205@Emplace:
; File C:\Program Files\Microsoft Visual Studio\2022\Professional\VC\Tools\MSVC\14.44.35207\include\xstring

; 913  :         _Construct_in_place(_My_data._Bx._Ptr, _New_ptr);

  00181	8b 4d ec	 mov	 ecx, DWORD PTR __Count$1$[ebp]
  00184	8b d0		 mov	 edx, eax
  00186	8b 45 f0	 mov	 eax, DWORD PTR $T4[ebp]
  00189	83 c4 04	 add	 esp, 4
$LN101@Emplace:

; 916  :         _My_data._Myres  = _New_capacity;

  0018c	89 46 24	 mov	 DWORD PTR [esi+36], eax

; 917  :         if constexpr (_Strat == _Construct_strategy::_From_char) {
; 918  :             _Traits::assign(_Unfancy(_New_ptr), _Count, _Arg);
; 919  :             _Traits::assign(_Unfancy(_New_ptr)[_Count], _Elem());
; 920  :         } else if constexpr (_Strat == _Construct_strategy::_From_ptr) {
; 921  :             _Traits::copy(_Unfancy(_New_ptr), _Arg, _Count);
; 922  :             _Traits::assign(_Unfancy(_New_ptr)[_Count], _Elem());
; 923  :         } else { // _Strat == _Construct_strategy::_From_string
; 924  :             _Traits::copy(_Unfancy(_New_ptr), _Arg, _Count + 1);

  0018f	8d 41 01	 lea	 eax, DWORD PTR [ecx+1]
; File C:\Program Files\Microsoft Visual Studio\2022\Professional\VC\Tools\MSVC\14.44.35207\include\__msvc_string_view.hpp

; 121  :         _CSTD memcpy(_First1, _First2, _Count * sizeof(_Elem));

  00192	50		 push	 eax
  00193	ff 75 e8	 push	 DWORD PTR __Result$1$[ebp]
; File C:\Program Files\Microsoft Visual Studio\2022\Professional\VC\Tools\MSVC\14.44.35207\include\xstring

; 913  :         _Construct_in_place(_My_data._Bx._Ptr, _New_ptr);

  00196	89 56 10	 mov	 DWORD PTR [esi+16], edx
; File C:\Program Files\Microsoft Visual Studio\2022\Professional\VC\Tools\MSVC\14.44.35207\include\__msvc_string_view.hpp

; 121  :         _CSTD memcpy(_First1, _First2, _Count * sizeof(_Elem));

  00199	52		 push	 edx
; File C:\Program Files\Microsoft Visual Studio\2022\Professional\VC\Tools\MSVC\14.44.35207\include\xstring

; 915  :         _My_data._Mysize = _Count;

  0019a	89 4e 20	 mov	 DWORD PTR [esi+32], ecx
; File C:\Program Files\Microsoft Visual Studio\2022\Professional\VC\Tools\MSVC\14.44.35207\include\__msvc_string_view.hpp

; 121  :         _CSTD memcpy(_First1, _First2, _Count * sizeof(_Elem));

  0019d	e8 00 00 00 00	 call	 _memcpy
  001a2	8b 45 0c	 mov	 eax, DWORD PTR _<_Vals_0>$[ebp]
  001a5	83 c4 0c	 add	 esp, 12			; 0000000cH
$LN108@Emplace:
; File C:\Program Files\Microsoft Visual Studio\2022\Professional\VC\Tools\MSVC\14.44.35207\include\utility

; 278  :     pair(pair&&)      = default;

  001a8	8b 40 18	 mov	 eax, DWORD PTR [eax+24]
; File C:\Program Files\Microsoft Visual Studio\2022\Professional\VC\Tools\MSVC\14.44.35207\include\xtree

; 1042 :         return {_Scary->_Insert_node(_Loc._Location, _Inserted), true};

  001ab	8b 4d e0	 mov	 ecx, DWORD PTR _this$1$[ebp]
; File C:\Program Files\Microsoft Visual Studio\2022\Professional\VC\Tools\MSVC\14.44.35207\include\utility

; 278  :     pair(pair&&)      = default;

  001ae	89 46 28	 mov	 DWORD PTR [esi+40], eax
; File C:\Program Files\Microsoft Visual Studio\2022\Professional\VC\Tools\MSVC\14.44.35207\include\xtree

; 831  :         _Construct_in_place(this->_Ptr->_Left, _Myhead);

  001b1	8b 45 dc	 mov	 eax, DWORD PTR __Myhead$1$[ebp]

; 1042 :         return {_Scary->_Insert_node(_Loc._Location, _Inserted), true};

  001b4	56		 push	 esi

; 831  :         _Construct_in_place(this->_Ptr->_Left, _Myhead);

  001b5	89 06		 mov	 DWORD PTR [esi], eax

; 1042 :         return {_Scary->_Insert_node(_Loc._Location, _Inserted), true};

  001b7	57		 push	 edi
  001b8	ff 75 e4	 push	 DWORD PTR __Loc$1$[ebp]

; 832  :         _Construct_in_place(this->_Ptr->_Parent, _Myhead);

  001bb	89 46 04	 mov	 DWORD PTR [esi+4], eax

; 833  :         _Construct_in_place(this->_Ptr->_Right, _Myhead);

  001be	89 46 08	 mov	 DWORD PTR [esi+8], eax

; 834  :         this->_Ptr->_Color = _Red;

  001c1	66 c7 46 0c 00
	00		 mov	 WORD PTR [esi+12], 0

; 1042 :         return {_Scary->_Insert_node(_Loc._Location, _Inserted), true};

  001c7	e8 00 00 00 00	 call	 ?_Insert_node@?$_Tree_val@U?$_Tree_simple_types@U?$pair@$$CBV?$basic_string@DU?$char_traits@D@std@@V?$allocator@D@2@@std@@K@std@@@std@@@std@@QAEPAU?$_Tree_node@U?$pair@$$CBV?$basic_string@DU?$char_traits@D@std@@V?$allocator@D@2@@std@@K@std@@PAX@2@U?$_Tree_id@PAU?$_Tree_node@U?$pair@$$CBV?$basic_string@DU?$char_traits@D@std@@V?$allocator@D@2@@std@@K@std@@PAX@std@@@2@QAU32@@Z ; std::_Tree_val<std::_Tree_simple_types<std::pair<std::basic_string<char,std::char_traits<char>,std::allocator<char> > const ,unsigned long> > >::_Insert_node
; File C:\Program Files\Microsoft Visual Studio\2022\Professional\VC\Tools\MSVC\14.44.35207\include\utility

; 274  :         : first(_STD forward<_Other1>(_Val1)), second(_STD forward<_Other2>(_Val2)) {

  001cc	8b 4d 08	 mov	 ecx, DWORD PTR ___$ReturnUdt$[ebp]
  001cf	89 01		 mov	 DWORD PTR [ecx], eax
; File C:\Program Files\Microsoft Visual Studio\2022\Professional\VC\Tools\MSVC\14.44.35207\include\xtree

; 1042 :         return {_Scary->_Insert_node(_Loc._Location, _Inserted), true};

  001d1	8b c1		 mov	 eax, ecx
; File C:\Program Files\Microsoft Visual Studio\2022\Professional\VC\Tools\MSVC\14.44.35207\include\utility

; 274  :         : first(_STD forward<_Other1>(_Val1)), second(_STD forward<_Other2>(_Val2)) {

  001d3	c6 41 04 01	 mov	 BYTE PTR [ecx+4], 1
; File C:\Program Files\Microsoft Visual Studio\2022\Professional\VC\Tools\MSVC\14.44.35207\include\xtree

; 1043 :     }

  001d7	8b 4d f4	 mov	 ecx, DWORD PTR __$EHRec$[ebp]
  001da	64 89 0d 00 00
	00 00		 mov	 DWORD PTR fs:0, ecx
  001e1	59		 pop	 ecx
  001e2	5f		 pop	 edi
  001e3	5e		 pop	 esi
  001e4	8b e5		 mov	 esp, ebp
  001e6	5d		 pop	 ebp
  001e7	c2 08 00	 ret	 8
$LN207@Emplace:

; 1649 :             _Throw_tree_length_error();

  001ea	e8 00 00 00 00	 call	 ?_Throw_tree_length_error@std@@YAXXZ ; std::_Throw_tree_length_error
$LN208@Emplace:
; File C:\Program Files\Microsoft Visual Studio\2022\Professional\VC\Tools\MSVC\14.44.35207\include\xstring

; 882  :             _Xlen_string(); // result too long

  001ef	e8 00 00 00 00	 call	 ?_Xlen_string@std@@YAXXZ ; std::_Xlen_string
$LN204@Emplace:
  001f4	cc		 int	 3
_TEXT	ENDS
;	COMDAT text$x
text$x	SEGMENT
__unwindfunclet$??$_Emplace@U?$pair@$$CBV?$basic_string@DU?$char_traits@D@std@@V?$allocator@D@2@@std@@K@std@@@?$_Tree@V?$_Tmap_traits@V?$basic_string@DU?$char_traits@D@std@@V?$allocator@D@2@@std@@KU?$less@V?$basic_string@DU?$char_traits@D@std@@V?$allocator@D@2@@std@@@2@V?$allocator@U?$pair@$$CBV?$basic_string@DU?$char_traits@D@std@@V?$allocator@D@2@@std@@K@std@@@2@$0A@@std@@@std@@IAE?AU?$pair@PAU?$_Tree_node@U?$pair@$$CBV?$basic_string@DU?$char_traits@D@std@@V?$allocator@D@2@@std@@K@std@@PAX@std@@_N@1@$$QAU?$pair@$$CBV?$basic_string@DU?$char_traits@D@std@@V?$allocator@D@2@@std@@K@1@@Z$2:
  00000	8d 4d d4	 lea	 ecx, DWORD PTR $T3[ebp]
  00003	e9 00 00 00 00	 jmp	 ??1?$_Alloc_construct_ptr@V?$allocator@U?$_Tree_node@U?$pair@$$CBV?$basic_string@DU?$char_traits@D@std@@V?$allocator@D@2@@std@@K@std@@PAX@std@@@std@@@std@@QAE@XZ ; std::_Alloc_construct_ptr<std::allocator<std::_Tree_node<std::pair<std::basic_string<char,std::char_traits<char>,std::allocator<char> > const ,unsigned long>,void *> > >::~_Alloc_construct_ptr<std::allocator<std::_Tree_node<std::pair<std::basic_string<char,std::char_traits<char>,std::allocator<char> > const ,unsigned long>,void *> > >
__unwindfunclet$??$_Emplace@U?$pair@$$CBV?$basic_string@DU?$char_traits@D@std@@V?$allocator@D@2@@std@@K@std@@@?$_Tree@V?$_Tmap_traits@V?$basic_string@DU?$char_traits@D@std@@V?$allocator@D@2@@std@@KU?$less@V?$basic_string@DU?$char_traits@D@std@@V?$allocator@D@2@@std@@@2@V?$allocator@U?$pair@$$CBV?$basic_string@DU?$char_traits@D@std@@V?$allocator@D@2@@std@@K@std@@@2@$0A@@std@@@std@@IAE?AU?$pair@PAU?$_Tree_node@U?$pair@$$CBV?$basic_string@DU?$char_traits@D@std@@V?$allocator@D@2@@std@@K@std@@PAX@std@@_N@1@$$QAU?$pair@$$CBV?$basic_string@DU?$char_traits@D@std@@V?$allocator@D@2@@std@@K@1@@Z$1:
  00008	8d 4d d4	 lea	 ecx, DWORD PTR $T3[ebp]
  0000b	e9 00 00 00 00	 jmp	 ??1?$_Tree_temp_node_alloc@V?$allocator@U?$_Tree_node@U?$pair@$$CBV?$basic_string@DU?$char_traits@D@std@@V?$allocator@D@2@@std@@K@std@@PAX@std@@@std@@@std@@QAE@XZ
  00010	cc		 int	 3
  00011	cc		 int	 3
  00012	cc		 int	 3
  00013	cc		 int	 3
  00014	cc		 int	 3
__ehhandler$??$_Emplace@U?$pair@$$CBV?$basic_string@DU?$char_traits@D@std@@V?$allocator@D@2@@std@@K@std@@@?$_Tree@V?$_Tmap_traits@V?$basic_string@DU?$char_traits@D@std@@V?$allocator@D@2@@std@@KU?$less@V?$basic_string@DU?$char_traits@D@std@@V?$allocator@D@2@@std@@@2@V?$allocator@U?$pair@$$CBV?$basic_string@DU?$char_traits@D@std@@V?$allocator@D@2@@std@@K@std@@@2@$0A@@std@@@std@@IAE?AU?$pair@PAU?$_Tree_node@U?$pair@$$CBV?$basic_string@DU?$char_traits@D@std@@V?$allocator@D@2@@std@@K@std@@PAX@std@@_N@1@$$QAU?$pair@$$CBV?$basic_string@DU?$char_traits@D@std@@V?$allocator@D@2@@std@@K@1@@Z:
  00015	90		 npad	 1
  00016	90		 npad	 1
  00017	8b 54 24 08	 mov	 edx, DWORD PTR [esp+8]
  0001b	8d 42 0c	 lea	 eax, DWORD PTR [edx+12]
  0001e	8b 4a d4	 mov	 ecx, DWORD PTR [edx-44]
  00021	33 c8		 xor	 ecx, eax
  00023	e8 00 00 00 00	 call	 @__security_check_cookie@4
  00028	b8 00 00 00 00	 mov	 eax, OFFSET __ehfuncinfo$??$_Emplace@U?$pair@$$CBV?$basic_string@DU?$char_traits@D@std@@V?$allocator@D@2@@std@@K@std@@@?$_Tree@V?$_Tmap_traits@V?$basic_string@DU?$char_traits@D@std@@V?$allocator@D@2@@std@@KU?$less@V?$basic_string@DU?$char_traits@D@std@@V?$allocator@D@2@@std@@@2@V?$allocator@U?$pair@$$CBV?$basic_string@DU?$char_traits@D@std@@V?$allocator@D@2@@std@@K@std@@@2@$0A@@std@@@std@@IAE?AU?$pair@PAU?$_Tree_node@U?$pair@$$CBV?$basic_string@DU?$char_traits@D@std@@V?$allocator@D@2@@std@@K@std@@PAX@std@@_N@1@$$QAU?$pair@$$CBV?$basic_string@DU?$char_traits@D@std@@V?$allocator@D@2@@std@@K@1@@Z
  0002d	e9 00 00 00 00	 jmp	 ___CxxFrameHandler3
text$x	ENDS
??$_Emplace@U?$pair@$$CBV?$basic_string@DU?$char_traits@D@std@@V?$allocator@D@2@@std@@K@std@@@?$_Tree@V?$_Tmap_traits@V?$basic_string@DU?$char_traits@D@std@@V?$allocator@D@2@@std@@KU?$less@V?$basic_string@DU?$char_traits@D@std@@V?$allocator@D@2@@std@@@2@V?$allocator@U?$pair@$$CBV?$basic_string@DU?$char_traits@D@std@@V?$allocator@D@2@@std@@K@std@@@2@$0A@@std@@@std@@IAE?AU?$pair@PAU?$_Tree_node@U?$pair@$$CBV?$basic_string@DU?$char_traits@D@std@@V?$allocator@D@2@@std@@K@std@@PAX@std@@_N@1@$$QAU?$pair@$$CBV?$basic_string@DU?$char_traits@D@std@@V?$allocator@D@2@@std@@K@1@@Z ENDP ; std::_Tree<std::_Tmap_traits<std::basic_string<char,std::char_traits<char>,std::allocator<char> >,unsigned long,std::less<std::basic_string<char,std::char_traits<char>,std::allocator<char> > >,std::allocator<std::pair<std::basic_string<char,std::char_traits<char>,std::allocator<char> > const ,unsigned long> >,0> >::_Emplace<std::pair<std::basic_string<char,std::char_traits<char>,std::allocator<char> > const ,unsigned long> >
; Function compile flags: /Ogtp
; File C:\IAGOS\server\v18\Source\Source\_Common\CtrlObjs.h
;	COMDAT ??_GCContDamageCtrl@@UAEPAXI@Z
_TEXT	SEGMENT
__$EHRec$ = -12						; size = 12
___flags$ = 8						; size = 4
??_GCContDamageCtrl@@UAEPAXI@Z PROC			; CContDamageCtrl::`scalar deleting destructor', COMDAT
; _this$ = ecx
  00000	55		 push	 ebp
  00001	8b ec		 mov	 ebp, esp
  00003	6a ff		 push	 -1
  00005	68 00 00 00 00	 push	 __ehhandler$??_GCContDamageCtrl@@UAEPAXI@Z
  0000a	64 a1 00 00 00
	00		 mov	 eax, DWORD PTR fs:0
  00010	50		 push	 eax
  00011	56		 push	 esi
  00012	a1 00 00 00 00	 mov	 eax, DWORD PTR ___security_cookie
  00017	33 c5		 xor	 eax, ebp
  00019	50		 push	 eax
  0001a	8d 45 f4	 lea	 eax, DWORD PTR __$EHRec$[ebp]
  0001d	64 a3 00 00 00
	00		 mov	 DWORD PTR fs:0, eax
  00023	8b f1		 mov	 esi, ecx

; 37   : 	virtual ~CContDamageCtrl() { Destroy(); }

  00025	c7 45 fc 00 00
	00 00		 mov	 DWORD PTR __$EHRec$[ebp+8], 0
  0002c	c7 06 00 00 00
	00		 mov	 DWORD PTR [esi], OFFSET ??_7CContDamageCtrl@@6B@
  00032	e8 00 00 00 00	 call	 ?Destroy@CContDamageCtrl@@AAEXXZ ; CContDamageCtrl::Destroy
  00037	8b ce		 mov	 ecx, esi
  00039	e8 00 00 00 00	 call	 ??1CCtrl@@UAE@XZ	; CCtrl::~CCtrl
  0003e	f6 45 08 01	 test	 BYTE PTR ___flags$[ebp], 1
  00042	74 0e		 je	 SHORT $LN10@scalar
  00044	68 50 02 00 00	 push	 592			; 00000250H
  00049	56		 push	 esi
  0004a	e8 00 00 00 00	 call	 ??3@YAXPAXI@Z		; operator delete
  0004f	83 c4 08	 add	 esp, 8
$LN10@scalar:
  00052	8b c6		 mov	 eax, esi
  00054	8b 4d f4	 mov	 ecx, DWORD PTR __$EHRec$[ebp]
  00057	64 89 0d 00 00
	00 00		 mov	 DWORD PTR fs:0, ecx
  0005e	59		 pop	 ecx
  0005f	5e		 pop	 esi
  00060	8b e5		 mov	 esp, ebp
  00062	5d		 pop	 ebp
  00063	c2 04 00	 ret	 4
  00066	cc		 int	 3
  00067	cc		 int	 3
  00068	cc		 int	 3
  00069	cc		 int	 3
  0006a	cc		 int	 3
_TEXT	ENDS
;	COMDAT text$x
text$x	SEGMENT
__ehhandler$??_GCContDamageCtrl@@UAEPAXI@Z:
  00000	90		 npad	 1
  00001	90		 npad	 1
  00002	8b 54 24 08	 mov	 edx, DWORD PTR [esp+8]
  00006	8d 42 0c	 lea	 eax, DWORD PTR [edx+12]
  00009	8b 4a f8	 mov	 ecx, DWORD PTR [edx-8]
  0000c	33 c8		 xor	 ecx, eax
  0000e	e8 00 00 00 00	 call	 @__security_check_cookie@4
  00013	b8 00 00 00 00	 mov	 eax, OFFSET __ehfuncinfo$??_GCContDamageCtrl@@UAEPAXI@Z
  00018	e9 00 00 00 00	 jmp	 ___CxxFrameHandler3
text$x	ENDS
??_GCContDamageCtrl@@UAEPAXI@Z ENDP			; CContDamageCtrl::`scalar deleting destructor'
; Function compile flags: /Ogtp
; File C:\IAGOS\server\v18\Source\Source\_Common\CtrlObjs.h
;	COMDAT ??1CContDamageCtrl@@UAE@XZ
_TEXT	SEGMENT
__$EHRec$ = -12						; size = 12
??1CContDamageCtrl@@UAE@XZ PROC				; CContDamageCtrl::~CContDamageCtrl, COMDAT
; _this$ = ecx

; 37   : 	virtual ~CContDamageCtrl() { Destroy(); }

  00000	55		 push	 ebp
  00001	8b ec		 mov	 ebp, esp
  00003	6a ff		 push	 -1
  00005	68 00 00 00 00	 push	 __ehhandler$??1CContDamageCtrl@@UAE@XZ
  0000a	64 a1 00 00 00
	00		 mov	 eax, DWORD PTR fs:0
  00010	50		 push	 eax
  00011	56		 push	 esi
  00012	a1 00 00 00 00	 mov	 eax, DWORD PTR ___security_cookie
  00017	33 c5		 xor	 eax, ebp
  00019	50		 push	 eax
  0001a	8d 45 f4	 lea	 eax, DWORD PTR __$EHRec$[ebp]
  0001d	64 a3 00 00 00
	00		 mov	 DWORD PTR fs:0, eax
  00023	8b f1		 mov	 esi, ecx
  00025	c7 06 00 00 00
	00		 mov	 DWORD PTR [esi], OFFSET ??_7CContDamageCtrl@@6B@
  0002b	e8 00 00 00 00	 call	 ?Destroy@CContDamageCtrl@@AAEXXZ ; CContDamageCtrl::Destroy
  00030	8b ce		 mov	 ecx, esi
  00032	e8 00 00 00 00	 call	 ??1CCtrl@@UAE@XZ	; CCtrl::~CCtrl
  00037	8b 4d f4	 mov	 ecx, DWORD PTR __$EHRec$[ebp]
  0003a	64 89 0d 00 00
	00 00		 mov	 DWORD PTR fs:0, ecx
  00041	59		 pop	 ecx
  00042	5e		 pop	 esi
  00043	8b e5		 mov	 esp, ebp
  00045	5d		 pop	 ebp
  00046	c3		 ret	 0
  00047	cc		 int	 3
  00048	cc		 int	 3
  00049	cc		 int	 3
  0004a	cc		 int	 3
  0004b	cc		 int	 3
_TEXT	ENDS
;	COMDAT text$x
text$x	SEGMENT
__ehhandler$??1CContDamageCtrl@@UAE@XZ:
  00000	90		 npad	 1
  00001	90		 npad	 1
  00002	8b 54 24 08	 mov	 edx, DWORD PTR [esp+8]
  00006	8d 42 0c	 lea	 eax, DWORD PTR [edx+12]
  00009	8b 4a f8	 mov	 ecx, DWORD PTR [edx-8]
  0000c	33 c8		 xor	 ecx, eax
  0000e	e8 00 00 00 00	 call	 @__security_check_cookie@4
  00013	b8 00 00 00 00	 mov	 eax, OFFSET __ehfuncinfo$??1CContDamageCtrl@@UAE@XZ
  00018	e9 00 00 00 00	 jmp	 ___CxxFrameHandler3
text$x	ENDS
??1CContDamageCtrl@@UAE@XZ ENDP				; CContDamageCtrl::~CContDamageCtrl
; Function compile flags: /Ogtp
; File C:\Program Files\Microsoft Visual Studio\2022\Professional\VC\Tools\MSVC\14.44.35207\include\xmemory
;	COMDAT ??$_Allocate_manually_vector_aligned@U_Default_allocate_traits@std@@@std@@YAPAXI@Z
_TEXT	SEGMENT
__Bytes$ = 8						; size = 4
??$_Allocate_manually_vector_aligned@U_Default_allocate_traits@std@@@std@@YAPAXI@Z PROC ; std::_Allocate_manually_vector_aligned<std::_Default_allocate_traits>, COMDAT

; 182  : __declspec(allocator) void* _Allocate_manually_vector_aligned(const size_t _Bytes) {

  00000	55		 push	 ebp
  00001	8b ec		 mov	 ebp, esp

; 183  :     // allocate _Bytes manually aligned to at least _Big_allocation_alignment
; 184  :     const size_t _Block_size = _Non_user_size + _Bytes;

  00003	8b 45 08	 mov	 eax, DWORD PTR __Bytes$[ebp]
  00006	8d 48 23	 lea	 ecx, DWORD PTR [eax+35]

; 185  :     if (_Block_size <= _Bytes) {

  00009	3b c8		 cmp	 ecx, eax
  0000b	0f 86 00 00 00
	00		 jbe	 ?_Throw_bad_array_new_length@std@@YAXXZ ; std::_Throw_bad_array_new_length

; 136  :         return ::operator new(_Bytes);

  00011	51		 push	 ecx
  00012	e8 00 00 00 00	 call	 ??2@YAPAXI@Z		; operator new

; 186  :         _Throw_bad_array_new_length(); // add overflow
; 187  :     }
; 188  : 
; 189  :     const uintptr_t _Ptr_container = reinterpret_cast<uintptr_t>(_Traits::_Allocate(_Block_size));

  00017	8b c8		 mov	 ecx, eax

; 136  :         return ::operator new(_Bytes);

  00019	83 c4 04	 add	 esp, 4

; 190  :     _STL_VERIFY(_Ptr_container != 0, "invalid argument"); // validate even in release since we're doing p[-1]

  0001c	85 c9		 test	 ecx, ecx
  0001e	74 0b		 je	 SHORT $LN9@Allocate_m

; 191  :     void* const _Ptr = reinterpret_cast<void*>((_Ptr_container + _Non_user_size) & ~(_Big_allocation_alignment - 1));

  00020	8d 41 23	 lea	 eax, DWORD PTR [ecx+35]
  00023	83 e0 e0	 and	 eax, -32		; ffffffe0H

; 192  :     static_cast<uintptr_t*>(_Ptr)[-1] = _Ptr_container;

  00026	89 48 fc	 mov	 DWORD PTR [eax-4], ecx

; 193  : 
; 194  : #ifdef _DEBUG
; 195  :     static_cast<uintptr_t*>(_Ptr)[-2] = _Big_allocation_sentinel;
; 196  : #endif // defined(_DEBUG)
; 197  :     return _Ptr;
; 198  : }

  00029	5d		 pop	 ebp
  0002a	c3		 ret	 0
$LN9@Allocate_m:

; 190  :     _STL_VERIFY(_Ptr_container != 0, "invalid argument"); // validate even in release since we're doing p[-1]

  0002b	6a 00		 push	 0
  0002d	6a 00		 push	 0
  0002f	6a 00		 push	 0
  00031	6a 00		 push	 0
  00033	6a 00		 push	 0
  00035	e8 00 00 00 00	 call	 __invoke_watson
$LN7@Allocate_m:
  0003a	cc		 int	 3
??$_Allocate_manually_vector_aligned@U_Default_allocate_traits@std@@@std@@YAPAXI@Z ENDP ; std::_Allocate_manually_vector_aligned<std::_Default_allocate_traits>
_TEXT	ENDS
; Function compile flags: /Ogtp
; File C:\Program Files\Microsoft Visual Studio\2022\Professional\VC\Tools\MSVC\14.44.35207\include\xtree
; File C:\Program Files\Microsoft Visual Studio\2022\Professional\VC\Tools\MSVC\14.44.35207\include\utility
; File C:\Program Files\Microsoft Visual Studio\2022\Professional\VC\Tools\MSVC\14.44.35207\include\xmemory
; File C:\Program Files\Microsoft Visual Studio\2022\Professional\VC\Tools\MSVC\14.44.35207\include\xtree
;	COMDAT ??$_Erase_tree@V?$allocator@U?$_Tree_node@U?$pair@$$CBKPAVCUser@@@std@@PAX@std@@@std@@@?$_Tree_val@U?$_Tree_simple_types@U?$pair@$$CBKPAVCUser@@@std@@@std@@@std@@QAEXAAV?$allocator@U?$_Tree_node@U?$pair@$$CBKPAVCUser@@@std@@PAX@std@@@1@PAU?$_Tree_node@U?$pair@$$CBKPAVCUser@@@std@@PAX@1@@Z
_TEXT	SEGMENT
__Al$ = 8						; size = 4
__Rootnode$ = 12					; size = 4
??$_Erase_tree@V?$allocator@U?$_Tree_node@U?$pair@$$CBKPAVCUser@@@std@@PAX@std@@@std@@@?$_Tree_val@U?$_Tree_simple_types@U?$pair@$$CBKPAVCUser@@@std@@@std@@@std@@QAEXAAV?$allocator@U?$_Tree_node@U?$pair@$$CBKPAVCUser@@@std@@PAX@std@@@1@PAU?$_Tree_node@U?$pair@$$CBKPAVCUser@@@std@@PAX@1@@Z PROC ; std::_Tree_val<std::_Tree_simple_types<std::pair<unsigned long const ,CUser *> > >::_Erase_tree<std::allocator<std::_Tree_node<std::pair<unsigned long const ,CUser *>,void *> > >, COMDAT
; _this$ = ecx

; 767  :     void _Erase_tree(_Alnode& _Al, _Nodeptr _Rootnode) noexcept {

  00000	55		 push	 ebp
  00001	8b ec		 mov	 ebp, esp
  00003	53		 push	 ebx
  00004	56		 push	 esi

; 768  :         while (!_Rootnode->_Isnil) { // free subtrees, then node

  00005	8b 75 0c	 mov	 esi, DWORD PTR __Rootnode$[ebp]
  00008	8b d9		 mov	 ebx, ecx
  0000a	80 7e 0d 00	 cmp	 BYTE PTR [esi+13], 0
  0000e	75 25		 jne	 SHORT $LN34@Erase_tree
  00010	57		 push	 edi
  00011	8b 7d 08	 mov	 edi, DWORD PTR __Al$[ebp]
$LL2@Erase_tree:

; 769  :             _Erase_tree(_Al, _Rootnode->_Right);

  00014	ff 76 08	 push	 DWORD PTR [esi+8]
  00017	8b cb		 mov	 ecx, ebx
  00019	57		 push	 edi
  0001a	e8 00 00 00 00	 call	 ??$_Erase_tree@V?$allocator@U?$_Tree_node@U?$pair@$$CBKPAVCUser@@@std@@PAX@std@@@std@@@?$_Tree_val@U?$_Tree_simple_types@U?$pair@$$CBKPAVCUser@@@std@@@std@@@std@@QAEXAAV?$allocator@U?$_Tree_node@U?$pair@$$CBKPAVCUser@@@std@@PAX@std@@@1@PAU?$_Tree_node@U?$pair@$$CBKPAVCUser@@@std@@PAX@1@@Z ; std::_Tree_val<std::_Tree_simple_types<std::pair<unsigned long const ,CUser *> > >::_Erase_tree<std::allocator<std::_Tree_node<std::pair<unsigned long const ,CUser *>,void *> > >
; File C:\Program Files\Microsoft Visual Studio\2022\Professional\VC\Tools\MSVC\14.44.35207\include\utility

; 773  :     _Ty _Old_val = static_cast<_Ty&&>(_Val);

  0001f	8b c6		 mov	 eax, esi

; 774  :     _Val         = static_cast<_Other&&>(_New_val);

  00021	8b 36		 mov	 esi, DWORD PTR [esi]
; File C:\Program Files\Microsoft Visual Studio\2022\Professional\VC\Tools\MSVC\14.44.35207\include\xmemory

; 289  :         ::operator delete(_Ptr, _Bytes);

  00023	6a 18		 push	 24			; 00000018H
  00025	50		 push	 eax
  00026	e8 00 00 00 00	 call	 ??3@YAXPAXI@Z		; operator delete
  0002b	83 c4 08	 add	 esp, 8
; File C:\Program Files\Microsoft Visual Studio\2022\Professional\VC\Tools\MSVC\14.44.35207\include\xtree

; 768  :         while (!_Rootnode->_Isnil) { // free subtrees, then node

  0002e	80 7e 0d 00	 cmp	 BYTE PTR [esi+13], 0
  00032	74 e0		 je	 SHORT $LL2@Erase_tree
  00034	5f		 pop	 edi
$LN34@Erase_tree:
  00035	5e		 pop	 esi

; 770  :             _Alnode::value_type::_Freenode(_Al, _STD exchange(_Rootnode, _Rootnode->_Left));
; 771  :         }
; 772  :     }

  00036	5b		 pop	 ebx
  00037	5d		 pop	 ebp
  00038	c2 08 00	 ret	 8
??$_Erase_tree@V?$allocator@U?$_Tree_node@U?$pair@$$CBKPAVCUser@@@std@@PAX@std@@@std@@@?$_Tree_val@U?$_Tree_simple_types@U?$pair@$$CBKPAVCUser@@@std@@@std@@@std@@QAEXAAV?$allocator@U?$_Tree_node@U?$pair@$$CBKPAVCUser@@@std@@PAX@std@@@1@PAU?$_Tree_node@U?$pair@$$CBKPAVCUser@@@std@@PAX@1@@Z ENDP ; std::_Tree_val<std::_Tree_simple_types<std::pair<unsigned long const ,CUser *> > >::_Erase_tree<std::allocator<std::_Tree_node<std::pair<unsigned long const ,CUser *>,void *> > >
_TEXT	ENDS
; Function compile flags: /Ogtp
; File C:\Program Files\Microsoft Visual Studio\2022\Professional\VC\Tools\MSVC\14.44.35207\include\xtree
; File C:\Program Files\Microsoft Visual Studio\2022\Professional\VC\Tools\MSVC\14.44.35207\include\utility
; File C:\Program Files\Microsoft Visual Studio\2022\Professional\VC\Tools\MSVC\14.44.35207\include\xmemory
; File C:\Program Files\Microsoft Visual Studio\2022\Professional\VC\Tools\MSVC\14.44.35207\include\xtree
;	COMDAT ??$_Erase_tree@V?$allocator@U?$_Tree_node@U?$pair@$$CBKPAVCCtrl@@@std@@PAX@std@@@std@@@?$_Tree_val@U?$_Tree_simple_types@U?$pair@$$CBKPAVCCtrl@@@std@@@std@@@std@@QAEXAAV?$allocator@U?$_Tree_node@U?$pair@$$CBKPAVCCtrl@@@std@@PAX@std@@@1@PAU?$_Tree_node@U?$pair@$$CBKPAVCCtrl@@@std@@PAX@1@@Z
_TEXT	SEGMENT
__Al$ = 8						; size = 4
__Rootnode$ = 12					; size = 4
??$_Erase_tree@V?$allocator@U?$_Tree_node@U?$pair@$$CBKPAVCCtrl@@@std@@PAX@std@@@std@@@?$_Tree_val@U?$_Tree_simple_types@U?$pair@$$CBKPAVCCtrl@@@std@@@std@@@std@@QAEXAAV?$allocator@U?$_Tree_node@U?$pair@$$CBKPAVCCtrl@@@std@@PAX@std@@@1@PAU?$_Tree_node@U?$pair@$$CBKPAVCCtrl@@@std@@PAX@1@@Z PROC ; std::_Tree_val<std::_Tree_simple_types<std::pair<unsigned long const ,CCtrl *> > >::_Erase_tree<std::allocator<std::_Tree_node<std::pair<unsigned long const ,CCtrl *>,void *> > >, COMDAT
; _this$ = ecx

; 767  :     void _Erase_tree(_Alnode& _Al, _Nodeptr _Rootnode) noexcept {

  00000	55		 push	 ebp
  00001	8b ec		 mov	 ebp, esp
  00003	53		 push	 ebx
  00004	56		 push	 esi

; 768  :         while (!_Rootnode->_Isnil) { // free subtrees, then node

  00005	8b 75 0c	 mov	 esi, DWORD PTR __Rootnode$[ebp]
  00008	8b d9		 mov	 ebx, ecx
  0000a	80 7e 0d 00	 cmp	 BYTE PTR [esi+13], 0
  0000e	75 25		 jne	 SHORT $LN34@Erase_tree
  00010	57		 push	 edi
  00011	8b 7d 08	 mov	 edi, DWORD PTR __Al$[ebp]
$LL2@Erase_tree:

; 769  :             _Erase_tree(_Al, _Rootnode->_Right);

  00014	ff 76 08	 push	 DWORD PTR [esi+8]
  00017	8b cb		 mov	 ecx, ebx
  00019	57		 push	 edi
  0001a	e8 00 00 00 00	 call	 ??$_Erase_tree@V?$allocator@U?$_Tree_node@U?$pair@$$CBKPAVCCtrl@@@std@@PAX@std@@@std@@@?$_Tree_val@U?$_Tree_simple_types@U?$pair@$$CBKPAVCCtrl@@@std@@@std@@@std@@QAEXAAV?$allocator@U?$_Tree_node@U?$pair@$$CBKPAVCCtrl@@@std@@PAX@std@@@1@PAU?$_Tree_node@U?$pair@$$CBKPAVCCtrl@@@std@@PAX@1@@Z ; std::_Tree_val<std::_Tree_simple_types<std::pair<unsigned long const ,CCtrl *> > >::_Erase_tree<std::allocator<std::_Tree_node<std::pair<unsigned long const ,CCtrl *>,void *> > >
; File C:\Program Files\Microsoft Visual Studio\2022\Professional\VC\Tools\MSVC\14.44.35207\include\utility

; 773  :     _Ty _Old_val = static_cast<_Ty&&>(_Val);

  0001f	8b c6		 mov	 eax, esi

; 774  :     _Val         = static_cast<_Other&&>(_New_val);

  00021	8b 36		 mov	 esi, DWORD PTR [esi]
; File C:\Program Files\Microsoft Visual Studio\2022\Professional\VC\Tools\MSVC\14.44.35207\include\xmemory

; 289  :         ::operator delete(_Ptr, _Bytes);

  00023	6a 18		 push	 24			; 00000018H
  00025	50		 push	 eax
  00026	e8 00 00 00 00	 call	 ??3@YAXPAXI@Z		; operator delete
  0002b	83 c4 08	 add	 esp, 8
; File C:\Program Files\Microsoft Visual Studio\2022\Professional\VC\Tools\MSVC\14.44.35207\include\xtree

; 768  :         while (!_Rootnode->_Isnil) { // free subtrees, then node

  0002e	80 7e 0d 00	 cmp	 BYTE PTR [esi+13], 0
  00032	74 e0		 je	 SHORT $LL2@Erase_tree
  00034	5f		 pop	 edi
$LN34@Erase_tree:
  00035	5e		 pop	 esi

; 770  :             _Alnode::value_type::_Freenode(_Al, _STD exchange(_Rootnode, _Rootnode->_Left));
; 771  :         }
; 772  :     }

  00036	5b		 pop	 ebx
  00037	5d		 pop	 ebp
  00038	c2 08 00	 ret	 8
??$_Erase_tree@V?$allocator@U?$_Tree_node@U?$pair@$$CBKPAVCCtrl@@@std@@PAX@std@@@std@@@?$_Tree_val@U?$_Tree_simple_types@U?$pair@$$CBKPAVCCtrl@@@std@@@std@@@std@@QAEXAAV?$allocator@U?$_Tree_node@U?$pair@$$CBKPAVCCtrl@@@std@@PAX@std@@@1@PAU?$_Tree_node@U?$pair@$$CBKPAVCCtrl@@@std@@PAX@1@@Z ENDP ; std::_Tree_val<std::_Tree_simple_types<std::pair<unsigned long const ,CCtrl *> > >::_Erase_tree<std::allocator<std::_Tree_node<std::pair<unsigned long const ,CCtrl *>,void *> > >
_TEXT	ENDS
; Function compile flags: /Ogtp
; File C:\Program Files\Microsoft Visual Studio\2022\Professional\VC\Tools\MSVC\14.44.35207\include\xstring
; File C:\Program Files\Microsoft Visual Studio\2022\Professional\VC\Tools\MSVC\14.44.35207\include\__msvc_string_view.hpp
; File C:\Program Files\Microsoft Visual Studio\2022\Professional\VC\Tools\MSVC\14.44.35207\include\xstring
; File C:\Program Files\Microsoft Visual Studio\2022\Professional\VC\Tools\MSVC\14.44.35207\include\__msvc_string_view.hpp
; File C:\Program Files\Microsoft Visual Studio\2022\Professional\VC\Tools\MSVC\14.44.35207\include\xstring
; File C:\Program Files\Microsoft Visual Studio\2022\Professional\VC\Tools\MSVC\14.44.35207\include\__msvc_string_view.hpp
; File C:\Program Files\Microsoft Visual Studio\2022\Professional\VC\Tools\MSVC\14.44.35207\include\xstring
;	COMDAT ??$?MDU?$char_traits@D@std@@V?$allocator@D@1@@std@@YA_NABV?$basic_string@DU?$char_traits@D@std@@V?$allocator@D@2@@0@0@Z
_TEXT	SEGMENT
__Left$ = 8						; size = 4
__Right$ = 12						; size = 4
??$?MDU?$char_traits@D@std@@V?$allocator@D@1@@std@@YA_NABV?$basic_string@DU?$char_traits@D@std@@V?$allocator@D@2@@0@0@Z PROC ; std::operator<<char,std::char_traits<char>,std::allocator<char> >, COMDAT

; 3307 :     const basic_string<_Elem, _Traits, _Alloc>& _Left, const basic_string<_Elem, _Traits, _Alloc>& _Right) noexcept {

  00000	55		 push	 ebp
  00001	8b ec		 mov	 ebp, esp

; 444  :         const value_type* _Result = _Bx._Buf;

  00003	8b 45 0c	 mov	 eax, DWORD PTR __Right$[ebp]
  00006	8b c8		 mov	 ecx, eax

; 453  :         return _Myres > _Small_string_capacity;

  00008	83 78 14 0f	 cmp	 DWORD PTR [eax+20], 15	; 0000000fH

; 445  :         if (_Large_mode_engaged()) {

  0000c	76 02		 jbe	 SHORT $LN8@operator

; 446  :             _Result = _Unfancy(_Bx._Ptr);

  0000e	8b 08		 mov	 ecx, DWORD PTR [eax]
$LN8@operator:
  00010	53		 push	 ebx
  00011	56		 push	 esi

; 444  :         const value_type* _Result = _Bx._Buf;

  00012	8b 75 08	 mov	 esi, DWORD PTR __Left$[ebp]
  00015	8b d6		 mov	 edx, esi
  00017	57		 push	 edi

; 453  :         return _Myres > _Small_string_capacity;

  00018	83 7e 14 0f	 cmp	 DWORD PTR [esi+20], 15	; 0000000fH

; 445  :         if (_Large_mode_engaged()) {

  0001c	76 02		 jbe	 SHORT $LN15@operator

; 446  :             _Result = _Unfancy(_Bx._Ptr);

  0001e	8b 16		 mov	 edx, DWORD PTR [esi]
$LN15@operator:

; 2890 :         return _Traits_compare<_Traits>(_Mypair._Myval2._Myptr(), _Mypair._Myval2._Mysize,

  00020	8b 5e 10	 mov	 ebx, DWORD PTR [esi+16]
  00023	8b f3		 mov	 esi, ebx
  00025	8b 78 10	 mov	 edi, DWORD PTR [eax+16]
  00028	3b fb		 cmp	 edi, ebx
  0002a	0f 42 f7	 cmovb	 esi, edi
; File C:\Program Files\Microsoft Visual Studio\2022\Professional\VC\Tools\MSVC\14.44.35207\include\__msvc_string_view.hpp

; 439  :         return _CSTD memcmp(_First1, _First2, _Count);

  0002d	83 ee 04	 sub	 esi, 4
  00030	72 11		 jb	 SHORT $LN35@operator
$LL36@operator:
  00032	8b 02		 mov	 eax, DWORD PTR [edx]
  00034	3b 01		 cmp	 eax, DWORD PTR [ecx]
  00036	75 10		 jne	 SHORT $LN34@operator
  00038	83 c2 04	 add	 edx, 4
  0003b	83 c1 04	 add	 ecx, 4
  0003e	83 ee 04	 sub	 esi, 4
  00041	73 ef		 jae	 SHORT $LL36@operator
$LN35@operator:
  00043	83 fe fc	 cmp	 esi, -4			; fffffffcH
  00046	74 34		 je	 SHORT $LN33@operator
$LN34@operator:
  00048	8a 02		 mov	 al, BYTE PTR [edx]
  0004a	3a 01		 cmp	 al, BYTE PTR [ecx]
  0004c	75 27		 jne	 SHORT $LN37@operator
  0004e	83 fe fd	 cmp	 esi, -3			; fffffffdH
  00051	74 29		 je	 SHORT $LN33@operator
  00053	8a 42 01	 mov	 al, BYTE PTR [edx+1]
  00056	3a 41 01	 cmp	 al, BYTE PTR [ecx+1]
  00059	75 1a		 jne	 SHORT $LN37@operator
  0005b	83 fe fe	 cmp	 esi, -2			; fffffffeH
  0005e	74 1c		 je	 SHORT $LN33@operator
  00060	8a 42 02	 mov	 al, BYTE PTR [edx+2]
  00063	3a 41 02	 cmp	 al, BYTE PTR [ecx+2]
  00066	75 0d		 jne	 SHORT $LN37@operator
  00068	83 fe ff	 cmp	 esi, -1
  0006b	74 0f		 je	 SHORT $LN33@operator
  0006d	8a 42 03	 mov	 al, BYTE PTR [edx+3]
  00070	3a 41 03	 cmp	 al, BYTE PTR [ecx+3]
  00073	74 07		 je	 SHORT $LN33@operator
$LN37@operator:
  00075	1b c0		 sbb	 eax, eax
  00077	83 c8 01	 or	 eax, 1
  0007a	eb 02		 jmp	 SHORT $LN38@operator
$LN33@operator:
  0007c	33 c0		 xor	 eax, eax
$LN38@operator:

; 621  :     if (_Ans != 0) {

  0007e	85 c0		 test	 eax, eax
  00080	75 13		 jne	 SHORT $LN24@operator

; 622  :         return _Ans;
; 623  :     }
; 624  : 
; 625  :     if (_Left_size < _Right_size) {

  00082	3b fb		 cmp	 edi, ebx
  00084	76 0b		 jbe	 SHORT $LN51@operator
; File C:\Program Files\Microsoft Visual Studio\2022\Professional\VC\Tools\MSVC\14.44.35207\include\xstring

; 3308 :     return _Left.compare(_Right) < 0;

  00086	5f		 pop	 edi
; File C:\Program Files\Microsoft Visual Studio\2022\Professional\VC\Tools\MSVC\14.44.35207\include\__msvc_string_view.hpp

; 626  :         return -1;

  00087	83 c8 ff	 or	 eax, -1
; File C:\Program Files\Microsoft Visual Studio\2022\Professional\VC\Tools\MSVC\14.44.35207\include\xstring

; 3308 :     return _Left.compare(_Right) < 0;

  0008a	5e		 pop	 esi
  0008b	c1 e8 1f	 shr	 eax, 31			; 0000001fH
  0008e	5b		 pop	 ebx

; 3309 : }

  0008f	5d		 pop	 ebp
  00090	c3		 ret	 0
$LN51@operator:
; File C:\Program Files\Microsoft Visual Studio\2022\Professional\VC\Tools\MSVC\14.44.35207\include\__msvc_string_view.hpp

; 629  :     if (_Left_size > _Right_size) {

  00091	1b c0		 sbb	 eax, eax
  00093	f7 d8		 neg	 eax
$LN24@operator:
; File C:\Program Files\Microsoft Visual Studio\2022\Professional\VC\Tools\MSVC\14.44.35207\include\xstring

; 3308 :     return _Left.compare(_Right) < 0;

  00095	5f		 pop	 edi
  00096	5e		 pop	 esi
  00097	c1 e8 1f	 shr	 eax, 31			; 0000001fH
  0009a	5b		 pop	 ebx

; 3309 : }

  0009b	5d		 pop	 ebp
  0009c	c3		 ret	 0
??$?MDU?$char_traits@D@std@@V?$allocator@D@1@@std@@YA_NABV?$basic_string@DU?$char_traits@D@std@@V?$allocator@D@2@@0@0@Z ENDP ; std::operator<<char,std::char_traits<char>,std::allocator<char> >
_TEXT	ENDS
; Function compile flags: /Ogtp
; File C:\Program Files\Microsoft Visual Studio\2022\Professional\VC\Tools\MSVC\14.44.35207\include\xmemory
;	COMDAT ??1?$_Alloc_construct_ptr@V?$allocator@U?$_Tree_node@U?$pair@$$CBKPAVCCtrl@@@std@@PAX@std@@@std@@@std@@QAE@XZ
_TEXT	SEGMENT
??1?$_Alloc_construct_ptr@V?$allocator@U?$_Tree_node@U?$pair@$$CBKPAVCCtrl@@@std@@PAX@std@@@std@@@std@@QAE@XZ PROC ; std::_Alloc_construct_ptr<std::allocator<std::_Tree_node<std::pair<unsigned long const ,CCtrl *>,void *> > >::~_Alloc_construct_ptr<std::allocator<std::_Tree_node<std::pair<unsigned long const ,CCtrl *>,void *> > >, COMDAT
; _this$ = ecx

; 1172 :         if (_Ptr) {

  00000	8b 41 04	 mov	 eax, DWORD PTR [ecx+4]
  00003	85 c0		 test	 eax, eax
  00005	74 0b		 je	 SHORT $LN10@Alloc_cons

; 289  :         ::operator delete(_Ptr, _Bytes);

  00007	6a 18		 push	 24			; 00000018H
  00009	50		 push	 eax
  0000a	e8 00 00 00 00	 call	 ??3@YAXPAXI@Z		; operator delete
  0000f	83 c4 08	 add	 esp, 8
$LN10@Alloc_cons:

; 1173 :             _Al.deallocate(_Ptr, 1);
; 1174 :         }
; 1175 :     }

  00012	c3		 ret	 0
??1?$_Alloc_construct_ptr@V?$allocator@U?$_Tree_node@U?$pair@$$CBKPAVCCtrl@@@std@@PAX@std@@@std@@@std@@QAE@XZ ENDP ; std::_Alloc_construct_ptr<std::allocator<std::_Tree_node<std::pair<unsigned long const ,CCtrl *>,void *> > >::~_Alloc_construct_ptr<std::allocator<std::_Tree_node<std::pair<unsigned long const ,CCtrl *>,void *> > >
_TEXT	ENDS
; Function compile flags: /Ogtp
; File C:\Program Files\Microsoft Visual Studio\2022\Professional\VC\Tools\MSVC\14.44.35207\include\xtree
; File C:\Program Files\Microsoft Visual Studio\2022\Professional\VC\Tools\MSVC\14.44.35207\include\type_traits
; File C:\Program Files\Microsoft Visual Studio\2022\Professional\VC\Tools\MSVC\14.44.35207\include\xtree
; File C:\Program Files\Microsoft Visual Studio\2022\Professional\VC\Tools\MSVC\14.44.35207\include\type_traits
; File C:\Program Files\Microsoft Visual Studio\2022\Professional\VC\Tools\MSVC\14.44.35207\include\xtree
;	COMDAT ??$_Find_lower_bound@K@?$_Tree@V?$_Tmap_traits@KPAVCCtrl@@U?$less@K@std@@V?$allocator@U?$pair@$$CBKPAVCCtrl@@@std@@@3@$0A@@std@@@std@@IBE?AU?$_Tree_find_result@PAU?$_Tree_node@U?$pair@$$CBKPAVCCtrl@@@std@@PAX@std@@@1@ABK@Z
_TEXT	SEGMENT
___$ReturnUdt$ = 8					; size = 4
__Keyval$ = 12						; size = 4
??$_Find_lower_bound@K@?$_Tree@V?$_Tmap_traits@KPAVCCtrl@@U?$less@K@std@@V?$allocator@U?$pair@$$CBKPAVCCtrl@@@std@@@3@$0A@@std@@@std@@IBE?AU?$_Tree_find_result@PAU?$_Tree_node@U?$pair@$$CBKPAVCCtrl@@@std@@PAX@std@@@1@ABK@Z PROC ; std::_Tree<std::_Tmap_traits<unsigned long,CCtrl *,std::less<unsigned long>,std::allocator<std::pair<unsigned long const ,CCtrl *> >,0> >::_Find_lower_bound<unsigned long>, COMDAT
; _this$ = ecx

; 1628 :     _Tree_find_result<_Nodeptr> _Find_lower_bound(const _Keyty& _Keyval) const {

  00000	55		 push	 ebp
  00001	8b ec		 mov	 ebp, esp

; 1629 :         const auto _Scary = _Get_scary();
; 1630 :         _Tree_find_result<_Nodeptr> _Result{{_Scary->_Myhead->_Parent, _Tree_child::_Right}, _Scary->_Myhead};

  00003	8b 09		 mov	 ecx, DWORD PTR [ecx]
  00005	8b 55 08	 mov	 edx, DWORD PTR ___$ReturnUdt$[ebp]
  00008	8b 41 04	 mov	 eax, DWORD PTR [ecx+4]
  0000b	89 02		 mov	 DWORD PTR [edx], eax
  0000d	c7 42 04 00 00
	00 00		 mov	 DWORD PTR [edx+4], 0
  00014	89 4a 08	 mov	 DWORD PTR [edx+8], ecx

; 1631 :         _Nodeptr _Trynode = _Result._Location._Parent;
; 1632 :         while (!_Trynode->_Isnil) {

  00017	80 78 0d 00	 cmp	 BYTE PTR [eax+13], 0
  0001b	75 28		 jne	 SHORT $LN13@Find_lower
; File C:\Program Files\Microsoft Visual Studio\2022\Professional\VC\Tools\MSVC\14.44.35207\include\type_traits

; 2380 :         return _Left < _Right;

  0001d	8b 4d 0c	 mov	 ecx, DWORD PTR __Keyval$[ebp]
  00020	56		 push	 esi
  00021	8b 31		 mov	 esi, DWORD PTR [ecx]
$LL2@Find_lower:
; File C:\Program Files\Microsoft Visual Studio\2022\Professional\VC\Tools\MSVC\14.44.35207\include\xtree

; 1633 :             _Result._Location._Parent = _Trynode;

  00023	89 02		 mov	 DWORD PTR [edx], eax
; File C:\Program Files\Microsoft Visual Studio\2022\Professional\VC\Tools\MSVC\14.44.35207\include\type_traits

; 2380 :         return _Left < _Right;

  00025	39 70 10	 cmp	 DWORD PTR [eax+16], esi
; File C:\Program Files\Microsoft Visual Studio\2022\Professional\VC\Tools\MSVC\14.44.35207\include\xtree

; 1634 :             if (_DEBUG_LT_PRED(_Getcomp(), _Traits::_Kfn(_Trynode->_Myval), _Keyval)) {

  00028	73 07		 jae	 SHORT $LN4@Find_lower

; 1635 :                 _Result._Location._Child = _Tree_child::_Right;
; 1636 :                 _Trynode                 = _Trynode->_Right;

  0002a	8b 40 08	 mov	 eax, DWORD PTR [eax+8]
  0002d	33 c9		 xor	 ecx, ecx

; 1637 :             } else {

  0002f	eb 0a		 jmp	 SHORT $LN5@Find_lower
$LN4@Find_lower:

; 1638 :                 _Result._Location._Child = _Tree_child::_Left;
; 1639 :                 _Result._Bound           = _Trynode;

  00031	89 42 08	 mov	 DWORD PTR [edx+8], eax

; 1640 :                 _Trynode                 = _Trynode->_Left;

  00034	b9 01 00 00 00	 mov	 ecx, 1
  00039	8b 00		 mov	 eax, DWORD PTR [eax]
$LN5@Find_lower:

; 1631 :         _Nodeptr _Trynode = _Result._Location._Parent;
; 1632 :         while (!_Trynode->_Isnil) {

  0003b	89 4a 04	 mov	 DWORD PTR [edx+4], ecx
  0003e	80 78 0d 00	 cmp	 BYTE PTR [eax+13], 0
  00042	74 df		 je	 SHORT $LL2@Find_lower
  00044	5e		 pop	 esi
$LN13@Find_lower:

; 1641 :             }
; 1642 :         }
; 1643 : 
; 1644 :         return _Result;
; 1645 :     }

  00045	8b c2		 mov	 eax, edx
  00047	5d		 pop	 ebp
  00048	c2 08 00	 ret	 8
??$_Find_lower_bound@K@?$_Tree@V?$_Tmap_traits@KPAVCCtrl@@U?$less@K@std@@V?$allocator@U?$pair@$$CBKPAVCCtrl@@@std@@@3@$0A@@std@@@std@@IBE?AU?$_Tree_find_result@PAU?$_Tree_node@U?$pair@$$CBKPAVCCtrl@@@std@@PAX@std@@@1@ABK@Z ENDP ; std::_Tree<std::_Tmap_traits<unsigned long,CCtrl *,std::less<unsigned long>,std::allocator<std::pair<unsigned long const ,CCtrl *> >,0> >::_Find_lower_bound<unsigned long>
_TEXT	ENDS
; Function compile flags: /Ogtp
; File C:\IAGOS\server\v18\Source\Source\_Common\Mover.h
;	COMDAT ?IsDie@CMover@@QAEHXZ
_TEXT	SEGMENT
?IsDie@CMover@@QAEHXZ PROC				; CMover::IsDie, COMDAT
; _this$ = ecx

; 1250 : 	BOOL			IsDie() { return m_pActMover->IsDie() || m_nHitPoint == 0; }

  00000	8b 81 38 02 00
	00		 mov	 eax, DWORD PTR [ecx+568]
  00006	f7 40 04 00 00
	00 08		 test	 DWORD PTR [eax+4], 134217728 ; 08000000H
  0000d	75 0c		 jne	 SHORT $LN3@IsDie
  0000f	83 b9 f8 05 00
	00 00		 cmp	 DWORD PTR [ecx+1528], 0
  00016	74 03		 je	 SHORT $LN3@IsDie
  00018	33 c0		 xor	 eax, eax
  0001a	c3		 ret	 0
$LN3@IsDie:
  0001b	b8 01 00 00 00	 mov	 eax, 1
  00020	c3		 ret	 0
?IsDie@CMover@@QAEHXZ ENDP				; CMover::IsDie
_TEXT	ENDS
; Function compile flags: /Ogtp
; File C:\IAGOS\server\v18\Source\Source\_Common\Mover.h
; File C:\IAGOS\server\v18\Source\Source\_Common\Project.h
; File C:\IAGOS\server\v18\Source\Source\_Common\Mover.h
; File C:\IAGOS\server\v18\Source\Source\_Common\Project.h
; File C:\IAGOS\server\v18\Source\Source\_Common\Mover.h
;	COMDAT ?GetPropA@CMover@@QAEPAUMoverProp@@XZ
_TEXT	SEGMENT
?GetPropA@CMover@@QAEPAUMoverProp@@XZ PROC		; CMover::GetPropA, COMDAT
; _this$ = ecx

; 1020 : 	MoverProp*		GetProp() { return prj.GetMoverProp( m_dwIndex ); }	// °´ĂĽŔÇ ÇÁ·ÎĆŰĆĽ ľň±â 	

  00000	8b 81 74 01 00
	00		 mov	 eax, DWORD PTR [ecx+372]
; File C:\IAGOS\server\v18\Source\Source\_Common\Project.h

; 1406 : 	VERIFY_RANGE( nIndex, 0, m_nMoverPropSize, "GetMoverProp range_error", NULL );

  00006	8b 0d b4 01 00
	00		 mov	 ecx, DWORD PTR ?prj@@3VCProject@@A+436
  0000c	85 c0		 test	 eax, eax
  0000e	78 11		 js	 SHORT $LN8@GetPropA
  00010	3b c1		 cmp	 eax, ecx
  00012	7d 0d		 jge	 SHORT $LN8@GetPropA

; 1407 : 	return m_pPropMover + nIndex;

  00014	69 c0 90 06 00
	00		 imul	 eax, eax, 1680
  0001a	03 05 b8 01 00
	00		 add	 eax, DWORD PTR ?prj@@3VCProject@@A+440
; File C:\IAGOS\server\v18\Source\Source\_Common\Mover.h

; 1020 : 	MoverProp*		GetProp() { return prj.GetMoverProp( m_dwIndex ); }	// °´ĂĽŔÇ ÇÁ·ÎĆŰĆĽ ľň±â 	

  00020	c3		 ret	 0
$LN8@GetPropA:
; File C:\IAGOS\server\v18\Source\Source\_Common\Project.h

; 579  : 	LPCTSTR szErr = Error( _T( "%s min:%d, max:%d, index:%d" ), szMsg, nMin, nMax, nIndex ); 

  00021	50		 push	 eax
  00022	51		 push	 ecx
  00023	6a 00		 push	 0
  00025	68 00 00 00 00	 push	 OFFSET ??_C@_0BJ@GKPOBPPI@GetMoverProp?5range_error@
  0002a	68 00 00 00 00	 push	 OFFSET ??_C@_0BM@HMFGHCP@?$CFs?5min?3?$CFd?0?5max?3?$CFd?0?5index?3?$CFd@
  0002f	e8 00 00 00 00	 call	 ?Error@@YAPBDPBDZZ	; Error
  00034	83 c4 14	 add	 esp, 20			; 00000014H
; File C:\IAGOS\server\v18\Source\Source\_Common\Mover.h

; 1020 : 	MoverProp*		GetProp() { return prj.GetMoverProp( m_dwIndex ); }	// °´ĂĽŔÇ ÇÁ·ÎĆŰĆĽ ľň±â 	

  00037	33 c0		 xor	 eax, eax
  00039	c3		 ret	 0
?GetPropA@CMover@@QAEPAUMoverProp@@XZ ENDP		; CMover::GetPropA
_TEXT	ENDS
; Function compile flags: /Ogtp
; File C:\Program Files\Microsoft Visual Studio\2022\Professional\VC\Tools\MSVC\14.44.35207\include\xtree
;	COMDAT ??E?$_Tree_unchecked_const_iterator@V?$_Tree_val@U?$_Tree_simple_types@U?$pair@$$CBKPAVCMover@@@std@@@std@@@std@@U_Iterator_base0@2@@std@@QAEAAV01@XZ
_TEXT	SEGMENT
??E?$_Tree_unchecked_const_iterator@V?$_Tree_val@U?$_Tree_simple_types@U?$pair@$$CBKPAVCMover@@@std@@@std@@@std@@U_Iterator_base0@2@@std@@QAEAAV01@XZ PROC ; std::_Tree_unchecked_const_iterator<std::_Tree_val<std::_Tree_simple_types<std::pair<unsigned long const ,CMover *> > >,std::_Iterator_base0>::operator++, COMDAT
; _this$ = ecx

; 49   :     _Tree_unchecked_const_iterator& operator++() noexcept {

  00000	56		 push	 esi
  00001	8b f1		 mov	 esi, ecx
  00003	57		 push	 edi

; 50   :         if (_Ptr->_Right->_Isnil) { // climb looking for right subtree

  00004	8b 16		 mov	 edx, DWORD PTR [esi]
  00006	8b 7a 08	 mov	 edi, DWORD PTR [edx+8]
  00009	80 7f 0d 00	 cmp	 BYTE PTR [edi+13], 0
  0000d	74 22		 je	 SHORT $LN4@operator

; 51   :             _Nodeptr _Pnode;
; 52   :             while (!(_Pnode = _Ptr->_Parent)->_Isnil && _Ptr == _Pnode->_Right) {

  0000f	8b 42 04	 mov	 eax, DWORD PTR [edx+4]
  00012	80 78 0d 00	 cmp	 BYTE PTR [eax+13], 0
  00016	75 12		 jne	 SHORT $LN21@operator
$LL2@operator:
  00018	3b 50 08	 cmp	 edx, DWORD PTR [eax+8]
  0001b	75 0d		 jne	 SHORT $LN21@operator

; 53   :                 _Ptr = _Pnode; // ==> parent while right subtree

  0001d	89 06		 mov	 DWORD PTR [esi], eax
  0001f	8b d0		 mov	 edx, eax
  00021	8b 40 04	 mov	 eax, DWORD PTR [eax+4]
  00024	80 78 0d 00	 cmp	 BYTE PTR [eax+13], 0
  00028	74 ee		 je	 SHORT $LL2@operator
$LN21@operator:

; 54   :             }
; 55   : 
; 56   :             _Ptr = _Pnode; // ==> parent (head if end())
; 57   :         } else {
; 58   :             _Ptr = _Mytree::_Min(_Ptr->_Right); // ==> smallest of right subtree
; 59   :         }
; 60   : 
; 61   :         return *this;

  0002a	89 06		 mov	 DWORD PTR [esi], eax

; 62   :     }

  0002c	8b c6		 mov	 eax, esi
  0002e	5f		 pop	 edi
  0002f	5e		 pop	 esi
  00030	c3		 ret	 0
$LN4@operator:

; 476  :         while (!_Pnode->_Left->_Isnil) {

  00031	8b 0f		 mov	 ecx, DWORD PTR [edi]
  00033	80 79 0d 00	 cmp	 BYTE PTR [ecx+13], 0
  00037	75 13		 jne	 SHORT $LN10@operator
  00039	0f 1f 80 00 00
	00 00		 npad	 7
$LL9@operator:
  00040	8b 01		 mov	 eax, DWORD PTR [ecx]

; 477  :             _Pnode = _Pnode->_Left;

  00042	8b f9		 mov	 edi, ecx
  00044	8b c8		 mov	 ecx, eax
  00046	80 78 0d 00	 cmp	 BYTE PTR [eax+13], 0
  0004a	74 f4		 je	 SHORT $LL9@operator
$LN10@operator:

; 54   :             }
; 55   : 
; 56   :             _Ptr = _Pnode; // ==> parent (head if end())
; 57   :         } else {
; 58   :             _Ptr = _Mytree::_Min(_Ptr->_Right); // ==> smallest of right subtree
; 59   :         }
; 60   : 
; 61   :         return *this;

  0004c	89 3e		 mov	 DWORD PTR [esi], edi

; 62   :     }

  0004e	8b c6		 mov	 eax, esi
  00050	5f		 pop	 edi
  00051	5e		 pop	 esi
  00052	c3		 ret	 0
??E?$_Tree_unchecked_const_iterator@V?$_Tree_val@U?$_Tree_simple_types@U?$pair@$$CBKPAVCMover@@@std@@@std@@@std@@U_Iterator_base0@2@@std@@QAEAAV01@XZ ENDP ; std::_Tree_unchecked_const_iterator<std::_Tree_val<std::_Tree_simple_types<std::pair<unsigned long const ,CMover *> > >,std::_Iterator_base0>::operator++
_TEXT	ENDS
; Function compile flags: /Ogtp
;	COMDAT ??1?$pair@$$CBV?$basic_string@DU?$char_traits@D@std@@V?$allocator@D@2@@std@@K@std@@QAE@XZ
_TEXT	SEGMENT
??1?$pair@$$CBV?$basic_string@DU?$char_traits@D@std@@V?$allocator@D@2@@std@@K@std@@QAE@XZ PROC ; std::pair<std::basic_string<char,std::char_traits<char>,std::allocator<char> > const ,unsigned long>::~pair<std::basic_string<char,std::char_traits<char>,std::allocator<char> > const ,unsigned long>, COMDAT
; _this$ = ecx
  00000	e9 00 00 00 00	 jmp	 ??1?$basic_string@DU?$char_traits@D@std@@V?$allocator@D@2@@std@@QAE@XZ ; std::basic_string<char,std::char_traits<char>,std::allocator<char> >::~basic_string<char,std::char_traits<char>,std::allocator<char> >
??1?$pair@$$CBV?$basic_string@DU?$char_traits@D@std@@V?$allocator@D@2@@std@@K@std@@QAE@XZ ENDP ; std::pair<std::basic_string<char,std::char_traits<char>,std::allocator<char> > const ,unsigned long>::~pair<std::basic_string<char,std::char_traits<char>,std::allocator<char> > const ,unsigned long>
_TEXT	ENDS
; Function compile flags: /Ogtp
; File C:\Program Files\Microsoft Visual Studio\2022\Professional\VC\Tools\MSVC\14.44.35207\include\xtree
;	COMDAT ??E?$_Tree_unchecked_const_iterator@V?$_Tree_val@U?$_Tree_simple_types@U?$pair@$$CBV?$basic_string@DU?$char_traits@D@std@@V?$allocator@D@2@@std@@K@std@@@std@@@std@@U_Iterator_base0@2@@std@@QAEAAV01@XZ
_TEXT	SEGMENT
??E?$_Tree_unchecked_const_iterator@V?$_Tree_val@U?$_Tree_simple_types@U?$pair@$$CBV?$basic_string@DU?$char_traits@D@std@@V?$allocator@D@2@@std@@K@std@@@std@@@std@@U_Iterator_base0@2@@std@@QAEAAV01@XZ PROC ; std::_Tree_unchecked_const_iterator<std::_Tree_val<std::_Tree_simple_types<std::pair<std::basic_string<char,std::char_traits<char>,std::allocator<char> > const ,unsigned long> > >,std::_Iterator_base0>::operator++, COMDAT
; _this$ = ecx

; 49   :     _Tree_unchecked_const_iterator& operator++() noexcept {

  00000	56		 push	 esi
  00001	8b f1		 mov	 esi, ecx
  00003	57		 push	 edi

; 50   :         if (_Ptr->_Right->_Isnil) { // climb looking for right subtree

  00004	8b 16		 mov	 edx, DWORD PTR [esi]
  00006	8b 7a 08	 mov	 edi, DWORD PTR [edx+8]
  00009	80 7f 0d 00	 cmp	 BYTE PTR [edi+13], 0
  0000d	74 22		 je	 SHORT $LN4@operator

; 51   :             _Nodeptr _Pnode;
; 52   :             while (!(_Pnode = _Ptr->_Parent)->_Isnil && _Ptr == _Pnode->_Right) {

  0000f	8b 42 04	 mov	 eax, DWORD PTR [edx+4]
  00012	80 78 0d 00	 cmp	 BYTE PTR [eax+13], 0
  00016	75 12		 jne	 SHORT $LN21@operator
$LL2@operator:
  00018	3b 50 08	 cmp	 edx, DWORD PTR [eax+8]
  0001b	75 0d		 jne	 SHORT $LN21@operator

; 53   :                 _Ptr = _Pnode; // ==> parent while right subtree

  0001d	89 06		 mov	 DWORD PTR [esi], eax
  0001f	8b d0		 mov	 edx, eax
  00021	8b 40 04	 mov	 eax, DWORD PTR [eax+4]
  00024	80 78 0d 00	 cmp	 BYTE PTR [eax+13], 0
  00028	74 ee		 je	 SHORT $LL2@operator
$LN21@operator:

; 54   :             }
; 55   : 
; 56   :             _Ptr = _Pnode; // ==> parent (head if end())
; 57   :         } else {
; 58   :             _Ptr = _Mytree::_Min(_Ptr->_Right); // ==> smallest of right subtree
; 59   :         }
; 60   : 
; 61   :         return *this;

  0002a	89 06		 mov	 DWORD PTR [esi], eax

; 62   :     }

  0002c	8b c6		 mov	 eax, esi
  0002e	5f		 pop	 edi
  0002f	5e		 pop	 esi
  00030	c3		 ret	 0
$LN4@operator:

; 476  :         while (!_Pnode->_Left->_Isnil) {

  00031	8b 0f		 mov	 ecx, DWORD PTR [edi]
  00033	80 79 0d 00	 cmp	 BYTE PTR [ecx+13], 0
  00037	75 13		 jne	 SHORT $LN10@operator
  00039	0f 1f 80 00 00
	00 00		 npad	 7
$LL9@operator:
  00040	8b 01		 mov	 eax, DWORD PTR [ecx]

; 477  :             _Pnode = _Pnode->_Left;

  00042	8b f9		 mov	 edi, ecx
  00044	8b c8		 mov	 ecx, eax
  00046	80 78 0d 00	 cmp	 BYTE PTR [eax+13], 0
  0004a	74 f4		 je	 SHORT $LL9@operator
$LN10@operator:

; 54   :             }
; 55   : 
; 56   :             _Ptr = _Pnode; // ==> parent (head if end())
; 57   :         } else {
; 58   :             _Ptr = _Mytree::_Min(_Ptr->_Right); // ==> smallest of right subtree
; 59   :         }
; 60   : 
; 61   :         return *this;

  0004c	89 3e		 mov	 DWORD PTR [esi], edi

; 62   :     }

  0004e	8b c6		 mov	 eax, esi
  00050	5f		 pop	 edi
  00051	5e		 pop	 esi
  00052	c3		 ret	 0
??E?$_Tree_unchecked_const_iterator@V?$_Tree_val@U?$_Tree_simple_types@U?$pair@$$CBV?$basic_string@DU?$char_traits@D@std@@V?$allocator@D@2@@std@@K@std@@@std@@@std@@U_Iterator_base0@2@@std@@QAEAAV01@XZ ENDP ; std::_Tree_unchecked_const_iterator<std::_Tree_val<std::_Tree_simple_types<std::pair<std::basic_string<char,std::char_traits<char>,std::allocator<char> > const ,unsigned long> > >,std::_Iterator_base0>::operator++
_TEXT	ENDS
; Function compile flags: /Ogtp
; File C:\Program Files\Microsoft Visual Studio\2022\Professional\VC\Tools\MSVC\14.44.35207\include\xtree
;	COMDAT ?_Insert_node@?$_Tree_val@U?$_Tree_simple_types@U?$pair@$$CBKPAVCMover@@@std@@@std@@@std@@QAEPAU?$_Tree_node@U?$pair@$$CBKPAVCMover@@@std@@PAX@2@U?$_Tree_id@PAU?$_Tree_node@U?$pair@$$CBKPAVCMover@@@std@@PAX@std@@@2@QAU32@@Z
_TEXT	SEGMENT
__Head$1$ = -4						; size = 4
__Loc$ = 8						; size = 8
__Newnode$ = 16						; size = 4
?_Insert_node@?$_Tree_val@U?$_Tree_simple_types@U?$pair@$$CBKPAVCMover@@@std@@@std@@@std@@QAEPAU?$_Tree_node@U?$pair@$$CBKPAVCMover@@@std@@PAX@2@U?$_Tree_id@PAU?$_Tree_node@U?$pair@$$CBKPAVCMover@@@std@@PAX@std@@@2@QAU32@@Z PROC ; std::_Tree_val<std::_Tree_simple_types<std::pair<unsigned long const ,CMover *> > >::_Insert_node, COMDAT
; _this$ = ecx

; 669  :     _Nodeptr _Insert_node(const _Tree_id<_Nodeptr> _Loc, const _Nodeptr _Newnode) noexcept {

  00000	55		 push	 ebp
  00001	8b ec		 mov	 ebp, esp
  00003	51		 push	 ecx

; 670  :         ++_Mysize;
; 671  :         const auto _Head  = _Myhead;
; 672  :         _Newnode->_Parent = _Loc._Parent;

  00004	8b 55 08	 mov	 edx, DWORD PTR __Loc$[ebp]
  00007	53		 push	 ebx
  00008	8b d9		 mov	 ebx, ecx
  0000a	57		 push	 edi
  0000b	8b 7d 10	 mov	 edi, DWORD PTR __Newnode$[ebp]
  0000e	8b 03		 mov	 eax, DWORD PTR [ebx]
  00010	ff 43 04	 inc	 DWORD PTR [ebx+4]
  00013	89 45 fc	 mov	 DWORD PTR __Head$1$[ebp], eax
  00016	89 57 04	 mov	 DWORD PTR [edi+4], edx

; 673  :         if (_Loc._Parent == _Head) { // first node in tree, just set head values

  00019	3b d0		 cmp	 edx, eax
  0001b	75 16		 jne	 SHORT $LN5@Insert_nod

; 674  :             _Head->_Left     = _Newnode;

  0001d	89 38		 mov	 DWORD PTR [eax], edi

; 675  :             _Head->_Parent   = _Newnode;

  0001f	89 78 04	 mov	 DWORD PTR [eax+4], edi

; 676  :             _Head->_Right    = _Newnode;

  00022	89 78 08	 mov	 DWORD PTR [eax+8], edi

; 735  :         return _Newnode;
; 736  :     }

  00025	8b c7		 mov	 eax, edi
  00027	c6 47 0c 01	 mov	 BYTE PTR [edi+12], 1
  0002b	5f		 pop	 edi
  0002c	5b		 pop	 ebx
  0002d	8b e5		 mov	 esp, ebp
  0002f	5d		 pop	 ebp
  00030	c2 0c 00	 ret	 12			; 0000000cH
$LN5@Insert_nod:

; 677  :             _Newnode->_Color = _Black; // the root is black
; 678  :             return _Newnode;
; 679  :         }
; 680  : 
; 681  :         _STL_INTERNAL_CHECK(_Loc._Child != _Tree_child::_Unused);
; 682  :         if (_Loc._Child == _Tree_child::_Right) { // add to right of _Loc._Parent

  00033	83 7d 0c 00	 cmp	 DWORD PTR __Loc$[ebp+4], 0
  00037	75 0d		 jne	 SHORT $LN6@Insert_nod

; 683  :             _STL_INTERNAL_CHECK(_Loc._Parent->_Right->_Isnil);
; 684  :             _Loc._Parent->_Right = _Newnode;

  00039	89 7a 08	 mov	 DWORD PTR [edx+8], edi

; 685  :             if (_Loc._Parent == _Head->_Right) { // remember rightmost node

  0003c	3b 50 08	 cmp	 edx, DWORD PTR [eax+8]
  0003f	75 0d		 jne	 SHORT $LN9@Insert_nod

; 686  :                 _Head->_Right = _Newnode;

  00041	89 78 08	 mov	 DWORD PTR [eax+8], edi

; 687  :             }
; 688  :         } else { // add to left of _Loc._Parent

  00044	eb 08		 jmp	 SHORT $LN9@Insert_nod
$LN6@Insert_nod:

; 689  :             _STL_INTERNAL_CHECK(_Loc._Parent->_Left->_Isnil);
; 690  :             _Loc._Parent->_Left = _Newnode;

  00046	89 3a		 mov	 DWORD PTR [edx], edi

; 691  :             if (_Loc._Parent == _Head->_Left) { // remember leftmost node

  00048	3b 10		 cmp	 edx, DWORD PTR [eax]
  0004a	75 02		 jne	 SHORT $LN9@Insert_nod

; 692  :                 _Head->_Left = _Newnode;

  0004c	89 38		 mov	 DWORD PTR [eax], edi
$LN9@Insert_nod:

; 693  :             }
; 694  :         }
; 695  : 
; 696  :         for (_Nodeptr _Pnode = _Newnode; _Pnode->_Parent->_Color == _Red;) {

  0004e	8b 4f 04	 mov	 ecx, DWORD PTR [edi+4]
  00051	8b c7		 mov	 eax, edi
  00053	80 79 0c 00	 cmp	 BYTE PTR [ecx+12], 0
  00057	0f 85 7d 01 00
	00		 jne	 $LN3@Insert_nod
  0005d	56		 push	 esi
  0005e	66 90		 npad	 2
$LL4@Insert_nod:

; 697  :             if (_Pnode->_Parent == _Pnode->_Parent->_Parent->_Left) { // fixup red-red in left subtree

  00060	8b 50 04	 mov	 edx, DWORD PTR [eax+4]
  00063	8b 72 04	 mov	 esi, DWORD PTR [edx+4]
  00066	8b 0e		 mov	 ecx, DWORD PTR [esi]
  00068	3b d1		 cmp	 edx, ecx
  0006a	0f 85 aa 00 00
	00		 jne	 $LN10@Insert_nod

; 698  :                 const auto _Parent_sibling = _Pnode->_Parent->_Parent->_Right;

  00070	8b 4e 08	 mov	 ecx, DWORD PTR [esi+8]

; 699  :                 if (_Parent_sibling->_Color == _Red) { // parent's sibling has two red children, blacken both

  00073	80 79 0c 00	 cmp	 BYTE PTR [ecx+12], 0
  00077	0f 84 a3 00 00
	00		 je	 $LN82@Insert_nod

; 700  :                     _Pnode->_Parent->_Color          = _Black;
; 701  :                     _Parent_sibling->_Color          = _Black;
; 702  :                     _Pnode->_Parent->_Parent->_Color = _Red;
; 703  :                     _Pnode                           = _Pnode->_Parent->_Parent;
; 704  :                 } else { // parent's sibling has red and black children
; 705  :                     if (_Pnode == _Pnode->_Parent->_Right) { // rotate right child to left

  0007d	8b 72 08	 mov	 esi, DWORD PTR [edx+8]
  00080	3b c6		 cmp	 eax, esi
  00082	75 37		 jne	 SHORT $LN57@Insert_nod

; 485  :         _Wherenode->_Right = _Pnode->_Left;

  00084	8b 0e		 mov	 ecx, DWORD PTR [esi]

; 706  :                         _Pnode = _Pnode->_Parent;

  00086	8b c2		 mov	 eax, edx

; 485  :         _Wherenode->_Right = _Pnode->_Left;

  00088	89 4a 08	 mov	 DWORD PTR [edx+8], ecx

; 486  : 
; 487  :         if (!_Pnode->_Left->_Isnil) {

  0008b	8b 0e		 mov	 ecx, DWORD PTR [esi]
  0008d	80 79 0d 00	 cmp	 BYTE PTR [ecx+13], 0
  00091	75 03		 jne	 SHORT $LN21@Insert_nod

; 488  :             _Pnode->_Left->_Parent = _Wherenode;

  00093	89 41 04	 mov	 DWORD PTR [ecx+4], eax
$LN21@Insert_nod:

; 489  :         }
; 490  : 
; 491  :         _Pnode->_Parent = _Wherenode->_Parent;

  00096	8b 4a 04	 mov	 ecx, DWORD PTR [edx+4]
  00099	89 4e 04	 mov	 DWORD PTR [esi+4], ecx

; 492  : 
; 493  :         if (_Wherenode == _Myhead->_Parent) {

  0009c	8b 0b		 mov	 ecx, DWORD PTR [ebx]
  0009e	3b 41 04	 cmp	 eax, DWORD PTR [ecx+4]
  000a1	75 05		 jne	 SHORT $LN22@Insert_nod

; 494  :             _Myhead->_Parent = _Pnode;

  000a3	89 71 04	 mov	 DWORD PTR [ecx+4], esi
  000a6	eb 0e		 jmp	 SHORT $LN25@Insert_nod
$LN22@Insert_nod:

; 495  :         } else if (_Wherenode == _Wherenode->_Parent->_Left) {

  000a8	8b 4a 04	 mov	 ecx, DWORD PTR [edx+4]
  000ab	3b 01		 cmp	 eax, DWORD PTR [ecx]
  000ad	75 04		 jne	 SHORT $LN24@Insert_nod

; 496  :             _Wherenode->_Parent->_Left = _Pnode;

  000af	89 31		 mov	 DWORD PTR [ecx], esi

; 497  :         } else {

  000b1	eb 03		 jmp	 SHORT $LN25@Insert_nod
$LN24@Insert_nod:

; 498  :             _Wherenode->_Parent->_Right = _Pnode;

  000b3	89 71 08	 mov	 DWORD PTR [ecx+8], esi
$LN25@Insert_nod:

; 499  :         }
; 500  : 
; 501  :         _Pnode->_Left       = _Wherenode;

  000b6	89 06		 mov	 DWORD PTR [esi], eax

; 502  :         _Wherenode->_Parent = _Pnode;

  000b8	89 70 04	 mov	 DWORD PTR [eax+4], esi
$LN57@Insert_nod:

; 707  :                         _Lrotate(_Pnode);
; 708  :                     }
; 709  : 
; 710  :                     _Pnode->_Parent->_Color          = _Black; // propagate red up

  000bb	8b 48 04	 mov	 ecx, DWORD PTR [eax+4]
  000be	c6 41 0c 01	 mov	 BYTE PTR [ecx+12], 1

; 711  :                     _Pnode->_Parent->_Parent->_Color = _Red;

  000c2	8b 48 04	 mov	 ecx, DWORD PTR [eax+4]
  000c5	8b 49 04	 mov	 ecx, DWORD PTR [ecx+4]
  000c8	c6 41 0c 00	 mov	 BYTE PTR [ecx+12], 0

; 712  :                     _Rrotate(_Pnode->_Parent->_Parent);

  000cc	8b 48 04	 mov	 ecx, DWORD PTR [eax+4]
  000cf	8b 51 04	 mov	 edx, DWORD PTR [ecx+4]

; 506  :         _Nodeptr _Pnode   = _Wherenode->_Left;

  000d2	8b 32		 mov	 esi, DWORD PTR [edx]

; 507  :         _Wherenode->_Left = _Pnode->_Right;

  000d4	8b 4e 08	 mov	 ecx, DWORD PTR [esi+8]
  000d7	89 0a		 mov	 DWORD PTR [edx], ecx

; 508  : 
; 509  :         if (!_Pnode->_Right->_Isnil) {

  000d9	8b 4e 08	 mov	 ecx, DWORD PTR [esi+8]
  000dc	80 79 0d 00	 cmp	 BYTE PTR [ecx+13], 0
  000e0	75 03		 jne	 SHORT $LN29@Insert_nod

; 510  :             _Pnode->_Right->_Parent = _Wherenode;

  000e2	89 51 04	 mov	 DWORD PTR [ecx+4], edx
$LN29@Insert_nod:

; 511  :         }
; 512  : 
; 513  :         _Pnode->_Parent = _Wherenode->_Parent;

  000e5	8b 4a 04	 mov	 ecx, DWORD PTR [edx+4]
  000e8	89 4e 04	 mov	 DWORD PTR [esi+4], ecx

; 514  : 
; 515  :         if (_Wherenode == _Myhead->_Parent) {

  000eb	8b 0b		 mov	 ecx, DWORD PTR [ebx]
  000ed	3b 51 04	 cmp	 edx, DWORD PTR [ecx+4]
  000f0	75 0b		 jne	 SHORT $LN30@Insert_nod

; 516  :             _Myhead->_Parent = _Pnode;

  000f2	89 71 04	 mov	 DWORD PTR [ecx+4], esi

; 521  :         }
; 522  : 
; 523  :         _Pnode->_Right      = _Wherenode;

  000f5	89 56 08	 mov	 DWORD PTR [esi+8], edx

; 713  :                 }
; 714  :             } else { // fixup red-red in right subtree

  000f8	e9 cc 00 00 00	 jmp	 $LN81@Insert_nod
$LN30@Insert_nod:

; 517  :         } else if (_Wherenode == _Wherenode->_Parent->_Right) {

  000fd	8b 4a 04	 mov	 ecx, DWORD PTR [edx+4]
  00100	3b 51 08	 cmp	 edx, DWORD PTR [ecx+8]
  00103	75 0b		 jne	 SHORT $LN32@Insert_nod

; 518  :             _Wherenode->_Parent->_Right = _Pnode;

  00105	89 71 08	 mov	 DWORD PTR [ecx+8], esi

; 521  :         }
; 522  : 
; 523  :         _Pnode->_Right      = _Wherenode;

  00108	89 56 08	 mov	 DWORD PTR [esi+8], edx

; 713  :                 }
; 714  :             } else { // fixup red-red in right subtree

  0010b	e9 b9 00 00 00	 jmp	 $LN81@Insert_nod
$LN32@Insert_nod:

; 520  :             _Wherenode->_Parent->_Left = _Pnode;

  00110	89 31		 mov	 DWORD PTR [ecx], esi

; 521  :         }
; 522  : 
; 523  :         _Pnode->_Right      = _Wherenode;

  00112	89 56 08	 mov	 DWORD PTR [esi+8], edx

; 713  :                 }
; 714  :             } else { // fixup red-red in right subtree

  00115	e9 af 00 00 00	 jmp	 $LN81@Insert_nod
$LN10@Insert_nod:

; 715  :                 const auto _Parent_sibling = _Pnode->_Parent->_Parent->_Left;
; 716  :                 if (_Parent_sibling->_Color == _Red) { // parent's sibling has two red children, blacken both

  0011a	80 79 0c 00	 cmp	 BYTE PTR [ecx+12], 0
  0011e	75 1d		 jne	 SHORT $LN15@Insert_nod
$LN82@Insert_nod:

; 693  :             }
; 694  :         }
; 695  : 
; 696  :         for (_Nodeptr _Pnode = _Newnode; _Pnode->_Parent->_Color == _Red;) {

  00120	c6 42 0c 01	 mov	 BYTE PTR [edx+12], 1
  00124	c6 41 0c 01	 mov	 BYTE PTR [ecx+12], 1
  00128	8b 48 04	 mov	 ecx, DWORD PTR [eax+4]
  0012b	8b 49 04	 mov	 ecx, DWORD PTR [ecx+4]
  0012e	c6 41 0c 00	 mov	 BYTE PTR [ecx+12], 0
  00132	8b 48 04	 mov	 ecx, DWORD PTR [eax+4]
  00135	8b 41 04	 mov	 eax, DWORD PTR [ecx+4]
  00138	e9 8f 00 00 00	 jmp	 $LN2@Insert_nod
$LN15@Insert_nod:

; 717  :                     _Pnode->_Parent->_Color          = _Black;
; 718  :                     _Parent_sibling->_Color          = _Black;
; 719  :                     _Pnode->_Parent->_Parent->_Color = _Red;
; 720  :                     _Pnode                           = _Pnode->_Parent->_Parent;
; 721  :                 } else { // parent's sibling has red and black children
; 722  :                     if (_Pnode == _Pnode->_Parent->_Left) { // rotate left child to right

  0013d	8b 32		 mov	 esi, DWORD PTR [edx]
  0013f	3b c6		 cmp	 eax, esi
  00141	75 3a		 jne	 SHORT $LN42@Insert_nod

; 507  :         _Wherenode->_Left = _Pnode->_Right;

  00143	8b 4e 08	 mov	 ecx, DWORD PTR [esi+8]

; 723  :                         _Pnode = _Pnode->_Parent;

  00146	8b c2		 mov	 eax, edx

; 507  :         _Wherenode->_Left = _Pnode->_Right;

  00148	89 08		 mov	 DWORD PTR [eax], ecx

; 508  : 
; 509  :         if (!_Pnode->_Right->_Isnil) {

  0014a	8b 4e 08	 mov	 ecx, DWORD PTR [esi+8]
  0014d	80 79 0d 00	 cmp	 BYTE PTR [ecx+13], 0
  00151	75 03		 jne	 SHORT $LN37@Insert_nod

; 510  :             _Pnode->_Right->_Parent = _Wherenode;

  00153	89 41 04	 mov	 DWORD PTR [ecx+4], eax
$LN37@Insert_nod:

; 511  :         }
; 512  : 
; 513  :         _Pnode->_Parent = _Wherenode->_Parent;

  00156	8b 4a 04	 mov	 ecx, DWORD PTR [edx+4]
  00159	89 4e 04	 mov	 DWORD PTR [esi+4], ecx

; 514  : 
; 515  :         if (_Wherenode == _Myhead->_Parent) {

  0015c	8b 0b		 mov	 ecx, DWORD PTR [ebx]
  0015e	3b 41 04	 cmp	 eax, DWORD PTR [ecx+4]
  00161	75 05		 jne	 SHORT $LN38@Insert_nod

; 516  :             _Myhead->_Parent = _Pnode;

  00163	89 71 04	 mov	 DWORD PTR [ecx+4], esi
  00166	eb 0f		 jmp	 SHORT $LN41@Insert_nod
$LN38@Insert_nod:

; 517  :         } else if (_Wherenode == _Wherenode->_Parent->_Right) {

  00168	8b 4a 04	 mov	 ecx, DWORD PTR [edx+4]
  0016b	3b 41 08	 cmp	 eax, DWORD PTR [ecx+8]
  0016e	75 05		 jne	 SHORT $LN40@Insert_nod

; 518  :             _Wherenode->_Parent->_Right = _Pnode;

  00170	89 71 08	 mov	 DWORD PTR [ecx+8], esi

; 519  :         } else {

  00173	eb 02		 jmp	 SHORT $LN41@Insert_nod
$LN40@Insert_nod:

; 520  :             _Wherenode->_Parent->_Left = _Pnode;

  00175	89 31		 mov	 DWORD PTR [ecx], esi
$LN41@Insert_nod:

; 521  :         }
; 522  : 
; 523  :         _Pnode->_Right      = _Wherenode;

  00177	89 46 08	 mov	 DWORD PTR [esi+8], eax

; 524  :         _Wherenode->_Parent = _Pnode;

  0017a	89 70 04	 mov	 DWORD PTR [eax+4], esi
$LN42@Insert_nod:

; 724  :                         _Rrotate(_Pnode);
; 725  :                     }
; 726  : 
; 727  :                     _Pnode->_Parent->_Color          = _Black; // propagate red up

  0017d	8b 48 04	 mov	 ecx, DWORD PTR [eax+4]
  00180	c6 41 0c 01	 mov	 BYTE PTR [ecx+12], 1

; 728  :                     _Pnode->_Parent->_Parent->_Color = _Red;

  00184	8b 48 04	 mov	 ecx, DWORD PTR [eax+4]
  00187	8b 49 04	 mov	 ecx, DWORD PTR [ecx+4]
  0018a	c6 41 0c 00	 mov	 BYTE PTR [ecx+12], 0

; 729  :                     _Lrotate(_Pnode->_Parent->_Parent);

  0018e	8b 48 04	 mov	 ecx, DWORD PTR [eax+4]
  00191	8b 51 04	 mov	 edx, DWORD PTR [ecx+4]

; 484  :         _Nodeptr _Pnode    = _Wherenode->_Right;

  00194	8b 72 08	 mov	 esi, DWORD PTR [edx+8]

; 485  :         _Wherenode->_Right = _Pnode->_Left;

  00197	8b 0e		 mov	 ecx, DWORD PTR [esi]
  00199	89 4a 08	 mov	 DWORD PTR [edx+8], ecx

; 486  : 
; 487  :         if (!_Pnode->_Left->_Isnil) {

  0019c	8b 0e		 mov	 ecx, DWORD PTR [esi]
  0019e	80 79 0d 00	 cmp	 BYTE PTR [ecx+13], 0
  001a2	75 03		 jne	 SHORT $LN45@Insert_nod

; 488  :             _Pnode->_Left->_Parent = _Wherenode;

  001a4	89 51 04	 mov	 DWORD PTR [ecx+4], edx
$LN45@Insert_nod:

; 489  :         }
; 490  : 
; 491  :         _Pnode->_Parent = _Wherenode->_Parent;

  001a7	8b 4a 04	 mov	 ecx, DWORD PTR [edx+4]
  001aa	89 4e 04	 mov	 DWORD PTR [esi+4], ecx

; 492  : 
; 493  :         if (_Wherenode == _Myhead->_Parent) {

  001ad	8b 0b		 mov	 ecx, DWORD PTR [ebx]
  001af	3b 51 04	 cmp	 edx, DWORD PTR [ecx+4]
  001b2	75 05		 jne	 SHORT $LN46@Insert_nod

; 494  :             _Myhead->_Parent = _Pnode;

  001b4	89 71 04	 mov	 DWORD PTR [ecx+4], esi
  001b7	eb 0e		 jmp	 SHORT $LN49@Insert_nod
$LN46@Insert_nod:

; 495  :         } else if (_Wherenode == _Wherenode->_Parent->_Left) {

  001b9	8b 4a 04	 mov	 ecx, DWORD PTR [edx+4]
  001bc	3b 11		 cmp	 edx, DWORD PTR [ecx]
  001be	75 04		 jne	 SHORT $LN48@Insert_nod

; 496  :             _Wherenode->_Parent->_Left = _Pnode;

  001c0	89 31		 mov	 DWORD PTR [ecx], esi

; 497  :         } else {

  001c2	eb 03		 jmp	 SHORT $LN49@Insert_nod
$LN48@Insert_nod:

; 498  :             _Wherenode->_Parent->_Right = _Pnode;

  001c4	89 71 08	 mov	 DWORD PTR [ecx+8], esi
$LN49@Insert_nod:

; 499  :         }
; 500  : 
; 501  :         _Pnode->_Left       = _Wherenode;

  001c7	89 16		 mov	 DWORD PTR [esi], edx
$LN81@Insert_nod:

; 693  :             }
; 694  :         }
; 695  : 
; 696  :         for (_Nodeptr _Pnode = _Newnode; _Pnode->_Parent->_Color == _Red;) {

  001c9	89 72 04	 mov	 DWORD PTR [edx+4], esi
$LN2@Insert_nod:
  001cc	8b 48 04	 mov	 ecx, DWORD PTR [eax+4]
  001cf	80 79 0c 00	 cmp	 BYTE PTR [ecx+12], 0
  001d3	0f 84 87 fe ff
	ff		 je	 $LL4@Insert_nod
  001d9	5e		 pop	 esi
$LN3@Insert_nod:

; 730  :                 }
; 731  :             }
; 732  :         }
; 733  : 
; 734  :         _Head->_Parent->_Color = _Black; // root is always black

  001da	8b 45 fc	 mov	 eax, DWORD PTR __Head$1$[ebp]
  001dd	8b 40 04	 mov	 eax, DWORD PTR [eax+4]
  001e0	c6 40 0c 01	 mov	 BYTE PTR [eax+12], 1

; 735  :         return _Newnode;
; 736  :     }

  001e4	8b c7		 mov	 eax, edi
  001e6	5f		 pop	 edi
  001e7	5b		 pop	 ebx
  001e8	8b e5		 mov	 esp, ebp
  001ea	5d		 pop	 ebp
  001eb	c2 0c 00	 ret	 12			; 0000000cH
?_Insert_node@?$_Tree_val@U?$_Tree_simple_types@U?$pair@$$CBKPAVCMover@@@std@@@std@@@std@@QAEPAU?$_Tree_node@U?$pair@$$CBKPAVCMover@@@std@@PAX@2@U?$_Tree_id@PAU?$_Tree_node@U?$pair@$$CBKPAVCMover@@@std@@PAX@std@@@2@QAU32@@Z ENDP ; std::_Tree_val<std::_Tree_simple_types<std::pair<unsigned long const ,CMover *> > >::_Insert_node
_TEXT	ENDS
; Function compile flags: /Ogtp
; File C:\Program Files\Microsoft Visual Studio\2022\Professional\VC\Tools\MSVC\14.44.35207\include\xtree
; File C:\Program Files\Microsoft Visual Studio\2022\Professional\VC\Tools\MSVC\14.44.35207\include\utility
; File C:\Program Files\Microsoft Visual Studio\2022\Professional\VC\Tools\MSVC\14.44.35207\include\xtree
;	COMDAT ?_Extract@?$_Tree_val@U?$_Tree_simple_types@U?$pair@$$CBKPAVCMover@@@std@@@std@@@std@@QAEPAU?$_Tree_node@U?$pair@$$CBKPAVCMover@@@std@@PAX@2@V?$_Tree_unchecked_const_iterator@V?$_Tree_val@U?$_Tree_simple_types@U?$pair@$$CBKPAVCMover@@@std@@@std@@@std@@U_Iterator_base0@2@@2@@Z
_TEXT	SEGMENT
tv1039 = -16						; size = 4
tv1073 = -12						; size = 4
tv1093 = -12						; size = 4
$T1 = -12						; size = 4
__Erasednode$1$ = -8					; size = 4
_this$1$ = -4						; size = 4
__Where$ = 8						; size = 4
?_Extract@?$_Tree_val@U?$_Tree_simple_types@U?$pair@$$CBKPAVCMover@@@std@@@std@@@std@@QAEPAU?$_Tree_node@U?$pair@$$CBKPAVCMover@@@std@@PAX@2@V?$_Tree_unchecked_const_iterator@V?$_Tree_val@U?$_Tree_simple_types@U?$pair@$$CBKPAVCMover@@@std@@@std@@@std@@U_Iterator_base0@2@@2@@Z PROC ; std::_Tree_val<std::_Tree_simple_types<std::pair<unsigned long const ,CMover *> > >::_Extract, COMDAT
; _this$ = ecx

; 527  :     _Nodeptr _Extract(_Unchecked_const_iterator _Where) noexcept {

  00000	55		 push	 ebp
  00001	8b ec		 mov	 ebp, esp
  00003	83 ec 10	 sub	 esp, 16			; 00000010H

; 528  :         _Nodeptr _Erasednode = _Where._Ptr; // node to erase

  00006	8b 45 08	 mov	 eax, DWORD PTR __Where$[ebp]
  00009	53		 push	 ebx
  0000a	56		 push	 esi
  0000b	8b d9		 mov	 ebx, ecx
  0000d	89 45 f8	 mov	 DWORD PTR __Erasednode$1$[ebp], eax
  00010	57		 push	 edi

; 529  :         ++_Where; // save successor iterator for return

  00011	8d 4d 08	 lea	 ecx, DWORD PTR __Where$[ebp]
  00014	89 5d fc	 mov	 DWORD PTR _this$1$[ebp], ebx
  00017	e8 00 00 00 00	 call	 ??E?$_Tree_unchecked_const_iterator@V?$_Tree_val@U?$_Tree_simple_types@U?$pair@$$CBKPAVCMover@@@std@@@std@@@std@@U_Iterator_base0@2@@std@@QAEAAV01@XZ ; std::_Tree_unchecked_const_iterator<std::_Tree_val<std::_Tree_simple_types<std::pair<unsigned long const ,CMover *> > >,std::_Iterator_base0>::operator++

; 530  : 
; 531  :         _Nodeptr _Fixnode; // the node to recolor as needed
; 532  :         _Nodeptr _Fixnodeparent; // parent of _Fixnode (which may be nil)
; 533  :         _Nodeptr _Pnode = _Erasednode;
; 534  : 
; 535  :         if (_Pnode->_Left->_Isnil) {

  0001c	8b 4d f8	 mov	 ecx, DWORD PTR __Erasednode$1$[ebp]
  0001f	8b 01		 mov	 eax, DWORD PTR [ecx]
  00021	8b 79 08	 mov	 edi, DWORD PTR [ecx+8]
  00024	80 78 0d 00	 cmp	 BYTE PTR [eax+13], 0
  00028	75 18		 jne	 SHORT $LN94@Extract

; 536  :             _Fixnode = _Pnode->_Right; // stitch up right subtree
; 537  :         } else if (_Pnode->_Right->_Isnil) {

  0002a	80 7f 0d 00	 cmp	 BYTE PTR [edi+13], 0
  0002e	74 04		 je	 SHORT $LN7@Extract

; 538  :             _Fixnode = _Pnode->_Left; // stitch up left subtree

  00030	8b f8		 mov	 edi, eax

; 539  :         } else { // two subtrees, must lift successor node to replace erased

  00032	eb 0e		 jmp	 SHORT $LN94@Extract
$LN7@Extract:

; 540  :             _Pnode   = _Where._Ptr; // _Pnode is successor node

  00034	8b 55 08	 mov	 edx, DWORD PTR __Where$[ebp]

; 541  :             _Fixnode = _Pnode->_Right; // _Fixnode is only subtree

  00037	8b 7a 08	 mov	 edi, DWORD PTR [edx+8]
  0003a	3b d1		 cmp	 edx, ecx

; 542  :         }
; 543  : 
; 544  :         if (_Pnode == _Erasednode) { // at most one subtree, relink it

  0003c	0f 85 91 00 00
	00		 jne	 $LN9@Extract
$LN94@Extract:

; 545  :             _Fixnodeparent = _Erasednode->_Parent;
; 546  :             if (!_Fixnode->_Isnil) {

  00042	80 7f 0d 00	 cmp	 BYTE PTR [edi+13], 0
  00046	8b 71 04	 mov	 esi, DWORD PTR [ecx+4]
  00049	75 03		 jne	 SHORT $LN11@Extract

; 547  :                 _Fixnode->_Parent = _Fixnodeparent; // link up

  0004b	89 77 04	 mov	 DWORD PTR [edi+4], esi
$LN11@Extract:

; 548  :             }
; 549  : 
; 550  :             if (_Myhead->_Parent == _Erasednode) {

  0004e	8b 03		 mov	 eax, DWORD PTR [ebx]
  00050	39 48 04	 cmp	 DWORD PTR [eax+4], ecx
  00053	75 05		 jne	 SHORT $LN12@Extract

; 551  :                 _Myhead->_Parent = _Fixnode; // link down from root

  00055	89 78 04	 mov	 DWORD PTR [eax+4], edi
  00058	eb 0b		 jmp	 SHORT $LN15@Extract
$LN12@Extract:

; 552  :             } else if (_Fixnodeparent->_Left == _Erasednode) {

  0005a	39 0e		 cmp	 DWORD PTR [esi], ecx
  0005c	75 04		 jne	 SHORT $LN14@Extract

; 553  :                 _Fixnodeparent->_Left = _Fixnode; // link down to left

  0005e	89 3e		 mov	 DWORD PTR [esi], edi

; 554  :             } else {

  00060	eb 03		 jmp	 SHORT $LN15@Extract
$LN14@Extract:

; 555  :                 _Fixnodeparent->_Right = _Fixnode; // link down to right

  00062	89 7e 08	 mov	 DWORD PTR [esi+8], edi
$LN15@Extract:

; 556  :             }
; 557  : 
; 558  :             if (_Myhead->_Left == _Erasednode) {

  00065	8b 03		 mov	 eax, DWORD PTR [ebx]
  00067	39 08		 cmp	 DWORD PTR [eax], ecx
  00069	75 28		 jne	 SHORT $LN16@Extract

; 559  :                 _Myhead->_Left = _Fixnode->_Isnil ? _Fixnodeparent // smallest is parent of erased node

  0006b	80 7f 0d 00	 cmp	 BYTE PTR [edi+13], 0
  0006f	74 04		 je	 SHORT $LN42@Extract
  00071	8b d6		 mov	 edx, esi
  00073	eb 1c		 jmp	 SHORT $LN43@Extract
$LN42@Extract:

; 476  :         while (!_Pnode->_Left->_Isnil) {

  00075	8b 0f		 mov	 ecx, DWORD PTR [edi]

; 559  :                 _Myhead->_Left = _Fixnode->_Isnil ? _Fixnodeparent // smallest is parent of erased node

  00077	8b d7		 mov	 edx, edi

; 476  :         while (!_Pnode->_Left->_Isnil) {

  00079	80 79 0d 00	 cmp	 BYTE PTR [ecx+13], 0
  0007d	75 0f		 jne	 SHORT $LN49@Extract
  0007f	90		 npad	 1
$LL48@Extract:
  00080	8b 01		 mov	 eax, DWORD PTR [ecx]

; 477  :             _Pnode = _Pnode->_Left;

  00082	8b d1		 mov	 edx, ecx
  00084	8b c8		 mov	 ecx, eax
  00086	80 78 0d 00	 cmp	 BYTE PTR [eax+13], 0
  0008a	74 f4		 je	 SHORT $LL48@Extract
  0008c	8b 03		 mov	 eax, DWORD PTR [ebx]
$LN49@Extract:
  0008e	8b 4d f8	 mov	 ecx, DWORD PTR __Erasednode$1$[ebp]
$LN43@Extract:

; 559  :                 _Myhead->_Left = _Fixnode->_Isnil ? _Fixnodeparent // smallest is parent of erased node

  00091	89 10		 mov	 DWORD PTR [eax], edx
$LN16@Extract:

; 560  :                                                   : _Min(_Fixnode); // smallest in relinked subtree
; 561  :             }
; 562  : 
; 563  :             if (_Myhead->_Right == _Erasednode) {

  00093	8b 13		 mov	 edx, DWORD PTR [ebx]
  00095	39 4a 08	 cmp	 DWORD PTR [edx+8], ecx
  00098	75 34		 jne	 SHORT $LN17@Extract

; 564  :                 _Myhead->_Right = _Fixnode->_Isnil ? _Fixnodeparent // largest is parent of erased node

  0009a	80 7f 0d 00	 cmp	 BYTE PTR [edi+13], 0
  0009e	74 0d		 je	 SHORT $LN44@Extract

; 565  :                                                    : _Max(_Fixnode); // largest in relinked subtree
; 566  :             }
; 567  :         } else { // erased has two subtrees, _Pnode is successor to erased

  000a0	8b 45 f8	 mov	 eax, DWORD PTR __Erasednode$1$[ebp]
  000a3	8b ce		 mov	 ecx, esi
  000a5	89 4a 08	 mov	 DWORD PTR [edx+8], ecx
  000a8	e9 94 00 00 00	 jmp	 $LN58@Extract
$LN44@Extract:

; 468  :         while (!_Pnode->_Right->_Isnil) {

  000ad	8b 47 08	 mov	 eax, DWORD PTR [edi+8]

; 564  :                 _Myhead->_Right = _Fixnode->_Isnil ? _Fixnodeparent // largest is parent of erased node

  000b0	8b cf		 mov	 ecx, edi

; 468  :         while (!_Pnode->_Right->_Isnil) {

  000b2	80 78 0d 00	 cmp	 BYTE PTR [eax+13], 0
  000b6	75 13		 jne	 SHORT $LN54@Extract
  000b8	0f 1f 84 00 00
	00 00 00	 npad	 8
$LL53@Extract:

; 469  :             _Pnode = _Pnode->_Right;

  000c0	8b c8		 mov	 ecx, eax
  000c2	8b 41 08	 mov	 eax, DWORD PTR [ecx+8]
  000c5	80 78 0d 00	 cmp	 BYTE PTR [eax+13], 0
  000c9	74 f5		 je	 SHORT $LL53@Extract
$LN54@Extract:

; 564  :                 _Myhead->_Right = _Fixnode->_Isnil ? _Fixnodeparent // largest is parent of erased node

  000cb	89 4a 08	 mov	 DWORD PTR [edx+8], ecx
$LN17@Extract:

; 565  :                                                    : _Max(_Fixnode); // largest in relinked subtree
; 566  :             }
; 567  :         } else { // erased has two subtrees, _Pnode is successor to erased

  000ce	8b 45 f8	 mov	 eax, DWORD PTR __Erasednode$1$[ebp]
  000d1	eb 6e		 jmp	 SHORT $LN58@Extract
$LN9@Extract:

; 568  :             _Erasednode->_Left->_Parent = _Pnode; // link left up

  000d3	89 50 04	 mov	 DWORD PTR [eax+4], edx

; 569  :             _Pnode->_Left               = _Erasednode->_Left; // link successor down

  000d6	8b 01		 mov	 eax, DWORD PTR [ecx]
  000d8	89 02		 mov	 DWORD PTR [edx], eax

; 570  : 
; 571  :             if (_Pnode == _Erasednode->_Right) {

  000da	8d 42 04	 lea	 eax, DWORD PTR [edx+4]
  000dd	89 45 f4	 mov	 DWORD PTR $T1[ebp], eax
  000e0	3b 51 08	 cmp	 edx, DWORD PTR [ecx+8]
  000e3	75 04		 jne	 SHORT $LN18@Extract

; 572  :                 _Fixnodeparent = _Pnode; // successor is next to erased

  000e5	8b f2		 mov	 esi, edx

; 573  :             } else { // successor further down, link in place of erased

  000e7	eb 1f		 jmp	 SHORT $LN19@Extract
$LN18@Extract:

; 574  :                 _Fixnodeparent = _Pnode->_Parent; // parent is successor's
; 575  :                 if (!_Fixnode->_Isnil) {

  000e9	80 7f 0d 00	 cmp	 BYTE PTR [edi+13], 0
  000ed	8b 30		 mov	 esi, DWORD PTR [eax]
  000ef	75 03		 jne	 SHORT $LN20@Extract

; 576  :                     _Fixnode->_Parent = _Fixnodeparent; // link fix up

  000f1	89 77 04	 mov	 DWORD PTR [edi+4], esi
$LN20@Extract:

; 577  :                 }
; 578  : 
; 579  :                 _Fixnodeparent->_Left        = _Fixnode; // link fix down

  000f4	89 3e		 mov	 DWORD PTR [esi], edi

; 580  :                 _Pnode->_Right               = _Erasednode->_Right; // link next down

  000f6	8b 41 08	 mov	 eax, DWORD PTR [ecx+8]
  000f9	89 42 08	 mov	 DWORD PTR [edx+8], eax

; 581  :                 _Erasednode->_Right->_Parent = _Pnode; // right up

  000fc	8b 41 08	 mov	 eax, DWORD PTR [ecx+8]
  000ff	89 50 04	 mov	 DWORD PTR [eax+4], edx
  00102	8d 42 04	 lea	 eax, DWORD PTR [edx+4]
  00105	89 45 f4	 mov	 DWORD PTR $T1[ebp], eax
$LN19@Extract:

; 582  :             }
; 583  : 
; 584  :             if (_Myhead->_Parent == _Erasednode) {

  00108	8b 03		 mov	 eax, DWORD PTR [ebx]
  0010a	39 48 04	 cmp	 DWORD PTR [eax+4], ecx
  0010d	75 05		 jne	 SHORT $LN21@Extract

; 585  :                 _Myhead->_Parent = _Pnode; // link down from root

  0010f	89 50 04	 mov	 DWORD PTR [eax+4], edx
  00112	eb 0e		 jmp	 SHORT $LN141@Extract
$LN21@Extract:

; 586  :             } else if (_Erasednode->_Parent->_Left == _Erasednode) {

  00114	8b 41 04	 mov	 eax, DWORD PTR [ecx+4]
  00117	39 08		 cmp	 DWORD PTR [eax], ecx
  00119	75 04		 jne	 SHORT $LN23@Extract

; 587  :                 _Erasednode->_Parent->_Left = _Pnode; // link down to left

  0011b	89 10		 mov	 DWORD PTR [eax], edx

; 588  :             } else {

  0011d	eb 03		 jmp	 SHORT $LN141@Extract
$LN23@Extract:

; 589  :                 _Erasednode->_Parent->_Right = _Pnode; // link down to right

  0011f	89 50 08	 mov	 DWORD PTR [eax+8], edx
$LN141@Extract:

; 590  :             }
; 591  : 
; 592  :             _Pnode->_Parent = _Erasednode->_Parent; // link successor up

  00122	b8 04 00 00 00	 mov	 eax, 4
  00127	8b 04 08	 mov	 eax, DWORD PTR [eax+ecx]
  0012a	8b 4d f4	 mov	 ecx, DWORD PTR $T1[ebp]
  0012d	89 01		 mov	 DWORD PTR [ecx], eax
; File C:\Program Files\Microsoft Visual Studio\2022\Professional\VC\Tools\MSVC\14.44.35207\include\utility

; 140  :     _Left    = _STD move(_Right);

  0012f	8b 45 f8	 mov	 eax, DWORD PTR __Erasednode$1$[ebp]
  00132	8a 4a 0c	 mov	 cl, BYTE PTR [edx+12]
  00135	8a 40 0c	 mov	 al, BYTE PTR [eax+12]
  00138	88 42 0c	 mov	 BYTE PTR [edx+12], al

; 141  :     _Right   = _STD move(_Tmp);

  0013b	8b 45 f8	 mov	 eax, DWORD PTR __Erasednode$1$[ebp]
  0013e	88 48 0c	 mov	 BYTE PTR [eax+12], cl
$LN58@Extract:
; File C:\Program Files\Microsoft Visual Studio\2022\Professional\VC\Tools\MSVC\14.44.35207\include\xtree

; 596  :         if (_Erasednode->_Color == _Black) { // erasing black link, must recolor/rebalance tree

  00141	80 78 0c 01	 cmp	 BYTE PTR [eax+12], 1
  00145	0f 85 ba 01 00
	00		 jne	 $LN25@Extract

; 597  :             for (; _Fixnode != _Myhead->_Parent && _Fixnode->_Color == _Black; _Fixnodeparent = _Fixnode->_Parent) {

  0014b	8b 03		 mov	 eax, DWORD PTR [ebx]
  0014d	3b 78 04	 cmp	 edi, DWORD PTR [eax+4]
  00150	0f 84 a8 01 00
	00		 je	 $LN3@Extract
  00156	80 7f 0c 01	 cmp	 BYTE PTR [edi+12], 1
  0015a	89 75 f4	 mov	 DWORD PTR tv1093[ebp], esi
  0015d	0f 85 9b 01 00
	00		 jne	 $LN3@Extract
$LL4@Extract:

; 598  :                 if (_Fixnode == _Fixnodeparent->_Left) { // fixup left subtree

  00163	8b 0e		 mov	 ecx, DWORD PTR [esi]
  00165	3b f9		 cmp	 edi, ecx
  00167	0f 85 be 00 00
	00		 jne	 $LN26@Extract

; 599  :                     _Pnode = _Fixnodeparent->_Right;

  0016d	8b 4e 08	 mov	 ecx, DWORD PTR [esi+8]

; 600  :                     if (_Pnode->_Color == _Red) { // rotate red up from right subtree

  00170	80 79 0c 00	 cmp	 BYTE PTR [ecx+12], 0
  00174	75 54		 jne	 SHORT $LN95@Extract

; 601  :                         _Pnode->_Color         = _Black;

  00176	c6 41 0c 01	 mov	 BYTE PTR [ecx+12], 1

; 484  :         _Nodeptr _Pnode    = _Wherenode->_Right;

  0017a	8b 4e 08	 mov	 ecx, DWORD PTR [esi+8]

; 602  :                         _Fixnodeparent->_Color = _Red;

  0017d	c6 46 0c 00	 mov	 BYTE PTR [esi+12], 0

; 485  :         _Wherenode->_Right = _Pnode->_Left;

  00181	8b 01		 mov	 eax, DWORD PTR [ecx]
  00183	89 46 08	 mov	 DWORD PTR [esi+8], eax

; 486  : 
; 487  :         if (!_Pnode->_Left->_Isnil) {

  00186	8b 01		 mov	 eax, DWORD PTR [ecx]
  00188	80 78 0d 00	 cmp	 BYTE PTR [eax+13], 0
  0018c	75 03		 jne	 SHORT $LN61@Extract

; 488  :             _Pnode->_Left->_Parent = _Wherenode;

  0018e	89 70 04	 mov	 DWORD PTR [eax+4], esi
$LN61@Extract:

; 489  :         }
; 490  : 
; 491  :         _Pnode->_Parent = _Wherenode->_Parent;

  00191	8b 46 04	 mov	 eax, DWORD PTR [esi+4]
  00194	8d 56 04	 lea	 edx, DWORD PTR [esi+4]
  00197	89 41 04	 mov	 DWORD PTR [ecx+4], eax

; 492  : 
; 493  :         if (_Wherenode == _Myhead->_Parent) {

  0019a	8b 03		 mov	 eax, DWORD PTR [ebx]
  0019c	3b 70 04	 cmp	 esi, DWORD PTR [eax+4]
  0019f	75 0c		 jne	 SHORT $LN62@Extract

; 494  :             _Myhead->_Parent = _Pnode;

  001a1	89 48 04	 mov	 DWORD PTR [eax+4], ecx

; 499  :         }
; 500  : 
; 501  :         _Pnode->_Left       = _Wherenode;

  001a4	89 31		 mov	 DWORD PTR [ecx], esi

; 502  :         _Wherenode->_Parent = _Pnode;

  001a6	89 0a		 mov	 DWORD PTR [edx], ecx

; 603  :                         _Lrotate(_Fixnodeparent);
; 604  :                         _Pnode = _Fixnodeparent->_Right;

  001a8	8b 4e 08	 mov	 ecx, DWORD PTR [esi+8]
  001ab	eb 20		 jmp	 SHORT $LN87@Extract
$LN62@Extract:

; 495  :         } else if (_Wherenode == _Wherenode->_Parent->_Left) {

  001ad	8b 02		 mov	 eax, DWORD PTR [edx]
  001af	3b 30		 cmp	 esi, DWORD PTR [eax]
  001b1	75 0b		 jne	 SHORT $LN64@Extract

; 496  :             _Wherenode->_Parent->_Left = _Pnode;

  001b3	89 08		 mov	 DWORD PTR [eax], ecx

; 499  :         }
; 500  : 
; 501  :         _Pnode->_Left       = _Wherenode;

  001b5	89 31		 mov	 DWORD PTR [ecx], esi

; 502  :         _Wherenode->_Parent = _Pnode;

  001b7	89 0a		 mov	 DWORD PTR [edx], ecx

; 603  :                         _Lrotate(_Fixnodeparent);
; 604  :                         _Pnode = _Fixnodeparent->_Right;

  001b9	8b 4e 08	 mov	 ecx, DWORD PTR [esi+8]
  001bc	eb 0f		 jmp	 SHORT $LN87@Extract
$LN64@Extract:

; 498  :             _Wherenode->_Parent->_Right = _Pnode;

  001be	89 48 08	 mov	 DWORD PTR [eax+8], ecx

; 499  :         }
; 500  : 
; 501  :         _Pnode->_Left       = _Wherenode;

  001c1	89 31		 mov	 DWORD PTR [ecx], esi

; 502  :         _Wherenode->_Parent = _Pnode;

  001c3	89 0a		 mov	 DWORD PTR [edx], ecx

; 603  :                         _Lrotate(_Fixnodeparent);
; 604  :                         _Pnode = _Fixnodeparent->_Right;

  001c5	8b 4e 08	 mov	 ecx, DWORD PTR [esi+8]
  001c8	eb 03		 jmp	 SHORT $LN87@Extract
$LN95@Extract:
  001ca	8d 56 04	 lea	 edx, DWORD PTR [esi+4]
$LN87@Extract:

; 605  :                     }
; 606  : 
; 607  :                     if (_Pnode->_Isnil) {

  001cd	80 79 0d 00	 cmp	 BYTE PTR [ecx+13], 0
  001d1	0f 85 d0 00 00
	00		 jne	 $LN2@Extract

; 608  :                         _Fixnode = _Fixnodeparent; // shouldn't happen
; 609  :                     } else if (_Pnode->_Left->_Color == _Black
; 610  :                                && _Pnode->_Right->_Color == _Black) { // redden right subtree with black children

  001d7	8b 01		 mov	 eax, DWORD PTR [ecx]
  001d9	80 78 0c 01	 cmp	 BYTE PTR [eax+12], 1
  001dd	75 0d		 jne	 SHORT $LN97@Extract
  001df	8b 41 08	 mov	 eax, DWORD PTR [ecx+8]
  001e2	80 78 0c 01	 cmp	 BYTE PTR [eax+12], 1
  001e6	0f 84 b4 00 00
	00		 je	 $LN142@Extract
$LN97@Extract:

; 611  :                         _Pnode->_Color = _Red;
; 612  :                         _Fixnode       = _Fixnodeparent;
; 613  :                     } else { // must rearrange right subtree
; 614  :                         if (_Pnode->_Right->_Color == _Black) { // rotate red up from left sub-subtree

  001ec	8b 41 08	 mov	 eax, DWORD PTR [ecx+8]
  001ef	8b 5d fc	 mov	 ebx, DWORD PTR _this$1$[ebp]
  001f2	80 78 0c 01	 cmp	 BYTE PTR [eax+12], 1
  001f6	75 15		 jne	 SHORT $LN33@Extract

; 615  :                             _Pnode->_Left->_Color = _Black;

  001f8	8b 01		 mov	 eax, DWORD PTR [ecx]

; 616  :                             _Pnode->_Color        = _Red;
; 617  :                             _Rrotate(_Pnode);

  001fa	51		 push	 ecx
  001fb	c6 40 0c 01	 mov	 BYTE PTR [eax+12], 1
  001ff	c6 41 0c 00	 mov	 BYTE PTR [ecx+12], 0
  00203	8b cb		 mov	 ecx, ebx
  00205	e8 00 00 00 00	 call	 ?_Rrotate@?$_Tree_val@U?$_Tree_simple_types@U?$pair@$$CBKPAVCMover@@@std@@@std@@@std@@QAEXPAU?$_Tree_node@U?$pair@$$CBKPAVCMover@@@std@@PAX@2@@Z ; std::_Tree_val<std::_Tree_simple_types<std::pair<unsigned long const ,CMover *> > >::_Rrotate

; 618  :                             _Pnode = _Fixnodeparent->_Right;

  0020a	8b 4e 08	 mov	 ecx, DWORD PTR [esi+8]
$LN33@Extract:

; 619  :                         }
; 620  : 
; 621  :                         _Pnode->_Color         = _Fixnodeparent->_Color;

  0020d	8a 46 0c	 mov	 al, BYTE PTR [esi+12]
  00210	88 41 0c	 mov	 BYTE PTR [ecx+12], al

; 622  :                         _Fixnodeparent->_Color = _Black;

  00213	c6 46 0c 01	 mov	 BYTE PTR [esi+12], 1

; 623  :                         _Pnode->_Right->_Color = _Black;

  00217	8b 41 08	 mov	 eax, DWORD PTR [ecx+8]

; 624  :                         _Lrotate(_Fixnodeparent);

  0021a	8b cb		 mov	 ecx, ebx
  0021c	56		 push	 esi
  0021d	c6 40 0c 01	 mov	 BYTE PTR [eax+12], 1
  00221	e8 00 00 00 00	 call	 ?_Lrotate@?$_Tree_val@U?$_Tree_simple_types@U?$pair@$$CBKPAVCMover@@@std@@@std@@@std@@QAEXPAU?$_Tree_node@U?$pair@$$CBKPAVCMover@@@std@@PAX@2@@Z ; std::_Tree_val<std::_Tree_simple_types<std::pair<unsigned long const ,CMover *> > >::_Lrotate

; 625  :                         break; // tree now recolored/rebalanced

  00226	e9 d3 00 00 00	 jmp	 $LN3@Extract
$LN26@Extract:

; 626  :                     }
; 627  :                 } else { // fixup right subtree
; 628  :                     _Pnode = _Fixnodeparent->_Left;
; 629  :                     if (_Pnode->_Color == _Red) { // rotate red up from left subtree

  0022b	80 79 0c 00	 cmp	 BYTE PTR [ecx+12], 0
  0022f	75 55		 jne	 SHORT $LN96@Extract

; 630  :                         _Pnode->_Color         = _Black;

  00231	c6 41 0c 01	 mov	 BYTE PTR [ecx+12], 1

; 506  :         _Nodeptr _Pnode   = _Wherenode->_Left;

  00235	8b 0e		 mov	 ecx, DWORD PTR [esi]

; 631  :                         _Fixnodeparent->_Color = _Red;

  00237	c6 46 0c 00	 mov	 BYTE PTR [esi+12], 0

; 507  :         _Wherenode->_Left = _Pnode->_Right;

  0023b	8b 41 08	 mov	 eax, DWORD PTR [ecx+8]
  0023e	89 06		 mov	 DWORD PTR [esi], eax

; 508  : 
; 509  :         if (!_Pnode->_Right->_Isnil) {

  00240	8b 41 08	 mov	 eax, DWORD PTR [ecx+8]
  00243	80 78 0d 00	 cmp	 BYTE PTR [eax+13], 0
  00247	75 03		 jne	 SHORT $LN69@Extract

; 510  :             _Pnode->_Right->_Parent = _Wherenode;

  00249	89 70 04	 mov	 DWORD PTR [eax+4], esi
$LN69@Extract:

; 511  :         }
; 512  : 
; 513  :         _Pnode->_Parent = _Wherenode->_Parent;

  0024c	8b 46 04	 mov	 eax, DWORD PTR [esi+4]
  0024f	8d 56 04	 lea	 edx, DWORD PTR [esi+4]
  00252	89 41 04	 mov	 DWORD PTR [ecx+4], eax

; 514  : 
; 515  :         if (_Wherenode == _Myhead->_Parent) {

  00255	8b 03		 mov	 eax, DWORD PTR [ebx]
  00257	3b 70 04	 cmp	 esi, DWORD PTR [eax+4]
  0025a	75 0c		 jne	 SHORT $LN70@Extract

; 516  :             _Myhead->_Parent = _Pnode;

  0025c	89 48 04	 mov	 DWORD PTR [eax+4], ecx

; 521  :         }
; 522  : 
; 523  :         _Pnode->_Right      = _Wherenode;

  0025f	89 71 08	 mov	 DWORD PTR [ecx+8], esi

; 524  :         _Wherenode->_Parent = _Pnode;

  00262	89 0a		 mov	 DWORD PTR [edx], ecx

; 632  :                         _Rrotate(_Fixnodeparent);
; 633  :                         _Pnode = _Fixnodeparent->_Left;

  00264	8b 0e		 mov	 ecx, DWORD PTR [esi]
  00266	eb 21		 jmp	 SHORT $LN86@Extract
$LN70@Extract:

; 517  :         } else if (_Wherenode == _Wherenode->_Parent->_Right) {

  00268	8b 02		 mov	 eax, DWORD PTR [edx]
  0026a	3b 70 08	 cmp	 esi, DWORD PTR [eax+8]
  0026d	75 0c		 jne	 SHORT $LN72@Extract

; 518  :             _Wherenode->_Parent->_Right = _Pnode;

  0026f	89 48 08	 mov	 DWORD PTR [eax+8], ecx

; 521  :         }
; 522  : 
; 523  :         _Pnode->_Right      = _Wherenode;

  00272	89 71 08	 mov	 DWORD PTR [ecx+8], esi

; 524  :         _Wherenode->_Parent = _Pnode;

  00275	89 0a		 mov	 DWORD PTR [edx], ecx

; 632  :                         _Rrotate(_Fixnodeparent);
; 633  :                         _Pnode = _Fixnodeparent->_Left;

  00277	8b 0e		 mov	 ecx, DWORD PTR [esi]
  00279	eb 0e		 jmp	 SHORT $LN86@Extract
$LN72@Extract:

; 520  :             _Wherenode->_Parent->_Left = _Pnode;

  0027b	89 08		 mov	 DWORD PTR [eax], ecx

; 521  :         }
; 522  : 
; 523  :         _Pnode->_Right      = _Wherenode;

  0027d	89 71 08	 mov	 DWORD PTR [ecx+8], esi

; 524  :         _Wherenode->_Parent = _Pnode;

  00280	89 0a		 mov	 DWORD PTR [edx], ecx

; 632  :                         _Rrotate(_Fixnodeparent);
; 633  :                         _Pnode = _Fixnodeparent->_Left;

  00282	8b 0e		 mov	 ecx, DWORD PTR [esi]
  00284	eb 03		 jmp	 SHORT $LN86@Extract
$LN96@Extract:
  00286	8d 56 04	 lea	 edx, DWORD PTR [esi+4]
$LN86@Extract:

; 634  :                     }
; 635  : 
; 636  :                     if (_Pnode->_Isnil) {

  00289	80 79 0d 00	 cmp	 BYTE PTR [ecx+13], 0
  0028d	75 18		 jne	 SHORT $LN2@Extract

; 637  :                         _Fixnode = _Fixnodeparent; // shouldn't happen
; 638  :                     } else if (_Pnode->_Right->_Color == _Black
; 639  :                                && _Pnode->_Left->_Color == _Black) { // redden left subtree with black children

  0028f	8b 59 08	 mov	 ebx, DWORD PTR [ecx+8]
  00292	80 7b 0c 01	 cmp	 BYTE PTR [ebx+12], 1
  00296	75 2c		 jne	 SHORT $LN98@Extract
  00298	8b 01		 mov	 eax, DWORD PTR [ecx]
  0029a	80 78 0c 01	 cmp	 BYTE PTR [eax+12], 1
  0029e	75 24		 jne	 SHORT $LN98@Extract
$LN142@Extract:

; 597  :             for (; _Fixnode != _Myhead->_Parent && _Fixnode->_Color == _Black; _Fixnodeparent = _Fixnode->_Parent) {

  002a0	8b 5d fc	 mov	 ebx, DWORD PTR _this$1$[ebp]
  002a3	c6 41 0c 00	 mov	 BYTE PTR [ecx+12], 0
$LN2@Extract:
  002a7	8b 03		 mov	 eax, DWORD PTR [ebx]
  002a9	8b 4d f4	 mov	 ecx, DWORD PTR tv1093[ebp]
  002ac	8b f9		 mov	 edi, ecx
  002ae	8b 32		 mov	 esi, DWORD PTR [edx]
  002b0	3b 48 04	 cmp	 ecx, DWORD PTR [eax+4]
  002b3	74 49		 je	 SHORT $LN3@Extract
  002b5	80 7f 0c 01	 cmp	 BYTE PTR [edi+12], 1
  002b9	89 75 f4	 mov	 DWORD PTR tv1093[ebp], esi
  002bc	0f 84 a1 fe ff
	ff		 je	 $LL4@Extract
  002c2	eb 3a		 jmp	 SHORT $LN3@Extract
$LN98@Extract:

; 640  :                         _Pnode->_Color = _Red;
; 641  :                         _Fixnode       = _Fixnodeparent;
; 642  :                     } else { // must rearrange left subtree
; 643  :                         if (_Pnode->_Left->_Color == _Black) { // rotate red up from right sub-subtree

  002c4	8b 01		 mov	 eax, DWORD PTR [ecx]
  002c6	80 78 0c 01	 cmp	 BYTE PTR [eax+12], 1
  002ca	75 17		 jne	 SHORT $LN101@Extract

; 644  :                             _Pnode->_Right->_Color = _Black;

  002cc	c6 43 0c 01	 mov	 BYTE PTR [ebx+12], 1

; 645  :                             _Pnode->_Color         = _Red;
; 646  :                             _Lrotate(_Pnode);

  002d0	8b 5d fc	 mov	 ebx, DWORD PTR _this$1$[ebp]
  002d3	c6 41 0c 00	 mov	 BYTE PTR [ecx+12], 0
  002d7	51		 push	 ecx
  002d8	8b cb		 mov	 ecx, ebx
  002da	e8 00 00 00 00	 call	 ?_Lrotate@?$_Tree_val@U?$_Tree_simple_types@U?$pair@$$CBKPAVCMover@@@std@@@std@@@std@@QAEXPAU?$_Tree_node@U?$pair@$$CBKPAVCMover@@@std@@PAX@2@@Z ; std::_Tree_val<std::_Tree_simple_types<std::pair<unsigned long const ,CMover *> > >::_Lrotate

; 647  :                             _Pnode = _Fixnodeparent->_Left;

  002df	8b 0e		 mov	 ecx, DWORD PTR [esi]
  002e1	eb 03		 jmp	 SHORT $LN39@Extract
$LN101@Extract:

; 640  :                         _Pnode->_Color = _Red;
; 641  :                         _Fixnode       = _Fixnodeparent;
; 642  :                     } else { // must rearrange left subtree
; 643  :                         if (_Pnode->_Left->_Color == _Black) { // rotate red up from right sub-subtree

  002e3	8b 5d fc	 mov	 ebx, DWORD PTR _this$1$[ebp]
$LN39@Extract:

; 648  :                         }
; 649  : 
; 650  :                         _Pnode->_Color         = _Fixnodeparent->_Color;

  002e6	8a 46 0c	 mov	 al, BYTE PTR [esi+12]
  002e9	88 41 0c	 mov	 BYTE PTR [ecx+12], al

; 651  :                         _Fixnodeparent->_Color = _Black;

  002ec	c6 46 0c 01	 mov	 BYTE PTR [esi+12], 1

; 652  :                         _Pnode->_Left->_Color  = _Black;

  002f0	8b 01		 mov	 eax, DWORD PTR [ecx]

; 653  :                         _Rrotate(_Fixnodeparent);

  002f2	8b cb		 mov	 ecx, ebx
  002f4	56		 push	 esi
  002f5	c6 40 0c 01	 mov	 BYTE PTR [eax+12], 1
  002f9	e8 00 00 00 00	 call	 ?_Rrotate@?$_Tree_val@U?$_Tree_simple_types@U?$pair@$$CBKPAVCMover@@@std@@@std@@@std@@QAEXPAU?$_Tree_node@U?$pair@$$CBKPAVCMover@@@std@@PAX@2@@Z ; std::_Tree_val<std::_Tree_simple_types<std::pair<unsigned long const ,CMover *> > >::_Rrotate
$LN3@Extract:

; 654  :                         break; // tree now recolored/rebalanced
; 655  :                     }
; 656  :                 }
; 657  :             }
; 658  : 
; 659  :             _Fixnode->_Color = _Black; // stopping node is black

  002fe	8b 45 f8	 mov	 eax, DWORD PTR __Erasednode$1$[ebp]
  00301	c6 47 0c 01	 mov	 BYTE PTR [edi+12], 1
$LN25@Extract:

; 660  :         }
; 661  : 
; 662  :         if (0 < _Mysize) {

  00305	8b 4b 04	 mov	 ecx, DWORD PTR [ebx+4]
  00308	85 c9		 test	 ecx, ecx
  0030a	74 04		 je	 SHORT $LN40@Extract

; 663  :             --_Mysize;

  0030c	49		 dec	 ecx
  0030d	89 4b 04	 mov	 DWORD PTR [ebx+4], ecx
$LN40@Extract:

; 664  :         }
; 665  : 
; 666  :         return _Erasednode;
; 667  :     }

  00310	5f		 pop	 edi
  00311	5e		 pop	 esi
  00312	5b		 pop	 ebx
  00313	8b e5		 mov	 esp, ebp
  00315	5d		 pop	 ebp
  00316	c2 04 00	 ret	 4
?_Extract@?$_Tree_val@U?$_Tree_simple_types@U?$pair@$$CBKPAVCMover@@@std@@@std@@@std@@QAEPAU?$_Tree_node@U?$pair@$$CBKPAVCMover@@@std@@PAX@2@V?$_Tree_unchecked_const_iterator@V?$_Tree_val@U?$_Tree_simple_types@U?$pair@$$CBKPAVCMover@@@std@@@std@@@std@@U_Iterator_base0@2@@2@@Z ENDP ; std::_Tree_val<std::_Tree_simple_types<std::pair<unsigned long const ,CMover *> > >::_Extract
_TEXT	ENDS
; Function compile flags: /Ogtp
; File C:\Program Files\Microsoft Visual Studio\2022\Professional\VC\Tools\MSVC\14.44.35207\include\xtree
;	COMDAT ?_Rrotate@?$_Tree_val@U?$_Tree_simple_types@U?$pair@$$CBKPAVCMover@@@std@@@std@@@std@@QAEXPAU?$_Tree_node@U?$pair@$$CBKPAVCMover@@@std@@PAX@2@@Z
_TEXT	SEGMENT
__Wherenode$ = 8					; size = 4
?_Rrotate@?$_Tree_val@U?$_Tree_simple_types@U?$pair@$$CBKPAVCMover@@@std@@@std@@@std@@QAEXPAU?$_Tree_node@U?$pair@$$CBKPAVCMover@@@std@@PAX@2@@Z PROC ; std::_Tree_val<std::_Tree_simple_types<std::pair<unsigned long const ,CMover *> > >::_Rrotate, COMDAT
; _this$ = ecx

; 505  :     void _Rrotate(_Nodeptr _Wherenode) noexcept { // promote left node to root of subtree

  00000	55		 push	 ebp
  00001	8b ec		 mov	 ebp, esp

; 506  :         _Nodeptr _Pnode   = _Wherenode->_Left;

  00003	8b 55 08	 mov	 edx, DWORD PTR __Wherenode$[ebp]
  00006	56		 push	 esi
  00007	8b 32		 mov	 esi, DWORD PTR [edx]

; 507  :         _Wherenode->_Left = _Pnode->_Right;

  00009	8b 46 08	 mov	 eax, DWORD PTR [esi+8]
  0000c	89 02		 mov	 DWORD PTR [edx], eax

; 508  : 
; 509  :         if (!_Pnode->_Right->_Isnil) {

  0000e	8b 46 08	 mov	 eax, DWORD PTR [esi+8]
  00011	80 78 0d 00	 cmp	 BYTE PTR [eax+13], 0
  00015	75 03		 jne	 SHORT $LN2@Rrotate

; 510  :             _Pnode->_Right->_Parent = _Wherenode;

  00017	89 50 04	 mov	 DWORD PTR [eax+4], edx
$LN2@Rrotate:

; 511  :         }
; 512  : 
; 513  :         _Pnode->_Parent = _Wherenode->_Parent;

  0001a	8b 42 04	 mov	 eax, DWORD PTR [edx+4]
  0001d	89 46 04	 mov	 DWORD PTR [esi+4], eax

; 514  : 
; 515  :         if (_Wherenode == _Myhead->_Parent) {

  00020	8b 01		 mov	 eax, DWORD PTR [ecx]
  00022	3b 50 04	 cmp	 edx, DWORD PTR [eax+4]
  00025	75 0e		 jne	 SHORT $LN3@Rrotate

; 516  :             _Myhead->_Parent = _Pnode;

  00027	89 70 04	 mov	 DWORD PTR [eax+4], esi

; 521  :         }
; 522  : 
; 523  :         _Pnode->_Right      = _Wherenode;
; 524  :         _Wherenode->_Parent = _Pnode;
; 525  :     }

  0002a	89 56 08	 mov	 DWORD PTR [esi+8], edx
  0002d	89 72 04	 mov	 DWORD PTR [edx+4], esi
  00030	5e		 pop	 esi
  00031	5d		 pop	 ebp
  00032	c2 04 00	 ret	 4
$LN3@Rrotate:

; 517  :         } else if (_Wherenode == _Wherenode->_Parent->_Right) {

  00035	8b 42 04	 mov	 eax, DWORD PTR [edx+4]
  00038	3b 50 08	 cmp	 edx, DWORD PTR [eax+8]
  0003b	75 0e		 jne	 SHORT $LN5@Rrotate

; 518  :             _Wherenode->_Parent->_Right = _Pnode;

  0003d	89 70 08	 mov	 DWORD PTR [eax+8], esi

; 521  :         }
; 522  : 
; 523  :         _Pnode->_Right      = _Wherenode;
; 524  :         _Wherenode->_Parent = _Pnode;
; 525  :     }

  00040	89 56 08	 mov	 DWORD PTR [esi+8], edx
  00043	89 72 04	 mov	 DWORD PTR [edx+4], esi
  00046	5e		 pop	 esi
  00047	5d		 pop	 ebp
  00048	c2 04 00	 ret	 4
$LN5@Rrotate:

; 519  :         } else {
; 520  :             _Wherenode->_Parent->_Left = _Pnode;

  0004b	89 30		 mov	 DWORD PTR [eax], esi

; 521  :         }
; 522  : 
; 523  :         _Pnode->_Right      = _Wherenode;
; 524  :         _Wherenode->_Parent = _Pnode;
; 525  :     }

  0004d	89 56 08	 mov	 DWORD PTR [esi+8], edx
  00050	89 72 04	 mov	 DWORD PTR [edx+4], esi
  00053	5e		 pop	 esi
  00054	5d		 pop	 ebp
  00055	c2 04 00	 ret	 4
?_Rrotate@?$_Tree_val@U?$_Tree_simple_types@U?$pair@$$CBKPAVCMover@@@std@@@std@@@std@@QAEXPAU?$_Tree_node@U?$pair@$$CBKPAVCMover@@@std@@PAX@2@@Z ENDP ; std::_Tree_val<std::_Tree_simple_types<std::pair<unsigned long const ,CMover *> > >::_Rrotate
_TEXT	ENDS
; Function compile flags: /Ogtp
; File C:\Program Files\Microsoft Visual Studio\2022\Professional\VC\Tools\MSVC\14.44.35207\include\xtree
;	COMDAT ?_Lrotate@?$_Tree_val@U?$_Tree_simple_types@U?$pair@$$CBKPAVCMover@@@std@@@std@@@std@@QAEXPAU?$_Tree_node@U?$pair@$$CBKPAVCMover@@@std@@PAX@2@@Z
_TEXT	SEGMENT
__Wherenode$ = 8					; size = 4
?_Lrotate@?$_Tree_val@U?$_Tree_simple_types@U?$pair@$$CBKPAVCMover@@@std@@@std@@@std@@QAEXPAU?$_Tree_node@U?$pair@$$CBKPAVCMover@@@std@@PAX@2@@Z PROC ; std::_Tree_val<std::_Tree_simple_types<std::pair<unsigned long const ,CMover *> > >::_Lrotate, COMDAT
; _this$ = ecx

; 483  :     void _Lrotate(_Nodeptr _Wherenode) noexcept { // promote right node to root of subtree

  00000	55		 push	 ebp
  00001	8b ec		 mov	 ebp, esp

; 484  :         _Nodeptr _Pnode    = _Wherenode->_Right;

  00003	8b 55 08	 mov	 edx, DWORD PTR __Wherenode$[ebp]
  00006	56		 push	 esi
  00007	8b 72 08	 mov	 esi, DWORD PTR [edx+8]

; 485  :         _Wherenode->_Right = _Pnode->_Left;

  0000a	8b 06		 mov	 eax, DWORD PTR [esi]
  0000c	89 42 08	 mov	 DWORD PTR [edx+8], eax

; 486  : 
; 487  :         if (!_Pnode->_Left->_Isnil) {

  0000f	8b 06		 mov	 eax, DWORD PTR [esi]
  00011	80 78 0d 00	 cmp	 BYTE PTR [eax+13], 0
  00015	75 03		 jne	 SHORT $LN2@Lrotate

; 488  :             _Pnode->_Left->_Parent = _Wherenode;

  00017	89 50 04	 mov	 DWORD PTR [eax+4], edx
$LN2@Lrotate:

; 489  :         }
; 490  : 
; 491  :         _Pnode->_Parent = _Wherenode->_Parent;

  0001a	8b 42 04	 mov	 eax, DWORD PTR [edx+4]
  0001d	89 46 04	 mov	 DWORD PTR [esi+4], eax

; 492  : 
; 493  :         if (_Wherenode == _Myhead->_Parent) {

  00020	8b 01		 mov	 eax, DWORD PTR [ecx]
  00022	3b 50 04	 cmp	 edx, DWORD PTR [eax+4]
  00025	75 0d		 jne	 SHORT $LN3@Lrotate

; 494  :             _Myhead->_Parent = _Pnode;

  00027	89 70 04	 mov	 DWORD PTR [eax+4], esi

; 499  :         }
; 500  : 
; 501  :         _Pnode->_Left       = _Wherenode;
; 502  :         _Wherenode->_Parent = _Pnode;
; 503  :     }

  0002a	89 16		 mov	 DWORD PTR [esi], edx
  0002c	89 72 04	 mov	 DWORD PTR [edx+4], esi
  0002f	5e		 pop	 esi
  00030	5d		 pop	 ebp
  00031	c2 04 00	 ret	 4
$LN3@Lrotate:

; 495  :         } else if (_Wherenode == _Wherenode->_Parent->_Left) {

  00034	8b 42 04	 mov	 eax, DWORD PTR [edx+4]
  00037	3b 10		 cmp	 edx, DWORD PTR [eax]
  00039	75 0c		 jne	 SHORT $LN5@Lrotate

; 496  :             _Wherenode->_Parent->_Left = _Pnode;

  0003b	89 30		 mov	 DWORD PTR [eax], esi

; 499  :         }
; 500  : 
; 501  :         _Pnode->_Left       = _Wherenode;
; 502  :         _Wherenode->_Parent = _Pnode;
; 503  :     }

  0003d	89 16		 mov	 DWORD PTR [esi], edx
  0003f	89 72 04	 mov	 DWORD PTR [edx+4], esi
  00042	5e		 pop	 esi
  00043	5d		 pop	 ebp
  00044	c2 04 00	 ret	 4
$LN5@Lrotate:

; 497  :         } else {
; 498  :             _Wherenode->_Parent->_Right = _Pnode;

  00047	89 70 08	 mov	 DWORD PTR [eax+8], esi

; 499  :         }
; 500  : 
; 501  :         _Pnode->_Left       = _Wherenode;
; 502  :         _Wherenode->_Parent = _Pnode;
; 503  :     }

  0004a	89 16		 mov	 DWORD PTR [esi], edx
  0004c	89 72 04	 mov	 DWORD PTR [edx+4], esi
  0004f	5e		 pop	 esi
  00050	5d		 pop	 ebp
  00051	c2 04 00	 ret	 4
?_Lrotate@?$_Tree_val@U?$_Tree_simple_types@U?$pair@$$CBKPAVCMover@@@std@@@std@@@std@@QAEXPAU?$_Tree_node@U?$pair@$$CBKPAVCMover@@@std@@PAX@2@@Z ENDP ; std::_Tree_val<std::_Tree_simple_types<std::pair<unsigned long const ,CMover *> > >::_Lrotate
_TEXT	ENDS
; Function compile flags: /Ogtp
; File C:\Program Files\Microsoft Visual Studio\2022\Professional\VC\Tools\MSVC\14.44.35207\include\xtree
; File C:\Program Files\Microsoft Visual Studio\2022\Professional\VC\Tools\MSVC\14.44.35207\include\type_traits
; File C:\Program Files\Microsoft Visual Studio\2022\Professional\VC\Tools\MSVC\14.44.35207\include\xtree
; File C:\Program Files\Microsoft Visual Studio\2022\Professional\VC\Tools\MSVC\14.44.35207\include\type_traits
; File C:\Program Files\Microsoft Visual Studio\2022\Professional\VC\Tools\MSVC\14.44.35207\include\xtree
; File C:\Program Files\Microsoft Visual Studio\2022\Professional\VC\Tools\MSVC\14.44.35207\include\type_traits
; File C:\Program Files\Microsoft Visual Studio\2022\Professional\VC\Tools\MSVC\14.44.35207\include\xtree
; File C:\Program Files\Microsoft Visual Studio\2022\Professional\VC\Tools\MSVC\14.44.35207\include\xutility
; File C:\Program Files\Microsoft Visual Studio\2022\Professional\VC\Tools\MSVC\14.44.35207\include\xtree
; File C:\Program Files\Microsoft Visual Studio\2022\Professional\VC\Tools\MSVC\14.44.35207\include\xutility
; File C:\Program Files\Microsoft Visual Studio\2022\Professional\VC\Tools\MSVC\14.44.35207\include\xtree
; File C:\Program Files\Microsoft Visual Studio\2022\Professional\VC\Tools\MSVC\14.44.35207\include\xutility
; File C:\Program Files\Microsoft Visual Studio\2022\Professional\VC\Tools\MSVC\14.44.35207\include\xtree
; File C:\Program Files\Microsoft Visual Studio\2022\Professional\VC\Tools\MSVC\14.44.35207\include\xutility
; File C:\Program Files\Microsoft Visual Studio\2022\Professional\VC\Tools\MSVC\14.44.35207\include\xtree
; File C:\Program Files\Microsoft Visual Studio\2022\Professional\VC\Tools\MSVC\14.44.35207\include\utility
; File C:\Program Files\Microsoft Visual Studio\2022\Professional\VC\Tools\MSVC\14.44.35207\include\xmemory
; File C:\Program Files\Microsoft Visual Studio\2022\Professional\VC\Tools\MSVC\14.44.35207\include\xtree
; File C:\Program Files\Microsoft Visual Studio\2022\Professional\VC\Tools\MSVC\14.44.35207\include\xmemory
; File C:\Program Files\Microsoft Visual Studio\2022\Professional\VC\Tools\MSVC\14.44.35207\include\xtree
; File C:\Program Files\Microsoft Visual Studio\2022\Professional\VC\Tools\MSVC\14.44.35207\include\xmemory
; File C:\Program Files\Microsoft Visual Studio\2022\Professional\VC\Tools\MSVC\14.44.35207\include\xtree
;	COMDAT ?erase@?$_Tree@V?$_Tmap_traits@KPAVCMover@@U?$less@K@std@@V?$allocator@U?$pair@$$CBKPAVCMover@@@std@@@3@$0A@@std@@@std@@QAEIABK@Z
_TEXT	SEGMENT
__First$ = -16						; size = 4
__Rootnode$1$ = -16					; size = 4
__Head$1$ = -12						; size = 4
_this$1$ = -8						; size = 4
tv820 = -1						; size = 1
__Keyval$ = 8						; size = 4
__Off$1$ = 8						; size = 4
?erase@?$_Tree@V?$_Tmap_traits@KPAVCMover@@U?$less@K@std@@V?$allocator@U?$pair@$$CBKPAVCMover@@@std@@@3@$0A@@std@@@std@@QAEIABK@Z PROC ; std::_Tree<std::_Tmap_traits<unsigned long,CMover *,std::less<unsigned long>,std::allocator<std::pair<unsigned long const ,CMover *> >,0> >::erase, COMDAT
; _this$ = ecx

; 1357 :     size_type erase(const key_type& _Keyval) noexcept(noexcept(_Eqrange(_Keyval))) /* strengthened */ {

  00000	55		 push	 ebp
  00001	8b ec		 mov	 ebp, esp
  00003	83 ec 10	 sub	 esp, 16			; 00000010H
  00006	8b c1		 mov	 eax, ecx
  00008	53		 push	 ebx
  00009	56		 push	 esi
  0000a	57		 push	 edi

; 1709 :         _Nodeptr _Pnode   = _Scary->_Myhead->_Parent;

  0000b	8b 38		 mov	 edi, DWORD PTR [eax]

; 1710 :         _Nodeptr _Lonode  = _Scary->_Myhead; // end() if search fails

  0000d	8b f7		 mov	 esi, edi

; 1357 :     size_type erase(const key_type& _Keyval) noexcept(noexcept(_Eqrange(_Keyval))) /* strengthened */ {

  0000f	89 45 f8	 mov	 DWORD PTR _this$1$[ebp], eax

; 1709 :         _Nodeptr _Pnode   = _Scary->_Myhead->_Parent;

  00012	89 7d f4	 mov	 DWORD PTR __Head$1$[ebp], edi
  00015	8b 5f 04	 mov	 ebx, DWORD PTR [edi+4]
  00018	8b c3		 mov	 eax, ebx
  0001a	89 5d f0	 mov	 DWORD PTR __Rootnode$1$[ebp], ebx

; 1711 :         _Nodeptr _Hinode  = _Scary->_Myhead; // end() if search fails
; 1712 : 
; 1713 :         while (!_Pnode->_Isnil) {

  0001d	8a 48 0d	 mov	 cl, BYTE PTR [eax+13]
  00020	88 4d ff	 mov	 BYTE PTR tv820[ebp], cl
  00023	84 c9		 test	 cl, cl
  00025	75 2a		 jne	 SHORT $LN6@erase
; File C:\Program Files\Microsoft Visual Studio\2022\Professional\VC\Tools\MSVC\14.44.35207\include\type_traits

; 2380 :         return _Left < _Right;

  00027	8b 55 08	 mov	 edx, DWORD PTR __Keyval$[ebp]
  0002a	8b 12		 mov	 edx, DWORD PTR [edx]
  0002c	0f 1f 40 00	 npad	 4
$LL5@erase:
  00030	8b 48 10	 mov	 ecx, DWORD PTR [eax+16]
  00033	3b ca		 cmp	 ecx, edx
; File C:\Program Files\Microsoft Visual Studio\2022\Professional\VC\Tools\MSVC\14.44.35207\include\xtree

; 1715 :             if (_DEBUG_LT_PRED(_Comp, _Nodekey, _Keyval)) {

  00035	73 05		 jae	 SHORT $LN9@erase

; 1716 :                 _Pnode = _Pnode->_Right; // descend right subtree

  00037	8b 40 08	 mov	 eax, DWORD PTR [eax+8]

; 1717 :             } else { // _Pnode not less than _Keyval, remember it

  0003a	eb 0f		 jmp	 SHORT $LN10@erase
$LN9@erase:

; 1718 :                 if (_Hinode->_Isnil && _DEBUG_LT_PRED(_Comp, _Keyval, _Nodekey)) {

  0003c	80 7f 0d 00	 cmp	 BYTE PTR [edi+13], 0
  00040	74 05		 je	 SHORT $LN11@erase
; File C:\Program Files\Microsoft Visual Studio\2022\Professional\VC\Tools\MSVC\14.44.35207\include\type_traits

; 2380 :         return _Left < _Right;

  00042	3b d1		 cmp	 edx, ecx
; File C:\Program Files\Microsoft Visual Studio\2022\Professional\VC\Tools\MSVC\14.44.35207\include\xtree

; 1718 :                 if (_Hinode->_Isnil && _DEBUG_LT_PRED(_Comp, _Keyval, _Nodekey)) {

  00044	0f 42 f8	 cmovb	 edi, eax
$LN11@erase:

; 1719 :                     _Hinode = _Pnode; // _Pnode greater, remember it
; 1720 :                 }
; 1721 : 
; 1722 :                 _Lonode = _Pnode;

  00047	8b f0		 mov	 esi, eax

; 1723 :                 _Pnode  = _Pnode->_Left; // descend left subtree

  00049	8b 00		 mov	 eax, DWORD PTR [eax]
$LN10@erase:

; 1711 :         _Nodeptr _Hinode  = _Scary->_Myhead; // end() if search fails
; 1712 : 
; 1713 :         while (!_Pnode->_Isnil) {

  0004b	80 78 0d 00	 cmp	 BYTE PTR [eax+13], 0
  0004f	74 df		 je	 SHORT $LL5@erase
$LN6@erase:

; 1724 :             }
; 1725 :         }
; 1726 : 
; 1727 :         _Pnode = _Hinode->_Isnil ? _Scary->_Myhead->_Parent : _Hinode->_Left; // continue scan for upper bound

  00051	80 7f 0d 00	 cmp	 BYTE PTR [edi+13], 0
  00055	8b c3		 mov	 eax, ebx
  00057	75 02		 jne	 SHORT $LN16@erase
  00059	8b 07		 mov	 eax, DWORD PTR [edi]
$LN16@erase:

; 1728 :         while (!_Pnode->_Isnil) {

  0005b	80 78 0d 00	 cmp	 BYTE PTR [eax+13], 0
  0005f	75 19		 jne	 SHORT $LN8@erase
; File C:\Program Files\Microsoft Visual Studio\2022\Professional\VC\Tools\MSVC\14.44.35207\include\type_traits

; 2380 :         return _Left < _Right;

  00061	8b 4d 08	 mov	 ecx, DWORD PTR __Keyval$[ebp]
  00064	8b 09		 mov	 ecx, DWORD PTR [ecx]
$LL7@erase:
  00066	3b 48 10	 cmp	 ecx, DWORD PTR [eax+16]
; File C:\Program Files\Microsoft Visual Studio\2022\Professional\VC\Tools\MSVC\14.44.35207\include\xtree

; 1729 :             if (_DEBUG_LT_PRED(_Getcomp(), _Keyval, _Traits::_Kfn(_Pnode->_Myval))) {

  00069	73 06		 jae	 SHORT $LN12@erase

; 1730 :                 // _Pnode greater than _Keyval, remember it
; 1731 :                 _Hinode = _Pnode;

  0006b	8b f8		 mov	 edi, eax

; 1732 :                 _Pnode  = _Pnode->_Left; // descend left subtree

  0006d	8b 00		 mov	 eax, DWORD PTR [eax]

; 1733 :             } else {

  0006f	eb 03		 jmp	 SHORT $LN13@erase
$LN12@erase:

; 1734 :                 _Pnode = _Pnode->_Right; // descend right subtree

  00071	8b 40 08	 mov	 eax, DWORD PTR [eax+8]
$LN13@erase:

; 1728 :         while (!_Pnode->_Isnil) {

  00074	80 78 0d 00	 cmp	 BYTE PTR [eax+13], 0
  00078	74 ec		 je	 SHORT $LL7@erase
$LN8@erase:
; File C:\Program Files\Microsoft Visual Studio\2022\Professional\VC\Tools\MSVC\14.44.35207\include\xutility

; 1667 :         _Iter_diff_t<_InIt> _Off = 0;

  0007a	33 c9		 xor	 ecx, ecx
  0007c	8b c6		 mov	 eax, esi
  0007e	89 4d 08	 mov	 DWORD PTR __Off$1$[ebp], ecx
; File C:\Program Files\Microsoft Visual Studio\2022\Professional\VC\Tools\MSVC\14.44.35207\include\xtree

; 101  :         return !(*this == _Right);

  00081	3b f7		 cmp	 esi, edi
; File C:\Program Files\Microsoft Visual Studio\2022\Professional\VC\Tools\MSVC\14.44.35207\include\xutility

; 1668 :         for (; _UFirst != _ULast; ++_UFirst) {

  00083	74 54		 je	 SHORT $LN41@erase
  00085	33 db		 xor	 ebx, ebx
$LL42@erase:
; File C:\Program Files\Microsoft Visual Studio\2022\Professional\VC\Tools\MSVC\14.44.35207\include\xtree

; 50   :         if (_Ptr->_Right->_Isnil) { // climb looking for right subtree

  00087	8b 48 08	 mov	 ecx, DWORD PTR [eax+8]
; File C:\Program Files\Microsoft Visual Studio\2022\Professional\VC\Tools\MSVC\14.44.35207\include\xutility

; 1669 :             ++_Off;

  0008a	43		 inc	 ebx
; File C:\Program Files\Microsoft Visual Studio\2022\Professional\VC\Tools\MSVC\14.44.35207\include\xtree

; 50   :         if (_Ptr->_Right->_Isnil) { // climb looking for right subtree

  0008b	80 79 0d 00	 cmp	 BYTE PTR [ecx+13], 0
  0008f	74 23		 je	 SHORT $LN47@erase

; 51   :             _Nodeptr _Pnode;
; 52   :             while (!(_Pnode = _Ptr->_Parent)->_Isnil && _Ptr == _Pnode->_Right) {

  00091	8b 48 04	 mov	 ecx, DWORD PTR [eax+4]
  00094	80 79 0d 00	 cmp	 BYTE PTR [ecx+13], 0
  00098	75 16		 jne	 SHORT $LN182@erase
  0009a	66 0f 1f 44 00
	00		 npad	 6
$LL45@erase:
  000a0	3b 41 08	 cmp	 eax, DWORD PTR [ecx+8]
  000a3	75 0b		 jne	 SHORT $LN182@erase

; 53   :                 _Ptr = _Pnode; // ==> parent while right subtree

  000a5	8b c1		 mov	 eax, ecx
  000a7	8b 49 04	 mov	 ecx, DWORD PTR [ecx+4]
  000aa	80 79 0d 00	 cmp	 BYTE PTR [ecx+13], 0
  000ae	74 f0		 je	 SHORT $LL45@erase
$LN182@erase:

; 54   :             }
; 55   : 
; 56   :             _Ptr = _Pnode; // ==> parent (head if end())

  000b0	8b c1		 mov	 eax, ecx

; 57   :         } else {

  000b2	eb 18		 jmp	 SHORT $LN53@erase
$LN47@erase:

; 58   :             _Ptr = _Mytree::_Min(_Ptr->_Right); // ==> smallest of right subtree

  000b4	8b c1		 mov	 eax, ecx

; 476  :         while (!_Pnode->_Left->_Isnil) {

  000b6	8b 10		 mov	 edx, DWORD PTR [eax]
  000b8	80 7a 0d 00	 cmp	 BYTE PTR [edx+13], 0
  000bc	75 0e		 jne	 SHORT $LN53@erase
  000be	66 90		 npad	 2
$LL52@erase:
  000c0	8b 0a		 mov	 ecx, DWORD PTR [edx]

; 477  :             _Pnode = _Pnode->_Left;

  000c2	8b c2		 mov	 eax, edx
  000c4	8b d1		 mov	 edx, ecx
  000c6	80 79 0d 00	 cmp	 BYTE PTR [ecx+13], 0
  000ca	74 f4		 je	 SHORT $LL52@erase
$LN53@erase:

; 101  :         return !(*this == _Right);

  000cc	3b c7		 cmp	 eax, edi
; File C:\Program Files\Microsoft Visual Studio\2022\Professional\VC\Tools\MSVC\14.44.35207\include\xutility

; 1668 :         for (; _UFirst != _ULast; ++_UFirst) {

  000ce	75 b7		 jne	 SHORT $LL42@erase
  000d0	89 5d 08	 mov	 DWORD PTR __Off$1$[ebp], ebx
  000d3	8b 5d f0	 mov	 ebx, DWORD PTR __Rootnode$1$[ebp]
  000d6	8b 4d 08	 mov	 ecx, DWORD PTR __Off$1$[ebp]
$LN41@erase:
; File C:\Program Files\Microsoft Visual Studio\2022\Professional\VC\Tools\MSVC\14.44.35207\include\xtree

; 96   :         return _Ptr == _Right._Ptr;

  000d9	8b 45 f4	 mov	 eax, DWORD PTR __Head$1$[ebp]

; 1329 :         _Erase_unchecked(_First, _Last);

  000dc	89 75 f0	 mov	 DWORD PTR __First$[ebp], esi

; 96   :         return _Ptr == _Right._Ptr;

  000df	3b 30		 cmp	 esi, DWORD PTR [eax]

; 1311 :         if (_First == _Begin && _Last._Ptr->_Isnil) {

  000e1	75 51		 jne	 SHORT $LN157@erase
  000e3	80 7f 0d 00	 cmp	 BYTE PTR [edi+13], 0
  000e7	74 4b		 je	 SHORT $LN157@erase

; 768  :         while (!_Rootnode->_Isnil) { // free subtrees, then node

  000e9	80 7d ff 00	 cmp	 BYTE PTR tv820[ebp], 0
  000ed	75 27		 jne	 SHORT $LN165@erase
  000ef	90		 npad	 1
$LL84@erase:

; 769  :             _Erase_tree(_Al, _Rootnode->_Right);

  000f0	ff 73 08	 push	 DWORD PTR [ebx+8]
  000f3	8b 45 f8	 mov	 eax, DWORD PTR _this$1$[ebp]
  000f6	8b c8		 mov	 ecx, eax
  000f8	50		 push	 eax
  000f9	e8 00 00 00 00	 call	 ??$_Erase_tree@V?$allocator@U?$_Tree_node@U?$pair@$$CBKPAVCMover@@@std@@PAX@std@@@std@@@?$_Tree_val@U?$_Tree_simple_types@U?$pair@$$CBKPAVCMover@@@std@@@std@@@std@@QAEXAAV?$allocator@U?$_Tree_node@U?$pair@$$CBKPAVCMover@@@std@@PAX@std@@@1@PAU?$_Tree_node@U?$pair@$$CBKPAVCMover@@@std@@PAX@1@@Z ; std::_Tree_val<std::_Tree_simple_types<std::pair<unsigned long const ,CMover *> > >::_Erase_tree<std::allocator<std::_Tree_node<std::pair<unsigned long const ,CMover *>,void *> > >
; File C:\Program Files\Microsoft Visual Studio\2022\Professional\VC\Tools\MSVC\14.44.35207\include\utility

; 773  :     _Ty _Old_val = static_cast<_Ty&&>(_Val);

  000fe	8b c3		 mov	 eax, ebx

; 774  :     _Val         = static_cast<_Other&&>(_New_val);

  00100	8b 1b		 mov	 ebx, DWORD PTR [ebx]
; File C:\Program Files\Microsoft Visual Studio\2022\Professional\VC\Tools\MSVC\14.44.35207\include\xmemory

; 289  :         ::operator delete(_Ptr, _Bytes);

  00102	6a 18		 push	 24			; 00000018H
  00104	50		 push	 eax
  00105	e8 00 00 00 00	 call	 ??3@YAXPAXI@Z		; operator delete
  0010a	83 c4 08	 add	 esp, 8
; File C:\Program Files\Microsoft Visual Studio\2022\Professional\VC\Tools\MSVC\14.44.35207\include\xtree

; 768  :         while (!_Rootnode->_Isnil) { // free subtrees, then node

  0010d	80 7b 0d 00	 cmp	 BYTE PTR [ebx+13], 0
  00111	74 dd		 je	 SHORT $LL84@erase
  00113	8b 45 f4	 mov	 eax, DWORD PTR __Head$1$[ebp]
$LN165@erase:

; 1378 :         _Scary->_Mysize = 0;

  00116	8b 5d f8	 mov	 ebx, DWORD PTR _this$1$[ebp]
  00119	5f		 pop	 edi

; 1360 : 
; 1361 : #if _HAS_CXX23
; 1362 :     template <class _Kx>
; 1363 :         requires _Is_transparent_v<key_compare> && (!is_convertible_v<_Kx, const_iterator>)
; 1364 :               && (!is_convertible_v<_Kx, iterator>)
; 1365 :     size_type erase(_Kx&& _Keyval) noexcept(noexcept(_Eqrange(_Keyval))) /* strengthened */ {
; 1366 :         return _Erase(_Eqrange(_Keyval));
; 1367 :     }
; 1368 : #endif // _HAS_CXX23
; 1369 : 
; 1370 :     void clear() noexcept {
; 1371 :         const auto _Scary = _Get_scary();
; 1372 :         _Scary->_Orphan_ptr(nullptr);
; 1373 :         auto _Head = _Scary->_Myhead;
; 1374 :         _Scary->_Erase_tree(_Getal(), _Head->_Parent);
; 1375 :         _Head->_Parent  = _Head;

  0011a	89 40 04	 mov	 DWORD PTR [eax+4], eax

; 1376 :         _Head->_Left    = _Head;

  0011d	89 00		 mov	 DWORD PTR [eax], eax

; 1377 :         _Head->_Right   = _Head;

  0011f	89 40 08	 mov	 DWORD PTR [eax+8], eax

; 1358 :         return _Erase(_Eqrange(_Keyval));

  00122	8b 45 08	 mov	 eax, DWORD PTR __Off$1$[ebp]

; 1359 :     }

  00125	5e		 pop	 esi

; 1378 :         _Scary->_Mysize = 0;

  00126	c7 43 04 00 00
	00 00		 mov	 DWORD PTR [ebx+4], 0

; 1359 :     }

  0012d	5b		 pop	 ebx
  0012e	8b e5		 mov	 esp, ebp
  00130	5d		 pop	 ebp
  00131	c2 04 00	 ret	 4
$LN157@erase:

; 101  :         return !(*this == _Right);

  00134	3b f7		 cmp	 esi, edi

; 1318 :         while (_First != _Last) {

  00136	74 36		 je	 SHORT $LN181@erase
  00138	8b 5d f8	 mov	 ebx, DWORD PTR _this$1$[ebp]
  0013b	0f 1f 44 00 00	 npad	 5
$LL63@erase:

; 66   :         ++*this;

  00140	8d 4d f0	 lea	 ecx, DWORD PTR __First$[ebp]
  00143	e8 00 00 00 00	 call	 ??E?$_Tree_unchecked_const_iterator@V?$_Tree_val@U?$_Tree_simple_types@U?$pair@$$CBKPAVCMover@@@std@@@std@@@std@@U_Iterator_base0@2@@std@@QAEAAV01@XZ ; std::_Tree_unchecked_const_iterator<std::_Tree_val<std::_Tree_simple_types<std::pair<unsigned long const ,CMover *> > >,std::_Iterator_base0>::operator++

; 1303 :         _Nodeptr _Erasednode = _Scary->_Extract(_Where); // node to erase

  00148	56		 push	 esi
  00149	8b cb		 mov	 ecx, ebx
  0014b	e8 00 00 00 00	 call	 ?_Extract@?$_Tree_val@U?$_Tree_simple_types@U?$pair@$$CBKPAVCMover@@@std@@@std@@@std@@QAEPAU?$_Tree_node@U?$pair@$$CBKPAVCMover@@@std@@PAX@2@V?$_Tree_unchecked_const_iterator@V?$_Tree_val@U?$_Tree_simple_types@U?$pair@$$CBKPAVCMover@@@std@@@std@@@std@@U_Iterator_base0@2@@2@@Z ; std::_Tree_val<std::_Tree_simple_types<std::pair<unsigned long const ,CMover *> > >::_Extract
; File C:\Program Files\Microsoft Visual Studio\2022\Professional\VC\Tools\MSVC\14.44.35207\include\xmemory

; 289  :         ::operator delete(_Ptr, _Bytes);

  00150	6a 18		 push	 24			; 00000018H
  00152	50		 push	 eax
  00153	e8 00 00 00 00	 call	 ??3@YAXPAXI@Z		; operator delete
; File C:\Program Files\Microsoft Visual Studio\2022\Professional\VC\Tools\MSVC\14.44.35207\include\xtree

; 101  :         return !(*this == _Right);

  00158	8b 75 f0	 mov	 esi, DWORD PTR __First$[ebp]
; File C:\Program Files\Microsoft Visual Studio\2022\Professional\VC\Tools\MSVC\14.44.35207\include\xmemory

; 289  :         ::operator delete(_Ptr, _Bytes);

  0015b	83 c4 08	 add	 esp, 8
; File C:\Program Files\Microsoft Visual Studio\2022\Professional\VC\Tools\MSVC\14.44.35207\include\xtree

; 101  :         return !(*this == _Right);

  0015e	3b f7		 cmp	 esi, edi

; 1318 :         while (_First != _Last) {

  00160	75 de		 jne	 SHORT $LL63@erase

; 1359 :     }

  00162	8b 45 08	 mov	 eax, DWORD PTR __Off$1$[ebp]
  00165	5f		 pop	 edi
  00166	5e		 pop	 esi
  00167	5b		 pop	 ebx
  00168	8b e5		 mov	 esp, ebp
  0016a	5d		 pop	 ebp
  0016b	c2 04 00	 ret	 4
$LN181@erase:
  0016e	5f		 pop	 edi
  0016f	5e		 pop	 esi
  00170	8b c1		 mov	 eax, ecx
  00172	5b		 pop	 ebx
  00173	8b e5		 mov	 esp, ebp
  00175	5d		 pop	 ebp
  00176	c2 04 00	 ret	 4
?erase@?$_Tree@V?$_Tmap_traits@KPAVCMover@@U?$less@K@std@@V?$allocator@U?$pair@$$CBKPAVCMover@@@std@@@3@$0A@@std@@@std@@QAEIABK@Z ENDP ; std::_Tree<std::_Tmap_traits<unsigned long,CMover *,std::less<unsigned long>,std::allocator<std::pair<unsigned long const ,CMover *> >,0> >::erase
_TEXT	ENDS
; Function compile flags: /Ogtp
; File C:\Program Files\Microsoft Visual Studio\2022\Professional\VC\Tools\MSVC\14.44.35207\include\xtree
;	COMDAT ?_Insert_node@?$_Tree_val@U?$_Tree_simple_types@U?$pair@$$CBV?$basic_string@DU?$char_traits@D@std@@V?$allocator@D@2@@std@@K@std@@@std@@@std@@QAEPAU?$_Tree_node@U?$pair@$$CBV?$basic_string@DU?$char_traits@D@std@@V?$allocator@D@2@@std@@K@std@@PAX@2@U?$_Tree_id@PAU?$_Tree_node@U?$pair@$$CBV?$basic_string@DU?$char_traits@D@std@@V?$allocator@D@2@@std@@K@std@@PAX@std@@@2@QAU32@@Z
_TEXT	SEGMENT
__Head$1$ = -4						; size = 4
__Loc$ = 8						; size = 8
__Newnode$ = 16						; size = 4
?_Insert_node@?$_Tree_val@U?$_Tree_simple_types@U?$pair@$$CBV?$basic_string@DU?$char_traits@D@std@@V?$allocator@D@2@@std@@K@std@@@std@@@std@@QAEPAU?$_Tree_node@U?$pair@$$CBV?$basic_string@DU?$char_traits@D@std@@V?$allocator@D@2@@std@@K@std@@PAX@2@U?$_Tree_id@PAU?$_Tree_node@U?$pair@$$CBV?$basic_string@DU?$char_traits@D@std@@V?$allocator@D@2@@std@@K@std@@PAX@std@@@2@QAU32@@Z PROC ; std::_Tree_val<std::_Tree_simple_types<std::pair<std::basic_string<char,std::char_traits<char>,std::allocator<char> > const ,unsigned long> > >::_Insert_node, COMDAT
; _this$ = ecx

; 669  :     _Nodeptr _Insert_node(const _Tree_id<_Nodeptr> _Loc, const _Nodeptr _Newnode) noexcept {

  00000	55		 push	 ebp
  00001	8b ec		 mov	 ebp, esp
  00003	51		 push	 ecx

; 670  :         ++_Mysize;
; 671  :         const auto _Head  = _Myhead;
; 672  :         _Newnode->_Parent = _Loc._Parent;

  00004	8b 55 08	 mov	 edx, DWORD PTR __Loc$[ebp]
  00007	53		 push	 ebx
  00008	8b d9		 mov	 ebx, ecx
  0000a	57		 push	 edi
  0000b	8b 7d 10	 mov	 edi, DWORD PTR __Newnode$[ebp]
  0000e	8b 03		 mov	 eax, DWORD PTR [ebx]
  00010	ff 43 04	 inc	 DWORD PTR [ebx+4]
  00013	89 45 fc	 mov	 DWORD PTR __Head$1$[ebp], eax
  00016	89 57 04	 mov	 DWORD PTR [edi+4], edx

; 673  :         if (_Loc._Parent == _Head) { // first node in tree, just set head values

  00019	3b d0		 cmp	 edx, eax
  0001b	75 16		 jne	 SHORT $LN5@Insert_nod

; 674  :             _Head->_Left     = _Newnode;

  0001d	89 38		 mov	 DWORD PTR [eax], edi

; 675  :             _Head->_Parent   = _Newnode;

  0001f	89 78 04	 mov	 DWORD PTR [eax+4], edi

; 676  :             _Head->_Right    = _Newnode;

  00022	89 78 08	 mov	 DWORD PTR [eax+8], edi

; 735  :         return _Newnode;
; 736  :     }

  00025	8b c7		 mov	 eax, edi
  00027	c6 47 0c 01	 mov	 BYTE PTR [edi+12], 1
  0002b	5f		 pop	 edi
  0002c	5b		 pop	 ebx
  0002d	8b e5		 mov	 esp, ebp
  0002f	5d		 pop	 ebp
  00030	c2 0c 00	 ret	 12			; 0000000cH
$LN5@Insert_nod:

; 677  :             _Newnode->_Color = _Black; // the root is black
; 678  :             return _Newnode;
; 679  :         }
; 680  : 
; 681  :         _STL_INTERNAL_CHECK(_Loc._Child != _Tree_child::_Unused);
; 682  :         if (_Loc._Child == _Tree_child::_Right) { // add to right of _Loc._Parent

  00033	83 7d 0c 00	 cmp	 DWORD PTR __Loc$[ebp+4], 0
  00037	75 0d		 jne	 SHORT $LN6@Insert_nod

; 683  :             _STL_INTERNAL_CHECK(_Loc._Parent->_Right->_Isnil);
; 684  :             _Loc._Parent->_Right = _Newnode;

  00039	89 7a 08	 mov	 DWORD PTR [edx+8], edi

; 685  :             if (_Loc._Parent == _Head->_Right) { // remember rightmost node

  0003c	3b 50 08	 cmp	 edx, DWORD PTR [eax+8]
  0003f	75 0d		 jne	 SHORT $LN9@Insert_nod

; 686  :                 _Head->_Right = _Newnode;

  00041	89 78 08	 mov	 DWORD PTR [eax+8], edi

; 687  :             }
; 688  :         } else { // add to left of _Loc._Parent

  00044	eb 08		 jmp	 SHORT $LN9@Insert_nod
$LN6@Insert_nod:

; 689  :             _STL_INTERNAL_CHECK(_Loc._Parent->_Left->_Isnil);
; 690  :             _Loc._Parent->_Left = _Newnode;

  00046	89 3a		 mov	 DWORD PTR [edx], edi

; 691  :             if (_Loc._Parent == _Head->_Left) { // remember leftmost node

  00048	3b 10		 cmp	 edx, DWORD PTR [eax]
  0004a	75 02		 jne	 SHORT $LN9@Insert_nod

; 692  :                 _Head->_Left = _Newnode;

  0004c	89 38		 mov	 DWORD PTR [eax], edi
$LN9@Insert_nod:

; 693  :             }
; 694  :         }
; 695  : 
; 696  :         for (_Nodeptr _Pnode = _Newnode; _Pnode->_Parent->_Color == _Red;) {

  0004e	8b 4f 04	 mov	 ecx, DWORD PTR [edi+4]
  00051	8b c7		 mov	 eax, edi
  00053	80 79 0c 00	 cmp	 BYTE PTR [ecx+12], 0
  00057	0f 85 7d 01 00
	00		 jne	 $LN3@Insert_nod
  0005d	56		 push	 esi
  0005e	66 90		 npad	 2
$LL4@Insert_nod:

; 697  :             if (_Pnode->_Parent == _Pnode->_Parent->_Parent->_Left) { // fixup red-red in left subtree

  00060	8b 50 04	 mov	 edx, DWORD PTR [eax+4]
  00063	8b 72 04	 mov	 esi, DWORD PTR [edx+4]
  00066	8b 0e		 mov	 ecx, DWORD PTR [esi]
  00068	3b d1		 cmp	 edx, ecx
  0006a	0f 85 aa 00 00
	00		 jne	 $LN10@Insert_nod

; 698  :                 const auto _Parent_sibling = _Pnode->_Parent->_Parent->_Right;

  00070	8b 4e 08	 mov	 ecx, DWORD PTR [esi+8]

; 699  :                 if (_Parent_sibling->_Color == _Red) { // parent's sibling has two red children, blacken both

  00073	80 79 0c 00	 cmp	 BYTE PTR [ecx+12], 0
  00077	0f 84 a3 00 00
	00		 je	 $LN82@Insert_nod

; 700  :                     _Pnode->_Parent->_Color          = _Black;
; 701  :                     _Parent_sibling->_Color          = _Black;
; 702  :                     _Pnode->_Parent->_Parent->_Color = _Red;
; 703  :                     _Pnode                           = _Pnode->_Parent->_Parent;
; 704  :                 } else { // parent's sibling has red and black children
; 705  :                     if (_Pnode == _Pnode->_Parent->_Right) { // rotate right child to left

  0007d	8b 72 08	 mov	 esi, DWORD PTR [edx+8]
  00080	3b c6		 cmp	 eax, esi
  00082	75 37		 jne	 SHORT $LN57@Insert_nod

; 485  :         _Wherenode->_Right = _Pnode->_Left;

  00084	8b 0e		 mov	 ecx, DWORD PTR [esi]

; 706  :                         _Pnode = _Pnode->_Parent;

  00086	8b c2		 mov	 eax, edx

; 485  :         _Wherenode->_Right = _Pnode->_Left;

  00088	89 4a 08	 mov	 DWORD PTR [edx+8], ecx

; 486  : 
; 487  :         if (!_Pnode->_Left->_Isnil) {

  0008b	8b 0e		 mov	 ecx, DWORD PTR [esi]
  0008d	80 79 0d 00	 cmp	 BYTE PTR [ecx+13], 0
  00091	75 03		 jne	 SHORT $LN21@Insert_nod

; 488  :             _Pnode->_Left->_Parent = _Wherenode;

  00093	89 41 04	 mov	 DWORD PTR [ecx+4], eax
$LN21@Insert_nod:

; 489  :         }
; 490  : 
; 491  :         _Pnode->_Parent = _Wherenode->_Parent;

  00096	8b 4a 04	 mov	 ecx, DWORD PTR [edx+4]
  00099	89 4e 04	 mov	 DWORD PTR [esi+4], ecx

; 492  : 
; 493  :         if (_Wherenode == _Myhead->_Parent) {

  0009c	8b 0b		 mov	 ecx, DWORD PTR [ebx]
  0009e	3b 41 04	 cmp	 eax, DWORD PTR [ecx+4]
  000a1	75 05		 jne	 SHORT $LN22@Insert_nod

; 494  :             _Myhead->_Parent = _Pnode;

  000a3	89 71 04	 mov	 DWORD PTR [ecx+4], esi
  000a6	eb 0e		 jmp	 SHORT $LN25@Insert_nod
$LN22@Insert_nod:

; 495  :         } else if (_Wherenode == _Wherenode->_Parent->_Left) {

  000a8	8b 4a 04	 mov	 ecx, DWORD PTR [edx+4]
  000ab	3b 01		 cmp	 eax, DWORD PTR [ecx]
  000ad	75 04		 jne	 SHORT $LN24@Insert_nod

; 496  :             _Wherenode->_Parent->_Left = _Pnode;

  000af	89 31		 mov	 DWORD PTR [ecx], esi

; 497  :         } else {

  000b1	eb 03		 jmp	 SHORT $LN25@Insert_nod
$LN24@Insert_nod:

; 498  :             _Wherenode->_Parent->_Right = _Pnode;

  000b3	89 71 08	 mov	 DWORD PTR [ecx+8], esi
$LN25@Insert_nod:

; 499  :         }
; 500  : 
; 501  :         _Pnode->_Left       = _Wherenode;

  000b6	89 06		 mov	 DWORD PTR [esi], eax

; 502  :         _Wherenode->_Parent = _Pnode;

  000b8	89 70 04	 mov	 DWORD PTR [eax+4], esi
$LN57@Insert_nod:

; 707  :                         _Lrotate(_Pnode);
; 708  :                     }
; 709  : 
; 710  :                     _Pnode->_Parent->_Color          = _Black; // propagate red up

  000bb	8b 48 04	 mov	 ecx, DWORD PTR [eax+4]
  000be	c6 41 0c 01	 mov	 BYTE PTR [ecx+12], 1

; 711  :                     _Pnode->_Parent->_Parent->_Color = _Red;

  000c2	8b 48 04	 mov	 ecx, DWORD PTR [eax+4]
  000c5	8b 49 04	 mov	 ecx, DWORD PTR [ecx+4]
  000c8	c6 41 0c 00	 mov	 BYTE PTR [ecx+12], 0

; 712  :                     _Rrotate(_Pnode->_Parent->_Parent);

  000cc	8b 48 04	 mov	 ecx, DWORD PTR [eax+4]
  000cf	8b 51 04	 mov	 edx, DWORD PTR [ecx+4]

; 506  :         _Nodeptr _Pnode   = _Wherenode->_Left;

  000d2	8b 32		 mov	 esi, DWORD PTR [edx]

; 507  :         _Wherenode->_Left = _Pnode->_Right;

  000d4	8b 4e 08	 mov	 ecx, DWORD PTR [esi+8]
  000d7	89 0a		 mov	 DWORD PTR [edx], ecx

; 508  : 
; 509  :         if (!_Pnode->_Right->_Isnil) {

  000d9	8b 4e 08	 mov	 ecx, DWORD PTR [esi+8]
  000dc	80 79 0d 00	 cmp	 BYTE PTR [ecx+13], 0
  000e0	75 03		 jne	 SHORT $LN29@Insert_nod

; 510  :             _Pnode->_Right->_Parent = _Wherenode;

  000e2	89 51 04	 mov	 DWORD PTR [ecx+4], edx
$LN29@Insert_nod:

; 511  :         }
; 512  : 
; 513  :         _Pnode->_Parent = _Wherenode->_Parent;

  000e5	8b 4a 04	 mov	 ecx, DWORD PTR [edx+4]
  000e8	89 4e 04	 mov	 DWORD PTR [esi+4], ecx

; 514  : 
; 515  :         if (_Wherenode == _Myhead->_Parent) {

  000eb	8b 0b		 mov	 ecx, DWORD PTR [ebx]
  000ed	3b 51 04	 cmp	 edx, DWORD PTR [ecx+4]
  000f0	75 0b		 jne	 SHORT $LN30@Insert_nod

; 516  :             _Myhead->_Parent = _Pnode;

  000f2	89 71 04	 mov	 DWORD PTR [ecx+4], esi

; 521  :         }
; 522  : 
; 523  :         _Pnode->_Right      = _Wherenode;

  000f5	89 56 08	 mov	 DWORD PTR [esi+8], edx

; 713  :                 }
; 714  :             } else { // fixup red-red in right subtree

  000f8	e9 cc 00 00 00	 jmp	 $LN81@Insert_nod
$LN30@Insert_nod:

; 517  :         } else if (_Wherenode == _Wherenode->_Parent->_Right) {

  000fd	8b 4a 04	 mov	 ecx, DWORD PTR [edx+4]
  00100	3b 51 08	 cmp	 edx, DWORD PTR [ecx+8]
  00103	75 0b		 jne	 SHORT $LN32@Insert_nod

; 518  :             _Wherenode->_Parent->_Right = _Pnode;

  00105	89 71 08	 mov	 DWORD PTR [ecx+8], esi

; 521  :         }
; 522  : 
; 523  :         _Pnode->_Right      = _Wherenode;

  00108	89 56 08	 mov	 DWORD PTR [esi+8], edx

; 713  :                 }
; 714  :             } else { // fixup red-red in right subtree

  0010b	e9 b9 00 00 00	 jmp	 $LN81@Insert_nod
$LN32@Insert_nod:

; 520  :             _Wherenode->_Parent->_Left = _Pnode;

  00110	89 31		 mov	 DWORD PTR [ecx], esi

; 521  :         }
; 522  : 
; 523  :         _Pnode->_Right      = _Wherenode;

  00112	89 56 08	 mov	 DWORD PTR [esi+8], edx

; 713  :                 }
; 714  :             } else { // fixup red-red in right subtree

  00115	e9 af 00 00 00	 jmp	 $LN81@Insert_nod
$LN10@Insert_nod:

; 715  :                 const auto _Parent_sibling = _Pnode->_Parent->_Parent->_Left;
; 716  :                 if (_Parent_sibling->_Color == _Red) { // parent's sibling has two red children, blacken both

  0011a	80 79 0c 00	 cmp	 BYTE PTR [ecx+12], 0
  0011e	75 1d		 jne	 SHORT $LN15@Insert_nod
$LN82@Insert_nod:

; 693  :             }
; 694  :         }
; 695  : 
; 696  :         for (_Nodeptr _Pnode = _Newnode; _Pnode->_Parent->_Color == _Red;) {

  00120	c6 42 0c 01	 mov	 BYTE PTR [edx+12], 1
  00124	c6 41 0c 01	 mov	 BYTE PTR [ecx+12], 1
  00128	8b 48 04	 mov	 ecx, DWORD PTR [eax+4]
  0012b	8b 49 04	 mov	 ecx, DWORD PTR [ecx+4]
  0012e	c6 41 0c 00	 mov	 BYTE PTR [ecx+12], 0
  00132	8b 48 04	 mov	 ecx, DWORD PTR [eax+4]
  00135	8b 41 04	 mov	 eax, DWORD PTR [ecx+4]
  00138	e9 8f 00 00 00	 jmp	 $LN2@Insert_nod
$LN15@Insert_nod:

; 717  :                     _Pnode->_Parent->_Color          = _Black;
; 718  :                     _Parent_sibling->_Color          = _Black;
; 719  :                     _Pnode->_Parent->_Parent->_Color = _Red;
; 720  :                     _Pnode                           = _Pnode->_Parent->_Parent;
; 721  :                 } else { // parent's sibling has red and black children
; 722  :                     if (_Pnode == _Pnode->_Parent->_Left) { // rotate left child to right

  0013d	8b 32		 mov	 esi, DWORD PTR [edx]
  0013f	3b c6		 cmp	 eax, esi
  00141	75 3a		 jne	 SHORT $LN42@Insert_nod

; 507  :         _Wherenode->_Left = _Pnode->_Right;

  00143	8b 4e 08	 mov	 ecx, DWORD PTR [esi+8]

; 723  :                         _Pnode = _Pnode->_Parent;

  00146	8b c2		 mov	 eax, edx

; 507  :         _Wherenode->_Left = _Pnode->_Right;

  00148	89 08		 mov	 DWORD PTR [eax], ecx

; 508  : 
; 509  :         if (!_Pnode->_Right->_Isnil) {

  0014a	8b 4e 08	 mov	 ecx, DWORD PTR [esi+8]
  0014d	80 79 0d 00	 cmp	 BYTE PTR [ecx+13], 0
  00151	75 03		 jne	 SHORT $LN37@Insert_nod

; 510  :             _Pnode->_Right->_Parent = _Wherenode;

  00153	89 41 04	 mov	 DWORD PTR [ecx+4], eax
$LN37@Insert_nod:

; 511  :         }
; 512  : 
; 513  :         _Pnode->_Parent = _Wherenode->_Parent;

  00156	8b 4a 04	 mov	 ecx, DWORD PTR [edx+4]
  00159	89 4e 04	 mov	 DWORD PTR [esi+4], ecx

; 514  : 
; 515  :         if (_Wherenode == _Myhead->_Parent) {

  0015c	8b 0b		 mov	 ecx, DWORD PTR [ebx]
  0015e	3b 41 04	 cmp	 eax, DWORD PTR [ecx+4]
  00161	75 05		 jne	 SHORT $LN38@Insert_nod

; 516  :             _Myhead->_Parent = _Pnode;

  00163	89 71 04	 mov	 DWORD PTR [ecx+4], esi
  00166	eb 0f		 jmp	 SHORT $LN41@Insert_nod
$LN38@Insert_nod:

; 517  :         } else if (_Wherenode == _Wherenode->_Parent->_Right) {

  00168	8b 4a 04	 mov	 ecx, DWORD PTR [edx+4]
  0016b	3b 41 08	 cmp	 eax, DWORD PTR [ecx+8]
  0016e	75 05		 jne	 SHORT $LN40@Insert_nod

; 518  :             _Wherenode->_Parent->_Right = _Pnode;

  00170	89 71 08	 mov	 DWORD PTR [ecx+8], esi

; 519  :         } else {

  00173	eb 02		 jmp	 SHORT $LN41@Insert_nod
$LN40@Insert_nod:

; 520  :             _Wherenode->_Parent->_Left = _Pnode;

  00175	89 31		 mov	 DWORD PTR [ecx], esi
$LN41@Insert_nod:

; 521  :         }
; 522  : 
; 523  :         _Pnode->_Right      = _Wherenode;

  00177	89 46 08	 mov	 DWORD PTR [esi+8], eax

; 524  :         _Wherenode->_Parent = _Pnode;

  0017a	89 70 04	 mov	 DWORD PTR [eax+4], esi
$LN42@Insert_nod:

; 724  :                         _Rrotate(_Pnode);
; 725  :                     }
; 726  : 
; 727  :                     _Pnode->_Parent->_Color          = _Black; // propagate red up

  0017d	8b 48 04	 mov	 ecx, DWORD PTR [eax+4]
  00180	c6 41 0c 01	 mov	 BYTE PTR [ecx+12], 1

; 728  :                     _Pnode->_Parent->_Parent->_Color = _Red;

  00184	8b 48 04	 mov	 ecx, DWORD PTR [eax+4]
  00187	8b 49 04	 mov	 ecx, DWORD PTR [ecx+4]
  0018a	c6 41 0c 00	 mov	 BYTE PTR [ecx+12], 0

; 729  :                     _Lrotate(_Pnode->_Parent->_Parent);

  0018e	8b 48 04	 mov	 ecx, DWORD PTR [eax+4]
  00191	8b 51 04	 mov	 edx, DWORD PTR [ecx+4]

; 484  :         _Nodeptr _Pnode    = _Wherenode->_Right;

  00194	8b 72 08	 mov	 esi, DWORD PTR [edx+8]

; 485  :         _Wherenode->_Right = _Pnode->_Left;

  00197	8b 0e		 mov	 ecx, DWORD PTR [esi]
  00199	89 4a 08	 mov	 DWORD PTR [edx+8], ecx

; 486  : 
; 487  :         if (!_Pnode->_Left->_Isnil) {

  0019c	8b 0e		 mov	 ecx, DWORD PTR [esi]
  0019e	80 79 0d 00	 cmp	 BYTE PTR [ecx+13], 0
  001a2	75 03		 jne	 SHORT $LN45@Insert_nod

; 488  :             _Pnode->_Left->_Parent = _Wherenode;

  001a4	89 51 04	 mov	 DWORD PTR [ecx+4], edx
$LN45@Insert_nod:

; 489  :         }
; 490  : 
; 491  :         _Pnode->_Parent = _Wherenode->_Parent;

  001a7	8b 4a 04	 mov	 ecx, DWORD PTR [edx+4]
  001aa	89 4e 04	 mov	 DWORD PTR [esi+4], ecx

; 492  : 
; 493  :         if (_Wherenode == _Myhead->_Parent) {

  001ad	8b 0b		 mov	 ecx, DWORD PTR [ebx]
  001af	3b 51 04	 cmp	 edx, DWORD PTR [ecx+4]
  001b2	75 05		 jne	 SHORT $LN46@Insert_nod

; 494  :             _Myhead->_Parent = _Pnode;

  001b4	89 71 04	 mov	 DWORD PTR [ecx+4], esi
  001b7	eb 0e		 jmp	 SHORT $LN49@Insert_nod
$LN46@Insert_nod:

; 495  :         } else if (_Wherenode == _Wherenode->_Parent->_Left) {

  001b9	8b 4a 04	 mov	 ecx, DWORD PTR [edx+4]
  001bc	3b 11		 cmp	 edx, DWORD PTR [ecx]
  001be	75 04		 jne	 SHORT $LN48@Insert_nod

; 496  :             _Wherenode->_Parent->_Left = _Pnode;

  001c0	89 31		 mov	 DWORD PTR [ecx], esi

; 497  :         } else {

  001c2	eb 03		 jmp	 SHORT $LN49@Insert_nod
$LN48@Insert_nod:

; 498  :             _Wherenode->_Parent->_Right = _Pnode;

  001c4	89 71 08	 mov	 DWORD PTR [ecx+8], esi
$LN49@Insert_nod:

; 499  :         }
; 500  : 
; 501  :         _Pnode->_Left       = _Wherenode;

  001c7	89 16		 mov	 DWORD PTR [esi], edx
$LN81@Insert_nod:

; 693  :             }
; 694  :         }
; 695  : 
; 696  :         for (_Nodeptr _Pnode = _Newnode; _Pnode->_Parent->_Color == _Red;) {

  001c9	89 72 04	 mov	 DWORD PTR [edx+4], esi
$LN2@Insert_nod:
  001cc	8b 48 04	 mov	 ecx, DWORD PTR [eax+4]
  001cf	80 79 0c 00	 cmp	 BYTE PTR [ecx+12], 0
  001d3	0f 84 87 fe ff
	ff		 je	 $LL4@Insert_nod
  001d9	5e		 pop	 esi
$LN3@Insert_nod:

; 730  :                 }
; 731  :             }
; 732  :         }
; 733  : 
; 734  :         _Head->_Parent->_Color = _Black; // root is always black

  001da	8b 45 fc	 mov	 eax, DWORD PTR __Head$1$[ebp]
  001dd	8b 40 04	 mov	 eax, DWORD PTR [eax+4]
  001e0	c6 40 0c 01	 mov	 BYTE PTR [eax+12], 1

; 735  :         return _Newnode;
; 736  :     }

  001e4	8b c7		 mov	 eax, edi
  001e6	5f		 pop	 edi
  001e7	5b		 pop	 ebx
  001e8	8b e5		 mov	 esp, ebp
  001ea	5d		 pop	 ebp
  001eb	c2 0c 00	 ret	 12			; 0000000cH
?_Insert_node@?$_Tree_val@U?$_Tree_simple_types@U?$pair@$$CBV?$basic_string@DU?$char_traits@D@std@@V?$allocator@D@2@@std@@K@std@@@std@@@std@@QAEPAU?$_Tree_node@U?$pair@$$CBV?$basic_string@DU?$char_traits@D@std@@V?$allocator@D@2@@std@@K@std@@PAX@2@U?$_Tree_id@PAU?$_Tree_node@U?$pair@$$CBV?$basic_string@DU?$char_traits@D@std@@V?$allocator@D@2@@std@@K@std@@PAX@std@@@2@QAU32@@Z ENDP ; std::_Tree_val<std::_Tree_simple_types<std::pair<std::basic_string<char,std::char_traits<char>,std::allocator<char> > const ,unsigned long> > >::_Insert_node
_TEXT	ENDS
; Function compile flags: /Ogtp
; File C:\Program Files\Microsoft Visual Studio\2022\Professional\VC\Tools\MSVC\14.44.35207\include\xtree
; File C:\Program Files\Microsoft Visual Studio\2022\Professional\VC\Tools\MSVC\14.44.35207\include\utility
; File C:\Program Files\Microsoft Visual Studio\2022\Professional\VC\Tools\MSVC\14.44.35207\include\xtree
;	COMDAT ?_Extract@?$_Tree_val@U?$_Tree_simple_types@U?$pair@$$CBV?$basic_string@DU?$char_traits@D@std@@V?$allocator@D@2@@std@@K@std@@@std@@@std@@QAEPAU?$_Tree_node@U?$pair@$$CBV?$basic_string@DU?$char_traits@D@std@@V?$allocator@D@2@@std@@K@std@@PAX@2@V?$_Tree_unchecked_const_iterator@V?$_Tree_val@U?$_Tree_simple_types@U?$pair@$$CBV?$basic_string@DU?$char_traits@D@std@@V?$allocator@D@2@@std@@K@std@@@std@@@std@@U_Iterator_base0@2@@2@@Z
_TEXT	SEGMENT
tv1039 = -16						; size = 4
tv1073 = -12						; size = 4
tv1093 = -12						; size = 4
$T1 = -12						; size = 4
__Erasednode$1$ = -8					; size = 4
_this$1$ = -4						; size = 4
__Where$ = 8						; size = 4
?_Extract@?$_Tree_val@U?$_Tree_simple_types@U?$pair@$$CBV?$basic_string@DU?$char_traits@D@std@@V?$allocator@D@2@@std@@K@std@@@std@@@std@@QAEPAU?$_Tree_node@U?$pair@$$CBV?$basic_string@DU?$char_traits@D@std@@V?$allocator@D@2@@std@@K@std@@PAX@2@V?$_Tree_unchecked_const_iterator@V?$_Tree_val@U?$_Tree_simple_types@U?$pair@$$CBV?$basic_string@DU?$char_traits@D@std@@V?$allocator@D@2@@std@@K@std@@@std@@@std@@U_Iterator_base0@2@@2@@Z PROC ; std::_Tree_val<std::_Tree_simple_types<std::pair<std::basic_string<char,std::char_traits<char>,std::allocator<char> > const ,unsigned long> > >::_Extract, COMDAT
; _this$ = ecx

; 527  :     _Nodeptr _Extract(_Unchecked_const_iterator _Where) noexcept {

  00000	55		 push	 ebp
  00001	8b ec		 mov	 ebp, esp
  00003	83 ec 10	 sub	 esp, 16			; 00000010H

; 528  :         _Nodeptr _Erasednode = _Where._Ptr; // node to erase

  00006	8b 45 08	 mov	 eax, DWORD PTR __Where$[ebp]
  00009	53		 push	 ebx
  0000a	56		 push	 esi
  0000b	8b d9		 mov	 ebx, ecx
  0000d	89 45 f8	 mov	 DWORD PTR __Erasednode$1$[ebp], eax
  00010	57		 push	 edi

; 529  :         ++_Where; // save successor iterator for return

  00011	8d 4d 08	 lea	 ecx, DWORD PTR __Where$[ebp]
  00014	89 5d fc	 mov	 DWORD PTR _this$1$[ebp], ebx
  00017	e8 00 00 00 00	 call	 ??E?$_Tree_unchecked_const_iterator@V?$_Tree_val@U?$_Tree_simple_types@U?$pair@$$CBV?$basic_string@DU?$char_traits@D@std@@V?$allocator@D@2@@std@@K@std@@@std@@@std@@U_Iterator_base0@2@@std@@QAEAAV01@XZ ; std::_Tree_unchecked_const_iterator<std::_Tree_val<std::_Tree_simple_types<std::pair<std::basic_string<char,std::char_traits<char>,std::allocator<char> > const ,unsigned long> > >,std::_Iterator_base0>::operator++

; 530  : 
; 531  :         _Nodeptr _Fixnode; // the node to recolor as needed
; 532  :         _Nodeptr _Fixnodeparent; // parent of _Fixnode (which may be nil)
; 533  :         _Nodeptr _Pnode = _Erasednode;
; 534  : 
; 535  :         if (_Pnode->_Left->_Isnil) {

  0001c	8b 4d f8	 mov	 ecx, DWORD PTR __Erasednode$1$[ebp]
  0001f	8b 01		 mov	 eax, DWORD PTR [ecx]
  00021	8b 79 08	 mov	 edi, DWORD PTR [ecx+8]
  00024	80 78 0d 00	 cmp	 BYTE PTR [eax+13], 0
  00028	75 18		 jne	 SHORT $LN94@Extract

; 536  :             _Fixnode = _Pnode->_Right; // stitch up right subtree
; 537  :         } else if (_Pnode->_Right->_Isnil) {

  0002a	80 7f 0d 00	 cmp	 BYTE PTR [edi+13], 0
  0002e	74 04		 je	 SHORT $LN7@Extract

; 538  :             _Fixnode = _Pnode->_Left; // stitch up left subtree

  00030	8b f8		 mov	 edi, eax

; 539  :         } else { // two subtrees, must lift successor node to replace erased

  00032	eb 0e		 jmp	 SHORT $LN94@Extract
$LN7@Extract:

; 540  :             _Pnode   = _Where._Ptr; // _Pnode is successor node

  00034	8b 55 08	 mov	 edx, DWORD PTR __Where$[ebp]

; 541  :             _Fixnode = _Pnode->_Right; // _Fixnode is only subtree

  00037	8b 7a 08	 mov	 edi, DWORD PTR [edx+8]
  0003a	3b d1		 cmp	 edx, ecx

; 542  :         }
; 543  : 
; 544  :         if (_Pnode == _Erasednode) { // at most one subtree, relink it

  0003c	0f 85 91 00 00
	00		 jne	 $LN9@Extract
$LN94@Extract:

; 545  :             _Fixnodeparent = _Erasednode->_Parent;
; 546  :             if (!_Fixnode->_Isnil) {

  00042	80 7f 0d 00	 cmp	 BYTE PTR [edi+13], 0
  00046	8b 71 04	 mov	 esi, DWORD PTR [ecx+4]
  00049	75 03		 jne	 SHORT $LN11@Extract

; 547  :                 _Fixnode->_Parent = _Fixnodeparent; // link up

  0004b	89 77 04	 mov	 DWORD PTR [edi+4], esi
$LN11@Extract:

; 548  :             }
; 549  : 
; 550  :             if (_Myhead->_Parent == _Erasednode) {

  0004e	8b 03		 mov	 eax, DWORD PTR [ebx]
  00050	39 48 04	 cmp	 DWORD PTR [eax+4], ecx
  00053	75 05		 jne	 SHORT $LN12@Extract

; 551  :                 _Myhead->_Parent = _Fixnode; // link down from root

  00055	89 78 04	 mov	 DWORD PTR [eax+4], edi
  00058	eb 0b		 jmp	 SHORT $LN15@Extract
$LN12@Extract:

; 552  :             } else if (_Fixnodeparent->_Left == _Erasednode) {

  0005a	39 0e		 cmp	 DWORD PTR [esi], ecx
  0005c	75 04		 jne	 SHORT $LN14@Extract

; 553  :                 _Fixnodeparent->_Left = _Fixnode; // link down to left

  0005e	89 3e		 mov	 DWORD PTR [esi], edi

; 554  :             } else {

  00060	eb 03		 jmp	 SHORT $LN15@Extract
$LN14@Extract:

; 555  :                 _Fixnodeparent->_Right = _Fixnode; // link down to right

  00062	89 7e 08	 mov	 DWORD PTR [esi+8], edi
$LN15@Extract:

; 556  :             }
; 557  : 
; 558  :             if (_Myhead->_Left == _Erasednode) {

  00065	8b 03		 mov	 eax, DWORD PTR [ebx]
  00067	39 08		 cmp	 DWORD PTR [eax], ecx
  00069	75 28		 jne	 SHORT $LN16@Extract

; 559  :                 _Myhead->_Left = _Fixnode->_Isnil ? _Fixnodeparent // smallest is parent of erased node

  0006b	80 7f 0d 00	 cmp	 BYTE PTR [edi+13], 0
  0006f	74 04		 je	 SHORT $LN42@Extract
  00071	8b d6		 mov	 edx, esi
  00073	eb 1c		 jmp	 SHORT $LN43@Extract
$LN42@Extract:

; 476  :         while (!_Pnode->_Left->_Isnil) {

  00075	8b 0f		 mov	 ecx, DWORD PTR [edi]

; 559  :                 _Myhead->_Left = _Fixnode->_Isnil ? _Fixnodeparent // smallest is parent of erased node

  00077	8b d7		 mov	 edx, edi

; 476  :         while (!_Pnode->_Left->_Isnil) {

  00079	80 79 0d 00	 cmp	 BYTE PTR [ecx+13], 0
  0007d	75 0f		 jne	 SHORT $LN49@Extract
  0007f	90		 npad	 1
$LL48@Extract:
  00080	8b 01		 mov	 eax, DWORD PTR [ecx]

; 477  :             _Pnode = _Pnode->_Left;

  00082	8b d1		 mov	 edx, ecx
  00084	8b c8		 mov	 ecx, eax
  00086	80 78 0d 00	 cmp	 BYTE PTR [eax+13], 0
  0008a	74 f4		 je	 SHORT $LL48@Extract
  0008c	8b 03		 mov	 eax, DWORD PTR [ebx]
$LN49@Extract:
  0008e	8b 4d f8	 mov	 ecx, DWORD PTR __Erasednode$1$[ebp]
$LN43@Extract:

; 559  :                 _Myhead->_Left = _Fixnode->_Isnil ? _Fixnodeparent // smallest is parent of erased node

  00091	89 10		 mov	 DWORD PTR [eax], edx
$LN16@Extract:

; 560  :                                                   : _Min(_Fixnode); // smallest in relinked subtree
; 561  :             }
; 562  : 
; 563  :             if (_Myhead->_Right == _Erasednode) {

  00093	8b 13		 mov	 edx, DWORD PTR [ebx]
  00095	39 4a 08	 cmp	 DWORD PTR [edx+8], ecx
  00098	75 34		 jne	 SHORT $LN17@Extract

; 564  :                 _Myhead->_Right = _Fixnode->_Isnil ? _Fixnodeparent // largest is parent of erased node

  0009a	80 7f 0d 00	 cmp	 BYTE PTR [edi+13], 0
  0009e	74 0d		 je	 SHORT $LN44@Extract

; 565  :                                                    : _Max(_Fixnode); // largest in relinked subtree
; 566  :             }
; 567  :         } else { // erased has two subtrees, _Pnode is successor to erased

  000a0	8b 45 f8	 mov	 eax, DWORD PTR __Erasednode$1$[ebp]
  000a3	8b ce		 mov	 ecx, esi
  000a5	89 4a 08	 mov	 DWORD PTR [edx+8], ecx
  000a8	e9 94 00 00 00	 jmp	 $LN58@Extract
$LN44@Extract:

; 468  :         while (!_Pnode->_Right->_Isnil) {

  000ad	8b 47 08	 mov	 eax, DWORD PTR [edi+8]

; 564  :                 _Myhead->_Right = _Fixnode->_Isnil ? _Fixnodeparent // largest is parent of erased node

  000b0	8b cf		 mov	 ecx, edi

; 468  :         while (!_Pnode->_Right->_Isnil) {

  000b2	80 78 0d 00	 cmp	 BYTE PTR [eax+13], 0
  000b6	75 13		 jne	 SHORT $LN54@Extract
  000b8	0f 1f 84 00 00
	00 00 00	 npad	 8
$LL53@Extract:

; 469  :             _Pnode = _Pnode->_Right;

  000c0	8b c8		 mov	 ecx, eax
  000c2	8b 41 08	 mov	 eax, DWORD PTR [ecx+8]
  000c5	80 78 0d 00	 cmp	 BYTE PTR [eax+13], 0
  000c9	74 f5		 je	 SHORT $LL53@Extract
$LN54@Extract:

; 564  :                 _Myhead->_Right = _Fixnode->_Isnil ? _Fixnodeparent // largest is parent of erased node

  000cb	89 4a 08	 mov	 DWORD PTR [edx+8], ecx
$LN17@Extract:

; 565  :                                                    : _Max(_Fixnode); // largest in relinked subtree
; 566  :             }
; 567  :         } else { // erased has two subtrees, _Pnode is successor to erased

  000ce	8b 45 f8	 mov	 eax, DWORD PTR __Erasednode$1$[ebp]
  000d1	eb 6e		 jmp	 SHORT $LN58@Extract
$LN9@Extract:

; 568  :             _Erasednode->_Left->_Parent = _Pnode; // link left up

  000d3	89 50 04	 mov	 DWORD PTR [eax+4], edx

; 569  :             _Pnode->_Left               = _Erasednode->_Left; // link successor down

  000d6	8b 01		 mov	 eax, DWORD PTR [ecx]
  000d8	89 02		 mov	 DWORD PTR [edx], eax

; 570  : 
; 571  :             if (_Pnode == _Erasednode->_Right) {

  000da	8d 42 04	 lea	 eax, DWORD PTR [edx+4]
  000dd	89 45 f4	 mov	 DWORD PTR $T1[ebp], eax
  000e0	3b 51 08	 cmp	 edx, DWORD PTR [ecx+8]
  000e3	75 04		 jne	 SHORT $LN18@Extract

; 572  :                 _Fixnodeparent = _Pnode; // successor is next to erased

  000e5	8b f2		 mov	 esi, edx

; 573  :             } else { // successor further down, link in place of erased

  000e7	eb 1f		 jmp	 SHORT $LN19@Extract
$LN18@Extract:

; 574  :                 _Fixnodeparent = _Pnode->_Parent; // parent is successor's
; 575  :                 if (!_Fixnode->_Isnil) {

  000e9	80 7f 0d 00	 cmp	 BYTE PTR [edi+13], 0
  000ed	8b 30		 mov	 esi, DWORD PTR [eax]
  000ef	75 03		 jne	 SHORT $LN20@Extract

; 576  :                     _Fixnode->_Parent = _Fixnodeparent; // link fix up

  000f1	89 77 04	 mov	 DWORD PTR [edi+4], esi
$LN20@Extract:

; 577  :                 }
; 578  : 
; 579  :                 _Fixnodeparent->_Left        = _Fixnode; // link fix down

  000f4	89 3e		 mov	 DWORD PTR [esi], edi

; 580  :                 _Pnode->_Right               = _Erasednode->_Right; // link next down

  000f6	8b 41 08	 mov	 eax, DWORD PTR [ecx+8]
  000f9	89 42 08	 mov	 DWORD PTR [edx+8], eax

; 581  :                 _Erasednode->_Right->_Parent = _Pnode; // right up

  000fc	8b 41 08	 mov	 eax, DWORD PTR [ecx+8]
  000ff	89 50 04	 mov	 DWORD PTR [eax+4], edx
  00102	8d 42 04	 lea	 eax, DWORD PTR [edx+4]
  00105	89 45 f4	 mov	 DWORD PTR $T1[ebp], eax
$LN19@Extract:

; 582  :             }
; 583  : 
; 584  :             if (_Myhead->_Parent == _Erasednode) {

  00108	8b 03		 mov	 eax, DWORD PTR [ebx]
  0010a	39 48 04	 cmp	 DWORD PTR [eax+4], ecx
  0010d	75 05		 jne	 SHORT $LN21@Extract

; 585  :                 _Myhead->_Parent = _Pnode; // link down from root

  0010f	89 50 04	 mov	 DWORD PTR [eax+4], edx
  00112	eb 0e		 jmp	 SHORT $LN141@Extract
$LN21@Extract:

; 586  :             } else if (_Erasednode->_Parent->_Left == _Erasednode) {

  00114	8b 41 04	 mov	 eax, DWORD PTR [ecx+4]
  00117	39 08		 cmp	 DWORD PTR [eax], ecx
  00119	75 04		 jne	 SHORT $LN23@Extract

; 587  :                 _Erasednode->_Parent->_Left = _Pnode; // link down to left

  0011b	89 10		 mov	 DWORD PTR [eax], edx

; 588  :             } else {

  0011d	eb 03		 jmp	 SHORT $LN141@Extract
$LN23@Extract:

; 589  :                 _Erasednode->_Parent->_Right = _Pnode; // link down to right

  0011f	89 50 08	 mov	 DWORD PTR [eax+8], edx
$LN141@Extract:

; 590  :             }
; 591  : 
; 592  :             _Pnode->_Parent = _Erasednode->_Parent; // link successor up

  00122	b8 04 00 00 00	 mov	 eax, 4
  00127	8b 04 08	 mov	 eax, DWORD PTR [eax+ecx]
  0012a	8b 4d f4	 mov	 ecx, DWORD PTR $T1[ebp]
  0012d	89 01		 mov	 DWORD PTR [ecx], eax
; File C:\Program Files\Microsoft Visual Studio\2022\Professional\VC\Tools\MSVC\14.44.35207\include\utility

; 140  :     _Left    = _STD move(_Right);

  0012f	8b 45 f8	 mov	 eax, DWORD PTR __Erasednode$1$[ebp]
  00132	8a 4a 0c	 mov	 cl, BYTE PTR [edx+12]
  00135	8a 40 0c	 mov	 al, BYTE PTR [eax+12]
  00138	88 42 0c	 mov	 BYTE PTR [edx+12], al

; 141  :     _Right   = _STD move(_Tmp);

  0013b	8b 45 f8	 mov	 eax, DWORD PTR __Erasednode$1$[ebp]
  0013e	88 48 0c	 mov	 BYTE PTR [eax+12], cl
$LN58@Extract:
; File C:\Program Files\Microsoft Visual Studio\2022\Professional\VC\Tools\MSVC\14.44.35207\include\xtree

; 596  :         if (_Erasednode->_Color == _Black) { // erasing black link, must recolor/rebalance tree

  00141	80 78 0c 01	 cmp	 BYTE PTR [eax+12], 1
  00145	0f 85 ba 01 00
	00		 jne	 $LN25@Extract

; 597  :             for (; _Fixnode != _Myhead->_Parent && _Fixnode->_Color == _Black; _Fixnodeparent = _Fixnode->_Parent) {

  0014b	8b 03		 mov	 eax, DWORD PTR [ebx]
  0014d	3b 78 04	 cmp	 edi, DWORD PTR [eax+4]
  00150	0f 84 a8 01 00
	00		 je	 $LN3@Extract
  00156	80 7f 0c 01	 cmp	 BYTE PTR [edi+12], 1
  0015a	89 75 f4	 mov	 DWORD PTR tv1093[ebp], esi
  0015d	0f 85 9b 01 00
	00		 jne	 $LN3@Extract
$LL4@Extract:

; 598  :                 if (_Fixnode == _Fixnodeparent->_Left) { // fixup left subtree

  00163	8b 0e		 mov	 ecx, DWORD PTR [esi]
  00165	3b f9		 cmp	 edi, ecx
  00167	0f 85 be 00 00
	00		 jne	 $LN26@Extract

; 599  :                     _Pnode = _Fixnodeparent->_Right;

  0016d	8b 4e 08	 mov	 ecx, DWORD PTR [esi+8]

; 600  :                     if (_Pnode->_Color == _Red) { // rotate red up from right subtree

  00170	80 79 0c 00	 cmp	 BYTE PTR [ecx+12], 0
  00174	75 54		 jne	 SHORT $LN95@Extract

; 601  :                         _Pnode->_Color         = _Black;

  00176	c6 41 0c 01	 mov	 BYTE PTR [ecx+12], 1

; 484  :         _Nodeptr _Pnode    = _Wherenode->_Right;

  0017a	8b 4e 08	 mov	 ecx, DWORD PTR [esi+8]

; 602  :                         _Fixnodeparent->_Color = _Red;

  0017d	c6 46 0c 00	 mov	 BYTE PTR [esi+12], 0

; 485  :         _Wherenode->_Right = _Pnode->_Left;

  00181	8b 01		 mov	 eax, DWORD PTR [ecx]
  00183	89 46 08	 mov	 DWORD PTR [esi+8], eax

; 486  : 
; 487  :         if (!_Pnode->_Left->_Isnil) {

  00186	8b 01		 mov	 eax, DWORD PTR [ecx]
  00188	80 78 0d 00	 cmp	 BYTE PTR [eax+13], 0
  0018c	75 03		 jne	 SHORT $LN61@Extract

; 488  :             _Pnode->_Left->_Parent = _Wherenode;

  0018e	89 70 04	 mov	 DWORD PTR [eax+4], esi
$LN61@Extract:

; 489  :         }
; 490  : 
; 491  :         _Pnode->_Parent = _Wherenode->_Parent;

  00191	8b 46 04	 mov	 eax, DWORD PTR [esi+4]
  00194	8d 56 04	 lea	 edx, DWORD PTR [esi+4]
  00197	89 41 04	 mov	 DWORD PTR [ecx+4], eax

; 492  : 
; 493  :         if (_Wherenode == _Myhead->_Parent) {

  0019a	8b 03		 mov	 eax, DWORD PTR [ebx]
  0019c	3b 70 04	 cmp	 esi, DWORD PTR [eax+4]
  0019f	75 0c		 jne	 SHORT $LN62@Extract

; 494  :             _Myhead->_Parent = _Pnode;

  001a1	89 48 04	 mov	 DWORD PTR [eax+4], ecx

; 499  :         }
; 500  : 
; 501  :         _Pnode->_Left       = _Wherenode;

  001a4	89 31		 mov	 DWORD PTR [ecx], esi

; 502  :         _Wherenode->_Parent = _Pnode;

  001a6	89 0a		 mov	 DWORD PTR [edx], ecx

; 603  :                         _Lrotate(_Fixnodeparent);
; 604  :                         _Pnode = _Fixnodeparent->_Right;

  001a8	8b 4e 08	 mov	 ecx, DWORD PTR [esi+8]
  001ab	eb 20		 jmp	 SHORT $LN87@Extract
$LN62@Extract:

; 495  :         } else if (_Wherenode == _Wherenode->_Parent->_Left) {

  001ad	8b 02		 mov	 eax, DWORD PTR [edx]
  001af	3b 30		 cmp	 esi, DWORD PTR [eax]
  001b1	75 0b		 jne	 SHORT $LN64@Extract

; 496  :             _Wherenode->_Parent->_Left = _Pnode;

  001b3	89 08		 mov	 DWORD PTR [eax], ecx

; 499  :         }
; 500  : 
; 501  :         _Pnode->_Left       = _Wherenode;

  001b5	89 31		 mov	 DWORD PTR [ecx], esi

; 502  :         _Wherenode->_Parent = _Pnode;

  001b7	89 0a		 mov	 DWORD PTR [edx], ecx

; 603  :                         _Lrotate(_Fixnodeparent);
; 604  :                         _Pnode = _Fixnodeparent->_Right;

  001b9	8b 4e 08	 mov	 ecx, DWORD PTR [esi+8]
  001bc	eb 0f		 jmp	 SHORT $LN87@Extract
$LN64@Extract:

; 498  :             _Wherenode->_Parent->_Right = _Pnode;

  001be	89 48 08	 mov	 DWORD PTR [eax+8], ecx

; 499  :         }
; 500  : 
; 501  :         _Pnode->_Left       = _Wherenode;

  001c1	89 31		 mov	 DWORD PTR [ecx], esi

; 502  :         _Wherenode->_Parent = _Pnode;

  001c3	89 0a		 mov	 DWORD PTR [edx], ecx

; 603  :                         _Lrotate(_Fixnodeparent);
; 604  :                         _Pnode = _Fixnodeparent->_Right;

  001c5	8b 4e 08	 mov	 ecx, DWORD PTR [esi+8]
  001c8	eb 03		 jmp	 SHORT $LN87@Extract
$LN95@Extract:
  001ca	8d 56 04	 lea	 edx, DWORD PTR [esi+4]
$LN87@Extract:

; 605  :                     }
; 606  : 
; 607  :                     if (_Pnode->_Isnil) {

  001cd	80 79 0d 00	 cmp	 BYTE PTR [ecx+13], 0
  001d1	0f 85 d0 00 00
	00		 jne	 $LN2@Extract

; 608  :                         _Fixnode = _Fixnodeparent; // shouldn't happen
; 609  :                     } else if (_Pnode->_Left->_Color == _Black
; 610  :                                && _Pnode->_Right->_Color == _Black) { // redden right subtree with black children

  001d7	8b 01		 mov	 eax, DWORD PTR [ecx]
  001d9	80 78 0c 01	 cmp	 BYTE PTR [eax+12], 1
  001dd	75 0d		 jne	 SHORT $LN97@Extract
  001df	8b 41 08	 mov	 eax, DWORD PTR [ecx+8]
  001e2	80 78 0c 01	 cmp	 BYTE PTR [eax+12], 1
  001e6	0f 84 b4 00 00
	00		 je	 $LN142@Extract
$LN97@Extract:

; 611  :                         _Pnode->_Color = _Red;
; 612  :                         _Fixnode       = _Fixnodeparent;
; 613  :                     } else { // must rearrange right subtree
; 614  :                         if (_Pnode->_Right->_Color == _Black) { // rotate red up from left sub-subtree

  001ec	8b 41 08	 mov	 eax, DWORD PTR [ecx+8]
  001ef	8b 5d fc	 mov	 ebx, DWORD PTR _this$1$[ebp]
  001f2	80 78 0c 01	 cmp	 BYTE PTR [eax+12], 1
  001f6	75 15		 jne	 SHORT $LN33@Extract

; 615  :                             _Pnode->_Left->_Color = _Black;

  001f8	8b 01		 mov	 eax, DWORD PTR [ecx]

; 616  :                             _Pnode->_Color        = _Red;
; 617  :                             _Rrotate(_Pnode);

  001fa	51		 push	 ecx
  001fb	c6 40 0c 01	 mov	 BYTE PTR [eax+12], 1
  001ff	c6 41 0c 00	 mov	 BYTE PTR [ecx+12], 0
  00203	8b cb		 mov	 ecx, ebx
  00205	e8 00 00 00 00	 call	 ?_Rrotate@?$_Tree_val@U?$_Tree_simple_types@U?$pair@$$CBV?$basic_string@DU?$char_traits@D@std@@V?$allocator@D@2@@std@@K@std@@@std@@@std@@QAEXPAU?$_Tree_node@U?$pair@$$CBV?$basic_string@DU?$char_traits@D@std@@V?$allocator@D@2@@std@@K@std@@PAX@2@@Z ; std::_Tree_val<std::_Tree_simple_types<std::pair<std::basic_string<char,std::char_traits<char>,std::allocator<char> > const ,unsigned long> > >::_Rrotate

; 618  :                             _Pnode = _Fixnodeparent->_Right;

  0020a	8b 4e 08	 mov	 ecx, DWORD PTR [esi+8]
$LN33@Extract:

; 619  :                         }
; 620  : 
; 621  :                         _Pnode->_Color         = _Fixnodeparent->_Color;

  0020d	8a 46 0c	 mov	 al, BYTE PTR [esi+12]
  00210	88 41 0c	 mov	 BYTE PTR [ecx+12], al

; 622  :                         _Fixnodeparent->_Color = _Black;

  00213	c6 46 0c 01	 mov	 BYTE PTR [esi+12], 1

; 623  :                         _Pnode->_Right->_Color = _Black;

  00217	8b 41 08	 mov	 eax, DWORD PTR [ecx+8]

; 624  :                         _Lrotate(_Fixnodeparent);

  0021a	8b cb		 mov	 ecx, ebx
  0021c	56		 push	 esi
  0021d	c6 40 0c 01	 mov	 BYTE PTR [eax+12], 1
  00221	e8 00 00 00 00	 call	 ?_Lrotate@?$_Tree_val@U?$_Tree_simple_types@U?$pair@$$CBV?$basic_string@DU?$char_traits@D@std@@V?$allocator@D@2@@std@@K@std@@@std@@@std@@QAEXPAU?$_Tree_node@U?$pair@$$CBV?$basic_string@DU?$char_traits@D@std@@V?$allocator@D@2@@std@@K@std@@PAX@2@@Z ; std::_Tree_val<std::_Tree_simple_types<std::pair<std::basic_string<char,std::char_traits<char>,std::allocator<char> > const ,unsigned long> > >::_Lrotate

; 625  :                         break; // tree now recolored/rebalanced

  00226	e9 d3 00 00 00	 jmp	 $LN3@Extract
$LN26@Extract:

; 626  :                     }
; 627  :                 } else { // fixup right subtree
; 628  :                     _Pnode = _Fixnodeparent->_Left;
; 629  :                     if (_Pnode->_Color == _Red) { // rotate red up from left subtree

  0022b	80 79 0c 00	 cmp	 BYTE PTR [ecx+12], 0
  0022f	75 55		 jne	 SHORT $LN96@Extract

; 630  :                         _Pnode->_Color         = _Black;

  00231	c6 41 0c 01	 mov	 BYTE PTR [ecx+12], 1

; 506  :         _Nodeptr _Pnode   = _Wherenode->_Left;

  00235	8b 0e		 mov	 ecx, DWORD PTR [esi]

; 631  :                         _Fixnodeparent->_Color = _Red;

  00237	c6 46 0c 00	 mov	 BYTE PTR [esi+12], 0

; 507  :         _Wherenode->_Left = _Pnode->_Right;

  0023b	8b 41 08	 mov	 eax, DWORD PTR [ecx+8]
  0023e	89 06		 mov	 DWORD PTR [esi], eax

; 508  : 
; 509  :         if (!_Pnode->_Right->_Isnil) {

  00240	8b 41 08	 mov	 eax, DWORD PTR [ecx+8]
  00243	80 78 0d 00	 cmp	 BYTE PTR [eax+13], 0
  00247	75 03		 jne	 SHORT $LN69@Extract

; 510  :             _Pnode->_Right->_Parent = _Wherenode;

  00249	89 70 04	 mov	 DWORD PTR [eax+4], esi
$LN69@Extract:

; 511  :         }
; 512  : 
; 513  :         _Pnode->_Parent = _Wherenode->_Parent;

  0024c	8b 46 04	 mov	 eax, DWORD PTR [esi+4]
  0024f	8d 56 04	 lea	 edx, DWORD PTR [esi+4]
  00252	89 41 04	 mov	 DWORD PTR [ecx+4], eax

; 514  : 
; 515  :         if (_Wherenode == _Myhead->_Parent) {

  00255	8b 03		 mov	 eax, DWORD PTR [ebx]
  00257	3b 70 04	 cmp	 esi, DWORD PTR [eax+4]
  0025a	75 0c		 jne	 SHORT $LN70@Extract

; 516  :             _Myhead->_Parent = _Pnode;

  0025c	89 48 04	 mov	 DWORD PTR [eax+4], ecx

; 521  :         }
; 522  : 
; 523  :         _Pnode->_Right      = _Wherenode;

  0025f	89 71 08	 mov	 DWORD PTR [ecx+8], esi

; 524  :         _Wherenode->_Parent = _Pnode;

  00262	89 0a		 mov	 DWORD PTR [edx], ecx

; 632  :                         _Rrotate(_Fixnodeparent);
; 633  :                         _Pnode = _Fixnodeparent->_Left;

  00264	8b 0e		 mov	 ecx, DWORD PTR [esi]
  00266	eb 21		 jmp	 SHORT $LN86@Extract
$LN70@Extract:

; 517  :         } else if (_Wherenode == _Wherenode->_Parent->_Right) {

  00268	8b 02		 mov	 eax, DWORD PTR [edx]
  0026a	3b 70 08	 cmp	 esi, DWORD PTR [eax+8]
  0026d	75 0c		 jne	 SHORT $LN72@Extract

; 518  :             _Wherenode->_Parent->_Right = _Pnode;

  0026f	89 48 08	 mov	 DWORD PTR [eax+8], ecx

; 521  :         }
; 522  : 
; 523  :         _Pnode->_Right      = _Wherenode;

  00272	89 71 08	 mov	 DWORD PTR [ecx+8], esi

; 524  :         _Wherenode->_Parent = _Pnode;

  00275	89 0a		 mov	 DWORD PTR [edx], ecx

; 632  :                         _Rrotate(_Fixnodeparent);
; 633  :                         _Pnode = _Fixnodeparent->_Left;

  00277	8b 0e		 mov	 ecx, DWORD PTR [esi]
  00279	eb 0e		 jmp	 SHORT $LN86@Extract
$LN72@Extract:

; 520  :             _Wherenode->_Parent->_Left = _Pnode;

  0027b	89 08		 mov	 DWORD PTR [eax], ecx

; 521  :         }
; 522  : 
; 523  :         _Pnode->_Right      = _Wherenode;

  0027d	89 71 08	 mov	 DWORD PTR [ecx+8], esi

; 524  :         _Wherenode->_Parent = _Pnode;

  00280	89 0a		 mov	 DWORD PTR [edx], ecx

; 632  :                         _Rrotate(_Fixnodeparent);
; 633  :                         _Pnode = _Fixnodeparent->_Left;

  00282	8b 0e		 mov	 ecx, DWORD PTR [esi]
  00284	eb 03		 jmp	 SHORT $LN86@Extract
$LN96@Extract:
  00286	8d 56 04	 lea	 edx, DWORD PTR [esi+4]
$LN86@Extract:

; 634  :                     }
; 635  : 
; 636  :                     if (_Pnode->_Isnil) {

  00289	80 79 0d 00	 cmp	 BYTE PTR [ecx+13], 0
  0028d	75 18		 jne	 SHORT $LN2@Extract

; 637  :                         _Fixnode = _Fixnodeparent; // shouldn't happen
; 638  :                     } else if (_Pnode->_Right->_Color == _Black
; 639  :                                && _Pnode->_Left->_Color == _Black) { // redden left subtree with black children

  0028f	8b 59 08	 mov	 ebx, DWORD PTR [ecx+8]
  00292	80 7b 0c 01	 cmp	 BYTE PTR [ebx+12], 1
  00296	75 2c		 jne	 SHORT $LN98@Extract
  00298	8b 01		 mov	 eax, DWORD PTR [ecx]
  0029a	80 78 0c 01	 cmp	 BYTE PTR [eax+12], 1
  0029e	75 24		 jne	 SHORT $LN98@Extract
$LN142@Extract:

; 597  :             for (; _Fixnode != _Myhead->_Parent && _Fixnode->_Color == _Black; _Fixnodeparent = _Fixnode->_Parent) {

  002a0	8b 5d fc	 mov	 ebx, DWORD PTR _this$1$[ebp]
  002a3	c6 41 0c 00	 mov	 BYTE PTR [ecx+12], 0
$LN2@Extract:
  002a7	8b 03		 mov	 eax, DWORD PTR [ebx]
  002a9	8b 4d f4	 mov	 ecx, DWORD PTR tv1093[ebp]
  002ac	8b f9		 mov	 edi, ecx
  002ae	8b 32		 mov	 esi, DWORD PTR [edx]
  002b0	3b 48 04	 cmp	 ecx, DWORD PTR [eax+4]
  002b3	74 49		 je	 SHORT $LN3@Extract
  002b5	80 7f 0c 01	 cmp	 BYTE PTR [edi+12], 1
  002b9	89 75 f4	 mov	 DWORD PTR tv1093[ebp], esi
  002bc	0f 84 a1 fe ff
	ff		 je	 $LL4@Extract
  002c2	eb 3a		 jmp	 SHORT $LN3@Extract
$LN98@Extract:

; 640  :                         _Pnode->_Color = _Red;
; 641  :                         _Fixnode       = _Fixnodeparent;
; 642  :                     } else { // must rearrange left subtree
; 643  :                         if (_Pnode->_Left->_Color == _Black) { // rotate red up from right sub-subtree

  002c4	8b 01		 mov	 eax, DWORD PTR [ecx]
  002c6	80 78 0c 01	 cmp	 BYTE PTR [eax+12], 1
  002ca	75 17		 jne	 SHORT $LN101@Extract

; 644  :                             _Pnode->_Right->_Color = _Black;

  002cc	c6 43 0c 01	 mov	 BYTE PTR [ebx+12], 1

; 645  :                             _Pnode->_Color         = _Red;
; 646  :                             _Lrotate(_Pnode);

  002d0	8b 5d fc	 mov	 ebx, DWORD PTR _this$1$[ebp]
  002d3	c6 41 0c 00	 mov	 BYTE PTR [ecx+12], 0
  002d7	51		 push	 ecx
  002d8	8b cb		 mov	 ecx, ebx
  002da	e8 00 00 00 00	 call	 ?_Lrotate@?$_Tree_val@U?$_Tree_simple_types@U?$pair@$$CBV?$basic_string@DU?$char_traits@D@std@@V?$allocator@D@2@@std@@K@std@@@std@@@std@@QAEXPAU?$_Tree_node@U?$pair@$$CBV?$basic_string@DU?$char_traits@D@std@@V?$allocator@D@2@@std@@K@std@@PAX@2@@Z ; std::_Tree_val<std::_Tree_simple_types<std::pair<std::basic_string<char,std::char_traits<char>,std::allocator<char> > const ,unsigned long> > >::_Lrotate

; 647  :                             _Pnode = _Fixnodeparent->_Left;

  002df	8b 0e		 mov	 ecx, DWORD PTR [esi]
  002e1	eb 03		 jmp	 SHORT $LN39@Extract
$LN101@Extract:

; 640  :                         _Pnode->_Color = _Red;
; 641  :                         _Fixnode       = _Fixnodeparent;
; 642  :                     } else { // must rearrange left subtree
; 643  :                         if (_Pnode->_Left->_Color == _Black) { // rotate red up from right sub-subtree

  002e3	8b 5d fc	 mov	 ebx, DWORD PTR _this$1$[ebp]
$LN39@Extract:

; 648  :                         }
; 649  : 
; 650  :                         _Pnode->_Color         = _Fixnodeparent->_Color;

  002e6	8a 46 0c	 mov	 al, BYTE PTR [esi+12]
  002e9	88 41 0c	 mov	 BYTE PTR [ecx+12], al

; 651  :                         _Fixnodeparent->_Color = _Black;

  002ec	c6 46 0c 01	 mov	 BYTE PTR [esi+12], 1

; 652  :                         _Pnode->_Left->_Color  = _Black;

  002f0	8b 01		 mov	 eax, DWORD PTR [ecx]

; 653  :                         _Rrotate(_Fixnodeparent);

  002f2	8b cb		 mov	 ecx, ebx
  002f4	56		 push	 esi
  002f5	c6 40 0c 01	 mov	 BYTE PTR [eax+12], 1
  002f9	e8 00 00 00 00	 call	 ?_Rrotate@?$_Tree_val@U?$_Tree_simple_types@U?$pair@$$CBV?$basic_string@DU?$char_traits@D@std@@V?$allocator@D@2@@std@@K@std@@@std@@@std@@QAEXPAU?$_Tree_node@U?$pair@$$CBV?$basic_string@DU?$char_traits@D@std@@V?$allocator@D@2@@std@@K@std@@PAX@2@@Z ; std::_Tree_val<std::_Tree_simple_types<std::pair<std::basic_string<char,std::char_traits<char>,std::allocator<char> > const ,unsigned long> > >::_Rrotate
$LN3@Extract:

; 654  :                         break; // tree now recolored/rebalanced
; 655  :                     }
; 656  :                 }
; 657  :             }
; 658  : 
; 659  :             _Fixnode->_Color = _Black; // stopping node is black

  002fe	8b 45 f8	 mov	 eax, DWORD PTR __Erasednode$1$[ebp]
  00301	c6 47 0c 01	 mov	 BYTE PTR [edi+12], 1
$LN25@Extract:

; 660  :         }
; 661  : 
; 662  :         if (0 < _Mysize) {

  00305	8b 4b 04	 mov	 ecx, DWORD PTR [ebx+4]
  00308	85 c9		 test	 ecx, ecx
  0030a	74 04		 je	 SHORT $LN40@Extract

; 663  :             --_Mysize;

  0030c	49		 dec	 ecx
  0030d	89 4b 04	 mov	 DWORD PTR [ebx+4], ecx
$LN40@Extract:

; 664  :         }
; 665  : 
; 666  :         return _Erasednode;
; 667  :     }

  00310	5f		 pop	 edi
  00311	5e		 pop	 esi
  00312	5b		 pop	 ebx
  00313	8b e5		 mov	 esp, ebp
  00315	5d		 pop	 ebp
  00316	c2 04 00	 ret	 4
?_Extract@?$_Tree_val@U?$_Tree_simple_types@U?$pair@$$CBV?$basic_string@DU?$char_traits@D@std@@V?$allocator@D@2@@std@@K@std@@@std@@@std@@QAEPAU?$_Tree_node@U?$pair@$$CBV?$basic_string@DU?$char_traits@D@std@@V?$allocator@D@2@@std@@K@std@@PAX@2@V?$_Tree_unchecked_const_iterator@V?$_Tree_val@U?$_Tree_simple_types@U?$pair@$$CBV?$basic_string@DU?$char_traits@D@std@@V?$allocator@D@2@@std@@K@std@@@std@@@std@@U_Iterator_base0@2@@2@@Z ENDP ; std::_Tree_val<std::_Tree_simple_types<std::pair<std::basic_string<char,std::char_traits<char>,std::allocator<char> > const ,unsigned long> > >::_Extract
_TEXT	ENDS
; Function compile flags: /Ogtp
; File C:\Program Files\Microsoft Visual Studio\2022\Professional\VC\Tools\MSVC\14.44.35207\include\xtree
;	COMDAT ?_Rrotate@?$_Tree_val@U?$_Tree_simple_types@U?$pair@$$CBV?$basic_string@DU?$char_traits@D@std@@V?$allocator@D@2@@std@@K@std@@@std@@@std@@QAEXPAU?$_Tree_node@U?$pair@$$CBV?$basic_string@DU?$char_traits@D@std@@V?$allocator@D@2@@std@@K@std@@PAX@2@@Z
_TEXT	SEGMENT
__Wherenode$ = 8					; size = 4
?_Rrotate@?$_Tree_val@U?$_Tree_simple_types@U?$pair@$$CBV?$basic_string@DU?$char_traits@D@std@@V?$allocator@D@2@@std@@K@std@@@std@@@std@@QAEXPAU?$_Tree_node@U?$pair@$$CBV?$basic_string@DU?$char_traits@D@std@@V?$allocator@D@2@@std@@K@std@@PAX@2@@Z PROC ; std::_Tree_val<std::_Tree_simple_types<std::pair<std::basic_string<char,std::char_traits<char>,std::allocator<char> > const ,unsigned long> > >::_Rrotate, COMDAT
; _this$ = ecx

; 505  :     void _Rrotate(_Nodeptr _Wherenode) noexcept { // promote left node to root of subtree

  00000	55		 push	 ebp
  00001	8b ec		 mov	 ebp, esp

; 506  :         _Nodeptr _Pnode   = _Wherenode->_Left;

  00003	8b 55 08	 mov	 edx, DWORD PTR __Wherenode$[ebp]
  00006	56		 push	 esi
  00007	8b 32		 mov	 esi, DWORD PTR [edx]

; 507  :         _Wherenode->_Left = _Pnode->_Right;

  00009	8b 46 08	 mov	 eax, DWORD PTR [esi+8]
  0000c	89 02		 mov	 DWORD PTR [edx], eax

; 508  : 
; 509  :         if (!_Pnode->_Right->_Isnil) {

  0000e	8b 46 08	 mov	 eax, DWORD PTR [esi+8]
  00011	80 78 0d 00	 cmp	 BYTE PTR [eax+13], 0
  00015	75 03		 jne	 SHORT $LN2@Rrotate

; 510  :             _Pnode->_Right->_Parent = _Wherenode;

  00017	89 50 04	 mov	 DWORD PTR [eax+4], edx
$LN2@Rrotate:

; 511  :         }
; 512  : 
; 513  :         _Pnode->_Parent = _Wherenode->_Parent;

  0001a	8b 42 04	 mov	 eax, DWORD PTR [edx+4]
  0001d	89 46 04	 mov	 DWORD PTR [esi+4], eax

; 514  : 
; 515  :         if (_Wherenode == _Myhead->_Parent) {

  00020	8b 01		 mov	 eax, DWORD PTR [ecx]
  00022	3b 50 04	 cmp	 edx, DWORD PTR [eax+4]
  00025	75 0e		 jne	 SHORT $LN3@Rrotate

; 516  :             _Myhead->_Parent = _Pnode;

  00027	89 70 04	 mov	 DWORD PTR [eax+4], esi

; 521  :         }
; 522  : 
; 523  :         _Pnode->_Right      = _Wherenode;
; 524  :         _Wherenode->_Parent = _Pnode;
; 525  :     }

  0002a	89 56 08	 mov	 DWORD PTR [esi+8], edx
  0002d	89 72 04	 mov	 DWORD PTR [edx+4], esi
  00030	5e		 pop	 esi
  00031	5d		 pop	 ebp
  00032	c2 04 00	 ret	 4
$LN3@Rrotate:

; 517  :         } else if (_Wherenode == _Wherenode->_Parent->_Right) {

  00035	8b 42 04	 mov	 eax, DWORD PTR [edx+4]
  00038	3b 50 08	 cmp	 edx, DWORD PTR [eax+8]
  0003b	75 0e		 jne	 SHORT $LN5@Rrotate

; 518  :             _Wherenode->_Parent->_Right = _Pnode;

  0003d	89 70 08	 mov	 DWORD PTR [eax+8], esi

; 521  :         }
; 522  : 
; 523  :         _Pnode->_Right      = _Wherenode;
; 524  :         _Wherenode->_Parent = _Pnode;
; 525  :     }

  00040	89 56 08	 mov	 DWORD PTR [esi+8], edx
  00043	89 72 04	 mov	 DWORD PTR [edx+4], esi
  00046	5e		 pop	 esi
  00047	5d		 pop	 ebp
  00048	c2 04 00	 ret	 4
$LN5@Rrotate:

; 519  :         } else {
; 520  :             _Wherenode->_Parent->_Left = _Pnode;

  0004b	89 30		 mov	 DWORD PTR [eax], esi

; 521  :         }
; 522  : 
; 523  :         _Pnode->_Right      = _Wherenode;
; 524  :         _Wherenode->_Parent = _Pnode;
; 525  :     }

  0004d	89 56 08	 mov	 DWORD PTR [esi+8], edx
  00050	89 72 04	 mov	 DWORD PTR [edx+4], esi
  00053	5e		 pop	 esi
  00054	5d		 pop	 ebp
  00055	c2 04 00	 ret	 4
?_Rrotate@?$_Tree_val@U?$_Tree_simple_types@U?$pair@$$CBV?$basic_string@DU?$char_traits@D@std@@V?$allocator@D@2@@std@@K@std@@@std@@@std@@QAEXPAU?$_Tree_node@U?$pair@$$CBV?$basic_string@DU?$char_traits@D@std@@V?$allocator@D@2@@std@@K@std@@PAX@2@@Z ENDP ; std::_Tree_val<std::_Tree_simple_types<std::pair<std::basic_string<char,std::char_traits<char>,std::allocator<char> > const ,unsigned long> > >::_Rrotate
_TEXT	ENDS
; Function compile flags: /Ogtp
; File C:\Program Files\Microsoft Visual Studio\2022\Professional\VC\Tools\MSVC\14.44.35207\include\xtree
;	COMDAT ?_Lrotate@?$_Tree_val@U?$_Tree_simple_types@U?$pair@$$CBV?$basic_string@DU?$char_traits@D@std@@V?$allocator@D@2@@std@@K@std@@@std@@@std@@QAEXPAU?$_Tree_node@U?$pair@$$CBV?$basic_string@DU?$char_traits@D@std@@V?$allocator@D@2@@std@@K@std@@PAX@2@@Z
_TEXT	SEGMENT
__Wherenode$ = 8					; size = 4
?_Lrotate@?$_Tree_val@U?$_Tree_simple_types@U?$pair@$$CBV?$basic_string@DU?$char_traits@D@std@@V?$allocator@D@2@@std@@K@std@@@std@@@std@@QAEXPAU?$_Tree_node@U?$pair@$$CBV?$basic_string@DU?$char_traits@D@std@@V?$allocator@D@2@@std@@K@std@@PAX@2@@Z PROC ; std::_Tree_val<std::_Tree_simple_types<std::pair<std::basic_string<char,std::char_traits<char>,std::allocator<char> > const ,unsigned long> > >::_Lrotate, COMDAT
; _this$ = ecx

; 483  :     void _Lrotate(_Nodeptr _Wherenode) noexcept { // promote right node to root of subtree

  00000	55		 push	 ebp
  00001	8b ec		 mov	 ebp, esp

; 484  :         _Nodeptr _Pnode    = _Wherenode->_Right;

  00003	8b 55 08	 mov	 edx, DWORD PTR __Wherenode$[ebp]
  00006	56		 push	 esi
  00007	8b 72 08	 mov	 esi, DWORD PTR [edx+8]

; 485  :         _Wherenode->_Right = _Pnode->_Left;

  0000a	8b 06		 mov	 eax, DWORD PTR [esi]
  0000c	89 42 08	 mov	 DWORD PTR [edx+8], eax

; 486  : 
; 487  :         if (!_Pnode->_Left->_Isnil) {

  0000f	8b 06		 mov	 eax, DWORD PTR [esi]
  00011	80 78 0d 00	 cmp	 BYTE PTR [eax+13], 0
  00015	75 03		 jne	 SHORT $LN2@Lrotate

; 488  :             _Pnode->_Left->_Parent = _Wherenode;

  00017	89 50 04	 mov	 DWORD PTR [eax+4], edx
$LN2@Lrotate:

; 489  :         }
; 490  : 
; 491  :         _Pnode->_Parent = _Wherenode->_Parent;

  0001a	8b 42 04	 mov	 eax, DWORD PTR [edx+4]
  0001d	89 46 04	 mov	 DWORD PTR [esi+4], eax

; 492  : 
; 493  :         if (_Wherenode == _Myhead->_Parent) {

  00020	8b 01		 mov	 eax, DWORD PTR [ecx]
  00022	3b 50 04	 cmp	 edx, DWORD PTR [eax+4]
  00025	75 0d		 jne	 SHORT $LN3@Lrotate

; 494  :             _Myhead->_Parent = _Pnode;

  00027	89 70 04	 mov	 DWORD PTR [eax+4], esi

; 499  :         }
; 500  : 
; 501  :         _Pnode->_Left       = _Wherenode;
; 502  :         _Wherenode->_Parent = _Pnode;
; 503  :     }

  0002a	89 16		 mov	 DWORD PTR [esi], edx
  0002c	89 72 04	 mov	 DWORD PTR [edx+4], esi
  0002f	5e		 pop	 esi
  00030	5d		 pop	 ebp
  00031	c2 04 00	 ret	 4
$LN3@Lrotate:

; 495  :         } else if (_Wherenode == _Wherenode->_Parent->_Left) {

  00034	8b 42 04	 mov	 eax, DWORD PTR [edx+4]
  00037	3b 10		 cmp	 edx, DWORD PTR [eax]
  00039	75 0c		 jne	 SHORT $LN5@Lrotate

; 496  :             _Wherenode->_Parent->_Left = _Pnode;

  0003b	89 30		 mov	 DWORD PTR [eax], esi

; 499  :         }
; 500  : 
; 501  :         _Pnode->_Left       = _Wherenode;
; 502  :         _Wherenode->_Parent = _Pnode;
; 503  :     }

  0003d	89 16		 mov	 DWORD PTR [esi], edx
  0003f	89 72 04	 mov	 DWORD PTR [edx+4], esi
  00042	5e		 pop	 esi
  00043	5d		 pop	 ebp
  00044	c2 04 00	 ret	 4
$LN5@Lrotate:

; 497  :         } else {
; 498  :             _Wherenode->_Parent->_Right = _Pnode;

  00047	89 70 08	 mov	 DWORD PTR [eax+8], esi

; 499  :         }
; 500  : 
; 501  :         _Pnode->_Left       = _Wherenode;
; 502  :         _Wherenode->_Parent = _Pnode;
; 503  :     }

  0004a	89 16		 mov	 DWORD PTR [esi], edx
  0004c	89 72 04	 mov	 DWORD PTR [edx+4], esi
  0004f	5e		 pop	 esi
  00050	5d		 pop	 ebp
  00051	c2 04 00	 ret	 4
?_Lrotate@?$_Tree_val@U?$_Tree_simple_types@U?$pair@$$CBV?$basic_string@DU?$char_traits@D@std@@V?$allocator@D@2@@std@@K@std@@@std@@@std@@QAEXPAU?$_Tree_node@U?$pair@$$CBV?$basic_string@DU?$char_traits@D@std@@V?$allocator@D@2@@std@@K@std@@PAX@2@@Z ENDP ; std::_Tree_val<std::_Tree_simple_types<std::pair<std::basic_string<char,std::char_traits<char>,std::allocator<char> > const ,unsigned long> > >::_Lrotate
_TEXT	ENDS
; Function compile flags: /Ogtp
; File C:\Program Files\Microsoft Visual Studio\2022\Professional\VC\Tools\MSVC\14.44.35207\include\xtree
; File C:\Program Files\Microsoft Visual Studio\2022\Professional\VC\Tools\MSVC\14.44.35207\include\type_traits
; File C:\Program Files\Microsoft Visual Studio\2022\Professional\VC\Tools\MSVC\14.44.35207\include\xtree
; File C:\Program Files\Microsoft Visual Studio\2022\Professional\VC\Tools\MSVC\14.44.35207\include\type_traits
; File C:\Program Files\Microsoft Visual Studio\2022\Professional\VC\Tools\MSVC\14.44.35207\include\xtree
; File C:\Program Files\Microsoft Visual Studio\2022\Professional\VC\Tools\MSVC\14.44.35207\include\type_traits
; File C:\Program Files\Microsoft Visual Studio\2022\Professional\VC\Tools\MSVC\14.44.35207\include\xtree
; File C:\Program Files\Microsoft Visual Studio\2022\Professional\VC\Tools\MSVC\14.44.35207\include\xutility
; File C:\Program Files\Microsoft Visual Studio\2022\Professional\VC\Tools\MSVC\14.44.35207\include\xtree
; File C:\Program Files\Microsoft Visual Studio\2022\Professional\VC\Tools\MSVC\14.44.35207\include\xutility
; File C:\Program Files\Microsoft Visual Studio\2022\Professional\VC\Tools\MSVC\14.44.35207\include\xtree
; File C:\Program Files\Microsoft Visual Studio\2022\Professional\VC\Tools\MSVC\14.44.35207\include\xutility
; File C:\Program Files\Microsoft Visual Studio\2022\Professional\VC\Tools\MSVC\14.44.35207\include\xtree
; File C:\Program Files\Microsoft Visual Studio\2022\Professional\VC\Tools\MSVC\14.44.35207\include\xutility
; File C:\Program Files\Microsoft Visual Studio\2022\Professional\VC\Tools\MSVC\14.44.35207\include\xtree
; File C:\Program Files\Microsoft Visual Studio\2022\Professional\VC\Tools\MSVC\14.44.35207\include\xmemory
; File C:\Program Files\Microsoft Visual Studio\2022\Professional\VC\Tools\MSVC\14.44.35207\include\xtree
; File C:\Program Files\Microsoft Visual Studio\2022\Professional\VC\Tools\MSVC\14.44.35207\include\xmemory
; File C:\Program Files\Microsoft Visual Studio\2022\Professional\VC\Tools\MSVC\14.44.35207\include\xtree
;	COMDAT ?erase@?$_Tree@V?$_Tmap_traits@V?$basic_string@DU?$char_traits@D@std@@V?$allocator@D@2@@std@@KU?$less@V?$basic_string@DU?$char_traits@D@std@@V?$allocator@D@2@@std@@@2@V?$allocator@U?$pair@$$CBV?$basic_string@DU?$char_traits@D@std@@V?$allocator@D@2@@std@@K@std@@@2@$0A@@std@@@std@@QAEIABV?$basic_string@DU?$char_traits@D@std@@V?$allocator@D@2@@2@@Z
_TEXT	SEGMENT
__Off$1$ = -12						; size = 4
tv727 = -12						; size = 4
_this$1$ = -8						; size = 4
__Head$1$ = -4						; size = 4
__Keyval$ = 8						; size = 4
__First$ = 8						; size = 4
?erase@?$_Tree@V?$_Tmap_traits@V?$basic_string@DU?$char_traits@D@std@@V?$allocator@D@2@@std@@KU?$less@V?$basic_string@DU?$char_traits@D@std@@V?$allocator@D@2@@std@@@2@V?$allocator@U?$pair@$$CBV?$basic_string@DU?$char_traits@D@std@@V?$allocator@D@2@@std@@K@std@@@2@$0A@@std@@@std@@QAEIABV?$basic_string@DU?$char_traits@D@std@@V?$allocator@D@2@@2@@Z PROC ; std::_Tree<std::_Tmap_traits<std::basic_string<char,std::char_traits<char>,std::allocator<char> >,unsigned long,std::less<std::basic_string<char,std::char_traits<char>,std::allocator<char> > >,std::allocator<std::pair<std::basic_string<char,std::char_traits<char>,std::allocator<char> > const ,unsigned long> >,0> >::erase, COMDAT
; _this$ = ecx

; 1357 :     size_type erase(const key_type& _Keyval) noexcept(noexcept(_Eqrange(_Keyval))) /* strengthened */ {

  00000	55		 push	 ebp
  00001	8b ec		 mov	 ebp, esp
  00003	83 ec 0c	 sub	 esp, 12			; 0000000cH
  00006	8b c1		 mov	 eax, ecx

; 1713 :         while (!_Pnode->_Isnil) {

  00008	8b 4d 08	 mov	 ecx, DWORD PTR __Keyval$[ebp]

; 1357 :     size_type erase(const key_type& _Keyval) noexcept(noexcept(_Eqrange(_Keyval))) /* strengthened */ {

  0000b	53		 push	 ebx
  0000c	89 45 f8	 mov	 DWORD PTR _this$1$[ebp], eax
  0000f	56		 push	 esi

; 1709 :         _Nodeptr _Pnode   = _Scary->_Myhead->_Parent;

  00010	8b 00		 mov	 eax, DWORD PTR [eax]

; 1710 :         _Nodeptr _Lonode  = _Scary->_Myhead; // end() if search fails

  00012	8b f0		 mov	 esi, eax

; 1357 :     size_type erase(const key_type& _Keyval) noexcept(noexcept(_Eqrange(_Keyval))) /* strengthened */ {

  00014	57		 push	 edi

; 1709 :         _Nodeptr _Pnode   = _Scary->_Myhead->_Parent;

  00015	89 45 fc	 mov	 DWORD PTR __Head$1$[ebp], eax

; 1711 :         _Nodeptr _Hinode  = _Scary->_Myhead; // end() if search fails

  00018	8b d8		 mov	 ebx, eax
  0001a	8b 50 04	 mov	 edx, DWORD PTR [eax+4]
  0001d	8b fa		 mov	 edi, edx
  0001f	89 55 f4	 mov	 DWORD PTR tv727[ebp], edx

; 1712 : 
; 1713 :         while (!_Pnode->_Isnil) {

  00022	80 7f 0d 00	 cmp	 BYTE PTR [edi+13], 0
  00026	75 40		 jne	 SHORT $LN6@erase
$LL5@erase:

; 1714 :             const auto& _Nodekey = _Traits::_Kfn(_Pnode->_Myval);

  00028	8d 47 10	 lea	 eax, DWORD PTR [edi+16]
; File C:\Program Files\Microsoft Visual Studio\2022\Professional\VC\Tools\MSVC\14.44.35207\include\type_traits

; 2380 :         return _Left < _Right;

  0002b	51		 push	 ecx
  0002c	50		 push	 eax
  0002d	e8 00 00 00 00	 call	 ??$?MDU?$char_traits@D@std@@V?$allocator@D@1@@std@@YA_NABV?$basic_string@DU?$char_traits@D@std@@V?$allocator@D@2@@0@0@Z ; std::operator<<char,std::char_traits<char>,std::allocator<char> >
  00032	83 c4 08	 add	 esp, 8
; File C:\Program Files\Microsoft Visual Studio\2022\Professional\VC\Tools\MSVC\14.44.35207\include\xtree

; 1715 :             if (_DEBUG_LT_PRED(_Comp, _Nodekey, _Keyval)) {

  00035	84 c0		 test	 al, al
  00037	74 05		 je	 SHORT $LN9@erase

; 1716 :                 _Pnode = _Pnode->_Right; // descend right subtree

  00039	8b 7f 08	 mov	 edi, DWORD PTR [edi+8]

; 1717 :             } else { // _Pnode not less than _Keyval, remember it

  0003c	eb 1e		 jmp	 SHORT $LN10@erase
$LN9@erase:

; 1718 :                 if (_Hinode->_Isnil && _DEBUG_LT_PRED(_Comp, _Keyval, _Nodekey)) {

  0003e	80 7b 0d 00	 cmp	 BYTE PTR [ebx+13], 0
  00042	74 14		 je	 SHORT $LN11@erase
; File C:\Program Files\Microsoft Visual Studio\2022\Professional\VC\Tools\MSVC\14.44.35207\include\type_traits

; 2380 :         return _Left < _Right;

  00044	8d 47 10	 lea	 eax, DWORD PTR [edi+16]
  00047	50		 push	 eax
  00048	ff 75 08	 push	 DWORD PTR __Keyval$[ebp]
  0004b	e8 00 00 00 00	 call	 ??$?MDU?$char_traits@D@std@@V?$allocator@D@1@@std@@YA_NABV?$basic_string@DU?$char_traits@D@std@@V?$allocator@D@2@@0@0@Z ; std::operator<<char,std::char_traits<char>,std::allocator<char> >
  00050	83 c4 08	 add	 esp, 8
; File C:\Program Files\Microsoft Visual Studio\2022\Professional\VC\Tools\MSVC\14.44.35207\include\xtree

; 1718 :                 if (_Hinode->_Isnil && _DEBUG_LT_PRED(_Comp, _Keyval, _Nodekey)) {

  00053	84 c0		 test	 al, al
  00055	0f 45 df	 cmovne	 ebx, edi
$LN11@erase:

; 1719 :                     _Hinode = _Pnode; // _Pnode greater, remember it
; 1720 :                 }
; 1721 : 
; 1722 :                 _Lonode = _Pnode;

  00058	8b f7		 mov	 esi, edi

; 1723 :                 _Pnode  = _Pnode->_Left; // descend left subtree

  0005a	8b 3f		 mov	 edi, DWORD PTR [edi]
$LN10@erase:

; 1712 : 
; 1713 :         while (!_Pnode->_Isnil) {

  0005c	80 7f 0d 00	 cmp	 BYTE PTR [edi+13], 0
  00060	8b 4d 08	 mov	 ecx, DWORD PTR __Keyval$[ebp]
  00063	74 c3		 je	 SHORT $LL5@erase
  00065	8b 55 f4	 mov	 edx, DWORD PTR tv727[ebp]
$LN6@erase:

; 1724 :             }
; 1725 :         }
; 1726 : 
; 1727 :         _Pnode = _Hinode->_Isnil ? _Scary->_Myhead->_Parent : _Hinode->_Left; // continue scan for upper bound

  00068	80 7b 0d 00	 cmp	 BYTE PTR [ebx+13], 0
  0006c	8b fa		 mov	 edi, edx
  0006e	75 02		 jne	 SHORT $LN16@erase
  00070	8b 3b		 mov	 edi, DWORD PTR [ebx]
$LN16@erase:

; 1728 :         while (!_Pnode->_Isnil) {

  00072	80 7f 0d 00	 cmp	 BYTE PTR [edi+13], 0
  00076	75 23		 jne	 SHORT $LN8@erase
$LL7@erase:

; 1729 :             if (_DEBUG_LT_PRED(_Getcomp(), _Keyval, _Traits::_Kfn(_Pnode->_Myval))) {

  00078	8d 47 10	 lea	 eax, DWORD PTR [edi+16]
; File C:\Program Files\Microsoft Visual Studio\2022\Professional\VC\Tools\MSVC\14.44.35207\include\type_traits

; 2380 :         return _Left < _Right;

  0007b	50		 push	 eax
  0007c	51		 push	 ecx
  0007d	e8 00 00 00 00	 call	 ??$?MDU?$char_traits@D@std@@V?$allocator@D@1@@std@@YA_NABV?$basic_string@DU?$char_traits@D@std@@V?$allocator@D@2@@0@0@Z ; std::operator<<char,std::char_traits<char>,std::allocator<char> >
  00082	83 c4 08	 add	 esp, 8
; File C:\Program Files\Microsoft Visual Studio\2022\Professional\VC\Tools\MSVC\14.44.35207\include\xtree

; 1729 :             if (_DEBUG_LT_PRED(_Getcomp(), _Keyval, _Traits::_Kfn(_Pnode->_Myval))) {

  00085	84 c0		 test	 al, al
  00087	74 06		 je	 SHORT $LN12@erase

; 1730 :                 // _Pnode greater than _Keyval, remember it
; 1731 :                 _Hinode = _Pnode;

  00089	8b df		 mov	 ebx, edi

; 1732 :                 _Pnode  = _Pnode->_Left; // descend left subtree

  0008b	8b 3f		 mov	 edi, DWORD PTR [edi]

; 1733 :             } else {

  0008d	eb 03		 jmp	 SHORT $LN13@erase
$LN12@erase:

; 1734 :                 _Pnode = _Pnode->_Right; // descend right subtree

  0008f	8b 7f 08	 mov	 edi, DWORD PTR [edi+8]
$LN13@erase:

; 1728 :         while (!_Pnode->_Isnil) {

  00092	80 7f 0d 00	 cmp	 BYTE PTR [edi+13], 0
  00096	8b 4d 08	 mov	 ecx, DWORD PTR __Keyval$[ebp]
  00099	74 dd		 je	 SHORT $LL7@erase
$LN8@erase:
; File C:\Program Files\Microsoft Visual Studio\2022\Professional\VC\Tools\MSVC\14.44.35207\include\xutility

; 1667 :         _Iter_diff_t<_InIt> _Off = 0;

  0009b	33 ff		 xor	 edi, edi
  0009d	8b c6		 mov	 eax, esi
  0009f	89 7d f4	 mov	 DWORD PTR __Off$1$[ebp], edi
; File C:\Program Files\Microsoft Visual Studio\2022\Professional\VC\Tools\MSVC\14.44.35207\include\xtree

; 101  :         return !(*this == _Right);

  000a2	3b f3		 cmp	 esi, ebx
; File C:\Program Files\Microsoft Visual Studio\2022\Professional\VC\Tools\MSVC\14.44.35207\include\xutility

; 1668 :         for (; _UFirst != _ULast; ++_UFirst) {

  000a4	74 4d		 je	 SHORT $LN41@erase
$LL42@erase:
; File C:\Program Files\Microsoft Visual Studio\2022\Professional\VC\Tools\MSVC\14.44.35207\include\xtree

; 50   :         if (_Ptr->_Right->_Isnil) { // climb looking for right subtree

  000a6	8b 48 08	 mov	 ecx, DWORD PTR [eax+8]
; File C:\Program Files\Microsoft Visual Studio\2022\Professional\VC\Tools\MSVC\14.44.35207\include\xutility

; 1669 :             ++_Off;

  000a9	47		 inc	 edi
; File C:\Program Files\Microsoft Visual Studio\2022\Professional\VC\Tools\MSVC\14.44.35207\include\xtree

; 50   :         if (_Ptr->_Right->_Isnil) { // climb looking for right subtree

  000aa	80 79 0d 00	 cmp	 BYTE PTR [ecx+13], 0
  000ae	74 24		 je	 SHORT $LN47@erase

; 51   :             _Nodeptr _Pnode;
; 52   :             while (!(_Pnode = _Ptr->_Parent)->_Isnil && _Ptr == _Pnode->_Right) {

  000b0	8b 48 04	 mov	 ecx, DWORD PTR [eax+4]
  000b3	80 79 0d 00	 cmp	 BYTE PTR [ecx+13], 0
  000b7	75 17		 jne	 SHORT $LN156@erase
  000b9	0f 1f 80 00 00
	00 00		 npad	 7
$LL45@erase:
  000c0	3b 41 08	 cmp	 eax, DWORD PTR [ecx+8]
  000c3	75 0b		 jne	 SHORT $LN156@erase

; 53   :                 _Ptr = _Pnode; // ==> parent while right subtree

  000c5	8b c1		 mov	 eax, ecx
  000c7	8b 49 04	 mov	 ecx, DWORD PTR [ecx+4]
  000ca	80 79 0d 00	 cmp	 BYTE PTR [ecx+13], 0
  000ce	74 f0		 je	 SHORT $LL45@erase
$LN156@erase:

; 54   :             }
; 55   : 
; 56   :             _Ptr = _Pnode; // ==> parent (head if end())

  000d0	8b c1		 mov	 eax, ecx

; 57   :         } else {

  000d2	eb 18		 jmp	 SHORT $LN53@erase
$LN47@erase:

; 58   :             _Ptr = _Mytree::_Min(_Ptr->_Right); // ==> smallest of right subtree

  000d4	8b c1		 mov	 eax, ecx

; 476  :         while (!_Pnode->_Left->_Isnil) {

  000d6	8b 10		 mov	 edx, DWORD PTR [eax]
  000d8	80 7a 0d 00	 cmp	 BYTE PTR [edx+13], 0
  000dc	75 0e		 jne	 SHORT $LN53@erase
  000de	66 90		 npad	 2
$LL52@erase:
  000e0	8b 0a		 mov	 ecx, DWORD PTR [edx]

; 477  :             _Pnode = _Pnode->_Left;

  000e2	8b c2		 mov	 eax, edx
  000e4	8b d1		 mov	 edx, ecx
  000e6	80 79 0d 00	 cmp	 BYTE PTR [ecx+13], 0
  000ea	74 f4		 je	 SHORT $LL52@erase
$LN53@erase:

; 101  :         return !(*this == _Right);

  000ec	3b c3		 cmp	 eax, ebx
; File C:\Program Files\Microsoft Visual Studio\2022\Professional\VC\Tools\MSVC\14.44.35207\include\xutility

; 1668 :         for (; _UFirst != _ULast; ++_UFirst) {

  000ee	75 b6		 jne	 SHORT $LL42@erase
  000f0	89 7d f4	 mov	 DWORD PTR __Off$1$[ebp], edi
$LN41@erase:
; File C:\Program Files\Microsoft Visual Studio\2022\Professional\VC\Tools\MSVC\14.44.35207\include\xtree

; 96   :         return _Ptr == _Right._Ptr;

  000f3	8b 45 fc	 mov	 eax, DWORD PTR __Head$1$[ebp]

; 1329 :         _Erase_unchecked(_First, _Last);

  000f6	89 75 08	 mov	 DWORD PTR __First$[ebp], esi

; 96   :         return _Ptr == _Right._Ptr;

  000f9	3b 30		 cmp	 esi, DWORD PTR [eax]

; 1311 :         if (_First == _Begin && _Last._Ptr->_Isnil) {

  000fb	75 31		 jne	 SHORT $LN136@erase
  000fd	80 7b 0d 00	 cmp	 BYTE PTR [ebx+13], 0
  00101	74 2b		 je	 SHORT $LN136@erase

; 1374 :         _Scary->_Erase_tree(_Getal(), _Head->_Parent);

  00103	ff 70 04	 push	 DWORD PTR [eax+4]
  00106	8b 5d f8	 mov	 ebx, DWORD PTR _this$1$[ebp]
  00109	8b cb		 mov	 ecx, ebx
  0010b	53		 push	 ebx
  0010c	e8 00 00 00 00	 call	 ??$_Erase_tree@V?$allocator@U?$_Tree_node@U?$pair@$$CBV?$basic_string@DU?$char_traits@D@std@@V?$allocator@D@2@@std@@K@std@@PAX@std@@@std@@@?$_Tree_val@U?$_Tree_simple_types@U?$pair@$$CBV?$basic_string@DU?$char_traits@D@std@@V?$allocator@D@2@@std@@K@std@@@std@@@std@@QAEXAAV?$allocator@U?$_Tree_node@U?$pair@$$CBV?$basic_string@DU?$char_traits@D@std@@V?$allocator@D@2@@std@@K@std@@PAX@std@@@1@PAU?$_Tree_node@U?$pair@$$CBV?$basic_string@DU?$char_traits@D@std@@V?$allocator@D@2@@std@@K@std@@PAX@1@@Z ; std::_Tree_val<std::_Tree_simple_types<std::pair<std::basic_string<char,std::char_traits<char>,std::allocator<char> > const ,unsigned long> > >::_Erase_tree<std::allocator<std::_Tree_node<std::pair<std::basic_string<char,std::char_traits<char>,std::allocator<char> > const ,unsigned long>,void *> > >

; 1375 :         _Head->_Parent  = _Head;

  00111	8b 45 fc	 mov	 eax, DWORD PTR __Head$1$[ebp]
  00114	89 40 04	 mov	 DWORD PTR [eax+4], eax

; 1376 :         _Head->_Left    = _Head;

  00117	89 00		 mov	 DWORD PTR [eax], eax

; 1377 :         _Head->_Right   = _Head;

  00119	89 40 08	 mov	 DWORD PTR [eax+8], eax

; 1378 :         _Scary->_Mysize = 0;

  0011c	c7 43 04 00 00
	00 00		 mov	 DWORD PTR [ebx+4], 0
$LN155@erase:

; 1358 :         return _Erase(_Eqrange(_Keyval));
; 1359 :     }

  00123	8b c7		 mov	 eax, edi
  00125	5f		 pop	 edi
  00126	5e		 pop	 esi
  00127	5b		 pop	 ebx
  00128	8b e5		 mov	 esp, ebp
  0012a	5d		 pop	 ebp
  0012b	c2 04 00	 ret	 4
$LN136@erase:

; 101  :         return !(*this == _Right);

  0012e	3b f3		 cmp	 esi, ebx

; 1318 :         while (_First != _Last) {

  00130	74 f1		 je	 SHORT $LN155@erase
  00132	8b 7d f8	 mov	 edi, DWORD PTR _this$1$[ebp]
$LL63@erase:

; 66   :         ++*this;

  00135	8d 4d 08	 lea	 ecx, DWORD PTR __First$[ebp]
  00138	e8 00 00 00 00	 call	 ??E?$_Tree_unchecked_const_iterator@V?$_Tree_val@U?$_Tree_simple_types@U?$pair@$$CBV?$basic_string@DU?$char_traits@D@std@@V?$allocator@D@2@@std@@K@std@@@std@@@std@@U_Iterator_base0@2@@std@@QAEAAV01@XZ ; std::_Tree_unchecked_const_iterator<std::_Tree_val<std::_Tree_simple_types<std::pair<std::basic_string<char,std::char_traits<char>,std::allocator<char> > const ,unsigned long> > >,std::_Iterator_base0>::operator++

; 1303 :         _Nodeptr _Erasednode = _Scary->_Extract(_Where); // node to erase

  0013d	56		 push	 esi
  0013e	8b cf		 mov	 ecx, edi
  00140	e8 00 00 00 00	 call	 ?_Extract@?$_Tree_val@U?$_Tree_simple_types@U?$pair@$$CBV?$basic_string@DU?$char_traits@D@std@@V?$allocator@D@2@@std@@K@std@@@std@@@std@@QAEPAU?$_Tree_node@U?$pair@$$CBV?$basic_string@DU?$char_traits@D@std@@V?$allocator@D@2@@std@@K@std@@PAX@2@V?$_Tree_unchecked_const_iterator@V?$_Tree_val@U?$_Tree_simple_types@U?$pair@$$CBV?$basic_string@DU?$char_traits@D@std@@V?$allocator@D@2@@std@@K@std@@@std@@@std@@U_Iterator_base0@2@@2@@Z ; std::_Tree_val<std::_Tree_simple_types<std::pair<std::basic_string<char,std::char_traits<char>,std::allocator<char> > const ,unsigned long> > >::_Extract
  00145	8b f0		 mov	 esi, eax

; 381  :         allocator_traits<_Alloc>::destroy(_Al, _STD addressof(_Ptr->_Myval));

  00147	8d 4e 10	 lea	 ecx, DWORD PTR [esi+16]
  0014a	e8 00 00 00 00	 call	 ??1?$basic_string@DU?$char_traits@D@std@@V?$allocator@D@2@@std@@QAE@XZ ; std::basic_string<char,std::char_traits<char>,std::allocator<char> >::~basic_string<char,std::char_traits<char>,std::allocator<char> >
; File C:\Program Files\Microsoft Visual Studio\2022\Professional\VC\Tools\MSVC\14.44.35207\include\xmemory

; 289  :         ::operator delete(_Ptr, _Bytes);

  0014f	6a 2c		 push	 44			; 0000002cH
  00151	56		 push	 esi
  00152	e8 00 00 00 00	 call	 ??3@YAXPAXI@Z		; operator delete
; File C:\Program Files\Microsoft Visual Studio\2022\Professional\VC\Tools\MSVC\14.44.35207\include\xtree

; 101  :         return !(*this == _Right);

  00157	8b 75 08	 mov	 esi, DWORD PTR __First$[ebp]
; File C:\Program Files\Microsoft Visual Studio\2022\Professional\VC\Tools\MSVC\14.44.35207\include\xmemory

; 289  :         ::operator delete(_Ptr, _Bytes);

  0015a	83 c4 08	 add	 esp, 8
; File C:\Program Files\Microsoft Visual Studio\2022\Professional\VC\Tools\MSVC\14.44.35207\include\xtree

; 101  :         return !(*this == _Right);

  0015d	3b f3		 cmp	 esi, ebx

; 1318 :         while (_First != _Last) {

  0015f	75 d4		 jne	 SHORT $LL63@erase

; 1358 :         return _Erase(_Eqrange(_Keyval));
; 1359 :     }

  00161	8b 45 f4	 mov	 eax, DWORD PTR __Off$1$[ebp]
  00164	5f		 pop	 edi
  00165	5e		 pop	 esi
  00166	5b		 pop	 ebx
  00167	8b e5		 mov	 esp, ebp
  00169	5d		 pop	 ebp
  0016a	c2 04 00	 ret	 4
?erase@?$_Tree@V?$_Tmap_traits@V?$basic_string@DU?$char_traits@D@std@@V?$allocator@D@2@@std@@KU?$less@V?$basic_string@DU?$char_traits@D@std@@V?$allocator@D@2@@std@@@2@V?$allocator@U?$pair@$$CBV?$basic_string@DU?$char_traits@D@std@@V?$allocator@D@2@@std@@K@std@@@2@$0A@@std@@@std@@QAEIABV?$basic_string@DU?$char_traits@D@std@@V?$allocator@D@2@@2@@Z ENDP ; std::_Tree<std::_Tmap_traits<std::basic_string<char,std::char_traits<char>,std::allocator<char> >,unsigned long,std::less<std::basic_string<char,std::char_traits<char>,std::allocator<char> > >,std::allocator<std::pair<std::basic_string<char,std::char_traits<char>,std::allocator<char> > const ,unsigned long> >,0> >::erase
_TEXT	ENDS
; Function compile flags: /Ogtp
; File C:\Program Files\Microsoft Visual Studio\2022\Professional\VC\Tools\MSVC\14.44.35207\include\xtree
;	COMDAT ??E?$_Tree_unchecked_const_iterator@V?$_Tree_val@U?$_Tree_simple_types@U?$pair@$$CBKPAVCCtrl@@@std@@@std@@@std@@U_Iterator_base0@2@@std@@QAEAAV01@XZ
_TEXT	SEGMENT
??E?$_Tree_unchecked_const_iterator@V?$_Tree_val@U?$_Tree_simple_types@U?$pair@$$CBKPAVCCtrl@@@std@@@std@@@std@@U_Iterator_base0@2@@std@@QAEAAV01@XZ PROC ; std::_Tree_unchecked_const_iterator<std::_Tree_val<std::_Tree_simple_types<std::pair<unsigned long const ,CCtrl *> > >,std::_Iterator_base0>::operator++, COMDAT
; _this$ = ecx

; 49   :     _Tree_unchecked_const_iterator& operator++() noexcept {

  00000	56		 push	 esi
  00001	8b f1		 mov	 esi, ecx
  00003	57		 push	 edi

; 50   :         if (_Ptr->_Right->_Isnil) { // climb looking for right subtree

  00004	8b 16		 mov	 edx, DWORD PTR [esi]
  00006	8b 7a 08	 mov	 edi, DWORD PTR [edx+8]
  00009	80 7f 0d 00	 cmp	 BYTE PTR [edi+13], 0
  0000d	74 22		 je	 SHORT $LN4@operator

; 51   :             _Nodeptr _Pnode;
; 52   :             while (!(_Pnode = _Ptr->_Parent)->_Isnil && _Ptr == _Pnode->_Right) {

  0000f	8b 42 04	 mov	 eax, DWORD PTR [edx+4]
  00012	80 78 0d 00	 cmp	 BYTE PTR [eax+13], 0
  00016	75 12		 jne	 SHORT $LN21@operator
$LL2@operator:
  00018	3b 50 08	 cmp	 edx, DWORD PTR [eax+8]
  0001b	75 0d		 jne	 SHORT $LN21@operator

; 53   :                 _Ptr = _Pnode; // ==> parent while right subtree

  0001d	89 06		 mov	 DWORD PTR [esi], eax
  0001f	8b d0		 mov	 edx, eax
  00021	8b 40 04	 mov	 eax, DWORD PTR [eax+4]
  00024	80 78 0d 00	 cmp	 BYTE PTR [eax+13], 0
  00028	74 ee		 je	 SHORT $LL2@operator
$LN21@operator:

; 54   :             }
; 55   : 
; 56   :             _Ptr = _Pnode; // ==> parent (head if end())
; 57   :         } else {
; 58   :             _Ptr = _Mytree::_Min(_Ptr->_Right); // ==> smallest of right subtree
; 59   :         }
; 60   : 
; 61   :         return *this;

  0002a	89 06		 mov	 DWORD PTR [esi], eax

; 62   :     }

  0002c	8b c6		 mov	 eax, esi
  0002e	5f		 pop	 edi
  0002f	5e		 pop	 esi
  00030	c3		 ret	 0
$LN4@operator:

; 476  :         while (!_Pnode->_Left->_Isnil) {

  00031	8b 0f		 mov	 ecx, DWORD PTR [edi]
  00033	80 79 0d 00	 cmp	 BYTE PTR [ecx+13], 0
  00037	75 13		 jne	 SHORT $LN10@operator
  00039	0f 1f 80 00 00
	00 00		 npad	 7
$LL9@operator:
  00040	8b 01		 mov	 eax, DWORD PTR [ecx]

; 477  :             _Pnode = _Pnode->_Left;

  00042	8b f9		 mov	 edi, ecx
  00044	8b c8		 mov	 ecx, eax
  00046	80 78 0d 00	 cmp	 BYTE PTR [eax+13], 0
  0004a	74 f4		 je	 SHORT $LL9@operator
$LN10@operator:

; 54   :             }
; 55   : 
; 56   :             _Ptr = _Pnode; // ==> parent (head if end())
; 57   :         } else {
; 58   :             _Ptr = _Mytree::_Min(_Ptr->_Right); // ==> smallest of right subtree
; 59   :         }
; 60   : 
; 61   :         return *this;

  0004c	89 3e		 mov	 DWORD PTR [esi], edi

; 62   :     }

  0004e	8b c6		 mov	 eax, esi
  00050	5f		 pop	 edi
  00051	5e		 pop	 esi
  00052	c3		 ret	 0
??E?$_Tree_unchecked_const_iterator@V?$_Tree_val@U?$_Tree_simple_types@U?$pair@$$CBKPAVCCtrl@@@std@@@std@@@std@@U_Iterator_base0@2@@std@@QAEAAV01@XZ ENDP ; std::_Tree_unchecked_const_iterator<std::_Tree_val<std::_Tree_simple_types<std::pair<unsigned long const ,CCtrl *> > >,std::_Iterator_base0>::operator++
_TEXT	ENDS
; Function compile flags: /Ogtp
; File C:\Program Files\Microsoft Visual Studio\2022\Professional\VC\Tools\MSVC\14.44.35207\include\xtree
;	COMDAT ?_Insert_node@?$_Tree_val@U?$_Tree_simple_types@U?$pair@$$CBKPAVCCtrl@@@std@@@std@@@std@@QAEPAU?$_Tree_node@U?$pair@$$CBKPAVCCtrl@@@std@@PAX@2@U?$_Tree_id@PAU?$_Tree_node@U?$pair@$$CBKPAVCCtrl@@@std@@PAX@std@@@2@QAU32@@Z
_TEXT	SEGMENT
__Head$1$ = -4						; size = 4
__Loc$ = 8						; size = 8
__Newnode$ = 16						; size = 4
?_Insert_node@?$_Tree_val@U?$_Tree_simple_types@U?$pair@$$CBKPAVCCtrl@@@std@@@std@@@std@@QAEPAU?$_Tree_node@U?$pair@$$CBKPAVCCtrl@@@std@@PAX@2@U?$_Tree_id@PAU?$_Tree_node@U?$pair@$$CBKPAVCCtrl@@@std@@PAX@std@@@2@QAU32@@Z PROC ; std::_Tree_val<std::_Tree_simple_types<std::pair<unsigned long const ,CCtrl *> > >::_Insert_node, COMDAT
; _this$ = ecx

; 669  :     _Nodeptr _Insert_node(const _Tree_id<_Nodeptr> _Loc, const _Nodeptr _Newnode) noexcept {

  00000	55		 push	 ebp
  00001	8b ec		 mov	 ebp, esp
  00003	51		 push	 ecx

; 670  :         ++_Mysize;
; 671  :         const auto _Head  = _Myhead;
; 672  :         _Newnode->_Parent = _Loc._Parent;

  00004	8b 55 08	 mov	 edx, DWORD PTR __Loc$[ebp]
  00007	53		 push	 ebx
  00008	8b d9		 mov	 ebx, ecx
  0000a	57		 push	 edi
  0000b	8b 7d 10	 mov	 edi, DWORD PTR __Newnode$[ebp]
  0000e	8b 03		 mov	 eax, DWORD PTR [ebx]
  00010	ff 43 04	 inc	 DWORD PTR [ebx+4]
  00013	89 45 fc	 mov	 DWORD PTR __Head$1$[ebp], eax
  00016	89 57 04	 mov	 DWORD PTR [edi+4], edx

; 673  :         if (_Loc._Parent == _Head) { // first node in tree, just set head values

  00019	3b d0		 cmp	 edx, eax
  0001b	75 16		 jne	 SHORT $LN5@Insert_nod

; 674  :             _Head->_Left     = _Newnode;

  0001d	89 38		 mov	 DWORD PTR [eax], edi

; 675  :             _Head->_Parent   = _Newnode;

  0001f	89 78 04	 mov	 DWORD PTR [eax+4], edi

; 676  :             _Head->_Right    = _Newnode;

  00022	89 78 08	 mov	 DWORD PTR [eax+8], edi

; 735  :         return _Newnode;
; 736  :     }

  00025	8b c7		 mov	 eax, edi
  00027	c6 47 0c 01	 mov	 BYTE PTR [edi+12], 1
  0002b	5f		 pop	 edi
  0002c	5b		 pop	 ebx
  0002d	8b e5		 mov	 esp, ebp
  0002f	5d		 pop	 ebp
  00030	c2 0c 00	 ret	 12			; 0000000cH
$LN5@Insert_nod:

; 677  :             _Newnode->_Color = _Black; // the root is black
; 678  :             return _Newnode;
; 679  :         }
; 680  : 
; 681  :         _STL_INTERNAL_CHECK(_Loc._Child != _Tree_child::_Unused);
; 682  :         if (_Loc._Child == _Tree_child::_Right) { // add to right of _Loc._Parent

  00033	83 7d 0c 00	 cmp	 DWORD PTR __Loc$[ebp+4], 0
  00037	75 0d		 jne	 SHORT $LN6@Insert_nod

; 683  :             _STL_INTERNAL_CHECK(_Loc._Parent->_Right->_Isnil);
; 684  :             _Loc._Parent->_Right = _Newnode;

  00039	89 7a 08	 mov	 DWORD PTR [edx+8], edi

; 685  :             if (_Loc._Parent == _Head->_Right) { // remember rightmost node

  0003c	3b 50 08	 cmp	 edx, DWORD PTR [eax+8]
  0003f	75 0d		 jne	 SHORT $LN9@Insert_nod

; 686  :                 _Head->_Right = _Newnode;

  00041	89 78 08	 mov	 DWORD PTR [eax+8], edi

; 687  :             }
; 688  :         } else { // add to left of _Loc._Parent

  00044	eb 08		 jmp	 SHORT $LN9@Insert_nod
$LN6@Insert_nod:

; 689  :             _STL_INTERNAL_CHECK(_Loc._Parent->_Left->_Isnil);
; 690  :             _Loc._Parent->_Left = _Newnode;

  00046	89 3a		 mov	 DWORD PTR [edx], edi

; 691  :             if (_Loc._Parent == _Head->_Left) { // remember leftmost node

  00048	3b 10		 cmp	 edx, DWORD PTR [eax]
  0004a	75 02		 jne	 SHORT $LN9@Insert_nod

; 692  :                 _Head->_Left = _Newnode;

  0004c	89 38		 mov	 DWORD PTR [eax], edi
$LN9@Insert_nod:

; 693  :             }
; 694  :         }
; 695  : 
; 696  :         for (_Nodeptr _Pnode = _Newnode; _Pnode->_Parent->_Color == _Red;) {

  0004e	8b 4f 04	 mov	 ecx, DWORD PTR [edi+4]
  00051	8b c7		 mov	 eax, edi
  00053	80 79 0c 00	 cmp	 BYTE PTR [ecx+12], 0
  00057	0f 85 7d 01 00
	00		 jne	 $LN3@Insert_nod
  0005d	56		 push	 esi
  0005e	66 90		 npad	 2
$LL4@Insert_nod:

; 697  :             if (_Pnode->_Parent == _Pnode->_Parent->_Parent->_Left) { // fixup red-red in left subtree

  00060	8b 50 04	 mov	 edx, DWORD PTR [eax+4]
  00063	8b 72 04	 mov	 esi, DWORD PTR [edx+4]
  00066	8b 0e		 mov	 ecx, DWORD PTR [esi]
  00068	3b d1		 cmp	 edx, ecx
  0006a	0f 85 aa 00 00
	00		 jne	 $LN10@Insert_nod

; 698  :                 const auto _Parent_sibling = _Pnode->_Parent->_Parent->_Right;

  00070	8b 4e 08	 mov	 ecx, DWORD PTR [esi+8]

; 699  :                 if (_Parent_sibling->_Color == _Red) { // parent's sibling has two red children, blacken both

  00073	80 79 0c 00	 cmp	 BYTE PTR [ecx+12], 0
  00077	0f 84 a3 00 00
	00		 je	 $LN82@Insert_nod

; 700  :                     _Pnode->_Parent->_Color          = _Black;
; 701  :                     _Parent_sibling->_Color          = _Black;
; 702  :                     _Pnode->_Parent->_Parent->_Color = _Red;
; 703  :                     _Pnode                           = _Pnode->_Parent->_Parent;
; 704  :                 } else { // parent's sibling has red and black children
; 705  :                     if (_Pnode == _Pnode->_Parent->_Right) { // rotate right child to left

  0007d	8b 72 08	 mov	 esi, DWORD PTR [edx+8]
  00080	3b c6		 cmp	 eax, esi
  00082	75 37		 jne	 SHORT $LN57@Insert_nod

; 485  :         _Wherenode->_Right = _Pnode->_Left;

  00084	8b 0e		 mov	 ecx, DWORD PTR [esi]

; 706  :                         _Pnode = _Pnode->_Parent;

  00086	8b c2		 mov	 eax, edx

; 485  :         _Wherenode->_Right = _Pnode->_Left;

  00088	89 4a 08	 mov	 DWORD PTR [edx+8], ecx

; 486  : 
; 487  :         if (!_Pnode->_Left->_Isnil) {

  0008b	8b 0e		 mov	 ecx, DWORD PTR [esi]
  0008d	80 79 0d 00	 cmp	 BYTE PTR [ecx+13], 0
  00091	75 03		 jne	 SHORT $LN21@Insert_nod

; 488  :             _Pnode->_Left->_Parent = _Wherenode;

  00093	89 41 04	 mov	 DWORD PTR [ecx+4], eax
$LN21@Insert_nod:

; 489  :         }
; 490  : 
; 491  :         _Pnode->_Parent = _Wherenode->_Parent;

  00096	8b 4a 04	 mov	 ecx, DWORD PTR [edx+4]
  00099	89 4e 04	 mov	 DWORD PTR [esi+4], ecx

; 492  : 
; 493  :         if (_Wherenode == _Myhead->_Parent) {

  0009c	8b 0b		 mov	 ecx, DWORD PTR [ebx]
  0009e	3b 41 04	 cmp	 eax, DWORD PTR [ecx+4]
  000a1	75 05		 jne	 SHORT $LN22@Insert_nod

; 494  :             _Myhead->_Parent = _Pnode;

  000a3	89 71 04	 mov	 DWORD PTR [ecx+4], esi
  000a6	eb 0e		 jmp	 SHORT $LN25@Insert_nod
$LN22@Insert_nod:

; 495  :         } else if (_Wherenode == _Wherenode->_Parent->_Left) {

  000a8	8b 4a 04	 mov	 ecx, DWORD PTR [edx+4]
  000ab	3b 01		 cmp	 eax, DWORD PTR [ecx]
  000ad	75 04		 jne	 SHORT $LN24@Insert_nod

; 496  :             _Wherenode->_Parent->_Left = _Pnode;

  000af	89 31		 mov	 DWORD PTR [ecx], esi

; 497  :         } else {

  000b1	eb 03		 jmp	 SHORT $LN25@Insert_nod
$LN24@Insert_nod:

; 498  :             _Wherenode->_Parent->_Right = _Pnode;

  000b3	89 71 08	 mov	 DWORD PTR [ecx+8], esi
$LN25@Insert_nod:

; 499  :         }
; 500  : 
; 501  :         _Pnode->_Left       = _Wherenode;

  000b6	89 06		 mov	 DWORD PTR [esi], eax

; 502  :         _Wherenode->_Parent = _Pnode;

  000b8	89 70 04	 mov	 DWORD PTR [eax+4], esi
$LN57@Insert_nod:

; 707  :                         _Lrotate(_Pnode);
; 708  :                     }
; 709  : 
; 710  :                     _Pnode->_Parent->_Color          = _Black; // propagate red up

  000bb	8b 48 04	 mov	 ecx, DWORD PTR [eax+4]
  000be	c6 41 0c 01	 mov	 BYTE PTR [ecx+12], 1

; 711  :                     _Pnode->_Parent->_Parent->_Color = _Red;

  000c2	8b 48 04	 mov	 ecx, DWORD PTR [eax+4]
  000c5	8b 49 04	 mov	 ecx, DWORD PTR [ecx+4]
  000c8	c6 41 0c 00	 mov	 BYTE PTR [ecx+12], 0

; 712  :                     _Rrotate(_Pnode->_Parent->_Parent);

  000cc	8b 48 04	 mov	 ecx, DWORD PTR [eax+4]
  000cf	8b 51 04	 mov	 edx, DWORD PTR [ecx+4]

; 506  :         _Nodeptr _Pnode   = _Wherenode->_Left;

  000d2	8b 32		 mov	 esi, DWORD PTR [edx]

; 507  :         _Wherenode->_Left = _Pnode->_Right;

  000d4	8b 4e 08	 mov	 ecx, DWORD PTR [esi+8]
  000d7	89 0a		 mov	 DWORD PTR [edx], ecx

; 508  : 
; 509  :         if (!_Pnode->_Right->_Isnil) {

  000d9	8b 4e 08	 mov	 ecx, DWORD PTR [esi+8]
  000dc	80 79 0d 00	 cmp	 BYTE PTR [ecx+13], 0
  000e0	75 03		 jne	 SHORT $LN29@Insert_nod

; 510  :             _Pnode->_Right->_Parent = _Wherenode;

  000e2	89 51 04	 mov	 DWORD PTR [ecx+4], edx
$LN29@Insert_nod:

; 511  :         }
; 512  : 
; 513  :         _Pnode->_Parent = _Wherenode->_Parent;

  000e5	8b 4a 04	 mov	 ecx, DWORD PTR [edx+4]
  000e8	89 4e 04	 mov	 DWORD PTR [esi+4], ecx

; 514  : 
; 515  :         if (_Wherenode == _Myhead->_Parent) {

  000eb	8b 0b		 mov	 ecx, DWORD PTR [ebx]
  000ed	3b 51 04	 cmp	 edx, DWORD PTR [ecx+4]
  000f0	75 0b		 jne	 SHORT $LN30@Insert_nod

; 516  :             _Myhead->_Parent = _Pnode;

  000f2	89 71 04	 mov	 DWORD PTR [ecx+4], esi

; 521  :         }
; 522  : 
; 523  :         _Pnode->_Right      = _Wherenode;

  000f5	89 56 08	 mov	 DWORD PTR [esi+8], edx

; 713  :                 }
; 714  :             } else { // fixup red-red in right subtree

  000f8	e9 cc 00 00 00	 jmp	 $LN81@Insert_nod
$LN30@Insert_nod:

; 517  :         } else if (_Wherenode == _Wherenode->_Parent->_Right) {

  000fd	8b 4a 04	 mov	 ecx, DWORD PTR [edx+4]
  00100	3b 51 08	 cmp	 edx, DWORD PTR [ecx+8]
  00103	75 0b		 jne	 SHORT $LN32@Insert_nod

; 518  :             _Wherenode->_Parent->_Right = _Pnode;

  00105	89 71 08	 mov	 DWORD PTR [ecx+8], esi

; 521  :         }
; 522  : 
; 523  :         _Pnode->_Right      = _Wherenode;

  00108	89 56 08	 mov	 DWORD PTR [esi+8], edx

; 713  :                 }
; 714  :             } else { // fixup red-red in right subtree

  0010b	e9 b9 00 00 00	 jmp	 $LN81@Insert_nod
$LN32@Insert_nod:

; 520  :             _Wherenode->_Parent->_Left = _Pnode;

  00110	89 31		 mov	 DWORD PTR [ecx], esi

; 521  :         }
; 522  : 
; 523  :         _Pnode->_Right      = _Wherenode;

  00112	89 56 08	 mov	 DWORD PTR [esi+8], edx

; 713  :                 }
; 714  :             } else { // fixup red-red in right subtree

  00115	e9 af 00 00 00	 jmp	 $LN81@Insert_nod
$LN10@Insert_nod:

; 715  :                 const auto _Parent_sibling = _Pnode->_Parent->_Parent->_Left;
; 716  :                 if (_Parent_sibling->_Color == _Red) { // parent's sibling has two red children, blacken both

  0011a	80 79 0c 00	 cmp	 BYTE PTR [ecx+12], 0
  0011e	75 1d		 jne	 SHORT $LN15@Insert_nod
$LN82@Insert_nod:

; 693  :             }
; 694  :         }
; 695  : 
; 696  :         for (_Nodeptr _Pnode = _Newnode; _Pnode->_Parent->_Color == _Red;) {

  00120	c6 42 0c 01	 mov	 BYTE PTR [edx+12], 1
  00124	c6 41 0c 01	 mov	 BYTE PTR [ecx+12], 1
  00128	8b 48 04	 mov	 ecx, DWORD PTR [eax+4]
  0012b	8b 49 04	 mov	 ecx, DWORD PTR [ecx+4]
  0012e	c6 41 0c 00	 mov	 BYTE PTR [ecx+12], 0
  00132	8b 48 04	 mov	 ecx, DWORD PTR [eax+4]
  00135	8b 41 04	 mov	 eax, DWORD PTR [ecx+4]
  00138	e9 8f 00 00 00	 jmp	 $LN2@Insert_nod
$LN15@Insert_nod:

; 717  :                     _Pnode->_Parent->_Color          = _Black;
; 718  :                     _Parent_sibling->_Color          = _Black;
; 719  :                     _Pnode->_Parent->_Parent->_Color = _Red;
; 720  :                     _Pnode                           = _Pnode->_Parent->_Parent;
; 721  :                 } else { // parent's sibling has red and black children
; 722  :                     if (_Pnode == _Pnode->_Parent->_Left) { // rotate left child to right

  0013d	8b 32		 mov	 esi, DWORD PTR [edx]
  0013f	3b c6		 cmp	 eax, esi
  00141	75 3a		 jne	 SHORT $LN42@Insert_nod

; 507  :         _Wherenode->_Left = _Pnode->_Right;

  00143	8b 4e 08	 mov	 ecx, DWORD PTR [esi+8]

; 723  :                         _Pnode = _Pnode->_Parent;

  00146	8b c2		 mov	 eax, edx

; 507  :         _Wherenode->_Left = _Pnode->_Right;

  00148	89 08		 mov	 DWORD PTR [eax], ecx

; 508  : 
; 509  :         if (!_Pnode->_Right->_Isnil) {

  0014a	8b 4e 08	 mov	 ecx, DWORD PTR [esi+8]
  0014d	80 79 0d 00	 cmp	 BYTE PTR [ecx+13], 0
  00151	75 03		 jne	 SHORT $LN37@Insert_nod

; 510  :             _Pnode->_Right->_Parent = _Wherenode;

  00153	89 41 04	 mov	 DWORD PTR [ecx+4], eax
$LN37@Insert_nod:

; 511  :         }
; 512  : 
; 513  :         _Pnode->_Parent = _Wherenode->_Parent;

  00156	8b 4a 04	 mov	 ecx, DWORD PTR [edx+4]
  00159	89 4e 04	 mov	 DWORD PTR [esi+4], ecx

; 514  : 
; 515  :         if (_Wherenode == _Myhead->_Parent) {

  0015c	8b 0b		 mov	 ecx, DWORD PTR [ebx]
  0015e	3b 41 04	 cmp	 eax, DWORD PTR [ecx+4]
  00161	75 05		 jne	 SHORT $LN38@Insert_nod

; 516  :             _Myhead->_Parent = _Pnode;

  00163	89 71 04	 mov	 DWORD PTR [ecx+4], esi
  00166	eb 0f		 jmp	 SHORT $LN41@Insert_nod
$LN38@Insert_nod:

; 517  :         } else if (_Wherenode == _Wherenode->_Parent->_Right) {

  00168	8b 4a 04	 mov	 ecx, DWORD PTR [edx+4]
  0016b	3b 41 08	 cmp	 eax, DWORD PTR [ecx+8]
  0016e	75 05		 jne	 SHORT $LN40@Insert_nod

; 518  :             _Wherenode->_Parent->_Right = _Pnode;

  00170	89 71 08	 mov	 DWORD PTR [ecx+8], esi

; 519  :         } else {

  00173	eb 02		 jmp	 SHORT $LN41@Insert_nod
$LN40@Insert_nod:

; 520  :             _Wherenode->_Parent->_Left = _Pnode;

  00175	89 31		 mov	 DWORD PTR [ecx], esi
$LN41@Insert_nod:

; 521  :         }
; 522  : 
; 523  :         _Pnode->_Right      = _Wherenode;

  00177	89 46 08	 mov	 DWORD PTR [esi+8], eax

; 524  :         _Wherenode->_Parent = _Pnode;

  0017a	89 70 04	 mov	 DWORD PTR [eax+4], esi
$LN42@Insert_nod:

; 724  :                         _Rrotate(_Pnode);
; 725  :                     }
; 726  : 
; 727  :                     _Pnode->_Parent->_Color          = _Black; // propagate red up

  0017d	8b 48 04	 mov	 ecx, DWORD PTR [eax+4]
  00180	c6 41 0c 01	 mov	 BYTE PTR [ecx+12], 1

; 728  :                     _Pnode->_Parent->_Parent->_Color = _Red;

  00184	8b 48 04	 mov	 ecx, DWORD PTR [eax+4]
  00187	8b 49 04	 mov	 ecx, DWORD PTR [ecx+4]
  0018a	c6 41 0c 00	 mov	 BYTE PTR [ecx+12], 0

; 729  :                     _Lrotate(_Pnode->_Parent->_Parent);

  0018e	8b 48 04	 mov	 ecx, DWORD PTR [eax+4]
  00191	8b 51 04	 mov	 edx, DWORD PTR [ecx+4]

; 484  :         _Nodeptr _Pnode    = _Wherenode->_Right;

  00194	8b 72 08	 mov	 esi, DWORD PTR [edx+8]

; 485  :         _Wherenode->_Right = _Pnode->_Left;

  00197	8b 0e		 mov	 ecx, DWORD PTR [esi]
  00199	89 4a 08	 mov	 DWORD PTR [edx+8], ecx

; 486  : 
; 487  :         if (!_Pnode->_Left->_Isnil) {

  0019c	8b 0e		 mov	 ecx, DWORD PTR [esi]
  0019e	80 79 0d 00	 cmp	 BYTE PTR [ecx+13], 0
  001a2	75 03		 jne	 SHORT $LN45@Insert_nod

; 488  :             _Pnode->_Left->_Parent = _Wherenode;

  001a4	89 51 04	 mov	 DWORD PTR [ecx+4], edx
$LN45@Insert_nod:

; 489  :         }
; 490  : 
; 491  :         _Pnode->_Parent = _Wherenode->_Parent;

  001a7	8b 4a 04	 mov	 ecx, DWORD PTR [edx+4]
  001aa	89 4e 04	 mov	 DWORD PTR [esi+4], ecx

; 492  : 
; 493  :         if (_Wherenode == _Myhead->_Parent) {

  001ad	8b 0b		 mov	 ecx, DWORD PTR [ebx]
  001af	3b 51 04	 cmp	 edx, DWORD PTR [ecx+4]
  001b2	75 05		 jne	 SHORT $LN46@Insert_nod

; 494  :             _Myhead->_Parent = _Pnode;

  001b4	89 71 04	 mov	 DWORD PTR [ecx+4], esi
  001b7	eb 0e		 jmp	 SHORT $LN49@Insert_nod
$LN46@Insert_nod:

; 495  :         } else if (_Wherenode == _Wherenode->_Parent->_Left) {

  001b9	8b 4a 04	 mov	 ecx, DWORD PTR [edx+4]
  001bc	3b 11		 cmp	 edx, DWORD PTR [ecx]
  001be	75 04		 jne	 SHORT $LN48@Insert_nod

; 496  :             _Wherenode->_Parent->_Left = _Pnode;

  001c0	89 31		 mov	 DWORD PTR [ecx], esi

; 497  :         } else {

  001c2	eb 03		 jmp	 SHORT $LN49@Insert_nod
$LN48@Insert_nod:

; 498  :             _Wherenode->_Parent->_Right = _Pnode;

  001c4	89 71 08	 mov	 DWORD PTR [ecx+8], esi
$LN49@Insert_nod:

; 499  :         }
; 500  : 
; 501  :         _Pnode->_Left       = _Wherenode;

  001c7	89 16		 mov	 DWORD PTR [esi], edx
$LN81@Insert_nod:

; 693  :             }
; 694  :         }
; 695  : 
; 696  :         for (_Nodeptr _Pnode = _Newnode; _Pnode->_Parent->_Color == _Red;) {

  001c9	89 72 04	 mov	 DWORD PTR [edx+4], esi
$LN2@Insert_nod:
  001cc	8b 48 04	 mov	 ecx, DWORD PTR [eax+4]
  001cf	80 79 0c 00	 cmp	 BYTE PTR [ecx+12], 0
  001d3	0f 84 87 fe ff
	ff		 je	 $LL4@Insert_nod
  001d9	5e		 pop	 esi
$LN3@Insert_nod:

; 730  :                 }
; 731  :             }
; 732  :         }
; 733  : 
; 734  :         _Head->_Parent->_Color = _Black; // root is always black

  001da	8b 45 fc	 mov	 eax, DWORD PTR __Head$1$[ebp]
  001dd	8b 40 04	 mov	 eax, DWORD PTR [eax+4]
  001e0	c6 40 0c 01	 mov	 BYTE PTR [eax+12], 1

; 735  :         return _Newnode;
; 736  :     }

  001e4	8b c7		 mov	 eax, edi
  001e6	5f		 pop	 edi
  001e7	5b		 pop	 ebx
  001e8	8b e5		 mov	 esp, ebp
  001ea	5d		 pop	 ebp
  001eb	c2 0c 00	 ret	 12			; 0000000cH
?_Insert_node@?$_Tree_val@U?$_Tree_simple_types@U?$pair@$$CBKPAVCCtrl@@@std@@@std@@@std@@QAEPAU?$_Tree_node@U?$pair@$$CBKPAVCCtrl@@@std@@PAX@2@U?$_Tree_id@PAU?$_Tree_node@U?$pair@$$CBKPAVCCtrl@@@std@@PAX@std@@@2@QAU32@@Z ENDP ; std::_Tree_val<std::_Tree_simple_types<std::pair<unsigned long const ,CCtrl *> > >::_Insert_node
_TEXT	ENDS
; Function compile flags: /Ogtp
; File C:\Program Files\Microsoft Visual Studio\2022\Professional\VC\Tools\MSVC\14.44.35207\include\xtree
; File C:\Program Files\Microsoft Visual Studio\2022\Professional\VC\Tools\MSVC\14.44.35207\include\utility
; File C:\Program Files\Microsoft Visual Studio\2022\Professional\VC\Tools\MSVC\14.44.35207\include\xtree
;	COMDAT ?_Extract@?$_Tree_val@U?$_Tree_simple_types@U?$pair@$$CBKPAVCCtrl@@@std@@@std@@@std@@QAEPAU?$_Tree_node@U?$pair@$$CBKPAVCCtrl@@@std@@PAX@2@V?$_Tree_unchecked_const_iterator@V?$_Tree_val@U?$_Tree_simple_types@U?$pair@$$CBKPAVCCtrl@@@std@@@std@@@std@@U_Iterator_base0@2@@2@@Z
_TEXT	SEGMENT
tv1039 = -16						; size = 4
tv1073 = -12						; size = 4
tv1093 = -12						; size = 4
$T1 = -12						; size = 4
__Erasednode$1$ = -8					; size = 4
_this$1$ = -4						; size = 4
__Where$ = 8						; size = 4
?_Extract@?$_Tree_val@U?$_Tree_simple_types@U?$pair@$$CBKPAVCCtrl@@@std@@@std@@@std@@QAEPAU?$_Tree_node@U?$pair@$$CBKPAVCCtrl@@@std@@PAX@2@V?$_Tree_unchecked_const_iterator@V?$_Tree_val@U?$_Tree_simple_types@U?$pair@$$CBKPAVCCtrl@@@std@@@std@@@std@@U_Iterator_base0@2@@2@@Z PROC ; std::_Tree_val<std::_Tree_simple_types<std::pair<unsigned long const ,CCtrl *> > >::_Extract, COMDAT
; _this$ = ecx

; 527  :     _Nodeptr _Extract(_Unchecked_const_iterator _Where) noexcept {

  00000	55		 push	 ebp
  00001	8b ec		 mov	 ebp, esp
  00003	83 ec 10	 sub	 esp, 16			; 00000010H

; 528  :         _Nodeptr _Erasednode = _Where._Ptr; // node to erase

  00006	8b 45 08	 mov	 eax, DWORD PTR __Where$[ebp]
  00009	53		 push	 ebx
  0000a	56		 push	 esi
  0000b	8b d9		 mov	 ebx, ecx
  0000d	89 45 f8	 mov	 DWORD PTR __Erasednode$1$[ebp], eax
  00010	57		 push	 edi

; 529  :         ++_Where; // save successor iterator for return

  00011	8d 4d 08	 lea	 ecx, DWORD PTR __Where$[ebp]
  00014	89 5d fc	 mov	 DWORD PTR _this$1$[ebp], ebx
  00017	e8 00 00 00 00	 call	 ??E?$_Tree_unchecked_const_iterator@V?$_Tree_val@U?$_Tree_simple_types@U?$pair@$$CBKPAVCCtrl@@@std@@@std@@@std@@U_Iterator_base0@2@@std@@QAEAAV01@XZ ; std::_Tree_unchecked_const_iterator<std::_Tree_val<std::_Tree_simple_types<std::pair<unsigned long const ,CCtrl *> > >,std::_Iterator_base0>::operator++

; 530  : 
; 531  :         _Nodeptr _Fixnode; // the node to recolor as needed
; 532  :         _Nodeptr _Fixnodeparent; // parent of _Fixnode (which may be nil)
; 533  :         _Nodeptr _Pnode = _Erasednode;
; 534  : 
; 535  :         if (_Pnode->_Left->_Isnil) {

  0001c	8b 4d f8	 mov	 ecx, DWORD PTR __Erasednode$1$[ebp]
  0001f	8b 01		 mov	 eax, DWORD PTR [ecx]
  00021	8b 79 08	 mov	 edi, DWORD PTR [ecx+8]
  00024	80 78 0d 00	 cmp	 BYTE PTR [eax+13], 0
  00028	75 18		 jne	 SHORT $LN94@Extract

; 536  :             _Fixnode = _Pnode->_Right; // stitch up right subtree
; 537  :         } else if (_Pnode->_Right->_Isnil) {

  0002a	80 7f 0d 00	 cmp	 BYTE PTR [edi+13], 0
  0002e	74 04		 je	 SHORT $LN7@Extract

; 538  :             _Fixnode = _Pnode->_Left; // stitch up left subtree

  00030	8b f8		 mov	 edi, eax

; 539  :         } else { // two subtrees, must lift successor node to replace erased

  00032	eb 0e		 jmp	 SHORT $LN94@Extract
$LN7@Extract:

; 540  :             _Pnode   = _Where._Ptr; // _Pnode is successor node

  00034	8b 55 08	 mov	 edx, DWORD PTR __Where$[ebp]

; 541  :             _Fixnode = _Pnode->_Right; // _Fixnode is only subtree

  00037	8b 7a 08	 mov	 edi, DWORD PTR [edx+8]
  0003a	3b d1		 cmp	 edx, ecx

; 542  :         }
; 543  : 
; 544  :         if (_Pnode == _Erasednode) { // at most one subtree, relink it

  0003c	0f 85 91 00 00
	00		 jne	 $LN9@Extract
$LN94@Extract:

; 545  :             _Fixnodeparent = _Erasednode->_Parent;
; 546  :             if (!_Fixnode->_Isnil) {

  00042	80 7f 0d 00	 cmp	 BYTE PTR [edi+13], 0
  00046	8b 71 04	 mov	 esi, DWORD PTR [ecx+4]
  00049	75 03		 jne	 SHORT $LN11@Extract

; 547  :                 _Fixnode->_Parent = _Fixnodeparent; // link up

  0004b	89 77 04	 mov	 DWORD PTR [edi+4], esi
$LN11@Extract:

; 548  :             }
; 549  : 
; 550  :             if (_Myhead->_Parent == _Erasednode) {

  0004e	8b 03		 mov	 eax, DWORD PTR [ebx]
  00050	39 48 04	 cmp	 DWORD PTR [eax+4], ecx
  00053	75 05		 jne	 SHORT $LN12@Extract

; 551  :                 _Myhead->_Parent = _Fixnode; // link down from root

  00055	89 78 04	 mov	 DWORD PTR [eax+4], edi
  00058	eb 0b		 jmp	 SHORT $LN15@Extract
$LN12@Extract:

; 552  :             } else if (_Fixnodeparent->_Left == _Erasednode) {

  0005a	39 0e		 cmp	 DWORD PTR [esi], ecx
  0005c	75 04		 jne	 SHORT $LN14@Extract

; 553  :                 _Fixnodeparent->_Left = _Fixnode; // link down to left

  0005e	89 3e		 mov	 DWORD PTR [esi], edi

; 554  :             } else {

  00060	eb 03		 jmp	 SHORT $LN15@Extract
$LN14@Extract:

; 555  :                 _Fixnodeparent->_Right = _Fixnode; // link down to right

  00062	89 7e 08	 mov	 DWORD PTR [esi+8], edi
$LN15@Extract:

; 556  :             }
; 557  : 
; 558  :             if (_Myhead->_Left == _Erasednode) {

  00065	8b 03		 mov	 eax, DWORD PTR [ebx]
  00067	39 08		 cmp	 DWORD PTR [eax], ecx
  00069	75 28		 jne	 SHORT $LN16@Extract

; 559  :                 _Myhead->_Left = _Fixnode->_Isnil ? _Fixnodeparent // smallest is parent of erased node

  0006b	80 7f 0d 00	 cmp	 BYTE PTR [edi+13], 0
  0006f	74 04		 je	 SHORT $LN42@Extract
  00071	8b d6		 mov	 edx, esi
  00073	eb 1c		 jmp	 SHORT $LN43@Extract
$LN42@Extract:

; 476  :         while (!_Pnode->_Left->_Isnil) {

  00075	8b 0f		 mov	 ecx, DWORD PTR [edi]

; 559  :                 _Myhead->_Left = _Fixnode->_Isnil ? _Fixnodeparent // smallest is parent of erased node

  00077	8b d7		 mov	 edx, edi

; 476  :         while (!_Pnode->_Left->_Isnil) {

  00079	80 79 0d 00	 cmp	 BYTE PTR [ecx+13], 0
  0007d	75 0f		 jne	 SHORT $LN49@Extract
  0007f	90		 npad	 1
$LL48@Extract:
  00080	8b 01		 mov	 eax, DWORD PTR [ecx]

; 477  :             _Pnode = _Pnode->_Left;

  00082	8b d1		 mov	 edx, ecx
  00084	8b c8		 mov	 ecx, eax
  00086	80 78 0d 00	 cmp	 BYTE PTR [eax+13], 0
  0008a	74 f4		 je	 SHORT $LL48@Extract
  0008c	8b 03		 mov	 eax, DWORD PTR [ebx]
$LN49@Extract:
  0008e	8b 4d f8	 mov	 ecx, DWORD PTR __Erasednode$1$[ebp]
$LN43@Extract:

; 559  :                 _Myhead->_Left = _Fixnode->_Isnil ? _Fixnodeparent // smallest is parent of erased node

  00091	89 10		 mov	 DWORD PTR [eax], edx
$LN16@Extract:

; 560  :                                                   : _Min(_Fixnode); // smallest in relinked subtree
; 561  :             }
; 562  : 
; 563  :             if (_Myhead->_Right == _Erasednode) {

  00093	8b 13		 mov	 edx, DWORD PTR [ebx]
  00095	39 4a 08	 cmp	 DWORD PTR [edx+8], ecx
  00098	75 34		 jne	 SHORT $LN17@Extract

; 564  :                 _Myhead->_Right = _Fixnode->_Isnil ? _Fixnodeparent // largest is parent of erased node

  0009a	80 7f 0d 00	 cmp	 BYTE PTR [edi+13], 0
  0009e	74 0d		 je	 SHORT $LN44@Extract

; 565  :                                                    : _Max(_Fixnode); // largest in relinked subtree
; 566  :             }
; 567  :         } else { // erased has two subtrees, _Pnode is successor to erased

  000a0	8b 45 f8	 mov	 eax, DWORD PTR __Erasednode$1$[ebp]
  000a3	8b ce		 mov	 ecx, esi
  000a5	89 4a 08	 mov	 DWORD PTR [edx+8], ecx
  000a8	e9 94 00 00 00	 jmp	 $LN58@Extract
$LN44@Extract:

; 468  :         while (!_Pnode->_Right->_Isnil) {

  000ad	8b 47 08	 mov	 eax, DWORD PTR [edi+8]

; 564  :                 _Myhead->_Right = _Fixnode->_Isnil ? _Fixnodeparent // largest is parent of erased node

  000b0	8b cf		 mov	 ecx, edi

; 468  :         while (!_Pnode->_Right->_Isnil) {

  000b2	80 78 0d 00	 cmp	 BYTE PTR [eax+13], 0
  000b6	75 13		 jne	 SHORT $LN54@Extract
  000b8	0f 1f 84 00 00
	00 00 00	 npad	 8
$LL53@Extract:

; 469  :             _Pnode = _Pnode->_Right;

  000c0	8b c8		 mov	 ecx, eax
  000c2	8b 41 08	 mov	 eax, DWORD PTR [ecx+8]
  000c5	80 78 0d 00	 cmp	 BYTE PTR [eax+13], 0
  000c9	74 f5		 je	 SHORT $LL53@Extract
$LN54@Extract:

; 564  :                 _Myhead->_Right = _Fixnode->_Isnil ? _Fixnodeparent // largest is parent of erased node

  000cb	89 4a 08	 mov	 DWORD PTR [edx+8], ecx
$LN17@Extract:

; 565  :                                                    : _Max(_Fixnode); // largest in relinked subtree
; 566  :             }
; 567  :         } else { // erased has two subtrees, _Pnode is successor to erased

  000ce	8b 45 f8	 mov	 eax, DWORD PTR __Erasednode$1$[ebp]
  000d1	eb 6e		 jmp	 SHORT $LN58@Extract
$LN9@Extract:

; 568  :             _Erasednode->_Left->_Parent = _Pnode; // link left up

  000d3	89 50 04	 mov	 DWORD PTR [eax+4], edx

; 569  :             _Pnode->_Left               = _Erasednode->_Left; // link successor down

  000d6	8b 01		 mov	 eax, DWORD PTR [ecx]
  000d8	89 02		 mov	 DWORD PTR [edx], eax

; 570  : 
; 571  :             if (_Pnode == _Erasednode->_Right) {

  000da	8d 42 04	 lea	 eax, DWORD PTR [edx+4]
  000dd	89 45 f4	 mov	 DWORD PTR $T1[ebp], eax
  000e0	3b 51 08	 cmp	 edx, DWORD PTR [ecx+8]
  000e3	75 04		 jne	 SHORT $LN18@Extract

; 572  :                 _Fixnodeparent = _Pnode; // successor is next to erased

  000e5	8b f2		 mov	 esi, edx

; 573  :             } else { // successor further down, link in place of erased

  000e7	eb 1f		 jmp	 SHORT $LN19@Extract
$LN18@Extract:

; 574  :                 _Fixnodeparent = _Pnode->_Parent; // parent is successor's
; 575  :                 if (!_Fixnode->_Isnil) {

  000e9	80 7f 0d 00	 cmp	 BYTE PTR [edi+13], 0
  000ed	8b 30		 mov	 esi, DWORD PTR [eax]
  000ef	75 03		 jne	 SHORT $LN20@Extract

; 576  :                     _Fixnode->_Parent = _Fixnodeparent; // link fix up

  000f1	89 77 04	 mov	 DWORD PTR [edi+4], esi
$LN20@Extract:

; 577  :                 }
; 578  : 
; 579  :                 _Fixnodeparent->_Left        = _Fixnode; // link fix down

  000f4	89 3e		 mov	 DWORD PTR [esi], edi

; 580  :                 _Pnode->_Right               = _Erasednode->_Right; // link next down

  000f6	8b 41 08	 mov	 eax, DWORD PTR [ecx+8]
  000f9	89 42 08	 mov	 DWORD PTR [edx+8], eax

; 581  :                 _Erasednode->_Right->_Parent = _Pnode; // right up

  000fc	8b 41 08	 mov	 eax, DWORD PTR [ecx+8]
  000ff	89 50 04	 mov	 DWORD PTR [eax+4], edx
  00102	8d 42 04	 lea	 eax, DWORD PTR [edx+4]
  00105	89 45 f4	 mov	 DWORD PTR $T1[ebp], eax
$LN19@Extract:

; 582  :             }
; 583  : 
; 584  :             if (_Myhead->_Parent == _Erasednode) {

  00108	8b 03		 mov	 eax, DWORD PTR [ebx]
  0010a	39 48 04	 cmp	 DWORD PTR [eax+4], ecx
  0010d	75 05		 jne	 SHORT $LN21@Extract

; 585  :                 _Myhead->_Parent = _Pnode; // link down from root

  0010f	89 50 04	 mov	 DWORD PTR [eax+4], edx
  00112	eb 0e		 jmp	 SHORT $LN141@Extract
$LN21@Extract:

; 586  :             } else if (_Erasednode->_Parent->_Left == _Erasednode) {

  00114	8b 41 04	 mov	 eax, DWORD PTR [ecx+4]
  00117	39 08		 cmp	 DWORD PTR [eax], ecx
  00119	75 04		 jne	 SHORT $LN23@Extract

; 587  :                 _Erasednode->_Parent->_Left = _Pnode; // link down to left

  0011b	89 10		 mov	 DWORD PTR [eax], edx

; 588  :             } else {

  0011d	eb 03		 jmp	 SHORT $LN141@Extract
$LN23@Extract:

; 589  :                 _Erasednode->_Parent->_Right = _Pnode; // link down to right

  0011f	89 50 08	 mov	 DWORD PTR [eax+8], edx
$LN141@Extract:

; 590  :             }
; 591  : 
; 592  :             _Pnode->_Parent = _Erasednode->_Parent; // link successor up

  00122	b8 04 00 00 00	 mov	 eax, 4
  00127	8b 04 08	 mov	 eax, DWORD PTR [eax+ecx]
  0012a	8b 4d f4	 mov	 ecx, DWORD PTR $T1[ebp]
  0012d	89 01		 mov	 DWORD PTR [ecx], eax
; File C:\Program Files\Microsoft Visual Studio\2022\Professional\VC\Tools\MSVC\14.44.35207\include\utility

; 140  :     _Left    = _STD move(_Right);

  0012f	8b 45 f8	 mov	 eax, DWORD PTR __Erasednode$1$[ebp]
  00132	8a 4a 0c	 mov	 cl, BYTE PTR [edx+12]
  00135	8a 40 0c	 mov	 al, BYTE PTR [eax+12]
  00138	88 42 0c	 mov	 BYTE PTR [edx+12], al

; 141  :     _Right   = _STD move(_Tmp);

  0013b	8b 45 f8	 mov	 eax, DWORD PTR __Erasednode$1$[ebp]
  0013e	88 48 0c	 mov	 BYTE PTR [eax+12], cl
$LN58@Extract:
; File C:\Program Files\Microsoft Visual Studio\2022\Professional\VC\Tools\MSVC\14.44.35207\include\xtree

; 596  :         if (_Erasednode->_Color == _Black) { // erasing black link, must recolor/rebalance tree

  00141	80 78 0c 01	 cmp	 BYTE PTR [eax+12], 1
  00145	0f 85 ba 01 00
	00		 jne	 $LN25@Extract

; 597  :             for (; _Fixnode != _Myhead->_Parent && _Fixnode->_Color == _Black; _Fixnodeparent = _Fixnode->_Parent) {

  0014b	8b 03		 mov	 eax, DWORD PTR [ebx]
  0014d	3b 78 04	 cmp	 edi, DWORD PTR [eax+4]
  00150	0f 84 a8 01 00
	00		 je	 $LN3@Extract
  00156	80 7f 0c 01	 cmp	 BYTE PTR [edi+12], 1
  0015a	89 75 f4	 mov	 DWORD PTR tv1093[ebp], esi
  0015d	0f 85 9b 01 00
	00		 jne	 $LN3@Extract
$LL4@Extract:

; 598  :                 if (_Fixnode == _Fixnodeparent->_Left) { // fixup left subtree

  00163	8b 0e		 mov	 ecx, DWORD PTR [esi]
  00165	3b f9		 cmp	 edi, ecx
  00167	0f 85 be 00 00
	00		 jne	 $LN26@Extract

; 599  :                     _Pnode = _Fixnodeparent->_Right;

  0016d	8b 4e 08	 mov	 ecx, DWORD PTR [esi+8]

; 600  :                     if (_Pnode->_Color == _Red) { // rotate red up from right subtree

  00170	80 79 0c 00	 cmp	 BYTE PTR [ecx+12], 0
  00174	75 54		 jne	 SHORT $LN95@Extract

; 601  :                         _Pnode->_Color         = _Black;

  00176	c6 41 0c 01	 mov	 BYTE PTR [ecx+12], 1

; 484  :         _Nodeptr _Pnode    = _Wherenode->_Right;

  0017a	8b 4e 08	 mov	 ecx, DWORD PTR [esi+8]

; 602  :                         _Fixnodeparent->_Color = _Red;

  0017d	c6 46 0c 00	 mov	 BYTE PTR [esi+12], 0

; 485  :         _Wherenode->_Right = _Pnode->_Left;

  00181	8b 01		 mov	 eax, DWORD PTR [ecx]
  00183	89 46 08	 mov	 DWORD PTR [esi+8], eax

; 486  : 
; 487  :         if (!_Pnode->_Left->_Isnil) {

  00186	8b 01		 mov	 eax, DWORD PTR [ecx]
  00188	80 78 0d 00	 cmp	 BYTE PTR [eax+13], 0
  0018c	75 03		 jne	 SHORT $LN61@Extract

; 488  :             _Pnode->_Left->_Parent = _Wherenode;

  0018e	89 70 04	 mov	 DWORD PTR [eax+4], esi
$LN61@Extract:

; 489  :         }
; 490  : 
; 491  :         _Pnode->_Parent = _Wherenode->_Parent;

  00191	8b 46 04	 mov	 eax, DWORD PTR [esi+4]
  00194	8d 56 04	 lea	 edx, DWORD PTR [esi+4]
  00197	89 41 04	 mov	 DWORD PTR [ecx+4], eax

; 492  : 
; 493  :         if (_Wherenode == _Myhead->_Parent) {

  0019a	8b 03		 mov	 eax, DWORD PTR [ebx]
  0019c	3b 70 04	 cmp	 esi, DWORD PTR [eax+4]
  0019f	75 0c		 jne	 SHORT $LN62@Extract

; 494  :             _Myhead->_Parent = _Pnode;

  001a1	89 48 04	 mov	 DWORD PTR [eax+4], ecx

; 499  :         }
; 500  : 
; 501  :         _Pnode->_Left       = _Wherenode;

  001a4	89 31		 mov	 DWORD PTR [ecx], esi

; 502  :         _Wherenode->_Parent = _Pnode;

  001a6	89 0a		 mov	 DWORD PTR [edx], ecx

; 603  :                         _Lrotate(_Fixnodeparent);
; 604  :                         _Pnode = _Fixnodeparent->_Right;

  001a8	8b 4e 08	 mov	 ecx, DWORD PTR [esi+8]
  001ab	eb 20		 jmp	 SHORT $LN87@Extract
$LN62@Extract:

; 495  :         } else if (_Wherenode == _Wherenode->_Parent->_Left) {

  001ad	8b 02		 mov	 eax, DWORD PTR [edx]
  001af	3b 30		 cmp	 esi, DWORD PTR [eax]
  001b1	75 0b		 jne	 SHORT $LN64@Extract

; 496  :             _Wherenode->_Parent->_Left = _Pnode;

  001b3	89 08		 mov	 DWORD PTR [eax], ecx

; 499  :         }
; 500  : 
; 501  :         _Pnode->_Left       = _Wherenode;

  001b5	89 31		 mov	 DWORD PTR [ecx], esi

; 502  :         _Wherenode->_Parent = _Pnode;

  001b7	89 0a		 mov	 DWORD PTR [edx], ecx

; 603  :                         _Lrotate(_Fixnodeparent);
; 604  :                         _Pnode = _Fixnodeparent->_Right;

  001b9	8b 4e 08	 mov	 ecx, DWORD PTR [esi+8]
  001bc	eb 0f		 jmp	 SHORT $LN87@Extract
$LN64@Extract:

; 498  :             _Wherenode->_Parent->_Right = _Pnode;

  001be	89 48 08	 mov	 DWORD PTR [eax+8], ecx

; 499  :         }
; 500  : 
; 501  :         _Pnode->_Left       = _Wherenode;

  001c1	89 31		 mov	 DWORD PTR [ecx], esi

; 502  :         _Wherenode->_Parent = _Pnode;

  001c3	89 0a		 mov	 DWORD PTR [edx], ecx

; 603  :                         _Lrotate(_Fixnodeparent);
; 604  :                         _Pnode = _Fixnodeparent->_Right;

  001c5	8b 4e 08	 mov	 ecx, DWORD PTR [esi+8]
  001c8	eb 03		 jmp	 SHORT $LN87@Extract
$LN95@Extract:
  001ca	8d 56 04	 lea	 edx, DWORD PTR [esi+4]
$LN87@Extract:

; 605  :                     }
; 606  : 
; 607  :                     if (_Pnode->_Isnil) {

  001cd	80 79 0d 00	 cmp	 BYTE PTR [ecx+13], 0
  001d1	0f 85 d0 00 00
	00		 jne	 $LN2@Extract

; 608  :                         _Fixnode = _Fixnodeparent; // shouldn't happen
; 609  :                     } else if (_Pnode->_Left->_Color == _Black
; 610  :                                && _Pnode->_Right->_Color == _Black) { // redden right subtree with black children

  001d7	8b 01		 mov	 eax, DWORD PTR [ecx]
  001d9	80 78 0c 01	 cmp	 BYTE PTR [eax+12], 1
  001dd	75 0d		 jne	 SHORT $LN97@Extract
  001df	8b 41 08	 mov	 eax, DWORD PTR [ecx+8]
  001e2	80 78 0c 01	 cmp	 BYTE PTR [eax+12], 1
  001e6	0f 84 b4 00 00
	00		 je	 $LN142@Extract
$LN97@Extract:

; 611  :                         _Pnode->_Color = _Red;
; 612  :                         _Fixnode       = _Fixnodeparent;
; 613  :                     } else { // must rearrange right subtree
; 614  :                         if (_Pnode->_Right->_Color == _Black) { // rotate red up from left sub-subtree

  001ec	8b 41 08	 mov	 eax, DWORD PTR [ecx+8]
  001ef	8b 5d fc	 mov	 ebx, DWORD PTR _this$1$[ebp]
  001f2	80 78 0c 01	 cmp	 BYTE PTR [eax+12], 1
  001f6	75 15		 jne	 SHORT $LN33@Extract

; 615  :                             _Pnode->_Left->_Color = _Black;

  001f8	8b 01		 mov	 eax, DWORD PTR [ecx]

; 616  :                             _Pnode->_Color        = _Red;
; 617  :                             _Rrotate(_Pnode);

  001fa	51		 push	 ecx
  001fb	c6 40 0c 01	 mov	 BYTE PTR [eax+12], 1
  001ff	c6 41 0c 00	 mov	 BYTE PTR [ecx+12], 0
  00203	8b cb		 mov	 ecx, ebx
  00205	e8 00 00 00 00	 call	 ?_Rrotate@?$_Tree_val@U?$_Tree_simple_types@U?$pair@$$CBKPAVCCtrl@@@std@@@std@@@std@@QAEXPAU?$_Tree_node@U?$pair@$$CBKPAVCCtrl@@@std@@PAX@2@@Z ; std::_Tree_val<std::_Tree_simple_types<std::pair<unsigned long const ,CCtrl *> > >::_Rrotate

; 618  :                             _Pnode = _Fixnodeparent->_Right;

  0020a	8b 4e 08	 mov	 ecx, DWORD PTR [esi+8]
$LN33@Extract:

; 619  :                         }
; 620  : 
; 621  :                         _Pnode->_Color         = _Fixnodeparent->_Color;

  0020d	8a 46 0c	 mov	 al, BYTE PTR [esi+12]
  00210	88 41 0c	 mov	 BYTE PTR [ecx+12], al

; 622  :                         _Fixnodeparent->_Color = _Black;

  00213	c6 46 0c 01	 mov	 BYTE PTR [esi+12], 1

; 623  :                         _Pnode->_Right->_Color = _Black;

  00217	8b 41 08	 mov	 eax, DWORD PTR [ecx+8]

; 624  :                         _Lrotate(_Fixnodeparent);

  0021a	8b cb		 mov	 ecx, ebx
  0021c	56		 push	 esi
  0021d	c6 40 0c 01	 mov	 BYTE PTR [eax+12], 1
  00221	e8 00 00 00 00	 call	 ?_Lrotate@?$_Tree_val@U?$_Tree_simple_types@U?$pair@$$CBKPAVCCtrl@@@std@@@std@@@std@@QAEXPAU?$_Tree_node@U?$pair@$$CBKPAVCCtrl@@@std@@PAX@2@@Z ; std::_Tree_val<std::_Tree_simple_types<std::pair<unsigned long const ,CCtrl *> > >::_Lrotate

; 625  :                         break; // tree now recolored/rebalanced

  00226	e9 d3 00 00 00	 jmp	 $LN3@Extract
$LN26@Extract:

; 626  :                     }
; 627  :                 } else { // fixup right subtree
; 628  :                     _Pnode = _Fixnodeparent->_Left;
; 629  :                     if (_Pnode->_Color == _Red) { // rotate red up from left subtree

  0022b	80 79 0c 00	 cmp	 BYTE PTR [ecx+12], 0
  0022f	75 55		 jne	 SHORT $LN96@Extract

; 630  :                         _Pnode->_Color         = _Black;

  00231	c6 41 0c 01	 mov	 BYTE PTR [ecx+12], 1

; 506  :         _Nodeptr _Pnode   = _Wherenode->_Left;

  00235	8b 0e		 mov	 ecx, DWORD PTR [esi]

; 631  :                         _Fixnodeparent->_Color = _Red;

  00237	c6 46 0c 00	 mov	 BYTE PTR [esi+12], 0

; 507  :         _Wherenode->_Left = _Pnode->_Right;

  0023b	8b 41 08	 mov	 eax, DWORD PTR [ecx+8]
  0023e	89 06		 mov	 DWORD PTR [esi], eax

; 508  : 
; 509  :         if (!_Pnode->_Right->_Isnil) {

  00240	8b 41 08	 mov	 eax, DWORD PTR [ecx+8]
  00243	80 78 0d 00	 cmp	 BYTE PTR [eax+13], 0
  00247	75 03		 jne	 SHORT $LN69@Extract

; 510  :             _Pnode->_Right->_Parent = _Wherenode;

  00249	89 70 04	 mov	 DWORD PTR [eax+4], esi
$LN69@Extract:

; 511  :         }
; 512  : 
; 513  :         _Pnode->_Parent = _Wherenode->_Parent;

  0024c	8b 46 04	 mov	 eax, DWORD PTR [esi+4]
  0024f	8d 56 04	 lea	 edx, DWORD PTR [esi+4]
  00252	89 41 04	 mov	 DWORD PTR [ecx+4], eax

; 514  : 
; 515  :         if (_Wherenode == _Myhead->_Parent) {

  00255	8b 03		 mov	 eax, DWORD PTR [ebx]
  00257	3b 70 04	 cmp	 esi, DWORD PTR [eax+4]
  0025a	75 0c		 jne	 SHORT $LN70@Extract

; 516  :             _Myhead->_Parent = _Pnode;

  0025c	89 48 04	 mov	 DWORD PTR [eax+4], ecx

; 521  :         }
; 522  : 
; 523  :         _Pnode->_Right      = _Wherenode;

  0025f	89 71 08	 mov	 DWORD PTR [ecx+8], esi

; 524  :         _Wherenode->_Parent = _Pnode;

  00262	89 0a		 mov	 DWORD PTR [edx], ecx

; 632  :                         _Rrotate(_Fixnodeparent);
; 633  :                         _Pnode = _Fixnodeparent->_Left;

  00264	8b 0e		 mov	 ecx, DWORD PTR [esi]
  00266	eb 21		 jmp	 SHORT $LN86@Extract
$LN70@Extract:

; 517  :         } else if (_Wherenode == _Wherenode->_Parent->_Right) {

  00268	8b 02		 mov	 eax, DWORD PTR [edx]
  0026a	3b 70 08	 cmp	 esi, DWORD PTR [eax+8]
  0026d	75 0c		 jne	 SHORT $LN72@Extract

; 518  :             _Wherenode->_Parent->_Right = _Pnode;

  0026f	89 48 08	 mov	 DWORD PTR [eax+8], ecx

; 521  :         }
; 522  : 
; 523  :         _Pnode->_Right      = _Wherenode;

  00272	89 71 08	 mov	 DWORD PTR [ecx+8], esi

; 524  :         _Wherenode->_Parent = _Pnode;

  00275	89 0a		 mov	 DWORD PTR [edx], ecx

; 632  :                         _Rrotate(_Fixnodeparent);
; 633  :                         _Pnode = _Fixnodeparent->_Left;

  00277	8b 0e		 mov	 ecx, DWORD PTR [esi]
  00279	eb 0e		 jmp	 SHORT $LN86@Extract
$LN72@Extract:

; 520  :             _Wherenode->_Parent->_Left = _Pnode;

  0027b	89 08		 mov	 DWORD PTR [eax], ecx

; 521  :         }
; 522  : 
; 523  :         _Pnode->_Right      = _Wherenode;

  0027d	89 71 08	 mov	 DWORD PTR [ecx+8], esi

; 524  :         _Wherenode->_Parent = _Pnode;

  00280	89 0a		 mov	 DWORD PTR [edx], ecx

; 632  :                         _Rrotate(_Fixnodeparent);
; 633  :                         _Pnode = _Fixnodeparent->_Left;

  00282	8b 0e		 mov	 ecx, DWORD PTR [esi]
  00284	eb 03		 jmp	 SHORT $LN86@Extract
$LN96@Extract:
  00286	8d 56 04	 lea	 edx, DWORD PTR [esi+4]
$LN86@Extract:

; 634  :                     }
; 635  : 
; 636  :                     if (_Pnode->_Isnil) {

  00289	80 79 0d 00	 cmp	 BYTE PTR [ecx+13], 0
  0028d	75 18		 jne	 SHORT $LN2@Extract

; 637  :                         _Fixnode = _Fixnodeparent; // shouldn't happen
; 638  :                     } else if (_Pnode->_Right->_Color == _Black
; 639  :                                && _Pnode->_Left->_Color == _Black) { // redden left subtree with black children

  0028f	8b 59 08	 mov	 ebx, DWORD PTR [ecx+8]
  00292	80 7b 0c 01	 cmp	 BYTE PTR [ebx+12], 1
  00296	75 2c		 jne	 SHORT $LN98@Extract
  00298	8b 01		 mov	 eax, DWORD PTR [ecx]
  0029a	80 78 0c 01	 cmp	 BYTE PTR [eax+12], 1
  0029e	75 24		 jne	 SHORT $LN98@Extract
$LN142@Extract:

; 597  :             for (; _Fixnode != _Myhead->_Parent && _Fixnode->_Color == _Black; _Fixnodeparent = _Fixnode->_Parent) {

  002a0	8b 5d fc	 mov	 ebx, DWORD PTR _this$1$[ebp]
  002a3	c6 41 0c 00	 mov	 BYTE PTR [ecx+12], 0
$LN2@Extract:
  002a7	8b 03		 mov	 eax, DWORD PTR [ebx]
  002a9	8b 4d f4	 mov	 ecx, DWORD PTR tv1093[ebp]
  002ac	8b f9		 mov	 edi, ecx
  002ae	8b 32		 mov	 esi, DWORD PTR [edx]
  002b0	3b 48 04	 cmp	 ecx, DWORD PTR [eax+4]
  002b3	74 49		 je	 SHORT $LN3@Extract
  002b5	80 7f 0c 01	 cmp	 BYTE PTR [edi+12], 1
  002b9	89 75 f4	 mov	 DWORD PTR tv1093[ebp], esi
  002bc	0f 84 a1 fe ff
	ff		 je	 $LL4@Extract
  002c2	eb 3a		 jmp	 SHORT $LN3@Extract
$LN98@Extract:

; 640  :                         _Pnode->_Color = _Red;
; 641  :                         _Fixnode       = _Fixnodeparent;
; 642  :                     } else { // must rearrange left subtree
; 643  :                         if (_Pnode->_Left->_Color == _Black) { // rotate red up from right sub-subtree

  002c4	8b 01		 mov	 eax, DWORD PTR [ecx]
  002c6	80 78 0c 01	 cmp	 BYTE PTR [eax+12], 1
  002ca	75 17		 jne	 SHORT $LN101@Extract

; 644  :                             _Pnode->_Right->_Color = _Black;

  002cc	c6 43 0c 01	 mov	 BYTE PTR [ebx+12], 1

; 645  :                             _Pnode->_Color         = _Red;
; 646  :                             _Lrotate(_Pnode);

  002d0	8b 5d fc	 mov	 ebx, DWORD PTR _this$1$[ebp]
  002d3	c6 41 0c 00	 mov	 BYTE PTR [ecx+12], 0
  002d7	51		 push	 ecx
  002d8	8b cb		 mov	 ecx, ebx
  002da	e8 00 00 00 00	 call	 ?_Lrotate@?$_Tree_val@U?$_Tree_simple_types@U?$pair@$$CBKPAVCCtrl@@@std@@@std@@@std@@QAEXPAU?$_Tree_node@U?$pair@$$CBKPAVCCtrl@@@std@@PAX@2@@Z ; std::_Tree_val<std::_Tree_simple_types<std::pair<unsigned long const ,CCtrl *> > >::_Lrotate

; 647  :                             _Pnode = _Fixnodeparent->_Left;

  002df	8b 0e		 mov	 ecx, DWORD PTR [esi]
  002e1	eb 03		 jmp	 SHORT $LN39@Extract
$LN101@Extract:

; 640  :                         _Pnode->_Color = _Red;
; 641  :                         _Fixnode       = _Fixnodeparent;
; 642  :                     } else { // must rearrange left subtree
; 643  :                         if (_Pnode->_Left->_Color == _Black) { // rotate red up from right sub-subtree

  002e3	8b 5d fc	 mov	 ebx, DWORD PTR _this$1$[ebp]
$LN39@Extract:

; 648  :                         }
; 649  : 
; 650  :                         _Pnode->_Color         = _Fixnodeparent->_Color;

  002e6	8a 46 0c	 mov	 al, BYTE PTR [esi+12]
  002e9	88 41 0c	 mov	 BYTE PTR [ecx+12], al

; 651  :                         _Fixnodeparent->_Color = _Black;

  002ec	c6 46 0c 01	 mov	 BYTE PTR [esi+12], 1

; 652  :                         _Pnode->_Left->_Color  = _Black;

  002f0	8b 01		 mov	 eax, DWORD PTR [ecx]

; 653  :                         _Rrotate(_Fixnodeparent);

  002f2	8b cb		 mov	 ecx, ebx
  002f4	56		 push	 esi
  002f5	c6 40 0c 01	 mov	 BYTE PTR [eax+12], 1
  002f9	e8 00 00 00 00	 call	 ?_Rrotate@?$_Tree_val@U?$_Tree_simple_types@U?$pair@$$CBKPAVCCtrl@@@std@@@std@@@std@@QAEXPAU?$_Tree_node@U?$pair@$$CBKPAVCCtrl@@@std@@PAX@2@@Z ; std::_Tree_val<std::_Tree_simple_types<std::pair<unsigned long const ,CCtrl *> > >::_Rrotate
$LN3@Extract:

; 654  :                         break; // tree now recolored/rebalanced
; 655  :                     }
; 656  :                 }
; 657  :             }
; 658  : 
; 659  :             _Fixnode->_Color = _Black; // stopping node is black

  002fe	8b 45 f8	 mov	 eax, DWORD PTR __Erasednode$1$[ebp]
  00301	c6 47 0c 01	 mov	 BYTE PTR [edi+12], 1
$LN25@Extract:

; 660  :         }
; 661  : 
; 662  :         if (0 < _Mysize) {

  00305	8b 4b 04	 mov	 ecx, DWORD PTR [ebx+4]
  00308	85 c9		 test	 ecx, ecx
  0030a	74 04		 je	 SHORT $LN40@Extract

; 663  :             --_Mysize;

  0030c	49		 dec	 ecx
  0030d	89 4b 04	 mov	 DWORD PTR [ebx+4], ecx
$LN40@Extract:

; 664  :         }
; 665  : 
; 666  :         return _Erasednode;
; 667  :     }

  00310	5f		 pop	 edi
  00311	5e		 pop	 esi
  00312	5b		 pop	 ebx
  00313	8b e5		 mov	 esp, ebp
  00315	5d		 pop	 ebp
  00316	c2 04 00	 ret	 4
?_Extract@?$_Tree_val@U?$_Tree_simple_types@U?$pair@$$CBKPAVCCtrl@@@std@@@std@@@std@@QAEPAU?$_Tree_node@U?$pair@$$CBKPAVCCtrl@@@std@@PAX@2@V?$_Tree_unchecked_const_iterator@V?$_Tree_val@U?$_Tree_simple_types@U?$pair@$$CBKPAVCCtrl@@@std@@@std@@@std@@U_Iterator_base0@2@@2@@Z ENDP ; std::_Tree_val<std::_Tree_simple_types<std::pair<unsigned long const ,CCtrl *> > >::_Extract
_TEXT	ENDS
; Function compile flags: /Ogtp
; File C:\Program Files\Microsoft Visual Studio\2022\Professional\VC\Tools\MSVC\14.44.35207\include\xtree
;	COMDAT ?_Rrotate@?$_Tree_val@U?$_Tree_simple_types@U?$pair@$$CBKPAVCCtrl@@@std@@@std@@@std@@QAEXPAU?$_Tree_node@U?$pair@$$CBKPAVCCtrl@@@std@@PAX@2@@Z
_TEXT	SEGMENT
__Wherenode$ = 8					; size = 4
?_Rrotate@?$_Tree_val@U?$_Tree_simple_types@U?$pair@$$CBKPAVCCtrl@@@std@@@std@@@std@@QAEXPAU?$_Tree_node@U?$pair@$$CBKPAVCCtrl@@@std@@PAX@2@@Z PROC ; std::_Tree_val<std::_Tree_simple_types<std::pair<unsigned long const ,CCtrl *> > >::_Rrotate, COMDAT
; _this$ = ecx

; 505  :     void _Rrotate(_Nodeptr _Wherenode) noexcept { // promote left node to root of subtree

  00000	55		 push	 ebp
  00001	8b ec		 mov	 ebp, esp

; 506  :         _Nodeptr _Pnode   = _Wherenode->_Left;

  00003	8b 55 08	 mov	 edx, DWORD PTR __Wherenode$[ebp]
  00006	56		 push	 esi
  00007	8b 32		 mov	 esi, DWORD PTR [edx]

; 507  :         _Wherenode->_Left = _Pnode->_Right;

  00009	8b 46 08	 mov	 eax, DWORD PTR [esi+8]
  0000c	89 02		 mov	 DWORD PTR [edx], eax

; 508  : 
; 509  :         if (!_Pnode->_Right->_Isnil) {

  0000e	8b 46 08	 mov	 eax, DWORD PTR [esi+8]
  00011	80 78 0d 00	 cmp	 BYTE PTR [eax+13], 0
  00015	75 03		 jne	 SHORT $LN2@Rrotate

; 510  :             _Pnode->_Right->_Parent = _Wherenode;

  00017	89 50 04	 mov	 DWORD PTR [eax+4], edx
$LN2@Rrotate:

; 511  :         }
; 512  : 
; 513  :         _Pnode->_Parent = _Wherenode->_Parent;

  0001a	8b 42 04	 mov	 eax, DWORD PTR [edx+4]
  0001d	89 46 04	 mov	 DWORD PTR [esi+4], eax

; 514  : 
; 515  :         if (_Wherenode == _Myhead->_Parent) {

  00020	8b 01		 mov	 eax, DWORD PTR [ecx]
  00022	3b 50 04	 cmp	 edx, DWORD PTR [eax+4]
  00025	75 0e		 jne	 SHORT $LN3@Rrotate

; 516  :             _Myhead->_Parent = _Pnode;

  00027	89 70 04	 mov	 DWORD PTR [eax+4], esi

; 521  :         }
; 522  : 
; 523  :         _Pnode->_Right      = _Wherenode;
; 524  :         _Wherenode->_Parent = _Pnode;
; 525  :     }

  0002a	89 56 08	 mov	 DWORD PTR [esi+8], edx
  0002d	89 72 04	 mov	 DWORD PTR [edx+4], esi
  00030	5e		 pop	 esi
  00031	5d		 pop	 ebp
  00032	c2 04 00	 ret	 4
$LN3@Rrotate:

; 517  :         } else if (_Wherenode == _Wherenode->_Parent->_Right) {

  00035	8b 42 04	 mov	 eax, DWORD PTR [edx+4]
  00038	3b 50 08	 cmp	 edx, DWORD PTR [eax+8]
  0003b	75 0e		 jne	 SHORT $LN5@Rrotate

; 518  :             _Wherenode->_Parent->_Right = _Pnode;

  0003d	89 70 08	 mov	 DWORD PTR [eax+8], esi

; 521  :         }
; 522  : 
; 523  :         _Pnode->_Right      = _Wherenode;
; 524  :         _Wherenode->_Parent = _Pnode;
; 525  :     }

  00040	89 56 08	 mov	 DWORD PTR [esi+8], edx
  00043	89 72 04	 mov	 DWORD PTR [edx+4], esi
  00046	5e		 pop	 esi
  00047	5d		 pop	 ebp
  00048	c2 04 00	 ret	 4
$LN5@Rrotate:

; 519  :         } else {
; 520  :             _Wherenode->_Parent->_Left = _Pnode;

  0004b	89 30		 mov	 DWORD PTR [eax], esi

; 521  :         }
; 522  : 
; 523  :         _Pnode->_Right      = _Wherenode;
; 524  :         _Wherenode->_Parent = _Pnode;
; 525  :     }

  0004d	89 56 08	 mov	 DWORD PTR [esi+8], edx
  00050	89 72 04	 mov	 DWORD PTR [edx+4], esi
  00053	5e		 pop	 esi
  00054	5d		 pop	 ebp
  00055	c2 04 00	 ret	 4
?_Rrotate@?$_Tree_val@U?$_Tree_simple_types@U?$pair@$$CBKPAVCCtrl@@@std@@@std@@@std@@QAEXPAU?$_Tree_node@U?$pair@$$CBKPAVCCtrl@@@std@@PAX@2@@Z ENDP ; std::_Tree_val<std::_Tree_simple_types<std::pair<unsigned long const ,CCtrl *> > >::_Rrotate
_TEXT	ENDS
; Function compile flags: /Ogtp
; File C:\Program Files\Microsoft Visual Studio\2022\Professional\VC\Tools\MSVC\14.44.35207\include\xtree
;	COMDAT ?_Lrotate@?$_Tree_val@U?$_Tree_simple_types@U?$pair@$$CBKPAVCCtrl@@@std@@@std@@@std@@QAEXPAU?$_Tree_node@U?$pair@$$CBKPAVCCtrl@@@std@@PAX@2@@Z
_TEXT	SEGMENT
__Wherenode$ = 8					; size = 4
?_Lrotate@?$_Tree_val@U?$_Tree_simple_types@U?$pair@$$CBKPAVCCtrl@@@std@@@std@@@std@@QAEXPAU?$_Tree_node@U?$pair@$$CBKPAVCCtrl@@@std@@PAX@2@@Z PROC ; std::_Tree_val<std::_Tree_simple_types<std::pair<unsigned long const ,CCtrl *> > >::_Lrotate, COMDAT
; _this$ = ecx

; 483  :     void _Lrotate(_Nodeptr _Wherenode) noexcept { // promote right node to root of subtree

  00000	55		 push	 ebp
  00001	8b ec		 mov	 ebp, esp

; 484  :         _Nodeptr _Pnode    = _Wherenode->_Right;

  00003	8b 55 08	 mov	 edx, DWORD PTR __Wherenode$[ebp]
  00006	56		 push	 esi
  00007	8b 72 08	 mov	 esi, DWORD PTR [edx+8]

; 485  :         _Wherenode->_Right = _Pnode->_Left;

  0000a	8b 06		 mov	 eax, DWORD PTR [esi]
  0000c	89 42 08	 mov	 DWORD PTR [edx+8], eax

; 486  : 
; 487  :         if (!_Pnode->_Left->_Isnil) {

  0000f	8b 06		 mov	 eax, DWORD PTR [esi]
  00011	80 78 0d 00	 cmp	 BYTE PTR [eax+13], 0
  00015	75 03		 jne	 SHORT $LN2@Lrotate

; 488  :             _Pnode->_Left->_Parent = _Wherenode;

  00017	89 50 04	 mov	 DWORD PTR [eax+4], edx
$LN2@Lrotate:

; 489  :         }
; 490  : 
; 491  :         _Pnode->_Parent = _Wherenode->_Parent;

  0001a	8b 42 04	 mov	 eax, DWORD PTR [edx+4]
  0001d	89 46 04	 mov	 DWORD PTR [esi+4], eax

; 492  : 
; 493  :         if (_Wherenode == _Myhead->_Parent) {

  00020	8b 01		 mov	 eax, DWORD PTR [ecx]
  00022	3b 50 04	 cmp	 edx, DWORD PTR [eax+4]
  00025	75 0d		 jne	 SHORT $LN3@Lrotate

; 494  :             _Myhead->_Parent = _Pnode;

  00027	89 70 04	 mov	 DWORD PTR [eax+4], esi

; 499  :         }
; 500  : 
; 501  :         _Pnode->_Left       = _Wherenode;
; 502  :         _Wherenode->_Parent = _Pnode;
; 503  :     }

  0002a	89 16		 mov	 DWORD PTR [esi], edx
  0002c	89 72 04	 mov	 DWORD PTR [edx+4], esi
  0002f	5e		 pop	 esi
  00030	5d		 pop	 ebp
  00031	c2 04 00	 ret	 4
$LN3@Lrotate:

; 495  :         } else if (_Wherenode == _Wherenode->_Parent->_Left) {

  00034	8b 42 04	 mov	 eax, DWORD PTR [edx+4]
  00037	3b 10		 cmp	 edx, DWORD PTR [eax]
  00039	75 0c		 jne	 SHORT $LN5@Lrotate

; 496  :             _Wherenode->_Parent->_Left = _Pnode;

  0003b	89 30		 mov	 DWORD PTR [eax], esi

; 499  :         }
; 500  : 
; 501  :         _Pnode->_Left       = _Wherenode;
; 502  :         _Wherenode->_Parent = _Pnode;
; 503  :     }

  0003d	89 16		 mov	 DWORD PTR [esi], edx
  0003f	89 72 04	 mov	 DWORD PTR [edx+4], esi
  00042	5e		 pop	 esi
  00043	5d		 pop	 ebp
  00044	c2 04 00	 ret	 4
$LN5@Lrotate:

; 497  :         } else {
; 498  :             _Wherenode->_Parent->_Right = _Pnode;

  00047	89 70 08	 mov	 DWORD PTR [eax+8], esi

; 499  :         }
; 500  : 
; 501  :         _Pnode->_Left       = _Wherenode;
; 502  :         _Wherenode->_Parent = _Pnode;
; 503  :     }

  0004a	89 16		 mov	 DWORD PTR [esi], edx
  0004c	89 72 04	 mov	 DWORD PTR [edx+4], esi
  0004f	5e		 pop	 esi
  00050	5d		 pop	 ebp
  00051	c2 04 00	 ret	 4
?_Lrotate@?$_Tree_val@U?$_Tree_simple_types@U?$pair@$$CBKPAVCCtrl@@@std@@@std@@@std@@QAEXPAU?$_Tree_node@U?$pair@$$CBKPAVCCtrl@@@std@@PAX@2@@Z ENDP ; std::_Tree_val<std::_Tree_simple_types<std::pair<unsigned long const ,CCtrl *> > >::_Lrotate
_TEXT	ENDS
; Function compile flags: /Ogtp
; File C:\Program Files\Microsoft Visual Studio\2022\Professional\VC\Tools\MSVC\14.44.35207\include\xtree
; File C:\Program Files\Microsoft Visual Studio\2022\Professional\VC\Tools\MSVC\14.44.35207\include\type_traits
; File C:\Program Files\Microsoft Visual Studio\2022\Professional\VC\Tools\MSVC\14.44.35207\include\xtree
; File C:\Program Files\Microsoft Visual Studio\2022\Professional\VC\Tools\MSVC\14.44.35207\include\type_traits
; File C:\Program Files\Microsoft Visual Studio\2022\Professional\VC\Tools\MSVC\14.44.35207\include\xtree
; File C:\Program Files\Microsoft Visual Studio\2022\Professional\VC\Tools\MSVC\14.44.35207\include\type_traits
; File C:\Program Files\Microsoft Visual Studio\2022\Professional\VC\Tools\MSVC\14.44.35207\include\xtree
; File C:\Program Files\Microsoft Visual Studio\2022\Professional\VC\Tools\MSVC\14.44.35207\include\xutility
; File C:\Program Files\Microsoft Visual Studio\2022\Professional\VC\Tools\MSVC\14.44.35207\include\xtree
; File C:\Program Files\Microsoft Visual Studio\2022\Professional\VC\Tools\MSVC\14.44.35207\include\xutility
; File C:\Program Files\Microsoft Visual Studio\2022\Professional\VC\Tools\MSVC\14.44.35207\include\xtree
; File C:\Program Files\Microsoft Visual Studio\2022\Professional\VC\Tools\MSVC\14.44.35207\include\xutility
; File C:\Program Files\Microsoft Visual Studio\2022\Professional\VC\Tools\MSVC\14.44.35207\include\xtree
; File C:\Program Files\Microsoft Visual Studio\2022\Professional\VC\Tools\MSVC\14.44.35207\include\xutility
; File C:\Program Files\Microsoft Visual Studio\2022\Professional\VC\Tools\MSVC\14.44.35207\include\xtree
; File C:\Program Files\Microsoft Visual Studio\2022\Professional\VC\Tools\MSVC\14.44.35207\include\utility
; File C:\Program Files\Microsoft Visual Studio\2022\Professional\VC\Tools\MSVC\14.44.35207\include\xmemory
; File C:\Program Files\Microsoft Visual Studio\2022\Professional\VC\Tools\MSVC\14.44.35207\include\xtree
; File C:\Program Files\Microsoft Visual Studio\2022\Professional\VC\Tools\MSVC\14.44.35207\include\xmemory
; File C:\Program Files\Microsoft Visual Studio\2022\Professional\VC\Tools\MSVC\14.44.35207\include\xtree
; File C:\Program Files\Microsoft Visual Studio\2022\Professional\VC\Tools\MSVC\14.44.35207\include\xmemory
; File C:\Program Files\Microsoft Visual Studio\2022\Professional\VC\Tools\MSVC\14.44.35207\include\xtree
;	COMDAT ?erase@?$_Tree@V?$_Tmap_traits@KPAVCCtrl@@U?$less@K@std@@V?$allocator@U?$pair@$$CBKPAVCCtrl@@@std@@@3@$0A@@std@@@std@@QAEIABK@Z
_TEXT	SEGMENT
__First$ = -16						; size = 4
__Rootnode$1$ = -16					; size = 4
__Head$1$ = -12						; size = 4
_this$1$ = -8						; size = 4
tv820 = -1						; size = 1
__Keyval$ = 8						; size = 4
__Off$1$ = 8						; size = 4
?erase@?$_Tree@V?$_Tmap_traits@KPAVCCtrl@@U?$less@K@std@@V?$allocator@U?$pair@$$CBKPAVCCtrl@@@std@@@3@$0A@@std@@@std@@QAEIABK@Z PROC ; std::_Tree<std::_Tmap_traits<unsigned long,CCtrl *,std::less<unsigned long>,std::allocator<std::pair<unsigned long const ,CCtrl *> >,0> >::erase, COMDAT
; _this$ = ecx

; 1357 :     size_type erase(const key_type& _Keyval) noexcept(noexcept(_Eqrange(_Keyval))) /* strengthened */ {

  00000	55		 push	 ebp
  00001	8b ec		 mov	 ebp, esp
  00003	83 ec 10	 sub	 esp, 16			; 00000010H
  00006	8b c1		 mov	 eax, ecx
  00008	53		 push	 ebx
  00009	56		 push	 esi
  0000a	57		 push	 edi

; 1709 :         _Nodeptr _Pnode   = _Scary->_Myhead->_Parent;

  0000b	8b 38		 mov	 edi, DWORD PTR [eax]

; 1710 :         _Nodeptr _Lonode  = _Scary->_Myhead; // end() if search fails

  0000d	8b f7		 mov	 esi, edi

; 1357 :     size_type erase(const key_type& _Keyval) noexcept(noexcept(_Eqrange(_Keyval))) /* strengthened */ {

  0000f	89 45 f8	 mov	 DWORD PTR _this$1$[ebp], eax

; 1709 :         _Nodeptr _Pnode   = _Scary->_Myhead->_Parent;

  00012	89 7d f4	 mov	 DWORD PTR __Head$1$[ebp], edi
  00015	8b 5f 04	 mov	 ebx, DWORD PTR [edi+4]
  00018	8b c3		 mov	 eax, ebx
  0001a	89 5d f0	 mov	 DWORD PTR __Rootnode$1$[ebp], ebx

; 1711 :         _Nodeptr _Hinode  = _Scary->_Myhead; // end() if search fails
; 1712 : 
; 1713 :         while (!_Pnode->_Isnil) {

  0001d	8a 48 0d	 mov	 cl, BYTE PTR [eax+13]
  00020	88 4d ff	 mov	 BYTE PTR tv820[ebp], cl
  00023	84 c9		 test	 cl, cl
  00025	75 2a		 jne	 SHORT $LN6@erase
; File C:\Program Files\Microsoft Visual Studio\2022\Professional\VC\Tools\MSVC\14.44.35207\include\type_traits

; 2380 :         return _Left < _Right;

  00027	8b 55 08	 mov	 edx, DWORD PTR __Keyval$[ebp]
  0002a	8b 12		 mov	 edx, DWORD PTR [edx]
  0002c	0f 1f 40 00	 npad	 4
$LL5@erase:
  00030	8b 48 10	 mov	 ecx, DWORD PTR [eax+16]
  00033	3b ca		 cmp	 ecx, edx
; File C:\Program Files\Microsoft Visual Studio\2022\Professional\VC\Tools\MSVC\14.44.35207\include\xtree

; 1715 :             if (_DEBUG_LT_PRED(_Comp, _Nodekey, _Keyval)) {

  00035	73 05		 jae	 SHORT $LN9@erase

; 1716 :                 _Pnode = _Pnode->_Right; // descend right subtree

  00037	8b 40 08	 mov	 eax, DWORD PTR [eax+8]

; 1717 :             } else { // _Pnode not less than _Keyval, remember it

  0003a	eb 0f		 jmp	 SHORT $LN10@erase
$LN9@erase:

; 1718 :                 if (_Hinode->_Isnil && _DEBUG_LT_PRED(_Comp, _Keyval, _Nodekey)) {

  0003c	80 7f 0d 00	 cmp	 BYTE PTR [edi+13], 0
  00040	74 05		 je	 SHORT $LN11@erase
; File C:\Program Files\Microsoft Visual Studio\2022\Professional\VC\Tools\MSVC\14.44.35207\include\type_traits

; 2380 :         return _Left < _Right;

  00042	3b d1		 cmp	 edx, ecx
; File C:\Program Files\Microsoft Visual Studio\2022\Professional\VC\Tools\MSVC\14.44.35207\include\xtree

; 1718 :                 if (_Hinode->_Isnil && _DEBUG_LT_PRED(_Comp, _Keyval, _Nodekey)) {

  00044	0f 42 f8	 cmovb	 edi, eax
$LN11@erase:

; 1719 :                     _Hinode = _Pnode; // _Pnode greater, remember it
; 1720 :                 }
; 1721 : 
; 1722 :                 _Lonode = _Pnode;

  00047	8b f0		 mov	 esi, eax

; 1723 :                 _Pnode  = _Pnode->_Left; // descend left subtree

  00049	8b 00		 mov	 eax, DWORD PTR [eax]
$LN10@erase:

; 1711 :         _Nodeptr _Hinode  = _Scary->_Myhead; // end() if search fails
; 1712 : 
; 1713 :         while (!_Pnode->_Isnil) {

  0004b	80 78 0d 00	 cmp	 BYTE PTR [eax+13], 0
  0004f	74 df		 je	 SHORT $LL5@erase
$LN6@erase:

; 1724 :             }
; 1725 :         }
; 1726 : 
; 1727 :         _Pnode = _Hinode->_Isnil ? _Scary->_Myhead->_Parent : _Hinode->_Left; // continue scan for upper bound

  00051	80 7f 0d 00	 cmp	 BYTE PTR [edi+13], 0
  00055	8b c3		 mov	 eax, ebx
  00057	75 02		 jne	 SHORT $LN16@erase
  00059	8b 07		 mov	 eax, DWORD PTR [edi]
$LN16@erase:

; 1728 :         while (!_Pnode->_Isnil) {

  0005b	80 78 0d 00	 cmp	 BYTE PTR [eax+13], 0
  0005f	75 19		 jne	 SHORT $LN8@erase
; File C:\Program Files\Microsoft Visual Studio\2022\Professional\VC\Tools\MSVC\14.44.35207\include\type_traits

; 2380 :         return _Left < _Right;

  00061	8b 4d 08	 mov	 ecx, DWORD PTR __Keyval$[ebp]
  00064	8b 09		 mov	 ecx, DWORD PTR [ecx]
$LL7@erase:
  00066	3b 48 10	 cmp	 ecx, DWORD PTR [eax+16]
; File C:\Program Files\Microsoft Visual Studio\2022\Professional\VC\Tools\MSVC\14.44.35207\include\xtree

; 1729 :             if (_DEBUG_LT_PRED(_Getcomp(), _Keyval, _Traits::_Kfn(_Pnode->_Myval))) {

  00069	73 06		 jae	 SHORT $LN12@erase

; 1730 :                 // _Pnode greater than _Keyval, remember it
; 1731 :                 _Hinode = _Pnode;

  0006b	8b f8		 mov	 edi, eax

; 1732 :                 _Pnode  = _Pnode->_Left; // descend left subtree

  0006d	8b 00		 mov	 eax, DWORD PTR [eax]

; 1733 :             } else {

  0006f	eb 03		 jmp	 SHORT $LN13@erase
$LN12@erase:

; 1734 :                 _Pnode = _Pnode->_Right; // descend right subtree

  00071	8b 40 08	 mov	 eax, DWORD PTR [eax+8]
$LN13@erase:

; 1728 :         while (!_Pnode->_Isnil) {

  00074	80 78 0d 00	 cmp	 BYTE PTR [eax+13], 0
  00078	74 ec		 je	 SHORT $LL7@erase
$LN8@erase:
; File C:\Program Files\Microsoft Visual Studio\2022\Professional\VC\Tools\MSVC\14.44.35207\include\xutility

; 1667 :         _Iter_diff_t<_InIt> _Off = 0;

  0007a	33 c9		 xor	 ecx, ecx
  0007c	8b c6		 mov	 eax, esi
  0007e	89 4d 08	 mov	 DWORD PTR __Off$1$[ebp], ecx
; File C:\Program Files\Microsoft Visual Studio\2022\Professional\VC\Tools\MSVC\14.44.35207\include\xtree

; 101  :         return !(*this == _Right);

  00081	3b f7		 cmp	 esi, edi
; File C:\Program Files\Microsoft Visual Studio\2022\Professional\VC\Tools\MSVC\14.44.35207\include\xutility

; 1668 :         for (; _UFirst != _ULast; ++_UFirst) {

  00083	74 54		 je	 SHORT $LN41@erase
  00085	33 db		 xor	 ebx, ebx
$LL42@erase:
; File C:\Program Files\Microsoft Visual Studio\2022\Professional\VC\Tools\MSVC\14.44.35207\include\xtree

; 50   :         if (_Ptr->_Right->_Isnil) { // climb looking for right subtree

  00087	8b 48 08	 mov	 ecx, DWORD PTR [eax+8]
; File C:\Program Files\Microsoft Visual Studio\2022\Professional\VC\Tools\MSVC\14.44.35207\include\xutility

; 1669 :             ++_Off;

  0008a	43		 inc	 ebx
; File C:\Program Files\Microsoft Visual Studio\2022\Professional\VC\Tools\MSVC\14.44.35207\include\xtree

; 50   :         if (_Ptr->_Right->_Isnil) { // climb looking for right subtree

  0008b	80 79 0d 00	 cmp	 BYTE PTR [ecx+13], 0
  0008f	74 23		 je	 SHORT $LN47@erase

; 51   :             _Nodeptr _Pnode;
; 52   :             while (!(_Pnode = _Ptr->_Parent)->_Isnil && _Ptr == _Pnode->_Right) {

  00091	8b 48 04	 mov	 ecx, DWORD PTR [eax+4]
  00094	80 79 0d 00	 cmp	 BYTE PTR [ecx+13], 0
  00098	75 16		 jne	 SHORT $LN182@erase
  0009a	66 0f 1f 44 00
	00		 npad	 6
$LL45@erase:
  000a0	3b 41 08	 cmp	 eax, DWORD PTR [ecx+8]
  000a3	75 0b		 jne	 SHORT $LN182@erase

; 53   :                 _Ptr = _Pnode; // ==> parent while right subtree

  000a5	8b c1		 mov	 eax, ecx
  000a7	8b 49 04	 mov	 ecx, DWORD PTR [ecx+4]
  000aa	80 79 0d 00	 cmp	 BYTE PTR [ecx+13], 0
  000ae	74 f0		 je	 SHORT $LL45@erase
$LN182@erase:

; 54   :             }
; 55   : 
; 56   :             _Ptr = _Pnode; // ==> parent (head if end())

  000b0	8b c1		 mov	 eax, ecx

; 57   :         } else {

  000b2	eb 18		 jmp	 SHORT $LN53@erase
$LN47@erase:

; 58   :             _Ptr = _Mytree::_Min(_Ptr->_Right); // ==> smallest of right subtree

  000b4	8b c1		 mov	 eax, ecx

; 476  :         while (!_Pnode->_Left->_Isnil) {

  000b6	8b 10		 mov	 edx, DWORD PTR [eax]
  000b8	80 7a 0d 00	 cmp	 BYTE PTR [edx+13], 0
  000bc	75 0e		 jne	 SHORT $LN53@erase
  000be	66 90		 npad	 2
$LL52@erase:
  000c0	8b 0a		 mov	 ecx, DWORD PTR [edx]

; 477  :             _Pnode = _Pnode->_Left;

  000c2	8b c2		 mov	 eax, edx
  000c4	8b d1		 mov	 edx, ecx
  000c6	80 79 0d 00	 cmp	 BYTE PTR [ecx+13], 0
  000ca	74 f4		 je	 SHORT $LL52@erase
$LN53@erase:

; 101  :         return !(*this == _Right);

  000cc	3b c7		 cmp	 eax, edi
; File C:\Program Files\Microsoft Visual Studio\2022\Professional\VC\Tools\MSVC\14.44.35207\include\xutility

; 1668 :         for (; _UFirst != _ULast; ++_UFirst) {

  000ce	75 b7		 jne	 SHORT $LL42@erase
  000d0	89 5d 08	 mov	 DWORD PTR __Off$1$[ebp], ebx
  000d3	8b 5d f0	 mov	 ebx, DWORD PTR __Rootnode$1$[ebp]
  000d6	8b 4d 08	 mov	 ecx, DWORD PTR __Off$1$[ebp]
$LN41@erase:
; File C:\Program Files\Microsoft Visual Studio\2022\Professional\VC\Tools\MSVC\14.44.35207\include\xtree

; 96   :         return _Ptr == _Right._Ptr;

  000d9	8b 45 f4	 mov	 eax, DWORD PTR __Head$1$[ebp]

; 1329 :         _Erase_unchecked(_First, _Last);

  000dc	89 75 f0	 mov	 DWORD PTR __First$[ebp], esi

; 96   :         return _Ptr == _Right._Ptr;

  000df	3b 30		 cmp	 esi, DWORD PTR [eax]

; 1311 :         if (_First == _Begin && _Last._Ptr->_Isnil) {

  000e1	75 51		 jne	 SHORT $LN157@erase
  000e3	80 7f 0d 00	 cmp	 BYTE PTR [edi+13], 0
  000e7	74 4b		 je	 SHORT $LN157@erase

; 768  :         while (!_Rootnode->_Isnil) { // free subtrees, then node

  000e9	80 7d ff 00	 cmp	 BYTE PTR tv820[ebp], 0
  000ed	75 27		 jne	 SHORT $LN165@erase
  000ef	90		 npad	 1
$LL84@erase:

; 769  :             _Erase_tree(_Al, _Rootnode->_Right);

  000f0	ff 73 08	 push	 DWORD PTR [ebx+8]
  000f3	8b 45 f8	 mov	 eax, DWORD PTR _this$1$[ebp]
  000f6	8b c8		 mov	 ecx, eax
  000f8	50		 push	 eax
  000f9	e8 00 00 00 00	 call	 ??$_Erase_tree@V?$allocator@U?$_Tree_node@U?$pair@$$CBKPAVCCtrl@@@std@@PAX@std@@@std@@@?$_Tree_val@U?$_Tree_simple_types@U?$pair@$$CBKPAVCCtrl@@@std@@@std@@@std@@QAEXAAV?$allocator@U?$_Tree_node@U?$pair@$$CBKPAVCCtrl@@@std@@PAX@std@@@1@PAU?$_Tree_node@U?$pair@$$CBKPAVCCtrl@@@std@@PAX@1@@Z ; std::_Tree_val<std::_Tree_simple_types<std::pair<unsigned long const ,CCtrl *> > >::_Erase_tree<std::allocator<std::_Tree_node<std::pair<unsigned long const ,CCtrl *>,void *> > >
; File C:\Program Files\Microsoft Visual Studio\2022\Professional\VC\Tools\MSVC\14.44.35207\include\utility

; 773  :     _Ty _Old_val = static_cast<_Ty&&>(_Val);

  000fe	8b c3		 mov	 eax, ebx

; 774  :     _Val         = static_cast<_Other&&>(_New_val);

  00100	8b 1b		 mov	 ebx, DWORD PTR [ebx]
; File C:\Program Files\Microsoft Visual Studio\2022\Professional\VC\Tools\MSVC\14.44.35207\include\xmemory

; 289  :         ::operator delete(_Ptr, _Bytes);

  00102	6a 18		 push	 24			; 00000018H
  00104	50		 push	 eax
  00105	e8 00 00 00 00	 call	 ??3@YAXPAXI@Z		; operator delete
  0010a	83 c4 08	 add	 esp, 8
; File C:\Program Files\Microsoft Visual Studio\2022\Professional\VC\Tools\MSVC\14.44.35207\include\xtree

; 768  :         while (!_Rootnode->_Isnil) { // free subtrees, then node

  0010d	80 7b 0d 00	 cmp	 BYTE PTR [ebx+13], 0
  00111	74 dd		 je	 SHORT $LL84@erase
  00113	8b 45 f4	 mov	 eax, DWORD PTR __Head$1$[ebp]
$LN165@erase:

; 1378 :         _Scary->_Mysize = 0;

  00116	8b 5d f8	 mov	 ebx, DWORD PTR _this$1$[ebp]
  00119	5f		 pop	 edi

; 1360 : 
; 1361 : #if _HAS_CXX23
; 1362 :     template <class _Kx>
; 1363 :         requires _Is_transparent_v<key_compare> && (!is_convertible_v<_Kx, const_iterator>)
; 1364 :               && (!is_convertible_v<_Kx, iterator>)
; 1365 :     size_type erase(_Kx&& _Keyval) noexcept(noexcept(_Eqrange(_Keyval))) /* strengthened */ {
; 1366 :         return _Erase(_Eqrange(_Keyval));
; 1367 :     }
; 1368 : #endif // _HAS_CXX23
; 1369 : 
; 1370 :     void clear() noexcept {
; 1371 :         const auto _Scary = _Get_scary();
; 1372 :         _Scary->_Orphan_ptr(nullptr);
; 1373 :         auto _Head = _Scary->_Myhead;
; 1374 :         _Scary->_Erase_tree(_Getal(), _Head->_Parent);
; 1375 :         _Head->_Parent  = _Head;

  0011a	89 40 04	 mov	 DWORD PTR [eax+4], eax

; 1376 :         _Head->_Left    = _Head;

  0011d	89 00		 mov	 DWORD PTR [eax], eax

; 1377 :         _Head->_Right   = _Head;

  0011f	89 40 08	 mov	 DWORD PTR [eax+8], eax

; 1358 :         return _Erase(_Eqrange(_Keyval));

  00122	8b 45 08	 mov	 eax, DWORD PTR __Off$1$[ebp]

; 1359 :     }

  00125	5e		 pop	 esi

; 1378 :         _Scary->_Mysize = 0;

  00126	c7 43 04 00 00
	00 00		 mov	 DWORD PTR [ebx+4], 0

; 1359 :     }

  0012d	5b		 pop	 ebx
  0012e	8b e5		 mov	 esp, ebp
  00130	5d		 pop	 ebp
  00131	c2 04 00	 ret	 4
$LN157@erase:

; 101  :         return !(*this == _Right);

  00134	3b f7		 cmp	 esi, edi

; 1318 :         while (_First != _Last) {

  00136	74 36		 je	 SHORT $LN181@erase
  00138	8b 5d f8	 mov	 ebx, DWORD PTR _this$1$[ebp]
  0013b	0f 1f 44 00 00	 npad	 5
$LL63@erase:

; 66   :         ++*this;

  00140	8d 4d f0	 lea	 ecx, DWORD PTR __First$[ebp]
  00143	e8 00 00 00 00	 call	 ??E?$_Tree_unchecked_const_iterator@V?$_Tree_val@U?$_Tree_simple_types@U?$pair@$$CBKPAVCCtrl@@@std@@@std@@@std@@U_Iterator_base0@2@@std@@QAEAAV01@XZ ; std::_Tree_unchecked_const_iterator<std::_Tree_val<std::_Tree_simple_types<std::pair<unsigned long const ,CCtrl *> > >,std::_Iterator_base0>::operator++

; 1303 :         _Nodeptr _Erasednode = _Scary->_Extract(_Where); // node to erase

  00148	56		 push	 esi
  00149	8b cb		 mov	 ecx, ebx
  0014b	e8 00 00 00 00	 call	 ?_Extract@?$_Tree_val@U?$_Tree_simple_types@U?$pair@$$CBKPAVCCtrl@@@std@@@std@@@std@@QAEPAU?$_Tree_node@U?$pair@$$CBKPAVCCtrl@@@std@@PAX@2@V?$_Tree_unchecked_const_iterator@V?$_Tree_val@U?$_Tree_simple_types@U?$pair@$$CBKPAVCCtrl@@@std@@@std@@@std@@U_Iterator_base0@2@@2@@Z ; std::_Tree_val<std::_Tree_simple_types<std::pair<unsigned long const ,CCtrl *> > >::_Extract
; File C:\Program Files\Microsoft Visual Studio\2022\Professional\VC\Tools\MSVC\14.44.35207\include\xmemory

; 289  :         ::operator delete(_Ptr, _Bytes);

  00150	6a 18		 push	 24			; 00000018H
  00152	50		 push	 eax
  00153	e8 00 00 00 00	 call	 ??3@YAXPAXI@Z		; operator delete
; File C:\Program Files\Microsoft Visual Studio\2022\Professional\VC\Tools\MSVC\14.44.35207\include\xtree

; 101  :         return !(*this == _Right);

  00158	8b 75 f0	 mov	 esi, DWORD PTR __First$[ebp]
; File C:\Program Files\Microsoft Visual Studio\2022\Professional\VC\Tools\MSVC\14.44.35207\include\xmemory

; 289  :         ::operator delete(_Ptr, _Bytes);

  0015b	83 c4 08	 add	 esp, 8
; File C:\Program Files\Microsoft Visual Studio\2022\Professional\VC\Tools\MSVC\14.44.35207\include\xtree

; 101  :         return !(*this == _Right);

  0015e	3b f7		 cmp	 esi, edi

; 1318 :         while (_First != _Last) {

  00160	75 de		 jne	 SHORT $LL63@erase

; 1359 :     }

  00162	8b 45 08	 mov	 eax, DWORD PTR __Off$1$[ebp]
  00165	5f		 pop	 edi
  00166	5e		 pop	 esi
  00167	5b		 pop	 ebx
  00168	8b e5		 mov	 esp, ebp
  0016a	5d		 pop	 ebp
  0016b	c2 04 00	 ret	 4
$LN181@erase:
  0016e	5f		 pop	 edi
  0016f	5e		 pop	 esi
  00170	8b c1		 mov	 eax, ecx
  00172	5b		 pop	 ebx
  00173	8b e5		 mov	 esp, ebp
  00175	5d		 pop	 ebp
  00176	c2 04 00	 ret	 4
?erase@?$_Tree@V?$_Tmap_traits@KPAVCCtrl@@U?$less@K@std@@V?$allocator@U?$pair@$$CBKPAVCCtrl@@@std@@@3@$0A@@std@@@std@@QAEIABK@Z ENDP ; std::_Tree<std::_Tmap_traits<unsigned long,CCtrl *,std::less<unsigned long>,std::allocator<std::pair<unsigned long const ,CCtrl *> >,0> >::erase
_TEXT	ENDS
; Function compile flags: /Ogtp
; File C:\Program Files\Microsoft Visual Studio\2022\Professional\VC\Tools\MSVC\14.44.35207\include\xtree
;	COMDAT ??E?$_Tree_unchecked_const_iterator@V?$_Tree_val@U?$_Tree_simple_types@U?$pair@$$CBKPAVCUser@@@std@@@std@@@std@@U_Iterator_base0@2@@std@@QAEAAV01@XZ
_TEXT	SEGMENT
??E?$_Tree_unchecked_const_iterator@V?$_Tree_val@U?$_Tree_simple_types@U?$pair@$$CBKPAVCUser@@@std@@@std@@@std@@U_Iterator_base0@2@@std@@QAEAAV01@XZ PROC ; std::_Tree_unchecked_const_iterator<std::_Tree_val<std::_Tree_simple_types<std::pair<unsigned long const ,CUser *> > >,std::_Iterator_base0>::operator++, COMDAT
; _this$ = ecx

; 49   :     _Tree_unchecked_const_iterator& operator++() noexcept {

  00000	56		 push	 esi
  00001	8b f1		 mov	 esi, ecx
  00003	57		 push	 edi

; 50   :         if (_Ptr->_Right->_Isnil) { // climb looking for right subtree

  00004	8b 16		 mov	 edx, DWORD PTR [esi]
  00006	8b 7a 08	 mov	 edi, DWORD PTR [edx+8]
  00009	80 7f 0d 00	 cmp	 BYTE PTR [edi+13], 0
  0000d	74 22		 je	 SHORT $LN4@operator

; 51   :             _Nodeptr _Pnode;
; 52   :             while (!(_Pnode = _Ptr->_Parent)->_Isnil && _Ptr == _Pnode->_Right) {

  0000f	8b 42 04	 mov	 eax, DWORD PTR [edx+4]
  00012	80 78 0d 00	 cmp	 BYTE PTR [eax+13], 0
  00016	75 12		 jne	 SHORT $LN21@operator
$LL2@operator:
  00018	3b 50 08	 cmp	 edx, DWORD PTR [eax+8]
  0001b	75 0d		 jne	 SHORT $LN21@operator

; 53   :                 _Ptr = _Pnode; // ==> parent while right subtree

  0001d	89 06		 mov	 DWORD PTR [esi], eax
  0001f	8b d0		 mov	 edx, eax
  00021	8b 40 04	 mov	 eax, DWORD PTR [eax+4]
  00024	80 78 0d 00	 cmp	 BYTE PTR [eax+13], 0
  00028	74 ee		 je	 SHORT $LL2@operator
$LN21@operator:

; 54   :             }
; 55   : 
; 56   :             _Ptr = _Pnode; // ==> parent (head if end())
; 57   :         } else {
; 58   :             _Ptr = _Mytree::_Min(_Ptr->_Right); // ==> smallest of right subtree
; 59   :         }
; 60   : 
; 61   :         return *this;

  0002a	89 06		 mov	 DWORD PTR [esi], eax

; 62   :     }

  0002c	8b c6		 mov	 eax, esi
  0002e	5f		 pop	 edi
  0002f	5e		 pop	 esi
  00030	c3		 ret	 0
$LN4@operator:

; 476  :         while (!_Pnode->_Left->_Isnil) {

  00031	8b 0f		 mov	 ecx, DWORD PTR [edi]
  00033	80 79 0d 00	 cmp	 BYTE PTR [ecx+13], 0
  00037	75 13		 jne	 SHORT $LN10@operator
  00039	0f 1f 80 00 00
	00 00		 npad	 7
$LL9@operator:
  00040	8b 01		 mov	 eax, DWORD PTR [ecx]

; 477  :             _Pnode = _Pnode->_Left;

  00042	8b f9		 mov	 edi, ecx
  00044	8b c8		 mov	 ecx, eax
  00046	80 78 0d 00	 cmp	 BYTE PTR [eax+13], 0
  0004a	74 f4		 je	 SHORT $LL9@operator
$LN10@operator:

; 54   :             }
; 55   : 
; 56   :             _Ptr = _Pnode; // ==> parent (head if end())
; 57   :         } else {
; 58   :             _Ptr = _Mytree::_Min(_Ptr->_Right); // ==> smallest of right subtree
; 59   :         }
; 60   : 
; 61   :         return *this;

  0004c	89 3e		 mov	 DWORD PTR [esi], edi

; 62   :     }

  0004e	8b c6		 mov	 eax, esi
  00050	5f		 pop	 edi
  00051	5e		 pop	 esi
  00052	c3		 ret	 0
??E?$_Tree_unchecked_const_iterator@V?$_Tree_val@U?$_Tree_simple_types@U?$pair@$$CBKPAVCUser@@@std@@@std@@@std@@U_Iterator_base0@2@@std@@QAEAAV01@XZ ENDP ; std::_Tree_unchecked_const_iterator<std::_Tree_val<std::_Tree_simple_types<std::pair<unsigned long const ,CUser *> > >,std::_Iterator_base0>::operator++
_TEXT	ENDS
; Function compile flags: /Ogtp
;	COMDAT ??_GCCtrl@@UAEPAXI@Z
_TEXT	SEGMENT
___flags$ = 8						; size = 4
??_GCCtrl@@UAEPAXI@Z PROC				; CCtrl::`scalar deleting destructor', COMDAT
; _this$ = ecx
  00000	55		 push	 ebp
  00001	8b ec		 mov	 ebp, esp
  00003	56		 push	 esi
  00004	8b f1		 mov	 esi, ecx
  00006	e8 00 00 00 00	 call	 ??1CCtrl@@UAE@XZ	; CCtrl::~CCtrl
  0000b	f6 45 08 01	 test	 BYTE PTR ___flags$[ebp], 1
  0000f	74 0e		 je	 SHORT $LN5@scalar
  00011	68 30 02 00 00	 push	 560			; 00000230H
  00016	56		 push	 esi
  00017	e8 00 00 00 00	 call	 ??3@YAXPAXI@Z		; operator delete
  0001c	83 c4 08	 add	 esp, 8
$LN5@scalar:
  0001f	8b c6		 mov	 eax, esi
  00021	5e		 pop	 esi
  00022	5d		 pop	 ebp
  00023	c2 04 00	 ret	 4
??_GCCtrl@@UAEPAXI@Z ENDP				; CCtrl::`scalar deleting destructor'
_TEXT	ENDS
; Function compile flags: /Ogtp
; File C:\IAGOS\server\v18\Source\Source\_Common\ctrl.cpp
; File C:\IAGOS\server\v18\Source\Source\_Common\CtrlObjs.h
; File C:\IAGOS\server\v18\Source\Source\_Common\Obj.h
; File C:\IAGOS\server\v18\Source\Source\_Common\CtrlObjs.h
; File C:\IAGOS\server\v18\Source\Source\_Common\ctrl.cpp
; File C:\IAGOS\server\v18\Source\Source\_Common\Obj.h
; File C:\IAGOS\server\v18\Source\Source\_Common\ctrl.cpp
; File C:\IAGOS\server\v18\Source\Source\_Common\Obj.h
; File C:\IAGOS\server\v18\Source\Source\_Common\ctrl.cpp
; File C:\IAGOS\server\v18\Source\Source\_Common\Obj.h
; File C:\IAGOS\server\v18\Source\Source\_Common\ctrl.cpp
; File C:\IAGOS\server\v18\Source\Source\_Common\Obj.h
; File C:\IAGOS\server\v18\Source\Source\_Common\ctrl.cpp
; File C:\IAGOS\server\v18\Source\Source\_Common\xUtil.h
; File C:\IAGOS\server\v18\Source\Source\_Common\ctrl.cpp
;	COMDAT ?DoApplySkillEx@CCtrl@@AAEHPAV1@PAUItemProp@@PAUAddSkillProp@@_NHHH@Z
_TEXT	SEGMENT
_nRet$1$ = -64						; size = 4
$T2 = -60						; size = 4
tv827 = -60						; size = 4
_pObj$1$ = -56						; size = 4
_pAddSkillProp$GSCopy$1$ = -52				; size = 4
_pTarget$GSCopy$1$ = -48				; size = 4
$T3 = -44						; size = 4
_i$1$ = -44						; size = 4
$T4 = -40						; size = 12
$T5 = -28						; size = 12
__$ArrayPad$ = -16					; size = 4
__$EHRec$ = -12						; size = 12
_pTarget$ = 8						; size = 4
_pSkillProp$ = 12					; size = 4
_pAddSkillProp$ = 16					; size = 4
_bIgnoreProb$ = 20					; size = 1
_nParam$ = 24						; size = 4
_bOnlyDmg$ = 28						; size = 4
_bControl$ = 32						; size = 4
?DoApplySkillEx@CCtrl@@AAEHPAV1@PAUItemProp@@PAUAddSkillProp@@_NHHH@Z PROC ; CCtrl::DoApplySkillEx, COMDAT
; _this$ = ecx

; 1582 : {

  00000	55		 push	 ebp
  00001	8b ec		 mov	 ebp, esp
  00003	6a ff		 push	 -1
  00005	68 00 00 00 00	 push	 __ehhandler$?DoApplySkillEx@CCtrl@@AAEHPAV1@PAUItemProp@@PAUAddSkillProp@@_NHHH@Z
  0000a	64 a1 00 00 00
	00		 mov	 eax, DWORD PTR fs:0
  00010	50		 push	 eax
  00011	83 ec 34	 sub	 esp, 52			; 00000034H
  00014	a1 00 00 00 00	 mov	 eax, DWORD PTR ___security_cookie
  00019	33 c5		 xor	 eax, ebp
  0001b	89 45 f0	 mov	 DWORD PTR __$ArrayPad$[ebp], eax
  0001e	56		 push	 esi
  0001f	57		 push	 edi
  00020	50		 push	 eax
  00021	8d 45 f4	 lea	 eax, DWORD PTR __$EHRec$[ebp]
  00024	64 a3 00 00 00
	00		 mov	 DWORD PTR fs:0, eax
  0002a	8b f1		 mov	 esi, ecx
  0002c	8b 7d 0c	 mov	 edi, DWORD PTR _pSkillProp$[ebp]
  0002f	8b 55 08	 mov	 edx, DWORD PTR _pTarget$[ebp]
  00032	8b 4d 10	 mov	 ecx, DWORD PTR _pAddSkillProp$[ebp]
  00035	89 55 d0	 mov	 DWORD PTR _pTarget$GSCopy$1$[ebp], edx

; 1583 : 	int		nRet = 1;
; 1584 : 	CCtrl	*pSrc = this;
; 1585 : 
; 1586 : 	switch( pSkillProp->dwSpellRegion )

  00038	8b 87 cc 01 00
	00		 mov	 eax, DWORD PTR [edi+460]
  0003e	48		 dec	 eax
  0003f	89 4d cc	 mov	 DWORD PTR _pAddSkillProp$GSCopy$1$[ebp], ecx
  00042	c7 45 c0 01 00
	00 00		 mov	 DWORD PTR _nRet$1$[ebp], 1
  00049	83 f8 06	 cmp	 eax, 6
  0004c	0f 87 20 02 00
	00		 ja	 $LN25@DoApplySki
  00052	ff 24 85 00 00
	00 00		 jmp	 DWORD PTR $LN74@DoApplySki[eax*4]
$LN7@DoApplySki:

; 1587 : 	{
; 1588 : 	case SRO_AROUND:	// ´ë»ó 0% ÁÖŔ§ 100%
; 1589 : 	case SRO_REGION:	// ´ë»ó 100% ÁÖŔ§ 100%
; 1590 : 		{
; 1591 : #if __VER >= 10 //  __LEGEND
; 1592 : 			if( pSkillProp->dwExeTarget != EXT_TROUPE && pSkillProp->dwExeTarget != EXT_TROUPEWITH )	// ±Ř´Ü´ë»óŔĚ ľĆ´Ň¶§.

  00059	8b 87 c4 01 00
	00		 mov	 eax, DWORD PTR [edi+452]
  0005f	83 f8 0d	 cmp	 eax, 13			; 0000000dH
  00062	0f 84 9f 00 00
	00		 je	 $LN9@DoApplySki
  00068	83 f8 14	 cmp	 eax, 20			; 00000014H
  0006b	0f 84 96 00 00
	00		 je	 $LN9@DoApplySki

; 1593 : #else // __VER >= 10 //  __LEGEND
; 1594 : 			if( pSkillProp->dwExeTarget != EXT_TROUPE )	// ±Ř´Ü´ë»óŔĚ ľĆ´Ň¶§.
; 1595 : #endif // __VER >= 10 // __LEGEND
; 1596 : 			{
; 1597 : 				int nApplyType = 0;
; 1598 : 				nApplyType = pSrc->TargetSelecter( pTarget );

  00071	52		 push	 edx
  00072	8b ce		 mov	 ecx, esi
  00074	e8 00 00 00 00	 call	 ?TargetSelecter@CCtrl@@QAEHPAV1@@Z ; CCtrl::TargetSelecter

; 1599 : #if __VER >= 8 // __S8_PK
; 1600 : 				pTarget->ApplySkillAround( this, nApplyType, pSkillProp, pAddSkillProp, bIgnoreProb, bOnlyDmg, 0.0f, bControl );

  00079	ff 75 20	 push	 DWORD PTR _bControl$[ebp]
  0007c	51		 push	 ecx
  0007d	8b 4d d0	 mov	 ecx, DWORD PTR _pTarget$GSCopy$1$[ebp]
  00080	c7 04 24 00 00
	00 00		 mov	 DWORD PTR [esp], 0
  00087	ff 75 1c	 push	 DWORD PTR _bOnlyDmg$[ebp]
  0008a	ff 75 14	 push	 DWORD PTR _bIgnoreProb$[ebp]
  0008d	ff 75 cc	 push	 DWORD PTR _pAddSkillProp$GSCopy$1$[ebp]
  00090	57		 push	 edi
  00091	50		 push	 eax
  00092	56		 push	 esi
  00093	e8 00 00 00 00	 call	 ?ApplySkillAround@CCtrl@@QAEXPAV1@HPAUItemProp@@PAUAddSkillProp@@_NHMH@Z ; CCtrl::ApplySkillAround
$LN77@DoApplySki:

; 1641 : 					}
; 1642 : 				}
; 1643 : 			}
; 1644 : #ifdef __WORLDSERVER
; 1645 : 			// chipi - ąüŔ§ ctrl »ýĽş ˝şĹł·Î ŔÎÇŘ µŕľó Áľ·á ČÄ Ä«żŔµÇ´Â Çö»ó ĽöÁ¤
; 1646 : 			if( pSkillProp->tmContinuousPain != NULL_ID && !(((CMover*)pTarget)->IsPlayer() && ((CMover*)pTarget)->m_nDead) )	// ÁöĽÓµĄąĚÁö ÇüĹÂłÄ?

  00098	8b 55 d0	 mov	 edx, DWORD PTR _pTarget$GSCopy$1$[ebp]
$LN19@DoApplySki:
  0009b	83 bf 20 01 00
	00 ff		 cmp	 DWORD PTR [edi+288], -1
  000a2	0f 84 e6 01 00
	00		 je	 $LN27@DoApplySki
  000a8	83 ba 30 02 00
	00 00		 cmp	 DWORD PTR [edx+560], 0
  000af	74 0d		 je	 SHORT $LN21@DoApplySki
  000b1	83 ba ac 0d 00
	00 00		 cmp	 DWORD PTR [edx+3500], 0
  000b8	0f 85 d0 01 00
	00		 jne	 $LN27@DoApplySki
$LN21@DoApplySki:

; 1649 : 				CContDamageCtrl *pDmgCtrl = new CContDamageCtrl;	// ÁöĽÓµĄąĚÁö¸¦ ÁÖ´Â °ˇ»óżŔşęÁ§Ć® »ýĽş - ¸Ţ¸đ¸®Ç®¸µ Ăł¸® ÇŇ°Í

  000be	68 50 02 00 00	 push	 592			; 00000250H
  000c3	e8 00 00 00 00	 call	 ??2@YAPAXI@Z		; operator new
  000c8	83 c4 04	 add	 esp, 4
  000cb	89 45 d4	 mov	 DWORD PTR $T3[ebp], eax
  000ce	89 45 c4	 mov	 DWORD PTR $T2[ebp], eax
  000d1	c7 45 fc 00 00
	00 00		 mov	 DWORD PTR __$EHRec$[ebp+8], 0
  000d8	85 c0		 test	 eax, eax
  000da	0f 84 a6 00 00
	00		 je	 $LN46@DoApplySki
; File C:\IAGOS\server\v18\Source\Source\_Common\CtrlObjs.h

; 31   : 	{ 

  000e0	8b c8		 mov	 ecx, eax
  000e2	e8 00 00 00 00	 call	 ??0CCtrl@@QAE@XZ	; CCtrl::CCtrl
  000e7	8b 45 d4	 mov	 eax, DWORD PTR $T3[ebp]

; 32   : 	#ifdef __WORLDSERVER
; 33   : 		SetVirtual( TRUE ); 
; 34   : 	#endif
; 35   : 		Init(); 

  000ea	8b c8		 mov	 ecx, eax
  000ec	c6 45 fc 01	 mov	 BYTE PTR __$EHRec$[ebp+8], 1
; File C:\IAGOS\server\v18\Source\Source\_Common\Obj.h

; 273  : 		m_dwFlags |= dwValue;

  000f0	83 48 04 04	 or	 DWORD PTR [eax+4], 4
; File C:\IAGOS\server\v18\Source\Source\_Common\CtrlObjs.h

; 31   : 	{ 

  000f4	c7 00 00 00 00
	00		 mov	 DWORD PTR [eax], OFFSET ??_7CContDamageCtrl@@6B@

; 32   : 	#ifdef __WORLDSERVER
; 33   : 		SetVirtual( TRUE ); 
; 34   : 	#endif
; 35   : 		Init(); 

  000fa	e8 00 00 00 00	 call	 ?Init@CContDamageCtrl@@AAEXXZ ; CContDamageCtrl::Init
; File C:\IAGOS\server\v18\Source\Source\_Common\ctrl.cpp

; 1649 : 				CContDamageCtrl *pDmgCtrl = new CContDamageCtrl;	// ÁöĽÓµĄąĚÁö¸¦ ÁÖ´Â °ˇ»óżŔşęÁ§Ć® »ýĽş - ¸Ţ¸đ¸®Ç®¸µ Ăł¸® ÇŇ°Í

  000ff	8b 4d d4	 mov	 ecx, DWORD PTR $T3[ebp]
  00102	e9 84 00 00 00	 jmp	 $LN47@DoApplySki
$LN9@DoApplySki:

; 1607 : 			{
; 1608 : 				// ±Ř´Ü ´ë»ó ąüŔ§ Čż°ú.
; 1609 : 				if( GetType() == OT_MOVER )

  00107	83 be 70 01 00
	00 05		 cmp	 DWORD PTR [esi+368], 5
  0010e	75 8b		 jne	 SHORT $LN19@DoApplySki

; 1601 : #else // __VER >= 8 // __S8_PK
; 1602 : 				pTarget->ApplySkillAround( this, nApplyType, pSkillProp, pAddSkillProp, bIgnoreProb, bOnlyDmg );
; 1603 : #endif // __VER >= 8 // __S8_PK
; 1604 : 			}
; 1605 : #if __VER >= 10 //  __LEGEND
; 1606 : 			else if( pSkillProp->dwExeTarget == EXT_TROUPEWITH )	// ±Ř´Ü´ë»óŔĚ ľĆ´Ň¶§

  00110	83 f8 14	 cmp	 eax, 20			; 00000014H
  00113	75 45		 jne	 SHORT $LN11@DoApplySki

; 1610 : 				{
; 1611 : 					if( ((CMover *)this)->IsPlayer() )

  00115	83 be 30 02 00
	00 00		 cmp	 DWORD PTR [esi+560], 0
  0011c	0f 84 79 ff ff
	ff		 je	 $LN19@DoApplySki

; 1612 : 					{
; 1613 : 						if( pAddSkillProp )

  00122	85 c9		 test	 ecx, ecx
  00124	0f 84 71 ff ff
	ff		 je	 $LN19@DoApplySki

; 1614 : 						{
; 1615 : #ifndef __3RD_LEGEND16
; 1616 : 							int ntmpProb	= pAddSkillProp->nProbability;
; 1617 : 							if( (int)( xRandom(100) ) < ntmpProb )
; 1618 : 							{
; 1619 : #endif // __3RD_LEGEND16
; 1620 : 								if( ApplySkillAroundTroupe( ((CMover *)this)->m_idparty, pSkillProp, pAddSkillProp, TRUE ) == FALSE )// ¸âąö °˘°˘żˇ°Ô Čż°ú Ŕűżë.

  0012a	6a 01		 push	 1
  0012c	51		 push	 ecx
  0012d	57		 push	 edi
  0012e	ff b6 10 07 00
	00		 push	 DWORD PTR [esi+1808]
  00134	8b ce		 mov	 ecx, esi
  00136	e8 00 00 00 00	 call	 ?ApplySkillAroundTroupe@CCtrl@@QAEHKPAUItemProp@@PAUAddSkillProp@@_N@Z ; CCtrl::ApplySkillAroundTroupe
  0013b	85 c0		 test	 eax, eax
  0013d	0f 85 55 ff ff
	ff		 jne	 $LN77@DoApplySki

; 1621 : 								{
; 1622 : 									pSrc->ApplySkill( this, pSkillProp, pAddSkillProp, TRUE );	

  00143	6a 01		 push	 1
  00145	50		 push	 eax
  00146	50		 push	 eax
  00147	6a 01		 push	 1
  00149	ff 75 cc	 push	 DWORD PTR _pAddSkillProp$GSCopy$1$[ebp]
  0014c	8b ce		 mov	 ecx, esi
  0014e	57		 push	 edi
  0014f	56		 push	 esi
  00150	e8 00 00 00 00	 call	 ?ApplySkill@CCtrl@@QAEXPAV1@PAUItemProp@@PAUAddSkillProp@@_NHHH@Z ; CCtrl::ApplySkill

; 1623 : 								}
; 1624 : #ifndef __3RD_LEGEND16
; 1625 : 							}
; 1626 : #endif // __3RD_LEGEND16
; 1627 : 						}
; 1628 : 					}
; 1629 : 				}
; 1630 : 			}			

  00155	e9 3e ff ff ff	 jmp	 $LN77@DoApplySki
$LN11@DoApplySki:

; 1631 : #endif // __VER >= 10 // __LEGEND
; 1632 : 			else
; 1633 : 			{
; 1634 : 				// ±Ř´Ü ´ë»ó ąüŔ§ Čż°ú.
; 1635 : 				if( GetType() == OT_MOVER )
; 1636 : 				{
; 1637 : 					if( ((CMover *)this)->IsPlayer() )

  0015a	83 be 30 02 00
	00 00		 cmp	 DWORD PTR [esi+560], 0
  00161	0f 84 34 ff ff
	ff		 je	 $LN19@DoApplySki

; 1638 : 					{
; 1639 : 						if( ApplySkillAroundTroupe( ((CMover *)this)->m_idparty, pSkillProp, pAddSkillProp, bIgnoreProb ) == FALSE )

  00167	ff 75 14	 push	 DWORD PTR _bIgnoreProb$[ebp]
  0016a	51		 push	 ecx
  0016b	57		 push	 edi
  0016c	ff b6 10 07 00
	00		 push	 DWORD PTR [esi+1808]
  00172	8b ce		 mov	 ecx, esi
  00174	e8 00 00 00 00	 call	 ?ApplySkillAroundTroupe@CCtrl@@QAEHKPAUItemProp@@PAUAddSkillProp@@_N@Z ; CCtrl::ApplySkillAroundTroupe
  00179	85 c0		 test	 eax, eax
  0017b	0f 85 17 ff ff
	ff		 jne	 $LN77@DoApplySki

; 1640 : 							return 0;  // »çżë˝ÇĆĐ.

  00181	e9 f1 02 00 00	 jmp	 $LN1@DoApplySki
$LN46@DoApplySki:

; 1649 : 				CContDamageCtrl *pDmgCtrl = new CContDamageCtrl;	// ÁöĽÓµĄąĚÁö¸¦ ÁÖ´Â °ˇ»óżŔşęÁ§Ć® »ýĽş - ¸Ţ¸đ¸®Ç®¸µ Ăł¸® ÇŇ°Í

  00186	33 c9		 xor	 ecx, ecx
  00188	89 4d d4	 mov	 DWORD PTR $T3[ebp], ecx
$LN47@DoApplySki:
  0018b	c7 45 fc ff ff
	ff ff		 mov	 DWORD PTR __$EHRec$[ebp+8], -1

; 1650 : 				if( pDmgCtrl )

  00192	85 c9		 test	 ecx, ecx
  00194	0f 84 f4 00 00
	00		 je	 $LN27@DoApplySki

; 1651 : 				{
; 1652 : 					pDmgCtrl->m_pSkillProp = pSkillProp;
; 1653 : 					pDmgCtrl->m_pAddSkillProp = pAddSkillProp;
; 1654 : 					pDmgCtrl->m_idSrc = pSrc->GetId();
; 1655 : 					pDmgCtrl->m_idTarget = pTarget->GetId();

  0019a	8b 55 d0	 mov	 edx, DWORD PTR _pTarget$GSCopy$1$[ebp]
  0019d	8b 45 cc	 mov	 eax, DWORD PTR _pAddSkillProp$GSCopy$1$[ebp]
  001a0	89 81 3c 02 00
	00		 mov	 DWORD PTR [ecx+572], eax
  001a6	89 b9 38 02 00
	00		 mov	 DWORD PTR [ecx+568], edi
  001ac	8b 86 bc 01 00
	00		 mov	 eax, DWORD PTR [esi+444]
  001b2	89 81 40 02 00
	00		 mov	 DWORD PTR [ecx+576], eax
  001b8	8b 82 bc 01 00
	00		 mov	 eax, DWORD PTR [edx+444]
  001be	89 81 44 02 00
	00		 mov	 DWORD PTR [ecx+580], eax
; File C:\IAGOS\server\v18\Source\Source\_Common\Obj.h

; 215  : 	D3DXVECTOR3		GetPos()	{ return m_vPos; }

  001c4	8b 82 68 01 00
	00		 mov	 eax, DWORD PTR [edx+360]
  001ca	f3 0f 7e 82 60
	01 00 00	 movq	 xmm0, QWORD PTR [edx+352]
  001d2	89 45 ec	 mov	 DWORD PTR $T5[ebp+8], eax
; File C:\IAGOS\server\v18\Source\Source\_Common\ctrl.cpp

; 1656 : 					pDmgCtrl->SetPos( pTarget->GetPos() );		// Áß˝ÉŔĚ µÇ´Â Ĺ¸°ŮŔÇ ÁÂÇĄ·Î...

  001d5	8d 45 e4	 lea	 eax, DWORD PTR $T5[ebp]
  001d8	50		 push	 eax
; File C:\IAGOS\server\v18\Source\Source\_Common\Obj.h

; 215  : 	D3DXVECTOR3		GetPos()	{ return m_vPos; }

  001d9	66 0f d6 45 e4	 movq	 QWORD PTR $T5[ebp], xmm0
; File C:\IAGOS\server\v18\Source\Source\_Common\ctrl.cpp

; 1656 : 					pDmgCtrl->SetPos( pTarget->GetPos() );		// Áß˝ÉŔĚ µÇ´Â Ĺ¸°ŮŔÇ ÁÂÇĄ·Î...

  001de	e8 00 00 00 00	 call	 ?SetPos@CObj@@QAEXABUD3DXVECTOR3@@@Z ; CObj::SetPos

; 1657 : #if __VER >= 8 // __S8_PK
; 1658 : 					pDmgCtrl->m_bControl = bControl;

  001e3	8b 45 d4	 mov	 eax, DWORD PTR $T3[ebp]
  001e6	8b 4d 20	 mov	 ecx, DWORD PTR _bControl$[ebp]

; 1659 : #endif // __VER >= 8 // __S8_PK
; 1660 : 					// chipi - ąüŔ§ ctrl »ýĽş ˝şĹł·Î ŔÎÇŘ µŕľó Áľ·á ČÄ Ä«żŔµÇ´Â Çö»ó ĽöÁ¤
; 1661 : 					if( ((CMover*)pSrc)->IsPVPTarget( ((CMover*)pTarget) ) )

  001e9	ff 75 d0	 push	 DWORD PTR _pTarget$GSCopy$1$[ebp]
  001ec	89 88 48 02 00
	00		 mov	 DWORD PTR [eax+584], ecx
  001f2	8b ce		 mov	 ecx, esi
  001f4	e8 00 00 00 00	 call	 ?IsPVPTarget@CMover@@QAEHPAV1@@Z ; CMover::IsPVPTarget
  001f9	85 c0		 test	 eax, eax
  001fb	8b 45 d4	 mov	 eax, DWORD PTR $T3[ebp]
  001fe	74 0a		 je	 SHORT $LN23@DoApplySki

; 1662 : 						pDmgCtrl->m_bDuelTarget = TRUE;

  00200	c7 80 4c 02 00
	00 01 00 00 00	 mov	 DWORD PTR [eax+588], 1
$LN23@DoApplySki:

; 1663 : 
; 1664 : 					GetWorld()->ADDOBJ( pDmgCtrl, FALSE, GetLayer() );

  0020a	ff b6 b8 01 00
	00		 push	 DWORD PTR [esi+440]
  00210	8b 8e 6c 01 00
	00		 mov	 ecx, DWORD PTR [esi+364]
  00216	6a 00		 push	 0
  00218	50		 push	 eax
  00219	e8 00 00 00 00	 call	 ?AddObj@CWorld@@QAEHPAVCObj@@HH@Z ; CWorld::AddObj

; 1665 : 				}
; 1666 : 			}
; 1667 : #endif
; 1668 : 		}
; 1669 : 		break;

  0021e	eb 6e		 jmp	 SHORT $LN27@DoApplySki
$LN24@DoApplySki:

; 1670 : 	case SRO_LINE:		// this¸¦ Áß˝ÉŔ¸·Î m_fAngle¶óŔÎ.
; 1671 : 		{
; 1672 : 			int nApplyType = 0;
; 1673 : 			nApplyType = pSrc->TargetSelecter( pTarget );

  00220	52		 push	 edx
  00221	8b ce		 mov	 ecx, esi
  00223	e8 00 00 00 00	 call	 ?TargetSelecter@CCtrl@@QAEHPAV1@@Z ; CCtrl::TargetSelecter

; 1674 : #if __VER >= 8 // __S8_PK
; 1675 : 			ApplySkillLine( nApplyType, pSkillProp, pAddSkillProp, 2.5f, 2.5f, (float)pAddSkillProp->dwSkillRange, bIgnoreProb, bControl );

  00228	8b 55 cc	 mov	 edx, DWORD PTR _pAddSkillProp$GSCopy$1$[ebp]
  0022b	8b c8		 mov	 ecx, eax
  0022d	ff 75 20	 push	 DWORD PTR _bControl$[ebp]
  00230	ff 75 14	 push	 DWORD PTR _bIgnoreProb$[ebp]
  00233	8b 42 64	 mov	 eax, DWORD PTR [edx+100]
  00236	83 ec 0c	 sub	 esp, 12			; 0000000cH
  00239	66 0f 6e c0	 movd	 xmm0, eax
  0023d	f3 0f e6 c0	 cvtdq2pd xmm0, xmm0
  00241	c1 e8 1f	 shr	 eax, 31			; 0000001fH
  00244	f2 0f 58 04 c5
	00 00 00 00	 addsd	 xmm0, QWORD PTR __xmm@41f00000000000000000000000000000[eax*8]
  0024d	66 0f 5a c0	 cvtpd2ps xmm0, xmm0
  00251	f3 0f 11 44 24
	08		 movss	 DWORD PTR [esp+8], xmm0
  00257	c7 44 24 04 00
	00 20 40	 mov	 DWORD PTR [esp+4], 1075838976 ; 40200000H
  0025f	c7 04 24 00 00
	20 40		 mov	 DWORD PTR [esp], 1075838976 ; 40200000H
  00266	52		 push	 edx
  00267	57		 push	 edi
  00268	51		 push	 ecx
  00269	8b ce		 mov	 ecx, esi
  0026b	e8 00 00 00 00	 call	 ?ApplySkillLine@CCtrl@@QAEXHPAUItemProp@@PAUAddSkillProp@@MMM_NH@Z ; CCtrl::ApplySkillLine

; 1676 : #else // __VER >= 8 // __S8_PK
; 1677 : 			ApplySkillLine( nApplyType, pSkillProp, pAddSkillProp, 2.5f, 2.5f, (float)pAddSkillProp->dwSkillRange, bIgnoreProb );
; 1678 : #endif // __VER >= 8 // __S8_PK
; 1679 : 		}
; 1680 : 		break;

  00270	eb 1c		 jmp	 SHORT $LN27@DoApplySki
$LN25@DoApplySki:

; 1681 : 	case SRO_DIRECT:	// ´ë»ó ÇĎłŞżˇ¸¸ Ŕűżë
; 1682 : 	default:
; 1683 : 		if( pSkillProp->dwID != SI_PSY_PSY_PSYCHICWALL )		// »çŔĚĹ±żůŔş Ăł¸® ľČÇÔ.

  00272	81 3f a3 00 00
	00		 cmp	 DWORD PTR [edi], 163	; 000000a3H
  00278	74 1c		 je	 SHORT $LN72@DoApplySki

; 1684 : 			pTarget->ApplySkill( this, pSkillProp, pAddSkillProp, bIgnoreProb, nParam );

  0027a	6a 01		 push	 1
  0027c	6a 00		 push	 0
  0027e	ff 75 18	 push	 DWORD PTR _nParam$[ebp]
  00281	ff 75 14	 push	 DWORD PTR _bIgnoreProb$[ebp]
  00284	51		 push	 ecx
  00285	57		 push	 edi
  00286	56		 push	 esi
  00287	8b ca		 mov	 ecx, edx
  00289	e8 00 00 00 00	 call	 ?ApplySkill@CCtrl@@QAEXPAV1@PAUItemProp@@PAUAddSkillProp@@_NHHH@Z ; CCtrl::ApplySkill
$LN27@DoApplySki:

; 1685 : 		break;
; 1686 : 	} 
; 1687 : 
; 1688 : #ifdef __WORLDSERVER		
; 1689 : 	// ˝ÎŔĚĹ±żůŔÇ ş®Ŕ» ¸¸µéľîłż.
; 1690 : 	if( pSkillProp->dwID == SI_PSY_PSY_PSYCHICWALL )

  0028e	81 3f a3 00 00
	00		 cmp	 DWORD PTR [edi], 163	; 000000a3H
  00294	75 5e		 jne	 SHORT $LN33@DoApplySki
$LN72@DoApplySki:

; 1691 : 	{
; 1692 : 		BOOL bCreate = FALSE;
; 1693 : 		int i = 0;
; 1694 : 		if( GetType() == OT_MOVER )

  00296	83 be 70 01 00
	00 05		 cmp	 DWORD PTR [esi+368], 5
  0029d	75 4e		 jne	 SHORT $LN73@DoApplySki

; 1695 : 		{
; 1696 : 			if( ((CMover *)this)->IsPlayer() )

  0029f	83 be 30 02 00
	00 00		 cmp	 DWORD PTR [esi+560], 0
  002a6	74 45		 je	 SHORT $LN73@DoApplySki

; 1697 : 			{
; 1698 : 				CUser *pUser = (CUser *)this;
; 1699 : 				for( i = 0; i < 2; i ++ )		// ÇŃąřżˇ 2°łŔĚ»ó »ýĽşµÇÁö ľĘ°ÔÇÔ.

  002a8	33 c0		 xor	 eax, eax
  002aa	8d 8e 80 8e 00
	00		 lea	 ecx, DWORD PTR [esi+36480]
  002b0	89 45 d4	 mov	 DWORD PTR _i$1$[ebp], eax
  002b3	89 4d c4	 mov	 DWORD PTR tv827[ebp], ecx
$LL6@DoApplySki:

; 1700 : 				{
; 1701 : 					if( pUser->m_pWall[i] == NULL )

  002b6	83 39 00	 cmp	 DWORD PTR [ecx], 0
  002b9	75 23		 jne	 SHORT $LN4@DoApplySki

; 1702 : 					{
; 1703 : 						CObj *pObj = CreateObj( D3DDEVICE, OT_CTRL, CI_PSYCHICWALL );		// ş® ÄÁĆ®·Ń »ýĽş.

  002bb	6a 01		 push	 1
  002bd	6a 1d		 push	 29			; 0000001dH
  002bf	6a 02		 push	 2
  002c1	6a 00		 push	 0
  002c3	e8 00 00 00 00	 call	 ?CreateObj@@YAPAVCObj@@PAUIDirect3DDevice9@@KKH@Z ; CreateObj
  002c8	8b c8		 mov	 ecx, eax
  002ca	83 c4 10	 add	 esp, 16			; 00000010H
  002cd	89 4d c8	 mov	 DWORD PTR _pObj$1$[ebp], ecx

; 1704 : 						if( pObj )

  002d0	85 c9		 test	 ecx, ecx
  002d2	0f 85 81 00 00
	00		 jne	 $LN67@DoApplySki
  002d8	8b 45 d4	 mov	 eax, DWORD PTR _i$1$[ebp]
  002db	8b 4d c4	 mov	 ecx, DWORD PTR tv827[ebp]
$LN4@DoApplySki:

; 1697 : 			{
; 1698 : 				CUser *pUser = (CUser *)this;
; 1699 : 				for( i = 0; i < 2; i ++ )		// ÇŃąřżˇ 2°łŔĚ»ó »ýĽşµÇÁö ľĘ°ÔÇÔ.

  002de	40		 inc	 eax
  002df	83 c1 04	 add	 ecx, 4
  002e2	89 45 d4	 mov	 DWORD PTR _i$1$[ebp], eax
  002e5	89 4d c4	 mov	 DWORD PTR tv827[ebp], ecx
  002e8	83 f8 02	 cmp	 eax, 2
  002eb	7c c9		 jl	 SHORT $LL6@DoApplySki
$LN73@DoApplySki:

; 1715 : 							bCreate = TRUE;
; 1716 : 							break;
; 1717 : 						}
; 1718 : 					}
; 1719 : 				}
; 1720 : 			}
; 1721 : 		}
; 1722 : 		if( bCreate == FALSE )	// »ýĽş¸řÇßŔ¸¸é
; 1723 : 			nRet = 0;			// ˝ÇĆĐ ¸®ĹĎ

  002ed	c7 45 c0 00 00
	00 00		 mov	 DWORD PTR _nRet$1$[ebp], 0
$LN33@DoApplySki:

; 1724 : 
; 1725 : 	}
; 1726 : 
; 1727 : 
; 1728 : 	if( pSrc->GetType() == OT_MOVER )

  002f4	83 be 70 01 00
	00 05		 cmp	 DWORD PTR [esi+368], 5
  002fb	0f 85 1d 01 00
	00		 jne	 $LN41@DoApplySki

; 1729 : 	{
; 1730 : 		// ¸đµç ˝şĹł»çżë˝Ă ´ŮĹ©ŔĎ·çÁŻ»óĹÂŔĚ¸é ÇŘÁ¦ÇŃ´Ů!!~
; 1731 : 		if( pSkillProp->dwID != SI_ACR_SUP_DARKILLUSION )

  00301	81 3f c1 00 00
	00		 cmp	 DWORD PTR [edi], 193	; 000000c1H
  00307	74 2b		 je	 SHORT $LN36@DoApplySki

; 1732 : 		{
; 1733 : 			if( ((CMover *)pSrc)->HasBuff( BUFF_SKILL, SI_ACR_SUP_DARKILLUSION ) )

  00309	68 c1 00 00 00	 push	 193			; 000000c1H
  0030e	6a 01		 push	 1
  00310	8b ce		 mov	 ecx, esi
  00312	e8 00 00 00 00	 call	 ?HasBuff@CMover@@QAEHGG@Z ; CMover::HasBuff
  00317	85 c0		 test	 eax, eax
  00319	74 19		 je	 SHORT $LN36@DoApplySki

; 1734 : 			{
; 1735 : 				((CMover *)pSrc)->SetDarkCover( FALSE );

  0031b	6a 00		 push	 0
  0031d	6a 00		 push	 0
  0031f	8b ce		 mov	 ecx, esi
  00321	e8 00 00 00 00	 call	 ?SetDarkCover@CMover@@QAEHHK@Z ; CMover::SetDarkCover

; 1736 : 				((CMover *)pSrc)->RemoveBuff( BUFF_SKILL, SI_ACR_SUP_DARKILLUSION );		// ÇŘÁ¦.

  00326	68 c1 00 00 00	 push	 193			; 000000c1H
  0032b	6a 01		 push	 1
  0032d	8b ce		 mov	 ecx, esi
  0032f	e8 00 00 00 00	 call	 ?RemoveBuff@CMover@@QAEXGG@Z ; CMover::RemoveBuff
$LN36@DoApplySki:

; 1737 : 			}
; 1738 : 		}
; 1739 : 
; 1740 : 		// Á¦˝şĹÍ ąöÇÁ´Â ĆŻÁ¤ ąöÇÁ°ˇ ŔÖŔ¸¸é ÇŘÁ¦ÇĎ°í °ÉľîľßÇÔ
; 1741 : 		if( pSkillProp->dwID == SI_JST_SUP_POISON )

  00334	8b 07		 mov	 eax, DWORD PTR [edi]
  00336	3d d0 00 00 00	 cmp	 eax, 208		; 000000d0H
  0033b	0f 85 9e 00 00
	00		 jne	 $LN37@DoApplySki

; 1742 : 		{
; 1743 : 			((CMover *)pSrc)->RemoveBuff( BUFF_SKILL, SI_JST_SUP_BLEEDING );

  00341	68 d1 00 00 00	 push	 209			; 000000d1H
  00346	6a 01		 push	 1
  00348	8b ce		 mov	 ecx, esi
  0034a	e8 00 00 00 00	 call	 ?RemoveBuff@CMover@@QAEXGG@Z ; CMover::RemoveBuff

; 1744 : 			((CMover *)pSrc)->RemoveBuff( BUFF_SKILL, SI_JST_SUP_ABSORB );

  0034f	68 d2 00 00 00	 push	 210			; 000000d2H

; 1745 : 		}

  00354	e9 bc 00 00 00	 jmp	 $LN79@DoApplySki
$LN67@DoApplySki:
; File C:\IAGOS\server\v18\Source\Source\_Common\Obj.h

; 215  : 	D3DXVECTOR3		GetPos()	{ return m_vPos; }

  00359	8b 86 68 01 00
	00		 mov	 eax, DWORD PTR [esi+360]
  0035f	f3 0f 7e 86 60
	01 00 00	 movq	 xmm0, QWORD PTR [esi+352]
  00367	89 45 e0	 mov	 DWORD PTR $T4[ebp+8], eax
; File C:\IAGOS\server\v18\Source\Source\_Common\ctrl.cpp

; 1706 : 							pObj->SetPos( this->GetPos() );

  0036a	8d 45 d8	 lea	 eax, DWORD PTR $T4[ebp]
  0036d	50		 push	 eax
; File C:\IAGOS\server\v18\Source\Source\_Common\Obj.h

; 215  : 	D3DXVECTOR3		GetPos()	{ return m_vPos; }

  0036e	66 0f d6 45 d8	 movq	 QWORD PTR $T4[ebp], xmm0
; File C:\IAGOS\server\v18\Source\Source\_Common\ctrl.cpp

; 1706 : 							pObj->SetPos( this->GetPos() );

  00373	e8 00 00 00 00	 call	 ?SetPos@CObj@@QAEXABUD3DXVECTOR3@@@Z ; CObj::SetPos

; 1707 : 							pObj->SetAngle( -GetAngle() );

  00378	f3 0f 10 46 18	 movss	 xmm0, DWORD PTR [esi+24]
  0037d	0f 57 05 00 00
	00 00		 xorps	 xmm0, DWORD PTR __xmm@80000000800000008000000080000000
  00384	51		 push	 ecx
  00385	8b 4d c8	 mov	 ecx, DWORD PTR _pObj$1$[ebp]
  00388	f3 0f 11 04 24	 movss	 DWORD PTR [esp], xmm0
  0038d	e8 00 00 00 00	 call	 ?SetAngle@CObj@@QAEXM@Z	; CObj::SetAngle

; 1708 : 							((CCommonCtrl *)pObj)->m_pSkillProp = pSkillProp;

  00392	8b 4d c8	 mov	 ecx, DWORD PTR _pObj$1$[ebp]

; 1709 : 							((CCommonCtrl *)pObj)->m_pAddSkillProp = pAddSkillProp;

  00395	8b 45 cc	 mov	 eax, DWORD PTR _pAddSkillProp$GSCopy$1$[ebp]
  00398	89 81 08 04 00
	00		 mov	 DWORD PTR [ecx+1032], eax
  0039e	89 b9 04 04 00
	00		 mov	 DWORD PTR [ecx+1028], edi

; 1710 : 							((CCommonCtrl *)pObj)->m_idAttacker = GetId();

  003a4	8b 86 bc 01 00
	00		 mov	 eax, DWORD PTR [esi+444]
  003aa	89 81 0c 04 00
	00		 mov	 DWORD PTR [ecx+1036], eax

; 1711 : 							((CCommonCtrl *)pObj)->m_bControl = bControl;

  003b0	8b 45 20	 mov	 eax, DWORD PTR _bControl$[ebp]
  003b3	89 81 10 04 00
	00		 mov	 DWORD PTR [ecx+1040], eax

; 1712 : 
; 1713 : 							GetWorld()->ADDOBJ( pObj, TRUE, GetLayer() );

  003b9	ff b6 b8 01 00
	00		 push	 DWORD PTR [esi+440]
  003bf	6a 01		 push	 1
  003c1	51		 push	 ecx
  003c2	8b 8e 6c 01 00
	00		 mov	 ecx, DWORD PTR [esi+364]
  003c8	e8 00 00 00 00	 call	 ?AddObj@CWorld@@QAEHPAVCObj@@HH@Z ; CWorld::AddObj

; 1714 : 							pUser->m_pWall[i] = pObj;

  003cd	8b 45 d4	 mov	 eax, DWORD PTR _i$1$[ebp]
  003d0	8b 4d c8	 mov	 ecx, DWORD PTR _pObj$1$[ebp]
  003d3	89 8c 86 80 8e
	00 00		 mov	 DWORD PTR [esi+eax*4+36480], ecx

; 1768 : 		if( pSkillProp->dwActiveSkillRate == NULL_ID || xRandom(100) <= pSkillProp->dwActiveSkillRate )	// ąßµżČ®·üżˇ °É·Č´Â°ˇ.

  003da	e9 15 ff ff ff	 jmp	 $LN33@DoApplySki
$LN37@DoApplySki:

; 1746 : 		else
; 1747 : 		if( pSkillProp->dwID == SI_JST_SUP_BLEEDING )

  003df	3d d1 00 00 00	 cmp	 eax, 209		; 000000d1H
  003e4	75 15		 jne	 SHORT $LN39@DoApplySki

; 1748 : 		{
; 1749 : 			((CMover *)pSrc)->RemoveBuff( BUFF_SKILL, SI_JST_SUP_POISON );

  003e6	68 d0 00 00 00	 push	 208			; 000000d0H
  003eb	6a 01		 push	 1
  003ed	8b ce		 mov	 ecx, esi
  003ef	e8 00 00 00 00	 call	 ?RemoveBuff@CMover@@QAEXGG@Z ; CMover::RemoveBuff

; 1750 : 			((CMover *)pSrc)->RemoveBuff( BUFF_SKILL, SI_JST_SUP_ABSORB );

  003f4	68 d2 00 00 00	 push	 210			; 000000d2H

; 1751 : 		}

  003f9	eb 1a		 jmp	 SHORT $LN79@DoApplySki
$LN39@DoApplySki:

; 1752 : 		else		
; 1753 : 		if( pSkillProp->dwID == SI_JST_SUP_ABSORB )

  003fb	3d d2 00 00 00	 cmp	 eax, 210		; 000000d2H
  00400	75 1c		 jne	 SHORT $LN41@DoApplySki

; 1754 : 		{
; 1755 : 			((CMover *)pSrc)->RemoveBuff( BUFF_SKILL, SI_JST_SUP_BLEEDING );

  00402	68 d1 00 00 00	 push	 209			; 000000d1H
  00407	6a 01		 push	 1
  00409	8b ce		 mov	 ecx, esi
  0040b	e8 00 00 00 00	 call	 ?RemoveBuff@CMover@@QAEXGG@Z ; CMover::RemoveBuff

; 1756 : 			((CMover *)pSrc)->RemoveBuff( BUFF_SKILL, SI_JST_SUP_POISON );

  00410	68 d0 00 00 00	 push	 208			; 000000d0H
$LN79@DoApplySki:

; 1757 : 		}
; 1758 : 
; 1759 : 	}	
; 1760 : #endif // WorldServer
; 1761 : 	
; 1762 : 	// ˝şĹłżˇ ÇĘżäÇŃ sfx¸¦ »ýĽş.
; 1763 : 	CreateSkillSfx( pTarget, pSkillProp, pAddSkillProp );
; 1764 : 	
; 1765 : 	// 2Â÷ ˝şĹł ąßµż. ActiveSkill
; 1766 : 	if( pSkillProp->dwActiveSkill != NULL_ID )

  00415	6a 01		 push	 1
  00417	8b ce		 mov	 ecx, esi
  00419	e8 00 00 00 00	 call	 ?RemoveBuff@CMover@@QAEXGG@Z ; CMover::RemoveBuff
$LN41@DoApplySki:
  0041e	83 bf 70 01 00
	00 ff		 cmp	 DWORD PTR [edi+368], -1
  00425	74 4d		 je	 SHORT $LN43@DoApplySki

; 1768 : 		if( pSkillProp->dwActiveSkillRate == NULL_ID || xRandom(100) <= pSkillProp->dwActiveSkillRate )	// ąßµżČ®·üżˇ °É·Č´Â°ˇ.

  00427	83 bf 74 01 00
	00 ff		 cmp	 DWORD PTR [edi+372], -1
  0042e	74 2d		 je	 SHORT $LN44@DoApplySki
; File C:\IAGOS\server\v18\Source\Source\_Common\xUtil.h

; 16   : 	g_next = g_next * 1103515245 + 12345;// + nRandomSeed[ i++ ];

  00430	69 0d 00 00 00
	00 6d 4e c6 41	 imul	 ecx, DWORD PTR ?g_next@@3KA, 1103515245 ; g_next

; 22   : 	return  xRand() % num;

  0043a	b8 1f 85 eb 51	 mov	 eax, 1374389535		; 51eb851fH

; 16   : 	g_next = g_next * 1103515245 + 12345;// + nRandomSeed[ i++ ];

  0043f	81 c1 39 30 00
	00		 add	 ecx, 12345		; 00003039H

; 22   : 	return  xRand() % num;

  00445	f7 e1		 mul	 ecx

; 16   : 	g_next = g_next * 1103515245 + 12345;// + nRandomSeed[ i++ ];

  00447	89 0d 00 00 00
	00		 mov	 DWORD PTR ?g_next@@3KA, ecx ; g_next

; 22   : 	return  xRand() % num;

  0044d	c1 ea 05	 shr	 edx, 5
  00450	6b c2 64	 imul	 eax, edx, 100
  00453	2b c8		 sub	 ecx, eax
; File C:\IAGOS\server\v18\Source\Source\_Common\ctrl.cpp

; 1768 : 		if( pSkillProp->dwActiveSkillRate == NULL_ID || xRandom(100) <= pSkillProp->dwActiveSkillRate )	// ąßµżČ®·üżˇ °É·Č´Â°ˇ.

  00455	3b 8f 74 01 00
	00		 cmp	 ecx, DWORD PTR [edi+372]
  0045b	77 17		 ja	 SHORT $LN43@DoApplySki
$LN44@DoApplySki:

; 1769 : #if __VER >= 8 // __S8_PK
; 1770 : 			pSrc->DoActiveSkill( pSkillProp->dwActiveSkill, 1, pTarget, false, bControl );		// dwActiveSkill Lv1ŔĚ ąßµżµĘ.

  0045d	ff 75 20	 push	 DWORD PTR _bControl$[ebp]
  00460	8b ce		 mov	 ecx, esi
  00462	6a 00		 push	 0
  00464	ff 75 d0	 push	 DWORD PTR _pTarget$GSCopy$1$[ebp]
  00467	6a 01		 push	 1
  00469	ff b7 70 01 00
	00		 push	 DWORD PTR [edi+368]
  0046f	e8 00 00 00 00	 call	 ?DoActiveSkill@CCtrl@@QAEXKHPAV1@_NH@Z ; CCtrl::DoActiveSkill
$LN43@DoApplySki:

; 1771 : #else // __VER >= 8 // __S8_PK
; 1772 : 			pSrc->DoActiveSkill( pSkillProp->dwActiveSkill, 1, pTarget );		// dwActiveSkill Lv1ŔĚ ąßµżµĘ.
; 1773 : #endif // __VER >= 8 // __S8_PK
; 1774 : 			
; 1775 : 	}
; 1776 : 
; 1777 : 	return nRet;

  00474	8b 45 c0	 mov	 eax, DWORD PTR _nRet$1$[ebp]
$LN1@DoApplySki:

; 1778 : }

  00477	8b 4d f4	 mov	 ecx, DWORD PTR __$EHRec$[ebp]
  0047a	64 89 0d 00 00
	00 00		 mov	 DWORD PTR fs:0, ecx
  00481	59		 pop	 ecx
  00482	5f		 pop	 edi
  00483	5e		 pop	 esi
  00484	8b 4d f0	 mov	 ecx, DWORD PTR __$ArrayPad$[ebp]
  00487	33 cd		 xor	 ecx, ebp
  00489	e8 00 00 00 00	 call	 @__security_check_cookie@4
  0048e	8b e5		 mov	 esp, ebp
  00490	5d		 pop	 ebp
  00491	c2 1c 00	 ret	 28			; 0000001cH
$LN74@DoApplySki:
  00494	00 00 00 00	 DD	 $LN25@DoApplySki
  00498	00 00 00 00	 DD	 $LN7@DoApplySki
  0049c	00 00 00 00	 DD	 $LN25@DoApplySki
  004a0	00 00 00 00	 DD	 $LN25@DoApplySki
  004a4	00 00 00 00	 DD	 $LN25@DoApplySki
  004a8	00 00 00 00	 DD	 $LN24@DoApplySki
  004ac	00 00 00 00	 DD	 $LN7@DoApplySki
_TEXT	ENDS
;	COMDAT text$x
text$x	SEGMENT
__unwindfunclet$?DoApplySkillEx@CCtrl@@AAEHPAV1@PAUItemProp@@PAUAddSkillProp@@_NHHH@Z$0:
  00000	68 50 02 00 00	 push	 592			; 00000250H
  00005	8b 45 c4	 mov	 eax, DWORD PTR $T2[ebp]
  00008	50		 push	 eax
  00009	e8 00 00 00 00	 call	 ??3@YAXPAXI@Z		; operator delete
  0000e	83 c4 08	 add	 esp, 8
  00011	c3		 ret	 0
__unwindfunclet$?DoApplySkillEx@CCtrl@@AAEHPAV1@PAUItemProp@@PAUAddSkillProp@@_NHHH@Z$1:
  00012	8b 4d c4	 mov	 ecx, DWORD PTR $T2[ebp]
  00015	e9 00 00 00 00	 jmp	 ??1CCtrl@@UAE@XZ	; CCtrl::~CCtrl
  0001a	cc		 int	 3
  0001b	cc		 int	 3
  0001c	cc		 int	 3
  0001d	cc		 int	 3
  0001e	cc		 int	 3
__ehhandler$?DoApplySkillEx@CCtrl@@AAEHPAV1@PAUItemProp@@PAUAddSkillProp@@_NHHH@Z:
  0001f	90		 npad	 1
  00020	90		 npad	 1
  00021	8b 54 24 08	 mov	 edx, DWORD PTR [esp+8]
  00025	8d 42 0c	 lea	 eax, DWORD PTR [edx+12]
  00028	8b 4a c0	 mov	 ecx, DWORD PTR [edx-64]
  0002b	33 c8		 xor	 ecx, eax
  0002d	e8 00 00 00 00	 call	 @__security_check_cookie@4
  00032	8b 4a fc	 mov	 ecx, DWORD PTR [edx-4]
  00035	33 c8		 xor	 ecx, eax
  00037	e8 00 00 00 00	 call	 @__security_check_cookie@4
  0003c	b8 00 00 00 00	 mov	 eax, OFFSET __ehfuncinfo$?DoApplySkillEx@CCtrl@@AAEHPAV1@PAUItemProp@@PAUAddSkillProp@@_NHHH@Z
  00041	e9 00 00 00 00	 jmp	 ___CxxFrameHandler3
text$x	ENDS
?DoApplySkillEx@CCtrl@@AAEHPAV1@PAUItemProp@@PAUAddSkillProp@@_NHHH@Z ENDP ; CCtrl::DoApplySkillEx
; Function compile flags: /Ogtp
; File C:\IAGOS\server\v18\Source\Source\_Common\ctrl.cpp
; File C:\IAGOS\server\v18\Source\Source\_Common\Project.h
; File C:\IAGOS\server\v18\Source\Source\_Common\ctrl.cpp
; File C:\IAGOS\server\v18\Source\Source\_Common\Mover.h
; File C:\IAGOS\server\v18\Source\Source\_Common\Project.h
; File C:\IAGOS\server\v18\Source\Source\_Common\Obj.h
; File C:\IAGOS\server\v18\Source\Source\_Common\ctrl.cpp
; File C:\IAGOS\server\v18\Source\Source\_Common\Obj.h
; File C:\IAGOS\server\v18\Source\Source\_Common\ctrl.cpp
; File C:\IAGOS\server\v18\Source\Source\_Common\ProjectCmn.h
; File C:\IAGOS\server\v18\Source\Source\_Common\ctrl.cpp
; File C:\IAGOS\server\v18\Source\Source\_Common\ProjectCmn.h
; File C:\IAGOS\server\v18\Source\Source\_Common\ctrl.cpp
; File C:\IAGOS\server\v18\Source\Source\_Common\ProjectCmn.h
; File C:\IAGOS\server\v18\Source\Source\_Common\ctrl.cpp
; File C:\IAGOS\server\v18\Source\Source\_Common\ProjectCmn.h
; File C:\IAGOS\server\v18\Source\Source\_Common\ctrl.cpp
; File C:\IAGOS\server\v18\Source\Source\_Common\Mover.h
; File C:\IAGOS\server\v18\Source\Source\_Common\ctrl.cpp
; File C:\IAGOS\server\v18\Source\Source\_Common\Obj.h
; File C:\IAGOS\server\v18\Source\Source\DX_SDK\d3dx9math.inl
; File C:\IAGOS\server\v18\Source\Source\_Common\Obj.h
; File C:\IAGOS\server\v18\Source\Source\DX_SDK\d3dx9math.inl
; File C:\IAGOS\server\v18\Source\Source\_Common\ctrl.cpp
; File C:\IAGOS\server\v18\Source\Source\DX_SDK\d3dx9math.inl
; File C:\IAGOS\server\v18\Source\Source\_Common\ctrl.cpp
; File C:\IAGOS\server\v18\Source\Source\_Common\Mover.h
; File C:\IAGOS\server\v18\Source\Source\_Common\Project.h
; File C:\IAGOS\server\v18\Source\Source\_Common\ctrl.cpp
; File C:\IAGOS\server\v18\Source\Source\_Common\Obj.h
; File C:\IAGOS\server\v18\Source\Source\_Common\Mover.h
; File C:\IAGOS\server\v18\Source\Source\_Common\ctrl.cpp
; File C:\IAGOS\server\v18\Source\Source\_Common\ProjectCmn.h
; File C:\IAGOS\server\v18\Source\Source\_Common\ctrl.cpp
; File C:\IAGOS\server\v18\Source\Source\_Common\Mover.h
; File C:\IAGOS\server\v18\Source\Source\_Common\ctrl.cpp
; File C:\IAGOS\server\v18\Source\Source\_Common\Obj.h
; File C:\IAGOS\server\v18\Source\Source\DX_SDK\d3dx9math.inl
; File C:\IAGOS\server\v18\Source\Source\_Common\Obj.h
; File C:\IAGOS\server\v18\Source\Source\DX_SDK\d3dx9math.inl
; File C:\IAGOS\server\v18\Source\Source\_Common\ctrl.cpp
; File C:\IAGOS\server\v18\Source\Source\DX_SDK\d3dx9math.inl
; File C:\IAGOS\server\v18\Source\Source\_Common\ctrl.cpp
; File C:\IAGOS\server\v18\Source\Source\_Common\Mover.h
; File C:\IAGOS\server\v18\Source\Source\_Common\Project.h
; File C:\IAGOS\server\v18\Source\Source\_Common\ctrl.cpp
; File C:\IAGOS\server\v18\Source\Source\_Common\Obj.h
; File C:\IAGOS\server\v18\Source\Source\_Common\Mover.h
; File C:\IAGOS\server\v18\Source\Source\_Common\ctrl.cpp
; File C:\IAGOS\server\v18\Source\Source\_Common\Obj.h
; File C:\IAGOS\server\v18\Source\Source\_Common\ctrl.cpp
; File C:\IAGOS\server\v18\Source\Source\_Common\Obj.h
; File C:\IAGOS\server\v18\Source\Source\_Common\ctrl.cpp
;	COMDAT ?CreateAggro@CCtrl@@QAEXPAV1@PAUItemProp@@PAUAddSkillProp@@@Z
_TEXT	SEGMENT
$T1 = -88						; size = 12
$T2 = -88						; size = 12
_vPos$ = -76						; size = 12
__pObjs$1$ = -64					; size = 4
__pObjs$1$ = -60					; size = 4
__nLinkX$1$ = -60					; size = 4
tv1949 = -56						; size = 4
tv1952 = -56						; size = 4
tv1947 = -52						; size = 4
tv1955 = -52						; size = 4
tv1957 = -48						; size = 4
__nZ$1$ = -48						; size = 4
tv1945 = -44						; size = 4
tv1960 = -44						; size = 4
tv1942 = -40						; size = 4
__nLinkX$1$ = -40					; size = 4
$T3 = -36						; size = 4
tv1985 = -36						; size = 4
__i$1$ = -36						; size = 4
__nMaxHeight$1$ = -36					; size = 4
__nZ$1$ = -32						; size = 4
__k$1$ = -32						; size = 4
$T4 = -32						; size = 4
tv1999 = -28						; size = 4
__nMaxHeight$1$ = -28					; size = 4
__nLinkZMax$1$ = -28					; size = 4
__nLinkZMax$1$ = -24					; size = 4
tv1992 = -24						; size = 4
__k$1$ = -20						; size = 4
$T5 = -20						; size = 4
__i$1$ = -16						; size = 4
tv1986 = -16						; size = 4
__nMaxWidth$1$ = -12					; size = 4
__nLinkZ$1$ = -12					; size = 4
__nLinkZ$1$ = -8					; size = 4
__nMaxWidth$1$ = -8					; size = 4
_this$1$ = -4						; size = 4
_pSrc$ = 8						; size = 4
_pSkillProp$ = 12					; size = 4
_pAddSkillProp$ = 16					; size = 4
?CreateAggro@CCtrl@@QAEXPAV1@PAUItemProp@@PAUAddSkillProp@@@Z PROC ; CCtrl::CreateAggro, COMDAT
; _this$ = ecx

; 1377 : {

  00000	55		 push	 ebp
  00001	8b ec		 mov	 ebp, esp
  00003	83 ec 58	 sub	 esp, 88			; 00000058H
  00006	53		 push	 ebx
  00007	8b d9		 mov	 ebx, ecx
; File C:\IAGOS\server\v18\Source\Source\_Common\Project.h

; 1406 : 	VERIFY_RANGE( nIndex, 0, m_nMoverPropSize, "GetMoverProp range_error", NULL );

  00009	8b 0d b4 01 00
	00		 mov	 ecx, DWORD PTR ?prj@@3VCProject@@A+436
; File C:\IAGOS\server\v18\Source\Source\_Common\ctrl.cpp

; 1377 : {

  0000f	57		 push	 edi
  00010	89 5d fc	 mov	 DWORD PTR _this$1$[ebp], ebx
; File C:\IAGOS\server\v18\Source\Source\_Common\Mover.h

; 1020 : 	MoverProp*		GetProp() { return prj.GetMoverProp( m_dwIndex ); }	// °´ĂĽŔÇ ÇÁ·ÎĆŰĆĽ ľň±â 	

  00013	8b 83 74 01 00
	00		 mov	 eax, DWORD PTR [ebx+372]
; File C:\IAGOS\server\v18\Source\Source\_Common\Project.h

; 1406 : 	VERIFY_RANGE( nIndex, 0, m_nMoverPropSize, "GetMoverProp range_error", NULL );

  00019	85 c0		 test	 eax, eax
  0001b	78 04		 js	 SHORT $LN98@CreateAggr
  0001d	3b c1		 cmp	 eax, ecx
  0001f	7c 16		 jl	 SHORT $LN93@CreateAggr
$LN98@CreateAggr:

; 579  : 	LPCTSTR szErr = Error( _T( "%s min:%d, max:%d, index:%d" ), szMsg, nMin, nMax, nIndex ); 

  00021	50		 push	 eax
  00022	51		 push	 ecx
  00023	6a 00		 push	 0
  00025	68 00 00 00 00	 push	 OFFSET ??_C@_0BJ@GKPOBPPI@GetMoverProp?5range_error@
  0002a	68 00 00 00 00	 push	 OFFSET ??_C@_0BM@HMFGHCP@?$CFs?5min?3?$CFd?0?5max?3?$CFd?0?5index?3?$CFd@
  0002f	e8 00 00 00 00	 call	 ?Error@@YAPBDPBDZZ	; Error
  00034	83 c4 14	 add	 esp, 20			; 00000014H
$LN93@CreateAggr:
; File C:\IAGOS\server\v18\Source\Source\_Common\Obj.h

; 215  : 	D3DXVECTOR3		GetPos()	{ return m_vPos; }

  00037	8b 7d 08	 mov	 edi, DWORD PTR _pSrc$[ebp]
; File C:\IAGOS\server\v18\Source\Source\_Common\ctrl.cpp

; 1390 : 	if( pMover->IsPlayer() && pTarget != pMover ) // only player can generate aggro

  0003a	83 bf 30 02 00
	00 00		 cmp	 DWORD PTR [edi+560], 0
; File C:\IAGOS\server\v18\Source\Source\_Common\Obj.h

; 215  : 	D3DXVECTOR3		GetPos()	{ return m_vPos; }

  00041	f3 0f 7e 87 60
	01 00 00	 movq	 xmm0, QWORD PTR [edi+352]
  00049	8b 87 68 01 00
	00		 mov	 eax, DWORD PTR [edi+360]
  0004f	66 0f d6 45 b4	 movq	 QWORD PTR _vPos$[ebp], xmm0
  00054	89 45 bc	 mov	 DWORD PTR _vPos$[ebp+8], eax
; File C:\IAGOS\server\v18\Source\Source\_Common\ctrl.cpp

; 1390 : 	if( pMover->IsPlayer() && pTarget != pMover ) // only player can generate aggro

  00057	0f 84 ec 06 00
	00		 je	 $LN14@CreateAggr
  0005d	3b df		 cmp	 ebx, edi
  0005f	0f 84 e4 06 00
	00		 je	 $LN14@CreateAggr
  00065	56		 push	 esi
; File C:\IAGOS\server\v18\Source\Source\_Common\ProjectCmn.h

; 483  : 		return ( dwID == 400 );

  00066	8b 75 0c	 mov	 esi, DWORD PTR _pSkillProp$[ebp]
  00069	81 3e 90 01 00
	00		 cmp	 DWORD PTR [esi], 400	; 00000190H
; File C:\IAGOS\server\v18\Source\Source\_Common\ctrl.cpp

; 1392 : 		if( pSkillProp->IsAlwaysAggro() )

  0006f	75 1c		 jne	 SHORT $LN25@CreateAggr

; 1393 : 			pTarget->PostAIMsg( AIMSG_DAMAGE, pMover->GetId(), 0, 1 );

  00071	6a 01		 push	 1
  00073	6a 00		 push	 0
  00075	ff b7 bc 01 00
	00		 push	 DWORD PTR [edi+444]
  0007b	8b cb		 mov	 ecx, ebx
  0007d	6a 08		 push	 8
  0007f	e8 00 00 00 00	 call	 ?PostAIMsg@CMover@@QAEXKKKK@Z ; CMover::PostAIMsg
  00084	5e		 pop	 esi
  00085	5f		 pop	 edi

; 1445 : 		}
; 1446 : 	}
; 1447 : }

  00086	5b		 pop	 ebx
  00087	8b e5		 mov	 esp, ebp
  00089	5d		 pop	 ebp
  0008a	c2 0c 00	 ret	 12			; 0000000cH
$LN25@CreateAggr:
; File C:\IAGOS\server\v18\Source\Source\_Common\ProjectCmn.h

; 468  : 			&& dwReferTarget2 != RT_ATTACK )

  0008d	83 be 04 02 00
	00 01		 cmp	 DWORD PTR [esi+516], 1
  00094	74 4d		 je	 SHORT $LN135@CreateAggr
  00096	83 be d8 01 00
	00 01		 cmp	 DWORD PTR [esi+472], 1
  0009d	8d 86 d8 01 00
	00		 lea	 eax, DWORD PTR [esi+472]
  000a3	74 3e		 je	 SHORT $LN135@CreateAggr
  000a5	83 be dc 01 00
	00 01		 cmp	 DWORD PTR [esi+476], 1
  000ac	74 35		 je	 SHORT $LN135@CreateAggr
; File C:\IAGOS\server\v18\Source\Source\_Common\ctrl.cpp

; 1395 : 		if( pSkillProp->IsDebuff() && !pTarget->IsPlayer() && pTarget->GetProp()->dwAI >= AII_AGGRO_NORMAL )

  000ae	83 bb 30 02 00
	00 00		 cmp	 DWORD PTR [ebx+560], 0
  000b5	75 37		 jne	 SHORT $LN27@CreateAggr
  000b7	8b cb		 mov	 ecx, ebx
  000b9	89 45 dc	 mov	 DWORD PTR $T3[ebp], eax
  000bc	e8 00 00 00 00	 call	 ?GetPropA@CMover@@QAEPAUMoverProp@@XZ ; CMover::GetPropA
  000c1	83 78 48 0b	 cmp	 DWORD PTR [eax+72], 11	; 0000000bH
  000c5	72 24		 jb	 SHORT $LN183@CreateAggr

; 1396 : 			pTarget->PostAIMsg( AIMSG_DAMAGE, pMover->GetId(), pSkillProp->dwID, 2 );

  000c7	6a 02		 push	 2
  000c9	ff 36		 push	 DWORD PTR [esi]
  000cb	8b cb		 mov	 ecx, ebx
  000cd	ff b7 bc 01 00
	00		 push	 DWORD PTR [edi+444]
  000d3	6a 08		 push	 8
  000d5	e8 00 00 00 00	 call	 ?PostAIMsg@CMover@@QAEXKKKK@Z ; CMover::PostAIMsg
  000da	5e		 pop	 esi
  000db	5f		 pop	 edi

; 1445 : 		}
; 1446 : 	}
; 1447 : }

  000dc	5b		 pop	 ebx
  000dd	8b e5		 mov	 esp, ebp
  000df	5d		 pop	 ebp
  000e0	c2 0c 00	 ret	 12			; 0000000cH
$LN135@CreateAggr:
; File C:\IAGOS\server\v18\Source\Source\_Common\ProjectCmn.h

; 471  : 			return FALSE;

  000e3	8d 86 d8 01 00
	00		 lea	 eax, DWORD PTR [esi+472]
; File C:\IAGOS\server\v18\Source\Source\_Common\ctrl.cpp

; 1395 : 		if( pSkillProp->IsDebuff() && !pTarget->IsPlayer() && pTarget->GetProp()->dwAI >= AII_AGGRO_NORMAL )

  000e9	eb 03		 jmp	 SHORT $LN27@CreateAggr
$LN183@CreateAggr:
  000eb	8b 45 dc	 mov	 eax, DWORD PTR $T3[ebp]
$LN27@CreateAggr:
; File C:\IAGOS\server\v18\Source\Source\_Common\ProjectCmn.h

; 479  : 		return( dwReferTarget1 == RT_HEAL );

  000ee	83 38 03	 cmp	 DWORD PTR [eax], 3
; File C:\IAGOS\server\v18\Source\Source\_Common\ctrl.cpp

; 1398 : 		if( pSkillProp->IsHeal() && pTarget->IsPlayer() )

  000f1	0f 85 2a 03 00
	00		 jne	 $LN175@CreateAggr
  000f7	83 bb 30 02 00
	00 00		 cmp	 DWORD PTR [ebx+560], 0
  000fe	0f 84 1d 03 00
	00		 je	 $LN175@CreateAggr

; 1399 : 		{
; 1400 : 			FOR_LINKMAP( GetWorld(), vPos, pObj, nRange, CObj::linkDynamic, GetLayer() ) // get everyone in range

  00104	8b 8b 6c 01 00
	00		 mov	 ecx, DWORD PTR [ebx+364]
  0010a	33 ff		 xor	 edi, edi
  0010c	f3 0f 10 45 b4	 movss	 xmm0, DWORD PTR _vPos$[ebp]
  00111	ff b3 b8 01 00
	00		 push	 DWORD PTR [ebx+440]
  00117	89 7d dc	 mov	 DWORD PTR __i$1$[ebp], edi
  0011a	66 0f 6e 49 14	 movd	 xmm1, DWORD PTR [ecx+20]
  0011f	83 c1 24	 add	 ecx, 36			; 00000024H
  00122	0f 5b c9	 cvtdq2ps xmm1, xmm1
  00125	6a 01		 push	 1
  00127	f3 0f 5e c1	 divss	 xmm0, xmm1
  0012b	f3 0f 2c f0	 cvttss2si esi, xmm0
  0012f	f3 0f 10 45 bc	 movss	 xmm0, DWORD PTR _vPos$[ebp+8]
  00134	f3 0f 5e c1	 divss	 xmm0, xmm1
  00138	89 75 d8	 mov	 DWORD PTR __nLinkX$1$[ebp], esi
  0013b	f3 0f 2c c0	 cvttss2si eax, xmm0
  0013f	89 45 f8	 mov	 DWORD PTR __nLinkZ$1$[ebp], eax
  00142	e8 00 00 00 00	 call	 ?GetMaxLinkLevel@CLayeredLinkMap@@QAEHKH@Z ; CLayeredLinkMap::GetMaxLinkLevel
  00147	85 c0		 test	 eax, eax
  00149	0f 8e f9 05 00
	00		 jle	 $LN232@CreateAggr
  0014f	8d 46 d0	 lea	 eax, DWORD PTR [esi-48]
  00152	89 45 d4	 mov	 DWORD PTR tv1960[ebp], eax
  00155	8b 45 f8	 mov	 eax, DWORD PTR __nLinkZ$1$[ebp]
  00158	8d 48 d0	 lea	 ecx, DWORD PTR [eax-48]
  0015b	83 c0 30	 add	 eax, 48			; 00000030H
  0015e	89 4d d0	 mov	 DWORD PTR tv1957[ebp], ecx
  00161	8d 4e 30	 lea	 ecx, DWORD PTR [esi+48]
  00164	89 4d cc	 mov	 DWORD PTR tv1955[ebp], ecx
  00167	89 45 c8	 mov	 DWORD PTR tv1952[ebp], eax
  0016a	66 0f 1f 44 00
	00		 npad	 6
$LL4@CreateAggr:
  00170	ff b3 b8 01 00
	00		 push	 DWORD PTR [ebx+440]
  00176	8b 8b 6c 01 00
	00		 mov	 ecx, DWORD PTR [ebx+364]
  0017c	57		 push	 edi
  0017d	6a 01		 push	 1
  0017f	83 c1 24	 add	 ecx, 36			; 00000024H
  00182	e8 00 00 00 00	 call	 ?GetLinkWidth@CLayeredLinkMap@@QAEHKHH@Z ; CLayeredLinkMap::GetLinkWidth
  00187	ff b3 b8 01 00
	00		 push	 DWORD PTR [ebx+440]
  0018d	8b 8b 6c 01 00
	00		 mov	 ecx, DWORD PTR [ebx+364]
  00193	8b f0		 mov	 esi, eax
  00195	57		 push	 edi
  00196	6a 01		 push	 1
  00198	83 c1 24	 add	 ecx, 36			; 00000024H
  0019b	e8 00 00 00 00	 call	 ?GetObj@CLayeredLinkMap@@QAEPAPAVCObj@@KKH@Z ; CLayeredLinkMap::GetObj
  001a0	8b 8b 6c 01 00
	00		 mov	 ecx, DWORD PTR [ebx+364]
  001a6	89 45 c4	 mov	 DWORD PTR __pObjs$1$[ebp], eax
  001a9	8b 51 08	 mov	 edx, DWORD PTR [ecx+8]
  001ac	8b 41 04	 mov	 eax, DWORD PTR [ecx+4]
  001af	8b d8		 mov	 ebx, eax
  001b1	0f af d6	 imul	 edx, esi
  001b4	c1 e0 07	 shl	 eax, 7
  001b7	0f af de	 imul	 ebx, esi
  001ba	8b 71 14	 mov	 esi, DWORD PTR [ecx+20]
  001bd	89 55 e4	 mov	 DWORD PTR __nMaxHeight$1$[ebp], edx
  001c0	99		 cdq
  001c1	f7 fb		 idiv	 ebx
  001c3	89 5d f4	 mov	 DWORD PTR __nMaxWidth$1$[ebp], ebx
  001c6	33 db		 xor	 ebx, ebx
  001c8	8b f8		 mov	 edi, eax
  001ca	8b c6		 mov	 eax, esi
  001cc	0f af c7	 imul	 eax, edi
  001cf	99		 cdq
  001d0	2b c2		 sub	 eax, edx
  001d2	8b c8		 mov	 ecx, eax
  001d4	8b 45 d8	 mov	 eax, DWORD PTR __nLinkX$1$[ebp]
  001d7	99		 cdq
  001d8	f7 ff		 idiv	 edi
  001da	f3 0f 2c 45 b4	 cvttss2si eax, DWORD PTR _vPos$[ebp]
  001df	2b 55 d8	 sub	 edx, DWORD PTR __nLinkX$1$[ebp]
  001e2	d1 f9		 sar	 ecx, 1
  001e4	0f af d6	 imul	 edx, esi
  001e7	03 d0		 add	 edx, eax
  001e9	8b 45 f8	 mov	 eax, DWORD PTR __nLinkZ$1$[ebp]
  001ec	3b d1		 cmp	 edx, ecx
  001ee	99		 cdq
  001ef	0f 9f c3	 setg	 bl
  001f2	f7 ff		 idiv	 edi
  001f4	f3 0f 2c 45 bc	 cvttss2si eax, DWORD PTR _vPos$[ebp+8]
  001f9	2b 55 f8	 sub	 edx, DWORD PTR __nLinkZ$1$[ebp]
  001fc	0f af d6	 imul	 edx, esi
  001ff	03 d0		 add	 edx, eax
  00201	33 c0		 xor	 eax, eax
  00203	3b d1		 cmp	 edx, ecx
  00205	0f 9f c0	 setg	 al
  00208	33 c9		 xor	 ecx, ecx
  0020a	89 45 e0	 mov	 DWORD PTR __nZ$1$[ebp], eax
  0020d	8b 45 d4	 mov	 eax, DWORD PTR tv1960[ebp]
  00210	99		 cdq
  00211	f7 ff		 idiv	 edi
  00213	48		 dec	 eax
  00214	03 c3		 add	 eax, ebx
  00216	0f 49 c8	 cmovns	 ecx, eax
  00219	8b 45 d0	 mov	 eax, DWORD PTR tv1957[ebp]
  0021c	99		 cdq
  0021d	33 f6		 xor	 esi, esi
  0021f	f7 ff		 idiv	 edi
  00221	89 4d ec	 mov	 DWORD PTR __k$1$[ebp], ecx
  00224	8b 4d e0	 mov	 ecx, DWORD PTR __nZ$1$[ebp]
  00227	48		 dec	 eax
  00228	03 c1		 add	 eax, ecx
  0022a	0f 49 f0	 cmovns	 esi, eax
  0022d	8b 45 cc	 mov	 eax, DWORD PTR tv1955[ebp]
  00230	99		 cdq
  00231	f7 ff		 idiv	 edi
  00233	8b 55 f4	 mov	 edx, DWORD PTR __nMaxWidth$1$[ebp]
  00236	03 c3		 add	 eax, ebx
  00238	3b c2		 cmp	 eax, edx
  0023a	8d 5a ff	 lea	 ebx, DWORD PTR [edx-1]
  0023d	0f 4c d8	 cmovl	 ebx, eax
  00240	8b 45 c8	 mov	 eax, DWORD PTR tv1952[ebp]
  00243	89 5d e8	 mov	 DWORD PTR tv1992[ebp], ebx
  00246	99		 cdq
  00247	f7 ff		 idiv	 edi
  00249	8d 14 01	 lea	 edx, DWORD PTR [ecx+eax]
  0024c	8b 4d e4	 mov	 ecx, DWORD PTR __nMaxHeight$1$[ebp]
  0024f	3b d1		 cmp	 edx, ecx
  00251	7c 03		 jl	 SHORT $LN34@CreateAggr
  00253	8d 51 ff	 lea	 edx, DWORD PTR [ecx-1]
$LN34@CreateAggr:
  00256	3b f2		 cmp	 esi, edx
  00258	0f 8f 92 01 00
	00		 jg	 $LN2@CreateAggr
  0025e	8b 4d f4	 mov	 ecx, DWORD PTR __nMaxWidth$1$[ebp]
  00261	8b c6		 mov	 eax, esi
  00263	0f af c1	 imul	 eax, ecx
  00266	2b d6		 sub	 edx, esi
  00268	8b 75 ec	 mov	 esi, DWORD PTR __k$1$[ebp]
  0026b	42		 inc	 edx
  0026c	89 55 e4	 mov	 DWORD PTR __nLinkZMax$1$[ebp], edx
  0026f	03 c6		 add	 eax, esi
  00271	89 45 e0	 mov	 DWORD PTR $T4[ebp], eax
$LL7@CreateAggr:
  00274	3b f3		 cmp	 esi, ebx
  00276	0f 8f 62 01 00
	00		 jg	 $LN5@CreateAggr
  0027c	8b 4d c4	 mov	 ecx, DWORD PTR __pObjs$1$[ebp]
  0027f	8d 1c 81	 lea	 ebx, DWORD PTR [ecx+eax*4]
  00282	8b 4d e8	 mov	 ecx, DWORD PTR tv1992[ebp]
  00285	2b ce		 sub	 ecx, esi
  00287	41		 inc	 ecx
  00288	89 4d f0	 mov	 DWORD PTR tv1986[ebp], ecx
  0028b	0f 1f 44 00 00	 npad	 5
$LL10@CreateAggr:
  00290	8b 33		 mov	 esi, DWORD PTR [ebx]
  00292	bf e8 03 00 00	 mov	 edi, 1000		; 000003e8H
  00297	85 f6		 test	 esi, esi
  00299	0f 84 21 01 00
	00		 je	 $LN8@CreateAggr
  0029f	90		 npad	 1
$LL11@CreateAggr:
  002a0	8b c7		 mov	 eax, edi
  002a2	4f		 dec	 edi
  002a3	85 c0		 test	 eax, eax
  002a5	0f 84 12 01 00
	00		 je	 $LN181@CreateAggr

; 1402 : 				if( pObj->GetType() == OT_MOVER && ((CMover *)pObj)->IsPeaceful() == FALSE && !((CMover *)pObj)->IsPlayer() ) // is mover, not npc and not player

  002ab	83 be 70 01 00
	00 05		 cmp	 DWORD PTR [esi+368], 5
  002b2	0f 85 f7 00 00
	00		 jne	 $LN38@CreateAggr
; File C:\IAGOS\server\v18\Source\Source\_Common\Mover.h

; 1120 : 	BOOL			IsPeaceful() { return m_dwBelligerence == BELLI_PEACEFUL; }

  002b8	83 be 64 06 00
	00 01		 cmp	 DWORD PTR [esi+1636], 1
; File C:\IAGOS\server\v18\Source\Source\_Common\ctrl.cpp

; 1402 : 				if( pObj->GetType() == OT_MOVER && ((CMover *)pObj)->IsPeaceful() == FALSE && !((CMover *)pObj)->IsPlayer() ) // is mover, not npc and not player

  002bf	0f 84 ea 00 00
	00		 je	 $LN38@CreateAggr
  002c5	83 be 30 02 00
	00 00		 cmp	 DWORD PTR [esi+560], 0
  002cc	0f 85 dd 00 00
	00		 jne	 $LN38@CreateAggr
; File C:\IAGOS\server\v18\Source\Source\_Common\Obj.h

; 215  : 	D3DXVECTOR3		GetPos()	{ return m_vPos; }

  002d2	8b 4d fc	 mov	 ecx, DWORD PTR _this$1$[ebp]
  002d5	f3 0f 7e 81 60
	01 00 00	 movq	 xmm0, QWORD PTR [ecx+352]
  002dd	8b 81 68 01 00
	00		 mov	 eax, DWORD PTR [ecx+360]
  002e3	66 0f d6 45 a8	 movq	 QWORD PTR $T1[ebp], xmm0
; File C:\IAGOS\server\v18\Source\Source\DX_SDK\d3dx9math.inl

; 383  :     return D3DXVECTOR3(x - v.x, y - v.y, z - v.z);

  002e8	f3 0f 10 4d a8	 movss	 xmm1, DWORD PTR $T1[ebp]
  002ed	f3 0f 10 55 ac	 movss	 xmm2, DWORD PTR $T1[ebp+4]
  002f2	f3 0f 5c 55 b8	 subss	 xmm2, DWORD PTR _vPos$[ebp+4]
  002f7	f3 0f 5c 4d b4	 subss	 xmm1, DWORD PTR _vPos$[ebp]
; File C:\IAGOS\server\v18\Source\Source\_Common\Obj.h

; 215  : 	D3DXVECTOR3		GetPos()	{ return m_vPos; }

  002fc	89 45 b0	 mov	 DWORD PTR $T1[ebp+8], eax
; File C:\IAGOS\server\v18\Source\Source\DX_SDK\d3dx9math.inl

; 383  :     return D3DXVECTOR3(x - v.x, y - v.y, z - v.z);

  002ff	f3 0f 10 45 b0	 movss	 xmm0, DWORD PTR $T1[ebp+8]
  00304	f3 0f 5c 45 bc	 subss	 xmm0, DWORD PTR _vPos$[ebp+8]
; File C:\IAGOS\server\v18\Source\Source\_Common\ctrl.cpp

; 1404 : 					vDist = pTarget->GetPos() - vPos;

  00309	f3 0f 59 d2	 mulss	 xmm2, xmm2
; File C:\IAGOS\server\v18\Source\Source\DX_SDK\d3dx9math.inl

; 1698 :     return pV->x * pV->x + pV->y * pV->y + pV->z * pV->z;

  0030d	f3 0f 59 c9	 mulss	 xmm1, xmm1
  00311	f3 0f 59 c0	 mulss	 xmm0, xmm0
  00315	f3 0f 58 d1	 addss	 xmm2, xmm1
  00319	f3 0f 58 d0	 addss	 xmm2, xmm0
; File C:\IAGOS\server\v18\Source\Source\_Common\ctrl.cpp

; 1406 : 					if( fDistSq < 48.0f * 48.0f )

  0031d	f3 0f 10 05 00
	00 00 00	 movss	 xmm0, DWORD PTR __real@45100000
  00325	0f 2f c2	 comiss	 xmm0, xmm2
  00328	0f 86 81 00 00
	00		 jbe	 $LN38@CreateAggr
; File C:\IAGOS\server\v18\Source\Source\_Common\Mover.h

; 1020 : 	MoverProp*		GetProp() { return prj.GetMoverProp( m_dwIndex ); }	// °´ĂĽŔÇ ÇÁ·ÎĆŰĆĽ ľň±â 	

  0032e	8b 86 74 01 00
	00		 mov	 eax, DWORD PTR [esi+372]
; File C:\IAGOS\server\v18\Source\Source\_Common\Project.h

; 1406 : 	VERIFY_RANGE( nIndex, 0, m_nMoverPropSize, "GetMoverProp range_error", NULL );

  00334	85 c0		 test	 eax, eax
  00336	78 16		 js	 SHORT $LN76@CreateAggr
  00338	3b 05 b4 01 00
	00		 cmp	 eax, DWORD PTR ?prj@@3VCProject@@A+436
  0033e	7d 0e		 jge	 SHORT $LN76@CreateAggr

; 1407 : 	return m_pPropMover + nIndex;

  00340	69 c0 90 06 00
	00		 imul	 eax, eax, 1680
  00346	03 05 b8 01 00
	00		 add	 eax, DWORD PTR ?prj@@3VCProject@@A+440
  0034c	eb 20		 jmp	 SHORT $LN71@CreateAggr
$LN76@CreateAggr:

; 579  : 	LPCTSTR szErr = Error( _T( "%s min:%d, max:%d, index:%d" ), szMsg, nMin, nMax, nIndex ); 

  0034e	50		 push	 eax
  0034f	ff 35 b4 01 00
	00		 push	 DWORD PTR ?prj@@3VCProject@@A+436
  00355	6a 00		 push	 0
  00357	68 00 00 00 00	 push	 OFFSET ??_C@_0BJ@GKPOBPPI@GetMoverProp?5range_error@
  0035c	68 00 00 00 00	 push	 OFFSET ??_C@_0BM@HMFGHCP@?$CFs?5min?3?$CFd?0?5max?3?$CFd?0?5index?3?$CFd@
  00361	e8 00 00 00 00	 call	 ?Error@@YAPBDPBDZZ	; Error
  00366	8b 4d fc	 mov	 ecx, DWORD PTR _this$1$[ebp]
  00369	83 c4 14	 add	 esp, 20			; 00000014H

; 1406 : 	VERIFY_RANGE( nIndex, 0, m_nMoverPropSize, "GetMoverProp range_error", NULL );

  0036c	33 c0		 xor	 eax, eax
$LN71@CreateAggr:
; File C:\IAGOS\server\v18\Source\Source\_Common\ctrl.cpp

; 1410 : 						if ( pCastTargetProp->dwAI >= AII_AGGRO_NORMAL ) // is instance monster

  0036e	83 78 48 0b	 cmp	 DWORD PTR [eax+72], 11	; 0000000bH
  00372	72 3b		 jb	 SHORT $LN38@CreateAggr
; File C:\IAGOS\server\v18\Source\Source\_Common\Obj.h

; 180  : 	BOOL			IsDelete()	{ return (m_dwFlags & OBJ_FLAG_DELETE);  }

  00374	f6 46 04 01	 test	 BYTE PTR [esi+4], 1

; 327  : 	return pObj && ( pObj->IsDelete() == FALSE ); 

  00378	75 35		 jne	 SHORT $LN38@CreateAggr
; File C:\IAGOS\server\v18\Source\Source\_Common\Mover.h

; 1251 : 	BOOL			IsLive() { return m_pActMover->IsDie() == FALSE || m_nHitPoint > 0; }		// && ¸¦  ||·Î ąŮ˛ĺŔ˝.  !=¸¦ >·Î ąŮ˛Ţ

  0037a	8b 86 38 02 00
	00		 mov	 eax, DWORD PTR [esi+568]
  00380	f7 40 04 00 00
	00 08		 test	 DWORD PTR [eax+4], 134217728 ; 08000000H
  00387	74 09		 je	 SHORT $LN178@CreateAggr
  00389	83 be f8 05 00
	00 00		 cmp	 DWORD PTR [esi+1528], 0
  00390	7e 1d		 jle	 SHORT $LN38@CreateAggr
$LN178@CreateAggr:
; File C:\IAGOS\server\v18\Source\Source\_Common\ctrl.cpp

; 1414 : 								pCastTarget->PostAIMsg( AIMSG_SKILLSUPPORT, pMover->GetId(), pSkillProp->dwID, pTarget->GetId() );

  00392	ff b1 bc 01 00
	00		 push	 DWORD PTR [ecx+444]
  00398	8b 45 0c	 mov	 eax, DWORD PTR _pSkillProp$[ebp]
  0039b	8b ce		 mov	 ecx, esi
  0039d	ff 30		 push	 DWORD PTR [eax]
  0039f	8b 45 08	 mov	 eax, DWORD PTR _pSrc$[ebp]
  003a2	ff b0 bc 01 00
	00		 push	 DWORD PTR [eax+444]
  003a8	6a 16		 push	 22			; 00000016H
  003aa	e8 00 00 00 00	 call	 ?PostAIMsg@CMover@@QAEXKKKK@Z ; CMover::PostAIMsg
$LN38@CreateAggr:

; 1415 : 							}
; 1416 : 						}
; 1417 : 					}
; 1418 : 				}
; 1419 : 			}
; 1420 : 			END_LINKMAP

  003af	8b b6 80 01 00
	00		 mov	 esi, DWORD PTR [esi+384]
  003b5	85 f6		 test	 esi, esi
  003b7	0f 85 e3 fe ff
	ff		 jne	 $LL11@CreateAggr
$LN181@CreateAggr:
  003bd	8b 4d f0	 mov	 ecx, DWORD PTR tv1986[ebp]
$LN8@CreateAggr:

; 1399 : 		{
; 1400 : 			FOR_LINKMAP( GetWorld(), vPos, pObj, nRange, CObj::linkDynamic, GetLayer() ) // get everyone in range

  003c0	83 c3 04	 add	 ebx, 4
  003c3	83 e9 01	 sub	 ecx, 1
  003c6	89 4d f0	 mov	 DWORD PTR tv1986[ebp], ecx
  003c9	0f 85 c1 fe ff
	ff		 jne	 $LL10@CreateAggr
  003cf	8b 55 e4	 mov	 edx, DWORD PTR __nLinkZMax$1$[ebp]
  003d2	8b 45 e0	 mov	 eax, DWORD PTR $T4[ebp]
  003d5	8b 75 ec	 mov	 esi, DWORD PTR __k$1$[ebp]
  003d8	8b 5d e8	 mov	 ebx, DWORD PTR tv1992[ebp]
  003db	8b 4d f4	 mov	 ecx, DWORD PTR __nMaxWidth$1$[ebp]
$LN5@CreateAggr:
  003de	83 ea 01	 sub	 edx, 1
  003e1	8d 04 08	 lea	 eax, DWORD PTR [eax+ecx]
  003e4	89 55 e4	 mov	 DWORD PTR __nLinkZMax$1$[ebp], edx
  003e7	89 45 e0	 mov	 DWORD PTR $T4[ebp], eax
  003ea	0f 85 84 fe ff
	ff		 jne	 $LL7@CreateAggr
$LN2@CreateAggr:
  003f0	8b 5d fc	 mov	 ebx, DWORD PTR _this$1$[ebp]
  003f3	8b 7d dc	 mov	 edi, DWORD PTR __i$1$[ebp]
  003f6	47		 inc	 edi
  003f7	89 7d dc	 mov	 DWORD PTR __i$1$[ebp], edi
  003fa	ff b3 b8 01 00
	00		 push	 DWORD PTR [ebx+440]
  00400	8b 8b 6c 01 00
	00		 mov	 ecx, DWORD PTR [ebx+364]
  00406	6a 01		 push	 1
  00408	83 c1 24	 add	 ecx, 36			; 00000024H
  0040b	e8 00 00 00 00	 call	 ?GetMaxLinkLevel@CLayeredLinkMap@@QAEHKH@Z ; CLayeredLinkMap::GetMaxLinkLevel
  00410	3b f8		 cmp	 edi, eax
  00412	0f 8c 58 fd ff
	ff		 jl	 $LL4@CreateAggr

; 1445 : 		}
; 1446 : 	}
; 1447 : }

  00418	5e		 pop	 esi
  00419	5f		 pop	 edi
  0041a	5b		 pop	 ebx
  0041b	8b e5		 mov	 esp, ebp
  0041d	5d		 pop	 ebp
  0041e	c2 0c 00	 ret	 12			; 0000000cH
$LN175@CreateAggr:
; File C:\IAGOS\server\v18\Source\Source\_Common\ProjectCmn.h

; 475  : 		return( nEvildoing == 1 );

  00421	83 be 04 02 00
	00 01		 cmp	 DWORD PTR [esi+516], 1
; File C:\IAGOS\server\v18\Source\Source\_Common\ctrl.cpp

; 1422 : 		if( pSkillProp->IsBuff() && pTarget->IsPlayer() )

  00428	0f 85 1a 03 00
	00		 jne	 $LN232@CreateAggr
  0042e	83 bb 30 02 00
	00 00		 cmp	 DWORD PTR [ebx+560], 0
  00435	0f 84 0d 03 00
	00		 je	 $LN232@CreateAggr

; 1424 : 			FOR_LINKMAP( GetWorld(), vPos, pObj, nRange, CObj::linkDynamic, GetLayer() ) // get everyone in range

  0043b	8b 8b 6c 01 00
	00		 mov	 ecx, DWORD PTR [ebx+364]
  00441	33 ff		 xor	 edi, edi
  00443	f3 0f 10 45 b4	 movss	 xmm0, DWORD PTR _vPos$[ebp]
  00448	ff b3 b8 01 00
	00		 push	 DWORD PTR [ebx+440]
  0044e	89 7d f0	 mov	 DWORD PTR __i$1$[ebp], edi
  00451	66 0f 6e 49 14	 movd	 xmm1, DWORD PTR [ecx+20]
  00456	83 c1 24	 add	 ecx, 36			; 00000024H
  00459	0f 5b c9	 cvtdq2ps xmm1, xmm1
  0045c	6a 01		 push	 1
  0045e	f3 0f 5e c1	 divss	 xmm0, xmm1
  00462	f3 0f 2c f0	 cvttss2si esi, xmm0
  00466	f3 0f 10 45 bc	 movss	 xmm0, DWORD PTR _vPos$[ebp+8]
  0046b	f3 0f 5e c1	 divss	 xmm0, xmm1
  0046f	89 75 c4	 mov	 DWORD PTR __nLinkX$1$[ebp], esi
  00472	f3 0f 2c c0	 cvttss2si eax, xmm0
  00476	89 45 f4	 mov	 DWORD PTR __nLinkZ$1$[ebp], eax
  00479	e8 00 00 00 00	 call	 ?GetMaxLinkLevel@CLayeredLinkMap@@QAEHKH@Z ; CLayeredLinkMap::GetMaxLinkLevel
  0047e	85 c0		 test	 eax, eax
  00480	0f 8e c2 02 00
	00		 jle	 $LN232@CreateAggr
  00486	8d 46 d0	 lea	 eax, DWORD PTR [esi-48]
  00489	89 45 c8	 mov	 DWORD PTR tv1949[ebp], eax
  0048c	8b 45 f4	 mov	 eax, DWORD PTR __nLinkZ$1$[ebp]
  0048f	8d 48 d0	 lea	 ecx, DWORD PTR [eax-48]
  00492	83 c0 30	 add	 eax, 48			; 00000030H
  00495	89 4d cc	 mov	 DWORD PTR tv1947[ebp], ecx
  00498	8d 4e 30	 lea	 ecx, DWORD PTR [esi+48]
  0049b	89 4d d4	 mov	 DWORD PTR tv1945[ebp], ecx
  0049e	89 45 d8	 mov	 DWORD PTR tv1942[ebp], eax
$LL15@CreateAggr:
  004a1	ff b3 b8 01 00
	00		 push	 DWORD PTR [ebx+440]
  004a7	8b 8b 6c 01 00
	00		 mov	 ecx, DWORD PTR [ebx+364]
  004ad	57		 push	 edi
  004ae	6a 01		 push	 1
  004b0	83 c1 24	 add	 ecx, 36			; 00000024H
  004b3	e8 00 00 00 00	 call	 ?GetLinkWidth@CLayeredLinkMap@@QAEHKHH@Z ; CLayeredLinkMap::GetLinkWidth
  004b8	ff b3 b8 01 00
	00		 push	 DWORD PTR [ebx+440]
  004be	8b 8b 6c 01 00
	00		 mov	 ecx, DWORD PTR [ebx+364]
  004c4	8b f0		 mov	 esi, eax
  004c6	57		 push	 edi
  004c7	6a 01		 push	 1
  004c9	83 c1 24	 add	 ecx, 36			; 00000024H
  004cc	e8 00 00 00 00	 call	 ?GetObj@CLayeredLinkMap@@QAEPAPAVCObj@@KKH@Z ; CLayeredLinkMap::GetObj
  004d1	8b 8b 6c 01 00
	00		 mov	 ecx, DWORD PTR [ebx+364]
  004d7	89 45 c0	 mov	 DWORD PTR __pObjs$1$[ebp], eax
  004da	8b 51 08	 mov	 edx, DWORD PTR [ecx+8]
  004dd	8b 41 04	 mov	 eax, DWORD PTR [ecx+4]
  004e0	8b d8		 mov	 ebx, eax
  004e2	0f af d6	 imul	 edx, esi
  004e5	c1 e0 07	 shl	 eax, 7
  004e8	0f af de	 imul	 ebx, esi
  004eb	8b 71 14	 mov	 esi, DWORD PTR [ecx+20]
  004ee	89 55 dc	 mov	 DWORD PTR __nMaxHeight$1$[ebp], edx
  004f1	99		 cdq
  004f2	f7 fb		 idiv	 ebx
  004f4	89 5d f8	 mov	 DWORD PTR __nMaxWidth$1$[ebp], ebx
  004f7	33 db		 xor	 ebx, ebx
  004f9	8b f8		 mov	 edi, eax
  004fb	8b c6		 mov	 eax, esi
  004fd	0f af c7	 imul	 eax, edi
  00500	99		 cdq
  00501	2b c2		 sub	 eax, edx
  00503	8b c8		 mov	 ecx, eax
  00505	8b 45 c4	 mov	 eax, DWORD PTR __nLinkX$1$[ebp]
  00508	99		 cdq
  00509	f7 ff		 idiv	 edi
  0050b	f3 0f 2c 45 b4	 cvttss2si eax, DWORD PTR _vPos$[ebp]
  00510	2b 55 c4	 sub	 edx, DWORD PTR __nLinkX$1$[ebp]
  00513	d1 f9		 sar	 ecx, 1
  00515	0f af d6	 imul	 edx, esi
  00518	03 d0		 add	 edx, eax
  0051a	8b 45 f4	 mov	 eax, DWORD PTR __nLinkZ$1$[ebp]
  0051d	3b d1		 cmp	 edx, ecx
  0051f	99		 cdq
  00520	0f 9f c3	 setg	 bl
  00523	f7 ff		 idiv	 edi
  00525	f3 0f 2c 45 bc	 cvttss2si eax, DWORD PTR _vPos$[ebp+8]
  0052a	2b 55 f4	 sub	 edx, DWORD PTR __nLinkZ$1$[ebp]
  0052d	0f af d6	 imul	 edx, esi
  00530	03 d0		 add	 edx, eax
  00532	33 c0		 xor	 eax, eax
  00534	3b d1		 cmp	 edx, ecx
  00536	0f 9f c0	 setg	 al
  00539	33 c9		 xor	 ecx, ecx
  0053b	89 45 d0	 mov	 DWORD PTR __nZ$1$[ebp], eax
  0053e	8b 45 c8	 mov	 eax, DWORD PTR tv1949[ebp]
  00541	99		 cdq
  00542	f7 ff		 idiv	 edi
  00544	48		 dec	 eax
  00545	03 c3		 add	 eax, ebx
  00547	0f 49 c8	 cmovns	 ecx, eax
  0054a	8b 45 cc	 mov	 eax, DWORD PTR tv1947[ebp]
  0054d	99		 cdq
  0054e	33 f6		 xor	 esi, esi
  00550	f7 ff		 idiv	 edi
  00552	89 4d e0	 mov	 DWORD PTR __k$1$[ebp], ecx
  00555	8b 4d d0	 mov	 ecx, DWORD PTR __nZ$1$[ebp]
  00558	48		 dec	 eax
  00559	03 c1		 add	 eax, ecx
  0055b	0f 49 f0	 cmovns	 esi, eax
  0055e	8b 45 d4	 mov	 eax, DWORD PTR tv1945[ebp]
  00561	99		 cdq
  00562	f7 ff		 idiv	 edi
  00564	8b 55 f8	 mov	 edx, DWORD PTR __nMaxWidth$1$[ebp]
  00567	03 c3		 add	 eax, ebx
  00569	3b c2		 cmp	 eax, edx
  0056b	8d 5a ff	 lea	 ebx, DWORD PTR [edx-1]
  0056e	0f 4c d8	 cmovl	 ebx, eax
  00571	8b 45 d8	 mov	 eax, DWORD PTR tv1942[ebp]
  00574	89 5d e4	 mov	 DWORD PTR tv1999[ebp], ebx
  00577	99		 cdq
  00578	f7 ff		 idiv	 edi
  0057a	8d 14 01	 lea	 edx, DWORD PTR [ecx+eax]
  0057d	8b 4d dc	 mov	 ecx, DWORD PTR __nMaxHeight$1$[ebp]
  00580	3b d1		 cmp	 edx, ecx
  00582	7c 03		 jl	 SHORT $LN43@CreateAggr
  00584	8d 51 ff	 lea	 edx, DWORD PTR [ecx-1]
$LN43@CreateAggr:
  00587	3b f2		 cmp	 esi, edx
  00589	0f 8f 91 01 00
	00		 jg	 $LN13@CreateAggr
  0058f	8b 4d f8	 mov	 ecx, DWORD PTR __nMaxWidth$1$[ebp]
  00592	8b c6		 mov	 eax, esi
  00594	0f af c1	 imul	 eax, ecx
  00597	2b d6		 sub	 edx, esi
  00599	8b 75 e0	 mov	 esi, DWORD PTR __k$1$[ebp]
  0059c	42		 inc	 edx
  0059d	89 55 e8	 mov	 DWORD PTR __nLinkZMax$1$[ebp], edx
  005a0	03 c6		 add	 eax, esi
  005a2	89 45 ec	 mov	 DWORD PTR $T5[ebp], eax
$LL18@CreateAggr:
  005a5	3b f3		 cmp	 esi, ebx
  005a7	0f 8f 61 01 00
	00		 jg	 $LN16@CreateAggr
  005ad	8b 4d c0	 mov	 ecx, DWORD PTR __pObjs$1$[ebp]
  005b0	8d 1c 81	 lea	 ebx, DWORD PTR [ecx+eax*4]
  005b3	8b 4d e4	 mov	 ecx, DWORD PTR tv1999[ebp]
  005b6	2b ce		 sub	 ecx, esi
  005b8	41		 inc	 ecx
  005b9	89 4d dc	 mov	 DWORD PTR tv1985[ebp], ecx
  005bc	0f 1f 40 00	 npad	 4
$LL21@CreateAggr:
  005c0	8b 33		 mov	 esi, DWORD PTR [ebx]
  005c2	bf e8 03 00 00	 mov	 edi, 1000		; 000003e8H
  005c7	85 f6		 test	 esi, esi
  005c9	0f 84 21 01 00
	00		 je	 $LN19@CreateAggr
  005cf	90		 npad	 1
$LL22@CreateAggr:
  005d0	8b c7		 mov	 eax, edi
  005d2	4f		 dec	 edi
  005d3	85 c0		 test	 eax, eax
  005d5	0f 84 12 01 00
	00		 je	 $LN182@CreateAggr

; 1426 : 				if( pObj->GetType() == OT_MOVER && ((CMover *)pObj)->IsPeaceful() == FALSE && !((CMover *)pObj)->IsPlayer() ) // is mover, not npc and not player

  005db	83 be 70 01 00
	00 05		 cmp	 DWORD PTR [esi+368], 5
  005e2	0f 85 f7 00 00
	00		 jne	 $LN47@CreateAggr
; File C:\IAGOS\server\v18\Source\Source\_Common\Mover.h

; 1120 : 	BOOL			IsPeaceful() { return m_dwBelligerence == BELLI_PEACEFUL; }

  005e8	83 be 64 06 00
	00 01		 cmp	 DWORD PTR [esi+1636], 1
; File C:\IAGOS\server\v18\Source\Source\_Common\ctrl.cpp

; 1426 : 				if( pObj->GetType() == OT_MOVER && ((CMover *)pObj)->IsPeaceful() == FALSE && !((CMover *)pObj)->IsPlayer() ) // is mover, not npc and not player

  005ef	0f 84 ea 00 00
	00		 je	 $LN47@CreateAggr
  005f5	83 be 30 02 00
	00 00		 cmp	 DWORD PTR [esi+560], 0
  005fc	0f 85 dd 00 00
	00		 jne	 $LN47@CreateAggr
; File C:\IAGOS\server\v18\Source\Source\_Common\Obj.h

; 215  : 	D3DXVECTOR3		GetPos()	{ return m_vPos; }

  00602	8b 4d fc	 mov	 ecx, DWORD PTR _this$1$[ebp]
  00605	f3 0f 7e 81 60
	01 00 00	 movq	 xmm0, QWORD PTR [ecx+352]
  0060d	8b 81 68 01 00
	00		 mov	 eax, DWORD PTR [ecx+360]
  00613	66 0f d6 45 a8	 movq	 QWORD PTR $T2[ebp], xmm0
; File C:\IAGOS\server\v18\Source\Source\DX_SDK\d3dx9math.inl

; 383  :     return D3DXVECTOR3(x - v.x, y - v.y, z - v.z);

  00618	f3 0f 10 4d a8	 movss	 xmm1, DWORD PTR $T2[ebp]
  0061d	f3 0f 10 55 ac	 movss	 xmm2, DWORD PTR $T2[ebp+4]
  00622	f3 0f 5c 55 b8	 subss	 xmm2, DWORD PTR _vPos$[ebp+4]
  00627	f3 0f 5c 4d b4	 subss	 xmm1, DWORD PTR _vPos$[ebp]
; File C:\IAGOS\server\v18\Source\Source\_Common\Obj.h

; 215  : 	D3DXVECTOR3		GetPos()	{ return m_vPos; }

  0062c	89 45 b0	 mov	 DWORD PTR $T2[ebp+8], eax
; File C:\IAGOS\server\v18\Source\Source\DX_SDK\d3dx9math.inl

; 383  :     return D3DXVECTOR3(x - v.x, y - v.y, z - v.z);

  0062f	f3 0f 10 45 b0	 movss	 xmm0, DWORD PTR $T2[ebp+8]
  00634	f3 0f 5c 45 bc	 subss	 xmm0, DWORD PTR _vPos$[ebp+8]
; File C:\IAGOS\server\v18\Source\Source\_Common\ctrl.cpp

; 1428 : 					vDist = pTarget->GetPos() - vPos;

  00639	f3 0f 59 d2	 mulss	 xmm2, xmm2
; File C:\IAGOS\server\v18\Source\Source\DX_SDK\d3dx9math.inl

; 1698 :     return pV->x * pV->x + pV->y * pV->y + pV->z * pV->z;

  0063d	f3 0f 59 c9	 mulss	 xmm1, xmm1
  00641	f3 0f 59 c0	 mulss	 xmm0, xmm0
  00645	f3 0f 58 d1	 addss	 xmm2, xmm1
  00649	f3 0f 58 d0	 addss	 xmm2, xmm0
; File C:\IAGOS\server\v18\Source\Source\_Common\ctrl.cpp

; 1430 : 					if( fDistSq < 48.0f * 48.0f )

  0064d	f3 0f 10 05 00
	00 00 00	 movss	 xmm0, DWORD PTR __real@45100000
  00655	0f 2f c2	 comiss	 xmm0, xmm2
  00658	0f 86 81 00 00
	00		 jbe	 $LN47@CreateAggr
; File C:\IAGOS\server\v18\Source\Source\_Common\Mover.h

; 1020 : 	MoverProp*		GetProp() { return prj.GetMoverProp( m_dwIndex ); }	// °´ĂĽŔÇ ÇÁ·ÎĆŰĆĽ ľň±â 	

  0065e	8b 86 74 01 00
	00		 mov	 eax, DWORD PTR [esi+372]
; File C:\IAGOS\server\v18\Source\Source\_Common\Project.h

; 1406 : 	VERIFY_RANGE( nIndex, 0, m_nMoverPropSize, "GetMoverProp range_error", NULL );

  00664	85 c0		 test	 eax, eax
  00666	78 16		 js	 SHORT $LN87@CreateAggr
  00668	3b 05 b4 01 00
	00		 cmp	 eax, DWORD PTR ?prj@@3VCProject@@A+436
  0066e	7d 0e		 jge	 SHORT $LN87@CreateAggr

; 1407 : 	return m_pPropMover + nIndex;

  00670	69 c0 90 06 00
	00		 imul	 eax, eax, 1680
  00676	03 05 b8 01 00
	00		 add	 eax, DWORD PTR ?prj@@3VCProject@@A+440
  0067c	eb 20		 jmp	 SHORT $LN82@CreateAggr
$LN87@CreateAggr:

; 579  : 	LPCTSTR szErr = Error( _T( "%s min:%d, max:%d, index:%d" ), szMsg, nMin, nMax, nIndex ); 

  0067e	50		 push	 eax
  0067f	ff 35 b4 01 00
	00		 push	 DWORD PTR ?prj@@3VCProject@@A+436
  00685	6a 00		 push	 0
  00687	68 00 00 00 00	 push	 OFFSET ??_C@_0BJ@GKPOBPPI@GetMoverProp?5range_error@
  0068c	68 00 00 00 00	 push	 OFFSET ??_C@_0BM@HMFGHCP@?$CFs?5min?3?$CFd?0?5max?3?$CFd?0?5index?3?$CFd@
  00691	e8 00 00 00 00	 call	 ?Error@@YAPBDPBDZZ	; Error
  00696	8b 4d fc	 mov	 ecx, DWORD PTR _this$1$[ebp]
  00699	83 c4 14	 add	 esp, 20			; 00000014H

; 1406 : 	VERIFY_RANGE( nIndex, 0, m_nMoverPropSize, "GetMoverProp range_error", NULL );

  0069c	33 c0		 xor	 eax, eax
$LN82@CreateAggr:
; File C:\IAGOS\server\v18\Source\Source\_Common\ctrl.cpp

; 1434 : 						if ( pCastTargetProp->dwAI >= AII_AGGRO_NORMAL ) // is instance monster

  0069e	83 78 48 0b	 cmp	 DWORD PTR [eax+72], 11	; 0000000bH
  006a2	72 3b		 jb	 SHORT $LN47@CreateAggr
; File C:\IAGOS\server\v18\Source\Source\_Common\Obj.h

; 180  : 	BOOL			IsDelete()	{ return (m_dwFlags & OBJ_FLAG_DELETE);  }

  006a4	f6 46 04 01	 test	 BYTE PTR [esi+4], 1

; 327  : 	return pObj && ( pObj->IsDelete() == FALSE ); 

  006a8	75 35		 jne	 SHORT $LN47@CreateAggr
; File C:\IAGOS\server\v18\Source\Source\_Common\Mover.h

; 1251 : 	BOOL			IsLive() { return m_pActMover->IsDie() == FALSE || m_nHitPoint > 0; }		// && ¸¦  ||·Î ąŮ˛ĺŔ˝.  !=¸¦ >·Î ąŮ˛Ţ

  006aa	8b 86 38 02 00
	00		 mov	 eax, DWORD PTR [esi+568]
  006b0	f7 40 04 00 00
	00 08		 test	 DWORD PTR [eax+4], 134217728 ; 08000000H
  006b7	74 09		 je	 SHORT $LN176@CreateAggr
  006b9	83 be f8 05 00
	00 00		 cmp	 DWORD PTR [esi+1528], 0
  006c0	7e 1d		 jle	 SHORT $LN47@CreateAggr
$LN176@CreateAggr:
; File C:\IAGOS\server\v18\Source\Source\_Common\ctrl.cpp

; 1438 : 								pCastTarget->PostAIMsg( AIMSG_SKILLSUPPORT, pMover->GetId(), pSkillProp->dwID, pTarget->GetId() );

  006c2	ff b1 bc 01 00
	00		 push	 DWORD PTR [ecx+444]
  006c8	8b 45 0c	 mov	 eax, DWORD PTR _pSkillProp$[ebp]
  006cb	8b ce		 mov	 ecx, esi
  006cd	ff 30		 push	 DWORD PTR [eax]
  006cf	8b 45 08	 mov	 eax, DWORD PTR _pSrc$[ebp]
  006d2	ff b0 bc 01 00
	00		 push	 DWORD PTR [eax+444]
  006d8	6a 16		 push	 22			; 00000016H
  006da	e8 00 00 00 00	 call	 ?PostAIMsg@CMover@@QAEXKKKK@Z ; CMover::PostAIMsg
$LN47@CreateAggr:

; 1439 : 							}
; 1440 : 						}
; 1441 : 					}
; 1442 : 				}
; 1443 : 			}
; 1444 : 			END_LINKMAP

  006df	8b b6 80 01 00
	00		 mov	 esi, DWORD PTR [esi+384]
  006e5	85 f6		 test	 esi, esi
  006e7	0f 85 e3 fe ff
	ff		 jne	 $LL22@CreateAggr
$LN182@CreateAggr:
  006ed	8b 4d dc	 mov	 ecx, DWORD PTR tv1985[ebp]
$LN19@CreateAggr:

; 1424 : 			FOR_LINKMAP( GetWorld(), vPos, pObj, nRange, CObj::linkDynamic, GetLayer() ) // get everyone in range

  006f0	83 c3 04	 add	 ebx, 4
  006f3	83 e9 01	 sub	 ecx, 1
  006f6	89 4d dc	 mov	 DWORD PTR tv1985[ebp], ecx
  006f9	0f 85 c1 fe ff
	ff		 jne	 $LL21@CreateAggr
  006ff	8b 55 e8	 mov	 edx, DWORD PTR __nLinkZMax$1$[ebp]
  00702	8b 45 ec	 mov	 eax, DWORD PTR $T5[ebp]
  00705	8b 75 e0	 mov	 esi, DWORD PTR __k$1$[ebp]
  00708	8b 5d e4	 mov	 ebx, DWORD PTR tv1999[ebp]
  0070b	8b 4d f8	 mov	 ecx, DWORD PTR __nMaxWidth$1$[ebp]
$LN16@CreateAggr:
  0070e	83 ea 01	 sub	 edx, 1
  00711	8d 04 01	 lea	 eax, DWORD PTR [ecx+eax]
  00714	89 55 e8	 mov	 DWORD PTR __nLinkZMax$1$[ebp], edx
  00717	89 45 ec	 mov	 DWORD PTR $T5[ebp], eax
  0071a	0f 85 85 fe ff
	ff		 jne	 $LL18@CreateAggr
$LN13@CreateAggr:
; File C:\IAGOS\server\v18\Source\Source\_Common\Obj.h

; 221  : 	CWorld*			GetWorld()	{ return m_pWorld; }

  00720	8b 5d fc	 mov	 ebx, DWORD PTR _this$1$[ebp]
; File C:\IAGOS\server\v18\Source\Source\_Common\ctrl.cpp

; 1424 : 			FOR_LINKMAP( GetWorld(), vPos, pObj, nRange, CObj::linkDynamic, GetLayer() ) // get everyone in range

  00723	8b 7d f0	 mov	 edi, DWORD PTR __i$1$[ebp]
  00726	47		 inc	 edi
  00727	89 7d f0	 mov	 DWORD PTR __i$1$[ebp], edi
  0072a	ff b3 b8 01 00
	00		 push	 DWORD PTR [ebx+440]
; File C:\IAGOS\server\v18\Source\Source\_Common\Obj.h

; 221  : 	CWorld*			GetWorld()	{ return m_pWorld; }

  00730	8b 8b 6c 01 00
	00		 mov	 ecx, DWORD PTR [ebx+364]
; File C:\IAGOS\server\v18\Source\Source\_Common\ctrl.cpp

; 1424 : 			FOR_LINKMAP( GetWorld(), vPos, pObj, nRange, CObj::linkDynamic, GetLayer() ) // get everyone in range

  00736	6a 01		 push	 1
  00738	83 c1 24	 add	 ecx, 36			; 00000024H
  0073b	e8 00 00 00 00	 call	 ?GetMaxLinkLevel@CLayeredLinkMap@@QAEHKH@Z ; CLayeredLinkMap::GetMaxLinkLevel
  00740	3b f8		 cmp	 edi, eax
  00742	0f 8c 59 fd ff
	ff		 jl	 $LL15@CreateAggr
$LN232@CreateAggr:
  00748	5e		 pop	 esi
$LN14@CreateAggr:
  00749	5f		 pop	 edi

; 1445 : 		}
; 1446 : 	}
; 1447 : }

  0074a	5b		 pop	 ebx
  0074b	8b e5		 mov	 esp, ebp
  0074d	5d		 pop	 ebp
  0074e	c2 0c 00	 ret	 12			; 0000000cH
?CreateAggro@CCtrl@@QAEXPAV1@PAUItemProp@@PAUAddSkillProp@@@Z ENDP ; CCtrl::CreateAggro
_TEXT	ENDS
; Function compile flags: /Ogtp
; File C:\IAGOS\server\v18\Source\Source\_Common\ctrl.cpp
;	COMDAT ?ProcessDeleteRespawn@CCtrl@@QAEHXZ
_TEXT	SEGMENT
?ProcessDeleteRespawn@CCtrl@@QAEHXZ PROC		; CCtrl::ProcessDeleteRespawn, COMDAT
; _this$ = ecx

; 151  : {

  00000	56		 push	 esi
  00001	8b f1		 mov	 esi, ecx

; 152  : 	// ¸®˝şĆůŔĚ RemoveŔĚ¸é »čÁ¦ ¸í·É 
; 153  : #ifdef __LAYER_1021
; 154  : 	CRespawnInfo* pRespawnInfo = GetWorld()->m_respawner.GetRespawnInfo( GetRespawn(), m_nRespawnType, GetLayer() );

  00003	ff b6 b8 01 00
	00		 push	 DWORD PTR [esi+440]
  00009	8b 8e 6c 01 00
	00		 mov	 ecx, DWORD PTR [esi+364]
  0000f	ff b6 08 02 00
	00		 push	 DWORD PTR [esi+520]
  00015	81 c1 b8 30 08
	00		 add	 ecx, 536760		; 000830b8H
  0001b	ff b6 04 02 00
	00		 push	 DWORD PTR [esi+516]
  00021	e8 00 00 00 00	 call	 ?GetRespawnInfo@CLayerdRespawner@@QAEPAVCRespawnInfo@@HHH@Z ; CLayerdRespawner::GetRespawnInfo

; 155  : #else	// __LAYER_1021
; 156  : 	CRespawnInfo* pRespawnInfo = GetWorld()->m_respawner.GetRespawnInfo( GetRespawn(), m_nRespawnType );
; 157  : #endif	// __LAYER_1021
; 158  : 	if( pRespawnInfo && pRespawnInfo->m_bRemove )

  00026	85 c0		 test	 eax, eax
  00028	74 14		 je	 SHORT $LN2@ProcessDel
  0002a	83 78 3c 00	 cmp	 DWORD PTR [eax+60], 0
  0002e	74 0e		 je	 SHORT $LN2@ProcessDel

; 159  : 	{
; 160  : 		Delete();

  00030	8b ce		 mov	 ecx, esi
  00032	e8 00 00 00 00	 call	 ?Delete@CObj@@QAEXXZ	; CObj::Delete

; 161  : 		return TRUE;

  00037	b8 01 00 00 00	 mov	 eax, 1
  0003c	5e		 pop	 esi

; 164  : }

  0003d	c3		 ret	 0
$LN2@ProcessDel:

; 162  : 	}
; 163  : 	return FALSE;

  0003e	33 c0		 xor	 eax, eax
  00040	5e		 pop	 esi

; 164  : }

  00041	c3		 ret	 0
?ProcessDeleteRespawn@CCtrl@@QAEHXZ ENDP		; CCtrl::ProcessDeleteRespawn
_TEXT	ENDS
; Function compile flags: /Ogtp
; File C:\IAGOS\server\v18\Source\Source\_Common\ctrl.cpp
;	COMDAT ?IsNearPC@CCtrl@@QAEHPAVCUser@@@Z
_TEXT	SEGMENT
_pUser$ = 8						; size = 4
?IsNearPC@CCtrl@@QAEHPAVCUser@@@Z PROC			; CCtrl::IsNearPC, COMDAT
; _this$ = ecx

; 204  : {

  00000	55		 push	 ebp
  00001	8b ec		 mov	 ebp, esp

; 205  : 	return IsNearPC( pUser->GetId() );

  00003	8b 45 08	 mov	 eax, DWORD PTR _pUser$[ebp]
  00006	ff b0 bc 01 00
	00		 push	 DWORD PTR [eax+444]
  0000c	e8 00 00 00 00	 call	 ?IsNearPC@CCtrl@@QAEHK@Z ; CCtrl::IsNearPC

; 206  : }

  00011	5d		 pop	 ebp
  00012	c2 04 00	 ret	 4
?IsNearPC@CCtrl@@QAEHPAVCUser@@@Z ENDP			; CCtrl::IsNearPC
_TEXT	ENDS
; Function compile flags: /Ogtp
; File C:\IAGOS\server\v18\Source\Source\_Common\ctrl.cpp
; File C:\Program Files\Microsoft Visual Studio\2022\Professional\VC\Tools\MSVC\14.44.35207\include\xtree
; File C:\IAGOS\server\v18\Source\Source\_Common\ctrl.cpp
; File C:\Program Files\Microsoft Visual Studio\2022\Professional\VC\Tools\MSVC\14.44.35207\include\xtree
; File C:\Program Files\Microsoft Visual Studio\2022\Professional\VC\Tools\MSVC\14.44.35207\include\type_traits
; File C:\Program Files\Microsoft Visual Studio\2022\Professional\VC\Tools\MSVC\14.44.35207\include\xtree
; File C:\Program Files\Microsoft Visual Studio\2022\Professional\VC\Tools\MSVC\14.44.35207\include\type_traits
; File C:\Program Files\Microsoft Visual Studio\2022\Professional\VC\Tools\MSVC\14.44.35207\include\xtree
; File C:\IAGOS\server\v18\Source\Source\_Common\ctrl.cpp
; File C:\Program Files\Microsoft Visual Studio\2022\Professional\VC\Tools\MSVC\14.44.35207\include\xtree
; File C:\IAGOS\server\v18\Source\Source\_Common\ctrl.cpp
;	COMDAT ?IsNearPC@CCtrl@@QAEHK@Z
_TEXT	SEGMENT
_objid$ = 8						; size = 4
?IsNearPC@CCtrl@@QAEHK@Z PROC				; CCtrl::IsNearPC, COMDAT
; _this$ = ecx

; 209  : {

  00000	55		 push	 ebp
  00001	8b ec		 mov	 ebp, esp
; File C:\Program Files\Microsoft Visual Studio\2022\Professional\VC\Tools\MSVC\14.44.35207\include\xtree

; 1632 :         while (!_Trynode->_Isnil) {

  00003	8b 55 08	 mov	 edx, DWORD PTR _objid$[ebp]
; File C:\IAGOS\server\v18\Source\Source\_Common\ctrl.cpp

; 209  : {

  00006	56		 push	 esi
; File C:\Program Files\Microsoft Visual Studio\2022\Professional\VC\Tools\MSVC\14.44.35207\include\xtree

; 1630 :         _Tree_find_result<_Nodeptr> _Result{{_Scary->_Myhead->_Parent, _Tree_child::_Right}, _Scary->_Myhead};

  00007	8b b1 0c 02 00
	00		 mov	 esi, DWORD PTR [ecx+524]
  0000d	8b ce		 mov	 ecx, esi
  0000f	8b 46 04	 mov	 eax, DWORD PTR [esi+4]

; 1632 :         while (!_Trynode->_Isnil) {

  00012	80 78 0d 00	 cmp	 BYTE PTR [eax+13], 0
  00016	75 14		 jne	 SHORT $LN10@IsNearPC
$LL9@IsNearPC:
; File C:\Program Files\Microsoft Visual Studio\2022\Professional\VC\Tools\MSVC\14.44.35207\include\type_traits

; 2380 :         return _Left < _Right;

  00018	39 50 10	 cmp	 DWORD PTR [eax+16], edx
; File C:\Program Files\Microsoft Visual Studio\2022\Professional\VC\Tools\MSVC\14.44.35207\include\xtree

; 1634 :             if (_DEBUG_LT_PRED(_Getcomp(), _Traits::_Kfn(_Trynode->_Myval), _Keyval)) {

  0001b	73 05		 jae	 SHORT $LN11@IsNearPC

; 1635 :                 _Result._Location._Child = _Tree_child::_Right;
; 1636 :                 _Trynode                 = _Trynode->_Right;

  0001d	8b 40 08	 mov	 eax, DWORD PTR [eax+8]

; 1637 :             } else {

  00020	eb 04		 jmp	 SHORT $LN12@IsNearPC
$LN11@IsNearPC:

; 1638 :                 _Result._Location._Child = _Tree_child::_Left;
; 1639 :                 _Result._Bound           = _Trynode;

  00022	8b c8		 mov	 ecx, eax

; 1640 :                 _Trynode                 = _Trynode->_Left;

  00024	8b 00		 mov	 eax, DWORD PTR [eax]
$LN12@IsNearPC:

; 1632 :         while (!_Trynode->_Isnil) {

  00026	80 78 0d 00	 cmp	 BYTE PTR [eax+13], 0
  0002a	74 ec		 je	 SHORT $LL9@IsNearPC
$LN10@IsNearPC:

; 1624 :         return !_Bound->_Isnil && !_DEBUG_LT_PRED(_Getcomp(), _Keyval, _Traits::_Kfn(_Bound->_Myval));

  0002c	80 79 0d 00	 cmp	 BYTE PTR [ecx+13], 0
  00030	75 05		 jne	 SHORT $LN6@IsNearPC
; File C:\Program Files\Microsoft Visual Studio\2022\Professional\VC\Tools\MSVC\14.44.35207\include\type_traits

; 2380 :         return _Left < _Right;

  00032	3b 51 10	 cmp	 edx, DWORD PTR [ecx+16]
; File C:\Program Files\Microsoft Visual Studio\2022\Professional\VC\Tools\MSVC\14.44.35207\include\xtree

; 1624 :         return !_Bound->_Isnil && !_DEBUG_LT_PRED(_Getcomp(), _Keyval, _Traits::_Kfn(_Bound->_Myval));

  00035	73 02		 jae	 SHORT $LN5@IsNearPC
$LN6@IsNearPC:

; 1389 :         return _Get_scary()->_Myhead;

  00037	8b ce		 mov	 ecx, esi
$LN5@IsNearPC:

; 237  :         return !(*this == _Right);

  00039	33 c0		 xor	 eax, eax

; 37   :     _Tree_unchecked_const_iterator(_Nodeptr _Pnode, const _Mytree* _Plist) noexcept : _Ptr(_Pnode) {

  0003b	3b ce		 cmp	 ecx, esi
; File C:\IAGOS\server\v18\Source\Source\_Common\ctrl.cpp

; 211  : 	return ( it != m_2pc.end() ) ;

  0003d	5e		 pop	 esi
; File C:\Program Files\Microsoft Visual Studio\2022\Professional\VC\Tools\MSVC\14.44.35207\include\xtree

; 237  :         return !(*this == _Right);

  0003e	0f 95 c0	 setne	 al
; File C:\IAGOS\server\v18\Source\Source\_Common\ctrl.cpp

; 212  : }

  00041	5d		 pop	 ebp
  00042	c2 04 00	 ret	 4
?IsNearPC@CCtrl@@QAEHK@Z ENDP				; CCtrl::IsNearPC
_TEXT	ENDS
; Function compile flags: /Ogtp
; File C:\IAGOS\server\v18\Source\Source\_Common\ctrl.cpp
; File C:\Program Files\Microsoft Visual Studio\2022\Professional\VC\Tools\MSVC\14.44.35207\include\xtree
; File C:\IAGOS\server\v18\Source\Source\_Common\ctrl.cpp
; File C:\Program Files\Microsoft Visual Studio\2022\Professional\VC\Tools\MSVC\14.44.35207\include\xtree
; File C:\IAGOS\server\v18\Source\Source\_Common\Ctrl.h
; File C:\IAGOS\server\v18\Source\Source\_Common\ctrl.cpp
; File C:\Program Files\Microsoft Visual Studio\2022\Professional\VC\Tools\MSVC\14.44.35207\include\xtree
; File C:\IAGOS\server\v18\Source\Source\_Common\Ctrl.h
; File C:\Program Files\Microsoft Visual Studio\2022\Professional\VC\Tools\MSVC\14.44.35207\include\xtree
; File C:\Program Files\Microsoft Visual Studio\2022\Professional\VC\Tools\MSVC\14.44.35207\include\type_traits
; File C:\Program Files\Microsoft Visual Studio\2022\Professional\VC\Tools\MSVC\14.44.35207\include\xtree
; File C:\Program Files\Microsoft Visual Studio\2022\Professional\VC\Tools\MSVC\14.44.35207\include\type_traits
; File C:\Program Files\Microsoft Visual Studio\2022\Professional\VC\Tools\MSVC\14.44.35207\include\xtree
; File C:\Program Files\Microsoft Visual Studio\2022\Professional\VC\Tools\MSVC\14.44.35207\include\type_traits
; File C:\Program Files\Microsoft Visual Studio\2022\Professional\VC\Tools\MSVC\14.44.35207\include\xtree
; File C:\Program Files\Microsoft Visual Studio\2022\Professional\VC\Tools\MSVC\14.44.35207\include\xutility
; File C:\Program Files\Microsoft Visual Studio\2022\Professional\VC\Tools\MSVC\14.44.35207\include\xtree
; File C:\Program Files\Microsoft Visual Studio\2022\Professional\VC\Tools\MSVC\14.44.35207\include\xutility
; File C:\Program Files\Microsoft Visual Studio\2022\Professional\VC\Tools\MSVC\14.44.35207\include\xtree
; File C:\Program Files\Microsoft Visual Studio\2022\Professional\VC\Tools\MSVC\14.44.35207\include\xutility
; File C:\Program Files\Microsoft Visual Studio\2022\Professional\VC\Tools\MSVC\14.44.35207\include\xtree
; File C:\Program Files\Microsoft Visual Studio\2022\Professional\VC\Tools\MSVC\14.44.35207\include\xutility
; File C:\Program Files\Microsoft Visual Studio\2022\Professional\VC\Tools\MSVC\14.44.35207\include\xtree
; File C:\Program Files\Microsoft Visual Studio\2022\Professional\VC\Tools\MSVC\14.44.35207\include\xmemory
; File C:\Program Files\Microsoft Visual Studio\2022\Professional\VC\Tools\MSVC\14.44.35207\include\xtree
; File C:\Program Files\Microsoft Visual Studio\2022\Professional\VC\Tools\MSVC\14.44.35207\include\xmemory
; File C:\Program Files\Microsoft Visual Studio\2022\Professional\VC\Tools\MSVC\14.44.35207\include\xtree
; File C:\IAGOS\server\v18\Source\Source\_Common\Ctrl.h
; File C:\IAGOS\server\v18\Source\Source\_Common\ctrl.cpp
; File C:\IAGOS\server\v18\Source\Source\WorldServer\user.h
; File C:\Program Files\Microsoft Visual Studio\2022\Professional\VC\Tools\MSVC\14.44.35207\include\xtree
; File C:\IAGOS\server\v18\Source\Source\_Common\ctrl.cpp
; File C:\Program Files\Microsoft Visual Studio\2022\Professional\VC\Tools\MSVC\14.44.35207\include\xtree
; File C:\IAGOS\server\v18\Source\Source\_Common\ctrl.cpp
; File C:\IAGOS\server\v18\Source\Source\WorldServer\user.h
; File C:\IAGOS\server\v18\Source\Source\_Common\ctrl.cpp
; File C:\IAGOS\server\v18\Source\Source\WorldServer\user.h
; File C:\Program Files\Microsoft Visual Studio\2022\Professional\VC\Tools\MSVC\14.44.35207\include\xtree
; File C:\IAGOS\server\v18\Source\Source\_Common\ctrl.cpp
;	COMDAT ?RemoveItFromView@CCtrl@@QAEXH@Z
_TEXT	SEGMENT
_objid$ = -28						; size = 4
_pUser$1$ = -28						; size = 4
tv1134 = -24						; size = 4
_it$1 = -20						; size = 4
_it$2 = -20						; size = 4
_this$1$ = -16						; size = 4
__Off$1$ = -12						; size = 4
__First$ = -8						; size = 4
_this$1$ = -4						; size = 4
_bRemoveall$ = 8					; size = 4
?RemoveItFromView@CCtrl@@QAEXH@Z PROC			; CCtrl::RemoveItFromView, COMDAT
; _this$ = ecx

; 167  : {

  00000	55		 push	 ebp
  00001	8b ec		 mov	 ebp, esp
  00003	83 ec 1c	 sub	 esp, 28			; 0000001cH
  00006	53		 push	 ebx
  00007	8b d9		 mov	 ebx, ecx
  00009	89 5d f0	 mov	 DWORD PTR _this$1$[ebp], ebx

; 168  : 	if( !GetWorld() )	

  0000c	83 bb 6c 01 00
	00 00		 cmp	 DWORD PTR [ebx+364], 0
  00013	0f 84 f2 01 00
	00		 je	 $LN12@RemoveItFr

; 169  : 		return;
; 170  : 
; 171  : 	CUser* pUser;
; 172  : 	if( GetType() == OT_MOVER && ( (CMover*)this )->IsPlayer() )

  00019	83 bb 70 01 00
	00 05		 cmp	 DWORD PTR [ebx+368], 5
  00020	56		 push	 esi
  00021	57		 push	 edi
  00022	0f 85 7d 01 00
	00		 jne	 $LN7@RemoveItFr
  00028	83 bb 30 02 00
	00 00		 cmp	 DWORD PTR [ebx+560], 0
  0002f	0f 84 70 01 00
	00		 je	 $LN7@RemoveItFr
; File C:\Program Files\Microsoft Visual Studio\2022\Professional\VC\Tools\MSVC\14.44.35207\include\xtree

; 1142 :         return iterator(_Scary->_Myhead->_Left, _Scary);

  00035	8b 8b 0c 02 00
	00		 mov	 ecx, DWORD PTR [ebx+524]
  0003b	8d 93 0c 02 00
	00		 lea	 edx, DWORD PTR [ebx+524]

; 37   :     _Tree_unchecked_const_iterator(_Nodeptr _Pnode, const _Mytree* _Plist) noexcept : _Ptr(_Pnode) {

  00041	8b 01		 mov	 eax, DWORD PTR [ecx]
  00043	89 45 ec	 mov	 DWORD PTR _it$1[ebp], eax

; 237  :         return !(*this == _Right);

  00046	3b c1		 cmp	 eax, ecx
; File C:\IAGOS\server\v18\Source\Source\_Common\ctrl.cpp

; 175  : 		while( it != m_2pc.end() )

  00048	0f 84 41 01 00
	00		 je	 $LN245@RemoveItFr
  0004e	66 90		 npad	 2
$LL2@RemoveItFr:

; 176  : 		{
; 177  : 			pUser = it->second;

  00050	8b 40 14	 mov	 eax, DWORD PTR [eax+20]
  00053	89 45 e4	 mov	 DWORD PTR _pUser$1$[ebp], eax

; 178  : 			if( pUser != this && pUser->PCRemoveKey( GetId() ) )

  00056	3b c3		 cmp	 eax, ebx
  00058	0f 84 18 01 00
	00		 je	 $LN9@RemoveItFr
; File C:\Program Files\Microsoft Visual Studio\2022\Professional\VC\Tools\MSVC\14.44.35207\include\xtree

; 1709 :         _Nodeptr _Pnode   = _Scary->_Myhead->_Parent;

  0005e	8b 90 0c 02 00
	00		 mov	 edx, DWORD PTR [eax+524]
; File C:\IAGOS\server\v18\Source\Source\_Common\Ctrl.h

; 121  : 	return m_2pc.erase( objid ) > 0;

  00064	05 0c 02 00 00	 add	 eax, 524		; 0000020cH
; File C:\IAGOS\server\v18\Source\Source\_Common\ctrl.cpp

; 178  : 			if( pUser != this && pUser->PCRemoveKey( GetId() ) )

  00069	8b 9b bc 01 00
	00		 mov	 ebx, DWORD PTR [ebx+444]
; File C:\Program Files\Microsoft Visual Studio\2022\Professional\VC\Tools\MSVC\14.44.35207\include\xtree

; 1710 :         _Nodeptr _Lonode  = _Scary->_Myhead; // end() if search fails

  0006f	8b f2		 mov	 esi, edx
; File C:\IAGOS\server\v18\Source\Source\_Common\Ctrl.h

; 121  : 	return m_2pc.erase( objid ) > 0;

  00071	89 45 fc	 mov	 DWORD PTR _this$1$[ebp], eax
; File C:\Program Files\Microsoft Visual Studio\2022\Professional\VC\Tools\MSVC\14.44.35207\include\xtree

; 1711 :         _Nodeptr _Hinode  = _Scary->_Myhead; // end() if search fails

  00074	8b fa		 mov	 edi, edx
  00076	89 55 e8	 mov	 DWORD PTR tv1134[ebp], edx
  00079	8b 4a 04	 mov	 ecx, DWORD PTR [edx+4]
  0007c	8b c1		 mov	 eax, ecx

; 1712 : 
; 1713 :         while (!_Pnode->_Isnil) {

  0007e	80 78 0d 00	 cmp	 BYTE PTR [eax+13], 0
  00082	75 21		 jne	 SHORT $LN91@RemoveItFr
$LL90@RemoveItFr:
; File C:\Program Files\Microsoft Visual Studio\2022\Professional\VC\Tools\MSVC\14.44.35207\include\type_traits

; 2380 :         return _Left < _Right;

  00084	8b 50 10	 mov	 edx, DWORD PTR [eax+16]
  00087	3b d3		 cmp	 edx, ebx
; File C:\Program Files\Microsoft Visual Studio\2022\Professional\VC\Tools\MSVC\14.44.35207\include\xtree

; 1715 :             if (_DEBUG_LT_PRED(_Comp, _Nodekey, _Keyval)) {

  00089	73 05		 jae	 SHORT $LN94@RemoveItFr

; 1716 :                 _Pnode = _Pnode->_Right; // descend right subtree

  0008b	8b 40 08	 mov	 eax, DWORD PTR [eax+8]

; 1717 :             } else { // _Pnode not less than _Keyval, remember it

  0008e	eb 0f		 jmp	 SHORT $LN95@RemoveItFr
$LN94@RemoveItFr:

; 1718 :                 if (_Hinode->_Isnil && _DEBUG_LT_PRED(_Comp, _Keyval, _Nodekey)) {

  00090	80 7f 0d 00	 cmp	 BYTE PTR [edi+13], 0
  00094	74 05		 je	 SHORT $LN96@RemoveItFr
; File C:\Program Files\Microsoft Visual Studio\2022\Professional\VC\Tools\MSVC\14.44.35207\include\type_traits

; 2380 :         return _Left < _Right;

  00096	3b da		 cmp	 ebx, edx
; File C:\Program Files\Microsoft Visual Studio\2022\Professional\VC\Tools\MSVC\14.44.35207\include\xtree

; 1718 :                 if (_Hinode->_Isnil && _DEBUG_LT_PRED(_Comp, _Keyval, _Nodekey)) {

  00098	0f 42 f8	 cmovb	 edi, eax
$LN96@RemoveItFr:

; 1719 :                     _Hinode = _Pnode; // _Pnode greater, remember it
; 1720 :                 }
; 1721 : 
; 1722 :                 _Lonode = _Pnode;

  0009b	8b f0		 mov	 esi, eax

; 1723 :                 _Pnode  = _Pnode->_Left; // descend left subtree

  0009d	8b 00		 mov	 eax, DWORD PTR [eax]
$LN95@RemoveItFr:

; 1712 : 
; 1713 :         while (!_Pnode->_Isnil) {

  0009f	80 78 0d 00	 cmp	 BYTE PTR [eax+13], 0
  000a3	74 df		 je	 SHORT $LL90@RemoveItFr
$LN91@RemoveItFr:

; 1724 :             }
; 1725 :         }
; 1726 : 
; 1727 :         _Pnode = _Hinode->_Isnil ? _Scary->_Myhead->_Parent : _Hinode->_Left; // continue scan for upper bound

  000a5	80 7f 0d 00	 cmp	 BYTE PTR [edi+13], 0
  000a9	75 02		 jne	 SHORT $LN101@RemoveItFr
  000ab	8b 0f		 mov	 ecx, DWORD PTR [edi]
$LN101@RemoveItFr:

; 1728 :         while (!_Pnode->_Isnil) {

  000ad	80 79 0d 00	 cmp	 BYTE PTR [ecx+13], 0
  000b1	75 14		 jne	 SHORT $LN93@RemoveItFr
$LL92@RemoveItFr:
; File C:\Program Files\Microsoft Visual Studio\2022\Professional\VC\Tools\MSVC\14.44.35207\include\type_traits

; 2380 :         return _Left < _Right;

  000b3	3b 59 10	 cmp	 ebx, DWORD PTR [ecx+16]
; File C:\Program Files\Microsoft Visual Studio\2022\Professional\VC\Tools\MSVC\14.44.35207\include\xtree

; 1729 :             if (_DEBUG_LT_PRED(_Getcomp(), _Keyval, _Traits::_Kfn(_Pnode->_Myval))) {

  000b6	73 06		 jae	 SHORT $LN97@RemoveItFr

; 1730 :                 // _Pnode greater than _Keyval, remember it
; 1731 :                 _Hinode = _Pnode;

  000b8	8b f9		 mov	 edi, ecx

; 1732 :                 _Pnode  = _Pnode->_Left; // descend left subtree

  000ba	8b 09		 mov	 ecx, DWORD PTR [ecx]

; 1733 :             } else {

  000bc	eb 03		 jmp	 SHORT $LN98@RemoveItFr
$LN97@RemoveItFr:

; 1734 :                 _Pnode = _Pnode->_Right; // descend right subtree

  000be	8b 49 08	 mov	 ecx, DWORD PTR [ecx+8]
$LN98@RemoveItFr:

; 1728 :         while (!_Pnode->_Isnil) {

  000c1	80 79 0d 00	 cmp	 BYTE PTR [ecx+13], 0
  000c5	74 ec		 je	 SHORT $LL92@RemoveItFr
$LN93@RemoveItFr:
; File C:\Program Files\Microsoft Visual Studio\2022\Professional\VC\Tools\MSVC\14.44.35207\include\xutility

; 1667 :         _Iter_diff_t<_InIt> _Off = 0;

  000c7	33 db		 xor	 ebx, ebx
  000c9	8b c6		 mov	 eax, esi
  000cb	89 5d f4	 mov	 DWORD PTR __Off$1$[ebp], ebx
; File C:\Program Files\Microsoft Visual Studio\2022\Professional\VC\Tools\MSVC\14.44.35207\include\xtree

; 101  :         return !(*this == _Right);

  000ce	3b f7		 cmp	 esi, edi
; File C:\Program Files\Microsoft Visual Studio\2022\Professional\VC\Tools\MSVC\14.44.35207\include\xutility

; 1668 :         for (; _UFirst != _ULast; ++_UFirst) {

  000d0	74 44		 je	 SHORT $LN126@RemoveItFr
$LL127@RemoveItFr:
; File C:\Program Files\Microsoft Visual Studio\2022\Professional\VC\Tools\MSVC\14.44.35207\include\xtree

; 50   :         if (_Ptr->_Right->_Isnil) { // climb looking for right subtree

  000d2	8b 48 08	 mov	 ecx, DWORD PTR [eax+8]
; File C:\Program Files\Microsoft Visual Studio\2022\Professional\VC\Tools\MSVC\14.44.35207\include\xutility

; 1669 :             ++_Off;

  000d5	43		 inc	 ebx
; File C:\Program Files\Microsoft Visual Studio\2022\Professional\VC\Tools\MSVC\14.44.35207\include\xtree

; 50   :         if (_Ptr->_Right->_Isnil) { // climb looking for right subtree

  000d6	80 79 0d 00	 cmp	 BYTE PTR [ecx+13], 0
  000da	74 1d		 je	 SHORT $LN132@RemoveItFr

; 51   :             _Nodeptr _Pnode;
; 52   :             while (!(_Pnode = _Ptr->_Parent)->_Isnil && _Ptr == _Pnode->_Right) {

  000dc	8b 48 04	 mov	 ecx, DWORD PTR [eax+4]
  000df	80 79 0d 00	 cmp	 BYTE PTR [ecx+13], 0
  000e3	75 10		 jne	 SHORT $LN262@RemoveItFr
$LL130@RemoveItFr:
  000e5	3b 41 08	 cmp	 eax, DWORD PTR [ecx+8]
  000e8	75 0b		 jne	 SHORT $LN262@RemoveItFr

; 53   :                 _Ptr = _Pnode; // ==> parent while right subtree

  000ea	8b c1		 mov	 eax, ecx
  000ec	8b 49 04	 mov	 ecx, DWORD PTR [ecx+4]
  000ef	80 79 0d 00	 cmp	 BYTE PTR [ecx+13], 0
  000f3	74 f0		 je	 SHORT $LL130@RemoveItFr
$LN262@RemoveItFr:

; 54   :             }
; 55   : 
; 56   :             _Ptr = _Pnode; // ==> parent (head if end())

  000f5	8b c1		 mov	 eax, ecx

; 57   :         } else {

  000f7	eb 16		 jmp	 SHORT $LN138@RemoveItFr
$LN132@RemoveItFr:

; 58   :             _Ptr = _Mytree::_Min(_Ptr->_Right); // ==> smallest of right subtree

  000f9	8b c1		 mov	 eax, ecx

; 476  :         while (!_Pnode->_Left->_Isnil) {

  000fb	8b 10		 mov	 edx, DWORD PTR [eax]
  000fd	80 7a 0d 00	 cmp	 BYTE PTR [edx+13], 0
  00101	75 0c		 jne	 SHORT $LN138@RemoveItFr
$LL137@RemoveItFr:
  00103	8b 0a		 mov	 ecx, DWORD PTR [edx]

; 477  :             _Pnode = _Pnode->_Left;

  00105	8b c2		 mov	 eax, edx
  00107	8b d1		 mov	 edx, ecx
  00109	80 79 0d 00	 cmp	 BYTE PTR [ecx+13], 0
  0010d	74 f4		 je	 SHORT $LL137@RemoveItFr
$LN138@RemoveItFr:

; 101  :         return !(*this == _Right);

  0010f	3b c7		 cmp	 eax, edi
; File C:\Program Files\Microsoft Visual Studio\2022\Professional\VC\Tools\MSVC\14.44.35207\include\xutility

; 1668 :         for (; _UFirst != _ULast; ++_UFirst) {

  00111	75 bf		 jne	 SHORT $LL127@RemoveItFr
  00113	89 5d f4	 mov	 DWORD PTR __Off$1$[ebp], ebx
$LN126@RemoveItFr:
; File C:\Program Files\Microsoft Visual Studio\2022\Professional\VC\Tools\MSVC\14.44.35207\include\xtree

; 96   :         return _Ptr == _Right._Ptr;

  00116	8b 45 e8	 mov	 eax, DWORD PTR tv1134[ebp]

; 1329 :         _Erase_unchecked(_First, _Last);

  00119	89 75 f8	 mov	 DWORD PTR __First$[ebp], esi

; 96   :         return _Ptr == _Right._Ptr;

  0011c	3b 30		 cmp	 esi, DWORD PTR [eax]

; 1311 :         if (_First == _Begin && _Last._Ptr->_Isnil) {

  0011e	75 10		 jne	 SHORT $LN236@RemoveItFr
  00120	80 7f 0d 00	 cmp	 BYTE PTR [edi+13], 0
  00124	74 0a		 je	 SHORT $LN236@RemoveItFr

; 1312 :             // erase all
; 1313 :             clear();

  00126	8b 4d fc	 mov	 ecx, DWORD PTR _this$1$[ebp]
  00129	e8 00 00 00 00	 call	 ?clear@?$_Tree@V?$_Tmap_traits@KPAVCUser@@U?$less@K@std@@V?$allocator@U?$pair@$$CBKPAVCUser@@@std@@@3@$0A@@std@@@std@@QAEXXZ ; std::_Tree<std::_Tmap_traits<unsigned long,CUser *,std::less<unsigned long>,std::allocator<std::pair<unsigned long const ,CUser *> >,0> >::clear

; 1314 :             return _Last._Ptr;

  0012e	eb 2c		 jmp	 SHORT $LN149@RemoveItFr
$LN236@RemoveItFr:

; 101  :         return !(*this == _Right);

  00130	3b f7		 cmp	 esi, edi

; 1318 :         while (_First != _Last) {

  00132	74 28		 je	 SHORT $LN149@RemoveItFr
  00134	8b 5d fc	 mov	 ebx, DWORD PTR _this$1$[ebp]
$LL148@RemoveItFr:

; 66   :         ++*this;

  00137	8d 4d f8	 lea	 ecx, DWORD PTR __First$[ebp]
  0013a	e8 00 00 00 00	 call	 ??E?$_Tree_unchecked_const_iterator@V?$_Tree_val@U?$_Tree_simple_types@U?$pair@$$CBKPAVCUser@@@std@@@std@@@std@@U_Iterator_base0@2@@std@@QAEAAV01@XZ ; std::_Tree_unchecked_const_iterator<std::_Tree_val<std::_Tree_simple_types<std::pair<unsigned long const ,CUser *> > >,std::_Iterator_base0>::operator++

; 1303 :         _Nodeptr _Erasednode = _Scary->_Extract(_Where); // node to erase

  0013f	56		 push	 esi
  00140	8b cb		 mov	 ecx, ebx
  00142	e8 00 00 00 00	 call	 ?_Extract@?$_Tree_val@U?$_Tree_simple_types@U?$pair@$$CBKPAVCUser@@@std@@@std@@@std@@QAEPAU?$_Tree_node@U?$pair@$$CBKPAVCUser@@@std@@PAX@2@V?$_Tree_unchecked_const_iterator@V?$_Tree_val@U?$_Tree_simple_types@U?$pair@$$CBKPAVCUser@@@std@@@std@@@std@@U_Iterator_base0@2@@2@@Z ; std::_Tree_val<std::_Tree_simple_types<std::pair<unsigned long const ,CUser *> > >::_Extract
; File C:\Program Files\Microsoft Visual Studio\2022\Professional\VC\Tools\MSVC\14.44.35207\include\xmemory

; 289  :         ::operator delete(_Ptr, _Bytes);

  00147	6a 18		 push	 24			; 00000018H
  00149	50		 push	 eax
  0014a	e8 00 00 00 00	 call	 ??3@YAXPAXI@Z		; operator delete
; File C:\Program Files\Microsoft Visual Studio\2022\Professional\VC\Tools\MSVC\14.44.35207\include\xtree

; 101  :         return !(*this == _Right);

  0014f	8b 75 f8	 mov	 esi, DWORD PTR __First$[ebp]
; File C:\Program Files\Microsoft Visual Studio\2022\Professional\VC\Tools\MSVC\14.44.35207\include\xmemory

; 289  :         ::operator delete(_Ptr, _Bytes);

  00152	83 c4 08	 add	 esp, 8
; File C:\Program Files\Microsoft Visual Studio\2022\Professional\VC\Tools\MSVC\14.44.35207\include\xtree

; 101  :         return !(*this == _Right);

  00155	3b f7		 cmp	 esi, edi

; 1318 :         while (_First != _Last) {

  00157	75 de		 jne	 SHORT $LL148@RemoveItFr
  00159	8b 5d f4	 mov	 ebx, DWORD PTR __Off$1$[ebp]
$LN149@RemoveItFr:
; File C:\IAGOS\server\v18\Source\Source\_Common\Ctrl.h

; 121  : 	return m_2pc.erase( objid ) > 0;

  0015c	85 db		 test	 ebx, ebx
; File C:\IAGOS\server\v18\Source\Source\_Common\ctrl.cpp

; 178  : 			if( pUser != this && pUser->PCRemoveKey( GetId() ) )

  0015e	8b 5d f0	 mov	 ebx, DWORD PTR _this$1$[ebp]
  00161	74 13		 je	 SHORT $LN9@RemoveItFr
; File C:\IAGOS\server\v18\Source\Source\WorldServer\user.h

; 253  : 	void			AddRemoveObj( OBJID objid )		{ AddHdr( objid, SNAPSHOTTYPE_DEL_OBJ );	}

  00163	8b 4d e4	 mov	 ecx, DWORD PTR _pUser$1$[ebp]
  00166	68 f1 00 00 00	 push	 241			; 000000f1H
  0016b	ff b3 bc 01 00
	00		 push	 DWORD PTR [ebx+444]
  00171	e8 00 00 00 00	 call	 ?AddHdr@CUser@@QAEXKG@Z	; CUser::AddHdr
$LN9@RemoveItFr:
; File C:\Program Files\Microsoft Visual Studio\2022\Professional\VC\Tools\MSVC\14.44.35207\include\xtree

; 198  :         _Mybase::operator++();

  00176	8d 4d ec	 lea	 ecx, DWORD PTR _it$1[ebp]
  00179	e8 00 00 00 00	 call	 ??E?$_Tree_unchecked_const_iterator@V?$_Tree_val@U?$_Tree_simple_types@U?$pair@$$CBKPAVCUser@@@std@@@std@@@std@@U_Iterator_base0@2@@std@@QAEAAV01@XZ ; std::_Tree_unchecked_const_iterator<std::_Tree_val<std::_Tree_simple_types<std::pair<unsigned long const ,CUser *> > >,std::_Iterator_base0>::operator++

; 237  :         return !(*this == _Right);

  0017e	8b 45 ec	 mov	 eax, DWORD PTR _it$1[ebp]
  00181	8d 93 0c 02 00
	00		 lea	 edx, DWORD PTR [ebx+524]
  00187	3b 02		 cmp	 eax, DWORD PTR [edx]
; File C:\IAGOS\server\v18\Source\Source\_Common\ctrl.cpp

; 175  : 		while( it != m_2pc.end() )

  00189	0f 85 c1 fe ff
	ff		 jne	 $LL2@RemoveItFr
$LN245@RemoveItFr:

; 179  : 				pUser->AddRemoveObj( GetId() );
; 180  : 			++it;
; 181  : 		}
; 182  : 
; 183  : 		if( bRemoveall )

  0018f	83 7d 08 00	 cmp	 DWORD PTR _bRemoveall$[ebp], 0
  00193	74 74		 je	 SHORT $LN291@RemoveItFr

; 184  : 			m_2pc.clear();

  00195	8b ca		 mov	 ecx, edx

; 198  : 			m_2pc.clear();

  00197	e8 00 00 00 00	 call	 ?clear@?$_Tree@V?$_Tmap_traits@KPAVCUser@@U?$less@K@std@@V?$allocator@U?$pair@$$CBKPAVCUser@@@std@@@3@$0A@@std@@@std@@QAEXXZ ; std::_Tree<std::_Tmap_traits<unsigned long,CUser *,std::less<unsigned long>,std::allocator<std::pair<unsigned long const ,CUser *> >,0> >::clear
  0019c	5f		 pop	 edi
  0019d	5e		 pop	 esi
  0019e	5b		 pop	 ebx

; 199  : 	}
; 200  : 
; 201  : }

  0019f	8b e5		 mov	 esp, ebp
  001a1	5d		 pop	 ebp
  001a2	c2 04 00	 ret	 4
$LN7@RemoveItFr:
; File C:\Program Files\Microsoft Visual Studio\2022\Professional\VC\Tools\MSVC\14.44.35207\include\xtree

; 1142 :         return iterator(_Scary->_Myhead->_Left, _Scary);

  001a5	8b 8b 0c 02 00
	00		 mov	 ecx, DWORD PTR [ebx+524]

; 37   :     _Tree_unchecked_const_iterator(_Nodeptr _Pnode, const _Mytree* _Plist) noexcept : _Ptr(_Pnode) {

  001ab	8b 01		 mov	 eax, DWORD PTR [ecx]
  001ad	89 45 ec	 mov	 DWORD PTR _it$2[ebp], eax

; 237  :         return !(*this == _Right);

  001b0	3b c1		 cmp	 eax, ecx
; File C:\IAGOS\server\v18\Source\Source\_Common\ctrl.cpp

; 189  : 		while( it != m_2pc.end() )

  001b2	74 44		 je	 SHORT $LN5@RemoveItFr
$LL4@RemoveItFr:

; 190  : 		{
; 191  : 			pUser = it->second;

  001b4	8b 70 14	 mov	 esi, DWORD PTR [eax+20]

; 192  : 			if( pUser->NPCRemoveKey( GetId() ) )

  001b7	8b 83 bc 01 00
	00		 mov	 eax, DWORD PTR [ebx+444]
  001bd	89 45 e4	 mov	 DWORD PTR _objid$[ebp], eax
; File C:\IAGOS\server\v18\Source\Source\WorldServer\user.h

; 208  : 	BOOL			NPCRemoveKey( OBJID objid )		{	return m_2npc.erase( objid ) > 0; }

  001c0	8d 45 e4	 lea	 eax, DWORD PTR _objid$[ebp]
  001c3	50		 push	 eax
  001c4	8d 8e 68 55 00
	00		 lea	 ecx, DWORD PTR [esi+21864]
  001ca	e8 00 00 00 00	 call	 ?erase@?$_Tree@V?$_Tmap_traits@KPAVCCtrl@@U?$less@K@std@@V?$allocator@U?$pair@$$CBKPAVCCtrl@@@std@@@3@$0A@@std@@@std@@QAEIABK@Z ; std::_Tree<std::_Tmap_traits<unsigned long,CCtrl *,std::less<unsigned long>,std::allocator<std::pair<unsigned long const ,CCtrl *> >,0> >::erase
  001cf	85 c0		 test	 eax, eax
; File C:\IAGOS\server\v18\Source\Source\_Common\ctrl.cpp

; 192  : 			if( pUser->NPCRemoveKey( GetId() ) )

  001d1	74 12		 je	 SHORT $LN11@RemoveItFr
; File C:\IAGOS\server\v18\Source\Source\WorldServer\user.h

; 253  : 	void			AddRemoveObj( OBJID objid )		{ AddHdr( objid, SNAPSHOTTYPE_DEL_OBJ );	}

  001d3	68 f1 00 00 00	 push	 241			; 000000f1H
  001d8	ff b3 bc 01 00
	00		 push	 DWORD PTR [ebx+444]
  001de	8b ce		 mov	 ecx, esi
  001e0	e8 00 00 00 00	 call	 ?AddHdr@CUser@@QAEXKG@Z	; CUser::AddHdr
$LN11@RemoveItFr:
; File C:\Program Files\Microsoft Visual Studio\2022\Professional\VC\Tools\MSVC\14.44.35207\include\xtree

; 198  :         _Mybase::operator++();

  001e5	8d 4d ec	 lea	 ecx, DWORD PTR _it$2[ebp]
  001e8	e8 00 00 00 00	 call	 ??E?$_Tree_unchecked_const_iterator@V?$_Tree_val@U?$_Tree_simple_types@U?$pair@$$CBKPAVCUser@@@std@@@std@@@std@@U_Iterator_base0@2@@std@@QAEAAV01@XZ ; std::_Tree_unchecked_const_iterator<std::_Tree_val<std::_Tree_simple_types<std::pair<unsigned long const ,CUser *> > >,std::_Iterator_base0>::operator++

; 237  :         return !(*this == _Right);

  001ed	8b 45 ec	 mov	 eax, DWORD PTR _it$2[ebp]
  001f0	3b 83 0c 02 00
	00		 cmp	 eax, DWORD PTR [ebx+524]
; File C:\IAGOS\server\v18\Source\Source\_Common\ctrl.cpp

; 189  : 		while( it != m_2pc.end() )

  001f6	75 bc		 jne	 SHORT $LL4@RemoveItFr
$LN5@RemoveItFr:

; 193  : 				pUser->AddRemoveObj( GetId() );
; 194  : 			++it;
; 195  : 		}
; 196  : 
; 197  : 		if( bRemoveall )

  001f8	83 7d 08 00	 cmp	 DWORD PTR _bRemoveall$[ebp], 0
  001fc	74 0b		 je	 SHORT $LN291@RemoveItFr

; 198  : 			m_2pc.clear();

  001fe	8d 8b 0c 02 00
	00		 lea	 ecx, DWORD PTR [ebx+524]
  00204	e8 00 00 00 00	 call	 ?clear@?$_Tree@V?$_Tmap_traits@KPAVCUser@@U?$less@K@std@@V?$allocator@U?$pair@$$CBKPAVCUser@@@std@@@3@$0A@@std@@@std@@QAEXXZ ; std::_Tree<std::_Tmap_traits<unsigned long,CUser *,std::less<unsigned long>,std::allocator<std::pair<unsigned long const ,CUser *> >,0> >::clear
$LN291@RemoveItFr:
  00209	5f		 pop	 edi
  0020a	5e		 pop	 esi
$LN12@RemoveItFr:
  0020b	5b		 pop	 ebx

; 199  : 	}
; 200  : 
; 201  : }

  0020c	8b e5		 mov	 esp, ebp
  0020e	5d		 pop	 ebp
  0020f	c2 04 00	 ret	 4
?RemoveItFromView@CCtrl@@QAEXH@Z ENDP			; CCtrl::RemoveItFromView
_TEXT	ENDS
; Function compile flags: /Ogtp
; File C:\IAGOS\server\v18\Source\Source\_Common\ctrl.cpp
;	COMDAT ?SetIAObjLink@CCtrl@@QAEXPAVCShip@@@Z
_TEXT	SEGMENT
_pIA$ = 8						; size = 4
?SetIAObjLink@CCtrl@@QAEXPAVCShip@@@Z PROC		; CCtrl::SetIAObjLink, COMDAT
; _this$ = ecx

; 92   : {

  00000	55		 push	 ebp
  00001	8b ec		 mov	 ebp, esp
  00003	56		 push	 esi

; 93   : 	if( pIA != NULL )	// IAżˇ ¸µĹ©˝ĂÄŃľß ÇŇ¶§...

  00004	8b 75 08	 mov	 esi, DWORD PTR _pIA$[ebp]
  00007	57		 push	 edi
  00008	8b f9		 mov	 edi, ecx
  0000a	8b 8f c0 01 00
	00		 mov	 ecx, DWORD PTR [edi+448]
  00010	85 f6		 test	 esi, esi
  00012	74 2e		 je	 SHORT $LN2@SetIAObjLi

; 94   : 	{
; 95   : 		if( m_pIAObjLink != pIA )				// ±âÁ¸żˇ ¸µĹ©¶ű ´Ů¸Ą¸µĹ©°ˇ µÉ¶§¸¸...

  00014	3b ce		 cmp	 ecx, esi
  00016	74 39		 je	 SHORT $LN8@SetIAObjLi

; 96   : 			if( pIA->FindCtrl( GetId() ) == NULL )			// pIAżˇ ŔĚąĚ this°ˇ µî·ĎµÇľú´ÂÁö ş¸°í...

  00018	ff b7 bc 01 00
	00		 push	 DWORD PTR [edi+444]
  0001e	8b ce		 mov	 ecx, esi
  00020	e8 00 00 00 00	 call	 ?FindCtrl@CShip@@QAEPAKK@Z ; CShip::FindCtrl
  00025	85 c0		 test	 eax, eax
  00027	75 28		 jne	 SHORT $LN8@SetIAObjLi

; 97   : 				pIA->AddCtrl( GetId() );			// IAżŔşęÁ§Ć®żˇ this¸¦ µî·Ď˝ĂĹ´.

  00029	ff b7 bc 01 00
	00		 push	 DWORD PTR [edi+444]
  0002f	8b ce		 mov	 ecx, esi
  00031	e8 00 00 00 00	 call	 ?AddCtrl@CShip@@QAEXK@Z	; CShip::AddCtrl

; 102  : 	}
; 103  : 
; 104  : 	m_pIAObjLink = pIA;
; 105  : }

  00036	89 b7 c0 01 00
	00		 mov	 DWORD PTR [edi+448], esi
  0003c	5f		 pop	 edi
  0003d	5e		 pop	 esi
  0003e	5d		 pop	 ebp
  0003f	c2 04 00	 ret	 4
$LN2@SetIAObjLi:

; 98   : 	} else
; 99   : 	{
; 100  : 		if( m_pIAObjLink )

  00042	85 c9		 test	 ecx, ecx
  00044	74 0b		 je	 SHORT $LN8@SetIAObjLi

; 101  : 			m_pIAObjLink->RemoveCtrl( GetId() );

  00046	ff b7 bc 01 00
	00		 push	 DWORD PTR [edi+444]
  0004c	e8 00 00 00 00	 call	 ?RemoveCtrl@CShip@@QAEXK@Z ; CShip::RemoveCtrl
$LN8@SetIAObjLi:

; 102  : 	}
; 103  : 
; 104  : 	m_pIAObjLink = pIA;
; 105  : }

  00051	89 b7 c0 01 00
	00		 mov	 DWORD PTR [edi+448], esi
  00057	5f		 pop	 edi
  00058	5e		 pop	 esi
  00059	5d		 pop	 ebp
  0005a	c2 04 00	 ret	 4
?SetIAObjLink@CCtrl@@QAEXPAVCShip@@@Z ENDP		; CCtrl::SetIAObjLink
_TEXT	ENDS
; Function compile flags: /Ogtp
; File C:\IAGOS\server\v18\Source\Source\_Common\ctrl.cpp
;	COMDAT ?DoActiveSkill@CCtrl@@QAEXKHPAV1@_NH@Z
_TEXT	SEGMENT
_pAddSkillProp$ = -8					; size = 4
_pSkillProp$ = -4					; size = 4
_dwSkill$ = 8						; size = 4
_nLevel$ = 12						; size = 4
_pTarget$ = 16						; size = 4
_bIgnoreProb$ = 20					; size = 1
_bControl$ = 24						; size = 4
?DoActiveSkill@CCtrl@@QAEXKHPAV1@_NH@Z PROC		; CCtrl::DoActiveSkill, COMDAT
; _this$ = ecx

; 1787 : {

  00000	55		 push	 ebp
  00001	8b ec		 mov	 ebp, esp
  00003	83 ec 08	 sub	 esp, 8
  00006	57		 push	 edi

; 1788 : 	ItemProp *pSkillProp;
; 1789 : 	AddSkillProp *pAddSkillProp;
; 1790 : 	GetSkillProp( &pSkillProp, &pAddSkillProp, dwSkill, nLevel, "DoActiveSkill" );

  00007	68 00 00 00 00	 push	 OFFSET ??_C@_0O@CLKCIBDE@DoActiveSkill@
  0000c	ff 75 0c	 push	 DWORD PTR _nLevel$[ebp]
  0000f	8b f9		 mov	 edi, ecx
  00011	8d 4d f8	 lea	 ecx, DWORD PTR _pAddSkillProp$[ebp]
  00014	ff 75 08	 push	 DWORD PTR _dwSkill$[ebp]
  00017	51		 push	 ecx
  00018	8b 07		 mov	 eax, DWORD PTR [edi]
  0001a	8d 4d fc	 lea	 ecx, DWORD PTR _pSkillProp$[ebp]
  0001d	51		 push	 ecx
  0001e	8b cf		 mov	 ecx, edi
  00020	ff 50 30	 call	 DWORD PTR [eax+48]

; 1791 : 	
; 1792 : 	int nRet;
; 1793 : 	if( pSkillProp->dwExeTarget == EXT_MAGICATKSHOT || 

  00023	8b 4d fc	 mov	 ecx, DWORD PTR _pSkillProp$[ebp]
  00026	8b 81 c4 01 00
	00		 mov	 eax, DWORD PTR [ecx+452]
  0002c	83 f8 0e	 cmp	 eax, 14			; 0000000eH
  0002f	74 37		 je	 SHORT $LN4@DoActiveSk
  00031	83 f8 03	 cmp	 eax, 3
  00034	74 32		 je	 SHORT $LN4@DoActiveSk

; 1794 : 		pSkillProp->dwExeTarget == EXT_MAGICSHOT )		// ˝î´Â ÇüĹÂ¸é sfx¸¸ ąß»ý
; 1795 : 		nRet = ShootSkill( pTarget, pSkillProp, pAddSkillProp );
; 1796 : 	else
; 1797 : 	{
; 1798 : #if __VER >= 8 // __S8_PK
; 1799 : 		nRet = DoApplySkill( pTarget, pSkillProp, pAddSkillProp, bIgnoreProb, 0, FALSE, bControl );

  00036	56		 push	 esi
  00037	ff 75 18	 push	 DWORD PTR _bControl$[ebp]
  0003a	8b 75 10	 mov	 esi, DWORD PTR _pTarget$[ebp]
  0003d	6a 00		 push	 0
  0003f	6a 00		 push	 0
  00041	ff 75 14	 push	 DWORD PTR _bIgnoreProb$[ebp]
  00044	ff 75 f8	 push	 DWORD PTR _pAddSkillProp$[ebp]
  00047	51		 push	 ecx
  00048	56		 push	 esi
  00049	8b cf		 mov	 ecx, edi
  0004b	e8 00 00 00 00	 call	 ?DoApplySkill@CCtrl@@QAEHPAV1@PAUItemProp@@PAUAddSkillProp@@_NHHH@Z ; CCtrl::DoApplySkill

; 1800 : #else // __VER >= 8 // __S8_PK
; 1801 : 		nRet = DoApplySkill( pTarget, pSkillProp, pAddSkillProp, bIgnoreProb );
; 1802 : #endif // __VER >= 8 // __S8_PK
; 1803 :  #ifdef __WORLDSERVER		
; 1804 : 		g_UserMng.AddDoApplySkill( this, pTarget->GetId(), dwSkill, nLevel );

  00050	ff 75 0c	 push	 DWORD PTR _nLevel$[ebp]
  00053	b9 00 00 00 00	 mov	 ecx, OFFSET ?g_UserMng@@3VCUserMng@@A ; g_UserMng
  00058	ff 75 08	 push	 DWORD PTR _dwSkill$[ebp]
  0005b	ff b6 bc 01 00
	00		 push	 DWORD PTR [esi+444]
  00061	57		 push	 edi
  00062	e8 00 00 00 00	 call	 ?AddDoApplySkill@CUserMng@@QAEXPAVCCtrl@@KKK@Z ; CUserMng::AddDoApplySkill
  00067	5e		 pop	 esi
$LN4@DoActiveSk:
  00068	5f		 pop	 edi

; 1805 :  #endif
; 1806 : 	}
; 1807 : }

  00069	8b e5		 mov	 esp, ebp
  0006b	5d		 pop	 ebp
  0006c	c2 14 00	 ret	 20			; 00000014H
?DoActiveSkill@CCtrl@@QAEXKHPAV1@_NH@Z ENDP		; CCtrl::DoActiveSkill
_TEXT	ENDS
; Function compile flags: /Ogtp
; File C:\IAGOS\server\v18\Source\Source\_Common\ctrl.cpp
; File C:\IAGOS\server\v18\Source\Source\_AIInterface\Action.h
; File C:\IAGOS\server\v18\Source\Source\_Common\Mover.h
; File C:\IAGOS\server\v18\Source\Source\_AIInterface\Action.h
; File C:\IAGOS\server\v18\Source\Source\_Common\ctrl.cpp
;	COMDAT ?ApplySkillHardCoding@CCtrl@@QAEHPAV1@PAUItemProp@@PAUAddSkillProp@@@Z
_TEXT	SEGMENT
_pSrc$ = 8						; size = 4
_pSkillProp$ = 12					; size = 4
_pAddSkillProp$ = 16					; size = 4
?ApplySkillHardCoding@CCtrl@@QAEHPAV1@PAUItemProp@@PAUAddSkillProp@@@Z PROC ; CCtrl::ApplySkillHardCoding, COMDAT
; _this$ = ecx

; 797  : {

  00000	55		 push	 ebp
  00001	8b ec		 mov	 ebp, esp
  00003	56		 push	 esi
  00004	57		 push	 edi

; 798  : #ifdef __WORLDSERVER
; 799  : 	switch( pSkillProp->dwID )

  00005	8b 7d 0c	 mov	 edi, DWORD PTR _pSkillProp$[ebp]
  00008	8b f1		 mov	 esi, ecx
  0000a	83 3f 2d	 cmp	 DWORD PTR [edi], 45	; 0000002dH
  0000d	0f 85 84 00 00
	00		 jne	 $LN9@ApplySkill

; 800  : 	{
; 801  : 	case SI_ASS_HEAL_RESURRECTION:		// şÎČ°
; 802  : 		if( GetType() == OT_MOVER )

  00013	83 be 70 01 00
	00 05		 cmp	 DWORD PTR [esi+368], 5
  0001a	75 7b		 jne	 SHORT $LN9@ApplySkill

; 803  : 		{
; 804  : 			CMover *pTarget = (CMover *)this;
; 805  : 			if( pTarget->IsPlayer() && pTarget->IsDie() )	// ÇĂ·ąŔĚľîŔĚ°í Ĺ¸°ŮŔĚ Á×ľîŔÖŔ»¶§

  0001c	83 be 30 02 00
	00 00		 cmp	 DWORD PTR [esi+560], 0
  00023	74 72		 je	 SHORT $LN9@ApplySkill
; File C:\IAGOS\server\v18\Source\Source\_AIInterface\Action.h

; 310  : 	BOOL			IsDie() { return (m_dwState & OBJSTA_DIE_ALL) ? TRUE : FALSE; }

  00025	8b 86 38 02 00
	00		 mov	 eax, DWORD PTR [esi+568]
  0002b	8b 40 04	 mov	 eax, DWORD PTR [eax+4]
; File C:\IAGOS\server\v18\Source\Source\_Common\Mover.h

; 1250 : 	BOOL			IsDie() { return m_pActMover->IsDie() || m_nHitPoint == 0; }

  0002e	a9 00 00 00 08	 test	 eax, 134217728		; 08000000H
  00033	75 09		 jne	 SHORT $LN20@ApplySkill
  00035	83 be f8 05 00
	00 00		 cmp	 DWORD PTR [esi+1528], 0
  0003c	75 59		 jne	 SHORT $LN9@ApplySkill
$LN20@ApplySkill:
; File C:\IAGOS\server\v18\Source\Source\_AIInterface\Action.h

; 304  : 	DWORD			GetDmgState() { return m_dwState & OBJSTA_DMG_ALL; }

  0003e	25 00 00 00 0f	 and	 eax, 251658240		; 0f000000H
; File C:\IAGOS\server\v18\Source\Source\_Common\ctrl.cpp

; 807  : 				if( pTarget->m_pActMover->GetDmgState() == OBJSTA_RESURRECTION )

  00043	3d 00 00 00 0c	 cmp	 eax, 201326592		; 0c000000H
  00048	75 08		 jne	 SHORT $LN7@ApplySkill

; 808  : 				{
; 809  : 					return FALSE;		// ŔĚąĚ şÎČ°ÁßŔÎ »ç¶÷żˇ°Ô ľ´°Ĺ¶ó¸é ĂëĽŇ.

  0004a	5f		 pop	 edi
  0004b	33 c0		 xor	 eax, eax

; 836  : }

  0004d	5e		 pop	 esi
  0004e	5d		 pop	 ebp
  0004f	c2 0c 00	 ret	 12			; 0000000cH
$LN7@ApplySkill:

; 810  : 				} else
; 811  : 				{
; 812  : 					g_dpDBClient.SendLogLevelUp( pTarget, 10 );	// şÎČ° ˝şĹł ·Î±×

  00052	6a 0a		 push	 10			; 0000000aH
  00054	56		 push	 esi
  00055	b9 00 00 00 00	 mov	 ecx, OFFSET ?g_dpDBClient@@3VCDPDatabaseClient@@A ; g_dpDBClient
  0005a	e8 00 00 00 00	 call	 ?SendLogLevelUp@CDPDatabaseClient@@QAEXPAVCMover@@H@Z ; CDPDatabaseClient::SendLogLevelUp

; 813  : 
; 814  : 					if( ((CUser *)this)->m_Resurrection_Data.bUseing != TRUE )

  0005f	83 be dc 0a 00
	00 01		 cmp	 DWORD PTR [esi+2780], 1
  00066	74 2f		 je	 SHORT $LN9@ApplySkill

; 815  : 					{
; 816  : 						((CUser *)this)->AddResurrectionMessage();

  00068	8b ce		 mov	 ecx, esi
  0006a	e8 00 00 00 00	 call	 ?AddResurrectionMessage@CUser@@QAEXXZ ; CUser::AddResurrectionMessage

; 817  : 					
; 818  : 						((CUser *)this)->m_Resurrection_Data.bUseing        = TRUE;
; 819  : 						((CUser *)this)->m_Resurrection_Data.dwPlayerID     = ((CMover*)pSrc)->m_idPlayer;

  0006f	8b 45 08	 mov	 eax, DWORD PTR _pSrc$[ebp]
  00072	c7 86 dc 0a 00
	00 01 00 00 00	 mov	 DWORD PTR [esi+2780], 1
  0007c	8b 80 34 02 00
	00		 mov	 eax, DWORD PTR [eax+564]
  00082	89 86 d8 0a 00
	00		 mov	 DWORD PTR [esi+2776], eax

; 820  : 						((CUser *)this)->m_Resurrection_Data.pSkillProp     = pSkillProp;
; 821  : 						((CUser *)this)->m_Resurrection_Data.pAddSkillProp  = pAddSkillProp;

  00088	8b 45 10	 mov	 eax, DWORD PTR _pAddSkillProp$[ebp]
  0008b	89 be e0 0a 00
	00		 mov	 DWORD PTR [esi+2784], edi
  00091	89 86 e4 0a 00
	00		 mov	 DWORD PTR [esi+2788], eax
$LN9@ApplySkill:

; 822  : 					}
; 823  : 
; 824  : 					break;
; 825  : 				}
; 826  : 
; 827  : 				// şÎČ°¶§ DST_RECOVERY_EXP°ˇ ŔÖŔ¸¸é °âÄˇ°ˇ Á¶±Ý ±đŔÓ.
; 828  : 				if( pAddSkillProp->dwDestParam2 == DST_RECOVERY_EXP )
; 829  : 					pTarget->SubDieDecExp(TRUE, pAddSkillProp->nAdjParamVal2 );	// şÎČ°ŔĚ µÇ¸éĽ­ °âÄˇ°ˇ Á¶±Ý ±đŔÓ.
; 830  : 			}
; 831  : 		}
; 832  : 		break;
; 833  : 	} // switch
; 834  : #endif // WorldServer
; 835  : 	return TRUE;

  00097	5f		 pop	 edi
  00098	b8 01 00 00 00	 mov	 eax, 1

; 836  : }

  0009d	5e		 pop	 esi
  0009e	5d		 pop	 ebp
  0009f	c2 0c 00	 ret	 12			; 0000000cH
?ApplySkillHardCoding@CCtrl@@QAEHPAV1@PAUItemProp@@PAUAddSkillProp@@@Z ENDP ; CCtrl::ApplySkillHardCoding
_TEXT	ENDS
; Function compile flags: /Ogtp
; File C:\IAGOS\server\v18\Source\Source\_Common\ctrl.cpp
; File C:\IAGOS\server\v18\Source\Source\_Common\Obj.h
; File C:\IAGOS\server\v18\Source\Source\_Common\Mover.h
; File C:\IAGOS\server\v18\Source\Source\_Common\ctrl.cpp
; File C:\IAGOS\server\v18\Source\Source\_Common\Obj.h
; File C:\IAGOS\server\v18\Source\Source\DX_SDK\d3dx9math.inl
; File C:\IAGOS\server\v18\Source\Source\_Common\Obj.h
; File C:\IAGOS\server\v18\Source\Source\DX_SDK\d3dx9math.inl
; File C:\IAGOS\server\v18\Source\Source\_Common\ctrl.cpp
; File C:\IAGOS\server\v18\Source\Source\DX_SDK\d3dx9math.inl
; File C:\IAGOS\server\v18\Source\Source\_Common\ctrl.cpp
;	COMDAT ?ApplySkillAroundTroupe@CCtrl@@QAEHKPAUItemProp@@PAUAddSkillProp@@_N@Z
_TEXT	SEGMENT
$T1 = -36						; size = 12
$T2 = -24						; size = 12
_pParty$1$ = -12					; size = 4
_fMaxDistSq$2$ = -8					; size = 4
_bRet$1$ = -4						; size = 4
_idParty$ = 8						; size = 4
_fTargetRatio$1$ = 8					; size = 4
_pSkillProp$ = 12					; size = 4
_pAddSkillProp$ = 16					; size = 4
_bIgnoreProb$ = 20					; size = 1
?ApplySkillAroundTroupe@CCtrl@@QAEHKPAUItemProp@@PAUAddSkillProp@@_N@Z PROC ; CCtrl::ApplySkillAroundTroupe, COMDAT
; _this$ = ecx

; 739  : {

  00000	55		 push	 ebp
  00001	8b ec		 mov	 ebp, esp
  00003	83 ec 24	 sub	 esp, 36			; 00000024H
  00006	53		 push	 ebx
  00007	56		 push	 esi
  00008	8b f1		 mov	 esi, ecx

; 740  : 	BOOL bRet = FALSE;

  0000a	33 db		 xor	 ebx, ebx
  0000c	89 5d fc	 mov	 DWORD PTR _bRet$1$[ebp], ebx

; 741  : #ifdef __WORLDSERVER
; 742  : 	if (GetType() != OT_MOVER)		return bRet;	// ą«ąö°ˇ ľĆ´Ń°Ô ±Ř´Ü˝şĹłŔ» ˝čŔ»¸® ľř´Ů.

  0000f	83 be 70 01 00
	00 05		 cmp	 DWORD PTR [esi+368], 5
  00016	0f 85 ee 01 00
	00		 jne	 $LN45@ApplySkill

; 743  : 	if (((CMover*)this)->IsPlayer() == FALSE)		return bRet;	// ÇĂ·ąŔĚľî°ˇ ľĆ´Ń°Ô ±Ř´Ü˝şĹłŔ» ˝čŔ»¸® ľř´Ů.

  0001c	39 9e 30 02 00
	00		 cmp	 DWORD PTR [esi+560], ebx
  00022	0f 84 e2 01 00
	00		 je	 $LN45@ApplySkill

; 744  : 
; 745  : 	CParty* pParty = g_PartyMng.GetParty(idParty);

  00028	57		 push	 edi
  00029	ff 75 08	 push	 DWORD PTR _idParty$[ebp]
  0002c	b9 00 00 00 00	 mov	 ecx, OFFSET ?g_PartyMng@@3VCPartyMng@@A ; g_PartyMng
  00031	e8 00 00 00 00	 call	 ?GetParty@CPartyMng@@QAEPAVCParty@@K@Z ; CPartyMng::GetParty
  00036	8b c8		 mov	 ecx, eax
  00038	89 4d f4	 mov	 DWORD PTR _pParty$1$[ebp], ecx

; 746  : 	if (pParty)

  0003b	85 c9		 test	 ecx, ecx
  0003d	0f 84 94 01 00
	00		 je	 $LN7@ApplySkill

; 747  : 	{
; 748  : 		int i;
; 749  : 		CUser* pMember;
; 750  : 		D3DXVECTOR3	vDist;
; 751  : 		float	fDist;
; 752  : 		float	fMaxDistSq = (float)pAddSkillProp->dwSkillRange;

  00043	8b 45 10	 mov	 eax, DWORD PTR _pAddSkillProp$[ebp]
  00046	8b 40 64	 mov	 eax, DWORD PTR [eax+100]
  00049	66 0f 6e c0	 movd	 xmm0, eax
  0004d	f3 0f e6 c0	 cvtdq2pd xmm0, xmm0
  00051	c1 e8 1f	 shr	 eax, 31			; 0000001fH
  00054	f2 0f 58 04 c5
	00 00 00 00	 addsd	 xmm0, QWORD PTR __xmm@41f00000000000000000000000000000[eax*8]

; 753  : 		fMaxDistSq *= fMaxDistSq;
; 754  : 		FLOAT fTargetRatio = 0.0f;
; 755  : 		if (pSkillProp->dwSpellRegion == SRO_REGION)

  0005d	8b 45 0c	 mov	 eax, DWORD PTR _pSkillProp$[ebp]
  00060	83 b8 cc 01 00
	00 02		 cmp	 DWORD PTR [eax+460], 2
  00067	66 0f 5a c0	 cvtpd2ps xmm0, xmm0
  0006b	f3 0f 59 c0	 mulss	 xmm0, xmm0
  0006f	f3 0f 11 45 f8	 movss	 DWORD PTR _fMaxDistSq$2$[ebp], xmm0
  00074	0f 57 c0	 xorps	 xmm0, xmm0
  00077	f3 0f 11 45 08	 movss	 DWORD PTR _fTargetRatio$1$[ebp], xmm0
  0007c	75 0d		 jne	 SHORT $LN9@ApplySkill

; 756  : 			fTargetRatio = 1.0f;

  0007e	f3 0f 10 05 00
	00 00 00	 movss	 xmm0, DWORD PTR __real@3f800000
  00086	f3 0f 11 45 08	 movss	 DWORD PTR _fTargetRatio$1$[ebp], xmm0
$LN9@ApplySkill:

; 757  : 		for (i = 0; i < pParty->m_nSizeofMember; i++)

  0008b	33 ff		 xor	 edi, edi
  0008d	39 99 cc 01 00
	00		 cmp	 DWORD PTR [ecx+460], ebx
  00093	0f 8e 66 01 00
	00		 jle	 $LN14@ApplySkill
  00099	8d 59 28	 lea	 ebx, DWORD PTR [ecx+40]
  0009c	0f 1f 40 00	 npad	 4
$LL4@ApplySkill:

; 758  : 		{
; 759  : 			pMember = g_UserMng.GetUserByPlayerID(pParty->m_aMember[i].m_uPlayerId);

  000a0	ff 33		 push	 DWORD PTR [ebx]
  000a2	b9 00 00 00 00	 mov	 ecx, OFFSET ?g_UserMng@@3VCUserMng@@A ; g_UserMng
  000a7	e8 00 00 00 00	 call	 ?GetUserByPlayerID@CUserMng@@QAEPAVCUser@@K@Z ; CUserMng::GetUserByPlayerID
  000ac	8b c8		 mov	 ecx, eax
; File C:\IAGOS\server\v18\Source\Source\_Common\Obj.h

; 327  : 	return pObj && ( pObj->IsDelete() == FALSE ); 

  000ae	85 c9		 test	 ecx, ecx
  000b0	0f 84 00 01 00
	00		 je	 $LN2@ApplySkill

; 180  : 	BOOL			IsDelete()	{ return (m_dwFlags & OBJ_FLAG_DELETE);  }

  000b6	f6 41 04 01	 test	 BYTE PTR [ecx+4], 1

; 327  : 	return pObj && ( pObj->IsDelete() == FALSE ); 

  000ba	0f 85 f6 00 00
	00		 jne	 $LN2@ApplySkill
; File C:\IAGOS\server\v18\Source\Source\_Common\Mover.h

; 1250 : 	BOOL			IsDie() { return m_pActMover->IsDie() || m_nHitPoint == 0; }

  000c0	8b 81 38 02 00
	00		 mov	 eax, DWORD PTR [ecx+568]
  000c6	f7 40 04 00 00
	00 08		 test	 DWORD PTR [eax+4], 134217728 ; 08000000H
  000cd	0f 85 e3 00 00
	00		 jne	 $LN2@ApplySkill
  000d3	83 b9 f8 05 00
	00 00		 cmp	 DWORD PTR [ecx+1528], 0
  000da	0f 84 d6 00 00
	00		 je	 $LN2@ApplySkill
; File C:\IAGOS\server\v18\Source\Source\_Common\ctrl.cpp

; 762  : 				&& GetLayer() == pMember->GetLayer())

  000e0	8b 86 6c 01 00
	00		 mov	 eax, DWORD PTR [esi+364]
  000e6	85 c0		 test	 eax, eax
  000e8	0f 84 c8 00 00
	00		 je	 $LN2@ApplySkill
  000ee	8b 91 6c 01 00
	00		 mov	 edx, DWORD PTR [ecx+364]
  000f4	85 d2		 test	 edx, edx
  000f6	0f 84 ba 00 00
	00		 je	 $LN2@ApplySkill
  000fc	8b 00		 mov	 eax, DWORD PTR [eax]
  000fe	3b 02		 cmp	 eax, DWORD PTR [edx]
  00100	0f 85 b0 00 00
	00		 jne	 $LN2@ApplySkill
  00106	8b 86 b8 01 00
	00		 mov	 eax, DWORD PTR [esi+440]
  0010c	3b 81 b8 01 00
	00		 cmp	 eax, DWORD PTR [ecx+440]
  00112	0f 85 9e 00 00
	00		 jne	 $LN2@ApplySkill

; 763  : 			{
; 764  : 				if (pMember == this && fTargetRatio == 0.0f)

  00118	3b ce		 cmp	 ecx, esi
  0011a	75 16		 jne	 SHORT $LN11@ApplySkill
  0011c	f3 0f 10 45 08	 movss	 xmm0, DWORD PTR _fTargetRatio$1$[ebp]
  00121	0f 2e 05 00 00
	00 00		 ucomiss xmm0, DWORD PTR __real@00000000
  00128	9f		 lahf
  00129	f6 c4 44	 test	 ah, 68			; 00000044H
  0012c	0f 8b 84 00 00
	00		 jnp	 $LN2@ApplySkill
$LN11@ApplySkill:
; File C:\IAGOS\server\v18\Source\Source\_Common\Obj.h

; 215  : 	D3DXVECTOR3		GetPos()	{ return m_vPos; }

  00132	f3 0f 7e 86 60
	01 00 00	 movq	 xmm0, QWORD PTR [esi+352]
  0013a	8b 86 68 01 00
	00		 mov	 eax, DWORD PTR [esi+360]
  00140	66 0f d6 45 dc	 movq	 QWORD PTR $T1[ebp], xmm0
  00145	f3 0f 7e 81 60
	01 00 00	 movq	 xmm0, QWORD PTR [ecx+352]
  0014d	66 0f d6 45 e8	 movq	 QWORD PTR $T2[ebp], xmm0
; File C:\IAGOS\server\v18\Source\Source\DX_SDK\d3dx9math.inl

; 383  :     return D3DXVECTOR3(x - v.x, y - v.y, z - v.z);

  00152	f3 0f 10 4d e8	 movss	 xmm1, DWORD PTR $T2[ebp]
  00157	f3 0f 10 55 ec	 movss	 xmm2, DWORD PTR $T2[ebp+4]
  0015c	f3 0f 5c 55 e0	 subss	 xmm2, DWORD PTR $T1[ebp+4]
  00161	f3 0f 5c 4d dc	 subss	 xmm1, DWORD PTR $T1[ebp]
; File C:\IAGOS\server\v18\Source\Source\_Common\Obj.h

; 215  : 	D3DXVECTOR3		GetPos()	{ return m_vPos; }

  00166	89 45 e4	 mov	 DWORD PTR $T1[ebp+8], eax
  00169	8b 81 68 01 00
	00		 mov	 eax, DWORD PTR [ecx+360]
  0016f	89 45 f0	 mov	 DWORD PTR $T2[ebp+8], eax
; File C:\IAGOS\server\v18\Source\Source\DX_SDK\d3dx9math.inl

; 383  :     return D3DXVECTOR3(x - v.x, y - v.y, z - v.z);

  00172	f3 0f 10 45 f0	 movss	 xmm0, DWORD PTR $T2[ebp+8]
  00177	f3 0f 5c 45 e4	 subss	 xmm0, DWORD PTR $T1[ebp+8]
; File C:\IAGOS\server\v18\Source\Source\_Common\ctrl.cpp

; 769  : 					vDist = pMember->GetPos() - GetPos();

  0017c	f3 0f 59 d2	 mulss	 xmm2, xmm2
; File C:\IAGOS\server\v18\Source\Source\DX_SDK\d3dx9math.inl

; 1698 :     return pV->x * pV->x + pV->y * pV->y + pV->z * pV->z;

  00180	f3 0f 59 c9	 mulss	 xmm1, xmm1
  00184	f3 0f 59 c0	 mulss	 xmm0, xmm0
  00188	f3 0f 58 d1	 addss	 xmm2, xmm1
  0018c	f3 0f 58 d0	 addss	 xmm2, xmm0
; File C:\IAGOS\server\v18\Source\Source\_Common\ctrl.cpp

; 771  : 					if (fDist < fMaxDistSq)

  00190	f3 0f 10 45 f8	 movss	 xmm0, DWORD PTR _fMaxDistSq$2$[ebp]
  00195	0f 2f c2	 comiss	 xmm0, xmm2
  00198	76 1c		 jbe	 SHORT $LN2@ApplySkill

; 772  : 					{
; 773  : 						pMember->ApplySkill(this, pSkillProp, pAddSkillProp, bIgnoreProb);

  0019a	6a 01		 push	 1
  0019c	6a 00		 push	 0
  0019e	6a 00		 push	 0
  001a0	ff 75 14	 push	 DWORD PTR _bIgnoreProb$[ebp]
  001a3	ff 75 10	 push	 DWORD PTR _pAddSkillProp$[ebp]
  001a6	ff 75 0c	 push	 DWORD PTR _pSkillProp$[ebp]
  001a9	56		 push	 esi
  001aa	e8 00 00 00 00	 call	 ?ApplySkill@CCtrl@@QAEXPAV1@PAUItemProp@@PAUAddSkillProp@@_NHHH@Z ; CCtrl::ApplySkill

; 774  : 						bRet = TRUE;

  001af	c7 45 fc 01 00
	00 00		 mov	 DWORD PTR _bRet$1$[ebp], 1
$LN2@ApplySkill:

; 757  : 		for (i = 0; i < pParty->m_nSizeofMember; i++)

  001b6	8b 45 f4	 mov	 eax, DWORD PTR _pParty$1$[ebp]
  001b9	47		 inc	 edi
  001ba	83 c3 1c	 add	 ebx, 28			; 0000001cH
  001bd	3b b8 cc 01 00
	00		 cmp	 edi, DWORD PTR [eax+460]
  001c3	0f 8c d7 fe ff
	ff		 jl	 $LL4@ApplySkill

; 775  : 					}
; 776  : 				}
; 777  : 			}
; 778  : 		}
; 779  : 	}

  001c9	8b 5d fc	 mov	 ebx, DWORD PTR _bRet$1$[ebp]

; 785  : 		}
; 786  : 	}
; 787  : #endif
; 788  : 	return bRet;

  001cc	8b c3		 mov	 eax, ebx
  001ce	5f		 pop	 edi
  001cf	5e		 pop	 esi

; 789  : }

  001d0	5b		 pop	 ebx
  001d1	8b e5		 mov	 esp, ebp
  001d3	5d		 pop	 ebp
  001d4	c2 10 00	 ret	 16			; 00000010H
$LN7@ApplySkill:

; 780  : 	else
; 781  : 	{
; 782  : 		if (pSkillProp->dwExeTarget == EXT_TROUPEWITH || pSkillProp->dwExeTarget == EXT_TROUPE)

  001d7	8b 4d 0c	 mov	 ecx, DWORD PTR _pSkillProp$[ebp]
  001da	8b 81 c4 01 00
	00		 mov	 eax, DWORD PTR [ecx+452]
  001e0	83 f8 14	 cmp	 eax, 20			; 00000014H
  001e3	74 05		 je	 SHORT $LN15@ApplySkill
  001e5	83 f8 0d	 cmp	 eax, 13			; 0000000dH
  001e8	75 15		 jne	 SHORT $LN14@ApplySkill
$LN15@ApplySkill:

; 783  : 		{
; 784  : 			ApplySkill(this, pSkillProp, pAddSkillProp, bIgnoreProb);

  001ea	6a 01		 push	 1
  001ec	6a 00		 push	 0
  001ee	6a 00		 push	 0
  001f0	ff 75 14	 push	 DWORD PTR _bIgnoreProb$[ebp]
  001f3	ff 75 10	 push	 DWORD PTR _pAddSkillProp$[ebp]
  001f6	51		 push	 ecx
  001f7	56		 push	 esi
  001f8	8b ce		 mov	 ecx, esi
  001fa	e8 00 00 00 00	 call	 ?ApplySkill@CCtrl@@QAEXPAV1@PAUItemProp@@PAUAddSkillProp@@_NHHH@Z ; CCtrl::ApplySkill
$LN14@ApplySkill:

; 785  : 		}
; 786  : 	}
; 787  : #endif
; 788  : 	return bRet;

  001ff	5f		 pop	 edi
  00200	5e		 pop	 esi
  00201	8b c3		 mov	 eax, ebx

; 789  : }

  00203	5b		 pop	 ebx
  00204	8b e5		 mov	 esp, ebp
  00206	5d		 pop	 ebp
  00207	c2 10 00	 ret	 16			; 00000010H
$LN45@ApplySkill:
  0020a	5e		 pop	 esi

; 743  : 	if (((CMover*)this)->IsPlayer() == FALSE)		return bRet;	// ÇĂ·ąŔĚľî°ˇ ľĆ´Ń°Ô ±Ř´Ü˝şĹłŔ» ˝čŔ»¸® ľř´Ů.

  0020b	33 c0		 xor	 eax, eax

; 789  : }

  0020d	5b		 pop	 ebx
  0020e	8b e5		 mov	 esp, ebp
  00210	5d		 pop	 ebp
  00211	c2 10 00	 ret	 16			; 00000010H
?ApplySkillAroundTroupe@CCtrl@@QAEHKPAUItemProp@@PAUAddSkillProp@@_N@Z ENDP ; CCtrl::ApplySkillAroundTroupe
_TEXT	ENDS
; Function compile flags: /Ogtp
; File C:\IAGOS\server\v18\Source\Source\_Common\ctrl.cpp
; File C:\IAGOS\server\v18\Source\Source\_Common\Obj.h
; File C:\IAGOS\server\v18\Source\Source\_Common\ctrl.cpp
; File C:\IAGOS\server\v18\Source\Source\DX_SDK\d3dx9math.inl
; File C:\IAGOS\server\v18\Source\Source\_Common\ctrl.cpp
; File C:\IAGOS\server\v18\Source\Source\DX_SDK\d3dx9math.inl
; File C:\IAGOS\server\v18\Source\Source\_Common\ctrl.cpp
; File C:\IAGOS\server\v18\Source\Source\DX_SDK\d3dx9math.inl
; File C:\IAGOS\server\v18\Source\Source\_Common\ctrl.cpp
; File C:\IAGOS\server\v18\Source\Source\_Common\Obj.h
; File C:\IAGOS\server\v18\Source\Source\_Common\ctrl.cpp
; File C:\IAGOS\server\v18\Source\Source\_Common\Obj.h
; File C:\IAGOS\server\v18\Source\Source\_Common\ctrl.cpp
; File C:\IAGOS\server\v18\Source\Source\_Common\Obj.h
; File C:\IAGOS\server\v18\Source\Source\_Common\ctrl.cpp
; File C:\IAGOS\server\v18\Source\Source\_Common\Obj.h
; File C:\IAGOS\server\v18\Source\Source\_Common\ctrl.cpp
; File C:\IAGOS\server\v18\Source\Source\_Common\Obj.h
; File C:\IAGOS\server\v18\Source\Source\_Common\ctrl.cpp
; File C:\IAGOS\server\v18\Source\Source\_Common\Obj.h
; File C:\IAGOS\server\v18\Source\Source\_Common\Mover.h
; File C:\IAGOS\server\v18\Source\Source\_Common\Obj.h
; File C:\IAGOS\server\v18\Source\Source\_Common\ctrl.cpp
; File C:\IAGOS\server\v18\Source\Source\_Common\Obj.h
; File C:\IAGOS\server\v18\Source\Source\_Common\ctrl.cpp
; File C:\IAGOS\server\v18\Source\Source\DX_SDK\d3dx9math.inl
; File C:\IAGOS\server\v18\Source\Source\_Common\ctrl.cpp
; File C:\IAGOS\server\v18\Source\Source\DX_SDK\d3dx9math.inl
; File C:\IAGOS\server\v18\Source\Source\_Common\ctrl.cpp
; File C:\IAGOS\server\v18\Source\Source\DX_SDK\d3dx9math.inl
; File C:\IAGOS\server\v18\Source\Source\_Common\ctrl.cpp
; File C:\IAGOS\server\v18\Source\Source\DX_SDK\d3dx9math.inl
; File C:\IAGOS\server\v18\Source\Source\_Common\ctrl.cpp
; File C:\IAGOS\server\v18\Source\Source\_Common\Obj.h
; File C:\IAGOS\server\v18\Source\Source\_Common\ctrl.cpp
; File C:\IAGOS\server\v18\Source\Source\_Common\Obj.h
; File C:\IAGOS\server\v18\Source\Source\_Common\ctrl.cpp
; File C:\IAGOS\server\v18\Source\Source\_Common\Obj.h
; File C:\IAGOS\server\v18\Source\Source\_Common\ctrl.cpp
; File C:\IAGOS\server\v18\Source\Source\_Common\Obj.h
; File C:\IAGOS\server\v18\Source\Source\_Common\ctrl.cpp
; File C:\IAGOS\server\v18\Source\Source\_Common\Mover.h
; File C:\IAGOS\server\v18\Source\Source\_Common\ctrl.cpp
; File C:\IAGOS\server\v18\Source\Source\_Common\Mover.h
; File C:\IAGOS\server\v18\Source\Source\_Common\Project.h
; File C:\IAGOS\server\v18\Source\Source\_Common\ctrl.cpp
; File C:\IAGOS\server\v18\Source\Source\_Common\Obj.h
; File C:\IAGOS\server\v18\Source\Source\_Common\Mover.h
; File C:\IAGOS\server\v18\Source\Source\_Common\Obj.h
; File C:\IAGOS\server\v18\Source\Source\_Common\ctrl.cpp
; File C:\IAGOS\server\v18\Source\Source\_Common\Obj.h
; File C:\IAGOS\server\v18\Source\Source\_Common\ctrl.cpp
; File C:\IAGOS\server\v18\Source\Source\DX_SDK\d3dx9math.inl
; File C:\IAGOS\server\v18\Source\Source\_Common\ctrl.cpp
; File C:\IAGOS\server\v18\Source\Source\DX_SDK\d3dx9math.inl
; File C:\IAGOS\server\v18\Source\Source\_Common\ctrl.cpp
; File C:\IAGOS\server\v18\Source\Source\DX_SDK\d3dx9math.inl
; File C:\IAGOS\server\v18\Source\Source\_Common\ctrl.cpp
; File C:\IAGOS\server\v18\Source\Source\DX_SDK\d3dx9math.inl
; File C:\IAGOS\server\v18\Source\Source\_Common\ctrl.cpp
;	COMDAT ?ApplySkillLine@CCtrl@@QAEXHPAUItemProp@@PAUAddSkillProp@@MMM_NH@Z
_TEXT	SEGMENT
tv2191 = -436						; size = 4
tv2168 = -436						; size = 4
_vPos$ = -432						; size = 12
tv2190 = -420						; size = 4
___limit$1$ = -420					; size = 4
__pObjs$1$ = -416					; size = 4
tv2187 = -416						; size = 4
tv2174 = -412						; size = 4
tv2179 = -412						; size = 4
tv2170 = -408						; size = 4
tv2189 = -408						; size = 4
tv2184 = -404						; size = 4
tv2172 = -404						; size = 4
_pAddSkillProp$GSCopy$1$ = -400				; size = 4
_pSkillProp$GSCopy$1$ = -396				; size = 4
___limit$1$ = -392					; size = 4
tv2186 = -392						; size = 4
__nZ$1$ = -392						; size = 4
_nRange$1$ = -388					; size = 4
tv2222 = -384						; size = 4
__k$1$ = -384						; size = 4
__k$1$ = -380						; size = 4
tv2217 = -380						; size = 4
tv2147 = -376						; size = 4
$T1 = -376						; size = 4
__pObjs$1$ = -372					; size = 4
__nLinkX$1$ = -372					; size = 4
_this$GSCopy$1$ = -368					; size = 4
__nMaxHeight$1$ = -364					; size = 4
tv2210 = -364						; size = 4
__nLinkZMax$1$ = -364					; size = 4
__nLinkX$1$ = -360					; size = 4
__i$1$ = -360						; size = 4
__nLinkZ$1$ = -356					; size = 4
_bApply$1$ = -356					; size = 4
__i$1$ = -352						; size = 4
__nLinkZ$1$ = -352					; size = 4
tv2215 = -348						; size = 4
__nLinkZMax$1$ = -348					; size = 4
__nZ$1$ = -348						; size = 4
tv2209 = -344						; size = 4
__j$1$ = -344						; size = 4
__nX$1$ = -344						; size = 4
tv2181 = -344						; size = 4
__nMaxWidth$1$ = -340					; size = 4
__nMaxWidth$1$ = -340					; size = 4
__j$1$ = -336						; size = 4
__nX$1$ = -336						; size = 4
$T2 = -336						; size = 4
tv2144 = -336						; size = 4
__nMaxHeight$1$ = -336					; size = 4
_m1$ = -332						; size = 64
_m2$ = -268						; size = 64
_m3$ = -204						; size = 64
_mInv$ = -140						; size = 64
_vMax1$ = -76						; size = 12
_vMin1$ = -64						; size = 12
_vDestLocal$ = -52					; size = 12
$T3 = -40						; size = 12
$T4 = -40						; size = 12
$T5 = -40						; size = 12
_vMin2$6 = -28						; size = 12
$T7 = -28						; size = 12
_vMax2$8 = -28						; size = 12
_vMax2$9 = -16						; size = 12
_vMin2$10 = -16						; size = 12
$T11 = -16						; size = 12
__$ArrayPad$ = -4					; size = 4
_nApplyType$ = 8					; size = 4
_pSkillProp$ = 12					; size = 4
_pAddSkillProp$ = 16					; size = 4
_fWidth$ = 20						; size = 4
_fHeight$ = 24						; size = 4
_fDepth$ = 28						; size = 4
_bIgnoreProb$ = 32					; size = 1
_bControl$ = 36						; size = 4
?ApplySkillLine@CCtrl@@QAEXHPAUItemProp@@PAUAddSkillProp@@MMM_NH@Z PROC ; CCtrl::ApplySkillLine, COMDAT
; _this$ = ecx

; 586  : {

  00000	55		 push	 ebp
  00001	8b ec		 mov	 ebp, esp
  00003	81 ec b4 01 00
	00		 sub	 esp, 436		; 000001b4H
  00009	a1 00 00 00 00	 mov	 eax, DWORD PTR ___security_cookie
  0000e	33 c5		 xor	 eax, ebp
  00010	89 45 fc	 mov	 DWORD PTR __$ArrayPad$[ebp], eax
  00013	8b 45 10	 mov	 eax, DWORD PTR _pAddSkillProp$[ebp]
  00016	56		 push	 esi
  00017	57		 push	 edi
  00018	8b f9		 mov	 edi, ecx
  0001a	89 85 70 fe ff
	ff		 mov	 DWORD PTR _pAddSkillProp$GSCopy$1$[ebp], eax
  00020	8b 4d 0c	 mov	 ecx, DWORD PTR _pSkillProp$[ebp]
  00023	89 bd 90 fe ff
	ff		 mov	 DWORD PTR _this$GSCopy$1$[ebp], edi
  00029	89 8d 74 fe ff
	ff		 mov	 DWORD PTR _pSkillProp$GSCopy$1$[ebp], ecx
; File C:\IAGOS\server\v18\Source\Source\_Common\Obj.h

; 215  : 	D3DXVECTOR3		GetPos()	{ return m_vPos; }

  0002f	f3 0f 7e 87 60
	01 00 00	 movq	 xmm0, QWORD PTR [edi+352]
  00037	8b 87 68 01 00
	00		 mov	 eax, DWORD PTR [edi+360]
  0003d	66 0f d6 85 50
	fe ff ff	 movq	 QWORD PTR _vPos$[ebp], xmm0
  00045	89 85 58 fe ff
	ff		 mov	 DWORD PTR _vPos$[ebp+8], eax
; File C:\IAGOS\server\v18\Source\Source\_Common\ctrl.cpp

; 593  : 	if( pSkillProp == NULL )

  0004b	85 c9		 test	 ecx, ecx
  0004d	75 13		 jne	 SHORT $LN186@ApplySkill

; 594  : 		Error( "CCtrl::ApplySkillLine : pSkillProp == NULL %d", GetIndex() );

  0004f	ff b7 74 01 00
	00		 push	 DWORD PTR [edi+372]
  00055	68 00 00 00 00	 push	 OFFSET ??_C@_0CO@JIAMLELL@CCtrl?3?3ApplySkillLine?5?3?5pSkillP@
  0005a	e8 00 00 00 00	 call	 ?Error@@YAPBDPBDZZ	; Error
  0005f	83 c4 08	 add	 esp, 8
$LN186@ApplySkill:

; 597  : 	D3DXVECTOR3 vMin1 = D3DXVECTOR3( -fWidth / 2.0f, -fHeight / 2.0f, -fDepth );

  00062	f3 0f 10 5d 14	 movss	 xmm3, DWORD PTR _fWidth$[ebp]

; 602  : 	D3DXMatrixRotationY( &m1, D3DXToRadian( -GetAngle() ) );

  00067	8d 85 b4 fe ff
	ff		 lea	 eax, DWORD PTR _m1$[ebp]
  0006d	f3 0f 10 25 00
	00 00 00	 movss	 xmm4, DWORD PTR __xmm@80000000800000008000000080000000
  00075	0f 28 c3	 movaps	 xmm0, xmm3
  00078	f3 0f 10 15 00
	00 00 00	 movss	 xmm2, DWORD PTR __real@3f000000
  00080	0f 57 c4	 xorps	 xmm0, xmm4
  00083	f3 0f 10 4d 18	 movss	 xmm1, DWORD PTR _fHeight$[ebp]
  00088	f3 0f 59 c2	 mulss	 xmm0, xmm2
  0008c	51		 push	 ecx
  0008d	f3 0f 59 da	 mulss	 xmm3, xmm2
; File C:\IAGOS\server\v18\Source\Source\DX_SDK\d3dx9math.inl

; 302  :     z = fz;

  00091	c7 45 bc 00 00
	00 00		 mov	 DWORD PTR _vMax1$[ebp+8], 0

; 300  :     x = fx;

  00098	f3 0f 11 45 c0	 movss	 DWORD PTR _vMin1$[ebp], xmm0
; File C:\IAGOS\server\v18\Source\Source\_Common\ctrl.cpp

; 597  : 	D3DXVECTOR3 vMin1 = D3DXVECTOR3( -fWidth / 2.0f, -fHeight / 2.0f, -fDepth );

  0009d	0f 28 c1	 movaps	 xmm0, xmm1
  000a0	0f 57 c4	 xorps	 xmm0, xmm4

; 598  : 	D3DXVECTOR3 vMax1 = D3DXVECTOR3(  fWidth / 2.0f,  fHeight / 2.0f, 0 );

  000a3	f3 0f 59 ca	 mulss	 xmm1, xmm2
  000a7	f3 0f 59 c2	 mulss	 xmm0, xmm2
; File C:\IAGOS\server\v18\Source\Source\DX_SDK\d3dx9math.inl

; 300  :     x = fx;

  000ab	f3 0f 11 5d b4	 movss	 DWORD PTR _vMax1$[ebp], xmm3

; 301  :     y = fy;

  000b0	f3 0f 11 4d b8	 movss	 DWORD PTR _vMax1$[ebp+4], xmm1
  000b5	f3 0f 11 45 c4	 movss	 DWORD PTR _vMin1$[ebp+4], xmm0
; File C:\IAGOS\server\v18\Source\Source\_Common\ctrl.cpp

; 597  : 	D3DXVECTOR3 vMin1 = D3DXVECTOR3( -fWidth / 2.0f, -fHeight / 2.0f, -fDepth );

  000ba	f3 0f 10 45 1c	 movss	 xmm0, DWORD PTR _fDepth$[ebp]
  000bf	0f 57 c4	 xorps	 xmm0, xmm4
; File C:\IAGOS\server\v18\Source\Source\DX_SDK\d3dx9math.inl

; 302  :     z = fz;

  000c2	f3 0f 11 45 c8	 movss	 DWORD PTR _vMin1$[ebp+8], xmm0
; File C:\IAGOS\server\v18\Source\Source\_Common\ctrl.cpp

; 602  : 	D3DXMatrixRotationY( &m1, D3DXToRadian( -GetAngle() ) );

  000c7	f3 0f 10 47 18	 movss	 xmm0, DWORD PTR [edi+24]
  000cc	0f 57 c4	 xorps	 xmm0, xmm4
  000cf	f3 0f 59 05 00
	00 00 00	 mulss	 xmm0, DWORD PTR __real@3c8efa35
  000d7	f3 0f 11 04 24	 movss	 DWORD PTR [esp], xmm0
  000dc	50		 push	 eax
  000dd	e8 00 00 00 00	 call	 _D3DXMatrixRotationY@8
; File C:\IAGOS\server\v18\Source\Source\_Common\Obj.h

; 215  : 	D3DXVECTOR3		GetPos()	{ return m_vPos; }

  000e2	f3 0f 7e 87 60
	01 00 00	 movq	 xmm0, QWORD PTR [edi+352]
; File C:\IAGOS\server\v18\Source\Source\_Common\ctrl.cpp

; 603  : 	D3DXMatrixTranslation( &m2, GetPos().x, GetPos().y, GetPos().z );

  000ea	83 ec 0c	 sub	 esp, 12			; 0000000cH
; File C:\IAGOS\server\v18\Source\Source\_Common\Obj.h

; 215  : 	D3DXVECTOR3		GetPos()	{ return m_vPos; }

  000ed	8b 87 68 01 00
	00		 mov	 eax, DWORD PTR [edi+360]
  000f3	66 0f d6 45 d8	 movq	 QWORD PTR $T5[ebp], xmm0
  000f8	f3 0f 7e c0	 movq	 xmm0, xmm0
  000fc	66 0f d6 45 f0	 movq	 QWORD PTR $T11[ebp], xmm0
  00101	f3 0f 7e 87 60
	01 00 00	 movq	 xmm0, QWORD PTR [edi+352]
  00109	66 0f d6 45 e4	 movq	 QWORD PTR $T7[ebp], xmm0
  0010e	89 45 ec	 mov	 DWORD PTR $T7[ebp+8], eax
; File C:\IAGOS\server\v18\Source\Source\_Common\ctrl.cpp

; 603  : 	D3DXMatrixTranslation( &m2, GetPos().x, GetPos().y, GetPos().z );

  00111	f3 0f 10 45 ec	 movss	 xmm0, DWORD PTR $T7[ebp+8]
  00116	f3 0f 11 44 24
	08		 movss	 DWORD PTR [esp+8], xmm0
  0011c	f3 0f 10 45 f4	 movss	 xmm0, DWORD PTR $T11[ebp+4]
  00121	f3 0f 11 44 24
	04		 movss	 DWORD PTR [esp+4], xmm0
  00127	f3 0f 10 45 d8	 movss	 xmm0, DWORD PTR $T5[ebp]
; File C:\IAGOS\server\v18\Source\Source\_Common\Obj.h

; 215  : 	D3DXVECTOR3		GetPos()	{ return m_vPos; }

  0012c	89 45 e0	 mov	 DWORD PTR $T5[ebp+8], eax
  0012f	89 45 f8	 mov	 DWORD PTR $T11[ebp+8], eax
; File C:\IAGOS\server\v18\Source\Source\_Common\ctrl.cpp

; 603  : 	D3DXMatrixTranslation( &m2, GetPos().x, GetPos().y, GetPos().z );

  00132	8d 85 f4 fe ff
	ff		 lea	 eax, DWORD PTR _m2$[ebp]
  00138	f3 0f 11 04 24	 movss	 DWORD PTR [esp], xmm0
  0013d	50		 push	 eax
  0013e	e8 00 00 00 00	 call	 _D3DXMatrixTranslation@16

; 604  : 	D3DXMatrixMultiply( &m3, &m1, &m2 );	// world = rot * trans

  00143	8d 85 f4 fe ff
	ff		 lea	 eax, DWORD PTR _m2$[ebp]
  00149	50		 push	 eax
  0014a	8d 85 b4 fe ff
	ff		 lea	 eax, DWORD PTR _m1$[ebp]
  00150	50		 push	 eax
  00151	8d 85 34 ff ff
	ff		 lea	 eax, DWORD PTR _m3$[ebp]
  00157	50		 push	 eax
  00158	e8 00 00 00 00	 call	 _D3DXMatrixMultiply@12

; 605  : 	
; 606  : 	D3DXMatrixInverse( &mInv, NULL, &m3 );		// °ř°ÝŔÚŔÇ żŞÇŕ·Ä ¸¸µë.

  0015d	8d 85 34 ff ff
	ff		 lea	 eax, DWORD PTR _m3$[ebp]
  00163	50		 push	 eax
  00164	6a 00		 push	 0
  00166	8d 85 74 ff ff
	ff		 lea	 eax, DWORD PTR _mInv$[ebp]
  0016c	50		 push	 eax
  0016d	e8 00 00 00 00	 call	 _D3DXMatrixInverse@12

; 607  : 
; 608  : 	// Ĺ¸°ŮŔÇ ÁÂÇĄ¸¦ °ř°ÝŔÚĂř ±âÁŘŔ¸·Î żŞşŻČŻ ÇŃ°Í.
; 609  : 	D3DXVECTOR3 vDestLocal;
; 610  : 
; 611  : 	// ŔĎąÝŔűŔ¸·Î fDepth°ˇ °ˇŔĺ ±ć±â¶§ą®żˇ °Ë»ç żµżŞŔş fDepth·Î Çß´Ů. 
; 612  : 	if( fDepth <= 4.0f )		nRange = 4;

  00172	f3 0f 10 05 00
	00 00 00	 movss	 xmm0, DWORD PTR __real@40800000
  0017a	f3 0f 10 4d 1c	 movss	 xmm1, DWORD PTR _fDepth$[ebp]
  0017f	0f 2f c1	 comiss	 xmm0, xmm1
  00182	72 07		 jb	 SHORT $LN25@ApplySkill
  00184	be 04 00 00 00	 mov	 esi, 4
  00189	eb 2c		 jmp	 SHORT $LN245@ApplySkill
$LN25@ApplySkill:

; 613  : 	else if( fDepth <= 8.0f )	nRange = 8;

  0018b	f3 0f 10 05 00
	00 00 00	 movss	 xmm0, DWORD PTR __real@41000000
  00193	0f 2f c1	 comiss	 xmm0, xmm1
  00196	72 07		 jb	 SHORT $LN27@ApplySkill
  00198	be 08 00 00 00	 mov	 esi, 8
  0019d	eb 18		 jmp	 SHORT $LN245@ApplySkill
$LN27@ApplySkill:

; 614  : 	else if( fDepth <= 16.0f )	nRange = 16;

  0019f	f3 0f 10 05 00
	00 00 00	 movss	 xmm0, DWORD PTR __real@41800000
  001a7	be 20 00 00 00	 mov	 esi, 32			; 00000020H
  001ac	0f 2f c1	 comiss	 xmm0, xmm1
  001af	b8 10 00 00 00	 mov	 eax, 16			; 00000010H
  001b4	0f 43 f0	 cmovae	 esi, eax
$LN245@ApplySkill:

; 615  : 	else						nRange = 32;
; 616  : 	
; 617  : 	if( fDepth <= 0 )	// ąüŔ§°ˇ 0ŔĚ°ĹłŞ Ŕ˝ĽöŔĎĽö´Â ľř´Ů.

  001b7	0f 57 c0	 xorps	 xmm0, xmm0
  001ba	89 b5 7c fe ff
	ff		 mov	 DWORD PTR _nRange$1$[ebp], esi
  001c0	0f 2f c1	 comiss	 xmm0, xmm1
  001c3	72 1e		 jb	 SHORT $LN31@ApplySkill

; 618  : 		Error( "CCtrl::ApplySkillLine : %d %d", GetIndex(), fDepth );

  001c5	0f 5a c1	 cvtps2pd xmm0, xmm1
  001c8	83 ec 08	 sub	 esp, 8
  001cb	f2 0f 11 04 24	 movsd	 QWORD PTR [esp], xmm0
  001d0	ff b7 74 01 00
	00		 push	 DWORD PTR [edi+372]
  001d6	68 00 00 00 00	 push	 OFFSET ??_C@_0BO@OBMFFPCI@CCtrl?3?3ApplySkillLine?5?3?5?$CFd?5?$CFd@
  001db	e8 00 00 00 00	 call	 ?Error@@YAPBDPBDZZ	; Error
  001e0	83 c4 10	 add	 esp, 16			; 00000010H
$LN31@ApplySkill:

; 619  : 
; 620  : 	
; 621  : 	BOOL	bApply = FALSE;
; 622  : 	BOOL	bTarget = FALSE;
; 623  : 
; 624  : 	if( nApplyType & OBJTYPE_PLAYER )	// Ŕűżë´ë»óŔĚ ÇĂ·ąŔĚľîŔÎ°ˇ 

  001e3	f6 45 08 01	 test	 BYTE PTR _nApplyType$[ebp], 1
  001e7	f3 0f 10 95 58
	fe ff ff	 movss	 xmm2, DWORD PTR _vPos$[ebp+8]
  001ef	f3 0f 10 85 50
	fe ff ff	 movss	 xmm0, DWORD PTR _vPos$[ebp]
  001f7	0f 84 96 04 00
	00		 je	 $LN3@ApplySkill

; 626  : 		FOR_LINKMAP( GetWorld(), vPos, pObj, nRange, CObj::linkPlayer, GetLayer() )

  001fd	8b 8f 6c 01 00
	00		 mov	 ecx, DWORD PTR [edi+364]
  00203	ff b7 b8 01 00
	00		 push	 DWORD PTR [edi+440]
  00209	6a 02		 push	 2
  0020b	66 0f 6e 49 14	 movd	 xmm1, DWORD PTR [ecx+20]
  00210	83 c1 24	 add	 ecx, 36			; 00000024H
  00213	0f 5b c9	 cvtdq2ps xmm1, xmm1
  00216	f3 0f 5e c1	 divss	 xmm0, xmm1
  0021a	f3 0f 2c c0	 cvttss2si eax, xmm0
  0021e	0f 28 c2	 movaps	 xmm0, xmm2
  00221	f3 0f 5e c1	 divss	 xmm0, xmm1
  00225	89 85 8c fe ff
	ff		 mov	 DWORD PTR __nLinkX$1$[ebp], eax
  0022b	f3 0f 2c c0	 cvttss2si eax, xmm0
  0022f	89 85 a0 fe ff
	ff		 mov	 DWORD PTR __nLinkZ$1$[ebp], eax
  00235	33 c0		 xor	 eax, eax
  00237	89 85 98 fe ff
	ff		 mov	 DWORD PTR __i$1$[ebp], eax
  0023d	e8 00 00 00 00	 call	 ?GetMaxLinkLevel@CLayeredLinkMap@@QAEHKH@Z ; CLayeredLinkMap::GetMaxLinkLevel
  00242	85 c0		 test	 eax, eax
  00244	0f 8e 39 04 00
	00		 jle	 $LN196@ApplySkill
  0024a	f3 0f 2c 85 50
	fe ff ff	 cvttss2si eax, DWORD PTR _vPos$[ebp]
  00252	89 85 4c fe ff
	ff		 mov	 DWORD PTR tv2191[ebp], eax
  00258	f3 0f 2c 85 58
	fe ff ff	 cvttss2si eax, DWORD PTR _vPos$[ebp+8]
  00260	89 85 68 fe ff
	ff		 mov	 DWORD PTR tv2189[ebp], eax
  00266	8b 85 8c fe ff
	ff		 mov	 eax, DWORD PTR __nLinkX$1$[ebp]
  0026c	8b c8		 mov	 ecx, eax
  0026e	2b ce		 sub	 ecx, esi
  00270	03 c6		 add	 eax, esi
  00272	89 8d 78 fe ff
	ff		 mov	 DWORD PTR tv2186[ebp], ecx
  00278	8b 8d a0 fe ff
	ff		 mov	 ecx, DWORD PTR __nLinkZ$1$[ebp]
  0027e	8b d1		 mov	 edx, ecx
  00280	2b d6		 sub	 edx, esi
  00282	89 85 a8 fe ff
	ff		 mov	 DWORD PTR tv2181[ebp], eax
  00288	89 95 6c fe ff
	ff		 mov	 DWORD PTR tv2184[ebp], edx
  0028e	8d 04 31	 lea	 eax, DWORD PTR [ecx+esi]
  00291	33 f6		 xor	 esi, esi
  00293	89 85 64 fe ff
	ff		 mov	 DWORD PTR tv2179[ebp], eax
  00299	0f 1f 80 00 00
	00 00		 npad	 7
$LL4@ApplySkill:
  002a0	ff b7 b8 01 00
	00		 push	 DWORD PTR [edi+440]
; File C:\IAGOS\server\v18\Source\Source\_Common\Obj.h

; 221  : 	CWorld*			GetWorld()	{ return m_pWorld; }

  002a6	8b 8f 6c 01 00
	00		 mov	 ecx, DWORD PTR [edi+364]
; File C:\IAGOS\server\v18\Source\Source\_Common\ctrl.cpp

; 626  : 		FOR_LINKMAP( GetWorld(), vPos, pObj, nRange, CObj::linkPlayer, GetLayer() )

  002ac	56		 push	 esi
  002ad	6a 02		 push	 2
  002af	83 c1 24	 add	 ecx, 36			; 00000024H
  002b2	e8 00 00 00 00	 call	 ?GetLinkWidth@CLayeredLinkMap@@QAEHKHH@Z ; CLayeredLinkMap::GetLinkWidth
  002b7	ff b7 b8 01 00
	00		 push	 DWORD PTR [edi+440]
; File C:\IAGOS\server\v18\Source\Source\_Common\Obj.h

; 221  : 	CWorld*			GetWorld()	{ return m_pWorld; }

  002bd	8b 8f 6c 01 00
	00		 mov	 ecx, DWORD PTR [edi+364]
; File C:\IAGOS\server\v18\Source\Source\_Common\ctrl.cpp

; 626  : 		FOR_LINKMAP( GetWorld(), vPos, pObj, nRange, CObj::linkPlayer, GetLayer() )

  002c3	8b f0		 mov	 esi, eax
  002c5	8b 85 98 fe ff
	ff		 mov	 eax, DWORD PTR __i$1$[ebp]
  002cb	83 c1 24	 add	 ecx, 36			; 00000024H
  002ce	50		 push	 eax
  002cf	6a 02		 push	 2
  002d1	e8 00 00 00 00	 call	 ?GetObj@CLayeredLinkMap@@QAEPAPAVCObj@@KKH@Z ; CLayeredLinkMap::GetObj
  002d6	8b 8f 6c 01 00
	00		 mov	 ecx, DWORD PTR [edi+364]
  002dc	89 85 60 fe ff
	ff		 mov	 DWORD PTR __pObjs$1$[ebp], eax
  002e2	8b 51 08	 mov	 edx, DWORD PTR [ecx+8]
  002e5	8b 41 04	 mov	 eax, DWORD PTR [ecx+4]
  002e8	8b f8		 mov	 edi, eax
  002ea	0f af d6	 imul	 edx, esi
  002ed	c1 e0 07	 shl	 eax, 7
  002f0	0f af fe	 imul	 edi, esi
  002f3	8b 71 14	 mov	 esi, DWORD PTR [ecx+20]
  002f6	89 95 94 fe ff
	ff		 mov	 DWORD PTR __nMaxHeight$1$[ebp], edx
  002fc	99		 cdq
  002fd	f7 ff		 idiv	 edi
  002ff	89 bd ac fe ff
	ff		 mov	 DWORD PTR __nMaxWidth$1$[ebp], edi
  00305	8b f8		 mov	 edi, eax
  00307	8b c6		 mov	 eax, esi
  00309	0f af c7	 imul	 eax, edi
  0030c	99		 cdq
  0030d	2b c2		 sub	 eax, edx
  0030f	8b c8		 mov	 ecx, eax
  00311	8b 85 8c fe ff
	ff		 mov	 eax, DWORD PTR __nLinkX$1$[ebp]
  00317	99		 cdq
  00318	f7 ff		 idiv	 edi
  0031a	33 c0		 xor	 eax, eax
  0031c	d1 f9		 sar	 ecx, 1
  0031e	2b 95 8c fe ff
	ff		 sub	 edx, DWORD PTR __nLinkX$1$[ebp]
  00324	0f af d6	 imul	 edx, esi
  00327	03 95 4c fe ff
	ff		 add	 edx, DWORD PTR tv2191[ebp]
  0032d	3b d1		 cmp	 edx, ecx
  0032f	0f 9f c0	 setg	 al
  00332	89 85 b0 fe ff
	ff		 mov	 DWORD PTR __nX$1$[ebp], eax
  00338	8b 85 a0 fe ff
	ff		 mov	 eax, DWORD PTR __nLinkZ$1$[ebp]
  0033e	99		 cdq
  0033f	f7 ff		 idiv	 edi
  00341	33 c0		 xor	 eax, eax
  00343	2b 95 a0 fe ff
	ff		 sub	 edx, DWORD PTR __nLinkZ$1$[ebp]
  00349	0f af d6	 imul	 edx, esi
  0034c	03 95 68 fe ff
	ff		 add	 edx, DWORD PTR tv2189[ebp]
  00352	3b d1		 cmp	 edx, ecx
  00354	8b 8d b0 fe ff
	ff		 mov	 ecx, DWORD PTR __nX$1$[ebp]
  0035a	0f 9f c0	 setg	 al
  0035d	89 85 a4 fe ff
	ff		 mov	 DWORD PTR __nZ$1$[ebp], eax
  00363	8b 85 78 fe ff
	ff		 mov	 eax, DWORD PTR tv2186[ebp]
  00369	99		 cdq
  0036a	f7 ff		 idiv	 edi
  0036c	33 d2		 xor	 edx, edx
  0036e	8b b5 a4 fe ff
	ff		 mov	 esi, DWORD PTR __nZ$1$[ebp]
  00374	48		 dec	 eax
  00375	03 c1		 add	 eax, ecx
  00377	0f 49 d0	 cmovns	 edx, eax
  0037a	8b 85 6c fe ff
	ff		 mov	 eax, DWORD PTR tv2184[ebp]
  00380	89 95 84 fe ff
	ff		 mov	 DWORD PTR __k$1$[ebp], edx
  00386	99		 cdq
  00387	f7 ff		 idiv	 edi
  00389	33 d2		 xor	 edx, edx
  0038b	48		 dec	 eax
  0038c	03 c6		 add	 eax, esi
  0038e	0f 49 d0	 cmovns	 edx, eax
  00391	8b 85 a8 fe ff
	ff		 mov	 eax, DWORD PTR tv2181[ebp]
  00397	89 95 b0 fe ff
	ff		 mov	 DWORD PTR __j$1$[ebp], edx
  0039d	99		 cdq
  0039e	f7 ff		 idiv	 edi
  003a0	8b 95 ac fe ff
	ff		 mov	 edx, DWORD PTR __nMaxWidth$1$[ebp]
  003a6	03 c1		 add	 eax, ecx
  003a8	3b c2		 cmp	 eax, edx
  003aa	8d 4a ff	 lea	 ecx, DWORD PTR [edx-1]
  003ad	0f 4c c8	 cmovl	 ecx, eax
  003b0	89 8d 80 fe ff
	ff		 mov	 DWORD PTR tv2222[ebp], ecx
  003b6	8b 85 64 fe ff
	ff		 mov	 eax, DWORD PTR tv2179[ebp]
  003bc	99		 cdq
  003bd	f7 ff		 idiv	 edi
  003bf	8b 8d 94 fe ff
	ff		 mov	 ecx, DWORD PTR __nMaxHeight$1$[ebp]
  003c5	8d 14 06	 lea	 edx, DWORD PTR [esi+eax]
  003c8	3b d1		 cmp	 edx, ecx
  003ca	7c 03		 jl	 SHORT $LN36@ApplySkill
  003cc	8d 51 ff	 lea	 edx, DWORD PTR [ecx-1]
$LN36@ApplySkill:
  003cf	8b 8d b0 fe ff
	ff		 mov	 ecx, DWORD PTR __j$1$[ebp]
  003d5	3b ca		 cmp	 ecx, edx
  003d7	0f 8f 75 02 00
	00		 jg	 $LN2@ApplySkill
  003dd	8b b5 80 fe ff
	ff		 mov	 esi, DWORD PTR tv2222[ebp]
  003e3	8b c1		 mov	 eax, ecx
  003e5	0f af 85 ac fe
	ff ff		 imul	 eax, DWORD PTR __nMaxWidth$1$[ebp]
  003ec	2b d1		 sub	 edx, ecx
  003ee	8b 8d 84 fe ff
	ff		 mov	 ecx, DWORD PTR __k$1$[ebp]
  003f4	42		 inc	 edx
  003f5	8b bd ac fe ff
	ff		 mov	 edi, DWORD PTR __nMaxWidth$1$[ebp]
  003fb	89 95 a4 fe ff
	ff		 mov	 DWORD PTR __nLinkZMax$1$[ebp], edx
  00401	03 c1		 add	 eax, ecx
  00403	89 85 b0 fe ff
	ff		 mov	 DWORD PTR $T2[ebp], eax
  00409	0f 1f 80 00 00
	00 00		 npad	 7
$LL7@ApplySkill:
  00410	3b ce		 cmp	 ecx, esi
  00412	0f 8f 22 02 00
	00		 jg	 $LN5@ApplySkill
  00418	8b 95 60 fe ff
	ff		 mov	 edx, DWORD PTR __pObjs$1$[ebp]
  0041e	8d 14 82	 lea	 edx, DWORD PTR [edx+eax*4]
  00421	8b c6		 mov	 eax, esi
  00423	2b c1		 sub	 eax, ecx
  00425	89 95 88 fe ff
	ff		 mov	 DWORD PTR tv2147[ebp], edx
  0042b	40		 inc	 eax
  0042c	89 85 94 fe ff
	ff		 mov	 DWORD PTR tv2210[ebp], eax
$LL10@ApplySkill:
  00432	8b 32		 mov	 esi, DWORD PTR [edx]
  00434	b9 e8 03 00 00	 mov	 ecx, 1000		; 000003e8H
  00439	85 f6		 test	 esi, esi
  0043b	0f 84 c3 01 00
	00		 je	 $LN8@ApplySkill
  00441	8b bd 90 fe ff
	ff		 mov	 edi, DWORD PTR _this$GSCopy$1$[ebp]
$LL11@ApplySkill:
  00447	8b c1		 mov	 eax, ecx
  00449	49		 dec	 ecx
  0044a	89 8d 5c fe ff
	ff		 mov	 DWORD PTR ___limit$1$[ebp], ecx
  00450	85 c0		 test	 eax, eax
  00452	0f 84 a0 01 00
	00		 je	 $LN194@ApplySkill

; 627  : 		{
; 628  : 			bApply = FALSE;	// ˝ĂŔŰŔş FALSE
; 629  : 
; 630  : 			if( pObj->GetType() != OT_MOVER )

  00458	8b 86 70 01 00
	00		 mov	 eax, DWORD PTR [esi+368]
  0045e	83 f8 05	 cmp	 eax, 5
  00461	74 0e		 je	 SHORT $LN37@ApplySkill

; 631  : 				Error( "ApplySkillLine : pObj°ˇ MOVER°ˇ ľĆ´Ď´Ů %d", pObj->GetType() );

  00463	50		 push	 eax
  00464	68 00 00 00 00	 push	 OFFSET ??_C@_0CK@CMFPMHIM@ApplySkillLine?5?3?5pObj?$LA?$KB?5MOVER?$LA?$KB@
  00469	e8 00 00 00 00	 call	 ?Error@@YAPBDPBDZZ	; Error
  0046e	83 c4 08	 add	 esp, 8
$LN37@ApplySkill:

; 632  : 
; 633  : 			if( GetType() == OT_MOVER )		// °ř°ÝŔÚ°ˇ ą«ąöłÄ.

  00471	83 bf 70 01 00
	00 05		 cmp	 DWORD PTR [edi+368], 5
  00478	75 73		 jne	 SHORT $LN192@ApplySkill

; 634  : 			{
; 635  : 				CMover *pAttacker = (CMover *)this;
; 636  : 				if( pAttacker->IsPlayer() )			// °ř°ÝŔÚ°ˇ ÇĂ·ąŔĚľîłÄ

  0047a	83 bf 30 02 00
	00 00		 cmp	 DWORD PTR [edi+560], 0
  00481	74 55		 je	 SHORT $LN40@ApplySkill

; 637  : 				{
; 638  : 					bApply = TRUE;
; 639  : #if __VER >= 8 // __S8_PK
; 640  : 					CMover *pDefender = (CMover *)pObj;
; 641  : 					if( pDefender->IsPlayer() )

  00483	83 be 30 02 00
	00 00		 cmp	 DWORD PTR [esi+560], 0
  0048a	c7 85 9c fe ff
	ff 01 00 00 00	 mov	 DWORD PTR _bApply$1$[ebp], 1
  00494	74 42		 je	 SHORT $LN40@ApplySkill

; 642  : 					{
; 643  : 						if( bControl == FALSE && pAttacker->GetHitType( pDefender, bTarget, FALSE ) == HITTYPE_PK )

  00496	83 7d 24 00	 cmp	 DWORD PTR _bControl$[ebp], 0
  0049a	75 15		 jne	 SHORT $LN43@ApplySkill
  0049c	6a 00		 push	 0
  0049e	6a 00		 push	 0
  004a0	56		 push	 esi
  004a1	8b cf		 mov	 ecx, edi
  004a3	e8 00 00 00 00	 call	 ?GetHitType@CMover@@QAE?AW4HITTYPE@@PAV1@HH@Z ; CMover::GetHitType
  004a8	83 f8 05	 cmp	 eax, 5
  004ab	75 04		 jne	 SHORT $LN43@ApplySkill

; 644  : 							bApply = FALSE;

  004ad	33 c0		 xor	 eax, eax
  004af	eb 34		 jmp	 SHORT $LN41@ApplySkill
$LN43@ApplySkill:

; 645  : //	#ifdef	__JHMA_VER_8_5_2			 // 8.5Â÷ µŕľóÁßŔÎ µÎ±¸·ěŔĚ ż¬°üµÇÁöľĘ°Ô ĽöÁ¤  World
; 646  : 						else if( pAttacker->m_nDuel == 1 && pDefender->m_nDuel == 1 && pAttacker->GetHitType( pDefender, bTarget, FALSE ) != HITTYPE_PVP )

  004b1	83 bf 3c 07 00
	00 01		 cmp	 DWORD PTR [edi+1852], 1
  004b8	75 25		 jne	 SHORT $LN200@ApplySkill
  004ba	83 be 3c 07 00
	00 01		 cmp	 DWORD PTR [esi+1852], 1
  004c1	75 1c		 jne	 SHORT $LN200@ApplySkill
  004c3	6a 00		 push	 0
  004c5	6a 00		 push	 0
  004c7	56		 push	 esi
  004c8	8b cf		 mov	 ecx, edi
  004ca	e8 00 00 00 00	 call	 ?GetHitType@CMover@@QAE?AW4HITTYPE@@PAV1@HH@Z ; CMover::GetHitType
  004cf	83 f8 02	 cmp	 eax, 2
  004d2	74 0b		 je	 SHORT $LN200@ApplySkill

; 647  : 							bApply = FALSE;

  004d4	33 c0		 xor	 eax, eax

; 648  : //	#endif // __JHMA_VER_8_5_1	
; 649  : 					}
; 650  : #endif // __VER >= 8 // __S8_PK
; 651  : 				} else

  004d6	eb 0d		 jmp	 SHORT $LN41@ApplySkill
$LN40@ApplySkill:

; 652  : 				{
; 653  : 					// °ř°ÝŔÚ°ˇ ¸ó˝şĹÍ¸é
; 654  : 					bApply = TRUE;		// 
; 655  : 				}
; 656  : 			} else
; 657  : 			{
; 658  : 				// °ř°ÝŔÚ°ˇ ą«ąö°ˇ ľĆ´Ď´Ů.
; 659  : 				bApply = TRUE;
; 660  : 			}
; 661  : 			
; 662  : 			if( bApply && pObj != this )		// this´Â °ř°Ý´ë»óżˇĽ­ Á¦żÜ.

  004d8	b8 01 00 00 00	 mov	 eax, 1
  004dd	eb 06		 jmp	 SHORT $LN41@ApplySkill
$LN200@ApplySkill:
  004df	8b 85 9c fe ff
	ff		 mov	 eax, DWORD PTR _bApply$1$[ebp]
$LN41@ApplySkill:
  004e5	85 c0		 test	 eax, eax
  004e7	0f 84 f7 00 00
	00		 je	 $LN48@ApplySkill
$LN192@ApplySkill:
  004ed	3b f7		 cmp	 esi, edi
  004ef	0f 84 ef 00 00
	00		 je	 $LN48@ApplySkill
; File C:\IAGOS\server\v18\Source\Source\_Common\Obj.h

; 180  : 	BOOL			IsDelete()	{ return (m_dwFlags & OBJ_FLAG_DELETE);  }

  004f5	f6 46 04 01	 test	 BYTE PTR [esi+4], 1

; 327  : 	return pObj && ( pObj->IsDelete() == FALSE ); 

  004f9	0f 85 e5 00 00
	00		 jne	 $LN48@ApplySkill
; File C:\IAGOS\server\v18\Source\Source\_Common\Mover.h

; 1251 : 	BOOL			IsLive() { return m_pActMover->IsDie() == FALSE || m_nHitPoint > 0; }		// && ¸¦  ||·Î ąŮ˛ĺŔ˝.  !=¸¦ >·Î ąŮ˛Ţ

  004ff	8b 86 38 02 00
	00		 mov	 eax, DWORD PTR [esi+568]
  00505	f7 40 04 00 00
	00 08		 test	 DWORD PTR [eax+4], 134217728 ; 08000000H
  0050c	74 0d		 je	 SHORT $LN190@ApplySkill
  0050e	83 be f8 05 00
	00 00		 cmp	 DWORD PTR [esi+1528], 0
  00515	0f 8e c9 00 00
	00		 jle	 $LN48@ApplySkill
$LN190@ApplySkill:
; File C:\IAGOS\server\v18\Source\Source\_Common\Obj.h

; 215  : 	D3DXVECTOR3		GetPos()	{ return m_vPos; }

  0051b	8b 86 68 01 00
	00		 mov	 eax, DWORD PTR [esi+360]
  00521	f3 0f 7e 86 60
	01 00 00	 movq	 xmm0, QWORD PTR [esi+352]
  00529	89 45 e0	 mov	 DWORD PTR $T4[ebp+8], eax
; File C:\IAGOS\server\v18\Source\Source\_Common\ctrl.cpp

; 668  : 					D3DXVec3TransformCoord( &vDestLocal, &pTarget->GetPos(), &mInv );

  0052c	8d 85 74 ff ff
	ff		 lea	 eax, DWORD PTR _mInv$[ebp]
  00532	50		 push	 eax
  00533	8d 45 d8	 lea	 eax, DWORD PTR $T4[ebp]
; File C:\IAGOS\server\v18\Source\Source\_Common\Obj.h

; 215  : 	D3DXVECTOR3		GetPos()	{ return m_vPos; }

  00536	66 0f d6 45 d8	 movq	 QWORD PTR $T4[ebp], xmm0
; File C:\IAGOS\server\v18\Source\Source\_Common\ctrl.cpp

; 668  : 					D3DXVec3TransformCoord( &vDestLocal, &pTarget->GetPos(), &mInv );

  0053b	50		 push	 eax
  0053c	8d 45 cc	 lea	 eax, DWORD PTR _vDestLocal$[ebp]
  0053f	50		 push	 eax
  00540	e8 00 00 00 00	 call	 _D3DXVec3TransformCoord@12

; 669  : 					// Ĺ¸°ŮĂř AABB
; 670  : 					D3DXVECTOR3 vMin2 = vDestLocal + pTarget->m_pModel->m_vMin;

  00545	8b 86 78 01 00
	00		 mov	 eax, DWORD PTR [esi+376]
; File C:\IAGOS\server\v18\Source\Source\DX_SDK\d3dx9math.inl

; 377  :     return D3DXVECTOR3(x + v.x, y + v.y, z + v.z);

  0054b	f3 0f 10 6d d0	 movss	 xmm5, DWORD PTR _vDestLocal$[ebp+4]
  00550	f3 0f 10 65 d4	 movss	 xmm4, DWORD PTR _vDestLocal$[ebp+8]
  00555	0f 28 d5	 movaps	 xmm2, xmm5
  00558	f3 0f 10 5d cc	 movss	 xmm3, DWORD PTR _vDestLocal$[ebp]
  0055d	0f 28 cc	 movaps	 xmm1, xmm4
  00560	f3 0f 58 50 7c	 addss	 xmm2, DWORD PTR [eax+124]
  00565	f3 0f 58 88 80
	00 00 00	 addss	 xmm1, DWORD PTR [eax+128]
  0056d	0f 28 c3	 movaps	 xmm0, xmm3
  00570	f3 0f 58 40 78	 addss	 xmm0, DWORD PTR [eax+120]

; 301  :     y = fy;

  00575	f3 0f 11 55 e8	 movss	 DWORD PTR _vMin2$6[ebp+4], xmm2

; 302  :     z = fz;

  0057a	f3 0f 11 4d ec	 movss	 DWORD PTR _vMin2$6[ebp+8], xmm1
  0057f	f3 0f 11 45 e4	 movss	 DWORD PTR _vMin2$6[ebp], xmm0

; 377  :     return D3DXVECTOR3(x + v.x, y + v.y, z + v.z);

  00584	f3 0f 58 a8 88
	00 00 00	 addss	 xmm5, DWORD PTR [eax+136]
  0058c	f3 0f 58 a0 8c
	00 00 00	 addss	 xmm4, DWORD PTR [eax+140]
  00594	f3 0f 58 98 84
	00 00 00	 addss	 xmm3, DWORD PTR [eax+132]
; File C:\IAGOS\server\v18\Source\Source\_Common\ctrl.cpp

; 672  : 					if( ::IsTouchAABB( vMin1, vMax1, vMin2, vMax2 ) )		// AABBĂćµą°Ë»ç.

  0059c	8d 45 f0	 lea	 eax, DWORD PTR _vMax2$9[ebp]
  0059f	50		 push	 eax
  005a0	8d 45 e4	 lea	 eax, DWORD PTR _vMin2$6[ebp]
; File C:\IAGOS\server\v18\Source\Source\DX_SDK\d3dx9math.inl

; 301  :     y = fy;

  005a3	f3 0f 11 6d f4	 movss	 DWORD PTR _vMax2$9[ebp+4], xmm5
; File C:\IAGOS\server\v18\Source\Source\_Common\ctrl.cpp

; 672  : 					if( ::IsTouchAABB( vMin1, vMax1, vMin2, vMax2 ) )		// AABBĂćµą°Ë»ç.

  005a8	50		 push	 eax
  005a9	8d 45 b4	 lea	 eax, DWORD PTR _vMax1$[ebp]
; File C:\IAGOS\server\v18\Source\Source\DX_SDK\d3dx9math.inl

; 300  :     x = fx;

  005ac	f3 0f 11 5d f0	 movss	 DWORD PTR _vMax2$9[ebp], xmm3
; File C:\IAGOS\server\v18\Source\Source\_Common\ctrl.cpp

; 672  : 					if( ::IsTouchAABB( vMin1, vMax1, vMin2, vMax2 ) )		// AABBĂćµą°Ë»ç.

  005b1	50		 push	 eax
  005b2	8d 45 c0	 lea	 eax, DWORD PTR _vMin1$[ebp]
; File C:\IAGOS\server\v18\Source\Source\DX_SDK\d3dx9math.inl

; 302  :     z = fz;

  005b5	f3 0f 11 65 f8	 movss	 DWORD PTR _vMax2$9[ebp+8], xmm4
; File C:\IAGOS\server\v18\Source\Source\_Common\ctrl.cpp

; 672  : 					if( ::IsTouchAABB( vMin1, vMax1, vMin2, vMax2 ) )		// AABBĂćµą°Ë»ç.

  005ba	50		 push	 eax
  005bb	e8 00 00 00 00	 call	 ?IsTouchAABB@@YAHABUD3DXVECTOR3@@000@Z ; IsTouchAABB
  005c0	83 c4 10	 add	 esp, 16			; 00000010H
  005c3	85 c0		 test	 eax, eax
  005c5	74 1d		 je	 SHORT $LN48@ApplySkill

; 673  : 					{
; 674  : 						pTarget->ApplySkill( this, pSkillProp, pAddSkillProp, bIgnoreProb, 0, FALSE, bTarget );		// bTarget Ĺ¸°ŮŔĚ ľřŔ¸ąÇ·Î FALSE·Î łÖŔ˝. PK˝Ă Ľ±»§Ŕ» ÄĄĽöľřŔ˝

  005c7	6a 00		 push	 0
  005c9	6a 00		 push	 0
  005cb	6a 00		 push	 0
  005cd	ff 75 20	 push	 DWORD PTR _bIgnoreProb$[ebp]
  005d0	8b ce		 mov	 ecx, esi
  005d2	ff b5 70 fe ff
	ff		 push	 DWORD PTR _pAddSkillProp$GSCopy$1$[ebp]
  005d8	ff b5 74 fe ff
	ff		 push	 DWORD PTR _pSkillProp$GSCopy$1$[ebp]
  005de	57		 push	 edi
  005df	e8 00 00 00 00	 call	 ?ApplySkill@CCtrl@@QAEXPAV1@PAUItemProp@@PAUAddSkillProp@@_NHHH@Z ; CCtrl::ApplySkill
$LN48@ApplySkill:

; 675  : 					}
; 676  : 				}
; 677  : 			} // bApply
; 678  : 		}
; 679  : 		END_LINKMAP

  005e4	8b b6 80 01 00
	00		 mov	 esi, DWORD PTR [esi+384]
  005ea	8b 8d 5c fe ff
	ff		 mov	 ecx, DWORD PTR ___limit$1$[ebp]
  005f0	85 f6		 test	 esi, esi
  005f2	0f 85 4f fe ff
	ff		 jne	 $LL11@ApplySkill
$LN194@ApplySkill:
  005f8	8b 95 88 fe ff
	ff		 mov	 edx, DWORD PTR tv2147[ebp]
  005fe	8b 85 94 fe ff
	ff		 mov	 eax, DWORD PTR tv2210[ebp]
$LN8@ApplySkill:

; 626  : 		FOR_LINKMAP( GetWorld(), vPos, pObj, nRange, CObj::linkPlayer, GetLayer() )

  00604	83 c2 04	 add	 edx, 4
  00607	83 e8 01	 sub	 eax, 1
  0060a	89 95 88 fe ff
	ff		 mov	 DWORD PTR tv2147[ebp], edx
  00610	89 85 94 fe ff
	ff		 mov	 DWORD PTR tv2210[ebp], eax
  00616	0f 85 16 fe ff
	ff		 jne	 $LL10@ApplySkill
  0061c	8b 95 a4 fe ff
	ff		 mov	 edx, DWORD PTR __nLinkZMax$1$[ebp]
  00622	8b 85 b0 fe ff
	ff		 mov	 eax, DWORD PTR $T2[ebp]
  00628	8b 8d 84 fe ff
	ff		 mov	 ecx, DWORD PTR __k$1$[ebp]
  0062e	8b b5 80 fe ff
	ff		 mov	 esi, DWORD PTR tv2222[ebp]
  00634	8b bd ac fe ff
	ff		 mov	 edi, DWORD PTR __nMaxWidth$1$[ebp]
$LN5@ApplySkill:
  0063a	83 ea 01	 sub	 edx, 1
  0063d	8d 04 07	 lea	 eax, DWORD PTR [edi+eax]
  00640	89 95 a4 fe ff
	ff		 mov	 DWORD PTR __nLinkZMax$1$[ebp], edx
  00646	89 85 b0 fe ff
	ff		 mov	 DWORD PTR $T2[ebp], eax
  0064c	0f 85 be fd ff
	ff		 jne	 $LL7@ApplySkill
$LN2@ApplySkill:
; File C:\IAGOS\server\v18\Source\Source\_Common\Obj.h

; 221  : 	CWorld*			GetWorld()	{ return m_pWorld; }

  00652	8b bd 90 fe ff
	ff		 mov	 edi, DWORD PTR _this$GSCopy$1$[ebp]
; File C:\IAGOS\server\v18\Source\Source\_Common\ctrl.cpp

; 626  : 		FOR_LINKMAP( GetWorld(), vPos, pObj, nRange, CObj::linkPlayer, GetLayer() )

  00658	8b b5 98 fe ff
	ff		 mov	 esi, DWORD PTR __i$1$[ebp]
  0065e	46		 inc	 esi
  0065f	89 b5 98 fe ff
	ff		 mov	 DWORD PTR __i$1$[ebp], esi
  00665	ff b7 b8 01 00
	00		 push	 DWORD PTR [edi+440]
; File C:\IAGOS\server\v18\Source\Source\_Common\Obj.h

; 221  : 	CWorld*			GetWorld()	{ return m_pWorld; }

  0066b	8b 8f 6c 01 00
	00		 mov	 ecx, DWORD PTR [edi+364]
; File C:\IAGOS\server\v18\Source\Source\_Common\ctrl.cpp

; 626  : 		FOR_LINKMAP( GetWorld(), vPos, pObj, nRange, CObj::linkPlayer, GetLayer() )

  00671	6a 02		 push	 2
  00673	83 c1 24	 add	 ecx, 36			; 00000024H
  00676	e8 00 00 00 00	 call	 ?GetMaxLinkLevel@CLayeredLinkMap@@QAEHKH@Z ; CLayeredLinkMap::GetMaxLinkLevel
  0067b	3b f0		 cmp	 esi, eax
  0067d	0f 8c 1d fc ff
	ff		 jl	 $LL4@ApplySkill
$LN196@ApplySkill:

; 680  : 	}
; 681  : 
; 682  : 	// Ŕűżë´ë»óŔĚ ¸ó˝şĹÍŔÎ°ˇ.
; 683  : 	if( nApplyType & (OBJTYPE_MONSTER | OBJTYPE_CTRL) )

  00683	f3 0f 10 85 50
	fe ff ff	 movss	 xmm0, DWORD PTR _vPos$[ebp]
  0068b	f3 0f 10 95 58
	fe ff ff	 movss	 xmm2, DWORD PTR _vPos$[ebp+8]
$LN3@ApplySkill:
  00693	f6 45 08 06	 test	 BYTE PTR _nApplyType$[ebp], 6
  00697	0f 84 b1 04 00
	00		 je	 $LN14@ApplySkill

; 685  : 		FOR_LINKMAP( GetWorld(), vPos, pObj, nRange, CObj::linkDynamic, GetLayer() )

  0069d	8b 8f 6c 01 00
	00		 mov	 ecx, DWORD PTR [edi+364]
  006a3	33 f6		 xor	 esi, esi
  006a5	ff b7 b8 01 00
	00		 push	 DWORD PTR [edi+440]
  006ab	89 b5 a0 fe ff
	ff		 mov	 DWORD PTR __i$1$[ebp], esi
  006b1	6a 01		 push	 1
  006b3	66 0f 6e 49 14	 movd	 xmm1, DWORD PTR [ecx+20]
  006b8	83 c1 24	 add	 ecx, 36			; 00000024H
  006bb	0f 5b c9	 cvtdq2ps xmm1, xmm1
  006be	f3 0f 5e c1	 divss	 xmm0, xmm1
  006c2	f3 0f 2c c0	 cvttss2si eax, xmm0
  006c6	0f 28 c2	 movaps	 xmm0, xmm2
  006c9	f3 0f 5e c1	 divss	 xmm0, xmm1
  006cd	89 85 98 fe ff
	ff		 mov	 DWORD PTR __nLinkX$1$[ebp], eax
  006d3	f3 0f 2c c0	 cvttss2si eax, xmm0
  006d7	89 85 9c fe ff
	ff		 mov	 DWORD PTR __nLinkZ$1$[ebp], eax
  006dd	e8 00 00 00 00	 call	 ?GetMaxLinkLevel@CLayeredLinkMap@@QAEHKH@Z ; CLayeredLinkMap::GetMaxLinkLevel
  006e2	85 c0		 test	 eax, eax
  006e4	0f 8e 64 04 00
	00		 jle	 $LN14@ApplySkill
  006ea	f3 0f 2c 85 50
	fe ff ff	 cvttss2si eax, DWORD PTR _vPos$[ebp]
  006f2	89 85 5c fe ff
	ff		 mov	 DWORD PTR tv2190[ebp], eax
  006f8	f3 0f 2c 85 58
	fe ff ff	 cvttss2si eax, DWORD PTR _vPos$[ebp+8]
  00700	89 85 60 fe ff
	ff		 mov	 DWORD PTR tv2187[ebp], eax
  00706	8b 85 98 fe ff
	ff		 mov	 eax, DWORD PTR __nLinkX$1$[ebp]
  0070c	8b c8		 mov	 ecx, eax
  0070e	2b 8d 7c fe ff
	ff		 sub	 ecx, DWORD PTR _nRange$1$[ebp]
  00714	89 8d 64 fe ff
	ff		 mov	 DWORD PTR tv2174[ebp], ecx
  0071a	8b 8d 9c fe ff
	ff		 mov	 ecx, DWORD PTR __nLinkZ$1$[ebp]
  00720	8b d1		 mov	 edx, ecx
  00722	2b 95 7c fe ff
	ff		 sub	 edx, DWORD PTR _nRange$1$[ebp]
  00728	89 95 6c fe ff
	ff		 mov	 DWORD PTR tv2172[ebp], edx
  0072e	8b 95 7c fe ff
	ff		 mov	 edx, DWORD PTR _nRange$1$[ebp]
  00734	03 c2		 add	 eax, edx
  00736	89 85 68 fe ff
	ff		 mov	 DWORD PTR tv2170[ebp], eax
  0073c	8d 04 11	 lea	 eax, DWORD PTR [ecx+edx]
  0073f	89 85 4c fe ff
	ff		 mov	 DWORD PTR tv2168[ebp], eax
  00745	66 66 66 0f 1f
	84 00 00 00 00
	00		 npad	 11
$LL15@ApplySkill:
  00750	ff b7 b8 01 00
	00		 push	 DWORD PTR [edi+440]
; File C:\IAGOS\server\v18\Source\Source\_Common\Obj.h

; 221  : 	CWorld*			GetWorld()	{ return m_pWorld; }

  00756	8b 8f 6c 01 00
	00		 mov	 ecx, DWORD PTR [edi+364]
; File C:\IAGOS\server\v18\Source\Source\_Common\ctrl.cpp

; 685  : 		FOR_LINKMAP( GetWorld(), vPos, pObj, nRange, CObj::linkDynamic, GetLayer() )

  0075c	56		 push	 esi
  0075d	6a 01		 push	 1
  0075f	83 c1 24	 add	 ecx, 36			; 00000024H
  00762	e8 00 00 00 00	 call	 ?GetLinkWidth@CLayeredLinkMap@@QAEHKHH@Z ; CLayeredLinkMap::GetLinkWidth
  00767	ff b7 b8 01 00
	00		 push	 DWORD PTR [edi+440]
; File C:\IAGOS\server\v18\Source\Source\_Common\Obj.h

; 221  : 	CWorld*			GetWorld()	{ return m_pWorld; }

  0076d	8b 8f 6c 01 00
	00		 mov	 ecx, DWORD PTR [edi+364]
; File C:\IAGOS\server\v18\Source\Source\_Common\ctrl.cpp

; 685  : 		FOR_LINKMAP( GetWorld(), vPos, pObj, nRange, CObj::linkDynamic, GetLayer() )

  00773	8b f0		 mov	 esi, eax
  00775	ff b5 a0 fe ff
	ff		 push	 DWORD PTR __i$1$[ebp]
  0077b	83 c1 24	 add	 ecx, 36			; 00000024H
  0077e	6a 01		 push	 1
  00780	e8 00 00 00 00	 call	 ?GetObj@CLayeredLinkMap@@QAEPAPAVCObj@@KKH@Z ; CLayeredLinkMap::GetObj
  00785	8b 8f 6c 01 00
	00		 mov	 ecx, DWORD PTR [edi+364]
  0078b	8b fe		 mov	 edi, esi
  0078d	89 85 8c fe ff
	ff		 mov	 DWORD PTR __pObjs$1$[ebp], eax
  00793	8b 51 08	 mov	 edx, DWORD PTR [ecx+8]
  00796	8b 41 04	 mov	 eax, DWORD PTR [ecx+4]
  00799	0f af f8	 imul	 edi, eax
  0079c	0f af d6	 imul	 edx, esi
  0079f	c1 e0 07	 shl	 eax, 7
  007a2	8b 71 14	 mov	 esi, DWORD PTR [ecx+20]
  007a5	89 bd ac fe ff
	ff		 mov	 DWORD PTR __nMaxWidth$1$[ebp], edi
  007ab	89 95 b0 fe ff
	ff		 mov	 DWORD PTR __nMaxHeight$1$[ebp], edx
  007b1	99		 cdq
  007b2	f7 ff		 idiv	 edi
  007b4	8b f8		 mov	 edi, eax
  007b6	8b c6		 mov	 eax, esi
  007b8	0f af c7	 imul	 eax, edi
  007bb	99		 cdq
  007bc	2b c2		 sub	 eax, edx
  007be	8b c8		 mov	 ecx, eax
  007c0	8b 85 98 fe ff
	ff		 mov	 eax, DWORD PTR __nLinkX$1$[ebp]
  007c6	99		 cdq
  007c7	f7 ff		 idiv	 edi
  007c9	33 c0		 xor	 eax, eax
  007cb	d1 f9		 sar	 ecx, 1
  007cd	2b 95 98 fe ff
	ff		 sub	 edx, DWORD PTR __nLinkX$1$[ebp]
  007d3	0f af d6	 imul	 edx, esi
  007d6	03 95 5c fe ff
	ff		 add	 edx, DWORD PTR tv2190[ebp]
  007dc	3b d1		 cmp	 edx, ecx
  007de	0f 9f c0	 setg	 al
  007e1	89 85 a8 fe ff
	ff		 mov	 DWORD PTR __nX$1$[ebp], eax
  007e7	8b 85 9c fe ff
	ff		 mov	 eax, DWORD PTR __nLinkZ$1$[ebp]
  007ed	99		 cdq
  007ee	f7 ff		 idiv	 edi
  007f0	33 c0		 xor	 eax, eax
  007f2	2b 95 9c fe ff
	ff		 sub	 edx, DWORD PTR __nLinkZ$1$[ebp]
  007f8	0f af d6	 imul	 edx, esi
  007fb	03 95 60 fe ff
	ff		 add	 edx, DWORD PTR tv2187[ebp]
  00801	3b d1		 cmp	 edx, ecx
  00803	8b 8d a8 fe ff
	ff		 mov	 ecx, DWORD PTR __nX$1$[ebp]
  00809	0f 9f c0	 setg	 al
  0080c	89 85 78 fe ff
	ff		 mov	 DWORD PTR __nZ$1$[ebp], eax
  00812	8b 85 64 fe ff
	ff		 mov	 eax, DWORD PTR tv2174[ebp]
  00818	99		 cdq
  00819	f7 ff		 idiv	 edi
  0081b	33 d2		 xor	 edx, edx
  0081d	8b b5 78 fe ff
	ff		 mov	 esi, DWORD PTR __nZ$1$[ebp]
  00823	48		 dec	 eax
  00824	03 c1		 add	 eax, ecx
  00826	0f 49 d0	 cmovns	 edx, eax
  00829	8b 85 6c fe ff
	ff		 mov	 eax, DWORD PTR tv2172[ebp]
  0082f	89 95 80 fe ff
	ff		 mov	 DWORD PTR __k$1$[ebp], edx
  00835	99		 cdq
  00836	f7 ff		 idiv	 edi
  00838	33 d2		 xor	 edx, edx
  0083a	48		 dec	 eax
  0083b	03 c6		 add	 eax, esi
  0083d	0f 49 d0	 cmovns	 edx, eax
  00840	8b 85 68 fe ff
	ff		 mov	 eax, DWORD PTR tv2170[ebp]
  00846	89 95 a8 fe ff
	ff		 mov	 DWORD PTR __j$1$[ebp], edx
  0084c	99		 cdq
  0084d	f7 ff		 idiv	 edi
  0084f	8b 95 ac fe ff
	ff		 mov	 edx, DWORD PTR __nMaxWidth$1$[ebp]
  00855	03 c1		 add	 eax, ecx
  00857	3b c2		 cmp	 eax, edx
  00859	8d 4a ff	 lea	 ecx, DWORD PTR [edx-1]
  0085c	0f 4c c8	 cmovl	 ecx, eax
  0085f	8b 85 4c fe ff
	ff		 mov	 eax, DWORD PTR tv2168[ebp]
  00865	89 8d 84 fe ff
	ff		 mov	 DWORD PTR tv2217[ebp], ecx
  0086b	99		 cdq
  0086c	f7 ff		 idiv	 edi
  0086e	8b 8d b0 fe ff
	ff		 mov	 ecx, DWORD PTR __nMaxHeight$1$[ebp]
  00874	8d 14 06	 lea	 edx, DWORD PTR [esi+eax]
  00877	3b d1		 cmp	 edx, ecx
  00879	7c 03		 jl	 SHORT $LN53@ApplySkill
  0087b	8d 51 ff	 lea	 edx, DWORD PTR [ecx-1]
$LN53@ApplySkill:
  0087e	8b 8d a8 fe ff
	ff		 mov	 ecx, DWORD PTR __j$1$[ebp]
  00884	3b ca		 cmp	 ecx, edx
  00886	0f 8f 91 02 00
	00		 jg	 $LN13@ApplySkill
  0088c	8b b5 84 fe ff
	ff		 mov	 esi, DWORD PTR tv2217[ebp]
  00892	8b c1		 mov	 eax, ecx
  00894	0f af 85 ac fe
	ff ff		 imul	 eax, DWORD PTR __nMaxWidth$1$[ebp]
  0089b	2b d1		 sub	 edx, ecx
  0089d	8b 8d 80 fe ff
	ff		 mov	 ecx, DWORD PTR __k$1$[ebp]
  008a3	42		 inc	 edx
  008a4	8b bd ac fe ff
	ff		 mov	 edi, DWORD PTR __nMaxWidth$1$[ebp]
  008aa	89 95 94 fe ff
	ff		 mov	 DWORD PTR __nLinkZMax$1$[ebp], edx
  008b0	03 c1		 add	 eax, ecx
  008b2	89 85 88 fe ff
	ff		 mov	 DWORD PTR $T1[ebp], eax
$LL18@ApplySkill:
  008b8	3b ce		 cmp	 ecx, esi
  008ba	0f 8f 45 02 00
	00		 jg	 $LN16@ApplySkill
  008c0	8b 95 8c fe ff
	ff		 mov	 edx, DWORD PTR __pObjs$1$[ebp]
  008c6	8b fe		 mov	 edi, esi
  008c8	2b f9		 sub	 edi, ecx
  008ca	47		 inc	 edi
  008cb	89 bd a4 fe ff
	ff		 mov	 DWORD PTR tv2215[ebp], edi
  008d1	8d 14 82	 lea	 edx, DWORD PTR [edx+eax*4]
  008d4	89 95 b0 fe ff
	ff		 mov	 DWORD PTR tv2144[ebp], edx
  008da	66 0f 1f 44 00
	00		 npad	 6
$LL21@ApplySkill:
  008e0	8b 32		 mov	 esi, DWORD PTR [edx]
  008e2	b9 e8 03 00 00	 mov	 ecx, 1000		; 000003e8H
  008e7	85 f6		 test	 esi, esi
  008e9	0f 84 e0 01 00
	00		 je	 $LN19@ApplySkill
  008ef	90		 npad	 1
$LL22@ApplySkill:
  008f0	8b c1		 mov	 eax, ecx
  008f2	49		 dec	 ecx
  008f3	89 8d 78 fe ff
	ff		 mov	 DWORD PTR ___limit$1$[ebp], ecx
  008f9	85 c0		 test	 eax, eax
  008fb	0f 84 c2 01 00
	00		 je	 $LN195@ApplySkill

; 686  : 		{
; 687  : 			bApply = FALSE;
; 688  : 			if( pObj->GetType() == OT_MOVER )				// ´ë»óŔĚ ą«ąö¸é.

  00901	8b 86 70 01 00
	00		 mov	 eax, DWORD PTR [esi+368]
  00907	83 f8 05	 cmp	 eax, 5
  0090a	0f 85 87 00 00
	00		 jne	 $LN54@ApplySkill

; 695  : 				if( pAttacker->IsPlayer() && pAttacker->IsChaotic() == FALSE && pTarget->GetProp()->dwClass == RANK_GUARD )

  00910	8b bd 90 fe ff
	ff		 mov	 edi, DWORD PTR _this$GSCopy$1$[ebp]
  00916	33 c9		 xor	 ecx, ecx
  00918	83 be 64 06 00
	00 01		 cmp	 DWORD PTR [esi+1636], 1
  0091f	0f 95 c1	 setne	 cl
  00922	83 bf 30 02 00
	00 00		 cmp	 DWORD PTR [edi+560], 0
  00929	8b c1		 mov	 eax, ecx
  0092b	89 8d a8 fe ff
	ff		 mov	 DWORD PTR tv2209[ebp], ecx
  00931	74 5a		 je	 SHORT $LN57@ApplySkill
; File C:\IAGOS\server\v18\Source\Source\_Common\Mover.h

; 1257 : 	BOOL			IsChaotic( void ) { return m_dwPKPropensity > 0; }	/// Ä«żŔŔÎÁö

  00933	83 bf 58 07 00
	00 00		 cmp	 DWORD PTR [edi+1880], 0
; File C:\IAGOS\server\v18\Source\Source\_Common\ctrl.cpp

; 695  : 				if( pAttacker->IsPlayer() && pAttacker->IsChaotic() == FALSE && pTarget->GetProp()->dwClass == RANK_GUARD )

  0093a	77 51		 ja	 SHORT $LN57@ApplySkill
; File C:\IAGOS\server\v18\Source\Source\_Common\Mover.h

; 1020 : 	MoverProp*		GetProp() { return prj.GetMoverProp( m_dwIndex ); }	// °´ĂĽŔÇ ÇÁ·ÎĆŰĆĽ ľň±â 	

  0093c	8b 86 74 01 00
	00		 mov	 eax, DWORD PTR [esi+372]
; File C:\IAGOS\server\v18\Source\Source\_Common\Project.h

; 1406 : 	VERIFY_RANGE( nIndex, 0, m_nMoverPropSize, "GetMoverProp range_error", NULL );

  00942	85 c0		 test	 eax, eax
  00944	78 16		 js	 SHORT $LN89@ApplySkill
  00946	3b 05 b4 01 00
	00		 cmp	 eax, DWORD PTR ?prj@@3VCProject@@A+436
  0094c	7d 0e		 jge	 SHORT $LN89@ApplySkill

; 1407 : 	return m_pPropMover + nIndex;

  0094e	69 d0 90 06 00
	00		 imul	 edx, eax, 1680
  00954	03 15 b8 01 00
	00		 add	 edx, DWORD PTR ?prj@@3VCProject@@A+440
  0095a	eb 23		 jmp	 SHORT $LN84@ApplySkill
$LN89@ApplySkill:

; 579  : 	LPCTSTR szErr = Error( _T( "%s min:%d, max:%d, index:%d" ), szMsg, nMin, nMax, nIndex ); 

  0095c	50		 push	 eax
  0095d	ff 35 b4 01 00
	00		 push	 DWORD PTR ?prj@@3VCProject@@A+436
  00963	6a 00		 push	 0
  00965	68 00 00 00 00	 push	 OFFSET ??_C@_0BJ@GKPOBPPI@GetMoverProp?5range_error@
  0096a	68 00 00 00 00	 push	 OFFSET ??_C@_0BM@HMFGHCP@?$CFs?5min?3?$CFd?0?5max?3?$CFd?0?5index?3?$CFd@
  0096f	e8 00 00 00 00	 call	 ?Error@@YAPBDPBDZZ	; Error
  00974	8b 8d a8 fe ff
	ff		 mov	 ecx, DWORD PTR tv2209[ebp]
  0097a	83 c4 14	 add	 esp, 20			; 00000014H

; 1406 : 	VERIFY_RANGE( nIndex, 0, m_nMoverPropSize, "GetMoverProp range_error", NULL );

  0097d	33 d2		 xor	 edx, edx
$LN84@ApplySkill:
; File C:\IAGOS\server\v18\Source\Source\_Common\ctrl.cpp

; 695  : 				if( pAttacker->IsPlayer() && pAttacker->IsChaotic() == FALSE && pTarget->GetProp()->dwClass == RANK_GUARD )

  0097f	8b c1		 mov	 eax, ecx
  00981	33 c9		 xor	 ecx, ecx
  00983	83 ba 94 00 00
	00 08		 cmp	 DWORD PTR [edx+148], 8
  0098a	0f 44 c1	 cmove	 eax, ecx
$LN57@ApplySkill:

; 703  : 					bApply = TRUE;							
; 704  : 			}
; 705  : 			
; 706  : 			
; 707  : 			if( bApply )

  0098d	85 c0		 test	 eax, eax
  0098f	0f 84 1a 01 00
	00		 je	 $LN62@ApplySkill
  00995	eb 1c		 jmp	 SHORT $LN189@ApplySkill
$LN54@ApplySkill:

; 696  : 					bApply = FALSE;
; 697  : #endif //	#endif // __JHMA_VER_8_5_1			 // 8.5Â÷ °ćşńş´ ąüŔ§˝şĹł °ř°ÝČż°ú şŇ°ˇ·Î ĽöÁ¤ World
; 698  : 			} else
; 699  : 			// ´ë»óŔĚ ÄÁĆ®·ŃŔĚ¸é
; 700  : 			if( pObj->GetType() == OT_CTRL )

  00997	83 f8 02	 cmp	 eax, 2
  0099a	0f 85 0f 01 00
	00		 jne	 $LN62@ApplySkill

; 701  : 			{
; 702  : 				if( GetType() == OT_MOVER )			// °ř°ÝŔÚ°ˇ ą«ąöŔĎ¶§¸¸ Ŕűżë. ÄÁĆ®·ŃŔĚ ÄÁĆ®·Ńżˇ°Ô żµÇâŔ» ÁŮĽř ľř´Ů.

  009a0	8b bd 90 fe ff
	ff		 mov	 edi, DWORD PTR _this$GSCopy$1$[ebp]
  009a6	83 bf 70 01 00
	00 05		 cmp	 DWORD PTR [edi+368], 5
  009ad	0f 85 fc 00 00
	00		 jne	 $LN62@ApplySkill
$LN189@ApplySkill:

; 708  : 			{
; 709  : 				if( pObj->GetType() == OT_MOVER )

  009b3	83 be 70 01 00
	00 05		 cmp	 DWORD PTR [esi+368], 5
  009ba	0f 85 d2 00 00
	00		 jne	 $LN61@ApplySkill
; File C:\IAGOS\server\v18\Source\Source\_Common\Obj.h

; 180  : 	BOOL			IsDelete()	{ return (m_dwFlags & OBJ_FLAG_DELETE);  }

  009c0	f6 46 04 01	 test	 BYTE PTR [esi+4], 1

; 327  : 	return pObj && ( pObj->IsDelete() == FALSE ); 

  009c4	0f 85 e5 00 00
	00		 jne	 $LN62@ApplySkill
; File C:\IAGOS\server\v18\Source\Source\_Common\Mover.h

; 1251 : 	BOOL			IsLive() { return m_pActMover->IsDie() == FALSE || m_nHitPoint > 0; }		// && ¸¦  ||·Î ąŮ˛ĺŔ˝.  !=¸¦ >·Î ąŮ˛Ţ

  009ca	8b 86 38 02 00
	00		 mov	 eax, DWORD PTR [esi+568]
  009d0	f7 40 04 00 00
	00 08		 test	 DWORD PTR [eax+4], 134217728 ; 08000000H
  009d7	74 0d		 je	 SHORT $LN187@ApplySkill
  009d9	83 be f8 05 00
	00 00		 cmp	 DWORD PTR [esi+1528], 0
  009e0	0f 8e c9 00 00
	00		 jle	 $LN62@ApplySkill
$LN187@ApplySkill:
; File C:\IAGOS\server\v18\Source\Source\_Common\Obj.h

; 215  : 	D3DXVECTOR3		GetPos()	{ return m_vPos; }

  009e6	8b 86 68 01 00
	00		 mov	 eax, DWORD PTR [esi+360]
  009ec	f3 0f 7e 86 60
	01 00 00	 movq	 xmm0, QWORD PTR [esi+352]
  009f4	89 45 e0	 mov	 DWORD PTR $T3[ebp+8], eax
; File C:\IAGOS\server\v18\Source\Source\_Common\ctrl.cpp

; 716  : 						D3DXVec3TransformCoord( &vDestLocal, &pTarget->GetPos(), &mInv );

  009f7	8d 85 74 ff ff
	ff		 lea	 eax, DWORD PTR _mInv$[ebp]
  009fd	50		 push	 eax
  009fe	8d 45 d8	 lea	 eax, DWORD PTR $T3[ebp]
; File C:\IAGOS\server\v18\Source\Source\_Common\Obj.h

; 215  : 	D3DXVECTOR3		GetPos()	{ return m_vPos; }

  00a01	66 0f d6 45 d8	 movq	 QWORD PTR $T3[ebp], xmm0
; File C:\IAGOS\server\v18\Source\Source\_Common\ctrl.cpp

; 716  : 						D3DXVec3TransformCoord( &vDestLocal, &pTarget->GetPos(), &mInv );

  00a06	50		 push	 eax
  00a07	8d 45 cc	 lea	 eax, DWORD PTR _vDestLocal$[ebp]
  00a0a	50		 push	 eax
  00a0b	e8 00 00 00 00	 call	 _D3DXVec3TransformCoord@12

; 717  : 						// Ĺ¸°ŮĂř AABB
; 718  : 						D3DXVECTOR3 vMin2 = vDestLocal + pTarget->m_pModel->m_vMin;

  00a10	8b 86 78 01 00
	00		 mov	 eax, DWORD PTR [esi+376]
; File C:\IAGOS\server\v18\Source\Source\DX_SDK\d3dx9math.inl

; 377  :     return D3DXVECTOR3(x + v.x, y + v.y, z + v.z);

  00a16	f3 0f 10 6d d0	 movss	 xmm5, DWORD PTR _vDestLocal$[ebp+4]
  00a1b	f3 0f 10 65 d4	 movss	 xmm4, DWORD PTR _vDestLocal$[ebp+8]
  00a20	0f 28 d5	 movaps	 xmm2, xmm5
  00a23	f3 0f 10 5d cc	 movss	 xmm3, DWORD PTR _vDestLocal$[ebp]
  00a28	0f 28 cc	 movaps	 xmm1, xmm4
  00a2b	f3 0f 58 50 7c	 addss	 xmm2, DWORD PTR [eax+124]
  00a30	f3 0f 58 88 80
	00 00 00	 addss	 xmm1, DWORD PTR [eax+128]
  00a38	0f 28 c3	 movaps	 xmm0, xmm3
  00a3b	f3 0f 58 40 78	 addss	 xmm0, DWORD PTR [eax+120]

; 301  :     y = fy;

  00a40	f3 0f 11 55 f4	 movss	 DWORD PTR _vMin2$10[ebp+4], xmm2

; 302  :     z = fz;

  00a45	f3 0f 11 4d f8	 movss	 DWORD PTR _vMin2$10[ebp+8], xmm1
  00a4a	f3 0f 11 45 f0	 movss	 DWORD PTR _vMin2$10[ebp], xmm0

; 377  :     return D3DXVECTOR3(x + v.x, y + v.y, z + v.z);

  00a4f	f3 0f 58 a8 88
	00 00 00	 addss	 xmm5, DWORD PTR [eax+136]
  00a57	f3 0f 58 a0 8c
	00 00 00	 addss	 xmm4, DWORD PTR [eax+140]
  00a5f	f3 0f 58 98 84
	00 00 00	 addss	 xmm3, DWORD PTR [eax+132]
; File C:\IAGOS\server\v18\Source\Source\_Common\ctrl.cpp

; 720  : 						if( ::IsTouchAABB( vMin1, vMax1, vMin2, vMax2 ) )		// AABBĂćµą°Ë»ç.

  00a67	8d 45 e4	 lea	 eax, DWORD PTR _vMax2$8[ebp]
  00a6a	50		 push	 eax
  00a6b	8d 45 f0	 lea	 eax, DWORD PTR _vMin2$10[ebp]
; File C:\IAGOS\server\v18\Source\Source\DX_SDK\d3dx9math.inl

; 301  :     y = fy;

  00a6e	f3 0f 11 6d e8	 movss	 DWORD PTR _vMax2$8[ebp+4], xmm5
; File C:\IAGOS\server\v18\Source\Source\_Common\ctrl.cpp

; 720  : 						if( ::IsTouchAABB( vMin1, vMax1, vMin2, vMax2 ) )		// AABBĂćµą°Ë»ç.

  00a73	50		 push	 eax
  00a74	8d 45 b4	 lea	 eax, DWORD PTR _vMax1$[ebp]
; File C:\IAGOS\server\v18\Source\Source\DX_SDK\d3dx9math.inl

; 300  :     x = fx;

  00a77	f3 0f 11 5d e4	 movss	 DWORD PTR _vMax2$8[ebp], xmm3
; File C:\IAGOS\server\v18\Source\Source\_Common\ctrl.cpp

; 720  : 						if( ::IsTouchAABB( vMin1, vMax1, vMin2, vMax2 ) )		// AABBĂćµą°Ë»ç.

  00a7c	50		 push	 eax
  00a7d	8d 45 c0	 lea	 eax, DWORD PTR _vMin1$[ebp]
; File C:\IAGOS\server\v18\Source\Source\DX_SDK\d3dx9math.inl

; 302  :     z = fz;

  00a80	f3 0f 11 65 ec	 movss	 DWORD PTR _vMax2$8[ebp+8], xmm4
; File C:\IAGOS\server\v18\Source\Source\_Common\ctrl.cpp

; 720  : 						if( ::IsTouchAABB( vMin1, vMax1, vMin2, vMax2 ) )		// AABBĂćµą°Ë»ç.

  00a85	50		 push	 eax
  00a86	e8 00 00 00 00	 call	 ?IsTouchAABB@@YAHABUD3DXVECTOR3@@000@Z ; IsTouchAABB
  00a8b	83 c4 10	 add	 esp, 16			; 00000010H
  00a8e	85 c0		 test	 eax, eax
  00a90	74 1d		 je	 SHORT $LN62@ApplySkill
$LN61@ApplySkill:

; 721  : 						{
; 722  : 							((CCtrl*)pObj)->ApplySkill( this, pSkillProp, pAddSkillProp, bIgnoreProb );		// ´ë»óżˇ°Ô Čż°ú¸¦ ŔűżëÇÔ.
; 723  : 						}
; 724  : 					}
; 725  : 				} else
; 726  : 					((CCtrl*)pObj)->ApplySkill( this, pSkillProp, pAddSkillProp, bIgnoreProb );		// ´ë»óżˇ°Ô Čż°ú¸¦ ŔűżëÇÔ.
; 727  : 			}
; 728  : 		}
; 729  : 		END_LINKMAP

  00a92	6a 01		 push	 1
  00a94	6a 00		 push	 0
  00a96	6a 00		 push	 0
  00a98	ff 75 20	 push	 DWORD PTR _bIgnoreProb$[ebp]
  00a9b	8b ce		 mov	 ecx, esi
  00a9d	ff b5 70 fe ff
	ff		 push	 DWORD PTR _pAddSkillProp$GSCopy$1$[ebp]
  00aa3	ff b5 74 fe ff
	ff		 push	 DWORD PTR _pSkillProp$GSCopy$1$[ebp]
  00aa9	57		 push	 edi
  00aaa	e8 00 00 00 00	 call	 ?ApplySkill@CCtrl@@QAEXPAV1@PAUItemProp@@PAUAddSkillProp@@_NHHH@Z ; CCtrl::ApplySkill
$LN62@ApplySkill:
  00aaf	8b b6 80 01 00
	00		 mov	 esi, DWORD PTR [esi+384]
  00ab5	8b 8d 78 fe ff
	ff		 mov	 ecx, DWORD PTR ___limit$1$[ebp]
  00abb	85 f6		 test	 esi, esi
  00abd	0f 85 2d fe ff
	ff		 jne	 $LL22@ApplySkill
$LN195@ApplySkill:
  00ac3	8b 95 b0 fe ff
	ff		 mov	 edx, DWORD PTR tv2144[ebp]
  00ac9	8b bd a4 fe ff
	ff		 mov	 edi, DWORD PTR tv2215[ebp]
$LN19@ApplySkill:

; 685  : 		FOR_LINKMAP( GetWorld(), vPos, pObj, nRange, CObj::linkDynamic, GetLayer() )

  00acf	83 c2 04	 add	 edx, 4
  00ad2	83 ef 01	 sub	 edi, 1
  00ad5	89 95 b0 fe ff
	ff		 mov	 DWORD PTR tv2144[ebp], edx
  00adb	89 bd a4 fe ff
	ff		 mov	 DWORD PTR tv2215[ebp], edi
  00ae1	0f 85 f9 fd ff
	ff		 jne	 $LL21@ApplySkill
  00ae7	8b 95 94 fe ff
	ff		 mov	 edx, DWORD PTR __nLinkZMax$1$[ebp]
  00aed	8b 85 88 fe ff
	ff		 mov	 eax, DWORD PTR $T1[ebp]
  00af3	8b 8d 80 fe ff
	ff		 mov	 ecx, DWORD PTR __k$1$[ebp]
  00af9	8b b5 84 fe ff
	ff		 mov	 esi, DWORD PTR tv2217[ebp]
  00aff	8b bd ac fe ff
	ff		 mov	 edi, DWORD PTR __nMaxWidth$1$[ebp]
$LN16@ApplySkill:
  00b05	83 ea 01	 sub	 edx, 1
  00b08	8d 04 07	 lea	 eax, DWORD PTR [edi+eax]
  00b0b	89 95 94 fe ff
	ff		 mov	 DWORD PTR __nLinkZMax$1$[ebp], edx
  00b11	89 85 88 fe ff
	ff		 mov	 DWORD PTR $T1[ebp], eax
  00b17	0f 85 9b fd ff
	ff		 jne	 $LL18@ApplySkill
$LN13@ApplySkill:
  00b1d	8b bd 90 fe ff
	ff		 mov	 edi, DWORD PTR _this$GSCopy$1$[ebp]
  00b23	8b b5 a0 fe ff
	ff		 mov	 esi, DWORD PTR __i$1$[ebp]
  00b29	46		 inc	 esi
  00b2a	89 b5 a0 fe ff
	ff		 mov	 DWORD PTR __i$1$[ebp], esi
  00b30	ff b7 b8 01 00
	00		 push	 DWORD PTR [edi+440]
  00b36	8b 8f 6c 01 00
	00		 mov	 ecx, DWORD PTR [edi+364]
  00b3c	6a 01		 push	 1
  00b3e	83 c1 24	 add	 ecx, 36			; 00000024H
  00b41	e8 00 00 00 00	 call	 ?GetMaxLinkLevel@CLayeredLinkMap@@QAEHKH@Z ; CLayeredLinkMap::GetMaxLinkLevel
  00b46	3b f0		 cmp	 esi, eax
  00b48	0f 8c 02 fc ff
	ff		 jl	 $LL15@ApplySkill
$LN14@ApplySkill:

; 730  : 	}
; 731  : 		
; 732  : #endif // WORLDSERVER		
; 733  : } // ApplySkillLine()

  00b4e	8b 4d fc	 mov	 ecx, DWORD PTR __$ArrayPad$[ebp]
  00b51	5f		 pop	 edi
  00b52	33 cd		 xor	 ecx, ebp
  00b54	5e		 pop	 esi
  00b55	e8 00 00 00 00	 call	 @__security_check_cookie@4
  00b5a	8b e5		 mov	 esp, ebp
  00b5c	5d		 pop	 ebp
  00b5d	c2 20 00	 ret	 32			; 00000020H
?ApplySkillLine@CCtrl@@QAEXHPAUItemProp@@PAUAddSkillProp@@MMM_NH@Z ENDP ; CCtrl::ApplySkillLine
_TEXT	ENDS
; Function compile flags: /Ogtp
; File C:\IAGOS\server\v18\Source\Source\_Common\ctrl.cpp
; File C:\IAGOS\server\v18\Source\Source\_Common\Obj.h
; File C:\IAGOS\server\v18\Source\Source\_Common\ctrl.cpp
; File C:\IAGOS\server\v18\Source\Source\_Common\Obj.h
; File C:\IAGOS\server\v18\Source\Source\_Common\ctrl.cpp
; File C:\IAGOS\server\v18\Source\Source\_Common\Obj.h
; File C:\IAGOS\server\v18\Source\Source\_Common\ctrl.cpp
; File C:\IAGOS\server\v18\Source\Source\_Common\Obj.h
; File C:\IAGOS\server\v18\Source\Source\_Common\ctrl.cpp
; File C:\IAGOS\server\v18\Source\Source\_Common\Obj.h
; File C:\IAGOS\server\v18\Source\Source\_Common\Mover.h
; File C:\IAGOS\server\v18\Source\Source\_Common\ctrl.cpp
; File C:\IAGOS\server\v18\Source\Source\_Common\Obj.h
; File C:\IAGOS\server\v18\Source\Source\_Common\ctrl.cpp
; File C:\IAGOS\server\v18\Source\Source\_Common\Obj.h
; File C:\IAGOS\server\v18\Source\Source\_Common\ctrl.cpp
; File C:\IAGOS\server\v18\Source\Source\_Common\Obj.h
; File C:\IAGOS\server\v18\Source\Source\_Common\ctrl.cpp
; File C:\IAGOS\server\v18\Source\Source\_Common\Mover.h
; File C:\IAGOS\server\v18\Source\Source\_Common\ctrl.cpp
; File C:\IAGOS\server\v18\Source\Source\_Common\Mover.h
; File C:\IAGOS\server\v18\Source\Source\_Common\Project.h
; File C:\IAGOS\server\v18\Source\Source\_Common\ctrl.cpp
; File C:\IAGOS\server\v18\Source\Source\_Common\Obj.h
; File C:\IAGOS\server\v18\Source\Source\_Common\Mover.h
; File C:\IAGOS\server\v18\Source\Source\_Common\ctrl.cpp
;	COMDAT ?ApplySkillAround@CCtrl@@QAEXPAV1@HPAUItemProp@@PAUAddSkillProp@@_NHMH@Z
_TEXT	SEGMENT
_vPos$ = -104						; size = 12
tv1782 = -92						; size = 4
__nLinkX$1$ = -92					; size = 4
___limit$1$ = -88					; size = 4
tv1818 = -88						; size = 4
_bTarget$1$ = -84					; size = 4
tv1816 = -84						; size = 4
__pObjs$1$ = -80					; size = 4
tv1799 = -80						; size = 4
tv1797 = -76						; size = 4
tv1808 = -76						; size = 4
tv1795 = -72						; size = 4
tv1810 = -72						; size = 4
tv1793 = -68						; size = 4
tv1812 = -68						; size = 4
tv1843 = -64						; size = 4
tv1775 = -64						; size = 4
tv1815 = -64						; size = 4
tv1817 = -60						; size = 4
__pObjs$1$ = -60					; size = 4
tv1772 = -56						; size = 4
tv1819 = -56						; size = 4
__nX$1$ = -52						; size = 4
tv1761 = -52						; size = 4
$T1 = -52						; size = 4
__j$1$ = -48						; size = 4
tv1835 = -48						; size = 4
tv1785 = -48						; size = 4
tv1840 = -44						; size = 4
__k$1$ = -44						; size = 4
__k$1$ = -40						; size = 4
tv1841 = -40						; size = 4
tv1831 = -36						; size = 4
__j$1$ = -36						; size = 4
tv1769 = -32						; size = 4
$T2 = -32						; size = 4
__nLinkZ$1$ = -28					; size = 4
__i$1$ = -28						; size = 4
__nLinkX$1$ = -24					; size = 4
_fTargetRatio$1$ = -20					; size = 4
_fRange$1$ = -16					; size = 4
_nRange$1$ = -12					; size = 4
__i$1$ = -8						; size = 4
_this$1$ = -4						; size = 4
_pSrc$ = 8						; size = 4
_nApplyType$ = 12					; size = 4
___limit$1$ = 12					; size = 4
__nX$1$ = 12						; size = 4
_pSkillProp$ = 16					; size = 4
_pAddSkillProp$ = 20					; size = 4
_bIgnoreProb$ = 24					; size = 1
_bOnlyDmg$ = 28						; size = 4
__nMaxWidth$1$ = 32					; size = 4
_fRangeCustom$ = 32					; size = 4
__nMaxWidth$1$ = 32					; size = 4
_bControl$ = 36						; size = 4
__nLinkZ$1$ = 36					; size = 4
?ApplySkillAround@CCtrl@@QAEXPAV1@HPAUItemProp@@PAUAddSkillProp@@_NHMH@Z PROC ; CCtrl::ApplySkillAround, COMDAT
; _this$ = ecx

; 420  : {

  00000	55		 push	 ebp
  00001	8b ec		 mov	 ebp, esp
  00003	83 ec 68	 sub	 esp, 104		; 00000068H
  00006	53		 push	 ebx
  00007	8b d9		 mov	 ebx, ecx

; 421  : #ifdef __WORLDSERVER
; 422  : 	int nRange	= 4;	// 4m
; 423  : 	CObj* pObj;
; 424  : 	D3DXVECTOR3 vPos = GetPos();
; 425  : 	D3DXVECTOR3 vDist;
; 426  : 
; 427  : 	if( pSkillProp == NULL )

  00009	8b 4d 10	 mov	 ecx, DWORD PTR _pSkillProp$[ebp]
  0000c	89 5d fc	 mov	 DWORD PTR _this$1$[ebp], ebx
  0000f	56		 push	 esi
  00010	8b 75 08	 mov	 esi, DWORD PTR _pSrc$[ebp]
; File C:\IAGOS\server\v18\Source\Source\_Common\Obj.h

; 215  : 	D3DXVECTOR3		GetPos()	{ return m_vPos; }

  00013	f3 0f 7e 83 60
	01 00 00	 movq	 xmm0, QWORD PTR [ebx+352]
  0001b	8b 83 68 01 00
	00		 mov	 eax, DWORD PTR [ebx+360]
  00021	66 0f d6 45 98	 movq	 QWORD PTR _vPos$[ebp], xmm0
  00026	89 45 a0	 mov	 DWORD PTR _vPos$[ebp+8], eax
; File C:\IAGOS\server\v18\Source\Source\_Common\ctrl.cpp

; 420  : {

  00029	57		 push	 edi

; 421  : #ifdef __WORLDSERVER
; 422  : 	int nRange	= 4;	// 4m
; 423  : 	CObj* pObj;
; 424  : 	D3DXVECTOR3 vPos = GetPos();
; 425  : 	D3DXVECTOR3 vDist;
; 426  : 
; 427  : 	if( pSkillProp == NULL )

  0002a	85 c9		 test	 ecx, ecx
  0002c	75 22		 jne	 SHORT $LN24@ApplySkill

; 428  : 		Error( "CCtrl::ApplySkillAround : pSkillProp == NULL D:%d A:%d-%d", GetIndex(), pSrc->GetType(), pSrc->GetIndex() );

  0002e	ff b6 74 01 00
	00		 push	 DWORD PTR [esi+372]
  00034	ff b6 70 01 00
	00		 push	 DWORD PTR [esi+368]
  0003a	ff b3 74 01 00
	00		 push	 DWORD PTR [ebx+372]
  00040	68 00 00 00 00	 push	 OFFSET ??_C@_0DK@JIMPMIEK@CCtrl?3?3ApplySkillAround?5?3?5pSkil@
  00045	e8 00 00 00 00	 call	 ?Error@@YAPBDPBDZZ	; Error
  0004a	8b 4d 10	 mov	 ecx, DWORD PTR _pSkillProp$[ebp]
  0004d	83 c4 10	 add	 esp, 16			; 00000010H
$LN24@ApplySkill:

; 429  : 
; 430  : 	FLOAT fRange = 4.0f;
; 431  : 	if( pAddSkillProp )										// ľÖµĺ˝şĹłŔĚ ŔÖŔ¸¸é °Ĺ±âĽ­ ˛¨łż

  00050	8b 45 14	 mov	 eax, DWORD PTR _pAddSkillProp$[ebp]
  00053	85 c0		 test	 eax, eax
  00055	74 05		 je	 SHORT $LN25@ApplySkill

; 432  : 		fRange = (float)pAddSkillProp->dwSkillRange;

  00057	8b 40 64	 mov	 eax, DWORD PTR [eax+100]
  0005a	eb 06		 jmp	 SHORT $LN26@ApplySkill
$LN25@ApplySkill:

; 433  : 	else
; 434  : 		fRange = (float)pSkillProp->_dwSkillRange;			// ľřŔ¸¸é ˝şĹłÇÁ·ÎĆŰĆĽżˇĽ­ ˛¨łż.

  0005c	8b 81 9c 01 00
	00		 mov	 eax, DWORD PTR [ecx+412]
$LN26@ApplySkill:
  00062	66 0f 6e c0	 movd	 xmm0, eax

; 435  : 
; 436  : 	if( fRange <= 4.0f )		nRange = 4;

  00066	f3 0f e6 c0	 cvtdq2pd xmm0, xmm0
  0006a	c1 e8 1f	 shr	 eax, 31			; 0000001fH
  0006d	f2 0f 58 04 c5
	00 00 00 00	 addsd	 xmm0, QWORD PTR __xmm@41f00000000000000000000000000000[eax*8]
  00076	66 0f 5a d0	 cvtpd2ps xmm2, xmm0
  0007a	f3 0f 10 05 00
	00 00 00	 movss	 xmm0, DWORD PTR __real@40800000
  00082	0f 2f c2	 comiss	 xmm0, xmm2
  00085	f3 0f 11 55 f0	 movss	 DWORD PTR _fRange$1$[ebp], xmm2
  0008a	72 07		 jb	 SHORT $LN27@ApplySkill
  0008c	bf 04 00 00 00	 mov	 edi, 4
  00091	eb 2c		 jmp	 SHORT $LN227@ApplySkill
$LN27@ApplySkill:

; 437  : 	else if( fRange <= 8.0f )	nRange = 8;

  00093	f3 0f 10 05 00
	00 00 00	 movss	 xmm0, DWORD PTR __real@41000000
  0009b	0f 2f c2	 comiss	 xmm0, xmm2
  0009e	72 07		 jb	 SHORT $LN29@ApplySkill
  000a0	bf 08 00 00 00	 mov	 edi, 8
  000a5	eb 18		 jmp	 SHORT $LN227@ApplySkill
$LN29@ApplySkill:

; 438  : 	else if( fRange <= 16.0f )	nRange = 16;

  000a7	f3 0f 10 05 00
	00 00 00	 movss	 xmm0, DWORD PTR __real@41800000
  000af	bf 20 00 00 00	 mov	 edi, 32			; 00000020H
  000b4	0f 2f c2	 comiss	 xmm0, xmm2
  000b7	b8 10 00 00 00	 mov	 eax, 16			; 00000010H
  000bc	0f 43 f8	 cmovae	 edi, eax
$LN227@ApplySkill:

; 439  : 	else						nRange = 32;
; 440  : 
; 441  : 	if( fRangeCustom != 0.0f )

  000bf	f3 0f 10 45 20	 movss	 xmm0, DWORD PTR _fRangeCustom$[ebp]
  000c4	0f 57 c9	 xorps	 xmm1, xmm1
  000c7	0f 2e c1	 ucomiss xmm0, xmm1
  000ca	89 7d f4	 mov	 DWORD PTR _nRange$1$[ebp], edi
  000cd	9f		 lahf
  000ce	f6 c4 44	 test	 ah, 68			; 00000044H
  000d1	7b 08		 jnp	 SHORT $LN33@ApplySkill

; 442  : 	{
; 443  : 		fRange = fRangeCustom;

  000d3	0f 28 d0	 movaps	 xmm2, xmm0
  000d6	f3 0f 11 45 f0	 movss	 DWORD PTR _fRange$1$[ebp], xmm0
$LN33@ApplySkill:

; 444  : 	}
; 445  : 
; 446  : 	FLOAT fTargetRatio = 0.0f;
; 447  : 	if( pSkillProp->dwSpellRegion == SRO_REGION )	// REGIONĽÓĽşŔĎ¶© Ĺ¸°Ůµµ µĄąĚÁö¸¦ ¸ÔŔ˝.

  000db	83 b9 cc 01 00
	00 02		 cmp	 DWORD PTR [ecx+460], 2
  000e2	f3 0f 11 4d ec	 movss	 DWORD PTR _fTargetRatio$1$[ebp], xmm1
  000e7	75 0d		 jne	 SHORT $LN34@ApplySkill

; 448  : 		fTargetRatio = 1.0f;

  000e9	f3 0f 10 05 00
	00 00 00	 movss	 xmm0, DWORD PTR __real@3f800000
  000f1	f3 0f 11 45 ec	 movss	 DWORD PTR _fTargetRatio$1$[ebp], xmm0
$LN34@ApplySkill:

; 449  : 
; 450  : 	if( fRange <= 0 )	// ąüŔ§°ˇ 0ŔĚ°ĹłŞ Ŕ˝ĽöŔĎĽö´Â ľř´Ů.

  000f6	0f 2f ca	 comiss	 xmm1, xmm2
  000f9	72 2c		 jb	 SHORT $LN35@ApplySkill

; 451  : 		Error( "CCtrl::ApplySkillAround : D:%d A:%d-%d %d %f", GetIndex(), pSrc->GetType(), pSrc->GetIndex(), pSkillProp->dwID, fRange );

  000fb	83 ec 08	 sub	 esp, 8
  000fe	0f 5a c2	 cvtps2pd xmm0, xmm2
  00101	f2 0f 11 04 24	 movsd	 QWORD PTR [esp], xmm0
  00106	ff 31		 push	 DWORD PTR [ecx]
  00108	ff b6 74 01 00
	00		 push	 DWORD PTR [esi+372]
  0010e	ff b6 70 01 00
	00		 push	 DWORD PTR [esi+368]
  00114	ff b3 74 01 00
	00		 push	 DWORD PTR [ebx+372]
  0011a	68 00 00 00 00	 push	 OFFSET ??_C@_0CN@LFDGIJNO@CCtrl?3?3ApplySkillAround?5?3?5D?3?$CFd?5@
  0011f	e8 00 00 00 00	 call	 ?Error@@YAPBDPBDZZ	; Error
  00124	83 c4 1c	 add	 esp, 28			; 0000001cH
$LN35@ApplySkill:

; 452  : 
; 453  : 	BOOL	bApply = FALSE;
; 454  : 	BOOL	bTarget = FALSE;
; 455  : 
; 456  : 	//------------ Ŕűżë´ë»óŔĚ ÇĂ·ąŔĚľîŔÎ°ˇ 
; 457  : 	if( nApplyType & OBJTYPE_PLAYER )	

  00127	f6 45 0c 01	 test	 BYTE PTR _nApplyType$[ebp], 1
  0012b	f3 0f 10 55 a0	 movss	 xmm2, DWORD PTR _vPos$[ebp+8]
  00130	f3 0f 10 45 98	 movss	 xmm0, DWORD PTR _vPos$[ebp]
  00135	0f 84 26 03 00
	00		 je	 $LN3@ApplySkill

; 459  : 		FOR_LINKMAP( GetWorld(), vPos, pObj, nRange, CObj::linkPlayer, GetLayer() )

  0013b	8b 8b 6c 01 00
	00		 mov	 ecx, DWORD PTR [ebx+364]
  00141	33 f6		 xor	 esi, esi
  00143	ff b3 b8 01 00
	00		 push	 DWORD PTR [ebx+440]
  00149	89 75 f8	 mov	 DWORD PTR __i$1$[ebp], esi
  0014c	6a 02		 push	 2
  0014e	66 0f 6e 49 14	 movd	 xmm1, DWORD PTR [ecx+20]
  00153	83 c1 24	 add	 ecx, 36			; 00000024H
  00156	0f 5b c9	 cvtdq2ps xmm1, xmm1
  00159	f3 0f 5e c1	 divss	 xmm0, xmm1
  0015d	f3 0f 2c c0	 cvttss2si eax, xmm0
  00161	0f 28 c2	 movaps	 xmm0, xmm2
  00164	f3 0f 5e c1	 divss	 xmm0, xmm1
  00168	89 45 e8	 mov	 DWORD PTR __nLinkX$1$[ebp], eax
  0016b	f3 0f 2c c0	 cvttss2si eax, xmm0
  0016f	89 45 e4	 mov	 DWORD PTR __nLinkZ$1$[ebp], eax
  00172	e8 00 00 00 00	 call	 ?GetMaxLinkLevel@CLayeredLinkMap@@QAEHKH@Z ; CLayeredLinkMap::GetMaxLinkLevel
  00177	85 c0		 test	 eax, eax
  00179	0f 8e d8 02 00
	00		 jle	 $LN170@ApplySkill
  0017f	f3 0f 2c 45 98	 cvttss2si eax, DWORD PTR _vPos$[ebp]
  00184	89 45 c8	 mov	 DWORD PTR tv1819[ebp], eax
  00187	f3 0f 2c 45 a0	 cvttss2si eax, DWORD PTR _vPos$[ebp+8]
  0018c	89 45 c4	 mov	 DWORD PTR tv1817[ebp], eax
  0018f	8b 45 e8	 mov	 eax, DWORD PTR __nLinkX$1$[ebp]
  00192	8b c8		 mov	 ecx, eax
  00194	2b cf		 sub	 ecx, edi
  00196	89 4d c0	 mov	 DWORD PTR tv1815[ebp], ecx
  00199	8b 4d e4	 mov	 ecx, DWORD PTR __nLinkZ$1$[ebp]
  0019c	8b d1		 mov	 edx, ecx
  0019e	2b d7		 sub	 edx, edi
  001a0	03 c7		 add	 eax, edi
  001a2	89 45 b8	 mov	 DWORD PTR tv1810[ebp], eax
  001a5	89 55 bc	 mov	 DWORD PTR tv1812[ebp], edx
  001a8	8d 04 39	 lea	 eax, DWORD PTR [ecx+edi]
  001ab	89 45 b4	 mov	 DWORD PTR tv1808[ebp], eax
  001ae	66 90		 npad	 2
$LL4@ApplySkill:
  001b0	ff b3 b8 01 00
	00		 push	 DWORD PTR [ebx+440]
; File C:\IAGOS\server\v18\Source\Source\_Common\Obj.h

; 221  : 	CWorld*			GetWorld()	{ return m_pWorld; }

  001b6	8b 8b 6c 01 00
	00		 mov	 ecx, DWORD PTR [ebx+364]
; File C:\IAGOS\server\v18\Source\Source\_Common\ctrl.cpp

; 459  : 		FOR_LINKMAP( GetWorld(), vPos, pObj, nRange, CObj::linkPlayer, GetLayer() )

  001bc	56		 push	 esi
  001bd	6a 02		 push	 2
  001bf	83 c1 24	 add	 ecx, 36			; 00000024H
  001c2	e8 00 00 00 00	 call	 ?GetLinkWidth@CLayeredLinkMap@@QAEHKHH@Z ; CLayeredLinkMap::GetLinkWidth
  001c7	ff b3 b8 01 00
	00		 push	 DWORD PTR [ebx+440]
; File C:\IAGOS\server\v18\Source\Source\_Common\Obj.h

; 221  : 	CWorld*			GetWorld()	{ return m_pWorld; }

  001cd	8b 8b 6c 01 00
	00		 mov	 ecx, DWORD PTR [ebx+364]
; File C:\IAGOS\server\v18\Source\Source\_Common\ctrl.cpp

; 459  : 		FOR_LINKMAP( GetWorld(), vPos, pObj, nRange, CObj::linkPlayer, GetLayer() )

  001d3	8b f0		 mov	 esi, eax
  001d5	ff 75 f8	 push	 DWORD PTR __i$1$[ebp]
  001d8	83 c1 24	 add	 ecx, 36			; 00000024H
  001db	6a 02		 push	 2
  001dd	e8 00 00 00 00	 call	 ?GetObj@CLayeredLinkMap@@QAEPAPAVCObj@@KKH@Z ; CLayeredLinkMap::GetObj
  001e2	8b 8b 6c 01 00
	00		 mov	 ecx, DWORD PTR [ebx+364]
  001e8	89 45 b0	 mov	 DWORD PTR __pObjs$1$[ebp], eax
  001eb	8b 51 08	 mov	 edx, DWORD PTR [ecx+8]
  001ee	8b 41 04	 mov	 eax, DWORD PTR [ecx+4]
  001f1	8b d8		 mov	 ebx, eax
  001f3	0f af d6	 imul	 edx, esi
  001f6	c1 e0 07	 shl	 eax, 7
  001f9	0f af de	 imul	 ebx, esi
  001fc	8b 71 14	 mov	 esi, DWORD PTR [ecx+20]
  001ff	89 55 d0	 mov	 DWORD PTR tv1785[ebp], edx
  00202	99		 cdq
  00203	f7 fb		 idiv	 ebx
  00205	89 5d 20	 mov	 DWORD PTR __nMaxWidth$1$[ebp], ebx
  00208	8b f8		 mov	 edi, eax
  0020a	8b c6		 mov	 eax, esi
  0020c	0f af c7	 imul	 eax, edi
  0020f	99		 cdq
  00210	2b c2		 sub	 eax, edx
  00212	8b c8		 mov	 ecx, eax
  00214	8b 45 e8	 mov	 eax, DWORD PTR __nLinkX$1$[ebp]
  00217	99		 cdq
  00218	f7 ff		 idiv	 edi
  0021a	33 c0		 xor	 eax, eax
  0021c	d1 f9		 sar	 ecx, 1
  0021e	2b 55 e8	 sub	 edx, DWORD PTR __nLinkX$1$[ebp]
  00221	0f af d6	 imul	 edx, esi
  00224	03 55 c8	 add	 edx, DWORD PTR tv1819[ebp]
  00227	3b d1		 cmp	 edx, ecx
  00229	0f 9f c0	 setg	 al
  0022c	33 db		 xor	 ebx, ebx
  0022e	89 45 cc	 mov	 DWORD PTR __nX$1$[ebp], eax
  00231	8b 45 e4	 mov	 eax, DWORD PTR __nLinkZ$1$[ebp]
  00234	99		 cdq
  00235	f7 ff		 idiv	 edi
  00237	8b 45 c0	 mov	 eax, DWORD PTR tv1815[ebp]
  0023a	2b 55 e4	 sub	 edx, DWORD PTR __nLinkZ$1$[ebp]
  0023d	0f af d6	 imul	 edx, esi
  00240	03 55 c4	 add	 edx, DWORD PTR tv1817[ebp]
  00243	3b d1		 cmp	 edx, ecx
  00245	99		 cdq
  00246	0f 9f c3	 setg	 bl
  00249	33 c9		 xor	 ecx, ecx
  0024b	f7 ff		 idiv	 edi
  0024d	48		 dec	 eax
  0024e	03 45 cc	 add	 eax, DWORD PTR __nX$1$[ebp]
  00251	0f 49 c8	 cmovns	 ecx, eax
  00254	8b 45 bc	 mov	 eax, DWORD PTR tv1812[ebp]
  00257	99		 cdq
  00258	f7 ff		 idiv	 edi
  0025a	89 4d d8	 mov	 DWORD PTR __k$1$[ebp], ecx
  0025d	8d 4b ff	 lea	 ecx, DWORD PTR [ebx-1]
  00260	03 c8		 add	 ecx, eax
  00262	8b 45 b8	 mov	 eax, DWORD PTR tv1810[ebp]
  00265	99		 cdq
  00266	f7 ff		 idiv	 edi
  00268	8b 55 20	 mov	 edx, DWORD PTR __nMaxWidth$1$[ebp]
  0026b	03 45 cc	 add	 eax, DWORD PTR __nX$1$[ebp]
  0026e	3b c2		 cmp	 eax, edx
  00270	8d 72 ff	 lea	 esi, DWORD PTR [edx-1]
  00273	0f 4c f0	 cmovl	 esi, eax
  00276	8b 45 b4	 mov	 eax, DWORD PTR tv1808[ebp]
  00279	99		 cdq
  0027a	f7 ff		 idiv	 edi
  0027c	8b 55 d0	 mov	 edx, DWORD PTR tv1785[ebp]
  0027f	03 c3		 add	 eax, ebx
  00281	89 75 a4	 mov	 DWORD PTR tv1782[ebp], esi
  00284	3b c2		 cmp	 eax, edx
  00286	8d 5a ff	 lea	 ebx, DWORD PTR [edx-1]
  00289	0f 4c d8	 cmovl	 ebx, eax
  0028c	33 d2		 xor	 edx, edx
  0028e	85 c9		 test	 ecx, ecx
  00290	89 5d d4	 mov	 DWORD PTR tv1840[ebp], ebx
  00293	0f 49 d1	 cmovns	 edx, ecx
  00296	89 55 d0	 mov	 DWORD PTR __j$1$[ebp], edx
  00299	3b d3		 cmp	 edx, ebx
  0029b	0f 8f 8e 01 00
	00		 jg	 $LN2@ApplySkill
; File C:\IAGOS\server\v18\Source\Source\_Common\Obj.h

; 221  : 	CWorld*			GetWorld()	{ return m_pWorld; }

  002a1	8b 4d d8	 mov	 ecx, DWORD PTR __k$1$[ebp]
  002a4	8b c2		 mov	 eax, edx
  002a6	0f af 45 20	 imul	 eax, DWORD PTR __nMaxWidth$1$[ebp]
  002aa	8b 5d 20	 mov	 ebx, DWORD PTR __nMaxWidth$1$[ebp]
  002ad	8b 7d d4	 mov	 edi, DWORD PTR tv1840[ebp]
  002b0	03 c1		 add	 eax, ecx
  002b2	89 45 cc	 mov	 DWORD PTR $T1[ebp], eax
$LL7@ApplySkill:
; File C:\IAGOS\server\v18\Source\Source\_Common\ctrl.cpp

; 459  : 		FOR_LINKMAP( GetWorld(), vPos, pObj, nRange, CObj::linkPlayer, GetLayer() )

  002b5	3b ce		 cmp	 ecx, esi
  002b7	0f 8f 61 01 00
	00		 jg	 $LN5@ApplySkill
  002bd	8b 55 b0	 mov	 edx, DWORD PTR __pObjs$1$[ebp]
  002c0	8b fe		 mov	 edi, esi
  002c2	2b f9		 sub	 edi, ecx
  002c4	47		 inc	 edi
  002c5	89 7d dc	 mov	 DWORD PTR tv1831[ebp], edi
  002c8	8d 14 82	 lea	 edx, DWORD PTR [edx+eax*4]
  002cb	89 55 e0	 mov	 DWORD PTR tv1769[ebp], edx
  002ce	66 90		 npad	 2
$LL10@ApplySkill:
  002d0	8b 32		 mov	 esi, DWORD PTR [edx]
  002d2	b9 e8 03 00 00	 mov	 ecx, 1000		; 000003e8H
  002d7	85 f6		 test	 esi, esi
  002d9	0f 84 1b 01 00
	00		 je	 $LN8@ApplySkill
  002df	8b 5d 08	 mov	 ebx, DWORD PTR _pSrc$[ebp]
$LL11@ApplySkill:
  002e2	8b c1		 mov	 eax, ecx
  002e4	49		 dec	 ecx
  002e5	89 4d a8	 mov	 DWORD PTR ___limit$1$[ebp], ecx
  002e8	85 c0		 test	 eax, eax
  002ea	0f 84 04 01 00
	00		 je	 $LN168@ApplySkill

; 460  : 		{
; 461  : 			bApply = FALSE;	// ŔĎ´Ü FALSE·Î ĂĘ±âČ­
; 462  : 
; 463  : 			if( pObj->GetType() != OT_MOVER )

  002f0	8b 86 70 01 00
	00		 mov	 eax, DWORD PTR [esi+368]
  002f6	83 f8 05	 cmp	 eax, 5
  002f9	74 0e		 je	 SHORT $LN41@ApplySkill

; 464  : 				Error( "ApplySkillAround : pObj°ˇ MOVER°ˇ ľĆ´Ď´Ů %d", pObj->GetType() );

  002fb	50		 push	 eax
  002fc	68 00 00 00 00	 push	 OFFSET ??_C@_0CM@KJHLJEPO@ApplySkillAround?5?3?5pObj?$LA?$KB?5MOVER@
  00301	e8 00 00 00 00	 call	 ?Error@@YAPBDPBDZZ	; Error
  00306	83 c4 08	 add	 esp, 8
$LN41@ApplySkill:

; 465  : 
; 466  : 			if( pSrc->GetType() == OT_MOVER )		// °ř°ÝŔÚ°ˇ ą«ąöłÄ.

  00309	83 bb 70 01 00
	00 05		 cmp	 DWORD PTR [ebx+368], 5
  00310	75 61		 jne	 SHORT $LN166@ApplySkill

; 467  : 			{
; 468  : 				CMover *pAttacker = (CMover *)pSrc;
; 469  : 				if( pAttacker->IsPlayer() )			// °ř°ÝŔÚ°ˇ ÇĂ·ąŔĚľîłÄ

  00312	83 bb 30 02 00
	00 00		 cmp	 DWORD PTR [ebx+560], 0
  00319	bf 01 00 00 00	 mov	 edi, 1
  0031e	74 4f		 je	 SHORT $LN45@ApplySkill

; 470  : 				{
; 471  : 					bApply	= TRUE;
; 472  : #if __VER >= 8 // __S8_PK
; 473  : 					CMover *pDefender = (CMover *)pObj;
; 474  : 					if( pDefender->IsPlayer() )

  00320	83 be 30 02 00
	00 00		 cmp	 DWORD PTR [esi+560], 0
  00327	74 46		 je	 SHORT $LN45@ApplySkill

; 475  : 					{
; 476  : 						bTarget = (this == pDefender);

  00329	33 c0		 xor	 eax, eax
  0032b	39 75 fc	 cmp	 DWORD PTR _this$1$[ebp], esi
  0032e	0f 94 c0	 sete	 al

; 477  : 						
; 478  : 						if( bControl == FALSE && pAttacker->GetHitType( pDefender, bTarget, FALSE ) == HITTYPE_PK )

  00331	83 7d 24 00	 cmp	 DWORD PTR _bControl$[ebp], 0
  00335	89 45 ac	 mov	 DWORD PTR _bTarget$1$[ebp], eax
  00338	75 13		 jne	 SHORT $LN47@ApplySkill
  0033a	6a 00		 push	 0
  0033c	50		 push	 eax
  0033d	56		 push	 esi
  0033e	8b cb		 mov	 ecx, ebx
  00340	e8 00 00 00 00	 call	 ?GetHitType@CMover@@QAE?AW4HITTYPE@@PAV1@HH@Z ; CMover::GetHitType
  00345	83 f8 05	 cmp	 eax, 5
  00348	74 23		 je	 SHORT $LN228@ApplySkill
  0034a	8b 45 ac	 mov	 eax, DWORD PTR _bTarget$1$[ebp]
$LN47@ApplySkill:

; 479  : 							bApply = FALSE;
; 480  : //	#ifdef	__JHMA_VER_8_5_2			 // 8.5Â÷ µŕľóÁßŔÎ µÎ±¸·ěŔĚ ż¬°üµÇÁöľĘ°Ô ĽöÁ¤  World
; 481  : 						else if( pAttacker->m_nDuel == 1 && pDefender->m_nDuel == 1 && pAttacker->GetHitType( pDefender, bTarget, FALSE ) != HITTYPE_PVP )

  0034d	39 bb 3c 07 00
	00		 cmp	 DWORD PTR [ebx+1852], edi
  00353	75 1a		 jne	 SHORT $LN45@ApplySkill
  00355	39 be 3c 07 00
	00		 cmp	 DWORD PTR [esi+1852], edi
  0035b	75 12		 jne	 SHORT $LN45@ApplySkill
  0035d	6a 00		 push	 0
  0035f	50		 push	 eax
  00360	56		 push	 esi
  00361	8b cb		 mov	 ecx, ebx
  00363	e8 00 00 00 00	 call	 ?GetHitType@CMover@@QAE?AW4HITTYPE@@PAV1@HH@Z ; CMover::GetHitType
  00368	83 f8 02	 cmp	 eax, 2
  0036b	74 02		 je	 SHORT $LN45@ApplySkill
$LN228@ApplySkill:

; 482  : 							bApply = FALSE;
; 483  : //	#endif // __JHMA_VER_8_5_1	
; 484  : 
; 485  : 					}
; 486  : #endif // __VER >= 8 // __S8_PK
; 487  : 				} else
; 488  : 				{	// °ř°ÝŔÚ°ˇ ¸ó˝şĹÍ¸é
; 489  : 					bApply = TRUE;		// 
; 490  : 				}
; 491  : 			} else
; 492  : 			{	// °ř°ÝŔÚ°ˇ ą«ąö°ˇ ľĆ´Ď´Ů.
; 493  : 				bApply = TRUE;
; 494  : 			}
; 495  : 
; 496  : 			if( bApply )

  0036d	33 ff		 xor	 edi, edi
$LN45@ApplySkill:
  0036f	85 ff		 test	 edi, edi
  00371	74 70		 je	 SHORT $LN55@ApplySkill
$LN166@ApplySkill:

; 497  : 			{
; 498  : 				if( pObj->IsRangeObj( this, fRange ) )	// this(Center)ŔÇ ˝şÇÇľîżÍ pObjŔÇ ˝şÇÇľî°ˇ ĂćµąÇß´ŔłÄ

  00373	f3 0f 10 45 f0	 movss	 xmm0, DWORD PTR _fRange$1$[ebp]
  00378	8b 7d fc	 mov	 edi, DWORD PTR _this$1$[ebp]
  0037b	51		 push	 ecx
  0037c	f3 0f 11 04 24	 movss	 DWORD PTR [esp], xmm0
  00381	8b ce		 mov	 ecx, esi
  00383	57		 push	 edi
  00384	e8 00 00 00 00	 call	 ?IsRangeObj@CObj@@QAEHPAV1@M@Z ; CObj::IsRangeObj
  00389	85 c0		 test	 eax, eax
  0038b	74 56		 je	 SHORT $LN55@ApplySkill

; 499  : 				{
; 500  : 					if( pObj == this && fTargetRatio == 0.0f )	// Ĺ¸°ŮµĄąĚÁö şńŔ˛ŔĚ 0ŔĚ¸é ŔÚ±âŔÚ˝Ĺ(Ĺ¸°Ů)Ŕş µĄąĚÁö¸¦ ÁÖÁöľĘŔ˝.

  0038d	3b f7		 cmp	 esi, edi
  0038f	75 12		 jne	 SHORT $LN52@ApplySkill
  00391	f3 0f 10 45 ec	 movss	 xmm0, DWORD PTR _fTargetRatio$1$[ebp]
  00396	0f 2e 05 00 00
	00 00		 ucomiss xmm0, DWORD PTR __real@00000000
  0039d	9f		 lahf
  0039e	f6 c4 44	 test	 ah, 68			; 00000044H
  003a1	7b 40		 jnp	 SHORT $LN55@ApplySkill
$LN52@ApplySkill:

; 501  : 					{
; 502  : 					} else
; 503  : 					{
; 504  : 						if( pObj != pSrc )		// ľîĹÂÄż´Â °Ë»ö´ë»óżˇĽ­ Á¦żÜ.

  003a3	3b f3		 cmp	 esi, ebx
  003a5	74 3c		 je	 SHORT $LN55@ApplySkill

; 505  : 						{
; 506  : 							CMover *pTarget = (CMover *)pObj;		// <- ż©±ä ą«Á¶°Ç pObj´Â ÇĂ·ąŔĚľîąÇ·Î ÇŘµµµĘ.
; 507  : 							bTarget = (this == pTarget);

  003a7	33 c9		 xor	 ecx, ecx
  003a9	3b fe		 cmp	 edi, esi
  003ab	0f 94 c1	 sete	 cl
; File C:\IAGOS\server\v18\Source\Source\_Common\Obj.h

; 180  : 	BOOL			IsDelete()	{ return (m_dwFlags & OBJ_FLAG_DELETE);  }

  003ae	f6 46 04 01	 test	 BYTE PTR [esi+4], 1

; 327  : 	return pObj && ( pObj->IsDelete() == FALSE ); 

  003b2	75 2f		 jne	 SHORT $LN55@ApplySkill
; File C:\IAGOS\server\v18\Source\Source\_Common\Mover.h

; 1251 : 	BOOL			IsLive() { return m_pActMover->IsDie() == FALSE || m_nHitPoint > 0; }		// && ¸¦  ||·Î ąŮ˛ĺŔ˝.  !=¸¦ >·Î ąŮ˛Ţ

  003b4	8b 86 38 02 00
	00		 mov	 eax, DWORD PTR [esi+568]
  003ba	f7 40 04 00 00
	00 08		 test	 DWORD PTR [eax+4], 134217728 ; 08000000H
  003c1	74 09		 je	 SHORT $LN164@ApplySkill
  003c3	83 be f8 05 00
	00 00		 cmp	 DWORD PTR [esi+1528], 0
  003ca	7e 17		 jle	 SHORT $LN55@ApplySkill
$LN164@ApplySkill:
; File C:\IAGOS\server\v18\Source\Source\_Common\ctrl.cpp

; 509  : 								pTarget->ApplySkill( pSrc, pSkillProp, pAddSkillProp, bIgnoreProb, 0, bOnlyDmg, bTarget );		// ´ë»óżˇ°Ô Čż°ú¸¦ ŔűżëÇÔ.

  003cc	51		 push	 ecx
  003cd	ff 75 1c	 push	 DWORD PTR _bOnlyDmg$[ebp]
  003d0	8b ce		 mov	 ecx, esi
  003d2	6a 00		 push	 0
  003d4	ff 75 18	 push	 DWORD PTR _bIgnoreProb$[ebp]
  003d7	ff 75 14	 push	 DWORD PTR _pAddSkillProp$[ebp]
  003da	ff 75 10	 push	 DWORD PTR _pSkillProp$[ebp]
  003dd	53		 push	 ebx
  003de	e8 00 00 00 00	 call	 ?ApplySkill@CCtrl@@QAEXPAV1@PAUItemProp@@PAUAddSkillProp@@_NHHH@Z ; CCtrl::ApplySkill
$LN55@ApplySkill:

; 510  : 						}
; 511  : 					}
; 512  : 				}
; 513  : 				
; 514  : 				bApply = FALSE;	// ´ŮŔ˝ ·çÇÁ¸¦ Ŕ§ÇŘĽ­ ĂĘ±âČ­.
; 515  : 			} // bApply
; 516  : 		}
; 517  : 		END_LINKMAP

  003e3	8b b6 80 01 00
	00		 mov	 esi, DWORD PTR [esi+384]
  003e9	8b 4d a8	 mov	 ecx, DWORD PTR ___limit$1$[ebp]
  003ec	85 f6		 test	 esi, esi
  003ee	0f 85 ee fe ff
	ff		 jne	 $LL11@ApplySkill
$LN168@ApplySkill:
  003f4	8b 55 e0	 mov	 edx, DWORD PTR tv1769[ebp]
  003f7	8b 7d dc	 mov	 edi, DWORD PTR tv1831[ebp]
$LN8@ApplySkill:

; 459  : 		FOR_LINKMAP( GetWorld(), vPos, pObj, nRange, CObj::linkPlayer, GetLayer() )

  003fa	83 c2 04	 add	 edx, 4
  003fd	83 ef 01	 sub	 edi, 1
  00400	89 55 e0	 mov	 DWORD PTR tv1769[ebp], edx
  00403	89 7d dc	 mov	 DWORD PTR tv1831[ebp], edi
  00406	0f 85 c4 fe ff
	ff		 jne	 $LL10@ApplySkill
  0040c	8b 55 d0	 mov	 edx, DWORD PTR __j$1$[ebp]
  0040f	8b 45 cc	 mov	 eax, DWORD PTR $T1[ebp]
  00412	8b 4d d8	 mov	 ecx, DWORD PTR __k$1$[ebp]
  00415	8b 75 a4	 mov	 esi, DWORD PTR tv1782[ebp]
  00418	8b 5d 20	 mov	 ebx, DWORD PTR __nMaxWidth$1$[ebp]
  0041b	8b 7d d4	 mov	 edi, DWORD PTR tv1840[ebp]
$LN5@ApplySkill:
  0041e	42		 inc	 edx
  0041f	03 c3		 add	 eax, ebx
  00421	89 55 d0	 mov	 DWORD PTR __j$1$[ebp], edx
  00424	89 45 cc	 mov	 DWORD PTR $T1[ebp], eax
  00427	3b d7		 cmp	 edx, edi
  00429	0f 8e 86 fe ff
	ff		 jle	 $LL7@ApplySkill
$LN2@ApplySkill:
; File C:\IAGOS\server\v18\Source\Source\_Common\Obj.h

; 221  : 	CWorld*			GetWorld()	{ return m_pWorld; }

  0042f	8b 5d fc	 mov	 ebx, DWORD PTR _this$1$[ebp]
; File C:\IAGOS\server\v18\Source\Source\_Common\ctrl.cpp

; 459  : 		FOR_LINKMAP( GetWorld(), vPos, pObj, nRange, CObj::linkPlayer, GetLayer() )

  00432	8b 75 f8	 mov	 esi, DWORD PTR __i$1$[ebp]
  00435	46		 inc	 esi
  00436	89 75 f8	 mov	 DWORD PTR __i$1$[ebp], esi
  00439	ff b3 b8 01 00
	00		 push	 DWORD PTR [ebx+440]
; File C:\IAGOS\server\v18\Source\Source\_Common\Obj.h

; 221  : 	CWorld*			GetWorld()	{ return m_pWorld; }

  0043f	8b 8b 6c 01 00
	00		 mov	 ecx, DWORD PTR [ebx+364]
; File C:\IAGOS\server\v18\Source\Source\_Common\ctrl.cpp

; 459  : 		FOR_LINKMAP( GetWorld(), vPos, pObj, nRange, CObj::linkPlayer, GetLayer() )

  00445	6a 02		 push	 2
  00447	83 c1 24	 add	 ecx, 36			; 00000024H
  0044a	e8 00 00 00 00	 call	 ?GetMaxLinkLevel@CLayeredLinkMap@@QAEHKH@Z ; CLayeredLinkMap::GetMaxLinkLevel
  0044f	3b f0		 cmp	 esi, eax
  00451	0f 8c 59 fd ff
	ff		 jl	 $LL4@ApplySkill
$LN170@ApplySkill:

; 518  : 	} // OBJTYPE_PLAYER
; 519  : 
; 520  : 	// Ŕűżë´ë»óŔĚ ¸ó˝şĹÍ/ÄÁĆ®·Ń ŔÎ°ˇ.
; 521  : 	if( nApplyType & (OBJTYPE_MONSTER | OBJTYPE_CTRL) )

  00457	f3 0f 10 45 98	 movss	 xmm0, DWORD PTR _vPos$[ebp]
  0045c	f3 0f 10 55 a0	 movss	 xmm2, DWORD PTR _vPos$[ebp+8]
$LN3@ApplySkill:
  00461	f6 45 0c 06	 test	 BYTE PTR _nApplyType$[ebp], 6
  00465	0f 84 40 03 00
	00		 je	 $LN14@ApplySkill

; 523  : 		FOR_LINKMAP( GetWorld(), vPos, pObj, nRange, CObj::linkDynamic, GetLayer() )	// linkDynamicŔ» ľ´´Ů

  0046b	8b 8b 6c 01 00
	00		 mov	 ecx, DWORD PTR [ebx+364]
  00471	33 ff		 xor	 edi, edi
  00473	ff b3 b8 01 00
	00		 push	 DWORD PTR [ebx+440]
  00479	89 7d e4	 mov	 DWORD PTR __i$1$[ebp], edi
  0047c	6a 01		 push	 1
  0047e	66 0f 6e 49 14	 movd	 xmm1, DWORD PTR [ecx+20]
  00483	83 c1 24	 add	 ecx, 36			; 00000024H
  00486	0f 5b c9	 cvtdq2ps xmm1, xmm1
  00489	f3 0f 5e c1	 divss	 xmm0, xmm1
  0048d	f3 0f 2c f0	 cvttss2si esi, xmm0
  00491	0f 28 c2	 movaps	 xmm0, xmm2
  00494	f3 0f 5e c1	 divss	 xmm0, xmm1
  00498	89 75 a4	 mov	 DWORD PTR __nLinkX$1$[ebp], esi
  0049b	f3 0f 2c c0	 cvttss2si eax, xmm0
  0049f	89 45 24	 mov	 DWORD PTR __nLinkZ$1$[ebp], eax
  004a2	e8 00 00 00 00	 call	 ?GetMaxLinkLevel@CLayeredLinkMap@@QAEHKH@Z ; CLayeredLinkMap::GetMaxLinkLevel
  004a7	85 c0		 test	 eax, eax
  004a9	0f 8e fc 02 00
	00		 jle	 $LN14@ApplySkill
  004af	f3 0f 2c 45 98	 cvttss2si eax, DWORD PTR _vPos$[ebp]
  004b4	8b 55 f4	 mov	 edx, DWORD PTR _nRange$1$[ebp]
  004b7	89 45 a8	 mov	 DWORD PTR tv1818[ebp], eax
  004ba	f3 0f 2c 45 a0	 cvttss2si eax, DWORD PTR _vPos$[ebp+8]
  004bf	89 45 ac	 mov	 DWORD PTR tv1816[ebp], eax
  004c2	8b c6		 mov	 eax, esi
  004c4	2b c2		 sub	 eax, edx
  004c6	89 45 b0	 mov	 DWORD PTR tv1799[ebp], eax
  004c9	8b 45 24	 mov	 eax, DWORD PTR __nLinkZ$1$[ebp]
  004cc	8b c8		 mov	 ecx, eax
  004ce	2b ca		 sub	 ecx, edx
  004d0	03 c2		 add	 eax, edx
  004d2	89 4d b4	 mov	 DWORD PTR tv1797[ebp], ecx
  004d5	8d 0c 16	 lea	 ecx, DWORD PTR [esi+edx]
  004d8	89 4d b8	 mov	 DWORD PTR tv1795[ebp], ecx
  004db	89 45 bc	 mov	 DWORD PTR tv1793[ebp], eax
  004de	66 90		 npad	 2
$LL15@ApplySkill:
  004e0	ff b3 b8 01 00
	00		 push	 DWORD PTR [ebx+440]
  004e6	8b 8b 6c 01 00
	00		 mov	 ecx, DWORD PTR [ebx+364]
  004ec	57		 push	 edi
  004ed	6a 01		 push	 1
  004ef	83 c1 24	 add	 ecx, 36			; 00000024H
  004f2	e8 00 00 00 00	 call	 ?GetLinkWidth@CLayeredLinkMap@@QAEHKHH@Z ; CLayeredLinkMap::GetLinkWidth
  004f7	ff b3 b8 01 00
	00		 push	 DWORD PTR [ebx+440]
; File C:\IAGOS\server\v18\Source\Source\_Common\Obj.h

; 221  : 	CWorld*			GetWorld()	{ return m_pWorld; }

  004fd	8b 8b 6c 01 00
	00		 mov	 ecx, DWORD PTR [ebx+364]
; File C:\IAGOS\server\v18\Source\Source\_Common\ctrl.cpp

; 523  : 		FOR_LINKMAP( GetWorld(), vPos, pObj, nRange, CObj::linkDynamic, GetLayer() )	// linkDynamicŔ» ľ´´Ů

  00503	8b f0		 mov	 esi, eax
  00505	57		 push	 edi
  00506	6a 01		 push	 1
  00508	83 c1 24	 add	 ecx, 36			; 00000024H
  0050b	e8 00 00 00 00	 call	 ?GetObj@CLayeredLinkMap@@QAEPAPAVCObj@@KKH@Z ; CLayeredLinkMap::GetObj
  00510	8b 8b 6c 01 00
	00		 mov	 ecx, DWORD PTR [ebx+364]
  00516	89 45 c4	 mov	 DWORD PTR __pObjs$1$[ebp], eax
  00519	8b 51 08	 mov	 edx, DWORD PTR [ecx+8]
  0051c	8b 41 04	 mov	 eax, DWORD PTR [ecx+4]
  0051f	8b d8		 mov	 ebx, eax
  00521	0f af d6	 imul	 edx, esi
  00524	c1 e0 07	 shl	 eax, 7
  00527	0f af de	 imul	 ebx, esi
  0052a	8b 71 14	 mov	 esi, DWORD PTR [ecx+20]
  0052d	89 55 c0	 mov	 DWORD PTR tv1775[ebp], edx
  00530	99		 cdq
  00531	f7 fb		 idiv	 ebx
  00533	89 5d 20	 mov	 DWORD PTR __nMaxWidth$1$[ebp], ebx
  00536	8b f8		 mov	 edi, eax
  00538	8b c6		 mov	 eax, esi
  0053a	0f af c7	 imul	 eax, edi
  0053d	99		 cdq
  0053e	2b c2		 sub	 eax, edx
  00540	8b c8		 mov	 ecx, eax
  00542	8b 45 a4	 mov	 eax, DWORD PTR __nLinkX$1$[ebp]
  00545	99		 cdq
  00546	f7 ff		 idiv	 edi
  00548	33 c0		 xor	 eax, eax
  0054a	d1 f9		 sar	 ecx, 1
  0054c	2b 55 a4	 sub	 edx, DWORD PTR __nLinkX$1$[ebp]
  0054f	0f af d6	 imul	 edx, esi
  00552	03 55 a8	 add	 edx, DWORD PTR tv1818[ebp]
  00555	3b d1		 cmp	 edx, ecx
  00557	0f 9f c0	 setg	 al
  0055a	33 db		 xor	 ebx, ebx
  0055c	89 45 0c	 mov	 DWORD PTR __nX$1$[ebp], eax
  0055f	8b 45 24	 mov	 eax, DWORD PTR __nLinkZ$1$[ebp]
  00562	99		 cdq
  00563	f7 ff		 idiv	 edi
  00565	8b 45 b0	 mov	 eax, DWORD PTR tv1799[ebp]
  00568	2b 55 24	 sub	 edx, DWORD PTR __nLinkZ$1$[ebp]
  0056b	0f af d6	 imul	 edx, esi
  0056e	03 55 ac	 add	 edx, DWORD PTR tv1816[ebp]
  00571	3b d1		 cmp	 edx, ecx
  00573	99		 cdq
  00574	0f 9f c3	 setg	 bl
  00577	33 c9		 xor	 ecx, ecx
  00579	f7 ff		 idiv	 edi
  0057b	48		 dec	 eax
  0057c	03 45 0c	 add	 eax, DWORD PTR __nX$1$[ebp]
  0057f	0f 49 c8	 cmovns	 ecx, eax
  00582	8b 45 b4	 mov	 eax, DWORD PTR tv1797[ebp]
  00585	99		 cdq
  00586	f7 ff		 idiv	 edi
  00588	89 4d d4	 mov	 DWORD PTR __k$1$[ebp], ecx
  0058b	8d 4b ff	 lea	 ecx, DWORD PTR [ebx-1]
  0058e	03 c8		 add	 ecx, eax
  00590	8b 45 b8	 mov	 eax, DWORD PTR tv1795[ebp]
  00593	99		 cdq
  00594	f7 ff		 idiv	 edi
  00596	8b 55 20	 mov	 edx, DWORD PTR __nMaxWidth$1$[ebp]
  00599	03 45 0c	 add	 eax, DWORD PTR __nX$1$[ebp]
  0059c	3b c2		 cmp	 eax, edx
  0059e	8d 72 ff	 lea	 esi, DWORD PTR [edx-1]
  005a1	0f 4c f0	 cmovl	 esi, eax
  005a4	8b 45 bc	 mov	 eax, DWORD PTR tv1793[ebp]
  005a7	99		 cdq
  005a8	f7 ff		 idiv	 edi
  005aa	8b 55 c0	 mov	 edx, DWORD PTR tv1775[ebp]
  005ad	03 c3		 add	 eax, ebx
  005af	89 75 c8	 mov	 DWORD PTR tv1772[ebp], esi
  005b2	3b c2		 cmp	 eax, edx
  005b4	8d 5a ff	 lea	 ebx, DWORD PTR [edx-1]
  005b7	0f 4c d8	 cmovl	 ebx, eax
  005ba	33 d2		 xor	 edx, edx
  005bc	85 c9		 test	 ecx, ecx
  005be	89 5d d8	 mov	 DWORD PTR tv1841[ebp], ebx
  005c1	0f 49 d1	 cmovns	 edx, ecx
  005c4	89 55 dc	 mov	 DWORD PTR __j$1$[ebp], edx
  005c7	3b d3		 cmp	 edx, ebx
  005c9	0f 8f b4 01 00
	00		 jg	 $LN13@ApplySkill
  005cf	8b 4d d4	 mov	 ecx, DWORD PTR __k$1$[ebp]
  005d2	8b c2		 mov	 eax, edx
  005d4	0f af 45 20	 imul	 eax, DWORD PTR __nMaxWidth$1$[ebp]
  005d8	8b 5d 20	 mov	 ebx, DWORD PTR __nMaxWidth$1$[ebp]
  005db	8b 7d d8	 mov	 edi, DWORD PTR tv1841[ebp]
  005de	03 c1		 add	 eax, ecx
  005e0	89 45 e0	 mov	 DWORD PTR $T2[ebp], eax
$LL18@ApplySkill:
  005e3	3b ce		 cmp	 ecx, esi
  005e5	0f 8f 87 01 00
	00		 jg	 $LN16@ApplySkill
  005eb	8b 55 c4	 mov	 edx, DWORD PTR __pObjs$1$[ebp]
  005ee	8b de		 mov	 ebx, esi
  005f0	2b d9		 sub	 ebx, ecx
  005f2	43		 inc	 ebx
  005f3	89 5d d0	 mov	 DWORD PTR tv1835[ebp], ebx
  005f6	8d 14 82	 lea	 edx, DWORD PTR [edx+eax*4]
  005f9	89 55 cc	 mov	 DWORD PTR tv1761[ebp], edx
  005fc	0f 1f 40 00	 npad	 4
$LL21@ApplySkill:
  00600	8b 32		 mov	 esi, DWORD PTR [edx]
  00602	b9 e8 03 00 00	 mov	 ecx, 1000		; 000003e8H
  00607	85 f6		 test	 esi, esi
  00609	0f 84 3f 01 00
	00		 je	 $LN19@ApplySkill
  0060f	90		 npad	 1
$LL22@ApplySkill:
  00610	8b c1		 mov	 eax, ecx
  00612	49		 dec	 ecx
  00613	89 4d 0c	 mov	 DWORD PTR ___limit$1$[ebp], ecx
  00616	85 c0		 test	 eax, eax
  00618	0f 84 2a 01 00
	00		 je	 $LN169@ApplySkill

; 524  : 		{
; 525  : 			bApply = FALSE;
; 526  : 			if( pObj->GetType() == OT_MOVER )				// ´ë»óŔĚ ą«ąö¸é.

  0061e	8b 86 70 01 00
	00		 mov	 eax, DWORD PTR [esi+368]
  00624	83 f8 05	 cmp	 eax, 5
  00627	0f 85 7e 00 00
	00		 jne	 $LN61@ApplySkill

; 533  : 				if( pAttacker->IsPlayer() && pAttacker->IsChaotic() == FALSE && pTarget->GetProp()->dwClass == RANK_GUARD )

  0062d	8b 5d 08	 mov	 ebx, DWORD PTR _pSrc$[ebp]
  00630	33 c9		 xor	 ecx, ecx
  00632	83 be 64 06 00
	00 01		 cmp	 DWORD PTR [esi+1636], 1
  00639	0f 95 c1	 setne	 cl
  0063c	83 bb 30 02 00
	00 00		 cmp	 DWORD PTR [ebx+560], 0
  00643	8b c1		 mov	 eax, ecx
  00645	89 4d c0	 mov	 DWORD PTR tv1843[ebp], ecx
  00648	74 57		 je	 SHORT $LN64@ApplySkill
; File C:\IAGOS\server\v18\Source\Source\_Common\Mover.h

; 1257 : 	BOOL			IsChaotic( void ) { return m_dwPKPropensity > 0; }	/// Ä«żŔŔÎÁö

  0064a	83 bb 58 07 00
	00 00		 cmp	 DWORD PTR [ebx+1880], 0
; File C:\IAGOS\server\v18\Source\Source\_Common\ctrl.cpp

; 533  : 				if( pAttacker->IsPlayer() && pAttacker->IsChaotic() == FALSE && pTarget->GetProp()->dwClass == RANK_GUARD )

  00651	77 4e		 ja	 SHORT $LN64@ApplySkill
; File C:\IAGOS\server\v18\Source\Source\_Common\Mover.h

; 1020 : 	MoverProp*		GetProp() { return prj.GetMoverProp( m_dwIndex ); }	// °´ĂĽŔÇ ÇÁ·ÎĆŰĆĽ ľň±â 	

  00653	8b 86 74 01 00
	00		 mov	 eax, DWORD PTR [esi+372]
; File C:\IAGOS\server\v18\Source\Source\_Common\Project.h

; 1406 : 	VERIFY_RANGE( nIndex, 0, m_nMoverPropSize, "GetMoverProp range_error", NULL );

  00659	85 c0		 test	 eax, eax
  0065b	78 16		 js	 SHORT $LN87@ApplySkill
  0065d	3b 05 b4 01 00
	00		 cmp	 eax, DWORD PTR ?prj@@3VCProject@@A+436
  00663	7d 0e		 jge	 SHORT $LN87@ApplySkill

; 1407 : 	return m_pPropMover + nIndex;

  00665	69 d0 90 06 00
	00		 imul	 edx, eax, 1680
  0066b	03 15 b8 01 00
	00		 add	 edx, DWORD PTR ?prj@@3VCProject@@A+440
  00671	eb 20		 jmp	 SHORT $LN82@ApplySkill
$LN87@ApplySkill:

; 579  : 	LPCTSTR szErr = Error( _T( "%s min:%d, max:%d, index:%d" ), szMsg, nMin, nMax, nIndex ); 

  00673	50		 push	 eax
  00674	ff 35 b4 01 00
	00		 push	 DWORD PTR ?prj@@3VCProject@@A+436
  0067a	6a 00		 push	 0
  0067c	68 00 00 00 00	 push	 OFFSET ??_C@_0BJ@GKPOBPPI@GetMoverProp?5range_error@
  00681	68 00 00 00 00	 push	 OFFSET ??_C@_0BM@HMFGHCP@?$CFs?5min?3?$CFd?0?5max?3?$CFd?0?5index?3?$CFd@
  00686	e8 00 00 00 00	 call	 ?Error@@YAPBDPBDZZ	; Error
  0068b	8b 4d c0	 mov	 ecx, DWORD PTR tv1843[ebp]
  0068e	83 c4 14	 add	 esp, 20			; 00000014H

; 1406 : 	VERIFY_RANGE( nIndex, 0, m_nMoverPropSize, "GetMoverProp range_error", NULL );

  00691	33 d2		 xor	 edx, edx
$LN82@ApplySkill:
; File C:\IAGOS\server\v18\Source\Source\_Common\ctrl.cpp

; 533  : 				if( pAttacker->IsPlayer() && pAttacker->IsChaotic() == FALSE && pTarget->GetProp()->dwClass == RANK_GUARD )

  00693	8b c1		 mov	 eax, ecx
  00695	33 c9		 xor	 ecx, ecx
  00697	83 ba 94 00 00
	00 08		 cmp	 DWORD PTR [edx+148], 8
  0069e	0f 44 c1	 cmove	 eax, ecx
$LN64@ApplySkill:

; 541  : 					bApply = TRUE;							
; 542  : 			}
; 543  : 
; 544  : 			if( bApply )

  006a1	85 c0		 test	 eax, eax
  006a3	0f 84 8e 00 00
	00		 je	 $LN178@ApplySkill
  006a9	eb 19		 jmp	 SHORT $LN163@ApplySkill
$LN61@ApplySkill:

; 534  : 					bApply = FALSE;
; 535  : #endif //	#endif // __JHMA_VER_8_5_1			 // 8.5Â÷ °ćşńş´ ąüŔ§˝şĹł °ř°ÝČż°ú şŇ°ˇ·Î ĽöÁ¤ World
; 536  : 			} else
; 537  : 			// ´ë»óŔĚ ÄÁĆ®·ŃŔĚ¸é.
; 538  : 			if( pObj->GetType() == OT_CTRL )

  006ab	83 f8 02	 cmp	 eax, 2
  006ae	0f 85 86 00 00
	00		 jne	 $LN167@ApplySkill

; 539  : 			{
; 540  : 				if( pSrc->GetType() == OT_MOVER )			// °ř°ÝŔÚ°ˇ ą«ąöŔĎ¶§¸¸ Ŕűżë. ÄÁĆ®·ŃŔĚ ÄÁĆ®·Ńżˇ°Ô żµÇâŔ» ÁŮĽř ľř´Ů.

  006b4	8b 5d 08	 mov	 ebx, DWORD PTR _pSrc$[ebp]
  006b7	83 bb 70 01 00
	00 05		 cmp	 DWORD PTR [ebx+368], 5
  006be	0f 85 76 00 00
	00		 jne	 $LN167@ApplySkill
$LN163@ApplySkill:

; 545  : 			{
; 546  : 				if( pObj->IsRangeObj( this, fRange ) )	// this(Center)ŔÇ ˝şÇÇľîżÍ pObjŔÇ ˝şÇÇľî°ˇ ĂćµąÇß´ŔłÄ

  006c4	f3 0f 10 45 f0	 movss	 xmm0, DWORD PTR _fRange$1$[ebp]
  006c9	8b 7d fc	 mov	 edi, DWORD PTR _this$1$[ebp]
  006cc	51		 push	 ecx
  006cd	f3 0f 11 04 24	 movss	 DWORD PTR [esp], xmm0
  006d2	8b ce		 mov	 ecx, esi
  006d4	57		 push	 edi
  006d5	e8 00 00 00 00	 call	 ?IsRangeObj@CObj@@QAEHPAV1@M@Z ; CObj::IsRangeObj
  006da	85 c0		 test	 eax, eax
  006dc	74 59		 je	 SHORT $LN178@ApplySkill

; 547  : 				{
; 548  : 					if( pObj == this && fTargetRatio == 0.0f )	// Ĺ¸°ŮµĄąĚÁö şńŔ˛ŔĚ 0ŔĚ¸é ŔÚ±âŔÚ˝Ĺ(Ĺ¸°Ů)Ŕş µĄąĚÁö¸¦ ÁÖÁöľĘŔ˝.

  006de	3b f7		 cmp	 esi, edi
  006e0	75 12		 jne	 SHORT $LN69@ApplySkill
  006e2	f3 0f 10 45 ec	 movss	 xmm0, DWORD PTR _fTargetRatio$1$[ebp]
  006e7	0f 2e 05 00 00
	00 00		 ucomiss xmm0, DWORD PTR __real@00000000
  006ee	9f		 lahf
  006ef	f6 c4 44	 test	 ah, 68			; 00000044H
  006f2	7b 43		 jnp	 SHORT $LN178@ApplySkill
$LN69@ApplySkill:

; 549  : 					{
; 550  : 					} else
; 551  : 					{
; 552  : 						if( pObj != pSrc )		// °ř°ÝŔÚ´Â °Ë»ç´ë»óżˇĽ­ Á¦żÜ.

  006f4	3b f3		 cmp	 esi, ebx
  006f6	74 3f		 je	 SHORT $LN178@ApplySkill

; 553  : 						{
; 554  : 							if( pObj->GetType() == OT_MOVER )	// Ĺ¸°ŮŔĚ ą«ąöłÄ?

  006f8	83 be 70 01 00
	00 05		 cmp	 DWORD PTR [esi+368], 5
  006ff	75 1e		 jne	 SHORT $LN72@ApplySkill
; File C:\IAGOS\server\v18\Source\Source\_Common\Obj.h

; 180  : 	BOOL			IsDelete()	{ return (m_dwFlags & OBJ_FLAG_DELETE);  }

  00701	f6 46 04 01	 test	 BYTE PTR [esi+4], 1

; 327  : 	return pObj && ( pObj->IsDelete() == FALSE ); 

  00705	75 30		 jne	 SHORT $LN178@ApplySkill
; File C:\IAGOS\server\v18\Source\Source\_Common\Mover.h

; 1251 : 	BOOL			IsLive() { return m_pActMover->IsDie() == FALSE || m_nHitPoint > 0; }		// && ¸¦  ||·Î ąŮ˛ĺŔ˝.  !=¸¦ >·Î ąŮ˛Ţ

  00707	8b 86 38 02 00
	00		 mov	 eax, DWORD PTR [esi+568]
  0070d	f7 40 04 00 00
	00 08		 test	 DWORD PTR [eax+4], 134217728 ; 08000000H
  00714	74 09		 je	 SHORT $LN72@ApplySkill
  00716	83 be f8 05 00
	00 00		 cmp	 DWORD PTR [esi+1528], 0
  0071d	7e 18		 jle	 SHORT $LN178@ApplySkill
$LN72@ApplySkill:
; File C:\IAGOS\server\v18\Source\Source\_Common\ctrl.cpp

; 561  : 								((CCtrl*)pObj)->ApplySkill( pSrc, pSkillProp, pAddSkillProp, bIgnoreProb, 0, bOnlyDmg );		// ´ë»óżˇ°Ô Čż°ú¸¦ ŔűżëÇÔ.

  0071f	6a 01		 push	 1
  00721	ff 75 1c	 push	 DWORD PTR _bOnlyDmg$[ebp]
  00724	8b ce		 mov	 ecx, esi
  00726	6a 00		 push	 0
  00728	ff 75 18	 push	 DWORD PTR _bIgnoreProb$[ebp]
  0072b	ff 75 14	 push	 DWORD PTR _pAddSkillProp$[ebp]
  0072e	ff 75 10	 push	 DWORD PTR _pSkillProp$[ebp]
  00731	53		 push	 ebx
  00732	e8 00 00 00 00	 call	 ?ApplySkill@CCtrl@@QAEXPAV1@PAUItemProp@@PAUAddSkillProp@@_NHHH@Z ; CCtrl::ApplySkill
$LN178@ApplySkill:

; 562  : 							}
; 563  : 						}
; 564  : 					}
; 565  : 				}
; 566  : 			} // bApply
; 567  : 		}
; 568  : 		END_LINKMAP

  00737	8b 4d 0c	 mov	 ecx, DWORD PTR ___limit$1$[ebp]
$LN167@ApplySkill:
  0073a	8b b6 80 01 00
	00		 mov	 esi, DWORD PTR [esi+384]
  00740	85 f6		 test	 esi, esi
  00742	0f 85 c8 fe ff
	ff		 jne	 $LL22@ApplySkill
$LN169@ApplySkill:
  00748	8b 55 cc	 mov	 edx, DWORD PTR tv1761[ebp]
  0074b	8b 5d d0	 mov	 ebx, DWORD PTR tv1835[ebp]
$LN19@ApplySkill:

; 523  : 		FOR_LINKMAP( GetWorld(), vPos, pObj, nRange, CObj::linkDynamic, GetLayer() )	// linkDynamicŔ» ľ´´Ů

  0074e	83 c2 04	 add	 edx, 4
  00751	83 eb 01	 sub	 ebx, 1
  00754	89 55 cc	 mov	 DWORD PTR tv1761[ebp], edx
  00757	89 5d d0	 mov	 DWORD PTR tv1835[ebp], ebx
  0075a	0f 85 a0 fe ff
	ff		 jne	 $LL21@ApplySkill
  00760	8b 55 dc	 mov	 edx, DWORD PTR __j$1$[ebp]
  00763	8b 45 e0	 mov	 eax, DWORD PTR $T2[ebp]
  00766	8b 4d d4	 mov	 ecx, DWORD PTR __k$1$[ebp]
  00769	8b 75 c8	 mov	 esi, DWORD PTR tv1772[ebp]
  0076c	8b 5d 20	 mov	 ebx, DWORD PTR __nMaxWidth$1$[ebp]
  0076f	8b 7d d8	 mov	 edi, DWORD PTR tv1841[ebp]
$LN16@ApplySkill:
  00772	42		 inc	 edx
  00773	03 c3		 add	 eax, ebx
  00775	89 55 dc	 mov	 DWORD PTR __j$1$[ebp], edx
  00778	89 45 e0	 mov	 DWORD PTR $T2[ebp], eax
  0077b	3b d7		 cmp	 edx, edi
  0077d	0f 8e 60 fe ff
	ff		 jle	 $LL18@ApplySkill
$LN13@ApplySkill:
  00783	8b 5d fc	 mov	 ebx, DWORD PTR _this$1$[ebp]
  00786	8b 7d e4	 mov	 edi, DWORD PTR __i$1$[ebp]
  00789	47		 inc	 edi
  0078a	89 7d e4	 mov	 DWORD PTR __i$1$[ebp], edi
  0078d	ff b3 b8 01 00
	00		 push	 DWORD PTR [ebx+440]
  00793	8b 8b 6c 01 00
	00		 mov	 ecx, DWORD PTR [ebx+364]
  00799	6a 01		 push	 1
  0079b	83 c1 24	 add	 ecx, 36			; 00000024H
  0079e	e8 00 00 00 00	 call	 ?GetMaxLinkLevel@CLayeredLinkMap@@QAEHKH@Z ; CLayeredLinkMap::GetMaxLinkLevel
  007a3	3b f8		 cmp	 edi, eax
  007a5	0f 8c 35 fd ff
	ff		 jl	 $LL15@ApplySkill
$LN14@ApplySkill:
  007ab	5f		 pop	 edi

; 569  : 	}
; 570  : 		
; 571  : #endif // WORLDSERVER		
; 572  : } // ApplySkillAround()

  007ac	5e		 pop	 esi
  007ad	5b		 pop	 ebx
  007ae	8b e5		 mov	 esp, ebp
  007b0	5d		 pop	 ebp
  007b1	c2 20 00	 ret	 32			; 00000020H
?ApplySkillAround@CCtrl@@QAEXPAV1@HPAUItemProp@@PAUAddSkillProp@@_NHMH@Z ENDP ; CCtrl::ApplySkillAround
_TEXT	ENDS
; Function compile flags: /Ogtp
; File C:\IAGOS\server\v18\Source\Source\_Common\ctrl.cpp
; File C:\IAGOS\server\v18\Source\Source\_Common\Obj.h
; File C:\IAGOS\server\v18\Source\Source\_Common\ctrl.cpp
; File C:\IAGOS\server\v18\Source\Source\_Common\Obj.h
; File C:\IAGOS\server\v18\Source\Source\_Common\ctrl.cpp
; File C:\IAGOS\server\v18\Source\Source\_Common\Obj.h
; File C:\IAGOS\server\v18\Source\Source\_Common\Mover.h
; File C:\IAGOS\server\v18\Source\Source\_Common\ctrl.cpp
; File C:\IAGOS\server\v18\Source\Source\_Common\Obj.h
; File C:\IAGOS\server\v18\Source\Source\_Common\ctrl.cpp
; File C:\IAGOS\server\v18\Source\Source\_Common\Obj.h
; File C:\IAGOS\server\v18\Source\Source\_Common\ctrl.cpp
; File C:\IAGOS\server\v18\Source\Source\_Common\Mover.h
; File C:\IAGOS\server\v18\Source\Source\_Common\ctrl.cpp
; File C:\IAGOS\server\v18\Source\Source\_Common\Mover.h
; File C:\IAGOS\server\v18\Source\Source\_Common\Project.h
; File C:\IAGOS\server\v18\Source\Source\_Common\ctrl.cpp
; File C:\IAGOS\server\v18\Source\Source\_Common\Obj.h
; File C:\IAGOS\server\v18\Source\Source\_Common\Mover.h
; File C:\IAGOS\server\v18\Source\Source\_Common\ctrl.cpp
; File C:\IAGOS\server\v18\Source\Source\_Common\Obj.h
; File C:\IAGOS\server\v18\Source\Source\_Common\ctrl.cpp
; File C:\IAGOS\server\v18\Source\Source\_Common\Obj.h
; File C:\IAGOS\server\v18\Source\Source\_Common\ctrl.cpp
;	COMDAT ?ApplySkillRegion@CCtrl@@QAEXABUD3DXVECTOR3@@HPAUItemProp@@PAUAddSkillProp@@_NHPAV1@H@Z
_TEXT	SEGMENT
__nLinkZ$1$ = -84					; size = 4
tv1773 = -84						; size = 4
___limit$1$ = -80					; size = 4
tv1790 = -80						; size = 4
__pObjs$1$ = -76					; size = 4
__nX$1$ = -76						; size = 4
tv1764 = -76						; size = 4
tv1798 = -72						; size = 4
tv1787 = -72						; size = 4
tv1785 = -68						; size = 4
tv1801 = -68						; size = 4
tv1783 = -64						; size = 4
tv1803 = -64						; size = 4
tv1805 = -60						; size = 4
tv1767 = -60						; size = 4
__i$1$ = -56						; size = 4
tv1833 = -56						; size = 4
$T1 = -52						; size = 4
__nUnit$1$ = -52					; size = 4
__k$1$ = -52						; size = 4
__nX$1$ = -48						; size = 4
__j$1$ = -48						; size = 4
tv1840 = -48						; size = 4
tv1838 = -44						; size = 4
__j$1$ = -44						; size = 4
tv1776 = -44						; size = 4
__k$1$ = -40						; size = 4
$T2 = -40						; size = 4
tv1826 = -36						; size = 4
__i$1$ = -36						; size = 4
__pObjs$1$ = -32					; size = 4
tv1761 = -32						; size = 4
_bTarget$1$ = -28					; size = 4
__nLinkZ$1$ = -24					; size = 4
__nLinkX$1$ = -20					; size = 4
_nRange$1$ = -16					; size = 4
__nMaxWidth$1$ = -12					; size = 4
_fRange$1$ = -8						; size = 4
_this$1$ = -4						; size = 4
_vPos$ = 8						; size = 4
_nApplyType$ = 12					; size = 4
__nLinkX$1$ = 12					; size = 4
_pSkillProp$ = 16					; size = 4
_pAddSkillProp$ = 20					; size = 4
_bIgnoreProb$ = 24					; size = 1
_bOnlyDmg$ = 28						; size = 4
__nMaxWidth$1$ = 32					; size = 4
_pCenter$ = 32						; size = 4
_bControl$ = 36						; size = 4
tv1753 = 36						; size = 4
__nUnit$1$ = 36						; size = 4
?ApplySkillRegion@CCtrl@@QAEXABUD3DXVECTOR3@@HPAUItemProp@@PAUAddSkillProp@@_NHPAV1@H@Z PROC ; CCtrl::ApplySkillRegion, COMDAT
; _this$ = ecx

; 255  : {

  00000	55		 push	 ebp
  00001	8b ec		 mov	 ebp, esp
  00003	83 ec 54	 sub	 esp, 84			; 00000054H
  00006	53		 push	 ebx
  00007	56		 push	 esi

; 256  : #ifdef __WORLDSERVER
; 257  : 	int nRange	= 4;	// 4m
; 258  : 	CObj* pObj;
; 259  : 	CCtrl *pSrc = this;
; 260  : 	D3DXVECTOR3 vDist;
; 261  : 
; 262  : 	if( pSkillProp == NULL )

  00008	8b 75 10	 mov	 esi, DWORD PTR _pSkillProp$[ebp]
  0000b	8b d9		 mov	 ebx, ecx
  0000d	89 5d fc	 mov	 DWORD PTR _this$1$[ebp], ebx
  00010	57		 push	 edi
  00011	85 f6		 test	 esi, esi
  00013	75 19		 jne	 SHORT $LN24@ApplySkill

; 263  : 		Error( "CCtrl::ApplySkillRegion : pSkillProp == NULL A:%d-%d", pSrc->GetType(), pSrc->GetIndex() );

  00015	ff b3 74 01 00
	00		 push	 DWORD PTR [ebx+372]
  0001b	ff b3 70 01 00
	00		 push	 DWORD PTR [ebx+368]
  00021	68 00 00 00 00	 push	 OFFSET ??_C@_0DF@PJNPMLMN@CCtrl?3?3ApplySkillRegion?5?3?5pSkil@
  00026	e8 00 00 00 00	 call	 ?Error@@YAPBDPBDZZ	; Error
  0002b	83 c4 0c	 add	 esp, 12			; 0000000cH
$LN24@ApplySkill:

; 264  : 
; 265  : 	FLOAT fRange = 4.0f;
; 266  : 	if( pAddSkillProp )										// ľÖµĺ˝şĹłŔĚ ŔÖŔ¸¸é °Ĺ±âĽ­ ˛¨łż

  0002e	8b 55 14	 mov	 edx, DWORD PTR _pAddSkillProp$[ebp]
  00031	85 d2		 test	 edx, edx
  00033	74 2b		 je	 SHORT $LN25@ApplySkill

; 267  : 	{
; 268  : 		fRange = (float)pAddSkillProp->dwSkillRange;

  00035	8b 4a 64	 mov	 ecx, DWORD PTR [edx+100]
  00038	8b c1		 mov	 eax, ecx
  0003a	c1 e8 1f	 shr	 eax, 31			; 0000001fH
  0003d	66 0f 6e c1	 movd	 xmm0, ecx
  00041	f3 0f e6 c0	 cvtdq2pd xmm0, xmm0
  00045	f2 0f 58 04 c5
	00 00 00 00	 addsd	 xmm0, QWORD PTR __xmm@41f00000000000000000000000000000[eax*8]
  0004e	66 0f 5a c8	 cvtpd2ps xmm1, xmm0
  00052	f3 0f 11 4d f8	 movss	 DWORD PTR _fRange$1$[ebp], xmm1

; 269  : 		if( pAddSkillProp->dwSkillRange == NULL_ID )

  00057	83 f9 ff	 cmp	 ecx, -1
  0005a	75 42		 jne	 SHORT $LN28@ApplySkill

; 270  : 			Error( "°ć°í : ˝şĹł %dŔÇ dwSkillRange°ˇ ÁöÁ¤µÇÁö ľĘŔ˝", pAddSkillProp->dwID );

  0005c	ff 32		 push	 DWORD PTR [edx]

; 271  : 	}

  0005e	eb 2c		 jmp	 SHORT $LN211@ApplySkill
$LN25@ApplySkill:

; 272  : 	else
; 273  : 	{
; 274  : 		fRange = (float)pSkillProp->_dwSkillRange;			// ľřŔ¸¸é ˝şĹłÇÁ·ÎĆŰĆĽżˇĽ­ ˛¨łż.

  00060	8b 8e 9c 01 00
	00		 mov	 ecx, DWORD PTR [esi+412]
  00066	8b c1		 mov	 eax, ecx
  00068	c1 e8 1f	 shr	 eax, 31			; 0000001fH
  0006b	66 0f 6e c1	 movd	 xmm0, ecx
  0006f	f3 0f e6 c0	 cvtdq2pd xmm0, xmm0
  00073	f2 0f 58 04 c5
	00 00 00 00	 addsd	 xmm0, QWORD PTR __xmm@41f00000000000000000000000000000[eax*8]
  0007c	66 0f 5a c8	 cvtpd2ps xmm1, xmm0
  00080	f3 0f 11 4d f8	 movss	 DWORD PTR _fRange$1$[ebp], xmm1

; 275  : 		if( pSkillProp->_dwSkillRange == NULL_ID )

  00085	83 f9 ff	 cmp	 ecx, -1
  00088	75 14		 jne	 SHORT $LN28@ApplySkill

; 276  : 			Error( "°ć°í : ˝şĹł %dŔÇ dwSkillRange°ˇ ÁöÁ¤µÇÁö ľĘŔ˝", pSkillProp->dwID );

  0008a	ff 36		 push	 DWORD PTR [esi]
$LN211@ApplySkill:

; 277  : 	}
; 278  : 
; 279  : 	if( fRange <= 4.0f )		nRange = 4;

  0008c	68 00 00 00 00	 push	 OFFSET ??_C@_0CO@BGLKNHOL@?$LA?f?$LA?m?5?3?5?$LN?$LK?E?$LD?5?$CFd?$MA?G?5dwSkillRange?$LA?$KB@
  00091	e8 00 00 00 00	 call	 ?Error@@YAPBDPBDZZ	; Error
  00096	f3 0f 10 4d f8	 movss	 xmm1, DWORD PTR _fRange$1$[ebp]
  0009b	83 c4 08	 add	 esp, 8
$LN28@ApplySkill:
  0009e	f3 0f 10 05 00
	00 00 00	 movss	 xmm0, DWORD PTR __real@40800000
  000a6	0f 2f c1	 comiss	 xmm0, xmm1
  000a9	72 07		 jb	 SHORT $LN29@ApplySkill
  000ab	bf 04 00 00 00	 mov	 edi, 4
  000b0	eb 2c		 jmp	 SHORT $LN212@ApplySkill
$LN29@ApplySkill:

; 280  : 	else if( fRange <= 8.0f )	nRange = 8;

  000b2	f3 0f 10 05 00
	00 00 00	 movss	 xmm0, DWORD PTR __real@41000000
  000ba	0f 2f c1	 comiss	 xmm0, xmm1
  000bd	72 07		 jb	 SHORT $LN31@ApplySkill
  000bf	bf 08 00 00 00	 mov	 edi, 8
  000c4	eb 18		 jmp	 SHORT $LN212@ApplySkill
$LN31@ApplySkill:

; 281  : 	else if( fRange <= 16.0f )	nRange = 16;

  000c6	f3 0f 10 05 00
	00 00 00	 movss	 xmm0, DWORD PTR __real@41800000
  000ce	bf 20 00 00 00	 mov	 edi, 32			; 00000020H
  000d3	0f 2f c1	 comiss	 xmm0, xmm1
  000d6	b8 10 00 00 00	 mov	 eax, 16			; 00000010H
  000db	0f 43 f8	 cmovae	 edi, eax
$LN212@ApplySkill:

; 282  : 	else						nRange = 32;
; 283  : 
; 284  : 	if( fRange <= 0 )	// ąüŔ§°ˇ 0ŔĚ°ĹłŞ Ŕ˝ĽöŔĎĽö´Â ľř´Ů.

  000de	0f 57 c0	 xorps	 xmm0, xmm0
  000e1	89 7d f0	 mov	 DWORD PTR _nRange$1$[ebp], edi
  000e4	0f 2f c1	 comiss	 xmm0, xmm1
  000e7	72 28		 jb	 SHORT $LN35@ApplySkill

; 285  : 		Error( "CCtrl::ApplySkillRegion : D:%d A:%d-%d %d %f", GetIndex(), pSrc->GetType(), pSrc->GetIndex(), pSkillProp->dwID, fRange );

  000e9	8b 83 74 01 00
	00		 mov	 eax, DWORD PTR [ebx+372]
  000ef	83 ec 08	 sub	 esp, 8
  000f2	0f 5a c1	 cvtps2pd xmm0, xmm1
  000f5	f2 0f 11 04 24	 movsd	 QWORD PTR [esp], xmm0
  000fa	ff 36		 push	 DWORD PTR [esi]
  000fc	50		 push	 eax
  000fd	ff b3 70 01 00
	00		 push	 DWORD PTR [ebx+368]
  00103	50		 push	 eax
  00104	68 00 00 00 00	 push	 OFFSET ??_C@_0CN@JGJEJEIM@CCtrl?3?3ApplySkillRegion?5?3?5D?3?$CFd?5@
  00109	e8 00 00 00 00	 call	 ?Error@@YAPBDPBDZZ	; Error
  0010e	83 c4 1c	 add	 esp, 28			; 0000001cH
$LN35@ApplySkill:

; 286  : 
; 287  : 	BOOL	bApply = FALSE;
; 288  : 	BOOL	bTarget = TRUE;
; 289  : 
; 290  : 	//------------ Ŕűżë´ë»óŔĚ ÇĂ·ąŔĚľîŔÎ°ˇ 
; 291  : 	if( nApplyType & OBJTYPE_PLAYER )	

  00111	f6 45 0c 01	 test	 BYTE PTR _nApplyType$[ebp], 1
  00115	8b 75 08	 mov	 esi, DWORD PTR _vPos$[ebp]
  00118	0f 84 22 03 00
	00		 je	 $LN3@ApplySkill

; 293  : 		FOR_LINKMAP( GetWorld(), vPos, pObj, nRange, CObj::linkPlayer, GetLayer() )

  0011e	8b 8b 6c 01 00
	00		 mov	 ecx, DWORD PTR [ebx+364]
  00124	f3 0f 10 06	 movss	 xmm0, DWORD PTR [esi]
  00128	ff b3 b8 01 00
	00		 push	 DWORD PTR [ebx+440]
  0012e	c7 45 c8 00 00
	00 00		 mov	 DWORD PTR __i$1$[ebp], 0
  00135	66 0f 6e 49 14	 movd	 xmm1, DWORD PTR [ecx+20]
  0013a	83 c1 24	 add	 ecx, 36			; 00000024H
  0013d	0f 5b c9	 cvtdq2ps xmm1, xmm1
  00140	6a 02		 push	 2
  00142	f3 0f 5e c1	 divss	 xmm0, xmm1
  00146	f3 0f 2c c0	 cvttss2si eax, xmm0
  0014a	f3 0f 10 46 08	 movss	 xmm0, DWORD PTR [esi+8]
  0014f	f3 0f 5e c1	 divss	 xmm0, xmm1
  00153	89 45 ec	 mov	 DWORD PTR __nLinkX$1$[ebp], eax
  00156	f3 0f 2c c0	 cvttss2si eax, xmm0
  0015a	89 45 e8	 mov	 DWORD PTR __nLinkZ$1$[ebp], eax
  0015d	e8 00 00 00 00	 call	 ?GetMaxLinkLevel@CLayeredLinkMap@@QAEHKH@Z ; CLayeredLinkMap::GetMaxLinkLevel
  00162	85 c0		 test	 eax, eax
  00164	0f 8e d6 02 00
	00		 jle	 $LN3@ApplySkill
  0016a	8b 45 ec	 mov	 eax, DWORD PTR __nLinkX$1$[ebp]
  0016d	8b c8		 mov	 ecx, eax
  0016f	2b cf		 sub	 ecx, edi
  00171	03 c7		 add	 eax, edi
  00173	89 4d c4	 mov	 DWORD PTR tv1805[ebp], ecx
  00176	8b 4d e8	 mov	 ecx, DWORD PTR __nLinkZ$1$[ebp]
  00179	8b d1		 mov	 edx, ecx
  0017b	2b d7		 sub	 edx, edi
  0017d	89 45 bc	 mov	 DWORD PTR tv1801[ebp], eax
  00180	89 55 c0	 mov	 DWORD PTR tv1803[ebp], edx
  00183	8d 04 39	 lea	 eax, DWORD PTR [ecx+edi]
  00186	33 ff		 xor	 edi, edi
  00188	89 45 b8	 mov	 DWORD PTR tv1798[ebp], eax
  0018b	0f 1f 44 00 00	 npad	 5
$LL4@ApplySkill:
  00190	ff b3 b8 01 00
	00		 push	 DWORD PTR [ebx+440]
; File C:\IAGOS\server\v18\Source\Source\_Common\Obj.h

; 221  : 	CWorld*			GetWorld()	{ return m_pWorld; }

  00196	8b 8b 6c 01 00
	00		 mov	 ecx, DWORD PTR [ebx+364]
; File C:\IAGOS\server\v18\Source\Source\_Common\ctrl.cpp

; 293  : 		FOR_LINKMAP( GetWorld(), vPos, pObj, nRange, CObj::linkPlayer, GetLayer() )

  0019c	57		 push	 edi
  0019d	6a 02		 push	 2
  0019f	83 c1 24	 add	 ecx, 36			; 00000024H
  001a2	e8 00 00 00 00	 call	 ?GetLinkWidth@CLayeredLinkMap@@QAEHKHH@Z ; CLayeredLinkMap::GetLinkWidth
  001a7	ff b3 b8 01 00
	00		 push	 DWORD PTR [ebx+440]
  001ad	8b 8b 6c 01 00
	00		 mov	 ecx, DWORD PTR [ebx+364]
  001b3	8b f0		 mov	 esi, eax
  001b5	57		 push	 edi
  001b6	6a 02		 push	 2
  001b8	83 c1 24	 add	 ecx, 36			; 00000024H
  001bb	e8 00 00 00 00	 call	 ?GetObj@CLayeredLinkMap@@QAEPAPAVCObj@@KKH@Z ; CLayeredLinkMap::GetObj
  001c0	8b 8b 6c 01 00
	00		 mov	 ecx, DWORD PTR [ebx+364]
  001c6	89 45 b4	 mov	 DWORD PTR __pObjs$1$[ebp], eax
  001c9	8b 51 08	 mov	 edx, DWORD PTR [ecx+8]
  001cc	8b 41 04	 mov	 eax, DWORD PTR [ecx+4]
  001cf	8b d8		 mov	 ebx, eax
  001d1	c1 e0 07	 shl	 eax, 7
  001d4	0f af d6	 imul	 edx, esi
  001d7	0f af de	 imul	 ebx, esi
  001da	8b 79 14	 mov	 edi, DWORD PTR [ecx+20]
  001dd	8b 4d ec	 mov	 ecx, DWORD PTR __nLinkX$1$[ebp]
  001e0	89 55 d4	 mov	 DWORD PTR tv1776[ebp], edx
  001e3	99		 cdq
  001e4	f7 fb		 idiv	 ebx
  001e6	89 5d f4	 mov	 DWORD PTR __nMaxWidth$1$[ebp], ebx
  001e9	8b d8		 mov	 ebx, eax
  001eb	8b c7		 mov	 eax, edi
  001ed	0f af c3	 imul	 eax, ebx
  001f0	89 5d cc	 mov	 DWORD PTR __nUnit$1$[ebp], ebx
  001f3	99		 cdq
  001f4	2b c2		 sub	 eax, edx
  001f6	8b f0		 mov	 esi, eax
  001f8	8b c1		 mov	 eax, ecx
  001fa	99		 cdq
  001fb	f7 fb		 idiv	 ebx
  001fd	8b 45 08	 mov	 eax, DWORD PTR _vPos$[ebp]
  00200	2b ca		 sub	 ecx, edx
  00202	d1 fe		 sar	 esi, 1
  00204	0f af cf	 imul	 ecx, edi
  00207	f3 0f 2c 00	 cvttss2si eax, DWORD PTR [eax]
  0020b	2b c1		 sub	 eax, ecx
  0020d	33 c9		 xor	 ecx, ecx
  0020f	3b c6		 cmp	 eax, esi
  00211	0f 9f c1	 setg	 cl
  00214	89 4d d0	 mov	 DWORD PTR __nX$1$[ebp], ecx
  00217	8b 4d e8	 mov	 ecx, DWORD PTR __nLinkZ$1$[ebp]
  0021a	8b c1		 mov	 eax, ecx
  0021c	99		 cdq
  0021d	f7 fb		 idiv	 ebx
  0021f	8b 45 08	 mov	 eax, DWORD PTR _vPos$[ebp]
  00222	33 db		 xor	 ebx, ebx
  00224	2b ca		 sub	 ecx, edx
  00226	0f af cf	 imul	 ecx, edi
  00229	8b 7d cc	 mov	 edi, DWORD PTR __nUnit$1$[ebp]
  0022c	f3 0f 2c 40 08	 cvttss2si eax, DWORD PTR [eax+8]
  00231	2b c1		 sub	 eax, ecx
  00233	3b c6		 cmp	 eax, esi
  00235	8b 45 c4	 mov	 eax, DWORD PTR tv1805[ebp]
  00238	99		 cdq
  00239	0f 9f c3	 setg	 bl
  0023c	33 c9		 xor	 ecx, ecx
  0023e	f7 ff		 idiv	 edi
  00240	48		 dec	 eax
  00241	03 45 d0	 add	 eax, DWORD PTR __nX$1$[ebp]
  00244	0f 49 c8	 cmovns	 ecx, eax
  00247	8b 45 c0	 mov	 eax, DWORD PTR tv1803[ebp]
  0024a	99		 cdq
  0024b	f7 ff		 idiv	 edi
  0024d	89 4d d8	 mov	 DWORD PTR __k$1$[ebp], ecx
  00250	8d 48 ff	 lea	 ecx, DWORD PTR [eax-1]
  00253	8b 45 bc	 mov	 eax, DWORD PTR tv1801[ebp]
  00256	99		 cdq
  00257	03 cb		 add	 ecx, ebx
  00259	f7 ff		 idiv	 edi
  0025b	8b 55 f4	 mov	 edx, DWORD PTR __nMaxWidth$1$[ebp]
  0025e	03 45 d0	 add	 eax, DWORD PTR __nX$1$[ebp]
  00261	3b c2		 cmp	 eax, edx
  00263	8d 72 ff	 lea	 esi, DWORD PTR [edx-1]
  00266	0f 4c f0	 cmovl	 esi, eax
  00269	8b 45 b8	 mov	 eax, DWORD PTR tv1798[ebp]
  0026c	99		 cdq
  0026d	f7 ff		 idiv	 edi
  0026f	8b 55 d4	 mov	 edx, DWORD PTR tv1776[ebp]
  00272	03 c3		 add	 eax, ebx
  00274	89 75 ac	 mov	 DWORD PTR tv1773[ebp], esi
  00277	3b c2		 cmp	 eax, edx
  00279	8d 5a ff	 lea	 ebx, DWORD PTR [edx-1]
  0027c	0f 4c d8	 cmovl	 ebx, eax
  0027f	33 d2		 xor	 edx, edx
  00281	85 c9		 test	 ecx, ecx
  00283	89 5d d4	 mov	 DWORD PTR tv1838[ebp], ebx
  00286	0f 49 d1	 cmovns	 edx, ecx
  00289	89 55 d0	 mov	 DWORD PTR __j$1$[ebp], edx
  0028c	3b d3		 cmp	 edx, ebx
  0028e	0f 8f 81 01 00
	00		 jg	 $LN2@ApplySkill
; File C:\IAGOS\server\v18\Source\Source\_Common\Obj.h

; 221  : 	CWorld*			GetWorld()	{ return m_pWorld; }

  00294	8b 4d d8	 mov	 ecx, DWORD PTR __k$1$[ebp]
  00297	8b c2		 mov	 eax, edx
  00299	0f af 45 f4	 imul	 eax, DWORD PTR __nMaxWidth$1$[ebp]
  0029d	8b 5d f4	 mov	 ebx, DWORD PTR __nMaxWidth$1$[ebp]
  002a0	8b 7d d4	 mov	 edi, DWORD PTR tv1838[ebp]
  002a3	03 c1		 add	 eax, ecx
  002a5	89 45 cc	 mov	 DWORD PTR $T1[ebp], eax
$LL7@ApplySkill:
; File C:\IAGOS\server\v18\Source\Source\_Common\ctrl.cpp

; 293  : 		FOR_LINKMAP( GetWorld(), vPos, pObj, nRange, CObj::linkPlayer, GetLayer() )

  002a8	3b ce		 cmp	 ecx, esi
  002aa	0f 8f 54 01 00
	00		 jg	 $LN5@ApplySkill
  002b0	8b 55 b4	 mov	 edx, DWORD PTR __pObjs$1$[ebp]
  002b3	8b fe		 mov	 edi, esi
  002b5	2b f9		 sub	 edi, ecx
  002b7	47		 inc	 edi
  002b8	89 7d dc	 mov	 DWORD PTR tv1826[ebp], edi
  002bb	8d 14 82	 lea	 edx, DWORD PTR [edx+eax*4]
  002be	89 55 e0	 mov	 DWORD PTR tv1761[ebp], edx
$LL10@ApplySkill:
  002c1	8b 32		 mov	 esi, DWORD PTR [edx]
  002c3	b9 e8 03 00 00	 mov	 ecx, 1000		; 000003e8H
  002c8	85 f6		 test	 esi, esi
  002ca	0f 84 10 01 00
	00		 je	 $LN8@ApplySkill
  002d0	8b 5d fc	 mov	 ebx, DWORD PTR _this$1$[ebp]
$LL11@ApplySkill:
  002d3	8b c1		 mov	 eax, ecx
  002d5	49		 dec	 ecx
  002d6	89 4d b0	 mov	 DWORD PTR ___limit$1$[ebp], ecx
  002d9	85 c0		 test	 eax, eax
  002db	0f 84 f9 00 00
	00		 je	 $LN160@ApplySkill

; 294  : 		{
; 295  : 			bApply = FALSE;	// ŔĎ´Ü FALSE·Î ĂĘ±âČ­
; 296  : 
; 297  : 			if( pObj->GetType() != OT_MOVER )

  002e1	8b 86 70 01 00
	00		 mov	 eax, DWORD PTR [esi+368]
  002e7	83 f8 05	 cmp	 eax, 5
  002ea	74 0e		 je	 SHORT $LN41@ApplySkill

; 298  : 				Error( "ApplySkillRegion : pObj°ˇ MOVER°ˇ ľĆ´Ď´Ů %d", pObj->GetType() );

  002ec	50		 push	 eax
  002ed	68 00 00 00 00	 push	 OFFSET ??_C@_0CM@KNCEEHAG@ApplySkillRegion?5?3?5pObj?$LA?$KB?5MOVER@
  002f2	e8 00 00 00 00	 call	 ?Error@@YAPBDPBDZZ	; Error
  002f7	83 c4 08	 add	 esp, 8
$LN41@ApplySkill:

; 299  : 
; 300  : 			if( pSrc->GetType() == OT_MOVER )		// °ř°ÝŔÚ°ˇ ą«ąöłÄ.

  002fa	83 bb 70 01 00
	00 05		 cmp	 DWORD PTR [ebx+368], 5
  00301	75 66		 jne	 SHORT $LN158@ApplySkill

; 301  : 			{
; 302  : 				CMover *pAttacker = (CMover *)pSrc;
; 303  : 				if( pAttacker->IsPlayer() )			// °ř°ÝŔÚ°ˇ ÇĂ·ąŔĚľîłÄ

  00303	83 bb 30 02 00
	00 00		 cmp	 DWORD PTR [ebx+560], 0
  0030a	bf 01 00 00 00	 mov	 edi, 1
  0030f	74 54		 je	 SHORT $LN45@ApplySkill

; 304  : 				{
; 305  : 					bApply = TRUE;
; 306  : #if __VER >= 8 // __S8_PK
; 307  : 					CMover *pDefender = (CMover *)pObj;
; 308  : 					if( pDefender->IsPlayer() )

  00311	83 be 30 02 00
	00 00		 cmp	 DWORD PTR [esi+560], 0
  00318	74 4b		 je	 SHORT $LN45@ApplySkill

; 309  : 					{
; 310  : 						if( pCenter )

  0031a	8b 4d 20	 mov	 ecx, DWORD PTR _pCenter$[ebp]
  0031d	33 c0		 xor	 eax, eax
  0031f	85 c9		 test	 ecx, ecx
  00321	74 05		 je	 SHORT $LN47@ApplySkill

; 311  : 							bTarget = (pCenter == pDefender);

  00323	3b ce		 cmp	 ecx, esi
  00325	0f 94 c0	 sete	 al
$LN47@ApplySkill:

; 312  : 						else
; 313  : 							bTarget = FALSE;
; 314  : 
; 315  : 						if( bControl == FALSE && pAttacker->GetHitType( pDefender, bTarget, FALSE ) == HITTYPE_PK )

  00328	83 7d 24 00	 cmp	 DWORD PTR _bControl$[ebp], 0
  0032c	89 45 e4	 mov	 DWORD PTR _bTarget$1$[ebp], eax
  0032f	75 10		 jne	 SHORT $LN49@ApplySkill
  00331	6a 00		 push	 0
  00333	50		 push	 eax
  00334	56		 push	 esi
  00335	8b cb		 mov	 ecx, ebx
  00337	e8 00 00 00 00	 call	 ?GetHitType@CMover@@QAE?AW4HITTYPE@@PAV1@HH@Z ; CMover::GetHitType
  0033c	83 f8 05	 cmp	 eax, 5
  0033f	74 22		 je	 SHORT $LN213@ApplySkill
$LN49@ApplySkill:

; 316  : 							bApply = FALSE;
; 317  : //	#ifdef	__JHMA_VER_8_5_2			 // 8.5Â÷ µŕľóÁßŔÎ µÎ±¸·ěŔĚ ż¬°üµÇÁöľĘ°Ô ĽöÁ¤  World
; 318  : 						else if( pAttacker->m_nDuel == 1 && pDefender->m_nDuel == 1 && pAttacker->GetHitType( pDefender, bTarget, FALSE ) != HITTYPE_PVP )

  00341	39 bb 3c 07 00
	00		 cmp	 DWORD PTR [ebx+1852], edi
  00347	75 1c		 jne	 SHORT $LN45@ApplySkill
  00349	39 be 3c 07 00
	00		 cmp	 DWORD PTR [esi+1852], edi
  0034f	75 14		 jne	 SHORT $LN45@ApplySkill
  00351	6a 00		 push	 0
  00353	ff 75 e4	 push	 DWORD PTR _bTarget$1$[ebp]
  00356	8b cb		 mov	 ecx, ebx
  00358	56		 push	 esi
  00359	e8 00 00 00 00	 call	 ?GetHitType@CMover@@QAE?AW4HITTYPE@@PAV1@HH@Z ; CMover::GetHitType
  0035e	83 f8 02	 cmp	 eax, 2
  00361	74 02		 je	 SHORT $LN45@ApplySkill
$LN213@ApplySkill:

; 319  : 							bApply = FALSE;
; 320  : //	#endif // __JHMA_VER_8_5_1	
; 321  : 					}
; 322  : #endif // __VER >= 8 // __S8_PK
; 323  : 				} else
; 324  : 				{	// °ř°ÝŔÚ°ˇ ¸ó˝şĹÍ¸é
; 325  : 					bApply = TRUE;		// 
; 326  : 				}
; 327  : 			} else
; 328  : 			{	// °ř°ÝŔÚ°ˇ ą«ąö°ˇ ľĆ´Ď´Ů.
; 329  : 				bApply = TRUE;
; 330  : 			}
; 331  : 
; 332  : 			if( bApply )

  00363	33 ff		 xor	 edi, edi
$LN45@ApplySkill:
  00365	85 ff		 test	 edi, edi
  00367	74 60		 je	 SHORT $LN57@ApplySkill
$LN158@ApplySkill:

; 333  : 			{
; 334  : 				if( pObj != pSrc )		// ľîĹÂÄż´Â °Ë»ö´ë»óżˇĽ­ Á¦żÜ.

  00369	3b f3		 cmp	 esi, ebx
  0036b	74 5c		 je	 SHORT $LN57@ApplySkill

; 335  : 				{
; 336  : 					if( pObj->IsRangeObj( vPos, fRange ) )	// vCenter + fRangeżÍ pObjŔÇ ˝şÇÇľî°ˇ ĂćµąÇß´ŔłÄ

  0036d	f3 0f 10 45 f8	 movss	 xmm0, DWORD PTR _fRange$1$[ebp]
  00372	51		 push	 ecx
  00373	f3 0f 11 04 24	 movss	 DWORD PTR [esp], xmm0
  00378	8b ce		 mov	 ecx, esi
  0037a	ff 75 08	 push	 DWORD PTR _vPos$[ebp]
  0037d	e8 00 00 00 00	 call	 ?IsRangeObj@CObj@@QAEHABUD3DXVECTOR3@@M@Z ; CObj::IsRangeObj
  00382	85 c0		 test	 eax, eax
  00384	74 43		 je	 SHORT $LN57@ApplySkill

; 337  : 					{
; 338  : 						CMover *pTarget = (CMover *)pObj;		// <- ż©±ä ą«Á¶°Ç pObj´Â ÇĂ·ąŔĚľîąÇ·Î ÇŘµµµĘ.
; 339  : 					
; 340  : 						if( pCenter )

  00386	8b 45 20	 mov	 eax, DWORD PTR _pCenter$[ebp]
  00389	33 c9		 xor	 ecx, ecx
  0038b	85 c0		 test	 eax, eax
  0038d	74 05		 je	 SHORT $LN56@ApplySkill

; 341  : 							bTarget = (pCenter == pTarget);

  0038f	3b c6		 cmp	 eax, esi
  00391	0f 94 c1	 sete	 cl
$LN56@ApplySkill:
; File C:\IAGOS\server\v18\Source\Source\_Common\Obj.h

; 180  : 	BOOL			IsDelete()	{ return (m_dwFlags & OBJ_FLAG_DELETE);  }

  00394	f6 46 04 01	 test	 BYTE PTR [esi+4], 1

; 327  : 	return pObj && ( pObj->IsDelete() == FALSE ); 

  00398	75 2f		 jne	 SHORT $LN57@ApplySkill
; File C:\IAGOS\server\v18\Source\Source\_Common\Mover.h

; 1251 : 	BOOL			IsLive() { return m_pActMover->IsDie() == FALSE || m_nHitPoint > 0; }		// && ¸¦  ||·Î ąŮ˛ĺŔ˝.  !=¸¦ >·Î ąŮ˛Ţ

  0039a	8b 86 38 02 00
	00		 mov	 eax, DWORD PTR [esi+568]
  003a0	f7 40 04 00 00
	00 08		 test	 DWORD PTR [eax+4], 134217728 ; 08000000H
  003a7	74 09		 je	 SHORT $LN156@ApplySkill
  003a9	83 be f8 05 00
	00 00		 cmp	 DWORD PTR [esi+1528], 0
  003b0	7e 17		 jle	 SHORT $LN57@ApplySkill
$LN156@ApplySkill:
; File C:\IAGOS\server\v18\Source\Source\_Common\ctrl.cpp

; 347  : 							pTarget->ApplySkill( pSrc, pSkillProp, pAddSkillProp, bIgnoreProb, 0, bOnlyDmg, bTarget );		// ´ë»óżˇ°Ô Čż°ú¸¦ ŔűżëÇÔ.

  003b2	51		 push	 ecx
  003b3	ff 75 1c	 push	 DWORD PTR _bOnlyDmg$[ebp]
  003b6	8b ce		 mov	 ecx, esi
  003b8	6a 00		 push	 0
  003ba	ff 75 18	 push	 DWORD PTR _bIgnoreProb$[ebp]
  003bd	ff 75 14	 push	 DWORD PTR _pAddSkillProp$[ebp]
  003c0	ff 75 10	 push	 DWORD PTR _pSkillProp$[ebp]
  003c3	53		 push	 ebx
  003c4	e8 00 00 00 00	 call	 ?ApplySkill@CCtrl@@QAEXPAV1@PAUItemProp@@PAUAddSkillProp@@_NHHH@Z ; CCtrl::ApplySkill
$LN57@ApplySkill:

; 348  : 						}
; 349  : 					}
; 350  : 				}
; 351  : 				
; 352  : 				bApply = FALSE;	// ´ŮŔ˝ ·çÇÁ¸¦ Ŕ§ÇŘĽ­ ĂĘ±âČ­.
; 353  : 			} // bApply
; 354  : 		}
; 355  : 		END_LINKMAP

  003c9	8b b6 80 01 00
	00		 mov	 esi, DWORD PTR [esi+384]
  003cf	8b 4d b0	 mov	 ecx, DWORD PTR ___limit$1$[ebp]
  003d2	85 f6		 test	 esi, esi
  003d4	0f 85 f9 fe ff
	ff		 jne	 $LL11@ApplySkill
$LN160@ApplySkill:
  003da	8b 55 e0	 mov	 edx, DWORD PTR tv1761[ebp]
  003dd	8b 7d dc	 mov	 edi, DWORD PTR tv1826[ebp]
$LN8@ApplySkill:

; 293  : 		FOR_LINKMAP( GetWorld(), vPos, pObj, nRange, CObj::linkPlayer, GetLayer() )

  003e0	83 c2 04	 add	 edx, 4
  003e3	83 ef 01	 sub	 edi, 1
  003e6	89 55 e0	 mov	 DWORD PTR tv1761[ebp], edx
  003e9	89 7d dc	 mov	 DWORD PTR tv1826[ebp], edi
  003ec	0f 85 cf fe ff
	ff		 jne	 $LL10@ApplySkill
  003f2	8b 55 d0	 mov	 edx, DWORD PTR __j$1$[ebp]
  003f5	8b 45 cc	 mov	 eax, DWORD PTR $T1[ebp]
  003f8	8b 4d d8	 mov	 ecx, DWORD PTR __k$1$[ebp]
  003fb	8b 75 ac	 mov	 esi, DWORD PTR tv1773[ebp]
  003fe	8b 5d f4	 mov	 ebx, DWORD PTR __nMaxWidth$1$[ebp]
  00401	8b 7d d4	 mov	 edi, DWORD PTR tv1838[ebp]
$LN5@ApplySkill:
  00404	42		 inc	 edx
  00405	03 c3		 add	 eax, ebx
  00407	89 55 d0	 mov	 DWORD PTR __j$1$[ebp], edx
  0040a	89 45 cc	 mov	 DWORD PTR $T1[ebp], eax
  0040d	3b d7		 cmp	 edx, edi
  0040f	0f 8e 93 fe ff
	ff		 jle	 $LL7@ApplySkill
$LN2@ApplySkill:
; File C:\IAGOS\server\v18\Source\Source\_Common\Obj.h

; 221  : 	CWorld*			GetWorld()	{ return m_pWorld; }

  00415	8b 5d fc	 mov	 ebx, DWORD PTR _this$1$[ebp]
; File C:\IAGOS\server\v18\Source\Source\_Common\ctrl.cpp

; 293  : 		FOR_LINKMAP( GetWorld(), vPos, pObj, nRange, CObj::linkPlayer, GetLayer() )

  00418	8b 7d c8	 mov	 edi, DWORD PTR __i$1$[ebp]
  0041b	47		 inc	 edi
  0041c	89 7d c8	 mov	 DWORD PTR __i$1$[ebp], edi
  0041f	ff b3 b8 01 00
	00		 push	 DWORD PTR [ebx+440]
; File C:\IAGOS\server\v18\Source\Source\_Common\Obj.h

; 221  : 	CWorld*			GetWorld()	{ return m_pWorld; }

  00425	8b 8b 6c 01 00
	00		 mov	 ecx, DWORD PTR [ebx+364]
; File C:\IAGOS\server\v18\Source\Source\_Common\ctrl.cpp

; 293  : 		FOR_LINKMAP( GetWorld(), vPos, pObj, nRange, CObj::linkPlayer, GetLayer() )

  0042b	6a 02		 push	 2
  0042d	83 c1 24	 add	 ecx, 36			; 00000024H
  00430	e8 00 00 00 00	 call	 ?GetMaxLinkLevel@CLayeredLinkMap@@QAEHKH@Z ; CLayeredLinkMap::GetMaxLinkLevel
  00435	3b f8		 cmp	 edi, eax
  00437	0f 8c 53 fd ff
	ff		 jl	 $LL4@ApplySkill

; 286  : 
; 287  : 	BOOL	bApply = FALSE;
; 288  : 	BOOL	bTarget = TRUE;
; 289  : 
; 290  : 	//------------ Ŕűżë´ë»óŔĚ ÇĂ·ąŔĚľîŔÎ°ˇ 
; 291  : 	if( nApplyType & OBJTYPE_PLAYER )	

  0043d	8b 75 08	 mov	 esi, DWORD PTR _vPos$[ebp]
$LN3@ApplySkill:

; 356  : 	} // OBJTYPE_PLAYER
; 357  : 
; 358  : 	// Ŕűżë´ë»óŔĚ ¸ó˝şĹÍ/ÄÁĆ®·Ń ŔÎ°ˇ.
; 359  : 	if( nApplyType & (OBJTYPE_MONSTER | OBJTYPE_CTRL) )

  00440	f6 45 0c 06	 test	 BYTE PTR _nApplyType$[ebp], 6
  00444	0f 84 27 03 00
	00		 je	 $LN14@ApplySkill

; 361  : 		FOR_LINKMAP( GetWorld(), vPos, pObj, nRange, CObj::linkDynamic, GetLayer() )	// linkDynamicŔ» ľ´´Ů

  0044a	8b 8b 6c 01 00
	00		 mov	 ecx, DWORD PTR [ebx+364]
  00450	33 ff		 xor	 edi, edi
  00452	f3 0f 10 06	 movss	 xmm0, DWORD PTR [esi]
  00456	ff b3 b8 01 00
	00		 push	 DWORD PTR [ebx+440]
  0045c	89 7d dc	 mov	 DWORD PTR __i$1$[ebp], edi
  0045f	66 0f 6e 49 14	 movd	 xmm1, DWORD PTR [ecx+20]
  00464	83 c1 24	 add	 ecx, 36			; 00000024H
  00467	0f 5b c9	 cvtdq2ps xmm1, xmm1
  0046a	6a 01		 push	 1
  0046c	f3 0f 5e c1	 divss	 xmm0, xmm1
  00470	f3 0f 2c c0	 cvttss2si eax, xmm0
  00474	f3 0f 10 46 08	 movss	 xmm0, DWORD PTR [esi+8]
  00479	f3 0f 5e c1	 divss	 xmm0, xmm1
  0047d	89 45 0c	 mov	 DWORD PTR __nLinkX$1$[ebp], eax
  00480	f3 0f 2c f0	 cvttss2si esi, xmm0
  00484	89 75 ac	 mov	 DWORD PTR __nLinkZ$1$[ebp], esi
  00487	e8 00 00 00 00	 call	 ?GetMaxLinkLevel@CLayeredLinkMap@@QAEHKH@Z ; CLayeredLinkMap::GetMaxLinkLevel
  0048c	85 c0		 test	 eax, eax
  0048e	0f 8e dd 02 00
	00		 jle	 $LN14@ApplySkill
  00494	8b 45 0c	 mov	 eax, DWORD PTR __nLinkX$1$[ebp]
  00497	8b c8		 mov	 ecx, eax
  00499	8b 55 f0	 mov	 edx, DWORD PTR _nRange$1$[ebp]
  0049c	2b ca		 sub	 ecx, edx
  0049e	89 4d b0	 mov	 DWORD PTR tv1790[ebp], ecx
  004a1	8b ce		 mov	 ecx, esi
  004a3	2b ca		 sub	 ecx, edx
  004a5	03 c2		 add	 eax, edx
  004a7	89 45 bc	 mov	 DWORD PTR tv1785[ebp], eax
  004aa	8d 04 16	 lea	 eax, DWORD PTR [esi+edx]
  004ad	89 4d b8	 mov	 DWORD PTR tv1787[ebp], ecx
  004b0	89 45 c0	 mov	 DWORD PTR tv1783[ebp], eax
$LL15@ApplySkill:
  004b3	ff b3 b8 01 00
	00		 push	 DWORD PTR [ebx+440]
  004b9	8b 8b 6c 01 00
	00		 mov	 ecx, DWORD PTR [ebx+364]
  004bf	57		 push	 edi
  004c0	6a 01		 push	 1
  004c2	83 c1 24	 add	 ecx, 36			; 00000024H
  004c5	e8 00 00 00 00	 call	 ?GetLinkWidth@CLayeredLinkMap@@QAEHKHH@Z ; CLayeredLinkMap::GetLinkWidth
  004ca	ff b3 b8 01 00
	00		 push	 DWORD PTR [ebx+440]
  004d0	8b 8b 6c 01 00
	00		 mov	 ecx, DWORD PTR [ebx+364]
  004d6	8b f0		 mov	 esi, eax
  004d8	57		 push	 edi
  004d9	6a 01		 push	 1
  004db	83 c1 24	 add	 ecx, 36			; 00000024H
  004de	e8 00 00 00 00	 call	 ?GetObj@CLayeredLinkMap@@QAEPAPAVCObj@@KKH@Z ; CLayeredLinkMap::GetObj
  004e3	8b 8b 6c 01 00
	00		 mov	 ecx, DWORD PTR [ebx+364]
  004e9	89 45 e0	 mov	 DWORD PTR __pObjs$1$[ebp], eax
  004ec	8b 51 08	 mov	 edx, DWORD PTR [ecx+8]
  004ef	8b 41 04	 mov	 eax, DWORD PTR [ecx+4]
  004f2	8b d8		 mov	 ebx, eax
  004f4	c1 e0 07	 shl	 eax, 7
  004f7	0f af d6	 imul	 edx, esi
  004fa	0f af de	 imul	 ebx, esi
  004fd	8b 79 14	 mov	 edi, DWORD PTR [ecx+20]
  00500	8b 4d 0c	 mov	 ecx, DWORD PTR __nLinkX$1$[ebp]
  00503	89 55 c4	 mov	 DWORD PTR tv1767[ebp], edx
  00506	99		 cdq
  00507	f7 fb		 idiv	 ebx
  00509	89 5d 20	 mov	 DWORD PTR __nMaxWidth$1$[ebp], ebx
  0050c	8b d8		 mov	 ebx, eax
  0050e	8b c7		 mov	 eax, edi
  00510	0f af c3	 imul	 eax, ebx
  00513	89 5d 24	 mov	 DWORD PTR __nUnit$1$[ebp], ebx
  00516	99		 cdq
  00517	2b c2		 sub	 eax, edx
  00519	8b f0		 mov	 esi, eax
  0051b	8b c1		 mov	 eax, ecx
  0051d	99		 cdq
  0051e	f7 fb		 idiv	 ebx
  00520	8b 45 08	 mov	 eax, DWORD PTR _vPos$[ebp]
  00523	2b ca		 sub	 ecx, edx
  00525	d1 fe		 sar	 esi, 1
  00527	0f af cf	 imul	 ecx, edi
  0052a	f3 0f 2c 00	 cvttss2si eax, DWORD PTR [eax]
  0052e	2b c1		 sub	 eax, ecx
  00530	33 c9		 xor	 ecx, ecx
  00532	3b c6		 cmp	 eax, esi
  00534	0f 9f c1	 setg	 cl
  00537	89 4d b4	 mov	 DWORD PTR __nX$1$[ebp], ecx
  0053a	8b 4d ac	 mov	 ecx, DWORD PTR __nLinkZ$1$[ebp]
  0053d	8b c1		 mov	 eax, ecx
  0053f	99		 cdq
  00540	f7 fb		 idiv	 ebx
  00542	8b 45 08	 mov	 eax, DWORD PTR _vPos$[ebp]
  00545	33 db		 xor	 ebx, ebx
  00547	2b ca		 sub	 ecx, edx
  00549	0f af cf	 imul	 ecx, edi
  0054c	8b 7d 24	 mov	 edi, DWORD PTR __nUnit$1$[ebp]
  0054f	f3 0f 2c 40 08	 cvttss2si eax, DWORD PTR [eax+8]
  00554	2b c1		 sub	 eax, ecx
  00556	3b c6		 cmp	 eax, esi
  00558	8b 45 b0	 mov	 eax, DWORD PTR tv1790[ebp]
  0055b	99		 cdq
  0055c	0f 9f c3	 setg	 bl
  0055f	33 c9		 xor	 ecx, ecx
  00561	f7 ff		 idiv	 edi
  00563	48		 dec	 eax
  00564	03 45 b4	 add	 eax, DWORD PTR __nX$1$[ebp]
  00567	0f 49 c8	 cmovns	 ecx, eax
  0056a	8b 45 b8	 mov	 eax, DWORD PTR tv1787[ebp]
  0056d	99		 cdq
  0056e	f7 ff		 idiv	 edi
  00570	89 4d cc	 mov	 DWORD PTR __k$1$[ebp], ecx
  00573	8d 48 ff	 lea	 ecx, DWORD PTR [eax-1]
  00576	8b 45 bc	 mov	 eax, DWORD PTR tv1785[ebp]
  00579	99		 cdq
  0057a	03 cb		 add	 ecx, ebx
  0057c	f7 ff		 idiv	 edi
  0057e	8b 55 20	 mov	 edx, DWORD PTR __nMaxWidth$1$[ebp]
  00581	03 45 b4	 add	 eax, DWORD PTR __nX$1$[ebp]
  00584	3b c2		 cmp	 eax, edx
  00586	8d 72 ff	 lea	 esi, DWORD PTR [edx-1]
  00589	0f 4c f0	 cmovl	 esi, eax
  0058c	8b 45 c0	 mov	 eax, DWORD PTR tv1783[ebp]
  0058f	99		 cdq
  00590	f7 ff		 idiv	 edi
  00592	8b 55 c4	 mov	 edx, DWORD PTR tv1767[ebp]
  00595	03 c3		 add	 eax, ebx
  00597	89 75 b4	 mov	 DWORD PTR tv1764[ebp], esi
  0059a	3b c2		 cmp	 eax, edx
  0059c	8d 5a ff	 lea	 ebx, DWORD PTR [edx-1]
  0059f	0f 4c d8	 cmovl	 ebx, eax
  005a2	33 d2		 xor	 edx, edx
  005a4	85 c9		 test	 ecx, ecx
  005a6	89 5d d0	 mov	 DWORD PTR tv1840[ebp], ebx
  005a9	0f 49 d1	 cmovns	 edx, ecx
  005ac	89 55 d4	 mov	 DWORD PTR __j$1$[ebp], edx
  005af	3b d3		 cmp	 edx, ebx
  005b1	0f 8f 92 01 00
	00		 jg	 $LN13@ApplySkill
  005b7	8b 4d 20	 mov	 ecx, DWORD PTR __nMaxWidth$1$[ebp]
  005ba	8b c2		 mov	 eax, edx
  005bc	8b 5d cc	 mov	 ebx, DWORD PTR __k$1$[ebp]
  005bf	8b 7d d0	 mov	 edi, DWORD PTR tv1840[ebp]
  005c2	0f af c1	 imul	 eax, ecx
  005c5	03 c3		 add	 eax, ebx
  005c7	89 45 d8	 mov	 DWORD PTR $T2[ebp], eax
  005ca	66 0f 1f 44 00
	00		 npad	 6
$LL18@ApplySkill:
  005d0	3b de		 cmp	 ebx, esi
  005d2	0f 8f 60 01 00
	00		 jg	 $LN16@ApplySkill
  005d8	8b 4d e0	 mov	 ecx, DWORD PTR __pObjs$1$[ebp]
  005db	8b d6		 mov	 edx, esi
  005dd	2b d3		 sub	 edx, ebx
  005df	42		 inc	 edx
  005e0	89 55 c8	 mov	 DWORD PTR tv1833[ebp], edx
  005e3	8d 0c 81	 lea	 ecx, DWORD PTR [ecx+eax*4]
  005e6	89 4d 24	 mov	 DWORD PTR tv1753[ebp], ecx
  005e9	0f 1f 80 00 00
	00 00		 npad	 7
$LL21@ApplySkill:
  005f0	8b 31		 mov	 esi, DWORD PTR [ecx]
  005f2	bf e8 03 00 00	 mov	 edi, 1000		; 000003e8H
  005f7	85 f6		 test	 esi, esi
  005f9	0f 84 15 01 00
	00		 je	 $LN19@ApplySkill
  005ff	90		 npad	 1
$LL22@ApplySkill:
  00600	8b c7		 mov	 eax, edi
  00602	4f		 dec	 edi
  00603	85 c0		 test	 eax, eax
  00605	0f 84 03 01 00
	00		 je	 $LN161@ApplySkill

; 362  : 		{
; 363  : 			bApply = FALSE;
; 364  : 			if( pObj->GetType() == OT_MOVER )				// ´ë»óŔĚ ą«ąö¸é.

  0060b	8b 86 70 01 00
	00		 mov	 eax, DWORD PTR [esi+368]
  00611	83 f8 05	 cmp	 eax, 5
  00614	0f 85 77 00 00
	00		 jne	 $LN63@ApplySkill

; 371  : 				if( pAttacker->IsPlayer() && pAttacker->IsChaotic() == FALSE && pTarget->GetProp()->dwClass == RANK_GUARD )

  0061a	8b 45 fc	 mov	 eax, DWORD PTR _this$1$[ebp]
  0061d	33 db		 xor	 ebx, ebx
  0061f	83 be 64 06 00
	00 01		 cmp	 DWORD PTR [esi+1636], 1
  00626	0f 95 c3	 setne	 bl
  00629	83 b8 30 02 00
	00 00		 cmp	 DWORD PTR [eax+560], 0
  00630	8b cb		 mov	 ecx, ebx
  00632	74 57		 je	 SHORT $LN66@ApplySkill
; File C:\IAGOS\server\v18\Source\Source\_Common\Mover.h

; 1257 : 	BOOL			IsChaotic( void ) { return m_dwPKPropensity > 0; }	/// Ä«żŔŔÎÁö

  00634	83 b8 58 07 00
	00 00		 cmp	 DWORD PTR [eax+1880], 0
; File C:\IAGOS\server\v18\Source\Source\_Common\ctrl.cpp

; 371  : 				if( pAttacker->IsPlayer() && pAttacker->IsChaotic() == FALSE && pTarget->GetProp()->dwClass == RANK_GUARD )

  0063b	77 4e		 ja	 SHORT $LN66@ApplySkill
; File C:\IAGOS\server\v18\Source\Source\_Common\Mover.h

; 1020 : 	MoverProp*		GetProp() { return prj.GetMoverProp( m_dwIndex ); }	// °´ĂĽŔÇ ÇÁ·ÎĆŰĆĽ ľň±â 	

  0063d	8b 8e 74 01 00
	00		 mov	 ecx, DWORD PTR [esi+372]
; File C:\IAGOS\server\v18\Source\Source\_Common\Project.h

; 1406 : 	VERIFY_RANGE( nIndex, 0, m_nMoverPropSize, "GetMoverProp range_error", NULL );

  00643	85 c9		 test	 ecx, ecx
  00645	78 16		 js	 SHORT $LN87@ApplySkill
  00647	3b 0d b4 01 00
	00		 cmp	 ecx, DWORD PTR ?prj@@3VCProject@@A+436
  0064d	7d 0e		 jge	 SHORT $LN87@ApplySkill

; 1407 : 	return m_pPropMover + nIndex;

  0064f	69 d1 90 06 00
	00		 imul	 edx, ecx, 1680
  00655	03 15 b8 01 00
	00		 add	 edx, DWORD PTR ?prj@@3VCProject@@A+440
  0065b	eb 20		 jmp	 SHORT $LN82@ApplySkill
$LN87@ApplySkill:

; 579  : 	LPCTSTR szErr = Error( _T( "%s min:%d, max:%d, index:%d" ), szMsg, nMin, nMax, nIndex ); 

  0065d	51		 push	 ecx
  0065e	ff 35 b4 01 00
	00		 push	 DWORD PTR ?prj@@3VCProject@@A+436
  00664	6a 00		 push	 0
  00666	68 00 00 00 00	 push	 OFFSET ??_C@_0BJ@GKPOBPPI@GetMoverProp?5range_error@
  0066b	68 00 00 00 00	 push	 OFFSET ??_C@_0BM@HMFGHCP@?$CFs?5min?3?$CFd?0?5max?3?$CFd?0?5index?3?$CFd@
  00670	e8 00 00 00 00	 call	 ?Error@@YAPBDPBDZZ	; Error
  00675	8b 45 fc	 mov	 eax, DWORD PTR _this$1$[ebp]
  00678	83 c4 14	 add	 esp, 20			; 00000014H

; 1406 : 	VERIFY_RANGE( nIndex, 0, m_nMoverPropSize, "GetMoverProp range_error", NULL );

  0067b	33 d2		 xor	 edx, edx
$LN82@ApplySkill:
; File C:\IAGOS\server\v18\Source\Source\_Common\ctrl.cpp

; 371  : 				if( pAttacker->IsPlayer() && pAttacker->IsChaotic() == FALSE && pTarget->GetProp()->dwClass == RANK_GUARD )

  0067d	8b cb		 mov	 ecx, ebx
  0067f	33 db		 xor	 ebx, ebx
  00681	83 ba 94 00 00
	00 08		 cmp	 DWORD PTR [edx+148], 8
  00688	0f 44 cb	 cmove	 ecx, ebx
$LN66@ApplySkill:

; 379  : 					bApply = TRUE;							
; 380  : 			}
; 381  : 
; 382  : 			if( bApply )

  0068b	85 c9		 test	 ecx, ecx
  0068d	74 71		 je	 SHORT $LN159@ApplySkill
  0068f	eb 11		 jmp	 SHORT $LN155@ApplySkill
$LN63@ApplySkill:

; 372  : 					bApply = FALSE;
; 373  : #endif //	#endif // __JHMA_VER_8_5_1			 // 8.5Â÷ °ćşńş´ ąüŔ§˝şĹł °ř°ÝČż°ú şŇ°ˇ·Î ĽöÁ¤ World
; 374  : 			} else
; 375  : 			// ´ë»óŔĚ ÄÁĆ®·ŃŔĚ¸é.
; 376  : 			if( pObj->GetType() == OT_CTRL )

  00691	83 f8 02	 cmp	 eax, 2
  00694	75 6a		 jne	 SHORT $LN159@ApplySkill

; 377  : 			{
; 378  : 				if( pSrc->GetType() == OT_MOVER )			// °ř°ÝŔÚ°ˇ ą«ąöŔĎ¶§¸¸ Ŕűżë. ÄÁĆ®·ŃŔĚ ÄÁĆ®·Ńżˇ°Ô żµÇâŔ» ÁŮĽř ľř´Ů.

  00696	8b 45 fc	 mov	 eax, DWORD PTR _this$1$[ebp]
  00699	83 b8 70 01 00
	00 05		 cmp	 DWORD PTR [eax+368], 5
  006a0	75 5e		 jne	 SHORT $LN159@ApplySkill
$LN155@ApplySkill:

; 383  : 			{
; 384  : 				if( pObj != pSrc )		// °ř°ÝŔÚ´Â °Ë»ç´ë»óżˇĽ­ Á¦żÜ.

  006a2	3b f0		 cmp	 esi, eax
  006a4	74 5a		 je	 SHORT $LN159@ApplySkill

; 385  : 				{
; 386  : 					if( pObj->IsRangeObj( vPos, fRange ) )	// vCenter + fRangeżÍ pObjŔÇ ˝şÇÇľî°ˇ ĂćµąÇß´ŔłÄ

  006a6	f3 0f 10 45 f8	 movss	 xmm0, DWORD PTR _fRange$1$[ebp]
  006ab	51		 push	 ecx
  006ac	f3 0f 11 04 24	 movss	 DWORD PTR [esp], xmm0
  006b1	8b ce		 mov	 ecx, esi
  006b3	ff 75 08	 push	 DWORD PTR _vPos$[ebp]
  006b6	e8 00 00 00 00	 call	 ?IsRangeObj@CObj@@QAEHABUD3DXVECTOR3@@M@Z ; CObj::IsRangeObj
  006bb	85 c0		 test	 eax, eax
  006bd	74 41		 je	 SHORT $LN159@ApplySkill

; 387  : 					{
; 388  : 						if( pObj->GetType() == OT_MOVER )	// Ĺ¸°ŮŔĚ ą«ąöłÄ?

  006bf	83 be 70 01 00
	00 05		 cmp	 DWORD PTR [esi+368], 5
  006c6	75 1e		 jne	 SHORT $LN72@ApplySkill
; File C:\IAGOS\server\v18\Source\Source\_Common\Obj.h

; 180  : 	BOOL			IsDelete()	{ return (m_dwFlags & OBJ_FLAG_DELETE);  }

  006c8	f6 46 04 01	 test	 BYTE PTR [esi+4], 1

; 327  : 	return pObj && ( pObj->IsDelete() == FALSE ); 

  006cc	75 32		 jne	 SHORT $LN159@ApplySkill
; File C:\IAGOS\server\v18\Source\Source\_Common\Mover.h

; 1251 : 	BOOL			IsLive() { return m_pActMover->IsDie() == FALSE || m_nHitPoint > 0; }		// && ¸¦  ||·Î ąŮ˛ĺŔ˝.  !=¸¦ >·Î ąŮ˛Ţ

  006ce	8b 86 38 02 00
	00		 mov	 eax, DWORD PTR [esi+568]
  006d4	f7 40 04 00 00
	00 08		 test	 DWORD PTR [eax+4], 134217728 ; 08000000H
  006db	74 09		 je	 SHORT $LN72@ApplySkill
  006dd	83 be f8 05 00
	00 00		 cmp	 DWORD PTR [esi+1528], 0
  006e4	7e 1a		 jle	 SHORT $LN159@ApplySkill
$LN72@ApplySkill:
; File C:\IAGOS\server\v18\Source\Source\_Common\ctrl.cpp

; 395  : 							((CCtrl*)pObj)->ApplySkill( pSrc, pSkillProp, pAddSkillProp, bIgnoreProb, 0, bOnlyDmg );		// ´ë»óżˇ°Ô Čż°ú¸¦ ŔűżëÇÔ.

  006e6	6a 01		 push	 1
  006e8	ff 75 1c	 push	 DWORD PTR _bOnlyDmg$[ebp]
  006eb	8b ce		 mov	 ecx, esi
  006ed	6a 00		 push	 0
  006ef	ff 75 18	 push	 DWORD PTR _bIgnoreProb$[ebp]
  006f2	ff 75 14	 push	 DWORD PTR _pAddSkillProp$[ebp]
  006f5	ff 75 10	 push	 DWORD PTR _pSkillProp$[ebp]
  006f8	ff 75 fc	 push	 DWORD PTR _this$1$[ebp]
  006fb	e8 00 00 00 00	 call	 ?ApplySkill@CCtrl@@QAEXPAV1@PAUItemProp@@PAUAddSkillProp@@_NHHH@Z ; CCtrl::ApplySkill
$LN159@ApplySkill:

; 396  : 						}
; 397  : 					}
; 398  : 				}
; 399  : 			} // bApply
; 400  : 		}
; 401  : 		END_LINKMAP

  00700	8b b6 80 01 00
	00		 mov	 esi, DWORD PTR [esi+384]
  00706	85 f6		 test	 esi, esi
  00708	0f 85 f2 fe ff
	ff		 jne	 $LL22@ApplySkill
$LN161@ApplySkill:
  0070e	8b 4d 24	 mov	 ecx, DWORD PTR tv1753[ebp]
  00711	8b 55 c8	 mov	 edx, DWORD PTR tv1833[ebp]
$LN19@ApplySkill:

; 361  : 		FOR_LINKMAP( GetWorld(), vPos, pObj, nRange, CObj::linkDynamic, GetLayer() )	// linkDynamicŔ» ľ´´Ů

  00714	83 c1 04	 add	 ecx, 4
  00717	83 ea 01	 sub	 edx, 1
  0071a	89 4d 24	 mov	 DWORD PTR tv1753[ebp], ecx
  0071d	89 55 c8	 mov	 DWORD PTR tv1833[ebp], edx
  00720	0f 85 ca fe ff
	ff		 jne	 $LL21@ApplySkill
  00726	8b 55 d4	 mov	 edx, DWORD PTR __j$1$[ebp]
  00729	8b 45 d8	 mov	 eax, DWORD PTR $T2[ebp]
  0072c	8b 5d cc	 mov	 ebx, DWORD PTR __k$1$[ebp]
  0072f	8b 75 b4	 mov	 esi, DWORD PTR tv1764[ebp]
  00732	8b 4d 20	 mov	 ecx, DWORD PTR __nMaxWidth$1$[ebp]
  00735	8b 7d d0	 mov	 edi, DWORD PTR tv1840[ebp]
$LN16@ApplySkill:
  00738	42		 inc	 edx
  00739	03 c1		 add	 eax, ecx
  0073b	89 55 d4	 mov	 DWORD PTR __j$1$[ebp], edx
  0073e	89 45 d8	 mov	 DWORD PTR $T2[ebp], eax
  00741	3b d7		 cmp	 edx, edi
  00743	0f 8e 87 fe ff
	ff		 jle	 $LL18@ApplySkill
$LN13@ApplySkill:
; File C:\IAGOS\server\v18\Source\Source\_Common\Obj.h

; 221  : 	CWorld*			GetWorld()	{ return m_pWorld; }

  00749	8b 5d fc	 mov	 ebx, DWORD PTR _this$1$[ebp]
; File C:\IAGOS\server\v18\Source\Source\_Common\ctrl.cpp

; 361  : 		FOR_LINKMAP( GetWorld(), vPos, pObj, nRange, CObj::linkDynamic, GetLayer() )	// linkDynamicŔ» ľ´´Ů

  0074c	8b 7d dc	 mov	 edi, DWORD PTR __i$1$[ebp]
  0074f	47		 inc	 edi
  00750	89 7d dc	 mov	 DWORD PTR __i$1$[ebp], edi
  00753	ff b3 b8 01 00
	00		 push	 DWORD PTR [ebx+440]
; File C:\IAGOS\server\v18\Source\Source\_Common\Obj.h

; 221  : 	CWorld*			GetWorld()	{ return m_pWorld; }

  00759	8b 8b 6c 01 00
	00		 mov	 ecx, DWORD PTR [ebx+364]
; File C:\IAGOS\server\v18\Source\Source\_Common\ctrl.cpp

; 361  : 		FOR_LINKMAP( GetWorld(), vPos, pObj, nRange, CObj::linkDynamic, GetLayer() )	// linkDynamicŔ» ľ´´Ů

  0075f	6a 01		 push	 1
  00761	83 c1 24	 add	 ecx, 36			; 00000024H
  00764	e8 00 00 00 00	 call	 ?GetMaxLinkLevel@CLayeredLinkMap@@QAEHKH@Z ; CLayeredLinkMap::GetMaxLinkLevel
  00769	3b f8		 cmp	 edi, eax
  0076b	0f 8c 42 fd ff
	ff		 jl	 $LL15@ApplySkill
$LN14@ApplySkill:
  00771	5f		 pop	 edi

; 402  : 	}
; 403  : 		
; 404  : #endif // WORLDSERVER		
; 405  : } // ApplySkillRegion()

  00772	5e		 pop	 esi
  00773	5b		 pop	 ebx
  00774	8b e5		 mov	 esp, ebp
  00776	5d		 pop	 ebp
  00777	c2 20 00	 ret	 32			; 00000020H
?ApplySkillRegion@CCtrl@@QAEXABUD3DXVECTOR3@@HPAUItemProp@@PAUAddSkillProp@@_NHPAV1@H@Z ENDP ; CCtrl::ApplySkillRegion
_TEXT	ENDS
; Function compile flags: /Ogtp
; File C:\IAGOS\server\v18\Source\Source\_Common\ctrl.cpp
;	COMDAT ?DoApplySkill@CCtrl@@QAEHPAV1@PAUItemProp@@PAUAddSkillProp@@_NHHH@Z
_TEXT	SEGMENT
_pTarget$ = 8						; size = 4
_pSkillProp$ = 12					; size = 4
_pAddSkillProp$ = 16					; size = 4
_bIgnoreProb$ = 20					; size = 1
_nParam$ = 24						; size = 4
_bOnlyDmg$ = 28						; size = 4
_bControl$ = 32						; size = 4
?DoApplySkill@CCtrl@@QAEHPAV1@PAUItemProp@@PAUAddSkillProp@@_NHHH@Z PROC ; CCtrl::DoApplySkill, COMDAT
; _this$ = ecx

; 1550 : {

  00000	55		 push	 ebp
  00001	8b ec		 mov	 ebp, esp
  00003	53		 push	 ebx

; 1551 : #if __VER >= 8 // __S8_PK
; 1552 : 	int nResult = DoApplySkillEx( pTarget, pSkillProp, pAddSkillProp, bIgnoreProb, nParam, bOnlyDmg, bControl );

  00004	8b 5d 08	 mov	 ebx, DWORD PTR _pTarget$[ebp]
  00007	56		 push	 esi
  00008	57		 push	 edi
  00009	ff 75 20	 push	 DWORD PTR _bControl$[ebp]
  0000c	8b f9		 mov	 edi, ecx
  0000e	ff 75 1c	 push	 DWORD PTR _bOnlyDmg$[ebp]
  00011	ff 75 18	 push	 DWORD PTR _nParam$[ebp]
  00014	ff 75 14	 push	 DWORD PTR _bIgnoreProb$[ebp]
  00017	ff 75 10	 push	 DWORD PTR _pAddSkillProp$[ebp]
  0001a	ff 75 0c	 push	 DWORD PTR _pSkillProp$[ebp]
  0001d	53		 push	 ebx
  0001e	e8 00 00 00 00	 call	 ?DoApplySkillEx@CCtrl@@AAEHPAV1@PAUItemProp@@PAUAddSkillProp@@_NHHH@Z ; CCtrl::DoApplySkillEx
  00023	8b f0		 mov	 esi, eax

; 1553 : #else // __VER >= 8 // __S8_PK
; 1554 : 	int nResult = DoApplySkillEx( pTarget, pSkillProp, pAddSkillProp, bIgnoreProb, nParam, bOnlyDmg );
; 1555 : #endif // __VER >= 8 // __S8_PK
; 1556 : 	if( nResult == 1 )

  00025	83 fe 01	 cmp	 esi, 1
  00028	75 31		 jne	 SHORT $LN4@DoApplySki

; 1557 : 	{
; 1558 : 	#if defined(__WORLDSERVER)	
; 1559 : 		if( this != pTarget && GetType() == OT_MOVER && pTarget->GetType() == OT_MOVER )

  0002a	3b fb		 cmp	 edi, ebx
  0002c	74 2d		 je	 SHORT $LN4@DoApplySki
  0002e	83 bf 70 01 00
	00 05		 cmp	 DWORD PTR [edi+368], 5
  00035	75 24		 jne	 SHORT $LN4@DoApplySki
  00037	83 bb 70 01 00
	00 05		 cmp	 DWORD PTR [ebx+368], 5
  0003e	75 1b		 jne	 SHORT $LN4@DoApplySki

; 1560 : 		{
; 1561 : 			if( pSkillProp->nEvildoing < 0 )	// łŞ»Ű¸¶ąýŔ» ľ˛¸é °ř°Ý°ú °°´Ů°í °ŁÁÖÇŃ´Ů. 

  00040	8b 45 0c	 mov	 eax, DWORD PTR _pSkillProp$[ebp]
  00043	83 b8 04 02 00
	00 00		 cmp	 DWORD PTR [eax+516], 0
  0004a	7d 0d		 jge	 SHORT $LN6@DoApplySki

; 1562 : 				((CMover*)pTarget)->OnAttacked( (CMover*)this, 0, TRUE, 0 );	// TRUE´Â Ĺ¸°ŮŔĚ´Ů.

  0004c	6a 00		 push	 0
  0004e	56		 push	 esi
  0004f	6a 00		 push	 0
  00051	57		 push	 edi
  00052	8b cb		 mov	 ecx, ebx
  00054	e8 00 00 00 00	 call	 ?OnAttacked@CMover@@QAEXPAV1@HHH@Z ; CMover::OnAttacked
$LN6@DoApplySki:

; 1563 : 		}
; 1564 : 	#endif 
; 1565 : 	}
; 1566 : 
; 1567 : 	return nResult;
; 1568 : }

  00059	8b c6		 mov	 eax, esi
$LN4@DoApplySki:
  0005b	5f		 pop	 edi
  0005c	5e		 pop	 esi
  0005d	5b		 pop	 ebx
  0005e	5d		 pop	 ebp
  0005f	c2 1c 00	 ret	 28			; 0000001cH
?DoApplySkill@CCtrl@@QAEHPAV1@PAUItemProp@@PAUAddSkillProp@@_NHHH@Z ENDP ; CCtrl::DoApplySkill
_TEXT	ENDS
; Function compile flags: /Ogtp
; File C:\IAGOS\server\v18\Source\Source\_Common\ctrl.cpp
; File C:\IAGOS\server\v18\Source\Source\_Common\Mover.h
; File C:\IAGOS\server\v18\Source\Source\_Common\Project.h
; File C:\IAGOS\server\v18\Source\Source\_Common\Mover.h
; File C:\IAGOS\server\v18\Source\Source\_Common\Project.h
; File C:\IAGOS\server\v18\Source\Source\_Common\ctrl.cpp
; File C:\IAGOS\server\v18\Source\Source\_Common\World.h
; File C:\IAGOS\server\v18\Source\Source\_Common\ctrl.cpp
; File C:\IAGOS\server\v18\Source\Source\_Common\xUtil.h
; File C:\IAGOS\server\v18\Source\Source\_Common\ctrl.cpp
; File C:\IAGOS\server\v18\Source\Source\_Common\Obj.h
; File C:\IAGOS\server\v18\Source\Source\_Common\ctrl.cpp
; File C:\IAGOS\server\v18\Source\Source\_Common\Obj.h
; File C:\IAGOS\server\v18\Source\Source\_Common\ctrl.cpp
; File C:\IAGOS\server\v18\Source\Source\_Common\XUtil3D.h
; File C:\Program Files (x86)\Windows Kits\10\Include\10.0.26100.0\ucrt\corecrt_math.h
; File C:\IAGOS\server\v18\Source\Source\_Common\XUtil3D.h
; File C:\Program Files (x86)\Windows Kits\10\Include\10.0.26100.0\ucrt\corecrt_math.h
; File C:\IAGOS\server\v18\Source\Source\_Common\ctrl.cpp
; File C:\IAGOS\server\v18\Source\Source\_Common\XUtil3D.h
; File C:\IAGOS\server\v18\Source\Source\_Common\ctrl.cpp
; File C:\IAGOS\server\v18\Source\Source\_Common\Obj.h
; File C:\IAGOS\server\v18\Source\Source\_Common\ctrl.cpp
; File C:\IAGOS\server\v18\Source\Source\_Common\Obj.h
; File C:\IAGOS\server\v18\Source\Source\DX_SDK\d3dx9math.inl
; File C:\IAGOS\server\v18\Source\Source\_Common\Obj.h
; File C:\IAGOS\server\v18\Source\Source\DX_SDK\d3dx9math.inl
; File C:\IAGOS\server\v18\Source\Source\_Common\ctrl.cpp
; File C:\IAGOS\server\v18\Source\Source\DX_SDK\d3dx9math.inl
; File C:\IAGOS\server\v18\Source\Source\_Common\ctrl.cpp
; File C:\IAGOS\server\v18\Source\Source\DX_SDK\d3dx9math.inl
; File C:\IAGOS\server\v18\Source\Source\_Common\ctrl.cpp
; File C:\IAGOS\server\v18\Source\Source\DX_SDK\d3dx9math.inl
; File C:\IAGOS\server\v18\Source\Source\_Common\ctrl.cpp
; File C:\IAGOS\server\v18\Source\Source\DX_SDK\d3dx9math.inl
; File C:\IAGOS\server\v18\Source\Source\_Common\ctrl.cpp
; File C:\IAGOS\server\v18\Source\Source\_Common\Obj.h
; File C:\IAGOS\server\v18\Source\Source\_Common\ctrl.cpp
; File C:\IAGOS\server\v18\Source\Source\_Common\Obj.h
; File C:\IAGOS\server\v18\Source\Source\_Common\ctrl.cpp
; File C:\IAGOS\server\v18\Source\Source\_Common\Obj.h
; File C:\IAGOS\server\v18\Source\Source\_Common\ctrl.cpp
; File C:\IAGOS\server\v18\Source\Source\_Common\XUtil3D.h
; File C:\IAGOS\server\v18\Source\Source\_Common\ctrl.cpp
; File C:\Program Files (x86)\Windows Kits\10\Include\10.0.26100.0\ucrt\corecrt_math.h
; File C:\IAGOS\server\v18\Source\Source\_Common\XUtil3D.h
; File C:\Program Files (x86)\Windows Kits\10\Include\10.0.26100.0\ucrt\corecrt_math.h
; File C:\IAGOS\server\v18\Source\Source\_Common\XUtil3D.h
; File C:\Program Files (x86)\Windows Kits\10\Include\10.0.26100.0\ucrt\corecrt_math.h
; File C:\IAGOS\server\v18\Source\Source\_Common\XUtil3D.h
; File C:\IAGOS\server\v18\Source\Source\_Common\ctrl.cpp
; File C:\IAGOS\server\v18\Source\Source\_Common\XUtil3D.h
; File C:\IAGOS\server\v18\Source\Source\_Common\ctrl.cpp
;	COMDAT ?ApplySkill@CCtrl@@QAEXPAV1@PAUItemProp@@PAUAddSkillProp@@_NHHH@Z
_TEXT	SEGMENT
$T1 = -36						; size = 12
$T2 = -36						; size = 12
$T3 = -36						; size = 12
$T4 = -24						; size = 12
$T5 = -24						; size = 12
$T6 = -24						; size = 12
tv1482 = -12						; size = 8
tv1477 = -12						; size = 8
tv1507 = -8						; size = 4
tv1514 = -8						; size = 4
_this$1$ = -4						; size = 4
_nDamage$1$ = -4					; size = 4
_pSrc$ = 8						; size = 4
_pSkillProp$ = 12					; size = 4
_pAddSkillProp$ = 16					; size = 4
_fTotalLen$7 = 20					; size = 4
_fDest$8 = 20						; size = 4
_fSpeed$1$ = 20						; size = 4
_bIgnoreProb$ = 20					; size = 1
tv1593 = 20						; size = 4
_dwTime1$9 = 20						; size = 4
_fAngle$10 = 20						; size = 4
_nPlus$2$ = 20						; size = 4
_nParam$ = 24						; size = 4
tv1430 = 24						; size = 4
_nSkillTime$1$ = 24					; size = 4
_bOnlyDmg$ = 28						; size = 4
tv1431 = 28						; size = 4
_nLevel$1$ = 28						; size = 4
_fAngle$11 = 32						; size = 4
tv1432 = 32						; size = 4
_nProb$1$ = 32						; size = 4
_dwTime2$12 = 32					; size = 4
_bTarget$ = 32						; size = 4
?ApplySkill@CCtrl@@QAEXPAV1@PAUItemProp@@PAUAddSkillProp@@_NHHH@Z PROC ; CCtrl::ApplySkill, COMDAT
; _this$ = ecx

; 1050 : {

  00000	55		 push	 ebp
  00001	8b ec		 mov	 ebp, esp
  00003	83 ec 24	 sub	 esp, 36			; 00000024H
  00006	56		 push	 esi

; 1051 : #ifdef __PK_PVP_SKILL_REGION
; 1052 : 	if( pSrc->GetType() == OT_MOVER && GetType() == OT_MOVER )

  00007	8b 75 08	 mov	 esi, DWORD PTR _pSrc$[ebp]
  0000a	57		 push	 edi
  0000b	8b f9		 mov	 edi, ecx
  0000d	89 7d fc	 mov	 DWORD PTR _this$1$[ebp], edi
  00010	83 be 70 01 00
	00 05		 cmp	 DWORD PTR [esi+368], 5
  00017	0f 85 a0 00 00
	00		 jne	 $LN155@ApplySkill
  0001d	83 bf 70 01 00
	00 05		 cmp	 DWORD PTR [edi+368], 5
  00024	0f 85 93 00 00
	00		 jne	 $LN155@ApplySkill

; 1053 : 	{
; 1054 : 		if( ((CMover *)pSrc)->IsPlayer() && ((CMover *)this)->IsPlayer() && pSkillProp->dwSkillType != NULL_ID )

  0002a	83 be 30 02 00
	00 00		 cmp	 DWORD PTR [esi+560], 0
  00031	8b 75 0c	 mov	 esi, DWORD PTR _pSkillProp$[ebp]
  00034	0f 84 86 00 00
	00		 je	 $LN11@ApplySkill
  0003a	83 bf 30 02 00
	00 00		 cmp	 DWORD PTR [edi+560], 0
  00041	74 7d		 je	 SHORT $LN11@ApplySkill
  00043	83 be e8 01 00
	00 ff		 cmp	 DWORD PTR [esi+488], -1
  0004a	74 74		 je	 SHORT $LN11@ApplySkill

; 1055 : 		{
; 1056 : 			DWORD dwPKRegionAttr = ((CMover *)this)->GetPKPVPRegionAttr();

  0004c	e8 00 00 00 00	 call	 ?GetPKPVPRegionAttr@CMover@@QAEKXZ ; CMover::GetPKPVPRegionAttr

; 1057 : 			int nAttackerPK = ((CMover *)pSrc)->IsPKPVPInspectionBase( dwPKRegionAttr, FALSE );

  00051	8b 4d 08	 mov	 ecx, DWORD PTR _pSrc$[ebp]
  00054	8b f8		 mov	 edi, eax
  00056	6a 00		 push	 0
  00058	57		 push	 edi
  00059	e8 00 00 00 00	 call	 ?IsPKPVPInspectionBase@CMover@@QAEHKH@Z ; CMover::IsPKPVPInspectionBase

; 1058 : 			int nDefenDerPK = ((CMover *)this)->IsPKPVPInspectionBase( dwPKRegionAttr, FALSE );

  0005e	6a 00		 push	 0
  00060	57		 push	 edi
  00061	8b 7d fc	 mov	 edi, DWORD PTR _this$1$[ebp]
  00064	8b f0		 mov	 esi, eax
  00066	8b cf		 mov	 ecx, edi
  00068	e8 00 00 00 00	 call	 ?IsPKPVPInspectionBase@CMover@@QAEHKH@Z ; CMover::IsPKPVPInspectionBase

; 1059 : 			if( nAttackerPK == 1 || nDefenDerPK == 1 )

  0006d	83 fe 01	 cmp	 esi, 1
  00070	74 05		 je	 SHORT $LN9@ApplySkill
  00072	83 f8 01	 cmp	 eax, 1
  00075	75 46		 jne	 SHORT $LN155@ApplySkill
$LN9@ApplySkill:

; 1060 : 			{
; 1061 : 				if( pSkillProp->nEvildoing < 0 )

  00077	8b 75 0c	 mov	 esi, DWORD PTR _pSkillProp$[ebp]
  0007a	83 be 04 02 00
	00 00		 cmp	 DWORD PTR [esi+516], 0
  00081	7d 3d		 jge	 SHORT $LN11@ApplySkill

; 1062 : 				{
; 1063 : 					CMover* pAttacker = (CMover*)pSrc;
; 1064 : 					CMover* pDefender = (CMover*)this;
; 1065 : 					if( !(pAttacker->IsPVPTarget( pDefender ) || 

  00083	8b 4d 08	 mov	 ecx, DWORD PTR _pSrc$[ebp]
  00086	57		 push	 edi
  00087	e8 00 00 00 00	 call	 ?IsPVPTarget@CMover@@QAEHPAV1@@Z ; CMover::IsPVPTarget
  0008c	85 c0		 test	 eax, eax
  0008e	75 30		 jne	 SHORT $LN11@ApplySkill
  00090	8b 4d 08	 mov	 ecx, DWORD PTR _pSrc$[ebp]
  00093	57		 push	 edi
  00094	e8 00 00 00 00	 call	 ?IsWarTarget@CMover@@QAEHPAV1@@Z ; CMover::IsWarTarget
  00099	85 c0		 test	 eax, eax
  0009b	75 23		 jne	 SHORT $LN11@ApplySkill
  0009d	8b 4d 08	 mov	 ecx, DWORD PTR _pSrc$[ebp]
  000a0	57		 push	 edi
  000a1	e8 00 00 00 00	 call	 ?IsGuildCombatTarget@CMover@@QAEHPAV1@@Z ; CMover::IsGuildCombatTarget
  000a6	85 c0		 test	 eax, eax
  000a8	75 16		 jne	 SHORT $LN11@ApplySkill
  000aa	8b 4d 08	 mov	 ecx, DWORD PTR _pSrc$[ebp]
  000ad	57		 push	 edi
  000ae	e8 00 00 00 00	 call	 ?IsArenaTarget@CMover@@QAEHPAV1@@Z ; CMover::IsArenaTarget
  000b3	85 c0		 test	 eax, eax
  000b5	0f 84 93 07 00
	00		 je	 $LN83@ApplySkill

; 1066 : 						pAttacker->IsWarTarget( pDefender ) ||
; 1067 : 						pAttacker->IsGuildCombatTarget( pDefender )
; 1068 : #ifdef __JEFF_11_4
; 1069 : 						|| pAttacker->IsArenaTarget( pDefender )
; 1070 : #endif	// __JEFF_11_4
; 1071 : 						) )
; 1072 : 							return;
; 1073 : 					
; 1074 : 					//if( !((CMover *)pSrc)->IsPVPTarget((CMover *)this) )
; 1075 : 					//	return;
; 1076 : 				}
; 1077 : 			}
; 1078 : 		}
; 1079 : 	}
; 1080 : #endif // __PK_PVP_SKILL_REGION
; 1081 : 	// Ŕűżë°ˇ´ÉÇŃ ˝şĹłŔĚłÄ?
; 1082 : 	if( IsPossibleApplySkill( pSrc, pSkillProp, pAddSkillProp ) == FALSE )

  000bb	eb 03		 jmp	 SHORT $LN11@ApplySkill
$LN155@ApplySkill:
  000bd	8b 75 0c	 mov	 esi, DWORD PTR _pSkillProp$[ebp]
$LN11@ApplySkill:
  000c0	ff 75 10	 push	 DWORD PTR _pAddSkillProp$[ebp]
  000c3	8b cf		 mov	 ecx, edi
  000c5	56		 push	 esi
  000c6	ff 75 08	 push	 DWORD PTR _pSrc$[ebp]
  000c9	e8 00 00 00 00	 call	 ?IsPossibleApplySkill@CCtrl@@QAEHPAV1@PAUItemProp@@PAUAddSkillProp@@@Z ; CCtrl::IsPossibleApplySkill
  000ce	85 c0		 test	 eax, eax
  000d0	0f 84 78 07 00
	00		 je	 $LN83@ApplySkill

; 1083 : 		return;
; 1084 : 
; 1085 : 	// µĄąĚÁöĽÓĽşŔĚ ŔÖŔ»°ćżě ±×°ÍŔ» Ăł¸®.
; 1086 : 	int nDamage = ApplyDamage( pSrc, pSkillProp, pAddSkillProp, nParam, bTarget );

  000d6	ff 75 20	 push	 DWORD PTR _bTarget$[ebp]
  000d9	8b cf		 mov	 ecx, edi
  000db	ff 75 18	 push	 DWORD PTR _nParam$[ebp]
  000de	ff 75 10	 push	 DWORD PTR _pAddSkillProp$[ebp]
  000e1	56		 push	 esi
  000e2	ff 75 08	 push	 DWORD PTR _pSrc$[ebp]
  000e5	e8 00 00 00 00	 call	 ?ApplyDamage@CCtrl@@QAEHPAV1@PAUItemProp@@PAUAddSkillProp@@HH@Z ; CCtrl::ApplyDamage

; 1087 : 	if( bOnlyDmg == TRUE )		

  000ea	83 7d 1c 01	 cmp	 DWORD PTR _bOnlyDmg$[ebp], 1
  000ee	89 45 fc	 mov	 DWORD PTR _nDamage$1$[ebp], eax
  000f1	0f 84 57 07 00
	00		 je	 $LN83@ApplySkill

; 1088 : 		return;
; 1089 : 
; 1090 : #if __VER >= 10	// __AI_0711
; 1091 : 	// ÁŘş¸˝ş ¸ó˝şĹÍ´Â ¸đµç µđąöÇÁ ¸éżŞ
; 1092 : 	if( GetType() == OT_MOVER )

  000f7	83 bf 70 01 00
	00 05		 cmp	 DWORD PTR [edi+368], 5
  000fe	75 46		 jne	 SHORT $LN15@ApplySkill
; File C:\IAGOS\server\v18\Source\Source\_Common\Mover.h

; 1020 : 	MoverProp*		GetProp() { return prj.GetMoverProp( m_dwIndex ); }	// °´ĂĽŔÇ ÇÁ·ÎĆŰĆĽ ľň±â 	

  00100	8b 8f 74 01 00
	00		 mov	 ecx, DWORD PTR [edi+372]
; File C:\IAGOS\server\v18\Source\Source\_Common\Project.h

; 1406 : 	VERIFY_RANGE( nIndex, 0, m_nMoverPropSize, "GetMoverProp range_error", NULL );

  00106	a1 b4 01 00 00	 mov	 eax, DWORD PTR ?prj@@3VCProject@@A+436
  0010b	85 c9		 test	 ecx, ecx
  0010d	78 21		 js	 SHORT $LN146@ApplySkill
  0010f	3b c8		 cmp	 ecx, eax
  00111	7d 1d		 jge	 SHORT $LN146@ApplySkill

; 1407 : 	return m_pPropMover + nIndex;

  00113	69 c1 90 06 00
	00		 imul	 eax, ecx, 1680
  00119	03 05 b8 01 00
	00		 add	 eax, DWORD PTR ?prj@@3VCProject@@A+440
; File C:\IAGOS\server\v18\Source\Source\_Common\Mover.h

; 630  : 			return( pProp && pProp->dwClass == dwClass );

  0011f	74 25		 je	 SHORT $LN15@ApplySkill
  00121	83 b8 94 00 00
	00 05		 cmp	 DWORD PTR [eax+148], 5
  00128	0f 84 20 07 00
	00		 je	 $LN83@ApplySkill
  0012e	eb 16		 jmp	 SHORT $LN15@ApplySkill
$LN146@ApplySkill:
; File C:\IAGOS\server\v18\Source\Source\_Common\Project.h

; 579  : 	LPCTSTR szErr = Error( _T( "%s min:%d, max:%d, index:%d" ), szMsg, nMin, nMax, nIndex ); 

  00130	51		 push	 ecx
  00131	50		 push	 eax
  00132	6a 00		 push	 0
  00134	68 00 00 00 00	 push	 OFFSET ??_C@_0BJ@GKPOBPPI@GetMoverProp?5range_error@
  00139	68 00 00 00 00	 push	 OFFSET ??_C@_0BM@HMFGHCP@?$CFs?5min?3?$CFd?0?5max?3?$CFd?0?5index?3?$CFd@
  0013e	e8 00 00 00 00	 call	 ?Error@@YAPBDPBDZZ	; Error
  00143	83 c4 14	 add	 esp, 20			; 00000014H
$LN15@ApplySkill:
; File C:\IAGOS\server\v18\Source\Source\_Common\ctrl.cpp

; 1103 : 	if( this != pSrc && pSrc->GetType() == OT_MOVER && GetType() == OT_MOVER )		// ±¤żŞ µđąöÇÁ Áß Ĺ¸°ŮŔĚľĆ´Ď¸é skip

  00146	8b 45 08	 mov	 eax, DWORD PTR _pSrc$[ebp]
  00149	3b f8		 cmp	 edi, eax
  0014b	0f 84 c3 00 00
	00		 je	 $LN26@ApplySkill
  00151	83 b8 70 01 00
	00 05		 cmp	 DWORD PTR [eax+368], 5
  00158	0f 85 b6 00 00
	00		 jne	 $LN26@ApplySkill
  0015e	83 bf 70 01 00
	00 05		 cmp	 DWORD PTR [edi+368], 5
  00165	0f 85 a9 00 00
	00		 jne	 $LN26@ApplySkill

; 1104 : 	{
; 1105 : 		if( ((CMover *)this)->IsDie() == FALSE )

  0016b	8b cf		 mov	 ecx, edi
  0016d	e8 00 00 00 00	 call	 ?IsDie@CMover@@QAEHXZ	; CMover::IsDie
  00172	85 c0		 test	 eax, eax
  00174	75 52		 jne	 SHORT $LN17@ApplySkill

; 1106 : 		{
; 1107 : #if __VER >= 8 // __S8_PK
; 1108 : 			if( pSkillProp->nEvildoing < 0 )													// łŞ»Ű¸¶ąýŔş

  00176	39 86 04 02 00
	00		 cmp	 DWORD PTR [esi+516], eax
  0017c	7d 15		 jge	 SHORT $LN20@ApplySkill

; 1109 : 				if( ((CMover *)pSrc)->GetHitType2(((CMover *)this), bTarget, FALSE ) == HITTYPE_FAIL )  	// ĆňČ­ŔűŔÎ»ó´ëżˇ°Ô

  0017e	8b 4d 08	 mov	 ecx, DWORD PTR _pSrc$[ebp]
  00181	50		 push	 eax
  00182	ff 75 20	 push	 DWORD PTR _bTarget$[ebp]
  00185	57		 push	 edi
  00186	e8 00 00 00 00	 call	 ?GetHitType2@CMover@@QAE?AW4HITTYPE@@PAV1@HH@Z ; CMover::GetHitType2
  0018b	85 c0		 test	 eax, eax
  0018d	0f 84 bb 06 00
	00		 je	 $LN83@ApplySkill
$LN20@ApplySkill:

; 1110 : 					return;																			// ŔűżëľČµĘ
; 1111 : #ifdef __JEFF_11_4
; 1112 : 			CWorld* pWorld	= pSrc->GetWorld();

  00193	8b 45 08	 mov	 eax, DWORD PTR _pSrc$[ebp]
  00196	8b 88 6c 01 00
	00		 mov	 ecx, DWORD PTR [eax+364]

; 1113 : 			if(  pWorld && pWorld->IsArena() == FALSE )		// ľĆ·ąłŞ°ˇ ľĆ´Ď¸é,

  0019c	85 c9		 test	 ecx, ecx
  0019e	74 74		 je	 SHORT $LN26@ApplySkill
; File C:\IAGOS\server\v18\Source\Source\_Common\World.h

; 415  : 		{	return( m_dwWorldID == WI_WORLD_ARENA );	}

  001a0	81 39 d0 00 00
	00		 cmp	 DWORD PTR [ecx], 208	; 000000d0H
; File C:\IAGOS\server\v18\Source\Source\_Common\ctrl.cpp

; 1113 : 			if(  pWorld && pWorld->IsArena() == FALSE )		// ľĆ·ąłŞ°ˇ ľĆ´Ď¸é,

  001a6	74 6c		 je	 SHORT $LN26@ApplySkill

; 1114 : #endif	// __JEFF_11_4
; 1115 : 			{
; 1116 : 				if( pSkillProp->nEvildoing > 0 )													// ÁÁŔş ¸¶ąýŔş

  001a8	83 be 04 02 00
	00 00		 cmp	 DWORD PTR [esi+516], 0
  001af	7e 63		 jle	 SHORT $LN26@ApplySkill

; 1117 : 					if( ((CMover *)pSrc)->GetHitType2(((CMover *)this), bTarget, TRUE ) != HITTYPE_FAIL )  	// Ŕű´ëŔűŔÎ»ó´ëżˇ°Ô

  001b1	6a 01		 push	 1
  001b3	ff 75 20	 push	 DWORD PTR _bTarget$[ebp]
  001b6	8b c8		 mov	 ecx, eax
  001b8	57		 push	 edi
  001b9	e8 00 00 00 00	 call	 ?GetHitType2@CMover@@QAE?AW4HITTYPE@@PAV1@HH@Z ; CMover::GetHitType2
  001be	85 c0		 test	 eax, eax
  001c0	0f 85 88 06 00
	00		 jne	 $LN83@ApplySkill

; 1118 : 						return;																			// ŔűżëľČµĘ
; 1119 : 			}
; 1120 : #else // __VER >= 8 // __S8_PK
; 1121 : 			if( pSkillProp->nEvildoing < 0 )													// łŞ»Ű¸¶ąýŔş
; 1122 : 				if( ((CMover *)pSrc)->GetHitType2(((CMover *)this), bTarget ) == HITTYPE_FAIL )  	// ĆňČ­ŔűŔÎ»ó´ëżˇ°Ô
; 1123 : 					return;																			// ŔűżëľČµĘ
; 1124 : 			if( pSkillProp->nEvildoing > 0 )													// ÁÁŔş ¸¶ąýŔş
; 1125 : 				if( ((CMover *)pSrc)->GetHitType2(((CMover *)this), bTarget ) != HITTYPE_FAIL )  	// Ŕű´ëŔűŔÎ»ó´ëżˇ°Ô
; 1126 : 					return;																			// ŔűżëľČµĘ
; 1127 : #endif // __VER >= 8 // __S8_PK
; 1128 : 		}

  001c6	eb 49		 jmp	 SHORT $LN236@ApplySkill
$LN17@ApplySkill:

; 1129 : 		else
; 1130 : 		{
; 1131 : 			if( pSkillProp->dwExeTarget != EXT_MAGICATKSHOT )

  001c8	83 be c4 01 00
	00 0e		 cmp	 DWORD PTR [esi+452], 14	; 0000000eH
  001cf	74 33		 je	 SHORT $LN25@ApplySkill

; 1132 : 				if( pSkillProp->dwSfxObj2 != NULL_ID )

  001d1	8b 86 a8 01 00
	00		 mov	 eax, DWORD PTR [esi+424]
  001d7	83 f8 ff	 cmp	 eax, -1
  001da	74 28		 je	 SHORT $LN25@ApplySkill

; 1133 : 					g_UserMng.AddCreateSfxObj( this, pSkillProp->dwSfxObj2 );

  001dc	6a 00		 push	 0
  001de	83 ec 0c	 sub	 esp, 12			; 0000000cH
  001e1	b9 00 00 00 00	 mov	 ecx, OFFSET ?g_UserMng@@3VCUserMng@@A ; g_UserMng
  001e6	c7 44 24 08 00
	00 00 00	 mov	 DWORD PTR [esp+8], 0
  001ee	c7 44 24 04 00
	00 00 00	 mov	 DWORD PTR [esp+4], 0
  001f6	c7 04 24 00 00
	00 00		 mov	 DWORD PTR [esp], 0
  001fd	50		 push	 eax
  001fe	57		 push	 edi
  001ff	e8 00 00 00 00	 call	 ?AddCreateSfxObj@CUserMng@@QAEXPAVCCtrl@@KMMMH@Z ; CUserMng::AddCreateSfxObj
$LN25@ApplySkill:

; 1134 : 			
; 1135 : 			if( pSkillProp->nEvildoing < 0 )

  00204	83 be 04 02 00
	00 00		 cmp	 DWORD PTR [esi+516], 0
  0020b	0f 8c 3d 06 00
	00		 jl	 $LN83@ApplySkill
$LN236@ApplySkill:

; 1136 : 				return;
; 1137 : 		}
; 1138 : 	}
; 1139 : #ifdef __INSTANCE_AGGRO_SYSTEM
; 1140 : 	CreateAggro( pSrc, pSkillProp, pAddSkillProp );

  00211	8b 45 08	 mov	 eax, DWORD PTR _pSrc$[ebp]
$LN26@ApplySkill:
  00214	ff 75 10	 push	 DWORD PTR _pAddSkillProp$[ebp]
  00217	8b cf		 mov	 ecx, edi
  00219	56		 push	 esi
  0021a	50		 push	 eax
  0021b	e8 00 00 00 00	 call	 ?CreateAggro@CCtrl@@QAEXPAV1@PAUItemProp@@PAUAddSkillProp@@@Z ; CCtrl::CreateAggro

; 1141 : #endif // __INSTANCE_AGGRO_SYSTEM
; 1142 : #endif //defined(__WORLDSERVER)
; 1143 : 
; 1144 : 	int nProb	= pSkillProp->nProbability;
; 1145 : 	if( pAddSkillProp )

  00220	8b 55 10	 mov	 edx, DWORD PTR _pAddSkillProp$[ebp]
  00223	8b 8e 3c 01 00
	00		 mov	 ecx, DWORD PTR [esi+316]
  00229	89 4d 20	 mov	 DWORD PTR _nProb$1$[ebp], ecx
  0022c	85 d2		 test	 edx, edx
  0022e	74 36		 je	 SHORT $LN28@ApplySkill

; 1146 : 	{
; 1147 : 		nProb	= pAddSkillProp->nProbability;
; 1148 : #if __VER >= 9	// __SKILL_0706
; 1149 : 		BOOL bPVP	= ( pSrc->GetType() == OT_MOVER && ( (CMover *)pSrc )->IsPlayer() && GetType() == OT_MOVER && ( (CMover *)this )->IsPlayer() );

  00230	8b 45 08	 mov	 eax, DWORD PTR _pSrc$[ebp]
  00233	8b 4a 1c	 mov	 ecx, DWORD PTR [edx+28]
  00236	89 4d 20	 mov	 DWORD PTR _nProb$1$[ebp], ecx
  00239	83 b8 70 01 00
	00 05		 cmp	 DWORD PTR [eax+368], 5
  00240	75 24		 jne	 SHORT $LN28@ApplySkill
  00242	83 b8 30 02 00
	00 00		 cmp	 DWORD PTR [eax+560], 0
  00249	74 1b		 je	 SHORT $LN28@ApplySkill
  0024b	83 bf 70 01 00
	00 05		 cmp	 DWORD PTR [edi+368], 5
  00252	75 12		 jne	 SHORT $LN28@ApplySkill
  00254	83 bf 30 02 00
	00 00		 cmp	 DWORD PTR [edi+560], 0
  0025b	74 09		 je	 SHORT $LN28@ApplySkill

; 1150 : 		if( bPVP )
; 1151 : 			nProb	= pAddSkillProp->nProbabilityPVP;

  0025d	8b 8a 8c 00 00
	00		 mov	 ecx, DWORD PTR [edx+140]
  00263	89 4d 20	 mov	 DWORD PTR _nProb$1$[ebp], ecx
$LN28@ApplySkill:

; 1152 : #endif	// __SKILL_0706
; 1153 : 	}
; 1154 : 
; 1155 : 	if( bIgnoreProb )	// Č®·üą«˝ĂżÉŔĚ ŔÖŔ¸¸é ą«Á¶°Ç 100%

  00266	80 7d 14 00	 cmp	 BYTE PTR _bIgnoreProb$[ebp], 0
  0026a	75 70		 jne	 SHORT $LN32@ApplySkill

; 1158 : 	if( nProb == NULL_ID || (int)( xRandom(100) ) < nProb  )		// Ŕűżë Č®·ü, =·Î µÇľî ŔÖŔ¸¸é 100% Ŕűżë

  0026c	83 f9 ff	 cmp	 ecx, -1
  0026f	74 6b		 je	 SHORT $LN32@ApplySkill
; File C:\IAGOS\server\v18\Source\Source\_Common\xUtil.h

; 16   : 	g_next = g_next * 1103515245 + 12345;// + nRandomSeed[ i++ ];

  00271	69 0d 00 00 00
	00 6d 4e c6 41	 imul	 ecx, DWORD PTR ?g_next@@3KA, 1103515245 ; g_next

; 22   : 	return  xRand() % num;

  0027b	b8 1f 85 eb 51	 mov	 eax, 1374389535		; 51eb851fH

; 16   : 	g_next = g_next * 1103515245 + 12345;// + nRandomSeed[ i++ ];

  00280	81 c1 39 30 00
	00		 add	 ecx, 12345		; 00003039H

; 22   : 	return  xRand() % num;

  00286	f7 e1		 mul	 ecx

; 16   : 	g_next = g_next * 1103515245 + 12345;// + nRandomSeed[ i++ ];

  00288	89 0d 00 00 00
	00		 mov	 DWORD PTR ?g_next@@3KA, ecx ; g_next

; 22   : 	return  xRand() % num;

  0028e	c1 ea 05	 shr	 edx, 5
  00291	6b c2 64	 imul	 eax, edx, 100
  00294	2b c8		 sub	 ecx, eax
; File C:\IAGOS\server\v18\Source\Source\_Common\ctrl.cpp

; 1158 : 	if( nProb == NULL_ID || (int)( xRandom(100) ) < nProb  )		// Ŕűżë Č®·ü, =·Î µÇľî ŔÖŔ¸¸é 100% Ŕűżë

  00296	3b 4d 20	 cmp	 ecx, DWORD PTR _nProb$1$[ebp]
  00299	7c 3e		 jl	 SHORT $LN161@ApplySkill

; 1298 : 			}
; 1299 : 		#endif // __WORLDSERVER
; 1300 : 		
; 1301 : 		}	// this == OT_MOVER
; 1302 : 	}	// if( nProb == NULL_ID || xRandom(100) < nProb  )
; 1303 : #ifdef __WORLDSERVER
; 1304 : 	#if __VER >= 11 // __MA_VER11_06				// Č®Ŕ˛˝şĹł Čż°úĽöÁ¤ world,neuz
; 1305 : 	else
; 1306 : 	{
; 1307 : 		if(pSkillProp->dwID == SI_PSY_HERO_STONE )

  0029b	81 3e f2 00 00
	00		 cmp	 DWORD PTR [esi], 242	; 000000f2H
  002a1	0f 85 a7 04 00
	00		 jne	 $LN65@ApplySkill

; 1308 : 			g_UserMng.AddRemoveSfxObj( this, pSkillProp->dwSfxObj4 );

  002a7	6a 00		 push	 0
  002a9	83 ec 0c	 sub	 esp, 12			; 0000000cH
  002ac	b9 00 00 00 00	 mov	 ecx, OFFSET ?g_UserMng@@3VCUserMng@@A ; g_UserMng
  002b1	c7 44 24 08 00
	00 00 00	 mov	 DWORD PTR [esp+8], 0
  002b9	c7 44 24 04 00
	00 00 00	 mov	 DWORD PTR [esp+4], 0
  002c1	c7 04 24 00 00
	00 00		 mov	 DWORD PTR [esp], 0
  002c8	ff b6 b0 01 00
	00		 push	 DWORD PTR [esi+432]
  002ce	57		 push	 edi
  002cf	e8 00 00 00 00	 call	 ?AddRemoveSfxObj@CUserMng@@QAEXPAVCCtrl@@KMMMH@Z ; CUserMng::AddRemoveSfxObj
  002d4	e9 75 04 00 00	 jmp	 $LN65@ApplySkill
$LN161@ApplySkill:

; 1158 : 	if( nProb == NULL_ID || (int)( xRandom(100) ) < nProb  )		// Ŕűżë Č®·ü, =·Î µÇľî ŔÖŔ¸¸é 100% Ŕűżë

  002d9	8b 55 10	 mov	 edx, DWORD PTR _pAddSkillProp$[ebp]
$LN32@ApplySkill:

; 1159 : 	{
; 1160 : 		if( GetType() == OT_MOVER )		// Ĺ¸°ŮŔĚ ą«ąöŔĎ¶§¸¸ ÁöĽÓ˝Ă°Ł Ăł¸®

  002dc	83 bf 70 01 00
	00 05		 cmp	 DWORD PTR [edi+368], 5
  002e3	0f 85 65 04 00
	00		 jne	 $LN65@ApplySkill

; 1161 : 		{
; 1162 : 			int nSkillTime = 0;
; 1163 : 			if( pAddSkillProp )		

  002e9	85 d2		 test	 edx, edx
  002eb	74 05		 je	 SHORT $LN34@ApplySkill

; 1164 : 				nSkillTime = (int)pAddSkillProp->dwSkillTime;

  002ed	8b 42 70	 mov	 eax, DWORD PTR [edx+112]
  002f0	eb 06		 jmp	 SHORT $LN237@ApplySkill
$LN34@ApplySkill:

; 1165 : 			else					
; 1166 : 				nSkillTime = (int)pSkillProp->dwSkillTime;

  002f2	8b 86 c0 01 00
	00		 mov	 eax, DWORD PTR [esi+448]
$LN237@ApplySkill:

; 1167 : 
; 1168 : 			BOOL bNew = TRUE;	// ˝şĹłŔĚ Ă· ŔűżëµĆ´Â°ˇ.
; 1169 : #if __VER >= 8 //__Y_FLAG_SKILL_BUFF
; 1170 : 			if( nSkillTime >= 0 )	// ÁöĽÓ˝Ă°ŁŔĚ ŔÖ´Â ˝şĹł(ÇÁ·ÎĹŘĽÇ µî)

  002f8	89 45 18	 mov	 DWORD PTR _nSkillTime$1$[ebp], eax
  002fb	85 c0		 test	 eax, eax
  002fd	0f 88 9c 00 00
	00		 js	 $LN145@ApplySkill

; 1171 : #else //__Y_FLAG_SKILL_BUFF
; 1172 : 			if( nSkillTime > 0 )	// ÁöĽÓ˝Ă°ŁŔĚ ŔÖ´Â ˝şĹł(ÇÁ·ÎĹŘĽÇ µî)					
; 1173 : #endif //__Y_FLAG_SKILL_BUFF
; 1174 : 			{
; 1175 : 				DWORD dwTime1 = 0, dwTime2 = 0;
; 1176 : 				if( pSkillProp->dwReferTarget1 == RT_TIME || pSkillProp->dwReferTarget2 == RT_TIME )

  00303	83 be d8 01 00
	00 02		 cmp	 DWORD PTR [esi+472], 2
  0030a	c7 45 14 00 00
	00 00		 mov	 DWORD PTR _dwTime1$9[ebp], 0
  00311	c7 45 20 00 00
	00 00		 mov	 DWORD PTR _dwTime2$12[ebp], 0
  00318	74 09		 je	 SHORT $LN38@ApplySkill
  0031a	83 be dc 01 00
	00 02		 cmp	 DWORD PTR [esi+476], 2
  00321	75 1e		 jne	 SHORT $LN156@ApplySkill
$LN38@ApplySkill:

; 1177 : 				{
; 1178 : 					if( pSrc->GetType() == OT_MOVER )		// ˝ĂŔüŔÚ°ˇ ą«ąöŔĎ¶§¸¸.

  00323	8b 4d 08	 mov	 ecx, DWORD PTR _pSrc$[ebp]
  00326	83 b9 70 01 00
	00 05		 cmp	 DWORD PTR [ecx+368], 5
  0032d	75 15		 jne	 SHORT $LN39@ApplySkill

; 1179 : 						((CMover *)pSrc)->SubReferTime( &dwTime1, &dwTime2, pSkillProp, pAddSkillProp );

  0032f	52		 push	 edx
  00330	56		 push	 esi
  00331	8d 45 20	 lea	 eax, DWORD PTR _dwTime2$12[ebp]
  00334	50		 push	 eax
  00335	8d 45 14	 lea	 eax, DWORD PTR _dwTime1$9[ebp]
  00338	50		 push	 eax
  00339	e8 00 00 00 00	 call	 ?SubReferTime@CMover@@QAEXPAK0PAUItemProp@@PAUAddSkillProp@@@Z ; CMover::SubReferTime
  0033e	8b 55 10	 mov	 edx, DWORD PTR _pAddSkillProp$[ebp]
$LN156@ApplySkill:

; 1180 : 				}
; 1181 : 
; 1182 : 				WORD wType;
; 1183 : 				if( pSkillProp->dwSkillType == NULL_ID )	
; 1184 : 					wType = BUFF_ITEM;
; 1185 : 				else										
; 1186 : 					wType = BUFF_SKILL;
; 1187 : 
; 1188 : 				// pTargetŔş this°ˇ µÉĽöµµŔÖ°í Ĺ¸ŔÎŔĚ µÉĽöµµ ŔÖ´Ů.
; 1189 : 			#if defined(__WORLDSERVER)
; 1190 : 				int nLevel = 0;
; 1191 : 				if( pAddSkillProp )		

  00341	8b 4d 08	 mov	 ecx, DWORD PTR _pSrc$[ebp]
$LN39@ApplySkill:
  00344	33 c0		 xor	 eax, eax
  00346	83 be e8 01 00
	00 ff		 cmp	 DWORD PTR [esi+488], -1
  0034d	0f 95 c0	 setne	 al
  00350	0f b7 c0	 movzx	 eax, ax
  00353	89 45 f8	 mov	 DWORD PTR tv1514[ebp], eax
  00356	85 d2		 test	 edx, edx
  00358	74 08		 je	 SHORT $LN42@ApplySkill

; 1192 : 					nLevel = pAddSkillProp->dwSkillLvl;

  0035a	8b 42 08	 mov	 eax, DWORD PTR [edx+8]
  0035d	89 45 1c	 mov	 DWORD PTR _nLevel$1$[ebp], eax
  00360	eb 07		 jmp	 SHORT $LN43@ApplySkill
$LN42@ApplySkill:

; 1193 : 				else					
; 1194 : 					nLevel = 0;

  00362	c7 45 1c 00 00
	00 00		 mov	 DWORD PTR _nLevel$1$[ebp], 0
$LN43@ApplySkill:

; 1195 : 
; 1196 : 				// dwSkillTimeŔĚ ˝şĹłŔÚĂĽŔÇ ÁöĽÓ˝Ă°ŁŔ¸·Îµµ ľ˛ŔĚ°í şÎ°ˇČż°úŔÇ ÁöĽÓ˝Ă°ŁŔ¸·Îµµ ľ˛ŔĚ±â¶§ą®żˇ ŔĚ·±±¸Á¶´Â ¸ÂÁö ľĘ´Ů
; 1197 : 				// ŔĚ´ë·Î¶ó¸é ąö´×ÇĘµĺµµ ąöÇÁĂł·ł °É·Áąö¸°´Ů.
; 1198 : 				// bNew = ((CMover *)this)->m_SkillState.Set( wType, pSkillProp->dwID, nLevel, nSkillTime + (int)dwTime1 + (int)dwTime2 );	
; 1199 : 				if( pSkillProp->dwID == SI_ELE_FIRE_BURINGFIELD )

  00369	81 3e aa 00 00
	00		 cmp	 DWORD PTR [esi], 170	; 000000aaH
  0036f	0f 84 b0 03 00
	00		 je	 $LN63@ApplySkill

; 1200 : 					bNew = FALSE;	//  ąö´×ÇĘµĺ´Â żążÜĂł¸® 
; 1201 : 				else
; 1202 : #ifdef __PVPDEBUFSKILL
; 1203 : 					bNew	= static_cast<CMover*>( this )->AddBuff( wType, (WORD)( pSkillProp->dwID ), nLevel, nSkillTime + (int)dwTime1 + (int)dwTime2, pSrc->GetId() );

  00375	ff b1 bc 01 00
	00		 push	 DWORD PTR [ecx+444]
  0037b	8b 45 14	 mov	 eax, DWORD PTR _dwTime1$9[ebp]
  0037e	8b cf		 mov	 ecx, edi
  00380	03 45 20	 add	 eax, DWORD PTR _dwTime2$12[ebp]
  00383	03 45 18	 add	 eax, DWORD PTR _nSkillTime$1$[ebp]
  00386	50		 push	 eax
  00387	ff 75 1c	 push	 DWORD PTR _nLevel$1$[ebp]
  0038a	ff 36		 push	 DWORD PTR [esi]
  0038c	ff 75 f8	 push	 DWORD PTR tv1514[ebp]
  0038f	e8 00 00 00 00	 call	 ?AddBuff@CMover@@QAEHGGKKK@Z ; CMover::AddBuff

; 1204 : #else // __PVPDEBUFSKILL
; 1205 : 					bNew = ((CMover *)this)->m_SkillState.Set( wType, pSkillProp->dwID, nLevel, nSkillTime + (int)dwTime1 + (int)dwTime2 );	
; 1206 : #endif // __PVPDEBUFSKILL
; 1207 : 
; 1208 : 				
; 1209 : 			#elif defined(__CLIENT)
; 1210 : 				bNew = ((CMover *)this)->HasBuff( wType, (WORD)( pSkillProp->dwID ) ) ? FALSE : TRUE;
; 1211 : 			#endif // Client
; 1212 : 			}
; 1213 : 			
; 1214 : 			// ĂÖĂĘ ŔűżëµČ ˝şĹłżˇ¸¸
; 1215 : 			if( bNew )	// ŔĚąĚ °É·ÁŔÖ´Â »óĹÂżˇĽ­ ¶Ç ľ˛¸é bNew´Â FALSE°ˇ µČ´Ů.

  00394	8b 55 10	 mov	 edx, DWORD PTR _pAddSkillProp$[ebp]
  00397	85 c0		 test	 eax, eax
  00399	0f 84 86 03 00
	00		 je	 $LN63@ApplySkill
$LN145@ApplySkill:

; 1216 : 			{
; 1217 : 			#ifdef __WORLDSERVER
; 1218 : 				// ˝şĹłÁß żążÜĂł¸® ÇŘľßÇŇ°ÍŔ» Ăł¸®ÇÔ.
; 1219 : 				if( ApplySkillHardCoding( pSrc, pSkillProp, pAddSkillProp ) == FALSE )

  0039f	52		 push	 edx
  003a0	56		 push	 esi
  003a1	ff 75 08	 push	 DWORD PTR _pSrc$[ebp]
  003a4	8b cf		 mov	 ecx, edi
  003a6	e8 00 00 00 00	 call	 ?ApplySkillHardCoding@CCtrl@@QAEHPAV1@PAUItemProp@@PAUAddSkillProp@@@Z ; CCtrl::ApplySkillHardCoding
  003ab	85 c0		 test	 eax, eax
  003ad	0f 84 9b 04 00
	00		 je	 $LN83@ApplySkill

; 1220 : 					return;
; 1221 : 
; 1222 : 				// şÎČ°˝şĹłĽÂĆĂŔĚ µÇľîŔÖ´Ů¸é ľĆ·§°Íµé ą«˝Ă
; 1223 : 				if( ((CMover *)this)->m_Resurrection_Data.bUseing )

  003b3	83 bf dc 0a 00
	00 00		 cmp	 DWORD PTR [edi+2780], 0
  003ba	0f 85 8e 04 00
	00		 jne	 $LN83@ApplySkill

; 1224 : 					return;
; 1225 : 
; 1226 : 				// µĄąĚÁöµµ ÁÖ¸éĽ­ ĆÄ¶ó¸ŢĹÍµµ şŻÇĎ´Â ˝şĹłŔĚ ŔÖ±â¶«żˇ µĄąĚÁö¶ű µű·Î Ăł¸®.
; 1227 : 				switch( pSkillProp->dwExeTarget )

  003c0	8b 86 c4 01 00
	00		 mov	 eax, DWORD PTR [esi+452]
  003c6	48		 dec	 eax
  003c7	83 f8 08	 cmp	 eax, 8
  003ca	77 28		 ja	 SHORT $LN51@ApplySkill
  003cc	0f b6 80 00 00
	00 00		 movzx	 eax, BYTE PTR $LN149@ApplySkill[eax]
  003d3	ff 24 85 00 00
	00 00		 jmp	 DWORD PTR $LN150@ApplySkill[eax*4]
$LN49@ApplySkill:

; 1228 : 				{
; 1229 : 				case EXT_SELFCHGPARAMET:		// ˝ĂŔüŔÚ ŔÚ˝Ĺ.
; 1230 : 					if( pSrc->GetType() == OT_MOVER )	// Ĺ¸°Ů(ż©±âĽ± Ĺ¸°ŮŔĚ ˝ĂŔüŔÚ)ŔĚ ą«ąöŔĎ¶§¸¸...

  003da	8b 45 08	 mov	 eax, DWORD PTR _pSrc$[ebp]
  003dd	83 b8 70 01 00
	00 05		 cmp	 DWORD PTR [eax+368], 5
  003e4	75 2e		 jne	 SHORT $LN56@ApplySkill

; 1231 : 						((CMover *)pSrc)->ApplyParam( (CMover *)pSrc, pSkillProp, pAddSkillProp, TRUE, nDamage );

  003e6	ff 75 fc	 push	 DWORD PTR _nDamage$1$[ebp]
  003e9	8b c8		 mov	 ecx, eax
  003eb	6a 01		 push	 1
  003ed	ff 75 10	 push	 DWORD PTR _pAddSkillProp$[ebp]
  003f0	56		 push	 esi
  003f1	50		 push	 eax

; 1232 : 					break;

  003f2	eb 1b		 jmp	 SHORT $LN238@ApplySkill
$LN51@ApplySkill:

; 1233 : 				case EXT_OBJCHGPARAMET:
; 1234 : 				case EXT_MAGIC:
; 1235 : 				case EXT_ANOTHER:
; 1236 : 				case EXT_ANOTHERWITH:
; 1237 : 				default:
; 1238 : 					if( this->GetType() == OT_MOVER )	// Ĺ¸°ŮŔĚ ą«ąöŔĎ¶§¸¸.

  003f4	83 bf 70 01 00
	00 05		 cmp	 DWORD PTR [edi+368], 5
  003fb	0f 85 21 03 00
	00		 jne	 $LN158@ApplySkill

; 1239 : 						((CMover *)this)->ApplyParam( (CMover *)pSrc, pSkillProp, pAddSkillProp, TRUE , nDamage );

  00401	ff 75 fc	 push	 DWORD PTR _nDamage$1$[ebp]
  00404	8b cf		 mov	 ecx, edi
  00406	6a 01		 push	 1
  00408	ff 75 10	 push	 DWORD PTR _pAddSkillProp$[ebp]
  0040b	56		 push	 esi
  0040c	ff 75 08	 push	 DWORD PTR _pSrc$[ebp]
$LN238@ApplySkill:

; 1240 : 					break;
; 1241 : 				}
; 1242 : 
; 1243 : 				if( this->GetType() == OT_MOVER )

  0040f	e8 00 00 00 00	 call	 ?ApplyParam@CMover@@QAEHPAVCCtrl@@PAUItemProp@@PAUAddSkillProp@@HH@Z ; CMover::ApplyParam
$LN56@ApplySkill:
  00414	83 bf 70 01 00
	00 05		 cmp	 DWORD PTR [edi+368], 5
  0041b	0f 85 01 03 00
	00		 jne	 $LN158@ApplySkill

; 1244 : 				{
; 1245 : 					// ąĐ¸®´Â ľçŔĚ ŔÖ´Â°ˇ?
; 1246 : 					CMover *pTarget = (CMover *)this;
; 1247 : 					DWORD dwDmgShift;
; 1248 : 					if( pAddSkillProp )

  00421	8b 55 10	 mov	 edx, DWORD PTR _pAddSkillProp$[ebp]
  00424	85 d2		 test	 edx, edx
  00426	74 05		 je	 SHORT $LN58@ApplySkill

; 1249 : 						dwDmgShift = pAddSkillProp->dwDmgShift;

  00428	8b 42 18	 mov	 eax, DWORD PTR [edx+24]
  0042b	eb 06		 jmp	 SHORT $LN59@ApplySkill
$LN58@ApplySkill:

; 1250 : 					else
; 1251 : 						dwDmgShift = pSkillProp->dwDmgShift;

  0042d	8b 86 34 01 00
	00		 mov	 eax, DWORD PTR [esi+308]
$LN59@ApplySkill:

; 1252 : 
; 1253 : 					if( dwDmgShift != NULL_ID && pTarget->GetProp()->dwClass != RANK_SUPER && pTarget->GetProp()->dwClass != RANK_MIDBOSS )

  00433	83 f8 ff	 cmp	 eax, -1
  00436	0f 84 0c 01 00
	00		 je	 $LN60@ApplySkill
  0043c	8b cf		 mov	 ecx, edi
  0043e	e8 00 00 00 00	 call	 ?GetPropA@CMover@@QAEPAUMoverProp@@XZ ; CMover::GetPropA
  00443	83 b8 94 00 00
	00 07		 cmp	 DWORD PTR [eax+148], 7
  0044a	0f 84 f5 00 00
	00		 je	 $LN160@ApplySkill
  00450	8b cf		 mov	 ecx, edi
  00452	e8 00 00 00 00	 call	 ?GetPropA@CMover@@QAEPAUMoverProp@@XZ ; CMover::GetPropA
  00457	83 b8 94 00 00
	00 05		 cmp	 DWORD PTR [eax+148], 5
  0045e	0f 84 e1 00 00
	00		 je	 $LN160@ApplySkill
; File C:\IAGOS\server\v18\Source\Source\_Common\Obj.h

; 215  : 	D3DXVECTOR3		GetPos()	{ return m_vPos; }

  00464	8b 87 68 01 00
	00		 mov	 eax, DWORD PTR [edi+360]
  0046a	f3 0f 7e 87 60
	01 00 00	 movq	 xmm0, QWORD PTR [edi+352]
  00472	89 45 f0	 mov	 DWORD PTR $T6[ebp+8], eax
  00475	8b 45 08	 mov	 eax, DWORD PTR _pSrc$[ebp]
  00478	66 0f d6 45 e8	 movq	 QWORD PTR $T6[ebp], xmm0
  0047d	f3 0f 7e 80 60
	01 00 00	 movq	 xmm0, QWORD PTR [eax+352]
  00485	8b 80 68 01 00
	00		 mov	 eax, DWORD PTR [eax+360]
  0048b	89 45 e4	 mov	 DWORD PTR $T3[ebp+8], eax
; File C:\IAGOS\server\v18\Source\Source\_Common\ctrl.cpp

; 1255 : 						FLOAT fAngle = GetDegree( pTarget->GetPos(), pSrc->GetPos() );	// ˝ĂŔüŔÚżÍ Ĺ¸°ŮŔÇ °˘µµ¸¦ ±¸ÇÔ

  0048e	8d 45 dc	 lea	 eax, DWORD PTR $T3[ebp]
  00491	50		 push	 eax
  00492	8d 45 e8	 lea	 eax, DWORD PTR $T6[ebp]
; File C:\IAGOS\server\v18\Source\Source\_Common\Obj.h

; 215  : 	D3DXVECTOR3		GetPos()	{ return m_vPos; }

  00495	66 0f d6 45 dc	 movq	 QWORD PTR $T3[ebp], xmm0
; File C:\IAGOS\server\v18\Source\Source\_Common\ctrl.cpp

; 1255 : 						FLOAT fAngle = GetDegree( pTarget->GetPos(), pSrc->GetPos() );	// ˝ĂŔüŔÚżÍ Ĺ¸°ŮŔÇ °˘µµ¸¦ ±¸ÇÔ

  0049a	50		 push	 eax
  0049b	e8 00 00 00 00	 call	 ?GetDegree@@YAMABUD3DXVECTOR3@@0@Z ; GetDegree

; 1256 : 						AngleToVectorXZ( &pTarget->m_pActMover->m_vDeltaE, fAngle, 0.85f );

  004a0	8b b7 38 02 00
	00		 mov	 esi, DWORD PTR [edi+568]
  004a6	d9 5d 14	 fstp	 DWORD PTR _fAngle$10[ebp]
; File C:\IAGOS\server\v18\Source\Source\_Common\XUtil3D.h

; 39   : 	fAngXZ = D3DXToRadian(fAngXZ);

  004a9	f3 0f 10 45 14	 movss	 xmm0, DWORD PTR _fAngle$10[ebp]
  004ae	f3 0f 59 05 00
	00 00 00	 mulss	 xmm0, DWORD PTR __real@3c8efa35
; File C:\Program Files (x86)\Windows Kits\10\Include\10.0.26100.0\ucrt\corecrt_math.h

; 789  :             return (float)sin(_X);

  004b6	0f 5a c0	 cvtps2pd xmm0, xmm0
  004b9	f2 0f 11 45 f4	 movsd	 QWORD PTR tv1477[ebp], xmm0
  004be	e8 00 00 00 00	 call	 __libm_sse2_sin_precise
  004c3	0f 57 c9	 xorps	 xmm1, xmm1
  004c6	f2 0f 5a c8	 cvtsd2ss xmm1, xmm0

; 683  :             return (float)cos(_X);

  004ca	f2 0f 10 45 f4	 movsd	 xmm0, QWORD PTR tv1477[ebp]
; File C:\IAGOS\server\v18\Source\Source\_Common\XUtil3D.h

; 40   : 	vDelta->x = sinf(fAngXZ) * fSpeed;

  004cf	f3 0f 59 0d 00
	00 00 00	 mulss	 xmm1, DWORD PTR __real@3f59999a
  004d7	f3 0f 11 4e 5c	 movss	 DWORD PTR [esi+92], xmm1
; File C:\Program Files (x86)\Windows Kits\10\Include\10.0.26100.0\ucrt\corecrt_math.h

; 683  :             return (float)cos(_X);

  004dc	e8 00 00 00 00	 call	 __libm_sse2_cos_precise
  004e1	f2 0f 5a c0	 cvtsd2ss xmm0, xmm0
; File C:\IAGOS\server\v18\Source\Source\_Common\ctrl.cpp

; 1257 : 						g_UserMng.AddPushPower( pTarget, pTarget->GetPos(), pTarget->GetAngle(), fAngle, 0.85f );

  004e5	c7 44 24 04 9a
	99 59 3f	 mov	 DWORD PTR [esp+4], 1062836634 ; 3f59999aH
; File C:\IAGOS\server\v18\Source\Source\_Common\XUtil3D.h

; 42   : 	vDelta->y = 0;

  004ed	c7 46 60 00 00
	00 00		 mov	 DWORD PTR [esi+96], 0
  004f4	0f 57 05 00 00
	00 00		 xorps	 xmm0, DWORD PTR __xmm@80000000800000008000000080000000
  004fb	f3 0f 59 05 00
	00 00 00	 mulss	 xmm0, DWORD PTR __real@3f59999a
  00503	f3 0f 11 46 64	 movss	 DWORD PTR [esi+100], xmm0
; File C:\IAGOS\server\v18\Source\Source\_Common\ctrl.cpp

; 1257 : 						g_UserMng.AddPushPower( pTarget, pTarget->GetPos(), pTarget->GetAngle(), fAngle, 0.85f );

  00508	f3 0f 10 45 14	 movss	 xmm0, DWORD PTR _fAngle$10[ebp]
  0050d	8b 87 68 01 00
	00		 mov	 eax, DWORD PTR [edi+360]
  00513	f3 0f 11 04 24	 movss	 DWORD PTR [esp], xmm0
  00518	83 ec 10	 sub	 esp, 16			; 00000010H
  0051b	f3 0f 10 47 18	 movss	 xmm0, DWORD PTR [edi+24]
  00520	8b cc		 mov	 ecx, esp
  00522	f3 0f 11 44 24
	0c		 movss	 DWORD PTR [esp+12], xmm0
  00528	f3 0f 7e 87 60
	01 00 00	 movq	 xmm0, QWORD PTR [edi+352]
  00530	66 0f d6 01	 movq	 QWORD PTR [ecx], xmm0
  00534	89 41 08	 mov	 DWORD PTR [ecx+8], eax
  00537	b9 00 00 00 00	 mov	 ecx, OFFSET ?g_UserMng@@3VCUserMng@@A ; g_UserMng
  0053c	57		 push	 edi
  0053d	e8 00 00 00 00	 call	 ?AddPushPower@CUserMng@@QAEXPAVCMover@@UD3DXVECTOR3@@MMM@Z ; CUserMng::AddPushPower
  00542	8b 75 0c	 mov	 esi, DWORD PTR _pSkillProp$[ebp]
$LN160@ApplySkill:

; 1258 : 					}
; 1259 : 					
; 1260 : 					// »ó´ëąćŔ» ˛řľî´ç±ä´Ů
; 1261 : 					if( pSkillProp->dwID == SI_ACR_YOYO_PULLING
; 1262 : #ifdef __3RD_LEGEND16	
; 1263 : 						|| pSkillProp->dwID == SI_LOD_SUP_PULLING

  00545	8b 55 10	 mov	 edx, DWORD PTR _pAddSkillProp$[ebp]
$LN60@ApplySkill:
  00548	8b 06		 mov	 eax, DWORD PTR [esi]
  0054a	3d ce 00 00 00	 cmp	 eax, 206		; 000000ceH
  0054f	74 0b		 je	 SHORT $LN62@ApplySkill
  00551	3d 90 01 00 00	 cmp	 eax, 400		; 00000190H
  00556	0f 85 c9 01 00
	00		 jne	 $LN63@ApplySkill
$LN62@ApplySkill:

; 1264 : #endif // __3RD_LEGEND16
; 1265 : 						)
; 1266 : 					{
; 1267 : 						if( pAddSkillProp && pAddSkillProp->nDestData1[2] != NULL_ID )

  0055c	85 d2		 test	 edx, edx
  0055e	0f 84 c1 01 00
	00		 je	 $LN63@ApplySkill
  00564	8b 42 44	 mov	 eax, DWORD PTR [edx+68]
  00567	89 45 f8	 mov	 DWORD PTR tv1507[ebp], eax
  0056a	83 f8 ff	 cmp	 eax, -1
  0056d	0f 84 b2 01 00
	00		 je	 $LN63@ApplySkill
; File C:\IAGOS\server\v18\Source\Source\_Common\Obj.h

; 215  : 	D3DXVECTOR3		GetPos()	{ return m_vPos; }

  00573	8b 75 08	 mov	 esi, DWORD PTR _pSrc$[ebp]
; File C:\IAGOS\server\v18\Source\Source\_Common\ctrl.cpp

; 1277 : 									fTotalLen = ((CMover*)this)->GetAttackRange( AR_HRANGE );

  00576	8b cf		 mov	 ecx, edi
  00578	6a 06		 push	 6
; File C:\IAGOS\server\v18\Source\Source\_Common\Obj.h

; 215  : 	D3DXVECTOR3		GetPos()	{ return m_vPos; }

  0057a	f3 0f 7e 86 60
	01 00 00	 movq	 xmm0, QWORD PTR [esi+352]
  00582	8b 86 68 01 00
	00		 mov	 eax, DWORD PTR [esi+360]
  00588	66 0f d6 45 dc	 movq	 QWORD PTR $T2[ebp], xmm0
  0058d	f3 0f 7e 87 60
	01 00 00	 movq	 xmm0, QWORD PTR [edi+352]
  00595	66 0f d6 45 e8	 movq	 QWORD PTR $T4[ebp], xmm0
; File C:\IAGOS\server\v18\Source\Source\DX_SDK\d3dx9math.inl

; 383  :     return D3DXVECTOR3(x - v.x, y - v.y, z - v.z);

  0059a	f3 0f 10 45 e8	 movss	 xmm0, DWORD PTR $T4[ebp]
  0059f	f3 0f 5c 45 dc	 subss	 xmm0, DWORD PTR $T2[ebp]
; File C:\IAGOS\server\v18\Source\Source\_Common\Obj.h

; 215  : 	D3DXVECTOR3		GetPos()	{ return m_vPos; }

  005a4	89 45 e4	 mov	 DWORD PTR $T2[ebp+8], eax
  005a7	8b 87 68 01 00
	00		 mov	 eax, DWORD PTR [edi+360]
  005ad	89 45 f0	 mov	 DWORD PTR $T4[ebp+8], eax
; File C:\IAGOS\server\v18\Source\Source\DX_SDK\d3dx9math.inl

; 383  :     return D3DXVECTOR3(x - v.x, y - v.y, z - v.z);

  005b0	f3 0f 11 45 18	 movss	 DWORD PTR tv1430[ebp], xmm0
  005b5	f3 0f 10 45 ec	 movss	 xmm0, DWORD PTR $T4[ebp+4]
  005ba	f3 0f 5c 45 e0	 subss	 xmm0, DWORD PTR $T2[ebp+4]
  005bf	f3 0f 11 45 20	 movss	 DWORD PTR tv1432[ebp], xmm0
  005c4	f3 0f 10 45 f0	 movss	 xmm0, DWORD PTR $T4[ebp+8]
  005c9	f3 0f 5c 45 e4	 subss	 xmm0, DWORD PTR $T2[ebp+8]
  005ce	f3 0f 11 45 1c	 movss	 DWORD PTR tv1431[ebp], xmm0
; File C:\IAGOS\server\v18\Source\Source\_Common\ctrl.cpp

; 1277 : 									fTotalLen = ((CMover*)this)->GetAttackRange( AR_HRANGE );

  005d3	e8 00 00 00 00	 call	 ?GetAttackRange@CMover@@QAEMK@Z ; CMover::GetAttackRange
; File C:\IAGOS\server\v18\Source\Source\DX_SDK\d3dx9math.inl

; 302  :     z = fz;

  005d8	f3 0f 10 4d 18	 movss	 xmm1, DWORD PTR tv1430[ebp]
; File C:\IAGOS\server\v18\Source\Source\_Common\ctrl.cpp

; 1280 : 								FLOAT fDest = fTotalLen / ((CMover*)this)->GetAttackRange( AR_HRANGE );

  005dd	8b cf		 mov	 ecx, edi
; File C:\IAGOS\server\v18\Source\Source\DX_SDK\d3dx9math.inl

; 1698 :     return pV->x * pV->x + pV->y * pV->y + pV->z * pV->z;

  005df	f3 0f 10 55 20	 movss	 xmm2, DWORD PTR tv1432[ebp]
  005e4	f3 0f 59 d2	 mulss	 xmm2, xmm2
; File C:\IAGOS\server\v18\Source\Source\_Common\ctrl.cpp

; 1280 : 								FLOAT fDest = fTotalLen / ((CMover*)this)->GetAttackRange( AR_HRANGE );

  005e8	6a 06		 push	 6
; File C:\IAGOS\server\v18\Source\Source\DX_SDK\d3dx9math.inl

; 302  :     z = fz;

  005ea	f3 0f 59 c9	 mulss	 xmm1, xmm1
; File C:\IAGOS\server\v18\Source\Source\_Common\ctrl.cpp

; 1277 : 									fTotalLen = ((CMover*)this)->GetAttackRange( AR_HRANGE );

  005ee	d9 5d 14	 fstp	 DWORD PTR tv1593[ebp]
  005f1	f3 0f 10 45 14	 movss	 xmm0, DWORD PTR tv1593[ebp]
; File C:\IAGOS\server\v18\Source\Source\DX_SDK\d3dx9math.inl

; 1698 :     return pV->x * pV->x + pV->y * pV->y + pV->z * pV->z;

  005f6	f3 0f 58 d1	 addss	 xmm2, xmm1
  005fa	f3 0f 10 4d 1c	 movss	 xmm1, DWORD PTR tv1431[ebp]
  005ff	f3 0f 59 c9	 mulss	 xmm1, xmm1
  00603	f3 0f 58 d1	 addss	 xmm2, xmm1
; File C:\IAGOS\server\v18\Source\Source\_Common\ctrl.cpp

; 1274 : 							FLOAT fTotalLen = D3DXVec3LengthSq( &v3Len ) * 0.1f;

  00607	f3 0f 59 15 00
	00 00 00	 mulss	 xmm2, DWORD PTR __real@3dcccccd

; 1275 : 							{
; 1276 : 								if( fTotalLen > ((CMover*)this)->GetAttackRange( AR_HRANGE ) )

  0060f	f3 0f 5d c2	 minss	 xmm0, xmm2

; 1277 : 									fTotalLen = ((CMover*)this)->GetAttackRange( AR_HRANGE );

  00613	f3 0f 11 45 14	 movss	 DWORD PTR _fTotalLen$7[ebp], xmm0

; 1280 : 								FLOAT fDest = fTotalLen / ((CMover*)this)->GetAttackRange( AR_HRANGE );

  00618	e8 00 00 00 00	 call	 ?GetAttackRange@CMover@@QAEMK@Z ; CMover::GetAttackRange
  0061d	d8 7d 14	 fdivr	 DWORD PTR _fTotalLen$7[ebp]
; File C:\IAGOS\server\v18\Source\Source\_Common\Obj.h

; 215  : 	D3DXVECTOR3		GetPos()	{ return m_vPos; }

  00620	8b 86 68 01 00
	00		 mov	 eax, DWORD PTR [esi+360]
  00626	89 45 e4	 mov	 DWORD PTR $T1[ebp+8], eax
  00629	8b 87 68 01 00
	00		 mov	 eax, DWORD PTR [edi+360]
  0062f	89 45 f0	 mov	 DWORD PTR $T5[ebp+8], eax
; File C:\IAGOS\server\v18\Source\Source\_Common\ctrl.cpp

; 1283 : 									FLOAT fAngle = GetDegree( pTarget->GetPos(), pSrc->GetPos() );	// ˝ĂŔüŔÚżÍ Ĺ¸°ŮŔÇ °˘µµ¸¦ ±¸ÇÔ

  00632	8d 45 dc	 lea	 eax, DWORD PTR $T1[ebp]
  00635	50		 push	 eax
  00636	8d 45 e8	 lea	 eax, DWORD PTR $T5[ebp]
  00639	50		 push	 eax
; File C:\IAGOS\server\v18\Source\Source\_Common\Obj.h

; 215  : 	D3DXVECTOR3		GetPos()	{ return m_vPos; }

  0063a	f3 0f 7e 86 60
	01 00 00	 movq	 xmm0, QWORD PTR [esi+352]
  00642	66 0f d6 45 dc	 movq	 QWORD PTR $T1[ebp], xmm0
  00647	f3 0f 7e 87 60
	01 00 00	 movq	 xmm0, QWORD PTR [edi+352]
; File C:\IAGOS\server\v18\Source\Source\_Common\ctrl.cpp

; 1280 : 								FLOAT fDest = fTotalLen / ((CMover*)this)->GetAttackRange( AR_HRANGE );

  0064f	d9 5d 14	 fstp	 DWORD PTR _fDest$8[ebp]
; File C:\IAGOS\server\v18\Source\Source\_Common\Obj.h

; 215  : 	D3DXVECTOR3		GetPos()	{ return m_vPos; }

  00652	66 0f d6 45 e8	 movq	 QWORD PTR $T5[ebp], xmm0
; File C:\IAGOS\server\v18\Source\Source\_Common\ctrl.cpp

; 1283 : 									FLOAT fAngle = GetDegree( pTarget->GetPos(), pSrc->GetPos() );	// ˝ĂŔüŔÚżÍ Ĺ¸°ŮŔÇ °˘µµ¸¦ ±¸ÇÔ

  00657	e8 00 00 00 00	 call	 ?GetDegree@@YAMABUD3DXVECTOR3@@0@Z ; GetDegree
  0065c	66 0f 6e 4d f8	 movd	 xmm1, DWORD PTR tv1507[ebp]

; 1284 : 									AngleToVectorXZ( &pTarget->m_pActMover->m_vDeltaE, fAngle, fPullingLen * -fDest);

  00661	f3 0f 10 45 14	 movss	 xmm0, DWORD PTR _fDest$8[ebp]
  00666	0f 57 05 00 00
	00 00		 xorps	 xmm0, DWORD PTR __xmm@80000000800000008000000080000000
  0066d	8b b7 38 02 00
	00		 mov	 esi, DWORD PTR [edi+568]
  00673	0f 5b c9	 cvtdq2ps xmm1, xmm1
  00676	d9 5d 20	 fstp	 DWORD PTR _fAngle$11[ebp]
  00679	f3 0f 59 0d 00
	00 00 00	 mulss	 xmm1, DWORD PTR __real@3a83126f
  00681	f3 0f 59 c8	 mulss	 xmm1, xmm0
; File C:\IAGOS\server\v18\Source\Source\_Common\XUtil3D.h

; 39   : 	fAngXZ = D3DXToRadian(fAngXZ);

  00685	f3 0f 10 45 20	 movss	 xmm0, DWORD PTR _fAngle$11[ebp]
  0068a	f3 0f 59 05 00
	00 00 00	 mulss	 xmm0, DWORD PTR __real@3c8efa35
; File C:\IAGOS\server\v18\Source\Source\_Common\ctrl.cpp

; 1284 : 									AngleToVectorXZ( &pTarget->m_pActMover->m_vDeltaE, fAngle, fPullingLen * -fDest);

  00692	f3 0f 11 4d 14	 movss	 DWORD PTR _fSpeed$1$[ebp], xmm1
; File C:\Program Files (x86)\Windows Kits\10\Include\10.0.26100.0\ucrt\corecrt_math.h

; 789  :             return (float)sin(_X);

  00697	0f 5a c0	 cvtps2pd xmm0, xmm0
  0069a	f2 0f 11 45 f4	 movsd	 QWORD PTR tv1482[ebp], xmm0
  0069f	e8 00 00 00 00	 call	 __libm_sse2_sin_precise
  006a4	0f 57 c9	 xorps	 xmm1, xmm1
  006a7	f2 0f 5a c8	 cvtsd2ss xmm1, xmm0

; 683  :             return (float)cos(_X);

  006ab	f2 0f 10 45 f4	 movsd	 xmm0, QWORD PTR tv1482[ebp]
; File C:\IAGOS\server\v18\Source\Source\_Common\XUtil3D.h

; 40   : 	vDelta->x = sinf(fAngXZ) * fSpeed;

  006b0	f3 0f 59 4d 14	 mulss	 xmm1, DWORD PTR _fSpeed$1$[ebp]
  006b5	f3 0f 11 4e 5c	 movss	 DWORD PTR [esi+92], xmm1
; File C:\Program Files (x86)\Windows Kits\10\Include\10.0.26100.0\ucrt\corecrt_math.h

; 683  :             return (float)cos(_X);

  006ba	e8 00 00 00 00	 call	 __libm_sse2_cos_precise
; File C:\IAGOS\server\v18\Source\Source\_Common\XUtil3D.h

; 41   : 	vDelta->z = -cosf(fAngXZ) * fSpeed;

  006bf	f3 0f 10 4d 14	 movss	 xmm1, DWORD PTR _fSpeed$1$[ebp]
; File C:\Program Files (x86)\Windows Kits\10\Include\10.0.26100.0\ucrt\corecrt_math.h

; 683  :             return (float)cos(_X);

  006c4	f2 0f 5a c0	 cvtsd2ss xmm0, xmm0
; File C:\IAGOS\server\v18\Source\Source\_Common\XUtil3D.h

; 42   : 	vDelta->y = 0;

  006c8	c7 46 60 00 00
	00 00		 mov	 DWORD PTR [esi+96], 0
; File C:\IAGOS\server\v18\Source\Source\_Common\ctrl.cpp

; 1285 : 									g_UserMng.AddPushPower( pTarget, pTarget->GetPos(), pTarget->GetAngle(), fAngle, fPullingLen * -fDest );

  006cf	f3 0f 11 4c 24
	04		 movss	 DWORD PTR [esp+4], xmm1
; File C:\IAGOS\server\v18\Source\Source\_Common\XUtil3D.h

; 41   : 	vDelta->z = -cosf(fAngXZ) * fSpeed;

  006d5	0f 57 05 00 00
	00 00		 xorps	 xmm0, DWORD PTR __xmm@80000000800000008000000080000000
  006dc	f3 0f 59 c1	 mulss	 xmm0, xmm1
  006e0	f3 0f 11 46 64	 movss	 DWORD PTR [esi+100], xmm0
; File C:\IAGOS\server\v18\Source\Source\_Common\ctrl.cpp

; 1285 : 									g_UserMng.AddPushPower( pTarget, pTarget->GetPos(), pTarget->GetAngle(), fAngle, fPullingLen * -fDest );

  006e5	f3 0f 10 45 20	 movss	 xmm0, DWORD PTR _fAngle$11[ebp]
  006ea	f3 0f 11 04 24	 movss	 DWORD PTR [esp], xmm0
  006ef	f3 0f 10 47 18	 movss	 xmm0, DWORD PTR [edi+24]
  006f4	83 ec 10	 sub	 esp, 16			; 00000010H
  006f7	8b 87 68 01 00
	00		 mov	 eax, DWORD PTR [edi+360]
  006fd	8b cc		 mov	 ecx, esp
  006ff	f3 0f 11 44 24
	0c		 movss	 DWORD PTR [esp+12], xmm0
  00705	f3 0f 7e 87 60
	01 00 00	 movq	 xmm0, QWORD PTR [edi+352]
  0070d	66 0f d6 01	 movq	 QWORD PTR [ecx], xmm0
  00711	89 41 08	 mov	 DWORD PTR [ecx+8], eax
  00714	b9 00 00 00 00	 mov	 ecx, OFFSET ?g_UserMng@@3VCUserMng@@A ; g_UserMng
  00719	57		 push	 edi
  0071a	e8 00 00 00 00	 call	 ?AddPushPower@CUserMng@@QAEXPAVCMover@@UD3DXVECTOR3@@MMM@Z ; CUserMng::AddPushPower
  0071f	8b 75 0c	 mov	 esi, DWORD PTR _pSkillProp$[ebp]
$LN158@ApplySkill:

; 1286 : 								}
; 1287 : 							}
; 1288 : 						}
; 1289 : 					}
; 1290 : 				}
; 1291 : 			#endif // __WORLDSERVER
; 1292 : 			} // if( bNew )
; 1293 : 
; 1294 : 		#ifdef __WORLDSERVER
; 1295 : 			if( pSkillProp->dwID == SI_GEN_FLASH && GetType() == OT_MOVER && ((CMover *)this)->IsPlayer() )

  00722	8b 55 10	 mov	 edx, DWORD PTR _pAddSkillProp$[ebp]
$LN63@ApplySkill:
  00725	81 3e bb 00 00
	00		 cmp	 DWORD PTR [esi], 187	; 000000bbH
  0072b	75 21		 jne	 SHORT $LN65@ApplySkill
  0072d	83 bf 70 01 00
	00 05		 cmp	 DWORD PTR [edi+368], 5
  00734	75 18		 jne	 SHORT $LN65@ApplySkill
  00736	83 bf 30 02 00
	00 00		 cmp	 DWORD PTR [edi+560], 0
  0073d	74 0f		 je	 SHORT $LN65@ApplySkill

; 1296 : 			{
; 1297 : 				((CUser *)this)->AddCommonSkill( pSkillProp->dwID, pAddSkillProp->dwSkillLvl );

  0073f	ff 72 08	 push	 DWORD PTR [edx+8]
  00742	8b cf		 mov	 ecx, edi
  00744	68 bb 00 00 00	 push	 187			; 000000bbH
  00749	e8 00 00 00 00	 call	 ?AddCommonSkill@CUser@@QAEXKK@Z ; CUser::AddCommonSkill
$LN65@ApplySkill:

; 1309 : 	}
; 1310 : 	#endif // __MA_VER11_06				// Č®Ŕ˛˝şĹł Čż°úĽöÁ¤ world,neuz
; 1311 : #endif	//__WORLDSERVER
; 1312 : 	#ifdef __WORLDSERVER
; 1313 : 		switch( pSkillProp->dwSpellRegion )

  0074e	8b 86 cc 01 00
	00		 mov	 eax, DWORD PTR [esi+460]
  00754	83 e8 02	 sub	 eax, 2
  00757	74 05		 je	 SHORT $LN67@ApplySkill
  00759	83 e8 05	 sub	 eax, 5
  0075c	75 50		 jne	 SHORT $LN72@ApplySkill
$LN67@ApplySkill:

; 1314 : 		{
; 1315 : #ifdef __YDEBUG
; 1316 : 		case SRO_DIRECT:
; 1317 : #endif //__YDEBUG
; 1318 : 		case SRO_AROUND:
; 1319 : 		case SRO_REGION:    // ąüŔ§°ř°ÝŔĎ¶© ż©±âĽ­ Ĺ¸°Ůµé °˘°˘żˇ sfxobj3¸¦ »Ń·ÁÁÜ.
; 1320 : 			if (pSkillProp->dwExeTarget == EXT_TROUPE || pSkillProp->dwExeTarget == EXT_TROUPEWITH)

  0075e	8b 86 c4 01 00
	00		 mov	 eax, DWORD PTR [esi+452]
  00764	83 f8 0d	 cmp	 eax, 13			; 0000000dH
  00767	74 12		 je	 SHORT $LN71@ApplySkill
  00769	83 f8 14	 cmp	 eax, 20			; 00000014H
  0076c	74 0d		 je	 SHORT $LN71@ApplySkill

; 1323 : 					g_UserMng.AddCreateSfxObj(this, pSkillProp->dwSfxObj3);
; 1324 : 			}
; 1325 : 			else if (pSkillProp->dwExeTarget != EXT_MAGICATKSHOT)

  0076e	83 f8 0e	 cmp	 eax, 14			; 0000000eH
  00771	74 3b		 je	 SHORT $LN72@ApplySkill

; 1326 : 			{
; 1327 : 				if (pSkillProp->dwSfxObj2 != NULL_ID)

  00773	8b 86 a8 01 00
	00		 mov	 eax, DWORD PTR [esi+424]

; 1328 : 					g_UserMng.AddCreateSfxObj(this, pSkillProp->dwSfxObj2);

  00779	eb 06		 jmp	 SHORT $LN241@ApplySkill
$LN71@ApplySkill:

; 1321 : 			{
; 1322 : 				if (pSkillProp->dwSfxObj3 != NULL_ID)

  0077b	8b 86 ac 01 00
	00		 mov	 eax, DWORD PTR [esi+428]
$LN241@ApplySkill:

; 1329 : 			}
; 1330 : 			break;
; 1331 : 		}
; 1332 : 
; 1333 : 		// żążÜĂł¸®: °­Ĺ»˝şĹł - ĆäłÄ¸¦ ČÉÄˇ¸éĽ­ µĄąĚÁö¸¦ ÁŘ´Ů
; 1334 : 		if( pSkillProp->dwID == SI_ACR_YOYO_SNITCH )

  00781	83 f8 ff	 cmp	 eax, -1
  00784	74 28		 je	 SHORT $LN72@ApplySkill
  00786	6a 00		 push	 0
  00788	83 ec 0c	 sub	 esp, 12			; 0000000cH
  0078b	b9 00 00 00 00	 mov	 ecx, OFFSET ?g_UserMng@@3VCUserMng@@A ; g_UserMng
  00790	c7 44 24 08 00
	00 00 00	 mov	 DWORD PTR [esp+8], 0
  00798	c7 44 24 04 00
	00 00 00	 mov	 DWORD PTR [esp+4], 0
  007a0	c7 04 24 00 00
	00 00		 mov	 DWORD PTR [esp], 0
  007a7	50		 push	 eax
  007a8	57		 push	 edi
  007a9	e8 00 00 00 00	 call	 ?AddCreateSfxObj@CUserMng@@QAEXPAVCCtrl@@KMMMH@Z ; CUserMng::AddCreateSfxObj
$LN72@ApplySkill:
  007ae	81 3e cb 00 00
	00		 cmp	 DWORD PTR [esi], 203	; 000000cbH
  007b4	0f 85 94 00 00
	00		 jne	 $LN83@ApplySkill

; 1335 : 		{
; 1336 : 			// pSrc - °ř°ÝŔÚ ÇĂ·ąŔĚľî, this - ÇÇ°ř°ÝŔÚ ¸ó˝şĹÍ 
; 1337 : 			// ÇÇ°ř°ÝŔÚ ŔÜľ×ŔĚ 0ŔĚ ľĆ´Ď¸é °­Ĺ» ÇŃ´Ů.
; 1338 : 			CUser* pUser = (CUser*)pSrc;
; 1339 : 			CUser* pDest = (CUser*)this;
; 1340 : 			if( pDest->GetType() == OT_MOVER && pDest->GetGold() > 0 )

  007ba	83 bf 70 01 00
	00 05		 cmp	 DWORD PTR [edi+368], 5
  007c1	0f 85 87 00 00
	00		 jne	 $LN83@ApplySkill
  007c7	8b 97 e0 14 00
	00		 mov	 edx, DWORD PTR [edi+5344]
  007cd	85 d2		 test	 edx, edx
  007cf	7e 7d		 jle	 SHORT $LN83@ApplySkill

; 1341 : 			{
; 1342 : 				int nPlus = (pDest->GetLevel()*20) - (pUser->GetLevel()*10);

  007d1	8b 75 08	 mov	 esi, DWORD PTR _pSrc$[ebp]
  007d4	8b 87 d8 05 00
	00		 mov	 eax, DWORD PTR [edi+1496]
  007da	03 c0		 add	 eax, eax
  007dc	8b 8e d8 05 00
	00		 mov	 ecx, DWORD PTR [esi+1496]
  007e2	2b c1		 sub	 eax, ecx
  007e4	8d 04 80	 lea	 eax, DWORD PTR [eax+eax*4]
  007e7	03 c0		 add	 eax, eax

; 1343 : 				
; 1344 : 				if( pUser->GetLevel() <= 20 )

  007e9	83 f9 14	 cmp	 ecx, 20			; 00000014H
  007ec	7e 31		 jle	 SHORT $LN82@ApplySkill

; 1345 : 				{
; 1346 : 				}
; 1347 : 				else
; 1348 : 				if( pUser->GetLevel() <= 30 )

  007ee	66 0f 6e c0	 movd	 xmm0, eax
  007f2	0f 5b c0	 cvtdq2ps xmm0, xmm0
  007f5	83 f9 1e	 cmp	 ecx, 30			; 0000001eH
  007f8	7f 0a		 jg	 SHORT $LN79@ApplySkill

; 1349 : 				{
; 1350 : 					nPlus	= (int)( nPlus * 0.7f );

  007fa	f3 0f 59 05 00
	00 00 00	 mulss	 xmm0, DWORD PTR __real@3f333333

; 1351 : 				}

  00802	eb 17		 jmp	 SHORT $LN242@ApplySkill
$LN79@ApplySkill:

; 1352 : 				else
; 1353 : 				if( pUser->GetLevel() <= 40 )

  00804	83 f9 28	 cmp	 ecx, 40			; 00000028H
  00807	7f 0a		 jg	 SHORT $LN81@ApplySkill

; 1354 : 				{
; 1355 : 					nPlus	= (int)( nPlus * 0.5f );

  00809	f3 0f 59 05 00
	00 00 00	 mulss	 xmm0, DWORD PTR __real@3f000000

; 1356 : 				}

  00811	eb 08		 jmp	 SHORT $LN242@ApplySkill
$LN81@ApplySkill:

; 1357 : 				else
; 1358 : 				{
; 1359 : 					nPlus	= (int)( nPlus * 0.3f );

  00813	f3 0f 59 05 00
	00 00 00	 mulss	 xmm0, DWORD PTR __real@3e99999a
$LN242@ApplySkill:

; 1360 : 				}
; 1361 : 		
; 1362 : 				if( nPlus > 0 )

  0081b	f3 0f 2c c0	 cvttss2si eax, xmm0
$LN82@ApplySkill:
  0081f	85 c0		 test	 eax, eax
  00821	7e 2b		 jle	 SHORT $LN83@ApplySkill

; 1363 : 				{				
; 1364 : 					nPlus = min( nPlus, pDest->GetGold() );		// ÇÇ°ř°ÝŔÚ µ· ş¸´Ů´Â ¸ąÁö ľĘ°Ô 

  00823	3b c2		 cmp	 eax, edx

; 1365 : 					pUser->AddGold( nPlus );

  00825	8b ce		 mov	 ecx, esi
  00827	6a 01		 push	 1
  00829	0f 4d c2	 cmovge	 eax, edx
  0082c	50		 push	 eax
  0082d	89 45 14	 mov	 DWORD PTR _nPlus$2$[ebp], eax
  00830	e8 00 00 00 00	 call	 ?AddGold@CMover@@QAEHHH@Z ; CMover::AddGold

; 1366 : 					pDest->AddGold( -nPlus );

  00835	8b 45 14	 mov	 eax, DWORD PTR _nPlus$2$[ebp]
  00838	8b cf		 mov	 ecx, edi
  0083a	6a 01		 push	 1
  0083c	f7 d8		 neg	 eax
  0083e	50		 push	 eax
  0083f	e8 00 00 00 00	 call	 ?AddGold@CMover@@QAEHHH@Z ; CMover::AddGold

; 1367 : 
; 1368 : 					pUser->AddGoldText( nPlus );

  00844	ff 75 14	 push	 DWORD PTR _nPlus$2$[ebp]
  00847	8b ce		 mov	 ecx, esi
  00849	e8 00 00 00 00	 call	 ?AddGoldText@CUser@@QAEXH@Z ; CUser::AddGoldText
$LN83@ApplySkill:

; 1369 : 				}
; 1370 : 			}		
; 1371 : 		}
; 1372 : 	#endif	//__WORLDSERVER
; 1373 : } // ApplySkill

  0084e	5f		 pop	 edi
  0084f	5e		 pop	 esi
  00850	8b e5		 mov	 esp, ebp
  00852	5d		 pop	 ebp
  00853	c2 1c 00	 ret	 28			; 0000001cH
  00856	66 90		 npad	 2
$LN150@ApplySkill:
  00858	00 00 00 00	 DD	 $LN49@ApplySkill
  0085c	00 00 00 00	 DD	 $LN51@ApplySkill
  00860	00 00 00 00	 DD	 $LN51@ApplySkill
$LN149@ApplySkill:
  00864	00		 DB	 0
  00865	01		 DB	 1
  00866	02		 DB	 2
  00867	02		 DB	 2
  00868	02		 DB	 2
  00869	02		 DB	 2
  0086a	01		 DB	 1
  0086b	01		 DB	 1
  0086c	01		 DB	 1
?ApplySkill@CCtrl@@QAEXPAV1@PAUItemProp@@PAUAddSkillProp@@_NHHH@Z ENDP ; CCtrl::ApplySkill
_TEXT	ENDS
; Function compile flags: /Ogtp
; File C:\IAGOS\server\v18\Source\Source\_Common\ctrl.cpp
;	COMDAT ?IsPossibleApplySkill@CCtrl@@QAEHPAV1@PAUItemProp@@PAUAddSkillProp@@@Z
_TEXT	SEGMENT
_pSrc$ = 8						; size = 4
_pSkillProp$ = 12					; size = 4
_pAddSkillProp$ = 16					; size = 4
?IsPossibleApplySkill@CCtrl@@QAEHPAV1@PAUItemProp@@PAUAddSkillProp@@@Z PROC ; CCtrl::IsPossibleApplySkill, COMDAT
; _this$ = ecx

; 1043 : 	return TRUE;

  00000	b8 01 00 00 00	 mov	 eax, 1

; 1044 : }

  00005	c2 0c 00	 ret	 12			; 0000000cH
?IsPossibleApplySkill@CCtrl@@QAEHPAV1@PAUItemProp@@PAUAddSkillProp@@@Z ENDP ; CCtrl::IsPossibleApplySkill
_TEXT	ENDS
; Function compile flags: /Ogtp
; File C:\IAGOS\server\v18\Source\Source\_Common\ctrl.cpp
;	COMDAT ?ApplyDamage@CCtrl@@QAEHPAV1@PAUItemProp@@PAUAddSkillProp@@HH@Z
_TEXT	SEGMENT
_pSrc$ = 8						; size = 4
tv266 = 8						; size = 4
_pSkillProp$ = 12					; size = 4
_pAddSkillProp$ = 16					; size = 4
_nParam$ = 20						; size = 4
_bTarget$ = 24						; size = 4
?ApplyDamage@CCtrl@@QAEHPAV1@PAUItemProp@@PAUAddSkillProp@@HH@Z PROC ; CCtrl::ApplyDamage, COMDAT
; _this$ = ecx

; 1010 : {

  00000	55		 push	 ebp
  00001	8b ec		 mov	 ebp, esp
  00003	53		 push	 ebx
  00004	8b 5d 08	 mov	 ebx, DWORD PTR _pSrc$[ebp]
  00007	56		 push	 esi

; 1011 : 	int nDamage = 0;
; 1012 : 	// µĄąĚÁö·ů ˝şĹłŔÇ µĄąĚÁö Ŕü´Ţ.
; 1013 : 	switch( pSkillProp->dwExeTarget )

  00008	8b 75 0c	 mov	 esi, DWORD PTR _pSkillProp$[ebp]
  0000b	57		 push	 edi
  0000c	8b f9		 mov	 edi, ecx
  0000e	8b 96 c4 01 00
	00		 mov	 edx, DWORD PTR [esi+452]
  00014	83 fa 04	 cmp	 edx, 4
  00017	74 13		 je	 SHORT $LN4@ApplyDamag
  00019	83 fa 0e	 cmp	 edx, 14			; 0000000eH
  0001c	74 0e		 je	 SHORT $LN4@ApplyDamag
  0001e	83 fa 11	 cmp	 edx, 17			; 00000011H
  00021	74 09		 je	 SHORT $LN4@ApplyDamag

; 1031 : 				else											nDamage = SendDamage( nAtkFlag, pSrc->GetId(), (pSkillProp->dwID << 16) | pAddSkillProp->dwSkillLvl, bTarget );
; 1032 : 			}
; 1033 : 		}
; 1034 : 		break;
; 1035 : 	}
; 1036 : 
; 1037 : 	return nDamage;
; 1038 : }

  00023	5f		 pop	 edi
  00024	5e		 pop	 esi
  00025	33 c0		 xor	 eax, eax
  00027	5b		 pop	 ebx
  00028	5d		 pop	 ebp
  00029	c2 14 00	 ret	 20			; 00000014H
$LN4@ApplyDamag:

; 1014 : 	{
; 1015 : 	case EXT_MELEEATK:		// ±ŮÁ˘˝şĹłµĄąĚÁö°ř°Ý
; 1016 : 	case EXT_MAGICATK:			// Áď˝Ă¸¶ąýµĄąĚÁö°ř°Ý
; 1017 : 	case EXT_MAGICATKSHOT:
; 1018 : 		{
; 1019 : 			if( pSkillProp->dwID == SI_MAG_FIRE_HOTAIR )	// ÇÖżˇľî ¶«»§Ăł¸®.

  0002c	8b 0e		 mov	 ecx, DWORD PTR [esi]
  0002e	ff 75 18	 push	 DWORD PTR _bTarget$[ebp]
  00031	83 f9 41	 cmp	 ecx, 65			; 00000041H
  00034	75 19		 jne	 SHORT $LN7@ApplyDamag

; 1020 : 			{
; 1021 : 				nDamage = SendDamage( AF_MAGICSKILL, pSrc->GetId(), nParam, bTarget );

  00036	ff 75 14	 push	 DWORD PTR _nParam$[ebp]
  00039	ff b3 bc 01 00
	00		 push	 DWORD PTR [ebx+444]
  0003f	6a 20		 push	 32			; 00000020H
$LN20@ApplyDamag:

; 1031 : 				else											nDamage = SendDamage( nAtkFlag, pSrc->GetId(), (pSkillProp->dwID << 16) | pAddSkillProp->dwSkillLvl, bTarget );
; 1032 : 			}
; 1033 : 		}
; 1034 : 		break;
; 1035 : 	}
; 1036 : 
; 1037 : 	return nDamage;
; 1038 : }

  00041	8b 07		 mov	 eax, DWORD PTR [edi]
  00043	8b cf		 mov	 ecx, edi
  00045	ff 50 34	 call	 DWORD PTR [eax+52]
  00048	5f		 pop	 edi
  00049	5e		 pop	 esi
  0004a	5b		 pop	 ebx
  0004b	5d		 pop	 ebp
  0004c	c2 14 00	 ret	 20			; 00000014H
$LN7@ApplyDamag:

; 1022 : 			} else
; 1023 : 			{
; 1024 : 				int nAtkFlag = 0;
; 1025 : 				if( pSkillProp->dwSkillType == KT_MAGIC )
; 1026 : 					nAtkFlag = AF_MAGICSKILL;
; 1027 : 				else
; 1028 : 					nAtkFlag = AF_MELEESKILL;
; 1029 : 				
; 1030 : 				if( pSkillProp->dwComboStyle == CT_FINISH )		nDamage = SendDamageForce( nAtkFlag, pSrc->GetId(), (pSkillProp->dwID << 16) | pAddSkillProp->dwSkillLvl, bTarget );

  0004f	83 be e8 01 00
	00 01		 cmp	 DWORD PTR [esi+488], 1
  00056	b8 10 00 00 00	 mov	 eax, 16			; 00000010H
  0005b	8b 9b bc 01 00
	00		 mov	 ebx, DWORD PTR [ebx+444]
  00061	ba 20 00 00 00	 mov	 edx, 32			; 00000020H
  00066	0f 45 d0	 cmovne	 edx, eax
  00069	8b 45 10	 mov	 eax, DWORD PTR _pAddSkillProp$[ebp]
  0006c	c1 e1 10	 shl	 ecx, 16			; 00000010H
  0006f	8b 40 08	 mov	 eax, DWORD PTR [eax+8]
  00072	0b c8		 or	 ecx, eax
  00074	83 be 18 02 00
	00 03		 cmp	 DWORD PTR [esi+536], 3
  0007b	51		 push	 ecx
  0007c	53		 push	 ebx
  0007d	52		 push	 edx
  0007e	75 c1		 jne	 SHORT $LN20@ApplyDamag
  00080	8b 07		 mov	 eax, DWORD PTR [edi]
  00082	8b cf		 mov	 ecx, edi
  00084	ff 50 38	 call	 DWORD PTR [eax+56]
  00087	5f		 pop	 edi

; 1031 : 				else											nDamage = SendDamage( nAtkFlag, pSrc->GetId(), (pSkillProp->dwID << 16) | pAddSkillProp->dwSkillLvl, bTarget );
; 1032 : 			}
; 1033 : 		}
; 1034 : 		break;
; 1035 : 	}
; 1036 : 
; 1037 : 	return nDamage;
; 1038 : }

  00088	5e		 pop	 esi
  00089	5b		 pop	 ebx
  0008a	5d		 pop	 ebp
  0008b	c2 14 00	 ret	 20			; 00000014H
?ApplyDamage@CCtrl@@QAEHPAV1@PAUItemProp@@PAUAddSkillProp@@HH@Z ENDP ; CCtrl::ApplyDamage
_TEXT	ENDS
; Function compile flags: /Ogtp
; File C:\IAGOS\server\v18\Source\Source\_Common\ctrl.cpp
;	COMDAT ?CreateSkillSfx@CCtrl@@QAEXPAV1@PAUItemProp@@PAUAddSkillProp@@@Z
_TEXT	SEGMENT
_pTarget$ = 8						; size = 4
_pSkillProp$ = 12					; size = 4
_pAddSkillProp$ = 16					; size = 4
?CreateSkillSfx@CCtrl@@QAEXPAV1@PAUItemProp@@PAUAddSkillProp@@@Z PROC ; CCtrl::CreateSkillSfx, COMDAT
; _this$ = ecx

; 888  : #ifdef __CLIENT
; 889  : 		
; 890  : 	{
; 891  : 		// ąß»çĂĽ ÇüĹÂ°ˇ ľĆ´Ď´Ů.
; 892  : 		CSfx *pSfx = NULL;
; 893  : 		if( (int)pAddSkillProp->dwSkillTime > 0 )	// ÁöĽÓ˝Ă°ŁŔĚ ŔÖ´Â ˝şĹłŔş
; 894  : 		{
; 895  : 			if( pSkillProp->dwSfxObj4 == NULL_ID )		// ŔĚĆĺŔĚ ŔŻÁöµÇ´Â ˝şĹłŔĚ ľĆ´Ň°ćżěżˇ¸¸.
; 896  : 			{
; 897  : 				if( pSkillProp->dwExeTarget == EXT_MELEEATK )
; 898  : 				{
; 899  : 					D3DXVECTOR3 vLocal;
; 900  : 					
; 901  : 					if( pSkillProp->dwLinkKind == IK3_YOYO )
; 902  : 					{
; 903  : 						vLocal = pTarget->GetPos();
; 904  : 						vLocal.y += 1.0f;
; 905  : 					}
; 906  : 					else
; 907  : 					{
; 908  : 						AngleToVectorXZ( &vLocal, GetAngle(), 1.3f );	// ¶§¸®´ÂąćÇâ 1ąĚĹÍľŐ.
; 909  : 						vLocal += GetPos();
; 910  : 						vLocal.y += 1.0f;
; 911  : 					}
; 912  : 
; 913  : 					pSfx = CreateSfx( D3DDEVICE, pSkillProp->dwSfxObj3, GetPos(), GetId(), vLocal, pTarget->GetId(), 0 );
; 914  : 					
; 915  : 					if( pSkillProp->dwSfxObj5 != NULL_ID )		// ˝ĂŔüŔÚżˇ°Ô ąß»ý
; 916  : 						pSfx = CreateSfx( D3DDEVICE, pSkillProp->dwSfxObj5, GetPos(), GetId(), this->GetPos(), this->GetId(), 0 );  // 5ąř ŔĚĆĺĆ®¸¦ Ăâ·ÂÇÔ.
; 917  : 				} else
; 918  : 				{
; 919  : 					if( pSkillProp->dwSfxObj3 != NULL_ID )		// Ĺ¸°Ůżˇ°Ô ąß»ý
; 920  : 						pSfx = CreateSfx( D3DDEVICE, pSkillProp->dwSfxObj3, GetPos(), GetId(), pTarget->GetPos(), pTarget->GetId(), 0 );  // 3ąř ŔĚĆĺĆ®¸¦ Ăâ·ÂÇÔ.
; 921  : 					if( pSkillProp->dwSfxObj5 != NULL_ID )		// ˝ĂŔüŔÚżˇ°Ô ąß»ý
; 922  : 						pSfx = CreateSfx( D3DDEVICE, pSkillProp->dwSfxObj5, GetPos(), GetId(), this->GetPos(), this->GetId(), 0 );  // 5ąř ŔĚĆĺĆ®¸¦ Ăâ·ÂÇÔ.
; 923  : 				}
; 924  : 
; 925  : 				if( pSkillProp->dwLinkKind == IK3_YOYO )  //żäżä´Â ľĆŔĚĹŰÇÁ·ÎĆŰĆĽÂüÁ¶ÇĎż© ŔĚĆĺĆ® »ýĽş(żążÜĂł¸®)
; 926  : 				{
; 927  : 				#ifdef __CLIENT
; 928  : 					CreateYoyoSkill( pSfx, pTarget, pSkillProp, pAddSkillProp );
; 929  : 				#endif
; 930  : 				}
; 931  : 			} else
; 932  : 			{
; 933  : 				if( GetType() == OT_MOVER )
; 934  : 				{
; 935  : 					if( pSkillProp->dwSkillType == NULL_ID )	// NULL_ID¸é ľĆŔĚĹŰµé
; 936  : 					{
; 937  : 						if( ((CMover *)this)->HasBuff( BUFF_ITEM, (WORD)( pSkillProp->dwID ) ) == FALSE )	// ŔĚąĚ ˝ÇÇŕµÇ°í ŔÖÁö ľĘŔ»¶§¸¸ ŔĚĆĺ Ăâ·Â
; 938  : 							CreateSfx( D3DDEVICE, pSkillProp->dwSfxObj4, this->GetPos(), this->GetId(), pTarget->GetPos(), pTarget->GetId(), (int)(pAddSkillProp->dwSkillTime / 1000.0f) );
; 939  : 					} else
; 940  : 					{
; 941  : 						// ŔĚąĚ ˝ÇÇŕµÇ°í ŔÖÁö ľĘŔ»¶§¸¸ ŔĚĆĺ Ăâ·Â
; 942  : 						if( ((CMover *)this)->HasBuff( BUFF_SKILL, (WORD)( pSkillProp->dwID ) ) == FALSE
; 943  : 							&& pSkillProp->dwID != SI_MER_SHIELD_PROTECTION && pSkillProp->dwID != SI_MER_SHIELD_PANBARRIER )	// 091022 mirchang - ż©±âĽ­ ¸ŐŔú »ýĽş ČÄ IBuff.ProcessżˇĽ­ sfx¸¦ ´Ů˝Ă »ýĽşÇĎ´Â ą®Á¦ ąß»ý. ¶«»§.
; 944  : 							CreateSfx( D3DDEVICE, pSkillProp->dwSfxObj4, this->GetPos(), this->GetId(), pTarget->GetPos(), pTarget->GetId(), (int)(pAddSkillProp->dwSkillTime / 1000.0f) );
; 945  : 					}
; 946  : 				}
; 947  : 			}
; 948  : 		} else
; 949  : 		{	// ÁöĽÓ˝Ă°Ł ľř´Â ˝şĹł
; 950  : 			if( pSkillProp->dwExeTarget == EXT_MELEEATK )	// ±ŮÁ˘°ř°Ý ˝şĹłŔÇ Ĺ¸°Ý ŔĚĆĺĆ®.
; 951  : 			{
; 952  : 				if( pSkillProp->dwSfxObj3 != NULL_ID )	
; 953  : 				{
; 954  : 					D3DXVECTOR3 vLocal;
; 955  : 
; 956  : 					if( pSkillProp->dwLinkKind == IK3_YOYO )
; 957  : 					{
; 958  : 						vLocal = pTarget->GetPos();
; 959  : 						vLocal.y += 1.0f;
; 960  : 					}
; 961  : 					else
; 962  : 					{
; 963  : 						AngleToVectorXZ( &vLocal, GetAngle(), 1.3f );	// ¶§¸®´ÂąćÇâ 1ąĚĹÍľŐ.
; 964  : 						vLocal += GetPos();		// GetPos()¸¦ thisżˇĽ­ pTargetŔ¸·Î ąŮ˛ĺ´Ů. 2006/6/20 xuzhu.
; 965  : 						vLocal.y += 1.0f;
; 966  : 					}
; 967  : 
; 968  : 					pSfx = CreateSfx( D3DDEVICE, pSkillProp->dwSfxObj3, vLocal, GetId(), vLocal, pTarget->GetId(), 0 );	// 2006/6/20 xuzhu °ˇ ąŮ˛Ţ.
; 969  : 				}
; 970  : 			} else
; 971  : 			{
; 972  : 				if( pSkillProp->dwSfxObj3 != NULL_ID )
; 973  : 				{
; 974  : 					D3DXVECTOR3 vPos = pTarget->GetPos();
; 975  : 					vPos.y += 1.0f;
; 976  : 					pSfx = CreateSfx( D3DDEVICE, pSkillProp->dwSfxObj3, GetPos(), GetId(), vPos, pTarget->GetId(), 0 );
; 977  : 				}
; 978  : 			}
; 979  : 
; 980  : 			if( pSkillProp->dwLinkKind == IK3_YOYO )  //żäżä´Â ľĆŔĚĹŰÇÁ·ÎĆŰĆĽÂüÁ¶ÇĎż© ŔĚĆĺĆ® »ýĽş(żążÜĂł¸®)
; 981  : 			{
; 982  : 			#ifdef __CLIENT
; 983  : 				CreateYoyoSkill( pSfx, pTarget, pSkillProp, pAddSkillProp );
; 984  : 			#endif
; 985  : 			}
; 986  : 			else
; 987  : 			if( pSkillProp->dwSfxObj5 != NULL_ID )		// ˝ĂŔüŔÚżˇ°Ô ąß»ý
; 988  : 				pSfx = CreateSfx( D3DDEVICE, pSkillProp->dwSfxObj5, GetPos(), GetId(), this->GetPos(), this->GetId(), 0 );  // 5ąř ŔĚĆĺĆ®´Â ˝ĂŔüŔÚ ŔÚ˝Ĺżˇ°Ô Ăâ·Â
; 989  : 		}
; 990  : 		if( pSfx )
; 991  : 		{
; 992  : 			D3DXVECTOR3 vPos = GetPos();
; 993  : 			PLAYSND( pSkillProp->dwSndAttack1, &vPos );		// ąß»ç Čż°úŔ˝.
; 994  : 		}
; 995  : 			
; 996  : 		//dwSkillRange
; 997  : 		if( pSkillProp->dwID == SI_GEN_FLASH && pSfx )
; 998  : 		{
; 999  : 			FLOAT fRange = 1.5f;
; 1000 : 			pSfx->SetScale(  D3DXVECTOR3(fRange, fRange, fRange) );
; 1001 : 		}
; 1002 : 	}
; 1003 : 	
; 1004 : #endif // Client
; 1005 : } // CreateSkillSfx

  00000	c2 0c 00	 ret	 12			; 0000000cH
?CreateSkillSfx@CCtrl@@QAEXPAV1@PAUItemProp@@PAUAddSkillProp@@@Z ENDP ; CCtrl::CreateSkillSfx
_TEXT	ENDS
; Function compile flags: /Ogtp
; File C:\IAGOS\server\v18\Source\Source\_Common\ctrl.cpp
;	COMDAT ?ShootSkill@CCtrl@@QAEHPAV1@PAUItemProp@@PAUAddSkillProp@@@Z
_TEXT	SEGMENT
_pTarget$ = 8						; size = 4
_pSkillProp$ = 12					; size = 4
_pAddSkillProp$ = 16					; size = 4
?ShootSkill@CCtrl@@QAEHPAV1@PAUItemProp@@PAUAddSkillProp@@@Z PROC ; CCtrl::ShootSkill, COMDAT
; _this$ = ecx

; 1455 : #ifdef __CLIENT
; 1456 : 	// ąß»çÇüĹÂ°ˇ ľĆ´Ď¸é ¸®ĹĎ
; 1457 : 	if( pSkillProp->dwExeTarget != EXT_MAGICATKSHOT 
; 1458 : 		&& pSkillProp->dwExeTarget != EXT_MAGICSHOT 
; 1459 : 		)	// ąß»çĂĽ sfx »ýĽş.
; 1460 : 		return 0;
; 1461 : 
; 1462 : 	DWORD dwShootObj;
; 1463 : 	{
; 1464 : 		dwShootObj = pSkillProp->dwSfxObj2;
; 1465 : 	}
; 1466 : 
; 1467 : 	if( dwShootObj != NULL_ID )
; 1468 : 	{
; 1469 : 		D3DXVECTOR3 vPos = GetPos();
; 1470 : 		
; 1471 : 		if( ((CMover*)this)->IsPlayer() )		
; 1472 : 		{
; 1473 : 			// ş¸żěżˇĽ­ łŞ°ˇ´Â Č­»ěŔş ¸î°ˇÁö ĽÂĆĂŔ» ÇŘÁÖŔÚ
; 1474 : 			if( pSkillProp->dwLinkKind == IK3_BOW )
; 1475 : 			{
; 1476 : 				// Č­»ěŔş żŢĽŐżˇ ż¬°á...
; 1477 : 				CModelObject *pModel = (CModelObject *)m_pModel;
; 1478 : 				pModel->GetHandPos( &vPos, PARTS_LWEAPON, GetMatrixWorld() );		// ÁÖ¸Ô żůµĺÁÂÇĄ ±¸ÇÔ		
; 1479 : 				vPos.y -=	1.0f;
; 1480 : 			}
; 1481 : 		}
; 1482 : 		
; 1483 : 		CSfxShoot *pShootSfx = CreateShootSfx( D3DDEVICE, dwShootObj, vPos, GetId(), D3DXVECTOR3(0,0,0), pTarget->GetId() );
; 1484 : 		if( pShootSfx )
; 1485 : 		{		
; 1486 : 			D3DXVECTOR3 vPos = GetPos();
; 1487 : 			PLAYSND( pSkillProp->dwSndAttack1, &vPos );		// ąß»ç Čż°úŔ˝.
; 1488 : 			
; 1489 : 			if( GetType() == OT_MOVER )
; 1490 : 			{
; 1491 : 				if( ((CMover *)this)->IsActiveMover() )		// g_pPlayer°ˇ ˝ň¶§¸¸ »ýĽşÇŘĽ­ ŔüĽŰ.
; 1492 : 				{
; 1493 : 					int idSfxHit = ++(((CMover *)this)->m_idSfxHit);	// Ĺ¬¶óżˇĽ­ ąß»çĂĽ°ˇ »ýĽşµČ Áď˝Ă ID¸¦ ¸¸µé°í ±×°ÍŔ» Ľ­ąö·Î ş¸łż.
; 1494 : 					int		nMaxDmgCnt = 1;
; 1495 : 					if( pSkillProp->tmContinuousPain != NULL_ID )		// ÁöĽÓ˝şĹłŔĚ ŔÖ´Â µĄąĚÁö ÇüĹÂ¸é
; 1496 : 						nMaxDmgCnt = (pAddSkillProp->dwSkillTime / pAddSkillProp->dwPainTime) + 1;		// ¸îąř µĄąĚÁö¸¦ ¸ÔłÄ.
; 1497 : 					
; 1498 : 					if( pSkillProp->dwSkillType == KT_SKILL )
; 1499 : 						g_DPlay.SendSfxID( pTarget->GetId(), idSfxHit, AF_MELEESKILL, NULL_ID, nMaxDmgCnt );
; 1500 : 					else
; 1501 : 						g_DPlay.SendSfxID( pTarget->GetId(), idSfxHit, AF_MAGICSKILL, NULL_ID, nMaxDmgCnt );
; 1502 : 					pShootSfx->m_idSfxHit	= idSfxHit;
; 1503 : 				}
; 1504 : 			}
; 1505 : 			pShootSfx->SetSkill( pSkillProp->dwID );
; 1506 : 			pShootSfx->m_nMagicPower	= pAddSkillProp->dwSkillLvl;	// ˝şĹł·ąş§Ŕş MagicPowerşŻĽö·Î °°ŔĚ˝áµµ µÉ°Ĺ °°´Ů.
; 1507 : 			pShootSfx->m_dwSfxHit = pSkillProp->dwSfxObj3;	// Ćřąß ŔĚĆĺĆ® µî·Ď.
; 1508 : 
; 1509 : 		}
; 1510 : 		// ÁöĽÓ˝Ă°ŁµżľČ ŔĚĆĺĆ®µµ ŔŻÁöµÇľîľß ÇĎ´Â°ÍŔş CSkillInfluence::Process()żˇĽ­ Ăł¸®ÇŃ´Ů.
; 1511 : 	} else
; 1512 : 		Error( "ShootSkill MAGICATKSHOT : %s dwSfxObj2°ˇ ÁöÁ¤µÇÁö ľĘŔ˝", pSkillProp->szName );
; 1513 : #endif // CLIENT
; 1514 : 	return 1;

  00000	b8 01 00 00 00	 mov	 eax, 1

; 1515 : }

  00005	c2 0c 00	 ret	 12			; 0000000cH
?ShootSkill@CCtrl@@QAEHPAV1@PAUItemProp@@PAUAddSkillProp@@@Z ENDP ; CCtrl::ShootSkill
_TEXT	ENDS
; Function compile flags: /Ogtp
; File C:\IAGOS\server\v18\Source\Source\_Common\ctrl.cpp
;	COMDAT ?TargetSelecter@CCtrl@@QAEHPAV1@@Z
_TEXT	SEGMENT
_pTarget$ = 8						; size = 4
?TargetSelecter@CCtrl@@QAEHPAV1@@Z PROC			; CCtrl::TargetSelecter, COMDAT
; _this$ = ecx

; 1520 : {

  00000	55		 push	 ebp
  00001	8b ec		 mov	 ebp, esp

; 1521 : 	int nApplyType = 0;
; 1522 : 	CCtrl *pSrc = this;
; 1523 : 
; 1524 : 	if( pTarget->GetType() == OT_MOVER )	// Ĺ¸°ŮŔĚ ą«ąöŔĎ¶§

  00003	8b 45 08	 mov	 eax, DWORD PTR _pTarget$[ebp]
  00006	83 b8 70 01 00
	00 05		 cmp	 DWORD PTR [eax+368], 5
  0000d	75 09		 jne	 SHORT $LN2@TargetSele

; 1536 : 		else
; 1537 : 		{	// °ř°ÝŔÚ°ˇ ÄÁĆ®·ŃŔĚłÄ
; 1538 : 			nApplyType = OBJTYPE_PLAYER;	// ÇĂ·ąŔĚľîżˇ°Ô Ŕűżë
; 1539 : 		}
; 1540 : 	}
; 1541 : 
; 1542 : 	return nApplyType;

  0000f	b8 03 00 00 00	 mov	 eax, 3

; 1543 : }

  00014	5d		 pop	 ebp
  00015	c2 04 00	 ret	 4
$LN2@TargetSele:

; 1525 : 	{
; 1526 : 		nApplyType = OBJTYPE_PLAYER | OBJTYPE_MONSTER;	// ÁÖŔ§ ÇĂ·ąŔĚľîµé/¸ó˝şĹÍżˇ°Ô Ŕűżë
; 1527 : 	}
; 1528 : 	else
; 1529 : 	{
; 1530 : 		// Ĺ¸°ŮŔĚ ÄÁĆ®·ŃŔĎ¶©
; 1531 : 		if( pSrc->GetType() == OT_MOVER )	// °ř°ÝŔÚ°ˇ ą«ąöłÄ

  00018	83 b9 70 01 00
	00 05		 cmp	 DWORD PTR [ecx+368], 5
  0001f	75 11		 jne	 SHORT $LN4@TargetSele

; 1532 : 		{
; 1533 : 			if( ((CMover *)pSrc)->IsPlayer() )		// °ř°ÝŔÚ°ˇ ÇĂ·ąŔĚľî¸é
; 1534 : 				nApplyType = OBJTYPE_PLAYER | OBJTYPE_CTRL | OBJTYPE_MONSTER;	// ÁÖŔ§ ¸ó˝şĹÍżÍ ÄÁĆ®·Ńżˇ°Ô Ŕűżë.
; 1535 : 		}

  00021	8b 81 30 02 00
	00		 mov	 eax, DWORD PTR [ecx+560]
  00027	f7 d8		 neg	 eax
  00029	1b c0		 sbb	 eax, eax
  0002b	83 e0 07	 and	 eax, 7

; 1543 : }

  0002e	5d		 pop	 ebp
  0002f	c2 04 00	 ret	 4
$LN4@TargetSele:

; 1536 : 		else
; 1537 : 		{	// °ř°ÝŔÚ°ˇ ÄÁĆ®·ŃŔĚłÄ
; 1538 : 			nApplyType = OBJTYPE_PLAYER;	// ÇĂ·ąŔĚľîżˇ°Ô Ŕűżë
; 1539 : 		}
; 1540 : 	}
; 1541 : 
; 1542 : 	return nApplyType;

  00032	b8 01 00 00 00	 mov	 eax, 1

; 1543 : }

  00037	5d		 pop	 ebp
  00038	c2 04 00	 ret	 4
?TargetSelecter@CCtrl@@QAEHPAV1@@Z ENDP			; CCtrl::TargetSelecter
_TEXT	ENDS
; Function compile flags: /Ogtp
; File C:\IAGOS\server\v18\Source\Source\_Common\ctrl.cpp
;	COMDAT ?Read@CCtrl@@UAEHPAVCFileIO@@@Z
_TEXT	SEGMENT
_pFile$ = 8						; size = 4
?Read@CCtrl@@UAEHPAVCFileIO@@@Z PROC			; CCtrl::Read, COMDAT
; _this$ = ecx

; 86   : {

  00000	55		 push	 ebp
  00001	8b ec		 mov	 ebp, esp

; 88   : }

  00003	5d		 pop	 ebp

; 87   : 	return CObj::Read( pFile );

  00004	e9 00 00 00 00	 jmp	 ?Read@CObj@@UAEHPAVCFileIO@@@Z ; CObj::Read
?Read@CCtrl@@UAEHPAVCFileIO@@@Z ENDP			; CCtrl::Read
_TEXT	ENDS
; Function compile flags: /Ogtp
; File C:\IAGOS\server\v18\Source\Source\_Common\ctrl.cpp
;	COMDAT ?Render@CCtrl@@UAEXPAUIDirect3DDevice9@@@Z
_TEXT	SEGMENT
_pd3dDevice$ = 8					; size = 4
?Render@CCtrl@@UAEXPAUIDirect3DDevice9@@@Z PROC		; CCtrl::Render, COMDAT
; _this$ = ecx

; 81   : {

  00000	55		 push	 ebp
  00001	8b ec		 mov	 ebp, esp

; 83   : }

  00003	5d		 pop	 ebp

; 82   : 	CObj::Render( pd3dDevice );

  00004	e9 00 00 00 00	 jmp	 ?Render@CObj@@UAEXPAUIDirect3DDevice9@@@Z ; CObj::Render
?Render@CCtrl@@UAEXPAUIDirect3DDevice9@@@Z ENDP		; CCtrl::Render
_TEXT	ENDS
; Function compile flags: /Ogtp
; File C:\IAGOS\server\v18\Source\Source\_Common\ctrl.cpp
;	COMDAT ?Process@CCtrl@@UAEXXZ
_TEXT	SEGMENT
?Process@CCtrl@@UAEXXZ PROC				; CCtrl::Process, COMDAT
; _this$ = ecx

; 73   : {

  00000	56		 push	 esi
  00001	8b f1		 mov	 esi, ecx

; 74   : 	CObj::Process();

  00003	e8 00 00 00 00	 call	 ?Process@CObj@@UAEXXZ	; CObj::Process

; 75   : #ifdef __WORLDSERVER
; 76   : 	ProcessDeleteRespawn();

  00008	8b ce		 mov	 ecx, esi
  0000a	5e		 pop	 esi
  0000b	e9 00 00 00 00	 jmp	 ?ProcessDeleteRespawn@CCtrl@@QAEHXZ ; CCtrl::ProcessDeleteRespawn
?Process@CCtrl@@UAEXXZ ENDP				; CCtrl::Process
_TEXT	ENDS
; Function compile flags: /Ogtp
; File C:\IAGOS\server\v18\Source\Source\_Common\ctrl.cpp
; File C:\IAGOS\server\v18\Source\Source\_Network\Misc\Include\ObjMap.h
; File C:\IAGOS\server\v18\Source\Source\_Common\ctrl.cpp
;	COMDAT ?RemoveItFromGlobalId@CCtrl@@UAEXXZ
_TEXT	SEGMENT
_dwKey$ = -32						; size = 4
$T1 = -28						; size = 24
__$ArrayPad$ = -4					; size = 4
?RemoveItFromGlobalId@CCtrl@@UAEXXZ PROC		; CCtrl::RemoveItFromGlobalId, COMDAT
; _this$ = ecx

; 129  : {

  00000	55		 push	 ebp
  00001	8b ec		 mov	 ebp, esp
  00003	83 ec 20	 sub	 esp, 32			; 00000020H
  00006	a1 00 00 00 00	 mov	 eax, DWORD PTR ___security_cookie
  0000b	33 c5		 xor	 eax, ebp
  0000d	89 45 fc	 mov	 DWORD PTR __$ArrayPad$[ebp], eax
  00010	56		 push	 esi
  00011	8b f1		 mov	 esi, ecx

; 130  : 	if( m_objid == NULL_ID )	

  00013	8b 86 bc 01 00
	00		 mov	 eax, DWORD PTR [esi+444]
  00019	83 f8 ff	 cmp	 eax, -1
  0001c	74 70		 je	 SHORT $LN5@RemoveItFr

; 131  : 		return;
; 132  : 
; 133  : 	prj.m_objmap.RemoveKey( m_objid );

  0001e	89 45 e0	 mov	 DWORD PTR _dwKey$[ebp], eax
; File C:\IAGOS\server\v18\Source\Source\_Network\Misc\Include\ObjMap.h

; 95   : 	return m_map.erase( dwKey ) > 0;

  00021	b9 60 00 00 00	 mov	 ecx, OFFSET ?prj@@3VCProject@@A+96
  00026	8d 45 e0	 lea	 eax, DWORD PTR _dwKey$[ebp]
  00029	50		 push	 eax
  0002a	e8 00 00 00 00	 call	 ?erase@?$_Tree@V?$_Tmap_traits@KPAVCCtrl@@U?$less@K@std@@V?$allocator@U?$pair@$$CBKPAVCCtrl@@@std@@@3@$0A@@std@@@std@@QAEIABK@Z ; std::_Tree<std::_Tmap_traits<unsigned long,CCtrl *,std::less<unsigned long>,std::allocator<std::pair<unsigned long const ,CCtrl *> >,0> >::erase
; File C:\IAGOS\server\v18\Source\Source\_Common\ctrl.cpp

; 135  : 	if( OT_MOVER == GetType() && ( (CMover*)this )->IsPlayer() && ( (CMover*)this )->m_idPlayer != (u_long)0xffffffff )

  0002f	83 be 70 01 00
	00 05		 cmp	 DWORD PTR [esi+368], 5
  00036	75 23		 jne	 SHORT $LN3@RemoveItFr
  00038	83 be 30 02 00
	00 00		 cmp	 DWORD PTR [esi+560], 0
  0003f	74 1a		 je	 SHORT $LN3@RemoveItFr
  00041	83 be 34 02 00
	00 ff		 cmp	 DWORD PTR [esi+564], -1
  00048	8d 86 34 02 00
	00		 lea	 eax, DWORD PTR [esi+564]
  0004e	74 0b		 je	 SHORT $LN3@RemoveItFr

; 136  : 		prj.m_idPlayerToUserPtr.erase( ( (CMover*)this )->m_idPlayer );

  00050	50		 push	 eax
  00051	b9 28 00 00 00	 mov	 ecx, OFFSET ?prj@@3VCProject@@A+40
  00056	e8 00 00 00 00	 call	 ?erase@?$_Tree@V?$_Tmap_traits@KPAVCMover@@U?$less@K@std@@V?$allocator@U?$pair@$$CBKPAVCMover@@@std@@@3@$0A@@std@@@std@@QAEIABK@Z ; std::_Tree<std::_Tmap_traits<unsigned long,CMover *,std::less<unsigned long>,std::allocator<std::pair<unsigned long const ,CMover *> >,0> >::erase
$LN3@RemoveItFr:

; 137  : 
; 138  : #ifdef __WORLDSERVER	
; 139  : 	if( GetType() == OT_CTRL )

  0005b	83 be 70 01 00
	00 02		 cmp	 DWORD PTR [esi+368], 2
  00062	75 2a		 jne	 SHORT $LN5@RemoveItFr

; 140  : 	{
; 141  : 		CCommonCtrl* pCommonCtrl = (CCommonCtrl*)this;
; 142  : 		if( pCommonCtrl->m_CtrlElem.m_strCtrlKey[0] != '\0' )

  00064	81 c6 80 03 00
	00		 add	 esi, 896		; 00000380H
  0006a	80 3e 00	 cmp	 BYTE PTR [esi], 0
  0006d	74 1f		 je	 SHORT $LN5@RemoveItFr

; 143  : 			g_MapStrToObjId.erase( pCommonCtrl->m_CtrlElem.m_strCtrlKey );

  0006f	56		 push	 esi
  00070	8d 4d e4	 lea	 ecx, DWORD PTR $T1[ebp]
  00073	e8 00 00 00 00	 call	 ??0?$basic_string@DU?$char_traits@D@std@@V?$allocator@D@2@@std@@QAE@QBD@Z ; std::basic_string<char,std::char_traits<char>,std::allocator<char> >::basic_string<char,std::char_traits<char>,std::allocator<char> >
  00078	8d 45 e4	 lea	 eax, DWORD PTR $T1[ebp]
  0007b	b9 00 00 00 00	 mov	 ecx, OFFSET ?g_MapStrToObjId@@3V?$map@V?$basic_string@DU?$char_traits@D@std@@V?$allocator@D@2@@std@@KU?$less@V?$basic_string@DU?$char_traits@D@std@@V?$allocator@D@2@@std@@@2@V?$allocator@U?$pair@$$CBV?$basic_string@DU?$char_traits@D@std@@V?$allocator@D@2@@std@@K@std@@@2@@std@@A ; g_MapStrToObjId
  00080	50		 push	 eax
  00081	e8 00 00 00 00	 call	 ?erase@?$_Tree@V?$_Tmap_traits@V?$basic_string@DU?$char_traits@D@std@@V?$allocator@D@2@@std@@KU?$less@V?$basic_string@DU?$char_traits@D@std@@V?$allocator@D@2@@std@@@2@V?$allocator@U?$pair@$$CBV?$basic_string@DU?$char_traits@D@std@@V?$allocator@D@2@@std@@K@std@@@2@$0A@@std@@@std@@QAEIABV?$basic_string@DU?$char_traits@D@std@@V?$allocator@D@2@@2@@Z ; std::_Tree<std::_Tmap_traits<std::basic_string<char,std::char_traits<char>,std::allocator<char> >,unsigned long,std::less<std::basic_string<char,std::char_traits<char>,std::allocator<char> > >,std::allocator<std::pair<std::basic_string<char,std::char_traits<char>,std::allocator<char> > const ,unsigned long> >,0> >::erase
  00086	8d 4d e4	 lea	 ecx, DWORD PTR $T1[ebp]
  00089	e8 00 00 00 00	 call	 ??1?$basic_string@DU?$char_traits@D@std@@V?$allocator@D@2@@std@@QAE@XZ ; std::basic_string<char,std::char_traits<char>,std::allocator<char> >::~basic_string<char,std::char_traits<char>,std::allocator<char> >
$LN5@RemoveItFr:

; 144  : 	}
; 145  : #endif // __WORLDSERVER
; 146  : }

  0008e	8b 4d fc	 mov	 ecx, DWORD PTR __$ArrayPad$[ebp]
  00091	33 cd		 xor	 ecx, ebp
  00093	5e		 pop	 esi
  00094	e8 00 00 00 00	 call	 @__security_check_cookie@4
  00099	8b e5		 mov	 esp, ebp
  0009b	5d		 pop	 ebp
  0009c	c3		 ret	 0
?RemoveItFromGlobalId@CCtrl@@UAEXXZ ENDP		; CCtrl::RemoveItFromGlobalId
_TEXT	ENDS
; Function compile flags: /Ogtp
; File C:\IAGOS\server\v18\Source\Source\_Common\ctrl.cpp
; File C:\IAGOS\server\v18\Source\Source\_Network\Misc\Include\ObjMap.h
; File C:\IAGOS\server\v18\Source\Source\_Network\Mcl\Include\CMclCritSec.h
; File C:\IAGOS\server\v18\Source\Source\_Network\Mcl\Include\CMclAutoLock.h
; File C:\IAGOS\server\v18\Source\Source\_Network\Mcl\Include\CMclCritSec.h
; File C:\IAGOS\server\v18\Source\Source\_Common\data.h
; File C:\IAGOS\server\v18\Source\Source\_Network\Misc\Include\ObjMap.h
; File C:\IAGOS\server\v18\Source\Source\_Common\data.h
; File C:\IAGOS\server\v18\Source\Source\_Network\Misc\Include\ObjMap.h
; File C:\IAGOS\server\v18\Source\Source\_Common\data.h
; File C:\IAGOS\server\v18\Source\Source\_Network\Misc\Include\ObjMap.h
; File C:\IAGOS\server\v18\Source\Source\_Common\data.h
; File C:\IAGOS\server\v18\Source\Source\_Network\Mcl\Include\CMclCritSec.h
; File C:\IAGOS\server\v18\Source\Source\_Network\Misc\Include\ObjMap.h
; File C:\IAGOS\server\v18\Source\Source\_Network\Mcl\Include\CMclCritSec.h
; File C:\IAGOS\server\v18\Source\Source\_Network\Misc\Include\ObjMap.h
; File C:\Program Files\Microsoft Visual Studio\2022\Professional\VC\Tools\MSVC\14.44.35207\include\xtree
; File C:\Program Files\Microsoft Visual Studio\2022\Professional\VC\Tools\MSVC\14.44.35207\include\utility
; File C:\Program Files\Microsoft Visual Studio\2022\Professional\VC\Tools\MSVC\14.44.35207\include\xtree
; File C:\Program Files\Microsoft Visual Studio\2022\Professional\VC\Tools\MSVC\14.44.35207\include\utility
; File C:\Program Files\Microsoft Visual Studio\2022\Professional\VC\Tools\MSVC\14.44.35207\include\xtree
; File C:\Program Files\Microsoft Visual Studio\2022\Professional\VC\Tools\MSVC\14.44.35207\include\type_traits
; File C:\Program Files\Microsoft Visual Studio\2022\Professional\VC\Tools\MSVC\14.44.35207\include\xtree
; File C:\Program Files\Microsoft Visual Studio\2022\Professional\VC\Tools\MSVC\14.44.35207\include\xmemory
; File C:\Program Files\Microsoft Visual Studio\2022\Professional\VC\Tools\MSVC\14.44.35207\include\xtree
; File C:\Program Files\Microsoft Visual Studio\2022\Professional\VC\Tools\MSVC\14.44.35207\include\xmemory
; File C:\Program Files\Microsoft Visual Studio\2022\Professional\VC\Tools\MSVC\14.44.35207\include\xtree
; File C:\Program Files\Microsoft Visual Studio\2022\Professional\VC\Tools\MSVC\14.44.35207\include\utility
; File C:\Program Files\Microsoft Visual Studio\2022\Professional\VC\Tools\MSVC\14.44.35207\include\xtree
; File C:\Program Files\Microsoft Visual Studio\2022\Professional\VC\Tools\MSVC\14.44.35207\include\utility
; File C:\Program Files\Microsoft Visual Studio\2022\Professional\VC\Tools\MSVC\14.44.35207\include\xtree
; File C:\IAGOS\server\v18\Source\Source\_Common\ctrl.cpp
; File C:\Program Files\Microsoft Visual Studio\2022\Professional\VC\Tools\MSVC\14.44.35207\include\xtree
; File C:\Program Files\Microsoft Visual Studio\2022\Professional\VC\Tools\MSVC\14.44.35207\include\utility
; File C:\Program Files\Microsoft Visual Studio\2022\Professional\VC\Tools\MSVC\14.44.35207\include\xtree
; File C:\Program Files\Microsoft Visual Studio\2022\Professional\VC\Tools\MSVC\14.44.35207\include\utility
; File C:\Program Files\Microsoft Visual Studio\2022\Professional\VC\Tools\MSVC\14.44.35207\include\xtree
; File C:\Program Files\Microsoft Visual Studio\2022\Professional\VC\Tools\MSVC\14.44.35207\include\type_traits
; File C:\Program Files\Microsoft Visual Studio\2022\Professional\VC\Tools\MSVC\14.44.35207\include\xtree
; File C:\Program Files\Microsoft Visual Studio\2022\Professional\VC\Tools\MSVC\14.44.35207\include\type_traits
; File C:\Program Files\Microsoft Visual Studio\2022\Professional\VC\Tools\MSVC\14.44.35207\include\xtree
; File C:\Program Files\Microsoft Visual Studio\2022\Professional\VC\Tools\MSVC\14.44.35207\include\type_traits
; File C:\Program Files\Microsoft Visual Studio\2022\Professional\VC\Tools\MSVC\14.44.35207\include\xtree
; File C:\IAGOS\server\v18\Source\Source\_Common\ctrl.cpp
; File C:\Program Files\Microsoft Visual Studio\2022\Professional\VC\Tools\MSVC\14.44.35207\include\xtree
; File C:\Program Files\Microsoft Visual Studio\2022\Professional\VC\Tools\MSVC\14.44.35207\include\xmemory
; File C:\Program Files\Microsoft Visual Studio\2022\Professional\VC\Tools\MSVC\14.44.35207\include\xtree
; File C:\Program Files\Microsoft Visual Studio\2022\Professional\VC\Tools\MSVC\14.44.35207\include\xmemory
; File C:\Program Files\Microsoft Visual Studio\2022\Professional\VC\Tools\MSVC\14.44.35207\include\utility
; File C:\Program Files\Microsoft Visual Studio\2022\Professional\VC\Tools\MSVC\14.44.35207\include\xmemory
; File C:\Program Files\Microsoft Visual Studio\2022\Professional\VC\Tools\MSVC\14.44.35207\include\xtree
; File C:\Program Files\Microsoft Visual Studio\2022\Professional\VC\Tools\MSVC\14.44.35207\include\utility
; File C:\Program Files\Microsoft Visual Studio\2022\Professional\VC\Tools\MSVC\14.44.35207\include\xtree
; File C:\Program Files\Microsoft Visual Studio\2022\Professional\VC\Tools\MSVC\14.44.35207\include\utility
; File C:\Program Files\Microsoft Visual Studio\2022\Professional\VC\Tools\MSVC\14.44.35207\include\xtree
; File C:\IAGOS\server\v18\Source\Source\_Common\ctrl.cpp
; File C:\Program Files\Microsoft Visual Studio\2022\Professional\VC\Tools\MSVC\14.44.35207\include\utility
; File C:\Program Files\Microsoft Visual Studio\2022\Professional\VC\Tools\MSVC\14.44.35207\include\xtree
; File C:\IAGOS\server\v18\Source\Source\_Common\ctrl.cpp
; File C:\Program Files\Microsoft Visual Studio\2022\Professional\VC\Tools\MSVC\14.44.35207\include\xtree
; File C:\IAGOS\server\v18\Source\Source\_Common\ctrl.cpp
; File C:\Program Files\Microsoft Visual Studio\2022\Professional\VC\Tools\MSVC\14.44.35207\include\xtree
; File C:\IAGOS\server\v18\Source\Source\_Common\ctrl.cpp
;	COMDAT ?AddItToGlobalId@CCtrl@@UAEXXZ
_TEXT	SEGMENT
$T6 = -80						; size = 12
__Loc$7 = -68						; size = 12
__Result$8 = -64					; size = 8
$T9 = -64						; size = 8
$T1$sroa$860$1$ = -56					; size = 4
$T10 = -52						; size = 8
$T11 = -52						; size = 8
_Lock$12 = -48						; size = 4
__Myhead$1$ = -48					; size = 4
$T13 = -44						; size = 28
__$ArrayPad$ = -16					; size = 4
__$EHRec$ = -12						; size = 12
?AddItToGlobalId@CCtrl@@UAEXXZ PROC			; CCtrl::AddItToGlobalId, COMDAT
; _this$ = ecx

; 108  : {

  00000	55		 push	 ebp
  00001	8b ec		 mov	 ebp, esp
  00003	6a ff		 push	 -1
  00005	68 00 00 00 00	 push	 __ehhandler$?AddItToGlobalId@CCtrl@@UAEXXZ
  0000a	64 a1 00 00 00
	00		 mov	 eax, DWORD PTR fs:0
  00010	50		 push	 eax
  00011	83 ec 44	 sub	 esp, 68			; 00000044H
  00014	a1 00 00 00 00	 mov	 eax, DWORD PTR ___security_cookie
  00019	33 c5		 xor	 eax, ebp
  0001b	89 45 f0	 mov	 DWORD PTR __$ArrayPad$[ebp], eax
  0001e	53		 push	 ebx
  0001f	56		 push	 esi
  00020	57		 push	 edi
  00021	50		 push	 eax
  00022	8d 45 f4	 lea	 eax, DWORD PTR __$EHRec$[ebp]
  00025	64 a3 00 00 00
	00		 mov	 DWORD PTR fs:0, eax
  0002b	8b f9		 mov	 edi, ecx
; File C:\IAGOS\server\v18\Source\Source\_Network\Misc\Include\ObjMap.h

; 100  : 	OBJID id = pCtrl->GetId();

  0002d	8b 9f bc 01 00
	00		 mov	 ebx, DWORD PTR [edi+444]

; 101  : 	if( id == NULL_ID )

  00033	83 fb ff	 cmp	 ebx, -1
  00036	0f 85 83 00 00
	00		 jne	 $LN9@AddItToGlo
; File C:\IAGOS\server\v18\Source\Source\_Network\Mcl\Include\CMclCritSec.h

; 33   : 		::EnterCriticalSection( &m_CritSec );

  0003c	68 48 00 00 00	 push	 OFFSET ?prj@@3VCProject@@A+72
; File C:\IAGOS\server\v18\Source\Source\_Network\Mcl\Include\CMclAutoLock.h

; 21   : 		m_pcCritSec = &rCMclCritSec;

  00041	c7 45 d0 44 00
	00 00		 mov	 DWORD PTR _Lock$12[ebp], OFFSET ?prj@@3VCProject@@A+68
; File C:\IAGOS\server\v18\Source\Source\_Network\Mcl\Include\CMclCritSec.h

; 33   : 		::EnterCriticalSection( &m_CritSec );

  00048	ff 15 00 00 00
	00		 call	 DWORD PTR __imp__EnterCriticalSection@4
; File C:\IAGOS\server\v18\Source\Source\_Common\data.h

; 30   : 	BOOL	IsEmpty( void )	{ return ( m_nTop == 0 ); }

  0004e	8b 0d 40 00 00
	00		 mov	 ecx, DWORD PTR ?prj@@3VCProject@@A+64
; File C:\IAGOS\server\v18\Source\Source\_Network\Misc\Include\ObjMap.h

; 54   : 			CMclAutoLock Lock( m_AccessLock );

  00054	c7 45 fc 00 00
	00 00		 mov	 DWORD PTR __$EHRec$[ebp+8], 0
; File C:\IAGOS\server\v18\Source\Source\_Common\data.h

; 30   : 	BOOL	IsEmpty( void )	{ return ( m_nTop == 0 ); }

  0005b	85 c9		 test	 ecx, ecx
; File C:\IAGOS\server\v18\Source\Source\_Network\Misc\Include\ObjMap.h

; 55   : 			if( IsEmpty() )

  0005d	75 1a		 jne	 SHORT $LN13@AddItToGlo

; 56   : 				WriteLog( "%s, %d", __FILE__, __LINE__ );

  0005f	6a 38		 push	 56			; 00000038H
  00061	68 00 00 00 00	 push	 OFFSET ??_C@_0EB@BHPMDBMF@C?3?2IAGOS?2server?2v18?2Source?2Sour@
  00066	68 00 00 00 00	 push	 OFFSET ??_C@_06OJLEAOEG@?$CFs?0?5?$CFd@
  0006b	e8 00 00 00 00	 call	 ?WriteLog@@YAXPBDZZ	; WriteLog
  00070	8b 0d 40 00 00
	00		 mov	 ecx, DWORD PTR ?prj@@3VCProject@@A+64
  00076	83 c4 0c	 add	 esp, 12			; 0000000cH
$LN13@AddItToGlo:
; File C:\IAGOS\server\v18\Source\Source\_Common\data.h

; 70   : 	if( m_nTop < 1 )

  00079	83 f9 01	 cmp	 ecx, 1
  0007c	7d 1a		 jge	 SHORT $LN23@AddItToGlo

; 71   : 	{
; 72   : 		WriteLog( "%s, %d", __FILE__, __LINE__ );

  0007e	6a 48		 push	 72			; 00000048H
  00080	68 00 00 00 00	 push	 OFFSET ??_C@_0DB@ILBMOCBP@C?3?2IAGOS?2server?2v18?2Source?2Sour@
  00085	68 00 00 00 00	 push	 OFFSET ??_C@_06OJLEAOEG@?$CFs?0?5?$CFd@
  0008a	e8 00 00 00 00	 call	 ?WriteLog@@YAXPBDZZ	; WriteLog
  0008f	8b 0d 40 00 00
	00		 mov	 ecx, DWORD PTR ?prj@@3VCProject@@A+64
  00095	83 c4 0c	 add	 esp, 12			; 0000000cH
$LN23@AddItToGlo:
; File C:\IAGOS\server\v18\Source\Source\_Network\Misc\Include\ObjMap.h

; 58   : 			return Pop();

  00098	a1 34 00 00 00	 mov	 eax, DWORD PTR ?prj@@3VCProject@@A+52
; File C:\IAGOS\server\v18\Source\Source\_Common\data.h

; 74   : 	return m_pBlock[--m_nTop];

  0009d	49		 dec	 ecx
  0009e	89 0d 40 00 00
	00		 mov	 DWORD PTR ?prj@@3VCProject@@A+64, ecx
; File C:\IAGOS\server\v18\Source\Source\_Network\Mcl\Include\CMclCritSec.h

; 39   : 		::LeaveCriticalSection( &m_CritSec );

  000a4	68 48 00 00 00	 push	 OFFSET ?prj@@3VCProject@@A+72
; File C:\IAGOS\server\v18\Source\Source\_Network\Misc\Include\ObjMap.h

; 58   : 			return Pop();

  000a9	c7 45 fc ff ff
	ff ff		 mov	 DWORD PTR __$EHRec$[ebp+8], -1
  000b0	8b 1c 88	 mov	 ebx, DWORD PTR [eax+ecx*4]
; File C:\IAGOS\server\v18\Source\Source\_Network\Mcl\Include\CMclCritSec.h

; 39   : 		::LeaveCriticalSection( &m_CritSec );

  000b3	ff 15 00 00 00
	00		 call	 DWORD PTR __imp__LeaveCriticalSection@4
; File C:\IAGOS\server\v18\Source\Source\_Network\Misc\Include\ObjMap.h

; 108  : 		pCtrl->SetId( id );

  000b9	89 9f bc 01 00
	00		 mov	 DWORD PTR [edi+444], ebx
$LN9@AddItToGlo:
; File C:\Program Files\Microsoft Visual Studio\2022\Professional\VC\Tools\MSVC\14.44.35207\include\xtree

; 1017 :             _Loc                = _Find_lower_bound(_Keyval);

  000bf	8d 45 cc	 lea	 eax, DWORD PTR $T10[ebp]
; File C:\Program Files\Microsoft Visual Studio\2022\Professional\VC\Tools\MSVC\14.44.35207\include\utility

; 274  :         : first(_STD forward<_Other1>(_Val1)), second(_STD forward<_Other2>(_Val2)) {

  000c2	89 5d cc	 mov	 DWORD PTR $T10[ebp], ebx
; File C:\Program Files\Microsoft Visual Studio\2022\Professional\VC\Tools\MSVC\14.44.35207\include\xtree

; 1017 :             _Loc                = _Find_lower_bound(_Keyval);

  000c5	50		 push	 eax
  000c6	8d 45 b0	 lea	 eax, DWORD PTR $T6[ebp]
; File C:\Program Files\Microsoft Visual Studio\2022\Professional\VC\Tools\MSVC\14.44.35207\include\utility

; 274  :         : first(_STD forward<_Other1>(_Val1)), second(_STD forward<_Other2>(_Val2)) {

  000c9	89 7d d0	 mov	 DWORD PTR $T10[ebp+4], edi
; File C:\Program Files\Microsoft Visual Studio\2022\Professional\VC\Tools\MSVC\14.44.35207\include\xtree

; 1017 :             _Loc                = _Find_lower_bound(_Keyval);

  000cc	50		 push	 eax
  000cd	b9 60 00 00 00	 mov	 ecx, OFFSET ?prj@@3VCProject@@A+96
  000d2	e8 00 00 00 00	 call	 ??$_Find_lower_bound@K@?$_Tree@V?$_Tmap_traits@KPAVCCtrl@@U?$less@K@std@@V?$allocator@U?$pair@$$CBKPAVCCtrl@@@std@@@3@$0A@@std@@@std@@IBE?AU?$_Tree_find_result@PAU?$_Tree_node@U?$pair@$$CBKPAVCCtrl@@@std@@PAX@std@@@1@ABK@Z ; std::_Tree<std::_Tmap_traits<unsigned long,CCtrl *,std::less<unsigned long>,std::allocator<std::pair<unsigned long const ,CCtrl *> >,0> >::_Find_lower_bound<unsigned long>
  000d7	f3 0f 7e 00	 movq	 xmm0, QWORD PTR [eax]
  000db	8b 40 08	 mov	 eax, DWORD PTR [eax+8]
  000de	66 0f d6 45 bc	 movq	 QWORD PTR __Loc$7[ebp], xmm0

; 1624 :         return !_Bound->_Isnil && !_DEBUG_LT_PRED(_Getcomp(), _Keyval, _Traits::_Kfn(_Bound->_Myval));

  000e3	80 78 0d 00	 cmp	 BYTE PTR [eax+13], 0
  000e7	75 05		 jne	 SHORT $LN292@AddItToGlo
; File C:\Program Files\Microsoft Visual Studio\2022\Professional\VC\Tools\MSVC\14.44.35207\include\type_traits

; 2380 :         return _Left < _Right;

  000e9	3b 58 10	 cmp	 ebx, DWORD PTR [eax+16]
; File C:\Program Files\Microsoft Visual Studio\2022\Professional\VC\Tools\MSVC\14.44.35207\include\xtree

; 1624 :         return !_Bound->_Isnil && !_DEBUG_LT_PRED(_Getcomp(), _Keyval, _Traits::_Kfn(_Bound->_Myval));

  000ec	73 61		 jae	 SHORT $LN126@AddItToGlo
$LN292@AddItToGlo:

; 1648 :         if (max_size() == _Get_scary()->_Mysize) {

  000ee	81 3d 64 00 00
	00 aa aa aa 0a	 cmp	 DWORD PTR ?prj@@3VCProject@@A+100, 178956970 ; 0aaaaaaaH
  000f8	0f 84 8e 01 00
	00		 je	 $LN293@AddItToGlo

; 1023 :             _Inserted = _Tree_temp_node<_Alnode>(_Getal(), _Scary->_Myhead, _STD forward<_Valtys>(_Vals)...)._Release();

  000fe	8b 35 60 00 00
	00		 mov	 esi, DWORD PTR ?prj@@3VCProject@@A+96
; File C:\Program Files\Microsoft Visual Studio\2022\Professional\VC\Tools\MSVC\14.44.35207\include\xmemory

; 1160 :     _CONSTEXPR20 explicit _Alloc_construct_ptr(_Alloc& _Al_) : _Al(_Al_), _Ptr(nullptr) {}

  00104	c7 45 cc 60 00
	00 00		 mov	 DWORD PTR $T11[ebp], OFFSET ?prj@@3VCProject@@A+96

; 136  :         return ::operator new(_Bytes);

  0010b	6a 18		 push	 24			; 00000018H
; File C:\Program Files\Microsoft Visual Studio\2022\Professional\VC\Tools\MSVC\14.44.35207\include\xtree

; 808  :     explicit _Tree_temp_node_alloc(_Alnode& _Al_) : _Alloc_construct_ptr<_Alnode>(_Al_) {

  0010d	c7 45 fc 01 00
	00 00		 mov	 DWORD PTR __$EHRec$[ebp+8], 1
; File C:\Program Files\Microsoft Visual Studio\2022\Professional\VC\Tools\MSVC\14.44.35207\include\xmemory

; 1167 :         _Ptr = nullptr; // if allocate throws, prevents double-free

  00114	c7 45 d0 00 00
	00 00		 mov	 DWORD PTR $T11[ebp+4], 0

; 136  :         return ::operator new(_Bytes);

  0011b	e8 00 00 00 00	 call	 ??2@YAPAXI@Z		; operator new
  00120	83 c4 04	 add	 esp, 4
; File C:\Program Files\Microsoft Visual Studio\2022\Professional\VC\Tools\MSVC\14.44.35207\include\xtree

; 810  :     }

  00123	c7 45 fc ff ff
	ff ff		 mov	 DWORD PTR __$EHRec$[ebp+8], -1

; 1042 :         return {_Scary->_Insert_node(_Loc._Location, _Inserted), true};

  0012a	b9 60 00 00 00	 mov	 ecx, OFFSET ?prj@@3VCProject@@A+96
; File C:\Program Files\Microsoft Visual Studio\2022\Professional\VC\Tools\MSVC\14.44.35207\include\utility

; 303  :         : first(_STD forward<_Other1>(_Right.first)), second(_STD forward<_Other2>(_Right.second)) {}

  0012f	89 58 10	 mov	 DWORD PTR [eax+16], ebx
; File C:\Program Files\Microsoft Visual Studio\2022\Professional\VC\Tools\MSVC\14.44.35207\include\xtree

; 1042 :         return {_Scary->_Insert_node(_Loc._Location, _Inserted), true};

  00132	50		 push	 eax
  00133	ff 75 c0	 push	 DWORD PTR __Loc$7[ebp+4]
; File C:\Program Files\Microsoft Visual Studio\2022\Professional\VC\Tools\MSVC\14.44.35207\include\utility

; 303  :         : first(_STD forward<_Other1>(_Right.first)), second(_STD forward<_Other2>(_Right.second)) {}

  00136	89 78 14	 mov	 DWORD PTR [eax+20], edi
; File C:\Program Files\Microsoft Visual Studio\2022\Professional\VC\Tools\MSVC\14.44.35207\include\xtree

; 1042 :         return {_Scary->_Insert_node(_Loc._Location, _Inserted), true};

  00139	ff 75 bc	 push	 DWORD PTR __Loc$7[ebp]

; 831  :         _Construct_in_place(this->_Ptr->_Left, _Myhead);

  0013c	89 30		 mov	 DWORD PTR [eax], esi

; 832  :         _Construct_in_place(this->_Ptr->_Parent, _Myhead);

  0013e	89 70 04	 mov	 DWORD PTR [eax+4], esi

; 833  :         _Construct_in_place(this->_Ptr->_Right, _Myhead);

  00141	89 70 08	 mov	 DWORD PTR [eax+8], esi

; 834  :         this->_Ptr->_Color = _Red;

  00144	66 c7 40 0c 00
	00		 mov	 WORD PTR [eax+12], 0

; 1042 :         return {_Scary->_Insert_node(_Loc._Location, _Inserted), true};

  0014a	e8 00 00 00 00	 call	 ?_Insert_node@?$_Tree_val@U?$_Tree_simple_types@U?$pair@$$CBKPAVCCtrl@@@std@@@std@@@std@@QAEPAU?$_Tree_node@U?$pair@$$CBKPAVCCtrl@@@std@@PAX@2@U?$_Tree_id@PAU?$_Tree_node@U?$pair@$$CBKPAVCCtrl@@@std@@PAX@std@@@2@QAU32@@Z ; std::_Tree_val<std::_Tree_simple_types<std::pair<unsigned long const ,CCtrl *> > >::_Insert_node
$LN126@AddItToGlo:
; File C:\IAGOS\server\v18\Source\Source\_Common\ctrl.cpp

; 111  : 	if( OT_MOVER == GetType() && ( (CMover*)this )->IsPlayer() )

  0014f	83 bf 70 01 00
	00 05		 cmp	 DWORD PTR [edi+368], 5
  00156	0f 85 c9 00 00
	00		 jne	 $LN3@AddItToGlo
  0015c	83 bf 30 02 00
	00 00		 cmp	 DWORD PTR [edi+560], 0
  00163	0f 84 bc 00 00
	00		 je	 $LN3@AddItToGlo
; File C:\Program Files\Microsoft Visual Studio\2022\Professional\VC\Tools\MSVC\14.44.35207\include\xtree

; 1630 :         _Tree_find_result<_Nodeptr> _Result{{_Scary->_Myhead->_Parent, _Tree_child::_Right}, _Scary->_Myhead};

  00169	a1 28 00 00 00	 mov	 eax, DWORD PTR ?prj@@3VCProject@@A+40
  0016e	33 f6		 xor	 esi, esi
; File C:\Program Files\Microsoft Visual Studio\2022\Professional\VC\Tools\MSVC\14.44.35207\include\utility

; 274  :         : first(_STD forward<_Other1>(_Val1)), second(_STD forward<_Other2>(_Val2)) {

  00170	8b 97 34 02 00
	00		 mov	 edx, DWORD PTR [edi+564]
; File C:\Program Files\Microsoft Visual Studio\2022\Professional\VC\Tools\MSVC\14.44.35207\include\xtree

; 1630 :         _Tree_find_result<_Nodeptr> _Result{{_Scary->_Myhead->_Parent, _Tree_child::_Right}, _Scary->_Myhead};

  00176	8b c8		 mov	 ecx, eax
; File C:\Program Files\Microsoft Visual Studio\2022\Professional\VC\Tools\MSVC\14.44.35207\include\utility

; 274  :         : first(_STD forward<_Other1>(_Val1)), second(_STD forward<_Other2>(_Val2)) {

  00178	89 55 c8	 mov	 DWORD PTR $T1$sroa$860$1$[ebp], edx
; File C:\Program Files\Microsoft Visual Studio\2022\Professional\VC\Tools\MSVC\14.44.35207\include\xtree

; 1630 :         _Tree_find_result<_Nodeptr> _Result{{_Scary->_Myhead->_Parent, _Tree_child::_Right}, _Scary->_Myhead};

  0017b	89 45 d0	 mov	 DWORD PTR __Myhead$1$[ebp], eax
  0017e	8b 58 04	 mov	 ebx, DWORD PTR [eax+4]

; 1631 :         _Nodeptr _Trynode = _Result._Location._Parent;
; 1632 :         while (!_Trynode->_Isnil) {

  00181	80 7b 0d 00	 cmp	 BYTE PTR [ebx+13], 0
  00185	75 26		 jne	 SHORT $LN160@AddItToGlo
; File C:\Program Files\Microsoft Visual Studio\2022\Professional\VC\Tools\MSVC\14.44.35207\include\type_traits

; 2380 :         return _Left < _Right;

  00187	8b c3		 mov	 eax, ebx
  00189	0f 1f 80 00 00
	00 00		 npad	 7
$LL159@AddItToGlo:
; File C:\Program Files\Microsoft Visual Studio\2022\Professional\VC\Tools\MSVC\14.44.35207\include\xtree

; 1633 :             _Result._Location._Parent = _Trynode;

  00190	8b d8		 mov	 ebx, eax
; File C:\Program Files\Microsoft Visual Studio\2022\Professional\VC\Tools\MSVC\14.44.35207\include\type_traits

; 2380 :         return _Left < _Right;

  00192	39 50 10	 cmp	 DWORD PTR [eax+16], edx
; File C:\Program Files\Microsoft Visual Studio\2022\Professional\VC\Tools\MSVC\14.44.35207\include\xtree

; 1634 :             if (_DEBUG_LT_PRED(_Getcomp(), _Traits::_Kfn(_Trynode->_Myval), _Keyval)) {

  00195	73 07		 jae	 SHORT $LN161@AddItToGlo

; 1635 :                 _Result._Location._Child = _Tree_child::_Right;
; 1636 :                 _Trynode                 = _Trynode->_Right;

  00197	8b 40 08	 mov	 eax, DWORD PTR [eax+8]
  0019a	33 f6		 xor	 esi, esi

; 1637 :             } else {

  0019c	eb 09		 jmp	 SHORT $LN162@AddItToGlo
$LN161@AddItToGlo:

; 1638 :                 _Result._Location._Child = _Tree_child::_Left;
; 1639 :                 _Result._Bound           = _Trynode;

  0019e	8b c8		 mov	 ecx, eax
  001a0	be 01 00 00 00	 mov	 esi, 1

; 1640 :                 _Trynode                 = _Trynode->_Left;

  001a5	8b 00		 mov	 eax, DWORD PTR [eax]
$LN162@AddItToGlo:

; 1631 :         _Nodeptr _Trynode = _Result._Location._Parent;
; 1632 :         while (!_Trynode->_Isnil) {

  001a7	80 78 0d 00	 cmp	 BYTE PTR [eax+13], 0
  001ab	74 e3		 je	 SHORT $LL159@AddItToGlo
$LN160@AddItToGlo:

; 1624 :         return !_Bound->_Isnil && !_DEBUG_LT_PRED(_Getcomp(), _Keyval, _Traits::_Kfn(_Bound->_Myval));

  001ad	80 79 0d 00	 cmp	 BYTE PTR [ecx+13], 0
  001b1	75 15		 jne	 SHORT $LN155@AddItToGlo
; File C:\Program Files\Microsoft Visual Studio\2022\Professional\VC\Tools\MSVC\14.44.35207\include\type_traits

; 2380 :         return _Left < _Right;

  001b3	3b 51 10	 cmp	 edx, DWORD PTR [ecx+16]
; File C:\Program Files\Microsoft Visual Studio\2022\Professional\VC\Tools\MSVC\14.44.35207\include\xtree

; 1624 :         return !_Bound->_Isnil && !_DEBUG_LT_PRED(_Getcomp(), _Keyval, _Traits::_Kfn(_Bound->_Myval));

  001b6	72 10		 jb	 SHORT $LN155@AddItToGlo
; File C:\IAGOS\server\v18\Source\Source\_Common\ctrl.cpp

; 115  : 			Error("AddItToGlobalId id:%d duplicated.", ((CMover*)this)->m_idPlayer );

  001b8	52		 push	 edx
  001b9	68 00 00 00 00	 push	 OFFSET ??_C@_0CC@KIBGGMOC@AddItToGlobalId?5id?3?$CFd?5duplicate@
  001be	e8 00 00 00 00	 call	 ?Error@@YAPBDPBDZZ	; Error
  001c3	83 c4 08	 add	 esp, 8
  001c6	eb 5d		 jmp	 SHORT $LN3@AddItToGlo
$LN155@AddItToGlo:
; File C:\Program Files\Microsoft Visual Studio\2022\Professional\VC\Tools\MSVC\14.44.35207\include\xtree

; 1648 :         if (max_size() == _Get_scary()->_Mysize) {

  001c8	81 3d 2c 00 00
	00 aa aa aa 0a	 cmp	 DWORD PTR ?prj@@3VCProject@@A+44, 178956970 ; 0aaaaaaaH
  001d2	0f 84 b4 00 00
	00		 je	 $LN293@AddItToGlo
; File C:\Program Files\Microsoft Visual Studio\2022\Professional\VC\Tools\MSVC\14.44.35207\include\xmemory

; 1160 :     _CONSTEXPR20 explicit _Alloc_construct_ptr(_Alloc& _Al_) : _Al(_Al_), _Ptr(nullptr) {}

  001d8	c7 45 c0 28 00
	00 00		 mov	 DWORD PTR $T9[ebp], OFFSET ?prj@@3VCProject@@A+40

; 136  :         return ::operator new(_Bytes);

  001df	6a 18		 push	 24			; 00000018H
; File C:\Program Files\Microsoft Visual Studio\2022\Professional\VC\Tools\MSVC\14.44.35207\include\xtree

; 808  :     explicit _Tree_temp_node_alloc(_Alnode& _Al_) : _Alloc_construct_ptr<_Alnode>(_Al_) {

  001e1	c7 45 fc 02 00
	00 00		 mov	 DWORD PTR __$EHRec$[ebp+8], 2
; File C:\Program Files\Microsoft Visual Studio\2022\Professional\VC\Tools\MSVC\14.44.35207\include\xmemory

; 1167 :         _Ptr = nullptr; // if allocate throws, prevents double-free

  001e8	c7 45 c4 00 00
	00 00		 mov	 DWORD PTR $T9[ebp+4], 0

; 136  :         return ::operator new(_Bytes);

  001ef	e8 00 00 00 00	 call	 ??2@YAPAXI@Z		; operator new
; File C:\Program Files\Microsoft Visual Studio\2022\Professional\VC\Tools\MSVC\14.44.35207\include\utility

; 303  :         : first(_STD forward<_Other1>(_Right.first)), second(_STD forward<_Other2>(_Right.second)) {}

  001f4	8b 4d c8	 mov	 ecx, DWORD PTR $T1$sroa$860$1$[ebp]
; File C:\Program Files\Microsoft Visual Studio\2022\Professional\VC\Tools\MSVC\14.44.35207\include\xmemory

; 136  :         return ::operator new(_Bytes);

  001f7	83 c4 04	 add	 esp, 4
; File C:\Program Files\Microsoft Visual Studio\2022\Professional\VC\Tools\MSVC\14.44.35207\include\xtree

; 810  :     }

  001fa	c7 45 fc ff ff
	ff ff		 mov	 DWORD PTR __$EHRec$[ebp+8], -1
; File C:\Program Files\Microsoft Visual Studio\2022\Professional\VC\Tools\MSVC\14.44.35207\include\utility

; 303  :         : first(_STD forward<_Other1>(_Right.first)), second(_STD forward<_Other2>(_Right.second)) {}

  00201	89 48 10	 mov	 DWORD PTR [eax+16], ecx
; File C:\Program Files\Microsoft Visual Studio\2022\Professional\VC\Tools\MSVC\14.44.35207\include\xtree

; 831  :         _Construct_in_place(this->_Ptr->_Left, _Myhead);

  00204	8b 4d d0	 mov	 ecx, DWORD PTR __Myhead$1$[ebp]
; File C:\Program Files\Microsoft Visual Studio\2022\Professional\VC\Tools\MSVC\14.44.35207\include\utility

; 303  :         : first(_STD forward<_Other1>(_Right.first)), second(_STD forward<_Other2>(_Right.second)) {}

  00207	89 78 14	 mov	 DWORD PTR [eax+20], edi
; File C:\Program Files\Microsoft Visual Studio\2022\Professional\VC\Tools\MSVC\14.44.35207\include\xtree

; 831  :         _Construct_in_place(this->_Ptr->_Left, _Myhead);

  0020a	89 08		 mov	 DWORD PTR [eax], ecx

; 1042 :         return {_Scary->_Insert_node(_Loc._Location, _Inserted), true};

  0020c	50		 push	 eax

; 832  :         _Construct_in_place(this->_Ptr->_Parent, _Myhead);

  0020d	89 48 04	 mov	 DWORD PTR [eax+4], ecx

; 833  :         _Construct_in_place(this->_Ptr->_Right, _Myhead);

  00210	89 48 08	 mov	 DWORD PTR [eax+8], ecx

; 1042 :         return {_Scary->_Insert_node(_Loc._Location, _Inserted), true};

  00213	b9 28 00 00 00	 mov	 ecx, OFFSET ?prj@@3VCProject@@A+40
  00218	56		 push	 esi
  00219	53		 push	 ebx

; 834  :         this->_Ptr->_Color = _Red;

  0021a	66 c7 40 0c 00
	00		 mov	 WORD PTR [eax+12], 0

; 1042 :         return {_Scary->_Insert_node(_Loc._Location, _Inserted), true};

  00220	e8 00 00 00 00	 call	 ?_Insert_node@?$_Tree_val@U?$_Tree_simple_types@U?$pair@$$CBKPAVCMover@@@std@@@std@@@std@@QAEPAU?$_Tree_node@U?$pair@$$CBKPAVCMover@@@std@@PAX@2@U?$_Tree_id@PAU?$_Tree_node@U?$pair@$$CBKPAVCMover@@@std@@PAX@std@@@2@QAU32@@Z ; std::_Tree_val<std::_Tree_simple_types<std::pair<unsigned long const ,CMover *> > >::_Insert_node
$LN3@AddItToGlo:
; File C:\IAGOS\server\v18\Source\Source\_Common\ctrl.cpp

; 119  : 	if( GetType() == OT_CTRL )

  00225	83 bf 70 01 00
	00 02		 cmp	 DWORD PTR [edi+368], 2
  0022c	75 42		 jne	 SHORT $LN283@AddItToGlo

; 120  : 	{
; 121  : 		CCommonCtrl* pCommonCtrl = (CCommonCtrl*)this;
; 122  : 		if( pCommonCtrl->m_CtrlElem.m_strCtrlKey[0] != '\0' )

  0022e	80 bf 80 03 00
	00 00		 cmp	 BYTE PTR [edi+896], 0
  00235	8d 87 80 03 00
	00		 lea	 eax, DWORD PTR [edi+896]
  0023b	74 33		 je	 SHORT $LN283@AddItToGlo

; 123  : 			g_MapStrToObjId.insert( map< string, DWORD >::value_type(pCommonCtrl->m_CtrlElem.m_strCtrlKey, pCommonCtrl->GetId() ) );

  0023d	8b b7 bc 01 00
	00		 mov	 esi, DWORD PTR [edi+444]
; File C:\Program Files\Microsoft Visual Studio\2022\Professional\VC\Tools\MSVC\14.44.35207\include\utility

; 274  :         : first(_STD forward<_Other1>(_Val1)), second(_STD forward<_Other2>(_Val2)) {

  00243	8d 4d d4	 lea	 ecx, DWORD PTR $T13[ebp]
  00246	50		 push	 eax
  00247	e8 00 00 00 00	 call	 ??0?$basic_string@DU?$char_traits@D@std@@V?$allocator@D@2@@std@@QAE@QBD@Z ; std::basic_string<char,std::char_traits<char>,std::allocator<char> >::basic_string<char,std::char_traits<char>,std::allocator<char> >
  0024c	89 75 ec	 mov	 DWORD PTR $T13[ebp+24], esi
; File C:\Program Files\Microsoft Visual Studio\2022\Professional\VC\Tools\MSVC\14.44.35207\include\xtree

; 1246 :         const auto _Result = _Emplace(_STD move(_Val));

  0024f	8d 45 d4	 lea	 eax, DWORD PTR $T13[ebp]
; File C:\IAGOS\server\v18\Source\Source\_Common\ctrl.cpp

; 123  : 			g_MapStrToObjId.insert( map< string, DWORD >::value_type(pCommonCtrl->m_CtrlElem.m_strCtrlKey, pCommonCtrl->GetId() ) );

  00252	c7 45 fc 03 00
	00 00		 mov	 DWORD PTR __$EHRec$[ebp+8], 3
; File C:\Program Files\Microsoft Visual Studio\2022\Professional\VC\Tools\MSVC\14.44.35207\include\xtree

; 1246 :         const auto _Result = _Emplace(_STD move(_Val));

  00259	50		 push	 eax
  0025a	8d 45 c0	 lea	 eax, DWORD PTR __Result$8[ebp]
  0025d	b9 00 00 00 00	 mov	 ecx, OFFSET ?g_MapStrToObjId@@3V?$map@V?$basic_string@DU?$char_traits@D@std@@V?$allocator@D@2@@std@@KU?$less@V?$basic_string@DU?$char_traits@D@std@@V?$allocator@D@2@@std@@@2@V?$allocator@U?$pair@$$CBV?$basic_string@DU?$char_traits@D@std@@V?$allocator@D@2@@std@@K@std@@@2@@std@@A ; g_MapStrToObjId
  00262	50		 push	 eax
  00263	e8 00 00 00 00	 call	 ??$_Emplace@U?$pair@$$CBV?$basic_string@DU?$char_traits@D@std@@V?$allocator@D@2@@std@@K@std@@@?$_Tree@V?$_Tmap_traits@V?$basic_string@DU?$char_traits@D@std@@V?$allocator@D@2@@std@@KU?$less@V?$basic_string@DU?$char_traits@D@std@@V?$allocator@D@2@@std@@@2@V?$allocator@U?$pair@$$CBV?$basic_string@DU?$char_traits@D@std@@V?$allocator@D@2@@std@@K@std@@@2@$0A@@std@@@std@@IAE?AU?$pair@PAU?$_Tree_node@U?$pair@$$CBV?$basic_string@DU?$char_traits@D@std@@V?$allocator@D@2@@std@@K@std@@PAX@std@@_N@1@$$QAU?$pair@$$CBV?$basic_string@DU?$char_traits@D@std@@V?$allocator@D@2@@std@@K@1@@Z ; std::_Tree<std::_Tmap_traits<std::basic_string<char,std::char_traits<char>,std::allocator<char> >,unsigned long,std::less<std::basic_string<char,std::char_traits<char>,std::allocator<char> > >,std::allocator<std::pair<std::basic_string<char,std::char_traits<char>,std::allocator<char> > const ,unsigned long> >,0> >::_Emplace<std::pair<std::basic_string<char,std::char_traits<char>,std::allocator<char> > const ,unsigned long> >
  00268	8d 4d d4	 lea	 ecx, DWORD PTR $T13[ebp]
  0026b	e8 00 00 00 00	 call	 ??1?$basic_string@DU?$char_traits@D@std@@V?$allocator@D@2@@std@@QAE@XZ ; std::basic_string<char,std::char_traits<char>,std::allocator<char> >::~basic_string<char,std::char_traits<char>,std::allocator<char> >
$LN283@AddItToGlo:
; File C:\IAGOS\server\v18\Source\Source\_Common\ctrl.cpp

; 126  : }

  00270	8b 4d f4	 mov	 ecx, DWORD PTR __$EHRec$[ebp]
  00273	64 89 0d 00 00
	00 00		 mov	 DWORD PTR fs:0, ecx
  0027a	59		 pop	 ecx
  0027b	5f		 pop	 edi
  0027c	5e		 pop	 esi
  0027d	5b		 pop	 ebx
  0027e	8b 4d f0	 mov	 ecx, DWORD PTR __$ArrayPad$[ebp]
  00281	33 cd		 xor	 ecx, ebp
  00283	e8 00 00 00 00	 call	 @__security_check_cookie@4
  00288	8b e5		 mov	 esp, ebp
  0028a	5d		 pop	 ebp
  0028b	c3		 ret	 0
$LN293@AddItToGlo:
; File C:\Program Files\Microsoft Visual Studio\2022\Professional\VC\Tools\MSVC\14.44.35207\include\xtree

; 1649 :             _Throw_tree_length_error();

  0028c	e8 00 00 00 00	 call	 ?_Throw_tree_length_error@std@@YAXXZ ; std::_Throw_tree_length_error
$LN296@AddItToGlo:
  00291	cc		 int	 3
_TEXT	ENDS
;	COMDAT text$x
text$x	SEGMENT
__unwindfunclet$?AddItToGlobalId@CCtrl@@UAEXXZ$1:
  00000	8d 4d d0	 lea	 ecx, DWORD PTR _Lock$12[ebp]
  00003	e9 00 00 00 00	 jmp	 ??1CMclAutoLock@@QAE@XZ	; CMclAutoLock::~CMclAutoLock
__unwindfunclet$?AddItToGlobalId@CCtrl@@UAEXXZ$4:
  00008	8d 4d cc	 lea	 ecx, DWORD PTR $T11[ebp]
  0000b	e9 00 00 00 00	 jmp	 ??1?$_Alloc_construct_ptr@V?$allocator@U?$_Tree_node@U?$pair@$$CBKPAVCCtrl@@@std@@PAX@std@@@std@@@std@@QAE@XZ ; std::_Alloc_construct_ptr<std::allocator<std::_Tree_node<std::pair<unsigned long const ,CCtrl *>,void *> > >::~_Alloc_construct_ptr<std::allocator<std::_Tree_node<std::pair<unsigned long const ,CCtrl *>,void *> > >
__unwindfunclet$?AddItToGlobalId@CCtrl@@UAEXXZ$9:
  00010	8d 4d c0	 lea	 ecx, DWORD PTR $T9[ebp]
  00013	e9 00 00 00 00	 jmp	 ??1?$_Alloc_construct_ptr@V?$allocator@U?$_Tree_node@U?$pair@$$CBKPAVCMover@@@std@@PAX@std@@@std@@@std@@QAE@XZ ; std::_Alloc_construct_ptr<std::allocator<std::_Tree_node<std::pair<unsigned long const ,CMover *>,void *> > >::~_Alloc_construct_ptr<std::allocator<std::_Tree_node<std::pair<unsigned long const ,CMover *>,void *> > >
__unwindfunclet$?AddItToGlobalId@CCtrl@@UAEXXZ$0:
  00018	8d 4d d4	 lea	 ecx, DWORD PTR $T13[ebp]
  0001b	e9 00 00 00 00	 jmp	 ??1?$pair@$$CBV?$basic_string@DU?$char_traits@D@std@@V?$allocator@D@2@@std@@K@std@@QAE@XZ
  00020	cc		 int	 3
  00021	cc		 int	 3
  00022	cc		 int	 3
  00023	cc		 int	 3
  00024	cc		 int	 3
__ehhandler$?AddItToGlobalId@CCtrl@@UAEXXZ:
  00025	90		 npad	 1
  00026	90		 npad	 1
  00027	8b 54 24 08	 mov	 edx, DWORD PTR [esp+8]
  0002b	8d 42 0c	 lea	 eax, DWORD PTR [edx+12]
  0002e	8b 4a ac	 mov	 ecx, DWORD PTR [edx-84]
  00031	33 c8		 xor	 ecx, eax
  00033	e8 00 00 00 00	 call	 @__security_check_cookie@4
  00038	8b 4a fc	 mov	 ecx, DWORD PTR [edx-4]
  0003b	33 c8		 xor	 ecx, eax
  0003d	e8 00 00 00 00	 call	 @__security_check_cookie@4
  00042	b8 00 00 00 00	 mov	 eax, OFFSET __ehfuncinfo$?AddItToGlobalId@CCtrl@@UAEXXZ
  00047	e9 00 00 00 00	 jmp	 ___CxxFrameHandler3
text$x	ENDS
?AddItToGlobalId@CCtrl@@UAEXXZ ENDP			; CCtrl::AddItToGlobalId
; Function compile flags: /Ogtp
; File C:\IAGOS\server\v18\Source\Source\_Common\Ctrl.h
;	COMDAT ?SendDamageForce@CCtrl@@UAEHKKHH@Z
_TEXT	SEGMENT
_dwAtkFlags$ = 8					; size = 4
_idSender$ = 12						; size = 4
_nParam$ = 16						; size = 4
_bTarget$ = 20						; size = 4
?SendDamageForce@CCtrl@@UAEHKKHH@Z PROC			; CCtrl::SendDamageForce, COMDAT
; _this$ = ecx

; 49   : 	virtual int		SendDamageForce( DWORD dwAtkFlags, OBJID idSender, int nParam = 0, BOOL bTarget = TRUE ) { return 0; }	// °­°ř°Ý

  00000	33 c0		 xor	 eax, eax
  00002	c2 10 00	 ret	 16			; 00000010H
?SendDamageForce@CCtrl@@UAEHKKHH@Z ENDP			; CCtrl::SendDamageForce
_TEXT	ENDS
; Function compile flags: /Ogtp
; File C:\IAGOS\server\v18\Source\Source\_Common\Ctrl.h
;	COMDAT ?SendDamage@CCtrl@@UAEHKKHH@Z
_TEXT	SEGMENT
_dwAtkFlag$ = 8						; size = 4
_idAttacker$ = 12					; size = 4
_nParam$ = 16						; size = 4
_bTarget$ = 20						; size = 4
?SendDamage@CCtrl@@UAEHKKHH@Z PROC			; CCtrl::SendDamage, COMDAT
; _this$ = ecx

; 48   : 	virtual int		SendDamage( DWORD dwAtkFlag, OBJID idAttacker, int nParam = 0, BOOL bTarget = TRUE ) { return 0; }

  00000	33 c0		 xor	 eax, eax
  00002	c2 10 00	 ret	 16			; 00000010H
?SendDamage@CCtrl@@UAEHKKHH@Z ENDP			; CCtrl::SendDamage
_TEXT	ENDS
; Function compile flags: /Ogtp
; File C:\IAGOS\server\v18\Source\Source\_Common\ctrl.cpp
; File C:\IAGOS\server\v18\Source\Source\_Common\Project.h
; File C:\IAGOS\server\v18\Source\Source\_Common\ctrl.cpp
; File C:\IAGOS\server\v18\Source\Source\_Common\Project.h
; File C:\IAGOS\server\v18\Source\Source\_Common\ctrl.cpp
; File C:\IAGOS\server\v18\Source\Source\_Common\Project.h
; File C:\IAGOS\server\v18\Source\Source\_Common\data.h
; File C:\IAGOS\server\v18\Source\Source\_Common\ctrl.cpp
; File C:\IAGOS\server\v18\Source\Source\_Common\Project.h
; File C:\IAGOS\server\v18\Source\Source\_Common\ctrl.cpp
;	COMDAT ?GetSkillProp@CCtrl@@UAEHPAPAUItemProp@@PAPAUAddSkillProp@@HKPBD@Z
_TEXT	SEGMENT
_ppSkillProp$ = 8					; size = 4
_ppAddSkillProp$ = 12					; size = 4
_nSkill$ = 16						; size = 4
_pAddSkillProp$1$ = 16					; size = 4
_dwLevel$ = 20						; size = 4
_szErr$ = 24						; size = 4
?GetSkillProp@CCtrl@@UAEHPAPAUItemProp@@PAPAUAddSkillProp@@HKPBD@Z PROC ; CCtrl::GetSkillProp, COMDAT
; _this$ = ecx

; 217  : {

  00000	55		 push	 ebp
  00001	8b ec		 mov	 ebp, esp
; File C:\IAGOS\server\v18\Source\Source\_Common\Project.h

; 1395 : 	VERIFY_RANGE( nIndex, 0, m_aPropSkill.GetSize(), "GetSkillProp range_error", NULL );

  00003	a1 64 02 00 00	 mov	 eax, DWORD PTR ?prj@@3VCProject@@A+612
; File C:\IAGOS\server\v18\Source\Source\_Common\ctrl.cpp

; 217  : {

  00008	53		 push	 ebx
  00009	56		 push	 esi
; File C:\IAGOS\server\v18\Source\Source\_Common\Project.h

; 1395 : 	VERIFY_RANGE( nIndex, 0, m_aPropSkill.GetSize(), "GetSkillProp range_error", NULL );

  0000a	8b 75 10	 mov	 esi, DWORD PTR _nSkill$[ebp]
; File C:\IAGOS\server\v18\Source\Source\_Common\ctrl.cpp

; 217  : {

  0000d	8b d9		 mov	 ebx, ecx
  0000f	57		 push	 edi
; File C:\IAGOS\server\v18\Source\Source\_Common\Project.h

; 1395 : 	VERIFY_RANGE( nIndex, 0, m_aPropSkill.GetSize(), "GetSkillProp range_error", NULL );

  00010	85 f6		 test	 esi, esi
  00012	0f 88 92 00 00
	00		 js	 $LN11@GetSkillPr
  00018	3b f0		 cmp	 esi, eax
  0001a	0f 8d 8a 00 00
	00		 jge	 $LN11@GetSkillPr
; File C:\IAGOS\server\v18\Source\Source\_Common\data.h

; 270  : 	if( dwIndex >= (DWORD)m_nMaxIndex )

  00020	72 04		 jb	 SHORT $LN16@GetSkillPr

; 271  : 		return NULL;

  00022	33 ff		 xor	 edi, edi
  00024	eb 08		 jmp	 SHORT $LN15@GetSkillPr
$LN16@GetSkillPr:

; 272  : 	return (T*) m_apOffset[ dwIndex ];

  00026	a1 54 02 00 00	 mov	 eax, DWORD PTR ?prj@@3VCProject@@A+596
  0002b	8b 3c b0	 mov	 edi, DWORD PTR [eax+esi*4]
$LN15@GetSkillPr:
; File C:\IAGOS\server\v18\Source\Source\_Common\ctrl.cpp

; 219  : 	if( pSkillProp == NULL )

  0002e	85 ff		 test	 edi, edi
  00030	0f 84 8a 00 00
	00		 je	 $LN18@GetSkillPr

; 222  : 		return FALSE;
; 223  : 	}
; 224  : 	
; 225  : 	
; 226  : 	AddSkillProp *pAddSkillProp	= prj.GetAddSkillProp( pSkillProp->dwSubDefine, dwLevel );

  00036	ff 75 14	 push	 DWORD PTR _dwLevel$[ebp]
  00039	b9 00 00 00 00	 mov	 ecx, OFFSET ?prj@@3VCProject@@A ; prj
  0003e	ff b7 10 02 00
	00		 push	 DWORD PTR [edi+528]
  00044	e8 00 00 00 00	 call	 ?GetAddSkillProp@CProject@@QAEPAUAddSkillProp@@KK@Z ; CProject::GetAddSkillProp
  00049	89 45 10	 mov	 DWORD PTR _pAddSkillProp$1$[ebp], eax

; 227  : 	if( pAddSkillProp == NULL )

  0004c	85 c0		 test	 eax, eax
  0004e	75 23		 jne	 SHORT $LN3@GetSkillPr

; 228  : 	{
; 229  : 		Error( "%s : %d. Add˝şĹł(%d) Lv%dŔÇ ÇÁ·ÎĆŰĆĽ°ˇ ľř´Ů.", szErr, GetIndex(), nSkill, dwLevel );

  00050	ff 75 14	 push	 DWORD PTR _dwLevel$[ebp]
  00053	56		 push	 esi
  00054	ff b3 74 01 00
	00		 push	 DWORD PTR [ebx+372]
  0005a	ff 75 18	 push	 DWORD PTR _szErr$[ebp]
  0005d	68 00 00 00 00	 push	 OFFSET ??_C@_0CN@DHHEAMNP@?$CFs?5?3?5?$CFd?4?5Add?$LN?$LK?E?$LD?$CI?$CFd?$CJ?5Lv?$CFd?$MA?G?5?G?A?$LH@
  00062	e8 00 00 00 00	 call	 ?Error@@YAPBDPBDZZ	; Error
  00067	83 c4 14	 add	 esp, 20			; 00000014H

; 238  : 	
; 239  : 	return TRUE;
; 240  : }

  0006a	33 c0		 xor	 eax, eax
  0006c	5f		 pop	 edi
  0006d	5e		 pop	 esi
  0006e	5b		 pop	 ebx
  0006f	5d		 pop	 ebp
  00070	c2 14 00	 ret	 20			; 00000014H
$LN3@GetSkillPr:

; 230  : 		return FALSE;
; 231  : 	}
; 232  : 
; 233  : 	if( pAddSkillProp->dwName != pSkillProp->dwID )

  00073	8b 40 04	 mov	 eax, DWORD PTR [eax+4]
  00076	3b 07		 cmp	 eax, DWORD PTR [edi]
  00078	74 17		 je	 SHORT $LN4@GetSkillPr

; 234  : 		Error( "%s : %d. Add˝şĹł(%d) AddSkill->dwName°ú Skill->dwID°ˇ ´Ů¸Ł´Ů.", szErr, GetIndex(), nSkill );

  0007a	56		 push	 esi
  0007b	ff b3 74 01 00
	00		 push	 DWORD PTR [ebx+372]
  00081	ff 75 18	 push	 DWORD PTR _szErr$[ebp]
  00084	68 00 00 00 00	 push	 OFFSET ??_C@_0DO@DMAIFMKC@?$CFs?5?3?5?$CFd?4?5Add?$LN?$LK?E?$LD?$CI?$CFd?$CJ?5AddSkill?9?$DO@
  00089	e8 00 00 00 00	 call	 ?Error@@YAPBDPBDZZ	; Error
  0008e	83 c4 10	 add	 esp, 16			; 00000010H
$LN4@GetSkillPr:

; 235  : 	
; 236  : 	*ppSkillProp = pSkillProp;

  00091	8b 45 08	 mov	 eax, DWORD PTR _ppSkillProp$[ebp]

; 237  : 	*ppAddSkillProp = pAddSkillProp;

  00094	8b 4d 10	 mov	 ecx, DWORD PTR _pAddSkillProp$1$[ebp]
  00097	89 38		 mov	 DWORD PTR [eax], edi
  00099	8b 45 0c	 mov	 eax, DWORD PTR _ppAddSkillProp$[ebp]
  0009c	5f		 pop	 edi

; 238  : 	
; 239  : 	return TRUE;
; 240  : }

  0009d	5e		 pop	 esi
  0009e	5b		 pop	 ebx
  0009f	89 08		 mov	 DWORD PTR [eax], ecx
  000a1	b8 01 00 00 00	 mov	 eax, 1
  000a6	5d		 pop	 ebp
  000a7	c2 14 00	 ret	 20			; 00000014H
$LN11@GetSkillPr:
; File C:\IAGOS\server\v18\Source\Source\_Common\Project.h

; 579  : 	LPCTSTR szErr = Error( _T( "%s min:%d, max:%d, index:%d" ), szMsg, nMin, nMax, nIndex ); 

  000aa	56		 push	 esi
  000ab	50		 push	 eax
  000ac	6a 00		 push	 0
  000ae	68 00 00 00 00	 push	 OFFSET ??_C@_0BJ@GPNGCFMK@GetSkillProp?5range_error@
  000b3	68 00 00 00 00	 push	 OFFSET ??_C@_0BM@HMFGHCP@?$CFs?5min?3?$CFd?0?5max?3?$CFd?0?5index?3?$CFd@
  000b8	e8 00 00 00 00	 call	 ?Error@@YAPBDPBDZZ	; Error
  000bd	83 c4 14	 add	 esp, 20			; 00000014H
$LN18@GetSkillPr:
; File C:\IAGOS\server\v18\Source\Source\_Common\ctrl.cpp

; 221  : 		Error( "%s : %d. ˝şĹł(%d)ŔÇ ÇÁ·ÎĆŰĆĽ°ˇ ľř´Ů.", szErr, GetIndex(), nSkill );

  000c0	56		 push	 esi
  000c1	ff b3 74 01 00
	00		 push	 DWORD PTR [ebx+372]
  000c7	ff 75 18	 push	 DWORD PTR _szErr$[ebp]
  000ca	68 00 00 00 00	 push	 OFFSET ??_C@_0CF@DHKEIGNE@?$CFs?5?3?5?$CFd?4?5?$LN?$LK?E?$LD?$CI?$CFd?$CJ?$MA?G?5?G?A?$LH?N?F?$NL?F?$LM?$LA?$KB?5@
  000cf	e8 00 00 00 00	 call	 ?Error@@YAPBDPBDZZ	; Error
  000d4	83 c4 10	 add	 esp, 16			; 00000010H

; 238  : 	
; 239  : 	return TRUE;
; 240  : }

  000d7	33 c0		 xor	 eax, eax
  000d9	5f		 pop	 edi
  000da	5e		 pop	 esi
  000db	5b		 pop	 ebx
  000dc	5d		 pop	 ebp
  000dd	c2 14 00	 ret	 20			; 00000014H
?GetSkillProp@CCtrl@@UAEHPAPAUItemProp@@PAPAUAddSkillProp@@HKPBD@Z ENDP ; CCtrl::GetSkillProp
_TEXT	ENDS
; Function compile flags: /Ogtp
; File C:\Program Files\Microsoft Visual Studio\2022\Professional\VC\Tools\MSVC\14.44.35207\include\xtree
; File C:\Program Files\Microsoft Visual Studio\2022\Professional\VC\Tools\MSVC\14.44.35207\include\utility
; File C:\Program Files\Microsoft Visual Studio\2022\Professional\VC\Tools\MSVC\14.44.35207\include\xtree
;	COMDAT ?_Extract@?$_Tree_val@U?$_Tree_simple_types@U?$pair@$$CBKPAVCUser@@@std@@@std@@@std@@QAEPAU?$_Tree_node@U?$pair@$$CBKPAVCUser@@@std@@PAX@2@V?$_Tree_unchecked_const_iterator@V?$_Tree_val@U?$_Tree_simple_types@U?$pair@$$CBKPAVCUser@@@std@@@std@@@std@@U_Iterator_base0@2@@2@@Z
_TEXT	SEGMENT
tv1039 = -16						; size = 4
tv1073 = -12						; size = 4
tv1093 = -12						; size = 4
$T1 = -12						; size = 4
__Erasednode$1$ = -8					; size = 4
_this$1$ = -4						; size = 4
__Where$ = 8						; size = 4
?_Extract@?$_Tree_val@U?$_Tree_simple_types@U?$pair@$$CBKPAVCUser@@@std@@@std@@@std@@QAEPAU?$_Tree_node@U?$pair@$$CBKPAVCUser@@@std@@PAX@2@V?$_Tree_unchecked_const_iterator@V?$_Tree_val@U?$_Tree_simple_types@U?$pair@$$CBKPAVCUser@@@std@@@std@@@std@@U_Iterator_base0@2@@2@@Z PROC ; std::_Tree_val<std::_Tree_simple_types<std::pair<unsigned long const ,CUser *> > >::_Extract, COMDAT
; _this$ = ecx

; 527  :     _Nodeptr _Extract(_Unchecked_const_iterator _Where) noexcept {

  00000	55		 push	 ebp
  00001	8b ec		 mov	 ebp, esp
  00003	83 ec 10	 sub	 esp, 16			; 00000010H

; 528  :         _Nodeptr _Erasednode = _Where._Ptr; // node to erase

  00006	8b 45 08	 mov	 eax, DWORD PTR __Where$[ebp]
  00009	53		 push	 ebx
  0000a	56		 push	 esi
  0000b	8b d9		 mov	 ebx, ecx
  0000d	89 45 f8	 mov	 DWORD PTR __Erasednode$1$[ebp], eax
  00010	57		 push	 edi

; 529  :         ++_Where; // save successor iterator for return

  00011	8d 4d 08	 lea	 ecx, DWORD PTR __Where$[ebp]
  00014	89 5d fc	 mov	 DWORD PTR _this$1$[ebp], ebx
  00017	e8 00 00 00 00	 call	 ??E?$_Tree_unchecked_const_iterator@V?$_Tree_val@U?$_Tree_simple_types@U?$pair@$$CBKPAVCUser@@@std@@@std@@@std@@U_Iterator_base0@2@@std@@QAEAAV01@XZ ; std::_Tree_unchecked_const_iterator<std::_Tree_val<std::_Tree_simple_types<std::pair<unsigned long const ,CUser *> > >,std::_Iterator_base0>::operator++

; 530  : 
; 531  :         _Nodeptr _Fixnode; // the node to recolor as needed
; 532  :         _Nodeptr _Fixnodeparent; // parent of _Fixnode (which may be nil)
; 533  :         _Nodeptr _Pnode = _Erasednode;
; 534  : 
; 535  :         if (_Pnode->_Left->_Isnil) {

  0001c	8b 4d f8	 mov	 ecx, DWORD PTR __Erasednode$1$[ebp]
  0001f	8b 01		 mov	 eax, DWORD PTR [ecx]
  00021	8b 79 08	 mov	 edi, DWORD PTR [ecx+8]
  00024	80 78 0d 00	 cmp	 BYTE PTR [eax+13], 0
  00028	75 18		 jne	 SHORT $LN94@Extract

; 536  :             _Fixnode = _Pnode->_Right; // stitch up right subtree
; 537  :         } else if (_Pnode->_Right->_Isnil) {

  0002a	80 7f 0d 00	 cmp	 BYTE PTR [edi+13], 0
  0002e	74 04		 je	 SHORT $LN7@Extract

; 538  :             _Fixnode = _Pnode->_Left; // stitch up left subtree

  00030	8b f8		 mov	 edi, eax

; 539  :         } else { // two subtrees, must lift successor node to replace erased

  00032	eb 0e		 jmp	 SHORT $LN94@Extract
$LN7@Extract:

; 540  :             _Pnode   = _Where._Ptr; // _Pnode is successor node

  00034	8b 55 08	 mov	 edx, DWORD PTR __Where$[ebp]

; 541  :             _Fixnode = _Pnode->_Right; // _Fixnode is only subtree

  00037	8b 7a 08	 mov	 edi, DWORD PTR [edx+8]
  0003a	3b d1		 cmp	 edx, ecx

; 542  :         }
; 543  : 
; 544  :         if (_Pnode == _Erasednode) { // at most one subtree, relink it

  0003c	0f 85 91 00 00
	00		 jne	 $LN9@Extract
$LN94@Extract:

; 545  :             _Fixnodeparent = _Erasednode->_Parent;
; 546  :             if (!_Fixnode->_Isnil) {

  00042	80 7f 0d 00	 cmp	 BYTE PTR [edi+13], 0
  00046	8b 71 04	 mov	 esi, DWORD PTR [ecx+4]
  00049	75 03		 jne	 SHORT $LN11@Extract

; 547  :                 _Fixnode->_Parent = _Fixnodeparent; // link up

  0004b	89 77 04	 mov	 DWORD PTR [edi+4], esi
$LN11@Extract:

; 548  :             }
; 549  : 
; 550  :             if (_Myhead->_Parent == _Erasednode) {

  0004e	8b 03		 mov	 eax, DWORD PTR [ebx]
  00050	39 48 04	 cmp	 DWORD PTR [eax+4], ecx
  00053	75 05		 jne	 SHORT $LN12@Extract

; 551  :                 _Myhead->_Parent = _Fixnode; // link down from root

  00055	89 78 04	 mov	 DWORD PTR [eax+4], edi
  00058	eb 0b		 jmp	 SHORT $LN15@Extract
$LN12@Extract:

; 552  :             } else if (_Fixnodeparent->_Left == _Erasednode) {

  0005a	39 0e		 cmp	 DWORD PTR [esi], ecx
  0005c	75 04		 jne	 SHORT $LN14@Extract

; 553  :                 _Fixnodeparent->_Left = _Fixnode; // link down to left

  0005e	89 3e		 mov	 DWORD PTR [esi], edi

; 554  :             } else {

  00060	eb 03		 jmp	 SHORT $LN15@Extract
$LN14@Extract:

; 555  :                 _Fixnodeparent->_Right = _Fixnode; // link down to right

  00062	89 7e 08	 mov	 DWORD PTR [esi+8], edi
$LN15@Extract:

; 556  :             }
; 557  : 
; 558  :             if (_Myhead->_Left == _Erasednode) {

  00065	8b 03		 mov	 eax, DWORD PTR [ebx]
  00067	39 08		 cmp	 DWORD PTR [eax], ecx
  00069	75 28		 jne	 SHORT $LN16@Extract

; 559  :                 _Myhead->_Left = _Fixnode->_Isnil ? _Fixnodeparent // smallest is parent of erased node

  0006b	80 7f 0d 00	 cmp	 BYTE PTR [edi+13], 0
  0006f	74 04		 je	 SHORT $LN42@Extract
  00071	8b d6		 mov	 edx, esi
  00073	eb 1c		 jmp	 SHORT $LN43@Extract
$LN42@Extract:

; 476  :         while (!_Pnode->_Left->_Isnil) {

  00075	8b 0f		 mov	 ecx, DWORD PTR [edi]

; 559  :                 _Myhead->_Left = _Fixnode->_Isnil ? _Fixnodeparent // smallest is parent of erased node

  00077	8b d7		 mov	 edx, edi

; 476  :         while (!_Pnode->_Left->_Isnil) {

  00079	80 79 0d 00	 cmp	 BYTE PTR [ecx+13], 0
  0007d	75 0f		 jne	 SHORT $LN49@Extract
  0007f	90		 npad	 1
$LL48@Extract:
  00080	8b 01		 mov	 eax, DWORD PTR [ecx]

; 477  :             _Pnode = _Pnode->_Left;

  00082	8b d1		 mov	 edx, ecx
  00084	8b c8		 mov	 ecx, eax
  00086	80 78 0d 00	 cmp	 BYTE PTR [eax+13], 0
  0008a	74 f4		 je	 SHORT $LL48@Extract
  0008c	8b 03		 mov	 eax, DWORD PTR [ebx]
$LN49@Extract:
  0008e	8b 4d f8	 mov	 ecx, DWORD PTR __Erasednode$1$[ebp]
$LN43@Extract:

; 559  :                 _Myhead->_Left = _Fixnode->_Isnil ? _Fixnodeparent // smallest is parent of erased node

  00091	89 10		 mov	 DWORD PTR [eax], edx
$LN16@Extract:

; 560  :                                                   : _Min(_Fixnode); // smallest in relinked subtree
; 561  :             }
; 562  : 
; 563  :             if (_Myhead->_Right == _Erasednode) {

  00093	8b 13		 mov	 edx, DWORD PTR [ebx]
  00095	39 4a 08	 cmp	 DWORD PTR [edx+8], ecx
  00098	75 34		 jne	 SHORT $LN17@Extract

; 564  :                 _Myhead->_Right = _Fixnode->_Isnil ? _Fixnodeparent // largest is parent of erased node

  0009a	80 7f 0d 00	 cmp	 BYTE PTR [edi+13], 0
  0009e	74 0d		 je	 SHORT $LN44@Extract

; 565  :                                                    : _Max(_Fixnode); // largest in relinked subtree
; 566  :             }
; 567  :         } else { // erased has two subtrees, _Pnode is successor to erased

  000a0	8b 45 f8	 mov	 eax, DWORD PTR __Erasednode$1$[ebp]
  000a3	8b ce		 mov	 ecx, esi
  000a5	89 4a 08	 mov	 DWORD PTR [edx+8], ecx
  000a8	e9 94 00 00 00	 jmp	 $LN58@Extract
$LN44@Extract:

; 468  :         while (!_Pnode->_Right->_Isnil) {

  000ad	8b 47 08	 mov	 eax, DWORD PTR [edi+8]

; 564  :                 _Myhead->_Right = _Fixnode->_Isnil ? _Fixnodeparent // largest is parent of erased node

  000b0	8b cf		 mov	 ecx, edi

; 468  :         while (!_Pnode->_Right->_Isnil) {

  000b2	80 78 0d 00	 cmp	 BYTE PTR [eax+13], 0
  000b6	75 13		 jne	 SHORT $LN54@Extract
  000b8	0f 1f 84 00 00
	00 00 00	 npad	 8
$LL53@Extract:

; 469  :             _Pnode = _Pnode->_Right;

  000c0	8b c8		 mov	 ecx, eax
  000c2	8b 41 08	 mov	 eax, DWORD PTR [ecx+8]
  000c5	80 78 0d 00	 cmp	 BYTE PTR [eax+13], 0
  000c9	74 f5		 je	 SHORT $LL53@Extract
$LN54@Extract:

; 564  :                 _Myhead->_Right = _Fixnode->_Isnil ? _Fixnodeparent // largest is parent of erased node

  000cb	89 4a 08	 mov	 DWORD PTR [edx+8], ecx
$LN17@Extract:

; 565  :                                                    : _Max(_Fixnode); // largest in relinked subtree
; 566  :             }
; 567  :         } else { // erased has two subtrees, _Pnode is successor to erased

  000ce	8b 45 f8	 mov	 eax, DWORD PTR __Erasednode$1$[ebp]
  000d1	eb 6e		 jmp	 SHORT $LN58@Extract
$LN9@Extract:

; 568  :             _Erasednode->_Left->_Parent = _Pnode; // link left up

  000d3	89 50 04	 mov	 DWORD PTR [eax+4], edx

; 569  :             _Pnode->_Left               = _Erasednode->_Left; // link successor down

  000d6	8b 01		 mov	 eax, DWORD PTR [ecx]
  000d8	89 02		 mov	 DWORD PTR [edx], eax

; 570  : 
; 571  :             if (_Pnode == _Erasednode->_Right) {

  000da	8d 42 04	 lea	 eax, DWORD PTR [edx+4]
  000dd	89 45 f4	 mov	 DWORD PTR $T1[ebp], eax
  000e0	3b 51 08	 cmp	 edx, DWORD PTR [ecx+8]
  000e3	75 04		 jne	 SHORT $LN18@Extract

; 572  :                 _Fixnodeparent = _Pnode; // successor is next to erased

  000e5	8b f2		 mov	 esi, edx

; 573  :             } else { // successor further down, link in place of erased

  000e7	eb 1f		 jmp	 SHORT $LN19@Extract
$LN18@Extract:

; 574  :                 _Fixnodeparent = _Pnode->_Parent; // parent is successor's
; 575  :                 if (!_Fixnode->_Isnil) {

  000e9	80 7f 0d 00	 cmp	 BYTE PTR [edi+13], 0
  000ed	8b 30		 mov	 esi, DWORD PTR [eax]
  000ef	75 03		 jne	 SHORT $LN20@Extract

; 576  :                     _Fixnode->_Parent = _Fixnodeparent; // link fix up

  000f1	89 77 04	 mov	 DWORD PTR [edi+4], esi
$LN20@Extract:

; 577  :                 }
; 578  : 
; 579  :                 _Fixnodeparent->_Left        = _Fixnode; // link fix down

  000f4	89 3e		 mov	 DWORD PTR [esi], edi

; 580  :                 _Pnode->_Right               = _Erasednode->_Right; // link next down

  000f6	8b 41 08	 mov	 eax, DWORD PTR [ecx+8]
  000f9	89 42 08	 mov	 DWORD PTR [edx+8], eax

; 581  :                 _Erasednode->_Right->_Parent = _Pnode; // right up

  000fc	8b 41 08	 mov	 eax, DWORD PTR [ecx+8]
  000ff	89 50 04	 mov	 DWORD PTR [eax+4], edx
  00102	8d 42 04	 lea	 eax, DWORD PTR [edx+4]
  00105	89 45 f4	 mov	 DWORD PTR $T1[ebp], eax
$LN19@Extract:

; 582  :             }
; 583  : 
; 584  :             if (_Myhead->_Parent == _Erasednode) {

  00108	8b 03		 mov	 eax, DWORD PTR [ebx]
  0010a	39 48 04	 cmp	 DWORD PTR [eax+4], ecx
  0010d	75 05		 jne	 SHORT $LN21@Extract

; 585  :                 _Myhead->_Parent = _Pnode; // link down from root

  0010f	89 50 04	 mov	 DWORD PTR [eax+4], edx
  00112	eb 0e		 jmp	 SHORT $LN141@Extract
$LN21@Extract:

; 586  :             } else if (_Erasednode->_Parent->_Left == _Erasednode) {

  00114	8b 41 04	 mov	 eax, DWORD PTR [ecx+4]
  00117	39 08		 cmp	 DWORD PTR [eax], ecx
  00119	75 04		 jne	 SHORT $LN23@Extract

; 587  :                 _Erasednode->_Parent->_Left = _Pnode; // link down to left

  0011b	89 10		 mov	 DWORD PTR [eax], edx

; 588  :             } else {

  0011d	eb 03		 jmp	 SHORT $LN141@Extract
$LN23@Extract:

; 589  :                 _Erasednode->_Parent->_Right = _Pnode; // link down to right

  0011f	89 50 08	 mov	 DWORD PTR [eax+8], edx
$LN141@Extract:

; 590  :             }
; 591  : 
; 592  :             _Pnode->_Parent = _Erasednode->_Parent; // link successor up

  00122	b8 04 00 00 00	 mov	 eax, 4
  00127	8b 04 08	 mov	 eax, DWORD PTR [eax+ecx]
  0012a	8b 4d f4	 mov	 ecx, DWORD PTR $T1[ebp]
  0012d	89 01		 mov	 DWORD PTR [ecx], eax
; File C:\Program Files\Microsoft Visual Studio\2022\Professional\VC\Tools\MSVC\14.44.35207\include\utility

; 140  :     _Left    = _STD move(_Right);

  0012f	8b 45 f8	 mov	 eax, DWORD PTR __Erasednode$1$[ebp]
  00132	8a 4a 0c	 mov	 cl, BYTE PTR [edx+12]
  00135	8a 40 0c	 mov	 al, BYTE PTR [eax+12]
  00138	88 42 0c	 mov	 BYTE PTR [edx+12], al

; 141  :     _Right   = _STD move(_Tmp);

  0013b	8b 45 f8	 mov	 eax, DWORD PTR __Erasednode$1$[ebp]
  0013e	88 48 0c	 mov	 BYTE PTR [eax+12], cl
$LN58@Extract:
; File C:\Program Files\Microsoft Visual Studio\2022\Professional\VC\Tools\MSVC\14.44.35207\include\xtree

; 596  :         if (_Erasednode->_Color == _Black) { // erasing black link, must recolor/rebalance tree

  00141	80 78 0c 01	 cmp	 BYTE PTR [eax+12], 1
  00145	0f 85 ba 01 00
	00		 jne	 $LN25@Extract

; 597  :             for (; _Fixnode != _Myhead->_Parent && _Fixnode->_Color == _Black; _Fixnodeparent = _Fixnode->_Parent) {

  0014b	8b 03		 mov	 eax, DWORD PTR [ebx]
  0014d	3b 78 04	 cmp	 edi, DWORD PTR [eax+4]
  00150	0f 84 a8 01 00
	00		 je	 $LN3@Extract
  00156	80 7f 0c 01	 cmp	 BYTE PTR [edi+12], 1
  0015a	89 75 f4	 mov	 DWORD PTR tv1093[ebp], esi
  0015d	0f 85 9b 01 00
	00		 jne	 $LN3@Extract
$LL4@Extract:

; 598  :                 if (_Fixnode == _Fixnodeparent->_Left) { // fixup left subtree

  00163	8b 0e		 mov	 ecx, DWORD PTR [esi]
  00165	3b f9		 cmp	 edi, ecx
  00167	0f 85 be 00 00
	00		 jne	 $LN26@Extract

; 599  :                     _Pnode = _Fixnodeparent->_Right;

  0016d	8b 4e 08	 mov	 ecx, DWORD PTR [esi+8]

; 600  :                     if (_Pnode->_Color == _Red) { // rotate red up from right subtree

  00170	80 79 0c 00	 cmp	 BYTE PTR [ecx+12], 0
  00174	75 54		 jne	 SHORT $LN95@Extract

; 601  :                         _Pnode->_Color         = _Black;

  00176	c6 41 0c 01	 mov	 BYTE PTR [ecx+12], 1

; 484  :         _Nodeptr _Pnode    = _Wherenode->_Right;

  0017a	8b 4e 08	 mov	 ecx, DWORD PTR [esi+8]

; 602  :                         _Fixnodeparent->_Color = _Red;

  0017d	c6 46 0c 00	 mov	 BYTE PTR [esi+12], 0

; 485  :         _Wherenode->_Right = _Pnode->_Left;

  00181	8b 01		 mov	 eax, DWORD PTR [ecx]
  00183	89 46 08	 mov	 DWORD PTR [esi+8], eax

; 486  : 
; 487  :         if (!_Pnode->_Left->_Isnil) {

  00186	8b 01		 mov	 eax, DWORD PTR [ecx]
  00188	80 78 0d 00	 cmp	 BYTE PTR [eax+13], 0
  0018c	75 03		 jne	 SHORT $LN61@Extract

; 488  :             _Pnode->_Left->_Parent = _Wherenode;

  0018e	89 70 04	 mov	 DWORD PTR [eax+4], esi
$LN61@Extract:

; 489  :         }
; 490  : 
; 491  :         _Pnode->_Parent = _Wherenode->_Parent;

  00191	8b 46 04	 mov	 eax, DWORD PTR [esi+4]
  00194	8d 56 04	 lea	 edx, DWORD PTR [esi+4]
  00197	89 41 04	 mov	 DWORD PTR [ecx+4], eax

; 492  : 
; 493  :         if (_Wherenode == _Myhead->_Parent) {

  0019a	8b 03		 mov	 eax, DWORD PTR [ebx]
  0019c	3b 70 04	 cmp	 esi, DWORD PTR [eax+4]
  0019f	75 0c		 jne	 SHORT $LN62@Extract

; 494  :             _Myhead->_Parent = _Pnode;

  001a1	89 48 04	 mov	 DWORD PTR [eax+4], ecx

; 499  :         }
; 500  : 
; 501  :         _Pnode->_Left       = _Wherenode;

  001a4	89 31		 mov	 DWORD PTR [ecx], esi

; 502  :         _Wherenode->_Parent = _Pnode;

  001a6	89 0a		 mov	 DWORD PTR [edx], ecx

; 603  :                         _Lrotate(_Fixnodeparent);
; 604  :                         _Pnode = _Fixnodeparent->_Right;

  001a8	8b 4e 08	 mov	 ecx, DWORD PTR [esi+8]
  001ab	eb 20		 jmp	 SHORT $LN87@Extract
$LN62@Extract:

; 495  :         } else if (_Wherenode == _Wherenode->_Parent->_Left) {

  001ad	8b 02		 mov	 eax, DWORD PTR [edx]
  001af	3b 30		 cmp	 esi, DWORD PTR [eax]
  001b1	75 0b		 jne	 SHORT $LN64@Extract

; 496  :             _Wherenode->_Parent->_Left = _Pnode;

  001b3	89 08		 mov	 DWORD PTR [eax], ecx

; 499  :         }
; 500  : 
; 501  :         _Pnode->_Left       = _Wherenode;

  001b5	89 31		 mov	 DWORD PTR [ecx], esi

; 502  :         _Wherenode->_Parent = _Pnode;

  001b7	89 0a		 mov	 DWORD PTR [edx], ecx

; 603  :                         _Lrotate(_Fixnodeparent);
; 604  :                         _Pnode = _Fixnodeparent->_Right;

  001b9	8b 4e 08	 mov	 ecx, DWORD PTR [esi+8]
  001bc	eb 0f		 jmp	 SHORT $LN87@Extract
$LN64@Extract:

; 498  :             _Wherenode->_Parent->_Right = _Pnode;

  001be	89 48 08	 mov	 DWORD PTR [eax+8], ecx

; 499  :         }
; 500  : 
; 501  :         _Pnode->_Left       = _Wherenode;

  001c1	89 31		 mov	 DWORD PTR [ecx], esi

; 502  :         _Wherenode->_Parent = _Pnode;

  001c3	89 0a		 mov	 DWORD PTR [edx], ecx

; 603  :                         _Lrotate(_Fixnodeparent);
; 604  :                         _Pnode = _Fixnodeparent->_Right;

  001c5	8b 4e 08	 mov	 ecx, DWORD PTR [esi+8]
  001c8	eb 03		 jmp	 SHORT $LN87@Extract
$LN95@Extract:
  001ca	8d 56 04	 lea	 edx, DWORD PTR [esi+4]
$LN87@Extract:

; 605  :                     }
; 606  : 
; 607  :                     if (_Pnode->_Isnil) {

  001cd	80 79 0d 00	 cmp	 BYTE PTR [ecx+13], 0
  001d1	0f 85 d0 00 00
	00		 jne	 $LN2@Extract

; 608  :                         _Fixnode = _Fixnodeparent; // shouldn't happen
; 609  :                     } else if (_Pnode->_Left->_Color == _Black
; 610  :                                && _Pnode->_Right->_Color == _Black) { // redden right subtree with black children

  001d7	8b 01		 mov	 eax, DWORD PTR [ecx]
  001d9	80 78 0c 01	 cmp	 BYTE PTR [eax+12], 1
  001dd	75 0d		 jne	 SHORT $LN97@Extract
  001df	8b 41 08	 mov	 eax, DWORD PTR [ecx+8]
  001e2	80 78 0c 01	 cmp	 BYTE PTR [eax+12], 1
  001e6	0f 84 b4 00 00
	00		 je	 $LN142@Extract
$LN97@Extract:

; 611  :                         _Pnode->_Color = _Red;
; 612  :                         _Fixnode       = _Fixnodeparent;
; 613  :                     } else { // must rearrange right subtree
; 614  :                         if (_Pnode->_Right->_Color == _Black) { // rotate red up from left sub-subtree

  001ec	8b 41 08	 mov	 eax, DWORD PTR [ecx+8]
  001ef	8b 5d fc	 mov	 ebx, DWORD PTR _this$1$[ebp]
  001f2	80 78 0c 01	 cmp	 BYTE PTR [eax+12], 1
  001f6	75 15		 jne	 SHORT $LN33@Extract

; 615  :                             _Pnode->_Left->_Color = _Black;

  001f8	8b 01		 mov	 eax, DWORD PTR [ecx]

; 616  :                             _Pnode->_Color        = _Red;
; 617  :                             _Rrotate(_Pnode);

  001fa	51		 push	 ecx
  001fb	c6 40 0c 01	 mov	 BYTE PTR [eax+12], 1
  001ff	c6 41 0c 00	 mov	 BYTE PTR [ecx+12], 0
  00203	8b cb		 mov	 ecx, ebx
  00205	e8 00 00 00 00	 call	 ?_Rrotate@?$_Tree_val@U?$_Tree_simple_types@U?$pair@$$CBKPAVCUser@@@std@@@std@@@std@@QAEXPAU?$_Tree_node@U?$pair@$$CBKPAVCUser@@@std@@PAX@2@@Z ; std::_Tree_val<std::_Tree_simple_types<std::pair<unsigned long const ,CUser *> > >::_Rrotate

; 618  :                             _Pnode = _Fixnodeparent->_Right;

  0020a	8b 4e 08	 mov	 ecx, DWORD PTR [esi+8]
$LN33@Extract:

; 619  :                         }
; 620  : 
; 621  :                         _Pnode->_Color         = _Fixnodeparent->_Color;

  0020d	8a 46 0c	 mov	 al, BYTE PTR [esi+12]
  00210	88 41 0c	 mov	 BYTE PTR [ecx+12], al

; 622  :                         _Fixnodeparent->_Color = _Black;

  00213	c6 46 0c 01	 mov	 BYTE PTR [esi+12], 1

; 623  :                         _Pnode->_Right->_Color = _Black;

  00217	8b 41 08	 mov	 eax, DWORD PTR [ecx+8]

; 624  :                         _Lrotate(_Fixnodeparent);

  0021a	8b cb		 mov	 ecx, ebx
  0021c	56		 push	 esi
  0021d	c6 40 0c 01	 mov	 BYTE PTR [eax+12], 1
  00221	e8 00 00 00 00	 call	 ?_Lrotate@?$_Tree_val@U?$_Tree_simple_types@U?$pair@$$CBKPAVCUser@@@std@@@std@@@std@@QAEXPAU?$_Tree_node@U?$pair@$$CBKPAVCUser@@@std@@PAX@2@@Z ; std::_Tree_val<std::_Tree_simple_types<std::pair<unsigned long const ,CUser *> > >::_Lrotate

; 625  :                         break; // tree now recolored/rebalanced

  00226	e9 d3 00 00 00	 jmp	 $LN3@Extract
$LN26@Extract:

; 626  :                     }
; 627  :                 } else { // fixup right subtree
; 628  :                     _Pnode = _Fixnodeparent->_Left;
; 629  :                     if (_Pnode->_Color == _Red) { // rotate red up from left subtree

  0022b	80 79 0c 00	 cmp	 BYTE PTR [ecx+12], 0
  0022f	75 55		 jne	 SHORT $LN96@Extract

; 630  :                         _Pnode->_Color         = _Black;

  00231	c6 41 0c 01	 mov	 BYTE PTR [ecx+12], 1

; 506  :         _Nodeptr _Pnode   = _Wherenode->_Left;

  00235	8b 0e		 mov	 ecx, DWORD PTR [esi]

; 631  :                         _Fixnodeparent->_Color = _Red;

  00237	c6 46 0c 00	 mov	 BYTE PTR [esi+12], 0

; 507  :         _Wherenode->_Left = _Pnode->_Right;

  0023b	8b 41 08	 mov	 eax, DWORD PTR [ecx+8]
  0023e	89 06		 mov	 DWORD PTR [esi], eax

; 508  : 
; 509  :         if (!_Pnode->_Right->_Isnil) {

  00240	8b 41 08	 mov	 eax, DWORD PTR [ecx+8]
  00243	80 78 0d 00	 cmp	 BYTE PTR [eax+13], 0
  00247	75 03		 jne	 SHORT $LN69@Extract

; 510  :             _Pnode->_Right->_Parent = _Wherenode;

  00249	89 70 04	 mov	 DWORD PTR [eax+4], esi
$LN69@Extract:

; 511  :         }
; 512  : 
; 513  :         _Pnode->_Parent = _Wherenode->_Parent;

  0024c	8b 46 04	 mov	 eax, DWORD PTR [esi+4]
  0024f	8d 56 04	 lea	 edx, DWORD PTR [esi+4]
  00252	89 41 04	 mov	 DWORD PTR [ecx+4], eax

; 514  : 
; 515  :         if (_Wherenode == _Myhead->_Parent) {

  00255	8b 03		 mov	 eax, DWORD PTR [ebx]
  00257	3b 70 04	 cmp	 esi, DWORD PTR [eax+4]
  0025a	75 0c		 jne	 SHORT $LN70@Extract

; 516  :             _Myhead->_Parent = _Pnode;

  0025c	89 48 04	 mov	 DWORD PTR [eax+4], ecx

; 521  :         }
; 522  : 
; 523  :         _Pnode->_Right      = _Wherenode;

  0025f	89 71 08	 mov	 DWORD PTR [ecx+8], esi

; 524  :         _Wherenode->_Parent = _Pnode;

  00262	89 0a		 mov	 DWORD PTR [edx], ecx

; 632  :                         _Rrotate(_Fixnodeparent);
; 633  :                         _Pnode = _Fixnodeparent->_Left;

  00264	8b 0e		 mov	 ecx, DWORD PTR [esi]
  00266	eb 21		 jmp	 SHORT $LN86@Extract
$LN70@Extract:

; 517  :         } else if (_Wherenode == _Wherenode->_Parent->_Right) {

  00268	8b 02		 mov	 eax, DWORD PTR [edx]
  0026a	3b 70 08	 cmp	 esi, DWORD PTR [eax+8]
  0026d	75 0c		 jne	 SHORT $LN72@Extract

; 518  :             _Wherenode->_Parent->_Right = _Pnode;

  0026f	89 48 08	 mov	 DWORD PTR [eax+8], ecx

; 521  :         }
; 522  : 
; 523  :         _Pnode->_Right      = _Wherenode;

  00272	89 71 08	 mov	 DWORD PTR [ecx+8], esi

; 524  :         _Wherenode->_Parent = _Pnode;

  00275	89 0a		 mov	 DWORD PTR [edx], ecx

; 632  :                         _Rrotate(_Fixnodeparent);
; 633  :                         _Pnode = _Fixnodeparent->_Left;

  00277	8b 0e		 mov	 ecx, DWORD PTR [esi]
  00279	eb 0e		 jmp	 SHORT $LN86@Extract
$LN72@Extract:

; 520  :             _Wherenode->_Parent->_Left = _Pnode;

  0027b	89 08		 mov	 DWORD PTR [eax], ecx

; 521  :         }
; 522  : 
; 523  :         _Pnode->_Right      = _Wherenode;

  0027d	89 71 08	 mov	 DWORD PTR [ecx+8], esi

; 524  :         _Wherenode->_Parent = _Pnode;

  00280	89 0a		 mov	 DWORD PTR [edx], ecx

; 632  :                         _Rrotate(_Fixnodeparent);
; 633  :                         _Pnode = _Fixnodeparent->_Left;

  00282	8b 0e		 mov	 ecx, DWORD PTR [esi]
  00284	eb 03		 jmp	 SHORT $LN86@Extract
$LN96@Extract:
  00286	8d 56 04	 lea	 edx, DWORD PTR [esi+4]
$LN86@Extract:

; 634  :                     }
; 635  : 
; 636  :                     if (_Pnode->_Isnil) {

  00289	80 79 0d 00	 cmp	 BYTE PTR [ecx+13], 0
  0028d	75 18		 jne	 SHORT $LN2@Extract

; 637  :                         _Fixnode = _Fixnodeparent; // shouldn't happen
; 638  :                     } else if (_Pnode->_Right->_Color == _Black
; 639  :                                && _Pnode->_Left->_Color == _Black) { // redden left subtree with black children

  0028f	8b 59 08	 mov	 ebx, DWORD PTR [ecx+8]
  00292	80 7b 0c 01	 cmp	 BYTE PTR [ebx+12], 1
  00296	75 2c		 jne	 SHORT $LN98@Extract
  00298	8b 01		 mov	 eax, DWORD PTR [ecx]
  0029a	80 78 0c 01	 cmp	 BYTE PTR [eax+12], 1
  0029e	75 24		 jne	 SHORT $LN98@Extract
$LN142@Extract:

; 597  :             for (; _Fixnode != _Myhead->_Parent && _Fixnode->_Color == _Black; _Fixnodeparent = _Fixnode->_Parent) {

  002a0	8b 5d fc	 mov	 ebx, DWORD PTR _this$1$[ebp]
  002a3	c6 41 0c 00	 mov	 BYTE PTR [ecx+12], 0
$LN2@Extract:
  002a7	8b 03		 mov	 eax, DWORD PTR [ebx]
  002a9	8b 4d f4	 mov	 ecx, DWORD PTR tv1093[ebp]
  002ac	8b f9		 mov	 edi, ecx
  002ae	8b 32		 mov	 esi, DWORD PTR [edx]
  002b0	3b 48 04	 cmp	 ecx, DWORD PTR [eax+4]
  002b3	74 49		 je	 SHORT $LN3@Extract
  002b5	80 7f 0c 01	 cmp	 BYTE PTR [edi+12], 1
  002b9	89 75 f4	 mov	 DWORD PTR tv1093[ebp], esi
  002bc	0f 84 a1 fe ff
	ff		 je	 $LL4@Extract
  002c2	eb 3a		 jmp	 SHORT $LN3@Extract
$LN98@Extract:

; 640  :                         _Pnode->_Color = _Red;
; 641  :                         _Fixnode       = _Fixnodeparent;
; 642  :                     } else { // must rearrange left subtree
; 643  :                         if (_Pnode->_Left->_Color == _Black) { // rotate red up from right sub-subtree

  002c4	8b 01		 mov	 eax, DWORD PTR [ecx]
  002c6	80 78 0c 01	 cmp	 BYTE PTR [eax+12], 1
  002ca	75 17		 jne	 SHORT $LN101@Extract

; 644  :                             _Pnode->_Right->_Color = _Black;

  002cc	c6 43 0c 01	 mov	 BYTE PTR [ebx+12], 1

; 645  :                             _Pnode->_Color         = _Red;
; 646  :                             _Lrotate(_Pnode);

  002d0	8b 5d fc	 mov	 ebx, DWORD PTR _this$1$[ebp]
  002d3	c6 41 0c 00	 mov	 BYTE PTR [ecx+12], 0
  002d7	51		 push	 ecx
  002d8	8b cb		 mov	 ecx, ebx
  002da	e8 00 00 00 00	 call	 ?_Lrotate@?$_Tree_val@U?$_Tree_simple_types@U?$pair@$$CBKPAVCUser@@@std@@@std@@@std@@QAEXPAU?$_Tree_node@U?$pair@$$CBKPAVCUser@@@std@@PAX@2@@Z ; std::_Tree_val<std::_Tree_simple_types<std::pair<unsigned long const ,CUser *> > >::_Lrotate

; 647  :                             _Pnode = _Fixnodeparent->_Left;

  002df	8b 0e		 mov	 ecx, DWORD PTR [esi]
  002e1	eb 03		 jmp	 SHORT $LN39@Extract
$LN101@Extract:

; 640  :                         _Pnode->_Color = _Red;
; 641  :                         _Fixnode       = _Fixnodeparent;
; 642  :                     } else { // must rearrange left subtree
; 643  :                         if (_Pnode->_Left->_Color == _Black) { // rotate red up from right sub-subtree

  002e3	8b 5d fc	 mov	 ebx, DWORD PTR _this$1$[ebp]
$LN39@Extract:

; 648  :                         }
; 649  : 
; 650  :                         _Pnode->_Color         = _Fixnodeparent->_Color;

  002e6	8a 46 0c	 mov	 al, BYTE PTR [esi+12]
  002e9	88 41 0c	 mov	 BYTE PTR [ecx+12], al

; 651  :                         _Fixnodeparent->_Color = _Black;

  002ec	c6 46 0c 01	 mov	 BYTE PTR [esi+12], 1

; 652  :                         _Pnode->_Left->_Color  = _Black;

  002f0	8b 01		 mov	 eax, DWORD PTR [ecx]

; 653  :                         _Rrotate(_Fixnodeparent);

  002f2	8b cb		 mov	 ecx, ebx
  002f4	56		 push	 esi
  002f5	c6 40 0c 01	 mov	 BYTE PTR [eax+12], 1
  002f9	e8 00 00 00 00	 call	 ?_Rrotate@?$_Tree_val@U?$_Tree_simple_types@U?$pair@$$CBKPAVCUser@@@std@@@std@@@std@@QAEXPAU?$_Tree_node@U?$pair@$$CBKPAVCUser@@@std@@PAX@2@@Z ; std::_Tree_val<std::_Tree_simple_types<std::pair<unsigned long const ,CUser *> > >::_Rrotate
$LN3@Extract:

; 654  :                         break; // tree now recolored/rebalanced
; 655  :                     }
; 656  :                 }
; 657  :             }
; 658  : 
; 659  :             _Fixnode->_Color = _Black; // stopping node is black

  002fe	8b 45 f8	 mov	 eax, DWORD PTR __Erasednode$1$[ebp]
  00301	c6 47 0c 01	 mov	 BYTE PTR [edi+12], 1
$LN25@Extract:

; 660  :         }
; 661  : 
; 662  :         if (0 < _Mysize) {

  00305	8b 4b 04	 mov	 ecx, DWORD PTR [ebx+4]
  00308	85 c9		 test	 ecx, ecx
  0030a	74 04		 je	 SHORT $LN40@Extract

; 663  :             --_Mysize;

  0030c	49		 dec	 ecx
  0030d	89 4b 04	 mov	 DWORD PTR [ebx+4], ecx
$LN40@Extract:

; 664  :         }
; 665  : 
; 666  :         return _Erasednode;
; 667  :     }

  00310	5f		 pop	 edi
  00311	5e		 pop	 esi
  00312	5b		 pop	 ebx
  00313	8b e5		 mov	 esp, ebp
  00315	5d		 pop	 ebp
  00316	c2 04 00	 ret	 4
?_Extract@?$_Tree_val@U?$_Tree_simple_types@U?$pair@$$CBKPAVCUser@@@std@@@std@@@std@@QAEPAU?$_Tree_node@U?$pair@$$CBKPAVCUser@@@std@@PAX@2@V?$_Tree_unchecked_const_iterator@V?$_Tree_val@U?$_Tree_simple_types@U?$pair@$$CBKPAVCUser@@@std@@@std@@@std@@U_Iterator_base0@2@@2@@Z ENDP ; std::_Tree_val<std::_Tree_simple_types<std::pair<unsigned long const ,CUser *> > >::_Extract
_TEXT	ENDS
; Function compile flags: /Ogtp
; File C:\Program Files\Microsoft Visual Studio\2022\Professional\VC\Tools\MSVC\14.44.35207\include\xtree
;	COMDAT ?_Rrotate@?$_Tree_val@U?$_Tree_simple_types@U?$pair@$$CBKPAVCUser@@@std@@@std@@@std@@QAEXPAU?$_Tree_node@U?$pair@$$CBKPAVCUser@@@std@@PAX@2@@Z
_TEXT	SEGMENT
__Wherenode$ = 8					; size = 4
?_Rrotate@?$_Tree_val@U?$_Tree_simple_types@U?$pair@$$CBKPAVCUser@@@std@@@std@@@std@@QAEXPAU?$_Tree_node@U?$pair@$$CBKPAVCUser@@@std@@PAX@2@@Z PROC ; std::_Tree_val<std::_Tree_simple_types<std::pair<unsigned long const ,CUser *> > >::_Rrotate, COMDAT
; _this$ = ecx

; 505  :     void _Rrotate(_Nodeptr _Wherenode) noexcept { // promote left node to root of subtree

  00000	55		 push	 ebp
  00001	8b ec		 mov	 ebp, esp

; 506  :         _Nodeptr _Pnode   = _Wherenode->_Left;

  00003	8b 55 08	 mov	 edx, DWORD PTR __Wherenode$[ebp]
  00006	56		 push	 esi
  00007	8b 32		 mov	 esi, DWORD PTR [edx]

; 507  :         _Wherenode->_Left = _Pnode->_Right;

  00009	8b 46 08	 mov	 eax, DWORD PTR [esi+8]
  0000c	89 02		 mov	 DWORD PTR [edx], eax

; 508  : 
; 509  :         if (!_Pnode->_Right->_Isnil) {

  0000e	8b 46 08	 mov	 eax, DWORD PTR [esi+8]
  00011	80 78 0d 00	 cmp	 BYTE PTR [eax+13], 0
  00015	75 03		 jne	 SHORT $LN2@Rrotate

; 510  :             _Pnode->_Right->_Parent = _Wherenode;

  00017	89 50 04	 mov	 DWORD PTR [eax+4], edx
$LN2@Rrotate:

; 511  :         }
; 512  : 
; 513  :         _Pnode->_Parent = _Wherenode->_Parent;

  0001a	8b 42 04	 mov	 eax, DWORD PTR [edx+4]
  0001d	89 46 04	 mov	 DWORD PTR [esi+4], eax

; 514  : 
; 515  :         if (_Wherenode == _Myhead->_Parent) {

  00020	8b 01		 mov	 eax, DWORD PTR [ecx]
  00022	3b 50 04	 cmp	 edx, DWORD PTR [eax+4]
  00025	75 0e		 jne	 SHORT $LN3@Rrotate

; 516  :             _Myhead->_Parent = _Pnode;

  00027	89 70 04	 mov	 DWORD PTR [eax+4], esi

; 521  :         }
; 522  : 
; 523  :         _Pnode->_Right      = _Wherenode;
; 524  :         _Wherenode->_Parent = _Pnode;
; 525  :     }

  0002a	89 56 08	 mov	 DWORD PTR [esi+8], edx
  0002d	89 72 04	 mov	 DWORD PTR [edx+4], esi
  00030	5e		 pop	 esi
  00031	5d		 pop	 ebp
  00032	c2 04 00	 ret	 4
$LN3@Rrotate:

; 517  :         } else if (_Wherenode == _Wherenode->_Parent->_Right) {

  00035	8b 42 04	 mov	 eax, DWORD PTR [edx+4]
  00038	3b 50 08	 cmp	 edx, DWORD PTR [eax+8]
  0003b	75 0e		 jne	 SHORT $LN5@Rrotate

; 518  :             _Wherenode->_Parent->_Right = _Pnode;

  0003d	89 70 08	 mov	 DWORD PTR [eax+8], esi

; 521  :         }
; 522  : 
; 523  :         _Pnode->_Right      = _Wherenode;
; 524  :         _Wherenode->_Parent = _Pnode;
; 525  :     }

  00040	89 56 08	 mov	 DWORD PTR [esi+8], edx
  00043	89 72 04	 mov	 DWORD PTR [edx+4], esi
  00046	5e		 pop	 esi
  00047	5d		 pop	 ebp
  00048	c2 04 00	 ret	 4
$LN5@Rrotate:

; 519  :         } else {
; 520  :             _Wherenode->_Parent->_Left = _Pnode;

  0004b	89 30		 mov	 DWORD PTR [eax], esi

; 521  :         }
; 522  : 
; 523  :         _Pnode->_Right      = _Wherenode;
; 524  :         _Wherenode->_Parent = _Pnode;
; 525  :     }

  0004d	89 56 08	 mov	 DWORD PTR [esi+8], edx
  00050	89 72 04	 mov	 DWORD PTR [edx+4], esi
  00053	5e		 pop	 esi
  00054	5d		 pop	 ebp
  00055	c2 04 00	 ret	 4
?_Rrotate@?$_Tree_val@U?$_Tree_simple_types@U?$pair@$$CBKPAVCUser@@@std@@@std@@@std@@QAEXPAU?$_Tree_node@U?$pair@$$CBKPAVCUser@@@std@@PAX@2@@Z ENDP ; std::_Tree_val<std::_Tree_simple_types<std::pair<unsigned long const ,CUser *> > >::_Rrotate
_TEXT	ENDS
; Function compile flags: /Ogtp
; File C:\Program Files\Microsoft Visual Studio\2022\Professional\VC\Tools\MSVC\14.44.35207\include\xtree
;	COMDAT ?_Lrotate@?$_Tree_val@U?$_Tree_simple_types@U?$pair@$$CBKPAVCUser@@@std@@@std@@@std@@QAEXPAU?$_Tree_node@U?$pair@$$CBKPAVCUser@@@std@@PAX@2@@Z
_TEXT	SEGMENT
__Wherenode$ = 8					; size = 4
?_Lrotate@?$_Tree_val@U?$_Tree_simple_types@U?$pair@$$CBKPAVCUser@@@std@@@std@@@std@@QAEXPAU?$_Tree_node@U?$pair@$$CBKPAVCUser@@@std@@PAX@2@@Z PROC ; std::_Tree_val<std::_Tree_simple_types<std::pair<unsigned long const ,CUser *> > >::_Lrotate, COMDAT
; _this$ = ecx

; 483  :     void _Lrotate(_Nodeptr _Wherenode) noexcept { // promote right node to root of subtree

  00000	55		 push	 ebp
  00001	8b ec		 mov	 ebp, esp

; 484  :         _Nodeptr _Pnode    = _Wherenode->_Right;

  00003	8b 55 08	 mov	 edx, DWORD PTR __Wherenode$[ebp]
  00006	56		 push	 esi
  00007	8b 72 08	 mov	 esi, DWORD PTR [edx+8]

; 485  :         _Wherenode->_Right = _Pnode->_Left;

  0000a	8b 06		 mov	 eax, DWORD PTR [esi]
  0000c	89 42 08	 mov	 DWORD PTR [edx+8], eax

; 486  : 
; 487  :         if (!_Pnode->_Left->_Isnil) {

  0000f	8b 06		 mov	 eax, DWORD PTR [esi]
  00011	80 78 0d 00	 cmp	 BYTE PTR [eax+13], 0
  00015	75 03		 jne	 SHORT $LN2@Lrotate

; 488  :             _Pnode->_Left->_Parent = _Wherenode;

  00017	89 50 04	 mov	 DWORD PTR [eax+4], edx
$LN2@Lrotate:

; 489  :         }
; 490  : 
; 491  :         _Pnode->_Parent = _Wherenode->_Parent;

  0001a	8b 42 04	 mov	 eax, DWORD PTR [edx+4]
  0001d	89 46 04	 mov	 DWORD PTR [esi+4], eax

; 492  : 
; 493  :         if (_Wherenode == _Myhead->_Parent) {

  00020	8b 01		 mov	 eax, DWORD PTR [ecx]
  00022	3b 50 04	 cmp	 edx, DWORD PTR [eax+4]
  00025	75 0d		 jne	 SHORT $LN3@Lrotate

; 494  :             _Myhead->_Parent = _Pnode;

  00027	89 70 04	 mov	 DWORD PTR [eax+4], esi

; 499  :         }
; 500  : 
; 501  :         _Pnode->_Left       = _Wherenode;
; 502  :         _Wherenode->_Parent = _Pnode;
; 503  :     }

  0002a	89 16		 mov	 DWORD PTR [esi], edx
  0002c	89 72 04	 mov	 DWORD PTR [edx+4], esi
  0002f	5e		 pop	 esi
  00030	5d		 pop	 ebp
  00031	c2 04 00	 ret	 4
$LN3@Lrotate:

; 495  :         } else if (_Wherenode == _Wherenode->_Parent->_Left) {

  00034	8b 42 04	 mov	 eax, DWORD PTR [edx+4]
  00037	3b 10		 cmp	 edx, DWORD PTR [eax]
  00039	75 0c		 jne	 SHORT $LN5@Lrotate

; 496  :             _Wherenode->_Parent->_Left = _Pnode;

  0003b	89 30		 mov	 DWORD PTR [eax], esi

; 499  :         }
; 500  : 
; 501  :         _Pnode->_Left       = _Wherenode;
; 502  :         _Wherenode->_Parent = _Pnode;
; 503  :     }

  0003d	89 16		 mov	 DWORD PTR [esi], edx
  0003f	89 72 04	 mov	 DWORD PTR [edx+4], esi
  00042	5e		 pop	 esi
  00043	5d		 pop	 ebp
  00044	c2 04 00	 ret	 4
$LN5@Lrotate:

; 497  :         } else {
; 498  :             _Wherenode->_Parent->_Right = _Pnode;

  00047	89 70 08	 mov	 DWORD PTR [eax+8], esi

; 499  :         }
; 500  : 
; 501  :         _Pnode->_Left       = _Wherenode;
; 502  :         _Wherenode->_Parent = _Pnode;
; 503  :     }

  0004a	89 16		 mov	 DWORD PTR [esi], edx
  0004c	89 72 04	 mov	 DWORD PTR [edx+4], esi
  0004f	5e		 pop	 esi
  00050	5d		 pop	 ebp
  00051	c2 04 00	 ret	 4
?_Lrotate@?$_Tree_val@U?$_Tree_simple_types@U?$pair@$$CBKPAVCUser@@@std@@@std@@@std@@QAEXPAU?$_Tree_node@U?$pair@$$CBKPAVCUser@@@std@@PAX@2@@Z ENDP ; std::_Tree_val<std::_Tree_simple_types<std::pair<unsigned long const ,CUser *> > >::_Lrotate
_TEXT	ENDS
; Function compile flags: /Ogtp
; File C:\Program Files\Microsoft Visual Studio\2022\Professional\VC\Tools\MSVC\14.44.35207\include\xtree
; File C:\Program Files\Microsoft Visual Studio\2022\Professional\VC\Tools\MSVC\14.44.35207\include\utility
; File C:\Program Files\Microsoft Visual Studio\2022\Professional\VC\Tools\MSVC\14.44.35207\include\xmemory
; File C:\Program Files\Microsoft Visual Studio\2022\Professional\VC\Tools\MSVC\14.44.35207\include\xtree
;	COMDAT ?clear@?$_Tree@V?$_Tmap_traits@KPAVCUser@@U?$less@K@std@@V?$allocator@U?$pair@$$CBKPAVCUser@@@std@@@3@$0A@@std@@@std@@QAEXXZ
_TEXT	SEGMENT
?clear@?$_Tree@V?$_Tmap_traits@KPAVCUser@@U?$less@K@std@@V?$allocator@U?$pair@$$CBKPAVCUser@@@std@@@3@$0A@@std@@@std@@QAEXXZ PROC ; std::_Tree<std::_Tmap_traits<unsigned long,CUser *,std::less<unsigned long>,std::allocator<std::pair<unsigned long const ,CUser *> >,0> >::clear, COMDAT
; _this$ = ecx

; 1370 :     void clear() noexcept {

  00000	53		 push	 ebx
  00001	8b d9		 mov	 ebx, ecx
  00003	56		 push	 esi
  00004	57		 push	 edi

; 1371 :         const auto _Scary = _Get_scary();
; 1372 :         _Scary->_Orphan_ptr(nullptr);
; 1373 :         auto _Head = _Scary->_Myhead;

  00005	8b 3b		 mov	 edi, DWORD PTR [ebx]

; 1374 :         _Scary->_Erase_tree(_Getal(), _Head->_Parent);

  00007	8b 77 04	 mov	 esi, DWORD PTR [edi+4]

; 768  :         while (!_Rootnode->_Isnil) { // free subtrees, then node

  0000a	80 7e 0d 00	 cmp	 BYTE PTR [esi+13], 0
  0000e	75 20		 jne	 SHORT $LN38@clear
$LL5@clear:

; 769  :             _Erase_tree(_Al, _Rootnode->_Right);

  00010	ff 76 08	 push	 DWORD PTR [esi+8]
  00013	8b cb		 mov	 ecx, ebx
  00015	53		 push	 ebx
  00016	e8 00 00 00 00	 call	 ??$_Erase_tree@V?$allocator@U?$_Tree_node@U?$pair@$$CBKPAVCUser@@@std@@PAX@std@@@std@@@?$_Tree_val@U?$_Tree_simple_types@U?$pair@$$CBKPAVCUser@@@std@@@std@@@std@@QAEXAAV?$allocator@U?$_Tree_node@U?$pair@$$CBKPAVCUser@@@std@@PAX@std@@@1@PAU?$_Tree_node@U?$pair@$$CBKPAVCUser@@@std@@PAX@1@@Z ; std::_Tree_val<std::_Tree_simple_types<std::pair<unsigned long const ,CUser *> > >::_Erase_tree<std::allocator<std::_Tree_node<std::pair<unsigned long const ,CUser *>,void *> > >
; File C:\Program Files\Microsoft Visual Studio\2022\Professional\VC\Tools\MSVC\14.44.35207\include\utility

; 773  :     _Ty _Old_val = static_cast<_Ty&&>(_Val);

  0001b	8b c6		 mov	 eax, esi

; 774  :     _Val         = static_cast<_Other&&>(_New_val);

  0001d	8b 36		 mov	 esi, DWORD PTR [esi]
; File C:\Program Files\Microsoft Visual Studio\2022\Professional\VC\Tools\MSVC\14.44.35207\include\xmemory

; 289  :         ::operator delete(_Ptr, _Bytes);

  0001f	6a 18		 push	 24			; 00000018H
  00021	50		 push	 eax
  00022	e8 00 00 00 00	 call	 ??3@YAXPAXI@Z		; operator delete
  00027	83 c4 08	 add	 esp, 8
; File C:\Program Files\Microsoft Visual Studio\2022\Professional\VC\Tools\MSVC\14.44.35207\include\xtree

; 768  :         while (!_Rootnode->_Isnil) { // free subtrees, then node

  0002a	80 7e 0d 00	 cmp	 BYTE PTR [esi+13], 0
  0002e	74 e0		 je	 SHORT $LL5@clear
$LN38@clear:

; 1375 :         _Head->_Parent  = _Head;

  00030	89 7f 04	 mov	 DWORD PTR [edi+4], edi

; 1376 :         _Head->_Left    = _Head;

  00033	89 3f		 mov	 DWORD PTR [edi], edi

; 1377 :         _Head->_Right   = _Head;

  00035	89 7f 08	 mov	 DWORD PTR [edi+8], edi

; 1378 :         _Scary->_Mysize = 0;

  00038	5f		 pop	 edi
  00039	5e		 pop	 esi
  0003a	c7 43 04 00 00
	00 00		 mov	 DWORD PTR [ebx+4], 0
  00041	5b		 pop	 ebx

; 1379 :     }

  00042	c3		 ret	 0
?clear@?$_Tree@V?$_Tmap_traits@KPAVCUser@@U?$less@K@std@@V?$allocator@U?$pair@$$CBKPAVCUser@@@std@@@3@$0A@@std@@@std@@QAEXXZ ENDP ; std::_Tree<std::_Tmap_traits<unsigned long,CUser *,std::less<unsigned long>,std::allocator<std::pair<unsigned long const ,CUser *> >,0> >::clear
_TEXT	ENDS
; Function compile flags: /Ogtp
; File C:\Program Files\Microsoft Visual Studio\2022\Professional\VC\Tools\MSVC\14.44.35207\include\xtree
; File C:\Program Files\Microsoft Visual Studio\2022\Professional\VC\Tools\MSVC\14.44.35207\include\utility
; File C:\Program Files\Microsoft Visual Studio\2022\Professional\VC\Tools\MSVC\14.44.35207\include\xmemory
; File C:\Program Files\Microsoft Visual Studio\2022\Professional\VC\Tools\MSVC\14.44.35207\include\xtree
; File C:\Program Files\Microsoft Visual Studio\2022\Professional\VC\Tools\MSVC\14.44.35207\include\xmemory
; File C:\Program Files\Microsoft Visual Studio\2022\Professional\VC\Tools\MSVC\14.44.35207\include\xtree
;	COMDAT ??1?$_Tree@V?$_Tmap_traits@KPAVCUser@@U?$less@K@std@@V?$allocator@U?$pair@$$CBKPAVCUser@@@std@@@3@$0A@@std@@@std@@QAE@XZ
_TEXT	SEGMENT
??1?$_Tree@V?$_Tmap_traits@KPAVCUser@@U?$less@K@std@@V?$allocator@U?$pair@$$CBKPAVCUser@@@std@@@3@$0A@@std@@@std@@QAE@XZ PROC ; std::_Tree<std::_Tmap_traits<unsigned long,CUser *,std::less<unsigned long>,std::allocator<std::pair<unsigned long const ,CUser *> >,0> >::~_Tree<std::_Tmap_traits<unsigned long,CUser *,std::less<unsigned long>,std::allocator<std::pair<unsigned long const ,CUser *> >,0> >, COMDAT
; _this$ = ecx

; 1095 :     ~_Tree() noexcept {

  00000	56		 push	 esi
  00001	57		 push	 edi
  00002	8b f9		 mov	 edi, ecx

; 777  :         _Erase_tree(_Al, _Myhead->_Parent);

  00004	8b 37		 mov	 esi, DWORD PTR [edi]
  00006	8b 76 04	 mov	 esi, DWORD PTR [esi+4]

; 768  :         while (!_Rootnode->_Isnil) { // free subtrees, then node

  00009	80 7e 0d 00	 cmp	 BYTE PTR [esi+13], 0
  0000d	75 21		 jne	 SHORT $LN61@Tree
  0000f	90		 npad	 1
$LL8@Tree:

; 769  :             _Erase_tree(_Al, _Rootnode->_Right);

  00010	ff 76 08	 push	 DWORD PTR [esi+8]
  00013	8b cf		 mov	 ecx, edi
  00015	57		 push	 edi
  00016	e8 00 00 00 00	 call	 ??$_Erase_tree@V?$allocator@U?$_Tree_node@U?$pair@$$CBKPAVCUser@@@std@@PAX@std@@@std@@@?$_Tree_val@U?$_Tree_simple_types@U?$pair@$$CBKPAVCUser@@@std@@@std@@@std@@QAEXAAV?$allocator@U?$_Tree_node@U?$pair@$$CBKPAVCUser@@@std@@PAX@std@@@1@PAU?$_Tree_node@U?$pair@$$CBKPAVCUser@@@std@@PAX@1@@Z ; std::_Tree_val<std::_Tree_simple_types<std::pair<unsigned long const ,CUser *> > >::_Erase_tree<std::allocator<std::_Tree_node<std::pair<unsigned long const ,CUser *>,void *> > >
; File C:\Program Files\Microsoft Visual Studio\2022\Professional\VC\Tools\MSVC\14.44.35207\include\utility

; 773  :     _Ty _Old_val = static_cast<_Ty&&>(_Val);

  0001b	8b c6		 mov	 eax, esi

; 774  :     _Val         = static_cast<_Other&&>(_New_val);

  0001d	8b 36		 mov	 esi, DWORD PTR [esi]
; File C:\Program Files\Microsoft Visual Studio\2022\Professional\VC\Tools\MSVC\14.44.35207\include\xmemory

; 289  :         ::operator delete(_Ptr, _Bytes);

  0001f	6a 18		 push	 24			; 00000018H
  00021	50		 push	 eax
  00022	e8 00 00 00 00	 call	 ??3@YAXPAXI@Z		; operator delete
  00027	83 c4 08	 add	 esp, 8
; File C:\Program Files\Microsoft Visual Studio\2022\Professional\VC\Tools\MSVC\14.44.35207\include\xtree

; 768  :         while (!_Rootnode->_Isnil) { // free subtrees, then node

  0002a	80 7e 0d 00	 cmp	 BYTE PTR [esi+13], 0
  0002e	74 e0		 je	 SHORT $LL8@Tree
$LN61@Tree:
; File C:\Program Files\Microsoft Visual Studio\2022\Professional\VC\Tools\MSVC\14.44.35207\include\xmemory

; 289  :         ::operator delete(_Ptr, _Bytes);

  00030	6a 18		 push	 24			; 00000018H
  00032	ff 37		 push	 DWORD PTR [edi]
  00034	e8 00 00 00 00	 call	 ??3@YAXPAXI@Z		; operator delete
  00039	83 c4 08	 add	 esp, 8
  0003c	5f		 pop	 edi
  0003d	5e		 pop	 esi
; File C:\Program Files\Microsoft Visual Studio\2022\Professional\VC\Tools\MSVC\14.44.35207\include\xtree

; 1102 :     }

  0003e	c3		 ret	 0
??1?$_Tree@V?$_Tmap_traits@KPAVCUser@@U?$less@K@std@@V?$allocator@U?$pair@$$CBKPAVCUser@@@std@@@3@$0A@@std@@@std@@QAE@XZ ENDP ; std::_Tree<std::_Tmap_traits<unsigned long,CUser *,std::less<unsigned long>,std::allocator<std::pair<unsigned long const ,CUser *> >,0> >::~_Tree<std::_Tmap_traits<unsigned long,CUser *,std::less<unsigned long>,std::allocator<std::pair<unsigned long const ,CUser *> >,0> >
_TEXT	ENDS
; Function compile flags: /Ogtp
; File C:\IAGOS\server\v18\Source\Source\_Common\ctrl.cpp
; File C:\IAGOS\server\v18\Source\Source\_Common\Obj.h
; File C:\IAGOS\server\v18\Source\Source\_Common\ctrl.cpp
;	COMDAT ??1CCtrl@@UAE@XZ
_TEXT	SEGMENT
__$EHRec$ = -12						; size = 12
??1CCtrl@@UAE@XZ PROC					; CCtrl::~CCtrl, COMDAT
; _this$ = ecx

; 61   : {

  00000	55		 push	 ebp
  00001	8b ec		 mov	 ebp, esp
  00003	6a ff		 push	 -1
  00005	68 00 00 00 00	 push	 __ehhandler$??1CCtrl@@UAE@XZ
  0000a	64 a1 00 00 00
	00		 mov	 eax, DWORD PTR fs:0
  00010	50		 push	 eax
  00011	56		 push	 esi
  00012	a1 00 00 00 00	 mov	 eax, DWORD PTR ___security_cookie
  00017	33 c5		 xor	 eax, ebp
  00019	50		 push	 eax
  0001a	8d 45 f4	 lea	 eax, DWORD PTR __$EHRec$[ebp]
  0001d	64 a3 00 00 00
	00		 mov	 DWORD PTR fs:0, eax
  00023	8b f1		 mov	 esi, ecx
; File C:\IAGOS\server\v18\Source\Source\_Common\Obj.h

; 178  : 	BOOL			IsVirtual() { return (m_dwFlags & OBJ_FLAG_VIRTUAL);  } 

  00025	f6 46 04 04	 test	 BYTE PTR [esi+4], 4
; File C:\IAGOS\server\v18\Source\Source\_Common\ctrl.cpp

; 61   : {

  00029	c7 06 00 00 00
	00		 mov	 DWORD PTR [esi], OFFSET ??_7CCtrl@@6B@

; 62   : #ifdef __WORLDSERVER
; 63   : 	if( IsVirtual() )

  0002f	75 0e		 jne	 SHORT $LN1@CCtrl

; 64   : 		return;
; 65   : 
; 66   : 	RemoveItFromView();

  00031	6a 00		 push	 0
  00033	e8 00 00 00 00	 call	 ?RemoveItFromView@CCtrl@@QAEXH@Z ; CCtrl::RemoveItFromView

; 67   : #endif	// __WORLDSERVER
; 68   : 
; 69   : 	RemoveItFromGlobalId();

  00038	8b ce		 mov	 ecx, esi
  0003a	e8 00 00 00 00	 call	 ?RemoveItFromGlobalId@CCtrl@@UAEXXZ ; CCtrl::RemoveItFromGlobalId
$LN1@CCtrl:

; 70   : }

  0003f	8d 8e 0c 02 00
	00		 lea	 ecx, DWORD PTR [esi+524]
  00045	e8 00 00 00 00	 call	 ??1?$_Tree@V?$_Tmap_traits@KPAVCUser@@U?$less@K@std@@V?$allocator@U?$pair@$$CBKPAVCUser@@@std@@@3@$0A@@std@@@std@@QAE@XZ ; std::_Tree<std::_Tmap_traits<unsigned long,CUser *,std::less<unsigned long>,std::allocator<std::pair<unsigned long const ,CUser *> >,0> >::~_Tree<std::_Tmap_traits<unsigned long,CUser *,std::less<unsigned long>,std::allocator<std::pair<unsigned long const ,CUser *> >,0> >
  0004a	8b ce		 mov	 ecx, esi
  0004c	e8 00 00 00 00	 call	 ??1CObj@@UAE@XZ		; CObj::~CObj
  00051	8b 4d f4	 mov	 ecx, DWORD PTR __$EHRec$[ebp]
  00054	64 89 0d 00 00
	00 00		 mov	 DWORD PTR fs:0, ecx
  0005b	59		 pop	 ecx
  0005c	5e		 pop	 esi
  0005d	8b e5		 mov	 esp, ebp
  0005f	5d		 pop	 ebp
  00060	c3		 ret	 0
  00061	cc		 int	 3
  00062	cc		 int	 3
  00063	cc		 int	 3
  00064	cc		 int	 3
  00065	cc		 int	 3
_TEXT	ENDS
;	COMDAT text$x
text$x	SEGMENT
__ehhandler$??1CCtrl@@UAE@XZ:
  00000	90		 npad	 1
  00001	90		 npad	 1
  00002	8b 54 24 08	 mov	 edx, DWORD PTR [esp+8]
  00006	8d 42 0c	 lea	 eax, DWORD PTR [edx+12]
  00009	8b 4a f8	 mov	 ecx, DWORD PTR [edx-8]
  0000c	33 c8		 xor	 ecx, eax
  0000e	e8 00 00 00 00	 call	 @__security_check_cookie@4
  00013	b8 00 00 00 00	 mov	 eax, OFFSET __ehfuncinfo$??1CCtrl@@UAE@XZ
  00018	e9 00 00 00 00	 jmp	 ___CxxFrameHandler3
text$x	ENDS
??1CCtrl@@UAE@XZ ENDP					; CCtrl::~CCtrl
; Function compile flags: /Ogtp
; File C:\IAGOS\server\v18\Source\Source\_Common\ctrl.cpp
; File C:\Program Files\Microsoft Visual Studio\2022\Professional\VC\Tools\MSVC\14.44.35207\include\xmemory
; File C:\IAGOS\server\v18\Source\Source\_Common\ctrl.cpp
; File C:\Program Files\Microsoft Visual Studio\2022\Professional\VC\Tools\MSVC\14.44.35207\include\xtree
; File C:\Program Files\Microsoft Visual Studio\2022\Professional\VC\Tools\MSVC\14.44.35207\include\xmemory
; File C:\Program Files\Microsoft Visual Studio\2022\Professional\VC\Tools\MSVC\14.44.35207\include\xtree
; File C:\IAGOS\server\v18\Source\Source\_Common\ctrl.cpp
; File C:\IAGOS\server\v18\Source\Source\DX_SDK\d3dx9math.inl
; File C:\IAGOS\server\v18\Source\Source\_Common\ctrl.cpp
;	COMDAT ??0CCtrl@@QAE@XZ
_TEXT	SEGMENT
_this$ = -20						; size = 4
_this$ = -16						; size = 4
__$EHRec$ = -12						; size = 12
??0CCtrl@@QAE@XZ PROC					; CCtrl::CCtrl, COMDAT
; _this$ = ecx

; 45   : {

  00000	55		 push	 ebp
  00001	8b ec		 mov	 ebp, esp
  00003	6a ff		 push	 -1
  00005	68 00 00 00 00	 push	 __ehhandler$??0CCtrl@@QAE@XZ
  0000a	64 a1 00 00 00
	00		 mov	 eax, DWORD PTR fs:0
  00010	50		 push	 eax
  00011	83 ec 08	 sub	 esp, 8
  00014	56		 push	 esi
  00015	57		 push	 edi
  00016	a1 00 00 00 00	 mov	 eax, DWORD PTR ___security_cookie
  0001b	33 c5		 xor	 eax, ebp
  0001d	50		 push	 eax
  0001e	8d 45 f4	 lea	 eax, DWORD PTR __$EHRec$[ebp]
  00021	64 a3 00 00 00
	00		 mov	 DWORD PTR fs:0, eax
  00027	8b f9		 mov	 edi, ecx
  00029	89 7d f0	 mov	 DWORD PTR _this$[ebp], edi
  0002c	e8 00 00 00 00	 call	 ??0CObj@@QAE@XZ		; CObj::CObj
  00031	8d b7 0c 02 00
	00		 lea	 esi, DWORD PTR [edi+524]
  00037	c7 07 00 00 00
	00		 mov	 DWORD PTR [edi], OFFSET ??_7CCtrl@@6B@
; File C:\Program Files\Microsoft Visual Studio\2022\Professional\VC\Tools\MSVC\14.44.35207\include\xmemory

; 136  :         return ::operator new(_Bytes);

  0003d	6a 18		 push	 24			; 00000018H
; File C:\IAGOS\server\v18\Source\Source\_Common\ctrl.cpp

; 45   : {

  0003f	c7 45 fc 00 00
	00 00		 mov	 DWORD PTR __$EHRec$[ebp+8], 0
  00046	89 75 ec	 mov	 DWORD PTR _this$[ebp], esi
; File C:\Program Files\Microsoft Visual Studio\2022\Professional\VC\Tools\MSVC\14.44.35207\include\xtree

; 450  :     _Tree_val() noexcept : _Myhead(), _Mysize(0) {}

  00049	c7 06 00 00 00
	00		 mov	 DWORD PTR [esi], 0
  0004f	c7 46 04 00 00
	00 00		 mov	 DWORD PTR [esi+4], 0
; File C:\Program Files\Microsoft Visual Studio\2022\Professional\VC\Tools\MSVC\14.44.35207\include\xmemory

; 136  :         return ::operator new(_Bytes);

  00056	e8 00 00 00 00	 call	 ??2@YAPAXI@Z		; operator new
  0005b	0f 57 c0	 xorps	 xmm0, xmm0
  0005e	83 c4 04	 add	 esp, 4
; File C:\Program Files\Microsoft Visual Studio\2022\Professional\VC\Tools\MSVC\14.44.35207\include\xtree

; 346  :         _Construct_in_place(_Pnode->_Left, _Pnode);

  00061	89 00		 mov	 DWORD PTR [eax], eax

; 347  :         _Construct_in_place(_Pnode->_Parent, _Pnode);

  00063	89 40 04	 mov	 DWORD PTR [eax+4], eax

; 348  :         _Construct_in_place(_Pnode->_Right, _Pnode);

  00066	89 40 08	 mov	 DWORD PTR [eax+8], eax

; 349  :         _Pnode->_Color = _Black;

  00069	66 c7 40 0c 01
	01		 mov	 WORD PTR [eax+12], 257	; 00000101H

; 1957 :         _Scary->_Myhead = _Node::_Buyheadnode(_Getal());

  0006f	89 06		 mov	 DWORD PTR [esi], eax
; File C:\IAGOS\server\v18\Source\Source\_Common\ctrl.cpp

; 58   : }

  00071	8b c7		 mov	 eax, edi
  00073	c7 87 70 01 00
	00 02 00 00 00	 mov	 DWORD PTR [edi+368], 2
  0007d	c7 87 bc 01 00
	00 ff ff ff ff	 mov	 DWORD PTR [edi+444], -1
  00087	c7 87 04 02 00
	00 ff ff ff ff	 mov	 DWORD PTR [edi+516], -1
  00091	c7 87 08 02 00
	00 00 00 00 00	 mov	 DWORD PTR [edi+520], 0
  0009b	0f 11 87 14 02
	00 00		 movups	 XMMWORD PTR [edi+532], xmm0
  000a2	66 0f d6 87 24
	02 00 00	 movq	 QWORD PTR [edi+548], xmm0
  000aa	c7 87 2c 02 00
	00 00 00 00 00	 mov	 DWORD PTR [edi+556], 0
  000b4	c7 87 c0 01 00
	00 00 00 00 00	 mov	 DWORD PTR [edi+448], 0
; File C:\IAGOS\server\v18\Source\Source\DX_SDK\d3dx9math.inl

; 1961 :     pOut->m[0][1] = pOut->m[0][2] = pOut->m[0][3] =

  000be	c7 87 fc 01 00
	00 00 00 00 00	 mov	 DWORD PTR [edi+508], 0
  000c8	c7 87 f8 01 00
	00 00 00 00 00	 mov	 DWORD PTR [edi+504], 0
  000d2	c7 87 f4 01 00
	00 00 00 00 00	 mov	 DWORD PTR [edi+500], 0
  000dc	c7 87 f0 01 00
	00 00 00 00 00	 mov	 DWORD PTR [edi+496], 0
  000e6	c7 87 e8 01 00
	00 00 00 00 00	 mov	 DWORD PTR [edi+488], 0
  000f0	c7 87 e4 01 00
	00 00 00 00 00	 mov	 DWORD PTR [edi+484], 0
  000fa	c7 87 e0 01 00
	00 00 00 00 00	 mov	 DWORD PTR [edi+480], 0
  00104	c7 87 dc 01 00
	00 00 00 00 00	 mov	 DWORD PTR [edi+476], 0
  0010e	c7 87 d4 01 00
	00 00 00 00 00	 mov	 DWORD PTR [edi+468], 0
  00118	c7 87 d0 01 00
	00 00 00 00 00	 mov	 DWORD PTR [edi+464], 0
  00122	c7 87 cc 01 00
	00 00 00 00 00	 mov	 DWORD PTR [edi+460], 0
  0012c	c7 87 c8 01 00
	00 00 00 00 00	 mov	 DWORD PTR [edi+456], 0

; 1962 :     pOut->m[1][0] = pOut->m[1][2] = pOut->m[1][3] =
; 1963 :     pOut->m[2][0] = pOut->m[2][1] = pOut->m[2][3] =
; 1964 :     pOut->m[3][0] = pOut->m[3][1] = pOut->m[3][2] = 0.0f;
; 1965 : 
; 1966 :     pOut->m[0][0] = pOut->m[1][1] = pOut->m[2][2] = pOut->m[3][3] = 1.0f;

  00136	c7 87 00 02 00
	00 00 00 80 3f	 mov	 DWORD PTR [edi+512], 1065353216 ; 3f800000H
  00140	c7 87 ec 01 00
	00 00 00 80 3f	 mov	 DWORD PTR [edi+492], 1065353216 ; 3f800000H
  0014a	c7 87 d8 01 00
	00 00 00 80 3f	 mov	 DWORD PTR [edi+472], 1065353216 ; 3f800000H
  00154	c7 87 c4 01 00
	00 00 00 80 3f	 mov	 DWORD PTR [edi+452], 1065353216 ; 3f800000H
; File C:\IAGOS\server\v18\Source\Source\_Common\ctrl.cpp

; 58   : }

  0015e	8b 4d f4	 mov	 ecx, DWORD PTR __$EHRec$[ebp]
  00161	64 89 0d 00 00
	00 00		 mov	 DWORD PTR fs:0, ecx
  00168	59		 pop	 ecx
  00169	5f		 pop	 edi
  0016a	5e		 pop	 esi
  0016b	8b e5		 mov	 esp, ebp
  0016d	5d		 pop	 ebp
  0016e	c3		 ret	 0
_TEXT	ENDS
;	COMDAT text$x
text$x	SEGMENT
__unwindfunclet$??0CCtrl@@QAE@XZ$0:
  00000	8b 4d f0	 mov	 ecx, DWORD PTR _this$[ebp]
  00003	e9 00 00 00 00	 jmp	 ??1CObj@@UAE@XZ		; CObj::~CObj
  00008	cc		 int	 3
  00009	cc		 int	 3
  0000a	cc		 int	 3
  0000b	cc		 int	 3
  0000c	cc		 int	 3
__ehhandler$??0CCtrl@@QAE@XZ:
  0000d	90		 npad	 1
  0000e	90		 npad	 1
  0000f	8b 54 24 08	 mov	 edx, DWORD PTR [esp+8]
  00013	8d 42 0c	 lea	 eax, DWORD PTR [edx+12]
  00016	8b 4a ec	 mov	 ecx, DWORD PTR [edx-20]
  00019	33 c8		 xor	 ecx, eax
  0001b	e8 00 00 00 00	 call	 @__security_check_cookie@4
  00020	b8 00 00 00 00	 mov	 eax, OFFSET __ehfuncinfo$??0CCtrl@@QAE@XZ
  00025	e9 00 00 00 00	 jmp	 ___CxxFrameHandler3
text$x	ENDS
??0CCtrl@@QAE@XZ ENDP					; CCtrl::CCtrl
; Function compile flags: /Ogtp
; File C:\IAGOS\server\v18\Source\Source\_Common\Obj.h
; File C:\Program Files (x86)\Windows Kits\10\Include\10.0.26100.0\ucrt\corecrt_math.h
; File C:\IAGOS\server\v18\Source\Source\DX_SDK\d3dx9math.inl
; File C:\Program Files (x86)\Windows Kits\10\Include\10.0.26100.0\ucrt\corecrt_math.h
; File C:\IAGOS\server\v18\Source\Source\DX_SDK\d3dx9math.inl
; File C:\Program Files (x86)\Windows Kits\10\Include\10.0.26100.0\ucrt\corecrt_math.h
; File C:\IAGOS\server\v18\Source\Source\_Common\Obj.h
; File C:\IAGOS\server\v18\Source\Source\DX_SDK\d3dx9math.inl
; File C:\IAGOS\server\v18\Source\Source\_Common\Obj.h
; File C:\IAGOS\server\v18\Source\Source\DX_SDK\d3dx9math.inl
; File C:\Program Files (x86)\Windows Kits\10\Include\10.0.26100.0\ucrt\corecrt_math.h
; File C:\IAGOS\server\v18\Source\Source\_Common\Obj.h
;	COMDAT ?GetDegree@@YAMABUD3DXVECTOR3@@0@Z
_TEXT	SEGMENT
_fDegree$ = -32						; size = 4
_vDir1$ = -28						; size = 12
_vDir2$ = -16						; size = 12
__$ArrayPad$ = -4					; size = 4
_vDestPos$ = 8						; size = 4
_vSrcPos$ = 12						; size = 4
?GetDegree@@YAMABUD3DXVECTOR3@@0@Z PROC			; GetDegree, COMDAT

; 289  : {

  00000	55		 push	 ebp
  00001	8b ec		 mov	 ebp, esp
  00003	83 ec 20	 sub	 esp, 32			; 00000020H
  00006	a1 00 00 00 00	 mov	 eax, DWORD PTR ___security_cookie
  0000b	33 c5		 xor	 eax, ebp
  0000d	89 45 fc	 mov	 DWORD PTR __$ArrayPad$[ebp], eax
  00010	56		 push	 esi
  00011	8b 75 08	 mov	 esi, DWORD PTR _vDestPos$[ebp]
  00014	0f 57 c0	 xorps	 xmm0, xmm0
  00017	57		 push	 edi
  00018	8b 7d 0c	 mov	 edi, DWORD PTR _vSrcPos$[ebp]
; File C:\Program Files (x86)\Windows Kits\10\Include\10.0.26100.0\ucrt\corecrt_math.h

; 789  :             return (float)sin(_X);

  0001b	e8 00 00 00 00	 call	 __libm_sse2_sin_precise
  00020	0f 57 c9	 xorps	 xmm1, xmm1
; File C:\IAGOS\server\v18\Source\Source\DX_SDK\d3dx9math.inl

; 301  :     y = fy;

  00023	c7 45 e8 00 00
	00 00		 mov	 DWORD PTR _vDir1$[ebp+4], 0
; File C:\Program Files (x86)\Windows Kits\10\Include\10.0.26100.0\ucrt\corecrt_math.h

; 789  :             return (float)sin(_X);

  0002a	f2 0f 5a c8	 cvtsd2ss xmm1, xmm0
  0002e	0f 57 c0	 xorps	 xmm0, xmm0
; File C:\IAGOS\server\v18\Source\Source\DX_SDK\d3dx9math.inl

; 300  :     x = fx;

  00031	f3 0f 11 4d e4	 movss	 DWORD PTR _vDir1$[ebp], xmm1
; File C:\Program Files (x86)\Windows Kits\10\Include\10.0.26100.0\ucrt\corecrt_math.h

; 683  :             return (float)cos(_X);

  00036	e8 00 00 00 00	 call	 __libm_sse2_cos_precise
  0003b	f2 0f 5a c0	 cvtsd2ss xmm0, xmm0
; File C:\IAGOS\server\v18\Source\Source\_Common\Obj.h

; 294  : 	D3DXVec3Normalize( &vDir1, &vDir1 );

  0003f	8d 45 e4	 lea	 eax, DWORD PTR _vDir1$[ebp]
  00042	c7 45 f4 00 00
	00 00		 mov	 DWORD PTR _vDir2$[ebp+4], 0
  00049	50		 push	 eax
  0004a	50		 push	 eax

; 282  : 	FLOAT fz = -cosf( fTheta ) * fVelocity;

  0004b	0f 57 05 00 00
	00 00		 xorps	 xmm0, DWORD PTR __xmm@80000000800000008000000080000000
; File C:\IAGOS\server\v18\Source\Source\DX_SDK\d3dx9math.inl

; 302  :     z = fz;

  00052	f3 0f 11 45 ec	 movss	 DWORD PTR _vDir1$[ebp+8], xmm0

; 383  :     return D3DXVECTOR3(x - v.x, y - v.y, z - v.z);

  00057	f3 0f 10 06	 movss	 xmm0, DWORD PTR [esi]
  0005b	f3 0f 5c 07	 subss	 xmm0, DWORD PTR [edi]

; 300  :     x = fx;

  0005f	f3 0f 11 45 f0	 movss	 DWORD PTR _vDir2$[ebp], xmm0

; 383  :     return D3DXVECTOR3(x - v.x, y - v.y, z - v.z);

  00064	f3 0f 10 46 08	 movss	 xmm0, DWORD PTR [esi+8]
  00069	f3 0f 5c 47 08	 subss	 xmm0, DWORD PTR [edi+8]

; 302  :     z = fz;

  0006e	f3 0f 11 45 f8	 movss	 DWORD PTR _vDir2$[ebp+8], xmm0
; File C:\IAGOS\server\v18\Source\Source\_Common\Obj.h

; 294  : 	D3DXVec3Normalize( &vDir1, &vDir1 );

  00073	e8 00 00 00 00	 call	 _D3DXVec3Normalize@8

; 295  : 	D3DXVec3Normalize( &vDir2, &vDir2 );

  00078	8d 45 f0	 lea	 eax, DWORD PTR _vDir2$[ebp]
  0007b	50		 push	 eax
  0007c	50		 push	 eax
  0007d	e8 00 00 00 00	 call	 _D3DXVec3Normalize@8
; File C:\IAGOS\server\v18\Source\Source\DX_SDK\d3dx9math.inl

; 1709 :     return pV1->x * pV2->x + pV1->y * pV2->y + pV1->z * pV2->z;

  00082	f3 0f 10 4d e4	 movss	 xmm1, DWORD PTR _vDir1$[ebp]
  00087	f3 0f 10 45 e8	 movss	 xmm0, DWORD PTR _vDir1$[ebp+4]
  0008c	f3 0f 59 45 f4	 mulss	 xmm0, DWORD PTR _vDir2$[ebp+4]
  00091	f3 0f 59 4d f0	 mulss	 xmm1, DWORD PTR _vDir2$[ebp]
  00096	f3 0f 58 c8	 addss	 xmm1, xmm0
  0009a	f3 0f 10 45 f8	 movss	 xmm0, DWORD PTR _vDir2$[ebp+8]
  0009f	f3 0f 59 45 ec	 mulss	 xmm0, DWORD PTR _vDir1$[ebp+8]
  000a4	f3 0f 58 c8	 addss	 xmm1, xmm0
; File C:\Program Files (x86)\Windows Kits\10\Include\10.0.26100.0\ucrt\corecrt_math.h

; 658  :             return (float)acos(_X);

  000a8	0f 5a c1	 cvtps2pd xmm0, xmm1
  000ab	e8 00 00 00 00	 call	 __libm_sse2_acos_precise
  000b0	0f 57 c9	 xorps	 xmm1, xmm1
  000b3	f2 0f 5a c8	 cvtsd2ss xmm1, xmm0
; File C:\IAGOS\server\v18\Source\Source\_Common\Obj.h

; 299  : 	if( vDir2.x < 0.0f )

  000b7	5f		 pop	 edi
  000b8	5e		 pop	 esi
  000b9	0f 57 c0	 xorps	 xmm0, xmm0
  000bc	0f 2f 45 f0	 comiss	 xmm0, DWORD PTR _vDir2$[ebp]
  000c0	f3 0f 59 0d 00
	00 00 00	 mulss	 xmm1, DWORD PTR __real@42652ee0
  000c8	f3 0f 11 4d e0	 movss	 DWORD PTR _fDegree$[ebp], xmm1
  000cd	76 11		 jbe	 SHORT $LN21@GetDegree

; 300  : 		fDegree = 360.0f - fDegree;

  000cf	f3 0f 10 05 00
	00 00 00	 movss	 xmm0, DWORD PTR __real@43b40000
  000d7	f3 0f 5c c1	 subss	 xmm0, xmm1
  000db	f3 0f 11 45 e0	 movss	 DWORD PTR _fDegree$[ebp], xmm0
$LN21@GetDegree:

; 301  : 	else
; 302  : 		fDegree = fDegree;
; 303  : 	return fDegree;
; 304  : }

  000e0	8b 4d fc	 mov	 ecx, DWORD PTR __$ArrayPad$[ebp]
  000e3	d9 45 e0	 fld	 DWORD PTR _fDegree$[ebp]
  000e6	33 cd		 xor	 ecx, ebp
  000e8	e8 00 00 00 00	 call	 @__security_check_cookie@4
  000ed	8b e5		 mov	 esp, ebp
  000ef	5d		 pop	 ebp
  000f0	c3		 ret	 0
?GetDegree@@YAMABUD3DXVECTOR3@@0@Z ENDP			; GetDegree
_TEXT	ENDS
; Function compile flags: /Ogtp
; File C:\IAGOS\server\v18\Source\Source\_Common\Obj.h
;	COMDAT ?SetIndex@CObj@@UAEHPAUIDirect3DDevice9@@KH@Z
_TEXT	SEGMENT
_pd3dDevice$ = 8					; size = 4
_dwIndex$ = 12						; size = 4
_bInitProp$ = 16					; size = 4
?SetIndex@CObj@@UAEHPAUIDirect3DDevice9@@KH@Z PROC	; CObj::SetIndex, COMDAT
; _this$ = ecx

; 172  : 	virtual	BOOL	SetIndex( LPDIRECT3DDEVICE9 pd3dDevice, DWORD dwIndex, BOOL bInitProp = FALSE ) { return SetTypeIndex( pd3dDevice, m_dwType, dwIndex, bInitProp ); }

  00000	55		 push	 ebp
  00001	8b ec		 mov	 ebp, esp
  00003	ff 75 10	 push	 DWORD PTR _bInitProp$[ebp]
  00006	ff 75 0c	 push	 DWORD PTR _dwIndex$[ebp]
  00009	ff b1 70 01 00
	00		 push	 DWORD PTR [ecx+368]
  0000f	ff 75 08	 push	 DWORD PTR _pd3dDevice$[ebp]
  00012	e8 00 00 00 00	 call	 ?SetTypeIndex@CObj@@QAEHPAUIDirect3DDevice9@@KKH@Z ; CObj::SetTypeIndex
  00017	5d		 pop	 ebp
  00018	c2 0c 00	 ret	 12			; 0000000cH
?SetIndex@CObj@@UAEHPAUIDirect3DDevice9@@KH@Z ENDP	; CObj::SetIndex
_TEXT	ENDS
; Function compile flags: /Ogtp
; File C:\IAGOS\server\v18\Source\Source\_Common\Obj.h
;	COMDAT ?GetName@CObj@@UAEPBDXZ
_TEXT	SEGMENT
?GetName@CObj@@UAEPBDXZ PROC				; CObj::GetName, COMDAT
; _this$ = ecx

; 166  : 	virtual	LPCTSTR GetName() { return _T( "hello" ); }

  00000	b8 00 00 00 00	 mov	 eax, OFFSET ??_C@_05CJBACGMB@hello@
  00005	c3		 ret	 0
?GetName@CObj@@UAEPBDXZ ENDP				; CObj::GetName
_TEXT	ENDS
; Function compile flags: /Ogtp
; File C:\IAGOS\server\v18\Source\Source\_Common\Obj.h
;	COMDAT ?InitMotion@CObj@@UAEHK@Z
_TEXT	SEGMENT
_dwMotion$ = 8						; size = 4
?InitMotion@CObj@@UAEHK@Z PROC				; CObj::InitMotion, COMDAT
; _this$ = ecx

; 163  : 	virtual	BOOL	InitMotion(DWORD dwMotion) { return FALSE; }

  00000	33 c0		 xor	 eax, eax
  00002	c2 04 00	 ret	 4
?InitMotion@CObj@@UAEHK@Z ENDP				; CObj::InitMotion
_TEXT	ENDS
; Function compile flags: /Ogtp
; File C:\IAGOS\server\v18\Source\Source\_Common\Obj.h
;	COMDAT ?SetMotion@CObj@@UAEHKHK@Z
_TEXT	SEGMENT
_dwMotion$ = 8						; size = 4
_nLoop$ = 12						; size = 4
_dwOption$ = 16						; size = 4
?SetMotion@CObj@@UAEHKHK@Z PROC				; CObj::SetMotion, COMDAT
; _this$ = ecx

; 162  : 	virtual	BOOL	SetMotion(DWORD dwMotion, int nLoop = ANILOOP_LOOP, DWORD dwOption = 0 ) { return FALSE; }

  00000	33 c0		 xor	 eax, eax
  00002	c2 0c 00	 ret	 12			; 0000000cH
?SetMotion@CObj@@UAEHKHK@Z ENDP				; CObj::SetMotion
_TEXT	ENDS
; Function compile flags: /Ogtp
; File C:\IAGOS\server\v18\Source\Source\_Network\Mcl\Include\CMclAutoLock.h
; File C:\IAGOS\server\v18\Source\Source\_Network\Mcl\Include\CMclCritSec.h
; File C:\IAGOS\server\v18\Source\Source\_Network\Mcl\Include\CMclAutoLock.h
;	COMDAT ??1CMclAutoLock@@QAE@XZ
_TEXT	SEGMENT
??1CMclAutoLock@@QAE@XZ PROC				; CMclAutoLock::~CMclAutoLock, COMDAT
; _this$ = ecx
; File C:\IAGOS\server\v18\Source\Source\_Network\Mcl\Include\CMclCritSec.h

; 39   : 		::LeaveCriticalSection( &m_CritSec );

  00000	8b 01		 mov	 eax, DWORD PTR [ecx]
  00002	83 c0 04	 add	 eax, 4
  00005	50		 push	 eax
  00006	ff 15 00 00 00
	00		 call	 DWORD PTR __imp__LeaveCriticalSection@4
; File C:\IAGOS\server\v18\Source\Source\_Network\Mcl\Include\CMclAutoLock.h

; 29   : 	}

  0000c	c3		 ret	 0
??1CMclAutoLock@@QAE@XZ ENDP				; CMclAutoLock::~CMclAutoLock
_TEXT	ENDS
; Function compile flags: /Ogtp
; File C:\IAGOS\server\v18\Source\Source\DX_SDK\d3dx9math.h
;	COMDAT ??0D3DXVECTOR3@@QAE@XZ
_TEXT	SEGMENT
??0D3DXVECTOR3@@QAE@XZ PROC				; D3DXVECTOR3::D3DXVECTOR3, COMDAT
; _this$ = ecx

; 165  :     D3DXVECTOR3() {};

  00000	8b c1		 mov	 eax, ecx
  00002	c3		 ret	 0
??0D3DXVECTOR3@@QAE@XZ ENDP				; D3DXVECTOR3::D3DXVECTOR3
_TEXT	ENDS
; Function compile flags: /Ogtp
; File C:\Program Files\Microsoft Visual Studio\2022\Professional\VC\Tools\MSVC\14.44.35207\include\xtree
;	COMDAT ?_Throw_tree_length_error@std@@YAXXZ
_TEXT	SEGMENT
?_Throw_tree_length_error@std@@YAXXZ PROC		; std::_Throw_tree_length_error, COMDAT

; 417  :     _Xlength_error("map/set too long");

  00000	68 00 00 00 00	 push	 OFFSET ??_C@_0BB@GCADKGJO@map?1set?5too?5long@
  00005	e8 00 00 00 00	 call	 ?_Xlength_error@std@@YAXPBD@Z ; std::_Xlength_error
$LN3@Throw_tree:
  0000a	cc		 int	 3
?_Throw_tree_length_error@std@@YAXXZ ENDP		; std::_Throw_tree_length_error
_TEXT	ENDS
; Function compile flags: /Ogtp
; File C:\Program Files\Microsoft Visual Studio\2022\Professional\VC\Tools\MSVC\14.44.35207\include\xstring
; File C:\Program Files\Microsoft Visual Studio\2022\Professional\VC\Tools\MSVC\14.44.35207\include\xmemory
; File C:\Program Files\Microsoft Visual Studio\2022\Professional\VC\Tools\MSVC\14.44.35207\include\xstring
; File C:\Program Files\Microsoft Visual Studio\2022\Professional\VC\Tools\MSVC\14.44.35207\include\xmemory
; File C:\Program Files\Microsoft Visual Studio\2022\Professional\VC\Tools\MSVC\14.44.35207\include\xstring
; File C:\Program Files\Microsoft Visual Studio\2022\Professional\VC\Tools\MSVC\14.44.35207\include\xmemory
; File C:\Program Files\Microsoft Visual Studio\2022\Professional\VC\Tools\MSVC\14.44.35207\include\xstring
;	COMDAT ??1?$basic_string@DU?$char_traits@D@std@@V?$allocator@D@2@@std@@QAE@XZ
_TEXT	SEGMENT
??1?$basic_string@DU?$char_traits@D@std@@V?$allocator@D@2@@std@@QAE@XZ PROC ; std::basic_string<char,std::char_traits<char>,std::allocator<char> >::~basic_string<char,std::char_traits<char>,std::allocator<char> >, COMDAT
; _this$ = ecx

; 1382 :     _CONSTEXPR20 ~basic_string() noexcept {

  00000	56		 push	 esi
  00001	8b f1		 mov	 esi, ecx

; 453  :         return _Myres > _Small_string_capacity;

  00003	8b 4e 14	 mov	 ecx, DWORD PTR [esi+20]
  00006	83 f9 0f	 cmp	 ecx, 15			; 0000000fH

; 3083 :         if (_My_data._Large_mode_engaged()) {

  00009	76 27		 jbe	 SHORT $LN19@basic_stri
; File C:\Program Files\Microsoft Visual Studio\2022\Professional\VC\Tools\MSVC\14.44.35207\include\xmemory

; 985  :         _STD _Deallocate<_New_alignof<_Ty>>(_Ptr, sizeof(_Ty) * _Count);

  0000b	8b 06		 mov	 eax, DWORD PTR [esi]
; File C:\Program Files\Microsoft Visual Studio\2022\Professional\VC\Tools\MSVC\14.44.35207\include\xstring

; 852  :         _Al.deallocate(_Old_ptr, _Capacity + 1); // +1 for null terminator

  0000d	41		 inc	 ecx
; File C:\Program Files\Microsoft Visual Studio\2022\Professional\VC\Tools\MSVC\14.44.35207\include\xmemory

; 284  :         if (_Bytes >= _Big_allocation_threshold) {

  0000e	81 f9 00 10 00
	00		 cmp	 ecx, 4096		; 00001000H
  00014	72 12		 jb	 SHORT $LN24@basic_stri

; 205  :     const uintptr_t _Ptr_container   = _Ptr_user[-1];

  00016	8b 50 fc	 mov	 edx, DWORD PTR [eax-4]
  00019	83 c1 23	 add	 ecx, 35			; 00000023H

; 206  : 
; 207  :     // If the following asserts, it likely means that we are performing
; 208  :     // an aligned delete on memory coming from an unaligned allocation.
; 209  :     _STL_ASSERT(_Ptr_user[-2] == _Big_allocation_sentinel, "invalid argument");
; 210  : 
; 211  :     // Extra paranoia on aligned allocation/deallocation; ensure _Ptr_container is
; 212  :     // in range [_Min_back_shift, _Non_user_size]
; 213  : #ifdef _DEBUG
; 214  :     constexpr uintptr_t _Min_back_shift = 2 * sizeof(void*);
; 215  : #else // ^^^ defined(_DEBUG) / !defined(_DEBUG) vvv
; 216  :     constexpr uintptr_t _Min_back_shift = sizeof(void*);
; 217  : #endif // ^^^ !defined(_DEBUG) ^^^
; 218  :     const uintptr_t _Back_shift = reinterpret_cast<uintptr_t>(_Ptr) - _Ptr_container;

  0001c	2b c2		 sub	 eax, edx

; 219  :     _STL_VERIFY(_Back_shift >= _Min_back_shift && _Back_shift <= _Non_user_size, "invalid argument");

  0001e	83 c0 fc	 add	 eax, -4			; fffffffcH
  00021	83 f8 1f	 cmp	 eax, 31			; 0000001fH
  00024	77 1f		 ja	 SHORT $LN23@basic_stri

; 220  :     _Ptr = reinterpret_cast<void*>(_Ptr_container);

  00026	8b c2		 mov	 eax, edx
$LN24@basic_stri:

; 289  :         ::operator delete(_Ptr, _Bytes);

  00028	51		 push	 ecx
  00029	50		 push	 eax
  0002a	e8 00 00 00 00	 call	 ??3@YAXPAXI@Z		; operator delete
  0002f	83 c4 08	 add	 esp, 8
$LN19@basic_stri:
; File C:\Program Files\Microsoft Visual Studio\2022\Professional\VC\Tools\MSVC\14.44.35207\include\xstring

; 3090 :         _My_data._Mysize = 0;

  00032	c7 46 10 00 00
	00 00		 mov	 DWORD PTR [esi+16], 0

; 3091 :         _My_data._Myres  = _Small_string_capacity;

  00039	c7 46 14 0f 00
	00 00		 mov	 DWORD PTR [esi+20], 15	; 0000000fH

; 3092 :         // the _Traits::assign is last so the codegen doesn't think the char write can alias this
; 3093 :         _Traits::assign(_My_data._Bx._Buf[0], _Elem());

  00040	c6 06 00	 mov	 BYTE PTR [esi], 0
  00043	5e		 pop	 esi

; 1390 :     }

  00044	c3		 ret	 0
$LN23@basic_stri:
; File C:\Program Files\Microsoft Visual Studio\2022\Professional\VC\Tools\MSVC\14.44.35207\include\xmemory

; 219  :     _STL_VERIFY(_Back_shift >= _Min_back_shift && _Back_shift <= _Non_user_size, "invalid argument");

  00045	6a 00		 push	 0
  00047	6a 00		 push	 0
  00049	6a 00		 push	 0
  0004b	6a 00		 push	 0
  0004d	6a 00		 push	 0
  0004f	e8 00 00 00 00	 call	 __invoke_watson
$LN33@basic_stri:
  00054	cc		 int	 3
??1?$basic_string@DU?$char_traits@D@std@@V?$allocator@D@2@@std@@QAE@XZ ENDP ; std::basic_string<char,std::char_traits<char>,std::allocator<char> >::~basic_string<char,std::char_traits<char>,std::allocator<char> >
_TEXT	ENDS
; Function compile flags: /Ogtp
; File C:\Program Files\Microsoft Visual Studio\2022\Professional\VC\Tools\MSVC\14.44.35207\include\xstring
; File C:\Program Files\Microsoft Visual Studio\2022\Professional\VC\Tools\MSVC\14.44.35207\include\__msvc_string_view.hpp
; File C:\Program Files\Microsoft Visual Studio\2022\Professional\VC\Tools\MSVC\14.44.35207\include\xstring
; File C:\Program Files\Microsoft Visual Studio\2022\Professional\VC\Tools\MSVC\14.44.35207\include\__msvc_string_view.hpp
; File C:\Program Files\Microsoft Visual Studio\2022\Professional\VC\Tools\MSVC\14.44.35207\include\xstring
; File C:\Program Files\Microsoft Visual Studio\2022\Professional\VC\Tools\MSVC\14.44.35207\include\__msvc_string_view.hpp
; File C:\Program Files\Microsoft Visual Studio\2022\Professional\VC\Tools\MSVC\14.44.35207\include\xstring
; File C:\Program Files\Microsoft Visual Studio\2022\Professional\VC\Tools\MSVC\14.44.35207\include\__msvc_string_view.hpp
; File C:\Program Files\Microsoft Visual Studio\2022\Professional\VC\Tools\MSVC\14.44.35207\include\xstring
; File C:\Program Files\Microsoft Visual Studio\2022\Professional\VC\Tools\MSVC\14.44.35207\include\xmemory
; File C:\Program Files\Microsoft Visual Studio\2022\Professional\VC\Tools\MSVC\14.44.35207\include\xstring
; File C:\Program Files\Microsoft Visual Studio\2022\Professional\VC\Tools\MSVC\14.44.35207\include\xmemory
; File C:\Program Files\Microsoft Visual Studio\2022\Professional\VC\Tools\MSVC\14.44.35207\include\xstring
; File C:\Program Files\Microsoft Visual Studio\2022\Professional\VC\Tools\MSVC\14.44.35207\include\__msvc_string_view.hpp
; File C:\Program Files\Microsoft Visual Studio\2022\Professional\VC\Tools\MSVC\14.44.35207\include\xstring
; File C:\Program Files\Microsoft Visual Studio\2022\Professional\VC\Tools\MSVC\14.44.35207\include\__msvc_string_view.hpp
; File C:\Program Files\Microsoft Visual Studio\2022\Professional\VC\Tools\MSVC\14.44.35207\include\xstring
; File C:\Program Files\Microsoft Visual Studio\2022\Professional\VC\Tools\MSVC\14.44.35207\include\__msvc_string_view.hpp
; File C:\Program Files\Microsoft Visual Studio\2022\Professional\VC\Tools\MSVC\14.44.35207\include\xstring
;	COMDAT ??0?$basic_string@DU?$char_traits@D@std@@V?$allocator@D@2@@std@@QAE@QBD@Z
_TEXT	SEGMENT
$T1 = -4						; size = 4
__Ptr$ = 8						; size = 4
??0?$basic_string@DU?$char_traits@D@std@@V?$allocator@D@2@@std@@QAE@QBD@Z PROC ; std::basic_string<char,std::char_traits<char>,std::allocator<char> >::basic_string<char,std::char_traits<char>,std::allocator<char> >, COMDAT
; _this$ = ecx

; 768  :     _CONSTEXPR20 basic_string(_In_z_ const _Elem* const _Ptr) : _Mypair(_Zero_then_variadic_args_t{}) {

  00000	55		 push	 ebp
  00001	8b ec		 mov	 ebp, esp
  00003	51		 push	 ecx
  00004	53		 push	 ebx
  00005	56		 push	 esi
  00006	8b d9		 mov	 ebx, ecx
  00008	0f 57 c0	 xorps	 xmm0, xmm0
  0000b	57		 push	 edi
; File C:\Program Files\Microsoft Visual Studio\2022\Professional\VC\Tools\MSVC\14.44.35207\include\__msvc_string_view.hpp

; 459  :         return _CSTD strlen(reinterpret_cast<const char*>(_First));

  0000c	8b 7d 08	 mov	 edi, DWORD PTR __Ptr$[ebp]
  0000f	8b f7		 mov	 esi, edi
; File C:\Program Files\Microsoft Visual Studio\2022\Professional\VC\Tools\MSVC\14.44.35207\include\xstring

; 493  :         _CONSTEXPR20 _Bxty() noexcept : _Buf() {} // user-provided, for fancy pointers

  00011	0f 11 03	 movups	 XMMWORD PTR [ebx], xmm0

; 517  :     size_type _Mysize = 0; // current length of string (size)

  00014	c7 43 10 00 00
	00 00		 mov	 DWORD PTR [ebx+16], 0

; 518  :     size_type _Myres  = 0; // current storage reserved for string (capacity)

  0001b	c7 43 14 00 00
	00 00		 mov	 DWORD PTR [ebx+20], 0
; File C:\Program Files\Microsoft Visual Studio\2022\Professional\VC\Tools\MSVC\14.44.35207\include\__msvc_string_view.hpp

; 459  :         return _CSTD strlen(reinterpret_cast<const char*>(_First));

  00022	8d 4e 01	 lea	 ecx, DWORD PTR [esi+1]
$LL51@basic_stri:
  00025	8a 06		 mov	 al, BYTE PTR [esi]
  00027	46		 inc	 esi
  00028	84 c0		 test	 al, al
  0002a	75 f9		 jne	 SHORT $LL51@basic_stri
  0002c	2b f1		 sub	 esi, ecx
; File C:\Program Files\Microsoft Visual Studio\2022\Professional\VC\Tools\MSVC\14.44.35207\include\xstring

; 881  :         if (_Count > max_size()) {

  0002e	81 fe ff ff ff
	7f		 cmp	 esi, 2147483647		; 7fffffffH
  00034	0f 87 9b 00 00
	00		 ja	 $LN62@basic_stri

; 883  :         }
; 884  : 
; 885  :         auto& _Al       = _Getal();
; 886  :         auto&& _Alproxy = _GET_PROXY_ALLOCATOR(_Alty, _Al);
; 887  :         _Container_proxy_ptr<_Alty> _Proxy(_Alproxy, _My_data);
; 888  : 
; 889  :         if (_Count <= _Small_string_capacity) {

  0003a	83 fe 0f	 cmp	 esi, 15			; 0000000fH
  0003d	77 24		 ja	 SHORT $LN21@basic_stri
; File C:\Program Files\Microsoft Visual Studio\2022\Professional\VC\Tools\MSVC\14.44.35207\include\__msvc_string_view.hpp

; 121  :         _CSTD memcpy(_First1, _First2, _Count * sizeof(_Elem));

  0003f	56		 push	 esi
  00040	57		 push	 edi
  00041	53		 push	 ebx
; File C:\Program Files\Microsoft Visual Studio\2022\Professional\VC\Tools\MSVC\14.44.35207\include\xstring

; 890  :             _My_data._Mysize = _Count;

  00042	89 73 10	 mov	 DWORD PTR [ebx+16], esi

; 891  :             _My_data._Myres  = _Small_string_capacity;

  00045	c7 43 14 0f 00
	00 00		 mov	 DWORD PTR [ebx+20], 15	; 0000000fH
; File C:\Program Files\Microsoft Visual Studio\2022\Professional\VC\Tools\MSVC\14.44.35207\include\__msvc_string_view.hpp

; 121  :         _CSTD memcpy(_First1, _First2, _Count * sizeof(_Elem));

  0004c	e8 00 00 00 00	 call	 _memcpy
; File C:\Program Files\Microsoft Visual Studio\2022\Professional\VC\Tools\MSVC\14.44.35207\include\xstring

; 898  :                 _Traits::assign(_My_data._Bx._Buf[_Count], _Elem());

  00051	c6 04 1e 00	 mov	 BYTE PTR [esi+ebx], 0

; 769  :         _Construct<_Construct_strategy::_From_ptr>(_Ptr, _Convert_size<size_type>(_Traits::length(_Ptr)));
; 770  :     }

  00055	83 c4 0c	 add	 esp, 12			; 0000000cH
  00058	8b c3		 mov	 eax, ebx
  0005a	5f		 pop	 edi
  0005b	5e		 pop	 esi
  0005c	5b		 pop	 ebx
  0005d	8b e5		 mov	 esp, ebp
  0005f	5d		 pop	 ebp
  00060	c2 04 00	 ret	 4
$LN21@basic_stri:

; 2978 :         const size_type _Masked = _Requested | _Alloc_mask;

  00063	8b fe		 mov	 edi, esi
  00065	83 cf 0f	 or	 edi, 15			; 0000000fH
  00068	81 ff ff ff ff
	7f		 cmp	 edi, 2147483647		; 7fffffffH

; 2979 :         if (_Masked > _Max) { // the mask overflows, settle for max_size()

  0006e	76 12		 jbe	 SHORT $LN27@basic_stri

; 2980 :             return _Max;

  00070	b8 00 00 00 80	 mov	 eax, -2147483648	; 80000000H
  00075	bf ff ff ff 7f	 mov	 edi, 2147483647		; 7fffffffH
; File C:\Program Files\Microsoft Visual Studio\2022\Professional\VC\Tools\MSVC\14.44.35207\include\xmemory

; 253  :             return _Allocate_manually_vector_aligned<_Traits>(_Bytes);

  0007a	50		 push	 eax
  0007b	e8 00 00 00 00	 call	 ??$_Allocate_manually_vector_aligned@U_Default_allocate_traits@std@@@std@@YAPAXI@Z ; std::_Allocate_manually_vector_aligned<std::_Default_allocate_traits>
  00080	eb 26		 jmp	 SHORT $LN60@basic_stri
$LN27@basic_stri:
; File C:\Program Files\Microsoft Visual Studio\2022\Professional\VC\Tools\MSVC\14.44.35207\include\xstring

; 2987 :         return (_STD max)(_Masked, _Old + _Old / 2);

  00082	b8 16 00 00 00	 mov	 eax, 22			; 00000016H
  00087	3b f8		 cmp	 edi, eax
  00089	0f 42 f8	 cmovb	 edi, eax

; 825  :         ++_Capacity; // Take null terminator into consideration

  0008c	8d 47 01	 lea	 eax, DWORD PTR [edi+1]
; File C:\Program Files\Microsoft Visual Studio\2022\Professional\VC\Tools\MSVC\14.44.35207\include\xmemory

; 227  :     if (_Bytes == 0) {

  0008f	85 c0		 test	 eax, eax
  00091	74 18		 je	 SHORT $LN59@basic_stri
$LN41@basic_stri:

; 228  :         return nullptr;
; 229  :     }
; 230  : 
; 231  : #if _HAS_CXX20 // TRANSITION, GH-1532
; 232  :     if (_STD is_constant_evaluated()) {
; 233  :         return _Traits::_Allocate(_Bytes);
; 234  :     }
; 235  : #endif // _HAS_CXX20
; 236  : 
; 237  : #ifdef __cpp_aligned_new
; 238  :     if constexpr (_Align > __STDCPP_DEFAULT_NEW_ALIGNMENT__) {
; 239  :         size_t _Passed_align = _Align;
; 240  : #if defined(_M_IX86) || defined(_M_X64)
; 241  :         if (_Bytes >= _Big_allocation_threshold) {
; 242  :             // boost the alignment of big allocations to help autovectorization
; 243  :             _Passed_align = (_STD max)(_Align, _Big_allocation_alignment);
; 244  :         }
; 245  : #endif // defined(_M_IX86) || defined(_M_X64)
; 246  :         return _Traits::_Allocate_aligned(_Bytes, _Passed_align);
; 247  :     } else
; 248  : #endif // defined(__cpp_aligned_new)
; 249  :     {
; 250  : #if defined(_M_IX86) || defined(_M_X64)
; 251  :         if (_Bytes >= _Big_allocation_threshold) {

  00093	3d 00 10 00 00	 cmp	 eax, 4096		; 00001000H
  00098	72 08		 jb	 SHORT $LN42@basic_stri

; 253  :             return _Allocate_manually_vector_aligned<_Traits>(_Bytes);

  0009a	50		 push	 eax
  0009b	e8 00 00 00 00	 call	 ??$_Allocate_manually_vector_aligned@U_Default_allocate_traits@std@@@std@@YAPAXI@Z ; std::_Allocate_manually_vector_aligned<std::_Default_allocate_traits>
  000a0	eb 06		 jmp	 SHORT $LN60@basic_stri
$LN42@basic_stri:

; 136  :         return ::operator new(_Bytes);

  000a2	50		 push	 eax
  000a3	e8 00 00 00 00	 call	 ??2@YAPAXI@Z		; operator new
$LN60@basic_stri:
; File C:\Program Files\Microsoft Visual Studio\2022\Professional\VC\Tools\MSVC\14.44.35207\include\xstring

; 913  :         _Construct_in_place(_My_data._Bx._Ptr, _New_ptr);

  000a8	83 c4 04	 add	 esp, 4
$LN59@basic_stri:
; File C:\Program Files\Microsoft Visual Studio\2022\Professional\VC\Tools\MSVC\14.44.35207\include\__msvc_string_view.hpp

; 121  :         _CSTD memcpy(_First1, _First2, _Count * sizeof(_Elem));

  000ab	56		 push	 esi
  000ac	ff 75 08	 push	 DWORD PTR __Ptr$[ebp]
; File C:\Program Files\Microsoft Visual Studio\2022\Professional\VC\Tools\MSVC\14.44.35207\include\xstring

; 913  :         _Construct_in_place(_My_data._Bx._Ptr, _New_ptr);

  000af	89 45 fc	 mov	 DWORD PTR $T1[ebp], eax
; File C:\Program Files\Microsoft Visual Studio\2022\Professional\VC\Tools\MSVC\14.44.35207\include\__msvc_string_view.hpp

; 121  :         _CSTD memcpy(_First1, _First2, _Count * sizeof(_Elem));

  000b2	50		 push	 eax
; File C:\Program Files\Microsoft Visual Studio\2022\Professional\VC\Tools\MSVC\14.44.35207\include\xstring

; 913  :         _Construct_in_place(_My_data._Bx._Ptr, _New_ptr);

  000b3	89 03		 mov	 DWORD PTR [ebx], eax

; 914  : 
; 915  :         _My_data._Mysize = _Count;

  000b5	89 73 10	 mov	 DWORD PTR [ebx+16], esi

; 916  :         _My_data._Myres  = _New_capacity;

  000b8	89 7b 14	 mov	 DWORD PTR [ebx+20], edi
; File C:\Program Files\Microsoft Visual Studio\2022\Professional\VC\Tools\MSVC\14.44.35207\include\__msvc_string_view.hpp

; 121  :         _CSTD memcpy(_First1, _First2, _Count * sizeof(_Elem));

  000bb	e8 00 00 00 00	 call	 _memcpy
; File C:\Program Files\Microsoft Visual Studio\2022\Professional\VC\Tools\MSVC\14.44.35207\include\xstring

; 922  :             _Traits::assign(_Unfancy(_New_ptr)[_Count], _Elem());

  000c0	8b 45 fc	 mov	 eax, DWORD PTR $T1[ebp]

; 769  :         _Construct<_Construct_strategy::_From_ptr>(_Ptr, _Convert_size<size_type>(_Traits::length(_Ptr)));
; 770  :     }

  000c3	83 c4 0c	 add	 esp, 12			; 0000000cH
  000c6	5f		 pop	 edi

; 922  :             _Traits::assign(_Unfancy(_New_ptr)[_Count], _Elem());

  000c7	c6 04 30 00	 mov	 BYTE PTR [eax+esi], 0

; 769  :         _Construct<_Construct_strategy::_From_ptr>(_Ptr, _Convert_size<size_type>(_Traits::length(_Ptr)));
; 770  :     }

  000cb	8b c3		 mov	 eax, ebx
  000cd	5e		 pop	 esi
  000ce	5b		 pop	 ebx
  000cf	8b e5		 mov	 esp, ebp
  000d1	5d		 pop	 ebp
  000d2	c2 04 00	 ret	 4
$LN62@basic_stri:

; 882  :             _Xlen_string(); // result too long

  000d5	e8 00 00 00 00	 call	 ?_Xlen_string@std@@YAXXZ ; std::_Xlen_string
$LN57@basic_stri:
  000da	cc		 int	 3
??0?$basic_string@DU?$char_traits@D@std@@V?$allocator@D@2@@std@@QAE@QBD@Z ENDP ; std::basic_string<char,std::char_traits<char>,std::allocator<char> >::basic_string<char,std::char_traits<char>,std::allocator<char> >
_TEXT	ENDS
; Function compile flags: /Ogtp
; File C:\Program Files\Microsoft Visual Studio\2022\Professional\VC\Tools\MSVC\14.44.35207\include\xstring
;	COMDAT ?_Xlen_string@std@@YAXXZ
_TEXT	SEGMENT
?_Xlen_string@std@@YAXXZ PROC				; std::_Xlen_string, COMDAT

; 531  :     _Xlength_error("string too long");

  00000	68 00 00 00 00	 push	 OFFSET ??_C@_0BA@JFNIOLAK@string?5too?5long@
  00005	e8 00 00 00 00	 call	 ?_Xlength_error@std@@YAXPBD@Z ; std::_Xlength_error
$LN3@Xlen_strin:
  0000a	cc		 int	 3
?_Xlen_string@std@@YAXXZ ENDP				; std::_Xlen_string
_TEXT	ENDS
; Function compile flags: /Ogtp
; File C:\Program Files\Microsoft Visual Studio\2022\Professional\VC\Tools\MSVC\14.44.35207\include\xmemory
;	COMDAT ?_Throw_bad_array_new_length@std@@YAXXZ
_TEXT	SEGMENT
$T1 = -12						; size = 12
?_Throw_bad_array_new_length@std@@YAXXZ PROC		; std::_Throw_bad_array_new_length, COMDAT

; 107  : [[noreturn]] inline void _Throw_bad_array_new_length() {

  00000	55		 push	 ebp
  00001	8b ec		 mov	 ebp, esp
  00003	83 ec 0c	 sub	 esp, 12			; 0000000cH

; 108  :     _THROW(bad_array_new_length{});

  00006	8d 4d f4	 lea	 ecx, DWORD PTR $T1[ebp]
  00009	e8 00 00 00 00	 call	 ??0bad_array_new_length@std@@QAE@XZ ; std::bad_array_new_length::bad_array_new_length
  0000e	68 00 00 00 00	 push	 OFFSET __TI3?AVbad_array_new_length@std@@
  00013	8d 45 f4	 lea	 eax, DWORD PTR $T1[ebp]
  00016	50		 push	 eax
  00017	e8 00 00 00 00	 call	 __CxxThrowException@8
$LN3@Throw_bad_:
  0001c	cc		 int	 3
?_Throw_bad_array_new_length@std@@YAXXZ ENDP		; std::_Throw_bad_array_new_length
_TEXT	ENDS
; Function compile flags: /Ogtp
; File C:\Program Files\Microsoft Visual Studio\2022\Professional\VC\Tools\MSVC\14.44.35207\include\vcruntime_exception.h
;	COMDAT ??_Gbad_array_new_length@std@@UAEPAXI@Z
_TEXT	SEGMENT
___flags$ = 8						; size = 4
??_Gbad_array_new_length@std@@UAEPAXI@Z PROC		; std::bad_array_new_length::`scalar deleting destructor', COMDAT
; _this$ = ecx
  00000	55		 push	 ebp
  00001	8b ec		 mov	 ebp, esp

; 90   :     {

  00003	56		 push	 esi
  00004	8b f1		 mov	 esi, ecx

; 91   :         __std_exception_destroy(&_Data);

  00006	8d 46 04	 lea	 eax, DWORD PTR [esi+4]
  00009	c7 06 00 00 00
	00		 mov	 DWORD PTR [esi], OFFSET ??_7exception@std@@6B@
  0000f	50		 push	 eax
  00010	e8 00 00 00 00	 call	 ___std_exception_destroy
  00015	83 c4 04	 add	 esp, 4
  00018	f6 45 08 01	 test	 BYTE PTR ___flags$[ebp], 1
  0001c	74 0b		 je	 SHORT $LN18@scalar
  0001e	6a 0c		 push	 12			; 0000000cH
  00020	56		 push	 esi
  00021	e8 00 00 00 00	 call	 ??3@YAXPAXI@Z		; operator delete
  00026	83 c4 08	 add	 esp, 8
$LN18@scalar:
  00029	8b c6		 mov	 eax, esi
  0002b	5e		 pop	 esi
  0002c	5d		 pop	 ebp
  0002d	c2 04 00	 ret	 4
??_Gbad_array_new_length@std@@UAEPAXI@Z ENDP		; std::bad_array_new_length::`scalar deleting destructor'
_TEXT	ENDS
; Function compile flags: /Ogtp
; File C:\Program Files\Microsoft Visual Studio\2022\Professional\VC\Tools\MSVC\14.44.35207\include\vcruntime_exception.h
;	COMDAT ??0bad_array_new_length@std@@QAE@ABV01@@Z
_TEXT	SEGMENT
___that$ = 8						; size = 4
??0bad_array_new_length@std@@QAE@ABV01@@Z PROC		; std::bad_array_new_length::bad_array_new_length, COMDAT
; _this$ = ecx
  00000	55		 push	 ebp
  00001	8b ec		 mov	 ebp, esp

; 73   :     {

  00003	56		 push	 esi
  00004	8b f1		 mov	 esi, ecx
  00006	0f 57 c0	 xorps	 xmm0, xmm0

; 72   :         : _Data()

  00009	8d 46 04	 lea	 eax, DWORD PTR [esi+4]

; 74   :         __std_exception_copy(&_Other._Data, &_Data);

  0000c	50		 push	 eax
  0000d	c7 06 00 00 00
	00		 mov	 DWORD PTR [esi], OFFSET ??_7exception@std@@6B@
  00013	66 0f d6 00	 movq	 QWORD PTR [eax], xmm0
  00017	8b 45 08	 mov	 eax, DWORD PTR ___that$[ebp]
  0001a	83 c0 04	 add	 eax, 4
  0001d	50		 push	 eax
  0001e	e8 00 00 00 00	 call	 ___std_exception_copy
  00023	83 c4 08	 add	 esp, 8
  00026	c7 06 00 00 00
	00		 mov	 DWORD PTR [esi], OFFSET ??_7bad_array_new_length@std@@6B@
  0002c	8b c6		 mov	 eax, esi
  0002e	5e		 pop	 esi
  0002f	5d		 pop	 ebp
  00030	c2 04 00	 ret	 4
??0bad_array_new_length@std@@QAE@ABV01@@Z ENDP		; std::bad_array_new_length::bad_array_new_length
_TEXT	ENDS
; Function compile flags: /Ogtp
; File C:\Program Files\Microsoft Visual Studio\2022\Professional\VC\Tools\MSVC\14.44.35207\include\vcruntime_exception.h
;	COMDAT ??1bad_array_new_length@std@@UAE@XZ
_TEXT	SEGMENT
??1bad_array_new_length@std@@UAE@XZ PROC		; std::bad_array_new_length::~bad_array_new_length, COMDAT
; _this$ = ecx

; 91   :         __std_exception_destroy(&_Data);

  00000	8d 41 04	 lea	 eax, DWORD PTR [ecx+4]
  00003	c7 01 00 00 00
	00		 mov	 DWORD PTR [ecx], OFFSET ??_7exception@std@@6B@
  00009	50		 push	 eax
  0000a	e8 00 00 00 00	 call	 ___std_exception_destroy
  0000f	59		 pop	 ecx
  00010	c3		 ret	 0
??1bad_array_new_length@std@@UAE@XZ ENDP		; std::bad_array_new_length::~bad_array_new_length
_TEXT	ENDS
; Function compile flags: /Ogtp
; File C:\Program Files\Microsoft Visual Studio\2022\Professional\VC\Tools\MSVC\14.44.35207\include\vcruntime_exception.h
;	COMDAT ??0bad_array_new_length@std@@QAE@XZ
_TEXT	SEGMENT
??0bad_array_new_length@std@@QAE@XZ PROC		; std::bad_array_new_length::bad_array_new_length, COMDAT
; _this$ = ecx

; 144  :     {

  00000	0f 57 c0	 xorps	 xmm0, xmm0

; 145  :     }

  00003	8b c1		 mov	 eax, ecx

; 66   :         : _Data()

  00005	66 0f d6 41 04	 movq	 QWORD PTR [ecx+4], xmm0

; 67   :     {
; 68   :         _Data._What = _Message;

  0000a	c7 41 04 00 00
	00 00		 mov	 DWORD PTR [ecx+4], OFFSET ??_C@_0BF@KINCDENJ@bad?5array?5new?5length@

; 144  :     {

  00011	c7 01 00 00 00
	00		 mov	 DWORD PTR [ecx], OFFSET ??_7bad_array_new_length@std@@6B@

; 145  :     }

  00017	c3		 ret	 0
??0bad_array_new_length@std@@QAE@XZ ENDP		; std::bad_array_new_length::bad_array_new_length
_TEXT	ENDS
; Function compile flags: /Ogtp
; File C:\Program Files\Microsoft Visual Studio\2022\Professional\VC\Tools\MSVC\14.44.35207\include\vcruntime_exception.h
;	COMDAT ??_Gbad_alloc@std@@UAEPAXI@Z
_TEXT	SEGMENT
___flags$ = 8						; size = 4
??_Gbad_alloc@std@@UAEPAXI@Z PROC			; std::bad_alloc::`scalar deleting destructor', COMDAT
; _this$ = ecx
  00000	55		 push	 ebp
  00001	8b ec		 mov	 ebp, esp

; 90   :     {

  00003	56		 push	 esi
  00004	8b f1		 mov	 esi, ecx

; 91   :         __std_exception_destroy(&_Data);

  00006	8d 46 04	 lea	 eax, DWORD PTR [esi+4]
  00009	c7 06 00 00 00
	00		 mov	 DWORD PTR [esi], OFFSET ??_7exception@std@@6B@
  0000f	50		 push	 eax
  00010	e8 00 00 00 00	 call	 ___std_exception_destroy
  00015	83 c4 04	 add	 esp, 4
  00018	f6 45 08 01	 test	 BYTE PTR ___flags$[ebp], 1
  0001c	74 0b		 je	 SHORT $LN13@scalar
  0001e	6a 0c		 push	 12			; 0000000cH
  00020	56		 push	 esi
  00021	e8 00 00 00 00	 call	 ??3@YAXPAXI@Z		; operator delete
  00026	83 c4 08	 add	 esp, 8
$LN13@scalar:
  00029	8b c6		 mov	 eax, esi
  0002b	5e		 pop	 esi
  0002c	5d		 pop	 ebp
  0002d	c2 04 00	 ret	 4
??_Gbad_alloc@std@@UAEPAXI@Z ENDP			; std::bad_alloc::`scalar deleting destructor'
_TEXT	ENDS
; Function compile flags: /Ogtp
; File C:\Program Files\Microsoft Visual Studio\2022\Professional\VC\Tools\MSVC\14.44.35207\include\vcruntime_exception.h
;	COMDAT ??0bad_alloc@std@@QAE@ABV01@@Z
_TEXT	SEGMENT
___that$ = 8						; size = 4
??0bad_alloc@std@@QAE@ABV01@@Z PROC			; std::bad_alloc::bad_alloc, COMDAT
; _this$ = ecx
  00000	55		 push	 ebp
  00001	8b ec		 mov	 ebp, esp

; 73   :     {

  00003	56		 push	 esi
  00004	8b f1		 mov	 esi, ecx
  00006	0f 57 c0	 xorps	 xmm0, xmm0

; 72   :         : _Data()

  00009	8d 46 04	 lea	 eax, DWORD PTR [esi+4]

; 74   :         __std_exception_copy(&_Other._Data, &_Data);

  0000c	50		 push	 eax
  0000d	c7 06 00 00 00
	00		 mov	 DWORD PTR [esi], OFFSET ??_7exception@std@@6B@
  00013	66 0f d6 00	 movq	 QWORD PTR [eax], xmm0
  00017	8b 45 08	 mov	 eax, DWORD PTR ___that$[ebp]
  0001a	83 c0 04	 add	 eax, 4
  0001d	50		 push	 eax
  0001e	e8 00 00 00 00	 call	 ___std_exception_copy
  00023	83 c4 08	 add	 esp, 8
  00026	c7 06 00 00 00
	00		 mov	 DWORD PTR [esi], OFFSET ??_7bad_alloc@std@@6B@
  0002c	8b c6		 mov	 eax, esi
  0002e	5e		 pop	 esi
  0002f	5d		 pop	 ebp
  00030	c2 04 00	 ret	 4
??0bad_alloc@std@@QAE@ABV01@@Z ENDP			; std::bad_alloc::bad_alloc
_TEXT	ENDS
; Function compile flags: /Ogtp
; File C:\Program Files\Microsoft Visual Studio\2022\Professional\VC\Tools\MSVC\14.44.35207\include\vcruntime_exception.h
;	COMDAT ??_Gexception@std@@UAEPAXI@Z
_TEXT	SEGMENT
___flags$ = 8						; size = 4
??_Gexception@std@@UAEPAXI@Z PROC			; std::exception::`scalar deleting destructor', COMDAT
; _this$ = ecx
  00000	55		 push	 ebp
  00001	8b ec		 mov	 ebp, esp

; 90   :     {

  00003	56		 push	 esi
  00004	8b f1		 mov	 esi, ecx

; 91   :         __std_exception_destroy(&_Data);

  00006	8d 46 04	 lea	 eax, DWORD PTR [esi+4]
  00009	c7 06 00 00 00
	00		 mov	 DWORD PTR [esi], OFFSET ??_7exception@std@@6B@
  0000f	50		 push	 eax
  00010	e8 00 00 00 00	 call	 ___std_exception_destroy
  00015	83 c4 04	 add	 esp, 4
  00018	f6 45 08 01	 test	 BYTE PTR ___flags$[ebp], 1
  0001c	74 0b		 je	 SHORT $LN8@scalar
  0001e	6a 0c		 push	 12			; 0000000cH
  00020	56		 push	 esi
  00021	e8 00 00 00 00	 call	 ??3@YAXPAXI@Z		; operator delete
  00026	83 c4 08	 add	 esp, 8
$LN8@scalar:
  00029	8b c6		 mov	 eax, esi
  0002b	5e		 pop	 esi
  0002c	5d		 pop	 ebp
  0002d	c2 04 00	 ret	 4
??_Gexception@std@@UAEPAXI@Z ENDP			; std::exception::`scalar deleting destructor'
_TEXT	ENDS
; Function compile flags: /Ogtp
; File C:\Program Files\Microsoft Visual Studio\2022\Professional\VC\Tools\MSVC\14.44.35207\include\vcruntime_exception.h
;	COMDAT ?what@exception@std@@UBEPBDXZ
_TEXT	SEGMENT
?what@exception@std@@UBEPBDXZ PROC			; std::exception::what, COMDAT
; _this$ = ecx

; 96   :         return _Data._What ? _Data._What : "Unknown exception";

  00000	8b 49 04	 mov	 ecx, DWORD PTR [ecx+4]
  00003	b8 00 00 00 00	 mov	 eax, OFFSET ??_C@_0BC@EOODALEL@Unknown?5exception@
  00008	85 c9		 test	 ecx, ecx
  0000a	0f 45 c1	 cmovne	 eax, ecx

; 97   :     }

  0000d	c3		 ret	 0
?what@exception@std@@UBEPBDXZ ENDP			; std::exception::what
_TEXT	ENDS
; Function compile flags: /Ogtp
; File C:\Program Files\Microsoft Visual Studio\2022\Professional\VC\Tools\MSVC\14.44.35207\include\vcruntime_exception.h
;	COMDAT ??1exception@std@@UAE@XZ
_TEXT	SEGMENT
??1exception@std@@UAE@XZ PROC				; std::exception::~exception, COMDAT
; _this$ = ecx

; 91   :         __std_exception_destroy(&_Data);

  00000	8d 41 04	 lea	 eax, DWORD PTR [ecx+4]
  00003	c7 01 00 00 00
	00		 mov	 DWORD PTR [ecx], OFFSET ??_7exception@std@@6B@
  00009	50		 push	 eax
  0000a	e8 00 00 00 00	 call	 ___std_exception_destroy
  0000f	59		 pop	 ecx

; 92   :     }

  00010	c3		 ret	 0
??1exception@std@@UAE@XZ ENDP				; std::exception::~exception
_TEXT	ENDS
; Function compile flags: /Ogtp
; File C:\Program Files\Microsoft Visual Studio\2022\Professional\VC\Tools\MSVC\14.44.35207\include\vcruntime_exception.h
;	COMDAT ??0exception@std@@QAE@ABV01@@Z
_TEXT	SEGMENT
__Other$ = 8						; size = 4
??0exception@std@@QAE@ABV01@@Z PROC			; std::exception::exception, COMDAT
; _this$ = ecx

; 73   :     {

  00000	55		 push	 ebp
  00001	8b ec		 mov	 ebp, esp
  00003	56		 push	 esi
  00004	8b f1		 mov	 esi, ecx
  00006	0f 57 c0	 xorps	 xmm0, xmm0
  00009	8d 46 04	 lea	 eax, DWORD PTR [esi+4]

; 74   :         __std_exception_copy(&_Other._Data, &_Data);

  0000c	50		 push	 eax
  0000d	c7 06 00 00 00
	00		 mov	 DWORD PTR [esi], OFFSET ??_7exception@std@@6B@
  00013	66 0f d6 00	 movq	 QWORD PTR [eax], xmm0
  00017	8b 45 08	 mov	 eax, DWORD PTR __Other$[ebp]
  0001a	83 c0 04	 add	 eax, 4
  0001d	50		 push	 eax
  0001e	e8 00 00 00 00	 call	 ___std_exception_copy
  00023	83 c4 08	 add	 esp, 8

; 75   :     }

  00026	8b c6		 mov	 eax, esi
  00028	5e		 pop	 esi
  00029	5d		 pop	 ebp
  0002a	c2 04 00	 ret	 4
??0exception@std@@QAE@ABV01@@Z ENDP			; std::exception::exception
_TEXT	ENDS
; Function compile flags: /Ogtp
; File C:\IAGOS\server\v18\Source\Source\_Common\ctrl.cpp
;	COMDAT ?__empty_global_delete@@YAXPAXI@Z
_TEXT	SEGMENT
___formal$ = 8						; size = 4
___formal$ = 12						; size = 4
?__empty_global_delete@@YAXPAXI@Z PROC			; __empty_global_delete, COMDAT

  00000	c2 00 00	 ret	 0
?__empty_global_delete@@YAXPAXI@Z ENDP			; __empty_global_delete
_TEXT	ENDS
; Function compile flags: /Ogtp
; File C:\IAGOS\server\v18\Source\Source\_Common\ctrl.cpp
;	COMDAT ?__empty_global_delete@@YAXPAX@Z
_TEXT	SEGMENT
___formal$ = 8						; size = 4
?__empty_global_delete@@YAXPAX@Z PROC			; __empty_global_delete, COMDAT

  00000	c2 00 00	 ret	 0
?__empty_global_delete@@YAXPAX@Z ENDP			; __empty_global_delete
_TEXT	ENDS
END
