; Listing generated by Microsoft (R) Optimizing Compiler Version 19.44.35225.0 

	TITLE	C:\IAGOS\server\v18\Source\Output\WorldServer\Release\CtrlObjs.obj
	.686P
	.XMM
	include listing.inc
	.model	flat

INCLUDELIB LIBCMT
INCLUDELIB OLDNAMES

CONST	SEGMENT
?piecewise_construct@std@@3Upiecewise_construct_t@1@B	ORG $+1 ; std::piecewise_construct
CONST	ENDS
PUBLIC	?__empty_global_delete@@YAXPAX@Z		; __empty_global_delete
PUBLIC	?__empty_global_delete@@YAXPAXI@Z		; __empty_global_delete
PUBLIC	?Init@CContDamageCtrl@@AAEXXZ			; CContDamageCtrl::Init
PUBLIC	?Destroy@CContDamageCtrl@@AAEXXZ		; CContDamageCtrl::Destroy
PUBLIC	?ApplyDamage@CContDamageCtrl@@QAEXXZ		; CContDamageCtrl::ApplyDamage
PUBLIC	?Process@CContDamageCtrl@@UAEXXZ		; CContDamageCtrl::Process
PUBLIC	??_C@_0CK@PKEPCBJH@?$CFs?$MA?G?5SkillProp?5tmContinuousPain@ ; `string'
EXTRN	__imp__timeGetTime@0:PROC
EXTRN	?Error@@YAPBDPBDZZ:PROC				; Error
EXTRN	?Delete@CObj@@QAEXXZ:PROC			; CObj::Delete
EXTRN	?ApplySkillRegion@CCtrl@@QAEXABUD3DXVECTOR3@@HPAUItemProp@@PAUAddSkillProp@@_NHPAV1@H@Z:PROC ; CCtrl::ApplySkillRegion
EXTRN	?GetCtrl@CProject@@QAEPAVCCtrl@@K@Z:PROC	; CProject::GetCtrl
EXTRN	@__security_check_cookie@4:PROC
EXTRN	?prj@@3VCProject@@A:BYTE			; prj
EXTRN	?g_tmCurrent@@3KA:DWORD				; g_tmCurrent
EXTRN	___security_cookie:DWORD
;	COMDAT ??_C@_0CK@PKEPCBJH@?$CFs?$MA?G?5SkillProp?5tmContinuousPain@
CONST	SEGMENT
??_C@_0CK@PKEPCBJH@?$CFs?$MA?G?5SkillProp?5tmContinuousPain@ DB '%s', 0c0H
	DB	0c7H, ' SkillProp tmContinuousPain', 0c0H, 0c7H, ' ', 0b0H, 0aaH
	DB	0c0H, 0ccH, ' -1', 00H			; `string'
CONST	ENDS
; Function compile flags: /Ogtp
; File C:\IAGOS\server\v18\Source\Source\_Common\CtrlObjs.cpp
;	COMDAT ?Process@CContDamageCtrl@@UAEXXZ
_TEXT	SEGMENT
?Process@CContDamageCtrl@@UAEXXZ PROC			; CContDamageCtrl::Process, COMDAT
; _this$ = ecx

; 64   : {

  00000	56		 push	 esi
  00001	8b f1		 mov	 esi, ecx
  00003	57		 push	 edi

; 65   : 	ItemProp *pSkillProp = m_pSkillProp;

  00004	8b be 38 02 00
	00		 mov	 edi, DWORD PTR [esi+568]

; 66   : 	AddSkillProp *pAddSkillProp = m_pAddSkillProp;
; 67   : 	
; 68   : 	if( pSkillProp->tmContinuousPain == NULL_ID )

  0000a	83 bf 20 01 00
	00 ff		 cmp	 DWORD PTR [edi+288], -1
  00011	75 0f		 jne	 SHORT $LN2@Process

; 69   : 		Error( "%sРЧ SkillProp tmContinuousPainРЧ АЊРЬ -1", pSkillProp->dwID );

  00013	ff 37		 push	 DWORD PTR [edi]
  00015	68 00 00 00 00	 push	 OFFSET ??_C@_0CK@PKEPCBJH@?$CFs?$MA?G?5SkillProp?5tmContinuousPain@
  0001a	e8 00 00 00 00	 call	 ?Error@@YAPBDPBDZZ	; Error
  0001f	83 c4 08	 add	 esp, 8
$LN2@Process:

; 70   : 
; 71   : 	if( (int)(g_tmCurrent - m_tmUpdate) > (int)pSkillProp->tmContinuousPain )		// ДмРЇНУАЃРЬ СіГЊИщ

  00022	8b 0d 00 00 00
	00		 mov	 ecx, DWORD PTR ?g_tmCurrent@@3KA ; g_tmCurrent
  00028	8b c1		 mov	 eax, ecx
  0002a	2b 86 34 02 00
	00		 sub	 eax, DWORD PTR [esi+564]
  00030	3b 87 20 01 00
	00		 cmp	 eax, DWORD PTR [edi+288]
  00036	7e 13		 jle	 SHORT $LN3@Process

; 72   : 	{
; 73   : 		m_tmUpdate = g_tmCurrent;		// НУАЃ АЛНХЧЯАэ

  00038	89 8e 34 02 00
	00		 mov	 DWORD PTR [esi+564], ecx

; 74   : 		// СіМгЕЅЙЬСі УГИЎИІ РЬАїПЁ ГжРН.
; 75   : 		ApplyDamage();

  0003e	8b ce		 mov	 ecx, esi
  00040	e8 00 00 00 00	 call	 ?ApplyDamage@CContDamageCtrl@@QAEXXZ ; CContDamageCtrl::ApplyDamage
  00045	8b 0d 00 00 00
	00		 mov	 ecx, DWORD PTR ?g_tmCurrent@@3KA ; g_tmCurrent
$LN3@Process:

; 76   : 	}
; 77   : 
; 78   : 	if( (int)(g_tmCurrent - m_tmStart) > (int)m_pAddSkillProp->dwSkillTime )		// УбНУАЃРЬ СіГЊИщ ГЁ.

  0004b	8b 86 3c 02 00
	00		 mov	 eax, DWORD PTR [esi+572]
  00051	2b 8e 30 02 00
	00		 sub	 ecx, DWORD PTR [esi+560]
  00057	5f		 pop	 edi
  00058	3b 48 70	 cmp	 ecx, DWORD PTR [eax+112]
  0005b	7e 08		 jle	 SHORT $LN4@Process

; 79   : 		Delete();

  0005d	8b ce		 mov	 ecx, esi

; 80   : }

  0005f	5e		 pop	 esi

; 79   : 		Delete();

  00060	e9 00 00 00 00	 jmp	 ?Delete@CObj@@QAEXXZ	; CObj::Delete
$LN4@Process:

; 80   : }

  00065	5e		 pop	 esi
  00066	c3		 ret	 0
?Process@CContDamageCtrl@@UAEXXZ ENDP			; CContDamageCtrl::Process
_TEXT	ENDS
; Function compile flags: /Ogtp
; File C:\IAGOS\server\v18\Source\Source\_Common\CtrlObjs.cpp
; File C:\IAGOS\server\v18\Source\Source\_Common\Obj.h
; File C:\IAGOS\server\v18\Source\Source\_Common\CtrlObjs.cpp
; File C:\IAGOS\server\v18\Source\Source\_Common\Obj.h
; File C:\IAGOS\server\v18\Source\Source\_Common\CtrlObjs.cpp
; File C:\IAGOS\server\v18\Source\Source\_Common\Obj.h
; File C:\IAGOS\server\v18\Source\Source\_Common\CtrlObjs.cpp
; File C:\IAGOS\server\v18\Source\Source\_Common\Obj.h
; File C:\IAGOS\server\v18\Source\Source\_Common\CtrlObjs.cpp
;	COMDAT ?ApplyDamage@CContDamageCtrl@@QAEXXZ
_TEXT	SEGMENT
_pAddSkillProp$1$ = -20					; size = 4
_vPos$ = -16						; size = 12
__$ArrayPad$ = -4					; size = 4
?ApplyDamage@CContDamageCtrl@@QAEXXZ PROC		; CContDamageCtrl::ApplyDamage, COMDAT
; _this$ = ecx

; 35   : {

  00000	55		 push	 ebp
  00001	8b ec		 mov	 ebp, esp
  00003	83 ec 14	 sub	 esp, 20			; 00000014H
  00006	a1 00 00 00 00	 mov	 eax, DWORD PTR ___security_cookie
  0000b	33 c5		 xor	 eax, ebp
  0000d	89 45 fc	 mov	 DWORD PTR __$ArrayPad$[ebp], eax
  00010	53		 push	 ebx
  00011	56		 push	 esi
  00012	8b f1		 mov	 esi, ecx

; 36   : 	ItemProp *pSkillProp = m_pSkillProp;
; 37   : 	AddSkillProp *pAddSkillProp = m_pAddSkillProp;
; 38   : 	
; 39   : 	CCtrl *pSrc = prj.GetCtrl( m_idSrc );			// НУРќРк.  СпАЃПЁ ОјОюСњМіЕЕ РжНП.

  00014	b9 00 00 00 00	 mov	 ecx, OFFSET ?prj@@3VCProject@@A ; prj
  00019	57		 push	 edi
  0001a	8b 86 3c 02 00
	00		 mov	 eax, DWORD PTR [esi+572]
  00020	ff b6 40 02 00
	00		 push	 DWORD PTR [esi+576]
  00026	8b 9e 38 02 00
	00		 mov	 ebx, DWORD PTR [esi+568]
  0002c	89 45 ec	 mov	 DWORD PTR _pAddSkillProp$1$[ebp], eax
  0002f	e8 00 00 00 00	 call	 ?GetCtrl@CProject@@QAEPAVCCtrl@@K@Z ; CProject::GetCtrl
  00034	8b f8		 mov	 edi, eax
; File C:\IAGOS\server\v18\Source\Source\_Common\Obj.h

; 327  : 	return pObj && ( pObj->IsDelete() == FALSE ); 

  00036	85 ff		 test	 edi, edi
  00038	74 74		 je	 SHORT $LN15@ApplyDamag

; 180  : 	BOOL			IsDelete()	{ return (m_dwFlags & OBJ_FLAG_DELETE);  }

  0003a	f6 47 04 01	 test	 BYTE PTR [edi+4], 1

; 327  : 	return pObj && ( pObj->IsDelete() == FALSE ); 

  0003e	75 6e		 jne	 SHORT $LN15@ApplyDamag
; File C:\IAGOS\server\v18\Source\Source\_Common\CtrlObjs.cpp

; 48   : 	if( pSrc->GetType() == OT_MOVER && !((CMover*)pSrc)->m_nDuel && m_bDuelTarget )

  00040	83 bf 70 01 00
	00 05		 cmp	 DWORD PTR [edi+368], 5
  00047	75 12		 jne	 SHORT $LN3@ApplyDamag
  00049	83 bf 3c 07 00
	00 00		 cmp	 DWORD PTR [edi+1852], 0
  00050	75 09		 jne	 SHORT $LN3@ApplyDamag
  00052	83 be 4c 02 00
	00 00		 cmp	 DWORD PTR [esi+588], 0
  00059	75 5a		 jne	 SHORT $LN1@ApplyDamag
$LN3@ApplyDamag:

; 49   : 		return;
; 50   : 	
; 51   : 	CCtrl *pCenter = prj.GetCtrl( m_idTarget );		// СпНЩРЬ ЕЧДТ ПРКъСЇЦЎ.  СпАЃПЁ ОјОюСњМіЕЕ РжНП.

  0005b	ff b6 44 02 00
	00		 push	 DWORD PTR [esi+580]
  00061	b9 00 00 00 00	 mov	 ecx, OFFSET ?prj@@3VCProject@@A ; prj
  00066	e8 00 00 00 00	 call	 ?GetCtrl@CProject@@QAEPAVCCtrl@@K@Z ; CProject::GetCtrl

; 56   : 	pSrc->ApplySkillRegion( vPos, nApplyType, pSkillProp, pAddSkillProp, false, TRUE, pCenter, m_bControl );

  0006b	ff b6 48 02 00
	00		 push	 DWORD PTR [esi+584]
; File C:\IAGOS\server\v18\Source\Source\_Common\Obj.h

; 215  : 	D3DXVECTOR3		GetPos()	{ return m_vPos; }

  00071	8b 8e 68 01 00
	00		 mov	 ecx, DWORD PTR [esi+360]
  00077	f3 0f 7e 86 60
	01 00 00	 movq	 xmm0, QWORD PTR [esi+352]
; File C:\IAGOS\server\v18\Source\Source\_Common\CtrlObjs.cpp

; 56   : 	pSrc->ApplySkillRegion( vPos, nApplyType, pSkillProp, pAddSkillProp, false, TRUE, pCenter, m_bControl );

  0007f	50		 push	 eax
  00080	6a 01		 push	 1
  00082	6a 00		 push	 0
  00084	ff 75 ec	 push	 DWORD PTR _pAddSkillProp$1$[ebp]
  00087	8d 45 f0	 lea	 eax, DWORD PTR _vPos$[ebp]
; File C:\IAGOS\server\v18\Source\Source\_Common\Obj.h

; 215  : 	D3DXVECTOR3		GetPos()	{ return m_vPos; }

  0008a	89 4d f8	 mov	 DWORD PTR _vPos$[ebp+8], ecx
; File C:\IAGOS\server\v18\Source\Source\_Common\CtrlObjs.cpp

; 56   : 	pSrc->ApplySkillRegion( vPos, nApplyType, pSkillProp, pAddSkillProp, false, TRUE, pCenter, m_bControl );

  0008d	53		 push	 ebx
  0008e	6a 03		 push	 3
  00090	50		 push	 eax
  00091	8b cf		 mov	 ecx, edi
; File C:\IAGOS\server\v18\Source\Source\_Common\Obj.h

; 215  : 	D3DXVECTOR3		GetPos()	{ return m_vPos; }

  00093	66 0f d6 45 f0	 movq	 QWORD PTR _vPos$[ebp], xmm0
; File C:\IAGOS\server\v18\Source\Source\_Common\CtrlObjs.cpp

; 56   : 	pSrc->ApplySkillRegion( vPos, nApplyType, pSkillProp, pAddSkillProp, false, TRUE, pCenter, m_bControl );

  00098	e8 00 00 00 00	 call	 ?ApplySkillRegion@CCtrl@@QAEXABUD3DXVECTOR3@@HPAUItemProp@@PAUAddSkillProp@@_NHPAV1@H@Z ; CCtrl::ApplySkillRegion
  0009d	5f		 pop	 edi

; 57   : #else // __VER >= 8 // __S8_PK
; 58   : 	pSrc->ApplySkillRegion( vPos, nApplyType, pSkillProp, pAddSkillProp, false, TRUE, pCenter );
; 59   : #endif // __VER >= 8 // __S8_PK
; 60   : }

  0009e	5e		 pop	 esi
  0009f	5b		 pop	 ebx
  000a0	8b 4d fc	 mov	 ecx, DWORD PTR __$ArrayPad$[ebp]
  000a3	33 cd		 xor	 ecx, ebp
  000a5	e8 00 00 00 00	 call	 @__security_check_cookie@4
  000aa	8b e5		 mov	 esp, ebp
  000ac	5d		 pop	 ebp
  000ad	c3		 ret	 0
$LN15@ApplyDamag:

; 40   : 	if( IsInvalidObj(pSrc) )
; 41   : 	{
; 42   : 		// РЬЖЇ УГИЎИІ ЧиОпЧбДй.
; 43   : 		Delete();

  000ae	8b ce		 mov	 ecx, esi
  000b0	e8 00 00 00 00	 call	 ?Delete@CObj@@QAEXXZ	; CObj::Delete
$LN1@ApplyDamag:

; 57   : #else // __VER >= 8 // __S8_PK
; 58   : 	pSrc->ApplySkillRegion( vPos, nApplyType, pSkillProp, pAddSkillProp, false, TRUE, pCenter );
; 59   : #endif // __VER >= 8 // __S8_PK
; 60   : }

  000b5	8b 4d fc	 mov	 ecx, DWORD PTR __$ArrayPad$[ebp]
  000b8	5f		 pop	 edi
  000b9	5e		 pop	 esi
  000ba	33 cd		 xor	 ecx, ebp
  000bc	5b		 pop	 ebx
  000bd	e8 00 00 00 00	 call	 @__security_check_cookie@4
  000c2	8b e5		 mov	 esp, ebp
  000c4	5d		 pop	 ebp
  000c5	c3		 ret	 0
?ApplyDamage@CContDamageCtrl@@QAEXXZ ENDP		; CContDamageCtrl::ApplyDamage
_TEXT	ENDS
; Function compile flags: /Ogtp
; File C:\IAGOS\server\v18\Source\Source\_Common\CtrlObjs.cpp
;	COMDAT ?Destroy@CContDamageCtrl@@AAEXXZ
_TEXT	SEGMENT
?Destroy@CContDamageCtrl@@AAEXXZ PROC			; CContDamageCtrl::Destroy, COMDAT
; _this$ = ecx

; 31   : 	Init();

  00000	e9 00 00 00 00	 jmp	 ?Init@CContDamageCtrl@@AAEXXZ ; CContDamageCtrl::Init
?Destroy@CContDamageCtrl@@AAEXXZ ENDP			; CContDamageCtrl::Destroy
_TEXT	ENDS
; Function compile flags: /Ogtp
; File C:\IAGOS\server\v18\Source\Source\_Common\CtrlObjs.cpp
;	COMDAT ?Init@CContDamageCtrl@@AAEXXZ
_TEXT	SEGMENT
?Init@CContDamageCtrl@@AAEXXZ PROC			; CContDamageCtrl::Init, COMDAT
; _this$ = ecx

; 17   : {

  00000	56		 push	 esi
  00001	8b f1		 mov	 esi, ecx

; 18   : 	m_tmStart = m_tmUpdate = timeGetTime();

  00003	ff 15 00 00 00
	00		 call	 DWORD PTR __imp__timeGetTime@0
  00009	89 86 34 02 00
	00		 mov	 DWORD PTR [esi+564], eax
  0000f	89 86 30 02 00
	00		 mov	 DWORD PTR [esi+560], eax

; 19   : 	m_pSkillProp = NULL;

  00015	c7 86 38 02 00
	00 00 00 00 00	 mov	 DWORD PTR [esi+568], 0

; 20   : 	m_pAddSkillProp = NULL;

  0001f	c7 86 3c 02 00
	00 00 00 00 00	 mov	 DWORD PTR [esi+572], 0

; 21   : 	m_idTarget = m_idSrc = NULL_ID;

  00029	c7 86 40 02 00
	00 ff ff ff ff	 mov	 DWORD PTR [esi+576], -1
  00033	c7 86 44 02 00
	00 ff ff ff ff	 mov	 DWORD PTR [esi+580], -1

; 22   : #if __VER >= 8 // __S8_PK
; 23   : 	m_bControl = FALSE;

  0003d	c7 86 48 02 00
	00 00 00 00 00	 mov	 DWORD PTR [esi+584], 0

; 24   : #endif // __VER >= 8 // __S8_PK
; 25   : 	// chipi - ЙќРЇ ctrl Л§МК НКХГЗЮ РЮЧи ЕрОѓ СОЗс ШФ ФЋПРЕЧДТ ЧіЛѓ МіСЄ
; 26   : 	m_bDuelTarget = FALSE;

  00047	c7 86 4c 02 00
	00 00 00 00 00	 mov	 DWORD PTR [esi+588], 0
  00051	5e		 pop	 esi

; 27   : }

  00052	c3		 ret	 0
?Init@CContDamageCtrl@@AAEXXZ ENDP			; CContDamageCtrl::Init
_TEXT	ENDS
; Function compile flags: /Ogtp
; File C:\IAGOS\server\v18\Source\Source\_Common\CtrlObjs.cpp
;	COMDAT ?__empty_global_delete@@YAXPAXI@Z
_TEXT	SEGMENT
___formal$ = 8						; size = 4
___formal$ = 12						; size = 4
?__empty_global_delete@@YAXPAXI@Z PROC			; __empty_global_delete, COMDAT

  00000	c2 00 00	 ret	 0
?__empty_global_delete@@YAXPAXI@Z ENDP			; __empty_global_delete
_TEXT	ENDS
; Function compile flags: /Ogtp
; File C:\IAGOS\server\v18\Source\Source\_Common\CtrlObjs.cpp
;	COMDAT ?__empty_global_delete@@YAXPAX@Z
_TEXT	SEGMENT
___formal$ = 8						; size = 4
?__empty_global_delete@@YAXPAX@Z PROC			; __empty_global_delete, COMDAT

  00000	c2 00 00	 ret	 0
?__empty_global_delete@@YAXPAX@Z ENDP			; __empty_global_delete
_TEXT	ENDS
END
