; Listing generated by Microsoft (R) Optimizing Compiler Version 19.44.35225.0 

	TITLE	C:\IAGOS\server\v18\Source\Output\WorldServer\Release\d3dutil.obj
	.686P
	.XMM
	include listing.inc
	.model	flat

INCLUDELIB LIBCMT
INCLUDELIB OLDNAMES

PUBLIC	?__empty_global_delete@@YAXPAX@Z		; __empty_global_delete
PUBLIC	?__empty_global_delete@@YAXPAXI@Z		; __empty_global_delete
PUBLIC	??0D3DXVECTOR3@@QAE@XZ				; D3DXVECTOR3::D3DXVECTOR3
PUBLIC	?D3DUtil_InitMaterial@@YAXAAU_D3DMATERIAL9@@MMMM@Z ; D3DUtil_InitMaterial
PUBLIC	?D3DUtil_InitLight@@YAXAAU_D3DLIGHT9@@W4_D3DLIGHTTYPE@@MMM@Z ; D3DUtil_InitLight
PUBLIC	?D3DUtil_CreateTexture@@YAJPAUIDirect3DDevice9@@PBDPAPAUIDirect3DTexture9@@W4_D3DFORMAT@@@Z ; D3DUtil_CreateTexture
PUBLIC	?D3DUtil_GetCubeMapViewMatrix@@YA?AUD3DXMATRIX@@K@Z ; D3DUtil_GetCubeMapViewMatrix
PUBLIC	?D3DUtil_GetRotationFromCursor@@YA?AUD3DXQUATERNION@@PAUHWND__@@M@Z ; D3DUtil_GetRotationFromCursor
PUBLIC	?D3DUtil_SetDeviceCursor@@YAJPAUIDirect3DDevice9@@PAUHICON__@@H@Z ; D3DUtil_SetDeviceCursor
PUBLIC	?D3DUtil_D3DFormatToString@@YAPADW4_D3DFORMAT@@_N@Z ; D3DUtil_D3DFormatToString
PUBLIC	?ScreenToVector@CD3DArcBall@@AAE?AUD3DXVECTOR3@@HH@Z ; CD3DArcBall::ScreenToVector
PUBLIC	?HandleMouseMessages@CD3DArcBall@@QAEJPAUHWND__@@IIJ@Z ; CD3DArcBall::HandleMouseMessages
PUBLIC	?SetRadius@CD3DArcBall@@QAEXM@Z			; CD3DArcBall::SetRadius
PUBLIC	?SetWindow@CD3DArcBall@@QAEXHHM@Z		; CD3DArcBall::SetWindow
PUBLIC	??0CD3DArcBall@@QAE@XZ				; CD3DArcBall::CD3DArcBall
PUBLIC	?Init@CD3DArcBall@@QAEXXZ			; CD3DArcBall::Init
PUBLIC	?SetViewParams@CD3DCamera@@QAEXAAUD3DXVECTOR3@@00@Z ; CD3DCamera::SetViewParams
PUBLIC	?SetProjParams@CD3DCamera@@QAEXMMMM@Z		; CD3DCamera::SetProjParams
PUBLIC	??0CD3DCamera@@QAE@XZ				; CD3DCamera::CD3DCamera
PUBLIC	??_C@_0P@FCGOGLON@D3DFMT_UNKNOWN@		; `string'
PUBLIC	??_C@_0O@OOCIJBAM@D3DFMT_R8G8B8@		; `string'
PUBLIC	??_C@_0BA@CHHHKFAO@D3DFMT_A8R8G8B8@		; `string'
PUBLIC	??_C@_0BA@CHBEFBCE@D3DFMT_X8R8G8B8@		; `string'
PUBLIC	??_C@_0O@HMHILKM@D3DFMT_R5G6B5@			; `string'
PUBLIC	??_C@_0BA@MDABPPEB@D3DFMT_X1R5G5B5@		; `string'
PUBLIC	??_C@_0BA@MDGCALGL@D3DFMT_A1R5G5B5@		; `string'
PUBLIC	??_C@_0BA@OBHJIAIO@D3DFMT_A4R4G4B4@		; `string'
PUBLIC	??_C@_0O@KJABAOEE@D3DFMT_R3G3B2@		; `string'
PUBLIC	??_C@_09JNGIHEFB@D3DFMT_A8@			; `string'
PUBLIC	??_C@_0BA@GAFODKEG@D3DFMT_A8R3G3B2@		; `string'
PUBLIC	??_C@_0BA@OBBKHEKE@D3DFMT_X4R4G4B4@		; `string'
PUBLIC	??_C@_0BD@OELFJMLB@D3DFMT_A2B10G10R10@		; `string'
PUBLIC	??_C@_0BA@FMIPJKLA@D3DFMT_A8B8G8R8@		; `string'
PUBLIC	??_C@_0BA@FMOMGOJK@D3DFMT_X8B8G8R8@		; `string'
PUBLIC	??_C@_0O@KENMFGDC@D3DFMT_G16R16@		; `string'
PUBLIC	??_C@_0BD@JDACEKMG@D3DFMT_A2R10G10B10@		; `string'
PUBLIC	??_C@_0BE@GGADDKEH@D3DFMT_A16B16G16R16@		; `string'
PUBLIC	??_C@_0M@IPOLNGBD@D3DFMT_A8P8@			; `string'
PUBLIC	??_C@_09IAIMLNBG@D3DFMT_P8@			; `string'
PUBLIC	??_C@_09JFLAOHAC@D3DFMT_L8@			; `string'
PUBLIC	??_C@_0M@JKNHIMAH@D3DFMT_A8L8@			; `string'
PUBLIC	??_C@_0M@HMLEHMLD@D3DFMT_A4L4@			; `string'
PUBLIC	??_C@_0M@FLOAFPGK@D3DFMT_V8U8@			; `string'
PUBLIC	??_C@_0O@OAOOLKLI@D3DFMT_L6V5U5@		; `string'
PUBLIC	??_C@_0BA@FEBMLNHA@D3DFMT_X8L8V8U8@		; `string'
PUBLIC	??_C@_0BA@JNGGMDBP@D3DFMT_Q8W8V8U8@		; `string'
PUBLIC	??_C@_0O@PIKCPJPB@D3DFMT_V16U16@		; `string'
PUBLIC	??_C@_0BD@HJEMHJNO@D3DFMT_A2W10V10U10@		; `string'
PUBLIC	??_C@_0M@OBHKFBGD@D3DFMT_UYVY@			; `string'
PUBLIC	??_C@_0M@ODAJPGIL@D3DFMT_YUY2@			; `string'
PUBLIC	??_C@_0M@KKOGLNPF@D3DFMT_DXT1@			; `string'
PUBLIC	??_C@_0M@IBMLOODG@D3DFMT_DXT2@			; `string'
PUBLIC	??_C@_0M@JINANPHH@D3DFMT_DXT3@			; `string'
PUBLIC	??_C@_0M@NHJBEJLA@D3DFMT_DXT4@			; `string'
PUBLIC	??_C@_0M@MOIKHIPB@D3DFMT_DXT5@			; `string'
PUBLIC	??_C@_0BE@GKJJNPH@D3DFMT_D16_LOCKABLE@		; `string'
PUBLIC	??_C@_0L@MKAKECLE@D3DFMT_D32@			; `string'
PUBLIC	??_C@_0N@FHMLHNII@D3DFMT_D15S1@			; `string'
PUBLIC	??_C@_0N@HJBFNLHE@D3DFMT_D24S8@			; `string'
PUBLIC	??_C@_0N@HFEADEJF@D3DFMT_D24X8@			; `string'
PUBLIC	??_C@_0P@LCIECDAM@D3DFMT_D24X4S4@		; `string'
PUBLIC	??_C@_0L@KNOCFDNO@D3DFMT_D16@			; `string'
PUBLIC	??_C@_0L@GIFGHLDB@D3DFMT_L16@			; `string'
PUBLIC	??_C@_0BC@LPMKMLOH@D3DFMT_VERTEXDATA@		; `string'
PUBLIC	??_C@_0P@JJIOOHAH@D3DFMT_INDEX16@		; `string'
PUBLIC	??_C@_0P@POGGPGGN@D3DFMT_INDEX32@		; `string'
PUBLIC	??_C@_0BE@EPPNHJPC@D3DFMT_Q16W16V16U16@		; `string'
PUBLIC	??_C@_0BE@LCLDBCOL@D3DFMT_MULTI2_ARGB8@		; `string'
PUBLIC	??_C@_0M@CIEFJHCB@D3DFMT_R16F@			; `string'
PUBLIC	??_C@_0P@GOFAGFFF@D3DFMT_G16R16F@		; `string'
PUBLIC	??_C@_0BF@EOPNDPIK@D3DFMT_A16B16G16R16F@	; `string'
PUBLIC	??_C@_0M@IFEFPHHG@D3DFMT_R32F@			; `string'
PUBLIC	??_C@_0P@MPFOFGDN@D3DFMT_G32R32F@		; `string'
PUBLIC	??_C@_0BF@NFLAADOH@D3DFMT_A32B32G32R32F@	; `string'
PUBLIC	??_C@_0O@GEDAAHNN@D3DFMT_CxV8U8@		; `string'
PUBLIC	??_C@_0P@BJJPCHFI@Unknown?5format@		; `string'
PUBLIC	??_C@_07NCBDPBMK@D3DFMT_@			; `string'
PUBLIC	__real@3f000000
PUBLIC	__real@3f800000
PUBLIC	__real@3fe6a09e667f3bcd
PUBLIC	__real@40a00000
PUBLIC	__real@bf800000
PUBLIC	__real@c0000000
PUBLIC	__xmm@80000000800000008000000080000000
EXTRN	??_U@YAPAXI@Z:PROC				; operator new[]
EXTRN	??_V@YAXPAX@Z:PROC				; operator delete[]
EXTRN	__imp__lstrlenA@4:PROC
EXTRN	__imp__CreateCompatibleDC@4:PROC
EXTRN	__imp__DeleteDC@4:PROC
EXTRN	__imp__DeleteObject@4:PROC
EXTRN	__imp__GetDIBits@28:PROC
EXTRN	__imp__SelectObject@8:PROC
EXTRN	__imp__GetObjectA@12:PROC
EXTRN	__imp__GetDC@4:PROC
EXTRN	__imp__ReleaseDC@8:PROC
EXTRN	__imp__GetClientRect@8:PROC
EXTRN	__imp__GetCursorPos@4:PROC
EXTRN	__imp__ScreenToClient@8:PROC
EXTRN	__imp__GetIconInfo@8:PROC
EXTRN	__mbsstr:PROC
EXTRN	_D3DXVec3Normalize@8:PROC
EXTRN	_D3DXMatrixMultiply@12:PROC
EXTRN	_D3DXMatrixInverse@12:PROC
EXTRN	_D3DXMatrixTranslation@16:PROC
EXTRN	_D3DXMatrixRotationQuaternion@8:PROC
EXTRN	_D3DXMatrixLookAtLH@16:PROC
EXTRN	_D3DXMatrixPerspectiveFovLH@20:PROC
EXTRN	_D3DXQuaternionRotationAxis@12:PROC
EXTRN	_D3DXQuaternionMultiply@12:PROC
EXTRN	@__security_check_cookie@4:PROC
EXTRN	__libm_sse2_asin_precise:PROC
EXTRN	__libm_sse2_sqrt_precise:PROC
EXTRN	_memset:PROC
EXTRN	___security_cookie:DWORD
EXTRN	__fltused:DWORD
EXTRN	__tls_array:DWORD
EXTRN	__tls_index:DWORD
;	COMDAT ?iCurMouseX@?1??HandleMouseMessages@CD3DArcBall@@QAEJPAUHWND__@@IIJ@Z@4HA
_BSS	SEGMENT
?iCurMouseX@?1??HandleMouseMessages@CD3DArcBall@@QAEJPAUHWND__@@IIJ@Z@4HA DD 01H DUP (?) ; `CD3DArcBall::HandleMouseMessages'::`2'::iCurMouseX
_BSS	ENDS
;	COMDAT ?iCurMouseY@?1??HandleMouseMessages@CD3DArcBall@@QAEJPAUHWND__@@IIJ@Z@4HA
_BSS	SEGMENT
?iCurMouseY@?1??HandleMouseMessages@CD3DArcBall@@QAEJPAUHWND__@@IIJ@Z@4HA DD 01H DUP (?) ; `CD3DArcBall::HandleMouseMessages'::`2'::iCurMouseY
_BSS	ENDS
;	COMDAT ?s_vDown@?1??HandleMouseMessages@CD3DArcBall@@QAEJPAUHWND__@@IIJ@Z@4UD3DXVECTOR3@@A
_BSS	SEGMENT
?s_vDown@?1??HandleMouseMessages@CD3DArcBall@@QAEJPAUHWND__@@IIJ@Z@4UD3DXVECTOR3@@A DB 0cH DUP (?) ; `CD3DArcBall::HandleMouseMessages'::`2'::s_vDown
_BSS	ENDS
;	COMDAT __xmm@80000000800000008000000080000000
CONST	SEGMENT
__xmm@80000000800000008000000080000000 DB 00H, 00H, 00H, 080H, 00H, 00H, 00H
	DB	080H, 00H, 00H, 00H, 080H, 00H, 00H, 00H, 080H
CONST	ENDS
;	COMDAT __real@c0000000
CONST	SEGMENT
__real@c0000000 DD 0c0000000r			; -2
CONST	ENDS
;	COMDAT __real@bf800000
CONST	SEGMENT
__real@bf800000 DD 0bf800000r			; -1
CONST	ENDS
;	COMDAT __real@40a00000
CONST	SEGMENT
__real@40a00000 DD 040a00000r			; 5
CONST	ENDS
;	COMDAT __real@3fe6a09e667f3bcd
CONST	SEGMENT
__real@3fe6a09e667f3bcd DQ 03fe6a09e667f3bcdr	; 0.707107
CONST	ENDS
;	COMDAT __real@3f800000
CONST	SEGMENT
__real@3f800000 DD 03f800000r			; 1
CONST	ENDS
;	COMDAT __real@3f000000
CONST	SEGMENT
__real@3f000000 DD 03f000000r			; 0.5
CONST	ENDS
;	COMDAT ??_C@_07NCBDPBMK@D3DFMT_@
CONST	SEGMENT
??_C@_07NCBDPBMK@D3DFMT_@ DB 'D3DFMT_', 00H		; `string'
CONST	ENDS
;	COMDAT ??_C@_0P@BJJPCHFI@Unknown?5format@
CONST	SEGMENT
??_C@_0P@BJJPCHFI@Unknown?5format@ DB 'Unknown format', 00H ; `string'
CONST	ENDS
;	COMDAT ??_C@_0O@GEDAAHNN@D3DFMT_CxV8U8@
CONST	SEGMENT
??_C@_0O@GEDAAHNN@D3DFMT_CxV8U8@ DB 'D3DFMT_CxV8U8', 00H ; `string'
CONST	ENDS
;	COMDAT ??_C@_0BF@NFLAADOH@D3DFMT_A32B32G32R32F@
CONST	SEGMENT
??_C@_0BF@NFLAADOH@D3DFMT_A32B32G32R32F@ DB 'D3DFMT_A32B32G32R32F', 00H ; `string'
CONST	ENDS
;	COMDAT ??_C@_0P@MPFOFGDN@D3DFMT_G32R32F@
CONST	SEGMENT
??_C@_0P@MPFOFGDN@D3DFMT_G32R32F@ DB 'D3DFMT_G32R32F', 00H ; `string'
CONST	ENDS
;	COMDAT ??_C@_0M@IFEFPHHG@D3DFMT_R32F@
CONST	SEGMENT
??_C@_0M@IFEFPHHG@D3DFMT_R32F@ DB 'D3DFMT_R32F', 00H	; `string'
CONST	ENDS
;	COMDAT ??_C@_0BF@EOPNDPIK@D3DFMT_A16B16G16R16F@
CONST	SEGMENT
??_C@_0BF@EOPNDPIK@D3DFMT_A16B16G16R16F@ DB 'D3DFMT_A16B16G16R16F', 00H ; `string'
CONST	ENDS
;	COMDAT ??_C@_0P@GOFAGFFF@D3DFMT_G16R16F@
CONST	SEGMENT
??_C@_0P@GOFAGFFF@D3DFMT_G16R16F@ DB 'D3DFMT_G16R16F', 00H ; `string'
CONST	ENDS
;	COMDAT ??_C@_0M@CIEFJHCB@D3DFMT_R16F@
CONST	SEGMENT
??_C@_0M@CIEFJHCB@D3DFMT_R16F@ DB 'D3DFMT_R16F', 00H	; `string'
CONST	ENDS
;	COMDAT ??_C@_0BE@LCLDBCOL@D3DFMT_MULTI2_ARGB8@
CONST	SEGMENT
??_C@_0BE@LCLDBCOL@D3DFMT_MULTI2_ARGB8@ DB 'D3DFMT_MULTI2_ARGB8', 00H ; `string'
CONST	ENDS
;	COMDAT ??_C@_0BE@EPPNHJPC@D3DFMT_Q16W16V16U16@
CONST	SEGMENT
??_C@_0BE@EPPNHJPC@D3DFMT_Q16W16V16U16@ DB 'D3DFMT_Q16W16V16U16', 00H ; `string'
CONST	ENDS
;	COMDAT ??_C@_0P@POGGPGGN@D3DFMT_INDEX32@
CONST	SEGMENT
??_C@_0P@POGGPGGN@D3DFMT_INDEX32@ DB 'D3DFMT_INDEX32', 00H ; `string'
CONST	ENDS
;	COMDAT ??_C@_0P@JJIOOHAH@D3DFMT_INDEX16@
CONST	SEGMENT
??_C@_0P@JJIOOHAH@D3DFMT_INDEX16@ DB 'D3DFMT_INDEX16', 00H ; `string'
CONST	ENDS
;	COMDAT ??_C@_0BC@LPMKMLOH@D3DFMT_VERTEXDATA@
CONST	SEGMENT
??_C@_0BC@LPMKMLOH@D3DFMT_VERTEXDATA@ DB 'D3DFMT_VERTEXDATA', 00H ; `string'
CONST	ENDS
;	COMDAT ??_C@_0L@GIFGHLDB@D3DFMT_L16@
CONST	SEGMENT
??_C@_0L@GIFGHLDB@D3DFMT_L16@ DB 'D3DFMT_L16', 00H	; `string'
CONST	ENDS
;	COMDAT ??_C@_0L@KNOCFDNO@D3DFMT_D16@
CONST	SEGMENT
??_C@_0L@KNOCFDNO@D3DFMT_D16@ DB 'D3DFMT_D16', 00H	; `string'
CONST	ENDS
;	COMDAT ??_C@_0P@LCIECDAM@D3DFMT_D24X4S4@
CONST	SEGMENT
??_C@_0P@LCIECDAM@D3DFMT_D24X4S4@ DB 'D3DFMT_D24X4S4', 00H ; `string'
CONST	ENDS
;	COMDAT ??_C@_0N@HFEADEJF@D3DFMT_D24X8@
CONST	SEGMENT
??_C@_0N@HFEADEJF@D3DFMT_D24X8@ DB 'D3DFMT_D24X8', 00H	; `string'
CONST	ENDS
;	COMDAT ??_C@_0N@HJBFNLHE@D3DFMT_D24S8@
CONST	SEGMENT
??_C@_0N@HJBFNLHE@D3DFMT_D24S8@ DB 'D3DFMT_D24S8', 00H	; `string'
CONST	ENDS
;	COMDAT ??_C@_0N@FHMLHNII@D3DFMT_D15S1@
CONST	SEGMENT
??_C@_0N@FHMLHNII@D3DFMT_D15S1@ DB 'D3DFMT_D15S1', 00H	; `string'
CONST	ENDS
;	COMDAT ??_C@_0L@MKAKECLE@D3DFMT_D32@
CONST	SEGMENT
??_C@_0L@MKAKECLE@D3DFMT_D32@ DB 'D3DFMT_D32', 00H	; `string'
CONST	ENDS
;	COMDAT ??_C@_0BE@GKJJNPH@D3DFMT_D16_LOCKABLE@
CONST	SEGMENT
??_C@_0BE@GKJJNPH@D3DFMT_D16_LOCKABLE@ DB 'D3DFMT_D16_LOCKABLE', 00H ; `string'
CONST	ENDS
;	COMDAT ??_C@_0M@MOIKHIPB@D3DFMT_DXT5@
CONST	SEGMENT
??_C@_0M@MOIKHIPB@D3DFMT_DXT5@ DB 'D3DFMT_DXT5', 00H	; `string'
CONST	ENDS
;	COMDAT ??_C@_0M@NHJBEJLA@D3DFMT_DXT4@
CONST	SEGMENT
??_C@_0M@NHJBEJLA@D3DFMT_DXT4@ DB 'D3DFMT_DXT4', 00H	; `string'
CONST	ENDS
;	COMDAT ??_C@_0M@JINANPHH@D3DFMT_DXT3@
CONST	SEGMENT
??_C@_0M@JINANPHH@D3DFMT_DXT3@ DB 'D3DFMT_DXT3', 00H	; `string'
CONST	ENDS
;	COMDAT ??_C@_0M@IBMLOODG@D3DFMT_DXT2@
CONST	SEGMENT
??_C@_0M@IBMLOODG@D3DFMT_DXT2@ DB 'D3DFMT_DXT2', 00H	; `string'
CONST	ENDS
;	COMDAT ??_C@_0M@KKOGLNPF@D3DFMT_DXT1@
CONST	SEGMENT
??_C@_0M@KKOGLNPF@D3DFMT_DXT1@ DB 'D3DFMT_DXT1', 00H	; `string'
CONST	ENDS
;	COMDAT ??_C@_0M@ODAJPGIL@D3DFMT_YUY2@
CONST	SEGMENT
??_C@_0M@ODAJPGIL@D3DFMT_YUY2@ DB 'D3DFMT_YUY2', 00H	; `string'
CONST	ENDS
;	COMDAT ??_C@_0M@OBHKFBGD@D3DFMT_UYVY@
CONST	SEGMENT
??_C@_0M@OBHKFBGD@D3DFMT_UYVY@ DB 'D3DFMT_UYVY', 00H	; `string'
CONST	ENDS
;	COMDAT ??_C@_0BD@HJEMHJNO@D3DFMT_A2W10V10U10@
CONST	SEGMENT
??_C@_0BD@HJEMHJNO@D3DFMT_A2W10V10U10@ DB 'D3DFMT_A2W10V10U10', 00H ; `string'
CONST	ENDS
;	COMDAT ??_C@_0O@PIKCPJPB@D3DFMT_V16U16@
CONST	SEGMENT
??_C@_0O@PIKCPJPB@D3DFMT_V16U16@ DB 'D3DFMT_V16U16', 00H ; `string'
CONST	ENDS
;	COMDAT ??_C@_0BA@JNGGMDBP@D3DFMT_Q8W8V8U8@
CONST	SEGMENT
??_C@_0BA@JNGGMDBP@D3DFMT_Q8W8V8U8@ DB 'D3DFMT_Q8W8V8U8', 00H ; `string'
CONST	ENDS
;	COMDAT ??_C@_0BA@FEBMLNHA@D3DFMT_X8L8V8U8@
CONST	SEGMENT
??_C@_0BA@FEBMLNHA@D3DFMT_X8L8V8U8@ DB 'D3DFMT_X8L8V8U8', 00H ; `string'
CONST	ENDS
;	COMDAT ??_C@_0O@OAOOLKLI@D3DFMT_L6V5U5@
CONST	SEGMENT
??_C@_0O@OAOOLKLI@D3DFMT_L6V5U5@ DB 'D3DFMT_L6V5U5', 00H ; `string'
CONST	ENDS
;	COMDAT ??_C@_0M@FLOAFPGK@D3DFMT_V8U8@
CONST	SEGMENT
??_C@_0M@FLOAFPGK@D3DFMT_V8U8@ DB 'D3DFMT_V8U8', 00H	; `string'
CONST	ENDS
;	COMDAT ??_C@_0M@HMLEHMLD@D3DFMT_A4L4@
CONST	SEGMENT
??_C@_0M@HMLEHMLD@D3DFMT_A4L4@ DB 'D3DFMT_A4L4', 00H	; `string'
CONST	ENDS
;	COMDAT ??_C@_0M@JKNHIMAH@D3DFMT_A8L8@
CONST	SEGMENT
??_C@_0M@JKNHIMAH@D3DFMT_A8L8@ DB 'D3DFMT_A8L8', 00H	; `string'
CONST	ENDS
;	COMDAT ??_C@_09JFLAOHAC@D3DFMT_L8@
CONST	SEGMENT
??_C@_09JFLAOHAC@D3DFMT_L8@ DB 'D3DFMT_L8', 00H		; `string'
CONST	ENDS
;	COMDAT ??_C@_09IAIMLNBG@D3DFMT_P8@
CONST	SEGMENT
??_C@_09IAIMLNBG@D3DFMT_P8@ DB 'D3DFMT_P8', 00H		; `string'
CONST	ENDS
;	COMDAT ??_C@_0M@IPOLNGBD@D3DFMT_A8P8@
CONST	SEGMENT
??_C@_0M@IPOLNGBD@D3DFMT_A8P8@ DB 'D3DFMT_A8P8', 00H	; `string'
CONST	ENDS
;	COMDAT ??_C@_0BE@GGADDKEH@D3DFMT_A16B16G16R16@
CONST	SEGMENT
??_C@_0BE@GGADDKEH@D3DFMT_A16B16G16R16@ DB 'D3DFMT_A16B16G16R16', 00H ; `string'
CONST	ENDS
;	COMDAT ??_C@_0BD@JDACEKMG@D3DFMT_A2R10G10B10@
CONST	SEGMENT
??_C@_0BD@JDACEKMG@D3DFMT_A2R10G10B10@ DB 'D3DFMT_A2R10G10B10', 00H ; `string'
CONST	ENDS
;	COMDAT ??_C@_0O@KENMFGDC@D3DFMT_G16R16@
CONST	SEGMENT
??_C@_0O@KENMFGDC@D3DFMT_G16R16@ DB 'D3DFMT_G16R16', 00H ; `string'
CONST	ENDS
;	COMDAT ??_C@_0BA@FMOMGOJK@D3DFMT_X8B8G8R8@
CONST	SEGMENT
??_C@_0BA@FMOMGOJK@D3DFMT_X8B8G8R8@ DB 'D3DFMT_X8B8G8R8', 00H ; `string'
CONST	ENDS
;	COMDAT ??_C@_0BA@FMIPJKLA@D3DFMT_A8B8G8R8@
CONST	SEGMENT
??_C@_0BA@FMIPJKLA@D3DFMT_A8B8G8R8@ DB 'D3DFMT_A8B8G8R8', 00H ; `string'
CONST	ENDS
;	COMDAT ??_C@_0BD@OELFJMLB@D3DFMT_A2B10G10R10@
CONST	SEGMENT
??_C@_0BD@OELFJMLB@D3DFMT_A2B10G10R10@ DB 'D3DFMT_A2B10G10R10', 00H ; `string'
CONST	ENDS
;	COMDAT ??_C@_0BA@OBBKHEKE@D3DFMT_X4R4G4B4@
CONST	SEGMENT
??_C@_0BA@OBBKHEKE@D3DFMT_X4R4G4B4@ DB 'D3DFMT_X4R4G4B4', 00H ; `string'
CONST	ENDS
;	COMDAT ??_C@_0BA@GAFODKEG@D3DFMT_A8R3G3B2@
CONST	SEGMENT
??_C@_0BA@GAFODKEG@D3DFMT_A8R3G3B2@ DB 'D3DFMT_A8R3G3B2', 00H ; `string'
CONST	ENDS
;	COMDAT ??_C@_09JNGIHEFB@D3DFMT_A8@
CONST	SEGMENT
??_C@_09JNGIHEFB@D3DFMT_A8@ DB 'D3DFMT_A8', 00H		; `string'
CONST	ENDS
;	COMDAT ??_C@_0O@KJABAOEE@D3DFMT_R3G3B2@
CONST	SEGMENT
??_C@_0O@KJABAOEE@D3DFMT_R3G3B2@ DB 'D3DFMT_R3G3B2', 00H ; `string'
CONST	ENDS
;	COMDAT ??_C@_0BA@OBHJIAIO@D3DFMT_A4R4G4B4@
CONST	SEGMENT
??_C@_0BA@OBHJIAIO@D3DFMT_A4R4G4B4@ DB 'D3DFMT_A4R4G4B4', 00H ; `string'
CONST	ENDS
;	COMDAT ??_C@_0BA@MDGCALGL@D3DFMT_A1R5G5B5@
CONST	SEGMENT
??_C@_0BA@MDGCALGL@D3DFMT_A1R5G5B5@ DB 'D3DFMT_A1R5G5B5', 00H ; `string'
CONST	ENDS
;	COMDAT ??_C@_0BA@MDABPPEB@D3DFMT_X1R5G5B5@
CONST	SEGMENT
??_C@_0BA@MDABPPEB@D3DFMT_X1R5G5B5@ DB 'D3DFMT_X1R5G5B5', 00H ; `string'
CONST	ENDS
;	COMDAT ??_C@_0O@HMHILKM@D3DFMT_R5G6B5@
CONST	SEGMENT
??_C@_0O@HMHILKM@D3DFMT_R5G6B5@ DB 'D3DFMT_R5G6B5', 00H	; `string'
CONST	ENDS
;	COMDAT ??_C@_0BA@CHBEFBCE@D3DFMT_X8R8G8B8@
CONST	SEGMENT
??_C@_0BA@CHBEFBCE@D3DFMT_X8R8G8B8@ DB 'D3DFMT_X8R8G8B8', 00H ; `string'
CONST	ENDS
;	COMDAT ??_C@_0BA@CHHHKFAO@D3DFMT_A8R8G8B8@
CONST	SEGMENT
??_C@_0BA@CHHHKFAO@D3DFMT_A8R8G8B8@ DB 'D3DFMT_A8R8G8B8', 00H ; `string'
CONST	ENDS
;	COMDAT ??_C@_0O@OOCIJBAM@D3DFMT_R8G8B8@
CONST	SEGMENT
??_C@_0O@OOCIJBAM@D3DFMT_R8G8B8@ DB 'D3DFMT_R8G8B8', 00H ; `string'
CONST	ENDS
;	COMDAT ??_C@_0P@FCGOGLON@D3DFMT_UNKNOWN@
CONST	SEGMENT
??_C@_0P@FCGOGLON@D3DFMT_UNKNOWN@ DB 'D3DFMT_UNKNOWN', 00H ; `string'
CONST	ENDS
; Function compile flags: /Ogtp
; File C:\IAGOS\server\v18\Source\Source\_DirectX\d3dutil.cpp
; File C:\IAGOS\server\v18\Source\Source\DX_SDK\d3dx9math.inl
; File C:\IAGOS\server\v18\Source\Source\_DirectX\d3dutil.cpp
; File C:\IAGOS\server\v18\Source\Source\DX_SDK\d3dx9math.inl
; File C:\IAGOS\server\v18\Source\Source\_DirectX\d3dutil.cpp
; File C:\IAGOS\server\v18\Source\Source\DX_SDK\d3dx9math.inl
; File C:\IAGOS\server\v18\Source\Source\_DirectX\d3dutil.cpp
; File C:\IAGOS\server\v18\Source\Source\DX_SDK\d3dx9math.inl
; File C:\IAGOS\server\v18\Source\Source\_DirectX\d3dutil.cpp
;	COMDAT ??0CD3DCamera@@QAE@XZ
_TEXT	SEGMENT
_vEyePt$ = -36						; size = 12
_vLookatPt$ = -24					; size = 12
_vUpVec$ = -12						; size = 12
??0CD3DCamera@@QAE@XZ PROC				; CD3DCamera::CD3DCamera, COMDAT
; _this$ = ecx

; 660  : {

  00000	55		 push	 ebp
  00001	8b ec		 mov	 ebp, esp
  00003	83 ec 24	 sub	 esp, 36			; 00000024H
  00006	56		 push	 esi

; 665  :     SetViewParams( vEyePt, vLookatPt, vUpVec );

  00007	8d 45 f4	 lea	 eax, DWORD PTR _vUpVec$[ebp]
; File C:\IAGOS\server\v18\Source\Source\DX_SDK\d3dx9math.inl

; 300  :     x = fx;

  0000a	c7 45 dc 00 00
	00 00		 mov	 DWORD PTR _vEyePt$[ebp], 0
; File C:\IAGOS\server\v18\Source\Source\_DirectX\d3dutil.cpp

; 665  :     SetViewParams( vEyePt, vLookatPt, vUpVec );

  00011	50		 push	 eax
  00012	8d 45 e8	 lea	 eax, DWORD PTR _vLookatPt$[ebp]
; File C:\IAGOS\server\v18\Source\Source\DX_SDK\d3dx9math.inl

; 301  :     y = fy;

  00015	c7 45 e0 00 00
	00 00		 mov	 DWORD PTR _vEyePt$[ebp+4], 0
; File C:\IAGOS\server\v18\Source\Source\_DirectX\d3dutil.cpp

; 665  :     SetViewParams( vEyePt, vLookatPt, vUpVec );

  0001c	50		 push	 eax
  0001d	8d 45 dc	 lea	 eax, DWORD PTR _vEyePt$[ebp]
; File C:\IAGOS\server\v18\Source\Source\DX_SDK\d3dx9math.inl

; 302  :     z = fz;

  00020	c7 45 e4 00 00
	00 00		 mov	 DWORD PTR _vEyePt$[ebp+8], 0
; File C:\IAGOS\server\v18\Source\Source\_DirectX\d3dutil.cpp

; 665  :     SetViewParams( vEyePt, vLookatPt, vUpVec );

  00027	50		 push	 eax
  00028	8b f1		 mov	 esi, ecx
; File C:\IAGOS\server\v18\Source\Source\DX_SDK\d3dx9math.inl

; 300  :     x = fx;

  0002a	c7 45 e8 00 00
	00 00		 mov	 DWORD PTR _vLookatPt$[ebp], 0

; 301  :     y = fy;

  00031	c7 45 ec 00 00
	00 00		 mov	 DWORD PTR _vLookatPt$[ebp+4], 0

; 302  :     z = fz;

  00038	c7 45 f0 00 00
	80 3f		 mov	 DWORD PTR _vLookatPt$[ebp+8], 1065353216 ; 3f800000H

; 300  :     x = fx;

  0003f	c7 45 f4 00 00
	00 00		 mov	 DWORD PTR _vUpVec$[ebp], 0

; 301  :     y = fy;

  00046	c7 45 f8 00 00
	80 3f		 mov	 DWORD PTR _vUpVec$[ebp+4], 1065353216 ; 3f800000H

; 302  :     z = fz;

  0004d	c7 45 fc 00 00
	00 00		 mov	 DWORD PTR _vUpVec$[ebp+8], 0
; File C:\IAGOS\server\v18\Source\Source\_DirectX\d3dutil.cpp

; 665  :     SetViewParams( vEyePt, vLookatPt, vUpVec );

  00054	e8 00 00 00 00	 call	 ?SetViewParams@CD3DCamera@@QAEXAAUD3DXVECTOR3@@00@Z ; CD3DCamera::SetViewParams

; 666  : 
; 667  :     // Set attributes for the projection matrix
; 668  :     SetProjParams( D3DX_PI/4, 1.0f, 1.0f, 1000.0f );

  00059	83 ec 10	 sub	 esp, 16			; 00000010H
  0005c	8b ce		 mov	 ecx, esi
  0005e	c7 44 24 0c 00
	00 7a 44	 mov	 DWORD PTR [esp+12], 1148846080 ; 447a0000H
  00066	c7 44 24 08 00
	00 80 3f	 mov	 DWORD PTR [esp+8], 1065353216 ; 3f800000H
  0006e	c7 44 24 04 00
	00 80 3f	 mov	 DWORD PTR [esp+4], 1065353216 ; 3f800000H
  00076	c7 04 24 db 0f
	49 3f		 mov	 DWORD PTR [esp], 1061752795 ; 3f490fdbH
  0007d	e8 00 00 00 00	 call	 ?SetProjParams@CD3DCamera@@QAEXMMMM@Z ; CD3DCamera::SetProjParams

; 669  : }

  00082	8b c6		 mov	 eax, esi
  00084	5e		 pop	 esi
  00085	8b e5		 mov	 esp, ebp
  00087	5d		 pop	 ebp
  00088	c3		 ret	 0
??0CD3DCamera@@QAE@XZ ENDP				; CD3DCamera::CD3DCamera
_TEXT	ENDS
; Function compile flags: /Ogtp
; File C:\IAGOS\server\v18\Source\Source\_DirectX\d3dutil.cpp
;	COMDAT ?SetProjParams@CD3DCamera@@QAEXMMMM@Z
_TEXT	SEGMENT
_fFOV$ = 8						; size = 4
_fAspect$ = 12						; size = 4
_fNearPlane$ = 16					; size = 4
_fFarPlane$ = 20					; size = 4
?SetProjParams@CD3DCamera@@QAEXMMMM@Z PROC		; CD3DCamera::SetProjParams, COMDAT
; _this$ = ecx

; 705  : {

  00000	55		 push	 ebp
  00001	8b ec		 mov	 ebp, esp

; 706  :     // Set attributes for the projection matrix
; 707  :     m_fFOV        = fFOV;
; 708  :     m_fAspect     = fAspect;
; 709  :     m_fNearPlane  = fNearPlane;
; 710  :     m_fFarPlane   = fFarPlane;

  00003	f3 0f 10 45 14	 movss	 xmm0, DWORD PTR _fFarPlane$[ebp]

; 711  : 
; 712  :     D3DXMatrixPerspectiveFovLH( &m_matProj, fFOV, fAspect, fNearPlane, fFarPlane );

  00008	8d 81 d0 00 00
	00		 lea	 eax, DWORD PTR [ecx+208]
  0000e	f3 0f 10 4d 10	 movss	 xmm1, DWORD PTR _fNearPlane$[ebp]
  00013	83 ec 10	 sub	 esp, 16			; 00000010H
  00016	f3 0f 10 55 0c	 movss	 xmm2, DWORD PTR _fAspect$[ebp]
  0001b	f3 0f 10 5d 08	 movss	 xmm3, DWORD PTR _fFOV$[ebp]
  00020	f3 0f 11 99 c0
	00 00 00	 movss	 DWORD PTR [ecx+192], xmm3
  00028	f3 0f 11 44 24
	0c		 movss	 DWORD PTR [esp+12], xmm0
  0002e	f3 0f 11 4c 24
	08		 movss	 DWORD PTR [esp+8], xmm1
  00034	f3 0f 11 54 24
	04		 movss	 DWORD PTR [esp+4], xmm2
  0003a	f3 0f 11 1c 24	 movss	 DWORD PTR [esp], xmm3
  0003f	50		 push	 eax
  00040	f3 0f 11 91 c4
	00 00 00	 movss	 DWORD PTR [ecx+196], xmm2
  00048	f3 0f 11 89 c8
	00 00 00	 movss	 DWORD PTR [ecx+200], xmm1
  00050	f3 0f 11 81 cc
	00 00 00	 movss	 DWORD PTR [ecx+204], xmm0
  00058	e8 00 00 00 00	 call	 _D3DXMatrixPerspectiveFovLH@20

; 713  : }

  0005d	5d		 pop	 ebp
  0005e	c2 10 00	 ret	 16			; 00000010H
?SetProjParams@CD3DCamera@@QAEXMMMM@Z ENDP		; CD3DCamera::SetProjParams
_TEXT	ENDS
; Function compile flags: /Ogtp
; File C:\IAGOS\server\v18\Source\Source\_DirectX\d3dutil.cpp
; File C:\IAGOS\server\v18\Source\Source\DX_SDK\d3dx9math.inl
; File C:\IAGOS\server\v18\Source\Source\_DirectX\d3dutil.cpp
; File C:\IAGOS\server\v18\Source\Source\DX_SDK\d3dx9math.inl
; File C:\IAGOS\server\v18\Source\Source\_DirectX\d3dutil.cpp
; File C:\IAGOS\server\v18\Source\Source\DX_SDK\d3dx9math.inl
; File C:\IAGOS\server\v18\Source\Source\_DirectX\d3dutil.cpp
; File C:\IAGOS\server\v18\Source\Source\DX_SDK\d3dx9math.inl
; File C:\IAGOS\server\v18\Source\Source\_DirectX\d3dutil.cpp
; File C:\IAGOS\server\v18\Source\Source\DX_SDK\d3dx9math.inl
; File C:\IAGOS\server\v18\Source\Source\_DirectX\d3dutil.cpp
; File C:\IAGOS\server\v18\Source\Source\DX_SDK\d3dx9math.inl
; File C:\IAGOS\server\v18\Source\Source\_DirectX\d3dutil.cpp
;	COMDAT ?SetViewParams@CD3DCamera@@QAEXAAUD3DXVECTOR3@@00@Z
_TEXT	SEGMENT
_this$GSCopy$1$ = -20					; size = 4
_vDir$ = -16						; size = 12
__$ArrayPad$ = -4					; size = 4
_vEyePt$ = 8						; size = 4
_vLookatPt$ = 12					; size = 4
_vUpVec$ = 16						; size = 4
?SetViewParams@CD3DCamera@@QAEXAAUD3DXVECTOR3@@00@Z PROC ; CD3DCamera::SetViewParams, COMDAT
; _this$ = ecx

; 680  : {

  00000	55		 push	 ebp
  00001	8b ec		 mov	 ebp, esp
  00003	83 ec 14	 sub	 esp, 20			; 00000014H
  00006	a1 00 00 00 00	 mov	 eax, DWORD PTR ___security_cookie
  0000b	33 c5		 xor	 eax, ebp
  0000d	89 45 fc	 mov	 DWORD PTR __$ArrayPad$[ebp], eax

; 681  :     // Set attributes for the view matrix
; 682  :     m_vEyePt    = vEyePt;

  00010	8b 45 08	 mov	 eax, DWORD PTR _vEyePt$[ebp]
  00013	53		 push	 ebx

; 683  :     m_vLookatPt = vLookatPt;

  00014	8d 59 0c	 lea	 ebx, DWORD PTR [ecx+12]
  00017	89 4d ec	 mov	 DWORD PTR _this$GSCopy$1$[ebp], ecx
  0001a	56		 push	 esi
  0001b	f3 0f 7e 00	 movq	 xmm0, QWORD PTR [eax]

; 686  :     D3DXVec3Normalize( &m_vView, &vDir );

  0001f	8d 71 24	 lea	 esi, DWORD PTR [ecx+36]
  00022	66 0f d6 01	 movq	 QWORD PTR [ecx], xmm0
  00026	8b 40 08	 mov	 eax, DWORD PTR [eax+8]
  00029	89 41 08	 mov	 DWORD PTR [ecx+8], eax
  0002c	8b 45 0c	 mov	 eax, DWORD PTR _vLookatPt$[ebp]
  0002f	57		 push	 edi
  00030	8d 79 18	 lea	 edi, DWORD PTR [ecx+24]
  00033	f3 0f 7e 00	 movq	 xmm0, QWORD PTR [eax]
  00037	66 0f d6 03	 movq	 QWORD PTR [ebx], xmm0
  0003b	8b 40 08	 mov	 eax, DWORD PTR [eax+8]
  0003e	89 43 08	 mov	 DWORD PTR [ebx+8], eax
  00041	8b 45 10	 mov	 eax, DWORD PTR _vUpVec$[ebp]
  00044	f3 0f 7e 00	 movq	 xmm0, QWORD PTR [eax]
  00048	66 0f d6 07	 movq	 QWORD PTR [edi], xmm0
  0004c	8b 40 08	 mov	 eax, DWORD PTR [eax+8]
  0004f	89 47 08	 mov	 DWORD PTR [edi+8], eax
  00052	8d 45 f0	 lea	 eax, DWORD PTR _vDir$[ebp]
; File C:\IAGOS\server\v18\Source\Source\DX_SDK\d3dx9math.inl

; 383  :     return D3DXVECTOR3(x - v.x, y - v.y, z - v.z);

  00055	f3 0f 10 03	 movss	 xmm0, DWORD PTR [ebx]
  00059	f3 0f 5c 01	 subss	 xmm0, DWORD PTR [ecx]
; File C:\IAGOS\server\v18\Source\Source\_DirectX\d3dutil.cpp

; 686  :     D3DXVec3Normalize( &m_vView, &vDir );

  0005d	50		 push	 eax
  0005e	56		 push	 esi
; File C:\IAGOS\server\v18\Source\Source\DX_SDK\d3dx9math.inl

; 300  :     x = fx;

  0005f	f3 0f 11 45 f0	 movss	 DWORD PTR _vDir$[ebp], xmm0

; 383  :     return D3DXVECTOR3(x - v.x, y - v.y, z - v.z);

  00064	f3 0f 10 43 04	 movss	 xmm0, DWORD PTR [ebx+4]
  00069	f3 0f 5c 41 04	 subss	 xmm0, DWORD PTR [ecx+4]

; 301  :     y = fy;

  0006e	f3 0f 11 45 f4	 movss	 DWORD PTR _vDir$[ebp+4], xmm0

; 383  :     return D3DXVECTOR3(x - v.x, y - v.y, z - v.z);

  00073	f3 0f 10 43 08	 movss	 xmm0, DWORD PTR [ebx+8]
  00078	f3 0f 5c 41 08	 subss	 xmm0, DWORD PTR [ecx+8]

; 302  :     z = fz;

  0007d	f3 0f 11 45 f8	 movss	 DWORD PTR _vDir$[ebp+8], xmm0
; File C:\IAGOS\server\v18\Source\Source\_DirectX\d3dutil.cpp

; 686  :     D3DXVec3Normalize( &m_vView, &vDir );

  00082	e8 00 00 00 00	 call	 _D3DXVec3Normalize@8
; File C:\IAGOS\server\v18\Source\Source\DX_SDK\d3dx9math.inl

; 1722 :     v.x = pV1->y * pV2->z - pV1->z * pV2->y;

  00087	f3 0f 10 5f 08	 movss	 xmm3, DWORD PTR [edi+8]
  0008c	f3 0f 10 67 04	 movss	 xmm4, DWORD PTR [edi+4]
  00091	0f 28 cb	 movaps	 xmm1, xmm3
  00094	f3 0f 10 7e 04	 movss	 xmm7, DWORD PTR [esi+4]
  00099	0f 28 c4	 movaps	 xmm0, xmm4
  0009c	f3 0f 10 56 08	 movss	 xmm2, DWORD PTR [esi+8]

; 1725 : 
; 1726 :     *pOut = v;

  000a1	8b 45 ec	 mov	 eax, DWORD PTR _this$GSCopy$1$[ebp]
  000a4	f3 0f 10 2e	 movss	 xmm5, DWORD PTR [esi]
  000a8	f3 0f 10 37	 movss	 xmm6, DWORD PTR [edi]
  000ac	f3 0f 59 cf	 mulss	 xmm1, xmm7
; File C:\IAGOS\server\v18\Source\Source\_DirectX\d3dutil.cpp

; 689  :     D3DXMatrixLookAtLH( &m_matView, &m_vEyePt, &m_vLookatPt, &m_vUpVec );

  000b0	8d 70 40	 lea	 esi, DWORD PTR [eax+64]
; File C:\IAGOS\server\v18\Source\Source\DX_SDK\d3dx9math.inl

; 1722 :     v.x = pV1->y * pV2->z - pV1->z * pV2->y;

  000b3	f3 0f 59 c2	 mulss	 xmm0, xmm2
; File C:\IAGOS\server\v18\Source\Source\_DirectX\d3dutil.cpp

; 689  :     D3DXMatrixLookAtLH( &m_matView, &m_vEyePt, &m_vLookatPt, &m_vUpVec );

  000b7	57		 push	 edi
  000b8	53		 push	 ebx
  000b9	50		 push	 eax
; File C:\IAGOS\server\v18\Source\Source\DX_SDK\d3dx9math.inl

; 1722 :     v.x = pV1->y * pV2->z - pV1->z * pV2->y;

  000ba	f3 0f 5c c8	 subss	 xmm1, xmm0

; 1723 :     v.y = pV1->z * pV2->x - pV1->x * pV2->z;

  000be	0f 28 c5	 movaps	 xmm0, xmm5
  000c1	f3 0f 59 c3	 mulss	 xmm0, xmm3
; File C:\IAGOS\server\v18\Source\Source\_DirectX\d3dutil.cpp

; 689  :     D3DXMatrixLookAtLH( &m_matView, &m_vEyePt, &m_vLookatPt, &m_vUpVec );

  000c5	56		 push	 esi
; File C:\IAGOS\server\v18\Source\Source\DX_SDK\d3dx9math.inl

; 1724 :     v.z = pV1->x * pV2->y - pV1->y * pV2->x;

  000c6	f3 0f 59 ec	 mulss	 xmm5, xmm4

; 1725 : 
; 1726 :     *pOut = v;

  000ca	f3 0f 11 48 30	 movss	 DWORD PTR [eax+48], xmm1
  000cf	0f 28 ce	 movaps	 xmm1, xmm6
  000d2	f3 0f 59 ca	 mulss	 xmm1, xmm2
  000d6	f3 0f 59 f7	 mulss	 xmm6, xmm7
  000da	f3 0f 5c c8	 subss	 xmm1, xmm0
  000de	f3 0f 5c ee	 subss	 xmm5, xmm6
  000e2	f3 0f 11 48 34	 movss	 DWORD PTR [eax+52], xmm1
  000e7	f3 0f 11 68 38	 movss	 DWORD PTR [eax+56], xmm5
; File C:\IAGOS\server\v18\Source\Source\_DirectX\d3dutil.cpp

; 689  :     D3DXMatrixLookAtLH( &m_matView, &m_vEyePt, &m_vLookatPt, &m_vUpVec );

  000ec	e8 00 00 00 00	 call	 _D3DXMatrixLookAtLH@16

; 690  :     D3DXMatrixInverse( &m_matBillboard, NULL, &m_matView );

  000f1	56		 push	 esi
  000f2	8b 75 ec	 mov	 esi, DWORD PTR _this$GSCopy$1$[ebp]
  000f5	6a 00		 push	 0
  000f7	8d 86 80 00 00
	00		 lea	 eax, DWORD PTR [esi+128]
  000fd	50		 push	 eax
  000fe	e8 00 00 00 00	 call	 _D3DXMatrixInverse@12

; 691  :     m_matBillboard._41 = 0.0f;
; 692  :     m_matBillboard._42 = 0.0f;
; 693  :     m_matBillboard._43 = 0.0f;
; 694  : }

  00103	8b 4d fc	 mov	 ecx, DWORD PTR __$ArrayPad$[ebp]
  00106	5f		 pop	 edi
  00107	c7 86 b0 00 00
	00 00 00 00 00	 mov	 DWORD PTR [esi+176], 0
  00111	33 cd		 xor	 ecx, ebp
  00113	c7 86 b4 00 00
	00 00 00 00 00	 mov	 DWORD PTR [esi+180], 0
  0011d	c7 86 b8 00 00
	00 00 00 00 00	 mov	 DWORD PTR [esi+184], 0
  00127	5e		 pop	 esi
  00128	5b		 pop	 ebx
  00129	e8 00 00 00 00	 call	 @__security_check_cookie@4
  0012e	8b e5		 mov	 esp, ebp
  00130	5d		 pop	 ebp
  00131	c2 0c 00	 ret	 12			; 0000000cH
?SetViewParams@CD3DCamera@@QAEXAAUD3DXVECTOR3@@00@Z ENDP ; CD3DCamera::SetViewParams
_TEXT	ENDS
; Function compile flags: /Ogtp
; File C:\IAGOS\server\v18\Source\Source\_DirectX\d3dutil.cpp
; File C:\IAGOS\server\v18\Source\Source\DX_SDK\d3dx9math.inl
; File C:\IAGOS\server\v18\Source\Source\_DirectX\d3dutil.cpp
;	COMDAT ?Init@CD3DArcBall@@QAEXXZ
_TEXT	SEGMENT
?Init@CD3DArcBall@@QAEXXZ PROC				; CD3DArcBall::Init, COMDAT
; _this$ = ecx
; File C:\IAGOS\server\v18\Source\Source\DX_SDK\d3dx9math.inl

; 2036 :     pOut->x = pOut->y = pOut->z = 0.0f;

  00000	c7 41 18 00 00
	00 00		 mov	 DWORD PTR [ecx+24], 0
  00007	c7 41 14 00 00
	00 00		 mov	 DWORD PTR [ecx+20], 0
  0000e	c7 41 10 00 00
	00 00		 mov	 DWORD PTR [ecx+16], 0

; 2037 :     pOut->w = 1.0f;

  00015	c7 41 1c 00 00
	80 3f		 mov	 DWORD PTR [ecx+28], 1065353216 ; 3f800000H

; 2036 :     pOut->x = pOut->y = pOut->z = 0.0f;

  0001c	c7 41 28 00 00
	00 00		 mov	 DWORD PTR [ecx+40], 0
  00023	c7 41 24 00 00
	00 00		 mov	 DWORD PTR [ecx+36], 0
  0002a	c7 41 20 00 00
	00 00		 mov	 DWORD PTR [ecx+32], 0

; 2037 :     pOut->w = 1.0f;

  00031	c7 41 2c 00 00
	80 3f		 mov	 DWORD PTR [ecx+44], 1065353216 ; 3f800000H

; 1961 :     pOut->m[0][1] = pOut->m[0][2] = pOut->m[0][3] =

  00038	c7 41 68 00 00
	00 00		 mov	 DWORD PTR [ecx+104], 0
  0003f	c7 41 64 00 00
	00 00		 mov	 DWORD PTR [ecx+100], 0
  00046	c7 41 60 00 00
	00 00		 mov	 DWORD PTR [ecx+96], 0
  0004d	c7 41 5c 00 00
	00 00		 mov	 DWORD PTR [ecx+92], 0
  00054	c7 41 54 00 00
	00 00		 mov	 DWORD PTR [ecx+84], 0
  0005b	c7 41 50 00 00
	00 00		 mov	 DWORD PTR [ecx+80], 0
  00062	c7 41 4c 00 00
	00 00		 mov	 DWORD PTR [ecx+76], 0
  00069	c7 41 48 00 00
	00 00		 mov	 DWORD PTR [ecx+72], 0
  00070	c7 41 40 00 00
	00 00		 mov	 DWORD PTR [ecx+64], 0
  00077	c7 41 3c 00 00
	00 00		 mov	 DWORD PTR [ecx+60], 0
  0007e	c7 41 38 00 00
	00 00		 mov	 DWORD PTR [ecx+56], 0
  00085	c7 41 34 00 00
	00 00		 mov	 DWORD PTR [ecx+52], 0

; 1962 :     pOut->m[1][0] = pOut->m[1][2] = pOut->m[1][3] =
; 1963 :     pOut->m[2][0] = pOut->m[2][1] = pOut->m[2][3] =
; 1964 :     pOut->m[3][0] = pOut->m[3][1] = pOut->m[3][2] = 0.0f;
; 1965 : 
; 1966 :     pOut->m[0][0] = pOut->m[1][1] = pOut->m[2][2] = pOut->m[3][3] = 1.0f;

  0008c	c7 41 6c 00 00
	80 3f		 mov	 DWORD PTR [ecx+108], 1065353216 ; 3f800000H
  00093	c7 41 58 00 00
	80 3f		 mov	 DWORD PTR [ecx+88], 1065353216 ; 3f800000H
  0009a	c7 41 44 00 00
	80 3f		 mov	 DWORD PTR [ecx+68], 1065353216 ; 3f800000H
  000a1	c7 41 30 00 00
	80 3f		 mov	 DWORD PTR [ecx+48], 1065353216 ; 3f800000H

; 1961 :     pOut->m[0][1] = pOut->m[0][2] = pOut->m[0][3] =

  000a8	c7 81 a8 00 00
	00 00 00 00 00	 mov	 DWORD PTR [ecx+168], 0
  000b2	c7 81 a4 00 00
	00 00 00 00 00	 mov	 DWORD PTR [ecx+164], 0
  000bc	c7 81 a0 00 00
	00 00 00 00 00	 mov	 DWORD PTR [ecx+160], 0
  000c6	c7 81 9c 00 00
	00 00 00 00 00	 mov	 DWORD PTR [ecx+156], 0
  000d0	c7 81 94 00 00
	00 00 00 00 00	 mov	 DWORD PTR [ecx+148], 0
  000da	c7 81 90 00 00
	00 00 00 00 00	 mov	 DWORD PTR [ecx+144], 0
  000e4	c7 81 8c 00 00
	00 00 00 00 00	 mov	 DWORD PTR [ecx+140], 0
  000ee	c7 81 88 00 00
	00 00 00 00 00	 mov	 DWORD PTR [ecx+136], 0
  000f8	c7 81 80 00 00
	00 00 00 00 00	 mov	 DWORD PTR [ecx+128], 0
  00102	c7 41 7c 00 00
	00 00		 mov	 DWORD PTR [ecx+124], 0
  00109	c7 41 78 00 00
	00 00		 mov	 DWORD PTR [ecx+120], 0
  00110	c7 41 74 00 00
	00 00		 mov	 DWORD PTR [ecx+116], 0

; 1962 :     pOut->m[1][0] = pOut->m[1][2] = pOut->m[1][3] =
; 1963 :     pOut->m[2][0] = pOut->m[2][1] = pOut->m[2][3] =
; 1964 :     pOut->m[3][0] = pOut->m[3][1] = pOut->m[3][2] = 0.0f;
; 1965 : 
; 1966 :     pOut->m[0][0] = pOut->m[1][1] = pOut->m[2][2] = pOut->m[3][3] = 1.0f;

  00117	c7 81 ac 00 00
	00 00 00 80 3f	 mov	 DWORD PTR [ecx+172], 1065353216 ; 3f800000H
  00121	c7 81 98 00 00
	00 00 00 80 3f	 mov	 DWORD PTR [ecx+152], 1065353216 ; 3f800000H
  0012b	c7 81 84 00 00
	00 00 00 80 3f	 mov	 DWORD PTR [ecx+132], 1065353216 ; 3f800000H
  00135	c7 41 70 00 00
	80 3f		 mov	 DWORD PTR [ecx+112], 1065353216 ; 3f800000H

; 1961 :     pOut->m[0][1] = pOut->m[0][2] = pOut->m[0][3] =

  0013c	c7 81 e8 00 00
	00 00 00 00 00	 mov	 DWORD PTR [ecx+232], 0
  00146	c7 81 e4 00 00
	00 00 00 00 00	 mov	 DWORD PTR [ecx+228], 0
  00150	c7 81 e0 00 00
	00 00 00 00 00	 mov	 DWORD PTR [ecx+224], 0
  0015a	c7 81 dc 00 00
	00 00 00 00 00	 mov	 DWORD PTR [ecx+220], 0
  00164	c7 81 d4 00 00
	00 00 00 00 00	 mov	 DWORD PTR [ecx+212], 0
  0016e	c7 81 d0 00 00
	00 00 00 00 00	 mov	 DWORD PTR [ecx+208], 0
  00178	c7 81 cc 00 00
	00 00 00 00 00	 mov	 DWORD PTR [ecx+204], 0
  00182	c7 81 c8 00 00
	00 00 00 00 00	 mov	 DWORD PTR [ecx+200], 0
  0018c	c7 81 c0 00 00
	00 00 00 00 00	 mov	 DWORD PTR [ecx+192], 0
  00196	c7 81 bc 00 00
	00 00 00 00 00	 mov	 DWORD PTR [ecx+188], 0
  001a0	c7 81 b8 00 00
	00 00 00 00 00	 mov	 DWORD PTR [ecx+184], 0
  001aa	c7 81 b4 00 00
	00 00 00 00 00	 mov	 DWORD PTR [ecx+180], 0

; 1962 :     pOut->m[1][0] = pOut->m[1][2] = pOut->m[1][3] =
; 1963 :     pOut->m[2][0] = pOut->m[2][1] = pOut->m[2][3] =
; 1964 :     pOut->m[3][0] = pOut->m[3][1] = pOut->m[3][2] = 0.0f;
; 1965 : 
; 1966 :     pOut->m[0][0] = pOut->m[1][1] = pOut->m[2][2] = pOut->m[3][3] = 1.0f;

  001b4	c7 81 ec 00 00
	00 00 00 80 3f	 mov	 DWORD PTR [ecx+236], 1065353216 ; 3f800000H
  001be	c7 81 d8 00 00
	00 00 00 80 3f	 mov	 DWORD PTR [ecx+216], 1065353216 ; 3f800000H
  001c8	c7 81 c4 00 00
	00 00 00 80 3f	 mov	 DWORD PTR [ecx+196], 1065353216 ; 3f800000H
  001d2	c7 81 b0 00 00
	00 00 00 80 3f	 mov	 DWORD PTR [ecx+176], 1065353216 ; 3f800000H

; 1961 :     pOut->m[0][1] = pOut->m[0][2] = pOut->m[0][3] =

  001dc	c7 81 28 01 00
	00 00 00 00 00	 mov	 DWORD PTR [ecx+296], 0
  001e6	c7 81 24 01 00
	00 00 00 00 00	 mov	 DWORD PTR [ecx+292], 0
  001f0	c7 81 20 01 00
	00 00 00 00 00	 mov	 DWORD PTR [ecx+288], 0
  001fa	c7 81 1c 01 00
	00 00 00 00 00	 mov	 DWORD PTR [ecx+284], 0
  00204	c7 81 14 01 00
	00 00 00 00 00	 mov	 DWORD PTR [ecx+276], 0
  0020e	c7 81 10 01 00
	00 00 00 00 00	 mov	 DWORD PTR [ecx+272], 0
  00218	c7 81 0c 01 00
	00 00 00 00 00	 mov	 DWORD PTR [ecx+268], 0
  00222	c7 81 08 01 00
	00 00 00 00 00	 mov	 DWORD PTR [ecx+264], 0
  0022c	c7 81 00 01 00
	00 00 00 00 00	 mov	 DWORD PTR [ecx+256], 0
  00236	c7 81 fc 00 00
	00 00 00 00 00	 mov	 DWORD PTR [ecx+252], 0
  00240	c7 81 f8 00 00
	00 00 00 00 00	 mov	 DWORD PTR [ecx+248], 0
  0024a	c7 81 f4 00 00
	00 00 00 00 00	 mov	 DWORD PTR [ecx+244], 0

; 1962 :     pOut->m[1][0] = pOut->m[1][2] = pOut->m[1][3] =
; 1963 :     pOut->m[2][0] = pOut->m[2][1] = pOut->m[2][3] =
; 1964 :     pOut->m[3][0] = pOut->m[3][1] = pOut->m[3][2] = 0.0f;
; 1965 : 
; 1966 :     pOut->m[0][0] = pOut->m[1][1] = pOut->m[2][2] = pOut->m[3][3] = 1.0f;

  00254	c7 81 2c 01 00
	00 00 00 80 3f	 mov	 DWORD PTR [ecx+300], 1065353216 ; 3f800000H
  0025e	c7 81 18 01 00
	00 00 00 80 3f	 mov	 DWORD PTR [ecx+280], 1065353216 ; 3f800000H
  00268	c7 81 04 01 00
	00 00 00 80 3f	 mov	 DWORD PTR [ecx+260], 1065353216 ; 3f800000H
  00272	c7 81 f0 00 00
	00 00 00 80 3f	 mov	 DWORD PTR [ecx+240], 1065353216 ; 3f800000H
; File C:\IAGOS\server\v18\Source\Source\_DirectX\d3dutil.cpp

; 498  :     m_bDrag = FALSE;

  0027c	c7 81 30 01 00
	00 00 00 00 00	 mov	 DWORD PTR [ecx+304], 0

; 499  :     m_fRadiusTranslation = 1.0f;

  00286	c7 41 0c 00 00
	80 3f		 mov	 DWORD PTR [ecx+12], 1065353216 ; 3f800000H

; 500  :     m_bRightHanded = FALSE;

  0028d	c7 81 34 01 00
	00 00 00 00 00	 mov	 DWORD PTR [ecx+308], 0

; 501  : }

  00297	c3		 ret	 0
?Init@CD3DArcBall@@QAEXXZ ENDP				; CD3DArcBall::Init
_TEXT	ENDS
; Function compile flags: /Ogtp
; File C:\IAGOS\server\v18\Source\Source\_DirectX\d3dutil.cpp
;	COMDAT ??0CD3DArcBall@@QAE@XZ
_TEXT	SEGMENT
??0CD3DArcBall@@QAE@XZ PROC				; CD3DArcBall::CD3DArcBall, COMDAT
; _this$ = ecx

; 479  : {

  00000	56		 push	 esi
  00001	8b f1		 mov	 esi, ecx

; 480  :     Init();

  00003	e8 00 00 00 00	 call	 ?Init@CD3DArcBall@@QAEXXZ ; CD3DArcBall::Init

; 481  : }

  00008	8b c6		 mov	 eax, esi
  0000a	5e		 pop	 esi
  0000b	c3		 ret	 0
??0CD3DArcBall@@QAE@XZ ENDP				; CD3DArcBall::CD3DArcBall
_TEXT	ENDS
; Function compile flags: /Ogtp
; File C:\IAGOS\server\v18\Source\Source\_DirectX\d3dutil.cpp
;	COMDAT ?SetWindow@CD3DArcBall@@QAEXHHM@Z
_TEXT	SEGMENT
_iWidth$ = 8						; size = 4
_iHeight$ = 12						; size = 4
_fRadius$ = 16						; size = 4
?SetWindow@CD3DArcBall@@QAEXHHM@Z PROC			; CD3DArcBall::SetWindow, COMDAT
; _this$ = ecx

; 511  : {

  00000	55		 push	 ebp
  00001	8b ec		 mov	 ebp, esp

; 512  :     // Set ArcBall info
; 513  :     m_iWidth  = iWidth;

  00003	8b 45 08	 mov	 eax, DWORD PTR _iWidth$[ebp]

; 514  :     m_iHeight = iHeight;
; 515  :     m_fRadius = fRadius;

  00006	f3 0f 10 45 10	 movss	 xmm0, DWORD PTR _fRadius$[ebp]
  0000b	89 01		 mov	 DWORD PTR [ecx], eax
  0000d	8b 45 0c	 mov	 eax, DWORD PTR _iHeight$[ebp]
  00010	89 41 04	 mov	 DWORD PTR [ecx+4], eax
  00013	f3 0f 11 41 08	 movss	 DWORD PTR [ecx+8], xmm0

; 516  : }

  00018	5d		 pop	 ebp
  00019	c2 0c 00	 ret	 12			; 0000000cH
?SetWindow@CD3DArcBall@@QAEXHHM@Z ENDP			; CD3DArcBall::SetWindow
_TEXT	ENDS
; Function compile flags: /Ogtp
; File C:\IAGOS\server\v18\Source\Source\_DirectX\d3dutil.cpp
;	COMDAT ?SetRadius@CD3DArcBall@@QAEXM@Z
_TEXT	SEGMENT
_fRadius$ = 8						; size = 4
?SetRadius@CD3DArcBall@@QAEXM@Z PROC			; CD3DArcBall::SetRadius, COMDAT
; _this$ = ecx

; 561  : {

  00000	55		 push	 ebp
  00001	8b ec		 mov	 ebp, esp

; 562  :     m_fRadiusTranslation = fRadius;

  00003	f3 0f 10 45 08	 movss	 xmm0, DWORD PTR _fRadius$[ebp]
  00008	f3 0f 11 41 0c	 movss	 DWORD PTR [ecx+12], xmm0

; 563  : }

  0000d	5d		 pop	 ebp
  0000e	c2 04 00	 ret	 4
?SetRadius@CD3DArcBall@@QAEXM@Z ENDP			; CD3DArcBall::SetRadius
_TEXT	ENDS
; Function compile flags: /Ogtp
; File C:\IAGOS\server\v18\Source\Source\_DirectX\d3dutil.cpp
; File C:\IAGOS\server\v18\Source\Source\DX_SDK\d3dx9math.inl
; File C:\IAGOS\server\v18\Source\Source\_DirectX\d3dutil.cpp
; File C:\IAGOS\server\v18\Source\Source\DX_SDK\d3dx9math.inl
; File C:\IAGOS\server\v18\Source\Source\_DirectX\d3dutil.cpp
; File C:\IAGOS\server\v18\Source\Source\DX_SDK\d3dx9math.inl
; File C:\IAGOS\server\v18\Source\Source\_DirectX\d3dutil.cpp
; File C:\IAGOS\server\v18\Source\Source\DX_SDK\d3dx9math.inl
; File C:\IAGOS\server\v18\Source\Source\_DirectX\d3dutil.cpp
; File C:\IAGOS\server\v18\Source\Source\DX_SDK\d3dx9math.inl
; File C:\IAGOS\server\v18\Source\Source\_DirectX\d3dutil.cpp
; File C:\IAGOS\server\v18\Source\Source\DX_SDK\d3dx9math.inl
; File C:\IAGOS\server\v18\Source\Source\_DirectX\d3dutil.cpp
; File C:\IAGOS\server\v18\Source\Source\DX_SDK\d3dx9math.inl
; File C:\IAGOS\server\v18\Source\Source\_DirectX\d3dutil.cpp
; File C:\IAGOS\server\v18\Source\Source\DX_SDK\d3dx9math.inl
; File C:\IAGOS\server\v18\Source\Source\_DirectX\d3dutil.cpp
; File C:\IAGOS\server\v18\Source\Source\DX_SDK\d3dx9math.inl
; File C:\IAGOS\server\v18\Source\Source\_DirectX\d3dutil.cpp
;	COMDAT ?HandleMouseMessages@CD3DArcBall@@QAEJPAUHWND__@@IIJ@Z
_TEXT	SEGMENT
_qAxisToAxis$2 = -68					; size = 16
$T3 = -52						; size = 12
_vCur$4 = -52						; size = 12
_vB$5 = -40						; size = 12
_vA$6 = -28						; size = 12
_vHalf$7 = -16						; size = 12
__$ArrayPad$ = -4					; size = 4
_hWnd$ = 8						; size = 4
_uMsg$ = 12						; size = 4
_wParam$ = 16						; size = 4
_lParam$ = 20						; size = 4
?HandleMouseMessages@CD3DArcBall@@QAEJPAUHWND__@@IIJ@Z PROC ; CD3DArcBall::HandleMouseMessages, COMDAT
; _this$ = ecx

; 574  : {

  00000	55		 push	 ebp
  00001	8b ec		 mov	 ebp, esp
  00003	83 ec 44	 sub	 esp, 68			; 00000044H
  00006	a1 00 00 00 00	 mov	 eax, DWORD PTR ___security_cookie
  0000b	33 c5		 xor	 eax, ebp
  0000d	89 45 fc	 mov	 DWORD PTR __$ArrayPad$[ebp], eax

; 575  :     UNREFERENCED_PARAMETER( hWnd );
; 576  : 
; 577  :     static int         iCurMouseX;      // Saved mouse position
; 578  :     static int         iCurMouseY;
; 579  :     static D3DXVECTOR3 s_vDown;         // Button down vector
; 580  : 
; 581  :     // Current mouse position
; 582  :     int iMouseX = GET_X_LPARAM(lParam);

  00010	8b 45 14	 mov	 eax, DWORD PTR _lParam$[ebp]
  00013	53		 push	 ebx
  00014	0f bf d8	 movsx	 ebx, ax

; 583  :     int iMouseY = GET_Y_LPARAM(lParam);

  00017	c1 e8 10	 shr	 eax, 16			; 00000010H
  0001a	56		 push	 esi
  0001b	57		 push	 edi
  0001c	0f bf f8	 movsx	 edi, ax
  0001f	8b f1		 mov	 esi, ecx

; 584  : 
; 585  :     switch( uMsg )

  00021	8b 45 0c	 mov	 eax, DWORD PTR _uMsg$[ebp]
  00024	05 00 fe ff ff	 add	 eax, -512		; fffffe00H
  00029	83 f8 07	 cmp	 eax, 7
  0002c	0f 87 0e 03 00
	00		 ja	 $LN3@HandleMous
  00032	ff 24 85 00 00
	00 00		 jmp	 DWORD PTR $LN38@HandleMous[eax*4]
$LN5@HandleMous:

; 647  :     }
; 648  : 
; 649  :     return FALSE;
; 650  : }

  00039	89 1d 00 00 00
	00		 mov	 DWORD PTR ?iCurMouseX@?1??HandleMouseMessages@CD3DArcBall@@QAEJPAUHWND__@@IIJ@Z@4HA, ebx
  0003f	89 3d 00 00 00
	00		 mov	 DWORD PTR ?iCurMouseY@?1??HandleMouseMessages@CD3DArcBall@@QAEJPAUHWND__@@IIJ@Z@4HA, edi
$LN14@HandleMous:
  00045	5f		 pop	 edi
  00046	5e		 pop	 esi
  00047	b8 01 00 00 00	 mov	 eax, 1
  0004c	5b		 pop	 ebx
  0004d	8b 4d fc	 mov	 ecx, DWORD PTR __$ArrayPad$[ebp]
  00050	33 cd		 xor	 ecx, ebp
  00052	e8 00 00 00 00	 call	 @__security_check_cookie@4
  00057	8b e5		 mov	 esp, ebp
  00059	5d		 pop	 ebp
  0005a	c2 10 00	 ret	 16			; 00000010H
$LN7@HandleMous:

; 586  :     {
; 587  :         case WM_RBUTTONDOWN:
; 588  :         case WM_MBUTTONDOWN:
; 589  :             // Store off the position of the cursor when the button is pressed
; 590  :             iCurMouseX = iMouseX;
; 591  :             iCurMouseY = iMouseY;
; 592  :             return TRUE;
; 593  : 
; 594  :         case WM_LBUTTONDOWN:
; 595  :             // Start drag mode
; 596  :             m_bDrag = TRUE;
; 597  :             s_vDown = ScreenToVector( iMouseX, iMouseY );

  0005d	57		 push	 edi
  0005e	53		 push	 ebx
  0005f	8d 45 cc	 lea	 eax, DWORD PTR $T3[ebp]
  00062	c7 86 30 01 00
	00 01 00 00 00	 mov	 DWORD PTR [esi+304], 1
  0006c	50		 push	 eax
  0006d	e8 00 00 00 00	 call	 ?ScreenToVector@CD3DArcBall@@AAE?AUD3DXVECTOR3@@HH@Z ; CD3DArcBall::ScreenToVector
  00072	5f		 pop	 edi
  00073	f3 0f 7e 00	 movq	 xmm0, QWORD PTR [eax]
  00077	66 0f d6 05 00
	00 00 00	 movq	 QWORD PTR ?s_vDown@?1??HandleMouseMessages@CD3DArcBall@@QAEJPAUHWND__@@IIJ@Z@4UD3DXVECTOR3@@A, xmm0
  0007f	8b 40 08	 mov	 eax, DWORD PTR [eax+8]
  00082	a3 08 00 00 00	 mov	 DWORD PTR ?s_vDown@?1??HandleMouseMessages@CD3DArcBall@@QAEJPAUHWND__@@IIJ@Z@4UD3DXVECTOR3@@A+8, eax

; 598  :             m_qDown = m_qNow;
; 599  :             return TRUE;

  00087	b8 01 00 00 00	 mov	 eax, 1
  0008c	0f 10 46 20	 movups	 xmm0, XMMWORD PTR [esi+32]
  00090	0f 11 46 10	 movups	 XMMWORD PTR [esi+16], xmm0

; 647  :     }
; 648  : 
; 649  :     return FALSE;
; 650  : }

  00094	5e		 pop	 esi
  00095	5b		 pop	 ebx
  00096	8b 4d fc	 mov	 ecx, DWORD PTR __$ArrayPad$[ebp]
  00099	33 cd		 xor	 ecx, ebp
  0009b	e8 00 00 00 00	 call	 @__security_check_cookie@4
  000a0	8b e5		 mov	 esp, ebp
  000a2	5d		 pop	 ebp
  000a3	c2 10 00	 ret	 16			; 00000010H
$LN8@HandleMous:
  000a6	5f		 pop	 edi

; 600  : 
; 601  :         case WM_LBUTTONUP:
; 602  :             // End drag mode
; 603  :             m_bDrag = FALSE;

  000a7	c7 86 30 01 00
	00 00 00 00 00	 mov	 DWORD PTR [esi+304], 0

; 604  :             return TRUE;

  000b1	b8 01 00 00 00	 mov	 eax, 1

; 647  :     }
; 648  : 
; 649  :     return FALSE;
; 650  : }

  000b6	5e		 pop	 esi
  000b7	5b		 pop	 ebx
  000b8	8b 4d fc	 mov	 ecx, DWORD PTR __$ArrayPad$[ebp]
  000bb	33 cd		 xor	 ecx, ebp
  000bd	e8 00 00 00 00	 call	 @__security_check_cookie@4
  000c2	8b e5		 mov	 esp, ebp
  000c4	5d		 pop	 ebp
  000c5	c2 10 00	 ret	 16			; 00000010H
$LN9@HandleMous:

; 605  : 
; 606  :         case WM_MOUSEMOVE:
; 607  :             // Drag object
; 608  :             if( MK_LBUTTON&wParam )

  000c8	8b 4d 10	 mov	 ecx, DWORD PTR _wParam$[ebp]
  000cb	f6 c1 01	 test	 cl, 1
  000ce	0f 84 c3 01 00
	00		 je	 $LN10@HandleMous

; 609  :             {
; 610  :                 if( m_bDrag )

  000d4	83 be 30 01 00
	00 00		 cmp	 DWORD PTR [esi+304], 0
  000db	0f 84 06 01 00
	00		 je	 $LN12@HandleMous

; 611  :                 {
; 612  :                     // recompute m_qNow
; 613  :                     D3DXVECTOR3 vCur = ScreenToVector( iMouseX, iMouseY );

  000e1	57		 push	 edi
  000e2	53		 push	 ebx
  000e3	8d 45 cc	 lea	 eax, DWORD PTR _vCur$4[ebp]
  000e6	8b ce		 mov	 ecx, esi
  000e8	50		 push	 eax
  000e9	e8 00 00 00 00	 call	 ?ScreenToVector@CD3DArcBall@@AAE?AUD3DXVECTOR3@@HH@Z ; CD3DArcBall::ScreenToVector

; 464  :     D3DXVec3Normalize(&vA, pvFrom);

  000ee	68 00 00 00 00	 push	 OFFSET ?s_vDown@?1??HandleMouseMessages@CD3DArcBall@@QAEJPAUHWND__@@IIJ@Z@4UD3DXVECTOR3@@A
  000f3	8d 45 e4	 lea	 eax, DWORD PTR _vA$6[ebp]
  000f6	50		 push	 eax
  000f7	e8 00 00 00 00	 call	 _D3DXVec3Normalize@8

; 465  :     D3DXVec3Normalize(&vB, pvTo);

  000fc	8d 45 cc	 lea	 eax, DWORD PTR _vCur$4[ebp]
  000ff	50		 push	 eax
  00100	8d 45 d8	 lea	 eax, DWORD PTR _vB$5[ebp]
  00103	50		 push	 eax
  00104	e8 00 00 00 00	 call	 _D3DXVec3Normalize@8
; File C:\IAGOS\server\v18\Source\Source\DX_SDK\d3dx9math.inl

; 377  :     return D3DXVECTOR3(x + v.x, y + v.y, z + v.z);

  00109	f3 0f 10 45 d8	 movss	 xmm0, DWORD PTR _vB$5[ebp]
; File C:\IAGOS\server\v18\Source\Source\_DirectX\d3dutil.cpp

; 467  :     D3DXVec3Normalize(&vHalf, &vHalf);

  0010e	8d 45 f0	 lea	 eax, DWORD PTR _vHalf$7[ebp]
; File C:\IAGOS\server\v18\Source\Source\DX_SDK\d3dx9math.inl

; 377  :     return D3DXVECTOR3(x + v.x, y + v.y, z + v.z);

  00111	f3 0f 58 45 e4	 addss	 xmm0, DWORD PTR _vA$6[ebp]
; File C:\IAGOS\server\v18\Source\Source\_DirectX\d3dutil.cpp

; 467  :     D3DXVec3Normalize(&vHalf, &vHalf);

  00116	50		 push	 eax
  00117	50		 push	 eax
; File C:\IAGOS\server\v18\Source\Source\DX_SDK\d3dx9math.inl

; 300  :     x = fx;

  00118	f3 0f 11 45 f0	 movss	 DWORD PTR _vHalf$7[ebp], xmm0

; 377  :     return D3DXVECTOR3(x + v.x, y + v.y, z + v.z);

  0011d	f3 0f 10 45 e8	 movss	 xmm0, DWORD PTR _vA$6[ebp+4]
  00122	f3 0f 58 45 dc	 addss	 xmm0, DWORD PTR _vB$5[ebp+4]

; 301  :     y = fy;

  00127	f3 0f 11 45 f4	 movss	 DWORD PTR _vHalf$7[ebp+4], xmm0

; 377  :     return D3DXVECTOR3(x + v.x, y + v.y, z + v.z);

  0012c	f3 0f 10 45 ec	 movss	 xmm0, DWORD PTR _vA$6[ebp+8]
  00131	f3 0f 58 45 e0	 addss	 xmm0, DWORD PTR _vB$5[ebp+8]

; 302  :     z = fz;

  00136	f3 0f 11 45 f8	 movss	 DWORD PTR _vHalf$7[ebp+8], xmm0
; File C:\IAGOS\server\v18\Source\Source\_DirectX\d3dutil.cpp

; 467  :     D3DXVec3Normalize(&vHalf, &vHalf);

  0013b	e8 00 00 00 00	 call	 _D3DXVec3Normalize@8
; File C:\IAGOS\server\v18\Source\Source\DX_SDK\d3dx9math.inl

; 1722 :     v.x = pV1->y * pV2->z - pV1->z * pV2->y;

  00140	f3 0f 10 7d e8	 movss	 xmm7, DWORD PTR _vA$6[ebp+4]

; 1093 :     D3DXQuaternionMultiply(this, this, &q);

  00145	8d 45 bc	 lea	 eax, DWORD PTR _qAxisToAxis$2[ebp]

; 1722 :     v.x = pV1->y * pV2->z - pV1->z * pV2->y;

  00148	f3 0f 10 6d f4	 movss	 xmm5, DWORD PTR _vHalf$7[ebp+4]
; File C:\IAGOS\server\v18\Source\Source\_DirectX\d3dutil.cpp

; 616  :                     m_qNow = m_qDown;

  0014d	8d 7e 20	 lea	 edi, DWORD PTR [esi+32]
; File C:\IAGOS\server\v18\Source\Source\DX_SDK\d3dx9math.inl

; 1722 :     v.x = pV1->y * pV2->z - pV1->z * pV2->y;

  00150	f3 0f 10 45 ec	 movss	 xmm0, DWORD PTR _vA$6[ebp+8]
  00155	f3 0f 10 65 f8	 movss	 xmm4, DWORD PTR _vHalf$7[ebp+8]

; 1723 :     v.y = pV1->z * pV2->x - pV1->x * pV2->z;

  0015a	f3 0f 10 75 f0	 movss	 xmm6, DWORD PTR _vHalf$7[ebp]
  0015f	f3 0f 10 55 e4	 movss	 xmm2, DWORD PTR _vA$6[ebp]
  00164	f3 0f 10 5d ec	 movss	 xmm3, DWORD PTR _vA$6[ebp+8]

; 1724 :     v.z = pV1->x * pV2->y - pV1->y * pV2->x;

  00169	0f 28 ca	 movaps	 xmm1, xmm2
  0016c	f3 0f 59 c5	 mulss	 xmm0, xmm5

; 1093 :     D3DXQuaternionMultiply(this, this, &q);

  00170	50		 push	 eax

; 1722 :     v.x = pV1->y * pV2->z - pV1->z * pV2->y;

  00171	f3 0f 59 e7	 mulss	 xmm4, xmm7

; 1093 :     D3DXQuaternionMultiply(this, this, &q);

  00175	57		 push	 edi

; 1723 :     v.y = pV1->z * pV2->x - pV1->x * pV2->z;

  00176	f3 0f 59 de	 mulss	 xmm3, xmm6

; 1093 :     D3DXQuaternionMultiply(this, this, &q);

  0017a	57		 push	 edi

; 1722 :     v.x = pV1->y * pV2->z - pV1->z * pV2->y;

  0017b	f3 0f 5c e0	 subss	 xmm4, xmm0

; 1724 :     v.z = pV1->x * pV2->y - pV1->y * pV2->x;

  0017f	f3 0f 59 cd	 mulss	 xmm1, xmm5
  00183	f3 0f 10 45 f8	 movss	 xmm0, DWORD PTR _vHalf$7[ebp+8]
  00188	f3 0f 59 c2	 mulss	 xmm0, xmm2
; File C:\IAGOS\server\v18\Source\Source\_DirectX\d3dutil.cpp

; 444  :     pOut->x = vAxis.x;

  0018c	f3 0f 11 65 bc	 movss	 DWORD PTR _qAxisToAxis$2[ebp], xmm4
; File C:\IAGOS\server\v18\Source\Source\DX_SDK\d3dx9math.inl

; 1723 :     v.y = pV1->z * pV2->x - pV1->x * pV2->z;

  00191	f3 0f 5c d8	 subss	 xmm3, xmm0

; 1724 :     v.z = pV1->x * pV2->y - pV1->y * pV2->x;

  00195	0f 28 c6	 movaps	 xmm0, xmm6
  00198	f3 0f 59 c7	 mulss	 xmm0, xmm7

; 1709 :     return pV1->x * pV2->x + pV1->y * pV2->y + pV1->z * pV2->z;

  0019c	f3 0f 59 f2	 mulss	 xmm6, xmm2

; 1724 :     v.z = pV1->x * pV2->y - pV1->y * pV2->x;

  001a0	f3 0f 5c c8	 subss	 xmm1, xmm0

; 1709 :     return pV1->x * pV2->x + pV1->y * pV2->y + pV1->z * pV2->z;

  001a4	f3 0f 59 fd	 mulss	 xmm7, xmm5
  001a8	f3 0f 10 45 f8	 movss	 xmm0, DWORD PTR _vHalf$7[ebp+8]
  001ad	f3 0f 59 45 ec	 mulss	 xmm0, DWORD PTR _vA$6[ebp+8]
  001b2	f3 0f 58 f7	 addss	 xmm6, xmm7
; File C:\IAGOS\server\v18\Source\Source\_DirectX\d3dutil.cpp

; 445  :     pOut->y = vAxis.y;

  001b6	f3 0f 11 5d c0	 movss	 DWORD PTR _qAxisToAxis$2[ebp+4], xmm3

; 446  :     pOut->z = vAxis.z;

  001bb	f3 0f 11 4d c4	 movss	 DWORD PTR _qAxisToAxis$2[ebp+8], xmm1
; File C:\IAGOS\server\v18\Source\Source\DX_SDK\d3dx9math.inl

; 1709 :     return pV1->x * pV2->x + pV1->y * pV2->y + pV1->z * pV2->z;

  001c0	f3 0f 58 f0	 addss	 xmm6, xmm0
; File C:\IAGOS\server\v18\Source\Source\_DirectX\d3dutil.cpp

; 616  :                     m_qNow = m_qDown;

  001c4	0f 10 46 10	 movups	 xmm0, XMMWORD PTR [esi+16]
  001c8	0f 11 07	 movups	 XMMWORD PTR [edi], xmm0

; 447  :     pOut->w = D3DXVec3Dot( pvFrom, pvTo );

  001cb	f3 0f 11 75 c8	 movss	 DWORD PTR _qAxisToAxis$2[ebp+12], xmm6
; File C:\IAGOS\server\v18\Source\Source\DX_SDK\d3dx9math.inl

; 1093 :     D3DXQuaternionMultiply(this, this, &q);

  001d0	e8 00 00 00 00	 call	 _D3DXQuaternionMultiply@12
; File C:\IAGOS\server\v18\Source\Source\_DirectX\d3dutil.cpp

; 618  :                     D3DXMatrixRotationQuaternion(&m_matRotationDelta, &qAxisToAxis);

  001d5	8d 45 bc	 lea	 eax, DWORD PTR _qAxisToAxis$2[ebp]
  001d8	50		 push	 eax
  001d9	8d 46 70	 lea	 eax, DWORD PTR [esi+112]
  001dc	50		 push	 eax
  001dd	e8 00 00 00 00	 call	 _D3DXMatrixRotationQuaternion@8

; 619  :                 }

  001e2	e9 97 00 00 00	 jmp	 $LN13@HandleMous
$LN12@HandleMous:
; File C:\IAGOS\server\v18\Source\Source\DX_SDK\d3dx9math.inl

; 1961 :     pOut->m[0][1] = pOut->m[0][2] = pOut->m[0][3] =

  001e7	c7 86 a8 00 00
	00 00 00 00 00	 mov	 DWORD PTR [esi+168], 0

; 1962 :     pOut->m[1][0] = pOut->m[1][2] = pOut->m[1][3] =
; 1963 :     pOut->m[2][0] = pOut->m[2][1] = pOut->m[2][3] =
; 1964 :     pOut->m[3][0] = pOut->m[3][1] = pOut->m[3][2] = 0.0f;
; 1965 : 
; 1966 :     pOut->m[0][0] = pOut->m[1][1] = pOut->m[2][2] = pOut->m[3][3] = 1.0f;

  001f1	8d 7e 20	 lea	 edi, DWORD PTR [esi+32]
  001f4	c7 86 a4 00 00
	00 00 00 00 00	 mov	 DWORD PTR [esi+164], 0
  001fe	c7 86 a0 00 00
	00 00 00 00 00	 mov	 DWORD PTR [esi+160], 0
  00208	c7 86 9c 00 00
	00 00 00 00 00	 mov	 DWORD PTR [esi+156], 0
  00212	c7 86 94 00 00
	00 00 00 00 00	 mov	 DWORD PTR [esi+148], 0
  0021c	c7 86 90 00 00
	00 00 00 00 00	 mov	 DWORD PTR [esi+144], 0
  00226	c7 86 8c 00 00
	00 00 00 00 00	 mov	 DWORD PTR [esi+140], 0
  00230	c7 86 88 00 00
	00 00 00 00 00	 mov	 DWORD PTR [esi+136], 0
  0023a	c7 86 80 00 00
	00 00 00 00 00	 mov	 DWORD PTR [esi+128], 0
  00244	c7 46 7c 00 00
	00 00		 mov	 DWORD PTR [esi+124], 0
  0024b	c7 46 78 00 00
	00 00		 mov	 DWORD PTR [esi+120], 0
  00252	c7 46 74 00 00
	00 00		 mov	 DWORD PTR [esi+116], 0
  00259	c7 86 ac 00 00
	00 00 00 80 3f	 mov	 DWORD PTR [esi+172], 1065353216 ; 3f800000H
  00263	c7 86 98 00 00
	00 00 00 80 3f	 mov	 DWORD PTR [esi+152], 1065353216 ; 3f800000H
  0026d	c7 86 84 00 00
	00 00 00 80 3f	 mov	 DWORD PTR [esi+132], 1065353216 ; 3f800000H
  00277	c7 46 70 00 00
	80 3f		 mov	 DWORD PTR [esi+112], 1065353216 ; 3f800000H
$LN13@HandleMous:
; File C:\IAGOS\server\v18\Source\Source\_DirectX\d3dutil.cpp

; 622  :                 D3DXMatrixRotationQuaternion(&m_matRotation, &m_qNow);

  0027e	57		 push	 edi
  0027f	8d 46 30	 lea	 eax, DWORD PTR [esi+48]
  00282	50		 push	 eax
  00283	e8 00 00 00 00	 call	 _D3DXMatrixRotationQuaternion@8

; 623  :                 m_bDrag = TRUE;

  00288	c7 86 30 01 00
	00 01 00 00 00	 mov	 DWORD PTR [esi+304], 1

; 624  :             }

  00292	e9 ae fd ff ff	 jmp	 $LN14@HandleMous
$LN10@HandleMous:
  00297	f6 c1 12	 test	 cl, 18			; 00000012H

; 625  :             else if( (MK_RBUTTON&wParam) || (MK_MBUTTON&wParam) )

  0029a	0f 84 a5 fd ff
	ff		 je	 $LN14@HandleMous

; 626  :             {
; 627  :                 // Normalize based on size of window and bounding sphere radius
; 628  :                 FLOAT fDeltaX = ( iCurMouseX-iMouseX ) * m_fRadiusTranslation / m_iWidth;
; 629  :                 FLOAT fDeltaY = ( iCurMouseY-iMouseY ) * m_fRadiusTranslation / m_iHeight;

  002a0	a1 00 00 00 00	 mov	 eax, DWORD PTR ?iCurMouseY@?1??HandleMouseMessages@CD3DArcBall@@QAEJPAUHWND__@@IIJ@Z@4HA

; 630  : 
; 631  :                 if( wParam & MK_RBUTTON )

  002a5	8d 96 f0 00 00
	00		 lea	 edx, DWORD PTR [esi+240]
  002ab	66 0f 6e 46 04	 movd	 xmm0, DWORD PTR [esi+4]
  002b0	2b c7		 sub	 eax, edi
  002b2	f3 0f 10 5e 0c	 movss	 xmm3, DWORD PTR [esi+12]
  002b7	0f 5b c0	 cvtdq2ps xmm0, xmm0
  002ba	66 0f 6e c8	 movd	 xmm1, eax
  002be	0f 5b c9	 cvtdq2ps xmm1, xmm1
  002c1	f3 0f 59 cb	 mulss	 xmm1, xmm3
  002c5	f3 0f 5e c8	 divss	 xmm1, xmm0
  002c9	f6 c1 02	 test	 cl, 2
  002cc	74 31		 je	 SHORT $LN16@HandleMous

; 632  :                 {
; 633  :                     D3DXMatrixTranslation( &m_matTranslationDelta, -2*fDeltaX, 2*fDeltaY, 0.0f );

  002ce	a1 00 00 00 00	 mov	 eax, DWORD PTR ?iCurMouseX@?1??HandleMouseMessages@CD3DArcBall@@QAEJPAUHWND__@@IIJ@Z@4HA
  002d3	f3 0f 58 c9	 addss	 xmm1, xmm1
  002d7	66 0f 6e 06	 movd	 xmm0, DWORD PTR [esi]
  002db	2b c3		 sub	 eax, ebx
  002dd	0f 5b c0	 cvtdq2ps xmm0, xmm0
  002e0	66 0f 6e d0	 movd	 xmm2, eax
  002e4	0f 5b d2	 cvtdq2ps xmm2, xmm2
  002e7	f3 0f 59 d3	 mulss	 xmm2, xmm3
  002eb	f3 0f 5e d0	 divss	 xmm2, xmm0
  002ef	0f 28 c1	 movaps	 xmm0, xmm1
  002f2	0f 57 c9	 xorps	 xmm1, xmm1
  002f5	f3 0f 59 15 00
	00 00 00	 mulss	 xmm2, DWORD PTR __real@c0000000

; 634  :                     D3DXMatrixMultiply( &m_matTranslation, &m_matTranslation, &m_matTranslationDelta );
; 635  :                 }

  002fd	eb 0e		 jmp	 SHORT $LN17@HandleMous
$LN16@HandleMous:

; 636  :                 else  // wParam & MK_MBUTTON
; 637  :                 {
; 638  :                     D3DXMatrixTranslation( &m_matTranslationDelta, 0.0f, 0.0f, 5*fDeltaY );

  002ff	f3 0f 59 0d 00
	00 00 00	 mulss	 xmm1, DWORD PTR __real@40a00000
  00307	0f 57 d2	 xorps	 xmm2, xmm2
  0030a	0f 57 c0	 xorps	 xmm0, xmm0
$LN17@HandleMous:

; 639  :                     D3DXMatrixMultiply( &m_matTranslation, &m_matTranslation, &m_matTranslationDelta );
; 640  :                 }
; 641  : 
; 642  :                 // Store mouse coordinate
; 643  :                 iCurMouseX = iMouseX;

  0030d	83 ec 0c	 sub	 esp, 12			; 0000000cH
  00310	f3 0f 11 4c 24
	08		 movss	 DWORD PTR [esp+8], xmm1
  00316	f3 0f 11 44 24
	04		 movss	 DWORD PTR [esp+4], xmm0
  0031c	f3 0f 11 14 24	 movss	 DWORD PTR [esp], xmm2
  00321	52		 push	 edx
  00322	e8 00 00 00 00	 call	 _D3DXMatrixTranslation@16
  00327	8d 86 f0 00 00
	00		 lea	 eax, DWORD PTR [esi+240]
  0032d	50		 push	 eax
  0032e	8d 86 b0 00 00
	00		 lea	 eax, DWORD PTR [esi+176]
  00334	50		 push	 eax
  00335	50		 push	 eax
  00336	e8 00 00 00 00	 call	 _D3DXMatrixMultiply@12

; 644  :                 iCurMouseY = iMouseY;
; 645  :             }
; 646  :             return TRUE;

  0033b	e9 f9 fc ff ff	 jmp	 $LN5@HandleMous
$LN3@HandleMous:

; 647  :     }
; 648  : 
; 649  :     return FALSE;
; 650  : }

  00340	8b 4d fc	 mov	 ecx, DWORD PTR __$ArrayPad$[ebp]
  00343	33 c0		 xor	 eax, eax
  00345	5f		 pop	 edi
  00346	5e		 pop	 esi
  00347	33 cd		 xor	 ecx, ebp
  00349	5b		 pop	 ebx
  0034a	e8 00 00 00 00	 call	 @__security_check_cookie@4
  0034f	8b e5		 mov	 esp, ebp
  00351	5d		 pop	 ebp
  00352	c2 10 00	 ret	 16			; 00000010H
  00355	0f 1f 00	 npad	 3
$LN38@HandleMous:
  00358	00 00 00 00	 DD	 $LN9@HandleMous
  0035c	00 00 00 00	 DD	 $LN7@HandleMous
  00360	00 00 00 00	 DD	 $LN8@HandleMous
  00364	00 00 00 00	 DD	 $LN3@HandleMous
  00368	00 00 00 00	 DD	 $LN5@HandleMous
  0036c	00 00 00 00	 DD	 $LN3@HandleMous
  00370	00 00 00 00	 DD	 $LN3@HandleMous
  00374	00 00 00 00	 DD	 $LN5@HandleMous
?HandleMouseMessages@CD3DArcBall@@QAEJPAUHWND__@@IIJ@Z ENDP ; CD3DArcBall::HandleMouseMessages
_TEXT	ENDS
; Function compile flags: /Ogtp
; File C:\IAGOS\server\v18\Source\Source\_DirectX\d3dutil.cpp
; File C:\Program Files (x86)\Windows Kits\10\Include\10.0.26100.0\ucrt\corecrt_math.h
; File C:\IAGOS\server\v18\Source\Source\_DirectX\d3dutil.cpp
; File C:\Program Files (x86)\Windows Kits\10\Include\10.0.26100.0\ucrt\corecrt_math.h
; File C:\IAGOS\server\v18\Source\Source\_DirectX\d3dutil.cpp
; File C:\Program Files (x86)\Windows Kits\10\Include\10.0.26100.0\ucrt\corecrt_math.h
; File C:\IAGOS\server\v18\Source\Source\DX_SDK\d3dx9math.inl
; File C:\IAGOS\server\v18\Source\Source\_DirectX\d3dutil.cpp
; File C:\IAGOS\server\v18\Source\Source\DX_SDK\d3dx9math.inl
; File C:\IAGOS\server\v18\Source\Source\_DirectX\d3dutil.cpp
;	COMDAT ?ScreenToVector@CD3DArcBall@@AAE?AUD3DXVECTOR3@@HH@Z
_TEXT	SEGMENT
_x$1$ = -12						; size = 4
_y$1$ = -8						; size = 4
_z$1$ = -4						; size = 4
___$ReturnUdt$ = 8					; size = 4
_sx$ = 12						; size = 4
_sy$ = 16						; size = 4
?ScreenToVector@CD3DArcBall@@AAE?AUD3DXVECTOR3@@HH@Z PROC ; CD3DArcBall::ScreenToVector, COMDAT
; _this$ = ecx

; 526  : {

  00000	55		 push	 ebp
  00001	8b ec		 mov	 ebp, esp
  00003	83 e4 f8	 and	 esp, -8			; fffffff8H
  00006	83 ec 10	 sub	 esp, 16			; 00000010H
  00009	56		 push	 esi
  0000a	57		 push	 edi
  0000b	8b f9		 mov	 edi, ecx

; 527  :     // Scale to screen
; 528  :     FLOAT x   = -(sx - m_iWidth/2)  / (m_fRadius*m_iWidth/2);
; 529  :     FLOAT y   =  (sy - m_iHeight/2) / (m_fRadius*m_iHeight/2);

  0000d	8b 4d 10	 mov	 ecx, DWORD PTR _sy$[ebp]
  00010	8b 37		 mov	 esi, DWORD PTR [edi]
  00012	8b c6		 mov	 eax, esi
  00014	99		 cdq
  00015	2b c2		 sub	 eax, edx
  00017	d1 f8		 sar	 eax, 1
  00019	2b 45 0c	 sub	 eax, DWORD PTR _sx$[ebp]
  0001c	66 0f 6e c6	 movd	 xmm0, esi
  00020	8b 77 04	 mov	 esi, DWORD PTR [edi+4]
  00023	0f 5b c0	 cvtdq2ps xmm0, xmm0
  00026	66 0f 6e d8	 movd	 xmm3, eax
  0002a	8b c6		 mov	 eax, esi
  0002c	f3 0f 59 47 08	 mulss	 xmm0, DWORD PTR [edi+8]
  00031	99		 cdq
  00032	0f 5b db	 cvtdq2ps xmm3, xmm3
  00035	2b c2		 sub	 eax, edx
  00037	d1 f8		 sar	 eax, 1
  00039	2b c8		 sub	 ecx, eax

; 530  : 
; 531  :     if( m_bRightHanded )

  0003b	83 bf 34 01 00
	00 00		 cmp	 DWORD PTR [edi+308], 0
  00042	f3 0f 59 05 00
	00 00 00	 mulss	 xmm0, DWORD PTR __real@3f000000
  0004a	66 0f 6e e1	 movd	 xmm4, ecx
  0004e	0f 5b e4	 cvtdq2ps xmm4, xmm4
  00051	f3 0f 5e d8	 divss	 xmm3, xmm0
  00055	66 0f 6e c6	 movd	 xmm0, esi
  00059	0f 5b c0	 cvtdq2ps xmm0, xmm0
  0005c	f3 0f 11 5c 24
	0c		 movss	 DWORD PTR _x$1$[esp+24], xmm3
  00062	f3 0f 59 47 08	 mulss	 xmm0, DWORD PTR [edi+8]
  00067	f3 0f 59 05 00
	00 00 00	 mulss	 xmm0, DWORD PTR __real@3f000000
  0006f	f3 0f 5e e0	 divss	 xmm4, xmm0
  00073	f3 0f 11 64 24
	10		 movss	 DWORD PTR _y$1$[esp+24], xmm4
  00079	74 1a		 je	 SHORT $LN2@ScreenToVe

; 532  :     {
; 533  :         x = -x;

  0007b	0f 57 1d 00 00
	00 00		 xorps	 xmm3, DWORD PTR __xmm@80000000800000008000000080000000

; 534  :         y = -y;

  00082	0f 57 25 00 00
	00 00		 xorps	 xmm4, DWORD PTR __xmm@80000000800000008000000080000000
  00089	f3 0f 11 5c 24
	0c		 movss	 DWORD PTR _x$1$[esp+24], xmm3
  0008f	f3 0f 11 64 24
	10		 movss	 DWORD PTR _y$1$[esp+24], xmm4
$LN2@ScreenToVe:

; 535  :     }
; 536  : 
; 537  :     FLOAT z   = 0.0f;
; 538  :     FLOAT mag = x*x + y*y;

  00095	0f 57 c0	 xorps	 xmm0, xmm0
  00098	0f 28 cc	 movaps	 xmm1, xmm4
  0009b	f3 0f 11 44 24
	14		 movss	 DWORD PTR _z$1$[esp+24], xmm0
  000a1	0f 28 c3	 movaps	 xmm0, xmm3
  000a4	f3 0f 59 c3	 mulss	 xmm0, xmm3
  000a8	f3 0f 59 cc	 mulss	 xmm1, xmm4
  000ac	f3 0f 58 c8	 addss	 xmm1, xmm0

; 539  : 
; 540  :     if( mag > 1.0f )

  000b0	f3 0f 10 05 00
	00 00 00	 movss	 xmm0, DWORD PTR __real@3f800000
  000b8	0f 2f c8	 comiss	 xmm1, xmm0
  000bb	76 44		 jbe	 SHORT $LN3@ScreenToVe
; File C:\Program Files (x86)\Windows Kits\10\Include\10.0.26100.0\ucrt\corecrt_math.h

; 799  :             return (float)sqrt(_X);

  000bd	0f 57 c0	 xorps	 xmm0, xmm0
  000c0	f3 0f 5a c1	 cvtss2sd xmm0, xmm1
  000c4	0f 57 c9	 xorps	 xmm1, xmm1
  000c7	66 0f 2e c8	 ucomisd xmm1, xmm0
  000cb	77 06		 ja	 SHORT $LN12@ScreenToVe
  000cd	f2 0f 51 c0	 sqrtsd	 xmm0, xmm0
  000d1	eb 05		 jmp	 SHORT $LN13@ScreenToVe
$LN12@ScreenToVe:
  000d3	e8 00 00 00 00	 call	 __libm_sse2_sqrt_precise
$LN13@ScreenToVe:
; File C:\IAGOS\server\v18\Source\Source\_DirectX\d3dutil.cpp

; 542  :         FLOAT scale = 1.0f/sqrtf(mag);

  000d8	f3 0f 10 15 00
	00 00 00	 movss	 xmm2, DWORD PTR __real@3f800000
; File C:\Program Files (x86)\Windows Kits\10\Include\10.0.26100.0\ucrt\corecrt_math.h

; 799  :             return (float)sqrt(_X);

  000e0	f2 0f 5a c0	 cvtsd2ss xmm0, xmm0
; File C:\IAGOS\server\v18\Source\Source\_DirectX\d3dutil.cpp

; 543  :         x *= scale;

  000e4	f3 0f 10 4c 24
	0c		 movss	 xmm1, DWORD PTR _x$1$[esp+24]
  000ea	f3 0f 5e d0	 divss	 xmm2, xmm0
  000ee	0f 28 c2	 movaps	 xmm0, xmm2
  000f1	f3 0f 59 c8	 mulss	 xmm1, xmm0

; 544  :         y *= scale;

  000f5	f3 0f 10 44 24
	10		 movss	 xmm0, DWORD PTR _y$1$[esp+24]
  000fb	f3 0f 59 c2	 mulss	 xmm0, xmm2

; 545  :     }

  000ff	eb 31		 jmp	 SHORT $LN4@ScreenToVe
$LN3@ScreenToVe:

; 546  :     else
; 547  :         z = sqrtf( 1.0f - mag );

  00101	f3 0f 5c c1	 subss	 xmm0, xmm1
  00105	0f 57 c9	 xorps	 xmm1, xmm1
; File C:\Program Files (x86)\Windows Kits\10\Include\10.0.26100.0\ucrt\corecrt_math.h

; 799  :             return (float)sqrt(_X);

  00108	0f 5a c0	 cvtps2pd xmm0, xmm0
  0010b	66 0f 2e c8	 ucomisd xmm1, xmm0
  0010f	77 06		 ja	 SHORT $LN14@ScreenToVe
  00111	f2 0f 51 c0	 sqrtsd	 xmm0, xmm0
  00115	eb 05		 jmp	 SHORT $LN15@ScreenToVe
$LN14@ScreenToVe:
  00117	e8 00 00 00 00	 call	 __libm_sse2_sqrt_precise
$LN15@ScreenToVe:
  0011c	f3 0f 10 4c 24
	0c		 movss	 xmm1, DWORD PTR _x$1$[esp+24]
  00122	f2 0f 5a c0	 cvtsd2ss xmm0, xmm0
  00126	f3 0f 11 44 24
	14		 movss	 DWORD PTR _z$1$[esp+24], xmm0
  0012c	f3 0f 10 44 24
	10		 movss	 xmm0, DWORD PTR _y$1$[esp+24]
$LN4@ScreenToVe:
; File C:\IAGOS\server\v18\Source\Source\DX_SDK\d3dx9math.inl

; 300  :     x = fx;

  00132	8b 45 08	 mov	 eax, DWORD PTR ___$ReturnUdt$[ebp]
; File C:\IAGOS\server\v18\Source\Source\_DirectX\d3dutil.cpp

; 551  : }

  00135	5f		 pop	 edi
  00136	5e		 pop	 esi
; File C:\IAGOS\server\v18\Source\Source\DX_SDK\d3dx9math.inl

; 301  :     y = fy;

  00137	f3 0f 11 40 04	 movss	 DWORD PTR [eax+4], xmm0

; 302  :     z = fz;

  0013c	f3 0f 10 44 24
	0c		 movss	 xmm0, DWORD PTR _z$1$[esp+16]
  00142	f3 0f 11 08	 movss	 DWORD PTR [eax], xmm1
  00146	f3 0f 11 40 08	 movss	 DWORD PTR [eax+8], xmm0
; File C:\IAGOS\server\v18\Source\Source\_DirectX\d3dutil.cpp

; 551  : }

  0014b	8b e5		 mov	 esp, ebp
  0014d	5d		 pop	 ebp
  0014e	c2 0c 00	 ret	 12			; 0000000cH
?ScreenToVector@CD3DArcBall@@AAE?AUD3DXVECTOR3@@HH@Z ENDP ; CD3DArcBall::ScreenToVector
_TEXT	ENDS
; Function compile flags: /Ogtp
; File C:\IAGOS\server\v18\Source\Source\_DirectX\d3dutil.cpp
; File C:\Program Files (x86)\Windows Kits\10\Include\10.0.26100.0\ucrt\tchar.h
; File C:\IAGOS\server\v18\Source\Source\_DirectX\d3dutil.cpp
;	COMDAT ?D3DUtil_D3DFormatToString@@YAPADW4_D3DFORMAT@@_N@Z
_TEXT	SEGMENT
_format$ = 8						; size = 4
_bWithPrefix$ = 12					; size = 1
?D3DUtil_D3DFormatToString@@YAPADW4_D3DFORMAT@@_N@Z PROC ; D3DUtil_D3DFormatToString, COMDAT

; 364  : {

  00000	55		 push	 ebp
  00001	8b ec		 mov	 ebp, esp

; 365  :     TCHAR* pstr = NULL;
; 366  :     switch( format )

  00003	8b 45 08	 mov	 eax, DWORD PTR _format$[ebp]
  00006	56		 push	 esi
  00007	3d 4d 45 54 31	 cmp	 eax, 827606349		; 3154454dH
  0000c	0f 8f fb 01 00
	00		 jg	 $LN65@D3DUtil_D3
  00012	0f 84 ee 01 00
	00		 je	 $LN52@D3DUtil_D3
  00018	83 f8 75	 cmp	 eax, 117		; 00000075H
  0001b	0f 87 3b 02 00
	00		 ja	 $LN60@D3DUtil_D3
  00021	0f b6 80 00 00
	00 00		 movzx	 eax, BYTE PTR $LN71@D3DUtil_D3[eax]
  00028	ff 24 85 00 00
	00 00		 jmp	 DWORD PTR $LN72@D3DUtil_D3[eax*4]
$LN4@D3DUtil_D3:

; 367  :     {
; 368  :     case D3DFMT_UNKNOWN:         pstr = TEXT("D3DFMT_UNKNOWN"); break;

  0002f	be 00 00 00 00	 mov	 esi, OFFSET ??_C@_0P@FCGOGLON@D3DFMT_UNKNOWN@
  00034	e9 3d 02 00 00	 jmp	 $LN2@D3DUtil_D3
$LN5@D3DUtil_D3:

; 369  :     case D3DFMT_R8G8B8:          pstr = TEXT("D3DFMT_R8G8B8"); break;

  00039	be 00 00 00 00	 mov	 esi, OFFSET ??_C@_0O@OOCIJBAM@D3DFMT_R8G8B8@
  0003e	e9 33 02 00 00	 jmp	 $LN2@D3DUtil_D3
$LN6@D3DUtil_D3:

; 370  :     case D3DFMT_A8R8G8B8:        pstr = TEXT("D3DFMT_A8R8G8B8"); break;

  00043	be 00 00 00 00	 mov	 esi, OFFSET ??_C@_0BA@CHHHKFAO@D3DFMT_A8R8G8B8@
  00048	e9 29 02 00 00	 jmp	 $LN2@D3DUtil_D3
$LN7@D3DUtil_D3:

; 371  :     case D3DFMT_X8R8G8B8:        pstr = TEXT("D3DFMT_X8R8G8B8"); break;

  0004d	be 00 00 00 00	 mov	 esi, OFFSET ??_C@_0BA@CHBEFBCE@D3DFMT_X8R8G8B8@
  00052	e9 1f 02 00 00	 jmp	 $LN2@D3DUtil_D3
$LN8@D3DUtil_D3:

; 372  :     case D3DFMT_R5G6B5:          pstr = TEXT("D3DFMT_R5G6B5"); break;

  00057	be 00 00 00 00	 mov	 esi, OFFSET ??_C@_0O@HMHILKM@D3DFMT_R5G6B5@
  0005c	e9 15 02 00 00	 jmp	 $LN2@D3DUtil_D3
$LN9@D3DUtil_D3:

; 373  :     case D3DFMT_X1R5G5B5:        pstr = TEXT("D3DFMT_X1R5G5B5"); break;

  00061	be 00 00 00 00	 mov	 esi, OFFSET ??_C@_0BA@MDABPPEB@D3DFMT_X1R5G5B5@
  00066	e9 0b 02 00 00	 jmp	 $LN2@D3DUtil_D3
$LN10@D3DUtil_D3:

; 374  :     case D3DFMT_A1R5G5B5:        pstr = TEXT("D3DFMT_A1R5G5B5"); break;

  0006b	be 00 00 00 00	 mov	 esi, OFFSET ??_C@_0BA@MDGCALGL@D3DFMT_A1R5G5B5@
  00070	e9 01 02 00 00	 jmp	 $LN2@D3DUtil_D3
$LN11@D3DUtil_D3:

; 375  :     case D3DFMT_A4R4G4B4:        pstr = TEXT("D3DFMT_A4R4G4B4"); break;

  00075	be 00 00 00 00	 mov	 esi, OFFSET ??_C@_0BA@OBHJIAIO@D3DFMT_A4R4G4B4@
  0007a	e9 f7 01 00 00	 jmp	 $LN2@D3DUtil_D3
$LN12@D3DUtil_D3:

; 376  :     case D3DFMT_R3G3B2:          pstr = TEXT("D3DFMT_R3G3B2"); break;

  0007f	be 00 00 00 00	 mov	 esi, OFFSET ??_C@_0O@KJABAOEE@D3DFMT_R3G3B2@
  00084	e9 ed 01 00 00	 jmp	 $LN2@D3DUtil_D3
$LN13@D3DUtil_D3:

; 377  :     case D3DFMT_A8:              pstr = TEXT("D3DFMT_A8"); break;

  00089	be 00 00 00 00	 mov	 esi, OFFSET ??_C@_09JNGIHEFB@D3DFMT_A8@
  0008e	e9 e3 01 00 00	 jmp	 $LN2@D3DUtil_D3
$LN14@D3DUtil_D3:

; 378  :     case D3DFMT_A8R3G3B2:        pstr = TEXT("D3DFMT_A8R3G3B2"); break;

  00093	be 00 00 00 00	 mov	 esi, OFFSET ??_C@_0BA@GAFODKEG@D3DFMT_A8R3G3B2@
  00098	e9 d9 01 00 00	 jmp	 $LN2@D3DUtil_D3
$LN15@D3DUtil_D3:

; 379  :     case D3DFMT_X4R4G4B4:        pstr = TEXT("D3DFMT_X4R4G4B4"); break;

  0009d	be 00 00 00 00	 mov	 esi, OFFSET ??_C@_0BA@OBBKHEKE@D3DFMT_X4R4G4B4@
  000a2	e9 cf 01 00 00	 jmp	 $LN2@D3DUtil_D3
$LN16@D3DUtil_D3:

; 380  :     case D3DFMT_A2B10G10R10:     pstr = TEXT("D3DFMT_A2B10G10R10"); break;

  000a7	be 00 00 00 00	 mov	 esi, OFFSET ??_C@_0BD@OELFJMLB@D3DFMT_A2B10G10R10@
  000ac	e9 c5 01 00 00	 jmp	 $LN2@D3DUtil_D3
$LN17@D3DUtil_D3:

; 381  :     case D3DFMT_A8B8G8R8:        pstr = TEXT("D3DFMT_A8B8G8R8"); break;

  000b1	be 00 00 00 00	 mov	 esi, OFFSET ??_C@_0BA@FMIPJKLA@D3DFMT_A8B8G8R8@
  000b6	e9 bb 01 00 00	 jmp	 $LN2@D3DUtil_D3
$LN18@D3DUtil_D3:

; 382  :     case D3DFMT_X8B8G8R8:        pstr = TEXT("D3DFMT_X8B8G8R8"); break;

  000bb	be 00 00 00 00	 mov	 esi, OFFSET ??_C@_0BA@FMOMGOJK@D3DFMT_X8B8G8R8@
  000c0	e9 b1 01 00 00	 jmp	 $LN2@D3DUtil_D3
$LN19@D3DUtil_D3:

; 383  :     case D3DFMT_G16R16:          pstr = TEXT("D3DFMT_G16R16"); break;

  000c5	be 00 00 00 00	 mov	 esi, OFFSET ??_C@_0O@KENMFGDC@D3DFMT_G16R16@
  000ca	e9 a7 01 00 00	 jmp	 $LN2@D3DUtil_D3
$LN20@D3DUtil_D3:

; 384  :     case D3DFMT_A2R10G10B10:     pstr = TEXT("D3DFMT_A2R10G10B10"); break;

  000cf	be 00 00 00 00	 mov	 esi, OFFSET ??_C@_0BD@JDACEKMG@D3DFMT_A2R10G10B10@
  000d4	e9 9d 01 00 00	 jmp	 $LN2@D3DUtil_D3
$LN21@D3DUtil_D3:

; 385  :     case D3DFMT_A16B16G16R16:    pstr = TEXT("D3DFMT_A16B16G16R16"); break;

  000d9	be 00 00 00 00	 mov	 esi, OFFSET ??_C@_0BE@GGADDKEH@D3DFMT_A16B16G16R16@
  000de	e9 93 01 00 00	 jmp	 $LN2@D3DUtil_D3
$LN22@D3DUtil_D3:

; 386  :     case D3DFMT_A8P8:            pstr = TEXT("D3DFMT_A8P8"); break;

  000e3	be 00 00 00 00	 mov	 esi, OFFSET ??_C@_0M@IPOLNGBD@D3DFMT_A8P8@
  000e8	e9 89 01 00 00	 jmp	 $LN2@D3DUtil_D3
$LN23@D3DUtil_D3:

; 387  :     case D3DFMT_P8:              pstr = TEXT("D3DFMT_P8"); break;

  000ed	be 00 00 00 00	 mov	 esi, OFFSET ??_C@_09IAIMLNBG@D3DFMT_P8@
  000f2	e9 7f 01 00 00	 jmp	 $LN2@D3DUtil_D3
$LN24@D3DUtil_D3:

; 388  :     case D3DFMT_L8:              pstr = TEXT("D3DFMT_L8"); break;

  000f7	be 00 00 00 00	 mov	 esi, OFFSET ??_C@_09JFLAOHAC@D3DFMT_L8@
  000fc	e9 75 01 00 00	 jmp	 $LN2@D3DUtil_D3
$LN25@D3DUtil_D3:

; 389  :     case D3DFMT_A8L8:            pstr = TEXT("D3DFMT_A8L8"); break;

  00101	be 00 00 00 00	 mov	 esi, OFFSET ??_C@_0M@JKNHIMAH@D3DFMT_A8L8@
  00106	e9 6b 01 00 00	 jmp	 $LN2@D3DUtil_D3
$LN26@D3DUtil_D3:

; 390  :     case D3DFMT_A4L4:            pstr = TEXT("D3DFMT_A4L4"); break;

  0010b	be 00 00 00 00	 mov	 esi, OFFSET ??_C@_0M@HMLEHMLD@D3DFMT_A4L4@
  00110	e9 61 01 00 00	 jmp	 $LN2@D3DUtil_D3
$LN27@D3DUtil_D3:

; 391  :     case D3DFMT_V8U8:            pstr = TEXT("D3DFMT_V8U8"); break;

  00115	be 00 00 00 00	 mov	 esi, OFFSET ??_C@_0M@FLOAFPGK@D3DFMT_V8U8@
  0011a	e9 57 01 00 00	 jmp	 $LN2@D3DUtil_D3
$LN28@D3DUtil_D3:

; 392  :     case D3DFMT_L6V5U5:          pstr = TEXT("D3DFMT_L6V5U5"); break;

  0011f	be 00 00 00 00	 mov	 esi, OFFSET ??_C@_0O@OAOOLKLI@D3DFMT_L6V5U5@
  00124	e9 4d 01 00 00	 jmp	 $LN2@D3DUtil_D3
$LN29@D3DUtil_D3:

; 393  :     case D3DFMT_X8L8V8U8:        pstr = TEXT("D3DFMT_X8L8V8U8"); break;

  00129	be 00 00 00 00	 mov	 esi, OFFSET ??_C@_0BA@FEBMLNHA@D3DFMT_X8L8V8U8@
  0012e	e9 43 01 00 00	 jmp	 $LN2@D3DUtil_D3
$LN30@D3DUtil_D3:

; 394  :     case D3DFMT_Q8W8V8U8:        pstr = TEXT("D3DFMT_Q8W8V8U8"); break;

  00133	be 00 00 00 00	 mov	 esi, OFFSET ??_C@_0BA@JNGGMDBP@D3DFMT_Q8W8V8U8@
  00138	e9 39 01 00 00	 jmp	 $LN2@D3DUtil_D3
$LN31@D3DUtil_D3:

; 395  :     case D3DFMT_V16U16:          pstr = TEXT("D3DFMT_V16U16"); break;

  0013d	be 00 00 00 00	 mov	 esi, OFFSET ??_C@_0O@PIKCPJPB@D3DFMT_V16U16@
  00142	e9 2f 01 00 00	 jmp	 $LN2@D3DUtil_D3
$LN32@D3DUtil_D3:

; 396  :     case D3DFMT_A2W10V10U10:     pstr = TEXT("D3DFMT_A2W10V10U10"); break;

  00147	be 00 00 00 00	 mov	 esi, OFFSET ??_C@_0BD@HJEMHJNO@D3DFMT_A2W10V10U10@
  0014c	e9 25 01 00 00	 jmp	 $LN2@D3DUtil_D3
$LN40@D3DUtil_D3:

; 404  :     case D3DFMT_D16_LOCKABLE:    pstr = TEXT("D3DFMT_D16_LOCKABLE"); break;

  00151	be 00 00 00 00	 mov	 esi, OFFSET ??_C@_0BE@GKJJNPH@D3DFMT_D16_LOCKABLE@
  00156	e9 1b 01 00 00	 jmp	 $LN2@D3DUtil_D3
$LN41@D3DUtil_D3:

; 405  :     case D3DFMT_D32:             pstr = TEXT("D3DFMT_D32"); break;

  0015b	be 00 00 00 00	 mov	 esi, OFFSET ??_C@_0L@MKAKECLE@D3DFMT_D32@
  00160	e9 11 01 00 00	 jmp	 $LN2@D3DUtil_D3
$LN42@D3DUtil_D3:

; 406  :     case D3DFMT_D15S1:           pstr = TEXT("D3DFMT_D15S1"); break;

  00165	be 00 00 00 00	 mov	 esi, OFFSET ??_C@_0N@FHMLHNII@D3DFMT_D15S1@
  0016a	e9 07 01 00 00	 jmp	 $LN2@D3DUtil_D3
$LN43@D3DUtil_D3:

; 407  :     case D3DFMT_D24S8:           pstr = TEXT("D3DFMT_D24S8"); break;

  0016f	be 00 00 00 00	 mov	 esi, OFFSET ??_C@_0N@HJBFNLHE@D3DFMT_D24S8@
  00174	e9 fd 00 00 00	 jmp	 $LN2@D3DUtil_D3
$LN44@D3DUtil_D3:

; 408  :     case D3DFMT_D24X8:           pstr = TEXT("D3DFMT_D24X8"); break;

  00179	be 00 00 00 00	 mov	 esi, OFFSET ??_C@_0N@HFEADEJF@D3DFMT_D24X8@
  0017e	e9 f3 00 00 00	 jmp	 $LN2@D3DUtil_D3
$LN45@D3DUtil_D3:

; 409  :     case D3DFMT_D24X4S4:         pstr = TEXT("D3DFMT_D24X4S4"); break;

  00183	be 00 00 00 00	 mov	 esi, OFFSET ??_C@_0P@LCIECDAM@D3DFMT_D24X4S4@
  00188	e9 e9 00 00 00	 jmp	 $LN2@D3DUtil_D3
$LN46@D3DUtil_D3:

; 410  :     case D3DFMT_D16:             pstr = TEXT("D3DFMT_D16"); break;

  0018d	be 00 00 00 00	 mov	 esi, OFFSET ??_C@_0L@KNOCFDNO@D3DFMT_D16@
  00192	e9 df 00 00 00	 jmp	 $LN2@D3DUtil_D3
$LN47@D3DUtil_D3:

; 411  :     case D3DFMT_L16:             pstr = TEXT("D3DFMT_L16"); break;

  00197	be 00 00 00 00	 mov	 esi, OFFSET ??_C@_0L@GIFGHLDB@D3DFMT_L16@
  0019c	e9 d5 00 00 00	 jmp	 $LN2@D3DUtil_D3
$LN48@D3DUtil_D3:

; 412  :     case D3DFMT_VERTEXDATA:      pstr = TEXT("D3DFMT_VERTEXDATA"); break;

  001a1	be 00 00 00 00	 mov	 esi, OFFSET ??_C@_0BC@LPMKMLOH@D3DFMT_VERTEXDATA@
  001a6	e9 cb 00 00 00	 jmp	 $LN2@D3DUtil_D3
$LN49@D3DUtil_D3:

; 413  :     case D3DFMT_INDEX16:         pstr = TEXT("D3DFMT_INDEX16"); break;

  001ab	be 00 00 00 00	 mov	 esi, OFFSET ??_C@_0P@JJIOOHAH@D3DFMT_INDEX16@
  001b0	e9 c1 00 00 00	 jmp	 $LN2@D3DUtil_D3
$LN50@D3DUtil_D3:

; 414  :     case D3DFMT_INDEX32:         pstr = TEXT("D3DFMT_INDEX32"); break;

  001b5	be 00 00 00 00	 mov	 esi, OFFSET ??_C@_0P@POGGPGGN@D3DFMT_INDEX32@
  001ba	e9 b7 00 00 00	 jmp	 $LN2@D3DUtil_D3
$LN51@D3DUtil_D3:

; 415  :     case D3DFMT_Q16W16V16U16:    pstr = TEXT("D3DFMT_Q16W16V16U16"); break;

  001bf	be 00 00 00 00	 mov	 esi, OFFSET ??_C@_0BE@EPPNHJPC@D3DFMT_Q16W16V16U16@
  001c4	e9 ad 00 00 00	 jmp	 $LN2@D3DUtil_D3
$LN53@D3DUtil_D3:

; 417  :     case D3DFMT_R16F:            pstr = TEXT("D3DFMT_R16F"); break;

  001c9	be 00 00 00 00	 mov	 esi, OFFSET ??_C@_0M@CIEFJHCB@D3DFMT_R16F@
  001ce	e9 a3 00 00 00	 jmp	 $LN2@D3DUtil_D3
$LN54@D3DUtil_D3:

; 418  :     case D3DFMT_G16R16F:         pstr = TEXT("D3DFMT_G16R16F"); break;

  001d3	be 00 00 00 00	 mov	 esi, OFFSET ??_C@_0P@GOFAGFFF@D3DFMT_G16R16F@
  001d8	e9 99 00 00 00	 jmp	 $LN2@D3DUtil_D3
$LN55@D3DUtil_D3:

; 419  :     case D3DFMT_A16B16G16R16F:   pstr = TEXT("D3DFMT_A16B16G16R16F"); break;

  001dd	be 00 00 00 00	 mov	 esi, OFFSET ??_C@_0BF@EOPNDPIK@D3DFMT_A16B16G16R16F@
  001e2	e9 8f 00 00 00	 jmp	 $LN2@D3DUtil_D3
$LN56@D3DUtil_D3:

; 420  :     case D3DFMT_R32F:            pstr = TEXT("D3DFMT_R32F"); break;

  001e7	be 00 00 00 00	 mov	 esi, OFFSET ??_C@_0M@IFEFPHHG@D3DFMT_R32F@
  001ec	e9 85 00 00 00	 jmp	 $LN2@D3DUtil_D3
$LN57@D3DUtil_D3:

; 421  :     case D3DFMT_G32R32F:         pstr = TEXT("D3DFMT_G32R32F"); break;

  001f1	be 00 00 00 00	 mov	 esi, OFFSET ??_C@_0P@MPFOFGDN@D3DFMT_G32R32F@
  001f6	eb 7e		 jmp	 SHORT $LN2@D3DUtil_D3
$LN58@D3DUtil_D3:

; 422  :     case D3DFMT_A32B32G32R32F:   pstr = TEXT("D3DFMT_A32B32G32R32F"); break;

  001f8	be 00 00 00 00	 mov	 esi, OFFSET ??_C@_0BF@NFLAADOH@D3DFMT_A32B32G32R32F@
  001fd	eb 77		 jmp	 SHORT $LN2@D3DUtil_D3
$LN59@D3DUtil_D3:

; 423  :     case D3DFMT_CxV8U8:          pstr = TEXT("D3DFMT_CxV8U8"); break;

  001ff	be 00 00 00 00	 mov	 esi, OFFSET ??_C@_0O@GEDAAHNN@D3DFMT_CxV8U8@
  00204	eb 70		 jmp	 SHORT $LN2@D3DUtil_D3
$LN52@D3DUtil_D3:

; 416  :     case D3DFMT_MULTI2_ARGB8:    pstr = TEXT("D3DFMT_MULTI2_ARGB8"); break;

  00206	be 00 00 00 00	 mov	 esi, OFFSET ??_C@_0BE@LCLDBCOL@D3DFMT_MULTI2_ARGB8@
  0020b	eb 69		 jmp	 SHORT $LN2@D3DUtil_D3
$LN65@D3DUtil_D3:

; 365  :     TCHAR* pstr = NULL;
; 366  :     switch( format )

  0020d	3d 44 58 54 33	 cmp	 eax, 861165636		; 33545844H
  00212	7f 33		 jg	 SHORT $LN66@D3DUtil_D3
  00214	74 2a		 je	 SHORT $LN37@D3DUtil_D3
  00216	3d 44 58 54 31	 cmp	 eax, 827611204		; 31545844H
  0021b	74 1c		 je	 SHORT $LN35@D3DUtil_D3
  0021d	3d 44 58 54 32	 cmp	 eax, 844388420		; 32545844H
  00222	74 0e		 je	 SHORT $LN36@D3DUtil_D3
  00224	3d 59 55 59 32	 cmp	 eax, 844715353		; 32595559H
  00229	75 31		 jne	 SHORT $LN60@D3DUtil_D3

; 398  :     case D3DFMT_YUY2:            pstr = TEXT("D3DFMT_YUY2"); break;

  0022b	be 00 00 00 00	 mov	 esi, OFFSET ??_C@_0M@ODAJPGIL@D3DFMT_YUY2@
  00230	eb 44		 jmp	 SHORT $LN2@D3DUtil_D3
$LN36@D3DUtil_D3:

; 400  :     case D3DFMT_DXT2:            pstr = TEXT("D3DFMT_DXT2"); break;

  00232	be 00 00 00 00	 mov	 esi, OFFSET ??_C@_0M@IBMLOODG@D3DFMT_DXT2@
  00237	eb 3d		 jmp	 SHORT $LN2@D3DUtil_D3
$LN35@D3DUtil_D3:

; 399  :     case D3DFMT_DXT1:            pstr = TEXT("D3DFMT_DXT1"); break;

  00239	be 00 00 00 00	 mov	 esi, OFFSET ??_C@_0M@KKOGLNPF@D3DFMT_DXT1@
  0023e	eb 36		 jmp	 SHORT $LN2@D3DUtil_D3
$LN37@D3DUtil_D3:

; 401  :     case D3DFMT_DXT3:            pstr = TEXT("D3DFMT_DXT3"); break;

  00240	be 00 00 00 00	 mov	 esi, OFFSET ??_C@_0M@JINANPHH@D3DFMT_DXT3@
  00245	eb 2f		 jmp	 SHORT $LN2@D3DUtil_D3
$LN66@D3DUtil_D3:

; 365  :     TCHAR* pstr = NULL;
; 366  :     switch( format )

  00247	3d 44 58 54 34	 cmp	 eax, 877942852		; 34545844H
  0024c	74 23		 je	 SHORT $LN38@D3DUtil_D3
  0024e	3d 44 58 54 35	 cmp	 eax, 894720068		; 35545844H
  00253	74 15		 je	 SHORT $LN39@D3DUtil_D3
  00255	3d 55 59 56 59	 cmp	 eax, 1498831189		; 59565955H
  0025a	74 07		 je	 SHORT $LN33@D3DUtil_D3
$LN60@D3DUtil_D3:

; 424  :     default:                     pstr = TEXT("Unknown format"); break;

  0025c	be 00 00 00 00	 mov	 esi, OFFSET ??_C@_0P@BJJPCHFI@Unknown?5format@
  00261	eb 13		 jmp	 SHORT $LN2@D3DUtil_D3
$LN33@D3DUtil_D3:

; 397  :     case D3DFMT_UYVY:            pstr = TEXT("D3DFMT_UYVY"); break;

  00263	be 00 00 00 00	 mov	 esi, OFFSET ??_C@_0M@OBHKFBGD@D3DFMT_UYVY@
  00268	eb 0c		 jmp	 SHORT $LN2@D3DUtil_D3
$LN39@D3DUtil_D3:

; 403  :     case D3DFMT_DXT5:            pstr = TEXT("D3DFMT_DXT5"); break;

  0026a	be 00 00 00 00	 mov	 esi, OFFSET ??_C@_0M@MOIKHIPB@D3DFMT_DXT5@
  0026f	eb 05		 jmp	 SHORT $LN2@D3DUtil_D3
$LN38@D3DUtil_D3:

; 402  :     case D3DFMT_DXT4:            pstr = TEXT("D3DFMT_DXT4"); break;

  00271	be 00 00 00 00	 mov	 esi, OFFSET ??_C@_0M@NHJBEJLA@D3DFMT_DXT4@
$LN2@D3DUtil_D3:

; 426  :     if( bWithPrefix || _tcsstr( pstr, TEXT("D3DFMT_") )== NULL )

  00276	80 7d 0c 00	 cmp	 BYTE PTR _bWithPrefix$[ebp], 0
  0027a	75 22		 jne	 SHORT $LN63@D3DUtil_D3
; File C:\Program Files (x86)\Windows Kits\10\Include\10.0.26100.0\ucrt\tchar.h

; 1550 : _Check_return_ __inline _CRPC _tcsstr(_In_z_ _CPC _s1,_In_z_ _CPC _s2) {return (_CRPC)_mbsstr((_CPUC)_s1,(_CPUC)_s2);}

  0027c	68 00 00 00 00	 push	 OFFSET ??_C@_07NCBDPBMK@D3DFMT_@
  00281	56		 push	 esi
  00282	e8 00 00 00 00	 call	 __mbsstr
  00287	83 c4 08	 add	 esp, 8
; File C:\IAGOS\server\v18\Source\Source\_DirectX\d3dutil.cpp

; 426  :     if( bWithPrefix || _tcsstr( pstr, TEXT("D3DFMT_") )== NULL )

  0028a	85 c0		 test	 eax, eax
  0028c	74 10		 je	 SHORT $LN63@D3DUtil_D3

; 428  :     else
; 429  :         return pstr + lstrlen( TEXT("D3DFMT_") );

  0028e	68 00 00 00 00	 push	 OFFSET ??_C@_07NCBDPBMK@D3DFMT_@
  00293	ff 15 00 00 00
	00		 call	 DWORD PTR __imp__lstrlenA@4
  00299	03 c6		 add	 eax, esi
  0029b	5e		 pop	 esi

; 430  : }

  0029c	5d		 pop	 ebp
  0029d	c3		 ret	 0
$LN63@D3DUtil_D3:

; 427  :         return pstr;

  0029e	8b c6		 mov	 eax, esi
  002a0	5e		 pop	 esi

; 430  : }

  002a1	5d		 pop	 ebp
  002a2	c3		 ret	 0
  002a3	90		 npad	 1
$LN72@D3DUtil_D3:
  002a4	00 00 00 00	 DD	 $LN4@D3DUtil_D3
  002a8	00 00 00 00	 DD	 $LN5@D3DUtil_D3
  002ac	00 00 00 00	 DD	 $LN6@D3DUtil_D3
  002b0	00 00 00 00	 DD	 $LN7@D3DUtil_D3
  002b4	00 00 00 00	 DD	 $LN8@D3DUtil_D3
  002b8	00 00 00 00	 DD	 $LN9@D3DUtil_D3
  002bc	00 00 00 00	 DD	 $LN10@D3DUtil_D3
  002c0	00 00 00 00	 DD	 $LN11@D3DUtil_D3
  002c4	00 00 00 00	 DD	 $LN12@D3DUtil_D3
  002c8	00 00 00 00	 DD	 $LN13@D3DUtil_D3
  002cc	00 00 00 00	 DD	 $LN14@D3DUtil_D3
  002d0	00 00 00 00	 DD	 $LN15@D3DUtil_D3
  002d4	00 00 00 00	 DD	 $LN16@D3DUtil_D3
  002d8	00 00 00 00	 DD	 $LN17@D3DUtil_D3
  002dc	00 00 00 00	 DD	 $LN18@D3DUtil_D3
  002e0	00 00 00 00	 DD	 $LN19@D3DUtil_D3
  002e4	00 00 00 00	 DD	 $LN20@D3DUtil_D3
  002e8	00 00 00 00	 DD	 $LN21@D3DUtil_D3
  002ec	00 00 00 00	 DD	 $LN22@D3DUtil_D3
  002f0	00 00 00 00	 DD	 $LN23@D3DUtil_D3
  002f4	00 00 00 00	 DD	 $LN24@D3DUtil_D3
  002f8	00 00 00 00	 DD	 $LN25@D3DUtil_D3
  002fc	00 00 00 00	 DD	 $LN26@D3DUtil_D3
  00300	00 00 00 00	 DD	 $LN27@D3DUtil_D3
  00304	00 00 00 00	 DD	 $LN28@D3DUtil_D3
  00308	00 00 00 00	 DD	 $LN29@D3DUtil_D3
  0030c	00 00 00 00	 DD	 $LN30@D3DUtil_D3
  00310	00 00 00 00	 DD	 $LN31@D3DUtil_D3
  00314	00 00 00 00	 DD	 $LN32@D3DUtil_D3
  00318	00 00 00 00	 DD	 $LN40@D3DUtil_D3
  0031c	00 00 00 00	 DD	 $LN41@D3DUtil_D3
  00320	00 00 00 00	 DD	 $LN42@D3DUtil_D3
  00324	00 00 00 00	 DD	 $LN43@D3DUtil_D3
  00328	00 00 00 00	 DD	 $LN44@D3DUtil_D3
  0032c	00 00 00 00	 DD	 $LN45@D3DUtil_D3
  00330	00 00 00 00	 DD	 $LN46@D3DUtil_D3
  00334	00 00 00 00	 DD	 $LN47@D3DUtil_D3
  00338	00 00 00 00	 DD	 $LN48@D3DUtil_D3
  0033c	00 00 00 00	 DD	 $LN49@D3DUtil_D3
  00340	00 00 00 00	 DD	 $LN50@D3DUtil_D3
  00344	00 00 00 00	 DD	 $LN51@D3DUtil_D3
  00348	00 00 00 00	 DD	 $LN53@D3DUtil_D3
  0034c	00 00 00 00	 DD	 $LN54@D3DUtil_D3
  00350	00 00 00 00	 DD	 $LN55@D3DUtil_D3
  00354	00 00 00 00	 DD	 $LN56@D3DUtil_D3
  00358	00 00 00 00	 DD	 $LN57@D3DUtil_D3
  0035c	00 00 00 00	 DD	 $LN58@D3DUtil_D3
  00360	00 00 00 00	 DD	 $LN59@D3DUtil_D3
  00364	00 00 00 00	 DD	 $LN60@D3DUtil_D3
$LN71@D3DUtil_D3:
  00368	00		 DB	 0
  00369	30		 DB	 48			; 00000030H
  0036a	30		 DB	 48			; 00000030H
  0036b	30		 DB	 48			; 00000030H
  0036c	30		 DB	 48			; 00000030H
  0036d	30		 DB	 48			; 00000030H
  0036e	30		 DB	 48			; 00000030H
  0036f	30		 DB	 48			; 00000030H
  00370	30		 DB	 48			; 00000030H
  00371	30		 DB	 48			; 00000030H
  00372	30		 DB	 48			; 00000030H
  00373	30		 DB	 48			; 00000030H
  00374	30		 DB	 48			; 00000030H
  00375	30		 DB	 48			; 00000030H
  00376	30		 DB	 48			; 00000030H
  00377	30		 DB	 48			; 00000030H
  00378	30		 DB	 48			; 00000030H
  00379	30		 DB	 48			; 00000030H
  0037a	30		 DB	 48			; 00000030H
  0037b	30		 DB	 48			; 00000030H
  0037c	01		 DB	 1
  0037d	02		 DB	 2
  0037e	03		 DB	 3
  0037f	04		 DB	 4
  00380	05		 DB	 5
  00381	06		 DB	 6
  00382	07		 DB	 7
  00383	08		 DB	 8
  00384	09		 DB	 9
  00385	0a		 DB	 10			; 0000000aH
  00386	0b		 DB	 11			; 0000000bH
  00387	0c		 DB	 12			; 0000000cH
  00388	0d		 DB	 13			; 0000000dH
  00389	0e		 DB	 14			; 0000000eH
  0038a	0f		 DB	 15			; 0000000fH
  0038b	10		 DB	 16			; 00000010H
  0038c	11		 DB	 17			; 00000011H
  0038d	30		 DB	 48			; 00000030H
  0038e	30		 DB	 48			; 00000030H
  0038f	30		 DB	 48			; 00000030H
  00390	12		 DB	 18			; 00000012H
  00391	13		 DB	 19			; 00000013H
  00392	30		 DB	 48			; 00000030H
  00393	30		 DB	 48			; 00000030H
  00394	30		 DB	 48			; 00000030H
  00395	30		 DB	 48			; 00000030H
  00396	30		 DB	 48			; 00000030H
  00397	30		 DB	 48			; 00000030H
  00398	30		 DB	 48			; 00000030H
  00399	30		 DB	 48			; 00000030H
  0039a	14		 DB	 20			; 00000014H
  0039b	15		 DB	 21			; 00000015H
  0039c	16		 DB	 22			; 00000016H
  0039d	30		 DB	 48			; 00000030H
  0039e	30		 DB	 48			; 00000030H
  0039f	30		 DB	 48			; 00000030H
  003a0	30		 DB	 48			; 00000030H
  003a1	30		 DB	 48			; 00000030H
  003a2	30		 DB	 48			; 00000030H
  003a3	30		 DB	 48			; 00000030H
  003a4	17		 DB	 23			; 00000017H
  003a5	18		 DB	 24			; 00000018H
  003a6	19		 DB	 25			; 00000019H
  003a7	1a		 DB	 26			; 0000001aH
  003a8	1b		 DB	 27			; 0000001bH
  003a9	30		 DB	 48			; 00000030H
  003aa	30		 DB	 48			; 00000030H
  003ab	1c		 DB	 28			; 0000001cH
  003ac	30		 DB	 48			; 00000030H
  003ad	30		 DB	 48			; 00000030H
  003ae	1d		 DB	 29			; 0000001dH
  003af	1e		 DB	 30			; 0000001eH
  003b0	30		 DB	 48			; 00000030H
  003b1	1f		 DB	 31			; 0000001fH
  003b2	30		 DB	 48			; 00000030H
  003b3	20		 DB	 32			; 00000020H
  003b4	30		 DB	 48			; 00000030H
  003b5	21		 DB	 33			; 00000021H
  003b6	30		 DB	 48			; 00000030H
  003b7	22		 DB	 34			; 00000022H
  003b8	23		 DB	 35			; 00000023H
  003b9	24		 DB	 36			; 00000024H
  003ba	30		 DB	 48			; 00000030H
  003bb	30		 DB	 48			; 00000030H
  003bc	30		 DB	 48			; 00000030H
  003bd	30		 DB	 48			; 00000030H
  003be	30		 DB	 48			; 00000030H
  003bf	30		 DB	 48			; 00000030H
  003c0	30		 DB	 48			; 00000030H
  003c1	30		 DB	 48			; 00000030H
  003c2	30		 DB	 48			; 00000030H
  003c3	30		 DB	 48			; 00000030H
  003c4	30		 DB	 48			; 00000030H
  003c5	30		 DB	 48			; 00000030H
  003c6	30		 DB	 48			; 00000030H
  003c7	30		 DB	 48			; 00000030H
  003c8	30		 DB	 48			; 00000030H
  003c9	30		 DB	 48			; 00000030H
  003ca	30		 DB	 48			; 00000030H
  003cb	30		 DB	 48			; 00000030H
  003cc	25		 DB	 37			; 00000025H
  003cd	26		 DB	 38			; 00000026H
  003ce	27		 DB	 39			; 00000027H
  003cf	30		 DB	 48			; 00000030H
  003d0	30		 DB	 48			; 00000030H
  003d1	30		 DB	 48			; 00000030H
  003d2	30		 DB	 48			; 00000030H
  003d3	30		 DB	 48			; 00000030H
  003d4	30		 DB	 48			; 00000030H
  003d5	30		 DB	 48			; 00000030H
  003d6	28		 DB	 40			; 00000028H
  003d7	29		 DB	 41			; 00000029H
  003d8	2a		 DB	 42			; 0000002aH
  003d9	2b		 DB	 43			; 0000002bH
  003da	2c		 DB	 44			; 0000002cH
  003db	2d		 DB	 45			; 0000002dH
  003dc	2e		 DB	 46			; 0000002eH
  003dd	2f		 DB	 47			; 0000002fH
?D3DUtil_D3DFormatToString@@YAPADW4_D3DFORMAT@@_N@Z ENDP ; D3DUtil_D3DFormatToString
_TEXT	ENDS
; Function compile flags: /Ogtp
; File C:\IAGOS\server\v18\Source\Source\_DirectX\d3dutil.cpp
;	COMDAT ?D3DUtil_SetDeviceCursor@@YAJPAUIDirect3DDevice9@@PAUHICON__@@H@Z
_TEXT	SEGMENT
_bm$ = -200						; size = 24
_lr$ = -176						; size = 8
tv1604 = -168						; size = 4
_iconinfo$ = -164					; size = 20
_pd3dDevice$GSCopy$1$ = -144				; size = 4
_pBitmap$1$ = -140					; size = 4
tv1616 = -136						; size = 4
_crMask$1$ = -132					; size = 4
_crMask$2$ = -132					; size = 4
tv1607 = -128						; size = 4
tv1612 = -128						; size = 4
_hdcColor$1$ = -124					; size = 4
_hdcScreen$1$ = -120					; size = 4
tv1601 = -116						; size = 4
tv1605 = -112						; size = 4
_bBWCursor$1$ = -108					; size = 4
_wMask$1 = -104						; size = 10
_pcrArrayColor$1$ = -92					; size = 4
_hdcMask$1$ = -88					; size = 4
tv1602 = -84						; size = 4
_dwWidth$1$ = -80					; size = 4
tv1595 = -76						; size = 4
tv1617 = -76						; size = 4
_pCursorSurface$ = -72					; size = 4
tv1610 = -68						; size = 4
tv1614 = -64						; size = 4
tv1619 = -64						; size = 4
_pcrArrayMask$1$ = -60					; size = 4
_dwHeightDest$1$ = -56					; size = 4
_y$1$ = -52						; size = 4
_bmi$ = -48						; size = 44
__$ArrayPad$ = -4					; size = 4
_pd3dDevice$ = 8					; size = 4
_hCursor$ = 12						; size = 4
_bAddWatermark$ = 16					; size = 4
?D3DUtil_SetDeviceCursor@@YAJPAUIDirect3DDevice9@@PAUHICON__@@H@Z PROC ; D3DUtil_SetDeviceCursor, COMDAT

; 199  : {

  00000	55		 push	 ebp
  00001	8b ec		 mov	 ebp, esp
  00003	81 ec c8 00 00
	00		 sub	 esp, 200		; 000000c8H
  00009	a1 00 00 00 00	 mov	 eax, DWORD PTR ___security_cookie
  0000e	33 c5		 xor	 eax, ebp
  00010	89 45 fc	 mov	 DWORD PTR __$ArrayPad$[ebp], eax
  00013	8b 45 08	 mov	 eax, DWORD PTR _pd3dDevice$[ebp]

; 200  :     HRESULT hr = E_FAIL;
; 201  :     ICONINFO iconinfo;
; 202  :     BOOL bBWCursor;
; 203  :     LPDIRECT3DSURFACE9 pCursorSurface = NULL;
; 204  :     HDC hdcColor = NULL;

  00016	33 c9		 xor	 ecx, ecx
  00018	53		 push	 ebx
  00019	56		 push	 esi
  0001a	57		 push	 edi
  0001b	89 4d 84	 mov	 DWORD PTR _hdcColor$1$[ebp], ecx
  0001e	0f 57 c0	 xorps	 xmm0, xmm0

; 205  :     HDC hdcMask = NULL;

  00021	89 4d a8	 mov	 DWORD PTR _hdcMask$1$[ebp], ecx
  00024	be 05 40 00 80	 mov	 esi, -2147467259	; 80004005H

; 206  :     HDC hdcScreen = NULL;

  00029	89 4d 88	 mov	 DWORD PTR _hdcScreen$1$[ebp], ecx

; 207  :     BITMAP bm;
; 208  :     DWORD dwWidth;
; 209  :     DWORD dwHeightSrc;
; 210  :     DWORD dwHeightDest;
; 211  :     COLORREF crColor;
; 212  :     COLORREF crMask;
; 213  :     UINT x;
; 214  :     UINT y;
; 215  :     BITMAPINFO bmi;
; 216  :     COLORREF* pcrArrayColor = NULL;
; 217  :     COLORREF* pcrArrayMask = NULL;

  0002c	33 db		 xor	 ebx, ebx
  0002e	89 4d a4	 mov	 DWORD PTR _pcrArrayColor$1$[ebp], ecx

; 218  :     DWORD* pBitmap;
; 219  :     HGDIOBJ hgdiobjOld;
; 220  : 
; 221  :     ZeroMemory( &iconinfo, sizeof(iconinfo) );

  00031	89 8d 6c ff ff
	ff		 mov	 DWORD PTR _iconinfo$[ebp+16], ecx

; 222  :     if( !GetIconInfo( hCursor, &iconinfo ) )

  00037	8d 8d 5c ff ff
	ff		 lea	 ecx, DWORD PTR _iconinfo$[ebp]
  0003d	89 85 70 ff ff
	ff		 mov	 DWORD PTR _pd3dDevice$GSCopy$1$[ebp], eax
  00043	8b 45 0c	 mov	 eax, DWORD PTR _hCursor$[ebp]
  00046	51		 push	 ecx
  00047	50		 push	 eax
  00048	c7 45 b8 00 00
	00 00		 mov	 DWORD PTR _pCursorSurface$[ebp], 0
  0004f	0f 11 85 5c ff
	ff ff		 movups	 XMMWORD PTR _iconinfo$[ebp], xmm0
  00056	ff 15 00 00 00
	00		 call	 DWORD PTR __imp__GetIconInfo@8
  0005c	85 c0		 test	 eax, eax
  0005e	0f 84 f3 03 00
	00		 je	 $End$95

; 223  :         goto End;
; 224  : 
; 225  :     if (0 == GetObject((HGDIOBJ)iconinfo.hbmMask, sizeof(BITMAP), (LPVOID)&bm))

  00064	8d 85 38 ff ff
	ff		 lea	 eax, DWORD PTR _bm$[ebp]
  0006a	50		 push	 eax
  0006b	6a 18		 push	 24			; 00000018H
  0006d	ff b5 68 ff ff
	ff		 push	 DWORD PTR _iconinfo$[ebp+12]
  00073	ff 15 00 00 00
	00		 call	 DWORD PTR __imp__GetObjectA@12
  00079	85 c0		 test	 eax, eax
  0007b	0f 84 d6 03 00
	00		 je	 $End$95

; 226  :         goto End;
; 227  :     dwWidth = bm.bmWidth;
; 228  :     dwHeightSrc = bm.bmHeight;
; 229  : 
; 230  :     if( iconinfo.hbmColor == NULL )

  00081	83 bd 6c ff ff
	ff 00		 cmp	 DWORD PTR _iconinfo$[ebp+16], 0
  00088	8b 9d 3c ff ff
	ff		 mov	 ebx, DWORD PTR _bm$[ebp+4]
  0008e	8b bd 40 ff ff
	ff		 mov	 edi, DWORD PTR _bm$[ebp+8]
  00094	8b cf		 mov	 ecx, edi
  00096	89 5d b0	 mov	 DWORD PTR _dwWidth$1$[ebp], ebx
  00099	75 0e		 jne	 SHORT $LN12@D3DUtil_Se

; 231  :     {
; 232  :         bBWCursor = TRUE;

  0009b	d1 e9		 shr	 ecx, 1
  0009d	c7 45 94 01 00
	00 00		 mov	 DWORD PTR _bBWCursor$1$[ebp], 1
  000a4	89 4d c8	 mov	 DWORD PTR _dwHeightDest$1$[ebp], ecx

; 233  :         dwHeightDest = dwHeightSrc / 2;
; 234  :     }

  000a7	eb 0a		 jmp	 SHORT $LN13@D3DUtil_Se
$LN12@D3DUtil_Se:

; 235  :     else 
; 236  :     {
; 237  :         bBWCursor = FALSE;

  000a9	c7 45 94 00 00
	00 00		 mov	 DWORD PTR _bBWCursor$1$[ebp], 0

; 238  :         dwHeightDest = dwHeightSrc;

  000b0	89 7d c8	 mov	 DWORD PTR _dwHeightDest$1$[ebp], edi
$LN13@D3DUtil_Se:

; 239  :     }
; 240  : 
; 241  :     // Create a surface for the fullscreen cursor
; 242  :     if( FAILED( hr = pd3dDevice->CreateOffscreenPlainSurface( dwWidth, dwHeightDest, 

  000b3	8b 95 70 ff ff
	ff		 mov	 edx, DWORD PTR _pd3dDevice$GSCopy$1$[ebp]
  000b9	8d 75 b8	 lea	 esi, DWORD PTR _pCursorSurface$[ebp]
  000bc	6a 00		 push	 0
  000be	56		 push	 esi
  000bf	6a 03		 push	 3
  000c1	8b 02		 mov	 eax, DWORD PTR [edx]
  000c3	6a 15		 push	 21			; 00000015H
  000c5	51		 push	 ecx
  000c6	53		 push	 ebx
  000c7	52		 push	 edx
  000c8	ff 90 90 00 00
	00		 call	 DWORD PTR [eax+144]
  000ce	8b f0		 mov	 esi, eax
  000d0	85 f6		 test	 esi, esi
  000d2	0f 88 7d 03 00
	00		 js	 $LN62@D3DUtil_Se

; 243  :         D3DFMT_A8R8G8B8, D3DPOOL_SCRATCH, &pCursorSurface, NULL ) ) )
; 244  :     {
; 245  :         goto End;
; 246  :     }
; 247  : 
; 248  :     pcrArrayMask = new DWORD[dwWidth * dwHeightSrc];

  000d8	8b c7		 mov	 eax, edi
  000da	b9 04 00 00 00	 mov	 ecx, 4
  000df	0f af c3	 imul	 eax, ebx
  000e2	f7 e1		 mul	 ecx
  000e4	b9 ff ff ff ff	 mov	 ecx, -1
  000e9	0f 42 c1	 cmovb	 eax, ecx
  000ec	50		 push	 eax
  000ed	e8 00 00 00 00	 call	 ??_U@YAPAXI@Z		; operator new[]
  000f2	83 c4 04	 add	 esp, 4
  000f5	89 45 c4	 mov	 DWORD PTR _pcrArrayMask$1$[ebp], eax
  000f8	0f 57 c0	 xorps	 xmm0, xmm0

; 249  : 
; 250  :     ZeroMemory(&bmi, sizeof(bmi));
; 251  :     bmi.bmiHeader.biSize = sizeof(bmi.bmiHeader);

  000fb	c7 45 d0 28 00
	00 00		 mov	 DWORD PTR _bmi$[ebp], 40 ; 00000028H
  00102	66 0f 13 45 e4	 movlpd	 QWORD PTR _bmi$[ebp+20], xmm0
  00107	66 0f 13 45 ec	 movlpd	 QWORD PTR _bmi$[ebp+28], xmm0

; 252  :     bmi.bmiHeader.biWidth = dwWidth;
; 253  :     bmi.bmiHeader.biHeight = dwHeightSrc;
; 254  :     bmi.bmiHeader.biPlanes = 1;
; 255  :     bmi.bmiHeader.biBitCount = 32;
; 256  :     bmi.bmiHeader.biCompression = BI_RGB;
; 257  : 
; 258  :     hdcScreen = GetDC( NULL );

  0010c	6a 00		 push	 0
  0010e	66 0f 13 45 f4	 movlpd	 QWORD PTR _bmi$[ebp+36], xmm0
  00113	89 5d d4	 mov	 DWORD PTR _bmi$[ebp+4], ebx
  00116	89 7d d8	 mov	 DWORD PTR _bmi$[ebp+8], edi
  00119	c7 45 dc 01 00
	20 00		 mov	 DWORD PTR _bmi$[ebp+12], 2097153 ; 00200001H
  00120	c7 45 e0 00 00
	00 00		 mov	 DWORD PTR _bmi$[ebp+16], 0
  00127	ff 15 00 00 00
	00		 call	 DWORD PTR __imp__GetDC@4

; 259  :     hdcMask = CreateCompatibleDC( hdcScreen );

  0012d	50		 push	 eax
  0012e	89 45 88	 mov	 DWORD PTR _hdcScreen$1$[ebp], eax
  00131	ff 15 00 00 00
	00		 call	 DWORD PTR __imp__CreateCompatibleDC@4
  00137	89 45 a8	 mov	 DWORD PTR _hdcMask$1$[ebp], eax

; 260  :     if( hdcMask == NULL )

  0013a	85 c0		 test	 eax, eax
  0013c	75 0d		 jne	 SHORT $LN16@D3DUtil_Se

; 333  :         iconinfo.yHotspot, pCursorSurface ) ) )
; 334  :     {
; 335  :         goto End;
; 336  :     }
; 337  : 
; 338  :     hr = S_OK;
; 339  : 
; 340  : End:

  0013e	8b 5d c4	 mov	 ebx, DWORD PTR _pcrArrayMask$1$[ebp]
  00141	be 05 40 00 80	 mov	 esi, -2147467259	; 80004005H
  00146	e9 0c 03 00 00	 jmp	 $End$95
$LN16@D3DUtil_Se:

; 261  :     {
; 262  :         hr = E_FAIL;
; 263  :         goto End;
; 264  :     }
; 265  :     hgdiobjOld = SelectObject(hdcMask, iconinfo.hbmMask);

  0014b	ff b5 68 ff ff
	ff		 push	 DWORD PTR _iconinfo$[ebp+12]
  00151	8b 1d 00 00 00
	00		 mov	 ebx, DWORD PTR __imp__SelectObject@8
  00157	50		 push	 eax
  00158	ff d3		 call	 ebx

; 266  :     GetDIBits(hdcMask, iconinfo.hbmMask, 0, dwHeightSrc, 

  0015a	6a 00		 push	 0
  0015c	8b f0		 mov	 esi, eax
  0015e	8d 45 d0	 lea	 eax, DWORD PTR _bmi$[ebp]
  00161	50		 push	 eax
  00162	ff 75 c4	 push	 DWORD PTR _pcrArrayMask$1$[ebp]
  00165	57		 push	 edi
  00166	6a 00		 push	 0
  00168	ff b5 68 ff ff
	ff		 push	 DWORD PTR _iconinfo$[ebp+12]
  0016e	ff 75 a8	 push	 DWORD PTR _hdcMask$1$[ebp]
  00171	ff 15 00 00 00
	00		 call	 DWORD PTR __imp__GetDIBits@28

; 267  :         pcrArrayMask, &bmi, DIB_RGB_COLORS);
; 268  :     SelectObject(hdcMask, hgdiobjOld);

  00177	56		 push	 esi
  00178	ff 75 a8	 push	 DWORD PTR _hdcMask$1$[ebp]
  0017b	ff d3		 call	 ebx

; 269  : 
; 270  :     if (!bBWCursor)

  0017d	83 7d 94 00	 cmp	 DWORD PTR _bBWCursor$1$[ebp], 0
  00181	8b 75 b0	 mov	 esi, DWORD PTR _dwWidth$1$[ebp]
  00184	75 69		 jne	 SHORT $LN61@D3DUtil_Se

; 271  :     {
; 272  :         pcrArrayColor = new DWORD[dwWidth * dwHeightDest];

  00186	8b 45 c8	 mov	 eax, DWORD PTR _dwHeightDest$1$[ebp]
  00189	b9 04 00 00 00	 mov	 ecx, 4
  0018e	0f af c6	 imul	 eax, esi
  00191	f7 e1		 mul	 ecx
  00193	b9 ff ff ff ff	 mov	 ecx, -1
  00198	0f 42 c1	 cmovb	 eax, ecx
  0019b	50		 push	 eax
  0019c	e8 00 00 00 00	 call	 ??_U@YAPAXI@Z		; operator new[]

; 273  :         hdcColor = CreateCompatibleDC( hdcScreen );

  001a1	8b 4d 88	 mov	 ecx, DWORD PTR _hdcScreen$1$[ebp]
  001a4	83 c4 04	 add	 esp, 4
  001a7	89 45 a4	 mov	 DWORD PTR _pcrArrayColor$1$[ebp], eax
  001aa	51		 push	 ecx
  001ab	ff 15 00 00 00
	00		 call	 DWORD PTR __imp__CreateCompatibleDC@4
  001b1	89 45 84	 mov	 DWORD PTR _hdcColor$1$[ebp], eax

; 274  :         if( hdcColor == NULL )

  001b4	85 c0		 test	 eax, eax
  001b6	75 0d		 jne	 SHORT $LN19@D3DUtil_Se

; 333  :         iconinfo.yHotspot, pCursorSurface ) ) )
; 334  :     {
; 335  :         goto End;
; 336  :     }
; 337  : 
; 338  :     hr = S_OK;
; 339  : 
; 340  : End:

  001b8	8b 5d c4	 mov	 ebx, DWORD PTR _pcrArrayMask$1$[ebp]
  001bb	be 05 40 00 80	 mov	 esi, -2147467259	; 80004005H
  001c0	e9 92 02 00 00	 jmp	 $End$95
$LN19@D3DUtil_Se:

; 275  :         {
; 276  :             hr = E_FAIL;
; 277  :             goto End;
; 278  :         }
; 279  :         SelectObject(hdcColor, iconinfo.hbmColor);

  001c5	ff b5 6c ff ff
	ff		 push	 DWORD PTR _iconinfo$[ebp+16]
  001cb	50		 push	 eax
  001cc	ff d3		 call	 ebx

; 280  :         GetDIBits(hdcColor, iconinfo.hbmColor, 0, dwHeightDest, 

  001ce	8b 5d c8	 mov	 ebx, DWORD PTR _dwHeightDest$1$[ebp]
  001d1	8d 45 d0	 lea	 eax, DWORD PTR _bmi$[ebp]
  001d4	8b 4d 84	 mov	 ecx, DWORD PTR _hdcColor$1$[ebp]
  001d7	6a 00		 push	 0
  001d9	50		 push	 eax
  001da	ff 75 a4	 push	 DWORD PTR _pcrArrayColor$1$[ebp]
  001dd	53		 push	 ebx
  001de	6a 00		 push	 0
  001e0	ff b5 6c ff ff
	ff		 push	 DWORD PTR _iconinfo$[ebp+16]
  001e6	51		 push	 ecx
  001e7	ff 15 00 00 00
	00		 call	 DWORD PTR __imp__GetDIBits@28
  001ed	eb 03		 jmp	 SHORT $LN18@D3DUtil_Se
$LN61@D3DUtil_Se:

; 269  : 
; 270  :     if (!bBWCursor)

  001ef	8b 5d c8	 mov	 ebx, DWORD PTR _dwHeightDest$1$[ebp]
$LN18@D3DUtil_Se:

; 281  :             pcrArrayColor, &bmi, DIB_RGB_COLORS);
; 282  :     }
; 283  : 
; 284  :     // Transfer cursor image into the surface
; 285  :     D3DLOCKED_RECT lr;
; 286  :     pCursorSurface->LockRect( &lr, NULL, 0 );

  001f2	8b 45 b8	 mov	 eax, DWORD PTR _pCursorSurface$[ebp]
  001f5	8d 95 50 ff ff
	ff		 lea	 edx, DWORD PTR _lr$[ebp]
  001fb	6a 00		 push	 0
  001fd	6a 00		 push	 0
  001ff	52		 push	 edx
  00200	8b 08		 mov	 ecx, DWORD PTR [eax]
  00202	50		 push	 eax
  00203	ff 51 34	 call	 DWORD PTR [ecx+52]

; 287  :     pBitmap = (DWORD*)lr.pBits;

  00206	8b 85 54 ff ff
	ff		 mov	 eax, DWORD PTR _lr$[ebp+4]
  0020c	33 d2		 xor	 edx, edx
  0020e	89 85 74 ff ff
	ff		 mov	 DWORD PTR _pBitmap$1$[ebp], eax
  00214	89 55 cc	 mov	 DWORD PTR _y$1$[ebp], edx

; 288  :     for( y = 0; y < dwHeightDest; y++ )

  00217	85 db		 test	 ebx, ebx
  00219	0f 84 04 02 00
	00		 je	 $LN3@D3DUtil_Se

; 281  :             pcrArrayColor, &bmi, DIB_RGB_COLORS);
; 282  :     }
; 283  : 
; 284  :     // Transfer cursor image into the surface
; 285  :     D3DLOCKED_RECT lr;
; 286  :     pCursorSurface->LockRect( &lr, NULL, 0 );

  0021f	8d 1c 9d fc ff
	ff ff		 lea	 ebx, DWORD PTR [ebx*4-4]
  00226	6b d6 fc	 imul	 edx, esi, -4
  00229	8d 3c bd fc ff
	ff ff		 lea	 edi, DWORD PTR [edi*4-4]
  00230	0f af de	 imul	 ebx, esi
  00233	0f af fe	 imul	 edi, esi
  00236	33 c9		 xor	 ecx, ecx
  00238	89 45 90	 mov	 DWORD PTR tv1605[ebp], eax
  0023b	8b 45 c8	 mov	 eax, DWORD PTR _dwHeightDest$1$[ebp]
  0023e	89 95 58 ff ff
	ff		 mov	 DWORD PTR tv1604[ebp], edx
  00244	8b d1		 mov	 edx, ecx
  00246	03 5d c4	 add	 ebx, DWORD PTR _pcrArrayMask$1$[ebp]
  00249	03 7d c4	 add	 edi, DWORD PTR _pcrArrayMask$1$[ebp]
  0024c	89 4d bc	 mov	 DWORD PTR tv1610[ebp], ecx
  0024f	89 5d ac	 mov	 DWORD PTR tv1602[ebp], ebx
  00252	89 7d 8c	 mov	 DWORD PTR tv1601[ebp], edi
$LL4@D3DUtil_Se:

; 289  :     {
; 290  :         for( x = 0; x < dwWidth; x++ )

  00255	33 ff		 xor	 edi, edi
  00257	85 f6		 test	 esi, esi
  00259	0f 84 9b 01 00
	00		 je	 $LN2@D3DUtil_Se

; 291  :         {
; 292  :             if (bBWCursor)

  0025f	39 7d 94	 cmp	 DWORD PTR _bBWCursor$1$[ebp], edi
  00262	0f 84 cf 00 00
	00		 je	 $LN21@D3DUtil_Se

; 303  :                 pBitmap[dwWidth*y + x] = 0xff000000 | crColor;

  00268	8b 45 8c	 mov	 eax, DWORD PTR tv1601[ebp]
  0026b	8b 4d ac	 mov	 ecx, DWORD PTR tv1602[ebp]
  0026e	8b 5d 90	 mov	 ebx, DWORD PTR tv1605[ebp]
  00271	c7 45 c0 0f 00
	00 00		 mov	 DWORD PTR tv1619[ebp], 15 ; 0000000fH
  00278	89 45 b4	 mov	 DWORD PTR tv1617[ebp], eax
  0027b	89 8d 78 ff ff
	ff		 mov	 DWORD PTR tv1616[ebp], ecx
$LL7@D3DUtil_Se:

; 293  :             {
; 294  :                 crColor = pcrArrayMask[dwWidth*(dwHeightDest-1-y) + x];

  00281	8b 10		 mov	 edx, DWORD PTR [eax]
  00283	8b 31		 mov	 esi, DWORD PTR [ecx]

; 295  :                 crMask = pcrArrayMask[dwWidth*(dwHeightSrc-1-y) + x];

  00285	8b 45 bc	 mov	 eax, DWORD PTR tv1610[ebp]
  00288	8b 8d 74 ff ff
	ff		 mov	 ecx, DWORD PTR _pBitmap$1$[ebp]
  0028e	03 c7		 add	 eax, edi
  00290	89 95 7c ff ff
	ff		 mov	 DWORD PTR _crMask$1$[ebp], edx
  00296	8d 04 81	 lea	 eax, DWORD PTR [ecx+eax*4]

; 301  :             }
; 302  :             if (crMask == 0)

  00299	8b ce		 mov	 ecx, esi
  0029b	89 45 80	 mov	 DWORD PTR tv1607[ebp], eax
  0029e	b8 00 00 00 ff	 mov	 eax, -16777216		; ff000000H

; 304  :             else
; 305  :                 pBitmap[dwWidth*y + x] = 0x00000000;
; 306  : 
; 307  :             // It may be helpful to make the D3D cursor look slightly 
; 308  :             // different from the Windows cursor so you can distinguish 
; 309  :             // between the two when developing/testing code.  When
; 310  :             // bAddWatermark is TRUE, the following code adds some
; 311  :             // small grey "D3D" characters to the upper-left corner of
; 312  :             // the D3D cursor image.
; 313  :             if( bAddWatermark && x < 12 && y < 5 )

  002a3	0b c1		 or	 eax, ecx
  002a5	33 c9		 xor	 ecx, ecx
  002a7	85 d2		 test	 edx, edx
  002a9	8b 55 cc	 mov	 edx, DWORD PTR _y$1$[ebp]
  002ac	0f 45 c1	 cmovne	 eax, ecx
  002af	83 7d 10 00	 cmp	 DWORD PTR _bAddWatermark$[ebp], 0
  002b3	8b 4d 80	 mov	 ecx, DWORD PTR tv1607[ebp]
  002b6	89 01		 mov	 DWORD PTR [ecx], eax
  002b8	74 4e		 je	 SHORT $LN5@D3DUtil_Se
  002ba	83 ff 0c	 cmp	 edi, 12			; 0000000cH
  002bd	73 49		 jae	 SHORT $LN5@D3DUtil_Se
  002bf	83 fa 05	 cmp	 edx, 5
  002c2	73 44		 jae	 SHORT $LN5@D3DUtil_Se

; 314  :             {
; 315  :                 // 11.. 11.. 11.. .... CCC0
; 316  :                 // 1.1. ..1. 1.1. .... A2A0
; 317  :                 // 1.1. .1.. 1.1. .... A4A0
; 318  :                 // 1.1. ..1. 1.1. .... A2A0
; 319  :                 // 11.. 11.. 11.. .... CCC0
; 320  : 
; 321  :                 const WORD wMask[5] = { 0xccc0, 0xa2a0, 0xa4a0, 0xa2a0, 0xccc0 };

  002c4	b9 c0 cc 00 00	 mov	 ecx, 52416		; 0000ccc0H
  002c9	c7 45 98 c0 cc
	a0 a2		 mov	 DWORD PTR _wMask$1[ebp], -1566520128 ; a2a0ccc0H
  002d0	66 89 4d a0	 mov	 WORD PTR _wMask$1[ebp+8], cx

; 322  :                 if( wMask[y] & (1 << (15 - x)) )

  002d4	b8 01 00 00 00	 mov	 eax, 1
  002d9	8b 4d c0	 mov	 ecx, DWORD PTR tv1619[ebp]
  002dc	c7 45 9c a0 a4
	a0 a2		 mov	 DWORD PTR _wMask$1[ebp+4], -1566530400 ; a2a0a4a0H
  002e3	0f b7 54 55 98	 movzx	 edx, WORD PTR _wMask$1[ebp+edx*2]
  002e8	d3 e0		 shl	 eax, cl
  002ea	85 d0		 test	 edx, eax
  002ec	8b 55 cc	 mov	 edx, DWORD PTR _y$1$[ebp]
  002ef	74 17		 je	 SHORT $LN5@D3DUtil_Se

; 323  :                 {
; 324  :                     pBitmap[dwWidth*y + x] |= 0xff808080;

  002f1	81 ce 80 80 80
	ff		 or	 esi, -8355712		; ff808080H
  002f7	b8 80 80 80 ff	 mov	 eax, -8355712		; ff808080H
  002fc	83 bd 7c ff ff
	ff 00		 cmp	 DWORD PTR _crMask$1$[ebp], 0
  00303	0f 45 f0	 cmovne	 esi, eax
  00306	89 33		 mov	 DWORD PTR [ebx], esi
$LN5@D3DUtil_Se:

; 289  :     {
; 290  :         for( x = 0; x < dwWidth; x++ )

  00308	8b 8d 78 ff ff
	ff		 mov	 ecx, DWORD PTR tv1616[ebp]
  0030e	47		 inc	 edi
  0030f	8b 45 b4	 mov	 eax, DWORD PTR tv1617[ebp]
  00312	83 c1 04	 add	 ecx, 4
  00315	ff 4d c0	 dec	 DWORD PTR tv1619[ebp]
  00318	83 c0 04	 add	 eax, 4
  0031b	8b 75 b0	 mov	 esi, DWORD PTR _dwWidth$1$[ebp]
  0031e	83 c3 04	 add	 ebx, 4
  00321	89 8d 78 ff ff
	ff		 mov	 DWORD PTR tv1616[ebp], ecx
  00327	89 45 b4	 mov	 DWORD PTR tv1617[ebp], eax
  0032a	3b fe		 cmp	 edi, esi
  0032c	0f 82 4f ff ff
	ff		 jb	 $LL7@D3DUtil_Se

; 296  :             }

  00332	e9 ba 00 00 00	 jmp	 $LN93@D3DUtil_Se
$LN21@D3DUtil_Se:

; 289  :     {
; 290  :         for( x = 0; x < dwWidth; x++ )

  00337	8b 45 a4	 mov	 eax, DWORD PTR _pcrArrayColor$1$[ebp]
  0033a	33 ff		 xor	 edi, edi
  0033c	2b 45 c4	 sub	 eax, DWORD PTR _pcrArrayMask$1$[ebp]
  0033f	c7 45 c0 0f 00
	00 00		 mov	 DWORD PTR tv1614[ebp], 15 ; 0000000fH
  00346	89 45 80	 mov	 DWORD PTR tv1612[ebp], eax
  00349	0f 1f 80 00 00
	00 00		 npad	 7
$LL42@D3DUtil_Se:

; 297  :             else
; 298  :             {
; 299  :                 crColor = pcrArrayColor[dwWidth*(dwHeightDest-1-y) + x];

  00350	8b 34 18	 mov	 esi, DWORD PTR [eax+ebx]

; 300  :                 crMask = pcrArrayMask[dwWidth*(dwHeightDest-1-y) + x];

  00353	8d 04 39	 lea	 eax, DWORD PTR [ecx+edi]
  00356	8b 8d 74 ff ff
	ff		 mov	 ecx, DWORD PTR _pBitmap$1$[ebp]
  0035c	8b 13		 mov	 edx, DWORD PTR [ebx]
  0035e	89 95 7c ff ff
	ff		 mov	 DWORD PTR _crMask$2$[ebp], edx
  00364	8d 04 81	 lea	 eax, DWORD PTR [ecx+eax*4]

; 301  :             }
; 302  :             if (crMask == 0)

  00367	8b ce		 mov	 ecx, esi
  00369	89 45 b4	 mov	 DWORD PTR tv1595[ebp], eax
  0036c	b8 00 00 00 ff	 mov	 eax, -16777216		; ff000000H

; 304  :             else
; 305  :                 pBitmap[dwWidth*y + x] = 0x00000000;
; 306  : 
; 307  :             // It may be helpful to make the D3D cursor look slightly 
; 308  :             // different from the Windows cursor so you can distinguish 
; 309  :             // between the two when developing/testing code.  When
; 310  :             // bAddWatermark is TRUE, the following code adds some
; 311  :             // small grey "D3D" characters to the upper-left corner of
; 312  :             // the D3D cursor image.
; 313  :             if( bAddWatermark && x < 12 && y < 5 )

  00371	0b c1		 or	 eax, ecx
  00373	33 c9		 xor	 ecx, ecx
  00375	85 d2		 test	 edx, edx
  00377	8b 55 cc	 mov	 edx, DWORD PTR _y$1$[ebp]
  0037a	0f 45 c1	 cmovne	 eax, ecx
  0037d	83 7d 10 00	 cmp	 DWORD PTR _bAddWatermark$[ebp], 0
  00381	8b 4d b4	 mov	 ecx, DWORD PTR tv1595[ebp]
  00384	89 01		 mov	 DWORD PTR [ecx], eax
  00386	74 51		 je	 SHORT $LN45@D3DUtil_Se
  00388	83 ff 0c	 cmp	 edi, 12			; 0000000cH
  0038b	73 4c		 jae	 SHORT $LN45@D3DUtil_Se
  0038d	83 fa 05	 cmp	 edx, 5
  00390	73 47		 jae	 SHORT $LN45@D3DUtil_Se

; 314  :             {
; 315  :                 // 11.. 11.. 11.. .... CCC0
; 316  :                 // 1.1. ..1. 1.1. .... A2A0
; 317  :                 // 1.1. .1.. 1.1. .... A4A0
; 318  :                 // 1.1. ..1. 1.1. .... A2A0
; 319  :                 // 11.. 11.. 11.. .... CCC0
; 320  : 
; 321  :                 const WORD wMask[5] = { 0xccc0, 0xa2a0, 0xa4a0, 0xa2a0, 0xccc0 };

  00392	b9 c0 cc 00 00	 mov	 ecx, 52416		; 0000ccc0H
  00397	c7 45 98 c0 cc
	a0 a2		 mov	 DWORD PTR _wMask$1[ebp], -1566520128 ; a2a0ccc0H
  0039e	66 89 4d a0	 mov	 WORD PTR _wMask$1[ebp+8], cx

; 322  :                 if( wMask[y] & (1 << (15 - x)) )

  003a2	b8 01 00 00 00	 mov	 eax, 1
  003a7	8b 4d c0	 mov	 ecx, DWORD PTR tv1614[ebp]
  003aa	c7 45 9c a0 a4
	a0 a2		 mov	 DWORD PTR _wMask$1[ebp+4], -1566530400 ; a2a0a4a0H
  003b1	0f b7 54 55 98	 movzx	 edx, WORD PTR _wMask$1[ebp+edx*2]
  003b6	d3 e0		 shl	 eax, cl
  003b8	85 d0		 test	 edx, eax
  003ba	8b 55 cc	 mov	 edx, DWORD PTR _y$1$[ebp]
  003bd	74 1a		 je	 SHORT $LN45@D3DUtil_Se

; 323  :                 {
; 324  :                     pBitmap[dwWidth*y + x] |= 0xff808080;

  003bf	81 ce 80 80 80
	ff		 or	 esi, -8355712		; ff808080H
  003c5	b8 80 80 80 ff	 mov	 eax, -8355712		; ff808080H
  003ca	83 bd 7c ff ff
	ff 00		 cmp	 DWORD PTR _crMask$2$[ebp], 0
  003d1	0f 45 f0	 cmovne	 esi, eax
  003d4	8b 45 b4	 mov	 eax, DWORD PTR tv1595[ebp]
  003d7	89 30		 mov	 DWORD PTR [eax], esi
$LN45@D3DUtil_Se:

; 289  :     {
; 290  :         for( x = 0; x < dwWidth; x++ )

  003d9	ff 4d c0	 dec	 DWORD PTR tv1614[ebp]
  003dc	47		 inc	 edi
  003dd	8b 75 b0	 mov	 esi, DWORD PTR _dwWidth$1$[ebp]
  003e0	83 c3 04	 add	 ebx, 4
  003e3	8b 45 80	 mov	 eax, DWORD PTR tv1612[ebp]
  003e6	8b 4d bc	 mov	 ecx, DWORD PTR tv1610[ebp]
  003e9	3b fe		 cmp	 edi, esi
  003eb	0f 82 5f ff ff
	ff		 jb	 $LL42@D3DUtil_Se
$LN93@D3DUtil_Se:

; 288  :     for( y = 0; y < dwHeightDest; y++ )

  003f1	8b 45 c8	 mov	 eax, DWORD PTR _dwHeightDest$1$[ebp]
  003f4	8b 5d ac	 mov	 ebx, DWORD PTR tv1602[ebp]
  003f7	8b 4d bc	 mov	 ecx, DWORD PTR tv1610[ebp]
$LN2@D3DUtil_Se:
  003fa	8d 3c b5 00 00
	00 00		 lea	 edi, DWORD PTR [esi*4]
  00401	42		 inc	 edx
  00402	01 7d 90	 add	 DWORD PTR tv1605[ebp], edi
  00405	03 ce		 add	 ecx, esi
  00407	8b bd 58 ff ff
	ff		 mov	 edi, DWORD PTR tv1604[ebp]
  0040d	03 df		 add	 ebx, edi
  0040f	01 7d 8c	 add	 DWORD PTR tv1601[ebp], edi
  00412	89 55 cc	 mov	 DWORD PTR _y$1$[ebp], edx
  00415	89 4d bc	 mov	 DWORD PTR tv1610[ebp], ecx
  00418	89 5d ac	 mov	 DWORD PTR tv1602[ebp], ebx
  0041b	3b d0		 cmp	 edx, eax
  0041d	0f 82 32 fe ff
	ff		 jb	 $LL4@D3DUtil_Se
$LN3@D3DUtil_Se:

; 325  :                 }
; 326  :             }
; 327  :         }
; 328  :     }
; 329  :     pCursorSurface->UnlockRect();

  00423	8b 45 b8	 mov	 eax, DWORD PTR _pCursorSurface$[ebp]
  00426	50		 push	 eax
  00427	8b 08		 mov	 ecx, DWORD PTR [eax]
  00429	ff 51 38	 call	 DWORD PTR [ecx+56]

; 330  : 
; 331  :     // Set the device cursor
; 332  :     if( FAILED( hr = pd3dDevice->SetCursorProperties( iconinfo.xHotspot, 

  0042c	ff 75 b8	 push	 DWORD PTR _pCursorSurface$[ebp]
  0042f	8b 8d 70 ff ff
	ff		 mov	 ecx, DWORD PTR _pd3dDevice$GSCopy$1$[ebp]
  00435	ff b5 64 ff ff
	ff		 push	 DWORD PTR _iconinfo$[ebp+8]
  0043b	ff b5 60 ff ff
	ff		 push	 DWORD PTR _iconinfo$[ebp+4]
  00441	8b 01		 mov	 eax, DWORD PTR [ecx]
  00443	51		 push	 ecx
  00444	ff 50 28	 call	 DWORD PTR [eax+40]
  00447	8b 5d c4	 mov	 ebx, DWORD PTR _pcrArrayMask$1$[ebp]
  0044a	8b f0		 mov	 esi, eax
  0044c	33 c0		 xor	 eax, eax
  0044e	85 f6		 test	 esi, esi
  00450	0f 49 f0	 cmovns	 esi, eax
  00453	eb 02		 jmp	 SHORT $End$95
$LN62@D3DUtil_Se:

; 239  :     }
; 240  : 
; 241  :     // Create a surface for the fullscreen cursor
; 242  :     if( FAILED( hr = pd3dDevice->CreateOffscreenPlainSurface( dwWidth, dwHeightDest, 

  00455	33 db		 xor	 ebx, ebx
$End$95:

; 341  :     if( iconinfo.hbmMask != NULL )

  00457	8b 85 68 ff ff
	ff		 mov	 eax, DWORD PTR _iconinfo$[ebp+12]
  0045d	8b 3d 00 00 00
	00		 mov	 edi, DWORD PTR __imp__DeleteObject@4
  00463	85 c0		 test	 eax, eax
  00465	74 03		 je	 SHORT $LN29@D3DUtil_Se

; 342  :         DeleteObject( iconinfo.hbmMask );

  00467	50		 push	 eax
  00468	ff d7		 call	 edi
$LN29@D3DUtil_Se:

; 343  :     if( iconinfo.hbmColor != NULL )

  0046a	8b 85 6c ff ff
	ff		 mov	 eax, DWORD PTR _iconinfo$[ebp+16]
  00470	85 c0		 test	 eax, eax
  00472	74 03		 je	 SHORT $LN30@D3DUtil_Se

; 344  :         DeleteObject( iconinfo.hbmColor );

  00474	50		 push	 eax
  00475	ff d7		 call	 edi
$LN30@D3DUtil_Se:

; 345  :     if( hdcScreen != NULL )

  00477	8b 45 88	 mov	 eax, DWORD PTR _hdcScreen$1$[ebp]
  0047a	85 c0		 test	 eax, eax
  0047c	74 09		 je	 SHORT $LN31@D3DUtil_Se

; 346  :         ReleaseDC( NULL, hdcScreen );

  0047e	50		 push	 eax
  0047f	6a 00		 push	 0
  00481	ff 15 00 00 00
	00		 call	 DWORD PTR __imp__ReleaseDC@8
$LN31@D3DUtil_Se:

; 347  :     if( hdcColor != NULL )

  00487	8b 45 84	 mov	 eax, DWORD PTR _hdcColor$1$[ebp]
  0048a	8b 3d 00 00 00
	00		 mov	 edi, DWORD PTR __imp__DeleteDC@4
  00490	85 c0		 test	 eax, eax
  00492	74 03		 je	 SHORT $LN32@D3DUtil_Se

; 348  :         DeleteDC( hdcColor );

  00494	50		 push	 eax
  00495	ff d7		 call	 edi
$LN32@D3DUtil_Se:

; 349  :     if( hdcMask != NULL )

  00497	8b 45 a8	 mov	 eax, DWORD PTR _hdcMask$1$[ebp]
  0049a	85 c0		 test	 eax, eax
  0049c	74 03		 je	 SHORT $LN33@D3DUtil_Se

; 350  :         DeleteDC( hdcMask );

  0049e	50		 push	 eax
  0049f	ff d7		 call	 edi
$LN33@D3DUtil_Se:

; 351  :     SAFE_DELETE_ARRAY( pcrArrayColor );

  004a1	8b 45 a4	 mov	 eax, DWORD PTR _pcrArrayColor$1$[ebp]
  004a4	85 c0		 test	 eax, eax
  004a6	74 09		 je	 SHORT $LN34@D3DUtil_Se
  004a8	50		 push	 eax
  004a9	e8 00 00 00 00	 call	 ??_V@YAXPAX@Z		; operator delete[]
  004ae	83 c4 04	 add	 esp, 4
$LN34@D3DUtil_Se:

; 352  :     SAFE_DELETE_ARRAY( pcrArrayMask );

  004b1	85 db		 test	 ebx, ebx
  004b3	74 09		 je	 SHORT $LN35@D3DUtil_Se
  004b5	53		 push	 ebx
  004b6	e8 00 00 00 00	 call	 ??_V@YAXPAX@Z		; operator delete[]
  004bb	83 c4 04	 add	 esp, 4
$LN35@D3DUtil_Se:

; 353  :     SAFE_RELEASE( pCursorSurface );

  004be	8b 4d b8	 mov	 ecx, DWORD PTR _pCursorSurface$[ebp]
  004c1	85 c9		 test	 ecx, ecx
  004c3	74 06		 je	 SHORT $LN54@D3DUtil_Se
  004c5	8b 01		 mov	 eax, DWORD PTR [ecx]
  004c7	51		 push	 ecx
  004c8	ff 50 08	 call	 DWORD PTR [eax+8]
$LN54@D3DUtil_Se:

; 354  :     return hr;
; 355  : }

  004cb	8b 4d fc	 mov	 ecx, DWORD PTR __$ArrayPad$[ebp]
  004ce	8b c6		 mov	 eax, esi
  004d0	5f		 pop	 edi
  004d1	5e		 pop	 esi
  004d2	33 cd		 xor	 ecx, ebp
  004d4	5b		 pop	 ebx
  004d5	e8 00 00 00 00	 call	 @__security_check_cookie@4
  004da	8b e5		 mov	 esp, ebp
  004dc	5d		 pop	 ebp
  004dd	c3		 ret	 0
?D3DUtil_SetDeviceCursor@@YAJPAUIDirect3DDevice9@@PAUHICON__@@H@Z ENDP ; D3DUtil_SetDeviceCursor
_TEXT	ENDS
; Function compile flags: /Ogtp
; File C:\IAGOS\server\v18\Source\Source\_DirectX\d3dutil.cpp
; File C:\IAGOS\server\v18\Source\Source\DX_SDK\d3dx9math.inl
; File C:\IAGOS\server\v18\Source\Source\_DirectX\d3dutil.cpp
; File C:\IAGOS\server\v18\Source\Source\DX_SDK\d3dx9math.inl
; File C:\IAGOS\server\v18\Source\Source\_DirectX\d3dutil.cpp
; File C:\Program Files (x86)\Windows Kits\10\Include\10.0.26100.0\ucrt\corecrt_math.h
; File C:\IAGOS\server\v18\Source\Source\_DirectX\d3dutil.cpp
; File C:\Program Files (x86)\Windows Kits\10\Include\10.0.26100.0\ucrt\corecrt_math.h
; File C:\IAGOS\server\v18\Source\Source\_DirectX\d3dutil.cpp
; File C:\Program Files (x86)\Windows Kits\10\Include\10.0.26100.0\ucrt\corecrt_math.h
; File C:\IAGOS\server\v18\Source\Source\_DirectX\d3dutil.cpp
; File C:\Program Files (x86)\Windows Kits\10\Include\10.0.26100.0\ucrt\corecrt_math.h
; File C:\IAGOS\server\v18\Source\Source\_DirectX\d3dutil.cpp
; File C:\Program Files (x86)\Windows Kits\10\Include\10.0.26100.0\ucrt\corecrt_math.h
; File C:\IAGOS\server\v18\Source\Source\_DirectX\d3dutil.cpp
; File C:\IAGOS\server\v18\Source\Source\DX_SDK\d3dx9math.inl
; File C:\Program Files (x86)\Windows Kits\10\Include\10.0.26100.0\ucrt\corecrt_math.h
; File C:\IAGOS\server\v18\Source\Source\_DirectX\d3dutil.cpp
; File C:\Program Files (x86)\Windows Kits\10\Include\10.0.26100.0\ucrt\corecrt_math.h
; File C:\IAGOS\server\v18\Source\Source\_DirectX\d3dutil.cpp
; File C:\Program Files (x86)\Windows Kits\10\Include\10.0.26100.0\ucrt\corecrt_math.h
; File C:\IAGOS\server\v18\Source\Source\_DirectX\d3dutil.cpp
;	COMDAT ?D3DUtil_GetRotationFromCursor@@YA?AUD3DXQUATERNION@@PAUHWND__@@M@Z
_TEXT	SEGMENT
_sy$1$ = -64						; size = 4
_sx$1$ = -60						; size = 4
_pt$ = -56						; size = 8
_quat$ = -48						; size = 16
_vAxis$ = -32						; size = 12
_rc$ = -20						; size = 16
__$ArrayPad$ = -4					; size = 4
___$ReturnUdt$ = 8					; size = 4
_hWnd$ = 12						; size = 4
_fTrackBallRadius$ = 16					; size = 4
?D3DUtil_GetRotationFromCursor@@YA?AUD3DXQUATERNION@@PAUHWND__@@M@Z PROC ; D3DUtil_GetRotationFromCursor, COMDAT

; 149  : {

  00000	55		 push	 ebp
  00001	8b ec		 mov	 ebp, esp
  00003	83 e4 f8	 and	 esp, -8			; fffffff8H
  00006	83 ec 40	 sub	 esp, 64			; 00000040H
  00009	a1 00 00 00 00	 mov	 eax, DWORD PTR ___security_cookie
  0000e	33 c4		 xor	 eax, esp
  00010	89 44 24 3c	 mov	 DWORD PTR __$ArrayPad$[esp+64], eax
  00014	56		 push	 esi
  00015	8b 75 0c	 mov	 esi, DWORD PTR _hWnd$[ebp]

; 150  :     POINT pt;
; 151  :     RECT  rc;
; 152  :     GetCursorPos( &pt );

  00018	8d 44 24 0c	 lea	 eax, DWORD PTR _pt$[esp+68]
  0001c	57		 push	 edi
  0001d	8b 7d 08	 mov	 edi, DWORD PTR ___$ReturnUdt$[ebp]
  00020	50		 push	 eax
  00021	ff 15 00 00 00
	00		 call	 DWORD PTR __imp__GetCursorPos@4

; 153  :     GetClientRect( hWnd, &rc );

  00027	8d 44 24 34	 lea	 eax, DWORD PTR _rc$[esp+72]
  0002b	50		 push	 eax
  0002c	56		 push	 esi
  0002d	ff 15 00 00 00
	00		 call	 DWORD PTR __imp__GetClientRect@8

; 154  :     ScreenToClient( hWnd, &pt );

  00033	8d 44 24 10	 lea	 eax, DWORD PTR _pt$[esp+72]
  00037	50		 push	 eax
  00038	56		 push	 esi
  00039	ff 15 00 00 00
	00		 call	 DWORD PTR __imp__ScreenToClient@8

; 155  :     FLOAT sx = ( ( ( 2.0f * pt.x ) / (rc.right-rc.left) ) - 1 );

  0003f	8b 44 24 3c	 mov	 eax, DWORD PTR _rc$[esp+80]
  00043	2b 44 24 34	 sub	 eax, DWORD PTR _rc$[esp+72]
  00047	66 0f 6e 5c 24
	10		 movd	 xmm3, DWORD PTR _pt$[esp+72]
  0004d	66 0f 6e 54 24
	14		 movd	 xmm2, DWORD PTR _pt$[esp+76]
  00053	0f 5b db	 cvtdq2ps xmm3, xmm3
  00056	66 0f 6e c0	 movd	 xmm0, eax

; 156  :     FLOAT sy = ( ( ( 2.0f * pt.y ) / (rc.bottom-rc.top) ) - 1 );

  0005a	8b 44 24 40	 mov	 eax, DWORD PTR _rc$[esp+84]
  0005e	f3 0f 58 db	 addss	 xmm3, xmm3
  00062	2b 44 24 38	 sub	 eax, DWORD PTR _rc$[esp+76]
  00066	0f 5b c0	 cvtdq2ps xmm0, xmm0
  00069	0f 5b d2	 cvtdq2ps xmm2, xmm2
  0006c	f3 0f 5e d8	 divss	 xmm3, xmm0
  00070	66 0f 6e c0	 movd	 xmm0, eax
  00074	f3 0f 58 d2	 addss	 xmm2, xmm2
  00078	f3 0f 5c 1d 00
	00 00 00	 subss	 xmm3, DWORD PTR __real@3f800000
  00080	0f 5b c0	 cvtdq2ps xmm0, xmm0
  00083	f3 0f 11 5c 24
	0c		 movss	 DWORD PTR _sx$1$[esp+72], xmm3
  00089	f3 0f 5e d0	 divss	 xmm2, xmm0
  0008d	0f 57 c0	 xorps	 xmm0, xmm0
  00090	f3 0f 5c 15 00
	00 00 00	 subss	 xmm2, DWORD PTR __real@3f800000

; 157  :     FLOAT sz;
; 158  : 
; 159  :     if( sx == 0.0f && sy == 0.0f )

  00098	0f 2e d8	 ucomiss xmm3, xmm0
  0009b	f3 0f 11 54 24
	08		 movss	 DWORD PTR _sy$1$[esp+72], xmm2
  000a1	9f		 lahf
  000a2	f6 c4 44	 test	 ah, 68			; 00000044H
  000a5	7a 37		 jp	 SHORT $LN2@D3DUtil_Ge
  000a7	0f 2e d0	 ucomiss xmm2, xmm0
  000aa	9f		 lahf
  000ab	f6 c4 44	 test	 ah, 68			; 00000044H
  000ae	7a 2e		 jp	 SHORT $LN2@D3DUtil_Ge
; File C:\IAGOS\server\v18\Source\Source\DX_SDK\d3dx9math.inl

; 1048 :     x = fx;

  000b0	c7 07 00 00 00
	00		 mov	 DWORD PTR [edi], 0
; File C:\IAGOS\server\v18\Source\Source\_DirectX\d3dutil.cpp

; 188  : }

  000b6	8b c7		 mov	 eax, edi
; File C:\IAGOS\server\v18\Source\Source\DX_SDK\d3dx9math.inl

; 1049 :     y = fy;

  000b8	c7 47 04 00 00
	00 00		 mov	 DWORD PTR [edi+4], 0

; 1050 :     z = fz;

  000bf	c7 47 08 00 00
	00 00		 mov	 DWORD PTR [edi+8], 0

; 1051 :     w = fw;

  000c6	c7 47 0c 00 00
	80 3f		 mov	 DWORD PTR [edi+12], 1065353216 ; 3f800000H
; File C:\IAGOS\server\v18\Source\Source\_DirectX\d3dutil.cpp

; 188  : }

  000cd	5f		 pop	 edi
  000ce	5e		 pop	 esi
  000cf	8b 4c 24 3c	 mov	 ecx, DWORD PTR __$ArrayPad$[esp+64]
  000d3	33 cc		 xor	 ecx, esp
  000d5	e8 00 00 00 00	 call	 @__security_check_cookie@4
  000da	8b e5		 mov	 esp, ebp
  000dc	5d		 pop	 ebp
  000dd	c3		 ret	 0
$LN2@D3DUtil_Ge:

; 160  :         return D3DXQUATERNION( 0.0f, 0.0f, 0.0f, 1.0f );
; 161  : 
; 162  :     FLOAT d2 = sqrtf( sx*sx + sy*sy );

  000de	0f 28 ca	 movaps	 xmm1, xmm2
  000e1	0f 28 c3	 movaps	 xmm0, xmm3
  000e4	f3 0f 59 ca	 mulss	 xmm1, xmm2
  000e8	f3 0f 59 c3	 mulss	 xmm0, xmm3
  000ec	f3 0f 58 c8	 addss	 xmm1, xmm0
; File C:\Program Files (x86)\Windows Kits\10\Include\10.0.26100.0\ucrt\corecrt_math.h

; 799  :             return (float)sqrt(_X);

  000f0	0f 5a c1	 cvtps2pd xmm0, xmm1
  000f3	0f 57 c9	 xorps	 xmm1, xmm1
  000f6	66 0f 2e c8	 ucomisd xmm1, xmm0
  000fa	77 06		 ja	 SHORT $LN30@D3DUtil_Ge
  000fc	f2 0f 51 c0	 sqrtsd	 xmm0, xmm0
  00100	eb 05		 jmp	 SHORT $LN31@D3DUtil_Ge
$LN30@D3DUtil_Ge:
  00102	e8 00 00 00 00	 call	 __libm_sse2_sqrt_precise
$LN31@D3DUtil_Ge:
; File C:\IAGOS\server\v18\Source\Source\_DirectX\d3dutil.cpp

; 164  :     if( d2 < fTrackBallRadius * 0.70710678118654752440 ) // Inside sphere

  00107	f3 0f 10 75 10	 movss	 xmm6, DWORD PTR _fTrackBallRadius$[ebp]
; File C:\Program Files (x86)\Windows Kits\10\Include\10.0.26100.0\ucrt\corecrt_math.h

; 799  :             return (float)sqrt(_X);

  0010c	0f 57 d2	 xorps	 xmm2, xmm2
  0010f	f2 0f 5a d0	 cvtsd2ss xmm2, xmm0
; File C:\IAGOS\server\v18\Source\Source\_DirectX\d3dutil.cpp

; 164  :     if( d2 < fTrackBallRadius * 0.70710678118654752440 ) // Inside sphere

  00113	0f 5a c6	 cvtps2pd xmm0, xmm6
  00116	0f 5a ca	 cvtps2pd xmm1, xmm2
  00119	f2 0f 59 05 00
	00 00 00	 mulsd	 xmm0, QWORD PTR __real@3fe6a09e667f3bcd
  00121	0f 28 e6	 movaps	 xmm4, xmm6
  00124	f3 0f 59 e6	 mulss	 xmm4, xmm6
  00128	66 0f 2f c1	 comisd	 xmm0, xmm1
  0012c	76 34		 jbe	 SHORT $LN3@D3DUtil_Ge

; 165  :         sz = sqrtf( fTrackBallRadius*fTrackBallRadius - d2*d2 );

  0012e	f3 0f 59 d2	 mulss	 xmm2, xmm2
  00132	0f 57 c9	 xorps	 xmm1, xmm1
  00135	f3 0f 5c e2	 subss	 xmm4, xmm2
; File C:\Program Files (x86)\Windows Kits\10\Include\10.0.26100.0\ucrt\corecrt_math.h

; 799  :             return (float)sqrt(_X);

  00139	0f 5a c4	 cvtps2pd xmm0, xmm4
  0013c	66 0f 2e c8	 ucomisd xmm1, xmm0
  00140	77 0d		 ja	 SHORT $LN32@D3DUtil_Ge
  00142	f2 0f 51 c0	 sqrtsd	 xmm0, xmm0
  00146	0f 57 e4	 xorps	 xmm4, xmm4
  00149	f2 0f 5a e0	 cvtsd2ss xmm4, xmm0
; File C:\IAGOS\server\v18\Source\Source\_DirectX\d3dutil.cpp

; 165  :         sz = sqrtf( fTrackBallRadius*fTrackBallRadius - d2*d2 );

  0014d	eb 1b		 jmp	 SHORT $LN4@D3DUtil_Ge
$LN32@D3DUtil_Ge:
; File C:\Program Files (x86)\Windows Kits\10\Include\10.0.26100.0\ucrt\corecrt_math.h

; 799  :             return (float)sqrt(_X);

  0014f	e8 00 00 00 00	 call	 __libm_sse2_sqrt_precise
; File C:\IAGOS\server\v18\Source\Source\_DirectX\d3dutil.cpp

; 165  :         sz = sqrtf( fTrackBallRadius*fTrackBallRadius - d2*d2 );

  00154	f3 0f 10 75 10	 movss	 xmm6, DWORD PTR _fTrackBallRadius$[ebp]
; File C:\Program Files (x86)\Windows Kits\10\Include\10.0.26100.0\ucrt\corecrt_math.h

; 799  :             return (float)sqrt(_X);

  00159	0f 57 e4	 xorps	 xmm4, xmm4
  0015c	f2 0f 5a e0	 cvtsd2ss xmm4, xmm0
; File C:\IAGOS\server\v18\Source\Source\_DirectX\d3dutil.cpp

; 165  :         sz = sqrtf( fTrackBallRadius*fTrackBallRadius - d2*d2 );

  00160	eb 08		 jmp	 SHORT $LN4@D3DUtil_Ge
$LN3@D3DUtil_Ge:

; 166  :     else                                                 // On hyperbola
; 167  :         sz = (fTrackBallRadius*fTrackBallRadius) / (2.0f*d2);

  00162	f3 0f 58 d2	 addss	 xmm2, xmm2
  00166	f3 0f 5e e2	 divss	 xmm4, xmm2
$LN4@D3DUtil_Ge:
; File C:\IAGOS\server\v18\Source\Source\DX_SDK\d3dx9math.inl

; 302  :     z = fz;

  0016a	f3 0f 10 54 24
	08		 movss	 xmm2, DWORD PTR _sy$1$[esp+72]
  00170	0f 57 ed	 xorps	 xmm5, xmm5

; 1723 :     v.y = pV1->z * pV2->x - pV1->x * pV2->z;

  00173	f3 0f 10 5c 24
	0c		 movss	 xmm3, DWORD PTR _sx$1$[esp+72]
  00179	0f 28 cc	 movaps	 xmm1, xmm4
  0017c	f3 0f 59 cd	 mulss	 xmm1, xmm5

; 302  :     z = fz;

  00180	0f 28 c2	 movaps	 xmm0, xmm2
  00183	f3 0f 59 c6	 mulss	 xmm0, xmm6

; 1722 :     v.x = pV1->y * pV2->z - pV1->z * pV2->y;

  00187	f3 0f 5c c1	 subss	 xmm0, xmm1

; 1725 : 
; 1726 :     *pOut = v;

  0018b	f3 0f 11 44 24
	28		 movss	 DWORD PTR _vAxis$[esp+72], xmm0
  00191	0f 28 c3	 movaps	 xmm0, xmm3
  00194	f3 0f 59 c6	 mulss	 xmm0, xmm6
  00198	f3 0f 5c c8	 subss	 xmm1, xmm0
  0019c	0f 28 c2	 movaps	 xmm0, xmm2
  0019f	f3 0f 59 c5	 mulss	 xmm0, xmm5
  001a3	f3 0f 11 4c 24
	2c		 movss	 DWORD PTR _vAxis$[esp+76], xmm1
  001a9	0f 28 cb	 movaps	 xmm1, xmm3
  001ac	f3 0f 59 cd	 mulss	 xmm1, xmm5

; 300  :     x = fx;

  001b0	f3 0f 5c ea	 subss	 xmm5, xmm2

; 1724 :     v.z = pV1->x * pV2->y - pV1->y * pV2->x;

  001b4	f3 0f 5c c8	 subss	 xmm1, xmm0

; 301  :     y = fy;

  001b8	0f 28 c6	 movaps	 xmm0, xmm6
  001bb	f3 0f 5c c4	 subss	 xmm0, xmm4

; 302  :     z = fz;

  001bf	f3 0f 59 ed	 mulss	 xmm5, xmm5

; 1726 :     *pOut = v;

  001c3	f3 0f 11 4c 24
	30		 movss	 DWORD PTR _vAxis$[esp+80], xmm1
  001c9	0f 57 c9	 xorps	 xmm1, xmm1
  001cc	f3 0f 5c cb	 subss	 xmm1, xmm3

; 1684 :     return sqrtf(pV->x * pV->x + pV->y * pV->y + pV->z * pV->z);

  001d0	f3 0f 59 c0	 mulss	 xmm0, xmm0
  001d4	f3 0f 59 c9	 mulss	 xmm1, xmm1
  001d8	f3 0f 58 e9	 addss	 xmm5, xmm1
  001dc	0f 57 c9	 xorps	 xmm1, xmm1
  001df	f3 0f 58 e8	 addss	 xmm5, xmm0
; File C:\Program Files (x86)\Windows Kits\10\Include\10.0.26100.0\ucrt\corecrt_math.h

; 799  :             return (float)sqrt(_X);

  001e3	0f 5a c5	 cvtps2pd xmm0, xmm5
  001e6	66 0f 2e c8	 ucomisd xmm1, xmm0
  001ea	77 06		 ja	 SHORT $LN34@D3DUtil_Ge
  001ec	f2 0f 51 c0	 sqrtsd	 xmm0, xmm0
  001f0	eb 05		 jmp	 SHORT $LN35@D3DUtil_Ge
$LN34@D3DUtil_Ge:
  001f2	e8 00 00 00 00	 call	 __libm_sse2_sqrt_precise
$LN35@D3DUtil_Ge:
; File C:\IAGOS\server\v18\Source\Source\_DirectX\d3dutil.cpp

; 179  :     FLOAT t = D3DXVec3Length( &vecDiff ) / ( 2.0f*fTrackBallRadius );

  001f7	f3 0f 10 4d 10	 movss	 xmm1, DWORD PTR _fTrackBallRadius$[ebp]
; File C:\Program Files (x86)\Windows Kits\10\Include\10.0.26100.0\ucrt\corecrt_math.h

; 799  :             return (float)sqrt(_X);

  001fc	f2 0f 5a c0	 cvtsd2ss xmm0, xmm0
; File C:\IAGOS\server\v18\Source\Source\_DirectX\d3dutil.cpp

; 179  :     FLOAT t = D3DXVec3Length( &vecDiff ) / ( 2.0f*fTrackBallRadius );

  00200	f3 0f 58 c9	 addss	 xmm1, xmm1
  00204	f3 0f 5e c1	 divss	 xmm0, xmm1

; 180  :     if( t > +1.0f) t = +1.0f;

  00208	f3 0f 10 0d 00
	00 00 00	 movss	 xmm1, DWORD PTR __real@3f800000
  00210	f3 0f 5d c8	 minss	 xmm1, xmm0

; 181  :     if( t < -1.0f) t = -1.0f;

  00214	f3 0f 10 05 00
	00 00 00	 movss	 xmm0, DWORD PTR __real@bf800000
  0021c	f3 0f 5f c1	 maxss	 xmm0, xmm1
; File C:\Program Files (x86)\Windows Kits\10\Include\10.0.26100.0\ucrt\corecrt_math.h

; 663  :             return (float)asin(_X);

  00220	0f 5a c0	 cvtps2pd xmm0, xmm0
  00223	e8 00 00 00 00	 call	 __libm_sse2_asin_precise
  00228	f2 0f 5a c0	 cvtsd2ss xmm0, xmm0
; File C:\IAGOS\server\v18\Source\Source\_DirectX\d3dutil.cpp

; 186  :     D3DXQuaternionRotationAxis( &quat, &vAxis, fAngle );

  0022c	51		 push	 ecx
  0022d	8d 44 24 2c	 lea	 eax, DWORD PTR _vAxis$[esp+76]
  00231	f3 0f 58 c0	 addss	 xmm0, xmm0
  00235	f3 0f 11 04 24	 movss	 DWORD PTR [esp], xmm0
  0023a	50		 push	 eax
  0023b	8d 44 24 20	 lea	 eax, DWORD PTR _quat$[esp+80]
  0023f	50		 push	 eax
  00240	e8 00 00 00 00	 call	 _D3DXQuaternionRotationAxis@12

; 187  :     return quat;

  00245	0f 10 44 24 18	 movups	 xmm0, XMMWORD PTR _quat$[esp+72]

; 188  : }

  0024a	8b 4c 24 44	 mov	 ecx, DWORD PTR __$ArrayPad$[esp+72]
  0024e	8b c7		 mov	 eax, edi
  00250	0f 11 07	 movups	 XMMWORD PTR [edi], xmm0
  00253	5f		 pop	 edi
  00254	5e		 pop	 esi
  00255	33 cc		 xor	 ecx, esp
  00257	e8 00 00 00 00	 call	 @__security_check_cookie@4
  0025c	8b e5		 mov	 esp, ebp
  0025e	5d		 pop	 ebp
  0025f	c3		 ret	 0
?D3DUtil_GetRotationFromCursor@@YA?AUD3DXQUATERNION@@PAUHWND__@@M@Z ENDP ; D3DUtil_GetRotationFromCursor
_TEXT	ENDS
; Function compile flags: /Ogtp
; File C:\IAGOS\server\v18\Source\Source\_DirectX\d3dutil.cpp
; File C:\IAGOS\server\v18\Source\Source\DX_SDK\d3dx9math.inl
; File C:\IAGOS\server\v18\Source\Source\_DirectX\d3dutil.cpp
;	COMDAT ?D3DUtil_GetCubeMapViewMatrix@@YA?AUD3DXMATRIX@@K@Z
_TEXT	SEGMENT
_matView$ = -112					; size = 64
_vEyePt$ = -40						; size = 12
_vLookDir$ = -28					; size = 12
_vUpDir$ = -16						; size = 12
__$ArrayPad$ = -4					; size = 4
___$ReturnUdt$ = 8					; size = 4
_dwFace$ = 12						; size = 4
?D3DUtil_GetCubeMapViewMatrix@@YA?AUD3DXMATRIX@@K@Z PROC ; D3DUtil_GetCubeMapViewMatrix, COMDAT

; 100  : {

  00000	53		 push	 ebx
  00001	8b dc		 mov	 ebx, esp
  00003	83 ec 08	 sub	 esp, 8
  00006	83 e4 f0	 and	 esp, -16		; fffffff0H
  00009	83 c4 04	 add	 esp, 4
  0000c	55		 push	 ebp
  0000d	8b 6b 04	 mov	 ebp, DWORD PTR [ebx+4]
  00010	89 6c 24 04	 mov	 DWORD PTR [esp+4], ebp
  00014	8b ec		 mov	 ebp, esp
  00016	83 ec 7c	 sub	 esp, 124		; 0000007cH
  00019	a1 00 00 00 00	 mov	 eax, DWORD PTR ___security_cookie
  0001e	33 c5		 xor	 eax, ebp
  00020	89 45 fc	 mov	 DWORD PTR __$ArrayPad$[ebp], eax

; 101  :     D3DXVECTOR3 vEyePt   = D3DXVECTOR3( 0.0f, 0.0f, 0.0f );
; 102  :     D3DXVECTOR3 vLookDir;
; 103  :     D3DXVECTOR3 vUpDir;
; 104  : 
; 105  :     switch( dwFace )

  00023	8b 43 0c	 mov	 eax, DWORD PTR _dwFace$[ebx]
; File C:\IAGOS\server\v18\Source\Source\DX_SDK\d3dx9math.inl

; 300  :     x = fx;

  00026	c7 45 d8 00 00
	00 00		 mov	 DWORD PTR _vEyePt$[ebp], 0

; 301  :     y = fy;

  0002d	c7 45 dc 00 00
	00 00		 mov	 DWORD PTR _vEyePt$[ebp+4], 0

; 302  :     z = fz;

  00034	c7 45 e0 00 00
	00 00		 mov	 DWORD PTR _vEyePt$[ebp+8], 0
; File C:\IAGOS\server\v18\Source\Source\_DirectX\d3dutil.cpp

; 100  : {

  0003b	56		 push	 esi
  0003c	8b 73 08	 mov	 esi, DWORD PTR ___$ReturnUdt$[ebx]

; 101  :     D3DXVECTOR3 vEyePt   = D3DXVECTOR3( 0.0f, 0.0f, 0.0f );
; 102  :     D3DXVECTOR3 vLookDir;
; 103  :     D3DXVECTOR3 vUpDir;
; 104  : 
; 105  :     switch( dwFace )

  0003f	83 f8 05	 cmp	 eax, 5
  00042	0f 87 a4 00 00
	00		 ja	 $LN2@D3DUtil_Ge
  00048	ff 24 85 00 00
	00 00		 jmp	 DWORD PTR $LN37@D3DUtil_Ge[eax*4]
$LN4@D3DUtil_Ge:

; 106  :     {
; 107  :         case D3DCUBEMAP_FACE_POSITIVE_X:
; 108  :             vLookDir = D3DXVECTOR3( 1.0f, 0.0f, 0.0f );

  0004f	c7 45 e4 00 00
	80 3f		 mov	 DWORD PTR _vLookDir$[ebp], 1065353216 ; 3f800000H
  00056	c7 45 ec 00 00
	00 00		 mov	 DWORD PTR _vLookDir$[ebp+8], 0

; 109  :             vUpDir   = D3DXVECTOR3( 0.0f, 1.0f, 0.0f );
; 110  :             break;

  0005d	eb 71		 jmp	 SHORT $LN38@D3DUtil_Ge
$LN5@D3DUtil_Ge:

; 111  :         case D3DCUBEMAP_FACE_NEGATIVE_X:
; 112  :             vLookDir = D3DXVECTOR3(-1.0f, 0.0f, 0.0f );

  0005f	c7 45 e4 00 00
	80 bf		 mov	 DWORD PTR _vLookDir$[ebp], -1082130432 ; bf800000H
  00066	c7 45 ec 00 00
	00 00		 mov	 DWORD PTR _vLookDir$[ebp+8], 0

; 113  :             vUpDir   = D3DXVECTOR3( 0.0f, 1.0f, 0.0f );
; 114  :             break;

  0006d	eb 61		 jmp	 SHORT $LN38@D3DUtil_Ge
$LN6@D3DUtil_Ge:

; 115  :         case D3DCUBEMAP_FACE_POSITIVE_Y:
; 116  :             vLookDir = D3DXVECTOR3( 0.0f, 1.0f, 0.0f );

  0006f	c7 45 e4 00 00
	00 00		 mov	 DWORD PTR _vLookDir$[ebp], 0
  00076	c7 45 e8 00 00
	80 3f		 mov	 DWORD PTR _vLookDir$[ebp+4], 1065353216 ; 3f800000H
  0007d	c7 45 ec 00 00
	00 00		 mov	 DWORD PTR _vLookDir$[ebp+8], 0

; 117  :             vUpDir   = D3DXVECTOR3( 0.0f, 0.0f,-1.0f );

  00084	c7 45 f4 00 00
	00 00		 mov	 DWORD PTR _vUpDir$[ebp+4], 0
  0008b	c7 45 f8 00 00
	80 bf		 mov	 DWORD PTR _vUpDir$[ebp+8], -1082130432 ; bf800000H

; 118  :             break;

  00092	eb 51		 jmp	 SHORT $LN39@D3DUtil_Ge
$LN7@D3DUtil_Ge:

; 119  :         case D3DCUBEMAP_FACE_NEGATIVE_Y:
; 120  :             vLookDir = D3DXVECTOR3( 0.0f,-1.0f, 0.0f );

  00094	c7 45 e4 00 00
	00 00		 mov	 DWORD PTR _vLookDir$[ebp], 0
  0009b	c7 45 e8 00 00
	80 bf		 mov	 DWORD PTR _vLookDir$[ebp+4], -1082130432 ; bf800000H
  000a2	c7 45 ec 00 00
	00 00		 mov	 DWORD PTR _vLookDir$[ebp+8], 0

; 121  :             vUpDir   = D3DXVECTOR3( 0.0f, 0.0f, 1.0f );

  000a9	c7 45 f4 00 00
	00 00		 mov	 DWORD PTR _vUpDir$[ebp+4], 0
  000b0	c7 45 f8 00 00
	80 3f		 mov	 DWORD PTR _vUpDir$[ebp+8], 1065353216 ; 3f800000H

; 122  :             break;

  000b7	eb 2c		 jmp	 SHORT $LN39@D3DUtil_Ge
$LN8@D3DUtil_Ge:

; 123  :         case D3DCUBEMAP_FACE_POSITIVE_Z:
; 124  :             vLookDir = D3DXVECTOR3( 0.0f, 0.0f, 1.0f );

  000b9	c7 45 ec 00 00
	80 3f		 mov	 DWORD PTR _vLookDir$[ebp+8], 1065353216 ; 3f800000H

; 125  :             vUpDir   = D3DXVECTOR3( 0.0f, 1.0f, 0.0f );
; 126  :             break;

  000c0	eb 07		 jmp	 SHORT $LN40@D3DUtil_Ge
$LN9@D3DUtil_Ge:

; 127  :         case D3DCUBEMAP_FACE_NEGATIVE_Z:
; 128  :             vLookDir = D3DXVECTOR3( 0.0f, 0.0f,-1.0f );

  000c2	c7 45 ec 00 00
	80 bf		 mov	 DWORD PTR _vLookDir$[ebp+8], -1082130432 ; bf800000H
$LN40@D3DUtil_Ge:

; 129  :             vUpDir   = D3DXVECTOR3( 0.0f, 1.0f, 0.0f );
; 130  :             break;
; 131  :     }
; 132  : 
; 133  :     // Set the view transform for this cubemap surface
; 134  :     D3DXMATRIXA16 matView;
; 135  :     D3DXMatrixLookAtLH( &matView, &vEyePt, &vLookDir, &vUpDir );

  000c9	c7 45 e4 00 00
	00 00		 mov	 DWORD PTR _vLookDir$[ebp], 0
$LN38@D3DUtil_Ge:
  000d0	c7 45 f8 00 00
	00 00		 mov	 DWORD PTR _vUpDir$[ebp+8], 0
  000d7	c7 45 f4 00 00
	80 3f		 mov	 DWORD PTR _vUpDir$[ebp+4], 1065353216 ; 3f800000H
  000de	c7 45 e8 00 00
	00 00		 mov	 DWORD PTR _vLookDir$[ebp+4], 0
$LN39@D3DUtil_Ge:
  000e5	c7 45 f0 00 00
	00 00		 mov	 DWORD PTR _vUpDir$[ebp], 0
$LN2@D3DUtil_Ge:
  000ec	8d 45 f0	 lea	 eax, DWORD PTR _vUpDir$[ebp]
  000ef	50		 push	 eax
  000f0	8d 45 e4	 lea	 eax, DWORD PTR _vLookDir$[ebp]
  000f3	50		 push	 eax
  000f4	8d 45 d8	 lea	 eax, DWORD PTR _vEyePt$[ebp]
  000f7	50		 push	 eax
  000f8	8d 45 90	 lea	 eax, DWORD PTR _matView$[ebp]
  000fb	50		 push	 eax
  000fc	e8 00 00 00 00	 call	 _D3DXMatrixLookAtLH@16

; 136  :     return matView;

  00101	0f 10 45 90	 movups	 xmm0, XMMWORD PTR _matView$[ebp]

; 137  : }

  00105	8b 4d fc	 mov	 ecx, DWORD PTR __$ArrayPad$[ebp]
  00108	8b c6		 mov	 eax, esi
  0010a	33 cd		 xor	 ecx, ebp
  0010c	0f 11 06	 movups	 XMMWORD PTR [esi], xmm0
  0010f	0f 10 45 a0	 movups	 xmm0, XMMWORD PTR _matView$[ebp+16]
  00113	0f 11 46 10	 movups	 XMMWORD PTR [esi+16], xmm0
  00117	0f 10 45 b0	 movups	 xmm0, XMMWORD PTR _matView$[ebp+32]
  0011b	0f 11 46 20	 movups	 XMMWORD PTR [esi+32], xmm0
  0011f	0f 10 45 c0	 movups	 xmm0, XMMWORD PTR _matView$[ebp+48]
  00123	0f 11 46 30	 movups	 XMMWORD PTR [esi+48], xmm0
  00127	5e		 pop	 esi
  00128	e8 00 00 00 00	 call	 @__security_check_cookie@4
  0012d	8b e5		 mov	 esp, ebp
  0012f	5d		 pop	 ebp
  00130	8b e3		 mov	 esp, ebx
  00132	5b		 pop	 ebx
  00133	c3		 ret	 0
$LN37@D3DUtil_Ge:
  00134	00 00 00 00	 DD	 $LN4@D3DUtil_Ge
  00138	00 00 00 00	 DD	 $LN5@D3DUtil_Ge
  0013c	00 00 00 00	 DD	 $LN6@D3DUtil_Ge
  00140	00 00 00 00	 DD	 $LN7@D3DUtil_Ge
  00144	00 00 00 00	 DD	 $LN8@D3DUtil_Ge
  00148	00 00 00 00	 DD	 $LN9@D3DUtil_Ge
?D3DUtil_GetCubeMapViewMatrix@@YA?AUD3DXMATRIX@@K@Z ENDP ; D3DUtil_GetCubeMapViewMatrix
_TEXT	ENDS
; Function compile flags: /Ogtp
; File C:\IAGOS\server\v18\Source\Source\_DirectX\d3dutil.cpp
;	COMDAT ?D3DUtil_CreateTexture@@YAJPAUIDirect3DDevice9@@PBDPAPAUIDirect3DTexture9@@W4_D3DFORMAT@@@Z
_TEXT	SEGMENT
_pd3dDevice$ = 8					; size = 4
_strTexture$ = 12					; size = 4
_ppTexture$ = 16					; size = 4
_d3dFormat$ = 20					; size = 4
?D3DUtil_CreateTexture@@YAJPAUIDirect3DDevice9@@PBDPAPAUIDirect3DTexture9@@W4_D3DFORMAT@@@Z PROC ; D3DUtil_CreateTexture, COMDAT

; 74   : #ifdef __WORLDSERVER	
; 75   : 	return S_OK;

  00000	33 c0		 xor	 eax, eax

; 76   : #else
; 77   :     HRESULT hr;
; 78   :     TCHAR strPath[MAX_PATH];
; 79   : 
; 80   :     // Get the path to the texture
; 81   :     if( FAILED( hr = DXUtil_FindMediaFileCb( strPath, sizeof(strPath), (TCHAR*)strTexture ) ) )
; 82   :         return hr;
; 83   : 
; 84   :     // Create the texture using D3DX
; 85   :     return D3DXCreateTextureFromFileEx( pd3dDevice, strPath, 
; 86   :                 D3DX_DEFAULT, D3DX_DEFAULT, D3DX_DEFAULT, 0, d3dFormat, 
; 87   :                 D3DPOOL_MANAGED, D3DX_FILTER_TRIANGLE|D3DX_FILTER_MIRROR, 
; 88   :                 D3DX_FILTER_TRIANGLE|D3DX_FILTER_MIRROR, 0, NULL, NULL, ppTexture );
; 89   : #endif // not WORLDSERVER
; 90   : }

  00002	c3		 ret	 0
?D3DUtil_CreateTexture@@YAJPAUIDirect3DDevice9@@PBDPAPAUIDirect3DTexture9@@W4_D3DFORMAT@@@Z ENDP ; D3DUtil_CreateTexture
_TEXT	ENDS
; Function compile flags: /Ogtp
; File C:\IAGOS\server\v18\Source\Source\_DirectX\d3dutil.cpp
; File C:\IAGOS\server\v18\Source\Source\DX_SDK\d3dx9math.inl
; File C:\IAGOS\server\v18\Source\Source\_DirectX\d3dutil.cpp
; File C:\IAGOS\server\v18\Source\Source\DX_SDK\d3dx9math.inl
; File C:\IAGOS\server\v18\Source\Source\_DirectX\d3dutil.cpp
; File C:\IAGOS\server\v18\Source\Source\DX_SDK\d3dx9math.inl
; File C:\IAGOS\server\v18\Source\Source\_DirectX\d3dutil.cpp
; File C:\IAGOS\server\v18\Source\Source\DX_SDK\d3dx9math.inl
; File C:\IAGOS\server\v18\Source\Source\_DirectX\d3dutil.cpp
; File C:\IAGOS\server\v18\Source\Source\DX_SDK\d3dx9math.inl
; File C:\IAGOS\server\v18\Source\Source\_DirectX\d3dutil.cpp
;	COMDAT ?D3DUtil_InitLight@@YAXAAU_D3DLIGHT9@@W4_D3DLIGHTTYPE@@MMM@Z
_TEXT	SEGMENT
_vecLightDirUnnormalized$ = -16				; size = 12
__$ArrayPad$ = -4					; size = 4
_light$ = 8						; size = 4
_ltType$ = 12						; size = 4
_x$ = 16						; size = 4
_y$ = 20						; size = 4
_z$ = 24						; size = 4
?D3DUtil_InitLight@@YAXAAU_D3DLIGHT9@@W4_D3DLIGHTTYPE@@MMM@Z PROC ; D3DUtil_InitLight, COMDAT

; 49   : {

  00000	55		 push	 ebp
  00001	8b ec		 mov	 ebp, esp
  00003	83 ec 10	 sub	 esp, 16			; 00000010H
  00006	a1 00 00 00 00	 mov	 eax, DWORD PTR ___security_cookie
  0000b	33 c5		 xor	 eax, ebp
  0000d	89 45 fc	 mov	 DWORD PTR __$ArrayPad$[ebp], eax
; File C:\IAGOS\server\v18\Source\Source\DX_SDK\d3dx9math.inl

; 300  :     x = fx;

  00010	f3 0f 10 45 10	 movss	 xmm0, DWORD PTR _x$[ebp]
; File C:\IAGOS\server\v18\Source\Source\_DirectX\d3dutil.cpp

; 49   : {

  00015	56		 push	 esi
  00016	8b 75 08	 mov	 esi, DWORD PTR _light$[ebp]
; File C:\IAGOS\server\v18\Source\Source\DX_SDK\d3dx9math.inl

; 300  :     x = fx;

  00019	f3 0f 11 45 f0	 movss	 DWORD PTR _vecLightDirUnnormalized$[ebp], xmm0

; 301  :     y = fy;

  0001e	f3 0f 10 45 14	 movss	 xmm0, DWORD PTR _y$[ebp]
; File C:\IAGOS\server\v18\Source\Source\_DirectX\d3dutil.cpp

; 51   :     ZeroMemory( &light, sizeof(D3DLIGHT9) );

  00023	6a 58		 push	 88			; 00000058H
; File C:\IAGOS\server\v18\Source\Source\DX_SDK\d3dx9math.inl

; 301  :     y = fy;

  00025	f3 0f 11 45 f4	 movss	 DWORD PTR _vecLightDirUnnormalized$[ebp+4], xmm0
; File C:\IAGOS\server\v18\Source\Source\_DirectX\d3dutil.cpp

; 51   :     ZeroMemory( &light, sizeof(D3DLIGHT9) );

  0002a	8d 46 10	 lea	 eax, DWORD PTR [esi+16]
; File C:\IAGOS\server\v18\Source\Source\DX_SDK\d3dx9math.inl

; 302  :     z = fz;

  0002d	f3 0f 10 45 18	 movss	 xmm0, DWORD PTR _z$[ebp]
; File C:\IAGOS\server\v18\Source\Source\_DirectX\d3dutil.cpp

; 51   :     ZeroMemory( &light, sizeof(D3DLIGHT9) );

  00032	6a 00		 push	 0
  00034	50		 push	 eax
; File C:\IAGOS\server\v18\Source\Source\DX_SDK\d3dx9math.inl

; 302  :     z = fz;

  00035	f3 0f 11 45 f8	 movss	 DWORD PTR _vecLightDirUnnormalized$[ebp+8], xmm0
; File C:\IAGOS\server\v18\Source\Source\_DirectX\d3dutil.cpp

; 51   :     ZeroMemory( &light, sizeof(D3DLIGHT9) );

  0003a	e8 00 00 00 00	 call	 _memset

; 52   :     light.Type        = ltType;

  0003f	8b 45 0c	 mov	 eax, DWORD PTR _ltType$[ebp]
  00042	83 c4 0c	 add	 esp, 12			; 0000000cH
  00045	89 06		 mov	 DWORD PTR [esi], eax

; 53   :     light.Diffuse.r   = 1.0f;
; 54   :     light.Diffuse.g   = 1.0f;
; 55   :     light.Diffuse.b   = 1.0f;
; 56   :     D3DXVec3Normalize( (D3DXVECTOR3*)&light.Direction, &vecLightDirUnnormalized );

  00047	8d 45 f0	 lea	 eax, DWORD PTR _vecLightDirUnnormalized$[ebp]
  0004a	c7 46 04 00 00
	80 3f		 mov	 DWORD PTR [esi+4], 1065353216 ; 3f800000H
  00051	c7 46 08 00 00
	80 3f		 mov	 DWORD PTR [esi+8], 1065353216 ; 3f800000H
  00058	50		 push	 eax
  00059	8d 46 40	 lea	 eax, DWORD PTR [esi+64]
  0005c	c7 46 0c 00 00
	80 3f		 mov	 DWORD PTR [esi+12], 1065353216 ; 3f800000H
  00063	50		 push	 eax
  00064	e8 00 00 00 00	 call	 _D3DXVec3Normalize@8

; 57   :     light.Position.x   = x;

  00069	f3 0f 10 45 10	 movss	 xmm0, DWORD PTR _x$[ebp]

; 58   :     light.Position.y   = y;
; 59   :     light.Position.z   = z;
; 60   :     light.Range        = 1000.0f;
; 61   : }

  0006e	8b 4d fc	 mov	 ecx, DWORD PTR __$ArrayPad$[ebp]
  00071	f3 0f 11 46 34	 movss	 DWORD PTR [esi+52], xmm0
  00076	33 cd		 xor	 ecx, ebp
  00078	f3 0f 10 45 14	 movss	 xmm0, DWORD PTR _y$[ebp]
  0007d	f3 0f 11 46 38	 movss	 DWORD PTR [esi+56], xmm0
  00082	f3 0f 10 45 18	 movss	 xmm0, DWORD PTR _z$[ebp]
  00087	f3 0f 11 46 3c	 movss	 DWORD PTR [esi+60], xmm0
  0008c	c7 46 4c 00 00
	7a 44		 mov	 DWORD PTR [esi+76], 1148846080 ; 447a0000H
  00093	5e		 pop	 esi
  00094	e8 00 00 00 00	 call	 @__security_check_cookie@4
  00099	8b e5		 mov	 esp, ebp
  0009b	5d		 pop	 ebp
  0009c	c3		 ret	 0
?D3DUtil_InitLight@@YAXAAU_D3DLIGHT9@@W4_D3DLIGHTTYPE@@MMM@Z ENDP ; D3DUtil_InitLight
_TEXT	ENDS
; Function compile flags: /Ogtp
; File C:\IAGOS\server\v18\Source\Source\_DirectX\d3dutil.cpp
;	COMDAT ?D3DUtil_InitMaterial@@YAXAAU_D3DMATERIAL9@@MMMM@Z
_TEXT	SEGMENT
_mtrl$ = 8						; size = 4
_r$ = 12						; size = 4
_g$ = 16						; size = 4
_b$ = 20						; size = 4
_a$ = 24						; size = 4
?D3DUtil_InitMaterial@@YAXAAU_D3DMATERIAL9@@MMMM@Z PROC	; D3DUtil_InitMaterial, COMDAT

; 31   : {

  00000	55		 push	 ebp
  00001	8b ec		 mov	 ebp, esp
  00003	8b 45 08	 mov	 eax, DWORD PTR _mtrl$[ebp]

; 32   :     ZeroMemory( &mtrl, sizeof(D3DMATERIAL9) );
; 33   :     mtrl.Diffuse.r = mtrl.Ambient.r = r;

  00006	f3 0f 10 45 0c	 movss	 xmm0, DWORD PTR _r$[ebp]
  0000b	c7 40 20 00 00
	00 00		 mov	 DWORD PTR [eax+32], 0
  00012	c7 40 24 00 00
	00 00		 mov	 DWORD PTR [eax+36], 0
  00019	c7 40 28 00 00
	00 00		 mov	 DWORD PTR [eax+40], 0
  00020	c7 40 2c 00 00
	00 00		 mov	 DWORD PTR [eax+44], 0
  00027	c7 40 30 00 00
	00 00		 mov	 DWORD PTR [eax+48], 0
  0002e	c7 40 34 00 00
	00 00		 mov	 DWORD PTR [eax+52], 0
  00035	c7 40 38 00 00
	00 00		 mov	 DWORD PTR [eax+56], 0
  0003c	c7 40 3c 00 00
	00 00		 mov	 DWORD PTR [eax+60], 0
  00043	c7 40 40 00 00
	00 00		 mov	 DWORD PTR [eax+64], 0
  0004a	f3 0f 11 40 10	 movss	 DWORD PTR [eax+16], xmm0
  0004f	f3 0f 11 00	 movss	 DWORD PTR [eax], xmm0

; 34   :     mtrl.Diffuse.g = mtrl.Ambient.g = g;

  00053	f3 0f 10 45 10	 movss	 xmm0, DWORD PTR _g$[ebp]
  00058	f3 0f 11 40 14	 movss	 DWORD PTR [eax+20], xmm0
  0005d	f3 0f 11 40 04	 movss	 DWORD PTR [eax+4], xmm0

; 35   :     mtrl.Diffuse.b = mtrl.Ambient.b = b;

  00062	f3 0f 10 45 14	 movss	 xmm0, DWORD PTR _b$[ebp]
  00067	f3 0f 11 40 18	 movss	 DWORD PTR [eax+24], xmm0
  0006c	f3 0f 11 40 08	 movss	 DWORD PTR [eax+8], xmm0

; 36   :     mtrl.Diffuse.a = mtrl.Ambient.a = a;

  00071	f3 0f 10 45 18	 movss	 xmm0, DWORD PTR _a$[ebp]
  00076	f3 0f 11 40 1c	 movss	 DWORD PTR [eax+28], xmm0
  0007b	f3 0f 11 40 0c	 movss	 DWORD PTR [eax+12], xmm0

; 37   : }

  00080	5d		 pop	 ebp
  00081	c3		 ret	 0
?D3DUtil_InitMaterial@@YAXAAU_D3DMATERIAL9@@MMMM@Z ENDP	; D3DUtil_InitMaterial
_TEXT	ENDS
; Function compile flags: /Ogtp
; File C:\IAGOS\server\v18\Source\Source\DX_SDK\d3dx9math.h
;	COMDAT ??0D3DXVECTOR3@@QAE@XZ
_TEXT	SEGMENT
??0D3DXVECTOR3@@QAE@XZ PROC				; D3DXVECTOR3::D3DXVECTOR3, COMDAT
; _this$ = ecx

; 165  :     D3DXVECTOR3() {};

  00000	8b c1		 mov	 eax, ecx
  00002	c3		 ret	 0
??0D3DXVECTOR3@@QAE@XZ ENDP				; D3DXVECTOR3::D3DXVECTOR3
_TEXT	ENDS
; Function compile flags: /Ogtp
; File C:\IAGOS\server\v18\Source\Source\_DirectX\d3dutil.cpp
;	COMDAT ?__empty_global_delete@@YAXPAXI@Z
_TEXT	SEGMENT
___formal$ = 8						; size = 4
___formal$ = 12						; size = 4
?__empty_global_delete@@YAXPAXI@Z PROC			; __empty_global_delete, COMDAT

  00000	c2 00 00	 ret	 0
?__empty_global_delete@@YAXPAXI@Z ENDP			; __empty_global_delete
_TEXT	ENDS
; Function compile flags: /Ogtp
; File C:\IAGOS\server\v18\Source\Source\_DirectX\d3dutil.cpp
;	COMDAT ?__empty_global_delete@@YAXPAX@Z
_TEXT	SEGMENT
___formal$ = 8						; size = 4
?__empty_global_delete@@YAXPAX@Z PROC			; __empty_global_delete, COMDAT

  00000	c2 00 00	 ret	 0
?__empty_global_delete@@YAXPAX@Z ENDP			; __empty_global_delete
_TEXT	ENDS
END
