; Listing generated by Microsoft (R) Optimizing Compiler Version 19.44.35225.0 

	TITLE	C:\IAGOS\server\v18\Source\Output\WorldServer\Release\DPCoreClient.obj
	.686P
	.XMM
	include listing.inc
	.model	flat

INCLUDELIB LIBCMT
INCLUDELIB OLDNAMES

CONST	SEGMENT
?piecewise_construct@std@@3Upiecewise_construct_t@1@B	ORG $+1 ; std::piecewise_construct
CONST	ENDS
PUBLIC	??_H@YGXPAXIIP6EPAX0@Z@Z			; `vector constructor iterator'
PUBLIC	?__empty_global_delete@@YAXPAX@Z		; __empty_global_delete
PUBLIC	?__empty_global_delete@@YAXPAXI@Z		; __empty_global_delete
PUBLIC	___local_stdio_printf_options
PUBLIC	_sprintf
PUBLIC	?AtlThrowImpl@ATL@@YGXJ@Z			; ATL::AtlThrowImpl
PUBLIC	??1?$CSimpleStringT@D$0A@@ATL@@QAE@XZ		; ATL::CSimpleStringT<char,0>::~CSimpleStringT<char,0>
PUBLIC	?SetString@?$CSimpleStringT@D$0A@@ATL@@QAEXPBDH@Z ; ATL::CSimpleStringT<char,0>::SetString
PUBLIC	?ThrowMemoryException@?$CSimpleStringT@D$0A@@ATL@@KAXXZ ; ATL::CSimpleStringT<char,0>::ThrowMemoryException
PUBLIC	?Fork@?$CSimpleStringT@D$0A@@ATL@@AAEXH@Z	; ATL::CSimpleStringT<char,0>::Fork
PUBLIC	?PrepareWrite2@?$CSimpleStringT@D$0A@@ATL@@AAEXH@Z ; ATL::CSimpleStringT<char,0>::PrepareWrite2
PUBLIC	?Reallocate@?$CSimpleStringT@D$0A@@ATL@@AAEXH@Z	; ATL::CSimpleStringT<char,0>::Reallocate
PUBLIC	??0?$CStringT@DV?$StrTraitMFC@DV?$ChTraitsCRT@D@ATL@@@@@ATL@@QAE@ABV01@@Z ; ATL::CStringT<char,StrTraitMFC<char,ATL::ChTraitsCRT<char> > >::CStringT<char,StrTraitMFC<char,ATL::ChTraitsCRT<char> > >
PUBLIC	??1?$CStringT@DV?$StrTraitMFC@DV?$ChTraitsCRT@D@ATL@@@@@ATL@@QAE@XZ ; ATL::CStringT<char,StrTraitMFC<char,ATL::ChTraitsCRT<char> > >::~CStringT<char,StrTraitMFC<char,ATL::ChTraitsCRT<char> > >
PUBLIC	?Format@?$CStringT@DV?$StrTraitMFC@DV?$ChTraitsCRT@D@ATL@@@@@ATL@@QAAXPBDZZ ; ATL::CStringT<char,StrTraitMFC<char,ATL::ChTraitsCRT<char> > >::Format
PUBLIC	?FormatV@?$CStringT@DV?$StrTraitMFC@DV?$ChTraitsCRT@D@ATL@@@@@ATL@@QAEXPBDPAD@Z ; ATL::CStringT<char,StrTraitMFC<char,ATL::ChTraitsCRT<char> > >::FormatV
PUBLIC	?LoadStringA@?$CStringT@DV?$StrTraitMFC@DV?$ChTraitsCRT@D@ATL@@@@@ATL@@QAEHI@Z ; ATL::CStringT<char,StrTraitMFC<char,ATL::ChTraitsCRT<char> > >::LoadStringA
PUBLIC	??0exception@std@@QAE@ABV01@@Z			; std::exception::exception
PUBLIC	??1exception@std@@UAE@XZ			; std::exception::~exception
PUBLIC	?what@exception@std@@UBEPBDXZ			; std::exception::what
PUBLIC	??_Gexception@std@@UAEPAXI@Z			; std::exception::`scalar deleting destructor'
PUBLIC	??0bad_alloc@std@@QAE@ABV01@@Z			; std::bad_alloc::bad_alloc
PUBLIC	??_Gbad_alloc@std@@UAEPAXI@Z			; std::bad_alloc::`scalar deleting destructor'
PUBLIC	??0bad_array_new_length@std@@QAE@XZ		; std::bad_array_new_length::bad_array_new_length
PUBLIC	??1bad_array_new_length@std@@UAE@XZ		; std::bad_array_new_length::~bad_array_new_length
PUBLIC	??0bad_array_new_length@std@@QAE@ABV01@@Z	; std::bad_array_new_length::bad_array_new_length
PUBLIC	??_Gbad_array_new_length@std@@UAEPAXI@Z		; std::bad_array_new_length::`scalar deleting destructor'
PUBLIC	?_Throw_bad_array_new_length@std@@YAXXZ		; std::_Throw_bad_array_new_length
PUBLIC	??1?$basic_string@DU?$char_traits@D@std@@V?$allocator@D@2@@std@@QAE@XZ ; std::basic_string<char,std::char_traits<char>,std::allocator<char> >::~basic_string<char,std::char_traits<char>,std::allocator<char> >
PUBLIC	?_Throw_tree_length_error@std@@YAXXZ		; std::_Throw_tree_length_error
PUBLIC	??0D3DXVECTOR3@@QAE@XZ				; D3DXVECTOR3::D3DXVECTOR3
PUBLIC	??1CMclAutoLock@@QAE@XZ				; CMclAutoLock::~CMclAutoLock
PUBLIC	?GetUserByID@CProject@@QAEPAVCMover@@K@Z	; CProject::GetUserByID
PUBLIC	??$_Allocate_manually_vector_aligned@U_Default_allocate_traits@std@@@std@@YAPAXI@Z ; std::_Allocate_manually_vector_aligned<std::_Default_allocate_traits>
PUBLIC	??0_GUILD_MEMBER_INFO@@QAE@XZ			; _GUILD_MEMBER_INFO::_GUILD_MEMBER_INFO
PUBLIC	??$?6K@CAr@@QAEAAV0@ABK@Z			; CAr::operator<<<unsigned long>
PUBLIC	??$?5K@CAr@@QAEAAV0@AAK@Z			; CAr::operator>><unsigned long>
PUBLIC	?Serialize@COOLTIME_INFO@@QAEXAAVCAr@@@Z	; COOLTIME_INFO::Serialize
PUBLIC	?MyRegister@CDPCoreClient@@AAEXK@Z		; CDPCoreClient::MyRegister
PUBLIC	?Recharge@CDPCoreClient@@AAEXK@Z		; CDPCoreClient::Recharge
PUBLIC	?Contribute@CDPCoreClient@@AAEHPAVCUser@@KK@Z	; CDPCoreClient::Contribute
PUBLIC	??0CDPCoreClient@@QAE@XZ			; CDPCoreClient::CDPCoreClient
PUBLIC	??1CDPCoreClient@@UAE@XZ			; CDPCoreClient::~CDPCoreClient
PUBLIC	?SysMessageHandler@CDPCoreClient@@UAEXPAUDPMSG_GENERIC@@KK@Z ; CDPCoreClient::SysMessageHandler
PUBLIC	?UserMessageHandler@CDPCoreClient@@UAEXPAUDPMSG_GENERIC@@KK@Z ; CDPCoreClient::UserMessageHandler
PUBLIC	?Run@CDPCoreClient@@QAEHPADGK@Z			; CDPCoreClient::Run
PUBLIC	?CheckIdStack@CDPCoreClient@@QAEHXZ		; CDPCoreClient::CheckIdStack
PUBLIC	?SendJoin@CDPCoreClient@@QAEXKPBDH@Z		; CDPCoreClient::SendJoin
PUBLIC	?SendWhisper@CDPCoreClient@@QAEXKKPBD@Z		; CDPCoreClient::SendWhisper
PUBLIC	?SendSay@CDPCoreClient@@QAEXKKPBD@Z		; CDPCoreClient::SendSay
PUBLIC	?SendModifyMode@CDPCoreClient@@QAEXKEKK@Z	; CDPCoreClient::SendModifyMode
PUBLIC	?SendShout@CDPCoreClient@@QAEXPAVCUser@@PBD@Z	; CDPCoreClient::SendShout
PUBLIC	?SendPartyChat@CDPCoreClient@@QAEXPAVCUser@@PBD@Z ; CDPCoreClient::SendPartyChat
PUBLIC	?SendUserPartySkill@CDPCoreClient@@QAEXKHKHH@Z	; CDPCoreClient::SendUserPartySkill
PUBLIC	?SendGMSay@CDPCoreClient@@QAEXKKPBD@Z		; CDPCoreClient::SendGMSay
PUBLIC	?SendPlayMusic@CDPCoreClient@@QAEXKK@Z		; CDPCoreClient::SendPlayMusic
PUBLIC	?SendPlaySound@CDPCoreClient@@QAEXKK@Z		; CDPCoreClient::SendPlaySound
PUBLIC	?SendSummonPlayer@CDPCoreClient@@QAEXKKABUD3DXVECTOR3@@KH@Z ; CDPCoreClient::SendSummonPlayer
PUBLIC	?SendTeleportPlayer@CDPCoreClient@@QAEXKK@Z	; CDPCoreClient::SendTeleportPlayer
PUBLIC	?SendKillPlayer@CDPCoreClient@@QAEXKK@Z		; CDPCoreClient::SendKillPlayer
PUBLIC	?SendGetPlayerAddr@CDPCoreClient@@QAEXKK@Z	; CDPCoreClient::SendGetPlayerAddr
PUBLIC	?SendGetPlayerCount@CDPCoreClient@@QAEXK@Z	; CDPCoreClient::SendGetPlayerCount
PUBLIC	?SendGetCorePlayer@CDPCoreClient@@QAEXK@Z	; CDPCoreClient::SendGetCorePlayer
PUBLIC	?SendSystem@CDPCoreClient@@QAEXPBD@Z		; CDPCoreClient::SendSystem
PUBLIC	?SendToServer@CDPCoreClient@@QAEXPAEKKK@Z	; CDPCoreClient::SendToServer
PUBLIC	?SendCaption@CDPCoreClient@@QAEXPBDKH@Z		; CDPCoreClient::SendCaption
PUBLIC	?SendEventRealItem@CDPCoreClient@@QAEXKHH@Z	; CDPCoreClient::SendEventRealItem
PUBLIC	?SendPartyLevel@CDPCoreClient@@QAEXPAVCUser@@KKK@Z ; CDPCoreClient::SendPartyLevel
PUBLIC	?SendAddPartyExp@CDPCoreClient@@QAEXKHHH@Z	; CDPCoreClient::SendAddPartyExp
PUBLIC	?SendRemovePartyPoint@CDPCoreClient@@QAEXKH@Z	; CDPCoreClient::SendRemovePartyPoint
PUBLIC	?SendGameRate@CDPCoreClient@@QAEXME@Z		; CDPCoreClient::SendGameRate
PUBLIC	?SendLoadConstant@CDPCoreClient@@QAEXXZ		; CDPCoreClient::SendLoadConstant
PUBLIC	?SendSetMonsterRespawn@CDPCoreClient@@QAEXKKKKKKH@Z ; CDPCoreClient::SendSetMonsterRespawn
PUBLIC	?SendFallSnow@CDPCoreClient@@QAEXXZ		; CDPCoreClient::SendFallSnow
PUBLIC	?SendFallRain@CDPCoreClient@@QAEXXZ		; CDPCoreClient::SendFallRain
PUBLIC	?SendStopSnow@CDPCoreClient@@QAEXXZ		; CDPCoreClient::SendStopSnow
PUBLIC	?SendStopRain@CDPCoreClient@@QAEXXZ		; CDPCoreClient::SendStopRain
PUBLIC	?SendGuildCombatState@CDPCoreClient@@QAEXH@Z	; CDPCoreClient::SendGuildCombatState
PUBLIC	?SendGCRemoveParty@CDPCoreClient@@QAEXKK@Z	; CDPCoreClient::SendGCRemoveParty
PUBLIC	?SendGCAddParty@CDPCoreClient@@QAEXKJJKKJJK@Z	; CDPCoreClient::SendGCAddParty
PUBLIC	?OnCWWantedList@CDPCoreClient@@QAEXAAVCAr@@KKK@Z ; CDPCoreClient::OnCWWantedList
PUBLIC	?OnCWWantedReward@CDPCoreClient@@QAEXAAVCAr@@KKK@Z ; CDPCoreClient::OnCWWantedReward
PUBLIC	?SendSetPartyDuel@CDPCoreClient@@QAEXKKH@Z	; CDPCoreClient::SendSetPartyDuel
PUBLIC	?SendCreateGuild@CDPCoreClient@@QAEXPAU_GUILD_MEMBER_INFO@@HPBD@Z ; CDPCoreClient::SendCreateGuild
PUBLIC	?SendGuildChat@CDPCoreClient@@QAEXPAVCUser@@PBD@Z ; CDPCoreClient::SendGuildChat
PUBLIC	?SendGuildStat@CDPCoreClient@@QAEHPAVCUser@@W4GUILD_STAT@@K@Z ; CDPCoreClient::SendGuildStat
PUBLIC	?SendGuildGetPay@CDPCoreClient@@QAEXKK@Z	; CDPCoreClient::SendGuildGetPay
PUBLIC	?SendGuildMsgControl_Bank_Item@CDPCoreClient@@QAEXPAVCUser@@PAVCItemElem@@E@Z ; CDPCoreClient::SendGuildMsgControl_Bank_Item
PUBLIC	?SendGuildMsgControl_Bank_Penya@CDPCoreClient@@QAEXPAVCUser@@KEE@Z ; CDPCoreClient::SendGuildMsgControl_Bank_Penya
PUBLIC	?SendWarDead@CDPCoreClient@@QAEXK@Z		; CDPCoreClient::SendWarDead
PUBLIC	?SendWarMasterAbsent@CDPCoreClient@@QAEXKH@Z	; CDPCoreClient::SendWarMasterAbsent
PUBLIC	?SendWarTimeout@CDPCoreClient@@QAEXK@Z		; CDPCoreClient::SendWarTimeout
PUBLIC	?OnWarDead@CDPCoreClient@@QAEXAAVCAr@@KKK@Z	; CDPCoreClient::OnWarDead
PUBLIC	?OnWarEnd@CDPCoreClient@@QAEXAAVCAr@@KKK@Z	; CDPCoreClient::OnWarEnd
PUBLIC	?SendAddFriendNameReqest@CDPCoreClient@@QAEXKJEKPBD0@Z ; CDPCoreClient::SendAddFriendNameReqest
PUBLIC	?SendBlock@CDPCoreClient@@QAEXEKPADK@Z		; CDPCoreClient::SendBlock
PUBLIC	?SendWCWantedGold@CDPCoreClient@@QAEXPBDKH0@Z	; CDPCoreClient::SendWCWantedGold
PUBLIC	?SendWCWantedReward@CDPCoreClient@@QAEXKKPBDKABUD3DXVECTOR3@@H@Z ; CDPCoreClient::SendWCWantedReward
PUBLIC	?SendQuerySetGuildName@CDPCoreClient@@QAEXKKPBDE@Z ; CDPCoreClient::SendQuerySetGuildName
PUBLIC	?SendSetSnoop@CDPCoreClient@@QAEXKKH@Z		; CDPCoreClient::SendSetSnoop
PUBLIC	?OnSetSnoop@CDPCoreClient@@QAEXAAVCAr@@KKK@Z	; CDPCoreClient::OnSetSnoop
PUBLIC	?SendSetSnoopGuild@CDPCoreClient@@QAEXKH@Z	; CDPCoreClient::SendSetSnoopGuild
PUBLIC	?SendChat@CDPCoreClient@@QAEXKKPBD@Z		; CDPCoreClient::SendChat
PUBLIC	?SendPing@CDPCoreClient@@QAEXXZ			; CDPCoreClient::SendPing
PUBLIC	?OnDestroyPlayer@CDPCoreClient@@QAEXAAVCAr@@KKK@Z ; CDPCoreClient::OnDestroyPlayer
PUBLIC	?OnInstanceDungeonAllInfo@CDPCoreClient@@AAEXAAVCAr@@KKK@Z ; CDPCoreClient::OnInstanceDungeonAllInfo
PUBLIC	?OnInstanceDungeonCreate@CDPCoreClient@@AAEXAAVCAr@@KKK@Z ; CDPCoreClient::OnInstanceDungeonCreate
PUBLIC	?OnInstanceDungeonDestroy@CDPCoreClient@@AAEXAAVCAr@@KKK@Z ; CDPCoreClient::OnInstanceDungeonDestroy
PUBLIC	?OnInstanceDungeonSetCoolTimeInfo@CDPCoreClient@@AAEXAAVCAr@@KKK@Z ; CDPCoreClient::OnInstanceDungeonSetCoolTimeInfo
PUBLIC	?OnInstanceDungeonDeleteCoolTimeInfo@CDPCoreClient@@AAEXAAVCAr@@KKK@Z ; CDPCoreClient::OnInstanceDungeonDeleteCoolTimeInfo
PUBLIC	?SendInstanceDungeonCreate@CDPCoreClient@@QAEXHKAAUINSTACNEDUNGEON_INFO@@@Z ; CDPCoreClient::SendInstanceDungeonCreate
PUBLIC	?SendInstanceDungeonDestroy@CDPCoreClient@@QAEXHKAAUINSTACNEDUNGEON_INFO@@@Z ; CDPCoreClient::SendInstanceDungeonDestroy
PUBLIC	?SendInstanceDungeonSetCoolTimeInfo@CDPCoreClient@@QAEXHKAAUCOOLTIME_INFO@@@Z ; CDPCoreClient::SendInstanceDungeonSetCoolTimeInfo
PUBLIC	?SendQuizSystemMessage@CDPCoreClient@@QAEXHHHH@Z ; CDPCoreClient::SendQuizSystemMessage
PUBLIC	??1?$_Tree@V?$_Tmap_traits@KP8CDPCoreClient@@AEXAAVCAr@@KKK@ZU?$less@K@std@@V?$allocator@U?$pair@$$CBKP8CDPCoreClient@@AEXAAVCAr@@KKK@Z@std@@@4@$0A@@std@@@std@@QAE@XZ ; std::_Tree<std::_Tmap_traits<unsigned long,void (__thiscall CDPCoreClient::*)(CAr &,unsigned long,unsigned long,unsigned long),std::less<unsigned long>,std::allocator<std::pair<unsigned long const ,void (__thiscall CDPCoreClient::*)(CAr &,unsigned long,unsigned long,unsigned long)> >,0> >::~_Tree<std::_Tmap_traits<unsigned long,void (__thiscall CDPCoreClient::*)(CAr &,unsigned long,unsigned long,unsigned long),std::less<unsigned long>,std::allocator<std::pair<unsigned long const ,void (__thiscall CDPCoreClient::*)(CAr &,unsigned long,unsigned long,unsigned long)> >,0> >
PUBLIC	?_Insert_node@?$_Tree_val@U?$_Tree_simple_types@U?$pair@$$CBKP8CDPCoreClient@@AEXAAVCAr@@KKK@Z@std@@@std@@@std@@QAEPAU?$_Tree_node@U?$pair@$$CBKP8CDPCoreClient@@AEXAAVCAr@@KKK@Z@std@@PAX@2@U?$_Tree_id@PAU?$_Tree_node@U?$pair@$$CBKP8CDPCoreClient@@AEXAAVCAr@@KKK@Z@std@@PAX@std@@@2@QAU32@@Z ; std::_Tree_val<std::_Tree_simple_types<std::pair<unsigned long const ,void (__thiscall CDPCoreClient::*)(CAr &,unsigned long,unsigned long,unsigned long)> > >::_Insert_node
PUBLIC	??1?$map@KP8CDPCoreClient@@AEXAAVCAr@@KKK@ZU?$less@K@std@@V?$allocator@U?$pair@$$CBKP8CDPCoreClient@@AEXAAVCAr@@KKK@Z@std@@@4@@std@@QAE@XZ ; std::map<unsigned long,void (__thiscall CDPCoreClient::*)(CAr &,unsigned long,unsigned long,unsigned long),std::less<unsigned long>,std::allocator<std::pair<unsigned long const ,void (__thiscall CDPCoreClient::*)(CAr &,unsigned long,unsigned long,unsigned long)> > >::~map<unsigned long,void (__thiscall CDPCoreClient::*)(CAr &,unsigned long,unsigned long,unsigned long),std::less<unsigned long>,std::allocator<std::pair<unsigned long const ,void (__thiscall CDPCoreClient::*)(CAr &,unsigned long,unsigned long,unsigned long)> > >
PUBLIC	?GetHandler@CDPCoreClient@@AAEP81@AEXAAVCAr@@KKK@ZK@Z ; CDPCoreClient::GetHandler
PUBLIC	?OnLoadWorld@CDPCoreClient@@AAEXAAVCAr@@KKK@Z	; CDPCoreClient::OnLoadWorld
PUBLIC	?OnQueryTickCount@CDPCoreClient@@AAEXAAVCAr@@KKK@Z ; CDPCoreClient::OnQueryTickCount
PUBLIC	?OnRecharge@CDPCoreClient@@AAEXAAVCAr@@KKK@Z	; CDPCoreClient::OnRecharge
PUBLIC	?OnSetPartyExp@CDPCoreClient@@AAEXAAVCAr@@KKK@Z	; CDPCoreClient::OnSetPartyExp
PUBLIC	?OnRemovePartyPoint@CDPCoreClient@@AAEXAAVCAr@@KKK@Z ; CDPCoreClient::OnRemovePartyPoint
PUBLIC	?OnPartyChangeTroup@CDPCoreClient@@AAEXAAVCAr@@KKK@Z ; CDPCoreClient::OnPartyChangeTroup
PUBLIC	?OnPartyChangeName@CDPCoreClient@@AAEXAAVCAr@@KKK@Z ; CDPCoreClient::OnPartyChangeName
PUBLIC	?OnAddFriend@CDPCoreClient@@AAEXAAVCAr@@KKK@Z	; CDPCoreClient::OnAddFriend
PUBLIC	?OnRemovefriend@CDPCoreClient@@AAEXAAVCAr@@KKK@Z ; CDPCoreClient::OnRemovefriend
PUBLIC	?OnShout@CDPCoreClient@@AAEXAAVCAr@@KKK@Z	; CDPCoreClient::OnShout
PUBLIC	?OnPlayMusic@CDPCoreClient@@AAEXAAVCAr@@KKK@Z	; CDPCoreClient::OnPlayMusic
PUBLIC	?OnPlaySound@CDPCoreClient@@AAEXAAVCAr@@KKK@Z	; CDPCoreClient::OnPlaySound
PUBLIC	?OnErrorParty@CDPCoreClient@@AAEXAAVCAr@@KKK@Z	; CDPCoreClient::OnErrorParty
PUBLIC	?OnAddPartyMember@CDPCoreClient@@AAEXAAVCAr@@KKK@Z ; CDPCoreClient::OnAddPartyMember
PUBLIC	?OnRemovePartyMember@CDPCoreClient@@AAEXAAVCAr@@KKK@Z ; CDPCoreClient::OnRemovePartyMember
PUBLIC	?OnAddPlayerParty@CDPCoreClient@@AAEXAAVCAr@@KKK@Z ; CDPCoreClient::OnAddPlayerParty
PUBLIC	?OnRemovePlayerParty@CDPCoreClient@@AAEXAAVCAr@@KKK@Z ; CDPCoreClient::OnRemovePlayerParty
PUBLIC	?OnGuildMemberLv@CDPCoreClient@@AAEXAAVCAr@@KKK@Z ; CDPCoreClient::OnGuildMemberLv
PUBLIC	?OnSetPartyMode@CDPCoreClient@@AAEXAAVCAr@@KKK@Z ; CDPCoreClient::OnSetPartyMode
PUBLIC	?OnPartyChangeItemMode@CDPCoreClient@@AAEXAAVCAr@@KKK@Z ; CDPCoreClient::OnPartyChangeItemMode
PUBLIC	?OnPartyChangeExpMode@CDPCoreClient@@AAEXAAVCAr@@KKK@Z ; CDPCoreClient::OnPartyChangeExpMode
PUBLIC	?OnEnvironmentEffect@CDPCoreClient@@AAEXAAVCAr@@KKK@Z ; CDPCoreClient::OnEnvironmentEffect
PUBLIC	?OnPartyChat@CDPCoreClient@@AAEXAAVCAr@@KKK@Z	; CDPCoreClient::OnPartyChat
PUBLIC	?OnCreateGuild@CDPCoreClient@@AAEXAAVCAr@@KKK@Z	; CDPCoreClient::OnCreateGuild
PUBLIC	?OnDestroyGuild@CDPCoreClient@@AAEXAAVCAr@@KKK@Z ; CDPCoreClient::OnDestroyGuild
PUBLIC	?OnAddGuildMember@CDPCoreClient@@AAEXAAVCAr@@KKK@Z ; CDPCoreClient::OnAddGuildMember
PUBLIC	?OnRemoveGuildMember@CDPCoreClient@@AAEXAAVCAr@@KKK@Z ; CDPCoreClient::OnRemoveGuildMember
PUBLIC	?OnGuildClass@CDPCoreClient@@AAEXAAVCAr@@KKK@Z	; CDPCoreClient::OnGuildClass
PUBLIC	?OnGuildNickName@CDPCoreClient@@AAEXAAVCAr@@KKK@Z ; CDPCoreClient::OnGuildNickName
PUBLIC	?OnChgMaster@CDPCoreClient@@AAEXAAVCAr@@KKK@Z	; CDPCoreClient::OnChgMaster
PUBLIC	?OnGuildMemberLogOut@CDPCoreClient@@AAEXAAVCAr@@KKK@Z ; CDPCoreClient::OnGuildMemberLogOut
PUBLIC	?OnGuildLogoACK@CDPCoreClient@@AAEXAAVCAr@@KKK@Z ; CDPCoreClient::OnGuildLogoACK
PUBLIC	?OnGuildContributionACK@CDPCoreClient@@AAEXAAVCAr@@KKK@Z ; CDPCoreClient::OnGuildContributionACK
PUBLIC	?OnGuildNoticeACk@CDPCoreClient@@AAEXAAVCAr@@KKK@Z ; CDPCoreClient::OnGuildNoticeACk
PUBLIC	?OnAddVoteResultACk@CDPCoreClient@@AAEXAAVCAr@@KKK@Z ; CDPCoreClient::OnAddVoteResultACk
PUBLIC	?OnModifyVote@CDPCoreClient@@AAEXAAVCAr@@KKK@Z	; CDPCoreClient::OnModifyVote
PUBLIC	?OnGuildAuthority@CDPCoreClient@@AAEXAAVCAr@@KKK@Z ; CDPCoreClient::OnGuildAuthority
PUBLIC	?OnGuildPenya@CDPCoreClient@@AAEXAAVCAr@@KKK@Z	; CDPCoreClient::OnGuildPenya
PUBLIC	?OnGuildRealPenya@CDPCoreClient@@AAEXAAVCAr@@KKK@Z ; CDPCoreClient::OnGuildRealPenya
PUBLIC	?OnGuildSetName@CDPCoreClient@@AAEXAAVCAr@@KKK@Z ; CDPCoreClient::OnGuildSetName
PUBLIC	?OnGuildMsgControl@CDPCoreClient@@AAEXAAVCAr@@KKK@Z ; CDPCoreClient::OnGuildMsgControl
PUBLIC	?OnAcptWar@CDPCoreClient@@AAEXAAVCAr@@KKK@Z	; CDPCoreClient::OnAcptWar
PUBLIC	?OnSurrender@CDPCoreClient@@AAEXAAVCAr@@KKK@Z	; CDPCoreClient::OnSurrender
PUBLIC	?OnFriendInterceptState@CDPCoreClient@@AAEXAAVCAr@@KKK@Z ; CDPCoreClient::OnFriendInterceptState
PUBLIC	?OnSetFriendState@CDPCoreClient@@AAEXAAVCAr@@KKK@Z ; CDPCoreClient::OnSetFriendState
PUBLIC	?OnPartyChangeLeader@CDPCoreClient@@AAEXAAVCAr@@KKK@Z ; CDPCoreClient::OnPartyChangeLeader
PUBLIC	?OnLoadConstant@CDPCoreClient@@AAEXAAVCAr@@KKK@Z ; CDPCoreClient::OnLoadConstant
PUBLIC	?OnGameRate@CDPCoreClient@@AAEXAAVCAr@@KKK@Z	; CDPCoreClient::OnGameRate
PUBLIC	?OnSetMonsterRespawn@CDPCoreClient@@AAEXAAVCAr@@KKK@Z ; CDPCoreClient::OnSetMonsterRespawn
PUBLIC	?OnSetPlayerName@CDPCoreClient@@AAEXAAVCAr@@KKK@Z ; CDPCoreClient::OnSetPlayerName
PUBLIC	?OnEvent@CDPCoreClient@@AAEXAAVCAr@@KKK@Z	; CDPCoreClient::OnEvent
PUBLIC	?OnGuildCombatState@CDPCoreClient@@AAEXAAVCAr@@KKK@Z ; CDPCoreClient::OnGuildCombatState
PUBLIC	?OnRemoveUserFromCORE@CDPCoreClient@@AAEXAAVCAr@@KKK@Z ; CDPCoreClient::OnRemoveUserFromCORE
PUBLIC	?OnPing@CDPCoreClient@@AAEXAAVCAr@@KKK@Z	; CDPCoreClient::OnPing
PUBLIC	??_GCDPCoreClient@@UAEPAXI@Z			; CDPCoreClient::`scalar deleting destructor'
PUBLIC	?erase@?$_Tree@V?$_Tmap_traits@KU_Friend@@U?$less@K@std@@V?$allocator@U?$pair@$$CBKU_Friend@@@std@@@3@$0A@@std@@@std@@QAEIABK@Z ; std::_Tree<std::_Tmap_traits<unsigned long,_Friend,std::less<unsigned long>,std::allocator<std::pair<unsigned long const ,_Friend> >,0> >::erase
PUBLIC	?_Lrotate@?$_Tree_val@U?$_Tree_simple_types@U?$pair@$$CBKU_Friend@@@std@@@std@@@std@@QAEXPAU?$_Tree_node@U?$pair@$$CBKU_Friend@@@std@@PAX@2@@Z ; std::_Tree_val<std::_Tree_simple_types<std::pair<unsigned long const ,_Friend> > >::_Lrotate
PUBLIC	?_Rrotate@?$_Tree_val@U?$_Tree_simple_types@U?$pair@$$CBKU_Friend@@@std@@@std@@@std@@QAEXPAU?$_Tree_node@U?$pair@$$CBKU_Friend@@@std@@PAX@2@@Z ; std::_Tree_val<std::_Tree_simple_types<std::pair<unsigned long const ,_Friend> > >::_Rrotate
PUBLIC	?_Extract@?$_Tree_val@U?$_Tree_simple_types@U?$pair@$$CBKU_Friend@@@std@@@std@@@std@@QAEPAU?$_Tree_node@U?$pair@$$CBKU_Friend@@@std@@PAX@2@V?$_Tree_unchecked_const_iterator@V?$_Tree_val@U?$_Tree_simple_types@U?$pair@$$CBKU_Friend@@@std@@@std@@@std@@U_Iterator_base0@2@@2@@Z ; std::_Tree_val<std::_Tree_simple_types<std::pair<unsigned long const ,_Friend> > >::_Extract
PUBLIC	??E?$_Tree_unchecked_const_iterator@V?$_Tree_val@U?$_Tree_simple_types@U?$pair@$$CBKU_Friend@@@std@@@std@@@std@@U_Iterator_base0@2@@std@@QAEAAV01@XZ ; std::_Tree_unchecked_const_iterator<std::_Tree_val<std::_Tree_simple_types<std::pair<unsigned long const ,_Friend> > >,std::_Iterator_base0>::operator++
PUBLIC	??$?6G@CAr@@QAEAAV0@ABG@Z			; CAr::operator<<<unsigned short>
PUBLIC	??$?6H@CAr@@QAEAAV0@ABH@Z			; CAr::operator<<<int>
PUBLIC	??$?5H@CAr@@QAEAAV0@AAH@Z			; CAr::operator>><int>
PUBLIC	??$?6I@CAr@@QAEAAV0@ABI@Z			; CAr::operator<<<unsigned int>
PUBLIC	??$?6J@CAr@@QAEAAV0@ABJ@Z			; CAr::operator<<<long>
PUBLIC	??$?6UD3DXVECTOR3@@@CAr@@QAEAAV0@ABUD3DXVECTOR3@@@Z ; CAr::operator<<<D3DXVECTOR3>
PUBLIC	??$?6M@CAr@@QAEAAV0@ABM@Z			; CAr::operator<<<float>
PUBLIC	??$?5J@CAr@@QAEAAV0@AAJ@Z			; CAr::operator>><long>
PUBLIC	??$?5UD3DXVECTOR3@@@CAr@@QAEAAV0@AAUD3DXVECTOR3@@@Z ; CAr::operator>><D3DXVECTOR3>
PUBLIC	??$?5M@CAr@@QAEAAV0@AAM@Z			; CAr::operator>><float>
PUBLIC	??$insert@$0A@$0A@@?$_Tree@V?$_Tmap_traits@KP8CDPCoreClient@@AEXAAVCAr@@KKK@ZU?$less@K@std@@V?$allocator@U?$pair@$$CBKP8CDPCoreClient@@AEXAAVCAr@@KKK@Z@std@@@4@$0A@@std@@@std@@QAE?AU?$pair@V?$_Tree_iterator@V?$_Tree_val@U?$_Tree_simple_types@U?$pair@$$CBKP8CDPCoreClient@@AEXAAVCAr@@KKK@Z@std@@@std@@@std@@@std@@_N@1@$$QAU?$pair@$$CBKP8CDPCoreClient@@AEXAAVCAr@@KKK@Z@1@@Z ; std::_Tree<std::_Tmap_traits<unsigned long,void (__thiscall CDPCoreClient::*)(CAr &,unsigned long,unsigned long,unsigned long),std::less<unsigned long>,std::allocator<std::pair<unsigned long const ,void (__thiscall CDPCoreClient::*)(CAr &,unsigned long,unsigned long,unsigned long)> >,0> >::insert<0,0>
PUBLIC	?_Insert_node@?$_Tree_val@U?$_Tree_simple_types@U?$pair@$$CBKV?$CStringT@DV?$StrTraitMFC@DV?$ChTraitsCRT@D@ATL@@@@@ATL@@@std@@@std@@@std@@QAEPAU?$_Tree_node@U?$pair@$$CBKV?$CStringT@DV?$StrTraitMFC@DV?$ChTraitsCRT@D@ATL@@@@@ATL@@@std@@PAX@2@U?$_Tree_id@PAU?$_Tree_node@U?$pair@$$CBKV?$CStringT@DV?$StrTraitMFC@DV?$ChTraitsCRT@D@ATL@@@@@ATL@@@std@@PAX@std@@@2@QAU32@@Z ; std::_Tree_val<std::_Tree_simple_types<std::pair<unsigned long const ,ATL::CStringT<char,StrTraitMFC<char,ATL::ChTraitsCRT<char> > > > > >::_Insert_node
PUBLIC	??1?$pair@KV?$CStringT@DV?$StrTraitMFC@DV?$ChTraitsCRT@D@ATL@@@@@ATL@@@std@@QAE@XZ ; std::pair<unsigned long,ATL::CStringT<char,StrTraitMFC<char,ATL::ChTraitsCRT<char> > > >::~pair<unsigned long,ATL::CStringT<char,StrTraitMFC<char,ATL::ChTraitsCRT<char> > > >
PUBLIC	??$?6E@CAr@@QAEAAV0@ABE@Z			; CAr::operator<<<unsigned char>
PUBLIC	??$?5E@CAr@@QAEAAV0@AAE@Z			; CAr::operator>><unsigned char>
PUBLIC	??$?5_J@CAr@@QAEAAV0@AA_J@Z			; CAr::operator>><__int64>
PUBLIC	??$?5N@CAr@@QAEAAV0@AAN@Z			; CAr::operator>><double>
PUBLIC	??E?$_Tree_iterator@V?$_Tree_val@U?$_Tree_simple_types@U?$pair@$$CBKPAVCGuildMember@@@std@@@std@@@std@@@std@@QAEAAV01@XZ ; std::_Tree_iterator<std::_Tree_val<std::_Tree_simple_types<std::pair<unsigned long const ,CGuildMember *> > > >::operator++
PUBLIC	??$_Find_lower_bound@K@?$_Tree@V?$_Tmap_traits@KP8CDPCoreClient@@AEXAAVCAr@@KKK@ZU?$less@K@std@@V?$allocator@U?$pair@$$CBKP8CDPCoreClient@@AEXAAVCAr@@KKK@Z@std@@@4@$0A@@std@@@std@@IBE?AU?$_Tree_find_result@PAU?$_Tree_node@U?$pair@$$CBKP8CDPCoreClient@@AEXAAVCAr@@KKK@Z@std@@PAX@std@@@1@ABK@Z ; std::_Tree<std::_Tmap_traits<unsigned long,void (__thiscall CDPCoreClient::*)(CAr &,unsigned long,unsigned long,unsigned long),std::less<unsigned long>,std::allocator<std::pair<unsigned long const ,void (__thiscall CDPCoreClient::*)(CAr &,unsigned long,unsigned long,unsigned long)> >,0> >::_Find_lower_bound<unsigned long>
PUBLIC	??1?$_Alloc_construct_ptr@V?$allocator@U?$_Tree_node@U?$pair@$$CBKP8CDPCoreClient@@AEXAAVCAr@@KKK@Z@std@@PAX@std@@@std@@@std@@QAE@XZ ; std::_Alloc_construct_ptr<std::allocator<std::_Tree_node<std::pair<unsigned long const ,void (__thiscall CDPCoreClient::*)(CAr &,unsigned long,unsigned long,unsigned long)>,void *> > >::~_Alloc_construct_ptr<std::allocator<std::_Tree_node<std::pair<unsigned long const ,void (__thiscall CDPCoreClient::*)(CAr &,unsigned long,unsigned long,unsigned long)>,void *> > >
PUBLIC	??$_Find_lower_bound@K@?$_Tree@V?$_Tmap_traits@KV?$CStringT@DV?$StrTraitMFC@DV?$ChTraitsCRT@D@ATL@@@@@ATL@@U?$less@K@std@@V?$allocator@U?$pair@$$CBKV?$CStringT@DV?$StrTraitMFC@DV?$ChTraitsCRT@D@ATL@@@@@ATL@@@std@@@4@$0A@@std@@@std@@IBE?AU?$_Tree_find_result@PAU?$_Tree_node@U?$pair@$$CBKV?$CStringT@DV?$StrTraitMFC@DV?$ChTraitsCRT@D@ATL@@@@@ATL@@@std@@PAX@std@@@1@ABK@Z ; std::_Tree<std::_Tmap_traits<unsigned long,ATL::CStringT<char,StrTraitMFC<char,ATL::ChTraitsCRT<char> > >,std::less<unsigned long>,std::allocator<std::pair<unsigned long const ,ATL::CStringT<char,StrTraitMFC<char,ATL::ChTraitsCRT<char> > > > >,0> >::_Find_lower_bound<unsigned long>
PUBLIC	??$_Erase_tree@V?$allocator@U?$_Tree_node@U?$pair@$$CBKV?$CStringT@DV?$StrTraitMFC@DV?$ChTraitsCRT@D@ATL@@@@@ATL@@@std@@PAX@std@@@std@@@?$_Tree_val@U?$_Tree_simple_types@U?$pair@$$CBKV?$CStringT@DV?$StrTraitMFC@DV?$ChTraitsCRT@D@ATL@@@@@ATL@@@std@@@std@@@std@@QAEXAAV?$allocator@U?$_Tree_node@U?$pair@$$CBKV?$CStringT@DV?$StrTraitMFC@DV?$ChTraitsCRT@D@ATL@@@@@ATL@@@std@@PAX@std@@@1@PAU?$_Tree_node@U?$pair@$$CBKV?$CStringT@DV?$StrTraitMFC@DV?$ChTraitsCRT@D@ATL@@@@@ATL@@@std@@PAX@1@@Z ; std::_Tree_val<std::_Tree_simple_types<std::pair<unsigned long const ,ATL::CStringT<char,StrTraitMFC<char,ATL::ChTraitsCRT<char> > > > > >::_Erase_tree<std::allocator<std::_Tree_node<std::pair<unsigned long const ,ATL::CStringT<char,StrTraitMFC<char,ATL::ChTraitsCRT<char> > > >,void *> > >
PUBLIC	??$_Erase_tree@V?$allocator@U?$_Tree_node@U?$pair@$$CBKP8CDPCoreClient@@AEXAAVCAr@@KKK@Z@std@@PAX@std@@@std@@@?$_Tree_val@U?$_Tree_simple_types@U?$pair@$$CBKP8CDPCoreClient@@AEXAAVCAr@@KKK@Z@std@@@std@@@std@@QAEXAAV?$allocator@U?$_Tree_node@U?$pair@$$CBKP8CDPCoreClient@@AEXAAVCAr@@KKK@Z@std@@PAX@std@@@1@PAU?$_Tree_node@U?$pair@$$CBKP8CDPCoreClient@@AEXAAVCAr@@KKK@Z@std@@PAX@1@@Z ; std::_Tree_val<std::_Tree_simple_types<std::pair<unsigned long const ,void (__thiscall CDPCoreClient::*)(CAr &,unsigned long,unsigned long,unsigned long)> > >::_Erase_tree<std::allocator<std::_Tree_node<std::pair<unsigned long const ,void (__thiscall CDPCoreClient::*)(CAr &,unsigned long,unsigned long,unsigned long)>,void *> > >
PUBLIC	??1?$_Alloc_construct_ptr@V?$allocator@U?$_Tree_node@U?$pair@$$CBKV?$CStringT@DV?$StrTraitMFC@DV?$ChTraitsCRT@D@ATL@@@@@ATL@@@std@@PAX@std@@@std@@@std@@QAE@XZ ; std::_Alloc_construct_ptr<std::allocator<std::_Tree_node<std::pair<unsigned long const ,ATL::CStringT<char,StrTraitMFC<char,ATL::ChTraitsCRT<char> > > >,void *> > >::~_Alloc_construct_ptr<std::allocator<std::_Tree_node<std::pair<unsigned long const ,ATL::CStringT<char,StrTraitMFC<char,ATL::ChTraitsCRT<char> > > >,void *> > >
PUBLIC	??1?$_Tree_temp_node_alloc@V?$allocator@U?$_Tree_node@U?$pair@$$CBKV?$CStringT@DV?$StrTraitMFC@DV?$ChTraitsCRT@D@ATL@@@@@ATL@@@std@@PAX@std@@@std@@@std@@QAE@XZ ; std::_Tree_temp_node_alloc<std::allocator<std::_Tree_node<std::pair<unsigned long const ,ATL::CStringT<char,StrTraitMFC<char,ATL::ChTraitsCRT<char> > > >,void *> > >::~_Tree_temp_node_alloc<std::allocator<std::_Tree_node<std::pair<unsigned long const ,ATL::CStringT<char,StrTraitMFC<char,ATL::ChTraitsCRT<char> > > >,void *> > >
PUBLIC	??$_Erase_tree@V?$allocator@U?$_Tree_node@U?$pair@$$CBKU_Friend@@@std@@PAX@std@@@std@@@?$_Tree_val@U?$_Tree_simple_types@U?$pair@$$CBKU_Friend@@@std@@@std@@@std@@QAEXAAV?$allocator@U?$_Tree_node@U?$pair@$$CBKU_Friend@@@std@@PAX@std@@@1@PAU?$_Tree_node@U?$pair@$$CBKU_Friend@@@std@@PAX@1@@Z ; std::_Tree_val<std::_Tree_simple_types<std::pair<unsigned long const ,_Friend> > >::_Erase_tree<std::allocator<std::_Tree_node<std::pair<unsigned long const ,_Friend>,void *> > >
PUBLIC	?_OptionsStorage@?1??__local_stdio_printf_options@@9@4_KA ; `__local_stdio_printf_options'::`2'::_OptionsStorage
PUBLIC	??_C@_00CNPNBAHC@@				; `string'
PUBLIC	??_7exception@std@@6B@				; std::exception::`vftable'
PUBLIC	??_C@_0BC@EOODALEL@Unknown?5exception@		; `string'
PUBLIC	??_7bad_alloc@std@@6B@				; std::bad_alloc::`vftable'
PUBLIC	??_7bad_array_new_length@std@@6B@		; std::bad_array_new_length::`vftable'
PUBLIC	??_C@_0BF@KINCDENJ@bad?5array?5new?5length@	; `string'
PUBLIC	??_R0?AVexception@std@@@8			; std::exception `RTTI Type Descriptor'
PUBLIC	__CT??_R0?AVexception@std@@@8??0exception@std@@QAE@ABV01@@Z12
PUBLIC	__TI3?AVbad_array_new_length@std@@
PUBLIC	__CTA3?AVbad_array_new_length@std@@
PUBLIC	??_R0?AVbad_array_new_length@std@@@8		; std::bad_array_new_length `RTTI Type Descriptor'
PUBLIC	__CT??_R0?AVbad_array_new_length@std@@@8??0bad_array_new_length@std@@QAE@ABV01@@Z12
PUBLIC	??_R0?AVbad_alloc@std@@@8			; std::bad_alloc `RTTI Type Descriptor'
PUBLIC	__CT??_R0?AVbad_alloc@std@@@8??0bad_alloc@std@@QAE@ABV01@@Z12
PUBLIC	??_C@_0BB@GCADKGJO@map?1set?5too?5long@		; `string'
PUBLIC	??_C@_06OJLEAOEG@?$CFs?0?5?$CFd@		; `string'
PUBLIC	??_C@_0DB@ILBMOCBP@C?3?2IAGOS?2server?2v18?2Source?2Sour@ ; `string'
PUBLIC	??_R4exception@std@@6B@				; std::exception::`RTTI Complete Object Locator'
PUBLIC	??_R3exception@std@@8				; std::exception::`RTTI Class Hierarchy Descriptor'
PUBLIC	??_R2exception@std@@8				; std::exception::`RTTI Base Class Array'
PUBLIC	??_R1A@?0A@EA@exception@std@@8			; std::exception::`RTTI Base Class Descriptor at (0,-1,0,64)'
PUBLIC	??_R4bad_array_new_length@std@@6B@		; std::bad_array_new_length::`RTTI Complete Object Locator'
PUBLIC	??_R3bad_array_new_length@std@@8		; std::bad_array_new_length::`RTTI Class Hierarchy Descriptor'
PUBLIC	??_R2bad_array_new_length@std@@8		; std::bad_array_new_length::`RTTI Base Class Array'
PUBLIC	??_R1A@?0A@EA@bad_array_new_length@std@@8	; std::bad_array_new_length::`RTTI Base Class Descriptor at (0,-1,0,64)'
PUBLIC	??_R1A@?0A@EA@bad_alloc@std@@8			; std::bad_alloc::`RTTI Base Class Descriptor at (0,-1,0,64)'
PUBLIC	??_R3bad_alloc@std@@8				; std::bad_alloc::`RTTI Class Hierarchy Descriptor'
PUBLIC	??_R2bad_alloc@std@@8				; std::bad_alloc::`RTTI Base Class Array'
PUBLIC	??_R4bad_alloc@std@@6B@				; std::bad_alloc::`RTTI Complete Object Locator'
PUBLIC	??_7CDPCoreClient@@6B@				; CDPCoreClient::`vftable'
PUBLIC	?g_DPCoreClient@@3VCDPCoreClient@@A		; g_DPCoreClient
PUBLIC	??_C@_0CK@LDBBMALI@CDPCoreClient?3?3UserMessageHandl@ ; `string'
PUBLIC	??_C@_0BJ@BNGKCMIB@Handler?5not?5found?$CI?$CF08x?$CJ?6@ ; `string'
PUBLIC	??_C@_01CLKCMJKC@?5@				; `string'
PUBLIC	??_C@_0CF@KHAAHOCE@OnRecharge?$CI?$CJ?3?5BLOCK?5SIZE?5TOO?5BI@ ; `string'
PUBLIC	??_C@_0ED@LDJICDKL@CDPCoreClient?3?3OnRemovePartyMem@ ; `string'
PUBLIC	??_C@_0CH@FAKABKBE@OnRemovePartyMember?3?3?5Not?5Delet@ ; `string'
PUBLIC	??_C@_0CA@HFBKDIMP@OnRemovePartyMember?3?3?5Not?5Party@ ; `string'
PUBLIC	??_C@_02DKCKIIND@?$CFs@				; `string'
PUBLIC	??_C@_0P@NCDLPOAH@?$FLp?$FN?$FL?$CFs?9?$DO?$CFs?$FN?5?$CFs@ ; `string'
PUBLIC	??_C@_0M@GCGJJOGO@OnAcptWar?$CI?$CJ@		; `string'
PUBLIC	??_C@_0N@HLKEIJPF@Constant?4inc@		; `string'
PUBLIC	??_C@_0EB@IKEJBDFI@Add?5Respwan?5MonsterID?5?$DN?5?$CFd?$CI?$CFd?1?$CF@ ; `string'
PUBLIC	??_C@_0CG@CGBKAIOI@OnCWWantedReward?5cannot?5found?5w@ ; `string'
PUBLIC	??_C@_0CK@HAGGAOID@WORLDSERVER?4EXE?7?1?1?5?$CFd?7?1?1?5?$CFs?7?1?1?5@ ; `string'
PUBLIC	??_C@_0DM@JNAMHNMN@WORLDSERVER?4EXE?7PACKETTYPE_QUER@ ; `string'
PUBLIC	??_C@_0P@CNHEPODF@OnEvent?9Xmas?31@		; `string'
PUBLIC	??_C@_0P@DEGPMPHE@OnEvent?9Xmas?30@		; `string'
PUBLIC	??_C@_0BC@FENKCJID@OnEvent?9NewYear?31@		; `string'
PUBLIC	??_C@_0BC@ENMBBIMC@OnEvent?9NewYear?30@		; `string'
PUBLIC	??_C@_0BI@EGIKGMHI@OnEvent?9ValentinesDay?31@	; `string'
PUBLIC	??_C@_0BI@FPJBFNDJ@OnEvent?9ValentinesDay?30@	; `string'
PUBLIC	??_C@_0BE@ELMCEHLG@CORE?5?3?5is?5not?5alive@	; `string'
PUBLIC	??_R4CDPCoreClient@@6B@				; CDPCoreClient::`RTTI Complete Object Locator'
PUBLIC	??_R0?AVCDPCoreClient@@@8			; CDPCoreClient `RTTI Type Descriptor'
PUBLIC	??_R3CDPCoreClient@@8				; CDPCoreClient::`RTTI Class Hierarchy Descriptor'
PUBLIC	??_R2CDPCoreClient@@8				; CDPCoreClient::`RTTI Base Class Array'
PUBLIC	??_R1A@?0A@EA@CDPCoreClient@@8			; CDPCoreClient::`RTTI Base Class Descriptor at (0,-1,0,64)'
PUBLIC	??_R1A@?0A@EA@CDPMng@@8				; CDPMng::`RTTI Base Class Descriptor at (0,-1,0,64)'
PUBLIC	??_R0?AVCDPMng@@@8				; CDPMng `RTTI Type Descriptor'
PUBLIC	??_R3CDPMng@@8					; CDPMng::`RTTI Class Hierarchy Descriptor'
PUBLIC	??_R2CDPMng@@8					; CDPMng::`RTTI Base Class Array'
PUBLIC	__xmm@41f00000000000000000000000000000
EXTRN	??2@YAPAXI@Z:PROC				; operator new
EXTRN	??3@YAXPAXI@Z:PROC				; operator delete
EXTRN	??_U@YAPAXI@Z:PROC				; operator new[]
EXTRN	??_V@YAXPAX@Z:PROC				; operator delete[]
EXTRN	_atexit:PROC
EXTRN	__Init_thread_header:PROC
EXTRN	__Init_thread_abort:PROC
EXTRN	__Init_thread_footer:PROC
EXTRN	__invalid_parameter_noinfo:PROC
EXTRN	__invoke_watson:PROC
EXTRN	__errno:PROC
EXTRN	_strncpy:PROC
EXTRN	__imp__OutputDebugStringA@4:PROC
EXTRN	__imp__CloseHandle@4:PROC
EXTRN	__imp__EnterCriticalSection@4:PROC
EXTRN	__imp__LeaveCriticalSection@4:PROC
EXTRN	__imp__WaitForSingleObject@8:PROC
EXTRN	__imp__GetTickCount@0:PROC
EXTRN	__imp__LoadResource@8:PROC
EXTRN	__imp__LockResource@4:PROC
EXTRN	__imp__SizeofResource@8:PROC
EXTRN	__imp__FindResourceW@12:PROC
EXTRN	__imp__lstrcpyA@8:PROC
EXTRN	__imp__WideCharToMultiByte@32:PROC
EXTRN	___stdio_common_vsprintf:PROC
EXTRN	___stdio_common_vsprintf_s:PROC
EXTRN	__time64:PROC
EXTRN	?AfxThrowMemoryException@@YGXXZ:PROC		; AfxThrowMemoryException
EXTRN	?AfxThrowOleException@@YGXJ@Z:PROC		; AfxThrowOleException
EXTRN	?AfxFindStringResourceHandle@@YGPAUHINSTANCE__@@I@Z:PROC ; AfxFindStringResourceHandle
EXTRN	__imp__WSACreateEvent@0:PROC
EXTRN	__imp__WSASetEvent@4:PROC
EXTRN	?AfxGetStringManager@@YGPAUIAtlStringMgr@ATL@@XZ:PROC ; AfxGetStringManager
EXTRN	___std_exception_copy:PROC
EXTRN	___std_exception_destroy:PROC
EXTRN	??_Eexception@std@@UAEPAXI@Z:PROC		; std::exception::`vector deleting destructor'
EXTRN	??_Ebad_alloc@std@@UAEPAXI@Z:PROC		; std::bad_alloc::`vector deleting destructor'
EXTRN	??_Ebad_array_new_length@std@@UAEPAXI@Z:PROC	; std::bad_array_new_length::`vector deleting destructor'
EXTRN	?_Xlength_error@std@@YAXPBD@Z:PROC		; std::_Xlength_error
EXTRN	__imp__timeGetTime@0:PROC
EXTRN	?WriteLog@@YAXPBDZZ:PROC			; WriteLog
EXTRN	?SetCurrentTime@CGameTimer@@QAEXN@Z:PROC	; CGameTimer::SetCurrentTime
EXTRN	?Error@@YAPBDPBDZZ:PROC				; Error
EXTRN	?SetPos@CObj@@QAEXABUD3DXVECTOR3@@@Z:PROC	; CObj::SetPos
EXTRN	?SetAngle@CObj@@QAEXM@Z:PROC			; CObj::SetAngle
EXTRN	?GetGuildQuest@CGuildQuestProcessor@@QAEPAU_GUILDQUESTELEM@@H@Z:PROC ; CGuildQuestProcessor::GetGuildQuest
EXTRN	?GetInstance@CGuildQuestProcessor@@SAPAV1@XZ:PROC ; CGuildQuestProcessor::GetInstance
EXTRN	?PtInQuestRect@CGuildQuestProcessor@@QAEHABUD3DXVECTOR3@@@Z:PROC ; CGuildQuestProcessor::PtInQuestRect
EXTRN	?GetWeatherEventTitle@CEventLua@@QAE?AV?$basic_string@DU?$char_traits@D@std@@V?$allocator@D@2@@std@@XZ:PROC ; CEventLua::GetWeatherEventTitle
EXTRN	?LoadConstant@CProject@@SAHPBD@Z:PROC		; CProject::LoadConstant
EXTRN	??0CItemElem@@QAE@XZ:PROC			; CItemElem::CItemElem
EXTRN	??0CItem@@QAE@XZ:PROC				; CItem::CItem
EXTRN	?IsUsableItem@@YAHPAVCItemBase@@@Z:PROC		; IsUsableItem
EXTRN	??0CAr@@QAE@PAXI@Z:PROC				; CAr::CAr
EXTRN	??1CAr@@QAE@XZ:PROC				; CAr::~CAr
EXTRN	?Read@CAr@@QAEXPAXI@Z:PROC			; CAr::Read
EXTRN	?Write@CAr@@QAEXPBXI@Z:PROC			; CAr::Write
EXTRN	?CheckBuf@CAr@@QAEXI@Z:PROC			; CAr::CheckBuf
EXTRN	?WriteString@CAr@@QAEXPBD@Z:PROC		; CAr::WriteString
EXTRN	?ReadString@CAr@@QAEPADPADH@Z:PROC		; CAr::ReadString
EXTRN	?GetBuffer@CAr@@QAEPAEPAH@Z:PROC		; CAr::GetBuffer
EXTRN	?GetName@CMover@@QAEPBDH@Z:PROC			; CMover::GetName
EXTRN	?UpdateItem@CMover@@QAEXEDKK@Z:PROC		; CMover::UpdateItem
EXTRN	?GetItemId@CMover@@QAEPAVCItemBase@@K@Z:PROC	; CMover::GetItemId
EXTRN	?GetGuild@CMover@@QAEPAVCGuild@@XZ:PROC		; CMover::GetGuild
EXTRN	?RemoveItemIK3@CMover@@QAEXK@Z:PROC		; CMover::RemoveItemIK3
EXTRN	?Replace@CMover@@QAEHKKAAUD3DXVECTOR3@@W4REPLACE_TYPE@@H@Z:PROC ; CMover::Replace
EXTRN	??0CRespawnInfo@@QAE@XZ:PROC			; CRespawnInfo::CRespawnInfo
EXTRN	??1CRespawnInfo@@UAE@XZ:PROC			; CRespawnInfo::~CRespawnInfo
EXTRN	?Add@CLayerdRespawner@@QAEHAAVCRespawnInfo@@H@Z:PROC ; CLayerdRespawner::Add
EXTRN	??0CServerDesc@@QAE@XZ:PROC			; CServerDesc::CServerDesc
EXTRN	??1CServerDesc@@UAE@XZ:PROC			; CServerDesc::~CServerDesc
EXTRN	?Serialize@CServerDesc@@QAEXAAVCAr@@@Z:PROC	; CServerDesc::Serialize
EXTRN	?AddObj@CWorld@@QAEHPAVCObj@@HH@Z:PROC		; CWorld::AddObj
EXTRN	?SetState@CFlyffEvent@@QAEHHE@Z:PROC		; CFlyffEvent::SetState
EXTRN	?GetState@CFlyffEvent@@QAEEH@Z:PROC		; CFlyffEvent::GetState
EXTRN	?Send@CDPSock@@QAEHPADKK@Z:PROC			; CDPSock::Send
EXTRN	??0CDPMng@@QAE@XZ:PROC				; CDPMng::CDPMng
EXTRN	??1CDPMng@@UAE@XZ:PROC				; CDPMng::~CDPMng
EXTRN	?CreateDPObject@CDPMng@@QAEHH@Z:PROC		; CDPMng::CreateDPObject
EXTRN	?InitConnection@CDPMng@@QAEHPAXG@Z:PROC		; CDPMng::InitConnection
EXTRN	?JoinSession@CDPMng@@QAEHPBDW4BUFFER_TYPE@@@Z:PROC ; CDPMng::JoinSession
EXTRN	??5@YAAAVCAr@@AAV0@AAUVOTE_INSERTED_INFO@@@Z:PROC ; operator>>
EXTRN	??6@YAAAVCAr@@AAV0@AAUCONTRIBUTION_CHANGED_INFO@@@Z:PROC ; operator<<
EXTRN	??5@YAAAVCAr@@AAV0@AAUCONTRIBUTION_CHANGED_INFO@@@Z:PROC ; operator>>
EXTRN	??0CGuildMember@@QAE@XZ:PROC			; CGuildMember::CGuildMember
EXTRN	??0CGuild@@QAE@XZ:PROC				; CGuild::CGuild
EXTRN	?AddMember@CGuild@@QAEHPAVCGuildMember@@@Z:PROC	; CGuild::AddMember
EXTRN	?RemoveMember@CGuild@@QAEHK@Z:PROC		; CGuild::RemoveMember
EXTRN	?SetLogo@CGuild@@QAEHK@Z:PROC			; CGuild::SetLogo
EXTRN	?SetNotice@CGuild@@QAEXPBD@Z:PROC		; CGuild::SetNotice
EXTRN	?SetContribution@CGuild@@QAEXAAUCONTRIBUTION_CHANGED_INFO@@@Z:PROC ; CGuild::SetContribution
EXTRN	?AddContribution@CGuild@@QAEHKKK@Z:PROC		; CGuild::AddContribution
EXTRN	?AddVote@CGuild@@QAEXABUVOTE_INSERTED_INFO@@_NPAE@Z:PROC ; CGuild::AddVote
EXTRN	?ModifyVote@CGuild@@QAE_NKEE@Z:PROC		; CGuild::ModifyVote
EXTRN	?GetMember@CGuild@@QAEPAVCGuildMember@@K@Z:PROC	; CGuild::GetMember
EXTRN	?AddGuild@CGuildMng@@QAEKPAVCGuild@@@Z:PROC	; CGuildMng::AddGuild
EXTRN	?RemoveGuild@CGuildMng@@QAEHK@Z:PROC		; CGuildMng::RemoveGuild
EXTRN	?GetGuild@CGuildMng@@QAEPAVCGuild@@K@Z:PROC	; CGuildMng::GetGuild
EXTRN	?Serialize@CGuildMng@@QAEXAAVCAr@@H@Z:PROC	; CGuildMng::Serialize
EXTRN	?SetName@CGuildMng@@QAEHPAVCGuild@@PBD@Z:PROC	; CGuildMng::SetName
EXTRN	?GetInstance@CGuildHouseMng@@SAPAV1@XZ:PROC	; CGuildHouseMng::GetInstance
EXTRN	?GetGuildHouse@CGuildHouseMng@@QAEPAVCGuildHouseBase@@K@Z:PROC ; CGuildHouseMng::GetGuildHouse
EXTRN	?GoOutGuildHouse@CGuildHouseMng@@QAEXPAVCUser@@@Z:PROC ; CGuildHouseMng::GoOutGuildHouse
EXTRN	?SetApplyDST@CGuildHouseMng@@QAEXPAVCUser@@@Z:PROC ; CGuildHouseMng::SetApplyDST
EXTRN	?ResetApplyDST@CGuildHouseMng@@QAEXPAVCUser@@@Z:PROC ; CGuildHouseMng::ResetApplyDST
EXTRN	?SendGuildContribution@CDPDatabaseClient@@QAEXAAUCONTRIBUTION_CHANGED_INFO@@EJ@Z:PROC ; CDPDatabaseClient::SendGuildContribution
EXTRN	?QueryDestroyPlayer@CDPSrvr@@QAEXKKKK@Z:PROC	; CDPSrvr::QueryDestroyPlayer
EXTRN	?SetLogInfo@@YAXW4LOGTYPE@@PBDZZ:PROC		; SetLogInfo
EXTRN	?GetInstance@CInstanceDungeonHelper@@SAPAV1@XZ:PROC ; CInstanceDungeonHelper::GetInstance
EXTRN	?OnCreateDungeon@CInstanceDungeonHelper@@QAEXHUINSTACNEDUNGEON_INFO@@K@Z:PROC ; CInstanceDungeonHelper::OnCreateDungeon
EXTRN	?OnDestroyDungeon@CInstanceDungeonHelper@@QAEXHUINSTACNEDUNGEON_INFO@@K@Z:PROC ; CInstanceDungeonHelper::OnDestroyDungeon
EXTRN	?OnSetDungeonCoolTimeInfo@CInstanceDungeonHelper@@QAEXKHUCOOLTIME_INFO@@K@Z:PROC ; CInstanceDungeonHelper::OnSetDungeonCoolTimeInfo
EXTRN	?OnInstanceDungeonAllInfo@CInstanceDungeonHelper@@QAEXAAVCAr@@@Z:PROC ; CInstanceDungeonHelper::OnInstanceDungeonAllInfo
EXTRN	?OnDeleteDungeonCoolTimeInfo@CInstanceDungeonHelper@@QAEXHK@Z:PROC ; CInstanceDungeonHelper::OnDeleteDungeonCoolTimeInfo
EXTRN	??_ECDPCoreClient@@UAEPAXI@Z:PROC		; CDPCoreClient::`vector deleting destructor'
EXTRN	?GetLeader@CParty@@QAEPAVCMover@@XZ:PROC	; CParty::GetLeader
EXTRN	?NewMember@CParty@@QAEHK@Z:PROC			; CParty::NewMember
EXTRN	?DeleteMember@CParty@@QAEHK@Z:PROC		; CParty::DeleteMember
EXTRN	?ChangeLeader@CParty@@QAEXK@Z:PROC		; CParty::ChangeLeader
EXTRN	?SwapPartyMember@CParty@@QAEXHH@Z:PROC		; CParty::SwapPartyMember
EXTRN	?DoDuelPartyCancel@CParty@@QAEXPAV1@@Z:PROC	; CParty::DoDuelPartyCancel
EXTRN	?FindMember@CParty@@QAEHK@Z:PROC		; CParty::FindMember
EXTRN	?NewParty@CPartyMng@@QAEKKJJEPADKJJE0K@Z:PROC	; CPartyMng::NewParty
EXTRN	?DeleteParty@CPartyMng@@QAEHK@Z:PROC		; CPartyMng::DeleteParty
EXTRN	?GetParty@CPartyMng@@QAEPAVCParty@@K@Z:PROC	; CPartyMng::GetParty
EXTRN	?Serialize@CPartyMng@@QAEXAAVCAr@@@Z:PROC	; CPartyMng::Serialize
EXTRN	?SetFriend@CRTMessenger@@QAEXKPAU_Friend@@@Z:PROC ; CRTMessenger::SetFriend
EXTRN	?GetFriend@CRTMessenger@@QAEPAU_Friend@@K@Z:PROC ; CRTMessenger::GetFriend
EXTRN	?GetInstance@CPlayerDataCenter@@SAPAV1@XZ:PROC	; CPlayerDataCenter::GetInstance
EXTRN	?GetPlayerData@CPlayerDataCenter@@QAEPAU_PlayerData@@K@Z:PROC ; CPlayerDataCenter::GetPlayerData
EXTRN	?AddPlayerData@CPlayerDataCenter@@QAEPAU_PlayerData@@KAAU2@@Z:PROC ; CPlayerDataCenter::AddPlayerData
EXTRN	?DeletePlayerData@CPlayerDataCenter@@QAEHK@Z:PROC ; CPlayerDataCenter::DeletePlayerData
EXTRN	?GetPlayerString@CPlayerDataCenter@@QAEPBDK@Z:PROC ; CPlayerDataCenter::GetPlayerString
EXTRN	?GetInstance@CHousingMng@@SAPAV1@XZ:PROC	; CHousingMng::GetInstance
EXTRN	?ReqSetAllowVisit@CHousingMng@@QAEHPAVCUser@@KH@Z:PROC ; CHousingMng::ReqSetAllowVisit
EXTRN	?SetAllAction@CUser@@QAEXXZ:PROC		; CUser::SetAllAction
EXTRN	?AddText@CUser@@QAEXPBD@Z:PROC			; CUser::AddText
EXTRN	?AddDefinedText@CUser@@QAAXHPBDZZ:PROC		; CUser::AddDefinedText
EXTRN	?AddDefinedText@CUser@@QAEXH@Z:PROC		; CUser::AddDefinedText
EXTRN	?AddPartyChangeLeader@CUser@@QAEXK@Z:PROC	; CUser::AddPartyChangeLeader
EXTRN	?AddSendErrorParty@CUser@@QAEXKK@Z:PROC		; CUser::AddSendErrorParty
EXTRN	?AddPartyMember@CUser@@QAEXPAVCParty@@KPBD1@Z:PROC ; CUser::AddPartyMember
EXTRN	?AddPartyExpLevel@CUser@@QAEXHHH@Z:PROC		; CUser::AddPartyExpLevel
EXTRN	?AddPartyChangeTroup@CUser@@QAEXPBD@Z:PROC	; CUser::AddPartyChangeTroup
EXTRN	?AddPartyChangeName@CUser@@QAEXPBD@Z:PROC	; CUser::AddPartyChangeName
EXTRN	?AddSetPartyMode@CUser@@QAEXHHJK@Z:PROC		; CUser::AddSetPartyMode
EXTRN	?AddPartyChangeItemMode@CUser@@QAEXH@Z:PROC	; CUser::AddPartyChangeItemMode
EXTRN	?AddPartyChangeExpMode@CUser@@QAEXH@Z:PROC	; CUser::AddPartyChangeExpMode
EXTRN	?AddSetPartyMemberParam@CUser@@QAEXKEH@Z:PROC	; CUser::AddSetPartyMemberParam
EXTRN	?AddPartyChat@CUser@@QAEXPBD0K@Z:PROC		; CUser::AddPartyChat
EXTRN	?AddAddFriend@CUser@@QAEXKPBD@Z:PROC		; CUser::AddAddFriend
EXTRN	?AddRemoveFriend@CUser@@QAEXK@Z:PROC		; CUser::AddRemoveFriend
EXTRN	?AddGetGoldGuildBank@CUser@@QAEXKEKE@Z:PROC	; CUser::AddGetGoldGuildBank
EXTRN	?AddContribution@CUser@@QAEXAAUCONTRIBUTION_CHANGED_INFO@@@Z:PROC ; CUser::AddContribution
EXTRN	?AddSetNotice@CUser@@QAEXKPBD@Z:PROC		; CUser::AddSetNotice
EXTRN	?AddInsertedVote@CUser@@QAEXAAUVOTE_INSERTED_INFO@@@Z:PROC ; CUser::AddInsertedVote
EXTRN	?AddModifyVote@CUser@@QAEXKEE@Z:PROC		; CUser::AddModifyVote
EXTRN	?AddSetGuildAuthority@CUser@@QAEXQAK@Z:PROC	; CUser::AddSetGuildAuthority
EXTRN	?AddSetGuildPenya@CUser@@QAEXKK@Z:PROC		; CUser::AddSetGuildPenya
EXTRN	?AddGuildRealPenya@CUser@@QAEXHH@Z:PROC		; CUser::AddGuildRealPenya
EXTRN	?AddMyGuild@CUser@@QAEXXZ:PROC			; CUser::AddMyGuild
EXTRN	?AddSnoop@CUser@@QAEXPBD@Z:PROC			; CUser::AddSnoop
EXTRN	?AddGuildHouseAllInfo@CUser@@QAEXPAVCGuildHouseBase@@@Z:PROC ; CUser::AddGuildHouseAllInfo
EXTRN	?SendColosseumEnter@CUser@@QAEXXZ:PROC		; CUser::SendColosseumEnter
EXTRN	?RemoveUser@CUserMng@@QAEXK@Z:PROC		; CUserMng::RemoveUser
EXTRN	?GetUserByPlayerID@CUserMng@@QAEPAVCUser@@K@Z:PROC ; CUserMng::GetUserByPlayerID
EXTRN	?AddModifyMode@CUserMng@@QAEXPAVCUser@@@Z:PROC	; CUserMng::AddModifyMode
EXTRN	?AddBlock@CUserMng@@QAEXPAEK@Z:PROC		; CUserMng::AddBlock
EXTRN	?AddBlock@CUserMng@@QAEXPAEKPAVCWorld@@@Z:PROC	; CUserMng::AddBlock
EXTRN	?AddCreateGuild@CUserMng@@QAEXKPBDK0@Z:PROC	; CUserMng::AddCreateGuild
EXTRN	?AddDestroyGuild@CUserMng@@QAEXPBDK@Z:PROC	; CUserMng::AddDestroyGuild
EXTRN	?AddSetGuild@CUserMng@@QAEXPAVCUser@@K@Z:PROC	; CUserMng::AddSetGuild
EXTRN	?AddSetLogo@CUserMng@@QAEXKK@Z:PROC		; CUserMng::AddSetLogo
EXTRN	?AddSetWar@CUserMng@@QAEXPAVCUser@@K@Z:PROC	; CUserMng::AddSetWar
EXTRN	?AddSetLocalEvent@CUserMng@@QAEXFE@Z:PROC	; CUserMng::AddSetLocalEvent
EXTRN	?AddGameSetting@CUserMng@@QAEXXZ:PROC		; CUserMng::AddGameSetting
EXTRN	?AddGuildCombatState@CUserMng@@QAEXXZ:PROC	; CUserMng::AddGuildCombatState
EXTRN	?GetWorld@CWorldMng@@QAEPAVCWorld@@K@Z:PROC	; CWorldMng::GetWorld
EXTRN	?Add@CWorldMng@@QAEXPAVCJurisdiction@@@Z:PROC	; CWorldMng::Add
EXTRN	?ReadObject@CWorldMng@@QAEXXZ:PROC		; CWorldMng::ReadObject
EXTRN	?GetRevivalPosChao@CWorldMng@@QAEPAUREGIONELEM@@KPBD@Z:PROC ; CWorldMng::GetRevivalPosChao
EXTRN	?GetNearRevivalPosChao@CWorldMng@@QAEPAUREGIONELEM@@KAAUD3DXVECTOR3@@@Z:PROC ; CWorldMng::GetNearRevivalPosChao
EXTRN	?GetRevivalPos@CWorldMng@@QAEPAUREGIONELEM@@KPBD@Z:PROC ; CWorldMng::GetRevivalPos
EXTRN	?GetNearRevivalPos@CWorldMng@@QAEPAUREGIONELEM@@KAAUD3DXVECTOR3@@@Z:PROC ; CWorldMng::GetNearRevivalPos
EXTRN	?GetInstance@CEnvironment@@SAPAV1@XZ:PROC	; CEnvironment::GetInstance
EXTRN	?Serialize@CEnvironment@@QAEXAAVCAr@@@Z:PROC	; CEnvironment::Serialize
EXTRN	??0CGuildWar@@QAE@XZ:PROC			; CGuildWar::CGuildWar
EXTRN	??1CGuildWar@@QAE@XZ:PROC			; CGuildWar::~CGuildWar
EXTRN	?Serialize@CGuildWarMng@@QAEXAAVCAr@@@Z:PROC	; CGuildWarMng::Serialize
EXTRN	?AddWar@CGuildWarMng@@QAEKPAVCGuildWar@@@Z:PROC	; CGuildWarMng::AddWar
EXTRN	?Result@CGuildWarMng@@QAEXPAVCGuildWar@@PAVCGuild@@1HHH@Z:PROC ; CGuildWarMng::Result
EXTRN	?GetWar@CGuildWarMng@@QAEPAVCGuildWar@@K@Z:PROC	; CGuildWarMng::GetWar
EXTRN	?GetInstance@CWantedListSnapshot@@SAAAV1@XZ:PROC ; CWantedListSnapshot::GetInstance
EXTRN	?Read@CWantedListSnapshot@@QAEXAAVCAr@@@Z:PROC	; CWantedListSnapshot::Read
EXTRN	?KickUser@CColosseumMatch@@QAEXK@Z:PROC		; CColosseumMatch::KickUser
EXTRN	?GetInstance@CColosseumMng@@SAPAV1@XZ:PROC	; CColosseumMng::GetInstance
EXTRN	?GetMatchByParty@CColosseumMng@@QAEPAVCColosseumMatch@@PAVCParty@@@Z:PROC ; CColosseumMng::GetMatchByParty
EXTRN	@__security_check_cookie@4:PROC
EXTRN	__CxxThrowException@8:PROC
EXTRN	___CxxFrameHandler3:PROC
EXTRN	__allmul:PROC
EXTRN	__chkstk:PROC
EXTRN	_memcpy:PROC
EXTRN	_memmove:PROC
EXTRN	_memset:PROC
EXTRN	__Init_thread_epoch:DWORD
EXTRN	??_7type_info@@6B@:QWORD			; type_info::`vftable'
EXTRN	?g_tCurrent@@3JA:DWORD				; g_tCurrent
EXTRN	?g_next@@3KA:DWORD				; g_next
EXTRN	?m_fItemDropRate@CProject@@2MA:DWORD		; CProject::m_fItemDropRate
EXTRN	?m_fGoldDropRate@CProject@@2MA:DWORD		; CProject::m_fGoldDropRate
EXTRN	?m_fMonsterExpRate@CProject@@2MA:DWORD		; CProject::m_fMonsterExpRate
EXTRN	?m_fMonsterHitRate@CProject@@2MA:DWORD		; CProject::m_fMonsterHitRate
EXTRN	?m_fShopCost@CProject@@2MA:DWORD		; CProject::m_fShopCost
EXTRN	?prj@@3VCProject@@A:BYTE			; prj
EXTRN	?g_TickCount@@3VCTickCount@@A:BYTE		; g_TickCount
EXTRN	?g_uIdofMulti@@3KA:DWORD			; g_uIdofMulti
EXTRN	?g_GameTimer@@3VCGameTimer@@A:BYTE		; g_GameTimer
EXTRN	?g_eLocal@@3VCFlyffEvent@@A:BYTE		; g_eLocal
EXTRN	?g_uKey@@3KA:DWORD				; g_uKey
EXTRN	?g_GuildCombatMng@@3VCGuildCombat@@A:BYTE	; g_GuildCombatMng
EXTRN	?g_UserMng@@3VCUserMng@@A:BYTE			; g_UserMng
EXTRN	?g_WorldMng@@3VCWorldMng@@A:BYTE		; g_WorldMng
EXTRN	?g_DPSrvr@@3VCDPSrvr@@A:BYTE			; g_DPSrvr
EXTRN	?g_dpDBClient@@3VCDPDatabaseClient@@A:BYTE	; g_dpDBClient
EXTRN	?g_PartyMng@@3VCPartyMng@@A:BYTE		; g_PartyMng
EXTRN	?g_GuildMng@@3VCGuildMng@@A:BYTE		; g_GuildMng
EXTRN	?g_GuildWarMng@@3VCGuildWarMng@@A:BYTE		; g_GuildWarMng
EXTRN	___security_cookie:DWORD
EXTRN	__fltused:DWORD
EXTRN	__tls_array:DWORD
EXTRN	__tls_index:DWORD
;	COMDAT ?_OptionsStorage@?1??__local_stdio_printf_options@@9@4_KA
_BSS	SEGMENT
?_OptionsStorage@?1??__local_stdio_printf_options@@9@4_KA DQ 01H DUP (?) ; `__local_stdio_printf_options'::`2'::_OptionsStorage
_BSS	ENDS
_BSS	SEGMENT
?g_DPCoreClient@@3VCDPCoreClient@@A DB 024H DUP (?)	; g_DPCoreClient
_BSS	ENDS
;	COMDAT ?mapstrProfile@?1??UserMessageHandler@CDPCoreClient@@UAEXPAUDPMSG_GENERIC@@KK@Z@4V?$map@KV?$CStringT@DV?$StrTraitMFC@DV?$ChTraitsCRT@D@ATL@@@@@ATL@@U?$less@K@std@@V?$allocator@U?$pair@$$CBKV?$CStringT@DV?$StrTraitMFC@DV?$ChTraitsCRT@D@ATL@@@@@ATL@@@std@@@4@@std@@A
_BSS	SEGMENT
?mapstrProfile@?1??UserMessageHandler@CDPCoreClient@@UAEXPAUDPMSG_GENERIC@@KK@Z@4V?$map@KV?$CStringT@DV?$StrTraitMFC@DV?$ChTraitsCRT@D@ATL@@@@@ATL@@U?$less@K@std@@V?$allocator@U?$pair@$$CBKV?$CStringT@DV?$StrTraitMFC@DV?$ChTraitsCRT@D@ATL@@@@@ATL@@@std@@@4@@std@@A DQ 01H DUP (?) ; `CDPCoreClient::UserMessageHandler'::`2'::mapstrProfile
_BSS	ENDS
;	COMDAT ?$TSS0@?1??UserMessageHandler@CDPCoreClient@@UAEXPAUDPMSG_GENERIC@@KK@Z@4HA
_BSS	SEGMENT
?$TSS0@?1??UserMessageHandler@CDPCoreClient@@UAEXPAUDPMSG_GENERIC@@KK@Z@4HA DD 01H DUP (?) ; `CDPCoreClient::UserMessageHandler'::`2'::$TSS0
_BSS	ENDS
;	COMDAT ?lpName@?1??OnPartyChat@CDPCoreClient@@AAEXAAVCAr@@KKK@Z@4PADA
_BSS	SEGMENT
?lpName@?1??OnPartyChat@CDPCoreClient@@AAEXAAVCAr@@KKK@Z@4PADA DB 02aH DUP (?) ; `CDPCoreClient::OnPartyChat'::`2'::lpName
_BSS	ENDS
;	COMDAT ?lpString@?1??OnPartyChat@CDPCoreClient@@AAEXAAVCAr@@KKK@Z@4PADA
_BSS	SEGMENT
?lpString@?1??OnPartyChat@CDPCoreClient@@AAEXAAVCAr@@KKK@Z@4PADA DB 0104H DUP (?) ; `CDPCoreClient::OnPartyChat'::`2'::lpString
_BSS	ENDS
;	COMDAT ?lpSnoopString@?1??OnPartyChat@CDPCoreClient@@AAEXAAVCAr@@KKK@Z@4PADA
_BSS	SEGMENT
?lpSnoopString@?1??OnPartyChat@CDPCoreClient@@AAEXAAVCAr@@KKK@Z@4PADA DB 0200H DUP (?) ; `CDPCoreClient::OnPartyChat'::`2'::lpSnoopString
_BSS	ENDS
CRT$XCU	SEGMENT
?g_DPCoreClient$initializer$@@3P6AXXZA DD FLAT:??__Eg_DPCoreClient@@YAXXZ ; g_DPCoreClient$initializer$
CRT$XCU	ENDS
;	COMDAT __xmm@41f00000000000000000000000000000
CONST	SEGMENT
__xmm@41f00000000000000000000000000000 DB 00H, 00H, 00H, 00H, 00H, 00H, 00H
	DB	00H, 00H, 00H, 00H, 00H, 00H, 00H, 0f0H, 'A'
CONST	ENDS
;	COMDAT ??_R2CDPMng@@8
rdata$r	SEGMENT
??_R2CDPMng@@8 DD FLAT:??_R1A@?0A@EA@CDPMng@@8		; CDPMng::`RTTI Base Class Array'
rdata$r	ENDS
;	COMDAT ??_R3CDPMng@@8
rdata$r	SEGMENT
??_R3CDPMng@@8 DD 00H					; CDPMng::`RTTI Class Hierarchy Descriptor'
	DD	00H
	DD	01H
	DD	FLAT:??_R2CDPMng@@8
rdata$r	ENDS
;	COMDAT ??_R0?AVCDPMng@@@8
data$rs	SEGMENT
??_R0?AVCDPMng@@@8 DD FLAT:??_7type_info@@6B@		; CDPMng `RTTI Type Descriptor'
	DD	00H
	DB	'.?AVCDPMng@@', 00H
data$rs	ENDS
;	COMDAT ??_R1A@?0A@EA@CDPMng@@8
rdata$r	SEGMENT
??_R1A@?0A@EA@CDPMng@@8 DD FLAT:??_R0?AVCDPMng@@@8	; CDPMng::`RTTI Base Class Descriptor at (0,-1,0,64)'
	DD	00H
	DD	00H
	DD	0ffffffffH
	DD	00H
	DD	040H
	DD	FLAT:??_R3CDPMng@@8
rdata$r	ENDS
;	COMDAT ??_R1A@?0A@EA@CDPCoreClient@@8
rdata$r	SEGMENT
??_R1A@?0A@EA@CDPCoreClient@@8 DD FLAT:??_R0?AVCDPCoreClient@@@8 ; CDPCoreClient::`RTTI Base Class Descriptor at (0,-1,0,64)'
	DD	01H
	DD	00H
	DD	0ffffffffH
	DD	00H
	DD	040H
	DD	FLAT:??_R3CDPCoreClient@@8
rdata$r	ENDS
;	COMDAT ??_R2CDPCoreClient@@8
rdata$r	SEGMENT
??_R2CDPCoreClient@@8 DD FLAT:??_R1A@?0A@EA@CDPCoreClient@@8 ; CDPCoreClient::`RTTI Base Class Array'
	DD	FLAT:??_R1A@?0A@EA@CDPMng@@8
rdata$r	ENDS
;	COMDAT ??_R3CDPCoreClient@@8
rdata$r	SEGMENT
??_R3CDPCoreClient@@8 DD 00H				; CDPCoreClient::`RTTI Class Hierarchy Descriptor'
	DD	00H
	DD	02H
	DD	FLAT:??_R2CDPCoreClient@@8
rdata$r	ENDS
;	COMDAT ??_R0?AVCDPCoreClient@@@8
data$rs	SEGMENT
??_R0?AVCDPCoreClient@@@8 DD FLAT:??_7type_info@@6B@	; CDPCoreClient `RTTI Type Descriptor'
	DD	00H
	DB	'.?AVCDPCoreClient@@', 00H
data$rs	ENDS
;	COMDAT ??_R4CDPCoreClient@@6B@
rdata$r	SEGMENT
??_R4CDPCoreClient@@6B@ DD 00H				; CDPCoreClient::`RTTI Complete Object Locator'
	DD	00H
	DD	00H
	DD	FLAT:??_R0?AVCDPCoreClient@@@8
	DD	FLAT:??_R3CDPCoreClient@@8
rdata$r	ENDS
;	COMDAT ??_C@_0BE@ELMCEHLG@CORE?5?3?5is?5not?5alive@
CONST	SEGMENT
??_C@_0BE@ELMCEHLG@CORE?5?3?5is?5not?5alive@ DB 'CORE : is not alive', 00H ; `string'
CONST	ENDS
;	COMDAT ??_C@_0BI@FPJBFNDJ@OnEvent?9ValentinesDay?30@
CONST	SEGMENT
??_C@_0BI@FPJBFNDJ@OnEvent?9ValentinesDay?30@ DB 'OnEvent-ValentinesDay:0'
	DB	00H						; `string'
CONST	ENDS
;	COMDAT ??_C@_0BI@EGIKGMHI@OnEvent?9ValentinesDay?31@
CONST	SEGMENT
??_C@_0BI@EGIKGMHI@OnEvent?9ValentinesDay?31@ DB 'OnEvent-ValentinesDay:1'
	DB	00H						; `string'
CONST	ENDS
;	COMDAT ??_C@_0BC@ENMBBIMC@OnEvent?9NewYear?30@
CONST	SEGMENT
??_C@_0BC@ENMBBIMC@OnEvent?9NewYear?30@ DB 'OnEvent-NewYear:0', 00H ; `string'
CONST	ENDS
;	COMDAT ??_C@_0BC@FENKCJID@OnEvent?9NewYear?31@
CONST	SEGMENT
??_C@_0BC@FENKCJID@OnEvent?9NewYear?31@ DB 'OnEvent-NewYear:1', 00H ; `string'
CONST	ENDS
;	COMDAT ??_C@_0P@DEGPMPHE@OnEvent?9Xmas?30@
CONST	SEGMENT
??_C@_0P@DEGPMPHE@OnEvent?9Xmas?30@ DB 'OnEvent-Xmas:0', 00H ; `string'
CONST	ENDS
;	COMDAT ??_C@_0P@CNHEPODF@OnEvent?9Xmas?31@
CONST	SEGMENT
??_C@_0P@CNHEPODF@OnEvent?9Xmas?31@ DB 'OnEvent-Xmas:1', 00H ; `string'
CONST	ENDS
;	COMDAT ??_C@_0DM@JNAMHNMN@WORLDSERVER?4EXE?7PACKETTYPE_QUER@
CONST	SEGMENT
??_C@_0DM@JNAMHNMN@WORLDSERVER?4EXE?7PACKETTYPE_QUER@ DB 'WORLDSERVER.EXE'
	DB	09H, 'PACKETTYPE_QUERYSETPLAYERNAME', 09H, '//%d:%s', 09H, '-%'
	DB	'08x', 00H					; `string'
CONST	ENDS
;	COMDAT ??_C@_0CK@HAGGAOID@WORLDSERVER?4EXE?7?1?1?5?$CFd?7?1?1?5?$CFs?7?1?1?5@
CONST	SEGMENT
??_C@_0CK@HAGGAOID@WORLDSERVER?4EXE?7?1?1?5?$CFd?7?1?1?5?$CFs?7?1?1?5@ DB 'W'
	DB	'ORLDSERVER.EXE', 09H, '// %d', 09H, '// %s', 09H, '// %08x', 09H
	DB	'// %d', 00H					; `string'
CONST	ENDS
;	COMDAT ??_C@_0CG@CGBKAIOI@OnCWWantedReward?5cannot?5found?5w@
CONST	SEGMENT
??_C@_0CG@CGBKAIOI@OnCWWantedReward?5cannot?5found?5w@ DB 'OnCWWantedRewa'
	DB	'rd cannot found world.', 0aH, 00H		; `string'
CONST	ENDS
;	COMDAT ??_C@_0EB@IKEJBDFI@Add?5Respwan?5MonsterID?5?$DN?5?$CFd?$CI?$CFd?1?$CF@
CONST	SEGMENT
??_C@_0EB@IKEJBDFI@Add?5Respwan?5MonsterID?5?$DN?5?$CFd?$CI?$CFd?1?$CF@ DB 'A'
	DB	'dd Respwan MonsterID = %d(%d/%d) Rect(%d, %d, %d, %d) Time = '
	DB	'%d', 00H					; `string'
CONST	ENDS
;	COMDAT ??_C@_0N@HLKEIJPF@Constant?4inc@
CONST	SEGMENT
??_C@_0N@HLKEIJPF@Constant?4inc@ DB 'Constant.inc', 00H	; `string'
CONST	ENDS
;	COMDAT ??_C@_0M@GCGJJOGO@OnAcptWar?$CI?$CJ@
CONST	SEGMENT
??_C@_0M@GCGJJOGO@OnAcptWar?$CI?$CJ@ DB 'OnAcptWar()', 00H ; `string'
CONST	ENDS
;	COMDAT ??_C@_0P@NCDLPOAH@?$FLp?$FN?$FL?$CFs?9?$DO?$CFs?$FN?5?$CFs@
CONST	SEGMENT
??_C@_0P@NCDLPOAH@?$FLp?$FN?$FL?$CFs?9?$DO?$CFs?$FN?5?$CFs@ DB '[p][%s->%'
	DB	's] %s', 00H					; `string'
CONST	ENDS
;	COMDAT ??_C@_02DKCKIIND@?$CFs@
CONST	SEGMENT
??_C@_02DKCKIIND@?$CFs@ DB '%s', 00H			; `string'
CONST	ENDS
;	COMDAT ??_C@_0CA@HFBKDIMP@OnRemovePartyMember?3?3?5Not?5Party@
CONST	SEGMENT
??_C@_0CA@HFBKDIMP@OnRemovePartyMember?3?3?5Not?5Party@ DB 'OnRemoveParty'
	DB	'Member:: Not Party', 00H			; `string'
CONST	ENDS
;	COMDAT ??_C@_0CH@FAKABKBE@OnRemovePartyMember?3?3?5Not?5Delet@
CONST	SEGMENT
??_C@_0CH@FAKABKBE@OnRemovePartyMember?3?3?5Not?5Delet@ DB 'OnRemoveParty'
	DB	'Member:: Not DeleteMember', 00H		; `string'
CONST	ENDS
;	COMDAT ??_C@_0ED@LDJICDKL@CDPCoreClient?3?3OnRemovePartyMem@
CONST	SEGMENT
??_C@_0ED@LDJICDKL@CDPCoreClient?3?3OnRemovePartyMem@ DB 'CDPCoreClient::'
	DB	'OnRemovePartyMember : ', 0c6H, 0c4H, 0c6H, 0bcH, 0b8H, 0e2H, 0b9H
	DB	0f6H, ' %s', 0c0H, 0c7H, ' ', 0c1H, 0a4H, 0baH, 0b8H, 0c0H, 0ccH
	DB	0bbH, 0f3H, '. %d %d', 00H			; `string'
CONST	ENDS
;	COMDAT ??_C@_0CF@KHAAHOCE@OnRecharge?$CI?$CJ?3?5BLOCK?5SIZE?5TOO?5BI@
CONST	SEGMENT
??_C@_0CF@KHAAHOCE@OnRecharge?$CI?$CJ?3?5BLOCK?5SIZE?5TOO?5BI@ DB 'OnRech'
	DB	'arge(): BLOCK SIZE TOO BIG, %d', 00H	; `string'
CONST	ENDS
;	COMDAT ??_C@_01CLKCMJKC@?5@
CONST	SEGMENT
??_C@_01CLKCMJKC@?5@ DB ' ', 00H			; `string'
CONST	ENDS
;	COMDAT ??_C@_0BJ@BNGKCMIB@Handler?5not?5found?$CI?$CF08x?$CJ?6@
CONST	SEGMENT
??_C@_0BJ@BNGKCMIB@Handler?5not?5found?$CI?$CF08x?$CJ?6@ DB 'Handler not '
	DB	'found(%08x)', 0aH, 00H			; `string'
CONST	ENDS
;	COMDAT ??_C@_0CK@LDBBMALI@CDPCoreClient?3?3UserMessageHandl@
CONST	SEGMENT
??_C@_0CK@LDBBMALI@CDPCoreClient?3?3UserMessageHandl@ DB 'CDPCoreClient::'
	DB	'UserMessageHandler(0x%08x)', 00H		; `string'
CONST	ENDS
;	COMDAT ??_7CDPCoreClient@@6B@
CONST	SEGMENT
??_7CDPCoreClient@@6B@ DD FLAT:??_R4CDPCoreClient@@6B@	; CDPCoreClient::`vftable'
	DD	FLAT:??_ECDPCoreClient@@UAEPAXI@Z
	DD	FLAT:?SysMessageHandler@CDPCoreClient@@UAEXPAUDPMSG_GENERIC@@KK@Z
	DD	FLAT:?UserMessageHandler@CDPCoreClient@@UAEXPAUDPMSG_GENERIC@@KK@Z
CONST	ENDS
;	COMDAT ??_R4bad_alloc@std@@6B@
rdata$r	SEGMENT
??_R4bad_alloc@std@@6B@ DD 00H				; std::bad_alloc::`RTTI Complete Object Locator'
	DD	00H
	DD	00H
	DD	FLAT:??_R0?AVbad_alloc@std@@@8
	DD	FLAT:??_R3bad_alloc@std@@8
rdata$r	ENDS
;	COMDAT ??_R2bad_alloc@std@@8
rdata$r	SEGMENT
??_R2bad_alloc@std@@8 DD FLAT:??_R1A@?0A@EA@bad_alloc@std@@8 ; std::bad_alloc::`RTTI Base Class Array'
	DD	FLAT:??_R1A@?0A@EA@exception@std@@8
rdata$r	ENDS
;	COMDAT ??_R3bad_alloc@std@@8
rdata$r	SEGMENT
??_R3bad_alloc@std@@8 DD 00H				; std::bad_alloc::`RTTI Class Hierarchy Descriptor'
	DD	00H
	DD	02H
	DD	FLAT:??_R2bad_alloc@std@@8
rdata$r	ENDS
;	COMDAT ??_R1A@?0A@EA@bad_alloc@std@@8
rdata$r	SEGMENT
??_R1A@?0A@EA@bad_alloc@std@@8 DD FLAT:??_R0?AVbad_alloc@std@@@8 ; std::bad_alloc::`RTTI Base Class Descriptor at (0,-1,0,64)'
	DD	01H
	DD	00H
	DD	0ffffffffH
	DD	00H
	DD	040H
	DD	FLAT:??_R3bad_alloc@std@@8
rdata$r	ENDS
;	COMDAT ??_R1A@?0A@EA@bad_array_new_length@std@@8
rdata$r	SEGMENT
??_R1A@?0A@EA@bad_array_new_length@std@@8 DD FLAT:??_R0?AVbad_array_new_length@std@@@8 ; std::bad_array_new_length::`RTTI Base Class Descriptor at (0,-1,0,64)'
	DD	02H
	DD	00H
	DD	0ffffffffH
	DD	00H
	DD	040H
	DD	FLAT:??_R3bad_array_new_length@std@@8
rdata$r	ENDS
;	COMDAT ??_R2bad_array_new_length@std@@8
rdata$r	SEGMENT
??_R2bad_array_new_length@std@@8 DD FLAT:??_R1A@?0A@EA@bad_array_new_length@std@@8 ; std::bad_array_new_length::`RTTI Base Class Array'
	DD	FLAT:??_R1A@?0A@EA@bad_alloc@std@@8
	DD	FLAT:??_R1A@?0A@EA@exception@std@@8
rdata$r	ENDS
;	COMDAT ??_R3bad_array_new_length@std@@8
rdata$r	SEGMENT
??_R3bad_array_new_length@std@@8 DD 00H			; std::bad_array_new_length::`RTTI Class Hierarchy Descriptor'
	DD	00H
	DD	03H
	DD	FLAT:??_R2bad_array_new_length@std@@8
rdata$r	ENDS
;	COMDAT ??_R4bad_array_new_length@std@@6B@
rdata$r	SEGMENT
??_R4bad_array_new_length@std@@6B@ DD 00H		; std::bad_array_new_length::`RTTI Complete Object Locator'
	DD	00H
	DD	00H
	DD	FLAT:??_R0?AVbad_array_new_length@std@@@8
	DD	FLAT:??_R3bad_array_new_length@std@@8
rdata$r	ENDS
;	COMDAT ??_R1A@?0A@EA@exception@std@@8
rdata$r	SEGMENT
??_R1A@?0A@EA@exception@std@@8 DD FLAT:??_R0?AVexception@std@@@8 ; std::exception::`RTTI Base Class Descriptor at (0,-1,0,64)'
	DD	00H
	DD	00H
	DD	0ffffffffH
	DD	00H
	DD	040H
	DD	FLAT:??_R3exception@std@@8
rdata$r	ENDS
;	COMDAT ??_R2exception@std@@8
rdata$r	SEGMENT
??_R2exception@std@@8 DD FLAT:??_R1A@?0A@EA@exception@std@@8 ; std::exception::`RTTI Base Class Array'
rdata$r	ENDS
;	COMDAT ??_R3exception@std@@8
rdata$r	SEGMENT
??_R3exception@std@@8 DD 00H				; std::exception::`RTTI Class Hierarchy Descriptor'
	DD	00H
	DD	01H
	DD	FLAT:??_R2exception@std@@8
rdata$r	ENDS
;	COMDAT ??_R4exception@std@@6B@
rdata$r	SEGMENT
??_R4exception@std@@6B@ DD 00H				; std::exception::`RTTI Complete Object Locator'
	DD	00H
	DD	00H
	DD	FLAT:??_R0?AVexception@std@@@8
	DD	FLAT:??_R3exception@std@@8
rdata$r	ENDS
;	COMDAT ??_C@_0DB@ILBMOCBP@C?3?2IAGOS?2server?2v18?2Source?2Sour@
CONST	SEGMENT
??_C@_0DB@ILBMOCBP@C?3?2IAGOS?2server?2v18?2Source?2Sour@ DB 'C:\IAGOS\se'
	DB	'rver\v18\Source\Source\_Common\data.h', 00H	; `string'
CONST	ENDS
;	COMDAT ??_C@_06OJLEAOEG@?$CFs?0?5?$CFd@
CONST	SEGMENT
??_C@_06OJLEAOEG@?$CFs?0?5?$CFd@ DB '%s, %d', 00H	; `string'
CONST	ENDS
;	COMDAT ??_C@_0BB@GCADKGJO@map?1set?5too?5long@
CONST	SEGMENT
??_C@_0BB@GCADKGJO@map?1set?5too?5long@ DB 'map/set too long', 00H ; `string'
CONST	ENDS
;	COMDAT __CT??_R0?AVbad_alloc@std@@@8??0bad_alloc@std@@QAE@ABV01@@Z12
xdata$x	SEGMENT
__CT??_R0?AVbad_alloc@std@@@8??0bad_alloc@std@@QAE@ABV01@@Z12 DD 010H
	DD	FLAT:??_R0?AVbad_alloc@std@@@8
	DD	00H
	DD	0ffffffffH
	ORG $+4
	DD	0cH
	DD	FLAT:??0bad_alloc@std@@QAE@ABV01@@Z
xdata$x	ENDS
;	COMDAT ??_R0?AVbad_alloc@std@@@8
data$r	SEGMENT
??_R0?AVbad_alloc@std@@@8 DD FLAT:??_7type_info@@6B@	; std::bad_alloc `RTTI Type Descriptor'
	DD	00H
	DB	'.?AVbad_alloc@std@@', 00H
data$r	ENDS
;	COMDAT __CT??_R0?AVbad_array_new_length@std@@@8??0bad_array_new_length@std@@QAE@ABV01@@Z12
xdata$x	SEGMENT
__CT??_R0?AVbad_array_new_length@std@@@8??0bad_array_new_length@std@@QAE@ABV01@@Z12 DD 00H
	DD	FLAT:??_R0?AVbad_array_new_length@std@@@8
	DD	00H
	DD	0ffffffffH
	ORG $+4
	DD	0cH
	DD	FLAT:??0bad_array_new_length@std@@QAE@ABV01@@Z
xdata$x	ENDS
;	COMDAT ??_R0?AVbad_array_new_length@std@@@8
data$r	SEGMENT
??_R0?AVbad_array_new_length@std@@@8 DD FLAT:??_7type_info@@6B@ ; std::bad_array_new_length `RTTI Type Descriptor'
	DD	00H
	DB	'.?AVbad_array_new_length@std@@', 00H
data$r	ENDS
;	COMDAT __CTA3?AVbad_array_new_length@std@@
xdata$x	SEGMENT
__CTA3?AVbad_array_new_length@std@@ DD 03H
	DD	FLAT:__CT??_R0?AVbad_array_new_length@std@@@8??0bad_array_new_length@std@@QAE@ABV01@@Z12
	DD	FLAT:__CT??_R0?AVbad_alloc@std@@@8??0bad_alloc@std@@QAE@ABV01@@Z12
	DD	FLAT:__CT??_R0?AVexception@std@@@8??0exception@std@@QAE@ABV01@@Z12
xdata$x	ENDS
;	COMDAT __TI3?AVbad_array_new_length@std@@
xdata$x	SEGMENT
__TI3?AVbad_array_new_length@std@@ DD 00H
	DD	FLAT:??1bad_array_new_length@std@@UAE@XZ
	DD	00H
	DD	FLAT:__CTA3?AVbad_array_new_length@std@@
xdata$x	ENDS
;	COMDAT __CT??_R0?AVexception@std@@@8??0exception@std@@QAE@ABV01@@Z12
xdata$x	SEGMENT
__CT??_R0?AVexception@std@@@8??0exception@std@@QAE@ABV01@@Z12 DD 00H
	DD	FLAT:??_R0?AVexception@std@@@8
	DD	00H
	DD	0ffffffffH
	ORG $+4
	DD	0cH
	DD	FLAT:??0exception@std@@QAE@ABV01@@Z
xdata$x	ENDS
;	COMDAT ??_R0?AVexception@std@@@8
data$r	SEGMENT
??_R0?AVexception@std@@@8 DD FLAT:??_7type_info@@6B@	; std::exception `RTTI Type Descriptor'
	DD	00H
	DB	'.?AVexception@std@@', 00H
data$r	ENDS
;	COMDAT ??_C@_0BF@KINCDENJ@bad?5array?5new?5length@
CONST	SEGMENT
??_C@_0BF@KINCDENJ@bad?5array?5new?5length@ DB 'bad array new length', 00H ; `string'
CONST	ENDS
;	COMDAT ??_7bad_array_new_length@std@@6B@
CONST	SEGMENT
??_7bad_array_new_length@std@@6B@ DD FLAT:??_R4bad_array_new_length@std@@6B@ ; std::bad_array_new_length::`vftable'
	DD	FLAT:??_Ebad_array_new_length@std@@UAEPAXI@Z
	DD	FLAT:?what@exception@std@@UBEPBDXZ
CONST	ENDS
;	COMDAT ??_7bad_alloc@std@@6B@
CONST	SEGMENT
??_7bad_alloc@std@@6B@ DD FLAT:??_R4bad_alloc@std@@6B@	; std::bad_alloc::`vftable'
	DD	FLAT:??_Ebad_alloc@std@@UAEPAXI@Z
	DD	FLAT:?what@exception@std@@UBEPBDXZ
CONST	ENDS
;	COMDAT ??_C@_0BC@EOODALEL@Unknown?5exception@
CONST	SEGMENT
??_C@_0BC@EOODALEL@Unknown?5exception@ DB 'Unknown exception', 00H ; `string'
CONST	ENDS
;	COMDAT ??_7exception@std@@6B@
CONST	SEGMENT
??_7exception@std@@6B@ DD FLAT:??_R4exception@std@@6B@	; std::exception::`vftable'
	DD	FLAT:??_Eexception@std@@UAEPAXI@Z
	DD	FLAT:?what@exception@std@@UBEPBDXZ
CONST	ENDS
;	COMDAT ??_C@_00CNPNBAHC@@
CONST	SEGMENT
??_C@_00CNPNBAHC@@ DB 00H				; `string'
CONST	ENDS
;	COMDAT xdata$x
xdata$x	SEGMENT
__ehfuncinfo$??$_Freenode@V?$allocator@U?$_Tree_node@U?$pair@$$CBKV?$CStringT@DV?$StrTraitMFC@DV?$ChTraitsCRT@D@ATL@@@@@ATL@@@std@@PAX@std@@@std@@@?$_Tree_node@U?$pair@$$CBKV?$CStringT@DV?$StrTraitMFC@DV?$ChTraitsCRT@D@ATL@@@@@ATL@@@std@@PAX@std@@SAXAAV?$allocator@U?$_Tree_node@U?$pair@$$CBKV?$CStringT@DV?$StrTraitMFC@DV?$ChTraitsCRT@D@ATL@@@@@ATL@@@std@@PAX@std@@@1@PAU01@@Z DD 019930522H
	DD	00H
	DD	00H
	DD	2 DUP(00H)
	DD	2 DUP(00H)
	DD	00H
	DD	05H
xdata$x	ENDS
;	COMDAT xdata$x
xdata$x	SEGMENT
__unwindtable$??$?0U?$pair@KV?$CStringT@DV?$StrTraitMFC@DV?$ChTraitsCRT@D@ATL@@@@@ATL@@@std@@@?$_Tree_temp_node@V?$allocator@U?$_Tree_node@U?$pair@$$CBKV?$CStringT@DV?$StrTraitMFC@DV?$ChTraitsCRT@D@ATL@@@@@ATL@@@std@@PAX@std@@@std@@@std@@QAE@AAV?$allocator@U?$_Tree_node@U?$pair@$$CBKV?$CStringT@DV?$StrTraitMFC@DV?$ChTraitsCRT@D@ATL@@@@@ATL@@@std@@PAX@std@@@1@PAU?$_Tree_node@U?$pair@$$CBKV?$CStringT@DV?$StrTraitMFC@DV?$ChTraitsCRT@D@ATL@@@@@ATL@@@std@@PAX@1@$$QAU?$pair@KV?$CStringT@DV?$StrTraitMFC@DV?$ChTraitsCRT@D@ATL@@@@@ATL@@@1@@Z DD 0ffffffffH
	DD	FLAT:__unwindfunclet$??$?0U?$pair@KV?$CStringT@DV?$StrTraitMFC@DV?$ChTraitsCRT@D@ATL@@@@@ATL@@@std@@@?$_Tree_temp_node@V?$allocator@U?$_Tree_node@U?$pair@$$CBKV?$CStringT@DV?$StrTraitMFC@DV?$ChTraitsCRT@D@ATL@@@@@ATL@@@std@@PAX@std@@@std@@@std@@QAE@AAV?$allocator@U?$_Tree_node@U?$pair@$$CBKV?$CStringT@DV?$StrTraitMFC@DV?$ChTraitsCRT@D@ATL@@@@@ATL@@@std@@PAX@std@@@1@PAU?$_Tree_node@U?$pair@$$CBKV?$CStringT@DV?$StrTraitMFC@DV?$ChTraitsCRT@D@ATL@@@@@ATL@@@std@@PAX@1@$$QAU?$pair@KV?$CStringT@DV?$StrTraitMFC@DV?$ChTraitsCRT@D@ATL@@@@@ATL@@@1@@Z$1
	DD	0ffffffffH
	DD	FLAT:__unwindfunclet$??$?0U?$pair@KV?$CStringT@DV?$StrTraitMFC@DV?$ChTraitsCRT@D@ATL@@@@@ATL@@@std@@@?$_Tree_temp_node@V?$allocator@U?$_Tree_node@U?$pair@$$CBKV?$CStringT@DV?$StrTraitMFC@DV?$ChTraitsCRT@D@ATL@@@@@ATL@@@std@@PAX@std@@@std@@@std@@QAE@AAV?$allocator@U?$_Tree_node@U?$pair@$$CBKV?$CStringT@DV?$StrTraitMFC@DV?$ChTraitsCRT@D@ATL@@@@@ATL@@@std@@PAX@std@@@1@PAU?$_Tree_node@U?$pair@$$CBKV?$CStringT@DV?$StrTraitMFC@DV?$ChTraitsCRT@D@ATL@@@@@ATL@@@std@@PAX@1@$$QAU?$pair@KV?$CStringT@DV?$StrTraitMFC@DV?$ChTraitsCRT@D@ATL@@@@@ATL@@@1@@Z$0
__ehfuncinfo$??$?0U?$pair@KV?$CStringT@DV?$StrTraitMFC@DV?$ChTraitsCRT@D@ATL@@@@@ATL@@@std@@@?$_Tree_temp_node@V?$allocator@U?$_Tree_node@U?$pair@$$CBKV?$CStringT@DV?$StrTraitMFC@DV?$ChTraitsCRT@D@ATL@@@@@ATL@@@std@@PAX@std@@@std@@@std@@QAE@AAV?$allocator@U?$_Tree_node@U?$pair@$$CBKV?$CStringT@DV?$StrTraitMFC@DV?$ChTraitsCRT@D@ATL@@@@@ATL@@@std@@PAX@std@@@1@PAU?$_Tree_node@U?$pair@$$CBKV?$CStringT@DV?$StrTraitMFC@DV?$ChTraitsCRT@D@ATL@@@@@ATL@@@std@@PAX@1@$$QAU?$pair@KV?$CStringT@DV?$StrTraitMFC@DV?$ChTraitsCRT@D@ATL@@@@@ATL@@@1@@Z DD 019930522H
	DD	02H
	DD	FLAT:__unwindtable$??$?0U?$pair@KV?$CStringT@DV?$StrTraitMFC@DV?$ChTraitsCRT@D@ATL@@@@@ATL@@@std@@@?$_Tree_temp_node@V?$allocator@U?$_Tree_node@U?$pair@$$CBKV?$CStringT@DV?$StrTraitMFC@DV?$ChTraitsCRT@D@ATL@@@@@ATL@@@std@@PAX@std@@@std@@@std@@QAE@AAV?$allocator@U?$_Tree_node@U?$pair@$$CBKV?$CStringT@DV?$StrTraitMFC@DV?$ChTraitsCRT@D@ATL@@@@@ATL@@@std@@PAX@std@@@1@PAU?$_Tree_node@U?$pair@$$CBKV?$CStringT@DV?$StrTraitMFC@DV?$ChTraitsCRT@D@ATL@@@@@ATL@@@std@@PAX@1@$$QAU?$pair@KV?$CStringT@DV?$StrTraitMFC@DV?$ChTraitsCRT@D@ATL@@@@@ATL@@@1@@Z
	DD	2 DUP(00H)
	DD	2 DUP(00H)
	DD	00H
	DD	01H
xdata$x	ENDS
;	COMDAT xdata$x
xdata$x	SEGMENT
__ehfuncinfo$??1?$_Tree_temp_node@V?$allocator@U?$_Tree_node@U?$pair@$$CBKV?$CStringT@DV?$StrTraitMFC@DV?$ChTraitsCRT@D@ATL@@@@@ATL@@@std@@PAX@std@@@std@@@std@@QAE@XZ DD 019930522H
	DD	00H
	DD	00H
	DD	2 DUP(00H)
	DD	2 DUP(00H)
	DD	00H
	DD	05H
xdata$x	ENDS
;	COMDAT xdata$x
xdata$x	SEGMENT
__unwindtable$??0?$_Tree_temp_node_alloc@V?$allocator@U?$_Tree_node@U?$pair@$$CBKV?$CStringT@DV?$StrTraitMFC@DV?$ChTraitsCRT@D@ATL@@@@@ATL@@@std@@PAX@std@@@std@@@std@@QAE@AAV?$allocator@U?$_Tree_node@U?$pair@$$CBKV?$CStringT@DV?$StrTraitMFC@DV?$ChTraitsCRT@D@ATL@@@@@ATL@@@std@@PAX@std@@@1@@Z DD 0ffffffffH
	DD	FLAT:__unwindfunclet$??0?$_Tree_temp_node_alloc@V?$allocator@U?$_Tree_node@U?$pair@$$CBKV?$CStringT@DV?$StrTraitMFC@DV?$ChTraitsCRT@D@ATL@@@@@ATL@@@std@@PAX@std@@@std@@@std@@QAE@AAV?$allocator@U?$_Tree_node@U?$pair@$$CBKV?$CStringT@DV?$StrTraitMFC@DV?$ChTraitsCRT@D@ATL@@@@@ATL@@@std@@PAX@std@@@1@@Z$0
__ehfuncinfo$??0?$_Tree_temp_node_alloc@V?$allocator@U?$_Tree_node@U?$pair@$$CBKV?$CStringT@DV?$StrTraitMFC@DV?$ChTraitsCRT@D@ATL@@@@@ATL@@@std@@PAX@std@@@std@@@std@@QAE@AAV?$allocator@U?$_Tree_node@U?$pair@$$CBKV?$CStringT@DV?$StrTraitMFC@DV?$ChTraitsCRT@D@ATL@@@@@ATL@@@std@@PAX@std@@@1@@Z DD 019930522H
	DD	01H
	DD	FLAT:__unwindtable$??0?$_Tree_temp_node_alloc@V?$allocator@U?$_Tree_node@U?$pair@$$CBKV?$CStringT@DV?$StrTraitMFC@DV?$ChTraitsCRT@D@ATL@@@@@ATL@@@std@@PAX@std@@@std@@@std@@QAE@AAV?$allocator@U?$_Tree_node@U?$pair@$$CBKV?$CStringT@DV?$StrTraitMFC@DV?$ChTraitsCRT@D@ATL@@@@@ATL@@@std@@PAX@std@@@1@@Z
	DD	2 DUP(00H)
	DD	2 DUP(00H)
	DD	00H
	DD	01H
xdata$x	ENDS
;	COMDAT xdata$x
xdata$x	SEGMENT
__ehfuncinfo$??$_Erase_tree@V?$allocator@U?$_Tree_node@U?$pair@$$CBKV?$CStringT@DV?$StrTraitMFC@DV?$ChTraitsCRT@D@ATL@@@@@ATL@@@std@@PAX@std@@@std@@@?$_Tree_val@U?$_Tree_simple_types@U?$pair@$$CBKV?$CStringT@DV?$StrTraitMFC@DV?$ChTraitsCRT@D@ATL@@@@@ATL@@@std@@@std@@@std@@QAEXAAV?$allocator@U?$_Tree_node@U?$pair@$$CBKV?$CStringT@DV?$StrTraitMFC@DV?$ChTraitsCRT@D@ATL@@@@@ATL@@@std@@PAX@std@@@1@PAU?$_Tree_node@U?$pair@$$CBKV?$CStringT@DV?$StrTraitMFC@DV?$ChTraitsCRT@D@ATL@@@@@ATL@@@std@@PAX@1@@Z DD 019930522H
	DD	00H
	DD	00H
	DD	2 DUP(00H)
	DD	2 DUP(00H)
	DD	00H
	DD	05H
xdata$x	ENDS
;	COMDAT xdata$x
xdata$x	SEGMENT
__unwindtable$??$_Emplace@U?$pair@KV?$CStringT@DV?$StrTraitMFC@DV?$ChTraitsCRT@D@ATL@@@@@ATL@@@std@@@?$_Tree@V?$_Tmap_traits@KV?$CStringT@DV?$StrTraitMFC@DV?$ChTraitsCRT@D@ATL@@@@@ATL@@U?$less@K@std@@V?$allocator@U?$pair@$$CBKV?$CStringT@DV?$StrTraitMFC@DV?$ChTraitsCRT@D@ATL@@@@@ATL@@@std@@@4@$0A@@std@@@std@@IAE?AU?$pair@PAU?$_Tree_node@U?$pair@$$CBKV?$CStringT@DV?$StrTraitMFC@DV?$ChTraitsCRT@D@ATL@@@@@ATL@@@std@@PAX@std@@_N@1@$$QAU?$pair@KV?$CStringT@DV?$StrTraitMFC@DV?$ChTraitsCRT@D@ATL@@@@@ATL@@@1@@Z DD 0ffffffffH
	DD	FLAT:__unwindfunclet$??$_Emplace@U?$pair@KV?$CStringT@DV?$StrTraitMFC@DV?$ChTraitsCRT@D@ATL@@@@@ATL@@@std@@@?$_Tree@V?$_Tmap_traits@KV?$CStringT@DV?$StrTraitMFC@DV?$ChTraitsCRT@D@ATL@@@@@ATL@@U?$less@K@std@@V?$allocator@U?$pair@$$CBKV?$CStringT@DV?$StrTraitMFC@DV?$ChTraitsCRT@D@ATL@@@@@ATL@@@std@@@4@$0A@@std@@@std@@IAE?AU?$pair@PAU?$_Tree_node@U?$pair@$$CBKV?$CStringT@DV?$StrTraitMFC@DV?$ChTraitsCRT@D@ATL@@@@@ATL@@@std@@PAX@std@@_N@1@$$QAU?$pair@KV?$CStringT@DV?$StrTraitMFC@DV?$ChTraitsCRT@D@ATL@@@@@ATL@@@1@@Z$2
	DD	0ffffffffH
	DD	FLAT:__unwindfunclet$??$_Emplace@U?$pair@KV?$CStringT@DV?$StrTraitMFC@DV?$ChTraitsCRT@D@ATL@@@@@ATL@@@std@@@?$_Tree@V?$_Tmap_traits@KV?$CStringT@DV?$StrTraitMFC@DV?$ChTraitsCRT@D@ATL@@@@@ATL@@U?$less@K@std@@V?$allocator@U?$pair@$$CBKV?$CStringT@DV?$StrTraitMFC@DV?$ChTraitsCRT@D@ATL@@@@@ATL@@@std@@@4@$0A@@std@@@std@@IAE?AU?$pair@PAU?$_Tree_node@U?$pair@$$CBKV?$CStringT@DV?$StrTraitMFC@DV?$ChTraitsCRT@D@ATL@@@@@ATL@@@std@@PAX@std@@_N@1@$$QAU?$pair@KV?$CStringT@DV?$StrTraitMFC@DV?$ChTraitsCRT@D@ATL@@@@@ATL@@@1@@Z$1
__ehfuncinfo$??$_Emplace@U?$pair@KV?$CStringT@DV?$StrTraitMFC@DV?$ChTraitsCRT@D@ATL@@@@@ATL@@@std@@@?$_Tree@V?$_Tmap_traits@KV?$CStringT@DV?$StrTraitMFC@DV?$ChTraitsCRT@D@ATL@@@@@ATL@@U?$less@K@std@@V?$allocator@U?$pair@$$CBKV?$CStringT@DV?$StrTraitMFC@DV?$ChTraitsCRT@D@ATL@@@@@ATL@@@std@@@4@$0A@@std@@@std@@IAE?AU?$pair@PAU?$_Tree_node@U?$pair@$$CBKV?$CStringT@DV?$StrTraitMFC@DV?$ChTraitsCRT@D@ATL@@@@@ATL@@@std@@PAX@std@@_N@1@$$QAU?$pair@KV?$CStringT@DV?$StrTraitMFC@DV?$ChTraitsCRT@D@ATL@@@@@ATL@@@1@@Z DD 019930522H
	DD	02H
	DD	FLAT:__unwindtable$??$_Emplace@U?$pair@KV?$CStringT@DV?$StrTraitMFC@DV?$ChTraitsCRT@D@ATL@@@@@ATL@@@std@@@?$_Tree@V?$_Tmap_traits@KV?$CStringT@DV?$StrTraitMFC@DV?$ChTraitsCRT@D@ATL@@@@@ATL@@U?$less@K@std@@V?$allocator@U?$pair@$$CBKV?$CStringT@DV?$StrTraitMFC@DV?$ChTraitsCRT@D@ATL@@@@@ATL@@@std@@@4@$0A@@std@@@std@@IAE?AU?$pair@PAU?$_Tree_node@U?$pair@$$CBKV?$CStringT@DV?$StrTraitMFC@DV?$ChTraitsCRT@D@ATL@@@@@ATL@@@std@@PAX@std@@_N@1@$$QAU?$pair@KV?$CStringT@DV?$StrTraitMFC@DV?$ChTraitsCRT@D@ATL@@@@@ATL@@@1@@Z
	DD	2 DUP(00H)
	DD	2 DUP(00H)
	DD	00H
	DD	01H
xdata$x	ENDS
;	COMDAT xdata$x
xdata$x	SEGMENT
__unwindtable$??$?0U?$pair@$$CBKP8CDPCoreClient@@AEXAAVCAr@@KKK@Z@std@@@?$_Tree_temp_node@V?$allocator@U?$_Tree_node@U?$pair@$$CBKP8CDPCoreClient@@AEXAAVCAr@@KKK@Z@std@@PAX@std@@@std@@@std@@QAE@AAV?$allocator@U?$_Tree_node@U?$pair@$$CBKP8CDPCoreClient@@AEXAAVCAr@@KKK@Z@std@@PAX@std@@@1@PAU?$_Tree_node@U?$pair@$$CBKP8CDPCoreClient@@AEXAAVCAr@@KKK@Z@std@@PAX@1@$$QAU?$pair@$$CBKP8CDPCoreClient@@AEXAAVCAr@@KKK@Z@1@@Z DD 0ffffffffH
	DD	FLAT:__unwindfunclet$??$?0U?$pair@$$CBKP8CDPCoreClient@@AEXAAVCAr@@KKK@Z@std@@@?$_Tree_temp_node@V?$allocator@U?$_Tree_node@U?$pair@$$CBKP8CDPCoreClient@@AEXAAVCAr@@KKK@Z@std@@PAX@std@@@std@@@std@@QAE@AAV?$allocator@U?$_Tree_node@U?$pair@$$CBKP8CDPCoreClient@@AEXAAVCAr@@KKK@Z@std@@PAX@std@@@1@PAU?$_Tree_node@U?$pair@$$CBKP8CDPCoreClient@@AEXAAVCAr@@KKK@Z@std@@PAX@1@$$QAU?$pair@$$CBKP8CDPCoreClient@@AEXAAVCAr@@KKK@Z@1@@Z$1
__ehfuncinfo$??$?0U?$pair@$$CBKP8CDPCoreClient@@AEXAAVCAr@@KKK@Z@std@@@?$_Tree_temp_node@V?$allocator@U?$_Tree_node@U?$pair@$$CBKP8CDPCoreClient@@AEXAAVCAr@@KKK@Z@std@@PAX@std@@@std@@@std@@QAE@AAV?$allocator@U?$_Tree_node@U?$pair@$$CBKP8CDPCoreClient@@AEXAAVCAr@@KKK@Z@std@@PAX@std@@@1@PAU?$_Tree_node@U?$pair@$$CBKP8CDPCoreClient@@AEXAAVCAr@@KKK@Z@std@@PAX@1@$$QAU?$pair@$$CBKP8CDPCoreClient@@AEXAAVCAr@@KKK@Z@1@@Z DD 019930522H
	DD	01H
	DD	FLAT:__unwindtable$??$?0U?$pair@$$CBKP8CDPCoreClient@@AEXAAVCAr@@KKK@Z@std@@@?$_Tree_temp_node@V?$allocator@U?$_Tree_node@U?$pair@$$CBKP8CDPCoreClient@@AEXAAVCAr@@KKK@Z@std@@PAX@std@@@std@@@std@@QAE@AAV?$allocator@U?$_Tree_node@U?$pair@$$CBKP8CDPCoreClient@@AEXAAVCAr@@KKK@Z@std@@PAX@std@@@1@PAU?$_Tree_node@U?$pair@$$CBKP8CDPCoreClient@@AEXAAVCAr@@KKK@Z@std@@PAX@1@$$QAU?$pair@$$CBKP8CDPCoreClient@@AEXAAVCAr@@KKK@Z@1@@Z
	DD	2 DUP(00H)
	DD	2 DUP(00H)
	DD	00H
	DD	01H
xdata$x	ENDS
;	COMDAT xdata$x
xdata$x	SEGMENT
__unwindtable$??0?$_Tree_temp_node_alloc@V?$allocator@U?$_Tree_node@U?$pair@$$CBKP8CDPCoreClient@@AEXAAVCAr@@KKK@Z@std@@PAX@std@@@std@@@std@@QAE@AAV?$allocator@U?$_Tree_node@U?$pair@$$CBKP8CDPCoreClient@@AEXAAVCAr@@KKK@Z@std@@PAX@std@@@1@@Z DD 0ffffffffH
	DD	FLAT:__unwindfunclet$??0?$_Tree_temp_node_alloc@V?$allocator@U?$_Tree_node@U?$pair@$$CBKP8CDPCoreClient@@AEXAAVCAr@@KKK@Z@std@@PAX@std@@@std@@@std@@QAE@AAV?$allocator@U?$_Tree_node@U?$pair@$$CBKP8CDPCoreClient@@AEXAAVCAr@@KKK@Z@std@@PAX@std@@@1@@Z$0
__ehfuncinfo$??0?$_Tree_temp_node_alloc@V?$allocator@U?$_Tree_node@U?$pair@$$CBKP8CDPCoreClient@@AEXAAVCAr@@KKK@Z@std@@PAX@std@@@std@@@std@@QAE@AAV?$allocator@U?$_Tree_node@U?$pair@$$CBKP8CDPCoreClient@@AEXAAVCAr@@KKK@Z@std@@PAX@std@@@1@@Z DD 019930522H
	DD	01H
	DD	FLAT:__unwindtable$??0?$_Tree_temp_node_alloc@V?$allocator@U?$_Tree_node@U?$pair@$$CBKP8CDPCoreClient@@AEXAAVCAr@@KKK@Z@std@@PAX@std@@@std@@@std@@QAE@AAV?$allocator@U?$_Tree_node@U?$pair@$$CBKP8CDPCoreClient@@AEXAAVCAr@@KKK@Z@std@@PAX@std@@@1@@Z
	DD	2 DUP(00H)
	DD	2 DUP(00H)
	DD	00H
	DD	01H
xdata$x	ENDS
;	COMDAT xdata$x
xdata$x	SEGMENT
__unwindtable$??$emplace@U?$pair@KV?$CStringT@DV?$StrTraitMFC@DV?$ChTraitsCRT@D@ATL@@@@@ATL@@@std@@@?$_Tree@V?$_Tmap_traits@KV?$CStringT@DV?$StrTraitMFC@DV?$ChTraitsCRT@D@ATL@@@@@ATL@@U?$less@K@std@@V?$allocator@U?$pair@$$CBKV?$CStringT@DV?$StrTraitMFC@DV?$ChTraitsCRT@D@ATL@@@@@ATL@@@std@@@4@$0A@@std@@@std@@QAE?AU?$pair@V?$_Tree_iterator@V?$_Tree_val@U?$_Tree_simple_types@U?$pair@$$CBKV?$CStringT@DV?$StrTraitMFC@DV?$ChTraitsCRT@D@ATL@@@@@ATL@@@std@@@std@@@std@@@std@@_N@1@$$QAU?$pair@KV?$CStringT@DV?$StrTraitMFC@DV?$ChTraitsCRT@D@ATL@@@@@ATL@@@1@@Z DD 0ffffffffH
	DD	FLAT:__unwindfunclet$??$emplace@U?$pair@KV?$CStringT@DV?$StrTraitMFC@DV?$ChTraitsCRT@D@ATL@@@@@ATL@@@std@@@?$_Tree@V?$_Tmap_traits@KV?$CStringT@DV?$StrTraitMFC@DV?$ChTraitsCRT@D@ATL@@@@@ATL@@U?$less@K@std@@V?$allocator@U?$pair@$$CBKV?$CStringT@DV?$StrTraitMFC@DV?$ChTraitsCRT@D@ATL@@@@@ATL@@@std@@@4@$0A@@std@@@std@@QAE?AU?$pair@V?$_Tree_iterator@V?$_Tree_val@U?$_Tree_simple_types@U?$pair@$$CBKV?$CStringT@DV?$StrTraitMFC@DV?$ChTraitsCRT@D@ATL@@@@@ATL@@@std@@@std@@@std@@@std@@_N@1@$$QAU?$pair@KV?$CStringT@DV?$StrTraitMFC@DV?$ChTraitsCRT@D@ATL@@@@@ATL@@@1@@Z$2
	DD	0ffffffffH
	DD	FLAT:__unwindfunclet$??$emplace@U?$pair@KV?$CStringT@DV?$StrTraitMFC@DV?$ChTraitsCRT@D@ATL@@@@@ATL@@@std@@@?$_Tree@V?$_Tmap_traits@KV?$CStringT@DV?$StrTraitMFC@DV?$ChTraitsCRT@D@ATL@@@@@ATL@@U?$less@K@std@@V?$allocator@U?$pair@$$CBKV?$CStringT@DV?$StrTraitMFC@DV?$ChTraitsCRT@D@ATL@@@@@ATL@@@std@@@4@$0A@@std@@@std@@QAE?AU?$pair@V?$_Tree_iterator@V?$_Tree_val@U?$_Tree_simple_types@U?$pair@$$CBKV?$CStringT@DV?$StrTraitMFC@DV?$ChTraitsCRT@D@ATL@@@@@ATL@@@std@@@std@@@std@@@std@@_N@1@$$QAU?$pair@KV?$CStringT@DV?$StrTraitMFC@DV?$ChTraitsCRT@D@ATL@@@@@ATL@@@1@@Z$1
__ehfuncinfo$??$emplace@U?$pair@KV?$CStringT@DV?$StrTraitMFC@DV?$ChTraitsCRT@D@ATL@@@@@ATL@@@std@@@?$_Tree@V?$_Tmap_traits@KV?$CStringT@DV?$StrTraitMFC@DV?$ChTraitsCRT@D@ATL@@@@@ATL@@U?$less@K@std@@V?$allocator@U?$pair@$$CBKV?$CStringT@DV?$StrTraitMFC@DV?$ChTraitsCRT@D@ATL@@@@@ATL@@@std@@@4@$0A@@std@@@std@@QAE?AU?$pair@V?$_Tree_iterator@V?$_Tree_val@U?$_Tree_simple_types@U?$pair@$$CBKV?$CStringT@DV?$StrTraitMFC@DV?$ChTraitsCRT@D@ATL@@@@@ATL@@@std@@@std@@@std@@@std@@_N@1@$$QAU?$pair@KV?$CStringT@DV?$StrTraitMFC@DV?$ChTraitsCRT@D@ATL@@@@@ATL@@@1@@Z DD 019930522H
	DD	02H
	DD	FLAT:__unwindtable$??$emplace@U?$pair@KV?$CStringT@DV?$StrTraitMFC@DV?$ChTraitsCRT@D@ATL@@@@@ATL@@@std@@@?$_Tree@V?$_Tmap_traits@KV?$CStringT@DV?$StrTraitMFC@DV?$ChTraitsCRT@D@ATL@@@@@ATL@@U?$less@K@std@@V?$allocator@U?$pair@$$CBKV?$CStringT@DV?$StrTraitMFC@DV?$ChTraitsCRT@D@ATL@@@@@ATL@@@std@@@4@$0A@@std@@@std@@QAE?AU?$pair@V?$_Tree_iterator@V?$_Tree_val@U?$_Tree_simple_types@U?$pair@$$CBKV?$CStringT@DV?$StrTraitMFC@DV?$ChTraitsCRT@D@ATL@@@@@ATL@@@std@@@std@@@std@@@std@@_N@1@$$QAU?$pair@KV?$CStringT@DV?$StrTraitMFC@DV?$ChTraitsCRT@D@ATL@@@@@ATL@@@1@@Z
	DD	2 DUP(00H)
	DD	2 DUP(00H)
	DD	00H
	DD	01H
xdata$x	ENDS
;	COMDAT xdata$x
xdata$x	SEGMENT
__unwindtable$??$_Emplace@U?$pair@$$CBKP8CDPCoreClient@@AEXAAVCAr@@KKK@Z@std@@@?$_Tree@V?$_Tmap_traits@KP8CDPCoreClient@@AEXAAVCAr@@KKK@ZU?$less@K@std@@V?$allocator@U?$pair@$$CBKP8CDPCoreClient@@AEXAAVCAr@@KKK@Z@std@@@4@$0A@@std@@@std@@IAE?AU?$pair@PAU?$_Tree_node@U?$pair@$$CBKP8CDPCoreClient@@AEXAAVCAr@@KKK@Z@std@@PAX@std@@_N@1@$$QAU?$pair@$$CBKP8CDPCoreClient@@AEXAAVCAr@@KKK@Z@1@@Z DD 0ffffffffH
	DD	FLAT:__unwindfunclet$??$_Emplace@U?$pair@$$CBKP8CDPCoreClient@@AEXAAVCAr@@KKK@Z@std@@@?$_Tree@V?$_Tmap_traits@KP8CDPCoreClient@@AEXAAVCAr@@KKK@ZU?$less@K@std@@V?$allocator@U?$pair@$$CBKP8CDPCoreClient@@AEXAAVCAr@@KKK@Z@std@@@4@$0A@@std@@@std@@IAE?AU?$pair@PAU?$_Tree_node@U?$pair@$$CBKP8CDPCoreClient@@AEXAAVCAr@@KKK@Z@std@@PAX@std@@_N@1@$$QAU?$pair@$$CBKP8CDPCoreClient@@AEXAAVCAr@@KKK@Z@1@@Z$2
__ehfuncinfo$??$_Emplace@U?$pair@$$CBKP8CDPCoreClient@@AEXAAVCAr@@KKK@Z@std@@@?$_Tree@V?$_Tmap_traits@KP8CDPCoreClient@@AEXAAVCAr@@KKK@ZU?$less@K@std@@V?$allocator@U?$pair@$$CBKP8CDPCoreClient@@AEXAAVCAr@@KKK@Z@std@@@4@$0A@@std@@@std@@IAE?AU?$pair@PAU?$_Tree_node@U?$pair@$$CBKP8CDPCoreClient@@AEXAAVCAr@@KKK@Z@std@@PAX@std@@_N@1@$$QAU?$pair@$$CBKP8CDPCoreClient@@AEXAAVCAr@@KKK@Z@1@@Z DD 019930522H
	DD	01H
	DD	FLAT:__unwindtable$??$_Emplace@U?$pair@$$CBKP8CDPCoreClient@@AEXAAVCAr@@KKK@Z@std@@@?$_Tree@V?$_Tmap_traits@KP8CDPCoreClient@@AEXAAVCAr@@KKK@ZU?$less@K@std@@V?$allocator@U?$pair@$$CBKP8CDPCoreClient@@AEXAAVCAr@@KKK@Z@std@@@4@$0A@@std@@@std@@IAE?AU?$pair@PAU?$_Tree_node@U?$pair@$$CBKP8CDPCoreClient@@AEXAAVCAr@@KKK@Z@std@@PAX@std@@_N@1@$$QAU?$pair@$$CBKP8CDPCoreClient@@AEXAAVCAr@@KKK@Z@1@@Z
	DD	2 DUP(00H)
	DD	2 DUP(00H)
	DD	00H
	DD	01H
xdata$x	ENDS
;	COMDAT xdata$x
xdata$x	SEGMENT
__unwindtable$??$insert@U?$pair@KV?$CStringT@DV?$StrTraitMFC@DV?$ChTraitsCRT@D@ATL@@@@@ATL@@@std@@$0A@@?$map@KV?$CStringT@DV?$StrTraitMFC@DV?$ChTraitsCRT@D@ATL@@@@@ATL@@U?$less@K@std@@V?$allocator@U?$pair@$$CBKV?$CStringT@DV?$StrTraitMFC@DV?$ChTraitsCRT@D@ATL@@@@@ATL@@@std@@@4@@std@@QAE?AU?$pair@V?$_Tree_iterator@V?$_Tree_val@U?$_Tree_simple_types@U?$pair@$$CBKV?$CStringT@DV?$StrTraitMFC@DV?$ChTraitsCRT@D@ATL@@@@@ATL@@@std@@@std@@@std@@@std@@_N@1@$$QAU?$pair@KV?$CStringT@DV?$StrTraitMFC@DV?$ChTraitsCRT@D@ATL@@@@@ATL@@@1@@Z DD 0ffffffffH
	DD	FLAT:__unwindfunclet$??$insert@U?$pair@KV?$CStringT@DV?$StrTraitMFC@DV?$ChTraitsCRT@D@ATL@@@@@ATL@@@std@@$0A@@?$map@KV?$CStringT@DV?$StrTraitMFC@DV?$ChTraitsCRT@D@ATL@@@@@ATL@@U?$less@K@std@@V?$allocator@U?$pair@$$CBKV?$CStringT@DV?$StrTraitMFC@DV?$ChTraitsCRT@D@ATL@@@@@ATL@@@std@@@4@@std@@QAE?AU?$pair@V?$_Tree_iterator@V?$_Tree_val@U?$_Tree_simple_types@U?$pair@$$CBKV?$CStringT@DV?$StrTraitMFC@DV?$ChTraitsCRT@D@ATL@@@@@ATL@@@std@@@std@@@std@@@std@@_N@1@$$QAU?$pair@KV?$CStringT@DV?$StrTraitMFC@DV?$ChTraitsCRT@D@ATL@@@@@ATL@@@1@@Z$2
	DD	0ffffffffH
	DD	FLAT:__unwindfunclet$??$insert@U?$pair@KV?$CStringT@DV?$StrTraitMFC@DV?$ChTraitsCRT@D@ATL@@@@@ATL@@@std@@$0A@@?$map@KV?$CStringT@DV?$StrTraitMFC@DV?$ChTraitsCRT@D@ATL@@@@@ATL@@U?$less@K@std@@V?$allocator@U?$pair@$$CBKV?$CStringT@DV?$StrTraitMFC@DV?$ChTraitsCRT@D@ATL@@@@@ATL@@@std@@@4@@std@@QAE?AU?$pair@V?$_Tree_iterator@V?$_Tree_val@U?$_Tree_simple_types@U?$pair@$$CBKV?$CStringT@DV?$StrTraitMFC@DV?$ChTraitsCRT@D@ATL@@@@@ATL@@@std@@@std@@@std@@@std@@_N@1@$$QAU?$pair@KV?$CStringT@DV?$StrTraitMFC@DV?$ChTraitsCRT@D@ATL@@@@@ATL@@@1@@Z$1
__ehfuncinfo$??$insert@U?$pair@KV?$CStringT@DV?$StrTraitMFC@DV?$ChTraitsCRT@D@ATL@@@@@ATL@@@std@@$0A@@?$map@KV?$CStringT@DV?$StrTraitMFC@DV?$ChTraitsCRT@D@ATL@@@@@ATL@@U?$less@K@std@@V?$allocator@U?$pair@$$CBKV?$CStringT@DV?$StrTraitMFC@DV?$ChTraitsCRT@D@ATL@@@@@ATL@@@std@@@4@@std@@QAE?AU?$pair@V?$_Tree_iterator@V?$_Tree_val@U?$_Tree_simple_types@U?$pair@$$CBKV?$CStringT@DV?$StrTraitMFC@DV?$ChTraitsCRT@D@ATL@@@@@ATL@@@std@@@std@@@std@@@std@@_N@1@$$QAU?$pair@KV?$CStringT@DV?$StrTraitMFC@DV?$ChTraitsCRT@D@ATL@@@@@ATL@@@1@@Z DD 019930522H
	DD	02H
	DD	FLAT:__unwindtable$??$insert@U?$pair@KV?$CStringT@DV?$StrTraitMFC@DV?$ChTraitsCRT@D@ATL@@@@@ATL@@@std@@$0A@@?$map@KV?$CStringT@DV?$StrTraitMFC@DV?$ChTraitsCRT@D@ATL@@@@@ATL@@U?$less@K@std@@V?$allocator@U?$pair@$$CBKV?$CStringT@DV?$StrTraitMFC@DV?$ChTraitsCRT@D@ATL@@@@@ATL@@@std@@@4@@std@@QAE?AU?$pair@V?$_Tree_iterator@V?$_Tree_val@U?$_Tree_simple_types@U?$pair@$$CBKV?$CStringT@DV?$StrTraitMFC@DV?$ChTraitsCRT@D@ATL@@@@@ATL@@@std@@@std@@@std@@@std@@_N@1@$$QAU?$pair@KV?$CStringT@DV?$StrTraitMFC@DV?$ChTraitsCRT@D@ATL@@@@@ATL@@@1@@Z
	DD	2 DUP(00H)
	DD	2 DUP(00H)
	DD	00H
	DD	01H
xdata$x	ENDS
;	COMDAT xdata$x
xdata$x	SEGMENT
__ehfuncinfo$??1?$pair@KV?$CStringT@DV?$StrTraitMFC@DV?$ChTraitsCRT@D@ATL@@@@@ATL@@@std@@QAE@XZ DD 019930522H
	DD	00H
	DD	00H
	DD	2 DUP(00H)
	DD	2 DUP(00H)
	DD	00H
	DD	05H
xdata$x	ENDS
;	COMDAT xdata$x
xdata$x	SEGMENT
__ehfuncinfo$??_G?$pair@$$CBKV?$CStringT@DV?$StrTraitMFC@DV?$ChTraitsCRT@D@ATL@@@@@ATL@@@std@@QAEPAXI@Z DD 019930522H
	DD	00H
	DD	00H
	DD	2 DUP(00H)
	DD	2 DUP(00H)
	DD	00H
	DD	05H
xdata$x	ENDS
;	COMDAT xdata$x
xdata$x	SEGMENT
__ehfuncinfo$??1?$pair@$$CBKV?$CStringT@DV?$StrTraitMFC@DV?$ChTraitsCRT@D@ATL@@@@@ATL@@@std@@QAE@XZ DD 019930522H
	DD	00H
	DD	00H
	DD	2 DUP(00H)
	DD	2 DUP(00H)
	DD	00H
	DD	05H
xdata$x	ENDS
;	COMDAT xdata$x
xdata$x	SEGMENT
__unwindtable$??$insert@$0A@$0A@@?$_Tree@V?$_Tmap_traits@KP8CDPCoreClient@@AEXAAVCAr@@KKK@ZU?$less@K@std@@V?$allocator@U?$pair@$$CBKP8CDPCoreClient@@AEXAAVCAr@@KKK@Z@std@@@4@$0A@@std@@@std@@QAE?AU?$pair@V?$_Tree_iterator@V?$_Tree_val@U?$_Tree_simple_types@U?$pair@$$CBKP8CDPCoreClient@@AEXAAVCAr@@KKK@Z@std@@@std@@@std@@@std@@_N@1@$$QAU?$pair@$$CBKP8CDPCoreClient@@AEXAAVCAr@@KKK@Z@1@@Z DD 0ffffffffH
	DD	FLAT:__unwindfunclet$??$insert@$0A@$0A@@?$_Tree@V?$_Tmap_traits@KP8CDPCoreClient@@AEXAAVCAr@@KKK@ZU?$less@K@std@@V?$allocator@U?$pair@$$CBKP8CDPCoreClient@@AEXAAVCAr@@KKK@Z@std@@@4@$0A@@std@@@std@@QAE?AU?$pair@V?$_Tree_iterator@V?$_Tree_val@U?$_Tree_simple_types@U?$pair@$$CBKP8CDPCoreClient@@AEXAAVCAr@@KKK@Z@std@@@std@@@std@@@std@@_N@1@$$QAU?$pair@$$CBKP8CDPCoreClient@@AEXAAVCAr@@KKK@Z@1@@Z$2
__ehfuncinfo$??$insert@$0A@$0A@@?$_Tree@V?$_Tmap_traits@KP8CDPCoreClient@@AEXAAVCAr@@KKK@ZU?$less@K@std@@V?$allocator@U?$pair@$$CBKP8CDPCoreClient@@AEXAAVCAr@@KKK@Z@std@@@4@$0A@@std@@@std@@QAE?AU?$pair@V?$_Tree_iterator@V?$_Tree_val@U?$_Tree_simple_types@U?$pair@$$CBKP8CDPCoreClient@@AEXAAVCAr@@KKK@Z@std@@@std@@@std@@@std@@_N@1@$$QAU?$pair@$$CBKP8CDPCoreClient@@AEXAAVCAr@@KKK@Z@1@@Z DD 019930522H
	DD	01H
	DD	FLAT:__unwindtable$??$insert@$0A@$0A@@?$_Tree@V?$_Tmap_traits@KP8CDPCoreClient@@AEXAAVCAr@@KKK@ZU?$less@K@std@@V?$allocator@U?$pair@$$CBKP8CDPCoreClient@@AEXAAVCAr@@KKK@Z@std@@@4@$0A@@std@@@std@@QAE?AU?$pair@V?$_Tree_iterator@V?$_Tree_val@U?$_Tree_simple_types@U?$pair@$$CBKP8CDPCoreClient@@AEXAAVCAr@@KKK@Z@std@@@std@@@std@@@std@@_N@1@$$QAU?$pair@$$CBKP8CDPCoreClient@@AEXAAVCAr@@KKK@Z@1@@Z
	DD	2 DUP(00H)
	DD	2 DUP(00H)
	DD	00H
	DD	01H
xdata$x	ENDS
;	COMDAT voltbl
voltbl	SEGMENT
_volmd	DW	014eH
	DW	0161H
	DW	023cH
	DW	0255H
voltbl	ENDS
;	COMDAT xdata$x
xdata$x	SEGMENT
__unwindtable$?OnSetMonsterRespawn@CDPCoreClient@@AAEXAAVCAr@@KKK@Z DD 0ffffffffH
	DD	FLAT:__unwindfunclet$?OnSetMonsterRespawn@CDPCoreClient@@AAEXAAVCAr@@KKK@Z$0
__ehfuncinfo$?OnSetMonsterRespawn@CDPCoreClient@@AAEXAAVCAr@@KKK@Z DD 019930522H
	DD	01H
	DD	FLAT:__unwindtable$?OnSetMonsterRespawn@CDPCoreClient@@AAEXAAVCAr@@KKK@Z
	DD	2 DUP(00H)
	DD	2 DUP(00H)
	DD	00H
	DD	01H
xdata$x	ENDS
;	COMDAT xdata$x
xdata$x	SEGMENT
__unwindtable$?OnAcptWar@CDPCoreClient@@AAEXAAVCAr@@KKK@Z DD 0ffffffffH
	DD	FLAT:__unwindfunclet$?OnAcptWar@CDPCoreClient@@AAEXAAVCAr@@KKK@Z$0
__ehfuncinfo$?OnAcptWar@CDPCoreClient@@AAEXAAVCAr@@KKK@Z DD 019930522H
	DD	01H
	DD	FLAT:__unwindtable$?OnAcptWar@CDPCoreClient@@AAEXAAVCAr@@KKK@Z
	DD	2 DUP(00H)
	DD	2 DUP(00H)
	DD	00H
	DD	01H
xdata$x	ENDS
;	COMDAT xdata$x
xdata$x	SEGMENT
__unwindtable$?OnAddGuildMember@CDPCoreClient@@AAEXAAVCAr@@KKK@Z DD 0ffffffffH
	DD	FLAT:__unwindfunclet$?OnAddGuildMember@CDPCoreClient@@AAEXAAVCAr@@KKK@Z$0
__ehfuncinfo$?OnAddGuildMember@CDPCoreClient@@AAEXAAVCAr@@KKK@Z DD 019930522H
	DD	01H
	DD	FLAT:__unwindtable$?OnAddGuildMember@CDPCoreClient@@AAEXAAVCAr@@KKK@Z
	DD	2 DUP(00H)
	DD	2 DUP(00H)
	DD	00H
	DD	01H
xdata$x	ENDS
;	COMDAT xdata$x
xdata$x	SEGMENT
__unwindtable$?OnCreateGuild@CDPCoreClient@@AAEXAAVCAr@@KKK@Z DD 0ffffffffH
	DD	FLAT:__unwindfunclet$?OnCreateGuild@CDPCoreClient@@AAEXAAVCAr@@KKK@Z$0
	DD	0ffffffffH
	DD	FLAT:__unwindfunclet$?OnCreateGuild@CDPCoreClient@@AAEXAAVCAr@@KKK@Z$1
	DD	0ffffffffH
	DD	FLAT:__unwindfunclet$?OnCreateGuild@CDPCoreClient@@AAEXAAVCAr@@KKK@Z$2
__ehfuncinfo$?OnCreateGuild@CDPCoreClient@@AAEXAAVCAr@@KKK@Z DD 019930522H
	DD	03H
	DD	FLAT:__unwindtable$?OnCreateGuild@CDPCoreClient@@AAEXAAVCAr@@KKK@Z
	DD	2 DUP(00H)
	DD	2 DUP(00H)
	DD	00H
	DD	01H
xdata$x	ENDS
;	COMDAT xdata$x
xdata$x	SEGMENT
__unwindtable$?OnEnvironmentEffect@CDPCoreClient@@AAEXAAVCAr@@KKK@Z DD 0ffffffffH
	DD	FLAT:__unwindfunclet$?OnEnvironmentEffect@CDPCoreClient@@AAEXAAVCAr@@KKK@Z$0
	DD	00H
	DD	FLAT:__unwindfunclet$?OnEnvironmentEffect@CDPCoreClient@@AAEXAAVCAr@@KKK@Z$1
__ehfuncinfo$?OnEnvironmentEffect@CDPCoreClient@@AAEXAAVCAr@@KKK@Z DD 019930522H
	DD	02H
	DD	FLAT:__unwindtable$?OnEnvironmentEffect@CDPCoreClient@@AAEXAAVCAr@@KKK@Z
	DD	2 DUP(00H)
	DD	2 DUP(00H)
	DD	00H
	DD	01H
xdata$x	ENDS
;	COMDAT xdata$x
xdata$x	SEGMENT
__unwindtable$?OnPlaySound@CDPCoreClient@@AAEXAAVCAr@@KKK@Z DD 0ffffffffH
	DD	FLAT:__unwindfunclet$?OnPlaySound@CDPCoreClient@@AAEXAAVCAr@@KKK@Z$0
__ehfuncinfo$?OnPlaySound@CDPCoreClient@@AAEXAAVCAr@@KKK@Z DD 019930522H
	DD	01H
	DD	FLAT:__unwindtable$?OnPlaySound@CDPCoreClient@@AAEXAAVCAr@@KKK@Z
	DD	2 DUP(00H)
	DD	2 DUP(00H)
	DD	00H
	DD	01H
xdata$x	ENDS
;	COMDAT xdata$x
xdata$x	SEGMENT
__unwindtable$?OnPlayMusic@CDPCoreClient@@AAEXAAVCAr@@KKK@Z DD 0ffffffffH
	DD	FLAT:__unwindfunclet$?OnPlayMusic@CDPCoreClient@@AAEXAAVCAr@@KKK@Z$0
__ehfuncinfo$?OnPlayMusic@CDPCoreClient@@AAEXAAVCAr@@KKK@Z DD 019930522H
	DD	01H
	DD	FLAT:__unwindtable$?OnPlayMusic@CDPCoreClient@@AAEXAAVCAr@@KKK@Z
	DD	2 DUP(00H)
	DD	2 DUP(00H)
	DD	00H
	DD	01H
xdata$x	ENDS
;	COMDAT xdata$x
xdata$x	SEGMENT
__unwindtable$?OnShout@CDPCoreClient@@AAEXAAVCAr@@KKK@Z DD 0ffffffffH
	DD	FLAT:__unwindfunclet$?OnShout@CDPCoreClient@@AAEXAAVCAr@@KKK@Z$0
__ehfuncinfo$?OnShout@CDPCoreClient@@AAEXAAVCAr@@KKK@Z DD 019930522H
	DD	01H
	DD	FLAT:__unwindtable$?OnShout@CDPCoreClient@@AAEXAAVCAr@@KKK@Z
	DD	2 DUP(00H)
	DD	2 DUP(00H)
	DD	00H
	DD	01H
xdata$x	ENDS
;	COMDAT xdata$x
xdata$x	SEGMENT
__unwindtable$?OnRecharge@CDPCoreClient@@AAEXAAVCAr@@KKK@Z DD 0ffffffffH
	DD	FLAT:__unwindfunclet$?OnRecharge@CDPCoreClient@@AAEXAAVCAr@@KKK@Z$0
__ehfuncinfo$?OnRecharge@CDPCoreClient@@AAEXAAVCAr@@KKK@Z DD 019930522H
	DD	01H
	DD	FLAT:__unwindtable$?OnRecharge@CDPCoreClient@@AAEXAAVCAr@@KKK@Z
	DD	2 DUP(00H)
	DD	2 DUP(00H)
	DD	00H
	DD	01H
xdata$x	ENDS
;	COMDAT xdata$x
xdata$x	SEGMENT
__unwindtable$?OnLoadWorld@CDPCoreClient@@AAEXAAVCAr@@KKK@Z DD 0ffffffffH
	DD	FLAT:__unwindfunclet$?OnLoadWorld@CDPCoreClient@@AAEXAAVCAr@@KKK@Z$0
__ehfuncinfo$?OnLoadWorld@CDPCoreClient@@AAEXAAVCAr@@KKK@Z DD 019930522H
	DD	01H
	DD	FLAT:__unwindtable$?OnLoadWorld@CDPCoreClient@@AAEXAAVCAr@@KKK@Z
	DD	2 DUP(00H)
	DD	2 DUP(00H)
	DD	00H
	DD	01H
xdata$x	ENDS
;	COMDAT xdata$x
xdata$x	SEGMENT
__unwindtable$?SendQuizSystemMessage@CDPCoreClient@@QAEXHHHH@Z DD 0ffffffffH
	DD	FLAT:__unwindfunclet$?SendQuizSystemMessage@CDPCoreClient@@QAEXHHHH@Z$0
__ehfuncinfo$?SendQuizSystemMessage@CDPCoreClient@@QAEXHHHH@Z DD 019930522H
	DD	01H
	DD	FLAT:__unwindtable$?SendQuizSystemMessage@CDPCoreClient@@QAEXHHHH@Z
	DD	2 DUP(00H)
	DD	2 DUP(00H)
	DD	00H
	DD	01H
xdata$x	ENDS
;	COMDAT xdata$x
xdata$x	SEGMENT
__unwindtable$?SendInstanceDungeonSetCoolTimeInfo@CDPCoreClient@@QAEXHKAAUCOOLTIME_INFO@@@Z DD 0ffffffffH
	DD	FLAT:__unwindfunclet$?SendInstanceDungeonSetCoolTimeInfo@CDPCoreClient@@QAEXHKAAUCOOLTIME_INFO@@@Z$0
__ehfuncinfo$?SendInstanceDungeonSetCoolTimeInfo@CDPCoreClient@@QAEXHKAAUCOOLTIME_INFO@@@Z DD 019930522H
	DD	01H
	DD	FLAT:__unwindtable$?SendInstanceDungeonSetCoolTimeInfo@CDPCoreClient@@QAEXHKAAUCOOLTIME_INFO@@@Z
	DD	2 DUP(00H)
	DD	2 DUP(00H)
	DD	00H
	DD	01H
xdata$x	ENDS
;	COMDAT xdata$x
xdata$x	SEGMENT
__unwindtable$?SendInstanceDungeonDestroy@CDPCoreClient@@QAEXHKAAUINSTACNEDUNGEON_INFO@@@Z DD 0ffffffffH
	DD	FLAT:__unwindfunclet$?SendInstanceDungeonDestroy@CDPCoreClient@@QAEXHKAAUINSTACNEDUNGEON_INFO@@@Z$0
__ehfuncinfo$?SendInstanceDungeonDestroy@CDPCoreClient@@QAEXHKAAUINSTACNEDUNGEON_INFO@@@Z DD 019930522H
	DD	01H
	DD	FLAT:__unwindtable$?SendInstanceDungeonDestroy@CDPCoreClient@@QAEXHKAAUINSTACNEDUNGEON_INFO@@@Z
	DD	2 DUP(00H)
	DD	2 DUP(00H)
	DD	00H
	DD	01H
xdata$x	ENDS
;	COMDAT xdata$x
xdata$x	SEGMENT
__unwindtable$?SendInstanceDungeonCreate@CDPCoreClient@@QAEXHKAAUINSTACNEDUNGEON_INFO@@@Z DD 0ffffffffH
	DD	FLAT:__unwindfunclet$?SendInstanceDungeonCreate@CDPCoreClient@@QAEXHKAAUINSTACNEDUNGEON_INFO@@@Z$0
__ehfuncinfo$?SendInstanceDungeonCreate@CDPCoreClient@@QAEXHKAAUINSTACNEDUNGEON_INFO@@@Z DD 019930522H
	DD	01H
	DD	FLAT:__unwindtable$?SendInstanceDungeonCreate@CDPCoreClient@@QAEXHKAAUINSTACNEDUNGEON_INFO@@@Z
	DD	2 DUP(00H)
	DD	2 DUP(00H)
	DD	00H
	DD	01H
xdata$x	ENDS
;	COMDAT xdata$x
xdata$x	SEGMENT
__unwindtable$?SendPing@CDPCoreClient@@QAEXXZ DD 0ffffffffH
	DD	FLAT:__unwindfunclet$?SendPing@CDPCoreClient@@QAEXXZ$0
__ehfuncinfo$?SendPing@CDPCoreClient@@QAEXXZ DD 019930522H
	DD	01H
	DD	FLAT:__unwindtable$?SendPing@CDPCoreClient@@QAEXXZ
	DD	2 DUP(00H)
	DD	2 DUP(00H)
	DD	00H
	DD	01H
xdata$x	ENDS
;	COMDAT xdata$x
xdata$x	SEGMENT
__unwindtable$?SendChat@CDPCoreClient@@QAEXKKPBD@Z DD 0ffffffffH
	DD	FLAT:__unwindfunclet$?SendChat@CDPCoreClient@@QAEXKKPBD@Z$0
__ehfuncinfo$?SendChat@CDPCoreClient@@QAEXKKPBD@Z DD 019930522H
	DD	01H
	DD	FLAT:__unwindtable$?SendChat@CDPCoreClient@@QAEXKKPBD@Z
	DD	2 DUP(00H)
	DD	2 DUP(00H)
	DD	00H
	DD	01H
xdata$x	ENDS
;	COMDAT xdata$x
xdata$x	SEGMENT
__unwindtable$?SendSetSnoopGuild@CDPCoreClient@@QAEXKH@Z DD 0ffffffffH
	DD	FLAT:__unwindfunclet$?SendSetSnoopGuild@CDPCoreClient@@QAEXKH@Z$0
__ehfuncinfo$?SendSetSnoopGuild@CDPCoreClient@@QAEXKH@Z DD 019930522H
	DD	01H
	DD	FLAT:__unwindtable$?SendSetSnoopGuild@CDPCoreClient@@QAEXKH@Z
	DD	2 DUP(00H)
	DD	2 DUP(00H)
	DD	00H
	DD	01H
xdata$x	ENDS
;	COMDAT xdata$x
xdata$x	SEGMENT
__unwindtable$?SendSetSnoop@CDPCoreClient@@QAEXKKH@Z DD 0ffffffffH
	DD	FLAT:__unwindfunclet$?SendSetSnoop@CDPCoreClient@@QAEXKKH@Z$0
__ehfuncinfo$?SendSetSnoop@CDPCoreClient@@QAEXKKH@Z DD 019930522H
	DD	01H
	DD	FLAT:__unwindtable$?SendSetSnoop@CDPCoreClient@@QAEXKKH@Z
	DD	2 DUP(00H)
	DD	2 DUP(00H)
	DD	00H
	DD	01H
xdata$x	ENDS
;	COMDAT xdata$x
xdata$x	SEGMENT
__unwindtable$?SendQuerySetGuildName@CDPCoreClient@@QAEXKKPBDE@Z DD 0ffffffffH
	DD	FLAT:__unwindfunclet$?SendQuerySetGuildName@CDPCoreClient@@QAEXKKPBDE@Z$0
__ehfuncinfo$?SendQuerySetGuildName@CDPCoreClient@@QAEXKKPBDE@Z DD 019930522H
	DD	01H
	DD	FLAT:__unwindtable$?SendQuerySetGuildName@CDPCoreClient@@QAEXKKPBDE@Z
	DD	2 DUP(00H)
	DD	2 DUP(00H)
	DD	00H
	DD	01H
xdata$x	ENDS
;	COMDAT xdata$x
xdata$x	SEGMENT
__unwindtable$?SendWCWantedReward@CDPCoreClient@@QAEXKKPBDKABUD3DXVECTOR3@@H@Z DD 0ffffffffH
	DD	FLAT:__unwindfunclet$?SendWCWantedReward@CDPCoreClient@@QAEXKKPBDKABUD3DXVECTOR3@@H@Z$0
__ehfuncinfo$?SendWCWantedReward@CDPCoreClient@@QAEXKKPBDKABUD3DXVECTOR3@@H@Z DD 019930522H
	DD	01H
	DD	FLAT:__unwindtable$?SendWCWantedReward@CDPCoreClient@@QAEXKKPBDKABUD3DXVECTOR3@@H@Z
	DD	2 DUP(00H)
	DD	2 DUP(00H)
	DD	00H
	DD	01H
xdata$x	ENDS
;	COMDAT xdata$x
xdata$x	SEGMENT
__unwindtable$?SendWCWantedGold@CDPCoreClient@@QAEXPBDKH0@Z DD 0ffffffffH
	DD	FLAT:__unwindfunclet$?SendWCWantedGold@CDPCoreClient@@QAEXPBDKH0@Z$0
__ehfuncinfo$?SendWCWantedGold@CDPCoreClient@@QAEXPBDKH0@Z DD 019930522H
	DD	01H
	DD	FLAT:__unwindtable$?SendWCWantedGold@CDPCoreClient@@QAEXPBDKH0@Z
	DD	2 DUP(00H)
	DD	2 DUP(00H)
	DD	00H
	DD	01H
xdata$x	ENDS
;	COMDAT xdata$x
xdata$x	SEGMENT
__unwindtable$?SendBlock@CDPCoreClient@@QAEXEKPADK@Z DD 0ffffffffH
	DD	FLAT:__unwindfunclet$?SendBlock@CDPCoreClient@@QAEXEKPADK@Z$0
__ehfuncinfo$?SendBlock@CDPCoreClient@@QAEXEKPADK@Z DD 019930522H
	DD	01H
	DD	FLAT:__unwindtable$?SendBlock@CDPCoreClient@@QAEXEKPADK@Z
	DD	2 DUP(00H)
	DD	2 DUP(00H)
	DD	00H
	DD	01H
xdata$x	ENDS
;	COMDAT xdata$x
xdata$x	SEGMENT
__unwindtable$?SendAddFriendNameReqest@CDPCoreClient@@QAEXKJEKPBD0@Z DD 0ffffffffH
	DD	FLAT:__unwindfunclet$?SendAddFriendNameReqest@CDPCoreClient@@QAEXKJEKPBD0@Z$0
__ehfuncinfo$?SendAddFriendNameReqest@CDPCoreClient@@QAEXKJEKPBD0@Z DD 019930522H
	DD	01H
	DD	FLAT:__unwindtable$?SendAddFriendNameReqest@CDPCoreClient@@QAEXKJEKPBD0@Z
	DD	2 DUP(00H)
	DD	2 DUP(00H)
	DD	00H
	DD	01H
xdata$x	ENDS
;	COMDAT xdata$x
xdata$x	SEGMENT
__unwindtable$?SendWarTimeout@CDPCoreClient@@QAEXK@Z DD 0ffffffffH
	DD	FLAT:__unwindfunclet$?SendWarTimeout@CDPCoreClient@@QAEXK@Z$0
__ehfuncinfo$?SendWarTimeout@CDPCoreClient@@QAEXK@Z DD 019930522H
	DD	01H
	DD	FLAT:__unwindtable$?SendWarTimeout@CDPCoreClient@@QAEXK@Z
	DD	2 DUP(00H)
	DD	2 DUP(00H)
	DD	00H
	DD	01H
xdata$x	ENDS
;	COMDAT xdata$x
xdata$x	SEGMENT
__unwindtable$?SendWarMasterAbsent@CDPCoreClient@@QAEXKH@Z DD 0ffffffffH
	DD	FLAT:__unwindfunclet$?SendWarMasterAbsent@CDPCoreClient@@QAEXKH@Z$0
__ehfuncinfo$?SendWarMasterAbsent@CDPCoreClient@@QAEXKH@Z DD 019930522H
	DD	01H
	DD	FLAT:__unwindtable$?SendWarMasterAbsent@CDPCoreClient@@QAEXKH@Z
	DD	2 DUP(00H)
	DD	2 DUP(00H)
	DD	00H
	DD	01H
xdata$x	ENDS
;	COMDAT xdata$x
xdata$x	SEGMENT
__unwindtable$?SendWarDead@CDPCoreClient@@QAEXK@Z DD 0ffffffffH
	DD	FLAT:__unwindfunclet$?SendWarDead@CDPCoreClient@@QAEXK@Z$0
__ehfuncinfo$?SendWarDead@CDPCoreClient@@QAEXK@Z DD 019930522H
	DD	01H
	DD	FLAT:__unwindtable$?SendWarDead@CDPCoreClient@@QAEXK@Z
	DD	2 DUP(00H)
	DD	2 DUP(00H)
	DD	00H
	DD	01H
xdata$x	ENDS
;	COMDAT xdata$x
xdata$x	SEGMENT
__unwindtable$?SendGuildMsgControl_Bank_Penya@CDPCoreClient@@QAEXPAVCUser@@KEE@Z DD 0ffffffffH
	DD	FLAT:__unwindfunclet$?SendGuildMsgControl_Bank_Penya@CDPCoreClient@@QAEXPAVCUser@@KEE@Z$0
__ehfuncinfo$?SendGuildMsgControl_Bank_Penya@CDPCoreClient@@QAEXPAVCUser@@KEE@Z DD 019930522H
	DD	01H
	DD	FLAT:__unwindtable$?SendGuildMsgControl_Bank_Penya@CDPCoreClient@@QAEXPAVCUser@@KEE@Z
	DD	2 DUP(00H)
	DD	2 DUP(00H)
	DD	00H
	DD	01H
xdata$x	ENDS
;	COMDAT xdata$x
xdata$x	SEGMENT
__unwindtable$?SendGuildMsgControl_Bank_Item@CDPCoreClient@@QAEXPAVCUser@@PAVCItemElem@@E@Z DD 0ffffffffH
	DD	FLAT:__unwindfunclet$?SendGuildMsgControl_Bank_Item@CDPCoreClient@@QAEXPAVCUser@@PAVCItemElem@@E@Z$0
__ehfuncinfo$?SendGuildMsgControl_Bank_Item@CDPCoreClient@@QAEXPAVCUser@@PAVCItemElem@@E@Z DD 019930522H
	DD	01H
	DD	FLAT:__unwindtable$?SendGuildMsgControl_Bank_Item@CDPCoreClient@@QAEXPAVCUser@@PAVCItemElem@@E@Z
	DD	2 DUP(00H)
	DD	2 DUP(00H)
	DD	00H
	DD	01H
xdata$x	ENDS
;	COMDAT xdata$x
xdata$x	SEGMENT
__unwindtable$?SendGuildGetPay@CDPCoreClient@@QAEXKK@Z DD 0ffffffffH
	DD	FLAT:__unwindfunclet$?SendGuildGetPay@CDPCoreClient@@QAEXKK@Z$0
__ehfuncinfo$?SendGuildGetPay@CDPCoreClient@@QAEXKK@Z DD 019930522H
	DD	01H
	DD	FLAT:__unwindtable$?SendGuildGetPay@CDPCoreClient@@QAEXKK@Z
	DD	2 DUP(00H)
	DD	2 DUP(00H)
	DD	00H
	DD	01H
xdata$x	ENDS
;	COMDAT xdata$x
xdata$x	SEGMENT
__unwindtable$?SendGuildStat@CDPCoreClient@@QAEHPAVCUser@@W4GUILD_STAT@@K@Z DD 0ffffffffH
	DD	FLAT:__unwindfunclet$?SendGuildStat@CDPCoreClient@@QAEHPAVCUser@@W4GUILD_STAT@@K@Z$0
	DD	0ffffffffH
	DD	FLAT:__unwindfunclet$?SendGuildStat@CDPCoreClient@@QAEHPAVCUser@@W4GUILD_STAT@@K@Z$1
__ehfuncinfo$?SendGuildStat@CDPCoreClient@@QAEHPAVCUser@@W4GUILD_STAT@@K@Z DD 019930522H
	DD	02H
	DD	FLAT:__unwindtable$?SendGuildStat@CDPCoreClient@@QAEHPAVCUser@@W4GUILD_STAT@@K@Z
	DD	2 DUP(00H)
	DD	2 DUP(00H)
	DD	00H
	DD	01H
xdata$x	ENDS
;	COMDAT xdata$x
xdata$x	SEGMENT
__unwindtable$?SendGuildChat@CDPCoreClient@@QAEXPAVCUser@@PBD@Z DD 0ffffffffH
	DD	FLAT:__unwindfunclet$?SendGuildChat@CDPCoreClient@@QAEXPAVCUser@@PBD@Z$0
__ehfuncinfo$?SendGuildChat@CDPCoreClient@@QAEXPAVCUser@@PBD@Z DD 019930522H
	DD	01H
	DD	FLAT:__unwindtable$?SendGuildChat@CDPCoreClient@@QAEXPAVCUser@@PBD@Z
	DD	2 DUP(00H)
	DD	2 DUP(00H)
	DD	00H
	DD	01H
xdata$x	ENDS
;	COMDAT xdata$x
xdata$x	SEGMENT
__unwindtable$?SendCreateGuild@CDPCoreClient@@QAEXPAU_GUILD_MEMBER_INFO@@HPBD@Z DD 0ffffffffH
	DD	FLAT:__unwindfunclet$?SendCreateGuild@CDPCoreClient@@QAEXPAU_GUILD_MEMBER_INFO@@HPBD@Z$0
__ehfuncinfo$?SendCreateGuild@CDPCoreClient@@QAEXPAU_GUILD_MEMBER_INFO@@HPBD@Z DD 019930522H
	DD	01H
	DD	FLAT:__unwindtable$?SendCreateGuild@CDPCoreClient@@QAEXPAU_GUILD_MEMBER_INFO@@HPBD@Z
	DD	2 DUP(00H)
	DD	2 DUP(00H)
	DD	00H
	DD	01H
xdata$x	ENDS
;	COMDAT xdata$x
xdata$x	SEGMENT
__unwindtable$?SendSetPartyDuel@CDPCoreClient@@QAEXKKH@Z DD 0ffffffffH
	DD	FLAT:__unwindfunclet$?SendSetPartyDuel@CDPCoreClient@@QAEXKKH@Z$0
__ehfuncinfo$?SendSetPartyDuel@CDPCoreClient@@QAEXKKH@Z DD 019930522H
	DD	01H
	DD	FLAT:__unwindtable$?SendSetPartyDuel@CDPCoreClient@@QAEXKKH@Z
	DD	2 DUP(00H)
	DD	2 DUP(00H)
	DD	00H
	DD	01H
xdata$x	ENDS
;	COMDAT xdata$x
xdata$x	SEGMENT
__unwindtable$?OnCWWantedReward@CDPCoreClient@@QAEXAAVCAr@@KKK@Z DD 0ffffffffH
	DD	FLAT:__unwindfunclet$?OnCWWantedReward@CDPCoreClient@@QAEXAAVCAr@@KKK@Z$0
	DD	0ffffffffH
	DD	FLAT:__unwindfunclet$?OnCWWantedReward@CDPCoreClient@@QAEXAAVCAr@@KKK@Z$1
__ehfuncinfo$?OnCWWantedReward@CDPCoreClient@@QAEXAAVCAr@@KKK@Z DD 019930522H
	DD	02H
	DD	FLAT:__unwindtable$?OnCWWantedReward@CDPCoreClient@@QAEXAAVCAr@@KKK@Z
	DD	2 DUP(00H)
	DD	2 DUP(00H)
	DD	00H
	DD	01H
xdata$x	ENDS
;	COMDAT xdata$x
xdata$x	SEGMENT
__unwindtable$?SendGCAddParty@CDPCoreClient@@QAEXKJJKKJJK@Z DD 0ffffffffH
	DD	FLAT:__unwindfunclet$?SendGCAddParty@CDPCoreClient@@QAEXKJJKKJJK@Z$0
__ehfuncinfo$?SendGCAddParty@CDPCoreClient@@QAEXKJJKKJJK@Z DD 019930522H
	DD	01H
	DD	FLAT:__unwindtable$?SendGCAddParty@CDPCoreClient@@QAEXKJJKKJJK@Z
	DD	2 DUP(00H)
	DD	2 DUP(00H)
	DD	00H
	DD	01H
xdata$x	ENDS
;	COMDAT xdata$x
xdata$x	SEGMENT
__unwindtable$?SendGCRemoveParty@CDPCoreClient@@QAEXKK@Z DD 0ffffffffH
	DD	FLAT:__unwindfunclet$?SendGCRemoveParty@CDPCoreClient@@QAEXKK@Z$0
__ehfuncinfo$?SendGCRemoveParty@CDPCoreClient@@QAEXKK@Z DD 019930522H
	DD	01H
	DD	FLAT:__unwindtable$?SendGCRemoveParty@CDPCoreClient@@QAEXKK@Z
	DD	2 DUP(00H)
	DD	2 DUP(00H)
	DD	00H
	DD	01H
xdata$x	ENDS
;	COMDAT xdata$x
xdata$x	SEGMENT
__unwindtable$?SendGuildCombatState@CDPCoreClient@@QAEXH@Z DD 0ffffffffH
	DD	FLAT:__unwindfunclet$?SendGuildCombatState@CDPCoreClient@@QAEXH@Z$0
__ehfuncinfo$?SendGuildCombatState@CDPCoreClient@@QAEXH@Z DD 019930522H
	DD	01H
	DD	FLAT:__unwindtable$?SendGuildCombatState@CDPCoreClient@@QAEXH@Z
	DD	2 DUP(00H)
	DD	2 DUP(00H)
	DD	00H
	DD	01H
xdata$x	ENDS
;	COMDAT xdata$x
xdata$x	SEGMENT
__unwindtable$?SendStopRain@CDPCoreClient@@QAEXXZ DD 0ffffffffH
	DD	FLAT:__unwindfunclet$?SendStopRain@CDPCoreClient@@QAEXXZ$0
__ehfuncinfo$?SendStopRain@CDPCoreClient@@QAEXXZ DD 019930522H
	DD	01H
	DD	FLAT:__unwindtable$?SendStopRain@CDPCoreClient@@QAEXXZ
	DD	2 DUP(00H)
	DD	2 DUP(00H)
	DD	00H
	DD	01H
xdata$x	ENDS
;	COMDAT xdata$x
xdata$x	SEGMENT
__unwindtable$?SendStopSnow@CDPCoreClient@@QAEXXZ DD 0ffffffffH
	DD	FLAT:__unwindfunclet$?SendStopSnow@CDPCoreClient@@QAEXXZ$0
__ehfuncinfo$?SendStopSnow@CDPCoreClient@@QAEXXZ DD 019930522H
	DD	01H
	DD	FLAT:__unwindtable$?SendStopSnow@CDPCoreClient@@QAEXXZ
	DD	2 DUP(00H)
	DD	2 DUP(00H)
	DD	00H
	DD	01H
xdata$x	ENDS
;	COMDAT xdata$x
xdata$x	SEGMENT
__unwindtable$?SendFallRain@CDPCoreClient@@QAEXXZ DD 0ffffffffH
	DD	FLAT:__unwindfunclet$?SendFallRain@CDPCoreClient@@QAEXXZ$0
__ehfuncinfo$?SendFallRain@CDPCoreClient@@QAEXXZ DD 019930522H
	DD	01H
	DD	FLAT:__unwindtable$?SendFallRain@CDPCoreClient@@QAEXXZ
	DD	2 DUP(00H)
	DD	2 DUP(00H)
	DD	00H
	DD	01H
xdata$x	ENDS
;	COMDAT xdata$x
xdata$x	SEGMENT
__unwindtable$?SendFallSnow@CDPCoreClient@@QAEXXZ DD 0ffffffffH
	DD	FLAT:__unwindfunclet$?SendFallSnow@CDPCoreClient@@QAEXXZ$0
__ehfuncinfo$?SendFallSnow@CDPCoreClient@@QAEXXZ DD 019930522H
	DD	01H
	DD	FLAT:__unwindtable$?SendFallSnow@CDPCoreClient@@QAEXXZ
	DD	2 DUP(00H)
	DD	2 DUP(00H)
	DD	00H
	DD	01H
xdata$x	ENDS
;	COMDAT xdata$x
xdata$x	SEGMENT
__unwindtable$?SendSetMonsterRespawn@CDPCoreClient@@QAEXKKKKKKH@Z DD 0ffffffffH
	DD	FLAT:__unwindfunclet$?SendSetMonsterRespawn@CDPCoreClient@@QAEXKKKKKKH@Z$0
__ehfuncinfo$?SendSetMonsterRespawn@CDPCoreClient@@QAEXKKKKKKH@Z DD 019930522H
	DD	01H
	DD	FLAT:__unwindtable$?SendSetMonsterRespawn@CDPCoreClient@@QAEXKKKKKKH@Z
	DD	2 DUP(00H)
	DD	2 DUP(00H)
	DD	00H
	DD	01H
xdata$x	ENDS
;	COMDAT xdata$x
xdata$x	SEGMENT
__unwindtable$?SendLoadConstant@CDPCoreClient@@QAEXXZ DD 0ffffffffH
	DD	FLAT:__unwindfunclet$?SendLoadConstant@CDPCoreClient@@QAEXXZ$0
__ehfuncinfo$?SendLoadConstant@CDPCoreClient@@QAEXXZ DD 019930522H
	DD	01H
	DD	FLAT:__unwindtable$?SendLoadConstant@CDPCoreClient@@QAEXXZ
	DD	2 DUP(00H)
	DD	2 DUP(00H)
	DD	00H
	DD	01H
xdata$x	ENDS
;	COMDAT xdata$x
xdata$x	SEGMENT
__unwindtable$?SendGameRate@CDPCoreClient@@QAEXME@Z DD 0ffffffffH
	DD	FLAT:__unwindfunclet$?SendGameRate@CDPCoreClient@@QAEXME@Z$0
__ehfuncinfo$?SendGameRate@CDPCoreClient@@QAEXME@Z DD 019930522H
	DD	01H
	DD	FLAT:__unwindtable$?SendGameRate@CDPCoreClient@@QAEXME@Z
	DD	2 DUP(00H)
	DD	2 DUP(00H)
	DD	00H
	DD	01H
xdata$x	ENDS
;	COMDAT xdata$x
xdata$x	SEGMENT
__unwindtable$?SendRemovePartyPoint@CDPCoreClient@@QAEXKH@Z DD 0ffffffffH
	DD	FLAT:__unwindfunclet$?SendRemovePartyPoint@CDPCoreClient@@QAEXKH@Z$0
__ehfuncinfo$?SendRemovePartyPoint@CDPCoreClient@@QAEXKH@Z DD 019930522H
	DD	01H
	DD	FLAT:__unwindtable$?SendRemovePartyPoint@CDPCoreClient@@QAEXKH@Z
	DD	2 DUP(00H)
	DD	2 DUP(00H)
	DD	00H
	DD	01H
xdata$x	ENDS
;	COMDAT xdata$x
xdata$x	SEGMENT
__unwindtable$?SendAddPartyExp@CDPCoreClient@@QAEXKHHH@Z DD 0ffffffffH
	DD	FLAT:__unwindfunclet$?SendAddPartyExp@CDPCoreClient@@QAEXKHHH@Z$0
__ehfuncinfo$?SendAddPartyExp@CDPCoreClient@@QAEXKHHH@Z DD 019930522H
	DD	01H
	DD	FLAT:__unwindtable$?SendAddPartyExp@CDPCoreClient@@QAEXKHHH@Z
	DD	2 DUP(00H)
	DD	2 DUP(00H)
	DD	00H
	DD	01H
xdata$x	ENDS
;	COMDAT xdata$x
xdata$x	SEGMENT
__unwindtable$?SendPartyLevel@CDPCoreClient@@QAEXPAVCUser@@KKK@Z DD 0ffffffffH
	DD	FLAT:__unwindfunclet$?SendPartyLevel@CDPCoreClient@@QAEXPAVCUser@@KKK@Z$0
__ehfuncinfo$?SendPartyLevel@CDPCoreClient@@QAEXPAVCUser@@KKK@Z DD 019930522H
	DD	01H
	DD	FLAT:__unwindtable$?SendPartyLevel@CDPCoreClient@@QAEXPAVCUser@@KKK@Z
	DD	2 DUP(00H)
	DD	2 DUP(00H)
	DD	00H
	DD	01H
xdata$x	ENDS
;	COMDAT xdata$x
xdata$x	SEGMENT
__unwindtable$?SendEventRealItem@CDPCoreClient@@QAEXKHH@Z DD 0ffffffffH
	DD	FLAT:__unwindfunclet$?SendEventRealItem@CDPCoreClient@@QAEXKHH@Z$0
__ehfuncinfo$?SendEventRealItem@CDPCoreClient@@QAEXKHH@Z DD 019930522H
	DD	01H
	DD	FLAT:__unwindtable$?SendEventRealItem@CDPCoreClient@@QAEXKHH@Z
	DD	2 DUP(00H)
	DD	2 DUP(00H)
	DD	00H
	DD	01H
xdata$x	ENDS
;	COMDAT xdata$x
xdata$x	SEGMENT
__unwindtable$?SendCaption@CDPCoreClient@@QAEXPBDKH@Z DD 0ffffffffH
	DD	FLAT:__unwindfunclet$?SendCaption@CDPCoreClient@@QAEXPBDKH@Z$0
__ehfuncinfo$?SendCaption@CDPCoreClient@@QAEXPBDKH@Z DD 019930522H
	DD	01H
	DD	FLAT:__unwindtable$?SendCaption@CDPCoreClient@@QAEXPBDKH@Z
	DD	2 DUP(00H)
	DD	2 DUP(00H)
	DD	00H
	DD	01H
xdata$x	ENDS
;	COMDAT xdata$x
xdata$x	SEGMENT
__unwindtable$?SendToServer@CDPCoreClient@@QAEXPAEKKK@Z DD 0ffffffffH
	DD	FLAT:__unwindfunclet$?SendToServer@CDPCoreClient@@QAEXPAEKKK@Z$0
__ehfuncinfo$?SendToServer@CDPCoreClient@@QAEXPAEKKK@Z DD 019930522H
	DD	01H
	DD	FLAT:__unwindtable$?SendToServer@CDPCoreClient@@QAEXPAEKKK@Z
	DD	2 DUP(00H)
	DD	2 DUP(00H)
	DD	00H
	DD	01H
xdata$x	ENDS
;	COMDAT xdata$x
xdata$x	SEGMENT
__unwindtable$?SendSystem@CDPCoreClient@@QAEXPBD@Z DD 0ffffffffH
	DD	FLAT:__unwindfunclet$?SendSystem@CDPCoreClient@@QAEXPBD@Z$0
__ehfuncinfo$?SendSystem@CDPCoreClient@@QAEXPBD@Z DD 019930522H
	DD	01H
	DD	FLAT:__unwindtable$?SendSystem@CDPCoreClient@@QAEXPBD@Z
	DD	2 DUP(00H)
	DD	2 DUP(00H)
	DD	00H
	DD	01H
xdata$x	ENDS
;	COMDAT xdata$x
xdata$x	SEGMENT
__unwindtable$?SendGetCorePlayer@CDPCoreClient@@QAEXK@Z DD 0ffffffffH
	DD	FLAT:__unwindfunclet$?SendGetCorePlayer@CDPCoreClient@@QAEXK@Z$0
__ehfuncinfo$?SendGetCorePlayer@CDPCoreClient@@QAEXK@Z DD 019930522H
	DD	01H
	DD	FLAT:__unwindtable$?SendGetCorePlayer@CDPCoreClient@@QAEXK@Z
	DD	2 DUP(00H)
	DD	2 DUP(00H)
	DD	00H
	DD	01H
xdata$x	ENDS
;	COMDAT xdata$x
xdata$x	SEGMENT
__unwindtable$?SendGetPlayerCount@CDPCoreClient@@QAEXK@Z DD 0ffffffffH
	DD	FLAT:__unwindfunclet$?SendGetPlayerCount@CDPCoreClient@@QAEXK@Z$0
__ehfuncinfo$?SendGetPlayerCount@CDPCoreClient@@QAEXK@Z DD 019930522H
	DD	01H
	DD	FLAT:__unwindtable$?SendGetPlayerCount@CDPCoreClient@@QAEXK@Z
	DD	2 DUP(00H)
	DD	2 DUP(00H)
	DD	00H
	DD	01H
xdata$x	ENDS
;	COMDAT xdata$x
xdata$x	SEGMENT
__unwindtable$?SendGetPlayerAddr@CDPCoreClient@@QAEXKK@Z DD 0ffffffffH
	DD	FLAT:__unwindfunclet$?SendGetPlayerAddr@CDPCoreClient@@QAEXKK@Z$0
__ehfuncinfo$?SendGetPlayerAddr@CDPCoreClient@@QAEXKK@Z DD 019930522H
	DD	01H
	DD	FLAT:__unwindtable$?SendGetPlayerAddr@CDPCoreClient@@QAEXKK@Z
	DD	2 DUP(00H)
	DD	2 DUP(00H)
	DD	00H
	DD	01H
xdata$x	ENDS
;	COMDAT xdata$x
xdata$x	SEGMENT
__unwindtable$?SendKillPlayer@CDPCoreClient@@QAEXKK@Z DD 0ffffffffH
	DD	FLAT:__unwindfunclet$?SendKillPlayer@CDPCoreClient@@QAEXKK@Z$0
__ehfuncinfo$?SendKillPlayer@CDPCoreClient@@QAEXKK@Z DD 019930522H
	DD	01H
	DD	FLAT:__unwindtable$?SendKillPlayer@CDPCoreClient@@QAEXKK@Z
	DD	2 DUP(00H)
	DD	2 DUP(00H)
	DD	00H
	DD	01H
xdata$x	ENDS
;	COMDAT xdata$x
xdata$x	SEGMENT
__unwindtable$?SendTeleportPlayer@CDPCoreClient@@QAEXKK@Z DD 0ffffffffH
	DD	FLAT:__unwindfunclet$?SendTeleportPlayer@CDPCoreClient@@QAEXKK@Z$0
__ehfuncinfo$?SendTeleportPlayer@CDPCoreClient@@QAEXKK@Z DD 019930522H
	DD	01H
	DD	FLAT:__unwindtable$?SendTeleportPlayer@CDPCoreClient@@QAEXKK@Z
	DD	2 DUP(00H)
	DD	2 DUP(00H)
	DD	00H
	DD	01H
xdata$x	ENDS
;	COMDAT xdata$x
xdata$x	SEGMENT
__unwindtable$?SendSummonPlayer@CDPCoreClient@@QAEXKKABUD3DXVECTOR3@@KH@Z DD 0ffffffffH
	DD	FLAT:__unwindfunclet$?SendSummonPlayer@CDPCoreClient@@QAEXKKABUD3DXVECTOR3@@KH@Z$0
__ehfuncinfo$?SendSummonPlayer@CDPCoreClient@@QAEXKKABUD3DXVECTOR3@@KH@Z DD 019930522H
	DD	01H
	DD	FLAT:__unwindtable$?SendSummonPlayer@CDPCoreClient@@QAEXKKABUD3DXVECTOR3@@KH@Z
	DD	2 DUP(00H)
	DD	2 DUP(00H)
	DD	00H
	DD	01H
xdata$x	ENDS
;	COMDAT xdata$x
xdata$x	SEGMENT
__unwindtable$?SendPlaySound@CDPCoreClient@@QAEXKK@Z DD 0ffffffffH
	DD	FLAT:__unwindfunclet$?SendPlaySound@CDPCoreClient@@QAEXKK@Z$0
__ehfuncinfo$?SendPlaySound@CDPCoreClient@@QAEXKK@Z DD 019930522H
	DD	01H
	DD	FLAT:__unwindtable$?SendPlaySound@CDPCoreClient@@QAEXKK@Z
	DD	2 DUP(00H)
	DD	2 DUP(00H)
	DD	00H
	DD	01H
xdata$x	ENDS
;	COMDAT xdata$x
xdata$x	SEGMENT
__unwindtable$?SendPlayMusic@CDPCoreClient@@QAEXKK@Z DD 0ffffffffH
	DD	FLAT:__unwindfunclet$?SendPlayMusic@CDPCoreClient@@QAEXKK@Z$0
__ehfuncinfo$?SendPlayMusic@CDPCoreClient@@QAEXKK@Z DD 019930522H
	DD	01H
	DD	FLAT:__unwindtable$?SendPlayMusic@CDPCoreClient@@QAEXKK@Z
	DD	2 DUP(00H)
	DD	2 DUP(00H)
	DD	00H
	DD	01H
xdata$x	ENDS
;	COMDAT xdata$x
xdata$x	SEGMENT
__unwindtable$?SendGMSay@CDPCoreClient@@QAEXKKPBD@Z DD 0ffffffffH
	DD	FLAT:__unwindfunclet$?SendGMSay@CDPCoreClient@@QAEXKKPBD@Z$0
__ehfuncinfo$?SendGMSay@CDPCoreClient@@QAEXKKPBD@Z DD 019930522H
	DD	01H
	DD	FLAT:__unwindtable$?SendGMSay@CDPCoreClient@@QAEXKKPBD@Z
	DD	2 DUP(00H)
	DD	2 DUP(00H)
	DD	00H
	DD	01H
xdata$x	ENDS
;	COMDAT xdata$x
xdata$x	SEGMENT
__unwindtable$?SendUserPartySkill@CDPCoreClient@@QAEXKHKHH@Z DD 0ffffffffH
	DD	FLAT:__unwindfunclet$?SendUserPartySkill@CDPCoreClient@@QAEXKHKHH@Z$0
__ehfuncinfo$?SendUserPartySkill@CDPCoreClient@@QAEXKHKHH@Z DD 019930522H
	DD	01H
	DD	FLAT:__unwindtable$?SendUserPartySkill@CDPCoreClient@@QAEXKHKHH@Z
	DD	2 DUP(00H)
	DD	2 DUP(00H)
	DD	00H
	DD	01H
xdata$x	ENDS
;	COMDAT xdata$x
xdata$x	SEGMENT
__unwindtable$?SendPartyChat@CDPCoreClient@@QAEXPAVCUser@@PBD@Z DD 0ffffffffH
	DD	FLAT:__unwindfunclet$?SendPartyChat@CDPCoreClient@@QAEXPAVCUser@@PBD@Z$0
__ehfuncinfo$?SendPartyChat@CDPCoreClient@@QAEXPAVCUser@@PBD@Z DD 019930522H
	DD	01H
	DD	FLAT:__unwindtable$?SendPartyChat@CDPCoreClient@@QAEXPAVCUser@@PBD@Z
	DD	2 DUP(00H)
	DD	2 DUP(00H)
	DD	00H
	DD	01H
xdata$x	ENDS
;	COMDAT xdata$x
xdata$x	SEGMENT
__unwindtable$?SendShout@CDPCoreClient@@QAEXPAVCUser@@PBD@Z DD 0ffffffffH
	DD	FLAT:__unwindfunclet$?SendShout@CDPCoreClient@@QAEXPAVCUser@@PBD@Z$0
__ehfuncinfo$?SendShout@CDPCoreClient@@QAEXPAVCUser@@PBD@Z DD 019930522H
	DD	01H
	DD	FLAT:__unwindtable$?SendShout@CDPCoreClient@@QAEXPAVCUser@@PBD@Z
	DD	2 DUP(00H)
	DD	2 DUP(00H)
	DD	00H
	DD	01H
xdata$x	ENDS
;	COMDAT xdata$x
xdata$x	SEGMENT
__unwindtable$?SendModifyMode@CDPCoreClient@@QAEXKEKK@Z DD 0ffffffffH
	DD	FLAT:__unwindfunclet$?SendModifyMode@CDPCoreClient@@QAEXKEKK@Z$0
__ehfuncinfo$?SendModifyMode@CDPCoreClient@@QAEXKEKK@Z DD 019930522H
	DD	01H
	DD	FLAT:__unwindtable$?SendModifyMode@CDPCoreClient@@QAEXKEKK@Z
	DD	2 DUP(00H)
	DD	2 DUP(00H)
	DD	00H
	DD	01H
xdata$x	ENDS
;	COMDAT xdata$x
xdata$x	SEGMENT
__unwindtable$?SendSay@CDPCoreClient@@QAEXKKPBD@Z DD 0ffffffffH
	DD	FLAT:__unwindfunclet$?SendSay@CDPCoreClient@@QAEXKKPBD@Z$0
__ehfuncinfo$?SendSay@CDPCoreClient@@QAEXKKPBD@Z DD 019930522H
	DD	01H
	DD	FLAT:__unwindtable$?SendSay@CDPCoreClient@@QAEXKKPBD@Z
	DD	2 DUP(00H)
	DD	2 DUP(00H)
	DD	00H
	DD	01H
xdata$x	ENDS
;	COMDAT xdata$x
xdata$x	SEGMENT
__unwindtable$?SendWhisper@CDPCoreClient@@QAEXKKPBD@Z DD 0ffffffffH
	DD	FLAT:__unwindfunclet$?SendWhisper@CDPCoreClient@@QAEXKKPBD@Z$0
__ehfuncinfo$?SendWhisper@CDPCoreClient@@QAEXKKPBD@Z DD 019930522H
	DD	01H
	DD	FLAT:__unwindtable$?SendWhisper@CDPCoreClient@@QAEXKKPBD@Z
	DD	2 DUP(00H)
	DD	2 DUP(00H)
	DD	00H
	DD	01H
xdata$x	ENDS
;	COMDAT xdata$x
xdata$x	SEGMENT
__unwindtable$?SendJoin@CDPCoreClient@@QAEXKPBDH@Z DD 0ffffffffH
	DD	FLAT:__unwindfunclet$?SendJoin@CDPCoreClient@@QAEXKPBDH@Z$0
__ehfuncinfo$?SendJoin@CDPCoreClient@@QAEXKPBDH@Z DD 019930522H
	DD	01H
	DD	FLAT:__unwindtable$?SendJoin@CDPCoreClient@@QAEXKPBDH@Z
	DD	2 DUP(00H)
	DD	2 DUP(00H)
	DD	00H
	DD	01H
xdata$x	ENDS
;	COMDAT xdata$x
xdata$x	SEGMENT
__ehfuncinfo$?UserMessageHandler@CDPCoreClient@@UAEXPAUDPMSG_GENERIC@@KK@Z DD 019930522H
	DD	06H
	DD	FLAT:__unwindtable$?UserMessageHandler@CDPCoreClient@@UAEXPAUDPMSG_GENERIC@@KK@Z
	DD	2 DUP(00H)
	DD	2 DUP(00H)
	DD	00H
	DD	01H
__unwindtable$?UserMessageHandler@CDPCoreClient@@UAEXPAUDPMSG_GENERIC@@KK@Z DD 0ffffffffH
	DD	FLAT:__unwindfunclet$?UserMessageHandler@CDPCoreClient@@UAEXPAUDPMSG_GENERIC@@KK@Z$0
	DD	00H
	DD	FLAT:__unwindfunclet$?UserMessageHandler@CDPCoreClient@@UAEXPAUDPMSG_GENERIC@@KK@Z$1
	DD	00H
	DD	FLAT:__unwindfunclet$?UserMessageHandler@CDPCoreClient@@UAEXPAUDPMSG_GENERIC@@KK@Z$2
	DD	02H
	DD	FLAT:__unwindfunclet$?UserMessageHandler@CDPCoreClient@@UAEXPAUDPMSG_GENERIC@@KK@Z$3
	DD	03H
	DD	FLAT:__unwindfunclet$?UserMessageHandler@CDPCoreClient@@UAEXPAUDPMSG_GENERIC@@KK@Z$8
	DD	03H
	DD	FLAT:__unwindfunclet$?UserMessageHandler@CDPCoreClient@@UAEXPAUDPMSG_GENERIC@@KK@Z$7
xdata$x	ENDS
;	COMDAT xdata$x
xdata$x	SEGMENT
__ehfuncinfo$??0CDPCoreClient@@QAE@XZ DD 019930522H
	DD	0bH
	DD	FLAT:__unwindtable$??0CDPCoreClient@@QAE@XZ
	DD	2 DUP(00H)
	DD	2 DUP(00H)
	DD	00H
	DD	01H
__unwindtable$??0CDPCoreClient@@QAE@XZ DD 0ffffffffH
	DD	FLAT:__unwindfunclet$??0CDPCoreClient@@QAE@XZ$0
	DD	00H
	DD	FLAT:__unwindfunclet$??0CDPCoreClient@@QAE@XZ$1
	DD	01H
	DD	FLAT:__unwindfunclet$??0CDPCoreClient@@QAE@XZ$5
	DD	01H
	DD	FLAT:__unwindfunclet$??0CDPCoreClient@@QAE@XZ$10
	DD	01H
	DD	FLAT:__unwindfunclet$??0CDPCoreClient@@QAE@XZ$15
	DD	01H
	DD	FLAT:__unwindfunclet$??0CDPCoreClient@@QAE@XZ$20
	DD	01H
	DD	FLAT:__unwindfunclet$??0CDPCoreClient@@QAE@XZ$25
	DD	01H
	DD	FLAT:__unwindfunclet$??0CDPCoreClient@@QAE@XZ$30
	DD	01H
	DD	FLAT:__unwindfunclet$??0CDPCoreClient@@QAE@XZ$35
	DD	01H
	DD	FLAT:__unwindfunclet$??0CDPCoreClient@@QAE@XZ$40
	DD	01H
	DD	FLAT:__unwindfunclet$??0CDPCoreClient@@QAE@XZ$45
xdata$x	ENDS
;	COMDAT xdata$x
xdata$x	SEGMENT
__unwindtable$?Contribute@CDPCoreClient@@AAEHPAVCUser@@KK@Z DD 0ffffffffH
	DD	FLAT:__unwindfunclet$?Contribute@CDPCoreClient@@AAEHPAVCUser@@KK@Z$0
__ehfuncinfo$?Contribute@CDPCoreClient@@AAEHPAVCUser@@KK@Z DD 019930522H
	DD	01H
	DD	FLAT:__unwindtable$?Contribute@CDPCoreClient@@AAEHPAVCUser@@KK@Z
	DD	2 DUP(00H)
	DD	2 DUP(00H)
	DD	00H
	DD	01H
xdata$x	ENDS
;	COMDAT xdata$x
xdata$x	SEGMENT
__unwindtable$?Recharge@CDPCoreClient@@AAEXK@Z DD 0ffffffffH
	DD	FLAT:__unwindfunclet$?Recharge@CDPCoreClient@@AAEXK@Z$0
__ehfuncinfo$?Recharge@CDPCoreClient@@AAEXK@Z DD 019930522H
	DD	01H
	DD	FLAT:__unwindtable$?Recharge@CDPCoreClient@@AAEXK@Z
	DD	2 DUP(00H)
	DD	2 DUP(00H)
	DD	00H
	DD	01H
xdata$x	ENDS
;	COMDAT xdata$x
xdata$x	SEGMENT
__unwindtable$?MyRegister@CDPCoreClient@@AAEXK@Z DD 0ffffffffH
	DD	FLAT:__unwindfunclet$?MyRegister@CDPCoreClient@@AAEXK@Z$0
__ehfuncinfo$?MyRegister@CDPCoreClient@@AAEXK@Z DD 019930522H
	DD	01H
	DD	FLAT:__unwindtable$?MyRegister@CDPCoreClient@@AAEXK@Z
	DD	2 DUP(00H)
	DD	2 DUP(00H)
	DD	00H
	DD	01H
xdata$x	ENDS
;	COMDAT xdata$x
xdata$x	SEGMENT
__unwindtable$?PushIdBlock@CIdStack@@QAEXKK@Z DD 0ffffffffH
	DD	FLAT:__unwindfunclet$?PushIdBlock@CIdStack@@QAEXKK@Z$0
__ehfuncinfo$?PushIdBlock@CIdStack@@QAEXKK@Z DD 019930522H
	DD	01H
	DD	FLAT:__unwindtable$?PushIdBlock@CIdStack@@QAEXKK@Z
	DD	2 DUP(00H)
	DD	2 DUP(00H)
	DD	00H
	DD	01H
xdata$x	ENDS
;	COMDAT xdata$x
xdata$x	SEGMENT
__unwindtable$?FormatV@?$CStringT@DV?$StrTraitMFC@DV?$ChTraitsCRT@D@ATL@@@@@ATL@@QAEXPBDPAD@Z DD 0ffffffffH
	DD	FLAT:__unwindfunclet$?FormatV@?$CStringT@DV?$StrTraitMFC@DV?$ChTraitsCRT@D@ATL@@@@@ATL@@QAEXPBDPAD@Z$1
	DD	0ffffffffH
	DD	FLAT:__unwindfunclet$?FormatV@?$CStringT@DV?$StrTraitMFC@DV?$ChTraitsCRT@D@ATL@@@@@ATL@@QAEXPBDPAD@Z$0
__ehfuncinfo$?FormatV@?$CStringT@DV?$StrTraitMFC@DV?$ChTraitsCRT@D@ATL@@@@@ATL@@QAEXPBDPAD@Z DD 019930522H
	DD	02H
	DD	FLAT:__unwindtable$?FormatV@?$CStringT@DV?$StrTraitMFC@DV?$ChTraitsCRT@D@ATL@@@@@ATL@@QAEXPBDPAD@Z
	DD	2 DUP(00H)
	DD	2 DUP(00H)
	DD	00H
	DD	01H
xdata$x	ENDS
;	COMDAT xdata$x
xdata$x	SEGMENT
__unwindtable$??0?$CStringT@DV?$StrTraitMFC@DV?$ChTraitsCRT@D@ATL@@@@@ATL@@QAE@PBDPAUIAtlStringMgr@1@@Z DD 0ffffffffH
	DD	FLAT:__unwindfunclet$??0?$CStringT@DV?$StrTraitMFC@DV?$ChTraitsCRT@D@ATL@@@@@ATL@@QAE@PBDPAUIAtlStringMgr@1@@Z$0
__ehfuncinfo$??0?$CStringT@DV?$StrTraitMFC@DV?$ChTraitsCRT@D@ATL@@@@@ATL@@QAE@PBDPAUIAtlStringMgr@1@@Z DD 019930522H
	DD	01H
	DD	FLAT:__unwindtable$??0?$CStringT@DV?$StrTraitMFC@DV?$ChTraitsCRT@D@ATL@@@@@ATL@@QAE@PBDPAUIAtlStringMgr@1@@Z
	DD	2 DUP(00H)
	DD	2 DUP(00H)
	DD	00H
	DD	01H
xdata$x	ENDS
; Function compile flags: /Ogtp
; File C:\Program Files\Microsoft Visual Studio\2022\Professional\VC\Tools\MSVC\14.44.35207\include\xtree
; File C:\Program Files\Microsoft Visual Studio\2022\Professional\VC\Tools\MSVC\14.44.35207\include\utility
; File C:\Program Files\Microsoft Visual Studio\2022\Professional\VC\Tools\MSVC\14.44.35207\include\xmemory
; File C:\Program Files\Microsoft Visual Studio\2022\Professional\VC\Tools\MSVC\14.44.35207\include\xtree
;	COMDAT ??$_Erase_tree@V?$allocator@U?$_Tree_node@U?$pair@$$CBKU_Friend@@@std@@PAX@std@@@std@@@?$_Tree_val@U?$_Tree_simple_types@U?$pair@$$CBKU_Friend@@@std@@@std@@@std@@QAEXAAV?$allocator@U?$_Tree_node@U?$pair@$$CBKU_Friend@@@std@@PAX@std@@@1@PAU?$_Tree_node@U?$pair@$$CBKU_Friend@@@std@@PAX@1@@Z
_TEXT	SEGMENT
__Al$ = 8						; size = 4
__Rootnode$ = 12					; size = 4
??$_Erase_tree@V?$allocator@U?$_Tree_node@U?$pair@$$CBKU_Friend@@@std@@PAX@std@@@std@@@?$_Tree_val@U?$_Tree_simple_types@U?$pair@$$CBKU_Friend@@@std@@@std@@@std@@QAEXAAV?$allocator@U?$_Tree_node@U?$pair@$$CBKU_Friend@@@std@@PAX@std@@@1@PAU?$_Tree_node@U?$pair@$$CBKU_Friend@@@std@@PAX@1@@Z PROC ; std::_Tree_val<std::_Tree_simple_types<std::pair<unsigned long const ,_Friend> > >::_Erase_tree<std::allocator<std::_Tree_node<std::pair<unsigned long const ,_Friend>,void *> > >, COMDAT
; _this$ = ecx

; 767  :     void _Erase_tree(_Alnode& _Al, _Nodeptr _Rootnode) noexcept {

  00000	55		 push	 ebp
  00001	8b ec		 mov	 ebp, esp
  00003	53		 push	 ebx
  00004	56		 push	 esi

; 768  :         while (!_Rootnode->_Isnil) { // free subtrees, then node

  00005	8b 75 0c	 mov	 esi, DWORD PTR __Rootnode$[ebp]
  00008	8b d9		 mov	 ebx, ecx
  0000a	80 7e 0d 00	 cmp	 BYTE PTR [esi+13], 0
  0000e	75 25		 jne	 SHORT $LN34@Erase_tree
  00010	57		 push	 edi
  00011	8b 7d 08	 mov	 edi, DWORD PTR __Al$[ebp]
$LL2@Erase_tree:

; 769  :             _Erase_tree(_Al, _Rootnode->_Right);

  00014	ff 76 08	 push	 DWORD PTR [esi+8]
  00017	8b cb		 mov	 ecx, ebx
  00019	57		 push	 edi
  0001a	e8 00 00 00 00	 call	 ??$_Erase_tree@V?$allocator@U?$_Tree_node@U?$pair@$$CBKU_Friend@@@std@@PAX@std@@@std@@@?$_Tree_val@U?$_Tree_simple_types@U?$pair@$$CBKU_Friend@@@std@@@std@@@std@@QAEXAAV?$allocator@U?$_Tree_node@U?$pair@$$CBKU_Friend@@@std@@PAX@std@@@1@PAU?$_Tree_node@U?$pair@$$CBKU_Friend@@@std@@PAX@1@@Z ; std::_Tree_val<std::_Tree_simple_types<std::pair<unsigned long const ,_Friend> > >::_Erase_tree<std::allocator<std::_Tree_node<std::pair<unsigned long const ,_Friend>,void *> > >
; File C:\Program Files\Microsoft Visual Studio\2022\Professional\VC\Tools\MSVC\14.44.35207\include\utility

; 773  :     _Ty _Old_val = static_cast<_Ty&&>(_Val);

  0001f	8b c6		 mov	 eax, esi

; 774  :     _Val         = static_cast<_Other&&>(_New_val);

  00021	8b 36		 mov	 esi, DWORD PTR [esi]
; File C:\Program Files\Microsoft Visual Studio\2022\Professional\VC\Tools\MSVC\14.44.35207\include\xmemory

; 289  :         ::operator delete(_Ptr, _Bytes);

  00023	6a 1c		 push	 28			; 0000001cH
  00025	50		 push	 eax
  00026	e8 00 00 00 00	 call	 ??3@YAXPAXI@Z		; operator delete
  0002b	83 c4 08	 add	 esp, 8
; File C:\Program Files\Microsoft Visual Studio\2022\Professional\VC\Tools\MSVC\14.44.35207\include\xtree

; 768  :         while (!_Rootnode->_Isnil) { // free subtrees, then node

  0002e	80 7e 0d 00	 cmp	 BYTE PTR [esi+13], 0
  00032	74 e0		 je	 SHORT $LL2@Erase_tree
  00034	5f		 pop	 edi
$LN34@Erase_tree:
  00035	5e		 pop	 esi

; 770  :             _Alnode::value_type::_Freenode(_Al, _STD exchange(_Rootnode, _Rootnode->_Left));
; 771  :         }
; 772  :     }

  00036	5b		 pop	 ebx
  00037	5d		 pop	 ebp
  00038	c2 08 00	 ret	 8
??$_Erase_tree@V?$allocator@U?$_Tree_node@U?$pair@$$CBKU_Friend@@@std@@PAX@std@@@std@@@?$_Tree_val@U?$_Tree_simple_types@U?$pair@$$CBKU_Friend@@@std@@@std@@@std@@QAEXAAV?$allocator@U?$_Tree_node@U?$pair@$$CBKU_Friend@@@std@@PAX@std@@@1@PAU?$_Tree_node@U?$pair@$$CBKU_Friend@@@std@@PAX@1@@Z ENDP ; std::_Tree_val<std::_Tree_simple_types<std::pair<unsigned long const ,_Friend> > >::_Erase_tree<std::allocator<std::_Tree_node<std::pair<unsigned long const ,_Friend>,void *> > >
_TEXT	ENDS
; Function compile flags: /Ogtp
; File C:\Program Files\Microsoft Visual Studio\2022\Professional\VC\Tools\MSVC\14.44.35207\include\xmemory
;	COMDAT ??1?$_Tree_temp_node_alloc@V?$allocator@U?$_Tree_node@U?$pair@$$CBKV?$CStringT@DV?$StrTraitMFC@DV?$ChTraitsCRT@D@ATL@@@@@ATL@@@std@@PAX@std@@@std@@@std@@QAE@XZ
_TEXT	SEGMENT
??1?$_Tree_temp_node_alloc@V?$allocator@U?$_Tree_node@U?$pair@$$CBKV?$CStringT@DV?$StrTraitMFC@DV?$ChTraitsCRT@D@ATL@@@@@ATL@@@std@@PAX@std@@@std@@@std@@QAE@XZ PROC ; std::_Tree_temp_node_alloc<std::allocator<std::_Tree_node<std::pair<unsigned long const ,ATL::CStringT<char,StrTraitMFC<char,ATL::ChTraitsCRT<char> > > >,void *> > >::~_Tree_temp_node_alloc<std::allocator<std::_Tree_node<std::pair<unsigned long const ,ATL::CStringT<char,StrTraitMFC<char,ATL::ChTraitsCRT<char> > > >,void *> > >, COMDAT
; _this$ = ecx

; 1172 :         if (_Ptr) {

  00000	8b 41 04	 mov	 eax, DWORD PTR [ecx+4]
  00003	85 c0		 test	 eax, eax
  00005	74 0b		 je	 SHORT $LN13@Tree_temp_

; 289  :         ::operator delete(_Ptr, _Bytes);

  00007	6a 18		 push	 24			; 00000018H
  00009	50		 push	 eax
  0000a	e8 00 00 00 00	 call	 ??3@YAXPAXI@Z		; operator delete
  0000f	83 c4 08	 add	 esp, 8
$LN13@Tree_temp_:
  00012	c3		 ret	 0
??1?$_Tree_temp_node_alloc@V?$allocator@U?$_Tree_node@U?$pair@$$CBKV?$CStringT@DV?$StrTraitMFC@DV?$ChTraitsCRT@D@ATL@@@@@ATL@@@std@@PAX@std@@@std@@@std@@QAE@XZ ENDP ; std::_Tree_temp_node_alloc<std::allocator<std::_Tree_node<std::pair<unsigned long const ,ATL::CStringT<char,StrTraitMFC<char,ATL::ChTraitsCRT<char> > > >,void *> > >::~_Tree_temp_node_alloc<std::allocator<std::_Tree_node<std::pair<unsigned long const ,ATL::CStringT<char,StrTraitMFC<char,ATL::ChTraitsCRT<char> > > >,void *> > >
_TEXT	ENDS
; Function compile flags: /Ogtp
; File C:\Program Files\Microsoft Visual Studio\2022\Professional\VC\Tools\MSVC\14.44.35207\include\xmemory
;	COMDAT ??1?$_Alloc_construct_ptr@V?$allocator@U?$_Tree_node@U?$pair@$$CBKV?$CStringT@DV?$StrTraitMFC@DV?$ChTraitsCRT@D@ATL@@@@@ATL@@@std@@PAX@std@@@std@@@std@@QAE@XZ
_TEXT	SEGMENT
??1?$_Alloc_construct_ptr@V?$allocator@U?$_Tree_node@U?$pair@$$CBKV?$CStringT@DV?$StrTraitMFC@DV?$ChTraitsCRT@D@ATL@@@@@ATL@@@std@@PAX@std@@@std@@@std@@QAE@XZ PROC ; std::_Alloc_construct_ptr<std::allocator<std::_Tree_node<std::pair<unsigned long const ,ATL::CStringT<char,StrTraitMFC<char,ATL::ChTraitsCRT<char> > > >,void *> > >::~_Alloc_construct_ptr<std::allocator<std::_Tree_node<std::pair<unsigned long const ,ATL::CStringT<char,StrTraitMFC<char,ATL::ChTraitsCRT<char> > > >,void *> > >, COMDAT
; _this$ = ecx

; 1172 :         if (_Ptr) {

  00000	8b 41 04	 mov	 eax, DWORD PTR [ecx+4]
  00003	85 c0		 test	 eax, eax
  00005	74 0b		 je	 SHORT $LN10@Alloc_cons

; 289  :         ::operator delete(_Ptr, _Bytes);

  00007	6a 18		 push	 24			; 00000018H
  00009	50		 push	 eax
  0000a	e8 00 00 00 00	 call	 ??3@YAXPAXI@Z		; operator delete
  0000f	83 c4 08	 add	 esp, 8
$LN10@Alloc_cons:

; 1173 :             _Al.deallocate(_Ptr, 1);
; 1174 :         }
; 1175 :     }

  00012	c3		 ret	 0
??1?$_Alloc_construct_ptr@V?$allocator@U?$_Tree_node@U?$pair@$$CBKV?$CStringT@DV?$StrTraitMFC@DV?$ChTraitsCRT@D@ATL@@@@@ATL@@@std@@PAX@std@@@std@@@std@@QAE@XZ ENDP ; std::_Alloc_construct_ptr<std::allocator<std::_Tree_node<std::pair<unsigned long const ,ATL::CStringT<char,StrTraitMFC<char,ATL::ChTraitsCRT<char> > > >,void *> > >::~_Alloc_construct_ptr<std::allocator<std::_Tree_node<std::pair<unsigned long const ,ATL::CStringT<char,StrTraitMFC<char,ATL::ChTraitsCRT<char> > > >,void *> > >
_TEXT	ENDS
; Function compile flags: /Ogtp
; File C:\Program Files\Microsoft Visual Studio\2022\Professional\VC\Tools\MSVC\14.44.35207\include\xtree
; File C:\Program Files\Microsoft Visual Studio\2022\Professional\VC\Tools\MSVC\14.44.35207\include\utility
; File C:\Program Files\Microsoft Visual Studio\2022\Professional\VC\Tools\MSVC\14.44.35207\include\xmemory
; File C:\Program Files\Microsoft Visual Studio\2022\Professional\VC\Tools\MSVC\14.44.35207\include\xtree
;	COMDAT ??$_Erase_tree@V?$allocator@U?$_Tree_node@U?$pair@$$CBKP8CDPCoreClient@@AEXAAVCAr@@KKK@Z@std@@PAX@std@@@std@@@?$_Tree_val@U?$_Tree_simple_types@U?$pair@$$CBKP8CDPCoreClient@@AEXAAVCAr@@KKK@Z@std@@@std@@@std@@QAEXAAV?$allocator@U?$_Tree_node@U?$pair@$$CBKP8CDPCoreClient@@AEXAAVCAr@@KKK@Z@std@@PAX@std@@@1@PAU?$_Tree_node@U?$pair@$$CBKP8CDPCoreClient@@AEXAAVCAr@@KKK@Z@std@@PAX@1@@Z
_TEXT	SEGMENT
__Al$ = 8						; size = 4
__Rootnode$ = 12					; size = 4
??$_Erase_tree@V?$allocator@U?$_Tree_node@U?$pair@$$CBKP8CDPCoreClient@@AEXAAVCAr@@KKK@Z@std@@PAX@std@@@std@@@?$_Tree_val@U?$_Tree_simple_types@U?$pair@$$CBKP8CDPCoreClient@@AEXAAVCAr@@KKK@Z@std@@@std@@@std@@QAEXAAV?$allocator@U?$_Tree_node@U?$pair@$$CBKP8CDPCoreClient@@AEXAAVCAr@@KKK@Z@std@@PAX@std@@@1@PAU?$_Tree_node@U?$pair@$$CBKP8CDPCoreClient@@AEXAAVCAr@@KKK@Z@std@@PAX@1@@Z PROC ; std::_Tree_val<std::_Tree_simple_types<std::pair<unsigned long const ,void (__thiscall CDPCoreClient::*)(CAr &,unsigned long,unsigned long,unsigned long)> > >::_Erase_tree<std::allocator<std::_Tree_node<std::pair<unsigned long const ,void (__thiscall CDPCoreClient::*)(CAr &,unsigned long,unsigned long,unsigned long)>,void *> > >, COMDAT
; _this$ = ecx

; 767  :     void _Erase_tree(_Alnode& _Al, _Nodeptr _Rootnode) noexcept {

  00000	55		 push	 ebp
  00001	8b ec		 mov	 ebp, esp
  00003	53		 push	 ebx
  00004	56		 push	 esi

; 768  :         while (!_Rootnode->_Isnil) { // free subtrees, then node

  00005	8b 75 0c	 mov	 esi, DWORD PTR __Rootnode$[ebp]
  00008	8b d9		 mov	 ebx, ecx
  0000a	80 7e 0d 00	 cmp	 BYTE PTR [esi+13], 0
  0000e	75 25		 jne	 SHORT $LN34@Erase_tree
  00010	57		 push	 edi
  00011	8b 7d 08	 mov	 edi, DWORD PTR __Al$[ebp]
$LL2@Erase_tree:

; 769  :             _Erase_tree(_Al, _Rootnode->_Right);

  00014	ff 76 08	 push	 DWORD PTR [esi+8]
  00017	8b cb		 mov	 ecx, ebx
  00019	57		 push	 edi
  0001a	e8 00 00 00 00	 call	 ??$_Erase_tree@V?$allocator@U?$_Tree_node@U?$pair@$$CBKP8CDPCoreClient@@AEXAAVCAr@@KKK@Z@std@@PAX@std@@@std@@@?$_Tree_val@U?$_Tree_simple_types@U?$pair@$$CBKP8CDPCoreClient@@AEXAAVCAr@@KKK@Z@std@@@std@@@std@@QAEXAAV?$allocator@U?$_Tree_node@U?$pair@$$CBKP8CDPCoreClient@@AEXAAVCAr@@KKK@Z@std@@PAX@std@@@1@PAU?$_Tree_node@U?$pair@$$CBKP8CDPCoreClient@@AEXAAVCAr@@KKK@Z@std@@PAX@1@@Z ; std::_Tree_val<std::_Tree_simple_types<std::pair<unsigned long const ,void (__thiscall CDPCoreClient::*)(CAr &,unsigned long,unsigned long,unsigned long)> > >::_Erase_tree<std::allocator<std::_Tree_node<std::pair<unsigned long const ,void (__thiscall CDPCoreClient::*)(CAr &,unsigned long,unsigned long,unsigned long)>,void *> > >
; File C:\Program Files\Microsoft Visual Studio\2022\Professional\VC\Tools\MSVC\14.44.35207\include\utility

; 773  :     _Ty _Old_val = static_cast<_Ty&&>(_Val);

  0001f	8b c6		 mov	 eax, esi

; 774  :     _Val         = static_cast<_Other&&>(_New_val);

  00021	8b 36		 mov	 esi, DWORD PTR [esi]
; File C:\Program Files\Microsoft Visual Studio\2022\Professional\VC\Tools\MSVC\14.44.35207\include\xmemory

; 289  :         ::operator delete(_Ptr, _Bytes);

  00023	6a 18		 push	 24			; 00000018H
  00025	50		 push	 eax
  00026	e8 00 00 00 00	 call	 ??3@YAXPAXI@Z		; operator delete
  0002b	83 c4 08	 add	 esp, 8
; File C:\Program Files\Microsoft Visual Studio\2022\Professional\VC\Tools\MSVC\14.44.35207\include\xtree

; 768  :         while (!_Rootnode->_Isnil) { // free subtrees, then node

  0002e	80 7e 0d 00	 cmp	 BYTE PTR [esi+13], 0
  00032	74 e0		 je	 SHORT $LL2@Erase_tree
  00034	5f		 pop	 edi
$LN34@Erase_tree:
  00035	5e		 pop	 esi

; 770  :             _Alnode::value_type::_Freenode(_Al, _STD exchange(_Rootnode, _Rootnode->_Left));
; 771  :         }
; 772  :     }

  00036	5b		 pop	 ebx
  00037	5d		 pop	 ebp
  00038	c2 08 00	 ret	 8
??$_Erase_tree@V?$allocator@U?$_Tree_node@U?$pair@$$CBKP8CDPCoreClient@@AEXAAVCAr@@KKK@Z@std@@PAX@std@@@std@@@?$_Tree_val@U?$_Tree_simple_types@U?$pair@$$CBKP8CDPCoreClient@@AEXAAVCAr@@KKK@Z@std@@@std@@@std@@QAEXAAV?$allocator@U?$_Tree_node@U?$pair@$$CBKP8CDPCoreClient@@AEXAAVCAr@@KKK@Z@std@@PAX@std@@@1@PAU?$_Tree_node@U?$pair@$$CBKP8CDPCoreClient@@AEXAAVCAr@@KKK@Z@std@@PAX@1@@Z ENDP ; std::_Tree_val<std::_Tree_simple_types<std::pair<unsigned long const ,void (__thiscall CDPCoreClient::*)(CAr &,unsigned long,unsigned long,unsigned long)> > >::_Erase_tree<std::allocator<std::_Tree_node<std::pair<unsigned long const ,void (__thiscall CDPCoreClient::*)(CAr &,unsigned long,unsigned long,unsigned long)>,void *> > >
_TEXT	ENDS
; Function compile flags: /Ogtp
; File C:\Program Files\Microsoft Visual Studio\2022\Professional\VC\Tools\MSVC\14.44.35207\include\xtree
; File C:\Program Files\Microsoft Visual Studio\2022\Professional\VC\Tools\MSVC\14.44.35207\include\utility
; File C:\Program Files\Microsoft Visual Studio\2022\Professional\VC\Tools\MSVC\14.44.35207\atlmfc\include\atlsimpstr.h
; File C:\Program Files\Microsoft Visual Studio\2022\Professional\VC\Tools\MSVC\14.44.35207\include\utility
; File C:\Program Files\Microsoft Visual Studio\2022\Professional\VC\Tools\MSVC\14.44.35207\atlmfc\include\atlsimpstr.h
; File C:\Program Files\Microsoft Visual Studio\2022\Professional\VC\Tools\MSVC\14.44.35207\include\xmemory
; File C:\Program Files\Microsoft Visual Studio\2022\Professional\VC\Tools\MSVC\14.44.35207\include\xtree
;	COMDAT ??$_Erase_tree@V?$allocator@U?$_Tree_node@U?$pair@$$CBKV?$CStringT@DV?$StrTraitMFC@DV?$ChTraitsCRT@D@ATL@@@@@ATL@@@std@@PAX@std@@@std@@@?$_Tree_val@U?$_Tree_simple_types@U?$pair@$$CBKV?$CStringT@DV?$StrTraitMFC@DV?$ChTraitsCRT@D@ATL@@@@@ATL@@@std@@@std@@@std@@QAEXAAV?$allocator@U?$_Tree_node@U?$pair@$$CBKV?$CStringT@DV?$StrTraitMFC@DV?$ChTraitsCRT@D@ATL@@@@@ATL@@@std@@PAX@std@@@1@PAU?$_Tree_node@U?$pair@$$CBKV?$CStringT@DV?$StrTraitMFC@DV?$ChTraitsCRT@D@ATL@@@@@ATL@@@std@@PAX@1@@Z
_TEXT	SEGMENT
__$EHRec$ = -12						; size = 12
__Al$ = 8						; size = 4
__Rootnode$ = 12					; size = 4
??$_Erase_tree@V?$allocator@U?$_Tree_node@U?$pair@$$CBKV?$CStringT@DV?$StrTraitMFC@DV?$ChTraitsCRT@D@ATL@@@@@ATL@@@std@@PAX@std@@@std@@@?$_Tree_val@U?$_Tree_simple_types@U?$pair@$$CBKV?$CStringT@DV?$StrTraitMFC@DV?$ChTraitsCRT@D@ATL@@@@@ATL@@@std@@@std@@@std@@QAEXAAV?$allocator@U?$_Tree_node@U?$pair@$$CBKV?$CStringT@DV?$StrTraitMFC@DV?$ChTraitsCRT@D@ATL@@@@@ATL@@@std@@PAX@std@@@1@PAU?$_Tree_node@U?$pair@$$CBKV?$CStringT@DV?$StrTraitMFC@DV?$ChTraitsCRT@D@ATL@@@@@ATL@@@std@@PAX@1@@Z PROC ; std::_Tree_val<std::_Tree_simple_types<std::pair<unsigned long const ,ATL::CStringT<char,StrTraitMFC<char,ATL::ChTraitsCRT<char> > > > > >::_Erase_tree<std::allocator<std::_Tree_node<std::pair<unsigned long const ,ATL::CStringT<char,StrTraitMFC<char,ATL::ChTraitsCRT<char> > > >,void *> > >, COMDAT
; _this$ = ecx

; 767  :     void _Erase_tree(_Alnode& _Al, _Nodeptr _Rootnode) noexcept {

  00000	55		 push	 ebp
  00001	8b ec		 mov	 ebp, esp
  00003	6a ff		 push	 -1
  00005	68 00 00 00 00	 push	 __ehhandler$??$_Erase_tree@V?$allocator@U?$_Tree_node@U?$pair@$$CBKV?$CStringT@DV?$StrTraitMFC@DV?$ChTraitsCRT@D@ATL@@@@@ATL@@@std@@PAX@std@@@std@@@?$_Tree_val@U?$_Tree_simple_types@U?$pair@$$CBKV?$CStringT@DV?$StrTraitMFC@DV?$ChTraitsCRT@D@ATL@@@@@ATL@@@std@@@std@@@std@@QAEXAAV?$allocator@U?$_Tree_node@U?$pair@$$CBKV?$CStringT@DV?$StrTraitMFC@DV?$ChTraitsCRT@D@ATL@@@@@ATL@@@std@@PAX@std@@@1@PAU?$_Tree_node@U?$pair@$$CBKV?$CStringT@DV?$StrTraitMFC@DV?$ChTraitsCRT@D@ATL@@@@@ATL@@@std@@PAX@1@@Z
  0000a	64 a1 00 00 00
	00		 mov	 eax, DWORD PTR fs:0
  00010	50		 push	 eax
  00011	53		 push	 ebx
  00012	56		 push	 esi
  00013	57		 push	 edi
  00014	a1 00 00 00 00	 mov	 eax, DWORD PTR ___security_cookie
  00019	33 c5		 xor	 eax, ebp
  0001b	50		 push	 eax
  0001c	8d 45 f4	 lea	 eax, DWORD PTR __$EHRec$[ebp]
  0001f	64 a3 00 00 00
	00		 mov	 DWORD PTR fs:0, eax
  00025	8b d9		 mov	 ebx, ecx

; 768  :         while (!_Rootnode->_Isnil) { // free subtrees, then node

  00027	8b 75 0c	 mov	 esi, DWORD PTR __Rootnode$[ebp]
  0002a	80 7e 0d 00	 cmp	 BYTE PTR [esi+13], 0
  0002e	75 3d		 jne	 SHORT $LN56@Erase_tree
$LL2@Erase_tree:

; 769  :             _Erase_tree(_Al, _Rootnode->_Right);

  00030	ff 76 08	 push	 DWORD PTR [esi+8]
  00033	8b cb		 mov	 ecx, ebx
  00035	ff 75 08	 push	 DWORD PTR __Al$[ebp]
  00038	e8 00 00 00 00	 call	 ??$_Erase_tree@V?$allocator@U?$_Tree_node@U?$pair@$$CBKV?$CStringT@DV?$StrTraitMFC@DV?$ChTraitsCRT@D@ATL@@@@@ATL@@@std@@PAX@std@@@std@@@?$_Tree_val@U?$_Tree_simple_types@U?$pair@$$CBKV?$CStringT@DV?$StrTraitMFC@DV?$ChTraitsCRT@D@ATL@@@@@ATL@@@std@@@std@@@std@@QAEXAAV?$allocator@U?$_Tree_node@U?$pair@$$CBKV?$CStringT@DV?$StrTraitMFC@DV?$ChTraitsCRT@D@ATL@@@@@ATL@@@std@@PAX@std@@@1@PAU?$_Tree_node@U?$pair@$$CBKV?$CStringT@DV?$StrTraitMFC@DV?$ChTraitsCRT@D@ATL@@@@@ATL@@@std@@PAX@1@@Z ; std::_Tree_val<std::_Tree_simple_types<std::pair<unsigned long const ,ATL::CStringT<char,StrTraitMFC<char,ATL::ChTraitsCRT<char> > > > > >::_Erase_tree<std::allocator<std::_Tree_node<std::pair<unsigned long const ,ATL::CStringT<char,StrTraitMFC<char,ATL::ChTraitsCRT<char> > > >,void *> > >
; File C:\Program Files\Microsoft Visual Studio\2022\Professional\VC\Tools\MSVC\14.44.35207\include\utility

; 773  :     _Ty _Old_val = static_cast<_Ty&&>(_Val);

  0003d	8b fe		 mov	 edi, esi
; File C:\Program Files\Microsoft Visual Studio\2022\Professional\VC\Tools\MSVC\14.44.35207\atlmfc\include\atlsimpstr.h

; 92   : 		if( _InterlockedDecrement( &nRefs ) <= 0 )

  0003f	83 c8 ff	 or	 eax, -1
; File C:\Program Files\Microsoft Visual Studio\2022\Professional\VC\Tools\MSVC\14.44.35207\include\utility

; 774  :     _Val         = static_cast<_Other&&>(_New_val);

  00042	8b 36		 mov	 esi, DWORD PTR [esi]
; File C:\Program Files\Microsoft Visual Studio\2022\Professional\VC\Tools\MSVC\14.44.35207\atlmfc\include\atlsimpstr.h

; 804  : 		return( reinterpret_cast< CStringData* >( m_pszData )-1 );

  00044	8b 57 14	 mov	 edx, DWORD PTR [edi+20]
  00047	83 ea 10	 sub	 edx, 16			; 00000010H

; 92   : 		if( _InterlockedDecrement( &nRefs ) <= 0 )

  0004a	f0 0f c1 42 0c	 lock	  xadd	 DWORD PTR [edx+12], eax
  0004f	48		 dec	 eax
  00050	85 c0		 test	 eax, eax
  00052	7f 08		 jg	 SHORT $LN32@Erase_tree

; 93   : 		{
; 94   : 			pStringMgr->Free( this );

  00054	8b 0a		 mov	 ecx, DWORD PTR [edx]
  00056	52		 push	 edx
  00057	8b 01		 mov	 eax, DWORD PTR [ecx]
  00059	ff 50 04	 call	 DWORD PTR [eax+4]
$LN32@Erase_tree:
; File C:\Program Files\Microsoft Visual Studio\2022\Professional\VC\Tools\MSVC\14.44.35207\include\xmemory

; 289  :         ::operator delete(_Ptr, _Bytes);

  0005c	6a 18		 push	 24			; 00000018H
  0005e	57		 push	 edi
  0005f	e8 00 00 00 00	 call	 ??3@YAXPAXI@Z		; operator delete
  00064	83 c4 08	 add	 esp, 8
; File C:\Program Files\Microsoft Visual Studio\2022\Professional\VC\Tools\MSVC\14.44.35207\include\xtree

; 768  :         while (!_Rootnode->_Isnil) { // free subtrees, then node

  00067	80 7e 0d 00	 cmp	 BYTE PTR [esi+13], 0
  0006b	74 c3		 je	 SHORT $LL2@Erase_tree
$LN56@Erase_tree:

; 770  :             _Alnode::value_type::_Freenode(_Al, _STD exchange(_Rootnode, _Rootnode->_Left));
; 771  :         }
; 772  :     }

  0006d	8b 4d f4	 mov	 ecx, DWORD PTR __$EHRec$[ebp]
  00070	64 89 0d 00 00
	00 00		 mov	 DWORD PTR fs:0, ecx
  00077	59		 pop	 ecx
  00078	5f		 pop	 edi
  00079	5e		 pop	 esi
  0007a	5b		 pop	 ebx
  0007b	8b e5		 mov	 esp, ebp
  0007d	5d		 pop	 ebp
  0007e	c2 08 00	 ret	 8
  00081	cc		 int	 3
  00082	cc		 int	 3
  00083	cc		 int	 3
  00084	cc		 int	 3
  00085	cc		 int	 3
_TEXT	ENDS
;	COMDAT text$x
text$x	SEGMENT
__ehhandler$??$_Erase_tree@V?$allocator@U?$_Tree_node@U?$pair@$$CBKV?$CStringT@DV?$StrTraitMFC@DV?$ChTraitsCRT@D@ATL@@@@@ATL@@@std@@PAX@std@@@std@@@?$_Tree_val@U?$_Tree_simple_types@U?$pair@$$CBKV?$CStringT@DV?$StrTraitMFC@DV?$ChTraitsCRT@D@ATL@@@@@ATL@@@std@@@std@@@std@@QAEXAAV?$allocator@U?$_Tree_node@U?$pair@$$CBKV?$CStringT@DV?$StrTraitMFC@DV?$ChTraitsCRT@D@ATL@@@@@ATL@@@std@@PAX@std@@@1@PAU?$_Tree_node@U?$pair@$$CBKV?$CStringT@DV?$StrTraitMFC@DV?$ChTraitsCRT@D@ATL@@@@@ATL@@@std@@PAX@1@@Z:
  00000	90		 npad	 1
  00001	90		 npad	 1
  00002	8b 54 24 08	 mov	 edx, DWORD PTR [esp+8]
  00006	8d 42 0c	 lea	 eax, DWORD PTR [edx+12]
  00009	8b 4a f0	 mov	 ecx, DWORD PTR [edx-16]
  0000c	33 c8		 xor	 ecx, eax
  0000e	e8 00 00 00 00	 call	 @__security_check_cookie@4
  00013	b8 00 00 00 00	 mov	 eax, OFFSET __ehfuncinfo$??$_Erase_tree@V?$allocator@U?$_Tree_node@U?$pair@$$CBKV?$CStringT@DV?$StrTraitMFC@DV?$ChTraitsCRT@D@ATL@@@@@ATL@@@std@@PAX@std@@@std@@@?$_Tree_val@U?$_Tree_simple_types@U?$pair@$$CBKV?$CStringT@DV?$StrTraitMFC@DV?$ChTraitsCRT@D@ATL@@@@@ATL@@@std@@@std@@@std@@QAEXAAV?$allocator@U?$_Tree_node@U?$pair@$$CBKV?$CStringT@DV?$StrTraitMFC@DV?$ChTraitsCRT@D@ATL@@@@@ATL@@@std@@PAX@std@@@1@PAU?$_Tree_node@U?$pair@$$CBKV?$CStringT@DV?$StrTraitMFC@DV?$ChTraitsCRT@D@ATL@@@@@ATL@@@std@@PAX@1@@Z
  00018	e9 00 00 00 00	 jmp	 ___CxxFrameHandler3
text$x	ENDS
??$_Erase_tree@V?$allocator@U?$_Tree_node@U?$pair@$$CBKV?$CStringT@DV?$StrTraitMFC@DV?$ChTraitsCRT@D@ATL@@@@@ATL@@@std@@PAX@std@@@std@@@?$_Tree_val@U?$_Tree_simple_types@U?$pair@$$CBKV?$CStringT@DV?$StrTraitMFC@DV?$ChTraitsCRT@D@ATL@@@@@ATL@@@std@@@std@@@std@@QAEXAAV?$allocator@U?$_Tree_node@U?$pair@$$CBKV?$CStringT@DV?$StrTraitMFC@DV?$ChTraitsCRT@D@ATL@@@@@ATL@@@std@@PAX@std@@@1@PAU?$_Tree_node@U?$pair@$$CBKV?$CStringT@DV?$StrTraitMFC@DV?$ChTraitsCRT@D@ATL@@@@@ATL@@@std@@PAX@1@@Z ENDP ; std::_Tree_val<std::_Tree_simple_types<std::pair<unsigned long const ,ATL::CStringT<char,StrTraitMFC<char,ATL::ChTraitsCRT<char> > > > > >::_Erase_tree<std::allocator<std::_Tree_node<std::pair<unsigned long const ,ATL::CStringT<char,StrTraitMFC<char,ATL::ChTraitsCRT<char> > > >,void *> > >
; Function compile flags: /Ogtp
; File C:\Program Files\Microsoft Visual Studio\2022\Professional\VC\Tools\MSVC\14.44.35207\include\xtree
; File C:\Program Files\Microsoft Visual Studio\2022\Professional\VC\Tools\MSVC\14.44.35207\include\type_traits
; File C:\Program Files\Microsoft Visual Studio\2022\Professional\VC\Tools\MSVC\14.44.35207\include\xtree
; File C:\Program Files\Microsoft Visual Studio\2022\Professional\VC\Tools\MSVC\14.44.35207\include\type_traits
; File C:\Program Files\Microsoft Visual Studio\2022\Professional\VC\Tools\MSVC\14.44.35207\include\xtree
;	COMDAT ??$_Find_lower_bound@K@?$_Tree@V?$_Tmap_traits@KV?$CStringT@DV?$StrTraitMFC@DV?$ChTraitsCRT@D@ATL@@@@@ATL@@U?$less@K@std@@V?$allocator@U?$pair@$$CBKV?$CStringT@DV?$StrTraitMFC@DV?$ChTraitsCRT@D@ATL@@@@@ATL@@@std@@@4@$0A@@std@@@std@@IBE?AU?$_Tree_find_result@PAU?$_Tree_node@U?$pair@$$CBKV?$CStringT@DV?$StrTraitMFC@DV?$ChTraitsCRT@D@ATL@@@@@ATL@@@std@@PAX@std@@@1@ABK@Z
_TEXT	SEGMENT
___$ReturnUdt$ = 8					; size = 4
__Keyval$ = 12						; size = 4
??$_Find_lower_bound@K@?$_Tree@V?$_Tmap_traits@KV?$CStringT@DV?$StrTraitMFC@DV?$ChTraitsCRT@D@ATL@@@@@ATL@@U?$less@K@std@@V?$allocator@U?$pair@$$CBKV?$CStringT@DV?$StrTraitMFC@DV?$ChTraitsCRT@D@ATL@@@@@ATL@@@std@@@4@$0A@@std@@@std@@IBE?AU?$_Tree_find_result@PAU?$_Tree_node@U?$pair@$$CBKV?$CStringT@DV?$StrTraitMFC@DV?$ChTraitsCRT@D@ATL@@@@@ATL@@@std@@PAX@std@@@1@ABK@Z PROC ; std::_Tree<std::_Tmap_traits<unsigned long,ATL::CStringT<char,StrTraitMFC<char,ATL::ChTraitsCRT<char> > >,std::less<unsigned long>,std::allocator<std::pair<unsigned long const ,ATL::CStringT<char,StrTraitMFC<char,ATL::ChTraitsCRT<char> > > > >,0> >::_Find_lower_bound<unsigned long>, COMDAT
; _this$ = ecx

; 1628 :     _Tree_find_result<_Nodeptr> _Find_lower_bound(const _Keyty& _Keyval) const {

  00000	55		 push	 ebp
  00001	8b ec		 mov	 ebp, esp

; 1629 :         const auto _Scary = _Get_scary();
; 1630 :         _Tree_find_result<_Nodeptr> _Result{{_Scary->_Myhead->_Parent, _Tree_child::_Right}, _Scary->_Myhead};

  00003	8b 09		 mov	 ecx, DWORD PTR [ecx]
  00005	8b 55 08	 mov	 edx, DWORD PTR ___$ReturnUdt$[ebp]
  00008	8b 41 04	 mov	 eax, DWORD PTR [ecx+4]
  0000b	89 02		 mov	 DWORD PTR [edx], eax
  0000d	c7 42 04 00 00
	00 00		 mov	 DWORD PTR [edx+4], 0
  00014	89 4a 08	 mov	 DWORD PTR [edx+8], ecx

; 1631 :         _Nodeptr _Trynode = _Result._Location._Parent;
; 1632 :         while (!_Trynode->_Isnil) {

  00017	80 78 0d 00	 cmp	 BYTE PTR [eax+13], 0
  0001b	75 28		 jne	 SHORT $LN13@Find_lower
; File C:\Program Files\Microsoft Visual Studio\2022\Professional\VC\Tools\MSVC\14.44.35207\include\type_traits

; 2380 :         return _Left < _Right;

  0001d	8b 4d 0c	 mov	 ecx, DWORD PTR __Keyval$[ebp]
  00020	56		 push	 esi
  00021	8b 31		 mov	 esi, DWORD PTR [ecx]
$LL2@Find_lower:
; File C:\Program Files\Microsoft Visual Studio\2022\Professional\VC\Tools\MSVC\14.44.35207\include\xtree

; 1633 :             _Result._Location._Parent = _Trynode;

  00023	89 02		 mov	 DWORD PTR [edx], eax
; File C:\Program Files\Microsoft Visual Studio\2022\Professional\VC\Tools\MSVC\14.44.35207\include\type_traits

; 2380 :         return _Left < _Right;

  00025	39 70 10	 cmp	 DWORD PTR [eax+16], esi
; File C:\Program Files\Microsoft Visual Studio\2022\Professional\VC\Tools\MSVC\14.44.35207\include\xtree

; 1634 :             if (_DEBUG_LT_PRED(_Getcomp(), _Traits::_Kfn(_Trynode->_Myval), _Keyval)) {

  00028	73 07		 jae	 SHORT $LN4@Find_lower

; 1635 :                 _Result._Location._Child = _Tree_child::_Right;
; 1636 :                 _Trynode                 = _Trynode->_Right;

  0002a	8b 40 08	 mov	 eax, DWORD PTR [eax+8]
  0002d	33 c9		 xor	 ecx, ecx

; 1637 :             } else {

  0002f	eb 0a		 jmp	 SHORT $LN5@Find_lower
$LN4@Find_lower:

; 1638 :                 _Result._Location._Child = _Tree_child::_Left;
; 1639 :                 _Result._Bound           = _Trynode;

  00031	89 42 08	 mov	 DWORD PTR [edx+8], eax

; 1640 :                 _Trynode                 = _Trynode->_Left;

  00034	b9 01 00 00 00	 mov	 ecx, 1
  00039	8b 00		 mov	 eax, DWORD PTR [eax]
$LN5@Find_lower:

; 1631 :         _Nodeptr _Trynode = _Result._Location._Parent;
; 1632 :         while (!_Trynode->_Isnil) {

  0003b	89 4a 04	 mov	 DWORD PTR [edx+4], ecx
  0003e	80 78 0d 00	 cmp	 BYTE PTR [eax+13], 0
  00042	74 df		 je	 SHORT $LL2@Find_lower
  00044	5e		 pop	 esi
$LN13@Find_lower:

; 1641 :             }
; 1642 :         }
; 1643 : 
; 1644 :         return _Result;
; 1645 :     }

  00045	8b c2		 mov	 eax, edx
  00047	5d		 pop	 ebp
  00048	c2 08 00	 ret	 8
??$_Find_lower_bound@K@?$_Tree@V?$_Tmap_traits@KV?$CStringT@DV?$StrTraitMFC@DV?$ChTraitsCRT@D@ATL@@@@@ATL@@U?$less@K@std@@V?$allocator@U?$pair@$$CBKV?$CStringT@DV?$StrTraitMFC@DV?$ChTraitsCRT@D@ATL@@@@@ATL@@@std@@@4@$0A@@std@@@std@@IBE?AU?$_Tree_find_result@PAU?$_Tree_node@U?$pair@$$CBKV?$CStringT@DV?$StrTraitMFC@DV?$ChTraitsCRT@D@ATL@@@@@ATL@@@std@@PAX@std@@@1@ABK@Z ENDP ; std::_Tree<std::_Tmap_traits<unsigned long,ATL::CStringT<char,StrTraitMFC<char,ATL::ChTraitsCRT<char> > >,std::less<unsigned long>,std::allocator<std::pair<unsigned long const ,ATL::CStringT<char,StrTraitMFC<char,ATL::ChTraitsCRT<char> > > > >,0> >::_Find_lower_bound<unsigned long>
_TEXT	ENDS
; Function compile flags: /Ogtp
; File C:\Program Files\Microsoft Visual Studio\2022\Professional\VC\Tools\MSVC\14.44.35207\include\xmemory
;	COMDAT ??1?$_Alloc_construct_ptr@V?$allocator@U?$_Tree_node@U?$pair@$$CBKP8CDPCoreClient@@AEXAAVCAr@@KKK@Z@std@@PAX@std@@@std@@@std@@QAE@XZ
_TEXT	SEGMENT
??1?$_Alloc_construct_ptr@V?$allocator@U?$_Tree_node@U?$pair@$$CBKP8CDPCoreClient@@AEXAAVCAr@@KKK@Z@std@@PAX@std@@@std@@@std@@QAE@XZ PROC ; std::_Alloc_construct_ptr<std::allocator<std::_Tree_node<std::pair<unsigned long const ,void (__thiscall CDPCoreClient::*)(CAr &,unsigned long,unsigned long,unsigned long)>,void *> > >::~_Alloc_construct_ptr<std::allocator<std::_Tree_node<std::pair<unsigned long const ,void (__thiscall CDPCoreClient::*)(CAr &,unsigned long,unsigned long,unsigned long)>,void *> > >, COMDAT
; _this$ = ecx

; 1172 :         if (_Ptr) {

  00000	8b 41 04	 mov	 eax, DWORD PTR [ecx+4]
  00003	85 c0		 test	 eax, eax
  00005	74 0b		 je	 SHORT $LN10@Alloc_cons

; 289  :         ::operator delete(_Ptr, _Bytes);

  00007	6a 18		 push	 24			; 00000018H
  00009	50		 push	 eax
  0000a	e8 00 00 00 00	 call	 ??3@YAXPAXI@Z		; operator delete
  0000f	83 c4 08	 add	 esp, 8
$LN10@Alloc_cons:

; 1173 :             _Al.deallocate(_Ptr, 1);
; 1174 :         }
; 1175 :     }

  00012	c3		 ret	 0
??1?$_Alloc_construct_ptr@V?$allocator@U?$_Tree_node@U?$pair@$$CBKP8CDPCoreClient@@AEXAAVCAr@@KKK@Z@std@@PAX@std@@@std@@@std@@QAE@XZ ENDP ; std::_Alloc_construct_ptr<std::allocator<std::_Tree_node<std::pair<unsigned long const ,void (__thiscall CDPCoreClient::*)(CAr &,unsigned long,unsigned long,unsigned long)>,void *> > >::~_Alloc_construct_ptr<std::allocator<std::_Tree_node<std::pair<unsigned long const ,void (__thiscall CDPCoreClient::*)(CAr &,unsigned long,unsigned long,unsigned long)>,void *> > >
_TEXT	ENDS
; Function compile flags: /Ogtp
; File C:\Program Files\Microsoft Visual Studio\2022\Professional\VC\Tools\MSVC\14.44.35207\include\xtree
; File C:\Program Files\Microsoft Visual Studio\2022\Professional\VC\Tools\MSVC\14.44.35207\include\type_traits
; File C:\Program Files\Microsoft Visual Studio\2022\Professional\VC\Tools\MSVC\14.44.35207\include\xtree
; File C:\Program Files\Microsoft Visual Studio\2022\Professional\VC\Tools\MSVC\14.44.35207\include\type_traits
; File C:\Program Files\Microsoft Visual Studio\2022\Professional\VC\Tools\MSVC\14.44.35207\include\xtree
;	COMDAT ??$_Find_lower_bound@K@?$_Tree@V?$_Tmap_traits@KP8CDPCoreClient@@AEXAAVCAr@@KKK@ZU?$less@K@std@@V?$allocator@U?$pair@$$CBKP8CDPCoreClient@@AEXAAVCAr@@KKK@Z@std@@@4@$0A@@std@@@std@@IBE?AU?$_Tree_find_result@PAU?$_Tree_node@U?$pair@$$CBKP8CDPCoreClient@@AEXAAVCAr@@KKK@Z@std@@PAX@std@@@1@ABK@Z
_TEXT	SEGMENT
___$ReturnUdt$ = 8					; size = 4
__Keyval$ = 12						; size = 4
??$_Find_lower_bound@K@?$_Tree@V?$_Tmap_traits@KP8CDPCoreClient@@AEXAAVCAr@@KKK@ZU?$less@K@std@@V?$allocator@U?$pair@$$CBKP8CDPCoreClient@@AEXAAVCAr@@KKK@Z@std@@@4@$0A@@std@@@std@@IBE?AU?$_Tree_find_result@PAU?$_Tree_node@U?$pair@$$CBKP8CDPCoreClient@@AEXAAVCAr@@KKK@Z@std@@PAX@std@@@1@ABK@Z PROC ; std::_Tree<std::_Tmap_traits<unsigned long,void (__thiscall CDPCoreClient::*)(CAr &,unsigned long,unsigned long,unsigned long),std::less<unsigned long>,std::allocator<std::pair<unsigned long const ,void (__thiscall CDPCoreClient::*)(CAr &,unsigned long,unsigned long,unsigned long)> >,0> >::_Find_lower_bound<unsigned long>, COMDAT
; _this$ = ecx

; 1628 :     _Tree_find_result<_Nodeptr> _Find_lower_bound(const _Keyty& _Keyval) const {

  00000	55		 push	 ebp
  00001	8b ec		 mov	 ebp, esp

; 1629 :         const auto _Scary = _Get_scary();
; 1630 :         _Tree_find_result<_Nodeptr> _Result{{_Scary->_Myhead->_Parent, _Tree_child::_Right}, _Scary->_Myhead};

  00003	8b 09		 mov	 ecx, DWORD PTR [ecx]
  00005	8b 55 08	 mov	 edx, DWORD PTR ___$ReturnUdt$[ebp]
  00008	8b 41 04	 mov	 eax, DWORD PTR [ecx+4]
  0000b	89 02		 mov	 DWORD PTR [edx], eax
  0000d	c7 42 04 00 00
	00 00		 mov	 DWORD PTR [edx+4], 0
  00014	89 4a 08	 mov	 DWORD PTR [edx+8], ecx

; 1631 :         _Nodeptr _Trynode = _Result._Location._Parent;
; 1632 :         while (!_Trynode->_Isnil) {

  00017	80 78 0d 00	 cmp	 BYTE PTR [eax+13], 0
  0001b	75 28		 jne	 SHORT $LN13@Find_lower
; File C:\Program Files\Microsoft Visual Studio\2022\Professional\VC\Tools\MSVC\14.44.35207\include\type_traits

; 2380 :         return _Left < _Right;

  0001d	8b 4d 0c	 mov	 ecx, DWORD PTR __Keyval$[ebp]
  00020	56		 push	 esi
  00021	8b 31		 mov	 esi, DWORD PTR [ecx]
$LL2@Find_lower:
; File C:\Program Files\Microsoft Visual Studio\2022\Professional\VC\Tools\MSVC\14.44.35207\include\xtree

; 1633 :             _Result._Location._Parent = _Trynode;

  00023	89 02		 mov	 DWORD PTR [edx], eax
; File C:\Program Files\Microsoft Visual Studio\2022\Professional\VC\Tools\MSVC\14.44.35207\include\type_traits

; 2380 :         return _Left < _Right;

  00025	39 70 10	 cmp	 DWORD PTR [eax+16], esi
; File C:\Program Files\Microsoft Visual Studio\2022\Professional\VC\Tools\MSVC\14.44.35207\include\xtree

; 1634 :             if (_DEBUG_LT_PRED(_Getcomp(), _Traits::_Kfn(_Trynode->_Myval), _Keyval)) {

  00028	73 07		 jae	 SHORT $LN4@Find_lower

; 1635 :                 _Result._Location._Child = _Tree_child::_Right;
; 1636 :                 _Trynode                 = _Trynode->_Right;

  0002a	8b 40 08	 mov	 eax, DWORD PTR [eax+8]
  0002d	33 c9		 xor	 ecx, ecx

; 1637 :             } else {

  0002f	eb 0a		 jmp	 SHORT $LN5@Find_lower
$LN4@Find_lower:

; 1638 :                 _Result._Location._Child = _Tree_child::_Left;
; 1639 :                 _Result._Bound           = _Trynode;

  00031	89 42 08	 mov	 DWORD PTR [edx+8], eax

; 1640 :                 _Trynode                 = _Trynode->_Left;

  00034	b9 01 00 00 00	 mov	 ecx, 1
  00039	8b 00		 mov	 eax, DWORD PTR [eax]
$LN5@Find_lower:

; 1631 :         _Nodeptr _Trynode = _Result._Location._Parent;
; 1632 :         while (!_Trynode->_Isnil) {

  0003b	89 4a 04	 mov	 DWORD PTR [edx+4], ecx
  0003e	80 78 0d 00	 cmp	 BYTE PTR [eax+13], 0
  00042	74 df		 je	 SHORT $LL2@Find_lower
  00044	5e		 pop	 esi
$LN13@Find_lower:

; 1641 :             }
; 1642 :         }
; 1643 : 
; 1644 :         return _Result;
; 1645 :     }

  00045	8b c2		 mov	 eax, edx
  00047	5d		 pop	 ebp
  00048	c2 08 00	 ret	 8
??$_Find_lower_bound@K@?$_Tree@V?$_Tmap_traits@KP8CDPCoreClient@@AEXAAVCAr@@KKK@ZU?$less@K@std@@V?$allocator@U?$pair@$$CBKP8CDPCoreClient@@AEXAAVCAr@@KKK@Z@std@@@4@$0A@@std@@@std@@IBE?AU?$_Tree_find_result@PAU?$_Tree_node@U?$pair@$$CBKP8CDPCoreClient@@AEXAAVCAr@@KKK@Z@std@@PAX@std@@@1@ABK@Z ENDP ; std::_Tree<std::_Tmap_traits<unsigned long,void (__thiscall CDPCoreClient::*)(CAr &,unsigned long,unsigned long,unsigned long),std::less<unsigned long>,std::allocator<std::pair<unsigned long const ,void (__thiscall CDPCoreClient::*)(CAr &,unsigned long,unsigned long,unsigned long)> >,0> >::_Find_lower_bound<unsigned long>
_TEXT	ENDS
; Function compile flags: /Ogtp
; File C:\Program Files\Microsoft Visual Studio\2022\Professional\VC\Tools\MSVC\14.44.35207\include\xtree
;	COMDAT ??E?$_Tree_iterator@V?$_Tree_val@U?$_Tree_simple_types@U?$pair@$$CBKPAVCGuildMember@@@std@@@std@@@std@@@std@@QAEAAV01@XZ
_TEXT	SEGMENT
??E?$_Tree_iterator@V?$_Tree_val@U?$_Tree_simple_types@U?$pair@$$CBKPAVCGuildMember@@@std@@@std@@@std@@@std@@QAEAAV01@XZ PROC ; std::_Tree_iterator<std::_Tree_val<std::_Tree_simple_types<std::pair<unsigned long const ,CGuildMember *> > > >::operator++, COMDAT
; _this$ = ecx

; 281  :     _Tree_iterator& operator++() noexcept {

  00000	56		 push	 esi
  00001	8b f1		 mov	 esi, ecx
  00003	57		 push	 edi

; 50   :         if (_Ptr->_Right->_Isnil) { // climb looking for right subtree

  00004	8b 16		 mov	 edx, DWORD PTR [esi]
  00006	8b 7a 08	 mov	 edi, DWORD PTR [edx+8]
  00009	80 7f 0d 00	 cmp	 BYTE PTR [edi+13], 0
  0000d	74 22		 je	 SHORT $LN10@operator

; 51   :             _Nodeptr _Pnode;
; 52   :             while (!(_Pnode = _Ptr->_Parent)->_Isnil && _Ptr == _Pnode->_Right) {

  0000f	8b 42 04	 mov	 eax, DWORD PTR [edx+4]
  00012	80 78 0d 00	 cmp	 BYTE PTR [eax+13], 0
  00016	75 12		 jne	 SHORT $LN27@operator
$LL8@operator:
  00018	3b 50 08	 cmp	 edx, DWORD PTR [eax+8]
  0001b	75 0d		 jne	 SHORT $LN27@operator

; 53   :                 _Ptr = _Pnode; // ==> parent while right subtree

  0001d	89 06		 mov	 DWORD PTR [esi], eax
  0001f	8b d0		 mov	 edx, eax
  00021	8b 40 04	 mov	 eax, DWORD PTR [eax+4]
  00024	80 78 0d 00	 cmp	 BYTE PTR [eax+13], 0
  00028	74 ee		 je	 SHORT $LL8@operator
$LN27@operator:

; 282  :         _Mybase::operator++();
; 283  :         return *this;

  0002a	89 06		 mov	 DWORD PTR [esi], eax

; 284  :     }

  0002c	8b c6		 mov	 eax, esi
  0002e	5f		 pop	 edi
  0002f	5e		 pop	 esi
  00030	c3		 ret	 0
$LN10@operator:

; 476  :         while (!_Pnode->_Left->_Isnil) {

  00031	8b 0f		 mov	 ecx, DWORD PTR [edi]
  00033	80 79 0d 00	 cmp	 BYTE PTR [ecx+13], 0
  00037	75 13		 jne	 SHORT $LN16@operator
  00039	0f 1f 80 00 00
	00 00		 npad	 7
$LL15@operator:
  00040	8b 01		 mov	 eax, DWORD PTR [ecx]

; 477  :             _Pnode = _Pnode->_Left;

  00042	8b f9		 mov	 edi, ecx
  00044	8b c8		 mov	 ecx, eax
  00046	80 78 0d 00	 cmp	 BYTE PTR [eax+13], 0
  0004a	74 f4		 je	 SHORT $LL15@operator
$LN16@operator:

; 282  :         _Mybase::operator++();
; 283  :         return *this;

  0004c	89 3e		 mov	 DWORD PTR [esi], edi

; 284  :     }

  0004e	8b c6		 mov	 eax, esi
  00050	5f		 pop	 edi
  00051	5e		 pop	 esi
  00052	c3		 ret	 0
??E?$_Tree_iterator@V?$_Tree_val@U?$_Tree_simple_types@U?$pair@$$CBKPAVCGuildMember@@@std@@@std@@@std@@@std@@QAEAAV01@XZ ENDP ; std::_Tree_iterator<std::_Tree_val<std::_Tree_simple_types<std::pair<unsigned long const ,CGuildMember *> > > >::operator++
_TEXT	ENDS
; Function compile flags: /Ogtp
; File C:\IAGOS\server\v18\Source\Source\_Network\Misc\Include\ar.h
;	COMDAT ??$?5N@CAr@@QAEAAV0@AAN@Z
_TEXT	SEGMENT
_t$ = 8							; size = 4
??$?5N@CAr@@QAEAAV0@AAN@Z PROC				; CAr::operator>><double>, COMDAT
; _this$ = ecx

; 302  : {

  00000	55		 push	 ebp
  00001	8b ec		 mov	 ebp, esp

; 303  : 	if (m_lpBufCur + sizeof(T) <= m_lpBufMax)

  00003	8b 51 08	 mov	 edx, DWORD PTR [ecx+8]
  00006	8d 42 08	 lea	 eax, DWORD PTR [edx+8]
  00009	3b 41 0c	 cmp	 eax, DWORD PTR [ecx+12]
  0000c	8b 45 08	 mov	 eax, DWORD PTR _t$[ebp]
  0000f	77 12		 ja	 SHORT $LN2@operator

; 304  : 	{
; 305  : 		t = *(UNALIGNED T*)m_lpBufCur;

  00011	f2 0f 10 02	 movsd	 xmm0, QWORD PTR [edx]
  00015	f2 0f 11 00	 movsd	 QWORD PTR [eax], xmm0

; 312  : 	}
; 313  : 	return *this;
; 314  : }

  00019	8b c1		 mov	 eax, ecx
  0001b	83 41 08 08	 add	 DWORD PTR [ecx+8], 8
  0001f	5d		 pop	 ebp
  00020	c2 04 00	 ret	 4
$LN2@operator:
  00023	0f 57 c0	 xorps	 xmm0, xmm0

; 306  : 		m_lpBufCur += sizeof(T);
; 307  : 	}
; 308  : 	else
; 309  : 	{
; 310  : 		t = T();

  00026	f2 0f 11 00	 movsd	 QWORD PTR [eax], xmm0

; 311  : 		m_lpBufCur = m_lpBufMax;

  0002a	8b 41 0c	 mov	 eax, DWORD PTR [ecx+12]
  0002d	89 41 08	 mov	 DWORD PTR [ecx+8], eax

; 312  : 	}
; 313  : 	return *this;
; 314  : }

  00030	8b c1		 mov	 eax, ecx
  00032	5d		 pop	 ebp
  00033	c2 04 00	 ret	 4
??$?5N@CAr@@QAEAAV0@AAN@Z ENDP				; CAr::operator>><double>
_TEXT	ENDS
; Function compile flags: /Ogtp
; File C:\IAGOS\server\v18\Source\Source\_Network\Misc\Include\ar.h
;	COMDAT ??$?5_J@CAr@@QAEAAV0@AA_J@Z
_TEXT	SEGMENT
_t$ = 8							; size = 4
??$?5_J@CAr@@QAEAAV0@AA_J@Z PROC			; CAr::operator>><__int64>, COMDAT
; _this$ = ecx

; 302  : {

  00000	55		 push	 ebp
  00001	8b ec		 mov	 ebp, esp
  00003	56		 push	 esi
  00004	8b f1		 mov	 esi, ecx

; 303  : 	if (m_lpBufCur + sizeof(T) <= m_lpBufMax)

  00006	8b 56 08	 mov	 edx, DWORD PTR [esi+8]
  00009	8d 42 08	 lea	 eax, DWORD PTR [edx+8]
  0000c	3b 46 0c	 cmp	 eax, DWORD PTR [esi+12]
  0000f	8b 45 08	 mov	 eax, DWORD PTR _t$[ebp]
  00012	77 15		 ja	 SHORT $LN2@operator

; 304  : 	{
; 305  : 		t = *(UNALIGNED T*)m_lpBufCur;

  00014	8b 0a		 mov	 ecx, DWORD PTR [edx]
  00016	8b 52 04	 mov	 edx, DWORD PTR [edx+4]
  00019	89 08		 mov	 DWORD PTR [eax], ecx
  0001b	89 50 04	 mov	 DWORD PTR [eax+4], edx

; 312  : 	}
; 313  : 	return *this;
; 314  : }

  0001e	8b c6		 mov	 eax, esi
  00020	83 46 08 08	 add	 DWORD PTR [esi+8], 8
  00024	5e		 pop	 esi
  00025	5d		 pop	 ebp
  00026	c2 04 00	 ret	 4
$LN2@operator:

; 306  : 		m_lpBufCur += sizeof(T);
; 307  : 	}
; 308  : 	else
; 309  : 	{
; 310  : 		t = T();

  00029	c7 00 00 00 00
	00		 mov	 DWORD PTR [eax], 0
  0002f	c7 40 04 00 00
	00 00		 mov	 DWORD PTR [eax+4], 0

; 311  : 		m_lpBufCur = m_lpBufMax;

  00036	8b 46 0c	 mov	 eax, DWORD PTR [esi+12]
  00039	89 46 08	 mov	 DWORD PTR [esi+8], eax

; 312  : 	}
; 313  : 	return *this;
; 314  : }

  0003c	8b c6		 mov	 eax, esi
  0003e	5e		 pop	 esi
  0003f	5d		 pop	 ebp
  00040	c2 04 00	 ret	 4
??$?5_J@CAr@@QAEAAV0@AA_J@Z ENDP			; CAr::operator>><__int64>
_TEXT	ENDS
; Function compile flags: /Ogtp
; File C:\IAGOS\server\v18\Source\Source\_Network\Misc\Include\ar.h
;	COMDAT ??$?5E@CAr@@QAEAAV0@AAE@Z
_TEXT	SEGMENT
_t$ = 8							; size = 4
??$?5E@CAr@@QAEAAV0@AAE@Z PROC				; CAr::operator>><unsigned char>, COMDAT
; _this$ = ecx

; 302  : {

  00000	55		 push	 ebp
  00001	8b ec		 mov	 ebp, esp
  00003	8b d1		 mov	 edx, ecx

; 303  : 	if (m_lpBufCur + sizeof(T) <= m_lpBufMax)

  00005	8b 4a 08	 mov	 ecx, DWORD PTR [edx+8]
  00008	8d 41 01	 lea	 eax, DWORD PTR [ecx+1]
  0000b	3b 42 0c	 cmp	 eax, DWORD PTR [edx+12]
  0000e	8b 45 08	 mov	 eax, DWORD PTR _t$[ebp]
  00011	77 0d		 ja	 SHORT $LN2@operator

; 304  : 	{
; 305  : 		t = *(UNALIGNED T*)m_lpBufCur;

  00013	8a 09		 mov	 cl, BYTE PTR [ecx]
  00015	88 08		 mov	 BYTE PTR [eax], cl

; 312  : 	}
; 313  : 	return *this;
; 314  : }

  00017	8b c2		 mov	 eax, edx
  00019	ff 42 08	 inc	 DWORD PTR [edx+8]
  0001c	5d		 pop	 ebp
  0001d	c2 04 00	 ret	 4
$LN2@operator:

; 306  : 		m_lpBufCur += sizeof(T);
; 307  : 	}
; 308  : 	else
; 309  : 	{
; 310  : 		t = T();

  00020	c6 00 00	 mov	 BYTE PTR [eax], 0

; 311  : 		m_lpBufCur = m_lpBufMax;

  00023	8b 42 0c	 mov	 eax, DWORD PTR [edx+12]
  00026	89 42 08	 mov	 DWORD PTR [edx+8], eax

; 312  : 	}
; 313  : 	return *this;
; 314  : }

  00029	8b c2		 mov	 eax, edx
  0002b	5d		 pop	 ebp
  0002c	c2 04 00	 ret	 4
??$?5E@CAr@@QAEAAV0@AAE@Z ENDP				; CAr::operator>><unsigned char>
_TEXT	ENDS
; Function compile flags: /Ogtp
; File C:\IAGOS\server\v18\Source\Source\_Network\Misc\Include\ar.h
;	COMDAT ??$?6E@CAr@@QAEAAV0@ABE@Z
_TEXT	SEGMENT
_t$ = 8							; size = 4
??$?6E@CAr@@QAEAAV0@ABE@Z PROC				; CAr::operator<<<unsigned char>, COMDAT
; _this$ = ecx

; 255  : {

  00000	55		 push	 ebp
  00001	8b ec		 mov	 ebp, esp
  00003	56		 push	 esi

; 256  : 	CheckBuf(sizeof(T));

  00004	6a 01		 push	 1
  00006	8b f1		 mov	 esi, ecx
  00008	e8 00 00 00 00	 call	 ?CheckBuf@CAr@@QAEXI@Z	; CAr::CheckBuf

; 257  : 	*(UNALIGNED T*)m_lpBufCur = t;

  0000d	8b 45 08	 mov	 eax, DWORD PTR _t$[ebp]
  00010	8b 56 08	 mov	 edx, DWORD PTR [esi+8]
  00013	8a 00		 mov	 al, BYTE PTR [eax]
  00015	88 02		 mov	 BYTE PTR [edx], al

; 258  : 	m_lpBufCur += sizeof(T);
; 259  : 	return *this;

  00017	8b c6		 mov	 eax, esi
  00019	ff 46 08	 inc	 DWORD PTR [esi+8]
  0001c	5e		 pop	 esi

; 260  : }

  0001d	5d		 pop	 ebp
  0001e	c2 04 00	 ret	 4
??$?6E@CAr@@QAEAAV0@ABE@Z ENDP				; CAr::operator<<<unsigned char>
_TEXT	ENDS
; Function compile flags: /Ogtp
; File C:\Program Files\Microsoft Visual Studio\2022\Professional\VC\Tools\MSVC\14.44.35207\atlmfc\include\atlsimpstr.h
;	COMDAT ??1?$pair@KV?$CStringT@DV?$StrTraitMFC@DV?$ChTraitsCRT@D@ATL@@@@@ATL@@@std@@QAE@XZ
_TEXT	SEGMENT
__$EHRec$ = -12						; size = 12
??1?$pair@KV?$CStringT@DV?$StrTraitMFC@DV?$ChTraitsCRT@D@ATL@@@@@ATL@@@std@@QAE@XZ PROC ; std::pair<unsigned long,ATL::CStringT<char,StrTraitMFC<char,ATL::ChTraitsCRT<char> > > >::~pair<unsigned long,ATL::CStringT<char,StrTraitMFC<char,ATL::ChTraitsCRT<char> > > >, COMDAT
; _this$ = ecx
  00000	55		 push	 ebp
  00001	8b ec		 mov	 ebp, esp
  00003	6a ff		 push	 -1
  00005	68 00 00 00 00	 push	 __ehhandler$??1?$pair@KV?$CStringT@DV?$StrTraitMFC@DV?$ChTraitsCRT@D@ATL@@@@@ATL@@@std@@QAE@XZ
  0000a	64 a1 00 00 00
	00		 mov	 eax, DWORD PTR fs:0
  00010	50		 push	 eax
  00011	a1 00 00 00 00	 mov	 eax, DWORD PTR ___security_cookie
  00016	33 c5		 xor	 eax, ebp
  00018	50		 push	 eax
  00019	8d 45 f4	 lea	 eax, DWORD PTR __$EHRec$[ebp]
  0001c	64 a3 00 00 00
	00		 mov	 DWORD PTR fs:0, eax

; 804  : 		return( reinterpret_cast< CStringData* >( m_pszData )-1 );

  00022	8b 51 04	 mov	 edx, DWORD PTR [ecx+4]

; 92   : 		if( _InterlockedDecrement( &nRefs ) <= 0 )

  00025	83 c8 ff	 or	 eax, -1

; 804  : 		return( reinterpret_cast< CStringData* >( m_pszData )-1 );

  00028	83 ea 10	 sub	 edx, 16			; 00000010H

; 92   : 		if( _InterlockedDecrement( &nRefs ) <= 0 )

  0002b	f0 0f c1 42 0c	 lock	  xadd	 DWORD PTR [edx+12], eax
  00030	48		 dec	 eax
  00031	85 c0		 test	 eax, eax
  00033	7f 08		 jg	 SHORT $LN11@pair

; 93   : 		{
; 94   : 			pStringMgr->Free( this );

  00035	8b 0a		 mov	 ecx, DWORD PTR [edx]
  00037	52		 push	 edx
  00038	8b 01		 mov	 eax, DWORD PTR [ecx]
  0003a	ff 50 04	 call	 DWORD PTR [eax+4]
$LN11@pair:
  0003d	8b 4d f4	 mov	 ecx, DWORD PTR __$EHRec$[ebp]
  00040	64 89 0d 00 00
	00 00		 mov	 DWORD PTR fs:0, ecx
  00047	59		 pop	 ecx
  00048	8b e5		 mov	 esp, ebp
  0004a	5d		 pop	 ebp
  0004b	c3		 ret	 0
  0004c	cc		 int	 3
  0004d	cc		 int	 3
  0004e	cc		 int	 3
  0004f	cc		 int	 3
  00050	cc		 int	 3
_TEXT	ENDS
;	COMDAT text$x
text$x	SEGMENT
__ehhandler$??1?$pair@KV?$CStringT@DV?$StrTraitMFC@DV?$ChTraitsCRT@D@ATL@@@@@ATL@@@std@@QAE@XZ:
  00000	90		 npad	 1
  00001	90		 npad	 1
  00002	8b 54 24 08	 mov	 edx, DWORD PTR [esp+8]
  00006	8d 42 0c	 lea	 eax, DWORD PTR [edx+12]
  00009	8b 4a fc	 mov	 ecx, DWORD PTR [edx-4]
  0000c	33 c8		 xor	 ecx, eax
  0000e	e8 00 00 00 00	 call	 @__security_check_cookie@4
  00013	b8 00 00 00 00	 mov	 eax, OFFSET __ehfuncinfo$??1?$pair@KV?$CStringT@DV?$StrTraitMFC@DV?$ChTraitsCRT@D@ATL@@@@@ATL@@@std@@QAE@XZ
  00018	e9 00 00 00 00	 jmp	 ___CxxFrameHandler3
text$x	ENDS
??1?$pair@KV?$CStringT@DV?$StrTraitMFC@DV?$ChTraitsCRT@D@ATL@@@@@ATL@@@std@@QAE@XZ ENDP ; std::pair<unsigned long,ATL::CStringT<char,StrTraitMFC<char,ATL::ChTraitsCRT<char> > > >::~pair<unsigned long,ATL::CStringT<char,StrTraitMFC<char,ATL::ChTraitsCRT<char> > > >
; Function compile flags: /Ogtp
; File C:\Program Files\Microsoft Visual Studio\2022\Professional\VC\Tools\MSVC\14.44.35207\include\xtree
; File C:\Program Files\Microsoft Visual Studio\2022\Professional\VC\Tools\MSVC\14.44.35207\include\xmemory
;	COMDAT ??__FmapstrProfile@?1??UserMessageHandler@CDPCoreClient@@UAEXPAUDPMSG_GENERIC@@KK@Z@YAXXZ
text$yd	SEGMENT
??__FmapstrProfile@?1??UserMessageHandler@CDPCoreClient@@UAEXPAUDPMSG_GENERIC@@KK@Z@YAXXZ PROC ; `CDPCoreClient::UserMessageHandler'::`2'::`dynamic atexit destructor for 'mapstrProfile'', COMDAT
; File C:\Program Files\Microsoft Visual Studio\2022\Professional\VC\Tools\MSVC\14.44.35207\include\xtree

; 777  :         _Erase_tree(_Al, _Myhead->_Parent);

  00000	a1 00 00 00 00	 mov	 eax, DWORD PTR ?mapstrProfile@?1??UserMessageHandler@CDPCoreClient@@UAEXPAUDPMSG_GENERIC@@KK@Z@4V?$map@KV?$CStringT@DV?$StrTraitMFC@DV?$ChTraitsCRT@D@ATL@@@@@ATL@@U?$less@K@std@@V?$allocator@U?$pair@$$CBKV?$CStringT@DV?$StrTraitMFC@DV?$ChTraitsCRT@D@ATL@@@@@ATL@@@std@@@4@@std@@A
  00005	b9 00 00 00 00	 mov	 ecx, OFFSET ?mapstrProfile@?1??UserMessageHandler@CDPCoreClient@@UAEXPAUDPMSG_GENERIC@@KK@Z@4V?$map@KV?$CStringT@DV?$StrTraitMFC@DV?$ChTraitsCRT@D@ATL@@@@@ATL@@U?$less@K@std@@V?$allocator@U?$pair@$$CBKV?$CStringT@DV?$StrTraitMFC@DV?$ChTraitsCRT@D@ATL@@@@@ATL@@@std@@@4@@std@@A
  0000a	ff 70 04	 push	 DWORD PTR [eax+4]
  0000d	68 00 00 00 00	 push	 OFFSET ?mapstrProfile@?1??UserMessageHandler@CDPCoreClient@@UAEXPAUDPMSG_GENERIC@@KK@Z@4V?$map@KV?$CStringT@DV?$StrTraitMFC@DV?$ChTraitsCRT@D@ATL@@@@@ATL@@U?$less@K@std@@V?$allocator@U?$pair@$$CBKV?$CStringT@DV?$StrTraitMFC@DV?$ChTraitsCRT@D@ATL@@@@@ATL@@@std@@@4@@std@@A
  00012	e8 00 00 00 00	 call	 ??$_Erase_tree@V?$allocator@U?$_Tree_node@U?$pair@$$CBKV?$CStringT@DV?$StrTraitMFC@DV?$ChTraitsCRT@D@ATL@@@@@ATL@@@std@@PAX@std@@@std@@@?$_Tree_val@U?$_Tree_simple_types@U?$pair@$$CBKV?$CStringT@DV?$StrTraitMFC@DV?$ChTraitsCRT@D@ATL@@@@@ATL@@@std@@@std@@@std@@QAEXAAV?$allocator@U?$_Tree_node@U?$pair@$$CBKV?$CStringT@DV?$StrTraitMFC@DV?$ChTraitsCRT@D@ATL@@@@@ATL@@@std@@PAX@std@@@1@PAU?$_Tree_node@U?$pair@$$CBKV?$CStringT@DV?$StrTraitMFC@DV?$ChTraitsCRT@D@ATL@@@@@ATL@@@std@@PAX@1@@Z ; std::_Tree_val<std::_Tree_simple_types<std::pair<unsigned long const ,ATL::CStringT<char,StrTraitMFC<char,ATL::ChTraitsCRT<char> > > > > >::_Erase_tree<std::allocator<std::_Tree_node<std::pair<unsigned long const ,ATL::CStringT<char,StrTraitMFC<char,ATL::ChTraitsCRT<char> > > >,void *> > >
; File C:\Program Files\Microsoft Visual Studio\2022\Professional\VC\Tools\MSVC\14.44.35207\include\xmemory

; 289  :         ::operator delete(_Ptr, _Bytes);

  00017	6a 18		 push	 24			; 00000018H
  00019	ff 35 00 00 00
	00		 push	 DWORD PTR ?mapstrProfile@?1??UserMessageHandler@CDPCoreClient@@UAEXPAUDPMSG_GENERIC@@KK@Z@4V?$map@KV?$CStringT@DV?$StrTraitMFC@DV?$ChTraitsCRT@D@ATL@@@@@ATL@@U?$less@K@std@@V?$allocator@U?$pair@$$CBKV?$CStringT@DV?$StrTraitMFC@DV?$ChTraitsCRT@D@ATL@@@@@ATL@@@std@@@4@@std@@A
  0001f	e8 00 00 00 00	 call	 ??3@YAXPAXI@Z		; operator delete
  00024	83 c4 08	 add	 esp, 8
  00027	c3		 ret	 0
??__FmapstrProfile@?1??UserMessageHandler@CDPCoreClient@@UAEXPAUDPMSG_GENERIC@@KK@Z@YAXXZ ENDP ; `CDPCoreClient::UserMessageHandler'::`2'::`dynamic atexit destructor for 'mapstrProfile''
text$yd	ENDS
; Function compile flags: /Ogtp
; File C:\Program Files\Microsoft Visual Studio\2022\Professional\VC\Tools\MSVC\14.44.35207\include\xtree
;	COMDAT ?_Insert_node@?$_Tree_val@U?$_Tree_simple_types@U?$pair@$$CBKV?$CStringT@DV?$StrTraitMFC@DV?$ChTraitsCRT@D@ATL@@@@@ATL@@@std@@@std@@@std@@QAEPAU?$_Tree_node@U?$pair@$$CBKV?$CStringT@DV?$StrTraitMFC@DV?$ChTraitsCRT@D@ATL@@@@@ATL@@@std@@PAX@2@U?$_Tree_id@PAU?$_Tree_node@U?$pair@$$CBKV?$CStringT@DV?$StrTraitMFC@DV?$ChTraitsCRT@D@ATL@@@@@ATL@@@std@@PAX@std@@@2@QAU32@@Z
_TEXT	SEGMENT
__Head$1$ = -4						; size = 4
__Loc$ = 8						; size = 8
__Newnode$ = 16						; size = 4
?_Insert_node@?$_Tree_val@U?$_Tree_simple_types@U?$pair@$$CBKV?$CStringT@DV?$StrTraitMFC@DV?$ChTraitsCRT@D@ATL@@@@@ATL@@@std@@@std@@@std@@QAEPAU?$_Tree_node@U?$pair@$$CBKV?$CStringT@DV?$StrTraitMFC@DV?$ChTraitsCRT@D@ATL@@@@@ATL@@@std@@PAX@2@U?$_Tree_id@PAU?$_Tree_node@U?$pair@$$CBKV?$CStringT@DV?$StrTraitMFC@DV?$ChTraitsCRT@D@ATL@@@@@ATL@@@std@@PAX@std@@@2@QAU32@@Z PROC ; std::_Tree_val<std::_Tree_simple_types<std::pair<unsigned long const ,ATL::CStringT<char,StrTraitMFC<char,ATL::ChTraitsCRT<char> > > > > >::_Insert_node, COMDAT
; _this$ = ecx

; 669  :     _Nodeptr _Insert_node(const _Tree_id<_Nodeptr> _Loc, const _Nodeptr _Newnode) noexcept {

  00000	55		 push	 ebp
  00001	8b ec		 mov	 ebp, esp
  00003	51		 push	 ecx

; 670  :         ++_Mysize;
; 671  :         const auto _Head  = _Myhead;
; 672  :         _Newnode->_Parent = _Loc._Parent;

  00004	8b 55 08	 mov	 edx, DWORD PTR __Loc$[ebp]
  00007	53		 push	 ebx
  00008	8b d9		 mov	 ebx, ecx
  0000a	57		 push	 edi
  0000b	8b 7d 10	 mov	 edi, DWORD PTR __Newnode$[ebp]
  0000e	8b 03		 mov	 eax, DWORD PTR [ebx]
  00010	ff 43 04	 inc	 DWORD PTR [ebx+4]
  00013	89 45 fc	 mov	 DWORD PTR __Head$1$[ebp], eax
  00016	89 57 04	 mov	 DWORD PTR [edi+4], edx

; 673  :         if (_Loc._Parent == _Head) { // first node in tree, just set head values

  00019	3b d0		 cmp	 edx, eax
  0001b	75 16		 jne	 SHORT $LN5@Insert_nod

; 674  :             _Head->_Left     = _Newnode;

  0001d	89 38		 mov	 DWORD PTR [eax], edi

; 675  :             _Head->_Parent   = _Newnode;

  0001f	89 78 04	 mov	 DWORD PTR [eax+4], edi

; 676  :             _Head->_Right    = _Newnode;

  00022	89 78 08	 mov	 DWORD PTR [eax+8], edi

; 735  :         return _Newnode;
; 736  :     }

  00025	8b c7		 mov	 eax, edi
  00027	c6 47 0c 01	 mov	 BYTE PTR [edi+12], 1
  0002b	5f		 pop	 edi
  0002c	5b		 pop	 ebx
  0002d	8b e5		 mov	 esp, ebp
  0002f	5d		 pop	 ebp
  00030	c2 0c 00	 ret	 12			; 0000000cH
$LN5@Insert_nod:

; 677  :             _Newnode->_Color = _Black; // the root is black
; 678  :             return _Newnode;
; 679  :         }
; 680  : 
; 681  :         _STL_INTERNAL_CHECK(_Loc._Child != _Tree_child::_Unused);
; 682  :         if (_Loc._Child == _Tree_child::_Right) { // add to right of _Loc._Parent

  00033	83 7d 0c 00	 cmp	 DWORD PTR __Loc$[ebp+4], 0
  00037	75 0d		 jne	 SHORT $LN6@Insert_nod

; 683  :             _STL_INTERNAL_CHECK(_Loc._Parent->_Right->_Isnil);
; 684  :             _Loc._Parent->_Right = _Newnode;

  00039	89 7a 08	 mov	 DWORD PTR [edx+8], edi

; 685  :             if (_Loc._Parent == _Head->_Right) { // remember rightmost node

  0003c	3b 50 08	 cmp	 edx, DWORD PTR [eax+8]
  0003f	75 0d		 jne	 SHORT $LN9@Insert_nod

; 686  :                 _Head->_Right = _Newnode;

  00041	89 78 08	 mov	 DWORD PTR [eax+8], edi

; 687  :             }
; 688  :         } else { // add to left of _Loc._Parent

  00044	eb 08		 jmp	 SHORT $LN9@Insert_nod
$LN6@Insert_nod:

; 689  :             _STL_INTERNAL_CHECK(_Loc._Parent->_Left->_Isnil);
; 690  :             _Loc._Parent->_Left = _Newnode;

  00046	89 3a		 mov	 DWORD PTR [edx], edi

; 691  :             if (_Loc._Parent == _Head->_Left) { // remember leftmost node

  00048	3b 10		 cmp	 edx, DWORD PTR [eax]
  0004a	75 02		 jne	 SHORT $LN9@Insert_nod

; 692  :                 _Head->_Left = _Newnode;

  0004c	89 38		 mov	 DWORD PTR [eax], edi
$LN9@Insert_nod:

; 693  :             }
; 694  :         }
; 695  : 
; 696  :         for (_Nodeptr _Pnode = _Newnode; _Pnode->_Parent->_Color == _Red;) {

  0004e	8b 4f 04	 mov	 ecx, DWORD PTR [edi+4]
  00051	8b c7		 mov	 eax, edi
  00053	80 79 0c 00	 cmp	 BYTE PTR [ecx+12], 0
  00057	0f 85 7d 01 00
	00		 jne	 $LN3@Insert_nod
  0005d	56		 push	 esi
  0005e	66 90		 npad	 2
$LL4@Insert_nod:

; 697  :             if (_Pnode->_Parent == _Pnode->_Parent->_Parent->_Left) { // fixup red-red in left subtree

  00060	8b 50 04	 mov	 edx, DWORD PTR [eax+4]
  00063	8b 72 04	 mov	 esi, DWORD PTR [edx+4]
  00066	8b 0e		 mov	 ecx, DWORD PTR [esi]
  00068	3b d1		 cmp	 edx, ecx
  0006a	0f 85 aa 00 00
	00		 jne	 $LN10@Insert_nod

; 698  :                 const auto _Parent_sibling = _Pnode->_Parent->_Parent->_Right;

  00070	8b 4e 08	 mov	 ecx, DWORD PTR [esi+8]

; 699  :                 if (_Parent_sibling->_Color == _Red) { // parent's sibling has two red children, blacken both

  00073	80 79 0c 00	 cmp	 BYTE PTR [ecx+12], 0
  00077	0f 84 a3 00 00
	00		 je	 $LN82@Insert_nod

; 700  :                     _Pnode->_Parent->_Color          = _Black;
; 701  :                     _Parent_sibling->_Color          = _Black;
; 702  :                     _Pnode->_Parent->_Parent->_Color = _Red;
; 703  :                     _Pnode                           = _Pnode->_Parent->_Parent;
; 704  :                 } else { // parent's sibling has red and black children
; 705  :                     if (_Pnode == _Pnode->_Parent->_Right) { // rotate right child to left

  0007d	8b 72 08	 mov	 esi, DWORD PTR [edx+8]
  00080	3b c6		 cmp	 eax, esi
  00082	75 37		 jne	 SHORT $LN57@Insert_nod

; 485  :         _Wherenode->_Right = _Pnode->_Left;

  00084	8b 0e		 mov	 ecx, DWORD PTR [esi]

; 706  :                         _Pnode = _Pnode->_Parent;

  00086	8b c2		 mov	 eax, edx

; 485  :         _Wherenode->_Right = _Pnode->_Left;

  00088	89 4a 08	 mov	 DWORD PTR [edx+8], ecx

; 486  : 
; 487  :         if (!_Pnode->_Left->_Isnil) {

  0008b	8b 0e		 mov	 ecx, DWORD PTR [esi]
  0008d	80 79 0d 00	 cmp	 BYTE PTR [ecx+13], 0
  00091	75 03		 jne	 SHORT $LN21@Insert_nod

; 488  :             _Pnode->_Left->_Parent = _Wherenode;

  00093	89 41 04	 mov	 DWORD PTR [ecx+4], eax
$LN21@Insert_nod:

; 489  :         }
; 490  : 
; 491  :         _Pnode->_Parent = _Wherenode->_Parent;

  00096	8b 4a 04	 mov	 ecx, DWORD PTR [edx+4]
  00099	89 4e 04	 mov	 DWORD PTR [esi+4], ecx

; 492  : 
; 493  :         if (_Wherenode == _Myhead->_Parent) {

  0009c	8b 0b		 mov	 ecx, DWORD PTR [ebx]
  0009e	3b 41 04	 cmp	 eax, DWORD PTR [ecx+4]
  000a1	75 05		 jne	 SHORT $LN22@Insert_nod

; 494  :             _Myhead->_Parent = _Pnode;

  000a3	89 71 04	 mov	 DWORD PTR [ecx+4], esi
  000a6	eb 0e		 jmp	 SHORT $LN25@Insert_nod
$LN22@Insert_nod:

; 495  :         } else if (_Wherenode == _Wherenode->_Parent->_Left) {

  000a8	8b 4a 04	 mov	 ecx, DWORD PTR [edx+4]
  000ab	3b 01		 cmp	 eax, DWORD PTR [ecx]
  000ad	75 04		 jne	 SHORT $LN24@Insert_nod

; 496  :             _Wherenode->_Parent->_Left = _Pnode;

  000af	89 31		 mov	 DWORD PTR [ecx], esi

; 497  :         } else {

  000b1	eb 03		 jmp	 SHORT $LN25@Insert_nod
$LN24@Insert_nod:

; 498  :             _Wherenode->_Parent->_Right = _Pnode;

  000b3	89 71 08	 mov	 DWORD PTR [ecx+8], esi
$LN25@Insert_nod:

; 499  :         }
; 500  : 
; 501  :         _Pnode->_Left       = _Wherenode;

  000b6	89 06		 mov	 DWORD PTR [esi], eax

; 502  :         _Wherenode->_Parent = _Pnode;

  000b8	89 70 04	 mov	 DWORD PTR [eax+4], esi
$LN57@Insert_nod:

; 707  :                         _Lrotate(_Pnode);
; 708  :                     }
; 709  : 
; 710  :                     _Pnode->_Parent->_Color          = _Black; // propagate red up

  000bb	8b 48 04	 mov	 ecx, DWORD PTR [eax+4]
  000be	c6 41 0c 01	 mov	 BYTE PTR [ecx+12], 1

; 711  :                     _Pnode->_Parent->_Parent->_Color = _Red;

  000c2	8b 48 04	 mov	 ecx, DWORD PTR [eax+4]
  000c5	8b 49 04	 mov	 ecx, DWORD PTR [ecx+4]
  000c8	c6 41 0c 00	 mov	 BYTE PTR [ecx+12], 0

; 712  :                     _Rrotate(_Pnode->_Parent->_Parent);

  000cc	8b 48 04	 mov	 ecx, DWORD PTR [eax+4]
  000cf	8b 51 04	 mov	 edx, DWORD PTR [ecx+4]

; 506  :         _Nodeptr _Pnode   = _Wherenode->_Left;

  000d2	8b 32		 mov	 esi, DWORD PTR [edx]

; 507  :         _Wherenode->_Left = _Pnode->_Right;

  000d4	8b 4e 08	 mov	 ecx, DWORD PTR [esi+8]
  000d7	89 0a		 mov	 DWORD PTR [edx], ecx

; 508  : 
; 509  :         if (!_Pnode->_Right->_Isnil) {

  000d9	8b 4e 08	 mov	 ecx, DWORD PTR [esi+8]
  000dc	80 79 0d 00	 cmp	 BYTE PTR [ecx+13], 0
  000e0	75 03		 jne	 SHORT $LN29@Insert_nod

; 510  :             _Pnode->_Right->_Parent = _Wherenode;

  000e2	89 51 04	 mov	 DWORD PTR [ecx+4], edx
$LN29@Insert_nod:

; 511  :         }
; 512  : 
; 513  :         _Pnode->_Parent = _Wherenode->_Parent;

  000e5	8b 4a 04	 mov	 ecx, DWORD PTR [edx+4]
  000e8	89 4e 04	 mov	 DWORD PTR [esi+4], ecx

; 514  : 
; 515  :         if (_Wherenode == _Myhead->_Parent) {

  000eb	8b 0b		 mov	 ecx, DWORD PTR [ebx]
  000ed	3b 51 04	 cmp	 edx, DWORD PTR [ecx+4]
  000f0	75 0b		 jne	 SHORT $LN30@Insert_nod

; 516  :             _Myhead->_Parent = _Pnode;

  000f2	89 71 04	 mov	 DWORD PTR [ecx+4], esi

; 521  :         }
; 522  : 
; 523  :         _Pnode->_Right      = _Wherenode;

  000f5	89 56 08	 mov	 DWORD PTR [esi+8], edx

; 713  :                 }
; 714  :             } else { // fixup red-red in right subtree

  000f8	e9 cc 00 00 00	 jmp	 $LN81@Insert_nod
$LN30@Insert_nod:

; 517  :         } else if (_Wherenode == _Wherenode->_Parent->_Right) {

  000fd	8b 4a 04	 mov	 ecx, DWORD PTR [edx+4]
  00100	3b 51 08	 cmp	 edx, DWORD PTR [ecx+8]
  00103	75 0b		 jne	 SHORT $LN32@Insert_nod

; 518  :             _Wherenode->_Parent->_Right = _Pnode;

  00105	89 71 08	 mov	 DWORD PTR [ecx+8], esi

; 521  :         }
; 522  : 
; 523  :         _Pnode->_Right      = _Wherenode;

  00108	89 56 08	 mov	 DWORD PTR [esi+8], edx

; 713  :                 }
; 714  :             } else { // fixup red-red in right subtree

  0010b	e9 b9 00 00 00	 jmp	 $LN81@Insert_nod
$LN32@Insert_nod:

; 520  :             _Wherenode->_Parent->_Left = _Pnode;

  00110	89 31		 mov	 DWORD PTR [ecx], esi

; 521  :         }
; 522  : 
; 523  :         _Pnode->_Right      = _Wherenode;

  00112	89 56 08	 mov	 DWORD PTR [esi+8], edx

; 713  :                 }
; 714  :             } else { // fixup red-red in right subtree

  00115	e9 af 00 00 00	 jmp	 $LN81@Insert_nod
$LN10@Insert_nod:

; 715  :                 const auto _Parent_sibling = _Pnode->_Parent->_Parent->_Left;
; 716  :                 if (_Parent_sibling->_Color == _Red) { // parent's sibling has two red children, blacken both

  0011a	80 79 0c 00	 cmp	 BYTE PTR [ecx+12], 0
  0011e	75 1d		 jne	 SHORT $LN15@Insert_nod
$LN82@Insert_nod:

; 693  :             }
; 694  :         }
; 695  : 
; 696  :         for (_Nodeptr _Pnode = _Newnode; _Pnode->_Parent->_Color == _Red;) {

  00120	c6 42 0c 01	 mov	 BYTE PTR [edx+12], 1
  00124	c6 41 0c 01	 mov	 BYTE PTR [ecx+12], 1
  00128	8b 48 04	 mov	 ecx, DWORD PTR [eax+4]
  0012b	8b 49 04	 mov	 ecx, DWORD PTR [ecx+4]
  0012e	c6 41 0c 00	 mov	 BYTE PTR [ecx+12], 0
  00132	8b 48 04	 mov	 ecx, DWORD PTR [eax+4]
  00135	8b 41 04	 mov	 eax, DWORD PTR [ecx+4]
  00138	e9 8f 00 00 00	 jmp	 $LN2@Insert_nod
$LN15@Insert_nod:

; 717  :                     _Pnode->_Parent->_Color          = _Black;
; 718  :                     _Parent_sibling->_Color          = _Black;
; 719  :                     _Pnode->_Parent->_Parent->_Color = _Red;
; 720  :                     _Pnode                           = _Pnode->_Parent->_Parent;
; 721  :                 } else { // parent's sibling has red and black children
; 722  :                     if (_Pnode == _Pnode->_Parent->_Left) { // rotate left child to right

  0013d	8b 32		 mov	 esi, DWORD PTR [edx]
  0013f	3b c6		 cmp	 eax, esi
  00141	75 3a		 jne	 SHORT $LN42@Insert_nod

; 507  :         _Wherenode->_Left = _Pnode->_Right;

  00143	8b 4e 08	 mov	 ecx, DWORD PTR [esi+8]

; 723  :                         _Pnode = _Pnode->_Parent;

  00146	8b c2		 mov	 eax, edx

; 507  :         _Wherenode->_Left = _Pnode->_Right;

  00148	89 08		 mov	 DWORD PTR [eax], ecx

; 508  : 
; 509  :         if (!_Pnode->_Right->_Isnil) {

  0014a	8b 4e 08	 mov	 ecx, DWORD PTR [esi+8]
  0014d	80 79 0d 00	 cmp	 BYTE PTR [ecx+13], 0
  00151	75 03		 jne	 SHORT $LN37@Insert_nod

; 510  :             _Pnode->_Right->_Parent = _Wherenode;

  00153	89 41 04	 mov	 DWORD PTR [ecx+4], eax
$LN37@Insert_nod:

; 511  :         }
; 512  : 
; 513  :         _Pnode->_Parent = _Wherenode->_Parent;

  00156	8b 4a 04	 mov	 ecx, DWORD PTR [edx+4]
  00159	89 4e 04	 mov	 DWORD PTR [esi+4], ecx

; 514  : 
; 515  :         if (_Wherenode == _Myhead->_Parent) {

  0015c	8b 0b		 mov	 ecx, DWORD PTR [ebx]
  0015e	3b 41 04	 cmp	 eax, DWORD PTR [ecx+4]
  00161	75 05		 jne	 SHORT $LN38@Insert_nod

; 516  :             _Myhead->_Parent = _Pnode;

  00163	89 71 04	 mov	 DWORD PTR [ecx+4], esi
  00166	eb 0f		 jmp	 SHORT $LN41@Insert_nod
$LN38@Insert_nod:

; 517  :         } else if (_Wherenode == _Wherenode->_Parent->_Right) {

  00168	8b 4a 04	 mov	 ecx, DWORD PTR [edx+4]
  0016b	3b 41 08	 cmp	 eax, DWORD PTR [ecx+8]
  0016e	75 05		 jne	 SHORT $LN40@Insert_nod

; 518  :             _Wherenode->_Parent->_Right = _Pnode;

  00170	89 71 08	 mov	 DWORD PTR [ecx+8], esi

; 519  :         } else {

  00173	eb 02		 jmp	 SHORT $LN41@Insert_nod
$LN40@Insert_nod:

; 520  :             _Wherenode->_Parent->_Left = _Pnode;

  00175	89 31		 mov	 DWORD PTR [ecx], esi
$LN41@Insert_nod:

; 521  :         }
; 522  : 
; 523  :         _Pnode->_Right      = _Wherenode;

  00177	89 46 08	 mov	 DWORD PTR [esi+8], eax

; 524  :         _Wherenode->_Parent = _Pnode;

  0017a	89 70 04	 mov	 DWORD PTR [eax+4], esi
$LN42@Insert_nod:

; 724  :                         _Rrotate(_Pnode);
; 725  :                     }
; 726  : 
; 727  :                     _Pnode->_Parent->_Color          = _Black; // propagate red up

  0017d	8b 48 04	 mov	 ecx, DWORD PTR [eax+4]
  00180	c6 41 0c 01	 mov	 BYTE PTR [ecx+12], 1

; 728  :                     _Pnode->_Parent->_Parent->_Color = _Red;

  00184	8b 48 04	 mov	 ecx, DWORD PTR [eax+4]
  00187	8b 49 04	 mov	 ecx, DWORD PTR [ecx+4]
  0018a	c6 41 0c 00	 mov	 BYTE PTR [ecx+12], 0

; 729  :                     _Lrotate(_Pnode->_Parent->_Parent);

  0018e	8b 48 04	 mov	 ecx, DWORD PTR [eax+4]
  00191	8b 51 04	 mov	 edx, DWORD PTR [ecx+4]

; 484  :         _Nodeptr _Pnode    = _Wherenode->_Right;

  00194	8b 72 08	 mov	 esi, DWORD PTR [edx+8]

; 485  :         _Wherenode->_Right = _Pnode->_Left;

  00197	8b 0e		 mov	 ecx, DWORD PTR [esi]
  00199	89 4a 08	 mov	 DWORD PTR [edx+8], ecx

; 486  : 
; 487  :         if (!_Pnode->_Left->_Isnil) {

  0019c	8b 0e		 mov	 ecx, DWORD PTR [esi]
  0019e	80 79 0d 00	 cmp	 BYTE PTR [ecx+13], 0
  001a2	75 03		 jne	 SHORT $LN45@Insert_nod

; 488  :             _Pnode->_Left->_Parent = _Wherenode;

  001a4	89 51 04	 mov	 DWORD PTR [ecx+4], edx
$LN45@Insert_nod:

; 489  :         }
; 490  : 
; 491  :         _Pnode->_Parent = _Wherenode->_Parent;

  001a7	8b 4a 04	 mov	 ecx, DWORD PTR [edx+4]
  001aa	89 4e 04	 mov	 DWORD PTR [esi+4], ecx

; 492  : 
; 493  :         if (_Wherenode == _Myhead->_Parent) {

  001ad	8b 0b		 mov	 ecx, DWORD PTR [ebx]
  001af	3b 51 04	 cmp	 edx, DWORD PTR [ecx+4]
  001b2	75 05		 jne	 SHORT $LN46@Insert_nod

; 494  :             _Myhead->_Parent = _Pnode;

  001b4	89 71 04	 mov	 DWORD PTR [ecx+4], esi
  001b7	eb 0e		 jmp	 SHORT $LN49@Insert_nod
$LN46@Insert_nod:

; 495  :         } else if (_Wherenode == _Wherenode->_Parent->_Left) {

  001b9	8b 4a 04	 mov	 ecx, DWORD PTR [edx+4]
  001bc	3b 11		 cmp	 edx, DWORD PTR [ecx]
  001be	75 04		 jne	 SHORT $LN48@Insert_nod

; 496  :             _Wherenode->_Parent->_Left = _Pnode;

  001c0	89 31		 mov	 DWORD PTR [ecx], esi

; 497  :         } else {

  001c2	eb 03		 jmp	 SHORT $LN49@Insert_nod
$LN48@Insert_nod:

; 498  :             _Wherenode->_Parent->_Right = _Pnode;

  001c4	89 71 08	 mov	 DWORD PTR [ecx+8], esi
$LN49@Insert_nod:

; 499  :         }
; 500  : 
; 501  :         _Pnode->_Left       = _Wherenode;

  001c7	89 16		 mov	 DWORD PTR [esi], edx
$LN81@Insert_nod:

; 693  :             }
; 694  :         }
; 695  : 
; 696  :         for (_Nodeptr _Pnode = _Newnode; _Pnode->_Parent->_Color == _Red;) {

  001c9	89 72 04	 mov	 DWORD PTR [edx+4], esi
$LN2@Insert_nod:
  001cc	8b 48 04	 mov	 ecx, DWORD PTR [eax+4]
  001cf	80 79 0c 00	 cmp	 BYTE PTR [ecx+12], 0
  001d3	0f 84 87 fe ff
	ff		 je	 $LL4@Insert_nod
  001d9	5e		 pop	 esi
$LN3@Insert_nod:

; 730  :                 }
; 731  :             }
; 732  :         }
; 733  : 
; 734  :         _Head->_Parent->_Color = _Black; // root is always black

  001da	8b 45 fc	 mov	 eax, DWORD PTR __Head$1$[ebp]
  001dd	8b 40 04	 mov	 eax, DWORD PTR [eax+4]
  001e0	c6 40 0c 01	 mov	 BYTE PTR [eax+12], 1

; 735  :         return _Newnode;
; 736  :     }

  001e4	8b c7		 mov	 eax, edi
  001e6	5f		 pop	 edi
  001e7	5b		 pop	 ebx
  001e8	8b e5		 mov	 esp, ebp
  001ea	5d		 pop	 ebp
  001eb	c2 0c 00	 ret	 12			; 0000000cH
?_Insert_node@?$_Tree_val@U?$_Tree_simple_types@U?$pair@$$CBKV?$CStringT@DV?$StrTraitMFC@DV?$ChTraitsCRT@D@ATL@@@@@ATL@@@std@@@std@@@std@@QAEPAU?$_Tree_node@U?$pair@$$CBKV?$CStringT@DV?$StrTraitMFC@DV?$ChTraitsCRT@D@ATL@@@@@ATL@@@std@@PAX@2@U?$_Tree_id@PAU?$_Tree_node@U?$pair@$$CBKV?$CStringT@DV?$StrTraitMFC@DV?$ChTraitsCRT@D@ATL@@@@@ATL@@@std@@PAX@std@@@2@QAU32@@Z ENDP ; std::_Tree_val<std::_Tree_simple_types<std::pair<unsigned long const ,ATL::CStringT<char,StrTraitMFC<char,ATL::ChTraitsCRT<char> > > > > >::_Insert_node
_TEXT	ENDS
; Function compile flags: /Ogtp
; File C:\Program Files\Microsoft Visual Studio\2022\Professional\VC\Tools\MSVC\14.44.35207\include\xtree
; File C:\Program Files\Microsoft Visual Studio\2022\Professional\VC\Tools\MSVC\14.44.35207\include\type_traits
; File C:\Program Files\Microsoft Visual Studio\2022\Professional\VC\Tools\MSVC\14.44.35207\include\xtree
; File C:\Program Files\Microsoft Visual Studio\2022\Professional\VC\Tools\MSVC\14.44.35207\include\utility
; File C:\Program Files\Microsoft Visual Studio\2022\Professional\VC\Tools\MSVC\14.44.35207\include\xtree
; File C:\Program Files\Microsoft Visual Studio\2022\Professional\VC\Tools\MSVC\14.44.35207\include\xmemory
; File C:\Program Files\Microsoft Visual Studio\2022\Professional\VC\Tools\MSVC\14.44.35207\include\xtree
; File C:\Program Files\Microsoft Visual Studio\2022\Professional\VC\Tools\MSVC\14.44.35207\include\xmemory
; File C:\Program Files\Microsoft Visual Studio\2022\Professional\VC\Tools\MSVC\14.44.35207\include\xtree
; File C:\Program Files\Microsoft Visual Studio\2022\Professional\VC\Tools\MSVC\14.44.35207\include\xmemory
; File C:\Program Files\Microsoft Visual Studio\2022\Professional\VC\Tools\MSVC\14.44.35207\include\xtree
; File C:\Program Files\Microsoft Visual Studio\2022\Professional\VC\Tools\MSVC\14.44.35207\include\utility
; File C:\Program Files\Microsoft Visual Studio\2022\Professional\VC\Tools\MSVC\14.44.35207\include\xtree
;	COMDAT ??$insert@$0A@$0A@@?$_Tree@V?$_Tmap_traits@KP8CDPCoreClient@@AEXAAVCAr@@KKK@ZU?$less@K@std@@V?$allocator@U?$pair@$$CBKP8CDPCoreClient@@AEXAAVCAr@@KKK@Z@std@@@4@$0A@@std@@@std@@QAE?AU?$pair@V?$_Tree_iterator@V?$_Tree_val@U?$_Tree_simple_types@U?$pair@$$CBKP8CDPCoreClient@@AEXAAVCAr@@KKK@Z@std@@@std@@@std@@@std@@_N@1@$$QAU?$pair@$$CBKP8CDPCoreClient@@AEXAAVCAr@@KKK@Z@1@@Z
_TEXT	SEGMENT
__Loc$2 = -36						; size = 12
$T3 = -24						; size = 12
$T4 = -20						; size = 8
__$EHRec$ = -12						; size = 12
___$ReturnUdt$ = 8					; size = 4
__Val$ = 12						; size = 4
??$insert@$0A@$0A@@?$_Tree@V?$_Tmap_traits@KP8CDPCoreClient@@AEXAAVCAr@@KKK@ZU?$less@K@std@@V?$allocator@U?$pair@$$CBKP8CDPCoreClient@@AEXAAVCAr@@KKK@Z@std@@@4@$0A@@std@@@std@@QAE?AU?$pair@V?$_Tree_iterator@V?$_Tree_val@U?$_Tree_simple_types@U?$pair@$$CBKP8CDPCoreClient@@AEXAAVCAr@@KKK@Z@std@@@std@@@std@@@std@@_N@1@$$QAU?$pair@$$CBKP8CDPCoreClient@@AEXAAVCAr@@KKK@Z@1@@Z PROC ; std::_Tree<std::_Tmap_traits<unsigned long,void (__thiscall CDPCoreClient::*)(CAr &,unsigned long,unsigned long,unsigned long),std::less<unsigned long>,std::allocator<std::pair<unsigned long const ,void (__thiscall CDPCoreClient::*)(CAr &,unsigned long,unsigned long,unsigned long)> >,0> >::insert<0,0>, COMDAT
; _this$ = ecx

; 1245 :     pair<iterator, bool> insert(value_type&& _Val) {

  00000	55		 push	 ebp
  00001	8b ec		 mov	 ebp, esp
  00003	6a ff		 push	 -1
  00005	68 00 00 00 00	 push	 __ehhandler$??$insert@$0A@$0A@@?$_Tree@V?$_Tmap_traits@KP8CDPCoreClient@@AEXAAVCAr@@KKK@ZU?$less@K@std@@V?$allocator@U?$pair@$$CBKP8CDPCoreClient@@AEXAAVCAr@@KKK@Z@std@@@4@$0A@@std@@@std@@QAE?AU?$pair@V?$_Tree_iterator@V?$_Tree_val@U?$_Tree_simple_types@U?$pair@$$CBKP8CDPCoreClient@@AEXAAVCAr@@KKK@Z@std@@@std@@@std@@@std@@_N@1@$$QAU?$pair@$$CBKP8CDPCoreClient@@AEXAAVCAr@@KKK@Z@1@@Z
  0000a	64 a1 00 00 00
	00		 mov	 eax, DWORD PTR fs:0
  00010	50		 push	 eax
  00011	83 ec 18	 sub	 esp, 24			; 00000018H
  00014	53		 push	 ebx
  00015	56		 push	 esi
  00016	57		 push	 edi
  00017	a1 00 00 00 00	 mov	 eax, DWORD PTR ___security_cookie
  0001c	33 c5		 xor	 eax, ebp
  0001e	50		 push	 eax
  0001f	8d 45 f4	 lea	 eax, DWORD PTR __$EHRec$[ebp]
  00022	64 a3 00 00 00
	00		 mov	 DWORD PTR fs:0, eax
  00028	8b f9		 mov	 edi, ecx

; 1017 :             _Loc                = _Find_lower_bound(_Keyval);

  0002a	8b 5d 0c	 mov	 ebx, DWORD PTR __Val$[ebp]
  0002d	8d 45 e8	 lea	 eax, DWORD PTR $T3[ebp]
  00030	53		 push	 ebx
  00031	50		 push	 eax
  00032	e8 00 00 00 00	 call	 ??$_Find_lower_bound@K@?$_Tree@V?$_Tmap_traits@KP8CDPCoreClient@@AEXAAVCAr@@KKK@ZU?$less@K@std@@V?$allocator@U?$pair@$$CBKP8CDPCoreClient@@AEXAAVCAr@@KKK@Z@std@@@4@$0A@@std@@@std@@IBE?AU?$_Tree_find_result@PAU?$_Tree_node@U?$pair@$$CBKP8CDPCoreClient@@AEXAAVCAr@@KKK@Z@std@@PAX@std@@@1@ABK@Z ; std::_Tree<std::_Tmap_traits<unsigned long,void (__thiscall CDPCoreClient::*)(CAr &,unsigned long,unsigned long,unsigned long),std::less<unsigned long>,std::allocator<std::pair<unsigned long const ,void (__thiscall CDPCoreClient::*)(CAr &,unsigned long,unsigned long,unsigned long)> >,0> >::_Find_lower_bound<unsigned long>
  00037	8b 48 08	 mov	 ecx, DWORD PTR [eax+8]
  0003a	f3 0f 7e 00	 movq	 xmm0, QWORD PTR [eax]
  0003e	66 0f d6 45 dc	 movq	 QWORD PTR __Loc$2[ebp], xmm0

; 1624 :         return !_Bound->_Isnil && !_DEBUG_LT_PRED(_Getcomp(), _Keyval, _Traits::_Kfn(_Bound->_Myval));

  00043	80 79 0d 00	 cmp	 BYTE PTR [ecx+13], 0
  00047	75 0b		 jne	 SHORT $LN4@insert
; File C:\Program Files\Microsoft Visual Studio\2022\Professional\VC\Tools\MSVC\14.44.35207\include\type_traits

; 2380 :         return _Left < _Right;

  00049	8b 03		 mov	 eax, DWORD PTR [ebx]
  0004b	3b 41 10	 cmp	 eax, DWORD PTR [ecx+16]
; File C:\Program Files\Microsoft Visual Studio\2022\Professional\VC\Tools\MSVC\14.44.35207\include\xtree

; 1624 :         return !_Bound->_Isnil && !_DEBUG_LT_PRED(_Getcomp(), _Keyval, _Traits::_Kfn(_Bound->_Myval));

  0004e	72 04		 jb	 SHORT $LN4@insert
; File C:\Program Files\Microsoft Visual Studio\2022\Professional\VC\Tools\MSVC\14.44.35207\include\utility

; 274  :         : first(_STD forward<_Other1>(_Val1)), second(_STD forward<_Other2>(_Val2)) {

  00050	32 d2		 xor	 dl, dl
; File C:\Program Files\Microsoft Visual Studio\2022\Professional\VC\Tools\MSVC\14.44.35207\include\xtree

; 1019 :                 return {_Loc._Bound, false};

  00052	eb 51		 jmp	 SHORT $LN84@insert
$LN4@insert:

; 1648 :         if (max_size() == _Get_scary()->_Mysize) {

  00054	81 7f 04 aa aa
	aa 0a		 cmp	 DWORD PTR [edi+4], 178956970 ; 0aaaaaaaH
  0005b	74 64		 je	 SHORT $LN103@insert

; 1023 :             _Inserted = _Tree_temp_node<_Alnode>(_Getal(), _Scary->_Myhead, _STD forward<_Valtys>(_Vals)...)._Release();

  0005d	8b 37		 mov	 esi, DWORD PTR [edi]
; File C:\Program Files\Microsoft Visual Studio\2022\Professional\VC\Tools\MSVC\14.44.35207\include\xmemory

; 1160 :     _CONSTEXPR20 explicit _Alloc_construct_ptr(_Alloc& _Al_) : _Al(_Al_), _Ptr(nullptr) {}

  0005f	89 7d ec	 mov	 DWORD PTR $T4[ebp], edi

; 136  :         return ::operator new(_Bytes);

  00062	6a 18		 push	 24			; 00000018H
; File C:\Program Files\Microsoft Visual Studio\2022\Professional\VC\Tools\MSVC\14.44.35207\include\xtree

; 808  :     explicit _Tree_temp_node_alloc(_Alnode& _Al_) : _Alloc_construct_ptr<_Alnode>(_Al_) {

  00064	c7 45 fc 00 00
	00 00		 mov	 DWORD PTR __$EHRec$[ebp+8], 0
; File C:\Program Files\Microsoft Visual Studio\2022\Professional\VC\Tools\MSVC\14.44.35207\include\xmemory

; 1167 :         _Ptr = nullptr; // if allocate throws, prevents double-free

  0006b	c7 45 f0 00 00
	00 00		 mov	 DWORD PTR $T4[ebp+4], 0

; 136  :         return ::operator new(_Bytes);

  00072	e8 00 00 00 00	 call	 ??2@YAPAXI@Z		; operator new
; File C:\Program Files\Microsoft Visual Studio\2022\Professional\VC\Tools\MSVC\14.44.35207\include\xtree

; 830  :         _Alnode_traits::construct(this->_Al, _STD addressof(this->_Ptr->_Myval), _STD forward<_Valtys>(_Vals)...);

  00077	8b 0b		 mov	 ecx, DWORD PTR [ebx]
; File C:\Program Files\Microsoft Visual Studio\2022\Professional\VC\Tools\MSVC\14.44.35207\include\xmemory

; 136  :         return ::operator new(_Bytes);

  00079	83 c4 04	 add	 esp, 4
; File C:\Program Files\Microsoft Visual Studio\2022\Professional\VC\Tools\MSVC\14.44.35207\include\xtree

; 830  :         _Alnode_traits::construct(this->_Al, _STD addressof(this->_Ptr->_Myval), _STD forward<_Valtys>(_Vals)...);

  0007c	8b 53 04	 mov	 edx, DWORD PTR [ebx+4]
  0007f	89 48 10	 mov	 DWORD PTR [eax+16], ecx

; 1042 :         return {_Scary->_Insert_node(_Loc._Location, _Inserted), true};

  00082	8b cf		 mov	 ecx, edi
  00084	50		 push	 eax
  00085	ff 75 e0	 push	 DWORD PTR __Loc$2[ebp+4]

; 830  :         _Alnode_traits::construct(this->_Al, _STD addressof(this->_Ptr->_Myval), _STD forward<_Valtys>(_Vals)...);

  00088	89 50 14	 mov	 DWORD PTR [eax+20], edx

; 1042 :         return {_Scary->_Insert_node(_Loc._Location, _Inserted), true};

  0008b	ff 75 dc	 push	 DWORD PTR __Loc$2[ebp]

; 831  :         _Construct_in_place(this->_Ptr->_Left, _Myhead);

  0008e	89 30		 mov	 DWORD PTR [eax], esi

; 832  :         _Construct_in_place(this->_Ptr->_Parent, _Myhead);

  00090	89 70 04	 mov	 DWORD PTR [eax+4], esi

; 833  :         _Construct_in_place(this->_Ptr->_Right, _Myhead);

  00093	89 70 08	 mov	 DWORD PTR [eax+8], esi

; 834  :         this->_Ptr->_Color = _Red;

  00096	66 c7 40 0c 00
	00		 mov	 WORD PTR [eax+12], 0

; 1042 :         return {_Scary->_Insert_node(_Loc._Location, _Inserted), true};

  0009c	e8 00 00 00 00	 call	 ?_Insert_node@?$_Tree_val@U?$_Tree_simple_types@U?$pair@$$CBKP8CDPCoreClient@@AEXAAVCAr@@KKK@Z@std@@@std@@@std@@QAEPAU?$_Tree_node@U?$pair@$$CBKP8CDPCoreClient@@AEXAAVCAr@@KKK@Z@std@@PAX@2@U?$_Tree_id@PAU?$_Tree_node@U?$pair@$$CBKP8CDPCoreClient@@AEXAAVCAr@@KKK@Z@std@@PAX@std@@@2@QAU32@@Z ; std::_Tree_val<std::_Tree_simple_types<std::pair<unsigned long const ,void (__thiscall CDPCoreClient::*)(CAr &,unsigned long,unsigned long,unsigned long)> > >::_Insert_node
; File C:\Program Files\Microsoft Visual Studio\2022\Professional\VC\Tools\MSVC\14.44.35207\include\utility

; 274  :         : first(_STD forward<_Other1>(_Val1)), second(_STD forward<_Other2>(_Val2)) {

  000a1	8b c8		 mov	 ecx, eax
  000a3	b2 01		 mov	 dl, 1
$LN84@insert:
  000a5	8b 45 08	 mov	 eax, DWORD PTR ___$ReturnUdt$[ebp]
  000a8	89 08		 mov	 DWORD PTR [eax], ecx
  000aa	88 50 04	 mov	 BYTE PTR [eax+4], dl
; File C:\Program Files\Microsoft Visual Studio\2022\Professional\VC\Tools\MSVC\14.44.35207\include\xtree

; 1248 :     }

  000ad	8b 4d f4	 mov	 ecx, DWORD PTR __$EHRec$[ebp]
  000b0	64 89 0d 00 00
	00 00		 mov	 DWORD PTR fs:0, ecx
  000b7	59		 pop	 ecx
  000b8	5f		 pop	 edi
  000b9	5e		 pop	 esi
  000ba	5b		 pop	 ebx
  000bb	8b e5		 mov	 esp, ebp
  000bd	5d		 pop	 ebp
  000be	c2 08 00	 ret	 8
$LN103@insert:

; 1649 :             _Throw_tree_length_error();

  000c1	e8 00 00 00 00	 call	 ?_Throw_tree_length_error@std@@YAXXZ ; std::_Throw_tree_length_error
$LN101@insert:
  000c6	cc		 int	 3
_TEXT	ENDS
;	COMDAT text$x
text$x	SEGMENT
__unwindfunclet$??$insert@$0A@$0A@@?$_Tree@V?$_Tmap_traits@KP8CDPCoreClient@@AEXAAVCAr@@KKK@ZU?$less@K@std@@V?$allocator@U?$pair@$$CBKP8CDPCoreClient@@AEXAAVCAr@@KKK@Z@std@@@4@$0A@@std@@@std@@QAE?AU?$pair@V?$_Tree_iterator@V?$_Tree_val@U?$_Tree_simple_types@U?$pair@$$CBKP8CDPCoreClient@@AEXAAVCAr@@KKK@Z@std@@@std@@@std@@@std@@_N@1@$$QAU?$pair@$$CBKP8CDPCoreClient@@AEXAAVCAr@@KKK@Z@1@@Z$2:
  00000	8d 4d ec	 lea	 ecx, DWORD PTR $T4[ebp]
  00003	e9 00 00 00 00	 jmp	 ??1?$_Alloc_construct_ptr@V?$allocator@U?$_Tree_node@U?$pair@$$CBKP8CDPCoreClient@@AEXAAVCAr@@KKK@Z@std@@PAX@std@@@std@@@std@@QAE@XZ ; std::_Alloc_construct_ptr<std::allocator<std::_Tree_node<std::pair<unsigned long const ,void (__thiscall CDPCoreClient::*)(CAr &,unsigned long,unsigned long,unsigned long)>,void *> > >::~_Alloc_construct_ptr<std::allocator<std::_Tree_node<std::pair<unsigned long const ,void (__thiscall CDPCoreClient::*)(CAr &,unsigned long,unsigned long,unsigned long)>,void *> > >
  00008	cc		 int	 3
  00009	cc		 int	 3
  0000a	cc		 int	 3
  0000b	cc		 int	 3
  0000c	cc		 int	 3
__ehhandler$??$insert@$0A@$0A@@?$_Tree@V?$_Tmap_traits@KP8CDPCoreClient@@AEXAAVCAr@@KKK@ZU?$less@K@std@@V?$allocator@U?$pair@$$CBKP8CDPCoreClient@@AEXAAVCAr@@KKK@Z@std@@@4@$0A@@std@@@std@@QAE?AU?$pair@V?$_Tree_iterator@V?$_Tree_val@U?$_Tree_simple_types@U?$pair@$$CBKP8CDPCoreClient@@AEXAAVCAr@@KKK@Z@std@@@std@@@std@@@std@@_N@1@$$QAU?$pair@$$CBKP8CDPCoreClient@@AEXAAVCAr@@KKK@Z@1@@Z:
  0000d	90		 npad	 1
  0000e	90		 npad	 1
  0000f	8b 54 24 08	 mov	 edx, DWORD PTR [esp+8]
  00013	8d 42 0c	 lea	 eax, DWORD PTR [edx+12]
  00016	8b 4a d8	 mov	 ecx, DWORD PTR [edx-40]
  00019	33 c8		 xor	 ecx, eax
  0001b	e8 00 00 00 00	 call	 @__security_check_cookie@4
  00020	b8 00 00 00 00	 mov	 eax, OFFSET __ehfuncinfo$??$insert@$0A@$0A@@?$_Tree@V?$_Tmap_traits@KP8CDPCoreClient@@AEXAAVCAr@@KKK@ZU?$less@K@std@@V?$allocator@U?$pair@$$CBKP8CDPCoreClient@@AEXAAVCAr@@KKK@Z@std@@@4@$0A@@std@@@std@@QAE?AU?$pair@V?$_Tree_iterator@V?$_Tree_val@U?$_Tree_simple_types@U?$pair@$$CBKP8CDPCoreClient@@AEXAAVCAr@@KKK@Z@std@@@std@@@std@@@std@@_N@1@$$QAU?$pair@$$CBKP8CDPCoreClient@@AEXAAVCAr@@KKK@Z@1@@Z
  00025	e9 00 00 00 00	 jmp	 ___CxxFrameHandler3
text$x	ENDS
??$insert@$0A@$0A@@?$_Tree@V?$_Tmap_traits@KP8CDPCoreClient@@AEXAAVCAr@@KKK@ZU?$less@K@std@@V?$allocator@U?$pair@$$CBKP8CDPCoreClient@@AEXAAVCAr@@KKK@Z@std@@@4@$0A@@std@@@std@@QAE?AU?$pair@V?$_Tree_iterator@V?$_Tree_val@U?$_Tree_simple_types@U?$pair@$$CBKP8CDPCoreClient@@AEXAAVCAr@@KKK@Z@std@@@std@@@std@@@std@@_N@1@$$QAU?$pair@$$CBKP8CDPCoreClient@@AEXAAVCAr@@KKK@Z@1@@Z ENDP ; std::_Tree<std::_Tmap_traits<unsigned long,void (__thiscall CDPCoreClient::*)(CAr &,unsigned long,unsigned long,unsigned long),std::less<unsigned long>,std::allocator<std::pair<unsigned long const ,void (__thiscall CDPCoreClient::*)(CAr &,unsigned long,unsigned long,unsigned long)> >,0> >::insert<0,0>
; Function compile flags: /Ogtp
;	COMDAT ??__Fg_DPCoreClient@@YAXXZ
text$yd	SEGMENT
??__Fg_DPCoreClient@@YAXXZ PROC				; `dynamic atexit destructor for 'g_DPCoreClient'', COMDAT
  00000	b9 00 00 00 00	 mov	 ecx, OFFSET ?g_DPCoreClient@@3VCDPCoreClient@@A ; g_DPCoreClient
  00005	e9 00 00 00 00	 jmp	 ??1CDPCoreClient@@UAE@XZ ; CDPCoreClient::~CDPCoreClient
??__Fg_DPCoreClient@@YAXXZ ENDP				; `dynamic atexit destructor for 'g_DPCoreClient''
text$yd	ENDS
; Function compile flags: /Ogtp
; File C:\IAGOS\server\v18\Source\Source\WorldServer\DPCoreClient.cpp
;	COMDAT ??__Eg_DPCoreClient@@YAXXZ
text$di	SEGMENT
??__Eg_DPCoreClient@@YAXXZ PROC				; `dynamic initializer for 'g_DPCoreClient'', COMDAT

; 56   : CDPCoreClient	g_DPCoreClient;

  00000	b9 00 00 00 00	 mov	 ecx, OFFSET ?g_DPCoreClient@@3VCDPCoreClient@@A ; g_DPCoreClient
  00005	e8 00 00 00 00	 call	 ??0CDPCoreClient@@QAE@XZ ; CDPCoreClient::CDPCoreClient
  0000a	68 00 00 00 00	 push	 OFFSET ??__Fg_DPCoreClient@@YAXXZ ; `dynamic atexit destructor for 'g_DPCoreClient''
  0000f	e8 00 00 00 00	 call	 _atexit
  00014	59		 pop	 ecx
  00015	c3		 ret	 0
??__Eg_DPCoreClient@@YAXXZ ENDP				; `dynamic initializer for 'g_DPCoreClient''
text$di	ENDS
; Function compile flags: /Ogtp
; File C:\IAGOS\server\v18\Source\Source\_Network\Misc\Include\ar.h
;	COMDAT ??$?5M@CAr@@QAEAAV0@AAM@Z
_TEXT	SEGMENT
_t$ = 8							; size = 4
??$?5M@CAr@@QAEAAV0@AAM@Z PROC				; CAr::operator>><float>, COMDAT
; _this$ = ecx

; 302  : {

  00000	55		 push	 ebp
  00001	8b ec		 mov	 ebp, esp
  00003	8b d1		 mov	 edx, ecx

; 303  : 	if (m_lpBufCur + sizeof(T) <= m_lpBufMax)

  00005	8b 4a 08	 mov	 ecx, DWORD PTR [edx+8]
  00008	8d 41 04	 lea	 eax, DWORD PTR [ecx+4]
  0000b	3b 42 0c	 cmp	 eax, DWORD PTR [edx+12]
  0000e	8b 45 08	 mov	 eax, DWORD PTR _t$[ebp]
  00011	77 0e		 ja	 SHORT $LN2@operator

; 304  : 	{
; 305  : 		t = *(UNALIGNED T*)m_lpBufCur;

  00013	8b 09		 mov	 ecx, DWORD PTR [ecx]
  00015	89 08		 mov	 DWORD PTR [eax], ecx

; 312  : 	}
; 313  : 	return *this;
; 314  : }

  00017	8b c2		 mov	 eax, edx
  00019	83 42 08 04	 add	 DWORD PTR [edx+8], 4
  0001d	5d		 pop	 ebp
  0001e	c2 04 00	 ret	 4
$LN2@operator:

; 306  : 		m_lpBufCur += sizeof(T);
; 307  : 	}
; 308  : 	else
; 309  : 	{
; 310  : 		t = T();

  00021	c7 00 00 00 00
	00		 mov	 DWORD PTR [eax], 0

; 311  : 		m_lpBufCur = m_lpBufMax;

  00027	8b 42 0c	 mov	 eax, DWORD PTR [edx+12]
  0002a	89 42 08	 mov	 DWORD PTR [edx+8], eax

; 312  : 	}
; 313  : 	return *this;
; 314  : }

  0002d	8b c2		 mov	 eax, edx
  0002f	5d		 pop	 ebp
  00030	c2 04 00	 ret	 4
??$?5M@CAr@@QAEAAV0@AAM@Z ENDP				; CAr::operator>><float>
_TEXT	ENDS
; Function compile flags: /Ogtp
; File C:\IAGOS\server\v18\Source\Source\_Network\Misc\Include\ar.h
;	COMDAT ??$?5UD3DXVECTOR3@@@CAr@@QAEAAV0@AAUD3DXVECTOR3@@@Z
_TEXT	SEGMENT
$T1 = -12						; size = 12
_t$ = 8							; size = 4
??$?5UD3DXVECTOR3@@@CAr@@QAEAAV0@AAUD3DXVECTOR3@@@Z PROC ; CAr::operator>><D3DXVECTOR3>, COMDAT
; _this$ = ecx

; 302  : {

  00000	55		 push	 ebp
  00001	8b ec		 mov	 ebp, esp
  00003	83 ec 0c	 sub	 esp, 12			; 0000000cH
  00006	8b d1		 mov	 edx, ecx

; 303  : 	if (m_lpBufCur + sizeof(T) <= m_lpBufMax)

  00008	8b 4d 08	 mov	 ecx, DWORD PTR _t$[ebp]
  0000b	56		 push	 esi
  0000c	8b 72 08	 mov	 esi, DWORD PTR [edx+8]
  0000f	8d 46 0c	 lea	 eax, DWORD PTR [esi+12]
  00012	3b 42 0c	 cmp	 eax, DWORD PTR [edx+12]
  00015	77 1b		 ja	 SHORT $LN2@operator

; 304  : 	{
; 305  : 		t = *(UNALIGNED T*)m_lpBufCur;

  00017	f3 0f 7e 06	 movq	 xmm0, QWORD PTR [esi]
  0001b	66 0f d6 01	 movq	 QWORD PTR [ecx], xmm0
  0001f	8b 46 08	 mov	 eax, DWORD PTR [esi+8]
  00022	89 41 08	 mov	 DWORD PTR [ecx+8], eax

; 312  : 	}
; 313  : 	return *this;
; 314  : }

  00025	8b c2		 mov	 eax, edx
  00027	83 42 08 0c	 add	 DWORD PTR [edx+8], 12	; 0000000cH
  0002b	5e		 pop	 esi
  0002c	8b e5		 mov	 esp, ebp
  0002e	5d		 pop	 ebp
  0002f	c2 04 00	 ret	 4
$LN2@operator:

; 306  : 		m_lpBufCur += sizeof(T);
; 307  : 	}
; 308  : 	else
; 309  : 	{
; 310  : 		t = T();

  00032	f3 0f 7e 45 f4	 movq	 xmm0, QWORD PTR $T1[ebp]
  00037	8b 45 fc	 mov	 eax, DWORD PTR $T1[ebp+8]
  0003a	66 0f d6 01	 movq	 QWORD PTR [ecx], xmm0
  0003e	89 41 08	 mov	 DWORD PTR [ecx+8], eax

; 311  : 		m_lpBufCur = m_lpBufMax;

  00041	8b 42 0c	 mov	 eax, DWORD PTR [edx+12]
  00044	89 42 08	 mov	 DWORD PTR [edx+8], eax

; 312  : 	}
; 313  : 	return *this;
; 314  : }

  00047	8b c2		 mov	 eax, edx
  00049	5e		 pop	 esi
  0004a	8b e5		 mov	 esp, ebp
  0004c	5d		 pop	 ebp
  0004d	c2 04 00	 ret	 4
??$?5UD3DXVECTOR3@@@CAr@@QAEAAV0@AAUD3DXVECTOR3@@@Z ENDP ; CAr::operator>><D3DXVECTOR3>
_TEXT	ENDS
; Function compile flags: /Ogtp
; File C:\IAGOS\server\v18\Source\Source\_Network\Misc\Include\ar.h
;	COMDAT ??$?5J@CAr@@QAEAAV0@AAJ@Z
_TEXT	SEGMENT
_t$ = 8							; size = 4
??$?5J@CAr@@QAEAAV0@AAJ@Z PROC				; CAr::operator>><long>, COMDAT
; _this$ = ecx

; 302  : {

  00000	55		 push	 ebp
  00001	8b ec		 mov	 ebp, esp
  00003	8b d1		 mov	 edx, ecx

; 303  : 	if (m_lpBufCur + sizeof(T) <= m_lpBufMax)

  00005	8b 4a 08	 mov	 ecx, DWORD PTR [edx+8]
  00008	8d 41 04	 lea	 eax, DWORD PTR [ecx+4]
  0000b	3b 42 0c	 cmp	 eax, DWORD PTR [edx+12]
  0000e	8b 45 08	 mov	 eax, DWORD PTR _t$[ebp]
  00011	77 0e		 ja	 SHORT $LN2@operator

; 304  : 	{
; 305  : 		t = *(UNALIGNED T*)m_lpBufCur;

  00013	8b 09		 mov	 ecx, DWORD PTR [ecx]
  00015	89 08		 mov	 DWORD PTR [eax], ecx

; 312  : 	}
; 313  : 	return *this;
; 314  : }

  00017	8b c2		 mov	 eax, edx
  00019	83 42 08 04	 add	 DWORD PTR [edx+8], 4
  0001d	5d		 pop	 ebp
  0001e	c2 04 00	 ret	 4
$LN2@operator:

; 306  : 		m_lpBufCur += sizeof(T);
; 307  : 	}
; 308  : 	else
; 309  : 	{
; 310  : 		t = T();

  00021	c7 00 00 00 00
	00		 mov	 DWORD PTR [eax], 0

; 311  : 		m_lpBufCur = m_lpBufMax;

  00027	8b 42 0c	 mov	 eax, DWORD PTR [edx+12]
  0002a	89 42 08	 mov	 DWORD PTR [edx+8], eax

; 312  : 	}
; 313  : 	return *this;
; 314  : }

  0002d	8b c2		 mov	 eax, edx
  0002f	5d		 pop	 ebp
  00030	c2 04 00	 ret	 4
??$?5J@CAr@@QAEAAV0@AAJ@Z ENDP				; CAr::operator>><long>
_TEXT	ENDS
; Function compile flags: /Ogtp
; File C:\IAGOS\server\v18\Source\Source\_Network\Misc\Include\ar.h
;	COMDAT ??$?6M@CAr@@QAEAAV0@ABM@Z
_TEXT	SEGMENT
_t$ = 8							; size = 4
??$?6M@CAr@@QAEAAV0@ABM@Z PROC				; CAr::operator<<<float>, COMDAT
; _this$ = ecx

; 255  : {

  00000	55		 push	 ebp
  00001	8b ec		 mov	 ebp, esp
  00003	56		 push	 esi

; 256  : 	CheckBuf(sizeof(T));

  00004	6a 04		 push	 4
  00006	8b f1		 mov	 esi, ecx
  00008	e8 00 00 00 00	 call	 ?CheckBuf@CAr@@QAEXI@Z	; CAr::CheckBuf

; 257  : 	*(UNALIGNED T*)m_lpBufCur = t;

  0000d	8b 56 08	 mov	 edx, DWORD PTR [esi+8]
  00010	8b 45 08	 mov	 eax, DWORD PTR _t$[ebp]
  00013	8b 00		 mov	 eax, DWORD PTR [eax]
  00015	89 02		 mov	 DWORD PTR [edx], eax

; 258  : 	m_lpBufCur += sizeof(T);
; 259  : 	return *this;

  00017	8b c6		 mov	 eax, esi
  00019	83 46 08 04	 add	 DWORD PTR [esi+8], 4
  0001d	5e		 pop	 esi

; 260  : }

  0001e	5d		 pop	 ebp
  0001f	c2 04 00	 ret	 4
??$?6M@CAr@@QAEAAV0@ABM@Z ENDP				; CAr::operator<<<float>
_TEXT	ENDS
; Function compile flags: /Ogtp
; File C:\IAGOS\server\v18\Source\Source\_Network\Misc\Include\ar.h
;	COMDAT ??$?6UD3DXVECTOR3@@@CAr@@QAEAAV0@ABUD3DXVECTOR3@@@Z
_TEXT	SEGMENT
_t$ = 8							; size = 4
??$?6UD3DXVECTOR3@@@CAr@@QAEAAV0@ABUD3DXVECTOR3@@@Z PROC ; CAr::operator<<<D3DXVECTOR3>, COMDAT
; _this$ = ecx

; 255  : {

  00000	55		 push	 ebp
  00001	8b ec		 mov	 ebp, esp
  00003	56		 push	 esi

; 256  : 	CheckBuf(sizeof(T));

  00004	6a 0c		 push	 12			; 0000000cH
  00006	8b f1		 mov	 esi, ecx
  00008	e8 00 00 00 00	 call	 ?CheckBuf@CAr@@QAEXI@Z	; CAr::CheckBuf

; 257  : 	*(UNALIGNED T*)m_lpBufCur = t;

  0000d	8b 56 08	 mov	 edx, DWORD PTR [esi+8]
  00010	8b 45 08	 mov	 eax, DWORD PTR _t$[ebp]
  00013	f3 0f 7e 00	 movq	 xmm0, QWORD PTR [eax]
  00017	66 0f d6 02	 movq	 QWORD PTR [edx], xmm0
  0001b	8b 40 08	 mov	 eax, DWORD PTR [eax+8]
  0001e	89 42 08	 mov	 DWORD PTR [edx+8], eax

; 258  : 	m_lpBufCur += sizeof(T);
; 259  : 	return *this;

  00021	8b c6		 mov	 eax, esi
  00023	83 46 08 0c	 add	 DWORD PTR [esi+8], 12	; 0000000cH
  00027	5e		 pop	 esi

; 260  : }

  00028	5d		 pop	 ebp
  00029	c2 04 00	 ret	 4
??$?6UD3DXVECTOR3@@@CAr@@QAEAAV0@ABUD3DXVECTOR3@@@Z ENDP ; CAr::operator<<<D3DXVECTOR3>
_TEXT	ENDS
; Function compile flags: /Ogtp
; File C:\IAGOS\server\v18\Source\Source\_Network\Misc\Include\ar.h
;	COMDAT ??$?6J@CAr@@QAEAAV0@ABJ@Z
_TEXT	SEGMENT
_t$ = 8							; size = 4
??$?6J@CAr@@QAEAAV0@ABJ@Z PROC				; CAr::operator<<<long>, COMDAT
; _this$ = ecx

; 255  : {

  00000	55		 push	 ebp
  00001	8b ec		 mov	 ebp, esp
  00003	56		 push	 esi

; 256  : 	CheckBuf(sizeof(T));

  00004	6a 04		 push	 4
  00006	8b f1		 mov	 esi, ecx
  00008	e8 00 00 00 00	 call	 ?CheckBuf@CAr@@QAEXI@Z	; CAr::CheckBuf

; 257  : 	*(UNALIGNED T*)m_lpBufCur = t;

  0000d	8b 56 08	 mov	 edx, DWORD PTR [esi+8]
  00010	8b 45 08	 mov	 eax, DWORD PTR _t$[ebp]
  00013	8b 00		 mov	 eax, DWORD PTR [eax]
  00015	89 02		 mov	 DWORD PTR [edx], eax

; 258  : 	m_lpBufCur += sizeof(T);
; 259  : 	return *this;

  00017	8b c6		 mov	 eax, esi
  00019	83 46 08 04	 add	 DWORD PTR [esi+8], 4
  0001d	5e		 pop	 esi

; 260  : }

  0001e	5d		 pop	 ebp
  0001f	c2 04 00	 ret	 4
??$?6J@CAr@@QAEAAV0@ABJ@Z ENDP				; CAr::operator<<<long>
_TEXT	ENDS
; Function compile flags: /Ogtp
; File C:\IAGOS\server\v18\Source\Source\_Network\Misc\Include\ar.h
;	COMDAT ??$?6I@CAr@@QAEAAV0@ABI@Z
_TEXT	SEGMENT
_t$ = 8							; size = 4
??$?6I@CAr@@QAEAAV0@ABI@Z PROC				; CAr::operator<<<unsigned int>, COMDAT
; _this$ = ecx

; 255  : {

  00000	55		 push	 ebp
  00001	8b ec		 mov	 ebp, esp
  00003	56		 push	 esi

; 256  : 	CheckBuf(sizeof(T));

  00004	6a 04		 push	 4
  00006	8b f1		 mov	 esi, ecx
  00008	e8 00 00 00 00	 call	 ?CheckBuf@CAr@@QAEXI@Z	; CAr::CheckBuf

; 257  : 	*(UNALIGNED T*)m_lpBufCur = t;

  0000d	8b 56 08	 mov	 edx, DWORD PTR [esi+8]
  00010	8b 45 08	 mov	 eax, DWORD PTR _t$[ebp]
  00013	8b 00		 mov	 eax, DWORD PTR [eax]
  00015	89 02		 mov	 DWORD PTR [edx], eax

; 258  : 	m_lpBufCur += sizeof(T);
; 259  : 	return *this;

  00017	8b c6		 mov	 eax, esi
  00019	83 46 08 04	 add	 DWORD PTR [esi+8], 4
  0001d	5e		 pop	 esi

; 260  : }

  0001e	5d		 pop	 ebp
  0001f	c2 04 00	 ret	 4
??$?6I@CAr@@QAEAAV0@ABI@Z ENDP				; CAr::operator<<<unsigned int>
_TEXT	ENDS
; Function compile flags: /Ogtp
; File C:\IAGOS\server\v18\Source\Source\_Network\Misc\Include\ar.h
;	COMDAT ??$?5H@CAr@@QAEAAV0@AAH@Z
_TEXT	SEGMENT
_t$ = 8							; size = 4
??$?5H@CAr@@QAEAAV0@AAH@Z PROC				; CAr::operator>><int>, COMDAT
; _this$ = ecx

; 302  : {

  00000	55		 push	 ebp
  00001	8b ec		 mov	 ebp, esp
  00003	8b d1		 mov	 edx, ecx

; 303  : 	if (m_lpBufCur + sizeof(T) <= m_lpBufMax)

  00005	8b 4a 08	 mov	 ecx, DWORD PTR [edx+8]
  00008	8d 41 04	 lea	 eax, DWORD PTR [ecx+4]
  0000b	3b 42 0c	 cmp	 eax, DWORD PTR [edx+12]
  0000e	8b 45 08	 mov	 eax, DWORD PTR _t$[ebp]
  00011	77 0e		 ja	 SHORT $LN2@operator

; 304  : 	{
; 305  : 		t = *(UNALIGNED T*)m_lpBufCur;

  00013	8b 09		 mov	 ecx, DWORD PTR [ecx]
  00015	89 08		 mov	 DWORD PTR [eax], ecx

; 312  : 	}
; 313  : 	return *this;
; 314  : }

  00017	8b c2		 mov	 eax, edx
  00019	83 42 08 04	 add	 DWORD PTR [edx+8], 4
  0001d	5d		 pop	 ebp
  0001e	c2 04 00	 ret	 4
$LN2@operator:

; 306  : 		m_lpBufCur += sizeof(T);
; 307  : 	}
; 308  : 	else
; 309  : 	{
; 310  : 		t = T();

  00021	c7 00 00 00 00
	00		 mov	 DWORD PTR [eax], 0

; 311  : 		m_lpBufCur = m_lpBufMax;

  00027	8b 42 0c	 mov	 eax, DWORD PTR [edx+12]
  0002a	89 42 08	 mov	 DWORD PTR [edx+8], eax

; 312  : 	}
; 313  : 	return *this;
; 314  : }

  0002d	8b c2		 mov	 eax, edx
  0002f	5d		 pop	 ebp
  00030	c2 04 00	 ret	 4
??$?5H@CAr@@QAEAAV0@AAH@Z ENDP				; CAr::operator>><int>
_TEXT	ENDS
; Function compile flags: /Ogtp
; File C:\IAGOS\server\v18\Source\Source\_Network\Misc\Include\ar.h
;	COMDAT ??$?6H@CAr@@QAEAAV0@ABH@Z
_TEXT	SEGMENT
_t$ = 8							; size = 4
??$?6H@CAr@@QAEAAV0@ABH@Z PROC				; CAr::operator<<<int>, COMDAT
; _this$ = ecx

; 255  : {

  00000	55		 push	 ebp
  00001	8b ec		 mov	 ebp, esp
  00003	56		 push	 esi

; 256  : 	CheckBuf(sizeof(T));

  00004	6a 04		 push	 4
  00006	8b f1		 mov	 esi, ecx
  00008	e8 00 00 00 00	 call	 ?CheckBuf@CAr@@QAEXI@Z	; CAr::CheckBuf

; 257  : 	*(UNALIGNED T*)m_lpBufCur = t;

  0000d	8b 56 08	 mov	 edx, DWORD PTR [esi+8]
  00010	8b 45 08	 mov	 eax, DWORD PTR _t$[ebp]
  00013	8b 00		 mov	 eax, DWORD PTR [eax]
  00015	89 02		 mov	 DWORD PTR [edx], eax

; 258  : 	m_lpBufCur += sizeof(T);
; 259  : 	return *this;

  00017	8b c6		 mov	 eax, esi
  00019	83 46 08 04	 add	 DWORD PTR [esi+8], 4
  0001d	5e		 pop	 esi

; 260  : }

  0001e	5d		 pop	 ebp
  0001f	c2 04 00	 ret	 4
??$?6H@CAr@@QAEAAV0@ABH@Z ENDP				; CAr::operator<<<int>
_TEXT	ENDS
; Function compile flags: /Ogtp
; File C:\IAGOS\server\v18\Source\Source\_Network\Misc\Include\ar.h
;	COMDAT ??$?6G@CAr@@QAEAAV0@ABG@Z
_TEXT	SEGMENT
_t$ = 8							; size = 4
??$?6G@CAr@@QAEAAV0@ABG@Z PROC				; CAr::operator<<<unsigned short>, COMDAT
; _this$ = ecx

; 255  : {

  00000	55		 push	 ebp
  00001	8b ec		 mov	 ebp, esp
  00003	56		 push	 esi

; 256  : 	CheckBuf(sizeof(T));

  00004	6a 02		 push	 2
  00006	8b f1		 mov	 esi, ecx
  00008	e8 00 00 00 00	 call	 ?CheckBuf@CAr@@QAEXI@Z	; CAr::CheckBuf

; 257  : 	*(UNALIGNED T*)m_lpBufCur = t;

  0000d	8b 45 08	 mov	 eax, DWORD PTR _t$[ebp]
  00010	8b 56 08	 mov	 edx, DWORD PTR [esi+8]
  00013	66 8b 00	 mov	 ax, WORD PTR [eax]
  00016	66 89 02	 mov	 WORD PTR [edx], ax

; 258  : 	m_lpBufCur += sizeof(T);
; 259  : 	return *this;

  00019	8b c6		 mov	 eax, esi
  0001b	83 46 08 02	 add	 DWORD PTR [esi+8], 2
  0001f	5e		 pop	 esi

; 260  : }

  00020	5d		 pop	 ebp
  00021	c2 04 00	 ret	 4
??$?6G@CAr@@QAEAAV0@ABG@Z ENDP				; CAr::operator<<<unsigned short>
_TEXT	ENDS
; Function compile flags: /Ogtp
; File C:\Program Files\Microsoft Visual Studio\2022\Professional\VC\Tools\MSVC\14.44.35207\include\xtree
;	COMDAT ??E?$_Tree_unchecked_const_iterator@V?$_Tree_val@U?$_Tree_simple_types@U?$pair@$$CBKU_Friend@@@std@@@std@@@std@@U_Iterator_base0@2@@std@@QAEAAV01@XZ
_TEXT	SEGMENT
??E?$_Tree_unchecked_const_iterator@V?$_Tree_val@U?$_Tree_simple_types@U?$pair@$$CBKU_Friend@@@std@@@std@@@std@@U_Iterator_base0@2@@std@@QAEAAV01@XZ PROC ; std::_Tree_unchecked_const_iterator<std::_Tree_val<std::_Tree_simple_types<std::pair<unsigned long const ,_Friend> > >,std::_Iterator_base0>::operator++, COMDAT
; _this$ = ecx

; 49   :     _Tree_unchecked_const_iterator& operator++() noexcept {

  00000	56		 push	 esi
  00001	8b f1		 mov	 esi, ecx
  00003	57		 push	 edi

; 50   :         if (_Ptr->_Right->_Isnil) { // climb looking for right subtree

  00004	8b 16		 mov	 edx, DWORD PTR [esi]
  00006	8b 7a 08	 mov	 edi, DWORD PTR [edx+8]
  00009	80 7f 0d 00	 cmp	 BYTE PTR [edi+13], 0
  0000d	74 22		 je	 SHORT $LN4@operator

; 51   :             _Nodeptr _Pnode;
; 52   :             while (!(_Pnode = _Ptr->_Parent)->_Isnil && _Ptr == _Pnode->_Right) {

  0000f	8b 42 04	 mov	 eax, DWORD PTR [edx+4]
  00012	80 78 0d 00	 cmp	 BYTE PTR [eax+13], 0
  00016	75 12		 jne	 SHORT $LN21@operator
$LL2@operator:
  00018	3b 50 08	 cmp	 edx, DWORD PTR [eax+8]
  0001b	75 0d		 jne	 SHORT $LN21@operator

; 53   :                 _Ptr = _Pnode; // ==> parent while right subtree

  0001d	89 06		 mov	 DWORD PTR [esi], eax
  0001f	8b d0		 mov	 edx, eax
  00021	8b 40 04	 mov	 eax, DWORD PTR [eax+4]
  00024	80 78 0d 00	 cmp	 BYTE PTR [eax+13], 0
  00028	74 ee		 je	 SHORT $LL2@operator
$LN21@operator:

; 54   :             }
; 55   : 
; 56   :             _Ptr = _Pnode; // ==> parent (head if end())
; 57   :         } else {
; 58   :             _Ptr = _Mytree::_Min(_Ptr->_Right); // ==> smallest of right subtree
; 59   :         }
; 60   : 
; 61   :         return *this;

  0002a	89 06		 mov	 DWORD PTR [esi], eax

; 62   :     }

  0002c	8b c6		 mov	 eax, esi
  0002e	5f		 pop	 edi
  0002f	5e		 pop	 esi
  00030	c3		 ret	 0
$LN4@operator:

; 476  :         while (!_Pnode->_Left->_Isnil) {

  00031	8b 0f		 mov	 ecx, DWORD PTR [edi]
  00033	80 79 0d 00	 cmp	 BYTE PTR [ecx+13], 0
  00037	75 13		 jne	 SHORT $LN10@operator
  00039	0f 1f 80 00 00
	00 00		 npad	 7
$LL9@operator:
  00040	8b 01		 mov	 eax, DWORD PTR [ecx]

; 477  :             _Pnode = _Pnode->_Left;

  00042	8b f9		 mov	 edi, ecx
  00044	8b c8		 mov	 ecx, eax
  00046	80 78 0d 00	 cmp	 BYTE PTR [eax+13], 0
  0004a	74 f4		 je	 SHORT $LL9@operator
$LN10@operator:

; 54   :             }
; 55   : 
; 56   :             _Ptr = _Pnode; // ==> parent (head if end())
; 57   :         } else {
; 58   :             _Ptr = _Mytree::_Min(_Ptr->_Right); // ==> smallest of right subtree
; 59   :         }
; 60   : 
; 61   :         return *this;

  0004c	89 3e		 mov	 DWORD PTR [esi], edi

; 62   :     }

  0004e	8b c6		 mov	 eax, esi
  00050	5f		 pop	 edi
  00051	5e		 pop	 esi
  00052	c3		 ret	 0
??E?$_Tree_unchecked_const_iterator@V?$_Tree_val@U?$_Tree_simple_types@U?$pair@$$CBKU_Friend@@@std@@@std@@@std@@U_Iterator_base0@2@@std@@QAEAAV01@XZ ENDP ; std::_Tree_unchecked_const_iterator<std::_Tree_val<std::_Tree_simple_types<std::pair<unsigned long const ,_Friend> > >,std::_Iterator_base0>::operator++
_TEXT	ENDS
; Function compile flags: /Ogtp
; File C:\Program Files\Microsoft Visual Studio\2022\Professional\VC\Tools\MSVC\14.44.35207\include\xtree
; File C:\Program Files\Microsoft Visual Studio\2022\Professional\VC\Tools\MSVC\14.44.35207\include\utility
; File C:\Program Files\Microsoft Visual Studio\2022\Professional\VC\Tools\MSVC\14.44.35207\include\xtree
;	COMDAT ?_Extract@?$_Tree_val@U?$_Tree_simple_types@U?$pair@$$CBKU_Friend@@@std@@@std@@@std@@QAEPAU?$_Tree_node@U?$pair@$$CBKU_Friend@@@std@@PAX@2@V?$_Tree_unchecked_const_iterator@V?$_Tree_val@U?$_Tree_simple_types@U?$pair@$$CBKU_Friend@@@std@@@std@@@std@@U_Iterator_base0@2@@2@@Z
_TEXT	SEGMENT
tv1039 = -16						; size = 4
tv1073 = -12						; size = 4
tv1093 = -12						; size = 4
$T1 = -12						; size = 4
__Erasednode$1$ = -8					; size = 4
_this$1$ = -4						; size = 4
__Where$ = 8						; size = 4
?_Extract@?$_Tree_val@U?$_Tree_simple_types@U?$pair@$$CBKU_Friend@@@std@@@std@@@std@@QAEPAU?$_Tree_node@U?$pair@$$CBKU_Friend@@@std@@PAX@2@V?$_Tree_unchecked_const_iterator@V?$_Tree_val@U?$_Tree_simple_types@U?$pair@$$CBKU_Friend@@@std@@@std@@@std@@U_Iterator_base0@2@@2@@Z PROC ; std::_Tree_val<std::_Tree_simple_types<std::pair<unsigned long const ,_Friend> > >::_Extract, COMDAT
; _this$ = ecx

; 527  :     _Nodeptr _Extract(_Unchecked_const_iterator _Where) noexcept {

  00000	55		 push	 ebp
  00001	8b ec		 mov	 ebp, esp
  00003	83 ec 10	 sub	 esp, 16			; 00000010H

; 528  :         _Nodeptr _Erasednode = _Where._Ptr; // node to erase

  00006	8b 45 08	 mov	 eax, DWORD PTR __Where$[ebp]
  00009	53		 push	 ebx
  0000a	56		 push	 esi
  0000b	8b d9		 mov	 ebx, ecx
  0000d	89 45 f8	 mov	 DWORD PTR __Erasednode$1$[ebp], eax
  00010	57		 push	 edi

; 529  :         ++_Where; // save successor iterator for return

  00011	8d 4d 08	 lea	 ecx, DWORD PTR __Where$[ebp]
  00014	89 5d fc	 mov	 DWORD PTR _this$1$[ebp], ebx
  00017	e8 00 00 00 00	 call	 ??E?$_Tree_unchecked_const_iterator@V?$_Tree_val@U?$_Tree_simple_types@U?$pair@$$CBKU_Friend@@@std@@@std@@@std@@U_Iterator_base0@2@@std@@QAEAAV01@XZ ; std::_Tree_unchecked_const_iterator<std::_Tree_val<std::_Tree_simple_types<std::pair<unsigned long const ,_Friend> > >,std::_Iterator_base0>::operator++

; 530  : 
; 531  :         _Nodeptr _Fixnode; // the node to recolor as needed
; 532  :         _Nodeptr _Fixnodeparent; // parent of _Fixnode (which may be nil)
; 533  :         _Nodeptr _Pnode = _Erasednode;
; 534  : 
; 535  :         if (_Pnode->_Left->_Isnil) {

  0001c	8b 4d f8	 mov	 ecx, DWORD PTR __Erasednode$1$[ebp]
  0001f	8b 01		 mov	 eax, DWORD PTR [ecx]
  00021	8b 79 08	 mov	 edi, DWORD PTR [ecx+8]
  00024	80 78 0d 00	 cmp	 BYTE PTR [eax+13], 0
  00028	75 18		 jne	 SHORT $LN94@Extract

; 536  :             _Fixnode = _Pnode->_Right; // stitch up right subtree
; 537  :         } else if (_Pnode->_Right->_Isnil) {

  0002a	80 7f 0d 00	 cmp	 BYTE PTR [edi+13], 0
  0002e	74 04		 je	 SHORT $LN7@Extract

; 538  :             _Fixnode = _Pnode->_Left; // stitch up left subtree

  00030	8b f8		 mov	 edi, eax

; 539  :         } else { // two subtrees, must lift successor node to replace erased

  00032	eb 0e		 jmp	 SHORT $LN94@Extract
$LN7@Extract:

; 540  :             _Pnode   = _Where._Ptr; // _Pnode is successor node

  00034	8b 55 08	 mov	 edx, DWORD PTR __Where$[ebp]

; 541  :             _Fixnode = _Pnode->_Right; // _Fixnode is only subtree

  00037	8b 7a 08	 mov	 edi, DWORD PTR [edx+8]
  0003a	3b d1		 cmp	 edx, ecx

; 542  :         }
; 543  : 
; 544  :         if (_Pnode == _Erasednode) { // at most one subtree, relink it

  0003c	0f 85 91 00 00
	00		 jne	 $LN9@Extract
$LN94@Extract:

; 545  :             _Fixnodeparent = _Erasednode->_Parent;
; 546  :             if (!_Fixnode->_Isnil) {

  00042	80 7f 0d 00	 cmp	 BYTE PTR [edi+13], 0
  00046	8b 71 04	 mov	 esi, DWORD PTR [ecx+4]
  00049	75 03		 jne	 SHORT $LN11@Extract

; 547  :                 _Fixnode->_Parent = _Fixnodeparent; // link up

  0004b	89 77 04	 mov	 DWORD PTR [edi+4], esi
$LN11@Extract:

; 548  :             }
; 549  : 
; 550  :             if (_Myhead->_Parent == _Erasednode) {

  0004e	8b 03		 mov	 eax, DWORD PTR [ebx]
  00050	39 48 04	 cmp	 DWORD PTR [eax+4], ecx
  00053	75 05		 jne	 SHORT $LN12@Extract

; 551  :                 _Myhead->_Parent = _Fixnode; // link down from root

  00055	89 78 04	 mov	 DWORD PTR [eax+4], edi
  00058	eb 0b		 jmp	 SHORT $LN15@Extract
$LN12@Extract:

; 552  :             } else if (_Fixnodeparent->_Left == _Erasednode) {

  0005a	39 0e		 cmp	 DWORD PTR [esi], ecx
  0005c	75 04		 jne	 SHORT $LN14@Extract

; 553  :                 _Fixnodeparent->_Left = _Fixnode; // link down to left

  0005e	89 3e		 mov	 DWORD PTR [esi], edi

; 554  :             } else {

  00060	eb 03		 jmp	 SHORT $LN15@Extract
$LN14@Extract:

; 555  :                 _Fixnodeparent->_Right = _Fixnode; // link down to right

  00062	89 7e 08	 mov	 DWORD PTR [esi+8], edi
$LN15@Extract:

; 556  :             }
; 557  : 
; 558  :             if (_Myhead->_Left == _Erasednode) {

  00065	8b 03		 mov	 eax, DWORD PTR [ebx]
  00067	39 08		 cmp	 DWORD PTR [eax], ecx
  00069	75 28		 jne	 SHORT $LN16@Extract

; 559  :                 _Myhead->_Left = _Fixnode->_Isnil ? _Fixnodeparent // smallest is parent of erased node

  0006b	80 7f 0d 00	 cmp	 BYTE PTR [edi+13], 0
  0006f	74 04		 je	 SHORT $LN42@Extract
  00071	8b d6		 mov	 edx, esi
  00073	eb 1c		 jmp	 SHORT $LN43@Extract
$LN42@Extract:

; 476  :         while (!_Pnode->_Left->_Isnil) {

  00075	8b 0f		 mov	 ecx, DWORD PTR [edi]

; 559  :                 _Myhead->_Left = _Fixnode->_Isnil ? _Fixnodeparent // smallest is parent of erased node

  00077	8b d7		 mov	 edx, edi

; 476  :         while (!_Pnode->_Left->_Isnil) {

  00079	80 79 0d 00	 cmp	 BYTE PTR [ecx+13], 0
  0007d	75 0f		 jne	 SHORT $LN49@Extract
  0007f	90		 npad	 1
$LL48@Extract:
  00080	8b 01		 mov	 eax, DWORD PTR [ecx]

; 477  :             _Pnode = _Pnode->_Left;

  00082	8b d1		 mov	 edx, ecx
  00084	8b c8		 mov	 ecx, eax
  00086	80 78 0d 00	 cmp	 BYTE PTR [eax+13], 0
  0008a	74 f4		 je	 SHORT $LL48@Extract
  0008c	8b 03		 mov	 eax, DWORD PTR [ebx]
$LN49@Extract:
  0008e	8b 4d f8	 mov	 ecx, DWORD PTR __Erasednode$1$[ebp]
$LN43@Extract:

; 559  :                 _Myhead->_Left = _Fixnode->_Isnil ? _Fixnodeparent // smallest is parent of erased node

  00091	89 10		 mov	 DWORD PTR [eax], edx
$LN16@Extract:

; 560  :                                                   : _Min(_Fixnode); // smallest in relinked subtree
; 561  :             }
; 562  : 
; 563  :             if (_Myhead->_Right == _Erasednode) {

  00093	8b 13		 mov	 edx, DWORD PTR [ebx]
  00095	39 4a 08	 cmp	 DWORD PTR [edx+8], ecx
  00098	75 34		 jne	 SHORT $LN17@Extract

; 564  :                 _Myhead->_Right = _Fixnode->_Isnil ? _Fixnodeparent // largest is parent of erased node

  0009a	80 7f 0d 00	 cmp	 BYTE PTR [edi+13], 0
  0009e	74 0d		 je	 SHORT $LN44@Extract

; 565  :                                                    : _Max(_Fixnode); // largest in relinked subtree
; 566  :             }
; 567  :         } else { // erased has two subtrees, _Pnode is successor to erased

  000a0	8b 45 f8	 mov	 eax, DWORD PTR __Erasednode$1$[ebp]
  000a3	8b ce		 mov	 ecx, esi
  000a5	89 4a 08	 mov	 DWORD PTR [edx+8], ecx
  000a8	e9 94 00 00 00	 jmp	 $LN58@Extract
$LN44@Extract:

; 468  :         while (!_Pnode->_Right->_Isnil) {

  000ad	8b 47 08	 mov	 eax, DWORD PTR [edi+8]

; 564  :                 _Myhead->_Right = _Fixnode->_Isnil ? _Fixnodeparent // largest is parent of erased node

  000b0	8b cf		 mov	 ecx, edi

; 468  :         while (!_Pnode->_Right->_Isnil) {

  000b2	80 78 0d 00	 cmp	 BYTE PTR [eax+13], 0
  000b6	75 13		 jne	 SHORT $LN54@Extract
  000b8	0f 1f 84 00 00
	00 00 00	 npad	 8
$LL53@Extract:

; 469  :             _Pnode = _Pnode->_Right;

  000c0	8b c8		 mov	 ecx, eax
  000c2	8b 41 08	 mov	 eax, DWORD PTR [ecx+8]
  000c5	80 78 0d 00	 cmp	 BYTE PTR [eax+13], 0
  000c9	74 f5		 je	 SHORT $LL53@Extract
$LN54@Extract:

; 564  :                 _Myhead->_Right = _Fixnode->_Isnil ? _Fixnodeparent // largest is parent of erased node

  000cb	89 4a 08	 mov	 DWORD PTR [edx+8], ecx
$LN17@Extract:

; 565  :                                                    : _Max(_Fixnode); // largest in relinked subtree
; 566  :             }
; 567  :         } else { // erased has two subtrees, _Pnode is successor to erased

  000ce	8b 45 f8	 mov	 eax, DWORD PTR __Erasednode$1$[ebp]
  000d1	eb 6e		 jmp	 SHORT $LN58@Extract
$LN9@Extract:

; 568  :             _Erasednode->_Left->_Parent = _Pnode; // link left up

  000d3	89 50 04	 mov	 DWORD PTR [eax+4], edx

; 569  :             _Pnode->_Left               = _Erasednode->_Left; // link successor down

  000d6	8b 01		 mov	 eax, DWORD PTR [ecx]
  000d8	89 02		 mov	 DWORD PTR [edx], eax

; 570  : 
; 571  :             if (_Pnode == _Erasednode->_Right) {

  000da	8d 42 04	 lea	 eax, DWORD PTR [edx+4]
  000dd	89 45 f4	 mov	 DWORD PTR $T1[ebp], eax
  000e0	3b 51 08	 cmp	 edx, DWORD PTR [ecx+8]
  000e3	75 04		 jne	 SHORT $LN18@Extract

; 572  :                 _Fixnodeparent = _Pnode; // successor is next to erased

  000e5	8b f2		 mov	 esi, edx

; 573  :             } else { // successor further down, link in place of erased

  000e7	eb 1f		 jmp	 SHORT $LN19@Extract
$LN18@Extract:

; 574  :                 _Fixnodeparent = _Pnode->_Parent; // parent is successor's
; 575  :                 if (!_Fixnode->_Isnil) {

  000e9	80 7f 0d 00	 cmp	 BYTE PTR [edi+13], 0
  000ed	8b 30		 mov	 esi, DWORD PTR [eax]
  000ef	75 03		 jne	 SHORT $LN20@Extract

; 576  :                     _Fixnode->_Parent = _Fixnodeparent; // link fix up

  000f1	89 77 04	 mov	 DWORD PTR [edi+4], esi
$LN20@Extract:

; 577  :                 }
; 578  : 
; 579  :                 _Fixnodeparent->_Left        = _Fixnode; // link fix down

  000f4	89 3e		 mov	 DWORD PTR [esi], edi

; 580  :                 _Pnode->_Right               = _Erasednode->_Right; // link next down

  000f6	8b 41 08	 mov	 eax, DWORD PTR [ecx+8]
  000f9	89 42 08	 mov	 DWORD PTR [edx+8], eax

; 581  :                 _Erasednode->_Right->_Parent = _Pnode; // right up

  000fc	8b 41 08	 mov	 eax, DWORD PTR [ecx+8]
  000ff	89 50 04	 mov	 DWORD PTR [eax+4], edx
  00102	8d 42 04	 lea	 eax, DWORD PTR [edx+4]
  00105	89 45 f4	 mov	 DWORD PTR $T1[ebp], eax
$LN19@Extract:

; 582  :             }
; 583  : 
; 584  :             if (_Myhead->_Parent == _Erasednode) {

  00108	8b 03		 mov	 eax, DWORD PTR [ebx]
  0010a	39 48 04	 cmp	 DWORD PTR [eax+4], ecx
  0010d	75 05		 jne	 SHORT $LN21@Extract

; 585  :                 _Myhead->_Parent = _Pnode; // link down from root

  0010f	89 50 04	 mov	 DWORD PTR [eax+4], edx
  00112	eb 0e		 jmp	 SHORT $LN141@Extract
$LN21@Extract:

; 586  :             } else if (_Erasednode->_Parent->_Left == _Erasednode) {

  00114	8b 41 04	 mov	 eax, DWORD PTR [ecx+4]
  00117	39 08		 cmp	 DWORD PTR [eax], ecx
  00119	75 04		 jne	 SHORT $LN23@Extract

; 587  :                 _Erasednode->_Parent->_Left = _Pnode; // link down to left

  0011b	89 10		 mov	 DWORD PTR [eax], edx

; 588  :             } else {

  0011d	eb 03		 jmp	 SHORT $LN141@Extract
$LN23@Extract:

; 589  :                 _Erasednode->_Parent->_Right = _Pnode; // link down to right

  0011f	89 50 08	 mov	 DWORD PTR [eax+8], edx
$LN141@Extract:

; 590  :             }
; 591  : 
; 592  :             _Pnode->_Parent = _Erasednode->_Parent; // link successor up

  00122	b8 04 00 00 00	 mov	 eax, 4
  00127	8b 04 08	 mov	 eax, DWORD PTR [eax+ecx]
  0012a	8b 4d f4	 mov	 ecx, DWORD PTR $T1[ebp]
  0012d	89 01		 mov	 DWORD PTR [ecx], eax
; File C:\Program Files\Microsoft Visual Studio\2022\Professional\VC\Tools\MSVC\14.44.35207\include\utility

; 140  :     _Left    = _STD move(_Right);

  0012f	8b 45 f8	 mov	 eax, DWORD PTR __Erasednode$1$[ebp]
  00132	8a 4a 0c	 mov	 cl, BYTE PTR [edx+12]
  00135	8a 40 0c	 mov	 al, BYTE PTR [eax+12]
  00138	88 42 0c	 mov	 BYTE PTR [edx+12], al

; 141  :     _Right   = _STD move(_Tmp);

  0013b	8b 45 f8	 mov	 eax, DWORD PTR __Erasednode$1$[ebp]
  0013e	88 48 0c	 mov	 BYTE PTR [eax+12], cl
$LN58@Extract:
; File C:\Program Files\Microsoft Visual Studio\2022\Professional\VC\Tools\MSVC\14.44.35207\include\xtree

; 596  :         if (_Erasednode->_Color == _Black) { // erasing black link, must recolor/rebalance tree

  00141	80 78 0c 01	 cmp	 BYTE PTR [eax+12], 1
  00145	0f 85 ba 01 00
	00		 jne	 $LN25@Extract

; 597  :             for (; _Fixnode != _Myhead->_Parent && _Fixnode->_Color == _Black; _Fixnodeparent = _Fixnode->_Parent) {

  0014b	8b 03		 mov	 eax, DWORD PTR [ebx]
  0014d	3b 78 04	 cmp	 edi, DWORD PTR [eax+4]
  00150	0f 84 a8 01 00
	00		 je	 $LN3@Extract
  00156	80 7f 0c 01	 cmp	 BYTE PTR [edi+12], 1
  0015a	89 75 f4	 mov	 DWORD PTR tv1093[ebp], esi
  0015d	0f 85 9b 01 00
	00		 jne	 $LN3@Extract
$LL4@Extract:

; 598  :                 if (_Fixnode == _Fixnodeparent->_Left) { // fixup left subtree

  00163	8b 0e		 mov	 ecx, DWORD PTR [esi]
  00165	3b f9		 cmp	 edi, ecx
  00167	0f 85 be 00 00
	00		 jne	 $LN26@Extract

; 599  :                     _Pnode = _Fixnodeparent->_Right;

  0016d	8b 4e 08	 mov	 ecx, DWORD PTR [esi+8]

; 600  :                     if (_Pnode->_Color == _Red) { // rotate red up from right subtree

  00170	80 79 0c 00	 cmp	 BYTE PTR [ecx+12], 0
  00174	75 54		 jne	 SHORT $LN95@Extract

; 601  :                         _Pnode->_Color         = _Black;

  00176	c6 41 0c 01	 mov	 BYTE PTR [ecx+12], 1

; 484  :         _Nodeptr _Pnode    = _Wherenode->_Right;

  0017a	8b 4e 08	 mov	 ecx, DWORD PTR [esi+8]

; 602  :                         _Fixnodeparent->_Color = _Red;

  0017d	c6 46 0c 00	 mov	 BYTE PTR [esi+12], 0

; 485  :         _Wherenode->_Right = _Pnode->_Left;

  00181	8b 01		 mov	 eax, DWORD PTR [ecx]
  00183	89 46 08	 mov	 DWORD PTR [esi+8], eax

; 486  : 
; 487  :         if (!_Pnode->_Left->_Isnil) {

  00186	8b 01		 mov	 eax, DWORD PTR [ecx]
  00188	80 78 0d 00	 cmp	 BYTE PTR [eax+13], 0
  0018c	75 03		 jne	 SHORT $LN61@Extract

; 488  :             _Pnode->_Left->_Parent = _Wherenode;

  0018e	89 70 04	 mov	 DWORD PTR [eax+4], esi
$LN61@Extract:

; 489  :         }
; 490  : 
; 491  :         _Pnode->_Parent = _Wherenode->_Parent;

  00191	8b 46 04	 mov	 eax, DWORD PTR [esi+4]
  00194	8d 56 04	 lea	 edx, DWORD PTR [esi+4]
  00197	89 41 04	 mov	 DWORD PTR [ecx+4], eax

; 492  : 
; 493  :         if (_Wherenode == _Myhead->_Parent) {

  0019a	8b 03		 mov	 eax, DWORD PTR [ebx]
  0019c	3b 70 04	 cmp	 esi, DWORD PTR [eax+4]
  0019f	75 0c		 jne	 SHORT $LN62@Extract

; 494  :             _Myhead->_Parent = _Pnode;

  001a1	89 48 04	 mov	 DWORD PTR [eax+4], ecx

; 499  :         }
; 500  : 
; 501  :         _Pnode->_Left       = _Wherenode;

  001a4	89 31		 mov	 DWORD PTR [ecx], esi

; 502  :         _Wherenode->_Parent = _Pnode;

  001a6	89 0a		 mov	 DWORD PTR [edx], ecx

; 603  :                         _Lrotate(_Fixnodeparent);
; 604  :                         _Pnode = _Fixnodeparent->_Right;

  001a8	8b 4e 08	 mov	 ecx, DWORD PTR [esi+8]
  001ab	eb 20		 jmp	 SHORT $LN87@Extract
$LN62@Extract:

; 495  :         } else if (_Wherenode == _Wherenode->_Parent->_Left) {

  001ad	8b 02		 mov	 eax, DWORD PTR [edx]
  001af	3b 30		 cmp	 esi, DWORD PTR [eax]
  001b1	75 0b		 jne	 SHORT $LN64@Extract

; 496  :             _Wherenode->_Parent->_Left = _Pnode;

  001b3	89 08		 mov	 DWORD PTR [eax], ecx

; 499  :         }
; 500  : 
; 501  :         _Pnode->_Left       = _Wherenode;

  001b5	89 31		 mov	 DWORD PTR [ecx], esi

; 502  :         _Wherenode->_Parent = _Pnode;

  001b7	89 0a		 mov	 DWORD PTR [edx], ecx

; 603  :                         _Lrotate(_Fixnodeparent);
; 604  :                         _Pnode = _Fixnodeparent->_Right;

  001b9	8b 4e 08	 mov	 ecx, DWORD PTR [esi+8]
  001bc	eb 0f		 jmp	 SHORT $LN87@Extract
$LN64@Extract:

; 498  :             _Wherenode->_Parent->_Right = _Pnode;

  001be	89 48 08	 mov	 DWORD PTR [eax+8], ecx

; 499  :         }
; 500  : 
; 501  :         _Pnode->_Left       = _Wherenode;

  001c1	89 31		 mov	 DWORD PTR [ecx], esi

; 502  :         _Wherenode->_Parent = _Pnode;

  001c3	89 0a		 mov	 DWORD PTR [edx], ecx

; 603  :                         _Lrotate(_Fixnodeparent);
; 604  :                         _Pnode = _Fixnodeparent->_Right;

  001c5	8b 4e 08	 mov	 ecx, DWORD PTR [esi+8]
  001c8	eb 03		 jmp	 SHORT $LN87@Extract
$LN95@Extract:
  001ca	8d 56 04	 lea	 edx, DWORD PTR [esi+4]
$LN87@Extract:

; 605  :                     }
; 606  : 
; 607  :                     if (_Pnode->_Isnil) {

  001cd	80 79 0d 00	 cmp	 BYTE PTR [ecx+13], 0
  001d1	0f 85 d0 00 00
	00		 jne	 $LN2@Extract

; 608  :                         _Fixnode = _Fixnodeparent; // shouldn't happen
; 609  :                     } else if (_Pnode->_Left->_Color == _Black
; 610  :                                && _Pnode->_Right->_Color == _Black) { // redden right subtree with black children

  001d7	8b 01		 mov	 eax, DWORD PTR [ecx]
  001d9	80 78 0c 01	 cmp	 BYTE PTR [eax+12], 1
  001dd	75 0d		 jne	 SHORT $LN97@Extract
  001df	8b 41 08	 mov	 eax, DWORD PTR [ecx+8]
  001e2	80 78 0c 01	 cmp	 BYTE PTR [eax+12], 1
  001e6	0f 84 b4 00 00
	00		 je	 $LN142@Extract
$LN97@Extract:

; 611  :                         _Pnode->_Color = _Red;
; 612  :                         _Fixnode       = _Fixnodeparent;
; 613  :                     } else { // must rearrange right subtree
; 614  :                         if (_Pnode->_Right->_Color == _Black) { // rotate red up from left sub-subtree

  001ec	8b 41 08	 mov	 eax, DWORD PTR [ecx+8]
  001ef	8b 5d fc	 mov	 ebx, DWORD PTR _this$1$[ebp]
  001f2	80 78 0c 01	 cmp	 BYTE PTR [eax+12], 1
  001f6	75 15		 jne	 SHORT $LN33@Extract

; 615  :                             _Pnode->_Left->_Color = _Black;

  001f8	8b 01		 mov	 eax, DWORD PTR [ecx]

; 616  :                             _Pnode->_Color        = _Red;
; 617  :                             _Rrotate(_Pnode);

  001fa	51		 push	 ecx
  001fb	c6 40 0c 01	 mov	 BYTE PTR [eax+12], 1
  001ff	c6 41 0c 00	 mov	 BYTE PTR [ecx+12], 0
  00203	8b cb		 mov	 ecx, ebx
  00205	e8 00 00 00 00	 call	 ?_Rrotate@?$_Tree_val@U?$_Tree_simple_types@U?$pair@$$CBKU_Friend@@@std@@@std@@@std@@QAEXPAU?$_Tree_node@U?$pair@$$CBKU_Friend@@@std@@PAX@2@@Z ; std::_Tree_val<std::_Tree_simple_types<std::pair<unsigned long const ,_Friend> > >::_Rrotate

; 618  :                             _Pnode = _Fixnodeparent->_Right;

  0020a	8b 4e 08	 mov	 ecx, DWORD PTR [esi+8]
$LN33@Extract:

; 619  :                         }
; 620  : 
; 621  :                         _Pnode->_Color         = _Fixnodeparent->_Color;

  0020d	8a 46 0c	 mov	 al, BYTE PTR [esi+12]
  00210	88 41 0c	 mov	 BYTE PTR [ecx+12], al

; 622  :                         _Fixnodeparent->_Color = _Black;

  00213	c6 46 0c 01	 mov	 BYTE PTR [esi+12], 1

; 623  :                         _Pnode->_Right->_Color = _Black;

  00217	8b 41 08	 mov	 eax, DWORD PTR [ecx+8]

; 624  :                         _Lrotate(_Fixnodeparent);

  0021a	8b cb		 mov	 ecx, ebx
  0021c	56		 push	 esi
  0021d	c6 40 0c 01	 mov	 BYTE PTR [eax+12], 1
  00221	e8 00 00 00 00	 call	 ?_Lrotate@?$_Tree_val@U?$_Tree_simple_types@U?$pair@$$CBKU_Friend@@@std@@@std@@@std@@QAEXPAU?$_Tree_node@U?$pair@$$CBKU_Friend@@@std@@PAX@2@@Z ; std::_Tree_val<std::_Tree_simple_types<std::pair<unsigned long const ,_Friend> > >::_Lrotate

; 625  :                         break; // tree now recolored/rebalanced

  00226	e9 d3 00 00 00	 jmp	 $LN3@Extract
$LN26@Extract:

; 626  :                     }
; 627  :                 } else { // fixup right subtree
; 628  :                     _Pnode = _Fixnodeparent->_Left;
; 629  :                     if (_Pnode->_Color == _Red) { // rotate red up from left subtree

  0022b	80 79 0c 00	 cmp	 BYTE PTR [ecx+12], 0
  0022f	75 55		 jne	 SHORT $LN96@Extract

; 630  :                         _Pnode->_Color         = _Black;

  00231	c6 41 0c 01	 mov	 BYTE PTR [ecx+12], 1

; 506  :         _Nodeptr _Pnode   = _Wherenode->_Left;

  00235	8b 0e		 mov	 ecx, DWORD PTR [esi]

; 631  :                         _Fixnodeparent->_Color = _Red;

  00237	c6 46 0c 00	 mov	 BYTE PTR [esi+12], 0

; 507  :         _Wherenode->_Left = _Pnode->_Right;

  0023b	8b 41 08	 mov	 eax, DWORD PTR [ecx+8]
  0023e	89 06		 mov	 DWORD PTR [esi], eax

; 508  : 
; 509  :         if (!_Pnode->_Right->_Isnil) {

  00240	8b 41 08	 mov	 eax, DWORD PTR [ecx+8]
  00243	80 78 0d 00	 cmp	 BYTE PTR [eax+13], 0
  00247	75 03		 jne	 SHORT $LN69@Extract

; 510  :             _Pnode->_Right->_Parent = _Wherenode;

  00249	89 70 04	 mov	 DWORD PTR [eax+4], esi
$LN69@Extract:

; 511  :         }
; 512  : 
; 513  :         _Pnode->_Parent = _Wherenode->_Parent;

  0024c	8b 46 04	 mov	 eax, DWORD PTR [esi+4]
  0024f	8d 56 04	 lea	 edx, DWORD PTR [esi+4]
  00252	89 41 04	 mov	 DWORD PTR [ecx+4], eax

; 514  : 
; 515  :         if (_Wherenode == _Myhead->_Parent) {

  00255	8b 03		 mov	 eax, DWORD PTR [ebx]
  00257	3b 70 04	 cmp	 esi, DWORD PTR [eax+4]
  0025a	75 0c		 jne	 SHORT $LN70@Extract

; 516  :             _Myhead->_Parent = _Pnode;

  0025c	89 48 04	 mov	 DWORD PTR [eax+4], ecx

; 521  :         }
; 522  : 
; 523  :         _Pnode->_Right      = _Wherenode;

  0025f	89 71 08	 mov	 DWORD PTR [ecx+8], esi

; 524  :         _Wherenode->_Parent = _Pnode;

  00262	89 0a		 mov	 DWORD PTR [edx], ecx

; 632  :                         _Rrotate(_Fixnodeparent);
; 633  :                         _Pnode = _Fixnodeparent->_Left;

  00264	8b 0e		 mov	 ecx, DWORD PTR [esi]
  00266	eb 21		 jmp	 SHORT $LN86@Extract
$LN70@Extract:

; 517  :         } else if (_Wherenode == _Wherenode->_Parent->_Right) {

  00268	8b 02		 mov	 eax, DWORD PTR [edx]
  0026a	3b 70 08	 cmp	 esi, DWORD PTR [eax+8]
  0026d	75 0c		 jne	 SHORT $LN72@Extract

; 518  :             _Wherenode->_Parent->_Right = _Pnode;

  0026f	89 48 08	 mov	 DWORD PTR [eax+8], ecx

; 521  :         }
; 522  : 
; 523  :         _Pnode->_Right      = _Wherenode;

  00272	89 71 08	 mov	 DWORD PTR [ecx+8], esi

; 524  :         _Wherenode->_Parent = _Pnode;

  00275	89 0a		 mov	 DWORD PTR [edx], ecx

; 632  :                         _Rrotate(_Fixnodeparent);
; 633  :                         _Pnode = _Fixnodeparent->_Left;

  00277	8b 0e		 mov	 ecx, DWORD PTR [esi]
  00279	eb 0e		 jmp	 SHORT $LN86@Extract
$LN72@Extract:

; 520  :             _Wherenode->_Parent->_Left = _Pnode;

  0027b	89 08		 mov	 DWORD PTR [eax], ecx

; 521  :         }
; 522  : 
; 523  :         _Pnode->_Right      = _Wherenode;

  0027d	89 71 08	 mov	 DWORD PTR [ecx+8], esi

; 524  :         _Wherenode->_Parent = _Pnode;

  00280	89 0a		 mov	 DWORD PTR [edx], ecx

; 632  :                         _Rrotate(_Fixnodeparent);
; 633  :                         _Pnode = _Fixnodeparent->_Left;

  00282	8b 0e		 mov	 ecx, DWORD PTR [esi]
  00284	eb 03		 jmp	 SHORT $LN86@Extract
$LN96@Extract:
  00286	8d 56 04	 lea	 edx, DWORD PTR [esi+4]
$LN86@Extract:

; 634  :                     }
; 635  : 
; 636  :                     if (_Pnode->_Isnil) {

  00289	80 79 0d 00	 cmp	 BYTE PTR [ecx+13], 0
  0028d	75 18		 jne	 SHORT $LN2@Extract

; 637  :                         _Fixnode = _Fixnodeparent; // shouldn't happen
; 638  :                     } else if (_Pnode->_Right->_Color == _Black
; 639  :                                && _Pnode->_Left->_Color == _Black) { // redden left subtree with black children

  0028f	8b 59 08	 mov	 ebx, DWORD PTR [ecx+8]
  00292	80 7b 0c 01	 cmp	 BYTE PTR [ebx+12], 1
  00296	75 2c		 jne	 SHORT $LN98@Extract
  00298	8b 01		 mov	 eax, DWORD PTR [ecx]
  0029a	80 78 0c 01	 cmp	 BYTE PTR [eax+12], 1
  0029e	75 24		 jne	 SHORT $LN98@Extract
$LN142@Extract:

; 597  :             for (; _Fixnode != _Myhead->_Parent && _Fixnode->_Color == _Black; _Fixnodeparent = _Fixnode->_Parent) {

  002a0	8b 5d fc	 mov	 ebx, DWORD PTR _this$1$[ebp]
  002a3	c6 41 0c 00	 mov	 BYTE PTR [ecx+12], 0
$LN2@Extract:
  002a7	8b 03		 mov	 eax, DWORD PTR [ebx]
  002a9	8b 4d f4	 mov	 ecx, DWORD PTR tv1093[ebp]
  002ac	8b f9		 mov	 edi, ecx
  002ae	8b 32		 mov	 esi, DWORD PTR [edx]
  002b0	3b 48 04	 cmp	 ecx, DWORD PTR [eax+4]
  002b3	74 49		 je	 SHORT $LN3@Extract
  002b5	80 7f 0c 01	 cmp	 BYTE PTR [edi+12], 1
  002b9	89 75 f4	 mov	 DWORD PTR tv1093[ebp], esi
  002bc	0f 84 a1 fe ff
	ff		 je	 $LL4@Extract
  002c2	eb 3a		 jmp	 SHORT $LN3@Extract
$LN98@Extract:

; 640  :                         _Pnode->_Color = _Red;
; 641  :                         _Fixnode       = _Fixnodeparent;
; 642  :                     } else { // must rearrange left subtree
; 643  :                         if (_Pnode->_Left->_Color == _Black) { // rotate red up from right sub-subtree

  002c4	8b 01		 mov	 eax, DWORD PTR [ecx]
  002c6	80 78 0c 01	 cmp	 BYTE PTR [eax+12], 1
  002ca	75 17		 jne	 SHORT $LN101@Extract

; 644  :                             _Pnode->_Right->_Color = _Black;

  002cc	c6 43 0c 01	 mov	 BYTE PTR [ebx+12], 1

; 645  :                             _Pnode->_Color         = _Red;
; 646  :                             _Lrotate(_Pnode);

  002d0	8b 5d fc	 mov	 ebx, DWORD PTR _this$1$[ebp]
  002d3	c6 41 0c 00	 mov	 BYTE PTR [ecx+12], 0
  002d7	51		 push	 ecx
  002d8	8b cb		 mov	 ecx, ebx
  002da	e8 00 00 00 00	 call	 ?_Lrotate@?$_Tree_val@U?$_Tree_simple_types@U?$pair@$$CBKU_Friend@@@std@@@std@@@std@@QAEXPAU?$_Tree_node@U?$pair@$$CBKU_Friend@@@std@@PAX@2@@Z ; std::_Tree_val<std::_Tree_simple_types<std::pair<unsigned long const ,_Friend> > >::_Lrotate

; 647  :                             _Pnode = _Fixnodeparent->_Left;

  002df	8b 0e		 mov	 ecx, DWORD PTR [esi]
  002e1	eb 03		 jmp	 SHORT $LN39@Extract
$LN101@Extract:

; 640  :                         _Pnode->_Color = _Red;
; 641  :                         _Fixnode       = _Fixnodeparent;
; 642  :                     } else { // must rearrange left subtree
; 643  :                         if (_Pnode->_Left->_Color == _Black) { // rotate red up from right sub-subtree

  002e3	8b 5d fc	 mov	 ebx, DWORD PTR _this$1$[ebp]
$LN39@Extract:

; 648  :                         }
; 649  : 
; 650  :                         _Pnode->_Color         = _Fixnodeparent->_Color;

  002e6	8a 46 0c	 mov	 al, BYTE PTR [esi+12]
  002e9	88 41 0c	 mov	 BYTE PTR [ecx+12], al

; 651  :                         _Fixnodeparent->_Color = _Black;

  002ec	c6 46 0c 01	 mov	 BYTE PTR [esi+12], 1

; 652  :                         _Pnode->_Left->_Color  = _Black;

  002f0	8b 01		 mov	 eax, DWORD PTR [ecx]

; 653  :                         _Rrotate(_Fixnodeparent);

  002f2	8b cb		 mov	 ecx, ebx
  002f4	56		 push	 esi
  002f5	c6 40 0c 01	 mov	 BYTE PTR [eax+12], 1
  002f9	e8 00 00 00 00	 call	 ?_Rrotate@?$_Tree_val@U?$_Tree_simple_types@U?$pair@$$CBKU_Friend@@@std@@@std@@@std@@QAEXPAU?$_Tree_node@U?$pair@$$CBKU_Friend@@@std@@PAX@2@@Z ; std::_Tree_val<std::_Tree_simple_types<std::pair<unsigned long const ,_Friend> > >::_Rrotate
$LN3@Extract:

; 654  :                         break; // tree now recolored/rebalanced
; 655  :                     }
; 656  :                 }
; 657  :             }
; 658  : 
; 659  :             _Fixnode->_Color = _Black; // stopping node is black

  002fe	8b 45 f8	 mov	 eax, DWORD PTR __Erasednode$1$[ebp]
  00301	c6 47 0c 01	 mov	 BYTE PTR [edi+12], 1
$LN25@Extract:

; 660  :         }
; 661  : 
; 662  :         if (0 < _Mysize) {

  00305	8b 4b 04	 mov	 ecx, DWORD PTR [ebx+4]
  00308	85 c9		 test	 ecx, ecx
  0030a	74 04		 je	 SHORT $LN40@Extract

; 663  :             --_Mysize;

  0030c	49		 dec	 ecx
  0030d	89 4b 04	 mov	 DWORD PTR [ebx+4], ecx
$LN40@Extract:

; 664  :         }
; 665  : 
; 666  :         return _Erasednode;
; 667  :     }

  00310	5f		 pop	 edi
  00311	5e		 pop	 esi
  00312	5b		 pop	 ebx
  00313	8b e5		 mov	 esp, ebp
  00315	5d		 pop	 ebp
  00316	c2 04 00	 ret	 4
?_Extract@?$_Tree_val@U?$_Tree_simple_types@U?$pair@$$CBKU_Friend@@@std@@@std@@@std@@QAEPAU?$_Tree_node@U?$pair@$$CBKU_Friend@@@std@@PAX@2@V?$_Tree_unchecked_const_iterator@V?$_Tree_val@U?$_Tree_simple_types@U?$pair@$$CBKU_Friend@@@std@@@std@@@std@@U_Iterator_base0@2@@2@@Z ENDP ; std::_Tree_val<std::_Tree_simple_types<std::pair<unsigned long const ,_Friend> > >::_Extract
_TEXT	ENDS
; Function compile flags: /Ogtp
; File C:\Program Files\Microsoft Visual Studio\2022\Professional\VC\Tools\MSVC\14.44.35207\include\xtree
;	COMDAT ?_Rrotate@?$_Tree_val@U?$_Tree_simple_types@U?$pair@$$CBKU_Friend@@@std@@@std@@@std@@QAEXPAU?$_Tree_node@U?$pair@$$CBKU_Friend@@@std@@PAX@2@@Z
_TEXT	SEGMENT
__Wherenode$ = 8					; size = 4
?_Rrotate@?$_Tree_val@U?$_Tree_simple_types@U?$pair@$$CBKU_Friend@@@std@@@std@@@std@@QAEXPAU?$_Tree_node@U?$pair@$$CBKU_Friend@@@std@@PAX@2@@Z PROC ; std::_Tree_val<std::_Tree_simple_types<std::pair<unsigned long const ,_Friend> > >::_Rrotate, COMDAT
; _this$ = ecx

; 505  :     void _Rrotate(_Nodeptr _Wherenode) noexcept { // promote left node to root of subtree

  00000	55		 push	 ebp
  00001	8b ec		 mov	 ebp, esp

; 506  :         _Nodeptr _Pnode   = _Wherenode->_Left;

  00003	8b 55 08	 mov	 edx, DWORD PTR __Wherenode$[ebp]
  00006	56		 push	 esi
  00007	8b 32		 mov	 esi, DWORD PTR [edx]

; 507  :         _Wherenode->_Left = _Pnode->_Right;

  00009	8b 46 08	 mov	 eax, DWORD PTR [esi+8]
  0000c	89 02		 mov	 DWORD PTR [edx], eax

; 508  : 
; 509  :         if (!_Pnode->_Right->_Isnil) {

  0000e	8b 46 08	 mov	 eax, DWORD PTR [esi+8]
  00011	80 78 0d 00	 cmp	 BYTE PTR [eax+13], 0
  00015	75 03		 jne	 SHORT $LN2@Rrotate

; 510  :             _Pnode->_Right->_Parent = _Wherenode;

  00017	89 50 04	 mov	 DWORD PTR [eax+4], edx
$LN2@Rrotate:

; 511  :         }
; 512  : 
; 513  :         _Pnode->_Parent = _Wherenode->_Parent;

  0001a	8b 42 04	 mov	 eax, DWORD PTR [edx+4]
  0001d	89 46 04	 mov	 DWORD PTR [esi+4], eax

; 514  : 
; 515  :         if (_Wherenode == _Myhead->_Parent) {

  00020	8b 01		 mov	 eax, DWORD PTR [ecx]
  00022	3b 50 04	 cmp	 edx, DWORD PTR [eax+4]
  00025	75 0e		 jne	 SHORT $LN3@Rrotate

; 516  :             _Myhead->_Parent = _Pnode;

  00027	89 70 04	 mov	 DWORD PTR [eax+4], esi

; 521  :         }
; 522  : 
; 523  :         _Pnode->_Right      = _Wherenode;
; 524  :         _Wherenode->_Parent = _Pnode;
; 525  :     }

  0002a	89 56 08	 mov	 DWORD PTR [esi+8], edx
  0002d	89 72 04	 mov	 DWORD PTR [edx+4], esi
  00030	5e		 pop	 esi
  00031	5d		 pop	 ebp
  00032	c2 04 00	 ret	 4
$LN3@Rrotate:

; 517  :         } else if (_Wherenode == _Wherenode->_Parent->_Right) {

  00035	8b 42 04	 mov	 eax, DWORD PTR [edx+4]
  00038	3b 50 08	 cmp	 edx, DWORD PTR [eax+8]
  0003b	75 0e		 jne	 SHORT $LN5@Rrotate

; 518  :             _Wherenode->_Parent->_Right = _Pnode;

  0003d	89 70 08	 mov	 DWORD PTR [eax+8], esi

; 521  :         }
; 522  : 
; 523  :         _Pnode->_Right      = _Wherenode;
; 524  :         _Wherenode->_Parent = _Pnode;
; 525  :     }

  00040	89 56 08	 mov	 DWORD PTR [esi+8], edx
  00043	89 72 04	 mov	 DWORD PTR [edx+4], esi
  00046	5e		 pop	 esi
  00047	5d		 pop	 ebp
  00048	c2 04 00	 ret	 4
$LN5@Rrotate:

; 519  :         } else {
; 520  :             _Wherenode->_Parent->_Left = _Pnode;

  0004b	89 30		 mov	 DWORD PTR [eax], esi

; 521  :         }
; 522  : 
; 523  :         _Pnode->_Right      = _Wherenode;
; 524  :         _Wherenode->_Parent = _Pnode;
; 525  :     }

  0004d	89 56 08	 mov	 DWORD PTR [esi+8], edx
  00050	89 72 04	 mov	 DWORD PTR [edx+4], esi
  00053	5e		 pop	 esi
  00054	5d		 pop	 ebp
  00055	c2 04 00	 ret	 4
?_Rrotate@?$_Tree_val@U?$_Tree_simple_types@U?$pair@$$CBKU_Friend@@@std@@@std@@@std@@QAEXPAU?$_Tree_node@U?$pair@$$CBKU_Friend@@@std@@PAX@2@@Z ENDP ; std::_Tree_val<std::_Tree_simple_types<std::pair<unsigned long const ,_Friend> > >::_Rrotate
_TEXT	ENDS
; Function compile flags: /Ogtp
; File C:\Program Files\Microsoft Visual Studio\2022\Professional\VC\Tools\MSVC\14.44.35207\include\xtree
;	COMDAT ?_Lrotate@?$_Tree_val@U?$_Tree_simple_types@U?$pair@$$CBKU_Friend@@@std@@@std@@@std@@QAEXPAU?$_Tree_node@U?$pair@$$CBKU_Friend@@@std@@PAX@2@@Z
_TEXT	SEGMENT
__Wherenode$ = 8					; size = 4
?_Lrotate@?$_Tree_val@U?$_Tree_simple_types@U?$pair@$$CBKU_Friend@@@std@@@std@@@std@@QAEXPAU?$_Tree_node@U?$pair@$$CBKU_Friend@@@std@@PAX@2@@Z PROC ; std::_Tree_val<std::_Tree_simple_types<std::pair<unsigned long const ,_Friend> > >::_Lrotate, COMDAT
; _this$ = ecx

; 483  :     void _Lrotate(_Nodeptr _Wherenode) noexcept { // promote right node to root of subtree

  00000	55		 push	 ebp
  00001	8b ec		 mov	 ebp, esp

; 484  :         _Nodeptr _Pnode    = _Wherenode->_Right;

  00003	8b 55 08	 mov	 edx, DWORD PTR __Wherenode$[ebp]
  00006	56		 push	 esi
  00007	8b 72 08	 mov	 esi, DWORD PTR [edx+8]

; 485  :         _Wherenode->_Right = _Pnode->_Left;

  0000a	8b 06		 mov	 eax, DWORD PTR [esi]
  0000c	89 42 08	 mov	 DWORD PTR [edx+8], eax

; 486  : 
; 487  :         if (!_Pnode->_Left->_Isnil) {

  0000f	8b 06		 mov	 eax, DWORD PTR [esi]
  00011	80 78 0d 00	 cmp	 BYTE PTR [eax+13], 0
  00015	75 03		 jne	 SHORT $LN2@Lrotate

; 488  :             _Pnode->_Left->_Parent = _Wherenode;

  00017	89 50 04	 mov	 DWORD PTR [eax+4], edx
$LN2@Lrotate:

; 489  :         }
; 490  : 
; 491  :         _Pnode->_Parent = _Wherenode->_Parent;

  0001a	8b 42 04	 mov	 eax, DWORD PTR [edx+4]
  0001d	89 46 04	 mov	 DWORD PTR [esi+4], eax

; 492  : 
; 493  :         if (_Wherenode == _Myhead->_Parent) {

  00020	8b 01		 mov	 eax, DWORD PTR [ecx]
  00022	3b 50 04	 cmp	 edx, DWORD PTR [eax+4]
  00025	75 0d		 jne	 SHORT $LN3@Lrotate

; 494  :             _Myhead->_Parent = _Pnode;

  00027	89 70 04	 mov	 DWORD PTR [eax+4], esi

; 499  :         }
; 500  : 
; 501  :         _Pnode->_Left       = _Wherenode;
; 502  :         _Wherenode->_Parent = _Pnode;
; 503  :     }

  0002a	89 16		 mov	 DWORD PTR [esi], edx
  0002c	89 72 04	 mov	 DWORD PTR [edx+4], esi
  0002f	5e		 pop	 esi
  00030	5d		 pop	 ebp
  00031	c2 04 00	 ret	 4
$LN3@Lrotate:

; 495  :         } else if (_Wherenode == _Wherenode->_Parent->_Left) {

  00034	8b 42 04	 mov	 eax, DWORD PTR [edx+4]
  00037	3b 10		 cmp	 edx, DWORD PTR [eax]
  00039	75 0c		 jne	 SHORT $LN5@Lrotate

; 496  :             _Wherenode->_Parent->_Left = _Pnode;

  0003b	89 30		 mov	 DWORD PTR [eax], esi

; 499  :         }
; 500  : 
; 501  :         _Pnode->_Left       = _Wherenode;
; 502  :         _Wherenode->_Parent = _Pnode;
; 503  :     }

  0003d	89 16		 mov	 DWORD PTR [esi], edx
  0003f	89 72 04	 mov	 DWORD PTR [edx+4], esi
  00042	5e		 pop	 esi
  00043	5d		 pop	 ebp
  00044	c2 04 00	 ret	 4
$LN5@Lrotate:

; 497  :         } else {
; 498  :             _Wherenode->_Parent->_Right = _Pnode;

  00047	89 70 08	 mov	 DWORD PTR [eax+8], esi

; 499  :         }
; 500  : 
; 501  :         _Pnode->_Left       = _Wherenode;
; 502  :         _Wherenode->_Parent = _Pnode;
; 503  :     }

  0004a	89 16		 mov	 DWORD PTR [esi], edx
  0004c	89 72 04	 mov	 DWORD PTR [edx+4], esi
  0004f	5e		 pop	 esi
  00050	5d		 pop	 ebp
  00051	c2 04 00	 ret	 4
?_Lrotate@?$_Tree_val@U?$_Tree_simple_types@U?$pair@$$CBKU_Friend@@@std@@@std@@@std@@QAEXPAU?$_Tree_node@U?$pair@$$CBKU_Friend@@@std@@PAX@2@@Z ENDP ; std::_Tree_val<std::_Tree_simple_types<std::pair<unsigned long const ,_Friend> > >::_Lrotate
_TEXT	ENDS
; Function compile flags: /Ogtp
; File C:\Program Files\Microsoft Visual Studio\2022\Professional\VC\Tools\MSVC\14.44.35207\include\xtree
; File C:\Program Files\Microsoft Visual Studio\2022\Professional\VC\Tools\MSVC\14.44.35207\include\type_traits
; File C:\Program Files\Microsoft Visual Studio\2022\Professional\VC\Tools\MSVC\14.44.35207\include\xtree
; File C:\Program Files\Microsoft Visual Studio\2022\Professional\VC\Tools\MSVC\14.44.35207\include\type_traits
; File C:\Program Files\Microsoft Visual Studio\2022\Professional\VC\Tools\MSVC\14.44.35207\include\xtree
; File C:\Program Files\Microsoft Visual Studio\2022\Professional\VC\Tools\MSVC\14.44.35207\include\type_traits
; File C:\Program Files\Microsoft Visual Studio\2022\Professional\VC\Tools\MSVC\14.44.35207\include\xtree
; File C:\Program Files\Microsoft Visual Studio\2022\Professional\VC\Tools\MSVC\14.44.35207\include\xutility
; File C:\Program Files\Microsoft Visual Studio\2022\Professional\VC\Tools\MSVC\14.44.35207\include\xtree
; File C:\Program Files\Microsoft Visual Studio\2022\Professional\VC\Tools\MSVC\14.44.35207\include\xutility
; File C:\Program Files\Microsoft Visual Studio\2022\Professional\VC\Tools\MSVC\14.44.35207\include\xtree
; File C:\Program Files\Microsoft Visual Studio\2022\Professional\VC\Tools\MSVC\14.44.35207\include\xutility
; File C:\Program Files\Microsoft Visual Studio\2022\Professional\VC\Tools\MSVC\14.44.35207\include\xtree
; File C:\Program Files\Microsoft Visual Studio\2022\Professional\VC\Tools\MSVC\14.44.35207\include\xutility
; File C:\Program Files\Microsoft Visual Studio\2022\Professional\VC\Tools\MSVC\14.44.35207\include\xtree
; File C:\Program Files\Microsoft Visual Studio\2022\Professional\VC\Tools\MSVC\14.44.35207\include\utility
; File C:\Program Files\Microsoft Visual Studio\2022\Professional\VC\Tools\MSVC\14.44.35207\include\xmemory
; File C:\Program Files\Microsoft Visual Studio\2022\Professional\VC\Tools\MSVC\14.44.35207\include\xtree
; File C:\Program Files\Microsoft Visual Studio\2022\Professional\VC\Tools\MSVC\14.44.35207\include\xmemory
; File C:\Program Files\Microsoft Visual Studio\2022\Professional\VC\Tools\MSVC\14.44.35207\include\xtree
; File C:\Program Files\Microsoft Visual Studio\2022\Professional\VC\Tools\MSVC\14.44.35207\include\xmemory
; File C:\Program Files\Microsoft Visual Studio\2022\Professional\VC\Tools\MSVC\14.44.35207\include\xtree
;	COMDAT ?erase@?$_Tree@V?$_Tmap_traits@KU_Friend@@U?$less@K@std@@V?$allocator@U?$pair@$$CBKU_Friend@@@std@@@3@$0A@@std@@@std@@QAEIABK@Z
_TEXT	SEGMENT
__First$ = -16						; size = 4
__Rootnode$1$ = -16					; size = 4
__Head$1$ = -12						; size = 4
_this$1$ = -8						; size = 4
tv820 = -1						; size = 1
__Keyval$ = 8						; size = 4
__Off$1$ = 8						; size = 4
?erase@?$_Tree@V?$_Tmap_traits@KU_Friend@@U?$less@K@std@@V?$allocator@U?$pair@$$CBKU_Friend@@@std@@@3@$0A@@std@@@std@@QAEIABK@Z PROC ; std::_Tree<std::_Tmap_traits<unsigned long,_Friend,std::less<unsigned long>,std::allocator<std::pair<unsigned long const ,_Friend> >,0> >::erase, COMDAT
; _this$ = ecx

; 1357 :     size_type erase(const key_type& _Keyval) noexcept(noexcept(_Eqrange(_Keyval))) /* strengthened */ {

  00000	55		 push	 ebp
  00001	8b ec		 mov	 ebp, esp
  00003	83 ec 10	 sub	 esp, 16			; 00000010H
  00006	8b c1		 mov	 eax, ecx
  00008	53		 push	 ebx
  00009	56		 push	 esi
  0000a	57		 push	 edi

; 1709 :         _Nodeptr _Pnode   = _Scary->_Myhead->_Parent;

  0000b	8b 38		 mov	 edi, DWORD PTR [eax]

