; Listing generated by Microsoft (R) Optimizing Compiler Version 19.44.35225.0 

	TITLE	C:\IAGOS\server\v18\Source\Output\WorldServer\Release\DPDatabaseClient.obj
	.686P
	.XMM
	include listing.inc
	.model	flat

INCLUDELIB LIBCMT
INCLUDELIB OLDNAMES

CONST	SEGMENT
?piecewise_construct@std@@3Upiecewise_construct_t@1@B	ORG $+1 ; std::piecewise_construct
CONST	ENDS
PUBLIC	??_H@YGXPAXIIP6EPAX0@Z@Z			; `vector constructor iterator'
PUBLIC	?__empty_global_delete@@YAXPAX@Z		; __empty_global_delete
PUBLIC	?__empty_global_delete@@YAXPAXI@Z		; __empty_global_delete
PUBLIC	___local_stdio_printf_options
PUBLIC	_sprintf
PUBLIC	?AfxCrtErrorCheck@@YAHH@Z			; AfxCrtErrorCheck
PUBLIC	?AtlThrowImpl@ATL@@YGXJ@Z			; ATL::AtlThrowImpl
PUBLIC	??1?$CSimpleStringT@D$0A@@ATL@@QAE@XZ		; ATL::CSimpleStringT<char,0>::~CSimpleStringT<char,0>
PUBLIC	?SetString@?$CSimpleStringT@D$0A@@ATL@@QAEXPBDH@Z ; ATL::CSimpleStringT<char,0>::SetString
PUBLIC	?ThrowMemoryException@?$CSimpleStringT@D$0A@@ATL@@KAXXZ ; ATL::CSimpleStringT<char,0>::ThrowMemoryException
PUBLIC	?Fork@?$CSimpleStringT@D$0A@@ATL@@AAEXH@Z	; ATL::CSimpleStringT<char,0>::Fork
PUBLIC	?PrepareWrite2@?$CSimpleStringT@D$0A@@ATL@@AAEXH@Z ; ATL::CSimpleStringT<char,0>::PrepareWrite2
PUBLIC	?Reallocate@?$CSimpleStringT@D$0A@@ATL@@AAEXH@Z	; ATL::CSimpleStringT<char,0>::Reallocate
PUBLIC	??0?$CStringT@DV?$StrTraitMFC@DV?$ChTraitsCRT@D@ATL@@@@@ATL@@QAE@ABV01@@Z ; ATL::CStringT<char,StrTraitMFC<char,ATL::ChTraitsCRT<char> > >::CStringT<char,StrTraitMFC<char,ATL::ChTraitsCRT<char> > >
PUBLIC	??1?$CStringT@DV?$StrTraitMFC@DV?$ChTraitsCRT@D@ATL@@@@@ATL@@QAE@XZ ; ATL::CStringT<char,StrTraitMFC<char,ATL::ChTraitsCRT<char> > >::~CStringT<char,StrTraitMFC<char,ATL::ChTraitsCRT<char> > >
PUBLIC	?Replace@?$CStringT@DV?$StrTraitMFC@DV?$ChTraitsCRT@D@ATL@@@@@ATL@@QAEHPBD0@Z ; ATL::CStringT<char,StrTraitMFC<char,ATL::ChTraitsCRT<char> > >::Replace
PUBLIC	?Format@?$CStringT@DV?$StrTraitMFC@DV?$ChTraitsCRT@D@ATL@@@@@ATL@@QAAXPBDZZ ; ATL::CStringT<char,StrTraitMFC<char,ATL::ChTraitsCRT<char> > >::Format
PUBLIC	?FormatV@?$CStringT@DV?$StrTraitMFC@DV?$ChTraitsCRT@D@ATL@@@@@ATL@@QAEXPBDPAD@Z ; ATL::CStringT<char,StrTraitMFC<char,ATL::ChTraitsCRT<char> > >::FormatV
PUBLIC	?LoadStringA@?$CStringT@DV?$StrTraitMFC@DV?$ChTraitsCRT@D@ATL@@@@@ATL@@QAEHI@Z ; ATL::CStringT<char,StrTraitMFC<char,ATL::ChTraitsCRT<char> > >::LoadStringA
PUBLIC	??0exception@std@@QAE@ABV01@@Z			; std::exception::exception
PUBLIC	??1exception@std@@UAE@XZ			; std::exception::~exception
PUBLIC	?what@exception@std@@UBEPBDXZ			; std::exception::what
PUBLIC	??_Gexception@std@@UAEPAXI@Z			; std::exception::`scalar deleting destructor'
PUBLIC	??0bad_alloc@std@@QAE@ABV01@@Z			; std::bad_alloc::bad_alloc
PUBLIC	??_Gbad_alloc@std@@UAEPAXI@Z			; std::bad_alloc::`scalar deleting destructor'
PUBLIC	??0bad_array_new_length@std@@QAE@XZ		; std::bad_array_new_length::bad_array_new_length
PUBLIC	??1bad_array_new_length@std@@UAE@XZ		; std::bad_array_new_length::~bad_array_new_length
PUBLIC	??0bad_array_new_length@std@@QAE@ABV01@@Z	; std::bad_array_new_length::bad_array_new_length
PUBLIC	??_Gbad_array_new_length@std@@UAEPAXI@Z		; std::bad_array_new_length::`scalar deleting destructor'
PUBLIC	?_Throw_bad_array_new_length@std@@YAXXZ		; std::_Throw_bad_array_new_length
PUBLIC	?_Xlen_string@std@@YAXXZ			; std::_Xlen_string
PUBLIC	??0?$basic_string@DU?$char_traits@D@std@@V?$allocator@D@2@@std@@QAE@QBD@Z ; std::basic_string<char,std::char_traits<char>,std::allocator<char> >::basic_string<char,std::char_traits<char>,std::allocator<char> >
PUBLIC	?_Throw_tree_length_error@std@@YAXXZ		; std::_Throw_tree_length_error
PUBLIC	??0D3DXVECTOR3@@QAE@XZ				; D3DXVECTOR3::D3DXVECTOR3
PUBLIC	??0_LogItemInfo@@QAE@XZ				; _LogItemInfo::_LogItemInfo
PUBLIC	??0?$vector@KV?$allocator@K@std@@@std@@QAE@ABV01@@Z ; std::vector<unsigned long,std::allocator<unsigned long> >::vector<unsigned long,std::allocator<unsigned long> >
PUBLIC	??1?$vector@KV?$allocator@K@std@@@std@@QAE@XZ	; std::vector<unsigned long,std::allocator<unsigned long> >::~vector<unsigned long,std::allocator<unsigned long> >
PUBLIC	?_Buy_raw@?$vector@KV?$allocator@K@std@@@std@@AAEXI@Z ; std::vector<unsigned long,std::allocator<unsigned long> >::_Buy_raw
PUBLIC	?_Tidy@?$vector@KV?$allocator@K@std@@@std@@AAEXXZ ; std::vector<unsigned long,std::allocator<unsigned long> >::_Tidy
PUBLIC	?_Xlength@?$vector@KV?$allocator@K@std@@@std@@CAXXZ ; std::vector<unsigned long,std::allocator<unsigned long> >::_Xlength
PUBLIC	?_Xlength@?$vector@U__SPAWNREGION@CEventLua@@V?$allocator@U__SPAWNREGION@CEventLua@@@std@@@std@@CAXXZ ; std::vector<CEventLua::__SPAWNREGION,std::allocator<CEventLua::__SPAWNREGION> >::_Xlength
PUBLIC	?GetUserByID@CProject@@QAEPAVCMover@@K@Z	; CProject::GetUserByID
PUBLIC	?GetPropA@CItemElem@@QAEPAUItemProp@@XZ		; CItemElem::GetPropA
PUBLIC	?GetAtId@?$CItemContainer@VCItemElem@@@@QAEPAVCItemElem@@K@Z ; CItemContainer<CItemElem>::GetAtId
PUBLIC	?Serialize@?$CItemContainer@VCItemElem@@@@QAEXAAVCAr@@@Z ; CItemContainer<CItemElem>::Serialize
PUBLIC	??1__GC1TO1TENDER@CGuildCombat1to1Mng@@QAE@XZ	; CGuildCombat1to1Mng::__GC1TO1TENDER::~__GC1TO1TENDER
PUBLIC	?_Xlength@?$vector@U__GC1TO1TENDER@CGuildCombat1to1Mng@@V?$allocator@U__GC1TO1TENDER@CGuildCombat1to1Mng@@@std@@@std@@CAXXZ ; std::vector<CGuildCombat1to1Mng::__GC1TO1TENDER,std::allocator<CGuildCombat1to1Mng::__GC1TO1TENDER> >::_Xlength
PUBLIC	??$_Emplace_reallocate@U__SPAWNREGION@CEventLua@@@?$vector@U__SPAWNREGION@CEventLua@@V?$allocator@U__SPAWNREGION@CEventLua@@@std@@@std@@AAEPAU__SPAWNREGION@CEventLua@@QAU23@$$QAU23@@Z ; std::vector<CEventLua::__SPAWNREGION,std::allocator<CEventLua::__SPAWNREGION> >::_Emplace_reallocate<CEventLua::__SPAWNREGION>
PUBLIC	??$?MDU?$char_traits@D@std@@V?$allocator@D@1@@std@@YA_NABV?$basic_string@DU?$char_traits@D@std@@V?$allocator@D@2@@0@0@Z ; std::operator<<char,std::char_traits<char>,std::allocator<char> >
PUBLIC	??$_Copy_memmove@PAU__SPAWNREGION@CEventLua@@PAU12@@std@@YAPAU__SPAWNREGION@CEventLua@@PAU12@00@Z ; std::_Copy_memmove<CEventLua::__SPAWNREGION *,CEventLua::__SPAWNREGION *>
PUBLIC	??$_Copy_memmove_tail@PAU__SPAWNREGION@CEventLua@@@std@@YAPAU__SPAWNREGION@CEventLua@@QBDQAU12@II@Z ; std::_Copy_memmove_tail<CEventLua::__SPAWNREGION *>
PUBLIC	??$_Allocate_manually_vector_aligned@U_Default_allocate_traits@std@@@std@@YAPAXI@Z ; std::_Allocate_manually_vector_aligned<std::_Default_allocate_traits>
PUBLIC	??0__GUILDBANKLOG_ENTRY@@QAE@XZ			; __GUILDBANKLOG_ENTRY::__GUILDBANKLOG_ENTRY
PUBLIC	??0__SEALCHAR_ENTRY@@QAE@XZ			; __SEALCHAR_ENTRY::__SEALCHAR_ENTRY
PUBLIC	??$?6K@CAr@@QAEAAV0@ABK@Z			; CAr::operator<<<unsigned long>
PUBLIC	??$?5K@CAr@@QAEAAV0@AAK@Z			; CAr::operator>><unsigned long>
PUBLIC	?_Xlength@?$vector@U__GCPLAYERPOINT@CGuildCombat@@V?$allocator@U__GCPLAYERPOINT@CGuildCombat@@@std@@@std@@CAXXZ ; std::vector<CGuildCombat::__GCPLAYERPOINT,std::allocator<CGuildCombat::__GCPLAYERPOINT> >::_Xlength
PUBLIC	?_Xlength@?$vector@U__GCRESULTVALUEGUILD@CGuildCombat@@V?$allocator@U__GCRESULTVALUEGUILD@CGuildCombat@@@std@@@std@@CAXXZ ; std::vector<CGuildCombat::__GCRESULTVALUEGUILD,std::allocator<CGuildCombat::__GCRESULTVALUEGUILD> >::_Xlength
PUBLIC	?_Xlength@?$vector@U__GCRESULTVALUEPLAYER@CGuildCombat@@V?$allocator@U__GCRESULTVALUEPLAYER@CGuildCombat@@@std@@@std@@CAXXZ ; std::vector<CGuildCombat::__GCRESULTVALUEPLAYER,std::allocator<CGuildCombat::__GCRESULTVALUEPLAYER> >::_Xlength
PUBLIC	?_Tidy@?$vector@U__SECRETROOM_MONSTER@@V?$allocator@U__SECRETROOM_MONSTER@@@std@@@std@@AAEXXZ ; std::vector<__SECRETROOM_MONSTER,std::allocator<__SECRETROOM_MONSTER> >::_Tidy
PUBLIC	?_Xlength@?$vector@U__SECRETROOM_MONSTER@@V?$allocator@U__SECRETROOM_MONSTER@@@std@@@std@@CAXXZ ; std::vector<__SECRETROOM_MONSTER,std::allocator<__SECRETROOM_MONSTER> >::_Xlength
PUBLIC	??1__SECRETROOM_TENDER@@QAE@XZ			; __SECRETROOM_TENDER::~__SECRETROOM_TENDER
PUBLIC	?_Xlength@?$vector@U__SECRETROOM_TENDER@@V?$allocator@U__SECRETROOM_TENDER@@@std@@@std@@CAXXZ ; std::vector<__SECRETROOM_TENDER,std::allocator<__SECRETROOM_TENDER> >::_Xlength
PUBLIC	??0CDPDatabaseClient@@QAE@XZ			; CDPDatabaseClient::CDPDatabaseClient
PUBLIC	??1CDPDatabaseClient@@UAE@XZ			; CDPDatabaseClient::~CDPDatabaseClient
PUBLIC	?SysMessageHandler@CDPDatabaseClient@@UAEXPAUDPMSG_GENERIC@@KK@Z ; CDPDatabaseClient::SysMessageHandler
PUBLIC	?UserMessageHandler@CDPDatabaseClient@@UAEXPAUDPMSG_GENERIC@@KK@Z ; CDPDatabaseClient::UserMessageHandler
PUBLIC	?SendITEM_TBL_Update@CDPDatabaseClient@@QAEXXZ	; CDPDatabaseClient::SendITEM_TBL_Update
PUBLIC	?SavePlayer@CDPDatabaseClient@@QAEXPAVCUser@@KAAUD3DXVECTOR3@@HH@Z ; CDPDatabaseClient::SavePlayer
PUBLIC	?SendRecommend@CDPDatabaseClient@@QAEXPAVCUser@@H@Z ; CDPDatabaseClient::SendRecommend
PUBLIC	?SendLogConnect@CDPDatabaseClient@@QAEXPAVCUser@@@Z ; CDPDatabaseClient::SendLogConnect
PUBLIC	?SendLogPlayDeath@CDPDatabaseClient@@QAEXPAVCMover@@0@Z ; CDPDatabaseClient::SendLogPlayDeath
PUBLIC	?SendLogLevelUp@CDPDatabaseClient@@QAEXPAVCMover@@H@Z ; CDPDatabaseClient::SendLogLevelUp
PUBLIC	?SendLogSkillPoint@CDPDatabaseClient@@QAEXHHPAVCMover@@PAUtagSkill@@@Z ; CDPDatabaseClient::SendLogSkillPoint
PUBLIC	?SendLogItem@CDPDatabaseClient@@QAEXPAVCUser@@PAVCMover@@@Z ; CDPDatabaseClient::SendLogItem
PUBLIC	?SendLogSMItemUse@CDPDatabaseClient@@QAEXPBDPAVCUser@@PAVCItemElem@@PAUItemProp@@0@Z ; CDPDatabaseClient::SendLogSMItemUse
PUBLIC	?SendLogGamemaChat@CDPDatabaseClient@@QAEXPAVCUser@@PBD@Z ; CDPDatabaseClient::SendLogGamemaChat
PUBLIC	?SendLogUniqueItem@CDPDatabaseClient@@QAEXPAVCMover@@PAVCItem@@H@Z ; CDPDatabaseClient::SendLogUniqueItem
PUBLIC	?SendLogUniqueItem2@CDPDatabaseClient@@QAEXPAVCMover@@PAUItemProp@@H@Z ; CDPDatabaseClient::SendLogUniqueItem2
PUBLIC	?SendChangeBankPass@CDPDatabaseClient@@QAEXPBD0K@Z ; CDPDatabaseClient::SendChangeBankPass
PUBLIC	?SendLogPkPvp@CDPDatabaseClient@@QAEXPAVCMover@@0HD@Z ; CDPDatabaseClient::SendLogPkPvp
PUBLIC	?SendLogSchool@CDPDatabaseClient@@QAEXKPBD@Z	; CDPDatabaseClient::SendLogSchool
PUBLIC	?SendPing@CDPDatabaseClient@@QAEXXZ		; CDPDatabaseClient::SendPing
PUBLIC	?SendInGuildCombat@CDPDatabaseClient@@QAEXKKK@Z	; CDPDatabaseClient::SendInGuildCombat
PUBLIC	?SendOutGuildCombat@CDPDatabaseClient@@QAEXK@Z	; CDPDatabaseClient::SendOutGuildCombat
PUBLIC	?SendGuildCombatResult@CDPDatabaseClient@@QAEXXZ ; CDPDatabaseClient::SendGuildCombatResult
PUBLIC	?SendGuildCombatStart@CDPDatabaseClient@@QAEXXZ	; CDPDatabaseClient::SendGuildCombatStart
PUBLIC	?SendGCGetPenyaGuild@CDPDatabaseClient@@QAEXKHK@Z ; CDPDatabaseClient::SendGCGetPenyaGuild
PUBLIC	?SendGCGetPenyaPlayer@CDPDatabaseClient@@QAEXKHK@Z ; CDPDatabaseClient::SendGCGetPenyaPlayer
PUBLIC	?SendGuildcombatContinue@CDPDatabaseClient@@QAEXHKH@Z ; CDPDatabaseClient::SendGuildcombatContinue
PUBLIC	?CalluspXXXMultiServer@CDPDatabaseClient@@QAEXKPAVCUser@@@Z ; CDPDatabaseClient::CalluspXXXMultiServer
PUBLIC	?SendLogExpBox@CDPDatabaseClient@@QAEXKK_JH@Z	; CDPDatabaseClient::SendLogExpBox
PUBLIC	?SendQueryGuildQuest@CDPDatabaseClient@@QAEXXZ	; CDPDatabaseClient::SendQueryGuildQuest
PUBLIC	?SendInsertGuildQuest@CDPDatabaseClient@@QAEXKH@Z ; CDPDatabaseClient::SendInsertGuildQuest
PUBLIC	?SendUpdateGuildQuest@CDPDatabaseClient@@QAEXKHH@Z ; CDPDatabaseClient::SendUpdateGuildQuest
PUBLIC	?SendQueryGuildBank@CDPDatabaseClient@@QAEXXZ	; CDPDatabaseClient::SendQueryGuildBank
PUBLIC	?SendGuildContribution@CDPDatabaseClient@@QAEXAAUCONTRIBUTION_CHANGED_INFO@@EJ@Z ; CDPDatabaseClient::SendGuildContribution
PUBLIC	?SendGuildGetPay@CDPDatabaseClient@@QAEXKKK@Z	; CDPDatabaseClient::SendGuildGetPay
PUBLIC	?SendQuerySetPlayerName@CDPDatabaseClient@@QAEXKPBDK@Z ; CDPDatabaseClient::SendQuerySetPlayerName
PUBLIC	?SendQueryMailBox@CDPDatabaseClient@@QAEXK@Z	; CDPDatabaseClient::SendQueryMailBox
PUBLIC	?SendQueryMailBoxReq@CDPDatabaseClient@@QAEXK@Z	; CDPDatabaseClient::SendQueryMailBoxReq
PUBLIC	?SendQueryMailBoxCount@CDPDatabaseClient@@QAEXKH@Z ; CDPDatabaseClient::SendQueryMailBoxCount
PUBLIC	?OnMailBoxReq@CDPDatabaseClient@@QAEXAAVCAr@@KK@Z ; CDPDatabaseClient::OnMailBoxReq
PUBLIC	?OnMailBox@CDPDatabaseClient@@QAEXAAVCAr@@KK@Z	; CDPDatabaseClient::OnMailBox
PUBLIC	?SendQueryPostMail@CDPDatabaseClient@@QAEXKKAAVCItemElem@@HPAD1@Z ; CDPDatabaseClient::SendQueryPostMail
PUBLIC	?SendQueryRemoveMail@CDPDatabaseClient@@QAEXKK@Z ; CDPDatabaseClient::SendQueryRemoveMail
PUBLIC	?SendQueryGetMailItem@CDPDatabaseClient@@QAEXKK@Z ; CDPDatabaseClient::SendQueryGetMailItem
PUBLIC	?SendQueryGetMailGold@CDPDatabaseClient@@QAEXKK@Z ; CDPDatabaseClient::SendQueryGetMailGold
PUBLIC	?SendQueryReadMail@CDPDatabaseClient@@QAEXKK@Z	; CDPDatabaseClient::SendQueryReadMail
PUBLIC	?OnPostMail@CDPDatabaseClient@@QAEXAAVCAr@@KK@Z	; CDPDatabaseClient::OnPostMail
PUBLIC	?OnRemoveMail@CDPDatabaseClient@@QAEXAAVCAr@@KK@Z ; CDPDatabaseClient::OnRemoveMail
PUBLIC	?OnGetMailItem@CDPDatabaseClient@@QAEXAAVCAr@@KK@Z ; CDPDatabaseClient::OnGetMailItem
PUBLIC	?OnGetMailGold@CDPDatabaseClient@@QAEXAAVCAr@@KK@Z ; CDPDatabaseClient::OnGetMailGold
PUBLIC	?OnReadMail@CDPDatabaseClient@@QAEXAAVCAr@@KK@Z	; CDPDatabaseClient::OnReadMail
PUBLIC	?OnAllMail@CDPDatabaseClient@@QAEXAAVCAr@@KK@Z	; CDPDatabaseClient::OnAllMail
PUBLIC	?CalluspLoggingQuest@CDPDatabaseClient@@QAEXKHHPBD@Z ; CDPDatabaseClient::CalluspLoggingQuest
PUBLIC	?SendPreventLogin@CDPDatabaseClient@@QAEXPBDK@Z	; CDPDatabaseClient::SendPreventLogin
PUBLIC	?SendSchoolReport@CDPDatabaseClient@@QAEXPAU_SCHOOL_ENTRY@@@Z ; CDPDatabaseClient::SendSchoolReport
PUBLIC	?SendBuyingInfo@CDPDatabaseClient@@QAEXPAU_BUYING_INFO2@@K@Z ; CDPDatabaseClient::SendBuyingInfo
PUBLIC	?SendQueryGetGuildBankLogList@CDPDatabaseClient@@QAEXKKE@Z ; CDPDatabaseClient::SendQueryGetGuildBankLogList
PUBLIC	?SendQueryGetSealChar@CDPDatabaseClient@@QAEXKPBD@Z ; CDPDatabaseClient::SendQueryGetSealChar
PUBLIC	?SendQueryGetSealCharConm@CDPDatabaseClient@@QAEXK@Z ; CDPDatabaseClient::SendQueryGetSealCharConm
PUBLIC	?SendQueryGetSealCharGet@CDPDatabaseClient@@QAEXKPBDK@Z ; CDPDatabaseClient::SendQueryGetSealCharGet
PUBLIC	?SendQueryGetSealCharSet@CDPDatabaseClient@@QAEXKPBDJK@Z ; CDPDatabaseClient::SendQueryGetSealCharSet
PUBLIC	?CalluspPetLog@CDPDatabaseClient@@QAEXKKKHPAVCPet@@@Z ; CDPDatabaseClient::CalluspPetLog
PUBLIC	?SendEventLuaChanged@CDPDatabaseClient@@QAEXXZ	; CDPDatabaseClient::SendEventLuaChanged
PUBLIC	?SendGC1to1StateToDBSrvr@CDPDatabaseClient@@QAEXXZ ; CDPDatabaseClient::SendGC1to1StateToDBSrvr
PUBLIC	?SendGC1to1Tender@CDPDatabaseClient@@QAEXDKHD@Z	; CDPDatabaseClient::SendGC1to1Tender
PUBLIC	?SendGC1to1LineUp@CDPDatabaseClient@@QAEXKAAV?$vector@KV?$allocator@K@std@@@std@@@Z ; CDPDatabaseClient::SendGC1to1LineUp
PUBLIC	?SendGC1to1WarPerson@CDPDatabaseClient@@QAEXKKD@Z ; CDPDatabaseClient::SendGC1to1WarPerson
PUBLIC	?SendGC1to1WarGuild@CDPDatabaseClient@@QAEXKKKD@Z ; CDPDatabaseClient::SendGC1to1WarGuild
PUBLIC	?SendUpdatePlayerData@CDPDatabaseClient@@QAEXPAVCUser@@@Z ; CDPDatabaseClient::SendUpdatePlayerData
PUBLIC	??1?$_Tree@V?$_Tmap_traits@KP8CDPDatabaseClient@@AEXAAVCAr@@KK@ZU?$less@K@std@@V?$allocator@U?$pair@$$CBKP8CDPDatabaseClient@@AEXAAVCAr@@KK@Z@std@@@4@$0A@@std@@@std@@QAE@XZ ; std::_Tree<std::_Tmap_traits<unsigned long,void (__thiscall CDPDatabaseClient::*)(CAr &,unsigned long,unsigned long),std::less<unsigned long>,std::allocator<std::pair<unsigned long const ,void (__thiscall CDPDatabaseClient::*)(CAr &,unsigned long,unsigned long)> >,0> >::~_Tree<std::_Tmap_traits<unsigned long,void (__thiscall CDPDatabaseClient::*)(CAr &,unsigned long,unsigned long),std::less<unsigned long>,std::allocator<std::pair<unsigned long const ,void (__thiscall CDPDatabaseClient::*)(CAr &,unsigned long,unsigned long)> >,0> >
PUBLIC	?_Insert_node@?$_Tree_val@U?$_Tree_simple_types@U?$pair@$$CBKP8CDPDatabaseClient@@AEXAAVCAr@@KK@Z@std@@@std@@@std@@QAEPAU?$_Tree_node@U?$pair@$$CBKP8CDPDatabaseClient@@AEXAAVCAr@@KK@Z@std@@PAX@2@U?$_Tree_id@PAU?$_Tree_node@U?$pair@$$CBKP8CDPDatabaseClient@@AEXAAVCAr@@KK@Z@std@@PAX@std@@@2@QAU32@@Z ; std::_Tree_val<std::_Tree_simple_types<std::pair<unsigned long const ,void (__thiscall CDPDatabaseClient::*)(CAr &,unsigned long,unsigned long)> > >::_Insert_node
PUBLIC	??1?$map@KP8CDPDatabaseClient@@AEXAAVCAr@@KK@ZU?$less@K@std@@V?$allocator@U?$pair@$$CBKP8CDPDatabaseClient@@AEXAAVCAr@@KK@Z@std@@@4@@std@@QAE@XZ ; std::map<unsigned long,void (__thiscall CDPDatabaseClient::*)(CAr &,unsigned long,unsigned long),std::less<unsigned long>,std::allocator<std::pair<unsigned long const ,void (__thiscall CDPDatabaseClient::*)(CAr &,unsigned long,unsigned long)> > >::~map<unsigned long,void (__thiscall CDPDatabaseClient::*)(CAr &,unsigned long,unsigned long),std::less<unsigned long>,std::allocator<std::pair<unsigned long const ,void (__thiscall CDPDatabaseClient::*)(CAr &,unsigned long,unsigned long)> > >
PUBLIC	?OnJoin@CDPDatabaseClient@@AAEXAAVCAr@@KK@Z	; CDPDatabaseClient::OnJoin
PUBLIC	?OnAllPlayerData@CDPDatabaseClient@@AAEXAAVCAr@@KK@Z ; CDPDatabaseClient::OnAllPlayerData
PUBLIC	?OnAddPlayerData@CDPDatabaseClient@@AAEXAAVCAr@@KK@Z ; CDPDatabaseClient::OnAddPlayerData
PUBLIC	?OnDeletePlayerData@CDPDatabaseClient@@AAEXAAVCAr@@KK@Z ; CDPDatabaseClient::OnDeletePlayerData
PUBLIC	?OnUpdatePlayerData@CDPDatabaseClient@@AAEXAAVCAr@@KK@Z ; CDPDatabaseClient::OnUpdatePlayerData
PUBLIC	?OnGCPlayerPoint@CDPDatabaseClient@@AAEXAAVCAr@@@Z ; CDPDatabaseClient::OnGCPlayerPoint
PUBLIC	?OnGCResultValue@CDPDatabaseClient@@AAEXAAVCAr@@@Z ; CDPDatabaseClient::OnGCResultValue
PUBLIC	?OnAllGuildCombat@CDPDatabaseClient@@AAEXAAVCAr@@KK@Z ; CDPDatabaseClient::OnAllGuildCombat
PUBLIC	?OnInGuildCombat@CDPDatabaseClient@@AAEXAAVCAr@@KK@Z ; CDPDatabaseClient::OnInGuildCombat
PUBLIC	?OnOutGuildCombat@CDPDatabaseClient@@AAEXAAVCAr@@KK@Z ; CDPDatabaseClient::OnOutGuildCombat
PUBLIC	?OnResultGuildCombat@CDPDatabaseClient@@AAEXAAVCAr@@KK@Z ; CDPDatabaseClient::OnResultGuildCombat
PUBLIC	?OnPlayerPointGuildCombat@CDPDatabaseClient@@AAEXAAVCAr@@KK@Z ; CDPDatabaseClient::OnPlayerPointGuildCombat
PUBLIC	?OnGetPenyaGuildGC@CDPDatabaseClient@@AAEXAAVCAr@@KK@Z ; CDPDatabaseClient::OnGetPenyaGuildGC
PUBLIC	?OnGetPenyaPlayerGC@CDPDatabaseClient@@AAEXAAVCAr@@KK@Z ; CDPDatabaseClient::OnGetPenyaPlayerGC
PUBLIC	?OnContinueGC@CDPDatabaseClient@@AAEXAAVCAr@@KK@Z ; CDPDatabaseClient::OnContinueGC
PUBLIC	?OnBaseGameSetting@CDPDatabaseClient@@AAEXAAVCAr@@KK@Z ; CDPDatabaseClient::OnBaseGameSetting
PUBLIC	?OnMonsterRespawnSetting@CDPDatabaseClient@@AAEXAAVCAr@@KK@Z ; CDPDatabaseClient::OnMonsterRespawnSetting
PUBLIC	?OnMonsterPropSetting@CDPDatabaseClient@@AAEXAAVCAr@@KK@Z ; CDPDatabaseClient::OnMonsterPropSetting
PUBLIC	?OnGMChat@CDPDatabaseClient@@AAEXAAVCAr@@KK@Z	; CDPDatabaseClient::OnGMChat
PUBLIC	?OnGuildBank@CDPDatabaseClient@@AAEXAAVCAr@@KK@Z ; CDPDatabaseClient::OnGuildBank
PUBLIC	?OnQueryGuildQuest@CDPDatabaseClient@@AAEXAAVCAr@@KK@Z ; CDPDatabaseClient::OnQueryGuildQuest
PUBLIC	?OnPing@CDPDatabaseClient@@AAEXAAVCAr@@KK@Z	; CDPDatabaseClient::OnPing
PUBLIC	?OnQueryRemoveGuildBankTbl@CDPDatabaseClient@@AAEXAAVCAr@@KK@Z ; CDPDatabaseClient::OnQueryRemoveGuildBankTbl
PUBLIC	?SendQueryRemoveGuildBankTbl@CDPDatabaseClient@@AAEXHK@Z ; CDPDatabaseClient::SendQueryRemoveGuildBankTbl
PUBLIC	?OnEventGeneric@CDPDatabaseClient@@AAEXAAVCAr@@KK@Z ; CDPDatabaseClient::OnEventGeneric
PUBLIC	?OnEventFlag@CDPDatabaseClient@@AAEXAAVCAr@@KK@Z ; CDPDatabaseClient::OnEventFlag
PUBLIC	?OnEventStateLua@CDPDatabaseClient@@AAEXAAVCAr@@KK@Z ; CDPDatabaseClient::OnEventStateLua
PUBLIC	?OnEventLuaChanged@CDPDatabaseClient@@AAEXAAVCAr@@KK@Z ; CDPDatabaseClient::OnEventLuaChanged
PUBLIC	?OnGC1to1Open@CDPDatabaseClient@@AAEXAAVCAr@@KK@Z ; CDPDatabaseClient::OnGC1to1Open
PUBLIC	?OnGC1to1TenderGuildFromDB@CDPDatabaseClient@@AAEXAAVCAr@@KK@Z ; CDPDatabaseClient::OnGC1to1TenderGuildFromDB
PUBLIC	?OnGuildBankLogViewFromDB@CDPDatabaseClient@@AAEXAAVCAr@@KK@Z ; CDPDatabaseClient::OnGuildBankLogViewFromDB
PUBLIC	?OnSealCharFromDB@CDPDatabaseClient@@AAEXAAVCAr@@KK@Z ; CDPDatabaseClient::OnSealCharFromDB
PUBLIC	?OnSealCharGetFromDB@CDPDatabaseClient@@AAEXAAVCAr@@KK@Z ; CDPDatabaseClient::OnSealCharGetFromDB
PUBLIC	?OnElectionAddDeposit@CDPDatabaseClient@@AAEXAAVCAr@@KK@Z ; CDPDatabaseClient::OnElectionAddDeposit
PUBLIC	?OnElectionSetPledge@CDPDatabaseClient@@AAEXAAVCAr@@KK@Z ; CDPDatabaseClient::OnElectionSetPledge
PUBLIC	?OnElectionIncVote@CDPDatabaseClient@@AAEXAAVCAr@@KK@Z ; CDPDatabaseClient::OnElectionIncVote
PUBLIC	?OnElectionBeginCandidacy@CDPDatabaseClient@@AAEXAAVCAr@@KK@Z ; CDPDatabaseClient::OnElectionBeginCandidacy
PUBLIC	?OnElectionBeginVote@CDPDatabaseClient@@AAEXAAVCAr@@KK@Z ; CDPDatabaseClient::OnElectionBeginVote
PUBLIC	?OnElectionEndVote@CDPDatabaseClient@@AAEXAAVCAr@@KK@Z ; CDPDatabaseClient::OnElectionEndVote
PUBLIC	?OnLord@CDPDatabaseClient@@AAEXAAVCAr@@KK@Z	; CDPDatabaseClient::OnLord
PUBLIC	?OnLEventCreate@CDPDatabaseClient@@AAEXAAVCAr@@KK@Z ; CDPDatabaseClient::OnLEventCreate
PUBLIC	?OnLEventInitialize@CDPDatabaseClient@@AAEXAAVCAr@@KK@Z ; CDPDatabaseClient::OnLEventInitialize
PUBLIC	?OnLordSkillUse@CDPDatabaseClient@@AAEXAAVCAr@@KK@Z ; CDPDatabaseClient::OnLordSkillUse
PUBLIC	?OnLordSkillTick@CDPDatabaseClient@@AAEXAAVCAr@@KK@Z ; CDPDatabaseClient::OnLordSkillTick
PUBLIC	?OnLEventTick@CDPDatabaseClient@@AAEXAAVCAr@@KK@Z ; CDPDatabaseClient::OnLEventTick
PUBLIC	?SendElectionAddDeposit@CDPDatabaseClient@@QAEXK_J@Z ; CDPDatabaseClient::SendElectionAddDeposit
PUBLIC	?SendElectionSetPledge@CDPDatabaseClient@@QAEXKPBD@Z ; CDPDatabaseClient::SendElectionSetPledge
PUBLIC	?SendElectionIncVote@CDPDatabaseClient@@QAEXKK@Z ; CDPDatabaseClient::SendElectionIncVote
PUBLIC	?SendLEventCreate@CDPDatabaseClient@@QAEXKHH@Z	; CDPDatabaseClient::SendLEventCreate
PUBLIC	?SendLordSkillUse@CDPDatabaseClient@@QAEXKKH@Z	; CDPDatabaseClient::SendLordSkillUse
PUBLIC	?SendElectionProcess@CDPDatabaseClient@@QAEXH@Z	; CDPDatabaseClient::SendElectionProcess
PUBLIC	?SendElectionBeginCandidacy@CDPDatabaseClient@@QAEXXZ ; CDPDatabaseClient::SendElectionBeginCandidacy
PUBLIC	?SendElectionBeginVote@CDPDatabaseClient@@QAEXXZ ; CDPDatabaseClient::SendElectionBeginVote
PUBLIC	?SendElectionBeginEndVote@CDPDatabaseClient@@QAEXXZ ; CDPDatabaseClient::SendElectionBeginEndVote
PUBLIC	?SendLEventInitialize@CDPDatabaseClient@@QAEXXZ	; CDPDatabaseClient::SendLEventInitialize
PUBLIC	?OnTaxInfo@CDPDatabaseClient@@AAEXAAVCAr@@KK@Z	; CDPDatabaseClient::OnTaxInfo
PUBLIC	?SendSecretRoomWinGuild@CDPDatabaseClient@@QAEXEK@Z ; CDPDatabaseClient::SendSecretRoomWinGuild
PUBLIC	?SendLord@CDPDatabaseClient@@QAEXK@Z		; CDPDatabaseClient::SendLord
PUBLIC	?SendTaxRate@CDPDatabaseClient@@QAEXEHH@Z	; CDPDatabaseClient::SendTaxRate
PUBLIC	?SendAddTax@CDPDatabaseClient@@QAEXEHE@Z	; CDPDatabaseClient::SendAddTax
PUBLIC	?SendApplyTaxRateNow@CDPDatabaseClient@@QAEXXZ	; CDPDatabaseClient::SendApplyTaxRateNow
PUBLIC	?OnSecretRoomInfoClear@CDPDatabaseClient@@AAEXAAVCAr@@KK@Z ; CDPDatabaseClient::OnSecretRoomInfoClear
PUBLIC	?OnSecretRoomTenderInfo@CDPDatabaseClient@@AAEXAAVCAr@@KK@Z ; CDPDatabaseClient::OnSecretRoomTenderInfo
PUBLIC	?SendSecretRoomInsertToDB@CDPDatabaseClient@@QAEXEAAU__SECRETROOM_TENDER@@@Z ; CDPDatabaseClient::SendSecretRoomInsertToDB
PUBLIC	?SendSecretRoomUpdateToDB@CDPDatabaseClient@@QAEXEAAU__SECRETROOM_TENDER@@D@Z ; CDPDatabaseClient::SendSecretRoomUpdateToDB
PUBLIC	?SendSecretRoomInsertLineUpToDB@CDPDatabaseClient@@QAEXEAAU__SECRETROOM_TENDER@@@Z ; CDPDatabaseClient::SendSecretRoomInsertLineUpToDB
PUBLIC	?SendSecretRoomClosed@CDPDatabaseClient@@QAEXXZ	; CDPDatabaseClient::SendSecretRoomClosed
PUBLIC	?OnRainbowRaceInfo@CDPDatabaseClient@@AAEXAAVCAr@@KK@Z ; CDPDatabaseClient::OnRainbowRaceInfo
PUBLIC	?SendRainbowRaceReqLoad@CDPDatabaseClient@@QAEXXZ ; CDPDatabaseClient::SendRainbowRaceReqLoad
PUBLIC	?SendRainbowRaceApplication@CDPDatabaseClient@@QAEXK@Z ; CDPDatabaseClient::SendRainbowRaceApplication
PUBLIC	?SendRainbowRaceFailedUser@CDPDatabaseClient@@QAEXK@Z ; CDPDatabaseClient::SendRainbowRaceFailedUser
PUBLIC	?SendRainbowRaceRanking@CDPDatabaseClient@@QAEXKH@Z ; CDPDatabaseClient::SendRainbowRaceRanking
PUBLIC	?OnHousingLoadInfo@CDPDatabaseClient@@QAEXAAVCAr@@KK@Z ; CDPDatabaseClient::OnHousingLoadInfo
PUBLIC	?OnHousingSetFunitureList@CDPDatabaseClient@@QAEXAAVCAr@@KK@Z ; CDPDatabaseClient::OnHousingSetFunitureList
PUBLIC	?OnHousingSetupFuniture@CDPDatabaseClient@@QAEXAAVCAr@@KK@Z ; CDPDatabaseClient::OnHousingSetupFuniture
PUBLIC	?OnHousingSetVisitAllow@CDPDatabaseClient@@QAEXAAVCAr@@KK@Z ; CDPDatabaseClient::OnHousingSetVisitAllow
PUBLIC	?OnHousingDBFailed@CDPDatabaseClient@@QAEXAAVCAr@@KK@Z ; CDPDatabaseClient::OnHousingDBFailed
PUBLIC	?SendPropose@CDPDatabaseClient@@QAEXKK@Z	; CDPDatabaseClient::SendPropose
PUBLIC	?SendCouple@CDPDatabaseClient@@QAEXKK@Z		; CDPDatabaseClient::SendCouple
PUBLIC	?SendDecouple@CDPDatabaseClient@@QAEXK@Z	; CDPDatabaseClient::SendDecouple
PUBLIC	?SendClearPropose@CDPDatabaseClient@@QAEXXZ	; CDPDatabaseClient::SendClearPropose
PUBLIC	?OnProposeResult@CDPDatabaseClient@@QAEXAAVCAr@@KK@Z ; CDPDatabaseClient::OnProposeResult
PUBLIC	?OnCoupleResult@CDPDatabaseClient@@QAEXAAVCAr@@KK@Z ; CDPDatabaseClient::OnCoupleResult
PUBLIC	?OnDecoupleResult@CDPDatabaseClient@@QAEXAAVCAr@@KK@Z ; CDPDatabaseClient::OnDecoupleResult
PUBLIC	?OnCouple@CDPDatabaseClient@@QAEXAAVCAr@@KK@Z	; CDPDatabaseClient::OnCouple
PUBLIC	?SendQueryAddCoupleExperience@CDPDatabaseClient@@QAEXKH@Z ; CDPDatabaseClient::SendQueryAddCoupleExperience
PUBLIC	?OnAddCoupleExperience@CDPDatabaseClient@@QAEXAAVCAr@@KK@Z ; CDPDatabaseClient::OnAddCoupleExperience
PUBLIC	?SendLogGetHonorTime@CDPDatabaseClient@@QAEXPAVCMover@@H@Z ; CDPDatabaseClient::SendLogGetHonorTime
PUBLIC	?SendFunnyCoinReqUse@CDPDatabaseClient@@QAEXKPAVCItemElem@@@Z ; CDPDatabaseClient::SendFunnyCoinReqUse
PUBLIC	?OnFunnyCoinAckUse@CDPDatabaseClient@@QAEXAAVCAr@@KK@Z ; CDPDatabaseClient::OnFunnyCoinAckUse
PUBLIC	?OnPCBangToggle@CDPDatabaseClient@@QAEXAAVCAr@@KK@Z ; CDPDatabaseClient::OnPCBangToggle
PUBLIC	?SendLogInstanceDungeon@CDPDatabaseClient@@QAEXKKKHD@Z ; CDPDatabaseClient::SendLogInstanceDungeon
PUBLIC	?OnQuizEventOpen@CDPDatabaseClient@@QAEXAAVCAr@@KK@Z ; CDPDatabaseClient::OnQuizEventOpen
PUBLIC	?OnQuizList@CDPDatabaseClient@@QAEXAAVCAr@@KK@Z	; CDPDatabaseClient::OnQuizList
PUBLIC	?OnQuizEventNotice@CDPDatabaseClient@@QAEXAAVCAr@@KK@Z ; CDPDatabaseClient::OnQuizEventNotice
PUBLIC	?OnQuizEventChanged@CDPDatabaseClient@@QAEXAAVCAr@@KK@Z ; CDPDatabaseClient::OnQuizEventChanged
PUBLIC	?SendQuizEventOpen@CDPDatabaseClient@@QAEXH@Z	; CDPDatabaseClient::SendQuizEventOpen
PUBLIC	?SendQuizEventState@CDPDatabaseClient@@QAEXHHHH@Z ; CDPDatabaseClient::SendQuizEventState
PUBLIC	?SendQuizEventEntrance@CDPDatabaseClient@@QAEXKH@Z ; CDPDatabaseClient::SendQuizEventEntrance
PUBLIC	?SendQuizEventSelect@CDPDatabaseClient@@QAEXKHHHH@Z ; CDPDatabaseClient::SendQuizEventSelect
PUBLIC	?SendPostPrizeItem@CDPDatabaseClient@@QAEXKKH@Z	; CDPDatabaseClient::SendPostPrizeItem
PUBLIC	?SendErrorLogToDB@CDPDatabaseClient@@QAEXPAVCUser@@DPBD@Z ; CDPDatabaseClient::SendErrorLogToDB
PUBLIC	?OnLoadGuildHouse@CDPDatabaseClient@@QAEXAAVCAr@@KK@Z ; CDPDatabaseClient::OnLoadGuildHouse
PUBLIC	?OnBuyGuildHouse@CDPDatabaseClient@@QAEXAAVCAr@@KK@Z ; CDPDatabaseClient::OnBuyGuildHouse
PUBLIC	?OnRemoveGuildHouse@CDPDatabaseClient@@QAEXAAVCAr@@KK@Z ; CDPDatabaseClient::OnRemoveGuildHouse
PUBLIC	?OnGuildHousePacket@CDPDatabaseClient@@QAEXAAVCAr@@KK@Z ; CDPDatabaseClient::OnGuildHousePacket
PUBLIC	?SendLogGuildFurniture@CDPDatabaseClient@@QAEXKAAUGuildHouse_Furniture_Info@CGuildHouseBase@@D@Z ; CDPDatabaseClient::SendLogGuildFurniture
PUBLIC	?OnAllCampus@CDPDatabaseClient@@AAEXAAVCAr@@KK@Z ; CDPDatabaseClient::OnAllCampus
PUBLIC	?OnAddCampusMember@CDPDatabaseClient@@AAEXAAVCAr@@KK@Z ; CDPDatabaseClient::OnAddCampusMember
PUBLIC	?OnRemoveCampusMember@CDPDatabaseClient@@AAEXAAVCAr@@KK@Z ; CDPDatabaseClient::OnRemoveCampusMember
PUBLIC	?OnUpdateCampusPoint@CDPDatabaseClient@@AAEXAAVCAr@@KK@Z ; CDPDatabaseClient::OnUpdateCampusPoint
PUBLIC	?SendAddCampusMember@CDPDatabaseClient@@QAEXKHKH@Z ; CDPDatabaseClient::SendAddCampusMember
PUBLIC	?SendRemoveCampusMember@CDPDatabaseClient@@QAEXKK@Z ; CDPDatabaseClient::SendRemoveCampusMember
PUBLIC	?SendUpdateCampusPoint@CDPDatabaseClient@@QAEXKHHD@Z ; CDPDatabaseClient::SendUpdateCampusPoint
PUBLIC	??_GCDPDatabaseClient@@UAEPAXI@Z		; CDPDatabaseClient::`scalar deleting destructor'
PUBLIC	??$?6H@CAr@@QAEAAV0@ABH@Z			; CAr::operator<<<int>
PUBLIC	??$?5H@CAr@@QAEAAV0@AAH@Z			; CAr::operator>><int>
PUBLIC	??$?6I@CAr@@QAEAAV0@ABI@Z			; CAr::operator<<<unsigned int>
PUBLIC	?Serialize@HOUSINGINFO@@QAEXAAVCAr@@@Z		; HOUSINGINFO::Serialize
PUBLIC	??$?6J@CAr@@QAEAAV0@ABJ@Z			; CAr::operator<<<long>
PUBLIC	??$?6UD3DXVECTOR3@@@CAr@@QAEAAV0@ABUD3DXVECTOR3@@@Z ; CAr::operator<<<D3DXVECTOR3>
PUBLIC	??$?6M@CAr@@QAEAAV0@ABM@Z			; CAr::operator<<<float>
PUBLIC	??$?5J@CAr@@QAEAAV0@AAJ@Z			; CAr::operator>><long>
PUBLIC	??$?5UD3DXVECTOR3@@@CAr@@QAEAAV0@AAUD3DXVECTOR3@@@Z ; CAr::operator>><D3DXVECTOR3>
PUBLIC	??$?5M@CAr@@QAEAAV0@AAM@Z			; CAr::operator>><float>
PUBLIC	??1_QUIZLIST@CQuiz@@QAE@XZ			; CQuiz::_QUIZLIST::~_QUIZLIST
PUBLIC	??$insert@$0A@$0A@@?$_Tree@V?$_Tmap_traits@KP8CDPDatabaseClient@@AEXAAVCAr@@KK@ZU?$less@K@std@@V?$allocator@U?$pair@$$CBKP8CDPDatabaseClient@@AEXAAVCAr@@KK@Z@std@@@4@$0A@@std@@@std@@QAE?AU?$pair@V?$_Tree_iterator@V?$_Tree_val@U?$_Tree_simple_types@U?$pair@$$CBKP8CDPDatabaseClient@@AEXAAVCAr@@KK@Z@std@@@std@@@std@@@std@@_N@1@$$QAU?$pair@$$CBKP8CDPDatabaseClient@@AEXAAVCAr@@KK@Z@1@@Z ; std::_Tree<std::_Tmap_traits<unsigned long,void (__thiscall CDPDatabaseClient::*)(CAr &,unsigned long,unsigned long),std::less<unsigned long>,std::allocator<std::pair<unsigned long const ,void (__thiscall CDPDatabaseClient::*)(CAr &,unsigned long,unsigned long)> >,0> >::insert<0,0>
PUBLIC	?_Insert_node@?$_Tree_val@U?$_Tree_simple_types@U?$pair@$$CBKV?$CStringT@DV?$StrTraitMFC@DV?$ChTraitsCRT@D@ATL@@@@@ATL@@@std@@@std@@@std@@QAEPAU?$_Tree_node@U?$pair@$$CBKV?$CStringT@DV?$StrTraitMFC@DV?$ChTraitsCRT@D@ATL@@@@@ATL@@@std@@PAX@2@U?$_Tree_id@PAU?$_Tree_node@U?$pair@$$CBKV?$CStringT@DV?$StrTraitMFC@DV?$ChTraitsCRT@D@ATL@@@@@ATL@@@std@@PAX@std@@@2@QAU32@@Z ; std::_Tree_val<std::_Tree_simple_types<std::pair<unsigned long const ,ATL::CStringT<char,StrTraitMFC<char,ATL::ChTraitsCRT<char> > > > > >::_Insert_node
PUBLIC	??1?$pair@KV?$CStringT@DV?$StrTraitMFC@DV?$ChTraitsCRT@D@ATL@@@@@ATL@@@std@@QAE@XZ ; std::pair<unsigned long,ATL::CStringT<char,StrTraitMFC<char,ATL::ChTraitsCRT<char> > > >::~pair<unsigned long,ATL::CStringT<char,StrTraitMFC<char,ATL::ChTraitsCRT<char> > > >
PUBLIC	??$?6E@CAr@@QAEAAV0@ABE@Z			; CAr::operator<<<unsigned char>
PUBLIC	??$?6_J@CAr@@QAEAAV0@AB_J@Z			; CAr::operator<<<__int64>
PUBLIC	??$?5UtagPLAY_ACCOUNT@@@CAr@@QAEAAV0@AAUtagPLAY_ACCOUNT@@@Z ; CAr::operator>><tagPLAY_ACCOUNT>
PUBLIC	??$?5F@CAr@@QAEAAV0@AAF@Z			; CAr::operator>><short>
PUBLIC	??$?5_J@CAr@@QAEAAV0@AA_J@Z			; CAr::operator>><__int64>
PUBLIC	??$?6D@CAr@@QAEAAV0@ABD@Z			; CAr::operator<<<char>
PUBLIC	??$?5E@CAr@@QAEAAV0@AAE@Z			; CAr::operator>><unsigned char>
PUBLIC	??E?$_Tree_iterator@V?$_Tree_val@U?$_Tree_simple_types@U?$pair@$$CBKPAVCGuildMember@@@std@@@std@@@std@@@std@@QAEAAV01@XZ ; std::_Tree_iterator<std::_Tree_val<std::_Tree_simple_types<std::pair<unsigned long const ,CGuildMember *> > > >::operator++
PUBLIC	??$?5I@CAr@@QAEAAV0@AAI@Z			; CAr::operator>><unsigned int>
PUBLIC	??$_Find_lower_bound@K@?$_Tree@V?$_Tmap_traits@KP8CDPDatabaseClient@@AEXAAVCAr@@KK@ZU?$less@K@std@@V?$allocator@U?$pair@$$CBKP8CDPDatabaseClient@@AEXAAVCAr@@KK@Z@std@@@4@$0A@@std@@@std@@IBE?AU?$_Tree_find_result@PAU?$_Tree_node@U?$pair@$$CBKP8CDPDatabaseClient@@AEXAAVCAr@@KK@Z@std@@PAX@std@@@1@ABK@Z ; std::_Tree<std::_Tmap_traits<unsigned long,void (__thiscall CDPDatabaseClient::*)(CAr &,unsigned long,unsigned long),std::less<unsigned long>,std::allocator<std::pair<unsigned long const ,void (__thiscall CDPDatabaseClient::*)(CAr &,unsigned long,unsigned long)> >,0> >::_Find_lower_bound<unsigned long>
PUBLIC	??1?$_Alloc_construct_ptr@V?$allocator@U?$_Tree_node@U?$pair@$$CBKP8CDPDatabaseClient@@AEXAAVCAr@@KK@Z@std@@PAX@std@@@std@@@std@@QAE@XZ ; std::_Alloc_construct_ptr<std::allocator<std::_Tree_node<std::pair<unsigned long const ,void (__thiscall CDPDatabaseClient::*)(CAr &,unsigned long,unsigned long)>,void *> > >::~_Alloc_construct_ptr<std::allocator<std::_Tree_node<std::pair<unsigned long const ,void (__thiscall CDPDatabaseClient::*)(CAr &,unsigned long,unsigned long)>,void *> > >
PUBLIC	??$_Copy_memmove_n@PAKPAK@std@@YAPAKPAKI0@Z	; std::_Copy_memmove_n<unsigned long *,unsigned long *>
PUBLIC	??$_Find_lower_bound@K@?$_Tree@V?$_Tmap_traits@KV?$CStringT@DV?$StrTraitMFC@DV?$ChTraitsCRT@D@ATL@@@@@ATL@@U?$less@K@std@@V?$allocator@U?$pair@$$CBKV?$CStringT@DV?$StrTraitMFC@DV?$ChTraitsCRT@D@ATL@@@@@ATL@@@std@@@4@$0A@@std@@@std@@IBE?AU?$_Tree_find_result@PAU?$_Tree_node@U?$pair@$$CBKV?$CStringT@DV?$StrTraitMFC@DV?$ChTraitsCRT@D@ATL@@@@@ATL@@@std@@PAX@std@@@1@ABK@Z ; std::_Tree<std::_Tmap_traits<unsigned long,ATL::CStringT<char,StrTraitMFC<char,ATL::ChTraitsCRT<char> > >,std::less<unsigned long>,std::allocator<std::pair<unsigned long const ,ATL::CStringT<char,StrTraitMFC<char,ATL::ChTraitsCRT<char> > > > >,0> >::_Find_lower_bound<unsigned long>
PUBLIC	??$_Erase_tree@V?$allocator@U?$_Tree_node@U?$pair@$$CBKV?$CStringT@DV?$StrTraitMFC@DV?$ChTraitsCRT@D@ATL@@@@@ATL@@@std@@PAX@std@@@std@@@?$_Tree_val@U?$_Tree_simple_types@U?$pair@$$CBKV?$CStringT@DV?$StrTraitMFC@DV?$ChTraitsCRT@D@ATL@@@@@ATL@@@std@@@std@@@std@@QAEXAAV?$allocator@U?$_Tree_node@U?$pair@$$CBKV?$CStringT@DV?$StrTraitMFC@DV?$ChTraitsCRT@D@ATL@@@@@ATL@@@std@@PAX@std@@@1@PAU?$_Tree_node@U?$pair@$$CBKV?$CStringT@DV?$StrTraitMFC@DV?$ChTraitsCRT@D@ATL@@@@@ATL@@@std@@PAX@1@@Z ; std::_Tree_val<std::_Tree_simple_types<std::pair<unsigned long const ,ATL::CStringT<char,StrTraitMFC<char,ATL::ChTraitsCRT<char> > > > > >::_Erase_tree<std::allocator<std::_Tree_node<std::pair<unsigned long const ,ATL::CStringT<char,StrTraitMFC<char,ATL::ChTraitsCRT<char> > > >,void *> > >
PUBLIC	??$_Erase_tree@V?$allocator@U?$_Tree_node@U?$pair@$$CBKP8CDPDatabaseClient@@AEXAAVCAr@@KK@Z@std@@PAX@std@@@std@@@?$_Tree_val@U?$_Tree_simple_types@U?$pair@$$CBKP8CDPDatabaseClient@@AEXAAVCAr@@KK@Z@std@@@std@@@std@@QAEXAAV?$allocator@U?$_Tree_node@U?$pair@$$CBKP8CDPDatabaseClient@@AEXAAVCAr@@KK@Z@std@@PAX@std@@@1@PAU?$_Tree_node@U?$pair@$$CBKP8CDPDatabaseClient@@AEXAAVCAr@@KK@Z@std@@PAX@1@@Z ; std::_Tree_val<std::_Tree_simple_types<std::pair<unsigned long const ,void (__thiscall CDPDatabaseClient::*)(CAr &,unsigned long,unsigned long)> > >::_Erase_tree<std::allocator<std::_Tree_node<std::pair<unsigned long const ,void (__thiscall CDPDatabaseClient::*)(CAr &,unsigned long,unsigned long)>,void *> > >
PUBLIC	??$_Emplace_reallocate@ABU__SECRETROOM_TENDER@@@?$vector@U__SECRETROOM_TENDER@@V?$allocator@U__SECRETROOM_TENDER@@@std@@@std@@AAEPAU__SECRETROOM_TENDER@@QAU2@ABU2@@Z ; std::vector<__SECRETROOM_TENDER,std::allocator<__SECRETROOM_TENDER> >::_Emplace_reallocate<__SECRETROOM_TENDER const &>
PUBLIC	??$_Copy_memmove@PAU__GCRESULTVALUEPLAYER@CGuildCombat@@PAU12@@std@@YAPAU__GCRESULTVALUEPLAYER@CGuildCombat@@PAU12@00@Z ; std::_Copy_memmove<CGuildCombat::__GCRESULTVALUEPLAYER *,CGuildCombat::__GCRESULTVALUEPLAYER *>
PUBLIC	??$_Emplace_reallocate@ABU__GCRESULTVALUEPLAYER@CGuildCombat@@@?$vector@U__GCRESULTVALUEPLAYER@CGuildCombat@@V?$allocator@U__GCRESULTVALUEPLAYER@CGuildCombat@@@std@@@std@@AAEPAU__GCRESULTVALUEPLAYER@CGuildCombat@@QAU23@ABU23@@Z ; std::vector<CGuildCombat::__GCRESULTVALUEPLAYER,std::allocator<CGuildCombat::__GCRESULTVALUEPLAYER> >::_Emplace_reallocate<CGuildCombat::__GCRESULTVALUEPLAYER const &>
PUBLIC	??$_Copy_memmove@PAU__GCRESULTVALUEGUILD@CGuildCombat@@PAU12@@std@@YAPAU__GCRESULTVALUEGUILD@CGuildCombat@@PAU12@00@Z ; std::_Copy_memmove<CGuildCombat::__GCRESULTVALUEGUILD *,CGuildCombat::__GCRESULTVALUEGUILD *>
PUBLIC	??$_Emplace_reallocate@ABU__GCRESULTVALUEGUILD@CGuildCombat@@@?$vector@U__GCRESULTVALUEGUILD@CGuildCombat@@V?$allocator@U__GCRESULTVALUEGUILD@CGuildCombat@@@std@@@std@@AAEPAU__GCRESULTVALUEGUILD@CGuildCombat@@QAU23@ABU23@@Z ; std::vector<CGuildCombat::__GCRESULTVALUEGUILD,std::allocator<CGuildCombat::__GCRESULTVALUEGUILD> >::_Emplace_reallocate<CGuildCombat::__GCRESULTVALUEGUILD const &>
PUBLIC	??$_Emplace_reallocate@ABU__GCPLAYERPOINT@CGuildCombat@@@?$vector@U__GCPLAYERPOINT@CGuildCombat@@V?$allocator@U__GCPLAYERPOINT@CGuildCombat@@@std@@@std@@AAEPAU__GCPLAYERPOINT@CGuildCombat@@QAU23@ABU23@@Z ; std::vector<CGuildCombat::__GCPLAYERPOINT,std::allocator<CGuildCombat::__GCPLAYERPOINT> >::_Emplace_reallocate<CGuildCombat::__GCPLAYERPOINT const &>
PUBLIC	??$_Emplace_reallocate@ABU__GC1TO1TENDER@CGuildCombat1to1Mng@@@?$vector@U__GC1TO1TENDER@CGuildCombat1to1Mng@@V?$allocator@U__GC1TO1TENDER@CGuildCombat1to1Mng@@@std@@@std@@AAEPAU__GC1TO1TENDER@CGuildCombat1to1Mng@@QAU23@ABU23@@Z ; std::vector<CGuildCombat1to1Mng::__GC1TO1TENDER,std::allocator<CGuildCombat1to1Mng::__GC1TO1TENDER> >::_Emplace_reallocate<CGuildCombat1to1Mng::__GC1TO1TENDER const &>
PUBLIC	??$_Emplace_reallocate@ABK@?$vector@KV?$allocator@K@std@@@std@@AAEPAKQAKABK@Z ; std::vector<unsigned long,std::allocator<unsigned long> >::_Emplace_reallocate<unsigned long const &>
PUBLIC	??1?$_Alloc_construct_ptr@V?$allocator@U?$_Tree_node@U?$pair@$$CBKV?$CStringT@DV?$StrTraitMFC@DV?$ChTraitsCRT@D@ATL@@@@@ATL@@@std@@PAX@std@@@std@@@std@@QAE@XZ ; std::_Alloc_construct_ptr<std::allocator<std::_Tree_node<std::pair<unsigned long const ,ATL::CStringT<char,StrTraitMFC<char,ATL::ChTraitsCRT<char> > > >,void *> > >::~_Alloc_construct_ptr<std::allocator<std::_Tree_node<std::pair<unsigned long const ,ATL::CStringT<char,StrTraitMFC<char,ATL::ChTraitsCRT<char> > > >,void *> > >
PUBLIC	??1?$_Tree_temp_node_alloc@V?$allocator@U?$_Tree_node@U?$pair@$$CBKV?$CStringT@DV?$StrTraitMFC@DV?$ChTraitsCRT@D@ATL@@@@@ATL@@@std@@PAX@std@@@std@@@std@@QAE@XZ ; std::_Tree_temp_node_alloc<std::allocator<std::_Tree_node<std::pair<unsigned long const ,ATL::CStringT<char,StrTraitMFC<char,ATL::ChTraitsCRT<char> > > >,void *> > >::~_Tree_temp_node_alloc<std::allocator<std::_Tree_node<std::pair<unsigned long const ,ATL::CStringT<char,StrTraitMFC<char,ATL::ChTraitsCRT<char> > > >,void *> > >
PUBLIC	??$_Copy_memmove_tail@PAK@std@@YAPAKQBDQAKII@Z	; std::_Copy_memmove_tail<unsigned long *>
PUBLIC	??$construct@U__SECRETROOM_TENDER@@ABU1@@?$_Default_allocator_traits@V?$allocator@U__SECRETROOM_TENDER@@@std@@@std@@SAXAAV?$allocator@U__SECRETROOM_TENDER@@@1@QAU__SECRETROOM_TENDER@@ABU3@@Z ; std::_Default_allocator_traits<std::allocator<__SECRETROOM_TENDER> >::construct<__SECRETROOM_TENDER,__SECRETROOM_TENDER const &>
PUBLIC	??1_Reallocation_guard@?$vector@U__SECRETROOM_TENDER@@V?$allocator@U__SECRETROOM_TENDER@@@std@@@std@@QAE@XZ ; std::vector<__SECRETROOM_TENDER,std::allocator<__SECRETROOM_TENDER> >::_Reallocation_guard::~_Reallocation_guard
PUBLIC	??$_Uninitialized_move@PAU__SECRETROOM_TENDER@@V?$allocator@U__SECRETROOM_TENDER@@@std@@@std@@YAPAU__SECRETROOM_TENDER@@QAU1@0PAU1@AAV?$allocator@U__SECRETROOM_TENDER@@@0@@Z ; std::_Uninitialized_move<__SECRETROOM_TENDER *,std::allocator<__SECRETROOM_TENDER> >
PUBLIC	??$_Copy_memmove_tail@PAU__GCRESULTVALUEPLAYER@CGuildCombat@@@std@@YAPAU__GCRESULTVALUEPLAYER@CGuildCombat@@QBDQAU12@II@Z ; std::_Copy_memmove_tail<CGuildCombat::__GCRESULTVALUEPLAYER *>
PUBLIC	??$_Copy_memmove_tail@PAU__GCRESULTVALUEGUILD@CGuildCombat@@@std@@YAPAU__GCRESULTVALUEGUILD@CGuildCombat@@QBDQAU12@II@Z ; std::_Copy_memmove_tail<CGuildCombat::__GCRESULTVALUEGUILD *>
PUBLIC	??1_Reallocation_guard@?$vector@U__GC1TO1TENDER@CGuildCombat1to1Mng@@V?$allocator@U__GC1TO1TENDER@CGuildCombat1to1Mng@@@std@@@std@@QAE@XZ ; std::vector<CGuildCombat1to1Mng::__GC1TO1TENDER,std::allocator<CGuildCombat1to1Mng::__GC1TO1TENDER> >::_Reallocation_guard::~_Reallocation_guard
PUBLIC	??$_Uninitialized_move@PAU__GC1TO1TENDER@CGuildCombat1to1Mng@@V?$allocator@U__GC1TO1TENDER@CGuildCombat1to1Mng@@@std@@@std@@YAPAU__GC1TO1TENDER@CGuildCombat1to1Mng@@QAU12@0PAU12@AAV?$allocator@U__GC1TO1TENDER@CGuildCombat1to1Mng@@@0@@Z ; std::_Uninitialized_move<CGuildCombat1to1Mng::__GC1TO1TENDER *,std::allocator<CGuildCombat1to1Mng::__GC1TO1TENDER> >
PUBLIC	??$_Copy_memmove@PAU__GCPLAYERPOINT@CGuildCombat@@PAU12@@std@@YAPAU__GCPLAYERPOINT@CGuildCombat@@PAU12@00@Z ; std::_Copy_memmove<CGuildCombat::__GCPLAYERPOINT *,CGuildCombat::__GCPLAYERPOINT *>
PUBLIC	??$_Copy_memmove@PAKPAK@std@@YAPAKPAK00@Z	; std::_Copy_memmove<unsigned long *,unsigned long *>
PUBLIC	??$_Copy_memmove_tail@PAU__GCPLAYERPOINT@CGuildCombat@@@std@@YAPAU__GCPLAYERPOINT@CGuildCombat@@QBDQAU12@II@Z ; std::_Copy_memmove_tail<CGuildCombat::__GCPLAYERPOINT *>
PUBLIC	??$_Copy_memmove@PAU__SECRETROOM_MONSTER@@PAU1@@std@@YAPAU__SECRETROOM_MONSTER@@PAU1@00@Z ; std::_Copy_memmove<__SECRETROOM_MONSTER *,__SECRETROOM_MONSTER *>
PUBLIC	??$_Copy_memmove_tail@PAU__SECRETROOM_MONSTER@@@std@@YAPAU__SECRETROOM_MONSTER@@QBDQAU1@II@Z ; std::_Copy_memmove_tail<__SECRETROOM_MONSTER *>
PUBLIC	?_OptionsStorage@?1??__local_stdio_printf_options@@9@4_KA ; `__local_stdio_printf_options'::`2'::_OptionsStorage
PUBLIC	??_C@_02DPKJAMEF@?$CFd@				; `string'
PUBLIC	??_C@_00CNPNBAHC@@				; `string'
PUBLIC	??_7exception@std@@6B@				; std::exception::`vftable'
PUBLIC	??_C@_0BC@EOODALEL@Unknown?5exception@		; `string'
PUBLIC	??_7bad_alloc@std@@6B@				; std::bad_alloc::`vftable'
PUBLIC	??_7bad_array_new_length@std@@6B@		; std::bad_array_new_length::`vftable'
PUBLIC	??_C@_0BF@KINCDENJ@bad?5array?5new?5length@	; `string'
PUBLIC	??_R0?AVexception@std@@@8			; std::exception `RTTI Type Descriptor'
PUBLIC	__CT??_R0?AVexception@std@@@8??0exception@std@@QAE@ABV01@@Z12
PUBLIC	__TI3?AVbad_array_new_length@std@@
PUBLIC	__CTA3?AVbad_array_new_length@std@@
PUBLIC	??_R0?AVbad_array_new_length@std@@@8		; std::bad_array_new_length `RTTI Type Descriptor'
PUBLIC	__CT??_R0?AVbad_array_new_length@std@@@8??0bad_array_new_length@std@@QAE@ABV01@@Z12
PUBLIC	??_R0?AVbad_alloc@std@@@8			; std::bad_alloc `RTTI Type Descriptor'
PUBLIC	__CT??_R0?AVbad_alloc@std@@@8??0bad_alloc@std@@QAE@ABV01@@Z12
PUBLIC	??_C@_0BA@JFNIOLAK@string?5too?5long@		; `string'
PUBLIC	??_C@_0BB@GCADKGJO@map?1set?5too?5long@		; `string'
PUBLIC	??_C@_0BM@HMFGHCP@?$CFs?5min?3?$CFd?0?5max?3?$CFd?0?5index?3?$CFd@ ; `string'
PUBLIC	??_C@_0BI@BEIFNGEL@GetItemProp?5range_error@	; `string'
PUBLIC	??_C@_0BJ@GKPOBPPI@GetMoverProp?5range_error@	; `string'
PUBLIC	??_C@_0BE@OHDBLHOM@GetText?5range_error@	; `string'
PUBLIC	??_C@_05KKCIMGE@error@				; `string'
PUBLIC	??_C@_0BA@FOIKENOD@vector?5too?5long@		; `string'
PUBLIC	??_R4exception@std@@6B@				; std::exception::`RTTI Complete Object Locator'
PUBLIC	??_R3exception@std@@8				; std::exception::`RTTI Class Hierarchy Descriptor'
PUBLIC	??_R2exception@std@@8				; std::exception::`RTTI Base Class Array'
PUBLIC	??_R1A@?0A@EA@exception@std@@8			; std::exception::`RTTI Base Class Descriptor at (0,-1,0,64)'
PUBLIC	??_R4bad_array_new_length@std@@6B@		; std::bad_array_new_length::`RTTI Complete Object Locator'
PUBLIC	??_R3bad_array_new_length@std@@8		; std::bad_array_new_length::`RTTI Class Hierarchy Descriptor'
PUBLIC	??_R2bad_array_new_length@std@@8		; std::bad_array_new_length::`RTTI Base Class Array'
PUBLIC	??_R1A@?0A@EA@bad_array_new_length@std@@8	; std::bad_array_new_length::`RTTI Base Class Descriptor at (0,-1,0,64)'
PUBLIC	??_R1A@?0A@EA@bad_alloc@std@@8			; std::bad_alloc::`RTTI Base Class Descriptor at (0,-1,0,64)'
PUBLIC	??_R3bad_alloc@std@@8				; std::bad_alloc::`RTTI Class Hierarchy Descriptor'
PUBLIC	??_R2bad_alloc@std@@8				; std::bad_alloc::`RTTI Base Class Array'
PUBLIC	??_R4bad_alloc@std@@6B@				; std::bad_alloc::`RTTI Complete Object Locator'
PUBLIC	??_7CDPDatabaseClient@@6B@			; CDPDatabaseClient::`vftable'
PUBLIC	??_C@_02PCIJFNDE@?$AN?6@			; `string'
PUBLIC	??_C@_01DNKMNLPK@?$HM@				; `string'
PUBLIC	?g_dpDBClient@@3VCDPDatabaseClient@@A		; g_dpDBClient
PUBLIC	??_C@_0CO@DPLNBDB@CDPDatabaseClient?3?3UserMessageH@ ; `string'
PUBLIC	??_C@_0BJ@BNGKCMIB@Handler?5not?5found?$CI?$CF08x?$CJ?6@ ; `string'
PUBLIC	??_C@_02DKCKIIND@?$CFs@				; `string'
PUBLIC	??_C@_0CJ@JHEEDKCJ@WORLDSERVER?4EXE?7?1?1?5PACKETTYPE_J@ ; `string'
PUBLIC	??_C@_0BO@CIOCDNJI@OnJoin?$CI?$CJ?3?5Different?5dwAuthKey@ ; `string'
PUBLIC	??_C@_0BK@KIIGOLIN@MAX_GENERAL_LEVEL?1?1?$CFs?1?1?$CFd@ ; `string'
PUBLIC	??_C@_0CA@PHCNGMCC@OnJoin?$CI?$CJ?3?5an?5ocular?5spectrum?5?$CFd@ ; `string'
PUBLIC	??_C@_0CK@HBKBIECN@Abnormal?5User?$CB?$CB?5?9?5?$CFs?$CI?$CF07d?$CJ?0?5m_d@ ; `string'
PUBLIC	??_C@_0BB@MNPGDBAO@OnJoin?$CI?$CJ?3?5?$CFs?0?5?$CFd@ ; `string'
PUBLIC	??_C@_01LAKCGALK@9@				; `string'
PUBLIC	??_C@_0P@OLMEMBDP@GUILDCOMBAT_VG@		; `string'
PUBLIC	??_C@_0P@OOEHEFKJ@GUILDCOMBAT_VP@		; `string'
PUBLIC	??_C@_0BF@DLAMMPIE@TRANS?5?3?5is?5not?5alive@	; `string'
PUBLIC	??_C@_0CP@HEOFHLGO@GetMailBox?5?9?5pMailBox?5is?5NULL?4?5@ ; `string'
PUBLIC	??_C@_0EF@DEAGPNNP@CDPDatabaseClient?3?3OnMailBoxReq@ ; `string'
PUBLIC	??_C@_0DI@NOHDLBNF@CDPDatabaseClient?3?3OnMailBoxReq@ ; `string'
PUBLIC	??_C@_0EI@ENILCGKP@CDPDatabaseClient?3?3OnMailBoxReq@ ; `string'
PUBLIC	??_C@_0CB@DAKFPBOL@OnPostMail?5?9?5pMail?9?$DOm_nMail?5?3?5?$CF@ ; `string'
PUBLIC	??_C@_0DO@HELLNEJP@OnPostMail?5?9?5Send?5Mail?5Failed?4?5@ ; `string'
PUBLIC	??_C@_0CA@FBLOGMPF@dwFlag?$DN0x?$CF08x?0?5nId?$DN?$CFd?0?5nFlag?$DN?$CFd@ ; `string'
PUBLIC	??_C@_0BL@PDIIILDP@OnEventFlag?3?5dwFlag?$DN0x?$CF08x@ ; `string'
PUBLIC	??_C@_0BO@LOACNOMP@OnEventFlag?3?5nId?$DN?$CFd?0?5nFlag?$DN?$CFd@ ; `string'
PUBLIC	??_C@_0N@OKCHACPC@event?3?5?$CFd?3?51@		; `string'
PUBLIC	??_C@_0P@EBNAFPGK@OnEvent?3?5?$CFd?3?50@	; `string'
PUBLIC	??_C@_0BJ@BAHEIOPC@Event?4lua?5?$MA?g?$LN?G?G?$OA?5?$LP?O?$LH?a?$CB?$CB?$CB@ ; `string'
PUBLIC	??_C@_01HIHLOKLC@1@				; `string'
PUBLIC	??_C@_0BJ@IOOPDFAM@CDPDatabaseClient?4OnLord@	; `string'
PUBLIC	??_C@_0CB@PPKFCCHM@CDPDatabaseClient?4OnLEventCreat@ ; `string'
PUBLIC	??_C@_0CF@CPJIDAIL@CDPDatabaseClient?4OnLEventIniti@ ; `string'
PUBLIC	??_C@_0CB@NFKBDGA@CDPDatabaseClient?4OnLordSkillUs@ ; `string'
PUBLIC	??_C@_0CC@MNPPGLNO@CDPDatabaseClient?4OnLordSkillTi@ ; `string'
PUBLIC	??_C@_0BP@LOJCDMBK@CDPDatabaseClient?4OnLEventTick@ ; `string'
PUBLIC	??_C@_0CK@GNPBFGHG@CDPDatabaseClient?3?3OnHousingLoa@ ; `string'
PUBLIC	??_C@_0EI@BOPNMDOF@CDPDatabaseClient?3?3OnHousingDBF@ ; `string'
PUBLIC	??_C@_0DO@EBLACFLM@CDPDatabaseClient?3?3OnHousingDBF@ ; `string'
PUBLIC	??_C@_0BN@DFBGMJLJ@QuizEvent?4lua?5?$MA?g?$LN?G?G?$OA?5?$LP?O?$LH?a?$CB?$CB?$CB@ ; `string'
PUBLIC	??_R4CDPDatabaseClient@@6B@			; CDPDatabaseClient::`RTTI Complete Object Locator'
PUBLIC	??_R0?AVCDPDatabaseClient@@@8			; CDPDatabaseClient `RTTI Type Descriptor'
PUBLIC	??_R3CDPDatabaseClient@@8			; CDPDatabaseClient::`RTTI Class Hierarchy Descriptor'
PUBLIC	??_R2CDPDatabaseClient@@8			; CDPDatabaseClient::`RTTI Base Class Array'
PUBLIC	??_R1A@?0A@EA@CDPDatabaseClient@@8		; CDPDatabaseClient::`RTTI Base Class Descriptor at (0,-1,0,64)'
PUBLIC	??_R1A@?0A@EA@CDPMng@@8				; CDPMng::`RTTI Base Class Descriptor at (0,-1,0,64)'
PUBLIC	??_R0?AVCDPMng@@@8				; CDPMng `RTTI Type Descriptor'
PUBLIC	??_R3CDPMng@@8					; CDPMng::`RTTI Class Hierarchy Descriptor'
PUBLIC	??_R2CDPMng@@8					; CDPMng::`RTTI Base Class Array'
PUBLIC	__real@3f800000
PUBLIC	__real@42c80000
PUBLIC	__xmm@41f00000000000000000000000000000
EXTRN	??2@YAPAXI@Z:PROC				; operator new
EXTRN	??3@YAXPAXI@Z:PROC				; operator delete
EXTRN	_atexit:PROC
EXTRN	__Init_thread_header:PROC
EXTRN	__Init_thread_abort:PROC
EXTRN	__Init_thread_footer:PROC
EXTRN	__invalid_parameter_noinfo:PROC
EXTRN	__invoke_watson:PROC
EXTRN	__errno:PROC
EXTRN	_strncpy:PROC
EXTRN	__imp__OutputDebugStringA@4:PROC
EXTRN	__imp__ExitProcess@4:PROC
EXTRN	__imp__GetTickCount@0:PROC
EXTRN	__imp__LoadResource@8:PROC
EXTRN	__imp__LockResource@4:PROC
EXTRN	__imp__SizeofResource@8:PROC
EXTRN	__imp__FindResourceW@12:PROC
EXTRN	__imp__WideCharToMultiByte@32:PROC
EXTRN	__mbsstr:PROC
EXTRN	___stdio_common_vsprintf:PROC
EXTRN	___stdio_common_vsprintf_s:PROC
EXTRN	_atoi:PROC
EXTRN	__mktime64:PROC
EXTRN	?AfxThrowMemoryException@@YGXXZ:PROC		; AfxThrowMemoryException
EXTRN	?AfxThrowInvalidArgException@@YGXXZ:PROC	; AfxThrowInvalidArgException
EXTRN	?AfxThrowOleException@@YGXJ@Z:PROC		; AfxThrowOleException
EXTRN	?AfxFindStringResourceHandle@@YGPAUHINSTANCE__@@I@Z:PROC ; AfxFindStringResourceHandle
EXTRN	?AfxGetStringManager@@YGPAUIAtlStringMgr@ATL@@XZ:PROC ; AfxGetStringManager
EXTRN	__isnan:PROC
EXTRN	___std_exception_copy:PROC
EXTRN	___std_exception_destroy:PROC
EXTRN	??_Eexception@std@@UAEPAXI@Z:PROC		; std::exception::`vector deleting destructor'
EXTRN	??_Ebad_alloc@std@@UAEPAXI@Z:PROC		; std::bad_alloc::`vector deleting destructor'
EXTRN	??_Ebad_array_new_length@std@@UAEPAXI@Z:PROC	; std::bad_array_new_length::`vector deleting destructor'
EXTRN	?_Xlength_error@std@@YAXPBD@Z:PROC		; std::_Xlength_error
EXTRN	__imp__timeGetTime@0:PROC
EXTRN	?WriteLog@@YAXPBDZZ:PROC			; WriteLog
EXTRN	?WriteError@@YAXPBDZZ:PROC			; WriteError
EXTRN	?Error@@YAPBDPBDZZ:PROC				; Error
EXTRN	?GetLanguage@@YAHXZ:PROC			; GetLanguage
EXTRN	?SetPos@CObj@@QAEXABUD3DXVECTOR3@@@Z:PROC	; CObj::SetPos
EXTRN	?SetAngle@CObj@@QAEXM@Z:PROC			; CObj::SetAngle
EXTRN	?DoApplySkill@CCtrl@@QAEHPAV1@PAUItemProp@@PAUAddSkillProp@@_NHHH@Z:PROC ; CCtrl::DoApplySkill
EXTRN	?Initialize@CEventLuaProxy@@QAEXPAVCEventLua@@@Z:PROC ; CEventLuaProxy::Initialize
EXTRN	?LoadScript@CEventLua@@QAEXXZ:PROC		; CEventLua::LoadScript
EXTRN	?SetState@CEventLua@@QAEXEH@Z:PROC		; CEventLua::SetState
EXTRN	?AddMonsterProp@CProject@@QAEXU_MONSTER_PROP@@@Z:PROC ; CProject::AddMonsterProp
EXTRN	?RemoveMonsterProp@CProject@@QAEXPAD@Z:PROC	; CProject::RemoveMonsterProp
EXTRN	?Serialize@CPet@@QAEXAAVCAr@@@Z:PROC		; CPet::Serialize
EXTRN	?GetPiercingSize@CPiercing@@QAEHXZ:PROC		; CPiercing::GetPiercingSize
EXTRN	?GetPiercingItem@CPiercing@@QAEKH@Z:PROC	; CPiercing::GetPiercingItem
EXTRN	?GetUltimatePiercingSize@CPiercing@@QAEHXZ:PROC	; CPiercing::GetUltimatePiercingSize
EXTRN	?GetUltimatePiercingItem@CPiercing@@QAEKH@Z:PROC ; CPiercing::GetUltimatePiercingItem
EXTRN	??0CItemElem@@QAE@XZ:PROC			; CItemElem::CItemElem
EXTRN	??1CItemElem@@UAE@XZ:PROC			; CItemElem::~CItemElem
EXTRN	?Empty@CItemElem@@UAEXXZ:PROC			; CItemElem::Empty
EXTRN	?IsUsableItem@@YAHPAVCItemBase@@@Z:PROC		; IsUsableItem
EXTRN	??0CAr@@QAE@PAXI@Z:PROC				; CAr::CAr
EXTRN	??1CAr@@QAE@XZ:PROC				; CAr::~CAr
EXTRN	?Read@CAr@@QAEXPAXI@Z:PROC			; CAr::Read
EXTRN	?Write@CAr@@QAEXPBXI@Z:PROC			; CAr::Write
EXTRN	?CheckBuf@CAr@@QAEXI@Z:PROC			; CAr::CheckBuf
EXTRN	?WriteString@CAr@@QAEXPBD@Z:PROC		; CAr::WriteString
EXTRN	?ReadString@CAr@@QAEPADPADH@Z:PROC		; CAr::ReadString
EXTRN	?GetBuffer@CAr@@QAEPAEPAH@Z:PROC		; CAr::GetBuffer
EXTRN	?RemoveStateFlag@CAction@@QAEXK@Z:PROC		; CAction::RemoveStateFlag
EXTRN	?ClearState@CAction@@QAEXXZ:PROC		; CAction::ClearState
EXTRN	?TradeGetGold@CVTInfo@@QAEHXZ:PROC		; CVTInfo::TradeGetGold
EXTRN	?RemoveBuff@CMover@@QAEXGG@Z:PROC		; CMover::RemoveBuff
EXTRN	?RemoveIk3Buffs@CMover@@QAEXK@Z:PROC		; CMover::RemoveIk3Buffs
EXTRN	?CheckHonorStat@CMover@@QAEXXZ:PROC		; CMover::CheckHonorStat
EXTRN	?GetPet@CMover@@QAEPAVCPet@@XZ:PROC		; CMover::GetPet
EXTRN	?GetPetItem@CMover@@QAEPAVCItemElem@@XZ:PROC	; CMover::GetPetItem
EXTRN	?SetStateNotMode@CMover@@QAEXKE@Z:PROC		; CMover::SetStateNotMode
EXTRN	?RedoEquip@CMover@@QAEXHH@Z:PROC		; CMover::RedoEquip
EXTRN	?GetParam@CMover@@QAEHHH@Z:PROC			; CMover::GetParam
EXTRN	?GetAdjParam@CMover@@QAEHH@Z:PROC		; CMover::GetAdjParam
EXTRN	?GetName@CMover@@QAEPBDH@Z:PROC			; CMover::GetName
EXTRN	?GetJob@CMover@@QAEHXZ:PROC			; CMover::GetJob
EXTRN	?SetHitPoint@CMover@@QAEXH@Z:PROC		; CMover::SetHitPoint
EXTRN	?SetManaPoint@CMover@@QAEXH@Z:PROC		; CMover::SetManaPoint
EXTRN	?SetFatiguePoint@CMover@@QAEXH@Z:PROC		; CMover::SetFatiguePoint
EXTRN	?AddGold@CMover@@QAEHHH@Z:PROC			; CMover::AddGold
EXTRN	?GetHitPoint@CMover@@QAEHXZ:PROC		; CMover::GetHitPoint
EXTRN	?GetManaPoint@CMover@@QAEHXZ:PROC		; CMover::GetManaPoint
EXTRN	?GetFatiguePoint@CMover@@QAEHXZ:PROC		; CMover::GetFatiguePoint
EXTRN	?GetMaxHitPoint@CMover@@QAEHXZ:PROC		; CMover::GetMaxHitPoint
EXTRN	?SetDestParamRandomOptExtension@CMover@@QAEXPAVCItemElem@@@Z:PROC ; CMover::SetDestParamRandomOptExtension
EXTRN	?CreateItem@CMover@@QAEHPAVCItemBase@@PAEPAFE@Z:PROC ; CMover::CreateItem
EXTRN	?RemoveItem@CMover@@QAEXEF@Z:PROC		; CMover::RemoveItem
EXTRN	?Replace@CMover@@QAEHKKAAUD3DXVECTOR3@@W4REPLACE_TYPE@@H@Z:PROC ; CMover::Replace
EXTRN	??0CRespawnInfo@@QAE@XZ:PROC			; CRespawnInfo::CRespawnInfo
EXTRN	??1CRespawnInfo@@UAE@XZ:PROC			; CRespawnInfo::~CRespawnInfo
EXTRN	?Add@CLayerdRespawner@@QAEHAAVCRespawnInfo@@H@Z:PROC ; CLayerdRespawner::Add
EXTRN	?Remove@CLayerdRespawner@@QAEHHH@Z:PROC		; CLayerdRespawner::Remove
EXTRN	?GetLinkMap@CLayeredLinkMap@@QAEPAVCLinkMap@@H@Z:PROC ; CLayeredLinkMap::GetLinkMap
EXTRN	?LoadRegion@CWorld@@QAEHXZ:PROC			; CWorld::LoadRegion
EXTRN	?SetState@CFlyffEvent@@QAEHHE@Z:PROC		; CFlyffEvent::SetState
EXTRN	?GetState@CFlyffEvent@@QAEEH@Z:PROC		; CFlyffEvent::GetState
EXTRN	?SendNowState@CGuildCombat1to1Mng@@QAEXPAVCUser@@@Z:PROC ; CGuildCombat1to1Mng::SendNowState
EXTRN	?GuildCombat1to1Open@CGuildCombat1to1Mng@@QAEXH@Z:PROC ; CGuildCombat1to1Mng::GuildCombat1to1Open
EXTRN	?Send@CDPSock@@QAEHPADKK@Z:PROC			; CDPSock::Send
EXTRN	??0CDPMng@@QAE@XZ:PROC				; CDPMng::CDPMng
EXTRN	??1CDPMng@@UAE@XZ:PROC				; CDPMng::~CDPMng
EXTRN	?QueryDestroyPlayer@CDPSrvr@@QAEXKKKK@Z:PROC	; CDPSrvr::QueryDestroyPlayer
EXTRN	?OnLogItem@CDPSrvr@@QAEXAAU_LogItemInfo@@PAVCItemElem@@H@Z:PROC ; CDPSrvr::OnLogItem
EXTRN	?UpdateGuildBank@CDPSrvr@@QAEXPAVCGuild@@HEKPAVCItemElem@@KF@Z:PROC ; CDPSrvr::UpdateGuildBank
EXTRN	??6@YAAAVCAr@@AAV0@AAUCONTRIBUTION_CHANGED_INFO@@@Z:PROC ; operator<<
EXTRN	??0CGuild@@QAE@XZ:PROC				; CGuild::CGuild
EXTRN	??1CGuild@@UAE@XZ:PROC				; CGuild::~CGuild
EXTRN	?GetMember@CGuild@@QAEPAVCGuildMember@@K@Z:PROC	; CGuild::GetMember
EXTRN	?GetItem@CGuild@@QAEPAVCItemElem@@KK@Z:PROC	; CGuild::GetItem
EXTRN	?RemoveItem@CGuild@@QAEFKF@Z:PROC		; CGuild::RemoveItem
EXTRN	?GetGuild@CGuildMng@@QAEPAVCGuild@@K@Z:PROC	; CGuildMng::GetGuild
EXTRN	?GetInstance@CInstanceDungeonHelper@@SAPAV1@XZ:PROC ; CInstanceDungeonHelper::GetInstance
EXTRN	?GoOut@CInstanceDungeonHelper@@QAEXPAVCUser@@@Z:PROC ; CInstanceDungeonHelper::GoOut
EXTRN	?GetType@CInstanceDungeonHelper@@AAEHK@Z:PROC	; CInstanceDungeonHelper::GetType
EXTRN	?SendJoin@CDPCoreClient@@QAEXKPBDH@Z:PROC	; CDPCoreClient::SendJoin
EXTRN	?SendCaption@CDPCoreClient@@QAEXPBDKH@Z:PROC	; CDPCoreClient::SendCaption
EXTRN	?GuildCombatClear@CGuildCombat@@QAEXH@Z:PROC	; CGuildCombat::GuildCombatClear
EXTRN	?GuildCombatGameClear@CGuildCombat@@QAEXXZ:PROC	; CGuildCombat::GuildCombatGameClear
EXTRN	?JoinGuildCombat@CGuildCombat@@QAEXKKH@Z:PROC	; CGuildCombat::JoinGuildCombat
EXTRN	?OutGuildCombat@CGuildCombat@@QAEXK@Z:PROC	; CGuildCombat::OutGuildCombat
EXTRN	?SetNpc@CGuildCombat@@QAEXXZ:PROC		; CGuildCombat::SetNpc
EXTRN	?GetPrizePenya@CGuildCombat@@QAE_JH@Z:PROC	; CGuildCombat::GetPrizePenya
EXTRN	?IsRequestWarGuild@CGuildCombat@@QAEHKH@Z:PROC	; CGuildCombat::IsRequestWarGuild
EXTRN	?FindGuildCombatMember@CGuildCombat@@QAEPAU__GuildCombatMember@1@K@Z:PROC ; CGuildCombat::FindGuildCombatMember
EXTRN	?GetInstance@CContinent@@SAPAV1@XZ:PROC		; CContinent::GetInstance
EXTRN	?GetRevivalPos@CContinent@@QAE?AUD3DXVECTOR3@@E@Z:PROC ; CContinent::GetRevivalPos
EXTRN	?GetInstance@CSecretRoomMng@@SAPAV1@XZ:PROC	; CSecretRoomMng::GetInstance
EXTRN	?IsInTheSecretRoom@CSecretRoomMng@@QAEHPAVCMover@@@Z:PROC ; CSecretRoomMng::IsInTheSecretRoom
EXTRN	?GetAllInfo@CSecretRoomMng@@QAEXPAVCUser@@@Z:PROC ; CSecretRoomMng::GetAllInfo
EXTRN	??0GuildHouse_Furniture_Info@CGuildHouseBase@@QAE@KHUD3DXVECTOR3@@MJ@Z:PROC ; CGuildHouseBase::GuildHouse_Furniture_Info::GuildHouse_Furniture_Info
EXTRN	?Serialize@GuildHouse_Furniture_Info@CGuildHouseBase@@QAEXAAVCAr@@@Z:PROC ; CGuildHouseBase::GuildHouse_Furniture_Info::Serialize
EXTRN	?OnGuildHousePacket@CGuildHouseBase@@QAEHHAAUGuildHouse_Furniture_Info@1@H@Z:PROC ; CGuildHouseBase::OnGuildHousePacket
EXTRN	?AfterFailedGuildHousePacket@CGuildHouseBase@@QAEXHAAUGuildHouse_Furniture_Info@1@H@Z:PROC ; CGuildHouseBase::AfterFailedGuildHousePacket
EXTRN	?SendWorldToClient@CGuildHouseBase@@QAEXHAAUGuildHouse_Furniture_Info@1@H@Z:PROC ; CGuildHouseBase::SendWorldToClient
EXTRN	?GetInstance@CGuildHouseMng@@SAPAV1@XZ:PROC	; CGuildHouseMng::GetInstance
EXTRN	?GetGuildHouse@CGuildHouseMng@@QAEPAVCGuildHouseBase@@K@Z:PROC ; CGuildHouseMng::GetGuildHouse
EXTRN	?Serialize@CGuildHouseMng@@QAEXAAVCAr@@@Z:PROC	; CGuildHouseMng::Serialize
EXTRN	?IsGuildHouse@CGuildHouseMng@@QAEHK@Z:PROC	; CGuildHouseMng::IsGuildHouse
EXTRN	?IsLoginAble@CGuildHouseMng@@QAEHPAVCUser@@KH@Z:PROC ; CGuildHouseMng::IsLoginAble
EXTRN	?OnBuyGuildHouse@CGuildHouseMng@@QAEXAAVCAr@@@Z:PROC ; CGuildHouseMng::OnBuyGuildHouse
EXTRN	?OnRemoveGuildHouse@CGuildHouseMng@@QAEXAAVCAr@@@Z:PROC ; CGuildHouseMng::OnRemoveGuildHouse
EXTRN	?SetApplyDST@CGuildHouseMng@@QAEXPAVCUser@@@Z:PROC ; CGuildHouseMng::SetApplyDST
EXTRN	??_ECDPDatabaseClient@@UAEPAXI@Z:PROC		; CDPDatabaseClient::`vector deleting destructor'
EXTRN	?Serialize@CUserTaskBar@@QAEXAAVCAr@@@Z:PROC	; CUserTaskBar::Serialize
EXTRN	?FindMember@CParty@@QAEHK@Z:PROC		; CParty::FindMember
EXTRN	?GetParty@CPartyMng@@QAEPAVCParty@@K@Z:PROC	; CPartyMng::GetParty
EXTRN	?Serialize@CRTMessenger@@QAEHAAVCAr@@@Z:PROC	; CRTMessenger::Serialize
EXTRN	?GetInstance@CPlayerDataCenter@@SAPAV1@XZ:PROC	; CPlayerDataCenter::GetInstance
EXTRN	?GetPlayerData@CPlayerDataCenter@@QAEPAU_PlayerData@@K@Z:PROC ; CPlayerDataCenter::GetPlayerData
EXTRN	?AddPlayerData@CPlayerDataCenter@@QAEPAU_PlayerData@@KAAU2@@Z:PROC ; CPlayerDataCenter::AddPlayerData
EXTRN	?DeletePlayerData@CPlayerDataCenter@@QAEHK@Z:PROC ; CPlayerDataCenter::DeletePlayerData
EXTRN	?Serialize@CPlayerDataCenter@@QAEHAAVCAr@@HH@Z:PROC ; CPlayerDataCenter::Serialize
EXTRN	?GetPlayerString@CPlayerDataCenter@@QAEPBDK@Z:PROC ; CPlayerDataCenter::GetPlayerString
EXTRN	?Clear@CRainbowRaceMng@@QAEXXZ:PROC		; CRainbowRaceMng::Clear
EXTRN	?GetInstance@CRainbowRaceMng@@SAPAV1@XZ:PROC	; CRainbowRaceMng::GetInstance
EXTRN	?GetRainbowRacerPtr@CRainbowRaceMng@@QAEPAVCRainbowRace@@K@Z:PROC ; CRainbowRaceMng::GetRainbowRacerPtr
EXTRN	?SetApplication@CRainbowRaceMng@@QAEXK@Z:PROC	; CRainbowRaceMng::SetApplication
EXTRN	?SetPrevRanking@CRainbowRaceMng@@QAEXAAV?$vector@KV?$allocator@K@std@@@std@@@Z:PROC ; CRainbowRaceMng::SetPrevRanking
EXTRN	?Serialize@CHousing@@QAEXAAVCAr@@@Z:PROC	; CHousing::Serialize
EXTRN	?AddAllFurnitureControl@CHousing@@QAEXXZ:PROC	; CHousing::AddAllFurnitureControl
EXTRN	?GetInstance@CHousingMng@@SAPAV1@XZ:PROC	; CHousingMng::GetInstance
EXTRN	?ReqLoadHousingInfo@CHousingMng@@QAEXK@Z:PROC	; CHousingMng::ReqLoadHousingInfo
EXTRN	?CreateRoomLayer@CHousingMng@@QAEXK@Z:PROC	; CHousingMng::CreateRoomLayer
EXTRN	?CreateHousing@CHousingMng@@QAEPAVCHousing@@K@Z:PROC ; CHousingMng::CreateHousing
EXTRN	?GetHousing@CHousingMng@@QAEPAVCHousing@@K@Z:PROC ; CHousingMng::GetHousing
EXTRN	?SetFurnitureList@CHousingMng@@QAEXKAAUHOUSINGINFO@@H@Z:PROC ; CHousingMng::SetFurnitureList
EXTRN	?SetupFurniture@CHousingMng@@QAEXKUHOUSINGINFO@@@Z:PROC ; CHousingMng::SetupFurniture
EXTRN	?SetVisitAllow@CHousingMng@@QAEXKKH@Z:PROC	; CHousingMng::SetVisitAllow
EXTRN	?GetInstance@CPCBang@@SAPAV1@XZ:PROC		; CPCBang::GetInstance
EXTRN	?SetPCBangPlayer@CPCBang@@QAEXPAVCUser@@K@Z:PROC ; CPCBang::SetPCBangPlayer
EXTRN	?GetPCBangClass@CPCBang@@QAEKK@Z:PROC		; CPCBang::GetPCBangClass
EXTRN	?SetApply@CPCBang@@QAEXH@Z:PROC			; CPCBang::SetApply
EXTRN	?IsMember@CCampus@@QAEHK@Z:PROC			; CCampus::IsMember
EXTRN	?Serialize@CCampusMng@@QAEXAAVCAr@@@Z:PROC	; CCampusMng::Serialize
EXTRN	?GetCampus@CCampusMng@@QAEPAVCCampus@@K@Z:PROC	; CCampusMng::GetCampus
EXTRN	?GetInstance@CCampusHelper@@SAPAV1@XZ:PROC	; CCampusHelper::GetInstance
EXTRN	?OnAddCampusMember@CCampusHelper@@QAEXAAVCAr@@@Z:PROC ; CCampusHelper::OnAddCampusMember
EXTRN	?OnRemoveCampusMember@CCampusHelper@@QAEXAAVCAr@@@Z:PROC ; CCampusHelper::OnRemoveCampusMember
EXTRN	?OnUpdateCampusPoint@CCampusHelper@@QAEXAAVCAr@@@Z:PROC ; CCampusHelper::OnUpdateCampusPoint
EXTRN	?OnUpdatePlayerData@CCampusHelper@@QAEXKPAU_PlayerData@@@Z:PROC ; CCampusHelper::OnUpdatePlayerData
EXTRN	?SetAllAction@CUser@@QAEXXZ:PROC		; CUser::SetAllAction
EXTRN	?AddPostMail@CUser@@QAEXPAVCMail@@@Z:PROC	; CUser::AddPostMail
EXTRN	?AddRemoveMail@CUser@@QAEXKH@Z:PROC		; CUser::AddRemoveMail
EXTRN	?AddMailBox@CUser@@QAEXPAVCMailBox@@@Z:PROC	; CUser::AddMailBox
EXTRN	?SendCheckMailBoxReq@CUser@@QAEXH@Z:PROC	; CUser::SendCheckMailBoxReq
EXTRN	?CheckTransMailBox@CUser@@QAEXH@Z:PROC		; CUser::CheckTransMailBox
EXTRN	?ResetCheckClientReq@CUser@@QAEXXZ:PROC		; CUser::ResetCheckClientReq
EXTRN	?IsUsableState@CUser@@QAEHK@Z:PROC		; CUser::IsUsableState
EXTRN	?AddDiagText@CUser@@QAEXPBD@Z:PROC		; CUser::AddDiagText
EXTRN	?AddText@CUser@@QAEXPBD@Z:PROC			; CUser::AddText
EXTRN	?AddDefinedText@CUser@@QAEXH@Z:PROC		; CUser::AddDefinedText
EXTRN	?AddRemoveGuildBankItem@CUser@@QAEXKKK@Z:PROC	; CUser::AddRemoveGuildBankItem
EXTRN	?AddPartyMember@CUser@@QAEXPAVCParty@@KPBD1@Z:PROC ; CUser::AddPartyMember
EXTRN	?AddTag@CUser@@QAEXFPBUTAG_ENTRY@@@Z:PROC	; CUser::AddTag
EXTRN	?AddSMModeAll@CUser@@QAEXXZ:PROC		; CUser::AddSMModeAll
EXTRN	?AddGuildCombatNextTime@CUser@@QAEXKK@Z:PROC	; CUser::AddGuildCombatNextTime
EXTRN	?AddGuildCombatEnterTime@CUser@@QAEXK@Z:PROC	; CUser::AddGuildCombatEnterTime
EXTRN	?AddGCWinGuild@CUser@@QAEXXZ:PROC		; CUser::AddGCWinGuild
EXTRN	?AddGCBestPlayer@CUser@@QAEXXZ:PROC		; CUser::AddGCBestPlayer
EXTRN	?AddGCIsRequest@CUser@@QAEXH@Z:PROC		; CUser::AddGCIsRequest
EXTRN	?AddGCGetPenyaGuild@CUser@@QAEXH_J@Z:PROC	; CUser::AddGCGetPenyaGuild
EXTRN	?AddGCGetPenyaPlayer@CUser@@QAEXH_J@Z:PROC	; CUser::AddGCGetPenyaPlayer
EXTRN	?AddGuildCombatState@CUser@@QAEXXZ:PROC		; CUser::AddGuildCombatState
EXTRN	?AddGameSetting@CUser@@QAEXXZ:PROC		; CUser::AddGameSetting
EXTRN	?AddMonsterProp@CUser@@QAEXXZ:PROC		; CUser::AddMonsterProp
EXTRN	?AddGuildBankLogView@CUser@@QAEXEFPBU__GUILDBANKLOG_ENTRY@@@Z:PROC ; CUser::AddGuildBankLogView
EXTRN	?AddSealChar@CUser@@QAEXFPBU__SEALCHAR_ENTRY@@@Z:PROC ; CUser::AddSealChar
EXTRN	?AddSealCharSet@CUser@@QAEXXZ:PROC		; CUser::AddSealCharSet
EXTRN	?AddLordSkillTick@CUser@@QAEXPAVCLordSkill@@@Z:PROC ; CUser::AddLordSkillTick
EXTRN	?AddTaxInfo@CUser@@QAEXXZ:PROC			; CUser::AddTaxInfo
EXTRN	?ValidateItem@CUser@@QAEXXZ:PROC		; CUser::ValidateItem
EXTRN	?AdjustGuildQuest@CUser@@QAEXK@Z:PROC		; CUser::AdjustGuildQuest
EXTRN	?AdjustMailboxState@CUser@@QAEXXZ:PROC		; CUser::AdjustMailboxState
EXTRN	?AddEventLuaDesc@CUser@@QAEXXZ:PROC		; CUser::AddEventLuaDesc
EXTRN	?AdjustPartyQuest@CUser@@QAEXK@Z:PROC		; CUser::AdjustPartyQuest
EXTRN	?AddRainbowRaceState@CUser@@QAEXPAVCRainbowRace@@@Z:PROC ; CUser::AddRainbowRaceState
EXTRN	?AddHousingAllInfo@CUser@@QAEXPAVCHousing@@@Z:PROC ; CUser::AddHousingAllInfo
EXTRN	?AddGuildHouseAllInfo@CUser@@QAEXPAVCGuildHouseBase@@@Z:PROC ; CUser::AddGuildHouseAllInfo
EXTRN	?SetAddRestPoint@CUser@@AAEHH@Z:PROC		; CUser::SetAddRestPoint
EXTRN	?AddUpdateCampus@CUser@@QAEXPAVCCampus@@@Z:PROC	; CUser::AddUpdateCampus
EXTRN	?GetUser@CUserMng@@QAEPAVCUser@@KK@Z:PROC	; CUserMng::GetUser
EXTRN	?GetUserByPlayerID@CUserMng@@QAEPAVCUser@@K@Z:PROC ; CUserMng::GetUserByPlayerID
EXTRN	?AddPlayer@CUserMng@@QAEHPAVCUser@@KH@Z:PROC	; CUserMng::AddPlayer
EXTRN	?AddModifyMode@CUserMng@@QAEXPAVCUser@@@Z:PROC	; CUserMng::AddModifyMode
EXTRN	?AddSetLocalEvent@CUserMng@@QAEXFE@Z:PROC	; CUserMng::AddSetLocalEvent
EXTRN	?AddGameRate@CUserMng@@QAEXME@Z:PROC		; CUserMng::AddGameRate
EXTRN	?AddGCGuildStatus@CUserMng@@QAEXKPAVCUser@@@Z:PROC ; CUserMng::AddGCGuildStatus
EXTRN	?AddGCWinGuild@CUserMng@@QAEXXZ:PROC		; CUserMng::AddGCWinGuild
EXTRN	?AddGCBestPlayer@CUserMng@@QAEXXZ:PROC		; CUserMng::AddGCBestPlayer
EXTRN	?AddGCWarPlayerlist@CUserMng@@QAEXKPAVCUser@@@Z:PROC ; CUserMng::AddGCWarPlayerlist
EXTRN	?AddGCIsRequest@CUserMng@@QAEXKH@Z:PROC		; CUserMng::AddGCIsRequest
EXTRN	?AddGuildMsg@CUserMng@@QAEXPAVCGuild@@PBD@Z:PROC ; CUserMng::AddGuildMsg
EXTRN	?AddMonsterProp@CUserMng@@QAEXXZ:PROC		; CUserMng::AddMonsterProp
EXTRN	?AddGMChat@CUserMng@@QAEXH@Z:PROC		; CUserMng::AddGMChat
EXTRN	?AddEventLua@CUserMng@@QAEXEH@Z:PROC		; CUserMng::AddEventLua
EXTRN	?AddLEventTick@CUserMng@@QAEXPAVILordEvent@@@Z:PROC ; CUserMng::AddLEventTick
EXTRN	?AddLordSkillUse@CUserMng@@QAEXPAVCUser@@KH@Z:PROC ; CUserMng::AddLordSkillUse
EXTRN	?AddTaxInfo@CUserMng@@QAEXXZ:PROC		; CUserMng::AddTaxInfo
EXTRN	?GetWorld@CWorldMng@@QAEPAVCWorld@@K@Z:PROC	; CWorldMng::GetWorld
EXTRN	??0CMail@@QAE@XZ:PROC				; CMail::CMail
EXTRN	?Serialize@CMail@@QAEXAAVCAr@@H@Z:PROC		; CMail::Serialize
EXTRN	??0CMailBox@@QAE@K@Z:PROC			; CMailBox::CMailBox
EXTRN	?Read@CMailBox@@QAEXAAVCAr@@@Z:PROC		; CMailBox::Read
EXTRN	?ReadReq@CMailBox@@QAEXAAVCAr@@@Z:PROC		; CMailBox::ReadReq
EXTRN	?GetMail@CMailBox@@QAEPAVCMail@@K@Z:PROC	; CMailBox::GetMail
EXTRN	?RemoveMail@CMailBox@@QAEHK@Z:PROC		; CMailBox::RemoveMail
EXTRN	?RemoveMailItem@CMailBox@@QAEHK@Z:PROC		; CMailBox::RemoveMailItem
EXTRN	?RemoveMailGold@CMailBox@@QAEHK@Z:PROC		; CMailBox::RemoveMailGold
EXTRN	?ReadMail@CMailBox@@QAEHK@Z:PROC		; CMailBox::ReadMail
EXTRN	?IsStampedMailExists@CMailBox@@QAEHXZ:PROC	; CMailBox::IsStampedMailExists
EXTRN	?AddMail@CPost@@QAEKKPAVCMail@@@Z:PROC		; CPost::AddMail
EXTRN	?GetMailBox@CPost@@QAEPAVCMailBox@@K@Z:PROC	; CPost::GetMailBox
EXTRN	?AddMailBox@CPost@@QAEHPAVCMailBox@@@Z:PROC	; CPost::AddMailBox
EXTRN	?Serialize@CPost@@QAEXAAVCAr@@H@Z:PROC		; CPost::Serialize
EXTRN	?GetInstance@CPost@@SAPAV1@XZ:PROC		; CPost::GetInstance
EXTRN	?CanAdd@@YAHKH@Z:PROC				; CanAdd
EXTRN	?AddRegionGeneric@CEventGeneric@@QAEXHKPAVCRespawnInfo@@@Z:PROC ; CEventGeneric::AddRegionGeneric
EXTRN	?SortRegionGeneric@CEventGeneric@@QAEXXZ:PROC	; CEventGeneric::SortRegionGeneric
EXTRN	?GetInstance@CEventGeneric@@SAPAV1@XZ:PROC	; CEventGeneric::GetInstance
EXTRN	?Serialize@CEventGeneric@@QAEXAAVCAr@@@Z:PROC	; CEventGeneric::Serialize
EXTRN	?GetSkill@CLordSkill@@QAEPAVCLordSkillComponentExecutable@@H@Z:PROC ; CLordSkill::GetSkill
EXTRN	?SerializeTick@CLordSkill@@QAEXAAVCAr@@@Z:PROC	; CLordSkill::SerializeTick
EXTRN	?BeginCandidacy@IElection@@QAEXXZ:PROC		; IElection::BeginCandidacy
EXTRN	?BeginVote@IElection@@QAEXH@Z:PROC		; IElection::BeginVote
EXTRN	?EndVote@IElection@@QAEXK@Z:PROC		; IElection::EndVote
EXTRN	?AddDeposit@IElection@@QAEXK_JJ@Z:PROC		; IElection::AddDeposit
EXTRN	?SetPledge@IElection@@QAEXKPBD@Z:PROC		; IElection::SetPledge
EXTRN	?IncVote@IElection@@QAEXKK@Z:PROC		; IElection::IncVote
EXTRN	?HasPledge@IElection@@QAEHK@Z:PROC		; IElection::HasPledge
EXTRN	??0CLEComponent@@QAE@XZ:PROC			; CLEComponent::CLEComponent
EXTRN	?Serialize@CLEComponent@@QAEXAAVCAr@@@Z:PROC	; CLEComponent::Serialize
EXTRN	?AddComponent@ILordEvent@@QAEXPAVCLEComponent@@H@Z:PROC ; ILordEvent::AddComponent
EXTRN	?Initialize@ILordEvent@@QAEXXZ:PROC		; ILordEvent::Initialize
EXTRN	?SerializeTick@ILordEvent@@QAEXAAVCAr@@@Z:PROC	; ILordEvent::SerializeTick
EXTRN	?EraseExpiredComponents@ILordEvent@@QAEXXZ:PROC	; ILordEvent::EraseExpiredComponents
EXTRN	?Serialize@CLord@@QAEXAAVCAr@@@Z:PROC		; CLord::Serialize
EXTRN	?OutputDebugStringA@election@@YAXPBDZZ:PROC	; election::OutputDebugStringA
EXTRN	?Instance@CSLord@@SAPAV1@XZ:PROC		; CSLord::Instance
EXTRN	?GetInstance@CTax@@SAPAV1@XZ:PROC		; CTax::GetInstance
EXTRN	?Serialize@CTax@@QAEXAAVCAr@@@Z:PROC		; CTax::Serialize
EXTRN	?SendNoSetTaxRateOpenWnd@CTax@@QAEXPAVCUser@@@Z:PROC ; CTax::SendNoSetTaxRateOpenWnd
EXTRN	?Serialize@CCoupleMgr@@QAEXAAVCAr@@@Z:PROC	; CCoupleMgr::Serialize
EXTRN	?Instance@CCoupleHelper@@SAPAV1@XZ:PROC		; CCoupleHelper::Instance
EXTRN	?OnProposeResult@CCoupleHelper@@QAEXAAVCAr@@@Z:PROC ; CCoupleHelper::OnProposeResult
EXTRN	?OnCoupleResult@CCoupleHelper@@QAEXAAVCAr@@@Z:PROC ; CCoupleHelper::OnCoupleResult
EXTRN	?OnDecoupleResult@CCoupleHelper@@QAEXAAVCAr@@@Z:PROC ; CCoupleHelper::OnDecoupleResult
EXTRN	?OnAddCoupleExperience@CCoupleHelper@@QAEXAAVCAr@@@Z:PROC ; CCoupleHelper::OnAddCoupleExperience
EXTRN	?OnUpdatePlayerData@CCoupleHelper@@QAEXKPAU_PlayerData@@@Z:PROC ; CCoupleHelper::OnUpdatePlayerData
EXTRN	?GetInstance@CFunnyCoin@@SAPAV1@XZ:PROC		; CFunnyCoin::GetInstance
EXTRN	?OnFunnyCoinAckUse@CFunnyCoin@@QAEXAAVCAr@@@Z:PROC ; CFunnyCoin::OnFunnyCoinAckUse
EXTRN	?GetInstance@CQuiz@@SAPAV1@XZ:PROC		; CQuiz::GetInstance
EXTRN	?LoadScript@CQuiz@@QAEXXZ:PROC			; CQuiz::LoadScript
EXTRN	?OpenQuizEvent@CQuiz@@QAEXXZ:PROC		; CQuiz::OpenQuizEvent
EXTRN	?MakeQuizList@CQuiz@@QAEXAAU_QUIZLIST@1@@Z:PROC	; CQuiz::MakeQuizList
EXTRN	?NoticeMessage@CQuiz@@QAEXXZ:PROC		; CQuiz::NoticeMessage
EXTRN	@__security_check_cookie@4:PROC
EXTRN	__CxxThrowException@8:PROC
EXTRN	___CxxFrameHandler3:PROC
EXTRN	__chkstk:PROC
EXTRN	_memcpy:PROC
EXTRN	_memmove:PROC
EXTRN	_memset:PROC
EXTRN	__Init_thread_epoch:DWORD
EXTRN	??_7type_info@@6B@:QWORD			; type_info::`vftable'
EXTRN	?g_tCurrent@@3JA:DWORD				; g_tCurrent
EXTRN	?m_nMethod@CObj@@2HA:DWORD			; CObj::m_nMethod
EXTRN	?m_fItemDropRate@CProject@@2MA:DWORD		; CProject::m_fItemDropRate
EXTRN	?m_fGoldDropRate@CProject@@2MA:DWORD		; CProject::m_fGoldDropRate
EXTRN	?m_fMonsterExpRate@CProject@@2MA:DWORD		; CProject::m_fMonsterExpRate
EXTRN	?m_fMonsterHitRate@CProject@@2MA:DWORD		; CProject::m_fMonsterHitRate
EXTRN	?m_fShopCost@CProject@@2MA:DWORD		; CProject::m_fShopCost
EXTRN	?prj@@3VCProject@@A:BYTE			; prj
EXTRN	?g_uIdofMulti@@3KA:DWORD			; g_uIdofMulti
EXTRN	?g_eLocal@@3VCFlyffEvent@@A:BYTE		; g_eLocal
EXTRN	?g_uKey@@3KA:DWORD				; g_uKey
EXTRN	?g_GuildCombat1to1Mng@@3VCGuildCombat1to1Mng@@A:BYTE ; g_GuildCombat1to1Mng
EXTRN	?g_GuildCombatMng@@3VCGuildCombat@@A:BYTE	; g_GuildCombatMng
EXTRN	?g_DPSrvr@@3VCDPSrvr@@A:BYTE			; g_DPSrvr
EXTRN	?g_UserMng@@3VCUserMng@@A:BYTE			; g_UserMng
EXTRN	?g_WorldMng@@3VCWorldMng@@A:BYTE		; g_WorldMng
EXTRN	?g_DPCoreClient@@3VCDPCoreClient@@A:BYTE	; g_DPCoreClient
EXTRN	?g_PartyMng@@3VCPartyMng@@A:BYTE		; g_PartyMng
EXTRN	?g_GuildMng@@3VCGuildMng@@A:BYTE		; g_GuildMng
EXTRN	___security_cookie:DWORD
EXTRN	__fltused:DWORD
EXTRN	__tls_array:DWORD
EXTRN	__tls_index:DWORD
;	COMDAT ?_OptionsStorage@?1??__local_stdio_printf_options@@9@4_KA
_BSS	SEGMENT
?_OptionsStorage@?1??__local_stdio_printf_options@@9@4_KA DQ 01H DUP (?) ; `__local_stdio_printf_options'::`2'::_OptionsStorage
_BSS	ENDS
_BSS	SEGMENT
?g_dpDBClient@@3VCDPDatabaseClient@@A DB 020H DUP (?)	; g_dpDBClient
_BSS	ENDS
;	COMDAT ?mapstrProfile@?1??UserMessageHandler@CDPDatabaseClient@@UAEXPAUDPMSG_GENERIC@@KK@Z@4V?$map@KV?$CStringT@DV?$StrTraitMFC@DV?$ChTraitsCRT@D@ATL@@@@@ATL@@U?$less@K@std@@V?$allocator@U?$pair@$$CBKV?$CStringT@DV?$StrTraitMFC@DV?$ChTraitsCRT@D@ATL@@@@@ATL@@@std@@@4@@std@@A
_BSS	SEGMENT
?mapstrProfile@?1??UserMessageHandler@CDPDatabaseClient@@UAEXPAUDPMSG_GENERIC@@KK@Z@4V?$map@KV?$CStringT@DV?$StrTraitMFC@DV?$ChTraitsCRT@D@ATL@@@@@ATL@@U?$less@K@std@@V?$allocator@U?$pair@$$CBKV?$CStringT@DV?$StrTraitMFC@DV?$ChTraitsCRT@D@ATL@@@@@ATL@@@std@@@4@@std@@A DQ 01H DUP (?) ; `CDPDatabaseClient::UserMessageHandler'::`2'::mapstrProfile
_BSS	ENDS
;	COMDAT ?$TSS0@?1??UserMessageHandler@CDPDatabaseClient@@UAEXPAUDPMSG_GENERIC@@KK@Z@4HA
_BSS	SEGMENT
?$TSS0@?1??UserMessageHandler@CDPDatabaseClient@@UAEXPAUDPMSG_GENERIC@@KK@Z@4HA DD 01H DUP (?) ; `CDPDatabaseClient::UserMessageHandler'::`2'::$TSS0
_BSS	ENDS
CRT$XCU	SEGMENT
?g_dpDBClient$initializer$@@3P6AXXZA DD FLAT:??__Eg_dpDBClient@@YAXXZ ; g_dpDBClient$initializer$
CRT$XCU	ENDS
;	COMDAT __xmm@41f00000000000000000000000000000
CONST	SEGMENT
__xmm@41f00000000000000000000000000000 DB 00H, 00H, 00H, 00H, 00H, 00H, 00H
	DB	00H, 00H, 00H, 00H, 00H, 00H, 00H, 0f0H, 'A'
CONST	ENDS
;	COMDAT __real@42c80000
CONST	SEGMENT
__real@42c80000 DD 042c80000r			; 100
CONST	ENDS
;	COMDAT __real@3f800000
CONST	SEGMENT
__real@3f800000 DD 03f800000r			; 1
CONST	ENDS
;	COMDAT ??_R2CDPMng@@8
rdata$r	SEGMENT
??_R2CDPMng@@8 DD FLAT:??_R1A@?0A@EA@CDPMng@@8		; CDPMng::`RTTI Base Class Array'
rdata$r	ENDS
;	COMDAT ??_R3CDPMng@@8
rdata$r	SEGMENT
??_R3CDPMng@@8 DD 00H					; CDPMng::`RTTI Class Hierarchy Descriptor'
	DD	00H
	DD	01H
	DD	FLAT:??_R2CDPMng@@8
rdata$r	ENDS
;	COMDAT ??_R0?AVCDPMng@@@8
data$rs	SEGMENT
??_R0?AVCDPMng@@@8 DD FLAT:??_7type_info@@6B@		; CDPMng `RTTI Type Descriptor'
	DD	00H
	DB	'.?AVCDPMng@@', 00H
data$rs	ENDS
;	COMDAT ??_R1A@?0A@EA@CDPMng@@8
rdata$r	SEGMENT
??_R1A@?0A@EA@CDPMng@@8 DD FLAT:??_R0?AVCDPMng@@@8	; CDPMng::`RTTI Base Class Descriptor at (0,-1,0,64)'
	DD	00H
	DD	00H
	DD	0ffffffffH
	DD	00H
	DD	040H
	DD	FLAT:??_R3CDPMng@@8
rdata$r	ENDS
;	COMDAT ??_R1A@?0A@EA@CDPDatabaseClient@@8
rdata$r	SEGMENT
??_R1A@?0A@EA@CDPDatabaseClient@@8 DD FLAT:??_R0?AVCDPDatabaseClient@@@8 ; CDPDatabaseClient::`RTTI Base Class Descriptor at (0,-1,0,64)'
	DD	01H
	DD	00H
	DD	0ffffffffH
	DD	00H
	DD	040H
	DD	FLAT:??_R3CDPDatabaseClient@@8
rdata$r	ENDS
;	COMDAT ??_R2CDPDatabaseClient@@8
rdata$r	SEGMENT
??_R2CDPDatabaseClient@@8 DD FLAT:??_R1A@?0A@EA@CDPDatabaseClient@@8 ; CDPDatabaseClient::`RTTI Base Class Array'
	DD	FLAT:??_R1A@?0A@EA@CDPMng@@8
rdata$r	ENDS
;	COMDAT ??_R3CDPDatabaseClient@@8
rdata$r	SEGMENT
??_R3CDPDatabaseClient@@8 DD 00H			; CDPDatabaseClient::`RTTI Class Hierarchy Descriptor'
	DD	00H
	DD	02H
	DD	FLAT:??_R2CDPDatabaseClient@@8
rdata$r	ENDS
;	COMDAT ??_R0?AVCDPDatabaseClient@@@8
data$rs	SEGMENT
??_R0?AVCDPDatabaseClient@@@8 DD FLAT:??_7type_info@@6B@ ; CDPDatabaseClient `RTTI Type Descriptor'
	DD	00H
	DB	'.?AVCDPDatabaseClient@@', 00H
data$rs	ENDS
;	COMDAT ??_R4CDPDatabaseClient@@6B@
rdata$r	SEGMENT
??_R4CDPDatabaseClient@@6B@ DD 00H			; CDPDatabaseClient::`RTTI Complete Object Locator'
	DD	00H
	DD	00H
	DD	FLAT:??_R0?AVCDPDatabaseClient@@@8
	DD	FLAT:??_R3CDPDatabaseClient@@8
rdata$r	ENDS
;	COMDAT ??_C@_0BN@DFBGMJLJ@QuizEvent?4lua?5?$MA?g?$LN?G?G?$OA?5?$LP?O?$LH?a?$CB?$CB?$CB@
CONST	SEGMENT
??_C@_0BN@DFBGMJLJ@QuizEvent?4lua?5?$MA?g?$LN?G?G?$OA?5?$LP?O?$LH?a?$CB?$CB?$CB@ DB 'Q'
	DB	'uizEvent.lua ', 0c0H, 0e7H, 0bdH, 0c7H, 0c7H, 0e0H, ' ', 0bfH
	DB	0cfH, 0b7H, 0e1H, '!!!', 00H			; `string'
CONST	ENDS
;	COMDAT ??_C@_0DO@EBLACFLM@CDPDatabaseClient?3?3OnHousingDBF@
CONST	SEGMENT
??_C@_0DO@EBLACFLM@CDPDatabaseClient?3?3OnHousingDBF@ DB 'CDPDatabaseClie'
	DB	'nt::OnHousingDBFailed -> Invalid User - %d, %d', 00H ; `string'
CONST	ENDS
;	COMDAT ??_C@_0EI@BOPNMDOF@CDPDatabaseClient?3?3OnHousingDBF@
CONST	SEGMENT
??_C@_0EI@BOPNMDOF@CDPDatabaseClient?3?3OnHousingDBF@ DB 'CDPDatabaseClie'
	DB	'nt::OnHousingDBFailed -> CreateItem Failed! - %d, %s, %d', 00H ; `string'
CONST	ENDS
;	COMDAT ??_C@_0CK@GNPBFGHG@CDPDatabaseClient?3?3OnHousingLoa@
CONST	SEGMENT
??_C@_0CK@GNPBFGHG@CDPDatabaseClient?3?3OnHousingLoa@ DB 'CDPDatabaseClie'
	DB	'nt::OnHousingLoadInfo - %d', 00H		; `string'
CONST	ENDS
;	COMDAT ??_C@_0BP@LOJCDMBK@CDPDatabaseClient?4OnLEventTick@
CONST	SEGMENT
??_C@_0BP@LOJCDMBK@CDPDatabaseClient?4OnLEventTick@ DB 'CDPDatabaseClient'
	DB	'.OnLEventTick', 00H				; `string'
CONST	ENDS
;	COMDAT ??_C@_0CC@MNPPGLNO@CDPDatabaseClient?4OnLordSkillTi@
CONST	SEGMENT
??_C@_0CC@MNPPGLNO@CDPDatabaseClient?4OnLordSkillTi@ DB 'CDPDatabaseClien'
	DB	't.OnLordSkillTick', 00H			; `string'
CONST	ENDS
;	COMDAT ??_C@_0CB@NFKBDGA@CDPDatabaseClient?4OnLordSkillUs@
CONST	SEGMENT
??_C@_0CB@NFKBDGA@CDPDatabaseClient?4OnLordSkillUs@ DB 'CDPDatabaseClient'
	DB	'.OnLordSkillUse', 00H			; `string'
CONST	ENDS
;	COMDAT ??_C@_0CF@CPJIDAIL@CDPDatabaseClient?4OnLEventIniti@
CONST	SEGMENT
??_C@_0CF@CPJIDAIL@CDPDatabaseClient?4OnLEventIniti@ DB 'CDPDatabaseClien'
	DB	't.OnLEventInitialize', 00H			; `string'
CONST	ENDS
;	COMDAT ??_C@_0CB@PPKFCCHM@CDPDatabaseClient?4OnLEventCreat@
CONST	SEGMENT
??_C@_0CB@PPKFCCHM@CDPDatabaseClient?4OnLEventCreat@ DB 'CDPDatabaseClien'
	DB	't.OnLEventCreate', 00H			; `string'
CONST	ENDS
;	COMDAT ??_C@_0BJ@IOOPDFAM@CDPDatabaseClient?4OnLord@
CONST	SEGMENT
??_C@_0BJ@IOOPDFAM@CDPDatabaseClient?4OnLord@ DB 'CDPDatabaseClient.OnLor'
	DB	'd', 00H					; `string'
CONST	ENDS
;	COMDAT ??_C@_01HIHLOKLC@1@
CONST	SEGMENT
??_C@_01HIHLOKLC@1@ DB '1', 00H				; `string'
CONST	ENDS
;	COMDAT ??_C@_0BJ@BAHEIOPC@Event?4lua?5?$MA?g?$LN?G?G?$OA?5?$LP?O?$LH?a?$CB?$CB?$CB@
CONST	SEGMENT
??_C@_0BJ@BAHEIOPC@Event?4lua?5?$MA?g?$LN?G?G?$OA?5?$LP?O?$LH?a?$CB?$CB?$CB@ DB 'E'
	DB	'vent.lua ', 0c0H, 0e7H, 0bdH, 0c7H, 0c7H, 0e0H, ' ', 0bfH, 0cfH
	DB	0b7H, 0e1H, '!!!', 00H			; `string'
CONST	ENDS
;	COMDAT ??_C@_0P@EBNAFPGK@OnEvent?3?5?$CFd?3?50@
CONST	SEGMENT
??_C@_0P@EBNAFPGK@OnEvent?3?5?$CFd?3?50@ DB 'OnEvent: %d: 0', 00H ; `string'
CONST	ENDS
;	COMDAT ??_C@_0N@OKCHACPC@event?3?5?$CFd?3?51@
CONST	SEGMENT
??_C@_0N@OKCHACPC@event?3?5?$CFd?3?51@ DB 'event: %d: 1', 00H ; `string'
CONST	ENDS
;	COMDAT ??_C@_0BO@LOACNOMP@OnEventFlag?3?5nId?$DN?$CFd?0?5nFlag?$DN?$CFd@
CONST	SEGMENT
??_C@_0BO@LOACNOMP@OnEventFlag?3?5nId?$DN?$CFd?0?5nFlag?$DN?$CFd@ DB 'OnE'
	DB	'ventFlag: nId=%d, nFlag=%d', 00H		; `string'
CONST	ENDS
;	COMDAT ??_C@_0BL@PDIIILDP@OnEventFlag?3?5dwFlag?$DN0x?$CF08x@
CONST	SEGMENT
??_C@_0BL@PDIIILDP@OnEventFlag?3?5dwFlag?$DN0x?$CF08x@ DB 'OnEventFlag: d'
	DB	'wFlag=0x%08x', 00H				; `string'
CONST	ENDS
;	COMDAT ??_C@_0CA@FBLOGMPF@dwFlag?$DN0x?$CF08x?0?5nId?$DN?$CFd?0?5nFlag?$DN?$CFd@
CONST	SEGMENT
??_C@_0CA@FBLOGMPF@dwFlag?$DN0x?$CF08x?0?5nId?$DN?$CFd?0?5nFlag?$DN?$CFd@ DB 'd'
	DB	'wFlag=0x%08x, nId=%d, nFlag=%d', 00H	; `string'
CONST	ENDS
;	COMDAT ??_C@_0DO@HELLNEJP@OnPostMail?5?9?5Send?5Mail?5Failed?4?5@
CONST	SEGMENT
??_C@_0DO@HELLNEJP@OnPostMail?5?9?5Send?5Mail?5Failed?4?5@ DB 'OnPostMail'
	DB	' - Send Mail Failed. idSender : %d, idReceiver : %d', 00H ; `string'
CONST	ENDS
;	COMDAT ??_C@_0CB@DAKFPBOL@OnPostMail?5?9?5pMail?9?$DOm_nMail?5?3?5?$CF@
CONST	SEGMENT
??_C@_0CB@DAKFPBOL@OnPostMail?5?9?5pMail?9?$DOm_nMail?5?3?5?$CF@ DB 'OnPo'
	DB	'stMail - pMail->m_nMail : %d', 00H		; `string'
CONST	ENDS
;	COMDAT ??_C@_0EI@ENILCGKP@CDPDatabaseClient?3?3OnMailBoxReq@
CONST	SEGMENT
??_C@_0EI@ENILCGKP@CDPDatabaseClient?3?3OnMailBoxReq@ DB 'CDPDatabaseClie'
	DB	'nt::OnMailBoxReq - pMailBox is NOT NULL. idReceiver : %d', 00H ; `string'
CONST	ENDS
;	COMDAT ??_C@_0DI@NOHDLBNF@CDPDatabaseClient?3?3OnMailBoxReq@
CONST	SEGMENT
??_C@_0DI@NOHDLBNF@CDPDatabaseClient?3?3OnMailBoxReq@ DB 'CDPDatabaseClie'
	DB	'nt::OnMailBoxReq - MailBox Create Failed', 00H ; `string'
CONST	ENDS
;	COMDAT ??_C@_0EF@DEAGPNNP@CDPDatabaseClient?3?3OnMailBoxReq@
CONST	SEGMENT
??_C@_0EF@DEAGPNNP@CDPDatabaseClient?3?3OnMailBoxReq@ DB 'CDPDatabaseClie'
	DB	'nt::OnMailBoxReq - AddMailBox Failed. idReceiver : %d', 00H ; `string'
CONST	ENDS
;	COMDAT ??_C@_0CP@HEOFHLGO@GetMailBox?5?9?5pMailBox?5is?5NULL?4?5@
CONST	SEGMENT
??_C@_0CP@HEOFHLGO@GetMailBox?5?9?5pMailBox?5is?5NULL?4?5@ DB 'GetMailBox'
	DB	' - pMailBox is NULL. idReceiver : %d', 00H	; `string'
CONST	ENDS
;	COMDAT ??_C@_0BF@DLAMMPIE@TRANS?5?3?5is?5not?5alive@
CONST	SEGMENT
??_C@_0BF@DLAMMPIE@TRANS?5?3?5is?5not?5alive@ DB 'TRANS : is not alive', 00H ; `string'
CONST	ENDS
;	COMDAT ??_C@_0P@OOEHEFKJ@GUILDCOMBAT_VP@
CONST	SEGMENT
??_C@_0P@OOEHEFKJ@GUILDCOMBAT_VP@ DB 'GUILDCOMBAT_VP', 00H ; `string'
CONST	ENDS
;	COMDAT ??_C@_0P@OLMEMBDP@GUILDCOMBAT_VG@
CONST	SEGMENT
??_C@_0P@OLMEMBDP@GUILDCOMBAT_VG@ DB 'GUILDCOMBAT_VG', 00H ; `string'
CONST	ENDS
;	COMDAT ??_C@_01LAKCGALK@9@
CONST	SEGMENT
??_C@_01LAKCGALK@9@ DB '9', 00H				; `string'
CONST	ENDS
;	COMDAT ??_C@_0BB@MNPGDBAO@OnJoin?$CI?$CJ?3?5?$CFs?0?5?$CFd@
CONST	SEGMENT
??_C@_0BB@MNPGDBAO@OnJoin?$CI?$CJ?3?5?$CFs?0?5?$CFd@ DB 'OnJoin(): %s, %d'
	DB	00H						; `string'
CONST	ENDS
;	COMDAT ??_C@_0CK@HBKBIECN@Abnormal?5User?$CB?$CB?5?9?5?$CFs?$CI?$CF07d?$CJ?0?5m_d@
CONST	SEGMENT
??_C@_0CK@HBKBIECN@Abnormal?5User?$CB?$CB?5?9?5?$CFs?$CI?$CF07d?$CJ?0?5m_d@ DB 'A'
	DB	'bnormal User!! - %s(%07d), m_dwMode:%08x', 00H ; `string'
CONST	ENDS
;	COMDAT ??_C@_0CA@PHCNGMCC@OnJoin?$CI?$CJ?3?5an?5ocular?5spectrum?5?$CFd@
CONST	SEGMENT
??_C@_0CA@PHCNGMCC@OnJoin?$CI?$CJ?3?5an?5ocular?5spectrum?5?$CFd@ DB 'OnJ'
	DB	'oin(): an ocular spectrum %d', 00H		; `string'
CONST	ENDS
;	COMDAT ??_C@_0BK@KIIGOLIN@MAX_GENERAL_LEVEL?1?1?$CFs?1?1?$CFd@
CONST	SEGMENT
??_C@_0BK@KIIGOLIN@MAX_GENERAL_LEVEL?1?1?$CFs?1?1?$CFd@ DB 'MAX_GENERAL_L'
	DB	'EVEL//%s//%d', 00H				; `string'
CONST	ENDS
;	COMDAT ??_C@_0BO@CIOCDNJI@OnJoin?$CI?$CJ?3?5Different?5dwAuthKey@
CONST	SEGMENT
??_C@_0BO@CIOCDNJI@OnJoin?$CI?$CJ?3?5Different?5dwAuthKey@ DB 'OnJoin(): '
	DB	'Different dwAuthKey', 00H			; `string'
CONST	ENDS
;	COMDAT ??_C@_0CJ@JHEEDKCJ@WORLDSERVER?4EXE?7?1?1?5PACKETTYPE_J@
CONST	SEGMENT
??_C@_0CJ@JHEEDKCJ@WORLDSERVER?4EXE?7?1?1?5PACKETTYPE_J@ DB 'WORLDSERVER.'
	DB	'EXE', 09H, '// PACKETTYPE_JOIN', 09H, '// %d', 00H ; `string'
CONST	ENDS
;	COMDAT ??_C@_02DKCKIIND@?$CFs@
CONST	SEGMENT
??_C@_02DKCKIIND@?$CFs@ DB '%s', 00H			; `string'
CONST	ENDS
;	COMDAT ??_C@_0BJ@BNGKCMIB@Handler?5not?5found?$CI?$CF08x?$CJ?6@
CONST	SEGMENT
??_C@_0BJ@BNGKCMIB@Handler?5not?5found?$CI?$CF08x?$CJ?6@ DB 'Handler not '
	DB	'found(%08x)', 0aH, 00H			; `string'
CONST	ENDS
;	COMDAT ??_C@_0CO@DPLNBDB@CDPDatabaseClient?3?3UserMessageH@
CONST	SEGMENT
??_C@_0CO@DPLNBDB@CDPDatabaseClient?3?3UserMessageH@ DB 'CDPDatabaseClien'
	DB	't::UserMessageHandler(0x%08x)', 00H		; `string'
CONST	ENDS
;	COMDAT ??_C@_01DNKMNLPK@?$HM@
CONST	SEGMENT
??_C@_01DNKMNLPK@?$HM@ DB '|', 00H			; `string'
CONST	ENDS
;	COMDAT ??_C@_02PCIJFNDE@?$AN?6@
CONST	SEGMENT
??_C@_02PCIJFNDE@?$AN?6@ DB 0dH, 0aH, 00H		; `string'
CONST	ENDS
;	COMDAT ??_7CDPDatabaseClient@@6B@
CONST	SEGMENT
??_7CDPDatabaseClient@@6B@ DD FLAT:??_R4CDPDatabaseClient@@6B@ ; CDPDatabaseClient::`vftable'
	DD	FLAT:??_ECDPDatabaseClient@@UAEPAXI@Z
	DD	FLAT:?SysMessageHandler@CDPDatabaseClient@@UAEXPAUDPMSG_GENERIC@@KK@Z
	DD	FLAT:?UserMessageHandler@CDPDatabaseClient@@UAEXPAUDPMSG_GENERIC@@KK@Z
CONST	ENDS
;	COMDAT ??_R4bad_alloc@std@@6B@
rdata$r	SEGMENT
??_R4bad_alloc@std@@6B@ DD 00H				; std::bad_alloc::`RTTI Complete Object Locator'
	DD	00H
	DD	00H
	DD	FLAT:??_R0?AVbad_alloc@std@@@8
	DD	FLAT:??_R3bad_alloc@std@@8
rdata$r	ENDS
;	COMDAT ??_R2bad_alloc@std@@8
rdata$r	SEGMENT
??_R2bad_alloc@std@@8 DD FLAT:??_R1A@?0A@EA@bad_alloc@std@@8 ; std::bad_alloc::`RTTI Base Class Array'
	DD	FLAT:??_R1A@?0A@EA@exception@std@@8
rdata$r	ENDS
;	COMDAT ??_R3bad_alloc@std@@8
rdata$r	SEGMENT
??_R3bad_alloc@std@@8 DD 00H				; std::bad_alloc::`RTTI Class Hierarchy Descriptor'
	DD	00H
	DD	02H
	DD	FLAT:??_R2bad_alloc@std@@8
rdata$r	ENDS
;	COMDAT ??_R1A@?0A@EA@bad_alloc@std@@8
rdata$r	SEGMENT
??_R1A@?0A@EA@bad_alloc@std@@8 DD FLAT:??_R0?AVbad_alloc@std@@@8 ; std::bad_alloc::`RTTI Base Class Descriptor at (0,-1,0,64)'
	DD	01H
	DD	00H
	DD	0ffffffffH
	DD	00H
	DD	040H
	DD	FLAT:??_R3bad_alloc@std@@8
rdata$r	ENDS
;	COMDAT ??_R1A@?0A@EA@bad_array_new_length@std@@8
rdata$r	SEGMENT
??_R1A@?0A@EA@bad_array_new_length@std@@8 DD FLAT:??_R0?AVbad_array_new_length@std@@@8 ; std::bad_array_new_length::`RTTI Base Class Descriptor at (0,-1,0,64)'
	DD	02H
	DD	00H
	DD	0ffffffffH
	DD	00H
	DD	040H
	DD	FLAT:??_R3bad_array_new_length@std@@8
rdata$r	ENDS
;	COMDAT ??_R2bad_array_new_length@std@@8
rdata$r	SEGMENT
??_R2bad_array_new_length@std@@8 DD FLAT:??_R1A@?0A@EA@bad_array_new_length@std@@8 ; std::bad_array_new_length::`RTTI Base Class Array'
	DD	FLAT:??_R1A@?0A@EA@bad_alloc@std@@8
	DD	FLAT:??_R1A@?0A@EA@exception@std@@8
rdata$r	ENDS
;	COMDAT ??_R3bad_array_new_length@std@@8
rdata$r	SEGMENT
??_R3bad_array_new_length@std@@8 DD 00H			; std::bad_array_new_length::`RTTI Class Hierarchy Descriptor'
	DD	00H
	DD	03H
	DD	FLAT:??_R2bad_array_new_length@std@@8
rdata$r	ENDS
;	COMDAT ??_R4bad_array_new_length@std@@6B@
rdata$r	SEGMENT
??_R4bad_array_new_length@std@@6B@ DD 00H		; std::bad_array_new_length::`RTTI Complete Object Locator'
	DD	00H
	DD	00H
	DD	FLAT:??_R0?AVbad_array_new_length@std@@@8
	DD	FLAT:??_R3bad_array_new_length@std@@8
rdata$r	ENDS
;	COMDAT ??_R1A@?0A@EA@exception@std@@8
rdata$r	SEGMENT
??_R1A@?0A@EA@exception@std@@8 DD FLAT:??_R0?AVexception@std@@@8 ; std::exception::`RTTI Base Class Descriptor at (0,-1,0,64)'
	DD	00H
	DD	00H
	DD	0ffffffffH
	DD	00H
	DD	040H
	DD	FLAT:??_R3exception@std@@8
rdata$r	ENDS
;	COMDAT ??_R2exception@std@@8
rdata$r	SEGMENT
??_R2exception@std@@8 DD FLAT:??_R1A@?0A@EA@exception@std@@8 ; std::exception::`RTTI Base Class Array'
rdata$r	ENDS
;	COMDAT ??_R3exception@std@@8
rdata$r	SEGMENT
??_R3exception@std@@8 DD 00H				; std::exception::`RTTI Class Hierarchy Descriptor'
	DD	00H
	DD	01H
	DD	FLAT:??_R2exception@std@@8
rdata$r	ENDS
;	COMDAT ??_R4exception@std@@6B@
rdata$r	SEGMENT
??_R4exception@std@@6B@ DD 00H				; std::exception::`RTTI Complete Object Locator'
	DD	00H
	DD	00H
	DD	FLAT:??_R0?AVexception@std@@@8
	DD	FLAT:??_R3exception@std@@8
rdata$r	ENDS
;	COMDAT ??_C@_0BA@FOIKENOD@vector?5too?5long@
CONST	SEGMENT
??_C@_0BA@FOIKENOD@vector?5too?5long@ DB 'vector too long', 00H ; `string'
CONST	ENDS
;	COMDAT ??_C@_05KKCIMGE@error@
CONST	SEGMENT
??_C@_05KKCIMGE@error@ DB 'error', 00H			; `string'
CONST	ENDS
;	COMDAT ??_C@_0BE@OHDBLHOM@GetText?5range_error@
CONST	SEGMENT
??_C@_0BE@OHDBLHOM@GetText?5range_error@ DB 'GetText range_error', 00H ; `string'
CONST	ENDS
;	COMDAT ??_C@_0BJ@GKPOBPPI@GetMoverProp?5range_error@
CONST	SEGMENT
??_C@_0BJ@GKPOBPPI@GetMoverProp?5range_error@ DB 'GetMoverProp range_erro'
	DB	'r', 00H					; `string'
CONST	ENDS
;	COMDAT ??_C@_0BI@BEIFNGEL@GetItemProp?5range_error@
CONST	SEGMENT
??_C@_0BI@BEIFNGEL@GetItemProp?5range_error@ DB 'GetItemProp range_error', 00H ; `string'
CONST	ENDS
;	COMDAT ??_C@_0BM@HMFGHCP@?$CFs?5min?3?$CFd?0?5max?3?$CFd?0?5index?3?$CFd@
CONST	SEGMENT
??_C@_0BM@HMFGHCP@?$CFs?5min?3?$CFd?0?5max?3?$CFd?0?5index?3?$CFd@ DB '%s'
	DB	' min:%d, max:%d, index:%d', 00H		; `string'
CONST	ENDS
;	COMDAT ??_C@_0BB@GCADKGJO@map?1set?5too?5long@
CONST	SEGMENT
??_C@_0BB@GCADKGJO@map?1set?5too?5long@ DB 'map/set too long', 00H ; `string'
CONST	ENDS
;	COMDAT ??_C@_0BA@JFNIOLAK@string?5too?5long@
CONST	SEGMENT
??_C@_0BA@JFNIOLAK@string?5too?5long@ DB 'string too long', 00H ; `string'
CONST	ENDS
;	COMDAT __CT??_R0?AVbad_alloc@std@@@8??0bad_alloc@std@@QAE@ABV01@@Z12
xdata$x	SEGMENT
__CT??_R0?AVbad_alloc@std@@@8??0bad_alloc@std@@QAE@ABV01@@Z12 DD 010H
	DD	FLAT:??_R0?AVbad_alloc@std@@@8
	DD	00H
	DD	0ffffffffH
	ORG $+4
	DD	0cH
	DD	FLAT:??0bad_alloc@std@@QAE@ABV01@@Z
xdata$x	ENDS
;	COMDAT ??_R0?AVbad_alloc@std@@@8
data$r	SEGMENT
??_R0?AVbad_alloc@std@@@8 DD FLAT:??_7type_info@@6B@	; std::bad_alloc `RTTI Type Descriptor'
	DD	00H
	DB	'.?AVbad_alloc@std@@', 00H
data$r	ENDS
;	COMDAT __CT??_R0?AVbad_array_new_length@std@@@8??0bad_array_new_length@std@@QAE@ABV01@@Z12
xdata$x	SEGMENT
__CT??_R0?AVbad_array_new_length@std@@@8??0bad_array_new_length@std@@QAE@ABV01@@Z12 DD 00H
	DD	FLAT:??_R0?AVbad_array_new_length@std@@@8
	DD	00H
	DD	0ffffffffH
	ORG $+4
	DD	0cH
	DD	FLAT:??0bad_array_new_length@std@@QAE@ABV01@@Z
xdata$x	ENDS
;	COMDAT ??_R0?AVbad_array_new_length@std@@@8
data$r	SEGMENT
??_R0?AVbad_array_new_length@std@@@8 DD FLAT:??_7type_info@@6B@ ; std::bad_array_new_length `RTTI Type Descriptor'
	DD	00H
	DB	'.?AVbad_array_new_length@std@@', 00H
data$r	ENDS
;	COMDAT __CTA3?AVbad_array_new_length@std@@
xdata$x	SEGMENT
__CTA3?AVbad_array_new_length@std@@ DD 03H
	DD	FLAT:__CT??_R0?AVbad_array_new_length@std@@@8??0bad_array_new_length@std@@QAE@ABV01@@Z12
	DD	FLAT:__CT??_R0?AVbad_alloc@std@@@8??0bad_alloc@std@@QAE@ABV01@@Z12
	DD	FLAT:__CT??_R0?AVexception@std@@@8??0exception@std@@QAE@ABV01@@Z12
xdata$x	ENDS
;	COMDAT __TI3?AVbad_array_new_length@std@@
xdata$x	SEGMENT
__TI3?AVbad_array_new_length@std@@ DD 00H
	DD	FLAT:??1bad_array_new_length@std@@UAE@XZ
	DD	00H
	DD	FLAT:__CTA3?AVbad_array_new_length@std@@
xdata$x	ENDS
;	COMDAT __CT??_R0?AVexception@std@@@8??0exception@std@@QAE@ABV01@@Z12
xdata$x	SEGMENT
__CT??_R0?AVexception@std@@@8??0exception@std@@QAE@ABV01@@Z12 DD 00H
	DD	FLAT:??_R0?AVexception@std@@@8
	DD	00H
	DD	0ffffffffH
	ORG $+4
	DD	0cH
	DD	FLAT:??0exception@std@@QAE@ABV01@@Z
xdata$x	ENDS
;	COMDAT ??_R0?AVexception@std@@@8
data$r	SEGMENT
??_R0?AVexception@std@@@8 DD FLAT:??_7type_info@@6B@	; std::exception `RTTI Type Descriptor'
	DD	00H
	DB	'.?AVexception@std@@', 00H
data$r	ENDS
;	COMDAT ??_C@_0BF@KINCDENJ@bad?5array?5new?5length@
CONST	SEGMENT
??_C@_0BF@KINCDENJ@bad?5array?5new?5length@ DB 'bad array new length', 00H ; `string'
CONST	ENDS
;	COMDAT ??_7bad_array_new_length@std@@6B@
CONST	SEGMENT
??_7bad_array_new_length@std@@6B@ DD FLAT:??_R4bad_array_new_length@std@@6B@ ; std::bad_array_new_length::`vftable'
	DD	FLAT:??_Ebad_array_new_length@std@@UAEPAXI@Z
	DD	FLAT:?what@exception@std@@UBEPBDXZ
CONST	ENDS
;	COMDAT ??_7bad_alloc@std@@6B@
CONST	SEGMENT
??_7bad_alloc@std@@6B@ DD FLAT:??_R4bad_alloc@std@@6B@	; std::bad_alloc::`vftable'
	DD	FLAT:??_Ebad_alloc@std@@UAEPAXI@Z
	DD	FLAT:?what@exception@std@@UBEPBDXZ
CONST	ENDS
;	COMDAT ??_C@_0BC@EOODALEL@Unknown?5exception@
CONST	SEGMENT
??_C@_0BC@EOODALEL@Unknown?5exception@ DB 'Unknown exception', 00H ; `string'
CONST	ENDS
;	COMDAT ??_7exception@std@@6B@
CONST	SEGMENT
??_7exception@std@@6B@ DD FLAT:??_R4exception@std@@6B@	; std::exception::`vftable'
	DD	FLAT:??_Eexception@std@@UAEPAXI@Z
	DD	FLAT:?what@exception@std@@UBEPBDXZ
CONST	ENDS
;	COMDAT ??_C@_00CNPNBAHC@@
CONST	SEGMENT
??_C@_00CNPNBAHC@@ DB 00H				; `string'
CONST	ENDS
;	COMDAT ??_C@_02DPKJAMEF@?$CFd@
CONST	SEGMENT
??_C@_02DPKJAMEF@?$CFd@ DB '%d', 00H			; `string'
CONST	ENDS
;	COMDAT xdata$x
xdata$x	SEGMENT
__unwindtable$??$construct@U__SECRETROOM_TENDER@@ABU1@@?$_Default_allocator_traits@V?$allocator@U__SECRETROOM_TENDER@@@std@@@std@@SAXAAV?$allocator@U__SECRETROOM_TENDER@@@1@QAU__SECRETROOM_TENDER@@ABU3@@Z DD 0ffffffffH
	DD	FLAT:__unwindfunclet$??$construct@U__SECRETROOM_TENDER@@ABU1@@?$_Default_allocator_traits@V?$allocator@U__SECRETROOM_TENDER@@@std@@@std@@SAXAAV?$allocator@U__SECRETROOM_TENDER@@@1@QAU__SECRETROOM_TENDER@@ABU3@@Z$0
__ehfuncinfo$??$construct@U__SECRETROOM_TENDER@@ABU1@@?$_Default_allocator_traits@V?$allocator@U__SECRETROOM_TENDER@@@std@@@std@@SAXAAV?$allocator@U__SECRETROOM_TENDER@@@1@QAU__SECRETROOM_TENDER@@ABU3@@Z DD 019930522H
	DD	01H
	DD	FLAT:__unwindtable$??$construct@U__SECRETROOM_TENDER@@ABU1@@?$_Default_allocator_traits@V?$allocator@U__SECRETROOM_TENDER@@@std@@@std@@SAXAAV?$allocator@U__SECRETROOM_TENDER@@@1@QAU__SECRETROOM_TENDER@@ABU3@@Z
	DD	2 DUP(00H)
	DD	2 DUP(00H)
	DD	00H
	DD	01H
xdata$x	ENDS
;	COMDAT xdata$x
xdata$x	SEGMENT
__ehfuncinfo$??$_Freenode@V?$allocator@U?$_Tree_node@U?$pair@$$CBKV?$CStringT@DV?$StrTraitMFC@DV?$ChTraitsCRT@D@ATL@@@@@ATL@@@std@@PAX@std@@@std@@@?$_Tree_node@U?$pair@$$CBKV?$CStringT@DV?$StrTraitMFC@DV?$ChTraitsCRT@D@ATL@@@@@ATL@@@std@@PAX@std@@SAXAAV?$allocator@U?$_Tree_node@U?$pair@$$CBKV?$CStringT@DV?$StrTraitMFC@DV?$ChTraitsCRT@D@ATL@@@@@ATL@@@std@@PAX@std@@@1@PAU01@@Z DD 019930522H
	DD	00H
	DD	00H
	DD	2 DUP(00H)
	DD	2 DUP(00H)
	DD	00H
	DD	05H
xdata$x	ENDS
;	COMDAT xdata$x
xdata$x	SEGMENT
__unwindtable$??$?0U?$pair@KV?$CStringT@DV?$StrTraitMFC@DV?$ChTraitsCRT@D@ATL@@@@@ATL@@@std@@@?$_Tree_temp_node@V?$allocator@U?$_Tree_node@U?$pair@$$CBKV?$CStringT@DV?$StrTraitMFC@DV?$ChTraitsCRT@D@ATL@@@@@ATL@@@std@@PAX@std@@@std@@@std@@QAE@AAV?$allocator@U?$_Tree_node@U?$pair@$$CBKV?$CStringT@DV?$StrTraitMFC@DV?$ChTraitsCRT@D@ATL@@@@@ATL@@@std@@PAX@std@@@1@PAU?$_Tree_node@U?$pair@$$CBKV?$CStringT@DV?$StrTraitMFC@DV?$ChTraitsCRT@D@ATL@@@@@ATL@@@std@@PAX@1@$$QAU?$pair@KV?$CStringT@DV?$StrTraitMFC@DV?$ChTraitsCRT@D@ATL@@@@@ATL@@@1@@Z DD 0ffffffffH
	DD	FLAT:__unwindfunclet$??$?0U?$pair@KV?$CStringT@DV?$StrTraitMFC@DV?$ChTraitsCRT@D@ATL@@@@@ATL@@@std@@@?$_Tree_temp_node@V?$allocator@U?$_Tree_node@U?$pair@$$CBKV?$CStringT@DV?$StrTraitMFC@DV?$ChTraitsCRT@D@ATL@@@@@ATL@@@std@@PAX@std@@@std@@@std@@QAE@AAV?$allocator@U?$_Tree_node@U?$pair@$$CBKV?$CStringT@DV?$StrTraitMFC@DV?$ChTraitsCRT@D@ATL@@@@@ATL@@@std@@PAX@std@@@1@PAU?$_Tree_node@U?$pair@$$CBKV?$CStringT@DV?$StrTraitMFC@DV?$ChTraitsCRT@D@ATL@@@@@ATL@@@std@@PAX@1@$$QAU?$pair@KV?$CStringT@DV?$StrTraitMFC@DV?$ChTraitsCRT@D@ATL@@@@@ATL@@@1@@Z$1
	DD	0ffffffffH
	DD	FLAT:__unwindfunclet$??$?0U?$pair@KV?$CStringT@DV?$StrTraitMFC@DV?$ChTraitsCRT@D@ATL@@@@@ATL@@@std@@@?$_Tree_temp_node@V?$allocator@U?$_Tree_node@U?$pair@$$CBKV?$CStringT@DV?$StrTraitMFC@DV?$ChTraitsCRT@D@ATL@@@@@ATL@@@std@@PAX@std@@@std@@@std@@QAE@AAV?$allocator@U?$_Tree_node@U?$pair@$$CBKV?$CStringT@DV?$StrTraitMFC@DV?$ChTraitsCRT@D@ATL@@@@@ATL@@@std@@PAX@std@@@1@PAU?$_Tree_node@U?$pair@$$CBKV?$CStringT@DV?$StrTraitMFC@DV?$ChTraitsCRT@D@ATL@@@@@ATL@@@std@@PAX@1@$$QAU?$pair@KV?$CStringT@DV?$StrTraitMFC@DV?$ChTraitsCRT@D@ATL@@@@@ATL@@@1@@Z$0
__ehfuncinfo$??$?0U?$pair@KV?$CStringT@DV?$StrTraitMFC@DV?$ChTraitsCRT@D@ATL@@@@@ATL@@@std@@@?$_Tree_temp_node@V?$allocator@U?$_Tree_node@U?$pair@$$CBKV?$CStringT@DV?$StrTraitMFC@DV?$ChTraitsCRT@D@ATL@@@@@ATL@@@std@@PAX@std@@@std@@@std@@QAE@AAV?$allocator@U?$_Tree_node@U?$pair@$$CBKV?$CStringT@DV?$StrTraitMFC@DV?$ChTraitsCRT@D@ATL@@@@@ATL@@@std@@PAX@std@@@1@PAU?$_Tree_node@U?$pair@$$CBKV?$CStringT@DV?$StrTraitMFC@DV?$ChTraitsCRT@D@ATL@@@@@ATL@@@std@@PAX@1@$$QAU?$pair@KV?$CStringT@DV?$StrTraitMFC@DV?$ChTraitsCRT@D@ATL@@@@@ATL@@@1@@Z DD 019930522H
	DD	02H
	DD	FLAT:__unwindtable$??$?0U?$pair@KV?$CStringT@DV?$StrTraitMFC@DV?$ChTraitsCRT@D@ATL@@@@@ATL@@@std@@@?$_Tree_temp_node@V?$allocator@U?$_Tree_node@U?$pair@$$CBKV?$CStringT@DV?$StrTraitMFC@DV?$ChTraitsCRT@D@ATL@@@@@ATL@@@std@@PAX@std@@@std@@@std@@QAE@AAV?$allocator@U?$_Tree_node@U?$pair@$$CBKV?$CStringT@DV?$StrTraitMFC@DV?$ChTraitsCRT@D@ATL@@@@@ATL@@@std@@PAX@std@@@1@PAU?$_Tree_node@U?$pair@$$CBKV?$CStringT@DV?$StrTraitMFC@DV?$ChTraitsCRT@D@ATL@@@@@ATL@@@std@@PAX@1@$$QAU?$pair@KV?$CStringT@DV?$StrTraitMFC@DV?$ChTraitsCRT@D@ATL@@@@@ATL@@@1@@Z
	DD	2 DUP(00H)
	DD	2 DUP(00H)
	DD	00H
	DD	01H
xdata$x	ENDS
;	COMDAT xdata$x
xdata$x	SEGMENT
__ehfuncinfo$??1?$_Tree_temp_node@V?$allocator@U?$_Tree_node@U?$pair@$$CBKV?$CStringT@DV?$StrTraitMFC@DV?$ChTraitsCRT@D@ATL@@@@@ATL@@@std@@PAX@std@@@std@@@std@@QAE@XZ DD 019930522H
	DD	00H
	DD	00H
	DD	2 DUP(00H)
	DD	2 DUP(00H)
	DD	00H
	DD	05H
xdata$x	ENDS
;	COMDAT xdata$x
xdata$x	SEGMENT
__unwindtable$??0?$_Tree_temp_node_alloc@V?$allocator@U?$_Tree_node@U?$pair@$$CBKV?$CStringT@DV?$StrTraitMFC@DV?$ChTraitsCRT@D@ATL@@@@@ATL@@@std@@PAX@std@@@std@@@std@@QAE@AAV?$allocator@U?$_Tree_node@U?$pair@$$CBKV?$CStringT@DV?$StrTraitMFC@DV?$ChTraitsCRT@D@ATL@@@@@ATL@@@std@@PAX@std@@@1@@Z DD 0ffffffffH
	DD	FLAT:__unwindfunclet$??0?$_Tree_temp_node_alloc@V?$allocator@U?$_Tree_node@U?$pair@$$CBKV?$CStringT@DV?$StrTraitMFC@DV?$ChTraitsCRT@D@ATL@@@@@ATL@@@std@@PAX@std@@@std@@@std@@QAE@AAV?$allocator@U?$_Tree_node@U?$pair@$$CBKV?$CStringT@DV?$StrTraitMFC@DV?$ChTraitsCRT@D@ATL@@@@@ATL@@@std@@PAX@std@@@1@@Z$0
__ehfuncinfo$??0?$_Tree_temp_node_alloc@V?$allocator@U?$_Tree_node@U?$pair@$$CBKV?$CStringT@DV?$StrTraitMFC@DV?$ChTraitsCRT@D@ATL@@@@@ATL@@@std@@PAX@std@@@std@@@std@@QAE@AAV?$allocator@U?$_Tree_node@U?$pair@$$CBKV?$CStringT@DV?$StrTraitMFC@DV?$ChTraitsCRT@D@ATL@@@@@ATL@@@std@@PAX@std@@@1@@Z DD 019930522H
	DD	01H
	DD	FLAT:__unwindtable$??0?$_Tree_temp_node_alloc@V?$allocator@U?$_Tree_node@U?$pair@$$CBKV?$CStringT@DV?$StrTraitMFC@DV?$ChTraitsCRT@D@ATL@@@@@ATL@@@std@@PAX@std@@@std@@@std@@QAE@AAV?$allocator@U?$_Tree_node@U?$pair@$$CBKV?$CStringT@DV?$StrTraitMFC@DV?$ChTraitsCRT@D@ATL@@@@@ATL@@@std@@PAX@std@@@1@@Z
	DD	2 DUP(00H)
	DD	2 DUP(00H)
	DD	00H
	DD	01H
xdata$x	ENDS
;	COMDAT xdata$x
xdata$x	SEGMENT
__unwindtable$??$_Emplace_reallocate@ABU__GC1TO1TENDER@CGuildCombat1to1Mng@@@?$vector@U__GC1TO1TENDER@CGuildCombat1to1Mng@@V?$allocator@U__GC1TO1TENDER@CGuildCombat1to1Mng@@@std@@@std@@AAEPAU__GC1TO1TENDER@CGuildCombat1to1Mng@@QAU23@ABU23@@Z DD 0ffffffffH
	DD	FLAT:__unwindfunclet$??$_Emplace_reallocate@ABU__GC1TO1TENDER@CGuildCombat1to1Mng@@@?$vector@U__GC1TO1TENDER@CGuildCombat1to1Mng@@V?$allocator@U__GC1TO1TENDER@CGuildCombat1to1Mng@@@std@@@std@@AAEPAU__GC1TO1TENDER@CGuildCombat1to1Mng@@QAU23@ABU23@@Z$0
__ehfuncinfo$??$_Emplace_reallocate@ABU__GC1TO1TENDER@CGuildCombat1to1Mng@@@?$vector@U__GC1TO1TENDER@CGuildCombat1to1Mng@@V?$allocator@U__GC1TO1TENDER@CGuildCombat1to1Mng@@@std@@@std@@AAEPAU__GC1TO1TENDER@CGuildCombat1to1Mng@@QAU23@ABU23@@Z DD 019930522H
	DD	01H
	DD	FLAT:__unwindtable$??$_Emplace_reallocate@ABU__GC1TO1TENDER@CGuildCombat1to1Mng@@@?$vector@U__GC1TO1TENDER@CGuildCombat1to1Mng@@V?$allocator@U__GC1TO1TENDER@CGuildCombat1to1Mng@@@std@@@std@@AAEPAU__GC1TO1TENDER@CGuildCombat1to1Mng@@QAU23@ABU23@@Z
	DD	2 DUP(00H)
	DD	2 DUP(00H)
	DD	00H
	DD	01H
xdata$x	ENDS
;	COMDAT xdata$x
xdata$x	SEGMENT
__unwindtable$??$_Emplace_reallocate@ABU__SECRETROOM_TENDER@@@?$vector@U__SECRETROOM_TENDER@@V?$allocator@U__SECRETROOM_TENDER@@@std@@@std@@AAEPAU__SECRETROOM_TENDER@@QAU2@ABU2@@Z DD 0ffffffffH
	DD	FLAT:__unwindfunclet$??$_Emplace_reallocate@ABU__SECRETROOM_TENDER@@@?$vector@U__SECRETROOM_TENDER@@V?$allocator@U__SECRETROOM_TENDER@@@std@@@std@@AAEPAU__SECRETROOM_TENDER@@QAU2@ABU2@@Z$0
__ehfuncinfo$??$_Emplace_reallocate@ABU__SECRETROOM_TENDER@@@?$vector@U__SECRETROOM_TENDER@@V?$allocator@U__SECRETROOM_TENDER@@@std@@@std@@AAEPAU__SECRETROOM_TENDER@@QAU2@ABU2@@Z DD 019930522H
	DD	01H
	DD	FLAT:__unwindtable$??$_Emplace_reallocate@ABU__SECRETROOM_TENDER@@@?$vector@U__SECRETROOM_TENDER@@V?$allocator@U__SECRETROOM_TENDER@@@std@@@std@@AAEPAU__SECRETROOM_TENDER@@QAU2@ABU2@@Z
	DD	2 DUP(00H)
	DD	2 DUP(00H)
	DD	00H
	DD	01H
xdata$x	ENDS
;	COMDAT xdata$x
xdata$x	SEGMENT
__ehfuncinfo$??$_Erase_tree@V?$allocator@U?$_Tree_node@U?$pair@$$CBKV?$CStringT@DV?$StrTraitMFC@DV?$ChTraitsCRT@D@ATL@@@@@ATL@@@std@@PAX@std@@@std@@@?$_Tree_val@U?$_Tree_simple_types@U?$pair@$$CBKV?$CStringT@DV?$StrTraitMFC@DV?$ChTraitsCRT@D@ATL@@@@@ATL@@@std@@@std@@@std@@QAEXAAV?$allocator@U?$_Tree_node@U?$pair@$$CBKV?$CStringT@DV?$StrTraitMFC@DV?$ChTraitsCRT@D@ATL@@@@@ATL@@@std@@PAX@std@@@1@PAU?$_Tree_node@U?$pair@$$CBKV?$CStringT@DV?$StrTraitMFC@DV?$ChTraitsCRT@D@ATL@@@@@ATL@@@std@@PAX@1@@Z DD 019930522H
	DD	00H
	DD	00H
	DD	2 DUP(00H)
	DD	2 DUP(00H)
	DD	00H
	DD	05H
xdata$x	ENDS
;	COMDAT xdata$x
xdata$x	SEGMENT
__unwindtable$??$_Emplace@U?$pair@KV?$CStringT@DV?$StrTraitMFC@DV?$ChTraitsCRT@D@ATL@@@@@ATL@@@std@@@?$_Tree@V?$_Tmap_traits@KV?$CStringT@DV?$StrTraitMFC@DV?$ChTraitsCRT@D@ATL@@@@@ATL@@U?$less@K@std@@V?$allocator@U?$pair@$$CBKV?$CStringT@DV?$StrTraitMFC@DV?$ChTraitsCRT@D@ATL@@@@@ATL@@@std@@@4@$0A@@std@@@std@@IAE?AU?$pair@PAU?$_Tree_node@U?$pair@$$CBKV?$CStringT@DV?$StrTraitMFC@DV?$ChTraitsCRT@D@ATL@@@@@ATL@@@std@@PAX@std@@_N@1@$$QAU?$pair@KV?$CStringT@DV?$StrTraitMFC@DV?$ChTraitsCRT@D@ATL@@@@@ATL@@@1@@Z DD 0ffffffffH
	DD	FLAT:__unwindfunclet$??$_Emplace@U?$pair@KV?$CStringT@DV?$StrTraitMFC@DV?$ChTraitsCRT@D@ATL@@@@@ATL@@@std@@@?$_Tree@V?$_Tmap_traits@KV?$CStringT@DV?$StrTraitMFC@DV?$ChTraitsCRT@D@ATL@@@@@ATL@@U?$less@K@std@@V?$allocator@U?$pair@$$CBKV?$CStringT@DV?$StrTraitMFC@DV?$ChTraitsCRT@D@ATL@@@@@ATL@@@std@@@4@$0A@@std@@@std@@IAE?AU?$pair@PAU?$_Tree_node@U?$pair@$$CBKV?$CStringT@DV?$StrTraitMFC@DV?$ChTraitsCRT@D@ATL@@@@@ATL@@@std@@PAX@std@@_N@1@$$QAU?$pair@KV?$CStringT@DV?$StrTraitMFC@DV?$ChTraitsCRT@D@ATL@@@@@ATL@@@1@@Z$2
	DD	0ffffffffH
	DD	FLAT:__unwindfunclet$??$_Emplace@U?$pair@KV?$CStringT@DV?$StrTraitMFC@DV?$ChTraitsCRT@D@ATL@@@@@ATL@@@std@@@?$_Tree@V?$_Tmap_traits@KV?$CStringT@DV?$StrTraitMFC@DV?$ChTraitsCRT@D@ATL@@@@@ATL@@U?$less@K@std@@V?$allocator@U?$pair@$$CBKV?$CStringT@DV?$StrTraitMFC@DV?$ChTraitsCRT@D@ATL@@@@@ATL@@@std@@@4@$0A@@std@@@std@@IAE?AU?$pair@PAU?$_Tree_node@U?$pair@$$CBKV?$CStringT@DV?$StrTraitMFC@DV?$ChTraitsCRT@D@ATL@@@@@ATL@@@std@@PAX@std@@_N@1@$$QAU?$pair@KV?$CStringT@DV?$StrTraitMFC@DV?$ChTraitsCRT@D@ATL@@@@@ATL@@@1@@Z$1
__ehfuncinfo$??$_Emplace@U?$pair@KV?$CStringT@DV?$StrTraitMFC@DV?$ChTraitsCRT@D@ATL@@@@@ATL@@@std@@@?$_Tree@V?$_Tmap_traits@KV?$CStringT@DV?$StrTraitMFC@DV?$ChTraitsCRT@D@ATL@@@@@ATL@@U?$less@K@std@@V?$allocator@U?$pair@$$CBKV?$CStringT@DV?$StrTraitMFC@DV?$ChTraitsCRT@D@ATL@@@@@ATL@@@std@@@4@$0A@@std@@@std@@IAE?AU?$pair@PAU?$_Tree_node@U?$pair@$$CBKV?$CStringT@DV?$StrTraitMFC@DV?$ChTraitsCRT@D@ATL@@@@@ATL@@@std@@PAX@std@@_N@1@$$QAU?$pair@KV?$CStringT@DV?$StrTraitMFC@DV?$ChTraitsCRT@D@ATL@@@@@ATL@@@1@@Z DD 019930522H
	DD	02H
	DD	FLAT:__unwindtable$??$_Emplace@U?$pair@KV?$CStringT@DV?$StrTraitMFC@DV?$ChTraitsCRT@D@ATL@@@@@ATL@@@std@@@?$_Tree@V?$_Tmap_traits@KV?$CStringT@DV?$StrTraitMFC@DV?$ChTraitsCRT@D@ATL@@@@@ATL@@U?$less@K@std@@V?$allocator@U?$pair@$$CBKV?$CStringT@DV?$StrTraitMFC@DV?$ChTraitsCRT@D@ATL@@@@@ATL@@@std@@@4@$0A@@std@@@std@@IAE?AU?$pair@PAU?$_Tree_node@U?$pair@$$CBKV?$CStringT@DV?$StrTraitMFC@DV?$ChTraitsCRT@D@ATL@@@@@ATL@@@std@@PAX@std@@_N@1@$$QAU?$pair@KV?$CStringT@DV?$StrTraitMFC@DV?$ChTraitsCRT@D@ATL@@@@@ATL@@@1@@Z
	DD	2 DUP(00H)
	DD	2 DUP(00H)
	DD	00H
	DD	01H
xdata$x	ENDS
;	COMDAT xdata$x
xdata$x	SEGMENT
__unwindtable$??$?0U?$pair@$$CBKP8CDPDatabaseClient@@AEXAAVCAr@@KK@Z@std@@@?$_Tree_temp_node@V?$allocator@U?$_Tree_node@U?$pair@$$CBKP8CDPDatabaseClient@@AEXAAVCAr@@KK@Z@std@@PAX@std@@@std@@@std@@QAE@AAV?$allocator@U?$_Tree_node@U?$pair@$$CBKP8CDPDatabaseClient@@AEXAAVCAr@@KK@Z@std@@PAX@std@@@1@PAU?$_Tree_node@U?$pair@$$CBKP8CDPDatabaseClient@@AEXAAVCAr@@KK@Z@std@@PAX@1@$$QAU?$pair@$$CBKP8CDPDatabaseClient@@AEXAAVCAr@@KK@Z@1@@Z DD 0ffffffffH
	DD	FLAT:__unwindfunclet$??$?0U?$pair@$$CBKP8CDPDatabaseClient@@AEXAAVCAr@@KK@Z@std@@@?$_Tree_temp_node@V?$allocator@U?$_Tree_node@U?$pair@$$CBKP8CDPDatabaseClient@@AEXAAVCAr@@KK@Z@std@@PAX@std@@@std@@@std@@QAE@AAV?$allocator@U?$_Tree_node@U?$pair@$$CBKP8CDPDatabaseClient@@AEXAAVCAr@@KK@Z@std@@PAX@std@@@1@PAU?$_Tree_node@U?$pair@$$CBKP8CDPDatabaseClient@@AEXAAVCAr@@KK@Z@std@@PAX@1@$$QAU?$pair@$$CBKP8CDPDatabaseClient@@AEXAAVCAr@@KK@Z@1@@Z$1
__ehfuncinfo$??$?0U?$pair@$$CBKP8CDPDatabaseClient@@AEXAAVCAr@@KK@Z@std@@@?$_Tree_temp_node@V?$allocator@U?$_Tree_node@U?$pair@$$CBKP8CDPDatabaseClient@@AEXAAVCAr@@KK@Z@std@@PAX@std@@@std@@@std@@QAE@AAV?$allocator@U?$_Tree_node@U?$pair@$$CBKP8CDPDatabaseClient@@AEXAAVCAr@@KK@Z@std@@PAX@std@@@1@PAU?$_Tree_node@U?$pair@$$CBKP8CDPDatabaseClient@@AEXAAVCAr@@KK@Z@std@@PAX@1@$$QAU?$pair@$$CBKP8CDPDatabaseClient@@AEXAAVCAr@@KK@Z@1@@Z DD 019930522H
	DD	01H
	DD	FLAT:__unwindtable$??$?0U?$pair@$$CBKP8CDPDatabaseClient@@AEXAAVCAr@@KK@Z@std@@@?$_Tree_temp_node@V?$allocator@U?$_Tree_node@U?$pair@$$CBKP8CDPDatabaseClient@@AEXAAVCAr@@KK@Z@std@@PAX@std@@@std@@@std@@QAE@AAV?$allocator@U?$_Tree_node@U?$pair@$$CBKP8CDPDatabaseClient@@AEXAAVCAr@@KK@Z@std@@PAX@std@@@1@PAU?$_Tree_node@U?$pair@$$CBKP8CDPDatabaseClient@@AEXAAVCAr@@KK@Z@std@@PAX@1@$$QAU?$pair@$$CBKP8CDPDatabaseClient@@AEXAAVCAr@@KK@Z@1@@Z
	DD	2 DUP(00H)
	DD	2 DUP(00H)
	DD	00H
	DD	01H
xdata$x	ENDS
;	COMDAT xdata$x
xdata$x	SEGMENT
__unwindtable$??0?$_Tree_temp_node_alloc@V?$allocator@U?$_Tree_node@U?$pair@$$CBKP8CDPDatabaseClient@@AEXAAVCAr@@KK@Z@std@@PAX@std@@@std@@@std@@QAE@AAV?$allocator@U?$_Tree_node@U?$pair@$$CBKP8CDPDatabaseClient@@AEXAAVCAr@@KK@Z@std@@PAX@std@@@1@@Z DD 0ffffffffH
	DD	FLAT:__unwindfunclet$??0?$_Tree_temp_node_alloc@V?$allocator@U?$_Tree_node@U?$pair@$$CBKP8CDPDatabaseClient@@AEXAAVCAr@@KK@Z@std@@PAX@std@@@std@@@std@@QAE@AAV?$allocator@U?$_Tree_node@U?$pair@$$CBKP8CDPDatabaseClient@@AEXAAVCAr@@KK@Z@std@@PAX@std@@@1@@Z$0
__ehfuncinfo$??0?$_Tree_temp_node_alloc@V?$allocator@U?$_Tree_node@U?$pair@$$CBKP8CDPDatabaseClient@@AEXAAVCAr@@KK@Z@std@@PAX@std@@@std@@@std@@QAE@AAV?$allocator@U?$_Tree_node@U?$pair@$$CBKP8CDPDatabaseClient@@AEXAAVCAr@@KK@Z@std@@PAX@std@@@1@@Z DD 019930522H
	DD	01H
	DD	FLAT:__unwindtable$??0?$_Tree_temp_node_alloc@V?$allocator@U?$_Tree_node@U?$pair@$$CBKP8CDPDatabaseClient@@AEXAAVCAr@@KK@Z@std@@PAX@std@@@std@@@std@@QAE@AAV?$allocator@U?$_Tree_node@U?$pair@$$CBKP8CDPDatabaseClient@@AEXAAVCAr@@KK@Z@std@@PAX@std@@@1@@Z
	DD	2 DUP(00H)
	DD	2 DUP(00H)
	DD	00H
	DD	01H
xdata$x	ENDS
;	COMDAT xdata$x
xdata$x	SEGMENT
__unwindtable$??$emplace@U?$pair@KV?$CStringT@DV?$StrTraitMFC@DV?$ChTraitsCRT@D@ATL@@@@@ATL@@@std@@@?$_Tree@V?$_Tmap_traits@KV?$CStringT@DV?$StrTraitMFC@DV?$ChTraitsCRT@D@ATL@@@@@ATL@@U?$less@K@std@@V?$allocator@U?$pair@$$CBKV?$CStringT@DV?$StrTraitMFC@DV?$ChTraitsCRT@D@ATL@@@@@ATL@@@std@@@4@$0A@@std@@@std@@QAE?AU?$pair@V?$_Tree_iterator@V?$_Tree_val@U?$_Tree_simple_types@U?$pair@$$CBKV?$CStringT@DV?$StrTraitMFC@DV?$ChTraitsCRT@D@ATL@@@@@ATL@@@std@@@std@@@std@@@std@@_N@1@$$QAU?$pair@KV?$CStringT@DV?$StrTraitMFC@DV?$ChTraitsCRT@D@ATL@@@@@ATL@@@1@@Z DD 0ffffffffH
	DD	FLAT:__unwindfunclet$??$emplace@U?$pair@KV?$CStringT@DV?$StrTraitMFC@DV?$ChTraitsCRT@D@ATL@@@@@ATL@@@std@@@?$_Tree@V?$_Tmap_traits@KV?$CStringT@DV?$StrTraitMFC@DV?$ChTraitsCRT@D@ATL@@@@@ATL@@U?$less@K@std@@V?$allocator@U?$pair@$$CBKV?$CStringT@DV?$StrTraitMFC@DV?$ChTraitsCRT@D@ATL@@@@@ATL@@@std@@@4@$0A@@std@@@std@@QAE?AU?$pair@V?$_Tree_iterator@V?$_Tree_val@U?$_Tree_simple_types@U?$pair@$$CBKV?$CStringT@DV?$StrTraitMFC@DV?$ChTraitsCRT@D@ATL@@@@@ATL@@@std@@@std@@@std@@@std@@_N@1@$$QAU?$pair@KV?$CStringT@DV?$StrTraitMFC@DV?$ChTraitsCRT@D@ATL@@@@@ATL@@@1@@Z$2
	DD	0ffffffffH
	DD	FLAT:__unwindfunclet$??$emplace@U?$pair@KV?$CStringT@DV?$StrTraitMFC@DV?$ChTraitsCRT@D@ATL@@@@@ATL@@@std@@@?$_Tree@V?$_Tmap_traits@KV?$CStringT@DV?$StrTraitMFC@DV?$ChTraitsCRT@D@ATL@@@@@ATL@@U?$less@K@std@@V?$allocator@U?$pair@$$CBKV?$CStringT@DV?$StrTraitMFC@DV?$ChTraitsCRT@D@ATL@@@@@ATL@@@std@@@4@$0A@@std@@@std@@QAE?AU?$pair@V?$_Tree_iterator@V?$_Tree_val@U?$_Tree_simple_types@U?$pair@$$CBKV?$CStringT@DV?$StrTraitMFC@DV?$ChTraitsCRT@D@ATL@@@@@ATL@@@std@@@std@@@std@@@std@@_N@1@$$QAU?$pair@KV?$CStringT@DV?$StrTraitMFC@DV?$ChTraitsCRT@D@ATL@@@@@ATL@@@1@@Z$1
__ehfuncinfo$??$emplace@U?$pair@KV?$CStringT@DV?$StrTraitMFC@DV?$ChTraitsCRT@D@ATL@@@@@ATL@@@std@@@?$_Tree@V?$_Tmap_traits@KV?$CStringT@DV?$StrTraitMFC@DV?$ChTraitsCRT@D@ATL@@@@@ATL@@U?$less@K@std@@V?$allocator@U?$pair@$$CBKV?$CStringT@DV?$StrTraitMFC@DV?$ChTraitsCRT@D@ATL@@@@@ATL@@@std@@@4@$0A@@std@@@std@@QAE?AU?$pair@V?$_Tree_iterator@V?$_Tree_val@U?$_Tree_simple_types@U?$pair@$$CBKV?$CStringT@DV?$StrTraitMFC@DV?$ChTraitsCRT@D@ATL@@@@@ATL@@@std@@@std@@@std@@@std@@_N@1@$$QAU?$pair@KV?$CStringT@DV?$StrTraitMFC@DV?$ChTraitsCRT@D@ATL@@@@@ATL@@@1@@Z DD 019930522H
	DD	02H
	DD	FLAT:__unwindtable$??$emplace@U?$pair@KV?$CStringT@DV?$StrTraitMFC@DV?$ChTraitsCRT@D@ATL@@@@@ATL@@@std@@@?$_Tree@V?$_Tmap_traits@KV?$CStringT@DV?$StrTraitMFC@DV?$ChTraitsCRT@D@ATL@@@@@ATL@@U?$less@K@std@@V?$allocator@U?$pair@$$CBKV?$CStringT@DV?$StrTraitMFC@DV?$ChTraitsCRT@D@ATL@@@@@ATL@@@std@@@4@$0A@@std@@@std@@QAE?AU?$pair@V?$_Tree_iterator@V?$_Tree_val@U?$_Tree_simple_types@U?$pair@$$CBKV?$CStringT@DV?$StrTraitMFC@DV?$ChTraitsCRT@D@ATL@@@@@ATL@@@std@@@std@@@std@@@std@@_N@1@$$QAU?$pair@KV?$CStringT@DV?$StrTraitMFC@DV?$ChTraitsCRT@D@ATL@@@@@ATL@@@1@@Z
	DD	2 DUP(00H)
	DD	2 DUP(00H)
	DD	00H
	DD	01H
xdata$x	ENDS
;	COMDAT xdata$x
xdata$x	SEGMENT
__unwindtable$??$_Emplace@U?$pair@$$CBKP8CDPDatabaseClient@@AEXAAVCAr@@KK@Z@std@@@?$_Tree@V?$_Tmap_traits@KP8CDPDatabaseClient@@AEXAAVCAr@@KK@ZU?$less@K@std@@V?$allocator@U?$pair@$$CBKP8CDPDatabaseClient@@AEXAAVCAr@@KK@Z@std@@@4@$0A@@std@@@std@@IAE?AU?$pair@PAU?$_Tree_node@U?$pair@$$CBKP8CDPDatabaseClient@@AEXAAVCAr@@KK@Z@std@@PAX@std@@_N@1@$$QAU?$pair@$$CBKP8CDPDatabaseClient@@AEXAAVCAr@@KK@Z@1@@Z DD 0ffffffffH
	DD	FLAT:__unwindfunclet$??$_Emplace@U?$pair@$$CBKP8CDPDatabaseClient@@AEXAAVCAr@@KK@Z@std@@@?$_Tree@V?$_Tmap_traits@KP8CDPDatabaseClient@@AEXAAVCAr@@KK@ZU?$less@K@std@@V?$allocator@U?$pair@$$CBKP8CDPDatabaseClient@@AEXAAVCAr@@KK@Z@std@@@4@$0A@@std@@@std@@IAE?AU?$pair@PAU?$_Tree_node@U?$pair@$$CBKP8CDPDatabaseClient@@AEXAAVCAr@@KK@Z@std@@PAX@std@@_N@1@$$QAU?$pair@$$CBKP8CDPDatabaseClient@@AEXAAVCAr@@KK@Z@1@@Z$2
__ehfuncinfo$??$_Emplace@U?$pair@$$CBKP8CDPDatabaseClient@@AEXAAVCAr@@KK@Z@std@@@?$_Tree@V?$_Tmap_traits@KP8CDPDatabaseClient@@AEXAAVCAr@@KK@ZU?$less@K@std@@V?$allocator@U?$pair@$$CBKP8CDPDatabaseClient@@AEXAAVCAr@@KK@Z@std@@@4@$0A@@std@@@std@@IAE?AU?$pair@PAU?$_Tree_node@U?$pair@$$CBKP8CDPDatabaseClient@@AEXAAVCAr@@KK@Z@std@@PAX@std@@_N@1@$$QAU?$pair@$$CBKP8CDPDatabaseClient@@AEXAAVCAr@@KK@Z@1@@Z DD 019930522H
	DD	01H
	DD	FLAT:__unwindtable$??$_Emplace@U?$pair@$$CBKP8CDPDatabaseClient@@AEXAAVCAr@@KK@Z@std@@@?$_Tree@V?$_Tmap_traits@KP8CDPDatabaseClient@@AEXAAVCAr@@KK@ZU?$less@K@std@@V?$allocator@U?$pair@$$CBKP8CDPDatabaseClient@@AEXAAVCAr@@KK@Z@std@@@4@$0A@@std@@@std@@IAE?AU?$pair@PAU?$_Tree_node@U?$pair@$$CBKP8CDPDatabaseClient@@AEXAAVCAr@@KK@Z@std@@PAX@std@@_N@1@$$QAU?$pair@$$CBKP8CDPDatabaseClient@@AEXAAVCAr@@KK@Z@1@@Z
	DD	2 DUP(00H)
	DD	2 DUP(00H)
	DD	00H
	DD	01H
xdata$x	ENDS
;	COMDAT xdata$x
xdata$x	SEGMENT
__unwindtable$??$insert@U?$pair@KV?$CStringT@DV?$StrTraitMFC@DV?$ChTraitsCRT@D@ATL@@@@@ATL@@@std@@$0A@@?$map@KV?$CStringT@DV?$StrTraitMFC@DV?$ChTraitsCRT@D@ATL@@@@@ATL@@U?$less@K@std@@V?$allocator@U?$pair@$$CBKV?$CStringT@DV?$StrTraitMFC@DV?$ChTraitsCRT@D@ATL@@@@@ATL@@@std@@@4@@std@@QAE?AU?$pair@V?$_Tree_iterator@V?$_Tree_val@U?$_Tree_simple_types@U?$pair@$$CBKV?$CStringT@DV?$StrTraitMFC@DV?$ChTraitsCRT@D@ATL@@@@@ATL@@@std@@@std@@@std@@@std@@_N@1@$$QAU?$pair@KV?$CStringT@DV?$StrTraitMFC@DV?$ChTraitsCRT@D@ATL@@@@@ATL@@@1@@Z DD 0ffffffffH
	DD	FLAT:__unwindfunclet$??$insert@U?$pair@KV?$CStringT@DV?$StrTraitMFC@DV?$ChTraitsCRT@D@ATL@@@@@ATL@@@std@@$0A@@?$map@KV?$CStringT@DV?$StrTraitMFC@DV?$ChTraitsCRT@D@ATL@@@@@ATL@@U?$less@K@std@@V?$allocator@U?$pair@$$CBKV?$CStringT@DV?$StrTraitMFC@DV?$ChTraitsCRT@D@ATL@@@@@ATL@@@std@@@4@@std@@QAE?AU?$pair@V?$_Tree_iterator@V?$_Tree_val@U?$_Tree_simple_types@U?$pair@$$CBKV?$CStringT@DV?$StrTraitMFC@DV?$ChTraitsCRT@D@ATL@@@@@ATL@@@std@@@std@@@std@@@std@@_N@1@$$QAU?$pair@KV?$CStringT@DV?$StrTraitMFC@DV?$ChTraitsCRT@D@ATL@@@@@ATL@@@1@@Z$2
	DD	0ffffffffH
	DD	FLAT:__unwindfunclet$??$insert@U?$pair@KV?$CStringT@DV?$StrTraitMFC@DV?$ChTraitsCRT@D@ATL@@@@@ATL@@@std@@$0A@@?$map@KV?$CStringT@DV?$StrTraitMFC@DV?$ChTraitsCRT@D@ATL@@@@@ATL@@U?$less@K@std@@V?$allocator@U?$pair@$$CBKV?$CStringT@DV?$StrTraitMFC@DV?$ChTraitsCRT@D@ATL@@@@@ATL@@@std@@@4@@std@@QAE?AU?$pair@V?$_Tree_iterator@V?$_Tree_val@U?$_Tree_simple_types@U?$pair@$$CBKV?$CStringT@DV?$StrTraitMFC@DV?$ChTraitsCRT@D@ATL@@@@@ATL@@@std@@@std@@@std@@@std@@_N@1@$$QAU?$pair@KV?$CStringT@DV?$StrTraitMFC@DV?$ChTraitsCRT@D@ATL@@@@@ATL@@@1@@Z$1
__ehfuncinfo$??$insert@U?$pair@KV?$CStringT@DV?$StrTraitMFC@DV?$ChTraitsCRT@D@ATL@@@@@ATL@@@std@@$0A@@?$map@KV?$CStringT@DV?$StrTraitMFC@DV?$ChTraitsCRT@D@ATL@@@@@ATL@@U?$less@K@std@@V?$allocator@U?$pair@$$CBKV?$CStringT@DV?$StrTraitMFC@DV?$ChTraitsCRT@D@ATL@@@@@ATL@@@std@@@4@@std@@QAE?AU?$pair@V?$_Tree_iterator@V?$_Tree_val@U?$_Tree_simple_types@U?$pair@$$CBKV?$CStringT@DV?$StrTraitMFC@DV?$ChTraitsCRT@D@ATL@@@@@ATL@@@std@@@std@@@std@@@std@@_N@1@$$QAU?$pair@KV?$CStringT@DV?$StrTraitMFC@DV?$ChTraitsCRT@D@ATL@@@@@ATL@@@1@@Z DD 019930522H
	DD	02H
	DD	FLAT:__unwindtable$??$insert@U?$pair@KV?$CStringT@DV?$StrTraitMFC@DV?$ChTraitsCRT@D@ATL@@@@@ATL@@@std@@$0A@@?$map@KV?$CStringT@DV?$StrTraitMFC@DV?$ChTraitsCRT@D@ATL@@@@@ATL@@U?$less@K@std@@V?$allocator@U?$pair@$$CBKV?$CStringT@DV?$StrTraitMFC@DV?$ChTraitsCRT@D@ATL@@@@@ATL@@@std@@@4@@std@@QAE?AU?$pair@V?$_Tree_iterator@V?$_Tree_val@U?$_Tree_simple_types@U?$pair@$$CBKV?$CStringT@DV?$StrTraitMFC@DV?$ChTraitsCRT@D@ATL@@@@@ATL@@@std@@@std@@@std@@@std@@_N@1@$$QAU?$pair@KV?$CStringT@DV?$StrTraitMFC@DV?$ChTraitsCRT@D@ATL@@@@@ATL@@@1@@Z
	DD	2 DUP(00H)
	DD	2 DUP(00H)
	DD	00H
	DD	01H
xdata$x	ENDS
;	COMDAT xdata$x
xdata$x	SEGMENT
__ehfuncinfo$??1?$pair@KV?$CStringT@DV?$StrTraitMFC@DV?$ChTraitsCRT@D@ATL@@@@@ATL@@@std@@QAE@XZ DD 019930522H
	DD	00H
	DD	00H
	DD	2 DUP(00H)
	DD	2 DUP(00H)
	DD	00H
	DD	05H
xdata$x	ENDS
;	COMDAT xdata$x
xdata$x	SEGMENT
__ehfuncinfo$??_G?$pair@$$CBKV?$CStringT@DV?$StrTraitMFC@DV?$ChTraitsCRT@D@ATL@@@@@ATL@@@std@@QAEPAXI@Z DD 019930522H
	DD	00H
	DD	00H
	DD	2 DUP(00H)
	DD	2 DUP(00H)
	DD	00H
	DD	05H
xdata$x	ENDS
;	COMDAT xdata$x
xdata$x	SEGMENT
__ehfuncinfo$??1?$pair@$$CBKV?$CStringT@DV?$StrTraitMFC@DV?$ChTraitsCRT@D@ATL@@@@@ATL@@@std@@QAE@XZ DD 019930522H
	DD	00H
	DD	00H
	DD	2 DUP(00H)
	DD	2 DUP(00H)
	DD	00H
	DD	05H
xdata$x	ENDS
;	COMDAT xdata$x
xdata$x	SEGMENT
__unwindtable$??$insert@$0A@$0A@@?$_Tree@V?$_Tmap_traits@KP8CDPDatabaseClient@@AEXAAVCAr@@KK@ZU?$less@K@std@@V?$allocator@U?$pair@$$CBKP8CDPDatabaseClient@@AEXAAVCAr@@KK@Z@std@@@4@$0A@@std@@@std@@QAE?AU?$pair@V?$_Tree_iterator@V?$_Tree_val@U?$_Tree_simple_types@U?$pair@$$CBKP8CDPDatabaseClient@@AEXAAVCAr@@KK@Z@std@@@std@@@std@@@std@@_N@1@$$QAU?$pair@$$CBKP8CDPDatabaseClient@@AEXAAVCAr@@KK@Z@1@@Z DD 0ffffffffH
	DD	FLAT:__unwindfunclet$??$insert@$0A@$0A@@?$_Tree@V?$_Tmap_traits@KP8CDPDatabaseClient@@AEXAAVCAr@@KK@ZU?$less@K@std@@V?$allocator@U?$pair@$$CBKP8CDPDatabaseClient@@AEXAAVCAr@@KK@Z@std@@@4@$0A@@std@@@std@@QAE?AU?$pair@V?$_Tree_iterator@V?$_Tree_val@U?$_Tree_simple_types@U?$pair@$$CBKP8CDPDatabaseClient@@AEXAAVCAr@@KK@Z@std@@@std@@@std@@@std@@_N@1@$$QAU?$pair@$$CBKP8CDPDatabaseClient@@AEXAAVCAr@@KK@Z@1@@Z$2
__ehfuncinfo$??$insert@$0A@$0A@@?$_Tree@V?$_Tmap_traits@KP8CDPDatabaseClient@@AEXAAVCAr@@KK@ZU?$less@K@std@@V?$allocator@U?$pair@$$CBKP8CDPDatabaseClient@@AEXAAVCAr@@KK@Z@std@@@4@$0A@@std@@@std@@QAE?AU?$pair@V?$_Tree_iterator@V?$_Tree_val@U?$_Tree_simple_types@U?$pair@$$CBKP8CDPDatabaseClient@@AEXAAVCAr@@KK@Z@std@@@std@@@std@@@std@@_N@1@$$QAU?$pair@$$CBKP8CDPDatabaseClient@@AEXAAVCAr@@KK@Z@1@@Z DD 019930522H
	DD	01H
	DD	FLAT:__unwindtable$??$insert@$0A@$0A@@?$_Tree@V?$_Tmap_traits@KP8CDPDatabaseClient@@AEXAAVCAr@@KK@ZU?$less@K@std@@V?$allocator@U?$pair@$$CBKP8CDPDatabaseClient@@AEXAAVCAr@@KK@Z@std@@@4@$0A@@std@@@std@@QAE?AU?$pair@V?$_Tree_iterator@V?$_Tree_val@U?$_Tree_simple_types@U?$pair@$$CBKP8CDPDatabaseClient@@AEXAAVCAr@@KK@Z@std@@@std@@@std@@@std@@_N@1@$$QAU?$pair@$$CBKP8CDPDatabaseClient@@AEXAAVCAr@@KK@Z@1@@Z
	DD	2 DUP(00H)
	DD	2 DUP(00H)
	DD	00H
	DD	01H
xdata$x	ENDS
;	COMDAT xdata$x
xdata$x	SEGMENT
__ehfuncinfo$??1_QUIZLIST@CQuiz@@QAE@XZ DD 019930522H
	DD	00H
	DD	00H
	DD	2 DUP(00H)
	DD	2 DUP(00H)
	DD	00H
	DD	05H
xdata$x	ENDS
;	COMDAT xdata$x
xdata$x	SEGMENT
__ehfuncinfo$??0_QUIZLIST@CQuiz@@QAE@XZ DD 019930522H
	DD	00H
	DD	00H
	DD	2 DUP(00H)
	DD	2 DUP(00H)
	DD	00H
	DD	05H
xdata$x	ENDS
;	COMDAT xdata$x
xdata$x	SEGMENT
__unwindtable$?SendUpdateCampusPoint@CDPDatabaseClient@@QAEXKHHD@Z DD 0ffffffffH
	DD	FLAT:__unwindfunclet$?SendUpdateCampusPoint@CDPDatabaseClient@@QAEXKHHD@Z$0
__ehfuncinfo$?SendUpdateCampusPoint@CDPDatabaseClient@@QAEXKHHD@Z DD 019930522H
	DD	01H
	DD	FLAT:__unwindtable$?SendUpdateCampusPoint@CDPDatabaseClient@@QAEXKHHD@Z
	DD	2 DUP(00H)
	DD	2 DUP(00H)
	DD	00H
	DD	01H
xdata$x	ENDS
;	COMDAT xdata$x
xdata$x	SEGMENT
__unwindtable$?SendRemoveCampusMember@CDPDatabaseClient@@QAEXKK@Z DD 0ffffffffH
	DD	FLAT:__unwindfunclet$?SendRemoveCampusMember@CDPDatabaseClient@@QAEXKK@Z$0
__ehfuncinfo$?SendRemoveCampusMember@CDPDatabaseClient@@QAEXKK@Z DD 019930522H
	DD	01H
	DD	FLAT:__unwindtable$?SendRemoveCampusMember@CDPDatabaseClient@@QAEXKK@Z
	DD	2 DUP(00H)
	DD	2 DUP(00H)
	DD	00H
	DD	01H
xdata$x	ENDS
;	COMDAT xdata$x
xdata$x	SEGMENT
__unwindtable$?SendAddCampusMember@CDPDatabaseClient@@QAEXKHKH@Z DD 0ffffffffH
	DD	FLAT:__unwindfunclet$?SendAddCampusMember@CDPDatabaseClient@@QAEXKHKH@Z$0
__ehfuncinfo$?SendAddCampusMember@CDPDatabaseClient@@QAEXKHKH@Z DD 019930522H
	DD	01H
	DD	FLAT:__unwindtable$?SendAddCampusMember@CDPDatabaseClient@@QAEXKHKH@Z
	DD	2 DUP(00H)
	DD	2 DUP(00H)
	DD	00H
	DD	01H
xdata$x	ENDS
;	COMDAT xdata$x
xdata$x	SEGMENT
__unwindtable$?SendLogGuildFurniture@CDPDatabaseClient@@QAEXKAAUGuildHouse_Furniture_Info@CGuildHouseBase@@D@Z DD 0ffffffffH
	DD	FLAT:__unwindfunclet$?SendLogGuildFurniture@CDPDatabaseClient@@QAEXKAAUGuildHouse_Furniture_Info@CGuildHouseBase@@D@Z$0
__ehfuncinfo$?SendLogGuildFurniture@CDPDatabaseClient@@QAEXKAAUGuildHouse_Furniture_Info@CGuildHouseBase@@D@Z DD 019930522H
	DD	01H
	DD	FLAT:__unwindtable$?SendLogGuildFurniture@CDPDatabaseClient@@QAEXKAAUGuildHouse_Furniture_Info@CGuildHouseBase@@D@Z
	DD	2 DUP(00H)
	DD	2 DUP(00H)
	DD	00H
	DD	01H
xdata$x	ENDS
;	COMDAT xdata$x
xdata$x	SEGMENT
__unwindtable$?SendErrorLogToDB@CDPDatabaseClient@@QAEXPAVCUser@@DPBD@Z DD 0ffffffffH
	DD	FLAT:__unwindfunclet$?SendErrorLogToDB@CDPDatabaseClient@@QAEXPAVCUser@@DPBD@Z$0
__ehfuncinfo$?SendErrorLogToDB@CDPDatabaseClient@@QAEXPAVCUser@@DPBD@Z DD 019930522H
	DD	01H
	DD	FLAT:__unwindtable$?SendErrorLogToDB@CDPDatabaseClient@@QAEXPAVCUser@@DPBD@Z
	DD	2 DUP(00H)
	DD	2 DUP(00H)
	DD	00H
	DD	01H
xdata$x	ENDS
;	COMDAT xdata$x
xdata$x	SEGMENT
__unwindtable$?SendPostPrizeItem@CDPDatabaseClient@@QAEXKKH@Z DD 0ffffffffH
	DD	FLAT:__unwindfunclet$?SendPostPrizeItem@CDPDatabaseClient@@QAEXKKH@Z$0
__ehfuncinfo$?SendPostPrizeItem@CDPDatabaseClient@@QAEXKKH@Z DD 019930522H
	DD	01H
	DD	FLAT:__unwindtable$?SendPostPrizeItem@CDPDatabaseClient@@QAEXKKH@Z
	DD	2 DUP(00H)
	DD	2 DUP(00H)
	DD	00H
	DD	01H
xdata$x	ENDS
;	COMDAT xdata$x
xdata$x	SEGMENT
__unwindtable$?SendQuizEventSelect@CDPDatabaseClient@@QAEXKHHHH@Z DD 0ffffffffH
	DD	FLAT:__unwindfunclet$?SendQuizEventSelect@CDPDatabaseClient@@QAEXKHHHH@Z$0
__ehfuncinfo$?SendQuizEventSelect@CDPDatabaseClient@@QAEXKHHHH@Z DD 019930522H
	DD	01H
	DD	FLAT:__unwindtable$?SendQuizEventSelect@CDPDatabaseClient@@QAEXKHHHH@Z
	DD	2 DUP(00H)
	DD	2 DUP(00H)
	DD	00H
	DD	01H
xdata$x	ENDS
;	COMDAT xdata$x
xdata$x	SEGMENT
__unwindtable$?SendQuizEventEntrance@CDPDatabaseClient@@QAEXKH@Z DD 0ffffffffH
	DD	FLAT:__unwindfunclet$?SendQuizEventEntrance@CDPDatabaseClient@@QAEXKH@Z$0
__ehfuncinfo$?SendQuizEventEntrance@CDPDatabaseClient@@QAEXKH@Z DD 019930522H
	DD	01H
	DD	FLAT:__unwindtable$?SendQuizEventEntrance@CDPDatabaseClient@@QAEXKH@Z
	DD	2 DUP(00H)
	DD	2 DUP(00H)
	DD	00H
	DD	01H
xdata$x	ENDS
;	COMDAT xdata$x
xdata$x	SEGMENT
__unwindtable$?SendQuizEventState@CDPDatabaseClient@@QAEXHHHH@Z DD 0ffffffffH
	DD	FLAT:__unwindfunclet$?SendQuizEventState@CDPDatabaseClient@@QAEXHHHH@Z$0
__ehfuncinfo$?SendQuizEventState@CDPDatabaseClient@@QAEXHHHH@Z DD 019930522H
	DD	01H
	DD	FLAT:__unwindtable$?SendQuizEventState@CDPDatabaseClient@@QAEXHHHH@Z
	DD	2 DUP(00H)
	DD	2 DUP(00H)
	DD	00H
	DD	01H
xdata$x	ENDS
;	COMDAT xdata$x
xdata$x	SEGMENT
__unwindtable$?SendQuizEventOpen@CDPDatabaseClient@@QAEXH@Z DD 0ffffffffH
	DD	FLAT:__unwindfunclet$?SendQuizEventOpen@CDPDatabaseClient@@QAEXH@Z$0
__ehfuncinfo$?SendQuizEventOpen@CDPDatabaseClient@@QAEXH@Z DD 019930522H
	DD	01H
	DD	FLAT:__unwindtable$?SendQuizEventOpen@CDPDatabaseClient@@QAEXH@Z
	DD	2 DUP(00H)
	DD	2 DUP(00H)
	DD	00H
	DD	01H
xdata$x	ENDS
;	COMDAT xdata$x
xdata$x	SEGMENT
__unwindtable$?OnQuizList@CDPDatabaseClient@@QAEXAAVCAr@@KK@Z DD 0ffffffffH
	DD	FLAT:__unwindfunclet$?OnQuizList@CDPDatabaseClient@@QAEXAAVCAr@@KK@Z$0
__ehfuncinfo$?OnQuizList@CDPDatabaseClient@@QAEXAAVCAr@@KK@Z DD 019930522H
	DD	01H
	DD	FLAT:__unwindtable$?OnQuizList@CDPDatabaseClient@@QAEXAAVCAr@@KK@Z
	DD	2 DUP(00H)
	DD	2 DUP(00H)
	DD	00H
	DD	01H
xdata$x	ENDS
;	COMDAT xdata$x
xdata$x	SEGMENT
__unwindtable$?SendLogInstanceDungeon@CDPDatabaseClient@@QAEXKKKHD@Z DD 0ffffffffH
	DD	FLAT:__unwindfunclet$?SendLogInstanceDungeon@CDPDatabaseClient@@QAEXKKKHD@Z$0
__ehfuncinfo$?SendLogInstanceDungeon@CDPDatabaseClient@@QAEXKKKHD@Z DD 019930522H
	DD	01H
	DD	FLAT:__unwindtable$?SendLogInstanceDungeon@CDPDatabaseClient@@QAEXKKKHD@Z
	DD	2 DUP(00H)
	DD	2 DUP(00H)
	DD	00H
	DD	01H
xdata$x	ENDS
;	COMDAT xdata$x
xdata$x	SEGMENT
__unwindtable$?SendFunnyCoinReqUse@CDPDatabaseClient@@QAEXKPAVCItemElem@@@Z DD 0ffffffffH
	DD	FLAT:__unwindfunclet$?SendFunnyCoinReqUse@CDPDatabaseClient@@QAEXKPAVCItemElem@@@Z$0
__ehfuncinfo$?SendFunnyCoinReqUse@CDPDatabaseClient@@QAEXKPAVCItemElem@@@Z DD 019930522H
	DD	01H
	DD	FLAT:__unwindtable$?SendFunnyCoinReqUse@CDPDatabaseClient@@QAEXKPAVCItemElem@@@Z
	DD	2 DUP(00H)
	DD	2 DUP(00H)
	DD	00H
	DD	01H
xdata$x	ENDS
;	COMDAT xdata$x
xdata$x	SEGMENT
__unwindtable$?SendLogGetHonorTime@CDPDatabaseClient@@QAEXPAVCMover@@H@Z DD 0ffffffffH
	DD	FLAT:__unwindfunclet$?SendLogGetHonorTime@CDPDatabaseClient@@QAEXPAVCMover@@H@Z$0
__ehfuncinfo$?SendLogGetHonorTime@CDPDatabaseClient@@QAEXPAVCMover@@H@Z DD 019930522H
	DD	01H
	DD	FLAT:__unwindtable$?SendLogGetHonorTime@CDPDatabaseClient@@QAEXPAVCMover@@H@Z
	DD	2 DUP(00H)
	DD	2 DUP(00H)
	DD	00H
	DD	01H
xdata$x	ENDS
;	COMDAT xdata$x
xdata$x	SEGMENT
__unwindtable$?SendQueryAddCoupleExperience@CDPDatabaseClient@@QAEXKH@Z DD 0ffffffffH
	DD	FLAT:__unwindfunclet$?SendQueryAddCoupleExperience@CDPDatabaseClient@@QAEXKH@Z$0
__ehfuncinfo$?SendQueryAddCoupleExperience@CDPDatabaseClient@@QAEXKH@Z DD 019930522H
	DD	01H
	DD	FLAT:__unwindtable$?SendQueryAddCoupleExperience@CDPDatabaseClient@@QAEXKH@Z
	DD	2 DUP(00H)
	DD	2 DUP(00H)
	DD	00H
	DD	01H
xdata$x	ENDS
;	COMDAT xdata$x
xdata$x	SEGMENT
__unwindtable$?SendClearPropose@CDPDatabaseClient@@QAEXXZ DD 0ffffffffH
	DD	FLAT:__unwindfunclet$?SendClearPropose@CDPDatabaseClient@@QAEXXZ$0
__ehfuncinfo$?SendClearPropose@CDPDatabaseClient@@QAEXXZ DD 019930522H
	DD	01H
	DD	FLAT:__unwindtable$?SendClearPropose@CDPDatabaseClient@@QAEXXZ
	DD	2 DUP(00H)
	DD	2 DUP(00H)
	DD	00H
	DD	01H
xdata$x	ENDS
;	COMDAT xdata$x
xdata$x	SEGMENT
__unwindtable$?SendDecouple@CDPDatabaseClient@@QAEXK@Z DD 0ffffffffH
	DD	FLAT:__unwindfunclet$?SendDecouple@CDPDatabaseClient@@QAEXK@Z$0
__ehfuncinfo$?SendDecouple@CDPDatabaseClient@@QAEXK@Z DD 019930522H
	DD	01H
	DD	FLAT:__unwindtable$?SendDecouple@CDPDatabaseClient@@QAEXK@Z
	DD	2 DUP(00H)
	DD	2 DUP(00H)
	DD	00H
	DD	01H
xdata$x	ENDS
;	COMDAT xdata$x
xdata$x	SEGMENT
__unwindtable$?SendCouple@CDPDatabaseClient@@QAEXKK@Z DD 0ffffffffH
	DD	FLAT:__unwindfunclet$?SendCouple@CDPDatabaseClient@@QAEXKK@Z$0
__ehfuncinfo$?SendCouple@CDPDatabaseClient@@QAEXKK@Z DD 019930522H
	DD	01H
	DD	FLAT:__unwindtable$?SendCouple@CDPDatabaseClient@@QAEXKK@Z
	DD	2 DUP(00H)
	DD	2 DUP(00H)
	DD	00H
	DD	01H
xdata$x	ENDS
;	COMDAT xdata$x
xdata$x	SEGMENT
__unwindtable$?SendPropose@CDPDatabaseClient@@QAEXKK@Z DD 0ffffffffH
	DD	FLAT:__unwindfunclet$?SendPropose@CDPDatabaseClient@@QAEXKK@Z$0
__ehfuncinfo$?SendPropose@CDPDatabaseClient@@QAEXKK@Z DD 019930522H
	DD	01H
	DD	FLAT:__unwindtable$?SendPropose@CDPDatabaseClient@@QAEXKK@Z
	DD	2 DUP(00H)
	DD	2 DUP(00H)
	DD	00H
	DD	01H
xdata$x	ENDS
;	COMDAT xdata$x
xdata$x	SEGMENT
__unwindtable$?OnHousingDBFailed@CDPDatabaseClient@@QAEXAAVCAr@@KK@Z DD 0ffffffffH
	DD	FLAT:__unwindfunclet$?OnHousingDBFailed@CDPDatabaseClient@@QAEXAAVCAr@@KK@Z$0
__ehfuncinfo$?OnHousingDBFailed@CDPDatabaseClient@@QAEXAAVCAr@@KK@Z DD 019930522H
	DD	01H
	DD	FLAT:__unwindtable$?OnHousingDBFailed@CDPDatabaseClient@@QAEXAAVCAr@@KK@Z
	DD	2 DUP(00H)
	DD	2 DUP(00H)
	DD	00H
	DD	01H
xdata$x	ENDS
;	COMDAT xdata$x
xdata$x	SEGMENT
__unwindtable$?SendRainbowRaceRanking@CDPDatabaseClient@@QAEXKH@Z DD 0ffffffffH
	DD	FLAT:__unwindfunclet$?SendRainbowRaceRanking@CDPDatabaseClient@@QAEXKH@Z$0
__ehfuncinfo$?SendRainbowRaceRanking@CDPDatabaseClient@@QAEXKH@Z DD 019930522H
	DD	01H
	DD	FLAT:__unwindtable$?SendRainbowRaceRanking@CDPDatabaseClient@@QAEXKH@Z
	DD	2 DUP(00H)
	DD	2 DUP(00H)
	DD	00H
	DD	01H
xdata$x	ENDS
;	COMDAT xdata$x
xdata$x	SEGMENT
__unwindtable$?SendRainbowRaceFailedUser@CDPDatabaseClient@@QAEXK@Z DD 0ffffffffH
	DD	FLAT:__unwindfunclet$?SendRainbowRaceFailedUser@CDPDatabaseClient@@QAEXK@Z$0
__ehfuncinfo$?SendRainbowRaceFailedUser@CDPDatabaseClient@@QAEXK@Z DD 019930522H
	DD	01H
	DD	FLAT:__unwindtable$?SendRainbowRaceFailedUser@CDPDatabaseClient@@QAEXK@Z
	DD	2 DUP(00H)
	DD	2 DUP(00H)
	DD	00H
	DD	01H
xdata$x	ENDS
;	COMDAT xdata$x
xdata$x	SEGMENT
__unwindtable$?SendRainbowRaceApplication@CDPDatabaseClient@@QAEXK@Z DD 0ffffffffH
	DD	FLAT:__unwindfunclet$?SendRainbowRaceApplication@CDPDatabaseClient@@QAEXK@Z$0
__ehfuncinfo$?SendRainbowRaceApplication@CDPDatabaseClient@@QAEXK@Z DD 019930522H
	DD	01H
	DD	FLAT:__unwindtable$?SendRainbowRaceApplication@CDPDatabaseClient@@QAEXK@Z
	DD	2 DUP(00H)
	DD	2 DUP(00H)
	DD	00H
	DD	01H
xdata$x	ENDS
;	COMDAT xdata$x
xdata$x	SEGMENT
__unwindtable$?SendRainbowRaceReqLoad@CDPDatabaseClient@@QAEXXZ DD 0ffffffffH
	DD	FLAT:__unwindfunclet$?SendRainbowRaceReqLoad@CDPDatabaseClient@@QAEXXZ$0
__ehfuncinfo$?SendRainbowRaceReqLoad@CDPDatabaseClient@@QAEXXZ DD 019930522H
	DD	01H
	DD	FLAT:__unwindtable$?SendRainbowRaceReqLoad@CDPDatabaseClient@@QAEXXZ
	DD	2 DUP(00H)
	DD	2 DUP(00H)
	DD	00H
	DD	01H
xdata$x	ENDS
;	COMDAT xdata$x
xdata$x	SEGMENT
__unwindtable$?OnRainbowRaceInfo@CDPDatabaseClient@@AAEXAAVCAr@@KK@Z DD 0ffffffffH
	DD	FLAT:__unwindfunclet$?OnRainbowRaceInfo@CDPDatabaseClient@@AAEXAAVCAr@@KK@Z$0
__ehfuncinfo$?OnRainbowRaceInfo@CDPDatabaseClient@@AAEXAAVCAr@@KK@Z DD 019930522H
	DD	01H
	DD	FLAT:__unwindtable$?OnRainbowRaceInfo@CDPDatabaseClient@@AAEXAAVCAr@@KK@Z
	DD	2 DUP(00H)
	DD	2 DUP(00H)
	DD	00H
	DD	01H
xdata$x	ENDS
;	COMDAT xdata$x
xdata$x	SEGMENT
__unwindtable$?SendSecretRoomClosed@CDPDatabaseClient@@QAEXXZ DD 0ffffffffH
	DD	FLAT:__unwindfunclet$?SendSecretRoomClosed@CDPDatabaseClient@@QAEXXZ$0
__ehfuncinfo$?SendSecretRoomClosed@CDPDatabaseClient@@QAEXXZ DD 019930522H
	DD	01H
	DD	FLAT:__unwindtable$?SendSecretRoomClosed@CDPDatabaseClient@@QAEXXZ
	DD	2 DUP(00H)
	DD	2 DUP(00H)
	DD	00H
	DD	01H
xdata$x	ENDS
;	COMDAT xdata$x
xdata$x	SEGMENT
__unwindtable$?SendSecretRoomInsertLineUpToDB@CDPDatabaseClient@@QAEXEAAU__SECRETROOM_TENDER@@@Z DD 0ffffffffH
	DD	FLAT:__unwindfunclet$?SendSecretRoomInsertLineUpToDB@CDPDatabaseClient@@QAEXEAAU__SECRETROOM_TENDER@@@Z$0
__ehfuncinfo$?SendSecretRoomInsertLineUpToDB@CDPDatabaseClient@@QAEXEAAU__SECRETROOM_TENDER@@@Z DD 019930522H
	DD	01H
	DD	FLAT:__unwindtable$?SendSecretRoomInsertLineUpToDB@CDPDatabaseClient@@QAEXEAAU__SECRETROOM_TENDER@@@Z
	DD	2 DUP(00H)
	DD	2 DUP(00H)
	DD	00H
	DD	01H
xdata$x	ENDS
;	COMDAT xdata$x
xdata$x	SEGMENT
__unwindtable$?SendSecretRoomUpdateToDB@CDPDatabaseClient@@QAEXEAAU__SECRETROOM_TENDER@@D@Z DD 0ffffffffH
	DD	FLAT:__unwindfunclet$?SendSecretRoomUpdateToDB@CDPDatabaseClient@@QAEXEAAU__SECRETROOM_TENDER@@D@Z$0
__ehfuncinfo$?SendSecretRoomUpdateToDB@CDPDatabaseClient@@QAEXEAAU__SECRETROOM_TENDER@@D@Z DD 019930522H
	DD	01H
	DD	FLAT:__unwindtable$?SendSecretRoomUpdateToDB@CDPDatabaseClient@@QAEXEAAU__SECRETROOM_TENDER@@D@Z
	DD	2 DUP(00H)
	DD	2 DUP(00H)
	DD	00H
	DD	01H
xdata$x	ENDS
;	COMDAT xdata$x
xdata$x	SEGMENT
__unwindtable$?SendSecretRoomInsertToDB@CDPDatabaseClient@@QAEXEAAU__SECRETROOM_TENDER@@@Z DD 0ffffffffH
	DD	FLAT:__unwindfunclet$?SendSecretRoomInsertToDB@CDPDatabaseClient@@QAEXEAAU__SECRETROOM_TENDER@@@Z$0
__ehfuncinfo$?SendSecretRoomInsertToDB@CDPDatabaseClient@@QAEXEAAU__SECRETROOM_TENDER@@@Z DD 019930522H
	DD	01H
	DD	FLAT:__unwindtable$?SendSecretRoomInsertToDB@CDPDatabaseClient@@QAEXEAAU__SECRETROOM_TENDER@@@Z
	DD	2 DUP(00H)
	DD	2 DUP(00H)
	DD	00H
	DD	01H
xdata$x	ENDS
;	COMDAT xdata$x
xdata$x	SEGMENT
__unwindtable$?OnSecretRoomTenderInfo@CDPDatabaseClient@@AAEXAAVCAr@@KK@Z DD 0ffffffffH
	DD	FLAT:__unwindfunclet$?OnSecretRoomTenderInfo@CDPDatabaseClient@@AAEXAAVCAr@@KK@Z$0
	DD	00H
	DD	FLAT:__unwindfunclet$?OnSecretRoomTenderInfo@CDPDatabaseClient@@AAEXAAVCAr@@KK@Z$1
__ehfuncinfo$?OnSecretRoomTenderInfo@CDPDatabaseClient@@AAEXAAVCAr@@KK@Z DD 019930522H
	DD	02H
	DD	FLAT:__unwindtable$?OnSecretRoomTenderInfo@CDPDatabaseClient@@AAEXAAVCAr@@KK@Z
	DD	2 DUP(00H)
	DD	2 DUP(00H)
	DD	00H
	DD	01H
xdata$x	ENDS
;	COMDAT xdata$x
xdata$x	SEGMENT
__unwindtable$?SendApplyTaxRateNow@CDPDatabaseClient@@QAEXXZ DD 0ffffffffH
	DD	FLAT:__unwindfunclet$?SendApplyTaxRateNow@CDPDatabaseClient@@QAEXXZ$0
__ehfuncinfo$?SendApplyTaxRateNow@CDPDatabaseClient@@QAEXXZ DD 019930522H
	DD	01H
	DD	FLAT:__unwindtable$?SendApplyTaxRateNow@CDPDatabaseClient@@QAEXXZ
	DD	2 DUP(00H)
	DD	2 DUP(00H)
	DD	00H
	DD	01H
xdata$x	ENDS
;	COMDAT xdata$x
xdata$x	SEGMENT
__unwindtable$?SendAddTax@CDPDatabaseClient@@QAEXEHE@Z DD 0ffffffffH
	DD	FLAT:__unwindfunclet$?SendAddTax@CDPDatabaseClient@@QAEXEHE@Z$0
__ehfuncinfo$?SendAddTax@CDPDatabaseClient@@QAEXEHE@Z DD 019930522H
	DD	01H
	DD	FLAT:__unwindtable$?SendAddTax@CDPDatabaseClient@@QAEXEHE@Z
	DD	2 DUP(00H)
	DD	2 DUP(00H)
	DD	00H
	DD	01H
xdata$x	ENDS
;	COMDAT xdata$x
xdata$x	SEGMENT
__unwindtable$?SendTaxRate@CDPDatabaseClient@@QAEXEHH@Z DD 0ffffffffH
	DD	FLAT:__unwindfunclet$?SendTaxRate@CDPDatabaseClient@@QAEXEHH@Z$0
__ehfuncinfo$?SendTaxRate@CDPDatabaseClient@@QAEXEHH@Z DD 019930522H
	DD	01H
	DD	FLAT:__unwindtable$?SendTaxRate@CDPDatabaseClient@@QAEXEHH@Z
	DD	2 DUP(00H)
	DD	2 DUP(00H)
	DD	00H
	DD	01H
xdata$x	ENDS
;	COMDAT xdata$x
xdata$x	SEGMENT
__unwindtable$?SendLord@CDPDatabaseClient@@QAEXK@Z DD 0ffffffffH
	DD	FLAT:__unwindfunclet$?SendLord@CDPDatabaseClient@@QAEXK@Z$0
__ehfuncinfo$?SendLord@CDPDatabaseClient@@QAEXK@Z DD 019930522H
	DD	01H
	DD	FLAT:__unwindtable$?SendLord@CDPDatabaseClient@@QAEXK@Z
	DD	2 DUP(00H)
	DD	2 DUP(00H)
	DD	00H
	DD	01H
xdata$x	ENDS
;	COMDAT xdata$x
xdata$x	SEGMENT
__unwindtable$?SendSecretRoomWinGuild@CDPDatabaseClient@@QAEXEK@Z DD 0ffffffffH
	DD	FLAT:__unwindfunclet$?SendSecretRoomWinGuild@CDPDatabaseClient@@QAEXEK@Z$0
__ehfuncinfo$?SendSecretRoomWinGuild@CDPDatabaseClient@@QAEXEK@Z DD 019930522H
	DD	01H
	DD	FLAT:__unwindtable$?SendSecretRoomWinGuild@CDPDatabaseClient@@QAEXEK@Z
	DD	2 DUP(00H)
	DD	2 DUP(00H)
	DD	00H
	DD	01H
xdata$x	ENDS
;	COMDAT xdata$x
xdata$x	SEGMENT
__unwindtable$?SendLEventInitialize@CDPDatabaseClient@@QAEXXZ DD 0ffffffffH
	DD	FLAT:__unwindfunclet$?SendLEventInitialize@CDPDatabaseClient@@QAEXXZ$0
__ehfuncinfo$?SendLEventInitialize@CDPDatabaseClient@@QAEXXZ DD 019930522H
	DD	01H
	DD	FLAT:__unwindtable$?SendLEventInitialize@CDPDatabaseClient@@QAEXXZ
	DD	2 DUP(00H)
	DD	2 DUP(00H)
	DD	00H
	DD	01H
xdata$x	ENDS
;	COMDAT xdata$x
xdata$x	SEGMENT
__unwindtable$?SendElectionBeginEndVote@CDPDatabaseClient@@QAEXXZ DD 0ffffffffH
	DD	FLAT:__unwindfunclet$?SendElectionBeginEndVote@CDPDatabaseClient@@QAEXXZ$0
__ehfuncinfo$?SendElectionBeginEndVote@CDPDatabaseClient@@QAEXXZ DD 019930522H
	DD	01H
	DD	FLAT:__unwindtable$?SendElectionBeginEndVote@CDPDatabaseClient@@QAEXXZ
	DD	2 DUP(00H)
	DD	2 DUP(00H)
	DD	00H
	DD	01H
xdata$x	ENDS
;	COMDAT xdata$x
xdata$x	SEGMENT
__unwindtable$?SendElectionBeginVote@CDPDatabaseClient@@QAEXXZ DD 0ffffffffH
	DD	FLAT:__unwindfunclet$?SendElectionBeginVote@CDPDatabaseClient@@QAEXXZ$0
__ehfuncinfo$?SendElectionBeginVote@CDPDatabaseClient@@QAEXXZ DD 019930522H
	DD	01H
	DD	FLAT:__unwindtable$?SendElectionBeginVote@CDPDatabaseClient@@QAEXXZ
	DD	2 DUP(00H)
	DD	2 DUP(00H)
	DD	00H
	DD	01H
xdata$x	ENDS
;	COMDAT xdata$x
xdata$x	SEGMENT
__unwindtable$?SendElectionBeginCandidacy@CDPDatabaseClient@@QAEXXZ DD 0ffffffffH
	DD	FLAT:__unwindfunclet$?SendElectionBeginCandidacy@CDPDatabaseClient@@QAEXXZ$0
__ehfuncinfo$?SendElectionBeginCandidacy@CDPDatabaseClient@@QAEXXZ DD 019930522H
	DD	01H
	DD	FLAT:__unwindtable$?SendElectionBeginCandidacy@CDPDatabaseClient@@QAEXXZ
	DD	2 DUP(00H)
	DD	2 DUP(00H)
	DD	00H
	DD	01H
xdata$x	ENDS
;	COMDAT xdata$x
xdata$x	SEGMENT
__unwindtable$?SendElectionProcess@CDPDatabaseClient@@QAEXH@Z DD 0ffffffffH
	DD	FLAT:__unwindfunclet$?SendElectionProcess@CDPDatabaseClient@@QAEXH@Z$0
__ehfuncinfo$?SendElectionProcess@CDPDatabaseClient@@QAEXH@Z DD 019930522H
	DD	01H
	DD	FLAT:__unwindtable$?SendElectionProcess@CDPDatabaseClient@@QAEXH@Z
	DD	2 DUP(00H)
	DD	2 DUP(00H)
	DD	00H
	DD	01H
xdata$x	ENDS
;	COMDAT xdata$x
xdata$x	SEGMENT
__unwindtable$?SendLordSkillUse@CDPDatabaseClient@@QAEXKKH@Z DD 0ffffffffH
	DD	FLAT:__unwindfunclet$?SendLordSkillUse@CDPDatabaseClient@@QAEXKKH@Z$0
__ehfuncinfo$?SendLordSkillUse@CDPDatabaseClient@@QAEXKKH@Z DD 019930522H
	DD	01H
	DD	FLAT:__unwindtable$?SendLordSkillUse@CDPDatabaseClient@@QAEXKKH@Z
	DD	2 DUP(00H)
	DD	2 DUP(00H)
	DD	00H
	DD	01H
xdata$x	ENDS
;	COMDAT xdata$x
xdata$x	SEGMENT
__unwindtable$?SendLEventCreate@CDPDatabaseClient@@QAEXKHH@Z DD 0ffffffffH
	DD	FLAT:__unwindfunclet$?SendLEventCreate@CDPDatabaseClient@@QAEXKHH@Z$0
__ehfuncinfo$?SendLEventCreate@CDPDatabaseClient@@QAEXKHH@Z DD 019930522H
	DD	01H
	DD	FLAT:__unwindtable$?SendLEventCreate@CDPDatabaseClient@@QAEXKHH@Z
	DD	2 DUP(00H)
	DD	2 DUP(00H)
	DD	00H
	DD	01H
xdata$x	ENDS
;	COMDAT xdata$x
xdata$x	SEGMENT
__unwindtable$?SendElectionIncVote@CDPDatabaseClient@@QAEXKK@Z DD 0ffffffffH
	DD	FLAT:__unwindfunclet$?SendElectionIncVote@CDPDatabaseClient@@QAEXKK@Z$0
__ehfuncinfo$?SendElectionIncVote@CDPDatabaseClient@@QAEXKK@Z DD 019930522H
	DD	01H
	DD	FLAT:__unwindtable$?SendElectionIncVote@CDPDatabaseClient@@QAEXKK@Z
	DD	2 DUP(00H)
	DD	2 DUP(00H)
	DD	00H
	DD	01H
xdata$x	ENDS
;	COMDAT xdata$x
xdata$x	SEGMENT
__unwindtable$?SendElectionSetPledge@CDPDatabaseClient@@QAEXKPBD@Z DD 0ffffffffH
	DD	FLAT:__unwindfunclet$?SendElectionSetPledge@CDPDatabaseClient@@QAEXKPBD@Z$0
__ehfuncinfo$?SendElectionSetPledge@CDPDatabaseClient@@QAEXKPBD@Z DD 019930522H
	DD	01H
	DD	FLAT:__unwindtable$?SendElectionSetPledge@CDPDatabaseClient@@QAEXKPBD@Z
	DD	2 DUP(00H)
	DD	2 DUP(00H)
	DD	00H
	DD	01H
xdata$x	ENDS
;	COMDAT xdata$x
xdata$x	SEGMENT
__unwindtable$?SendElectionAddDeposit@CDPDatabaseClient@@QAEXK_J@Z DD 0ffffffffH
	DD	FLAT:__unwindfunclet$?SendElectionAddDeposit@CDPDatabaseClient@@QAEXK_J@Z$0
__ehfuncinfo$?SendElectionAddDeposit@CDPDatabaseClient@@QAEXK_J@Z DD 019930522H
	DD	01H
	DD	FLAT:__unwindtable$?SendElectionAddDeposit@CDPDatabaseClient@@QAEXK_J@Z
	DD	2 DUP(00H)
	DD	2 DUP(00H)
	DD	00H
	DD	01H
xdata$x	ENDS
;	COMDAT xdata$x
xdata$x	SEGMENT
__unwindtable$?OnLEventCreate@CDPDatabaseClient@@AAEXAAVCAr@@KK@Z DD 0ffffffffH
	DD	FLAT:__unwindfunclet$?OnLEventCreate@CDPDatabaseClient@@AAEXAAVCAr@@KK@Z$0
__ehfuncinfo$?OnLEventCreate@CDPDatabaseClient@@AAEXAAVCAr@@KK@Z DD 019930522H
	DD	01H
	DD	FLAT:__unwindtable$?OnLEventCreate@CDPDatabaseClient@@AAEXAAVCAr@@KK@Z
	DD	2 DUP(00H)
	DD	2 DUP(00H)
	DD	00H
	DD	01H
xdata$x	ENDS
;	COMDAT xdata$x
xdata$x	SEGMENT
__unwindtable$?OnGC1to1TenderGuildFromDB@CDPDatabaseClient@@AAEXAAVCAr@@KK@Z DD 0ffffffffH
	DD	FLAT:__unwindfunclet$?OnGC1to1TenderGuildFromDB@CDPDatabaseClient@@AAEXAAVCAr@@KK@Z$0
__ehfuncinfo$?OnGC1to1TenderGuildFromDB@CDPDatabaseClient@@AAEXAAVCAr@@KK@Z DD 019930522H
	DD	01H
	DD	FLAT:__unwindtable$?OnGC1to1TenderGuildFromDB@CDPDatabaseClient@@AAEXAAVCAr@@KK@Z
	DD	2 DUP(00H)
	DD	2 DUP(00H)
	DD	00H
	DD	01H
xdata$x	ENDS
;	COMDAT xdata$x
xdata$x	SEGMENT
__unwindtable$?SendQueryRemoveGuildBankTbl@CDPDatabaseClient@@AAEXHK@Z DD 0ffffffffH
	DD	FLAT:__unwindfunclet$?SendQueryRemoveGuildBankTbl@CDPDatabaseClient@@AAEXHK@Z$0
__ehfuncinfo$?SendQueryRemoveGuildBankTbl@CDPDatabaseClient@@AAEXHK@Z DD 019930522H
	DD	01H
	DD	FLAT:__unwindtable$?SendQueryRemoveGuildBankTbl@CDPDatabaseClient@@AAEXHK@Z
	DD	2 DUP(00H)
	DD	2 DUP(00H)
	DD	00H
	DD	01H
xdata$x	ENDS
;	COMDAT xdata$x
xdata$x	SEGMENT
__unwindtable$?OnQueryGuildQuest@CDPDatabaseClient@@AAEXAAVCAr@@KK@Z DD 0ffffffffH
	DD	FLAT:__unwindfunclet$?OnQueryGuildQuest@CDPDatabaseClient@@AAEXAAVCAr@@KK@Z$0
__ehfuncinfo$?OnQueryGuildQuest@CDPDatabaseClient@@AAEXAAVCAr@@KK@Z DD 019930522H
	DD	01H
	DD	FLAT:__unwindtable$?OnQueryGuildQuest@CDPDatabaseClient@@AAEXAAVCAr@@KK@Z
	DD	2 DUP(00H)
	DD	2 DUP(00H)
	DD	00H
	DD	01H
xdata$x	ENDS
;	COMDAT xdata$x
xdata$x	SEGMENT
__unwindtable$?OnGuildBank@CDPDatabaseClient@@AAEXAAVCAr@@KK@Z DD 0ffffffffH
	DD	FLAT:__unwindfunclet$?OnGuildBank@CDPDatabaseClient@@AAEXAAVCAr@@KK@Z$0
__ehfuncinfo$?OnGuildBank@CDPDatabaseClient@@AAEXAAVCAr@@KK@Z DD 019930522H
	DD	01H
	DD	FLAT:__unwindtable$?OnGuildBank@CDPDatabaseClient@@AAEXAAVCAr@@KK@Z
	DD	2 DUP(00H)
	DD	2 DUP(00H)
	DD	00H
	DD	01H
xdata$x	ENDS
;	COMDAT xdata$x
xdata$x	SEGMENT
__unwindtable$?OnMonsterRespawnSetting@CDPDatabaseClient@@AAEXAAVCAr@@KK@Z DD 0ffffffffH
	DD	FLAT:__unwindfunclet$?OnMonsterRespawnSetting@CDPDatabaseClient@@AAEXAAVCAr@@KK@Z$0
__ehfuncinfo$?OnMonsterRespawnSetting@CDPDatabaseClient@@AAEXAAVCAr@@KK@Z DD 019930522H
	DD	01H
	DD	FLAT:__unwindtable$?OnMonsterRespawnSetting@CDPDatabaseClient@@AAEXAAVCAr@@KK@Z
	DD	2 DUP(00H)
	DD	2 DUP(00H)
	DD	00H
	DD	01H
xdata$x	ENDS
;	COMDAT xdata$x
xdata$x	SEGMENT
__unwindtable$?OnOutGuildCombat@CDPDatabaseClient@@AAEXAAVCAr@@KK@Z DD 0ffffffffH
	DD	FLAT:__unwindfunclet$?OnOutGuildCombat@CDPDatabaseClient@@AAEXAAVCAr@@KK@Z$0
	DD	0ffffffffH
	DD	FLAT:__unwindfunclet$?OnOutGuildCombat@CDPDatabaseClient@@AAEXAAVCAr@@KK@Z$1
__ehfuncinfo$?OnOutGuildCombat@CDPDatabaseClient@@AAEXAAVCAr@@KK@Z DD 019930522H
	DD	02H
	DD	FLAT:__unwindtable$?OnOutGuildCombat@CDPDatabaseClient@@AAEXAAVCAr@@KK@Z
	DD	2 DUP(00H)
	DD	2 DUP(00H)
	DD	00H
	DD	01H
xdata$x	ENDS
;	COMDAT xdata$x
xdata$x	SEGMENT
__unwindtable$?OnInGuildCombat@CDPDatabaseClient@@AAEXAAVCAr@@KK@Z DD 0ffffffffH
	DD	FLAT:__unwindfunclet$?OnInGuildCombat@CDPDatabaseClient@@AAEXAAVCAr@@KK@Z$0
	DD	0ffffffffH
	DD	FLAT:__unwindfunclet$?OnInGuildCombat@CDPDatabaseClient@@AAEXAAVCAr@@KK@Z$1
__ehfuncinfo$?OnInGuildCombat@CDPDatabaseClient@@AAEXAAVCAr@@KK@Z DD 019930522H
	DD	02H
	DD	FLAT:__unwindtable$?OnInGuildCombat@CDPDatabaseClient@@AAEXAAVCAr@@KK@Z
	DD	2 DUP(00H)
	DD	2 DUP(00H)
	DD	00H
	DD	01H
xdata$x	ENDS
;	COMDAT xdata$x
xdata$x	SEGMENT
__catchsym$?OnJoin@CDPDatabaseClient@@AAEXAAVCAr@@KK@Z$2 DD 040H
	DD	00H
	DD	00H
	DD	FLAT:__catch$?OnJoin@CDPDatabaseClient@@AAEXAAVCAr@@KK@Z$0
__unwindtable$?OnJoin@CDPDatabaseClient@@AAEXAAVCAr@@KK@Z DD 0ffffffffH
	DD	00H
	DD	0ffffffffH
	DD	00H
__tryblocktable$?OnJoin@CDPDatabaseClient@@AAEXAAVCAr@@KK@Z DD 00H
	DD	00H
	DD	01H
	DD	01H
	DD	FLAT:__catchsym$?OnJoin@CDPDatabaseClient@@AAEXAAVCAr@@KK@Z$2
__ehfuncinfo$?OnJoin@CDPDatabaseClient@@AAEXAAVCAr@@KK@Z DD 019930522H
	DD	02H
	DD	FLAT:__unwindtable$?OnJoin@CDPDatabaseClient@@AAEXAAVCAr@@KK@Z
	DD	01H
	DD	FLAT:__tryblocktable$?OnJoin@CDPDatabaseClient@@AAEXAAVCAr@@KK@Z
	DD	2 DUP(00H)
	DD	00H
	DD	01H
xdata$x	ENDS
;	COMDAT xdata$x
xdata$x	SEGMENT
__unwindtable$?SendUpdatePlayerData@CDPDatabaseClient@@QAEXPAVCUser@@@Z DD 0ffffffffH
	DD	FLAT:__unwindfunclet$?SendUpdatePlayerData@CDPDatabaseClient@@QAEXPAVCUser@@@Z$0
__ehfuncinfo$?SendUpdatePlayerData@CDPDatabaseClient@@QAEXPAVCUser@@@Z DD 019930522H
	DD	01H
	DD	FLAT:__unwindtable$?SendUpdatePlayerData@CDPDatabaseClient@@QAEXPAVCUser@@@Z
	DD	2 DUP(00H)
	DD	2 DUP(00H)
	DD	00H
	DD	01H
xdata$x	ENDS
;	COMDAT xdata$x
xdata$x	SEGMENT
__unwindtable$?SendGC1to1WarGuild@CDPDatabaseClient@@QAEXKKKD@Z DD 0ffffffffH
	DD	FLAT:__unwindfunclet$?SendGC1to1WarGuild@CDPDatabaseClient@@QAEXKKKD@Z$0
__ehfuncinfo$?SendGC1to1WarGuild@CDPDatabaseClient@@QAEXKKKD@Z DD 019930522H
	DD	01H
	DD	FLAT:__unwindtable$?SendGC1to1WarGuild@CDPDatabaseClient@@QAEXKKKD@Z
	DD	2 DUP(00H)
	DD	2 DUP(00H)
	DD	00H
	DD	01H
xdata$x	ENDS
;	COMDAT xdata$x
xdata$x	SEGMENT
__unwindtable$?SendGC1to1WarPerson@CDPDatabaseClient@@QAEXKKD@Z DD 0ffffffffH
	DD	FLAT:__unwindfunclet$?SendGC1to1WarPerson@CDPDatabaseClient@@QAEXKKD@Z$0
__ehfuncinfo$?SendGC1to1WarPerson@CDPDatabaseClient@@QAEXKKD@Z DD 019930522H
	DD	01H
	DD	FLAT:__unwindtable$?SendGC1to1WarPerson@CDPDatabaseClient@@QAEXKKD@Z
	DD	2 DUP(00H)
	DD	2 DUP(00H)
	DD	00H
	DD	01H
xdata$x	ENDS
;	COMDAT xdata$x
xdata$x	SEGMENT
__unwindtable$?SendGC1to1LineUp@CDPDatabaseClient@@QAEXKAAV?$vector@KV?$allocator@K@std@@@std@@@Z DD 0ffffffffH
	DD	FLAT:__unwindfunclet$?SendGC1to1LineUp@CDPDatabaseClient@@QAEXKAAV?$vector@KV?$allocator@K@std@@@std@@@Z$0
__ehfuncinfo$?SendGC1to1LineUp@CDPDatabaseClient@@QAEXKAAV?$vector@KV?$allocator@K@std@@@std@@@Z DD 019930522H
	DD	01H
	DD	FLAT:__unwindtable$?SendGC1to1LineUp@CDPDatabaseClient@@QAEXKAAV?$vector@KV?$allocator@K@std@@@std@@@Z
	DD	2 DUP(00H)
	DD	2 DUP(00H)
	DD	00H
	DD	01H
xdata$x	ENDS
;	COMDAT xdata$x
xdata$x	SEGMENT
__unwindtable$?SendGC1to1Tender@CDPDatabaseClient@@QAEXDKHD@Z DD 0ffffffffH
	DD	FLAT:__unwindfunclet$?SendGC1to1Tender@CDPDatabaseClient@@QAEXDKHD@Z$0
__ehfuncinfo$?SendGC1to1Tender@CDPDatabaseClient@@QAEXDKHD@Z DD 019930522H
	DD	01H
	DD	FLAT:__unwindtable$?SendGC1to1Tender@CDPDatabaseClient@@QAEXDKHD@Z
	DD	2 DUP(00H)
	DD	2 DUP(00H)
	DD	00H
	DD	01H
xdata$x	ENDS
;	COMDAT xdata$x
xdata$x	SEGMENT
__unwindtable$?SendGC1to1StateToDBSrvr@CDPDatabaseClient@@QAEXXZ DD 0ffffffffH
	DD	FLAT:__unwindfunclet$?SendGC1to1StateToDBSrvr@CDPDatabaseClient@@QAEXXZ$0
__ehfuncinfo$?SendGC1to1StateToDBSrvr@CDPDatabaseClient@@QAEXXZ DD 019930522H
	DD	01H
	DD	FLAT:__unwindtable$?SendGC1to1StateToDBSrvr@CDPDatabaseClient@@QAEXXZ
	DD	2 DUP(00H)
	DD	2 DUP(00H)
	DD	00H
	DD	01H
xdata$x	ENDS
;	COMDAT xdata$x
xdata$x	SEGMENT
__unwindtable$?SendEventLuaChanged@CDPDatabaseClient@@QAEXXZ DD 0ffffffffH
	DD	FLAT:__unwindfunclet$?SendEventLuaChanged@CDPDatabaseClient@@QAEXXZ$0
__ehfuncinfo$?SendEventLuaChanged@CDPDatabaseClient@@QAEXXZ DD 019930522H
	DD	01H
	DD	FLAT:__unwindtable$?SendEventLuaChanged@CDPDatabaseClient@@QAEXXZ
	DD	2 DUP(00H)
	DD	2 DUP(00H)
	DD	00H
	DD	01H
xdata$x	ENDS
;	COMDAT xdata$x
xdata$x	SEGMENT
__unwindtable$?CalluspPetLog@CDPDatabaseClient@@QAEXKKKHPAVCPet@@@Z DD 0ffffffffH
	DD	FLAT:__unwindfunclet$?CalluspPetLog@CDPDatabaseClient@@QAEXKKKHPAVCPet@@@Z$0
__ehfuncinfo$?CalluspPetLog@CDPDatabaseClient@@QAEXKKKHPAVCPet@@@Z DD 019930522H
	DD	01H
	DD	FLAT:__unwindtable$?CalluspPetLog@CDPDatabaseClient@@QAEXKKKHPAVCPet@@@Z
	DD	2 DUP(00H)
	DD	2 DUP(00H)
	DD	00H
	DD	01H
xdata$x	ENDS
;	COMDAT xdata$x
xdata$x	SEGMENT
__unwindtable$?SendQueryGetSealCharSet@CDPDatabaseClient@@QAEXKPBDJK@Z DD 0ffffffffH
	DD	FLAT:__unwindfunclet$?SendQueryGetSealCharSet@CDPDatabaseClient@@QAEXKPBDJK@Z$0
__ehfuncinfo$?SendQueryGetSealCharSet@CDPDatabaseClient@@QAEXKPBDJK@Z DD 019930522H
	DD	01H
	DD	FLAT:__unwindtable$?SendQueryGetSealCharSet@CDPDatabaseClient@@QAEXKPBDJK@Z
	DD	2 DUP(00H)
	DD	2 DUP(00H)
	DD	00H
	DD	01H
xdata$x	ENDS
;	COMDAT xdata$x
xdata$x	SEGMENT
__unwindtable$?SendQueryGetSealCharGet@CDPDatabaseClient@@QAEXKPBDK@Z DD 0ffffffffH
	DD	FLAT:__unwindfunclet$?SendQueryGetSealCharGet@CDPDatabaseClient@@QAEXKPBDK@Z$0
__ehfuncinfo$?SendQueryGetSealCharGet@CDPDatabaseClient@@QAEXKPBDK@Z DD 019930522H
	DD	01H
	DD	FLAT:__unwindtable$?SendQueryGetSealCharGet@CDPDatabaseClient@@QAEXKPBDK@Z
	DD	2 DUP(00H)
	DD	2 DUP(00H)
	DD	00H
	DD	01H
xdata$x	ENDS
;	COMDAT xdata$x
xdata$x	SEGMENT
__unwindtable$?SendQueryGetSealCharConm@CDPDatabaseClient@@QAEXK@Z DD 0ffffffffH
	DD	FLAT:__unwindfunclet$?SendQueryGetSealCharConm@CDPDatabaseClient@@QAEXK@Z$0
__ehfuncinfo$?SendQueryGetSealCharConm@CDPDatabaseClient@@QAEXK@Z DD 019930522H
	DD	01H
	DD	FLAT:__unwindtable$?SendQueryGetSealCharConm@CDPDatabaseClient@@QAEXK@Z
	DD	2 DUP(00H)
	DD	2 DUP(00H)
	DD	00H
	DD	01H
xdata$x	ENDS
;	COMDAT xdata$x
xdata$x	SEGMENT
__unwindtable$?SendQueryGetSealChar@CDPDatabaseClient@@QAEXKPBD@Z DD 0ffffffffH
	DD	FLAT:__unwindfunclet$?SendQueryGetSealChar@CDPDatabaseClient@@QAEXKPBD@Z$0
__ehfuncinfo$?SendQueryGetSealChar@CDPDatabaseClient@@QAEXKPBD@Z DD 019930522H
	DD	01H
	DD	FLAT:__unwindtable$?SendQueryGetSealChar@CDPDatabaseClient@@QAEXKPBD@Z
	DD	2 DUP(00H)
	DD	2 DUP(00H)
	DD	00H
	DD	01H
xdata$x	ENDS
;	COMDAT xdata$x
xdata$x	SEGMENT
__unwindtable$?SendQueryGetGuildBankLogList@CDPDatabaseClient@@QAEXKKE@Z DD 0ffffffffH
	DD	FLAT:__unwindfunclet$?SendQueryGetGuildBankLogList@CDPDatabaseClient@@QAEXKKE@Z$0
__ehfuncinfo$?SendQueryGetGuildBankLogList@CDPDatabaseClient@@QAEXKKE@Z DD 019930522H
	DD	01H
	DD	FLAT:__unwindtable$?SendQueryGetGuildBankLogList@CDPDatabaseClient@@QAEXKKE@Z
	DD	2 DUP(00H)
	DD	2 DUP(00H)
	DD	00H
	DD	01H
xdata$x	ENDS
;	COMDAT xdata$x
xdata$x	SEGMENT
__unwindtable$?SendBuyingInfo@CDPDatabaseClient@@QAEXPAU_BUYING_INFO2@@K@Z DD 0ffffffffH
	DD	FLAT:__unwindfunclet$?SendBuyingInfo@CDPDatabaseClient@@QAEXPAU_BUYING_INFO2@@K@Z$0
__ehfuncinfo$?SendBuyingInfo@CDPDatabaseClient@@QAEXPAU_BUYING_INFO2@@K@Z DD 019930522H
	DD	01H
	DD	FLAT:__unwindtable$?SendBuyingInfo@CDPDatabaseClient@@QAEXPAU_BUYING_INFO2@@K@Z
	DD	2 DUP(00H)
	DD	2 DUP(00H)
	DD	00H
	DD	01H
xdata$x	ENDS
;	COMDAT xdata$x
xdata$x	SEGMENT
__unwindtable$?SendSchoolReport@CDPDatabaseClient@@QAEXPAU_SCHOOL_ENTRY@@@Z DD 0ffffffffH
	DD	FLAT:__unwindfunclet$?SendSchoolReport@CDPDatabaseClient@@QAEXPAU_SCHOOL_ENTRY@@@Z$0
__ehfuncinfo$?SendSchoolReport@CDPDatabaseClient@@QAEXPAU_SCHOOL_ENTRY@@@Z DD 019930522H
	DD	01H
	DD	FLAT:__unwindtable$?SendSchoolReport@CDPDatabaseClient@@QAEXPAU_SCHOOL_ENTRY@@@Z
	DD	2 DUP(00H)
	DD	2 DUP(00H)
	DD	00H
	DD	01H
xdata$x	ENDS
;	COMDAT xdata$x
xdata$x	SEGMENT
__unwindtable$?SendPreventLogin@CDPDatabaseClient@@QAEXPBDK@Z DD 0ffffffffH
	DD	FLAT:__unwindfunclet$?SendPreventLogin@CDPDatabaseClient@@QAEXPBDK@Z$0
__ehfuncinfo$?SendPreventLogin@CDPDatabaseClient@@QAEXPBDK@Z DD 019930522H
	DD	01H
	DD	FLAT:__unwindtable$?SendPreventLogin@CDPDatabaseClient@@QAEXPBDK@Z
	DD	2 DUP(00H)
	DD	2 DUP(00H)
	DD	00H
	DD	01H
xdata$x	ENDS
;	COMDAT xdata$x
xdata$x	SEGMENT
__unwindtable$?CalluspLoggingQuest@CDPDatabaseClient@@QAEXKHHPBD@Z DD 0ffffffffH
	DD	FLAT:__unwindfunclet$?CalluspLoggingQuest@CDPDatabaseClient@@QAEXKHHPBD@Z$0
__ehfuncinfo$?CalluspLoggingQuest@CDPDatabaseClient@@QAEXKHHPBD@Z DD 019930522H
	DD	01H
	DD	FLAT:__unwindtable$?CalluspLoggingQuest@CDPDatabaseClient@@QAEXKHHPBD@Z
	DD	2 DUP(00H)
	DD	2 DUP(00H)
	DD	00H
	DD	01H
xdata$x	ENDS
;	COMDAT xdata$x
xdata$x	SEGMENT
__unwindtable$?OnGetMailGold@CDPDatabaseClient@@QAEXAAVCAr@@KK@Z DD 0ffffffffH
	DD	FLAT:__unwindfunclet$?OnGetMailGold@CDPDatabaseClient@@QAEXAAVCAr@@KK@Z$0
__ehfuncinfo$?OnGetMailGold@CDPDatabaseClient@@QAEXAAVCAr@@KK@Z DD 019930522H
	DD	01H
	DD	FLAT:__unwindtable$?OnGetMailGold@CDPDatabaseClient@@QAEXAAVCAr@@KK@Z
	DD	2 DUP(00H)
	DD	2 DUP(00H)
	DD	00H
	DD	01H
xdata$x	ENDS
;	COMDAT xdata$x
xdata$x	SEGMENT
__unwindtable$?OnGetMailItem@CDPDatabaseClient@@QAEXAAVCAr@@KK@Z DD 0ffffffffH
	DD	FLAT:__unwindfunclet$?OnGetMailItem@CDPDatabaseClient@@QAEXAAVCAr@@KK@Z$0
__ehfuncinfo$?OnGetMailItem@CDPDatabaseClient@@QAEXAAVCAr@@KK@Z DD 019930522H
	DD	01H
	DD	FLAT:__unwindtable$?OnGetMailItem@CDPDatabaseClient@@QAEXAAVCAr@@KK@Z
	DD	2 DUP(00H)
	DD	2 DUP(00H)
	DD	00H
	DD	01H
xdata$x	ENDS
;	COMDAT xdata$x
xdata$x	SEGMENT
__unwindtable$?OnPostMail@CDPDatabaseClient@@QAEXAAVCAr@@KK@Z DD 0ffffffffH
	DD	FLAT:__unwindfunclet$?OnPostMail@CDPDatabaseClient@@QAEXAAVCAr@@KK@Z$0
__ehfuncinfo$?OnPostMail@CDPDatabaseClient@@QAEXAAVCAr@@KK@Z DD 019930522H
	DD	01H
	DD	FLAT:__unwindtable$?OnPostMail@CDPDatabaseClient@@QAEXAAVCAr@@KK@Z
	DD	2 DUP(00H)
	DD	2 DUP(00H)
	DD	00H
	DD	01H
xdata$x	ENDS
;	COMDAT xdata$x
xdata$x	SEGMENT
__unwindtable$?SendQueryReadMail@CDPDatabaseClient@@QAEXKK@Z DD 0ffffffffH
	DD	FLAT:__unwindfunclet$?SendQueryReadMail@CDPDatabaseClient@@QAEXKK@Z$0
__ehfuncinfo$?SendQueryReadMail@CDPDatabaseClient@@QAEXKK@Z DD 019930522H
	DD	01H
	DD	FLAT:__unwindtable$?SendQueryReadMail@CDPDatabaseClient@@QAEXKK@Z
	DD	2 DUP(00H)
	DD	2 DUP(00H)
	DD	00H
	DD	01H
xdata$x	ENDS
;	COMDAT xdata$x
xdata$x	SEGMENT
__unwindtable$?SendQueryGetMailGold@CDPDatabaseClient@@QAEXKK@Z DD 0ffffffffH
	DD	FLAT:__unwindfunclet$?SendQueryGetMailGold@CDPDatabaseClient@@QAEXKK@Z$0
__ehfuncinfo$?SendQueryGetMailGold@CDPDatabaseClient@@QAEXKK@Z DD 019930522H
	DD	01H
	DD	FLAT:__unwindtable$?SendQueryGetMailGold@CDPDatabaseClient@@QAEXKK@Z
	DD	2 DUP(00H)
	DD	2 DUP(00H)
	DD	00H
	DD	01H
xdata$x	ENDS
;	COMDAT xdata$x
xdata$x	SEGMENT
__unwindtable$?SendQueryGetMailItem@CDPDatabaseClient@@QAEXKK@Z DD 0ffffffffH
	DD	FLAT:__unwindfunclet$?SendQueryGetMailItem@CDPDatabaseClient@@QAEXKK@Z$0
__ehfuncinfo$?SendQueryGetMailItem@CDPDatabaseClient@@QAEXKK@Z DD 019930522H
	DD	01H
	DD	FLAT:__unwindtable$?SendQueryGetMailItem@CDPDatabaseClient@@QAEXKK@Z
	DD	2 DUP(00H)
	DD	2 DUP(00H)
	DD	00H
	DD	01H
xdata$x	ENDS
;	COMDAT xdata$x
xdata$x	SEGMENT
__unwindtable$?SendQueryRemoveMail@CDPDatabaseClient@@QAEXKK@Z DD 0ffffffffH
	DD	FLAT:__unwindfunclet$?SendQueryRemoveMail@CDPDatabaseClient@@QAEXKK@Z$0
__ehfuncinfo$?SendQueryRemoveMail@CDPDatabaseClient@@QAEXKK@Z DD 019930522H
	DD	01H
	DD	FLAT:__unwindtable$?SendQueryRemoveMail@CDPDatabaseClient@@QAEXKK@Z
	DD	2 DUP(00H)
	DD	2 DUP(00H)
	DD	00H
	DD	01H
xdata$x	ENDS
;	COMDAT xdata$x
xdata$x	SEGMENT
__unwindtable$?SendQueryPostMail@CDPDatabaseClient@@QAEXKKAAVCItemElem@@HPAD1@Z DD 0ffffffffH
	DD	FLAT:__unwindfunclet$?SendQueryPostMail@CDPDatabaseClient@@QAEXKKAAVCItemElem@@HPAD1@Z$0
__ehfuncinfo$?SendQueryPostMail@CDPDatabaseClient@@QAEXKKAAVCItemElem@@HPAD1@Z DD 019930522H
	DD	01H
	DD	FLAT:__unwindtable$?SendQueryPostMail@CDPDatabaseClient@@QAEXKKAAVCItemElem@@HPAD1@Z
	DD	2 DUP(00H)
	DD	2 DUP(00H)
	DD	00H
	DD	01H
xdata$x	ENDS
;	COMDAT xdata$x
xdata$x	SEGMENT
__unwindtable$?OnMailBoxReq@CDPDatabaseClient@@QAEXAAVCAr@@KK@Z DD 0ffffffffH
	DD	FLAT:__unwindfunclet$?OnMailBoxReq@CDPDatabaseClient@@QAEXAAVCAr@@KK@Z$0
__ehfuncinfo$?OnMailBoxReq@CDPDatabaseClient@@QAEXAAVCAr@@KK@Z DD 019930522H
	DD	01H
	DD	FLAT:__unwindtable$?OnMailBoxReq@CDPDatabaseClient@@QAEXAAVCAr@@KK@Z
	DD	2 DUP(00H)
	DD	2 DUP(00H)
	DD	00H
	DD	01H
xdata$x	ENDS
;	COMDAT xdata$x
xdata$x	SEGMENT
__unwindtable$?SendQueryMailBoxCount@CDPDatabaseClient@@QAEXKH@Z DD 0ffffffffH
	DD	FLAT:__unwindfunclet$?SendQueryMailBoxCount@CDPDatabaseClient@@QAEXKH@Z$0
__ehfuncinfo$?SendQueryMailBoxCount@CDPDatabaseClient@@QAEXKH@Z DD 019930522H
	DD	01H
	DD	FLAT:__unwindtable$?SendQueryMailBoxCount@CDPDatabaseClient@@QAEXKH@Z
	DD	2 DUP(00H)
	DD	2 DUP(00H)
	DD	00H
	DD	01H
xdata$x	ENDS
;	COMDAT xdata$x
xdata$x	SEGMENT
__unwindtable$?SendQueryMailBoxReq@CDPDatabaseClient@@QAEXK@Z DD 0ffffffffH
	DD	FLAT:__unwindfunclet$?SendQueryMailBoxReq@CDPDatabaseClient@@QAEXK@Z$0
__ehfuncinfo$?SendQueryMailBoxReq@CDPDatabaseClient@@QAEXK@Z DD 019930522H
	DD	01H
	DD	FLAT:__unwindtable$?SendQueryMailBoxReq@CDPDatabaseClient@@QAEXK@Z
	DD	2 DUP(00H)
	DD	2 DUP(00H)
	DD	00H
	DD	01H
xdata$x	ENDS
;	COMDAT xdata$x
xdata$x	SEGMENT
__unwindtable$?SendQueryMailBox@CDPDatabaseClient@@QAEXK@Z DD 0ffffffffH
	DD	FLAT:__unwindfunclet$?SendQueryMailBox@CDPDatabaseClient@@QAEXK@Z$0
__ehfuncinfo$?SendQueryMailBox@CDPDatabaseClient@@QAEXK@Z DD 019930522H
	DD	01H
	DD	FLAT:__unwindtable$?SendQueryMailBox@CDPDatabaseClient@@QAEXK@Z
	DD	2 DUP(00H)
	DD	2 DUP(00H)
	DD	00H
	DD	01H
xdata$x	ENDS
;	COMDAT xdata$x
xdata$x	SEGMENT
__unwindtable$?SendQuerySetPlayerName@CDPDatabaseClient@@QAEXKPBDK@Z DD 0ffffffffH
	DD	FLAT:__unwindfunclet$?SendQuerySetPlayerName@CDPDatabaseClient@@QAEXKPBDK@Z$0
__ehfuncinfo$?SendQuerySetPlayerName@CDPDatabaseClient@@QAEXKPBDK@Z DD 019930522H
	DD	01H
	DD	FLAT:__unwindtable$?SendQuerySetPlayerName@CDPDatabaseClient@@QAEXKPBDK@Z
	DD	2 DUP(00H)
	DD	2 DUP(00H)
	DD	00H
	DD	01H
xdata$x	ENDS
;	COMDAT xdata$x
xdata$x	SEGMENT
__unwindtable$?SendGuildGetPay@CDPDatabaseClient@@QAEXKKK@Z DD 0ffffffffH
	DD	FLAT:__unwindfunclet$?SendGuildGetPay@CDPDatabaseClient@@QAEXKKK@Z$0
__ehfuncinfo$?SendGuildGetPay@CDPDatabaseClient@@QAEXKKK@Z DD 019930522H
	DD	01H
	DD	FLAT:__unwindtable$?SendGuildGetPay@CDPDatabaseClient@@QAEXKKK@Z
	DD	2 DUP(00H)
	DD	2 DUP(00H)
	DD	00H
	DD	01H
xdata$x	ENDS
;	COMDAT xdata$x
xdata$x	SEGMENT
__unwindtable$?SendGuildContribution@CDPDatabaseClient@@QAEXAAUCONTRIBUTION_CHANGED_INFO@@EJ@Z DD 0ffffffffH
	DD	FLAT:__unwindfunclet$?SendGuildContribution@CDPDatabaseClient@@QAEXAAUCONTRIBUTION_CHANGED_INFO@@EJ@Z$0
__ehfuncinfo$?SendGuildContribution@CDPDatabaseClient@@QAEXAAUCONTRIBUTION_CHANGED_INFO@@EJ@Z DD 019930522H
	DD	01H
	DD	FLAT:__unwindtable$?SendGuildContribution@CDPDatabaseClient@@QAEXAAUCONTRIBUTION_CHANGED_INFO@@EJ@Z
	DD	2 DUP(00H)
	DD	2 DUP(00H)
	DD	00H
	DD	01H
xdata$x	ENDS
;	COMDAT xdata$x
xdata$x	SEGMENT
__unwindtable$?SendQueryGuildBank@CDPDatabaseClient@@QAEXXZ DD 0ffffffffH
	DD	FLAT:__unwindfunclet$?SendQueryGuildBank@CDPDatabaseClient@@QAEXXZ$0
__ehfuncinfo$?SendQueryGuildBank@CDPDatabaseClient@@QAEXXZ DD 019930522H
	DD	01H
	DD	FLAT:__unwindtable$?SendQueryGuildBank@CDPDatabaseClient@@QAEXXZ
	DD	2 DUP(00H)
	DD	2 DUP(00H)
	DD	00H
	DD	01H
xdata$x	ENDS
;	COMDAT xdata$x
xdata$x	SEGMENT
__unwindtable$?SendUpdateGuildQuest@CDPDatabaseClient@@QAEXKHH@Z DD 0ffffffffH
	DD	FLAT:__unwindfunclet$?SendUpdateGuildQuest@CDPDatabaseClient@@QAEXKHH@Z$0
__ehfuncinfo$?SendUpdateGuildQuest@CDPDatabaseClient@@QAEXKHH@Z DD 019930522H
	DD	01H
	DD	FLAT:__unwindtable$?SendUpdateGuildQuest@CDPDatabaseClient@@QAEXKHH@Z
	DD	2 DUP(00H)
	DD	2 DUP(00H)
	DD	00H
	DD	01H
xdata$x	ENDS
;	COMDAT xdata$x
xdata$x	SEGMENT
__unwindtable$?SendInsertGuildQuest@CDPDatabaseClient@@QAEXKH@Z DD 0ffffffffH
	DD	FLAT:__unwindfunclet$?SendInsertGuildQuest@CDPDatabaseClient@@QAEXKH@Z$0
__ehfuncinfo$?SendInsertGuildQuest@CDPDatabaseClient@@QAEXKH@Z DD 019930522H
	DD	01H
	DD	FLAT:__unwindtable$?SendInsertGuildQuest@CDPDatabaseClient@@QAEXKH@Z
	DD	2 DUP(00H)
	DD	2 DUP(00H)
	DD	00H
	DD	01H
xdata$x	ENDS
;	COMDAT xdata$x
xdata$x	SEGMENT
__unwindtable$?SendQueryGuildQuest@CDPDatabaseClient@@QAEXXZ DD 0ffffffffH
	DD	FLAT:__unwindfunclet$?SendQueryGuildQuest@CDPDatabaseClient@@QAEXXZ$0
__ehfuncinfo$?SendQueryGuildQuest@CDPDatabaseClient@@QAEXXZ DD 019930522H
	DD	01H
	DD	FLAT:__unwindtable$?SendQueryGuildQuest@CDPDatabaseClient@@QAEXXZ
	DD	2 DUP(00H)
	DD	2 DUP(00H)
	DD	00H
	DD	01H
xdata$x	ENDS
;	COMDAT xdata$x
xdata$x	SEGMENT
__unwindtable$?SendLogExpBox@CDPDatabaseClient@@QAEXKK_JH@Z DD 0ffffffffH
	DD	FLAT:__unwindfunclet$?SendLogExpBox@CDPDatabaseClient@@QAEXKK_JH@Z$0
__ehfuncinfo$?SendLogExpBox@CDPDatabaseClient@@QAEXKK_JH@Z DD 019930522H
	DD	01H
	DD	FLAT:__unwindtable$?SendLogExpBox@CDPDatabaseClient@@QAEXKK_JH@Z
	DD	2 DUP(00H)
	DD	2 DUP(00H)
	DD	00H
	DD	01H
xdata$x	ENDS
;	COMDAT xdata$x
xdata$x	SEGMENT
__unwindtable$?CalluspXXXMultiServer@CDPDatabaseClient@@QAEXKPAVCUser@@@Z DD 0ffffffffH
	DD	FLAT:__unwindfunclet$?CalluspXXXMultiServer@CDPDatabaseClient@@QAEXKPAVCUser@@@Z$0
__ehfuncinfo$?CalluspXXXMultiServer@CDPDatabaseClient@@QAEXKPAVCUser@@@Z DD 019930522H
	DD	01H
	DD	FLAT:__unwindtable$?CalluspXXXMultiServer@CDPDatabaseClient@@QAEXKPAVCUser@@@Z
	DD	2 DUP(00H)
	DD	2 DUP(00H)
	DD	00H
	DD	01H
xdata$x	ENDS
;	COMDAT xdata$x
xdata$x	SEGMENT
__unwindtable$?SendGuildcombatContinue@CDPDatabaseClient@@QAEXHKH@Z DD 0ffffffffH
	DD	FLAT:__unwindfunclet$?SendGuildcombatContinue@CDPDatabaseClient@@QAEXHKH@Z$0
__ehfuncinfo$?SendGuildcombatContinue@CDPDatabaseClient@@QAEXHKH@Z DD 019930522H
	DD	01H
	DD	FLAT:__unwindtable$?SendGuildcombatContinue@CDPDatabaseClient@@QAEXHKH@Z
	DD	2 DUP(00H)
	DD	2 DUP(00H)
	DD	00H
	DD	01H
xdata$x	ENDS
;	COMDAT xdata$x
xdata$x	SEGMENT
__unwindtable$?SendGCGetPenyaPlayer@CDPDatabaseClient@@QAEXKHK@Z DD 0ffffffffH
	DD	FLAT:__unwindfunclet$?SendGCGetPenyaPlayer@CDPDatabaseClient@@QAEXKHK@Z$0
__ehfuncinfo$?SendGCGetPenyaPlayer@CDPDatabaseClient@@QAEXKHK@Z DD 019930522H
	DD	01H
	DD	FLAT:__unwindtable$?SendGCGetPenyaPlayer@CDPDatabaseClient@@QAEXKHK@Z
	DD	2 DUP(00H)
	DD	2 DUP(00H)
	DD	00H
	DD	01H
xdata$x	ENDS
;	COMDAT xdata$x
xdata$x	SEGMENT
__unwindtable$?SendGCGetPenyaGuild@CDPDatabaseClient@@QAEXKHK@Z DD 0ffffffffH
	DD	FLAT:__unwindfunclet$?SendGCGetPenyaGuild@CDPDatabaseClient@@QAEXKHK@Z$0
__ehfuncinfo$?SendGCGetPenyaGuild@CDPDatabaseClient@@QAEXKHK@Z DD 019930522H
	DD	01H
	DD	FLAT:__unwindtable$?SendGCGetPenyaGuild@CDPDatabaseClient@@QAEXKHK@Z
	DD	2 DUP(00H)
	DD	2 DUP(00H)
	DD	00H
	DD	01H
xdata$x	ENDS
;	COMDAT xdata$x
xdata$x	SEGMENT
__unwindtable$?SendGuildCombatStart@CDPDatabaseClient@@QAEXXZ DD 0ffffffffH
	DD	FLAT:__unwindfunclet$?SendGuildCombatStart@CDPDatabaseClient@@QAEXXZ$0
__ehfuncinfo$?SendGuildCombatStart@CDPDatabaseClient@@QAEXXZ DD 019930522H
	DD	01H
	DD	FLAT:__unwindtable$?SendGuildCombatStart@CDPDatabaseClient@@QAEXXZ
	DD	2 DUP(00H)
	DD	2 DUP(00H)
	DD	00H
	DD	01H
xdata$x	ENDS
;	COMDAT xdata$x
xdata$x	SEGMENT
__unwindtable$?SendGuildCombatResult@CDPDatabaseClient@@QAEXXZ DD 0ffffffffH
	DD	FLAT:__unwindfunclet$?SendGuildCombatResult@CDPDatabaseClient@@QAEXXZ$0
	DD	00H
	DD	FLAT:__unwindfunclet$?SendGuildCombatResult@CDPDatabaseClient@@QAEXXZ$1
__ehfuncinfo$?SendGuildCombatResult@CDPDatabaseClient@@QAEXXZ DD 019930522H
	DD	02H
	DD	FLAT:__unwindtable$?SendGuildCombatResult@CDPDatabaseClient@@QAEXXZ
	DD	2 DUP(00H)
	DD	2 DUP(00H)
	DD	00H
	DD	01H
xdata$x	ENDS
;	COMDAT xdata$x
xdata$x	SEGMENT
__unwindtable$?SendOutGuildCombat@CDPDatabaseClient@@QAEXK@Z DD 0ffffffffH
	DD	FLAT:__unwindfunclet$?SendOutGuildCombat@CDPDatabaseClient@@QAEXK@Z$0
__ehfuncinfo$?SendOutGuildCombat@CDPDatabaseClient@@QAEXK@Z DD 019930522H
	DD	01H
	DD	FLAT:__unwindtable$?SendOutGuildCombat@CDPDatabaseClient@@QAEXK@Z
	DD	2 DUP(00H)
	DD	2 DUP(00H)
	DD	00H
	DD	01H
xdata$x	ENDS
;	COMDAT xdata$x
xdata$x	SEGMENT
__unwindtable$?SendInGuildCombat@CDPDatabaseClient@@QAEXKKK@Z DD 0ffffffffH
	DD	FLAT:__unwindfunclet$?SendInGuildCombat@CDPDatabaseClient@@QAEXKKK@Z$0
__ehfuncinfo$?SendInGuildCombat@CDPDatabaseClient@@QAEXKKK@Z DD 019930522H
	DD	01H
	DD	FLAT:__unwindtable$?SendInGuildCombat@CDPDatabaseClient@@QAEXKKK@Z
	DD	2 DUP(00H)
	DD	2 DUP(00H)
	DD	00H
	DD	01H
xdata$x	ENDS
;	COMDAT xdata$x
xdata$x	SEGMENT
__unwindtable$?SendPing@CDPDatabaseClient@@QAEXXZ DD 0ffffffffH
	DD	FLAT:__unwindfunclet$?SendPing@CDPDatabaseClient@@QAEXXZ$0
__ehfuncinfo$?SendPing@CDPDatabaseClient@@QAEXXZ DD 019930522H
	DD	01H
	DD	FLAT:__unwindtable$?SendPing@CDPDatabaseClient@@QAEXXZ
	DD	2 DUP(00H)
	DD	2 DUP(00H)
	DD	00H
	DD	01H
xdata$x	ENDS
;	COMDAT xdata$x
xdata$x	SEGMENT
__unwindtable$?SendLogSchool@CDPDatabaseClient@@QAEXKPBD@Z DD 0ffffffffH
	DD	FLAT:__unwindfunclet$?SendLogSchool@CDPDatabaseClient@@QAEXKPBD@Z$0
__ehfuncinfo$?SendLogSchool@CDPDatabaseClient@@QAEXKPBD@Z DD 019930522H
	DD	01H
	DD	FLAT:__unwindtable$?SendLogSchool@CDPDatabaseClient@@QAEXKPBD@Z
	DD	2 DUP(00H)
	DD	2 DUP(00H)
	DD	00H
	DD	01H
xdata$x	ENDS
;	COMDAT xdata$x
xdata$x	SEGMENT
__unwindtable$?SendLogPkPvp@CDPDatabaseClient@@QAEXPAVCMover@@0HD@Z DD 0ffffffffH
	DD	FLAT:__unwindfunclet$?SendLogPkPvp@CDPDatabaseClient@@QAEXPAVCMover@@0HD@Z$0
__ehfuncinfo$?SendLogPkPvp@CDPDatabaseClient@@QAEXPAVCMover@@0HD@Z DD 019930522H
	DD	01H
	DD	FLAT:__unwindtable$?SendLogPkPvp@CDPDatabaseClient@@QAEXPAVCMover@@0HD@Z
	DD	2 DUP(00H)
	DD	2 DUP(00H)
	DD	00H
	DD	01H
xdata$x	ENDS
;	COMDAT xdata$x
xdata$x	SEGMENT
__unwindtable$?SendChangeBankPass@CDPDatabaseClient@@QAEXPBD0K@Z DD 0ffffffffH
	DD	FLAT:__unwindfunclet$?SendChangeBankPass@CDPDatabaseClient@@QAEXPBD0K@Z$0
__ehfuncinfo$?SendChangeBankPass@CDPDatabaseClient@@QAEXPBD0K@Z DD 019930522H
	DD	01H
	DD	FLAT:__unwindtable$?SendChangeBankPass@CDPDatabaseClient@@QAEXPBD0K@Z
	DD	2 DUP(00H)
	DD	2 DUP(00H)
	DD	00H
	DD	01H
xdata$x	ENDS
;	COMDAT xdata$x
xdata$x	SEGMENT
__unwindtable$?SendLogUniqueItem2@CDPDatabaseClient@@QAEXPAVCMover@@PAUItemProp@@H@Z DD 0ffffffffH
	DD	FLAT:__unwindfunclet$?SendLogUniqueItem2@CDPDatabaseClient@@QAEXPAVCMover@@PAUItemProp@@H@Z$0
__ehfuncinfo$?SendLogUniqueItem2@CDPDatabaseClient@@QAEXPAVCMover@@PAUItemProp@@H@Z DD 019930522H
	DD	01H
	DD	FLAT:__unwindtable$?SendLogUniqueItem2@CDPDatabaseClient@@QAEXPAVCMover@@PAUItemProp@@H@Z
	DD	2 DUP(00H)
	DD	2 DUP(00H)
	DD	00H
	DD	01H
xdata$x	ENDS
;	COMDAT xdata$x
xdata$x	SEGMENT
__unwindtable$?SendLogGamemaChat@CDPDatabaseClient@@QAEXPAVCUser@@PBD@Z DD 0ffffffffH
	DD	FLAT:__unwindfunclet$?SendLogGamemaChat@CDPDatabaseClient@@QAEXPAVCUser@@PBD@Z$0
__ehfuncinfo$?SendLogGamemaChat@CDPDatabaseClient@@QAEXPAVCUser@@PBD@Z DD 019930522H
	DD	01H
	DD	FLAT:__unwindtable$?SendLogGamemaChat@CDPDatabaseClient@@QAEXPAVCUser@@PBD@Z
	DD	2 DUP(00H)
	DD	2 DUP(00H)
	DD	00H
	DD	01H
xdata$x	ENDS
;	COMDAT xdata$x
xdata$x	SEGMENT
__unwindtable$?SendLogSMItemUse@CDPDatabaseClient@@QAEXPBDPAVCUser@@PAVCItemElem@@PAUItemProp@@0@Z DD 0ffffffffH
	DD	FLAT:__unwindfunclet$?SendLogSMItemUse@CDPDatabaseClient@@QAEXPBDPAVCUser@@PAVCItemElem@@PAUItemProp@@0@Z$0
__ehfuncinfo$?SendLogSMItemUse@CDPDatabaseClient@@QAEXPBDPAVCUser@@PAVCItemElem@@PAUItemProp@@0@Z DD 019930522H
	DD	01H
	DD	FLAT:__unwindtable$?SendLogSMItemUse@CDPDatabaseClient@@QAEXPBDPAVCUser@@PAVCItemElem@@PAUItemProp@@0@Z
	DD	2 DUP(00H)
	DD	2 DUP(00H)
	DD	00H
	DD	01H
xdata$x	ENDS
;	COMDAT xdata$x
xdata$x	SEGMENT
__unwindtable$?SendLogSkillPoint@CDPDatabaseClient@@QAEXHHPAVCMover@@PAUtagSkill@@@Z DD 0ffffffffH
	DD	FLAT:__unwindfunclet$?SendLogSkillPoint@CDPDatabaseClient@@QAEXHHPAVCMover@@PAUtagSkill@@@Z$0
__ehfuncinfo$?SendLogSkillPoint@CDPDatabaseClient@@QAEXHHPAVCMover@@PAUtagSkill@@@Z DD 019930522H
	DD	01H
	DD	FLAT:__unwindtable$?SendLogSkillPoint@CDPDatabaseClient@@QAEXHHPAVCMover@@PAUtagSkill@@@Z
	DD	2 DUP(00H)
	DD	2 DUP(00H)
	DD	00H
	DD	01H
xdata$x	ENDS
;	COMDAT xdata$x
xdata$x	SEGMENT
__unwindtable$?SendLogLevelUp@CDPDatabaseClient@@QAEXPAVCMover@@H@Z DD 0ffffffffH
	DD	FLAT:__unwindfunclet$?SendLogLevelUp@CDPDatabaseClient@@QAEXPAVCMover@@H@Z$0
__ehfuncinfo$?SendLogLevelUp@CDPDatabaseClient@@QAEXPAVCMover@@H@Z DD 019930522H
	DD	01H
	DD	FLAT:__unwindtable$?SendLogLevelUp@CDPDatabaseClient@@QAEXPAVCMover@@H@Z
	DD	2 DUP(00H)
	DD	2 DUP(00H)
	DD	00H
	DD	01H
xdata$x	ENDS
;	COMDAT xdata$x
xdata$x	SEGMENT
__unwindtable$?SendLogPlayDeath@CDPDatabaseClient@@QAEXPAVCMover@@0@Z DD 0ffffffffH
	DD	FLAT:__unwindfunclet$?SendLogPlayDeath@CDPDatabaseClient@@QAEXPAVCMover@@0@Z$0
__ehfuncinfo$?SendLogPlayDeath@CDPDatabaseClient@@QAEXPAVCMover@@0@Z DD 019930522H
	DD	01H
	DD	FLAT:__unwindtable$?SendLogPlayDeath@CDPDatabaseClient@@QAEXPAVCMover@@0@Z
	DD	2 DUP(00H)
	DD	2 DUP(00H)
	DD	00H
	DD	01H
xdata$x	ENDS
;	COMDAT xdata$x
xdata$x	SEGMENT
__unwindtable$?SendLogConnect@CDPDatabaseClient@@QAEXPAVCUser@@@Z DD 0ffffffffH
	DD	FLAT:__unwindfunclet$?SendLogConnect@CDPDatabaseClient@@QAEXPAVCUser@@@Z$0
__ehfuncinfo$?SendLogConnect@CDPDatabaseClient@@QAEXPAVCUser@@@Z DD 019930522H
	DD	01H
	DD	FLAT:__unwindtable$?SendLogConnect@CDPDatabaseClient@@QAEXPAVCUser@@@Z
	DD	2 DUP(00H)
	DD	2 DUP(00H)
	DD	00H
	DD	01H
xdata$x	ENDS
;	COMDAT xdata$x
xdata$x	SEGMENT
__unwindtable$?SendRecommend@CDPDatabaseClient@@QAEXPAVCUser@@H@Z DD 0ffffffffH
	DD	FLAT:__unwindfunclet$?SendRecommend@CDPDatabaseClient@@QAEXPAVCUser@@H@Z$0
__ehfuncinfo$?SendRecommend@CDPDatabaseClient@@QAEXPAVCUser@@H@Z DD 019930522H
	DD	01H
	DD	FLAT:__unwindtable$?SendRecommend@CDPDatabaseClient@@QAEXPAVCUser@@H@Z
	DD	2 DUP(00H)
	DD	2 DUP(00H)
	DD	00H
	DD	01H
xdata$x	ENDS
;	COMDAT xdata$x
xdata$x	SEGMENT
__unwindtable$?SavePlayer@CDPDatabaseClient@@QAEXPAVCUser@@KAAUD3DXVECTOR3@@HH@Z DD 0ffffffffH
	DD	FLAT:__unwindfunclet$?SavePlayer@CDPDatabaseClient@@QAEXPAVCUser@@KAAUD3DXVECTOR3@@HH@Z$0
__ehfuncinfo$?SavePlayer@CDPDatabaseClient@@QAEXPAVCUser@@KAAUD3DXVECTOR3@@HH@Z DD 019930522H
	DD	01H
	DD	FLAT:__unwindtable$?SavePlayer@CDPDatabaseClient@@QAEXPAVCUser@@KAAUD3DXVECTOR3@@HH@Z
	DD	2 DUP(00H)
	DD	2 DUP(00H)
	DD	00H
	DD	01H
xdata$x	ENDS
;	COMDAT xdata$x
xdata$x	SEGMENT
__unwindtable$?SendITEM_TBL_Update@CDPDatabaseClient@@QAEXXZ DD 0ffffffffH
	DD	FLAT:__unwindfunclet$?SendITEM_TBL_Update@CDPDatabaseClient@@QAEXXZ$0
__ehfuncinfo$?SendITEM_TBL_Update@CDPDatabaseClient@@QAEXXZ DD 019930522H
	DD	01H
	DD	FLAT:__unwindtable$?SendITEM_TBL_Update@CDPDatabaseClient@@QAEXXZ
	DD	2 DUP(00H)
	DD	2 DUP(00H)
	DD	00H
	DD	01H
xdata$x	ENDS
;	COMDAT xdata$x
xdata$x	SEGMENT
__ehfuncinfo$?UserMessageHandler@CDPDatabaseClient@@UAEXPAUDPMSG_GENERIC@@KK@Z DD 019930522H
	DD	06H
	DD	FLAT:__unwindtable$?UserMessageHandler@CDPDatabaseClient@@UAEXPAUDPMSG_GENERIC@@KK@Z
	DD	2 DUP(00H)
	DD	2 DUP(00H)
	DD	00H
	DD	01H
__unwindtable$?UserMessageHandler@CDPDatabaseClient@@UAEXPAUDPMSG_GENERIC@@KK@Z DD 0ffffffffH
	DD	FLAT:__unwindfunclet$?UserMessageHandler@CDPDatabaseClient@@UAEXPAUDPMSG_GENERIC@@KK@Z$0
	DD	00H
	DD	FLAT:__unwindfunclet$?UserMessageHandler@CDPDatabaseClient@@UAEXPAUDPMSG_GENERIC@@KK@Z$1
	DD	00H
	DD	FLAT:__unwindfunclet$?UserMessageHandler@CDPDatabaseClient@@UAEXPAUDPMSG_GENERIC@@KK@Z$2
	DD	02H
	DD	FLAT:__unwindfunclet$?UserMessageHandler@CDPDatabaseClient@@UAEXPAUDPMSG_GENERIC@@KK@Z$3
	DD	03H
	DD	FLAT:__unwindfunclet$?UserMessageHandler@CDPDatabaseClient@@UAEXPAUDPMSG_GENERIC@@KK@Z$9
	DD	03H
	DD	FLAT:__unwindfunclet$?UserMessageHandler@CDPDatabaseClient@@UAEXPAUDPMSG_GENERIC@@KK@Z$8
xdata$x	ENDS
;	COMDAT xdata$x
xdata$x	SEGMENT
__ehfuncinfo$??0CDPDatabaseClient@@QAE@XZ DD 019930522H
	DD	0bH
	DD	FLAT:__unwindtable$??0CDPDatabaseClient@@QAE@XZ
	DD	2 DUP(00H)
	DD	2 DUP(00H)
	DD	00H
	DD	01H
__unwindtable$??0CDPDatabaseClient@@QAE@XZ DD 0ffffffffH
	DD	FLAT:__unwindfunclet$??0CDPDatabaseClient@@QAE@XZ$0
	DD	00H
	DD	FLAT:__unwindfunclet$??0CDPDatabaseClient@@QAE@XZ$1
	DD	01H
	DD	FLAT:__unwindfunclet$??0CDPDatabaseClient@@QAE@XZ$5
	DD	01H
	DD	FLAT:__unwindfunclet$??0CDPDatabaseClient@@QAE@XZ$10
	DD	01H
	DD	FLAT:__unwindfunclet$??0CDPDatabaseClient@@QAE@XZ$15
	DD	01H
	DD	FLAT:__unwindfunclet$??0CDPDatabaseClient@@QAE@XZ$20
	DD	01H
	DD	FLAT:__unwindfunclet$??0CDPDatabaseClient@@QAE@XZ$25
	DD	01H
	DD	FLAT:__unwindfunclet$??0CDPDatabaseClient@@QAE@XZ$30
	DD	01H
	DD	FLAT:__unwindfunclet$??0CDPDatabaseClient@@QAE@XZ$35
	DD	01H
	DD	FLAT:__unwindfunclet$??0CDPDatabaseClient@@QAE@XZ$40
	DD	01H
	DD	FLAT:__unwindfunclet$??0CDPDatabaseClient@@QAE@XZ$45
xdata$x	ENDS
;	COMDAT xdata$x
xdata$x	SEGMENT
__unwindtable$??0__SECRETROOM_TENDER@@QAE@ABU0@@Z DD 0ffffffffH
	DD	FLAT:__unwindfunclet$??0__SECRETROOM_TENDER@@QAE@ABU0@@Z$0
__ehfuncinfo$??0__SECRETROOM_TENDER@@QAE@ABU0@@Z DD 019930522H
	DD	01H
	DD	FLAT:__unwindtable$??0__SECRETROOM_TENDER@@QAE@ABU0@@Z
	DD	2 DUP(00H)
	DD	2 DUP(00H)
	DD	00H
	DD	01H
xdata$x	ENDS
;	COMDAT xdata$x
xdata$x	SEGMENT
__unwindtable$?FormatV@?$CStringT@DV?$StrTraitMFC@DV?$ChTraitsCRT@D@ATL@@@@@ATL@@QAEXPBDPAD@Z DD 0ffffffffH
	DD	FLAT:__unwindfunclet$?FormatV@?$CStringT@DV?$StrTraitMFC@DV?$ChTraitsCRT@D@ATL@@@@@ATL@@QAEXPBDPAD@Z$1
	DD	0ffffffffH
	DD	FLAT:__unwindfunclet$?FormatV@?$CStringT@DV?$StrTraitMFC@DV?$ChTraitsCRT@D@ATL@@@@@ATL@@QAEXPBDPAD@Z$0
__ehfuncinfo$?FormatV@?$CStringT@DV?$StrTraitMFC@DV?$ChTraitsCRT@D@ATL@@@@@ATL@@QAEXPBDPAD@Z DD 019930522H
	DD	02H
	DD	FLAT:__unwindtable$?FormatV@?$CStringT@DV?$StrTraitMFC@DV?$ChTraitsCRT@D@ATL@@@@@ATL@@QAEXPBDPAD@Z
	DD	2 DUP(00H)
	DD	2 DUP(00H)
	DD	00H
	DD	01H
xdata$x	ENDS
;	COMDAT xdata$x
xdata$x	SEGMENT
__unwindtable$??0?$CStringT@DV?$StrTraitMFC@DV?$ChTraitsCRT@D@ATL@@@@@ATL@@QAE@PBDPAUIAtlStringMgr@1@@Z DD 0ffffffffH
	DD	FLAT:__unwindfunclet$??0?$CStringT@DV?$StrTraitMFC@DV?$ChTraitsCRT@D@ATL@@@@@ATL@@QAE@PBDPAUIAtlStringMgr@1@@Z$0
__ehfuncinfo$??0?$CStringT@DV?$StrTraitMFC@DV?$ChTraitsCRT@D@ATL@@@@@ATL@@QAE@PBDPAUIAtlStringMgr@1@@Z DD 019930522H
	DD	01H
	DD	FLAT:__unwindtable$??0?$CStringT@DV?$StrTraitMFC@DV?$ChTraitsCRT@D@ATL@@@@@ATL@@QAE@PBDPAUIAtlStringMgr@1@@Z
	DD	2 DUP(00H)
	DD	2 DUP(00H)
	DD	00H
	DD	01H
xdata$x	ENDS
; Function compile flags: /Ogtp
; File C:\Program Files\Microsoft Visual Studio\2022\Professional\VC\Tools\MSVC\14.44.35207\include\xutility
;	COMDAT ??$_Copy_memmove_tail@PAU__SECRETROOM_MONSTER@@@std@@YAPAU__SECRETROOM_MONSTER@@QBDQAU1@II@Z
_TEXT	SEGMENT
__First_ch$ = 8						; size = 4
__Dest$ = 12						; size = 4
__Byte_count$ = 16					; size = 4
__Object_count$ = 20					; size = 4
??$_Copy_memmove_tail@PAU__SECRETROOM_MONSTER@@@std@@YAPAU__SECRETROOM_MONSTER@@QBDQAU1@II@Z PROC ; std::_Copy_memmove_tail<__SECRETROOM_MONSTER *>, COMDAT

; 4747 :     const char* const _First_ch, const _OutCtgIt _Dest, const size_t _Byte_count, const size_t _Object_count) {

  00000	55		 push	 ebp
  00001	8b ec		 mov	 ebp, esp
  00003	56		 push	 esi

; 4748 :     _STL_INTERNAL_CHECK(_Byte_count == _Object_count * sizeof(*_Dest));
; 4749 :     const auto _Dest_ptr = _STD _To_address(_Dest);
; 4750 :     const auto _Dest_ch  = const_cast<char*>(reinterpret_cast<const volatile char*>(_Dest_ptr));
; 4751 :     _CSTD memmove(_Dest_ch, _First_ch, _Byte_count);

  00004	8b 75 0c	 mov	 esi, DWORD PTR __Dest$[ebp]
  00007	57		 push	 edi
  00008	8b 7d 10	 mov	 edi, DWORD PTR __Byte_count$[ebp]
  0000b	57		 push	 edi
  0000c	ff 75 08	 push	 DWORD PTR __First_ch$[ebp]
  0000f	56		 push	 esi
  00010	e8 00 00 00 00	 call	 _memmove
  00015	83 c4 0c	 add	 esp, 12			; 0000000cH

; 4752 :     if constexpr (is_pointer_v<_OutCtgIt>) {
; 4753 :         (void) _Object_count;
; 4754 :         // CodeQL [SM02986] This cast is correct: we're bypassing pointer arithmetic for performance.
; 4755 :         return reinterpret_cast<_OutCtgIt>(_Dest_ch + _Byte_count);

  00018	8d 04 3e	 lea	 eax, DWORD PTR [esi+edi]
  0001b	5f		 pop	 edi
  0001c	5e		 pop	 esi

; 4756 :     } else {
; 4757 :         return _Dest + static_cast<_Iter_diff_t<_OutCtgIt>>(_Object_count);
; 4758 :     }
; 4759 : }

  0001d	5d		 pop	 ebp
  0001e	c3		 ret	 0
??$_Copy_memmove_tail@PAU__SECRETROOM_MONSTER@@@std@@YAPAU__SECRETROOM_MONSTER@@QBDQAU1@II@Z ENDP ; std::_Copy_memmove_tail<__SECRETROOM_MONSTER *>
_TEXT	ENDS
; Function compile flags: /Ogtp
; File C:\Program Files\Microsoft Visual Studio\2022\Professional\VC\Tools\MSVC\14.44.35207\include\xutility
;	COMDAT ??$_Copy_memmove@PAU__SECRETROOM_MONSTER@@PAU1@@std@@YAPAU__SECRETROOM_MONSTER@@PAU1@00@Z
_TEXT	SEGMENT
__First$ = 8						; size = 4
__Last$ = 12						; size = 4
__Dest$ = 16						; size = 4
??$_Copy_memmove@PAU__SECRETROOM_MONSTER@@PAU1@@std@@YAPAU__SECRETROOM_MONSTER@@PAU1@00@Z PROC ; std::_Copy_memmove<__SECRETROOM_MONSTER *,__SECRETROOM_MONSTER *>, COMDAT

; 4762 : _OutCtgIt _Copy_memmove(_CtgIt _First, _CtgIt _Last, _OutCtgIt _Dest) {

  00000	55		 push	 ebp
  00001	8b ec		 mov	 ebp, esp

; 4763 :     _STL_INTERNAL_CHECK(_First <= _Last);
; 4764 :     const auto _First_ptr    = _STD _To_address(_First);
; 4765 :     const auto _Last_ptr     = _STD _To_address(_Last);
; 4766 :     const auto _Object_count = static_cast<size_t>(_Last_ptr - _First_ptr);

  00003	8b 55 08	 mov	 edx, DWORD PTR __First$[ebp]
  00006	8b 4d 0c	 mov	 ecx, DWORD PTR __Last$[ebp]
  00009	2b ca		 sub	 ecx, edx
  0000b	8b c1		 mov	 eax, ecx
  0000d	c1 f8 05	 sar	 eax, 5

; 4767 :     const auto _First_ch     = const_cast<const char*>(reinterpret_cast<const volatile char*>(_First_ptr));
; 4768 :     const auto _Last_ch      = const_cast<const char*>(reinterpret_cast<const volatile char*>(_Last_ptr));
; 4769 :     const auto _Byte_count   = static_cast<size_t>(_Last_ch - _First_ch);
; 4770 :     return _STD _Copy_memmove_tail(_First_ch, _STD move(_Dest), _Byte_count, _Object_count);

  00010	50		 push	 eax
  00011	51		 push	 ecx
  00012	ff 75 10	 push	 DWORD PTR __Dest$[ebp]
  00015	52		 push	 edx
  00016	e8 00 00 00 00	 call	 ??$_Copy_memmove_tail@PAU__SECRETROOM_MONSTER@@@std@@YAPAU__SECRETROOM_MONSTER@@QBDQAU1@II@Z ; std::_Copy_memmove_tail<__SECRETROOM_MONSTER *>
  0001b	83 c4 10	 add	 esp, 16			; 00000010H

; 4771 : }

  0001e	5d		 pop	 ebp
  0001f	c3		 ret	 0
??$_Copy_memmove@PAU__SECRETROOM_MONSTER@@PAU1@@std@@YAPAU__SECRETROOM_MONSTER@@PAU1@00@Z ENDP ; std::_Copy_memmove<__SECRETROOM_MONSTER *,__SECRETROOM_MONSTER *>
_TEXT	ENDS
; Function compile flags: /Ogtp
; File C:\Program Files\Microsoft Visual Studio\2022\Professional\VC\Tools\MSVC\14.44.35207\include\xutility
;	COMDAT ??$_Copy_memmove_tail@PAU__GCPLAYERPOINT@CGuildCombat@@@std@@YAPAU__GCPLAYERPOINT@CGuildCombat@@QBDQAU12@II@Z
_TEXT	SEGMENT
__First_ch$ = 8						; size = 4
__Dest$ = 12						; size = 4
__Byte_count$ = 16					; size = 4
__Object_count$ = 20					; size = 4
??$_Copy_memmove_tail@PAU__GCPLAYERPOINT@CGuildCombat@@@std@@YAPAU__GCPLAYERPOINT@CGuildCombat@@QBDQAU12@II@Z PROC ; std::_Copy_memmove_tail<CGuildCombat::__GCPLAYERPOINT *>, COMDAT

; 4747 :     const char* const _First_ch, const _OutCtgIt _Dest, const size_t _Byte_count, const size_t _Object_count) {

  00000	55		 push	 ebp
  00001	8b ec		 mov	 ebp, esp
  00003	56		 push	 esi

; 4748 :     _STL_INTERNAL_CHECK(_Byte_count == _Object_count * sizeof(*_Dest));
; 4749 :     const auto _Dest_ptr = _STD _To_address(_Dest);
; 4750 :     const auto _Dest_ch  = const_cast<char*>(reinterpret_cast<const volatile char*>(_Dest_ptr));
; 4751 :     _CSTD memmove(_Dest_ch, _First_ch, _Byte_count);

  00004	8b 75 0c	 mov	 esi, DWORD PTR __Dest$[ebp]
  00007	57		 push	 edi
  00008	8b 7d 10	 mov	 edi, DWORD PTR __Byte_count$[ebp]
  0000b	57		 push	 edi
  0000c	ff 75 08	 push	 DWORD PTR __First_ch$[ebp]
  0000f	56		 push	 esi
  00010	e8 00 00 00 00	 call	 _memmove
  00015	83 c4 0c	 add	 esp, 12			; 0000000cH

; 4752 :     if constexpr (is_pointer_v<_OutCtgIt>) {
; 4753 :         (void) _Object_count;
; 4754 :         // CodeQL [SM02986] This cast is correct: we're bypassing pointer arithmetic for performance.
; 4755 :         return reinterpret_cast<_OutCtgIt>(_Dest_ch + _Byte_count);

  00018	8d 04 3e	 lea	 eax, DWORD PTR [esi+edi]
  0001b	5f		 pop	 edi
  0001c	5e		 pop	 esi

; 4756 :     } else {
; 4757 :         return _Dest + static_cast<_Iter_diff_t<_OutCtgIt>>(_Object_count);
; 4758 :     }
; 4759 : }

  0001d	5d		 pop	 ebp
  0001e	c3		 ret	 0
??$_Copy_memmove_tail@PAU__GCPLAYERPOINT@CGuildCombat@@@std@@YAPAU__GCPLAYERPOINT@CGuildCombat@@QBDQAU12@II@Z ENDP ; std::_Copy_memmove_tail<CGuildCombat::__GCPLAYERPOINT *>
_TEXT	ENDS
; Function compile flags: /Ogtp
; File C:\Program Files\Microsoft Visual Studio\2022\Professional\VC\Tools\MSVC\14.44.35207\include\xutility
;	COMDAT ??$_Copy_memmove@PAKPAK@std@@YAPAKPAK00@Z
_TEXT	SEGMENT
__First$ = 8						; size = 4
__Last$ = 12						; size = 4
__Dest$ = 16						; size = 4
??$_Copy_memmove@PAKPAK@std@@YAPAKPAK00@Z PROC		; std::_Copy_memmove<unsigned long *,unsigned long *>, COMDAT

; 4762 : _OutCtgIt _Copy_memmove(_CtgIt _First, _CtgIt _Last, _OutCtgIt _Dest) {

  00000	55		 push	 ebp
  00001	8b ec		 mov	 ebp, esp

; 4763 :     _STL_INTERNAL_CHECK(_First <= _Last);
; 4764 :     const auto _First_ptr    = _STD _To_address(_First);
; 4765 :     const auto _Last_ptr     = _STD _To_address(_Last);
; 4766 :     const auto _Object_count = static_cast<size_t>(_Last_ptr - _First_ptr);

  00003	8b 55 08	 mov	 edx, DWORD PTR __First$[ebp]
  00006	8b 4d 0c	 mov	 ecx, DWORD PTR __Last$[ebp]
  00009	2b ca		 sub	 ecx, edx
  0000b	8b c1		 mov	 eax, ecx
  0000d	c1 f8 02	 sar	 eax, 2

; 4767 :     const auto _First_ch     = const_cast<const char*>(reinterpret_cast<const volatile char*>(_First_ptr));
; 4768 :     const auto _Last_ch      = const_cast<const char*>(reinterpret_cast<const volatile char*>(_Last_ptr));
; 4769 :     const auto _Byte_count   = static_cast<size_t>(_Last_ch - _First_ch);
; 4770 :     return _STD _Copy_memmove_tail(_First_ch, _STD move(_Dest), _Byte_count, _Object_count);

  00010	50		 push	 eax
  00011	51		 push	 ecx
  00012	ff 75 10	 push	 DWORD PTR __Dest$[ebp]
  00015	52		 push	 edx
  00016	e8 00 00 00 00	 call	 ??$_Copy_memmove_tail@PAK@std@@YAPAKQBDQAKII@Z ; std::_Copy_memmove_tail<unsigned long *>
  0001b	83 c4 10	 add	 esp, 16			; 00000010H

; 4771 : }

  0001e	5d		 pop	 ebp
  0001f	c3		 ret	 0
??$_Copy_memmove@PAKPAK@std@@YAPAKPAK00@Z ENDP		; std::_Copy_memmove<unsigned long *,unsigned long *>
_TEXT	ENDS
; Function compile flags: /Ogtp
; File C:\Program Files\Microsoft Visual Studio\2022\Professional\VC\Tools\MSVC\14.44.35207\include\xutility
;	COMDAT ??$_Copy_memmove@PAU__GCPLAYERPOINT@CGuildCombat@@PAU12@@std@@YAPAU__GCPLAYERPOINT@CGuildCombat@@PAU12@00@Z
_TEXT	SEGMENT
__First$ = 8						; size = 4
__Last$ = 12						; size = 4
__Dest$ = 16						; size = 4
??$_Copy_memmove@PAU__GCPLAYERPOINT@CGuildCombat@@PAU12@@std@@YAPAU__GCPLAYERPOINT@CGuildCombat@@PAU12@00@Z PROC ; std::_Copy_memmove<CGuildCombat::__GCPLAYERPOINT *,CGuildCombat::__GCPLAYERPOINT *>, COMDAT

; 4762 : _OutCtgIt _Copy_memmove(_CtgIt _First, _CtgIt _Last, _OutCtgIt _Dest) {

  00000	55		 push	 ebp
  00001	8b ec		 mov	 ebp, esp

; 4763 :     _STL_INTERNAL_CHECK(_First <= _Last);
; 4764 :     const auto _First_ptr    = _STD _To_address(_First);
; 4765 :     const auto _Last_ptr     = _STD _To_address(_Last);
; 4766 :     const auto _Object_count = static_cast<size_t>(_Last_ptr - _First_ptr);

  00003	8b 4d 0c	 mov	 ecx, DWORD PTR __Last$[ebp]
  00006	b8 ab aa aa 2a	 mov	 eax, 715827883		; 2aaaaaabH
  0000b	2b 4d 08	 sub	 ecx, DWORD PTR __First$[ebp]
  0000e	f7 e9		 imul	 ecx
  00010	d1 fa		 sar	 edx, 1
  00012	8b c2		 mov	 eax, edx
  00014	c1 e8 1f	 shr	 eax, 31			; 0000001fH
  00017	03 c2		 add	 eax, edx

; 4767 :     const auto _First_ch     = const_cast<const char*>(reinterpret_cast<const volatile char*>(_First_ptr));
; 4768 :     const auto _Last_ch      = const_cast<const char*>(reinterpret_cast<const volatile char*>(_Last_ptr));
; 4769 :     const auto _Byte_count   = static_cast<size_t>(_Last_ch - _First_ch);
; 4770 :     return _STD _Copy_memmove_tail(_First_ch, _STD move(_Dest), _Byte_count, _Object_count);

  00019	50		 push	 eax
  0001a	51		 push	 ecx
  0001b	ff 75 10	 push	 DWORD PTR __Dest$[ebp]
  0001e	ff 75 08	 push	 DWORD PTR __First$[ebp]
  00021	e8 00 00 00 00	 call	 ??$_Copy_memmove_tail@PAU__GCPLAYERPOINT@CGuildCombat@@@std@@YAPAU__GCPLAYERPOINT@CGuildCombat@@QBDQAU12@II@Z ; std::_Copy_memmove_tail<CGuildCombat::__GCPLAYERPOINT *>
  00026	83 c4 10	 add	 esp, 16			; 00000010H

; 4771 : }

  00029	5d		 pop	 ebp
  0002a	c3		 ret	 0
??$_Copy_memmove@PAU__GCPLAYERPOINT@CGuildCombat@@PAU12@@std@@YAPAU__GCPLAYERPOINT@CGuildCombat@@PAU12@00@Z ENDP ; std::_Copy_memmove<CGuildCombat::__GCPLAYERPOINT *,CGuildCombat::__GCPLAYERPOINT *>
_TEXT	ENDS
; Function compile flags: /Ogtp
; File C:\Program Files\Microsoft Visual Studio\2022\Professional\VC\Tools\MSVC\14.44.35207\include\xmemory
; File C:\Program Files\Microsoft Visual Studio\2022\Professional\VC\Tools\MSVC\14.44.35207\include\utility
; File C:\Program Files\Microsoft Visual Studio\2022\Professional\VC\Tools\MSVC\14.44.35207\include\vector
; File C:\Program Files\Microsoft Visual Studio\2022\Professional\VC\Tools\MSVC\14.44.35207\include\xmemory
; File C:\Program Files\Microsoft Visual Studio\2022\Professional\VC\Tools\MSVC\14.44.35207\include\vector
; File C:\Program Files\Microsoft Visual Studio\2022\Professional\VC\Tools\MSVC\14.44.35207\include\xmemory
;	COMDAT ??$_Uninitialized_move@PAU__GC1TO1TENDER@CGuildCombat1to1Mng@@V?$allocator@U__GC1TO1TENDER@CGuildCombat1to1Mng@@@std@@@std@@YAPAU__GC1TO1TENDER@CGuildCombat1to1Mng@@QAU12@0PAU12@AAV?$allocator@U__GC1TO1TENDER@CGuildCombat1to1Mng@@@0@@Z
_TEXT	SEGMENT
__First$ = 8						; size = 4
__Last$ = 12						; size = 4
__Dest$ = 16						; size = 4
__Al$ = 20						; size = 4
??$_Uninitialized_move@PAU__GC1TO1TENDER@CGuildCombat1to1Mng@@V?$allocator@U__GC1TO1TENDER@CGuildCombat1to1Mng@@@std@@@std@@YAPAU__GC1TO1TENDER@CGuildCombat1to1Mng@@QAU12@0PAU12@AAV?$allocator@U__GC1TO1TENDER@CGuildCombat1to1Mng@@@0@@Z PROC ; std::_Uninitialized_move<CGuildCombat1to1Mng::__GC1TO1TENDER *,std::allocator<CGuildCombat1to1Mng::__GC1TO1TENDER> >, COMDAT

; 1977 :     const _InIt _First, const _InIt _Last, _Alloc_ptr_t<_Alloc> _Dest, _Alloc& _Al) {

  00000	55		 push	 ebp
  00001	8b ec		 mov	 ebp, esp

; 1998 :     for (; _UFirst != _ULast; ++_UFirst) {

  00003	8b 45 08	 mov	 eax, DWORD PTR __First$[ebp]
  00006	57		 push	 edi

; 1833 :     _CONSTEXPR20 _Uninitialized_backout_al(pointer _Dest, _Alloc& _Al_) : _First(_Dest), _Last(_Dest), _Al(_Al_) {}

  00007	8b 7d 10	 mov	 edi, DWORD PTR __Dest$[ebp]

; 1998 :     for (; _UFirst != _ULast; ++_UFirst) {

  0000a	3b 45 0c	 cmp	 eax, DWORD PTR __Last$[ebp]
  0000d	74 70		 je	 SHORT $LN69@Uninitiali
  0000f	53		 push	 ebx

; 1833 :     _CONSTEXPR20 _Uninitialized_backout_al(pointer _Dest, _Alloc& _Al_) : _First(_Dest), _Last(_Dest), _Al(_Al_) {}

  00010	8b df		 mov	 ebx, edi
  00012	8d 48 24	 lea	 ecx, DWORD PTR [eax+36]
  00015	56		 push	 esi
  00016	2b d8		 sub	 ebx, eax
$LL4@Uninitiali:
  00018	8b 41 dc	 mov	 eax, DWORD PTR [ecx-36]

; 1845 :         ++_Last;

  0001b	8d 49 2c	 lea	 ecx, DWORD PTR [ecx+44]
  0001e	89 07		 mov	 DWORD PTR [edi], eax
  00020	8b 41 b4	 mov	 eax, DWORD PTR [ecx-76]
  00023	89 47 04	 mov	 DWORD PTR [edi+4], eax
  00026	8b 41 b8	 mov	 eax, DWORD PTR [ecx-72]
  00029	89 47 08	 mov	 DWORD PTR [edi+8], eax
  0002c	8b 41 bc	 mov	 eax, DWORD PTR [ecx-68]
  0002f	89 47 0c	 mov	 DWORD PTR [edi+12], eax
  00032	8b 41 c0	 mov	 eax, DWORD PTR [ecx-64]
  00035	89 47 10	 mov	 DWORD PTR [edi+16], eax
  00038	8b 41 c4	 mov	 eax, DWORD PTR [ecx-60]
  0003b	89 47 14	 mov	 DWORD PTR [edi+20], eax
  0003e	8b 41 c8	 mov	 eax, DWORD PTR [ecx-56]
  00041	89 47 18	 mov	 DWORD PTR [edi+24], eax
  00044	8b 41 cc	 mov	 eax, DWORD PTR [ecx-52]
  00047	89 47 1c	 mov	 DWORD PTR [edi+28], eax
; File C:\Program Files\Microsoft Visual Studio\2022\Professional\VC\Tools\MSVC\14.44.35207\include\utility

; 773  :     _Ty _Old_val = static_cast<_Ty&&>(_Val);

  0004a	8b 51 d4	 mov	 edx, DWORD PTR [ecx-44]
  0004d	8b 71 d8	 mov	 esi, DWORD PTR [ecx-40]
  00050	8b 41 d0	 mov	 eax, DWORD PTR [ecx-48]

; 774  :     _Val         = static_cast<_Other&&>(_New_val);

  00053	c7 41 d8 00 00
	00 00		 mov	 DWORD PTR [ecx-40], 0
  0005a	c7 41 d4 00 00
	00 00		 mov	 DWORD PTR [ecx-44], 0
  00061	c7 41 d0 00 00
	00 00		 mov	 DWORD PTR [ecx-48], 0
; File C:\Program Files\Microsoft Visual Studio\2022\Professional\VC\Tools\MSVC\14.44.35207\include\vector

; 403  :         : _Myfirst(_First), _Mylast(_Last), _Myend(_End) {}

  00068	89 54 19 d4	 mov	 DWORD PTR [ecx+ebx-44], edx
; File C:\Program Files\Microsoft Visual Studio\2022\Professional\VC\Tools\MSVC\14.44.35207\include\xmemory

; 1998 :     for (; _UFirst != _ULast; ++_UFirst) {

  0006c	8d 51 dc	 lea	 edx, DWORD PTR [ecx-36]
; File C:\Program Files\Microsoft Visual Studio\2022\Professional\VC\Tools\MSVC\14.44.35207\include\vector

; 403  :         : _Myfirst(_First), _Mylast(_Last), _Myend(_End) {}

  0006f	89 47 20	 mov	 DWORD PTR [edi+32], eax
  00072	89 77 28	 mov	 DWORD PTR [edi+40], esi
; File C:\Program Files\Microsoft Visual Studio\2022\Professional\VC\Tools\MSVC\14.44.35207\include\xmemory

; 1845 :         ++_Last;

  00075	83 c7 2c	 add	 edi, 44			; 0000002cH

; 1998 :     for (; _UFirst != _ULast; ++_UFirst) {

  00078	3b 55 0c	 cmp	 edx, DWORD PTR __Last$[ebp]
  0007b	75 9b		 jne	 SHORT $LL4@Uninitiali
  0007d	5e		 pop	 esi
  0007e	5b		 pop	 ebx
$LN69@Uninitiali:

; 1999 :         _Backout._Emplace_back(_STD move(*_UFirst));
; 2000 :     }
; 2001 : 
; 2002 :     return _Backout._Release();
; 2003 : }

  0007f	8b c7		 mov	 eax, edi
  00081	5f		 pop	 edi
  00082	5d		 pop	 ebp
  00083	c3		 ret	 0
??$_Uninitialized_move@PAU__GC1TO1TENDER@CGuildCombat1to1Mng@@V?$allocator@U__GC1TO1TENDER@CGuildCombat1to1Mng@@@std@@@std@@YAPAU__GC1TO1TENDER@CGuildCombat1to1Mng@@QAU12@0PAU12@AAV?$allocator@U__GC1TO1TENDER@CGuildCombat1to1Mng@@@0@@Z ENDP ; std::_Uninitialized_move<CGuildCombat1to1Mng::__GC1TO1TENDER *,std::allocator<CGuildCombat1to1Mng::__GC1TO1TENDER> >
_TEXT	ENDS
; Function compile flags: /Ogtp
; File C:\Program Files\Microsoft Visual Studio\2022\Professional\VC\Tools\MSVC\14.44.35207\include\vector
; File C:\Program Files\Microsoft Visual Studio\2022\Professional\VC\Tools\MSVC\14.44.35207\include\xmemory
; File C:\Program Files\Microsoft Visual Studio\2022\Professional\VC\Tools\MSVC\14.44.35207\include\vector
; File C:\Program Files\Microsoft Visual Studio\2022\Professional\VC\Tools\MSVC\14.44.35207\include\xmemory
; File C:\Program Files\Microsoft Visual Studio\2022\Professional\VC\Tools\MSVC\14.44.35207\include\vector
; File C:\Program Files\Microsoft Visual Studio\2022\Professional\VC\Tools\MSVC\14.44.35207\include\xmemory
; File C:\Program Files\Microsoft Visual Studio\2022\Professional\VC\Tools\MSVC\14.44.35207\include\vector
;	COMDAT ??1_Reallocation_guard@?$vector@U__GC1TO1TENDER@CGuildCombat1to1Mng@@V?$allocator@U__GC1TO1TENDER@CGuildCombat1to1Mng@@@std@@@std@@QAE@XZ
_TEXT	SEGMENT
??1_Reallocation_guard@?$vector@U__GC1TO1TENDER@CGuildCombat1to1Mng@@V?$allocator@U__GC1TO1TENDER@CGuildCombat1to1Mng@@@std@@@std@@QAE@XZ PROC ; std::vector<CGuildCombat1to1Mng::__GC1TO1TENDER,std::allocator<CGuildCombat1to1Mng::__GC1TO1TENDER> >::_Reallocation_guard::~_Reallocation_guard, COMDAT
; _this$ = ecx

; 620  :         _CONSTEXPR20 ~_Reallocation_guard() noexcept {

  00000	57		 push	 edi
  00001	8b f9		 mov	 edi, ecx

; 621  :             if (_New_begin != nullptr) {

  00003	83 7f 04 00	 cmp	 DWORD PTR [edi+4], 0
  00007	74 48		 je	 SHORT $LN30@Reallocati

; 622  :                 _STD _Destroy_range(_Constructed_first, _Constructed_last, _Al);

  00009	53		 push	 ebx
  0000a	8b 5f 10	 mov	 ebx, DWORD PTR [edi+16]
  0000d	56		 push	 esi
  0000e	8b 77 0c	 mov	 esi, DWORD PTR [edi+12]
; File C:\Program Files\Microsoft Visual Studio\2022\Professional\VC\Tools\MSVC\14.44.35207\include\xmemory

; 1102 :         for (; _First != _Last; ++_First) {

  00011	3b f3		 cmp	 esi, ebx
  00013	74 0f		 je	 SHORT $LN7@Reallocati
$LL8@Reallocati:
; File C:\Program Files\Microsoft Visual Studio\2022\Professional\VC\Tools\MSVC\14.44.35207\include\vector

; 830  :         _Tidy();

  00015	8d 4e 20	 lea	 ecx, DWORD PTR [esi+32]
  00018	e8 00 00 00 00	 call	 ?_Tidy@?$vector@KV?$allocator@K@std@@@std@@AAEXXZ ; std::vector<unsigned long,std::allocator<unsigned long> >::_Tidy
; File C:\Program Files\Microsoft Visual Studio\2022\Professional\VC\Tools\MSVC\14.44.35207\include\xmemory

; 1102 :         for (; _First != _Last; ++_First) {

  0001d	83 c6 2c	 add	 esi, 44			; 0000002cH
  00020	3b f3		 cmp	 esi, ebx
  00022	75 f1		 jne	 SHORT $LL8@Reallocati
$LN7@Reallocati:

; 985  :         _STD _Deallocate<_New_alignof<_Ty>>(_Ptr, sizeof(_Ty) * _Count);

  00024	6b 4f 08 2c	 imul	 ecx, DWORD PTR [edi+8], 44
  00028	8b 47 04	 mov	 eax, DWORD PTR [edi+4]
  0002b	5e		 pop	 esi
  0002c	5b		 pop	 ebx

; 284  :         if (_Bytes >= _Big_allocation_threshold) {

  0002d	81 f9 00 10 00
	00		 cmp	 ecx, 4096		; 00001000H
  00033	72 12		 jb	 SHORT $LN35@Reallocati

; 205  :     const uintptr_t _Ptr_container   = _Ptr_user[-1];

  00035	8b 50 fc	 mov	 edx, DWORD PTR [eax-4]
  00038	83 c1 23	 add	 ecx, 35			; 00000023H

; 206  : 
; 207  :     // If the following asserts, it likely means that we are performing
; 208  :     // an aligned delete on memory coming from an unaligned allocation.
; 209  :     _STL_ASSERT(_Ptr_user[-2] == _Big_allocation_sentinel, "invalid argument");
; 210  : 
; 211  :     // Extra paranoia on aligned allocation/deallocation; ensure _Ptr_container is
; 212  :     // in range [_Min_back_shift, _Non_user_size]
; 213  : #ifdef _DEBUG
; 214  :     constexpr uintptr_t _Min_back_shift = 2 * sizeof(void*);
; 215  : #else // ^^^ defined(_DEBUG) / !defined(_DEBUG) vvv
; 216  :     constexpr uintptr_t _Min_back_shift = sizeof(void*);
; 217  : #endif // ^^^ !defined(_DEBUG) ^^^
; 218  :     const uintptr_t _Back_shift = reinterpret_cast<uintptr_t>(_Ptr) - _Ptr_container;

  0003b	2b c2		 sub	 eax, edx

; 219  :     _STL_VERIFY(_Back_shift >= _Min_back_shift && _Back_shift <= _Non_user_size, "invalid argument");

  0003d	83 c0 fc	 add	 eax, -4			; fffffffcH
  00040	83 f8 1f	 cmp	 eax, 31			; 0000001fH
  00043	77 0e		 ja	 SHORT $LN34@Reallocati

; 220  :     _Ptr = reinterpret_cast<void*>(_Ptr_container);

  00045	8b c2		 mov	 eax, edx
$LN35@Reallocati:

; 289  :         ::operator delete(_Ptr, _Bytes);

  00047	51		 push	 ecx
  00048	50		 push	 eax
  00049	e8 00 00 00 00	 call	 ??3@YAXPAXI@Z		; operator delete
  0004e	83 c4 08	 add	 esp, 8
$LN30@Reallocati:
  00051	5f		 pop	 edi
; File C:\Program Files\Microsoft Visual Studio\2022\Professional\VC\Tools\MSVC\14.44.35207\include\vector

; 625  :         }

  00052	c3		 ret	 0
$LN34@Reallocati:
; File C:\Program Files\Microsoft Visual Studio\2022\Professional\VC\Tools\MSVC\14.44.35207\include\xmemory

; 219  :     _STL_VERIFY(_Back_shift >= _Min_back_shift && _Back_shift <= _Non_user_size, "invalid argument");

  00053	6a 00		 push	 0
  00055	6a 00		 push	 0
  00057	6a 00		 push	 0
  00059	6a 00		 push	 0
  0005b	6a 00		 push	 0
  0005d	e8 00 00 00 00	 call	 __invoke_watson
$LN47@Reallocati:
  00062	cc		 int	 3
??1_Reallocation_guard@?$vector@U__GC1TO1TENDER@CGuildCombat1to1Mng@@V?$allocator@U__GC1TO1TENDER@CGuildCombat1to1Mng@@@std@@@std@@QAE@XZ ENDP ; std::vector<CGuildCombat1to1Mng::__GC1TO1TENDER,std::allocator<CGuildCombat1to1Mng::__GC1TO1TENDER> >::_Reallocation_guard::~_Reallocation_guard
_TEXT	ENDS
; Function compile flags: /Ogtp
; File C:\Program Files\Microsoft Visual Studio\2022\Professional\VC\Tools\MSVC\14.44.35207\include\xutility
;	COMDAT ??$_Copy_memmove_tail@PAU__GCRESULTVALUEGUILD@CGuildCombat@@@std@@YAPAU__GCRESULTVALUEGUILD@CGuildCombat@@QBDQAU12@II@Z
_TEXT	SEGMENT
__First_ch$ = 8						; size = 4
__Dest$ = 12						; size = 4
__Byte_count$ = 16					; size = 4
__Object_count$ = 20					; size = 4
??$_Copy_memmove_tail@PAU__GCRESULTVALUEGUILD@CGuildCombat@@@std@@YAPAU__GCRESULTVALUEGUILD@CGuildCombat@@QBDQAU12@II@Z PROC ; std::_Copy_memmove_tail<CGuildCombat::__GCRESULTVALUEGUILD *>, COMDAT

; 4747 :     const char* const _First_ch, const _OutCtgIt _Dest, const size_t _Byte_count, const size_t _Object_count) {

  00000	55		 push	 ebp
  00001	8b ec		 mov	 ebp, esp
  00003	56		 push	 esi

; 4748 :     _STL_INTERNAL_CHECK(_Byte_count == _Object_count * sizeof(*_Dest));
; 4749 :     const auto _Dest_ptr = _STD _To_address(_Dest);
; 4750 :     const auto _Dest_ch  = const_cast<char*>(reinterpret_cast<const volatile char*>(_Dest_ptr));
; 4751 :     _CSTD memmove(_Dest_ch, _First_ch, _Byte_count);

  00004	8b 75 0c	 mov	 esi, DWORD PTR __Dest$[ebp]
  00007	57		 push	 edi
  00008	8b 7d 10	 mov	 edi, DWORD PTR __Byte_count$[ebp]
  0000b	57		 push	 edi
  0000c	ff 75 08	 push	 DWORD PTR __First_ch$[ebp]
  0000f	56		 push	 esi
  00010	e8 00 00 00 00	 call	 _memmove
  00015	83 c4 0c	 add	 esp, 12			; 0000000cH

; 4752 :     if constexpr (is_pointer_v<_OutCtgIt>) {
; 4753 :         (void) _Object_count;
; 4754 :         // CodeQL [SM02986] This cast is correct: we're bypassing pointer arithmetic for performance.
; 4755 :         return reinterpret_cast<_OutCtgIt>(_Dest_ch + _Byte_count);

  00018	8d 04 3e	 lea	 eax, DWORD PTR [esi+edi]
  0001b	5f		 pop	 edi
  0001c	5e		 pop	 esi

; 4756 :     } else {
; 4757 :         return _Dest + static_cast<_Iter_diff_t<_OutCtgIt>>(_Object_count);
; 4758 :     }
; 4759 : }

  0001d	5d		 pop	 ebp
  0001e	c3		 ret	 0
??$_Copy_memmove_tail@PAU__GCRESULTVALUEGUILD@CGuildCombat@@@std@@YAPAU__GCRESULTVALUEGUILD@CGuildCombat@@QBDQAU12@II@Z ENDP ; std::_Copy_memmove_tail<CGuildCombat::__GCRESULTVALUEGUILD *>
_TEXT	ENDS
; Function compile flags: /Ogtp
; File C:\Program Files\Microsoft Visual Studio\2022\Professional\VC\Tools\MSVC\14.44.35207\include\xutility
;	COMDAT ??$_Copy_memmove_tail@PAU__GCRESULTVALUEPLAYER@CGuildCombat@@@std@@YAPAU__GCRESULTVALUEPLAYER@CGuildCombat@@QBDQAU12@II@Z
_TEXT	SEGMENT
__First_ch$ = 8						; size = 4
__Dest$ = 12						; size = 4
__Byte_count$ = 16					; size = 4
__Object_count$ = 20					; size = 4
??$_Copy_memmove_tail@PAU__GCRESULTVALUEPLAYER@CGuildCombat@@@std@@YAPAU__GCRESULTVALUEPLAYER@CGuildCombat@@QBDQAU12@II@Z PROC ; std::_Copy_memmove_tail<CGuildCombat::__GCRESULTVALUEPLAYER *>, COMDAT

; 4747 :     const char* const _First_ch, const _OutCtgIt _Dest, const size_t _Byte_count, const size_t _Object_count) {

  00000	55		 push	 ebp
  00001	8b ec		 mov	 ebp, esp
  00003	56		 push	 esi

; 4748 :     _STL_INTERNAL_CHECK(_Byte_count == _Object_count * sizeof(*_Dest));
; 4749 :     const auto _Dest_ptr = _STD _To_address(_Dest);
; 4750 :     const auto _Dest_ch  = const_cast<char*>(reinterpret_cast<const volatile char*>(_Dest_ptr));
; 4751 :     _CSTD memmove(_Dest_ch, _First_ch, _Byte_count);

  00004	8b 75 0c	 mov	 esi, DWORD PTR __Dest$[ebp]
  00007	57		 push	 edi
  00008	8b 7d 10	 mov	 edi, DWORD PTR __Byte_count$[ebp]
  0000b	57		 push	 edi
  0000c	ff 75 08	 push	 DWORD PTR __First_ch$[ebp]
  0000f	56		 push	 esi
  00010	e8 00 00 00 00	 call	 _memmove
  00015	83 c4 0c	 add	 esp, 12			; 0000000cH

; 4752 :     if constexpr (is_pointer_v<_OutCtgIt>) {
; 4753 :         (void) _Object_count;
; 4754 :         // CodeQL [SM02986] This cast is correct: we're bypassing pointer arithmetic for performance.
; 4755 :         return reinterpret_cast<_OutCtgIt>(_Dest_ch + _Byte_count);

  00018	8d 04 3e	 lea	 eax, DWORD PTR [esi+edi]
  0001b	5f		 pop	 edi
  0001c	5e		 pop	 esi

; 4756 :     } else {
; 4757 :         return _Dest + static_cast<_Iter_diff_t<_OutCtgIt>>(_Object_count);
; 4758 :     }
; 4759 : }

  0001d	5d		 pop	 ebp
  0001e	c3		 ret	 0
??$_Copy_memmove_tail@PAU__GCRESULTVALUEPLAYER@CGuildCombat@@@std@@YAPAU__GCRESULTVALUEPLAYER@CGuildCombat@@QBDQAU12@II@Z ENDP ; std::_Copy_memmove_tail<CGuildCombat::__GCRESULTVALUEPLAYER *>
_TEXT	ENDS
; Function compile flags: /Ogtp
; File C:\Program Files\Microsoft Visual Studio\2022\Professional\VC\Tools\MSVC\14.44.35207\include\xmemory
; File C:\Program Files\Microsoft Visual Studio\2022\Professional\VC\Tools\MSVC\14.44.35207\include\utility
; File C:\Program Files\Microsoft Visual Studio\2022\Professional\VC\Tools\MSVC\14.44.35207\include\vector
; File C:\Program Files\Microsoft Visual Studio\2022\Professional\VC\Tools\MSVC\14.44.35207\include\utility
; File C:\Program Files\Microsoft Visual Studio\2022\Professional\VC\Tools\MSVC\14.44.35207\include\vector
; File C:\Program Files\Microsoft Visual Studio\2022\Professional\VC\Tools\MSVC\14.44.35207\include\xmemory
; File C:\Program Files\Microsoft Visual Studio\2022\Professional\VC\Tools\MSVC\14.44.35207\include\vector
; File C:\Program Files\Microsoft Visual Studio\2022\Professional\VC\Tools\MSVC\14.44.35207\include\xmemory
;	COMDAT ??$_Uninitialized_move@PAU__SECRETROOM_TENDER@@V?$allocator@U__SECRETROOM_TENDER@@@std@@@std@@YAPAU__SECRETROOM_TENDER@@QAU1@0PAU1@AAV?$allocator@U__SECRETROOM_TENDER@@@0@@Z
_TEXT	SEGMENT
__First$ = 8						; size = 4
__Last$ = 12						; size = 4
__Dest$ = 16						; size = 4
tv1329 = 16						; size = 4
__Al$ = 20						; size = 4
??$_Uninitialized_move@PAU__SECRETROOM_TENDER@@V?$allocator@U__SECRETROOM_TENDER@@@std@@@std@@YAPAU__SECRETROOM_TENDER@@QAU1@0PAU1@AAV?$allocator@U__SECRETROOM_TENDER@@@0@@Z PROC ; std::_Uninitialized_move<__SECRETROOM_TENDER *,std::allocator<__SECRETROOM_TENDER> >, COMDAT

; 1977 :     const _InIt _First, const _InIt _Last, _Alloc_ptr_t<_Alloc> _Dest, _Alloc& _Al) {

  00000	55		 push	 ebp
  00001	8b ec		 mov	 ebp, esp

; 1998 :     for (; _UFirst != _ULast; ++_UFirst) {

  00003	8b 45 08	 mov	 eax, DWORD PTR __First$[ebp]
  00006	53		 push	 ebx

; 1833 :     _CONSTEXPR20 _Uninitialized_backout_al(pointer _Dest, _Alloc& _Al_) : _First(_Dest), _Last(_Dest), _Al(_Al_) {}

  00007	8b 5d 10	 mov	 ebx, DWORD PTR __Dest$[ebp]

; 1998 :     for (; _UFirst != _ULast; ++_UFirst) {

  0000a	3b 45 0c	 cmp	 eax, DWORD PTR __Last$[ebp]
  0000d	0f 84 91 00 00
	00		 je	 $LN90@Uninitiali

; 1833 :     _CONSTEXPR20 _Uninitialized_backout_al(pointer _Dest, _Alloc& _Al_) : _First(_Dest), _Last(_Dest), _Al(_Al_) {}

  00013	8b d3		 mov	 edx, ebx
  00015	8d 48 18	 lea	 ecx, DWORD PTR [eax+24]
  00018	56		 push	 esi
  00019	2b d0		 sub	 edx, eax
  0001b	57		 push	 edi
  0001c	8d 7b 24	 lea	 edi, DWORD PTR [ebx+36]
  0001f	89 55 10	 mov	 DWORD PTR tv1329[ebp], edx
$LL4@Uninitiali:
  00022	8b 41 e8	 mov	 eax, DWORD PTR [ecx-24]

; 1845 :         ++_Last;

  00025	8d 49 2c	 lea	 ecx, DWORD PTR [ecx+44]
  00028	89 03		 mov	 DWORD PTR [ebx], eax
  0002a	8d 7f 2c	 lea	 edi, DWORD PTR [edi+44]
  0002d	8b 41 c0	 mov	 eax, DWORD PTR [ecx-64]
  00030	83 c3 2c	 add	 ebx, 44			; 0000002cH
  00033	89 47 b4	 mov	 DWORD PTR [edi-76], eax
  00036	8b 41 c4	 mov	 eax, DWORD PTR [ecx-60]
  00039	89 47 b8	 mov	 DWORD PTR [edi-72], eax
  0003c	8b 41 c8	 mov	 eax, DWORD PTR [ecx-56]
  0003f	89 47 bc	 mov	 DWORD PTR [edi-68], eax
  00042	8b 41 cc	 mov	 eax, DWORD PTR [ecx-52]
  00045	89 47 c0	 mov	 DWORD PTR [edi-64], eax
; File C:\Program Files\Microsoft Visual Studio\2022\Professional\VC\Tools\MSVC\14.44.35207\include\utility

; 773  :     _Ty _Old_val = static_cast<_Ty&&>(_Val);

  00048	8b 71 d8	 mov	 esi, DWORD PTR [ecx-40]
  0004b	8b 51 d4	 mov	 edx, DWORD PTR [ecx-44]
  0004e	8b 41 d0	 mov	 eax, DWORD PTR [ecx-48]

; 774  :     _Val         = static_cast<_Other&&>(_New_val);

  00051	c7 41 d8 00 00
	00 00		 mov	 DWORD PTR [ecx-40], 0
  00058	c7 41 d4 00 00
	00 00		 mov	 DWORD PTR [ecx-44], 0
  0005f	c7 41 d0 00 00
	00 00		 mov	 DWORD PTR [ecx-48], 0
; File C:\Program Files\Microsoft Visual Studio\2022\Professional\VC\Tools\MSVC\14.44.35207\include\vector

; 403  :         : _Myfirst(_First), _Mylast(_Last), _Myend(_End) {}

  00066	89 47 c4	 mov	 DWORD PTR [edi-60], eax
  00069	8b 45 10	 mov	 eax, DWORD PTR tv1329[ebp]
  0006c	89 77 cc	 mov	 DWORD PTR [edi-52], esi
  0006f	89 54 01 d4	 mov	 DWORD PTR [ecx+eax-44], edx
; File C:\Program Files\Microsoft Visual Studio\2022\Professional\VC\Tools\MSVC\14.44.35207\include\utility

; 773  :     _Ty _Old_val = static_cast<_Ty&&>(_Val);

  00073	8b 51 e0	 mov	 edx, DWORD PTR [ecx-32]
  00076	8b 71 e4	 mov	 esi, DWORD PTR [ecx-28]
  00079	8b 41 dc	 mov	 eax, DWORD PTR [ecx-36]

; 774  :     _Val         = static_cast<_Other&&>(_New_val);

  0007c	c7 41 e4 00 00
	00 00		 mov	 DWORD PTR [ecx-28], 0
  00083	c7 41 e0 00 00
	00 00		 mov	 DWORD PTR [ecx-32], 0
  0008a	c7 41 dc 00 00
	00 00		 mov	 DWORD PTR [ecx-36], 0
; File C:\Program Files\Microsoft Visual Studio\2022\Professional\VC\Tools\MSVC\14.44.35207\include\vector

; 403  :         : _Myfirst(_First), _Mylast(_Last), _Myend(_End) {}

  00091	89 57 d4	 mov	 DWORD PTR [edi-44], edx
; File C:\Program Files\Microsoft Visual Studio\2022\Professional\VC\Tools\MSVC\14.44.35207\include\xmemory

; 1998 :     for (; _UFirst != _ULast; ++_UFirst) {

  00094	8d 51 e8	 lea	 edx, DWORD PTR [ecx-24]
; File C:\Program Files\Microsoft Visual Studio\2022\Professional\VC\Tools\MSVC\14.44.35207\include\vector

; 403  :         : _Myfirst(_First), _Mylast(_Last), _Myend(_End) {}

  00097	89 47 d0	 mov	 DWORD PTR [edi-48], eax
  0009a	89 77 d8	 mov	 DWORD PTR [edi-40], esi
; File C:\Program Files\Microsoft Visual Studio\2022\Professional\VC\Tools\MSVC\14.44.35207\include\xmemory

; 1998 :     for (; _UFirst != _ULast; ++_UFirst) {

  0009d	3b 55 0c	 cmp	 edx, DWORD PTR __Last$[ebp]
  000a0	75 80		 jne	 SHORT $LL4@Uninitiali
  000a2	5f		 pop	 edi
  000a3	5e		 pop	 esi
$LN90@Uninitiali:

; 1999 :         _Backout._Emplace_back(_STD move(*_UFirst));
; 2000 :     }
; 2001 : 
; 2002 :     return _Backout._Release();
; 2003 : }

  000a4	8b c3		 mov	 eax, ebx
  000a6	5b		 pop	 ebx
  000a7	5d		 pop	 ebp
  000a8	c3		 ret	 0
??$_Uninitialized_move@PAU__SECRETROOM_TENDER@@V?$allocator@U__SECRETROOM_TENDER@@@std@@@std@@YAPAU__SECRETROOM_TENDER@@QAU1@0PAU1@AAV?$allocator@U__SECRETROOM_TENDER@@@0@@Z ENDP ; std::_Uninitialized_move<__SECRETROOM_TENDER *,std::allocator<__SECRETROOM_TENDER> >
_TEXT	ENDS
; Function compile flags: /Ogtp
; File C:\Program Files\Microsoft Visual Studio\2022\Professional\VC\Tools\MSVC\14.44.35207\include\vector
; File C:\Program Files\Microsoft Visual Studio\2022\Professional\VC\Tools\MSVC\14.44.35207\include\xmemory
; File C:\Program Files\Microsoft Visual Studio\2022\Professional\VC\Tools\MSVC\14.44.35207\include\vector
; File C:\Program Files\Microsoft Visual Studio\2022\Professional\VC\Tools\MSVC\14.44.35207\include\xmemory
; File C:\Program Files\Microsoft Visual Studio\2022\Professional\VC\Tools\MSVC\14.44.35207\include\vector
; File C:\Program Files\Microsoft Visual Studio\2022\Professional\VC\Tools\MSVC\14.44.35207\include\xmemory
; File C:\Program Files\Microsoft Visual Studio\2022\Professional\VC\Tools\MSVC\14.44.35207\include\vector
;	COMDAT ??1_Reallocation_guard@?$vector@U__SECRETROOM_TENDER@@V?$allocator@U__SECRETROOM_TENDER@@@std@@@std@@QAE@XZ
_TEXT	SEGMENT
??1_Reallocation_guard@?$vector@U__SECRETROOM_TENDER@@V?$allocator@U__SECRETROOM_TENDER@@@std@@@std@@QAE@XZ PROC ; std::vector<__SECRETROOM_TENDER,std::allocator<__SECRETROOM_TENDER> >::_Reallocation_guard::~_Reallocation_guard, COMDAT
; _this$ = ecx

; 620  :         _CONSTEXPR20 ~_Reallocation_guard() noexcept {

  00000	57		 push	 edi
  00001	8b f9		 mov	 edi, ecx

; 621  :             if (_New_begin != nullptr) {

  00003	83 7f 04 00	 cmp	 DWORD PTR [edi+4], 0
  00007	74 50		 je	 SHORT $LN33@Reallocati

; 622  :                 _STD _Destroy_range(_Constructed_first, _Constructed_last, _Al);

  00009	53		 push	 ebx
  0000a	8b 5f 10	 mov	 ebx, DWORD PTR [edi+16]
  0000d	56		 push	 esi
  0000e	8b 77 0c	 mov	 esi, DWORD PTR [edi+12]
; File C:\Program Files\Microsoft Visual Studio\2022\Professional\VC\Tools\MSVC\14.44.35207\include\xmemory

; 1102 :         for (; _First != _Last; ++_First) {

  00011	3b f3		 cmp	 esi, ebx
  00013	74 17		 je	 SHORT $LN7@Reallocati
$LL8@Reallocati:
; File C:\Program Files\Microsoft Visual Studio\2022\Professional\VC\Tools\MSVC\14.44.35207\include\vector

; 830  :         _Tidy();

  00015	8d 4e 20	 lea	 ecx, DWORD PTR [esi+32]
  00018	e8 00 00 00 00	 call	 ?_Tidy@?$vector@U__SECRETROOM_MONSTER@@V?$allocator@U__SECRETROOM_MONSTER@@@std@@@std@@AAEXXZ ; std::vector<__SECRETROOM_MONSTER,std::allocator<__SECRETROOM_MONSTER> >::_Tidy
  0001d	8d 4e 14	 lea	 ecx, DWORD PTR [esi+20]
  00020	e8 00 00 00 00	 call	 ?_Tidy@?$vector@KV?$allocator@K@std@@@std@@AAEXXZ ; std::vector<unsigned long,std::allocator<unsigned long> >::_Tidy
; File C:\Program Files\Microsoft Visual Studio\2022\Professional\VC\Tools\MSVC\14.44.35207\include\xmemory

; 1102 :         for (; _First != _Last; ++_First) {

  00025	83 c6 2c	 add	 esi, 44			; 0000002cH
  00028	3b f3		 cmp	 esi, ebx
  0002a	75 e9		 jne	 SHORT $LL8@Reallocati
$LN7@Reallocati:

; 985  :         _STD _Deallocate<_New_alignof<_Ty>>(_Ptr, sizeof(_Ty) * _Count);

  0002c	6b 4f 08 2c	 imul	 ecx, DWORD PTR [edi+8], 44
  00030	8b 47 04	 mov	 eax, DWORD PTR [edi+4]
  00033	5e		 pop	 esi
  00034	5b		 pop	 ebx

; 284  :         if (_Bytes >= _Big_allocation_threshold) {

  00035	81 f9 00 10 00
	00		 cmp	 ecx, 4096		; 00001000H
  0003b	72 12		 jb	 SHORT $LN38@Reallocati

; 205  :     const uintptr_t _Ptr_container   = _Ptr_user[-1];

  0003d	8b 50 fc	 mov	 edx, DWORD PTR [eax-4]
  00040	83 c1 23	 add	 ecx, 35			; 00000023H

; 206  : 
; 207  :     // If the following asserts, it likely means that we are performing
; 208  :     // an aligned delete on memory coming from an unaligned allocation.
; 209  :     _STL_ASSERT(_Ptr_user[-2] == _Big_allocation_sentinel, "invalid argument");
; 210  : 
; 211  :     // Extra paranoia on aligned allocation/deallocation; ensure _Ptr_container is
; 212  :     // in range [_Min_back_shift, _Non_user_size]
; 213  : #ifdef _DEBUG
; 214  :     constexpr uintptr_t _Min_back_shift = 2 * sizeof(void*);
; 215  : #else // ^^^ defined(_DEBUG) / !defined(_DEBUG) vvv
; 216  :     constexpr uintptr_t _Min_back_shift = sizeof(void*);
; 217  : #endif // ^^^ !defined(_DEBUG) ^^^
; 218  :     const uintptr_t _Back_shift = reinterpret_cast<uintptr_t>(_Ptr) - _Ptr_container;

  00043	2b c2		 sub	 eax, edx

; 219  :     _STL_VERIFY(_Back_shift >= _Min_back_shift && _Back_shift <= _Non_user_size, "invalid argument");

  00045	83 c0 fc	 add	 eax, -4			; fffffffcH
  00048	83 f8 1f	 cmp	 eax, 31			; 0000001fH
  0004b	77 0e		 ja	 SHORT $LN37@Reallocati

; 220  :     _Ptr = reinterpret_cast<void*>(_Ptr_container);

  0004d	8b c2		 mov	 eax, edx
$LN38@Reallocati:

; 289  :         ::operator delete(_Ptr, _Bytes);

  0004f	51		 push	 ecx
  00050	50		 push	 eax
  00051	e8 00 00 00 00	 call	 ??3@YAXPAXI@Z		; operator delete
  00056	83 c4 08	 add	 esp, 8
$LN33@Reallocati:
  00059	5f		 pop	 edi
; File C:\Program Files\Microsoft Visual Studio\2022\Professional\VC\Tools\MSVC\14.44.35207\include\vector

; 625  :         }

  0005a	c3		 ret	 0
$LN37@Reallocati:
; File C:\Program Files\Microsoft Visual Studio\2022\Professional\VC\Tools\MSVC\14.44.35207\include\xmemory

; 219  :     _STL_VERIFY(_Back_shift >= _Min_back_shift && _Back_shift <= _Non_user_size, "invalid argument");

  0005b	6a 00		 push	 0
  0005d	6a 00		 push	 0
  0005f	6a 00		 push	 0
  00061	6a 00		 push	 0
  00063	6a 00		 push	 0
  00065	e8 00 00 00 00	 call	 __invoke_watson
$LN50@Reallocati:
  0006a	cc		 int	 3
??1_Reallocation_guard@?$vector@U__SECRETROOM_TENDER@@V?$allocator@U__SECRETROOM_TENDER@@@std@@@std@@QAE@XZ ENDP ; std::vector<__SECRETROOM_TENDER,std::allocator<__SECRETROOM_TENDER> >::_Reallocation_guard::~_Reallocation_guard
_TEXT	ENDS
; Function compile flags: /Ogtp
; File C:\Program Files\Microsoft Visual Studio\2022\Professional\VC\Tools\MSVC\14.44.35207\include\xmemory
; File C:\Program Files\Microsoft Visual Studio\2022\Professional\VC\Tools\MSVC\14.44.35207\include\vector
; File C:\Program Files\Microsoft Visual Studio\2022\Professional\VC\Tools\MSVC\14.44.35207\include\xmemory
; File C:\Program Files\Microsoft Visual Studio\2022\Professional\VC\Tools\MSVC\14.44.35207\include\vector
; File C:\Program Files\Microsoft Visual Studio\2022\Professional\VC\Tools\MSVC\14.44.35207\include\xmemory
; File C:\Program Files\Microsoft Visual Studio\2022\Professional\VC\Tools\MSVC\14.44.35207\include\vector
; File C:\Program Files\Microsoft Visual Studio\2022\Professional\VC\Tools\MSVC\14.44.35207\include\xmemory
; File C:\Program Files\Microsoft Visual Studio\2022\Professional\VC\Tools\MSVC\14.44.35207\include\vector
; File C:\Program Files\Microsoft Visual Studio\2022\Professional\VC\Tools\MSVC\14.44.35207\include\xmemory
; File C:\Program Files\Microsoft Visual Studio\2022\Professional\VC\Tools\MSVC\14.44.35207\include\vector
; File C:\Program Files\Microsoft Visual Studio\2022\Professional\VC\Tools\MSVC\14.44.35207\include\xmemory
;	COMDAT ??$construct@U__SECRETROOM_TENDER@@ABU1@@?$_Default_allocator_traits@V?$allocator@U__SECRETROOM_TENDER@@@std@@@std@@SAXAAV?$allocator@U__SECRETROOM_TENDER@@@1@QAU__SECRETROOM_TENDER@@ABU3@@Z
_TEXT	SEGMENT
$T2 = -16						; size = 4
__$EHRec$ = -12						; size = 12
___formal$ = 8						; size = 4
__Ptr$ = 12						; size = 4
_<_Args_0>$ = 16					; size = 4
??$construct@U__SECRETROOM_TENDER@@ABU1@@?$_Default_allocator_traits@V?$allocator@U__SECRETROOM_TENDER@@@std@@@std@@SAXAAV?$allocator@U__SECRETROOM_TENDER@@@1@QAU__SECRETROOM_TENDER@@ABU3@@Z PROC ; std::_Default_allocator_traits<std::allocator<__SECRETROOM_TENDER> >::construct<__SECRETROOM_TENDER,__SECRETROOM_TENDER const &>, COMDAT

; 728  :     static _CONSTEXPR20 void construct(_Alloc&, _Objty* const _Ptr, _Types&&... _Args) {

  00000	55		 push	 ebp
  00001	8b ec		 mov	 ebp, esp
  00003	6a ff		 push	 -1
  00005	68 00 00 00 00	 push	 __ehhandler$??$construct@U__SECRETROOM_TENDER@@ABU1@@?$_Default_allocator_traits@V?$allocator@U__SECRETROOM_TENDER@@@std@@@std@@SAXAAV?$allocator@U__SECRETROOM_TENDER@@@1@QAU__SECRETROOM_TENDER@@ABU3@@Z
  0000a	64 a1 00 00 00
	00		 mov	 eax, DWORD PTR fs:0
  00010	50		 push	 eax
  00011	51		 push	 ecx
  00012	53		 push	 ebx
  00013	56		 push	 esi
  00014	57		 push	 edi
  00015	a1 00 00 00 00	 mov	 eax, DWORD PTR ___security_cookie
  0001a	33 c5		 xor	 eax, ebp
  0001c	50		 push	 eax
  0001d	8d 45 f4	 lea	 eax, DWORD PTR __$EHRec$[ebp]
  00020	64 a3 00 00 00
	00		 mov	 DWORD PTR fs:0, eax

; 729  : #if _HAS_CXX20
; 730  :         _STD construct_at(_Ptr, _STD forward<_Types>(_Args)...);
; 731  : #else // ^^^ _HAS_CXX20 / !_HAS_CXX20 vvv
; 732  :         ::new (const_cast<void*>(static_cast<const volatile void*>(_Ptr))) _Objty(_STD forward<_Types>(_Args)...);

  00026	8b 5d 0c	 mov	 ebx, DWORD PTR __Ptr$[ebp]
  00029	8b 7d 10	 mov	 edi, DWORD PTR _<_Args_0>$[ebp]
  0002c	89 5d f0	 mov	 DWORD PTR $T2[ebp], ebx
  0002f	8d 4b 14	 lea	 ecx, DWORD PTR [ebx+20]
  00032	8b 07		 mov	 eax, DWORD PTR [edi]
  00034	89 03		 mov	 DWORD PTR [ebx], eax
  00036	8b 47 04	 mov	 eax, DWORD PTR [edi+4]
  00039	89 43 04	 mov	 DWORD PTR [ebx+4], eax
  0003c	8b 47 08	 mov	 eax, DWORD PTR [edi+8]
  0003f	89 43 08	 mov	 DWORD PTR [ebx+8], eax
  00042	8b 47 0c	 mov	 eax, DWORD PTR [edi+12]
  00045	89 43 0c	 mov	 DWORD PTR [ebx+12], eax
  00048	8b 47 10	 mov	 eax, DWORD PTR [edi+16]
  0004b	89 43 10	 mov	 DWORD PTR [ebx+16], eax
  0004e	8d 47 14	 lea	 eax, DWORD PTR [edi+20]
  00051	50		 push	 eax
  00052	e8 00 00 00 00	 call	 ??0?$vector@KV?$allocator@K@std@@@std@@QAE@ABV01@@Z ; std::vector<unsigned long,std::allocator<unsigned long> >::vector<unsigned long,std::allocator<unsigned long> >
; File C:\Program Files\Microsoft Visual Studio\2022\Professional\VC\Tools\MSVC\14.44.35207\include\vector

; 400  :     _CONSTEXPR20 _Vector_val() noexcept : _Myfirst(), _Mylast(), _Myend() {}

  00057	c7 43 20 00 00
	00 00		 mov	 DWORD PTR [ebx+32], 0
  0005e	c7 43 24 00 00
	00 00		 mov	 DWORD PTR [ebx+36], 0
  00065	c7 43 28 00 00
	00 00		 mov	 DWORD PTR [ebx+40], 0

; 748  :         const auto _Count       = static_cast<size_type>(_Right_data._Mylast - _Right_data._Myfirst);

  0006c	8b 77 24	 mov	 esi, DWORD PTR [edi+36]
  0006f	2b 77 20	 sub	 esi, DWORD PTR [edi+32]
  00072	c1 fe 05	 sar	 esi, 5
  00075	c7 45 fc 00 00
	00 00		 mov	 DWORD PTR __$EHRec$[ebp+8], 0

; 2111 :         if (_Count != 0) {

  0007c	85 f6		 test	 esi, esi
  0007e	74 57		 je	 SHORT $LN56@construct

; 2051 :         if (_Newcapacity > max_size()) {

  00080	81 fe ff ff ff
	07		 cmp	 esi, 134217727		; 07ffffffH
  00086	77 61		 ja	 SHORT $LN66@construct
; File C:\Program Files\Microsoft Visual Studio\2022\Professional\VC\Tools\MSVC\14.44.35207\include\xmemory

; 122  :     return _Count * _Ty_size;

  00088	c1 e6 05	 shl	 esi, 5

; 227  :     if (_Bytes == 0) {

  0008b	85 f6		 test	 esi, esi
  0008d	75 04		 jne	 SHORT $LN33@construct

; 228  :         return nullptr;

  0008f	33 c0		 xor	 eax, eax
  00091	eb 18		 jmp	 SHORT $LN32@construct
$LN33@construct:

; 229  :     }
; 230  : 
; 231  : #if _HAS_CXX20 // TRANSITION, GH-1532
; 232  :     if (_STD is_constant_evaluated()) {
; 233  :         return _Traits::_Allocate(_Bytes);
; 234  :     }
; 235  : #endif // _HAS_CXX20
; 236  : 
; 237  : #ifdef __cpp_aligned_new
; 238  :     if constexpr (_Align > __STDCPP_DEFAULT_NEW_ALIGNMENT__) {
; 239  :         size_t _Passed_align = _Align;
; 240  : #if defined(_M_IX86) || defined(_M_X64)
; 241  :         if (_Bytes >= _Big_allocation_threshold) {
; 242  :             // boost the alignment of big allocations to help autovectorization
; 243  :             _Passed_align = (_STD max)(_Align, _Big_allocation_alignment);
; 244  :         }
; 245  : #endif // defined(_M_IX86) || defined(_M_X64)
; 246  :         return _Traits::_Allocate_aligned(_Bytes, _Passed_align);
; 247  :     } else
; 248  : #endif // defined(__cpp_aligned_new)
; 249  :     {
; 250  : #if defined(_M_IX86) || defined(_M_X64)
; 251  :         if (_Bytes >= _Big_allocation_threshold) {

  00093	56		 push	 esi
  00094	81 fe 00 10 00
	00		 cmp	 esi, 4096		; 00001000H
  0009a	72 07		 jb	 SHORT $LN34@construct

; 252  :             // boost the alignment of big allocations to help autovectorization
; 253  :             return _Allocate_manually_vector_aligned<_Traits>(_Bytes);

  0009c	e8 00 00 00 00	 call	 ??$_Allocate_manually_vector_aligned@U_Default_allocate_traits@std@@@std@@YAPAXI@Z ; std::_Allocate_manually_vector_aligned<std::_Default_allocate_traits>
  000a1	eb 05		 jmp	 SHORT $LN64@construct
$LN34@construct:

; 136  :         return ::operator new(_Bytes);

  000a3	e8 00 00 00 00	 call	 ??2@YAPAXI@Z		; operator new
$LN64@construct:
; File C:\Program Files\Microsoft Visual Studio\2022\Professional\VC\Tools\MSVC\14.44.35207\include\vector

; 2035 :         _Myfirst              = _Newvec;

  000a8	83 c4 04	 add	 esp, 4
$LN32@construct:
  000ab	89 43 20	 mov	 DWORD PTR [ebx+32], eax

; 2036 :         _Mylast               = _Newvec;

  000ae	89 43 24	 mov	 DWORD PTR [ebx+36], eax

; 2037 :         _Myend                = _Newvec + _Newcapacity;

  000b1	03 c6		 add	 eax, esi
  000b3	89 43 28	 mov	 DWORD PTR [ebx+40], eax

; 2120 :                 _My_data._Mylast = _STD _Uninitialized_copy(_STD forward<_Valty>(_Val)..., _My_data._Myfirst, _Al);

  000b6	8b 5b 20	 mov	 ebx, DWORD PTR [ebx+32]
; File C:\Program Files\Microsoft Visual Studio\2022\Professional\VC\Tools\MSVC\14.44.35207\include\xmemory

; 1876 :     auto _UFirst = _STD _Get_unwrapped(_STD move(_First));

  000b9	8b 77 20	 mov	 esi, DWORD PTR [edi+32]

; 1877 :     auto _ULast  = _STD _Get_unwrapped(_STD move(_Last));

  000bc	8b 7f 24	 mov	 edi, DWORD PTR [edi+36]

; 1878 : #endif // ^^^ !_HAS_CXX20 ^^^
; 1879 : 
; 1880 :     constexpr bool _Can_memmove = _Sent_copy_cat<decltype(_UFirst), decltype(_ULast), _Ptrval>::_Bitcopy_constructible
; 1881 :                                && _Uses_default_construct<_Alloc, _Ptrval, decltype(*_UFirst)>::value;
; 1882 : 
; 1883 :     if constexpr (_Can_memmove) {
; 1884 : #if _HAS_CXX20
; 1885 :         if (!_STD is_constant_evaluated())
; 1886 : #endif // _HAS_CXX20
; 1887 :         {
; 1888 :             if constexpr (is_same_v<decltype(_UFirst), decltype(_ULast)>) {
; 1889 :                 _STD _Copy_memmove(_STD _To_address(_UFirst), _STD _To_address(_ULast), _STD _Unfancy(_Dest));

  000bf	53		 push	 ebx
  000c0	57		 push	 edi
  000c1	56		 push	 esi
  000c2	e8 00 00 00 00	 call	 ??$_Copy_memmove@PAU__SECRETROOM_MONSTER@@PAU1@@std@@YAPAU__SECRETROOM_MONSTER@@PAU1@00@Z ; std::_Copy_memmove<__SECRETROOM_MONSTER *,__SECRETROOM_MONSTER *>
; File C:\Program Files\Microsoft Visual Studio\2022\Professional\VC\Tools\MSVC\14.44.35207\include\vector

; 2120 :                 _My_data._Mylast = _STD _Uninitialized_copy(_STD forward<_Valty>(_Val)..., _My_data._Myfirst, _Al);

  000c7	8b 45 0c	 mov	 eax, DWORD PTR __Ptr$[ebp]
; File C:\Program Files\Microsoft Visual Studio\2022\Professional\VC\Tools\MSVC\14.44.35207\include\xmemory

; 1890 :                 _Dest += _ULast - _UFirst;

  000ca	2b fe		 sub	 edi, esi
  000cc	83 e7 e0	 and	 edi, -32		; ffffffe0H
  000cf	83 c4 0c	 add	 esp, 12			; 0000000cH
  000d2	03 fb		 add	 edi, ebx
; File C:\Program Files\Microsoft Visual Studio\2022\Professional\VC\Tools\MSVC\14.44.35207\include\vector

; 2120 :                 _My_data._Mylast = _STD _Uninitialized_copy(_STD forward<_Valty>(_Val)..., _My_data._Myfirst, _Al);

  000d4	89 78 24	 mov	 DWORD PTR [eax+36], edi
$LN56@construct:
; File C:\Program Files\Microsoft Visual Studio\2022\Professional\VC\Tools\MSVC\14.44.35207\include\xmemory

; 734  :     }

  000d7	8b 4d f4	 mov	 ecx, DWORD PTR __$EHRec$[ebp]
  000da	64 89 0d 00 00
	00 00		 mov	 DWORD PTR fs:0, ecx
  000e1	59		 pop	 ecx
  000e2	5f		 pop	 edi
  000e3	5e		 pop	 esi
  000e4	5b		 pop	 ebx
  000e5	8b e5		 mov	 esp, ebp
  000e7	5d		 pop	 ebp
  000e8	c3		 ret	 0
$LN66@construct:
; File C:\Program Files\Microsoft Visual Studio\2022\Professional\VC\Tools\MSVC\14.44.35207\include\vector

; 2052 :             _Xlength();

  000e9	e8 00 00 00 00	 call	 ?_Xlength@?$vector@U__SECRETROOM_MONSTER@@V?$allocator@U__SECRETROOM_MONSTER@@@std@@@std@@CAXXZ ; std::vector<__SECRETROOM_MONSTER,std::allocator<__SECRETROOM_MONSTER> >::_Xlength
$LN63@construct:
  000ee	cc		 int	 3
_TEXT	ENDS
;	COMDAT text$x
text$x	SEGMENT
__unwindfunclet$??$construct@U__SECRETROOM_TENDER@@ABU1@@?$_Default_allocator_traits@V?$allocator@U__SECRETROOM_TENDER@@@std@@@std@@SAXAAV?$allocator@U__SECRETROOM_TENDER@@@1@QAU__SECRETROOM_TENDER@@ABU3@@Z$0:
  00000	8b 4d f0	 mov	 ecx, DWORD PTR $T2[ebp]
  00003	83 c1 14	 add	 ecx, 20			; 00000014H
  00006	e9 00 00 00 00	 jmp	 ??1?$vector@KV?$allocator@K@std@@@std@@QAE@XZ ; std::vector<unsigned long,std::allocator<unsigned long> >::~vector<unsigned long,std::allocator<unsigned long> >
  0000b	cc		 int	 3
  0000c	cc		 int	 3
  0000d	cc		 int	 3
  0000e	cc		 int	 3
  0000f	cc		 int	 3
__ehhandler$??$construct@U__SECRETROOM_TENDER@@ABU1@@?$_Default_allocator_traits@V?$allocator@U__SECRETROOM_TENDER@@@std@@@std@@SAXAAV?$allocator@U__SECRETROOM_TENDER@@@1@QAU__SECRETROOM_TENDER@@ABU3@@Z:
  00010	90		 npad	 1
  00011	90		 npad	 1
  00012	8b 54 24 08	 mov	 edx, DWORD PTR [esp+8]
  00016	8d 42 0c	 lea	 eax, DWORD PTR [edx+12]
  00019	8b 4a ec	 mov	 ecx, DWORD PTR [edx-20]
  0001c	33 c8		 xor	 ecx, eax
  0001e	e8 00 00 00 00	 call	 @__security_check_cookie@4
  00023	b8 00 00 00 00	 mov	 eax, OFFSET __ehfuncinfo$??$construct@U__SECRETROOM_TENDER@@ABU1@@?$_Default_allocator_traits@V?$allocator@U__SECRETROOM_TENDER@@@std@@@std@@SAXAAV?$allocator@U__SECRETROOM_TENDER@@@1@QAU__SECRETROOM_TENDER@@ABU3@@Z
  00028	e9 00 00 00 00	 jmp	 ___CxxFrameHandler3
text$x	ENDS
??$construct@U__SECRETROOM_TENDER@@ABU1@@?$_Default_allocator_traits@V?$allocator@U__SECRETROOM_TENDER@@@std@@@std@@SAXAAV?$allocator@U__SECRETROOM_TENDER@@@1@QAU__SECRETROOM_TENDER@@ABU3@@Z ENDP ; std::_Default_allocator_traits<std::allocator<__SECRETROOM_TENDER> >::construct<__SECRETROOM_TENDER,__SECRETROOM_TENDER const &>
; Function compile flags: /Ogtp
; File C:\Program Files\Microsoft Visual Studio\2022\Professional\VC\Tools\MSVC\14.44.35207\include\xutility
;	COMDAT ??$_Copy_memmove_tail@PAK@std@@YAPAKQBDQAKII@Z
_TEXT	SEGMENT
__First_ch$ = 8						; size = 4
__Dest$ = 12						; size = 4
__Byte_count$ = 16					; size = 4
__Object_count$ = 20					; size = 4
??$_Copy_memmove_tail@PAK@std@@YAPAKQBDQAKII@Z PROC	; std::_Copy_memmove_tail<unsigned long *>, COMDAT

; 4747 :     const char* const _First_ch, const _OutCtgIt _Dest, const size_t _Byte_count, const size_t _Object_count) {

  00000	55		 push	 ebp
  00001	8b ec		 mov	 ebp, esp
  00003	56		 push	 esi

; 4748 :     _STL_INTERNAL_CHECK(_Byte_count == _Object_count * sizeof(*_Dest));
; 4749 :     const auto _Dest_ptr = _STD _To_address(_Dest);
; 4750 :     const auto _Dest_ch  = const_cast<char*>(reinterpret_cast<const volatile char*>(_Dest_ptr));
; 4751 :     _CSTD memmove(_Dest_ch, _First_ch, _Byte_count);

  00004	8b 75 0c	 mov	 esi, DWORD PTR __Dest$[ebp]
  00007	57		 push	 edi
  00008	8b 7d 10	 mov	 edi, DWORD PTR __Byte_count$[ebp]
  0000b	57		 push	 edi
  0000c	ff 75 08	 push	 DWORD PTR __First_ch$[ebp]
  0000f	56		 push	 esi
  00010	e8 00 00 00 00	 call	 _memmove
  00015	83 c4 0c	 add	 esp, 12			; 0000000cH

; 4752 :     if constexpr (is_pointer_v<_OutCtgIt>) {
; 4753 :         (void) _Object_count;
; 4754 :         // CodeQL [SM02986] This cast is correct: we're bypassing pointer arithmetic for performance.
; 4755 :         return reinterpret_cast<_OutCtgIt>(_Dest_ch + _Byte_count);

  00018	8d 04 3e	 lea	 eax, DWORD PTR [esi+edi]
  0001b	5f		 pop	 edi
  0001c	5e		 pop	 esi

; 4756 :     } else {
; 4757 :         return _Dest + static_cast<_Iter_diff_t<_OutCtgIt>>(_Object_count);
; 4758 :     }
; 4759 : }

  0001d	5d		 pop	 ebp
  0001e	c3		 ret	 0
??$_Copy_memmove_tail@PAK@std@@YAPAKQBDQAKII@Z ENDP	; std::_Copy_memmove_tail<unsigned long *>
_TEXT	ENDS
; Function compile flags: /Ogtp
; File C:\Program Files\Microsoft Visual Studio\2022\Professional\VC\Tools\MSVC\14.44.35207\include\xmemory
;	COMDAT ??1?$_Tree_temp_node_alloc@V?$allocator@U?$_Tree_node@U?$pair@$$CBKV?$CStringT@DV?$StrTraitMFC@DV?$ChTraitsCRT@D@ATL@@@@@ATL@@@std@@PAX@std@@@std@@@std@@QAE@XZ
_TEXT	SEGMENT
??1?$_Tree_temp_node_alloc@V?$allocator@U?$_Tree_node@U?$pair@$$CBKV?$CStringT@DV?$StrTraitMFC@DV?$ChTraitsCRT@D@ATL@@@@@ATL@@@std@@PAX@std@@@std@@@std@@QAE@XZ PROC ; std::_Tree_temp_node_alloc<std::allocator<std::_Tree_node<std::pair<unsigned long const ,ATL::CStringT<char,StrTraitMFC<char,ATL::ChTraitsCRT<char> > > >,void *> > >::~_Tree_temp_node_alloc<std::allocator<std::_Tree_node<std::pair<unsigned long const ,ATL::CStringT<char,StrTraitMFC<char,ATL::ChTraitsCRT<char> > > >,void *> > >, COMDAT
; _this$ = ecx

; 1172 :         if (_Ptr) {

  00000	8b 41 04	 mov	 eax, DWORD PTR [ecx+4]
  00003	85 c0		 test	 eax, eax
  00005	74 0b		 je	 SHORT $LN13@Tree_temp_

; 289  :         ::operator delete(_Ptr, _Bytes);

  00007	6a 18		 push	 24			; 00000018H
  00009	50		 push	 eax
  0000a	e8 00 00 00 00	 call	 ??3@YAXPAXI@Z		; operator delete
  0000f	83 c4 08	 add	 esp, 8
$LN13@Tree_temp_:
  00012	c3		 ret	 0
??1?$_Tree_temp_node_alloc@V?$allocator@U?$_Tree_node@U?$pair@$$CBKV?$CStringT@DV?$StrTraitMFC@DV?$ChTraitsCRT@D@ATL@@@@@ATL@@@std@@PAX@std@@@std@@@std@@QAE@XZ ENDP ; std::_Tree_temp_node_alloc<std::allocator<std::_Tree_node<std::pair<unsigned long const ,ATL::CStringT<char,StrTraitMFC<char,ATL::ChTraitsCRT<char> > > >,void *> > >::~_Tree_temp_node_alloc<std::allocator<std::_Tree_node<std::pair<unsigned long const ,ATL::CStringT<char,StrTraitMFC<char,ATL::ChTraitsCRT<char> > > >,void *> > >
_TEXT	ENDS
; Function compile flags: /Ogtp
; File C:\Program Files\Microsoft Visual Studio\2022\Professional\VC\Tools\MSVC\14.44.35207\include\xmemory
;	COMDAT ??1?$_Alloc_construct_ptr@V?$allocator@U?$_Tree_node@U?$pair@$$CBKV?$CStringT@DV?$StrTraitMFC@DV?$ChTraitsCRT@D@ATL@@@@@ATL@@@std@@PAX@std@@@std@@@std@@QAE@XZ
_TEXT	SEGMENT
??1?$_Alloc_construct_ptr@V?$allocator@U?$_Tree_node@U?$pair@$$CBKV?$CStringT@DV?$StrTraitMFC@DV?$ChTraitsCRT@D@ATL@@@@@ATL@@@std@@PAX@std@@@std@@@std@@QAE@XZ PROC ; std::_Alloc_construct_ptr<std::allocator<std::_Tree_node<std::pair<unsigned long const ,ATL::CStringT<char,StrTraitMFC<char,ATL::ChTraitsCRT<char> > > >,void *> > >::~_Alloc_construct_ptr<std::allocator<std::_Tree_node<std::pair<unsigned long const ,ATL::CStringT<char,StrTraitMFC<char,ATL::ChTraitsCRT<char> > > >,void *> > >, COMDAT
; _this$ = ecx

; 1172 :         if (_Ptr) {

  00000	8b 41 04	 mov	 eax, DWORD PTR [ecx+4]
  00003	85 c0		 test	 eax, eax
  00005	74 0b		 je	 SHORT $LN10@Alloc_cons

; 289  :         ::operator delete(_Ptr, _Bytes);

  00007	6a 18		 push	 24			; 00000018H
  00009	50		 push	 eax
  0000a	e8 00 00 00 00	 call	 ??3@YAXPAXI@Z		; operator delete
  0000f	83 c4 08	 add	 esp, 8
$LN10@Alloc_cons:

; 1173 :             _Al.deallocate(_Ptr, 1);
; 1174 :         }
; 1175 :     }

  00012	c3		 ret	 0
??1?$_Alloc_construct_ptr@V?$allocator@U?$_Tree_node@U?$pair@$$CBKV?$CStringT@DV?$StrTraitMFC@DV?$ChTraitsCRT@D@ATL@@@@@ATL@@@std@@PAX@std@@@std@@@std@@QAE@XZ ENDP ; std::_Alloc_construct_ptr<std::allocator<std::_Tree_node<std::pair<unsigned long const ,ATL::CStringT<char,StrTraitMFC<char,ATL::ChTraitsCRT<char> > > >,void *> > >::~_Alloc_construct_ptr<std::allocator<std::_Tree_node<std::pair<unsigned long const ,ATL::CStringT<char,StrTraitMFC<char,ATL::ChTraitsCRT<char> > > >,void *> > >
_TEXT	ENDS
; Function compile flags: /Ogtp
; File C:\Program Files\Microsoft Visual Studio\2022\Professional\VC\Tools\MSVC\14.44.35207\include\vector
; File C:\Program Files\Microsoft Visual Studio\2022\Professional\VC\Tools\MSVC\14.44.35207\include\xmemory
; File C:\Program Files\Microsoft Visual Studio\2022\Professional\VC\Tools\MSVC\14.44.35207\include\vector
; File C:\Program Files\Microsoft Visual Studio\2022\Professional\VC\Tools\MSVC\14.44.35207\include\xmemory
; File C:\Program Files\Microsoft Visual Studio\2022\Professional\VC\Tools\MSVC\14.44.35207\include\vector
; File C:\Program Files\Microsoft Visual Studio\2022\Professional\VC\Tools\MSVC\14.44.35207\include\xmemory
; File C:\Program Files\Microsoft Visual Studio\2022\Professional\VC\Tools\MSVC\14.44.35207\include\vector
; File C:\Program Files\Microsoft Visual Studio\2022\Professional\VC\Tools\MSVC\14.44.35207\include\xmemory
; File C:\Program Files\Microsoft Visual Studio\2022\Professional\VC\Tools\MSVC\14.44.35207\include\vector
; File C:\Program Files\Microsoft Visual Studio\2022\Professional\VC\Tools\MSVC\14.44.35207\include\xmemory
; File C:\Program Files\Microsoft Visual Studio\2022\Professional\VC\Tools\MSVC\14.44.35207\include\vector
; File C:\Program Files\Microsoft Visual Studio\2022\Professional\VC\Tools\MSVC\14.44.35207\include\xmemory
; File C:\Program Files\Microsoft Visual Studio\2022\Professional\VC\Tools\MSVC\14.44.35207\include\vector
; File C:\Program Files\Microsoft Visual Studio\2022\Professional\VC\Tools\MSVC\14.44.35207\include\xmemory
; File C:\Program Files\Microsoft Visual Studio\2022\Professional\VC\Tools\MSVC\14.44.35207\include\vector
; File C:\Program Files\Microsoft Visual Studio\2022\Professional\VC\Tools\MSVC\14.44.35207\include\xmemory
; File C:\Program Files\Microsoft Visual Studio\2022\Professional\VC\Tools\MSVC\14.44.35207\include\vector
;	COMDAT ??$_Emplace_reallocate@ABK@?$vector@KV?$allocator@K@std@@@std@@AAEPAKQAKABK@Z
_TEXT	SEGMENT
__Newsize$1$ = -12					; size = 4
tv652 = -8						; size = 4
tv650 = -4						; size = 4
__Whereptr$ = 8						; size = 4
_<_Val_0>$ = 12						; size = 4
??$_Emplace_reallocate@ABK@?$vector@KV?$allocator@K@std@@@std@@AAEPAKQAKABK@Z PROC ; std::vector<unsigned long,std::allocator<unsigned long> >::_Emplace_reallocate<unsigned long const &>, COMDAT
; _this$ = ecx

; 875  :     _CONSTEXPR20 pointer _Emplace_reallocate(const pointer _Whereptr, _Valty&&... _Val) {

  00000	55		 push	 ebp
  00001	8b ec		 mov	 ebp, esp
  00003	83 ec 0c	 sub	 esp, 12			; 0000000cH
  00006	53		 push	 ebx

; 876  :         // reallocate and insert by perfectly forwarding _Val at _Whereptr
; 877  :         _Alty& _Al        = _Getal();
; 878  :         auto& _My_data    = _Mypair._Myval2;
; 879  :         pointer& _Myfirst = _My_data._Myfirst;
; 880  :         pointer& _Mylast  = _My_data._Mylast;
; 881  : 
; 882  :         _STL_INTERNAL_CHECK(_Mylast == _My_data._Myend); // check that we have no unused capacity
; 883  : 
; 884  :         const auto _Whereoff = static_cast<size_type>(_Whereptr - _Myfirst);

  00007	8b 5d 08	 mov	 ebx, DWORD PTR __Whereptr$[ebp]
  0000a	56		 push	 esi
  0000b	8b f1		 mov	 esi, ecx
  0000d	57		 push	 edi
  0000e	8b 0e		 mov	 ecx, DWORD PTR [esi]
  00010	2b d9		 sub	 ebx, ecx

; 885  :         const auto _Oldsize  = static_cast<size_type>(_Mylast - _Myfirst);

  00012	8b 46 04	 mov	 eax, DWORD PTR [esi+4]
  00015	2b c1		 sub	 eax, ecx
  00017	c1 fb 02	 sar	 ebx, 2
  0001a	c1 f8 02	 sar	 eax, 2

; 886  : 
; 887  :         if (_Oldsize == max_size()) {

  0001d	3d ff ff ff 3f	 cmp	 eax, 1073741823		; 3fffffffH
  00022	0f 84 13 01 00
	00		 je	 $LN111@Emplace_re

; 1924 :         return static_cast<size_type>(_My_data._Myend - _My_data._Myfirst);

  00028	8b 56 08	 mov	 edx, DWORD PTR [esi+8]

; 889  :         }
; 890  : 
; 891  :         const size_type _Newsize = _Oldsize + 1;

  0002b	8d 78 01	 lea	 edi, DWORD PTR [eax+1]

; 1924 :         return static_cast<size_type>(_My_data._Myend - _My_data._Myfirst);

  0002e	2b d1		 sub	 edx, ecx

; 889  :         }
; 890  : 
; 891  :         const size_type _Newsize = _Oldsize + 1;

  00030	89 7d f4	 mov	 DWORD PTR __Newsize$1$[ebp], edi

; 1924 :         return static_cast<size_type>(_My_data._Myend - _My_data._Myfirst);

  00033	c1 fa 02	 sar	 edx, 2

; 2011 :         if (_Oldcapacity > _Max - _Oldcapacity / 2) {

  00036	b8 ff ff ff 3f	 mov	 eax, 1073741823		; 3fffffffH
  0003b	8b ca		 mov	 ecx, edx
  0003d	d1 e9		 shr	 ecx, 1
  0003f	2b c1		 sub	 eax, ecx
  00041	3b d0		 cmp	 edx, eax
  00043	76 14		 jbe	 SHORT $LN8@Emplace_re

; 2012 :             return _Max; // geometric growth would overflow

  00045	b8 fc ff ff ff	 mov	 eax, -4			; fffffffcH
  0004a	c7 45 f8 fc ff
	ff ff		 mov	 DWORD PTR tv652[ebp], -4 ; fffffffcH
; File C:\Program Files\Microsoft Visual Studio\2022\Professional\VC\Tools\MSVC\14.44.35207\include\xmemory

; 253  :             return _Allocate_manually_vector_aligned<_Traits>(_Bytes);

  00051	50		 push	 eax
  00052	e8 00 00 00 00	 call	 ??$_Allocate_manually_vector_aligned@U_Default_allocate_traits@std@@@std@@YAPAXI@Z ; std::_Allocate_manually_vector_aligned<std::_Default_allocate_traits>
  00057	eb 3d		 jmp	 SHORT $LN109@Emplace_re
$LN8@Emplace_re:
; File C:\Program Files\Microsoft Visual Studio\2022\Professional\VC\Tools\MSVC\14.44.35207\include\vector

; 2015 :         const size_type _Geometric = _Oldcapacity + _Oldcapacity / 2;

  00059	8d 04 11	 lea	 eax, DWORD PTR [ecx+edx]
; File C:\Program Files\Microsoft Visual Studio\2022\Professional\VC\Tools\MSVC\14.44.35207\include\xmemory

; 117  :         if (_Count > _Max_possible) {

  0005c	8b cf		 mov	 ecx, edi
  0005e	3b c7		 cmp	 eax, edi
  00060	0f 43 c8	 cmovae	 ecx, eax
  00063	81 f9 ff ff ff
	3f		 cmp	 ecx, 1073741823		; 3fffffffH
  00069	0f 87 d1 00 00
	00		 ja	 $LN112@Emplace_re

; 119  :         }
; 120  :     }
; 121  : 
; 122  :     return _Count * _Ty_size;

  0006f	8d 04 8d 00 00
	00 00		 lea	 eax, DWORD PTR [ecx*4]
  00076	89 45 f8	 mov	 DWORD PTR tv652[ebp], eax

; 227  :     if (_Bytes == 0) {

  00079	85 c0		 test	 eax, eax
  0007b	75 04		 jne	 SHORT $LN23@Emplace_re

; 228  :         return nullptr;

  0007d	33 ff		 xor	 edi, edi
  0007f	eb 1a		 jmp	 SHORT $LN22@Emplace_re
$LN23@Emplace_re:

; 229  :     }
; 230  : 
; 231  : #if _HAS_CXX20 // TRANSITION, GH-1532
; 232  :     if (_STD is_constant_evaluated()) {
; 233  :         return _Traits::_Allocate(_Bytes);
; 234  :     }
; 235  : #endif // _HAS_CXX20
; 236  : 
; 237  : #ifdef __cpp_aligned_new
; 238  :     if constexpr (_Align > __STDCPP_DEFAULT_NEW_ALIGNMENT__) {
; 239  :         size_t _Passed_align = _Align;
; 240  : #if defined(_M_IX86) || defined(_M_X64)
; 241  :         if (_Bytes >= _Big_allocation_threshold) {
; 242  :             // boost the alignment of big allocations to help autovectorization
; 243  :             _Passed_align = (_STD max)(_Align, _Big_allocation_alignment);
; 244  :         }
; 245  : #endif // defined(_M_IX86) || defined(_M_X64)
; 246  :         return _Traits::_Allocate_aligned(_Bytes, _Passed_align);
; 247  :     } else
; 248  : #endif // defined(__cpp_aligned_new)
; 249  :     {
; 250  : #if defined(_M_IX86) || defined(_M_X64)
; 251  :         if (_Bytes >= _Big_allocation_threshold) {

  00081	3d 00 10 00 00	 cmp	 eax, 4096		; 00001000H
  00086	72 08		 jb	 SHORT $LN24@Emplace_re

; 253  :             return _Allocate_manually_vector_aligned<_Traits>(_Bytes);

  00088	50		 push	 eax
  00089	e8 00 00 00 00	 call	 ??$_Allocate_manually_vector_aligned@U_Default_allocate_traits@std@@@std@@YAPAXI@Z ; std::_Allocate_manually_vector_aligned<std::_Default_allocate_traits>
  0008e	eb 06		 jmp	 SHORT $LN109@Emplace_re
$LN24@Emplace_re:

; 136  :         return ::operator new(_Bytes);

  00090	50		 push	 eax
  00091	e8 00 00 00 00	 call	 ??2@YAPAXI@Z		; operator new
$LN109@Emplace_re:
; File C:\Program Files\Microsoft Visual Studio\2022\Professional\VC\Tools\MSVC\14.44.35207\include\vector

; 900  :         _Alty_traits::construct(_Al, _STD _Unfancy(_Newvec + _Whereoff), _STD forward<_Valty>(_Val)...);

  00096	8b f8		 mov	 edi, eax
  00098	83 c4 04	 add	 esp, 4
$LN22@Emplace_re:
  0009b	8b 45 0c	 mov	 eax, DWORD PTR _<_Val_0>$[ebp]
  0009e	8d 0c 9f	 lea	 ecx, DWORD PTR [edi+ebx*4]

; 901  :         _Constructed_first = _Newvec + _Whereoff;
; 902  : 
; 903  :         if (_Whereptr == _Mylast) { // at back, provide strong guarantee

  000a1	8b 5d 08	 mov	 ebx, DWORD PTR __Whereptr$[ebp]
  000a4	89 4d fc	 mov	 DWORD PTR tv650[ebp], ecx
  000a7	8b 00		 mov	 eax, DWORD PTR [eax]
  000a9	89 01		 mov	 DWORD PTR [ecx], eax
  000ab	8b 46 04	 mov	 eax, DWORD PTR [esi+4]
  000ae	8b 0e		 mov	 ecx, DWORD PTR [esi]
  000b0	3b d8		 cmp	 ebx, eax
  000b2	75 07		 jne	 SHORT $LN3@Emplace_re

; 909  :         } else { // provide basic guarantee

  000b4	8b 5d fc	 mov	 ebx, DWORD PTR tv650[ebp]
; File C:\Program Files\Microsoft Visual Studio\2022\Professional\VC\Tools\MSVC\14.44.35207\include\xmemory

; 1992 :             _STD _Copy_memmove(_UFirst, _ULast, _STD _Unfancy(_Dest));

  000b7	8b d7		 mov	 edx, edi
; File C:\Program Files\Microsoft Visual Studio\2022\Professional\VC\Tools\MSVC\14.44.35207\include\vector

; 909  :         } else { // provide basic guarantee

  000b9	eb 16		 jmp	 SHORT $LN52@Emplace_re
$LN3@Emplace_re:
; File C:\Program Files\Microsoft Visual Studio\2022\Professional\VC\Tools\MSVC\14.44.35207\include\xmemory

; 1992 :             _STD _Copy_memmove(_UFirst, _ULast, _STD _Unfancy(_Dest));

  000bb	57		 push	 edi
  000bc	53		 push	 ebx
  000bd	51		 push	 ecx
  000be	e8 00 00 00 00	 call	 ??$_Copy_memmove@PAKPAK@std@@YAPAKPAK00@Z ; std::_Copy_memmove<unsigned long *,unsigned long *>
  000c3	8b 46 04	 mov	 eax, DWORD PTR [esi+4]
  000c6	8b cb		 mov	 ecx, ebx
; File C:\Program Files\Microsoft Visual Studio\2022\Professional\VC\Tools\MSVC\14.44.35207\include\vector

; 912  :             _STD _Uninitialized_move(_Whereptr, _Mylast, _Newvec + _Whereoff + 1, _Al);

  000c8	8b 5d fc	 mov	 ebx, DWORD PTR tv650[ebp]
; File C:\Program Files\Microsoft Visual Studio\2022\Professional\VC\Tools\MSVC\14.44.35207\include\xmemory

; 1992 :             _STD _Copy_memmove(_UFirst, _ULast, _STD _Unfancy(_Dest));

  000cb	83 c4 0c	 add	 esp, 12			; 0000000cH
; File C:\Program Files\Microsoft Visual Studio\2022\Professional\VC\Tools\MSVC\14.44.35207\include\vector

; 912  :             _STD _Uninitialized_move(_Whereptr, _Mylast, _Newvec + _Whereoff + 1, _Al);

  000ce	8d 53 04	 lea	 edx, DWORD PTR [ebx+4]
$LN52@Emplace_re:

; 913  :         }
; 914  : 
; 915  :         _Guard._New_begin = nullptr;

  000d1	52		 push	 edx
  000d2	50		 push	 eax
  000d3	51		 push	 ecx
  000d4	e8 00 00 00 00	 call	 ??$_Copy_memmove@PAKPAK@std@@YAPAKPAK00@Z ; std::_Copy_memmove<unsigned long *,unsigned long *>

; 2069 :         if (_Myfirst) { // destroy and deallocate old array

  000d9	8b 06		 mov	 eax, DWORD PTR [esi]

; 913  :         }
; 914  : 
; 915  :         _Guard._New_begin = nullptr;

  000db	83 c4 0c	 add	 esp, 12			; 0000000cH

; 2069 :         if (_Myfirst) { // destroy and deallocate old array

  000de	85 c0		 test	 eax, eax
  000e0	74 2c		 je	 SHORT $LN72@Emplace_re

; 2070 :             _STD _Destroy_range(_Myfirst, _Mylast, _Al);
; 2071 :             _ASAN_VECTOR_REMOVE;
; 2072 :             _Al.deallocate(_Myfirst, static_cast<size_type>(_Myend - _Myfirst));

  000e2	8b 4e 08	 mov	 ecx, DWORD PTR [esi+8]
  000e5	2b c8		 sub	 ecx, eax
; File C:\Program Files\Microsoft Visual Studio\2022\Professional\VC\Tools\MSVC\14.44.35207\include\xmemory

; 985  :         _STD _Deallocate<_New_alignof<_Ty>>(_Ptr, sizeof(_Ty) * _Count);

  000e7	83 e1 fc	 and	 ecx, -4			; fffffffcH

; 284  :         if (_Bytes >= _Big_allocation_threshold) {

  000ea	81 f9 00 10 00
	00		 cmp	 ecx, 4096		; 00001000H
  000f0	72 12		 jb	 SHORT $LN77@Emplace_re

; 205  :     const uintptr_t _Ptr_container   = _Ptr_user[-1];

  000f2	8b 50 fc	 mov	 edx, DWORD PTR [eax-4]
  000f5	83 c1 23	 add	 ecx, 35			; 00000023H

; 206  : 
; 207  :     // If the following asserts, it likely means that we are performing
; 208  :     // an aligned delete on memory coming from an unaligned allocation.
; 209  :     _STL_ASSERT(_Ptr_user[-2] == _Big_allocation_sentinel, "invalid argument");
; 210  : 
; 211  :     // Extra paranoia on aligned allocation/deallocation; ensure _Ptr_container is
; 212  :     // in range [_Min_back_shift, _Non_user_size]
; 213  : #ifdef _DEBUG
; 214  :     constexpr uintptr_t _Min_back_shift = 2 * sizeof(void*);
; 215  : #else // ^^^ defined(_DEBUG) / !defined(_DEBUG) vvv
; 216  :     constexpr uintptr_t _Min_back_shift = sizeof(void*);
; 217  : #endif // ^^^ !defined(_DEBUG) ^^^
; 218  :     const uintptr_t _Back_shift = reinterpret_cast<uintptr_t>(_Ptr) - _Ptr_container;

  000f8	2b c2		 sub	 eax, edx

; 219  :     _STL_VERIFY(_Back_shift >= _Min_back_shift && _Back_shift <= _Non_user_size, "invalid argument");

  000fa	83 c0 fc	 add	 eax, -4			; fffffffcH
  000fd	83 f8 1f	 cmp	 eax, 31			; 0000001fH
  00100	77 2a		 ja	 SHORT $LN76@Emplace_re

; 220  :     _Ptr = reinterpret_cast<void*>(_Ptr_container);

  00102	8b c2		 mov	 eax, edx
$LN77@Emplace_re:

; 289  :         ::operator delete(_Ptr, _Bytes);

  00104	51		 push	 ecx
  00105	50		 push	 eax
  00106	e8 00 00 00 00	 call	 ??3@YAXPAXI@Z		; operator delete
  0010b	83 c4 08	 add	 esp, 8
$LN72@Emplace_re:
; File C:\Program Files\Microsoft Visual Studio\2022\Professional\VC\Tools\MSVC\14.44.35207\include\vector

; 2076 :         _Mylast  = _Newvec + _Newsize;

  0010e	8b 45 f4	 mov	 eax, DWORD PTR __Newsize$1$[ebp]
  00111	89 3e		 mov	 DWORD PTR [esi], edi
  00113	8d 0c 87	 lea	 ecx, DWORD PTR [edi+eax*4]

; 916  :         _Change_array(_Newvec, _Newsize, _Newcapacity);
; 917  :         return _Newvec + _Whereoff;

  00116	8b c3		 mov	 eax, ebx

; 2076 :         _Mylast  = _Newvec + _Newsize;

  00118	89 4e 04	 mov	 DWORD PTR [esi+4], ecx

; 2077 :         _Myend   = _Newvec + _Newcapacity;

  0011b	8b 4d f8	 mov	 ecx, DWORD PTR tv652[ebp]
  0011e	03 cf		 add	 ecx, edi

; 918  :     }

  00120	5f		 pop	 edi

; 2077 :         _Myend   = _Newvec + _Newcapacity;

  00121	89 4e 08	 mov	 DWORD PTR [esi+8], ecx

; 918  :     }

  00124	5e		 pop	 esi
  00125	5b		 pop	 ebx
  00126	8b e5		 mov	 esp, ebp
  00128	5d		 pop	 ebp
  00129	c2 08 00	 ret	 8
$LN76@Emplace_re:
; File C:\Program Files\Microsoft Visual Studio\2022\Professional\VC\Tools\MSVC\14.44.35207\include\xmemory

; 219  :     _STL_VERIFY(_Back_shift >= _Min_back_shift && _Back_shift <= _Non_user_size, "invalid argument");

  0012c	6a 00		 push	 0
  0012e	6a 00		 push	 0
  00130	6a 00		 push	 0
  00132	6a 00		 push	 0
  00134	6a 00		 push	 0
  00136	e8 00 00 00 00	 call	 __invoke_watson
$LN111@Emplace_re:
; File C:\Program Files\Microsoft Visual Studio\2022\Professional\VC\Tools\MSVC\14.44.35207\include\vector

; 888  :             _Xlength();

  0013b	e8 00 00 00 00	 call	 ?_Xlength@?$vector@KV?$allocator@K@std@@@std@@CAXXZ ; std::vector<unsigned long,std::allocator<unsigned long> >::_Xlength
$LN112@Emplace_re:
; File C:\Program Files\Microsoft Visual Studio\2022\Professional\VC\Tools\MSVC\14.44.35207\include\xmemory

; 118  :             _Throw_bad_array_new_length(); // multiply overflow

  00140	e8 00 00 00 00	 call	 ?_Throw_bad_array_new_length@std@@YAXXZ ; std::_Throw_bad_array_new_length
$LN108@Emplace_re:
  00145	cc		 int	 3
??$_Emplace_reallocate@ABK@?$vector@KV?$allocator@K@std@@@std@@AAEPAKQAKABK@Z ENDP ; std::vector<unsigned long,std::allocator<unsigned long> >::_Emplace_reallocate<unsigned long const &>
_TEXT	ENDS
; Function compile flags: /Ogtp
; File C:\Program Files\Microsoft Visual Studio\2022\Professional\VC\Tools\MSVC\14.44.35207\include\vector
; File C:\Program Files\Microsoft Visual Studio\2022\Professional\VC\Tools\MSVC\14.44.35207\include\xmemory
; File C:\Program Files\Microsoft Visual Studio\2022\Professional\VC\Tools\MSVC\14.44.35207\include\vector
; File C:\Program Files\Microsoft Visual Studio\2022\Professional\VC\Tools\MSVC\14.44.35207\include\xmemory
; File C:\Program Files\Microsoft Visual Studio\2022\Professional\VC\Tools\MSVC\14.44.35207\include\vector
; File C:\Program Files\Microsoft Visual Studio\2022\Professional\VC\Tools\MSVC\14.44.35207\include\xmemory
; File C:\Program Files\Microsoft Visual Studio\2022\Professional\VC\Tools\MSVC\14.44.35207\include\vector
; File C:\Program Files\Microsoft Visual Studio\2022\Professional\VC\Tools\MSVC\14.44.35207\include\xmemory
; File C:\Program Files\Microsoft Visual Studio\2022\Professional\VC\Tools\MSVC\14.44.35207\include\vector
; File C:\Program Files\Microsoft Visual Studio\2022\Professional\VC\Tools\MSVC\14.44.35207\include\xmemory
; File C:\Program Files\Microsoft Visual Studio\2022\Professional\VC\Tools\MSVC\14.44.35207\include\vector
; File C:\Program Files\Microsoft Visual Studio\2022\Professional\VC\Tools\MSVC\14.44.35207\include\xmemory
; File C:\Program Files\Microsoft Visual Studio\2022\Professional\VC\Tools\MSVC\14.44.35207\include\vector
; File C:\Program Files\Microsoft Visual Studio\2022\Professional\VC\Tools\MSVC\14.44.35207\include\xmemory
; File C:\Program Files\Microsoft Visual Studio\2022\Professional\VC\Tools\MSVC\14.44.35207\include\vector
; File C:\Program Files\Microsoft Visual Studio\2022\Professional\VC\Tools\MSVC\14.44.35207\include\xmemory
; File C:\Program Files\Microsoft Visual Studio\2022\Professional\VC\Tools\MSVC\14.44.35207\include\vector
;	COMDAT ??$_Emplace_reallocate@ABU__GC1TO1TENDER@CGuildCombat1to1Mng@@@?$vector@U__GC1TO1TENDER@CGuildCombat1to1Mng@@V?$allocator@U__GC1TO1TENDER@CGuildCombat1to1Mng@@@std@@@std@@AAEPAU__GC1TO1TENDER@CGuildCombat1to1Mng@@QAU23@ABU23@@Z
_TEXT	SEGMENT
__Guard$ = -52						; size = 20
tv696 = -32						; size = 4
__Newsize$1$ = -28					; size = 4
_this$1$ = -24						; size = 4
__Whereoff$1$ = -20					; size = 4
$T2 = -20						; size = 4
tv682 = -16						; size = 4
__$EHRec$ = -12						; size = 12
__Whereptr$ = 8						; size = 4
_<_Val_0>$ = 12						; size = 4
??$_Emplace_reallocate@ABU__GC1TO1TENDER@CGuildCombat1to1Mng@@@?$vector@U__GC1TO1TENDER@CGuildCombat1to1Mng@@V?$allocator@U__GC1TO1TENDER@CGuildCombat1to1Mng@@@std@@@std@@AAEPAU__GC1TO1TENDER@CGuildCombat1to1Mng@@QAU23@ABU23@@Z PROC ; std::vector<CGuildCombat1to1Mng::__GC1TO1TENDER,std::allocator<CGuildCombat1to1Mng::__GC1TO1TENDER> >::_Emplace_reallocate<CGuildCombat1to1Mng::__GC1TO1TENDER const &>, COMDAT
; _this$ = ecx

; 875  :     _CONSTEXPR20 pointer _Emplace_reallocate(const pointer _Whereptr, _Valty&&... _Val) {

  00000	55		 push	 ebp
  00001	8b ec		 mov	 ebp, esp
  00003	6a ff		 push	 -1
  00005	68 00 00 00 00	 push	 __ehhandler$??$_Emplace_reallocate@ABU__GC1TO1TENDER@CGuildCombat1to1Mng@@@?$vector@U__GC1TO1TENDER@CGuildCombat1to1Mng@@V?$allocator@U__GC1TO1TENDER@CGuildCombat1to1Mng@@@std@@@std@@AAEPAU__GC1TO1TENDER@CGuildCombat1to1Mng@@QAU23@ABU23@@Z
  0000a	64 a1 00 00 00
	00		 mov	 eax, DWORD PTR fs:0
  00010	50		 push	 eax
  00011	83 ec 28	 sub	 esp, 40			; 00000028H
  00014	53		 push	 ebx
  00015	56		 push	 esi
  00016	57		 push	 edi
  00017	a1 00 00 00 00	 mov	 eax, DWORD PTR ___security_cookie
  0001c	33 c5		 xor	 eax, ebp
  0001e	50		 push	 eax
  0001f	8d 45 f4	 lea	 eax, DWORD PTR __$EHRec$[ebp]
  00022	64 a3 00 00 00
	00		 mov	 DWORD PTR fs:0, eax
  00028	8b f9		 mov	 edi, ecx
  0002a	89 7d e8	 mov	 DWORD PTR _this$1$[ebp], edi

; 876  :         // reallocate and insert by perfectly forwarding _Val at _Whereptr
; 877  :         _Alty& _Al        = _Getal();
; 878  :         auto& _My_data    = _Mypair._Myval2;
; 879  :         pointer& _Myfirst = _My_data._Myfirst;
; 880  :         pointer& _Mylast  = _My_data._Mylast;
; 881  : 
; 882  :         _STL_INTERNAL_CHECK(_Mylast == _My_data._Myend); // check that we have no unused capacity
; 883  : 
; 884  :         const auto _Whereoff = static_cast<size_type>(_Whereptr - _Myfirst);

  0002d	8b 37		 mov	 esi, DWORD PTR [edi]
  0002f	b8 e9 a2 8b 2e	 mov	 eax, 780903145		; 2e8ba2e9H
  00034	8b 55 08	 mov	 edx, DWORD PTR __Whereptr$[ebp]

; 885  :         const auto _Oldsize  = static_cast<size_type>(_Mylast - _Myfirst);

  00037	8b 4f 04	 mov	 ecx, DWORD PTR [edi+4]
  0003a	2b d6		 sub	 edx, esi
  0003c	f7 ea		 imul	 edx
  0003e	2b ce		 sub	 ecx, esi
  00040	c1 fa 03	 sar	 edx, 3
  00043	8b c2		 mov	 eax, edx
  00045	c1 e8 1f	 shr	 eax, 31			; 0000001fH
  00048	03 c2		 add	 eax, edx
  0004a	89 45 ec	 mov	 DWORD PTR __Whereoff$1$[ebp], eax
  0004d	b8 e9 a2 8b 2e	 mov	 eax, 780903145		; 2e8ba2e9H
  00052	f7 e9		 imul	 ecx
  00054	c1 fa 03	 sar	 edx, 3
  00057	8b c2		 mov	 eax, edx
  00059	c1 e8 1f	 shr	 eax, 31			; 0000001fH
  0005c	03 c2		 add	 eax, edx

; 886  : 
; 887  :         if (_Oldsize == max_size()) {

  0005e	3d 5d 74 d1 05	 cmp	 eax, 97612893		; 05d1745dH
  00063	0f 84 b1 01 00
	00		 je	 $LN124@Emplace_re

; 1924 :         return static_cast<size_type>(_My_data._Myend - _My_data._Myfirst);

  00069	8b 4f 08	 mov	 ecx, DWORD PTR [edi+8]

; 889  :         }
; 890  : 
; 891  :         const size_type _Newsize = _Oldsize + 1;

  0006c	8d 58 01	 lea	 ebx, DWORD PTR [eax+1]

; 1924 :         return static_cast<size_type>(_My_data._Myend - _My_data._Myfirst);

  0006f	2b ce		 sub	 ecx, esi

; 889  :         }
; 890  : 
; 891  :         const size_type _Newsize = _Oldsize + 1;

  00071	89 5d e4	 mov	 DWORD PTR __Newsize$1$[ebp], ebx

; 1924 :         return static_cast<size_type>(_My_data._Myend - _My_data._Myfirst);

  00074	b8 e9 a2 8b 2e	 mov	 eax, 780903145		; 2e8ba2e9H
  00079	f7 e9		 imul	 ecx

; 2011 :         if (_Oldcapacity > _Max - _Oldcapacity / 2) {

  0007b	b8 5d 74 d1 05	 mov	 eax, 97612893		; 05d1745dH

; 1924 :         return static_cast<size_type>(_My_data._Myend - _My_data._Myfirst);

  00080	c1 fa 03	 sar	 edx, 3
  00083	8b ca		 mov	 ecx, edx
  00085	c1 e9 1f	 shr	 ecx, 31			; 0000001fH
  00088	03 ca		 add	 ecx, edx

; 2011 :         if (_Oldcapacity > _Max - _Oldcapacity / 2) {

  0008a	8b d1		 mov	 edx, ecx
  0008c	d1 ea		 shr	 edx, 1
  0008e	2b c2		 sub	 eax, edx
  00090	3b c8		 cmp	 ecx, eax
  00092	76 19		 jbe	 SHORT $LN8@Emplace_re

; 2012 :             return _Max; // geometric growth would overflow

  00094	b8 fc ff ff ff	 mov	 eax, -4			; fffffffcH
  00099	c7 45 f0 fc ff
	ff ff		 mov	 DWORD PTR tv682[ebp], -4 ; fffffffcH
; File C:\Program Files\Microsoft Visual Studio\2022\Professional\VC\Tools\MSVC\14.44.35207\include\xmemory

; 253  :             return _Allocate_manually_vector_aligned<_Traits>(_Bytes);

  000a0	50		 push	 eax
; File C:\Program Files\Microsoft Visual Studio\2022\Professional\VC\Tools\MSVC\14.44.35207\include\vector

; 2012 :             return _Max; // geometric growth would overflow

  000a1	be 5d 74 d1 05	 mov	 esi, 97612893		; 05d1745dH
; File C:\Program Files\Microsoft Visual Studio\2022\Professional\VC\Tools\MSVC\14.44.35207\include\xmemory

; 253  :             return _Allocate_manually_vector_aligned<_Traits>(_Bytes);

  000a6	e8 00 00 00 00	 call	 ??$_Allocate_manually_vector_aligned@U_Default_allocate_traits@std@@@std@@YAPAXI@Z ; std::_Allocate_manually_vector_aligned<std::_Default_allocate_traits>
  000ab	eb 39		 jmp	 SHORT $LN122@Emplace_re
$LN8@Emplace_re:
; File C:\Program Files\Microsoft Visual Studio\2022\Professional\VC\Tools\MSVC\14.44.35207\include\vector

; 2015 :         const size_type _Geometric = _Oldcapacity + _Oldcapacity / 2;

  000ad	8d 04 0a	 lea	 eax, DWORD PTR [edx+ecx]
; File C:\Program Files\Microsoft Visual Studio\2022\Professional\VC\Tools\MSVC\14.44.35207\include\xmemory

; 117  :         if (_Count > _Max_possible) {

  000b0	8b f3		 mov	 esi, ebx
  000b2	3b c3		 cmp	 eax, ebx
  000b4	0f 43 f0	 cmovae	 esi, eax
  000b7	81 fe 5d 74 d1
	05		 cmp	 esi, 97612893		; 05d1745dH
  000bd	0f 87 5c 01 00
	00		 ja	 $LN125@Emplace_re

; 119  :         }
; 120  :     }
; 121  : 
; 122  :     return _Count * _Ty_size;

  000c3	6b c6 2c	 imul	 eax, esi, 44
  000c6	89 45 f0	 mov	 DWORD PTR tv682[ebp], eax

; 227  :     if (_Bytes == 0) {

  000c9	85 c0		 test	 eax, eax
  000cb	75 04		 jne	 SHORT $LN23@Emplace_re

; 228  :         return nullptr;

  000cd	33 db		 xor	 ebx, ebx
  000cf	eb 1a		 jmp	 SHORT $LN22@Emplace_re
$LN23@Emplace_re:

; 229  :     }
; 230  : 
; 231  : #if _HAS_CXX20 // TRANSITION, GH-1532
; 232  :     if (_STD is_constant_evaluated()) {
; 233  :         return _Traits::_Allocate(_Bytes);
; 234  :     }
; 235  : #endif // _HAS_CXX20
; 236  : 
; 237  : #ifdef __cpp_aligned_new
; 238  :     if constexpr (_Align > __STDCPP_DEFAULT_NEW_ALIGNMENT__) {
; 239  :         size_t _Passed_align = _Align;
; 240  : #if defined(_M_IX86) || defined(_M_X64)
; 241  :         if (_Bytes >= _Big_allocation_threshold) {
; 242  :             // boost the alignment of big allocations to help autovectorization
; 243  :             _Passed_align = (_STD max)(_Align, _Big_allocation_alignment);
; 244  :         }
; 245  : #endif // defined(_M_IX86) || defined(_M_X64)
; 246  :         return _Traits::_Allocate_aligned(_Bytes, _Passed_align);
; 247  :     } else
; 248  : #endif // defined(__cpp_aligned_new)
; 249  :     {
; 250  : #if defined(_M_IX86) || defined(_M_X64)
; 251  :         if (_Bytes >= _Big_allocation_threshold) {

  000d1	3d 00 10 00 00	 cmp	 eax, 4096		; 00001000H
  000d6	72 08		 jb	 SHORT $LN24@Emplace_re

; 253  :             return _Allocate_manually_vector_aligned<_Traits>(_Bytes);

  000d8	50		 push	 eax
  000d9	e8 00 00 00 00	 call	 ??$_Allocate_manually_vector_aligned@U_Default_allocate_traits@std@@@std@@YAPAXI@Z ; std::_Allocate_manually_vector_aligned<std::_Default_allocate_traits>
  000de	eb 06		 jmp	 SHORT $LN122@Emplace_re
$LN24@Emplace_re:

; 136  :         return ::operator new(_Bytes);

  000e0	50		 push	 eax
  000e1	e8 00 00 00 00	 call	 ??2@YAPAXI@Z		; operator new
$LN122@Emplace_re:
; File C:\Program Files\Microsoft Visual Studio\2022\Professional\VC\Tools\MSVC\14.44.35207\include\vector

; 895  :         const pointer _Constructed_last = _Newvec + _Whereoff + 1;

  000e6	8b d8		 mov	 ebx, eax
  000e8	83 c4 04	 add	 esp, 4
$LN22@Emplace_re:
  000eb	6b 55 ec 2c	 imul	 edx, DWORD PTR __Whereoff$1$[ebp], 44

; 896  : 
; 897  :         _Reallocation_guard _Guard{_Al, _Newvec, _Newcapacity, _Constructed_last, _Constructed_last};

  000ef	89 7d cc	 mov	 DWORD PTR __Guard$[ebp], edi
  000f2	89 5d d0	 mov	 DWORD PTR __Guard$[ebp+4], ebx
  000f5	89 75 d4	 mov	 DWORD PTR __Guard$[ebp+8], esi
  000f8	03 d3		 add	 edx, ebx
  000fa	89 55 e0	 mov	 DWORD PTR tv696[ebp], edx
  000fd	8d 42 2c	 lea	 eax, DWORD PTR [edx+44]
  00100	89 45 ec	 mov	 DWORD PTR $T2[ebp], eax
  00103	89 45 d8	 mov	 DWORD PTR __Guard$[ebp+12], eax
  00106	89 45 dc	 mov	 DWORD PTR __Guard$[ebp+16], eax
  00109	8b 4d 0c	 mov	 ecx, DWORD PTR _<_Val_0>$[ebp]
  0010c	c7 45 fc 00 00
	00 00		 mov	 DWORD PTR __$EHRec$[ebp+8], 0
  00113	8b 01		 mov	 eax, DWORD PTR [ecx]
  00115	89 02		 mov	 DWORD PTR [edx], eax
  00117	8b 41 04	 mov	 eax, DWORD PTR [ecx+4]
  0011a	89 42 04	 mov	 DWORD PTR [edx+4], eax
  0011d	8b 41 08	 mov	 eax, DWORD PTR [ecx+8]
  00120	89 42 08	 mov	 DWORD PTR [edx+8], eax
  00123	8b 41 0c	 mov	 eax, DWORD PTR [ecx+12]
  00126	89 42 0c	 mov	 DWORD PTR [edx+12], eax
  00129	8b 41 10	 mov	 eax, DWORD PTR [ecx+16]
  0012c	89 42 10	 mov	 DWORD PTR [edx+16], eax
  0012f	8b 41 14	 mov	 eax, DWORD PTR [ecx+20]
  00132	89 42 14	 mov	 DWORD PTR [edx+20], eax
  00135	8b 41 18	 mov	 eax, DWORD PTR [ecx+24]
  00138	89 42 18	 mov	 DWORD PTR [edx+24], eax
  0013b	8b 41 1c	 mov	 eax, DWORD PTR [ecx+28]
  0013e	89 42 1c	 mov	 DWORD PTR [edx+28], eax
  00141	8d 41 20	 lea	 eax, DWORD PTR [ecx+32]
  00144	50		 push	 eax
  00145	8d 4a 20	 lea	 ecx, DWORD PTR [edx+32]
  00148	e8 00 00 00 00	 call	 ??0?$vector@KV?$allocator@K@std@@@std@@QAE@ABV01@@Z ; std::vector<unsigned long,std::allocator<unsigned long> >::vector<unsigned long,std::allocator<unsigned long> >

; 898  :         auto& _Constructed_first = _Guard._Constructed_first;
; 899  : 
; 900  :         _Alty_traits::construct(_Al, _STD _Unfancy(_Newvec + _Whereoff), _STD forward<_Valty>(_Val)...);
; 901  :         _Constructed_first = _Newvec + _Whereoff;
; 902  : 
; 903  :         if (_Whereptr == _Mylast) { // at back, provide strong guarantee

  0014d	8b 57 04	 mov	 edx, DWORD PTR [edi+4]
  00150	8b 75 08	 mov	 esi, DWORD PTR __Whereptr$[ebp]
  00153	8b 07		 mov	 eax, DWORD PTR [edi]
  00155	3b f2		 cmp	 esi, edx
  00157	75 04		 jne	 SHORT $LN3@Emplace_re

; 904  :             if constexpr (is_nothrow_move_constructible_v<_Ty> || !is_copy_constructible_v<_Ty>) {
; 905  :                 _STD _Uninitialized_move(_Myfirst, _Mylast, _Newvec, _Al);

  00159	8b cb		 mov	 ecx, ebx

; 906  :             } else {
; 907  :                 _STD _Uninitialized_copy(_Myfirst, _Mylast, _Newvec, _Al);
; 908  :             }
; 909  :         } else { // provide basic guarantee

  0015b	eb 14		 jmp	 SHORT $LN4@Emplace_re
$LN3@Emplace_re:

; 910  :             _STD _Uninitialized_move(_Myfirst, _Whereptr, _Newvec, _Al);

  0015d	57		 push	 edi
  0015e	53		 push	 ebx
  0015f	56		 push	 esi
  00160	50		 push	 eax
