; Listing generated by Microsoft (R) Optimizing Compiler Version 19.44.35225.0 

	TITLE	C:\IAGOS\server\v18\Source\Output\WorldServer\Release\DPMng.obj
	.686P
	.XMM
	include listing.inc
	.model	flat

INCLUDELIB LIBCMT
INCLUDELIB OLDNAMES

PUBLIC	?__empty_global_delete@@YAXPAX@Z		; __empty_global_delete
PUBLIC	?__empty_global_delete@@YAXPAXI@Z		; __empty_global_delete
PUBLIC	?UninitializeNetLib@@YAXXZ			; UninitializeNetLib
PUBLIC	?InitializeNetLib@@YAHXZ			; InitializeNetLib
PUBLIC	?TestNetLib@@YAXPBDG@Z				; TestNetLib
PUBLIC	??0CDPMng@@QAE@XZ				; CDPMng::CDPMng
PUBLIC	??1CDPMng@@UAE@XZ				; CDPMng::~CDPMng
PUBLIC	?CreateDPObject@CDPMng@@QAEHH@Z			; CDPMng::CreateDPObject
PUBLIC	?DeleteDPObject@CDPMng@@QAEHXZ			; CDPMng::DeleteDPObject
PUBLIC	?InitConnection@CDPMng@@QAEHPAXG@Z		; CDPMng::InitConnection
PUBLIC	?ReceiveMessage@CDPMng@@QAEHXZ			; CDPMng::ReceiveMessage
PUBLIC	?CreateSession@CDPMng@@QAEHPBDW4BUFFER_TYPE@@@Z	; CDPMng::CreateSession
PUBLIC	?JoinSession@CDPMng@@QAEHPBDW4BUFFER_TYPE@@@Z	; CDPMng::JoinSession
PUBLIC	?DestroyPlayer@CDPMng@@QAEHK@Z			; CDPMng::DestroyPlayer
PUBLIC	?GetHostAddr@CDPMng@@QAEXPAD@Z			; CDPMng::GetHostAddr
PUBLIC	?GetPlayerAddr@CDPMng@@QAEXKPAD@Z		; CDPMng::GetPlayerAddr
PUBLIC	?GetPlayerAddr@CDPMng@@QAEKK@Z			; CDPMng::GetPlayerAddr
PUBLIC	??_GCDPMng@@UAEPAXI@Z				; CDPMng::`scalar deleting destructor'
PUBLIC	?ReceiveThread@@YGIPAX@Z			; ReceiveThread
PUBLIC	??_7CDPMng@@6B@					; CDPMng::`vftable'
PUBLIC	??_C@_0DN@MIGJHNJK@C?3?2IAGOS?2server?2v18?2Source?2Sour@ ; `string'
PUBLIC	??_C@_05DIALNFFA@?$CFs?5?$CFd@			; `string'
PUBLIC	??_C@_0BK@EPHKKBKJ@CDPMng?3?3ReceiveMessage?5?$CFd@ ; `string'
PUBLIC	??_R4CDPMng@@6B@				; CDPMng::`RTTI Complete Object Locator'
PUBLIC	??_R0?AVCDPMng@@@8				; CDPMng `RTTI Type Descriptor'
PUBLIC	??_R3CDPMng@@8					; CDPMng::`RTTI Class Hierarchy Descriptor'
PUBLIC	??_R2CDPMng@@8					; CDPMng::`RTTI Base Class Array'
PUBLIC	??_R1A@?0A@EA@CDPMng@@8				; CDPMng::`RTTI Base Class Descriptor at (0,-1,0,64)'
EXTRN	__purecall:PROC
EXTRN	??2@YAPAXI@Z:PROC				; operator new
EXTRN	??3@YAXPAXI@Z:PROC				; operator delete
EXTRN	__imp__CloseHandle@4:PROC
EXTRN	__imp__SetEvent@4:PROC
EXTRN	__imp__WaitForSingleObject@8:PROC
EXTRN	__imp__CreateEventA@16:PROC
EXTRN	__imp__WaitForMultipleObjects@16:PROC
EXTRN	__imp__SetThreadPriority@8:PROC
EXTRN	__imp__GetVersionExA@4:PROC
EXTRN	__imp__closesocket@4:PROC
EXTRN	__imp__connect@12:PROC
EXTRN	__imp__htons@4:PROC
EXTRN	__imp__inet_addr@4:PROC
EXTRN	__imp__socket@12:PROC
EXTRN	__imp__gethostbyname@4:PROC
EXTRN	__imp__WSAStartup@8:PROC
EXTRN	__imp__WSACleanup@0:PROC
EXTRN	__beginthreadex:PROC
EXTRN	?Error@@YAPBDPBDZZ:PROC				; Error
EXTRN	??0CDPSock@@QAE@XZ:PROC				; CDPSock::CDPSock
EXTRN	?Close@CDPSock@@QAEHXZ:PROC			; CDPSock::Close
EXTRN	?Shutdown@CDPSock@@QAEHK@Z:PROC			; CDPSock::Shutdown
EXTRN	?InitializeConnection@CDPSock@@QAEHPAXK@Z:PROC	; CDPSock::InitializeConnection
EXTRN	?CreateServer@CDPSock@@QAEHW4BUFFER_TYPE@@@Z:PROC ; CDPSock::CreateServer
EXTRN	?JoinToServer@CDPSock@@QAEHW4BUFFER_TYPE@@@Z:PROC ; CDPSock::JoinToServer
EXTRN	?CreateServerE@CDPSock@@QAEHW4BUFFER_TYPE@@@Z:PROC ; CDPSock::CreateServerE
EXTRN	?JoinToServerE@CDPSock@@QAEHW4BUFFER_TYPE@@@Z:PROC ; CDPSock::JoinToServerE
EXTRN	?Receive@CDPSock@@QAEPAVCBuffer@@XZ:PROC	; CDPSock::Receive
EXTRN	??_ECDPMng@@UAEPAXI@Z:PROC			; CDPMng::`vector deleting destructor'
EXTRN	@__security_check_cookie@4:PROC
EXTRN	___CxxFrameHandler3:PROC
EXTRN	_memcpy:PROC
EXTRN	_memset:PROC
EXTRN	??_7type_info@@6B@:QWORD			; type_info::`vftable'
EXTRN	?m_pHeapMng@CAr@@2PAVCHeapMng@@A:DWORD		; CAr::m_pHeapMng
EXTRN	?m_pHeapMng@CBuffer@@2PAVCHeapMng@@A:DWORD	; CBuffer::m_pHeapMng
EXTRN	___security_cookie:DWORD
;	COMDAT ??_R1A@?0A@EA@CDPMng@@8
rdata$r	SEGMENT
??_R1A@?0A@EA@CDPMng@@8 DD FLAT:??_R0?AVCDPMng@@@8	; CDPMng::`RTTI Base Class Descriptor at (0,-1,0,64)'
	DD	00H
	DD	00H
	DD	0ffffffffH
	DD	00H
	DD	040H
	DD	FLAT:??_R3CDPMng@@8
rdata$r	ENDS
;	COMDAT ??_R2CDPMng@@8
rdata$r	SEGMENT
??_R2CDPMng@@8 DD FLAT:??_R1A@?0A@EA@CDPMng@@8		; CDPMng::`RTTI Base Class Array'
rdata$r	ENDS
;	COMDAT ??_R3CDPMng@@8
rdata$r	SEGMENT
??_R3CDPMng@@8 DD 00H					; CDPMng::`RTTI Class Hierarchy Descriptor'
	DD	00H
	DD	01H
	DD	FLAT:??_R2CDPMng@@8
rdata$r	ENDS
;	COMDAT ??_R0?AVCDPMng@@@8
data$rs	SEGMENT
??_R0?AVCDPMng@@@8 DD FLAT:??_7type_info@@6B@		; CDPMng `RTTI Type Descriptor'
	DD	00H
	DB	'.?AVCDPMng@@', 00H
data$rs	ENDS
;	COMDAT ??_R4CDPMng@@6B@
rdata$r	SEGMENT
??_R4CDPMng@@6B@ DD 00H					; CDPMng::`RTTI Complete Object Locator'
	DD	00H
	DD	00H
	DD	FLAT:??_R0?AVCDPMng@@@8
	DD	FLAT:??_R3CDPMng@@8
rdata$r	ENDS
;	COMDAT ??_C@_0BK@EPHKKBKJ@CDPMng?3?3ReceiveMessage?5?$CFd@
CONST	SEGMENT
??_C@_0BK@EPHKKBKJ@CDPMng?3?3ReceiveMessage?5?$CFd@ DB 'CDPMng::ReceiveMe'
	DB	'ssage %d', 00H				; `string'
CONST	ENDS
;	COMDAT ??_C@_05DIALNFFA@?$CFs?5?$CFd@
CONST	SEGMENT
??_C@_05DIALNFFA@?$CFs?5?$CFd@ DB '%s %d', 00H		; `string'
CONST	ENDS
;	COMDAT ??_C@_0DN@MIGJHNJK@C?3?2IAGOS?2server?2v18?2Source?2Sour@
CONST	SEGMENT
??_C@_0DN@MIGJHNJK@C?3?2IAGOS?2server?2v18?2Source?2Sour@ DB 'C:\IAGOS\se'
	DB	'rver\v18\Source\Source\_Network\Net\Src\DPMng.cpp', 00H ; `string'
CONST	ENDS
;	COMDAT ??_7CDPMng@@6B@
CONST	SEGMENT
??_7CDPMng@@6B@ DD FLAT:??_R4CDPMng@@6B@		; CDPMng::`vftable'
	DD	FLAT:??_ECDPMng@@UAEPAXI@Z
	DD	FLAT:__purecall
	DD	FLAT:__purecall
CONST	ENDS
;	COMDAT xdata$x
xdata$x	SEGMENT
__unwindtable$?CreateDPObject@CDPMng@@QAEHH@Z DD 0ffffffffH
	DD	FLAT:__unwindfunclet$?CreateDPObject@CDPMng@@QAEHH@Z$0
__ehfuncinfo$?CreateDPObject@CDPMng@@QAEHH@Z DD 019930522H
	DD	01H
	DD	FLAT:__unwindtable$?CreateDPObject@CDPMng@@QAEHH@Z
	DD	2 DUP(00H)
	DD	2 DUP(00H)
	DD	00H
	DD	01H
xdata$x	ENDS
; Function compile flags: /Ogtp
; File C:\IAGOS\server\v18\Source\Source\_Network\Net\Src\DPMng.cpp
;	COMDAT ?ReceiveThread@@YGIPAX@Z
_TEXT	SEGMENT
_lpHandle$ = -8						; size = 8
_lpvThreadParameter$ = 8				; size = 4
?ReceiveThread@@YGIPAX@Z PROC				; ReceiveThread, COMDAT

; 219  : {

  00000	55		 push	 ebp
  00001	8b ec		 mov	 ebp, esp
  00003	83 ec 08	 sub	 esp, 8
  00006	56		 push	 esi

; 220  : 	CDPMng* pThis	= (CDPMng*)lpvThreadParameter;
; 221  : 	HANDLE lpHandle[2];
; 222  : 	lpHandle[0]		= pThis->GetCloseHandle();

  00007	8b 75 08	 mov	 esi, DWORD PTR _lpvThreadParameter$[ebp]
  0000a	57		 push	 edi

; 223  : 	lpHandle[1]		= pThis->GetRecvHandle();
; 224  : 	// loop waiting for player events. If the kill event is signaled, the thread will exit
; 225  : 
; 226  : 	while( WaitForMultipleObjects( 2, lpHandle, FALSE, INFINITE ) != WAIT_OBJECT_0 )

  0000b	8b 3d 00 00 00
	00		 mov	 edi, DWORD PTR __imp__WaitForMultipleObjects@16
  00011	6a ff		 push	 -1
  00013	8b 46 0c	 mov	 eax, DWORD PTR [esi+12]
  00016	89 45 f8	 mov	 DWORD PTR _lpHandle$[ebp], eax
  00019	8b 46 04	 mov	 eax, DWORD PTR [esi+4]
  0001c	6a 00		 push	 0
  0001e	8b 40 5c	 mov	 eax, DWORD PTR [eax+92]
  00021	89 45 fc	 mov	 DWORD PTR _lpHandle$[ebp+4], eax
  00024	8d 45 f8	 lea	 eax, DWORD PTR _lpHandle$[ebp]
  00027	50		 push	 eax
  00028	6a 02		 push	 2
  0002a	ff d7		 call	 edi
  0002c	85 c0		 test	 eax, eax
  0002e	74 17		 je	 SHORT $LN11@ReceiveThr
$LL2@ReceiveThr:

; 227  : 	{
; 228  : 		// receive any messages in the queue
; 229  : 		pThis->ReceiveMessage();

  00030	8b ce		 mov	 ecx, esi
  00032	e8 00 00 00 00	 call	 ?ReceiveMessage@CDPMng@@QAEHXZ ; CDPMng::ReceiveMessage
  00037	6a ff		 push	 -1
  00039	6a 00		 push	 0
  0003b	8d 45 f8	 lea	 eax, DWORD PTR _lpHandle$[ebp]
  0003e	50		 push	 eax
  0003f	6a 02		 push	 2
  00041	ff d7		 call	 edi
  00043	85 c0		 test	 eax, eax
  00045	75 e9		 jne	 SHORT $LL2@ReceiveThr
$LN11@ReceiveThr:
  00047	5f		 pop	 edi

; 230  : 	}
; 231  : 	return( 0 );
; 232  : }

  00048	33 c0		 xor	 eax, eax
  0004a	5e		 pop	 esi
  0004b	8b e5		 mov	 esp, ebp
  0004d	5d		 pop	 ebp
  0004e	c2 04 00	 ret	 4
?ReceiveThread@@YGIPAX@Z ENDP				; ReceiveThread
_TEXT	ENDS
; Function compile flags: /Ogtp
;	COMDAT ??_GCDPMng@@UAEPAXI@Z
_TEXT	SEGMENT
___flags$ = 8						; size = 4
??_GCDPMng@@UAEPAXI@Z PROC				; CDPMng::`scalar deleting destructor', COMDAT
; _this$ = ecx
  00000	55		 push	 ebp
  00001	8b ec		 mov	 ebp, esp
  00003	56		 push	 esi
  00004	8b f1		 mov	 esi, ecx
  00006	e8 00 00 00 00	 call	 ??1CDPMng@@UAE@XZ	; CDPMng::~CDPMng
  0000b	f6 45 08 01	 test	 BYTE PTR ___flags$[ebp], 1
  0000f	74 0b		 je	 SHORT $LN5@scalar
  00011	6a 10		 push	 16			; 00000010H
  00013	56		 push	 esi
  00014	e8 00 00 00 00	 call	 ??3@YAXPAXI@Z		; operator delete
  00019	83 c4 08	 add	 esp, 8
$LN5@scalar:
  0001c	8b c6		 mov	 eax, esi
  0001e	5e		 pop	 esi
  0001f	5d		 pop	 ebp
  00020	c2 04 00	 ret	 4
??_GCDPMng@@UAEPAXI@Z ENDP				; CDPMng::`scalar deleting destructor'
_TEXT	ENDS
; Function compile flags: /Ogtp
; File C:\IAGOS\server\v18\Source\Source\_Network\Net\Src\DPMng.cpp
; File C:\IAGOS\server\v18\Source\Source\_Network\Net\Include\dpsock.h
; File C:\IAGOS\server\v18\Source\Source\_Network\Net\Src\DPMng.cpp
; File C:\IAGOS\server\v18\Source\Source\_Network\Net\Include\dpsock.h
; File C:\IAGOS\server\v18\Source\Source\_Network\Net\Src\DPMng.cpp
;	COMDAT ?GetPlayerAddr@CDPMng@@QAEKK@Z
_TEXT	SEGMENT
_dpid$ = 8						; size = 4
?GetPlayerAddr@CDPMng@@QAEKK@Z PROC			; CDPMng::GetPlayerAddr, COMDAT
; _this$ = ecx

; 132  : {

  00000	55		 push	 ebp
  00001	8b ec		 mov	 ebp, esp

; 133  : 	if( m_pDPSock )

  00003	8b 49 04	 mov	 ecx, DWORD PTR [ecx+4]
  00006	85 c9		 test	 ecx, ecx
  00008	74 09		 je	 SHORT $LN2@GetPlayerA
; File C:\IAGOS\server\v18\Source\Source\_Network\Net\Include\dpsock.h

; 113  : 	{	return m_pSock->GetPeerAddr( dpid );	}

  0000a	8b 49 04	 mov	 ecx, DWORD PTR [ecx+4]
  0000d	8b 01		 mov	 eax, DWORD PTR [ecx]
; File C:\IAGOS\server\v18\Source\Source\_Network\Net\Src\DPMng.cpp

; 138  : }

  0000f	5d		 pop	 ebp
; File C:\IAGOS\server\v18\Source\Source\_Network\Net\Include\dpsock.h

; 113  : 	{	return m_pSock->GetPeerAddr( dpid );	}

  00010	ff 60 14	 jmp	 DWORD PTR [eax+20]
$LN2@GetPlayerA:
; File C:\IAGOS\server\v18\Source\Source\_Network\Net\Src\DPMng.cpp

; 137  : 	return 0;

  00013	33 c0		 xor	 eax, eax

; 138  : }

  00015	5d		 pop	 ebp
  00016	c2 04 00	 ret	 4
?GetPlayerAddr@CDPMng@@QAEKK@Z ENDP			; CDPMng::GetPlayerAddr
_TEXT	ENDS
; Function compile flags: /Ogtp
; File C:\IAGOS\server\v18\Source\Source\_Network\Net\Src\DPMng.cpp
; File C:\IAGOS\server\v18\Source\Source\_Network\Net\Include\dpsock.h
; File C:\IAGOS\server\v18\Source\Source\_Network\Net\Src\DPMng.cpp
;	COMDAT ?GetPlayerAddr@CDPMng@@QAEXKPAD@Z
_TEXT	SEGMENT
_uBufSize$1 = -4					; size = 4
_dpid$ = 8						; size = 4
_lpAddr$ = 12						; size = 4
?GetPlayerAddr@CDPMng@@QAEXKPAD@Z PROC			; CDPMng::GetPlayerAddr, COMDAT
; _this$ = ecx

; 123  : {

  00000	55		 push	 ebp
  00001	8b ec		 mov	 ebp, esp
  00003	51		 push	 ecx

; 124  : 	if( m_pDPSock )

  00004	8b 49 04	 mov	 ecx, DWORD PTR [ecx+4]
  00007	85 c9		 test	 ecx, ecx
  00009	74 19		 je	 SHORT $LN2@GetPlayerA

; 125  : 	{
; 126  : 		u_long uBufSize		= sizeof(lpAddr);

  0000b	c7 45 fc 04 00
	00 00		 mov	 DWORD PTR _uBufSize$1[ebp], 4
; File C:\IAGOS\server\v18\Source\Source\_Network\Net\Include\dpsock.h

; 111  : 	{	return m_pSock->GetPeerAddr( dpid, lpAddr, lpdwSize );	}

  00012	8d 55 fc	 lea	 edx, DWORD PTR _uBufSize$1[ebp]
  00015	8b 49 04	 mov	 ecx, DWORD PTR [ecx+4]
  00018	52		 push	 edx
  00019	ff 75 0c	 push	 DWORD PTR _lpAddr$[ebp]
  0001c	8b 01		 mov	 eax, DWORD PTR [ecx]
  0001e	ff 75 08	 push	 DWORD PTR _dpid$[ebp]
  00021	ff 50 18	 call	 DWORD PTR [eax+24]
$LN2@GetPlayerA:
; File C:\IAGOS\server\v18\Source\Source\_Network\Net\Src\DPMng.cpp

; 129  : }

  00024	8b e5		 mov	 esp, ebp
  00026	5d		 pop	 ebp
  00027	c2 08 00	 ret	 8
?GetPlayerAddr@CDPMng@@QAEXKPAD@Z ENDP			; CDPMng::GetPlayerAddr
_TEXT	ENDS
; Function compile flags: /Ogtp
; File C:\IAGOS\server\v18\Source\Source\_Network\Net\Src\DPMng.cpp
; File C:\IAGOS\server\v18\Source\Source\_Network\Net\Include\dpsock.h
; File C:\IAGOS\server\v18\Source\Source\_Network\Net\Src\DPMng.cpp
;	COMDAT ?GetHostAddr@CDPMng@@QAEXPAD@Z
_TEXT	SEGMENT
_uBufSize$1 = -4					; size = 4
_lpAddr$ = 8						; size = 4
?GetHostAddr@CDPMng@@QAEXPAD@Z PROC			; CDPMng::GetHostAddr, COMDAT
; _this$ = ecx

; 114  : {

  00000	55		 push	 ebp
  00001	8b ec		 mov	 ebp, esp
  00003	51		 push	 ecx

; 115  : 	if( m_pDPSock )

  00004	8b 49 04	 mov	 ecx, DWORD PTR [ecx+4]
  00007	85 c9		 test	 ecx, ecx
  00009	74 1a		 je	 SHORT $LN6@GetHostAdd

; 116  : 	{
; 117  : 		u_long uBufSize		= sizeof(lpAddr);

  0000b	c7 45 fc 04 00
	00 00		 mov	 DWORD PTR _uBufSize$1[ebp], 4
; File C:\IAGOS\server\v18\Source\Source\_Network\Net\Include\dpsock.h

; 109  : 	{	return( m_pSock ? m_pSock->GetHostAddr( lpAddr, lpdwSize ):	DPERR_NOSESSIONS );	}

  00012	8b 49 04	 mov	 ecx, DWORD PTR [ecx+4]
  00015	85 c9		 test	 ecx, ecx
  00017	74 0c		 je	 SHORT $LN6@GetHostAdd
  00019	8b 01		 mov	 eax, DWORD PTR [ecx]
  0001b	8d 55 fc	 lea	 edx, DWORD PTR _uBufSize$1[ebp]
  0001e	52		 push	 edx
  0001f	ff 75 08	 push	 DWORD PTR _lpAddr$[ebp]
  00022	ff 50 10	 call	 DWORD PTR [eax+16]
$LN6@GetHostAdd:
; File C:\IAGOS\server\v18\Source\Source\_Network\Net\Src\DPMng.cpp

; 120  : }

  00025	8b e5		 mov	 esp, ebp
  00027	5d		 pop	 ebp
  00028	c2 04 00	 ret	 4
?GetHostAddr@CDPMng@@QAEXPAD@Z ENDP			; CDPMng::GetHostAddr
_TEXT	ENDS
; Function compile flags: /Ogtp
; File C:\IAGOS\server\v18\Source\Source\_Network\Net\Src\DPMng.cpp
;	COMDAT ?DestroyPlayer@CDPMng@@QAEHK@Z
_TEXT	SEGMENT
_dpid$ = 8						; size = 4
?DestroyPlayer@CDPMng@@QAEHK@Z PROC			; CDPMng::DestroyPlayer, COMDAT
; _this$ = ecx

; 201  : {

  00000	55		 push	 ebp
  00001	8b ec		 mov	 ebp, esp

; 202  : 	if( m_pDPSock )

  00003	8b 49 04	 mov	 ecx, DWORD PTR [ecx+4]
  00006	85 c9		 test	 ecx, ecx
  00008	74 06		 je	 SHORT $LN2@DestroyPla

; 207  : }

  0000a	5d		 pop	 ebp

; 203  : 	{
; 204  : 		return m_pDPSock->Shutdown( dpid );

  0000b	e9 00 00 00 00	 jmp	 ?Shutdown@CDPSock@@QAEHK@Z ; CDPSock::Shutdown
$LN2@DestroyPla:

; 205  : 	}
; 206  : 	return FALSE;

  00010	33 c0		 xor	 eax, eax

; 207  : }

  00012	5d		 pop	 ebp
  00013	c2 04 00	 ret	 4
?DestroyPlayer@CDPMng@@QAEHK@Z ENDP			; CDPMng::DestroyPlayer
_TEXT	ENDS
; Function compile flags: /Ogtp
; File C:\IAGOS\server\v18\Source\Source\_Network\Net\Src\DPMng.cpp
; File C:\IAGOS\server\v18\Source\Source\_network\CmnHdr.h
; File C:\IAGOS\server\v18\Source\Source\_Network\Net\Src\DPMng.cpp
; File C:\IAGOS\server\v18\Source\Source\_network\CmnHdr.h
; File C:\IAGOS\server\v18\Source\Source\_Network\Net\Src\DPMng.cpp
;	COMDAT ?JoinSession@CDPMng@@QAEHPBDW4BUFFER_TYPE@@@Z
_TEXT	SEGMENT
_vi$1 = -152						; size = 148
__$ArrayPad$ = -4					; size = 4
_lpSession$ = 8						; size = 4
_nBufferType$ = 12					; size = 4
?JoinSession@CDPMng@@QAEHPBDW4BUFFER_TYPE@@@Z PROC	; CDPMng::JoinSession, COMDAT
; _this$ = ecx

; 102  : {

  00000	55		 push	 ebp
  00001	8b ec		 mov	 ebp, esp
  00003	81 ec 98 00 00
	00		 sub	 esp, 152		; 00000098H
  00009	a1 00 00 00 00	 mov	 eax, DWORD PTR ___security_cookie
  0000e	33 c5		 xor	 eax, ebp
  00010	89 45 fc	 mov	 DWORD PTR __$ArrayPad$[ebp], eax
  00013	56		 push	 esi
; File C:\IAGOS\server\v18\Source\Source\_network\CmnHdr.h

; 229  : 	OSVERSIONINFO vi	= { sizeof(vi) };

  00014	68 90 00 00 00	 push	 144			; 00000090H
  00019	8d 85 6c ff ff
	ff		 lea	 eax, DWORD PTR _vi$1[ebp+4]
  0001f	c7 85 68 ff ff
	ff 94 00 00 00	 mov	 DWORD PTR _vi$1[ebp], 148 ; 00000094H
  00029	6a 00		 push	 0
  0002b	50		 push	 eax
; File C:\IAGOS\server\v18\Source\Source\_Network\Net\Src\DPMng.cpp

; 102  : {

  0002c	8b f1		 mov	 esi, ecx
; File C:\IAGOS\server\v18\Source\Source\_network\CmnHdr.h

; 229  : 	OSVERSIONINFO vi	= { sizeof(vi) };

  0002e	e8 00 00 00 00	 call	 _memset
  00033	83 c4 0c	 add	 esp, 12			; 0000000cH

; 230  : 	GetVersionEx( &vi );

  00036	8d 85 68 ff ff
	ff		 lea	 eax, DWORD PTR _vi$1[ebp]
  0003c	50		 push	 eax
  0003d	ff 15 00 00 00
	00		 call	 DWORD PTR __imp__GetVersionExA@4

; 231  : 	return( vi.dwPlatformId != VER_PLATFORM_WIN32_NT );

  00043	83 bd 78 ff ff
	ff 02		 cmp	 DWORD PTR _vi$1[ebp+16], 2
  0004a	8b 4e 04	 mov	 ecx, DWORD PTR [esi+4]
  0004d	5e		 pop	 esi
; File C:\IAGOS\server\v18\Source\Source\_Network\Net\Src\DPMng.cpp

; 103  : 	if( ( chWindows9x()? m_pDPSock->JoinToServerE( nBufferType ): m_pDPSock->JoinToServer( nBufferType ) ) )

  0004e	ff 75 0c	 push	 DWORD PTR _nBufferType$[ebp]
  00051	74 07		 je	 SHORT $LN4@JoinSessio
  00053	e8 00 00 00 00	 call	 ?JoinToServerE@CDPSock@@QAEHW4BUFFER_TYPE@@@Z ; CDPSock::JoinToServerE
  00058	eb 05		 jmp	 SHORT $LN9@JoinSessio
$LN4@JoinSessio:
  0005a	e8 00 00 00 00	 call	 ?JoinToServer@CDPSock@@QAEHW4BUFFER_TYPE@@@Z ; CDPSock::JoinToServer
$LN9@JoinSessio:
  0005f	8b c8		 mov	 ecx, eax
  00061	33 c0		 xor	 eax, eax
  00063	85 c9		 test	 ecx, ecx

; 104  : #endif	// __CRC
; 105  : 	{
; 106  : 		TRACE( "%s server connected.\n", lpSession );
; 107  : 		return TRUE;
; 108  : 	}
; 109  : 	TRACE( "%s server connection failed.\n", lpSession );
; 110  : 	return FALSE;
; 111  : }

  00065	8b 4d fc	 mov	 ecx, DWORD PTR __$ArrayPad$[ebp]
  00068	0f 95 c0	 setne	 al
  0006b	33 cd		 xor	 ecx, ebp
  0006d	e8 00 00 00 00	 call	 @__security_check_cookie@4
  00072	8b e5		 mov	 esp, ebp
  00074	5d		 pop	 ebp
  00075	c2 08 00	 ret	 8
?JoinSession@CDPMng@@QAEHPBDW4BUFFER_TYPE@@@Z ENDP	; CDPMng::JoinSession
_TEXT	ENDS
; Function compile flags: /Ogtp
; File C:\IAGOS\server\v18\Source\Source\_Network\Net\Src\DPMng.cpp
; File C:\IAGOS\server\v18\Source\Source\_network\CmnHdr.h
; File C:\IAGOS\server\v18\Source\Source\_Network\Net\Src\DPMng.cpp
; File C:\IAGOS\server\v18\Source\Source\_network\CmnHdr.h
; File C:\IAGOS\server\v18\Source\Source\_Network\Net\Src\DPMng.cpp
;	COMDAT ?CreateSession@CDPMng@@QAEHPBDW4BUFFER_TYPE@@@Z
_TEXT	SEGMENT
_vi$1 = -152						; size = 148
__$ArrayPad$ = -4					; size = 4
_lpSession$ = 8						; size = 4
_nBufferType$ = 12					; size = 4
?CreateSession@CDPMng@@QAEHPBDW4BUFFER_TYPE@@@Z PROC	; CDPMng::CreateSession, COMDAT
; _this$ = ecx

; 85   : {

  00000	55		 push	 ebp
  00001	8b ec		 mov	 ebp, esp
  00003	81 ec 98 00 00
	00		 sub	 esp, 152		; 00000098H
  00009	a1 00 00 00 00	 mov	 eax, DWORD PTR ___security_cookie
  0000e	33 c5		 xor	 eax, ebp
  00010	89 45 fc	 mov	 DWORD PTR __$ArrayPad$[ebp], eax
  00013	56		 push	 esi
; File C:\IAGOS\server\v18\Source\Source\_network\CmnHdr.h

; 229  : 	OSVERSIONINFO vi	= { sizeof(vi) };

  00014	68 90 00 00 00	 push	 144			; 00000090H
  00019	8d 85 6c ff ff
	ff		 lea	 eax, DWORD PTR _vi$1[ebp+4]
  0001f	c7 85 68 ff ff
	ff 94 00 00 00	 mov	 DWORD PTR _vi$1[ebp], 148 ; 00000094H
  00029	6a 00		 push	 0
  0002b	50		 push	 eax
; File C:\IAGOS\server\v18\Source\Source\_Network\Net\Src\DPMng.cpp

; 85   : {

  0002c	8b f1		 mov	 esi, ecx
; File C:\IAGOS\server\v18\Source\Source\_network\CmnHdr.h

; 229  : 	OSVERSIONINFO vi	= { sizeof(vi) };

  0002e	e8 00 00 00 00	 call	 _memset
  00033	83 c4 0c	 add	 esp, 12			; 0000000cH

; 230  : 	GetVersionEx( &vi );

  00036	8d 85 68 ff ff
	ff		 lea	 eax, DWORD PTR _vi$1[ebp]
  0003c	50		 push	 eax
  0003d	ff 15 00 00 00
	00		 call	 DWORD PTR __imp__GetVersionExA@4

; 231  : 	return( vi.dwPlatformId != VER_PLATFORM_WIN32_NT );

  00043	83 bd 78 ff ff
	ff 02		 cmp	 DWORD PTR _vi$1[ebp+16], 2
  0004a	8b 4e 04	 mov	 ecx, DWORD PTR [esi+4]
  0004d	5e		 pop	 esi
; File C:\IAGOS\server\v18\Source\Source\_Network\Net\Src\DPMng.cpp

; 86   : 	if( ( chWindows9x()? m_pDPSock->CreateServerE( nBufferType ): m_pDPSock->CreateServer( nBufferType ) ) )

  0004e	ff 75 0c	 push	 DWORD PTR _nBufferType$[ebp]
  00051	74 07		 je	 SHORT $LN4@CreateSess
  00053	e8 00 00 00 00	 call	 ?CreateServerE@CDPSock@@QAEHW4BUFFER_TYPE@@@Z ; CDPSock::CreateServerE
  00058	eb 05		 jmp	 SHORT $LN9@CreateSess
$LN4@CreateSess:
  0005a	e8 00 00 00 00	 call	 ?CreateServer@CDPSock@@QAEHW4BUFFER_TYPE@@@Z ; CDPSock::CreateServer
$LN9@CreateSess:
  0005f	8b c8		 mov	 ecx, eax
  00061	33 c0		 xor	 eax, eax
  00063	85 c9		 test	 ecx, ecx

; 87   : #endif	// __CRC
; 88   : 	{
; 89   : 		TRACE( "%s server launched.\n", lpSession );
; 90   : 		return TRUE;
; 91   : 	}
; 92   : 	TRACE( "%s server launching failed.\n", lpSession );
; 93   : 	return FALSE;
; 94   : }

  00065	8b 4d fc	 mov	 ecx, DWORD PTR __$ArrayPad$[ebp]
  00068	0f 95 c0	 setne	 al
  0006b	33 cd		 xor	 ecx, ebp
  0006d	e8 00 00 00 00	 call	 @__security_check_cookie@4
  00072	8b e5		 mov	 esp, ebp
  00074	5d		 pop	 ebp
  00075	c2 08 00	 ret	 8
?CreateSession@CDPMng@@QAEHPBDW4BUFFER_TYPE@@@Z ENDP	; CDPMng::CreateSession
_TEXT	ENDS
; Function compile flags: /Ogtp
; File C:\IAGOS\server\v18\Source\Source\_Network\Net\Src\DPMng.cpp
;	COMDAT ?ReceiveMessage@CDPMng@@QAEHXZ
_TEXT	SEGMENT
___loop$1$ = -12					; size = 4
___loop2$1$ = -8					; size = 4
_this$1$ = -4						; size = 4
?ReceiveMessage@CDPMng@@QAEHXZ PROC			; CDPMng::ReceiveMessage, COMDAT
; _this$ = ecx

; 141  : {

  00000	55		 push	 ebp
  00001	8b ec		 mov	 ebp, esp
  00003	83 ec 0c	 sub	 esp, 12			; 0000000cH
  00006	53		 push	 ebx
  00007	8b d9		 mov	 ebx, ecx

; 142  : 	if( !m_pDPSock )

  00009	33 c0		 xor	 eax, eax
  0000b	89 5d fc	 mov	 DWORD PTR _this$1$[ebp], ebx
  0000e	39 43 04	 cmp	 DWORD PTR [ebx+4], eax
  00011	0f 84 d5 00 00
	00		 je	 $LN1@ReceiveMes

; 143  : 		return FALSE;
; 144  : 
; 145  : 	CBuffer* pBuffer;
; 146  : 	LPBYTE ptr;
; 147  : 	u_long uDataSize;
; 148  : 
; 149  : 	INIT_LOOP;

  00017	56		 push	 esi
  00018	57		 push	 edi
  00019	0f 1f 80 00 00
	00 00		 npad	 7
$LL2@ReceiveMes:

; 150  : 	while( 1 )	
; 151  : 	{
; 152  : 		VERIFY_LOOP( __FILE__, __LINE__ );

  00020	40		 inc	 eax
  00021	89 45 f4	 mov	 DWORD PTR ___loop$1$[ebp], eax
  00024	3d e8 03 00 00	 cmp	 eax, 1000		; 000003e8H
  00029	75 17		 jne	 SHORT $LN7@ReceiveMes
  0002b	68 98 00 00 00	 push	 152			; 00000098H
  00030	68 00 00 00 00	 push	 OFFSET ??_C@_0DN@MIGJHNJK@C?3?2IAGOS?2server?2v18?2Source?2Sour@
  00035	68 00 00 00 00	 push	 OFFSET ??_C@_05DIALNFFA@?$CFs?5?$CFd@
  0003a	e8 00 00 00 00	 call	 ?Error@@YAPBDPBDZZ	; Error
  0003f	83 c4 0c	 add	 esp, 12			; 0000000cH
$LN7@ReceiveMes:

; 153  : 
; 154  : #ifdef __CRASH_0404
; 155  : 		CCrashStatus::GetInstance()->SetLastPacket( this, 0xAAAAAAAA );
; 156  : #endif	// __CRASH_0404
; 157  : 
; 158  : 		pBuffer = m_pDPSock->Receive();     

  00042	8b 4b 04	 mov	 ecx, DWORD PTR [ebx+4]
  00045	e8 00 00 00 00	 call	 ?Receive@CDPSock@@QAEPAVCBuffer@@XZ ; CDPSock::Receive
  0004a	8b f0		 mov	 esi, eax

; 159  : 		if( pBuffer == NULL )	

  0004c	85 f6		 test	 esi, esi
  0004e	0f 84 91 00 00
	00		 je	 $LN19@ReceiveMes

; 160  : 			break;
; 161  : 
; 162  : #ifdef __CRASH_0404
; 163  : 		CCrashStatus::GetInstance()->SetLastPacket( this, 0xBBBBBBBB );
; 164  : #endif	// __CRASH_0404
; 165  : 
; 166  : 		ptr	= pBuffer->m_lpBufStart;
; 167  : 		int	__loop2 = 0;		// __VERIFY_LOOP041010
; 168  : 		while( pBuffer->cb-- > 0 )

  00054	8b 46 08	 mov	 eax, DWORD PTR [esi+8]
  00057	33 c9		 xor	 ecx, ecx
  00059	8b be 0c 20 00
	00		 mov	 edi, DWORD PTR [esi+8204]
  0005f	85 c0		 test	 eax, eax
  00061	74 6e		 je	 SHORT $LN20@ReceiveMes
$LL4@ReceiveMes:
  00063	48		 dec	 eax
  00064	89 46 08	 mov	 DWORD PTR [esi+8], eax

; 169  : 		{
; 170  : #ifdef __VERIFY_LOOP041010
; 171  : 			if( __loop2++ == 1000 )	{ Error( "CDPMng::ReceiveMessage %d", __loop2 ); }

  00067	8b c1		 mov	 eax, ecx
  00069	41		 inc	 ecx
  0006a	89 4d f8	 mov	 DWORD PTR ___loop2$1$[ebp], ecx
  0006d	3d e8 03 00 00	 cmp	 eax, 1000		; 000003e8H
  00072	75 12		 jne	 SHORT $LN9@ReceiveMes
  00074	68 e9 03 00 00	 push	 1001			; 000003e9H
  00079	68 00 00 00 00	 push	 OFFSET ??_C@_0BK@EPHKKBKJ@CDPMng?3?3ReceiveMessage?5?$CFd@
  0007e	e8 00 00 00 00	 call	 ?Error@@YAPBDPBDZZ	; Error
  00083	83 c4 08	 add	 esp, 8
$LN9@ReceiveMes:

; 172  : #endif // __VERIFY_LOOP041010
; 173  : 
; 174  : #ifdef __CRC
; 175  : 			uDataSize	= *(UNALIGNED LPDWORD)( ptr + m_pDPSock->m_dwDataSizeOffset );
; 176  : 			if( pBuffer->dpid ==DPID_SYSMSG )
; 177  : 				SysMessageHandler( (LPDPMSG_GENERIC)&ptr[m_pDPSock->m_dwReadHeaderSize], uDataSize, pBuffer->dpid );
; 178  : 			else
; 179  : 				UserMessageHandler( (LPDPMSG_GENERIC)&ptr[m_pDPSock->m_dwReadHeaderSize], uDataSize, pBuffer->dpid );
; 180  : 			ptr	+=	m_pDPSock->m_dwReadHeaderSize + uDataSize;
; 181  : #else	// __CRC			
; 182  : 			uDataSize = pBuffer->GetPacketSize( ptr );

  00086	8b 06		 mov	 eax, DWORD PTR [esi]
  00088	8b ce		 mov	 ecx, esi
  0008a	57		 push	 edi
  0008b	ff 50 04	 call	 DWORD PTR [eax+4]

; 183  : 			if( pBuffer->dpid == DPID_SYSMSG )

  0008e	83 7e 04 00	 cmp	 DWORD PTR [esi+4], 0
  00092	8b d8		 mov	 ebx, eax
  00094	8b 4d fc	 mov	 ecx, DWORD PTR _this$1$[ebp]
  00097	8b 86 24 20 00
	00		 mov	 eax, DWORD PTR [esi+8228]
  0009d	8b 11		 mov	 edx, DWORD PTR [ecx]
  0009f	75 0f		 jne	 SHORT $LN10@ReceiveMes

; 184  : 				SysMessageHandler( (LPDPMSG_GENERIC)( ptr + pBuffer->GetHeaderLength() ), uDataSize, pBuffer->dpid );

  000a1	6a 00		 push	 0
  000a3	8d 0c 38	 lea	 ecx, DWORD PTR [eax+edi]
  000a6	53		 push	 ebx
  000a7	51		 push	 ecx
  000a8	8b 4d fc	 mov	 ecx, DWORD PTR _this$1$[ebp]
  000ab	ff 52 04	 call	 DWORD PTR [edx+4]
  000ae	eb 0a		 jmp	 SHORT $LN11@ReceiveMes
$LN10@ReceiveMes:

; 185  : 			else
; 186  : 				UserMessageHandler( (LPDPMSG_GENERIC)( ptr + pBuffer->GetHeaderLength() ), uDataSize, pBuffer->dpid );

  000b0	ff 76 04	 push	 DWORD PTR [esi+4]
  000b3	03 c7		 add	 eax, edi
  000b5	53		 push	 ebx
  000b6	50		 push	 eax
  000b7	ff 52 08	 call	 DWORD PTR [edx+8]
$LN11@ReceiveMes:

; 187  : 			ptr += ( uDataSize + pBuffer->GetHeaderLength() );

  000ba	8b 86 24 20 00
	00		 mov	 eax, DWORD PTR [esi+8228]
  000c0	8b 4d f8	 mov	 ecx, DWORD PTR ___loop2$1$[ebp]
  000c3	03 c3		 add	 eax, ebx
  000c5	03 f8		 add	 edi, eax
  000c7	8b 46 08	 mov	 eax, DWORD PTR [esi+8]
  000ca	85 c0		 test	 eax, eax
  000cc	75 95		 jne	 SHORT $LL4@ReceiveMes
  000ce	8b 5d fc	 mov	 ebx, DWORD PTR _this$1$[ebp]
$LN20@ReceiveMes:

; 160  : 			break;
; 161  : 
; 162  : #ifdef __CRASH_0404
; 163  : 		CCrashStatus::GetInstance()->SetLastPacket( this, 0xBBBBBBBB );
; 164  : #endif	// __CRASH_0404
; 165  : 
; 166  : 		ptr	= pBuffer->m_lpBufStart;
; 167  : 		int	__loop2 = 0;		// __VERIFY_LOOP041010
; 168  : 		while( pBuffer->cb-- > 0 )

  000d1	48		 dec	 eax

; 188  : #endif
; 189  : 		}
; 190  : 		SAFE_DELETE( pBuffer );

  000d2	8b ce		 mov	 ecx, esi
  000d4	89 46 08	 mov	 DWORD PTR [esi+8], eax
  000d7	8b 06		 mov	 eax, DWORD PTR [esi]
  000d9	6a 01		 push	 1
  000db	ff 10		 call	 DWORD PTR [eax]

; 191  : 	}

  000dd	8b 45 f4	 mov	 eax, DWORD PTR ___loop$1$[ebp]
  000e0	e9 3b ff ff ff	 jmp	 $LL2@ReceiveMes
$LN19@ReceiveMes:

; 192  : 
; 193  : #ifdef __CRASH_0404
; 194  : 	CCrashStatus::GetInstance()->SetLastPacket( this, 0xFFFFFFFF );
; 195  : #endif	// __CRASH_0404
; 196  : 
; 197  : 	return TRUE;

  000e5	5f		 pop	 edi
  000e6	b8 01 00 00 00	 mov	 eax, 1
  000eb	5e		 pop	 esi
$LN1@ReceiveMes:
  000ec	5b		 pop	 ebx

; 198  : }

  000ed	8b e5		 mov	 esp, ebp
  000ef	5d		 pop	 ebp
  000f0	c3		 ret	 0
?ReceiveMessage@CDPMng@@QAEHXZ ENDP			; CDPMng::ReceiveMessage
_TEXT	ENDS
; Function compile flags: /Ogtp
; File C:\IAGOS\server\v18\Source\Source\_Network\Net\Src\DPMng.cpp
;	COMDAT ?InitConnection@CDPMng@@QAEHPAXG@Z
_TEXT	SEGMENT
_lpConnection$ = 8					; size = 4
_uPort$ = 12						; size = 2
?InitConnection@CDPMng@@QAEHPAXG@Z PROC			; CDPMng::InitConnection, COMDAT
; _this$ = ecx

; 75   : {

  00000	55		 push	 ebp
  00001	8b ec		 mov	 ebp, esp

; 76   : 	return	m_pDPSock->InitializeConnection( lpConnection, (DWORD)uPort );

  00003	0f b7 45 0c	 movzx	 eax, WORD PTR _uPort$[ebp]
  00007	89 45 0c	 mov	 DWORD PTR _uPort$[ebp], eax
  0000a	8b 49 04	 mov	 ecx, DWORD PTR [ecx+4]

; 77   : }

  0000d	5d		 pop	 ebp

; 76   : 	return	m_pDPSock->InitializeConnection( lpConnection, (DWORD)uPort );

  0000e	e9 00 00 00 00	 jmp	 ?InitializeConnection@CDPSock@@QAEHPAXK@Z ; CDPSock::InitializeConnection
?InitConnection@CDPMng@@QAEHPAXG@Z ENDP			; CDPMng::InitConnection
_TEXT	ENDS
; Function compile flags: /Ogtp
; File C:\IAGOS\server\v18\Source\Source\_Network\Net\Src\DPMng.cpp
;	COMDAT ?DeleteDPObject@CDPMng@@QAEHXZ
_TEXT	SEGMENT
?DeleteDPObject@CDPMng@@QAEHXZ PROC			; CDPMng::DeleteDPObject, COMDAT
; _this$ = ecx

; 64   : {

  00000	57		 push	 edi
  00001	8b f9		 mov	 edi, ecx

; 65   : 	// Wake up receive thread and wait for it to quit
; 66   : 	CLOSE_THREAD( m_hRecvThread, m_hClose );

  00003	83 7f 08 00	 cmp	 DWORD PTR [edi+8], 0
  00007	74 34		 je	 SHORT $LN2@DeleteDPOb
  00009	ff 77 0c	 push	 DWORD PTR [edi+12]
  0000c	ff 15 00 00 00
	00		 call	 DWORD PTR __imp__SetEvent@4
  00012	6a ff		 push	 -1
  00014	ff 77 08	 push	 DWORD PTR [edi+8]
  00017	ff 15 00 00 00
	00		 call	 DWORD PTR __imp__WaitForSingleObject@8
  0001d	ff 77 08	 push	 DWORD PTR [edi+8]
  00020	ff 15 00 00 00
	00		 call	 DWORD PTR __imp__CloseHandle@4
  00026	ff 77 0c	 push	 DWORD PTR [edi+12]
  00029	ff 15 00 00 00
	00		 call	 DWORD PTR __imp__CloseHandle@4
  0002f	c7 47 0c 00 00
	00 00		 mov	 DWORD PTR [edi+12], 0
  00036	c7 47 08 00 00
	00 00		 mov	 DWORD PTR [edi+8], 0
$LN2@DeleteDPOb:

; 67   : 	if( m_pDPSock ) {

  0003d	8b 4f 04	 mov	 ecx, DWORD PTR [edi+4]
  00040	85 c9		 test	 ecx, ecx
  00042	74 19		 je	 SHORT $LN9@DeleteDPOb

; 68   : 		m_pDPSock->Close();

  00044	e8 00 00 00 00	 call	 ?Close@CDPSock@@QAEHXZ	; CDPSock::Close

; 69   : 		SAFE_DELETE( m_pDPSock );

  00049	8b 4f 04	 mov	 ecx, DWORD PTR [edi+4]
  0004c	85 c9		 test	 ecx, ecx
  0004e	74 0d		 je	 SHORT $LN9@DeleteDPOb
  00050	8b 01		 mov	 eax, DWORD PTR [ecx]
  00052	6a 01		 push	 1
  00054	ff 10		 call	 DWORD PTR [eax]
  00056	c7 47 04 00 00
	00 00		 mov	 DWORD PTR [edi+4], 0
$LN9@DeleteDPOb:

; 70   : 	}
; 71   : 	return TRUE;
; 72   : }

  0005d	b8 01 00 00 00	 mov	 eax, 1
  00062	5f		 pop	 edi
  00063	c3		 ret	 0
?DeleteDPObject@CDPMng@@QAEHXZ ENDP			; CDPMng::DeleteDPObject
_TEXT	ENDS
; Function compile flags: /Ogtp
; File C:\IAGOS\server\v18\Source\Source\_Network\Net\Src\DPMng.cpp
;	COMDAT ?CreateDPObject@CDPMng@@QAEHH@Z
_TEXT	SEGMENT
$T2 = -16						; size = 4
__$EHRec$ = -12						; size = 12
_bSingleThreaded$ = 8					; size = 4
_dwThreadId$3 = 8					; size = 4
?CreateDPObject@CDPMng@@QAEHH@Z PROC			; CDPMng::CreateDPObject, COMDAT
; _this$ = ecx

; 39   : {

  00000	55		 push	 ebp
  00001	8b ec		 mov	 ebp, esp
  00003	6a ff		 push	 -1
  00005	68 00 00 00 00	 push	 __ehhandler$?CreateDPObject@CDPMng@@QAEHH@Z
  0000a	64 a1 00 00 00
	00		 mov	 eax, DWORD PTR fs:0
  00010	50		 push	 eax
  00011	51		 push	 ecx
  00012	56		 push	 esi
  00013	a1 00 00 00 00	 mov	 eax, DWORD PTR ___security_cookie
  00018	33 c5		 xor	 eax, ebp
  0001a	50		 push	 eax
  0001b	8d 45 f4	 lea	 eax, DWORD PTR __$EHRec$[ebp]
  0001e	64 a3 00 00 00
	00		 mov	 DWORD PTR fs:0, eax
  00024	8b f1		 mov	 esi, ecx

; 40   : 	DeleteDPObject();

  00026	e8 00 00 00 00	 call	 ?DeleteDPObject@CDPMng@@QAEHXZ ; CDPMng::DeleteDPObject

; 41   : 	if( !m_pDPSock )

  0002b	83 7e 04 00	 cmp	 DWORD PTR [esi+4], 0
  0002f	75 29		 jne	 SHORT $LN2@CreateDPOb

; 42   : 		m_pDPSock	= new CDPSock;

  00031	68 98 00 00 00	 push	 152			; 00000098H
  00036	e8 00 00 00 00	 call	 ??2@YAPAXI@Z		; operator new
  0003b	83 c4 04	 add	 esp, 4
  0003e	89 45 f0	 mov	 DWORD PTR $T2[ebp], eax
  00041	c7 45 fc 00 00
	00 00		 mov	 DWORD PTR __$EHRec$[ebp+8], 0
  00048	85 c0		 test	 eax, eax
  0004a	74 09		 je	 SHORT $LN7@CreateDPOb
  0004c	8b c8		 mov	 ecx, eax
  0004e	e8 00 00 00 00	 call	 ??0CDPSock@@QAE@XZ	; CDPSock::CDPSock
  00053	eb 02		 jmp	 SHORT $LN8@CreateDPOb
$LN7@CreateDPOb:
  00055	33 c0		 xor	 eax, eax
$LN8@CreateDPOb:
  00057	89 46 04	 mov	 DWORD PTR [esi+4], eax
$LN2@CreateDPOb:

; 43   : 	if( !bSingleThreaded )

  0005a	83 7d 08 00	 cmp	 DWORD PTR _bSingleThreaded$[ebp], 0
  0005e	75 41		 jne	 SHORT $LN11@CreateDPOb

; 44   : 	{
; 45   : 		// Create event used to signal that the receive thread should exit
; 46   : 		if( !m_hClose )

  00060	83 7e 0c 00	 cmp	 DWORD PTR [esi+12], 0
  00064	75 11		 jne	 SHORT $LN4@CreateDPOb

; 47   : 		{
; 48   : 			m_hClose	= CreateEvent( NULL, FALSE, FALSE, NULL );

  00066	6a 00		 push	 0
  00068	6a 00		 push	 0
  0006a	6a 00		 push	 0
  0006c	6a 00		 push	 0
  0006e	ff 15 00 00 00
	00		 call	 DWORD PTR __imp__CreateEventA@16
  00074	89 46 0c	 mov	 DWORD PTR [esi+12], eax
$LN4@CreateDPOb:

; 49   : 			ASSERT( m_hClose );			
; 50   : 		}
; 51   : 		// Create thread to receive player messages
; 52   : 		if( !m_hRecvThread )

  00077	83 7e 08 00	 cmp	 DWORD PTR [esi+8], 0
  0007b	75 24		 jne	 SHORT $LN11@CreateDPOb

; 53   : 		{
; 54   : 			DWORD dwThreadId;
; 55   : 			m_hRecvThread	= chBEGINTHREADEX( NULL, 0, ReceiveThread, this, 0, &dwThreadId );

  0007d	8d 45 08	 lea	 eax, DWORD PTR _dwThreadId$3[ebp]
  00080	50		 push	 eax
  00081	6a 00		 push	 0
  00083	56		 push	 esi
  00084	68 00 00 00 00	 push	 OFFSET ?ReceiveThread@@YGIPAX@Z ; ReceiveThread
  00089	6a 00		 push	 0
  0008b	6a 00		 push	 0
  0008d	e8 00 00 00 00	 call	 __beginthreadex
  00092	83 c4 18	 add	 esp, 24			; 00000018H
  00095	89 46 08	 mov	 DWORD PTR [esi+8], eax

; 56   : 			ASSERT( m_hRecvThread );
; 57   : 			SetThreadPriority( m_hRecvThread, THREAD_PRIORITY_ABOVE_NORMAL );

  00098	6a 01		 push	 1
  0009a	50		 push	 eax
  0009b	ff 15 00 00 00
	00		 call	 DWORD PTR __imp__SetThreadPriority@8
$LN11@CreateDPOb:

; 58   : 		}
; 59   : 	}
; 60   : 	return TRUE;
; 61   : }

  000a1	b8 01 00 00 00	 mov	 eax, 1
  000a6	8b 4d f4	 mov	 ecx, DWORD PTR __$EHRec$[ebp]
  000a9	64 89 0d 00 00
	00 00		 mov	 DWORD PTR fs:0, ecx
  000b0	59		 pop	 ecx
  000b1	5e		 pop	 esi
  000b2	8b e5		 mov	 esp, ebp
  000b4	5d		 pop	 ebp
  000b5	c2 04 00	 ret	 4
_TEXT	ENDS
;	COMDAT text$x
text$x	SEGMENT
__unwindfunclet$?CreateDPObject@CDPMng@@QAEHH@Z$0:
  00000	68 98 00 00 00	 push	 152			; 00000098H
  00005	8b 45 f0	 mov	 eax, DWORD PTR $T2[ebp]
  00008	50		 push	 eax
  00009	e8 00 00 00 00	 call	 ??3@YAXPAXI@Z		; operator delete
  0000e	83 c4 08	 add	 esp, 8
  00011	c3		 ret	 0
  00012	cc		 int	 3
  00013	cc		 int	 3
  00014	cc		 int	 3
  00015	cc		 int	 3
  00016	cc		 int	 3
__ehhandler$?CreateDPObject@CDPMng@@QAEHH@Z:
  00017	90		 npad	 1
  00018	90		 npad	 1
  00019	8b 54 24 08	 mov	 edx, DWORD PTR [esp+8]
  0001d	8d 42 0c	 lea	 eax, DWORD PTR [edx+12]
  00020	8b 4a f4	 mov	 ecx, DWORD PTR [edx-12]
  00023	33 c8		 xor	 ecx, eax
  00025	e8 00 00 00 00	 call	 @__security_check_cookie@4
  0002a	b8 00 00 00 00	 mov	 eax, OFFSET __ehfuncinfo$?CreateDPObject@CDPMng@@QAEHH@Z
  0002f	e9 00 00 00 00	 jmp	 ___CxxFrameHandler3
text$x	ENDS
?CreateDPObject@CDPMng@@QAEHH@Z ENDP			; CDPMng::CreateDPObject
; Function compile flags: /Ogtp
; File C:\IAGOS\server\v18\Source\Source\_Network\Net\Src\DPMng.cpp
;	COMDAT ??1CDPMng@@UAE@XZ
_TEXT	SEGMENT
??1CDPMng@@UAE@XZ PROC					; CDPMng::~CDPMng, COMDAT
; _this$ = ecx

; 34   : {

  00000	c7 01 00 00 00
	00		 mov	 DWORD PTR [ecx], OFFSET ??_7CDPMng@@6B@

; 35   : 
; 36   : }

  00006	c3		 ret	 0
??1CDPMng@@UAE@XZ ENDP					; CDPMng::~CDPMng
_TEXT	ENDS
; Function compile flags: /Ogtp
; File C:\IAGOS\server\v18\Source\Source\_Network\Net\Src\DPMng.cpp
;	COMDAT ??0CDPMng@@QAE@XZ
_TEXT	SEGMENT
??0CDPMng@@QAE@XZ PROC					; CDPMng::CDPMng, COMDAT
; _this$ = ecx

; 28   : {

  00000	c7 01 00 00 00
	00		 mov	 DWORD PTR [ecx], OFFSET ??_7CDPMng@@6B@

; 29   : 	m_pDPSock	= NULL;
; 30   : 	m_hRecvThread	= m_hClose	= (HANDLE)NULL;
; 31   : }

  00006	8b c1		 mov	 eax, ecx
  00008	c7 41 04 00 00
	00 00		 mov	 DWORD PTR [ecx+4], 0
  0000f	c7 41 0c 00 00
	00 00		 mov	 DWORD PTR [ecx+12], 0
  00016	c7 41 08 00 00
	00 00		 mov	 DWORD PTR [ecx+8], 0
  0001d	c3		 ret	 0
??0CDPMng@@QAE@XZ ENDP					; CDPMng::CDPMng
_TEXT	ENDS
; Function compile flags: /Ogtp
; File C:\IAGOS\server\v18\Source\Source\_Network\Net\Src\DPMng.cpp
;	COMDAT ?TestNetLib@@YAXPBDG@Z
_TEXT	SEGMENT
_server$ = -20						; size = 16
__$ArrayPad$ = -4					; size = 4
_lpAddr$ = 8						; size = 4
_uPort$ = 12						; size = 2
?TestNetLib@@YAXPBDG@Z PROC				; TestNetLib, COMDAT

; 257  : {

  00000	55		 push	 ebp
  00001	8b ec		 mov	 ebp, esp
  00003	83 ec 14	 sub	 esp, 20			; 00000014H
  00006	a1 00 00 00 00	 mov	 eax, DWORD PTR ___security_cookie
  0000b	33 c5		 xor	 eax, ebp
  0000d	89 45 fc	 mov	 DWORD PTR __$ArrayPad$[ebp], eax
  00010	56		 push	 esi
  00011	57		 push	 edi
  00012	8b 7d 08	 mov	 edi, DWORD PTR _lpAddr$[ebp]

; 258  : 	struct sockaddr_in server;
; 259  : 	struct hostent* host	= NULL;
; 260  : 	SOCKET s	= socket( AF_INET, SOCK_STREAM, IPPROTO_TCP );

  00015	6a 06		 push	 6
  00017	6a 01		 push	 1
  00019	6a 02		 push	 2
  0001b	ff 15 00 00 00
	00		 call	 DWORD PTR __imp__socket@12
  00021	8b f0		 mov	 esi, eax

; 261  : 	if( s == INVALID_SOCKET )

  00023	83 fe ff	 cmp	 esi, -1
  00026	74 5a		 je	 SHORT $LN1@TestNetLib

; 262  : 		return;
; 263  : 	server.sin_family	= AF_INET;
; 264  : 	server.sin_port		= htons( uPort );

  00028	ff 75 0c	 push	 DWORD PTR _uPort$[ebp]
  0002b	b8 02 00 00 00	 mov	 eax, 2
  00030	66 89 45 ec	 mov	 WORD PTR _server$[ebp], ax
  00034	ff 15 00 00 00
	00		 call	 DWORD PTR __imp__htons@4

; 265  : 	server.sin_addr.s_addr	= inet_addr( lpAddr );

  0003a	57		 push	 edi
  0003b	66 89 45 ee	 mov	 WORD PTR _server$[ebp+2], ax
  0003f	ff 15 00 00 00
	00		 call	 DWORD PTR __imp__inet_addr@4
  00045	89 45 f0	 mov	 DWORD PTR _server$[ebp+4], eax
  00048	83 f8 ff	 cmp	 eax, -1

; 266  : 	if( server.sin_addr.s_addr == INADDR_NONE )

  0004b	75 21		 jne	 SHORT $LN3@TestNetLib

; 267  : 	{
; 268  : 		host	= gethostbyname( lpAddr );

  0004d	57		 push	 edi
  0004e	ff 15 00 00 00
	00		 call	 DWORD PTR __imp__gethostbyname@4

; 269  : 		if( host == NULL )

  00054	85 c0		 test	 eax, eax
  00056	74 2a		 je	 SHORT $LN1@TestNetLib

; 270  : 			return;
; 271  : 		CopyMemory( &server.sin_addr, host->h_addr_list[0],

  00058	0f bf 48 0a	 movsx	 ecx, WORD PTR [eax+10]
  0005c	8b 40 0c	 mov	 eax, DWORD PTR [eax+12]
  0005f	51		 push	 ecx
  00060	ff 30		 push	 DWORD PTR [eax]
  00062	8d 45 f0	 lea	 eax, DWORD PTR _server$[ebp+4]
  00065	50		 push	 eax
  00066	e8 00 00 00 00	 call	 _memcpy
  0006b	83 c4 0c	 add	 esp, 12			; 0000000cH
$LN3@TestNetLib:

; 272  : 			host->h_length );
; 273  : 	}
; 274  : 	connect( s, (struct sockaddr *)&server, sizeof(server) );

  0006e	6a 10		 push	 16			; 00000010H
  00070	8d 45 ec	 lea	 eax, DWORD PTR _server$[ebp]
  00073	50		 push	 eax
  00074	56		 push	 esi
  00075	ff 15 00 00 00
	00		 call	 DWORD PTR __imp__connect@12

; 275  : 	closesocket( s );

  0007b	56		 push	 esi
  0007c	ff 15 00 00 00
	00		 call	 DWORD PTR __imp__closesocket@4
$LN1@TestNetLib:

; 276  : }

  00082	8b 4d fc	 mov	 ecx, DWORD PTR __$ArrayPad$[ebp]
  00085	5f		 pop	 edi
  00086	33 cd		 xor	 ecx, ebp
  00088	5e		 pop	 esi
  00089	e8 00 00 00 00	 call	 @__security_check_cookie@4
  0008e	8b e5		 mov	 esp, ebp
  00090	5d		 pop	 ebp
  00091	c3		 ret	 0
?TestNetLib@@YAXPBDG@Z ENDP				; TestNetLib
_TEXT	ENDS
; Function compile flags: /Ogtp
; File C:\IAGOS\server\v18\Source\Source\_Network\Net\Src\DPMng.cpp
;	COMDAT ?InitializeNetLib@@YAHXZ
_TEXT	SEGMENT
_wsaData$ = -404					; size = 400
__$ArrayPad$ = -4					; size = 4
?InitializeNetLib@@YAHXZ PROC				; InitializeNetLib, COMDAT

; 235  : {

  00000	55		 push	 ebp
  00001	8b ec		 mov	 ebp, esp
  00003	81 ec 94 01 00
	00		 sub	 esp, 404		; 00000194H
  00009	a1 00 00 00 00	 mov	 eax, DWORD PTR ___security_cookie
  0000e	33 c5		 xor	 eax, ebp
  00010	89 45 fc	 mov	 DWORD PTR __$ArrayPad$[ebp], eax

; 236  : 	LOAD_WS2_32_DLL;

  00013	8d 85 6c fe ff
	ff		 lea	 eax, DWORD PTR _wsaData$[ebp]
  00019	50		 push	 eax
  0001a	68 02 02 00 00	 push	 514			; 00000202H
  0001f	ff 15 00 00 00
	00		 call	 DWORD PTR __imp__WSAStartup@8
  00025	33 c9		 xor	 ecx, ecx
  00027	83 f8 ff	 cmp	 eax, -1
  0002a	0f 95 c1	 setne	 cl
  0002d	8b c1		 mov	 eax, ecx

; 237  : 	return TRUE;
; 238  : }

  0002f	8b 4d fc	 mov	 ecx, DWORD PTR __$ArrayPad$[ebp]
  00032	33 cd		 xor	 ecx, ebp
  00034	e8 00 00 00 00	 call	 @__security_check_cookie@4
  00039	8b e5		 mov	 esp, ebp
  0003b	5d		 pop	 ebp
  0003c	c3		 ret	 0
?InitializeNetLib@@YAHXZ ENDP				; InitializeNetLib
_TEXT	ENDS
; Function compile flags: /Ogtp
; File C:\IAGOS\server\v18\Source\Source\_Network\Net\Src\DPMng.cpp
;	COMDAT ?UninitializeNetLib@@YAXXZ
_TEXT	SEGMENT
?UninitializeNetLib@@YAXXZ PROC				; UninitializeNetLib, COMDAT

; 242  : 	SAFE_DELETE( CAr::m_pHeapMng );

  00000	8b 0d 00 00 00
	00		 mov	 ecx, DWORD PTR ?m_pHeapMng@CAr@@2PAVCHeapMng@@A ; CAr::m_pHeapMng
  00006	85 c9		 test	 ecx, ecx
  00008	74 10		 je	 SHORT $LN2@Uninitiali
  0000a	8b 01		 mov	 eax, DWORD PTR [ecx]
  0000c	6a 01		 push	 1
  0000e	ff 10		 call	 DWORD PTR [eax]
  00010	c7 05 00 00 00
	00 00 00 00 00	 mov	 DWORD PTR ?m_pHeapMng@CAr@@2PAVCHeapMng@@A, 0 ; CAr::m_pHeapMng
$LN2@Uninitiali:

; 243  : #ifndef __VM_0820
; 244  : #ifndef __MEM_TRACE
; 245  : 	SAFE_DELETE( CClientSock::m_pPool );
; 246  : 	SAFE_DELETE( CClientSockE::m_pPool );
; 247  : 	SAFE_DELETE( CBuffer::m_pPool );
; 248  : 	SAFE_DELETE( CBuffer2::m_pPool2 );	
; 249  : #endif	// __MEM_TRACE
; 250  : #endif	// __VM_0820
; 251  : 	SAFE_DELETE( CBuffer::m_pHeapMng );

  0001a	8b 0d 00 00 00
	00		 mov	 ecx, DWORD PTR ?m_pHeapMng@CBuffer@@2PAVCHeapMng@@A ; CBuffer::m_pHeapMng
  00020	85 c9		 test	 ecx, ecx
  00022	74 10		 je	 SHORT $LN3@Uninitiali
  00024	8b 01		 mov	 eax, DWORD PTR [ecx]
  00026	6a 01		 push	 1
  00028	ff 10		 call	 DWORD PTR [eax]
  0002a	c7 05 00 00 00
	00 00 00 00 00	 mov	 DWORD PTR ?m_pHeapMng@CBuffer@@2PAVCHeapMng@@A, 0 ; CBuffer::m_pHeapMng
$LN3@Uninitiali:

; 252  : 
; 253  : 	UNLOAD_WS2_32_DLL;

  00034	ff 25 00 00 00
	00		 jmp	 DWORD PTR __imp__WSACleanup@0
?UninitializeNetLib@@YAXXZ ENDP				; UninitializeNetLib
_TEXT	ENDS
; Function compile flags: /Ogtp
; File C:\IAGOS\server\v18\Source\Source\_Network\Net\Src\DPMng.cpp
;	COMDAT ?__empty_global_delete@@YAXPAXI@Z
_TEXT	SEGMENT
___formal$ = 8						; size = 4
___formal$ = 12						; size = 4
?__empty_global_delete@@YAXPAXI@Z PROC			; __empty_global_delete, COMDAT

  00000	c2 00 00	 ret	 0
?__empty_global_delete@@YAXPAXI@Z ENDP			; __empty_global_delete
_TEXT	ENDS
; Function compile flags: /Ogtp
; File C:\IAGOS\server\v18\Source\Source\_Network\Net\Src\DPMng.cpp
;	COMDAT ?__empty_global_delete@@YAXPAX@Z
_TEXT	SEGMENT
___formal$ = 8						; size = 4
?__empty_global_delete@@YAXPAX@Z PROC			; __empty_global_delete, COMDAT

  00000	c2 00 00	 ret	 0
?__empty_global_delete@@YAXPAX@Z ENDP			; __empty_global_delete
_TEXT	ENDS
END
