; Listing generated by Microsoft (R) Optimizing Compiler Version 19.44.35225.0 

	TITLE	C:\IAGOS\server\v18\Source\Output\WorldServer\Release\DPSock.obj
	.686P
	.XMM
	include listing.inc
	.model	flat

INCLUDELIB LIBCMT
INCLUDELIB OLDNAMES

PUBLIC	?__empty_global_delete@@YAXPAX@Z		; __empty_global_delete
PUBLIC	?__empty_global_delete@@YAXPAXI@Z		; __empty_global_delete
PUBLIC	??0exception@std@@QAE@ABV01@@Z			; std::exception::exception
PUBLIC	??1exception@std@@UAE@XZ			; std::exception::~exception
PUBLIC	?what@exception@std@@UBEPBDXZ			; std::exception::what
PUBLIC	??_Gexception@std@@UAEPAXI@Z			; std::exception::`scalar deleting destructor'
PUBLIC	??0bad_alloc@std@@QAE@ABV01@@Z			; std::bad_alloc::bad_alloc
PUBLIC	??_Gbad_alloc@std@@UAEPAXI@Z			; std::bad_alloc::`scalar deleting destructor'
PUBLIC	??0bad_array_new_length@std@@QAE@XZ		; std::bad_array_new_length::bad_array_new_length
PUBLIC	??1bad_array_new_length@std@@UAE@XZ		; std::bad_array_new_length::~bad_array_new_length
PUBLIC	??0bad_array_new_length@std@@QAE@ABV01@@Z	; std::bad_array_new_length::bad_array_new_length
PUBLIC	??_Gbad_array_new_length@std@@UAEPAXI@Z		; std::bad_array_new_length::`scalar deleting destructor'
PUBLIC	?_Throw_bad_array_new_length@std@@YAXXZ		; std::_Throw_bad_array_new_length
PUBLIC	??1CMclCritSec@@UAE@XZ				; CMclCritSec::~CMclCritSec
PUBLIC	??_GCMclCritSec@@UAEPAXI@Z			; CMclCritSec::`scalar deleting destructor'
PUBLIC	??1?$list@PAXV?$allocator@PAX@std@@@std@@QAE@XZ	; std::list<void *,std::allocator<void *> >::~list<void *,std::allocator<void *> >
PUBLIC	?push_back@?$list@PAXV?$allocator@PAX@std@@@std@@QAEXABQAX@Z ; std::list<void *,std::allocator<void *> >::push_back
PUBLIC	??$_Allocate_manually_vector_aligned@U_Default_allocate_traits@std@@@std@@YAPAXI@Z ; std::_Allocate_manually_vector_aligned<std::_Default_allocate_traits>
PUBLIC	?CreateIoWorker@CDPSock@@AAEHK@Z		; CDPSock::CreateIoWorker
PUBLIC	?CloseIoWorker@CDPSock@@AAEHXZ			; CDPSock::CloseIoWorker
PUBLIC	??0CDPSock@@QAE@XZ				; CDPSock::CDPSock
PUBLIC	??1CDPSock@@UAE@XZ				; CDPSock::~CDPSock
PUBLIC	?Close@CDPSock@@QAEHXZ				; CDPSock::Close
PUBLIC	?CloseConnection@CDPSock@@QAEXK@Z		; CDPSock::CloseConnection
PUBLIC	?Shutdown@CDPSock@@QAEHK@Z			; CDPSock::Shutdown
PUBLIC	?CreateEventWorker@CDPSock@@QAEHPAVCSock@@@Z	; CDPSock::CreateEventWorker
PUBLIC	?RemoveThread@CDPSock@@QAEXPAX@Z		; CDPSock::RemoveThread
PUBLIC	?InitializeConnection@CDPSock@@QAEHPAXK@Z	; CDPSock::InitializeConnection
PUBLIC	?CreateServer@CDPSock@@QAEHW4BUFFER_TYPE@@@Z	; CDPSock::CreateServer
PUBLIC	?JoinToServer@CDPSock@@QAEHW4BUFFER_TYPE@@@Z	; CDPSock::JoinToServer
PUBLIC	?CreateServerE@CDPSock@@QAEHW4BUFFER_TYPE@@@Z	; CDPSock::CreateServerE
PUBLIC	?JoinToServerE@CDPSock@@QAEHW4BUFFER_TYPE@@@Z	; CDPSock::JoinToServerE
PUBLIC	?Send@CDPSock@@QAEHPADKK@Z			; CDPSock::Send
PUBLIC	?Receive@CDPSock@@QAEPAVCBuffer@@XZ		; CDPSock::Receive
PUBLIC	?AddCreatePlayerOrGroupMsg@CDPSock@@QAEXKPAVCBuffer@@@Z ; CDPSock::AddCreatePlayerOrGroupMsg
PUBLIC	?AddDestroyPlayerOrGroupMsg@CDPSock@@QAEXKPAVCBuffer@@@Z ; CDPSock::AddDestroyPlayerOrGroupMsg
PUBLIC	??_GCDPSock@@UAEPAXI@Z				; CDPSock::`scalar deleting destructor'
PUBLIC	?IoWorkerThread@@YGIPAX@Z			; IoWorkerThread
PUBLIC	?EventWorkerThread@@YGIPAX@Z			; EventWorkerThread
PUBLIC	??1?$_Alloc_construct_ptr@V?$allocator@U?$_List_node@PAXPAX@std@@@std@@@std@@QAE@XZ ; std::_Alloc_construct_ptr<std::allocator<std::_List_node<void *,void *> > >::~_Alloc_construct_ptr<std::allocator<std::_List_node<void *,void *> > >
PUBLIC	??_7exception@std@@6B@				; std::exception::`vftable'
PUBLIC	??_C@_0BC@EOODALEL@Unknown?5exception@		; `string'
PUBLIC	??_7bad_alloc@std@@6B@				; std::bad_alloc::`vftable'
PUBLIC	??_7bad_array_new_length@std@@6B@		; std::bad_array_new_length::`vftable'
PUBLIC	??_C@_0BF@KINCDENJ@bad?5array?5new?5length@	; `string'
PUBLIC	??_R0?AVexception@std@@@8			; std::exception `RTTI Type Descriptor'
PUBLIC	__CT??_R0?AVexception@std@@@8??0exception@std@@QAE@ABV01@@Z12
PUBLIC	__TI3?AVbad_array_new_length@std@@
PUBLIC	__CTA3?AVbad_array_new_length@std@@
PUBLIC	??_R0?AVbad_array_new_length@std@@@8		; std::bad_array_new_length `RTTI Type Descriptor'
PUBLIC	__CT??_R0?AVbad_array_new_length@std@@@8??0bad_array_new_length@std@@QAE@ABV01@@Z12
PUBLIC	??_R0?AVbad_alloc@std@@@8			; std::bad_alloc `RTTI Type Descriptor'
PUBLIC	__CT??_R0?AVbad_alloc@std@@@8??0bad_alloc@std@@QAE@ABV01@@Z12
PUBLIC	??_7CMclCritSec@@6B@				; CMclCritSec::`vftable'
PUBLIC	??_R4exception@std@@6B@				; std::exception::`RTTI Complete Object Locator'
PUBLIC	??_R3exception@std@@8				; std::exception::`RTTI Class Hierarchy Descriptor'
PUBLIC	??_R2exception@std@@8				; std::exception::`RTTI Base Class Array'
PUBLIC	??_R1A@?0A@EA@exception@std@@8			; std::exception::`RTTI Base Class Descriptor at (0,-1,0,64)'
PUBLIC	??_R4bad_array_new_length@std@@6B@		; std::bad_array_new_length::`RTTI Complete Object Locator'
PUBLIC	??_R3bad_array_new_length@std@@8		; std::bad_array_new_length::`RTTI Class Hierarchy Descriptor'
PUBLIC	??_R2bad_array_new_length@std@@8		; std::bad_array_new_length::`RTTI Base Class Array'
PUBLIC	??_R1A@?0A@EA@bad_array_new_length@std@@8	; std::bad_array_new_length::`RTTI Base Class Descriptor at (0,-1,0,64)'
PUBLIC	??_R1A@?0A@EA@bad_alloc@std@@8			; std::bad_alloc::`RTTI Base Class Descriptor at (0,-1,0,64)'
PUBLIC	??_R3bad_alloc@std@@8				; std::bad_alloc::`RTTI Class Hierarchy Descriptor'
PUBLIC	??_R2bad_alloc@std@@8				; std::bad_alloc::`RTTI Base Class Array'
PUBLIC	??_R4bad_alloc@std@@6B@				; std::bad_alloc::`RTTI Complete Object Locator'
PUBLIC	??_R4CMclCritSec@@6B@				; CMclCritSec::`RTTI Complete Object Locator'
PUBLIC	??_R0?AVCMclCritSec@@@8				; CMclCritSec `RTTI Type Descriptor'
PUBLIC	??_R3CMclCritSec@@8				; CMclCritSec::`RTTI Class Hierarchy Descriptor'
PUBLIC	??_R2CMclCritSec@@8				; CMclCritSec::`RTTI Base Class Array'
PUBLIC	??_R1A@?0A@EA@CMclCritSec@@8			; CMclCritSec::`RTTI Base Class Descriptor at (0,-1,0,64)'
PUBLIC	??_7CDPSock@@6B@				; CDPSock::`vftable'
PUBLIC	??_C@_0DO@NOJACIOJ@C?3?2IAGOS?2server?2v18?2Source?2Sour@ ; `string'
PUBLIC	??_C@_05DIALNFFA@?$CFs?5?$CFd@			; `string'
PUBLIC	??_C@_0O@NKNMEGII@list?5too?5long@		; `string'
PUBLIC	??_R4CDPSock@@6B@				; CDPSock::`RTTI Complete Object Locator'
PUBLIC	??_R0?AVCDPSock@@@8				; CDPSock `RTTI Type Descriptor'
PUBLIC	??_R3CDPSock@@8					; CDPSock::`RTTI Class Hierarchy Descriptor'
PUBLIC	??_R2CDPSock@@8					; CDPSock::`RTTI Base Class Array'
PUBLIC	??_R1A@?0A@EA@CDPSock@@8			; CDPSock::`RTTI Base Class Descriptor at (0,-1,0,64)'
EXTRN	??2@YAPAXI@Z:PROC				; operator new
EXTRN	??3@YAXPAXI@Z:PROC				; operator delete
EXTRN	??_U@YAPAXI@Z:PROC				; operator new[]
EXTRN	??_V@YAXPAX@Z:PROC				; operator delete[]
EXTRN	__invoke_watson:PROC
EXTRN	__imp__CloseHandle@4:PROC
EXTRN	__imp__GetLastError@0:PROC
EXTRN	__imp__CreateIoCompletionPort@16:PROC
EXTRN	__imp__GetQueuedCompletionStatus@20:PROC
EXTRN	__imp__PostQueuedCompletionStatus@16:PROC
EXTRN	__imp__GetOverlappedResult@16:PROC
EXTRN	__imp__InitializeCriticalSection@4:PROC
EXTRN	__imp__EnterCriticalSection@4:PROC
EXTRN	__imp__LeaveCriticalSection@4:PROC
EXTRN	__imp__DeleteCriticalSection@4:PROC
EXTRN	__imp__SetEvent@4:PROC
EXTRN	__imp__CreateEventA@16:PROC
EXTRN	__imp__WaitForMultipleObjects@16:PROC
EXTRN	__imp__SetThreadPriority@8:PROC
EXTRN	__imp__GetSystemInfo@4:PROC
EXTRN	__imp__GetVersionExA@4:PROC
EXTRN	__imp__setsockopt@20:PROC
EXTRN	__imp__WSAGetLastError@0:PROC
EXTRN	__imp__WSACloseEvent@4:PROC
EXTRN	__imp__WSACreateEvent@0:PROC
EXTRN	__imp__WSAResetEvent@4:PROC
EXTRN	__imp__WSASetEvent@4:PROC
EXTRN	__imp__WSAWaitForMultipleEvents@20:PROC
EXTRN	__beginthreadex:PROC
EXTRN	___std_exception_copy:PROC
EXTRN	___std_exception_destroy:PROC
EXTRN	??_Eexception@std@@UAEPAXI@Z:PROC		; std::exception::`vector deleting destructor'
EXTRN	??_Ebad_alloc@std@@UAEPAXI@Z:PROC		; std::bad_alloc::`vector deleting destructor'
EXTRN	??_Ebad_array_new_length@std@@UAEPAXI@Z:PROC	; std::bad_array_new_length::`vector deleting destructor'
EXTRN	?_Xlength_error@std@@YAXPBD@Z:PROC		; std::_Xlength_error
EXTRN	??_ECMclCritSec@@UAEPAXI@Z:PROC			; CMclCritSec::`vector deleting destructor'
EXTRN	?Error@@YAPBDPBDZZ:PROC				; Error
EXTRN	??0CBufferQueue@@QAE@XZ:PROC			; CBufferQueue::CBufferQueue
EXTRN	??1CBufferQueue@@UAE@XZ:PROC			; CBufferQueue::~CBufferQueue
EXTRN	?Clear@CBufferQueue@@QAEXH@Z:PROC		; CBufferQueue::Clear
EXTRN	?CreateBuffer@CBufferFactory@@QAEPAVCBuffer@@W4BUFFER_TYPE@@K@Z:PROC ; CBufferFactory::CreateBuffer
EXTRN	?GetInstance@CBufferFactory@@SAAAV1@XZ:PROC	; CBufferFactory::GetInstance
EXTRN	??0CClientSock@@QAE@W4BUFFER_TYPE@@@Z:PROC	; CClientSock::CClientSock
EXTRN	?CreateBuffer@CClientSock@@QAEPAVCBuffer@@XZ:PROC ; CClientSock::CreateBuffer
EXTRN	?Connect@CClientSock@@QAEHPADG@Z:PROC		; CClientSock::Connect
EXTRN	?Recv@CClientSock@@QAEHXZ:PROC			; CClientSock::Recv
EXTRN	?SendRemnant@CClientSock@@QAEHK@Z:PROC		; CClientSock::SendRemnant
EXTRN	?Fetch@CClientSock@@QAEPAVCBuffer@@K@Z:PROC	; CClientSock::Fetch
EXTRN	??0CServerSock@@QAE@W4BUFFER_TYPE@@@Z:PROC	; CServerSock::CServerSock
EXTRN	?Listen@CServerSock@@QAEHXZ:PROC		; CServerSock::Listen
EXTRN	?StartServer@CServerSock@@QAEHPAPAXK@Z:PROC	; CServerSock::StartServer
EXTRN	?AllocAndAssoc@CServerSock@@QAEHIK@Z:PROC	; CServerSock::AllocAndAssoc
EXTRN	??0CClientSockE@@QAE@W4BUFFER_TYPE@@@Z:PROC	; CClientSockE::CClientSockE
EXTRN	?CreateBuffer@CClientSockE@@QAEPAVCBuffer@@XZ:PROC ; CClientSockE::CreateBuffer
EXTRN	?Connect@CClientSockE@@QAEHPADG@Z:PROC		; CClientSockE::Connect
EXTRN	?Recv@CClientSockE@@QAEHXZ:PROC			; CClientSockE::Recv
EXTRN	?SendRemnant@CClientSockE@@QAEHK@Z:PROC		; CClientSockE::SendRemnant
EXTRN	?Fetch@CClientSockE@@QAEPAVCBuffer@@K@Z:PROC	; CClientSockE::Fetch
EXTRN	??0CServerSockE@@QAE@W4BUFFER_TYPE@@@Z:PROC	; CServerSockE::CServerSockE
EXTRN	?Listen@CServerSockE@@QAEHXZ:PROC		; CServerSockE::Listen
EXTRN	?StartServer@CServerSockE@@QAEHPAVCDPSock@@@Z:PROC ; CServerSockE::StartServer
EXTRN	??_ECDPSock@@UAEPAXI@Z:PROC			; CDPSock::`vector deleting destructor'
EXTRN	@__security_check_cookie@4:PROC
EXTRN	__CxxThrowException@8:PROC
EXTRN	___CxxFrameHandler3:PROC
EXTRN	_memset:PROC
EXTRN	??_7type_info@@6B@:QWORD			; type_info::`vftable'
EXTRN	___security_cookie:DWORD
;	COMDAT ??_R1A@?0A@EA@CDPSock@@8
rdata$r	SEGMENT
??_R1A@?0A@EA@CDPSock@@8 DD FLAT:??_R0?AVCDPSock@@@8	; CDPSock::`RTTI Base Class Descriptor at (0,-1,0,64)'
	DD	00H
	DD	00H
	DD	0ffffffffH
	DD	00H
	DD	040H
	DD	FLAT:??_R3CDPSock@@8
rdata$r	ENDS
;	COMDAT ??_R2CDPSock@@8
rdata$r	SEGMENT
??_R2CDPSock@@8 DD FLAT:??_R1A@?0A@EA@CDPSock@@8	; CDPSock::`RTTI Base Class Array'
rdata$r	ENDS
;	COMDAT ??_R3CDPSock@@8
rdata$r	SEGMENT
??_R3CDPSock@@8 DD 00H					; CDPSock::`RTTI Class Hierarchy Descriptor'
	DD	00H
	DD	01H
	DD	FLAT:??_R2CDPSock@@8
rdata$r	ENDS
;	COMDAT ??_R0?AVCDPSock@@@8
data$rs	SEGMENT
??_R0?AVCDPSock@@@8 DD FLAT:??_7type_info@@6B@		; CDPSock `RTTI Type Descriptor'
	DD	00H
	DB	'.?AVCDPSock@@', 00H
data$rs	ENDS
;	COMDAT ??_R4CDPSock@@6B@
rdata$r	SEGMENT
??_R4CDPSock@@6B@ DD 00H				; CDPSock::`RTTI Complete Object Locator'
	DD	00H
	DD	00H
	DD	FLAT:??_R0?AVCDPSock@@@8
	DD	FLAT:??_R3CDPSock@@8
rdata$r	ENDS
;	COMDAT ??_C@_0O@NKNMEGII@list?5too?5long@
CONST	SEGMENT
??_C@_0O@NKNMEGII@list?5too?5long@ DB 'list too long', 00H ; `string'
CONST	ENDS
;	COMDAT ??_C@_05DIALNFFA@?$CFs?5?$CFd@
CONST	SEGMENT
??_C@_05DIALNFFA@?$CFs?5?$CFd@ DB '%s %d', 00H		; `string'
CONST	ENDS
;	COMDAT ??_C@_0DO@NOJACIOJ@C?3?2IAGOS?2server?2v18?2Source?2Sour@
CONST	SEGMENT
??_C@_0DO@NOJACIOJ@C?3?2IAGOS?2server?2v18?2Source?2Sour@ DB 'C:\IAGOS\se'
	DB	'rver\v18\Source\Source\_Network\Net\Src\DPSock.cpp', 00H ; `string'
CONST	ENDS
;	COMDAT ??_7CDPSock@@6B@
CONST	SEGMENT
??_7CDPSock@@6B@ DD FLAT:??_R4CDPSock@@6B@		; CDPSock::`vftable'
	DD	FLAT:??_ECDPSock@@UAEPAXI@Z
CONST	ENDS
;	COMDAT ??_R1A@?0A@EA@CMclCritSec@@8
rdata$r	SEGMENT
??_R1A@?0A@EA@CMclCritSec@@8 DD FLAT:??_R0?AVCMclCritSec@@@8 ; CMclCritSec::`RTTI Base Class Descriptor at (0,-1,0,64)'
	DD	00H
	DD	00H
	DD	0ffffffffH
	DD	00H
	DD	040H
	DD	FLAT:??_R3CMclCritSec@@8
rdata$r	ENDS
;	COMDAT ??_R2CMclCritSec@@8
rdata$r	SEGMENT
??_R2CMclCritSec@@8 DD FLAT:??_R1A@?0A@EA@CMclCritSec@@8 ; CMclCritSec::`RTTI Base Class Array'
rdata$r	ENDS
;	COMDAT ??_R3CMclCritSec@@8
rdata$r	SEGMENT
??_R3CMclCritSec@@8 DD 00H				; CMclCritSec::`RTTI Class Hierarchy Descriptor'
	DD	00H
	DD	01H
	DD	FLAT:??_R2CMclCritSec@@8
rdata$r	ENDS
;	COMDAT ??_R0?AVCMclCritSec@@@8
data$rs	SEGMENT
??_R0?AVCMclCritSec@@@8 DD FLAT:??_7type_info@@6B@	; CMclCritSec `RTTI Type Descriptor'
	DD	00H
	DB	'.?AVCMclCritSec@@', 00H
data$rs	ENDS
;	COMDAT ??_R4CMclCritSec@@6B@
rdata$r	SEGMENT
??_R4CMclCritSec@@6B@ DD 00H				; CMclCritSec::`RTTI Complete Object Locator'
	DD	00H
	DD	00H
	DD	FLAT:??_R0?AVCMclCritSec@@@8
	DD	FLAT:??_R3CMclCritSec@@8
rdata$r	ENDS
;	COMDAT ??_R4bad_alloc@std@@6B@
rdata$r	SEGMENT
??_R4bad_alloc@std@@6B@ DD 00H				; std::bad_alloc::`RTTI Complete Object Locator'
	DD	00H
	DD	00H
	DD	FLAT:??_R0?AVbad_alloc@std@@@8
	DD	FLAT:??_R3bad_alloc@std@@8
rdata$r	ENDS
;	COMDAT ??_R2bad_alloc@std@@8
rdata$r	SEGMENT
??_R2bad_alloc@std@@8 DD FLAT:??_R1A@?0A@EA@bad_alloc@std@@8 ; std::bad_alloc::`RTTI Base Class Array'
	DD	FLAT:??_R1A@?0A@EA@exception@std@@8
rdata$r	ENDS
;	COMDAT ??_R3bad_alloc@std@@8
rdata$r	SEGMENT
??_R3bad_alloc@std@@8 DD 00H				; std::bad_alloc::`RTTI Class Hierarchy Descriptor'
	DD	00H
	DD	02H
	DD	FLAT:??_R2bad_alloc@std@@8
rdata$r	ENDS
;	COMDAT ??_R1A@?0A@EA@bad_alloc@std@@8
rdata$r	SEGMENT
??_R1A@?0A@EA@bad_alloc@std@@8 DD FLAT:??_R0?AVbad_alloc@std@@@8 ; std::bad_alloc::`RTTI Base Class Descriptor at (0,-1,0,64)'
	DD	01H
	DD	00H
	DD	0ffffffffH
	DD	00H
	DD	040H
	DD	FLAT:??_R3bad_alloc@std@@8
rdata$r	ENDS
;	COMDAT ??_R1A@?0A@EA@bad_array_new_length@std@@8
rdata$r	SEGMENT
??_R1A@?0A@EA@bad_array_new_length@std@@8 DD FLAT:??_R0?AVbad_array_new_length@std@@@8 ; std::bad_array_new_length::`RTTI Base Class Descriptor at (0,-1,0,64)'
	DD	02H
	DD	00H
	DD	0ffffffffH
	DD	00H
	DD	040H
	DD	FLAT:??_R3bad_array_new_length@std@@8
rdata$r	ENDS
;	COMDAT ??_R2bad_array_new_length@std@@8
rdata$r	SEGMENT
??_R2bad_array_new_length@std@@8 DD FLAT:??_R1A@?0A@EA@bad_array_new_length@std@@8 ; std::bad_array_new_length::`RTTI Base Class Array'
	DD	FLAT:??_R1A@?0A@EA@bad_alloc@std@@8
	DD	FLAT:??_R1A@?0A@EA@exception@std@@8
rdata$r	ENDS
;	COMDAT ??_R3bad_array_new_length@std@@8
rdata$r	SEGMENT
??_R3bad_array_new_length@std@@8 DD 00H			; std::bad_array_new_length::`RTTI Class Hierarchy Descriptor'
	DD	00H
	DD	03H
	DD	FLAT:??_R2bad_array_new_length@std@@8
rdata$r	ENDS
;	COMDAT ??_R4bad_array_new_length@std@@6B@
rdata$r	SEGMENT
??_R4bad_array_new_length@std@@6B@ DD 00H		; std::bad_array_new_length::`RTTI Complete Object Locator'
	DD	00H
	DD	00H
	DD	FLAT:??_R0?AVbad_array_new_length@std@@@8
	DD	FLAT:??_R3bad_array_new_length@std@@8
rdata$r	ENDS
;	COMDAT ??_R1A@?0A@EA@exception@std@@8
rdata$r	SEGMENT
??_R1A@?0A@EA@exception@std@@8 DD FLAT:??_R0?AVexception@std@@@8 ; std::exception::`RTTI Base Class Descriptor at (0,-1,0,64)'
	DD	00H
	DD	00H
	DD	0ffffffffH
	DD	00H
	DD	040H
	DD	FLAT:??_R3exception@std@@8
rdata$r	ENDS
;	COMDAT ??_R2exception@std@@8
rdata$r	SEGMENT
??_R2exception@std@@8 DD FLAT:??_R1A@?0A@EA@exception@std@@8 ; std::exception::`RTTI Base Class Array'
rdata$r	ENDS
;	COMDAT ??_R3exception@std@@8
rdata$r	SEGMENT
??_R3exception@std@@8 DD 00H				; std::exception::`RTTI Class Hierarchy Descriptor'
	DD	00H
	DD	01H
	DD	FLAT:??_R2exception@std@@8
rdata$r	ENDS
;	COMDAT ??_R4exception@std@@6B@
rdata$r	SEGMENT
??_R4exception@std@@6B@ DD 00H				; std::exception::`RTTI Complete Object Locator'
	DD	00H
	DD	00H
	DD	FLAT:??_R0?AVexception@std@@@8
	DD	FLAT:??_R3exception@std@@8
rdata$r	ENDS
;	COMDAT ??_7CMclCritSec@@6B@
CONST	SEGMENT
??_7CMclCritSec@@6B@ DD FLAT:??_R4CMclCritSec@@6B@	; CMclCritSec::`vftable'
	DD	FLAT:??_ECMclCritSec@@UAEPAXI@Z
CONST	ENDS
;	COMDAT __CT??_R0?AVbad_alloc@std@@@8??0bad_alloc@std@@QAE@ABV01@@Z12
xdata$x	SEGMENT
__CT??_R0?AVbad_alloc@std@@@8??0bad_alloc@std@@QAE@ABV01@@Z12 DD 010H
	DD	FLAT:??_R0?AVbad_alloc@std@@@8
	DD	00H
	DD	0ffffffffH
	ORG $+4
	DD	0cH
	DD	FLAT:??0bad_alloc@std@@QAE@ABV01@@Z
xdata$x	ENDS
;	COMDAT ??_R0?AVbad_alloc@std@@@8
data$r	SEGMENT
??_R0?AVbad_alloc@std@@@8 DD FLAT:??_7type_info@@6B@	; std::bad_alloc `RTTI Type Descriptor'
	DD	00H
	DB	'.?AVbad_alloc@std@@', 00H
data$r	ENDS
;	COMDAT __CT??_R0?AVbad_array_new_length@std@@@8??0bad_array_new_length@std@@QAE@ABV01@@Z12
xdata$x	SEGMENT
__CT??_R0?AVbad_array_new_length@std@@@8??0bad_array_new_length@std@@QAE@ABV01@@Z12 DD 00H
	DD	FLAT:??_R0?AVbad_array_new_length@std@@@8
	DD	00H
	DD	0ffffffffH
	ORG $+4
	DD	0cH
	DD	FLAT:??0bad_array_new_length@std@@QAE@ABV01@@Z
xdata$x	ENDS
;	COMDAT ??_R0?AVbad_array_new_length@std@@@8
data$r	SEGMENT
??_R0?AVbad_array_new_length@std@@@8 DD FLAT:??_7type_info@@6B@ ; std::bad_array_new_length `RTTI Type Descriptor'
	DD	00H
	DB	'.?AVbad_array_new_length@std@@', 00H
data$r	ENDS
;	COMDAT __CTA3?AVbad_array_new_length@std@@
xdata$x	SEGMENT
__CTA3?AVbad_array_new_length@std@@ DD 03H
	DD	FLAT:__CT??_R0?AVbad_array_new_length@std@@@8??0bad_array_new_length@std@@QAE@ABV01@@Z12
	DD	FLAT:__CT??_R0?AVbad_alloc@std@@@8??0bad_alloc@std@@QAE@ABV01@@Z12
	DD	FLAT:__CT??_R0?AVexception@std@@@8??0exception@std@@QAE@ABV01@@Z12
xdata$x	ENDS
;	COMDAT __TI3?AVbad_array_new_length@std@@
xdata$x	SEGMENT
__TI3?AVbad_array_new_length@std@@ DD 00H
	DD	FLAT:??1bad_array_new_length@std@@UAE@XZ
	DD	00H
	DD	FLAT:__CTA3?AVbad_array_new_length@std@@
xdata$x	ENDS
;	COMDAT __CT??_R0?AVexception@std@@@8??0exception@std@@QAE@ABV01@@Z12
xdata$x	SEGMENT
__CT??_R0?AVexception@std@@@8??0exception@std@@QAE@ABV01@@Z12 DD 00H
	DD	FLAT:??_R0?AVexception@std@@@8
	DD	00H
	DD	0ffffffffH
	ORG $+4
	DD	0cH
	DD	FLAT:??0exception@std@@QAE@ABV01@@Z
xdata$x	ENDS
;	COMDAT ??_R0?AVexception@std@@@8
data$r	SEGMENT
??_R0?AVexception@std@@@8 DD FLAT:??_7type_info@@6B@	; std::exception `RTTI Type Descriptor'
	DD	00H
	DB	'.?AVexception@std@@', 00H
data$r	ENDS
;	COMDAT ??_C@_0BF@KINCDENJ@bad?5array?5new?5length@
CONST	SEGMENT
??_C@_0BF@KINCDENJ@bad?5array?5new?5length@ DB 'bad array new length', 00H ; `string'
CONST	ENDS
;	COMDAT ??_7bad_array_new_length@std@@6B@
CONST	SEGMENT
??_7bad_array_new_length@std@@6B@ DD FLAT:??_R4bad_array_new_length@std@@6B@ ; std::bad_array_new_length::`vftable'
	DD	FLAT:??_Ebad_array_new_length@std@@UAEPAXI@Z
	DD	FLAT:?what@exception@std@@UBEPBDXZ
CONST	ENDS
;	COMDAT ??_7bad_alloc@std@@6B@
CONST	SEGMENT
??_7bad_alloc@std@@6B@ DD FLAT:??_R4bad_alloc@std@@6B@	; std::bad_alloc::`vftable'
	DD	FLAT:??_Ebad_alloc@std@@UAEPAXI@Z
	DD	FLAT:?what@exception@std@@UBEPBDXZ
CONST	ENDS
;	COMDAT ??_C@_0BC@EOODALEL@Unknown?5exception@
CONST	SEGMENT
??_C@_0BC@EOODALEL@Unknown?5exception@ DB 'Unknown exception', 00H ; `string'
CONST	ENDS
;	COMDAT ??_7exception@std@@6B@
CONST	SEGMENT
??_7exception@std@@6B@ DD FLAT:??_R4exception@std@@6B@	; std::exception::`vftable'
	DD	FLAT:??_Eexception@std@@UAEPAXI@Z
	DD	FLAT:?what@exception@std@@UBEPBDXZ
CONST	ENDS
;	COMDAT xdata$x
xdata$x	SEGMENT
__unwindtable$??$?0ABQAX@?$_List_node_emplace_op2@V?$allocator@U?$_List_node@PAXPAX@std@@@std@@@std@@QAE@AAV?$allocator@U?$_List_node@PAXPAX@std@@@1@ABQAX@Z DD 0ffffffffH
	DD	FLAT:__unwindfunclet$??$?0ABQAX@?$_List_node_emplace_op2@V?$allocator@U?$_List_node@PAXPAX@std@@@std@@@std@@QAE@AAV?$allocator@U?$_List_node@PAXPAX@std@@@1@ABQAX@Z$0
__ehfuncinfo$??$?0ABQAX@?$_List_node_emplace_op2@V?$allocator@U?$_List_node@PAXPAX@std@@@std@@@std@@QAE@AAV?$allocator@U?$_List_node@PAXPAX@std@@@1@ABQAX@Z DD 019930522H
	DD	01H
	DD	FLAT:__unwindtable$??$?0ABQAX@?$_List_node_emplace_op2@V?$allocator@U?$_List_node@PAXPAX@std@@@std@@@std@@QAE@AAV?$allocator@U?$_List_node@PAXPAX@std@@@1@ABQAX@Z
	DD	2 DUP(00H)
	DD	2 DUP(00H)
	DD	00H
	DD	01H
xdata$x	ENDS
;	COMDAT xdata$x
xdata$x	SEGMENT
__unwindtable$??$_Emplace@ABQAX@?$list@PAXV?$allocator@PAX@std@@@std@@QAEPAU?$_List_node@PAXPAX@1@QAU21@ABQAX@Z DD 0ffffffffH
	DD	FLAT:__unwindfunclet$??$_Emplace@ABQAX@?$list@PAXV?$allocator@PAX@std@@@std@@QAEPAU?$_List_node@PAXPAX@1@QAU21@ABQAX@Z$1
__ehfuncinfo$??$_Emplace@ABQAX@?$list@PAXV?$allocator@PAX@std@@@std@@QAEPAU?$_List_node@PAXPAX@1@QAU21@ABQAX@Z DD 019930522H
	DD	01H
	DD	FLAT:__unwindtable$??$_Emplace@ABQAX@?$list@PAXV?$allocator@PAX@std@@@std@@QAEPAU?$_List_node@PAXPAX@1@QAU21@ABQAX@Z
	DD	2 DUP(00H)
	DD	2 DUP(00H)
	DD	00H
	DD	01H
xdata$x	ENDS
;	COMDAT xdata$x
xdata$x	SEGMENT
__unwindtable$?JoinToServerE@CDPSock@@QAEHW4BUFFER_TYPE@@@Z DD 0ffffffffH
	DD	FLAT:__unwindfunclet$?JoinToServerE@CDPSock@@QAEHW4BUFFER_TYPE@@@Z$0
__ehfuncinfo$?JoinToServerE@CDPSock@@QAEHW4BUFFER_TYPE@@@Z DD 019930522H
	DD	01H
	DD	FLAT:__unwindtable$?JoinToServerE@CDPSock@@QAEHW4BUFFER_TYPE@@@Z
	DD	2 DUP(00H)
	DD	2 DUP(00H)
	DD	00H
	DD	01H
xdata$x	ENDS
;	COMDAT xdata$x
xdata$x	SEGMENT
__unwindtable$?CreateServerE@CDPSock@@QAEHW4BUFFER_TYPE@@@Z DD 0ffffffffH
	DD	FLAT:__unwindfunclet$?CreateServerE@CDPSock@@QAEHW4BUFFER_TYPE@@@Z$0
__ehfuncinfo$?CreateServerE@CDPSock@@QAEHW4BUFFER_TYPE@@@Z DD 019930522H
	DD	01H
	DD	FLAT:__unwindtable$?CreateServerE@CDPSock@@QAEHW4BUFFER_TYPE@@@Z
	DD	2 DUP(00H)
	DD	2 DUP(00H)
	DD	00H
	DD	01H
xdata$x	ENDS
;	COMDAT xdata$x
xdata$x	SEGMENT
__unwindtable$?JoinToServer@CDPSock@@QAEHW4BUFFER_TYPE@@@Z DD 0ffffffffH
	DD	FLAT:__unwindfunclet$?JoinToServer@CDPSock@@QAEHW4BUFFER_TYPE@@@Z$0
__ehfuncinfo$?JoinToServer@CDPSock@@QAEHW4BUFFER_TYPE@@@Z DD 019930522H
	DD	01H
	DD	FLAT:__unwindtable$?JoinToServer@CDPSock@@QAEHW4BUFFER_TYPE@@@Z
	DD	2 DUP(00H)
	DD	2 DUP(00H)
	DD	00H
	DD	01H
xdata$x	ENDS
;	COMDAT xdata$x
xdata$x	SEGMENT
__unwindtable$?CreateServer@CDPSock@@QAEHW4BUFFER_TYPE@@@Z DD 0ffffffffH
	DD	FLAT:__unwindfunclet$?CreateServer@CDPSock@@QAEHW4BUFFER_TYPE@@@Z$0
__ehfuncinfo$?CreateServer@CDPSock@@QAEHW4BUFFER_TYPE@@@Z DD 019930522H
	DD	01H
	DD	FLAT:__unwindtable$?CreateServer@CDPSock@@QAEHW4BUFFER_TYPE@@@Z
	DD	2 DUP(00H)
	DD	2 DUP(00H)
	DD	00H
	DD	01H
xdata$x	ENDS
;	COMDAT xdata$x
xdata$x	SEGMENT
__ehfuncinfo$??1CDPSock@@UAE@XZ DD 019930522H
	DD	00H
	DD	00H
	DD	2 DUP(00H)
	DD	2 DUP(00H)
	DD	00H
	DD	05H
xdata$x	ENDS
;	COMDAT xdata$x
xdata$x	SEGMENT
__unwindtable$??0CDPSock@@QAE@XZ DD 0ffffffffH
	DD	FLAT:__unwindfunclet$??0CDPSock@@QAE@XZ$0
	DD	00H
	DD	FLAT:__unwindfunclet$??0CDPSock@@QAE@XZ$1
__ehfuncinfo$??0CDPSock@@QAE@XZ DD 019930522H
	DD	02H
	DD	FLAT:__unwindtable$??0CDPSock@@QAE@XZ
	DD	2 DUP(00H)
	DD	2 DUP(00H)
	DD	00H
	DD	01H
xdata$x	ENDS
;	COMDAT xdata$x
xdata$x	SEGMENT
__unwindtable$?CreateIoWorker@CDPSock@@AAEHK@Z DD 0ffffffffH
	DD	FLAT:__unwindfunclet$?CreateIoWorker@CDPSock@@AAEHK@Z$1
__ehfuncinfo$?CreateIoWorker@CDPSock@@AAEHK@Z DD 019930522H
	DD	01H
	DD	FLAT:__unwindtable$?CreateIoWorker@CDPSock@@AAEHK@Z
	DD	2 DUP(00H)
	DD	2 DUP(00H)
	DD	00H
	DD	01H
xdata$x	ENDS
;	COMDAT xdata$x
xdata$x	SEGMENT
__unwindtable$?push_back@?$list@PAXV?$allocator@PAX@std@@@std@@QAEXABQAX@Z DD 0ffffffffH
	DD	FLAT:__unwindfunclet$?push_back@?$list@PAXV?$allocator@PAX@std@@@std@@QAEXABQAX@Z$1
__ehfuncinfo$?push_back@?$list@PAXV?$allocator@PAX@std@@@std@@QAEXABQAX@Z DD 019930522H
	DD	01H
	DD	FLAT:__unwindtable$?push_back@?$list@PAXV?$allocator@PAX@std@@@std@@QAEXABQAX@Z
	DD	2 DUP(00H)
	DD	2 DUP(00H)
	DD	00H
	DD	01H
xdata$x	ENDS
; Function compile flags: /Ogtp
; File C:\Program Files\Microsoft Visual Studio\2022\Professional\VC\Tools\MSVC\14.44.35207\include\xmemory
;	COMDAT ??1?$_Alloc_construct_ptr@V?$allocator@U?$_List_node@PAXPAX@std@@@std@@@std@@QAE@XZ
_TEXT	SEGMENT
??1?$_Alloc_construct_ptr@V?$allocator@U?$_List_node@PAXPAX@std@@@std@@@std@@QAE@XZ PROC ; std::_Alloc_construct_ptr<std::allocator<std::_List_node<void *,void *> > >::~_Alloc_construct_ptr<std::allocator<std::_List_node<void *,void *> > >, COMDAT
; _this$ = ecx

; 1172 :         if (_Ptr) {

  00000	8b 41 04	 mov	 eax, DWORD PTR [ecx+4]
  00003	85 c0		 test	 eax, eax
  00005	74 0b		 je	 SHORT $LN10@Alloc_cons

; 289  :         ::operator delete(_Ptr, _Bytes);

  00007	6a 0c		 push	 12			; 0000000cH
  00009	50		 push	 eax
  0000a	e8 00 00 00 00	 call	 ??3@YAXPAXI@Z		; operator delete
  0000f	83 c4 08	 add	 esp, 8
$LN10@Alloc_cons:

; 1173 :             _Al.deallocate(_Ptr, 1);
; 1174 :         }
; 1175 :     }

  00012	c3		 ret	 0
??1?$_Alloc_construct_ptr@V?$allocator@U?$_List_node@PAXPAX@std@@@std@@@std@@QAE@XZ ENDP ; std::_Alloc_construct_ptr<std::allocator<std::_List_node<void *,void *> > >::~_Alloc_construct_ptr<std::allocator<std::_List_node<void *,void *> > >
_TEXT	ENDS
; Function compile flags: /Ogtp
; File C:\IAGOS\server\v18\Source\Source\_Network\Net\Src\DPSock.cpp
; File C:\IAGOS\server\v18\Source\Source\_Network\Mcl\Include\CMclCritSec.h
; File C:\IAGOS\server\v18\Source\Source\_Network\Net\Include\buffer.h
; File C:\IAGOS\server\v18\Source\Source\_Network\Mcl\Include\CMclCritSec.h
; File C:\IAGOS\server\v18\Source\Source\_Network\Net\Include\buffer.h
; File C:\IAGOS\server\v18\Source\Source\_Network\Mcl\Include\CMclCritSec.h
; File C:\IAGOS\server\v18\Source\Source\_Network\Net\Include\buffer.h
; File C:\IAGOS\server\v18\Source\Source\_Network\Mcl\Include\CMclCritSec.h
; File C:\IAGOS\server\v18\Source\Source\_Network\Net\Src\DPSock.cpp
;	COMDAT ?EventWorkerThread@@YGIPAX@Z
_TEXT	SEGMENT
_dwBytes$ = -28						; size = 4
_hSocket$1$ = -24					; size = 4
_aEvent$ = -20						; size = 16
__$ArrayPad$ = -4					; size = 4
_lpvThreadParameter$ = 8				; size = 4
?EventWorkerThread@@YGIPAX@Z PROC			; EventWorkerThread, COMDAT

; 802  : {

  00000	55		 push	 ebp
  00001	8b ec		 mov	 ebp, esp
  00003	83 ec 1c	 sub	 esp, 28			; 0000001cH
  00006	a1 00 00 00 00	 mov	 eax, DWORD PTR ___security_cookie
  0000b	33 c5		 xor	 eax, ebp
  0000d	89 45 fc	 mov	 DWORD PTR __$ArrayPad$[ebp], eax
  00010	53		 push	 ebx
  00011	56		 push	 esi
  00012	57		 push	 edi
  00013	8b 7d 08	 mov	 edi, DWORD PTR _lpvThreadParameter$[ebp]

; 803  : 	CDPSock* pDPSock	= (CDPSock*)lpvThreadParameter;
; 804  : 	CClientSockE* pClientSock	= (CClientSockE*)pDPSock->GetSockThreaded();

  00016	8b 5f 60	 mov	 ebx, DWORD PTR [edi+96]

; 805  : 	SOCKET hSocket	= pClientSock->GetHandle();

  00019	8b 73 04	 mov	 esi, DWORD PTR [ebx+4]

; 806  : 
; 807  : 	WSAEVENT aEvent[4];
; 808  : 	aEvent[0]	= pClientSock->GetRecvEvent();

  0001c	8b 43 3c	 mov	 eax, DWORD PTR [ebx+60]
  0001f	89 45 ec	 mov	 DWORD PTR _aEvent$[ebp], eax

; 809  : 	aEvent[1]	= pClientSock->GetSendEvent();

  00022	8b 43 40	 mov	 eax, DWORD PTR [ebx+64]
  00025	89 45 f0	 mov	 DWORD PTR _aEvent$[ebp+4], eax

; 810  : 	aEvent[2]	= pDPSock->GetCloseHandle();

  00028	8b 47 58	 mov	 eax, DWORD PTR [edi+88]
  0002b	89 75 e8	 mov	 DWORD PTR _hSocket$1$[ebp], esi
  0002e	89 45 f4	 mov	 DWORD PTR _aEvent$[ebp+8], eax

; 811  : 	aEvent[3]	= NULL;

  00031	c7 45 f8 00 00
	00 00		 mov	 DWORD PTR _aEvent$[ebp+12], 0

; 812  : 
; 813  : 	DWORD dwBytes	= 0, dw;

  00038	c7 45 e4 00 00
	00 00		 mov	 DWORD PTR _dwBytes$[ebp], 0
  0003f	90		 npad	 1
$LL2@EventWorke:

; 814  : 	BOOL fOk;
; 815  : 
; 816  : 	while( 1 )
; 817  : 	{
; 818  : 		dw	= WSAWaitForMultipleEvents( 3, aEvent, FALSE, INFINITE, FALSE );

  00040	6a 00		 push	 0
  00042	6a ff		 push	 -1
  00044	6a 00		 push	 0
  00046	8d 45 ec	 lea	 eax, DWORD PTR _aEvent$[ebp]
  00049	50		 push	 eax
  0004a	6a 03		 push	 3
  0004c	ff 15 00 00 00
	00		 call	 DWORD PTR __imp__WSAWaitForMultipleEvents@20

; 819  : 		switch( dw )

  00052	83 f8 02	 cmp	 eax, 2
  00055	77 e9		 ja	 SHORT $LL2@EventWorke
  00057	0f 84 3d 01 00
	00		 je	 $LN10@EventWorke
  0005d	83 e8 00	 sub	 eax, 0
  00060	74 49		 je	 SHORT $LN12@EventWorke
  00062	83 e8 01	 sub	 eax, 1
  00065	75 d9		 jne	 SHORT $LL2@EventWorke

; 894  : 				}
; 895  : 			case WSA_WAIT_EVENT_0+1:	
; 896  : 				{
; 897  : 					fOk		= GetOverlappedResult( (HANDLE)hSocket, &pClientSock->m_ovSend, &dwBytes, TRUE );

  00067	6a 01		 push	 1
  00069	8d 45 e4	 lea	 eax, DWORD PTR _dwBytes$[ebp]
  0006c	50		 push	 eax
  0006d	8d 43 28	 lea	 eax, DWORD PTR [ebx+40]
  00070	50		 push	 eax
  00071	56		 push	 esi
  00072	ff 15 00 00 00
	00		 call	 DWORD PTR __imp__GetOverlappedResult@16

; 898  : 					WSAResetEvent( aEvent[1] );

  00078	ff 75 f0	 push	 DWORD PTR _aEvent$[ebp+4]
  0007b	8b f0		 mov	 esi, eax
  0007d	ff 15 00 00 00
	00		 call	 DWORD PTR __imp__WSAResetEvent@4

; 899  : 					if( !fOk || dwBytes == 0 )	// When Connection Closed by peer gracefully or because of error

  00083	85 f6		 test	 esi, esi
  00085	0f 84 d4 00 00
	00		 je	 $LN58@EventWorke
  0008b	8b 45 e4	 mov	 eax, DWORD PTR _dwBytes$[ebp]
  0008e	85 c0		 test	 eax, eax
  00090	0f 84 c9 00 00
	00		 je	 $LN58@EventWorke

; 912  : //									if( pClientSock->m_l == 0 ) {
; 913  : 										pDPSock->RemoveThread( pClientSock->m_hWorker );
; 914  : 										pDPSock->CloseConnection( hSocket );
; 915  : 										return 0;
; 916  : //									}
; 917  : 									break;
; 918  : 								}
; 919  : 						}
; 920  : 					}
; 921  : 				
; 922  : 					if( pClientSock->SendRemnant( dwBytes ) != 0 )

  00096	50		 push	 eax
  00097	8b cb		 mov	 ecx, ebx
  00099	e8 00 00 00 00	 call	 ?SendRemnant@CClientSockE@@QAEHK@Z ; CClientSockE::SendRemnant
  0009e	85 c0		 test	 eax, eax
  000a0	0f 85 c3 00 00
	00		 jne	 $LN59@EventWorke
  000a6	8b 75 e8	 mov	 esi, DWORD PTR _hSocket$1$[ebp]
  000a9	eb 95		 jmp	 SHORT $LL2@EventWorke
$LN12@EventWorke:

; 820  : 		{
; 821  : 			case WSA_WAIT_EVENT_0+2:
; 822  : 				return 0;
; 823  : 			case WSA_WAIT_FAILED:
; 824  : 				TRACE( "WSA_WAIT_FAILED with error %d\n", WSAGetLastError() );
; 825  : 				continue;
; 826  : 				break;
; 827  : 			case WSA_WAIT_EVENT_0:
; 828  : 				{
; 829  : 					fOk		= GetOverlappedResult( (HANDLE)hSocket, &pClientSock->m_ovRecv, &dwBytes, TRUE );

  000ab	6a 01		 push	 1
  000ad	8d 45 e4	 lea	 eax, DWORD PTR _dwBytes$[ebp]
  000b0	50		 push	 eax
  000b1	8d 43 14	 lea	 eax, DWORD PTR [ebx+20]
  000b4	50		 push	 eax
  000b5	56		 push	 esi
  000b6	ff 15 00 00 00
	00		 call	 DWORD PTR __imp__GetOverlappedResult@16

; 830  : 					if( !fOk || dwBytes == 0 )	// When Connection Closed by peer gracefully or because of error

  000bc	85 c0		 test	 eax, eax
  000be	0f 84 c4 00 00
	00		 je	 $LN60@EventWorke
  000c4	8b 45 e4	 mov	 eax, DWORD PTR _dwBytes$[ebp]
  000c7	85 c0		 test	 eax, eax
  000c9	0f 84 b9 00 00
	00		 je	 $LN60@EventWorke

; 846  : 										return 0;
; 847  : //									}
; 848  : 									break;
; 849  : 								}
; 850  : 						}
; 851  : 					}
; 852  : 
; 853  : 					CBuffer* pBuffer	= pClientSock->Fetch( dwBytes );

  000cf	50		 push	 eax
  000d0	8b cb		 mov	 ecx, ebx
  000d2	e8 00 00 00 00	 call	 ?Fetch@CClientSockE@@QAEPAVCBuffer@@K@Z ; CClientSockE::Fetch
  000d7	8b f0		 mov	 esi, eax

; 854  : 					if( pBuffer )

  000d9	85 f6		 test	 esi, esi
  000db	74 64		 je	 SHORT $LN20@EventWorke

; 855  : 					{
; 856  : 						if( pBuffer->cb > 0 ) {

  000dd	83 7e 08 00	 cmp	 DWORD PTR [esi+8], 0
  000e1	76 54		 jbe	 SHORT $LN22@EventWorke

; 857  : #ifdef __PROTOCOL0910
; 858  : 							if( pClientSock->IsCrcWrite()
; 859  : 								&& pClientSock->m_dwProtocolId == 0 )
; 860  : 							{
; 861  : 								LPBYTE ptr	= pBuffer->m_lpBufStart;
; 862  : 								if( *(UNALIGNED LPDWORD)( ptr + pDPSock->m_dwDataSizeOffset ) == 8 )
; 863  : 								{
; 864  : 									if( *(UNALIGNED LPDWORD)( &ptr[pDPSock->m_dwReadHeaderSize] )
; 865  : 										== 0x00000000 )
; 866  : 										pDPSock->SetProtocolId( *(UNALIGNED LPDWORD)( &ptr[pDPSock->m_dwReadHeaderSize + 4] ) );
; 867  : 								}
; 868  : 							}
; 869  : #endif	// __PROTOCOL0910
; 870  : 							pBuffer->dpid	= hSocket;

  000e3	8b 45 e8	 mov	 eax, DWORD PTR _hSocket$1$[ebp]
  000e6	89 46 04	 mov	 DWORD PTR [esi+4], eax
; File C:\IAGOS\server\v18\Source\Source\_Network\Mcl\Include\CMclCritSec.h

; 33   : 		::EnterCriticalSection( &m_CritSec );

  000e9	8d 47 78	 lea	 eax, DWORD PTR [edi+120]
  000ec	50		 push	 eax
  000ed	ff 15 00 00 00
	00		 call	 DWORD PTR __imp__EnterCriticalSection@4
; File C:\IAGOS\server\v18\Source\Source\_Network\Net\Include\buffer.h

; 227  : 	if( !m_pHead )

  000f3	83 7f 68 00	 cmp	 DWORD PTR [edi+104], 0
  000f7	75 03		 jne	 SHORT $LN43@EventWorke

; 228  : 		m_pHead		= pBuffer;

  000f9	89 77 68	 mov	 DWORD PTR [edi+104], esi
$LN43@EventWorke:

; 229  : 	if( m_pTail )

  000fc	8b 47 6c	 mov	 eax, DWORD PTR [edi+108]
  000ff	85 c0		 test	 eax, eax
  00101	74 06		 je	 SHORT $LN44@EventWorke

; 230  : 		m_pTail->pNext	= pBuffer;

  00103	89 b0 1c 20 00
	00		 mov	 DWORD PTR [eax+8220], esi
$LN44@EventWorke:

; 231  : 	pBuffer->pPrevious	= m_pTail;

  00109	8b 47 6c	 mov	 eax, DWORD PTR [edi+108]
  0010c	89 86 20 20 00
	00		 mov	 DWORD PTR [esi+8224], eax
; File C:\IAGOS\server\v18\Source\Source\_Network\Mcl\Include\CMclCritSec.h

; 39   : 		::LeaveCriticalSection( &m_CritSec );

  00112	8d 47 78	 lea	 eax, DWORD PTR [edi+120]
; File C:\IAGOS\server\v18\Source\Source\_Network\Net\Include\buffer.h

; 232  : 	pBuffer->pNext	= NULL;

  00115	c7 86 1c 20 00
	00 00 00 00 00	 mov	 DWORD PTR [esi+8220], 0

; 234  : 	m_uCount++;

  0011f	ff 47 70	 inc	 DWORD PTR [edi+112]
; File C:\IAGOS\server\v18\Source\Source\_Network\Mcl\Include\CMclCritSec.h

; 39   : 		::LeaveCriticalSection( &m_CritSec );

  00122	50		 push	 eax
; File C:\IAGOS\server\v18\Source\Source\_Network\Net\Include\buffer.h

; 233  : 	m_pTail		= pBuffer;

  00123	89 77 6c	 mov	 DWORD PTR [edi+108], esi
; File C:\IAGOS\server\v18\Source\Source\_Network\Mcl\Include\CMclCritSec.h

; 39   : 		::LeaveCriticalSection( &m_CritSec );

  00126	ff 15 00 00 00
	00		 call	 DWORD PTR __imp__LeaveCriticalSection@4
; File C:\IAGOS\server\v18\Source\Source\_Network\Net\Src\DPSock.cpp

; 872  : 							SetEvent( pDPSock->GetRecvHandle() );

  0012c	ff 77 5c	 push	 DWORD PTR [edi+92]
  0012f	ff 15 00 00 00
	00		 call	 DWORD PTR __imp__SetEvent@4

; 873  : 						}

  00135	eb 15		 jmp	 SHORT $LN25@EventWorke
$LN22@EventWorke:

; 874  : 						else {
; 875  : 							SAFE_DELETE( pBuffer );

  00137	8b 06		 mov	 eax, DWORD PTR [esi]
  00139	8b ce		 mov	 ecx, esi
  0013b	6a 01		 push	 1
  0013d	ff 10		 call	 DWORD PTR [eax]

; 876  : 						}
; 877  : 					}

  0013f	eb 0b		 jmp	 SHORT $LN25@EventWorke
$LN20@EventWorke:

; 878  : 					else if( WSAGetLastError()
; 879  : 						==  ERROR_BAD_NET_NAME )

  00141	ff 15 00 00 00
	00		 call	 DWORD PTR __imp__WSAGetLastError@0
  00147	83 f8 43	 cmp	 eax, 67			; 00000043H
  0014a	74 37		 je	 SHORT $LN61@EventWorke
$LN25@EventWorke:

; 880  : 					{
; 881  : 						pDPSock->CloseConnection( hSocket );
; 882  : 						return 0;
; 883  : 					}
; 884  : 
; 885  : 					if( pClientSock->Recv() != 0 )	// i/o error

  0014c	8b cb		 mov	 ecx, ebx
  0014e	e8 00 00 00 00	 call	 ?Recv@CClientSockE@@QAEHXZ ; CClientSockE::Recv
  00153	85 c0		 test	 eax, eax
  00155	75 22		 jne	 SHORT $LN62@EventWorke

; 889  : 							pDPSock->CloseConnection( hSocket );
; 890  : 							return 0;
; 891  : //						}
; 892  : 					}
; 893  : 					break;

  00157	8b 75 e8	 mov	 esi, DWORD PTR _hSocket$1$[ebp]
  0015a	e9 e1 fe ff ff	 jmp	 $LL2@EventWorke
$LN58@EventWorke:

; 900  : 					{
; 901  : 						int err		= WSAGetLastError();

  0015f	ff 15 00 00 00
	00		 call	 DWORD PTR __imp__WSAGetLastError@0

; 902  : 						switch( err )
; 903  : 						{
; 904  : 							case ERROR_NETNAME_DELETED:
; 905  : 							case ERROR_OPERATION_ABORTED:
; 906  : 							case 0:
; 907  : 							case WSAENOTSOCK:
; 908  : 							default:
; 909  : 								{
; 910  : 									TRACE( "Close socket %d, %x //REF:%d\n", hSocket, pClientSock, pClientSock->m_l-1 );
; 911  : 									InterlockedDecrement( &pClientSock->m_l );

  00165	f0 ff 4b 48	 lock	  dec	 DWORD PTR [ebx+72]
$LN59@EventWorke:

; 923  : 					{
; 924  : //						if( pClientSock->m_l == 0 ) {
; 925  : 							pDPSock->RemoveThread( pClientSock->m_hWorker );
; 926  : 							pDPSock->CloseConnection( hSocket );
; 927  : 							return 0;
; 928  : //						}
; 929  : 					}
; 930  : 					break;
; 931  : 				}
; 932  : 		}
; 933  : 	}
; 934  : 	return 0;
; 935  : }

  00169	ff 73 44	 push	 DWORD PTR [ebx+68]
  0016c	8b cf		 mov	 ecx, edi
  0016e	e8 00 00 00 00	 call	 ?RemoveThread@CDPSock@@QAEXPAX@Z ; CDPSock::RemoveThread
  00173	8b 45 e8	 mov	 eax, DWORD PTR _hSocket$1$[ebp]
  00176	50		 push	 eax
  00177	eb 1a		 jmp	 SHORT $LN80@EventWorke
$LN62@EventWorke:

; 886  : 					{
; 887  : //						if( pClientSock->m_l == 0 ) {
; 888  : 							pDPSock->RemoveThread( pClientSock->m_hWorker );

  00179	ff 73 44	 push	 DWORD PTR [ebx+68]
  0017c	8b cf		 mov	 ecx, edi
  0017e	e8 00 00 00 00	 call	 ?RemoveThread@CDPSock@@QAEXPAX@Z ; CDPSock::RemoveThread
$LN61@EventWorke:

; 923  : 					{
; 924  : //						if( pClientSock->m_l == 0 ) {
; 925  : 							pDPSock->RemoveThread( pClientSock->m_hWorker );
; 926  : 							pDPSock->CloseConnection( hSocket );
; 927  : 							return 0;
; 928  : //						}
; 929  : 					}
; 930  : 					break;
; 931  : 				}
; 932  : 		}
; 933  : 	}
; 934  : 	return 0;
; 935  : }

  00183	ff 75 e8	 push	 DWORD PTR _hSocket$1$[ebp]
  00186	eb 0b		 jmp	 SHORT $LN80@EventWorke
$LN60@EventWorke:

; 831  : 					{
; 832  : 						int err		= WSAGetLastError();

  00188	ff 15 00 00 00
	00		 call	 DWORD PTR __imp__WSAGetLastError@0

; 833  : 						switch( err )
; 834  : 						{
; 835  : 							case ERROR_NETNAME_DELETED:
; 836  : 							case ERROR_OPERATION_ABORTED:
; 837  : 							case 0:
; 838  : 							case WSAENOTSOCK:
; 839  : 							default:
; 840  : 								{
; 841  : 									TRACE( "Close socket %d, %x //REF:%d\n", hSocket, pClientSock, pClientSock->m_l-1 );
; 842  : 									InterlockedDecrement( &pClientSock->m_l );

  0018e	f0 ff 4b 48	 lock	  dec	 DWORD PTR [ebx+72]

; 843  : //									if( pClientSock->m_l == 0 ) {
; 844  : //										pDPSock->RemoveThread( pClientSock->m_hWorker );
; 845  : 										pDPSock->CloseConnection( hSocket );

  00192	56		 push	 esi
$LN80@EventWorke:

; 923  : 					{
; 924  : //						if( pClientSock->m_l == 0 ) {
; 925  : 							pDPSock->RemoveThread( pClientSock->m_hWorker );
; 926  : 							pDPSock->CloseConnection( hSocket );
; 927  : 							return 0;
; 928  : //						}
; 929  : 					}
; 930  : 					break;
; 931  : 				}
; 932  : 		}
; 933  : 	}
; 934  : 	return 0;
; 935  : }

  00193	8b cf		 mov	 ecx, edi
  00195	e8 00 00 00 00	 call	 ?CloseConnection@CDPSock@@QAEXK@Z ; CDPSock::CloseConnection
$LN10@EventWorke:
  0019a	8b 4d fc	 mov	 ecx, DWORD PTR __$ArrayPad$[ebp]
  0019d	33 c0		 xor	 eax, eax
  0019f	5f		 pop	 edi
  001a0	5e		 pop	 esi
  001a1	33 cd		 xor	 ecx, ebp
  001a3	5b		 pop	 ebx
  001a4	e8 00 00 00 00	 call	 @__security_check_cookie@4
  001a9	8b e5		 mov	 esp, ebp
  001ab	5d		 pop	 ebp
  001ac	c2 04 00	 ret	 4
?EventWorkerThread@@YGIPAX@Z ENDP			; EventWorkerThread
_TEXT	ENDS
; Function compile flags: /Ogtp
; File C:\IAGOS\server\v18\Source\Source\_Network\Net\Src\DPSock.cpp
; File C:\IAGOS\server\v18\Source\Source\_Network\Net\Include\dpsock.h
; File C:\IAGOS\server\v18\Source\Source\_Network\Net\Src\DPSock.cpp
; File C:\IAGOS\server\v18\Source\Source\_Network\Net\Include\dpsock.h
; File C:\IAGOS\server\v18\Source\Source\_Network\Net\Src\DPSock.cpp
; File C:\IAGOS\server\v18\Source\Source\_Network\Net\Include\dpsock.h
; File C:\IAGOS\server\v18\Source\Source\_Network\Net\Src\DPSock.cpp
; File C:\IAGOS\server\v18\Source\Source\_Network\Net\Include\dpsock.h
; File C:\IAGOS\server\v18\Source\Source\_Network\Net\Src\DPSock.cpp
; File C:\IAGOS\server\v18\Source\Source\_Network\Mcl\Include\CMclCritSec.h
; File C:\IAGOS\server\v18\Source\Source\_Network\Net\Src\DPSock.cpp
; File C:\IAGOS\server\v18\Source\Source\_Network\Mcl\Include\CMclCritSec.h
; File C:\IAGOS\server\v18\Source\Source\_Network\Net\Src\DPSock.cpp
; File C:\IAGOS\server\v18\Source\Source\_Network\Net\Include\dpsock.h
; File C:\IAGOS\server\v18\Source\Source\_Network\Net\Src\DPSock.cpp
; File C:\IAGOS\server\v18\Source\Source\_Network\Mcl\Include\CMclCritSec.h
; File C:\IAGOS\server\v18\Source\Source\_Network\Net\Src\DPSock.cpp
; File C:\IAGOS\server\v18\Source\Source\_Network\Mcl\Include\CMclCritSec.h
; File C:\IAGOS\server\v18\Source\Source\_Network\Net\Include\buffer.h
; File C:\IAGOS\server\v18\Source\Source\_Network\Mcl\Include\CMclCritSec.h
; File C:\IAGOS\server\v18\Source\Source\_Network\Net\Include\buffer.h
; File C:\IAGOS\server\v18\Source\Source\_Network\Mcl\Include\CMclCritSec.h
; File C:\IAGOS\server\v18\Source\Source\_Network\Net\Include\buffer.h
; File C:\IAGOS\server\v18\Source\Source\_Network\Mcl\Include\CMclCritSec.h
; File C:\IAGOS\server\v18\Source\Source\_Network\Net\Src\DPSock.cpp
; File C:\IAGOS\server\v18\Source\Source\_Network\Mcl\Include\CMclCritSec.h
; File C:\IAGOS\server\v18\Source\Source\_Network\Net\Src\DPSock.cpp
; File C:\IAGOS\server\v18\Source\Source\_Network\Mcl\Include\CMclCritSec.h
; File C:\IAGOS\server\v18\Source\Source\_Network\Net\Src\DPSock.cpp
; File C:\IAGOS\server\v18\Source\Source\_Network\Net\Include\dpsock.h
; File C:\IAGOS\server\v18\Source\Source\_Network\Net\Src\DPSock.cpp
;	COMDAT ?IoWorkerThread@@YGIPAX@Z
_TEXT	SEGMENT
tv704 = -16						; size = 4
tv706 = -12						; size = 4
_lpov$ = -8						; size = 4
_dwBytes$ = -4						; size = 4
_lpvThreadParameter$ = 8				; size = 4
_hSocket$ = 8						; size = 4
?IoWorkerThread@@YGIPAX@Z PROC				; IoWorkerThread, COMDAT

; 580  : {

  00000	55		 push	 ebp
  00001	8b ec		 mov	 ebp, esp
  00003	83 ec 10	 sub	 esp, 16			; 00000010H
  00006	53		 push	 ebx
  00007	8b 5d 08	 mov	 ebx, DWORD PTR _lpvThreadParameter$[ebp]

; 581  : 	CDPSock* pDPSock	= (CDPSock*)lpvThreadParameter;
; 582  : 	SOCKET hSocket;
; 583  : 	DWORD dwBytes;
; 584  : 	CClientSock* pClientSock;
; 585  : 	LPOVERLAPPED lpov;
; 586  : 	BOOL fOk;
; 587  : 	long lIoWorker	= InterlockedIncrement( &pDPSock->m_lActiveIoWorker );

  0000a	b8 01 00 00 00	 mov	 eax, 1
  0000f	56		 push	 esi
  00010	57		 push	 edi
  00011	8d b3 94 00 00
	00		 lea	 esi, DWORD PTR [ebx+148]
  00017	89 75 f0	 mov	 DWORD PTR tv704[ebp], esi
  0001a	f0 0f c1 06	 lock	  xadd	 DWORD PTR [esi], eax
  0001e	40		 inc	 eax

; 590  : 		fOk		= GetQueuedCompletionStatus( pDPSock->GetCompletionPort( lIoWorker - 1 ), &dwBytes, (LPDWORD)&hSocket, &lpov, INFINITE );

  0001f	6a ff		 push	 -1
  00021	8d 55 f8	 lea	 edx, DWORD PTR _lpov$[ebp]
  00024	52		 push	 edx
; File C:\IAGOS\server\v18\Source\Source\_Network\Net\Include\dpsock.h

; 96   : 	{	return m_phCompletionPort[iIoWorker];	}

  00025	8d 0c 85 00 00
	00 00		 lea	 ecx, DWORD PTR [eax*4]
  0002c	8b 43 54	 mov	 eax, DWORD PTR [ebx+84]
; File C:\IAGOS\server\v18\Source\Source\_Network\Net\Src\DPSock.cpp

; 590  : 		fOk		= GetQueuedCompletionStatus( pDPSock->GetCompletionPort( lIoWorker - 1 ), &dwBytes, (LPDWORD)&hSocket, &lpov, INFINITE );

  0002f	8d 55 08	 lea	 edx, DWORD PTR _hSocket$[ebp]
; File C:\IAGOS\server\v18\Source\Source\_Network\Net\Include\dpsock.h

; 96   : 	{	return m_phCompletionPort[iIoWorker];	}

  00032	89 4d f4	 mov	 DWORD PTR tv706[ebp], ecx
; File C:\IAGOS\server\v18\Source\Source\_Network\Net\Src\DPSock.cpp

; 590  : 		fOk		= GetQueuedCompletionStatus( pDPSock->GetCompletionPort( lIoWorker - 1 ), &dwBytes, (LPDWORD)&hSocket, &lpov, INFINITE );

  00035	52		 push	 edx
  00036	8d 55 fc	 lea	 edx, DWORD PTR _dwBytes$[ebp]
  00039	52		 push	 edx
  0003a	ff 74 01 fc	 push	 DWORD PTR [ecx+eax-4]
  0003e	ff 15 00 00 00
	00		 call	 DWORD PTR __imp__GetQueuedCompletionStatus@20

; 591  : 		if( dwBytes == CLOSEIOWORKERMSG )

  00044	8b 4d fc	 mov	 ecx, DWORD PTR _dwBytes$[ebp]
  00047	8b f8		 mov	 edi, eax
  00049	83 f9 fe	 cmp	 ecx, -2			; fffffffeH
  0004c	0f 84 ce 01 00
	00		 je	 $LN95@IoWorkerTh
$LL2@IoWorkerTh:

; 594  : 			return( 0 );
; 595  : 		}
; 596  : 
; 597  : 		if( dwBytes == NEWSOCKETMSG )

  00052	83 f9 fd	 cmp	 ecx, -3			; fffffffdH
  00055	75 6a		 jne	 SHORT $LN7@IoWorkerTh
; File C:\IAGOS\server\v18\Source\Source\_Network\Net\Include\dpsock.h

; 92   : 	CSock*	GetServerSock( void )		{	return	( m_fServer? m_pSock: NULL );	}

  00057	83 bb 90 00 00
	00 00		 cmp	 DWORD PTR [ebx+144], 0
  0005e	74 12		 je	 SHORT $LN8@IoWorkerTh
  00060	8b 4b 04	 mov	 ecx, DWORD PTR [ebx+4]
; File C:\IAGOS\server\v18\Source\Source\_Network\Net\Src\DPSock.cpp

; 601  : 			if( pServerSock )

  00063	85 c9		 test	 ecx, ecx
  00065	74 0b		 je	 SHORT $LN8@IoWorkerTh

; 602  : 				pServerSock->AllocAndAssoc( hSocket, dwAddr );

  00067	ff 75 f8	 push	 DWORD PTR _lpov$[ebp]
  0006a	ff 75 08	 push	 DWORD PTR _hSocket$[ebp]
  0006d	e8 00 00 00 00	 call	 ?AllocAndAssoc@CServerSock@@QAEHIK@Z ; CServerSock::AllocAndAssoc
$LN8@IoWorkerTh:
; File C:\IAGOS\server\v18\Source\Source\_Network\Net\Include\dpsock.h

; 106  : 	{	return ( m_pSock? (CClientSock*)m_pSock->Get( hSocket ): NULL );	}

  00072	8b 4b 04	 mov	 ecx, DWORD PTR [ebx+4]
  00075	85 c9		 test	 ecx, ecx
  00077	74 0c		 je	 SHORT $LN47@IoWorkerTh
  00079	8b 01		 mov	 eax, DWORD PTR [ecx]
  0007b	ff 75 08	 push	 DWORD PTR _hSocket$[ebp]
  0007e	ff 50 2c	 call	 DWORD PTR [eax+44]
  00081	8b f0		 mov	 esi, eax
  00083	eb 02		 jmp	 SHORT $LN48@IoWorkerTh
$LN47@IoWorkerTh:
  00085	33 f6		 xor	 esi, esi
$LN48@IoWorkerTh:
; File C:\IAGOS\server\v18\Source\Source\_Network\Net\Src\DPSock.cpp

; 611  : 			CBuffer* pBuffer = pClientSock->CreateBuffer();

  00087	8b ce		 mov	 ecx, esi
  00089	e8 00 00 00 00	 call	 ?CreateBuffer@CClientSock@@QAEPAVCBuffer@@XZ ; CClientSock::CreateBuffer

; 612  : 			pDPSock->AddCreatePlayerOrGroupMsg( hSocket, pBuffer );

  0008e	50		 push	 eax
  0008f	ff 75 08	 push	 DWORD PTR _hSocket$[ebp]
  00092	8b cb		 mov	 ecx, ebx
  00094	e8 00 00 00 00	 call	 ?AddCreatePlayerOrGroupMsg@CDPSock@@QAEXKPAVCBuffer@@@Z ; CDPSock::AddCreatePlayerOrGroupMsg
; File C:\IAGOS\server\v18\Source\Source\_Network\Mcl\Include\CMclCritSec.h

; 33   : 		::EnterCriticalSection( &m_CritSec );

  00099	8d 7e 44	 lea	 edi, DWORD PTR [esi+68]
  0009c	57		 push	 edi
  0009d	ff 15 00 00 00
	00		 call	 DWORD PTR __imp__EnterCriticalSection@4
; File C:\IAGOS\server\v18\Source\Source\_Network\Net\Src\DPSock.cpp

; 615  : 			pClientSock->m_nReference++;

  000a3	ff 46 5c	 inc	 DWORD PTR [esi+92]

; 616  : 			if( pClientSock->Recv() != 0 )

  000a6	8b ce		 mov	 ecx, esi
  000a8	e8 00 00 00 00	 call	 ?Recv@CClientSock@@QAEHXZ ; CClientSock::Recv
  000ad	57		 push	 edi
  000ae	85 c0		 test	 eax, eax
  000b0	0f 85 0c 01 00
	00		 jne	 $LN121@IoWorkerTh
; File C:\IAGOS\server\v18\Source\Source\_Network\Mcl\Include\CMclCritSec.h

; 39   : 		::LeaveCriticalSection( &m_CritSec );

  000b6	ff 15 00 00 00
	00		 call	 DWORD PTR __imp__LeaveCriticalSection@4
; File C:\IAGOS\server\v18\Source\Source\_Network\Net\Src\DPSock.cpp

; 632  : 			continue;

  000bc	e9 22 01 00 00	 jmp	 $LN20@IoWorkerTh
$LN7@IoWorkerTh:
; File C:\IAGOS\server\v18\Source\Source\_Network\Net\Include\dpsock.h

; 106  : 	{	return ( m_pSock? (CClientSock*)m_pSock->Get( hSocket ): NULL );	}

  000c1	8b 4b 04	 mov	 ecx, DWORD PTR [ebx+4]
  000c4	85 c9		 test	 ecx, ecx
  000c6	0f 84 17 01 00
	00		 je	 $LN20@IoWorkerTh
  000cc	8b 01		 mov	 eax, DWORD PTR [ecx]
  000ce	ff 75 08	 push	 DWORD PTR _hSocket$[ebp]
  000d1	ff 50 2c	 call	 DWORD PTR [eax+44]
  000d4	8b f0		 mov	 esi, eax
; File C:\IAGOS\server\v18\Source\Source\_Network\Net\Src\DPSock.cpp

; 682  : 		if( !( pClientSock = pDPSock->Get( hSocket ) ) )

  000d6	85 f6		 test	 esi, esi
  000d8	0f 84 05 01 00
	00		 je	 $LN20@IoWorkerTh

; 683  : 			continue;
; 684  : 
; 685  : 		if( !fOk || dwBytes == 0 )	// When Connection Closed by peer gracefully or becoz of error

  000de	85 ff		 test	 edi, edi
  000e0	0f 84 cb 00 00
	00		 je	 $LN14@IoWorkerTh
  000e6	8b 4d fc	 mov	 ecx, DWORD PTR _dwBytes$[ebp]
  000e9	85 c9		 test	 ecx, ecx
  000eb	0f 84 c0 00 00
	00		 je	 $LN14@IoWorkerTh

; 689  : 			//TRACE( "GetLastError():%d\n", err );
; 690  : 
; 691  : 			switch( err )
; 692  : 			{
; 693  : 				case ERROR_NETNAME_DELETED:		//64
; 694  : 				case ERROR_OPERATION_ABORTED:
; 695  : 				case 0:
; 696  : 				case WSAENOTSOCK:	//10038
; 697  : 				default:
; 698  : 					{
; 699  : //						if( FALSE == fOk && NULL == lpov )	{}
; 700  : 						pClientSock->m_AccessLock.Enter();
; 701  : 						pClientSock->m_bDoNotWrite	= TRUE;
; 702  : 						int nReference	= --pClientSock->m_nReference;
; 703  : #ifdef __INFO_SOCKLIB0516
; 704  : 						pClientSock->m_dwDbgInfo	= err; // * 1000 + 3 * 100 + nReference * 10;
; 705  : #endif	// __INFO_SOCKLIB0516
; 706  : 						pClientSock->m_AccessLock.Leave();
; 707  : 						if( nReference == 0 )
; 708  : 							pDPSock->CloseConnection( hSocket );
; 709  : 						break;
; 710  : 					}
; 711  : 			}
; 712  : 			continue;
; 713  : 		}
; 714  : 
; 715  : 		if( &pClientSock->m_ovRecv == lpov )	// receive i/o completed

  000f1	8b 55 f8	 mov	 edx, DWORD PTR _lpov$[ebp]
  000f4	8d 46 14	 lea	 eax, DWORD PTR [esi+20]
  000f7	3b c2		 cmp	 eax, edx
  000f9	0f 85 8a 00 00
	00		 jne	 $LN21@IoWorkerTh

; 716  : 		{
; 717  : #ifdef __TRAFIC_1218
; 718  : /*
; 719  : 			if( pClientSock->IsCrcRead() )	// public
; 720  : 				pClientSock->AddTraficLog( dwBytes, CClientSock::read );
; 721  : */
; 722  : #endif	// __TRAFIC_1218
; 723  : 			CBuffer* pBuffer	= pClientSock->Fetch( dwBytes );

  000ff	51		 push	 ecx
  00100	8b ce		 mov	 ecx, esi
  00102	e8 00 00 00 00	 call	 ?Fetch@CClientSock@@QAEPAVCBuffer@@K@Z ; CClientSock::Fetch
  00107	8b f8		 mov	 edi, eax

; 724  : 			if( pBuffer )

  00109	85 ff		 test	 edi, edi
  0010b	74 64		 je	 SHORT $LN23@IoWorkerTh

; 725  : 			{
; 726  : 				if( pBuffer->cb > 0 ) {

  0010d	83 7f 08 00	 cmp	 DWORD PTR [edi+8], 0
  00111	76 54		 jbe	 SHORT $LN25@IoWorkerTh

; 740  : 					pBuffer->dpid	= hSocket;

  00113	8b 4d 08	 mov	 ecx, DWORD PTR _hSocket$[ebp]
; File C:\IAGOS\server\v18\Source\Source\_Network\Mcl\Include\CMclCritSec.h

; 33   : 		::EnterCriticalSection( &m_CritSec );

  00116	8d 43 78	 lea	 eax, DWORD PTR [ebx+120]
  00119	50		 push	 eax
; File C:\IAGOS\server\v18\Source\Source\_Network\Net\Src\DPSock.cpp

; 740  : 					pBuffer->dpid	= hSocket;

  0011a	89 4f 04	 mov	 DWORD PTR [edi+4], ecx
; File C:\IAGOS\server\v18\Source\Source\_Network\Mcl\Include\CMclCritSec.h

; 33   : 		::EnterCriticalSection( &m_CritSec );

  0011d	ff 15 00 00 00
	00		 call	 DWORD PTR __imp__EnterCriticalSection@4
; File C:\IAGOS\server\v18\Source\Source\_Network\Net\Include\buffer.h

; 227  : 	if( !m_pHead )

  00123	83 7b 68 00	 cmp	 DWORD PTR [ebx+104], 0
  00127	75 03		 jne	 SHORT $LN70@IoWorkerTh

; 228  : 		m_pHead		= pBuffer;

  00129	89 7b 68	 mov	 DWORD PTR [ebx+104], edi
$LN70@IoWorkerTh:

; 229  : 	if( m_pTail )

  0012c	8b 43 6c	 mov	 eax, DWORD PTR [ebx+108]
  0012f	85 c0		 test	 eax, eax
  00131	74 06		 je	 SHORT $LN71@IoWorkerTh

; 230  : 		m_pTail->pNext	= pBuffer;

  00133	89 b8 1c 20 00
	00		 mov	 DWORD PTR [eax+8220], edi
$LN71@IoWorkerTh:

; 231  : 	pBuffer->pPrevious	= m_pTail;

  00139	8b 43 6c	 mov	 eax, DWORD PTR [ebx+108]
  0013c	89 87 20 20 00
	00		 mov	 DWORD PTR [edi+8224], eax
; File C:\IAGOS\server\v18\Source\Source\_Network\Mcl\Include\CMclCritSec.h

; 39   : 		::LeaveCriticalSection( &m_CritSec );

  00142	8d 43 78	 lea	 eax, DWORD PTR [ebx+120]
; File C:\IAGOS\server\v18\Source\Source\_Network\Net\Include\buffer.h

; 232  : 	pBuffer->pNext	= NULL;

  00145	c7 87 1c 20 00
	00 00 00 00 00	 mov	 DWORD PTR [edi+8220], 0

; 234  : 	m_uCount++;

  0014f	ff 43 70	 inc	 DWORD PTR [ebx+112]
; File C:\IAGOS\server\v18\Source\Source\_Network\Mcl\Include\CMclCritSec.h

; 39   : 		::LeaveCriticalSection( &m_CritSec );

  00152	50		 push	 eax
; File C:\IAGOS\server\v18\Source\Source\_Network\Net\Include\buffer.h

; 233  : 	m_pTail		= pBuffer;

  00153	89 7b 6c	 mov	 DWORD PTR [ebx+108], edi
; File C:\IAGOS\server\v18\Source\Source\_Network\Mcl\Include\CMclCritSec.h

; 39   : 		::LeaveCriticalSection( &m_CritSec );

  00156	ff 15 00 00 00
	00		 call	 DWORD PTR __imp__LeaveCriticalSection@4
; File C:\IAGOS\server\v18\Source\Source\_Network\Net\Src\DPSock.cpp

; 742  : 					SetEvent( pDPSock->GetRecvHandle() );

  0015c	ff 73 5c	 push	 DWORD PTR [ebx+92]
  0015f	ff 15 00 00 00
	00		 call	 DWORD PTR __imp__SetEvent@4

; 743  : 				}

  00165	eb 15		 jmp	 SHORT $LN28@IoWorkerTh
$LN25@IoWorkerTh:

; 744  : 				else {
; 745  : 					SAFE_DELETE( pBuffer );

  00167	8b 07		 mov	 eax, DWORD PTR [edi]
  00169	8b cf		 mov	 ecx, edi
  0016b	6a 01		 push	 1
  0016d	ff 10		 call	 DWORD PTR [eax]

; 746  : 				}
; 747  : 			}

  0016f	eb 0b		 jmp	 SHORT $LN28@IoWorkerTh
$LN23@IoWorkerTh:

; 748  : 			else if( WSAGetLastError()
; 749  : 				==  ERROR_BAD_NET_NAME )

  00171	ff 15 00 00 00
	00		 call	 DWORD PTR __imp__WSAGetLastError@0
  00177	83 f8 43	 cmp	 eax, 67			; 00000043H
  0017a	74 5d		 je	 SHORT $LN122@IoWorkerTh
$LN28@IoWorkerTh:

; 750  : 			{
; 751  : 				pDPSock->CloseConnection( hSocket );
; 752  : 				continue;
; 753  : 			}
; 754  : 
; 755  : 
; 756  : 			if( pClientSock->Recv() != 0 )	// i/o error

  0017c	8b ce		 mov	 ecx, esi
  0017e	e8 00 00 00 00	 call	 ?Recv@CClientSock@@QAEHXZ ; CClientSock::Recv
  00183	85 c0		 test	 eax, eax
  00185	74 5c		 je	 SHORT $LN20@IoWorkerTh

; 757  : 			{
; 758  : 				pClientSock->m_AccessLock.Enter();
; 759  : 				pClientSock->m_bDoNotWrite	= TRUE;
; 760  : 				int nReference	= --pClientSock->m_nReference;
; 761  : //				TRACE( "I/o error %d, %d // REF:%d\n", pClientSock->GetHandle(), WSAGetLastError(), lRef );
; 762  : #ifdef __INFO_SOCKLIB0516
; 763  : 				pClientSock->m_dwDbgInfo	= WSAGetLastError(); // * 1000 + 4 * 100 + nReference * 10;
; 764  : #endif	// __INFO_SOCKLIB0516
; 765  : 				pClientSock->m_AccessLock.Leave();
; 766  : 				if( nReference == 0 )
; 767  : 					pDPSock->CloseConnection( hSocket );
; 768  : 			}
; 769  : 		}

  00187	eb 2e		 jmp	 SHORT $LN123@IoWorkerTh
$LN21@IoWorkerTh:

; 770  : 		else if( &pClientSock->m_ovSend == lpov )	// send i/o completed

  00189	8d 46 28	 lea	 eax, DWORD PTR [esi+40]
  0018c	3b c2		 cmp	 eax, edx
  0018e	75 53		 jne	 SHORT $LN20@IoWorkerTh
; File C:\IAGOS\server\v18\Source\Source\_Network\Mcl\Include\CMclCritSec.h

; 33   : 		::EnterCriticalSection( &m_CritSec );

  00190	8d 7e 44	 lea	 edi, DWORD PTR [esi+68]
  00193	57		 push	 edi
  00194	ff 15 00 00 00
	00		 call	 DWORD PTR __imp__EnterCriticalSection@4
; File C:\IAGOS\server\v18\Source\Source\_Network\Net\Src\DPSock.cpp

; 779  : 			if( pClientSock->SendRemnant( dwBytes ) != 0 )

  0019a	ff 75 fc	 push	 DWORD PTR _dwBytes$[ebp]
  0019d	8b ce		 mov	 ecx, esi
  0019f	e8 00 00 00 00	 call	 ?SendRemnant@CClientSock@@QAEHK@Z ; CClientSock::SendRemnant
  001a4	57		 push	 edi
  001a5	85 c0		 test	 eax, eax
  001a7	75 19		 jne	 SHORT $LN121@IoWorkerTh
; File C:\IAGOS\server\v18\Source\Source\_Network\Mcl\Include\CMclCritSec.h

; 39   : 		::LeaveCriticalSection( &m_CritSec );

  001a9	ff 15 00 00 00
	00		 call	 DWORD PTR __imp__LeaveCriticalSection@4
; File C:\IAGOS\server\v18\Source\Source\_Network\Net\Src\DPSock.cpp

; 796  : 	}

  001af	eb 32		 jmp	 SHORT $LN20@IoWorkerTh
$LN14@IoWorkerTh:

; 686  : 		{
; 687  : 
; 688  : 			int err		=  GetLastError();

  001b1	ff 15 00 00 00
	00		 call	 DWORD PTR __imp__GetLastError@0
$LN123@IoWorkerTh:
; File C:\IAGOS\server\v18\Source\Source\_Network\Net\Include\dpsock.h

; 96   : 	{	return m_phCompletionPort[iIoWorker];	}

  001b7	8d 7e 44	 lea	 edi, DWORD PTR [esi+68]
  001ba	57		 push	 edi
  001bb	ff 15 00 00 00
	00		 call	 DWORD PTR __imp__EnterCriticalSection@4
  001c1	57		 push	 edi
$LN121@IoWorkerTh:
  001c2	c7 46 3c 01 00
	00 00		 mov	 DWORD PTR [esi+60], 1
  001c9	ff 4e 5c	 dec	 DWORD PTR [esi+92]
  001cc	8b 76 5c	 mov	 esi, DWORD PTR [esi+92]
  001cf	ff 15 00 00 00
	00		 call	 DWORD PTR __imp__LeaveCriticalSection@4
  001d5	85 f6		 test	 esi, esi
  001d7	75 0a		 jne	 SHORT $LN20@IoWorkerTh
$LN122@IoWorkerTh:
  001d9	ff 75 08	 push	 DWORD PTR _hSocket$[ebp]
  001dc	8b cb		 mov	 ecx, ebx
  001de	e8 00 00 00 00	 call	 ?CloseConnection@CDPSock@@QAEXK@Z ; CDPSock::CloseConnection
$LN20@IoWorkerTh:
  001e3	8b 43 54	 mov	 eax, DWORD PTR [ebx+84]
; File C:\IAGOS\server\v18\Source\Source\_Network\Net\Src\DPSock.cpp

; 590  : 		fOk		= GetQueuedCompletionStatus( pDPSock->GetCompletionPort( lIoWorker - 1 ), &dwBytes, (LPDWORD)&hSocket, &lpov, INFINITE );

  001e6	8d 4d f8	 lea	 ecx, DWORD PTR _lpov$[ebp]
  001e9	6a ff		 push	 -1
  001eb	51		 push	 ecx
  001ec	8d 4d 08	 lea	 ecx, DWORD PTR _hSocket$[ebp]
  001ef	51		 push	 ecx
  001f0	8d 4d fc	 lea	 ecx, DWORD PTR _dwBytes$[ebp]
  001f3	51		 push	 ecx
  001f4	8b 4d f4	 mov	 ecx, DWORD PTR tv706[ebp]
  001f7	ff 74 08 fc	 push	 DWORD PTR [eax+ecx-4]
  001fb	ff 15 00 00 00
	00		 call	 DWORD PTR __imp__GetQueuedCompletionStatus@20

; 591  : 		if( dwBytes == CLOSEIOWORKERMSG )

  00201	8b 4d fc	 mov	 ecx, DWORD PTR _dwBytes$[ebp]
  00204	8b f8		 mov	 edi, eax
  00206	83 f9 fe	 cmp	 ecx, -2			; fffffffeH
  00209	0f 85 43 fe ff
	ff		 jne	 $LL2@IoWorkerTh

; 592  : 		{
; 593  : 			InterlockedDecrement( &pDPSock->m_lActiveIoWorker );

  0020f	8b 45 f0	 mov	 eax, DWORD PTR tv704[ebp]
  00212	f0 ff 08	 lock	  dec	 DWORD PTR [eax]
  00215	5f		 pop	 edi

; 797  : 	return( 0 );
; 798  : }

  00216	5e		 pop	 esi
  00217	33 c0		 xor	 eax, eax
  00219	5b		 pop	 ebx
  0021a	8b e5		 mov	 esp, ebp
  0021c	5d		 pop	 ebp
  0021d	c2 04 00	 ret	 4
$LN95@IoWorkerTh:

; 592  : 		{
; 593  : 			InterlockedDecrement( &pDPSock->m_lActiveIoWorker );

  00220	f0 ff 0e	 lock	  dec	 DWORD PTR [esi]
  00223	5f		 pop	 edi

; 797  : 	return( 0 );
; 798  : }

  00224	5e		 pop	 esi
  00225	33 c0		 xor	 eax, eax
  00227	5b		 pop	 ebx
  00228	8b e5		 mov	 esp, ebp
  0022a	5d		 pop	 ebp
  0022b	c2 04 00	 ret	 4
?IoWorkerThread@@YGIPAX@Z ENDP				; IoWorkerThread
_TEXT	ENDS
; Function compile flags: /Ogtp
;	COMDAT ??_GCDPSock@@UAEPAXI@Z
_TEXT	SEGMENT
___flags$ = 8						; size = 4
??_GCDPSock@@UAEPAXI@Z PROC				; CDPSock::`scalar deleting destructor', COMDAT
; _this$ = ecx
  00000	55		 push	 ebp
  00001	8b ec		 mov	 ebp, esp
  00003	56		 push	 esi
  00004	8b f1		 mov	 esi, ecx
  00006	e8 00 00 00 00	 call	 ??1CDPSock@@UAE@XZ	; CDPSock::~CDPSock
  0000b	f6 45 08 01	 test	 BYTE PTR ___flags$[ebp], 1
  0000f	74 0e		 je	 SHORT $LN5@scalar
  00011	68 98 00 00 00	 push	 152			; 00000098H
  00016	56		 push	 esi
  00017	e8 00 00 00 00	 call	 ??3@YAXPAXI@Z		; operator delete
  0001c	83 c4 08	 add	 esp, 8
$LN5@scalar:
  0001f	8b c6		 mov	 eax, esi
  00021	5e		 pop	 esi
  00022	5d		 pop	 ebp
  00023	c2 04 00	 ret	 4
??_GCDPSock@@UAEPAXI@Z ENDP				; CDPSock::`scalar deleting destructor'
_TEXT	ENDS
; Function compile flags: /Ogtp
; File C:\IAGOS\server\v18\Source\Source\_Network\Net\Src\DPSock.cpp
; File C:\IAGOS\server\v18\Source\Source\_Network\Mcl\Include\CMclCritSec.h
; File C:\IAGOS\server\v18\Source\Source\_Network\Net\Src\DPSock.cpp
; File C:\IAGOS\server\v18\Source\Source\_Network\Mcl\Include\CMclCritSec.h
; File C:\IAGOS\server\v18\Source\Source\_Network\Net\Src\DPSock.cpp
; File C:\IAGOS\server\v18\Source\Source\_Network\Mcl\Include\CMclCritSec.h
; File C:\IAGOS\server\v18\Source\Source\_Network\Net\Include\buffer.h
; File C:\IAGOS\server\v18\Source\Source\_Network\Mcl\Include\CMclCritSec.h
; File C:\IAGOS\server\v18\Source\Source\_Network\Net\Include\buffer.h
; File C:\IAGOS\server\v18\Source\Source\_Network\Mcl\Include\CMclCritSec.h
; File C:\IAGOS\server\v18\Source\Source\_Network\Net\Src\DPSock.cpp
;	COMDAT ?AddDestroyPlayerOrGroupMsg@CDPSock@@QAEXKPAVCBuffer@@@Z
_TEXT	SEGMENT
_destroyPlayer$ = -52					; size = 52
_dpid$ = 8						; size = 4
_pBuffer$ = 12						; size = 4
?AddDestroyPlayerOrGroupMsg@CDPSock@@QAEXKPAVCBuffer@@@Z PROC ; CDPSock::AddDestroyPlayerOrGroupMsg, COMDAT
; _this$ = ecx

; 526  : {

  00000	55		 push	 ebp
  00001	8b ec		 mov	 ebp, esp
  00003	83 ec 34	 sub	 esp, 52			; 00000034H

; 527  : 	DPMSG_DESTROYPLAYERORGROUP destroyPlayer;
; 528  : 
; 529  : 	ZeroMemory( (void*)&destroyPlayer, sizeof(DPMSG_DESTROYPLAYERORGROUP) );
; 530  : 	destroyPlayer.dwType	= DPSYS_DESTROYPLAYERORGROUP;
; 531  : 	destroyPlayer.dwPlayerType	= DPPLAYERTYPE_PLAYER;	
; 532  : 	destroyPlayer.dpId	= dpid;		

  00006	8b 45 08	 mov	 eax, DWORD PTR _dpid$[ebp]
  00009	0f 57 c0	 xorps	 xmm0, xmm0
  0000c	53		 push	 ebx
  0000d	56		 push	 esi
  0000e	57		 push	 edi

; 533  : 	destroyPlayer.dpIdParent	= DPID_SERVERPLAYER;	
; 534  : #ifdef __INFO_SOCKLIB0516
; 535  : 	destroyPlayer.dwFlags = GetDebugInfo( dpid );
; 536  : #endif
; 537  : 	pBuffer->dpid	= DPID_SYSMSG;

  0000f	8b 7d 0c	 mov	 edi, DWORD PTR _pBuffer$[ebp]
  00012	8b f1		 mov	 esi, ecx
  00014	89 45 d4	 mov	 DWORD PTR _destroyPlayer$[ebp+8], eax

; 538  : 	pBuffer->cb++;
; 539  : 
; 540  : #ifdef __CRC
; 541  : 	*pBuffer->m_pTail	= SYSHEADERMARK;	
; 542  : 	pBuffer->m_pTail++;
; 543  : 
; 544  : #ifdef __PACKET_REPLAY_R
; 545  : 	if( m_dwDataSizeOffset != sizeof(char) )
; 546  : 		pBuffer->m_pTail	+= sizeof(int) + sizeof(DWORD);	// + 4
; 547  : #else	// __PACKET_REPLAY_R
; 548  : 	if( m_dwDataSizeOffset != sizeof(char) )
; 549  : 		pBuffer->m_pTail	+= sizeof(DWORD);	// + 4
; 550  : #endif	// __PACKET_REPLAY_R
; 551  : 
; 552  : 	*(UNALIGNED DWORD*)pBuffer->m_pTail	= sizeof(DPMSG_DESTROYPLAYERORGROUP);
; 553  : 	pBuffer->m_pTail	+= sizeof(DWORD);
; 554  : 
; 555  : 	if( m_dwDataSizeOffset != sizeof(char) )
; 556  : 		pBuffer->m_pTail	+= sizeof(DWORD);	// + 4
; 557  : #else
; 558  : 	pBuffer->SetHeader( sizeof(DPMSG_DESTROYPLAYERORGROUP) );

  00017	8b cf		 mov	 ecx, edi
  00019	6a 34		 push	 52			; 00000034H
  0001b	66 0f 13 45 d8	 movlpd	 QWORD PTR _destroyPlayer$[ebp+12], xmm0
  00020	8b 07		 mov	 eax, DWORD PTR [edi]
  00022	ff 47 08	 inc	 DWORD PTR [edi+8]
  00025	66 0f 13 45 e0	 movlpd	 QWORD PTR _destroyPlayer$[ebp+20], xmm0
  0002a	66 0f 13 45 e8	 movlpd	 QWORD PTR _destroyPlayer$[ebp+28], xmm0
  0002f	66 0f 13 45 f0	 movlpd	 QWORD PTR _destroyPlayer$[ebp+36], xmm0
  00034	c7 45 cc 05 00
	00 00		 mov	 DWORD PTR _destroyPlayer$[ebp], 5
  0003b	c7 45 d0 01 00
	00 00		 mov	 DWORD PTR _destroyPlayer$[ebp+4], 1
  00042	c7 45 f8 01 00
	00 00		 mov	 DWORD PTR _destroyPlayer$[ebp+44], 1
  00049	c7 47 04 00 00
	00 00		 mov	 DWORD PTR [edi+4], 0
  00050	ff 50 08	 call	 DWORD PTR [eax+8]

; 561  : 	memcpy( pBuffer->m_pTail, (LPBYTE)&destroyPlayer, sizeof(DPMSG_DESTROYPLAYERORGROUP) );

  00053	8b 87 18 20 00
	00		 mov	 eax, DWORD PTR [edi+8216]
; File C:\IAGOS\server\v18\Source\Source\_Network\Mcl\Include\CMclCritSec.h

; 33   : 		::EnterCriticalSection( &m_CritSec );

  00059	8d 5e 78	 lea	 ebx, DWORD PTR [esi+120]
; File C:\IAGOS\server\v18\Source\Source\_Network\Net\Src\DPSock.cpp

; 561  : 	memcpy( pBuffer->m_pTail, (LPBYTE)&destroyPlayer, sizeof(DPMSG_DESTROYPLAYERORGROUP) );

  0005c	0f 10 45 cc	 movups	 xmm0, XMMWORD PTR _destroyPlayer$[ebp]
; File C:\IAGOS\server\v18\Source\Source\_Network\Mcl\Include\CMclCritSec.h

; 33   : 		::EnterCriticalSection( &m_CritSec );

  00060	53		 push	 ebx
; File C:\IAGOS\server\v18\Source\Source\_Network\Net\Src\DPSock.cpp

; 561  : 	memcpy( pBuffer->m_pTail, (LPBYTE)&destroyPlayer, sizeof(DPMSG_DESTROYPLAYERORGROUP) );

  00061	0f 11 00	 movups	 XMMWORD PTR [eax], xmm0
  00064	0f 10 45 dc	 movups	 xmm0, XMMWORD PTR _destroyPlayer$[ebp+16]
  00068	0f 11 40 10	 movups	 XMMWORD PTR [eax+16], xmm0
  0006c	0f 10 45 ec	 movups	 xmm0, XMMWORD PTR _destroyPlayer$[ebp+32]
  00070	0f 11 40 20	 movups	 XMMWORD PTR [eax+32], xmm0
  00074	c7 40 30 00 00
	00 00		 mov	 DWORD PTR [eax+48], 0

; 562  : 	pBuffer->m_pTail	+= sizeof(DPMSG_DESTROYPLAYERORGROUP);	

  0007b	83 87 18 20 00
	00 34		 add	 DWORD PTR [edi+8216], 52 ; 00000034H
; File C:\IAGOS\server\v18\Source\Source\_Network\Mcl\Include\CMclCritSec.h

; 33   : 		::EnterCriticalSection( &m_CritSec );

  00082	ff 15 00 00 00
	00		 call	 DWORD PTR __imp__EnterCriticalSection@4
; File C:\IAGOS\server\v18\Source\Source\_Network\Net\Include\buffer.h

; 227  : 	if( !m_pHead )

  00088	83 7e 68 00	 cmp	 DWORD PTR [esi+104], 0
  0008c	75 03		 jne	 SHORT $LN4@AddDestroy

; 228  : 		m_pHead		= pBuffer;

  0008e	89 7e 68	 mov	 DWORD PTR [esi+104], edi
$LN4@AddDestroy:

; 229  : 	if( m_pTail )

  00091	8b 46 6c	 mov	 eax, DWORD PTR [esi+108]
  00094	85 c0		 test	 eax, eax
  00096	74 06		 je	 SHORT $LN5@AddDestroy

; 230  : 		m_pTail->pNext	= pBuffer;

  00098	89 b8 1c 20 00
	00		 mov	 DWORD PTR [eax+8220], edi
$LN5@AddDestroy:

; 231  : 	pBuffer->pPrevious	= m_pTail;

  0009e	8b 46 6c	 mov	 eax, DWORD PTR [esi+108]
  000a1	89 87 20 20 00
	00		 mov	 DWORD PTR [edi+8224], eax

; 232  : 	pBuffer->pNext	= NULL;

  000a7	c7 87 1c 20 00
	00 00 00 00 00	 mov	 DWORD PTR [edi+8220], 0

; 234  : 	m_uCount++;

  000b1	ff 46 70	 inc	 DWORD PTR [esi+112]
; File C:\IAGOS\server\v18\Source\Source\_Network\Mcl\Include\CMclCritSec.h

; 39   : 		::LeaveCriticalSection( &m_CritSec );

  000b4	53		 push	 ebx
; File C:\IAGOS\server\v18\Source\Source\_Network\Net\Include\buffer.h

; 233  : 	m_pTail		= pBuffer;

  000b5	89 7e 6c	 mov	 DWORD PTR [esi+108], edi
; File C:\IAGOS\server\v18\Source\Source\_Network\Mcl\Include\CMclCritSec.h

; 39   : 		::LeaveCriticalSection( &m_CritSec );

  000b8	ff 15 00 00 00
	00		 call	 DWORD PTR __imp__LeaveCriticalSection@4
; File C:\IAGOS\server\v18\Source\Source\_Network\Net\Src\DPSock.cpp

; 565  : 	SetEvent( m_hRecv );

  000be	ff 76 5c	 push	 DWORD PTR [esi+92]
  000c1	ff 15 00 00 00
	00		 call	 DWORD PTR __imp__SetEvent@4
  000c7	5f		 pop	 edi
  000c8	5e		 pop	 esi
  000c9	5b		 pop	 ebx

; 566  : }

  000ca	8b e5		 mov	 esp, ebp
  000cc	5d		 pop	 ebp
  000cd	c2 08 00	 ret	 8
?AddDestroyPlayerOrGroupMsg@CDPSock@@QAEXKPAVCBuffer@@@Z ENDP ; CDPSock::AddDestroyPlayerOrGroupMsg
_TEXT	ENDS
; Function compile flags: /Ogtp
; File C:\IAGOS\server\v18\Source\Source\_Network\Net\Src\DPSock.cpp
; File C:\IAGOS\server\v18\Source\Source\_Network\Mcl\Include\CMclCritSec.h
; File C:\IAGOS\server\v18\Source\Source\_Network\Net\Src\DPSock.cpp
; File C:\IAGOS\server\v18\Source\Source\_Network\Mcl\Include\CMclCritSec.h
; File C:\IAGOS\server\v18\Source\Source\_Network\Net\Src\DPSock.cpp
; File C:\IAGOS\server\v18\Source\Source\_Network\Mcl\Include\CMclCritSec.h
; File C:\IAGOS\server\v18\Source\Source\_Network\Net\Include\buffer.h
; File C:\IAGOS\server\v18\Source\Source\_Network\Mcl\Include\CMclCritSec.h
; File C:\IAGOS\server\v18\Source\Source\_Network\Net\Include\buffer.h
; File C:\IAGOS\server\v18\Source\Source\_Network\Mcl\Include\CMclCritSec.h
; File C:\IAGOS\server\v18\Source\Source\_Network\Net\Src\DPSock.cpp
;	COMDAT ?AddCreatePlayerOrGroupMsg@CDPSock@@QAEXKPAVCBuffer@@@Z
_TEXT	SEGMENT
_createPlayer$ = -48					; size = 48
_dpid$ = 8						; size = 4
_pBuffer$ = 12						; size = 4
?AddCreatePlayerOrGroupMsg@CDPSock@@QAEXKPAVCBuffer@@@Z PROC ; CDPSock::AddCreatePlayerOrGroupMsg, COMDAT
; _this$ = ecx

; 485  : {

  00000	55		 push	 ebp
  00001	8b ec		 mov	 ebp, esp
  00003	83 ec 30	 sub	 esp, 48			; 00000030H

; 486  : 	DPMSG_CREATEPLAYERORGROUP createPlayer;
; 487  : 	
; 488  : 	ZeroMemory( (void*)&createPlayer, sizeof(DPMSG_CREATEPLAYERORGROUP) );
; 489  : 	createPlayer.dwType	= DPSYS_CREATEPLAYERORGROUP;	
; 490  : 	createPlayer.dwPlayerType	= DPPLAYERTYPE_PLAYER;	
; 491  : 	createPlayer.dpId	= dpid;	

  00006	8b 45 08	 mov	 eax, DWORD PTR _dpid$[ebp]
  00009	0f 57 c0	 xorps	 xmm0, xmm0
  0000c	53		 push	 ebx
  0000d	56		 push	 esi
  0000e	57		 push	 edi

; 492  : 	createPlayer.dpIdParent	= DPID_SERVERPLAYER;
; 493  : 	
; 494  : 	pBuffer->dpid	= DPID_SYSMSG;

  0000f	8b 7d 0c	 mov	 edi, DWORD PTR _pBuffer$[ebp]
  00012	8b f1		 mov	 esi, ecx
  00014	89 45 d8	 mov	 DWORD PTR _createPlayer$[ebp+8], eax

; 495  : 	pBuffer->cb++;
; 496  : 
; 497  : #ifdef __CRC
; 498  : 	*pBuffer->m_pTail	= SYSHEADERMARK;	
; 499  : 	pBuffer->m_pTail++;
; 500  : 
; 501  : #ifdef __PACKET_REPLAY_R
; 502  : 	if( m_dwDataSizeOffset != sizeof(char) )
; 503  : 		pBuffer->m_pTail	+= sizeof(int) + sizeof(DWORD);	// + 4 + 4
; 504  : #else	// __PACKET_REPLAY_R
; 505  : 	if( m_dwDataSizeOffset != sizeof(char) )
; 506  : 		pBuffer->m_pTail	+= sizeof(DWORD);	// + 4
; 507  : #endif	// __PACKET_REPLAY_R
; 508  : 
; 509  : 	*(UNALIGNED DWORD*)pBuffer->m_pTail	= sizeof(DPMSG_CREATEPLAYERORGROUP);
; 510  : 	pBuffer->m_pTail	+= sizeof(DWORD);
; 511  : 
; 512  : 	if( m_dwDataSizeOffset != sizeof(char) )
; 513  : 		pBuffer->m_pTail	+= sizeof(DWORD);	// + 4
; 514  : #else	
; 515  : 	pBuffer->SetHeader( sizeof(DPMSG_CREATEPLAYERORGROUP) );

  00017	8b cf		 mov	 ecx, edi
  00019	6a 30		 push	 48			; 00000030H
  0001b	66 0f 13 45 dc	 movlpd	 QWORD PTR _createPlayer$[ebp+12], xmm0
  00020	8b 07		 mov	 eax, DWORD PTR [edi]
  00022	ff 47 08	 inc	 DWORD PTR [edi+8]
  00025	66 0f 13 45 e4	 movlpd	 QWORD PTR _createPlayer$[ebp+20], xmm0
  0002a	66 0f 13 45 ec	 movlpd	 QWORD PTR _createPlayer$[ebp+28], xmm0
  0002f	c7 45 f4 00 00
	00 00		 mov	 DWORD PTR _createPlayer$[ebp+36], 0
  00036	c7 45 fc 00 00
	00 00		 mov	 DWORD PTR _createPlayer$[ebp+44], 0
  0003d	c7 45 d0 03 00
	00 00		 mov	 DWORD PTR _createPlayer$[ebp], 3
  00044	c7 45 d4 01 00
	00 00		 mov	 DWORD PTR _createPlayer$[ebp+4], 1
  0004b	c7 45 f8 01 00
	00 00		 mov	 DWORD PTR _createPlayer$[ebp+40], 1
  00052	c7 47 04 00 00
	00 00		 mov	 DWORD PTR [edi+4], 0
  00059	ff 50 08	 call	 DWORD PTR [eax+8]

; 518  : 	memcpy( pBuffer->m_pTail, (LPBYTE)&createPlayer, sizeof(DPMSG_CREATEPLAYERORGROUP) );

  0005c	8b 87 18 20 00
	00		 mov	 eax, DWORD PTR [edi+8216]
; File C:\IAGOS\server\v18\Source\Source\_Network\Mcl\Include\CMclCritSec.h

; 33   : 		::EnterCriticalSection( &m_CritSec );

  00062	8d 5e 78	 lea	 ebx, DWORD PTR [esi+120]
; File C:\IAGOS\server\v18\Source\Source\_Network\Net\Src\DPSock.cpp

; 518  : 	memcpy( pBuffer->m_pTail, (LPBYTE)&createPlayer, sizeof(DPMSG_CREATEPLAYERORGROUP) );

  00065	0f 10 45 d0	 movups	 xmm0, XMMWORD PTR _createPlayer$[ebp]
; File C:\IAGOS\server\v18\Source\Source\_Network\Mcl\Include\CMclCritSec.h

; 33   : 		::EnterCriticalSection( &m_CritSec );

  00069	53		 push	 ebx
; File C:\IAGOS\server\v18\Source\Source\_Network\Net\Src\DPSock.cpp

; 518  : 	memcpy( pBuffer->m_pTail, (LPBYTE)&createPlayer, sizeof(DPMSG_CREATEPLAYERORGROUP) );

  0006a	0f 11 00	 movups	 XMMWORD PTR [eax], xmm0
  0006d	0f 10 45 e0	 movups	 xmm0, XMMWORD PTR _createPlayer$[ebp+16]
  00071	0f 11 40 10	 movups	 XMMWORD PTR [eax+16], xmm0
  00075	0f 10 45 f0	 movups	 xmm0, XMMWORD PTR _createPlayer$[ebp+32]
  00079	0f 11 40 20	 movups	 XMMWORD PTR [eax+32], xmm0

; 519  : 	pBuffer->m_pTail	+= sizeof(DPMSG_CREATEPLAYERORGROUP);	

  0007d	83 87 18 20 00
	00 30		 add	 DWORD PTR [edi+8216], 48 ; 00000030H
; File C:\IAGOS\server\v18\Source\Source\_Network\Mcl\Include\CMclCritSec.h

; 33   : 		::EnterCriticalSection( &m_CritSec );

  00084	ff 15 00 00 00
	00		 call	 DWORD PTR __imp__EnterCriticalSection@4
; File C:\IAGOS\server\v18\Source\Source\_Network\Net\Include\buffer.h

; 227  : 	if( !m_pHead )

  0008a	83 7e 68 00	 cmp	 DWORD PTR [esi+104], 0
  0008e	75 03		 jne	 SHORT $LN4@AddCreateP

; 228  : 		m_pHead		= pBuffer;

  00090	89 7e 68	 mov	 DWORD PTR [esi+104], edi
$LN4@AddCreateP:

; 229  : 	if( m_pTail )

  00093	8b 46 6c	 mov	 eax, DWORD PTR [esi+108]
  00096	85 c0		 test	 eax, eax
  00098	74 06		 je	 SHORT $LN5@AddCreateP

; 230  : 		m_pTail->pNext	= pBuffer;

  0009a	89 b8 1c 20 00
	00		 mov	 DWORD PTR [eax+8220], edi
$LN5@AddCreateP:

; 231  : 	pBuffer->pPrevious	= m_pTail;

  000a0	8b 46 6c	 mov	 eax, DWORD PTR [esi+108]
  000a3	89 87 20 20 00
	00		 mov	 DWORD PTR [edi+8224], eax

; 232  : 	pBuffer->pNext	= NULL;

  000a9	c7 87 1c 20 00
	00 00 00 00 00	 mov	 DWORD PTR [edi+8220], 0

; 234  : 	m_uCount++;

  000b3	ff 46 70	 inc	 DWORD PTR [esi+112]
; File C:\IAGOS\server\v18\Source\Source\_Network\Mcl\Include\CMclCritSec.h

; 39   : 		::LeaveCriticalSection( &m_CritSec );

  000b6	53		 push	 ebx
; File C:\IAGOS\server\v18\Source\Source\_Network\Net\Include\buffer.h

; 233  : 	m_pTail		= pBuffer;

  000b7	89 7e 6c	 mov	 DWORD PTR [esi+108], edi
; File C:\IAGOS\server\v18\Source\Source\_Network\Mcl\Include\CMclCritSec.h

; 39   : 		::LeaveCriticalSection( &m_CritSec );

  000ba	ff 15 00 00 00
	00		 call	 DWORD PTR __imp__LeaveCriticalSection@4
; File C:\IAGOS\server\v18\Source\Source\_Network\Net\Src\DPSock.cpp

; 522  : 	SetEvent( m_hRecv );

  000c0	ff 76 5c	 push	 DWORD PTR [esi+92]
  000c3	ff 15 00 00 00
	00		 call	 DWORD PTR __imp__SetEvent@4
  000c9	5f		 pop	 edi
  000ca	5e		 pop	 esi
  000cb	5b		 pop	 ebx

; 523  : }

  000cc	8b e5		 mov	 esp, ebp
  000ce	5d		 pop	 ebp
  000cf	c2 08 00	 ret	 8
?AddCreatePlayerOrGroupMsg@CDPSock@@QAEXKPAVCBuffer@@@Z ENDP ; CDPSock::AddCreatePlayerOrGroupMsg
_TEXT	ENDS
; Function compile flags: /Ogtp
; File C:\IAGOS\server\v18\Source\Source\_Network\Net\Src\DPSock.cpp
; File C:\IAGOS\server\v18\Source\Source\_Network\Mcl\Include\CMclCritSec.h
; File C:\IAGOS\server\v18\Source\Source\_Network\Net\Src\DPSock.cpp
; File C:\IAGOS\server\v18\Source\Source\_Network\Net\Include\buffer.h
; File C:\IAGOS\server\v18\Source\Source\_Network\Mcl\Include\CMclCritSec.h
; File C:\IAGOS\server\v18\Source\Source\_Network\Net\Include\buffer.h
; File C:\IAGOS\server\v18\Source\Source\_Network\Mcl\Include\CMclCritSec.h
; File C:\IAGOS\server\v18\Source\Source\_Network\Net\Src\DPSock.cpp
; File C:\IAGOS\server\v18\Source\Source\_Network\Mcl\Include\CMclCritSec.h
; File C:\IAGOS\server\v18\Source\Source\_Network\Net\Src\DPSock.cpp
; File C:\IAGOS\server\v18\Source\Source\_Network\Mcl\Include\CMclCritSec.h
; File C:\IAGOS\server\v18\Source\Source\_Network\Net\Src\DPSock.cpp
;	COMDAT ?Receive@CDPSock@@QAEPAVCBuffer@@XZ
_TEXT	SEGMENT
?Receive@CDPSock@@QAEPAVCBuffer@@XZ PROC		; CDPSock::Receive, COMDAT
; _this$ = ecx

; 438  : {

  00000	53		 push	 ebx
  00001	56		 push	 esi
  00002	8b f1		 mov	 esi, ecx
  00004	57		 push	 edi
; File C:\IAGOS\server\v18\Source\Source\_Network\Mcl\Include\CMclCritSec.h

; 33   : 		::EnterCriticalSection( &m_CritSec );

  00005	8d 5e 78	 lea	 ebx, DWORD PTR [esi+120]
  00008	53		 push	 ebx
  00009	ff 15 00 00 00
	00		 call	 DWORD PTR __imp__EnterCriticalSection@4
; File C:\IAGOS\server\v18\Source\Source\_Network\Net\Src\DPSock.cpp

; 441  : 	CBuffer* pBuffer = m_lspRecvBuffer.GetHead();

  0000f	8b 7e 68	 mov	 edi, DWORD PTR [esi+104]

; 442  : 	if( pBuffer )

  00012	85 ff		 test	 edi, edi
  00014	74 49		 je	 SHORT $LN2@Receive
; File C:\IAGOS\server\v18\Source\Source\_Network\Net\Include\buffer.h

; 222  : 	{	return( m_uCount == 0 );	}

  00016	8b 4e 70	 mov	 ecx, DWORD PTR [esi+112]
  00019	85 c9		 test	 ecx, ecx

; 240  : 	if( !IsEmpty() )

  0001b	74 2f		 je	 SHORT $LN12@Receive

; 241  : 	{
; 242  : 		if( m_pTail == m_pHead )

  0001d	39 7e 6c	 cmp	 DWORD PTR [esi+108], edi
  00020	75 07		 jne	 SHORT $LN13@Receive

; 243  : 			m_pTail	= NULL;

  00022	c7 46 6c 00 00
	00 00		 mov	 DWORD PTR [esi+108], 0
$LN13@Receive:

; 244  : 		if( m_pHead->pNext )

  00029	8b 87 1c 20 00
	00		 mov	 eax, DWORD PTR [edi+8220]
  0002f	85 c0		 test	 eax, eax
  00031	74 0d		 je	 SHORT $LN14@Receive

; 245  : 			m_pHead->pNext->pPrevious	= NULL;

  00033	c7 80 20 20 00
	00 00 00 00 00	 mov	 DWORD PTR [eax+8224], 0
  0003d	8b 4e 70	 mov	 ecx, DWORD PTR [esi+112]
$LN14@Receive:

; 246  : 		m_pHead		= m_pHead->pNext;

  00040	8b 46 68	 mov	 eax, DWORD PTR [esi+104]
  00043	8b 80 1c 20 00
	00		 mov	 eax, DWORD PTR [eax+8220]
  00049	89 46 68	 mov	 DWORD PTR [esi+104], eax
$LN12@Receive:

; 248  : 	m_uCount--;

  0004c	8d 41 ff	 lea	 eax, DWORD PTR [ecx-1]
; File C:\IAGOS\server\v18\Source\Source\_Network\Mcl\Include\CMclCritSec.h

; 39   : 		::LeaveCriticalSection( &m_CritSec );

  0004f	53		 push	 ebx
; File C:\IAGOS\server\v18\Source\Source\_Network\Net\Include\buffer.h

; 248  : 	m_uCount--;

  00050	89 46 70	 mov	 DWORD PTR [esi+112], eax
; File C:\IAGOS\server\v18\Source\Source\_Network\Mcl\Include\CMclCritSec.h

; 39   : 		::LeaveCriticalSection( &m_CritSec );

  00053	ff 15 00 00 00
	00		 call	 DWORD PTR __imp__LeaveCriticalSection@4
; File C:\IAGOS\server\v18\Source\Source\_Network\Net\Src\DPSock.cpp

; 448  : 		return NULL;

  00059	8b c7		 mov	 eax, edi
  0005b	5f		 pop	 edi
  0005c	5e		 pop	 esi
  0005d	5b		 pop	 ebx

; 449  : }

  0005e	c3		 ret	 0
$LN2@Receive:
; File C:\IAGOS\server\v18\Source\Source\_Network\Mcl\Include\CMclCritSec.h

; 39   : 		::LeaveCriticalSection( &m_CritSec );

  0005f	53		 push	 ebx
; File C:\IAGOS\server\v18\Source\Source\_Network\Net\Src\DPSock.cpp

; 448  : 		return NULL;

  00060	33 ff		 xor	 edi, edi
; File C:\IAGOS\server\v18\Source\Source\_Network\Mcl\Include\CMclCritSec.h

; 39   : 		::LeaveCriticalSection( &m_CritSec );

  00062	ff 15 00 00 00
	00		 call	 DWORD PTR __imp__LeaveCriticalSection@4
; File C:\IAGOS\server\v18\Source\Source\_Network\Net\Src\DPSock.cpp

; 448  : 		return NULL;

  00068	8b c7		 mov	 eax, edi
  0006a	5f		 pop	 edi
  0006b	5e		 pop	 esi
  0006c	5b		 pop	 ebx

; 449  : }

  0006d	c3		 ret	 0
?Receive@CDPSock@@QAEPAVCBuffer@@XZ ENDP		; CDPSock::Receive
_TEXT	ENDS
; Function compile flags: /Ogtp
; File C:\IAGOS\server\v18\Source\Source\_Network\Net\Src\DPSock.cpp
;	COMDAT ?Send@CDPSock@@QAEHPADKK@Z
_TEXT	SEGMENT
_lpData$ = 8						; size = 4
_dwDataSize$ = 12					; size = 4
_dpidTo$ = 16						; size = 4
?Send@CDPSock@@QAEHPADKK@Z PROC				; CDPSock::Send, COMDAT
; _this$ = ecx

; 428  : {

  00000	55		 push	 ebp
  00001	8b ec		 mov	 ebp, esp

; 429  : 	if( m_pSock )

  00003	8b 49 04	 mov	 ecx, DWORD PTR [ecx+4]
  00006	85 c9		 test	 ecx, ecx
  00008	74 17		 je	 SHORT $LN2@Send

; 430  : 	{
; 431  : 		m_pSock->Send( lpData, dwDataSize, dpidTo );

  0000a	ff 75 10	 push	 DWORD PTR _dpidTo$[ebp]
  0000d	8b 01		 mov	 eax, DWORD PTR [ecx]
  0000f	ff 75 0c	 push	 DWORD PTR _dwDataSize$[ebp]
  00012	ff 75 08	 push	 DWORD PTR _lpData$[ebp]
  00015	ff 50 28	 call	 DWORD PTR [eax+40]

; 432  : 		return TRUE;

  00018	b8 01 00 00 00	 mov	 eax, 1

; 435  : }

  0001d	5d		 pop	 ebp
  0001e	c2 0c 00	 ret	 12			; 0000000cH
$LN2@Send:

; 433  : 	}
; 434  : 	return FALSE;

  00021	33 c0		 xor	 eax, eax

; 435  : }

  00023	5d		 pop	 ebp
  00024	c2 0c 00	 ret	 12			; 0000000cH
?Send@CDPSock@@QAEHPADKK@Z ENDP				; CDPSock::Send
_TEXT	ENDS
; Function compile flags: /Ogtp
; File C:\IAGOS\server\v18\Source\Source\_Network\Net\Src\DPSock.cpp
;	COMDAT ?JoinToServerE@CDPSock@@QAEHW4BUFFER_TYPE@@@Z
_TEXT	SEGMENT
$T2 = -20						; size = 4
_zero$ = -16						; size = 4
__$EHRec$ = -12						; size = 12
_nBufferType$ = 8					; size = 4
?JoinToServerE@CDPSock@@QAEHW4BUFFER_TYPE@@@Z PROC	; CDPSock::JoinToServerE, COMDAT
; _this$ = ecx

; 356  : {

  00000	55		 push	 ebp
  00001	8b ec		 mov	 ebp, esp
  00003	6a ff		 push	 -1
  00005	68 00 00 00 00	 push	 __ehhandler$?JoinToServerE@CDPSock@@QAEHW4BUFFER_TYPE@@@Z
  0000a	64 a1 00 00 00
	00		 mov	 eax, DWORD PTR fs:0
  00010	50		 push	 eax
  00011	83 ec 08	 sub	 esp, 8
  00014	53		 push	 ebx
  00015	57		 push	 edi
  00016	a1 00 00 00 00	 mov	 eax, DWORD PTR ___security_cookie
  0001b	33 c5		 xor	 eax, ebp
  0001d	50		 push	 eax
  0001e	8d 45 f4	 lea	 eax, DWORD PTR __$EHRec$[ebp]
  00021	64 a3 00 00 00
	00		 mov	 DWORD PTR fs:0, eax
  00027	8b d9		 mov	 ebx, ecx

; 357  : 	Close();

  00029	e8 00 00 00 00	 call	 ?Close@CDPSock@@QAEHXZ	; CDPSock::Close

; 358  : 
; 359  : #ifdef __CRC
; 360  : 	if( CSock::crcRead & dwcrc )
; 361  : 	{
; 362  : 		m_dwReadHeaderSize	= HEADERSIZE13;
; 363  : 		m_dwDataSizeOffset	= sizeof(char) + sizeof(DWORD);
; 364  : 	}
; 365  : 	else
; 366  : 	{
; 367  : 		m_dwReadHeaderSize	= HEADERSIZE5;
; 368  : 		m_dwDataSizeOffset	= sizeof(char);
; 369  : 	}
; 370  : 
; 371  : 	CClientSockE* pSock	= new CClientSockE( dwcrc );
; 372  : #else	// __CRC
; 373  : 	CClientSockE* pSock	= new CClientSockE( nBufferType );

  0002e	68 7c 04 00 00	 push	 1148			; 0000047cH
  00033	e8 00 00 00 00	 call	 ??2@YAPAXI@Z		; operator new
  00038	83 c4 04	 add	 esp, 4
  0003b	89 45 ec	 mov	 DWORD PTR $T2[ebp], eax
  0003e	c7 45 fc 00 00
	00 00		 mov	 DWORD PTR __$EHRec$[ebp+8], 0
  00045	85 c0		 test	 eax, eax
  00047	74 0e		 je	 SHORT $LN7@JoinToServ
  00049	ff 75 08	 push	 DWORD PTR _nBufferType$[ebp]
  0004c	8b c8		 mov	 ecx, eax
  0004e	e8 00 00 00 00	 call	 ??0CClientSockE@@QAE@W4BUFFER_TYPE@@@Z ; CClientSockE::CClientSockE
  00053	8b f8		 mov	 edi, eax
  00055	eb 02		 jmp	 SHORT $LN8@JoinToServ
$LN7@JoinToServ:
  00057	33 ff		 xor	 edi, edi
$LN8@JoinToServ:

; 374  : #endif	// __CRC
; 375  : 	if( !pSock->Create() )

  00059	8b 07		 mov	 eax, DWORD PTR [edi]
  0005b	8b cf		 mov	 ecx, edi
  0005d	6a 01		 push	 1
  0005f	6a 00		 push	 0
  00061	c7 45 fc ff ff
	ff ff		 mov	 DWORD PTR __$EHRec$[ebp+8], -1
  00068	ff 50 04	 call	 DWORD PTR [eax+4]
  0006b	8b cf		 mov	 ecx, edi
  0006d	85 c0		 test	 eax, eax
  0006f	75 1b		 jne	 SHORT $LN2@JoinToServ

; 376  : 	{
; 377  : 		SAFE_DELETE( pSock );

  00071	8b 07		 mov	 eax, DWORD PTR [edi]
  00073	6a 01		 push	 1
  00075	ff 10		 call	 DWORD PTR [eax]
$LN17@JoinToServ:

; 425  : }

  00077	33 c0		 xor	 eax, eax
  00079	8b 4d f4	 mov	 ecx, DWORD PTR __$EHRec$[ebp]
  0007c	64 89 0d 00 00
	00 00		 mov	 DWORD PTR fs:0, ecx
  00083	59		 pop	 ecx
  00084	5f		 pop	 edi
  00085	5b		 pop	 ebx
  00086	8b e5		 mov	 esp, ebp
  00088	5d		 pop	 ebp
  00089	c2 04 00	 ret	 4
$LN2@JoinToServ:

; 378  : 		return FALSE;
; 379  : 	}
; 380  : 	m_fServer	= FALSE;	

  0008c	c7 83 90 00 00
	00 00 00 00 00	 mov	 DWORD PTR [ebx+144], 0

; 381  : 	m_pSock		= pSock;

  00096	89 7b 04	 mov	 DWORD PTR [ebx+4], edi

; 382  : 	pSock->SetID( pSock->GetHandle() );

  00099	8b 47 04	 mov	 eax, DWORD PTR [edi+4]
  0009c	89 47 08	 mov	 DWORD PTR [edi+8], eax

; 383  : 	pSock->SetPeerID( DPID_SERVERPLAYER );

  0009f	c7 47 0c 01 00
	00 00		 mov	 DWORD PTR [edi+12], 1

; 384  : 
; 385  : 
; 386  : 	if( !pSock->Connect( m_lpAddr, m_uPort ) )

  000a6	0f b7 43 08	 movzx	 eax, WORD PTR [ebx+8]
  000aa	50		 push	 eax
  000ab	8d 43 0a	 lea	 eax, DWORD PTR [ebx+10]
  000ae	50		 push	 eax
  000af	e8 00 00 00 00	 call	 ?Connect@CClientSockE@@QAEHPADG@Z ; CClientSockE::Connect
  000b4	85 c0		 test	 eax, eax
  000b6	74 bf		 je	 SHORT $LN17@JoinToServ

; 387  : 		return FALSE;
; 388  : 
; 389  : 	CreateEventWorker( (CClientSockE*)pSock );

  000b8	57		 push	 edi
  000b9	8b cb		 mov	 ecx, ebx
  000bb	e8 00 00 00 00	 call	 ?CreateEventWorker@CDPSock@@QAEHPAVCSock@@@Z ; CDPSock::CreateEventWorker

; 390  : 
; 391  : #ifdef __PROTOCOL0910
; 392  : 	m_hProtocolId	= CreateEvent( NULL, FALSE, FALSE, NULL );
; 393  : #endif	// __PROTOCOL0910
; 394  : 
; 395  : 	int zero	= 0;
; 396  : 	setsockopt( pSock->GetHandle(), SOL_SOCKET, SO_SNDBUF, (char*)&zero, sizeof(zero) );

  000c0	6a 04		 push	 4
  000c2	8d 45 f0	 lea	 eax, DWORD PTR _zero$[ebp]
  000c5	c7 45 f0 00 00
	00 00		 mov	 DWORD PTR _zero$[ebp], 0
  000cc	50		 push	 eax
  000cd	68 01 10 00 00	 push	 4097			; 00001001H
  000d2	68 ff ff 00 00	 push	 65535			; 0000ffffH
  000d7	ff 77 04	 push	 DWORD PTR [edi+4]
  000da	ff 15 00 00 00
	00		 call	 DWORD PTR __imp__setsockopt@20

; 397  : 	setsockopt( pSock->GetHandle(), SOL_SOCKET, SO_RCVBUF, (char*)&zero, sizeof(zero) );

  000e0	6a 04		 push	 4
  000e2	8d 45 f0	 lea	 eax, DWORD PTR _zero$[ebp]
  000e5	50		 push	 eax
  000e6	68 02 10 00 00	 push	 4098			; 00001002H
  000eb	68 ff ff 00 00	 push	 65535			; 0000ffffH
  000f0	ff 77 04	 push	 DWORD PTR [edi+4]
  000f3	ff 15 00 00 00
	00		 call	 DWORD PTR __imp__setsockopt@20

; 398  : 	
; 399  : 	InterlockedIncrement( &pSock->m_l );

  000f9	f0 ff 47 48	 lock	  inc	 DWORD PTR [edi+72]

; 400  : 	if( pSock->Recv() != 0 )

  000fd	8b cf		 mov	 ecx, edi
  000ff	e8 00 00 00 00	 call	 ?Recv@CClientSockE@@QAEHXZ ; CClientSockE::Recv
  00104	85 c0		 test	 eax, eax
  00106	74 29		 je	 SHORT $LN5@JoinToServ

; 401  : 	{
; 402  : 		TRACE( "I/0 error %d\n", WSAGetLastError() );
; 403  : //		if( pSock->m_l == 0 ) {
; 404  : 			RemoveThread( pSock->m_hWorker );

  00108	ff 77 44	 push	 DWORD PTR [edi+68]
  0010b	8b cb		 mov	 ecx, ebx
  0010d	e8 00 00 00 00	 call	 ?RemoveThread@CDPSock@@QAEXPAX@Z ; CDPSock::RemoveThread

; 405  : 			CloseConnection( pSock->GetID() );

  00112	ff 77 08	 push	 DWORD PTR [edi+8]
  00115	8b cb		 mov	 ecx, ebx
  00117	e8 00 00 00 00	 call	 ?CloseConnection@CDPSock@@QAEXK@Z ; CDPSock::CloseConnection

; 406  : 			return FALSE;

  0011c	33 c0		 xor	 eax, eax

; 425  : }

  0011e	8b 4d f4	 mov	 ecx, DWORD PTR __$EHRec$[ebp]
  00121	64 89 0d 00 00
	00 00		 mov	 DWORD PTR fs:0, ecx
  00128	59		 pop	 ecx
  00129	5f		 pop	 edi
  0012a	5b		 pop	 ebx
  0012b	8b e5		 mov	 esp, ebp
  0012d	5d		 pop	 ebp
  0012e	c2 04 00	 ret	 4
$LN5@JoinToServ:

; 407  : //		}
; 408  : 	}
; 409  : 
; 410  : 
; 411  : #ifdef __PROTOCOL0910
; 412  : 	if( CSock::crcWrite & dwcrc )
; 413  : 	{
; 414  : 		if( WaitForSingleObject( m_hProtocolId, uWaitingTime ) == WAIT_TIMEOUT )
; 415  : 		{
; 416  : 			TRACE( "WAIT_TIMEOUT\n" );
; 417  : 			RemoveThread( pSock->m_hWorker );
; 418  : 			CloseConnection( pSock->GetID() );
; 419  : 			return FALSE;
; 420  : 		}
; 421  : 	}
; 422  : #endif	// __PROTOCOL0910
; 423  : 
; 424  : 	return TRUE;

  00131	b8 01 00 00 00	 mov	 eax, 1

; 425  : }

  00136	8b 4d f4	 mov	 ecx, DWORD PTR __$EHRec$[ebp]
  00139	64 89 0d 00 00
	00 00		 mov	 DWORD PTR fs:0, ecx
  00140	59		 pop	 ecx
  00141	5f		 pop	 edi
  00142	5b		 pop	 ebx
  00143	8b e5		 mov	 esp, ebp
  00145	5d		 pop	 ebp
  00146	c2 04 00	 ret	 4
_TEXT	ENDS
;	COMDAT text$x
text$x	SEGMENT
__unwindfunclet$?JoinToServerE@CDPSock@@QAEHW4BUFFER_TYPE@@@Z$0:
  00000	68 7c 04 00 00	 push	 1148			; 0000047cH
  00005	8b 45 ec	 mov	 eax, DWORD PTR $T2[ebp]
  00008	50		 push	 eax
  00009	e8 00 00 00 00	 call	 ??3@YAXPAXI@Z		; operator delete
  0000e	83 c4 08	 add	 esp, 8
  00011	c3		 ret	 0
  00012	cc		 int	 3
  00013	cc		 int	 3
  00014	cc		 int	 3
  00015	cc		 int	 3
  00016	cc		 int	 3
__ehhandler$?JoinToServerE@CDPSock@@QAEHW4BUFFER_TYPE@@@Z:
  00017	90		 npad	 1
  00018	90		 npad	 1
  00019	8b 54 24 08	 mov	 edx, DWORD PTR [esp+8]
  0001d	8d 42 0c	 lea	 eax, DWORD PTR [edx+12]
  00020	8b 4a ec	 mov	 ecx, DWORD PTR [edx-20]
  00023	33 c8		 xor	 ecx, eax
  00025	e8 00 00 00 00	 call	 @__security_check_cookie@4
  0002a	b8 00 00 00 00	 mov	 eax, OFFSET __ehfuncinfo$?JoinToServerE@CDPSock@@QAEHW4BUFFER_TYPE@@@Z
  0002f	e9 00 00 00 00	 jmp	 ___CxxFrameHandler3
text$x	ENDS
?JoinToServerE@CDPSock@@QAEHW4BUFFER_TYPE@@@Z ENDP	; CDPSock::JoinToServerE
; Function compile flags: /Ogtp
; File C:\IAGOS\server\v18\Source\Source\_Network\Net\Src\DPSock.cpp
;	COMDAT ?CreateServerE@CDPSock@@QAEHW4BUFFER_TYPE@@@Z
_TEXT	SEGMENT
$T2 = -16						; size = 4
__$EHRec$ = -12						; size = 12
_nBufferType$ = 8					; size = 4
?CreateServerE@CDPSock@@QAEHW4BUFFER_TYPE@@@Z PROC	; CDPSock::CreateServerE, COMDAT
; _this$ = ecx

; 241  : {

  00000	55		 push	 ebp
  00001	8b ec		 mov	 ebp, esp
  00003	6a ff		 push	 -1
  00005	68 00 00 00 00	 push	 __ehhandler$?CreateServerE@CDPSock@@QAEHW4BUFFER_TYPE@@@Z
  0000a	64 a1 00 00 00
	00		 mov	 eax, DWORD PTR fs:0
  00010	50		 push	 eax
  00011	51		 push	 ecx
  00012	56		 push	 esi
  00013	57		 push	 edi
  00014	a1 00 00 00 00	 mov	 eax, DWORD PTR ___security_cookie
  00019	33 c5		 xor	 eax, ebp
  0001b	50		 push	 eax
  0001c	8d 45 f4	 lea	 eax, DWORD PTR __$EHRec$[ebp]
  0001f	64 a3 00 00 00
	00		 mov	 DWORD PTR fs:0, eax
  00025	8b f9		 mov	 edi, ecx

; 242  : 	Close();

  00027	e8 00 00 00 00	 call	 ?Close@CDPSock@@QAEHXZ	; CDPSock::Close

; 243  : 
; 244  : #ifdef __CRC
; 245  : 	if( CSock::crcRead & dwcrc )
; 246  : 	{
; 247  : 		m_dwReadHeaderSize	= HEADERSIZE13;
; 248  : 		m_dwDataSizeOffset	= sizeof(char) + sizeof(DWORD);	
; 249  : 	}
; 250  : 	else
; 251  : 	{
; 252  : 		m_dwReadHeaderSize	= HEADERSIZE5;
; 253  : 		m_dwDataSizeOffset	= sizeof(char);
; 254  : 	}
; 255  : 
; 256  : 	CServerSockE* pSock		= new CServerSockE( dwcrc );
; 257  : #else	// __CRC
; 258  : 	CServerSockE* pSock		= new CServerSockE( nBufferType );

  0002c	6a 4c		 push	 76			; 0000004cH
  0002e	e8 00 00 00 00	 call	 ??2@YAPAXI@Z		; operator new
  00033	83 c4 04	 add	 esp, 4
  00036	89 45 f0	 mov	 DWORD PTR $T2[ebp], eax
  00039	c7 45 fc 00 00
	00 00		 mov	 DWORD PTR __$EHRec$[ebp+8], 0
  00040	85 c0		 test	 eax, eax
  00042	74 0e		 je	 SHORT $LN7@CreateServ
  00044	ff 75 08	 push	 DWORD PTR _nBufferType$[ebp]
  00047	8b c8		 mov	 ecx, eax
  00049	e8 00 00 00 00	 call	 ??0CServerSockE@@QAE@W4BUFFER_TYPE@@@Z ; CServerSockE::CServerSockE
  0004e	8b f0		 mov	 esi, eax
  00050	eb 02		 jmp	 SHORT $LN8@CreateServ
$LN7@CreateServ:
  00052	33 f6		 xor	 esi, esi
$LN8@CreateServ:

; 259  : #endif	// __CRC
; 260  : 	if( !pSock->Create( m_uPort ) )

  00054	8b 16		 mov	 edx, DWORD PTR [esi]
  00056	8b ce		 mov	 ecx, esi
  00058	0f b7 47 08	 movzx	 eax, WORD PTR [edi+8]
  0005c	6a 01		 push	 1
  0005e	50		 push	 eax
  0005f	c7 45 fc ff ff
	ff ff		 mov	 DWORD PTR __$EHRec$[ebp+8], -1
  00066	ff 52 04	 call	 DWORD PTR [edx+4]
  00069	8b ce		 mov	 ecx, esi
  0006b	85 c0		 test	 eax, eax
  0006d	75 1b		 jne	 SHORT $LN2@CreateServ

; 261  : 	{
; 262  : 		SAFE_DELETE( pSock );

  0006f	8b 06		 mov	 eax, DWORD PTR [esi]
  00071	6a 01		 push	 1
  00073	ff 10		 call	 DWORD PTR [eax]

; 263  : 		return FALSE;

  00075	33 c0		 xor	 eax, eax

; 276  : }

  00077	8b 4d f4	 mov	 ecx, DWORD PTR __$EHRec$[ebp]
  0007a	64 89 0d 00 00
	00 00		 mov	 DWORD PTR fs:0, ecx
  00081	59		 pop	 ecx
  00082	5f		 pop	 edi
  00083	5e		 pop	 esi
  00084	8b e5		 mov	 esp, ebp
  00086	5d		 pop	 ebp
  00087	c2 04 00	 ret	 4
$LN2@CreateServ:

; 264  : 	}
; 265  : 	pSock->StartServer( this );

  0008a	57		 push	 edi
  0008b	e8 00 00 00 00	 call	 ?StartServer@CServerSockE@@QAEHPAVCDPSock@@@Z ; CServerSockE::StartServer

; 266  : 	if( !pSock->Listen() )

  00090	8b ce		 mov	 ecx, esi
  00092	e8 00 00 00 00	 call	 ?Listen@CServerSockE@@QAEHXZ ; CServerSockE::Listen
  00097	85 c0		 test	 eax, eax
  00099	75 1d		 jne	 SHORT $LN4@CreateServ

; 267  : 	{
; 268  : 		SAFE_DELETE( pSock );

  0009b	8b 06		 mov	 eax, DWORD PTR [esi]
  0009d	8b ce		 mov	 ecx, esi
  0009f	6a 01		 push	 1
  000a1	ff 10		 call	 DWORD PTR [eax]

; 269  : 		return FALSE;

  000a3	33 c0		 xor	 eax, eax

; 276  : }

  000a5	8b 4d f4	 mov	 ecx, DWORD PTR __$EHRec$[ebp]
  000a8	64 89 0d 00 00
	00 00		 mov	 DWORD PTR fs:0, ecx
  000af	59		 pop	 ecx
  000b0	5f		 pop	 edi
  000b1	5e		 pop	 esi
  000b2	8b e5		 mov	 esp, ebp
  000b4	5d		 pop	 ebp
  000b5	c2 04 00	 ret	 4
$LN4@CreateServ:

; 270  : 	}
; 271  : 	pSock->SetID( DPID_SERVERPLAYER );

  000b8	c7 46 08 01 00
	00 00		 mov	 DWORD PTR [esi+8], 1

; 272  : 	m_pSock		= pSock;
; 273  : 	m_fServer	= TRUE;
; 274  : 
; 275  : 	return TRUE;

  000bf	b8 01 00 00 00	 mov	 eax, 1
  000c4	89 77 04	 mov	 DWORD PTR [edi+4], esi
  000c7	c7 87 90 00 00
	00 01 00 00 00	 mov	 DWORD PTR [edi+144], 1

; 276  : }

  000d1	8b 4d f4	 mov	 ecx, DWORD PTR __$EHRec$[ebp]
  000d4	64 89 0d 00 00
	00 00		 mov	 DWORD PTR fs:0, ecx
  000db	59		 pop	 ecx
  000dc	5f		 pop	 edi
  000dd	5e		 pop	 esi
  000de	8b e5		 mov	 esp, ebp
  000e0	5d		 pop	 ebp
  000e1	c2 04 00	 ret	 4
_TEXT	ENDS
;	COMDAT text$x
text$x	SEGMENT
__unwindfunclet$?CreateServerE@CDPSock@@QAEHW4BUFFER_TYPE@@@Z$0:
  00000	6a 4c		 push	 76			; 0000004cH
  00002	8b 45 f0	 mov	 eax, DWORD PTR $T2[ebp]
  00005	50		 push	 eax
  00006	e8 00 00 00 00	 call	 ??3@YAXPAXI@Z		; operator delete
  0000b	83 c4 08	 add	 esp, 8
  0000e	c3		 ret	 0
  0000f	cc		 int	 3
  00010	cc		 int	 3
  00011	cc		 int	 3
  00012	cc		 int	 3
  00013	cc		 int	 3
__ehhandler$?CreateServerE@CDPSock@@QAEHW4BUFFER_TYPE@@@Z:
  00014	90		 npad	 1
  00015	90		 npad	 1
  00016	8b 54 24 08	 mov	 edx, DWORD PTR [esp+8]
  0001a	8d 42 0c	 lea	 eax, DWORD PTR [edx+12]
  0001d	8b 4a f0	 mov	 ecx, DWORD PTR [edx-16]
  00020	33 c8		 xor	 ecx, eax
  00022	e8 00 00 00 00	 call	 @__security_check_cookie@4
  00027	b8 00 00 00 00	 mov	 eax, OFFSET __ehfuncinfo$?CreateServerE@CDPSock@@QAEHW4BUFFER_TYPE@@@Z
  0002c	e9 00 00 00 00	 jmp	 ___CxxFrameHandler3
text$x	ENDS
?CreateServerE@CDPSock@@QAEHW4BUFFER_TYPE@@@Z ENDP	; CDPSock::CreateServerE
; Function compile flags: /Ogtp
; File C:\IAGOS\server\v18\Source\Source\_Network\Net\Src\DPSock.cpp
;	COMDAT ?JoinToServer@CDPSock@@QAEHW4BUFFER_TYPE@@@Z
_TEXT	SEGMENT
$T2 = -20						; size = 4
_zero$ = -16						; size = 4
__$EHRec$ = -12						; size = 12
_nBufferType$ = 8					; size = 4
tv317 = 8						; size = 4
?JoinToServer@CDPSock@@QAEHW4BUFFER_TYPE@@@Z PROC	; CDPSock::JoinToServer, COMDAT
; _this$ = ecx

; 283  : {

  00000	55		 push	 ebp
  00001	8b ec		 mov	 ebp, esp
  00003	6a ff		 push	 -1
  00005	68 00 00 00 00	 push	 __ehhandler$?JoinToServer@CDPSock@@QAEHW4BUFFER_TYPE@@@Z
  0000a	64 a1 00 00 00
	00		 mov	 eax, DWORD PTR fs:0
  00010	50		 push	 eax
  00011	83 ec 08	 sub	 esp, 8
  00014	53		 push	 ebx
  00015	57		 push	 edi
  00016	a1 00 00 00 00	 mov	 eax, DWORD PTR ___security_cookie
  0001b	33 c5		 xor	 eax, ebp
  0001d	50		 push	 eax
  0001e	8d 45 f4	 lea	 eax, DWORD PTR __$EHRec$[ebp]
  00021	64 a3 00 00 00
	00		 mov	 DWORD PTR fs:0, eax
  00027	8b d9		 mov	 ebx, ecx

; 284  : 	Close();

  00029	e8 00 00 00 00	 call	 ?Close@CDPSock@@QAEHXZ	; CDPSock::Close

; 285  : 
; 286  : 	CClientSock* pSock;
; 287  : #ifdef __CRC
; 288  : 	if( CSock::crcRead & dwcrc )
; 289  : 	{
; 290  : 		m_dwReadHeaderSize	= HEADERSIZE13;
; 291  : 		m_dwDataSizeOffset	= sizeof(char) + sizeof(DWORD);
; 292  : 	}
; 293  : 	else
; 294  : 	{
; 295  : 		m_dwReadHeaderSize	= HEADERSIZE5;
; 296  : 		m_dwDataSizeOffset	= sizeof(char);
; 297  : 	}
; 298  : 
; 299  : 	pSock	= new CClientSock( dwcrc );
; 300  : #else	// __CRC
; 301  : 	pSock	= new CClientSock( nBufferType );

  0002e	68 94 04 00 00	 push	 1172			; 00000494H
  00033	e8 00 00 00 00	 call	 ??2@YAPAXI@Z		; operator new
  00038	83 c4 04	 add	 esp, 4
  0003b	89 45 ec	 mov	 DWORD PTR $T2[ebp], eax
  0003e	c7 45 fc 00 00
	00 00		 mov	 DWORD PTR __$EHRec$[ebp+8], 0
  00045	85 c0		 test	 eax, eax
  00047	74 0e		 je	 SHORT $LN8@JoinToServ
  00049	ff 75 08	 push	 DWORD PTR _nBufferType$[ebp]
  0004c	8b c8		 mov	 ecx, eax
  0004e	e8 00 00 00 00	 call	 ??0CClientSock@@QAE@W4BUFFER_TYPE@@@Z ; CClientSock::CClientSock
  00053	8b f8		 mov	 edi, eax
  00055	eb 02		 jmp	 SHORT $LN9@JoinToServ
$LN8@JoinToServ:
  00057	33 ff		 xor	 edi, edi
$LN9@JoinToServ:

; 302  : #endif	// __CRC
; 303  : 	if( !pSock->Create() )

  00059	8b 07		 mov	 eax, DWORD PTR [edi]
  0005b	8b cf		 mov	 ecx, edi
  0005d	6a 01		 push	 1
  0005f	6a 00		 push	 0
  00061	c7 45 fc ff ff
	ff ff		 mov	 DWORD PTR __$EHRec$[ebp+8], -1
  00068	ff 50 04	 call	 DWORD PTR [eax+4]
  0006b	8b cf		 mov	 ecx, edi
  0006d	85 c0		 test	 eax, eax
  0006f	75 1b		 jne	 SHORT $LN2@JoinToServ

; 304  : 	{
; 305  : 		SAFE_DELETE( pSock );

  00071	8b 07		 mov	 eax, DWORD PTR [edi]
  00073	6a 01		 push	 1
  00075	ff 10		 call	 DWORD PTR [eax]
$LN22@JoinToServ:

; 349  : }

  00077	33 c0		 xor	 eax, eax
  00079	8b 4d f4	 mov	 ecx, DWORD PTR __$EHRec$[ebp]
  0007c	64 89 0d 00 00
	00 00		 mov	 DWORD PTR fs:0, ecx
  00083	59		 pop	 ecx
  00084	5f		 pop	 edi
  00085	5b		 pop	 ebx
  00086	8b e5		 mov	 esp, ebp
  00088	5d		 pop	 ebp
  00089	c2 04 00	 ret	 4
$LN2@JoinToServ:

; 306  : 		return FALSE;
; 307  : 	}
; 308  : 	m_fServer	= FALSE;	

  0008c	c7 83 90 00 00
	00 00 00 00 00	 mov	 DWORD PTR [ebx+144], 0

; 309  : 	m_pSock		= pSock;

  00096	89 7b 04	 mov	 DWORD PTR [ebx+4], edi

; 310  : 	pSock->SetID( pSock->GetHandle() );

  00099	8b 47 04	 mov	 eax, DWORD PTR [edi+4]
  0009c	89 47 08	 mov	 DWORD PTR [edi+8], eax

; 311  : 	pSock->SetPeerID( DPID_SERVERPLAYER );

  0009f	c7 47 0c 01 00
	00 00		 mov	 DWORD PTR [edi+12], 1

; 312  : 
; 313  : 	if( !pSock->Connect( m_lpAddr, m_uPort ) )

  000a6	0f b7 43 08	 movzx	 eax, WORD PTR [ebx+8]
  000aa	50		 push	 eax
  000ab	8d 43 0a	 lea	 eax, DWORD PTR [ebx+10]
  000ae	50		 push	 eax
  000af	e8 00 00 00 00	 call	 ?Connect@CClientSock@@QAEHPADG@Z ; CClientSock::Connect
  000b4	85 c0		 test	 eax, eax
  000b6	74 bf		 je	 SHORT $LN22@JoinToServ

; 314  : 		return FALSE;
; 315  : 
; 316  : 	CreateIoWorker( (u_long)0x01 );

  000b8	6a 01		 push	 1
  000ba	8b cb		 mov	 ecx, ebx
  000bc	e8 00 00 00 00	 call	 ?CreateIoWorker@CDPSock@@AAEHK@Z ; CDPSock::CreateIoWorker

; 317  : 
; 318  : 	int iIoWorker	= ( pSock->GetHandle() / 4 ) % GetIoWorkerCount();

  000c1	8b 4f 04	 mov	 ecx, DWORD PTR [edi+4]
  000c4	33 d2		 xor	 edx, edx
  000c6	8b c1		 mov	 eax, ecx
  000c8	c1 e8 02	 shr	 eax, 2
  000cb	f7 73 2c	 div	 DWORD PTR [ebx+44]

; 319  : 	if( !CreateIoCompletionPort( (HANDLE)pSock->GetHandle(), m_phCompletionPort[iIoWorker], (DWORD)( pSock->GetHandle() ),  0 ) )

  000ce	8b 43 54	 mov	 eax, DWORD PTR [ebx+84]
  000d1	c1 e2 02	 shl	 edx, 2
  000d4	6a 00		 push	 0
  000d6	51		 push	 ecx
  000d7	89 55 08	 mov	 DWORD PTR tv317[ebp], edx
  000da	ff 34 02	 push	 DWORD PTR [edx+eax]
  000dd	51		 push	 ecx
  000de	ff 15 00 00 00
	00		 call	 DWORD PTR __imp__CreateIoCompletionPort@16
  000e4	85 c0		 test	 eax, eax
  000e6	75 1d		 jne	 SHORT $LN5@JoinToServ

; 320  : 	{
; 321  : 		TRACE( "Can't create completion port with error %d\n", WSAGetLastError() );
; 322  : 		SAFE_DELETE( pSock );

  000e8	8b 07		 mov	 eax, DWORD PTR [edi]
  000ea	8b cf		 mov	 ecx, edi
  000ec	6a 01		 push	 1
  000ee	ff 10		 call	 DWORD PTR [eax]

; 323  : 		return FALSE;

  000f0	33 c0		 xor	 eax, eax

; 349  : }

  000f2	8b 4d f4	 mov	 ecx, DWORD PTR __$EHRec$[ebp]
  000f5	64 89 0d 00 00
	00 00		 mov	 DWORD PTR fs:0, ecx
  000fc	59		 pop	 ecx
  000fd	5f		 pop	 edi
  000fe	5b		 pop	 ebx
  000ff	8b e5		 mov	 esp, ebp
  00101	5d		 pop	 ebp
  00102	c2 04 00	 ret	 4
$LN5@JoinToServ:

; 324  : 	}
; 325  : 
; 326  : #ifdef __PROTOCOL0910
; 327  : 	m_hProtocolId	= CreateEvent( NULL, FALSE, FALSE, NULL );
; 328  : #endif	// __PROTOCOL0910
; 329  : 
; 330  : 	int zero	= 0;
; 331  : 	setsockopt( pSock->GetHandle(), SOL_SOCKET, SO_SNDBUF, (char *)&zero, sizeof(zero) );

  00105	6a 04		 push	 4
  00107	8d 45 f0	 lea	 eax, DWORD PTR _zero$[ebp]
  0010a	c7 45 f0 00 00
	00 00		 mov	 DWORD PTR _zero$[ebp], 0
  00111	50		 push	 eax
  00112	68 01 10 00 00	 push	 4097			; 00001001H
  00117	68 ff ff 00 00	 push	 65535			; 0000ffffH
  0011c	ff 77 04	 push	 DWORD PTR [edi+4]
  0011f	ff 15 00 00 00
	00		 call	 DWORD PTR __imp__setsockopt@20

; 332  : 	setsockopt( pSock->GetHandle(), SOL_SOCKET, SO_RCVBUF, (char *)&zero, sizeof(zero) );

  00125	6a 04		 push	 4
  00127	8d 45 f0	 lea	 eax, DWORD PTR _zero$[ebp]
  0012a	50		 push	 eax
  0012b	68 02 10 00 00	 push	 4098			; 00001002H
  00130	68 ff ff 00 00	 push	 65535			; 0000ffffH
  00135	ff 77 04	 push	 DWORD PTR [edi+4]
  00138	ff 15 00 00 00
	00		 call	 DWORD PTR __imp__setsockopt@20

; 333  : 
; 334  : 	PostQueuedCompletionStatus( m_phCompletionPort[iIoWorker], NEWSOCKETMSG, (DWORD)pSock->GetHandle(), NULL );

  0013e	8b 43 54	 mov	 eax, DWORD PTR [ebx+84]
  00141	8b 4d 08	 mov	 ecx, DWORD PTR tv317[ebp]
  00144	6a 00		 push	 0
  00146	ff 77 04	 push	 DWORD PTR [edi+4]
  00149	6a fd		 push	 -3			; fffffffdH
  0014b	ff 34 08	 push	 DWORD PTR [eax+ecx]
  0014e	ff 15 00 00 00
	00		 call	 DWORD PTR __imp__PostQueuedCompletionStatus@16

; 335  : 
; 336  : #ifdef __PROTOCOL0910
; 337  : 	if( CSock::crcWrite & dwcrc )
; 338  : 	{
; 339  : 		if( WaitForSingleObject( m_hProtocolId, uWaitingTime ) == WAIT_TIMEOUT )
; 340  : 		{
; 341  : 			TRACE( "WAIT_TIMEOUT\n" );
; 342  : 			PostQueuedCompletionStatus( m_phCompletionPort[iIoWorker], (DWORD)-4, (DWORD)pSock->GetHandle(), NULL );
; 343  : 			return FALSE;
; 344  : 		}
; 345  : 	}
; 346  : #endif	// __PROTOCOL0910
; 347  : 
; 348  : 	return TRUE;

  00154	b8 01 00 00 00	 mov	 eax, 1

; 349  : }

  00159	8b 4d f4	 mov	 ecx, DWORD PTR __$EHRec$[ebp]
  0015c	64 89 0d 00 00
	00 00		 mov	 DWORD PTR fs:0, ecx
  00163	59		 pop	 ecx
  00164	5f		 pop	 edi
  00165	5b		 pop	 ebx
  00166	8b e5		 mov	 esp, ebp
  00168	5d		 pop	 ebp
  00169	c2 04 00	 ret	 4
_TEXT	ENDS
;	COMDAT text$x
text$x	SEGMENT
__unwindfunclet$?JoinToServer@CDPSock@@QAEHW4BUFFER_TYPE@@@Z$0:
  00000	68 94 04 00 00	 push	 1172			; 00000494H
  00005	8b 45 ec	 mov	 eax, DWORD PTR $T2[ebp]
  00008	50		 push	 eax
  00009	e8 00 00 00 00	 call	 ??3@YAXPAXI@Z		; operator delete
  0000e	83 c4 08	 add	 esp, 8
  00011	c3		 ret	 0
  00012	cc		 int	 3
  00013	cc		 int	 3
  00014	cc		 int	 3
  00015	cc		 int	 3
  00016	cc		 int	 3
__ehhandler$?JoinToServer@CDPSock@@QAEHW4BUFFER_TYPE@@@Z:
  00017	90		 npad	 1
  00018	90		 npad	 1
  00019	8b 54 24 08	 mov	 edx, DWORD PTR [esp+8]
  0001d	8d 42 0c	 lea	 eax, DWORD PTR [edx+12]
  00020	8b 4a ec	 mov	 ecx, DWORD PTR [edx-20]
  00023	33 c8		 xor	 ecx, eax
  00025	e8 00 00 00 00	 call	 @__security_check_cookie@4
  0002a	b8 00 00 00 00	 mov	 eax, OFFSET __ehfuncinfo$?JoinToServer@CDPSock@@QAEHW4BUFFER_TYPE@@@Z
  0002f	e9 00 00 00 00	 jmp	 ___CxxFrameHandler3
text$x	ENDS
?JoinToServer@CDPSock@@QAEHW4BUFFER_TYPE@@@Z ENDP	; CDPSock::JoinToServer
; Function compile flags: /Ogtp
; File C:\IAGOS\server\v18\Source\Source\_Network\Net\Src\DPSock.cpp
; File C:\IAGOS\server\v18\Source\Source\_network\CmnHdr.h
; File C:\IAGOS\server\v18\Source\Source\_Network\Net\Src\DPSock.cpp
;	COMDAT ?CreateServer@CDPSock@@QAEHW4BUFFER_TYPE@@@Z
_TEXT	SEGMENT
_si$ = -52						; size = 36
$T2 = -16						; size = 4
__$EHRec$ = -12						; size = 12
_nBufferType$ = 8					; size = 4
?CreateServer@CDPSock@@QAEHW4BUFFER_TYPE@@@Z PROC	; CDPSock::CreateServer, COMDAT
; _this$ = ecx

; 191  : {

  00000	55		 push	 ebp
  00001	8b ec		 mov	 ebp, esp
  00003	6a ff		 push	 -1
  00005	68 00 00 00 00	 push	 __ehhandler$?CreateServer@CDPSock@@QAEHW4BUFFER_TYPE@@@Z
  0000a	64 a1 00 00 00
	00		 mov	 eax, DWORD PTR fs:0
  00010	50		 push	 eax
  00011	83 ec 28	 sub	 esp, 40			; 00000028H
  00014	56		 push	 esi
  00015	57		 push	 edi
  00016	a1 00 00 00 00	 mov	 eax, DWORD PTR ___security_cookie
  0001b	33 c5		 xor	 eax, ebp
  0001d	50		 push	 eax
  0001e	8d 45 f4	 lea	 eax, DWORD PTR __$EHRec$[ebp]
  00021	64 a3 00 00 00
	00		 mov	 DWORD PTR fs:0, eax
  00027	8b f9		 mov	 edi, ecx

; 192  : 	Close();

  00029	e8 00 00 00 00	 call	 ?Close@CDPSock@@QAEHXZ	; CDPSock::Close

; 193  : 
; 194  : #ifdef __CRC
; 195  : 	if( CSock::crcRead & dwcrc )
; 196  : 	{
; 197  : 		m_dwReadHeaderSize	= HEADERSIZE13;
; 198  : #ifdef __PACKET_REPLAY_R
; 199  : 		m_dwDataSizeOffset	= sizeof(char) + sizeof(int) + sizeof(DWORD);
; 200  : #else	// __PACKET_REPLAY_R
; 201  : 		m_dwDataSizeOffset	= sizeof(char) + sizeof(DWORD);
; 202  : #endif	// __PACKET_REPLAY_R
; 203  : 	}
; 204  : 	else
; 205  : 	{
; 206  : 		m_dwReadHeaderSize	= HEADERSIZE5;
; 207  : 		m_dwDataSizeOffset	= sizeof(char);
; 208  : 	}
; 209  : 
; 210  : 	CServerSock* pSock	= new CServerSock( dwcrc );
; 211  : #else	//__CRC
; 212  : 	CServerSock* pSock	= new CServerSock( nBufferType );

  0002e	6a 50		 push	 80			; 00000050H
  00030	e8 00 00 00 00	 call	 ??2@YAPAXI@Z		; operator new
  00035	83 c4 04	 add	 esp, 4
  00038	89 45 f0	 mov	 DWORD PTR $T2[ebp], eax
  0003b	c7 45 fc 00 00
	00 00		 mov	 DWORD PTR __$EHRec$[ebp+8], 0
  00042	85 c0		 test	 eax, eax
  00044	74 0e		 je	 SHORT $LN7@CreateServ
  00046	ff 75 08	 push	 DWORD PTR _nBufferType$[ebp]
  00049	8b c8		 mov	 ecx, eax
  0004b	e8 00 00 00 00	 call	 ??0CServerSock@@QAE@W4BUFFER_TYPE@@@Z ; CServerSock::CServerSock
  00050	8b f0		 mov	 esi, eax
  00052	eb 02		 jmp	 SHORT $LN8@CreateServ
$LN7@CreateServ:
  00054	33 f6		 xor	 esi, esi
$LN8@CreateServ:

; 213  : #endif	// __CRC
; 214  : 	if( !pSock->Create( m_uPort ) )

  00056	8b 16		 mov	 edx, DWORD PTR [esi]
  00058	8b ce		 mov	 ecx, esi
  0005a	0f b7 47 08	 movzx	 eax, WORD PTR [edi+8]
  0005e	6a 01		 push	 1
  00060	50		 push	 eax
  00061	c7 45 fc ff ff
	ff ff		 mov	 DWORD PTR __$EHRec$[ebp+8], -1
  00068	ff 52 04	 call	 DWORD PTR [edx+4]
  0006b	85 c0		 test	 eax, eax
  0006d	75 1d		 jne	 SHORT $LN2@CreateServ
$LN17@CreateServ:

; 234  : }

  0006f	8b 06		 mov	 eax, DWORD PTR [esi]
  00071	8b ce		 mov	 ecx, esi
  00073	6a 01		 push	 1
  00075	ff 10		 call	 DWORD PTR [eax]
  00077	33 c0		 xor	 eax, eax
  00079	8b 4d f4	 mov	 ecx, DWORD PTR __$EHRec$[ebp]
  0007c	64 89 0d 00 00
	00 00		 mov	 DWORD PTR fs:0, ecx
  00083	59		 pop	 ecx
  00084	5f		 pop	 edi
  00085	5e		 pop	 esi
  00086	8b e5		 mov	 esp, ebp
  00088	5d		 pop	 ebp
  00089	c2 04 00	 ret	 4
$LN2@CreateServ:
; File C:\IAGOS\server\v18\Source\Source\_network\CmnHdr.h

; 242  : 	CSystemInfo()	{	GetSystemInfo( this );	}

  0008c	8d 45 cc	 lea	 eax, DWORD PTR _si$[ebp]
  0008f	50		 push	 eax
  00090	ff 15 00 00 00
	00		 call	 DWORD PTR __imp__GetSystemInfo@4
; File C:\IAGOS\server\v18\Source\Source\_Network\Net\Src\DPSock.cpp

; 221  : 	CreateIoWorker( si.dwNumberOfProcessors*2 );

  00096	8b 45 e0	 mov	 eax, DWORD PTR _si$[ebp+20]
  00099	8b cf		 mov	 ecx, edi
  0009b	03 c0		 add	 eax, eax
  0009d	50		 push	 eax
  0009e	e8 00 00 00 00	 call	 ?CreateIoWorker@CDPSock@@AAEHK@Z ; CDPSock::CreateIoWorker

; 222  : 
; 223  : 	pSock->StartServer( m_phCompletionPort, m_uIoWorker );

  000a3	ff 77 2c	 push	 DWORD PTR [edi+44]
  000a6	8b ce		 mov	 ecx, esi
  000a8	ff 77 54	 push	 DWORD PTR [edi+84]
  000ab	e8 00 00 00 00	 call	 ?StartServer@CServerSock@@QAEHPAPAXK@Z ; CServerSock::StartServer

; 224  : 
; 225  : 	if( !pSock->Listen() )

  000b0	8b ce		 mov	 ecx, esi
  000b2	e8 00 00 00 00	 call	 ?Listen@CServerSock@@QAEHXZ ; CServerSock::Listen
  000b7	85 c0		 test	 eax, eax
  000b9	74 b4		 je	 SHORT $LN17@CreateServ

; 226  : 	{
; 227  : 		SAFE_DELETE( pSock );
; 228  : 		return FALSE;
; 229  : 	}
; 230  : 	pSock->SetID( DPID_SERVERPLAYER );

  000bb	c7 46 08 01 00
	00 00		 mov	 DWORD PTR [esi+8], 1

; 231  : 	m_pSock		= pSock;
; 232  : 	m_fServer	= TRUE;
; 233  : 	return TRUE;

  000c2	b8 01 00 00 00	 mov	 eax, 1
  000c7	89 77 04	 mov	 DWORD PTR [edi+4], esi
  000ca	c7 87 90 00 00
	00 01 00 00 00	 mov	 DWORD PTR [edi+144], 1

; 234  : }

  000d4	8b 4d f4	 mov	 ecx, DWORD PTR __$EHRec$[ebp]
  000d7	64 89 0d 00 00
	00 00		 mov	 DWORD PTR fs:0, ecx
  000de	59		 pop	 ecx
  000df	5f		 pop	 edi
  000e0	5e		 pop	 esi
  000e1	8b e5		 mov	 esp, ebp
  000e3	5d		 pop	 ebp
  000e4	c2 04 00	 ret	 4
_TEXT	ENDS
;	COMDAT text$x
text$x	SEGMENT
__unwindfunclet$?CreateServer@CDPSock@@QAEHW4BUFFER_TYPE@@@Z$0:
  00000	6a 50		 push	 80			; 00000050H
  00002	8b 45 f0	 mov	 eax, DWORD PTR $T2[ebp]
  00005	50		 push	 eax
  00006	e8 00 00 00 00	 call	 ??3@YAXPAXI@Z		; operator delete
  0000b	83 c4 08	 add	 esp, 8
  0000e	c3		 ret	 0
  0000f	cc		 int	 3
  00010	cc		 int	 3
  00011	cc		 int	 3
  00012	cc		 int	 3
  00013	cc		 int	 3
__ehhandler$?CreateServer@CDPSock@@QAEHW4BUFFER_TYPE@@@Z:
  00014	90		 npad	 1
  00015	90		 npad	 1
  00016	8b 54 24 08	 mov	 edx, DWORD PTR [esp+8]
  0001a	8d 42 0c	 lea	 eax, DWORD PTR [edx+12]
  0001d	8b 4a cc	 mov	 ecx, DWORD PTR [edx-52]
  00020	33 c8		 xor	 ecx, eax
  00022	e8 00 00 00 00	 call	 @__security_check_cookie@4
  00027	b8 00 00 00 00	 mov	 eax, OFFSET __ehfuncinfo$?CreateServer@CDPSock@@QAEHW4BUFFER_TYPE@@@Z
  0002c	e9 00 00 00 00	 jmp	 ___CxxFrameHandler3
text$x	ENDS
?CreateServer@CDPSock@@QAEHW4BUFFER_TYPE@@@Z ENDP	; CDPSock::CreateServer
; Function compile flags: /Ogtp
; File C:\IAGOS\server\v18\Source\Source\_Network\Net\Src\DPSock.cpp
;	COMDAT ?InitializeConnection@CDPSock@@QAEHPAXK@Z
_TEXT	SEGMENT
_lpConnection$ = 8					; size = 4
_dwFlags$ = 12						; size = 4
?InitializeConnection@CDPSock@@QAEHPAXK@Z PROC		; CDPSock::InitializeConnection, COMDAT
; _this$ = ecx

; 69   : {

  00000	55		 push	 ebp
  00001	8b ec		 mov	 ebp, esp

; 70   : 	if( lpConnection )

  00003	8b 45 08	 mov	 eax, DWORD PTR _lpConnection$[ebp]
  00006	56		 push	 esi
  00007	8b f1		 mov	 esi, ecx
  00009	85 c0		 test	 eax, eax
  0000b	74 11		 je	 SHORT $LN8@Initialize

; 71   : 		strcpy( m_lpAddr, (char*)lpConnection );

  0000d	8b d6		 mov	 edx, esi
  0000f	2b d0		 sub	 edx, eax
$LL4@Initialize:
  00011	8a 08		 mov	 cl, BYTE PTR [eax]
  00013	8d 40 01	 lea	 eax, DWORD PTR [eax+1]
  00016	88 4c 02 09	 mov	 BYTE PTR [edx+eax+9], cl
  0001a	84 c9		 test	 cl, cl
  0001c	75 f3		 jne	 SHORT $LL4@Initialize
$LN8@Initialize:

; 72   : 	m_uPort		= (u_short)dwFlags;
; 73   : 	return TRUE;
; 74   : }

  0001e	66 8b 45 0c	 mov	 ax, WORD PTR _dwFlags$[ebp]
  00022	66 89 46 08	 mov	 WORD PTR [esi+8], ax
  00026	b8 01 00 00 00	 mov	 eax, 1
  0002b	5e		 pop	 esi
  0002c	5d		 pop	 ebp
  0002d	c2 08 00	 ret	 8
?InitializeConnection@CDPSock@@QAEHPAXK@Z ENDP		; CDPSock::InitializeConnection
_TEXT	ENDS
; Function compile flags: /Ogtp
; File C:\IAGOS\server\v18\Source\Source\_Network\Net\Src\DPSock.cpp
; File C:\IAGOS\server\v18\Source\Source\_Network\Mcl\Include\CMclCritSec.h
; File C:\IAGOS\server\v18\Source\Source\_Network\Net\Src\DPSock.cpp
; File C:\Program Files\Microsoft Visual Studio\2022\Professional\VC\Tools\MSVC\14.44.35207\include\list
; File C:\IAGOS\server\v18\Source\Source\_Network\Net\Src\DPSock.cpp
; File C:\Program Files\Microsoft Visual Studio\2022\Professional\VC\Tools\MSVC\14.44.35207\include\list
; File C:\IAGOS\server\v18\Source\Source\_Network\Net\Src\DPSock.cpp
; File C:\Program Files\Microsoft Visual Studio\2022\Professional\VC\Tools\MSVC\14.44.35207\include\list
; File C:\IAGOS\server\v18\Source\Source\_Network\Net\Src\DPSock.cpp
; File C:\IAGOS\server\v18\Source\Source\_Network\Mcl\Include\CMclCritSec.h
; File C:\IAGOS\server\v18\Source\Source\_Network\Net\Src\DPSock.cpp
; File C:\Program Files\Microsoft Visual Studio\2022\Professional\VC\Tools\MSVC\14.44.35207\include\list
; File C:\Program Files\Microsoft Visual Studio\2022\Professional\VC\Tools\MSVC\14.44.35207\include\xmemory
; File C:\Program Files\Microsoft Visual Studio\2022\Professional\VC\Tools\MSVC\14.44.35207\include\list
; File C:\Program Files\Microsoft Visual Studio\2022\Professional\VC\Tools\MSVC\14.44.35207\include\xmemory
; File C:\IAGOS\server\v18\Source\Source\_Network\Net\Src\DPSock.cpp
; File C:\IAGOS\server\v18\Source\Source\_Network\Mcl\Include\CMclCritSec.h
; File C:\IAGOS\server\v18\Source\Source\_Network\Net\Src\DPSock.cpp
;	COMDAT ?RemoveThread@CDPSock@@QAEXPAX@Z
_TEXT	SEGMENT
tv504 = -4						; size = 4
_hThread$ = 8						; size = 4
?RemoveThread@CDPSock@@QAEXPAX@Z PROC			; CDPSock::RemoveThread, COMDAT
; _this$ = ecx

; 164  : {

  00000	55		 push	 ebp
  00001	8b ec		 mov	 ebp, esp
  00003	51		 push	 ecx
  00004	53		 push	 ebx
  00005	8b d9		 mov	 ebx, ecx
; File C:\IAGOS\server\v18\Source\Source\_Network\Mcl\Include\CMclCritSec.h

; 33   : 		::EnterCriticalSection( &m_CritSec );

  00007	8d 43 3c	 lea	 eax, DWORD PTR [ebx+60]
  0000a	50		 push	 eax
  0000b	89 45 fc	 mov	 DWORD PTR tv504[ebp], eax
  0000e	ff 15 00 00 00
	00		 call	 DWORD PTR __imp__EnterCriticalSection@4
; File C:\IAGOS\server\v18\Source\Source\_Network\Net\Src\DPSock.cpp

; 168  : 	if( m_listthread.size() > 0 )

  00014	83 7b 34 00	 cmp	 DWORD PTR [ebx+52], 0
  00018	76 70		 jbe	 SHORT $LN3@RemoveThre
; File C:\Program Files\Microsoft Visual Studio\2022\Professional\VC\Tools\MSVC\14.44.35207\include\list

; 1105 :         return iterator(_Mypair._Myval2._Myhead->_Next, _STD addressof(_Mypair._Myval2));

  0001a	8b 43 30	 mov	 eax, DWORD PTR [ebx+48]
  0001d	56		 push	 esi
  0001e	57		 push	 edi
; File C:\IAGOS\server\v18\Source\Source\_Network\Net\Src\DPSock.cpp

; 170  : 		INIT_LOOP;

  0001f	33 ff		 xor	 edi, edi
; File C:\Program Files\Microsoft Visual Studio\2022\Professional\VC\Tools\MSVC\14.44.35207\include\list

; 37   :     _List_unchecked_const_iterator(_Nodeptr _Pnode, const _Mylist* _Plist) noexcept : _Ptr(_Pnode) {

  00021	8b 30		 mov	 esi, DWORD PTR [eax]

; 202  :         return !(*this == _Right);

  00023	3b f0		 cmp	 esi, eax
; File C:\IAGOS\server\v18\Source\Source\_Network\Net\Src\DPSock.cpp

; 171  : 		for( list<HANDLE>::iterator i = m_listthread.begin(); i != m_listthread.end(); ++i )

  00025	74 61		 je	 SHORT $LN105@RemoveThre
$LL4@RemoveThre:

; 172  : 		{
; 173  : 			VERIFY_LOOP( __FILE__, __LINE__ );

  00027	47		 inc	 edi
  00028	81 ff e8 03 00
	00		 cmp	 edi, 1000		; 000003e8H
  0002e	75 17		 jne	 SHORT $LN6@RemoveThre
  00030	68 ad 00 00 00	 push	 173			; 000000adH
  00035	68 00 00 00 00	 push	 OFFSET ??_C@_0DO@NOJACIOJ@C?3?2IAGOS?2server?2v18?2Source?2Sour@
  0003a	68 00 00 00 00	 push	 OFFSET ??_C@_05DIALNFFA@?$CFs?5?$CFd@
  0003f	e8 00 00 00 00	 call	 ?Error@@YAPBDPBDZZ	; Error
  00044	83 c4 0c	 add	 esp, 12			; 0000000cH
$LN6@RemoveThre:

; 174  : 			h	= *i;
; 175  : 			if( h == hThread )

  00047	8b 45 08	 mov	 eax, DWORD PTR _hThread$[ebp]
  0004a	39 46 08	 cmp	 DWORD PTR [esi+8], eax
  0004d	8b 06		 mov	 eax, DWORD PTR [esi]
  0004f	74 19		 je	 SHORT $LN97@RemoveThre
; File C:\Program Files\Microsoft Visual Studio\2022\Professional\VC\Tools\MSVC\14.44.35207\include\list

; 164  :         this->_Ptr = this->_Ptr->_Next;

  00051	8b f0		 mov	 esi, eax

; 202  :         return !(*this == _Right);

  00053	3b 43 30	 cmp	 eax, DWORD PTR [ebx+48]
; File C:\IAGOS\server\v18\Source\Source\_Network\Net\Src\DPSock.cpp

; 171  : 		for( list<HANDLE>::iterator i = m_listthread.begin(); i != m_listthread.end(); ++i )

  00056	75 cf		 jne	 SHORT $LL4@RemoveThre
  00058	5f		 pop	 edi
  00059	5e		 pop	 esi
; File C:\IAGOS\server\v18\Source\Source\_Network\Mcl\Include\CMclCritSec.h

; 39   : 		::LeaveCriticalSection( &m_CritSec );

  0005a	ff 75 fc	 push	 DWORD PTR tv504[ebp]
  0005d	ff 15 00 00 00
	00		 call	 DWORD PTR __imp__LeaveCriticalSection@4
  00063	5b		 pop	 ebx
; File C:\IAGOS\server\v18\Source\Source\_Network\Net\Src\DPSock.cpp

; 184  : }

  00064	8b e5		 mov	 esp, ebp
  00066	5d		 pop	 ebp
  00067	c2 04 00	 ret	 4
$LN97@RemoveThre:
; File C:\Program Files\Microsoft Visual Studio\2022\Professional\VC\Tools\MSVC\14.44.35207\include\list

; 405  :         _Pnode->_Prev->_Next = _Pnode->_Next;

  0006a	8b 4e 04	 mov	 ecx, DWORD PTR [esi+4]
; File C:\Program Files\Microsoft Visual Studio\2022\Professional\VC\Tools\MSVC\14.44.35207\include\xmemory

; 289  :         ::operator delete(_Ptr, _Bytes);

  0006d	6a 0c		 push	 12			; 0000000cH
  0006f	56		 push	 esi
; File C:\Program Files\Microsoft Visual Studio\2022\Professional\VC\Tools\MSVC\14.44.35207\include\list

; 405  :         _Pnode->_Prev->_Next = _Pnode->_Next;

  00070	89 01		 mov	 DWORD PTR [ecx], eax

; 406  :         _Pnode->_Next->_Prev = _Pnode->_Prev;

  00072	8b 0e		 mov	 ecx, DWORD PTR [esi]
  00074	8b 46 04	 mov	 eax, DWORD PTR [esi+4]
  00077	89 41 04	 mov	 DWORD PTR [ecx+4], eax

; 407  :         --_Mysize;

  0007a	ff 4b 34	 dec	 DWORD PTR [ebx+52]
; File C:\Program Files\Microsoft Visual Studio\2022\Professional\VC\Tools\MSVC\14.44.35207\include\xmemory

; 289  :         ::operator delete(_Ptr, _Bytes);

  0007d	e8 00 00 00 00	 call	 ??3@YAXPAXI@Z		; operator delete
  00082	83 c4 08	 add	 esp, 8
; File C:\IAGOS\server\v18\Source\Source\_Network\Net\Src\DPSock.cpp

; 178  : 				m_uIoWorker--;

  00085	ff 4b 2c	 dec	 DWORD PTR [ebx+44]
$LN105@RemoveThre:
  00088	5f		 pop	 edi
  00089	5e		 pop	 esi
$LN3@RemoveThre:
; File C:\IAGOS\server\v18\Source\Source\_Network\Mcl\Include\CMclCritSec.h

; 39   : 		::LeaveCriticalSection( &m_CritSec );

  0008a	ff 75 fc	 push	 DWORD PTR tv504[ebp]
  0008d	ff 15 00 00 00
	00		 call	 DWORD PTR __imp__LeaveCriticalSection@4
  00093	5b		 pop	 ebx
; File C:\IAGOS\server\v18\Source\Source\_Network\Net\Src\DPSock.cpp

; 184  : }

  00094	8b e5		 mov	 esp, ebp
  00096	5d		 pop	 ebp
  00097	c2 04 00	 ret	 4
?RemoveThread@CDPSock@@QAEXPAX@Z ENDP			; CDPSock::RemoveThread
_TEXT	ENDS
; Function compile flags: /Ogtp
; File C:\IAGOS\server\v18\Source\Source\_Network\Net\Src\DPSock.cpp
; File C:\IAGOS\server\v18\Source\Source\_Network\Mcl\Include\CMclCritSec.h
; File C:\IAGOS\server\v18\Source\Source\_Network\Net\Src\DPSock.cpp
; File C:\IAGOS\server\v18\Source\Source\_Network\Mcl\Include\CMclCritSec.h
; File C:\IAGOS\server\v18\Source\Source\_Network\Net\Src\DPSock.cpp
;	COMDAT ?CreateEventWorker@CDPSock@@QAEHPAVCSock@@@Z
_TEXT	SEGMENT
_dwThreadId$ = -4					; size = 4
_pSock$ = 8						; size = 4
_hThread$ = 8						; size = 4
?CreateEventWorker@CDPSock@@QAEHPAVCSock@@@Z PROC	; CDPSock::CreateEventWorker, COMDAT
; _this$ = ecx

; 145  : {

  00000	55		 push	 ebp
  00001	8b ec		 mov	 ebp, esp
  00003	51		 push	 ecx
  00004	53		 push	 ebx
  00005	8b d9		 mov	 ebx, ecx
  00007	56		 push	 esi
  00008	57		 push	 edi

; 146  : 	HANDLE hThread;
; 147  : 	m_uIoWorker++;
; 148  : 	m_pSockThreaded	= pSock;

  00009	8b 7d 08	 mov	 edi, DWORD PTR _pSock$[ebp]

; 149  : 	CBuffer* pBuffer = ( (CClientSockE*)pSock )->CreateBuffer();

  0000c	8b cf		 mov	 ecx, edi
  0000e	ff 43 2c	 inc	 DWORD PTR [ebx+44]
  00011	89 7b 60	 mov	 DWORD PTR [ebx+96], edi
  00014	e8 00 00 00 00	 call	 ?CreateBuffer@CClientSockE@@QAEPAVCBuffer@@XZ ; CClientSockE::CreateBuffer

; 150  : 	AddCreatePlayerOrGroupMsg( (DPID)pSock->GetHandle(), pBuffer );

  00019	50		 push	 eax
  0001a	ff 77 04	 push	 DWORD PTR [edi+4]
  0001d	8b cb		 mov	 ecx, ebx
  0001f	e8 00 00 00 00	 call	 ?AddCreatePlayerOrGroupMsg@CDPSock@@QAEXKPAVCBuffer@@@Z ; CDPSock::AddCreatePlayerOrGroupMsg

; 151  : //	hThread		= (HANDLE)_beginthread( EventWorkerThread, 0, this );
; 152  : 	DWORD dwThreadId;
; 153  : 	hThread		= chBEGINTHREADEX( NULL, 0, EventWorkerThread, this, 0, &dwThreadId );

  00024	8d 45 fc	 lea	 eax, DWORD PTR _dwThreadId$[ebp]
  00027	50		 push	 eax
  00028	6a 00		 push	 0
  0002a	53		 push	 ebx
  0002b	68 00 00 00 00	 push	 OFFSET ?EventWorkerThread@@YGIPAX@Z ; EventWorkerThread
  00030	6a 00		 push	 0
  00032	6a 00		 push	 0
  00034	e8 00 00 00 00	 call	 __beginthreadex
  00039	83 c4 18	 add	 esp, 24			; 00000018H
  0003c	8b f0		 mov	 esi, eax
  0003e	89 75 08	 mov	 DWORD PTR _hThread$[ebp], esi

; 154  : 	ASSERT( hThread );
; 155  : 	SetThreadPriority( hThread, THREAD_PRIORITY_NORMAL );

  00041	6a 00		 push	 0
  00043	56		 push	 esi
  00044	ff 15 00 00 00
	00		 call	 DWORD PTR __imp__SetThreadPriority@8

; 156  : 	( (CClientSockE*)pSock )->m_hWorker	= hThread;

  0004a	89 77 44	 mov	 DWORD PTR [edi+68], esi
; File C:\IAGOS\server\v18\Source\Source\_Network\Mcl\Include\CMclCritSec.h

; 33   : 		::EnterCriticalSection( &m_CritSec );

  0004d	8d 73 3c	 lea	 esi, DWORD PTR [ebx+60]
  00050	56		 push	 esi
  00051	ff 15 00 00 00
	00		 call	 DWORD PTR __imp__EnterCriticalSection@4
; File C:\IAGOS\server\v18\Source\Source\_Network\Net\Src\DPSock.cpp

; 158  : 	m_listthread.push_back( hThread );

  00057	8d 45 08	 lea	 eax, DWORD PTR _hThread$[ebp]
  0005a	50		 push	 eax
  0005b	8d 4b 30	 lea	 ecx, DWORD PTR [ebx+48]
  0005e	e8 00 00 00 00	 call	 ?push_back@?$list@PAXV?$allocator@PAX@std@@@std@@QAEXABQAX@Z ; std::list<void *,std::allocator<void *> >::push_back
; File C:\IAGOS\server\v18\Source\Source\_Network\Mcl\Include\CMclCritSec.h

; 39   : 		::LeaveCriticalSection( &m_CritSec );

  00063	56		 push	 esi
  00064	ff 15 00 00 00
	00		 call	 DWORD PTR __imp__LeaveCriticalSection@4
; File C:\IAGOS\server\v18\Source\Source\_Network\Net\Src\DPSock.cpp

; 160  : 	return TRUE;

  0006a	5f		 pop	 edi
  0006b	5e		 pop	 esi
  0006c	b8 01 00 00 00	 mov	 eax, 1
  00071	5b		 pop	 ebx

; 161  : }

  00072	8b e5		 mov	 esp, ebp
  00074	5d		 pop	 ebp
  00075	c2 04 00	 ret	 4
?CreateEventWorker@CDPSock@@QAEHPAVCSock@@@Z ENDP	; CDPSock::CreateEventWorker
_TEXT	ENDS
; Function compile flags: /Ogtp
; File C:\IAGOS\server\v18\Source\Source\_Network\Net\Src\DPSock.cpp
;	COMDAT ?Shutdown@CDPSock@@QAEHK@Z
_TEXT	SEGMENT
_dpid$ = 8						; size = 4
?Shutdown@CDPSock@@QAEHK@Z PROC				; CDPSock::Shutdown, COMDAT
; _this$ = ecx

; 466  : {

  00000	55		 push	 ebp
  00001	8b ec		 mov	 ebp, esp

; 467  : 	return ( m_pSock? m_pSock->Shutdown( dpid ): FALSE );

  00003	8b 49 04	 mov	 ecx, DWORD PTR [ecx+4]
  00006	85 c9		 test	 ecx, ecx
  00008	74 06		 je	 SHORT $LN3@Shutdown
  0000a	8b 01		 mov	 eax, DWORD PTR [ecx]

; 468  : }

  0000c	5d		 pop	 ebp

; 467  : 	return ( m_pSock? m_pSock->Shutdown( dpid ): FALSE );

  0000d	ff 60 24	 jmp	 DWORD PTR [eax+36]
$LN3@Shutdown:
  00010	33 c0		 xor	 eax, eax

; 468  : }

  00012	5d		 pop	 ebp
  00013	c2 04 00	 ret	 4
?Shutdown@CDPSock@@QAEHK@Z ENDP				; CDPSock::Shutdown
_TEXT	ENDS
; Function compile flags: /Ogtp
; File C:\IAGOS\server\v18\Source\Source\_Network\Net\Src\DPSock.cpp
;	COMDAT ?CloseConnection@CDPSock@@QAEXK@Z
_TEXT	SEGMENT
_dpid$ = 8						; size = 4
?CloseConnection@CDPSock@@QAEXK@Z PROC			; CDPSock::CloseConnection, COMDAT
; _this$ = ecx

; 452  : {

  00000	55		 push	 ebp
  00001	8b ec		 mov	 ebp, esp
  00003	56		 push	 esi
  00004	8b f1		 mov	 esi, ecx

; 453  : 	if( m_pSock )

  00006	8b 4e 04	 mov	 ecx, DWORD PTR [esi+4]
  00009	85 c9		 test	 ecx, ecx
  0000b	74 47		 je	 SHORT $LN5@CloseConne

; 454  : 	{
; 455  : 		if( m_pSock->CloseConnection( dpid ) )

  0000d	8b 01		 mov	 eax, DWORD PTR [ecx]
  0000f	ff 75 08	 push	 DWORD PTR _dpid$[ebp]
  00012	ff 50 20	 call	 DWORD PTR [eax+32]
  00015	85 c0		 test	 eax, eax
  00017	74 1e		 je	 SHORT $LN3@CloseConne

; 456  : 		{
; 457  : 			CBuffer* pBuffer = CBufferFactory::GetInstance().CreateBuffer( BUFFER_TYPE_5BYTE );

  00019	68 00 20 00 00	 push	 8192			; 00002000H
  0001e	6a 00		 push	 0
  00020	e8 00 00 00 00	 call	 ?GetInstance@CBufferFactory@@SAAAV1@XZ ; CBufferFactory::GetInstance
  00025	8b c8		 mov	 ecx, eax
  00027	e8 00 00 00 00	 call	 ?CreateBuffer@CBufferFactory@@QAEPAVCBuffer@@W4BUFFER_TYPE@@K@Z ; CBufferFactory::CreateBuffer

; 458  : 			AddDestroyPlayerOrGroupMsg( dpid, pBuffer );

  0002c	50		 push	 eax
  0002d	ff 75 08	 push	 DWORD PTR _dpid$[ebp]
  00030	8b ce		 mov	 ecx, esi
  00032	e8 00 00 00 00	 call	 ?AddDestroyPlayerOrGroupMsg@CDPSock@@QAEXKPAVCBuffer@@@Z ; CDPSock::AddDestroyPlayerOrGroupMsg
$LN3@CloseConne:

; 459  : 		}
; 460  : 		if( !m_fServer )

  00037	83 be 90 00 00
	00 00		 cmp	 DWORD PTR [esi+144], 0
  0003e	75 14		 jne	 SHORT $LN5@CloseConne

; 461  : 			SAFE_DELETE( m_pSock );

  00040	8b 4e 04	 mov	 ecx, DWORD PTR [esi+4]
  00043	85 c9		 test	 ecx, ecx
  00045	74 0d		 je	 SHORT $LN5@CloseConne
  00047	8b 01		 mov	 eax, DWORD PTR [ecx]
  00049	6a 01		 push	 1
  0004b	ff 10		 call	 DWORD PTR [eax]
  0004d	c7 46 04 00 00
	00 00		 mov	 DWORD PTR [esi+4], 0
$LN5@CloseConne:
  00054	5e		 pop	 esi

; 462  : 	}
; 463  : }

  00055	5d		 pop	 ebp
  00056	c2 04 00	 ret	 4
?CloseConnection@CDPSock@@QAEXK@Z ENDP			; CDPSock::CloseConnection
_TEXT	ENDS
; Function compile flags: /Ogtp
; File C:\IAGOS\server\v18\Source\Source\_Network\Net\Src\DPSock.cpp
;	COMDAT ?Close@CDPSock@@QAEHXZ
_TEXT	SEGMENT
?Close@CDPSock@@QAEHXZ PROC				; CDPSock::Close, COMDAT
; _this$ = ecx

; 54   : {

  00000	56		 push	 esi
  00001	8b f1		 mov	 esi, ecx

; 55   : 	CloseIoWorker();

  00003	e8 00 00 00 00	 call	 ?CloseIoWorker@CDPSock@@AAEHXZ ; CDPSock::CloseIoWorker

; 56   : #ifdef __PROTOCOL0910
; 57   : 	CLOSE_HANDLE( m_hProtocolId );
; 58   : #endif	// __PROTOCOL0910
; 59   : 	if( m_pSock )

  00008	8b 4e 04	 mov	 ecx, DWORD PTR [esi+4]
  0000b	85 c9		 test	 ecx, ecx
  0000d	74 19		 je	 SHORT $LN3@Close

; 60   : 	{
; 61   : 		m_pSock->Close();

  0000f	8b 01		 mov	 eax, DWORD PTR [ecx]
  00011	ff 50 1c	 call	 DWORD PTR [eax+28]

; 62   : 		SAFE_DELETE( m_pSock );

  00014	8b 4e 04	 mov	 ecx, DWORD PTR [esi+4]
  00017	85 c9		 test	 ecx, ecx
  00019	74 0d		 je	 SHORT $LN3@Close
  0001b	8b 01		 mov	 eax, DWORD PTR [ecx]
  0001d	6a 01		 push	 1
  0001f	ff 10		 call	 DWORD PTR [eax]
  00021	c7 46 04 00 00
	00 00		 mov	 DWORD PTR [esi+4], 0
$LN3@Close:

; 63   : 	}
; 64   : 	m_lspRecvBuffer.Clear( TRUE);	// delete memory

  00028	6a 01		 push	 1
  0002a	8d 4e 64	 lea	 ecx, DWORD PTR [esi+100]
  0002d	e8 00 00 00 00	 call	 ?Clear@CBufferQueue@@QAEXH@Z ; CBufferQueue::Clear

; 65   : 	return TRUE;

  00032	b8 01 00 00 00	 mov	 eax, 1
  00037	5e		 pop	 esi

; 66   : }

  00038	c3		 ret	 0
?Close@CDPSock@@QAEHXZ ENDP				; CDPSock::Close
_TEXT	ENDS
; Function compile flags: /Ogtp
; File C:\IAGOS\server\v18\Source\Source\_Network\Net\Src\DPSock.cpp
; File C:\IAGOS\server\v18\Source\Source\_Network\Mcl\Include\CMclCritSec.h
; File C:\Program Files\Microsoft Visual Studio\2022\Professional\VC\Tools\MSVC\14.44.35207\include\list
; File C:\Program Files\Microsoft Visual Studio\2022\Professional\VC\Tools\MSVC\14.44.35207\include\xmemory
; File C:\Program Files\Microsoft Visual Studio\2022\Professional\VC\Tools\MSVC\14.44.35207\include\list
; File C:\Program Files\Microsoft Visual Studio\2022\Professional\VC\Tools\MSVC\14.44.35207\include\xmemory
; File C:\IAGOS\server\v18\Source\Source\_Network\Net\Src\DPSock.cpp
;	COMDAT ??1CDPSock@@UAE@XZ
_TEXT	SEGMENT
__$EHRec$ = -12						; size = 12
??1CDPSock@@UAE@XZ PROC					; CDPSock::~CDPSock, COMDAT
; _this$ = ecx

; 47   : {

  00000	55		 push	 ebp
  00001	8b ec		 mov	 ebp, esp
  00003	6a ff		 push	 -1
  00005	68 00 00 00 00	 push	 __ehhandler$??1CDPSock@@UAE@XZ
  0000a	64 a1 00 00 00
	00		 mov	 eax, DWORD PTR fs:0
  00010	50		 push	 eax
  00011	56		 push	 esi
  00012	57		 push	 edi
  00013	a1 00 00 00 00	 mov	 eax, DWORD PTR ___security_cookie
  00018	33 c5		 xor	 eax, ebp
  0001a	50		 push	 eax
  0001b	8d 45 f4	 lea	 eax, DWORD PTR __$EHRec$[ebp]
  0001e	64 a3 00 00 00
	00		 mov	 DWORD PTR fs:0, eax
  00024	8b f9		 mov	 edi, ecx

; 48   : 	CLOSE_HANDLE( m_hRecv );

  00026	8b 47 5c	 mov	 eax, DWORD PTR [edi+92]
  00029	c7 07 00 00 00
	00		 mov	 DWORD PTR [edi], OFFSET ??_7CDPSock@@6B@
  0002f	85 c0		 test	 eax, eax
  00031	74 0e		 je	 SHORT $LN2@CDPSock
  00033	50		 push	 eax
  00034	ff 15 00 00 00
	00		 call	 DWORD PTR __imp__CloseHandle@4
  0003a	c7 47 5c 00 00
	00 00		 mov	 DWORD PTR [edi+92], 0
$LN2@CDPSock:

; 49   : 	CLOSE_WSAEVENT( m_hClose );

  00041	8b 47 58	 mov	 eax, DWORD PTR [edi+88]
  00044	85 c0		 test	 eax, eax
  00046	74 0e		 je	 SHORT $LN3@CDPSock
  00048	50		 push	 eax
  00049	ff 15 00 00 00
	00		 call	 DWORD PTR __imp__WSACloseEvent@4
  0004f	c7 47 58 00 00
	00 00		 mov	 DWORD PTR [edi+88], 0
$LN3@CDPSock:

; 50   : 	Close();

  00056	8b cf		 mov	 ecx, edi
  00058	e8 00 00 00 00	 call	 ?Close@CDPSock@@QAEHXZ	; CDPSock::Close

; 51   : }

  0005d	8d 4f 64	 lea	 ecx, DWORD PTR [edi+100]
  00060	e8 00 00 00 00	 call	 ??1CBufferQueue@@UAE@XZ	; CBufferQueue::~CBufferQueue
; File C:\IAGOS\server\v18\Source\Source\_Network\Mcl\Include\CMclCritSec.h

; 27   : 		::DeleteCriticalSection( &m_CritSec );

  00065	8d 47 3c	 lea	 eax, DWORD PTR [edi+60]
  00068	c7 47 38 00 00
	00 00		 mov	 DWORD PTR [edi+56], OFFSET ??_7CMclCritSec@@6B@
  0006f	50		 push	 eax
  00070	ff 15 00 00 00
	00		 call	 DWORD PTR __imp__DeleteCriticalSection@4
; File C:\Program Files\Microsoft Visual Studio\2022\Professional\VC\Tools\MSVC\14.44.35207\include\list

; 1518 :         _Node::_Free_non_head(_Al, _My_data._Myhead);

  00076	8b 4f 30	 mov	 ecx, DWORD PTR [edi+48]

; 324  :         _Head->_Prev->_Next = nullptr;

  00079	8b 41 04	 mov	 eax, DWORD PTR [ecx+4]
  0007c	c7 00 00 00 00
	00		 mov	 DWORD PTR [eax], 0

; 325  : 
; 326  :         auto _Pnode = _Head->_Next;

  00082	8b 01		 mov	 eax, DWORD PTR [ecx]

; 327  :         for (_Nodeptr _Pnext; _Pnode; _Pnode = _Pnext) {

  00084	85 c0		 test	 eax, eax
  00086	74 13		 je	 SHORT $LN66@CDPSock
$LL18@CDPSock:

; 328  :             _Pnext = _Pnode->_Next;

  00088	8b 30		 mov	 esi, DWORD PTR [eax]
; File C:\Program Files\Microsoft Visual Studio\2022\Professional\VC\Tools\MSVC\14.44.35207\include\xmemory

; 289  :         ::operator delete(_Ptr, _Bytes);

  0008a	6a 0c		 push	 12			; 0000000cH
  0008c	50		 push	 eax
  0008d	e8 00 00 00 00	 call	 ??3@YAXPAXI@Z		; operator delete
  00092	83 c4 08	 add	 esp, 8
; File C:\Program Files\Microsoft Visual Studio\2022\Professional\VC\Tools\MSVC\14.44.35207\include\list

; 327  :         for (_Nodeptr _Pnext; _Pnode; _Pnode = _Pnext) {

  00095	8b c6		 mov	 eax, esi
  00097	85 f6		 test	 esi, esi
  00099	75 ed		 jne	 SHORT $LL18@CDPSock
$LN66@CDPSock:
; File C:\Program Files\Microsoft Visual Studio\2022\Professional\VC\Tools\MSVC\14.44.35207\include\xmemory

; 289  :         ::operator delete(_Ptr, _Bytes);

  0009b	6a 0c		 push	 12			; 0000000cH
  0009d	ff 77 30	 push	 DWORD PTR [edi+48]
  000a0	e8 00 00 00 00	 call	 ??3@YAXPAXI@Z		; operator delete
  000a5	83 c4 08	 add	 esp, 8
; File C:\IAGOS\server\v18\Source\Source\_Network\Net\Src\DPSock.cpp

; 51   : }

  000a8	8b 4d f4	 mov	 ecx, DWORD PTR __$EHRec$[ebp]
  000ab	64 89 0d 00 00
	00 00		 mov	 DWORD PTR fs:0, ecx
  000b2	59		 pop	 ecx
  000b3	5f		 pop	 edi
  000b4	5e		 pop	 esi
  000b5	8b e5		 mov	 esp, ebp
  000b7	5d		 pop	 ebp
  000b8	c3		 ret	 0
  000b9	cc		 int	 3
  000ba	cc		 int	 3
  000bb	cc		 int	 3
  000bc	cc		 int	 3
  000bd	cc		 int	 3
_TEXT	ENDS
;	COMDAT text$x
text$x	SEGMENT
__ehhandler$??1CDPSock@@UAE@XZ:
  00000	90		 npad	 1
  00001	90		 npad	 1
  00002	8b 54 24 08	 mov	 edx, DWORD PTR [esp+8]
  00006	8d 42 0c	 lea	 eax, DWORD PTR [edx+12]
  00009	8b 4a f4	 mov	 ecx, DWORD PTR [edx-12]
  0000c	33 c8		 xor	 ecx, eax
  0000e	e8 00 00 00 00	 call	 @__security_check_cookie@4
  00013	b8 00 00 00 00	 mov	 eax, OFFSET __ehfuncinfo$??1CDPSock@@UAE@XZ
  00018	e9 00 00 00 00	 jmp	 ___CxxFrameHandler3
text$x	ENDS
??1CDPSock@@UAE@XZ ENDP					; CDPSock::~CDPSock
; Function compile flags: /Ogtp
; File C:\IAGOS\server\v18\Source\Source\_Network\Net\Src\DPSock.cpp
; File C:\Program Files\Microsoft Visual Studio\2022\Professional\VC\Tools\MSVC\14.44.35207\include\xmemory
; File C:\Program Files\Microsoft Visual Studio\2022\Professional\VC\Tools\MSVC\14.44.35207\include\list
; File C:\Program Files\Microsoft Visual Studio\2022\Professional\VC\Tools\MSVC\14.44.35207\include\xmemory
; File C:\Program Files\Microsoft Visual Studio\2022\Professional\VC\Tools\MSVC\14.44.35207\include\list
; File C:\IAGOS\server\v18\Source\Source\_Network\Mcl\Include\CMclCritSec.h
; File C:\IAGOS\server\v18\Source\Source\_Network\Net\Src\DPSock.cpp
; File C:\IAGOS\server\v18\Source\Source\_Network\Mcl\Include\CMclCritSec.h
; File C:\IAGOS\server\v18\Source\Source\_Network\Net\Src\DPSock.cpp
;	COMDAT ??0CDPSock@@QAE@XZ
_TEXT	SEGMENT
_this$ = -16						; size = 4
__$EHRec$ = -12						; size = 12
??0CDPSock@@QAE@XZ PROC					; CDPSock::CDPSock, COMDAT
; _this$ = ecx

; 25   : {

  00000	55		 push	 ebp
  00001	8b ec		 mov	 ebp, esp
  00003	6a ff		 push	 -1
  00005	68 00 00 00 00	 push	 __ehhandler$??0CDPSock@@QAE@XZ
  0000a	64 a1 00 00 00
	00		 mov	 eax, DWORD PTR fs:0
  00010	50		 push	 eax
  00011	51		 push	 ecx
  00012	56		 push	 esi
  00013	a1 00 00 00 00	 mov	 eax, DWORD PTR ___security_cookie
  00018	33 c5		 xor	 eax, ebp
  0001a	50		 push	 eax
  0001b	8d 45 f4	 lea	 eax, DWORD PTR __$EHRec$[ebp]
  0001e	64 a3 00 00 00
	00		 mov	 DWORD PTR fs:0, eax
  00024	8b f1		 mov	 esi, ecx
  00026	89 75 f0	 mov	 DWORD PTR _this$[ebp], esi
  00029	c7 06 00 00 00
	00		 mov	 DWORD PTR [esi], OFFSET ??_7CDPSock@@6B@
; File C:\Program Files\Microsoft Visual Studio\2022\Professional\VC\Tools\MSVC\14.44.35207\include\xmemory

; 136  :         return ::operator new(_Bytes);

  0002f	6a 0c		 push	 12			; 0000000cH
; File C:\Program Files\Microsoft Visual Studio\2022\Professional\VC\Tools\MSVC\14.44.35207\include\list

; 353  :     _List_val() noexcept : _Myhead(), _Mysize(0) {} // initialize data

  00031	c7 46 30 00 00
	00 00		 mov	 DWORD PTR [esi+48], 0
  00038	c7 46 34 00 00
	00 00		 mov	 DWORD PTR [esi+52], 0
; File C:\Program Files\Microsoft Visual Studio\2022\Professional\VC\Tools\MSVC\14.44.35207\include\xmemory

; 136  :         return ::operator new(_Bytes);

  0003f	e8 00 00 00 00	 call	 ??2@YAPAXI@Z		; operator new
  00044	83 c4 04	 add	 esp, 4
; File C:\Program Files\Microsoft Visual Studio\2022\Professional\VC\Tools\MSVC\14.44.35207\include\list

; 1852 :         _Construct_in_place(_Newhead->_Next, _Newhead);

  00047	89 00		 mov	 DWORD PTR [eax], eax

; 1853 :         _Construct_in_place(_Newhead->_Prev, _Newhead);

  00049	89 40 04	 mov	 DWORD PTR [eax+4], eax

; 1854 :         _Mypair._Myval2._Myhead = _Newhead;

  0004c	89 46 30	 mov	 DWORD PTR [esi+48], eax
; File C:\IAGOS\server\v18\Source\Source\_Network\Mcl\Include\CMclCritSec.h

; 21   : 		::InitializeCriticalSection( &m_CritSec );

  0004f	8d 46 3c	 lea	 eax, DWORD PTR [esi+60]
; File C:\IAGOS\server\v18\Source\Source\_Network\Net\Src\DPSock.cpp

; 25   : {

  00052	c7 45 fc 00 00
	00 00		 mov	 DWORD PTR __$EHRec$[ebp+8], 0
; File C:\IAGOS\server\v18\Source\Source\_Network\Mcl\Include\CMclCritSec.h

; 21   : 		::InitializeCriticalSection( &m_CritSec );

  00059	50		 push	 eax
  0005a	c7 46 38 00 00
	00 00		 mov	 DWORD PTR [esi+56], OFFSET ??_7CMclCritSec@@6B@
  00061	ff 15 00 00 00
	00		 call	 DWORD PTR __imp__InitializeCriticalSection@4
; File C:\IAGOS\server\v18\Source\Source\_Network\Net\Src\DPSock.cpp

; 25   : {

  00067	8d 4e 64	 lea	 ecx, DWORD PTR [esi+100]
  0006a	c6 45 fc 01	 mov	 BYTE PTR __$EHRec$[ebp+8], 1
  0006e	e8 00 00 00 00	 call	 ??0CBufferQueue@@QAE@XZ	; CBufferQueue::CBufferQueue

; 26   : 	m_fServer	= FALSE;
; 27   : 	m_pSock		= NULL;
; 28   : 	m_phCompletionPort	= NULL;
; 29   : 	m_lActiveIoWorker	= 0;
; 30   : 	m_hRecv		= CreateEvent( NULL, FALSE, FALSE, NULL );

  00073	6a 00		 push	 0
  00075	6a 00		 push	 0
  00077	6a 00		 push	 0
  00079	6a 00		 push	 0
  0007b	c7 86 90 00 00
	00 00 00 00 00	 mov	 DWORD PTR [esi+144], 0
  00085	c7 46 04 00 00
	00 00		 mov	 DWORD PTR [esi+4], 0
  0008c	c7 46 54 00 00
	00 00		 mov	 DWORD PTR [esi+84], 0
  00093	c7 86 94 00 00
	00 00 00 00 00	 mov	 DWORD PTR [esi+148], 0
  0009d	ff 15 00 00 00
	00		 call	 DWORD PTR __imp__CreateEventA@16
  000a3	89 46 5c	 mov	 DWORD PTR [esi+92], eax

; 31   : 	ASSERT( m_hRecv );
; 32   : 	m_hClose	= WSACreateEvent();

  000a6	ff 15 00 00 00
	00		 call	 DWORD PTR __imp__WSACreateEvent@0
  000ac	89 46 58	 mov	 DWORD PTR [esi+88], eax
  000af	0f 57 c0	 xorps	 xmm0, xmm0

; 33   : 	ASSERT( m_hClose );
; 34   : 	m_uIoWorker		= 0;

  000b2	c7 46 2c 00 00
	00 00		 mov	 DWORD PTR [esi+44], 0

; 35   : 	memset( m_lpAddr, 0, sizeof(char)*16 );
; 36   : 	m_pSockThreaded		= NULL;
; 37   : #ifdef __CRC
; 38   : 	m_dwReadHeaderSize	= 0;
; 39   : 	m_dwDataSizeOffset	= 0;
; 40   : #endif	// __CRC
; 41   : #ifdef __PROTOCOL0910
; 42   : 	m_hProtocolId	= (HANDLE)0;
; 43   : #endif	// __PROTOCOL0910
; 44   : }

  000b9	8b c6		 mov	 eax, esi
  000bb	0f 11 46 0a	 movups	 XMMWORD PTR [esi+10], xmm0
  000bf	c7 46 60 00 00
	00 00		 mov	 DWORD PTR [esi+96], 0
  000c6	8b 4d f4	 mov	 ecx, DWORD PTR __$EHRec$[ebp]
  000c9	64 89 0d 00 00
	00 00		 mov	 DWORD PTR fs:0, ecx
  000d0	59		 pop	 ecx
  000d1	5e		 pop	 esi
  000d2	8b e5		 mov	 esp, ebp
  000d4	5d		 pop	 ebp
  000d5	c3		 ret	 0
_TEXT	ENDS
;	COMDAT text$x
text$x	SEGMENT
__unwindfunclet$??0CDPSock@@QAE@XZ$0:
  00000	8b 4d f0	 mov	 ecx, DWORD PTR _this$[ebp]
  00003	83 c1 30	 add	 ecx, 48			; 00000030H
  00006	e9 00 00 00 00	 jmp	 ??1?$list@PAXV?$allocator@PAX@std@@@std@@QAE@XZ ; std::list<void *,std::allocator<void *> >::~list<void *,std::allocator<void *> >
__unwindfunclet$??0CDPSock@@QAE@XZ$1:
  0000b	8b 4d f0	 mov	 ecx, DWORD PTR _this$[ebp]
  0000e	83 c1 38	 add	 ecx, 56			; 00000038H
  00011	e9 00 00 00 00	 jmp	 ??1CMclCritSec@@UAE@XZ	; CMclCritSec::~CMclCritSec
  00016	cc		 int	 3
  00017	cc		 int	 3
  00018	cc		 int	 3
  00019	cc		 int	 3
  0001a	cc		 int	 3
__ehhandler$??0CDPSock@@QAE@XZ:
  0001b	90		 npad	 1
  0001c	90		 npad	 1
  0001d	8b 54 24 08	 mov	 edx, DWORD PTR [esp+8]
  00021	8d 42 0c	 lea	 eax, DWORD PTR [edx+12]
  00024	8b 4a f4	 mov	 ecx, DWORD PTR [edx-12]
  00027	33 c8		 xor	 ecx, eax
  00029	e8 00 00 00 00	 call	 @__security_check_cookie@4
  0002e	b8 00 00 00 00	 mov	 eax, OFFSET __ehfuncinfo$??0CDPSock@@QAE@XZ
  00033	e9 00 00 00 00	 jmp	 ___CxxFrameHandler3
text$x	ENDS
??0CDPSock@@QAE@XZ ENDP					; CDPSock::CDPSock
; Function compile flags: /Ogtp
; File C:\IAGOS\server\v18\Source\Source\_Network\Net\Src\DPSock.cpp
; File C:\IAGOS\server\v18\Source\Source\_Network\Mcl\Include\CMclCritSec.h
; File C:\IAGOS\server\v18\Source\Source\_Network\Net\Src\DPSock.cpp
; File C:\Program Files\Microsoft Visual Studio\2022\Professional\VC\Tools\MSVC\14.44.35207\include\list
; File C:\IAGOS\server\v18\Source\Source\_Network\Net\Src\DPSock.cpp
; File C:\Program Files\Microsoft Visual Studio\2022\Professional\VC\Tools\MSVC\14.44.35207\include\xmemory
; File C:\IAGOS\server\v18\Source\Source\_Network\Net\Src\DPSock.cpp
; File C:\Program Files\Microsoft Visual Studio\2022\Professional\VC\Tools\MSVC\14.44.35207\include\list
; File C:\Program Files\Microsoft Visual Studio\2022\Professional\VC\Tools\MSVC\14.44.35207\include\xmemory
; File C:\Program Files\Microsoft Visual Studio\2022\Professional\VC\Tools\MSVC\14.44.35207\include\list
; File C:\Program Files\Microsoft Visual Studio\2022\Professional\VC\Tools\MSVC\14.44.35207\include\xmemory
; File C:\IAGOS\server\v18\Source\Source\_network\CmnHdr.h
; File C:\IAGOS\server\v18\Source\Source\_Network\Net\Src\DPSock.cpp
; File C:\IAGOS\server\v18\Source\Source\_network\CmnHdr.h
; File C:\IAGOS\server\v18\Source\Source\_Network\Net\Src\DPSock.cpp
; File C:\IAGOS\server\v18\Source\Source\_Network\Mcl\Include\CMclCritSec.h
; File C:\IAGOS\server\v18\Source\Source\_Network\Net\Src\DPSock.cpp
; File C:\IAGOS\server\v18\Source\Source\_Network\Mcl\Include\CMclCritSec.h
; File C:\IAGOS\server\v18\Source\Source\_Network\Net\Src\DPSock.cpp
;	COMDAT ?CloseIoWorker@CDPSock@@AAEHXZ
_TEXT	SEGMENT
_this$GSCopy$1$ = -164					; size = 4
___loop$1$ = -160					; size = 4
_lphThread$1$ = -156					; size = 4
_vi$1 = -152						; size = 148
_vi$2 = -152						; size = 148
__$ArrayPad$ = -4					; size = 4
?CloseIoWorker@CDPSock@@AAEHXZ PROC			; CDPSock::CloseIoWorker, COMDAT
; _this$ = ecx

; 102  : {

  00000	55		 push	 ebp
  00001	8b ec		 mov	 ebp, esp
  00003	81 ec a4 00 00
	00		 sub	 esp, 164		; 000000a4H
  00009	a1 00 00 00 00	 mov	 eax, DWORD PTR ___security_cookie
  0000e	33 c5		 xor	 eax, ebp
  00010	89 45 fc	 mov	 DWORD PTR __$ArrayPad$[ebp], eax
  00013	53		 push	 ebx
  00014	56		 push	 esi
  00015	8b f1		 mov	 esi, ecx
  00017	57		 push	 edi
  00018	89 b5 5c ff ff
	ff		 mov	 DWORD PTR _this$GSCopy$1$[ebp], esi
; File C:\IAGOS\server\v18\Source\Source\_Network\Mcl\Include\CMclCritSec.h

; 33   : 		::EnterCriticalSection( &m_CritSec );

  0001e	8d 46 3c	 lea	 eax, DWORD PTR [esi+60]
  00021	50		 push	 eax
  00022	ff 15 00 00 00
	00		 call	 DWORD PTR __imp__EnterCriticalSection@4
; File C:\IAGOS\server\v18\Source\Source\_Network\Net\Src\DPSock.cpp

; 107  : 	cbThread	= m_listthread.size();

  00028	8b 5e 34	 mov	 ebx, DWORD PTR [esi+52]

; 108  : 	if( cbThread > 0 )

  0002b	85 db		 test	 ebx, ebx
  0002d	0f 84 50 01 00
	00		 je	 $LN15@CloseIoWor

; 109  : 	{
; 110  : 		lphThread	= new HANDLE[cbThread];

  00033	b9 04 00 00 00	 mov	 ecx, 4
  00038	8b c3		 mov	 eax, ebx
  0003a	f7 e1		 mul	 ecx
  0003c	b9 ff ff ff ff	 mov	 ecx, -1
  00041	0f 42 c1	 cmovb	 eax, ecx
  00044	50		 push	 eax
  00045	e8 00 00 00 00	 call	 ??_U@YAPAXI@Z		; operator new[]
  0004a	89 85 64 ff ff
	ff		 mov	 DWORD PTR _lphThread$1$[ebp], eax
  00050	83 c4 04	 add	 esp, 4

; 111  : 
; 112  : 		INIT_LOOP;

  00053	33 c0		 xor	 eax, eax

; 113  : 		for( DWORD i = 0; i < cbThread; i++ )

  00055	33 ff		 xor	 edi, edi
  00057	66 0f 1f 84 00
	00 00 00 00	 npad	 9
$LL4@CloseIoWor:

; 114  : 		{
; 115  : 			VERIFY_LOOP( __FILE__, __LINE__ );

  00060	40		 inc	 eax
  00061	89 85 60 ff ff
	ff		 mov	 DWORD PTR ___loop$1$[ebp], eax
  00067	3d e8 03 00 00	 cmp	 eax, 1000		; 000003e8H
  0006c	75 14		 jne	 SHORT $LN12@CloseIoWor
  0006e	6a 73		 push	 115			; 00000073H
  00070	68 00 00 00 00	 push	 OFFSET ??_C@_0DO@NOJACIOJ@C?3?2IAGOS?2server?2v18?2Source?2Sour@
  00075	68 00 00 00 00	 push	 OFFSET ??_C@_05DIALNFFA@?$CFs?5?$CFd@
  0007a	e8 00 00 00 00	 call	 ?Error@@YAPBDPBDZZ	; Error
  0007f	83 c4 0c	 add	 esp, 12			; 0000000cH
$LN12@CloseIoWor:
; File C:\Program Files\Microsoft Visual Studio\2022\Professional\VC\Tools\MSVC\14.44.35207\include\list

; 1225 :         return _Mypair._Myval2._Myhead->_Next->_Myval;

  00082	8b 46 30	 mov	 eax, DWORD PTR [esi+48]
; File C:\IAGOS\server\v18\Source\Source\_Network\Net\Src\DPSock.cpp

; 117  : 			lphThread[i]	= m_listthread.front();

  00085	8b 8d 64 ff ff
	ff		 mov	 ecx, DWORD PTR _lphThread$1$[ebp]
; File C:\Program Files\Microsoft Visual Studio\2022\Professional\VC\Tools\MSVC\14.44.35207\include\xmemory

; 289  :         ::operator delete(_Ptr, _Bytes);

  0008b	6a 0c		 push	 12			; 0000000cH
; File C:\IAGOS\server\v18\Source\Source\_Network\Net\Src\DPSock.cpp

; 117  : 			lphThread[i]	= m_listthread.front();

  0008d	8b 00		 mov	 eax, DWORD PTR [eax]
  0008f	8b 40 08	 mov	 eax, DWORD PTR [eax+8]
  00092	89 04 b9	 mov	 DWORD PTR [ecx+edi*4], eax
; File C:\Program Files\Microsoft Visual Studio\2022\Professional\VC\Tools\MSVC\14.44.35207\include\list

; 1270 :         _Unchecked_erase(_Mypair._Myval2._Myhead->_Next);

  00095	8b 46 30	 mov	 eax, DWORD PTR [esi+48]
  00098	8b 10		 mov	 edx, DWORD PTR [eax]
; File C:\Program Files\Microsoft Visual Studio\2022\Professional\VC\Tools\MSVC\14.44.35207\include\xmemory

; 289  :         ::operator delete(_Ptr, _Bytes);

  0009a	52		 push	 edx
; File C:\Program Files\Microsoft Visual Studio\2022\Professional\VC\Tools\MSVC\14.44.35207\include\list

; 1438 :         const auto _Result = _Pnode->_Next;

  0009b	8b 0a		 mov	 ecx, DWORD PTR [edx]

; 1439 :         _Mypair._Myval2._Orphan_ptr2(_Pnode);
; 1440 :         --_Mypair._Myval2._Mysize;

  0009d	ff 4e 34	 dec	 DWORD PTR [esi+52]

; 1441 :         _Pnode->_Prev->_Next = _Result;

  000a0	8b 42 04	 mov	 eax, DWORD PTR [edx+4]
  000a3	89 08		 mov	 DWORD PTR [eax], ecx

; 1442 :         _Result->_Prev       = _Pnode->_Prev;

  000a5	8b 42 04	 mov	 eax, DWORD PTR [edx+4]
  000a8	89 41 04	 mov	 DWORD PTR [ecx+4], eax
; File C:\Program Files\Microsoft Visual Studio\2022\Professional\VC\Tools\MSVC\14.44.35207\include\xmemory

; 289  :         ::operator delete(_Ptr, _Bytes);

  000ab	e8 00 00 00 00	 call	 ??3@YAXPAXI@Z		; operator delete
; File C:\IAGOS\server\v18\Source\Source\_network\CmnHdr.h

; 229  : 	OSVERSIONINFO vi	= { sizeof(vi) };

  000b0	68 90 00 00 00	 push	 144			; 00000090H
  000b5	8d 85 6c ff ff
	ff		 lea	 eax, DWORD PTR _vi$1[ebp+4]
  000bb	c7 85 68 ff ff
	ff 94 00 00 00	 mov	 DWORD PTR _vi$1[ebp], 148 ; 00000094H
  000c5	6a 00		 push	 0
  000c7	50		 push	 eax
  000c8	e8 00 00 00 00	 call	 _memset
  000cd	83 c4 14	 add	 esp, 20			; 00000014H

; 230  : 	GetVersionEx( &vi );

  000d0	8d 85 68 ff ff
	ff		 lea	 eax, DWORD PTR _vi$1[ebp]
  000d6	50		 push	 eax
  000d7	ff 15 00 00 00
	00		 call	 DWORD PTR __imp__GetVersionExA@4

; 231  : 	return( vi.dwPlatformId != VER_PLATFORM_WIN32_NT );

  000dd	83 bd 78 ff ff
	ff 02		 cmp	 DWORD PTR _vi$1[ebp+16], 2
; File C:\IAGOS\server\v18\Source\Source\_Network\Net\Src\DPSock.cpp

; 119  : 			if( !chWindows9x() )

  000e4	75 12		 jne	 SHORT $LN2@CloseIoWor

; 120  : 			{
; 121  : 				PostQueuedCompletionStatus( m_phCompletionPort[i], CLOSEIOWORKERMSG, TRUE, NULL );

  000e6	8b 46 54	 mov	 eax, DWORD PTR [esi+84]
  000e9	6a 00		 push	 0
  000eb	6a 01		 push	 1
  000ed	6a fe		 push	 -2			; fffffffeH
  000ef	ff 34 b8	 push	 DWORD PTR [eax+edi*4]
  000f2	ff 15 00 00 00
	00		 call	 DWORD PTR __imp__PostQueuedCompletionStatus@16
$LN2@CloseIoWor:

; 113  : 		for( DWORD i = 0; i < cbThread; i++ )

  000f8	8b 85 60 ff ff
	ff		 mov	 eax, DWORD PTR ___loop$1$[ebp]
  000fe	47		 inc	 edi
  000ff	3b fb		 cmp	 edi, ebx
  00101	0f 82 59 ff ff
	ff		 jb	 $LL4@CloseIoWor
; File C:\IAGOS\server\v18\Source\Source\_network\CmnHdr.h

; 229  : 	OSVERSIONINFO vi	= { sizeof(vi) };

  00107	68 90 00 00 00	 push	 144			; 00000090H
  0010c	8d 85 6c ff ff
	ff		 lea	 eax, DWORD PTR _vi$2[ebp+4]
  00112	c7 85 68 ff ff
	ff 94 00 00 00	 mov	 DWORD PTR _vi$2[ebp], 148 ; 00000094H
  0011c	6a 00		 push	 0
  0011e	50		 push	 eax
  0011f	e8 00 00 00 00	 call	 _memset
  00124	83 c4 0c	 add	 esp, 12			; 0000000cH

; 230  : 	GetVersionEx( &vi );

  00127	8d 85 68 ff ff
	ff		 lea	 eax, DWORD PTR _vi$2[ebp]
  0012d	50		 push	 eax
  0012e	ff 15 00 00 00
	00		 call	 DWORD PTR __imp__GetVersionExA@4

; 231  : 	return( vi.dwPlatformId != VER_PLATFORM_WIN32_NT );

  00134	83 bd 78 ff ff
	ff 02		 cmp	 DWORD PTR _vi$2[ebp+16], 2
; File C:\IAGOS\server\v18\Source\Source\_Network\Net\Src\DPSock.cpp

; 124  : 		if( chWindows9x() )

  0013b	74 09		 je	 SHORT $LN14@CloseIoWor

; 125  : 			WSASetEvent( m_hClose );

  0013d	ff 76 58	 push	 DWORD PTR [esi+88]
  00140	ff 15 00 00 00
	00		 call	 DWORD PTR __imp__WSASetEvent@4
$LN14@CloseIoWor:

; 126  : 		WaitForMultipleObjects( cbThread, lphThread, TRUE, INFINITE );

  00146	6a ff		 push	 -1
  00148	6a 01		 push	 1
  0014a	ff b5 64 ff ff
	ff		 push	 DWORD PTR _lphThread$1$[ebp]
  00150	53		 push	 ebx
  00151	ff 15 00 00 00
	00		 call	 DWORD PTR __imp__WaitForMultipleObjects@16
  00157	8b b5 64 ff ff
	ff		 mov	 esi, DWORD PTR _lphThread$1$[ebp]
  0015d	33 ff		 xor	 edi, edi
  0015f	90		 npad	 1
$LL7@CloseIoWor:

; 127  : 
; 128  : 		for( DWORD i = 0; i < cbThread; i++ ) {
; 129  : 			CloseHandle( (HANDLE)lphThread[i] );

  00160	ff 34 be	 push	 DWORD PTR [esi+edi*4]
  00163	ff 15 00 00 00
	00		 call	 DWORD PTR __imp__CloseHandle@4
  00169	47		 inc	 edi
  0016a	3b fb		 cmp	 edi, ebx
  0016c	72 f2		 jb	 SHORT $LL7@CloseIoWor

; 130  : 		}
; 131  : 		SAFE_DELETE_ARRAY( lphThread );

  0016e	8b c6		 mov	 eax, esi
  00170	8b b5 5c ff ff
	ff		 mov	 esi, DWORD PTR _this$GSCopy$1$[ebp]
  00176	85 c0		 test	 eax, eax
  00178	74 09		 je	 SHORT $LN15@CloseIoWor
  0017a	50		 push	 eax
  0017b	e8 00 00 00 00	 call	 ??_V@YAXPAX@Z		; operator delete[]
  00180	83 c4 04	 add	 esp, 4
$LN15@CloseIoWor:

; 132  : 	}
; 133  : 	if( m_phCompletionPort )

  00183	83 7e 54 00	 cmp	 DWORD PTR [esi+84], 0
  00187	74 3f		 je	 SHORT $LN18@CloseIoWor

; 134  : 	{
; 135  : 		for( DWORD iIoWorker = 0; iIoWorker < m_uIoWorker; iIoWorker++ )

  00189	33 ff		 xor	 edi, edi
  0018b	39 7e 2c	 cmp	 DWORD PTR [esi+44], edi
  0018e	76 21		 jbe	 SHORT $LN9@CloseIoWor
$LL10@CloseIoWor:

; 136  : 			CLOSE_HANDLE( m_phCompletionPort[iIoWorker] );

  00190	8b 46 54	 mov	 eax, DWORD PTR [esi+84]
  00193	8b 04 b8	 mov	 eax, DWORD PTR [eax+edi*4]
  00196	85 c0		 test	 eax, eax
  00198	74 11		 je	 SHORT $LN8@CloseIoWor
  0019a	50		 push	 eax
  0019b	ff 15 00 00 00
	00		 call	 DWORD PTR __imp__CloseHandle@4
  001a1	8b 46 54	 mov	 eax, DWORD PTR [esi+84]
  001a4	c7 04 b8 00 00
	00 00		 mov	 DWORD PTR [eax+edi*4], 0
$LN8@CloseIoWor:

; 134  : 	{
; 135  : 		for( DWORD iIoWorker = 0; iIoWorker < m_uIoWorker; iIoWorker++ )

  001ab	47		 inc	 edi
  001ac	3b 7e 2c	 cmp	 edi, DWORD PTR [esi+44]
  001af	72 df		 jb	 SHORT $LL10@CloseIoWor
$LN9@CloseIoWor:

; 137  : 		SAFE_DELETE_ARRAY( m_phCompletionPort );

  001b1	8b 46 54	 mov	 eax, DWORD PTR [esi+84]
  001b4	85 c0		 test	 eax, eax
  001b6	74 10		 je	 SHORT $LN18@CloseIoWor
  001b8	50		 push	 eax
  001b9	e8 00 00 00 00	 call	 ??_V@YAXPAX@Z		; operator delete[]
  001be	83 c4 04	 add	 esp, 4
  001c1	c7 46 54 00 00
	00 00		 mov	 DWORD PTR [esi+84], 0
$LN18@CloseIoWor:
; File C:\IAGOS\server\v18\Source\Source\_Network\Mcl\Include\CMclCritSec.h

; 39   : 		::LeaveCriticalSection( &m_CritSec );

  001c8	8d 46 3c	 lea	 eax, DWORD PTR [esi+60]
; File C:\IAGOS\server\v18\Source\Source\_Network\Net\Src\DPSock.cpp

; 139  : 	m_uIoWorker	= 0;

  001cb	c7 46 2c 00 00
	00 00		 mov	 DWORD PTR [esi+44], 0
; File C:\IAGOS\server\v18\Source\Source\_Network\Mcl\Include\CMclCritSec.h

; 39   : 		::LeaveCriticalSection( &m_CritSec );

  001d2	50		 push	 eax
  001d3	ff 15 00 00 00
	00		 call	 DWORD PTR __imp__LeaveCriticalSection@4
; File C:\IAGOS\server\v18\Source\Source\_Network\Net\Src\DPSock.cpp

; 142  : }

  001d9	8b 4d fc	 mov	 ecx, DWORD PTR __$ArrayPad$[ebp]
  001dc	b8 01 00 00 00	 mov	 eax, 1
  001e1	5f		 pop	 edi
  001e2	5e		 pop	 esi
  001e3	33 cd		 xor	 ecx, ebp
  001e5	5b		 pop	 ebx
  001e6	e8 00 00 00 00	 call	 @__security_check_cookie@4
  001eb	8b e5		 mov	 esp, ebp
  001ed	5d		 pop	 ebp
  001ee	c3		 ret	 0
?CloseIoWorker@CDPSock@@AAEHXZ ENDP			; CDPSock::CloseIoWorker
_TEXT	ENDS
; Function compile flags: /Ogtp
; File C:\IAGOS\server\v18\Source\Source\_Network\Net\Src\DPSock.cpp
; File C:\Program Files\Microsoft Visual Studio\2022\Professional\VC\Tools\MSVC\14.44.35207\include\list
; File C:\Program Files\Microsoft Visual Studio\2022\Professional\VC\Tools\MSVC\14.44.35207\include\xmemory
; File C:\Program Files\Microsoft Visual Studio\2022\Professional\VC\Tools\MSVC\14.44.35207\include\list
; File C:\Program Files\Microsoft Visual Studio\2022\Professional\VC\Tools\MSVC\14.44.35207\include\xmemory
; File C:\Program Files\Microsoft Visual Studio\2022\Professional\VC\Tools\MSVC\14.44.35207\include\list
; File C:\Program Files\Microsoft Visual Studio\2022\Professional\VC\Tools\MSVC\14.44.35207\include\xmemory
; File C:\Program Files\Microsoft Visual Studio\2022\Professional\VC\Tools\MSVC\14.44.35207\include\list
; File C:\IAGOS\server\v18\Source\Source\_Network\Net\Src\DPSock.cpp
; File C:\Program Files\Microsoft Visual Studio\2022\Professional\VC\Tools\MSVC\14.44.35207\include\list
; File C:\IAGOS\server\v18\Source\Source\_Network\Net\Src\DPSock.cpp
; File C:\Program Files\Microsoft Visual Studio\2022\Professional\VC\Tools\MSVC\14.44.35207\include\list
; File C:\IAGOS\server\v18\Source\Source\_Network\Net\Src\DPSock.cpp
;	COMDAT ?CreateIoWorker@CDPSock@@AAEHK@Z
_TEXT	SEGMENT
__Op$2 = -32						; size = 8
_dwThreadId$ = -24					; size = 4
__Where$1$ = -20					; size = 4
_hThread$1$ = -16					; size = 4
__$EHRec$ = -12						; size = 12
_uIoWorker$ = 8						; size = 4
_i$1$ = 8						; size = 4
?CreateIoWorker@CDPSock@@AAEHK@Z PROC			; CDPSock::CreateIoWorker, COMDAT
; _this$ = ecx

; 77   : {

  00000	55		 push	 ebp
  00001	8b ec		 mov	 ebp, esp
  00003	6a ff		 push	 -1
  00005	68 00 00 00 00	 push	 __ehhandler$?CreateIoWorker@CDPSock@@AAEHK@Z
  0000a	64 a1 00 00 00
	00		 mov	 eax, DWORD PTR fs:0
  00010	50		 push	 eax
  00011	83 ec 14	 sub	 esp, 20			; 00000014H
  00014	53		 push	 ebx
  00015	56		 push	 esi
  00016	57		 push	 edi
  00017	a1 00 00 00 00	 mov	 eax, DWORD PTR ___security_cookie
  0001c	33 c5		 xor	 eax, ebp
  0001e	50		 push	 eax
  0001f	8d 45 f4	 lea	 eax, DWORD PTR __$EHRec$[ebp]
  00022	64 a3 00 00 00
	00		 mov	 DWORD PTR fs:0, eax
  00028	8b d9		 mov	 ebx, ecx

; 78   : 	HANDLE hThread;
; 79   : 	
; 80   : 	m_uIoWorker	= uIoWorker;

  0002a	8b 7d 08	 mov	 edi, DWORD PTR _uIoWorker$[ebp]

; 81   : 	m_phCompletionPort	= new HANDLE[uIoWorker];

  0002d	b9 04 00 00 00	 mov	 ecx, 4
  00032	8b c7		 mov	 eax, edi
  00034	89 7b 2c	 mov	 DWORD PTR [ebx+44], edi
  00037	f7 e1		 mul	 ecx
  00039	b9 ff ff ff ff	 mov	 ecx, -1
  0003e	0f 42 c1	 cmovb	 eax, ecx
  00041	50		 push	 eax
  00042	e8 00 00 00 00	 call	 ??_U@YAPAXI@Z		; operator new[]
  00047	83 c4 04	 add	 esp, 4
  0004a	89 43 54	 mov	 DWORD PTR [ebx+84], eax

; 82   : 	for( DWORD iIoWorker = 0; iIoWorker < uIoWorker; iIoWorker++ )

  0004d	33 f6		 xor	 esi, esi
  0004f	85 ff		 test	 edi, edi
  00051	74 21		 je	 SHORT $LN3@CreateIoWo
$LL4@CreateIoWo:

; 83   : 	{
; 84   : 		if( ( m_phCompletionPort[iIoWorker] = CreateIoCompletionPort( INVALID_HANDLE_VALUE, NULL, 0, 0 ) ) == (HANDLE)NULL )

  00053	6a 00		 push	 0
  00055	6a 00		 push	 0
  00057	6a 00		 push	 0
  00059	6a ff		 push	 -1
  0005b	ff 15 00 00 00
	00		 call	 DWORD PTR __imp__CreateIoCompletionPort@16
  00061	8b 4b 54	 mov	 ecx, DWORD PTR [ebx+84]
  00064	89 04 b1	 mov	 DWORD PTR [ecx+esi*4], eax
  00067	85 c0		 test	 eax, eax
  00069	0f 84 d4 00 00
	00		 je	 $LN71@CreateIoWo

; 82   : 	for( DWORD iIoWorker = 0; iIoWorker < uIoWorker; iIoWorker++ )

  0006f	46		 inc	 esi
  00070	3b f7		 cmp	 esi, edi
  00072	72 df		 jb	 SHORT $LL4@CreateIoWo
$LN3@CreateIoWo:

; 86   : 	}
; 87   : 
; 88   : 	DWORD dwThreadId;
; 89   : 	INIT_LOOP;

  00074	33 f6		 xor	 esi, esi

; 90   : 	for( DWORD i = 0; i < m_uIoWorker; i++ )

  00076	89 75 08	 mov	 DWORD PTR _i$1$[ebp], esi
  00079	39 73 2c	 cmp	 DWORD PTR [ebx+44], esi
  0007c	0f 86 a8 00 00
	00		 jbe	 $LN6@CreateIoWo
  00082	8d 7b 30	 lea	 edi, DWORD PTR [ebx+48]
$LL7@CreateIoWo:

; 91   : 	{
; 92   : 		VERIFY_LOOP( __FILE__, __LINE__ );

  00085	46		 inc	 esi
  00086	81 fe e8 03 00
	00		 cmp	 esi, 1000		; 000003e8H
  0008c	75 14		 jne	 SHORT $LN9@CreateIoWo
  0008e	6a 5c		 push	 92			; 0000005cH
  00090	68 00 00 00 00	 push	 OFFSET ??_C@_0DO@NOJACIOJ@C?3?2IAGOS?2server?2v18?2Source?2Sour@
  00095	68 00 00 00 00	 push	 OFFSET ??_C@_05DIALNFFA@?$CFs?5?$CFd@
  0009a	e8 00 00 00 00	 call	 ?Error@@YAPBDPBDZZ	; Error
  0009f	83 c4 0c	 add	 esp, 12			; 0000000cH
$LN9@CreateIoWo:

; 93   : 		hThread		= chBEGINTHREADEX( NULL, 0, IoWorkerThread, this, 0, &dwThreadId );

  000a2	8d 45 e8	 lea	 eax, DWORD PTR _dwThreadId$[ebp]
  000a5	50		 push	 eax
  000a6	6a 00		 push	 0
  000a8	53		 push	 ebx
  000a9	68 00 00 00 00	 push	 OFFSET ?IoWorkerThread@@YGIPAX@Z ; IoWorkerThread
  000ae	6a 00		 push	 0
  000b0	6a 00		 push	 0
  000b2	e8 00 00 00 00	 call	 __beginthreadex
  000b7	83 c4 18	 add	 esp, 24			; 00000018H
  000ba	89 45 f0	 mov	 DWORD PTR _hThread$1$[ebp], eax

; 94   : 		ASSERT( hThread );
; 95   : 		SetThreadPriority( hThread, THREAD_PRIORITY_ABOVE_NORMAL );

  000bd	6a 01		 push	 1
  000bf	50		 push	 eax
  000c0	ff 15 00 00 00
	00		 call	 DWORD PTR __imp__SetThreadPriority@8
; File C:\Program Files\Microsoft Visual Studio\2022\Professional\VC\Tools\MSVC\14.44.35207\include\list

; 1030 :         if (_Mysize == max_size()) {

  000c6	81 7f 04 55 55
	55 15		 cmp	 DWORD PTR [edi+4], 357913941 ; 15555555H

; 1274 :         _Emplace(_Mypair._Myval2._Myhead, _Val);

  000cd	8b 0f		 mov	 ecx, DWORD PTR [edi]
  000cf	89 4d ec	 mov	 DWORD PTR __Where$1$[ebp], ecx

; 1030 :         if (_Mysize == max_size()) {

  000d2	0f 84 81 00 00
	00		 je	 $LN72@CreateIoWo
; File C:\Program Files\Microsoft Visual Studio\2022\Professional\VC\Tools\MSVC\14.44.35207\include\xmemory

; 1160 :     _CONSTEXPR20 explicit _Alloc_construct_ptr(_Alloc& _Al_) : _Al(_Al_), _Ptr(nullptr) {}

  000d8	89 7d e0	 mov	 DWORD PTR __Op$2[ebp], edi

; 136  :         return ::operator new(_Bytes);

  000db	6a 0c		 push	 12			; 0000000cH
; File C:\Program Files\Microsoft Visual Studio\2022\Professional\VC\Tools\MSVC\14.44.35207\include\list

; 593  :     explicit _List_node_emplace_op2(_Alnode& _Al_, _Valtys&&... _Vals) : _Alloc_construct_ptr<_Alnode>(_Al_) {

  000dd	c7 45 fc 00 00
	00 00		 mov	 DWORD PTR __$EHRec$[ebp+8], 0
; File C:\Program Files\Microsoft Visual Studio\2022\Professional\VC\Tools\MSVC\14.44.35207\include\xmemory

; 1167 :         _Ptr = nullptr; // if allocate throws, prevents double-free

  000e4	c7 45 e4 00 00
	00 00		 mov	 DWORD PTR __Op$2[ebp+4], 0

; 136  :         return ::operator new(_Bytes);

  000eb	e8 00 00 00 00	 call	 ??2@YAPAXI@Z		; operator new
; File C:\Program Files\Microsoft Visual Studio\2022\Professional\VC\Tools\MSVC\14.44.35207\include\list

; 608  :         const pointer _Insert_after = _Insert_before->_Prev;

  000f0	8b 55 ec	 mov	 edx, DWORD PTR __Where$1$[ebp]
; File C:\Program Files\Microsoft Visual Studio\2022\Professional\VC\Tools\MSVC\14.44.35207\include\xmemory

; 136  :         return ::operator new(_Bytes);

  000f3	83 c4 04	 add	 esp, 4
; File C:\Program Files\Microsoft Visual Studio\2022\Professional\VC\Tools\MSVC\14.44.35207\include\list

; 595  :         _Alnode_traits::construct(this->_Al, _STD addressof(this->_Ptr->_Myval), _STD forward<_Valtys>(_Vals)...);

  000f6	8b 4d f0	 mov	 ecx, DWORD PTR _hThread$1$[ebp]

; 596  :     }

  000f9	c7 45 fc ff ff
	ff ff		 mov	 DWORD PTR __$EHRec$[ebp+8], -1
  00100	89 48 08	 mov	 DWORD PTR [eax+8], ecx

; 1035 :         ++_Mysize;

  00103	ff 47 04	 inc	 DWORD PTR [edi+4]

; 608  :         const pointer _Insert_after = _Insert_before->_Prev;

  00106	8b 4a 04	 mov	 ecx, DWORD PTR [edx+4]

; 609  :         _Construct_in_place(this->_Ptr->_Next, _Insert_before);

  00109	89 10		 mov	 DWORD PTR [eax], edx

; 610  :         _Construct_in_place(this->_Ptr->_Prev, _Insert_after);

  0010b	89 48 04	 mov	 DWORD PTR [eax+4], ecx

; 613  :         _Insert_before->_Prev = _Result;

  0010e	89 42 04	 mov	 DWORD PTR [edx+4], eax

; 614  :         _Insert_after->_Next  = _Result;

  00111	89 01		 mov	 DWORD PTR [ecx], eax
; File C:\IAGOS\server\v18\Source\Source\_Network\Net\Src\DPSock.cpp

; 90   : 	for( DWORD i = 0; i < m_uIoWorker; i++ )

  00113	8b 45 08	 mov	 eax, DWORD PTR _i$1$[ebp]
  00116	40		 inc	 eax
; File C:\Program Files\Microsoft Visual Studio\2022\Professional\VC\Tools\MSVC\14.44.35207\include\list

; 612  :         this->_Ptr            = pointer{};

  00117	c7 45 e4 00 00
	00 00		 mov	 DWORD PTR __Op$2[ebp+4], 0
; File C:\IAGOS\server\v18\Source\Source\_Network\Net\Src\DPSock.cpp

; 90   : 	for( DWORD i = 0; i < m_uIoWorker; i++ )

  0011e	89 45 08	 mov	 DWORD PTR _i$1$[ebp], eax
  00121	3b 43 2c	 cmp	 eax, DWORD PTR [ebx+44]
  00124	0f 82 5b ff ff
	ff		 jb	 $LL7@CreateIoWo
$LN6@CreateIoWo:

; 96   : 		m_listthread.push_back( hThread );
; 97   : 	}
; 98   : 	return TRUE;

  0012a	b8 01 00 00 00	 mov	 eax, 1

; 99   : }

  0012f	8b 4d f4	 mov	 ecx, DWORD PTR __$EHRec$[ebp]
  00132	64 89 0d 00 00
	00 00		 mov	 DWORD PTR fs:0, ecx
  00139	59		 pop	 ecx
  0013a	5f		 pop	 edi
  0013b	5e		 pop	 esi
  0013c	5b		 pop	 ebx
  0013d	8b e5		 mov	 esp, ebp
  0013f	5d		 pop	 ebp
  00140	c2 04 00	 ret	 4
$LN71@CreateIoWo:

; 85   : 			return FALSE;

  00143	33 c0		 xor	 eax, eax

; 99   : }

  00145	8b 4d f4	 mov	 ecx, DWORD PTR __$EHRec$[ebp]
  00148	64 89 0d 00 00
	00 00		 mov	 DWORD PTR fs:0, ecx
  0014f	59		 pop	 ecx
  00150	5f		 pop	 edi
  00151	5e		 pop	 esi
  00152	5b		 pop	 ebx
  00153	8b e5		 mov	 esp, ebp
  00155	5d		 pop	 ebp
  00156	c2 04 00	 ret	 4
$LN72@CreateIoWo:
; File C:\Program Files\Microsoft Visual Studio\2022\Professional\VC\Tools\MSVC\14.44.35207\include\list

; 1031 :             _Xlength_error("list too long");

  00159	68 00 00 00 00	 push	 OFFSET ??_C@_0O@NKNMEGII@list?5too?5long@
  0015e	e8 00 00 00 00	 call	 ?_Xlength_error@std@@YAXPBD@Z ; std::_Xlength_error
$LN82@CreateIoWo:
  00163	cc		 int	 3
_TEXT	ENDS
;	COMDAT text$x
text$x	SEGMENT
__unwindfunclet$?CreateIoWorker@CDPSock@@AAEHK@Z$1:
  00000	8d 4d e0	 lea	 ecx, DWORD PTR __Op$2[ebp]
  00003	e9 00 00 00 00	 jmp	 ??1?$_Alloc_construct_ptr@V?$allocator@U?$_List_node@PAXPAX@std@@@std@@@std@@QAE@XZ ; std::_Alloc_construct_ptr<std::allocator<std::_List_node<void *,void *> > >::~_Alloc_construct_ptr<std::allocator<std::_List_node<void *,void *> > >
  00008	cc		 int	 3
  00009	cc		 int	 3
  0000a	cc		 int	 3
  0000b	cc		 int	 3
  0000c	cc		 int	 3
__ehhandler$?CreateIoWorker@CDPSock@@AAEHK@Z:
  0000d	90		 npad	 1
  0000e	90		 npad	 1
  0000f	8b 54 24 08	 mov	 edx, DWORD PTR [esp+8]
  00013	8d 42 0c	 lea	 eax, DWORD PTR [edx+12]
  00016	8b 4a dc	 mov	 ecx, DWORD PTR [edx-36]
  00019	33 c8		 xor	 ecx, eax
  0001b	e8 00 00 00 00	 call	 @__security_check_cookie@4
  00020	b8 00 00 00 00	 mov	 eax, OFFSET __ehfuncinfo$?CreateIoWorker@CDPSock@@AAEHK@Z
  00025	e9 00 00 00 00	 jmp	 ___CxxFrameHandler3
text$x	ENDS
?CreateIoWorker@CDPSock@@AAEHK@Z ENDP			; CDPSock::CreateIoWorker
; Function compile flags: /Ogtp
; File C:\Program Files\Microsoft Visual Studio\2022\Professional\VC\Tools\MSVC\14.44.35207\include\xmemory
;	COMDAT ??$_Allocate_manually_vector_aligned@U_Default_allocate_traits@std@@@std@@YAPAXI@Z
_TEXT	SEGMENT
__Bytes$ = 8						; size = 4
??$_Allocate_manually_vector_aligned@U_Default_allocate_traits@std@@@std@@YAPAXI@Z PROC ; std::_Allocate_manually_vector_aligned<std::_Default_allocate_traits>, COMDAT

; 182  : __declspec(allocator) void* _Allocate_manually_vector_aligned(const size_t _Bytes) {

  00000	55		 push	 ebp
  00001	8b ec		 mov	 ebp, esp

; 183  :     // allocate _Bytes manually aligned to at least _Big_allocation_alignment
; 184  :     const size_t _Block_size = _Non_user_size + _Bytes;

  00003	8b 45 08	 mov	 eax, DWORD PTR __Bytes$[ebp]
  00006	8d 48 23	 lea	 ecx, DWORD PTR [eax+35]

; 185  :     if (_Block_size <= _Bytes) {

  00009	3b c8		 cmp	 ecx, eax
  0000b	0f 86 00 00 00
	00		 jbe	 ?_Throw_bad_array_new_length@std@@YAXXZ ; std::_Throw_bad_array_new_length

; 136  :         return ::operator new(_Bytes);

  00011	51		 push	 ecx
  00012	e8 00 00 00 00	 call	 ??2@YAPAXI@Z		; operator new

; 186  :         _Throw_bad_array_new_length(); // add overflow
; 187  :     }
; 188  : 
; 189  :     const uintptr_t _Ptr_container = reinterpret_cast<uintptr_t>(_Traits::_Allocate(_Block_size));

  00017	8b c8		 mov	 ecx, eax

; 136  :         return ::operator new(_Bytes);

  00019	83 c4 04	 add	 esp, 4

; 190  :     _STL_VERIFY(_Ptr_container != 0, "invalid argument"); // validate even in release since we're doing p[-1]

  0001c	85 c9		 test	 ecx, ecx
  0001e	74 0b		 je	 SHORT $LN9@Allocate_m

; 191  :     void* const _Ptr = reinterpret_cast<void*>((_Ptr_container + _Non_user_size) & ~(_Big_allocation_alignment - 1));

  00020	8d 41 23	 lea	 eax, DWORD PTR [ecx+35]
  00023	83 e0 e0	 and	 eax, -32		; ffffffe0H

; 192  :     static_cast<uintptr_t*>(_Ptr)[-1] = _Ptr_container;

  00026	89 48 fc	 mov	 DWORD PTR [eax-4], ecx

; 193  : 
; 194  : #ifdef _DEBUG
; 195  :     static_cast<uintptr_t*>(_Ptr)[-2] = _Big_allocation_sentinel;
; 196  : #endif // defined(_DEBUG)
; 197  :     return _Ptr;
; 198  : }

  00029	5d		 pop	 ebp
  0002a	c3		 ret	 0
$LN9@Allocate_m:

; 190  :     _STL_VERIFY(_Ptr_container != 0, "invalid argument"); // validate even in release since we're doing p[-1]

  0002b	6a 00		 push	 0
  0002d	6a 00		 push	 0
  0002f	6a 00		 push	 0
  00031	6a 00		 push	 0
  00033	6a 00		 push	 0
  00035	e8 00 00 00 00	 call	 __invoke_watson
$LN7@Allocate_m:
  0003a	cc		 int	 3
??$_Allocate_manually_vector_aligned@U_Default_allocate_traits@std@@@std@@YAPAXI@Z ENDP ; std::_Allocate_manually_vector_aligned<std::_Default_allocate_traits>
_TEXT	ENDS
; Function compile flags: /Ogtp
; File C:\Program Files\Microsoft Visual Studio\2022\Professional\VC\Tools\MSVC\14.44.35207\include\list
; File C:\Program Files\Microsoft Visual Studio\2022\Professional\VC\Tools\MSVC\14.44.35207\include\xmemory
; File C:\Program Files\Microsoft Visual Studio\2022\Professional\VC\Tools\MSVC\14.44.35207\include\list
; File C:\Program Files\Microsoft Visual Studio\2022\Professional\VC\Tools\MSVC\14.44.35207\include\xmemory
; File C:\Program Files\Microsoft Visual Studio\2022\Professional\VC\Tools\MSVC\14.44.35207\include\list
; File C:\Program Files\Microsoft Visual Studio\2022\Professional\VC\Tools\MSVC\14.44.35207\include\xmemory
; File C:\Program Files\Microsoft Visual Studio\2022\Professional\VC\Tools\MSVC\14.44.35207\include\list
;	COMDAT ?push_back@?$list@PAXV?$allocator@PAX@std@@@std@@QAEXABQAX@Z
_TEXT	SEGMENT
__Op$2 = -20						; size = 8
__$EHRec$ = -12						; size = 12
__Val$ = 8						; size = 4
?push_back@?$list@PAXV?$allocator@PAX@std@@@std@@QAEXABQAX@Z PROC ; std::list<void *,std::allocator<void *> >::push_back, COMDAT
; _this$ = ecx

; 1273 :     void push_back(const _Ty& _Val) {

  00000	55		 push	 ebp
  00001	8b ec		 mov	 ebp, esp
  00003	6a ff		 push	 -1
  00005	68 00 00 00 00	 push	 __ehhandler$?push_back@?$list@PAXV?$allocator@PAX@std@@@std@@QAEXABQAX@Z
  0000a	64 a1 00 00 00
	00		 mov	 eax, DWORD PTR fs:0
  00010	50		 push	 eax
  00011	83 ec 08	 sub	 esp, 8
  00014	56		 push	 esi
  00015	57		 push	 edi
  00016	a1 00 00 00 00	 mov	 eax, DWORD PTR ___security_cookie
  0001b	33 c5		 xor	 eax, ebp
  0001d	50		 push	 eax
  0001e	8d 45 f4	 lea	 eax, DWORD PTR __$EHRec$[ebp]
  00021	64 a3 00 00 00
	00		 mov	 DWORD PTR fs:0, eax
  00027	8b f1		 mov	 esi, ecx

; 1030 :         if (_Mysize == max_size()) {

  00029	81 7e 04 55 55
	55 15		 cmp	 DWORD PTR [esi+4], 357913941 ; 15555555H

; 1274 :         _Emplace(_Mypair._Myval2._Myhead, _Val);

  00030	8b 3e		 mov	 edi, DWORD PTR [esi]

; 1030 :         if (_Mysize == max_size()) {

  00032	74 46		 je	 SHORT $LN61@push_back
; File C:\Program Files\Microsoft Visual Studio\2022\Professional\VC\Tools\MSVC\14.44.35207\include\xmemory

; 1160 :     _CONSTEXPR20 explicit _Alloc_construct_ptr(_Alloc& _Al_) : _Al(_Al_), _Ptr(nullptr) {}

  00034	89 75 ec	 mov	 DWORD PTR __Op$2[ebp], esi

; 136  :         return ::operator new(_Bytes);

  00037	6a 0c		 push	 12			; 0000000cH
; File C:\Program Files\Microsoft Visual Studio\2022\Professional\VC\Tools\MSVC\14.44.35207\include\list

; 593  :     explicit _List_node_emplace_op2(_Alnode& _Al_, _Valtys&&... _Vals) : _Alloc_construct_ptr<_Alnode>(_Al_) {

  00039	c7 45 fc 00 00
	00 00		 mov	 DWORD PTR __$EHRec$[ebp+8], 0
; File C:\Program Files\Microsoft Visual Studio\2022\Professional\VC\Tools\MSVC\14.44.35207\include\xmemory

; 1167 :         _Ptr = nullptr; // if allocate throws, prevents double-free

  00040	c7 45 f0 00 00
	00 00		 mov	 DWORD PTR __Op$2[ebp+4], 0

; 136  :         return ::operator new(_Bytes);

  00047	e8 00 00 00 00	 call	 ??2@YAPAXI@Z		; operator new
; File C:\Program Files\Microsoft Visual Studio\2022\Professional\VC\Tools\MSVC\14.44.35207\include\list

; 595  :         _Alnode_traits::construct(this->_Al, _STD addressof(this->_Ptr->_Myval), _STD forward<_Valtys>(_Vals)...);

  0004c	8b 4d 08	 mov	 ecx, DWORD PTR __Val$[ebp]
; File C:\Program Files\Microsoft Visual Studio\2022\Professional\VC\Tools\MSVC\14.44.35207\include\xmemory

; 136  :         return ::operator new(_Bytes);

  0004f	83 c4 04	 add	 esp, 4
; File C:\Program Files\Microsoft Visual Studio\2022\Professional\VC\Tools\MSVC\14.44.35207\include\list

; 595  :         _Alnode_traits::construct(this->_Al, _STD addressof(this->_Ptr->_Myval), _STD forward<_Valtys>(_Vals)...);

  00052	8b 09		 mov	 ecx, DWORD PTR [ecx]
  00054	89 48 08	 mov	 DWORD PTR [eax+8], ecx

; 1035 :         ++_Mysize;

  00057	ff 46 04	 inc	 DWORD PTR [esi+4]

; 608  :         const pointer _Insert_after = _Insert_before->_Prev;

  0005a	8b 4f 04	 mov	 ecx, DWORD PTR [edi+4]

; 609  :         _Construct_in_place(this->_Ptr->_Next, _Insert_before);

  0005d	89 38		 mov	 DWORD PTR [eax], edi

; 610  :         _Construct_in_place(this->_Ptr->_Prev, _Insert_after);

  0005f	89 48 04	 mov	 DWORD PTR [eax+4], ecx

; 611  :         const auto _Result    = this->_Ptr;
; 612  :         this->_Ptr            = pointer{};
; 613  :         _Insert_before->_Prev = _Result;

  00062	89 47 04	 mov	 DWORD PTR [edi+4], eax

; 614  :         _Insert_after->_Next  = _Result;

  00065	89 01		 mov	 DWORD PTR [ecx], eax

; 1275 :     }

  00067	8b 4d f4	 mov	 ecx, DWORD PTR __$EHRec$[ebp]
  0006a	64 89 0d 00 00
	00 00		 mov	 DWORD PTR fs:0, ecx
  00071	59		 pop	 ecx
  00072	5f		 pop	 edi
  00073	5e		 pop	 esi
  00074	8b e5		 mov	 esp, ebp
  00076	5d		 pop	 ebp
  00077	c2 04 00	 ret	 4
$LN61@push_back:

; 1031 :             _Xlength_error("list too long");

  0007a	68 00 00 00 00	 push	 OFFSET ??_C@_0O@NKNMEGII@list?5too?5long@
  0007f	e8 00 00 00 00	 call	 ?_Xlength_error@std@@YAXPBD@Z ; std::_Xlength_error
$LN59@push_back:
  00084	cc		 int	 3
_TEXT	ENDS
;	COMDAT text$x
text$x	SEGMENT
__unwindfunclet$?push_back@?$list@PAXV?$allocator@PAX@std@@@std@@QAEXABQAX@Z$1:
  00000	8d 4d ec	 lea	 ecx, DWORD PTR __Op$2[ebp]
  00003	e9 00 00 00 00	 jmp	 ??1?$_Alloc_construct_ptr@V?$allocator@U?$_List_node@PAXPAX@std@@@std@@@std@@QAE@XZ ; std::_Alloc_construct_ptr<std::allocator<std::_List_node<void *,void *> > >::~_Alloc_construct_ptr<std::allocator<std::_List_node<void *,void *> > >
  00008	cc		 int	 3
  00009	cc		 int	 3
  0000a	cc		 int	 3
  0000b	cc		 int	 3
  0000c	cc		 int	 3
__ehhandler$?push_back@?$list@PAXV?$allocator@PAX@std@@@std@@QAEXABQAX@Z:
  0000d	90		 npad	 1
  0000e	90		 npad	 1
  0000f	8b 54 24 08	 mov	 edx, DWORD PTR [esp+8]
  00013	8d 42 0c	 lea	 eax, DWORD PTR [edx+12]
  00016	8b 4a ec	 mov	 ecx, DWORD PTR [edx-20]
  00019	33 c8		 xor	 ecx, eax
  0001b	e8 00 00 00 00	 call	 @__security_check_cookie@4
  00020	b8 00 00 00 00	 mov	 eax, OFFSET __ehfuncinfo$?push_back@?$list@PAXV?$allocator@PAX@std@@@std@@QAEXABQAX@Z
  00025	e9 00 00 00 00	 jmp	 ___CxxFrameHandler3
text$x	ENDS
?push_back@?$list@PAXV?$allocator@PAX@std@@@std@@QAEXABQAX@Z ENDP ; std::list<void *,std::allocator<void *> >::push_back
; Function compile flags: /Ogtp
; File C:\Program Files\Microsoft Visual Studio\2022\Professional\VC\Tools\MSVC\14.44.35207\include\list
; File C:\Program Files\Microsoft Visual Studio\2022\Professional\VC\Tools\MSVC\14.44.35207\include\xmemory
; File C:\Program Files\Microsoft Visual Studio\2022\Professional\VC\Tools\MSVC\14.44.35207\include\list
; File C:\Program Files\Microsoft Visual Studio\2022\Professional\VC\Tools\MSVC\14.44.35207\include\xmemory
; File C:\Program Files\Microsoft Visual Studio\2022\Professional\VC\Tools\MSVC\14.44.35207\include\list
;	COMDAT ??1?$list@PAXV?$allocator@PAX@std@@@std@@QAE@XZ
_TEXT	SEGMENT
??1?$list@PAXV?$allocator@PAX@std@@@std@@QAE@XZ PROC	; std::list<void *,std::allocator<void *> >::~list<void *,std::allocator<void *> >, COMDAT
; _this$ = ecx

; 1060 :     ~list() noexcept {

  00000	57		 push	 edi
  00001	8b f9		 mov	 edi, ecx

; 1518 :         _Node::_Free_non_head(_Al, _My_data._Myhead);

  00003	8b 17		 mov	 edx, DWORD PTR [edi]

; 324  :         _Head->_Prev->_Next = nullptr;

  00005	8b 42 04	 mov	 eax, DWORD PTR [edx+4]
  00008	c7 00 00 00 00
	00		 mov	 DWORD PTR [eax], 0

; 325  : 
; 326  :         auto _Pnode = _Head->_Next;

  0000e	8b 02		 mov	 eax, DWORD PTR [edx]

; 327  :         for (_Nodeptr _Pnext; _Pnode; _Pnode = _Pnext) {

  00010	85 c0		 test	 eax, eax
  00012	74 15		 je	 SHORT $LN57@list
  00014	56		 push	 esi
$LL10@list:

; 328  :             _Pnext = _Pnode->_Next;

  00015	8b 30		 mov	 esi, DWORD PTR [eax]
; File C:\Program Files\Microsoft Visual Studio\2022\Professional\VC\Tools\MSVC\14.44.35207\include\xmemory

; 289  :         ::operator delete(_Ptr, _Bytes);

  00017	6a 0c		 push	 12			; 0000000cH
  00019	50		 push	 eax
  0001a	e8 00 00 00 00	 call	 ??3@YAXPAXI@Z		; operator delete
  0001f	83 c4 08	 add	 esp, 8
; File C:\Program Files\Microsoft Visual Studio\2022\Professional\VC\Tools\MSVC\14.44.35207\include\list

; 327  :         for (_Nodeptr _Pnext; _Pnode; _Pnode = _Pnext) {

  00022	8b c6		 mov	 eax, esi
  00024	85 f6		 test	 esi, esi
  00026	75 ed		 jne	 SHORT $LL10@list
  00028	5e		 pop	 esi
$LN57@list:
; File C:\Program Files\Microsoft Visual Studio\2022\Professional\VC\Tools\MSVC\14.44.35207\include\xmemory

; 289  :         ::operator delete(_Ptr, _Bytes);

  00029	6a 0c		 push	 12			; 0000000cH
  0002b	ff 37		 push	 DWORD PTR [edi]
  0002d	e8 00 00 00 00	 call	 ??3@YAXPAXI@Z		; operator delete
  00032	83 c4 08	 add	 esp, 8
  00035	5f		 pop	 edi
; File C:\Program Files\Microsoft Visual Studio\2022\Professional\VC\Tools\MSVC\14.44.35207\include\list

; 1066 :     }

  00036	c3		 ret	 0
??1?$list@PAXV?$allocator@PAX@std@@@std@@QAE@XZ ENDP	; std::list<void *,std::allocator<void *> >::~list<void *,std::allocator<void *> >
_TEXT	ENDS
; Function compile flags: /Ogtp
; File C:\IAGOS\server\v18\Source\Source\_Network\Mcl\Include\CMclCritSec.h
;	COMDAT ??_GCMclCritSec@@UAEPAXI@Z
_TEXT	SEGMENT
___flags$ = 8						; size = 4
??_GCMclCritSec@@UAEPAXI@Z PROC				; CMclCritSec::`scalar deleting destructor', COMDAT
; _this$ = ecx
  00000	55		 push	 ebp
  00001	8b ec		 mov	 ebp, esp

; 26   : 	{

  00003	56		 push	 esi
  00004	8b f1		 mov	 esi, ecx

; 27   : 		::DeleteCriticalSection( &m_CritSec );

  00006	8d 46 04	 lea	 eax, DWORD PTR [esi+4]
  00009	c7 06 00 00 00
	00		 mov	 DWORD PTR [esi], OFFSET ??_7CMclCritSec@@6B@
  0000f	50		 push	 eax
  00010	ff 15 00 00 00
	00		 call	 DWORD PTR __imp__DeleteCriticalSection@4
  00016	f6 45 08 01	 test	 BYTE PTR ___flags$[ebp], 1
  0001a	74 0b		 je	 SHORT $LN8@scalar
  0001c	6a 1c		 push	 28			; 0000001cH
  0001e	56		 push	 esi
  0001f	e8 00 00 00 00	 call	 ??3@YAXPAXI@Z		; operator delete
  00024	83 c4 08	 add	 esp, 8
$LN8@scalar:
  00027	8b c6		 mov	 eax, esi
  00029	5e		 pop	 esi
  0002a	5d		 pop	 ebp
  0002b	c2 04 00	 ret	 4
??_GCMclCritSec@@UAEPAXI@Z ENDP				; CMclCritSec::`scalar deleting destructor'
_TEXT	ENDS
; Function compile flags: /Ogtp
; File C:\IAGOS\server\v18\Source\Source\_Network\Mcl\Include\CMclCritSec.h
;	COMDAT ??1CMclCritSec@@UAE@XZ
_TEXT	SEGMENT
??1CMclCritSec@@UAE@XZ PROC				; CMclCritSec::~CMclCritSec, COMDAT
; _this$ = ecx

; 27   : 		::DeleteCriticalSection( &m_CritSec );

  00000	8d 41 04	 lea	 eax, DWORD PTR [ecx+4]
  00003	c7 01 00 00 00
	00		 mov	 DWORD PTR [ecx], OFFSET ??_7CMclCritSec@@6B@
  00009	50		 push	 eax
  0000a	ff 15 00 00 00
	00		 call	 DWORD PTR __imp__DeleteCriticalSection@4

; 28   : 	}

  00010	c3		 ret	 0
??1CMclCritSec@@UAE@XZ ENDP				; CMclCritSec::~CMclCritSec
_TEXT	ENDS
; Function compile flags: /Ogtp
; File C:\Program Files\Microsoft Visual Studio\2022\Professional\VC\Tools\MSVC\14.44.35207\include\xmemory
;	COMDAT ?_Throw_bad_array_new_length@std@@YAXXZ
_TEXT	SEGMENT
$T1 = -12						; size = 12
?_Throw_bad_array_new_length@std@@YAXXZ PROC		; std::_Throw_bad_array_new_length, COMDAT

; 107  : [[noreturn]] inline void _Throw_bad_array_new_length() {

  00000	55		 push	 ebp
  00001	8b ec		 mov	 ebp, esp
  00003	83 ec 0c	 sub	 esp, 12			; 0000000cH

; 108  :     _THROW(bad_array_new_length{});

  00006	8d 4d f4	 lea	 ecx, DWORD PTR $T1[ebp]
  00009	e8 00 00 00 00	 call	 ??0bad_array_new_length@std@@QAE@XZ ; std::bad_array_new_length::bad_array_new_length
  0000e	68 00 00 00 00	 push	 OFFSET __TI3?AVbad_array_new_length@std@@
  00013	8d 45 f4	 lea	 eax, DWORD PTR $T1[ebp]
  00016	50		 push	 eax
  00017	e8 00 00 00 00	 call	 __CxxThrowException@8
$LN3@Throw_bad_:
  0001c	cc		 int	 3
?_Throw_bad_array_new_length@std@@YAXXZ ENDP		; std::_Throw_bad_array_new_length
_TEXT	ENDS
; Function compile flags: /Ogtp
; File C:\Program Files\Microsoft Visual Studio\2022\Professional\VC\Tools\MSVC\14.44.35207\include\vcruntime_exception.h
;	COMDAT ??_Gbad_array_new_length@std@@UAEPAXI@Z
_TEXT	SEGMENT
___flags$ = 8						; size = 4
??_Gbad_array_new_length@std@@UAEPAXI@Z PROC		; std::bad_array_new_length::`scalar deleting destructor', COMDAT
; _this$ = ecx
  00000	55		 push	 ebp
  00001	8b ec		 mov	 ebp, esp

; 90   :     {

  00003	56		 push	 esi
  00004	8b f1		 mov	 esi, ecx

; 91   :         __std_exception_destroy(&_Data);

  00006	8d 46 04	 lea	 eax, DWORD PTR [esi+4]
  00009	c7 06 00 00 00
	00		 mov	 DWORD PTR [esi], OFFSET ??_7exception@std@@6B@
  0000f	50		 push	 eax
  00010	e8 00 00 00 00	 call	 ___std_exception_destroy
  00015	83 c4 04	 add	 esp, 4
  00018	f6 45 08 01	 test	 BYTE PTR ___flags$[ebp], 1
  0001c	74 0b		 je	 SHORT $LN18@scalar
  0001e	6a 0c		 push	 12			; 0000000cH
  00020	56		 push	 esi
  00021	e8 00 00 00 00	 call	 ??3@YAXPAXI@Z		; operator delete
  00026	83 c4 08	 add	 esp, 8
$LN18@scalar:
  00029	8b c6		 mov	 eax, esi
  0002b	5e		 pop	 esi
  0002c	5d		 pop	 ebp
  0002d	c2 04 00	 ret	 4
??_Gbad_array_new_length@std@@UAEPAXI@Z ENDP		; std::bad_array_new_length::`scalar deleting destructor'
_TEXT	ENDS
; Function compile flags: /Ogtp
; File C:\Program Files\Microsoft Visual Studio\2022\Professional\VC\Tools\MSVC\14.44.35207\include\vcruntime_exception.h
;	COMDAT ??0bad_array_new_length@std@@QAE@ABV01@@Z
_TEXT	SEGMENT
___that$ = 8						; size = 4
??0bad_array_new_length@std@@QAE@ABV01@@Z PROC		; std::bad_array_new_length::bad_array_new_length, COMDAT
; _this$ = ecx
  00000	55		 push	 ebp
  00001	8b ec		 mov	 ebp, esp

; 73   :     {

  00003	56		 push	 esi
  00004	8b f1		 mov	 esi, ecx
  00006	0f 57 c0	 xorps	 xmm0, xmm0

; 72   :         : _Data()

  00009	8d 46 04	 lea	 eax, DWORD PTR [esi+4]

; 74   :         __std_exception_copy(&_Other._Data, &_Data);

  0000c	50		 push	 eax
  0000d	c7 06 00 00 00
	00		 mov	 DWORD PTR [esi], OFFSET ??_7exception@std@@6B@
  00013	66 0f d6 00	 movq	 QWORD PTR [eax], xmm0
  00017	8b 45 08	 mov	 eax, DWORD PTR ___that$[ebp]
  0001a	83 c0 04	 add	 eax, 4
  0001d	50		 push	 eax
  0001e	e8 00 00 00 00	 call	 ___std_exception_copy
  00023	83 c4 08	 add	 esp, 8
  00026	c7 06 00 00 00
	00		 mov	 DWORD PTR [esi], OFFSET ??_7bad_array_new_length@std@@6B@
  0002c	8b c6		 mov	 eax, esi
  0002e	5e		 pop	 esi
  0002f	5d		 pop	 ebp
  00030	c2 04 00	 ret	 4
??0bad_array_new_length@std@@QAE@ABV01@@Z ENDP		; std::bad_array_new_length::bad_array_new_length
_TEXT	ENDS
; Function compile flags: /Ogtp
; File C:\Program Files\Microsoft Visual Studio\2022\Professional\VC\Tools\MSVC\14.44.35207\include\vcruntime_exception.h
;	COMDAT ??1bad_array_new_length@std@@UAE@XZ
_TEXT	SEGMENT
??1bad_array_new_length@std@@UAE@XZ PROC		; std::bad_array_new_length::~bad_array_new_length, COMDAT
; _this$ = ecx

; 91   :         __std_exception_destroy(&_Data);

  00000	8d 41 04	 lea	 eax, DWORD PTR [ecx+4]
  00003	c7 01 00 00 00
	00		 mov	 DWORD PTR [ecx], OFFSET ??_7exception@std@@6B@
  00009	50		 push	 eax
  0000a	e8 00 00 00 00	 call	 ___std_exception_destroy
  0000f	59		 pop	 ecx
  00010	c3		 ret	 0
??1bad_array_new_length@std@@UAE@XZ ENDP		; std::bad_array_new_length::~bad_array_new_length
_TEXT	ENDS
; Function compile flags: /Ogtp
; File C:\Program Files\Microsoft Visual Studio\2022\Professional\VC\Tools\MSVC\14.44.35207\include\vcruntime_exception.h
;	COMDAT ??0bad_array_new_length@std@@QAE@XZ
_TEXT	SEGMENT
??0bad_array_new_length@std@@QAE@XZ PROC		; std::bad_array_new_length::bad_array_new_length, COMDAT
; _this$ = ecx

; 144  :     {

  00000	0f 57 c0	 xorps	 xmm0, xmm0

; 145  :     }

  00003	8b c1		 mov	 eax, ecx

; 66   :         : _Data()

  00005	66 0f d6 41 04	 movq	 QWORD PTR [ecx+4], xmm0

; 67   :     {
; 68   :         _Data._What = _Message;

  0000a	c7 41 04 00 00
	00 00		 mov	 DWORD PTR [ecx+4], OFFSET ??_C@_0BF@KINCDENJ@bad?5array?5new?5length@

; 144  :     {

  00011	c7 01 00 00 00
	00		 mov	 DWORD PTR [ecx], OFFSET ??_7bad_array_new_length@std@@6B@

; 145  :     }

  00017	c3		 ret	 0
??0bad_array_new_length@std@@QAE@XZ ENDP		; std::bad_array_new_length::bad_array_new_length
_TEXT	ENDS
; Function compile flags: /Ogtp
; File C:\Program Files\Microsoft Visual Studio\2022\Professional\VC\Tools\MSVC\14.44.35207\include\vcruntime_exception.h
;	COMDAT ??_Gbad_alloc@std@@UAEPAXI@Z
_TEXT	SEGMENT
___flags$ = 8						; size = 4
??_Gbad_alloc@std@@UAEPAXI@Z PROC			; std::bad_alloc::`scalar deleting destructor', COMDAT
; _this$ = ecx
  00000	55		 push	 ebp
  00001	8b ec		 mov	 ebp, esp

; 90   :     {

  00003	56		 push	 esi
  00004	8b f1		 mov	 esi, ecx

; 91   :         __std_exception_destroy(&_Data);

  00006	8d 46 04	 lea	 eax, DWORD PTR [esi+4]
  00009	c7 06 00 00 00
	00		 mov	 DWORD PTR [esi], OFFSET ??_7exception@std@@6B@
  0000f	50		 push	 eax
  00010	e8 00 00 00 00	 call	 ___std_exception_destroy
  00015	83 c4 04	 add	 esp, 4
  00018	f6 45 08 01	 test	 BYTE PTR ___flags$[ebp], 1
  0001c	74 0b		 je	 SHORT $LN13@scalar
  0001e	6a 0c		 push	 12			; 0000000cH
  00020	56		 push	 esi
  00021	e8 00 00 00 00	 call	 ??3@YAXPAXI@Z		; operator delete
  00026	83 c4 08	 add	 esp, 8
$LN13@scalar:
  00029	8b c6		 mov	 eax, esi
  0002b	5e		 pop	 esi
  0002c	5d		 pop	 ebp
  0002d	c2 04 00	 ret	 4
??_Gbad_alloc@std@@UAEPAXI@Z ENDP			; std::bad_alloc::`scalar deleting destructor'
_TEXT	ENDS
; Function compile flags: /Ogtp
; File C:\Program Files\Microsoft Visual Studio\2022\Professional\VC\Tools\MSVC\14.44.35207\include\vcruntime_exception.h
;	COMDAT ??0bad_alloc@std@@QAE@ABV01@@Z
_TEXT	SEGMENT
___that$ = 8						; size = 4
??0bad_alloc@std@@QAE@ABV01@@Z PROC			; std::bad_alloc::bad_alloc, COMDAT
; _this$ = ecx
  00000	55		 push	 ebp
  00001	8b ec		 mov	 ebp, esp

; 73   :     {

  00003	56		 push	 esi
  00004	8b f1		 mov	 esi, ecx
  00006	0f 57 c0	 xorps	 xmm0, xmm0

; 72   :         : _Data()

  00009	8d 46 04	 lea	 eax, DWORD PTR [esi+4]

; 74   :         __std_exception_copy(&_Other._Data, &_Data);

  0000c	50		 push	 eax
  0000d	c7 06 00 00 00
	00		 mov	 DWORD PTR [esi], OFFSET ??_7exception@std@@6B@
  00013	66 0f d6 00	 movq	 QWORD PTR [eax], xmm0
  00017	8b 45 08	 mov	 eax, DWORD PTR ___that$[ebp]
  0001a	83 c0 04	 add	 eax, 4
  0001d	50		 push	 eax
  0001e	e8 00 00 00 00	 call	 ___std_exception_copy
  00023	83 c4 08	 add	 esp, 8
  00026	c7 06 00 00 00
	00		 mov	 DWORD PTR [esi], OFFSET ??_7bad_alloc@std@@6B@
  0002c	8b c6		 mov	 eax, esi
  0002e	5e		 pop	 esi
  0002f	5d		 pop	 ebp
  00030	c2 04 00	 ret	 4
??0bad_alloc@std@@QAE@ABV01@@Z ENDP			; std::bad_alloc::bad_alloc
_TEXT	ENDS
; Function compile flags: /Ogtp
; File C:\Program Files\Microsoft Visual Studio\2022\Professional\VC\Tools\MSVC\14.44.35207\include\vcruntime_exception.h
;	COMDAT ??_Gexception@std@@UAEPAXI@Z
_TEXT	SEGMENT
___flags$ = 8						; size = 4
??_Gexception@std@@UAEPAXI@Z PROC			; std::exception::`scalar deleting destructor', COMDAT
; _this$ = ecx
  00000	55		 push	 ebp
  00001	8b ec		 mov	 ebp, esp

; 90   :     {

  00003	56		 push	 esi
  00004	8b f1		 mov	 esi, ecx

; 91   :         __std_exception_destroy(&_Data);

  00006	8d 46 04	 lea	 eax, DWORD PTR [esi+4]
  00009	c7 06 00 00 00
	00		 mov	 DWORD PTR [esi], OFFSET ??_7exception@std@@6B@
  0000f	50		 push	 eax
  00010	e8 00 00 00 00	 call	 ___std_exception_destroy
  00015	83 c4 04	 add	 esp, 4
  00018	f6 45 08 01	 test	 BYTE PTR ___flags$[ebp], 1
  0001c	74 0b		 je	 SHORT $LN8@scalar
  0001e	6a 0c		 push	 12			; 0000000cH
  00020	56		 push	 esi
  00021	e8 00 00 00 00	 call	 ??3@YAXPAXI@Z		; operator delete
  00026	83 c4 08	 add	 esp, 8
$LN8@scalar:
  00029	8b c6		 mov	 eax, esi
  0002b	5e		 pop	 esi
  0002c	5d		 pop	 ebp
  0002d	c2 04 00	 ret	 4
??_Gexception@std@@UAEPAXI@Z ENDP			; std::exception::`scalar deleting destructor'
_TEXT	ENDS
; Function compile flags: /Ogtp
; File C:\Program Files\Microsoft Visual Studio\2022\Professional\VC\Tools\MSVC\14.44.35207\include\vcruntime_exception.h
;	COMDAT ?what@exception@std@@UBEPBDXZ
_TEXT	SEGMENT
?what@exception@std@@UBEPBDXZ PROC			; std::exception::what, COMDAT
; _this$ = ecx

; 96   :         return _Data._What ? _Data._What : "Unknown exception";

  00000	8b 49 04	 mov	 ecx, DWORD PTR [ecx+4]
  00003	b8 00 00 00 00	 mov	 eax, OFFSET ??_C@_0BC@EOODALEL@Unknown?5exception@
  00008	85 c9		 test	 ecx, ecx
  0000a	0f 45 c1	 cmovne	 eax, ecx

; 97   :     }

  0000d	c3		 ret	 0
?what@exception@std@@UBEPBDXZ ENDP			; std::exception::what
_TEXT	ENDS
; Function compile flags: /Ogtp
; File C:\Program Files\Microsoft Visual Studio\2022\Professional\VC\Tools\MSVC\14.44.35207\include\vcruntime_exception.h
;	COMDAT ??1exception@std@@UAE@XZ
_TEXT	SEGMENT
??1exception@std@@UAE@XZ PROC				; std::exception::~exception, COMDAT
; _this$ = ecx

; 91   :         __std_exception_destroy(&_Data);

  00000	8d 41 04	 lea	 eax, DWORD PTR [ecx+4]
  00003	c7 01 00 00 00
	00		 mov	 DWORD PTR [ecx], OFFSET ??_7exception@std@@6B@
  00009	50		 push	 eax
  0000a	e8 00 00 00 00	 call	 ___std_exception_destroy
  0000f	59		 pop	 ecx

; 92   :     }

  00010	c3		 ret	 0
??1exception@std@@UAE@XZ ENDP				; std::exception::~exception
_TEXT	ENDS
; Function compile flags: /Ogtp
; File C:\Program Files\Microsoft Visual Studio\2022\Professional\VC\Tools\MSVC\14.44.35207\include\vcruntime_exception.h
;	COMDAT ??0exception@std@@QAE@ABV01@@Z
_TEXT	SEGMENT
__Other$ = 8						; size = 4
??0exception@std@@QAE@ABV01@@Z PROC			; std::exception::exception, COMDAT
; _this$ = ecx

; 73   :     {

  00000	55		 push	 ebp
  00001	8b ec		 mov	 ebp, esp
  00003	56		 push	 esi
  00004	8b f1		 mov	 esi, ecx
  00006	0f 57 c0	 xorps	 xmm0, xmm0
  00009	8d 46 04	 lea	 eax, DWORD PTR [esi+4]

; 74   :         __std_exception_copy(&_Other._Data, &_Data);

  0000c	50		 push	 eax
  0000d	c7 06 00 00 00
	00		 mov	 DWORD PTR [esi], OFFSET ??_7exception@std@@6B@
  00013	66 0f d6 00	 movq	 QWORD PTR [eax], xmm0
  00017	8b 45 08	 mov	 eax, DWORD PTR __Other$[ebp]
  0001a	83 c0 04	 add	 eax, 4
  0001d	50		 push	 eax
  0001e	e8 00 00 00 00	 call	 ___std_exception_copy
  00023	83 c4 08	 add	 esp, 8

; 75   :     }

  00026	8b c6		 mov	 eax, esi
  00028	5e		 pop	 esi
  00029	5d		 pop	 ebp
  0002a	c2 04 00	 ret	 4
??0exception@std@@QAE@ABV01@@Z ENDP			; std::exception::exception
_TEXT	ENDS
; Function compile flags: /Ogtp
; File C:\IAGOS\server\v18\Source\Source\_Network\Net\Src\DPSock.cpp
;	COMDAT ?__empty_global_delete@@YAXPAXI@Z
_TEXT	SEGMENT
___formal$ = 8						; size = 4
___formal$ = 12						; size = 4
?__empty_global_delete@@YAXPAXI@Z PROC			; __empty_global_delete, COMDAT

  00000	c2 00 00	 ret	 0
?__empty_global_delete@@YAXPAXI@Z ENDP			; __empty_global_delete
_TEXT	ENDS
; Function compile flags: /Ogtp
; File C:\IAGOS\server\v18\Source\Source\_Network\Net\Src\DPSock.cpp
;	COMDAT ?__empty_global_delete@@YAXPAX@Z
_TEXT	SEGMENT
___formal$ = 8						; size = 4
?__empty_global_delete@@YAXPAX@Z PROC			; __empty_global_delete, COMDAT

  00000	c2 00 00	 ret	 0
?__empty_global_delete@@YAXPAX@Z ENDP			; __empty_global_delete
_TEXT	ENDS
END
