; Listing generated by Microsoft (R) Optimizing Compiler Version 19.44.35225.0 

	TITLE	C:\IAGOS\server\v18\Source\Output\WorldServer\Release\DPSrvr.obj
	.686P
	.XMM
	include listing.inc
	.model	flat

INCLUDELIB LIBCMT
INCLUDELIB OLDNAMES

CONST	SEGMENT
?piecewise_construct@std@@3Upiecewise_construct_t@1@B	ORG $+1 ; std::piecewise_construct
CONST	ENDS
PUBLIC	?__empty_global_delete@@YAXPAX@Z		; __empty_global_delete
PUBLIC	?__empty_global_delete@@YAXPAXI@Z		; __empty_global_delete
PUBLIC	___local_stdio_printf_options
PUBLIC	_sprintf
PUBLIC	?AfxCrtErrorCheck@@YAHH@Z			; AfxCrtErrorCheck
PUBLIC	?AtlThrowImpl@ATL@@YGXJ@Z			; ATL::AtlThrowImpl
PUBLIC	??1?$CSimpleStringT@D$0A@@ATL@@QAE@XZ		; ATL::CSimpleStringT<char,0>::~CSimpleStringT<char,0>
PUBLIC	?Empty@?$CSimpleStringT@D$0A@@ATL@@QAEXXZ	; ATL::CSimpleStringT<char,0>::Empty
PUBLIC	?ThrowMemoryException@?$CSimpleStringT@D$0A@@ATL@@KAXXZ ; ATL::CSimpleStringT<char,0>::ThrowMemoryException
PUBLIC	?Fork@?$CSimpleStringT@D$0A@@ATL@@AAEXH@Z	; ATL::CSimpleStringT<char,0>::Fork
PUBLIC	?PrepareWrite2@?$CSimpleStringT@D$0A@@ATL@@AAEXH@Z ; ATL::CSimpleStringT<char,0>::PrepareWrite2
PUBLIC	?Reallocate@?$CSimpleStringT@D$0A@@ATL@@AAEXH@Z	; ATL::CSimpleStringT<char,0>::Reallocate
PUBLIC	??0?$CStringT@DV?$StrTraitMFC@DV?$ChTraitsCRT@D@ATL@@@@@ATL@@QAE@XZ ; ATL::CStringT<char,StrTraitMFC<char,ATL::ChTraitsCRT<char> > >::CStringT<char,StrTraitMFC<char,ATL::ChTraitsCRT<char> > >
PUBLIC	??1?$CStringT@DV?$StrTraitMFC@DV?$ChTraitsCRT@D@ATL@@@@@ATL@@QAE@XZ ; ATL::CStringT<char,StrTraitMFC<char,ATL::ChTraitsCRT<char> > >::~CStringT<char,StrTraitMFC<char,ATL::ChTraitsCRT<char> > >
PUBLIC	??4?$CStringT@DV?$StrTraitMFC@DV?$ChTraitsCRT@D@ATL@@@@@ATL@@QAEAAV01@PBD@Z ; ATL::CStringT<char,StrTraitMFC<char,ATL::ChTraitsCRT<char> > >::operator=
PUBLIC	?Replace@?$CStringT@DV?$StrTraitMFC@DV?$ChTraitsCRT@D@ATL@@@@@ATL@@QAEHPBD0@Z ; ATL::CStringT<char,StrTraitMFC<char,ATL::ChTraitsCRT<char> > >::Replace
PUBLIC	?Format@?$CStringT@DV?$StrTraitMFC@DV?$ChTraitsCRT@D@ATL@@@@@ATL@@QAAXPBDZZ ; ATL::CStringT<char,StrTraitMFC<char,ATL::ChTraitsCRT<char> > >::Format
PUBLIC	?FormatV@?$CStringT@DV?$StrTraitMFC@DV?$ChTraitsCRT@D@ATL@@@@@ATL@@QAEXPBDPAD@Z ; ATL::CStringT<char,StrTraitMFC<char,ATL::ChTraitsCRT<char> > >::FormatV
PUBLIC	?LoadStringA@?$CStringT@DV?$StrTraitMFC@DV?$ChTraitsCRT@D@ATL@@@@@ATL@@QAEHI@Z ; ATL::CStringT<char,StrTraitMFC<char,ATL::ChTraitsCRT<char> > >::LoadStringA
PUBLIC	??0exception@std@@QAE@ABV01@@Z			; std::exception::exception
PUBLIC	??1exception@std@@UAE@XZ			; std::exception::~exception
PUBLIC	?what@exception@std@@UBEPBDXZ			; std::exception::what
PUBLIC	??_Gexception@std@@UAEPAXI@Z			; std::exception::`scalar deleting destructor'
PUBLIC	??0bad_alloc@std@@QAE@ABV01@@Z			; std::bad_alloc::bad_alloc
PUBLIC	??_Gbad_alloc@std@@UAEPAXI@Z			; std::bad_alloc::`scalar deleting destructor'
PUBLIC	??0bad_array_new_length@std@@QAE@XZ		; std::bad_array_new_length::bad_array_new_length
PUBLIC	??1bad_array_new_length@std@@UAE@XZ		; std::bad_array_new_length::~bad_array_new_length
PUBLIC	??0bad_array_new_length@std@@QAE@ABV01@@Z	; std::bad_array_new_length::bad_array_new_length
PUBLIC	??_Gbad_array_new_length@std@@UAEPAXI@Z		; std::bad_array_new_length::`scalar deleting destructor'
PUBLIC	?_Throw_bad_array_new_length@std@@YAXXZ		; std::_Throw_bad_array_new_length
PUBLIC	?_Xlen_string@std@@YAXXZ			; std::_Xlen_string
PUBLIC	??1?$basic_string@DU?$char_traits@D@std@@V?$allocator@D@2@@std@@QAE@XZ ; std::basic_string<char,std::char_traits<char>,std::allocator<char> >::~basic_string<char,std::char_traits<char>,std::allocator<char> >
PUBLIC	?_Throw_tree_length_error@std@@YAXXZ		; std::_Throw_tree_length_error
PUBLIC	??0D3DXVECTOR3@@QAE@XZ				; D3DXVECTOR3::D3DXVECTOR3
PUBLIC	??0_LogItemInfo@@QAE@XZ				; _LogItemInfo::_LogItemInfo
PUBLIC	??1NaviPoint@@QAE@XZ				; NaviPoint::~NaviPoint
PUBLIC	??1?$vector@KV?$allocator@K@std@@@std@@QAE@XZ	; std::vector<unsigned long,std::allocator<unsigned long> >::~vector<unsigned long,std::allocator<unsigned long> >
PUBLIC	?_Tidy@?$vector@KV?$allocator@K@std@@@std@@AAEXXZ ; std::vector<unsigned long,std::allocator<unsigned long> >::_Tidy
PUBLIC	?_Xlength@?$vector@KV?$allocator@K@std@@@std@@CAXXZ ; std::vector<unsigned long,std::allocator<unsigned long> >::_Xlength
PUBLIC	??1?$vector@U_NPC_BUFF_SKILL@@V?$allocator@U_NPC_BUFF_SKILL@@@std@@@std@@QAE@XZ ; std::vector<_NPC_BUFF_SKILL,std::allocator<_NPC_BUFF_SKILL> >::~vector<_NPC_BUFF_SKILL,std::allocator<_NPC_BUFF_SKILL> >
PUBLIC	?_Tidy@?$vector@U_NPC_BUFF_SKILL@@V?$allocator@U_NPC_BUFF_SKILL@@@std@@@std@@AAEXXZ ; std::vector<_NPC_BUFF_SKILL,std::allocator<_NPC_BUFF_SKILL> >::_Tidy
PUBLIC	?_Xlength@?$vector@U_NPC_BUFF_SKILL@@V?$allocator@U_NPC_BUFF_SKILL@@@std@@@std@@CAXXZ ; std::vector<_NPC_BUFF_SKILL,std::allocator<_NPC_BUFF_SKILL> >::_Xlength
PUBLIC	??1?$_Tree@V?$_Tset_traits@KU?$less@K@std@@V?$allocator@K@2@$0A@@std@@@std@@QAE@XZ ; std::_Tree<std::_Tset_traits<unsigned long,std::less<unsigned long>,std::allocator<unsigned long>,0> >::~_Tree<std::_Tset_traits<unsigned long,std::less<unsigned long>,std::allocator<unsigned long>,0> >
PUBLIC	?_Insert_node@?$_Tree_val@U?$_Tree_simple_types@K@std@@@std@@QAEPAU?$_Tree_node@KPAX@2@U?$_Tree_id@PAU?$_Tree_node@KPAX@std@@@2@QAU32@@Z ; std::_Tree_val<std::_Tree_simple_types<unsigned long> >::_Insert_node
PUBLIC	??1?$set@KU?$less@K@std@@V?$allocator@K@2@@std@@QAE@XZ ; std::set<unsigned long,std::less<unsigned long>,std::allocator<unsigned long> >::~set<unsigned long,std::less<unsigned long>,std::allocator<unsigned long> >
PUBLIC	?GetText@CProject@@QAEPBDK@Z			; CProject::GetText
PUBLIC	?GetUserByID@CProject@@QAEPAVCMover@@K@Z	; CProject::GetUserByID
PUBLIC	?GetCharacter@CProject@@QAEPAUtagCHARACTER@@PBD@Z ; CProject::GetCharacter
PUBLIC	?GetPropensityPenalty@CProject@@QAE?AU_CHAO_PROPENSITY@@K@Z ; CProject::GetPropensityPenalty
PUBLIC	?_Xrange@?$vector@UTreasureItem@@V?$allocator@UTreasureItem@@@std@@@std@@CAXXZ ; std::vector<TreasureItem,std::allocator<TreasureItem> >::_Xrange
PUBLIC	?GetPropA@CItemElem@@QAEPAUItemProp@@XZ		; CItemElem::GetPropA
PUBLIC	?GetAt@?$CItemContainer@VCItemElem@@@@QAEPAVCItemElem@@K@Z ; CItemContainer<CItemElem>::GetAt
PUBLIC	?IsEquip@?$CItemContainer@VCItemElem@@@@QAEHK@Z	; CItemContainer<CItemElem>::IsEquip
PUBLIC	?GetEquip@?$CItemContainer@VCItemElem@@@@QAEPAVCItemElem@@K@Z ; CItemContainer<CItemElem>::GetEquip
PUBLIC	?Swap@?$CItemContainer@VCItemElem@@@@QAEXKK@Z	; CItemContainer<CItemElem>::Swap
PUBLIC	?Add@?$CItemContainer@VCItemElem@@@@QAEHPAVCItemElem@@PAEPAF1@Z ; CItemContainer<CItemElem>::Add
PUBLIC	?IsFull@?$CItemContainer@VCItemElem@@@@QAEHPAVCItemElem@@PAUItemProp@@F@Z ; CItemContainer<CItemElem>::IsFull
PUBLIC	?GetAtId@?$CItemContainer@VCItemElem@@@@QAEPAVCItemElem@@K@Z ; CItemContainer<CItemElem>::GetAtId
PUBLIC	?GetAtItemId@?$CItemContainer@VCItemElem@@@@QAEPAVCItemElem@@K@Z ; CItemContainer<CItemElem>::GetAtItemId
PUBLIC	?GetAtItemNum@?$CItemContainer@VCItemElem@@@@QAEHK@Z ; CItemContainer<CItemElem>::GetAtItemNum
PUBLIC	?RemoveAtId@?$CItemContainer@VCItemElem@@@@QAEXK@Z ; CItemContainer<CItemElem>::RemoveAtId
PUBLIC	?Serialize@?$CItemContainer@VCItemElem@@@@QAEXAAVCAr@@@Z ; CItemContainer<CItemElem>::Serialize
PUBLIC	?GetEmptyCount@?$CItemContainer@VCItemElem@@@@QAEHXZ ; CItemContainer<CItemElem>::GetEmptyCount
PUBLIC	?GetCount@?$CItemContainer@VCItemElem@@@@QAEHXZ	; CItemContainer<CItemElem>::GetCount
PUBLIC	?Swap2@?$CItemContainer@VCItemElem@@@@AAEXKK@Z	; CItemContainer<CItemElem>::Swap2
PUBLIC	?_Xlen@?$deque@PAUtagACTMSG@@V?$allocator@PAUtagACTMSG@@@std@@@std@@CAXXZ ; std::deque<tagACTMSG *,std::allocator<tagACTMSG *> >::_Xlen
PUBLIC	?_Growmap@?$deque@PAUtagACTMSG@@V?$allocator@PAUtagACTMSG@@@std@@@std@@AAEXI@Z ; std::deque<tagACTMSG *,std::allocator<tagACTMSG *> >::_Growmap
PUBLIC	?AddTail@?$CActMsgq@UtagACTMSG@@@@QAEXPAUtagACTMSG@@@Z ; CActMsgq<tagACTMSG>::AddTail
PUBLIC	?_Xlen@?$deque@PAUtagMAGICATKMSG@@V?$allocator@PAUtagMAGICATKMSG@@@std@@@std@@CAXXZ ; std::deque<tagMAGICATKMSG *,std::allocator<tagMAGICATKMSG *> >::_Xlen
PUBLIC	?_Growmap@?$deque@PAUtagMAGICATKMSG@@V?$allocator@PAUtagMAGICATKMSG@@@std@@@std@@AAEXI@Z ; std::deque<tagMAGICATKMSG *,std::allocator<tagMAGICATKMSG *> >::_Growmap
PUBLIC	?AddTail@?$CActMsgq@UtagMAGICATKMSG@@@@QAEXPAUtagMAGICATKMSG@@@Z ; CActMsgq<tagMAGICATKMSG>::AddTail
PUBLIC	??1VENDOR_SELL_RESULT@@QAE@XZ			; VENDOR_SELL_RESULT::~VENDOR_SELL_RESULT
PUBLIC	?ClearDest@CMover@@QAEXXZ			; CMover::ClearDest
PUBLIC	?IsEmptyDestPos@CMover@@QAEHXZ			; CMover::IsEmptyDestPos
PUBLIC	?IsDie@CMover@@QAEHXZ				; CMover::IsDie
PUBLIC	?GetTickCount@CTickCount@@QAE_JXZ		; CTickCount::GetTickCount
PUBLIC	?GetOffset@CTickCount@@QAEHAB_J@Z		; CTickCount::GetOffset
PUBLIC	??$_Allocate_manually_vector_aligned@U_Default_allocate_traits@std@@@std@@YAPAXI@Z ; std::_Allocate_manually_vector_aligned<std::_Default_allocate_traits>
PUBLIC	??$?6K@CAr@@QAEAAV0@ABK@Z			; CAr::operator<<<unsigned long>
PUBLIC	??$?5K@CAr@@QAEAAV0@AAK@Z			; CAr::operator>><unsigned long>
PUBLIC	??1?$vector@U__REQUESTGUILD@CGuildCombat@@V?$allocator@U__REQUESTGUILD@CGuildCombat@@@std@@@std@@QAE@XZ ; std::vector<CGuildCombat::__REQUESTGUILD,std::allocator<CGuildCombat::__REQUESTGUILD> >::~vector<CGuildCombat::__REQUESTGUILD,std::allocator<CGuildCombat::__REQUESTGUILD> >
PUBLIC	?_Tidy@?$vector@U__REQUESTGUILD@CGuildCombat@@V?$allocator@U__REQUESTGUILD@CGuildCombat@@@std@@@std@@AAEXXZ ; std::vector<CGuildCombat::__REQUESTGUILD,std::allocator<CGuildCombat::__REQUESTGUILD> >::_Tidy
PUBLIC	?_Xlength@?$vector@U__REQUESTGUILD@CGuildCombat@@V?$allocator@U__REQUESTGUILD@CGuildCombat@@@std@@@std@@CAXXZ ; std::vector<CGuildCombat::__REQUESTGUILD,std::allocator<CGuildCombat::__REQUESTGUILD> >::_Xlength
PUBLIC	??0CDPSrvr@@QAE@XZ				; CDPSrvr::CDPSrvr
PUBLIC	??1CDPSrvr@@UAE@XZ				; CDPSrvr::~CDPSrvr
PUBLIC	?SysMessageHandler@CDPSrvr@@UAEXPAUDPMSG_GENERIC@@KK@Z ; CDPSrvr::SysMessageHandler
PUBLIC	?UserMessageHandler@CDPSrvr@@UAEXPAUDPMSG_GENERIC@@KK@Z ; CDPSrvr::UserMessageHandler
PUBLIC	??1?$_Tree@V?$_Tmap_traits@KP8CDPSrvr@@AEXAAVCAr@@KKPAEK@ZU?$less@K@std@@V?$allocator@U?$pair@$$CBKP8CDPSrvr@@AEXAAVCAr@@KKPAEK@Z@std@@@4@$0A@@std@@@std@@QAE@XZ ; std::_Tree<std::_Tmap_traits<unsigned long,void (__thiscall CDPSrvr::*)(CAr &,unsigned long,unsigned long,unsigned char *,unsigned long),std::less<unsigned long>,std::allocator<std::pair<unsigned long const ,void (__thiscall CDPSrvr::*)(CAr &,unsigned long,unsigned long,unsigned char *,unsigned long)> >,0> >::~_Tree<std::_Tmap_traits<unsigned long,void (__thiscall CDPSrvr::*)(CAr &,unsigned long,unsigned long,unsigned char *,unsigned long),std::less<unsigned long>,std::allocator<std::pair<unsigned long const ,void (__thiscall CDPSrvr::*)(CAr &,unsigned long,unsigned long,unsigned char *,unsigned long)> >,0> >
PUBLIC	?_Insert_node@?$_Tree_val@U?$_Tree_simple_types@U?$pair@$$CBKP8CDPSrvr@@AEXAAVCAr@@KKPAEK@Z@std@@@std@@@std@@QAEPAU?$_Tree_node@U?$pair@$$CBKP8CDPSrvr@@AEXAAVCAr@@KKPAEK@Z@std@@PAX@2@U?$_Tree_id@PAU?$_Tree_node@U?$pair@$$CBKP8CDPSrvr@@AEXAAVCAr@@KKPAEK@Z@std@@PAX@std@@@2@QAU32@@Z ; std::_Tree_val<std::_Tree_simple_types<std::pair<unsigned long const ,void (__thiscall CDPSrvr::*)(CAr &,unsigned long,unsigned long,unsigned char *,unsigned long)> > >::_Insert_node
PUBLIC	??1?$map@KP8CDPSrvr@@AEXAAVCAr@@KKPAEK@ZU?$less@K@std@@V?$allocator@U?$pair@$$CBKP8CDPSrvr@@AEXAAVCAr@@KKPAEK@Z@std@@@4@@std@@QAE@XZ ; std::map<unsigned long,void (__thiscall CDPSrvr::*)(CAr &,unsigned long,unsigned long,unsigned char *,unsigned long),std::less<unsigned long>,std::allocator<std::pair<unsigned long const ,void (__thiscall CDPSrvr::*)(CAr &,unsigned long,unsigned long,unsigned char *,unsigned long)> > >::~map<unsigned long,void (__thiscall CDPSrvr::*)(CAr &,unsigned long,unsigned long,unsigned char *,unsigned long),std::less<unsigned long>,std::allocator<std::pair<unsigned long const ,void (__thiscall CDPSrvr::*)(CAr &,unsigned long,unsigned long,unsigned char *,unsigned long)> > >
PUBLIC	?OnAddConnection@CDPSrvr@@AAEXK@Z		; CDPSrvr::OnAddConnection
PUBLIC	?OnRemoveConnection@CDPSrvr@@AAEXK@Z		; CDPSrvr::OnRemoveConnection
PUBLIC	?OnAddUser@CDPSrvr@@AAEXAAVCAr@@KKPAEK@Z	; CDPSrvr::OnAddUser
PUBLIC	?OnRemoveUser@CDPSrvr@@AAEXAAVCAr@@KKPAEK@Z	; CDPSrvr::OnRemoveUser
PUBLIC	?OnChat@CDPSrvr@@AAEXAAVCAr@@KKPAEK@Z		; CDPSrvr::OnChat
PUBLIC	?OnDoEquip@CDPSrvr@@AAEXAAVCAr@@KKPAEK@Z	; CDPSrvr::OnDoEquip
PUBLIC	?OnCtrlCoolTimeCancel@CDPSrvr@@AAEXAAVCAr@@KKPAEK@Z ; CDPSrvr::OnCtrlCoolTimeCancel
PUBLIC	?OnMoveItem@CDPSrvr@@AAEXAAVCAr@@KKPAEK@Z	; CDPSrvr::OnMoveItem
PUBLIC	?OnDropItem@CDPSrvr@@AAEXAAVCAr@@KKPAEK@Z	; CDPSrvr::OnDropItem
PUBLIC	?OnDropGold@CDPSrvr@@AAEXAAVCAr@@KKPAEK@Z	; CDPSrvr::OnDropGold
PUBLIC	?OnTrade@CDPSrvr@@AAEXAAVCAr@@KKPAEK@Z		; CDPSrvr::OnTrade
PUBLIC	?OnConfirmTrade@CDPSrvr@@AAEXAAVCAr@@KKPAEK@Z	; CDPSrvr::OnConfirmTrade
PUBLIC	?OnConfirmTradeCancel@CDPSrvr@@AAEXAAVCAr@@KKPAEK@Z ; CDPSrvr::OnConfirmTradeCancel
PUBLIC	?OnTradePut@CDPSrvr@@AAEXAAVCAr@@KKPAEK@Z	; CDPSrvr::OnTradePut
PUBLIC	?OnTradePull@CDPSrvr@@AAEXAAVCAr@@KKPAEK@Z	; CDPSrvr::OnTradePull
PUBLIC	?OnTradePutGold@CDPSrvr@@AAEXAAVCAr@@KKPAEK@Z	; CDPSrvr::OnTradePutGold
PUBLIC	?OnTradeCancel@CDPSrvr@@AAEXAAVCAr@@KKPAEK@Z	; CDPSrvr::OnTradeCancel
PUBLIC	?OnTradeOk@CDPSrvr@@AAEXAAVCAr@@KKPAEK@Z	; CDPSrvr::OnTradeOk
PUBLIC	?OnTradelastConfrim@CDPSrvr@@AAEXAAVCAr@@KKPAEK@Z ; CDPSrvr::OnTradelastConfrim
PUBLIC	?OnPVendorOpen@CDPSrvr@@AAEXAAVCAr@@KKPAEK@Z	; CDPSrvr::OnPVendorOpen
PUBLIC	?OnPVendorClose@CDPSrvr@@AAEXAAVCAr@@KKPAEK@Z	; CDPSrvr::OnPVendorClose
PUBLIC	?OnRegisterPVendorItem@CDPSrvr@@AAEXAAVCAr@@KKPAEK@Z ; CDPSrvr::OnRegisterPVendorItem
PUBLIC	?OnUnregisterPVendorItem@CDPSrvr@@AAEXAAVCAr@@KKPAEK@Z ; CDPSrvr::OnUnregisterPVendorItem
PUBLIC	?OnQueryPVendorItem@CDPSrvr@@AAEXAAVCAr@@KKPAEK@Z ; CDPSrvr::OnQueryPVendorItem
PUBLIC	?OnBuyPVendorItem@CDPSrvr@@AAEXAAVCAr@@KKPAEK@Z	; CDPSrvr::OnBuyPVendorItem
PUBLIC	?OnEnchant@CDPSrvr@@AAEXAAVCAr@@KKPAEK@Z	; CDPSrvr::OnEnchant
PUBLIC	?OnSmeltSafety@CDPSrvr@@AAEXAAVCAr@@KKPAEK@Z	; CDPSrvr::OnSmeltSafety
PUBLIC	?OnRemoveAttribute@CDPSrvr@@AAEXAAVCAr@@KKPAEK@Z ; CDPSrvr::OnRemoveAttribute
PUBLIC	?OnChangeAttribute@CDPSrvr@@AAEXAAVCAr@@KKPAEK@Z ; CDPSrvr::OnChangeAttribute
PUBLIC	?OnCreateSfxObj@CDPSrvr@@AAEXAAVCAr@@KKPAEK@Z	; CDPSrvr::OnCreateSfxObj
PUBLIC	?OnPiercing@CDPSrvr@@AAEXAAVCAr@@KKPAEK@Z	; CDPSrvr::OnPiercing
PUBLIC	?OnPiercingSize@CDPSrvr@@AAEXAAVCAr@@KKPAEK@Z	; CDPSrvr::OnPiercingSize
PUBLIC	?OnPiercingRemove@CDPSrvr@@AAEXAAVCAr@@KKPAEK@Z	; CDPSrvr::OnPiercingRemove
PUBLIC	?OnExpBoxInfo@CDPSrvr@@AAEXAAVCAr@@KKPAEK@Z	; CDPSrvr::OnExpBoxInfo
PUBLIC	?OnItemTransy@CDPSrvr@@AAEXAAVCAr@@KKPAEK@Z	; CDPSrvr::OnItemTransy
PUBLIC	?OnUpgradeBase@CDPSrvr@@AAEXAAVCAr@@KKPAEK@Z	; CDPSrvr::OnUpgradeBase
PUBLIC	?OnCommercialElem@CDPSrvr@@AAEXAAVCAr@@KKPAEK@Z	; CDPSrvr::OnCommercialElem
PUBLIC	?OnMotion@CDPSrvr@@AAEXAAVCAr@@KKPAEK@Z		; CDPSrvr::OnMotion
PUBLIC	?OnRepairItem@CDPSrvr@@AAEXAAVCAr@@KKPAEK@Z	; CDPSrvr::OnRepairItem
PUBLIC	?OnScriptDialogReq@CDPSrvr@@AAEXAAVCAr@@KKPAEK@Z ; CDPSrvr::OnScriptDialogReq
PUBLIC	?OnReplace@CDPSrvr@@AAEXAAVCAr@@KKPAEK@Z	; CDPSrvr::OnReplace
PUBLIC	?OnOpenShopWnd@CDPSrvr@@AAEXAAVCAr@@KKPAEK@Z	; CDPSrvr::OnOpenShopWnd
PUBLIC	?OnCloseShopWnd@CDPSrvr@@AAEXAAVCAr@@KKPAEK@Z	; CDPSrvr::OnCloseShopWnd
PUBLIC	?OnBuyItem@CDPSrvr@@AAEXAAVCAr@@KKPAEK@Z	; CDPSrvr::OnBuyItem
PUBLIC	?OnBuyChipItem@CDPSrvr@@AAEXAAVCAr@@KKPAEK@Z	; CDPSrvr::OnBuyChipItem
PUBLIC	?OnSellItem@CDPSrvr@@AAEXAAVCAr@@KKPAEK@Z	; CDPSrvr::OnSellItem
PUBLIC	?OnOpenBankWnd@CDPSrvr@@AAEXAAVCAr@@KKPAEK@Z	; CDPSrvr::OnOpenBankWnd
PUBLIC	?OnOpenGuildBankWnd@CDPSrvr@@AAEXAAVCAr@@KKPAEK@Z ; CDPSrvr::OnOpenGuildBankWnd
PUBLIC	?OnCloseGuildBankWnd@CDPSrvr@@AAEXAAVCAr@@KKPAEK@Z ; CDPSrvr::OnCloseGuildBankWnd
PUBLIC	?OnPutItemGuildBank@CDPSrvr@@AAEXAAVCAr@@KKPAEK@Z ; CDPSrvr::OnPutItemGuildBank
PUBLIC	?OnGetItemGuildBank@CDPSrvr@@AAEXAAVCAr@@KKPAEK@Z ; CDPSrvr::OnGetItemGuildBank
PUBLIC	?OnGuildBankMoveItem@CDPSrvr@@AAEXAAVCAr@@KKPAEK@Z ; CDPSrvr::OnGuildBankMoveItem
PUBLIC	?OnCloseBankWnd@CDPSrvr@@AAEXAAVCAr@@KKPAEK@Z	; CDPSrvr::OnCloseBankWnd
PUBLIC	?OnDoUseSkillPoint@CDPSrvr@@AAEXAAVCAr@@KKPAEK@Z ; CDPSrvr::OnDoUseSkillPoint
PUBLIC	?OnBankToBank@CDPSrvr@@AAEXAAVCAr@@KKPAEK@Z	; CDPSrvr::OnBankToBank
PUBLIC	?OnPutItemBank@CDPSrvr@@AAEXAAVCAr@@KKPAEK@Z	; CDPSrvr::OnPutItemBank
PUBLIC	?OnGetItemBank@CDPSrvr@@AAEXAAVCAr@@KKPAEK@Z	; CDPSrvr::OnGetItemBank
PUBLIC	?OnPutGoldBank@CDPSrvr@@AAEXAAVCAr@@KKPAEK@Z	; CDPSrvr::OnPutGoldBank
PUBLIC	?OnGetGoldBank@CDPSrvr@@AAEXAAVCAr@@KKPAEK@Z	; CDPSrvr::OnGetGoldBank
PUBLIC	?OnMoveBankItem@CDPSrvr@@AAEXAAVCAr@@KKPAEK@Z	; CDPSrvr::OnMoveBankItem
PUBLIC	?OnChangeBankPass@CDPSrvr@@AAEXAAVCAr@@KKPAEK@Z	; CDPSrvr::OnChangeBankPass
PUBLIC	?OnConfirmBank@CDPSrvr@@AAEXAAVCAr@@KKPAEK@Z	; CDPSrvr::OnConfirmBank
PUBLIC	?OnRevival@CDPSrvr@@AAEXAAVCAr@@KKPAEK@Z	; CDPSrvr::OnRevival
PUBLIC	?OnRevivalLodestar@CDPSrvr@@AAEXAAVCAr@@KKPAEK@Z ; CDPSrvr::OnRevivalLodestar
PUBLIC	?OnRevivalLodelight@CDPSrvr@@AAEXAAVCAr@@KKPAEK@Z ; CDPSrvr::OnRevivalLodelight
PUBLIC	?OnSetLodelight@CDPSrvr@@AAEXAAVCAr@@KKPAEK@Z	; CDPSrvr::OnSetLodelight
PUBLIC	?OnIncStatLevel@CDPSrvr@@AAEXAAVCAr@@KKPAEK@Z	; CDPSrvr::OnIncStatLevel
PUBLIC	?OnPlayerMoved@CDPSrvr@@AAEXAAVCAr@@KKPAEK@Z	; CDPSrvr::OnPlayerMoved
PUBLIC	?OnPlayerBehavior@CDPSrvr@@AAEXAAVCAr@@KKPAEK@Z	; CDPSrvr::OnPlayerBehavior
PUBLIC	?OnPlayerMoved2@CDPSrvr@@AAEXAAVCAr@@KKPAEK@Z	; CDPSrvr::OnPlayerMoved2
PUBLIC	?OnPlayerBehavior2@CDPSrvr@@AAEXAAVCAr@@KKPAEK@Z ; CDPSrvr::OnPlayerBehavior2
PUBLIC	?OnPlayerAngle@CDPSrvr@@AAEXAAVCAr@@KKPAEK@Z	; CDPSrvr::OnPlayerAngle
PUBLIC	?OnPlayerCorr@CDPSrvr@@AAEXAAVCAr@@KKPAEK@Z	; CDPSrvr::OnPlayerCorr
PUBLIC	?OnPlayerCorr2@CDPSrvr@@AAEXAAVCAr@@KKPAEK@Z	; CDPSrvr::OnPlayerCorr2
PUBLIC	?OnPlayerSetDestObj@CDPSrvr@@AAEXAAVCAr@@KKPAEK@Z ; CDPSrvr::OnPlayerSetDestObj
PUBLIC	?OnCorrReq@CDPSrvr@@AAEXAAVCAr@@KKPAEK@Z	; CDPSrvr::OnCorrReq
PUBLIC	?OnCreateGuildCloak@CDPSrvr@@AAEXAAVCAr@@KKPAEK@Z ; CDPSrvr::OnCreateGuildCloak
PUBLIC	?OnQueryGetPos@CDPSrvr@@AAEXAAVCAr@@KKPAEK@Z	; CDPSrvr::OnQueryGetPos
PUBLIC	?OnGetPos@CDPSrvr@@AAEXAAVCAr@@KKPAEK@Z		; CDPSrvr::OnGetPos
PUBLIC	?OnQueryGetDestObj@CDPSrvr@@AAEXAAVCAr@@KKPAEK@Z ; CDPSrvr::OnQueryGetDestObj
PUBLIC	?OnGetDestObj@CDPSrvr@@AAEXAAVCAr@@KKPAEK@Z	; CDPSrvr::OnGetDestObj
PUBLIC	?OnSkillTaskBar@CDPSrvr@@AAEXAAVCAr@@KKPAEK@Z	; CDPSrvr::OnSkillTaskBar
PUBLIC	?OnAddAppletTaskBar@CDPSrvr@@AAEXAAVCAr@@KKPAEK@Z ; CDPSrvr::OnAddAppletTaskBar
PUBLIC	?OnRemoveAppletTaskBar@CDPSrvr@@AAEXAAVCAr@@KKPAEK@Z ; CDPSrvr::OnRemoveAppletTaskBar
PUBLIC	?OnAddItemTaskBar@CDPSrvr@@AAEXAAVCAr@@KKPAEK@Z	; CDPSrvr::OnAddItemTaskBar
PUBLIC	?OnRemoveItemTaskBar@CDPSrvr@@AAEXAAVCAr@@KKPAEK@Z ; CDPSrvr::OnRemoveItemTaskBar
PUBLIC	?OnPartyRequest@CDPSrvr@@AAEXAAVCAr@@KKPAEK@Z	; CDPSrvr::OnPartyRequest
PUBLIC	?OnAddFriendNameReqest@CDPSrvr@@AAEXAAVCAr@@KKPAEK@Z ; CDPSrvr::OnAddFriendNameReqest
PUBLIC	?OnPartyRequestCancle@CDPSrvr@@AAEXAAVCAr@@KKPAEK@Z ; CDPSrvr::OnPartyRequestCancle
PUBLIC	?OnPartySkillUse@CDPSrvr@@AAEXAAVCAr@@KKPAEK@Z	; CDPSrvr::OnPartySkillUse
PUBLIC	?OnAddFriendReqest@CDPSrvr@@AAEXAAVCAr@@KKPAEK@Z ; CDPSrvr::OnAddFriendReqest
PUBLIC	?OnAddFriendCancel@CDPSrvr@@AAEXAAVCAr@@KKPAEK@Z ; CDPSrvr::OnAddFriendCancel
PUBLIC	?OnDuelRequest@CDPSrvr@@AAEXAAVCAr@@KKPAEK@Z	; CDPSrvr::OnDuelRequest
PUBLIC	?OnDuelYes@CDPSrvr@@AAEXAAVCAr@@KKPAEK@Z	; CDPSrvr::OnDuelYes
PUBLIC	?OnDuelNo@CDPSrvr@@AAEXAAVCAr@@KKPAEK@Z		; CDPSrvr::OnDuelNo
PUBLIC	?OnDuelPartyRequest@CDPSrvr@@AAEXAAVCAr@@KKPAEK@Z ; CDPSrvr::OnDuelPartyRequest
PUBLIC	?OnDuelPartyYes@CDPSrvr@@AAEXAAVCAr@@KKPAEK@Z	; CDPSrvr::OnDuelPartyYes
PUBLIC	?OnDuelPartyNo@CDPSrvr@@AAEXAAVCAr@@KKPAEK@Z	; CDPSrvr::OnDuelPartyNo
PUBLIC	?OnMoverFocus@CDPSrvr@@AAEXAAVCAr@@KKPAEK@Z	; CDPSrvr::OnMoverFocus
PUBLIC	?OnRemoveQuest@CDPSrvr@@AAEXAAVCAr@@KKPAEK@Z	; CDPSrvr::OnRemoveQuest
PUBLIC	?OnQueryPlayerData@CDPSrvr@@AAEXAAVCAr@@KKPAEK@Z ; CDPSrvr::OnQueryPlayerData
PUBLIC	?OnQueryPlayerData2@CDPSrvr@@AAEXAAVCAr@@KKPAEK@Z ; CDPSrvr::OnQueryPlayerData2
PUBLIC	?OnAvailPocket@CDPSrvr@@AAEXAAVCAr@@KKPAEK@Z	; CDPSrvr::OnAvailPocket
PUBLIC	?OnMoveItemOnPocket@CDPSrvr@@AAEXAAVCAr@@KKPAEK@Z ; CDPSrvr::OnMoveItemOnPocket
PUBLIC	?OnQuePetResurrection@CDPSrvr@@AAEXAAVCAr@@KKPAEK@Z ; CDPSrvr::OnQuePetResurrection
PUBLIC	?OnArenaEnter@CDPSrvr@@AAEXAAVCAr@@KKPAEK@Z	; CDPSrvr::OnArenaEnter
PUBLIC	?OnArenaExit@CDPSrvr@@AAEXAAVCAr@@KKPAEK@Z	; CDPSrvr::OnArenaExit
PUBLIC	?OnGuildInvite@CDPSrvr@@AAEXAAVCAr@@KKPAEK@Z	; CDPSrvr::OnGuildInvite
PUBLIC	?OnIgnoreGuildInvite@CDPSrvr@@AAEXAAVCAr@@KKPAEK@Z ; CDPSrvr::OnIgnoreGuildInvite
PUBLIC	?OnEndSkillQueue@CDPSrvr@@AAEXAAVCAr@@KKPAEK@Z	; CDPSrvr::OnEndSkillQueue
PUBLIC	?OnActionPoint@CDPSrvr@@AAEXAAVCAr@@KKPAEK@Z	; CDPSrvr::OnActionPoint
PUBLIC	?OnDoUseItem@CDPSrvr@@AAEXAAVCAr@@KKPAEK@Z	; CDPSrvr::OnDoUseItem
PUBLIC	?OnDoUseItemTarget@CDPSrvr@@AAEXAAVCAr@@KKPAEK@Z ; CDPSrvr::OnDoUseItemTarget
PUBLIC	?OnAwakening@CDPSrvr@@AAEXAAVCAr@@KKPAEK@Z	; CDPSrvr::OnAwakening
PUBLIC	?OnRemoveItemLevelDown@CDPSrvr@@AAEXAAVCAr@@KKPAEK@Z ; CDPSrvr::OnRemoveItemLevelDown
PUBLIC	?OnBlessednessCancel@CDPSrvr@@AAEXAAVCAr@@KKPAEK@Z ; CDPSrvr::OnBlessednessCancel
PUBLIC	?OnMeleeAttack@CDPSrvr@@AAEXAAVCAr@@KKPAEK@Z	; CDPSrvr::OnMeleeAttack
PUBLIC	?OnMeleeAttack2@CDPSrvr@@AAEXAAVCAr@@KKPAEK@Z	; CDPSrvr::OnMeleeAttack2
PUBLIC	?OnMagicAttack@CDPSrvr@@AAEXAAVCAr@@KKPAEK@Z	; CDPSrvr::OnMagicAttack
PUBLIC	?OnRangeAttack@CDPSrvr@@AAEXAAVCAr@@KKPAEK@Z	; CDPSrvr::OnRangeAttack
PUBLIC	?OnSfxID@CDPSrvr@@AAEXAAVCAr@@KKPAEK@Z		; CDPSrvr::OnSfxID
PUBLIC	?OnSfxHit@CDPSrvr@@AAEXAAVCAr@@KKPAEK@Z		; CDPSrvr::OnSfxHit
PUBLIC	?OnSfxClear@CDPSrvr@@AAEXAAVCAr@@KKPAEK@Z	; CDPSrvr::OnSfxClear
PUBLIC	?OnSnapshot@CDPSrvr@@AAEXAAVCAr@@KKPAEK@Z	; CDPSrvr::OnSnapshot
PUBLIC	?OnSetTarget@CDPSrvr@@AAEXAAVCAr@@KKPAEK@Z	; CDPSrvr::OnSetTarget
PUBLIC	?OnTeleSkill@CDPSrvr@@AAEXAAVCAr@@KKPAEK@Z	; CDPSrvr::OnTeleSkill
PUBLIC	?OnPlayerDestPos@CDPSrvr@@AAEXAAVCAr@@PAVCUser@@@Z ; CDPSrvr::OnPlayerDestPos
PUBLIC	?OnModifyMode@CDPSrvr@@AAEXAAVCAr@@KKPAEK@Z	; CDPSrvr::OnModifyMode
PUBLIC	?OnSummonPlayer@CDPSrvr@@AAEXAAVCAr@@KKPAEK@Z	; CDPSrvr::OnSummonPlayer
PUBLIC	?OnTeleportPlayer@CDPSrvr@@AAEXAAVCAr@@KKPAEK@Z	; CDPSrvr::OnTeleportPlayer
PUBLIC	?OnExpUp@CDPSrvr@@AAEXAAVCAr@@KKPAEK@Z		; CDPSrvr::OnExpUp
PUBLIC	?OnChangeJob@CDPSrvr@@AAEXAAVCAr@@KKPAEK@Z	; CDPSrvr::OnChangeJob
PUBLIC	?OnSetHair@CDPSrvr@@AAEXAAVCAr@@KKPAEK@Z	; CDPSrvr::OnSetHair
PUBLIC	?OnBlock@CDPSrvr@@AAEXAAVCAr@@KKPAEK@Z		; CDPSrvr::OnBlock
PUBLIC	?OnGuildLogo@CDPSrvr@@AAEXAAVCAr@@KKPAEK@Z	; CDPSrvr::OnGuildLogo
PUBLIC	?OnGuildContribution@CDPSrvr@@AAEXAAVCAr@@KKPAEK@Z ; CDPSrvr::OnGuildContribution
PUBLIC	?OnGuildNotice@CDPSrvr@@AAEXAAVCAr@@KKPAEK@Z	; CDPSrvr::OnGuildNotice
PUBLIC	?OnEnterChattingRoom@CDPSrvr@@AAEXAAVCAr@@KKPAEK@Z ; CDPSrvr::OnEnterChattingRoom
PUBLIC	?OnChatting@CDPSrvr@@AAEXAAVCAr@@KKPAEK@Z	; CDPSrvr::OnChatting
PUBLIC	?OnOpenChattingRoom@CDPSrvr@@AAEXAAVCAr@@KKPAEK@Z ; CDPSrvr::OnOpenChattingRoom
PUBLIC	?OnCloseChattingRoom@CDPSrvr@@AAEXAAVCAr@@KKPAEK@Z ; CDPSrvr::OnCloseChattingRoom
PUBLIC	?OnCommonPlace@CDPSrvr@@AAEXAAVCAr@@KKPAEK@Z	; CDPSrvr::OnCommonPlace
PUBLIC	?OnSetNaviPoint@CDPSrvr@@AAEXAAVCAr@@KKPAEK@Z	; CDPSrvr::OnSetNaviPoint
PUBLIC	?OnGameMasterWhisper@CDPSrvr@@AAEXAAVCAr@@KKPAEK@Z ; CDPSrvr::OnGameMasterWhisper
PUBLIC	?OnNWWantedGold@CDPSrvr@@AAEXAAVCAr@@KKPAEK@Z	; CDPSrvr::OnNWWantedGold
PUBLIC	?OnNWWantedList@CDPSrvr@@AAEXAAVCAr@@KKPAEK@Z	; CDPSrvr::OnNWWantedList
PUBLIC	?OnNWWantedInfo@CDPSrvr@@AAEXAAVCAr@@KKPAEK@Z	; CDPSrvr::OnNWWantedInfo
PUBLIC	?OnNWWantedName@CDPSrvr@@AAEXAAVCAr@@KKPAEK@Z	; CDPSrvr::OnNWWantedName
PUBLIC	?OnReqLeave@CDPSrvr@@AAEXAAVCAr@@KKPAEK@Z	; CDPSrvr::OnReqLeave
PUBLIC	?OnResurrectionOK@CDPSrvr@@AAEXAAVCAr@@KKPAEK@Z	; CDPSrvr::OnResurrectionOK
PUBLIC	?OnResurrectionCancel@CDPSrvr@@AAEXAAVCAr@@KKPAEK@Z ; CDPSrvr::OnResurrectionCancel
PUBLIC	?OnChangeMode@CDPSrvr@@AAEXAAVCAr@@KKPAEK@Z	; CDPSrvr::OnChangeMode
PUBLIC	?OnStateMode@CDPSrvr@@AAEXAAVCAr@@KKPAEK@Z	; CDPSrvr::OnStateMode
PUBLIC	?OnQuerySetPlayerName@CDPSrvr@@AAEXAAVCAr@@KKPAEK@Z ; CDPSrvr::OnQuerySetPlayerName
PUBLIC	?OnQuerySetGuildName@CDPSrvr@@AAEXAAVCAr@@KKPAEK@Z ; CDPSrvr::OnQuerySetGuildName
PUBLIC	?OnDoEscape@CDPSrvr@@AAEXAAVCAr@@KKPAEK@Z	; CDPSrvr::OnDoEscape
PUBLIC	?OnCheering@CDPSrvr@@AAEXAAVCAr@@KKPAEK@Z	; CDPSrvr::OnCheering
PUBLIC	?OnQueryEquip@CDPSrvr@@AAEXAAVCAr@@KKPAEK@Z	; CDPSrvr::OnQueryEquip
PUBLIC	?OnOptionEnableRenderMask@CDPSrvr@@AAEXAAVCAr@@KKPAEK@Z ; CDPSrvr::OnOptionEnableRenderMask
PUBLIC	?OnQueryEquipSetting@CDPSrvr@@AAEXAAVCAr@@KKPAEK@Z ; CDPSrvr::OnQueryEquipSetting
PUBLIC	?OnFoucusObj@CDPSrvr@@AAEXAAVCAr@@KKPAEK@Z	; CDPSrvr::OnFoucusObj
PUBLIC	?OnReturnScroll@CDPSrvr@@AAEXAAVCAr@@KKPAEK@Z	; CDPSrvr::OnReturnScroll
PUBLIC	?OnChangeFace@CDPSrvr@@AAEXAAVCAr@@KKPAEK@Z	; CDPSrvr::OnChangeFace
PUBLIC	?OnQueryPostMail@CDPSrvr@@AAEXAAVCAr@@KKPAEK@Z	; CDPSrvr::OnQueryPostMail
PUBLIC	?OnQueryRemoveMail@CDPSrvr@@AAEXAAVCAr@@KKPAEK@Z ; CDPSrvr::OnQueryRemoveMail
PUBLIC	?OnQueryGetMailItem@CDPSrvr@@AAEXAAVCAr@@KKPAEK@Z ; CDPSrvr::OnQueryGetMailItem
PUBLIC	?OnQueryGetMailGold@CDPSrvr@@AAEXAAVCAr@@KKPAEK@Z ; CDPSrvr::OnQueryGetMailGold
PUBLIC	?OnQueryReadMail@CDPSrvr@@AAEXAAVCAr@@KKPAEK@Z	; CDPSrvr::OnQueryReadMail
PUBLIC	?OnQueryMailBox@CDPSrvr@@AAEXAAVCAr@@KKPAEK@Z	; CDPSrvr::OnQueryMailBox
PUBLIC	?OnGCApp@CDPSrvr@@AAEXAAVCAr@@KKPAEK@Z		; CDPSrvr::OnGCApp
PUBLIC	?OnGCCancel@CDPSrvr@@AAEXAAVCAr@@KKPAEK@Z	; CDPSrvr::OnGCCancel
PUBLIC	?OnGCRequestStatus@CDPSrvr@@AAEXAAVCAr@@KKPAEK@Z ; CDPSrvr::OnGCRequestStatus
PUBLIC	?OnGCSelectPlayer@CDPSrvr@@AAEXAAVCAr@@KKPAEK@Z	; CDPSrvr::OnGCSelectPlayer
PUBLIC	?OnGCSelectMap@CDPSrvr@@AAEXAAVCAr@@KKPAEK@Z	; CDPSrvr::OnGCSelectMap
PUBLIC	?OnGCJoin@CDPSrvr@@AAEXAAVCAr@@KKPAEK@Z		; CDPSrvr::OnGCJoin
PUBLIC	?OnGCGetPenyaGuild@CDPSrvr@@AAEXAAVCAr@@KKPAEK@Z ; CDPSrvr::OnGCGetPenyaGuild
PUBLIC	?OnGCGetPenyaPlayer@CDPSrvr@@AAEXAAVCAr@@KKPAEK@Z ; CDPSrvr::OnGCGetPenyaPlayer
PUBLIC	?OnGCTele@CDPSrvr@@AAEXAAVCAr@@KKPAEK@Z		; CDPSrvr::OnGCTele
PUBLIC	?OnGCPlayerPoint@CDPSrvr@@AAEXAAVCAr@@KKPAEK@Z	; CDPSrvr::OnGCPlayerPoint
PUBLIC	?OnSummonFriend@CDPSrvr@@AAEXAAVCAr@@KKPAEK@Z	; CDPSrvr::OnSummonFriend
PUBLIC	?OnSummonFriendConfirm@CDPSrvr@@AAEXAAVCAr@@KKPAEK@Z ; CDPSrvr::OnSummonFriendConfirm
PUBLIC	?OnSummonFriendCancel@CDPSrvr@@AAEXAAVCAr@@KKPAEK@Z ; CDPSrvr::OnSummonFriendCancel
PUBLIC	?OnSummonParty@CDPSrvr@@AAEXAAVCAr@@KKPAEK@Z	; CDPSrvr::OnSummonParty
PUBLIC	?OnSummonPartyConfirm@CDPSrvr@@AAEXAAVCAr@@KKPAEK@Z ; CDPSrvr::OnSummonPartyConfirm
PUBLIC	?OnRemoveInvenItem@CDPSrvr@@AAEXAAVCAr@@KKPAEK@Z ; CDPSrvr::OnRemoveInvenItem
PUBLIC	?OnRandomScroll@CDPSrvr@@AAEXAAVCAr@@KKPAEK@Z	; CDPSrvr::OnRandomScroll
PUBLIC	?OnCreateMonster@CDPSrvr@@AAEXAAVCAr@@KKPAEK@Z	; CDPSrvr::OnCreateMonster
PUBLIC	?OnBuyingInfo@CDPSrvr@@AAEXAAVCAr@@KKPAEK@Z	; CDPSrvr::OnBuyingInfo
PUBLIC	?OnCreateAngel@CDPSrvr@@AAEXAAVCAr@@KKPAEK@Z	; CDPSrvr::OnCreateAngel
PUBLIC	?OnAngleBuff@CDPSrvr@@AAEXAAVCAr@@KKPAEK@Z	; CDPSrvr::OnAngleBuff
PUBLIC	?OnKawibawiboStart@CDPSrvr@@AAEXAAVCAr@@KKPAEK@Z ; CDPSrvr::OnKawibawiboStart
PUBLIC	?OnKawibawiboGetItem@CDPSrvr@@AAEXAAVCAr@@KKPAEK@Z ; CDPSrvr::OnKawibawiboGetItem
PUBLIC	?OnReassembleStart@CDPSrvr@@AAEXAAVCAr@@KKPAEK@Z ; CDPSrvr::OnReassembleStart
PUBLIC	?OnReassembleOpenWnd@CDPSrvr@@AAEXAAVCAr@@KKPAEK@Z ; CDPSrvr::OnReassembleOpenWnd
PUBLIC	?OnAlphabetOpenWnd@CDPSrvr@@AAEXAAVCAr@@KKPAEK@Z ; CDPSrvr::OnAlphabetOpenWnd
PUBLIC	?OnAlphabetStart@CDPSrvr@@AAEXAAVCAr@@KKPAEK@Z	; CDPSrvr::OnAlphabetStart
PUBLIC	?OnFiveSystemOpenWnd@CDPSrvr@@AAEXAAVCAr@@KKPAEK@Z ; CDPSrvr::OnFiveSystemOpenWnd
PUBLIC	?OnFiveSystemBet@CDPSrvr@@AAEXAAVCAr@@KKPAEK@Z	; CDPSrvr::OnFiveSystemBet
PUBLIC	?OnFiveSystemStart@CDPSrvr@@AAEXAAVCAr@@KKPAEK@Z ; CDPSrvr::OnFiveSystemStart
PUBLIC	?OnFiveSystemDestroyWnd@CDPSrvr@@AAEXAAVCAr@@KKPAEK@Z ; CDPSrvr::OnFiveSystemDestroyWnd
PUBLIC	?OnUltimateMakeItem@CDPSrvr@@AAEXAAVCAr@@KKPAEK@Z ; CDPSrvr::OnUltimateMakeItem
PUBLIC	?OnUltimateMakeGem@CDPSrvr@@AAEXAAVCAr@@KKPAEK@Z ; CDPSrvr::OnUltimateMakeGem
PUBLIC	?OnUltimateTransWeapon@CDPSrvr@@AAEXAAVCAr@@KKPAEK@Z ; CDPSrvr::OnUltimateTransWeapon
PUBLIC	?OnUltimateSetGem@CDPSrvr@@AAEXAAVCAr@@KKPAEK@Z	; CDPSrvr::OnUltimateSetGem
PUBLIC	?OnUltimateRemoveGem@CDPSrvr@@AAEXAAVCAr@@KKPAEK@Z ; CDPSrvr::OnUltimateRemoveGem
PUBLIC	?OnUltimateEnchantWeapon@CDPSrvr@@AAEXAAVCAr@@KKPAEK@Z ; CDPSrvr::OnUltimateEnchantWeapon
PUBLIC	?OnExchange@CDPSrvr@@AAEXAAVCAr@@KKPAEK@Z	; CDPSrvr::OnExchange
PUBLIC	?OnPetRelease@CDPSrvr@@AAEXAAVCAr@@KKPAEK@Z	; CDPSrvr::OnPetRelease
PUBLIC	?OnUsePetFeed@CDPSrvr@@AAEXAAVCAr@@KKPAEK@Z	; CDPSrvr::OnUsePetFeed
PUBLIC	?OnMakePetFeed@CDPSrvr@@AAEXAAVCAr@@KKPAEK@Z	; CDPSrvr::OnMakePetFeed
PUBLIC	?OnPetTamerMistake@CDPSrvr@@AAEXAAVCAr@@KKPAEK@Z ; CDPSrvr::OnPetTamerMistake
PUBLIC	?OnPetTamerMiracle@CDPSrvr@@AAEXAAVCAr@@KKPAEK@Z ; CDPSrvr::OnPetTamerMiracle
PUBLIC	?OnFeedPocketInactive@CDPSrvr@@AAEXAAVCAr@@KKPAEK@Z ; CDPSrvr::OnFeedPocketInactive
PUBLIC	?OnQueryStartCollecting@CDPSrvr@@AAEXAAVCAr@@KKPAEK@Z ; CDPSrvr::OnQueryStartCollecting
PUBLIC	?OnQueryStopCollecting@CDPSrvr@@AAEXAAVCAr@@KKPAEK@Z ; CDPSrvr::OnQueryStopCollecting
PUBLIC	?OnLegendSkillStart@CDPSrvr@@AAEXAAVCAr@@KKPAEK@Z ; CDPSrvr::OnLegendSkillStart
PUBLIC	?OnModifyStatus@CDPSrvr@@AAEXAAVCAr@@KKPAEK@Z	; CDPSrvr::OnModifyStatus
PUBLIC	?OnGC1to1TenderOpenWnd@CDPSrvr@@AAEXAAVCAr@@KKPAEK@Z ; CDPSrvr::OnGC1to1TenderOpenWnd
PUBLIC	?OnGC1to1TenderView@CDPSrvr@@AAEXAAVCAr@@KKPAEK@Z ; CDPSrvr::OnGC1to1TenderView
PUBLIC	?OnGC1to1Tender@CDPSrvr@@AAEXAAVCAr@@KKPAEK@Z	; CDPSrvr::OnGC1to1Tender
PUBLIC	?OnGC1to1CancelTender@CDPSrvr@@AAEXAAVCAr@@KKPAEK@Z ; CDPSrvr::OnGC1to1CancelTender
PUBLIC	?OnGC1to1FailedTender@CDPSrvr@@AAEXAAVCAr@@KKPAEK@Z ; CDPSrvr::OnGC1to1FailedTender
PUBLIC	?OnGC1to1MemberLineUpOpenWnd@CDPSrvr@@AAEXAAVCAr@@KKPAEK@Z ; CDPSrvr::OnGC1to1MemberLineUpOpenWnd
PUBLIC	?OnGC1to1MemberLineUp@CDPSrvr@@AAEXAAVCAr@@KKPAEK@Z ; CDPSrvr::OnGC1to1MemberLineUp
PUBLIC	?OnGC1to1TeleportToNPC@CDPSrvr@@AAEXAAVCAr@@KKPAEK@Z ; CDPSrvr::OnGC1to1TeleportToNPC
PUBLIC	?OnGC1to1TeleportToStage@CDPSrvr@@AAEXAAVCAr@@KKPAEK@Z ; CDPSrvr::OnGC1to1TeleportToStage
PUBLIC	?OnQueryGuildBankLogList@CDPSrvr@@AAEXAAVCAr@@KKPAEK@Z ; CDPSrvr::OnQueryGuildBankLogList
PUBLIC	?OnSealCharReq@CDPSrvr@@AAEXAAVCAr@@KKPAEK@Z	; CDPSrvr::OnSealCharReq
PUBLIC	?OnSealCharConmReq@CDPSrvr@@AAEXAAVCAr@@KKPAEK@Z ; CDPSrvr::OnSealCharConmReq
PUBLIC	?OnSealCharGetReq@CDPSrvr@@AAEXAAVCAr@@KKPAEK@Z	; CDPSrvr::OnSealCharGetReq
PUBLIC	?OnHonorListReq@CDPSrvr@@AAEXAAVCAr@@KKPAEK@Z	; CDPSrvr::OnHonorListReq
PUBLIC	?OnHonorChangeReq@CDPSrvr@@AAEXAAVCAr@@KKPAEK@Z	; CDPSrvr::OnHonorChangeReq
PUBLIC	?OnNPCBuff@CDPSrvr@@AAEXAAVCAr@@KKPAEK@Z	; CDPSrvr::OnNPCBuff
PUBLIC	?OnSecretRoomTenderOpenWnd@CDPSrvr@@AAEXAAVCAr@@KKPAEK@Z ; CDPSrvr::OnSecretRoomTenderOpenWnd
PUBLIC	?OnSecretRoomLineUpOpenWnd@CDPSrvr@@AAEXAAVCAr@@KKPAEK@Z ; CDPSrvr::OnSecretRoomLineUpOpenWnd
PUBLIC	?OnSecretRoomTender@CDPSrvr@@AAEXAAVCAr@@KKPAEK@Z ; CDPSrvr::OnSecretRoomTender
PUBLIC	?OnSecretRoomTenderCancelReturn@CDPSrvr@@AAEXAAVCAr@@KKPAEK@Z ; CDPSrvr::OnSecretRoomTenderCancelReturn
PUBLIC	?OnSecretRoomLineUpMember@CDPSrvr@@AAEXAAVCAr@@KKPAEK@Z ; CDPSrvr::OnSecretRoomLineUpMember
PUBLIC	?OnSecretRoomEntrance@CDPSrvr@@AAEXAAVCAr@@KKPAEK@Z ; CDPSrvr::OnSecretRoomEntrance
PUBLIC	?OnSecretRoomTeleportToNPC@CDPSrvr@@AAEXAAVCAr@@KKPAEK@Z ; CDPSrvr::OnSecretRoomTeleportToNPC
PUBLIC	?OnSecretRoomTenderView@CDPSrvr@@AAEXAAVCAr@@KKPAEK@Z ; CDPSrvr::OnSecretRoomTenderView
PUBLIC	?OnTeleportSecretRoomDungeon@CDPSrvr@@AAEXAAVCAr@@KKPAEK@Z ; CDPSrvr::OnTeleportSecretRoomDungeon
PUBLIC	?IsInviteAbleGuild@CDPSrvr@@AAEHPAVCUser@@@Z	; CDPSrvr::IsInviteAbleGuild
PUBLIC	?OnSetTaxRate@CDPSrvr@@AAEXAAVCAr@@KKPAEK@Z	; CDPSrvr::OnSetTaxRate
PUBLIC	?OnTeleportToHeavenTower@CDPSrvr@@AAEXAAVCAr@@KKPAEK@Z ; CDPSrvr::OnTeleportToHeavenTower
PUBLIC	?QueryDestroyPlayer@CDPSrvr@@QAEXKKKK@Z		; CDPSrvr::QueryDestroyPlayer
PUBLIC	?PutCreateItemLog@CDPSrvr@@QAEXPAVCUser@@PAVCItemElem@@PBD2@Z ; CDPSrvr::PutCreateItemLog
PUBLIC	?OnLogItem@CDPSrvr@@QAEXAAU_LogItemInfo@@PAVCItemElem@@H@Z ; CDPSrvr::OnLogItem
PUBLIC	?InviteParty@CDPSrvr@@QAEXKKH@Z			; CDPSrvr::InviteParty
PUBLIC	?InviteCompany@CDPSrvr@@QAEXPAVCUser@@K@Z	; CDPSrvr::InviteCompany
PUBLIC	?UpdateGuildBank@CDPSrvr@@QAEXPAVCGuild@@HEKPAVCItemElem@@KF@Z ; CDPSrvr::UpdateGuildBank
PUBLIC	?ClosePVendor@CDPSrvr@@QAEHPAVCUser@@K@Z	; CDPSrvr::ClosePVendor
PUBLIC	?DoUseItemTarget_GenRandomOption@CDPSrvr@@QAEHPAVCUser@@PAVCItemElem@@HHHHPBD2@Z ; CDPSrvr::DoUseItemTarget_GenRandomOption
PUBLIC	?DoUseItemTarget_InitializeRandomOption@CDPSrvr@@QAEHPAVCUser@@PAVCItemElem@@HHHPBD2@Z ; CDPSrvr::DoUseItemTarget_InitializeRandomOption
PUBLIC	?DoUseItemTarget_ItemLevelDown@CDPSrvr@@QAEHPAVCUser@@PAVCItemElem@@1@Z ; CDPSrvr::DoUseItemTarget_ItemLevelDown
PUBLIC	?PutItemLog@CDPSrvr@@QAEXPAVCUser@@PBD1PAVCItemElem@@H@Z ; CDPSrvr::PutItemLog
PUBLIC	?PutPenyaLog@CDPSrvr@@QAEXPAVCUser@@PBD1H@Z	; CDPSrvr::PutPenyaLog
PUBLIC	?OnElectionAddDeposit@CDPSrvr@@AAEXAAVCAr@@KKPAEK@Z ; CDPSrvr::OnElectionAddDeposit
PUBLIC	?OnElectionSetPledge@CDPSrvr@@AAEXAAVCAr@@KKPAEK@Z ; CDPSrvr::OnElectionSetPledge
PUBLIC	?OnElectionIncVote@CDPSrvr@@AAEXAAVCAr@@KKPAEK@Z ; CDPSrvr::OnElectionIncVote
PUBLIC	?OnLEventCreate@CDPSrvr@@AAEXAAVCAr@@KKPAEK@Z	; CDPSrvr::OnLEventCreate
PUBLIC	?OnLordSkillUse@CDPSrvr@@AAEXAAVCAr@@KKPAEK@Z	; CDPSrvr::OnLordSkillUse
PUBLIC	?OnTransformItem@CDPSrvr@@AAEXAAVCAr@@KKPAEK@Z	; CDPSrvr::OnTransformItem
PUBLIC	?OnPickupPetAwakeningCancel@CDPSrvr@@AAEXAAVCAr@@KKPAEK@Z ; CDPSrvr::OnPickupPetAwakeningCancel
PUBLIC	?OnTutorialState@CDPSrvr@@AAEXAAVCAr@@KKPAEK@Z	; CDPSrvr::OnTutorialState
PUBLIC	?OnDoUseItemInput@CDPSrvr@@AAEXAAVCAr@@KKPAEK@Z	; CDPSrvr::OnDoUseItemInput
PUBLIC	?OnClearPetName@CDPSrvr@@AAEXAAVCAr@@KKPAEK@Z	; CDPSrvr::OnClearPetName
PUBLIC	?OnRainbowRacePrevRankingOpenWnd@CDPSrvr@@AAEXAAVCAr@@KKPAEK@Z ; CDPSrvr::OnRainbowRacePrevRankingOpenWnd
PUBLIC	?OnRainbowRaceApplicationOpenWnd@CDPSrvr@@AAEXAAVCAr@@KKPAEK@Z ; CDPSrvr::OnRainbowRaceApplicationOpenWnd
PUBLIC	?OnRainbowRaceApplication@CDPSrvr@@AAEXAAVCAr@@KKPAEK@Z ; CDPSrvr::OnRainbowRaceApplication
PUBLIC	?OnRainbowRaceMiniGamePacket@CDPSrvr@@AAEXAAVCAr@@KKPAEK@Z ; CDPSrvr::OnRainbowRaceMiniGamePacket
PUBLIC	?OnRainbowRaceReqFinish@CDPSrvr@@AAEXAAVCAr@@KKPAEK@Z ; CDPSrvr::OnRainbowRaceReqFinish
PUBLIC	?OnHousingSetupFurniture@CDPSrvr@@AAEXAAVCAr@@KKPAEK@Z ; CDPSrvr::OnHousingSetupFurniture
PUBLIC	?OnHousingSetVisitAllow@CDPSrvr@@AAEXAAVCAr@@KKPAEK@Z ; CDPSrvr::OnHousingSetVisitAllow
PUBLIC	?OnHousingVisitRoom@CDPSrvr@@AAEXAAVCAr@@KKPAEK@Z ; CDPSrvr::OnHousingVisitRoom
PUBLIC	?OnHousingVisitableList@CDPSrvr@@AAEXAAVCAr@@KKPAEK@Z ; CDPSrvr::OnHousingVisitableList
PUBLIC	?OnHousingGoOut@CDPSrvr@@AAEXAAVCAr@@KKPAEK@Z	; CDPSrvr::OnHousingGoOut
PUBLIC	?OnReqQuestNPCPos@CDPSrvr@@AAEXAAVCAr@@KKPAEK@Z	; CDPSrvr::OnReqQuestNPCPos
PUBLIC	?OnPropose@CDPSrvr@@AAEXAAVCAr@@KKPAEK@Z	; CDPSrvr::OnPropose
PUBLIC	?OnRefuse@CDPSrvr@@AAEXAAVCAr@@KKPAEK@Z		; CDPSrvr::OnRefuse
PUBLIC	?OnCouple@CDPSrvr@@AAEXAAVCAr@@KKPAEK@Z		; CDPSrvr::OnCouple
PUBLIC	?OnDecouple@CDPSrvr@@AAEXAAVCAr@@KKPAEK@Z	; CDPSrvr::OnDecouple
PUBLIC	?OnMapKey@CDPSrvr@@AAEXAAVCAr@@KKPAEK@Z		; CDPSrvr::OnMapKey
PUBLIC	?OnQuizEventEntrance@CDPSrvr@@AAEXAAVCAr@@KKPAEK@Z ; CDPSrvr::OnQuizEventEntrance
PUBLIC	?OnQuizEventTeleport@CDPSrvr@@AAEXAAVCAr@@KKPAEK@Z ; CDPSrvr::OnQuizEventTeleport
PUBLIC	?OnRemoveVis@CDPSrvr@@AAEXAAVCAr@@KKPAEK@Z	; CDPSrvr::OnRemoveVis
PUBLIC	?OnSwapVis@CDPSrvr@@AAEXAAVCAr@@KKPAEK@Z	; CDPSrvr::OnSwapVis
PUBLIC	?OnBuyGuildHouse@CDPSrvr@@AAEXAAVCAr@@KKPAEK@Z	; CDPSrvr::OnBuyGuildHouse
PUBLIC	?OnGuildHousePacket@CDPSrvr@@AAEXAAVCAr@@KKPAEK@Z ; CDPSrvr::OnGuildHousePacket
PUBLIC	?OnGuildHouseEnter@CDPSrvr@@AAEXAAVCAr@@KKPAEK@Z ; CDPSrvr::OnGuildHouseEnter
PUBLIC	?OnGuildHouseGoOut@CDPSrvr@@AAEXAAVCAr@@KKPAEK@Z ; CDPSrvr::OnGuildHouseGoOut
PUBLIC	?OnTeleporterReq@CDPSrvr@@AAEXAAVCAr@@KKPAEK@Z	; CDPSrvr::OnTeleporterReq
PUBLIC	?OnCheckedQuest@CDPSrvr@@AAEXAAVCAr@@KKPAEK@Z	; CDPSrvr::OnCheckedQuest
PUBLIC	?OnInviteCampusMember@CDPSrvr@@AAEXAAVCAr@@KKPAEK@Z ; CDPSrvr::OnInviteCampusMember
PUBLIC	?OnAcceptCampusMember@CDPSrvr@@AAEXAAVCAr@@KKPAEK@Z ; CDPSrvr::OnAcceptCampusMember
PUBLIC	?OnRefuseCampusMember@CDPSrvr@@AAEXAAVCAr@@KKPAEK@Z ; CDPSrvr::OnRefuseCampusMember
PUBLIC	?OnRemoveCampusMember@CDPSrvr@@AAEXAAVCAr@@KKPAEK@Z ; CDPSrvr::OnRemoveCampusMember
PUBLIC	?OnItemSelectAwakeningValue@CDPSrvr@@AAEXAAVCAr@@KKPAEK@Z ; CDPSrvr::OnItemSelectAwakeningValue
PUBLIC	?OnColosseum@CDPSrvr@@AAEXAAVCAr@@KKPAEK@Z	; CDPSrvr::OnColosseum
PUBLIC	?OnBaruna@CDPSrvr@@AAEXAAVCAr@@KKPAEK@Z		; CDPSrvr::OnBaruna
PUBLIC	?OnTreasureBoxOpen@CDPSrvr@@AAEXAAVCAr@@KKPAEK@Z ; CDPSrvr::OnTreasureBoxOpen
PUBLIC	?OnFashionCombine@CDPSrvr@@AAEXAAVCAr@@KKPAEK@Z	; CDPSrvr::OnFashionCombine
PUBLIC	?OnItemLink@CDPSrvr@@AAEXAAVCAr@@KKPAEK@Z	; CDPSrvr::OnItemLink
PUBLIC	?UnbindScroll@CDPSrvr@@AAEHPAVCUser@@PAVCItemElem@@1@Z ; CDPSrvr::UnbindScroll
PUBLIC	??_GCDPSrvr@@UAEPAXI@Z				; CDPSrvr::`scalar deleting destructor'
PUBLIC	?Serialize@__MINIGAME_PACKET@@UAEXAAVCAr@@@Z	; __MINIGAME_PACKET::Serialize
PUBLIC	??$?6G@CAr@@QAEAAV0@ABG@Z			; CAr::operator<<<unsigned short>
PUBLIC	??$?6H@CAr@@QAEAAV0@ABH@Z			; CAr::operator<<<int>
PUBLIC	??$?5G@CAr@@QAEAAV0@AAG@Z			; CAr::operator>><unsigned short>
PUBLIC	??$?5H@CAr@@QAEAAV0@AAH@Z			; CAr::operator>><int>
PUBLIC	?_Xlength@?$vector@V?$basic_string@DU?$char_traits@D@std@@V?$allocator@D@2@@std@@V?$allocator@V?$basic_string@DU?$char_traits@D@std@@V?$allocator@D@2@@std@@@2@@std@@CAXXZ ; std::vector<std::basic_string<char,std::char_traits<char>,std::allocator<char> >,std::allocator<std::basic_string<char,std::char_traits<char>,std::allocator<char> > > >::_Xlength
PUBLIC	?Serialize@__MINIGAME_EXT_PACKET@@UAEXAAVCAr@@@Z ; __MINIGAME_EXT_PACKET::Serialize
PUBLIC	??$?6I@CAr@@QAEAAV0@ABI@Z			; CAr::operator<<<unsigned int>
PUBLIC	??$?6J@CAr@@QAEAAV0@ABJ@Z			; CAr::operator<<<long>
PUBLIC	??$?6UD3DXVECTOR3@@@CAr@@QAEAAV0@ABUD3DXVECTOR3@@@Z ; CAr::operator<<<D3DXVECTOR3>
PUBLIC	??$?6M@CAr@@QAEAAV0@ABM@Z			; CAr::operator<<<float>
PUBLIC	??$?5J@CAr@@QAEAAV0@AAJ@Z			; CAr::operator>><long>
PUBLIC	??$?5UD3DXVECTOR3@@@CAr@@QAEAAV0@AAUD3DXVECTOR3@@@Z ; CAr::operator>><D3DXVECTOR3>
PUBLIC	??$?5M@CAr@@QAEAAV0@AAM@Z			; CAr::operator>><float>
PUBLIC	?CreateExpBox@@YAPAVCCommonCtrl@@PAVCUser@@@Z	; CreateExpBox
PUBLIC	?CanAdd@@YAHKH@Z				; CanAdd
PUBLIC	??$insert@$0A@$0A@@?$_Tree@V?$_Tmap_traits@KP8CDPSrvr@@AEXAAVCAr@@KKPAEK@ZU?$less@K@std@@V?$allocator@U?$pair@$$CBKP8CDPSrvr@@AEXAAVCAr@@KKPAEK@Z@std@@@4@$0A@@std@@@std@@QAE?AU?$pair@V?$_Tree_iterator@V?$_Tree_val@U?$_Tree_simple_types@U?$pair@$$CBKP8CDPSrvr@@AEXAAVCAr@@KKPAEK@Z@std@@@std@@@std@@@std@@_N@1@$$QAU?$pair@$$CBKP8CDPSrvr@@AEXAAVCAr@@KKPAEK@Z@1@@Z ; std::_Tree<std::_Tmap_traits<unsigned long,void (__thiscall CDPSrvr::*)(CAr &,unsigned long,unsigned long,unsigned char *,unsigned long),std::less<unsigned long>,std::allocator<std::pair<unsigned long const ,void (__thiscall CDPSrvr::*)(CAr &,unsigned long,unsigned long,unsigned char *,unsigned long)> >,0> >::insert<0,0>
PUBLIC	??$?5E@CAr@@QAEAAV0@AAE@Z			; CAr::operator>><unsigned char>
PUBLIC	??$?6E@CAr@@QAEAAV0@ABE@Z			; CAr::operator<<<unsigned char>
PUBLIC	??$?5F@CAr@@QAEAAV0@AAF@Z			; CAr::operator>><short>
PUBLIC	??$?5D@CAr@@QAEAAV0@AAD@Z			; CAr::operator>><char>
PUBLIC	??E?$_Tree_iterator@V?$_Tree_val@U?$_Tree_simple_types@U?$pair@$$CBKPAVCGuildMember@@@std@@@std@@@std@@@std@@QAEAAV01@XZ ; std::_Tree_iterator<std::_Tree_val<std::_Tree_simple_types<std::pair<unsigned long const ,CGuildMember *> > > >::operator++
PUBLIC	??$?5_J@CAr@@QAEAAV0@AA_J@Z			; CAr::operator>><__int64>
PUBLIC	??$?6F@CAr@@QAEAAV0@ABF@Z			; CAr::operator<<<short>
PUBLIC	??$?6_J@CAr@@QAEAAV0@AB_J@Z			; CAr::operator<<<__int64>
PUBLIC	?WhatEleCard@@YAKK@Z				; WhatEleCard
PUBLIC	?GetEnchantPercent@@YAHKH@Z			; GetEnchantPercent
PUBLIC	??1?$vector@U__JOINPLAYER@CGuildCombat@@V?$allocator@U__JOINPLAYER@CGuildCombat@@@std@@@std@@QAE@XZ ; std::vector<CGuildCombat::__JOINPLAYER,std::allocator<CGuildCombat::__JOINPLAYER> >::~vector<CGuildCombat::__JOINPLAYER,std::allocator<CGuildCombat::__JOINPLAYER> >
PUBLIC	??$_Find_lower_bound@K@?$_Tree@V?$_Tmap_traits@KP8CDPSrvr@@AEXAAVCAr@@KKPAEK@ZU?$less@K@std@@V?$allocator@U?$pair@$$CBKP8CDPSrvr@@AEXAAVCAr@@KKPAEK@Z@std@@@4@$0A@@std@@@std@@IBE?AU?$_Tree_find_result@PAU?$_Tree_node@U?$pair@$$CBKP8CDPSrvr@@AEXAAVCAr@@KKPAEK@Z@std@@PAX@std@@@1@ABK@Z ; std::_Tree<std::_Tmap_traits<unsigned long,void (__thiscall CDPSrvr::*)(CAr &,unsigned long,unsigned long,unsigned char *,unsigned long),std::less<unsigned long>,std::allocator<std::pair<unsigned long const ,void (__thiscall CDPSrvr::*)(CAr &,unsigned long,unsigned long,unsigned char *,unsigned long)> >,0> >::_Find_lower_bound<unsigned long>
PUBLIC	??1?$_Alloc_construct_ptr@V?$allocator@U?$_Tree_node@U?$pair@$$CBKP8CDPSrvr@@AEXAAVCAr@@KKPAEK@Z@std@@PAX@std@@@std@@@std@@QAE@XZ ; std::_Alloc_construct_ptr<std::allocator<std::_Tree_node<std::pair<unsigned long const ,void (__thiscall CDPSrvr::*)(CAr &,unsigned long,unsigned long,unsigned char *,unsigned long)>,void *> > >::~_Alloc_construct_ptr<std::allocator<std::_Tree_node<std::pair<unsigned long const ,void (__thiscall CDPSrvr::*)(CAr &,unsigned long,unsigned long,unsigned char *,unsigned long)>,void *> > >
PUBLIC	??1?$_Alloc_construct_ptr@V?$allocator@U?$_Tree_node@KPAX@std@@@std@@@std@@QAE@XZ ; std::_Alloc_construct_ptr<std::allocator<std::_Tree_node<unsigned long,void *> > >::~_Alloc_construct_ptr<std::allocator<std::_Tree_node<unsigned long,void *> > >
PUBLIC	??$_Emplace_reallocate@V?$basic_string@DU?$char_traits@D@std@@V?$allocator@D@2@@std@@@?$vector@V?$basic_string@DU?$char_traits@D@std@@V?$allocator@D@2@@std@@V?$allocator@V?$basic_string@DU?$char_traits@D@std@@V?$allocator@D@2@@std@@@2@@std@@AAEPAV?$basic_string@DU?$char_traits@D@std@@V?$allocator@D@2@@1@QAV21@$$QAV21@@Z ; std::vector<std::basic_string<char,std::char_traits<char>,std::allocator<char> >,std::allocator<std::basic_string<char,std::char_traits<char>,std::allocator<char> > > >::_Emplace_reallocate<std::basic_string<char,std::char_traits<char>,std::allocator<char> > >
PUBLIC	??$_Erase_tree@V?$allocator@U?$_Tree_node@U?$pair@$$CBKP8CDPSrvr@@AEXAAVCAr@@KKPAEK@Z@std@@PAX@std@@@std@@@?$_Tree_val@U?$_Tree_simple_types@U?$pair@$$CBKP8CDPSrvr@@AEXAAVCAr@@KKPAEK@Z@std@@@std@@@std@@QAEXAAV?$allocator@U?$_Tree_node@U?$pair@$$CBKP8CDPSrvr@@AEXAAVCAr@@KKPAEK@Z@std@@PAX@std@@@1@PAU?$_Tree_node@U?$pair@$$CBKP8CDPSrvr@@AEXAAVCAr@@KKPAEK@Z@std@@PAX@1@@Z ; std::_Tree_val<std::_Tree_simple_types<std::pair<unsigned long const ,void (__thiscall CDPSrvr::*)(CAr &,unsigned long,unsigned long,unsigned char *,unsigned long)> > >::_Erase_tree<std::allocator<std::_Tree_node<std::pair<unsigned long const ,void (__thiscall CDPSrvr::*)(CAr &,unsigned long,unsigned long,unsigned char *,unsigned long)>,void *> > >
PUBLIC	??$_Erase_tree@V?$allocator@U?$_Tree_node@KPAX@std@@@std@@@?$_Tree_val@U?$_Tree_simple_types@K@std@@@std@@QAEXAAV?$allocator@U?$_Tree_node@KPAX@std@@@1@PAU?$_Tree_node@KPAX@1@@Z ; std::_Tree_val<std::_Tree_simple_types<unsigned long> >::_Erase_tree<std::allocator<std::_Tree_node<unsigned long,void *> > >
PUBLIC	??$_Emplace_reallocate@ABK@?$vector@KV?$allocator@K@std@@@std@@AAEPAKQAKABK@Z ; std::vector<unsigned long,std::allocator<unsigned long> >::_Emplace_reallocate<unsigned long const &>
PUBLIC	??$_Uninitialized_move@PAV?$basic_string@DU?$char_traits@D@std@@V?$allocator@D@2@@std@@V?$allocator@V?$basic_string@DU?$char_traits@D@std@@V?$allocator@D@2@@std@@@2@@std@@YAPAV?$basic_string@DU?$char_traits@D@std@@V?$allocator@D@2@@0@QAV10@0PAV10@AAV?$allocator@V?$basic_string@DU?$char_traits@D@std@@V?$allocator@D@2@@std@@@0@@Z ; std::_Uninitialized_move<std::basic_string<char,std::char_traits<char>,std::allocator<char> > *,std::allocator<std::basic_string<char,std::char_traits<char>,std::allocator<char> > > >
PUBLIC	??$_Copy_memmove@PAU__REQUESTGUILD@CGuildCombat@@PAU12@@std@@YAPAU__REQUESTGUILD@CGuildCombat@@PAU12@00@Z ; std::_Copy_memmove<CGuildCombat::__REQUESTGUILD *,CGuildCombat::__REQUESTGUILD *>
PUBLIC	??$_Copy_memmove@PAU_NPC_BUFF_SKILL@@PAU1@@std@@YAPAU_NPC_BUFF_SKILL@@PAU1@00@Z ; std::_Copy_memmove<_NPC_BUFF_SKILL *,_NPC_BUFF_SKILL *>
PUBLIC	??$_Copy_memmove@PAKPAK@std@@YAPAKPAK00@Z	; std::_Copy_memmove<unsigned long *,unsigned long *>
PUBLIC	??$_Copy_memmove_tail@PAU__REQUESTGUILD@CGuildCombat@@@std@@YAPAU__REQUESTGUILD@CGuildCombat@@QBDQAU12@II@Z ; std::_Copy_memmove_tail<CGuildCombat::__REQUESTGUILD *>
PUBLIC	??$_Copy_memmove_tail@PAU_NPC_BUFF_SKILL@@@std@@YAPAU_NPC_BUFF_SKILL@@QBDQAU1@II@Z ; std::_Copy_memmove_tail<_NPC_BUFF_SKILL *>
PUBLIC	??$_Copy_memmove_tail@PAK@std@@YAPAKQBDQAKII@Z	; std::_Copy_memmove_tail<unsigned long *>
PUBLIC	??$uninitialized_copy@PAPAPAUtagMAGICATKMSG@@PAPAPAU1@@std@@YAPAPAPAUtagMAGICATKMSG@@QAPAPAU1@0PAPAPAU1@@Z ; std::uninitialized_copy<tagMAGICATKMSG * * *,tagMAGICATKMSG * * *>
PUBLIC	??$_Uninitialized_value_construct_n_unchecked1@PAPAPAUtagMAGICATKMSG@@I@std@@YAPAPAPAUtagMAGICATKMSG@@PAPAPAU1@I@Z ; std::_Uninitialized_value_construct_n_unchecked1<tagMAGICATKMSG * * *,unsigned int>
PUBLIC	??$uninitialized_copy@PAPAPAUtagACTMSG@@PAPAPAU1@@std@@YAPAPAPAUtagACTMSG@@QAPAPAU1@0PAPAPAU1@@Z ; std::uninitialized_copy<tagACTMSG * * *,tagACTMSG * * *>
PUBLIC	??$_Uninitialized_value_construct_n_unchecked1@PAPAPAUtagACTMSG@@I@std@@YAPAPAPAUtagACTMSG@@PAPAPAU1@I@Z ; std::_Uninitialized_value_construct_n_unchecked1<tagACTMSG * * *,unsigned int>
PUBLIC	??$_Uninitialized_copy_unchecked@PAPAPAUtagMAGICATKMSG@@PAPAPAU1@@std@@YAPAPAPAUtagMAGICATKMSG@@PAPAPAU1@QAPAPAU1@0@Z ; std::_Uninitialized_copy_unchecked<tagMAGICATKMSG * * *,tagMAGICATKMSG * * *>
PUBLIC	??$_Zero_range@PAPAPAUtagMAGICATKMSG@@@std@@YAPAPAPAUtagMAGICATKMSG@@QAPAPAU1@0@Z ; std::_Zero_range<tagMAGICATKMSG * * *>
PUBLIC	??$_Uninitialized_copy_unchecked@PAPAPAUtagACTMSG@@PAPAPAU1@@std@@YAPAPAPAUtagACTMSG@@PAPAPAU1@QAPAPAU1@0@Z ; std::_Uninitialized_copy_unchecked<tagACTMSG * * *,tagACTMSG * * *>
PUBLIC	??$_Zero_range@PAPAPAUtagACTMSG@@@std@@YAPAPAPAUtagACTMSG@@QAPAPAU1@0@Z ; std::_Zero_range<tagACTMSG * * *>
PUBLIC	??$_Copy_memmove@PAPAPAUtagMAGICATKMSG@@PAPAPAU1@@std@@YAPAPAPAUtagMAGICATKMSG@@PAPAPAU1@00@Z ; std::_Copy_memmove<tagMAGICATKMSG * * *,tagMAGICATKMSG * * *>
PUBLIC	??$_Copy_memmove@PAPAPAUtagACTMSG@@PAPAPAU1@@std@@YAPAPAPAUtagACTMSG@@PAPAPAU1@00@Z ; std::_Copy_memmove<tagACTMSG * * *,tagACTMSG * * *>
PUBLIC	??$_Copy_memmove_tail@PAPAPAUtagMAGICATKMSG@@@std@@YAPAPAPAUtagMAGICATKMSG@@QBDQAPAPAU1@II@Z ; std::_Copy_memmove_tail<tagMAGICATKMSG * * *>
PUBLIC	??$_Construct_in_place_by_deref@PAPAUtagMAGICATKMSG@@PAPAPAU1@@std@@YAXAAPAPAUtagMAGICATKMSG@@AAPAPAPAU1@@Z ; std::_Construct_in_place_by_deref<tagMAGICATKMSG * *,tagMAGICATKMSG * * *>
PUBLIC	??$_Copy_memmove_tail@PAPAPAUtagACTMSG@@@std@@YAPAPAPAUtagACTMSG@@QBDQAPAPAU1@II@Z ; std::_Copy_memmove_tail<tagACTMSG * * *>
PUBLIC	??$_Construct_in_place_by_deref@PAPAUtagACTMSG@@PAPAPAU1@@std@@YAXAAPAPAUtagACTMSG@@AAPAPAPAU1@@Z ; std::_Construct_in_place_by_deref<tagACTMSG * *,tagACTMSG * * *>
PUBLIC	?_OptionsStorage@?1??__local_stdio_printf_options@@9@4_KA ; `__local_stdio_printf_options'::`2'::_OptionsStorage
PUBLIC	??_C@_02DPKJAMEF@?$CFd@				; `string'
PUBLIC	??_C@_05LLAMLEHD@?$CFI64d@			; `string'
PUBLIC	??_C@_01CPLAODJH@S@				; `string'
PUBLIC	??_C@_01CKDDGHAB@D@				; `string'
PUBLIC	??_C@_01HMGJMAIH@B@				; `string'
PUBLIC	??_C@_00CNPNBAHC@@				; `string'
PUBLIC	??_7exception@std@@6B@				; std::exception::`vftable'
PUBLIC	??_C@_0BC@EOODALEL@Unknown?5exception@		; `string'
PUBLIC	??_7bad_alloc@std@@6B@				; std::bad_alloc::`vftable'
PUBLIC	??_7bad_array_new_length@std@@6B@		; std::bad_array_new_length::`vftable'
PUBLIC	??_C@_0BF@KINCDENJ@bad?5array?5new?5length@	; `string'
PUBLIC	??_R0?AVexception@std@@@8			; std::exception `RTTI Type Descriptor'
PUBLIC	__CT??_R0?AVexception@std@@@8??0exception@std@@QAE@ABV01@@Z12
PUBLIC	__TI3?AVbad_array_new_length@std@@
PUBLIC	__CTA3?AVbad_array_new_length@std@@
PUBLIC	??_R0?AVbad_array_new_length@std@@@8		; std::bad_array_new_length `RTTI Type Descriptor'
PUBLIC	__CT??_R0?AVbad_array_new_length@std@@@8??0bad_array_new_length@std@@QAE@ABV01@@Z12
PUBLIC	??_R0?AVbad_alloc@std@@@8			; std::bad_alloc `RTTI Type Descriptor'
PUBLIC	__CT??_R0?AVbad_alloc@std@@@8??0bad_alloc@std@@QAE@ABV01@@Z12
PUBLIC	??_C@_0BA@JFNIOLAK@string?5too?5long@		; `string'
PUBLIC	??_C@_0BB@GCADKGJO@map?1set?5too?5long@		; `string'
PUBLIC	??_C@_0BM@HMFGHCP@?$CFs?5min?3?$CFd?0?5max?3?$CFd?0?5index?3?$CFd@ ; `string'
PUBLIC	??_C@_0BI@BEIFNGEL@GetItemProp?5range_error@	; `string'
PUBLIC	??_C@_0BJ@GPNGCFMK@GetSkillProp?5range_error@	; `string'
PUBLIC	??_C@_0BJ@GKPOBPPI@GetMoverProp?5range_error@	; `string'
PUBLIC	??_C@_0BE@OHDBLHOM@GetText?5range_error@	; `string'
PUBLIC	??_C@_05KKCIMGE@error@				; `string'
PUBLIC	??_C@_0BA@FOIKENOD@vector?5too?5long@		; `string'
PUBLIC	??_R4exception@std@@6B@				; std::exception::`RTTI Complete Object Locator'
PUBLIC	??_R3exception@std@@8				; std::exception::`RTTI Class Hierarchy Descriptor'
PUBLIC	??_R2exception@std@@8				; std::exception::`RTTI Base Class Array'
PUBLIC	??_R1A@?0A@EA@exception@std@@8			; std::exception::`RTTI Base Class Descriptor at (0,-1,0,64)'
PUBLIC	??_R4bad_array_new_length@std@@6B@		; std::bad_array_new_length::`RTTI Complete Object Locator'
PUBLIC	??_R3bad_array_new_length@std@@8		; std::bad_array_new_length::`RTTI Class Hierarchy Descriptor'
PUBLIC	??_R2bad_array_new_length@std@@8		; std::bad_array_new_length::`RTTI Base Class Array'
PUBLIC	??_R1A@?0A@EA@bad_array_new_length@std@@8	; std::bad_array_new_length::`RTTI Base Class Descriptor at (0,-1,0,64)'
PUBLIC	??_R1A@?0A@EA@bad_alloc@std@@8			; std::bad_alloc::`RTTI Base Class Descriptor at (0,-1,0,64)'
PUBLIC	??_R3bad_alloc@std@@8				; std::bad_alloc::`RTTI Class Hierarchy Descriptor'
PUBLIC	??_R2bad_alloc@std@@8				; std::bad_alloc::`RTTI Base Class Array'
PUBLIC	??_R4bad_alloc@std@@6B@				; std::bad_alloc::`RTTI Complete Object Locator'
PUBLIC	??_7CDPSrvr@@6B@				; CDPSrvr::`vftable'
PUBLIC	??_7__MINIGAME_PACKET@@6B@			; __MINIGAME_PACKET::`vftable'
PUBLIC	??_7__MINIGAME_EXT_PACKET@@6B@			; __MINIGAME_EXT_PACKET::`vftable'
PUBLIC	?g_DPSrvr@@3VCDPSrvr@@A				; g_DPSrvr
PUBLIC	??_C@_01CLKCMJKC@?5@				; `string'
PUBLIC	??_C@_02JOGGLHBA@?2n@				; `string'
PUBLIC	??_C@_0BL@LLLFMEKP@CDPSrvr?3?3OnReplace?5called?6@ ; `string'
PUBLIC	??_C@_0DH@LPECEFCK@npc?5?$DN?5?$CFs?0?5key?5?$DN?5?$CFs?0?5n1?5?$DN?5?$CFd?0?5n2@ ; `string'
PUBLIC	??_C@_05IMILPAJF@?$CDinit@			; `string'
PUBLIC	??_C@_0BM@GEIAMPLC@OnRevival?7?1?1?5?$CFs?5is?5not?5dead@ ; `string'
PUBLIC	??_C@_01HIHLOKLC@1@				; `string'
PUBLIC	??_C@_0DC@EBLAHKGA@Error?5CMover?3?3OnRevival?5Not?5Inv@ ; `string'
PUBLIC	??_C@_02DKCKIIND@?$CFs@				; `string'
PUBLIC	??_C@_01ELNMCGJD@W@				; `string'
PUBLIC	??_C@_09BBHEADKN@GUILDBANK@			; `string'
PUBLIC	??_C@_01FCMHBHNC@V@				; `string'
PUBLIC	??_C@_0DG@POLLBAPP@CDPSrvr?3?3OnDuelPartyYes?5?3?5?$LN?E?C?$LL?$MA@ ; `string'
PUBLIC	??_C@_0DE@KHLECLPI@CDPSrvr?3?3OnDuelPartyYes?5?3?5?$LL?s?$LE?k?5@ ; `string'
PUBLIC	??_C@_0BH@IGGENCLI@PACKETTYPE_PLAYERMOVED@	; `string'
PUBLIC	??_C@_0BK@NPOCPNBA@PACKETTYPE_PLAYERBEHAVIOR@	; `string'
PUBLIC	??_C@_0BI@CIEMALBN@PACKETTYPE_PLAYERMOVED2@	; `string'
PUBLIC	??_C@_0BL@PABIKGOI@PACKETTYPE_PLAYERBEHAVIOR2@	; `string'
PUBLIC	??_C@_0BH@DCKJABEH@PACKETTYPE_PLAYERANGLE@	; `string'
PUBLIC	??_C@_0BG@HLALHLHC@PACKETTYPE_PLAYERCORR@	; `string'
PUBLIC	??_C@_0BH@FDAAEPBK@PACKETTYPE_PLAYERCORR2@	; `string'
PUBLIC	??_C@_0L@LFDGIEPN@VENDOR?1?1?$CFs@		; `string'
PUBLIC	??_C@_0IB@BOIAGANN@CDPSrvr?3?3OnBuyItem?5?3?5__PERIN_BU@ ; `string'
PUBLIC	??_C@_04PFMCNCKP@?$CFs_C@			; `string'
PUBLIC	??_C@_05OALPJECI@?$CFs_CF@			; `string'
PUBLIC	??_C@_04JDPKJLKG@0000@				; `string'
PUBLIC	??_C@_01FHEEJDEE@A@				; `string'
PUBLIC	??_C@_04FBMPAKJH@BANK@				; `string'
PUBLIC	??_C@_01EJNLAFE@P@				; `string'
PUBLIC	??_C@_01NFFPALBN@Y@				; `string'
PUBLIC	??_C@_01BBODEMC@G@				; `string'
PUBLIC	??_C@_0DJ@NFILCNM@C?3?2IAGOS?2server?2v18?2Source?2Sour@ ; `string'
PUBLIC	??_C@_0O@EEFMGFBA@?$CFs?5?$CFd?0?5?$CFs?0?5?$CFs@ ; `string'
PUBLIC	??_C@_0BI@ILGMEGLJ@PACKETTYPE_MELEE_ATTACK@	; `string'
PUBLIC	??_C@_0BJ@FPEGDDBP@PACKETTYPE_MELEE_ATTACK2@	; `string'
PUBLIC	??_C@_0CJ@HLCIENA@?$FL?$CFs?$FN?5try?5to?5hack?5?3?5PACKETTYPE_M@ ; `string'
PUBLIC	??_C@_0DD@OMLBLCPK@?$FL?$CFs?$FN?5try?5to?5hack?5with?5dpid?5?3?5PA@ ; `string'
PUBLIC	??_C@_0BC@LBECDAPP@PACKETTYPE_MOTION@		; `string'
PUBLIC	??_C@_0BG@GDELNBNI@OnRemoveItemLevelDown@	; `string'
PUBLIC	??_C@_01MHEDDDHA@v@				; `string'
PUBLIC	??_C@_0BC@IDLJNOCP@?3?3PetResurrection@		; `string'
PUBLIC	??_C@_01KDCPPGHE@r@				; `string'
PUBLIC	??_C@_0O@FAMKPOKD@?3?3AwakeCancel@		; `string'
PUBLIC	??_C@_07NCKHFLGM@?3?3Awake@			; `string'
PUBLIC	??_C@_0O@CJOAEPG@?3?3Blessedness@		; `string'
PUBLIC	??_C@_0M@NDDIHFBN@EATPETAWAKE@			; `string'
PUBLIC	??_C@_08EBBNIHCB@PETAWAKE@			; `string'
PUBLIC	??_C@_0P@OJAFDKFA@PETAWAKECANCEL@		; `string'
PUBLIC	??_C@_0BC@CFGKHCPN@OnDoUseItemTarget@		; `string'
PUBLIC	??_C@_01OMGOGALD@u@				; `string'
PUBLIC	??_C@_0BB@BMMBOJEP@REMOVE_ATTRIBUTE@		; `string'
PUBLIC	??_C@_01MJMHLOMK@O@				; `string'
PUBLIC	??_C@_0N@KNFOGFIE@RANDOMSCROLL@			; `string'
PUBLIC	??_C@_01ODHLEDKK@?$CI@				; `string'
PUBLIC	??_C@_01PKGAHCOL@?$CJ@				; `string'
PUBLIC	??_C@_01BMBHCPLG@5@				; `string'
PUBLIC	??_C@_08DHHJCFN@?$CFs?5?9?$DO?5?$CFs@		; `string'
PUBLIC	??_C@_06NDLDHKAP@flaris@			; `string'
PUBLIC	??_C@_0N@HFJJMILE@saintmorning@			; `string'
PUBLIC	??_C@_06JACJNBB@darkon@				; `string'
PUBLIC	??_C@_0EL@KLMFPIEK@CDPSrvr?3?3OnQueryRemoveMail?5?9?5In@ ; `string'
PUBLIC	??_C@_0EO@KBNBEDIE@CDPSrvr?3?3OnQueryRemoveMail?5?9?5In@ ; `string'
PUBLIC	??_C@_0EM@EEFKNHHP@CDPSrvr?3?3OnQueryGetMailGold?5?9?5I@ ; `string'
PUBLIC	??_C@_0EP@PBNNNCKI@CDPSrvr?3?3OnQueryGetMailGold?5?9?5I@ ; `string'
PUBLIC	??_C@_0EJ@MBAIDC@CDPSrvr?3?3OnQueryReadMail?5?9?5Inva@ ; `string'
PUBLIC	??_C@_0EM@OIOCFPGD@CDPSrvr?3?3OnQueryReadMail?5?9?5Inva@ ; `string'
PUBLIC	??_C@_0CM@NEJJEDGC@CDPSrvr?3?3OnQueryMailBox?5?9?5Inval@ ; `string'
PUBLIC	??_C@_0CE@HLCFDEPD@GuildCombat?5SelectPlayer?5GuildI@ ; `string'
PUBLIC	??_C@_04OEDFLLKD@?$CC?$CFs?$CC@			; `string'
PUBLIC	??_C@_09DPACILDJ@?$CC?$CFs?$CC?5?$CC?$CFs?$CC@	; `string'
PUBLIC	??_C@_01NBENCBCI@?$CK@				; `string'
PUBLIC	??_C@_07ODPPCICH@GARBAGE@			; `string'
PUBLIC	??_C@_01POHCFINO@Z@				; `string'
PUBLIC	??_C@_01MMEEDKFM@X@				; `string'
PUBLIC	??_C@_01HNPIGOCE@?$CG@				; `string'
PUBLIC	??_C@_0P@OGMDODLI@ANGEL_MATERIAL@		; `string'
PUBLIC	??_C@_0N@BLCHFHBJ@ANGEL_CREATE@			; `string'
PUBLIC	??_C@_0BH@BLONACAL@ANGEL_CREATE_COMPLETED@	; `string'
PUBLIC	??_C@_01PJKLJHI@?$HO@				; `string'
PUBLIC	??_C@_0BJ@OHPGDLFJ@PET_FOOD_MATERIAL_REMOVE@	; `string'
PUBLIC	??_C@_0BA@KJLOBMNK@PET_FOOD_CREATE@		; `string'
PUBLIC	??_C@_01MIFGBAGJ@?$CL@				; `string'
PUBLIC	??_C@_0BA@DOBCAFAK@LEGENDSKILL_USE@		; `string'
PUBLIC	??_C@_08BBJEGENL@SEALCHAR@			; `string'
PUBLIC	??_C@_01GOHFPIOK@m@				; `string'
PUBLIC	??_C@_0BD@DAAECDFN@OnMoveItemOnPocket@		; `string'
PUBLIC	??_C@_0O@NEABABCF@OnAvailPocket@		; `string'
PUBLIC	??_C@_0BE@FLEEAGA@OnBlessednessCancel@		; `string'
PUBLIC	??_C@_0M@OENFCCJB@OnAwakening@			; `string'
PUBLIC	??_C@_0L@CNGFPJJM@?$CFd?5?$CFd?5?$CC?$CFs?$CC@	; `string'
PUBLIC	??_C@_01FJMABOPO@x@				; `string'
PUBLIC	??_C@_0BF@GCGBOBGC@OnQuePetResurrection@	; `string'
PUBLIC	??_C@_07IPDAPPGD@DEPOSIT@			; `string'
PUBLIC	??_C@_01LPLHEDKD@d@				; `string'
PUBLIC	??_C@_06EFGCDLHH@PLEDGE@			; `string'
PUBLIC	??_C@_01JBBJJEPG@p@				; `string'
PUBLIC	??_C@_0CO@OMEENFJN@OnLEventCreate?3?5cost?3?5?$CFd?$CIperin?$CJ@ ; `string'
PUBLIC	??_C@_01KGKMHCOC@e@				; `string'
PUBLIC	??_C@_0CK@NIOEEMBG@?$CC?$CF?$CCs?5User?5Is?5Not?5Next?5Win?5Guild@ ; `string'
PUBLIC	??_C@_0DP@BBNBDIGB@CDPSrvr?3?3OnTeleportToHeavenTowe@ ; `string'
PUBLIC	??_C@_0BB@FFINDLJM@HEAVEN_TOWER_?$CF2d@		; `string'
PUBLIC	??_C@_01BDACAMKP@h@				; `string'
PUBLIC	??_C@_01GLPGHMHM@z@				; `string'
PUBLIC	??_C@_0BD@KCJFHIJN@USE_AWAKESAVE_ITEM@		; `string'
PUBLIC	??_C@_0BA@DJFHHPLH@?3?3ItemLevelDown@		; `string'
PUBLIC	??_C@_04GAMPDDLK@PPAC@				; `string'
PUBLIC	??_C@_01DICPFPGM@k@				; `string'
PUBLIC	??_C@_0DJ@GAHDDOKA@pUser?5is?5invalid?5in?5OnItemSelec@ ; `string'
PUBLIC	??_C@_0FF@HJJNBDCN@packet?5editor?5detected?4?5tried?5t@ ; `string'
PUBLIC	??_C@_07MDOIOHKL@?3?3binds@			; `string'
PUBLIC	??_C@_0N@GELFDHNG@CONTAINER?1?10@		; `string'
PUBLIC	??_C@_0BF@OJMCJNHH@GETEQUIP?1?1?$CFd?0?5?$CFd?0?5?$CFd@ ; `string'
PUBLIC	??_C@_0EK@GINEPMCL@template?5?$DMclass?5T?$DO?5BOOL?5CItemCo@ ; `string'
PUBLIC	??_C@_0BJ@DHFDPMIM@invalid?5vector?5subscript@	; `string'
PUBLIC	??_C@_0BC@KBDMBKEH@deque?$DMT?$DO?5too?5long@	; `string'
PUBLIC	??_R4CDPSrvr@@6B@				; CDPSrvr::`RTTI Complete Object Locator'
PUBLIC	??_R0?AVCDPSrvr@@@8				; CDPSrvr `RTTI Type Descriptor'
PUBLIC	??_R3CDPSrvr@@8					; CDPSrvr::`RTTI Class Hierarchy Descriptor'
PUBLIC	??_R2CDPSrvr@@8					; CDPSrvr::`RTTI Base Class Array'
PUBLIC	??_R1A@?0A@EA@CDPSrvr@@8			; CDPSrvr::`RTTI Base Class Descriptor at (0,-1,0,64)'
PUBLIC	??_R1A@?0A@EA@CDPMng@@8				; CDPMng::`RTTI Base Class Descriptor at (0,-1,0,64)'
PUBLIC	??_R0?AVCDPMng@@@8				; CDPMng `RTTI Type Descriptor'
PUBLIC	??_R3CDPMng@@8					; CDPMng::`RTTI Class Hierarchy Descriptor'
PUBLIC	??_R2CDPMng@@8					; CDPMng::`RTTI Base Class Array'
PUBLIC	??_R4__MINIGAME_PACKET@@6B@			; __MINIGAME_PACKET::`RTTI Complete Object Locator'
PUBLIC	??_R0?AU__MINIGAME_PACKET@@@8			; __MINIGAME_PACKET `RTTI Type Descriptor'
PUBLIC	??_R3__MINIGAME_PACKET@@8			; __MINIGAME_PACKET::`RTTI Class Hierarchy Descriptor'
PUBLIC	??_R2__MINIGAME_PACKET@@8			; __MINIGAME_PACKET::`RTTI Base Class Array'
PUBLIC	??_R1A@?0A@EA@__MINIGAME_PACKET@@8		; __MINIGAME_PACKET::`RTTI Base Class Descriptor at (0,-1,0,64)'
PUBLIC	??_R4__MINIGAME_EXT_PACKET@@6B@			; __MINIGAME_EXT_PACKET::`RTTI Complete Object Locator'
PUBLIC	??_R0?AU__MINIGAME_EXT_PACKET@@@8		; __MINIGAME_EXT_PACKET `RTTI Type Descriptor'
PUBLIC	??_R3__MINIGAME_EXT_PACKET@@8			; __MINIGAME_EXT_PACKET::`RTTI Class Hierarchy Descriptor'
PUBLIC	??_R2__MINIGAME_EXT_PACKET@@8			; __MINIGAME_EXT_PACKET::`RTTI Base Class Array'
PUBLIC	??_R1A@?0A@EA@__MINIGAME_EXT_PACKET@@8		; __MINIGAME_EXT_PACKET::`RTTI Base Class Descriptor at (0,-1,0,64)'
PUBLIC	__real@3ca3d70a
PUBLIC	__real@3e000000
PUBLIC	__real@3e4ccccd
PUBLIC	__real@3e800000
PUBLIC	__real@3f666666
PUBLIC	__real@3f800000
PUBLIC	__real@3ff0000000000000
PUBLIC	__real@40800000
PUBLIC	__real@4090000000000000
PUBLIC	__real@41200000
PUBLIC	__real@42652ee0
PUBLIC	__real@4285555a
PUBLIC	__real@42c80000
PUBLIC	__real@432e0000
PUBLIC	__real@43300000
PUBLIC	__real@43370000
PUBLIC	__real@437f0000
PUBLIC	__real@43b40000
PUBLIC	__real@49742400
PUBLIC	__real@4efa56ea
PUBLIC	__xmm@00000000000000000000006400000064
PUBLIC	__xmm@00000025000000150000000900000001
PUBLIC	__xmm@00000026000000160000000a00000002
PUBLIC	__xmm@00000027000000170000000b00000003
PUBLIC	__xmm@00000028000000180000000c00000004
PUBLIC	__xmm@41f00000000000000000000000000000
PUBLIC	__xmm@7fffffffffffffff7fffffffffffffff
PUBLIC	__xmm@80000000800000008000000080000000
EXTRN	??2@YAPAXI@Z:PROC				; operator new
EXTRN	??3@YAXPAXI@Z:PROC				; operator delete
EXTRN	_atexit:PROC
EXTRN	__invalid_parameter_noinfo:PROC
EXTRN	__invoke_watson:PROC
EXTRN	__errno:PROC
EXTRN	_strncpy:PROC
EXTRN	__imp__OutputDebugStringA@4:PROC
EXTRN	__imp__GetTickCount@0:PROC
EXTRN	__imp__LoadResource@8:PROC
EXTRN	__imp__LockResource@4:PROC
EXTRN	__imp__SizeofResource@8:PROC
EXTRN	__imp__FindResourceW@12:PROC
EXTRN	__imp__MulDiv@12:PROC
EXTRN	__imp__lstrcmpA@8:PROC
EXTRN	__imp__lstrcpyA@8:PROC
EXTRN	__imp__lstrlenA@4:PROC
EXTRN	__imp__WideCharToMultiByte@32:PROC
EXTRN	__mbslwr:PROC
EXTRN	__mbsstr:PROC
EXTRN	___stdio_common_vsprintf:PROC
EXTRN	___stdio_common_vsprintf_s:PROC
EXTRN	_atoi:PROC
EXTRN	?AfxThrowMemoryException@@YGXXZ:PROC		; AfxThrowMemoryException
EXTRN	?AfxThrowInvalidArgException@@YGXXZ:PROC	; AfxThrowInvalidArgException
EXTRN	?AfxThrowOleException@@YGXJ@Z:PROC		; AfxThrowOleException
EXTRN	?AfxFindStringResourceHandle@@YGPAUHINSTANCE__@@I@Z:PROC ; AfxFindStringResourceHandle
EXTRN	?AfxGetStringManager@@YGPAUIAtlStringMgr@ATL@@XZ:PROC ; AfxGetStringManager
EXTRN	?Lookup@CMapStringToPtr@@QBEHPBDAAPAX@Z:PROC	; CMapStringToPtr::Lookup
EXTRN	__isnan:PROC
EXTRN	___std_exception_copy:PROC
EXTRN	___std_exception_destroy:PROC
EXTRN	??_Eexception@std@@UAEPAXI@Z:PROC		; std::exception::`vector deleting destructor'
EXTRN	??_Ebad_alloc@std@@UAEPAXI@Z:PROC		; std::bad_alloc::`vector deleting destructor'
EXTRN	??_Ebad_array_new_length@std@@UAEPAXI@Z:PROC	; std::bad_array_new_length::`vector deleting destructor'
EXTRN	?_Xlength_error@std@@YAXPBD@Z:PROC		; std::_Xlength_error
EXTRN	?_Xout_of_range@std@@YAXPBD@Z:PROC		; std::_Xout_of_range
EXTRN	__imp__timeGetTime@0:PROC
EXTRN	_D3DXVec3Normalize@8:PROC
EXTRN	?ParsingCommand@@YAHPBDPAVCMover@@H@Z:PROC	; ParsingCommand
EXTRN	?ParsingEffect@@YAXPADH@Z:PROC			; ParsingEffect
EXTRN	?RemoveCRLF@@YAXPAD@Z:PROC			; RemoveCRLF
EXTRN	?WriteLog@@YAXPBDZZ:PROC			; WriteLog
EXTRN	?WriteError@@YAXPBDZZ:PROC			; WriteError
EXTRN	?xRandom@@YAKKK@Z:PROC				; xRandom
EXTRN	?Error@@YAPBDPBDZZ:PROC				; Error
EXTRN	?GetLanguage@@YAHXZ:PROC			; GetLanguage
EXTRN	?SetPos@CObj@@QAEXABUD3DXVECTOR3@@@Z:PROC	; CObj::SetPos
EXTRN	?SetAngle@CObj@@QAEXM@Z:PROC			; CObj::SetAngle
EXTRN	?DoApplySkill@CCtrl@@QAEHPAV1@PAUItemProp@@PAUAddSkillProp@@_NHHH@Z:PROC ; CCtrl::DoApplySkill
EXTRN	?Result_Kawibawibo@CMiniGame@@QAEHPAVCUser@@@Z:PROC ; CMiniGame::Result_Kawibawibo
EXTRN	?ResultItem_Kawibawibo@CMiniGame@@QAEHPAVCUser@@@Z:PROC ; CMiniGame::ResultItem_Kawibawibo
EXTRN	?FindKawibawibo@CMiniGame@@QAE?AU__KAWIBAWIBO@1@H@Z:PROC ; CMiniGame::FindKawibawibo
EXTRN	?Result_Reassemble@CMiniGame@@QAEHPAVCUser@@PAKH@Z:PROC ; CMiniGame::Result_Reassemble
EXTRN	?ResultItem_Reassemble@CMiniGame@@QAEHPAVCUser@@@Z:PROC ; CMiniGame::ResultItem_Reassemble
EXTRN	?OpenWnd_Reassemble@CMiniGame@@QAEXPAVCUser@@@Z:PROC ; CMiniGame::OpenWnd_Reassemble
EXTRN	?OpenWnd_Alphabet@CMiniGame@@QAEXPAVCUser@@@Z:PROC ; CMiniGame::OpenWnd_Alphabet
EXTRN	?Result_Alphabet@CMiniGame@@QAEHPAVCUser@@PAKHH@Z:PROC ; CMiniGame::Result_Alphabet
EXTRN	?ResultItem_Alphabet@CMiniGame@@QAEHPAVCUser@@H@Z:PROC ; CMiniGame::ResultItem_Alphabet
EXTRN	?OpenWnd_FiveSystem@CMiniGame@@QAEXPAVCUser@@@Z:PROC ; CMiniGame::OpenWnd_FiveSystem
EXTRN	?DestroyWnd_FiveSystem@CMiniGame@@QAEXPAVCUser@@@Z:PROC ; CMiniGame::DestroyWnd_FiveSystem
EXTRN	?Bet_FiveSystem@CMiniGame@@QAEHPAVCUser@@HH@Z:PROC ; CMiniGame::Bet_FiveSystem
EXTRN	?Result_FiveSystem@CMiniGame@@QAEHPAVCUser@@@Z:PROC ; CMiniGame::Result_FiveSystem
EXTRN	?ResultPenya_FiveSystem@CMiniGame@@QAEHPAVCUser@@H@Z:PROC ; CMiniGame::ResultPenya_FiveSystem
EXTRN	?MakeGem@CUltimateWeapon@@QAEHPAVCUser@@KAAH@Z:PROC ; CUltimateWeapon::MakeGem
EXTRN	?SetGem@CUltimateWeapon@@QAEHPAVCUser@@KK@Z:PROC ; CUltimateWeapon::SetGem
EXTRN	?RemoveGem@CUltimateWeapon@@QAEHPAVCUser@@KK@Z:PROC ; CUltimateWeapon::RemoveGem
EXTRN	?MakeItem@CUltimateWeapon@@QAEHPAVCUser@@PAK@Z:PROC ; CUltimateWeapon::MakeItem
EXTRN	?TransWeapon@CUltimateWeapon@@QAEHPAVCUser@@KKK@Z:PROC ; CUltimateWeapon::TransWeapon
EXTRN	?EnchantWeapon@CUltimateWeapon@@QAEHPAVCUser@@KK@Z:PROC ; CUltimateWeapon::EnchantWeapon
EXTRN	?ResultExchange@CExchange@@QAEHPAVCUser@@HH@Z:PROC ; CExchange::ResultExchange
EXTRN	?GetShopBuyFactor@CEventLua@@QAEMH@Z:PROC	; CEventLua::GetShopBuyFactor
EXTRN	?GetShopSellFactor@CEventLua@@QAEMH@Z:PROC	; CEventLua::GetShopSellFactor
EXTRN	?IsGuildQuestRegion@CProject@@QAEHABUD3DXVECTOR3@@@Z:PROC ; CProject::IsGuildQuestRegion
EXTRN	?GetSkillPoint@CProject@@QAEKPAUItemProp@@@Z:PROC ; CProject::GetSkillPoint
EXTRN	?GetAddSkillProp@CProject@@QAEPAUAddSkillProp@@K@Z:PROC ; CProject::GetAddSkillProp
EXTRN	?GetCtrl@CProject@@QAEPAVCCtrl@@K@Z:PROC	; CProject::GetCtrl
EXTRN	?GetMover@CProject@@QAEPAVCMover@@K@Z:PROC	; CProject::GetMover
EXTRN	?GetUser@CProject@@QAEPAVCUser@@K@Z:PROC	; CProject::GetUser
EXTRN	?IsInvalidName@CProject@@QAEHPBD@Z:PROC		; CProject::IsInvalidName
EXTRN	?IsAllowedLetter@CProject@@QAEHPBDH@Z:PROC	; CProject::IsAllowedLetter
EXTRN	?Formalize@CProject@@QAEXPAD@Z:PROC		; CProject::Formalize
EXTRN	?GetLevelupAvailLevel@CPetProperty@@QAEEE@Z:PROC ; CPetProperty::GetLevelupAvailLevel
EXTRN	?GetFeedEnergy@CPetProperty@@QAEGKH@Z:PROC	; CPetProperty::GetFeedEnergy
EXTRN	?GetMaxEnergy@CPetProperty@@QAEGE@Z:PROC	; CPetProperty::GetMaxEnergy
EXTRN	?GetInstance@CPetProperty@@SAPAV1@XZ:PROC	; CPetProperty::GetInstance
EXTRN	?SetAvailLevel@CPet@@QAEXEE@Z:PROC		; CPet::SetAvailLevel
EXTRN	?GetIndex@CPet@@QAEKXZ:PROC			; CPet::GetIndex
EXTRN	?GetAvailLevel@CPet@@QAEEE@Z:PROC		; CPet::GetAvailLevel
EXTRN	?SetExp@CPet@@QAEXK@Z:PROC			; CPet::SetExp
EXTRN	?GetLife@CPet@@QAEGXZ:PROC			; CPet::GetLife
EXTRN	?SetEnergy@CPet@@QAEXG@Z:PROC			; CPet::SetEnergy
EXTRN	?SetName@CPet@@QAEXPBD@Z:PROC			; CPet::SetName
EXTRN	??0CTransformStuff@@QAE@XZ:PROC			; CTransformStuff::CTransformStuff
EXTRN	??1CTransformStuff@@UAE@XZ:PROC			; CTransformStuff::~CTransformStuff
EXTRN	?Serialize@CTransformStuff@@UAEXAAVCAr@@@Z:PROC	; CTransformStuff::Serialize
EXTRN	?Transformer@ITransformer@@SAPAV1@H@Z:PROC	; ITransformer::Transformer
EXTRN	?Transform@ITransformer@@QAEXPAVCUser@@AAVCTransformStuff@@@Z:PROC ; ITransformer::Transform
EXTRN	?SetPiercingSize@CPiercing@@QAEXH@Z:PROC	; CPiercing::SetPiercingSize
EXTRN	?GetPiercingSize@CPiercing@@QAEHXZ:PROC		; CPiercing::GetPiercingSize
EXTRN	?SetPiercingItem@CPiercing@@QAEXHK@Z:PROC	; CPiercing::SetPiercingItem
EXTRN	?GetPiercingItem@CPiercing@@QAEKH@Z:PROC	; CPiercing::GetPiercingItem
EXTRN	?GetUltimatePiercingSize@CPiercing@@QAEHXZ:PROC	; CPiercing::GetUltimatePiercingSize
EXTRN	?GetUltimatePiercingItem@CPiercing@@QAEKH@Z:PROC ; CPiercing::GetUltimatePiercingItem
EXTRN	?IsQuest@CItemBase@@QAEHXZ:PROC			; CItemBase::IsQuest
EXTRN	?SetTexture@CItemBase@@QAEXXZ:PROC		; CItemBase::SetTexture
EXTRN	?GetCost@CItemBase@@QAEHXZ:PROC			; CItemBase::GetCost
EXTRN	?GetChipCost@CItemBase@@QAEKXZ:PROC		; CItemBase::GetChipCost
EXTRN	?SetSerialNumber@CItemBase@@QAEXXZ:PROC		; CItemBase::SetSerialNumber
EXTRN	?GetNewRandomOption@CItemElem@@QAE_JXZ:PROC	; CItemElem::GetNewRandomOption
EXTRN	?GetNewRandomOptionPtr@CItemElem@@QAEPA_JXZ:PROC ; CItemElem::GetNewRandomOptionPtr
EXTRN	?GetLevelDown@CItemElem@@QAEHXZ:PROC		; CItemElem::GetLevelDown
EXTRN	?SetLevelDown@CItemElem@@QAEXH@Z:PROC		; CItemElem::SetLevelDown
EXTRN	??0CItemElem@@QAE@XZ:PROC			; CItemElem::CItemElem
EXTRN	??1CItemElem@@UAE@XZ:PROC			; CItemElem::~CItemElem
EXTRN	?IsBinds@CItemElem@@QAEHXZ:PROC			; CItemElem::IsBinds
EXTRN	?IsUndestructable@CItemElem@@QAEHXZ:PROC	; CItemElem::IsUndestructable
EXTRN	?IsCharged@CItemElem@@QAEHXZ:PROC		; CItemElem::IsCharged
EXTRN	?IsEleRefineryAble@CItemElem@@SAHPAUItemProp@@@Z:PROC ; CItemElem::IsEleRefineryAble
EXTRN	?IsUsableItem@@YAHPAVCItemBase@@@Z:PROC		; IsUsableItem
EXTRN	??0CAr@@QAE@PAXI@Z:PROC				; CAr::CAr
EXTRN	??1CAr@@QAE@XZ:PROC				; CAr::~CAr
EXTRN	?Read@CAr@@QAEXPAXI@Z:PROC			; CAr::Read
EXTRN	?Write@CAr@@QAEXPBXI@Z:PROC			; CAr::Write
EXTRN	?CheckBuf@CAr@@QAEXI@Z:PROC			; CAr::CheckBuf
EXTRN	?WriteString@CAr@@QAEXPBD@Z:PROC		; CAr::WriteString
EXTRN	?ReadString@CAr@@QAEPADPADH@Z:PROC		; CAr::ReadString
EXTRN	?GetBuffer@CAr@@QAEPAEPAH@Z:PROC		; CAr::GetBuffer
EXTRN	?IsAllClean@CPocketController@@QAEHXZ:PROC	; CPocketController::IsAllClean
EXTRN	?SetAttribute@CPocketController@@QAEXHHH@Z:PROC	; CPocketController::SetAttribute
EXTRN	?GetBuffByIk3@CBuffMgr@@QAEPAVIBuff@@K@Z:PROC	; CBuffMgr::GetBuffByIk3
EXTRN	?ClearState@CAction@@QAEXXZ:PROC		; CAction::ClearState
EXTRN	?DefaultSet@CActionMover@@QAEXXZ:PROC		; CActionMover::DefaultSet
EXTRN	?IsDialogLoaded@CNpcProperty@@QAEHXZ:PROC	; CNpcProperty::IsDialogLoaded
EXTRN	?RunDialog@CNpcProperty@@QAEHPBDPAHHHHH@Z:PROC	; CNpcProperty::RunDialog
EXTRN	?Add@CSfxHitArray@@QAEHHKKKH@Z:PROC		; CSfxHitArray::Add
EXTRN	?GetSfxHit@CSfxHitArray@@QAEPAUtagSfxHit@@H@Z:PROC ; CSfxHitArray::GetSfxHit
EXTRN	?RemoveSfxHit@CSfxHitArray@@QAEHHH@Z:PROC	; CSfxHitArray::RemoveSfxHit
EXTRN	?GetOther@CVTInfo@@QAEPAVCMover@@XZ:PROC	; CVTInfo::GetOther
EXTRN	?SetOther@CVTInfo@@QAEXPAVCMover@@@Z:PROC	; CVTInfo::SetOther
EXTRN	?SetTitle@CVTInfo@@QAEXPBD@Z:PROC		; CVTInfo::SetTitle
EXTRN	?IsVendorOpen@CVTInfo@@QAEHXZ:PROC		; CVTInfo::IsVendorOpen
EXTRN	?TradeClear@CVTInfo@@QAEXXZ:PROC		; CVTInfo::TradeClear
EXTRN	?TradeClearItem@CVTInfo@@QAEHE@Z:PROC		; CVTInfo::TradeClearItem
EXTRN	?TradeSetGold@CVTInfo@@QAEXK@Z:PROC		; CVTInfo::TradeSetGold
EXTRN	?TradeSetItem2@CVTInfo@@QAEKEEAAF@Z:PROC	; CVTInfo::TradeSetItem2
EXTRN	?TradeLastConfirm@CVTInfo@@QAE?AW4TRADE_CONFIRM_TYPE@@AAVCAr@@@Z:PROC ; CVTInfo::TradeLastConfirm
EXTRN	?TradeGetState@CVTInfo@@QAE?AW4TRADE_STATE@@XZ:PROC ; CVTInfo::TradeGetState
EXTRN	?TradeSetState@CVTInfo@@QAEXW4TRADE_STATE@@@Z:PROC ; CVTInfo::TradeSetState
EXTRN	?VendorClose@CVTInfo@@QAEXH@Z:PROC		; CVTInfo::VendorClose
EXTRN	?VendorSetItem@CVTInfo@@QAEXEEFH@Z:PROC		; CVTInfo::VendorSetItem
EXTRN	?VendorClearItem@CVTInfo@@QAEHE@Z:PROC		; CVTInfo::VendorClearItem
EXTRN	?VendorSellItem@CVTInfo@@QAEHPAVCMover@@EKFAAUVENDOR_SELL_RESULT@@@Z:PROC ; CVTInfo::VendorSellItem
EXTRN	?VendorIsVendor@CVTInfo@@QAEHXZ:PROC		; CVTInfo::VendorIsVendor
EXTRN	?HasBuff@CMover@@QAEHGG@Z:PROC			; CMover::HasBuff
EXTRN	?RemoveBuff@CMover@@QAEXGG@Z:PROC		; CMover::RemoveBuff
EXTRN	?HasBuffByIk3@CMover@@QAEHK@Z:PROC		; CMover::HasBuffByIk3
EXTRN	?HasPet@CMover@@QAEHXZ:PROC			; CMover::HasPet
EXTRN	?RemovePet@CMover@@QAEXXZ:PROC			; CMover::RemovePet
EXTRN	?RemoveIk3Buffs@CMover@@QAEXK@Z:PROC		; CMover::RemoveIk3Buffs
EXTRN	?RemoveAllBuff@CMover@@QAEXXZ:PROC		; CMover::RemoveAllBuff
EXTRN	?CheckHonorStat@CMover@@QAEXXZ:PROC		; CMover::CheckHonorStat
EXTRN	?GetPet@CMover@@QAEPAVCPet@@XZ:PROC		; CMover::GetPet
EXTRN	?GetPetItem@CMover@@QAEPAVCItemElem@@XZ:PROC	; CMover::GetPetItem
EXTRN	?PetRelease@CMover@@QAEXXZ:PROC			; CMover::PetRelease
EXTRN	?GetItemId2@CMover@@QAEPAVCItemElem@@HHH@Z:PROC	; CMover::GetItemId2
EXTRN	?CreateItem2@CMover@@QAEHPAVCItemElem@@H@Z:PROC	; CMover::CreateItem2
EXTRN	?RemoveItem2@CMover@@QAEXHFH@Z:PROC		; CMover::RemoveItem2
EXTRN	?GetHairCost@CMover@@SAHPAV1@EEEE@Z:PROC	; CMover::GetHairCost
EXTRN	?IsVendorNPC@CMover@@QAEHXZ:PROC		; CMover::IsVendorNPC
EXTRN	?SetCheerParam@CMover@@QAEXHKK@Z:PROC		; CMover::SetCheerParam
EXTRN	?SetStateNotMode@CMover@@QAEXKE@Z:PROC		; CMover::SetStateNotMode
EXTRN	?GetActiveHandItemProp@CMover@@QAEPAUItemProp@@H@Z:PROC ; CMover::GetActiveHandItemProp
EXTRN	?SetDestPos@CMover@@QAEXABUD3DXVECTOR3@@_NH@Z:PROC ; CMover::SetDestPos
EXTRN	?GetQuest@CMover@@QAEPAUtagQuest@@H@Z:PROC	; CMover::GetQuest
EXTRN	?RemoveQuest@CMover@@QAEHH@Z:PROC		; CMover::RemoveQuest
EXTRN	?IsDisguise@CMover@@QAEHXZ:PROC			; CMover::IsDisguise
EXTRN	?NoDisguise@CMover@@QAEHPAUIDirect3DDevice9@@@Z:PROC ; CMover::NoDisguise
EXTRN	?GetAdjParam@CMover@@QAEHH@Z:PROC		; CMover::GetAdjParam
EXTRN	?SetPointParam@CMover@@QAEXHHH@Z:PROC		; CMover::SetPointParam
EXTRN	?GetSkill@CMover@@QAEPAUtagSkill@@K@Z:PROC	; CMover::GetSkill
EXTRN	?SetHair@CMover@@QAEXH@Z:PROC			; CMover::SetHair
EXTRN	?SetHairColor@CMover@@QAEXMMM@Z:PROC		; CMover::SetHairColor
EXTRN	?SetHead@CMover@@QAEXH@Z:PROC			; CMover::SetHead
EXTRN	?GetName@CMover@@QAEPBDH@Z:PROC			; CMover::GetName
EXTRN	?IsBaseJob@CMover@@QAEHXZ:PROC			; CMover::IsBaseJob
EXTRN	?GetJob@CMover@@QAEHXZ:PROC			; CMover::GetJob
EXTRN	?GetRemainGP@CMover@@QAEHXZ:PROC		; CMover::GetRemainGP
EXTRN	?AddExperience@CMover@@QAEH_JHHH@Z:PROC		; CMover::AddExperience
EXTRN	?IncStrLevel@CMover@@QAEHXZ:PROC		; CMover::IncStrLevel
EXTRN	?IncStaLevel@CMover@@QAEHXZ:PROC		; CMover::IncStaLevel
EXTRN	?IncDexLevel@CMover@@QAEHXZ:PROC		; CMover::IncDexLevel
EXTRN	?IncIntLevel@CMover@@QAEHXZ:PROC		; CMover::IncIntLevel
EXTRN	?GetStr@CMover@@QAEHXZ:PROC			; CMover::GetStr
EXTRN	?GetDex@CMover@@QAEHXZ:PROC			; CMover::GetDex
EXTRN	?GetInt@CMover@@QAEHXZ:PROC			; CMover::GetInt
EXTRN	?GetSta@CMover@@QAEHXZ:PROC			; CMover::GetSta
EXTRN	?RemoveTotalGold@CMover@@QAEH_J@Z:PROC		; CMover::RemoveTotalGold
EXTRN	?AddGold@CMover@@QAEHHH@Z:PROC			; CMover::AddGold
EXTRN	?GetManaPoint@CMover@@QAEHXZ:PROC		; CMover::GetManaPoint
EXTRN	?GetFatiguePoint@CMover@@QAEHXZ:PROC		; CMover::GetFatiguePoint
EXTRN	?GetMaxHitPoint@CMover@@QAEHXZ:PROC		; CMover::GetMaxHitPoint
EXTRN	?GetMaxManaPoint@CMover@@QAEHXZ:PROC		; CMover::GetMaxManaPoint
EXTRN	?GetMaxFatiguePoint@CMover@@QAEHXZ:PROC		; CMover::GetMaxFatiguePoint
EXTRN	?SetDestParamRandomOptExtension@CMover@@QAEXPAVCItemElem@@@Z:PROC ; CMover::SetDestParamRandomOptExtension
EXTRN	?ResetDestParamRandomOptExtension@CMover@@QAEXPAVCItemElem@@@Z:PROC ; CMover::ResetDestParamRandomOptExtension
EXTRN	?IsDropable@CMover@@QAEHPAVCItemElem@@H@Z:PROC	; CMover::IsDropable
EXTRN	?UpdateItem@CMover@@QAEXEDKK@Z:PROC		; CMover::UpdateItem
EXTRN	?UpdateItemEx@CMover@@QAEXED_J@Z:PROC		; CMover::UpdateItemEx
EXTRN	?DropItem@CMover@@QAEPAVCItem@@KFABUD3DXVECTOR3@@H@Z:PROC ; CMover::DropItem
EXTRN	?GetItemNum@CMover@@QAEHK@Z:PROC		; CMover::GetItemNum
EXTRN	?GetItemId@CMover@@QAEPAVCItemBase@@K@Z:PROC	; CMover::GetItemId
EXTRN	?UpdateItemBank@CMover@@QAEXHEDK@Z:PROC		; CMover::UpdateItemBank
EXTRN	?DoUseEquipmentItem@CMover@@QAEHPAVCItemElem@@KH@Z:PROC ; CMover::DoUseEquipmentItem
EXTRN	?DoUseItemVirtual@CMover@@QAEHKH@Z:PROC		; CMover::DoUseItemVirtual
EXTRN	?DoAttackMagic@CMover@@QAEHPAVCObj@@HH@Z:PROC	; CMover::DoAttackMagic
EXTRN	?DoAttackRange@CMover@@QAEHPAVCObj@@KH@Z:PROC	; CMover::DoAttackRange
EXTRN	?ApplyParam@CMover@@QAEHPAVCCtrl@@PAUItemProp@@PAUAddSkillProp@@HH@Z:PROC ; CMover::ApplyParam
EXTRN	?RemoveInvisible@CMover@@QAEXXZ:PROC		; CMover::RemoveInvisible
EXTRN	?BehaviorActionForceSet@CMover@@QAEXXZ:PROC	; CMover::BehaviorActionForceSet
EXTRN	?ActionForceSet@CMover@@QAEXAAUD3DXVECTOR3@@0MKKHHHK@Z:PROC ; CMover::ActionForceSet
EXTRN	?ActionForceSet2@CMover@@QAEXAAUD3DXVECTOR3@@0MMMMKKHHHK@Z:PROC ; CMover::ActionForceSet2
EXTRN	?HalfForceSet@CMover@@QAEXAAUD3DXVECTOR3@@0MMMM@Z:PROC ; CMover::HalfForceSet
EXTRN	?GetGuild@CMover@@QAEPAVCGuild@@XZ:PROC		; CMover::GetGuild
EXTRN	?IsAttackMode@CMover@@QAEHXZ:PROC		; CMover::IsAttackMode
EXTRN	?IsHero@CMover@@QAEHXZ:PROC			; CMover::IsHero
EXTRN	?IsLegendHero@CMover@@QAEHXZ:PROC		; CMover::IsLegendHero
EXTRN	?SetDestObj@CMover@@QAEXKMH@Z:PROC		; CMover::SetDestObj
EXTRN	?IsPVPInspection@CMover@@QAEHPAV1@H@Z:PROC	; CMover::IsPVPInspection
EXTRN	?SubDieDecExp@CMover@@QAEMHKH@Z:PROC		; CMover::SubDieDecExp
EXTRN	?CreateItem@CMover@@QAEHPAVCItemBase@@PAEPAFE@Z:PROC ; CMover::CreateItem
EXTRN	?RemoveItem@CMover@@QAEXEF@Z:PROC		; CMover::RemoveItem
EXTRN	?RemoveItemA@CMover@@QAEHKF@Z:PROC		; CMover::RemoveItemA
EXTRN	?Replace@CMover@@QAEHKKAAUD3DXVECTOR3@@W4REPLACE_TYPE@@H@Z:PROC ; CMover::Replace
EXTRN	?ClearAllSMMode@CMover@@QAEXXZ:PROC		; CMover::ClearAllSMMode
EXTRN	?SetMarkingPos@CMover@@QAEXXZ:PROC		; CMover::SetMarkingPos
EXTRN	?RemoveSFX@CMover@@QAEXKHHK@Z:PROC		; CMover::RemoveSFX
EXTRN	?GetSummonState@CMover@@QAEHXZ:PROC		; CMover::GetSummonState
EXTRN	?IsUsing@CMover@@QAEHPAVCItemElem@@@Z:PROC	; CMover::IsUsing
EXTRN	?IsCommBank@CMover@@QAEHXZ:PROC			; CMover::IsCommBank
EXTRN	?AddObj@CWorld@@QAEHPAVCObj@@HH@Z:PROC		; CWorld::AddObj
EXTRN	?GetLandHeight@CWorld@@QAEMABUD3DXVECTOR3@@@Z:PROC ; CWorld::GetLandHeight
EXTRN	?GetState@CFlyffEvent@@QAEEH@Z:PROC		; CFlyffEvent::GetState
EXTRN	?GetTenderGuildIndexByUser@CGuildCombat1to1Mng@@QAEHPAVCUser@@@Z:PROC ; CGuildCombat1to1Mng::GetTenderGuildIndexByUser
EXTRN	?IsPossibleUser@CGuildCombat1to1Mng@@QAEHPAVCUser@@@Z:PROC ; CGuildCombat1to1Mng::IsPossibleUser
EXTRN	?SendTenderGuildOpenWnd@CGuildCombat1to1Mng@@QAEXPAVCUser@@@Z:PROC ; CGuildCombat1to1Mng::SendTenderGuildOpenWnd
EXTRN	?SendTenderGuildView@CGuildCombat1to1Mng@@QAEXPAVCUser@@@Z:PROC ; CGuildCombat1to1Mng::SendTenderGuildView
EXTRN	?SetTenderGuild@CGuildCombat1to1Mng@@QAEXPAVCUser@@H@Z:PROC ; CGuildCombat1to1Mng::SetTenderGuild
EXTRN	?SetCancelTenderGuild@CGuildCombat1to1Mng@@QAEXPAVCUser@@@Z:PROC ; CGuildCombat1to1Mng::SetCancelTenderGuild
EXTRN	?SetFailedTenderGuild@CGuildCombat1to1Mng@@QAEXPAVCUser@@@Z:PROC ; CGuildCombat1to1Mng::SetFailedTenderGuild
EXTRN	?SendMemberLineUpOpenWnd@CGuildCombat1to1Mng@@QAEXPAVCUser@@@Z:PROC ; CGuildCombat1to1Mng::SendMemberLineUpOpenWnd
EXTRN	?SetMemberLineUp@CGuildCombat1to1Mng@@QAEXPAVCUser@@AAV?$vector@KV?$allocator@K@std@@@std@@@Z:PROC ; CGuildCombat1to1Mng::SetMemberLineUp
EXTRN	?SetTeleportToNPC@CGuildCombat1to1Mng@@QAEXPAVCUser@@@Z:PROC ; CGuildCombat1to1Mng::SetTeleportToNPC
EXTRN	?SetTeleportToStage@CGuildCombat1to1Mng@@QAEXPAVCUser@@@Z:PROC ; CGuildCombat1to1Mng::SetTeleportToStage
EXTRN	?Send@CDPSock@@QAEHPADKK@Z:PROC			; CDPSock::Send
EXTRN	??0CDPMng@@QAE@XZ:PROC				; CDPMng::CDPMng
EXTRN	??1CDPMng@@UAE@XZ:PROC				; CDPMng::~CDPMng
EXTRN	?DecrementMemberContribution@CGuild@@QAEXKKK@Z:PROC ; CGuild::DecrementMemberContribution
EXTRN	?GetMember@CGuild@@QAEPAVCGuildMember@@K@Z:PROC	; CGuild::GetMember
EXTRN	?GetWar@CGuild@@QAEPAVCGuildWar@@XZ:PROC	; CGuild::GetWar
EXTRN	?GetGuild@CGuildMng@@QAEPAVCGuild@@K@Z:PROC	; CGuildMng::GetGuild
EXTRN	?SendSystem@CDPCoreClient@@QAEXPBD@Z:PROC	; CDPCoreClient::SendSystem
EXTRN	?SendSetPartyDuel@CDPCoreClient@@QAEXKKH@Z:PROC	; CDPCoreClient::SendSetPartyDuel
EXTRN	?SendGuildStat@CDPCoreClient@@QAEHPAVCUser@@W4GUILD_STAT@@K@Z:PROC ; CDPCoreClient::SendGuildStat
EXTRN	?SendGuildMsgControl_Bank_Penya@CDPCoreClient@@QAEXPAVCUser@@KEE@Z:PROC ; CDPCoreClient::SendGuildMsgControl_Bank_Penya
EXTRN	?SendAddFriendNameReqest@CDPCoreClient@@QAEXKJEKPBD0@Z:PROC ; CDPCoreClient::SendAddFriendNameReqest
EXTRN	?SendBlock@CDPCoreClient@@QAEXEKPADK@Z:PROC	; CDPCoreClient::SendBlock
EXTRN	?SendWCWantedGold@CDPCoreClient@@QAEXPBDKH0@Z:PROC ; CDPCoreClient::SendWCWantedGold
EXTRN	?SendQuerySetGuildName@CDPCoreClient@@QAEXKKPBDE@Z:PROC ; CDPCoreClient::SendQuerySetGuildName
EXTRN	?SelectPlayerClear@CGuildCombat@@QAEXK@Z:PROC	; CGuildCombat::SelectPlayerClear
EXTRN	?AddSelectPlayer@CGuildCombat@@QAEXKK@Z:PROC	; CGuildCombat::AddSelectPlayer
EXTRN	?GetSelectPlayer@CGuildCombat@@QAEXKAAV?$vector@U__JOINPLAYER@CGuildCombat@@V?$allocator@U__JOINPLAYER@CGuildCombat@@@std@@@std@@@Z:PROC ; CGuildCombat::GetSelectPlayer
EXTRN	?SetDefender@CGuildCombat@@QAEXKK@Z:PROC	; CGuildCombat::SetDefender
EXTRN	?GetDefender@CGuildCombat@@QAEKK@Z:PROC		; CGuildCombat::GetDefender
EXTRN	?GetRequstPenya@CGuildCombat@@QAEKK@Z:PROC	; CGuildCombat::GetRequstPenya
EXTRN	?GetPrizePenya@CGuildCombat@@QAE_JH@Z:PROC	; CGuildCombat::GetPrizePenya
EXTRN	?IsRequestWarGuild@CGuildCombat@@QAEHKH@Z:PROC	; CGuildCombat::IsRequestWarGuild
EXTRN	?JoinObserver@CGuildCombat@@QAEXPAVCUser@@@Z:PROC ; CGuildCombat::JoinObserver
EXTRN	?GuildCombatRequest@CGuildCombat@@QAEXPAVCUser@@K@Z:PROC ; CGuildCombat::GuildCombatRequest
EXTRN	?GuildCombatCancel@CGuildCombat@@QAEXPAVCUser@@@Z:PROC ; CGuildCombat::GuildCombatCancel
EXTRN	?GuildCombatEnter@CGuildCombat@@QAEXPAVCUser@@@Z:PROC ; CGuildCombat::GuildCombatEnter
EXTRN	?SetSelectMap@CGuildCombat@@QAEXPAVCUser@@H@Z:PROC ; CGuildCombat::SetSelectMap
EXTRN	?FindGuildCombatMember@CGuildCombat@@QAEPAU__GuildCombatMember@1@K@Z:PROC ; CGuildCombat::FindGuildCombatMember
EXTRN	?GetInstance@CSecretRoomMng@@SAPAV1@XZ:PROC	; CSecretRoomMng::GetInstance
EXTRN	?IsInTheSecretRoom@CSecretRoomMng@@QAEHPAVCMover@@@Z:PROC ; CSecretRoomMng::IsInTheSecretRoom
EXTRN	?SetTenderOpenWnd@CSecretRoomMng@@QAEXPAVCUser@@@Z:PROC ; CSecretRoomMng::SetTenderOpenWnd
EXTRN	?SetTender@CSecretRoomMng@@QAEXPAVCUser@@H@Z:PROC ; CSecretRoomMng::SetTender
EXTRN	?SetTenderCancelReturn@CSecretRoomMng@@QAEXPAVCUser@@@Z:PROC ; CSecretRoomMng::SetTenderCancelReturn
EXTRN	?SetLineUpOpenWnd@CSecretRoomMng@@QAEXPAVCUser@@@Z:PROC ; CSecretRoomMng::SetLineUpOpenWnd
EXTRN	?SetLineUp@CSecretRoomMng@@QAEXPAVCUser@@V?$vector@KV?$allocator@K@std@@@std@@@Z:PROC ; CSecretRoomMng::SetLineUp
EXTRN	?GetTenderView@CSecretRoomMng@@QAEXPAVCUser@@@Z:PROC ; CSecretRoomMng::GetTenderView
EXTRN	?SetTeleportSecretRoom@CSecretRoomMng@@QAEXPAVCUser@@@Z:PROC ; CSecretRoomMng::SetTeleportSecretRoom
EXTRN	?GetRevivalPos@CSecretRoomMng@@QAE?AUD3DXVECTOR3@@PAVCUser@@@Z:PROC ; CSecretRoomMng::GetRevivalPos
EXTRN	?GetTenderGuild@CSecretRoomContinent@@QAEHK@Z:PROC ; CSecretRoomContinent::GetTenderGuild
EXTRN	??0GuildHouse_Furniture_Info@CGuildHouseBase@@QAE@KHUD3DXVECTOR3@@MJ@Z:PROC ; CGuildHouseBase::GuildHouse_Furniture_Info::GuildHouse_Furniture_Info
EXTRN	?Serialize@GuildHouse_Furniture_Info@CGuildHouseBase@@QAEXAAVCAr@@@Z:PROC ; CGuildHouseBase::GuildHouse_Furniture_Info::Serialize
EXTRN	?GetInstance@CGuildHouseMng@@SAPAV1@XZ:PROC	; CGuildHouseMng::GetInstance
EXTRN	?IsGuildHouse@CGuildHouseMng@@QAEHK@Z:PROC	; CGuildHouseMng::IsGuildHouse
EXTRN	?EnteranceGuildHouse@CGuildHouseMng@@QAEHPAVCUser@@K@Z:PROC ; CGuildHouseMng::EnteranceGuildHouse
EXTRN	?GoOutGuildHouse@CGuildHouseMng@@QAEXPAVCUser@@@Z:PROC ; CGuildHouseMng::GoOutGuildHouse
EXTRN	?ReqBuyGuildHouse@CGuildHouseMng@@QAEXPAVCUser@@@Z:PROC ; CGuildHouseMng::ReqBuyGuildHouse
EXTRN	?SendWorldToDatabase@CGuildHouseMng@@QAEHPAVCUser@@HAAUGuildHouse_Furniture_Info@CGuildHouseBase@@H@Z:PROC ; CGuildHouseMng::SendWorldToDatabase
EXTRN	?SavePlayer@CDPDatabaseClient@@QAEXPAVCUser@@KAAUD3DXVECTOR3@@HH@Z:PROC ; CDPDatabaseClient::SavePlayer
EXTRN	?SendLogLevelUp@CDPDatabaseClient@@QAEXPAVCMover@@H@Z:PROC ; CDPDatabaseClient::SendLogLevelUp
EXTRN	?SendLogSkillPoint@CDPDatabaseClient@@QAEXHHPAVCMover@@PAUtagSkill@@@Z:PROC ; CDPDatabaseClient::SendLogSkillPoint
EXTRN	?SendLogSMItemUse@CDPDatabaseClient@@QAEXPBDPAVCUser@@PAVCItemElem@@PAUItemProp@@0@Z:PROC ; CDPDatabaseClient::SendLogSMItemUse
EXTRN	?SendLogGamemaChat@CDPDatabaseClient@@QAEXPAVCUser@@PBD@Z:PROC ; CDPDatabaseClient::SendLogGamemaChat
EXTRN	?SendChangeBankPass@CDPDatabaseClient@@QAEXPBD0K@Z:PROC ; CDPDatabaseClient::SendChangeBankPass
EXTRN	?SendGCGetPenyaGuild@CDPDatabaseClient@@QAEXKHK@Z:PROC ; CDPDatabaseClient::SendGCGetPenyaGuild
EXTRN	?SendGCGetPenyaPlayer@CDPDatabaseClient@@QAEXKHK@Z:PROC ; CDPDatabaseClient::SendGCGetPenyaPlayer
EXTRN	?SendLogExpBox@CDPDatabaseClient@@QAEXKK_JH@Z:PROC ; CDPDatabaseClient::SendLogExpBox
EXTRN	?SendQuerySetPlayerName@CDPDatabaseClient@@QAEXKPBDK@Z:PROC ; CDPDatabaseClient::SendQuerySetPlayerName
EXTRN	?SendQueryMailBox@CDPDatabaseClient@@QAEXK@Z:PROC ; CDPDatabaseClient::SendQueryMailBox
EXTRN	?SendQueryMailBoxReq@CDPDatabaseClient@@QAEXK@Z:PROC ; CDPDatabaseClient::SendQueryMailBoxReq
EXTRN	?SendQueryMailBoxCount@CDPDatabaseClient@@QAEXKH@Z:PROC ; CDPDatabaseClient::SendQueryMailBoxCount
EXTRN	?SendQueryPostMail@CDPDatabaseClient@@QAEXKKAAVCItemElem@@HPAD1@Z:PROC ; CDPDatabaseClient::SendQueryPostMail
EXTRN	?SendQueryRemoveMail@CDPDatabaseClient@@QAEXKK@Z:PROC ; CDPDatabaseClient::SendQueryRemoveMail
EXTRN	?SendQueryGetMailItem@CDPDatabaseClient@@QAEXKK@Z:PROC ; CDPDatabaseClient::SendQueryGetMailItem
EXTRN	?SendQueryGetMailGold@CDPDatabaseClient@@QAEXKK@Z:PROC ; CDPDatabaseClient::SendQueryGetMailGold
EXTRN	?SendQueryReadMail@CDPDatabaseClient@@QAEXKK@Z:PROC ; CDPDatabaseClient::SendQueryReadMail
EXTRN	?CalluspLoggingQuest@CDPDatabaseClient@@QAEXKHHPBD@Z:PROC ; CDPDatabaseClient::CalluspLoggingQuest
EXTRN	?SendQueryGetGuildBankLogList@CDPDatabaseClient@@QAEXKKE@Z:PROC ; CDPDatabaseClient::SendQueryGetGuildBankLogList
EXTRN	?SendQueryGetSealChar@CDPDatabaseClient@@QAEXKPBD@Z:PROC ; CDPDatabaseClient::SendQueryGetSealChar
EXTRN	?SendQueryGetSealCharConm@CDPDatabaseClient@@QAEXK@Z:PROC ; CDPDatabaseClient::SendQueryGetSealCharConm
EXTRN	?SendQueryGetSealCharGet@CDPDatabaseClient@@QAEXKPBDK@Z:PROC ; CDPDatabaseClient::SendQueryGetSealCharGet
EXTRN	?CalluspPetLog@CDPDatabaseClient@@QAEXKKKHPAVCPet@@@Z:PROC ; CDPDatabaseClient::CalluspPetLog
EXTRN	?SendElectionAddDeposit@CDPDatabaseClient@@QAEXK_J@Z:PROC ; CDPDatabaseClient::SendElectionAddDeposit
EXTRN	?SendElectionSetPledge@CDPDatabaseClient@@QAEXKPBD@Z:PROC ; CDPDatabaseClient::SendElectionSetPledge
EXTRN	?SendElectionIncVote@CDPDatabaseClient@@QAEXKK@Z:PROC ; CDPDatabaseClient::SendElectionIncVote
EXTRN	?SendLEventCreate@CDPDatabaseClient@@QAEXKHH@Z:PROC ; CDPDatabaseClient::SendLEventCreate
EXTRN	?SendLordSkillUse@CDPDatabaseClient@@QAEXKKH@Z:PROC ; CDPDatabaseClient::SendLordSkillUse
EXTRN	?OnUseSkill@CDPSrvr@@AAEXAAVCAr@@KKPAEK@Z:PROC	; CDPSrvr::OnUseSkill
EXTRN	?OnShipActMsg@CDPSrvr@@AAEXAAVCAr@@KKPAEK@Z:PROC ; CDPSrvr::OnShipActMsg
EXTRN	?OnLocalPosFromIA@CDPSrvr@@AAEXAAVCAr@@KKPAEK@Z:PROC ; CDPSrvr::OnLocalPosFromIA
EXTRN	??_ECDPSrvr@@UAEPAXI@Z:PROC			; CDPSrvr::`vector deleting destructor'
EXTRN	?OnEndSkillQueue@CUserTaskBar@@QAEXPAVCUser@@@Z:PROC ; CUserTaskBar::OnEndSkillQueue
EXTRN	?DoUsePartySkill@CParty@@QAEXKKH@Z:PROC		; CParty::DoUsePartySkill
EXTRN	?DoDuelPartyStart@CParty@@QAEXPAV1@@Z:PROC	; CParty::DoDuelPartyStart
EXTRN	?GetParty@CPartyMng@@QAEPAVCParty@@K@Z:PROC	; CPartyMng::GetParty
EXTRN	?GetFriend@CRTMessenger@@QAEPAU_Friend@@K@Z:PROC ; CRTMessenger::GetFriend
EXTRN	?IsBlock@CRTMessenger@@QAEHK@Z:PROC		; CRTMessenger::IsBlock
EXTRN	?AddChattingMember@CChatting@@QAEHK@Z:PROC	; CChatting::AddChattingMember
EXTRN	?RemoveChattingMember@CChatting@@QAEHK@Z:PROC	; CChatting::RemoveChattingMember
EXTRN	?FindChattingMember@CChatting@@QAEHK@Z:PROC	; CChatting::FindChattingMember
EXTRN	?NewChattingRoom@CChattingMng@@QAEKK@Z:PROC	; CChattingMng::NewChattingRoom
EXTRN	?DeleteChattingRoom@CChattingMng@@QAEHK@Z:PROC	; CChattingMng::DeleteChattingRoom
EXTRN	?GetChttingRoom@CChattingMng@@QAEPAVCChatting@@K@Z:PROC ; CChattingMng::GetChttingRoom
EXTRN	?GetInstance@CPlayerDataCenter@@SAPAV1@XZ:PROC	; CPlayerDataCenter::GetInstance
EXTRN	?GetPlayerData@CPlayerDataCenter@@QAEPAU_PlayerData@@K@Z:PROC ; CPlayerDataCenter::GetPlayerData
EXTRN	?GetPlayerString@CPlayerDataCenter@@QAEPBDK@Z:PROC ; CPlayerDataCenter::GetPlayerString
EXTRN	?GetPlayerId@CPlayerDataCenter@@QAEKPAD@Z:PROC	; CPlayerDataCenter::GetPlayerId
EXTRN	?GetInstance@CRainbowRaceMng@@SAPAV1@XZ:PROC	; CRainbowRaceMng::GetInstance
EXTRN	?IsEntry@CRainbowRaceMng@@QAEHK@Z:PROC		; CRainbowRaceMng::IsEntry
EXTRN	?SetApplicationUser@CRainbowRaceMng@@QAEXPAVCUser@@@Z:PROC ; CRainbowRaceMng::SetApplicationUser
EXTRN	?OnMiniGamePacket@CRainbowRaceMng@@QAEXPAVCUser@@PAU__MINIGAME_PACKET@@@Z:PROC ; CRainbowRaceMng::OnMiniGamePacket
EXTRN	?SetRanking@CRainbowRaceMng@@QAEXPAVCUser@@@Z:PROC ; CRainbowRaceMng::SetRanking
EXTRN	?GetInstance@CHousingMng@@SAPAV1@XZ:PROC	; CHousingMng::GetInstance
EXTRN	?ReqSetupFurniture@CHousingMng@@QAEHPAVCUser@@UHOUSINGINFO@@@Z:PROC ; CHousingMng::ReqSetupFurniture
EXTRN	?ReqSetAllowVisit@CHousingMng@@QAEHPAVCUser@@KH@Z:PROC ; CHousingMng::ReqSetAllowVisit
EXTRN	?OnReqVisitableList@CHousingMng@@QAEXPAVCUser@@@Z:PROC ; CHousingMng::OnReqVisitableList
EXTRN	?SetVisitRoom@CHousingMng@@QAEXPAVCUser@@K@Z:PROC ; CHousingMng::SetVisitRoom
EXTRN	?GoOut@CHousingMng@@QAEXPAVCUser@@@Z:PROC	; CHousingMng::GoOut
EXTRN	?GetInstance@CCampusHelper@@SAPAV1@XZ:PROC	; CCampusHelper::GetInstance
EXTRN	?OnInviteCampusMember@CCampusHelper@@QAEXPAVCUser@@0@Z:PROC ; CCampusHelper::OnInviteCampusMember
EXTRN	?OnAcceptCampusMember@CCampusHelper@@QAEXPAVCUser@@0@Z:PROC ; CCampusHelper::OnAcceptCampusMember
EXTRN	?OnRemoveCampusMember@CCampusHelper@@QAEXPAVCUser@@K@Z:PROC ; CCampusHelper::OnRemoveCampusMember
EXTRN	?LevelUpSetting@CUser@@QAEXXZ:PROC		; CUser::LevelUpSetting
EXTRN	?ExpUpSetting@CUser@@QAEXXZ:PROC		; CUser::ExpUpSetting
EXTRN	?AddMailBox@CUser@@QAEXPAVCMailBox@@@Z:PROC	; CUser::AddMailBox
EXTRN	?SendCheckMailBoxReq@CUser@@QAEXH@Z:PROC	; CUser::SendCheckMailBoxReq
EXTRN	?GetCheckTransMailBox@CUser@@QAEHXZ:PROC	; CUser::GetCheckTransMailBox
EXTRN	?CheckClientReq@CUser@@QAE_NXZ:PROC		; CUser::CheckClientReq
EXTRN	?GetCountClientReq@CUser@@QAEHXZ:PROC		; CUser::GetCountClientReq
EXTRN	?IsUsableState@CUser@@QAEHK@Z:PROC		; CUser::IsUsableState
EXTRN	?OnDoUseItem@CUser@@QAEXKKH@Z:PROC		; CUser::OnDoUseItem
EXTRN	?AddHdr@CUser@@QAEXKG@Z:PROC			; CUser::AddHdr
EXTRN	?AddDiagText@CUser@@QAEXPBD@Z:PROC		; CUser::AddDiagText
EXTRN	?AddText@CUser@@QAEXPBD@Z:PROC			; CUser::AddText
EXTRN	?AddMoveItem@CUser@@QAEXEEE@Z:PROC		; CUser::AddMoveItem
EXTRN	?AddTrade@CUser@@QAEXPAV1@K@Z:PROC		; CUser::AddTrade
EXTRN	?AddComfirmTrade@CUser@@QAEXK@Z:PROC		; CUser::AddComfirmTrade
EXTRN	?AddComfirmTradeCancel@CUser@@QAEXK@Z:PROC	; CUser::AddComfirmTradeCancel
EXTRN	?AddTradePut@CUser@@QAEXKEEEF@Z:PROC		; CUser::AddTradePut
EXTRN	?AddTradePutError@CUser@@QAEXXZ:PROC		; CUser::AddTradePutError
EXTRN	?AddTradePull@CUser@@QAEXKE@Z:PROC		; CUser::AddTradePull
EXTRN	?AddTradePutGold@CUser@@QAEXKK@Z:PROC		; CUser::AddTradePutGold
EXTRN	?AddTradeCancel@CUser@@QAEXKKH@Z:PROC		; CUser::AddTradeCancel
EXTRN	?AddOpenShopWnd@CUser@@QAEXPAVCMover@@@Z:PROC	; CUser::AddOpenShopWnd
EXTRN	?AddQuePetResurrectionResult@CUser@@QAEXH@Z:PROC ; CUser::AddQuePetResurrectionResult
EXTRN	?AddDefinedText@CUser@@QAAXHPBDZZ:PROC		; CUser::AddDefinedText
EXTRN	?AddDefinedText@CUser@@QAEXH@Z:PROC		; CUser::AddDefinedText
EXTRN	?AddExpBoxInfo@CUser@@QAEXKKKK@Z:PROC		; CUser::AddExpBoxInfo
EXTRN	?AddSetQuest@CUser@@QAEXPAUtagQuest@@@Z:PROC	; CUser::AddSetQuest
EXTRN	?AddCancelQuest@CUser@@QAEXK@Z:PROC		; CUser::AddCancelQuest
EXTRN	?AddGetItemBank@CUser@@QAEXPAVCItemElem@@@Z:PROC ; CUser::AddGetItemBank
EXTRN	?AddBankIsFull@CUser@@QAEXXZ:PROC		; CUser::AddBankIsFull
EXTRN	?AddChangeBankPass@CUser@@QAEXHKK@Z:PROC	; CUser::AddChangeBankPass
EXTRN	?AddBankWindow@CUser@@QAEXHKK@Z:PROC		; CUser::AddBankWindow
EXTRN	?AddconfirmBankPass@CUser@@QAEXHKK@Z:PROC	; CUser::AddconfirmBankPass
EXTRN	?AddPartyRequest@CUser@@QAEXPAV1@0H@Z:PROC	; CUser::AddPartyRequest
EXTRN	?AddPartyRequestCancel@CUser@@QAEXKKH@Z:PROC	; CUser::AddPartyRequestCancel
EXTRN	?AddFriendReqest@CUser@@QAEXKJEPBD@Z:PROC	; CUser::AddFriendReqest
EXTRN	?AddFriendCancel@CUser@@QAEXXZ:PROC		; CUser::AddFriendCancel
EXTRN	?AddFriendError@CUser@@QAEXEPBD@Z:PROC		; CUser::AddFriendError
EXTRN	?AddDuelRequest@CUser@@QAEXKK@Z:PROC		; CUser::AddDuelRequest
EXTRN	?AddDuelStart@CUser@@QAEXKH@Z:PROC		; CUser::AddDuelStart
EXTRN	?AddDuelNo@CUser@@QAEXK@Z:PROC			; CUser::AddDuelNo
EXTRN	?AddDuelPartyRequest@CUser@@QAEXKK@Z:PROC	; CUser::AddDuelPartyRequest
EXTRN	?AddDuelPartyNo@CUser@@QAEXK@Z:PROC		; CUser::AddDuelPartyNo
EXTRN	?AddQueryPlayerData@CUser@@QAEXKPAU_PlayerData@@@Z:PROC ; CUser::AddQueryPlayerData
EXTRN	?AddSetState@CUser@@QAEXJJJJJ@Z:PROC		; CUser::AddSetState
EXTRN	?AddQueryGetPos@CUser@@QAEXK@Z:PROC		; CUser::AddQueryGetPos
EXTRN	?AddGetPos@CUser@@QAEXKABUD3DXVECTOR3@@M@Z:PROC	; CUser::AddGetPos
EXTRN	?AddCorrReq@CUser@@QAEXPAVCMover@@@Z:PROC	; CUser::AddCorrReq
EXTRN	?AddPlaySound@CUser@@QAEXK@Z:PROC		; CUser::AddPlaySound
EXTRN	?AddMoverFocus@CUser@@QAEXPAVCMover@@@Z:PROC	; CUser::AddMoverFocus
EXTRN	?AddRegisterPVendorItem@CUser@@QAEXEEEFH@Z:PROC	; CUser::AddRegisterPVendorItem
EXTRN	?AddUnregisterPVendorItem@CUser@@QAEXE@Z:PROC	; CUser::AddUnregisterPVendorItem
EXTRN	?AddPVendorItem@CUser@@QAEXPAV1@H@Z:PROC	; CUser::AddPVendorItem
EXTRN	?AddPVendorClose@CUser@@QAEXK@Z:PROC		; CUser::AddPVendorClose
EXTRN	?AddMotionError@CUser@@QAEXXZ:PROC		; CUser::AddMotionError
EXTRN	?AddPutItemBank@CUser@@QAEXEPAVCItemElem@@@Z:PROC ; CUser::AddPutItemBank
EXTRN	?AddPutGoldBank@CUser@@QAEXEKK@Z:PROC		; CUser::AddPutGoldBank
EXTRN	?AddGuildBankWindow@CUser@@QAEXH@Z:PROC		; CUser::AddGuildBankWindow
EXTRN	?AddPutItemGuildBank@CUser@@QAEXPAVCItemElem@@@Z:PROC ; CUser::AddPutItemGuildBank
EXTRN	?AddGetItemGuildBank@CUser@@QAEXPAVCItemElem@@@Z:PROC ; CUser::AddGetItemGuildBank
EXTRN	?AddGetGoldGuildBank@CUser@@QAEXKEKE@Z:PROC	; CUser::AddGetGoldGuildBank
EXTRN	?AddGuildInvite@CUser@@QAEXKK@Z:PROC		; CUser::AddGuildInvite
EXTRN	?AddCommercialElem@CUser@@QAEXKH@Z:PROC		; CUser::AddCommercialElem
EXTRN	?AddGetDestObj@CUser@@QAEXKKM@Z:PROC		; CUser::AddGetDestObj
EXTRN	?AddGCWindow@CUser@@QAEX_JKK@Z:PROC		; CUser::AddGCWindow
EXTRN	?AddGCRequestStatus@CUser@@QAEX_JV?$vector@U__REQUESTGUILD@CGuildCombat@@V?$allocator@U__REQUESTGUILD@CGuildCombat@@@std@@@std@@@Z:PROC ; CUser::AddGCRequestStatus
EXTRN	?AddGCSelectPlayerWindow@CUser@@QAEXAAV?$vector@U__JOINPLAYER@CGuildCombat@@V?$allocator@U__JOINPLAYER@CGuildCombat@@@std@@@std@@KHH@Z:PROC ; CUser::AddGCSelectPlayerWindow
EXTRN	?AddGCGetPenyaGuild@CUser@@QAEXH_J@Z:PROC	; CUser::AddGCGetPenyaGuild
EXTRN	?AddGCGetPenyaPlayer@CUser@@QAEXH_J@Z:PROC	; CUser::AddGCGetPenyaPlayer
EXTRN	?AddGCPlayerPoint@CUser@@QAEXXZ:PROC		; CUser::AddGCPlayerPoint
EXTRN	?AddFocusObj@CUser@@QAEXK@Z:PROC		; CUser::AddFocusObj
EXTRN	?AddEnterChatting@CUser@@QAEXPAV1@@Z:PROC	; CUser::AddEnterChatting
EXTRN	?AddNewChatting@CUser@@QAEXPAVCChatting@@@Z:PROC ; CUser::AddNewChatting
EXTRN	?AddRemoveChatting@CUser@@QAEXK@Z:PROC		; CUser::AddRemoveChatting
EXTRN	?AddDeleteChatting@CUser@@QAEXXZ:PROC		; CUser::AddDeleteChatting
EXTRN	?AddChatting@CUser@@QAEXKPAD@Z:PROC		; CUser::AddChatting
EXTRN	?AddChttingRoomState@CUser@@QAEXH@Z:PROC	; CUser::AddChttingRoomState
EXTRN	?AddSetNaviPoint@CUser@@QAEXABUNaviPoint@@KPBD@Z:PROC ; CUser::AddSetNaviPoint
EXTRN	?AddWantedInfo@CUser@@QAEXABUD3DXVECTOR3@@EKPBD@Z:PROC ; CUser::AddWantedInfo
EXTRN	?AddReturnScroll@CUser@@QAEXXZ:PROC		; CUser::AddReturnScroll
EXTRN	?AddQueryEquip@CUser@@QAEXPAV1@@Z:PROC		; CUser::AddQueryEquip
EXTRN	?AddSummonFriendConfirm@CUser@@QAEXKKPBD0@Z:PROC ; CUser::AddSummonFriendConfirm
EXTRN	?AddSummonPartyConfirm@CUser@@QAEXKKPBD@Z:PROC	; CUser::AddSummonPartyConfirm
EXTRN	?AddDoUseSkillPoint@CUser@@QAEXQAUtagSkill@@H@Z:PROC ; CUser::AddDoUseSkillPoint
EXTRN	?AddSetExperience@CUser@@QAEX_JGHH0G@Z:PROC	; CUser::AddSetExperience
EXTRN	?AddKawibawiboResult@CUser@@QAEXHHKHKH@Z:PROC	; CUser::AddKawibawiboResult
EXTRN	?AddAlphabetResult@CUser@@QAEXHKH@Z:PROC	; CUser::AddAlphabetResult
EXTRN	?AddFiveSystemResult@CUser@@QAEXHHH@Z:PROC	; CUser::AddFiveSystemResult
EXTRN	?AddUltimateMakeItem@CUser@@QAEXH@Z:PROC	; CUser::AddUltimateMakeItem
EXTRN	?AddUltimateMakeGem@CUser@@QAEXHH@Z:PROC	; CUser::AddUltimateMakeGem
EXTRN	?AddUltimateWeapon@CUser@@QAEXEH@Z:PROC		; CUser::AddUltimateWeapon
EXTRN	?AddExchangeResult@CUser@@QAEXEH@Z:PROC		; CUser::AddExchangeResult
EXTRN	?AddPet@CUser@@QAEXPAVCPet@@E@Z:PROC		; CUser::AddPet
EXTRN	?AddPetState@CUser@@QAEXKGGK@Z:PROC		; CUser::AddPetState
EXTRN	?AddPetSetExp@CUser@@QAEXK@Z:PROC		; CUser::AddPetSetExp
EXTRN	?AddPetFoodMill@CUser@@QAEXHH@Z:PROC		; CUser::AddPetFoodMill
EXTRN	?AddLegendSkillResult@CUser@@QAEXH@Z:PROC	; CUser::AddLegendSkillResult
EXTRN	?AddRemoveAttribute@CUser@@QAEXH@Z:PROC		; CUser::AddRemoveAttribute
EXTRN	?AddHonorListAck@CUser@@QAEXXZ:PROC		; CUser::AddHonorListAck
EXTRN	?GetMuteText@CUser@@QAEHXZ:PROC			; CUser::GetMuteText
EXTRN	?AddSetTutorialState@CUser@@QAEXXZ:PROC		; CUser::AddSetTutorialState
EXTRN	?IsGuildMaster@CUser@@QAEHXZ:PROC		; CUser::IsGuildMaster
EXTRN	?AddRainbowRacePrevRankingOpenWnd@CUser@@QAEXXZ:PROC ; CUser::AddRainbowRacePrevRankingOpenWnd
EXTRN	?AddRainbowRaceApplicationOpenWnd@CUser@@QAEXXZ:PROC ; CUser::AddRainbowRaceApplicationOpenWnd
EXTRN	?AddNPCPos@CUser@@QAEXABUD3DXVECTOR3@@@Z:PROC	; CUser::AddNPCPos
EXTRN	?AddSmeltSafety@CUser@@QAEXE@Z:PROC		; CUser::AddSmeltSafety
EXTRN	?AddCheckedQuest@CUser@@QAEXXZ:PROC		; CUser::AddCheckedQuest
EXTRN	?SendTreasure@CUser@@QAEXQAUTreasureItem@@QAH@Z:PROC ; CUser::SendTreasure
EXTRN	?SendItemLink@CUser@@QAEXPAVCItemElem@@@Z:PROC	; CUser::SendItemLink
EXTRN	?SelectAwakeningValue@CUser@@QAEXKKE@Z:PROC	; CUser::SelectAwakeningValue
EXTRN	?SendNewRandomOption@CUser@@QAEXEK_J@Z:PROC	; CUser::SendNewRandomOption
EXTRN	?RemoveAllUsers@CUserMng@@QAEXXZ:PROC		; CUserMng::RemoveAllUsers
EXTRN	?AddUser@CUserMng@@QAEPAVCUser@@KKK@Z:PROC	; CUserMng::AddUser
EXTRN	?RemoveUser@CUserMng@@QAEXK@Z:PROC		; CUserMng::RemoveUser
EXTRN	?GetUser@CUserMng@@QAEPAVCUser@@KK@Z:PROC	; CUserMng::GetUser
EXTRN	?GetUserByPlayerID@CUserMng@@QAEPAVCUser@@K@Z:PROC ; CUserMng::GetUserByPlayerID
EXTRN	?AddNoDisguise@CUserMng@@QAEXPAVCMover@@@Z:PROC	; CUserMng::AddNoDisguise
EXTRN	?AddSetStateLevel@CUserMng@@QAEXPAVCMover@@DJ@Z:PROC ; CUserMng::AddSetStateLevel
EXTRN	?AddHdr@CUserMng@@QAEXPAVCCtrl@@G@Z:PROC	; CUserMng::AddHdr
EXTRN	?AddChat@CUserMng@@QAEXPAVCCtrl@@PBD@Z:PROC	; CUserMng::AddChat
EXTRN	?AddMeleeAttack@CUserMng@@QAEXPAVCMover@@KKHH@Z:PROC ; CUserMng::AddMeleeAttack
EXTRN	?AddMeleeAttack2@CUserMng@@QAEXPAVCMover@@KKHH@Z:PROC ; CUserMng::AddMeleeAttack2
EXTRN	?AddMoverSetDestObj@CUserMng@@QAEXPAVCMover@@KMH@Z:PROC ; CUserMng::AddMoverSetDestObj
EXTRN	?AddMoverBehavior2@CUserMng@@QAEXPAVCMover@@AAUD3DXVECTOR3@@1MMMMKKKHHK_JH@Z:PROC ; CUserMng::AddMoverBehavior2
EXTRN	?AddCreateSfxObj@CUserMng@@QAEXPAVCCtrl@@KMMMH@Z:PROC ; CUserMng::AddCreateSfxObj
EXTRN	?AddModifyMode@CUserMng@@QAEXPAVCUser@@@Z:PROC	; CUserMng::AddModifyMode
EXTRN	?AddPVendorOpen@CUserMng@@QAEXPAVCUser@@@Z:PROC	; CUserMng::AddPVendorOpen
EXTRN	?AddPVendorClose@CUserMng@@QAEXPAVCUser@@@Z:PROC ; CUserMng::AddPVendorClose
EXTRN	?AddSetHair@CUserMng@@QAEXPAVCUser@@EEEE@Z:PROC	; CUserMng::AddSetHair
EXTRN	?AddDoApplySkill@CUserMng@@QAEXPAVCCtrl@@KKK@Z:PROC ; CUserMng::AddDoApplySkill
EXTRN	?AddMoverMoved@CUserMng@@QAEXPAVCMover@@AAUD3DXVECTOR3@@1MKKKHHK_J@Z:PROC ; CUserMng::AddMoverMoved
EXTRN	?AddMoverBehavior@CUserMng@@QAEXPAVCMover@@AAUD3DXVECTOR3@@1MKKKHHK_JH@Z:PROC ; CUserMng::AddMoverBehavior
EXTRN	?AddMoverMoved2@CUserMng@@QAEXPAVCMover@@AAUD3DXVECTOR3@@1MMMMKKKHHK_JE@Z:PROC ; CUserMng::AddMoverMoved2
EXTRN	?AddMotion@CUserMng@@QAEXPAVCMover@@K@Z:PROC	; CUserMng::AddMotion
EXTRN	?AddMoverAngle@CUserMng@@QAEXPAVCMover@@AAUD3DXVECTOR3@@1MMMM_J@Z:PROC ; CUserMng::AddMoverAngle
EXTRN	?AddMoverCorr@CUserMng@@QAEXPAVCMover@@AAUD3DXVECTOR3@@1MKKKHHK_J@Z:PROC ; CUserMng::AddMoverCorr
EXTRN	?AddMoverCorr2@CUserMng@@QAEXPAVCMover@@AAUD3DXVECTOR3@@1MMMMKKKHHK_J@Z:PROC ; CUserMng::AddMoverCorr2
EXTRN	?AddGetItemElem@CUserMng@@QAEXPAVCUser@@PAVCItemElem@@@Z:PROC ; CUserMng::AddGetItemElem
EXTRN	?AddPutItemElem@CUserMng@@QAEXPAVCUser@@PAVCItemElem@@@Z:PROC ; CUserMng::AddPutItemElem
EXTRN	?AddChangeFace@CUserMng@@QAEXKK@Z:PROC		; CUserMng::AddChangeFace
EXTRN	?AddGCGuildStatus@CUserMng@@QAEXKPAVCUser@@@Z:PROC ; CUserMng::AddGCGuildStatus
EXTRN	?AddGCWarPlayerlist@CUserMng@@QAEXKPAVCUser@@@Z:PROC ; CUserMng::AddGCWarPlayerlist
EXTRN	?AddSetDestPos@CUserMng@@QAEXPAVCMover@@ABUD3DXVECTOR3@@E@Z:PROC ; CUserMng::AddSetDestPos
EXTRN	?AddSetPetName@CUserMng@@QAEXPAVCUser@@PBD@Z:PROC ; CUserMng::AddSetPetName
EXTRN	?AddPetLevelup@CUserMng@@QAEXPAVCMover@@K@Z:PROC ; CUserMng::AddPetLevelup
EXTRN	?AddPetFeed@CUserMng@@QAEXPAVCMover@@G@Z:PROC	; CUserMng::AddPetFeed
EXTRN	?AddHonorTitleChange@CUserMng@@QAEXPAVCMover@@H@Z:PROC ; CUserMng::AddHonorTitleChange
EXTRN	?GetWorld@CWorldMng@@QAEPAVCWorld@@K@Z:PROC	; CWorldMng::GetWorld
EXTRN	?GetRevivalPosChao@CWorldMng@@QAEPAUREGIONELEM@@KPBD@Z:PROC ; CWorldMng::GetRevivalPosChao
EXTRN	?GetNearRevivalPosChao@CWorldMng@@QAEPAUREGIONELEM@@KAAUD3DXVECTOR3@@@Z:PROC ; CWorldMng::GetNearRevivalPosChao
EXTRN	?GetRevivalPos@CWorldMng@@QAEPAUREGIONELEM@@KPBD@Z:PROC ; CWorldMng::GetRevivalPos
EXTRN	?GetNearRevivalPos@CWorldMng@@QAEPAUREGIONELEM@@KAAUD3DXVECTOR3@@@Z:PROC ; CWorldMng::GetNearRevivalPos
EXTRN	?CheckMapKey@CWorldMng@@QAEXPAVCUser@@PBD1@Z:PROC ; CWorldMng::CheckMapKey
EXTRN	?GetInstance@CNpcChecker@@SAPAV1@XZ:PROC	; CNpcChecker::GetInstance
EXTRN	?IsCloseNpc@CNpcChecker@@QAEHHPAVCWorld@@AAUD3DXVECTOR3@@@Z:PROC ; CNpcChecker::IsCloseNpc
EXTRN	?IsCloseNpc@CNpcChecker@@QAEHPAVCWorld@@AAUD3DXVECTOR3@@@Z:PROC ; CNpcChecker::IsCloseNpc
EXTRN	?GetMailInfo@CMail@@QAEXPAHPAK@Z:PROC		; CMail::GetMailInfo
EXTRN	?GetMail@CMailBox@@QAEPAVCMail@@K@Z:PROC	; CMailBox::GetMail
EXTRN	?GetMailBox@CPost@@QAEPAVCMailBox@@K@Z:PROC	; CPost::GetMailBox
EXTRN	?GetInstance@CPost@@SAPAV1@XZ:PROC		; CPost::GetInstance
EXTRN	?GetInstance@CWantedListSnapshot@@SAAAV1@XZ:PROC ; CWantedListSnapshot::GetInstance
EXTRN	?Write@CWantedListSnapshot@@QAEXAAVCAr@@@Z:PROC	; CWantedListSnapshot::Write
EXTRN	?GetPlayerIndex@CWantedListSnapshot@@QAEHPBD@Z:PROC ; CWantedListSnapshot::GetPlayerIndex
EXTRN	?GetCost@ILordEvent@@QAE_JHH@Z:PROC		; ILordEvent::GetCost
EXTRN	?Instance@CSLord@@SAPAV1@XZ:PROC		; CSLord::Instance
EXTRN	?AddDepositRequirements@election@@YAHPAVCUser@@_JAA_J@Z:PROC ; election::AddDepositRequirements
EXTRN	?SetPledgeRequirements@election@@YAHPAVCUser@@AAH@Z:PROC ; election::SetPledgeRequirements
EXTRN	?IncVoteRequirements@election@@YAHPAVCUser@@K@Z:PROC ; election::IncVoteRequirements
EXTRN	?CreateRequirements@lordevent@@YAHPAVCUser@@HH@Z:PROC ; lordevent::CreateRequirements
EXTRN	?UseRequirements@lordskill@@YAHPAVCUser@@PBDHAAK@Z:PROC ; lordskill::UseRequirements
EXTRN	?GetInstance@CRandomOptionProperty@@SAPAV1@XZ:PROC ; CRandomOptionProperty::GetInstance
EXTRN	?GetRandomOptionSize@CRandomOptionProperty@@QAEH_J@Z:PROC ; CRandomOptionProperty::GetRandomOptionSize
EXTRN	?GetRandomOptionKind@CRandomOptionProperty@@QAEHPAVCItemElem@@@Z:PROC ; CRandomOptionProperty::GetRandomOptionKind
EXTRN	?GenRandomOption@CRandomOptionProperty@@QAEHPA_JHH_N@Z:PROC ; CRandomOptionProperty::GenRandomOption
EXTRN	?InitializeRandomOption@CRandomOptionProperty@@QAEXPA_J@Z:PROC ; CRandomOptionProperty::InitializeRandomOption
EXTRN	?IsCheckedSafeFlag@CRandomOptionProperty@@QAE_N_J@Z:PROC ; CRandomOptionProperty::IsCheckedSafeFlag
EXTRN	?SetSafeFlag@CRandomOptionProperty@@QAEXPA_J@Z:PROC ; CRandomOptionProperty::SetSafeFlag
EXTRN	?ResetSafeFlag@CRandomOptionProperty@@QAEXPA_J@Z:PROC ; CRandomOptionProperty::ResetSafeFlag
EXTRN	?MergeRandomOption@CRandomOptionProperty@@QAEHPAVCItemElem@@0H@Z:PROC ; CRandomOptionProperty::MergeRandomOption
EXTRN	?GetInstance@CCreateMonster@@SAPAV1@XZ:PROC	; CCreateMonster::GetInstance
EXTRN	?CreateMonster@CCreateMonster@@QAEXPAVCUser@@KUD3DXVECTOR3@@@Z:PROC ; CCreateMonster::CreateMonster
EXTRN	?Instance@CTitleManager@@SAPAV1@XZ:PROC		; CTitleManager::Instance
EXTRN	?GetNeedCount@CTitleManager@@QAEHHH@Z:PROC	; CTitleManager::GetNeedCount
EXTRN	?GetInstance@CTax@@SAPAV1@XZ:PROC		; CTax::GetInstance
EXTRN	?GetTaxInfo@CTax@@QAEPAU__TAXINFO@@E@Z:PROC	; CTax::GetTaxInfo
EXTRN	?SetNextTaxRate@CTax@@QAEXEHH@Z:PROC		; CTax::SetNextTaxRate
EXTRN	?AddTax@CTax@@QAEHEHE@Z:PROC			; CTax::AddTax
EXTRN	?GetContinent@CTax@@QAEEPAVCMover@@@Z:PROC	; CTax::GetContinent
EXTRN	?GetSalesTaxRate@CTax@@QAEMPAVCMover@@@Z:PROC	; CTax::GetSalesTaxRate
EXTRN	?GetPurchaseTaxRate@CTax@@QAEMPAVCMover@@@Z:PROC ; CTax::GetPurchaseTaxRate
EXTRN	?IsApplyTaxRate@CTax@@QAEHPAVCMover@@PAVCItemElem@@@Z:PROC ; CTax::IsApplyTaxRate
EXTRN	?IsOccupationGuildMember@CTax@@QAEHPAVCMover@@@Z:PROC ; CTax::IsOccupationGuildMember
EXTRN	?IsOccupationShopItem@CTax@@QAEHK@Z:PROC	; CTax::IsOccupationShopItem
EXTRN	?GetInstance@CItemUpgrade@@SAPAV1@XZ:PROC	; CItemUpgrade::GetInstance
EXTRN	?OnPiercingSize@CItemUpgrade@@QAEXPAVCUser@@KKK@Z:PROC ; CItemUpgrade::OnPiercingSize
EXTRN	?OnPiercing@CItemUpgrade@@QAEXPAVCUser@@KK@Z:PROC ; CItemUpgrade::OnPiercing
EXTRN	?OnPiercingRemove@CItemUpgrade@@QAEXPAVCUser@@K@Z:PROC ; CItemUpgrade::OnPiercingRemove
EXTRN	?OnSmeltSafety@CItemUpgrade@@QAEEPAVCUser@@PAVCItemElem@@111@Z:PROC ; CItemUpgrade::OnSmeltSafety
EXTRN	?OnEnchant@CItemUpgrade@@QAEXPAVCUser@@PAVCItemElem@@1@Z:PROC ; CItemUpgrade::OnEnchant
EXTRN	?ChangeAttribute@CItemUpgrade@@QAEXPAVCUser@@KKW4ePropType@SAI79@@@Z:PROC ; CItemUpgrade::ChangeAttribute
EXTRN	?OnItemTransy@CItemUpgrade@@QAEXPAVCUser@@KKKH@Z:PROC ; CItemUpgrade::OnItemTransy
EXTRN	?CreateBarunaCrystal@CItemUpgrade@@QAEXPAVCUser@@PAVCItemElem@@1@Z:PROC ; CItemUpgrade::CreateBarunaCrystal
EXTRN	?BarunaChaosGemExtract@CItemUpgrade@@QAEXPAVCUser@@PAVCItemElem@@@Z:PROC ; CItemUpgrade::BarunaChaosGemExtract
EXTRN	?CreateBarunaChaosGem@CItemUpgrade@@QAEXPAVCUser@@PAVCItemElem@@1@Z:PROC ; CItemUpgrade::CreateBarunaChaosGem
EXTRN	?CreateStone@CItemUpgrade@@QAEXPAVCUser@@PAVCItemElem@@11@Z:PROC ; CItemUpgrade::CreateStone
EXTRN	?EnchantBaruna@CItemUpgrade@@QAEXPAVCUser@@PAVCItemElem@@111@Z:PROC ; CItemUpgrade::EnchantBaruna
EXTRN	?CreateBarunaPiercing@CItemUpgrade@@QAEXPAVCUser@@PAVCItemElem@@111@Z:PROC ; CItemUpgrade::CreateBarunaPiercing
EXTRN	?RemovePetVisItem@CItemUpgrade@@QAEXPAVCUser@@HH@Z:PROC ; CItemUpgrade::RemovePetVisItem
EXTRN	?SwapVis@CItemUpgrade@@QAEXPAVCUser@@HH@Z:PROC	; CItemUpgrade::SwapVis
EXTRN	?MakeTutorialStateString@@YAXPADHPBD@Z:PROC	; MakeTutorialStateString
EXTRN	?Instance@CCoupleHelper@@SAPAV1@XZ:PROC		; CCoupleHelper::Instance
EXTRN	?OnPropose@CCoupleHelper@@QAEXPAVCUser@@PBD@Z:PROC ; CCoupleHelper::OnPropose
EXTRN	?OnRefuse@CCoupleHelper@@QAEXPAVCUser@@@Z:PROC	; CCoupleHelper::OnRefuse
EXTRN	?OnCouple@CCoupleHelper@@QAEXPAVCUser@@@Z:PROC	; CCoupleHelper::OnCouple
EXTRN	?OnDecouple@CCoupleHelper@@QAEXPAVCUser@@@Z:PROC ; CCoupleHelper::OnDecouple
EXTRN	?GetInstance@CQuiz@@SAPAV1@XZ:PROC		; CQuiz::GetInstance
EXTRN	?EntranceQuizEvent@CQuiz@@QAEHPAVCUser@@@Z:PROC	; CQuiz::EntranceQuizEvent
EXTRN	?TeleportToQuizEvent@CQuiz@@QAEHPAVCUser@@H@Z:PROC ; CQuiz::TeleportToQuizEvent
EXTRN	?EnterRoom@CColosseumMatch@@QAEXPAVCUser@@@Z:PROC ; CColosseumMatch::EnterRoom
EXTRN	?EndWaitTime@CColosseumMatch@@QAEXXZ:PROC	; CColosseumMatch::EndWaitTime
EXTRN	?GetInstance@CColosseumMng@@SAPAV1@XZ:PROC	; CColosseumMng::GetInstance
EXTRN	?CreateNewMatch@CColosseumMng@@QAEHPAVCUser@@EE@Z:PROC ; CColosseumMng::CreateNewMatch
EXTRN	?GetMatchByParty@CColosseumMng@@QAEPAVCColosseumMatch@@PAVCParty@@@Z:PROC ; CColosseumMng::GetMatchByParty
EXTRN	@__security_check_cookie@4:PROC
EXTRN	__CxxThrowException@8:PROC
EXTRN	___CxxFrameHandler3:PROC
EXTRN	__alldiv:PROC
EXTRN	__allmul:PROC
EXTRN	__chkstk:PROC
EXTRN	__libm_sse2_acos_precise:PROC
EXTRN	__libm_sse2_cos_precise:PROC
EXTRN	__libm_sse2_sin_precise:PROC
EXTRN	__libm_sse2_sqrt_precise:PROC
EXTRN	_memcpy:PROC
EXTRN	_memmove:PROC
EXTRN	_memset:PROC
EXTRN	??_7type_info@@6B@:QWORD			; type_info::`vftable'
EXTRN	?g_tCurrent@@3JA:DWORD				; g_tCurrent
EXTRN	?g_next@@3KA:DWORD				; g_next
EXTRN	?m_fShopCost@CProject@@2MA:DWORD		; CProject::m_fShopCost
EXTRN	?prj@@3VCProject@@A:BYTE			; prj
EXTRN	?g_TickCount@@3VCTickCount@@A:BYTE		; g_TickCount
EXTRN	?g_uIdofMulti@@3KA:DWORD			; g_uIdofMulti
EXTRN	?g_eLocal@@3VCFlyffEvent@@A:BYTE		; g_eLocal
EXTRN	?g_GuildCombat1to1Mng@@3VCGuildCombat1to1Mng@@A:BYTE ; g_GuildCombat1to1Mng
EXTRN	?g_GuildMng@@3VCGuildMng@@A:BYTE		; g_GuildMng
EXTRN	?g_PartyMng@@3VCPartyMng@@A:BYTE		; g_PartyMng
EXTRN	?g_UserMng@@3VCUserMng@@A:BYTE			; g_UserMng
EXTRN	?g_dpDBClient@@3VCDPDatabaseClient@@A:BYTE	; g_dpDBClient
EXTRN	?g_DPCoreClient@@3VCDPCoreClient@@A:BYTE	; g_DPCoreClient
EXTRN	?g_WorldMng@@3VCWorldMng@@A:BYTE		; g_WorldMng
EXTRN	?g_ChattingMng@@3VCChattingMng@@A:QWORD		; g_ChattingMng
EXTRN	?g_GuildCombatMng@@3VCGuildCombat@@A:BYTE	; g_GuildCombatMng
EXTRN	___security_cookie:DWORD
EXTRN	__fltused:DWORD
;	COMDAT ?_OptionsStorage@?1??__local_stdio_printf_options@@9@4_KA
_BSS	SEGMENT
?_OptionsStorage@?1??__local_stdio_printf_options@@9@4_KA DQ 01H DUP (?) ; `__local_stdio_printf_options'::`2'::_OptionsStorage
_BSS	ENDS
_BSS	SEGMENT
?g_DPSrvr@@3VCDPSrvr@@A DB 01cH DUP (?)			; g_DPSrvr
_BSS	ENDS
;	COMDAT ?sChat@?1??OnChat@CDPSrvr@@AAEXAAVCAr@@KKPAEK@Z@4PADA
_BSS	SEGMENT
?sChat@?1??OnChat@CDPSrvr@@AAEXAAVCAr@@KKPAEK@Z@4PADA DB 0400H DUP (?) ; `CDPSrvr::OnChat'::`2'::sChat
_BSS	ENDS
;	COMDAT ?lpKey@?1??OnScriptDialogReq@CDPSrvr@@AAEXAAVCAr@@KKPAEK@Z@4PADA
_BSS	SEGMENT
?lpKey@?1??OnScriptDialogReq@CDPSrvr@@AAEXAAVCAr@@KKPAEK@Z@4PADA DB 0100H DUP (?) ; `CDPSrvr::OnScriptDialogReq'::`2'::lpKey
_BSS	ENDS
;	COMDAT ?sChat@?1??OnChatting@CDPSrvr@@AAEXAAVCAr@@KKPAEK@Z@4PADA
_BSS	SEGMENT
?sChat@?1??OnChatting@CDPSrvr@@AAEXAAVCAr@@KKPAEK@Z@4PADA DB 0400H DUP (?) ; `CDPSrvr::OnChatting'::`2'::sChat
_BSS	ENDS
CRT$XCU	SEGMENT
?g_DPSrvr$initializer$@@3P6AXXZA DD FLAT:??__Eg_DPSrvr@@YAXXZ ; g_DPSrvr$initializer$
CRT$XCU	ENDS
;	COMDAT __xmm@80000000800000008000000080000000
CONST	SEGMENT
__xmm@80000000800000008000000080000000 DB 00H, 00H, 00H, 080H, 00H, 00H, 00H
	DB	080H, 00H, 00H, 00H, 080H, 00H, 00H, 00H, 080H
CONST	ENDS
;	COMDAT __xmm@7fffffffffffffff7fffffffffffffff
CONST	SEGMENT
__xmm@7fffffffffffffff7fffffffffffffff DB 0ffH, 0ffH, 0ffH, 0ffH, 0ffH, 0ffH
	DB	0ffH, 07fH, 0ffH, 0ffH, 0ffH, 0ffH, 0ffH, 0ffH, 0ffH, 07fH
CONST	ENDS
;	COMDAT __xmm@41f00000000000000000000000000000
CONST	SEGMENT
__xmm@41f00000000000000000000000000000 DB 00H, 00H, 00H, 00H, 00H, 00H, 00H
	DB	00H, 00H, 00H, 00H, 00H, 00H, 00H, 0f0H, 'A'
CONST	ENDS
;	COMDAT __xmm@00000028000000180000000c00000004
CONST	SEGMENT
__xmm@00000028000000180000000c00000004 DB 04H, 00H, 00H, 00H, 0cH, 00H, 00H
	DB	00H, 018H, 00H, 00H, 00H, '(', 00H, 00H, 00H
CONST	ENDS
;	COMDAT __xmm@00000027000000170000000b00000003
CONST	SEGMENT
__xmm@00000027000000170000000b00000003 DB 03H, 00H, 00H, 00H, 0bH, 00H, 00H
	DB	00H, 017H, 00H, 00H, 00H, '''', 00H, 00H, 00H
CONST	ENDS
;	COMDAT __xmm@00000026000000160000000a00000002
CONST	SEGMENT
__xmm@00000026000000160000000a00000002 DB 02H, 00H, 00H, 00H, 0aH, 00H, 00H
	DB	00H, 016H, 00H, 00H, 00H, '&', 00H, 00H, 00H
CONST	ENDS
;	COMDAT __xmm@00000025000000150000000900000001
CONST	SEGMENT
__xmm@00000025000000150000000900000001 DB 01H, 00H, 00H, 00H, 09H, 00H, 00H
	DB	00H, 015H, 00H, 00H, 00H, '%', 00H, 00H, 00H
CONST	ENDS
;	COMDAT __xmm@00000000000000000000006400000064
CONST	SEGMENT
__xmm@00000000000000000000006400000064 DB 'd', 00H, 00H, 00H, 'd', 00H, 00H
	DB	00H, 00H, 00H, 00H, 00H, 00H, 00H, 00H, 00H
CONST	ENDS
;	COMDAT __real@4efa56ea
CONST	SEGMENT
__real@4efa56ea DD 04efa56ear			; 2.1e+09
CONST	ENDS
;	COMDAT __real@49742400
CONST	SEGMENT
__real@49742400 DD 049742400r			; 1e+06
CONST	ENDS
;	COMDAT __real@43b40000
CONST	SEGMENT
__real@43b40000 DD 043b40000r			; 360
CONST	ENDS
;	COMDAT __real@437f0000
CONST	SEGMENT
__real@437f0000 DD 0437f0000r			; 255
CONST	ENDS
;	COMDAT __real@43370000
CONST	SEGMENT
__real@43370000 DD 043370000r			; 183
CONST	ENDS
;	COMDAT __real@43300000
CONST	SEGMENT
__real@43300000 DD 043300000r			; 176
CONST	ENDS
;	COMDAT __real@432e0000
CONST	SEGMENT
__real@432e0000 DD 0432e0000r			; 174
CONST	ENDS
;	COMDAT __real@42c80000
CONST	SEGMENT
__real@42c80000 DD 042c80000r			; 100
CONST	ENDS
;	COMDAT __real@4285555a
CONST	SEGMENT
__real@4285555a DD 04285555ar			; 66.6667
CONST	ENDS
;	COMDAT __real@42652ee0
CONST	SEGMENT
__real@42652ee0 DD 042652ee0r			; 57.2958
CONST	ENDS
;	COMDAT __real@41200000
CONST	SEGMENT
__real@41200000 DD 041200000r			; 10
CONST	ENDS
;	COMDAT __real@4090000000000000
CONST	SEGMENT
__real@4090000000000000 DQ 04090000000000000r	; 1024
CONST	ENDS
;	COMDAT __real@40800000
CONST	SEGMENT
__real@40800000 DD 040800000r			; 4
CONST	ENDS
;	COMDAT __real@3ff0000000000000
CONST	SEGMENT
__real@3ff0000000000000 DQ 03ff0000000000000r	; 1
CONST	ENDS
;	COMDAT __real@3f800000
CONST	SEGMENT
__real@3f800000 DD 03f800000r			; 1
CONST	ENDS
;	COMDAT __real@3f666666
CONST	SEGMENT
__real@3f666666 DD 03f666666r			; 0.9
CONST	ENDS
;	COMDAT __real@3e800000
CONST	SEGMENT
__real@3e800000 DD 03e800000r			; 0.25
CONST	ENDS
;	COMDAT __real@3e4ccccd
CONST	SEGMENT
__real@3e4ccccd DD 03e4ccccdr			; 0.2
CONST	ENDS
;	COMDAT __real@3e000000
CONST	SEGMENT
__real@3e000000 DD 03e000000r			; 0.125
CONST	ENDS
;	COMDAT __real@3ca3d70a
CONST	SEGMENT
__real@3ca3d70a DD 03ca3d70ar			; 0.02
CONST	ENDS
;	COMDAT ??_R1A@?0A@EA@__MINIGAME_EXT_PACKET@@8
rdata$r	SEGMENT
??_R1A@?0A@EA@__MINIGAME_EXT_PACKET@@8 DD FLAT:??_R0?AU__MINIGAME_EXT_PACKET@@@8 ; __MINIGAME_EXT_PACKET::`RTTI Base Class Descriptor at (0,-1,0,64)'
	DD	01H
	DD	00H
	DD	0ffffffffH
	DD	00H
	DD	040H
	DD	FLAT:??_R3__MINIGAME_EXT_PACKET@@8
rdata$r	ENDS
;	COMDAT ??_R2__MINIGAME_EXT_PACKET@@8
rdata$r	SEGMENT
??_R2__MINIGAME_EXT_PACKET@@8 DD FLAT:??_R1A@?0A@EA@__MINIGAME_EXT_PACKET@@8 ; __MINIGAME_EXT_PACKET::`RTTI Base Class Array'
	DD	FLAT:??_R1A@?0A@EA@__MINIGAME_PACKET@@8
rdata$r	ENDS
;	COMDAT ??_R3__MINIGAME_EXT_PACKET@@8
rdata$r	SEGMENT
??_R3__MINIGAME_EXT_PACKET@@8 DD 00H			; __MINIGAME_EXT_PACKET::`RTTI Class Hierarchy Descriptor'
	DD	00H
	DD	02H
	DD	FLAT:??_R2__MINIGAME_EXT_PACKET@@8
rdata$r	ENDS
;	COMDAT ??_R0?AU__MINIGAME_EXT_PACKET@@@8
data$rs	SEGMENT
??_R0?AU__MINIGAME_EXT_PACKET@@@8 DD FLAT:??_7type_info@@6B@ ; __MINIGAME_EXT_PACKET `RTTI Type Descriptor'
	DD	00H
	DB	'.?AU__MINIGAME_EXT_PACKET@@', 00H
data$rs	ENDS
;	COMDAT ??_R4__MINIGAME_EXT_PACKET@@6B@
rdata$r	SEGMENT
??_R4__MINIGAME_EXT_PACKET@@6B@ DD 00H			; __MINIGAME_EXT_PACKET::`RTTI Complete Object Locator'
	DD	00H
	DD	00H
	DD	FLAT:??_R0?AU__MINIGAME_EXT_PACKET@@@8
	DD	FLAT:??_R3__MINIGAME_EXT_PACKET@@8
rdata$r	ENDS
;	COMDAT ??_R1A@?0A@EA@__MINIGAME_PACKET@@8
rdata$r	SEGMENT
??_R1A@?0A@EA@__MINIGAME_PACKET@@8 DD FLAT:??_R0?AU__MINIGAME_PACKET@@@8 ; __MINIGAME_PACKET::`RTTI Base Class Descriptor at (0,-1,0,64)'
	DD	00H
	DD	00H
	DD	0ffffffffH
	DD	00H
	DD	040H
	DD	FLAT:??_R3__MINIGAME_PACKET@@8
rdata$r	ENDS
;	COMDAT ??_R2__MINIGAME_PACKET@@8
rdata$r	SEGMENT
??_R2__MINIGAME_PACKET@@8 DD FLAT:??_R1A@?0A@EA@__MINIGAME_PACKET@@8 ; __MINIGAME_PACKET::`RTTI Base Class Array'
rdata$r	ENDS
;	COMDAT ??_R3__MINIGAME_PACKET@@8
rdata$r	SEGMENT
??_R3__MINIGAME_PACKET@@8 DD 00H			; __MINIGAME_PACKET::`RTTI Class Hierarchy Descriptor'
	DD	00H
	DD	01H
	DD	FLAT:??_R2__MINIGAME_PACKET@@8
rdata$r	ENDS
;	COMDAT ??_R0?AU__MINIGAME_PACKET@@@8
data$rs	SEGMENT
??_R0?AU__MINIGAME_PACKET@@@8 DD FLAT:??_7type_info@@6B@ ; __MINIGAME_PACKET `RTTI Type Descriptor'
	DD	00H
	DB	'.?AU__MINIGAME_PACKET@@', 00H
data$rs	ENDS
;	COMDAT ??_R4__MINIGAME_PACKET@@6B@
rdata$r	SEGMENT
??_R4__MINIGAME_PACKET@@6B@ DD 00H			; __MINIGAME_PACKET::`RTTI Complete Object Locator'
	DD	00H
	DD	00H
	DD	FLAT:??_R0?AU__MINIGAME_PACKET@@@8
	DD	FLAT:??_R3__MINIGAME_PACKET@@8
rdata$r	ENDS
;	COMDAT ??_R2CDPMng@@8
rdata$r	SEGMENT
??_R2CDPMng@@8 DD FLAT:??_R1A@?0A@EA@CDPMng@@8		; CDPMng::`RTTI Base Class Array'
rdata$r	ENDS
;	COMDAT ??_R3CDPMng@@8
rdata$r	SEGMENT
??_R3CDPMng@@8 DD 00H					; CDPMng::`RTTI Class Hierarchy Descriptor'
	DD	00H
	DD	01H
	DD	FLAT:??_R2CDPMng@@8
rdata$r	ENDS
;	COMDAT ??_R0?AVCDPMng@@@8
data$rs	SEGMENT
??_R0?AVCDPMng@@@8 DD FLAT:??_7type_info@@6B@		; CDPMng `RTTI Type Descriptor'
	DD	00H
	DB	'.?AVCDPMng@@', 00H
data$rs	ENDS
;	COMDAT ??_R1A@?0A@EA@CDPMng@@8
rdata$r	SEGMENT
??_R1A@?0A@EA@CDPMng@@8 DD FLAT:??_R0?AVCDPMng@@@8	; CDPMng::`RTTI Base Class Descriptor at (0,-1,0,64)'
	DD	00H
	DD	00H
	DD	0ffffffffH
	DD	00H
	DD	040H
	DD	FLAT:??_R3CDPMng@@8
rdata$r	ENDS
;	COMDAT ??_R1A@?0A@EA@CDPSrvr@@8
rdata$r	SEGMENT
??_R1A@?0A@EA@CDPSrvr@@8 DD FLAT:??_R0?AVCDPSrvr@@@8	; CDPSrvr::`RTTI Base Class Descriptor at (0,-1,0,64)'
	DD	01H
	DD	00H
	DD	0ffffffffH
	DD	00H
	DD	040H
	DD	FLAT:??_R3CDPSrvr@@8
rdata$r	ENDS
;	COMDAT ??_R2CDPSrvr@@8
rdata$r	SEGMENT
??_R2CDPSrvr@@8 DD FLAT:??_R1A@?0A@EA@CDPSrvr@@8	; CDPSrvr::`RTTI Base Class Array'
	DD	FLAT:??_R1A@?0A@EA@CDPMng@@8
rdata$r	ENDS
;	COMDAT ??_R3CDPSrvr@@8
rdata$r	SEGMENT
??_R3CDPSrvr@@8 DD 00H					; CDPSrvr::`RTTI Class Hierarchy Descriptor'
	DD	00H
	DD	02H
	DD	FLAT:??_R2CDPSrvr@@8
rdata$r	ENDS
;	COMDAT ??_R0?AVCDPSrvr@@@8
data$rs	SEGMENT
??_R0?AVCDPSrvr@@@8 DD FLAT:??_7type_info@@6B@		; CDPSrvr `RTTI Type Descriptor'
	DD	00H
	DB	'.?AVCDPSrvr@@', 00H
data$rs	ENDS
;	COMDAT ??_R4CDPSrvr@@6B@
rdata$r	SEGMENT
??_R4CDPSrvr@@6B@ DD 00H				; CDPSrvr::`RTTI Complete Object Locator'
	DD	00H
	DD	00H
	DD	FLAT:??_R0?AVCDPSrvr@@@8
	DD	FLAT:??_R3CDPSrvr@@8
rdata$r	ENDS
;	COMDAT ??_C@_0BC@KBDMBKEH@deque?$DMT?$DO?5too?5long@
CONST	SEGMENT
??_C@_0BC@KBDMBKEH@deque?$DMT?$DO?5too?5long@ DB 'deque<T> too long', 00H ; `string'
CONST	ENDS
;	COMDAT ??_C@_0BJ@DHFDPMIM@invalid?5vector?5subscript@
CONST	SEGMENT
??_C@_0BJ@DHFDPMIM@invalid?5vector?5subscript@ DB 'invalid vector subscri'
	DB	'pt', 00H					; `string'
CONST	ENDS
;	COMDAT ??_C@_0EK@GINEPMCL@template?5?$DMclass?5T?$DO?5BOOL?5CItemCo@
CONST	SEGMENT
??_C@_0EK@GINEPMCL@template?5?$DMclass?5T?$DO?5BOOL?5CItemCo@ DB 'templat'
	DB	'e <class T> BOOL CItemContainer<T>::Add( T* pElem... : nNumtm'
	DB	'p > 0', 00H					; `string'
CONST	ENDS
;	COMDAT ??_C@_0BF@OJMCJNHH@GETEQUIP?1?1?$CFd?0?5?$CFd?0?5?$CFd@
CONST	SEGMENT
??_C@_0BF@OJMCJNHH@GETEQUIP?1?1?$CFd?0?5?$CFd?0?5?$CFd@ DB 'GETEQUIP//%d,'
	DB	' %d, %d', 00H				; `string'
CONST	ENDS
;	COMDAT ??_C@_0N@GELFDHNG@CONTAINER?1?10@
CONST	SEGMENT
??_C@_0N@GELFDHNG@CONTAINER?1?10@ DB 'CONTAINER//0', 00H ; `string'
CONST	ENDS
;	COMDAT ??_C@_07MDOIOHKL@?3?3binds@
CONST	SEGMENT
??_C@_07MDOIOHKL@?3?3binds@ DB '::binds', 00H		; `string'
CONST	ENDS
;	COMDAT ??_C@_0FF@HJJNBDCN@packet?5editor?5detected?4?5tried?5t@
CONST	SEGMENT
??_C@_0FF@HJJNBDCN@packet?5editor?5detected?4?5tried?5t@ DB 'packet edito'
	DB	'r detected. tried to combine more then 3 awakening on one ite'
	DB	'm. User: %s', 00H				; `string'
CONST	ENDS
;	COMDAT ??_C@_0DJ@GAHDDOKA@pUser?5is?5invalid?5in?5OnItemSelec@
CONST	SEGMENT
??_C@_0DJ@GAHDDOKA@pUser?5is?5invalid?5in?5OnItemSelec@ DB 'pUser is inva'
	DB	'lid in OnItemSelectAwakeningValue function.', 00H ; `string'
CONST	ENDS
;	COMDAT ??_C@_01DICPFPGM@k@
CONST	SEGMENT
??_C@_01DICPFPGM@k@ DB 'k', 00H				; `string'
CONST	ENDS
;	COMDAT ??_C@_04GAMPDDLK@PPAC@
CONST	SEGMENT
??_C@_04GAMPDDLK@PPAC@ DB 'PPAC', 00H			; `string'
CONST	ENDS
;	COMDAT ??_C@_0BA@DJFHHPLH@?3?3ItemLevelDown@
CONST	SEGMENT
??_C@_0BA@DJFHHPLH@?3?3ItemLevelDown@ DB '::ItemLevelDown', 00H ; `string'
CONST	ENDS
;	COMDAT ??_C@_0BD@KCJFHIJN@USE_AWAKESAVE_ITEM@
CONST	SEGMENT
??_C@_0BD@KCJFHIJN@USE_AWAKESAVE_ITEM@ DB 'USE_AWAKESAVE_ITEM', 00H ; `string'
CONST	ENDS
;	COMDAT ??_C@_01GLPGHMHM@z@
CONST	SEGMENT
??_C@_01GLPGHMHM@z@ DB 'z', 00H				; `string'
CONST	ENDS
;	COMDAT ??_C@_01BDACAMKP@h@
CONST	SEGMENT
??_C@_01BDACAMKP@h@ DB 'h', 00H				; `string'
CONST	ENDS
;	COMDAT ??_C@_0BB@FFINDLJM@HEAVEN_TOWER_?$CF2d@
CONST	SEGMENT
??_C@_0BB@FFINDLJM@HEAVEN_TOWER_?$CF2d@ DB 'HEAVEN_TOWER_%2d', 00H ; `string'
CONST	ENDS
;	COMDAT ??_C@_0DP@BBNBDIGB@CDPSrvr?3?3OnTeleportToHeavenTowe@
CONST	SEGMENT
??_C@_0DP@BBNBDIGB@CDPSrvr?3?3OnTeleportToHeavenTowe@ DB 'CDPSrvr::OnTele'
	DB	'portToHeavenTower() - ', 0c0H, 0dfH, 0b8H, 0f8H, 0b5H, 0c8H, ' '
	DB	0c3H, 0feH, ' : %d, Name = %s', 00H		; `string'
CONST	ENDS
;	COMDAT ??_C@_0CK@NIOEEMBG@?$CC?$CF?$CCs?5User?5Is?5Not?5Next?5Win?5Guild@
CONST	SEGMENT
??_C@_0CK@NIOEEMBG@?$CC?$CF?$CCs?5User?5Is?5Not?5Next?5Win?5Guild@ DB '"%'
	DB	'"s User Is Not Next Win Guild Master!!!', 00H ; `string'
CONST	ENDS
;	COMDAT ??_C@_01KGKMHCOC@e@
CONST	SEGMENT
??_C@_01KGKMHCOC@e@ DB 'e', 00H				; `string'
CONST	ENDS
;	COMDAT ??_C@_0CO@OMEENFJN@OnLEventCreate?3?5cost?3?5?$CFd?$CIperin?$CJ@
CONST	SEGMENT
??_C@_0CO@OMEENFJN@OnLEventCreate?3?5cost?3?5?$CFd?$CIperin?$CJ@ DB 'OnLE'
	DB	'ventCreate: cost: %d(perin), %I64d(penya)', 00H ; `string'
CONST	ENDS
;	COMDAT ??_C@_01JBBJJEPG@p@
CONST	SEGMENT
??_C@_01JBBJJEPG@p@ DB 'p', 00H				; `string'
CONST	ENDS
;	COMDAT ??_C@_06EFGCDLHH@PLEDGE@
CONST	SEGMENT
??_C@_06EFGCDLHH@PLEDGE@ DB 'PLEDGE', 00H		; `string'
CONST	ENDS
;	COMDAT ??_C@_01LPLHEDKD@d@
CONST	SEGMENT
??_C@_01LPLHEDKD@d@ DB 'd', 00H				; `string'
CONST	ENDS
;	COMDAT ??_C@_07IPDAPPGD@DEPOSIT@
CONST	SEGMENT
??_C@_07IPDAPPGD@DEPOSIT@ DB 'DEPOSIT', 00H		; `string'
CONST	ENDS
;	COMDAT ??_C@_0BF@GCGBOBGC@OnQuePetResurrection@
CONST	SEGMENT
??_C@_0BF@GCGBOBGC@OnQuePetResurrection@ DB 'OnQuePetResurrection', 00H ; `string'
CONST	ENDS
;	COMDAT ??_C@_01FJMABOPO@x@
CONST	SEGMENT
??_C@_01FJMABOPO@x@ DB 'x', 00H				; `string'
CONST	ENDS
;	COMDAT ??_C@_0L@CNGFPJJM@?$CFd?5?$CFd?5?$CC?$CFs?$CC@
CONST	SEGMENT
??_C@_0L@CNGFPJJM@?$CFd?5?$CFd?5?$CC?$CFs?$CC@ DB '%d %d "%s"', 00H ; `string'
CONST	ENDS
;	COMDAT ??_C@_0M@OENFCCJB@OnAwakening@
CONST	SEGMENT
??_C@_0M@OENFCCJB@OnAwakening@ DB 'OnAwakening', 00H	; `string'
CONST	ENDS
;	COMDAT ??_C@_0BE@FLEEAGA@OnBlessednessCancel@
CONST	SEGMENT
??_C@_0BE@FLEEAGA@OnBlessednessCancel@ DB 'OnBlessednessCancel', 00H ; `string'
CONST	ENDS
;	COMDAT ??_C@_0O@NEABABCF@OnAvailPocket@
CONST	SEGMENT
??_C@_0O@NEABABCF@OnAvailPocket@ DB 'OnAvailPocket', 00H ; `string'
CONST	ENDS
;	COMDAT ??_C@_0BD@DAAECDFN@OnMoveItemOnPocket@
CONST	SEGMENT
??_C@_0BD@DAAECDFN@OnMoveItemOnPocket@ DB 'OnMoveItemOnPocket', 00H ; `string'
CONST	ENDS
;	COMDAT ??_C@_01GOHFPIOK@m@
CONST	SEGMENT
??_C@_01GOHFPIOK@m@ DB 'm', 00H				; `string'
CONST	ENDS
;	COMDAT ??_C@_08BBJEGENL@SEALCHAR@
CONST	SEGMENT
??_C@_08BBJEGENL@SEALCHAR@ DB 'SEALCHAR', 00H		; `string'
CONST	ENDS
;	COMDAT ??_C@_0BA@DOBCAFAK@LEGENDSKILL_USE@
CONST	SEGMENT
??_C@_0BA@DOBCAFAK@LEGENDSKILL_USE@ DB 'LEGENDSKILL_USE', 00H ; `string'
CONST	ENDS
;	COMDAT ??_C@_01MIFGBAGJ@?$CL@
CONST	SEGMENT
??_C@_01MIFGBAGJ@?$CL@ DB '+', 00H			; `string'
CONST	ENDS
;	COMDAT ??_C@_0BA@KJLOBMNK@PET_FOOD_CREATE@
CONST	SEGMENT
??_C@_0BA@KJLOBMNK@PET_FOOD_CREATE@ DB 'PET_FOOD_CREATE', 00H ; `string'
CONST	ENDS
;	COMDAT ??_C@_0BJ@OHPGDLFJ@PET_FOOD_MATERIAL_REMOVE@
CONST	SEGMENT
??_C@_0BJ@OHPGDLFJ@PET_FOOD_MATERIAL_REMOVE@ DB 'PET_FOOD_MATERIAL_REMOVE'
	DB	00H						; `string'
CONST	ENDS
;	COMDAT ??_C@_01PJKLJHI@?$HO@
CONST	SEGMENT
??_C@_01PJKLJHI@?$HO@ DB '~', 00H			; `string'
CONST	ENDS
;	COMDAT ??_C@_0BH@BLONACAL@ANGEL_CREATE_COMPLETED@
CONST	SEGMENT
??_C@_0BH@BLONACAL@ANGEL_CREATE_COMPLETED@ DB 'ANGEL_CREATE_COMPLETED', 00H ; `string'
CONST	ENDS
;	COMDAT ??_C@_0N@BLCHFHBJ@ANGEL_CREATE@
CONST	SEGMENT
??_C@_0N@BLCHFHBJ@ANGEL_CREATE@ DB 'ANGEL_CREATE', 00H	; `string'
CONST	ENDS
;	COMDAT ??_C@_0P@OGMDODLI@ANGEL_MATERIAL@
CONST	SEGMENT
??_C@_0P@OGMDODLI@ANGEL_MATERIAL@ DB 'ANGEL_MATERIAL', 00H ; `string'
CONST	ENDS
;	COMDAT ??_C@_01HNPIGOCE@?$CG@
CONST	SEGMENT
??_C@_01HNPIGOCE@?$CG@ DB '&', 00H			; `string'
CONST	ENDS
;	COMDAT ?adwItemId@?1??OnCreateAngel@CDPSrvr@@AAEXAAVCAr@@KKPAEK@Z@4PAKA
_DATA	SEGMENT
?adwItemId@?1??OnCreateAngel@CDPSrvr@@AAEXAAVCAr@@KKPAEK@Z@4PAKA DD 07553H ; `CDPSrvr::OnCreateAngel'::`2'::adwItemId
	DD	07554H
	DD	07555H
	DD	07556H
_DATA	ENDS
;	COMDAT ??_C@_01MMEEDKFM@X@
CONST	SEGMENT
??_C@_01MMEEDKFM@X@ DB 'X', 00H				; `string'
CONST	ENDS
;	COMDAT ??_C@_01POHCFINO@Z@
CONST	SEGMENT
??_C@_01POHCFINO@Z@ DB 'Z', 00H				; `string'
CONST	ENDS
;	COMDAT ??_C@_07ODPPCICH@GARBAGE@
CONST	SEGMENT
??_C@_07ODPPCICH@GARBAGE@ DB 'GARBAGE', 00H		; `string'
CONST	ENDS
;	COMDAT ??_C@_01NBENCBCI@?$CK@
CONST	SEGMENT
??_C@_01NBENCBCI@?$CK@ DB '*', 00H			; `string'
CONST	ENDS
;	COMDAT ??_C@_09DPACILDJ@?$CC?$CFs?$CC?5?$CC?$CFs?$CC@
CONST	SEGMENT
??_C@_09DPACILDJ@?$CC?$CFs?$CC?5?$CC?$CFs?$CC@ DB '"%s" "%s"', 00H ; `string'
CONST	ENDS
;	COMDAT ??_C@_04OEDFLLKD@?$CC?$CFs?$CC@
CONST	SEGMENT
??_C@_04OEDFLLKD@?$CC?$CFs?$CC@ DB '"%s"', 00H		; `string'
CONST	ENDS
;	COMDAT ??_C@_0CE@HLCFDEPD@GuildCombat?5SelectPlayer?5GuildI@
CONST	SEGMENT
??_C@_0CE@HLCFDEPD@GuildCombat?5SelectPlayer?5GuildI@ DB 'GuildCombat Sel'
	DB	'ectPlayer GuildID=%d', 00H			; `string'
CONST	ENDS
;	COMDAT ??_C@_0CM@NEJJEDGC@CDPSrvr?3?3OnQueryMailBox?5?9?5Inval@
CONST	SEGMENT
??_C@_0CM@NEJJEDGC@CDPSrvr?3?3OnQueryMailBox?5?9?5Inval@ DB 'CDPSrvr::OnQ'
	DB	'ueryMailBox - Invalid User : %d', 00H	; `string'
CONST	ENDS
;	COMDAT ??_C@_0EM@OIOCFPGD@CDPSrvr?3?3OnQueryReadMail?5?9?5Inva@
CONST	SEGMENT
??_C@_0EM@OIOCFPGD@CDPSrvr?3?3OnQueryReadMail?5?9?5Inva@ DB 'CDPSrvr::OnQ'
	DB	'ueryReadMail - Invalid pMailBox. idReceiver : %07d, nMail :[%'
	DB	'd]', 00H					; `string'
CONST	ENDS
;	COMDAT ??_C@_0EJ@MBAIDC@CDPSrvr?3?3OnQueryReadMail?5?9?5Inva@
CONST	SEGMENT
??_C@_0EJ@MBAIDC@CDPSrvr?3?3OnQueryReadMail?5?9?5Inva@ DB 'CDPSrvr::OnQue'
	DB	'ryReadMail - Invalid nMail. idReceiver : %07d, nMail :[%d]', 00H ; `string'
CONST	ENDS
;	COMDAT ??_C@_0EP@PBNNNCKI@CDPSrvr?3?3OnQueryGetMailGold?5?9?5I@
CONST	SEGMENT
??_C@_0EP@PBNNNCKI@CDPSrvr?3?3OnQueryGetMailGold?5?9?5I@ DB 'CDPSrvr::OnQ'
	DB	'ueryGetMailGold - Invalid pMailBox. idReceiver : %07d, nMail '
	DB	':[%d]', 00H					; `string'
CONST	ENDS
;	COMDAT ??_C@_0EM@EEFKNHHP@CDPSrvr?3?3OnQueryGetMailGold?5?9?5I@
CONST	SEGMENT
??_C@_0EM@EEFKNHHP@CDPSrvr?3?3OnQueryGetMailGold?5?9?5I@ DB 'CDPSrvr::OnQ'
	DB	'ueryGetMailGold - Invalid nMail. idReceiver : %07d, nMail :[%'
	DB	'd]', 00H					; `string'
CONST	ENDS
;	COMDAT ??_C@_0EO@KBNBEDIE@CDPSrvr?3?3OnQueryRemoveMail?5?9?5In@
CONST	SEGMENT
??_C@_0EO@KBNBEDIE@CDPSrvr?3?3OnQueryRemoveMail?5?9?5In@ DB 'CDPSrvr::OnQ'
	DB	'ueryRemoveMail - Invalid pMailBox. idReceiver : %07d, nMail :'
	DB	'[%d]', 00H					; `string'
CONST	ENDS
;	COMDAT ??_C@_0EL@KLMFPIEK@CDPSrvr?3?3OnQueryRemoveMail?5?9?5In@
CONST	SEGMENT
??_C@_0EL@KLMFPIEK@CDPSrvr?3?3OnQueryRemoveMail?5?9?5In@ DB 'CDPSrvr::OnQ'
	DB	'ueryRemoveMail - Invalid nMail. idReceiver : %07d, nMail :[%d'
	DB	']', 00H					; `string'
CONST	ENDS
;	COMDAT ??_C@_06JACJNBB@darkon@
CONST	SEGMENT
??_C@_06JACJNBB@darkon@ DB 'darkon', 00H		; `string'
CONST	ENDS
;	COMDAT ??_C@_0N@HFJJMILE@saintmorning@
CONST	SEGMENT
??_C@_0N@HFJJMILE@saintmorning@ DB 'saintmorning', 00H	; `string'
CONST	ENDS
;	COMDAT ??_C@_06NDLDHKAP@flaris@
CONST	SEGMENT
??_C@_06NDLDHKAP@flaris@ DB 'flaris', 00H		; `string'
CONST	ENDS
;	COMDAT ?szPos@?8??OnReturnScroll@CDPSrvr@@AAEXAAVCAr@@KKPAEK@Z@4PAPADA
_DATA	SEGMENT
?szPos@?8??OnReturnScroll@CDPSrvr@@AAEXAAVCAr@@KKPAEK@Z@4PAPADA DD FLAT:??_C@_06NDLDHKAP@flaris@ ; `CDPSrvr::OnReturnScroll'::`9'::szPos
	DD	FLAT:??_C@_0N@HFJJMILE@saintmorning@
	DD	FLAT:??_C@_06JACJNBB@darkon@
_DATA	ENDS
;	COMDAT ??_C@_08DHHJCFN@?$CFs?5?9?$DO?5?$CFs@
CONST	SEGMENT
??_C@_08DHHJCFN@?$CFs?5?9?$DO?5?$CFs@ DB '%s -> %s', 00H ; `string'
CONST	ENDS
;	COMDAT ??_C@_01BMBHCPLG@5@
CONST	SEGMENT
??_C@_01BMBHCPLG@5@ DB '5', 00H				; `string'
CONST	ENDS
;	COMDAT ??_C@_01PKGAHCOL@?$CJ@
CONST	SEGMENT
??_C@_01PKGAHCOL@?$CJ@ DB ')', 00H			; `string'
CONST	ENDS
;	COMDAT ??_C@_01ODHLEDKK@?$CI@
CONST	SEGMENT
??_C@_01ODHLEDKK@?$CI@ DB '(', 00H			; `string'
CONST	ENDS
;	COMDAT ??_C@_0N@KNFOGFIE@RANDOMSCROLL@
CONST	SEGMENT
??_C@_0N@KNFOGFIE@RANDOMSCROLL@ DB 'RANDOMSCROLL', 00H	; `string'
CONST	ENDS
;	COMDAT ??_C@_01MJMHLOMK@O@
CONST	SEGMENT
??_C@_01MJMHLOMK@O@ DB 'O', 00H				; `string'
CONST	ENDS
;	COMDAT ??_C@_0BB@BMMBOJEP@REMOVE_ATTRIBUTE@
CONST	SEGMENT
??_C@_0BB@BMMBOJEP@REMOVE_ATTRIBUTE@ DB 'REMOVE_ATTRIBUTE', 00H ; `string'
CONST	ENDS
;	COMDAT ??_C@_01OMGOGALD@u@
CONST	SEGMENT
??_C@_01OMGOGALD@u@ DB 'u', 00H				; `string'
CONST	ENDS
;	COMDAT ??_C@_0BC@CFGKHCPN@OnDoUseItemTarget@
CONST	SEGMENT
??_C@_0BC@CFGKHCPN@OnDoUseItemTarget@ DB 'OnDoUseItemTarget', 00H ; `string'
CONST	ENDS
;	COMDAT ??_C@_0P@OJAFDKFA@PETAWAKECANCEL@
CONST	SEGMENT
??_C@_0P@OJAFDKFA@PETAWAKECANCEL@ DB 'PETAWAKECANCEL', 00H ; `string'
CONST	ENDS
;	COMDAT ??_C@_08EBBNIHCB@PETAWAKE@
CONST	SEGMENT
??_C@_08EBBNIHCB@PETAWAKE@ DB 'PETAWAKE', 00H		; `string'
CONST	ENDS
;	COMDAT ??_C@_0M@NDDIHFBN@EATPETAWAKE@
CONST	SEGMENT
??_C@_0M@NDDIHFBN@EATPETAWAKE@ DB 'EATPETAWAKE', 00H	; `string'
CONST	ENDS
;	COMDAT ??_C@_0O@CJOAEPG@?3?3Blessedness@
CONST	SEGMENT
??_C@_0O@CJOAEPG@?3?3Blessedness@ DB '::Blessedness', 00H ; `string'
CONST	ENDS
;	COMDAT ??_C@_07NCKHFLGM@?3?3Awake@
CONST	SEGMENT
??_C@_07NCKHFLGM@?3?3Awake@ DB '::Awake', 00H		; `string'
CONST	ENDS
;	COMDAT ??_C@_0O@FAMKPOKD@?3?3AwakeCancel@
CONST	SEGMENT
??_C@_0O@FAMKPOKD@?3?3AwakeCancel@ DB '::AwakeCancel', 00H ; `string'
CONST	ENDS
;	COMDAT ??_C@_01KDCPPGHE@r@
CONST	SEGMENT
??_C@_01KDCPPGHE@r@ DB 'r', 00H				; `string'
CONST	ENDS
;	COMDAT ??_C@_0BC@IDLJNOCP@?3?3PetResurrection@
CONST	SEGMENT
??_C@_0BC@IDLJNOCP@?3?3PetResurrection@ DB '::PetResurrection', 00H ; `string'
CONST	ENDS
;	COMDAT ??_C@_01MHEDDDHA@v@
CONST	SEGMENT
??_C@_01MHEDDDHA@v@ DB 'v', 00H				; `string'
CONST	ENDS
;	COMDAT ??_C@_0BG@GDELNBNI@OnRemoveItemLevelDown@
CONST	SEGMENT
??_C@_0BG@GDELNBNI@OnRemoveItemLevelDown@ DB 'OnRemoveItemLevelDown', 00H ; `string'
CONST	ENDS
;	COMDAT ?nPersent2@?1??GetEnchantPercent@@YAHKH@Z@4PAHA
_DATA	SEGMENT
?nPersent2@?1??GetEnchantPercent@@YAHKH@Z@4PAHA DD 03e8H ; `GetEnchantPercent'::`2'::nPersent2
	DD	03e8H
	DD	0384H
	DD	02eeH
	DD	0226H
	DD	0190H
	DD	0faH
	DD	096H
	DD	050H
	DD	028H
_DATA	ENDS
;	COMDAT ?nPersent1@?1??GetEnchantPercent@@YAHKH@Z@4PAHA
_DATA	SEGMENT
?nPersent1@?1??GetEnchantPercent@@YAHKH@Z@4PAHA DD 03e8H ; `GetEnchantPercent'::`2'::nPersent1
	DD	03e8H
	DD	02bcH
	DD	01f4H
	DD	0190H
	DD	012cH
	DD	0c8H
	DD	064H
	DD	032H
	DD	014H
_DATA	ENDS
;	COMDAT ??_C@_0BC@LBECDAPP@PACKETTYPE_MOTION@
CONST	SEGMENT
??_C@_0BC@LBECDAPP@PACKETTYPE_MOTION@ DB 'PACKETTYPE_MOTION', 00H ; `string'
CONST	ENDS
;	COMDAT ??_C@_0DD@OMLBLCPK@?$FL?$CFs?$FN?5try?5to?5hack?5with?5dpid?5?3?5PA@
CONST	SEGMENT
??_C@_0DD@OMLBLCPK@?$FL?$CFs?$FN?5try?5to?5hack?5with?5dpid?5?3?5PA@ DB '['
	DB	'%s] try to hack with dpid : PACKETTYPE_MODIFYMODE', 00H ; `string'
CONST	ENDS
;	COMDAT ??_C@_0CJ@HLCIENA@?$FL?$CFs?$FN?5try?5to?5hack?5?3?5PACKETTYPE_M@
CONST	SEGMENT
??_C@_0CJ@HLCIENA@?$FL?$CFs?$FN?5try?5to?5hack?5?3?5PACKETTYPE_M@ DB '[%s'
	DB	'] try to hack : PACKETTYPE_MODIFYMODE', 00H	; `string'
CONST	ENDS
;	COMDAT ??_C@_0BJ@FPEGDDBP@PACKETTYPE_MELEE_ATTACK2@
CONST	SEGMENT
??_C@_0BJ@FPEGDDBP@PACKETTYPE_MELEE_ATTACK2@ DB 'PACKETTYPE_MELEE_ATTACK2'
	DB	00H						; `string'
CONST	ENDS
;	COMDAT ??_C@_0BI@ILGMEGLJ@PACKETTYPE_MELEE_ATTACK@
CONST	SEGMENT
??_C@_0BI@ILGMEGLJ@PACKETTYPE_MELEE_ATTACK@ DB 'PACKETTYPE_MELEE_ATTACK', 00H ; `string'
CONST	ENDS
;	COMDAT ??_C@_0O@EEFMGFBA@?$CFs?5?$CFd?0?5?$CFs?0?5?$CFs@
CONST	SEGMENT
??_C@_0O@EEFMGFBA@?$CFs?5?$CFd?0?5?$CFs?0?5?$CFs@ DB '%s %d, %s, %s', 00H ; `string'
CONST	ENDS
;	COMDAT ??_C@_0DJ@NFILCNM@C?3?2IAGOS?2server?2v18?2Source?2Sour@
CONST	SEGMENT
??_C@_0DJ@NFILCNM@C?3?2IAGOS?2server?2v18?2Source?2Sour@ DB 'C:\IAGOS\ser'
	DB	'ver\v18\Source\Source\WorldServer\DPSrvr.cpp', 00H ; `string'
CONST	ENDS
;	COMDAT ??_C@_01BBODEMC@G@
CONST	SEGMENT
??_C@_01BBODEMC@G@ DB 'G', 00H				; `string'
CONST	ENDS
;	COMDAT ??_C@_01NFFPALBN@Y@
CONST	SEGMENT
??_C@_01NFFPALBN@Y@ DB 'Y', 00H				; `string'
CONST	ENDS
;	COMDAT ??_C@_01EJNLAFE@P@
CONST	SEGMENT
??_C@_01EJNLAFE@P@ DB 'P', 00H				; `string'
CONST	ENDS
;	COMDAT ??_C@_04FBMPAKJH@BANK@
CONST	SEGMENT
??_C@_04FBMPAKJH@BANK@ DB 'BANK', 00H			; `string'
CONST	ENDS
;	COMDAT ??_C@_01FHEEJDEE@A@
CONST	SEGMENT
??_C@_01FHEEJDEE@A@ DB 'A', 00H				; `string'
CONST	ENDS
;	COMDAT ??_C@_04JDPKJLKG@0000@
CONST	SEGMENT
??_C@_04JDPKJLKG@0000@ DB '0000', 00H			; `string'
CONST	ENDS
;	COMDAT ??_C@_05OALPJECI@?$CFs_CF@
CONST	SEGMENT
??_C@_05OALPJECI@?$CFs_CF@ DB '%s_CF', 00H		; `string'
CONST	ENDS
;	COMDAT ??_C@_04PFMCNCKP@?$CFs_C@
CONST	SEGMENT
??_C@_04PFMCNCKP@?$CFs_C@ DB '%s_C', 00H		; `string'
CONST	ENDS
;	COMDAT ??_C@_0IB@BOIAGANN@CDPSrvr?3?3OnBuyItem?5?3?5__PERIN_BU@
CONST	SEGMENT
??_C@_0IB@BOIAGANN@CDPSrvr?3?3OnBuyItem?5?3?5__PERIN_BU@ DB 'CDPSrvr::OnB'
	DB	'uyItem : __PERIN_BUY_BUG -> [PlayerId:%07d(%s)], [LastTick:%d'
	DB	'], [CurTick:%d], [LastTryItem:%d], [Packet:%d,%d,%d,%d]', 00H ; `string'
CONST	ENDS
;	COMDAT ??_C@_0L@LFDGIEPN@VENDOR?1?1?$CFs@
CONST	SEGMENT
??_C@_0L@LFDGIEPN@VENDOR?1?1?$CFs@ DB 'VENDOR//%s', 00H	; `string'
CONST	ENDS
;	COMDAT ??_C@_0BH@FDAAEPBK@PACKETTYPE_PLAYERCORR2@
CONST	SEGMENT
??_C@_0BH@FDAAEPBK@PACKETTYPE_PLAYERCORR2@ DB 'PACKETTYPE_PLAYERCORR2', 00H ; `string'
CONST	ENDS
;	COMDAT ??_C@_0BG@HLALHLHC@PACKETTYPE_PLAYERCORR@
CONST	SEGMENT
??_C@_0BG@HLALHLHC@PACKETTYPE_PLAYERCORR@ DB 'PACKETTYPE_PLAYERCORR', 00H ; `string'
CONST	ENDS
;	COMDAT ??_C@_0BH@DCKJABEH@PACKETTYPE_PLAYERANGLE@
CONST	SEGMENT
??_C@_0BH@DCKJABEH@PACKETTYPE_PLAYERANGLE@ DB 'PACKETTYPE_PLAYERANGLE', 00H ; `string'
CONST	ENDS
;	COMDAT ??_C@_0BL@PABIKGOI@PACKETTYPE_PLAYERBEHAVIOR2@
CONST	SEGMENT
??_C@_0BL@PABIKGOI@PACKETTYPE_PLAYERBEHAVIOR2@ DB 'PACKETTYPE_PLAYERBEHAV'
	DB	'IOR2', 00H					; `string'
CONST	ENDS
;	COMDAT ??_C@_0BI@CIEMALBN@PACKETTYPE_PLAYERMOVED2@
CONST	SEGMENT
??_C@_0BI@CIEMALBN@PACKETTYPE_PLAYERMOVED2@ DB 'PACKETTYPE_PLAYERMOVED2', 00H ; `string'
CONST	ENDS
;	COMDAT ??_C@_0BK@NPOCPNBA@PACKETTYPE_PLAYERBEHAVIOR@
CONST	SEGMENT
??_C@_0BK@NPOCPNBA@PACKETTYPE_PLAYERBEHAVIOR@ DB 'PACKETTYPE_PLAYERBEHAVI'
	DB	'OR', 00H					; `string'
CONST	ENDS
;	COMDAT ??_C@_0BH@IGGENCLI@PACKETTYPE_PLAYERMOVED@
CONST	SEGMENT
??_C@_0BH@IGGENCLI@PACKETTYPE_PLAYERMOVED@ DB 'PACKETTYPE_PLAYERMOVED', 00H ; `string'
CONST	ENDS
;	COMDAT ??_C@_0DE@KHLECLPI@CDPSrvr?3?3OnDuelPartyYes?5?3?5?$LL?s?$LE?k?5@
CONST	SEGMENT
??_C@_0DE@KHLECLPI@CDPSrvr?3?3OnDuelPartyYes?5?3?5?$LL?s?$LE?k?5@ DB 'CDP'
	DB	'Srvr::OnDuelPartyYes : ', 0bbH, 0f3H, 0b4H, 0ebH, ' ', 0c6H, 0c4H
	DB	0c6H, 0bcH, ' ', 0c0H, 0d0H, 0b1H, 0e2H, ' ', 0bdH, 0c7H, 0c6H
	DB	0d0H, ' %d %s', 00H				; `string'
CONST	ENDS
;	COMDAT ??_C@_0DG@POLLBAPP@CDPSrvr?3?3OnDuelPartyYes?5?3?5?$LN?E?C?$LL?$MA@
CONST	SEGMENT
??_C@_0DG@POLLBAPP@CDPSrvr?3?3OnDuelPartyYes?5?3?5?$LN?E?C?$LL?$MA@ DB 'C'
	DB	'DPSrvr::OnDuelPartyYes : ', 0bdH, 0c5H, 0c3H, 0bbH, 0c0H, 0daH
	DB	' ', 0c6H, 0c4H, 0c6H, 0bcH, ' ', 0c0H, 0d0H, 0b1H, 0e2H, ' ', 0bdH
	DB	0c7H, 0c6H, 0d0H, ' %d %s', 00H		; `string'
CONST	ENDS
;	COMDAT ??_C@_01FCMHBHNC@V@
CONST	SEGMENT
??_C@_01FCMHBHNC@V@ DB 'V', 00H				; `string'
CONST	ENDS
;	COMDAT ??_C@_09BBHEADKN@GUILDBANK@
CONST	SEGMENT
??_C@_09BBHEADKN@GUILDBANK@ DB 'GUILDBANK', 00H		; `string'
CONST	ENDS
;	COMDAT ??_C@_01ELNMCGJD@W@
CONST	SEGMENT
??_C@_01ELNMCGJD@W@ DB 'W', 00H				; `string'
CONST	ENDS
;	COMDAT ??_C@_02DKCKIIND@?$CFs@
CONST	SEGMENT
??_C@_02DKCKIIND@?$CFs@ DB '%s', 00H			; `string'
CONST	ENDS
;	COMDAT ??_C@_0DC@EBLAHKGA@Error?5CMover?3?3OnRevival?5Not?5Inv@
CONST	SEGMENT
??_C@_0DC@EBLAHKGA@Error?5CMover?3?3OnRevival?5Not?5Inv@ DB 'Error CMover'
	DB	'::OnRevival Not Inventory RevivalItem', 00H	; `string'
CONST	ENDS
;	COMDAT ??_C@_01HIHLOKLC@1@
CONST	SEGMENT
??_C@_01HIHLOKLC@1@ DB '1', 00H				; `string'
CONST	ENDS
;	COMDAT ??_C@_0BM@GEIAMPLC@OnRevival?7?1?1?5?$CFs?5is?5not?5dead@
CONST	SEGMENT
??_C@_0BM@GEIAMPLC@OnRevival?7?1?1?5?$CFs?5is?5not?5dead@ DB 'OnRevival', 09H
	DB	'// %s is not dead', 00H			; `string'
CONST	ENDS
;	COMDAT ??_C@_05IMILPAJF@?$CDinit@
CONST	SEGMENT
??_C@_05IMILPAJF@?$CDinit@ DB '#init', 00H		; `string'
CONST	ENDS
;	COMDAT ??_C@_0DH@LPECEFCK@npc?5?$DN?5?$CFs?0?5key?5?$DN?5?$CFs?0?5n1?5?$DN?5?$CFd?0?5n2@
CONST	SEGMENT
??_C@_0DH@LPECEFCK@npc?5?$DN?5?$CFs?0?5key?5?$DN?5?$CFs?0?5n1?5?$DN?5?$CFd?0?5n2@ DB 'n'
	DB	'pc = %s, key = %s, n1 = %d, n2 = %d, n3 = %d, n4 = %d', 00H ; `string'
CONST	ENDS
;	COMDAT ??_C@_0BL@LLLFMEKP@CDPSrvr?3?3OnReplace?5called?6@
CONST	SEGMENT
??_C@_0BL@LLLFMEKP@CDPSrvr?3?3OnReplace?5called?6@ DB 'CDPSrvr::OnReplace'
	DB	' called', 0aH, 00H				; `string'
CONST	ENDS
;	COMDAT ??_C@_02JOGGLHBA@?2n@
CONST	SEGMENT
??_C@_02JOGGLHBA@?2n@ DB '\n', 00H			; `string'
CONST	ENDS
;	COMDAT ??_C@_01CLKCMJKC@?5@
CONST	SEGMENT
??_C@_01CLKCMJKC@?5@ DB ' ', 00H			; `string'
CONST	ENDS
;	COMDAT ??_7__MINIGAME_EXT_PACKET@@6B@
CONST	SEGMENT
??_7__MINIGAME_EXT_PACKET@@6B@ DD FLAT:??_R4__MINIGAME_EXT_PACKET@@6B@ ; __MINIGAME_EXT_PACKET::`vftable'
	DD	FLAT:?Serialize@__MINIGAME_EXT_PACKET@@UAEXAAVCAr@@@Z
CONST	ENDS
;	COMDAT ??_7__MINIGAME_PACKET@@6B@
CONST	SEGMENT
??_7__MINIGAME_PACKET@@6B@ DD FLAT:??_R4__MINIGAME_PACKET@@6B@ ; __MINIGAME_PACKET::`vftable'
	DD	FLAT:?Serialize@__MINIGAME_PACKET@@UAEXAAVCAr@@@Z
CONST	ENDS
;	COMDAT ??_7CDPSrvr@@6B@
CONST	SEGMENT
??_7CDPSrvr@@6B@ DD FLAT:??_R4CDPSrvr@@6B@		; CDPSrvr::`vftable'
	DD	FLAT:??_ECDPSrvr@@UAEPAXI@Z
	DD	FLAT:?SysMessageHandler@CDPSrvr@@UAEXPAUDPMSG_GENERIC@@KK@Z
	DD	FLAT:?UserMessageHandler@CDPSrvr@@UAEXPAUDPMSG_GENERIC@@KK@Z
CONST	ENDS
;	COMDAT ??_R4bad_alloc@std@@6B@
rdata$r	SEGMENT
??_R4bad_alloc@std@@6B@ DD 00H				; std::bad_alloc::`RTTI Complete Object Locator'
	DD	00H
	DD	00H
	DD	FLAT:??_R0?AVbad_alloc@std@@@8
	DD	FLAT:??_R3bad_alloc@std@@8
rdata$r	ENDS
;	COMDAT ??_R2bad_alloc@std@@8
rdata$r	SEGMENT
??_R2bad_alloc@std@@8 DD FLAT:??_R1A@?0A@EA@bad_alloc@std@@8 ; std::bad_alloc::`RTTI Base Class Array'
	DD	FLAT:??_R1A@?0A@EA@exception@std@@8
rdata$r	ENDS
;	COMDAT ??_R3bad_alloc@std@@8
rdata$r	SEGMENT
??_R3bad_alloc@std@@8 DD 00H				; std::bad_alloc::`RTTI Class Hierarchy Descriptor'
	DD	00H
	DD	02H
	DD	FLAT:??_R2bad_alloc@std@@8
rdata$r	ENDS
;	COMDAT ??_R1A@?0A@EA@bad_alloc@std@@8
rdata$r	SEGMENT
??_R1A@?0A@EA@bad_alloc@std@@8 DD FLAT:??_R0?AVbad_alloc@std@@@8 ; std::bad_alloc::`RTTI Base Class Descriptor at (0,-1,0,64)'
	DD	01H
	DD	00H
	DD	0ffffffffH
	DD	00H
	DD	040H
	DD	FLAT:??_R3bad_alloc@std@@8
rdata$r	ENDS
;	COMDAT ??_R1A@?0A@EA@bad_array_new_length@std@@8
rdata$r	SEGMENT
??_R1A@?0A@EA@bad_array_new_length@std@@8 DD FLAT:??_R0?AVbad_array_new_length@std@@@8 ; std::bad_array_new_length::`RTTI Base Class Descriptor at (0,-1,0,64)'
	DD	02H
	DD	00H
	DD	0ffffffffH
	DD	00H
	DD	040H
	DD	FLAT:??_R3bad_array_new_length@std@@8
rdata$r	ENDS
;	COMDAT ??_R2bad_array_new_length@std@@8
rdata$r	SEGMENT
??_R2bad_array_new_length@std@@8 DD FLAT:??_R1A@?0A@EA@bad_array_new_length@std@@8 ; std::bad_array_new_length::`RTTI Base Class Array'
	DD	FLAT:??_R1A@?0A@EA@bad_alloc@std@@8
	DD	FLAT:??_R1A@?0A@EA@exception@std@@8
rdata$r	ENDS
;	COMDAT ??_R3bad_array_new_length@std@@8
rdata$r	SEGMENT
??_R3bad_array_new_length@std@@8 DD 00H			; std::bad_array_new_length::`RTTI Class Hierarchy Descriptor'
	DD	00H
	DD	03H
	DD	FLAT:??_R2bad_array_new_length@std@@8
rdata$r	ENDS
;	COMDAT ??_R4bad_array_new_length@std@@6B@
rdata$r	SEGMENT
??_R4bad_array_new_length@std@@6B@ DD 00H		; std::bad_array_new_length::`RTTI Complete Object Locator'
	DD	00H
	DD	00H
	DD	FLAT:??_R0?AVbad_array_new_length@std@@@8
	DD	FLAT:??_R3bad_array_new_length@std@@8
rdata$r	ENDS
;	COMDAT ??_R1A@?0A@EA@exception@std@@8
rdata$r	SEGMENT
??_R1A@?0A@EA@exception@std@@8 DD FLAT:??_R0?AVexception@std@@@8 ; std::exception::`RTTI Base Class Descriptor at (0,-1,0,64)'
	DD	00H
	DD	00H
	DD	0ffffffffH
	DD	00H
	DD	040H
	DD	FLAT:??_R3exception@std@@8
rdata$r	ENDS
;	COMDAT ??_R2exception@std@@8
rdata$r	SEGMENT
??_R2exception@std@@8 DD FLAT:??_R1A@?0A@EA@exception@std@@8 ; std::exception::`RTTI Base Class Array'
rdata$r	ENDS
;	COMDAT ??_R3exception@std@@8
rdata$r	SEGMENT
??_R3exception@std@@8 DD 00H				; std::exception::`RTTI Class Hierarchy Descriptor'
	DD	00H
	DD	01H
	DD	FLAT:??_R2exception@std@@8
rdata$r	ENDS
;	COMDAT ??_R4exception@std@@6B@
rdata$r	SEGMENT
??_R4exception@std@@6B@ DD 00H				; std::exception::`RTTI Complete Object Locator'
	DD	00H
	DD	00H
	DD	FLAT:??_R0?AVexception@std@@@8
	DD	FLAT:??_R3exception@std@@8
rdata$r	ENDS
;	COMDAT ??_C@_0BA@FOIKENOD@vector?5too?5long@
CONST	SEGMENT
??_C@_0BA@FOIKENOD@vector?5too?5long@ DB 'vector too long', 00H ; `string'
CONST	ENDS
;	COMDAT ??_C@_05KKCIMGE@error@
CONST	SEGMENT
??_C@_05KKCIMGE@error@ DB 'error', 00H			; `string'
CONST	ENDS
;	COMDAT ??_C@_0BE@OHDBLHOM@GetText?5range_error@
CONST	SEGMENT
??_C@_0BE@OHDBLHOM@GetText?5range_error@ DB 'GetText range_error', 00H ; `string'
CONST	ENDS
;	COMDAT ??_C@_0BJ@GKPOBPPI@GetMoverProp?5range_error@
CONST	SEGMENT
??_C@_0BJ@GKPOBPPI@GetMoverProp?5range_error@ DB 'GetMoverProp range_erro'
	DB	'r', 00H					; `string'
CONST	ENDS
;	COMDAT ??_C@_0BJ@GPNGCFMK@GetSkillProp?5range_error@
CONST	SEGMENT
??_C@_0BJ@GPNGCFMK@GetSkillProp?5range_error@ DB 'GetSkillProp range_erro'
	DB	'r', 00H					; `string'
CONST	ENDS
;	COMDAT ??_C@_0BI@BEIFNGEL@GetItemProp?5range_error@
CONST	SEGMENT
??_C@_0BI@BEIFNGEL@GetItemProp?5range_error@ DB 'GetItemProp range_error', 00H ; `string'
CONST	ENDS
;	COMDAT ??_C@_0BM@HMFGHCP@?$CFs?5min?3?$CFd?0?5max?3?$CFd?0?5index?3?$CFd@
CONST	SEGMENT
??_C@_0BM@HMFGHCP@?$CFs?5min?3?$CFd?0?5max?3?$CFd?0?5index?3?$CFd@ DB '%s'
	DB	' min:%d, max:%d, index:%d', 00H		; `string'
CONST	ENDS
;	COMDAT ??_C@_0BB@GCADKGJO@map?1set?5too?5long@
CONST	SEGMENT
??_C@_0BB@GCADKGJO@map?1set?5too?5long@ DB 'map/set too long', 00H ; `string'
CONST	ENDS
;	COMDAT ??_C@_0BA@JFNIOLAK@string?5too?5long@
CONST	SEGMENT
??_C@_0BA@JFNIOLAK@string?5too?5long@ DB 'string too long', 00H ; `string'
CONST	ENDS
;	COMDAT __CT??_R0?AVbad_alloc@std@@@8??0bad_alloc@std@@QAE@ABV01@@Z12
xdata$x	SEGMENT
__CT??_R0?AVbad_alloc@std@@@8??0bad_alloc@std@@QAE@ABV01@@Z12 DD 010H
	DD	FLAT:??_R0?AVbad_alloc@std@@@8
	DD	00H
	DD	0ffffffffH
	ORG $+4
	DD	0cH
	DD	FLAT:??0bad_alloc@std@@QAE@ABV01@@Z
xdata$x	ENDS
;	COMDAT ??_R0?AVbad_alloc@std@@@8
data$r	SEGMENT
??_R0?AVbad_alloc@std@@@8 DD FLAT:??_7type_info@@6B@	; std::bad_alloc `RTTI Type Descriptor'
	DD	00H
	DB	'.?AVbad_alloc@std@@', 00H
data$r	ENDS
;	COMDAT __CT??_R0?AVbad_array_new_length@std@@@8??0bad_array_new_length@std@@QAE@ABV01@@Z12
xdata$x	SEGMENT
__CT??_R0?AVbad_array_new_length@std@@@8??0bad_array_new_length@std@@QAE@ABV01@@Z12 DD 00H
	DD	FLAT:??_R0?AVbad_array_new_length@std@@@8
	DD	00H
	DD	0ffffffffH
	ORG $+4
	DD	0cH
	DD	FLAT:??0bad_array_new_length@std@@QAE@ABV01@@Z
xdata$x	ENDS
;	COMDAT ??_R0?AVbad_array_new_length@std@@@8
data$r	SEGMENT
??_R0?AVbad_array_new_length@std@@@8 DD FLAT:??_7type_info@@6B@ ; std::bad_array_new_length `RTTI Type Descriptor'
	DD	00H
	DB	'.?AVbad_array_new_length@std@@', 00H
data$r	ENDS
;	COMDAT __CTA3?AVbad_array_new_length@std@@
xdata$x	SEGMENT
__CTA3?AVbad_array_new_length@std@@ DD 03H
	DD	FLAT:__CT??_R0?AVbad_array_new_length@std@@@8??0bad_array_new_length@std@@QAE@ABV01@@Z12
	DD	FLAT:__CT??_R0?AVbad_alloc@std@@@8??0bad_alloc@std@@QAE@ABV01@@Z12
	DD	FLAT:__CT??_R0?AVexception@std@@@8??0exception@std@@QAE@ABV01@@Z12
xdata$x	ENDS
;	COMDAT __TI3?AVbad_array_new_length@std@@
xdata$x	SEGMENT
__TI3?AVbad_array_new_length@std@@ DD 00H
	DD	FLAT:??1bad_array_new_length@std@@UAE@XZ
	DD	00H
	DD	FLAT:__CTA3?AVbad_array_new_length@std@@
xdata$x	ENDS
;	COMDAT __CT??_R0?AVexception@std@@@8??0exception@std@@QAE@ABV01@@Z12
xdata$x	SEGMENT
__CT??_R0?AVexception@std@@@8??0exception@std@@QAE@ABV01@@Z12 DD 00H
	DD	FLAT:??_R0?AVexception@std@@@8
	DD	00H
	DD	0ffffffffH
	ORG $+4
	DD	0cH
	DD	FLAT:??0exception@std@@QAE@ABV01@@Z
xdata$x	ENDS
;	COMDAT ??_R0?AVexception@std@@@8
data$r	SEGMENT
??_R0?AVexception@std@@@8 DD FLAT:??_7type_info@@6B@	; std::exception `RTTI Type Descriptor'
	DD	00H
	DB	'.?AVexception@std@@', 00H
data$r	ENDS
;	COMDAT ??_C@_0BF@KINCDENJ@bad?5array?5new?5length@
CONST	SEGMENT
??_C@_0BF@KINCDENJ@bad?5array?5new?5length@ DB 'bad array new length', 00H ; `string'
CONST	ENDS
;	COMDAT ??_7bad_array_new_length@std@@6B@
CONST	SEGMENT
??_7bad_array_new_length@std@@6B@ DD FLAT:??_R4bad_array_new_length@std@@6B@ ; std::bad_array_new_length::`vftable'
	DD	FLAT:??_Ebad_array_new_length@std@@UAEPAXI@Z
	DD	FLAT:?what@exception@std@@UBEPBDXZ
CONST	ENDS
;	COMDAT ??_7bad_alloc@std@@6B@
CONST	SEGMENT
??_7bad_alloc@std@@6B@ DD FLAT:??_R4bad_alloc@std@@6B@	; std::bad_alloc::`vftable'
	DD	FLAT:??_Ebad_alloc@std@@UAEPAXI@Z
	DD	FLAT:?what@exception@std@@UBEPBDXZ
CONST	ENDS
;	COMDAT ??_C@_0BC@EOODALEL@Unknown?5exception@
CONST	SEGMENT
??_C@_0BC@EOODALEL@Unknown?5exception@ DB 'Unknown exception', 00H ; `string'
CONST	ENDS
;	COMDAT ??_7exception@std@@6B@
CONST	SEGMENT
??_7exception@std@@6B@ DD FLAT:??_R4exception@std@@6B@	; std::exception::`vftable'
	DD	FLAT:??_Eexception@std@@UAEPAXI@Z
	DD	FLAT:?what@exception@std@@UBEPBDXZ
CONST	ENDS
;	COMDAT ??_C@_00CNPNBAHC@@
CONST	SEGMENT
??_C@_00CNPNBAHC@@ DB 00H				; `string'
CONST	ENDS
;	COMDAT ??_C@_01HMGJMAIH@B@
CONST	SEGMENT
??_C@_01HMGJMAIH@B@ DB 'B', 00H				; `string'
CONST	ENDS
;	COMDAT ??_C@_01CKDDGHAB@D@
CONST	SEGMENT
??_C@_01CKDDGHAB@D@ DB 'D', 00H				; `string'
CONST	ENDS
;	COMDAT ??_C@_01CPLAODJH@S@
CONST	SEGMENT
??_C@_01CPLAODJH@S@ DB 'S', 00H				; `string'
CONST	ENDS
;	COMDAT ??_C@_05LLAMLEHD@?$CFI64d@
CONST	SEGMENT
??_C@_05LLAMLEHD@?$CFI64d@ DB '%I64d', 00H		; `string'
CONST	ENDS
;	COMDAT ??_C@_02DPKJAMEF@?$CFd@
CONST	SEGMENT
??_C@_02DPKJAMEF@?$CFd@ DB '%d', 00H			; `string'
CONST	ENDS
;	COMDAT xdata$x
xdata$x	SEGMENT
__unwindtable$??$?0ABK@?$_Tree_temp_node@V?$allocator@U?$_Tree_node@KPAX@std@@@std@@@std@@QAE@AAV?$allocator@U?$_Tree_node@KPAX@std@@@1@PAU?$_Tree_node@KPAX@1@ABK@Z DD 0ffffffffH
	DD	FLAT:__unwindfunclet$??$?0ABK@?$_Tree_temp_node@V?$allocator@U?$_Tree_node@KPAX@std@@@std@@@std@@QAE@AAV?$allocator@U?$_Tree_node@KPAX@std@@@1@PAU?$_Tree_node@KPAX@1@ABK@Z$1
__ehfuncinfo$??$?0ABK@?$_Tree_temp_node@V?$allocator@U?$_Tree_node@KPAX@std@@@std@@@std@@QAE@AAV?$allocator@U?$_Tree_node@KPAX@std@@@1@PAU?$_Tree_node@KPAX@1@ABK@Z DD 019930522H
	DD	01H
	DD	FLAT:__unwindtable$??$?0ABK@?$_Tree_temp_node@V?$allocator@U?$_Tree_node@KPAX@std@@@std@@@std@@QAE@AAV?$allocator@U?$_Tree_node@KPAX@std@@@1@PAU?$_Tree_node@KPAX@1@ABK@Z
	DD	2 DUP(00H)
	DD	2 DUP(00H)
	DD	00H
	DD	01H
xdata$x	ENDS
;	COMDAT xdata$x
xdata$x	SEGMENT
__unwindtable$??0?$_Tree_temp_node_alloc@V?$allocator@U?$_Tree_node@KPAX@std@@@std@@@std@@QAE@AAV?$allocator@U?$_Tree_node@KPAX@std@@@1@@Z DD 0ffffffffH
	DD	FLAT:__unwindfunclet$??0?$_Tree_temp_node_alloc@V?$allocator@U?$_Tree_node@KPAX@std@@@std@@@std@@QAE@AAV?$allocator@U?$_Tree_node@KPAX@std@@@1@@Z$0
__ehfuncinfo$??0?$_Tree_temp_node_alloc@V?$allocator@U?$_Tree_node@KPAX@std@@@std@@@std@@QAE@AAV?$allocator@U?$_Tree_node@KPAX@std@@@1@@Z DD 019930522H
	DD	01H
	DD	FLAT:__unwindtable$??0?$_Tree_temp_node_alloc@V?$allocator@U?$_Tree_node@KPAX@std@@@std@@@std@@QAE@AAV?$allocator@U?$_Tree_node@KPAX@std@@@1@@Z
	DD	2 DUP(00H)
	DD	2 DUP(00H)
	DD	00H
	DD	01H
xdata$x	ENDS
;	COMDAT xdata$x
xdata$x	SEGMENT
__unwindtable$??$?0U?$pair@$$CBKP8CDPSrvr@@AEXAAVCAr@@KKPAEK@Z@std@@@?$_Tree_temp_node@V?$allocator@U?$_Tree_node@U?$pair@$$CBKP8CDPSrvr@@AEXAAVCAr@@KKPAEK@Z@std@@PAX@std@@@std@@@std@@QAE@AAV?$allocator@U?$_Tree_node@U?$pair@$$CBKP8CDPSrvr@@AEXAAVCAr@@KKPAEK@Z@std@@PAX@std@@@1@PAU?$_Tree_node@U?$pair@$$CBKP8CDPSrvr@@AEXAAVCAr@@KKPAEK@Z@std@@PAX@1@$$QAU?$pair@$$CBKP8CDPSrvr@@AEXAAVCAr@@KKPAEK@Z@1@@Z DD 0ffffffffH
	DD	FLAT:__unwindfunclet$??$?0U?$pair@$$CBKP8CDPSrvr@@AEXAAVCAr@@KKPAEK@Z@std@@@?$_Tree_temp_node@V?$allocator@U?$_Tree_node@U?$pair@$$CBKP8CDPSrvr@@AEXAAVCAr@@KKPAEK@Z@std@@PAX@std@@@std@@@std@@QAE@AAV?$allocator@U?$_Tree_node@U?$pair@$$CBKP8CDPSrvr@@AEXAAVCAr@@KKPAEK@Z@std@@PAX@std@@@1@PAU?$_Tree_node@U?$pair@$$CBKP8CDPSrvr@@AEXAAVCAr@@KKPAEK@Z@std@@PAX@1@$$QAU?$pair@$$CBKP8CDPSrvr@@AEXAAVCAr@@KKPAEK@Z@1@@Z$1
__ehfuncinfo$??$?0U?$pair@$$CBKP8CDPSrvr@@AEXAAVCAr@@KKPAEK@Z@std@@@?$_Tree_temp_node@V?$allocator@U?$_Tree_node@U?$pair@$$CBKP8CDPSrvr@@AEXAAVCAr@@KKPAEK@Z@std@@PAX@std@@@std@@@std@@QAE@AAV?$allocator@U?$_Tree_node@U?$pair@$$CBKP8CDPSrvr@@AEXAAVCAr@@KKPAEK@Z@std@@PAX@std@@@1@PAU?$_Tree_node@U?$pair@$$CBKP8CDPSrvr@@AEXAAVCAr@@KKPAEK@Z@std@@PAX@1@$$QAU?$pair@$$CBKP8CDPSrvr@@AEXAAVCAr@@KKPAEK@Z@1@@Z DD 019930522H
	DD	01H
	DD	FLAT:__unwindtable$??$?0U?$pair@$$CBKP8CDPSrvr@@AEXAAVCAr@@KKPAEK@Z@std@@@?$_Tree_temp_node@V?$allocator@U?$_Tree_node@U?$pair@$$CBKP8CDPSrvr@@AEXAAVCAr@@KKPAEK@Z@std@@PAX@std@@@std@@@std@@QAE@AAV?$allocator@U?$_Tree_node@U?$pair@$$CBKP8CDPSrvr@@AEXAAVCAr@@KKPAEK@Z@std@@PAX@std@@@1@PAU?$_Tree_node@U?$pair@$$CBKP8CDPSrvr@@AEXAAVCAr@@KKPAEK@Z@std@@PAX@1@$$QAU?$pair@$$CBKP8CDPSrvr@@AEXAAVCAr@@KKPAEK@Z@1@@Z
	DD	2 DUP(00H)
	DD	2 DUP(00H)
	DD	00H
	DD	01H
xdata$x	ENDS
;	COMDAT xdata$x
xdata$x	SEGMENT
__unwindtable$??0?$_Tree_temp_node_alloc@V?$allocator@U?$_Tree_node@U?$pair@$$CBKP8CDPSrvr@@AEXAAVCAr@@KKPAEK@Z@std@@PAX@std@@@std@@@std@@QAE@AAV?$allocator@U?$_Tree_node@U?$pair@$$CBKP8CDPSrvr@@AEXAAVCAr@@KKPAEK@Z@std@@PAX@std@@@1@@Z DD 0ffffffffH
	DD	FLAT:__unwindfunclet$??0?$_Tree_temp_node_alloc@V?$allocator@U?$_Tree_node@U?$pair@$$CBKP8CDPSrvr@@AEXAAVCAr@@KKPAEK@Z@std@@PAX@std@@@std@@@std@@QAE@AAV?$allocator@U?$_Tree_node@U?$pair@$$CBKP8CDPSrvr@@AEXAAVCAr@@KKPAEK@Z@std@@PAX@std@@@1@@Z$0
__ehfuncinfo$??0?$_Tree_temp_node_alloc@V?$allocator@U?$_Tree_node@U?$pair@$$CBKP8CDPSrvr@@AEXAAVCAr@@KKPAEK@Z@std@@PAX@std@@@std@@@std@@QAE@AAV?$allocator@U?$_Tree_node@U?$pair@$$CBKP8CDPSrvr@@AEXAAVCAr@@KKPAEK@Z@std@@PAX@std@@@1@@Z DD 019930522H
	DD	01H
	DD	FLAT:__unwindtable$??0?$_Tree_temp_node_alloc@V?$allocator@U?$_Tree_node@U?$pair@$$CBKP8CDPSrvr@@AEXAAVCAr@@KKPAEK@Z@std@@PAX@std@@@std@@@std@@QAE@AAV?$allocator@U?$_Tree_node@U?$pair@$$CBKP8CDPSrvr@@AEXAAVCAr@@KKPAEK@Z@std@@PAX@std@@@1@@Z
	DD	2 DUP(00H)
	DD	2 DUP(00H)
	DD	00H
	DD	01H
xdata$x	ENDS
;	COMDAT xdata$x
xdata$x	SEGMENT
__unwindtable$??$_Emplace@ABK@?$_Tree@V?$_Tset_traits@KU?$less@K@std@@V?$allocator@K@2@$0A@@std@@@std@@IAE?AU?$pair@PAU?$_Tree_node@KPAX@std@@_N@1@ABK@Z DD 0ffffffffH
	DD	FLAT:__unwindfunclet$??$_Emplace@ABK@?$_Tree@V?$_Tset_traits@KU?$less@K@std@@V?$allocator@K@2@$0A@@std@@@std@@IAE?AU?$pair@PAU?$_Tree_node@KPAX@std@@_N@1@ABK@Z$2
__ehfuncinfo$??$_Emplace@ABK@?$_Tree@V?$_Tset_traits@KU?$less@K@std@@V?$allocator@K@2@$0A@@std@@@std@@IAE?AU?$pair@PAU?$_Tree_node@KPAX@std@@_N@1@ABK@Z DD 019930522H
	DD	01H
	DD	FLAT:__unwindtable$??$_Emplace@ABK@?$_Tree@V?$_Tset_traits@KU?$less@K@std@@V?$allocator@K@2@$0A@@std@@@std@@IAE?AU?$pair@PAU?$_Tree_node@KPAX@std@@_N@1@ABK@Z
	DD	2 DUP(00H)
	DD	2 DUP(00H)
	DD	00H
	DD	01H
xdata$x	ENDS
;	COMDAT xdata$x
xdata$x	SEGMENT
__unwindtable$??$_Emplace@U?$pair@$$CBKP8CDPSrvr@@AEXAAVCAr@@KKPAEK@Z@std@@@?$_Tree@V?$_Tmap_traits@KP8CDPSrvr@@AEXAAVCAr@@KKPAEK@ZU?$less@K@std@@V?$allocator@U?$pair@$$CBKP8CDPSrvr@@AEXAAVCAr@@KKPAEK@Z@std@@@4@$0A@@std@@@std@@IAE?AU?$pair@PAU?$_Tree_node@U?$pair@$$CBKP8CDPSrvr@@AEXAAVCAr@@KKPAEK@Z@std@@PAX@std@@_N@1@$$QAU?$pair@$$CBKP8CDPSrvr@@AEXAAVCAr@@KKPAEK@Z@1@@Z DD 0ffffffffH
	DD	FLAT:__unwindfunclet$??$_Emplace@U?$pair@$$CBKP8CDPSrvr@@AEXAAVCAr@@KKPAEK@Z@std@@@?$_Tree@V?$_Tmap_traits@KP8CDPSrvr@@AEXAAVCAr@@KKPAEK@ZU?$less@K@std@@V?$allocator@U?$pair@$$CBKP8CDPSrvr@@AEXAAVCAr@@KKPAEK@Z@std@@@4@$0A@@std@@@std@@IAE?AU?$pair@PAU?$_Tree_node@U?$pair@$$CBKP8CDPSrvr@@AEXAAVCAr@@KKPAEK@Z@std@@PAX@std@@_N@1@$$QAU?$pair@$$CBKP8CDPSrvr@@AEXAAVCAr@@KKPAEK@Z@1@@Z$2
__ehfuncinfo$??$_Emplace@U?$pair@$$CBKP8CDPSrvr@@AEXAAVCAr@@KKPAEK@Z@std@@@?$_Tree@V?$_Tmap_traits@KP8CDPSrvr@@AEXAAVCAr@@KKPAEK@ZU?$less@K@std@@V?$allocator@U?$pair@$$CBKP8CDPSrvr@@AEXAAVCAr@@KKPAEK@Z@std@@@4@$0A@@std@@@std@@IAE?AU?$pair@PAU?$_Tree_node@U?$pair@$$CBKP8CDPSrvr@@AEXAAVCAr@@KKPAEK@Z@std@@PAX@std@@_N@1@$$QAU?$pair@$$CBKP8CDPSrvr@@AEXAAVCAr@@KKPAEK@Z@1@@Z DD 019930522H
	DD	01H
	DD	FLAT:__unwindtable$??$_Emplace@U?$pair@$$CBKP8CDPSrvr@@AEXAAVCAr@@KKPAEK@Z@std@@@?$_Tree@V?$_Tmap_traits@KP8CDPSrvr@@AEXAAVCAr@@KKPAEK@ZU?$less@K@std@@V?$allocator@U?$pair@$$CBKP8CDPSrvr@@AEXAAVCAr@@KKPAEK@Z@std@@@4@$0A@@std@@@std@@IAE?AU?$pair@PAU?$_Tree_node@U?$pair@$$CBKP8CDPSrvr@@AEXAAVCAr@@KKPAEK@Z@std@@PAX@std@@_N@1@$$QAU?$pair@$$CBKP8CDPSrvr@@AEXAAVCAr@@KKPAEK@Z@1@@Z
	DD	2 DUP(00H)
	DD	2 DUP(00H)
	DD	00H
	DD	01H
xdata$x	ENDS
;	COMDAT xdata$x
xdata$x	SEGMENT
__unwindtable$??$insert@$0A@$0A@@?$_Tree@V?$_Tset_traits@KU?$less@K@std@@V?$allocator@K@2@$0A@@std@@@std@@QAE?AU?$pair@V?$_Tree_const_iterator@V?$_Tree_val@U?$_Tree_simple_types@K@std@@@std@@@std@@_N@1@ABK@Z DD 0ffffffffH
	DD	FLAT:__unwindfunclet$??$insert@$0A@$0A@@?$_Tree@V?$_Tset_traits@KU?$less@K@std@@V?$allocator@K@2@$0A@@std@@@std@@QAE?AU?$pair@V?$_Tree_const_iterator@V?$_Tree_val@U?$_Tree_simple_types@K@std@@@std@@@std@@_N@1@ABK@Z$2
__ehfuncinfo$??$insert@$0A@$0A@@?$_Tree@V?$_Tset_traits@KU?$less@K@std@@V?$allocator@K@2@$0A@@std@@@std@@QAE?AU?$pair@V?$_Tree_const_iterator@V?$_Tree_val@U?$_Tree_simple_types@K@std@@@std@@@std@@_N@1@ABK@Z DD 019930522H
	DD	01H
	DD	FLAT:__unwindtable$??$insert@$0A@$0A@@?$_Tree@V?$_Tset_traits@KU?$less@K@std@@V?$allocator@K@2@$0A@@std@@@std@@QAE?AU?$pair@V?$_Tree_const_iterator@V?$_Tree_val@U?$_Tree_simple_types@K@std@@@std@@@std@@_N@1@ABK@Z
	DD	2 DUP(00H)
	DD	2 DUP(00H)
	DD	00H
	DD	01H
xdata$x	ENDS
;	COMDAT xdata$x
xdata$x	SEGMENT
__unwindtable$??$insert@$0A@$0A@@?$_Tree@V?$_Tmap_traits@KP8CDPSrvr@@AEXAAVCAr@@KKPAEK@ZU?$less@K@std@@V?$allocator@U?$pair@$$CBKP8CDPSrvr@@AEXAAVCAr@@KKPAEK@Z@std@@@4@$0A@@std@@@std@@QAE?AU?$pair@V?$_Tree_iterator@V?$_Tree_val@U?$_Tree_simple_types@U?$pair@$$CBKP8CDPSrvr@@AEXAAVCAr@@KKPAEK@Z@std@@@std@@@std@@@std@@_N@1@$$QAU?$pair@$$CBKP8CDPSrvr@@AEXAAVCAr@@KKPAEK@Z@1@@Z DD 0ffffffffH
	DD	FLAT:__unwindfunclet$??$insert@$0A@$0A@@?$_Tree@V?$_Tmap_traits@KP8CDPSrvr@@AEXAAVCAr@@KKPAEK@ZU?$less@K@std@@V?$allocator@U?$pair@$$CBKP8CDPSrvr@@AEXAAVCAr@@KKPAEK@Z@std@@@4@$0A@@std@@@std@@QAE?AU?$pair@V?$_Tree_iterator@V?$_Tree_val@U?$_Tree_simple_types@U?$pair@$$CBKP8CDPSrvr@@AEXAAVCAr@@KKPAEK@Z@std@@@std@@@std@@@std@@_N@1@$$QAU?$pair@$$CBKP8CDPSrvr@@AEXAAVCAr@@KKPAEK@Z@1@@Z$2
__ehfuncinfo$??$insert@$0A@$0A@@?$_Tree@V?$_Tmap_traits@KP8CDPSrvr@@AEXAAVCAr@@KKPAEK@ZU?$less@K@std@@V?$allocator@U?$pair@$$CBKP8CDPSrvr@@AEXAAVCAr@@KKPAEK@Z@std@@@4@$0A@@std@@@std@@QAE?AU?$pair@V?$_Tree_iterator@V?$_Tree_val@U?$_Tree_simple_types@U?$pair@$$CBKP8CDPSrvr@@AEXAAVCAr@@KKPAEK@Z@std@@@std@@@std@@@std@@_N@1@$$QAU?$pair@$$CBKP8CDPSrvr@@AEXAAVCAr@@KKPAEK@Z@1@@Z DD 019930522H
	DD	01H
	DD	FLAT:__unwindtable$??$insert@$0A@$0A@@?$_Tree@V?$_Tmap_traits@KP8CDPSrvr@@AEXAAVCAr@@KKPAEK@ZU?$less@K@std@@V?$allocator@U?$pair@$$CBKP8CDPSrvr@@AEXAAVCAr@@KKPAEK@Z@std@@@4@$0A@@std@@@std@@QAE?AU?$pair@V?$_Tree_iterator@V?$_Tree_val@U?$_Tree_simple_types@U?$pair@$$CBKP8CDPSrvr@@AEXAAVCAr@@KKPAEK@Z@std@@@std@@@std@@@std@@_N@1@$$QAU?$pair@$$CBKP8CDPSrvr@@AEXAAVCAr@@KKPAEK@Z@1@@Z
	DD	2 DUP(00H)
	DD	2 DUP(00H)
	DD	00H
	DD	01H
xdata$x	ENDS
;	COMDAT xdata$x
xdata$x	SEGMENT
__unwindtable$?Serialize@__MINIGAME_EXT_PACKET@@UAEXAAVCAr@@@Z DD 0ffffffffH
	DD	FLAT:__unwindfunclet$?Serialize@__MINIGAME_EXT_PACKET@@UAEXAAVCAr@@@Z$0
__ehfuncinfo$?Serialize@__MINIGAME_EXT_PACKET@@UAEXAAVCAr@@@Z DD 019930522H
	DD	01H
	DD	FLAT:__unwindtable$?Serialize@__MINIGAME_EXT_PACKET@@UAEXAAVCAr@@@Z
	DD	2 DUP(00H)
	DD	2 DUP(00H)
	DD	00H
	DD	01H
xdata$x	ENDS
;	COMDAT xdata$x
xdata$x	SEGMENT
__unwindtable$?OnTreasureBoxOpen@CDPSrvr@@AAEXAAVCAr@@KKPAEK@Z DD 0ffffffffH
	DD	FLAT:__unwindfunclet$?OnTreasureBoxOpen@CDPSrvr@@AAEXAAVCAr@@KKPAEK@Z$0
	DD	00H
	DD	FLAT:__unwindfunclet$?OnTreasureBoxOpen@CDPSrvr@@AAEXAAVCAr@@KKPAEK@Z$1
__ehfuncinfo$?OnTreasureBoxOpen@CDPSrvr@@AAEXAAVCAr@@KKPAEK@Z DD 019930522H
	DD	02H
	DD	FLAT:__unwindtable$?OnTreasureBoxOpen@CDPSrvr@@AAEXAAVCAr@@KKPAEK@Z
	DD	2 DUP(00H)
	DD	2 DUP(00H)
	DD	00H
	DD	01H
xdata$x	ENDS
;	COMDAT xdata$x
xdata$x	SEGMENT
__unwindtable$?OnTransformItem@CDPSrvr@@AAEXAAVCAr@@KKPAEK@Z DD 0ffffffffH
	DD	FLAT:__unwindfunclet$?OnTransformItem@CDPSrvr@@AAEXAAVCAr@@KKPAEK@Z$0
__ehfuncinfo$?OnTransformItem@CDPSrvr@@AAEXAAVCAr@@KKPAEK@Z DD 019930522H
	DD	01H
	DD	FLAT:__unwindtable$?OnTransformItem@CDPSrvr@@AAEXAAVCAr@@KKPAEK@Z
	DD	2 DUP(00H)
	DD	2 DUP(00H)
	DD	00H
	DD	01H
xdata$x	ENDS
;	COMDAT xdata$x
xdata$x	SEGMENT
__unwindtable$?UpdateGuildBank@CDPSrvr@@QAEXPAVCGuild@@HEKPAVCItemElem@@KF@Z DD 0ffffffffH
	DD	FLAT:__unwindfunclet$?UpdateGuildBank@CDPSrvr@@QAEXPAVCGuild@@HEKPAVCItemElem@@KF@Z$0
__ehfuncinfo$?UpdateGuildBank@CDPSrvr@@QAEXPAVCGuild@@HEKPAVCItemElem@@KF@Z DD 019930522H
	DD	01H
	DD	FLAT:__unwindtable$?UpdateGuildBank@CDPSrvr@@QAEXPAVCGuild@@HEKPAVCItemElem@@KF@Z
	DD	2 DUP(00H)
	DD	2 DUP(00H)
	DD	00H
	DD	01H
xdata$x	ENDS
;	COMDAT xdata$x
xdata$x	SEGMENT
__unwindtable$?OnLogItem@CDPSrvr@@QAEXAAU_LogItemInfo@@PAVCItemElem@@H@Z DD 0ffffffffH
	DD	FLAT:__unwindfunclet$?OnLogItem@CDPSrvr@@QAEXAAU_LogItemInfo@@PAVCItemElem@@H@Z$0
__ehfuncinfo$?OnLogItem@CDPSrvr@@QAEXAAU_LogItemInfo@@PAVCItemElem@@H@Z DD 019930522H
	DD	01H
	DD	FLAT:__unwindtable$?OnLogItem@CDPSrvr@@QAEXAAU_LogItemInfo@@PAVCItemElem@@H@Z
	DD	2 DUP(00H)
	DD	2 DUP(00H)
	DD	00H
	DD	01H
xdata$x	ENDS
;	COMDAT xdata$x
xdata$x	SEGMENT
__unwindtable$?QueryDestroyPlayer@CDPSrvr@@QAEXKKKK@Z DD 0ffffffffH
	DD	FLAT:__unwindfunclet$?QueryDestroyPlayer@CDPSrvr@@QAEXKKKK@Z$0
__ehfuncinfo$?QueryDestroyPlayer@CDPSrvr@@QAEXKKKK@Z DD 019930522H
	DD	01H
	DD	FLAT:__unwindtable$?QueryDestroyPlayer@CDPSrvr@@QAEXKKKK@Z
	DD	2 DUP(00H)
	DD	2 DUP(00H)
	DD	00H
	DD	01H
xdata$x	ENDS
;	COMDAT xdata$x
xdata$x	SEGMENT
__unwindtable$?OnTeleportToHeavenTower@CDPSrvr@@AAEXAAVCAr@@KKPAEK@Z DD 0ffffffffH
	DD	FLAT:__unwindfunclet$?OnTeleportToHeavenTower@CDPSrvr@@AAEXAAVCAr@@KKPAEK@Z$0
__ehfuncinfo$?OnTeleportToHeavenTower@CDPSrvr@@AAEXAAVCAr@@KKPAEK@Z DD 019930522H
	DD	01H
	DD	FLAT:__unwindtable$?OnTeleportToHeavenTower@CDPSrvr@@AAEXAAVCAr@@KKPAEK@Z
	DD	2 DUP(00H)
	DD	2 DUP(00H)
	DD	00H
	DD	01H
xdata$x	ENDS
;	COMDAT xdata$x
xdata$x	SEGMENT
__unwindtable$?OnSecretRoomLineUpMember@CDPSrvr@@AAEXAAVCAr@@KKPAEK@Z DD 0ffffffffH
	DD	FLAT:__unwindfunclet$?OnSecretRoomLineUpMember@CDPSrvr@@AAEXAAVCAr@@KKPAEK@Z$0
	DD	00H
	DD	FLAT:__unwindfunclet$?OnSecretRoomLineUpMember@CDPSrvr@@AAEXAAVCAr@@KKPAEK@Z$1
	DD	01H
	DD	FLAT:__unwindfunclet$?OnSecretRoomLineUpMember@CDPSrvr@@AAEXAAVCAr@@KKPAEK@Z$8
	DD	01H
	DD	FLAT:__unwindfunclet$?OnSecretRoomLineUpMember@CDPSrvr@@AAEXAAVCAr@@KKPAEK@Z$2
__ehfuncinfo$?OnSecretRoomLineUpMember@CDPSrvr@@AAEXAAVCAr@@KKPAEK@Z DD 019930522H
	DD	04H
	DD	FLAT:__unwindtable$?OnSecretRoomLineUpMember@CDPSrvr@@AAEXAAVCAr@@KKPAEK@Z
	DD	2 DUP(00H)
	DD	2 DUP(00H)
	DD	00H
	DD	01H
xdata$x	ENDS
;	COMDAT xdata$x
xdata$x	SEGMENT
__unwindtable$?OnNPCBuff@CDPSrvr@@AAEXAAVCAr@@KKPAEK@Z DD 0ffffffffH
	DD	FLAT:__unwindfunclet$?OnNPCBuff@CDPSrvr@@AAEXAAVCAr@@KKPAEK@Z$0
__ehfuncinfo$?OnNPCBuff@CDPSrvr@@AAEXAAVCAr@@KKPAEK@Z DD 019930522H
	DD	01H
	DD	FLAT:__unwindtable$?OnNPCBuff@CDPSrvr@@AAEXAAVCAr@@KKPAEK@Z
	DD	2 DUP(00H)
	DD	2 DUP(00H)
	DD	00H
	DD	01H
xdata$x	ENDS
;	COMDAT xdata$x
xdata$x	SEGMENT
__unwindtable$?OnSealCharConmReq@CDPSrvr@@AAEXAAVCAr@@KKPAEK@Z DD 0ffffffffH
	DD	FLAT:__unwindfunclet$?OnSealCharConmReq@CDPSrvr@@AAEXAAVCAr@@KKPAEK@Z$0
__ehfuncinfo$?OnSealCharConmReq@CDPSrvr@@AAEXAAVCAr@@KKPAEK@Z DD 019930522H
	DD	01H
	DD	FLAT:__unwindtable$?OnSealCharConmReq@CDPSrvr@@AAEXAAVCAr@@KKPAEK@Z
	DD	2 DUP(00H)
	DD	2 DUP(00H)
	DD	00H
	DD	01H
xdata$x	ENDS
;	COMDAT xdata$x
xdata$x	SEGMENT
__unwindtable$?OnGC1to1MemberLineUp@CDPSrvr@@AAEXAAVCAr@@KKPAEK@Z DD 0ffffffffH
	DD	FLAT:__unwindfunclet$?OnGC1to1MemberLineUp@CDPSrvr@@AAEXAAVCAr@@KKPAEK@Z$0
__ehfuncinfo$?OnGC1to1MemberLineUp@CDPSrvr@@AAEXAAVCAr@@KKPAEK@Z DD 019930522H
	DD	01H
	DD	FLAT:__unwindtable$?OnGC1to1MemberLineUp@CDPSrvr@@AAEXAAVCAr@@KKPAEK@Z
	DD	2 DUP(00H)
	DD	2 DUP(00H)
	DD	00H
	DD	01H
xdata$x	ENDS
;	COMDAT xdata$x
xdata$x	SEGMENT
__unwindtable$?OnMakePetFeed@CDPSrvr@@AAEXAAVCAr@@KKPAEK@Z DD 0ffffffffH
	DD	FLAT:__unwindfunclet$?OnMakePetFeed@CDPSrvr@@AAEXAAVCAr@@KKPAEK@Z$0
__ehfuncinfo$?OnMakePetFeed@CDPSrvr@@AAEXAAVCAr@@KKPAEK@Z DD 019930522H
	DD	01H
	DD	FLAT:__unwindtable$?OnMakePetFeed@CDPSrvr@@AAEXAAVCAr@@KKPAEK@Z
	DD	2 DUP(00H)
	DD	2 DUP(00H)
	DD	00H
	DD	01H
xdata$x	ENDS
;	COMDAT xdata$x
xdata$x	SEGMENT
__unwindtable$?OnAngleBuff@CDPSrvr@@AAEXAAVCAr@@KKPAEK@Z DD 0ffffffffH
	DD	FLAT:__unwindfunclet$?OnAngleBuff@CDPSrvr@@AAEXAAVCAr@@KKPAEK@Z$0
__ehfuncinfo$?OnAngleBuff@CDPSrvr@@AAEXAAVCAr@@KKPAEK@Z DD 019930522H
	DD	01H
	DD	FLAT:__unwindtable$?OnAngleBuff@CDPSrvr@@AAEXAAVCAr@@KKPAEK@Z
	DD	2 DUP(00H)
	DD	2 DUP(00H)
	DD	00H
	DD	01H
xdata$x	ENDS
;	COMDAT xdata$x
xdata$x	SEGMENT
__unwindtable$?OnCreateAngel@CDPSrvr@@AAEXAAVCAr@@KKPAEK@Z DD 0ffffffffH
	DD	FLAT:__unwindfunclet$?OnCreateAngel@CDPSrvr@@AAEXAAVCAr@@KKPAEK@Z$3
	DD	0ffffffffH
	DD	FLAT:__unwindfunclet$?OnCreateAngel@CDPSrvr@@AAEXAAVCAr@@KKPAEK@Z$0
	DD	01H
	DD	FLAT:__unwindfunclet$?OnCreateAngel@CDPSrvr@@AAEXAAVCAr@@KKPAEK@Z$1
	DD	01H
	DD	FLAT:__unwindfunclet$?OnCreateAngel@CDPSrvr@@AAEXAAVCAr@@KKPAEK@Z$2
__ehfuncinfo$?OnCreateAngel@CDPSrvr@@AAEXAAVCAr@@KKPAEK@Z DD 019930522H
	DD	04H
	DD	FLAT:__unwindtable$?OnCreateAngel@CDPSrvr@@AAEXAAVCAr@@KKPAEK@Z
	DD	2 DUP(00H)
	DD	2 DUP(00H)
	DD	00H
	DD	01H
xdata$x	ENDS
;	COMDAT xdata$x
xdata$x	SEGMENT
__unwindtable$?OnRandomScroll@CDPSrvr@@AAEXAAVCAr@@KKPAEK@Z DD 0ffffffffH
	DD	FLAT:__unwindfunclet$?OnRandomScroll@CDPSrvr@@AAEXAAVCAr@@KKPAEK@Z$0
__ehfuncinfo$?OnRandomScroll@CDPSrvr@@AAEXAAVCAr@@KKPAEK@Z DD 019930522H
	DD	01H
	DD	FLAT:__unwindtable$?OnRandomScroll@CDPSrvr@@AAEXAAVCAr@@KKPAEK@Z
	DD	2 DUP(00H)
	DD	2 DUP(00H)
	DD	00H
	DD	01H
xdata$x	ENDS
;	COMDAT xdata$x
xdata$x	SEGMENT
__unwindtable$?OnRemoveInvenItem@CDPSrvr@@AAEXAAVCAr@@KKPAEK@Z DD 0ffffffffH
	DD	FLAT:__unwindfunclet$?OnRemoveInvenItem@CDPSrvr@@AAEXAAVCAr@@KKPAEK@Z$0
__ehfuncinfo$?OnRemoveInvenItem@CDPSrvr@@AAEXAAVCAr@@KKPAEK@Z DD 019930522H
	DD	01H
	DD	FLAT:__unwindtable$?OnRemoveInvenItem@CDPSrvr@@AAEXAAVCAr@@KKPAEK@Z
	DD	2 DUP(00H)
	DD	2 DUP(00H)
	DD	00H
	DD	01H
xdata$x	ENDS
;	COMDAT xdata$x
xdata$x	SEGMENT
__unwindtable$?OnSummonPartyConfirm@CDPSrvr@@AAEXAAVCAr@@KKPAEK@Z DD 0ffffffffH
	DD	FLAT:__unwindfunclet$?OnSummonPartyConfirm@CDPSrvr@@AAEXAAVCAr@@KKPAEK@Z$0
	DD	0ffffffffH
	DD	FLAT:__unwindfunclet$?OnSummonPartyConfirm@CDPSrvr@@AAEXAAVCAr@@KKPAEK@Z$1
	DD	0ffffffffH
	DD	FLAT:__unwindfunclet$?OnSummonPartyConfirm@CDPSrvr@@AAEXAAVCAr@@KKPAEK@Z$2
__ehfuncinfo$?OnSummonPartyConfirm@CDPSrvr@@AAEXAAVCAr@@KKPAEK@Z DD 019930522H
	DD	03H
	DD	FLAT:__unwindtable$?OnSummonPartyConfirm@CDPSrvr@@AAEXAAVCAr@@KKPAEK@Z
	DD	2 DUP(00H)
	DD	2 DUP(00H)
	DD	00H
	DD	01H
xdata$x	ENDS
;	COMDAT xdata$x
xdata$x	SEGMENT
__unwindtable$?OnSummonFriendConfirm@CDPSrvr@@AAEXAAVCAr@@KKPAEK@Z DD 0ffffffffH
	DD	FLAT:__unwindfunclet$?OnSummonFriendConfirm@CDPSrvr@@AAEXAAVCAr@@KKPAEK@Z$0
__ehfuncinfo$?OnSummonFriendConfirm@CDPSrvr@@AAEXAAVCAr@@KKPAEK@Z DD 019930522H
	DD	01H
	DD	FLAT:__unwindtable$?OnSummonFriendConfirm@CDPSrvr@@AAEXAAVCAr@@KKPAEK@Z
	DD	2 DUP(00H)
	DD	2 DUP(00H)
	DD	00H
	DD	01H
xdata$x	ENDS
;	COMDAT xdata$x
xdata$x	SEGMENT
__unwindtable$?OnSummonFriend@CDPSrvr@@AAEXAAVCAr@@KKPAEK@Z DD 0ffffffffH
	DD	FLAT:__unwindfunclet$?OnSummonFriend@CDPSrvr@@AAEXAAVCAr@@KKPAEK@Z$0
__ehfuncinfo$?OnSummonFriend@CDPSrvr@@AAEXAAVCAr@@KKPAEK@Z DD 019930522H
	DD	01H
	DD	FLAT:__unwindtable$?OnSummonFriend@CDPSrvr@@AAEXAAVCAr@@KKPAEK@Z
	DD	2 DUP(00H)
	DD	2 DUP(00H)
	DD	00H
	DD	01H
xdata$x	ENDS
;	COMDAT xdata$x
xdata$x	SEGMENT
__unwindtable$?OnGCSelectPlayer@CDPSrvr@@AAEXAAVCAr@@KKPAEK@Z DD 0ffffffffH
	DD	FLAT:__unwindfunclet$?OnGCSelectPlayer@CDPSrvr@@AAEXAAVCAr@@KKPAEK@Z$0
	DD	0ffffffffH
	DD	FLAT:__unwindfunclet$?OnGCSelectPlayer@CDPSrvr@@AAEXAAVCAr@@KKPAEK@Z$1
__ehfuncinfo$?OnGCSelectPlayer@CDPSrvr@@AAEXAAVCAr@@KKPAEK@Z DD 019930522H
	DD	02H
	DD	FLAT:__unwindtable$?OnGCSelectPlayer@CDPSrvr@@AAEXAAVCAr@@KKPAEK@Z
	DD	2 DUP(00H)
	DD	2 DUP(00H)
	DD	00H
	DD	01H
xdata$x	ENDS
;	COMDAT xdata$x
xdata$x	SEGMENT
__unwindtable$?OnGCRequestStatus@CDPSrvr@@AAEXAAVCAr@@KKPAEK@Z DD 0ffffffffH
	DD	FLAT:__unwindfunclet$?OnGCRequestStatus@CDPSrvr@@AAEXAAVCAr@@KKPAEK@Z$0
__ehfuncinfo$?OnGCRequestStatus@CDPSrvr@@AAEXAAVCAr@@KKPAEK@Z DD 019930522H
	DD	01H
	DD	FLAT:__unwindtable$?OnGCRequestStatus@CDPSrvr@@AAEXAAVCAr@@KKPAEK@Z
	DD	2 DUP(00H)
	DD	2 DUP(00H)
	DD	00H
	DD	01H
xdata$x	ENDS
;	COMDAT xdata$x
xdata$x	SEGMENT
__unwindtable$?OnQueryPostMail@CDPSrvr@@AAEXAAVCAr@@KKPAEK@Z DD 0ffffffffH
	DD	FLAT:__unwindfunclet$?OnQueryPostMail@CDPSrvr@@AAEXAAVCAr@@KKPAEK@Z$0
__ehfuncinfo$?OnQueryPostMail@CDPSrvr@@AAEXAAVCAr@@KKPAEK@Z DD 019930522H
	DD	01H
	DD	FLAT:__unwindtable$?OnQueryPostMail@CDPSrvr@@AAEXAAVCAr@@KKPAEK@Z
	DD	2 DUP(00H)
	DD	2 DUP(00H)
	DD	00H
	DD	01H
xdata$x	ENDS
;	COMDAT xdata$x
xdata$x	SEGMENT
__unwindtable$?OnNWWantedName@CDPSrvr@@AAEXAAVCAr@@KKPAEK@Z DD 0ffffffffH
	DD	FLAT:__unwindfunclet$?OnNWWantedName@CDPSrvr@@AAEXAAVCAr@@KKPAEK@Z$0
__ehfuncinfo$?OnNWWantedName@CDPSrvr@@AAEXAAVCAr@@KKPAEK@Z DD 019930522H
	DD	01H
	DD	FLAT:__unwindtable$?OnNWWantedName@CDPSrvr@@AAEXAAVCAr@@KKPAEK@Z
	DD	2 DUP(00H)
	DD	2 DUP(00H)
	DD	00H
	DD	01H
xdata$x	ENDS
;	COMDAT xdata$x
xdata$x	SEGMENT
__unwindtable$?OnNWWantedList@CDPSrvr@@AAEXAAVCAr@@KKPAEK@Z DD 0ffffffffH
	DD	FLAT:__unwindfunclet$?OnNWWantedList@CDPSrvr@@AAEXAAVCAr@@KKPAEK@Z$0
__ehfuncinfo$?OnNWWantedList@CDPSrvr@@AAEXAAVCAr@@KKPAEK@Z DD 019930522H
	DD	01H
	DD	FLAT:__unwindtable$?OnNWWantedList@CDPSrvr@@AAEXAAVCAr@@KKPAEK@Z
	DD	2 DUP(00H)
	DD	2 DUP(00H)
	DD	00H
	DD	01H
xdata$x	ENDS
;	COMDAT xdata$x
xdata$x	SEGMENT
__unwindtable$?OnSetNaviPoint@CDPSrvr@@AAEXAAVCAr@@KKPAEK@Z DD 0ffffffffH
	DD	FLAT:__unwindfunclet$?OnSetNaviPoint@CDPSrvr@@AAEXAAVCAr@@KKPAEK@Z$0
__ehfuncinfo$?OnSetNaviPoint@CDPSrvr@@AAEXAAVCAr@@KKPAEK@Z DD 019930522H
	DD	01H
	DD	FLAT:__unwindtable$?OnSetNaviPoint@CDPSrvr@@AAEXAAVCAr@@KKPAEK@Z
	DD	2 DUP(00H)
	DD	2 DUP(00H)
	DD	00H
	DD	01H
xdata$x	ENDS
;	COMDAT xdata$x
xdata$x	SEGMENT
__unwindtable$?OnQuePetResurrection@CDPSrvr@@AAEXAAVCAr@@KKPAEK@Z DD 0ffffffffH
	DD	FLAT:__unwindfunclet$?OnQuePetResurrection@CDPSrvr@@AAEXAAVCAr@@KKPAEK@Z$0
__ehfuncinfo$?OnQuePetResurrection@CDPSrvr@@AAEXAAVCAr@@KKPAEK@Z DD 019930522H
	DD	01H
	DD	FLAT:__unwindtable$?OnQuePetResurrection@CDPSrvr@@AAEXAAVCAr@@KKPAEK@Z
	DD	2 DUP(00H)
	DD	2 DUP(00H)
	DD	00H
	DD	01H
xdata$x	ENDS
;	COMDAT xdata$x
xdata$x	SEGMENT
__unwindtable$?OnMoveItemOnPocket@CDPSrvr@@AAEXAAVCAr@@KKPAEK@Z DD 0ffffffffH
	DD	FLAT:__unwindfunclet$?OnMoveItemOnPocket@CDPSrvr@@AAEXAAVCAr@@KKPAEK@Z$0
__ehfuncinfo$?OnMoveItemOnPocket@CDPSrvr@@AAEXAAVCAr@@KKPAEK@Z DD 019930522H
	DD	01H
	DD	FLAT:__unwindtable$?OnMoveItemOnPocket@CDPSrvr@@AAEXAAVCAr@@KKPAEK@Z
	DD	2 DUP(00H)
	DD	2 DUP(00H)
	DD	00H
	DD	01H
xdata$x	ENDS
;	COMDAT xdata$x
xdata$x	SEGMENT
__unwindtable$?OnCreateGuildCloak@CDPSrvr@@AAEXAAVCAr@@KKPAEK@Z DD 0ffffffffH
	DD	FLAT:__unwindfunclet$?OnCreateGuildCloak@CDPSrvr@@AAEXAAVCAr@@KKPAEK@Z$0
__ehfuncinfo$?OnCreateGuildCloak@CDPSrvr@@AAEXAAVCAr@@KKPAEK@Z DD 019930522H
	DD	01H
	DD	FLAT:__unwindtable$?OnCreateGuildCloak@CDPSrvr@@AAEXAAVCAr@@KKPAEK@Z
	DD	2 DUP(00H)
	DD	2 DUP(00H)
	DD	00H
	DD	01H
xdata$x	ENDS
;	COMDAT xdata$x
xdata$x	SEGMENT
__unwindtable$?OnGetItemBank@CDPSrvr@@AAEXAAVCAr@@KKPAEK@Z DD 0ffffffffH
	DD	FLAT:__unwindfunclet$?OnGetItemBank@CDPSrvr@@AAEXAAVCAr@@KKPAEK@Z$0
__ehfuncinfo$?OnGetItemBank@CDPSrvr@@AAEXAAVCAr@@KKPAEK@Z DD 019930522H
	DD	01H
	DD	FLAT:__unwindtable$?OnGetItemBank@CDPSrvr@@AAEXAAVCAr@@KKPAEK@Z
	DD	2 DUP(00H)
	DD	2 DUP(00H)
	DD	00H
	DD	01H
xdata$x	ENDS
;	COMDAT xdata$x
xdata$x	SEGMENT
__unwindtable$?OnPutItemBank@CDPSrvr@@AAEXAAVCAr@@KKPAEK@Z DD 0ffffffffH
	DD	FLAT:__unwindfunclet$?OnPutItemBank@CDPSrvr@@AAEXAAVCAr@@KKPAEK@Z$0
__ehfuncinfo$?OnPutItemBank@CDPSrvr@@AAEXAAVCAr@@KKPAEK@Z DD 019930522H
	DD	01H
	DD	FLAT:__unwindtable$?OnPutItemBank@CDPSrvr@@AAEXAAVCAr@@KKPAEK@Z
	DD	2 DUP(00H)
	DD	2 DUP(00H)
	DD	00H
	DD	01H
xdata$x	ENDS
;	COMDAT xdata$x
xdata$x	SEGMENT
__unwindtable$?OnBankToBank@CDPSrvr@@AAEXAAVCAr@@KKPAEK@Z DD 0ffffffffH
	DD	FLAT:__unwindfunclet$?OnBankToBank@CDPSrvr@@AAEXAAVCAr@@KKPAEK@Z$0
__ehfuncinfo$?OnBankToBank@CDPSrvr@@AAEXAAVCAr@@KKPAEK@Z DD 019930522H
	DD	01H
	DD	FLAT:__unwindtable$?OnBankToBank@CDPSrvr@@AAEXAAVCAr@@KKPAEK@Z
	DD	2 DUP(00H)
	DD	2 DUP(00H)
	DD	00H
	DD	01H
xdata$x	ENDS
;	COMDAT xdata$x
xdata$x	SEGMENT
__unwindtable$?OnGetItemGuildBank@CDPSrvr@@AAEXAAVCAr@@KKPAEK@Z DD 0ffffffffH
	DD	FLAT:__unwindfunclet$?OnGetItemGuildBank@CDPSrvr@@AAEXAAVCAr@@KKPAEK@Z$0
__ehfuncinfo$?OnGetItemGuildBank@CDPSrvr@@AAEXAAVCAr@@KKPAEK@Z DD 019930522H
	DD	01H
	DD	FLAT:__unwindtable$?OnGetItemGuildBank@CDPSrvr@@AAEXAAVCAr@@KKPAEK@Z
	DD	2 DUP(00H)
	DD	2 DUP(00H)
	DD	00H
	DD	01H
xdata$x	ENDS
;	COMDAT xdata$x
xdata$x	SEGMENT
__unwindtable$?OnPutItemGuildBank@CDPSrvr@@AAEXAAVCAr@@KKPAEK@Z DD 0ffffffffH
	DD	FLAT:__unwindfunclet$?OnPutItemGuildBank@CDPSrvr@@AAEXAAVCAr@@KKPAEK@Z$0
__ehfuncinfo$?OnPutItemGuildBank@CDPSrvr@@AAEXAAVCAr@@KKPAEK@Z DD 019930522H
	DD	01H
	DD	FLAT:__unwindtable$?OnPutItemGuildBank@CDPSrvr@@AAEXAAVCAr@@KKPAEK@Z
	DD	2 DUP(00H)
	DD	2 DUP(00H)
	DD	00H
	DD	01H
xdata$x	ENDS
;	COMDAT xdata$x
xdata$x	SEGMENT
__unwindtable$?OnBuyChipItem@CDPSrvr@@AAEXAAVCAr@@KKPAEK@Z DD 0ffffffffH
	DD	FLAT:__unwindfunclet$?OnBuyChipItem@CDPSrvr@@AAEXAAVCAr@@KKPAEK@Z$0
	DD	00H
	DD	FLAT:__unwindfunclet$?OnBuyChipItem@CDPSrvr@@AAEXAAVCAr@@KKPAEK@Z$1
	DD	00H
	DD	FLAT:__unwindfunclet$?OnBuyChipItem@CDPSrvr@@AAEXAAVCAr@@KKPAEK@Z$2
__ehfuncinfo$?OnBuyChipItem@CDPSrvr@@AAEXAAVCAr@@KKPAEK@Z DD 019930522H
	DD	03H
	DD	FLAT:__unwindtable$?OnBuyChipItem@CDPSrvr@@AAEXAAVCAr@@KKPAEK@Z
	DD	2 DUP(00H)
	DD	2 DUP(00H)
	DD	00H
	DD	01H
xdata$x	ENDS
;	COMDAT xdata$x
xdata$x	SEGMENT
__unwindtable$?OnBuyItem@CDPSrvr@@AAEXAAVCAr@@KKPAEK@Z DD 0ffffffffH
	DD	FLAT:__unwindfunclet$?OnBuyItem@CDPSrvr@@AAEXAAVCAr@@KKPAEK@Z$0
__ehfuncinfo$?OnBuyItem@CDPSrvr@@AAEXAAVCAr@@KKPAEK@Z DD 019930522H
	DD	01H
	DD	FLAT:__unwindtable$?OnBuyItem@CDPSrvr@@AAEXAAVCAr@@KKPAEK@Z
	DD	2 DUP(00H)
	DD	2 DUP(00H)
	DD	00H
	DD	01H
xdata$x	ENDS
;	COMDAT xdata$x
xdata$x	SEGMENT
__unwindtable$?OnBuyPVendorItem@CDPSrvr@@AAEXAAVCAr@@KKPAEK@Z DD 0ffffffffH
	DD	FLAT:__unwindfunclet$?OnBuyPVendorItem@CDPSrvr@@AAEXAAVCAr@@KKPAEK@Z$0
__ehfuncinfo$?OnBuyPVendorItem@CDPSrvr@@AAEXAAVCAr@@KKPAEK@Z DD 019930522H
	DD	01H
	DD	FLAT:__unwindtable$?OnBuyPVendorItem@CDPSrvr@@AAEXAAVCAr@@KKPAEK@Z
	DD	2 DUP(00H)
	DD	2 DUP(00H)
	DD	00H
	DD	01H
xdata$x	ENDS
;	COMDAT xdata$x
xdata$x	SEGMENT
__unwindtable$?OnTradelastConfrim@CDPSrvr@@AAEXAAVCAr@@KKPAEK@Z DD 0ffffffffH
	DD	FLAT:__unwindfunclet$?OnTradelastConfrim@CDPSrvr@@AAEXAAVCAr@@KKPAEK@Z$0
__ehfuncinfo$?OnTradelastConfrim@CDPSrvr@@AAEXAAVCAr@@KKPAEK@Z DD 019930522H
	DD	01H
	DD	FLAT:__unwindtable$?OnTradelastConfrim@CDPSrvr@@AAEXAAVCAr@@KKPAEK@Z
	DD	2 DUP(00H)
	DD	2 DUP(00H)
	DD	00H
	DD	01H
xdata$x	ENDS
;	COMDAT xdata$x
xdata$x	SEGMENT
__unwindtable$?OnChat@CDPSrvr@@AAEXAAVCAr@@KKPAEK@Z DD 0ffffffffH
	DD	FLAT:__unwindfunclet$?OnChat@CDPSrvr@@AAEXAAVCAr@@KKPAEK@Z$1
	DD	0ffffffffH
	DD	FLAT:__unwindfunclet$?OnChat@CDPSrvr@@AAEXAAVCAr@@KKPAEK@Z$0
__ehfuncinfo$?OnChat@CDPSrvr@@AAEXAAVCAr@@KKPAEK@Z DD 019930522H
	DD	02H
	DD	FLAT:__unwindtable$?OnChat@CDPSrvr@@AAEXAAVCAr@@KKPAEK@Z
	DD	2 DUP(00H)
	DD	2 DUP(00H)
	DD	00H
	DD	01H
xdata$x	ENDS
;	COMDAT xdata$x
xdata$x	SEGMENT
__unwindtable$?OnAddUser@CDPSrvr@@AAEXAAVCAr@@KKPAEK@Z DD 0ffffffffH
	DD	FLAT:__unwindfunclet$?OnAddUser@CDPSrvr@@AAEXAAVCAr@@KKPAEK@Z$0
__ehfuncinfo$?OnAddUser@CDPSrvr@@AAEXAAVCAr@@KKPAEK@Z DD 019930522H
	DD	01H
	DD	FLAT:__unwindtable$?OnAddUser@CDPSrvr@@AAEXAAVCAr@@KKPAEK@Z
	DD	2 DUP(00H)
	DD	2 DUP(00H)
	DD	00H
	DD	01H
xdata$x	ENDS
;	COMDAT xdata$x
xdata$x	SEGMENT
__unwindtable$?UserMessageHandler@CDPSrvr@@UAEXPAUDPMSG_GENERIC@@KK@Z DD 0ffffffffH
	DD	FLAT:__unwindfunclet$?UserMessageHandler@CDPSrvr@@UAEXPAUDPMSG_GENERIC@@KK@Z$0
__ehfuncinfo$?UserMessageHandler@CDPSrvr@@UAEXPAUDPMSG_GENERIC@@KK@Z DD 019930522H
	DD	01H
	DD	FLAT:__unwindtable$?UserMessageHandler@CDPSrvr@@UAEXPAUDPMSG_GENERIC@@KK@Z
	DD	2 DUP(00H)
	DD	2 DUP(00H)
	DD	00H
	DD	01H
xdata$x	ENDS
;	COMDAT xdata$x
xdata$x	SEGMENT
__ehfuncinfo$??0CDPSrvr@@QAE@XZ DD 019930522H
	DD	09H
	DD	FLAT:__unwindtable$??0CDPSrvr@@QAE@XZ
	DD	2 DUP(00H)
	DD	2 DUP(00H)
	DD	00H
	DD	01H
__unwindtable$??0CDPSrvr@@QAE@XZ DD 0ffffffffH
	DD	FLAT:__unwindfunclet$??0CDPSrvr@@QAE@XZ$0
	DD	00H
	DD	FLAT:__unwindfunclet$??0CDPSrvr@@QAE@XZ$1
	DD	01H
	DD	FLAT:__unwindfunclet$??0CDPSrvr@@QAE@XZ$5
	DD	01H
	DD	FLAT:__unwindfunclet$??0CDPSrvr@@QAE@XZ$10
	DD	01H
	DD	FLAT:__unwindfunclet$??0CDPSrvr@@QAE@XZ$15
	DD	01H
	DD	FLAT:__unwindfunclet$??0CDPSrvr@@QAE@XZ$20
	DD	01H
	DD	FLAT:__unwindfunclet$??0CDPSrvr@@QAE@XZ$25
	DD	01H
	DD	FLAT:__unwindfunclet$??0CDPSrvr@@QAE@XZ$30
	DD	01H
	DD	FLAT:__unwindfunclet$??0CDPSrvr@@QAE@XZ$35
xdata$x	ENDS
;	COMDAT xdata$x
xdata$x	SEGMENT
__unwindtable$?FormatV@?$CStringT@DV?$StrTraitMFC@DV?$ChTraitsCRT@D@ATL@@@@@ATL@@QAEXPBDPAD@Z DD 0ffffffffH
	DD	FLAT:__unwindfunclet$?FormatV@?$CStringT@DV?$StrTraitMFC@DV?$ChTraitsCRT@D@ATL@@@@@ATL@@QAEXPBDPAD@Z$1
	DD	0ffffffffH
	DD	FLAT:__unwindfunclet$?FormatV@?$CStringT@DV?$StrTraitMFC@DV?$ChTraitsCRT@D@ATL@@@@@ATL@@QAEXPBDPAD@Z$0
__ehfuncinfo$?FormatV@?$CStringT@DV?$StrTraitMFC@DV?$ChTraitsCRT@D@ATL@@@@@ATL@@QAEXPBDPAD@Z DD 019930522H
	DD	02H
	DD	FLAT:__unwindtable$?FormatV@?$CStringT@DV?$StrTraitMFC@DV?$ChTraitsCRT@D@ATL@@@@@ATL@@QAEXPBDPAD@Z
	DD	2 DUP(00H)
	DD	2 DUP(00H)
	DD	00H
	DD	01H
xdata$x	ENDS
;	COMDAT xdata$x
xdata$x	SEGMENT
__unwindtable$??0?$CStringT@DV?$StrTraitMFC@DV?$ChTraitsCRT@D@ATL@@@@@ATL@@QAE@PBDPAUIAtlStringMgr@1@@Z DD 0ffffffffH
	DD	FLAT:__unwindfunclet$??0?$CStringT@DV?$StrTraitMFC@DV?$ChTraitsCRT@D@ATL@@@@@ATL@@QAE@PBDPAUIAtlStringMgr@1@@Z$0
__ehfuncinfo$??0?$CStringT@DV?$StrTraitMFC@DV?$ChTraitsCRT@D@ATL@@@@@ATL@@QAE@PBDPAUIAtlStringMgr@1@@Z DD 019930522H
	DD	01H
	DD	FLAT:__unwindtable$??0?$CStringT@DV?$StrTraitMFC@DV?$ChTraitsCRT@D@ATL@@@@@ATL@@QAE@PBDPAUIAtlStringMgr@1@@Z
	DD	2 DUP(00H)
	DD	2 DUP(00H)
	DD	00H
	DD	01H
xdata$x	ENDS
;	COMDAT xdata$x
xdata$x	SEGMENT
__unwindtable$??0?$CStringT@DV?$StrTraitMFC@DV?$ChTraitsCRT@D@ATL@@@@@ATL@@QAE@PBD@Z DD 0ffffffffH
	DD	FLAT:__unwindfunclet$??0?$CStringT@DV?$StrTraitMFC@DV?$ChTraitsCRT@D@ATL@@@@@ATL@@QAE@PBD@Z$0
__ehfuncinfo$??0?$CStringT@DV?$StrTraitMFC@DV?$ChTraitsCRT@D@ATL@@@@@ATL@@QAE@PBD@Z DD 019930522H
	DD	01H
	DD	FLAT:__unwindtable$??0?$CStringT@DV?$StrTraitMFC@DV?$ChTraitsCRT@D@ATL@@@@@ATL@@QAE@PBD@Z
	DD	2 DUP(00H)
	DD	2 DUP(00H)
	DD	00H
	DD	01H
xdata$x	ENDS
; Function compile flags: /Ogtp
; File C:\Program Files\Microsoft Visual Studio\2022\Professional\VC\Tools\MSVC\14.44.35207\include\xmemory
;	COMDAT ??$_Construct_in_place_by_deref@PAPAUtagACTMSG@@PAPAPAU1@@std@@YAXAAPAPAUtagACTMSG@@AAPAPAPAU1@@Z
_TEXT	SEGMENT
__Val$ = 8						; size = 4
__Iter$ = 12						; size = 4
??$_Construct_in_place_by_deref@PAPAUtagACTMSG@@PAPAPAU1@@std@@YAXAAPAPAUtagACTMSG@@AAPAPAPAU1@@Z PROC ; std::_Construct_in_place_by_deref<tagACTMSG * *,tagACTMSG * * *>, COMDAT

; 1610 :     noexcept(noexcept(::new (static_cast<void*>(_STD addressof(_Val))) _Ty(*_Iter))) {

  00000	55		 push	 ebp
  00001	8b ec		 mov	 ebp, esp

; 1611 :     ::new (static_cast<void*>(_STD addressof(_Val))) _Ty(*_Iter);

  00003	8b 45 0c	 mov	 eax, DWORD PTR __Iter$[ebp]
  00006	8b 00		 mov	 eax, DWORD PTR [eax]
  00008	8b 08		 mov	 ecx, DWORD PTR [eax]
  0000a	8b 45 08	 mov	 eax, DWORD PTR __Val$[ebp]
  0000d	89 08		 mov	 DWORD PTR [eax], ecx

; 1612 : }

  0000f	5d		 pop	 ebp
  00010	c3		 ret	 0
??$_Construct_in_place_by_deref@PAPAUtagACTMSG@@PAPAPAU1@@std@@YAXAAPAPAUtagACTMSG@@AAPAPAPAU1@@Z ENDP ; std::_Construct_in_place_by_deref<tagACTMSG * *,tagACTMSG * * *>
_TEXT	ENDS
; Function compile flags: /Ogtp
; File C:\Program Files\Microsoft Visual Studio\2022\Professional\VC\Tools\MSVC\14.44.35207\include\xutility
;	COMDAT ??$_Copy_memmove_tail@PAPAPAUtagACTMSG@@@std@@YAPAPAPAUtagACTMSG@@QBDQAPAPAU1@II@Z
_TEXT	SEGMENT
__First_ch$ = 8						; size = 4
__Dest$ = 12						; size = 4
__Byte_count$ = 16					; size = 4
__Object_count$ = 20					; size = 4
??$_Copy_memmove_tail@PAPAPAUtagACTMSG@@@std@@YAPAPAPAUtagACTMSG@@QBDQAPAPAU1@II@Z PROC ; std::_Copy_memmove_tail<tagACTMSG * * *>, COMDAT

; 4747 :     const char* const _First_ch, const _OutCtgIt _Dest, const size_t _Byte_count, const size_t _Object_count) {

  00000	55		 push	 ebp
  00001	8b ec		 mov	 ebp, esp
  00003	56		 push	 esi

; 4748 :     _STL_INTERNAL_CHECK(_Byte_count == _Object_count * sizeof(*_Dest));
; 4749 :     const auto _Dest_ptr = _STD _To_address(_Dest);
; 4750 :     const auto _Dest_ch  = const_cast<char*>(reinterpret_cast<const volatile char*>(_Dest_ptr));
; 4751 :     _CSTD memmove(_Dest_ch, _First_ch, _Byte_count);

  00004	8b 75 0c	 mov	 esi, DWORD PTR __Dest$[ebp]
  00007	57		 push	 edi
  00008	8b 7d 10	 mov	 edi, DWORD PTR __Byte_count$[ebp]
  0000b	57		 push	 edi
  0000c	ff 75 08	 push	 DWORD PTR __First_ch$[ebp]
  0000f	56		 push	 esi
  00010	e8 00 00 00 00	 call	 _memmove
  00015	83 c4 0c	 add	 esp, 12			; 0000000cH

; 4752 :     if constexpr (is_pointer_v<_OutCtgIt>) {
; 4753 :         (void) _Object_count;
; 4754 :         // CodeQL [SM02986] This cast is correct: we're bypassing pointer arithmetic for performance.
; 4755 :         return reinterpret_cast<_OutCtgIt>(_Dest_ch + _Byte_count);

  00018	8d 04 3e	 lea	 eax, DWORD PTR [esi+edi]
  0001b	5f		 pop	 edi
  0001c	5e		 pop	 esi

; 4756 :     } else {
; 4757 :         return _Dest + static_cast<_Iter_diff_t<_OutCtgIt>>(_Object_count);
; 4758 :     }
; 4759 : }

  0001d	5d		 pop	 ebp
  0001e	c3		 ret	 0
??$_Copy_memmove_tail@PAPAPAUtagACTMSG@@@std@@YAPAPAPAUtagACTMSG@@QBDQAPAPAU1@II@Z ENDP ; std::_Copy_memmove_tail<tagACTMSG * * *>
_TEXT	ENDS
; Function compile flags: /Ogtp
; File C:\Program Files\Microsoft Visual Studio\2022\Professional\VC\Tools\MSVC\14.44.35207\include\xmemory
;	COMDAT ??$_Construct_in_place_by_deref@PAPAUtagMAGICATKMSG@@PAPAPAU1@@std@@YAXAAPAPAUtagMAGICATKMSG@@AAPAPAPAU1@@Z
_TEXT	SEGMENT
__Val$ = 8						; size = 4
__Iter$ = 12						; size = 4
??$_Construct_in_place_by_deref@PAPAUtagMAGICATKMSG@@PAPAPAU1@@std@@YAXAAPAPAUtagMAGICATKMSG@@AAPAPAPAU1@@Z PROC ; std::_Construct_in_place_by_deref<tagMAGICATKMSG * *,tagMAGICATKMSG * * *>, COMDAT

; 1610 :     noexcept(noexcept(::new (static_cast<void*>(_STD addressof(_Val))) _Ty(*_Iter))) {

  00000	55		 push	 ebp
  00001	8b ec		 mov	 ebp, esp

; 1611 :     ::new (static_cast<void*>(_STD addressof(_Val))) _Ty(*_Iter);

  00003	8b 45 0c	 mov	 eax, DWORD PTR __Iter$[ebp]
  00006	8b 00		 mov	 eax, DWORD PTR [eax]
  00008	8b 08		 mov	 ecx, DWORD PTR [eax]
  0000a	8b 45 08	 mov	 eax, DWORD PTR __Val$[ebp]
  0000d	89 08		 mov	 DWORD PTR [eax], ecx

; 1612 : }

  0000f	5d		 pop	 ebp
  00010	c3		 ret	 0
??$_Construct_in_place_by_deref@PAPAUtagMAGICATKMSG@@PAPAPAU1@@std@@YAXAAPAPAUtagMAGICATKMSG@@AAPAPAPAU1@@Z ENDP ; std::_Construct_in_place_by_deref<tagMAGICATKMSG * *,tagMAGICATKMSG * * *>
_TEXT	ENDS
; Function compile flags: /Ogtp
; File C:\Program Files\Microsoft Visual Studio\2022\Professional\VC\Tools\MSVC\14.44.35207\include\xutility
;	COMDAT ??$_Copy_memmove_tail@PAPAPAUtagMAGICATKMSG@@@std@@YAPAPAPAUtagMAGICATKMSG@@QBDQAPAPAU1@II@Z
_TEXT	SEGMENT
__First_ch$ = 8						; size = 4
__Dest$ = 12						; size = 4
__Byte_count$ = 16					; size = 4
__Object_count$ = 20					; size = 4
??$_Copy_memmove_tail@PAPAPAUtagMAGICATKMSG@@@std@@YAPAPAPAUtagMAGICATKMSG@@QBDQAPAPAU1@II@Z PROC ; std::_Copy_memmove_tail<tagMAGICATKMSG * * *>, COMDAT

; 4747 :     const char* const _First_ch, const _OutCtgIt _Dest, const size_t _Byte_count, const size_t _Object_count) {

  00000	55		 push	 ebp
  00001	8b ec		 mov	 ebp, esp
  00003	56		 push	 esi

; 4748 :     _STL_INTERNAL_CHECK(_Byte_count == _Object_count * sizeof(*_Dest));
; 4749 :     const auto _Dest_ptr = _STD _To_address(_Dest);
; 4750 :     const auto _Dest_ch  = const_cast<char*>(reinterpret_cast<const volatile char*>(_Dest_ptr));
; 4751 :     _CSTD memmove(_Dest_ch, _First_ch, _Byte_count);

  00004	8b 75 0c	 mov	 esi, DWORD PTR __Dest$[ebp]
  00007	57		 push	 edi
  00008	8b 7d 10	 mov	 edi, DWORD PTR __Byte_count$[ebp]
  0000b	57		 push	 edi
  0000c	ff 75 08	 push	 DWORD PTR __First_ch$[ebp]
  0000f	56		 push	 esi
  00010	e8 00 00 00 00	 call	 _memmove
  00015	83 c4 0c	 add	 esp, 12			; 0000000cH

; 4752 :     if constexpr (is_pointer_v<_OutCtgIt>) {
; 4753 :         (void) _Object_count;
; 4754 :         // CodeQL [SM02986] This cast is correct: we're bypassing pointer arithmetic for performance.
; 4755 :         return reinterpret_cast<_OutCtgIt>(_Dest_ch + _Byte_count);

  00018	8d 04 3e	 lea	 eax, DWORD PTR [esi+edi]
  0001b	5f		 pop	 edi
  0001c	5e		 pop	 esi

; 4756 :     } else {
; 4757 :         return _Dest + static_cast<_Iter_diff_t<_OutCtgIt>>(_Object_count);
; 4758 :     }
; 4759 : }

  0001d	5d		 pop	 ebp
  0001e	c3		 ret	 0
??$_Copy_memmove_tail@PAPAPAUtagMAGICATKMSG@@@std@@YAPAPAPAUtagMAGICATKMSG@@QBDQAPAPAU1@II@Z ENDP ; std::_Copy_memmove_tail<tagMAGICATKMSG * * *>
_TEXT	ENDS
; Function compile flags: /Ogtp
; File C:\Program Files\Microsoft Visual Studio\2022\Professional\VC\Tools\MSVC\14.44.35207\include\xutility
;	COMDAT ??$_Copy_memmove@PAPAPAUtagACTMSG@@PAPAPAU1@@std@@YAPAPAPAUtagACTMSG@@PAPAPAU1@00@Z
_TEXT	SEGMENT
__First$ = 8						; size = 4
__Last$ = 12						; size = 4
__Dest$ = 16						; size = 4
??$_Copy_memmove@PAPAPAUtagACTMSG@@PAPAPAU1@@std@@YAPAPAPAUtagACTMSG@@PAPAPAU1@00@Z PROC ; std::_Copy_memmove<tagACTMSG * * *,tagACTMSG * * *>, COMDAT

; 4762 : _OutCtgIt _Copy_memmove(_CtgIt _First, _CtgIt _Last, _OutCtgIt _Dest) {

  00000	55		 push	 ebp
  00001	8b ec		 mov	 ebp, esp

; 4763 :     _STL_INTERNAL_CHECK(_First <= _Last);
; 4764 :     const auto _First_ptr    = _STD _To_address(_First);
; 4765 :     const auto _Last_ptr     = _STD _To_address(_Last);
; 4766 :     const auto _Object_count = static_cast<size_t>(_Last_ptr - _First_ptr);

  00003	8b 55 08	 mov	 edx, DWORD PTR __First$[ebp]
  00006	8b 4d 0c	 mov	 ecx, DWORD PTR __Last$[ebp]
  00009	2b ca		 sub	 ecx, edx
  0000b	8b c1		 mov	 eax, ecx
  0000d	c1 f8 02	 sar	 eax, 2

; 4767 :     const auto _First_ch     = const_cast<const char*>(reinterpret_cast<const volatile char*>(_First_ptr));
; 4768 :     const auto _Last_ch      = const_cast<const char*>(reinterpret_cast<const volatile char*>(_Last_ptr));
; 4769 :     const auto _Byte_count   = static_cast<size_t>(_Last_ch - _First_ch);
; 4770 :     return _STD _Copy_memmove_tail(_First_ch, _STD move(_Dest), _Byte_count, _Object_count);

  00010	50		 push	 eax
  00011	51		 push	 ecx
  00012	ff 75 10	 push	 DWORD PTR __Dest$[ebp]
  00015	52		 push	 edx
  00016	e8 00 00 00 00	 call	 ??$_Copy_memmove_tail@PAPAPAUtagACTMSG@@@std@@YAPAPAPAUtagACTMSG@@QBDQAPAPAU1@II@Z ; std::_Copy_memmove_tail<tagACTMSG * * *>
  0001b	83 c4 10	 add	 esp, 16			; 00000010H

; 4771 : }

  0001e	5d		 pop	 ebp
  0001f	c3		 ret	 0
??$_Copy_memmove@PAPAPAUtagACTMSG@@PAPAPAU1@@std@@YAPAPAPAUtagACTMSG@@PAPAPAU1@00@Z ENDP ; std::_Copy_memmove<tagACTMSG * * *,tagACTMSG * * *>
_TEXT	ENDS
; Function compile flags: /Ogtp
; File C:\Program Files\Microsoft Visual Studio\2022\Professional\VC\Tools\MSVC\14.44.35207\include\xutility
;	COMDAT ??$_Copy_memmove@PAPAPAUtagMAGICATKMSG@@PAPAPAU1@@std@@YAPAPAPAUtagMAGICATKMSG@@PAPAPAU1@00@Z
_TEXT	SEGMENT
__First$ = 8						; size = 4
__Last$ = 12						; size = 4
__Dest$ = 16						; size = 4
??$_Copy_memmove@PAPAPAUtagMAGICATKMSG@@PAPAPAU1@@std@@YAPAPAPAUtagMAGICATKMSG@@PAPAPAU1@00@Z PROC ; std::_Copy_memmove<tagMAGICATKMSG * * *,tagMAGICATKMSG * * *>, COMDAT

; 4762 : _OutCtgIt _Copy_memmove(_CtgIt _First, _CtgIt _Last, _OutCtgIt _Dest) {

  00000	55		 push	 ebp
  00001	8b ec		 mov	 ebp, esp

; 4763 :     _STL_INTERNAL_CHECK(_First <= _Last);
; 4764 :     const auto _First_ptr    = _STD _To_address(_First);
; 4765 :     const auto _Last_ptr     = _STD _To_address(_Last);
; 4766 :     const auto _Object_count = static_cast<size_t>(_Last_ptr - _First_ptr);

  00003	8b 55 08	 mov	 edx, DWORD PTR __First$[ebp]
  00006	8b 4d 0c	 mov	 ecx, DWORD PTR __Last$[ebp]
  00009	2b ca		 sub	 ecx, edx
  0000b	8b c1		 mov	 eax, ecx
  0000d	c1 f8 02	 sar	 eax, 2

; 4767 :     const auto _First_ch     = const_cast<const char*>(reinterpret_cast<const volatile char*>(_First_ptr));
; 4768 :     const auto _Last_ch      = const_cast<const char*>(reinterpret_cast<const volatile char*>(_Last_ptr));
; 4769 :     const auto _Byte_count   = static_cast<size_t>(_Last_ch - _First_ch);
; 4770 :     return _STD _Copy_memmove_tail(_First_ch, _STD move(_Dest), _Byte_count, _Object_count);

  00010	50		 push	 eax
  00011	51		 push	 ecx
  00012	ff 75 10	 push	 DWORD PTR __Dest$[ebp]
  00015	52		 push	 edx
  00016	e8 00 00 00 00	 call	 ??$_Copy_memmove_tail@PAPAPAUtagMAGICATKMSG@@@std@@YAPAPAPAUtagMAGICATKMSG@@QBDQAPAPAU1@II@Z ; std::_Copy_memmove_tail<tagMAGICATKMSG * * *>
  0001b	83 c4 10	 add	 esp, 16			; 00000010H

; 4771 : }

  0001e	5d		 pop	 ebp
  0001f	c3		 ret	 0
??$_Copy_memmove@PAPAPAUtagMAGICATKMSG@@PAPAPAU1@@std@@YAPAPAPAUtagMAGICATKMSG@@PAPAPAU1@00@Z ENDP ; std::_Copy_memmove<tagMAGICATKMSG * * *,tagMAGICATKMSG * * *>
_TEXT	ENDS
; Function compile flags: /Ogtp
; File C:\Program Files\Microsoft Visual Studio\2022\Professional\VC\Tools\MSVC\14.44.35207\include\xmemory
;	COMDAT ??$_Zero_range@PAPAPAUtagACTMSG@@@std@@YAPAPAPAUtagACTMSG@@QAPAPAU1@0@Z
_TEXT	SEGMENT
__First$ = 8						; size = 4
__Last$ = 12						; size = 4
??$_Zero_range@PAPAPAUtagACTMSG@@@std@@YAPAPAPAUtagACTMSG@@QAPAPAU1@0@Z PROC ; std::_Zero_range<tagACTMSG * * *>, COMDAT

; 2069 : _Ptr _Zero_range(const _Ptr _First, const _Ptr _Last) { // fill [_First, _Last) with zeroes

  00000	55		 push	 ebp
  00001	8b ec		 mov	 ebp, esp

; 2070 :     char* const _First_ch = reinterpret_cast<char*>(_STD _To_address(_First));
; 2071 :     char* const _Last_ch  = reinterpret_cast<char*>(_STD _To_address(_Last));
; 2072 :     _CSTD memset(_First_ch, 0, static_cast<size_t>(_Last_ch - _First_ch));

  00003	8b 55 08	 mov	 edx, DWORD PTR __First$[ebp]
  00006	8b 4d 0c	 mov	 ecx, DWORD PTR __Last$[ebp]
  00009	2b ca		 sub	 ecx, edx
  0000b	51		 push	 ecx
  0000c	6a 00		 push	 0
  0000e	52		 push	 edx
  0000f	e8 00 00 00 00	 call	 _memset

; 2073 :     return _Last;

  00014	8b 45 0c	 mov	 eax, DWORD PTR __Last$[ebp]
  00017	83 c4 0c	 add	 esp, 12			; 0000000cH

; 2074 : }

  0001a	5d		 pop	 ebp
  0001b	c3		 ret	 0
??$_Zero_range@PAPAPAUtagACTMSG@@@std@@YAPAPAPAUtagACTMSG@@QAPAPAU1@0@Z ENDP ; std::_Zero_range<tagACTMSG * * *>
_TEXT	ENDS
; Function compile flags: /Ogtp
; File C:\Program Files\Microsoft Visual Studio\2022\Professional\VC\Tools\MSVC\14.44.35207\include\xmemory
;	COMDAT ??$_Uninitialized_copy_unchecked@PAPAPAUtagACTMSG@@PAPAPAU1@@std@@YAPAPAPAUtagACTMSG@@PAPAPAU1@QAPAPAU1@0@Z
_TEXT	SEGMENT
__First$ = 8						; size = 4
__Last$ = 12						; size = 4
__Dest$ = 16						; size = 4
??$_Uninitialized_copy_unchecked@PAPAPAUtagACTMSG@@PAPAPAU1@@std@@YAPAPAPAUtagACTMSG@@PAPAPAU1@QAPAPAU1@0@Z PROC ; std::_Uninitialized_copy_unchecked<tagACTMSG * * *,tagACTMSG * * *>, COMDAT

; 1945 : _NoThrowFwdIt _Uninitialized_copy_unchecked(_InIt _First, const _InIt _Last, _NoThrowFwdIt _Dest) {

  00000	55		 push	 ebp
  00001	8b ec		 mov	 ebp, esp

; 1953 :         }
; 1954 :     }
; 1955 : 
; 1956 :     _Uninitialized_backout<_NoThrowFwdIt> _Backout{_Dest};
; 1957 :     for (; _First != _Last; ++_First) {
; 1958 :         _Backout._Emplace_back_deref(_First);
; 1959 :     }
; 1960 : 
; 1961 :     return _Backout._Release();
; 1962 : }

  00003	5d		 pop	 ebp

; 1946 :     // copy [_First, _Last) to raw [_Dest, ...)
; 1947 :     if constexpr (_Iter_copy_cat<_InIt, _NoThrowFwdIt>::_Bitcopy_constructible) {
; 1948 : #if 0 // TRANSITION, _HAS_CXX26
; 1949 :         if (!_STD is_constant_evaluated())
; 1950 : #endif // _HAS_CXX26
; 1951 :         {
; 1952 :             return _STD _Copy_memmove(_First, _Last, _Dest);

  00004	e9 00 00 00 00	 jmp	 ??$_Copy_memmove@PAPAPAUtagACTMSG@@PAPAPAU1@@std@@YAPAPAPAUtagACTMSG@@PAPAPAU1@00@Z ; std::_Copy_memmove<tagACTMSG * * *,tagACTMSG * * *>
??$_Uninitialized_copy_unchecked@PAPAPAUtagACTMSG@@PAPAPAU1@@std@@YAPAPAPAUtagACTMSG@@PAPAPAU1@QAPAPAU1@0@Z ENDP ; std::_Uninitialized_copy_unchecked<tagACTMSG * * *,tagACTMSG * * *>
_TEXT	ENDS
; Function compile flags: /Ogtp
; File C:\Program Files\Microsoft Visual Studio\2022\Professional\VC\Tools\MSVC\14.44.35207\include\xmemory
;	COMDAT ??$_Zero_range@PAPAPAUtagMAGICATKMSG@@@std@@YAPAPAPAUtagMAGICATKMSG@@QAPAPAU1@0@Z
_TEXT	SEGMENT
__First$ = 8						; size = 4
__Last$ = 12						; size = 4
??$_Zero_range@PAPAPAUtagMAGICATKMSG@@@std@@YAPAPAPAUtagMAGICATKMSG@@QAPAPAU1@0@Z PROC ; std::_Zero_range<tagMAGICATKMSG * * *>, COMDAT

; 2069 : _Ptr _Zero_range(const _Ptr _First, const _Ptr _Last) { // fill [_First, _Last) with zeroes

  00000	55		 push	 ebp
  00001	8b ec		 mov	 ebp, esp

; 2070 :     char* const _First_ch = reinterpret_cast<char*>(_STD _To_address(_First));
; 2071 :     char* const _Last_ch  = reinterpret_cast<char*>(_STD _To_address(_Last));
; 2072 :     _CSTD memset(_First_ch, 0, static_cast<size_t>(_Last_ch - _First_ch));

  00003	8b 55 08	 mov	 edx, DWORD PTR __First$[ebp]
  00006	8b 4d 0c	 mov	 ecx, DWORD PTR __Last$[ebp]
  00009	2b ca		 sub	 ecx, edx
  0000b	51		 push	 ecx
  0000c	6a 00		 push	 0
  0000e	52		 push	 edx
  0000f	e8 00 00 00 00	 call	 _memset

; 2073 :     return _Last;

  00014	8b 45 0c	 mov	 eax, DWORD PTR __Last$[ebp]
  00017	83 c4 0c	 add	 esp, 12			; 0000000cH

; 2074 : }

  0001a	5d		 pop	 ebp
  0001b	c3		 ret	 0
??$_Zero_range@PAPAPAUtagMAGICATKMSG@@@std@@YAPAPAPAUtagMAGICATKMSG@@QAPAPAU1@0@Z ENDP ; std::_Zero_range<tagMAGICATKMSG * * *>
_TEXT	ENDS
; Function compile flags: /Ogtp
; File C:\Program Files\Microsoft Visual Studio\2022\Professional\VC\Tools\MSVC\14.44.35207\include\xmemory
;	COMDAT ??$_Uninitialized_copy_unchecked@PAPAPAUtagMAGICATKMSG@@PAPAPAU1@@std@@YAPAPAPAUtagMAGICATKMSG@@PAPAPAU1@QAPAPAU1@0@Z
_TEXT	SEGMENT
__First$ = 8						; size = 4
__Last$ = 12						; size = 4
__Dest$ = 16						; size = 4
??$_Uninitialized_copy_unchecked@PAPAPAUtagMAGICATKMSG@@PAPAPAU1@@std@@YAPAPAPAUtagMAGICATKMSG@@PAPAPAU1@QAPAPAU1@0@Z PROC ; std::_Uninitialized_copy_unchecked<tagMAGICATKMSG * * *,tagMAGICATKMSG * * *>, COMDAT

; 1945 : _NoThrowFwdIt _Uninitialized_copy_unchecked(_InIt _First, const _InIt _Last, _NoThrowFwdIt _Dest) {

  00000	55		 push	 ebp
  00001	8b ec		 mov	 ebp, esp

; 1953 :         }
; 1954 :     }
; 1955 : 
; 1956 :     _Uninitialized_backout<_NoThrowFwdIt> _Backout{_Dest};
; 1957 :     for (; _First != _Last; ++_First) {
; 1958 :         _Backout._Emplace_back_deref(_First);
; 1959 :     }
; 1960 : 
; 1961 :     return _Backout._Release();
; 1962 : }

  00003	5d		 pop	 ebp

; 1946 :     // copy [_First, _Last) to raw [_Dest, ...)
; 1947 :     if constexpr (_Iter_copy_cat<_InIt, _NoThrowFwdIt>::_Bitcopy_constructible) {
; 1948 : #if 0 // TRANSITION, _HAS_CXX26
; 1949 :         if (!_STD is_constant_evaluated())
; 1950 : #endif // _HAS_CXX26
; 1951 :         {
; 1952 :             return _STD _Copy_memmove(_First, _Last, _Dest);

  00004	e9 00 00 00 00	 jmp	 ??$_Copy_memmove@PAPAPAUtagMAGICATKMSG@@PAPAPAU1@@std@@YAPAPAPAUtagMAGICATKMSG@@PAPAPAU1@00@Z ; std::_Copy_memmove<tagMAGICATKMSG * * *,tagMAGICATKMSG * * *>
??$_Uninitialized_copy_unchecked@PAPAPAUtagMAGICATKMSG@@PAPAPAU1@@std@@YAPAPAPAUtagMAGICATKMSG@@PAPAPAU1@QAPAPAU1@0@Z ENDP ; std::_Uninitialized_copy_unchecked<tagMAGICATKMSG * * *,tagMAGICATKMSG * * *>
_TEXT	ENDS
; Function compile flags: /Ogtp
; File C:\Program Files\Microsoft Visual Studio\2022\Professional\VC\Tools\MSVC\14.44.35207\include\xmemory
;	COMDAT ??$_Uninitialized_value_construct_n_unchecked1@PAPAPAUtagACTMSG@@I@std@@YAPAPAPAUtagACTMSG@@PAPAPAU1@I@Z
_TEXT	SEGMENT
__UFirst$ = 8						; size = 4
__Count$ = 12						; size = 4
??$_Uninitialized_value_construct_n_unchecked1@PAPAPAUtagACTMSG@@I@std@@YAPAPAPAUtagACTMSG@@PAPAPAU1@I@Z PROC ; std::_Uninitialized_value_construct_n_unchecked1<tagACTMSG * * *,unsigned int>, COMDAT

; 2101 : _NoThrowFwdIt _Uninitialized_value_construct_n_unchecked1(_NoThrowFwdIt _UFirst, _Diff _Count) {

  00000	55		 push	 ebp
  00001	8b ec		 mov	 ebp, esp

; 2102 :     // value-initialize all elements in [_UFirst, _UFirst + _Count)
; 2103 :     _STL_INTERNAL_CHECK(_Count >= 0);
; 2104 :     if constexpr (_Use_memset_value_construct_v<_NoThrowFwdIt>) {
; 2105 :         return _STD _Zero_range(_UFirst, _UFirst + _Count);

  00003	8b 4d 08	 mov	 ecx, DWORD PTR __UFirst$[ebp]
  00006	8b 45 0c	 mov	 eax, DWORD PTR __Count$[ebp]
  00009	8d 04 81	 lea	 eax, DWORD PTR [ecx+eax*4]
  0000c	89 45 0c	 mov	 DWORD PTR __Count$[ebp], eax
  0000f	89 4d 08	 mov	 DWORD PTR __UFirst$[ebp], ecx

; 2106 :     } else {
; 2107 :         _Uninitialized_backout<_NoThrowFwdIt> _Backout{_UFirst};
; 2108 :         for (; 0 < _Count; --_Count) {
; 2109 :             _Backout._Emplace_back();
; 2110 :         }
; 2111 : 
; 2112 :         return _Backout._Release();
; 2113 :     }
; 2114 : }

  00012	5d		 pop	 ebp

; 2102 :     // value-initialize all elements in [_UFirst, _UFirst + _Count)
; 2103 :     _STL_INTERNAL_CHECK(_Count >= 0);
; 2104 :     if constexpr (_Use_memset_value_construct_v<_NoThrowFwdIt>) {
; 2105 :         return _STD _Zero_range(_UFirst, _UFirst + _Count);

  00013	e9 00 00 00 00	 jmp	 ??$_Zero_range@PAPAPAUtagACTMSG@@@std@@YAPAPAPAUtagACTMSG@@QAPAPAU1@0@Z ; std::_Zero_range<tagACTMSG * * *>
??$_Uninitialized_value_construct_n_unchecked1@PAPAPAUtagACTMSG@@I@std@@YAPAPAPAUtagACTMSG@@PAPAPAU1@I@Z ENDP ; std::_Uninitialized_value_construct_n_unchecked1<tagACTMSG * * *,unsigned int>
_TEXT	ENDS
; Function compile flags: /Ogtp
; File C:\Program Files\Microsoft Visual Studio\2022\Professional\VC\Tools\MSVC\14.44.35207\include\xmemory
;	COMDAT ??$uninitialized_copy@PAPAPAUtagACTMSG@@PAPAPAU1@@std@@YAPAPAPAUtagACTMSG@@QAPAPAU1@0PAPAPAU1@@Z
_TEXT	SEGMENT
__First$ = 8						; size = 4
__Last$ = 12						; size = 4
__Dest$ = 16						; size = 4
??$uninitialized_copy@PAPAPAUtagACTMSG@@PAPAPAU1@@std@@YAPAPAPAUtagACTMSG@@QAPAPAU1@0PAPAPAU1@@Z PROC ; std::uninitialized_copy<tagACTMSG * * *,tagACTMSG * * *>, COMDAT

; 1965 : _NoThrowFwdIt uninitialized_copy(const _InIt _First, const _InIt _Last, _NoThrowFwdIt _Dest) {

  00000	55		 push	 ebp
  00001	8b ec		 mov	 ebp, esp

; 1972 :     return _Dest;
; 1973 : }

  00003	5d		 pop	 ebp

; 1966 :     // copy [_First, _Last) to raw [_Dest, ...)
; 1967 :     _STD _Adl_verify_range(_First, _Last);
; 1968 :     auto _UFirst      = _STD _Get_unwrapped(_First);
; 1969 :     const auto _ULast = _STD _Get_unwrapped(_Last);
; 1970 :     auto _UDest       = _STD _Get_unwrapped_n(_Dest, _STD _Idl_distance<_InIt>(_UFirst, _ULast));
; 1971 :     _STD _Seek_wrapped(_Dest, _STD _Uninitialized_copy_unchecked(_UFirst, _ULast, _UDest));

  00004	e9 00 00 00 00	 jmp	 ??$_Uninitialized_copy_unchecked@PAPAPAUtagACTMSG@@PAPAPAU1@@std@@YAPAPAPAUtagACTMSG@@PAPAPAU1@QAPAPAU1@0@Z ; std::_Uninitialized_copy_unchecked<tagACTMSG * * *,tagACTMSG * * *>
??$uninitialized_copy@PAPAPAUtagACTMSG@@PAPAPAU1@@std@@YAPAPAPAUtagACTMSG@@QAPAPAU1@0PAPAPAU1@@Z ENDP ; std::uninitialized_copy<tagACTMSG * * *,tagACTMSG * * *>
_TEXT	ENDS
; Function compile flags: /Ogtp
; File C:\Program Files\Microsoft Visual Studio\2022\Professional\VC\Tools\MSVC\14.44.35207\include\xmemory
;	COMDAT ??$_Uninitialized_value_construct_n_unchecked1@PAPAPAUtagMAGICATKMSG@@I@std@@YAPAPAPAUtagMAGICATKMSG@@PAPAPAU1@I@Z
_TEXT	SEGMENT
__UFirst$ = 8						; size = 4
__Count$ = 12						; size = 4
??$_Uninitialized_value_construct_n_unchecked1@PAPAPAUtagMAGICATKMSG@@I@std@@YAPAPAPAUtagMAGICATKMSG@@PAPAPAU1@I@Z PROC ; std::_Uninitialized_value_construct_n_unchecked1<tagMAGICATKMSG * * *,unsigned int>, COMDAT

; 2101 : _NoThrowFwdIt _Uninitialized_value_construct_n_unchecked1(_NoThrowFwdIt _UFirst, _Diff _Count) {

  00000	55		 push	 ebp
  00001	8b ec		 mov	 ebp, esp

; 2102 :     // value-initialize all elements in [_UFirst, _UFirst + _Count)
; 2103 :     _STL_INTERNAL_CHECK(_Count >= 0);
; 2104 :     if constexpr (_Use_memset_value_construct_v<_NoThrowFwdIt>) {
; 2105 :         return _STD _Zero_range(_UFirst, _UFirst + _Count);

  00003	8b 4d 08	 mov	 ecx, DWORD PTR __UFirst$[ebp]
  00006	8b 45 0c	 mov	 eax, DWORD PTR __Count$[ebp]
  00009	8d 04 81	 lea	 eax, DWORD PTR [ecx+eax*4]
  0000c	89 45 0c	 mov	 DWORD PTR __Count$[ebp], eax
  0000f	89 4d 08	 mov	 DWORD PTR __UFirst$[ebp], ecx

; 2106 :     } else {
; 2107 :         _Uninitialized_backout<_NoThrowFwdIt> _Backout{_UFirst};
; 2108 :         for (; 0 < _Count; --_Count) {
; 2109 :             _Backout._Emplace_back();
; 2110 :         }
; 2111 : 
; 2112 :         return _Backout._Release();
; 2113 :     }
; 2114 : }

  00012	5d		 pop	 ebp

; 2102 :     // value-initialize all elements in [_UFirst, _UFirst + _Count)
; 2103 :     _STL_INTERNAL_CHECK(_Count >= 0);
; 2104 :     if constexpr (_Use_memset_value_construct_v<_NoThrowFwdIt>) {
; 2105 :         return _STD _Zero_range(_UFirst, _UFirst + _Count);

  00013	e9 00 00 00 00	 jmp	 ??$_Zero_range@PAPAPAUtagMAGICATKMSG@@@std@@YAPAPAPAUtagMAGICATKMSG@@QAPAPAU1@0@Z ; std::_Zero_range<tagMAGICATKMSG * * *>
??$_Uninitialized_value_construct_n_unchecked1@PAPAPAUtagMAGICATKMSG@@I@std@@YAPAPAPAUtagMAGICATKMSG@@PAPAPAU1@I@Z ENDP ; std::_Uninitialized_value_construct_n_unchecked1<tagMAGICATKMSG * * *,unsigned int>
_TEXT	ENDS
; Function compile flags: /Ogtp
; File C:\Program Files\Microsoft Visual Studio\2022\Professional\VC\Tools\MSVC\14.44.35207\include\xmemory
;	COMDAT ??$uninitialized_copy@PAPAPAUtagMAGICATKMSG@@PAPAPAU1@@std@@YAPAPAPAUtagMAGICATKMSG@@QAPAPAU1@0PAPAPAU1@@Z
_TEXT	SEGMENT
__First$ = 8						; size = 4
__Last$ = 12						; size = 4
__Dest$ = 16						; size = 4
??$uninitialized_copy@PAPAPAUtagMAGICATKMSG@@PAPAPAU1@@std@@YAPAPAPAUtagMAGICATKMSG@@QAPAPAU1@0PAPAPAU1@@Z PROC ; std::uninitialized_copy<tagMAGICATKMSG * * *,tagMAGICATKMSG * * *>, COMDAT

; 1965 : _NoThrowFwdIt uninitialized_copy(const _InIt _First, const _InIt _Last, _NoThrowFwdIt _Dest) {

  00000	55		 push	 ebp
  00001	8b ec		 mov	 ebp, esp

; 1972 :     return _Dest;
; 1973 : }

  00003	5d		 pop	 ebp

; 1966 :     // copy [_First, _Last) to raw [_Dest, ...)
; 1967 :     _STD _Adl_verify_range(_First, _Last);
; 1968 :     auto _UFirst      = _STD _Get_unwrapped(_First);
; 1969 :     const auto _ULast = _STD _Get_unwrapped(_Last);
; 1970 :     auto _UDest       = _STD _Get_unwrapped_n(_Dest, _STD _Idl_distance<_InIt>(_UFirst, _ULast));
; 1971 :     _STD _Seek_wrapped(_Dest, _STD _Uninitialized_copy_unchecked(_UFirst, _ULast, _UDest));

  00004	e9 00 00 00 00	 jmp	 ??$_Uninitialized_copy_unchecked@PAPAPAUtagMAGICATKMSG@@PAPAPAU1@@std@@YAPAPAPAUtagMAGICATKMSG@@PAPAPAU1@QAPAPAU1@0@Z ; std::_Uninitialized_copy_unchecked<tagMAGICATKMSG * * *,tagMAGICATKMSG * * *>
??$uninitialized_copy@PAPAPAUtagMAGICATKMSG@@PAPAPAU1@@std@@YAPAPAPAUtagMAGICATKMSG@@QAPAPAU1@0PAPAPAU1@@Z ENDP ; std::uninitialized_copy<tagMAGICATKMSG * * *,tagMAGICATKMSG * * *>
_TEXT	ENDS
; Function compile flags: /Ogtp
; File C:\Program Files\Microsoft Visual Studio\2022\Professional\VC\Tools\MSVC\14.44.35207\include\xutility
;	COMDAT ??$_Copy_memmove_tail@PAK@std@@YAPAKQBDQAKII@Z
_TEXT	SEGMENT
__First_ch$ = 8						; size = 4
__Dest$ = 12						; size = 4
__Byte_count$ = 16					; size = 4
__Object_count$ = 20					; size = 4
??$_Copy_memmove_tail@PAK@std@@YAPAKQBDQAKII@Z PROC	; std::_Copy_memmove_tail<unsigned long *>, COMDAT

; 4747 :     const char* const _First_ch, const _OutCtgIt _Dest, const size_t _Byte_count, const size_t _Object_count) {

  00000	55		 push	 ebp
  00001	8b ec		 mov	 ebp, esp
  00003	56		 push	 esi

; 4748 :     _STL_INTERNAL_CHECK(_Byte_count == _Object_count * sizeof(*_Dest));
; 4749 :     const auto _Dest_ptr = _STD _To_address(_Dest);
; 4750 :     const auto _Dest_ch  = const_cast<char*>(reinterpret_cast<const volatile char*>(_Dest_ptr));
; 4751 :     _CSTD memmove(_Dest_ch, _First_ch, _Byte_count);

  00004	8b 75 0c	 mov	 esi, DWORD PTR __Dest$[ebp]
  00007	57		 push	 edi
  00008	8b 7d 10	 mov	 edi, DWORD PTR __Byte_count$[ebp]
  0000b	57		 push	 edi
  0000c	ff 75 08	 push	 DWORD PTR __First_ch$[ebp]
  0000f	56		 push	 esi
  00010	e8 00 00 00 00	 call	 _memmove
  00015	83 c4 0c	 add	 esp, 12			; 0000000cH

; 4752 :     if constexpr (is_pointer_v<_OutCtgIt>) {
; 4753 :         (void) _Object_count;
; 4754 :         // CodeQL [SM02986] This cast is correct: we're bypassing pointer arithmetic for performance.
; 4755 :         return reinterpret_cast<_OutCtgIt>(_Dest_ch + _Byte_count);

  00018	8d 04 3e	 lea	 eax, DWORD PTR [esi+edi]
  0001b	5f		 pop	 edi
  0001c	5e		 pop	 esi

; 4756 :     } else {
; 4757 :         return _Dest + static_cast<_Iter_diff_t<_OutCtgIt>>(_Object_count);
; 4758 :     }
; 4759 : }

  0001d	5d		 pop	 ebp
  0001e	c3		 ret	 0
??$_Copy_memmove_tail@PAK@std@@YAPAKQBDQAKII@Z ENDP	; std::_Copy_memmove_tail<unsigned long *>
_TEXT	ENDS
; Function compile flags: /Ogtp
; File C:\Program Files\Microsoft Visual Studio\2022\Professional\VC\Tools\MSVC\14.44.35207\include\xutility
;	COMDAT ??$_Copy_memmove_tail@PAU_NPC_BUFF_SKILL@@@std@@YAPAU_NPC_BUFF_SKILL@@QBDQAU1@II@Z
_TEXT	SEGMENT
__First_ch$ = 8						; size = 4
__Dest$ = 12						; size = 4
__Byte_count$ = 16					; size = 4
__Object_count$ = 20					; size = 4
??$_Copy_memmove_tail@PAU_NPC_BUFF_SKILL@@@std@@YAPAU_NPC_BUFF_SKILL@@QBDQAU1@II@Z PROC ; std::_Copy_memmove_tail<_NPC_BUFF_SKILL *>, COMDAT

; 4747 :     const char* const _First_ch, const _OutCtgIt _Dest, const size_t _Byte_count, const size_t _Object_count) {

  00000	55		 push	 ebp
  00001	8b ec		 mov	 ebp, esp
  00003	56		 push	 esi

; 4748 :     _STL_INTERNAL_CHECK(_Byte_count == _Object_count * sizeof(*_Dest));
; 4749 :     const auto _Dest_ptr = _STD _To_address(_Dest);
; 4750 :     const auto _Dest_ch  = const_cast<char*>(reinterpret_cast<const volatile char*>(_Dest_ptr));
; 4751 :     _CSTD memmove(_Dest_ch, _First_ch, _Byte_count);

  00004	8b 75 0c	 mov	 esi, DWORD PTR __Dest$[ebp]
  00007	57		 push	 edi
  00008	8b 7d 10	 mov	 edi, DWORD PTR __Byte_count$[ebp]
  0000b	57		 push	 edi
  0000c	ff 75 08	 push	 DWORD PTR __First_ch$[ebp]
  0000f	56		 push	 esi
  00010	e8 00 00 00 00	 call	 _memmove
  00015	83 c4 0c	 add	 esp, 12			; 0000000cH

; 4752 :     if constexpr (is_pointer_v<_OutCtgIt>) {
; 4753 :         (void) _Object_count;
; 4754 :         // CodeQL [SM02986] This cast is correct: we're bypassing pointer arithmetic for performance.
; 4755 :         return reinterpret_cast<_OutCtgIt>(_Dest_ch + _Byte_count);

  00018	8d 04 3e	 lea	 eax, DWORD PTR [esi+edi]
  0001b	5f		 pop	 edi
  0001c	5e		 pop	 esi

; 4756 :     } else {
; 4757 :         return _Dest + static_cast<_Iter_diff_t<_OutCtgIt>>(_Object_count);
; 4758 :     }
; 4759 : }

  0001d	5d		 pop	 ebp
  0001e	c3		 ret	 0
??$_Copy_memmove_tail@PAU_NPC_BUFF_SKILL@@@std@@YAPAU_NPC_BUFF_SKILL@@QBDQAU1@II@Z ENDP ; std::_Copy_memmove_tail<_NPC_BUFF_SKILL *>
_TEXT	ENDS
; Function compile flags: /Ogtp
; File C:\Program Files\Microsoft Visual Studio\2022\Professional\VC\Tools\MSVC\14.44.35207\include\xutility
;	COMDAT ??$_Copy_memmove_tail@PAU__REQUESTGUILD@CGuildCombat@@@std@@YAPAU__REQUESTGUILD@CGuildCombat@@QBDQAU12@II@Z
_TEXT	SEGMENT
__First_ch$ = 8						; size = 4
__Dest$ = 12						; size = 4
__Byte_count$ = 16					; size = 4
__Object_count$ = 20					; size = 4
??$_Copy_memmove_tail@PAU__REQUESTGUILD@CGuildCombat@@@std@@YAPAU__REQUESTGUILD@CGuildCombat@@QBDQAU12@II@Z PROC ; std::_Copy_memmove_tail<CGuildCombat::__REQUESTGUILD *>, COMDAT

; 4747 :     const char* const _First_ch, const _OutCtgIt _Dest, const size_t _Byte_count, const size_t _Object_count) {

  00000	55		 push	 ebp
  00001	8b ec		 mov	 ebp, esp
  00003	56		 push	 esi

; 4748 :     _STL_INTERNAL_CHECK(_Byte_count == _Object_count * sizeof(*_Dest));
; 4749 :     const auto _Dest_ptr = _STD _To_address(_Dest);
; 4750 :     const auto _Dest_ch  = const_cast<char*>(reinterpret_cast<const volatile char*>(_Dest_ptr));
; 4751 :     _CSTD memmove(_Dest_ch, _First_ch, _Byte_count);

  00004	8b 75 0c	 mov	 esi, DWORD PTR __Dest$[ebp]
  00007	57		 push	 edi
  00008	8b 7d 10	 mov	 edi, DWORD PTR __Byte_count$[ebp]
  0000b	57		 push	 edi
  0000c	ff 75 08	 push	 DWORD PTR __First_ch$[ebp]
  0000f	56		 push	 esi
  00010	e8 00 00 00 00	 call	 _memmove
  00015	83 c4 0c	 add	 esp, 12			; 0000000cH

; 4752 :     if constexpr (is_pointer_v<_OutCtgIt>) {
; 4753 :         (void) _Object_count;
; 4754 :         // CodeQL [SM02986] This cast is correct: we're bypassing pointer arithmetic for performance.
; 4755 :         return reinterpret_cast<_OutCtgIt>(_Dest_ch + _Byte_count);

  00018	8d 04 3e	 lea	 eax, DWORD PTR [esi+edi]
  0001b	5f		 pop	 edi
  0001c	5e		 pop	 esi

; 4756 :     } else {
; 4757 :         return _Dest + static_cast<_Iter_diff_t<_OutCtgIt>>(_Object_count);
; 4758 :     }
; 4759 : }

  0001d	5d		 pop	 ebp
  0001e	c3		 ret	 0
??$_Copy_memmove_tail@PAU__REQUESTGUILD@CGuildCombat@@@std@@YAPAU__REQUESTGUILD@CGuildCombat@@QBDQAU12@II@Z ENDP ; std::_Copy_memmove_tail<CGuildCombat::__REQUESTGUILD *>
_TEXT	ENDS
; Function compile flags: /Ogtp
; File C:\Program Files\Microsoft Visual Studio\2022\Professional\VC\Tools\MSVC\14.44.35207\include\xutility
;	COMDAT ??$_Copy_memmove@PAKPAK@std@@YAPAKPAK00@Z
_TEXT	SEGMENT
__First$ = 8						; size = 4
__Last$ = 12						; size = 4
__Dest$ = 16						; size = 4
??$_Copy_memmove@PAKPAK@std@@YAPAKPAK00@Z PROC		; std::_Copy_memmove<unsigned long *,unsigned long *>, COMDAT

; 4762 : _OutCtgIt _Copy_memmove(_CtgIt _First, _CtgIt _Last, _OutCtgIt _Dest) {

  00000	55		 push	 ebp
  00001	8b ec		 mov	 ebp, esp

; 4763 :     _STL_INTERNAL_CHECK(_First <= _Last);
; 4764 :     const auto _First_ptr    = _STD _To_address(_First);
; 4765 :     const auto _Last_ptr     = _STD _To_address(_Last);
; 4766 :     const auto _Object_count = static_cast<size_t>(_Last_ptr - _First_ptr);

  00003	8b 55 08	 mov	 edx, DWORD PTR __First$[ebp]
  00006	8b 4d 0c	 mov	 ecx, DWORD PTR __Last$[ebp]
  00009	2b ca		 sub	 ecx, edx
  0000b	8b c1		 mov	 eax, ecx
  0000d	c1 f8 02	 sar	 eax, 2

; 4767 :     const auto _First_ch     = const_cast<const char*>(reinterpret_cast<const volatile char*>(_First_ptr));
; 4768 :     const auto _Last_ch      = const_cast<const char*>(reinterpret_cast<const volatile char*>(_Last_ptr));
; 4769 :     const auto _Byte_count   = static_cast<size_t>(_Last_ch - _First_ch);
; 4770 :     return _STD _Copy_memmove_tail(_First_ch, _STD move(_Dest), _Byte_count, _Object_count);

  00010	50		 push	 eax
  00011	51		 push	 ecx
  00012	ff 75 10	 push	 DWORD PTR __Dest$[ebp]
  00015	52		 push	 edx
  00016	e8 00 00 00 00	 call	 ??$_Copy_memmove_tail@PAK@std@@YAPAKQBDQAKII@Z ; std::_Copy_memmove_tail<unsigned long *>
  0001b	83 c4 10	 add	 esp, 16			; 00000010H

; 4771 : }

  0001e	5d		 pop	 ebp
  0001f	c3		 ret	 0
??$_Copy_memmove@PAKPAK@std@@YAPAKPAK00@Z ENDP		; std::_Copy_memmove<unsigned long *,unsigned long *>
_TEXT	ENDS
; Function compile flags: /Ogtp
; File C:\Program Files\Microsoft Visual Studio\2022\Professional\VC\Tools\MSVC\14.44.35207\include\xutility
;	COMDAT ??$_Copy_memmove@PAU_NPC_BUFF_SKILL@@PAU1@@std@@YAPAU_NPC_BUFF_SKILL@@PAU1@00@Z
_TEXT	SEGMENT
__First$ = 8						; size = 4
__Last$ = 12						; size = 4
__Dest$ = 16						; size = 4
??$_Copy_memmove@PAU_NPC_BUFF_SKILL@@PAU1@@std@@YAPAU_NPC_BUFF_SKILL@@PAU1@00@Z PROC ; std::_Copy_memmove<_NPC_BUFF_SKILL *,_NPC_BUFF_SKILL *>, COMDAT

; 4762 : _OutCtgIt _Copy_memmove(_CtgIt _First, _CtgIt _Last, _OutCtgIt _Dest) {

  00000	55		 push	 ebp
  00001	8b ec		 mov	 ebp, esp

; 4763 :     _STL_INTERNAL_CHECK(_First <= _Last);
; 4764 :     const auto _First_ptr    = _STD _To_address(_First);
; 4765 :     const auto _Last_ptr     = _STD _To_address(_Last);
; 4766 :     const auto _Object_count = static_cast<size_t>(_Last_ptr - _First_ptr);

  00003	8b 4d 0c	 mov	 ecx, DWORD PTR __Last$[ebp]
  00006	b8 67 66 66 66	 mov	 eax, 1717986919		; 66666667H
  0000b	2b 4d 08	 sub	 ecx, DWORD PTR __First$[ebp]
  0000e	f7 e9		 imul	 ecx
  00010	c1 fa 03	 sar	 edx, 3
  00013	8b c2		 mov	 eax, edx
  00015	c1 e8 1f	 shr	 eax, 31			; 0000001fH
  00018	03 c2		 add	 eax, edx

; 4767 :     const auto _First_ch     = const_cast<const char*>(reinterpret_cast<const volatile char*>(_First_ptr));
; 4768 :     const auto _Last_ch      = const_cast<const char*>(reinterpret_cast<const volatile char*>(_Last_ptr));
; 4769 :     const auto _Byte_count   = static_cast<size_t>(_Last_ch - _First_ch);
; 4770 :     return _STD _Copy_memmove_tail(_First_ch, _STD move(_Dest), _Byte_count, _Object_count);

  0001a	50		 push	 eax
  0001b	51		 push	 ecx
  0001c	ff 75 10	 push	 DWORD PTR __Dest$[ebp]
  0001f	ff 75 08	 push	 DWORD PTR __First$[ebp]
  00022	e8 00 00 00 00	 call	 ??$_Copy_memmove_tail@PAU_NPC_BUFF_SKILL@@@std@@YAPAU_NPC_BUFF_SKILL@@QBDQAU1@II@Z ; std::_Copy_memmove_tail<_NPC_BUFF_SKILL *>
  00027	83 c4 10	 add	 esp, 16			; 00000010H

; 4771 : }

  0002a	5d		 pop	 ebp
  0002b	c3		 ret	 0
??$_Copy_memmove@PAU_NPC_BUFF_SKILL@@PAU1@@std@@YAPAU_NPC_BUFF_SKILL@@PAU1@00@Z ENDP ; std::_Copy_memmove<_NPC_BUFF_SKILL *,_NPC_BUFF_SKILL *>
_TEXT	ENDS
; Function compile flags: /Ogtp
; File C:\Program Files\Microsoft Visual Studio\2022\Professional\VC\Tools\MSVC\14.44.35207\include\xutility
;	COMDAT ??$_Copy_memmove@PAU__REQUESTGUILD@CGuildCombat@@PAU12@@std@@YAPAU__REQUESTGUILD@CGuildCombat@@PAU12@00@Z
_TEXT	SEGMENT
__First$ = 8						; size = 4
__Last$ = 12						; size = 4
__Dest$ = 16						; size = 4
??$_Copy_memmove@PAU__REQUESTGUILD@CGuildCombat@@PAU12@@std@@YAPAU__REQUESTGUILD@CGuildCombat@@PAU12@00@Z PROC ; std::_Copy_memmove<CGuildCombat::__REQUESTGUILD *,CGuildCombat::__REQUESTGUILD *>, COMDAT

; 4762 : _OutCtgIt _Copy_memmove(_CtgIt _First, _CtgIt _Last, _OutCtgIt _Dest) {

  00000	55		 push	 ebp
  00001	8b ec		 mov	 ebp, esp

; 4763 :     _STL_INTERNAL_CHECK(_First <= _Last);
; 4764 :     const auto _First_ptr    = _STD _To_address(_First);
; 4765 :     const auto _Last_ptr     = _STD _To_address(_Last);
; 4766 :     const auto _Object_count = static_cast<size_t>(_Last_ptr - _First_ptr);

  00003	8b 55 08	 mov	 edx, DWORD PTR __First$[ebp]
  00006	8b 4d 0c	 mov	 ecx, DWORD PTR __Last$[ebp]
  00009	2b ca		 sub	 ecx, edx
  0000b	8b c1		 mov	 eax, ecx
  0000d	c1 f8 03	 sar	 eax, 3

; 4767 :     const auto _First_ch     = const_cast<const char*>(reinterpret_cast<const volatile char*>(_First_ptr));
; 4768 :     const auto _Last_ch      = const_cast<const char*>(reinterpret_cast<const volatile char*>(_Last_ptr));
; 4769 :     const auto _Byte_count   = static_cast<size_t>(_Last_ch - _First_ch);
; 4770 :     return _STD _Copy_memmove_tail(_First_ch, _STD move(_Dest), _Byte_count, _Object_count);

  00010	50		 push	 eax
  00011	51		 push	 ecx
  00012	ff 75 10	 push	 DWORD PTR __Dest$[ebp]
  00015	52		 push	 edx
  00016	e8 00 00 00 00	 call	 ??$_Copy_memmove_tail@PAU__REQUESTGUILD@CGuildCombat@@@std@@YAPAU__REQUESTGUILD@CGuildCombat@@QBDQAU12@II@Z ; std::_Copy_memmove_tail<CGuildCombat::__REQUESTGUILD *>
  0001b	83 c4 10	 add	 esp, 16			; 00000010H

; 4771 : }

  0001e	5d		 pop	 ebp
  0001f	c3		 ret	 0
??$_Copy_memmove@PAU__REQUESTGUILD@CGuildCombat@@PAU12@@std@@YAPAU__REQUESTGUILD@CGuildCombat@@PAU12@00@Z ENDP ; std::_Copy_memmove<CGuildCombat::__REQUESTGUILD *,CGuildCombat::__REQUESTGUILD *>
_TEXT	ENDS
; Function compile flags: /Ogtp
; File C:\Program Files\Microsoft Visual Studio\2022\Professional\VC\Tools\MSVC\14.44.35207\include\xmemory
; File C:\Program Files\Microsoft Visual Studio\2022\Professional\VC\Tools\MSVC\14.44.35207\include\xstring
; File C:\Program Files\Microsoft Visual Studio\2022\Professional\VC\Tools\MSVC\14.44.35207\include\xmemory
; File C:\Program Files\Microsoft Visual Studio\2022\Professional\VC\Tools\MSVC\14.44.35207\include\xstring
; File C:\Program Files\Microsoft Visual Studio\2022\Professional\VC\Tools\MSVC\14.44.35207\include\xmemory
;	COMDAT ??$_Uninitialized_move@PAV?$basic_string@DU?$char_traits@D@std@@V?$allocator@D@2@@std@@V?$allocator@V?$basic_string@DU?$char_traits@D@std@@V?$allocator@D@2@@std@@@2@@std@@YAPAV?$basic_string@DU?$char_traits@D@std@@V?$allocator@D@2@@0@QAV10@0PAV10@AAV?$allocator@V?$basic_string@DU?$char_traits@D@std@@V?$allocator@D@2@@std@@@0@@Z
_TEXT	SEGMENT
__First$ = 8						; size = 4
__Last$ = 12						; size = 4
__Dest$ = 16						; size = 4
__Al$ = 20						; size = 4
??$_Uninitialized_move@PAV?$basic_string@DU?$char_traits@D@std@@V?$allocator@D@2@@std@@V?$allocator@V?$basic_string@DU?$char_traits@D@std@@V?$allocator@D@2@@std@@@2@@std@@YAPAV?$basic_string@DU?$char_traits@D@std@@V?$allocator@D@2@@0@QAV10@0PAV10@AAV?$allocator@V?$basic_string@DU?$char_traits@D@std@@V?$allocator@D@2@@std@@@0@@Z PROC ; std::_Uninitialized_move<std::basic_string<char,std::char_traits<char>,std::allocator<char> > *,std::allocator<std::basic_string<char,std::char_traits<char>,std::allocator<char> > > >, COMDAT

; 1977 :     const _InIt _First, const _InIt _Last, _Alloc_ptr_t<_Alloc> _Dest, _Alloc& _Al) {

  00000	55		 push	 ebp
  00001	8b ec		 mov	 ebp, esp

; 1978 :     // move [_First, _Last) to raw _Dest, using _Al
; 1979 :     // note: only called internally from elsewhere in the STL
; 1980 : #ifdef _ENABLE_STL_INTERNAL_CHECK
; 1981 :     _STD _Adl_verify_range(_First, _Last);
; 1982 : #endif // ^^^ defined(_ENABLE_STL_INTERNAL_CHECK) ^^^
; 1983 :     using _Ptrval     = typename _Alloc::value_type*;
; 1984 :     auto _UFirst      = _STD _Get_unwrapped(_First);
; 1985 :     const auto _ULast = _STD _Get_unwrapped(_Last);
; 1986 :     if constexpr (conjunction_v<bool_constant<_Iter_move_cat<decltype(_UFirst), _Ptrval>::_Bitcopy_constructible>,
; 1987 :                       _Uses_default_construct<_Alloc, _Ptrval, decltype(_STD move(*_UFirst))>>) {
; 1988 : #if _HAS_CXX20
; 1989 :         if (!_STD is_constant_evaluated())
; 1990 : #endif // _HAS_CXX20
; 1991 :         {
; 1992 :             _STD _Copy_memmove(_UFirst, _ULast, _STD _Unfancy(_Dest));
; 1993 :             return _Dest + (_ULast - _UFirst);
; 1994 :         }
; 1995 :     }
; 1996 : 
; 1997 :     _Uninitialized_backout_al<_Alloc> _Backout{_Dest, _Al};
; 1998 :     for (; _UFirst != _ULast; ++_UFirst) {

  00003	8b 4d 08	 mov	 ecx, DWORD PTR __First$[ebp]

; 1833 :     _CONSTEXPR20 _Uninitialized_backout_al(pointer _Dest, _Alloc& _Al_) : _First(_Dest), _Last(_Dest), _Al(_Al_) {}

  00006	8b 45 10	 mov	 eax, DWORD PTR __Dest$[ebp]

; 1977 :     const _InIt _First, const _InIt _Last, _Alloc_ptr_t<_Alloc> _Dest, _Alloc& _Al) {

  00009	56		 push	 esi

; 1978 :     // move [_First, _Last) to raw _Dest, using _Al
; 1979 :     // note: only called internally from elsewhere in the STL
; 1980 : #ifdef _ENABLE_STL_INTERNAL_CHECK
; 1981 :     _STD _Adl_verify_range(_First, _Last);
; 1982 : #endif // ^^^ defined(_ENABLE_STL_INTERNAL_CHECK) ^^^
; 1983 :     using _Ptrval     = typename _Alloc::value_type*;
; 1984 :     auto _UFirst      = _STD _Get_unwrapped(_First);
; 1985 :     const auto _ULast = _STD _Get_unwrapped(_Last);
; 1986 :     if constexpr (conjunction_v<bool_constant<_Iter_move_cat<decltype(_UFirst), _Ptrval>::_Bitcopy_constructible>,
; 1987 :                       _Uses_default_construct<_Alloc, _Ptrval, decltype(_STD move(*_UFirst))>>) {
; 1988 : #if _HAS_CXX20
; 1989 :         if (!_STD is_constant_evaluated())
; 1990 : #endif // _HAS_CXX20
; 1991 :         {
; 1992 :             _STD _Copy_memmove(_UFirst, _ULast, _STD _Unfancy(_Dest));
; 1993 :             return _Dest + (_ULast - _UFirst);
; 1994 :         }
; 1995 :     }
; 1996 : 
; 1997 :     _Uninitialized_backout_al<_Alloc> _Backout{_Dest, _Al};
; 1998 :     for (; _UFirst != _ULast; ++_UFirst) {

  0000a	8b 75 0c	 mov	 esi, DWORD PTR __Last$[ebp]
  0000d	3b ce		 cmp	 ecx, esi
  0000f	74 4f		 je	 SHORT $LN3@Uninitiali

; 1833 :     _CONSTEXPR20 _Uninitialized_backout_al(pointer _Dest, _Alloc& _Al_) : _First(_Dest), _Last(_Dest), _Al(_Al_) {}

  00011	8b d0		 mov	 edx, eax
  00013	2b d1		 sub	 edx, ecx
  00015	66 66 66 0f 1f
	84 00 00 00 00
	00		 npad	 11
$LL4@Uninitiali:
  00020	0f 57 c0	 xorps	 xmm0, xmm0
; File C:\Program Files\Microsoft Visual Studio\2022\Professional\VC\Tools\MSVC\14.44.35207\include\xstring

; 493  :         _CONSTEXPR20 _Bxty() noexcept : _Buf() {} // user-provided, for fancy pointers

  00023	0f 11 00	 movups	 XMMWORD PTR [eax], xmm0

; 517  :     size_type _Mysize = 0; // current length of string (size)

  00026	c7 40 10 00 00
	00 00		 mov	 DWORD PTR [eax+16], 0

; 518  :     size_type _Myres  = 0; // current storage reserved for string (capacity)

  0002d	c7 44 0a 14 00
	00 00 00	 mov	 DWORD PTR [edx+ecx+20], 0

; 1286 :                 _CSTD memcpy(_My_data_mem, _Right_data_mem, _Memcpy_val_size);

  00035	0f 10 01	 movups	 xmm0, XMMWORD PTR [ecx]
  00038	0f 11 00	 movups	 XMMWORD PTR [eax], xmm0
  0003b	f3 0f 7e 41 10	 movq	 xmm0, QWORD PTR [ecx+16]
  00040	66 0f d6 40 10	 movq	 QWORD PTR [eax+16], xmm0
; File C:\Program Files\Microsoft Visual Studio\2022\Professional\VC\Tools\MSVC\14.44.35207\include\xmemory

; 1845 :         ++_Last;

  00045	83 c0 18	 add	 eax, 24			; 00000018H
; File C:\Program Files\Microsoft Visual Studio\2022\Professional\VC\Tools\MSVC\14.44.35207\include\xstring

; 1288 :                 _Right_data._Mysize = 0;

  00048	c7 41 10 00 00
	00 00		 mov	 DWORD PTR [ecx+16], 0

; 1289 :                 _Right_data._Myres  = _Small_string_capacity;

  0004f	c7 41 14 0f 00
	00 00		 mov	 DWORD PTR [ecx+20], 15	; 0000000fH

; 1290 :                 _Right_data._Activate_SSO_buffer();
; 1291 :                 _Traits::assign(_Right_data._Bx._Buf[0], _Elem());

  00056	c6 01 00	 mov	 BYTE PTR [ecx], 0
; File C:\Program Files\Microsoft Visual Studio\2022\Professional\VC\Tools\MSVC\14.44.35207\include\xmemory

; 1845 :         ++_Last;

  00059	83 c1 18	 add	 ecx, 24			; 00000018H

; 1978 :     // move [_First, _Last) to raw _Dest, using _Al
; 1979 :     // note: only called internally from elsewhere in the STL
; 1980 : #ifdef _ENABLE_STL_INTERNAL_CHECK
; 1981 :     _STD _Adl_verify_range(_First, _Last);
; 1982 : #endif // ^^^ defined(_ENABLE_STL_INTERNAL_CHECK) ^^^
; 1983 :     using _Ptrval     = typename _Alloc::value_type*;
; 1984 :     auto _UFirst      = _STD _Get_unwrapped(_First);
; 1985 :     const auto _ULast = _STD _Get_unwrapped(_Last);
; 1986 :     if constexpr (conjunction_v<bool_constant<_Iter_move_cat<decltype(_UFirst), _Ptrval>::_Bitcopy_constructible>,
; 1987 :                       _Uses_default_construct<_Alloc, _Ptrval, decltype(_STD move(*_UFirst))>>) {
; 1988 : #if _HAS_CXX20
; 1989 :         if (!_STD is_constant_evaluated())
; 1990 : #endif // _HAS_CXX20
; 1991 :         {
; 1992 :             _STD _Copy_memmove(_UFirst, _ULast, _STD _Unfancy(_Dest));
; 1993 :             return _Dest + (_ULast - _UFirst);
; 1994 :         }
; 1995 :     }
; 1996 : 
; 1997 :     _Uninitialized_backout_al<_Alloc> _Backout{_Dest, _Al};
; 1998 :     for (; _UFirst != _ULast; ++_UFirst) {

  0005c	3b ce		 cmp	 ecx, esi
  0005e	75 c0		 jne	 SHORT $LL4@Uninitiali
$LN3@Uninitiali:
  00060	5e		 pop	 esi

; 1999 :         _Backout._Emplace_back(_STD move(*_UFirst));
; 2000 :     }
; 2001 : 
; 2002 :     return _Backout._Release();
; 2003 : }

  00061	5d		 pop	 ebp
  00062	c3		 ret	 0
??$_Uninitialized_move@PAV?$basic_string@DU?$char_traits@D@std@@V?$allocator@D@2@@std@@V?$allocator@V?$basic_string@DU?$char_traits@D@std@@V?$allocator@D@2@@std@@@2@@std@@YAPAV?$basic_string@DU?$char_traits@D@std@@V?$allocator@D@2@@0@QAV10@0PAV10@AAV?$allocator@V?$basic_string@DU?$char_traits@D@std@@V?$allocator@D@2@@std@@@0@@Z ENDP ; std::_Uninitialized_move<std::basic_string<char,std::char_traits<char>,std::allocator<char> > *,std::allocator<std::basic_string<char,std::char_traits<char>,std::allocator<char> > > >
_TEXT	ENDS
; Function compile flags: /Ogtp
; File C:\Program Files\Microsoft Visual Studio\2022\Professional\VC\Tools\MSVC\14.44.35207\include\vector
; File C:\Program Files\Microsoft Visual Studio\2022\Professional\VC\Tools\MSVC\14.44.35207\include\xmemory
; File C:\Program Files\Microsoft Visual Studio\2022\Professional\VC\Tools\MSVC\14.44.35207\include\vector
; File C:\Program Files\Microsoft Visual Studio\2022\Professional\VC\Tools\MSVC\14.44.35207\include\xmemory
; File C:\Program Files\Microsoft Visual Studio\2022\Professional\VC\Tools\MSVC\14.44.35207\include\vector
; File C:\Program Files\Microsoft Visual Studio\2022\Professional\VC\Tools\MSVC\14.44.35207\include\xmemory
; File C:\Program Files\Microsoft Visual Studio\2022\Professional\VC\Tools\MSVC\14.44.35207\include\vector
; File C:\Program Files\Microsoft Visual Studio\2022\Professional\VC\Tools\MSVC\14.44.35207\include\xmemory
; File C:\Program Files\Microsoft Visual Studio\2022\Professional\VC\Tools\MSVC\14.44.35207\include\vector
; File C:\Program Files\Microsoft Visual Studio\2022\Professional\VC\Tools\MSVC\14.44.35207\include\xmemory
; File C:\Program Files\Microsoft Visual Studio\2022\Professional\VC\Tools\MSVC\14.44.35207\include\vector
; File C:\Program Files\Microsoft Visual Studio\2022\Professional\VC\Tools\MSVC\14.44.35207\include\xmemory
; File C:\Program Files\Microsoft Visual Studio\2022\Professional\VC\Tools\MSVC\14.44.35207\include\vector
; File C:\Program Files\Microsoft Visual Studio\2022\Professional\VC\Tools\MSVC\14.44.35207\include\xmemory
; File C:\Program Files\Microsoft Visual Studio\2022\Professional\VC\Tools\MSVC\14.44.35207\include\vector
; File C:\Program Files\Microsoft Visual Studio\2022\Professional\VC\Tools\MSVC\14.44.35207\include\xmemory
; File C:\Program Files\Microsoft Visual Studio\2022\Professional\VC\Tools\MSVC\14.44.35207\include\vector
;	COMDAT ??$_Emplace_reallocate@ABK@?$vector@KV?$allocator@K@std@@@std@@AAEPAKQAKABK@Z
_TEXT	SEGMENT
__Newsize$1$ = -12					; size = 4
tv652 = -8						; size = 4
tv650 = -4						; size = 4
__Whereptr$ = 8						; size = 4
_<_Val_0>$ = 12						; size = 4
??$_Emplace_reallocate@ABK@?$vector@KV?$allocator@K@std@@@std@@AAEPAKQAKABK@Z PROC ; std::vector<unsigned long,std::allocator<unsigned long> >::_Emplace_reallocate<unsigned long const &>, COMDAT
; _this$ = ecx

; 875  :     _CONSTEXPR20 pointer _Emplace_reallocate(const pointer _Whereptr, _Valty&&... _Val) {

  00000	55		 push	 ebp
  00001	8b ec		 mov	 ebp, esp
  00003	83 ec 0c	 sub	 esp, 12			; 0000000cH
  00006	53		 push	 ebx

; 876  :         // reallocate and insert by perfectly forwarding _Val at _Whereptr
; 877  :         _Alty& _Al        = _Getal();
; 878  :         auto& _My_data    = _Mypair._Myval2;
; 879  :         pointer& _Myfirst = _My_data._Myfirst;
; 880  :         pointer& _Mylast  = _My_data._Mylast;
; 881  : 
; 882  :         _STL_INTERNAL_CHECK(_Mylast == _My_data._Myend); // check that we have no unused capacity
; 883  : 
; 884  :         const auto _Whereoff = static_cast<size_type>(_Whereptr - _Myfirst);

  00007	8b 5d 08	 mov	 ebx, DWORD PTR __Whereptr$[ebp]
  0000a	56		 push	 esi
  0000b	8b f1		 mov	 esi, ecx
  0000d	57		 push	 edi
  0000e	8b 0e		 mov	 ecx, DWORD PTR [esi]
  00010	2b d9		 sub	 ebx, ecx

; 885  :         const auto _Oldsize  = static_cast<size_type>(_Mylast - _Myfirst);

  00012	8b 46 04	 mov	 eax, DWORD PTR [esi+4]
  00015	2b c1		 sub	 eax, ecx
  00017	c1 fb 02	 sar	 ebx, 2
  0001a	c1 f8 02	 sar	 eax, 2

; 886  : 
; 887  :         if (_Oldsize == max_size()) {

  0001d	3d ff ff ff 3f	 cmp	 eax, 1073741823		; 3fffffffH
  00022	0f 84 13 01 00
	00		 je	 $LN111@Emplace_re

; 1924 :         return static_cast<size_type>(_My_data._Myend - _My_data._Myfirst);

  00028	8b 56 08	 mov	 edx, DWORD PTR [esi+8]

; 889  :         }
; 890  : 
; 891  :         const size_type _Newsize = _Oldsize + 1;

  0002b	8d 78 01	 lea	 edi, DWORD PTR [eax+1]

; 1924 :         return static_cast<size_type>(_My_data._Myend - _My_data._Myfirst);

  0002e	2b d1		 sub	 edx, ecx

; 889  :         }
; 890  : 
; 891  :         const size_type _Newsize = _Oldsize + 1;

  00030	89 7d f4	 mov	 DWORD PTR __Newsize$1$[ebp], edi

; 1924 :         return static_cast<size_type>(_My_data._Myend - _My_data._Myfirst);

  00033	c1 fa 02	 sar	 edx, 2

; 2011 :         if (_Oldcapacity > _Max - _Oldcapacity / 2) {

  00036	b8 ff ff ff 3f	 mov	 eax, 1073741823		; 3fffffffH
  0003b	8b ca		 mov	 ecx, edx
  0003d	d1 e9		 shr	 ecx, 1
  0003f	2b c1		 sub	 eax, ecx
  00041	3b d0		 cmp	 edx, eax
  00043	76 14		 jbe	 SHORT $LN8@Emplace_re

; 2012 :             return _Max; // geometric growth would overflow

  00045	b8 fc ff ff ff	 mov	 eax, -4			; fffffffcH
  0004a	c7 45 f8 fc ff
	ff ff		 mov	 DWORD PTR tv652[ebp], -4 ; fffffffcH
; File C:\Program Files\Microsoft Visual Studio\2022\Professional\VC\Tools\MSVC\14.44.35207\include\xmemory

; 253  :             return _Allocate_manually_vector_aligned<_Traits>(_Bytes);

  00051	50		 push	 eax
  00052	e8 00 00 00 00	 call	 ??$_Allocate_manually_vector_aligned@U_Default_allocate_traits@std@@@std@@YAPAXI@Z ; std::_Allocate_manually_vector_aligned<std::_Default_allocate_traits>
  00057	eb 3d		 jmp	 SHORT $LN109@Emplace_re
$LN8@Emplace_re:
; File C:\Program Files\Microsoft Visual Studio\2022\Professional\VC\Tools\MSVC\14.44.35207\include\vector

; 2015 :         const size_type _Geometric = _Oldcapacity + _Oldcapacity / 2;

  00059	8d 04 11	 lea	 eax, DWORD PTR [ecx+edx]
; File C:\Program Files\Microsoft Visual Studio\2022\Professional\VC\Tools\MSVC\14.44.35207\include\xmemory

; 117  :         if (_Count > _Max_possible) {

  0005c	8b cf		 mov	 ecx, edi
  0005e	3b c7		 cmp	 eax, edi
  00060	0f 43 c8	 cmovae	 ecx, eax
  00063	81 f9 ff ff ff
	3f		 cmp	 ecx, 1073741823		; 3fffffffH
  00069	0f 87 d1 00 00
	00		 ja	 $LN112@Emplace_re

; 119  :         }
; 120  :     }
; 121  : 
; 122  :     return _Count * _Ty_size;

  0006f	8d 04 8d 00 00
	00 00		 lea	 eax, DWORD PTR [ecx*4]
  00076	89 45 f8	 mov	 DWORD PTR tv652[ebp], eax

; 227  :     if (_Bytes == 0) {

  00079	85 c0		 test	 eax, eax
  0007b	75 04		 jne	 SHORT $LN23@Emplace_re

; 228  :         return nullptr;

  0007d	33 ff		 xor	 edi, edi
  0007f	eb 1a		 jmp	 SHORT $LN22@Emplace_re
$LN23@Emplace_re:

; 229  :     }
; 230  : 
; 231  : #if _HAS_CXX20 // TRANSITION, GH-1532
; 232  :     if (_STD is_constant_evaluated()) {
; 233  :         return _Traits::_Allocate(_Bytes);
; 234  :     }
; 235  : #endif // _HAS_CXX20
; 236  : 
; 237  : #ifdef __cpp_aligned_new
; 238  :     if constexpr (_Align > __STDCPP_DEFAULT_NEW_ALIGNMENT__) {
; 239  :         size_t _Passed_align = _Align;
; 240  : #if defined(_M_IX86) || defined(_M_X64)
; 241  :         if (_Bytes >= _Big_allocation_threshold) {
; 242  :             // boost the alignment of big allocations to help autovectorization
; 243  :             _Passed_align = (_STD max)(_Align, _Big_allocation_alignment);
; 244  :         }
; 245  : #endif // defined(_M_IX86) || defined(_M_X64)
; 246  :         return _Traits::_Allocate_aligned(_Bytes, _Passed_align);
; 247  :     } else
; 248  : #endif // defined(__cpp_aligned_new)
; 249  :     {
; 250  : #if defined(_M_IX86) || defined(_M_X64)
; 251  :         if (_Bytes >= _Big_allocation_threshold) {

  00081	3d 00 10 00 00	 cmp	 eax, 4096		; 00001000H
  00086	72 08		 jb	 SHORT $LN24@Emplace_re

; 253  :             return _Allocate_manually_vector_aligned<_Traits>(_Bytes);

  00088	50		 push	 eax
  00089	e8 00 00 00 00	 call	 ??$_Allocate_manually_vector_aligned@U_Default_allocate_traits@std@@@std@@YAPAXI@Z ; std::_Allocate_manually_vector_aligned<std::_Default_allocate_traits>
  0008e	eb 06		 jmp	 SHORT $LN109@Emplace_re
$LN24@Emplace_re:

; 136  :         return ::operator new(_Bytes);

  00090	50		 push	 eax
  00091	e8 00 00 00 00	 call	 ??2@YAPAXI@Z		; operator new
$LN109@Emplace_re:
; File C:\Program Files\Microsoft Visual Studio\2022\Professional\VC\Tools\MSVC\14.44.35207\include\vector

; 900  :         _Alty_traits::construct(_Al, _STD _Unfancy(_Newvec + _Whereoff), _STD forward<_Valty>(_Val)...);

  00096	8b f8		 mov	 edi, eax
  00098	83 c4 04	 add	 esp, 4
$LN22@Emplace_re:
  0009b	8b 45 0c	 mov	 eax, DWORD PTR _<_Val_0>$[ebp]
  0009e	8d 0c 9f	 lea	 ecx, DWORD PTR [edi+ebx*4]

; 901  :         _Constructed_first = _Newvec + _Whereoff;
; 902  : 
; 903  :         if (_Whereptr == _Mylast) { // at back, provide strong guarantee

  000a1	8b 5d 08	 mov	 ebx, DWORD PTR __Whereptr$[ebp]
  000a4	89 4d fc	 mov	 DWORD PTR tv650[ebp], ecx
  000a7	8b 00		 mov	 eax, DWORD PTR [eax]
  000a9	89 01		 mov	 DWORD PTR [ecx], eax
  000ab	8b 46 04	 mov	 eax, DWORD PTR [esi+4]
  000ae	8b 0e		 mov	 ecx, DWORD PTR [esi]
  000b0	3b d8		 cmp	 ebx, eax
  000b2	75 07		 jne	 SHORT $LN3@Emplace_re

; 909  :         } else { // provide basic guarantee

  000b4	8b 5d fc	 mov	 ebx, DWORD PTR tv650[ebp]
; File C:\Program Files\Microsoft Visual Studio\2022\Professional\VC\Tools\MSVC\14.44.35207\include\xmemory

; 1992 :             _STD _Copy_memmove(_UFirst, _ULast, _STD _Unfancy(_Dest));

  000b7	8b d7		 mov	 edx, edi
; File C:\Program Files\Microsoft Visual Studio\2022\Professional\VC\Tools\MSVC\14.44.35207\include\vector

; 909  :         } else { // provide basic guarantee

  000b9	eb 16		 jmp	 SHORT $LN52@Emplace_re
$LN3@Emplace_re:
; File C:\Program Files\Microsoft Visual Studio\2022\Professional\VC\Tools\MSVC\14.44.35207\include\xmemory

; 1992 :             _STD _Copy_memmove(_UFirst, _ULast, _STD _Unfancy(_Dest));

  000bb	57		 push	 edi
  000bc	53		 push	 ebx
  000bd	51		 push	 ecx
  000be	e8 00 00 00 00	 call	 ??$_Copy_memmove@PAKPAK@std@@YAPAKPAK00@Z ; std::_Copy_memmove<unsigned long *,unsigned long *>
  000c3	8b 46 04	 mov	 eax, DWORD PTR [esi+4]
  000c6	8b cb		 mov	 ecx, ebx
; File C:\Program Files\Microsoft Visual Studio\2022\Professional\VC\Tools\MSVC\14.44.35207\include\vector

; 912  :             _STD _Uninitialized_move(_Whereptr, _Mylast, _Newvec + _Whereoff + 1, _Al);

  000c8	8b 5d fc	 mov	 ebx, DWORD PTR tv650[ebp]
; File C:\Program Files\Microsoft Visual Studio\2022\Professional\VC\Tools\MSVC\14.44.35207\include\xmemory

; 1992 :             _STD _Copy_memmove(_UFirst, _ULast, _STD _Unfancy(_Dest));

  000cb	83 c4 0c	 add	 esp, 12			; 0000000cH
; File C:\Program Files\Microsoft Visual Studio\2022\Professional\VC\Tools\MSVC\14.44.35207\include\vector

; 912  :             _STD _Uninitialized_move(_Whereptr, _Mylast, _Newvec + _Whereoff + 1, _Al);

  000ce	8d 53 04	 lea	 edx, DWORD PTR [ebx+4]
$LN52@Emplace_re:

; 913  :         }
; 914  : 
; 915  :         _Guard._New_begin = nullptr;

  000d1	52		 push	 edx
  000d2	50		 push	 eax
  000d3	51		 push	 ecx
  000d4	e8 00 00 00 00	 call	 ??$_Copy_memmove@PAKPAK@std@@YAPAKPAK00@Z ; std::_Copy_memmove<unsigned long *,unsigned long *>

; 2069 :         if (_Myfirst) { // destroy and deallocate old array

  000d9	8b 06		 mov	 eax, DWORD PTR [esi]

; 913  :         }
; 914  : 
; 915  :         _Guard._New_begin = nullptr;

  000db	83 c4 0c	 add	 esp, 12			; 0000000cH

; 2069 :         if (_Myfirst) { // destroy and deallocate old array

  000de	85 c0		 test	 eax, eax
  000e0	74 2c		 je	 SHORT $LN72@Emplace_re

; 2070 :             _STD _Destroy_range(_Myfirst, _Mylast, _Al);
; 2071 :             _ASAN_VECTOR_REMOVE;
; 2072 :             _Al.deallocate(_Myfirst, static_cast<size_type>(_Myend - _Myfirst));

  000e2	8b 4e 08	 mov	 ecx, DWORD PTR [esi+8]
  000e5	2b c8		 sub	 ecx, eax
; File C:\Program Files\Microsoft Visual Studio\2022\Professional\VC\Tools\MSVC\14.44.35207\include\xmemory

; 985  :         _STD _Deallocate<_New_alignof<_Ty>>(_Ptr, sizeof(_Ty) * _Count);

  000e7	83 e1 fc	 and	 ecx, -4			; fffffffcH

; 284  :         if (_Bytes >= _Big_allocation_threshold) {

  000ea	81 f9 00 10 00
	00		 cmp	 ecx, 4096		; 00001000H
  000f0	72 12		 jb	 SHORT $LN77@Emplace_re

; 205  :     const uintptr_t _Ptr_container   = _Ptr_user[-1];

  000f2	8b 50 fc	 mov	 edx, DWORD PTR [eax-4]
  000f5	83 c1 23	 add	 ecx, 35			; 00000023H

; 206  : 
; 207  :     // If the following asserts, it likely means that we are performing
; 208  :     // an aligned delete on memory coming from an unaligned allocation.
; 209  :     _STL_ASSERT(_Ptr_user[-2] == _Big_allocation_sentinel, "invalid argument");
; 210  : 
; 211  :     // Extra paranoia on aligned allocation/deallocation; ensure _Ptr_container is
; 212  :     // in range [_Min_back_shift, _Non_user_size]
; 213  : #ifdef _DEBUG
; 214  :     constexpr uintptr_t _Min_back_shift = 2 * sizeof(void*);
; 215  : #else // ^^^ defined(_DEBUG) / !defined(_DEBUG) vvv
; 216  :     constexpr uintptr_t _Min_back_shift = sizeof(void*);
; 217  : #endif // ^^^ !defined(_DEBUG) ^^^
; 218  :     const uintptr_t _Back_shift = reinterpret_cast<uintptr_t>(_Ptr) - _Ptr_container;

  000f8	2b c2		 sub	 eax, edx

; 219  :     _STL_VERIFY(_Back_shift >= _Min_back_shift && _Back_shift <= _Non_user_size, "invalid argument");

  000fa	83 c0 fc	 add	 eax, -4			; fffffffcH
  000fd	83 f8 1f	 cmp	 eax, 31			; 0000001fH
  00100	77 2a		 ja	 SHORT $LN76@Emplace_re

; 220  :     _Ptr = reinterpret_cast<void*>(_Ptr_container);

  00102	8b c2		 mov	 eax, edx
$LN77@Emplace_re:

; 289  :         ::operator delete(_Ptr, _Bytes);

  00104	51		 push	 ecx
  00105	50		 push	 eax
  00106	e8 00 00 00 00	 call	 ??3@YAXPAXI@Z		; operator delete
  0010b	83 c4 08	 add	 esp, 8
$LN72@Emplace_re:
; File C:\Program Files\Microsoft Visual Studio\2022\Professional\VC\Tools\MSVC\14.44.35207\include\vector

; 2076 :         _Mylast  = _Newvec + _Newsize;

  0010e	8b 45 f4	 mov	 eax, DWORD PTR __Newsize$1$[ebp]
  00111	89 3e		 mov	 DWORD PTR [esi], edi
  00113	8d 0c 87	 lea	 ecx, DWORD PTR [edi+eax*4]

; 916  :         _Change_array(_Newvec, _Newsize, _Newcapacity);
; 917  :         return _Newvec + _Whereoff;

  00116	8b c3		 mov	 eax, ebx

; 2076 :         _Mylast  = _Newvec + _Newsize;

  00118	89 4e 04	 mov	 DWORD PTR [esi+4], ecx

; 2077 :         _Myend   = _Newvec + _Newcapacity;

  0011b	8b 4d f8	 mov	 ecx, DWORD PTR tv652[ebp]
  0011e	03 cf		 add	 ecx, edi

; 918  :     }

  00120	5f		 pop	 edi

; 2077 :         _Myend   = _Newvec + _Newcapacity;

  00121	89 4e 08	 mov	 DWORD PTR [esi+8], ecx

; 918  :     }

  00124	5e		 pop	 esi
  00125	5b		 pop	 ebx
  00126	8b e5		 mov	 esp, ebp
  00128	5d		 pop	 ebp
  00129	c2 08 00	 ret	 8
$LN76@Emplace_re:
; File C:\Program Files\Microsoft Visual Studio\2022\Professional\VC\Tools\MSVC\14.44.35207\include\xmemory

; 219  :     _STL_VERIFY(_Back_shift >= _Min_back_shift && _Back_shift <= _Non_user_size, "invalid argument");

  0012c	6a 00		 push	 0
  0012e	6a 00		 push	 0
  00130	6a 00		 push	 0
  00132	6a 00		 push	 0
  00134	6a 00		 push	 0
  00136	e8 00 00 00 00	 call	 __invoke_watson
$LN111@Emplace_re:
; File C:\Program Files\Microsoft Visual Studio\2022\Professional\VC\Tools\MSVC\14.44.35207\include\vector

; 888  :             _Xlength();

  0013b	e8 00 00 00 00	 call	 ?_Xlength@?$vector@KV?$allocator@K@std@@@std@@CAXXZ ; std::vector<unsigned long,std::allocator<unsigned long> >::_Xlength
$LN112@Emplace_re:
; File C:\Program Files\Microsoft Visual Studio\2022\Professional\VC\Tools\MSVC\14.44.35207\include\xmemory

; 118  :             _Throw_bad_array_new_length(); // multiply overflow

  00140	e8 00 00 00 00	 call	 ?_Throw_bad_array_new_length@std@@YAXXZ ; std::_Throw_bad_array_new_length
$LN108@Emplace_re:
  00145	cc		 int	 3
??$_Emplace_reallocate@ABK@?$vector@KV?$allocator@K@std@@@std@@AAEPAKQAKABK@Z ENDP ; std::vector<unsigned long,std::allocator<unsigned long> >::_Emplace_reallocate<unsigned long const &>
_TEXT	ENDS
; Function compile flags: /Ogtp
; File C:\Program Files\Microsoft Visual Studio\2022\Professional\VC\Tools\MSVC\14.44.35207\include\xtree
; File C:\Program Files\Microsoft Visual Studio\2022\Professional\VC\Tools\MSVC\14.44.35207\include\utility
; File C:\Program Files\Microsoft Visual Studio\2022\Professional\VC\Tools\MSVC\14.44.35207\include\xmemory
; File C:\Program Files\Microsoft Visual Studio\2022\Professional\VC\Tools\MSVC\14.44.35207\include\xtree
;	COMDAT ??$_Erase_tree@V?$allocator@U?$_Tree_node@KPAX@std@@@std@@@?$_Tree_val@U?$_Tree_simple_types@K@std@@@std@@QAEXAAV?$allocator@U?$_Tree_node@KPAX@std@@@1@PAU?$_Tree_node@KPAX@1@@Z
_TEXT	SEGMENT
__Al$ = 8						; size = 4
__Rootnode$ = 12					; size = 4
??$_Erase_tree@V?$allocator@U?$_Tree_node@KPAX@std@@@std@@@?$_Tree_val@U?$_Tree_simple_types@K@std@@@std@@QAEXAAV?$allocator@U?$_Tree_node@KPAX@std@@@1@PAU?$_Tree_node@KPAX@1@@Z PROC ; std::_Tree_val<std::_Tree_simple_types<unsigned long> >::_Erase_tree<std::allocator<std::_Tree_node<unsigned long,void *> > >, COMDAT
; _this$ = ecx

; 767  :     void _Erase_tree(_Alnode& _Al, _Nodeptr _Rootnode) noexcept {

  00000	55		 push	 ebp
  00001	8b ec		 mov	 ebp, esp
  00003	53		 push	 ebx
  00004	56		 push	 esi

; 768  :         while (!_Rootnode->_Isnil) { // free subtrees, then node

  00005	8b 75 0c	 mov	 esi, DWORD PTR __Rootnode$[ebp]
  00008	8b d9		 mov	 ebx, ecx
  0000a	80 7e 0d 00	 cmp	 BYTE PTR [esi+13], 0
  0000e	75 25		 jne	 SHORT $LN34@Erase_tree
  00010	57		 push	 edi
  00011	8b 7d 08	 mov	 edi, DWORD PTR __Al$[ebp]
$LL2@Erase_tree:

; 769  :             _Erase_tree(_Al, _Rootnode->_Right);

  00014	ff 76 08	 push	 DWORD PTR [esi+8]
  00017	8b cb		 mov	 ecx, ebx
  00019	57		 push	 edi
  0001a	e8 00 00 00 00	 call	 ??$_Erase_tree@V?$allocator@U?$_Tree_node@KPAX@std@@@std@@@?$_Tree_val@U?$_Tree_simple_types@K@std@@@std@@QAEXAAV?$allocator@U?$_Tree_node@KPAX@std@@@1@PAU?$_Tree_node@KPAX@1@@Z ; std::_Tree_val<std::_Tree_simple_types<unsigned long> >::_Erase_tree<std::allocator<std::_Tree_node<unsigned long,void *> > >
; File C:\Program Files\Microsoft Visual Studio\2022\Professional\VC\Tools\MSVC\14.44.35207\include\utility

; 773  :     _Ty _Old_val = static_cast<_Ty&&>(_Val);

  0001f	8b c6		 mov	 eax, esi

; 774  :     _Val         = static_cast<_Other&&>(_New_val);

  00021	8b 36		 mov	 esi, DWORD PTR [esi]
; File C:\Program Files\Microsoft Visual Studio\2022\Professional\VC\Tools\MSVC\14.44.35207\include\xmemory

; 289  :         ::operator delete(_Ptr, _Bytes);

  00023	6a 14		 push	 20			; 00000014H
  00025	50		 push	 eax
  00026	e8 00 00 00 00	 call	 ??3@YAXPAXI@Z		; operator delete
  0002b	83 c4 08	 add	 esp, 8
; File C:\Program Files\Microsoft Visual Studio\2022\Professional\VC\Tools\MSVC\14.44.35207\include\xtree

; 768  :         while (!_Rootnode->_Isnil) { // free subtrees, then node

  0002e	80 7e 0d 00	 cmp	 BYTE PTR [esi+13], 0
  00032	74 e0		 je	 SHORT $LL2@Erase_tree
  00034	5f		 pop	 edi
$LN34@Erase_tree:
  00035	5e		 pop	 esi

; 770  :             _Alnode::value_type::_Freenode(_Al, _STD exchange(_Rootnode, _Rootnode->_Left));
; 771  :         }
; 772  :     }

  00036	5b		 pop	 ebx
  00037	5d		 pop	 ebp
  00038	c2 08 00	 ret	 8
??$_Erase_tree@V?$allocator@U?$_Tree_node@KPAX@std@@@std@@@?$_Tree_val@U?$_Tree_simple_types@K@std@@@std@@QAEXAAV?$allocator@U?$_Tree_node@KPAX@std@@@1@PAU?$_Tree_node@KPAX@1@@Z ENDP ; std::_Tree_val<std::_Tree_simple_types<unsigned long> >::_Erase_tree<std::allocator<std::_Tree_node<unsigned long,void *> > >
_TEXT	ENDS
; Function compile flags: /Ogtp
; File C:\Program Files\Microsoft Visual Studio\2022\Professional\VC\Tools\MSVC\14.44.35207\include\xtree
; File C:\Program Files\Microsoft Visual Studio\2022\Professional\VC\Tools\MSVC\14.44.35207\include\utility
; File C:\Program Files\Microsoft Visual Studio\2022\Professional\VC\Tools\MSVC\14.44.35207\include\xmemory
; File C:\Program Files\Microsoft Visual Studio\2022\Professional\VC\Tools\MSVC\14.44.35207\include\xtree
;	COMDAT ??$_Erase_tree@V?$allocator@U?$_Tree_node@U?$pair@$$CBKP8CDPSrvr@@AEXAAVCAr@@KKPAEK@Z@std@@PAX@std@@@std@@@?$_Tree_val@U?$_Tree_simple_types@U?$pair@$$CBKP8CDPSrvr@@AEXAAVCAr@@KKPAEK@Z@std@@@std@@@std@@QAEXAAV?$allocator@U?$_Tree_node@U?$pair@$$CBKP8CDPSrvr@@AEXAAVCAr@@KKPAEK@Z@std@@PAX@std@@@1@PAU?$_Tree_node@U?$pair@$$CBKP8CDPSrvr@@AEXAAVCAr@@KKPAEK@Z@std@@PAX@1@@Z
_TEXT	SEGMENT
__Al$ = 8						; size = 4
__Rootnode$ = 12					; size = 4
??$_Erase_tree@V?$allocator@U?$_Tree_node@U?$pair@$$CBKP8CDPSrvr@@AEXAAVCAr@@KKPAEK@Z@std@@PAX@std@@@std@@@?$_Tree_val@U?$_Tree_simple_types@U?$pair@$$CBKP8CDPSrvr@@AEXAAVCAr@@KKPAEK@Z@std@@@std@@@std@@QAEXAAV?$allocator@U?$_Tree_node@U?$pair@$$CBKP8CDPSrvr@@AEXAAVCAr@@KKPAEK@Z@std@@PAX@std@@@1@PAU?$_Tree_node@U?$pair@$$CBKP8CDPSrvr@@AEXAAVCAr@@KKPAEK@Z@std@@PAX@1@@Z PROC ; std::_Tree_val<std::_Tree_simple_types<std::pair<unsigned long const ,void (__thiscall CDPSrvr::*)(CAr &,unsigned long,unsigned long,unsigned char *,unsigned long)> > >::_Erase_tree<std::allocator<std::_Tree_node<std::pair<unsigned long const ,void (__thiscall CDPSrvr::*)(CAr &,unsigned long,unsigned long,unsigned char *,unsigned long)>,void *> > >, COMDAT
; _this$ = ecx

; 767  :     void _Erase_tree(_Alnode& _Al, _Nodeptr _Rootnode) noexcept {

  00000	55		 push	 ebp
  00001	8b ec		 mov	 ebp, esp
  00003	53		 push	 ebx
  00004	56		 push	 esi

; 768  :         while (!_Rootnode->_Isnil) { // free subtrees, then node

  00005	8b 75 0c	 mov	 esi, DWORD PTR __Rootnode$[ebp]
  00008	8b d9		 mov	 ebx, ecx
  0000a	80 7e 0d 00	 cmp	 BYTE PTR [esi+13], 0
  0000e	75 25		 jne	 SHORT $LN34@Erase_tree
  00010	57		 push	 edi
  00011	8b 7d 08	 mov	 edi, DWORD PTR __Al$[ebp]
$LL2@Erase_tree:

; 769  :             _Erase_tree(_Al, _Rootnode->_Right);

  00014	ff 76 08	 push	 DWORD PTR [esi+8]
  00017	8b cb		 mov	 ecx, ebx
  00019	57		 push	 edi
  0001a	e8 00 00 00 00	 call	 ??$_Erase_tree@V?$allocator@U?$_Tree_node@U?$pair@$$CBKP8CDPSrvr@@AEXAAVCAr@@KKPAEK@Z@std@@PAX@std@@@std@@@?$_Tree_val@U?$_Tree_simple_types@U?$pair@$$CBKP8CDPSrvr@@AEXAAVCAr@@KKPAEK@Z@std@@@std@@@std@@QAEXAAV?$allocator@U?$_Tree_node@U?$pair@$$CBKP8CDPSrvr@@AEXAAVCAr@@KKPAEK@Z@std@@PAX@std@@@1@PAU?$_Tree_node@U?$pair@$$CBKP8CDPSrvr@@AEXAAVCAr@@KKPAEK@Z@std@@PAX@1@@Z ; std::_Tree_val<std::_Tree_simple_types<std::pair<unsigned long const ,void (__thiscall CDPSrvr::*)(CAr &,unsigned long,unsigned long,unsigned char *,unsigned long)> > >::_Erase_tree<std::allocator<std::_Tree_node<std::pair<unsigned long const ,void (__thiscall CDPSrvr::*)(CAr &,unsigned long,unsigned long,unsigned char *,unsigned long)>,void *> > >
; File C:\Program Files\Microsoft Visual Studio\2022\Professional\VC\Tools\MSVC\14.44.35207\include\utility

; 773  :     _Ty _Old_val = static_cast<_Ty&&>(_Val);

  0001f	8b c6		 mov	 eax, esi

; 774  :     _Val         = static_cast<_Other&&>(_New_val);

  00021	8b 36		 mov	 esi, DWORD PTR [esi]
; File C:\Program Files\Microsoft Visual Studio\2022\Professional\VC\Tools\MSVC\14.44.35207\include\xmemory

; 289  :         ::operator delete(_Ptr, _Bytes);

  00023	6a 18		 push	 24			; 00000018H
  00025	50		 push	 eax
  00026	e8 00 00 00 00	 call	 ??3@YAXPAXI@Z		; operator delete
  0002b	83 c4 08	 add	 esp, 8
; File C:\Program Files\Microsoft Visual Studio\2022\Professional\VC\Tools\MSVC\14.44.35207\include\xtree

; 768  :         while (!_Rootnode->_Isnil) { // free subtrees, then node

  0002e	80 7e 0d 00	 cmp	 BYTE PTR [esi+13], 0
  00032	74 e0		 je	 SHORT $LL2@Erase_tree
  00034	5f		 pop	 edi
$LN34@Erase_tree:
  00035	5e		 pop	 esi

; 770  :             _Alnode::value_type::_Freenode(_Al, _STD exchange(_Rootnode, _Rootnode->_Left));
; 771  :         }
; 772  :     }

  00036	5b		 pop	 ebx
  00037	5d		 pop	 ebp
  00038	c2 08 00	 ret	 8
??$_Erase_tree@V?$allocator@U?$_Tree_node@U?$pair@$$CBKP8CDPSrvr@@AEXAAVCAr@@KKPAEK@Z@std@@PAX@std@@@std@@@?$_Tree_val@U?$_Tree_simple_types@U?$pair@$$CBKP8CDPSrvr@@AEXAAVCAr@@KKPAEK@Z@std@@@std@@@std@@QAEXAAV?$allocator@U?$_Tree_node@U?$pair@$$CBKP8CDPSrvr@@AEXAAVCAr@@KKPAEK@Z@std@@PAX@std@@@1@PAU?$_Tree_node@U?$pair@$$CBKP8CDPSrvr@@AEXAAVCAr@@KKPAEK@Z@std@@PAX@1@@Z ENDP ; std::_Tree_val<std::_Tree_simple_types<std::pair<unsigned long const ,void (__thiscall CDPSrvr::*)(CAr &,unsigned long,unsigned long,unsigned char *,unsigned long)> > >::_Erase_tree<std::allocator<std::_Tree_node<std::pair<unsigned long const ,void (__thiscall CDPSrvr::*)(CAr &,unsigned long,unsigned long,unsigned char *,unsigned long)>,void *> > >
_TEXT	ENDS
; Function compile flags: /Ogtp
; File C:\Program Files\Microsoft Visual Studio\2022\Professional\VC\Tools\MSVC\14.44.35207\include\vector
; File C:\Program Files\Microsoft Visual Studio\2022\Professional\VC\Tools\MSVC\14.44.35207\include\xmemory
; File C:\Program Files\Microsoft Visual Studio\2022\Professional\VC\Tools\MSVC\14.44.35207\include\vector
; File C:\Program Files\Microsoft Visual Studio\2022\Professional\VC\Tools\MSVC\14.44.35207\include\xmemory
; File C:\Program Files\Microsoft Visual Studio\2022\Professional\VC\Tools\MSVC\14.44.35207\include\vector
; File C:\Program Files\Microsoft Visual Studio\2022\Professional\VC\Tools\MSVC\14.44.35207\include\xstring
; File C:\Program Files\Microsoft Visual Studio\2022\Professional\VC\Tools\MSVC\14.44.35207\include\vector
; File C:\Program Files\Microsoft Visual Studio\2022\Professional\VC\Tools\MSVC\14.44.35207\include\xstring
; File C:\Program Files\Microsoft Visual Studio\2022\Professional\VC\Tools\MSVC\14.44.35207\include\vector
; File C:\Program Files\Microsoft Visual Studio\2022\Professional\VC\Tools\MSVC\14.44.35207\include\xstring
; File C:\Program Files\Microsoft Visual Studio\2022\Professional\VC\Tools\MSVC\14.44.35207\include\vector
; File C:\Program Files\Microsoft Visual Studio\2022\Professional\VC\Tools\MSVC\14.44.35207\include\xmemory
; File C:\Program Files\Microsoft Visual Studio\2022\Professional\VC\Tools\MSVC\14.44.35207\include\vector
; File C:\Program Files\Microsoft Visual Studio\2022\Professional\VC\Tools\MSVC\14.44.35207\include\xmemory
; File C:\Program Files\Microsoft Visual Studio\2022\Professional\VC\Tools\MSVC\14.44.35207\include\vector
; File C:\Program Files\Microsoft Visual Studio\2022\Professional\VC\Tools\MSVC\14.44.35207\include\xmemory
; File C:\Program Files\Microsoft Visual Studio\2022\Professional\VC\Tools\MSVC\14.44.35207\include\vector
; File C:\Program Files\Microsoft Visual Studio\2022\Professional\VC\Tools\MSVC\14.44.35207\include\xmemory
; File C:\Program Files\Microsoft Visual Studio\2022\Professional\VC\Tools\MSVC\14.44.35207\include\vector
;	COMDAT ??$_Emplace_reallocate@V?$basic_string@DU?$char_traits@D@std@@V?$allocator@D@2@@std@@@?$vector@V?$basic_string@DU?$char_traits@D@std@@V?$allocator@D@2@@std@@V?$allocator@V?$basic_string@DU?$char_traits@D@std@@V?$allocator@D@2@@std@@@2@@std@@AAEPAV?$basic_string@DU?$char_traits@D@std@@V?$allocator@D@2@@1@QAV21@$$QAV21@@Z
_TEXT	SEGMENT
__Newsize$1$ = -16					; size = 4
_this$1$ = -12						; size = 4
__Whereoff$1$ = -8					; size = 4
_this$1$ = -8						; size = 4
tv692 = -4						; size = 4
__Whereptr$ = 8						; size = 4
_<_Val_0>$ = 12						; size = 4
??$_Emplace_reallocate@V?$basic_string@DU?$char_traits@D@std@@V?$allocator@D@2@@std@@@?$vector@V?$basic_string@DU?$char_traits@D@std@@V?$allocator@D@2@@std@@V?$allocator@V?$basic_string@DU?$char_traits@D@std@@V?$allocator@D@2@@std@@@2@@std@@AAEPAV?$basic_string@DU?$char_traits@D@std@@V?$allocator@D@2@@1@QAV21@$$QAV21@@Z PROC ; std::vector<std::basic_string<char,std::char_traits<char>,std::allocator<char> >,std::allocator<std::basic_string<char,std::char_traits<char>,std::allocator<char> > > >::_Emplace_reallocate<std::basic_string<char,std::char_traits<char>,std::allocator<char> > >, COMDAT
; _this$ = ecx

; 875  :     _CONSTEXPR20 pointer _Emplace_reallocate(const pointer _Whereptr, _Valty&&... _Val) {

  00000	55		 push	 ebp
  00001	8b ec		 mov	 ebp, esp
  00003	83 ec 10	 sub	 esp, 16			; 00000010H

; 876  :         // reallocate and insert by perfectly forwarding _Val at _Whereptr
; 877  :         _Alty& _Al        = _Getal();
; 878  :         auto& _My_data    = _Mypair._Myval2;
; 879  :         pointer& _Myfirst = _My_data._Myfirst;
; 880  :         pointer& _Mylast  = _My_data._Mylast;
; 881  : 
; 882  :         _STL_INTERNAL_CHECK(_Mylast == _My_data._Myend); // check that we have no unused capacity
; 883  : 
; 884  :         const auto _Whereoff = static_cast<size_type>(_Whereptr - _Myfirst);

  00006	8b 55 08	 mov	 edx, DWORD PTR __Whereptr$[ebp]
  00009	b8 ab aa aa 2a	 mov	 eax, 715827883		; 2aaaaaabH
  0000e	53		 push	 ebx
  0000f	56		 push	 esi
  00010	57		 push	 edi
  00011	8b f9		 mov	 edi, ecx
  00013	89 7d f4	 mov	 DWORD PTR _this$1$[ebp], edi
  00016	8b 37		 mov	 esi, DWORD PTR [edi]
  00018	2b d6		 sub	 edx, esi

; 885  :         const auto _Oldsize  = static_cast<size_type>(_Mylast - _Myfirst);

  0001a	8b 4f 04	 mov	 ecx, DWORD PTR [edi+4]
  0001d	f7 ea		 imul	 edx
  0001f	2b ce		 sub	 ecx, esi
  00021	c1 fa 02	 sar	 edx, 2
  00024	8b c2		 mov	 eax, edx
  00026	c1 e8 1f	 shr	 eax, 31			; 0000001fH
  00029	03 c2		 add	 eax, edx
  0002b	89 45 f8	 mov	 DWORD PTR __Whereoff$1$[ebp], eax
  0002e	b8 ab aa aa 2a	 mov	 eax, 715827883		; 2aaaaaabH
  00033	f7 e9		 imul	 ecx
  00035	c1 fa 02	 sar	 edx, 2
  00038	8b c2		 mov	 eax, edx
  0003a	c1 e8 1f	 shr	 eax, 31			; 0000001fH
  0003d	03 c2		 add	 eax, edx

; 886  : 
; 887  :         if (_Oldsize == max_size()) {

  0003f	3d aa aa aa 0a	 cmp	 eax, 178956970		; 0aaaaaaaH
  00044	0f 84 8a 01 00
	00		 je	 $LN143@Emplace_re

; 1924 :         return static_cast<size_type>(_My_data._Myend - _My_data._Myfirst);

  0004a	8b 4f 08	 mov	 ecx, DWORD PTR [edi+8]

; 889  :         }
; 890  : 
; 891  :         const size_type _Newsize = _Oldsize + 1;

  0004d	8d 58 01	 lea	 ebx, DWORD PTR [eax+1]

; 1924 :         return static_cast<size_type>(_My_data._Myend - _My_data._Myfirst);

  00050	2b ce		 sub	 ecx, esi

; 889  :         }
; 890  : 
; 891  :         const size_type _Newsize = _Oldsize + 1;

  00052	89 5d f0	 mov	 DWORD PTR __Newsize$1$[ebp], ebx

; 1924 :         return static_cast<size_type>(_My_data._Myend - _My_data._Myfirst);

  00055	b8 ab aa aa 2a	 mov	 eax, 715827883		; 2aaaaaabH
  0005a	f7 e9		 imul	 ecx

; 2011 :         if (_Oldcapacity > _Max - _Oldcapacity / 2) {

  0005c	b8 aa aa aa 0a	 mov	 eax, 178956970		; 0aaaaaaaH

; 1924 :         return static_cast<size_type>(_My_data._Myend - _My_data._Myfirst);

  00061	c1 fa 02	 sar	 edx, 2
  00064	8b ca		 mov	 ecx, edx
  00066	c1 e9 1f	 shr	 ecx, 31			; 0000001fH
  00069	03 ca		 add	 ecx, edx

; 2011 :         if (_Oldcapacity > _Max - _Oldcapacity / 2) {

  0006b	8b d1		 mov	 edx, ecx
  0006d	d1 ea		 shr	 edx, 1
  0006f	2b c2		 sub	 eax, edx
  00071	3b c8		 cmp	 ecx, eax
  00073	76 14		 jbe	 SHORT $LN8@Emplace_re

; 2012 :             return _Max; // geometric growth would overflow

  00075	b8 f0 ff ff ff	 mov	 eax, -16		; fffffff0H
  0007a	c7 45 fc f0 ff
	ff ff		 mov	 DWORD PTR tv692[ebp], -16 ; fffffff0H
; File C:\Program Files\Microsoft Visual Studio\2022\Professional\VC\Tools\MSVC\14.44.35207\include\xmemory

; 253  :             return _Allocate_manually_vector_aligned<_Traits>(_Bytes);

  00081	50		 push	 eax
  00082	e8 00 00 00 00	 call	 ??$_Allocate_manually_vector_aligned@U_Default_allocate_traits@std@@@std@@YAPAXI@Z ; std::_Allocate_manually_vector_aligned<std::_Default_allocate_traits>
  00087	eb 3e		 jmp	 SHORT $LN141@Emplace_re
$LN8@Emplace_re:
; File C:\Program Files\Microsoft Visual Studio\2022\Professional\VC\Tools\MSVC\14.44.35207\include\vector

; 2015 :         const size_type _Geometric = _Oldcapacity + _Oldcapacity / 2;

  00089	8d 04 0a	 lea	 eax, DWORD PTR [edx+ecx]
; File C:\Program Files\Microsoft Visual Studio\2022\Professional\VC\Tools\MSVC\14.44.35207\include\xmemory

; 117  :         if (_Count > _Max_possible) {

  0008c	8b cb		 mov	 ecx, ebx
  0008e	3b c3		 cmp	 eax, ebx
  00090	0f 43 c8	 cmovae	 ecx, eax
  00093	81 f9 aa aa aa
	0a		 cmp	 ecx, 178956970		; 0aaaaaaaH
  00099	0f 87 3a 01 00
	00		 ja	 $LN144@Emplace_re

; 119  :         }
; 120  :     }
; 121  : 
; 122  :     return _Count * _Ty_size;

  0009f	8d 34 49	 lea	 esi, DWORD PTR [ecx+ecx*2]
  000a2	c1 e6 03	 shl	 esi, 3

; 990  :         return static_cast<_Ty*>(_STD _Allocate<_New_alignof<_Ty>>(_Get_size_of_n<sizeof(_Ty)>(_Count)));

  000a5	8b c6		 mov	 eax, esi

; 122  :     return _Count * _Ty_size;

  000a7	89 75 fc	 mov	 DWORD PTR tv692[ebp], esi

; 227  :     if (_Bytes == 0) {

  000aa	85 c0		 test	 eax, eax
  000ac	75 04		 jne	 SHORT $LN23@Emplace_re

; 228  :         return nullptr;

  000ae	33 db		 xor	 ebx, ebx
  000b0	eb 1a		 jmp	 SHORT $LN22@Emplace_re
$LN23@Emplace_re:

; 229  :     }
; 230  : 
; 231  : #if _HAS_CXX20 // TRANSITION, GH-1532
; 232  :     if (_STD is_constant_evaluated()) {
; 233  :         return _Traits::_Allocate(_Bytes);
