; Listing generated by Microsoft (R) Optimizing Compiler Version 19.44.35225.0 

	TITLE	C:\IAGOS\server\v18\Source\Output\WorldServer\Release\DPSrvrLux.obj
	.686P
	.XMM
	include listing.inc
	.model	flat

INCLUDELIB LIBCMT
INCLUDELIB OLDNAMES

CONST	SEGMENT
?piecewise_construct@std@@3Upiecewise_construct_t@1@B	ORG $+1 ; std::piecewise_construct
CONST	ENDS
PUBLIC	?__empty_global_delete@@YAXPAX@Z		; __empty_global_delete
PUBLIC	?__empty_global_delete@@YAXPAXI@Z		; __empty_global_delete
PUBLIC	??0D3DXVECTOR3@@QAE@XZ				; D3DXVECTOR3::D3DXVECTOR3
PUBLIC	??$?5K@CAr@@QAEAAV0@AAK@Z			; CAr::operator>><unsigned long>
PUBLIC	?OnUseSkill@CDPSrvr@@AAEXAAVCAr@@KKPAEK@Z	; CDPSrvr::OnUseSkill
PUBLIC	?OnError@CDPSrvr@@AAEXAAVCAr@@KKPAEK@Z		; CDPSrvr::OnError
PUBLIC	?OnShipActMsg@CDPSrvr@@AAEXAAVCAr@@KKPAEK@Z	; CDPSrvr::OnShipActMsg
PUBLIC	?OnLocalPosFromIA@CDPSrvr@@AAEXAAVCAr@@KKPAEK@Z	; CDPSrvr::OnLocalPosFromIA
PUBLIC	??$?5G@CAr@@QAEAAV0@AAG@Z			; CAr::operator>><unsigned short>
PUBLIC	??$?5H@CAr@@QAEAAV0@AAH@Z			; CAr::operator>><int>
PUBLIC	??$?5UD3DXVECTOR3@@@CAr@@QAEAAV0@AAUD3DXVECTOR3@@@Z ; CAr::operator>><D3DXVECTOR3>
PUBLIC	??_C@_0BM@HMFGHCP@?$CFs?5min?3?$CFd?0?5max?3?$CFd?0?5index?3?$CFd@ ; `string'
PUBLIC	??_C@_0BJ@GPNGCFMK@GetSkillProp?5range_error@	; `string'
PUBLIC	??_C@_0EH@BPMPOHMO@2OnError?5?3?5FE_INVALIDATTACKER?5?G@ ; `string'
PUBLIC	??_C@_0GE@LFOHLBEC@2OnError?5?3?5FE_INVALIDATTACKER?5?G@ ; `string'
PUBLIC	??_C@_0CH@GFODJBIB@CDPSrvr?3?3OnError?5pUser?5?9?5Invali@ ; `string'
PUBLIC	??_C@_0EL@BHNAPBCC@OnShipActMsg?5?3?5?E?$KM?$LG?s?$LP?$KB?$LM?$KN?5?$LK?$LI?$LD?$LL?$LP?B?5@ ; `string'
EXTRN	?Error@@YAPBDPBDZZ:PROC				; Error
EXTRN	?SetPos@CObj@@QAEXABUD3DXVECTOR3@@@Z:PROC	; CObj::SetPos
EXTRN	?SetIAObjLink@CCtrl@@QAEXPAVCShip@@@Z:PROC	; CCtrl::SetIAObjLink
EXTRN	?GetMover@CProject@@QAEPAVCMover@@K@Z:PROC	; CProject::GetMover
EXTRN	?GetShip@CProject@@QAEPAVCShip@@K@Z:PROC	; CProject::GetShip
EXTRN	?VendorIsVendor@CVTInfo@@QAEHXZ:PROC		; CVTInfo::VendorIsVendor
EXTRN	?GetSkill@CMover@@QAEPAUtagSkill@@HH@Z:PROC	; CMover::GetSkill
EXTRN	?GetName@CMover@@QAEPBDH@Z:PROC			; CMover::GetName
EXTRN	?DoUseSkill@CMover@@QAEHHHKW4SKILLUSETYPE@@H@Z:PROC ; CMover::DoUseSkill
EXTRN	?AddHdr@CUser@@QAEXKG@Z:PROC			; CUser::AddHdr
EXTRN	?AddCorrReq@CUser@@QAEXPAVCMover@@@Z:PROC	; CUser::AddCorrReq
EXTRN	?GetUser@CUserMng@@QAEPAVCUser@@KK@Z:PROC	; CUserMng::GetUser
EXTRN	?AddShipActMsg@CUserMng@@QAEXPAVCMover@@PAVCShip@@KHH@Z:PROC ; CUserMng::AddShipActMsg
EXTRN	?SendActMsg@CActionShip@@QAEHW4OBJMSG@@HHH@Z:PROC ; CActionShip::SendActMsg
EXTRN	@__security_check_cookie@4:PROC
EXTRN	?prj@@3VCProject@@A:BYTE			; prj
EXTRN	?g_UserMng@@3VCUserMng@@A:BYTE			; g_UserMng
EXTRN	___security_cookie:DWORD
EXTRN	__fltused:DWORD
;	COMDAT ??_C@_0EL@BHNAPBCC@OnShipActMsg?5?3?5?E?$KM?$LG?s?$LP?$KB?$LM?$KN?5?$LK?$LI?$LD?$LL?$LP?B?5@
CONST	SEGMENT
??_C@_0EL@BHNAPBCC@OnShipActMsg?5?3?5?E?$KM?$LG?s?$LP?$KB?$LM?$KN?5?$LK?$LI?$LD?$LL?$LP?B?5@ DB 'O'
	DB	'nShipActMsg : ', 0c5H, 0acH, 0b6H, 0f3H, 0bfH, 0a1H, 0bcH, 0adH
	DB	' ', 0baH, 0b8H, 0b3H, 0bbH, 0bfH, 0c2H, ' ', 0beH, 0c6H, 0c0H
	DB	0ccH, 0b5H, 0f0H, '(%d)', 0bfH, 0cdH, ' ', 0bcH, 0adH, 0b9H, 0f6H
	DB	0bfH, 0a1H, 0bcH, 0adH, 0c0H, 0c7H, ' ', 0beH, 0c6H, 0c0H, 0ccH
	DB	0b5H, 0f0H, '(%d)', 0b0H, 0a1H, ' ', 0b4H, 0d9H, 0b8H, 0a3H, 0b4H
	DB	0d9H, 00H					; `string'
CONST	ENDS
;	COMDAT ??_C@_0CH@GFODJBIB@CDPSrvr?3?3OnError?5pUser?5?9?5Invali@
CONST	SEGMENT
??_C@_0CH@GFODJBIB@CDPSrvr?3?3OnError?5pUser?5?9?5Invali@ DB 'CDPSrvr::On'
	DB	'Error pUser - Invalid %d %d', 00H		; `string'
CONST	ENDS
;	COMDAT ??_C@_0GE@LFOHLBEC@2OnError?5?3?5FE_INVALIDATTACKER?5?G@
CONST	SEGMENT
??_C@_0GE@LFOHLBEC@2OnError?5?3?5FE_INVALIDATTACKER?5?G@ DB '2OnError : F'
	DB	'E_INVALIDATTACKER ', 0c7H, 0c7H, 0c7H, 0d8H, 0c0H, 0daH, ':%s'
	DB	'(%f,%f,%f) ', 0c0H, 0ccH, 0b7H, 0b1H, 0c1H, 0a8H, 0c0H, 0e5H, ' '
	DB	0bcH, 0adH, 0b9H, 0f6H, 0bfH, 0a1H, 0bcH, 0adH, 0b5H, 0b5H, ' '
	DB	'pAttacker', 0b4H, 0c2H, ' Invalid', 0b4H, 0d9H, '. 0x%08x', 00H ; `string'
CONST	ENDS
;	COMDAT ??_C@_0EH@BPMPOHMO@2OnError?5?3?5FE_INVALIDATTACKER?5?G@
CONST	SEGMENT
??_C@_0EH@BPMPOHMO@2OnError?5?3?5FE_INVALIDATTACKER?5?G@ DB '2OnError : F'
	DB	'E_INVALIDATTACKER ', 0c7H, 0c7H, 0c7H, 0d8H, 0c0H, 0daH, ':%s'
	DB	'(%f,%f,%f), ', 0b0H, 0f8H, 0b0H, 0ddH, 0c0H, 0daH, ':%s(%f,%f'
	DB	',%f)', 00H					; `string'
CONST	ENDS
;	COMDAT ??_C@_0BJ@GPNGCFMK@GetSkillProp?5range_error@
CONST	SEGMENT
??_C@_0BJ@GPNGCFMK@GetSkillProp?5range_error@ DB 'GetSkillProp range_erro'
	DB	'r', 00H					; `string'
CONST	ENDS
;	COMDAT ??_C@_0BM@HMFGHCP@?$CFs?5min?3?$CFd?0?5max?3?$CFd?0?5index?3?$CFd@
CONST	SEGMENT
??_C@_0BM@HMFGHCP@?$CFs?5min?3?$CFd?0?5max?3?$CFd?0?5index?3?$CFd@ DB '%s'
	DB	' min:%d, max:%d, index:%d', 00H		; `string'
CONST	ENDS
; Function compile flags: /Ogtp
; File C:\IAGOS\server\v18\Source\Source\_Network\Misc\Include\ar.h
;	COMDAT ??$?5UD3DXVECTOR3@@@CAr@@QAEAAV0@AAUD3DXVECTOR3@@@Z
_TEXT	SEGMENT
$T1 = -12						; size = 12
_t$ = 8							; size = 4
??$?5UD3DXVECTOR3@@@CAr@@QAEAAV0@AAUD3DXVECTOR3@@@Z PROC ; CAr::operator>><D3DXVECTOR3>, COMDAT
; _this$ = ecx

; 302  : {

  00000	55		 push	 ebp
  00001	8b ec		 mov	 ebp, esp
  00003	83 ec 0c	 sub	 esp, 12			; 0000000cH
  00006	8b d1		 mov	 edx, ecx

; 303  : 	if (m_lpBufCur + sizeof(T) <= m_lpBufMax)

  00008	8b 4d 08	 mov	 ecx, DWORD PTR _t$[ebp]
  0000b	56		 push	 esi
  0000c	8b 72 08	 mov	 esi, DWORD PTR [edx+8]
  0000f	8d 46 0c	 lea	 eax, DWORD PTR [esi+12]
  00012	3b 42 0c	 cmp	 eax, DWORD PTR [edx+12]
  00015	77 1b		 ja	 SHORT $LN2@operator

; 304  : 	{
; 305  : 		t = *(UNALIGNED T*)m_lpBufCur;

  00017	f3 0f 7e 06	 movq	 xmm0, QWORD PTR [esi]
  0001b	66 0f d6 01	 movq	 QWORD PTR [ecx], xmm0
  0001f	8b 46 08	 mov	 eax, DWORD PTR [esi+8]
  00022	89 41 08	 mov	 DWORD PTR [ecx+8], eax

; 312  : 	}
; 313  : 	return *this;
; 314  : }

  00025	8b c2		 mov	 eax, edx
  00027	83 42 08 0c	 add	 DWORD PTR [edx+8], 12	; 0000000cH
  0002b	5e		 pop	 esi
  0002c	8b e5		 mov	 esp, ebp
  0002e	5d		 pop	 ebp
  0002f	c2 04 00	 ret	 4
$LN2@operator:

; 306  : 		m_lpBufCur += sizeof(T);
; 307  : 	}
; 308  : 	else
; 309  : 	{
; 310  : 		t = T();

  00032	f3 0f 7e 45 f4	 movq	 xmm0, QWORD PTR $T1[ebp]
  00037	8b 45 fc	 mov	 eax, DWORD PTR $T1[ebp+8]
  0003a	66 0f d6 01	 movq	 QWORD PTR [ecx], xmm0
  0003e	89 41 08	 mov	 DWORD PTR [ecx+8], eax

; 311  : 		m_lpBufCur = m_lpBufMax;

  00041	8b 42 0c	 mov	 eax, DWORD PTR [edx+12]
  00044	89 42 08	 mov	 DWORD PTR [edx+8], eax

; 312  : 	}
; 313  : 	return *this;
; 314  : }

  00047	8b c2		 mov	 eax, edx
  00049	5e		 pop	 esi
  0004a	8b e5		 mov	 esp, ebp
  0004c	5d		 pop	 ebp
  0004d	c2 04 00	 ret	 4
??$?5UD3DXVECTOR3@@@CAr@@QAEAAV0@AAUD3DXVECTOR3@@@Z ENDP ; CAr::operator>><D3DXVECTOR3>
_TEXT	ENDS
; Function compile flags: /Ogtp
; File C:\IAGOS\server\v18\Source\Source\_Network\Misc\Include\ar.h
;	COMDAT ??$?5H@CAr@@QAEAAV0@AAH@Z
_TEXT	SEGMENT
_t$ = 8							; size = 4
??$?5H@CAr@@QAEAAV0@AAH@Z PROC				; CAr::operator>><int>, COMDAT
; _this$ = ecx

; 302  : {

  00000	55		 push	 ebp
  00001	8b ec		 mov	 ebp, esp
  00003	8b d1		 mov	 edx, ecx

; 303  : 	if (m_lpBufCur + sizeof(T) <= m_lpBufMax)

  00005	8b 4a 08	 mov	 ecx, DWORD PTR [edx+8]
  00008	8d 41 04	 lea	 eax, DWORD PTR [ecx+4]
  0000b	3b 42 0c	 cmp	 eax, DWORD PTR [edx+12]
  0000e	8b 45 08	 mov	 eax, DWORD PTR _t$[ebp]
  00011	77 0e		 ja	 SHORT $LN2@operator

; 304  : 	{
; 305  : 		t = *(UNALIGNED T*)m_lpBufCur;

  00013	8b 09		 mov	 ecx, DWORD PTR [ecx]
  00015	89 08		 mov	 DWORD PTR [eax], ecx

; 312  : 	}
; 313  : 	return *this;
; 314  : }

  00017	8b c2		 mov	 eax, edx
  00019	83 42 08 04	 add	 DWORD PTR [edx+8], 4
  0001d	5d		 pop	 ebp
  0001e	c2 04 00	 ret	 4
$LN2@operator:

; 306  : 		m_lpBufCur += sizeof(T);
; 307  : 	}
; 308  : 	else
; 309  : 	{
; 310  : 		t = T();

  00021	c7 00 00 00 00
	00		 mov	 DWORD PTR [eax], 0

; 311  : 		m_lpBufCur = m_lpBufMax;

  00027	8b 42 0c	 mov	 eax, DWORD PTR [edx+12]
  0002a	89 42 08	 mov	 DWORD PTR [edx+8], eax

; 312  : 	}
; 313  : 	return *this;
; 314  : }

  0002d	8b c2		 mov	 eax, edx
  0002f	5d		 pop	 ebp
  00030	c2 04 00	 ret	 4
??$?5H@CAr@@QAEAAV0@AAH@Z ENDP				; CAr::operator>><int>
_TEXT	ENDS
; Function compile flags: /Ogtp
; File C:\IAGOS\server\v18\Source\Source\_Network\Misc\Include\ar.h
;	COMDAT ??$?5G@CAr@@QAEAAV0@AAG@Z
_TEXT	SEGMENT
_t$ = 8							; size = 4
??$?5G@CAr@@QAEAAV0@AAG@Z PROC				; CAr::operator>><unsigned short>, COMDAT
; _this$ = ecx

; 302  : {

  00000	55		 push	 ebp
  00001	8b ec		 mov	 ebp, esp
  00003	8b d1		 mov	 edx, ecx

; 303  : 	if (m_lpBufCur + sizeof(T) <= m_lpBufMax)

  00005	8b 4a 08	 mov	 ecx, DWORD PTR [edx+8]
  00008	8d 41 02	 lea	 eax, DWORD PTR [ecx+2]
  0000b	3b 42 0c	 cmp	 eax, DWORD PTR [edx+12]
  0000e	8b 45 08	 mov	 eax, DWORD PTR _t$[ebp]
  00011	77 10		 ja	 SHORT $LN2@operator

; 304  : 	{
; 305  : 		t = *(UNALIGNED T*)m_lpBufCur;

  00013	66 8b 09	 mov	 cx, WORD PTR [ecx]
  00016	66 89 08	 mov	 WORD PTR [eax], cx

; 312  : 	}
; 313  : 	return *this;
; 314  : }

  00019	8b c2		 mov	 eax, edx
  0001b	83 42 08 02	 add	 DWORD PTR [edx+8], 2
  0001f	5d		 pop	 ebp
  00020	c2 04 00	 ret	 4
$LN2@operator:

; 306  : 		m_lpBufCur += sizeof(T);
; 307  : 	}
; 308  : 	else
; 309  : 	{
; 310  : 		t = T();

  00023	33 c9		 xor	 ecx, ecx
  00025	66 89 08	 mov	 WORD PTR [eax], cx

; 311  : 		m_lpBufCur = m_lpBufMax;

  00028	8b 42 0c	 mov	 eax, DWORD PTR [edx+12]
  0002b	89 42 08	 mov	 DWORD PTR [edx+8], eax

; 312  : 	}
; 313  : 	return *this;
; 314  : }

  0002e	8b c2		 mov	 eax, edx
  00030	5d		 pop	 ebp
  00031	c2 04 00	 ret	 4
??$?5G@CAr@@QAEAAV0@AAG@Z ENDP				; CAr::operator>><unsigned short>
_TEXT	ENDS
; Function compile flags: /Ogtp
; File C:\IAGOS\server\v18\Source\Source\WorldServer\DPSrvrLux.cpp
; File C:\IAGOS\server\v18\Source\Source\_Common\Obj.h
; File C:\IAGOS\server\v18\Source\Source\WorldServer\DPSrvrLux.cpp
; File C:\IAGOS\server\v18\Source\Source\_Common\Obj.h
; File C:\IAGOS\server\v18\Source\Source\WorldServer\DPSrvrLux.cpp
; File C:\IAGOS\server\v18\Source\Source\_Common\Obj.h
; File C:\IAGOS\server\v18\Source\Source\DX_SDK\d3dx9math.inl
; File C:\IAGOS\server\v18\Source\Source\_Common\Obj.h
; File C:\IAGOS\server\v18\Source\Source\WorldServer\DPSrvrLux.cpp
; File C:\IAGOS\server\v18\Source\Source\DX_SDK\d3dx9math.inl
; File C:\IAGOS\server\v18\Source\Source\WorldServer\DPSrvrLux.cpp
;	COMDAT ?OnLocalPosFromIA@CDPSrvr@@AAEXAAVCAr@@KKPAEK@Z
_TEXT	SEGMENT
_vLocal$ = -44						; size = 12
$T1 = -32						; size = 12
_idIA$ = -20						; size = 4
_vPos$2 = -16						; size = 12
__$ArrayPad$ = -4					; size = 4
_ar$ = 8						; size = 4
_dpidCache$ = 12					; size = 4
_dpidUser$ = 16						; size = 4
_lpBuf$ = 20						; size = 4
_uBufSize$ = 24						; size = 4
?OnLocalPosFromIA@CDPSrvr@@AAEXAAVCAr@@KKPAEK@Z PROC	; CDPSrvr::OnLocalPosFromIA, COMDAT
; _this$ = ecx

; 172  : {

  00000	55		 push	 ebp
  00001	8b ec		 mov	 ebp, esp
  00003	83 ec 2c	 sub	 esp, 44			; 0000002cH
  00006	a1 00 00 00 00	 mov	 eax, DWORD PTR ___security_cookie
  0000b	33 c5		 xor	 eax, ebp
  0000d	89 45 fc	 mov	 DWORD PTR __$ArrayPad$[ebp], eax
  00010	8b 4d 08	 mov	 ecx, DWORD PTR _ar$[ebp]

; 173  : 	D3DXVECTOR3 vLocal;
; 174  : 	OBJID		idIA;
; 175  : 	ar >> vLocal >> idIA;

  00013	8d 45 ec	 lea	 eax, DWORD PTR _idIA$[ebp]
  00016	56		 push	 esi
  00017	8b 75 10	 mov	 esi, DWORD PTR _dpidUser$[ebp]
  0001a	57		 push	 edi
  0001b	8b 7d 0c	 mov	 edi, DWORD PTR _dpidCache$[ebp]
  0001e	50		 push	 eax
  0001f	8d 45 d4	 lea	 eax, DWORD PTR _vLocal$[ebp]
  00022	50		 push	 eax
  00023	e8 00 00 00 00	 call	 ??$?5UD3DXVECTOR3@@@CAr@@QAEAAV0@AAUD3DXVECTOR3@@@Z ; CAr::operator>><D3DXVECTOR3>
  00028	8b c8		 mov	 ecx, eax
  0002a	e8 00 00 00 00	 call	 ??$?5K@CAr@@QAEAAV0@AAK@Z ; CAr::operator>><unsigned long>

; 176  : 	
; 177  : 	CUser* pUser	= g_UserMng.GetUser( dpidCache, dpidUser );

  0002f	56		 push	 esi
  00030	57		 push	 edi
  00031	b9 00 00 00 00	 mov	 ecx, OFFSET ?g_UserMng@@3VCUserMng@@A ; g_UserMng
  00036	e8 00 00 00 00	 call	 ?GetUser@CUserMng@@QAEPAVCUser@@KK@Z ; CUserMng::GetUser
  0003b	8b f8		 mov	 edi, eax
; File C:\IAGOS\server\v18\Source\Source\_Common\Obj.h

; 327  : 	return pObj && ( pObj->IsDelete() == FALSE ); 

  0003d	85 ff		 test	 edi, edi
  0003f	74 75		 je	 SHORT $LN2@OnLocalPos

; 180  : 	BOOL			IsDelete()	{ return (m_dwFlags & OBJ_FLAG_DELETE);  }

  00041	f6 47 04 01	 test	 BYTE PTR [edi+4], 1

; 327  : 	return pObj && ( pObj->IsDelete() == FALSE ); 

  00045	75 6f		 jne	 SHORT $LN2@OnLocalPos
; File C:\IAGOS\server\v18\Source\Source\WorldServer\DPSrvrLux.cpp

; 182  : 		CShip *pIA = prj.GetShip( idIA );

  00047	ff 75 ec	 push	 DWORD PTR _idIA$[ebp]
  0004a	b9 00 00 00 00	 mov	 ecx, OFFSET ?prj@@3VCProject@@A ; prj
  0004f	e8 00 00 00 00	 call	 ?GetShip@CProject@@QAEPAVCShip@@K@Z ; CProject::GetShip
  00054	8b f0		 mov	 esi, eax
; File C:\IAGOS\server\v18\Source\Source\_Common\Obj.h

; 327  : 	return pObj && ( pObj->IsDelete() == FALSE ); 

  00056	85 f6		 test	 esi, esi
  00058	74 5c		 je	 SHORT $LN2@OnLocalPos

; 180  : 	BOOL			IsDelete()	{ return (m_dwFlags & OBJ_FLAG_DELETE);  }

  0005a	f6 46 04 01	 test	 BYTE PTR [esi+4], 1

; 327  : 	return pObj && ( pObj->IsDelete() == FALSE ); 

  0005e	75 56		 jne	 SHORT $LN2@OnLocalPos

; 215  : 	D3DXVECTOR3		GetPos()	{ return m_vPos; }

  00060	f3 0f 7e 86 60
	01 00 00	 movq	 xmm0, QWORD PTR [esi+352]
; File C:\IAGOS\server\v18\Source\Source\WorldServer\DPSrvrLux.cpp

; 187  : 		pUser->SetPos( vPos );

  00068	8b cf		 mov	 ecx, edi
; File C:\IAGOS\server\v18\Source\Source\_Common\Obj.h

; 215  : 	D3DXVECTOR3		GetPos()	{ return m_vPos; }

  0006a	8b 86 68 01 00
	00		 mov	 eax, DWORD PTR [esi+360]
  00070	66 0f d6 45 e0	 movq	 QWORD PTR $T1[ebp], xmm0
; File C:\IAGOS\server\v18\Source\Source\DX_SDK\d3dx9math.inl

; 377  :     return D3DXVECTOR3(x + v.x, y + v.y, z + v.z);

  00075	f3 0f 10 45 d4	 movss	 xmm0, DWORD PTR _vLocal$[ebp]
  0007a	f3 0f 58 45 e0	 addss	 xmm0, DWORD PTR $T1[ebp]
; File C:\IAGOS\server\v18\Source\Source\_Common\Obj.h

; 215  : 	D3DXVECTOR3		GetPos()	{ return m_vPos; }

  0007f	89 45 e8	 mov	 DWORD PTR $T1[ebp+8], eax
; File C:\IAGOS\server\v18\Source\Source\WorldServer\DPSrvrLux.cpp

; 187  : 		pUser->SetPos( vPos );

  00082	8d 45 f0	 lea	 eax, DWORD PTR _vPos$2[ebp]
  00085	50		 push	 eax
; File C:\IAGOS\server\v18\Source\Source\DX_SDK\d3dx9math.inl

; 300  :     x = fx;

  00086	f3 0f 11 45 f0	 movss	 DWORD PTR _vPos$2[ebp], xmm0

; 377  :     return D3DXVECTOR3(x + v.x, y + v.y, z + v.z);

  0008b	f3 0f 10 45 e4	 movss	 xmm0, DWORD PTR $T1[ebp+4]
  00090	f3 0f 58 45 d8	 addss	 xmm0, DWORD PTR _vLocal$[ebp+4]

; 301  :     y = fy;

  00095	f3 0f 11 45 f4	 movss	 DWORD PTR _vPos$2[ebp+4], xmm0

; 377  :     return D3DXVECTOR3(x + v.x, y + v.y, z + v.z);

  0009a	f3 0f 10 45 e8	 movss	 xmm0, DWORD PTR $T1[ebp+8]
  0009f	f3 0f 58 45 dc	 addss	 xmm0, DWORD PTR _vLocal$[ebp+8]

; 302  :     z = fz;

  000a4	f3 0f 11 45 f8	 movss	 DWORD PTR _vPos$2[ebp+8], xmm0
; File C:\IAGOS\server\v18\Source\Source\WorldServer\DPSrvrLux.cpp

; 187  : 		pUser->SetPos( vPos );

  000a9	e8 00 00 00 00	 call	 ?SetPos@CObj@@QAEXABUD3DXVECTOR3@@@Z ; CObj::SetPos

; 188  : 		pUser->SetIAObjLink( pIA );

  000ae	56		 push	 esi
  000af	8b cf		 mov	 ecx, edi
  000b1	e8 00 00 00 00	 call	 ?SetIAObjLink@CCtrl@@QAEXPAVCShip@@@Z ; CCtrl::SetIAObjLink
$LN2@OnLocalPos:

; 189  : 	}
; 190  : }

  000b6	8b 4d fc	 mov	 ecx, DWORD PTR __$ArrayPad$[ebp]
  000b9	5f		 pop	 edi
  000ba	33 cd		 xor	 ecx, ebp
  000bc	5e		 pop	 esi
  000bd	e8 00 00 00 00	 call	 @__security_check_cookie@4
  000c2	8b e5		 mov	 esp, ebp
  000c4	5d		 pop	 ebp
  000c5	c2 14 00	 ret	 20			; 00000014H
?OnLocalPosFromIA@CDPSrvr@@AAEXAAVCAr@@KKPAEK@Z ENDP	; CDPSrvr::OnLocalPosFromIA
_TEXT	ENDS
; Function compile flags: /Ogtp
; File C:\IAGOS\server\v18\Source\Source\WorldServer\DPSrvrLux.cpp
; File C:\IAGOS\server\v18\Source\Source\_Common\Obj.h
; File C:\IAGOS\server\v18\Source\Source\WorldServer\DPSrvrLux.cpp
; File C:\IAGOS\server\v18\Source\Source\_Common\Obj.h
; File C:\IAGOS\server\v18\Source\Source\WorldServer\DPSrvrLux.cpp
; File C:\IAGOS\server\v18\Source\Source\_Common\Obj.h
; File C:\IAGOS\server\v18\Source\Source\_Common\Ship.h
; File C:\IAGOS\server\v18\Source\Source\WorldServer\DPSrvrLux.cpp
;	COMDAT ?OnShipActMsg@CDPSrvr@@AAEXAAVCAr@@KKPAEK@Z
_TEXT	SEGMENT
_idShip$ = -16						; size = 4
_dwMsg$ = -12						; size = 4
_nParam1$ = -8						; size = 4
_nParam2$ = -4						; size = 4
_ar$ = 8						; size = 4
_pShip$1$ = 8						; size = 4
_dpidCache$ = 12					; size = 4
_dpidUser$ = 16						; size = 4
_pUser$1$ = 16						; size = 4
_lpBuf$ = 20						; size = 4
_uBufSize$ = 24						; size = 4
?OnShipActMsg@CDPSrvr@@AAEXAAVCAr@@KKPAEK@Z PROC	; CDPSrvr::OnShipActMsg, COMDAT
; _this$ = ecx

; 145  : {

  00000	55		 push	 ebp
  00001	8b ec		 mov	 ebp, esp
  00003	83 ec 10	 sub	 esp, 16			; 00000010H

; 146  : 	DWORD dwMsg;
; 147  : 	OBJID idShip;
; 148  : 	int nParam1, nParam2;
; 149  : 	ar >> dwMsg >> nParam1 >> nParam2 >> idShip;

  00006	8b 4d 08	 mov	 ecx, DWORD PTR _ar$[ebp]
  00009	8d 45 f0	 lea	 eax, DWORD PTR _idShip$[ebp]
  0000c	50		 push	 eax
  0000d	8d 45 fc	 lea	 eax, DWORD PTR _nParam2$[ebp]
  00010	50		 push	 eax
  00011	8d 45 f8	 lea	 eax, DWORD PTR _nParam1$[ebp]
  00014	50		 push	 eax
  00015	8d 45 f4	 lea	 eax, DWORD PTR _dwMsg$[ebp]
  00018	50		 push	 eax
  00019	e8 00 00 00 00	 call	 ??$?5K@CAr@@QAEAAV0@AAK@Z ; CAr::operator>><unsigned long>
  0001e	8b c8		 mov	 ecx, eax
  00020	e8 00 00 00 00	 call	 ??$?5H@CAr@@QAEAAV0@AAH@Z ; CAr::operator>><int>
  00025	8b c8		 mov	 ecx, eax
  00027	e8 00 00 00 00	 call	 ??$?5H@CAr@@QAEAAV0@AAH@Z ; CAr::operator>><int>
  0002c	8b c8		 mov	 ecx, eax
  0002e	e8 00 00 00 00	 call	 ??$?5K@CAr@@QAEAAV0@AAK@Z ; CAr::operator>><unsigned long>

; 150  : 	
; 151  : 	CUser* pUser	= g_UserMng.GetUser( dpidCache, dpidUser );

  00033	ff 75 10	 push	 DWORD PTR _dpidUser$[ebp]
  00036	b9 00 00 00 00	 mov	 ecx, OFFSET ?g_UserMng@@3VCUserMng@@A ; g_UserMng
  0003b	ff 75 0c	 push	 DWORD PTR _dpidCache$[ebp]
  0003e	e8 00 00 00 00	 call	 ?GetUser@CUserMng@@QAEPAVCUser@@KK@Z ; CUserMng::GetUser
  00043	89 45 10	 mov	 DWORD PTR _pUser$1$[ebp], eax
; File C:\IAGOS\server\v18\Source\Source\_Common\Obj.h

; 327  : 	return pObj && ( pObj->IsDelete() == FALSE ); 

  00046	85 c0		 test	 eax, eax
  00048	74 7f		 je	 SHORT $LN5@OnShipActM

; 180  : 	BOOL			IsDelete()	{ return (m_dwFlags & OBJ_FLAG_DELETE);  }

  0004a	f6 40 04 01	 test	 BYTE PTR [eax+4], 1

; 327  : 	return pObj && ( pObj->IsDelete() == FALSE ); 

  0004e	75 79		 jne	 SHORT $LN5@OnShipActM
; File C:\IAGOS\server\v18\Source\Source\WorldServer\DPSrvrLux.cpp

; 154  : 		if( IsInvalidObj( pUser->GetIAObjLink() ) )		return;

  00050	8b 88 c0 01 00
	00		 mov	 ecx, DWORD PTR [eax+448]
; File C:\IAGOS\server\v18\Source\Source\_Common\Obj.h

; 327  : 	return pObj && ( pObj->IsDelete() == FALSE ); 

  00056	85 c9		 test	 ecx, ecx
  00058	74 6f		 je	 SHORT $LN5@OnShipActM

; 180  : 	BOOL			IsDelete()	{ return (m_dwFlags & OBJ_FLAG_DELETE);  }

  0005a	f6 41 04 01	 test	 BYTE PTR [ecx+4], 1

; 327  : 	return pObj && ( pObj->IsDelete() == FALSE ); 

  0005e	75 69		 jne	 SHORT $LN5@OnShipActM
; File C:\IAGOS\server\v18\Source\Source\WorldServer\DPSrvrLux.cpp

; 155  : 		if( idShip != pUser->GetIAObjLink()->GetId() )

  00060	8b 89 bc 01 00
	00		 mov	 ecx, DWORD PTR [ecx+444]
  00066	8b 45 f0	 mov	 eax, DWORD PTR _idShip$[ebp]
  00069	3b c1		 cmp	 eax, ecx
  0006b	74 15		 je	 SHORT $LN4@OnShipActM

; 156  : 		{
; 157  : 			Error( "OnShipActMsg : Ĺ¬¶óżˇĽ­ ş¸ł»żÂ ľĆŔĚµđ(%d)żÍ Ľ­ąöżˇĽ­ŔÇ ľĆŔĚµđ(%d)°ˇ ´Ů¸Ł´Ů", idShip, pUser->GetIAObjLink()->GetId() );

  0006d	51		 push	 ecx
  0006e	50		 push	 eax
  0006f	68 00 00 00 00	 push	 OFFSET ??_C@_0EL@BHNAPBCC@OnShipActMsg?5?3?5?E?$KM?$LG?s?$LP?$KB?$LM?$KN?5?$LK?$LI?$LD?$LL?$LP?B?5@
  00074	e8 00 00 00 00	 call	 ?Error@@YAPBDPBDZZ	; Error
  00079	83 c4 0c	 add	 esp, 12			; 0000000cH

; 167  : 		}
; 168  : 	}
; 169  : }

  0007c	8b e5		 mov	 esp, ebp
  0007e	5d		 pop	 ebp
  0007f	c2 14 00	 ret	 20			; 00000014H
$LN4@OnShipActM:

; 158  : 			return;
; 159  : 		}
; 160  : 		
; 161  : 		CShip *pShip = prj.GetShip( idShip );

  00082	50		 push	 eax
  00083	b9 00 00 00 00	 mov	 ecx, OFFSET ?prj@@3VCProject@@A ; prj
  00088	e8 00 00 00 00	 call	 ?GetShip@CProject@@QAEPAVCShip@@K@Z ; CProject::GetShip
  0008d	89 45 08	 mov	 DWORD PTR _pShip$1$[ebp], eax
; File C:\IAGOS\server\v18\Source\Source\_Common\Obj.h

; 327  : 	return pObj && ( pObj->IsDelete() == FALSE ); 

  00090	85 c0		 test	 eax, eax
  00092	74 35		 je	 SHORT $LN5@OnShipActM

; 180  : 	BOOL			IsDelete()	{ return (m_dwFlags & OBJ_FLAG_DELETE);  }

  00094	f6 40 04 01	 test	 BYTE PTR [eax+4], 1

; 327  : 	return pObj && ( pObj->IsDelete() == FALSE ); 

  00098	75 2f		 jne	 SHORT $LN5@OnShipActM
; File C:\IAGOS\server\v18\Source\Source\_Common\Ship.h

; 36   : 		return m_Act.SendActMsg( dwMsg, nParam1, nParam2, nParam3 );

  0009a	6a 00		 push	 0
  0009c	ff 75 fc	 push	 DWORD PTR _nParam2$[ebp]
  0009f	8d 88 34 02 00
	00		 lea	 ecx, DWORD PTR [eax+564]
  000a5	ff 75 f8	 push	 DWORD PTR _nParam1$[ebp]
  000a8	ff 75 f4	 push	 DWORD PTR _dwMsg$[ebp]
  000ab	e8 00 00 00 00	 call	 ?SendActMsg@CActionShip@@QAEHW4OBJMSG@@HHH@Z ; CActionShip::SendActMsg
; File C:\IAGOS\server\v18\Source\Source\WorldServer\DPSrvrLux.cpp

; 166  : 			g_UserMng.AddShipActMsg( pUser, pShip, dwMsg, nParam1, nParam2 );

  000b0	ff 75 fc	 push	 DWORD PTR _nParam2$[ebp]
  000b3	b9 00 00 00 00	 mov	 ecx, OFFSET ?g_UserMng@@3VCUserMng@@A ; g_UserMng
  000b8	ff 75 f8	 push	 DWORD PTR _nParam1$[ebp]
  000bb	ff 75 f4	 push	 DWORD PTR _dwMsg$[ebp]
  000be	ff 75 08	 push	 DWORD PTR _pShip$1$[ebp]
  000c1	ff 75 10	 push	 DWORD PTR _pUser$1$[ebp]
  000c4	e8 00 00 00 00	 call	 ?AddShipActMsg@CUserMng@@QAEXPAVCMover@@PAVCShip@@KHH@Z ; CUserMng::AddShipActMsg
$LN5@OnShipActM:

; 167  : 		}
; 168  : 	}
; 169  : }

  000c9	8b e5		 mov	 esp, ebp
  000cb	5d		 pop	 ebp
  000cc	c2 14 00	 ret	 20			; 00000014H
?OnShipActMsg@CDPSrvr@@AAEXAAVCAr@@KKPAEK@Z ENDP	; CDPSrvr::OnShipActMsg
_TEXT	ENDS
; Function compile flags: /Ogtp
; File C:\IAGOS\server\v18\Source\Source\WorldServer\DPSrvrLux.cpp
; File C:\IAGOS\server\v18\Source\Source\_Common\Obj.h
; File C:\IAGOS\server\v18\Source\Source\WorldServer\DPSrvrLux.cpp
; File C:\IAGOS\server\v18\Source\Source\_Common\Obj.h
; File C:\IAGOS\server\v18\Source\Source\WorldServer\DPSrvrLux.cpp
; File C:\IAGOS\server\v18\Source\Source\_Common\Obj.h
; File C:\IAGOS\server\v18\Source\Source\WorldServer\DPSrvrLux.cpp
; File C:\IAGOS\server\v18\Source\Source\_Common\Obj.h
; File C:\IAGOS\server\v18\Source\Source\WorldServer\DPSrvrLux.cpp
; File C:\IAGOS\server\v18\Source\Source\_Common\Obj.h
; File C:\IAGOS\server\v18\Source\Source\WorldServer\DPSrvrLux.cpp
; File C:\IAGOS\server\v18\Source\Source\_Common\Obj.h
; File C:\IAGOS\server\v18\Source\Source\WorldServer\DPSrvrLux.cpp
; File C:\IAGOS\server\v18\Source\Source\_Common\Obj.h
; File C:\IAGOS\server\v18\Source\Source\WorldServer\DPSrvrLux.cpp
;	COMDAT ?OnError@CDPSrvr@@AAEXAAVCAr@@KKPAEK@Z
_TEXT	SEGMENT
$T1 = -72						; size = 12
$T2 = -72						; size = 12
$T3 = -60						; size = 12
$T4 = -60						; size = 12
$T5 = -48						; size = 12
$T6 = -48						; size = 12
$T7 = -36						; size = 12
$T8 = -24						; size = 12
$T9 = -12						; size = 12
_ar$ = 8						; size = 4
_dpidCache$ = 12					; size = 4
_nData$ = 12						; size = 4
_dpidUser$ = 16						; size = 4
_nCode$ = 16						; size = 4
_lpBuf$ = 20						; size = 4
_uBufSize$ = 24						; size = 4
?OnError@CDPSrvr@@AAEXAAVCAr@@KKPAEK@Z PROC		; CDPSrvr::OnError, COMDAT
; _this$ = ecx

; 107  : {

  00000	55		 push	 ebp
  00001	8b ec		 mov	 ebp, esp
  00003	83 ec 48	 sub	 esp, 72			; 00000048H

; 108  : 	int		nCode, nData;
; 109  : 	
; 110  : 	CUser* pUser	= g_UserMng.GetUser( dpidCache, dpidUser );

  00006	b9 00 00 00 00	 mov	 ecx, OFFSET ?g_UserMng@@3VCUserMng@@A ; g_UserMng
  0000b	53		 push	 ebx
  0000c	8b 5d 0c	 mov	 ebx, DWORD PTR _dpidCache$[ebp]
  0000f	56		 push	 esi
  00010	57		 push	 edi
  00011	8b 7d 10	 mov	 edi, DWORD PTR _dpidUser$[ebp]
  00014	57		 push	 edi
  00015	53		 push	 ebx
  00016	e8 00 00 00 00	 call	 ?GetUser@CUserMng@@QAEPAVCUser@@KK@Z ; CUserMng::GetUser
  0001b	8b f0		 mov	 esi, eax
; File C:\IAGOS\server\v18\Source\Source\_Common\Obj.h

; 327  : 	return pObj && ( pObj->IsDelete() == FALSE ); 

  0001d	85 f6		 test	 esi, esi
  0001f	0f 84 aa 01 00
	00		 je	 $LN4@OnError

; 180  : 	BOOL			IsDelete()	{ return (m_dwFlags & OBJ_FLAG_DELETE);  }

  00025	f6 46 04 01	 test	 BYTE PTR [esi+4], 1

; 327  : 	return pObj && ( pObj->IsDelete() == FALSE ); 

  00029	0f 85 a0 01 00
	00		 jne	 $LN4@OnError
; File C:\IAGOS\server\v18\Source\Source\WorldServer\DPSrvrLux.cpp

; 113  : 		ar >> nCode >> nData;

  0002f	8b 4d 08	 mov	 ecx, DWORD PTR _ar$[ebp]
  00032	8d 45 0c	 lea	 eax, DWORD PTR _nData$[ebp]
  00035	50		 push	 eax
  00036	8d 45 10	 lea	 eax, DWORD PTR _nCode$[ebp]
  00039	50		 push	 eax
  0003a	e8 00 00 00 00	 call	 ??$?5H@CAr@@QAEAAV0@AAH@Z ; CAr::operator>><int>
  0003f	8b c8		 mov	 ecx, eax
  00041	e8 00 00 00 00	 call	 ??$?5H@CAr@@QAEAAV0@AAH@Z ; CAr::operator>><int>

; 114  : 		switch( nCode )

  00046	8b 45 10	 mov	 eax, DWORD PTR _nCode$[ebp]
  00049	83 e8 01	 sub	 eax, 1
  0004c	0f 85 8c 01 00
	00		 jne	 $LN5@OnError

; 115  : 		{
; 116  : 		case FE_GENERAL:
; 117  : 			break;
; 118  : 		case FE_INVALIDATTACKER:	// Ĺ¬¶óŔĚľđĆ®żˇĽ­ ľîĹÂÄż°ˇ invalidÇŃ°ćżě(ŔŻ·É¸÷ ąö±×)
; 119  : 			{
; 120  : #ifndef _DEBUG
; 121  : 				OBJID idAttacker = (OBJID)nData;
; 122  : 				CMover *pAttacker = prj.GetMover( idAttacker );

  00052	8b 5d 0c	 mov	 ebx, DWORD PTR _nData$[ebp]
  00055	b9 00 00 00 00	 mov	 ecx, OFFSET ?prj@@3VCProject@@A ; prj
  0005a	53		 push	 ebx
  0005b	e8 00 00 00 00	 call	 ?GetMover@CProject@@QAEPAVCMover@@K@Z ; CProject::GetMover
  00060	8b f8		 mov	 edi, eax
; File C:\IAGOS\server\v18\Source\Source\_Common\Obj.h

; 327  : 	return pObj && ( pObj->IsDelete() == FALSE ); 

  00062	85 ff		 test	 edi, edi
  00064	0f 84 ec 00 00
	00		 je	 $LN19@OnError

; 180  : 	BOOL			IsDelete()	{ return (m_dwFlags & OBJ_FLAG_DELETE);  }

  0006a	f6 47 04 01	 test	 BYTE PTR [edi+4], 1

; 327  : 	return pObj && ( pObj->IsDelete() == FALSE ); 

  0006e	0f 85 e2 00 00
	00		 jne	 $LN19@OnError

; 215  : 	D3DXVECTOR3		GetPos()	{ return m_vPos; }

  00074	f3 0f 7e 87 60
	01 00 00	 movq	 xmm0, QWORD PTR [edi+352]
; File C:\IAGOS\server\v18\Source\Source\WorldServer\DPSrvrLux.cpp

; 125  : 					Error( "2OnError : FE_INVALIDATTACKER ÇÇÇŘŔÚ:%s(%f,%f,%f), °ř°ÝŔÚ:%s(%f,%f,%f)", pUser->GetName(), pUser->GetPos().x, pUser->GetPos().y, pUser->GetPos().z,

  0007c	83 ec 18	 sub	 esp, 24			; 00000018H
; File C:\IAGOS\server\v18\Source\Source\_Common\Obj.h

; 215  : 	D3DXVECTOR3		GetPos()	{ return m_vPos; }

  0007f	8b 87 68 01 00
	00		 mov	 eax, DWORD PTR [edi+360]
; File C:\IAGOS\server\v18\Source\Source\WorldServer\DPSrvrLux.cpp

; 125  : 					Error( "2OnError : FE_INVALIDATTACKER ÇÇÇŘŔÚ:%s(%f,%f,%f), °ř°ÝŔÚ:%s(%f,%f,%f)", pUser->GetName(), pUser->GetPos().x, pUser->GetPos().y, pUser->GetPos().z,

  00085	8b cf		 mov	 ecx, edi
; File C:\IAGOS\server\v18\Source\Source\_Common\Obj.h

; 215  : 	D3DXVECTOR3		GetPos()	{ return m_vPos; }

  00087	66 0f d6 45 f4	 movq	 QWORD PTR $T9[ebp], xmm0
  0008c	f3 0f 7e c0	 movq	 xmm0, xmm0
  00090	66 0f d6 45 e8	 movq	 QWORD PTR $T8[ebp], xmm0
  00095	f3 0f 7e 87 60
	01 00 00	 movq	 xmm0, QWORD PTR [edi+352]
  0009d	66 0f d6 45 dc	 movq	 QWORD PTR $T7[ebp], xmm0
  000a2	f3 0f 7e 86 60
	01 00 00	 movq	 xmm0, QWORD PTR [esi+352]
  000aa	66 0f d6 45 d0	 movq	 QWORD PTR $T5[ebp], xmm0
  000af	f3 0f 7e c0	 movq	 xmm0, xmm0
  000b3	66 0f d6 45 c4	 movq	 QWORD PTR $T3[ebp], xmm0
  000b8	f3 0f 7e 86 60
	01 00 00	 movq	 xmm0, QWORD PTR [esi+352]
  000c0	66 0f d6 45 b8	 movq	 QWORD PTR $T1[ebp], xmm0
  000c5	89 45 fc	 mov	 DWORD PTR $T9[ebp+8], eax
  000c8	f3 0f 10 45 fc	 movss	 xmm0, DWORD PTR $T9[ebp+8]
; File C:\IAGOS\server\v18\Source\Source\WorldServer\DPSrvrLux.cpp

; 125  : 					Error( "2OnError : FE_INVALIDATTACKER ÇÇÇŘŔÚ:%s(%f,%f,%f), °ř°ÝŔÚ:%s(%f,%f,%f)", pUser->GetName(), pUser->GetPos().x, pUser->GetPos().y, pUser->GetPos().z,

  000cd	0f 5a c0	 cvtps2pd xmm0, xmm0
; File C:\IAGOS\server\v18\Source\Source\_Common\Obj.h

; 215  : 	D3DXVECTOR3		GetPos()	{ return m_vPos; }

  000d0	8b 86 68 01 00
	00		 mov	 eax, DWORD PTR [esi+360]
  000d6	89 45 d8	 mov	 DWORD PTR $T5[ebp+8], eax
; File C:\IAGOS\server\v18\Source\Source\WorldServer\DPSrvrLux.cpp

; 125  : 					Error( "2OnError : FE_INVALIDATTACKER ÇÇÇŘŔÚ:%s(%f,%f,%f), °ř°ÝŔÚ:%s(%f,%f,%f)", pUser->GetName(), pUser->GetPos().x, pUser->GetPos().y, pUser->GetPos().z,

  000d9	f2 0f 11 44 24
	10		 movsd	 QWORD PTR [esp+16], xmm0
  000df	f3 0f 10 45 ec	 movss	 xmm0, DWORD PTR $T8[ebp+4]
  000e4	0f 5a c0	 cvtps2pd xmm0, xmm0
  000e7	f2 0f 11 44 24
	08		 movsd	 QWORD PTR [esp+8], xmm0
  000ed	f3 0f 10 45 dc	 movss	 xmm0, DWORD PTR $T7[ebp]
  000f2	0f 5a c0	 cvtps2pd xmm0, xmm0
  000f5	f2 0f 11 04 24	 movsd	 QWORD PTR [esp], xmm0
  000fa	6a 00		 push	 0
  000fc	e8 00 00 00 00	 call	 ?GetName@CMover@@QAEPBDH@Z ; CMover::GetName
  00101	f3 0f 10 45 d8	 movss	 xmm0, DWORD PTR $T5[ebp+8]
  00106	8b ce		 mov	 ecx, esi
  00108	0f 5a c0	 cvtps2pd xmm0, xmm0
  0010b	50		 push	 eax
  0010c	83 ec 18	 sub	 esp, 24			; 00000018H
  0010f	f2 0f 11 44 24
	10		 movsd	 QWORD PTR [esp+16], xmm0
  00115	f3 0f 10 45 c8	 movss	 xmm0, DWORD PTR $T3[ebp+4]
  0011a	0f 5a c0	 cvtps2pd xmm0, xmm0
  0011d	f2 0f 11 44 24
	08		 movsd	 QWORD PTR [esp+8], xmm0
  00123	f3 0f 10 45 b8	 movss	 xmm0, DWORD PTR $T1[ebp]
  00128	0f 5a c0	 cvtps2pd xmm0, xmm0
  0012b	f2 0f 11 04 24	 movsd	 QWORD PTR [esp], xmm0
  00130	6a 00		 push	 0
  00132	e8 00 00 00 00	 call	 ?GetName@CMover@@QAEPBDH@Z ; CMover::GetName
  00137	50		 push	 eax
  00138	68 00 00 00 00	 push	 OFFSET ??_C@_0EH@BPMPOHMO@2OnError?5?3?5FE_INVALIDATTACKER?5?G@
  0013d	e8 00 00 00 00	 call	 ?Error@@YAPBDPBDZZ	; Error
  00142	83 c4 3c	 add	 esp, 60			; 0000003cH

; 126  : 						pAttacker->GetName(), pAttacker->GetPos().x, pAttacker->GetPos().y, pAttacker->GetPos().z );
; 127  : 					pUser->AddCorrReq( pAttacker );	// żäĂ»ÇŃ Ĺ¬¶óżˇ°Ô ŔÎąë¸®µĺÇŃ ľîĹÂÄż¸¦ ´Ů˝Ă ş¸ł»ÁÜ.

  00145	8b ce		 mov	 ecx, esi
  00147	57		 push	 edi
  00148	e8 00 00 00 00	 call	 ?AddCorrReq@CUser@@QAEXPAVCMover@@@Z ; CUser::AddCorrReq
  0014d	5f		 pop	 edi

; 142  : }

  0014e	5e		 pop	 esi
  0014f	5b		 pop	 ebx
  00150	8b e5		 mov	 esp, ebp
  00152	5d		 pop	 ebp
  00153	c2 14 00	 ret	 20			; 00000014H
$LN19@OnError:
; File C:\IAGOS\server\v18\Source\Source\_Common\Obj.h

; 215  : 	D3DXVECTOR3		GetPos()	{ return m_vPos; }

  00156	f3 0f 7e 86 60
	01 00 00	 movq	 xmm0, QWORD PTR [esi+352]
; File C:\IAGOS\server\v18\Source\Source\WorldServer\DPSrvrLux.cpp

; 130  : 					Error( "2OnError : FE_INVALIDATTACKER ÇÇÇŘŔÚ:%s(%f,%f,%f) ŔĚ·±Á¨Ŕĺ Ľ­ąöżˇĽ­µµ pAttacker´Â Invalid´Ů. 0x%08x", 

  0015e	8b ce		 mov	 ecx, esi
; File C:\IAGOS\server\v18\Source\Source\_Common\Obj.h

; 215  : 	D3DXVECTOR3		GetPos()	{ return m_vPos; }

  00160	8b 86 68 01 00
	00		 mov	 eax, DWORD PTR [esi+360]
  00166	66 0f d6 45 b8	 movq	 QWORD PTR $T2[ebp], xmm0
  0016b	f3 0f 7e c0	 movq	 xmm0, xmm0
  0016f	66 0f d6 45 c4	 movq	 QWORD PTR $T4[ebp], xmm0
  00174	f3 0f 7e 86 60
	01 00 00	 movq	 xmm0, QWORD PTR [esi+352]
  0017c	66 0f d6 45 d0	 movq	 QWORD PTR $T6[ebp], xmm0
  00181	89 45 c0	 mov	 DWORD PTR $T2[ebp+8], eax
  00184	f3 0f 10 45 c0	 movss	 xmm0, DWORD PTR $T2[ebp+8]
; File C:\IAGOS\server\v18\Source\Source\WorldServer\DPSrvrLux.cpp

; 130  : 					Error( "2OnError : FE_INVALIDATTACKER ÇÇÇŘŔÚ:%s(%f,%f,%f) ŔĚ·±Á¨Ŕĺ Ľ­ąöżˇĽ­µµ pAttacker´Â Invalid´Ů. 0x%08x", 

  00189	0f 5a c0	 cvtps2pd xmm0, xmm0
  0018c	53		 push	 ebx
  0018d	83 ec 18	 sub	 esp, 24			; 00000018H
  00190	f2 0f 11 44 24
	10		 movsd	 QWORD PTR [esp+16], xmm0
  00196	f3 0f 10 45 c8	 movss	 xmm0, DWORD PTR $T4[ebp+4]
  0019b	0f 5a c0	 cvtps2pd xmm0, xmm0
  0019e	f2 0f 11 44 24
	08		 movsd	 QWORD PTR [esp+8], xmm0
  001a4	f3 0f 10 45 d0	 movss	 xmm0, DWORD PTR $T6[ebp]
  001a9	0f 5a c0	 cvtps2pd xmm0, xmm0
  001ac	f2 0f 11 04 24	 movsd	 QWORD PTR [esp], xmm0
  001b1	6a 00		 push	 0
  001b3	e8 00 00 00 00	 call	 ?GetName@CMover@@QAEPBDH@Z ; CMover::GetName
  001b8	50		 push	 eax
  001b9	68 00 00 00 00	 push	 OFFSET ??_C@_0GE@LFOHLBEC@2OnError?5?3?5FE_INVALIDATTACKER?5?G@
  001be	e8 00 00 00 00	 call	 ?Error@@YAPBDPBDZZ	; Error
  001c3	83 c4 24	 add	 esp, 36			; 00000024H
  001c6	5f		 pop	 edi

; 142  : }

  001c7	5e		 pop	 esi
  001c8	5b		 pop	 ebx
  001c9	8b e5		 mov	 esp, ebp
  001cb	5d		 pop	 ebp
  001cc	c2 14 00	 ret	 20			; 00000014H
$LN4@OnError:

; 131  : 					pUser->GetName(), pUser->GetPos().x, pUser->GetPos().y, pUser->GetPos().z,
; 132  : 					nData );
; 133  : 				
; 134  : #endif // not debug
; 135  : 				//		case NEXT:
; 136  : 				
; 137  : 			}
; 138  : 			break;
; 139  : 		}
; 140  : 	} else
; 141  : 		Error( "CDPSrvr::OnError pUser - Invalid %d %d", dpidCache, dpidUser );

  001cf	57		 push	 edi
  001d0	53		 push	 ebx
  001d1	68 00 00 00 00	 push	 OFFSET ??_C@_0CH@GFODJBIB@CDPSrvr?3?3OnError?5pUser?5?9?5Invali@
  001d6	e8 00 00 00 00	 call	 ?Error@@YAPBDPBDZZ	; Error
  001db	83 c4 0c	 add	 esp, 12			; 0000000cH
$LN5@OnError:

; 142  : }

  001de	5f		 pop	 edi
  001df	5e		 pop	 esi
  001e0	5b		 pop	 ebx
  001e1	8b e5		 mov	 esp, ebp
  001e3	5d		 pop	 ebp
  001e4	c2 14 00	 ret	 20			; 00000014H
?OnError@CDPSrvr@@AAEXAAVCAr@@KKPAEK@Z ENDP		; CDPSrvr::OnError
_TEXT	ENDS
; Function compile flags: /Ogtp
; File C:\IAGOS\server\v18\Source\Source\WorldServer\DPSrvrLux.cpp
; File C:\IAGOS\server\v18\Source\Source\_Common\Obj.h
; File C:\IAGOS\server\v18\Source\Source\WorldServer\DPSrvrLux.cpp
; File C:\IAGOS\server\v18\Source\Source\_Common\Project.h
; File C:\IAGOS\server\v18\Source\Source\_Common\data.h
; File C:\IAGOS\server\v18\Source\Source\WorldServer\DPSrvrLux.cpp
; File C:\IAGOS\server\v18\Source\Source\_Common\Project.h
; File C:\IAGOS\server\v18\Source\Source\WorldServer\DPSrvrLux.cpp
;	COMDAT ?OnUseSkill@CDPSrvr@@AAEXAAVCAr@@KKPAEK@Z
_TEXT	SEGMENT
_objid$ = -12						; size = 4
_nUseType$ = -8						; size = 4
_wType$ = -4						; size = 2
_wId$ = -4						; size = 2
_ar$ = 8						; size = 4
_bControl$ = 8						; size = 4
_dpidCache$ = 12					; size = 4
_dpidUser$ = 16						; size = 4
_lpBuf$ = 20						; size = 4
_uBufSize$ = 24						; size = 4
?OnUseSkill@CDPSrvr@@AAEXAAVCAr@@KKPAEK@Z PROC		; CDPSrvr::OnUseSkill, COMDAT
; _this$ = ecx

; 33   : {

  00000	55		 push	 ebp
  00001	8b ec		 mov	 ebp, esp
  00003	83 ec 0c	 sub	 esp, 12			; 0000000cH

; 34   : 	WORD wType;			// Á÷ľ÷˝şĹłŔĚłÄ, ¶óŔĚĽ±˝ş˝şĹłŔĚłÄ ±¸şĐÇĎ´Â şŻĽö - 2005.10.04 ŔÇąĚľřŔ˝ 
; 35   : 	WORD wId;
; 36   : 	OBJID objid;
; 37   : 	int	 nUseType = 0;
; 38   : 
; 39   : 	ar >> wType >> wId >> objid >> nUseType;

  00006	8b 4d 08	 mov	 ecx, DWORD PTR _ar$[ebp]
  00009	8d 45 f8	 lea	 eax, DWORD PTR _nUseType$[ebp]
  0000c	53		 push	 ebx
  0000d	56		 push	 esi
  0000e	50		 push	 eax
  0000f	8d 45 f4	 lea	 eax, DWORD PTR _objid$[ebp]
  00012	c7 45 f8 00 00
	00 00		 mov	 DWORD PTR _nUseType$[ebp], 0
  00019	50		 push	 eax
  0001a	8d 45 fc	 lea	 eax, DWORD PTR _wId$[ebp]
  0001d	50		 push	 eax
  0001e	8d 45 fc	 lea	 eax, DWORD PTR _wType$[ebp]
  00021	50		 push	 eax
  00022	e8 00 00 00 00	 call	 ??$?5G@CAr@@QAEAAV0@AAG@Z ; CAr::operator>><unsigned short>
  00027	8b c8		 mov	 ecx, eax
  00029	e8 00 00 00 00	 call	 ??$?5G@CAr@@QAEAAV0@AAG@Z ; CAr::operator>><unsigned short>
  0002e	8b c8		 mov	 ecx, eax
  00030	e8 00 00 00 00	 call	 ??$?5K@CAr@@QAEAAV0@AAK@Z ; CAr::operator>><unsigned long>
  00035	8b c8		 mov	 ecx, eax
  00037	e8 00 00 00 00	 call	 ??$?5H@CAr@@QAEAAV0@AAH@Z ; CAr::operator>><int>

; 40   : #if __VER >= 8 // __S8_PK
; 41   : 	BOOL bControl;
; 42   : 	ar >> bControl;

  0003c	8b 4d 08	 mov	 ecx, DWORD PTR _ar$[ebp]
  0003f	8d 45 08	 lea	 eax, DWORD PTR _bControl$[ebp]
  00042	50		 push	 eax
  00043	e8 00 00 00 00	 call	 ??$?5H@CAr@@QAEAAV0@AAH@Z ; CAr::operator>><int>

; 43   : #endif // __VER >= 8 // __S8_PK
; 44   : 	
; 45   : 	int nIdx = wId;

  00048	0f b7 5d fc	 movzx	 ebx, WORD PTR _wId$[ebp]

; 46   : 	if( nIdx < 0 || nIdx >= MAX_SKILL_JOB )

  0004c	83 fb 33	 cmp	 ebx, 51			; 00000033H
  0004f	0f 83 eb 00 00
	00		 jae	 $LN11@OnUseSkill

; 47   : 		return;
; 48   : 
; 49   : 	wType = 0;
; 50   : 	CUser* pUser	= g_UserMng.GetUser( dpidCache, dpidUser );

  00055	ff 75 10	 push	 DWORD PTR _dpidUser$[ebp]
  00058	b9 00 00 00 00	 mov	 ecx, OFFSET ?g_UserMng@@3VCUserMng@@A ; g_UserMng
  0005d	ff 75 0c	 push	 DWORD PTR _dpidCache$[ebp]
  00060	e8 00 00 00 00	 call	 ?GetUser@CUserMng@@QAEPAVCUser@@KK@Z ; CUserMng::GetUser
  00065	8b f0		 mov	 esi, eax
; File C:\IAGOS\server\v18\Source\Source\_Common\Obj.h

; 327  : 	return pObj && ( pObj->IsDelete() == FALSE ); 

  00067	85 f6		 test	 esi, esi
  00069	0f 84 d1 00 00
	00		 je	 $LN11@OnUseSkill

; 180  : 	BOOL			IsDelete()	{ return (m_dwFlags & OBJ_FLAG_DELETE);  }

  0006f	f6 46 04 01	 test	 BYTE PTR [esi+4], 1

; 327  : 	return pObj && ( pObj->IsDelete() == FALSE ); 

  00073	0f 85 c7 00 00
	00		 jne	 $LN11@OnUseSkill
; File C:\IAGOS\server\v18\Source\Source\WorldServer\DPSrvrLux.cpp

; 53   : 		if( pUser->m_vtInfo.VendorIsVendor() )

  00079	8d 8e 98 0c 00
	00		 lea	 ecx, DWORD PTR [esi+3224]
  0007f	e8 00 00 00 00	 call	 ?VendorIsVendor@CVTInfo@@QAEHXZ ; CVTInfo::VendorIsVendor
  00084	85 c0		 test	 eax, eax
  00086	0f 85 b4 00 00
	00		 jne	 $LN11@OnUseSkill

; 54   : 			return;
; 55   : 
; 56   : #ifdef __S_SERVER_UNIFY
; 57   : 		if( pUser->m_bAllAction == FALSE )

  0008c	39 86 f0 8e 00
	00		 cmp	 DWORD PTR [esi+36592], eax
  00092	0f 84 a8 00 00
	00		 je	 $LN11@OnUseSkill

; 58   : 			return;
; 59   : #endif // __S_SERVER_UNIFY
; 60   : 		
; 61   : 		LPSKILL pSkill	= pUser->GetSkill( wType, nIdx );

  00098	53		 push	 ebx
  00099	50		 push	 eax
  0009a	8b ce		 mov	 ecx, esi
  0009c	e8 00 00 00 00	 call	 ?GetSkill@CMover@@QAEPAUtagSkill@@HH@Z ; CMover::GetSkill
  000a1	8b d0		 mov	 edx, eax

; 62   : 		if( !pSkill )

  000a3	85 d2		 test	 edx, edx
  000a5	0f 84 95 00 00
	00		 je	 $LN11@OnUseSkill

; 63   : 			return;
; 64   : 		if( pSkill->dwSkill == DWORD(-1) )

  000ab	8b 0a		 mov	 ecx, DWORD PTR [edx]
  000ad	83 f9 ff	 cmp	 ecx, -1
  000b0	0f 84 8a 00 00
	00		 je	 $LN11@OnUseSkill
; File C:\IAGOS\server\v18\Source\Source\_Common\Project.h

; 1395 : 	VERIFY_RANGE( nIndex, 0, m_aPropSkill.GetSize(), "GetSkillProp range_error", NULL );

  000b6	a1 64 02 00 00	 mov	 eax, DWORD PTR ?prj@@3VCProject@@A+612
  000bb	85 c9		 test	 ecx, ecx
  000bd	78 6b		 js	 SHORT $LN30@OnUseSkill
  000bf	3b c8		 cmp	 ecx, eax
  000c1	7d 67		 jge	 SHORT $LN30@OnUseSkill
; File C:\IAGOS\server\v18\Source\Source\_Common\data.h

; 270  : 	if( dwIndex >= (DWORD)m_nMaxIndex )

  000c3	72 04		 jb	 SHORT $LN35@OnUseSkill

; 271  : 		return NULL;

  000c5	33 c0		 xor	 eax, eax
  000c7	eb 08		 jmp	 SHORT $LN34@OnUseSkill
$LN35@OnUseSkill:

; 272  : 	return (T*) m_apOffset[ dwIndex ];

  000c9	a1 54 02 00 00	 mov	 eax, DWORD PTR ?prj@@3VCProject@@A+596
  000ce	8b 04 88	 mov	 eax, DWORD PTR [eax+ecx*4]
$LN34@OnUseSkill:
; File C:\IAGOS\server\v18\Source\Source\WorldServer\DPSrvrLux.cpp

; 67   : 		if( !pSkillProp )

  000d1	85 c0		 test	 eax, eax
  000d3	74 6b		 je	 SHORT $LN11@OnUseSkill

; 68   : 			return;
; 69   : 	#ifdef __SKILL0517
; 70   : 		DWORD dwLevel		= pUser->GetSkillLevel( pSkill );
; 71   : 	#else	// __SKILL0517
; 72   : 		DWORD dwLevel		= pSkill->dwLevel;

  000d5	8b 4a 04	 mov	 ecx, DWORD PTR [edx+4]

; 73   : 	#endif	// __SKILL0517
; 74   : 		if( dwLevel == 0 || dwLevel > pSkillProp->dwExpertMax )

  000d8	85 c9		 test	 ecx, ecx
  000da	74 64		 je	 SHORT $LN11@OnUseSkill
  000dc	3b 88 0c 02 00
	00		 cmp	 ecx, DWORD PTR [eax+524]
  000e2	77 5c		 ja	 SHORT $LN11@OnUseSkill

; 75   : 			return;
; 76   : 
; 77   : #if __VER >= 8 // __S8_PK
; 78   : 		BOOL fSuccess	= pUser->DoUseSkill( wType, nIdx, objid, (SKILLUSETYPE)nUseType, bControl );

  000e4	ff 75 08	 push	 DWORD PTR _bControl$[ebp]
  000e7	8b ce		 mov	 ecx, esi
  000e9	ff 75 f8	 push	 DWORD PTR _nUseType$[ebp]
  000ec	ff 75 f4	 push	 DWORD PTR _objid$[ebp]
  000ef	53		 push	 ebx
  000f0	6a 00		 push	 0
  000f2	e8 00 00 00 00	 call	 ?DoUseSkill@CMover@@QAEHHHKW4SKILLUSETYPE@@H@Z ; CMover::DoUseSkill

; 79   : #else // __VER >= 8 // __S8_PK
; 80   : 		BOOL fSuccess	= pUser->DoUseSkill( wType, nIdx, objid, (SKILLUSETYPE)nUseType );
; 81   : #endif // __VER >= 8 // __S8_PK
; 82   : 		if( fSuccess == TRUE )	// ˝şĹł»çżëżˇ Ľş°řÇß°í

  000f7	83 f8 01	 cmp	 eax, 1
  000fa	75 17		 jne	 SHORT $LN37@OnUseSkill

; 83   : 		{
; 84   : 			if( nUseType == SUT_QUEUESTART )	// ˝şĹłĹĄ·Î ˝ÇÇŕÇĎ¶ó°í ÇŃ°Ĺż´´Ů.

  000fc	39 45 f8	 cmp	 DWORD PTR _nUseType$[ebp], eax
  000ff	75 3f		 jne	 SHORT $LN11@OnUseSkill

; 85   : 			{
; 86   : 				pUser->m_playTaskBar.m_nUsedSkillQueue = 0;		// ˝şĹłĹĄ ˝ÇÇŕÁßŔÎ ÇĄ˝Ă ł˛±č.

  00101	c7 86 3c 8e 00
	00 00 00 00 00	 mov	 DWORD PTR [esi+36412], 0
  0010b	5e		 pop	 esi

; 99   : }

  0010c	5b		 pop	 ebx
  0010d	8b e5		 mov	 esp, ebp
  0010f	5d		 pop	 ebp
  00110	c2 14 00	 ret	 20			; 00000014H
$LN37@OnUseSkill:

; 87   : 			}
; 88   : 		}
; 89   : 
; 90   : 		if( TRUE == fSuccess )
; 91   : 		{
; 92   : 		}
; 93   : 		else	// Ľ­ąöżˇĽ­ UseSkillŔ» ˝ÇĆĐÇĎ¸é ±×°ÍŔ» ±× Ĺ¬¶óÇŃĹ× ľË·ÁÁŕľß ÇŃ´Ů.
; 94   : 		{
; 95   : 			TRACE( "Fail %d, ", nIdx );
; 96   : 			pUser->AddHdr( GETID( pUser ), SNAPSHOTTYPE_CLEAR_USESKILL );

  00113	6a 1a		 push	 26			; 0000001aH
  00115	ff b6 bc 01 00
	00		 push	 DWORD PTR [esi+444]
  0011b	8b ce		 mov	 ecx, esi
  0011d	e8 00 00 00 00	 call	 ?AddHdr@CUser@@QAEXKG@Z	; CUser::AddHdr
  00122	5e		 pop	 esi

; 99   : }

  00123	5b		 pop	 ebx
  00124	8b e5		 mov	 esp, ebp
  00126	5d		 pop	 ebp
  00127	c2 14 00	 ret	 20			; 00000014H
$LN30@OnUseSkill:
; File C:\IAGOS\server\v18\Source\Source\_Common\Project.h

; 579  : 	LPCTSTR szErr = Error( _T( "%s min:%d, max:%d, index:%d" ), szMsg, nMin, nMax, nIndex ); 

  0012a	51		 push	 ecx
  0012b	50		 push	 eax
  0012c	6a 00		 push	 0
  0012e	68 00 00 00 00	 push	 OFFSET ??_C@_0BJ@GPNGCFMK@GetSkillProp?5range_error@
  00133	68 00 00 00 00	 push	 OFFSET ??_C@_0BM@HMFGHCP@?$CFs?5min?3?$CFd?0?5max?3?$CFd?0?5index?3?$CFd@
  00138	e8 00 00 00 00	 call	 ?Error@@YAPBDPBDZZ	; Error
  0013d	83 c4 14	 add	 esp, 20			; 00000014H
$LN11@OnUseSkill:
  00140	5e		 pop	 esi
; File C:\IAGOS\server\v18\Source\Source\WorldServer\DPSrvrLux.cpp

; 99   : }

  00141	5b		 pop	 ebx
  00142	8b e5		 mov	 esp, ebp
  00144	5d		 pop	 ebp
  00145	c2 14 00	 ret	 20			; 00000014H
?OnUseSkill@CDPSrvr@@AAEXAAVCAr@@KKPAEK@Z ENDP		; CDPSrvr::OnUseSkill
_TEXT	ENDS
; Function compile flags: /Ogtp
; File C:\IAGOS\server\v18\Source\Source\_Network\Misc\Include\ar.h
;	COMDAT ??$?5K@CAr@@QAEAAV0@AAK@Z
_TEXT	SEGMENT
_t$ = 8							; size = 4
??$?5K@CAr@@QAEAAV0@AAK@Z PROC				; CAr::operator>><unsigned long>, COMDAT
; _this$ = ecx

; 302  : {

  00000	55		 push	 ebp
  00001	8b ec		 mov	 ebp, esp
  00003	8b d1		 mov	 edx, ecx

; 303  : 	if (m_lpBufCur + sizeof(T) <= m_lpBufMax)

  00005	8b 4a 08	 mov	 ecx, DWORD PTR [edx+8]
  00008	8d 41 04	 lea	 eax, DWORD PTR [ecx+4]
  0000b	3b 42 0c	 cmp	 eax, DWORD PTR [edx+12]
  0000e	8b 45 08	 mov	 eax, DWORD PTR _t$[ebp]
  00011	77 0e		 ja	 SHORT $LN2@operator

; 304  : 	{
; 305  : 		t = *(UNALIGNED T*)m_lpBufCur;

  00013	8b 09		 mov	 ecx, DWORD PTR [ecx]
  00015	89 08		 mov	 DWORD PTR [eax], ecx

; 312  : 	}
; 313  : 	return *this;
; 314  : }

  00017	8b c2		 mov	 eax, edx
  00019	83 42 08 04	 add	 DWORD PTR [edx+8], 4
  0001d	5d		 pop	 ebp
  0001e	c2 04 00	 ret	 4
$LN2@operator:

; 306  : 		m_lpBufCur += sizeof(T);
; 307  : 	}
; 308  : 	else
; 309  : 	{
; 310  : 		t = T();

  00021	c7 00 00 00 00
	00		 mov	 DWORD PTR [eax], 0

; 311  : 		m_lpBufCur = m_lpBufMax;

  00027	8b 42 0c	 mov	 eax, DWORD PTR [edx+12]
  0002a	89 42 08	 mov	 DWORD PTR [edx+8], eax

; 312  : 	}
; 313  : 	return *this;
; 314  : }

  0002d	8b c2		 mov	 eax, edx
  0002f	5d		 pop	 ebp
  00030	c2 04 00	 ret	 4
??$?5K@CAr@@QAEAAV0@AAK@Z ENDP				; CAr::operator>><unsigned long>
_TEXT	ENDS
; Function compile flags: /Ogtp
; File C:\IAGOS\server\v18\Source\Source\DX_SDK\d3dx9math.h
;	COMDAT ??0D3DXVECTOR3@@QAE@XZ
_TEXT	SEGMENT
??0D3DXVECTOR3@@QAE@XZ PROC				; D3DXVECTOR3::D3DXVECTOR3, COMDAT
; _this$ = ecx

; 165  :     D3DXVECTOR3() {};

  00000	8b c1		 mov	 eax, ecx
  00002	c3		 ret	 0
??0D3DXVECTOR3@@QAE@XZ ENDP				; D3DXVECTOR3::D3DXVECTOR3
_TEXT	ENDS
; Function compile flags: /Ogtp
; File C:\IAGOS\server\v18\Source\Source\WorldServer\DPSrvrLux.cpp
;	COMDAT ?__empty_global_delete@@YAXPAXI@Z
_TEXT	SEGMENT
___formal$ = 8						; size = 4
___formal$ = 12						; size = 4
?__empty_global_delete@@YAXPAXI@Z PROC			; __empty_global_delete, COMDAT

  00000	c2 00 00	 ret	 0
?__empty_global_delete@@YAXPAXI@Z ENDP			; __empty_global_delete
_TEXT	ENDS
; Function compile flags: /Ogtp
; File C:\IAGOS\server\v18\Source\Source\WorldServer\DPSrvrLux.cpp
;	COMDAT ?__empty_global_delete@@YAXPAX@Z
_TEXT	SEGMENT
___formal$ = 8						; size = 4
?__empty_global_delete@@YAXPAX@Z PROC			; __empty_global_delete, COMDAT

  00000	c2 00 00	 ret	 0
?__empty_global_delete@@YAXPAX@Z ENDP			; __empty_global_delete
_TEXT	ENDS
END
