; Listing generated by Microsoft (R) Optimizing Compiler Version 19.44.35225.0 

	TITLE	C:\IAGOS\server\v18\Source\Output\WorldServer\Release\dxutil.obj
	.686P
	.XMM
	include listing.inc
	.model	flat

INCLUDELIB LIBCMT
INCLUDELIB OLDNAMES

PUBLIC	?__empty_global_delete@@YAXPAX@Z		; __empty_global_delete
PUBLIC	?__empty_global_delete@@YAXPAXI@Z		; __empty_global_delete
PUBLIC	___local_stdio_printf_options
PUBLIC	___local_stdio_scanf_options
PUBLIC	__vsnprintf
PUBLIC	__snprintf
PUBLIC	_sscanf
PUBLIC	?DXUtil_GetDXSDKMediaPathCch@@YAJPADH@Z		; DXUtil_GetDXSDKMediaPathCch
PUBLIC	?DXUtil_GetDXSDKMediaPathCb@@YAJPADH@Z		; DXUtil_GetDXSDKMediaPathCb
PUBLIC	?DXUtil_FindMediaFileCch@@YAJPADH0@Z		; DXUtil_FindMediaFileCch
PUBLIC	?DXUtil_FindMediaFileCb@@YAJPADH0@Z		; DXUtil_FindMediaFileCb
PUBLIC	?DXUtil_WriteStringRegKey@@YAJPAUHKEY__@@PAD1@Z	; DXUtil_WriteStringRegKey
PUBLIC	?DXUtil_WriteIntRegKey@@YAJPAUHKEY__@@PADK@Z	; DXUtil_WriteIntRegKey
PUBLIC	?DXUtil_WriteGuidRegKey@@YAJPAUHKEY__@@PADU_GUID@@@Z ; DXUtil_WriteGuidRegKey
PUBLIC	?DXUtil_WriteBoolRegKey@@YAJPAUHKEY__@@PADH@Z	; DXUtil_WriteBoolRegKey
PUBLIC	?DXUtil_ReadStringRegKeyCch@@YAJPAUHKEY__@@PAD1K1@Z ; DXUtil_ReadStringRegKeyCch
PUBLIC	?DXUtil_ReadStringRegKeyCb@@YAJPAUHKEY__@@PAD1K1@Z ; DXUtil_ReadStringRegKeyCb
PUBLIC	?DXUtil_ReadIntRegKey@@YAJPAUHKEY__@@PADPAKK@Z	; DXUtil_ReadIntRegKey
PUBLIC	?DXUtil_ReadGuidRegKey@@YAJPAUHKEY__@@PADPAU_GUID@@AAU2@@Z ; DXUtil_ReadGuidRegKey
PUBLIC	?DXUtil_ReadBoolRegKey@@YAJPAUHKEY__@@PADPAHH@Z	; DXUtil_ReadBoolRegKey
PUBLIC	?DXUtil_Timer@@YGMW4TIMER_COMMAND@@@Z		; DXUtil_Timer
PUBLIC	?DXUtil_ConvertAnsiStringToWideCch@@YAJPA_WPBDH@Z ; DXUtil_ConvertAnsiStringToWideCch
PUBLIC	?DXUtil_ConvertWideStringToAnsiCch@@YAJPADPB_WH@Z ; DXUtil_ConvertWideStringToAnsiCch
PUBLIC	?DXUtil_ConvertGenericStringToAnsiCch@@YAJPADPBDH@Z ; DXUtil_ConvertGenericStringToAnsiCch
PUBLIC	?DXUtil_ConvertGenericStringToWideCch@@YAJPA_WPBDH@Z ; DXUtil_ConvertGenericStringToWideCch
PUBLIC	?DXUtil_ConvertAnsiStringToGenericCch@@YAJPADPBDH@Z ; DXUtil_ConvertAnsiStringToGenericCch
PUBLIC	?DXUtil_ConvertWideStringToGenericCch@@YAJPADPB_WH@Z ; DXUtil_ConvertWideStringToGenericCch
PUBLIC	?DXUtil_ConvertAnsiStringToWideCb@@YAJPA_WPBDH@Z ; DXUtil_ConvertAnsiStringToWideCb
PUBLIC	?DXUtil_ConvertWideStringToAnsiCb@@YAJPADPB_WH@Z ; DXUtil_ConvertWideStringToAnsiCb
PUBLIC	?DXUtil_ConvertGenericStringToAnsiCb@@YAJPADPBDH@Z ; DXUtil_ConvertGenericStringToAnsiCb
PUBLIC	?DXUtil_ConvertGenericStringToWideCb@@YAJPA_WPBDH@Z ; DXUtil_ConvertGenericStringToWideCb
PUBLIC	?DXUtil_ConvertAnsiStringToGenericCb@@YAJPADPBDH@Z ; DXUtil_ConvertAnsiStringToGenericCb
PUBLIC	?DXUtil_ConvertWideStringToGenericCb@@YAJPADPB_WH@Z ; DXUtil_ConvertWideStringToGenericCb
PUBLIC	?DXUtil_LaunchReadme@@YAXPAUHWND__@@PAD@Z	; DXUtil_LaunchReadme
PUBLIC	?DXUtil_ConvertGUIDToStringCch@@YAJPBU_GUID@@PADH@Z ; DXUtil_ConvertGUIDToStringCch
PUBLIC	?DXUtil_ConvertGUIDToStringCb@@YAJPBU_GUID@@PADH@Z ; DXUtil_ConvertGUIDToStringCb
PUBLIC	?DXUtil_ConvertStringToGUID@@YAJPBDPAU_GUID@@@Z	; DXUtil_ConvertStringToGUID
PUBLIC	?DXUtil_Trace@@YAXPADZZ				; DXUtil_Trace
PUBLIC	??0CArrayList@@QAE@W4ArrayListType@@I@Z		; CArrayList::CArrayList
PUBLIC	??1CArrayList@@QAE@XZ				; CArrayList::~CArrayList
PUBLIC	?Add@CArrayList@@QAEJPAX@Z			; CArrayList::Add
PUBLIC	?Remove@CArrayList@@QAEXI@Z			; CArrayList::Remove
PUBLIC	?GetPtr@CArrayList@@QAEPAXI@Z			; CArrayList::GetPtr
PUBLIC	?Contains@CArrayList@@QAE_NPAX@Z		; CArrayList::Contains
PUBLIC	?_OptionsStorage@?1??__local_stdio_printf_options@@9@4_KA ; `__local_stdio_printf_options'::`2'::_OptionsStorage
PUBLIC	?_OptionsStorage@?1??__local_stdio_scanf_options@@9@4_KA ; `__local_stdio_scanf_options'::`2'::_OptionsStorage
PUBLIC	??_C@_00CNPNBAHC@@				; `string'
PUBLIC	??_C@_0BP@HEGLIIKH@Software?2Microsoft?2DirectX?5SDK@ ; `string'
PUBLIC	??_C@_0BE@LKAAOJGK@DX9SDK?5Samples?5Path@	; `string'
PUBLIC	??_C@_07JADGJGAE@?2Media?2@			; `string'
PUBLIC	??_C@_0BF@PHKGEBGA@?$CFs?2C?$CL?$CL?2?$CFs?2readme?4txt@ ; `string'
PUBLIC	??_C@_01KICIPPFI@?2@				; `string'
PUBLIC	??_C@_0M@KCHKBMF@?2readme?4txt@			; `string'
PUBLIC	??_C@_0M@KFDNOLCO@shell32?4dll@			; `string'
PUBLIC	??_C@_0O@MOHFGHHE@ShellExecuteA@		; `string'
PUBLIC	??_C@_04PMOCAHAA@open@				; `string'
PUBLIC	??_C@_0BD@NHAEFHIC@DirectX?5SDK?5Sample@	; `string'
PUBLIC	??_C@_0BK@MEKHEPPF@Could?5not?5find?5readme?4txt@ ; `string'
PUBLIC	??_C@_0CI@FDANOHPD@?$HL?$CF8X?9?$CF4X?9?$CF4X?9?$CF2X?$CF2X?9?$CF2X?$CF2X?$CF2X?$CF2@ ; `string'
PUBLIC	??_C@_0DO@OBIAHMKG@?$HL?$CF0?48X?9?$CF0?44X?9?$CF0?44X?9?$CF0?42X?$CF0?42X?9?$CF@ ; `string'
PUBLIC	__real@00000000
PUBLIC	__real@3f50624dd2f1a9fc
PUBLIC	__real@3fb99999a0000000
PUBLIC	__real@bf800000
PUBLIC	__xmm@41f00000000000000000000000000000
EXTRN	??_U@YAPAXI@Z:PROC				; operator new[]
EXTRN	??_V@YAXPAX@Z:PROC				; operator delete[]
EXTRN	_strncpy:PROC
EXTRN	__imp__CreateFileA@28:PROC
EXTRN	__imp__GetFileAttributesA@4:PROC
EXTRN	__imp__GetFullPathNameA@16:PROC
EXTRN	__imp__CloseHandle@4:PROC
EXTRN	__imp__QueryPerformanceCounter@4:PROC
EXTRN	__imp__QueryPerformanceFrequency@4:PROC
EXTRN	__imp__FreeLibrary@4:PROC
EXTRN	__imp__GetModuleFileNameA@12:PROC
EXTRN	__imp__GetProcAddress@8:PROC
EXTRN	__imp__LoadLibraryA@4:PROC
EXTRN	__imp__lstrcpynA@12:PROC
EXTRN	__imp__lstrcpyA@8:PROC
EXTRN	__imp__lstrcatA@8:PROC
EXTRN	__imp__lstrlenA@4:PROC
EXTRN	__imp__MessageBoxA@16:PROC
EXTRN	__imp__RegCloseKey@4:PROC
EXTRN	__imp__RegOpenKeyExA@20:PROC
EXTRN	__imp__RegQueryValueExA@24:PROC
EXTRN	__imp__RegSetValueExA@24:PROC
EXTRN	__mbsnbcpy:PROC
EXTRN	__mbsrchr:PROC
EXTRN	___stdio_common_vsprintf:PROC
EXTRN	___stdio_common_vsscanf:PROC
EXTRN	__imp__timeGetTime@0:PROC
EXTRN	?WideCharToMultiByteEx@@YAHIKPB_WHPADHPBDPAH@Z:PROC ; WideCharToMultiByteEx
EXTRN	?MultiByteToWideCharEx@@YAHIKPBDHPA_WH@Z:PROC	; MultiByteToWideCharEx
EXTRN	@__security_check_cookie@4:PROC
EXTRN	__alldiv:PROC
EXTRN	__ltod3:PROC
EXTRN	_memcpy:PROC
EXTRN	_memmove:PROC
EXTRN	___security_cookie:DWORD
EXTRN	__fltused:DWORD
;	COMDAT ?_OptionsStorage@?1??__local_stdio_printf_options@@9@4_KA
_BSS	SEGMENT
?_OptionsStorage@?1??__local_stdio_printf_options@@9@4_KA DQ 01H DUP (?) ; `__local_stdio_printf_options'::`2'::_OptionsStorage
_BSS	ENDS
;	COMDAT ?_OptionsStorage@?1??__local_stdio_scanf_options@@9@4_KA
_BSS	SEGMENT
?_OptionsStorage@?1??__local_stdio_scanf_options@@9@4_KA DQ 01H DUP (?) ; `__local_stdio_scanf_options'::`2'::_OptionsStorage
_BSS	ENDS
;	COMDAT ?m_bTimerInitialized@?1??DXUtil_Timer@@YGMW4TIMER_COMMAND@@@Z@4HA
_BSS	SEGMENT
?m_bTimerInitialized@?1??DXUtil_Timer@@YGMW4TIMER_COMMAND@@@Z@4HA DD 01H DUP (?) ; `DXUtil_Timer'::`2'::m_bTimerInitialized
_BSS	ENDS
;	COMDAT ?m_bUsingQPF@?1??DXUtil_Timer@@YGMW4TIMER_COMMAND@@@Z@4HA
_BSS	SEGMENT
?m_bUsingQPF@?1??DXUtil_Timer@@YGMW4TIMER_COMMAND@@@Z@4HA DD 01H DUP (?) ; `DXUtil_Timer'::`2'::m_bUsingQPF
_BSS	ENDS
;	COMDAT ?m_llQPFTicksPerSec@?1??DXUtil_Timer@@YGMW4TIMER_COMMAND@@@Z@4_JA
_BSS	SEGMENT
?m_llQPFTicksPerSec@?1??DXUtil_Timer@@YGMW4TIMER_COMMAND@@@Z@4_JA DQ 01H DUP (?) ; `DXUtil_Timer'::`2'::m_llQPFTicksPerSec
_BSS	ENDS
;	COMDAT ?m_llStopTime@?9??DXUtil_Timer@@YGMW4TIMER_COMMAND@@@Z@4_JA
_BSS	SEGMENT
?m_llStopTime@?9??DXUtil_Timer@@YGMW4TIMER_COMMAND@@@Z@4_JA DQ 01H DUP (?) ; `DXUtil_Timer'::`10'::m_llStopTime
_BSS	ENDS
;	COMDAT ?m_llLastElapsedTime@?9??DXUtil_Timer@@YGMW4TIMER_COMMAND@@@Z@4_JA
_BSS	SEGMENT
?m_llLastElapsedTime@?9??DXUtil_Timer@@YGMW4TIMER_COMMAND@@@Z@4_JA DQ 01H DUP (?) ; `DXUtil_Timer'::`10'::m_llLastElapsedTime
_BSS	ENDS
;	COMDAT ?m_llBaseTime@?9??DXUtil_Timer@@YGMW4TIMER_COMMAND@@@Z@4_JA
_BSS	SEGMENT
?m_llBaseTime@?9??DXUtil_Timer@@YGMW4TIMER_COMMAND@@@Z@4_JA DQ 01H DUP (?) ; `DXUtil_Timer'::`10'::m_llBaseTime
_BSS	ENDS
;	COMDAT ?m_fLastElapsedTime@?CJ@??DXUtil_Timer@@YGMW4TIMER_COMMAND@@@Z@4NA
_BSS	SEGMENT
?m_fLastElapsedTime@?CJ@??DXUtil_Timer@@YGMW4TIMER_COMMAND@@@Z@4NA DQ 01H DUP (?) ; `DXUtil_Timer'::`41'::m_fLastElapsedTime
_BSS	ENDS
;	COMDAT ?m_fBaseTime@?CJ@??DXUtil_Timer@@YGMW4TIMER_COMMAND@@@Z@4NA
_BSS	SEGMENT
?m_fBaseTime@?CJ@??DXUtil_Timer@@YGMW4TIMER_COMMAND@@@Z@4NA DQ 01H DUP (?) ; `DXUtil_Timer'::`41'::m_fBaseTime
_BSS	ENDS
;	COMDAT ?m_fStopTime@?CJ@??DXUtil_Timer@@YGMW4TIMER_COMMAND@@@Z@4NA
_BSS	SEGMENT
?m_fStopTime@?CJ@??DXUtil_Timer@@YGMW4TIMER_COMMAND@@@Z@4NA DQ 01H DUP (?) ; `DXUtil_Timer'::`41'::m_fStopTime
_BSS	ENDS
;	COMDAT __xmm@41f00000000000000000000000000000
CONST	SEGMENT
__xmm@41f00000000000000000000000000000 DB 00H, 00H, 00H, 00H, 00H, 00H, 00H
	DB	00H, 00H, 00H, 00H, 00H, 00H, 00H, 0f0H, 'A'
CONST	ENDS
;	COMDAT __real@bf800000
CONST	SEGMENT
__real@bf800000 DD 0bf800000r			; -1
CONST	ENDS
;	COMDAT __real@3fb99999a0000000
CONST	SEGMENT
__real@3fb99999a0000000 DQ 03fb99999a0000000r	; 0.1
CONST	ENDS
;	COMDAT __real@3f50624dd2f1a9fc
CONST	SEGMENT
__real@3f50624dd2f1a9fc DQ 03f50624dd2f1a9fcr	; 0.001
CONST	ENDS
;	COMDAT __real@00000000
CONST	SEGMENT
__real@00000000 DD 000000000r			; 0
CONST	ENDS
;	COMDAT ??_C@_0DO@OBIAHMKG@?$HL?$CF0?48X?9?$CF0?44X?9?$CF0?44X?9?$CF0?42X?$CF0?42X?9?$CF@
CONST	SEGMENT
??_C@_0DO@OBIAHMKG@?$HL?$CF0?48X?9?$CF0?44X?9?$CF0?44X?9?$CF0?42X?$CF0?42X?9?$CF@ DB '{'
	DB	'%0.8X-%0.4X-%0.4X-%0.2X%0.2X-%0.2X%0.2X%0.2X%0.2X%0.2X%0.2X}', 00H ; `string'
CONST	ENDS
;	COMDAT ??_C@_0CI@FDANOHPD@?$HL?$CF8X?9?$CF4X?9?$CF4X?9?$CF2X?$CF2X?9?$CF2X?$CF2X?$CF2X?$CF2@
CONST	SEGMENT
??_C@_0CI@FDANOHPD@?$HL?$CF8X?9?$CF4X?9?$CF4X?9?$CF2X?$CF2X?9?$CF2X?$CF2X?$CF2X?$CF2@ DB '{'
	DB	'%8X-%4X-%4X-%2X%2X-%2X%2X%2X%2X%2X%2X}', 00H ; `string'
CONST	ENDS
;	COMDAT ??_C@_0BK@MEKHEPPF@Could?5not?5find?5readme?4txt@
CONST	SEGMENT
??_C@_0BK@MEKHEPPF@Could?5not?5find?5readme?4txt@ DB 'Could not find read'
	DB	'me.txt', 00H				; `string'
CONST	ENDS
;	COMDAT ??_C@_0BD@NHAEFHIC@DirectX?5SDK?5Sample@
CONST	SEGMENT
??_C@_0BD@NHAEFHIC@DirectX?5SDK?5Sample@ DB 'DirectX SDK Sample', 00H ; `string'
CONST	ENDS
;	COMDAT ??_C@_04PMOCAHAA@open@
CONST	SEGMENT
??_C@_04PMOCAHAA@open@ DB 'open', 00H			; `string'
CONST	ENDS
;	COMDAT ??_C@_0O@MOHFGHHE@ShellExecuteA@
CONST	SEGMENT
??_C@_0O@MOHFGHHE@ShellExecuteA@ DB 'ShellExecuteA', 00H ; `string'
CONST	ENDS
;	COMDAT ??_C@_0M@KFDNOLCO@shell32?4dll@
CONST	SEGMENT
??_C@_0M@KFDNOLCO@shell32?4dll@ DB 'shell32.dll', 00H	; `string'
CONST	ENDS
;	COMDAT ??_C@_0M@KCHKBMF@?2readme?4txt@
CONST	SEGMENT
??_C@_0M@KCHKBMF@?2readme?4txt@ DB '\readme.txt', 00H	; `string'
CONST	ENDS
;	COMDAT ??_C@_01KICIPPFI@?2@
CONST	SEGMENT
??_C@_01KICIPPFI@?2@ DB '\', 00H			; `string'
CONST	ENDS
;	COMDAT ??_C@_0BF@PHKGEBGA@?$CFs?2C?$CL?$CL?2?$CFs?2readme?4txt@
CONST	SEGMENT
??_C@_0BF@PHKGEBGA@?$CFs?2C?$CL?$CL?2?$CFs?2readme?4txt@ DB '%s\C++\%s\re'
	DB	'adme.txt', 00H				; `string'
CONST	ENDS
;	COMDAT ?m_bTimerStopped@?1??DXUtil_Timer@@YGMW4TIMER_COMMAND@@@Z@4HA
_DATA	SEGMENT
?m_bTimerStopped@?1??DXUtil_Timer@@YGMW4TIMER_COMMAND@@@Z@4HA DD 01H ; `DXUtil_Timer'::`2'::m_bTimerStopped
_DATA	ENDS
;	COMDAT ??_C@_07JADGJGAE@?2Media?2@
CONST	SEGMENT
??_C@_07JADGJGAE@?2Media?2@ DB '\Media\', 00H		; `string'
CONST	ENDS
;	COMDAT ??_C@_0BE@LKAAOJGK@DX9SDK?5Samples?5Path@
CONST	SEGMENT
??_C@_0BE@LKAAOJGK@DX9SDK?5Samples?5Path@ DB 'DX9SDK Samples Path', 00H ; `string'
CONST	ENDS
;	COMDAT ??_C@_0BP@HEGLIIKH@Software?2Microsoft?2DirectX?5SDK@
CONST	SEGMENT
??_C@_0BP@HEGLIIKH@Software?2Microsoft?2DirectX?5SDK@ DB 'Software\Micros'
	DB	'oft\DirectX SDK', 00H			; `string'
CONST	ENDS
;	COMDAT ??_C@_00CNPNBAHC@@
CONST	SEGMENT
??_C@_00CNPNBAHC@@ DB 00H				; `string'
CONST	ENDS
; Function compile flags: /Ogtp
; File C:\IAGOS\server\v18\Source\Source\_DirectX\dxutil.cpp
;	COMDAT ?Contains@CArrayList@@QAE_NPAX@Z
_TEXT	SEGMENT
_pEntryData$ = 8					; size = 4
?Contains@CArrayList@@QAE_NPAX@Z PROC			; CArrayList::Contains, COMDAT
; _this$ = ecx

; 1025 : {

  00000	55		 push	 ebp
  00001	8b ec		 mov	 ebp, esp
  00003	53		 push	 ebx
  00004	56		 push	 esi
  00005	8b d9		 mov	 ebx, ecx
  00007	57		 push	 edi

; 1026 :     for( UINT iEntry = 0; iEntry < m_NumEntries; iEntry++ )

  00008	33 ff		 xor	 edi, edi
  0000a	39 7b 0c	 cmp	 DWORD PTR [ebx+12], edi
  0000d	76 73		 jbe	 SHORT $LN3@Contains
  0000f	8b 75 08	 mov	 esi, DWORD PTR _pEntryData$[ebp]
$LL4@Contains:

; 1027 :     {
; 1028 :         if( m_ArrayListType == AL_VALUE )

  00012	57		 push	 edi
  00013	8b cb		 mov	 ecx, ebx
  00015	e8 00 00 00 00	 call	 ?GetPtr@CArrayList@@QAEPAXI@Z ; CArrayList::GetPtr
  0001a	83 3b 00	 cmp	 DWORD PTR [ebx], 0
  0001d	75 59		 jne	 SHORT $LN5@Contains

; 1029 :         {
; 1030 :             if( memcmp( GetPtr(iEntry), pEntryData, m_BytesPerEntry ) == 0 )

  0001f	8b ce		 mov	 ecx, esi
  00021	8b d0		 mov	 edx, eax
  00023	8b 73 08	 mov	 esi, DWORD PTR [ebx+8]
  00026	83 ee 04	 sub	 esi, 4
  00029	72 16		 jb	 SHORT $LN19@Contains
  0002b	0f 1f 44 00 00	 npad	 5
$LL20@Contains:
  00030	8b 02		 mov	 eax, DWORD PTR [edx]
  00032	3b 01		 cmp	 eax, DWORD PTR [ecx]
  00034	75 10		 jne	 SHORT $LN18@Contains
  00036	83 c2 04	 add	 edx, 4
  00039	83 c1 04	 add	 ecx, 4
  0003c	83 ee 04	 sub	 esi, 4
  0003f	73 ef		 jae	 SHORT $LL20@Contains
$LN19@Contains:
  00041	83 fe fc	 cmp	 esi, -4			; fffffffcH
  00044	74 45		 je	 SHORT $LN17@Contains
$LN18@Contains:
  00046	8a 02		 mov	 al, BYTE PTR [edx]
  00048	3a 01		 cmp	 al, BYTE PTR [ecx]
  0004a	75 27		 jne	 SHORT $LN21@Contains
  0004c	83 fe fd	 cmp	 esi, -3			; fffffffdH
  0004f	74 3a		 je	 SHORT $LN17@Contains
  00051	8a 42 01	 mov	 al, BYTE PTR [edx+1]
  00054	3a 41 01	 cmp	 al, BYTE PTR [ecx+1]
  00057	75 1a		 jne	 SHORT $LN21@Contains
  00059	83 fe fe	 cmp	 esi, -2			; fffffffeH
  0005c	74 2d		 je	 SHORT $LN17@Contains
  0005e	8a 42 02	 mov	 al, BYTE PTR [edx+2]
  00061	3a 41 02	 cmp	 al, BYTE PTR [ecx+2]
  00064	75 0d		 jne	 SHORT $LN21@Contains
  00066	83 fe ff	 cmp	 esi, -1
  00069	74 20		 je	 SHORT $LN17@Contains
  0006b	8a 42 03	 mov	 al, BYTE PTR [edx+3]
  0006e	3a 41 03	 cmp	 al, BYTE PTR [ecx+3]
  00071	74 18		 je	 SHORT $LN17@Contains
$LN21@Contains:

; 1031 :                 return true;
; 1032 :         }

  00073	8b 75 08	 mov	 esi, DWORD PTR _pEntryData$[ebp]
  00076	eb 04		 jmp	 SHORT $LN2@Contains
$LN5@Contains:

; 1033 :         else
; 1034 :         {
; 1035 :             if( GetPtr(iEntry) == pEntryData )

  00078	3b c6		 cmp	 eax, esi
  0007a	74 0f		 je	 SHORT $LN17@Contains
$LN2@Contains:

; 1026 :     for( UINT iEntry = 0; iEntry < m_NumEntries; iEntry++ )

  0007c	47		 inc	 edi
  0007d	3b 7b 0c	 cmp	 edi, DWORD PTR [ebx+12]
  00080	72 90		 jb	 SHORT $LL4@Contains
$LN3@Contains:
  00082	5f		 pop	 edi

; 1036 :                 return true;
; 1037 :         }
; 1038 :     }
; 1039 :     return false;
; 1040 : }

  00083	5e		 pop	 esi
  00084	32 c0		 xor	 al, al
  00086	5b		 pop	 ebx
  00087	5d		 pop	 ebp
  00088	c2 04 00	 ret	 4
$LN17@Contains:
  0008b	5f		 pop	 edi
  0008c	5e		 pop	 esi
  0008d	b0 01		 mov	 al, 1
  0008f	5b		 pop	 ebx
  00090	5d		 pop	 ebp
  00091	c2 04 00	 ret	 4
?Contains@CArrayList@@QAE_NPAX@Z ENDP			; CArrayList::Contains
_TEXT	ENDS
; Function compile flags: /Ogtp
; File C:\IAGOS\server\v18\Source\Source\_DirectX\dxutil.cpp
;	COMDAT ?GetPtr@CArrayList@@QAEPAXI@Z
_TEXT	SEGMENT
_Entry$ = 8						; size = 4
?GetPtr@CArrayList@@QAEPAXI@Z PROC			; CArrayList::GetPtr, COMDAT
; _this$ = ecx

; 1009 : {

  00000	55		 push	 ebp
  00001	8b ec		 mov	 ebp, esp

; 1010 :     if( m_ArrayListType == AL_VALUE )

  00003	83 39 00	 cmp	 DWORD PTR [ecx], 0
  00006	75 0e		 jne	 SHORT $LN2@GetPtr

; 1011 :         return (BYTE*)m_pData + (Entry * m_BytesPerEntry);

  00008	8b 41 08	 mov	 eax, DWORD PTR [ecx+8]
  0000b	0f af 45 08	 imul	 eax, DWORD PTR _Entry$[ebp]
  0000f	03 41 04	 add	 eax, DWORD PTR [ecx+4]

; 1014 : }

  00012	5d		 pop	 ebp
  00013	c2 04 00	 ret	 4
$LN2@GetPtr:

; 1012 :     else
; 1013 :         return *(((void**)m_pData) + Entry);

  00016	8b 49 04	 mov	 ecx, DWORD PTR [ecx+4]
  00019	8b 45 08	 mov	 eax, DWORD PTR _Entry$[ebp]
  0001c	8b 04 81	 mov	 eax, DWORD PTR [ecx+eax*4]

; 1014 : }

  0001f	5d		 pop	 ebp
  00020	c2 04 00	 ret	 4
?GetPtr@CArrayList@@QAEPAXI@Z ENDP			; CArrayList::GetPtr
_TEXT	ENDS
; Function compile flags: /Ogtp
; File C:\IAGOS\server\v18\Source\Source\_DirectX\dxutil.cpp
;	COMDAT ?Remove@CArrayList@@QAEXI@Z
_TEXT	SEGMENT
_Entry$ = 8						; size = 4
?Remove@CArrayList@@QAEXI@Z PROC			; CArrayList::Remove, COMDAT
; _this$ = ecx

; 990  : {

  00000	55		 push	 ebp
  00001	8b ec		 mov	 ebp, esp

; 991  :     // Decrement count
; 992  :     m_NumEntries--;
; 993  : 
; 994  :     // Find the entry address
; 995  :     BYTE* pData = (BYTE*)m_pData + (Entry * m_BytesPerEntry);

  00003	8b 51 08	 mov	 edx, DWORD PTR [ecx+8]
  00006	ff 49 0c	 dec	 DWORD PTR [ecx+12]
  00009	56		 push	 esi
  0000a	8b 71 0c	 mov	 esi, DWORD PTR [ecx+12]

; 996  : 
; 997  :     // Collapse the array
; 998  :     MoveMemory( pData, pData + m_BytesPerEntry, ( m_NumEntries - Entry ) * m_BytesPerEntry );

  0000d	2b 75 08	 sub	 esi, DWORD PTR _Entry$[ebp]
  00010	57		 push	 edi
  00011	8b fa		 mov	 edi, edx
  00013	0f af f2	 imul	 esi, edx
  00016	0f af 7d 08	 imul	 edi, DWORD PTR _Entry$[ebp]
  0001a	56		 push	 esi
  0001b	03 79 04	 add	 edi, DWORD PTR [ecx+4]
  0001e	8d 04 3a	 lea	 eax, DWORD PTR [edx+edi]
  00021	50		 push	 eax
  00022	57		 push	 edi
  00023	e8 00 00 00 00	 call	 _memmove
  00028	83 c4 0c	 add	 esp, 12			; 0000000cH
  0002b	5f		 pop	 edi
  0002c	5e		 pop	 esi

; 999  : }

  0002d	5d		 pop	 ebp
  0002e	c2 04 00	 ret	 4
?Remove@CArrayList@@QAEXI@Z ENDP			; CArrayList::Remove
_TEXT	ENDS
; Function compile flags: /Ogtp
; File C:\IAGOS\server\v18\Source\Source\_DirectX\dxutil.cpp
;	COMDAT ?Add@CArrayList@@QAEJPAX@Z
_TEXT	SEGMENT
_NumEntriesAllocatedNew$1$ = -12			; size = 4
$T1 = -8						; size = 4
$T2 = -4						; size = 4
_pEntry$ = 8						; size = 4
?Add@CArrayList@@QAEJPAX@Z PROC				; CArrayList::Add, COMDAT
; _this$ = ecx

; 950  : {

  00000	55		 push	 ebp
  00001	8b ec		 mov	 ebp, esp
  00003	83 ec 0c	 sub	 esp, 12			; 0000000cH
  00006	57		 push	 edi
  00007	8b f9		 mov	 edi, ecx

; 951  :     if( m_BytesPerEntry == 0 )

  00009	8b 57 08	 mov	 edx, DWORD PTR [edi+8]
  0000c	85 d2		 test	 edx, edx
  0000e	75 0c		 jne	 SHORT $LN2@Add

; 952  :         return E_FAIL;

  00010	b8 05 40 00 80	 mov	 eax, -2147467259	; 80004005H
  00015	5f		 pop	 edi

; 980  : }

  00016	8b e5		 mov	 esp, ebp
  00018	5d		 pop	 ebp
  00019	c2 04 00	 ret	 4
$LN2@Add:
  0001c	53		 push	 ebx

; 953  :     if( m_pData == NULL || m_NumEntries + 1 > m_NumEntriesAllocated )

  0001d	8b 5f 04	 mov	 ebx, DWORD PTR [edi+4]
  00020	8d 47 04	 lea	 eax, DWORD PTR [edi+4]
  00023	8d 4f 10	 lea	 ecx, DWORD PTR [edi+16]
  00026	89 4d f8	 mov	 DWORD PTR $T1[ebp], ecx
  00029	56		 push	 esi
  0002a	85 db		 test	 ebx, ebx
  0002c	74 0d		 je	 SHORT $LN13@Add
  0002e	8b 47 0c	 mov	 eax, DWORD PTR [edi+12]
  00031	40		 inc	 eax
  00032	3b 01		 cmp	 eax, DWORD PTR [ecx]
  00034	76 6d		 jbe	 SHORT $LN3@Add
  00036	8d 47 04	 lea	 eax, DWORD PTR [edi+4]
  00039	eb 03		 jmp	 SHORT $LN23@Add
$LN13@Add:
  0003b	89 4d f8	 mov	 DWORD PTR $T1[ebp], ecx
$LN23@Add:

; 954  :     {
; 955  :         void* pDataNew;
; 956  :         UINT NumEntriesAllocatedNew;
; 957  :         if( m_NumEntriesAllocated == 0 )

  0003e	89 45 fc	 mov	 DWORD PTR $T2[ebp], eax
  00041	8b 01		 mov	 eax, DWORD PTR [ecx]
  00043	85 c0		 test	 eax, eax
  00045	75 07		 jne	 SHORT $LN5@Add

; 958  :             NumEntriesAllocatedNew = 16;

  00047	b8 10 00 00 00	 mov	 eax, 16			; 00000010H
  0004c	eb 02		 jmp	 SHORT $LN24@Add
$LN5@Add:

; 959  :         else
; 960  :             NumEntriesAllocatedNew = m_NumEntriesAllocated * 2;

  0004e	03 c0		 add	 eax, eax
$LN24@Add:

; 961  :         pDataNew = new BYTE[NumEntriesAllocatedNew * m_BytesPerEntry];

  00050	0f af d0	 imul	 edx, eax
  00053	89 45 f4	 mov	 DWORD PTR _NumEntriesAllocatedNew$1$[ebp], eax
  00056	52		 push	 edx
  00057	e8 00 00 00 00	 call	 ??_U@YAPAXI@Z		; operator new[]
  0005c	8b d8		 mov	 ebx, eax
  0005e	83 c4 04	 add	 esp, 4

; 962  :         if( pDataNew == NULL )

  00061	85 db		 test	 ebx, ebx
  00063	75 0e		 jne	 SHORT $LN7@Add

; 963  :             return E_OUTOFMEMORY;

  00065	5e		 pop	 esi
  00066	5b		 pop	 ebx
  00067	b8 0e 00 07 80	 mov	 eax, -2147024882	; 8007000eH
  0006c	5f		 pop	 edi

; 980  : }

  0006d	8b e5		 mov	 esp, ebp
  0006f	5d		 pop	 ebp
  00070	c2 04 00	 ret	 4
$LN7@Add:

; 964  :         if( m_pData != NULL )

  00073	8b 4f 04	 mov	 ecx, DWORD PTR [edi+4]
  00076	85 c9		 test	 ecx, ecx
  00078	74 1c		 je	 SHORT $LN8@Add

; 965  :         {
; 966  :             CopyMemory( pDataNew, m_pData, m_NumEntries * m_BytesPerEntry );

  0007a	8b 47 08	 mov	 eax, DWORD PTR [edi+8]
  0007d	0f af 47 0c	 imul	 eax, DWORD PTR [edi+12]
  00081	50		 push	 eax
  00082	51		 push	 ecx
  00083	53		 push	 ebx
  00084	e8 00 00 00 00	 call	 _memcpy

; 967  :             safe_delete_array( m_pData );

  00089	8b 45 fc	 mov	 eax, DWORD PTR $T2[ebp]
  0008c	ff 30		 push	 DWORD PTR [eax]
  0008e	e8 00 00 00 00	 call	 ??_V@YAXPAX@Z		; operator delete[]
  00093	83 c4 10	 add	 esp, 16			; 00000010H
$LN8@Add:

; 968  :         }
; 969  :         m_pData = pDataNew;

  00096	8b 45 fc	 mov	 eax, DWORD PTR $T2[ebp]

; 970  :         m_NumEntriesAllocated = NumEntriesAllocatedNew;

  00099	8b 4d f4	 mov	 ecx, DWORD PTR _NumEntriesAllocatedNew$1$[ebp]
  0009c	89 18		 mov	 DWORD PTR [eax], ebx
  0009e	8b 45 f8	 mov	 eax, DWORD PTR $T1[ebp]
  000a1	89 08		 mov	 DWORD PTR [eax], ecx
$LN3@Add:

; 971  :     }
; 972  : 
; 973  :     if( m_ArrayListType == AL_VALUE )

  000a3	83 3f 00	 cmp	 DWORD PTR [edi], 0
  000a6	8b 4f 0c	 mov	 ecx, DWORD PTR [edi+12]
  000a9	75 23		 jne	 SHORT $LN9@Add

; 974  :         CopyMemory( (BYTE*)m_pData + (m_NumEntries * m_BytesPerEntry), pEntry, m_BytesPerEntry );

  000ab	8b 47 08	 mov	 eax, DWORD PTR [edi+8]
  000ae	50		 push	 eax
  000af	ff 75 08	 push	 DWORD PTR _pEntry$[ebp]
  000b2	0f af c1	 imul	 eax, ecx
  000b5	03 c3		 add	 eax, ebx
  000b7	50		 push	 eax
  000b8	e8 00 00 00 00	 call	 _memcpy

; 977  :     m_NumEntries++;

  000bd	ff 47 0c	 inc	 DWORD PTR [edi+12]
  000c0	83 c4 0c	 add	 esp, 12			; 0000000cH

; 978  : 
; 979  :     return S_OK;

  000c3	33 c0		 xor	 eax, eax
  000c5	5e		 pop	 esi
  000c6	5b		 pop	 ebx
  000c7	5f		 pop	 edi

; 980  : }

  000c8	8b e5		 mov	 esp, ebp
  000ca	5d		 pop	 ebp
  000cb	c2 04 00	 ret	 4
$LN9@Add:

; 975  :     else
; 976  :         *(((void**)m_pData) + m_NumEntries) = pEntry;

  000ce	8b 45 08	 mov	 eax, DWORD PTR _pEntry$[ebp]
  000d1	89 04 8b	 mov	 DWORD PTR [ebx+ecx*4], eax

; 977  :     m_NumEntries++;

  000d4	ff 47 0c	 inc	 DWORD PTR [edi+12]

; 978  : 
; 979  :     return S_OK;

  000d7	33 c0		 xor	 eax, eax
  000d9	5e		 pop	 esi
  000da	5b		 pop	 ebx
  000db	5f		 pop	 edi

; 980  : }

  000dc	8b e5		 mov	 esp, ebp
  000de	5d		 pop	 ebp
  000df	c2 04 00	 ret	 4
?Add@CArrayList@@QAEJPAX@Z ENDP				; CArrayList::Add
_TEXT	ENDS
; Function compile flags: /Ogtp
; File C:\IAGOS\server\v18\Source\Source\_DirectX\dxutil.cpp
;	COMDAT ??1CArrayList@@QAE@XZ
_TEXT	SEGMENT
??1CArrayList@@QAE@XZ PROC				; CArrayList::~CArrayList, COMDAT
; _this$ = ecx

; 938  :     if( m_pData != NULL )

  00000	8b 41 04	 mov	 eax, DWORD PTR [ecx+4]
  00003	85 c0		 test	 eax, eax
  00005	74 07		 je	 SHORT $LN2@CArrayList

; 939  :         safe_delete_array( m_pData );

  00007	50		 push	 eax
  00008	e8 00 00 00 00	 call	 ??_V@YAXPAX@Z		; operator delete[]
  0000d	59		 pop	 ecx
$LN2@CArrayList:

; 940  : }

  0000e	c3		 ret	 0
??1CArrayList@@QAE@XZ ENDP				; CArrayList::~CArrayList
_TEXT	ENDS
; Function compile flags: /Ogtp
; File C:\IAGOS\server\v18\Source\Source\_DirectX\dxutil.cpp
;	COMDAT ??0CArrayList@@QAE@W4ArrayListType@@I@Z
_TEXT	SEGMENT
_Type$ = 8						; size = 4
_BytesPerEntry$ = 12					; size = 4
??0CArrayList@@QAE@W4ArrayListType@@I@Z PROC		; CArrayList::CArrayList, COMDAT
; _this$ = ecx

; 920  : {

  00000	55		 push	 ebp
  00001	8b ec		 mov	 ebp, esp

; 921  :     if( Type == AL_REFERENCE )
; 922  :         BytesPerEntry = sizeof(void*);
; 923  :     m_ArrayListType = Type;

  00003	8b 45 08	 mov	 eax, DWORD PTR _Type$[ebp]
  00006	ba 04 00 00 00	 mov	 edx, 4
  0000b	83 f8 01	 cmp	 eax, 1
  0000e	89 01		 mov	 DWORD PTR [ecx], eax

; 924  :     m_pData = NULL;

  00010	c7 41 04 00 00
	00 00		 mov	 DWORD PTR [ecx+4], 0

; 925  :     m_BytesPerEntry = BytesPerEntry;
; 926  :     m_NumEntries = 0;
; 927  :     m_NumEntriesAllocated = 0;
; 928  : }

  00017	8b c1		 mov	 eax, ecx
  00019	0f 45 55 0c	 cmovne	 edx, DWORD PTR _BytesPerEntry$[ebp]
  0001d	89 51 08	 mov	 DWORD PTR [ecx+8], edx
  00020	c7 41 0c 00 00
	00 00		 mov	 DWORD PTR [ecx+12], 0
  00027	c7 41 10 00 00
	00 00		 mov	 DWORD PTR [ecx+16], 0
  0002e	5d		 pop	 ebp
  0002f	c2 08 00	 ret	 8
??0CArrayList@@QAE@W4ArrayListType@@I@Z ENDP		; CArrayList::CArrayList
_TEXT	ENDS
; Function compile flags: /Ogtp
; File C:\IAGOS\server\v18\Source\Source\_DirectX\dxutil.cpp
;	COMDAT ?DXUtil_Trace@@YAXPADZZ
_TEXT	SEGMENT
_strMsg$ = 8						; size = 4
?DXUtil_Trace@@YAXPADZZ PROC				; DXUtil_Trace, COMDAT

; 837  : #if defined(DEBUG) | defined(_DEBUG)
; 838  :     TCHAR strBuffer[512];
; 839  :     
; 840  :     va_list args;
; 841  :     va_start(args, strMsg);
; 842  :     _vsntprintf( strBuffer, 512, strMsg, args );
; 843  :     va_end(args);
; 844  : 
; 845  :     OutputDebugString( strBuffer );
; 846  : #else
; 847  :     UNREFERENCED_PARAMETER(strMsg);
; 848  : #endif
; 849  : }

  00000	c2 00 00	 ret	 0
?DXUtil_Trace@@YAXPADZZ ENDP				; DXUtil_Trace
_TEXT	ENDS
; Function compile flags: /Ogtp
; File C:\IAGOS\server\v18\Source\Source\_DirectX\dxutil.cpp
;	COMDAT ?DXUtil_ConvertStringToGUID@@YAJPBDPAU_GUID@@@Z
_TEXT	SEGMENT
_aiTmp$ = -44						; size = 40
__$ArrayPad$ = -4					; size = 4
_strSrc$ = 8						; size = 4
_pGuidDest$ = 12					; size = 4
?DXUtil_ConvertStringToGUID@@YAJPBDPAU_GUID@@@Z PROC	; DXUtil_ConvertStringToGUID, COMDAT

; 859  : {

  00000	55		 push	 ebp
  00001	8b ec		 mov	 ebp, esp
  00003	83 ec 2c	 sub	 esp, 44			; 0000002cH
  00006	a1 00 00 00 00	 mov	 eax, DWORD PTR ___security_cookie
  0000b	33 c5		 xor	 eax, ebp
  0000d	89 45 fc	 mov	 DWORD PTR __$ArrayPad$[ebp], eax
  00010	56		 push	 esi
  00011	8b 75 0c	 mov	 esi, DWORD PTR _pGuidDest$[ebp]

; 860  :     UINT aiTmp[10];
; 861  : 
; 862  :     if( _stscanf( strSrc, TEXT("{%8X-%4X-%4X-%2X%2X-%2X%2X%2X%2X%2X%2X}"),
; 863  :                     &pGuidDest->Data1, 
; 864  :                     &aiTmp[0], &aiTmp[1], 
; 865  :                     &aiTmp[2], &aiTmp[3],
; 866  :                     &aiTmp[4], &aiTmp[5],
; 867  :                     &aiTmp[6], &aiTmp[7],
; 868  :                     &aiTmp[8], &aiTmp[9] ) != 11 )

  00014	8d 4d f8	 lea	 ecx, DWORD PTR _aiTmp$[ebp+36]
  00017	51		 push	 ecx
  00018	8b 45 08	 mov	 eax, DWORD PTR _strSrc$[ebp]
  0001b	8d 4d f4	 lea	 ecx, DWORD PTR _aiTmp$[ebp+32]
  0001e	51		 push	 ecx
  0001f	8d 4d f0	 lea	 ecx, DWORD PTR _aiTmp$[ebp+28]
  00022	51		 push	 ecx
  00023	8d 4d ec	 lea	 ecx, DWORD PTR _aiTmp$[ebp+24]
  00026	51		 push	 ecx
  00027	8d 4d e8	 lea	 ecx, DWORD PTR _aiTmp$[ebp+20]
  0002a	51		 push	 ecx
  0002b	8d 4d e4	 lea	 ecx, DWORD PTR _aiTmp$[ebp+16]
  0002e	51		 push	 ecx
  0002f	8d 4d e0	 lea	 ecx, DWORD PTR _aiTmp$[ebp+12]
  00032	51		 push	 ecx
  00033	8d 4d dc	 lea	 ecx, DWORD PTR _aiTmp$[ebp+8]
  00036	51		 push	 ecx
  00037	8d 4d d8	 lea	 ecx, DWORD PTR _aiTmp$[ebp+4]
  0003a	51		 push	 ecx
  0003b	8d 4d d4	 lea	 ecx, DWORD PTR _aiTmp$[ebp]
  0003e	51		 push	 ecx
  0003f	56		 push	 esi
  00040	68 00 00 00 00	 push	 OFFSET ??_C@_0CI@FDANOHPD@?$HL?$CF8X?9?$CF4X?9?$CF4X?9?$CF2X?$CF2X?9?$CF2X?$CF2X?$CF2X?$CF2@
  00045	50		 push	 eax
  00046	e8 00 00 00 00	 call	 _sscanf
  0004b	83 c4 34	 add	 esp, 52			; 00000034H
  0004e	83 f8 0b	 cmp	 eax, 11			; 0000000bH
  00051	74 1a		 je	 SHORT $LN2@DXUtil_Con

; 869  :     {
; 870  :         ZeroMemory( pGuidDest, sizeof(GUID) );
; 871  :         return E_FAIL;

  00053	0f 57 c0	 xorps	 xmm0, xmm0
  00056	b8 05 40 00 80	 mov	 eax, -2147467259	; 80004005H
  0005b	0f 11 06	 movups	 XMMWORD PTR [esi], xmm0
  0005e	5e		 pop	 esi

; 877  :         pGuidDest->Data4[0]    = (BYTE) aiTmp[2];
; 878  :         pGuidDest->Data4[1]    = (BYTE) aiTmp[3];
; 879  :         pGuidDest->Data4[2]    = (BYTE) aiTmp[4];
; 880  :         pGuidDest->Data4[3]    = (BYTE) aiTmp[5];
; 881  :         pGuidDest->Data4[4]    = (BYTE) aiTmp[6];
; 882  :         pGuidDest->Data4[5]    = (BYTE) aiTmp[7];
; 883  :         pGuidDest->Data4[6]    = (BYTE) aiTmp[8];
; 884  :         pGuidDest->Data4[7]    = (BYTE) aiTmp[9];
; 885  :         return S_OK;
; 886  :     }
; 887  : }

  0005f	8b 4d fc	 mov	 ecx, DWORD PTR __$ArrayPad$[ebp]
  00062	33 cd		 xor	 ecx, ebp
  00064	e8 00 00 00 00	 call	 @__security_check_cookie@4
  00069	8b e5		 mov	 esp, ebp
  0006b	5d		 pop	 ebp
  0006c	c3		 ret	 0
$LN2@DXUtil_Con:

; 872  :     }
; 873  :     else
; 874  :     {
; 875  :         pGuidDest->Data2       = (USHORT) aiTmp[0];

  0006d	0f b7 45 d4	 movzx	 eax, WORD PTR _aiTmp$[ebp]
  00071	66 89 46 04	 mov	 WORD PTR [esi+4], ax

; 876  :         pGuidDest->Data3       = (USHORT) aiTmp[1];

  00075	0f b7 45 d8	 movzx	 eax, WORD PTR _aiTmp$[ebp+4]

; 877  :         pGuidDest->Data4[0]    = (BYTE) aiTmp[2];
; 878  :         pGuidDest->Data4[1]    = (BYTE) aiTmp[3];
; 879  :         pGuidDest->Data4[2]    = (BYTE) aiTmp[4];
; 880  :         pGuidDest->Data4[3]    = (BYTE) aiTmp[5];
; 881  :         pGuidDest->Data4[4]    = (BYTE) aiTmp[6];
; 882  :         pGuidDest->Data4[5]    = (BYTE) aiTmp[7];
; 883  :         pGuidDest->Data4[6]    = (BYTE) aiTmp[8];
; 884  :         pGuidDest->Data4[7]    = (BYTE) aiTmp[9];
; 885  :         return S_OK;
; 886  :     }
; 887  : }

  00079	8b 4d fc	 mov	 ecx, DWORD PTR __$ArrayPad$[ebp]
  0007c	66 89 46 06	 mov	 WORD PTR [esi+6], ax
  00080	33 cd		 xor	 ecx, ebp
  00082	0f b6 45 dc	 movzx	 eax, BYTE PTR _aiTmp$[ebp+8]
  00086	88 46 08	 mov	 BYTE PTR [esi+8], al
  00089	0f b6 45 e0	 movzx	 eax, BYTE PTR _aiTmp$[ebp+12]
  0008d	88 46 09	 mov	 BYTE PTR [esi+9], al
  00090	0f b6 45 e4	 movzx	 eax, BYTE PTR _aiTmp$[ebp+16]
  00094	88 46 0a	 mov	 BYTE PTR [esi+10], al
  00097	0f b6 45 e8	 movzx	 eax, BYTE PTR _aiTmp$[ebp+20]
  0009b	88 46 0b	 mov	 BYTE PTR [esi+11], al
  0009e	0f b6 45 ec	 movzx	 eax, BYTE PTR _aiTmp$[ebp+24]
  000a2	88 46 0c	 mov	 BYTE PTR [esi+12], al
  000a5	0f b6 45 f0	 movzx	 eax, BYTE PTR _aiTmp$[ebp+28]
  000a9	88 46 0d	 mov	 BYTE PTR [esi+13], al
  000ac	0f b6 45 f4	 movzx	 eax, BYTE PTR _aiTmp$[ebp+32]
  000b0	88 46 0e	 mov	 BYTE PTR [esi+14], al
  000b3	0f b6 45 f8	 movzx	 eax, BYTE PTR _aiTmp$[ebp+36]
  000b7	88 46 0f	 mov	 BYTE PTR [esi+15], al
  000ba	33 c0		 xor	 eax, eax
  000bc	5e		 pop	 esi
  000bd	e8 00 00 00 00	 call	 @__security_check_cookie@4
  000c2	8b e5		 mov	 esp, ebp
  000c4	5d		 pop	 ebp
  000c5	c3		 ret	 0
?DXUtil_ConvertStringToGUID@@YAJPBDPAU_GUID@@@Z ENDP	; DXUtil_ConvertStringToGUID
_TEXT	ENDS
; Function compile flags: /Ogtp
; File C:\IAGOS\server\v18\Source\Source\_DirectX\dxutil.cpp
;	COMDAT ?DXUtil_ConvertGUIDToStringCb@@YAJPBU_GUID@@PADH@Z
_TEXT	SEGMENT
_pGuidSrc$ = 8						; size = 4
_strDest$ = 12						; size = 4
_cbDestChar$ = 16					; size = 4
?DXUtil_ConvertGUIDToStringCb@@YAJPBU_GUID@@PADH@Z PROC	; DXUtil_ConvertGUIDToStringCb, COMDAT

; 1089 : {

  00000	55		 push	 ebp
  00001	8b ec		 mov	 ebp, esp

; 1091 : }

  00003	5d		 pop	 ebp

; 1090 :     return DXUtil_ConvertGUIDToStringCch( pGuidSrc, strDest, cbDestChar / sizeof(TCHAR) );

  00004	e9 00 00 00 00	 jmp	 ?DXUtil_ConvertGUIDToStringCch@@YAJPBU_GUID@@PADH@Z ; DXUtil_ConvertGUIDToStringCch
?DXUtil_ConvertGUIDToStringCb@@YAJPBU_GUID@@PADH@Z ENDP	; DXUtil_ConvertGUIDToStringCb
_TEXT	ENDS
; Function compile flags: /Ogtp
; File C:\IAGOS\server\v18\Source\Source\_DirectX\dxutil.cpp
;	COMDAT ?DXUtil_ConvertGUIDToStringCch@@YAJPBU_GUID@@PADH@Z
_TEXT	SEGMENT
_pGuidSrc$ = 8						; size = 4
_strDest$ = 12						; size = 4
_cchDestChar$ = 16					; size = 4
?DXUtil_ConvertGUIDToStringCch@@YAJPBU_GUID@@PADH@Z PROC ; DXUtil_ConvertGUIDToStringCch, COMDAT

; 899  : {

  00000	55		 push	 ebp
  00001	8b ec		 mov	 ebp, esp

; 900  :     int nResult = _sntprintf( strDest, cchDestChar, TEXT("{%0.8X-%0.4X-%0.4X-%0.2X%0.2X-%0.2X%0.2X%0.2X%0.2X%0.2X%0.2X}"),

  00003	8b 4d 08	 mov	 ecx, DWORD PTR _pGuidSrc$[ebp]
  00006	0f b6 41 0f	 movzx	 eax, BYTE PTR [ecx+15]
  0000a	50		 push	 eax
  0000b	0f b6 41 0e	 movzx	 eax, BYTE PTR [ecx+14]
  0000f	50		 push	 eax
  00010	0f b6 41 0d	 movzx	 eax, BYTE PTR [ecx+13]
  00014	50		 push	 eax
  00015	0f b6 41 0c	 movzx	 eax, BYTE PTR [ecx+12]
  00019	50		 push	 eax
  0001a	0f b6 41 0b	 movzx	 eax, BYTE PTR [ecx+11]
  0001e	50		 push	 eax
  0001f	0f b6 41 0a	 movzx	 eax, BYTE PTR [ecx+10]
  00023	50		 push	 eax
  00024	0f b6 41 09	 movzx	 eax, BYTE PTR [ecx+9]
  00028	50		 push	 eax
  00029	0f b6 41 08	 movzx	 eax, BYTE PTR [ecx+8]
  0002d	50		 push	 eax
  0002e	0f b7 41 06	 movzx	 eax, WORD PTR [ecx+6]
  00032	50		 push	 eax
  00033	0f b7 41 04	 movzx	 eax, WORD PTR [ecx+4]
  00037	50		 push	 eax
  00038	ff 31		 push	 DWORD PTR [ecx]
  0003a	68 00 00 00 00	 push	 OFFSET ??_C@_0DO@OBIAHMKG@?$HL?$CF0?48X?9?$CF0?44X?9?$CF0?44X?9?$CF0?42X?$CF0?42X?9?$CF@
  0003f	ff 75 10	 push	 DWORD PTR _cchDestChar$[ebp]
  00042	ff 75 0c	 push	 DWORD PTR _strDest$[ebp]
  00045	e8 00 00 00 00	 call	 __snprintf

; 901  :                pGuidSrc->Data1, pGuidSrc->Data2, pGuidSrc->Data3,
; 902  :                pGuidSrc->Data4[0], pGuidSrc->Data4[1],
; 903  :                pGuidSrc->Data4[2], pGuidSrc->Data4[3],
; 904  :                pGuidSrc->Data4[4], pGuidSrc->Data4[5],
; 905  :                pGuidSrc->Data4[6], pGuidSrc->Data4[7] );
; 906  : 
; 907  :     if( nResult < 0 )

  0004a	33 c9		 xor	 ecx, ecx
  0004c	83 c4 38	 add	 esp, 56			; 00000038H
  0004f	85 c0		 test	 eax, eax
  00051	ba 05 40 00 80	 mov	 edx, -2147467259	; 80004005H
  00056	0f 48 ca	 cmovs	 ecx, edx

; 908  :         return E_FAIL;

  00059	8b c1		 mov	 eax, ecx

; 909  :     return S_OK;
; 910  : }

  0005b	5d		 pop	 ebp
  0005c	c3		 ret	 0
?DXUtil_ConvertGUIDToStringCch@@YAJPBU_GUID@@PADH@Z ENDP ; DXUtil_ConvertGUIDToStringCch
_TEXT	ENDS
; Function compile flags: /Ogtp
; File C:\IAGOS\server\v18\Source\Source\_DirectX\dxutil.cpp
; File C:\Program Files (x86)\Windows Kits\10\Include\10.0.26100.0\ucrt\tchar.h
; File C:\IAGOS\server\v18\Source\Source\_DirectX\dxutil.cpp
; File C:\Program Files (x86)\Windows Kits\10\Include\10.0.26100.0\ucrt\tchar.h
; File C:\IAGOS\server\v18\Source\Source\_DirectX\dxutil.cpp
; File C:\Program Files (x86)\Windows Kits\10\Include\10.0.26100.0\ucrt\tchar.h
; File C:\IAGOS\server\v18\Source\Source\_DirectX\dxutil.cpp
; File C:\Program Files (x86)\Windows Kits\10\Include\10.0.26100.0\ucrt\tchar.h
; File C:\IAGOS\server\v18\Source\Source\_DirectX\dxutil.cpp
; File C:\Program Files (x86)\Windows Kits\10\Include\10.0.26100.0\ucrt\tchar.h
; File C:\IAGOS\server\v18\Source\Source\_DirectX\dxutil.cpp
; File C:\Program Files (x86)\Windows Kits\10\Include\10.0.26100.0\ucrt\tchar.h
; File C:\IAGOS\server\v18\Source\Source\_DirectX\dxutil.cpp
; File C:\Program Files (x86)\Windows Kits\10\Include\10.0.26100.0\ucrt\tchar.h
; File C:\IAGOS\server\v18\Source\Source\_DirectX\dxutil.cpp
; File C:\Program Files (x86)\Windows Kits\10\Include\10.0.26100.0\ucrt\tchar.h
; File C:\IAGOS\server\v18\Source\Source\_DirectX\dxutil.cpp
; File C:\Program Files (x86)\Windows Kits\10\Include\10.0.26100.0\ucrt\tchar.h
; File C:\IAGOS\server\v18\Source\Source\_DirectX\dxutil.cpp
; File C:\Program Files (x86)\Windows Kits\10\Include\10.0.26100.0\ucrt\tchar.h
; File C:\IAGOS\server\v18\Source\Source\_DirectX\dxutil.cpp
; File C:\Program Files (x86)\Windows Kits\10\Include\10.0.26100.0\ucrt\tchar.h
; File C:\IAGOS\server\v18\Source\Source\_DirectX\dxutil.cpp
;	COMDAT ?DXUtil_LaunchReadme@@YAXPAUHWND__@@PAD@Z
_TEXT	SEGMENT
_dwType$1 = -1828					; size = 4
_strLoc$GSCopy$1$ = -1824				; size = 4
_dwSize$2 = -1820					; size = 4
_hKey$3 = -1816						; size = 4
_hWnd$GSCopy$1$ = -1812					; size = 4
_strSamplePath$ = -1808					; size = 260
_strExeName$ = -1548					; size = 260
_strReadmePath$ = -1288					; size = 1024
_strExePath$ = -264					; size = 260
__$ArrayPad$ = -4					; size = 4
_hWnd$ = 8						; size = 4
_strLoc$ = 12						; size = 4
?DXUtil_LaunchReadme@@YAXPAUHWND__@@PAD@Z PROC		; DXUtil_LaunchReadme, COMDAT

; 670  : {

  00000	55		 push	 ebp
  00001	8b ec		 mov	 ebp, esp
  00003	81 ec 24 07 00
	00		 sub	 esp, 1828		; 00000724H
  00009	a1 00 00 00 00	 mov	 eax, DWORD PTR ___security_cookie
  0000e	33 c5		 xor	 eax, ebp
  00010	89 45 fc	 mov	 DWORD PTR __$ArrayPad$[ebp], eax
  00013	8b 45 08	 mov	 eax, DWORD PTR _hWnd$[ebp]
  00016	53		 push	 ebx
  00017	56		 push	 esi

; 671  : 
; 672  : #ifdef UNDER_CE
; 673  :     // This is not available on PocketPC
; 674  :     MessageBox( hWnd, TEXT("For operating instructions, please open the ")
; 675  :                       TEXT("readme.txt file included with the project."),
; 676  :                 TEXT("DirectX SDK Sample"), MB_ICONWARNING | MB_OK );
; 677  : 
; 678  :     return;
; 679  : #else 
; 680  : 
; 681  :     bool bSuccess = false;
; 682  :     bool bFound = false;
; 683  :     TCHAR strReadmePath[1024];
; 684  :     TCHAR strExeName[MAX_PATH];
; 685  :     TCHAR strExePath[MAX_PATH];
; 686  :     TCHAR strSamplePath[MAX_PATH];
; 687  :     TCHAR* strLastSlash = NULL;
; 688  : 
; 689  :     lstrcpy( strReadmePath, TEXT("") );

  00018	8b 35 00 00 00
	00		 mov	 esi, DWORD PTR __imp__lstrcpyA@8
  0001e	32 db		 xor	 bl, bl
  00020	57		 push	 edi
  00021	8b 7d 0c	 mov	 edi, DWORD PTR _strLoc$[ebp]
  00024	89 85 ec f8 ff
	ff		 mov	 DWORD PTR _hWnd$GSCopy$1$[ebp], eax
  0002a	8d 85 f8 fa ff
	ff		 lea	 eax, DWORD PTR _strReadmePath$[ebp]
  00030	68 00 00 00 00	 push	 OFFSET ??_C@_00CNPNBAHC@@
  00035	50		 push	 eax
  00036	89 bd e0 f8 ff
	ff		 mov	 DWORD PTR _strLoc$GSCopy$1$[ebp], edi
  0003c	ff d6		 call	 esi

; 690  :     lstrcpy( strExePath, TEXT("") );

  0003e	68 00 00 00 00	 push	 OFFSET ??_C@_00CNPNBAHC@@
  00043	8d 85 f8 fe ff
	ff		 lea	 eax, DWORD PTR _strExePath$[ebp]
  00049	50		 push	 eax
  0004a	ff d6		 call	 esi

; 691  :     lstrcpy( strExeName, TEXT("") );

  0004c	68 00 00 00 00	 push	 OFFSET ??_C@_00CNPNBAHC@@
  00051	8d 85 f4 f9 ff
	ff		 lea	 eax, DWORD PTR _strExeName$[ebp]
  00057	50		 push	 eax
  00058	ff d6		 call	 esi

; 692  :     lstrcpy( strSamplePath, TEXT("") );

  0005a	68 00 00 00 00	 push	 OFFSET ??_C@_00CNPNBAHC@@
  0005f	8d 85 f0 f8 ff
	ff		 lea	 eax, DWORD PTR _strSamplePath$[ebp]
  00065	50		 push	 eax
  00066	ff d6		 call	 esi

; 693  : 
; 694  :     // If the user provided a location for the readme, check there first.
; 695  :     if( strLoc )

  00068	85 ff		 test	 edi, edi
  0006a	8b 3d 00 00 00
	00		 mov	 edi, DWORD PTR __imp__GetFileAttributesA@4
  00070	0f 84 ad 00 00
	00		 je	 $LN2@DXUtil_Lau

; 696  :     {
; 697  :         HKEY  hKey;
; 698  :         LONG lResult = RegOpenKeyEx( HKEY_LOCAL_MACHINE,

  00076	8d 85 e8 f8 ff
	ff		 lea	 eax, DWORD PTR _hKey$3[ebp]
  0007c	50		 push	 eax
  0007d	68 19 00 02 00	 push	 131097			; 00020019H
  00082	6a 00		 push	 0
  00084	68 00 00 00 00	 push	 OFFSET ??_C@_0BP@HEGLIIKH@Software?2Microsoft?2DirectX?5SDK@
  00089	68 02 00 00 80	 push	 -2147483646		; 80000002H
  0008e	ff 15 00 00 00
	00		 call	 DWORD PTR __imp__RegOpenKeyExA@20

; 699  :                                     _T("Software\\Microsoft\\DirectX SDK"),
; 700  :                                     0, KEY_READ, &hKey );
; 701  :         if( ERROR_SUCCESS == lResult )

  00094	85 c0		 test	 eax, eax
  00096	75 7f		 jne	 SHORT $LN5@DXUtil_Lau

; 702  :         {
; 703  :             DWORD dwType;
; 704  :             DWORD dwSize = MAX_PATH * sizeof(TCHAR);
; 705  :             lResult = RegQueryValueEx( hKey, _T("DX9SDK Samples Path"), NULL,

  00098	8d 85 e4 f8 ff
	ff		 lea	 eax, DWORD PTR _dwSize$2[ebp]
  0009e	c7 85 e4 f8 ff
	ff 04 01 00 00	 mov	 DWORD PTR _dwSize$2[ebp], 260 ; 00000104H
  000a8	50		 push	 eax
  000a9	8d 85 f0 f8 ff
	ff		 lea	 eax, DWORD PTR _strSamplePath$[ebp]
  000af	50		 push	 eax
  000b0	8d 85 dc f8 ff
	ff		 lea	 eax, DWORD PTR _dwType$1[ebp]
  000b6	50		 push	 eax
  000b7	6a 00		 push	 0
  000b9	68 00 00 00 00	 push	 OFFSET ??_C@_0BE@LKAAOJGK@DX9SDK?5Samples?5Path@
  000be	ff b5 e8 f8 ff
	ff		 push	 DWORD PTR _hKey$3[ebp]
  000c4	ff 15 00 00 00
	00		 call	 DWORD PTR __imp__RegQueryValueExA@24

; 706  :                                       &dwType, (BYTE*)strSamplePath, &dwSize );
; 707  :             strSamplePath[MAX_PATH-1] = 0; // RegQueryValueEx doesn't NULL term if buffer too small

  000ca	88 9d f3 f9 ff
	ff		 mov	 BYTE PTR _strSamplePath$[ebp+259], bl

; 708  :             
; 709  :             if( ERROR_SUCCESS == lResult )

  000d0	85 c0		 test	 eax, eax
  000d2	75 43		 jne	 SHORT $LN5@DXUtil_Lau

; 710  :             {
; 711  :                 _sntprintf( strReadmePath, 1023, TEXT("%s\\C++\\%s\\readme.txt"), 

  000d4	ff b5 e0 f8 ff
	ff		 push	 DWORD PTR _strLoc$GSCopy$1$[ebp]
  000da	8d 85 f0 f8 ff
	ff		 lea	 eax, DWORD PTR _strSamplePath$[ebp]
  000e0	50		 push	 eax
  000e1	68 00 00 00 00	 push	 OFFSET ??_C@_0BF@PHKGEBGA@?$CFs?2C?$CL?$CL?2?$CFs?2readme?4txt@
  000e6	8d 85 f8 fa ff
	ff		 lea	 eax, DWORD PTR _strReadmePath$[ebp]
  000ec	68 ff 03 00 00	 push	 1023			; 000003ffH
  000f1	50		 push	 eax
  000f2	e8 00 00 00 00	 call	 __snprintf
  000f7	83 c4 14	 add	 esp, 20			; 00000014H

; 712  :                             strSamplePath, strLoc );
; 713  :                 strReadmePath[1023] = 0;

  000fa	88 9d f7 fe ff
	ff		 mov	 BYTE PTR _strReadmePath$[ebp+1023], bl

; 714  : 
; 715  :                 if( GetFileAttributes( strReadmePath ) != 0xFFFFFFFF )

  00100	8d 85 f8 fa ff
	ff		 lea	 eax, DWORD PTR _strReadmePath$[ebp]
  00106	50		 push	 eax
  00107	ff d7		 call	 edi
  00109	83 f8 ff	 cmp	 eax, -1
  0010c	0f b6 db	 movzx	 ebx, bl
  0010f	b9 01 00 00 00	 mov	 ecx, 1
  00114	0f 45 d9	 cmovne	 ebx, ecx
$LN5@DXUtil_Lau:

; 716  :                     bFound = TRUE;
; 717  :             }
; 718  :         }
; 719  : 
; 720  :         RegCloseKey( hKey );

  00117	ff b5 e8 f8 ff
	ff		 push	 DWORD PTR _hKey$3[ebp]
  0011d	ff 15 00 00 00
	00		 call	 DWORD PTR __imp__RegCloseKey@4
$LN2@DXUtil_Lau:

; 721  :     }
; 722  : 
; 723  :     // Get the exe name, and exe path
; 724  :     GetModuleFileName( NULL, strExePath, MAX_PATH );

  00123	68 04 01 00 00	 push	 260			; 00000104H
  00128	8d 85 f8 fe ff
	ff		 lea	 eax, DWORD PTR _strExePath$[ebp]
  0012e	50		 push	 eax
  0012f	6a 00		 push	 0
  00131	ff 15 00 00 00
	00		 call	 DWORD PTR __imp__GetModuleFileNameA@12
; File C:\Program Files (x86)\Windows Kits\10\Include\10.0.26100.0\ucrt\tchar.h

; 1548 : _Check_return_ __inline _CRPC _tcsrchr(_In_z_ _CPC _s1,_In_ _UI _c) {return (_CRPC)_mbsrchr((_CPUC)_s1,_c);}

  00137	8d 85 f8 fe ff
	ff		 lea	 eax, DWORD PTR _strExePath$[ebp]
; File C:\IAGOS\server\v18\Source\Source\_DirectX\dxutil.cpp

; 725  :     strExePath[MAX_PATH-1]=0;

  0013d	c6 45 fb 00	 mov	 BYTE PTR _strExePath$[ebp+259], 0
; File C:\Program Files (x86)\Windows Kits\10\Include\10.0.26100.0\ucrt\tchar.h

; 1548 : _Check_return_ __inline _CRPC _tcsrchr(_In_z_ _CPC _s1,_In_ _UI _c) {return (_CRPC)_mbsrchr((_CPUC)_s1,_c);}

  00141	6a 5c		 push	 92			; 0000005cH
  00143	50		 push	 eax
  00144	e8 00 00 00 00	 call	 __mbsrchr
; File C:\IAGOS\server\v18\Source\Source\_DirectX\dxutil.cpp

; 727  :     strLastSlash = _tcsrchr( strExePath, TEXT('\\') );

  00149	8b f0		 mov	 esi, eax
; File C:\Program Files (x86)\Windows Kits\10\Include\10.0.26100.0\ucrt\tchar.h

; 1548 : _Check_return_ __inline _CRPC _tcsrchr(_In_z_ _CPC _s1,_In_ _UI _c) {return (_CRPC)_mbsrchr((_CPUC)_s1,_c);}

  0014b	83 c4 08	 add	 esp, 8
; File C:\IAGOS\server\v18\Source\Source\_DirectX\dxutil.cpp

; 728  :     if( strLastSlash )

  0014e	85 f6		 test	 esi, esi
  00150	74 37		 je	 SHORT $LN7@DXUtil_Lau
; File C:\Program Files (x86)\Windows Kits\10\Include\10.0.26100.0\ucrt\tchar.h

; 1528 :     return (char *)_mbsnbcpy((unsigned char *)_Dst,(const unsigned char *)_Source,_Count);

  00152	68 04 01 00 00	 push	 260			; 00000104H
; File C:\IAGOS\server\v18\Source\Source\_DirectX\dxutil.cpp

; 730  :         _tcsncpy( strExeName, &strLastSlash[1], MAX_PATH );

  00157	8d 4e 01	 lea	 ecx, DWORD PTR [esi+1]
; File C:\Program Files (x86)\Windows Kits\10\Include\10.0.26100.0\ucrt\tchar.h

; 1528 :     return (char *)_mbsnbcpy((unsigned char *)_Dst,(const unsigned char *)_Source,_Count);

  0015a	51		 push	 ecx
  0015b	8d 85 f4 f9 ff
	ff		 lea	 eax, DWORD PTR _strExeName$[ebp]
  00161	50		 push	 eax
  00162	e8 00 00 00 00	 call	 __mbsnbcpy

; 1548 : _Check_return_ __inline _CRPC _tcsrchr(_In_z_ _CPC _s1,_In_ _UI _c) {return (_CRPC)_mbsrchr((_CPUC)_s1,_c);}

  00167	8d 85 f4 f9 ff
	ff		 lea	 eax, DWORD PTR _strExeName$[ebp]
; File C:\IAGOS\server\v18\Source\Source\_DirectX\dxutil.cpp

; 731  :         strExeName[MAX_PATH-1]=0;

  0016d	c6 85 f7 fa ff
	ff 00		 mov	 BYTE PTR _strExeName$[ebp+259], 0
; File C:\Program Files (x86)\Windows Kits\10\Include\10.0.26100.0\ucrt\tchar.h

; 1548 : _Check_return_ __inline _CRPC _tcsrchr(_In_z_ _CPC _s1,_In_ _UI _c) {return (_CRPC)_mbsrchr((_CPUC)_s1,_c);}

  00174	6a 2e		 push	 46			; 0000002eH
  00176	50		 push	 eax
; File C:\IAGOS\server\v18\Source\Source\_DirectX\dxutil.cpp

; 734  :         *strLastSlash = 0;

  00177	c6 06 00	 mov	 BYTE PTR [esi], 0
; File C:\Program Files (x86)\Windows Kits\10\Include\10.0.26100.0\ucrt\tchar.h

; 1548 : _Check_return_ __inline _CRPC _tcsrchr(_In_z_ _CPC _s1,_In_ _UI _c) {return (_CRPC)_mbsrchr((_CPUC)_s1,_c);}

  0017a	e8 00 00 00 00	 call	 __mbsrchr
  0017f	83 c4 14	 add	 esp, 20			; 00000014H
; File C:\IAGOS\server\v18\Source\Source\_DirectX\dxutil.cpp

; 738  :         if( strLastSlash )

  00182	85 c0		 test	 eax, eax
  00184	74 03		 je	 SHORT $LN7@DXUtil_Lau

; 739  :             *strLastSlash = 0;

  00186	c6 00 00	 mov	 BYTE PTR [eax], 0
$LN7@DXUtil_Lau:

; 740  :     }
; 741  : 
; 742  :     if( !bFound )

  00189	84 db		 test	 bl, bl
  0018b	0f 85 60 01 00
	00		 jne	 $LN76@DXUtil_Lau

; 743  :     {
; 744  :         // Search in "%EXE_DIR%\..\%EXE_NAME%".  This matchs the DirectX SDK layout
; 745  :         _tcscpy( strReadmePath, strExePath );

  00191	33 c9		 xor	 ecx, ecx
$LL34@DXUtil_Lau:
  00193	8a 84 0d f8 fe
	ff ff		 mov	 al, BYTE PTR _strExePath$[ebp+ecx]
  0019a	8d 49 01	 lea	 ecx, DWORD PTR [ecx+1]
  0019d	88 84 0d f7 fa
	ff ff		 mov	 BYTE PTR _strReadmePath$[ebp+ecx-1], al
  001a4	84 c0		 test	 al, al
  001a6	75 eb		 jne	 SHORT $LL34@DXUtil_Lau
; File C:\Program Files (x86)\Windows Kits\10\Include\10.0.26100.0\ucrt\tchar.h

; 1548 : _Check_return_ __inline _CRPC _tcsrchr(_In_z_ _CPC _s1,_In_ _UI _c) {return (_CRPC)_mbsrchr((_CPUC)_s1,_c);}

  001a8	8d 85 f8 fa ff
	ff		 lea	 eax, DWORD PTR _strReadmePath$[ebp]
  001ae	6a 5c		 push	 92			; 0000005cH
  001b0	50		 push	 eax
  001b1	e8 00 00 00 00	 call	 __mbsrchr
  001b6	83 c4 08	 add	 esp, 8
; File C:\IAGOS\server\v18\Source\Source\_DirectX\dxutil.cpp

; 748  :         if( strLastSlash )

  001b9	85 c0		 test	 eax, eax
  001bb	74 03		 je	 SHORT $LN9@DXUtil_Lau

; 749  :             *strLastSlash = 0;

  001bd	c6 00 00	 mov	 BYTE PTR [eax], 0
$LN9@DXUtil_Lau:

; 750  :         lstrcat( strReadmePath, TEXT("\\") );

  001c0	8b 35 00 00 00
	00		 mov	 esi, DWORD PTR __imp__lstrcatA@8
  001c6	8d 85 f8 fa ff
	ff		 lea	 eax, DWORD PTR _strReadmePath$[ebp]
  001cc	68 00 00 00 00	 push	 OFFSET ??_C@_01KICIPPFI@?2@
  001d1	50		 push	 eax
  001d2	ff d6		 call	 esi

; 751  :         lstrcat( strReadmePath, strExeName );

  001d4	8d 85 f4 f9 ff
	ff		 lea	 eax, DWORD PTR _strExeName$[ebp]
  001da	50		 push	 eax
  001db	8d 85 f8 fa ff
	ff		 lea	 eax, DWORD PTR _strReadmePath$[ebp]
  001e1	50		 push	 eax
  001e2	ff d6		 call	 esi

; 752  :         lstrcat( strReadmePath, TEXT("\\readme.txt") );

  001e4	68 00 00 00 00	 push	 OFFSET ??_C@_0M@KCHKBMF@?2readme?4txt@
  001e9	8d 85 f8 fa ff
	ff		 lea	 eax, DWORD PTR _strReadmePath$[ebp]
  001ef	50		 push	 eax
  001f0	ff d6		 call	 esi

; 753  :         if( GetFileAttributes( strReadmePath ) != 0xFFFFFFFF )

  001f2	8d 85 f8 fa ff
	ff		 lea	 eax, DWORD PTR _strReadmePath$[ebp]
  001f8	50		 push	 eax
  001f9	ff d7		 call	 edi
  001fb	83 f8 ff	 cmp	 eax, -1
  001fe	0f 85 ed 00 00
	00		 jne	 $LN76@DXUtil_Lau

; 754  :             bFound = TRUE;
; 755  :     }
; 756  : 
; 757  :     if( !bFound )
; 758  :     {
; 759  :         // Search in "%EXE_DIR%\"
; 760  :         _tcscpy( strReadmePath, strExePath );

  00204	33 c9		 xor	 ecx, ecx
$LL35@DXUtil_Lau:
  00206	8a 84 0d f8 fe
	ff ff		 mov	 al, BYTE PTR _strExePath$[ebp+ecx]
  0020d	8d 49 01	 lea	 ecx, DWORD PTR [ecx+1]
  00210	88 84 0d f7 fa
	ff ff		 mov	 BYTE PTR _strReadmePath$[ebp+ecx-1], al
  00217	84 c0		 test	 al, al
  00219	75 eb		 jne	 SHORT $LL35@DXUtil_Lau

; 761  :         lstrcat( strReadmePath, TEXT("\\readme.txt") );

  0021b	68 00 00 00 00	 push	 OFFSET ??_C@_0M@KCHKBMF@?2readme?4txt@
  00220	8d 85 f8 fa ff
	ff		 lea	 eax, DWORD PTR _strReadmePath$[ebp]
  00226	50		 push	 eax
  00227	ff d6		 call	 esi

; 762  :         if( GetFileAttributes( strReadmePath ) != 0xFFFFFFFF )

  00229	8d 85 f8 fa ff
	ff		 lea	 eax, DWORD PTR _strReadmePath$[ebp]
  0022f	50		 push	 eax
  00230	ff d7		 call	 edi
  00232	83 f8 ff	 cmp	 eax, -1
  00235	0f 85 b6 00 00
	00		 jne	 $LN76@DXUtil_Lau

; 763  :             bFound = TRUE;
; 764  :     }
; 765  : 
; 766  :     if( !bFound )
; 767  :     {
; 768  :         // Search in "%EXE_DIR%\.."
; 769  :         _tcscpy( strReadmePath, strExePath );

  0023b	33 c9		 xor	 ecx, ecx
  0023d	0f 1f 00	 npad	 3
$LL36@DXUtil_Lau:
  00240	8a 84 0d f8 fe
	ff ff		 mov	 al, BYTE PTR _strExePath$[ebp+ecx]
  00247	8d 49 01	 lea	 ecx, DWORD PTR [ecx+1]
  0024a	88 84 0d f7 fa
	ff ff		 mov	 BYTE PTR _strReadmePath$[ebp+ecx-1], al
  00251	84 c0		 test	 al, al
  00253	75 eb		 jne	 SHORT $LL36@DXUtil_Lau
; File C:\Program Files (x86)\Windows Kits\10\Include\10.0.26100.0\ucrt\tchar.h

; 1548 : _Check_return_ __inline _CRPC _tcsrchr(_In_z_ _CPC _s1,_In_ _UI _c) {return (_CRPC)_mbsrchr((_CPUC)_s1,_c);}

  00255	8d 85 f8 fa ff
	ff		 lea	 eax, DWORD PTR _strReadmePath$[ebp]
  0025b	6a 5c		 push	 92			; 0000005cH
  0025d	50		 push	 eax
  0025e	e8 00 00 00 00	 call	 __mbsrchr
  00263	83 c4 08	 add	 esp, 8
; File C:\IAGOS\server\v18\Source\Source\_DirectX\dxutil.cpp

; 771  :         if( strLastSlash )

  00266	85 c0		 test	 eax, eax
  00268	74 03		 je	 SHORT $LN14@DXUtil_Lau

; 772  :             *strLastSlash = 0;

  0026a	c6 00 00	 mov	 BYTE PTR [eax], 0
$LN14@DXUtil_Lau:

; 773  :         lstrcat( strReadmePath, TEXT("\\readme.txt") );

  0026d	68 00 00 00 00	 push	 OFFSET ??_C@_0M@KCHKBMF@?2readme?4txt@
  00272	8d 85 f8 fa ff
	ff		 lea	 eax, DWORD PTR _strReadmePath$[ebp]
  00278	50		 push	 eax
  00279	ff d6		 call	 esi

; 774  :         if( GetFileAttributes( strReadmePath ) != 0xFFFFFFFF )

  0027b	8d 85 f8 fa ff
	ff		 lea	 eax, DWORD PTR _strReadmePath$[ebp]
  00281	50		 push	 eax
  00282	ff d7		 call	 edi
  00284	83 f8 ff	 cmp	 eax, -1
  00287	75 68		 jne	 SHORT $LN76@DXUtil_Lau

; 775  :             bFound = TRUE;
; 776  :     }
; 777  : 
; 778  :     if( !bFound )
; 779  :     {
; 780  :         // Search in "%EXE_DIR%\..\.."
; 781  :         _tcscpy( strReadmePath, strExePath );

  00289	33 c9		 xor	 ecx, ecx
  0028b	0f 1f 44 00 00	 npad	 5
$LL37@DXUtil_Lau:
  00290	8a 84 0d f8 fe
	ff ff		 mov	 al, BYTE PTR _strExePath$[ebp+ecx]
  00297	8d 49 01	 lea	 ecx, DWORD PTR [ecx+1]
  0029a	88 84 0d f7 fa
	ff ff		 mov	 BYTE PTR _strReadmePath$[ebp+ecx-1], al
  002a1	84 c0		 test	 al, al
  002a3	75 eb		 jne	 SHORT $LL37@DXUtil_Lau
; File C:\Program Files (x86)\Windows Kits\10\Include\10.0.26100.0\ucrt\tchar.h

; 1548 : _Check_return_ __inline _CRPC _tcsrchr(_In_z_ _CPC _s1,_In_ _UI _c) {return (_CRPC)_mbsrchr((_CPUC)_s1,_c);}

  002a5	8d 85 f8 fa ff
	ff		 lea	 eax, DWORD PTR _strReadmePath$[ebp]
  002ab	6a 5c		 push	 92			; 0000005cH
  002ad	50		 push	 eax
  002ae	e8 00 00 00 00	 call	 __mbsrchr
  002b3	83 c4 08	 add	 esp, 8
; File C:\IAGOS\server\v18\Source\Source\_DirectX\dxutil.cpp

; 783  :         if( strLastSlash )

  002b6	85 c0		 test	 eax, eax
  002b8	74 03		 je	 SHORT $LN17@DXUtil_Lau

; 784  :             *strLastSlash = 0;

  002ba	c6 00 00	 mov	 BYTE PTR [eax], 0
$LN17@DXUtil_Lau:
; File C:\Program Files (x86)\Windows Kits\10\Include\10.0.26100.0\ucrt\tchar.h

; 1548 : _Check_return_ __inline _CRPC _tcsrchr(_In_z_ _CPC _s1,_In_ _UI _c) {return (_CRPC)_mbsrchr((_CPUC)_s1,_c);}

  002bd	8d 85 f8 fa ff
	ff		 lea	 eax, DWORD PTR _strReadmePath$[ebp]
  002c3	6a 5c		 push	 92			; 0000005cH
  002c5	50		 push	 eax
  002c6	e8 00 00 00 00	 call	 __mbsrchr
  002cb	83 c4 08	 add	 esp, 8
; File C:\IAGOS\server\v18\Source\Source\_DirectX\dxutil.cpp

; 786  :         if( strLastSlash )

  002ce	85 c0		 test	 eax, eax
  002d0	74 03		 je	 SHORT $LN18@DXUtil_Lau

; 787  :             *strLastSlash = 0;

  002d2	c6 00 00	 mov	 BYTE PTR [eax], 0
$LN18@DXUtil_Lau:

; 788  :         lstrcat( strReadmePath, TEXT("\\readme.txt") );

  002d5	68 00 00 00 00	 push	 OFFSET ??_C@_0M@KCHKBMF@?2readme?4txt@
  002da	8d 85 f8 fa ff
	ff		 lea	 eax, DWORD PTR _strReadmePath$[ebp]
  002e0	50		 push	 eax
  002e1	ff d6		 call	 esi

; 789  :         if( GetFileAttributes( strReadmePath ) != 0xFFFFFFFF )

  002e3	8d 85 f8 fa ff
	ff		 lea	 eax, DWORD PTR _strReadmePath$[ebp]
  002e9	50		 push	 eax
  002ea	ff d7		 call	 edi
  002ec	83 f8 ff	 cmp	 eax, -1
  002ef	74 62		 je	 SHORT $LN82@DXUtil_Lau
$LN76@DXUtil_Lau:

; 790  :             bFound = TRUE;
; 791  :     }
; 792  : 
; 793  :     if( bFound )
; 794  :     {
; 795  :         // GetProcAddress for ShellExecute, so we don't have to include shell32.lib 
; 796  :         // in every project that uses dxutil.cpp
; 797  :         LPShellExecute pShellExecute = NULL;
; 798  :         HINSTANCE hInstShell32 = LoadLibrary(TEXT("shell32.dll"));

  002f1	68 00 00 00 00	 push	 OFFSET ??_C@_0M@KFDNOLCO@shell32?4dll@
  002f6	ff 15 00 00 00
	00		 call	 DWORD PTR __imp__LoadLibraryA@4
  002fc	8b f0		 mov	 esi, eax

; 799  :         if (hInstShell32 != NULL)

  002fe	85 f6		 test	 esi, esi
  00300	74 51		 je	 SHORT $LN82@DXUtil_Lau

; 800  :         {
; 801  : #ifdef UNICODE
; 802  :             pShellExecute = (LPShellExecute)GetProcAddress(hInstShell32, _TWINCE("ShellExecuteW"));
; 803  : #else
; 804  :             pShellExecute = (LPShellExecute)GetProcAddress(hInstShell32, _TWINCE("ShellExecuteA"));

  00302	68 00 00 00 00	 push	 OFFSET ??_C@_0O@MOHFGHHE@ShellExecuteA@
  00307	56		 push	 esi
  00308	ff 15 00 00 00
	00		 call	 DWORD PTR __imp__GetProcAddress@8

; 805  : #endif
; 806  :             if( pShellExecute != NULL )

  0030e	8b bd ec f8 ff
	ff		 mov	 edi, DWORD PTR _hWnd$GSCopy$1$[ebp]
  00314	85 c0		 test	 eax, eax
  00316	74 32		 je	 SHORT $LN23@DXUtil_Lau

; 807  :             {
; 808  :                 if( pShellExecute( hWnd, TEXT("open"), strReadmePath, NULL, NULL, SW_SHOW ) > (HINSTANCE) 32 )

  00318	6a 05		 push	 5
  0031a	6a 00		 push	 0
  0031c	6a 00		 push	 0
  0031e	8d 8d f8 fa ff
	ff		 lea	 ecx, DWORD PTR _strReadmePath$[ebp]
  00324	51		 push	 ecx
  00325	68 00 00 00 00	 push	 OFFSET ??_C@_04PMOCAHAA@open@
  0032a	57		 push	 edi
  0032b	ff d0		 call	 eax
  0032d	83 f8 20	 cmp	 eax, 32			; 00000020H
  00330	76 18		 jbe	 SHORT $LN23@DXUtil_Lau

; 809  :                     bSuccess = true;

  00332	56		 push	 esi
  00333	ff 15 00 00 00
	00		 call	 DWORD PTR __imp__FreeLibrary@4
  00339	5f		 pop	 edi

; 820  :                     TEXT("DirectX SDK Sample"), MB_ICONWARNING | MB_OK );
; 821  :     }
; 822  : 
; 823  : #endif // UNDER_CE
; 824  : }

  0033a	5e		 pop	 esi
  0033b	5b		 pop	 ebx
  0033c	8b 4d fc	 mov	 ecx, DWORD PTR __$ArrayPad$[ebp]
  0033f	33 cd		 xor	 ecx, ebp
  00341	e8 00 00 00 00	 call	 @__security_check_cookie@4
  00346	8b e5		 mov	 esp, ebp
  00348	5d		 pop	 ebp
  00349	c3		 ret	 0
$LN23@DXUtil_Lau:

; 810  :             }
; 811  : 
; 812  :             FreeLibrary(hInstShell32);

  0034a	56		 push	 esi
  0034b	ff 15 00 00 00
	00		 call	 DWORD PTR __imp__FreeLibrary@4
  00351	eb 06		 jmp	 SHORT $LN80@DXUtil_Lau
$LN82@DXUtil_Lau:

; 813  :         }
; 814  :     }
; 815  : 
; 816  :     if( !bSuccess )
; 817  :     {
; 818  :         // Tell the user that the readme couldn't be opened
; 819  :         MessageBox( hWnd, TEXT("Could not find readme.txt"), 

  00353	8b bd ec f8 ff
	ff		 mov	 edi, DWORD PTR _hWnd$GSCopy$1$[ebp]
$LN80@DXUtil_Lau:
  00359	6a 30		 push	 48			; 00000030H
  0035b	68 00 00 00 00	 push	 OFFSET ??_C@_0BD@NHAEFHIC@DirectX?5SDK?5Sample@
  00360	68 00 00 00 00	 push	 OFFSET ??_C@_0BK@MEKHEPPF@Could?5not?5find?5readme?4txt@
  00365	57		 push	 edi
  00366	ff 15 00 00 00
	00		 call	 DWORD PTR __imp__MessageBoxA@16

; 820  :                     TEXT("DirectX SDK Sample"), MB_ICONWARNING | MB_OK );
; 821  :     }
; 822  : 
; 823  : #endif // UNDER_CE
; 824  : }

  0036c	8b 4d fc	 mov	 ecx, DWORD PTR __$ArrayPad$[ebp]
  0036f	5f		 pop	 edi
  00370	5e		 pop	 esi
  00371	33 cd		 xor	 ecx, ebp
  00373	5b		 pop	 ebx
  00374	e8 00 00 00 00	 call	 @__security_check_cookie@4
  00379	8b e5		 mov	 esp, ebp
  0037b	5d		 pop	 ebp
  0037c	c3		 ret	 0
?DXUtil_LaunchReadme@@YAXPAUHWND__@@PAD@Z ENDP		; DXUtil_LaunchReadme
_TEXT	ENDS
; Function compile flags: /Ogtp
; File C:\IAGOS\server\v18\Source\Source\_DirectX\dxutil.cpp
;	COMDAT ?DXUtil_ConvertWideStringToGenericCb@@YAJPADPB_WH@Z
_TEXT	SEGMENT
_tstrDestination$ = 8					; size = 4
_wstrSource$ = 12					; size = 4
_cbDestChar$ = 16					; size = 4
?DXUtil_ConvertWideStringToGenericCb@@YAJPADPB_WH@Z PROC ; DXUtil_ConvertWideStringToGenericCb, COMDAT

; 1079 : {

  00000	55		 push	 ebp
  00001	8b ec		 mov	 ebp, esp

; 1081 : }

  00003	5d		 pop	 ebp

; 1080 :     return DXUtil_ConvertWideStringToGenericCch( tstrDestination, wstrSource, cbDestChar / sizeof(TCHAR) );

  00004	e9 00 00 00 00	 jmp	 ?DXUtil_ConvertWideStringToGenericCch@@YAJPADPB_WH@Z ; DXUtil_ConvertWideStringToGenericCch
?DXUtil_ConvertWideStringToGenericCb@@YAJPADPB_WH@Z ENDP ; DXUtil_ConvertWideStringToGenericCb
_TEXT	ENDS
; Function compile flags: /Ogtp
; File C:\IAGOS\server\v18\Source\Source\_DirectX\dxutil.cpp
;	COMDAT ?DXUtil_ConvertAnsiStringToGenericCb@@YAJPADPBDH@Z
_TEXT	SEGMENT
_tstrDestination$ = 8					; size = 4
_strSource$ = 12					; size = 4
_cbDestChar$ = 16					; size = 4
?DXUtil_ConvertAnsiStringToGenericCb@@YAJPADPBDH@Z PROC	; DXUtil_ConvertAnsiStringToGenericCb, COMDAT

; 1074 : {

  00000	55		 push	 ebp
  00001	8b ec		 mov	 ebp, esp

; 1076 : }

  00003	5d		 pop	 ebp

; 1075 :     return DXUtil_ConvertAnsiStringToGenericCch( tstrDestination, strSource, cbDestChar / sizeof(TCHAR) );

  00004	e9 00 00 00 00	 jmp	 ?DXUtil_ConvertAnsiStringToGenericCch@@YAJPADPBDH@Z ; DXUtil_ConvertAnsiStringToGenericCch
?DXUtil_ConvertAnsiStringToGenericCb@@YAJPADPBDH@Z ENDP	; DXUtil_ConvertAnsiStringToGenericCb
_TEXT	ENDS
; Function compile flags: /Ogtp
; File C:\IAGOS\server\v18\Source\Source\_DirectX\dxutil.cpp
;	COMDAT ?DXUtil_ConvertGenericStringToWideCb@@YAJPA_WPBDH@Z
_TEXT	SEGMENT
_wstrDestination$ = 8					; size = 4
_tstrSource$ = 12					; size = 4
_cbDestChar$ = 16					; size = 4
?DXUtil_ConvertGenericStringToWideCb@@YAJPA_WPBDH@Z PROC ; DXUtil_ConvertGenericStringToWideCb, COMDAT

; 1069 : {

  00000	55		 push	 ebp
  00001	8b ec		 mov	 ebp, esp

; 1070 :     return DXUtil_ConvertGenericStringToWideCch( wstrDestination, tstrSource, cbDestChar / sizeof(WCHAR) );

  00003	8b 45 10	 mov	 eax, DWORD PTR _cbDestChar$[ebp]
  00006	d1 e8		 shr	 eax, 1
  00008	89 45 10	 mov	 DWORD PTR _cbDestChar$[ebp], eax

; 1071 : }

  0000b	5d		 pop	 ebp

; 1070 :     return DXUtil_ConvertGenericStringToWideCch( wstrDestination, tstrSource, cbDestChar / sizeof(WCHAR) );

  0000c	e9 00 00 00 00	 jmp	 ?DXUtil_ConvertGenericStringToWideCch@@YAJPA_WPBDH@Z ; DXUtil_ConvertGenericStringToWideCch
?DXUtil_ConvertGenericStringToWideCb@@YAJPA_WPBDH@Z ENDP ; DXUtil_ConvertGenericStringToWideCb
_TEXT	ENDS
; Function compile flags: /Ogtp
; File C:\IAGOS\server\v18\Source\Source\_DirectX\dxutil.cpp
;	COMDAT ?DXUtil_ConvertGenericStringToAnsiCb@@YAJPADPBDH@Z
_TEXT	SEGMENT
_strDestination$ = 8					; size = 4
_tstrSource$ = 12					; size = 4
_cbDestChar$ = 16					; size = 4
?DXUtil_ConvertGenericStringToAnsiCb@@YAJPADPBDH@Z PROC	; DXUtil_ConvertGenericStringToAnsiCb, COMDAT

; 1064 : {

  00000	55		 push	 ebp
  00001	8b ec		 mov	 ebp, esp

; 1066 : }

  00003	5d		 pop	 ebp

; 1065 :     return DXUtil_ConvertGenericStringToAnsiCch( strDestination, tstrSource, cbDestChar / sizeof(CHAR) );

  00004	e9 00 00 00 00	 jmp	 ?DXUtil_ConvertGenericStringToAnsiCch@@YAJPADPBDH@Z ; DXUtil_ConvertGenericStringToAnsiCch
?DXUtil_ConvertGenericStringToAnsiCb@@YAJPADPBDH@Z ENDP	; DXUtil_ConvertGenericStringToAnsiCb
_TEXT	ENDS
; Function compile flags: /Ogtp
; File C:\IAGOS\server\v18\Source\Source\_DirectX\dxutil.cpp
;	COMDAT ?DXUtil_ConvertWideStringToAnsiCb@@YAJPADPB_WH@Z
_TEXT	SEGMENT
_strDestination$ = 8					; size = 4
_wstrSource$ = 12					; size = 4
_cbDestChar$ = 16					; size = 4
?DXUtil_ConvertWideStringToAnsiCb@@YAJPADPB_WH@Z PROC	; DXUtil_ConvertWideStringToAnsiCb, COMDAT

; 1059 : {

  00000	55		 push	 ebp
  00001	8b ec		 mov	 ebp, esp

; 1061 : }

  00003	5d		 pop	 ebp

; 1060 :     return DXUtil_ConvertWideStringToAnsiCch( strDestination, wstrSource, cbDestChar / sizeof(CHAR) );

  00004	e9 00 00 00 00	 jmp	 ?DXUtil_ConvertWideStringToAnsiCch@@YAJPADPB_WH@Z ; DXUtil_ConvertWideStringToAnsiCch
?DXUtil_ConvertWideStringToAnsiCb@@YAJPADPB_WH@Z ENDP	; DXUtil_ConvertWideStringToAnsiCb
_TEXT	ENDS
; Function compile flags: /Ogtp
; File C:\IAGOS\server\v18\Source\Source\_DirectX\dxutil.cpp
;	COMDAT ?DXUtil_ConvertAnsiStringToWideCb@@YAJPA_WPBDH@Z
_TEXT	SEGMENT
_wstrDestination$ = 8					; size = 4
_strSource$ = 12					; size = 4
_cbDestChar$ = 16					; size = 4
?DXUtil_ConvertAnsiStringToWideCb@@YAJPA_WPBDH@Z PROC	; DXUtil_ConvertAnsiStringToWideCb, COMDAT

; 1054 : {

  00000	55		 push	 ebp
  00001	8b ec		 mov	 ebp, esp

; 1055 :     return DXUtil_ConvertAnsiStringToWideCch( wstrDestination, strSource, cbDestChar / sizeof(WCHAR) );

  00003	8b 45 10	 mov	 eax, DWORD PTR _cbDestChar$[ebp]
  00006	d1 e8		 shr	 eax, 1
  00008	89 45 10	 mov	 DWORD PTR _cbDestChar$[ebp], eax

; 1056 : }

  0000b	5d		 pop	 ebp

; 1055 :     return DXUtil_ConvertAnsiStringToWideCch( wstrDestination, strSource, cbDestChar / sizeof(WCHAR) );

  0000c	e9 00 00 00 00	 jmp	 ?DXUtil_ConvertAnsiStringToWideCch@@YAJPA_WPBDH@Z ; DXUtil_ConvertAnsiStringToWideCch
?DXUtil_ConvertAnsiStringToWideCb@@YAJPA_WPBDH@Z ENDP	; DXUtil_ConvertAnsiStringToWideCb
_TEXT	ENDS
; Function compile flags: /Ogtp
; File C:\IAGOS\server\v18\Source\Source\_DirectX\dxutil.cpp
;	COMDAT ?DXUtil_ConvertWideStringToGenericCch@@YAJPADPB_WH@Z
_TEXT	SEGMENT
_tstrDestination$ = 8					; size = 4
_wstrSource$ = 12					; size = 4
_cchDestChar$ = 16					; size = 4
?DXUtil_ConvertWideStringToGenericCch@@YAJPADPB_WH@Z PROC ; DXUtil_ConvertWideStringToGenericCch, COMDAT

; 648  : {

  00000	55		 push	 ebp
  00001	8b ec		 mov	 ebp, esp

; 649  :     if( tstrDestination==NULL || wstrSource==NULL || cchDestChar < 1 )

  00003	8b 45 08	 mov	 eax, DWORD PTR _tstrDestination$[ebp]
  00006	85 c0		 test	 eax, eax
  00008	74 1e		 je	 SHORT $LN3@DXUtil_Con
  0000a	8b 4d 0c	 mov	 ecx, DWORD PTR _wstrSource$[ebp]
  0000d	85 c9		 test	 ecx, ecx
  0000f	74 17		 je	 SHORT $LN3@DXUtil_Con
  00011	8b 55 10	 mov	 edx, DWORD PTR _cchDestChar$[ebp]
  00014	83 fa 01	 cmp	 edx, 1
  00017	7c 0f		 jl	 SHORT $LN3@DXUtil_Con

; 651  : 
; 652  : #ifdef _UNICODE
; 653  :     wcsncpy( tstrDestination, wstrSource, cchDestChar );
; 654  :     tstrDestination[cchDestChar-1] = L'\0';    
; 655  :     return S_OK;
; 656  : #else
; 657  :     return DXUtil_ConvertWideStringToAnsiCch( tstrDestination, wstrSource, cchDestChar );

  00019	89 55 10	 mov	 DWORD PTR _cchDestChar$[ebp], edx
  0001c	89 4d 0c	 mov	 DWORD PTR _wstrSource$[ebp], ecx
  0001f	89 45 08	 mov	 DWORD PTR _tstrDestination$[ebp], eax

; 658  : #endif
; 659  : }

  00022	5d		 pop	 ebp

; 651  : 
; 652  : #ifdef _UNICODE
; 653  :     wcsncpy( tstrDestination, wstrSource, cchDestChar );
; 654  :     tstrDestination[cchDestChar-1] = L'\0';    
; 655  :     return S_OK;
; 656  : #else
; 657  :     return DXUtil_ConvertWideStringToAnsiCch( tstrDestination, wstrSource, cchDestChar );

  00023	e9 00 00 00 00	 jmp	 ?DXUtil_ConvertWideStringToAnsiCch@@YAJPADPB_WH@Z ; DXUtil_ConvertWideStringToAnsiCch
$LN3@DXUtil_Con:

; 650  :         return E_INVALIDARG;

  00028	b8 57 00 07 80	 mov	 eax, -2147024809	; 80070057H

; 658  : #endif
; 659  : }

  0002d	5d		 pop	 ebp
  0002e	c3		 ret	 0
?DXUtil_ConvertWideStringToGenericCch@@YAJPADPB_WH@Z ENDP ; DXUtil_ConvertWideStringToGenericCch
_TEXT	ENDS
; Function compile flags: /Ogtp
; File C:\IAGOS\server\v18\Source\Source\_DirectX\dxutil.cpp
;	COMDAT ?DXUtil_ConvertAnsiStringToGenericCch@@YAJPADPBDH@Z
_TEXT	SEGMENT
_tstrDestination$ = 8					; size = 4
_strSource$ = 12					; size = 4
_cchDestChar$ = 16					; size = 4
?DXUtil_ConvertAnsiStringToGenericCch@@YAJPADPBDH@Z PROC ; DXUtil_ConvertAnsiStringToGenericCch, COMDAT

; 623  : {

  00000	55		 push	 ebp
  00001	8b ec		 mov	 ebp, esp
  00003	56		 push	 esi

; 624  :     if( tstrDestination==NULL || strSource==NULL || cchDestChar < 1 )

  00004	8b 75 08	 mov	 esi, DWORD PTR _tstrDestination$[ebp]
  00007	57		 push	 edi
  00008	85 f6		 test	 esi, esi
  0000a	74 25		 je	 SHORT $LN3@DXUtil_Con
  0000c	8b 45 0c	 mov	 eax, DWORD PTR _strSource$[ebp]
  0000f	85 c0		 test	 eax, eax
  00011	74 1e		 je	 SHORT $LN3@DXUtil_Con
  00013	8b 7d 10	 mov	 edi, DWORD PTR _cchDestChar$[ebp]
  00016	83 ff 01	 cmp	 edi, 1
  00019	7c 16		 jl	 SHORT $LN3@DXUtil_Con

; 626  :         
; 627  : #ifdef _UNICODE
; 628  :     return DXUtil_ConvertAnsiStringToWideCch( tstrDestination, strSource, cchDestChar );
; 629  : #else
; 630  :     strncpy( tstrDestination, strSource, cchDestChar );

  0001b	57		 push	 edi
  0001c	50		 push	 eax
  0001d	56		 push	 esi
  0001e	e8 00 00 00 00	 call	 _strncpy
  00023	83 c4 0c	 add	 esp, 12			; 0000000cH

; 631  :     tstrDestination[cchDestChar-1] = '\0';

  00026	c6 44 3e ff 00	 mov	 BYTE PTR [esi+edi-1], 0

; 632  :     return S_OK;

  0002b	33 c0		 xor	 eax, eax
  0002d	5f		 pop	 edi

; 633  : #endif    
; 634  : }

  0002e	5e		 pop	 esi
  0002f	5d		 pop	 ebp
  00030	c3		 ret	 0
$LN3@DXUtil_Con:
  00031	5f		 pop	 edi

; 625  :         return E_INVALIDARG;

  00032	b8 57 00 07 80	 mov	 eax, -2147024809	; 80070057H

; 633  : #endif    
; 634  : }

  00037	5e		 pop	 esi
  00038	5d		 pop	 ebp
  00039	c3		 ret	 0
?DXUtil_ConvertAnsiStringToGenericCch@@YAJPADPBDH@Z ENDP ; DXUtil_ConvertAnsiStringToGenericCch
_TEXT	ENDS
; Function compile flags: /Ogtp
; File C:\IAGOS\server\v18\Source\Source\_DirectX\dxutil.cpp
;	COMDAT ?DXUtil_ConvertGenericStringToWideCch@@YAJPA_WPBDH@Z
_TEXT	SEGMENT
_wstrDestination$ = 8					; size = 4
_tstrSource$ = 12					; size = 4
_cchDestChar$ = 16					; size = 4
?DXUtil_ConvertGenericStringToWideCch@@YAJPA_WPBDH@Z PROC ; DXUtil_ConvertGenericStringToWideCch, COMDAT

; 598  : {

  00000	55		 push	 ebp
  00001	8b ec		 mov	 ebp, esp

; 599  :     if( wstrDestination==NULL || tstrSource==NULL || cchDestChar < 1 )

  00003	8b 45 08	 mov	 eax, DWORD PTR _wstrDestination$[ebp]
  00006	85 c0		 test	 eax, eax
  00008	74 1e		 je	 SHORT $LN3@DXUtil_Con
  0000a	8b 4d 0c	 mov	 ecx, DWORD PTR _tstrSource$[ebp]
  0000d	85 c9		 test	 ecx, ecx
  0000f	74 17		 je	 SHORT $LN3@DXUtil_Con
  00011	8b 55 10	 mov	 edx, DWORD PTR _cchDestChar$[ebp]
  00014	83 fa 01	 cmp	 edx, 1
  00017	7c 0f		 jl	 SHORT $LN3@DXUtil_Con

; 601  : 
; 602  : #ifdef _UNICODE
; 603  :     wcsncpy( wstrDestination, tstrSource, cchDestChar );
; 604  :     wstrDestination[cchDestChar-1] = L'\0';
; 605  :     return S_OK;
; 606  : #else
; 607  :     return DXUtil_ConvertAnsiStringToWideCch( wstrDestination, tstrSource, cchDestChar );

  00019	89 55 10	 mov	 DWORD PTR _cchDestChar$[ebp], edx
  0001c	89 4d 0c	 mov	 DWORD PTR _tstrSource$[ebp], ecx
  0001f	89 45 08	 mov	 DWORD PTR _wstrDestination$[ebp], eax

; 608  : #endif    
; 609  : }

  00022	5d		 pop	 ebp

; 601  : 
; 602  : #ifdef _UNICODE
; 603  :     wcsncpy( wstrDestination, tstrSource, cchDestChar );
; 604  :     wstrDestination[cchDestChar-1] = L'\0';
; 605  :     return S_OK;
; 606  : #else
; 607  :     return DXUtil_ConvertAnsiStringToWideCch( wstrDestination, tstrSource, cchDestChar );

  00023	e9 00 00 00 00	 jmp	 ?DXUtil_ConvertAnsiStringToWideCch@@YAJPA_WPBDH@Z ; DXUtil_ConvertAnsiStringToWideCch
$LN3@DXUtil_Con:

; 600  :         return E_INVALIDARG;

  00028	b8 57 00 07 80	 mov	 eax, -2147024809	; 80070057H

; 608  : #endif    
; 609  : }

  0002d	5d		 pop	 ebp
  0002e	c3		 ret	 0
?DXUtil_ConvertGenericStringToWideCch@@YAJPA_WPBDH@Z ENDP ; DXUtil_ConvertGenericStringToWideCch
_TEXT	ENDS
; Function compile flags: /Ogtp
; File C:\IAGOS\server\v18\Source\Source\_DirectX\dxutil.cpp
;	COMDAT ?DXUtil_ConvertGenericStringToAnsiCch@@YAJPADPBDH@Z
_TEXT	SEGMENT
_strDestination$ = 8					; size = 4
_tstrSource$ = 12					; size = 4
_cchDestChar$ = 16					; size = 4
?DXUtil_ConvertGenericStringToAnsiCch@@YAJPADPBDH@Z PROC ; DXUtil_ConvertGenericStringToAnsiCch, COMDAT

; 573  : {

  00000	55		 push	 ebp
  00001	8b ec		 mov	 ebp, esp
  00003	56		 push	 esi

; 574  :     if( strDestination==NULL || tstrSource==NULL || cchDestChar < 1 )

  00004	8b 75 08	 mov	 esi, DWORD PTR _strDestination$[ebp]
  00007	57		 push	 edi
  00008	85 f6		 test	 esi, esi
  0000a	74 25		 je	 SHORT $LN3@DXUtil_Con
  0000c	8b 45 0c	 mov	 eax, DWORD PTR _tstrSource$[ebp]
  0000f	85 c0		 test	 eax, eax
  00011	74 1e		 je	 SHORT $LN3@DXUtil_Con
  00013	8b 7d 10	 mov	 edi, DWORD PTR _cchDestChar$[ebp]
  00016	83 ff 01	 cmp	 edi, 1
  00019	7c 16		 jl	 SHORT $LN3@DXUtil_Con

; 576  : 
; 577  : #ifdef _UNICODE
; 578  :     return DXUtil_ConvertWideStringToAnsiCch( strDestination, tstrSource, cchDestChar );
; 579  : #else
; 580  :     strncpy( strDestination, tstrSource, cchDestChar );

  0001b	57		 push	 edi
  0001c	50		 push	 eax
  0001d	56		 push	 esi
  0001e	e8 00 00 00 00	 call	 _strncpy
  00023	83 c4 0c	 add	 esp, 12			; 0000000cH

; 581  :     strDestination[cchDestChar-1] = '\0';

  00026	c6 44 3e ff 00	 mov	 BYTE PTR [esi+edi-1], 0

; 582  :     return S_OK;

  0002b	33 c0		 xor	 eax, eax
  0002d	5f		 pop	 edi

; 583  : #endif   
; 584  : }

  0002e	5e		 pop	 esi
  0002f	5d		 pop	 ebp
  00030	c3		 ret	 0
$LN3@DXUtil_Con:
  00031	5f		 pop	 edi

; 575  :         return E_INVALIDARG;

  00032	b8 57 00 07 80	 mov	 eax, -2147024809	; 80070057H

; 583  : #endif   
; 584  : }

  00037	5e		 pop	 esi
  00038	5d		 pop	 ebp
  00039	c3		 ret	 0
?DXUtil_ConvertGenericStringToAnsiCch@@YAJPADPBDH@Z ENDP ; DXUtil_ConvertGenericStringToAnsiCch
_TEXT	ENDS
; Function compile flags: /Ogtp
; File C:\IAGOS\server\v18\Source\Source\_DirectX\dxutil.cpp
;	COMDAT ?DXUtil_ConvertWideStringToAnsiCch@@YAJPADPB_WH@Z
_TEXT	SEGMENT
_strDestination$ = 8					; size = 4
_wstrSource$ = 12					; size = 4
_cchDestChar$ = 16					; size = 4
?DXUtil_ConvertWideStringToAnsiCch@@YAJPADPB_WH@Z PROC	; DXUtil_ConvertWideStringToAnsiCch, COMDAT

; 549  : {

  00000	55		 push	 ebp
  00001	8b ec		 mov	 ebp, esp
  00003	56		 push	 esi

; 550  :     if( strDestination==NULL || wstrSource==NULL || cchDestChar < 1 )

  00004	8b 75 08	 mov	 esi, DWORD PTR _strDestination$[ebp]
  00007	57		 push	 edi
  00008	85 f6		 test	 esi, esi
  0000a	74 3b		 je	 SHORT $LN3@DXUtil_Con
  0000c	8b 45 0c	 mov	 eax, DWORD PTR _wstrSource$[ebp]
  0000f	85 c0		 test	 eax, eax
  00011	74 34		 je	 SHORT $LN3@DXUtil_Con
  00013	8b 7d 10	 mov	 edi, DWORD PTR _cchDestChar$[ebp]
  00016	83 ff 01	 cmp	 edi, 1
  00019	7c 2c		 jl	 SHORT $LN3@DXUtil_Con

; 552  : 
; 553  :     int nResult = WideCharToMultiByteEx( CP_ACP, 0, wstrSource, -1, strDestination, 

  0001b	6a 00		 push	 0
  0001d	6a 00		 push	 0
  0001f	57		 push	 edi
  00020	56		 push	 esi
  00021	6a ff		 push	 -1
  00023	50		 push	 eax
  00024	6a 00		 push	 0
  00026	6a 00		 push	 0
  00028	e8 00 00 00 00	 call	 ?WideCharToMultiByteEx@@YAHIKPB_WHPADHPBDPAH@Z ; WideCharToMultiByteEx
  0002d	83 c4 20	 add	 esp, 32			; 00000020H

; 554  :                                        cchDestChar*sizeof(CHAR), NULL, NULL );
; 555  :     strDestination[cchDestChar-1] = 0;

  00030	c6 44 3e ff 00	 mov	 BYTE PTR [esi+edi-1], 0

; 556  :     
; 557  :     if( nResult == 0 )

  00035	33 c9		 xor	 ecx, ecx
  00037	ba 05 40 00 80	 mov	 edx, -2147467259	; 80004005H
  0003c	85 c0		 test	 eax, eax
  0003e	0f 44 ca	 cmove	 ecx, edx
  00041	5f		 pop	 edi

; 558  :         return E_FAIL;

  00042	8b c1		 mov	 eax, ecx

; 559  :     return S_OK;
; 560  : }

  00044	5e		 pop	 esi
  00045	5d		 pop	 ebp
  00046	c3		 ret	 0
$LN3@DXUtil_Con:
  00047	5f		 pop	 edi

; 551  :         return E_INVALIDARG;

  00048	b8 57 00 07 80	 mov	 eax, -2147024809	; 80070057H

; 559  :     return S_OK;
; 560  : }

  0004d	5e		 pop	 esi
  0004e	5d		 pop	 ebp
  0004f	c3		 ret	 0
?DXUtil_ConvertWideStringToAnsiCch@@YAJPADPB_WH@Z ENDP	; DXUtil_ConvertWideStringToAnsiCch
_TEXT	ENDS
; Function compile flags: /Ogtp
; File C:\IAGOS\server\v18\Source\Source\_DirectX\dxutil.cpp
;	COMDAT ?DXUtil_ConvertAnsiStringToWideCch@@YAJPA_WPBDH@Z
_TEXT	SEGMENT
_wstrDestination$ = 8					; size = 4
_strSource$ = 12					; size = 4
_cchDestChar$ = 16					; size = 4
?DXUtil_ConvertAnsiStringToWideCch@@YAJPA_WPBDH@Z PROC	; DXUtil_ConvertAnsiStringToWideCch, COMDAT

; 526  : {

  00000	55		 push	 ebp
  00001	8b ec		 mov	 ebp, esp
  00003	56		 push	 esi

; 527  :     if( wstrDestination==NULL || strSource==NULL || cchDestChar < 1 )

  00004	8b 75 08	 mov	 esi, DWORD PTR _wstrDestination$[ebp]
  00007	57		 push	 edi
  00008	85 f6		 test	 esi, esi
  0000a	74 37		 je	 SHORT $LN3@DXUtil_Con
  0000c	8b 45 0c	 mov	 eax, DWORD PTR _strSource$[ebp]
  0000f	85 c0		 test	 eax, eax
  00011	74 30		 je	 SHORT $LN3@DXUtil_Con
  00013	8b 7d 10	 mov	 edi, DWORD PTR _cchDestChar$[ebp]
  00016	83 ff 01	 cmp	 edi, 1
  00019	7c 28		 jl	 SHORT $LN3@DXUtil_Con

; 529  : 
; 530  :     int nResult = MultiByteToWideCharEx( CP_ACP, 0, strSource, -1, wstrDestination, cchDestChar );

  0001b	57		 push	 edi
  0001c	56		 push	 esi
  0001d	6a ff		 push	 -1
  0001f	50		 push	 eax
  00020	6a 00		 push	 0
  00022	6a 00		 push	 0
  00024	e8 00 00 00 00	 call	 ?MultiByteToWideCharEx@@YAHIKPBDHPA_WH@Z ; MultiByteToWideCharEx
  00029	83 c4 18	 add	 esp, 24			; 00000018H
  0002c	8b c8		 mov	 ecx, eax

; 531  :     wstrDestination[cchDestChar-1] = 0;

  0002e	33 c0		 xor	 eax, eax

; 532  :     
; 533  :     if( nResult == 0 )

  00030	ba 05 40 00 80	 mov	 edx, -2147467259	; 80004005H
  00035	66 89 44 7e fe	 mov	 WORD PTR [esi+edi*2-2], ax
  0003a	85 c9		 test	 ecx, ecx
  0003c	5f		 pop	 edi
  0003d	0f 44 c2	 cmove	 eax, edx

; 534  :         return E_FAIL;
; 535  :     return S_OK;
; 536  : }

  00040	5e		 pop	 esi
  00041	5d		 pop	 ebp
  00042	c3		 ret	 0
$LN3@DXUtil_Con:
  00043	5f		 pop	 edi

; 528  :         return E_INVALIDARG;

  00044	b8 57 00 07 80	 mov	 eax, -2147024809	; 80070057H

; 534  :         return E_FAIL;
; 535  :     return S_OK;
; 536  : }

  00049	5e		 pop	 esi
  0004a	5d		 pop	 ebp
  0004b	c3		 ret	 0
?DXUtil_ConvertAnsiStringToWideCch@@YAJPA_WPBDH@Z ENDP	; DXUtil_ConvertAnsiStringToWideCch
_TEXT	ENDS
; Function compile flags: /Ogtp
; File C:\IAGOS\server\v18\Source\Source\_DirectX\dxutil.cpp
;	COMDAT ?DXUtil_Timer@@YGMW4TIMER_COMMAND@@@Z
_TEXT	SEGMENT
_fElapsedTime$1$ = -24					; size = 8
tv341 = -24						; size = 8
tv395 = -24						; size = 8
_qwTime$1 = -16						; size = 8
_fTime$2 = -16						; size = 8
?m_llQPFTicksPerSec@?1??DXUtil_Timer@@YGMW4TIMER_COMMAND@@@Z@4_JA$1 = -12 ; size = 4
_qwTicksPerSec$3 = -8					; size = 8
?m_llQPFTicksPerSec@?1??DXUtil_Timer@@YGMW4TIMER_COMMAND@@@Z@4_JA$2 = -4 ; size = 4
_command$ = 8						; size = 4
tv143 = 8						; size = 4
tv165 = 8						; size = 4
tv169 = 8						; size = 4
tv185 = 8						; size = 4
tv248 = 8						; size = 4
tv262 = 8						; size = 4
?DXUtil_Timer@@YGMW4TIMER_COMMAND@@@Z PROC		; DXUtil_Timer, COMDAT

; 337  : {

  00000	55		 push	 ebp
  00001	8b ec		 mov	 ebp, esp
  00003	83 ec 18	 sub	 esp, 24			; 00000018H

; 338  :     static BOOL     m_bTimerInitialized = FALSE;
; 339  :     static BOOL     m_bUsingQPF         = FALSE;
; 340  :     static BOOL     m_bTimerStopped     = TRUE;
; 341  :     static LONGLONG m_llQPFTicksPerSec  = 0;
; 342  : 
; 343  :     // Initialize the timer
; 344  :     if( FALSE == m_bTimerInitialized )

  00006	83 3d 00 00 00
	00 00		 cmp	 DWORD PTR ?m_bTimerInitialized@?1??DXUtil_Timer@@YGMW4TIMER_COMMAND@@@Z@4HA, 0
  0000d	53		 push	 ebx
  0000e	56		 push	 esi
  0000f	57		 push	 edi
  00010	75 49		 jne	 SHORT $LN30@DXUtil_Tim

; 345  :     {
; 346  :         m_bTimerInitialized = TRUE;
; 347  : 
; 348  :         // Use QueryPerformanceFrequency() to get frequency of timer.  If QPF is
; 349  :         // not supported, we will timeGetTime() which returns milliseconds.
; 350  :         LARGE_INTEGER qwTicksPerSec;
; 351  :         m_bUsingQPF = QueryPerformanceFrequency( &qwTicksPerSec );

  00012	8d 45 f8	 lea	 eax, DWORD PTR _qwTicksPerSec$3[ebp]
  00015	c7 05 00 00 00
	00 01 00 00 00	 mov	 DWORD PTR ?m_bTimerInitialized@?1??DXUtil_Timer@@YGMW4TIMER_COMMAND@@@Z@4HA, 1
  0001f	50		 push	 eax
  00020	ff 15 00 00 00
	00		 call	 DWORD PTR __imp__QueryPerformanceFrequency@4
  00026	8b f0		 mov	 esi, eax
  00028	89 35 00 00 00
	00		 mov	 DWORD PTR ?m_bUsingQPF@?1??DXUtil_Timer@@YGMW4TIMER_COMMAND@@@Z@4HA, esi
  0002e	85 f6		 test	 esi, esi

; 352  :         if( m_bUsingQPF )

  00030	74 16		 je	 SHORT $LN29@DXUtil_Tim

; 353  :             m_llQPFTicksPerSec = qwTicksPerSec.QuadPart;

  00032	8b 45 f8	 mov	 eax, DWORD PTR _qwTicksPerSec$3[ebp]
  00035	8b 55 fc	 mov	 edx, DWORD PTR _qwTicksPerSec$3[ebp+4]
  00038	89 45 f4	 mov	 DWORD PTR ?m_llQPFTicksPerSec@?1??DXUtil_Timer@@YGMW4TIMER_COMMAND@@@Z@4_JA$1[ebp], eax
  0003b	a3 00 00 00 00	 mov	 DWORD PTR ?m_llQPFTicksPerSec@?1??DXUtil_Timer@@YGMW4TIMER_COMMAND@@@Z@4_JA, eax
  00040	89 15 04 00 00
	00		 mov	 DWORD PTR ?m_llQPFTicksPerSec@?1??DXUtil_Timer@@YGMW4TIMER_COMMAND@@@Z@4_JA+4, edx
  00046	eb 28		 jmp	 SHORT $LN58@DXUtil_Tim
$LN29@DXUtil_Tim:

; 352  :         if( m_bUsingQPF )

  00048	a1 04 00 00 00	 mov	 eax, DWORD PTR ?m_llQPFTicksPerSec@?1??DXUtil_Timer@@YGMW4TIMER_COMMAND@@@Z@4_JA+4
  0004d	8b 0d 00 00 00
	00		 mov	 ecx, DWORD PTR ?m_llQPFTicksPerSec@?1??DXUtil_Timer@@YGMW4TIMER_COMMAND@@@Z@4_JA
  00053	89 45 fc	 mov	 DWORD PTR ?m_llQPFTicksPerSec@?1??DXUtil_Timer@@YGMW4TIMER_COMMAND@@@Z@4_JA$2[ebp], eax
  00056	89 4d f4	 mov	 DWORD PTR ?m_llQPFTicksPerSec@?1??DXUtil_Timer@@YGMW4TIMER_COMMAND@@@Z@4_JA$1[ebp], ecx
  00059	eb 18		 jmp	 SHORT $LN3@DXUtil_Tim
$LN30@DXUtil_Tim:

; 338  :     static BOOL     m_bTimerInitialized = FALSE;
; 339  :     static BOOL     m_bUsingQPF         = FALSE;
; 340  :     static BOOL     m_bTimerStopped     = TRUE;
; 341  :     static LONGLONG m_llQPFTicksPerSec  = 0;
; 342  : 
; 343  :     // Initialize the timer
; 344  :     if( FALSE == m_bTimerInitialized )

  0005b	8b 0d 00 00 00
	00		 mov	 ecx, DWORD PTR ?m_llQPFTicksPerSec@?1??DXUtil_Timer@@YGMW4TIMER_COMMAND@@@Z@4_JA
  00061	8b 35 00 00 00
	00		 mov	 esi, DWORD PTR ?m_bUsingQPF@?1??DXUtil_Timer@@YGMW4TIMER_COMMAND@@@Z@4HA
  00067	8b 15 04 00 00
	00		 mov	 edx, DWORD PTR ?m_llQPFTicksPerSec@?1??DXUtil_Timer@@YGMW4TIMER_COMMAND@@@Z@4_JA+4
  0006d	89 4d f4	 mov	 DWORD PTR ?m_llQPFTicksPerSec@?1??DXUtil_Timer@@YGMW4TIMER_COMMAND@@@Z@4_JA$1[ebp], ecx
$LN58@DXUtil_Tim:

; 354  :     }
; 355  : 
; 356  :     if( m_bUsingQPF )

  00070	89 55 fc	 mov	 DWORD PTR ?m_llQPFTicksPerSec@?1??DXUtil_Timer@@YGMW4TIMER_COMMAND@@@Z@4_JA$2[ebp], edx
$LN3@DXUtil_Tim:
  00073	85 f6		 test	 esi, esi
  00075	8b 75 08	 mov	 esi, DWORD PTR _command$[ebp]
  00078	0f 84 1b 02 00
	00		 je	 $LN4@DXUtil_Tim

; 357  :     {
; 358  :         static LONGLONG m_llStopTime        = 0;
; 359  :         static LONGLONG m_llLastElapsedTime = 0;
; 360  :         static LONGLONG m_llBaseTime        = 0;
; 361  :         double fTime;
; 362  :         double fElapsedTime;
; 363  :         LARGE_INTEGER qwTime;
; 364  :         
; 365  :         // Get either the current time or the stop time, depending
; 366  :         // on whether we're stopped and what command was sent
; 367  :         if( m_llStopTime != 0 && command != TIMER_START && command != TIMER_GETABSOLUTETIME)

  0007e	8b 15 00 00 00
	00		 mov	 edx, DWORD PTR ?m_llStopTime@?9??DXUtil_Timer@@YGMW4TIMER_COMMAND@@@Z@4_JA
  00084	8b c2		 mov	 eax, edx
  00086	8b 0d 04 00 00
	00		 mov	 ecx, DWORD PTR ?m_llStopTime@?9??DXUtil_Timer@@YGMW4TIMER_COMMAND@@@Z@4_JA+4
  0008c	0b c1		 or	 eax, ecx
  0008e	74 16		 je	 SHORT $LN6@DXUtil_Tim
  00090	83 fe 01	 cmp	 esi, 1
  00093	74 11		 je	 SHORT $LN6@DXUtil_Tim
  00095	83 fe 04	 cmp	 esi, 4
  00098	74 0c		 je	 SHORT $LN6@DXUtil_Tim

; 368  :             qwTime.QuadPart = m_llStopTime;

  0009a	8b 45 f4	 mov	 eax, DWORD PTR ?m_llQPFTicksPerSec@?1??DXUtil_Timer@@YGMW4TIMER_COMMAND@@@Z@4_JA$1[ebp]
  0009d	8b d9		 mov	 ebx, ecx
  0009f	8b 4d fc	 mov	 ecx, DWORD PTR ?m_llQPFTicksPerSec@?1??DXUtil_Timer@@YGMW4TIMER_COMMAND@@@Z@4_JA$2[ebp]
  000a2	8b fa		 mov	 edi, edx
  000a4	eb 27		 jmp	 SHORT $LN7@DXUtil_Tim
$LN6@DXUtil_Tim:

; 369  :         else
; 370  :             QueryPerformanceCounter( &qwTime );

  000a6	8d 45 f0	 lea	 eax, DWORD PTR _qwTime$1[ebp]
  000a9	50		 push	 eax
  000aa	ff 15 00 00 00
	00		 call	 DWORD PTR __imp__QueryPerformanceCounter@4
  000b0	8b 5d f4	 mov	 ebx, DWORD PTR _qwTime$1[ebp+4]
  000b3	8b 0d 04 00 00
	00		 mov	 ecx, DWORD PTR ?m_llQPFTicksPerSec@?1??DXUtil_Timer@@YGMW4TIMER_COMMAND@@@Z@4_JA+4
  000b9	a1 00 00 00 00	 mov	 eax, DWORD PTR ?m_llQPFTicksPerSec@?1??DXUtil_Timer@@YGMW4TIMER_COMMAND@@@Z@4_JA
  000be	8b 7d f0	 mov	 edi, DWORD PTR _qwTime$1[ebp]
  000c1	8b 15 00 00 00
	00		 mov	 edx, DWORD PTR ?m_llStopTime@?9??DXUtil_Timer@@YGMW4TIMER_COMMAND@@@Z@4_JA
  000c7	89 4d fc	 mov	 DWORD PTR ?m_llQPFTicksPerSec@?1??DXUtil_Timer@@YGMW4TIMER_COMMAND@@@Z@4_JA$2[ebp], ecx
  000ca	89 45 f4	 mov	 DWORD PTR ?m_llQPFTicksPerSec@?1??DXUtil_Timer@@YGMW4TIMER_COMMAND@@@Z@4_JA$1[ebp], eax
$LN7@DXUtil_Tim:

; 371  : 
; 372  :         // Return the elapsed time
; 373  :         if( command == TIMER_GETELAPSEDTIME )

  000cd	83 fe 06	 cmp	 esi, 6
  000d0	75 4f		 jne	 SHORT $LN8@DXUtil_Tim

; 374  :         {
; 375  :             fElapsedTime = (double) ( qwTime.QuadPart - m_llLastElapsedTime ) / (double) m_llQPFTicksPerSec;

  000d2	8b cf		 mov	 ecx, edi
  000d4	8b d3		 mov	 edx, ebx
  000d6	2b 0d 00 00 00
	00		 sub	 ecx, DWORD PTR ?m_llLastElapsedTime@?9??DXUtil_Timer@@YGMW4TIMER_COMMAND@@@Z@4_JA
  000dc	1b 15 04 00 00
	00		 sbb	 edx, DWORD PTR ?m_llLastElapsedTime@?9??DXUtil_Timer@@YGMW4TIMER_COMMAND@@@Z@4_JA+4
  000e2	e8 00 00 00 00	 call	 __ltod3
  000e7	8b 55 fc	 mov	 edx, DWORD PTR ?m_llQPFTicksPerSec@?1??DXUtil_Timer@@YGMW4TIMER_COMMAND@@@Z@4_JA$2[ebp]
  000ea	8b 4d f4	 mov	 ecx, DWORD PTR ?m_llQPFTicksPerSec@?1??DXUtil_Timer@@YGMW4TIMER_COMMAND@@@Z@4_JA$1[ebp]
  000ed	f2 0f 11 45 e8	 movsd	 QWORD PTR _fElapsedTime$1$[ebp], xmm0
  000f2	e8 00 00 00 00	 call	 __ltod3
  000f7	f2 0f 10 4d e8	 movsd	 xmm1, QWORD PTR _fElapsedTime$1$[ebp]
  000fc	f2 0f 5e c8	 divsd	 xmm1, xmm0

; 376  :             m_llLastElapsedTime = qwTime.QuadPart;

  00100	89 3d 00 00 00
	00		 mov	 DWORD PTR ?m_llLastElapsedTime@?9??DXUtil_Timer@@YGMW4TIMER_COMMAND@@@Z@4_JA, edi
  00106	5f		 pop	 edi

; 511  :     }
; 512  : }

  00107	5e		 pop	 esi
  00108	89 1d 04 00 00
	00		 mov	 DWORD PTR ?m_llLastElapsedTime@?9??DXUtil_Timer@@YGMW4TIMER_COMMAND@@@Z@4_JA+4, ebx
  0010e	5b		 pop	 ebx
  0010f	66 0f 5a c1	 cvtpd2ps xmm0, xmm1
  00113	f3 0f 11 45 08	 movss	 DWORD PTR tv262[ebp], xmm0
  00118	d9 45 08	 fld	 DWORD PTR tv262[ebp]
  0011b	8b e5		 mov	 esp, ebp
  0011d	5d		 pop	 ebp
  0011e	c2 04 00	 ret	 4
$LN8@DXUtil_Tim:

; 377  :             return (FLOAT) fElapsedTime;
; 378  :         }
; 379  :     
; 380  :         // Return the current time
; 381  :         if( command == TIMER_GETAPPTIME )

  00121	83 fe 05	 cmp	 esi, 5
  00124	75 43		 jne	 SHORT $LN9@DXUtil_Tim

; 382  :         {
; 383  :             double fAppTime = (double) ( qwTime.QuadPart - m_llBaseTime ) / (double) m_llQPFTicksPerSec;

  00126	2b 3d 00 00 00
	00		 sub	 edi, DWORD PTR ?m_llBaseTime@?9??DXUtil_Timer@@YGMW4TIMER_COMMAND@@@Z@4_JA
  0012c	8b cf		 mov	 ecx, edi
  0012e	1b 1d 04 00 00
	00		 sbb	 ebx, DWORD PTR ?m_llBaseTime@?9??DXUtil_Timer@@YGMW4TIMER_COMMAND@@@Z@4_JA+4
  00134	8b d3		 mov	 edx, ebx
  00136	e8 00 00 00 00	 call	 __ltod3
  0013b	8b 55 fc	 mov	 edx, DWORD PTR ?m_llQPFTicksPerSec@?1??DXUtil_Timer@@YGMW4TIMER_COMMAND@@@Z@4_JA$2[ebp]
  0013e	8b 4d f4	 mov	 ecx, DWORD PTR ?m_llQPFTicksPerSec@?1??DXUtil_Timer@@YGMW4TIMER_COMMAND@@@Z@4_JA$1[ebp]
  00141	f2 0f 11 45 e8	 movsd	 QWORD PTR tv395[ebp], xmm0
  00146	e8 00 00 00 00	 call	 __ltod3
  0014b	f2 0f 10 4d e8	 movsd	 xmm1, QWORD PTR tv395[ebp]
  00150	f2 0f 5e c8	 divsd	 xmm1, xmm0
  00154	5f		 pop	 edi

; 511  :     }
; 512  : }

  00155	5e		 pop	 esi
  00156	5b		 pop	 ebx
  00157	66 0f 5a c1	 cvtpd2ps xmm0, xmm1
  0015b	f3 0f 11 45 08	 movss	 DWORD PTR tv248[ebp], xmm0
  00160	d9 45 08	 fld	 DWORD PTR tv248[ebp]
  00163	8b e5		 mov	 esp, ebp
  00165	5d		 pop	 ebp
  00166	c2 04 00	 ret	 4
$LN9@DXUtil_Tim:

; 384  :             return (FLOAT) fAppTime;
; 385  :         }
; 386  :     
; 387  :         // Reset the timer
; 388  :         if( command == TIMER_RESET )

  00169	85 f6		 test	 esi, esi
  0016b	75 34		 jne	 SHORT $LN10@DXUtil_Tim

; 389  :         {
; 390  :             m_llBaseTime        = qwTime.QuadPart;
; 391  :             m_llLastElapsedTime = qwTime.QuadPart;
; 392  :             m_llStopTime        = 0;
; 393  :             m_bTimerStopped     = FALSE;
; 394  :             return 0.0f;

  0016d	d9 ee		 fldz
  0016f	0f 57 c0	 xorps	 xmm0, xmm0
  00172	89 3d 00 00 00
	00		 mov	 DWORD PTR ?m_llBaseTime@?9??DXUtil_Timer@@YGMW4TIMER_COMMAND@@@Z@4_JA, edi
  00178	89 3d 00 00 00
	00		 mov	 DWORD PTR ?m_llLastElapsedTime@?9??DXUtil_Timer@@YGMW4TIMER_COMMAND@@@Z@4_JA, edi
  0017e	5f		 pop	 edi
  0017f	89 35 00 00 00
	00		 mov	 DWORD PTR ?m_bTimerStopped@?1??DXUtil_Timer@@YGMW4TIMER_COMMAND@@@Z@4HA, esi

; 511  :     }
; 512  : }

  00185	5e		 pop	 esi
  00186	89 1d 04 00 00
	00		 mov	 DWORD PTR ?m_llBaseTime@?9??DXUtil_Timer@@YGMW4TIMER_COMMAND@@@Z@4_JA+4, ebx
  0018c	89 1d 04 00 00
	00		 mov	 DWORD PTR ?m_llLastElapsedTime@?9??DXUtil_Timer@@YGMW4TIMER_COMMAND@@@Z@4_JA+4, ebx
  00192	66 0f 13 05 00
	00 00 00	 movlpd	 QWORD PTR ?m_llStopTime@?9??DXUtil_Timer@@YGMW4TIMER_COMMAND@@@Z@4_JA, xmm0
  0019a	5b		 pop	 ebx
  0019b	8b e5		 mov	 esp, ebp
  0019d	5d		 pop	 ebp
  0019e	c2 04 00	 ret	 4
$LN10@DXUtil_Tim:

; 395  :         }
; 396  :     
; 397  :         // Start the timer
; 398  :         if( command == TIMER_START )

  001a1	83 fe 01	 cmp	 esi, 1
  001a4	75 4d		 jne	 SHORT $LN11@DXUtil_Tim

; 399  :         {
; 400  :             if( m_bTimerStopped )

  001a6	83 3d 00 00 00
	00 00		 cmp	 DWORD PTR ?m_bTimerStopped@?1??DXUtil_Timer@@YGMW4TIMER_COMMAND@@@Z@4HA, 0
  001ad	74 18		 je	 SHORT $LN12@DXUtil_Tim

; 401  :                 m_llBaseTime += qwTime.QuadPart - m_llStopTime;

  001af	8b cf		 mov	 ecx, edi
  001b1	8b c3		 mov	 eax, ebx
  001b3	2b ca		 sub	 ecx, edx
  001b5	1b 05 04 00 00
	00		 sbb	 eax, DWORD PTR ?m_llStopTime@?9??DXUtil_Timer@@YGMW4TIMER_COMMAND@@@Z@4_JA+4
  001bb	01 0d 00 00 00
	00		 add	 DWORD PTR ?m_llBaseTime@?9??DXUtil_Timer@@YGMW4TIMER_COMMAND@@@Z@4_JA, ecx
  001c1	11 05 04 00 00
	00		 adc	 DWORD PTR ?m_llBaseTime@?9??DXUtil_Timer@@YGMW4TIMER_COMMAND@@@Z@4_JA+4, eax
$LN12@DXUtil_Tim:

; 402  :             m_llStopTime = 0;
; 403  :             m_llLastElapsedTime = qwTime.QuadPart;
; 404  :             m_bTimerStopped = FALSE;
; 405  :             return 0.0f;

  001c7	d9 ee		 fldz
  001c9	0f 57 c0	 xorps	 xmm0, xmm0
  001cc	89 3d 00 00 00
	00		 mov	 DWORD PTR ?m_llLastElapsedTime@?9??DXUtil_Timer@@YGMW4TIMER_COMMAND@@@Z@4_JA, edi
  001d2	5f		 pop	 edi

; 511  :     }
; 512  : }

  001d3	5e		 pop	 esi
  001d4	89 1d 04 00 00
	00		 mov	 DWORD PTR ?m_llLastElapsedTime@?9??DXUtil_Timer@@YGMW4TIMER_COMMAND@@@Z@4_JA+4, ebx
  001da	66 0f 13 05 00
	00 00 00	 movlpd	 QWORD PTR ?m_llStopTime@?9??DXUtil_Timer@@YGMW4TIMER_COMMAND@@@Z@4_JA, xmm0
  001e2	c7 05 00 00 00
	00 00 00 00 00	 mov	 DWORD PTR ?m_bTimerStopped@?1??DXUtil_Timer@@YGMW4TIMER_COMMAND@@@Z@4HA, 0
  001ec	5b		 pop	 ebx
  001ed	8b e5		 mov	 esp, ebp
  001ef	5d		 pop	 ebp
  001f0	c2 04 00	 ret	 4
$LN11@DXUtil_Tim:

; 406  :         }
; 407  :     
; 408  :         // Stop the timer
; 409  :         if( command == TIMER_STOP )

  001f3	83 fe 02	 cmp	 esi, 2
  001f6	75 3a		 jne	 SHORT $LN13@DXUtil_Tim

; 410  :         {
; 411  :             if( !m_bTimerStopped )

  001f8	83 3d 00 00 00
	00 00		 cmp	 DWORD PTR ?m_bTimerStopped@?1??DXUtil_Timer@@YGMW4TIMER_COMMAND@@@Z@4HA, 0
  001ff	0f 85 cb 01 00
	00		 jne	 $LN25@DXUtil_Tim

; 493  :                 m_bTimerStopped = TRUE;
; 494  :             }
; 495  :             return 0.0f;

  00205	d9 ee		 fldz
  00207	89 3d 00 00 00
	00		 mov	 DWORD PTR ?m_llStopTime@?9??DXUtil_Timer@@YGMW4TIMER_COMMAND@@@Z@4_JA, edi
  0020d	89 3d 00 00 00
	00		 mov	 DWORD PTR ?m_llLastElapsedTime@?9??DXUtil_Timer@@YGMW4TIMER_COMMAND@@@Z@4_JA, edi
  00213	5f		 pop	 edi

; 511  :     }
; 512  : }

  00214	5e		 pop	 esi
  00215	89 1d 04 00 00
	00		 mov	 DWORD PTR ?m_llStopTime@?9??DXUtil_Timer@@YGMW4TIMER_COMMAND@@@Z@4_JA+4, ebx
  0021b	89 1d 04 00 00
	00		 mov	 DWORD PTR ?m_llLastElapsedTime@?9??DXUtil_Timer@@YGMW4TIMER_COMMAND@@@Z@4_JA+4, ebx
  00221	c7 05 00 00 00
	00 01 00 00 00	 mov	 DWORD PTR ?m_bTimerStopped@?1??DXUtil_Timer@@YGMW4TIMER_COMMAND@@@Z@4HA, 1
  0022b	5b		 pop	 ebx
  0022c	8b e5		 mov	 esp, ebp
  0022e	5d		 pop	 ebp
  0022f	c2 04 00	 ret	 4
$LN13@DXUtil_Tim:

; 412  :             {
; 413  :                 m_llStopTime = qwTime.QuadPart;
; 414  :                 m_llLastElapsedTime = qwTime.QuadPart;
; 415  :                 m_bTimerStopped = TRUE;
; 416  :             }
; 417  :             return 0.0f;
; 418  :         }
; 419  :     
; 420  :         // Advance the timer by 1/10th second
; 421  :         if( command == TIMER_ADVANCE )

  00232	83 fe 03	 cmp	 esi, 3
  00235	75 22		 jne	 SHORT $LN15@DXUtil_Tim

; 422  :         {
; 423  :             m_llStopTime += m_llQPFTicksPerSec/10;

  00237	6a 00		 push	 0
  00239	6a 0a		 push	 10			; 0000000aH
  0023b	51		 push	 ecx
  0023c	50		 push	 eax
  0023d	e8 00 00 00 00	 call	 __alldiv
  00242	01 05 00 00 00
	00		 add	 DWORD PTR ?m_llStopTime@?9??DXUtil_Timer@@YGMW4TIMER_COMMAND@@@Z@4_JA, eax

; 424  :             return 0.0f;

  00248	d9 ee		 fldz
  0024a	11 15 04 00 00
	00		 adc	 DWORD PTR ?m_llStopTime@?9??DXUtil_Timer@@YGMW4TIMER_COMMAND@@@Z@4_JA+4, edx
  00250	5f		 pop	 edi

; 511  :     }
; 512  : }

  00251	5e		 pop	 esi
  00252	5b		 pop	 ebx
  00253	8b e5		 mov	 esp, ebp
  00255	5d		 pop	 ebp
  00256	c2 04 00	 ret	 4
$LN15@DXUtil_Tim:

; 425  :         }
; 426  : 
; 427  :         if( command == TIMER_GETABSOLUTETIME )

  00259	83 fe 04	 cmp	 esi, 4
  0025c	0f 85 b0 01 00
	00		 jne	 $LN27@DXUtil_Tim

; 428  :         {
; 429  :             fTime = qwTime.QuadPart / (double) m_llQPFTicksPerSec;

  00262	8b d3		 mov	 edx, ebx
  00264	8b cf		 mov	 ecx, edi
  00266	e8 00 00 00 00	 call	 __ltod3
  0026b	8b 55 fc	 mov	 edx, DWORD PTR ?m_llQPFTicksPerSec@?1??DXUtil_Timer@@YGMW4TIMER_COMMAND@@@Z@4_JA$2[ebp]
  0026e	8b 4d f4	 mov	 ecx, DWORD PTR ?m_llQPFTicksPerSec@?1??DXUtil_Timer@@YGMW4TIMER_COMMAND@@@Z@4_JA$1[ebp]
  00271	f2 0f 11 45 e8	 movsd	 QWORD PTR tv341[ebp], xmm0
  00276	e8 00 00 00 00	 call	 __ltod3
  0027b	f2 0f 10 4d e8	 movsd	 xmm1, QWORD PTR tv341[ebp]
  00280	f2 0f 5e c8	 divsd	 xmm1, xmm0
  00284	5f		 pop	 edi

; 511  :     }
; 512  : }

  00285	5e		 pop	 esi
  00286	5b		 pop	 ebx
  00287	66 0f 5a c1	 cvtpd2ps xmm0, xmm1
  0028b	f3 0f 11 45 08	 movss	 DWORD PTR tv185[ebp], xmm0
  00290	d9 45 08	 fld	 DWORD PTR tv185[ebp]
  00293	8b e5		 mov	 esp, ebp
  00295	5d		 pop	 ebp
  00296	c2 04 00	 ret	 4
$LN4@DXUtil_Tim:

; 430  :             return (FLOAT) fTime;
; 431  :         }
; 432  : 
; 433  :         return -1.0f; // Invalid command specified
; 434  :     }
; 435  :     else
; 436  :     {
; 437  :         // Get the time using timeGetTime()
; 438  :         static double m_fLastElapsedTime  = 0.0;
; 439  :         static double m_fBaseTime         = 0.0;
; 440  :         static double m_fStopTime         = 0.0;
; 441  :         double fTime;
; 442  :         double fElapsedTime;
; 443  :         
; 444  :         // Get either the current time or the stop time, depending
; 445  :         // on whether we're stopped and what command was sent
; 446  :         if( m_fStopTime != 0.0 && command != TIMER_START && command != TIMER_GETABSOLUTETIME)

  00299	f2 0f 10 15 00
	00 00 00	 movsd	 xmm2, QWORD PTR ?m_fStopTime@?CJ@??DXUtil_Timer@@YGMW4TIMER_COMMAND@@@Z@4NA
  002a1	0f 57 db	 xorps	 xmm3, xmm3
  002a4	66 0f 2e d3	 ucomisd xmm2, xmm3
  002a8	9f		 lahf
  002a9	f6 c4 44	 test	 ah, 68			; 00000044H
  002ac	7b 0f		 jnp	 SHORT $LN17@DXUtil_Tim
  002ae	83 fe 01	 cmp	 esi, 1
  002b1	74 0a		 je	 SHORT $LN17@DXUtil_Tim
  002b3	83 fe 04	 cmp	 esi, 4
  002b6	74 05		 je	 SHORT $LN17@DXUtil_Tim

; 447  :             fTime = m_fStopTime;

  002b8	0f 28 ca	 movaps	 xmm1, xmm2
  002bb	eb 2d		 jmp	 SHORT $LN60@DXUtil_Tim
$LN17@DXUtil_Tim:

; 448  :         else
; 449  :             fTime = GETTIMESTAMP() * 0.001;

  002bd	ff 15 00 00 00
	00		 call	 DWORD PTR __imp__timeGetTime@0
  002c3	f2 0f 10 15 00
	00 00 00	 movsd	 xmm2, QWORD PTR ?m_fStopTime@?CJ@??DXUtil_Timer@@YGMW4TIMER_COMMAND@@@Z@4NA
  002cb	0f 57 db	 xorps	 xmm3, xmm3
  002ce	66 0f 6e c8	 movd	 xmm1, eax
  002d2	f3 0f e6 c9	 cvtdq2pd xmm1, xmm1
  002d6	c1 e8 1f	 shr	 eax, 31			; 0000001fH
  002d9	f2 0f 58 0c c5
	00 00 00 00	 addsd	 xmm1, QWORD PTR __xmm@41f00000000000000000000000000000[eax*8]
  002e2	f2 0f 59 0d 00
	00 00 00	 mulsd	 xmm1, QWORD PTR __real@3f50624dd2f1a9fc
$LN60@DXUtil_Tim:

; 450  :     
; 451  :         // Return the elapsed time
; 452  :         if( command == TIMER_GETELAPSEDTIME )

  002ea	f2 0f 11 4d f0	 movsd	 QWORD PTR _fTime$2[ebp], xmm1
  002ef	83 fe 06	 cmp	 esi, 6
  002f2	75 20		 jne	 SHORT $LN19@DXUtil_Tim

; 453  :         {   
; 454  :             fElapsedTime = (double) (fTime - m_fLastElapsedTime);

  002f4	dd 45 f0	 fld	 QWORD PTR _fTime$2[ebp]
  002f7	dc 25 00 00 00
	00		 fsub	 QWORD PTR ?m_fLastElapsedTime@?CJ@??DXUtil_Timer@@YGMW4TIMER_COMMAND@@@Z@4NA
  002fd	5f		 pop	 edi

; 511  :     }
; 512  : }

  002fe	5e		 pop	 esi
  002ff	5b		 pop	 ebx
  00300	f2 0f 11 0d 00
	00 00 00	 movsd	 QWORD PTR ?m_fLastElapsedTime@?CJ@??DXUtil_Timer@@YGMW4TIMER_COMMAND@@@Z@4NA, xmm1
  00308	d9 5d 08	 fstp	 DWORD PTR tv169[ebp]
  0030b	d9 45 08	 fld	 DWORD PTR tv169[ebp]
  0030e	8b e5		 mov	 esp, ebp
  00310	5d		 pop	 ebp
  00311	c2 04 00	 ret	 4
$LN19@DXUtil_Tim:

; 455  :             m_fLastElapsedTime = fTime;
; 456  :             return (FLOAT) fElapsedTime;
; 457  :         }
; 458  :     
; 459  :         // Return the current time
; 460  :         if( command == TIMER_GETAPPTIME )

  00314	83 fe 05	 cmp	 esi, 5
  00317	75 18		 jne	 SHORT $LN20@DXUtil_Tim

; 461  :         {
; 462  :             return (FLOAT) (fTime - m_fBaseTime);

  00319	dd 45 f0	 fld	 QWORD PTR _fTime$2[ebp]
  0031c	dc 25 00 00 00
	00		 fsub	 QWORD PTR ?m_fBaseTime@?CJ@??DXUtil_Timer@@YGMW4TIMER_COMMAND@@@Z@4NA
  00322	5f		 pop	 edi

; 511  :     }
; 512  : }

  00323	5e		 pop	 esi
  00324	5b		 pop	 ebx
  00325	d9 5d 08	 fstp	 DWORD PTR tv165[ebp]
  00328	d9 45 08	 fld	 DWORD PTR tv165[ebp]
  0032b	8b e5		 mov	 esp, ebp
  0032d	5d		 pop	 ebp
  0032e	c2 04 00	 ret	 4
$LN20@DXUtil_Tim:

; 463  :         }
; 464  :     
; 465  :         // Reset the timer
; 466  :         if( command == TIMER_RESET )

  00331	85 f6		 test	 esi, esi
  00333	75 29		 jne	 SHORT $LN21@DXUtil_Tim

; 467  :         {
; 468  :             m_fBaseTime         = fTime;
; 469  :             m_fLastElapsedTime  = fTime;
; 470  :             m_fStopTime         = 0;
; 471  :             m_bTimerStopped     = FALSE;
; 472  :             return 0.0f;

  00335	d9 ee		 fldz
  00337	5f		 pop	 edi
  00338	89 35 00 00 00
	00		 mov	 DWORD PTR ?m_bTimerStopped@?1??DXUtil_Timer@@YGMW4TIMER_COMMAND@@@Z@4HA, esi

; 511  :     }
; 512  : }

  0033e	5e		 pop	 esi
  0033f	f2 0f 11 0d 00
	00 00 00	 movsd	 QWORD PTR ?m_fBaseTime@?CJ@??DXUtil_Timer@@YGMW4TIMER_COMMAND@@@Z@4NA, xmm1
  00347	f2 0f 11 0d 00
	00 00 00	 movsd	 QWORD PTR ?m_fLastElapsedTime@?CJ@??DXUtil_Timer@@YGMW4TIMER_COMMAND@@@Z@4NA, xmm1
  0034f	f2 0f 11 1d 00
	00 00 00	 movsd	 QWORD PTR ?m_fStopTime@?CJ@??DXUtil_Timer@@YGMW4TIMER_COMMAND@@@Z@4NA, xmm3
  00357	5b		 pop	 ebx
  00358	8b e5		 mov	 esp, ebp
  0035a	5d		 pop	 ebp
  0035b	c2 04 00	 ret	 4
$LN21@DXUtil_Tim:

; 473  :         }
; 474  :     
; 475  :         // Start the timer
; 476  :         if( command == TIMER_START )

  0035e	83 fe 01	 cmp	 esi, 1
  00361	75 45		 jne	 SHORT $LN22@DXUtil_Tim

; 477  :         {
; 478  :             if( m_bTimerStopped )

  00363	83 3d 00 00 00
	00 00		 cmp	 DWORD PTR ?m_bTimerStopped@?1??DXUtil_Timer@@YGMW4TIMER_COMMAND@@@Z@4HA, 0
  0036a	74 17		 je	 SHORT $LN23@DXUtil_Tim

; 479  :                 m_fBaseTime += fTime - m_fStopTime;

  0036c	0f 28 c1	 movaps	 xmm0, xmm1
  0036f	f2 0f 5c c2	 subsd	 xmm0, xmm2
  00373	f2 0f 58 05 00
	00 00 00	 addsd	 xmm0, QWORD PTR ?m_fBaseTime@?CJ@??DXUtil_Timer@@YGMW4TIMER_COMMAND@@@Z@4NA
  0037b	f2 0f 11 05 00
	00 00 00	 movsd	 QWORD PTR ?m_fBaseTime@?CJ@??DXUtil_Timer@@YGMW4TIMER_COMMAND@@@Z@4NA, xmm0
$LN23@DXUtil_Tim:

; 480  :             m_fStopTime = 0.0f;
; 481  :             m_fLastElapsedTime  = fTime;
; 482  :             m_bTimerStopped = FALSE;
; 483  :             return 0.0f;

  00383	d9 ee		 fldz
  00385	5f		 pop	 edi

; 511  :     }
; 512  : }

  00386	5e		 pop	 esi
  00387	f2 0f 11 1d 00
	00 00 00	 movsd	 QWORD PTR ?m_fStopTime@?CJ@??DXUtil_Timer@@YGMW4TIMER_COMMAND@@@Z@4NA, xmm3
  0038f	f2 0f 11 0d 00
	00 00 00	 movsd	 QWORD PTR ?m_fLastElapsedTime@?CJ@??DXUtil_Timer@@YGMW4TIMER_COMMAND@@@Z@4NA, xmm1
  00397	c7 05 00 00 00
	00 00 00 00 00	 mov	 DWORD PTR ?m_bTimerStopped@?1??DXUtil_Timer@@YGMW4TIMER_COMMAND@@@Z@4HA, 0
  003a1	5b		 pop	 ebx
  003a2	8b e5		 mov	 esp, ebp
  003a4	5d		 pop	 ebp
  003a5	c2 04 00	 ret	 4
$LN22@DXUtil_Tim:

; 484  :         }
; 485  :     
; 486  :         // Stop the timer
; 487  :         if( command == TIMER_STOP )

  003a8	83 fe 02	 cmp	 esi, 2
  003ab	75 2e		 jne	 SHORT $LN24@DXUtil_Tim

; 488  :         {
; 489  :             if( !m_bTimerStopped )

  003ad	83 3d 00 00 00
	00 00		 cmp	 DWORD PTR ?m_bTimerStopped@?1??DXUtil_Timer@@YGMW4TIMER_COMMAND@@@Z@4HA, 0
  003b4	75 1a		 jne	 SHORT $LN25@DXUtil_Tim

; 490  :             {
; 491  :                 m_fStopTime = fTime;

  003b6	f2 0f 11 0d 00
	00 00 00	 movsd	 QWORD PTR ?m_fStopTime@?CJ@??DXUtil_Timer@@YGMW4TIMER_COMMAND@@@Z@4NA, xmm1

; 492  :                 m_fLastElapsedTime  = fTime;

  003be	f2 0f 11 0d 00
	00 00 00	 movsd	 QWORD PTR ?m_fLastElapsedTime@?CJ@??DXUtil_Timer@@YGMW4TIMER_COMMAND@@@Z@4NA, xmm1

; 493  :                 m_bTimerStopped = TRUE;
; 494  :             }
; 495  :             return 0.0f;

  003c6	c7 05 00 00 00
	00 01 00 00 00	 mov	 DWORD PTR ?m_bTimerStopped@?1??DXUtil_Timer@@YGMW4TIMER_COMMAND@@@Z@4HA, 1
$LN25@DXUtil_Tim:
  003d0	d9 ee		 fldz
  003d2	5f		 pop	 edi

; 511  :     }
; 512  : }

  003d3	5e		 pop	 esi
  003d4	5b		 pop	 ebx
  003d5	8b e5		 mov	 esp, ebp
  003d7	5d		 pop	 ebp
  003d8	c2 04 00	 ret	 4
$LN24@DXUtil_Tim:

; 496  :         }
; 497  :     
; 498  :         // Advance the timer by 1/10th second
; 499  :         if( command == TIMER_ADVANCE )

  003db	83 fe 03	 cmp	 esi, 3
  003de	75 1b		 jne	 SHORT $LN26@DXUtil_Tim

; 500  :         {
; 501  :             m_fStopTime += 0.1f;

  003e0	f2 0f 58 15 00
	00 00 00	 addsd	 xmm2, QWORD PTR __real@3fb99999a0000000

; 502  :             return 0.0f;

  003e8	d9 ee		 fldz
  003ea	5f		 pop	 edi

; 511  :     }
; 512  : }

  003eb	5e		 pop	 esi
  003ec	5b		 pop	 ebx
  003ed	f2 0f 11 15 00
	00 00 00	 movsd	 QWORD PTR ?m_fStopTime@?CJ@??DXUtil_Timer@@YGMW4TIMER_COMMAND@@@Z@4NA, xmm2
  003f5	8b e5		 mov	 esp, ebp
  003f7	5d		 pop	 ebp
  003f8	c2 04 00	 ret	 4
$LN26@DXUtil_Tim:

; 503  :         }
; 504  : 
; 505  :         if( command == TIMER_GETABSOLUTETIME )

  003fb	83 fe 04	 cmp	 esi, 4
  003fe	75 12		 jne	 SHORT $LN27@DXUtil_Tim

; 506  :         {
; 507  :             return (FLOAT) fTime;

  00400	dd 45 f0	 fld	 QWORD PTR _fTime$2[ebp]
  00403	5f		 pop	 edi
  00404	d9 5d 08	 fstp	 DWORD PTR tv143[ebp]
  00407	d9 45 08	 fld	 DWORD PTR tv143[ebp]

; 511  :     }
; 512  : }

  0040a	5e		 pop	 esi
  0040b	5b		 pop	 ebx
  0040c	8b e5		 mov	 esp, ebp
  0040e	5d		 pop	 ebp
  0040f	c2 04 00	 ret	 4
$LN27@DXUtil_Tim:

; 508  :         }
; 509  : 
; 510  :         return -1.0f; // Invalid command specified

  00412	d9 05 00 00 00
	00		 fld	 DWORD PTR __real@bf800000
  00418	5f		 pop	 edi

; 511  :     }
; 512  : }

  00419	5e		 pop	 esi
  0041a	5b		 pop	 ebx
  0041b	8b e5		 mov	 esp, ebp
  0041d	5d		 pop	 ebp
  0041e	c2 04 00	 ret	 4
?DXUtil_Timer@@YGMW4TIMER_COMMAND@@@Z ENDP		; DXUtil_Timer
_TEXT	ENDS
; Function compile flags: /Ogtp
; File C:\IAGOS\server\v18\Source\Source\_DirectX\dxutil.cpp
;	COMDAT ?DXUtil_ReadBoolRegKey@@YAJPAUHKEY__@@PADPAHH@Z
_TEXT	SEGMENT
_dwType$ = -8						; size = 4
_dwLength$ = -4						; size = 4
_hKey$ = 8						; size = 4
_strRegName$ = 12					; size = 4
_pbDest$ = 16						; size = 4
_bDefault$ = 20						; size = 4
?DXUtil_ReadBoolRegKey@@YAJPAUHKEY__@@PADPAHH@Z PROC	; DXUtil_ReadBoolRegKey, COMDAT

; 246  : {

  00000	55		 push	 ebp
  00001	8b ec		 mov	 ebp, esp
  00003	83 ec 08	 sub	 esp, 8
  00006	56		 push	 esi

; 247  :     DWORD dwType;
; 248  :     DWORD dwLength = sizeof(BOOL);
; 249  : 
; 250  :     if( ERROR_SUCCESS != RegQueryValueEx( hKey, strRegName, 0, &dwType, 

  00007	8b 75 10	 mov	 esi, DWORD PTR _pbDest$[ebp]
  0000a	8d 45 fc	 lea	 eax, DWORD PTR _dwLength$[ebp]
  0000d	50		 push	 eax
  0000e	56		 push	 esi
  0000f	8d 45 f8	 lea	 eax, DWORD PTR _dwType$[ebp]
  00012	c7 45 fc 04 00
	00 00		 mov	 DWORD PTR _dwLength$[ebp], 4
  00019	50		 push	 eax
  0001a	6a 00		 push	 0
  0001c	ff 75 0c	 push	 DWORD PTR _strRegName$[ebp]
  0001f	ff 75 08	 push	 DWORD PTR _hKey$[ebp]
  00022	ff 15 00 00 00
	00		 call	 DWORD PTR __imp__RegQueryValueExA@24
  00028	85 c0		 test	 eax, eax
  0002a	74 12		 je	 SHORT $LN2@DXUtil_Rea

; 251  :                                           (BYTE*)pbDest, &dwLength ) )
; 252  :     {
; 253  :         *pbDest = bDefault;
; 254  :         if( dwType != REG_DWORD )

  0002c	83 7d f8 04	 cmp	 DWORD PTR _dwType$[ebp], 4
  00030	8b 45 14	 mov	 eax, DWORD PTR _bDefault$[ebp]
  00033	89 06		 mov	 DWORD PTR [esi], eax
  00035	75 07		 jne	 SHORT $LN2@DXUtil_Rea

; 255  :             return E_FAIL;
; 256  : 
; 257  :         return S_OK;

  00037	33 c0		 xor	 eax, eax
  00039	5e		 pop	 esi

; 261  : }

  0003a	8b e5		 mov	 esp, ebp
  0003c	5d		 pop	 ebp
  0003d	c3		 ret	 0
$LN2@DXUtil_Rea:

; 258  :     }
; 259  : 
; 260  :     return E_FAIL;

  0003e	b8 05 40 00 80	 mov	 eax, -2147467259	; 80004005H
  00043	5e		 pop	 esi

; 261  : }

  00044	8b e5		 mov	 esp, ebp
  00046	5d		 pop	 ebp
  00047	c3		 ret	 0
?DXUtil_ReadBoolRegKey@@YAJPAUHKEY__@@PADPAHH@Z ENDP	; DXUtil_ReadBoolRegKey
_TEXT	ENDS
; Function compile flags: /Ogtp
; File C:\IAGOS\server\v18\Source\Source\_DirectX\dxutil.cpp
;	COMDAT ?DXUtil_ReadGuidRegKey@@YAJPAUHKEY__@@PADPAU_GUID@@AAU2@@Z
_TEXT	SEGMENT
_dwType$ = -8						; size = 4
_dwLength$ = -4						; size = 4
_hKey$ = 8						; size = 4
_strRegName$ = 12					; size = 4
_pGuidDest$ = 16					; size = 4
_guidDefault$ = 20					; size = 4
?DXUtil_ReadGuidRegKey@@YAJPAUHKEY__@@PADPAU_GUID@@AAU2@@Z PROC ; DXUtil_ReadGuidRegKey, COMDAT

; 288  : {

  00000	55		 push	 ebp
  00001	8b ec		 mov	 ebp, esp
  00003	83 ec 08	 sub	 esp, 8
  00006	56		 push	 esi

; 289  :     DWORD dwType;
; 290  :     DWORD dwLength = sizeof(GUID);
; 291  : 
; 292  :     if( ERROR_SUCCESS != RegQueryValueEx( hKey, strRegName, 0, &dwType, 

  00007	8b 75 10	 mov	 esi, DWORD PTR _pGuidDest$[ebp]
  0000a	8d 45 fc	 lea	 eax, DWORD PTR _dwLength$[ebp]
  0000d	50		 push	 eax
  0000e	56		 push	 esi
  0000f	8d 45 f8	 lea	 eax, DWORD PTR _dwType$[ebp]
  00012	c7 45 fc 10 00
	00 00		 mov	 DWORD PTR _dwLength$[ebp], 16 ; 00000010H
  00019	50		 push	 eax
  0001a	6a 00		 push	 0
  0001c	ff 75 0c	 push	 DWORD PTR _strRegName$[ebp]
  0001f	ff 75 08	 push	 DWORD PTR _hKey$[ebp]
  00022	ff 15 00 00 00
	00		 call	 DWORD PTR __imp__RegQueryValueExA@24
  00028	85 c0		 test	 eax, eax
  0002a	74 16		 je	 SHORT $LN2@DXUtil_Rea

; 293  :                                           (LPBYTE) pGuidDest, &dwLength ) )
; 294  :     {
; 295  :         *pGuidDest = guidDefault;
; 296  :         if( dwType != REG_BINARY )

  0002c	83 7d f8 03	 cmp	 DWORD PTR _dwType$[ebp], 3
  00030	8b 45 14	 mov	 eax, DWORD PTR _guidDefault$[ebp]
  00033	0f 10 00	 movups	 xmm0, XMMWORD PTR [eax]
  00036	0f 11 06	 movups	 XMMWORD PTR [esi], xmm0
  00039	75 07		 jne	 SHORT $LN2@DXUtil_Rea

; 297  :             return E_FAIL;
; 298  : 
; 299  :         return S_OK;

  0003b	33 c0		 xor	 eax, eax
  0003d	5e		 pop	 esi

; 303  : }

  0003e	8b e5		 mov	 esp, ebp
  00040	5d		 pop	 ebp
  00041	c3		 ret	 0
$LN2@DXUtil_Rea:

; 300  :     }
; 301  : 
; 302  :     return E_FAIL;

  00042	b8 05 40 00 80	 mov	 eax, -2147467259	; 80004005H
  00047	5e		 pop	 esi

; 303  : }

  00048	8b e5		 mov	 esp, ebp
  0004a	5d		 pop	 ebp
  0004b	c3		 ret	 0
?DXUtil_ReadGuidRegKey@@YAJPAUHKEY__@@PADPAU_GUID@@AAU2@@Z ENDP ; DXUtil_ReadGuidRegKey
_TEXT	ENDS
; Function compile flags: /Ogtp
; File C:\IAGOS\server\v18\Source\Source\_DirectX\dxutil.cpp
;	COMDAT ?DXUtil_ReadIntRegKey@@YAJPAUHKEY__@@PADPAKK@Z
_TEXT	SEGMENT
_dwType$ = -8						; size = 4
_dwLength$ = -4						; size = 4
_hKey$ = 8						; size = 4
_strRegName$ = 12					; size = 4
_pdwDest$ = 16						; size = 4
_dwDefault$ = 20					; size = 4
?DXUtil_ReadIntRegKey@@YAJPAUHKEY__@@PADPAKK@Z PROC	; DXUtil_ReadIntRegKey, COMDAT

; 204  : {

  00000	55		 push	 ebp
  00001	8b ec		 mov	 ebp, esp
  00003	83 ec 08	 sub	 esp, 8
  00006	56		 push	 esi

; 205  :     DWORD dwType;
; 206  :     DWORD dwLength = sizeof(DWORD);
; 207  : 
; 208  :     if( ERROR_SUCCESS != RegQueryValueEx( hKey, strRegName, 0, &dwType, 

  00007	8b 75 10	 mov	 esi, DWORD PTR _pdwDest$[ebp]
  0000a	8d 45 fc	 lea	 eax, DWORD PTR _dwLength$[ebp]
  0000d	50		 push	 eax
  0000e	56		 push	 esi
  0000f	8d 45 f8	 lea	 eax, DWORD PTR _dwType$[ebp]
  00012	c7 45 fc 04 00
	00 00		 mov	 DWORD PTR _dwLength$[ebp], 4
  00019	50		 push	 eax
  0001a	6a 00		 push	 0
  0001c	ff 75 0c	 push	 DWORD PTR _strRegName$[ebp]
  0001f	ff 75 08	 push	 DWORD PTR _hKey$[ebp]
  00022	ff 15 00 00 00
	00		 call	 DWORD PTR __imp__RegQueryValueExA@24
  00028	85 c0		 test	 eax, eax
  0002a	74 12		 je	 SHORT $LN2@DXUtil_Rea

; 209  :                                           (BYTE*)pdwDest, &dwLength ) )
; 210  :     {
; 211  :         *pdwDest = dwDefault;
; 212  :         if( dwType != REG_DWORD )

  0002c	83 7d f8 04	 cmp	 DWORD PTR _dwType$[ebp], 4
  00030	8b 45 14	 mov	 eax, DWORD PTR _dwDefault$[ebp]
  00033	89 06		 mov	 DWORD PTR [esi], eax
  00035	75 07		 jne	 SHORT $LN2@DXUtil_Rea

; 213  :             return E_FAIL;
; 214  : 
; 215  :         return S_OK;

  00037	33 c0		 xor	 eax, eax
  00039	5e		 pop	 esi

; 219  : }

  0003a	8b e5		 mov	 esp, ebp
  0003c	5d		 pop	 ebp
  0003d	c3		 ret	 0
$LN2@DXUtil_Rea:

; 216  :     }
; 217  : 
; 218  :     return E_FAIL;

  0003e	b8 05 40 00 80	 mov	 eax, -2147467259	; 80004005H
  00043	5e		 pop	 esi

; 219  : }

  00044	8b e5		 mov	 esp, ebp
  00046	5d		 pop	 ebp
  00047	c3		 ret	 0
?DXUtil_ReadIntRegKey@@YAJPAUHKEY__@@PADPAKK@Z ENDP	; DXUtil_ReadIntRegKey
_TEXT	ENDS
; Function compile flags: /Ogtp
; File C:\IAGOS\server\v18\Source\Source\_DirectX\dxutil.cpp
;	COMDAT ?DXUtil_ReadStringRegKeyCb@@YAJPAUHKEY__@@PAD1K1@Z
_TEXT	SEGMENT
_hKey$ = 8						; size = 4
_strRegName$ = 12					; size = 4
_strDest$ = 16						; size = 4
_cbDest$ = 20						; size = 4
_strDefault$ = 24					; size = 4
?DXUtil_ReadStringRegKeyCb@@YAJPAUHKEY__@@PAD1K1@Z PROC	; DXUtil_ReadStringRegKeyCb, COMDAT

; 1084 : {

  00000	55		 push	 ebp
  00001	8b ec		 mov	 ebp, esp

; 1086 : }

  00003	5d		 pop	 ebp

; 1085 :     return DXUtil_ReadStringRegKeyCch( hKey, strRegName, strDest, cbDest / sizeof(TCHAR), strDefault );

  00004	e9 00 00 00 00	 jmp	 ?DXUtil_ReadStringRegKeyCch@@YAJPAUHKEY__@@PAD1K1@Z ; DXUtil_ReadStringRegKeyCch
?DXUtil_ReadStringRegKeyCb@@YAJPAUHKEY__@@PAD1K1@Z ENDP	; DXUtil_ReadStringRegKeyCb
_TEXT	ENDS
; Function compile flags: /Ogtp
; File C:\IAGOS\server\v18\Source\Source\_DirectX\dxutil.cpp
; File C:\Program Files (x86)\Windows Kits\10\Include\10.0.26100.0\ucrt\tchar.h
; File C:\IAGOS\server\v18\Source\Source\_DirectX\dxutil.cpp
;	COMDAT ?DXUtil_ReadStringRegKeyCch@@YAJPAUHKEY__@@PAD1K1@Z
_TEXT	SEGMENT
_dwType$ = -4						; size = 4
_hKey$ = 8						; size = 4
_strRegName$ = 12					; size = 4
_strDest$ = 16						; size = 4
_cchDest$ = 20						; size = 4
_cbDest$ = 20						; size = 4
_strDefault$ = 24					; size = 4
?DXUtil_ReadStringRegKeyCch@@YAJPAUHKEY__@@PAD1K1@Z PROC ; DXUtil_ReadStringRegKeyCch, COMDAT

; 154  : {

  00000	55		 push	 ebp
  00001	8b ec		 mov	 ebp, esp
  00003	51		 push	 ecx
  00004	56		 push	 esi

; 155  :     DWORD dwType;
; 156  :     DWORD cbDest = cchDest * sizeof(TCHAR);

  00005	8b 75 14	 mov	 esi, DWORD PTR _cchDest$[ebp]

; 157  : 
; 158  :     if( ERROR_SUCCESS != RegQueryValueEx( hKey, strRegName, 0, &dwType, 

  00008	8d 45 14	 lea	 eax, DWORD PTR _cbDest$[ebp]
  0000b	57		 push	 edi
  0000c	8b 7d 10	 mov	 edi, DWORD PTR _strDest$[ebp]
  0000f	50		 push	 eax
  00010	57		 push	 edi
  00011	8d 45 fc	 lea	 eax, DWORD PTR _dwType$[ebp]
  00014	89 75 14	 mov	 DWORD PTR _cbDest$[ebp], esi
  00017	50		 push	 eax
  00018	6a 00		 push	 0
  0001a	ff 75 0c	 push	 DWORD PTR _strRegName$[ebp]
  0001d	ff 75 08	 push	 DWORD PTR _hKey$[ebp]
  00020	ff 15 00 00 00
	00		 call	 DWORD PTR __imp__RegQueryValueExA@24
  00026	85 c0		 test	 eax, eax
  00028	74 20		 je	 SHORT $LN2@DXUtil_Rea
; File C:\Program Files (x86)\Windows Kits\10\Include\10.0.26100.0\ucrt\tchar.h

; 1528 :     return (char *)_mbsnbcpy((unsigned char *)_Dst,(const unsigned char *)_Source,_Count);

  0002a	56		 push	 esi
  0002b	ff 75 18	 push	 DWORD PTR _strDefault$[ebp]
  0002e	57		 push	 edi
  0002f	e8 00 00 00 00	 call	 __mbsnbcpy
  00034	83 c4 0c	 add	 esp, 12			; 0000000cH
; File C:\IAGOS\server\v18\Source\Source\_DirectX\dxutil.cpp

; 162  :         strDest[cchDest-1] = 0;

  00037	c6 44 37 ff 00	 mov	 BYTE PTR [edi+esi-1], 0

; 163  : 
; 164  :         if( dwType != REG_SZ )

  0003c	83 7d fc 01	 cmp	 DWORD PTR _dwType$[ebp], 1
  00040	75 08		 jne	 SHORT $LN2@DXUtil_Rea

; 165  :             return E_FAIL;
; 166  : 
; 167  :         return S_OK;

  00042	5f		 pop	 edi
  00043	33 c0		 xor	 eax, eax

; 171  : }

  00045	5e		 pop	 esi
  00046	8b e5		 mov	 esp, ebp
  00048	5d		 pop	 ebp
  00049	c3		 ret	 0
$LN2@DXUtil_Rea:
  0004a	5f		 pop	 edi

; 168  :     }
; 169  : 
; 170  :     return E_FAIL;

  0004b	b8 05 40 00 80	 mov	 eax, -2147467259	; 80004005H

; 171  : }

  00050	5e		 pop	 esi
  00051	8b e5		 mov	 esp, ebp
  00053	5d		 pop	 ebp
  00054	c3		 ret	 0
?DXUtil_ReadStringRegKeyCch@@YAJPAUHKEY__@@PAD1K1@Z ENDP ; DXUtil_ReadStringRegKeyCch
_TEXT	ENDS
; Function compile flags: /Ogtp
; File C:\IAGOS\server\v18\Source\Source\_DirectX\dxutil.cpp
;	COMDAT ?DXUtil_WriteBoolRegKey@@YAJPAUHKEY__@@PADH@Z
_TEXT	SEGMENT
_hKey$ = 8						; size = 4
_strRegName$ = 12					; size = 4
_bValue$ = 16						; size = 4
?DXUtil_WriteBoolRegKey@@YAJPAUHKEY__@@PADH@Z PROC	; DXUtil_WriteBoolRegKey, COMDAT

; 271  : {

  00000	55		 push	 ebp
  00001	8b ec		 mov	 ebp, esp

; 272  :     if( ERROR_SUCCESS != RegSetValueEx( hKey, strRegName, 0, REG_DWORD, 

  00003	6a 04		 push	 4
  00005	8d 45 10	 lea	 eax, DWORD PTR _bValue$[ebp]
  00008	50		 push	 eax
  00009	6a 04		 push	 4
  0000b	6a 00		 push	 0
  0000d	ff 75 0c	 push	 DWORD PTR _strRegName$[ebp]
  00010	ff 75 08	 push	 DWORD PTR _hKey$[ebp]
  00013	ff 15 00 00 00
	00		 call	 DWORD PTR __imp__RegSetValueExA@24
  00019	f7 d8		 neg	 eax
  0001b	1b c0		 sbb	 eax, eax
  0001d	25 05 40 00 80	 and	 eax, -2147467259	; 80004005H

; 273  :                                         (BYTE*)&bValue, sizeof(BOOL) ) )
; 274  :         return E_FAIL;
; 275  : 
; 276  :     return S_OK;
; 277  : }

  00022	5d		 pop	 ebp
  00023	c3		 ret	 0
?DXUtil_WriteBoolRegKey@@YAJPAUHKEY__@@PADH@Z ENDP	; DXUtil_WriteBoolRegKey
_TEXT	ENDS
; Function compile flags: /Ogtp
; File C:\IAGOS\server\v18\Source\Source\_DirectX\dxutil.cpp
;	COMDAT ?DXUtil_WriteGuidRegKey@@YAJPAUHKEY__@@PADU_GUID@@@Z
_TEXT	SEGMENT
_guidValue$GSCopy$ = -20				; size = 16
__$ArrayPad$ = -4					; size = 4
_hKey$ = 8						; size = 4
_strRegName$ = 12					; size = 4
_guidValue$ = 16					; size = 16
?DXUtil_WriteGuidRegKey@@YAJPAUHKEY__@@PADU_GUID@@@Z PROC ; DXUtil_WriteGuidRegKey, COMDAT

; 313  : {

  00000	55		 push	 ebp
  00001	8b ec		 mov	 ebp, esp
  00003	83 ec 14	 sub	 esp, 20			; 00000014H
  00006	a1 00 00 00 00	 mov	 eax, DWORD PTR ___security_cookie
  0000b	33 c5		 xor	 eax, ebp
  0000d	89 45 fc	 mov	 DWORD PTR __$ArrayPad$[ebp], eax
  00010	8b 45 0c	 mov	 eax, DWORD PTR _strRegName$[ebp]

; 314  :     if( ERROR_SUCCESS != RegSetValueEx( hKey, strRegName, 0, REG_BINARY, 

  00013	8d 55 ec	 lea	 edx, DWORD PTR _guidValue$GSCopy$[ebp]
  00016	0f 10 45 10	 movups	 xmm0, XMMWORD PTR _guidValue$[ebp]
  0001a	8b 4d 08	 mov	 ecx, DWORD PTR _hKey$[ebp]
  0001d	6a 10		 push	 16			; 00000010H
  0001f	52		 push	 edx
  00020	6a 03		 push	 3
  00022	6a 00		 push	 0
  00024	50		 push	 eax
  00025	51		 push	 ecx
  00026	0f 11 45 ec	 movups	 XMMWORD PTR _guidValue$GSCopy$[ebp], xmm0
  0002a	ff 15 00 00 00
	00		 call	 DWORD PTR __imp__RegSetValueExA@24

; 315  :                                         (BYTE*)&guidValue, sizeof(GUID) ) )
; 316  :         return E_FAIL;
; 317  : 
; 318  :     return S_OK;
; 319  : }

  00030	8b 4d fc	 mov	 ecx, DWORD PTR __$ArrayPad$[ebp]
  00033	f7 d8		 neg	 eax
  00035	1b c0		 sbb	 eax, eax
  00037	33 cd		 xor	 ecx, ebp
  00039	25 05 40 00 80	 and	 eax, -2147467259	; 80004005H
  0003e	e8 00 00 00 00	 call	 @__security_check_cookie@4
  00043	8b e5		 mov	 esp, ebp
  00045	5d		 pop	 ebp
  00046	c3		 ret	 0
?DXUtil_WriteGuidRegKey@@YAJPAUHKEY__@@PADU_GUID@@@Z ENDP ; DXUtil_WriteGuidRegKey
_TEXT	ENDS
; Function compile flags: /Ogtp
; File C:\IAGOS\server\v18\Source\Source\_DirectX\dxutil.cpp
;	COMDAT ?DXUtil_WriteIntRegKey@@YAJPAUHKEY__@@PADK@Z
_TEXT	SEGMENT
_hKey$ = 8						; size = 4
_strRegName$ = 12					; size = 4
_dwValue$ = 16						; size = 4
?DXUtil_WriteIntRegKey@@YAJPAUHKEY__@@PADK@Z PROC	; DXUtil_WriteIntRegKey, COMDAT

; 229  : {

  00000	55		 push	 ebp
  00001	8b ec		 mov	 ebp, esp

; 230  :     if( ERROR_SUCCESS != RegSetValueEx( hKey, strRegName, 0, REG_DWORD, 

  00003	6a 04		 push	 4
  00005	8d 45 10	 lea	 eax, DWORD PTR _dwValue$[ebp]
  00008	50		 push	 eax
  00009	6a 04		 push	 4
  0000b	6a 00		 push	 0
  0000d	ff 75 0c	 push	 DWORD PTR _strRegName$[ebp]
  00010	ff 75 08	 push	 DWORD PTR _hKey$[ebp]
  00013	ff 15 00 00 00
	00		 call	 DWORD PTR __imp__RegSetValueExA@24
  00019	f7 d8		 neg	 eax
  0001b	1b c0		 sbb	 eax, eax
  0001d	25 05 40 00 80	 and	 eax, -2147467259	; 80004005H

; 231  :                                         (BYTE*)&dwValue, sizeof(DWORD) ) )
; 232  :         return E_FAIL;
; 233  : 
; 234  :     return S_OK;
; 235  : }

  00022	5d		 pop	 ebp
  00023	c3		 ret	 0
?DXUtil_WriteIntRegKey@@YAJPAUHKEY__@@PADK@Z ENDP	; DXUtil_WriteIntRegKey
_TEXT	ENDS
; Function compile flags: /Ogtp
; File C:\IAGOS\server\v18\Source\Source\_DirectX\dxutil.cpp
;	COMDAT ?DXUtil_WriteStringRegKey@@YAJPAUHKEY__@@PAD1@Z
_TEXT	SEGMENT
_hKey$ = 8						; size = 4
_strRegName$ = 12					; size = 4
_strValue$ = 16						; size = 4
?DXUtil_WriteStringRegKey@@YAJPAUHKEY__@@PAD1@Z PROC	; DXUtil_WriteStringRegKey, COMDAT

; 182  : {

  00000	55		 push	 ebp
  00001	8b ec		 mov	 ebp, esp

; 183  :     if( NULL == strValue )

  00003	8b 55 10	 mov	 edx, DWORD PTR _strValue$[ebp]
  00006	85 d2		 test	 edx, edx
  00008	75 07		 jne	 SHORT $LN2@DXUtil_Wri

; 184  :         return E_INVALIDARG;

  0000a	b8 57 00 07 80	 mov	 eax, -2147024809	; 80070057H

; 191  : 
; 192  :     return S_OK;
; 193  : }

  0000f	5d		 pop	 ebp
  00010	c3		 ret	 0
$LN2@DXUtil_Wri:

; 185  :         
; 186  :     DWORD cbValue = ((DWORD)_tcslen(strValue)+1) * sizeof(TCHAR);

  00011	8b c2		 mov	 eax, edx
  00013	56		 push	 esi
  00014	8d 70 01	 lea	 esi, DWORD PTR [eax+1]
$LL5@DXUtil_Wri:
  00017	8a 08		 mov	 cl, BYTE PTR [eax]
  00019	40		 inc	 eax
  0001a	84 c9		 test	 cl, cl
  0001c	75 f9		 jne	 SHORT $LL5@DXUtil_Wri
  0001e	2b c6		 sub	 eax, esi
  00020	40		 inc	 eax

; 187  : 
; 188  :     if( ERROR_SUCCESS != RegSetValueEx( hKey, strRegName, 0, REG_SZ, 

  00021	50		 push	 eax
  00022	52		 push	 edx
  00023	6a 01		 push	 1
  00025	6a 00		 push	 0
  00027	ff 75 0c	 push	 DWORD PTR _strRegName$[ebp]
  0002a	ff 75 08	 push	 DWORD PTR _hKey$[ebp]
  0002d	ff 15 00 00 00
	00		 call	 DWORD PTR __imp__RegSetValueExA@24
  00033	f7 d8		 neg	 eax

; 189  :                                         (BYTE*)strValue, cbValue ) )
; 190  :         return E_FAIL;

  00035	5e		 pop	 esi
  00036	1b c0		 sbb	 eax, eax
  00038	25 05 40 00 80	 and	 eax, -2147467259	; 80004005H

; 191  : 
; 192  :     return S_OK;
; 193  : }

  0003d	5d		 pop	 ebp
  0003e	c3		 ret	 0
?DXUtil_WriteStringRegKey@@YAJPAUHKEY__@@PAD1@Z ENDP	; DXUtil_WriteStringRegKey
_TEXT	ENDS
; Function compile flags: /Ogtp
; File C:\IAGOS\server\v18\Source\Source\_DirectX\dxutil.cpp
;	COMDAT ?DXUtil_FindMediaFileCb@@YAJPADH0@Z
_TEXT	SEGMENT
_szDestPath$ = 8					; size = 4
_cbDest$ = 12						; size = 4
_strFilename$ = 16					; size = 4
?DXUtil_FindMediaFileCb@@YAJPADH0@Z PROC		; DXUtil_FindMediaFileCb, COMDAT

; 1100 : {

  00000	55		 push	 ebp
  00001	8b ec		 mov	 ebp, esp

; 1102 : }

  00003	5d		 pop	 ebp

; 1101 :     return DXUtil_FindMediaFileCch( szDestPath, cbDest / sizeof(TCHAR), strFilename );

  00004	e9 00 00 00 00	 jmp	 ?DXUtil_FindMediaFileCch@@YAJPADH0@Z ; DXUtil_FindMediaFileCch
?DXUtil_FindMediaFileCb@@YAJPADH0@Z ENDP		; DXUtil_FindMediaFileCb
_TEXT	ENDS
; Function compile flags: /Ogtp
; File C:\IAGOS\server\v18\Source\Source\_DirectX\dxutil.cpp
; File C:\Program Files (x86)\Windows Kits\10\Include\10.0.26100.0\ucrt\tchar.h
; File C:\IAGOS\server\v18\Source\Source\_DirectX\dxutil.cpp
; File C:\Program Files (x86)\Windows Kits\10\Include\10.0.26100.0\ucrt\tchar.h
; File C:\IAGOS\server\v18\Source\Source\_DirectX\dxutil.cpp
;	COMDAT ?DXUtil_FindMediaFileCch@@YAJPADH0@Z
_TEXT	SEGMENT
_cchDest$GSCopy$1$ = -276				; size = 4
_strFilename$GSCopy$1$ = -272				; size = 4
_strShortNameTmp$ = -268				; size = 4
_strShortName$ = -264					; size = 260
__$ArrayPad$ = -4					; size = 4
_strDestPath$ = 8					; size = 4
_cchDest$ = 12						; size = 4
_strFilename$ = 16					; size = 4
?DXUtil_FindMediaFileCch@@YAJPADH0@Z PROC		; DXUtil_FindMediaFileCch, COMDAT

; 79   : {

  00000	55		 push	 ebp
  00001	8b ec		 mov	 ebp, esp
  00003	81 ec 14 01 00
	00		 sub	 esp, 276		; 00000114H
  00009	a1 00 00 00 00	 mov	 eax, DWORD PTR ___security_cookie
  0000e	33 c5		 xor	 eax, ebp
  00010	89 45 fc	 mov	 DWORD PTR __$ArrayPad$[ebp], eax
  00013	8b 45 10	 mov	 eax, DWORD PTR _strFilename$[ebp]
  00016	89 85 f0 fe ff
	ff		 mov	 DWORD PTR _strFilename$GSCopy$1$[ebp], eax

; 80   :     HRESULT hr;
; 81   :     HANDLE file;
; 82   :     TCHAR* strShortNameTmp = NULL;

  0001c	c7 85 f4 fe ff
	ff 00 00 00 00	 mov	 DWORD PTR _strShortNameTmp$[ebp], 0
  00026	53		 push	 ebx
  00027	8b 5d 08	 mov	 ebx, DWORD PTR _strDestPath$[ebp]
  0002a	56		 push	 esi
  0002b	57		 push	 edi
  0002c	8b 7d 0c	 mov	 edi, DWORD PTR _cchDest$[ebp]
  0002f	89 bd ec fe ff
	ff		 mov	 DWORD PTR _cchDest$GSCopy$1$[ebp], edi

; 83   :     TCHAR strShortName[MAX_PATH];
; 84   :     int cchPath;
; 85   : 
; 86   :     if( NULL==strFilename || NULL==strDestPath || cchDest < 1 )

  00035	85 c0		 test	 eax, eax
  00037	0f 84 94 01 00
	00		 je	 $LN3@DXUtil_Fin
  0003d	85 db		 test	 ebx, ebx
  0003f	0f 84 8c 01 00
	00		 je	 $LN3@DXUtil_Fin
  00045	83 ff 01	 cmp	 edi, 1
  00048	0f 8c 83 01 00
	00		 jl	 $LN3@DXUtil_Fin

; 88   : 
; 89   :     lstrcpy( strDestPath, TEXT("") );

  0004e	8b 35 00 00 00
	00		 mov	 esi, DWORD PTR __imp__lstrcpyA@8
  00054	68 00 00 00 00	 push	 OFFSET ??_C@_00CNPNBAHC@@
  00059	53		 push	 ebx
  0005a	ff d6		 call	 esi

; 90   :     lstrcpy( strShortName, TEXT("") );

  0005c	68 00 00 00 00	 push	 OFFSET ??_C@_00CNPNBAHC@@
  00061	8d 85 f8 fe ff
	ff		 lea	 eax, DWORD PTR _strShortName$[ebp]
  00067	50		 push	 eax
  00068	ff d6		 call	 esi

; 91   : 
; 92   :     // Build full path name from strFileName (strShortName will be just the leaf filename)
; 93   :     cchPath = GetFullPathName(strFilename, cchDest, strDestPath, &strShortNameTmp);

  0006a	8d 85 f4 fe ff
	ff		 lea	 eax, DWORD PTR _strShortNameTmp$[ebp]
  00070	50		 push	 eax
  00071	53		 push	 ebx
  00072	57		 push	 edi
  00073	ff b5 f0 fe ff
	ff		 push	 DWORD PTR _strFilename$GSCopy$1$[ebp]
  00079	ff 15 00 00 00
	00		 call	 DWORD PTR __imp__GetFullPathNameA@16

; 94   :     if ((cchPath == 0) || (cchDest <= cchPath))

  0007f	85 c0		 test	 eax, eax
  00081	0f 84 34 01 00
	00		 je	 $LN5@DXUtil_Fin
  00087	3b f8		 cmp	 edi, eax
  00089	0f 8e 2c 01 00
	00		 jle	 $LN5@DXUtil_Fin

; 95   :         return E_FAIL;
; 96   :     if( strShortNameTmp )

  0008f	8b 85 f4 fe ff
	ff		 mov	 eax, DWORD PTR _strShortNameTmp$[ebp]
  00095	85 c0		 test	 eax, eax
  00097	74 13		 je	 SHORT $LN6@DXUtil_Fin

; 97   :         lstrcpyn( strShortName, strShortNameTmp, MAX_PATH );

  00099	68 04 01 00 00	 push	 260			; 00000104H
  0009e	50		 push	 eax
  0009f	8d 85 f8 fe ff
	ff		 lea	 eax, DWORD PTR _strShortName$[ebp]
  000a5	50		 push	 eax
  000a6	ff 15 00 00 00
	00		 call	 DWORD PTR __imp__lstrcpynA@12
$LN6@DXUtil_Fin:

; 98   : 
; 99   :     // first try to find the filename given a full path
; 100  :     file = CreateFile( strDestPath, GENERIC_READ, FILE_SHARE_READ, NULL, 

  000ac	8b 35 00 00 00
	00		 mov	 esi, DWORD PTR __imp__CreateFileA@28
  000b2	6a 00		 push	 0
  000b4	6a 00		 push	 0
  000b6	6a 03		 push	 3
  000b8	6a 00		 push	 0
  000ba	6a 01		 push	 1
  000bc	68 00 00 00 80	 push	 -2147483648		; 80000000H
  000c1	53		 push	 ebx
  000c2	ff d6		 call	 esi

; 101  :                        OPEN_EXISTING, 0, NULL );
; 102  :     if( INVALID_HANDLE_VALUE != file )

  000c4	83 f8 ff	 cmp	 eax, -1
  000c7	74 1a		 je	 SHORT $LN7@DXUtil_Fin
$LN33@DXUtil_Fin:

; 140  : }

  000c9	50		 push	 eax
  000ca	ff 15 00 00 00
	00		 call	 DWORD PTR __imp__CloseHandle@4
  000d0	5f		 pop	 edi
  000d1	5e		 pop	 esi
  000d2	33 c0		 xor	 eax, eax
  000d4	5b		 pop	 ebx
  000d5	8b 4d fc	 mov	 ecx, DWORD PTR __$ArrayPad$[ebp]
  000d8	33 cd		 xor	 ecx, ebp
  000da	e8 00 00 00 00	 call	 @__security_check_cookie@4
  000df	8b e5		 mov	 esp, ebp
  000e1	5d		 pop	 ebp
  000e2	c3		 ret	 0
$LN7@DXUtil_Fin:

; 103  :     {
; 104  :         CloseHandle( file );
; 105  :         return S_OK;
; 106  :     }
; 107  :     
; 108  :     // next try to find the filename in the current working directory (path stripped)
; 109  :     file = CreateFile( strShortName, GENERIC_READ, FILE_SHARE_READ, NULL, 

  000e3	6a 00		 push	 0
  000e5	6a 00		 push	 0
  000e7	6a 03		 push	 3
  000e9	6a 00		 push	 0
  000eb	6a 01		 push	 1
  000ed	68 00 00 00 80	 push	 -2147483648		; 80000000H
  000f2	8d 85 f8 fe ff
	ff		 lea	 eax, DWORD PTR _strShortName$[ebp]
  000f8	50		 push	 eax
  000f9	ff d6		 call	 esi
  000fb	8b f0		 mov	 esi, eax

; 110  :                        OPEN_EXISTING, 0, NULL );
; 111  :     if( INVALID_HANDLE_VALUE != file )

  000fd	57		 push	 edi
  000fe	83 fe ff	 cmp	 esi, -1
  00101	74 2f		 je	 SHORT $LN8@DXUtil_Fin
; File C:\Program Files (x86)\Windows Kits\10\Include\10.0.26100.0\ucrt\tchar.h

; 1528 :     return (char *)_mbsnbcpy((unsigned char *)_Dst,(const unsigned char *)_Source,_Count);

  00103	8d 85 f8 fe ff
	ff		 lea	 eax, DWORD PTR _strShortName$[ebp]
  00109	50		 push	 eax
  0010a	53		 push	 ebx
  0010b	e8 00 00 00 00	 call	 __mbsnbcpy
  00110	83 c4 0c	 add	 esp, 12			; 0000000cH
; File C:\IAGOS\server\v18\Source\Source\_DirectX\dxutil.cpp

; 114  :         strDestPath[cchDest-1] = 0; // _tcsncpy doesn't NULL term if it runs out of space

  00113	c6 44 1f ff 00	 mov	 BYTE PTR [edi+ebx-1], 0

; 115  :         CloseHandle( file );

  00118	56		 push	 esi
  00119	ff 15 00 00 00
	00		 call	 DWORD PTR __imp__CloseHandle@4
  0011f	5f		 pop	 edi

; 140  : }

  00120	5e		 pop	 esi
  00121	33 c0		 xor	 eax, eax
  00123	5b		 pop	 ebx
  00124	8b 4d fc	 mov	 ecx, DWORD PTR __$ArrayPad$[ebp]
  00127	33 cd		 xor	 ecx, ebp
  00129	e8 00 00 00 00	 call	 @__security_check_cookie@4
  0012e	8b e5		 mov	 esp, ebp
  00130	5d		 pop	 ebp
  00131	c3		 ret	 0
$LN8@DXUtil_Fin:

; 116  :         return S_OK;
; 117  :     }
; 118  :     
; 119  :     // last, check if the file exists in the media directory
; 120  :     if( FAILED( hr = DXUtil_GetDXSDKMediaPathCch( strDestPath, cchDest ) ) )

  00132	53		 push	 ebx
  00133	e8 00 00 00 00	 call	 ?DXUtil_GetDXSDKMediaPathCch@@YAJPADH@Z ; DXUtil_GetDXSDKMediaPathCch
  00138	83 c4 08	 add	 esp, 8
  0013b	85 c0		 test	 eax, eax
  0013d	0f 88 93 00 00
	00		 js	 $LN1@DXUtil_Fin

; 121  :         return hr;
; 122  : 
; 123  :     if( lstrlen(strDestPath) + lstrlen(strShortName) < cchDest )

  00143	8b 35 00 00 00
	00		 mov	 esi, DWORD PTR __imp__lstrlenA@4
  00149	53		 push	 ebx
  0014a	ff d6		 call	 esi
  0014c	8b f8		 mov	 edi, eax
  0014e	8d 85 f8 fe ff
	ff		 lea	 eax, DWORD PTR _strShortName$[ebp]
  00154	50		 push	 eax
  00155	ff d6		 call	 esi
  00157	8b b5 ec fe ff
	ff		 mov	 esi, DWORD PTR _cchDest$GSCopy$1$[ebp]
  0015d	03 f8		 add	 edi, eax
  0015f	3b fe		 cmp	 edi, esi
  00161	7d 6e		 jge	 SHORT $LN3@DXUtil_Fin

; 124  :         lstrcat( strDestPath, strShortName );

  00163	8d 85 f8 fe ff
	ff		 lea	 eax, DWORD PTR _strShortName$[ebp]
  00169	50		 push	 eax
  0016a	53		 push	 ebx
  0016b	ff 15 00 00 00
	00		 call	 DWORD PTR __imp__lstrcatA@8

; 125  :     else
; 126  :         return E_INVALIDARG;
; 127  : 
; 128  :     file = CreateFile( strDestPath, GENERIC_READ, FILE_SHARE_READ, NULL, 

  00171	6a 00		 push	 0
  00173	6a 00		 push	 0
  00175	6a 03		 push	 3
  00177	6a 00		 push	 0
  00179	6a 01		 push	 1
  0017b	68 00 00 00 80	 push	 -2147483648		; 80000000H
  00180	53		 push	 ebx
  00181	ff 15 00 00 00
	00		 call	 DWORD PTR __imp__CreateFileA@28

; 129  :                        OPEN_EXISTING, 0, NULL );
; 130  :     if( INVALID_HANDLE_VALUE != file )

  00187	83 f8 ff	 cmp	 eax, -1
  0018a	0f 85 39 ff ff
	ff		 jne	 $LN33@DXUtil_Fin
; File C:\Program Files (x86)\Windows Kits\10\Include\10.0.26100.0\ucrt\tchar.h

; 1528 :     return (char *)_mbsnbcpy((unsigned char *)_Dst,(const unsigned char *)_Source,_Count);

  00190	56		 push	 esi
  00191	ff b5 f0 fe ff
	ff		 push	 DWORD PTR _strFilename$GSCopy$1$[ebp]
  00197	53		 push	 ebx
  00198	e8 00 00 00 00	 call	 __mbsnbcpy
  0019d	83 c4 0c	 add	 esp, 12			; 0000000cH
; File C:\IAGOS\server\v18\Source\Source\_DirectX\dxutil.cpp

; 138  :     strDestPath[cchDest-1] = 0; // _tcsncpy doesn't NULL term if it runs out of space

  001a0	c6 44 1e ff 00	 mov	 BYTE PTR [esi+ebx-1], 0

; 139  :     return HRESULT_FROM_WIN32( ERROR_FILE_NOT_FOUND );

  001a5	b8 02 00 07 80	 mov	 eax, -2147024894	; 80070002H
  001aa	5f		 pop	 edi

; 140  : }

  001ab	5e		 pop	 esi
  001ac	5b		 pop	 ebx
  001ad	8b 4d fc	 mov	 ecx, DWORD PTR __$ArrayPad$[ebp]
  001b0	33 cd		 xor	 ecx, ebp
  001b2	e8 00 00 00 00	 call	 @__security_check_cookie@4
  001b7	8b e5		 mov	 esp, ebp
  001b9	5d		 pop	 ebp
  001ba	c3		 ret	 0
$LN5@DXUtil_Fin:
  001bb	5f		 pop	 edi
  001bc	5e		 pop	 esi
  001bd	b8 05 40 00 80	 mov	 eax, -2147467259	; 80004005H
  001c2	5b		 pop	 ebx
  001c3	8b 4d fc	 mov	 ecx, DWORD PTR __$ArrayPad$[ebp]
  001c6	33 cd		 xor	 ecx, ebp
  001c8	e8 00 00 00 00	 call	 @__security_check_cookie@4
  001cd	8b e5		 mov	 esp, ebp
  001cf	5d		 pop	 ebp
  001d0	c3		 ret	 0
$LN3@DXUtil_Fin:

; 87   :         return E_INVALIDARG;

  001d1	b8 57 00 07 80	 mov	 eax, -2147024809	; 80070057H
$LN1@DXUtil_Fin:

; 140  : }

  001d6	8b 4d fc	 mov	 ecx, DWORD PTR __$ArrayPad$[ebp]
  001d9	5f		 pop	 edi
  001da	5e		 pop	 esi
  001db	33 cd		 xor	 ecx, ebp
  001dd	5b		 pop	 ebx
  001de	e8 00 00 00 00	 call	 @__security_check_cookie@4
  001e3	8b e5		 mov	 esp, ebp
  001e5	5d		 pop	 ebp
  001e6	c3		 ret	 0
?DXUtil_FindMediaFileCch@@YAJPADH0@Z ENDP		; DXUtil_FindMediaFileCch
_TEXT	ENDS
; Function compile flags: /Ogtp
; File C:\IAGOS\server\v18\Source\Source\_DirectX\dxutil.cpp
;	COMDAT ?DXUtil_GetDXSDKMediaPathCb@@YAJPADH@Z
_TEXT	SEGMENT
_szDest$ = 8						; size = 4
_cbDest$ = 12						; size = 4
?DXUtil_GetDXSDKMediaPathCb@@YAJPADH@Z PROC		; DXUtil_GetDXSDKMediaPathCb, COMDAT

; 1095 : {

  00000	55		 push	 ebp
  00001	8b ec		 mov	 ebp, esp

; 1097 : }

  00003	5d		 pop	 ebp

; 1096 :     return DXUtil_GetDXSDKMediaPathCch( szDest, cbDest / sizeof(TCHAR) );

  00004	e9 00 00 00 00	 jmp	 ?DXUtil_GetDXSDKMediaPathCch@@YAJPADH@Z ; DXUtil_GetDXSDKMediaPathCch
?DXUtil_GetDXSDKMediaPathCb@@YAJPADH@Z ENDP		; DXUtil_GetDXSDKMediaPathCb
_TEXT	ENDS
; Function compile flags: /Ogtp
; File C:\IAGOS\server\v18\Source\Source\_DirectX\dxutil.cpp
;	COMDAT ?DXUtil_GetDXSDKMediaPathCch@@YAJPADH@Z
_TEXT	SEGMENT
_dwType$ = -8						; size = 4
_dwSize$ = -4						; size = 4
_strDest$ = 8						; size = 4
_hKey$ = 8						; size = 4
_cchDest$ = 12						; size = 4
?DXUtil_GetDXSDKMediaPathCch@@YAJPADH@Z PROC		; DXUtil_GetDXSDKMediaPathCch, COMDAT

; 35   : {

  00000	55		 push	 ebp
  00001	8b ec		 mov	 ebp, esp
  00003	83 ec 08	 sub	 esp, 8
  00006	53		 push	 ebx

; 36   :     if( strDest == NULL || cchDest < 1 )

  00007	8b 5d 08	 mov	 ebx, DWORD PTR _strDest$[ebp]
  0000a	56		 push	 esi
  0000b	57		 push	 edi
  0000c	85 db		 test	 ebx, ebx
  0000e	0f 84 af 00 00
	00		 je	 $LN3@DXUtil_Get
  00014	8b 7d 0c	 mov	 edi, DWORD PTR _cchDest$[ebp]
  00017	83 ff 01	 cmp	 edi, 1
  0001a	0f 8c a3 00 00
	00		 jl	 $LN3@DXUtil_Get

; 37   :         return E_INVALIDARG;
; 38   : 
; 39   :     lstrcpy( strDest, TEXT("") );

  00020	68 00 00 00 00	 push	 OFFSET ??_C@_00CNPNBAHC@@
  00025	53		 push	 ebx
  00026	ff 15 00 00 00
	00		 call	 DWORD PTR __imp__lstrcpyA@8

; 40   : 
; 41   :     // Open the appropriate registry key
; 42   :     HKEY  hKey;
; 43   :     LONG lResult = RegOpenKeyEx( HKEY_LOCAL_MACHINE,

  0002c	8d 45 08	 lea	 eax, DWORD PTR _hKey$[ebp]
  0002f	50		 push	 eax
  00030	68 19 00 02 00	 push	 131097			; 00020019H
  00035	6a 00		 push	 0
  00037	68 00 00 00 00	 push	 OFFSET ??_C@_0BP@HEGLIIKH@Software?2Microsoft?2DirectX?5SDK@
  0003c	68 02 00 00 80	 push	 -2147483646		; 80000002H
  00041	ff 15 00 00 00
	00		 call	 DWORD PTR __imp__RegOpenKeyExA@20

; 44   :                                 _T("Software\\Microsoft\\DirectX SDK"),
; 45   :                                 0, KEY_READ, &hKey );
; 46   :     if( ERROR_SUCCESS != lResult )

  00047	85 c0		 test	 eax, eax
  00049	75 6c		 jne	 SHORT $LN9@DXUtil_Get

; 47   :         return E_FAIL;
; 48   : 
; 49   :     DWORD dwType;
; 50   :     DWORD dwSize = cchDest * sizeof(TCHAR);
; 51   :     lResult = RegQueryValueEx( hKey, _T("DX9SDK Samples Path"), NULL,

  0004b	8d 45 fc	 lea	 eax, DWORD PTR _dwSize$[ebp]
  0004e	89 7d fc	 mov	 DWORD PTR _dwSize$[ebp], edi
  00051	50		 push	 eax
  00052	53		 push	 ebx
  00053	8d 45 f8	 lea	 eax, DWORD PTR _dwType$[ebp]
  00056	50		 push	 eax
  00057	6a 00		 push	 0
  00059	68 00 00 00 00	 push	 OFFSET ??_C@_0BE@LKAAOJGK@DX9SDK?5Samples?5Path@
  0005e	ff 75 08	 push	 DWORD PTR _hKey$[ebp]
  00061	ff 15 00 00 00
	00		 call	 DWORD PTR __imp__RegQueryValueExA@24

; 52   :                               &dwType, (BYTE*)strDest, &dwSize );
; 53   :     strDest[cchDest-1] = 0; // RegQueryValueEx doesn't NULL term if buffer too small
; 54   :     RegCloseKey( hKey );

  00067	ff 75 08	 push	 DWORD PTR _hKey$[ebp]
  0006a	8b f0		 mov	 esi, eax
  0006c	c6 44 3b ff 00	 mov	 BYTE PTR [ebx+edi-1], 0
  00071	ff 15 00 00 00
	00		 call	 DWORD PTR __imp__RegCloseKey@4

; 55   : 
; 56   :     if( ERROR_SUCCESS != lResult )

  00077	85 f6		 test	 esi, esi
  00079	75 3c		 jne	 SHORT $LN9@DXUtil_Get

; 57   :         return E_FAIL;
; 58   : 
; 59   :     const TCHAR* strMedia = _T("\\Media\\");
; 60   :     if( lstrlen(strDest) + lstrlen(strMedia) < cchDest )

  0007b	8b 35 00 00 00
	00		 mov	 esi, DWORD PTR __imp__lstrlenA@4
  00081	68 00 00 00 00	 push	 OFFSET ??_C@_07JADGJGAE@?2Media?2@
  00086	ff d6		 call	 esi
  00088	53		 push	 ebx
  00089	8b f8		 mov	 edi, eax
  0008b	ff d6		 call	 esi
  0008d	03 c7		 add	 eax, edi
  0008f	3b 45 0c	 cmp	 eax, DWORD PTR _cchDest$[ebp]
  00092	7d 2f		 jge	 SHORT $LN3@DXUtil_Get

; 61   :         _tcscat( strDest, strMedia );

  00094	4b		 dec	 ebx
$LL11@DXUtil_Get:
  00095	8a 43 01	 mov	 al, BYTE PTR [ebx+1]
  00098	8d 5b 01	 lea	 ebx, DWORD PTR [ebx+1]
  0009b	84 c0		 test	 al, al
  0009d	75 f6		 jne	 SHORT $LL11@DXUtil_Get
  0009f	a1 00 00 00 00	 mov	 eax, DWORD PTR ??_C@_07JADGJGAE@?2Media?2@
  000a4	89 03		 mov	 DWORD PTR [ebx], eax
  000a6	a1 04 00 00 00	 mov	 eax, DWORD PTR ??_C@_07JADGJGAE@?2Media?2@+4
  000ab	5f		 pop	 edi
  000ac	89 43 04	 mov	 DWORD PTR [ebx+4], eax

; 62   :     else
; 63   :         return E_INVALIDARG;
; 64   : 
; 65   :     return S_OK;

  000af	33 c0		 xor	 eax, eax

; 66   : }

  000b1	5e		 pop	 esi
  000b2	5b		 pop	 ebx
  000b3	8b e5		 mov	 esp, ebp
  000b5	5d		 pop	 ebp
  000b6	c3		 ret	 0
$LN9@DXUtil_Get:
  000b7	5f		 pop	 edi
  000b8	5e		 pop	 esi
  000b9	b8 05 40 00 80	 mov	 eax, -2147467259	; 80004005H
  000be	5b		 pop	 ebx
  000bf	8b e5		 mov	 esp, ebp
  000c1	5d		 pop	 ebp
  000c2	c3		 ret	 0
$LN3@DXUtil_Get:
  000c3	5f		 pop	 edi
  000c4	5e		 pop	 esi
  000c5	b8 57 00 07 80	 mov	 eax, -2147024809	; 80070057H
  000ca	5b		 pop	 ebx
  000cb	8b e5		 mov	 esp, ebp
  000cd	5d		 pop	 ebp
  000ce	c3		 ret	 0
?DXUtil_GetDXSDKMediaPathCch@@YAJPADH@Z ENDP		; DXUtil_GetDXSDKMediaPathCch
_TEXT	ENDS
; Function compile flags: /Ogtp
; File C:\Program Files (x86)\Windows Kits\10\Include\10.0.26100.0\ucrt\stdio.h
;	COMDAT _sscanf
_TEXT	SEGMENT
__Buffer$ = 8						; size = 4
__Format$ = 12						; size = 4
_sscanf	PROC						; COMDAT

; 2247 :     {

  00000	55		 push	 ebp
  00001	8b ec		 mov	 ebp, esp

; 2153 :         return __stdio_common_vsscanf(

  00003	8d 45 10	 lea	 eax, DWORD PTR __Format$[ebp+4]
  00006	50		 push	 eax
  00007	6a 00		 push	 0
  00009	ff 75 0c	 push	 DWORD PTR __Format$[ebp]
  0000c	6a ff		 push	 -1
  0000e	ff 75 08	 push	 DWORD PTR __Buffer$[ebp]
  00011	e8 00 00 00 00	 call	 ___local_stdio_scanf_options
  00016	ff 70 04	 push	 DWORD PTR [eax+4]
  00019	ff 30		 push	 DWORD PTR [eax]
  0001b	e8 00 00 00 00	 call	 ___stdio_common_vsscanf
  00020	83 c4 1c	 add	 esp, 28			; 0000001cH

; 2248 :         int _Result;
; 2249 :         va_list _ArgList;
; 2250 :         __crt_va_start(_ArgList, _Format);
; 2251 :         _Result = _vsscanf_l(_Buffer, _Format, NULL, _ArgList);
; 2252 :         __crt_va_end(_ArgList);
; 2253 :         return _Result;
; 2254 :     }

  00023	5d		 pop	 ebp
  00024	c3		 ret	 0
_sscanf	ENDP
_TEXT	ENDS
; Function compile flags: /Ogtp
; File C:\Program Files (x86)\Windows Kits\10\Include\10.0.26100.0\ucrt\stdio.h
;	COMDAT __snprintf
_TEXT	SEGMENT
__Buffer$ = 8						; size = 4
__BufferCount$ = 12					; size = 4
__Format$ = 16						; size = 4
__snprintf PROC						; COMDAT

; 1947 :     {

  00000	55		 push	 ebp
  00001	8b ec		 mov	 ebp, esp

; 1392 :         int const _Result = __stdio_common_vsprintf(

  00003	8d 45 14	 lea	 eax, DWORD PTR __Format$[ebp+4]
  00006	50		 push	 eax
  00007	6a 00		 push	 0
  00009	ff 75 10	 push	 DWORD PTR __Format$[ebp]
  0000c	ff 75 0c	 push	 DWORD PTR __BufferCount$[ebp]
  0000f	ff 75 08	 push	 DWORD PTR __Buffer$[ebp]
  00012	e8 00 00 00 00	 call	 ___local_stdio_printf_options
  00017	8b 08		 mov	 ecx, DWORD PTR [eax]
  00019	ff 70 04	 push	 DWORD PTR [eax+4]
  0001c	83 c9 01	 or	 ecx, 1
  0001f	51		 push	 ecx
  00020	e8 00 00 00 00	 call	 ___stdio_common_vsprintf

; 1393 :             _CRT_INTERNAL_LOCAL_PRINTF_OPTIONS | _CRT_INTERNAL_PRINTF_LEGACY_VSPRINTF_NULL_TERMINATION,
; 1394 :             _Buffer, _BufferCount, _Format, _Locale, _ArgList);
; 1395 : 
; 1396 :         return _Result < 0 ? -1 : _Result;

  00025	83 c9 ff	 or	 ecx, -1
  00028	83 c4 1c	 add	 esp, 28			; 0000001cH
  0002b	85 c0		 test	 eax, eax
  0002d	0f 48 c1	 cmovs	 eax, ecx

; 1948 :         int _Result;
; 1949 :         va_list _ArgList;
; 1950 :         __crt_va_start(_ArgList, _Format);
; 1951 :         _Result = _vsnprintf(_Buffer, _BufferCount, _Format, _ArgList);
; 1952 :         __crt_va_end(_ArgList);
; 1953 :         return _Result;
; 1954 :     }

  00030	5d		 pop	 ebp
  00031	c3		 ret	 0
__snprintf ENDP
_TEXT	ENDS
; Function compile flags: /Ogtp
; File C:\Program Files (x86)\Windows Kits\10\Include\10.0.26100.0\ucrt\stdio.h
;	COMDAT __vsnprintf
_TEXT	SEGMENT
__Buffer$ = 8						; size = 4
__BufferCount$ = 12					; size = 4
__Format$ = 16						; size = 4
__ArgList$ = 20						; size = 4
__vsnprintf PROC					; COMDAT

; 1411 :     {

  00000	55		 push	 ebp
  00001	8b ec		 mov	 ebp, esp

; 1392 :         int const _Result = __stdio_common_vsprintf(

  00003	ff 75 14	 push	 DWORD PTR __ArgList$[ebp]
  00006	6a 00		 push	 0
  00008	ff 75 10	 push	 DWORD PTR __Format$[ebp]
  0000b	ff 75 0c	 push	 DWORD PTR __BufferCount$[ebp]
  0000e	ff 75 08	 push	 DWORD PTR __Buffer$[ebp]
  00011	e8 00 00 00 00	 call	 ___local_stdio_printf_options
  00016	8b 08		 mov	 ecx, DWORD PTR [eax]
  00018	ff 70 04	 push	 DWORD PTR [eax+4]
  0001b	83 c9 01	 or	 ecx, 1
  0001e	51		 push	 ecx
  0001f	e8 00 00 00 00	 call	 ___stdio_common_vsprintf

; 1393 :             _CRT_INTERNAL_LOCAL_PRINTF_OPTIONS | _CRT_INTERNAL_PRINTF_LEGACY_VSPRINTF_NULL_TERMINATION,
; 1394 :             _Buffer, _BufferCount, _Format, _Locale, _ArgList);
; 1395 : 
; 1396 :         return _Result < 0 ? -1 : _Result;

  00024	83 c9 ff	 or	 ecx, -1
  00027	83 c4 1c	 add	 esp, 28			; 0000001cH
  0002a	85 c0		 test	 eax, eax
  0002c	0f 48 c1	 cmovs	 eax, ecx

; 1412 :         return _vsnprintf_l(_Buffer, _BufferCount, _Format, NULL, _ArgList);
; 1413 :     }

  0002f	5d		 pop	 ebp
  00030	c3		 ret	 0
__vsnprintf ENDP
_TEXT	ENDS
; Function compile flags: /Ogtp
; File C:\Program Files (x86)\Windows Kits\10\Include\10.0.26100.0\ucrt\corecrt_stdio_config.h
;	COMDAT ___local_stdio_scanf_options
_TEXT	SEGMENT
___local_stdio_scanf_options PROC			; COMDAT

; 101  :         static unsigned __int64 _OptionsStorage;
; 102  :         return &_OptionsStorage;

  00000	b8 00 00 00 00	 mov	 eax, OFFSET ?_OptionsStorage@?1??__local_stdio_scanf_options@@9@4_KA ; `__local_stdio_scanf_options'::`2'::_OptionsStorage

; 103  :     }

  00005	c3		 ret	 0
___local_stdio_scanf_options ENDP
_TEXT	ENDS
; Function compile flags: /Ogtp
; File C:\Program Files (x86)\Windows Kits\10\Include\10.0.26100.0\ucrt\corecrt_stdio_config.h
;	COMDAT ___local_stdio_printf_options
_TEXT	SEGMENT
___local_stdio_printf_options PROC			; COMDAT

; 91   :         static unsigned __int64 _OptionsStorage;
; 92   :         return &_OptionsStorage;

  00000	b8 00 00 00 00	 mov	 eax, OFFSET ?_OptionsStorage@?1??__local_stdio_printf_options@@9@4_KA ; `__local_stdio_printf_options'::`2'::_OptionsStorage

; 93   :     }

  00005	c3		 ret	 0
___local_stdio_printf_options ENDP
_TEXT	ENDS
; Function compile flags: /Ogtp
; File C:\IAGOS\server\v18\Source\Source\_DirectX\dxutil.cpp
;	COMDAT ?__empty_global_delete@@YAXPAXI@Z
_TEXT	SEGMENT
___formal$ = 8						; size = 4
___formal$ = 12						; size = 4
?__empty_global_delete@@YAXPAXI@Z PROC			; __empty_global_delete, COMDAT

  00000	c2 00 00	 ret	 0
?__empty_global_delete@@YAXPAXI@Z ENDP			; __empty_global_delete
_TEXT	ENDS
; Function compile flags: /Ogtp
; File C:\IAGOS\server\v18\Source\Source\_DirectX\dxutil.cpp
;	COMDAT ?__empty_global_delete@@YAXPAX@Z
_TEXT	SEGMENT
___formal$ = 8						; size = 4
?__empty_global_delete@@YAXPAX@Z PROC			; __empty_global_delete, COMDAT

  00000	c2 00 00	 ret	 0
?__empty_global_delete@@YAXPAX@Z ENDP			; __empty_global_delete
_TEXT	ENDS
END
