; Listing generated by Microsoft (R) Optimizing Compiler Version 19.44.35225.0 

	TITLE	C:\IAGOS\server\v18\Source\Output\WorldServer\Release\Environment.obj
	.686P
	.XMM
	include listing.inc
	.model	flat

INCLUDELIB LIBCMT
INCLUDELIB OLDNAMES

PUBLIC	?__empty_global_delete@@YAXPAX@Z		; __empty_global_delete
PUBLIC	?__empty_global_delete@@YAXPAXI@Z		; __empty_global_delete
PUBLIC	??1CTimer@@UAE@XZ				; CTimer::~CTimer
PUBLIC	??_GCTimer@@UAEPAXI@Z				; CTimer::`scalar deleting destructor'
PUBLIC	?GetInstance@CEnvironment@@SAPAV1@XZ		; CEnvironment::GetInstance
PUBLIC	?LoadScript@CEnvironment@@QAEHXZ		; CEnvironment::LoadScript
PUBLIC	?GetSeason@CEnvironment@@QAEHXZ			; CEnvironment::GetSeason
PUBLIC	??0CEnvironment@@QAE@XZ				; CEnvironment::CEnvironment
PUBLIC	??1CEnvironment@@QAE@XZ				; CEnvironment::~CEnvironment
PUBLIC	?Serialize@CEnvironment@@QAEXAAVCAr@@@Z		; CEnvironment::Serialize
PUBLIC	??$?6H@CAr@@QAEAAV0@ABH@Z			; CAr::operator<<<int>
PUBLIC	??$?5H@CAr@@QAEAAV0@AAH@Z			; CAr::operator>><int>
PUBLIC	??_7CTimer@@6B@					; CTimer::`vftable'
PUBLIC	??_R4CTimer@@6B@				; CTimer::`RTTI Complete Object Locator'
PUBLIC	??_R0?AVCTimer@@@8				; CTimer `RTTI Type Descriptor'
PUBLIC	??_R3CTimer@@8					; CTimer::`RTTI Class Hierarchy Descriptor'
PUBLIC	??_R2CTimer@@8					; CTimer::`RTTI Base Class Array'
PUBLIC	??_R1A@?0A@EA@CTimer@@8				; CTimer::`RTTI Base Class Descriptor at (0,-1,0,64)'
PUBLIC	??_C@_0BG@PALCMIAP@EnvironmentEffect?4txt@	; `string'
PUBLIC	??_C@_0CO@IHIBBPKI@CEnvironment?3?3LoadScript?5?9?5Scri@ ; `string'
PUBLIC	??_C@_0CP@BHICJMEK@CEnvironment?3?3LoadScript?5?9?5Inva@ ; `string'
PUBLIC	??_C@_0DB@NPEEJGOE@CEnvironment?3?3LoadScript?5?9?5Inva@ ; `string'
PUBLIC	??_C@_0DI@GDGAFJBD@CEnvironment?3?3GetSeason?5?9?5Inval@ ; `string'
EXTRN	??3@YAXPAXI@Z:PROC				; operator delete
EXTRN	_atexit:PROC
EXTRN	__Init_thread_header:PROC
EXTRN	__Init_thread_abort:PROC
EXTRN	__Init_thread_footer:PROC
EXTRN	__localtime64_s:PROC
EXTRN	__time64:PROC
EXTRN	?AfxThrowMemoryException@@YGXXZ:PROC		; AfxThrowMemoryException
EXTRN	?AfxThrowOleException@@YGXJ@Z:PROC		; AfxThrowOleException
EXTRN	??0CTimer@@QAE@XZ:PROC				; CTimer::CTimer
EXTRN	?Set@CTimer@@QAEXMH@Z:PROC			; CTimer::Set
EXTRN	?Reset@CTimer@@UAEXXZ:PROC			; CTimer::Reset
EXTRN	?Over@CTimer@@UAEHXZ:PROC			; CTimer::Over
EXTRN	??_ECTimer@@UAEPAXI@Z:PROC			; CTimer::`vector deleting destructor'
EXTRN	?GetNumber@CScanner@@QAEHH@Z:PROC		; CScanner::GetNumber
EXTRN	??0CScript@@QAE@H@Z:PROC			; CScript::CScript
EXTRN	??1CScript@@UAE@XZ:PROC				; CScript::~CScript
EXTRN	?Load@CScript@@QAEHPBDHH@Z:PROC			; CScript::Load
EXTRN	?Error@@YAPBDPBDZZ:PROC				; Error
EXTRN	?GetLanguage@@YAHXZ:PROC			; GetLanguage
EXTRN	?CheckBuf@CAr@@QAEXI@Z:PROC			; CAr::CheckBuf
EXTRN	@__security_check_cookie@4:PROC
EXTRN	___CxxFrameHandler3:PROC
EXTRN	_memset:PROC
EXTRN	__Init_thread_epoch:DWORD
EXTRN	??_7type_info@@6B@:QWORD			; type_info::`vftable'
EXTRN	___security_cookie:DWORD
EXTRN	__fltused:DWORD
EXTRN	__tls_array:DWORD
EXTRN	__tls_index:DWORD
;	COMDAT ?sEnvironment@?1??GetInstance@CEnvironment@@SAPAV2@XZ@4V2@A
_BSS	SEGMENT
?sEnvironment@?1??GetInstance@CEnvironment@@SAPAV2@XZ@4V2@A DB 02f8H DUP (?) ; `CEnvironment::GetInstance'::`2'::sEnvironment
_BSS	ENDS
;	COMDAT ?$TSS0@?1??GetInstance@CEnvironment@@SAPAV2@XZ@4HA
_BSS	SEGMENT
?$TSS0@?1??GetInstance@CEnvironment@@SAPAV2@XZ@4HA DD 01H DUP (?) ; `CEnvironment::GetInstance'::`2'::$TSS0
_BSS	ENDS
;	COMDAT ??_C@_0DI@GDGAFJBD@CEnvironment?3?3GetSeason?5?9?5Inval@
CONST	SEGMENT
??_C@_0DI@GDGAFJBD@CEnvironment?3?3GetSeason?5?9?5Inval@ DB 'CEnvironment'
	DB	'::GetSeason - Invalid argument. Lang : [%d]', 00H ; `string'
CONST	ENDS
;	COMDAT ??_C@_0DB@NPEEJGOE@CEnvironment?3?3LoadScript?5?9?5Inva@
CONST	SEGMENT
??_C@_0DB@NPEEJGOE@CEnvironment?3?3LoadScript?5?9?5Inva@ DB 'CEnvironment'
	DB	'::LoadScript - Invalid Season : %[d]', 00H	; `string'
CONST	ENDS
;	COMDAT ??_C@_0CP@BHICJMEK@CEnvironment?3?3LoadScript?5?9?5Inva@
CONST	SEGMENT
??_C@_0CP@BHICJMEK@CEnvironment?3?3LoadScript?5?9?5Inva@ DB 'CEnvironment'
	DB	'::LoadScript - Invalid Lang : %[d]', 00H	; `string'
CONST	ENDS
;	COMDAT ??_C@_0CO@IHIBBPKI@CEnvironment?3?3LoadScript?5?9?5Scri@
CONST	SEGMENT
??_C@_0CO@IHIBBPKI@CEnvironment?3?3LoadScript?5?9?5Scri@ DB 'CEnvironment'
	DB	'::LoadScript - Script Load Failed', 00H	; `string'
CONST	ENDS
;	COMDAT ??_C@_0BG@PALCMIAP@EnvironmentEffect?4txt@
CONST	SEGMENT
??_C@_0BG@PALCMIAP@EnvironmentEffect?4txt@ DB 'EnvironmentEffect.txt', 00H ; `string'
CONST	ENDS
;	COMDAT ??_R1A@?0A@EA@CTimer@@8
rdata$r	SEGMENT
??_R1A@?0A@EA@CTimer@@8 DD FLAT:??_R0?AVCTimer@@@8	; CTimer::`RTTI Base Class Descriptor at (0,-1,0,64)'
	DD	00H
	DD	00H
	DD	0ffffffffH
	DD	00H
	DD	040H
	DD	FLAT:??_R3CTimer@@8
rdata$r	ENDS
;	COMDAT ??_R2CTimer@@8
rdata$r	SEGMENT
??_R2CTimer@@8 DD FLAT:??_R1A@?0A@EA@CTimer@@8		; CTimer::`RTTI Base Class Array'
rdata$r	ENDS
;	COMDAT ??_R3CTimer@@8
rdata$r	SEGMENT
??_R3CTimer@@8 DD 00H					; CTimer::`RTTI Class Hierarchy Descriptor'
	DD	00H
	DD	01H
	DD	FLAT:??_R2CTimer@@8
rdata$r	ENDS
;	COMDAT ??_R0?AVCTimer@@@8
data$rs	SEGMENT
??_R0?AVCTimer@@@8 DD FLAT:??_7type_info@@6B@		; CTimer `RTTI Type Descriptor'
	DD	00H
	DB	'.?AVCTimer@@', 00H
data$rs	ENDS
;	COMDAT ??_R4CTimer@@6B@
rdata$r	SEGMENT
??_R4CTimer@@6B@ DD 00H					; CTimer::`RTTI Complete Object Locator'
	DD	00H
	DD	00H
	DD	FLAT:??_R0?AVCTimer@@@8
	DD	FLAT:??_R3CTimer@@8
rdata$r	ENDS
;	COMDAT ??_7CTimer@@6B@
CONST	SEGMENT
??_7CTimer@@6B@ DD FLAT:??_R4CTimer@@6B@		; CTimer::`vftable'
	DD	FLAT:??_ECTimer@@UAEPAXI@Z
	DD	FLAT:?Reset@CTimer@@UAEXXZ
	DD	FLAT:?Over@CTimer@@UAEHXZ
CONST	ENDS
;	COMDAT xdata$x
xdata$x	SEGMENT
__unwindtable$??0CEnvironment@@QAE@XZ DD 0ffffffffH
	DD	FLAT:__unwindfunclet$??0CEnvironment@@QAE@XZ$0
__ehfuncinfo$??0CEnvironment@@QAE@XZ DD 019930522H
	DD	01H
	DD	FLAT:__unwindtable$??0CEnvironment@@QAE@XZ
	DD	2 DUP(00H)
	DD	2 DUP(00H)
	DD	00H
	DD	01H
xdata$x	ENDS
;	COMDAT xdata$x
xdata$x	SEGMENT
__unwindtable$?LoadScript@CEnvironment@@QAEHXZ DD 0ffffffffH
	DD	FLAT:__unwindfunclet$?LoadScript@CEnvironment@@QAEHXZ$0
__ehfuncinfo$?LoadScript@CEnvironment@@QAEHXZ DD 019930522H
	DD	01H
	DD	FLAT:__unwindtable$?LoadScript@CEnvironment@@QAEHXZ
	DD	2 DUP(00H)
	DD	2 DUP(00H)
	DD	00H
	DD	01H
xdata$x	ENDS
;	COMDAT xdata$x
xdata$x	SEGMENT
__unwindtable$?GetInstance@CEnvironment@@SAPAV1@XZ DD 0ffffffffH
	DD	FLAT:__unwindfunclet$?GetInstance@CEnvironment@@SAPAV1@XZ$0
__ehfuncinfo$?GetInstance@CEnvironment@@SAPAV1@XZ DD 019930522H
	DD	01H
	DD	FLAT:__unwindtable$?GetInstance@CEnvironment@@SAPAV1@XZ
	DD	2 DUP(00H)
	DD	2 DUP(00H)
	DD	00H
	DD	01H
xdata$x	ENDS
; Function compile flags: /Ogtp
; File C:\IAGOS\server\v18\Source\Source\_Network\Misc\Include\ar.h
;	COMDAT ??$?5H@CAr@@QAEAAV0@AAH@Z
_TEXT	SEGMENT
_t$ = 8							; size = 4
??$?5H@CAr@@QAEAAV0@AAH@Z PROC				; CAr::operator>><int>, COMDAT
; _this$ = ecx

; 302  : {

  00000	55		 push	 ebp
  00001	8b ec		 mov	 ebp, esp
  00003	8b d1		 mov	 edx, ecx

; 303  : 	if (m_lpBufCur + sizeof(T) <= m_lpBufMax)

  00005	8b 4a 08	 mov	 ecx, DWORD PTR [edx+8]
  00008	8d 41 04	 lea	 eax, DWORD PTR [ecx+4]
  0000b	3b 42 0c	 cmp	 eax, DWORD PTR [edx+12]
  0000e	8b 45 08	 mov	 eax, DWORD PTR _t$[ebp]
  00011	77 0e		 ja	 SHORT $LN2@operator

; 304  : 	{
; 305  : 		t = *(UNALIGNED T*)m_lpBufCur;

  00013	8b 09		 mov	 ecx, DWORD PTR [ecx]
  00015	89 08		 mov	 DWORD PTR [eax], ecx

; 312  : 	}
; 313  : 	return *this;
; 314  : }

  00017	8b c2		 mov	 eax, edx
  00019	83 42 08 04	 add	 DWORD PTR [edx+8], 4
  0001d	5d		 pop	 ebp
  0001e	c2 04 00	 ret	 4
$LN2@operator:

; 306  : 		m_lpBufCur += sizeof(T);
; 307  : 	}
; 308  : 	else
; 309  : 	{
; 310  : 		t = T();

  00021	c7 00 00 00 00
	00		 mov	 DWORD PTR [eax], 0

; 311  : 		m_lpBufCur = m_lpBufMax;

  00027	8b 42 0c	 mov	 eax, DWORD PTR [edx+12]
  0002a	89 42 08	 mov	 DWORD PTR [edx+8], eax

; 312  : 	}
; 313  : 	return *this;
; 314  : }

  0002d	8b c2		 mov	 eax, edx
  0002f	5d		 pop	 ebp
  00030	c2 04 00	 ret	 4
??$?5H@CAr@@QAEAAV0@AAH@Z ENDP				; CAr::operator>><int>
_TEXT	ENDS
; Function compile flags: /Ogtp
; File C:\IAGOS\server\v18\Source\Source\_Network\Misc\Include\ar.h
;	COMDAT ??$?6H@CAr@@QAEAAV0@ABH@Z
_TEXT	SEGMENT
_t$ = 8							; size = 4
??$?6H@CAr@@QAEAAV0@ABH@Z PROC				; CAr::operator<<<int>, COMDAT
; _this$ = ecx

; 255  : {

  00000	55		 push	 ebp
  00001	8b ec		 mov	 ebp, esp
  00003	56		 push	 esi

; 256  : 	CheckBuf(sizeof(T));

  00004	6a 04		 push	 4
  00006	8b f1		 mov	 esi, ecx
  00008	e8 00 00 00 00	 call	 ?CheckBuf@CAr@@QAEXI@Z	; CAr::CheckBuf

; 257  : 	*(UNALIGNED T*)m_lpBufCur = t;

  0000d	8b 56 08	 mov	 edx, DWORD PTR [esi+8]
  00010	8b 45 08	 mov	 eax, DWORD PTR _t$[ebp]
  00013	8b 00		 mov	 eax, DWORD PTR [eax]
  00015	89 02		 mov	 DWORD PTR [edx], eax

; 258  : 	m_lpBufCur += sizeof(T);
; 259  : 	return *this;

  00017	8b c6		 mov	 eax, esi
  00019	83 46 08 04	 add	 DWORD PTR [esi+8], 4
  0001d	5e		 pop	 esi

; 260  : }

  0001e	5d		 pop	 ebp
  0001f	c2 04 00	 ret	 4
??$?6H@CAr@@QAEAAV0@ABH@Z ENDP				; CAr::operator<<<int>
_TEXT	ENDS
; Function compile flags: /Ogtp
;	COMDAT ??__FsEnvironment@?1??GetInstance@CEnvironment@@SAPAV1@XZ@YAXXZ
text$yd	SEGMENT
??__FsEnvironment@?1??GetInstance@CEnvironment@@SAPAV1@XZ@YAXXZ PROC ; `CEnvironment::GetInstance'::`2'::`dynamic atexit destructor for 'sEnvironment'', COMDAT
  00000	b9 00 00 00 00	 mov	 ecx, OFFSET ?sEnvironment@?1??GetInstance@CEnvironment@@SAPAV2@XZ@4V2@A
  00005	e9 00 00 00 00	 jmp	 ??1CEnvironment@@QAE@XZ	; CEnvironment::~CEnvironment
??__FsEnvironment@?1??GetInstance@CEnvironment@@SAPAV1@XZ@YAXXZ ENDP ; `CEnvironment::GetInstance'::`2'::`dynamic atexit destructor for 'sEnvironment''
text$yd	ENDS
; Function compile flags: /Ogtp
; File C:\IAGOS\server\v18\Source\Source\_Common\Environment.cpp
; File C:\IAGOS\server\v18\Source\Source\_Network\Misc\Include\ar.h
; File C:\IAGOS\server\v18\Source\Source\_Common\Environment.cpp
;	COMDAT ?Serialize@CEnvironment@@QAEXAAVCAr@@@Z
_TEXT	SEGMENT
_ar$ = 8						; size = 4
?Serialize@CEnvironment@@QAEXAAVCAr@@@Z PROC		; CEnvironment::Serialize, COMDAT
; _this$ = ecx

; 140  : {

  00000	55		 push	 ebp
  00001	8b ec		 mov	 ebp, esp
; File C:\IAGOS\server\v18\Source\Source\_Network\Misc\Include\ar.h

; 146  : 	return (m_nMode & CAr::load) == 0;

  00003	8d 81 d0 02 00
	00		 lea	 eax, DWORD PTR [ecx+720]
  00009	8b 4d 08	 mov	 ecx, DWORD PTR _ar$[ebp]
  0000c	f6 01 01	 test	 BYTE PTR [ecx], 1
; File C:\IAGOS\server\v18\Source\Source\_Common\Environment.cpp

; 141  : 	if( ar.IsStoring() )

  0000f	75 09		 jne	 SHORT $LN2@Serialize

; 142  : 	{
; 143  : #ifdef __ENVIRONMENT_EFFECT
; 144  : 		ar << m_bEffect;

  00011	89 45 08	 mov	 DWORD PTR _ar$[ebp], eax

; 154  : #else // __ENVIRONMENT_EFFECT
; 155  : 		ar >> m_bRain;
; 156  : 		ar >> m_bSnow;
; 157  : #endif // __ENVIRONMENT_EFFECT
; 158  : 	}
; 159  : }

  00014	5d		 pop	 ebp

; 142  : 	{
; 143  : #ifdef __ENVIRONMENT_EFFECT
; 144  : 		ar << m_bEffect;

  00015	e9 00 00 00 00	 jmp	 ??$?6H@CAr@@QAEAAV0@ABH@Z ; CAr::operator<<<int>
$LN2@Serialize:

; 145  : #else // __ENVIRONMENT_EFFECT
; 146  : 		ar << m_bRain;
; 147  : 		ar << m_bSnow;
; 148  : #endif // __ENVIRONMENT_EFFECT
; 149  : 	}
; 150  : 	else
; 151  : 	{
; 152  : #ifdef __ENVIRONMENT_EFFECT
; 153  : 		ar >> m_bEffect;

  0001a	89 45 08	 mov	 DWORD PTR _ar$[ebp], eax

; 154  : #else // __ENVIRONMENT_EFFECT
; 155  : 		ar >> m_bRain;
; 156  : 		ar >> m_bSnow;
; 157  : #endif // __ENVIRONMENT_EFFECT
; 158  : 	}
; 159  : }

  0001d	5d		 pop	 ebp

; 145  : #else // __ENVIRONMENT_EFFECT
; 146  : 		ar << m_bRain;
; 147  : 		ar << m_bSnow;
; 148  : #endif // __ENVIRONMENT_EFFECT
; 149  : 	}
; 150  : 	else
; 151  : 	{
; 152  : #ifdef __ENVIRONMENT_EFFECT
; 153  : 		ar >> m_bEffect;

  0001e	e9 00 00 00 00	 jmp	 ??$?5H@CAr@@QAEAAV0@AAH@Z ; CAr::operator>><int>
?Serialize@CEnvironment@@QAEXAAVCAr@@@Z ENDP		; CEnvironment::Serialize
_TEXT	ENDS
; Function compile flags: /Ogtp
; File C:\IAGOS\server\v18\Source\Source\_Common\Environment.cpp
;	COMDAT ??1CEnvironment@@QAE@XZ
_TEXT	SEGMENT
??1CEnvironment@@QAE@XZ PROC				; CEnvironment::~CEnvironment, COMDAT
; _this$ = ecx

; 54   : #ifdef __CORESERVER
; 55   : 	CloseWorkers();
; 56   : #endif // __CORESERVER
; 57   : }

  00000	c7 81 d8 02 00
	00 00 00 00 00	 mov	 DWORD PTR [ecx+728], OFFSET ??_7CTimer@@6B@
  0000a	c3		 ret	 0
??1CEnvironment@@QAE@XZ ENDP				; CEnvironment::~CEnvironment
_TEXT	ENDS
; Function compile flags: /Ogtp
; File C:\IAGOS\server\v18\Source\Source\_Common\Environment.cpp
;	COMDAT ??0CEnvironment@@QAE@XZ
_TEXT	SEGMENT
_this$ = -16						; size = 4
__$EHRec$ = -12						; size = 12
??0CEnvironment@@QAE@XZ PROC				; CEnvironment::CEnvironment, COMDAT
; _this$ = ecx

; 12   : {

  00000	55		 push	 ebp
  00001	8b ec		 mov	 ebp, esp
  00003	6a ff		 push	 -1
  00005	68 00 00 00 00	 push	 __ehhandler$??0CEnvironment@@QAE@XZ
  0000a	64 a1 00 00 00
	00		 mov	 eax, DWORD PTR fs:0
  00010	50		 push	 eax
  00011	51		 push	 ecx
  00012	56		 push	 esi
  00013	57		 push	 edi
  00014	a1 00 00 00 00	 mov	 eax, DWORD PTR ___security_cookie
  00019	33 c5		 xor	 eax, ebp
  0001b	50		 push	 eax
  0001c	8d 45 f4	 lea	 eax, DWORD PTR __$EHRec$[ebp]
  0001f	64 a3 00 00 00
	00		 mov	 DWORD PTR fs:0, eax
  00025	8b f9		 mov	 edi, ecx
  00027	89 7d f0	 mov	 DWORD PTR _this$[ebp], edi
  0002a	8d 8f d8 02 00
	00		 lea	 ecx, DWORD PTR [edi+728]
  00030	e8 00 00 00 00	 call	 ??0CTimer@@QAE@XZ	; CTimer::CTimer

; 13   : #ifdef __ENVIRONMENT_EFFECT
; 14   : 
; 15   : #ifdef __WORLDSERVER
; 16   : 	::memset( m_aEnvironmentEffect, 0, sizeof( m_aEnvironmentEffect ) );

  00035	68 d0 02 00 00	 push	 720			; 000002d0H
  0003a	6a 00		 push	 0
  0003c	57		 push	 edi
  0003d	c7 45 fc 00 00
	00 00		 mov	 DWORD PTR __$EHRec$[ebp+8], 0
  00044	e8 00 00 00 00	 call	 _memset
  00049	83 c4 0c	 add	 esp, 12			; 0000000cH

; 17   : #endif // __WORLDSERVER
; 18   : 
; 19   : #ifdef __CLIENT
; 20   : 	m_nSeason = SEASON_NONE;
; 21   : #endif // __CLIENT
; 22   : 
; 23   : 	m_bEffect = FALSE;

  0004c	c7 87 d0 02 00
	00 00 00 00 00	 mov	 DWORD PTR [edi+720], 0

; 24   : 	m_tEffectTime.Set( MIN( 60 ), TRUE );

  00056	6a 01		 push	 1
  00058	51		 push	 ecx
  00059	8d 8f d8 02 00
	00		 lea	 ecx, DWORD PTR [edi+728]
  0005f	c7 04 24 00 ba
	5b 4a		 mov	 DWORD PTR [esp], 1247525376 ; 4a5bba00H
  00066	e8 00 00 00 00	 call	 ?Set@CTimer@@QAEXMH@Z	; CTimer::Set

; 25   : 
; 26   : #else // __ENVIRONMENT_EFFECT
; 27   : 
; 28   : 	m_bRain = m_bSnow = FALSE;
; 29   : #ifdef __EVENTLUA_RAIN
; 30   : 	m_tRainTime.Set( MIN( 60 ) );
; 31   : #else // __EVENTLUA_RAIN
; 32   : #ifdef __RAIN_EVENT
; 33   : 	m_tRainTime.Set( MIN( 60 ) );
; 34   : #else // __RAIN_EVENT
; 35   : 	m_tRainTime.Set( MIN( 10 ) );
; 36   : #endif // __RAIN_EVENT
; 37   : #endif // __EVENTLUA_RAIN
; 38   : #ifdef __EVENTLUA_SNOW
; 39   : 	m_tSnowTime.Set( MIN( 60 ) );
; 40   : #else // __EVENTLUA_SNOW
; 41   : 	m_tSnowTime.Set( MIN( 10 ) );
; 42   : #endif // __EVENTLUA_SNOW
; 43   : 
; 44   : #endif // __ENVIRONMENT_EFFECT
; 45   : 
; 46   : #ifdef __CORESERVER
; 47   : 	m_Authority = FALSE;
; 48   : 	m_hWorker	= m_hCloseWorker	= NULL;
; 49   : #endif // __CORESERVER
; 50   : }

  0006b	8b c7		 mov	 eax, edi
  0006d	8b 4d f4	 mov	 ecx, DWORD PTR __$EHRec$[ebp]
  00070	64 89 0d 00 00
	00 00		 mov	 DWORD PTR fs:0, ecx
  00077	59		 pop	 ecx
  00078	5f		 pop	 edi
  00079	5e		 pop	 esi
  0007a	8b e5		 mov	 esp, ebp
  0007c	5d		 pop	 ebp
  0007d	c3		 ret	 0
_TEXT	ENDS
;	COMDAT text$x
text$x	SEGMENT
__unwindfunclet$??0CEnvironment@@QAE@XZ$0:
  00000	8b 4d f0	 mov	 ecx, DWORD PTR _this$[ebp]
  00003	81 c1 d8 02 00
	00		 add	 ecx, 728		; 000002d8H
  00009	e9 00 00 00 00	 jmp	 ??1CTimer@@UAE@XZ	; CTimer::~CTimer
  0000e	cc		 int	 3
  0000f	cc		 int	 3
  00010	cc		 int	 3
  00011	cc		 int	 3
  00012	cc		 int	 3
__ehhandler$??0CEnvironment@@QAE@XZ:
  00013	90		 npad	 1
  00014	90		 npad	 1
  00015	8b 54 24 08	 mov	 edx, DWORD PTR [esp+8]
  00019	8d 42 0c	 lea	 eax, DWORD PTR [edx+12]
  0001c	8b 4a f0	 mov	 ecx, DWORD PTR [edx-16]
  0001f	33 c8		 xor	 ecx, eax
  00021	e8 00 00 00 00	 call	 @__security_check_cookie@4
  00026	b8 00 00 00 00	 mov	 eax, OFFSET __ehfuncinfo$??0CEnvironment@@QAE@XZ
  0002b	e9 00 00 00 00	 jmp	 ___CxxFrameHandler3
text$x	ENDS
??0CEnvironment@@QAE@XZ ENDP				; CEnvironment::CEnvironment
; Function compile flags: /Ogtp
; File C:\IAGOS\server\v18\Source\Source\_Common\Environment.cpp
; File C:\Program Files\Microsoft Visual Studio\2022\Professional\VC\Tools\MSVC\14.44.35207\atlmfc\include\atltime.h
; File C:\IAGOS\server\v18\Source\Source\_Common\Environment.cpp
; File C:\Program Files\Microsoft Visual Studio\2022\Professional\VC\Tools\MSVC\14.44.35207\atlmfc\include\atltime.h
; File C:\IAGOS\server\v18\Source\Source\_Common\Environment.cpp
; File C:\Program Files\Microsoft Visual Studio\2022\Professional\VC\Tools\MSVC\14.44.35207\atlmfc\include\atltime.h
; File C:\IAGOS\server\v18\Source\Source\_Common\Environment.cpp
; File C:\Program Files\Microsoft Visual Studio\2022\Professional\VC\Tools\MSVC\14.44.35207\atlmfc\include\atltime.h
; File C:\IAGOS\server\v18\Source\Source\_Common\Environment.cpp
;	COMDAT ?GetSeason@CEnvironment@@QAEHXZ
_TEXT	SEGMENT
_ttm$1 = -84						; size = 36
_timeCurr$ = -48					; size = 8
_ptmTemp$2 = -40					; size = 36
__$ArrayPad$ = -4					; size = 4
?GetSeason@CEnvironment@@QAEHXZ PROC			; CEnvironment::GetSeason, COMDAT
; _this$ = ecx

; 107  : {

  00000	55		 push	 ebp
  00001	8b ec		 mov	 ebp, esp
  00003	83 ec 54	 sub	 esp, 84			; 00000054H
  00006	a1 00 00 00 00	 mov	 eax, DWORD PTR ___security_cookie
  0000b	33 c5		 xor	 eax, ebp
  0000d	89 45 fc	 mov	 DWORD PTR __$ArrayPad$[ebp], eax
  00010	56		 push	 esi
  00011	57		 push	 edi
  00012	8b f9		 mov	 edi, ecx

; 108  : 	int nLang = ::GetLanguage();

  00014	e8 00 00 00 00	 call	 ?GetLanguage@@YAHXZ	; GetLanguage
  00019	8b f0		 mov	 esi, eax

; 109  : 
; 110  : 	if( nLang < 0 || nLang >= LANG_MAX )

  0001b	83 fe 0e	 cmp	 esi, 14			; 0000000eH
  0001e	77 7b		 ja	 SHORT $LN3@GetSeason
; File C:\Program Files\Microsoft Visual Studio\2022\Professional\VC\Tools\MSVC\14.44.35207\atlmfc\include\atltime.h

; 377  : 	return( CTime( ::_time64( NULL ) ) );

  00020	6a 00		 push	 0
  00022	e8 00 00 00 00	 call	 __time64

; 420  : 	m_time( time )

  00027	89 45 d0	 mov	 DWORD PTR _timeCurr$[ebp], eax

; 617  : 		errno_t err = _localtime64_s(&ptmTemp, &m_time);

  0002a	8d 45 d0	 lea	 eax, DWORD PTR _timeCurr$[ebp]
  0002d	50		 push	 eax
  0002e	8d 45 d8	 lea	 eax, DWORD PTR _ptmTemp$2[ebp]

; 420  : 	m_time( time )

  00031	89 55 d4	 mov	 DWORD PTR _timeCurr$[ebp+4], edx

; 617  : 		errno_t err = _localtime64_s(&ptmTemp, &m_time);

  00034	50		 push	 eax
  00035	e8 00 00 00 00	 call	 __localtime64_s
  0003a	83 c4 0c	 add	 esp, 12			; 0000000cH

; 618  : 
; 619  : 		if (err != 0)

  0003d	85 c0		 test	 eax, eax
  0003f	75 3a		 jne	 SHORT $LN11@GetSeason

; 624  : 		*ptm = ptmTemp;

  00041	0f 10 45 d8	 movups	 xmm0, XMMWORD PTR _ptmTemp$2[ebp]
  00045	8b 45 f8	 mov	 eax, DWORD PTR _ptmTemp$2[ebp+32]

; 625  : 		return ptm;

  00048	8d 4d ac	 lea	 ecx, DWORD PTR _ttm$1[ebp]
  0004b	89 45 cc	 mov	 DWORD PTR _ttm$1[ebp+32], eax
; File C:\IAGOS\server\v18\Source\Source\_Common\Environment.cpp

; 119  : 	return m_aEnvironmentEffect[nLang][nMonth - 1];

  0004e	8d 04 76	 lea	 eax, DWORD PTR [esi+esi*2]
; File C:\Program Files\Microsoft Visual Studio\2022\Professional\VC\Tools\MSVC\14.44.35207\atlmfc\include\atltime.h

; 624  : 		*ptm = ptmTemp;

  00051	0f 11 45 ac	 movups	 XMMWORD PTR _ttm$1[ebp], xmm0
; File C:\IAGOS\server\v18\Source\Source\_Common\Environment.cpp

; 119  : 	return m_aEnvironmentEffect[nLang][nMonth - 1];

  00055	c1 e0 04	 shl	 eax, 4
; File C:\Program Files\Microsoft Visual Studio\2022\Professional\VC\Tools\MSVC\14.44.35207\atlmfc\include\atltime.h

; 624  : 		*ptm = ptmTemp;

  00058	0f 10 45 e8	 movups	 xmm0, XMMWORD PTR _ptmTemp$2[ebp+16]
  0005c	0f 11 45 bc	 movups	 XMMWORD PTR _ttm$1[ebp+16], xmm0

; 674  : 	return ptm ? ptm->tm_mon + 1 : 0;

  00060	8b 49 10	 mov	 ecx, DWORD PTR [ecx+16]
  00063	c1 e1 02	 shl	 ecx, 2
; File C:\IAGOS\server\v18\Source\Source\_Common\Environment.cpp

; 119  : 	return m_aEnvironmentEffect[nLang][nMonth - 1];

  00066	03 c7		 add	 eax, edi
  00068	5f		 pop	 edi

; 120  : }

  00069	5e		 pop	 esi
  0006a	8b 04 08	 mov	 eax, DWORD PTR [eax+ecx]
  0006d	8b 4d fc	 mov	 ecx, DWORD PTR __$ArrayPad$[ebp]
  00070	33 cd		 xor	 ecx, ebp
  00072	e8 00 00 00 00	 call	 @__security_check_cookie@4
  00077	8b e5		 mov	 esp, ebp
  00079	5d		 pop	 ebp
  0007a	c3		 ret	 0
$LN11@GetSeason:

; 119  : 	return m_aEnvironmentEffect[nLang][nMonth - 1];

  0007b	8d 04 76	 lea	 eax, DWORD PTR [esi+esi*2]
; File C:\Program Files\Microsoft Visual Studio\2022\Professional\VC\Tools\MSVC\14.44.35207\atlmfc\include\atltime.h

; 674  : 	return ptm ? ptm->tm_mon + 1 : 0;

  0007e	b9 fc ff ff ff	 mov	 ecx, -4			; fffffffcH
; File C:\IAGOS\server\v18\Source\Source\_Common\Environment.cpp

; 119  : 	return m_aEnvironmentEffect[nLang][nMonth - 1];

  00083	c1 e0 04	 shl	 eax, 4
  00086	03 c7		 add	 eax, edi
  00088	5f		 pop	 edi

; 120  : }

  00089	5e		 pop	 esi
  0008a	8b 04 08	 mov	 eax, DWORD PTR [eax+ecx]
  0008d	8b 4d fc	 mov	 ecx, DWORD PTR __$ArrayPad$[ebp]
  00090	33 cd		 xor	 ecx, ebp
  00092	e8 00 00 00 00	 call	 @__security_check_cookie@4
  00097	8b e5		 mov	 esp, ebp
  00099	5d		 pop	 ebp
  0009a	c3		 ret	 0
$LN3@GetSeason:

; 111  : 	{
; 112  : 		Error( "CEnvironment::GetSeason - Invalid argument. Lang : [%d]", nLang );

  0009b	56		 push	 esi
  0009c	68 00 00 00 00	 push	 OFFSET ??_C@_0DI@GDGAFJBD@CEnvironment?3?3GetSeason?5?9?5Inval@
  000a1	e8 00 00 00 00	 call	 ?Error@@YAPBDPBDZZ	; Error

; 120  : }

  000a6	8b 4d fc	 mov	 ecx, DWORD PTR __$ArrayPad$[ebp]
  000a9	83 c4 08	 add	 esp, 8
  000ac	33 cd		 xor	 ecx, ebp
  000ae	33 c0		 xor	 eax, eax
  000b0	5f		 pop	 edi
  000b1	5e		 pop	 esi
  000b2	e8 00 00 00 00	 call	 @__security_check_cookie@4
  000b7	8b e5		 mov	 esp, ebp
  000b9	5d		 pop	 ebp
  000ba	c3		 ret	 0
?GetSeason@CEnvironment@@QAEHXZ ENDP			; CEnvironment::GetSeason
_TEXT	ENDS
; Function compile flags: /Ogtp
; File C:\IAGOS\server\v18\Source\Source\_Common\Environment.cpp
;	COMDAT ?LoadScript@CEnvironment@@QAEHXZ
_TEXT	SEGMENT
_scanner$ = -3576					; size = 3560
__$ArrayPad$ = -16					; size = 4
__$EHRec$ = -12						; size = 12
?LoadScript@CEnvironment@@QAEHXZ PROC			; CEnvironment::LoadScript, COMDAT
; _this$ = ecx

; 71   : {

  00000	55		 push	 ebp
  00001	8b ec		 mov	 ebp, esp
  00003	6a ff		 push	 -1
  00005	68 00 00 00 00	 push	 __ehhandler$?LoadScript@CEnvironment@@QAEHXZ
  0000a	64 a1 00 00 00
	00		 mov	 eax, DWORD PTR fs:0
  00010	50		 push	 eax
  00011	81 ec ec 0d 00
	00		 sub	 esp, 3564		; 00000decH
  00017	a1 00 00 00 00	 mov	 eax, DWORD PTR ___security_cookie
  0001c	33 c5		 xor	 eax, ebp
  0001e	89 45 f0	 mov	 DWORD PTR __$ArrayPad$[ebp], eax
  00021	53		 push	 ebx
  00022	56		 push	 esi
  00023	57		 push	 edi
  00024	50		 push	 eax
  00025	8d 45 f4	 lea	 eax, DWORD PTR __$EHRec$[ebp]
  00028	64 a3 00 00 00
	00		 mov	 DWORD PTR fs:0, eax
  0002e	8b d9		 mov	 ebx, ecx

; 72   : 	CScript scanner;

  00030	6a 00		 push	 0
  00032	8d 8d 08 f2 ff
	ff		 lea	 ecx, DWORD PTR _scanner$[ebp]
  00038	e8 00 00 00 00	 call	 ??0CScript@@QAE@H@Z	; CScript::CScript

; 73   : 
; 74   : 	if( scanner.Load( "EnvironmentEffect.txt", FALSE ) == FALSE )

  0003d	6a 00		 push	 0
  0003f	6a 00		 push	 0
  00041	68 00 00 00 00	 push	 OFFSET ??_C@_0BG@PALCMIAP@EnvironmentEffect?4txt@
  00046	8d 8d 08 f2 ff
	ff		 lea	 ecx, DWORD PTR _scanner$[ebp]
  0004c	c7 45 fc 00 00
	00 00		 mov	 DWORD PTR __$EHRec$[ebp+8], 0
  00053	e8 00 00 00 00	 call	 ?Load@CScript@@QAEHPBDHH@Z ; CScript::Load
  00058	85 c0		 test	 eax, eax
  0005a	75 11		 jne	 SHORT $LN7@LoadScript

; 75   : 	{
; 76   : 		Error( "CEnvironment::LoadScript - Script Load Failed" );

  0005c	68 00 00 00 00	 push	 OFFSET ??_C@_0CO@IHIBBPKI@CEnvironment?3?3LoadScript?5?9?5Scri@
  00061	e8 00 00 00 00	 call	 ?Error@@YAPBDPBDZZ	; Error
  00066	83 c4 04	 add	 esp, 4
  00069	33 f6		 xor	 esi, esi
  0006b	eb 71		 jmp	 SHORT $LN16@LoadScript
$LN7@LoadScript:

; 77   : 		return FALSE;
; 78   : 	}
; 79   : 
; 80   : 	::memset( m_aEnvironmentEffect, 0, sizeof( m_aEnvironmentEffect ) );

  0006d	68 d0 02 00 00	 push	 720			; 000002d0H
  00072	6a 00		 push	 0
  00074	53		 push	 ebx
  00075	e8 00 00 00 00	 call	 _memset
  0007a	83 c4 0c	 add	 esp, 12			; 0000000cH

; 81   : 
; 82   : 	int nLang = scanner.GetNumber();

  0007d	8d 8d 08 f2 ff
	ff		 lea	 ecx, DWORD PTR _scanner$[ebp]
  00083	6a 00		 push	 0
  00085	e8 00 00 00 00	 call	 ?GetNumber@CScanner@@QAEHH@Z ; CScanner::GetNumber

; 83   : 	while( scanner.tok != FINISHED )

  0008a	83 bd 4c fa ff
	ff 15		 cmp	 DWORD PTR _scanner$[ebp+2116], 21 ; 00000015H
  00091	8b f8		 mov	 edi, eax
  00093	74 44		 je	 SHORT $LN3@LoadScript
$LL2@LoadScript:

; 84   : 	{
; 85   : 		if( nLang < 0 || nLang >= LANG_MAX )

  00095	83 ff 0e	 cmp	 edi, 14			; 0000000eH
  00098	77 7f		 ja	 SHORT $LN20@LoadScript

; 88   : 			return FALSE;
; 89   : 		}
; 90   : 
; 91   : 		for( int i = 0; i < 12; ++i )

  0009a	33 f6		 xor	 esi, esi
  0009c	0f 1f 40 00	 npad	 4
$LL6@LoadScript:

; 92   : 		{
; 93   : 			int nSeason = scanner.GetNumber();

  000a0	6a 00		 push	 0
  000a2	8d 8d 08 f2 ff
	ff		 lea	 ecx, DWORD PTR _scanner$[ebp]
  000a8	e8 00 00 00 00	 call	 ?GetNumber@CScanner@@QAEHH@Z ; CScanner::GetNumber

; 94   : 			if( nSeason < 0 || nSeason >= SEASON_MAX )

  000ad	83 f8 04	 cmp	 eax, 4
  000b0	77 55		 ja	 SHORT $LN19@LoadScript

; 97   : 				return FALSE;
; 98   : 			}
; 99   : 			m_aEnvironmentEffect[nLang][i] = nSeason;

  000b2	8d 0c 7f	 lea	 ecx, DWORD PTR [edi+edi*2]
  000b5	8d 0c 8e	 lea	 ecx, DWORD PTR [esi+ecx*4]
  000b8	46		 inc	 esi
  000b9	89 04 8b	 mov	 DWORD PTR [ebx+ecx*4], eax
  000bc	83 fe 0c	 cmp	 esi, 12			; 0000000cH
  000bf	7c df		 jl	 SHORT $LL6@LoadScript

; 100  : 		}
; 101  : 		nLang = scanner.GetNumber();

  000c1	6a 00		 push	 0
  000c3	8d 8d 08 f2 ff
	ff		 lea	 ecx, DWORD PTR _scanner$[ebp]
  000c9	e8 00 00 00 00	 call	 ?GetNumber@CScanner@@QAEHH@Z ; CScanner::GetNumber
  000ce	83 bd 4c fa ff
	ff 15		 cmp	 DWORD PTR _scanner$[ebp+2116], 21 ; 00000015H
  000d5	8b f8		 mov	 edi, eax
  000d7	75 bc		 jne	 SHORT $LL2@LoadScript
$LN3@LoadScript:

; 102  : 	}
; 103  : 	return TRUE;

  000d9	be 01 00 00 00	 mov	 esi, 1
$LN16@LoadScript:
  000de	8d 8d 08 f2 ff
	ff		 lea	 ecx, DWORD PTR _scanner$[ebp]
  000e4	e8 00 00 00 00	 call	 ??1CScript@@UAE@XZ	; CScript::~CScript
  000e9	8b c6		 mov	 eax, esi

; 104  : }

  000eb	8b 4d f4	 mov	 ecx, DWORD PTR __$EHRec$[ebp]
  000ee	64 89 0d 00 00
	00 00		 mov	 DWORD PTR fs:0, ecx
  000f5	59		 pop	 ecx
  000f6	5f		 pop	 edi
  000f7	5e		 pop	 esi
  000f8	5b		 pop	 ebx
  000f9	8b 4d f0	 mov	 ecx, DWORD PTR __$ArrayPad$[ebp]
  000fc	33 cd		 xor	 ecx, ebp
  000fe	e8 00 00 00 00	 call	 @__security_check_cookie@4
  00103	8b e5		 mov	 esp, ebp
  00105	5d		 pop	 ebp
  00106	c3		 ret	 0
$LN19@LoadScript:

; 95   : 			{
; 96   : 				Error( "CEnvironment::LoadScript - Invalid Season : %[d]", nSeason );

  00107	50		 push	 eax
  00108	68 00 00 00 00	 push	 OFFSET ??_C@_0DB@NPEEJGOE@CEnvironment?3?3LoadScript?5?9?5Inva@
  0010d	e8 00 00 00 00	 call	 ?Error@@YAPBDPBDZZ	; Error
  00112	83 c4 08	 add	 esp, 8
  00115	33 f6		 xor	 esi, esi
  00117	eb c5		 jmp	 SHORT $LN16@LoadScript
$LN20@LoadScript:

; 86   : 		{
; 87   : 			Error( "CEnvironment::LoadScript - Invalid Lang : %[d]", nLang );

  00119	57		 push	 edi
  0011a	68 00 00 00 00	 push	 OFFSET ??_C@_0CP@BHICJMEK@CEnvironment?3?3LoadScript?5?9?5Inva@
  0011f	e8 00 00 00 00	 call	 ?Error@@YAPBDPBDZZ	; Error
  00124	83 c4 08	 add	 esp, 8
  00127	33 f6		 xor	 esi, esi
  00129	eb b3		 jmp	 SHORT $LN16@LoadScript
_TEXT	ENDS
;	COMDAT text$x
text$x	SEGMENT
__unwindfunclet$?LoadScript@CEnvironment@@QAEHXZ$0:
  00000	8d 8d 08 f2 ff
	ff		 lea	 ecx, DWORD PTR _scanner$[ebp]
  00006	e9 00 00 00 00	 jmp	 ??1CScript@@UAE@XZ	; CScript::~CScript
  0000b	cc		 int	 3
  0000c	cc		 int	 3
  0000d	cc		 int	 3
  0000e	cc		 int	 3
  0000f	cc		 int	 3
__ehhandler$?LoadScript@CEnvironment@@QAEHXZ:
  00010	90		 npad	 1
  00011	90		 npad	 1
  00012	8b 54 24 08	 mov	 edx, DWORD PTR [esp+8]
  00016	8d 42 0c	 lea	 eax, DWORD PTR [edx+12]
  00019	8b 8a 04 f2 ff
	ff		 mov	 ecx, DWORD PTR [edx-3580]
  0001f	33 c8		 xor	 ecx, eax
  00021	e8 00 00 00 00	 call	 @__security_check_cookie@4
  00026	8b 4a fc	 mov	 ecx, DWORD PTR [edx-4]
  00029	33 c8		 xor	 ecx, eax
  0002b	e8 00 00 00 00	 call	 @__security_check_cookie@4
  00030	b8 00 00 00 00	 mov	 eax, OFFSET __ehfuncinfo$?LoadScript@CEnvironment@@QAEHXZ
  00035	e9 00 00 00 00	 jmp	 ___CxxFrameHandler3
text$x	ENDS
?LoadScript@CEnvironment@@QAEHXZ ENDP			; CEnvironment::LoadScript
; Function compile flags: /Ogtp
; File C:\IAGOS\server\v18\Source\Source\_Common\Environment.cpp
;	COMDAT ?GetInstance@CEnvironment@@SAPAV1@XZ
_TEXT	SEGMENT
__$EHRec$ = -12						; size = 12
?GetInstance@CEnvironment@@SAPAV1@XZ PROC		; CEnvironment::GetInstance, COMDAT

; 64   : {

  00000	55		 push	 ebp
  00001	8b ec		 mov	 ebp, esp
  00003	6a ff		 push	 -1
  00005	68 00 00 00 00	 push	 __ehhandler$?GetInstance@CEnvironment@@SAPAV1@XZ
  0000a	64 a1 00 00 00
	00		 mov	 eax, DWORD PTR fs:0
  00010	50		 push	 eax
  00011	a1 00 00 00 00	 mov	 eax, DWORD PTR ___security_cookie
  00016	33 c5		 xor	 eax, ebp
  00018	50		 push	 eax
  00019	8d 45 f4	 lea	 eax, DWORD PTR __$EHRec$[ebp]
  0001c	64 a3 00 00 00
	00		 mov	 DWORD PTR fs:0, eax

; 65   : 	static CEnvironment sEnvironment;

  00022	64 a1 00 00 00
	00		 mov	 eax, DWORD PTR fs:__tls_array
  00028	8b 0d 00 00 00
	00		 mov	 ecx, DWORD PTR __tls_index
  0002e	8b 0c 88	 mov	 ecx, DWORD PTR [eax+ecx*4]
  00031	a1 00 00 00 00	 mov	 eax, DWORD PTR ?$TSS0@?1??GetInstance@CEnvironment@@SAPAV2@XZ@4HA
  00036	3b 81 00 00 00
	00		 cmp	 eax, DWORD PTR __Init_thread_epoch[ecx]
  0003c	7f 14		 jg	 SHORT $LN9@GetInstanc
$LN5@GetInstanc:

; 66   : 	return & sEnvironment;
; 67   : }

  0003e	b8 00 00 00 00	 mov	 eax, OFFSET ?sEnvironment@?1??GetInstance@CEnvironment@@SAPAV2@XZ@4V2@A
  00043	8b 4d f4	 mov	 ecx, DWORD PTR __$EHRec$[ebp]
  00046	64 89 0d 00 00
	00 00		 mov	 DWORD PTR fs:0, ecx
  0004d	59		 pop	 ecx
  0004e	8b e5		 mov	 esp, ebp
  00050	5d		 pop	 ebp
  00051	c3		 ret	 0
$LN9@GetInstanc:

; 65   : 	static CEnvironment sEnvironment;

  00052	68 00 00 00 00	 push	 OFFSET ?$TSS0@?1??GetInstance@CEnvironment@@SAPAV2@XZ@4HA
  00057	e8 00 00 00 00	 call	 __Init_thread_header
  0005c	83 c4 04	 add	 esp, 4
  0005f	83 3d 00 00 00
	00 ff		 cmp	 DWORD PTR ?$TSS0@?1??GetInstance@CEnvironment@@SAPAV2@XZ@4HA, -1
  00066	75 d6		 jne	 SHORT $LN5@GetInstanc
  00068	b9 00 00 00 00	 mov	 ecx, OFFSET ?sEnvironment@?1??GetInstance@CEnvironment@@SAPAV2@XZ@4V2@A
  0006d	c7 45 fc 00 00
	00 00		 mov	 DWORD PTR __$EHRec$[ebp+8], 0
  00074	e8 00 00 00 00	 call	 ??0CEnvironment@@QAE@XZ	; CEnvironment::CEnvironment
  00079	68 00 00 00 00	 push	 OFFSET ??__FsEnvironment@?1??GetInstance@CEnvironment@@SAPAV1@XZ@YAXXZ ; `CEnvironment::GetInstance'::`2'::`dynamic atexit destructor for 'sEnvironment''
  0007e	e8 00 00 00 00	 call	 _atexit
  00083	68 00 00 00 00	 push	 OFFSET ?$TSS0@?1??GetInstance@CEnvironment@@SAPAV2@XZ@4HA
  00088	e8 00 00 00 00	 call	 __Init_thread_footer
  0008d	83 c4 08	 add	 esp, 8
  00090	eb ac		 jmp	 SHORT $LN5@GetInstanc
_TEXT	ENDS
;	COMDAT text$x
text$x	SEGMENT
__unwindfunclet$?GetInstance@CEnvironment@@SAPAV1@XZ$0:
  00000	68 00 00 00 00	 push	 OFFSET ?$TSS0@?1??GetInstance@CEnvironment@@SAPAV2@XZ@4HA
  00005	e8 00 00 00 00	 call	 __Init_thread_abort
  0000a	59		 pop	 ecx
  0000b	c3		 ret	 0
  0000c	cc		 int	 3
  0000d	cc		 int	 3
  0000e	cc		 int	 3
  0000f	cc		 int	 3
  00010	cc		 int	 3
__ehhandler$?GetInstance@CEnvironment@@SAPAV1@XZ:
  00011	90		 npad	 1
  00012	90		 npad	 1
  00013	8b 54 24 08	 mov	 edx, DWORD PTR [esp+8]
  00017	8d 42 0c	 lea	 eax, DWORD PTR [edx+12]
  0001a	8b 4a fc	 mov	 ecx, DWORD PTR [edx-4]
  0001d	33 c8		 xor	 ecx, eax
  0001f	e8 00 00 00 00	 call	 @__security_check_cookie@4
  00024	b8 00 00 00 00	 mov	 eax, OFFSET __ehfuncinfo$?GetInstance@CEnvironment@@SAPAV1@XZ
  00029	e9 00 00 00 00	 jmp	 ___CxxFrameHandler3
text$x	ENDS
?GetInstance@CEnvironment@@SAPAV1@XZ ENDP		; CEnvironment::GetInstance
; Function compile flags: /Ogtp
;	COMDAT ??_GCTimer@@UAEPAXI@Z
_TEXT	SEGMENT
___flags$ = 8						; size = 4
??_GCTimer@@UAEPAXI@Z PROC				; CTimer::`scalar deleting destructor', COMDAT
; _this$ = ecx
  00000	55		 push	 ebp
  00001	8b ec		 mov	 ebp, esp
  00003	f6 45 08 01	 test	 BYTE PTR ___flags$[ebp], 1
  00007	56		 push	 esi
  00008	8b f1		 mov	 esi, ecx
  0000a	c7 06 00 00 00
	00		 mov	 DWORD PTR [esi], OFFSET ??_7CTimer@@6B@
  00010	74 0b		 je	 SHORT $LN5@scalar
  00012	6a 20		 push	 32			; 00000020H
  00014	56		 push	 esi
  00015	e8 00 00 00 00	 call	 ??3@YAXPAXI@Z		; operator delete
  0001a	83 c4 08	 add	 esp, 8
$LN5@scalar:
  0001d	8b c6		 mov	 eax, esi
  0001f	5e		 pop	 esi
  00020	5d		 pop	 ebp
  00021	c2 04 00	 ret	 4
??_GCTimer@@UAEPAXI@Z ENDP				; CTimer::`scalar deleting destructor'
_TEXT	ENDS
; Function compile flags: /Ogtp
; File C:\IAGOS\server\v18\Source\Source\_Common\Timer.h
;	COMDAT ??1CTimer@@UAE@XZ
_TEXT	SEGMENT
??1CTimer@@UAE@XZ PROC					; CTimer::~CTimer, COMDAT
; _this$ = ecx

; 19   : 	virtual ~CTimer()	{}

  00000	c7 01 00 00 00
	00		 mov	 DWORD PTR [ecx], OFFSET ??_7CTimer@@6B@
  00006	c3		 ret	 0
??1CTimer@@UAE@XZ ENDP					; CTimer::~CTimer
_TEXT	ENDS
; Function compile flags: /Ogtp
; File C:\IAGOS\server\v18\Source\Source\_Common\Environment.cpp
;	COMDAT ?__empty_global_delete@@YAXPAXI@Z
_TEXT	SEGMENT
___formal$ = 8						; size = 4
___formal$ = 12						; size = 4
?__empty_global_delete@@YAXPAXI@Z PROC			; __empty_global_delete, COMDAT

  00000	c2 00 00	 ret	 0
?__empty_global_delete@@YAXPAXI@Z ENDP			; __empty_global_delete
_TEXT	ENDS
; Function compile flags: /Ogtp
; File C:\IAGOS\server\v18\Source\Source\_Common\Environment.cpp
;	COMDAT ?__empty_global_delete@@YAXPAX@Z
_TEXT	SEGMENT
___formal$ = 8						; size = 4
?__empty_global_delete@@YAXPAX@Z PROC			; __empty_global_delete, COMDAT

  00000	c2 00 00	 ret	 0
?__empty_global_delete@@YAXPAX@Z ENDP			; __empty_global_delete
_TEXT	ENDS
END
