; Listing generated by Microsoft (R) Optimizing Compiler Version 19.44.35225.0 

	TITLE	C:\IAGOS\server\v18\Source\Output\WorldServer\Release\EventLua.obj
	.686P
	.XMM
	include listing.inc
	.model	flat

INCLUDELIB LIBCMT
INCLUDELIB OLDNAMES

CONST	SEGMENT
?piecewise_construct@std@@3Upiecewise_construct_t@1@B	ORG $+1 ; std::piecewise_construct
CONST	ENDS
PUBLIC	?__empty_global_delete@@YAXPAX@Z		; __empty_global_delete
PUBLIC	?__empty_global_delete@@YAXPAXI@Z		; __empty_global_delete
PUBLIC	___local_stdio_printf_options
PUBLIC	?AtlThrowImpl@ATL@@YGXJ@Z			; ATL::AtlThrowImpl
PUBLIC	??1?$CSimpleStringT@D$0A@@ATL@@QAE@XZ		; ATL::CSimpleStringT<char,0>::~CSimpleStringT<char,0>
PUBLIC	?SetString@?$CSimpleStringT@D$0A@@ATL@@QAEXPBDH@Z ; ATL::CSimpleStringT<char,0>::SetString
PUBLIC	?ThrowMemoryException@?$CSimpleStringT@D$0A@@ATL@@KAXXZ ; ATL::CSimpleStringT<char,0>::ThrowMemoryException
PUBLIC	?Fork@?$CSimpleStringT@D$0A@@ATL@@AAEXH@Z	; ATL::CSimpleStringT<char,0>::Fork
PUBLIC	?PrepareWrite2@?$CSimpleStringT@D$0A@@ATL@@AAEXH@Z ; ATL::CSimpleStringT<char,0>::PrepareWrite2
PUBLIC	?Reallocate@?$CSimpleStringT@D$0A@@ATL@@AAEXH@Z	; ATL::CSimpleStringT<char,0>::Reallocate
PUBLIC	??1?$CStringT@DV?$StrTraitMFC@DV?$ChTraitsCRT@D@ATL@@@@@ATL@@QAE@XZ ; ATL::CStringT<char,StrTraitMFC<char,ATL::ChTraitsCRT<char> > >::~CStringT<char,StrTraitMFC<char,ATL::ChTraitsCRT<char> > >
PUBLIC	?Format@?$CStringT@DV?$StrTraitMFC@DV?$ChTraitsCRT@D@ATL@@@@@ATL@@QAAXPBDZZ ; ATL::CStringT<char,StrTraitMFC<char,ATL::ChTraitsCRT<char> > >::Format
PUBLIC	?FormatV@?$CStringT@DV?$StrTraitMFC@DV?$ChTraitsCRT@D@ATL@@@@@ATL@@QAEXPBDPAD@Z ; ATL::CStringT<char,StrTraitMFC<char,ATL::ChTraitsCRT<char> > >::FormatV
PUBLIC	?LoadStringA@?$CStringT@DV?$StrTraitMFC@DV?$ChTraitsCRT@D@ATL@@@@@ATL@@QAEHI@Z ; ATL::CStringT<char,StrTraitMFC<char,ATL::ChTraitsCRT<char> > >::LoadStringA
PUBLIC	??0exception@std@@QAE@ABV01@@Z			; std::exception::exception
PUBLIC	??1exception@std@@UAE@XZ			; std::exception::~exception
PUBLIC	?what@exception@std@@UBEPBDXZ			; std::exception::what
PUBLIC	??_Gexception@std@@UAEPAXI@Z			; std::exception::`scalar deleting destructor'
PUBLIC	??0bad_alloc@std@@QAE@ABV01@@Z			; std::bad_alloc::bad_alloc
PUBLIC	??_Gbad_alloc@std@@UAEPAXI@Z			; std::bad_alloc::`scalar deleting destructor'
PUBLIC	??0bad_array_new_length@std@@QAE@XZ		; std::bad_array_new_length::bad_array_new_length
PUBLIC	??1bad_array_new_length@std@@UAE@XZ		; std::bad_array_new_length::~bad_array_new_length
PUBLIC	??0bad_array_new_length@std@@QAE@ABV01@@Z	; std::bad_array_new_length::bad_array_new_length
PUBLIC	??_Gbad_array_new_length@std@@UAEPAXI@Z		; std::bad_array_new_length::`scalar deleting destructor'
PUBLIC	?_Throw_bad_array_new_length@std@@YAXXZ		; std::_Throw_bad_array_new_length
PUBLIC	?_Xlen_string@std@@YAXXZ			; std::_Xlen_string
PUBLIC	??0?$basic_string@DU?$char_traits@D@std@@V?$allocator@D@2@@std@@QAE@QBD@Z ; std::basic_string<char,std::char_traits<char>,std::allocator<char> >::basic_string<char,std::char_traits<char>,std::allocator<char> >
PUBLIC	??1?$basic_string@DU?$char_traits@D@std@@V?$allocator@D@2@@std@@QAE@XZ ; std::basic_string<char,std::char_traits<char>,std::allocator<char> >::~basic_string<char,std::char_traits<char>,std::allocator<char> >
PUBLIC	??4?$basic_string@DU?$char_traits@D@std@@V?$allocator@D@2@@std@@QAEAAV01@QBD@Z ; std::basic_string<char,std::char_traits<char>,std::allocator<char> >::operator=
PUBLIC	?_Throw_tree_length_error@std@@YAXXZ		; std::_Throw_tree_length_error
PUBLIC	??1?$vector@KV?$allocator@K@std@@@std@@QAE@XZ	; std::vector<unsigned long,std::allocator<unsigned long> >::~vector<unsigned long,std::allocator<unsigned long> >
PUBLIC	?_Xlength@?$vector@KV?$allocator@K@std@@@std@@CAXXZ ; std::vector<unsigned long,std::allocator<unsigned long> >::_Xlength
PUBLIC	??0CEventLuaProxy@@QAE@XZ			; CEventLuaProxy::CEventLuaProxy
PUBLIC	??1CEventLuaProxy@@UAE@XZ			; CEventLuaProxy::~CEventLuaProxy
PUBLIC	?Initialize@CEventLuaProxy@@QAEXPAVCEventLua@@@Z ; CEventLuaProxy::Initialize
PUBLIC	?deallocate@?$allocator@E@std@@QAEXQAEI@Z	; std::allocator<unsigned char>::deallocate
PUBLIC	??1?$vector@EV?$allocator@E@std@@@std@@QAE@XZ	; std::vector<unsigned char,std::allocator<unsigned char> >::~vector<unsigned char,std::allocator<unsigned char> >
PUBLIC	?push_back@?$vector@EV?$allocator@E@std@@@std@@QAEXABE@Z ; std::vector<unsigned char,std::allocator<unsigned char> >::push_back
PUBLIC	?_Buy_raw@?$vector@EV?$allocator@E@std@@@std@@AAEXI@Z ; std::vector<unsigned char,std::allocator<unsigned char> >::_Buy_raw
PUBLIC	?_Change_array@?$vector@EV?$allocator@E@std@@@std@@AAEXQAEII@Z ; std::vector<unsigned char,std::allocator<unsigned char> >::_Change_array
PUBLIC	?_Tidy@?$vector@EV?$allocator@E@std@@@std@@AAEXXZ ; std::vector<unsigned char,std::allocator<unsigned char> >::_Tidy
PUBLIC	?_Xlength@?$vector@EV?$allocator@E@std@@@std@@CAXXZ ; std::vector<unsigned char,std::allocator<unsigned char> >::_Xlength
PUBLIC	??_GCEventLuaProxy@@UAEPAXI@Z			; CEventLuaProxy::`scalar deleting destructor'
PUBLIC	??0CEventLua@@QAE@XZ				; CEventLua::CEventLua
PUBLIC	??1CEventLua@@UAE@XZ				; CEventLua::~CEventLua
PUBLIC	?GetEventList@CEventLua@@QAE?AV?$vector@EV?$allocator@E@std@@@std@@H@Z ; CEventLua::GetEventList
PUBLIC	?LoadScript@CEventLua@@QAEXXZ			; CEventLua::LoadScript
PUBLIC	?SetState@CEventLua@@QAEXEH@Z			; CEventLua::SetState
PUBLIC	?GetExpFactor@CEventLua@@QAEMH@Z		; CEventLua::GetExpFactor
PUBLIC	?GetItemDropRate@CEventLua@@QAEMH@Z		; CEventLua::GetItemDropRate
PUBLIC	?GetPieceItemDropRate@CEventLua@@QAEMH@Z	; CEventLua::GetPieceItemDropRate
PUBLIC	?GetGoldDropFactor@CEventLua@@QAEMH@Z		; CEventLua::GetGoldDropFactor
PUBLIC	?GetAttackPower@CEventLua@@QAEHH@Z		; CEventLua::GetAttackPower
PUBLIC	?GetDefensePower@CEventLua@@QAEHH@Z		; CEventLua::GetDefensePower
PUBLIC	?SetCoupon@CEventLua@@QAEXPAVCUser@@K@Z		; CEventLua::SetCoupon
PUBLIC	?GetDesc@CEventLua@@QAE?AV?$basic_string@DU?$char_traits@D@std@@V?$allocator@D@2@@std@@E@Z ; CEventLua::GetDesc
PUBLIC	?SetLevelUpGift@CEventLua@@QAEXPAVCUser@@H@Z	; CEventLua::SetLevelUpGift
PUBLIC	?GetItem@CEventLua@@QAE?AV?$map@KHU?$less@K@std@@V?$allocator@U?$pair@$$CBKH@std@@@2@@std@@K@Z ; CEventLua::GetItem
PUBLIC	?GetAllEventList@CEventLua@@QAEXPAVCUser@@@Z	; CEventLua::GetAllEventList
PUBLIC	?GetEventInfo@CEventLua@@QAEXPAVCUser@@H@Z	; CEventLua::GetEventInfo
PUBLIC	?GetCheerExpFactor@CEventLua@@QAEMH@Z		; CEventLua::GetCheerExpFactor
PUBLIC	?GetWeatherEventExpFactor@CEventLua@@QAEMH@Z	; CEventLua::GetWeatherEventExpFactor
PUBLIC	?GetWeatherEventTitle@CEventLua@@QAE?AV?$basic_string@DU?$char_traits@D@std@@V?$allocator@D@2@@std@@XZ ; CEventLua::GetWeatherEventTitle
PUBLIC	?GetShopBuyFactor@CEventLua@@QAEMH@Z		; CEventLua::GetShopBuyFactor
PUBLIC	?GetShopSellFactor@CEventLua@@QAEMH@Z		; CEventLua::GetShopSellFactor
PUBLIC	?GetCouponEvent@CEventLua@@QAEKH@Z		; CEventLua::GetCouponEvent
PUBLIC	??1?$vector@U__SPAWNREGION@CEventLua@@V?$allocator@U__SPAWNREGION@CEventLua@@@std@@@std@@QAE@XZ ; std::vector<CEventLua::__SPAWNREGION,std::allocator<CEventLua::__SPAWNREGION> >::~vector<CEventLua::__SPAWNREGION,std::allocator<CEventLua::__SPAWNREGION> >
PUBLIC	?_Lrotate@?$_Tree_val@U?$_Tree_simple_types@U?$pair@$$CBEV?$vector@U__SPAWNINFO@CEventLua@@V?$allocator@U__SPAWNINFO@CEventLua@@@std@@@std@@@std@@@std@@@std@@QAEXPAU?$_Tree_node@U?$pair@$$CBEV?$vector@U__SPAWNINFO@CEventLua@@V?$allocator@U__SPAWNINFO@CEventLua@@@std@@@std@@@std@@PAX@2@@Z ; std::_Tree_val<std::_Tree_simple_types<std::pair<unsigned char const ,std::vector<CEventLua::__SPAWNINFO,std::allocator<CEventLua::__SPAWNINFO> > > > >::_Lrotate
PUBLIC	?_Rrotate@?$_Tree_val@U?$_Tree_simple_types@U?$pair@$$CBEV?$vector@U__SPAWNINFO@CEventLua@@V?$allocator@U__SPAWNINFO@CEventLua@@@std@@@std@@@std@@@std@@@std@@QAEXPAU?$_Tree_node@U?$pair@$$CBEV?$vector@U__SPAWNINFO@CEventLua@@V?$allocator@U__SPAWNINFO@CEventLua@@@std@@@std@@@std@@PAX@2@@Z ; std::_Tree_val<std::_Tree_simple_types<std::pair<unsigned char const ,std::vector<CEventLua::__SPAWNINFO,std::allocator<CEventLua::__SPAWNINFO> > > > >::_Rrotate
PUBLIC	?_Extract@?$_Tree_val@U?$_Tree_simple_types@U?$pair@$$CBEV?$vector@U__SPAWNINFO@CEventLua@@V?$allocator@U__SPAWNINFO@CEventLua@@@std@@@std@@@std@@@std@@@std@@QAEPAU?$_Tree_node@U?$pair@$$CBEV?$vector@U__SPAWNINFO@CEventLua@@V?$allocator@U__SPAWNINFO@CEventLua@@@std@@@std@@@std@@PAX@2@V?$_Tree_unchecked_const_iterator@V?$_Tree_val@U?$_Tree_simple_types@U?$pair@$$CBEV?$vector@U__SPAWNINFO@CEventLua@@V?$allocator@U__SPAWNINFO@CEventLua@@@std@@@std@@@std@@@std@@@std@@U_Iterator_base0@2@@2@@Z ; std::_Tree_val<std::_Tree_simple_types<std::pair<unsigned char const ,std::vector<CEventLua::__SPAWNINFO,std::allocator<CEventLua::__SPAWNINFO> > > > >::_Extract
PUBLIC	?_Insert_node@?$_Tree_val@U?$_Tree_simple_types@U?$pair@$$CBEV?$vector@U__SPAWNINFO@CEventLua@@V?$allocator@U__SPAWNINFO@CEventLua@@@std@@@std@@@std@@@std@@@std@@QAEPAU?$_Tree_node@U?$pair@$$CBEV?$vector@U__SPAWNINFO@CEventLua@@V?$allocator@U__SPAWNINFO@CEventLua@@@std@@@std@@@std@@PAX@2@U?$_Tree_id@PAU?$_Tree_node@U?$pair@$$CBEV?$vector@U__SPAWNINFO@CEventLua@@V?$allocator@U__SPAWNINFO@CEventLua@@@std@@@std@@@std@@PAX@std@@@2@QAU32@@Z ; std::_Tree_val<std::_Tree_simple_types<std::pair<unsigned char const ,std::vector<CEventLua::__SPAWNINFO,std::allocator<CEventLua::__SPAWNINFO> > > > >::_Insert_node
PUBLIC	??1?$map@EV?$vector@U__SPAWNINFO@CEventLua@@V?$allocator@U__SPAWNINFO@CEventLua@@@std@@@std@@U?$less@E@2@V?$allocator@U?$pair@$$CBEV?$vector@U__SPAWNINFO@CEventLua@@V?$allocator@U__SPAWNINFO@CEventLua@@@std@@@std@@@std@@@2@@std@@QAE@XZ ; std::map<unsigned char,std::vector<CEventLua::__SPAWNINFO,std::allocator<CEventLua::__SPAWNINFO> >,std::less<unsigned char>,std::allocator<std::pair<unsigned char const ,std::vector<CEventLua::__SPAWNINFO,std::allocator<CEventLua::__SPAWNINFO> > > > >::~map<unsigned char,std::vector<CEventLua::__SPAWNINFO,std::allocator<CEventLua::__SPAWNINFO> >,std::less<unsigned char>,std::allocator<std::pair<unsigned char const ,std::vector<CEventLua::__SPAWNINFO,std::allocator<CEventLua::__SPAWNINFO> > > > >
PUBLIC	??1?$_Tree@V?$_Tmap_traits@KEU?$less@K@std@@V?$allocator@U?$pair@$$CBKE@std@@@2@$0A@@std@@@std@@QAE@XZ ; std::_Tree<std::_Tmap_traits<unsigned long,unsigned char,std::less<unsigned long>,std::allocator<std::pair<unsigned long const ,unsigned char> >,0> >::~_Tree<std::_Tmap_traits<unsigned long,unsigned char,std::less<unsigned long>,std::allocator<std::pair<unsigned long const ,unsigned char> >,0> >
PUBLIC	?clear@?$_Tree@V?$_Tmap_traits@KEU?$less@K@std@@V?$allocator@U?$pair@$$CBKE@std@@@2@$0A@@std@@@std@@QAEXXZ ; std::_Tree<std::_Tmap_traits<unsigned long,unsigned char,std::less<unsigned long>,std::allocator<std::pair<unsigned long const ,unsigned char> >,0> >::clear
PUBLIC	?_Lrotate@?$_Tree_val@U?$_Tree_simple_types@U?$pair@$$CBKE@std@@@std@@@std@@QAEXPAU?$_Tree_node@U?$pair@$$CBKE@std@@PAX@2@@Z ; std::_Tree_val<std::_Tree_simple_types<std::pair<unsigned long const ,unsigned char> > >::_Lrotate
PUBLIC	?_Rrotate@?$_Tree_val@U?$_Tree_simple_types@U?$pair@$$CBKE@std@@@std@@@std@@QAEXPAU?$_Tree_node@U?$pair@$$CBKE@std@@PAX@2@@Z ; std::_Tree_val<std::_Tree_simple_types<std::pair<unsigned long const ,unsigned char> > >::_Rrotate
PUBLIC	?_Extract@?$_Tree_val@U?$_Tree_simple_types@U?$pair@$$CBKE@std@@@std@@@std@@QAEPAU?$_Tree_node@U?$pair@$$CBKE@std@@PAX@2@V?$_Tree_unchecked_const_iterator@V?$_Tree_val@U?$_Tree_simple_types@U?$pair@$$CBKE@std@@@std@@@std@@U_Iterator_base0@2@@2@@Z ; std::_Tree_val<std::_Tree_simple_types<std::pair<unsigned long const ,unsigned char> > >::_Extract
PUBLIC	?_Insert_node@?$_Tree_val@U?$_Tree_simple_types@U?$pair@$$CBKE@std@@@std@@@std@@QAEPAU?$_Tree_node@U?$pair@$$CBKE@std@@PAX@2@U?$_Tree_id@PAU?$_Tree_node@U?$pair@$$CBKE@std@@PAX@std@@@2@QAU32@@Z ; std::_Tree_val<std::_Tree_simple_types<std::pair<unsigned long const ,unsigned char> > >::_Insert_node
PUBLIC	??1?$map@KEU?$less@K@std@@V?$allocator@U?$pair@$$CBKE@std@@@2@@std@@QAE@XZ ; std::map<unsigned long,unsigned char,std::less<unsigned long>,std::allocator<std::pair<unsigned long const ,unsigned char> > >::~map<unsigned long,unsigned char,std::less<unsigned long>,std::allocator<std::pair<unsigned long const ,unsigned char> > >
PUBLIC	?SetSpawnEvent@CEventLua@@AAEXEH@Z		; CEventLua::SetSpawnEvent
PUBLIC	?EventSpawnProcess@CEventLua@@QAEXXZ		; CEventLua::EventSpawnProcess
PUBLIC	?DeleteEndEventProcess@CEventLua@@QAEXXZ	; CEventLua::DeleteEndEventProcess
PUBLIC	??1?$_Tree@V?$_Tmap_traits@KHU?$less@K@std@@V?$allocator@U?$pair@$$CBKH@std@@@2@$0A@@std@@@std@@QAE@XZ ; std::_Tree<std::_Tmap_traits<unsigned long,int,std::less<unsigned long>,std::allocator<std::pair<unsigned long const ,int> >,0> >::~_Tree<std::_Tmap_traits<unsigned long,int,std::less<unsigned long>,std::allocator<std::pair<unsigned long const ,int> >,0> >
PUBLIC	?clear@?$_Tree@V?$_Tmap_traits@KHU?$less@K@std@@V?$allocator@U?$pair@$$CBKH@std@@@2@$0A@@std@@@std@@QAEXXZ ; std::_Tree<std::_Tmap_traits<unsigned long,int,std::less<unsigned long>,std::allocator<std::pair<unsigned long const ,int> >,0> >::clear
PUBLIC	?_Insert_node@?$_Tree_val@U?$_Tree_simple_types@U?$pair@$$CBKH@std@@@std@@@std@@QAEPAU?$_Tree_node@U?$pair@$$CBKH@std@@PAX@2@U?$_Tree_id@PAU?$_Tree_node@U?$pair@$$CBKH@std@@PAX@std@@@2@QAU32@@Z ; std::_Tree_val<std::_Tree_simple_types<std::pair<unsigned long const ,int> > >::_Insert_node
PUBLIC	??1?$map@KHU?$less@K@std@@V?$allocator@U?$pair@$$CBKH@std@@@2@@std@@QAE@XZ ; std::map<unsigned long,int,std::less<unsigned long>,std::allocator<std::pair<unsigned long const ,int> > >::~map<unsigned long,int,std::less<unsigned long>,std::allocator<std::pair<unsigned long const ,int> > >
PUBLIC	?SetKeepConnectEvent@CEventLua@@QAEXPAVCUser@@K@Z ; CEventLua::SetKeepConnectEvent
PUBLIC	?GetKeepConnectTime@CEventLua@@QAEKH@Z		; CEventLua::GetKeepConnectTime
PUBLIC	?GetKeepConnectItem@CEventLua@@QAEXXZ		; CEventLua::GetKeepConnectItem
PUBLIC	?KeepConnectEventProcess@CEventLua@@QAEXXZ	; CEventLua::KeepConnectEventProcess
PUBLIC	??_GCEventLua@@UAEPAXI@Z			; CEventLua::`scalar deleting destructor'
PUBLIC	??E?$_Tree_unchecked_const_iterator@V?$_Tree_val@U?$_Tree_simple_types@U?$pair@$$CBKE@std@@@std@@@std@@U_Iterator_base0@2@@std@@QAEAAV01@XZ ; std::_Tree_unchecked_const_iterator<std::_Tree_val<std::_Tree_simple_types<std::pair<unsigned long const ,unsigned char> > >,std::_Iterator_base0>::operator++
PUBLIC	??$_Copy_memmove_n@PBEPAE@std@@YAPAEPBEIPAE@Z	; std::_Copy_memmove_n<unsigned char const *,unsigned char *>
PUBLIC	??$_Erase_tree@V?$allocator@U?$_Tree_node@U?$pair@$$CBKH@std@@PAX@std@@@std@@@?$_Tree_val@U?$_Tree_simple_types@U?$pair@$$CBKH@std@@@std@@@std@@QAEXAAV?$allocator@U?$_Tree_node@U?$pair@$$CBKH@std@@PAX@std@@@1@PAU?$_Tree_node@U?$pair@$$CBKH@std@@PAX@1@@Z ; std::_Tree_val<std::_Tree_simple_types<std::pair<unsigned long const ,int> > >::_Erase_tree<std::allocator<std::_Tree_node<std::pair<unsigned long const ,int>,void *> > >
PUBLIC	??$_Copy_memmove_tail@PAE@std@@YAPAEQBDQAEII@Z	; std::_Copy_memmove_tail<unsigned char *>
PUBLIC	??$_Copy_memmove@PAEPAE@std@@YAPAEPAE00@Z	; std::_Copy_memmove<unsigned char *,unsigned char *>
PUBLIC	??$_Erase_tree@V?$allocator@U?$_Tree_node@U?$pair@$$CBKE@std@@PAX@std@@@std@@@?$_Tree_val@U?$_Tree_simple_types@U?$pair@$$CBKE@std@@@std@@@std@@QAEXAAV?$allocator@U?$_Tree_node@U?$pair@$$CBKE@std@@PAX@std@@@1@PAU?$_Tree_node@U?$pair@$$CBKE@std@@PAX@1@@Z ; std::_Tree_val<std::_Tree_simple_types<std::pair<unsigned long const ,unsigned char> > >::_Erase_tree<std::allocator<std::_Tree_node<std::pair<unsigned long const ,unsigned char>,void *> > >
PUBLIC	??$_Allocate_manually_vector_aligned@U_Default_allocate_traits@std@@@std@@YAPAXI@Z ; std::_Allocate_manually_vector_aligned<std::_Default_allocate_traits>
PUBLIC	??E?$_Tree_unchecked_const_iterator@V?$_Tree_val@U?$_Tree_simple_types@U?$pair@$$CBEV?$vector@U__SPAWNINFO@CEventLua@@V?$allocator@U__SPAWNINFO@CEventLua@@@std@@@std@@@std@@@std@@@std@@U_Iterator_base0@2@@std@@QAEAAV01@XZ ; std::_Tree_unchecked_const_iterator<std::_Tree_val<std::_Tree_simple_types<std::pair<unsigned char const ,std::vector<CEventLua::__SPAWNINFO,std::allocator<CEventLua::__SPAWNINFO> > > > >,std::_Iterator_base0>::operator++
PUBLIC	?deallocate@?$allocator@U__SPAWNINFO@CEventLua@@@std@@QAEXQAU__SPAWNINFO@CEventLua@@I@Z ; std::allocator<CEventLua::__SPAWNINFO>::deallocate
PUBLIC	??1?$vector@U__SPAWNINFO@CEventLua@@V?$allocator@U__SPAWNINFO@CEventLua@@@std@@@std@@QAE@XZ ; std::vector<CEventLua::__SPAWNINFO,std::allocator<CEventLua::__SPAWNINFO> >::~vector<CEventLua::__SPAWNINFO,std::allocator<CEventLua::__SPAWNINFO> >
PUBLIC	?_Buy_raw@?$vector@U__SPAWNINFO@CEventLua@@V?$allocator@U__SPAWNINFO@CEventLua@@@std@@@std@@AAEXI@Z ; std::vector<CEventLua::__SPAWNINFO,std::allocator<CEventLua::__SPAWNINFO> >::_Buy_raw
PUBLIC	?_Tidy@?$vector@U__SPAWNINFO@CEventLua@@V?$allocator@U__SPAWNINFO@CEventLua@@@std@@@std@@AAEXXZ ; std::vector<CEventLua::__SPAWNINFO,std::allocator<CEventLua::__SPAWNINFO> >::_Tidy
PUBLIC	?_Xlength@?$vector@U__SPAWNINFO@CEventLua@@V?$allocator@U__SPAWNINFO@CEventLua@@@std@@@std@@CAXXZ ; std::vector<CEventLua::__SPAWNINFO,std::allocator<CEventLua::__SPAWNINFO> >::_Xlength
PUBLIC	??$insert@U?$pair@KE@std@@$0A@@?$map@KEU?$less@K@std@@V?$allocator@U?$pair@$$CBKE@std@@@2@@std@@QAE?AU?$pair@V?$_Tree_iterator@V?$_Tree_val@U?$_Tree_simple_types@U?$pair@$$CBKE@std@@@std@@@std@@@std@@_N@1@$$QAU?$pair@KE@1@@Z ; std::map<unsigned long,unsigned char,std::less<unsigned long>,std::allocator<std::pair<unsigned long const ,unsigned char> > >::insert<std::pair<unsigned long,unsigned char>,0>
PUBLIC	??1?$pair@EV?$vector@U__SPAWNINFO@CEventLua@@V?$allocator@U__SPAWNINFO@CEventLua@@@std@@@std@@@std@@QAE@XZ ; std::pair<unsigned char,std::vector<CEventLua::__SPAWNINFO,std::allocator<CEventLua::__SPAWNINFO> > >::~pair<unsigned char,std::vector<CEventLua::__SPAWNINFO,std::allocator<CEventLua::__SPAWNINFO> > >
PUBLIC	??$_Erase_tree@V?$allocator@U?$_Tree_node@U?$pair@$$CBEV?$vector@U__SPAWNINFO@CEventLua@@V?$allocator@U__SPAWNINFO@CEventLua@@@std@@@std@@@std@@PAX@std@@@std@@@?$_Tree_val@U?$_Tree_simple_types@U?$pair@$$CBEV?$vector@U__SPAWNINFO@CEventLua@@V?$allocator@U__SPAWNINFO@CEventLua@@@std@@@std@@@std@@@std@@@std@@QAEXAAV?$allocator@U?$_Tree_node@U?$pair@$$CBEV?$vector@U__SPAWNINFO@CEventLua@@V?$allocator@U__SPAWNINFO@CEventLua@@@std@@@std@@@std@@PAX@std@@@1@PAU?$_Tree_node@U?$pair@$$CBEV?$vector@U__SPAWNINFO@CEventLua@@V?$allocator@U__SPAWNINFO@CEventLua@@@std@@@std@@@std@@PAX@1@@Z ; std::_Tree_val<std::_Tree_simple_types<std::pair<unsigned char const ,std::vector<CEventLua::__SPAWNINFO,std::allocator<CEventLua::__SPAWNINFO> > > > >::_Erase_tree<std::allocator<std::_Tree_node<std::pair<unsigned char const ,std::vector<CEventLua::__SPAWNINFO,std::allocator<CEventLua::__SPAWNINFO> > >,void *> > >
PUBLIC	??$_Find_lower_bound@K@?$_Tree@V?$_Tmap_traits@KHU?$less@K@std@@V?$allocator@U?$pair@$$CBKH@std@@@2@$0A@@std@@@std@@IBE?AU?$_Tree_find_result@PAU?$_Tree_node@U?$pair@$$CBKH@std@@PAX@std@@@1@ABK@Z ; std::_Tree<std::_Tmap_traits<unsigned long,int,std::less<unsigned long>,std::allocator<std::pair<unsigned long const ,int> >,0> >::_Find_lower_bound<unsigned long>
PUBLIC	??1?$_Alloc_construct_ptr@V?$allocator@U?$_Tree_node@U?$pair@$$CBKH@std@@PAX@std@@@std@@@std@@QAE@XZ ; std::_Alloc_construct_ptr<std::allocator<std::_Tree_node<std::pair<unsigned long const ,int>,void *> > >::~_Alloc_construct_ptr<std::allocator<std::_Tree_node<std::pair<unsigned long const ,int>,void *> > >
PUBLIC	??$_Copy_memmove_n@PAU__SPAWNINFO@CEventLua@@PAU12@@std@@YAPAU__SPAWNINFO@CEventLua@@PAU12@I0@Z ; std::_Copy_memmove_n<CEventLua::__SPAWNINFO *,CEventLua::__SPAWNINFO *>
PUBLIC	??$_Find_lower_bound@E@?$_Tree@V?$_Tmap_traits@EV?$vector@U__SPAWNINFO@CEventLua@@V?$allocator@U__SPAWNINFO@CEventLua@@@std@@@std@@U?$less@E@2@V?$allocator@U?$pair@$$CBEV?$vector@U__SPAWNINFO@CEventLua@@V?$allocator@U__SPAWNINFO@CEventLua@@@std@@@std@@@std@@@2@$0A@@std@@@std@@IBE?AU?$_Tree_find_result@PAU?$_Tree_node@U?$pair@$$CBEV?$vector@U__SPAWNINFO@CEventLua@@V?$allocator@U__SPAWNINFO@CEventLua@@@std@@@std@@@std@@PAX@std@@@1@ABE@Z ; std::_Tree<std::_Tmap_traits<unsigned char,std::vector<CEventLua::__SPAWNINFO,std::allocator<CEventLua::__SPAWNINFO> >,std::less<unsigned char>,std::allocator<std::pair<unsigned char const ,std::vector<CEventLua::__SPAWNINFO,std::allocator<CEventLua::__SPAWNINFO> > > >,0> >::_Find_lower_bound<unsigned char>
PUBLIC	??$_Emplace_reallocate@U__SPAWNINFO@CEventLua@@@?$vector@U__SPAWNINFO@CEventLua@@V?$allocator@U__SPAWNINFO@CEventLua@@@std@@@std@@AAEPAU__SPAWNINFO@CEventLua@@QAU23@$$QAU23@@Z ; std::vector<CEventLua::__SPAWNINFO,std::allocator<CEventLua::__SPAWNINFO> >::_Emplace_reallocate<CEventLua::__SPAWNINFO>
PUBLIC	??$_Emplace_reallocate@ABK@?$vector@KV?$allocator@K@std@@@std@@AAEPAKQAKABK@Z ; std::vector<unsigned long,std::allocator<unsigned long> >::_Emplace_reallocate<unsigned long const &>
PUBLIC	??1?$_Alloc_construct_ptr@V?$allocator@U?$_Tree_node@U?$pair@$$CBKE@std@@PAX@std@@@std@@@std@@QAE@XZ ; std::_Alloc_construct_ptr<std::allocator<std::_Tree_node<std::pair<unsigned long const ,unsigned char>,void *> > >::~_Alloc_construct_ptr<std::allocator<std::_Tree_node<std::pair<unsigned long const ,unsigned char>,void *> > >
PUBLIC	??1?$_Alloc_construct_ptr@V?$allocator@U?$_Tree_node@U?$pair@$$CBEV?$vector@U__SPAWNINFO@CEventLua@@V?$allocator@U__SPAWNINFO@CEventLua@@@std@@@std@@@std@@PAX@std@@@std@@@std@@QAE@XZ ; std::_Alloc_construct_ptr<std::allocator<std::_Tree_node<std::pair<unsigned char const ,std::vector<CEventLua::__SPAWNINFO,std::allocator<CEventLua::__SPAWNINFO> > >,void *> > >::~_Alloc_construct_ptr<std::allocator<std::_Tree_node<std::pair<unsigned char const ,std::vector<CEventLua::__SPAWNINFO,std::allocator<CEventLua::__SPAWNINFO> > >,void *> > >
PUBLIC	??$_Copy_memmove_tail@PAU__SPAWNINFO@CEventLua@@@std@@YAPAU__SPAWNINFO@CEventLua@@QBDQAU12@II@Z ; std::_Copy_memmove_tail<CEventLua::__SPAWNINFO *>
PUBLIC	??$_Copy_memmove@PAU__SPAWNINFO@CEventLua@@PAU12@@std@@YAPAU__SPAWNINFO@CEventLua@@PAU12@00@Z ; std::_Copy_memmove<CEventLua::__SPAWNINFO *,CEventLua::__SPAWNINFO *>
PUBLIC	??$_Copy_memmove@PAKPAK@std@@YAPAKPAK00@Z	; std::_Copy_memmove<unsigned long *,unsigned long *>
PUBLIC	??$_Copy_memmove_tail@PAK@std@@YAPAKQBDQAKII@Z	; std::_Copy_memmove_tail<unsigned long *>
PUBLIC	?_OptionsStorage@?1??__local_stdio_printf_options@@9@4_KA ; `__local_stdio_printf_options'::`2'::_OptionsStorage
PUBLIC	??_C@_00CNPNBAHC@@				; `string'
PUBLIC	??_7exception@std@@6B@				; std::exception::`vftable'
PUBLIC	??_C@_0BC@EOODALEL@Unknown?5exception@		; `string'
PUBLIC	??_7bad_alloc@std@@6B@				; std::bad_alloc::`vftable'
PUBLIC	??_7bad_array_new_length@std@@6B@		; std::bad_array_new_length::`vftable'
PUBLIC	??_C@_0BF@KINCDENJ@bad?5array?5new?5length@	; `string'
PUBLIC	??_R0?AVexception@std@@@8			; std::exception `RTTI Type Descriptor'
PUBLIC	__CT??_R0?AVexception@std@@@8??0exception@std@@QAE@ABV01@@Z12
PUBLIC	__TI3?AVbad_array_new_length@std@@
PUBLIC	__CTA3?AVbad_array_new_length@std@@
PUBLIC	??_R0?AVbad_array_new_length@std@@@8		; std::bad_array_new_length `RTTI Type Descriptor'
PUBLIC	__CT??_R0?AVbad_array_new_length@std@@@8??0bad_array_new_length@std@@QAE@ABV01@@Z12
PUBLIC	??_R0?AVbad_alloc@std@@@8			; std::bad_alloc `RTTI Type Descriptor'
PUBLIC	__CT??_R0?AVbad_alloc@std@@@8??0bad_alloc@std@@QAE@ABV01@@Z12
PUBLIC	??_C@_0BA@JFNIOLAK@string?5too?5long@		; `string'
PUBLIC	??_C@_0BB@GCADKGJO@map?1set?5too?5long@		; `string'
PUBLIC	??_7CEventLuaProxy@@6B@				; CEventLuaProxy::`vftable'
PUBLIC	??_7CEventLua@@6B@				; CEventLua::`vftable'
PUBLIC	??_C@_0BM@HMFGHCP@?$CFs?5min?3?$CFd?0?5max?3?$CFd?0?5index?3?$CFd@ ; `string'
PUBLIC	??_C@_0BI@BEIFNGEL@GetItemProp?5range_error@	; `string'
PUBLIC	??_C@_0BJ@GKPOBPPI@GetMoverProp?5range_error@	; `string'
PUBLIC	??_C@_0BA@FOIKENOD@vector?5too?5long@		; `string'
PUBLIC	??_R4exception@std@@6B@				; std::exception::`RTTI Complete Object Locator'
PUBLIC	??_R3exception@std@@8				; std::exception::`RTTI Class Hierarchy Descriptor'
PUBLIC	??_R2exception@std@@8				; std::exception::`RTTI Base Class Array'
PUBLIC	??_R1A@?0A@EA@exception@std@@8			; std::exception::`RTTI Base Class Descriptor at (0,-1,0,64)'
PUBLIC	??_R4bad_array_new_length@std@@6B@		; std::bad_array_new_length::`RTTI Complete Object Locator'
PUBLIC	??_R3bad_array_new_length@std@@8		; std::bad_array_new_length::`RTTI Class Hierarchy Descriptor'
PUBLIC	??_R2bad_array_new_length@std@@8		; std::bad_array_new_length::`RTTI Base Class Array'
PUBLIC	??_R1A@?0A@EA@bad_array_new_length@std@@8	; std::bad_array_new_length::`RTTI Base Class Descriptor at (0,-1,0,64)'
PUBLIC	??_R1A@?0A@EA@bad_alloc@std@@8			; std::bad_alloc::`RTTI Base Class Descriptor at (0,-1,0,64)'
PUBLIC	??_R3bad_alloc@std@@8				; std::bad_alloc::`RTTI Class Hierarchy Descriptor'
PUBLIC	??_R2bad_alloc@std@@8				; std::bad_alloc::`RTTI Base Class Array'
PUBLIC	??_R4bad_alloc@std@@6B@				; std::bad_alloc::`RTTI Complete Object Locator'
PUBLIC	??_C@_0N@CAKNNDNG@GetEventList@			; `string'
PUBLIC	??_C@_09BFLDBOAB@Event?4lua@			; `string'
PUBLIC	??_C@_0BH@KMCEPDIF@Event?4lua?5?$LN?G?G?$OA?5?$LN?G?F?P?$CB?$CB?$CB@ ; `string'
PUBLIC	??_C@_08JMKFDPFL@SetState@			; `string'
PUBLIC	??_C@_07EJFENACC@GetDesc@			; `string'
PUBLIC	??_C@_07NPEJNGCF@GetItem@			; `string'
PUBLIC	??_C@_06MFPHJAPD@ItemId@			; `string'
PUBLIC	??_C@_07HEBBLACC@ItemNum@			; `string'
PUBLIC	??_C@_0N@NBPJBJNN@GetExpFactor@			; `string'
PUBLIC	??_C@_0BA@MLJLEPOJ@GetItemDropRate@		; `string'
PUBLIC	??_C@_0BF@KBKPCOBF@GetPieceItemDropRate@	; `string'
PUBLIC	??_C@_0BC@EAGMKEGO@GetGoldDropFactor@		; `string'
PUBLIC	??_C@_0BA@LLOGNHHK@GetAllEventList@		; `string'
PUBLIC	??_C@_03HLJILIDP@nId@				; `string'
PUBLIC	??_C@_08DNBCIPJJ@strTitle@			; `string'
PUBLIC	??_C@_06PHLKOEGH@nState@			; `string'
PUBLIC	??_C@_0CC@PNFPDMBJ@ID?5?3?5?$CFd?0?5?5Title?5?3?5?$CFs?0?5?5State?5?3?5@ ; `string'
PUBLIC	??_C@_0N@MGEBMOBO@GetEventInfo@			; `string'
PUBLIC	??_C@_0P@DPKGMIHE@GetAttackPower@		; `string'
PUBLIC	??_C@_0BA@NNDCMDIP@GetDefensePower@		; `string'
PUBLIC	??_C@_0P@JBFAKDCI@GetCouponEvent@		; `string'
PUBLIC	??_C@_0P@KENDMHID@GetLevelUpGift@		; `string'
PUBLIC	??_C@_09OFFFBNFE@strItemId@			; `string'
PUBLIC	??_C@_08GDJLCBND@nItemNum@			; `string'
PUBLIC	??_C@_0DO@JOCEGGGB@CEventLua?3?3SetLevelUpGift?$CI?$CJ?5?9?5I@ ; `string'
PUBLIC	??_C@_06JHHNJIGB@byFlag@			; `string'
PUBLIC	??_C@_01DDCIFGEA@E@				; `string'
PUBLIC	??_C@_0BD@CEEECHDH@EVENT_LEVELUP_GIFT@		; `string'
PUBLIC	??_C@_0BI@BOAOACJA@EVENT_LEVELUP_GIFT_POST@	; `string'
PUBLIC	??_C@_04OEDFLLKD@?$CC?$CFs?$CC@			; `string'
PUBLIC	??_C@_0BC@DBLMBKOM@GetCheerExpFactor@		; `string'
PUBLIC	??_C@_08HJLLONHE@GetSpawn@			; `string'
PUBLIC	??_C@_05OLBMEBNJ@nType@				; `string'
PUBLIC	??_C@_05HADFBHMH@strId@				; `string'
PUBLIC	??_C@_07CBDAANGL@nDayNum@			; `string'
PUBLIC	??_C@_0EA@NGBNDEML@?6Lua?5Spawn?3?5type?5?$DN?5ITEM?0?5index?5@ ; `string'
PUBLIC	??_C@_0ED@GONLAOPM@?6Lua?5Spawn?3?5type?5?$DN?5MONSTER?0?5ind@ ; `string'
PUBLIC	??_C@_0EC@HDKLLJKN@?6CEventLua?3?3DeleteEndEventProce@ ; `string'
PUBLIC	??_C@_0DO@COLMFNCF@?6CEventLua?3?3DeleteEndEventProce@ ; `string'
PUBLIC	??_C@_0BD@DPFKGCHP@GetKeepConnectTime@		; `string'
PUBLIC	??_C@_0BD@MDJDGFLO@GetKeepConnectItem@		; `string'
PUBLIC	??_C@_0BJ@CBMOAIBF@GetWeatherEventExpFactor@	; `string'
PUBLIC	??_C@_0BF@BCGDKDON@GetWeatherEventTitle@	; `string'
PUBLIC	??_C@_0BB@DMNIFEGD@GetShopBuyFactor@		; `string'
PUBLIC	??_C@_0BC@JENBNLH@GetShopSellFactor@		; `string'
PUBLIC	??_C@_0BN@IAMDMCDM@?6CEventLuaProxy?3?3Initialize?6@ ; `string'
PUBLIC	??_R4CEventLua@@6B@				; CEventLua::`RTTI Complete Object Locator'
PUBLIC	??_R0?AVCEventLua@@@8				; CEventLua `RTTI Type Descriptor'
PUBLIC	??_R3CEventLua@@8				; CEventLua::`RTTI Class Hierarchy Descriptor'
PUBLIC	??_R2CEventLua@@8				; CEventLua::`RTTI Base Class Array'
PUBLIC	??_R1A@?0A@EA@CEventLua@@8			; CEventLua::`RTTI Base Class Descriptor at (0,-1,0,64)'
PUBLIC	??_R4CEventLuaProxy@@6B@			; CEventLuaProxy::`RTTI Complete Object Locator'
PUBLIC	??_R0?AVCEventLuaProxy@@@8			; CEventLuaProxy `RTTI Type Descriptor'
PUBLIC	??_R3CEventLuaProxy@@8				; CEventLuaProxy::`RTTI Class Hierarchy Descriptor'
PUBLIC	??_R2CEventLuaProxy@@8				; CEventLuaProxy::`RTTI Base Class Array'
PUBLIC	??_R1A@?0A@EA@CEventLuaProxy@@8			; CEventLuaProxy::`RTTI Base Class Descriptor at (0,-1,0,64)'
PUBLIC	__real@3f800000
PUBLIC	__xmm@00000000000000000000006400000064
PUBLIC	__xmm@41f00000000000000000000000000000
EXTRN	??2@YAPAXI@Z:PROC				; operator new
EXTRN	??3@YAXPAXI@Z:PROC				; operator delete
EXTRN	__invalid_parameter_noinfo:PROC
EXTRN	__invoke_watson:PROC
EXTRN	__errno:PROC
EXTRN	__imp__OutputDebugStringA@4:PROC
EXTRN	__imp__GetTickCount@0:PROC
EXTRN	__imp__LoadResource@8:PROC
EXTRN	__imp__LockResource@4:PROC
EXTRN	__imp__SizeofResource@8:PROC
EXTRN	__imp__FindResourceW@12:PROC
EXTRN	__imp__WideCharToMultiByte@32:PROC
EXTRN	___stdio_common_vsprintf:PROC
EXTRN	___stdio_common_vsprintf_s:PROC
EXTRN	?AfxThrowMemoryException@@YGXXZ:PROC		; AfxThrowMemoryException
EXTRN	?AfxThrowOleException@@YGXJ@Z:PROC		; AfxThrowOleException
EXTRN	?AfxFindStringResourceHandle@@YGPAUHINSTANCE__@@I@Z:PROC ; AfxFindStringResourceHandle
EXTRN	?AfxGetStringManager@@YGPAUIAtlStringMgr@ATL@@XZ:PROC ; AfxGetStringManager
EXTRN	___std_exception_copy:PROC
EXTRN	___std_exception_destroy:PROC
EXTRN	??_Eexception@std@@UAEPAXI@Z:PROC		; std::exception::`vector deleting destructor'
EXTRN	??_Ebad_alloc@std@@UAEPAXI@Z:PROC		; std::bad_alloc::`vector deleting destructor'
EXTRN	??_Ebad_array_new_length@std@@UAEPAXI@Z:PROC	; std::bad_array_new_length::`vector deleting destructor'
EXTRN	?_Xlength_error@std@@YAXPBD@Z:PROC		; std::_Xlength_error
EXTRN	__imp__timeGetTime@0:PROC
EXTRN	?OUTPUTDEBUGSTRING@@YAXPBDZZ:PROC		; OUTPUTDEBUGSTRING
EXTRN	?GetDefineNum@CScript@@SAHPBD@Z:PROC		; CScript::GetDefineNum
EXTRN	?xRandom@@YAKKK@Z:PROC				; xRandom
EXTRN	?Error@@YAPBDPBDZZ:PROC				; Error
EXTRN	?UpdateLocalMatrix@CObj@@QAEXXZ:PROC		; CObj::UpdateLocalMatrix
EXTRN	?Delete@CObj@@QAEXXZ:PROC			; CObj::Delete
EXTRN	?SetPos@CObj@@QAEXABUD3DXVECTOR3@@@Z:PROC	; CObj::SetPos
EXTRN	_lua_type:PROC
EXTRN	_lua_tonumberx:PROC
EXTRN	_lua_toboolean:PROC
EXTRN	_lua_tolstring:PROC
EXTRN	_lua_pushnil:PROC
EXTRN	_lua_pushnumber:PROC
EXTRN	_lua_pushstring:PROC
EXTRN	_lua_next:PROC
EXTRN	??0CLuaBase@@QAE@XZ:PROC			; CLuaBase::CLuaBase
EXTRN	??1CLuaBase@@UAE@XZ:PROC			; CLuaBase::~CLuaBase
EXTRN	?RunScript@CLuaBase@@QAEHPBD@Z:PROC		; CLuaBase::RunScript
EXTRN	?Pop@CLuaBase@@QAEXH@Z:PROC			; CLuaBase::Pop
EXTRN	?GetFieldToNumber@CLuaBase@@QAENHPAD@Z:PROC	; CLuaBase::GetFieldToNumber
EXTRN	?GetFieldToString@CLuaBase@@QAEPBDHPAD@Z:PROC	; CLuaBase::GetFieldToString
EXTRN	?GetLuaFunction@CLuaBase@@QAEHPAD@Z:PROC	; CLuaBase::GetLuaFunction
EXTRN	?CallLuaFunction@CLuaBase@@QAEXHH@Z:PROC	; CLuaBase::CallLuaFunction
EXTRN	??_ECEventLuaProxy@@UAEPAXI@Z:PROC		; CEventLuaProxy::`vector deleting destructor'
EXTRN	??_ECEventLua@@UAEPAXI@Z:PROC			; CEventLua::`vector deleting destructor'
EXTRN	?GetMover@CProject@@QAEPAVCMover@@K@Z:PROC	; CProject::GetMover
EXTRN	?SetSerialNumber@CItemBase@@QAEXXZ:PROC		; CItemBase::SetSerialNumber
EXTRN	?GetName@CItemElem@@QAE?AV?$CStringT@DV?$StrTraitMFC@DV?$ChTraitsCRT@D@ATL@@@@@ATL@@XZ:PROC ; CItemElem::GetName
EXTRN	??0CItemElem@@QAE@XZ:PROC			; CItemElem::CItemElem
EXTRN	??1CItemElem@@UAE@XZ:PROC			; CItemElem::~CItemElem
EXTRN	?GetName@CMover@@QAEPBDH@Z:PROC			; CMover::GetName
EXTRN	?CreateItem@CMover@@QAEHPAVCItemBase@@PAEPAFE@Z:PROC ; CMover::CreateItem
EXTRN	?AddObj@CWorld@@QAEHPAVCObj@@HH@Z:PROC		; CWorld::AddObj
EXTRN	?GetLandHeight@CWorld@@QAEMMM@Z:PROC		; CWorld::GetLandHeight
EXTRN	?CreateObj@@YAPAVCObj@@PAUIDirect3DDevice9@@KKH@Z:PROC ; CreateObj
EXTRN	?AddText@CUser@@QAEXPBD@Z:PROC			; CUser::AddText
EXTRN	?AddDefinedText@CUser@@QAAXHPBDZZ:PROC		; CUser::AddDefinedText
EXTRN	?AddCoupon@CUser@@QAEXH@Z:PROC			; CUser::AddCoupon
EXTRN	?OnLogItem@CDPSrvr@@QAEXAAU_LogItemInfo@@PAVCItemElem@@H@Z:PROC ; CDPSrvr::OnLogItem
EXTRN	?SendQueryPostMail@CDPDatabaseClient@@QAEXKKAAVCItemElem@@HPAD1@Z:PROC ; CDPDatabaseClient::SendQueryPostMail
EXTRN	?GetWorld@CWorldMng@@QAEPAVCWorld@@K@Z:PROC	; CWorldMng::GetWorld
EXTRN	@__security_check_cookie@4:PROC
EXTRN	__CxxThrowException@8:PROC
EXTRN	___CxxFrameHandler3:PROC
EXTRN	__dtol3:PROC
EXTRN	__ftol2:PROC
EXTRN	_memcpy:PROC
EXTRN	_memmove:PROC
EXTRN	_memset:PROC
EXTRN	??_7type_info@@6B@:QWORD			; type_info::`vftable'
EXTRN	?g_next@@3KA:DWORD				; g_next
EXTRN	?prj@@3VCProject@@A:BYTE			; prj
EXTRN	?g_tmCurrent@@3KA:DWORD				; g_tmCurrent
EXTRN	?g_DPSrvr@@3VCDPSrvr@@A:BYTE			; g_DPSrvr
EXTRN	?g_dpDBClient@@3VCDPDatabaseClient@@A:BYTE	; g_dpDBClient
EXTRN	?g_WorldMng@@3VCWorldMng@@A:BYTE		; g_WorldMng
EXTRN	___security_cookie:DWORD
EXTRN	__fltused:DWORD
;	COMDAT ?_OptionsStorage@?1??__local_stdio_printf_options@@9@4_KA
_BSS	SEGMENT
?_OptionsStorage@?1??__local_stdio_printf_options@@9@4_KA DQ 01H DUP (?) ; `__local_stdio_printf_options'::`2'::_OptionsStorage
_BSS	ENDS
;	COMDAT __xmm@41f00000000000000000000000000000
CONST	SEGMENT
__xmm@41f00000000000000000000000000000 DB 00H, 00H, 00H, 00H, 00H, 00H, 00H
	DB	00H, 00H, 00H, 00H, 00H, 00H, 00H, 0f0H, 'A'
CONST	ENDS
;	COMDAT __xmm@00000000000000000000006400000064
CONST	SEGMENT
__xmm@00000000000000000000006400000064 DB 'd', 00H, 00H, 00H, 'd', 00H, 00H
	DB	00H, 00H, 00H, 00H, 00H, 00H, 00H, 00H, 00H
CONST	ENDS
;	COMDAT __real@3f800000
CONST	SEGMENT
__real@3f800000 DD 03f800000r			; 1
CONST	ENDS
;	COMDAT ??_R1A@?0A@EA@CEventLuaProxy@@8
rdata$r	SEGMENT
??_R1A@?0A@EA@CEventLuaProxy@@8 DD FLAT:??_R0?AVCEventLuaProxy@@@8 ; CEventLuaProxy::`RTTI Base Class Descriptor at (0,-1,0,64)'
	DD	00H
	DD	00H
	DD	0ffffffffH
	DD	00H
	DD	040H
	DD	FLAT:??_R3CEventLuaProxy@@8
rdata$r	ENDS
;	COMDAT ??_R2CEventLuaProxy@@8
rdata$r	SEGMENT
??_R2CEventLuaProxy@@8 DD FLAT:??_R1A@?0A@EA@CEventLuaProxy@@8 ; CEventLuaProxy::`RTTI Base Class Array'
rdata$r	ENDS
;	COMDAT ??_R3CEventLuaProxy@@8
rdata$r	SEGMENT
??_R3CEventLuaProxy@@8 DD 00H				; CEventLuaProxy::`RTTI Class Hierarchy Descriptor'
	DD	00H
	DD	01H
	DD	FLAT:??_R2CEventLuaProxy@@8
rdata$r	ENDS
;	COMDAT ??_R0?AVCEventLuaProxy@@@8
data$rs	SEGMENT
??_R0?AVCEventLuaProxy@@@8 DD FLAT:??_7type_info@@6B@	; CEventLuaProxy `RTTI Type Descriptor'
	DD	00H
	DB	'.?AVCEventLuaProxy@@', 00H
data$rs	ENDS
;	COMDAT ??_R4CEventLuaProxy@@6B@
rdata$r	SEGMENT
??_R4CEventLuaProxy@@6B@ DD 00H				; CEventLuaProxy::`RTTI Complete Object Locator'
	DD	00H
	DD	00H
	DD	FLAT:??_R0?AVCEventLuaProxy@@@8
	DD	FLAT:??_R3CEventLuaProxy@@8
rdata$r	ENDS
;	COMDAT ??_R1A@?0A@EA@CEventLua@@8
rdata$r	SEGMENT
??_R1A@?0A@EA@CEventLua@@8 DD FLAT:??_R0?AVCEventLua@@@8 ; CEventLua::`RTTI Base Class Descriptor at (0,-1,0,64)'
	DD	00H
	DD	00H
	DD	0ffffffffH
	DD	00H
	DD	040H
	DD	FLAT:??_R3CEventLua@@8
rdata$r	ENDS
;	COMDAT ??_R2CEventLua@@8
rdata$r	SEGMENT
??_R2CEventLua@@8 DD FLAT:??_R1A@?0A@EA@CEventLua@@8	; CEventLua::`RTTI Base Class Array'
rdata$r	ENDS
;	COMDAT ??_R3CEventLua@@8
rdata$r	SEGMENT
??_R3CEventLua@@8 DD 00H				; CEventLua::`RTTI Class Hierarchy Descriptor'
	DD	00H
	DD	01H
	DD	FLAT:??_R2CEventLua@@8
rdata$r	ENDS
;	COMDAT ??_R0?AVCEventLua@@@8
data$rs	SEGMENT
??_R0?AVCEventLua@@@8 DD FLAT:??_7type_info@@6B@	; CEventLua `RTTI Type Descriptor'
	DD	00H
	DB	'.?AVCEventLua@@', 00H
data$rs	ENDS
;	COMDAT ??_R4CEventLua@@6B@
rdata$r	SEGMENT
??_R4CEventLua@@6B@ DD 00H				; CEventLua::`RTTI Complete Object Locator'
	DD	00H
	DD	00H
	DD	FLAT:??_R0?AVCEventLua@@@8
	DD	FLAT:??_R3CEventLua@@8
rdata$r	ENDS
;	COMDAT ??_C@_0BN@IAMDMCDM@?6CEventLuaProxy?3?3Initialize?6@
CONST	SEGMENT
??_C@_0BN@IAMDMCDM@?6CEventLuaProxy?3?3Initialize?6@ DB 0aH, 'CEventLuaPr'
	DB	'oxy::Initialize', 0aH, 00H			; `string'
CONST	ENDS
;	COMDAT ??_C@_0BC@JENBNLH@GetShopSellFactor@
CONST	SEGMENT
??_C@_0BC@JENBNLH@GetShopSellFactor@ DB 'GetShopSellFactor', 00H ; `string'
CONST	ENDS
;	COMDAT ??_C@_0BB@DMNIFEGD@GetShopBuyFactor@
CONST	SEGMENT
??_C@_0BB@DMNIFEGD@GetShopBuyFactor@ DB 'GetShopBuyFactor', 00H ; `string'
CONST	ENDS
;	COMDAT ??_C@_0BF@BCGDKDON@GetWeatherEventTitle@
CONST	SEGMENT
??_C@_0BF@BCGDKDON@GetWeatherEventTitle@ DB 'GetWeatherEventTitle', 00H ; `string'
CONST	ENDS
;	COMDAT ??_C@_0BJ@CBMOAIBF@GetWeatherEventExpFactor@
CONST	SEGMENT
??_C@_0BJ@CBMOAIBF@GetWeatherEventExpFactor@ DB 'GetWeatherEventExpFactor'
	DB	00H						; `string'
CONST	ENDS
;	COMDAT ??_C@_0BD@MDJDGFLO@GetKeepConnectItem@
CONST	SEGMENT
??_C@_0BD@MDJDGFLO@GetKeepConnectItem@ DB 'GetKeepConnectItem', 00H ; `string'
CONST	ENDS
;	COMDAT ??_C@_0BD@DPFKGCHP@GetKeepConnectTime@
CONST	SEGMENT
??_C@_0BD@DPFKGCHP@GetKeepConnectTime@ DB 'GetKeepConnectTime', 00H ; `string'
CONST	ENDS
;	COMDAT ??_C@_0DO@COLMFNCF@?6CEventLua?3?3DeleteEndEventProce@
CONST	SEGMENT
??_C@_0DO@COLMFNCF@?6CEventLua?3?3DeleteEndEventProce@ DB 0aH, 'CEventLua'
	DB	'::DeleteEndEventProcess() - m_vecEndSpawnEvent : %d', 00H ; `string'
CONST	ENDS
;	COMDAT ??_C@_0EC@HDKLLJKN@?6CEventLua?3?3DeleteEndEventProce@
CONST	SEGMENT
??_C@_0EC@HDKLLJKN@?6CEventLua?3?3DeleteEndEventProce@ DB 0aH, 'CEventLua'
	DB	'::DeleteEndEventProcess() - ID:%d, %s(%d):%d, Remain:%d', 00H ; `string'
CONST	ENDS
;	COMDAT ??_C@_0ED@GONLAOPM@?6Lua?5Spawn?3?5type?5?$DN?5MONSTER?0?5ind@
CONST	SEGMENT
??_C@_0ED@GONLAOPM@?6Lua?5Spawn?3?5type?5?$DN?5MONSTER?0?5ind@ DB 0aH, 'L'
	DB	'ua Spawn: type = MONSTER, index = %d, world = %d, x = %f, z ='
	DB	' %f', 00H					; `string'
CONST	ENDS
;	COMDAT ??_C@_0EA@NGBNDEML@?6Lua?5Spawn?3?5type?5?$DN?5ITEM?0?5index?5@
CONST	SEGMENT
??_C@_0EA@NGBNDEML@?6Lua?5Spawn?3?5type?5?$DN?5ITEM?0?5index?5@ DB 0aH, 'L'
	DB	'ua Spawn: type = ITEM, index = %d, world = %d, x = %f, z = %f'
	DB	00H						; `string'
CONST	ENDS
;	COMDAT ??_C@_07CBDAANGL@nDayNum@
CONST	SEGMENT
??_C@_07CBDAANGL@nDayNum@ DB 'nDayNum', 00H		; `string'
CONST	ENDS
;	COMDAT ??_C@_05HADFBHMH@strId@
CONST	SEGMENT
??_C@_05HADFBHMH@strId@ DB 'strId', 00H			; `string'
CONST	ENDS
;	COMDAT ??_C@_05OLBMEBNJ@nType@
CONST	SEGMENT
??_C@_05OLBMEBNJ@nType@ DB 'nType', 00H			; `string'
CONST	ENDS
;	COMDAT ??_C@_08HJLLONHE@GetSpawn@
CONST	SEGMENT
??_C@_08HJLLONHE@GetSpawn@ DB 'GetSpawn', 00H		; `string'
CONST	ENDS
;	COMDAT ??_C@_0BC@DBLMBKOM@GetCheerExpFactor@
CONST	SEGMENT
??_C@_0BC@DBLMBKOM@GetCheerExpFactor@ DB 'GetCheerExpFactor', 00H ; `string'
CONST	ENDS
;	COMDAT ??_C@_04OEDFLLKD@?$CC?$CFs?$CC@
CONST	SEGMENT
??_C@_04OEDFLLKD@?$CC?$CFs?$CC@ DB '"%s"', 00H		; `string'
CONST	ENDS
;	COMDAT ??_C@_0BI@BOAOACJA@EVENT_LEVELUP_GIFT_POST@
CONST	SEGMENT
??_C@_0BI@BOAOACJA@EVENT_LEVELUP_GIFT_POST@ DB 'EVENT_LEVELUP_GIFT_POST', 00H ; `string'
CONST	ENDS
;	COMDAT ??_C@_0BD@CEEECHDH@EVENT_LEVELUP_GIFT@
CONST	SEGMENT
??_C@_0BD@CEEECHDH@EVENT_LEVELUP_GIFT@ DB 'EVENT_LEVELUP_GIFT', 00H ; `string'
CONST	ENDS
;	COMDAT ??_C@_01DDCIFGEA@E@
CONST	SEGMENT
??_C@_01DDCIFGEA@E@ DB 'E', 00H				; `string'
CONST	ENDS
;	COMDAT ??_C@_06JHHNJIGB@byFlag@
CONST	SEGMENT
??_C@_06JHHNJIGB@byFlag@ DB 'byFlag', 00H		; `string'
CONST	ENDS
;	COMDAT ??_C@_0DO@JOCEGGGB@CEventLua?3?3SetLevelUpGift?$CI?$CJ?5?9?5I@
CONST	SEGMENT
??_C@_0DO@JOCEGGGB@CEventLua?3?3SetLevelUpGift?$CI?$CJ?5?9?5I@ DB 'CEvent'
	DB	'Lua::SetLevelUpGift() - ItemProp is NULL. ItemId = "%s"', 00H ; `string'
CONST	ENDS
;	COMDAT ??_C@_08GDJLCBND@nItemNum@
CONST	SEGMENT
??_C@_08GDJLCBND@nItemNum@ DB 'nItemNum', 00H		; `string'
CONST	ENDS
;	COMDAT ??_C@_09OFFFBNFE@strItemId@
CONST	SEGMENT
??_C@_09OFFFBNFE@strItemId@ DB 'strItemId', 00H		; `string'
CONST	ENDS
;	COMDAT ??_C@_0P@KENDMHID@GetLevelUpGift@
CONST	SEGMENT
??_C@_0P@KENDMHID@GetLevelUpGift@ DB 'GetLevelUpGift', 00H ; `string'
CONST	ENDS
;	COMDAT ??_C@_0P@JBFAKDCI@GetCouponEvent@
CONST	SEGMENT
??_C@_0P@JBFAKDCI@GetCouponEvent@ DB 'GetCouponEvent', 00H ; `string'
CONST	ENDS
;	COMDAT ??_C@_0BA@NNDCMDIP@GetDefensePower@
CONST	SEGMENT
??_C@_0BA@NNDCMDIP@GetDefensePower@ DB 'GetDefensePower', 00H ; `string'
CONST	ENDS
;	COMDAT ??_C@_0P@DPKGMIHE@GetAttackPower@
CONST	SEGMENT
??_C@_0P@DPKGMIHE@GetAttackPower@ DB 'GetAttackPower', 00H ; `string'
CONST	ENDS
;	COMDAT ??_C@_0N@MGEBMOBO@GetEventInfo@
CONST	SEGMENT
??_C@_0N@MGEBMOBO@GetEventInfo@ DB 'GetEventInfo', 00H	; `string'
CONST	ENDS
;	COMDAT ??_C@_0CC@PNFPDMBJ@ID?5?3?5?$CFd?0?5?5Title?5?3?5?$CFs?0?5?5State?5?3?5@
CONST	SEGMENT
??_C@_0CC@PNFPDMBJ@ID?5?3?5?$CFd?0?5?5Title?5?3?5?$CFs?0?5?5State?5?3?5@ DB 'I'
	DB	'D : %d,  Title : %s,  State : %d', 00H	; `string'
CONST	ENDS
;	COMDAT ??_C@_06PHLKOEGH@nState@
CONST	SEGMENT
??_C@_06PHLKOEGH@nState@ DB 'nState', 00H		; `string'
CONST	ENDS
;	COMDAT ??_C@_08DNBCIPJJ@strTitle@
CONST	SEGMENT
??_C@_08DNBCIPJJ@strTitle@ DB 'strTitle', 00H		; `string'
CONST	ENDS
;	COMDAT ??_C@_03HLJILIDP@nId@
CONST	SEGMENT
??_C@_03HLJILIDP@nId@ DB 'nId', 00H			; `string'
CONST	ENDS
;	COMDAT ??_C@_0BA@LLOGNHHK@GetAllEventList@
CONST	SEGMENT
??_C@_0BA@LLOGNHHK@GetAllEventList@ DB 'GetAllEventList', 00H ; `string'
CONST	ENDS
;	COMDAT ??_C@_0BC@EAGMKEGO@GetGoldDropFactor@
CONST	SEGMENT
??_C@_0BC@EAGMKEGO@GetGoldDropFactor@ DB 'GetGoldDropFactor', 00H ; `string'
CONST	ENDS
;	COMDAT ??_C@_0BF@KBKPCOBF@GetPieceItemDropRate@
CONST	SEGMENT
??_C@_0BF@KBKPCOBF@GetPieceItemDropRate@ DB 'GetPieceItemDropRate', 00H ; `string'
CONST	ENDS
;	COMDAT ??_C@_0BA@MLJLEPOJ@GetItemDropRate@
CONST	SEGMENT
??_C@_0BA@MLJLEPOJ@GetItemDropRate@ DB 'GetItemDropRate', 00H ; `string'
CONST	ENDS
;	COMDAT ??_C@_0N@NBPJBJNN@GetExpFactor@
CONST	SEGMENT
??_C@_0N@NBPJBJNN@GetExpFactor@ DB 'GetExpFactor', 00H	; `string'
CONST	ENDS
;	COMDAT ??_C@_07HEBBLACC@ItemNum@
CONST	SEGMENT
??_C@_07HEBBLACC@ItemNum@ DB 'ItemNum', 00H		; `string'
CONST	ENDS
;	COMDAT ??_C@_06MFPHJAPD@ItemId@
CONST	SEGMENT
??_C@_06MFPHJAPD@ItemId@ DB 'ItemId', 00H		; `string'
CONST	ENDS
;	COMDAT ??_C@_07NPEJNGCF@GetItem@
CONST	SEGMENT
??_C@_07NPEJNGCF@GetItem@ DB 'GetItem', 00H		; `string'
CONST	ENDS
;	COMDAT ??_C@_07EJFENACC@GetDesc@
CONST	SEGMENT
??_C@_07EJFENACC@GetDesc@ DB 'GetDesc', 00H		; `string'
CONST	ENDS
;	COMDAT ??_C@_08JMKFDPFL@SetState@
CONST	SEGMENT
??_C@_08JMKFDPFL@SetState@ DB 'SetState', 00H		; `string'
CONST	ENDS
;	COMDAT ??_C@_0BH@KMCEPDIF@Event?4lua?5?$LN?G?G?$OA?5?$LN?G?F?P?$CB?$CB?$CB@
CONST	SEGMENT
??_C@_0BH@KMCEPDIF@Event?4lua?5?$LN?G?G?$OA?5?$LN?G?F?P?$CB?$CB?$CB@ DB 'E'
	DB	'vent.lua ', 0bdH, 0c7H, 0c7H, 0e0H, ' ', 0bdH, 0c7H, 0c6H, 0d0H
	DB	'!!!', 00H					; `string'
CONST	ENDS
;	COMDAT ??_C@_09BFLDBOAB@Event?4lua@
CONST	SEGMENT
??_C@_09BFLDBOAB@Event?4lua@ DB 'Event.lua', 00H	; `string'
CONST	ENDS
;	COMDAT ??_C@_0N@CAKNNDNG@GetEventList@
CONST	SEGMENT
??_C@_0N@CAKNNDNG@GetEventList@ DB 'GetEventList', 00H	; `string'
CONST	ENDS
;	COMDAT ??_R4bad_alloc@std@@6B@
rdata$r	SEGMENT
??_R4bad_alloc@std@@6B@ DD 00H				; std::bad_alloc::`RTTI Complete Object Locator'
	DD	00H
	DD	00H
	DD	FLAT:??_R0?AVbad_alloc@std@@@8
	DD	FLAT:??_R3bad_alloc@std@@8
rdata$r	ENDS
;	COMDAT ??_R2bad_alloc@std@@8
rdata$r	SEGMENT
??_R2bad_alloc@std@@8 DD FLAT:??_R1A@?0A@EA@bad_alloc@std@@8 ; std::bad_alloc::`RTTI Base Class Array'
	DD	FLAT:??_R1A@?0A@EA@exception@std@@8
rdata$r	ENDS
;	COMDAT ??_R3bad_alloc@std@@8
rdata$r	SEGMENT
??_R3bad_alloc@std@@8 DD 00H				; std::bad_alloc::`RTTI Class Hierarchy Descriptor'
	DD	00H
	DD	02H
	DD	FLAT:??_R2bad_alloc@std@@8
rdata$r	ENDS
;	COMDAT ??_R1A@?0A@EA@bad_alloc@std@@8
rdata$r	SEGMENT
??_R1A@?0A@EA@bad_alloc@std@@8 DD FLAT:??_R0?AVbad_alloc@std@@@8 ; std::bad_alloc::`RTTI Base Class Descriptor at (0,-1,0,64)'
	DD	01H
	DD	00H
	DD	0ffffffffH
	DD	00H
	DD	040H
	DD	FLAT:??_R3bad_alloc@std@@8
rdata$r	ENDS
;	COMDAT ??_R1A@?0A@EA@bad_array_new_length@std@@8
rdata$r	SEGMENT
??_R1A@?0A@EA@bad_array_new_length@std@@8 DD FLAT:??_R0?AVbad_array_new_length@std@@@8 ; std::bad_array_new_length::`RTTI Base Class Descriptor at (0,-1,0,64)'
	DD	02H
	DD	00H
	DD	0ffffffffH
	DD	00H
	DD	040H
	DD	FLAT:??_R3bad_array_new_length@std@@8
rdata$r	ENDS
;	COMDAT ??_R2bad_array_new_length@std@@8
rdata$r	SEGMENT
??_R2bad_array_new_length@std@@8 DD FLAT:??_R1A@?0A@EA@bad_array_new_length@std@@8 ; std::bad_array_new_length::`RTTI Base Class Array'
	DD	FLAT:??_R1A@?0A@EA@bad_alloc@std@@8
	DD	FLAT:??_R1A@?0A@EA@exception@std@@8
rdata$r	ENDS
;	COMDAT ??_R3bad_array_new_length@std@@8
rdata$r	SEGMENT
??_R3bad_array_new_length@std@@8 DD 00H			; std::bad_array_new_length::`RTTI Class Hierarchy Descriptor'
	DD	00H
	DD	03H
	DD	FLAT:??_R2bad_array_new_length@std@@8
rdata$r	ENDS
;	COMDAT ??_R4bad_array_new_length@std@@6B@
rdata$r	SEGMENT
??_R4bad_array_new_length@std@@6B@ DD 00H		; std::bad_array_new_length::`RTTI Complete Object Locator'
	DD	00H
	DD	00H
	DD	FLAT:??_R0?AVbad_array_new_length@std@@@8
	DD	FLAT:??_R3bad_array_new_length@std@@8
rdata$r	ENDS
;	COMDAT ??_R1A@?0A@EA@exception@std@@8
rdata$r	SEGMENT
??_R1A@?0A@EA@exception@std@@8 DD FLAT:??_R0?AVexception@std@@@8 ; std::exception::`RTTI Base Class Descriptor at (0,-1,0,64)'
	DD	00H
	DD	00H
	DD	0ffffffffH
	DD	00H
	DD	040H
	DD	FLAT:??_R3exception@std@@8
rdata$r	ENDS
;	COMDAT ??_R2exception@std@@8
rdata$r	SEGMENT
??_R2exception@std@@8 DD FLAT:??_R1A@?0A@EA@exception@std@@8 ; std::exception::`RTTI Base Class Array'
rdata$r	ENDS
;	COMDAT ??_R3exception@std@@8
rdata$r	SEGMENT
??_R3exception@std@@8 DD 00H				; std::exception::`RTTI Class Hierarchy Descriptor'
	DD	00H
	DD	01H
	DD	FLAT:??_R2exception@std@@8
rdata$r	ENDS
;	COMDAT ??_R4exception@std@@6B@
rdata$r	SEGMENT
??_R4exception@std@@6B@ DD 00H				; std::exception::`RTTI Complete Object Locator'
	DD	00H
	DD	00H
	DD	FLAT:??_R0?AVexception@std@@@8
	DD	FLAT:??_R3exception@std@@8
rdata$r	ENDS
;	COMDAT ??_C@_0BA@FOIKENOD@vector?5too?5long@
CONST	SEGMENT
??_C@_0BA@FOIKENOD@vector?5too?5long@ DB 'vector too long', 00H ; `string'
CONST	ENDS
;	COMDAT ??_C@_0BJ@GKPOBPPI@GetMoverProp?5range_error@
CONST	SEGMENT
??_C@_0BJ@GKPOBPPI@GetMoverProp?5range_error@ DB 'GetMoverProp range_erro'
	DB	'r', 00H					; `string'
CONST	ENDS
;	COMDAT ??_C@_0BI@BEIFNGEL@GetItemProp?5range_error@
CONST	SEGMENT
??_C@_0BI@BEIFNGEL@GetItemProp?5range_error@ DB 'GetItemProp range_error', 00H ; `string'
CONST	ENDS
;	COMDAT ??_C@_0BM@HMFGHCP@?$CFs?5min?3?$CFd?0?5max?3?$CFd?0?5index?3?$CFd@
CONST	SEGMENT
??_C@_0BM@HMFGHCP@?$CFs?5min?3?$CFd?0?5max?3?$CFd?0?5index?3?$CFd@ DB '%s'
	DB	' min:%d, max:%d, index:%d', 00H		; `string'
CONST	ENDS
;	COMDAT ??_7CEventLua@@6B@
CONST	SEGMENT
??_7CEventLua@@6B@ DD FLAT:??_R4CEventLua@@6B@		; CEventLua::`vftable'
	DD	FLAT:??_ECEventLua@@UAEPAXI@Z
CONST	ENDS
;	COMDAT ??_7CEventLuaProxy@@6B@
CONST	SEGMENT
??_7CEventLuaProxy@@6B@ DD FLAT:??_R4CEventLuaProxy@@6B@ ; CEventLuaProxy::`vftable'
	DD	FLAT:??_ECEventLuaProxy@@UAEPAXI@Z
CONST	ENDS
;	COMDAT ??_C@_0BB@GCADKGJO@map?1set?5too?5long@
CONST	SEGMENT
??_C@_0BB@GCADKGJO@map?1set?5too?5long@ DB 'map/set too long', 00H ; `string'
CONST	ENDS
;	COMDAT ??_C@_0BA@JFNIOLAK@string?5too?5long@
CONST	SEGMENT
??_C@_0BA@JFNIOLAK@string?5too?5long@ DB 'string too long', 00H ; `string'
CONST	ENDS
;	COMDAT __CT??_R0?AVbad_alloc@std@@@8??0bad_alloc@std@@QAE@ABV01@@Z12
xdata$x	SEGMENT
__CT??_R0?AVbad_alloc@std@@@8??0bad_alloc@std@@QAE@ABV01@@Z12 DD 010H
	DD	FLAT:??_R0?AVbad_alloc@std@@@8
	DD	00H
	DD	0ffffffffH
	ORG $+4
	DD	0cH
	DD	FLAT:??0bad_alloc@std@@QAE@ABV01@@Z
xdata$x	ENDS
;	COMDAT ??_R0?AVbad_alloc@std@@@8
data$r	SEGMENT
??_R0?AVbad_alloc@std@@@8 DD FLAT:??_7type_info@@6B@	; std::bad_alloc `RTTI Type Descriptor'
	DD	00H
	DB	'.?AVbad_alloc@std@@', 00H
data$r	ENDS
;	COMDAT __CT??_R0?AVbad_array_new_length@std@@@8??0bad_array_new_length@std@@QAE@ABV01@@Z12
xdata$x	SEGMENT
__CT??_R0?AVbad_array_new_length@std@@@8??0bad_array_new_length@std@@QAE@ABV01@@Z12 DD 00H
	DD	FLAT:??_R0?AVbad_array_new_length@std@@@8
	DD	00H
	DD	0ffffffffH
	ORG $+4
	DD	0cH
	DD	FLAT:??0bad_array_new_length@std@@QAE@ABV01@@Z
xdata$x	ENDS
;	COMDAT ??_R0?AVbad_array_new_length@std@@@8
data$r	SEGMENT
??_R0?AVbad_array_new_length@std@@@8 DD FLAT:??_7type_info@@6B@ ; std::bad_array_new_length `RTTI Type Descriptor'
	DD	00H
	DB	'.?AVbad_array_new_length@std@@', 00H
data$r	ENDS
;	COMDAT __CTA3?AVbad_array_new_length@std@@
xdata$x	SEGMENT
__CTA3?AVbad_array_new_length@std@@ DD 03H
	DD	FLAT:__CT??_R0?AVbad_array_new_length@std@@@8??0bad_array_new_length@std@@QAE@ABV01@@Z12
	DD	FLAT:__CT??_R0?AVbad_alloc@std@@@8??0bad_alloc@std@@QAE@ABV01@@Z12
	DD	FLAT:__CT??_R0?AVexception@std@@@8??0exception@std@@QAE@ABV01@@Z12
xdata$x	ENDS
;	COMDAT __TI3?AVbad_array_new_length@std@@
xdata$x	SEGMENT
__TI3?AVbad_array_new_length@std@@ DD 00H
	DD	FLAT:??1bad_array_new_length@std@@UAE@XZ
	DD	00H
	DD	FLAT:__CTA3?AVbad_array_new_length@std@@
xdata$x	ENDS
;	COMDAT __CT??_R0?AVexception@std@@@8??0exception@std@@QAE@ABV01@@Z12
xdata$x	SEGMENT
__CT??_R0?AVexception@std@@@8??0exception@std@@QAE@ABV01@@Z12 DD 00H
	DD	FLAT:??_R0?AVexception@std@@@8
	DD	00H
	DD	0ffffffffH
	ORG $+4
	DD	0cH
	DD	FLAT:??0exception@std@@QAE@ABV01@@Z
xdata$x	ENDS
;	COMDAT ??_R0?AVexception@std@@@8
data$r	SEGMENT
??_R0?AVexception@std@@@8 DD FLAT:??_7type_info@@6B@	; std::exception `RTTI Type Descriptor'
	DD	00H
	DB	'.?AVexception@std@@', 00H
data$r	ENDS
;	COMDAT ??_C@_0BF@KINCDENJ@bad?5array?5new?5length@
CONST	SEGMENT
??_C@_0BF@KINCDENJ@bad?5array?5new?5length@ DB 'bad array new length', 00H ; `string'
CONST	ENDS
;	COMDAT ??_7bad_array_new_length@std@@6B@
CONST	SEGMENT
??_7bad_array_new_length@std@@6B@ DD FLAT:??_R4bad_array_new_length@std@@6B@ ; std::bad_array_new_length::`vftable'
	DD	FLAT:??_Ebad_array_new_length@std@@UAEPAXI@Z
	DD	FLAT:?what@exception@std@@UBEPBDXZ
CONST	ENDS
;	COMDAT ??_7bad_alloc@std@@6B@
CONST	SEGMENT
??_7bad_alloc@std@@6B@ DD FLAT:??_R4bad_alloc@std@@6B@	; std::bad_alloc::`vftable'
	DD	FLAT:??_Ebad_alloc@std@@UAEPAXI@Z
	DD	FLAT:?what@exception@std@@UBEPBDXZ
CONST	ENDS
;	COMDAT ??_C@_0BC@EOODALEL@Unknown?5exception@
CONST	SEGMENT
??_C@_0BC@EOODALEL@Unknown?5exception@ DB 'Unknown exception', 00H ; `string'
CONST	ENDS
;	COMDAT ??_7exception@std@@6B@
CONST	SEGMENT
??_7exception@std@@6B@ DD FLAT:??_R4exception@std@@6B@	; std::exception::`vftable'
	DD	FLAT:??_Eexception@std@@UAEPAXI@Z
	DD	FLAT:?what@exception@std@@UBEPBDXZ
CONST	ENDS
;	COMDAT ??_C@_00CNPNBAHC@@
CONST	SEGMENT
??_C@_00CNPNBAHC@@ DB 00H				; `string'
CONST	ENDS
;	COMDAT xdata$x
xdata$x	SEGMENT
__unwindtable$??$?0U?$pair@EV?$vector@U__SPAWNINFO@CEventLua@@V?$allocator@U__SPAWNINFO@CEventLua@@@std@@@std@@@std@@@?$_Tree_temp_node@V?$allocator@U?$_Tree_node@U?$pair@$$CBEV?$vector@U__SPAWNINFO@CEventLua@@V?$allocator@U__SPAWNINFO@CEventLua@@@std@@@std@@@std@@PAX@std@@@std@@@std@@QAE@AAV?$allocator@U?$_Tree_node@U?$pair@$$CBEV?$vector@U__SPAWNINFO@CEventLua@@V?$allocator@U__SPAWNINFO@CEventLua@@@std@@@std@@@std@@PAX@std@@@1@PAU?$_Tree_node@U?$pair@$$CBEV?$vector@U__SPAWNINFO@CEventLua@@V?$allocator@U__SPAWNINFO@CEventLua@@@std@@@std@@@std@@PAX@1@$$QAU?$pair@EV?$vector@U__SPAWNINFO@CEventLua@@V?$allocator@U__SPAWNINFO@CEventLua@@@std@@@std@@@1@@Z DD 0ffffffffH
	DD	FLAT:__unwindfunclet$??$?0U?$pair@EV?$vector@U__SPAWNINFO@CEventLua@@V?$allocator@U__SPAWNINFO@CEventLua@@@std@@@std@@@std@@@?$_Tree_temp_node@V?$allocator@U?$_Tree_node@U?$pair@$$CBEV?$vector@U__SPAWNINFO@CEventLua@@V?$allocator@U__SPAWNINFO@CEventLua@@@std@@@std@@@std@@PAX@std@@@std@@@std@@QAE@AAV?$allocator@U?$_Tree_node@U?$pair@$$CBEV?$vector@U__SPAWNINFO@CEventLua@@V?$allocator@U__SPAWNINFO@CEventLua@@@std@@@std@@@std@@PAX@std@@@1@PAU?$_Tree_node@U?$pair@$$CBEV?$vector@U__SPAWNINFO@CEventLua@@V?$allocator@U__SPAWNINFO@CEventLua@@@std@@@std@@@std@@PAX@1@$$QAU?$pair@EV?$vector@U__SPAWNINFO@CEventLua@@V?$allocator@U__SPAWNINFO@CEventLua@@@std@@@std@@@1@@Z$1
__ehfuncinfo$??$?0U?$pair@EV?$vector@U__SPAWNINFO@CEventLua@@V?$allocator@U__SPAWNINFO@CEventLua@@@std@@@std@@@std@@@?$_Tree_temp_node@V?$allocator@U?$_Tree_node@U?$pair@$$CBEV?$vector@U__SPAWNINFO@CEventLua@@V?$allocator@U__SPAWNINFO@CEventLua@@@std@@@std@@@std@@PAX@std@@@std@@@std@@QAE@AAV?$allocator@U?$_Tree_node@U?$pair@$$CBEV?$vector@U__SPAWNINFO@CEventLua@@V?$allocator@U__SPAWNINFO@CEventLua@@@std@@@std@@@std@@PAX@std@@@1@PAU?$_Tree_node@U?$pair@$$CBEV?$vector@U__SPAWNINFO@CEventLua@@V?$allocator@U__SPAWNINFO@CEventLua@@@std@@@std@@@std@@PAX@1@$$QAU?$pair@EV?$vector@U__SPAWNINFO@CEventLua@@V?$allocator@U__SPAWNINFO@CEventLua@@@std@@@std@@@1@@Z DD 019930522H
	DD	01H
	DD	FLAT:__unwindtable$??$?0U?$pair@EV?$vector@U__SPAWNINFO@CEventLua@@V?$allocator@U__SPAWNINFO@CEventLua@@@std@@@std@@@std@@@?$_Tree_temp_node@V?$allocator@U?$_Tree_node@U?$pair@$$CBEV?$vector@U__SPAWNINFO@CEventLua@@V?$allocator@U__SPAWNINFO@CEventLua@@@std@@@std@@@std@@PAX@std@@@std@@@std@@QAE@AAV?$allocator@U?$_Tree_node@U?$pair@$$CBEV?$vector@U__SPAWNINFO@CEventLua@@V?$allocator@U__SPAWNINFO@CEventLua@@@std@@@std@@@std@@PAX@std@@@1@PAU?$_Tree_node@U?$pair@$$CBEV?$vector@U__SPAWNINFO@CEventLua@@V?$allocator@U__SPAWNINFO@CEventLua@@@std@@@std@@@std@@PAX@1@$$QAU?$pair@EV?$vector@U__SPAWNINFO@CEventLua@@V?$allocator@U__SPAWNINFO@CEventLua@@@std@@@std@@@1@@Z
	DD	2 DUP(00H)
	DD	2 DUP(00H)
	DD	00H
	DD	01H
xdata$x	ENDS
;	COMDAT xdata$x
xdata$x	SEGMENT
__unwindtable$??0?$_Tree_temp_node_alloc@V?$allocator@U?$_Tree_node@U?$pair@$$CBEV?$vector@U__SPAWNINFO@CEventLua@@V?$allocator@U__SPAWNINFO@CEventLua@@@std@@@std@@@std@@PAX@std@@@std@@@std@@QAE@AAV?$allocator@U?$_Tree_node@U?$pair@$$CBEV?$vector@U__SPAWNINFO@CEventLua@@V?$allocator@U__SPAWNINFO@CEventLua@@@std@@@std@@@std@@PAX@std@@@1@@Z DD 0ffffffffH
	DD	FLAT:__unwindfunclet$??0?$_Tree_temp_node_alloc@V?$allocator@U?$_Tree_node@U?$pair@$$CBEV?$vector@U__SPAWNINFO@CEventLua@@V?$allocator@U__SPAWNINFO@CEventLua@@@std@@@std@@@std@@PAX@std@@@std@@@std@@QAE@AAV?$allocator@U?$_Tree_node@U?$pair@$$CBEV?$vector@U__SPAWNINFO@CEventLua@@V?$allocator@U__SPAWNINFO@CEventLua@@@std@@@std@@@std@@PAX@std@@@1@@Z$0
__ehfuncinfo$??0?$_Tree_temp_node_alloc@V?$allocator@U?$_Tree_node@U?$pair@$$CBEV?$vector@U__SPAWNINFO@CEventLua@@V?$allocator@U__SPAWNINFO@CEventLua@@@std@@@std@@@std@@PAX@std@@@std@@@std@@QAE@AAV?$allocator@U?$_Tree_node@U?$pair@$$CBEV?$vector@U__SPAWNINFO@CEventLua@@V?$allocator@U__SPAWNINFO@CEventLua@@@std@@@std@@@std@@PAX@std@@@1@@Z DD 019930522H
	DD	01H
	DD	FLAT:__unwindtable$??0?$_Tree_temp_node_alloc@V?$allocator@U?$_Tree_node@U?$pair@$$CBEV?$vector@U__SPAWNINFO@CEventLua@@V?$allocator@U__SPAWNINFO@CEventLua@@@std@@@std@@@std@@PAX@std@@@std@@@std@@QAE@AAV?$allocator@U?$_Tree_node@U?$pair@$$CBEV?$vector@U__SPAWNINFO@CEventLua@@V?$allocator@U__SPAWNINFO@CEventLua@@@std@@@std@@@std@@PAX@std@@@1@@Z
	DD	2 DUP(00H)
	DD	2 DUP(00H)
	DD	00H
	DD	01H
xdata$x	ENDS
;	COMDAT xdata$x
xdata$x	SEGMENT
__unwindtable$??$?0U?$pair@KE@std@@@?$_Tree_temp_node@V?$allocator@U?$_Tree_node@U?$pair@$$CBKE@std@@PAX@std@@@std@@@std@@QAE@AAV?$allocator@U?$_Tree_node@U?$pair@$$CBKE@std@@PAX@std@@@1@PAU?$_Tree_node@U?$pair@$$CBKE@std@@PAX@1@$$QAU?$pair@KE@1@@Z DD 0ffffffffH
	DD	FLAT:__unwindfunclet$??$?0U?$pair@KE@std@@@?$_Tree_temp_node@V?$allocator@U?$_Tree_node@U?$pair@$$CBKE@std@@PAX@std@@@std@@@std@@QAE@AAV?$allocator@U?$_Tree_node@U?$pair@$$CBKE@std@@PAX@std@@@1@PAU?$_Tree_node@U?$pair@$$CBKE@std@@PAX@1@$$QAU?$pair@KE@1@@Z$1
__ehfuncinfo$??$?0U?$pair@KE@std@@@?$_Tree_temp_node@V?$allocator@U?$_Tree_node@U?$pair@$$CBKE@std@@PAX@std@@@std@@@std@@QAE@AAV?$allocator@U?$_Tree_node@U?$pair@$$CBKE@std@@PAX@std@@@1@PAU?$_Tree_node@U?$pair@$$CBKE@std@@PAX@1@$$QAU?$pair@KE@1@@Z DD 019930522H
	DD	01H
	DD	FLAT:__unwindtable$??$?0U?$pair@KE@std@@@?$_Tree_temp_node@V?$allocator@U?$_Tree_node@U?$pair@$$CBKE@std@@PAX@std@@@std@@@std@@QAE@AAV?$allocator@U?$_Tree_node@U?$pair@$$CBKE@std@@PAX@std@@@1@PAU?$_Tree_node@U?$pair@$$CBKE@std@@PAX@1@$$QAU?$pair@KE@1@@Z
	DD	2 DUP(00H)
	DD	2 DUP(00H)
	DD	00H
	DD	01H
xdata$x	ENDS
;	COMDAT xdata$x
xdata$x	SEGMENT
__unwindtable$??0?$_Tree_temp_node_alloc@V?$allocator@U?$_Tree_node@U?$pair@$$CBKE@std@@PAX@std@@@std@@@std@@QAE@AAV?$allocator@U?$_Tree_node@U?$pair@$$CBKE@std@@PAX@std@@@1@@Z DD 0ffffffffH
	DD	FLAT:__unwindfunclet$??0?$_Tree_temp_node_alloc@V?$allocator@U?$_Tree_node@U?$pair@$$CBKE@std@@PAX@std@@@std@@@std@@QAE@AAV?$allocator@U?$_Tree_node@U?$pair@$$CBKE@std@@PAX@std@@@1@@Z$0
__ehfuncinfo$??0?$_Tree_temp_node_alloc@V?$allocator@U?$_Tree_node@U?$pair@$$CBKE@std@@PAX@std@@@std@@@std@@QAE@AAV?$allocator@U?$_Tree_node@U?$pair@$$CBKE@std@@PAX@std@@@1@@Z DD 019930522H
	DD	01H
	DD	FLAT:__unwindtable$??0?$_Tree_temp_node_alloc@V?$allocator@U?$_Tree_node@U?$pair@$$CBKE@std@@PAX@std@@@std@@@std@@QAE@AAV?$allocator@U?$_Tree_node@U?$pair@$$CBKE@std@@PAX@std@@@1@@Z
	DD	2 DUP(00H)
	DD	2 DUP(00H)
	DD	00H
	DD	01H
xdata$x	ENDS
;	COMDAT xdata$x
xdata$x	SEGMENT
__unwindtable$??$?0U?$pair@KH@std@@@?$_Tree_temp_node@V?$allocator@U?$_Tree_node@U?$pair@$$CBKH@std@@PAX@std@@@std@@@std@@QAE@AAV?$allocator@U?$_Tree_node@U?$pair@$$CBKH@std@@PAX@std@@@1@PAU?$_Tree_node@U?$pair@$$CBKH@std@@PAX@1@$$QAU?$pair@KH@1@@Z DD 0ffffffffH
	DD	FLAT:__unwindfunclet$??$?0U?$pair@KH@std@@@?$_Tree_temp_node@V?$allocator@U?$_Tree_node@U?$pair@$$CBKH@std@@PAX@std@@@std@@@std@@QAE@AAV?$allocator@U?$_Tree_node@U?$pair@$$CBKH@std@@PAX@std@@@1@PAU?$_Tree_node@U?$pair@$$CBKH@std@@PAX@1@$$QAU?$pair@KH@1@@Z$1
__ehfuncinfo$??$?0U?$pair@KH@std@@@?$_Tree_temp_node@V?$allocator@U?$_Tree_node@U?$pair@$$CBKH@std@@PAX@std@@@std@@@std@@QAE@AAV?$allocator@U?$_Tree_node@U?$pair@$$CBKH@std@@PAX@std@@@1@PAU?$_Tree_node@U?$pair@$$CBKH@std@@PAX@1@$$QAU?$pair@KH@1@@Z DD 019930522H
	DD	01H
	DD	FLAT:__unwindtable$??$?0U?$pair@KH@std@@@?$_Tree_temp_node@V?$allocator@U?$_Tree_node@U?$pair@$$CBKH@std@@PAX@std@@@std@@@std@@QAE@AAV?$allocator@U?$_Tree_node@U?$pair@$$CBKH@std@@PAX@std@@@1@PAU?$_Tree_node@U?$pair@$$CBKH@std@@PAX@1@$$QAU?$pair@KH@1@@Z
	DD	2 DUP(00H)
	DD	2 DUP(00H)
	DD	00H
	DD	01H
xdata$x	ENDS
;	COMDAT xdata$x
xdata$x	SEGMENT
__unwindtable$??$_Emplace@U?$pair@EV?$vector@U__SPAWNINFO@CEventLua@@V?$allocator@U__SPAWNINFO@CEventLua@@@std@@@std@@@std@@@?$_Tree@V?$_Tmap_traits@EV?$vector@U__SPAWNINFO@CEventLua@@V?$allocator@U__SPAWNINFO@CEventLua@@@std@@@std@@U?$less@E@2@V?$allocator@U?$pair@$$CBEV?$vector@U__SPAWNINFO@CEventLua@@V?$allocator@U__SPAWNINFO@CEventLua@@@std@@@std@@@std@@@2@$0A@@std@@@std@@IAE?AU?$pair@PAU?$_Tree_node@U?$pair@$$CBEV?$vector@U__SPAWNINFO@CEventLua@@V?$allocator@U__SPAWNINFO@CEventLua@@@std@@@std@@@std@@PAX@std@@_N@1@$$QAU?$pair@EV?$vector@U__SPAWNINFO@CEventLua@@V?$allocator@U__SPAWNINFO@CEventLua@@@std@@@std@@@1@@Z DD 0ffffffffH
	DD	FLAT:__unwindfunclet$??$_Emplace@U?$pair@EV?$vector@U__SPAWNINFO@CEventLua@@V?$allocator@U__SPAWNINFO@CEventLua@@@std@@@std@@@std@@@?$_Tree@V?$_Tmap_traits@EV?$vector@U__SPAWNINFO@CEventLua@@V?$allocator@U__SPAWNINFO@CEventLua@@@std@@@std@@U?$less@E@2@V?$allocator@U?$pair@$$CBEV?$vector@U__SPAWNINFO@CEventLua@@V?$allocator@U__SPAWNINFO@CEventLua@@@std@@@std@@@std@@@2@$0A@@std@@@std@@IAE?AU?$pair@PAU?$_Tree_node@U?$pair@$$CBEV?$vector@U__SPAWNINFO@CEventLua@@V?$allocator@U__SPAWNINFO@CEventLua@@@std@@@std@@@std@@PAX@std@@_N@1@$$QAU?$pair@EV?$vector@U__SPAWNINFO@CEventLua@@V?$allocator@U__SPAWNINFO@CEventLua@@@std@@@std@@@1@@Z$2
__ehfuncinfo$??$_Emplace@U?$pair@EV?$vector@U__SPAWNINFO@CEventLua@@V?$allocator@U__SPAWNINFO@CEventLua@@@std@@@std@@@std@@@?$_Tree@V?$_Tmap_traits@EV?$vector@U__SPAWNINFO@CEventLua@@V?$allocator@U__SPAWNINFO@CEventLua@@@std@@@std@@U?$less@E@2@V?$allocator@U?$pair@$$CBEV?$vector@U__SPAWNINFO@CEventLua@@V?$allocator@U__SPAWNINFO@CEventLua@@@std@@@std@@@std@@@2@$0A@@std@@@std@@IAE?AU?$pair@PAU?$_Tree_node@U?$pair@$$CBEV?$vector@U__SPAWNINFO@CEventLua@@V?$allocator@U__SPAWNINFO@CEventLua@@@std@@@std@@@std@@PAX@std@@_N@1@$$QAU?$pair@EV?$vector@U__SPAWNINFO@CEventLua@@V?$allocator@U__SPAWNINFO@CEventLua@@@std@@@std@@@1@@Z DD 019930522H
	DD	01H
	DD	FLAT:__unwindtable$??$_Emplace@U?$pair@EV?$vector@U__SPAWNINFO@CEventLua@@V?$allocator@U__SPAWNINFO@CEventLua@@@std@@@std@@@std@@@?$_Tree@V?$_Tmap_traits@EV?$vector@U__SPAWNINFO@CEventLua@@V?$allocator@U__SPAWNINFO@CEventLua@@@std@@@std@@U?$less@E@2@V?$allocator@U?$pair@$$CBEV?$vector@U__SPAWNINFO@CEventLua@@V?$allocator@U__SPAWNINFO@CEventLua@@@std@@@std@@@std@@@2@$0A@@std@@@std@@IAE?AU?$pair@PAU?$_Tree_node@U?$pair@$$CBEV?$vector@U__SPAWNINFO@CEventLua@@V?$allocator@U__SPAWNINFO@CEventLua@@@std@@@std@@@std@@PAX@std@@_N@1@$$QAU?$pair@EV?$vector@U__SPAWNINFO@CEventLua@@V?$allocator@U__SPAWNINFO@CEventLua@@@std@@@std@@@1@@Z
	DD	2 DUP(00H)
	DD	2 DUP(00H)
	DD	00H
	DD	01H
xdata$x	ENDS
;	COMDAT xdata$x
xdata$x	SEGMENT
__unwindtable$??$_Emplace@U?$pair@KE@std@@@?$_Tree@V?$_Tmap_traits@KEU?$less@K@std@@V?$allocator@U?$pair@$$CBKE@std@@@2@$0A@@std@@@std@@IAE?AU?$pair@PAU?$_Tree_node@U?$pair@$$CBKE@std@@PAX@std@@_N@1@$$QAU?$pair@KE@1@@Z DD 0ffffffffH
	DD	FLAT:__unwindfunclet$??$_Emplace@U?$pair@KE@std@@@?$_Tree@V?$_Tmap_traits@KEU?$less@K@std@@V?$allocator@U?$pair@$$CBKE@std@@@2@$0A@@std@@@std@@IAE?AU?$pair@PAU?$_Tree_node@U?$pair@$$CBKE@std@@PAX@std@@_N@1@$$QAU?$pair@KE@1@@Z$2
__ehfuncinfo$??$_Emplace@U?$pair@KE@std@@@?$_Tree@V?$_Tmap_traits@KEU?$less@K@std@@V?$allocator@U?$pair@$$CBKE@std@@@2@$0A@@std@@@std@@IAE?AU?$pair@PAU?$_Tree_node@U?$pair@$$CBKE@std@@PAX@std@@_N@1@$$QAU?$pair@KE@1@@Z DD 019930522H
	DD	01H
	DD	FLAT:__unwindtable$??$_Emplace@U?$pair@KE@std@@@?$_Tree@V?$_Tmap_traits@KEU?$less@K@std@@V?$allocator@U?$pair@$$CBKE@std@@@2@$0A@@std@@@std@@IAE?AU?$pair@PAU?$_Tree_node@U?$pair@$$CBKE@std@@PAX@std@@_N@1@$$QAU?$pair@KE@1@@Z
	DD	2 DUP(00H)
	DD	2 DUP(00H)
	DD	00H
	DD	01H
xdata$x	ENDS
;	COMDAT xdata$x
xdata$x	SEGMENT
__unwindtable$??$?0U?$pair@$$CBKH@std@@@?$_Tree_temp_node@V?$allocator@U?$_Tree_node@U?$pair@$$CBKH@std@@PAX@std@@@std@@@std@@QAE@AAV?$allocator@U?$_Tree_node@U?$pair@$$CBKH@std@@PAX@std@@@1@PAU?$_Tree_node@U?$pair@$$CBKH@std@@PAX@1@$$QAU?$pair@$$CBKH@1@@Z DD 0ffffffffH
	DD	FLAT:__unwindfunclet$??$?0U?$pair@$$CBKH@std@@@?$_Tree_temp_node@V?$allocator@U?$_Tree_node@U?$pair@$$CBKH@std@@PAX@std@@@std@@@std@@QAE@AAV?$allocator@U?$_Tree_node@U?$pair@$$CBKH@std@@PAX@std@@@1@PAU?$_Tree_node@U?$pair@$$CBKH@std@@PAX@1@$$QAU?$pair@$$CBKH@1@@Z$1
__ehfuncinfo$??$?0U?$pair@$$CBKH@std@@@?$_Tree_temp_node@V?$allocator@U?$_Tree_node@U?$pair@$$CBKH@std@@PAX@std@@@std@@@std@@QAE@AAV?$allocator@U?$_Tree_node@U?$pair@$$CBKH@std@@PAX@std@@@1@PAU?$_Tree_node@U?$pair@$$CBKH@std@@PAX@1@$$QAU?$pair@$$CBKH@1@@Z DD 019930522H
	DD	01H
	DD	FLAT:__unwindtable$??$?0U?$pair@$$CBKH@std@@@?$_Tree_temp_node@V?$allocator@U?$_Tree_node@U?$pair@$$CBKH@std@@PAX@std@@@std@@@std@@QAE@AAV?$allocator@U?$_Tree_node@U?$pair@$$CBKH@std@@PAX@std@@@1@PAU?$_Tree_node@U?$pair@$$CBKH@std@@PAX@1@$$QAU?$pair@$$CBKH@1@@Z
	DD	2 DUP(00H)
	DD	2 DUP(00H)
	DD	00H
	DD	01H
xdata$x	ENDS
;	COMDAT xdata$x
xdata$x	SEGMENT
__unwindtable$??0?$_Tree_temp_node_alloc@V?$allocator@U?$_Tree_node@U?$pair@$$CBKH@std@@PAX@std@@@std@@@std@@QAE@AAV?$allocator@U?$_Tree_node@U?$pair@$$CBKH@std@@PAX@std@@@1@@Z DD 0ffffffffH
	DD	FLAT:__unwindfunclet$??0?$_Tree_temp_node_alloc@V?$allocator@U?$_Tree_node@U?$pair@$$CBKH@std@@PAX@std@@@std@@@std@@QAE@AAV?$allocator@U?$_Tree_node@U?$pair@$$CBKH@std@@PAX@std@@@1@@Z$0
__ehfuncinfo$??0?$_Tree_temp_node_alloc@V?$allocator@U?$_Tree_node@U?$pair@$$CBKH@std@@PAX@std@@@std@@@std@@QAE@AAV?$allocator@U?$_Tree_node@U?$pair@$$CBKH@std@@PAX@std@@@1@@Z DD 019930522H
	DD	01H
	DD	FLAT:__unwindtable$??0?$_Tree_temp_node_alloc@V?$allocator@U?$_Tree_node@U?$pair@$$CBKH@std@@PAX@std@@@std@@@std@@QAE@AAV?$allocator@U?$_Tree_node@U?$pair@$$CBKH@std@@PAX@std@@@1@@Z
	DD	2 DUP(00H)
	DD	2 DUP(00H)
	DD	00H
	DD	01H
xdata$x	ENDS
;	COMDAT xdata$x
xdata$x	SEGMENT
__unwindtable$??$_Emplace@U?$pair@KH@std@@@?$_Tree@V?$_Tmap_traits@KHU?$less@K@std@@V?$allocator@U?$pair@$$CBKH@std@@@2@$0A@@std@@@std@@IAE?AU?$pair@PAU?$_Tree_node@U?$pair@$$CBKH@std@@PAX@std@@_N@1@$$QAU?$pair@KH@1@@Z DD 0ffffffffH
	DD	FLAT:__unwindfunclet$??$_Emplace@U?$pair@KH@std@@@?$_Tree@V?$_Tmap_traits@KHU?$less@K@std@@V?$allocator@U?$pair@$$CBKH@std@@@2@$0A@@std@@@std@@IAE?AU?$pair@PAU?$_Tree_node@U?$pair@$$CBKH@std@@PAX@std@@_N@1@$$QAU?$pair@KH@1@@Z$2
__ehfuncinfo$??$_Emplace@U?$pair@KH@std@@@?$_Tree@V?$_Tmap_traits@KHU?$less@K@std@@V?$allocator@U?$pair@$$CBKH@std@@@2@$0A@@std@@@std@@IAE?AU?$pair@PAU?$_Tree_node@U?$pair@$$CBKH@std@@PAX@std@@_N@1@$$QAU?$pair@KH@1@@Z DD 019930522H
	DD	01H
	DD	FLAT:__unwindtable$??$_Emplace@U?$pair@KH@std@@@?$_Tree@V?$_Tmap_traits@KHU?$less@K@std@@V?$allocator@U?$pair@$$CBKH@std@@@2@$0A@@std@@@std@@IAE?AU?$pair@PAU?$_Tree_node@U?$pair@$$CBKH@std@@PAX@std@@_N@1@$$QAU?$pair@KH@1@@Z
	DD	2 DUP(00H)
	DD	2 DUP(00H)
	DD	00H
	DD	01H
xdata$x	ENDS
;	COMDAT xdata$x
xdata$x	SEGMENT
__unwindtable$??$emplace@U?$pair@EV?$vector@U__SPAWNINFO@CEventLua@@V?$allocator@U__SPAWNINFO@CEventLua@@@std@@@std@@@std@@@?$_Tree@V?$_Tmap_traits@EV?$vector@U__SPAWNINFO@CEventLua@@V?$allocator@U__SPAWNINFO@CEventLua@@@std@@@std@@U?$less@E@2@V?$allocator@U?$pair@$$CBEV?$vector@U__SPAWNINFO@CEventLua@@V?$allocator@U__SPAWNINFO@CEventLua@@@std@@@std@@@std@@@2@$0A@@std@@@std@@QAE?AU?$pair@V?$_Tree_iterator@V?$_Tree_val@U?$_Tree_simple_types@U?$pair@$$CBEV?$vector@U__SPAWNINFO@CEventLua@@V?$allocator@U__SPAWNINFO@CEventLua@@@std@@@std@@@std@@@std@@@std@@@std@@_N@1@$$QAU?$pair@EV?$vector@U__SPAWNINFO@CEventLua@@V?$allocator@U__SPAWNINFO@CEventLua@@@std@@@std@@@1@@Z DD 0ffffffffH
	DD	FLAT:__unwindfunclet$??$emplace@U?$pair@EV?$vector@U__SPAWNINFO@CEventLua@@V?$allocator@U__SPAWNINFO@CEventLua@@@std@@@std@@@std@@@?$_Tree@V?$_Tmap_traits@EV?$vector@U__SPAWNINFO@CEventLua@@V?$allocator@U__SPAWNINFO@CEventLua@@@std@@@std@@U?$less@E@2@V?$allocator@U?$pair@$$CBEV?$vector@U__SPAWNINFO@CEventLua@@V?$allocator@U__SPAWNINFO@CEventLua@@@std@@@std@@@std@@@2@$0A@@std@@@std@@QAE?AU?$pair@V?$_Tree_iterator@V?$_Tree_val@U?$_Tree_simple_types@U?$pair@$$CBEV?$vector@U__SPAWNINFO@CEventLua@@V?$allocator@U__SPAWNINFO@CEventLua@@@std@@@std@@@std@@@std@@@std@@@std@@_N@1@$$QAU?$pair@EV?$vector@U__SPAWNINFO@CEventLua@@V?$allocator@U__SPAWNINFO@CEventLua@@@std@@@std@@@1@@Z$2
__ehfuncinfo$??$emplace@U?$pair@EV?$vector@U__SPAWNINFO@CEventLua@@V?$allocator@U__SPAWNINFO@CEventLua@@@std@@@std@@@std@@@?$_Tree@V?$_Tmap_traits@EV?$vector@U__SPAWNINFO@CEventLua@@V?$allocator@U__SPAWNINFO@CEventLua@@@std@@@std@@U?$less@E@2@V?$allocator@U?$pair@$$CBEV?$vector@U__SPAWNINFO@CEventLua@@V?$allocator@U__SPAWNINFO@CEventLua@@@std@@@std@@@std@@@2@$0A@@std@@@std@@QAE?AU?$pair@V?$_Tree_iterator@V?$_Tree_val@U?$_Tree_simple_types@U?$pair@$$CBEV?$vector@U__SPAWNINFO@CEventLua@@V?$allocator@U__SPAWNINFO@CEventLua@@@std@@@std@@@std@@@std@@@std@@@std@@_N@1@$$QAU?$pair@EV?$vector@U__SPAWNINFO@CEventLua@@V?$allocator@U__SPAWNINFO@CEventLua@@@std@@@std@@@1@@Z DD 019930522H
	DD	01H
	DD	FLAT:__unwindtable$??$emplace@U?$pair@EV?$vector@U__SPAWNINFO@CEventLua@@V?$allocator@U__SPAWNINFO@CEventLua@@@std@@@std@@@std@@@?$_Tree@V?$_Tmap_traits@EV?$vector@U__SPAWNINFO@CEventLua@@V?$allocator@U__SPAWNINFO@CEventLua@@@std@@@std@@U?$less@E@2@V?$allocator@U?$pair@$$CBEV?$vector@U__SPAWNINFO@CEventLua@@V?$allocator@U__SPAWNINFO@CEventLua@@@std@@@std@@@std@@@2@$0A@@std@@@std@@QAE?AU?$pair@V?$_Tree_iterator@V?$_Tree_val@U?$_Tree_simple_types@U?$pair@$$CBEV?$vector@U__SPAWNINFO@CEventLua@@V?$allocator@U__SPAWNINFO@CEventLua@@@std@@@std@@@std@@@std@@@std@@@std@@_N@1@$$QAU?$pair@EV?$vector@U__SPAWNINFO@CEventLua@@V?$allocator@U__SPAWNINFO@CEventLua@@@std@@@std@@@1@@Z
	DD	2 DUP(00H)
	DD	2 DUP(00H)
	DD	00H
	DD	01H
xdata$x	ENDS
;	COMDAT xdata$x
xdata$x	SEGMENT
__unwindtable$??$emplace@U?$pair@KE@std@@@?$_Tree@V?$_Tmap_traits@KEU?$less@K@std@@V?$allocator@U?$pair@$$CBKE@std@@@2@$0A@@std@@@std@@QAE?AU?$pair@V?$_Tree_iterator@V?$_Tree_val@U?$_Tree_simple_types@U?$pair@$$CBKE@std@@@std@@@std@@@std@@_N@1@$$QAU?$pair@KE@1@@Z DD 0ffffffffH
	DD	FLAT:__unwindfunclet$??$emplace@U?$pair@KE@std@@@?$_Tree@V?$_Tmap_traits@KEU?$less@K@std@@V?$allocator@U?$pair@$$CBKE@std@@@2@$0A@@std@@@std@@QAE?AU?$pair@V?$_Tree_iterator@V?$_Tree_val@U?$_Tree_simple_types@U?$pair@$$CBKE@std@@@std@@@std@@@std@@_N@1@$$QAU?$pair@KE@1@@Z$2
__ehfuncinfo$??$emplace@U?$pair@KE@std@@@?$_Tree@V?$_Tmap_traits@KEU?$less@K@std@@V?$allocator@U?$pair@$$CBKE@std@@@2@$0A@@std@@@std@@QAE?AU?$pair@V?$_Tree_iterator@V?$_Tree_val@U?$_Tree_simple_types@U?$pair@$$CBKE@std@@@std@@@std@@@std@@_N@1@$$QAU?$pair@KE@1@@Z DD 019930522H
	DD	01H
	DD	FLAT:__unwindtable$??$emplace@U?$pair@KE@std@@@?$_Tree@V?$_Tmap_traits@KEU?$less@K@std@@V?$allocator@U?$pair@$$CBKE@std@@@2@$0A@@std@@@std@@QAE?AU?$pair@V?$_Tree_iterator@V?$_Tree_val@U?$_Tree_simple_types@U?$pair@$$CBKE@std@@@std@@@std@@@std@@_N@1@$$QAU?$pair@KE@1@@Z
	DD	2 DUP(00H)
	DD	2 DUP(00H)
	DD	00H
	DD	01H
xdata$x	ENDS
;	COMDAT xdata$x
xdata$x	SEGMENT
__unwindtable$??$_Emplace@U?$pair@$$CBKH@std@@@?$_Tree@V?$_Tmap_traits@KHU?$less@K@std@@V?$allocator@U?$pair@$$CBKH@std@@@2@$0A@@std@@@std@@IAE?AU?$pair@PAU?$_Tree_node@U?$pair@$$CBKH@std@@PAX@std@@_N@1@$$QAU?$pair@$$CBKH@1@@Z DD 0ffffffffH
	DD	FLAT:__unwindfunclet$??$_Emplace@U?$pair@$$CBKH@std@@@?$_Tree@V?$_Tmap_traits@KHU?$less@K@std@@V?$allocator@U?$pair@$$CBKH@std@@@2@$0A@@std@@@std@@IAE?AU?$pair@PAU?$_Tree_node@U?$pair@$$CBKH@std@@PAX@std@@_N@1@$$QAU?$pair@$$CBKH@1@@Z$2
__ehfuncinfo$??$_Emplace@U?$pair@$$CBKH@std@@@?$_Tree@V?$_Tmap_traits@KHU?$less@K@std@@V?$allocator@U?$pair@$$CBKH@std@@@2@$0A@@std@@@std@@IAE?AU?$pair@PAU?$_Tree_node@U?$pair@$$CBKH@std@@PAX@std@@_N@1@$$QAU?$pair@$$CBKH@1@@Z DD 019930522H
	DD	01H
	DD	FLAT:__unwindtable$??$_Emplace@U?$pair@$$CBKH@std@@@?$_Tree@V?$_Tmap_traits@KHU?$less@K@std@@V?$allocator@U?$pair@$$CBKH@std@@@2@$0A@@std@@@std@@IAE?AU?$pair@PAU?$_Tree_node@U?$pair@$$CBKH@std@@PAX@std@@_N@1@$$QAU?$pair@$$CBKH@1@@Z
	DD	2 DUP(00H)
	DD	2 DUP(00H)
	DD	00H
	DD	01H
xdata$x	ENDS
;	COMDAT xdata$x
xdata$x	SEGMENT
__unwindtable$??$emplace@U?$pair@KH@std@@@?$_Tree@V?$_Tmap_traits@KHU?$less@K@std@@V?$allocator@U?$pair@$$CBKH@std@@@2@$0A@@std@@@std@@QAE?AU?$pair@V?$_Tree_iterator@V?$_Tree_val@U?$_Tree_simple_types@U?$pair@$$CBKH@std@@@std@@@std@@@std@@_N@1@$$QAU?$pair@KH@1@@Z DD 0ffffffffH
	DD	FLAT:__unwindfunclet$??$emplace@U?$pair@KH@std@@@?$_Tree@V?$_Tmap_traits@KHU?$less@K@std@@V?$allocator@U?$pair@$$CBKH@std@@@2@$0A@@std@@@std@@QAE?AU?$pair@V?$_Tree_iterator@V?$_Tree_val@U?$_Tree_simple_types@U?$pair@$$CBKH@std@@@std@@@std@@@std@@_N@1@$$QAU?$pair@KH@1@@Z$2
__ehfuncinfo$??$emplace@U?$pair@KH@std@@@?$_Tree@V?$_Tmap_traits@KHU?$less@K@std@@V?$allocator@U?$pair@$$CBKH@std@@@2@$0A@@std@@@std@@QAE?AU?$pair@V?$_Tree_iterator@V?$_Tree_val@U?$_Tree_simple_types@U?$pair@$$CBKH@std@@@std@@@std@@@std@@_N@1@$$QAU?$pair@KH@1@@Z DD 019930522H
	DD	01H
	DD	FLAT:__unwindtable$??$emplace@U?$pair@KH@std@@@?$_Tree@V?$_Tmap_traits@KHU?$less@K@std@@V?$allocator@U?$pair@$$CBKH@std@@@2@$0A@@std@@@std@@QAE?AU?$pair@V?$_Tree_iterator@V?$_Tree_val@U?$_Tree_simple_types@U?$pair@$$CBKH@std@@@std@@@std@@@std@@_N@1@$$QAU?$pair@KH@1@@Z
	DD	2 DUP(00H)
	DD	2 DUP(00H)
	DD	00H
	DD	01H
xdata$x	ENDS
;	COMDAT xdata$x
xdata$x	SEGMENT
__unwindtable$??$insert@U?$pair@EV?$vector@U__SPAWNINFO@CEventLua@@V?$allocator@U__SPAWNINFO@CEventLua@@@std@@@std@@@std@@$0A@@?$map@EV?$vector@U__SPAWNINFO@CEventLua@@V?$allocator@U__SPAWNINFO@CEventLua@@@std@@@std@@U?$less@E@2@V?$allocator@U?$pair@$$CBEV?$vector@U__SPAWNINFO@CEventLua@@V?$allocator@U__SPAWNINFO@CEventLua@@@std@@@std@@@std@@@2@@std@@QAE?AU?$pair@V?$_Tree_iterator@V?$_Tree_val@U?$_Tree_simple_types@U?$pair@$$CBEV?$vector@U__SPAWNINFO@CEventLua@@V?$allocator@U__SPAWNINFO@CEventLua@@@std@@@std@@@std@@@std@@@std@@@std@@_N@1@$$QAU?$pair@EV?$vector@U__SPAWNINFO@CEventLua@@V?$allocator@U__SPAWNINFO@CEventLua@@@std@@@std@@@1@@Z DD 0ffffffffH
	DD	FLAT:__unwindfunclet$??$insert@U?$pair@EV?$vector@U__SPAWNINFO@CEventLua@@V?$allocator@U__SPAWNINFO@CEventLua@@@std@@@std@@@std@@$0A@@?$map@EV?$vector@U__SPAWNINFO@CEventLua@@V?$allocator@U__SPAWNINFO@CEventLua@@@std@@@std@@U?$less@E@2@V?$allocator@U?$pair@$$CBEV?$vector@U__SPAWNINFO@CEventLua@@V?$allocator@U__SPAWNINFO@CEventLua@@@std@@@std@@@std@@@2@@std@@QAE?AU?$pair@V?$_Tree_iterator@V?$_Tree_val@U?$_Tree_simple_types@U?$pair@$$CBEV?$vector@U__SPAWNINFO@CEventLua@@V?$allocator@U__SPAWNINFO@CEventLua@@@std@@@std@@@std@@@std@@@std@@@std@@_N@1@$$QAU?$pair@EV?$vector@U__SPAWNINFO@CEventLua@@V?$allocator@U__SPAWNINFO@CEventLua@@@std@@@std@@@1@@Z$2
__ehfuncinfo$??$insert@U?$pair@EV?$vector@U__SPAWNINFO@CEventLua@@V?$allocator@U__SPAWNINFO@CEventLua@@@std@@@std@@@std@@$0A@@?$map@EV?$vector@U__SPAWNINFO@CEventLua@@V?$allocator@U__SPAWNINFO@CEventLua@@@std@@@std@@U?$less@E@2@V?$allocator@U?$pair@$$CBEV?$vector@U__SPAWNINFO@CEventLua@@V?$allocator@U__SPAWNINFO@CEventLua@@@std@@@std@@@std@@@2@@std@@QAE?AU?$pair@V?$_Tree_iterator@V?$_Tree_val@U?$_Tree_simple_types@U?$pair@$$CBEV?$vector@U__SPAWNINFO@CEventLua@@V?$allocator@U__SPAWNINFO@CEventLua@@@std@@@std@@@std@@@std@@@std@@@std@@_N@1@$$QAU?$pair@EV?$vector@U__SPAWNINFO@CEventLua@@V?$allocator@U__SPAWNINFO@CEventLua@@@std@@@std@@@1@@Z DD 019930522H
	DD	01H
	DD	FLAT:__unwindtable$??$insert@U?$pair@EV?$vector@U__SPAWNINFO@CEventLua@@V?$allocator@U__SPAWNINFO@CEventLua@@@std@@@std@@@std@@$0A@@?$map@EV?$vector@U__SPAWNINFO@CEventLua@@V?$allocator@U__SPAWNINFO@CEventLua@@@std@@@std@@U?$less@E@2@V?$allocator@U?$pair@$$CBEV?$vector@U__SPAWNINFO@CEventLua@@V?$allocator@U__SPAWNINFO@CEventLua@@@std@@@std@@@std@@@2@@std@@QAE?AU?$pair@V?$_Tree_iterator@V?$_Tree_val@U?$_Tree_simple_types@U?$pair@$$CBEV?$vector@U__SPAWNINFO@CEventLua@@V?$allocator@U__SPAWNINFO@CEventLua@@@std@@@std@@@std@@@std@@@std@@@std@@_N@1@$$QAU?$pair@EV?$vector@U__SPAWNINFO@CEventLua@@V?$allocator@U__SPAWNINFO@CEventLua@@@std@@@std@@@1@@Z
	DD	2 DUP(00H)
	DD	2 DUP(00H)
	DD	00H
	DD	01H
xdata$x	ENDS
;	COMDAT xdata$x
xdata$x	SEGMENT
__unwindtable$??$insert@U?$pair@KE@std@@$0A@@?$map@KEU?$less@K@std@@V?$allocator@U?$pair@$$CBKE@std@@@2@@std@@QAE?AU?$pair@V?$_Tree_iterator@V?$_Tree_val@U?$_Tree_simple_types@U?$pair@$$CBKE@std@@@std@@@std@@@std@@_N@1@$$QAU?$pair@KE@1@@Z DD 0ffffffffH
	DD	FLAT:__unwindfunclet$??$insert@U?$pair@KE@std@@$0A@@?$map@KEU?$less@K@std@@V?$allocator@U?$pair@$$CBKE@std@@@2@@std@@QAE?AU?$pair@V?$_Tree_iterator@V?$_Tree_val@U?$_Tree_simple_types@U?$pair@$$CBKE@std@@@std@@@std@@@std@@_N@1@$$QAU?$pair@KE@1@@Z$2
__ehfuncinfo$??$insert@U?$pair@KE@std@@$0A@@?$map@KEU?$less@K@std@@V?$allocator@U?$pair@$$CBKE@std@@@2@@std@@QAE?AU?$pair@V?$_Tree_iterator@V?$_Tree_val@U?$_Tree_simple_types@U?$pair@$$CBKE@std@@@std@@@std@@@std@@_N@1@$$QAU?$pair@KE@1@@Z DD 019930522H
	DD	01H
	DD	FLAT:__unwindtable$??$insert@U?$pair@KE@std@@$0A@@?$map@KEU?$less@K@std@@V?$allocator@U?$pair@$$CBKE@std@@@2@@std@@QAE?AU?$pair@V?$_Tree_iterator@V?$_Tree_val@U?$_Tree_simple_types@U?$pair@$$CBKE@std@@@std@@@std@@@std@@_N@1@$$QAU?$pair@KE@1@@Z
	DD	2 DUP(00H)
	DD	2 DUP(00H)
	DD	00H
	DD	01H
xdata$x	ENDS
;	COMDAT xdata$x
xdata$x	SEGMENT
__unwindtable$??$insert@$0A@$0A@@?$_Tree@V?$_Tmap_traits@KHU?$less@K@std@@V?$allocator@U?$pair@$$CBKH@std@@@2@$0A@@std@@@std@@QAE?AU?$pair@V?$_Tree_iterator@V?$_Tree_val@U?$_Tree_simple_types@U?$pair@$$CBKH@std@@@std@@@std@@@std@@_N@1@$$QAU?$pair@$$CBKH@1@@Z DD 0ffffffffH
	DD	FLAT:__unwindfunclet$??$insert@$0A@$0A@@?$_Tree@V?$_Tmap_traits@KHU?$less@K@std@@V?$allocator@U?$pair@$$CBKH@std@@@2@$0A@@std@@@std@@QAE?AU?$pair@V?$_Tree_iterator@V?$_Tree_val@U?$_Tree_simple_types@U?$pair@$$CBKH@std@@@std@@@std@@@std@@_N@1@$$QAU?$pair@$$CBKH@1@@Z$2
__ehfuncinfo$??$insert@$0A@$0A@@?$_Tree@V?$_Tmap_traits@KHU?$less@K@std@@V?$allocator@U?$pair@$$CBKH@std@@@2@$0A@@std@@@std@@QAE?AU?$pair@V?$_Tree_iterator@V?$_Tree_val@U?$_Tree_simple_types@U?$pair@$$CBKH@std@@@std@@@std@@@std@@_N@1@$$QAU?$pair@$$CBKH@1@@Z DD 019930522H
	DD	01H
	DD	FLAT:__unwindtable$??$insert@$0A@$0A@@?$_Tree@V?$_Tmap_traits@KHU?$less@K@std@@V?$allocator@U?$pair@$$CBKH@std@@@2@$0A@@std@@@std@@QAE?AU?$pair@V?$_Tree_iterator@V?$_Tree_val@U?$_Tree_simple_types@U?$pair@$$CBKH@std@@@std@@@std@@@std@@_N@1@$$QAU?$pair@$$CBKH@1@@Z
	DD	2 DUP(00H)
	DD	2 DUP(00H)
	DD	00H
	DD	01H
xdata$x	ENDS
;	COMDAT xdata$x
xdata$x	SEGMENT
__unwindtable$??$insert@U?$pair@KH@std@@$0A@@?$map@KHU?$less@K@std@@V?$allocator@U?$pair@$$CBKH@std@@@2@@std@@QAE?AU?$pair@V?$_Tree_iterator@V?$_Tree_val@U?$_Tree_simple_types@U?$pair@$$CBKH@std@@@std@@@std@@@std@@_N@1@$$QAU?$pair@KH@1@@Z DD 0ffffffffH
	DD	FLAT:__unwindfunclet$??$insert@U?$pair@KH@std@@$0A@@?$map@KHU?$less@K@std@@V?$allocator@U?$pair@$$CBKH@std@@@2@@std@@QAE?AU?$pair@V?$_Tree_iterator@V?$_Tree_val@U?$_Tree_simple_types@U?$pair@$$CBKH@std@@@std@@@std@@@std@@_N@1@$$QAU?$pair@KH@1@@Z$2
__ehfuncinfo$??$insert@U?$pair@KH@std@@$0A@@?$map@KHU?$less@K@std@@V?$allocator@U?$pair@$$CBKH@std@@@2@@std@@QAE?AU?$pair@V?$_Tree_iterator@V?$_Tree_val@U?$_Tree_simple_types@U?$pair@$$CBKH@std@@@std@@@std@@@std@@_N@1@$$QAU?$pair@KH@1@@Z DD 019930522H
	DD	01H
	DD	FLAT:__unwindtable$??$insert@U?$pair@KH@std@@$0A@@?$map@KHU?$less@K@std@@V?$allocator@U?$pair@$$CBKH@std@@@2@@std@@QAE?AU?$pair@V?$_Tree_iterator@V?$_Tree_val@U?$_Tree_simple_types@U?$pair@$$CBKH@std@@@std@@@std@@@std@@_N@1@$$QAU?$pair@KH@1@@Z
	DD	2 DUP(00H)
	DD	2 DUP(00H)
	DD	00H
	DD	01H
xdata$x	ENDS
;	COMDAT xdata$x
xdata$x	SEGMENT
__unwindtable$?KeepConnectEventProcess@CEventLua@@QAEXXZ DD 0ffffffffH
	DD	FLAT:__unwindfunclet$?KeepConnectEventProcess@CEventLua@@QAEXXZ$0
__ehfuncinfo$?KeepConnectEventProcess@CEventLua@@QAEXXZ DD 019930522H
	DD	01H
	DD	FLAT:__unwindtable$?KeepConnectEventProcess@CEventLua@@QAEXXZ
	DD	2 DUP(00H)
	DD	2 DUP(00H)
	DD	00H
	DD	01H
xdata$x	ENDS
;	COMDAT xdata$x
xdata$x	SEGMENT
__unwindtable$?GetKeepConnectItem@CEventLua@@QAEXXZ DD 0ffffffffH
	DD	FLAT:__unwindfunclet$?GetKeepConnectItem@CEventLua@@QAEXXZ$2
__ehfuncinfo$?GetKeepConnectItem@CEventLua@@QAEXXZ DD 019930522H
	DD	01H
	DD	FLAT:__unwindtable$?GetKeepConnectItem@CEventLua@@QAEXXZ
	DD	2 DUP(00H)
	DD	2 DUP(00H)
	DD	00H
	DD	01H
xdata$x	ENDS
;	COMDAT xdata$x
xdata$x	SEGMENT
__unwindtable$?EventSpawnProcess@CEventLua@@QAEXXZ DD 0ffffffffH
	DD	FLAT:__unwindfunclet$?EventSpawnProcess@CEventLua@@QAEXXZ$0
__ehfuncinfo$?EventSpawnProcess@CEventLua@@QAEXXZ DD 019930522H
	DD	01H
	DD	FLAT:__unwindtable$?EventSpawnProcess@CEventLua@@QAEXXZ
	DD	2 DUP(00H)
	DD	2 DUP(00H)
	DD	00H
	DD	01H
xdata$x	ENDS
;	COMDAT xdata$x
xdata$x	SEGMENT
__unwindtable$?SetSpawnEvent@CEventLua@@AAEXEH@Z DD 0ffffffffH
	DD	FLAT:__unwindfunclet$?SetSpawnEvent@CEventLua@@AAEXEH@Z$0
	DD	00H
	DD	FLAT:__unwindfunclet$?SetSpawnEvent@CEventLua@@AAEXEH@Z$1
	DD	01H
	DD	FLAT:__unwindfunclet$?SetSpawnEvent@CEventLua@@AAEXEH@Z$8
__ehfuncinfo$?SetSpawnEvent@CEventLua@@AAEXEH@Z DD 019930522H
	DD	03H
	DD	FLAT:__unwindtable$?SetSpawnEvent@CEventLua@@AAEXEH@Z
	DD	2 DUP(00H)
	DD	2 DUP(00H)
	DD	00H
	DD	01H
xdata$x	ENDS
;	COMDAT xdata$x
xdata$x	SEGMENT
__unwindtable$?GetWeatherEventTitle@CEventLua@@QAE?AV?$basic_string@DU?$char_traits@D@std@@V?$allocator@D@2@@std@@XZ DD 0ffffffffH
	DD	FLAT:__unwindfunclet$?GetWeatherEventTitle@CEventLua@@QAE?AV?$basic_string@DU?$char_traits@D@std@@V?$allocator@D@2@@std@@XZ$0
__ehfuncinfo$?GetWeatherEventTitle@CEventLua@@QAE?AV?$basic_string@DU?$char_traits@D@std@@V?$allocator@D@2@@std@@XZ DD 019930522H
	DD	01H
	DD	FLAT:__unwindtable$?GetWeatherEventTitle@CEventLua@@QAE?AV?$basic_string@DU?$char_traits@D@std@@V?$allocator@D@2@@std@@XZ
	DD	2 DUP(00H)
	DD	2 DUP(00H)
	DD	00H
	DD	01H
xdata$x	ENDS
;	COMDAT xdata$x
xdata$x	SEGMENT
__unwindtable$?GetEventInfo@CEventLua@@QAEXPAVCUser@@H@Z DD 0ffffffffH
	DD	FLAT:__unwindfunclet$?GetEventInfo@CEventLua@@QAEXPAVCUser@@H@Z$1
	DD	0ffffffffH
	DD	FLAT:__unwindfunclet$?GetEventInfo@CEventLua@@QAEXPAVCUser@@H@Z$0
__ehfuncinfo$?GetEventInfo@CEventLua@@QAEXPAVCUser@@H@Z DD 019930522H
	DD	02H
	DD	FLAT:__unwindtable$?GetEventInfo@CEventLua@@QAEXPAVCUser@@H@Z
	DD	2 DUP(00H)
	DD	2 DUP(00H)
	DD	00H
	DD	01H
xdata$x	ENDS
;	COMDAT xdata$x
xdata$x	SEGMENT
__unwindtable$?GetAllEventList@CEventLua@@QAEXPAVCUser@@@Z DD 0ffffffffH
	DD	FLAT:__unwindfunclet$?GetAllEventList@CEventLua@@QAEXPAVCUser@@@Z$0
	DD	00H
	DD	FLAT:__unwindfunclet$?GetAllEventList@CEventLua@@QAEXPAVCUser@@@Z$1
__ehfuncinfo$?GetAllEventList@CEventLua@@QAEXPAVCUser@@@Z DD 019930522H
	DD	02H
	DD	FLAT:__unwindtable$?GetAllEventList@CEventLua@@QAEXPAVCUser@@@Z
	DD	2 DUP(00H)
	DD	2 DUP(00H)
	DD	00H
	DD	01H
xdata$x	ENDS
;	COMDAT xdata$x
xdata$x	SEGMENT
__unwindtable$?GetItem@CEventLua@@QAE?AV?$map@KHU?$less@K@std@@V?$allocator@U?$pair@$$CBKH@std@@@2@@std@@K@Z DD 0ffffffffH
	DD	FLAT:__unwindfunclet$?GetItem@CEventLua@@QAE?AV?$map@KHU?$less@K@std@@V?$allocator@U?$pair@$$CBKH@std@@@2@@std@@K@Z$0
	DD	00H
	DD	FLAT:__unwindfunclet$?GetItem@CEventLua@@QAE?AV?$map@KHU?$less@K@std@@V?$allocator@U?$pair@$$CBKH@std@@@2@@std@@K@Z$6
__ehfuncinfo$?GetItem@CEventLua@@QAE?AV?$map@KHU?$less@K@std@@V?$allocator@U?$pair@$$CBKH@std@@@2@@std@@K@Z DD 019930522H
	DD	02H
	DD	FLAT:__unwindtable$?GetItem@CEventLua@@QAE?AV?$map@KHU?$less@K@std@@V?$allocator@U?$pair@$$CBKH@std@@@2@@std@@K@Z
	DD	2 DUP(00H)
	DD	2 DUP(00H)
	DD	00H
	DD	01H
xdata$x	ENDS
;	COMDAT xdata$x
xdata$x	SEGMENT
__unwindtable$?SetLevelUpGift@CEventLua@@QAEXPAVCUser@@H@Z DD 0ffffffffH
	DD	FLAT:__unwindfunclet$?SetLevelUpGift@CEventLua@@QAEXPAVCUser@@H@Z$0
	DD	00H
	DD	FLAT:__unwindfunclet$?SetLevelUpGift@CEventLua@@QAEXPAVCUser@@H@Z$1
__ehfuncinfo$?SetLevelUpGift@CEventLua@@QAEXPAVCUser@@H@Z DD 019930522H
	DD	02H
	DD	FLAT:__unwindtable$?SetLevelUpGift@CEventLua@@QAEXPAVCUser@@H@Z
	DD	2 DUP(00H)
	DD	2 DUP(00H)
	DD	00H
	DD	01H
xdata$x	ENDS
;	COMDAT xdata$x
xdata$x	SEGMENT
__unwindtable$?GetDesc@CEventLua@@QAE?AV?$basic_string@DU?$char_traits@D@std@@V?$allocator@D@2@@std@@E@Z DD 0ffffffffH
	DD	FLAT:__unwindfunclet$?GetDesc@CEventLua@@QAE?AV?$basic_string@DU?$char_traits@D@std@@V?$allocator@D@2@@std@@E@Z$0
__ehfuncinfo$?GetDesc@CEventLua@@QAE?AV?$basic_string@DU?$char_traits@D@std@@V?$allocator@D@2@@std@@E@Z DD 019930522H
	DD	01H
	DD	FLAT:__unwindtable$?GetDesc@CEventLua@@QAE?AV?$basic_string@DU?$char_traits@D@std@@V?$allocator@D@2@@std@@E@Z
	DD	2 DUP(00H)
	DD	2 DUP(00H)
	DD	00H
	DD	01H
xdata$x	ENDS
;	COMDAT xdata$x
xdata$x	SEGMENT
__unwindtable$?GetEventList@CEventLua@@QAE?AV?$vector@EV?$allocator@E@std@@@std@@H@Z DD 0ffffffffH
	DD	FLAT:__unwindfunclet$?GetEventList@CEventLua@@QAE?AV?$vector@EV?$allocator@E@std@@@std@@H@Z$0
__ehfuncinfo$?GetEventList@CEventLua@@QAE?AV?$vector@EV?$allocator@E@std@@@std@@H@Z DD 019930522H
	DD	01H
	DD	FLAT:__unwindtable$?GetEventList@CEventLua@@QAE?AV?$vector@EV?$allocator@E@std@@@std@@H@Z
	DD	2 DUP(00H)
	DD	2 DUP(00H)
	DD	00H
	DD	01H
xdata$x	ENDS
;	COMDAT xdata$x
xdata$x	SEGMENT
__ehfuncinfo$??0CEventLua@@QAE@XZ DD 019930522H
	DD	08H
	DD	FLAT:__unwindtable$??0CEventLua@@QAE@XZ
	DD	2 DUP(00H)
	DD	2 DUP(00H)
	DD	00H
	DD	01H
__unwindtable$??0CEventLua@@QAE@XZ DD 0ffffffffH
	DD	FLAT:__unwindfunclet$??0CEventLua@@QAE@XZ$0
	DD	00H
	DD	FLAT:__unwindfunclet$??0CEventLua@@QAE@XZ$1
	DD	01H
	DD	FLAT:__unwindfunclet$??0CEventLua@@QAE@XZ$2
	DD	02H
	DD	FLAT:__unwindfunclet$??0CEventLua@@QAE@XZ$3
	DD	03H
	DD	FLAT:__unwindfunclet$??0CEventLua@@QAE@XZ$4
	DD	04H
	DD	FLAT:__unwindfunclet$??0CEventLua@@QAE@XZ$5
	DD	05H
	DD	FLAT:__unwindfunclet$??0CEventLua@@QAE@XZ$6
	DD	06H
	DD	FLAT:__unwindfunclet$??0CEventLua@@QAE@XZ$7
xdata$x	ENDS
;	COMDAT xdata$x
xdata$x	SEGMENT
__unwindtable$?Initialize@CEventLuaProxy@@QAEXPAVCEventLua@@@Z DD 0ffffffffH
	DD	FLAT:__unwindfunclet$?Initialize@CEventLuaProxy@@QAEXPAVCEventLua@@@Z$0
__ehfuncinfo$?Initialize@CEventLuaProxy@@QAEXPAVCEventLua@@@Z DD 019930522H
	DD	01H
	DD	FLAT:__unwindtable$?Initialize@CEventLuaProxy@@QAEXPAVCEventLua@@@Z
	DD	2 DUP(00H)
	DD	2 DUP(00H)
	DD	00H
	DD	01H
xdata$x	ENDS
;	COMDAT xdata$x
xdata$x	SEGMENT
__unwindtable$?FormatV@?$CStringT@DV?$StrTraitMFC@DV?$ChTraitsCRT@D@ATL@@@@@ATL@@QAEXPBDPAD@Z DD 0ffffffffH
	DD	FLAT:__unwindfunclet$?FormatV@?$CStringT@DV?$StrTraitMFC@DV?$ChTraitsCRT@D@ATL@@@@@ATL@@QAEXPBDPAD@Z$1
	DD	0ffffffffH
	DD	FLAT:__unwindfunclet$?FormatV@?$CStringT@DV?$StrTraitMFC@DV?$ChTraitsCRT@D@ATL@@@@@ATL@@QAEXPBDPAD@Z$0
__ehfuncinfo$?FormatV@?$CStringT@DV?$StrTraitMFC@DV?$ChTraitsCRT@D@ATL@@@@@ATL@@QAEXPBDPAD@Z DD 019930522H
	DD	02H
	DD	FLAT:__unwindtable$?FormatV@?$CStringT@DV?$StrTraitMFC@DV?$ChTraitsCRT@D@ATL@@@@@ATL@@QAEXPBDPAD@Z
	DD	2 DUP(00H)
	DD	2 DUP(00H)
	DD	00H
	DD	01H
xdata$x	ENDS
;	COMDAT xdata$x
xdata$x	SEGMENT
__unwindtable$??0?$CStringT@DV?$StrTraitMFC@DV?$ChTraitsCRT@D@ATL@@@@@ATL@@QAE@PBDPAUIAtlStringMgr@1@@Z DD 0ffffffffH
	DD	FLAT:__unwindfunclet$??0?$CStringT@DV?$StrTraitMFC@DV?$ChTraitsCRT@D@ATL@@@@@ATL@@QAE@PBDPAUIAtlStringMgr@1@@Z$0
__ehfuncinfo$??0?$CStringT@DV?$StrTraitMFC@DV?$ChTraitsCRT@D@ATL@@@@@ATL@@QAE@PBDPAUIAtlStringMgr@1@@Z DD 019930522H
	DD	01H
	DD	FLAT:__unwindtable$??0?$CStringT@DV?$StrTraitMFC@DV?$ChTraitsCRT@D@ATL@@@@@ATL@@QAE@PBDPAUIAtlStringMgr@1@@Z
	DD	2 DUP(00H)
	DD	2 DUP(00H)
	DD	00H
	DD	01H
xdata$x	ENDS
;	COMDAT xdata$x
xdata$x	SEGMENT
__unwindtable$??0?$CStringT@DV?$StrTraitMFC@DV?$ChTraitsCRT@D@ATL@@@@@ATL@@QAE@PBD@Z DD 0ffffffffH
	DD	FLAT:__unwindfunclet$??0?$CStringT@DV?$StrTraitMFC@DV?$ChTraitsCRT@D@ATL@@@@@ATL@@QAE@PBD@Z$0
__ehfuncinfo$??0?$CStringT@DV?$StrTraitMFC@DV?$ChTraitsCRT@D@ATL@@@@@ATL@@QAE@PBD@Z DD 019930522H
	DD	01H
	DD	FLAT:__unwindtable$??0?$CStringT@DV?$StrTraitMFC@DV?$ChTraitsCRT@D@ATL@@@@@ATL@@QAE@PBD@Z
	DD	2 DUP(00H)
	DD	2 DUP(00H)
	DD	00H
	DD	01H
xdata$x	ENDS
; Function compile flags: /Ogtp
; File C:\Program Files\Microsoft Visual Studio\2022\Professional\VC\Tools\MSVC\14.44.35207\include\xutility
;	COMDAT ??$_Copy_memmove_tail@PAK@std@@YAPAKQBDQAKII@Z
_TEXT	SEGMENT
__First_ch$ = 8						; size = 4
__Dest$ = 12						; size = 4
__Byte_count$ = 16					; size = 4
__Object_count$ = 20					; size = 4
??$_Copy_memmove_tail@PAK@std@@YAPAKQBDQAKII@Z PROC	; std::_Copy_memmove_tail<unsigned long *>, COMDAT

; 4747 :     const char* const _First_ch, const _OutCtgIt _Dest, const size_t _Byte_count, const size_t _Object_count) {

  00000	55		 push	 ebp
  00001	8b ec		 mov	 ebp, esp
  00003	56		 push	 esi

; 4748 :     _STL_INTERNAL_CHECK(_Byte_count == _Object_count * sizeof(*_Dest));
; 4749 :     const auto _Dest_ptr = _STD _To_address(_Dest);
; 4750 :     const auto _Dest_ch  = const_cast<char*>(reinterpret_cast<const volatile char*>(_Dest_ptr));
; 4751 :     _CSTD memmove(_Dest_ch, _First_ch, _Byte_count);

  00004	8b 75 0c	 mov	 esi, DWORD PTR __Dest$[ebp]
  00007	57		 push	 edi
  00008	8b 7d 10	 mov	 edi, DWORD PTR __Byte_count$[ebp]
  0000b	57		 push	 edi
  0000c	ff 75 08	 push	 DWORD PTR __First_ch$[ebp]
  0000f	56		 push	 esi
  00010	e8 00 00 00 00	 call	 _memmove
  00015	83 c4 0c	 add	 esp, 12			; 0000000cH

; 4752 :     if constexpr (is_pointer_v<_OutCtgIt>) {
; 4753 :         (void) _Object_count;
; 4754 :         // CodeQL [SM02986] This cast is correct: we're bypassing pointer arithmetic for performance.
; 4755 :         return reinterpret_cast<_OutCtgIt>(_Dest_ch + _Byte_count);

  00018	8d 04 3e	 lea	 eax, DWORD PTR [esi+edi]
  0001b	5f		 pop	 edi
  0001c	5e		 pop	 esi

; 4756 :     } else {
; 4757 :         return _Dest + static_cast<_Iter_diff_t<_OutCtgIt>>(_Object_count);
; 4758 :     }
; 4759 : }

  0001d	5d		 pop	 ebp
  0001e	c3		 ret	 0
??$_Copy_memmove_tail@PAK@std@@YAPAKQBDQAKII@Z ENDP	; std::_Copy_memmove_tail<unsigned long *>
_TEXT	ENDS
; Function compile flags: /Ogtp
; File C:\Program Files\Microsoft Visual Studio\2022\Professional\VC\Tools\MSVC\14.44.35207\include\xutility
;	COMDAT ??$_Copy_memmove@PAKPAK@std@@YAPAKPAK00@Z
_TEXT	SEGMENT
__First$ = 8						; size = 4
__Last$ = 12						; size = 4
__Dest$ = 16						; size = 4
??$_Copy_memmove@PAKPAK@std@@YAPAKPAK00@Z PROC		; std::_Copy_memmove<unsigned long *,unsigned long *>, COMDAT

; 4762 : _OutCtgIt _Copy_memmove(_CtgIt _First, _CtgIt _Last, _OutCtgIt _Dest) {

  00000	55		 push	 ebp
  00001	8b ec		 mov	 ebp, esp

; 4763 :     _STL_INTERNAL_CHECK(_First <= _Last);
; 4764 :     const auto _First_ptr    = _STD _To_address(_First);
; 4765 :     const auto _Last_ptr     = _STD _To_address(_Last);
; 4766 :     const auto _Object_count = static_cast<size_t>(_Last_ptr - _First_ptr);

  00003	8b 55 08	 mov	 edx, DWORD PTR __First$[ebp]
  00006	8b 4d 0c	 mov	 ecx, DWORD PTR __Last$[ebp]
  00009	2b ca		 sub	 ecx, edx
  0000b	8b c1		 mov	 eax, ecx
  0000d	c1 f8 02	 sar	 eax, 2

; 4767 :     const auto _First_ch     = const_cast<const char*>(reinterpret_cast<const volatile char*>(_First_ptr));
; 4768 :     const auto _Last_ch      = const_cast<const char*>(reinterpret_cast<const volatile char*>(_Last_ptr));
; 4769 :     const auto _Byte_count   = static_cast<size_t>(_Last_ch - _First_ch);
; 4770 :     return _STD _Copy_memmove_tail(_First_ch, _STD move(_Dest), _Byte_count, _Object_count);

  00010	50		 push	 eax
  00011	51		 push	 ecx
  00012	ff 75 10	 push	 DWORD PTR __Dest$[ebp]
  00015	52		 push	 edx
  00016	e8 00 00 00 00	 call	 ??$_Copy_memmove_tail@PAK@std@@YAPAKQBDQAKII@Z ; std::_Copy_memmove_tail<unsigned long *>
  0001b	83 c4 10	 add	 esp, 16			; 00000010H

; 4771 : }

  0001e	5d		 pop	 ebp
  0001f	c3		 ret	 0
??$_Copy_memmove@PAKPAK@std@@YAPAKPAK00@Z ENDP		; std::_Copy_memmove<unsigned long *,unsigned long *>
_TEXT	ENDS
; Function compile flags: /Ogtp
; File C:\Program Files\Microsoft Visual Studio\2022\Professional\VC\Tools\MSVC\14.44.35207\include\xutility
;	COMDAT ??$_Copy_memmove@PAU__SPAWNINFO@CEventLua@@PAU12@@std@@YAPAU__SPAWNINFO@CEventLua@@PAU12@00@Z
_TEXT	SEGMENT
__First$ = 8						; size = 4
__Last$ = 12						; size = 4
__Dest$ = 16						; size = 4
??$_Copy_memmove@PAU__SPAWNINFO@CEventLua@@PAU12@@std@@YAPAU__SPAWNINFO@CEventLua@@PAU12@00@Z PROC ; std::_Copy_memmove<CEventLua::__SPAWNINFO *,CEventLua::__SPAWNINFO *>, COMDAT

; 4762 : _OutCtgIt _Copy_memmove(_CtgIt _First, _CtgIt _Last, _OutCtgIt _Dest) {

  00000	55		 push	 ebp
  00001	8b ec		 mov	 ebp, esp

; 4763 :     _STL_INTERNAL_CHECK(_First <= _Last);
; 4764 :     const auto _First_ptr    = _STD _To_address(_First);
; 4765 :     const auto _Last_ptr     = _STD _To_address(_Last);
; 4766 :     const auto _Object_count = static_cast<size_t>(_Last_ptr - _First_ptr);

  00003	8b 55 08	 mov	 edx, DWORD PTR __First$[ebp]
  00006	8b 4d 0c	 mov	 ecx, DWORD PTR __Last$[ebp]
  00009	2b ca		 sub	 ecx, edx
  0000b	8b c1		 mov	 eax, ecx
  0000d	c1 f8 04	 sar	 eax, 4

; 4767 :     const auto _First_ch     = const_cast<const char*>(reinterpret_cast<const volatile char*>(_First_ptr));
; 4768 :     const auto _Last_ch      = const_cast<const char*>(reinterpret_cast<const volatile char*>(_Last_ptr));
; 4769 :     const auto _Byte_count   = static_cast<size_t>(_Last_ch - _First_ch);
; 4770 :     return _STD _Copy_memmove_tail(_First_ch, _STD move(_Dest), _Byte_count, _Object_count);

  00010	50		 push	 eax
  00011	51		 push	 ecx
  00012	ff 75 10	 push	 DWORD PTR __Dest$[ebp]
  00015	52		 push	 edx
  00016	e8 00 00 00 00	 call	 ??$_Copy_memmove_tail@PAU__SPAWNINFO@CEventLua@@@std@@YAPAU__SPAWNINFO@CEventLua@@QBDQAU12@II@Z ; std::_Copy_memmove_tail<CEventLua::__SPAWNINFO *>
  0001b	83 c4 10	 add	 esp, 16			; 00000010H

; 4771 : }

  0001e	5d		 pop	 ebp
  0001f	c3		 ret	 0
??$_Copy_memmove@PAU__SPAWNINFO@CEventLua@@PAU12@@std@@YAPAU__SPAWNINFO@CEventLua@@PAU12@00@Z ENDP ; std::_Copy_memmove<CEventLua::__SPAWNINFO *,CEventLua::__SPAWNINFO *>
_TEXT	ENDS
; Function compile flags: /Ogtp
; File C:\Program Files\Microsoft Visual Studio\2022\Professional\VC\Tools\MSVC\14.44.35207\include\xutility
;	COMDAT ??$_Copy_memmove_tail@PAU__SPAWNINFO@CEventLua@@@std@@YAPAU__SPAWNINFO@CEventLua@@QBDQAU12@II@Z
_TEXT	SEGMENT
__First_ch$ = 8						; size = 4
__Dest$ = 12						; size = 4
__Byte_count$ = 16					; size = 4
__Object_count$ = 20					; size = 4
??$_Copy_memmove_tail@PAU__SPAWNINFO@CEventLua@@@std@@YAPAU__SPAWNINFO@CEventLua@@QBDQAU12@II@Z PROC ; std::_Copy_memmove_tail<CEventLua::__SPAWNINFO *>, COMDAT

; 4747 :     const char* const _First_ch, const _OutCtgIt _Dest, const size_t _Byte_count, const size_t _Object_count) {

  00000	55		 push	 ebp
  00001	8b ec		 mov	 ebp, esp
  00003	56		 push	 esi

; 4748 :     _STL_INTERNAL_CHECK(_Byte_count == _Object_count * sizeof(*_Dest));
; 4749 :     const auto _Dest_ptr = _STD _To_address(_Dest);
; 4750 :     const auto _Dest_ch  = const_cast<char*>(reinterpret_cast<const volatile char*>(_Dest_ptr));
; 4751 :     _CSTD memmove(_Dest_ch, _First_ch, _Byte_count);

  00004	8b 75 0c	 mov	 esi, DWORD PTR __Dest$[ebp]
  00007	57		 push	 edi
  00008	8b 7d 10	 mov	 edi, DWORD PTR __Byte_count$[ebp]
  0000b	57		 push	 edi
  0000c	ff 75 08	 push	 DWORD PTR __First_ch$[ebp]
  0000f	56		 push	 esi
  00010	e8 00 00 00 00	 call	 _memmove
  00015	83 c4 0c	 add	 esp, 12			; 0000000cH

; 4752 :     if constexpr (is_pointer_v<_OutCtgIt>) {
; 4753 :         (void) _Object_count;
; 4754 :         // CodeQL [SM02986] This cast is correct: we're bypassing pointer arithmetic for performance.
; 4755 :         return reinterpret_cast<_OutCtgIt>(_Dest_ch + _Byte_count);

  00018	8d 04 3e	 lea	 eax, DWORD PTR [esi+edi]
  0001b	5f		 pop	 edi
  0001c	5e		 pop	 esi

; 4756 :     } else {
; 4757 :         return _Dest + static_cast<_Iter_diff_t<_OutCtgIt>>(_Object_count);
; 4758 :     }
; 4759 : }

  0001d	5d		 pop	 ebp
  0001e	c3		 ret	 0
??$_Copy_memmove_tail@PAU__SPAWNINFO@CEventLua@@@std@@YAPAU__SPAWNINFO@CEventLua@@QBDQAU12@II@Z ENDP ; std::_Copy_memmove_tail<CEventLua::__SPAWNINFO *>
_TEXT	ENDS
; Function compile flags: /Ogtp
; File C:\Program Files\Microsoft Visual Studio\2022\Professional\VC\Tools\MSVC\14.44.35207\include\xmemory
;	COMDAT ??1?$_Alloc_construct_ptr@V?$allocator@U?$_Tree_node@U?$pair@$$CBEV?$vector@U__SPAWNINFO@CEventLua@@V?$allocator@U__SPAWNINFO@CEventLua@@@std@@@std@@@std@@PAX@std@@@std@@@std@@QAE@XZ
_TEXT	SEGMENT
??1?$_Alloc_construct_ptr@V?$allocator@U?$_Tree_node@U?$pair@$$CBEV?$vector@U__SPAWNINFO@CEventLua@@V?$allocator@U__SPAWNINFO@CEventLua@@@std@@@std@@@std@@PAX@std@@@std@@@std@@QAE@XZ PROC ; std::_Alloc_construct_ptr<std::allocator<std::_Tree_node<std::pair<unsigned char const ,std::vector<CEventLua::__SPAWNINFO,std::allocator<CEventLua::__SPAWNINFO> > >,void *> > >::~_Alloc_construct_ptr<std::allocator<std::_Tree_node<std::pair<unsigned char const ,std::vector<CEventLua::__SPAWNINFO,std::allocator<CEventLua::__SPAWNINFO> > >,void *> > >, COMDAT
; _this$ = ecx

; 1172 :         if (_Ptr) {

  00000	8b 41 04	 mov	 eax, DWORD PTR [ecx+4]
  00003	85 c0		 test	 eax, eax
  00005	74 0b		 je	 SHORT $LN10@Alloc_cons

; 289  :         ::operator delete(_Ptr, _Bytes);

  00007	6a 20		 push	 32			; 00000020H
  00009	50		 push	 eax
  0000a	e8 00 00 00 00	 call	 ??3@YAXPAXI@Z		; operator delete
  0000f	83 c4 08	 add	 esp, 8
$LN10@Alloc_cons:

; 1173 :             _Al.deallocate(_Ptr, 1);
; 1174 :         }
; 1175 :     }

  00012	c3		 ret	 0
??1?$_Alloc_construct_ptr@V?$allocator@U?$_Tree_node@U?$pair@$$CBEV?$vector@U__SPAWNINFO@CEventLua@@V?$allocator@U__SPAWNINFO@CEventLua@@@std@@@std@@@std@@PAX@std@@@std@@@std@@QAE@XZ ENDP ; std::_Alloc_construct_ptr<std::allocator<std::_Tree_node<std::pair<unsigned char const ,std::vector<CEventLua::__SPAWNINFO,std::allocator<CEventLua::__SPAWNINFO> > >,void *> > >::~_Alloc_construct_ptr<std::allocator<std::_Tree_node<std::pair<unsigned char const ,std::vector<CEventLua::__SPAWNINFO,std::allocator<CEventLua::__SPAWNINFO> > >,void *> > >
_TEXT	ENDS
; Function compile flags: /Ogtp
; File C:\Program Files\Microsoft Visual Studio\2022\Professional\VC\Tools\MSVC\14.44.35207\include\xmemory
;	COMDAT ??1?$_Alloc_construct_ptr@V?$allocator@U?$_Tree_node@U?$pair@$$CBKE@std@@PAX@std@@@std@@@std@@QAE@XZ
_TEXT	SEGMENT
??1?$_Alloc_construct_ptr@V?$allocator@U?$_Tree_node@U?$pair@$$CBKE@std@@PAX@std@@@std@@@std@@QAE@XZ PROC ; std::_Alloc_construct_ptr<std::allocator<std::_Tree_node<std::pair<unsigned long const ,unsigned char>,void *> > >::~_Alloc_construct_ptr<std::allocator<std::_Tree_node<std::pair<unsigned long const ,unsigned char>,void *> > >, COMDAT
; _this$ = ecx

; 1172 :         if (_Ptr) {

  00000	8b 41 04	 mov	 eax, DWORD PTR [ecx+4]
  00003	85 c0		 test	 eax, eax
  00005	74 0b		 je	 SHORT $LN10@Alloc_cons

; 289  :         ::operator delete(_Ptr, _Bytes);

  00007	6a 18		 push	 24			; 00000018H
  00009	50		 push	 eax
  0000a	e8 00 00 00 00	 call	 ??3@YAXPAXI@Z		; operator delete
  0000f	83 c4 08	 add	 esp, 8
$LN10@Alloc_cons:

; 1173 :             _Al.deallocate(_Ptr, 1);
; 1174 :         }
; 1175 :     }

  00012	c3		 ret	 0
??1?$_Alloc_construct_ptr@V?$allocator@U?$_Tree_node@U?$pair@$$CBKE@std@@PAX@std@@@std@@@std@@QAE@XZ ENDP ; std::_Alloc_construct_ptr<std::allocator<std::_Tree_node<std::pair<unsigned long const ,unsigned char>,void *> > >::~_Alloc_construct_ptr<std::allocator<std::_Tree_node<std::pair<unsigned long const ,unsigned char>,void *> > >
_TEXT	ENDS
; Function compile flags: /Ogtp
; File C:\Program Files\Microsoft Visual Studio\2022\Professional\VC\Tools\MSVC\14.44.35207\include\vector
; File C:\Program Files\Microsoft Visual Studio\2022\Professional\VC\Tools\MSVC\14.44.35207\include\xmemory
; File C:\Program Files\Microsoft Visual Studio\2022\Professional\VC\Tools\MSVC\14.44.35207\include\vector
; File C:\Program Files\Microsoft Visual Studio\2022\Professional\VC\Tools\MSVC\14.44.35207\include\xmemory
; File C:\Program Files\Microsoft Visual Studio\2022\Professional\VC\Tools\MSVC\14.44.35207\include\vector
; File C:\Program Files\Microsoft Visual Studio\2022\Professional\VC\Tools\MSVC\14.44.35207\include\xmemory
; File C:\Program Files\Microsoft Visual Studio\2022\Professional\VC\Tools\MSVC\14.44.35207\include\vector
; File C:\Program Files\Microsoft Visual Studio\2022\Professional\VC\Tools\MSVC\14.44.35207\include\xmemory
; File C:\Program Files\Microsoft Visual Studio\2022\Professional\VC\Tools\MSVC\14.44.35207\include\vector
; File C:\Program Files\Microsoft Visual Studio\2022\Professional\VC\Tools\MSVC\14.44.35207\include\xmemory
; File C:\Program Files\Microsoft Visual Studio\2022\Professional\VC\Tools\MSVC\14.44.35207\include\vector
; File C:\Program Files\Microsoft Visual Studio\2022\Professional\VC\Tools\MSVC\14.44.35207\include\xmemory
; File C:\Program Files\Microsoft Visual Studio\2022\Professional\VC\Tools\MSVC\14.44.35207\include\vector
; File C:\Program Files\Microsoft Visual Studio\2022\Professional\VC\Tools\MSVC\14.44.35207\include\xmemory
; File C:\Program Files\Microsoft Visual Studio\2022\Professional\VC\Tools\MSVC\14.44.35207\include\vector
; File C:\Program Files\Microsoft Visual Studio\2022\Professional\VC\Tools\MSVC\14.44.35207\include\xmemory
; File C:\Program Files\Microsoft Visual Studio\2022\Professional\VC\Tools\MSVC\14.44.35207\include\vector
;	COMDAT ??$_Emplace_reallocate@ABK@?$vector@KV?$allocator@K@std@@@std@@AAEPAKQAKABK@Z
_TEXT	SEGMENT
__Newsize$1$ = -12					; size = 4
tv652 = -8						; size = 4
tv650 = -4						; size = 4
__Whereptr$ = 8						; size = 4
_<_Val_0>$ = 12						; size = 4
??$_Emplace_reallocate@ABK@?$vector@KV?$allocator@K@std@@@std@@AAEPAKQAKABK@Z PROC ; std::vector<unsigned long,std::allocator<unsigned long> >::_Emplace_reallocate<unsigned long const &>, COMDAT
; _this$ = ecx

; 875  :     _CONSTEXPR20 pointer _Emplace_reallocate(const pointer _Whereptr, _Valty&&... _Val) {

  00000	55		 push	 ebp
  00001	8b ec		 mov	 ebp, esp
  00003	83 ec 0c	 sub	 esp, 12			; 0000000cH
  00006	53		 push	 ebx

; 876  :         // reallocate and insert by perfectly forwarding _Val at _Whereptr
; 877  :         _Alty& _Al        = _Getal();
; 878  :         auto& _My_data    = _Mypair._Myval2;
; 879  :         pointer& _Myfirst = _My_data._Myfirst;
; 880  :         pointer& _Mylast  = _My_data._Mylast;
; 881  : 
; 882  :         _STL_INTERNAL_CHECK(_Mylast == _My_data._Myend); // check that we have no unused capacity
; 883  : 
; 884  :         const auto _Whereoff = static_cast<size_type>(_Whereptr - _Myfirst);

  00007	8b 5d 08	 mov	 ebx, DWORD PTR __Whereptr$[ebp]
  0000a	56		 push	 esi
  0000b	8b f1		 mov	 esi, ecx
  0000d	57		 push	 edi
  0000e	8b 0e		 mov	 ecx, DWORD PTR [esi]
  00010	2b d9		 sub	 ebx, ecx

; 885  :         const auto _Oldsize  = static_cast<size_type>(_Mylast - _Myfirst);

  00012	8b 46 04	 mov	 eax, DWORD PTR [esi+4]
  00015	2b c1		 sub	 eax, ecx
  00017	c1 fb 02	 sar	 ebx, 2
  0001a	c1 f8 02	 sar	 eax, 2

; 886  : 
; 887  :         if (_Oldsize == max_size()) {

  0001d	3d ff ff ff 3f	 cmp	 eax, 1073741823		; 3fffffffH
  00022	0f 84 13 01 00
	00		 je	 $LN111@Emplace_re

; 1924 :         return static_cast<size_type>(_My_data._Myend - _My_data._Myfirst);

  00028	8b 56 08	 mov	 edx, DWORD PTR [esi+8]

; 889  :         }
; 890  : 
; 891  :         const size_type _Newsize = _Oldsize + 1;

  0002b	8d 78 01	 lea	 edi, DWORD PTR [eax+1]

; 1924 :         return static_cast<size_type>(_My_data._Myend - _My_data._Myfirst);

  0002e	2b d1		 sub	 edx, ecx

; 889  :         }
; 890  : 
; 891  :         const size_type _Newsize = _Oldsize + 1;

  00030	89 7d f4	 mov	 DWORD PTR __Newsize$1$[ebp], edi

; 1924 :         return static_cast<size_type>(_My_data._Myend - _My_data._Myfirst);

  00033	c1 fa 02	 sar	 edx, 2

; 2011 :         if (_Oldcapacity > _Max - _Oldcapacity / 2) {

  00036	b8 ff ff ff 3f	 mov	 eax, 1073741823		; 3fffffffH
  0003b	8b ca		 mov	 ecx, edx
  0003d	d1 e9		 shr	 ecx, 1
  0003f	2b c1		 sub	 eax, ecx
  00041	3b d0		 cmp	 edx, eax
  00043	76 14		 jbe	 SHORT $LN8@Emplace_re

; 2012 :             return _Max; // geometric growth would overflow

  00045	b8 fc ff ff ff	 mov	 eax, -4			; fffffffcH
  0004a	c7 45 f8 fc ff
	ff ff		 mov	 DWORD PTR tv652[ebp], -4 ; fffffffcH
; File C:\Program Files\Microsoft Visual Studio\2022\Professional\VC\Tools\MSVC\14.44.35207\include\xmemory

; 253  :             return _Allocate_manually_vector_aligned<_Traits>(_Bytes);

  00051	50		 push	 eax
  00052	e8 00 00 00 00	 call	 ??$_Allocate_manually_vector_aligned@U_Default_allocate_traits@std@@@std@@YAPAXI@Z ; std::_Allocate_manually_vector_aligned<std::_Default_allocate_traits>
  00057	eb 3d		 jmp	 SHORT $LN109@Emplace_re
$LN8@Emplace_re:
; File C:\Program Files\Microsoft Visual Studio\2022\Professional\VC\Tools\MSVC\14.44.35207\include\vector

; 2015 :         const size_type _Geometric = _Oldcapacity + _Oldcapacity / 2;

  00059	8d 04 11	 lea	 eax, DWORD PTR [ecx+edx]
; File C:\Program Files\Microsoft Visual Studio\2022\Professional\VC\Tools\MSVC\14.44.35207\include\xmemory

; 117  :         if (_Count > _Max_possible) {

  0005c	8b cf		 mov	 ecx, edi
  0005e	3b c7		 cmp	 eax, edi
  00060	0f 43 c8	 cmovae	 ecx, eax
  00063	81 f9 ff ff ff
	3f		 cmp	 ecx, 1073741823		; 3fffffffH
  00069	0f 87 d1 00 00
	00		 ja	 $LN112@Emplace_re

; 119  :         }
; 120  :     }
; 121  : 
; 122  :     return _Count * _Ty_size;

  0006f	8d 04 8d 00 00
	00 00		 lea	 eax, DWORD PTR [ecx*4]
  00076	89 45 f8	 mov	 DWORD PTR tv652[ebp], eax

; 227  :     if (_Bytes == 0) {

  00079	85 c0		 test	 eax, eax
  0007b	75 04		 jne	 SHORT $LN23@Emplace_re

; 228  :         return nullptr;

  0007d	33 ff		 xor	 edi, edi
  0007f	eb 1a		 jmp	 SHORT $LN22@Emplace_re
$LN23@Emplace_re:

; 229  :     }
; 230  : 
; 231  : #if _HAS_CXX20 // TRANSITION, GH-1532
; 232  :     if (_STD is_constant_evaluated()) {
; 233  :         return _Traits::_Allocate(_Bytes);
; 234  :     }
; 235  : #endif // _HAS_CXX20
; 236  : 
; 237  : #ifdef __cpp_aligned_new
; 238  :     if constexpr (_Align > __STDCPP_DEFAULT_NEW_ALIGNMENT__) {
; 239  :         size_t _Passed_align = _Align;
; 240  : #if defined(_M_IX86) || defined(_M_X64)
; 241  :         if (_Bytes >= _Big_allocation_threshold) {
; 242  :             // boost the alignment of big allocations to help autovectorization
; 243  :             _Passed_align = (_STD max)(_Align, _Big_allocation_alignment);
; 244  :         }
; 245  : #endif // defined(_M_IX86) || defined(_M_X64)
; 246  :         return _Traits::_Allocate_aligned(_Bytes, _Passed_align);
; 247  :     } else
; 248  : #endif // defined(__cpp_aligned_new)
; 249  :     {
; 250  : #if defined(_M_IX86) || defined(_M_X64)
; 251  :         if (_Bytes >= _Big_allocation_threshold) {

  00081	3d 00 10 00 00	 cmp	 eax, 4096		; 00001000H
  00086	72 08		 jb	 SHORT $LN24@Emplace_re

; 253  :             return _Allocate_manually_vector_aligned<_Traits>(_Bytes);

  00088	50		 push	 eax
  00089	e8 00 00 00 00	 call	 ??$_Allocate_manually_vector_aligned@U_Default_allocate_traits@std@@@std@@YAPAXI@Z ; std::_Allocate_manually_vector_aligned<std::_Default_allocate_traits>
  0008e	eb 06		 jmp	 SHORT $LN109@Emplace_re
$LN24@Emplace_re:

; 136  :         return ::operator new(_Bytes);

  00090	50		 push	 eax
  00091	e8 00 00 00 00	 call	 ??2@YAPAXI@Z		; operator new
$LN109@Emplace_re:
; File C:\Program Files\Microsoft Visual Studio\2022\Professional\VC\Tools\MSVC\14.44.35207\include\vector

; 900  :         _Alty_traits::construct(_Al, _STD _Unfancy(_Newvec + _Whereoff), _STD forward<_Valty>(_Val)...);

  00096	8b f8		 mov	 edi, eax
  00098	83 c4 04	 add	 esp, 4
$LN22@Emplace_re:
  0009b	8b 45 0c	 mov	 eax, DWORD PTR _<_Val_0>$[ebp]
  0009e	8d 0c 9f	 lea	 ecx, DWORD PTR [edi+ebx*4]

; 901  :         _Constructed_first = _Newvec + _Whereoff;
; 902  : 
; 903  :         if (_Whereptr == _Mylast) { // at back, provide strong guarantee

  000a1	8b 5d 08	 mov	 ebx, DWORD PTR __Whereptr$[ebp]
  000a4	89 4d fc	 mov	 DWORD PTR tv650[ebp], ecx
  000a7	8b 00		 mov	 eax, DWORD PTR [eax]
  000a9	89 01		 mov	 DWORD PTR [ecx], eax
  000ab	8b 46 04	 mov	 eax, DWORD PTR [esi+4]
  000ae	8b 0e		 mov	 ecx, DWORD PTR [esi]
  000b0	3b d8		 cmp	 ebx, eax
  000b2	75 07		 jne	 SHORT $LN3@Emplace_re

; 909  :         } else { // provide basic guarantee

  000b4	8b 5d fc	 mov	 ebx, DWORD PTR tv650[ebp]
; File C:\Program Files\Microsoft Visual Studio\2022\Professional\VC\Tools\MSVC\14.44.35207\include\xmemory

; 1992 :             _STD _Copy_memmove(_UFirst, _ULast, _STD _Unfancy(_Dest));

  000b7	8b d7		 mov	 edx, edi
; File C:\Program Files\Microsoft Visual Studio\2022\Professional\VC\Tools\MSVC\14.44.35207\include\vector

; 909  :         } else { // provide basic guarantee

  000b9	eb 16		 jmp	 SHORT $LN52@Emplace_re
$LN3@Emplace_re:
; File C:\Program Files\Microsoft Visual Studio\2022\Professional\VC\Tools\MSVC\14.44.35207\include\xmemory

; 1992 :             _STD _Copy_memmove(_UFirst, _ULast, _STD _Unfancy(_Dest));

  000bb	57		 push	 edi
  000bc	53		 push	 ebx
  000bd	51		 push	 ecx
  000be	e8 00 00 00 00	 call	 ??$_Copy_memmove@PAKPAK@std@@YAPAKPAK00@Z ; std::_Copy_memmove<unsigned long *,unsigned long *>
  000c3	8b 46 04	 mov	 eax, DWORD PTR [esi+4]
  000c6	8b cb		 mov	 ecx, ebx
; File C:\Program Files\Microsoft Visual Studio\2022\Professional\VC\Tools\MSVC\14.44.35207\include\vector

; 912  :             _STD _Uninitialized_move(_Whereptr, _Mylast, _Newvec + _Whereoff + 1, _Al);

  000c8	8b 5d fc	 mov	 ebx, DWORD PTR tv650[ebp]
; File C:\Program Files\Microsoft Visual Studio\2022\Professional\VC\Tools\MSVC\14.44.35207\include\xmemory

; 1992 :             _STD _Copy_memmove(_UFirst, _ULast, _STD _Unfancy(_Dest));

  000cb	83 c4 0c	 add	 esp, 12			; 0000000cH
; File C:\Program Files\Microsoft Visual Studio\2022\Professional\VC\Tools\MSVC\14.44.35207\include\vector

; 912  :             _STD _Uninitialized_move(_Whereptr, _Mylast, _Newvec + _Whereoff + 1, _Al);

  000ce	8d 53 04	 lea	 edx, DWORD PTR [ebx+4]
$LN52@Emplace_re:

; 913  :         }
; 914  : 
; 915  :         _Guard._New_begin = nullptr;

  000d1	52		 push	 edx
  000d2	50		 push	 eax
  000d3	51		 push	 ecx
  000d4	e8 00 00 00 00	 call	 ??$_Copy_memmove@PAKPAK@std@@YAPAKPAK00@Z ; std::_Copy_memmove<unsigned long *,unsigned long *>

; 2069 :         if (_Myfirst) { // destroy and deallocate old array

  000d9	8b 06		 mov	 eax, DWORD PTR [esi]

; 913  :         }
; 914  : 
; 915  :         _Guard._New_begin = nullptr;

  000db	83 c4 0c	 add	 esp, 12			; 0000000cH

; 2069 :         if (_Myfirst) { // destroy and deallocate old array

  000de	85 c0		 test	 eax, eax
  000e0	74 2c		 je	 SHORT $LN72@Emplace_re

; 2070 :             _STD _Destroy_range(_Myfirst, _Mylast, _Al);
; 2071 :             _ASAN_VECTOR_REMOVE;
; 2072 :             _Al.deallocate(_Myfirst, static_cast<size_type>(_Myend - _Myfirst));

  000e2	8b 4e 08	 mov	 ecx, DWORD PTR [esi+8]
  000e5	2b c8		 sub	 ecx, eax
; File C:\Program Files\Microsoft Visual Studio\2022\Professional\VC\Tools\MSVC\14.44.35207\include\xmemory

; 985  :         _STD _Deallocate<_New_alignof<_Ty>>(_Ptr, sizeof(_Ty) * _Count);

  000e7	83 e1 fc	 and	 ecx, -4			; fffffffcH

; 284  :         if (_Bytes >= _Big_allocation_threshold) {

  000ea	81 f9 00 10 00
	00		 cmp	 ecx, 4096		; 00001000H
  000f0	72 12		 jb	 SHORT $LN77@Emplace_re

; 205  :     const uintptr_t _Ptr_container   = _Ptr_user[-1];

  000f2	8b 50 fc	 mov	 edx, DWORD PTR [eax-4]
  000f5	83 c1 23	 add	 ecx, 35			; 00000023H

; 206  : 
; 207  :     // If the following asserts, it likely means that we are performing
; 208  :     // an aligned delete on memory coming from an unaligned allocation.
; 209  :     _STL_ASSERT(_Ptr_user[-2] == _Big_allocation_sentinel, "invalid argument");
; 210  : 
; 211  :     // Extra paranoia on aligned allocation/deallocation; ensure _Ptr_container is
; 212  :     // in range [_Min_back_shift, _Non_user_size]
; 213  : #ifdef _DEBUG
; 214  :     constexpr uintptr_t _Min_back_shift = 2 * sizeof(void*);
; 215  : #else // ^^^ defined(_DEBUG) / !defined(_DEBUG) vvv
; 216  :     constexpr uintptr_t _Min_back_shift = sizeof(void*);
; 217  : #endif // ^^^ !defined(_DEBUG) ^^^
; 218  :     const uintptr_t _Back_shift = reinterpret_cast<uintptr_t>(_Ptr) - _Ptr_container;

  000f8	2b c2		 sub	 eax, edx

; 219  :     _STL_VERIFY(_Back_shift >= _Min_back_shift && _Back_shift <= _Non_user_size, "invalid argument");

  000fa	83 c0 fc	 add	 eax, -4			; fffffffcH
  000fd	83 f8 1f	 cmp	 eax, 31			; 0000001fH
  00100	77 2a		 ja	 SHORT $LN76@Emplace_re

; 220  :     _Ptr = reinterpret_cast<void*>(_Ptr_container);

  00102	8b c2		 mov	 eax, edx
$LN77@Emplace_re:

; 289  :         ::operator delete(_Ptr, _Bytes);

  00104	51		 push	 ecx
  00105	50		 push	 eax
  00106	e8 00 00 00 00	 call	 ??3@YAXPAXI@Z		; operator delete
  0010b	83 c4 08	 add	 esp, 8
$LN72@Emplace_re:
; File C:\Program Files\Microsoft Visual Studio\2022\Professional\VC\Tools\MSVC\14.44.35207\include\vector

; 2076 :         _Mylast  = _Newvec + _Newsize;

  0010e	8b 45 f4	 mov	 eax, DWORD PTR __Newsize$1$[ebp]
  00111	89 3e		 mov	 DWORD PTR [esi], edi
  00113	8d 0c 87	 lea	 ecx, DWORD PTR [edi+eax*4]

; 916  :         _Change_array(_Newvec, _Newsize, _Newcapacity);
; 917  :         return _Newvec + _Whereoff;

  00116	8b c3		 mov	 eax, ebx

; 2076 :         _Mylast  = _Newvec + _Newsize;

  00118	89 4e 04	 mov	 DWORD PTR [esi+4], ecx

; 2077 :         _Myend   = _Newvec + _Newcapacity;

  0011b	8b 4d f8	 mov	 ecx, DWORD PTR tv652[ebp]
  0011e	03 cf		 add	 ecx, edi

; 918  :     }

  00120	5f		 pop	 edi

; 2077 :         _Myend   = _Newvec + _Newcapacity;

  00121	89 4e 08	 mov	 DWORD PTR [esi+8], ecx

; 918  :     }

  00124	5e		 pop	 esi
  00125	5b		 pop	 ebx
  00126	8b e5		 mov	 esp, ebp
  00128	5d		 pop	 ebp
  00129	c2 08 00	 ret	 8
$LN76@Emplace_re:
; File C:\Program Files\Microsoft Visual Studio\2022\Professional\VC\Tools\MSVC\14.44.35207\include\xmemory

; 219  :     _STL_VERIFY(_Back_shift >= _Min_back_shift && _Back_shift <= _Non_user_size, "invalid argument");

  0012c	6a 00		 push	 0
  0012e	6a 00		 push	 0
  00130	6a 00		 push	 0
  00132	6a 00		 push	 0
  00134	6a 00		 push	 0
  00136	e8 00 00 00 00	 call	 __invoke_watson
$LN111@Emplace_re:
; File C:\Program Files\Microsoft Visual Studio\2022\Professional\VC\Tools\MSVC\14.44.35207\include\vector

; 888  :             _Xlength();

  0013b	e8 00 00 00 00	 call	 ?_Xlength@?$vector@KV?$allocator@K@std@@@std@@CAXXZ ; std::vector<unsigned long,std::allocator<unsigned long> >::_Xlength
$LN112@Emplace_re:
; File C:\Program Files\Microsoft Visual Studio\2022\Professional\VC\Tools\MSVC\14.44.35207\include\xmemory

; 118  :             _Throw_bad_array_new_length(); // multiply overflow

  00140	e8 00 00 00 00	 call	 ?_Throw_bad_array_new_length@std@@YAXXZ ; std::_Throw_bad_array_new_length
$LN108@Emplace_re:
  00145	cc		 int	 3
??$_Emplace_reallocate@ABK@?$vector@KV?$allocator@K@std@@@std@@AAEPAKQAKABK@Z ENDP ; std::vector<unsigned long,std::allocator<unsigned long> >::_Emplace_reallocate<unsigned long const &>
_TEXT	ENDS
; Function compile flags: /Ogtp
; File C:\Program Files\Microsoft Visual Studio\2022\Professional\VC\Tools\MSVC\14.44.35207\include\vector
; File C:\Program Files\Microsoft Visual Studio\2022\Professional\VC\Tools\MSVC\14.44.35207\include\xmemory
; File C:\Program Files\Microsoft Visual Studio\2022\Professional\VC\Tools\MSVC\14.44.35207\include\vector
; File C:\Program Files\Microsoft Visual Studio\2022\Professional\VC\Tools\MSVC\14.44.35207\include\xmemory
; File C:\Program Files\Microsoft Visual Studio\2022\Professional\VC\Tools\MSVC\14.44.35207\include\vector
; File C:\Program Files\Microsoft Visual Studio\2022\Professional\VC\Tools\MSVC\14.44.35207\include\xmemory
; File C:\Program Files\Microsoft Visual Studio\2022\Professional\VC\Tools\MSVC\14.44.35207\include\vector
; File C:\Program Files\Microsoft Visual Studio\2022\Professional\VC\Tools\MSVC\14.44.35207\include\xmemory
; File C:\Program Files\Microsoft Visual Studio\2022\Professional\VC\Tools\MSVC\14.44.35207\include\vector
; File C:\Program Files\Microsoft Visual Studio\2022\Professional\VC\Tools\MSVC\14.44.35207\include\xmemory
; File C:\Program Files\Microsoft Visual Studio\2022\Professional\VC\Tools\MSVC\14.44.35207\include\vector
; File C:\Program Files\Microsoft Visual Studio\2022\Professional\VC\Tools\MSVC\14.44.35207\include\xmemory
; File C:\Program Files\Microsoft Visual Studio\2022\Professional\VC\Tools\MSVC\14.44.35207\include\vector
; File C:\Program Files\Microsoft Visual Studio\2022\Professional\VC\Tools\MSVC\14.44.35207\include\xmemory
; File C:\Program Files\Microsoft Visual Studio\2022\Professional\VC\Tools\MSVC\14.44.35207\include\vector
; File C:\Program Files\Microsoft Visual Studio\2022\Professional\VC\Tools\MSVC\14.44.35207\include\xmemory
; File C:\Program Files\Microsoft Visual Studio\2022\Professional\VC\Tools\MSVC\14.44.35207\include\vector
; File C:\Program Files\Microsoft Visual Studio\2022\Professional\VC\Tools\MSVC\14.44.35207\include\xmemory
; File C:\Program Files\Microsoft Visual Studio\2022\Professional\VC\Tools\MSVC\14.44.35207\include\vector
; File C:\Program Files\Microsoft Visual Studio\2022\Professional\VC\Tools\MSVC\14.44.35207\include\xmemory
; File C:\Program Files\Microsoft Visual Studio\2022\Professional\VC\Tools\MSVC\14.44.35207\include\vector
;	COMDAT ??$_Emplace_reallocate@U__SPAWNINFO@CEventLua@@@?$vector@U__SPAWNINFO@CEventLua@@V?$allocator@U__SPAWNINFO@CEventLua@@@std@@@std@@AAEPAU__SPAWNINFO@CEventLua@@QAU23@$$QAU23@@Z
_TEXT	SEGMENT
__Newsize$1$ = -12					; size = 4
$T1 = -8						; size = 4
tv710 = -4						; size = 4
__Whereptr$ = 8						; size = 4
_<_Val_0>$ = 12						; size = 4
??$_Emplace_reallocate@U__SPAWNINFO@CEventLua@@@?$vector@U__SPAWNINFO@CEventLua@@V?$allocator@U__SPAWNINFO@CEventLua@@@std@@@std@@AAEPAU__SPAWNINFO@CEventLua@@QAU23@$$QAU23@@Z PROC ; std::vector<CEventLua::__SPAWNINFO,std::allocator<CEventLua::__SPAWNINFO> >::_Emplace_reallocate<CEventLua::__SPAWNINFO>, COMDAT
; _this$ = ecx

; 875  :     _CONSTEXPR20 pointer _Emplace_reallocate(const pointer _Whereptr, _Valty&&... _Val) {

  00000	55		 push	 ebp
  00001	8b ec		 mov	 ebp, esp
  00003	83 ec 0c	 sub	 esp, 12			; 0000000cH
  00006	53		 push	 ebx

; 876  :         // reallocate and insert by perfectly forwarding _Val at _Whereptr
; 877  :         _Alty& _Al        = _Getal();
; 878  :         auto& _My_data    = _Mypair._Myval2;
; 879  :         pointer& _Myfirst = _My_data._Myfirst;
; 880  :         pointer& _Mylast  = _My_data._Mylast;
; 881  : 
; 882  :         _STL_INTERNAL_CHECK(_Mylast == _My_data._Myend); // check that we have no unused capacity
; 883  : 
; 884  :         const auto _Whereoff = static_cast<size_type>(_Whereptr - _Myfirst);

  00007	8b 5d 08	 mov	 ebx, DWORD PTR __Whereptr$[ebp]
  0000a	56		 push	 esi
  0000b	8b f1		 mov	 esi, ecx
  0000d	57		 push	 edi
  0000e	8b 0e		 mov	 ecx, DWORD PTR [esi]
  00010	2b d9		 sub	 ebx, ecx

; 885  :         const auto _Oldsize  = static_cast<size_type>(_Mylast - _Myfirst);

  00012	8b 46 04	 mov	 eax, DWORD PTR [esi+4]
  00015	2b c1		 sub	 eax, ecx
  00017	c1 f8 04	 sar	 eax, 4

; 886  : 
; 887  :         if (_Oldsize == max_size()) {

  0001a	3d ff ff ff 0f	 cmp	 eax, 268435455		; 0fffffffH
  0001f	0f 84 18 01 00
	00		 je	 $LN119@Emplace_re

; 1924 :         return static_cast<size_type>(_My_data._Myend - _My_data._Myfirst);

  00025	8b 7e 08	 mov	 edi, DWORD PTR [esi+8]

; 889  :         }
; 890  : 
; 891  :         const size_type _Newsize = _Oldsize + 1;

  00028	8d 50 01	 lea	 edx, DWORD PTR [eax+1]

; 1924 :         return static_cast<size_type>(_My_data._Myend - _My_data._Myfirst);

  0002b	2b f9		 sub	 edi, ecx

; 889  :         }
; 890  : 
; 891  :         const size_type _Newsize = _Oldsize + 1;

  0002d	89 55 f4	 mov	 DWORD PTR __Newsize$1$[ebp], edx

; 1924 :         return static_cast<size_type>(_My_data._Myend - _My_data._Myfirst);

  00030	c1 ff 04	 sar	 edi, 4

; 2011 :         if (_Oldcapacity > _Max - _Oldcapacity / 2) {

  00033	b8 ff ff ff 0f	 mov	 eax, 268435455		; 0fffffffH
  00038	8b cf		 mov	 ecx, edi
  0003a	d1 e9		 shr	 ecx, 1
  0003c	2b c1		 sub	 eax, ecx
  0003e	3b f8		 cmp	 edi, eax
  00040	76 14		 jbe	 SHORT $LN8@Emplace_re

; 2012 :             return _Max; // geometric growth would overflow

  00042	b8 f0 ff ff ff	 mov	 eax, -16		; fffffff0H
  00047	c7 45 f8 f0 ff
	ff ff		 mov	 DWORD PTR $T1[ebp], -16	; fffffff0H
; File C:\Program Files\Microsoft Visual Studio\2022\Professional\VC\Tools\MSVC\14.44.35207\include\xmemory

; 253  :             return _Allocate_manually_vector_aligned<_Traits>(_Bytes);

  0004e	50		 push	 eax
  0004f	e8 00 00 00 00	 call	 ??$_Allocate_manually_vector_aligned@U_Default_allocate_traits@std@@@std@@YAPAXI@Z ; std::_Allocate_manually_vector_aligned<std::_Default_allocate_traits>
  00054	eb 3b		 jmp	 SHORT $LN117@Emplace_re
$LN8@Emplace_re:
; File C:\Program Files\Microsoft Visual Studio\2022\Professional\VC\Tools\MSVC\14.44.35207\include\vector

; 2015 :         const size_type _Geometric = _Oldcapacity + _Oldcapacity / 2;

  00056	8d 04 39	 lea	 eax, DWORD PTR [ecx+edi]
; File C:\Program Files\Microsoft Visual Studio\2022\Professional\VC\Tools\MSVC\14.44.35207\include\xmemory

; 117  :         if (_Count > _Max_possible) {

  00059	8b ca		 mov	 ecx, edx
  0005b	3b c2		 cmp	 eax, edx
  0005d	0f 43 c8	 cmovae	 ecx, eax
  00060	81 f9 ff ff ff
	0f		 cmp	 ecx, 268435455		; 0fffffffH
  00066	0f 87 d6 00 00
	00		 ja	 $LN120@Emplace_re

; 119  :         }
; 120  :     }
; 121  : 
; 122  :     return _Count * _Ty_size;

  0006c	c1 e1 04	 shl	 ecx, 4

; 990  :         return static_cast<_Ty*>(_STD _Allocate<_New_alignof<_Ty>>(_Get_size_of_n<sizeof(_Ty)>(_Count)));

  0006f	8b c1		 mov	 eax, ecx

; 122  :     return _Count * _Ty_size;

  00071	89 4d f8	 mov	 DWORD PTR $T1[ebp], ecx

; 227  :     if (_Bytes == 0) {

  00074	85 c0		 test	 eax, eax
  00076	75 04		 jne	 SHORT $LN23@Emplace_re

; 228  :         return nullptr;

  00078	33 ff		 xor	 edi, edi
  0007a	eb 1a		 jmp	 SHORT $LN22@Emplace_re
$LN23@Emplace_re:

; 229  :     }
; 230  : 
; 231  : #if _HAS_CXX20 // TRANSITION, GH-1532
; 232  :     if (_STD is_constant_evaluated()) {
; 233  :         return _Traits::_Allocate(_Bytes);
; 234  :     }
; 235  : #endif // _HAS_CXX20
; 236  : 
; 237  : #ifdef __cpp_aligned_new
; 238  :     if constexpr (_Align > __STDCPP_DEFAULT_NEW_ALIGNMENT__) {
; 239  :         size_t _Passed_align = _Align;
; 240  : #if defined(_M_IX86) || defined(_M_X64)
; 241  :         if (_Bytes >= _Big_allocation_threshold) {
; 242  :             // boost the alignment of big allocations to help autovectorization
; 243  :             _Passed_align = (_STD max)(_Align, _Big_allocation_alignment);
; 244  :         }
; 245  : #endif // defined(_M_IX86) || defined(_M_X64)
; 246  :         return _Traits::_Allocate_aligned(_Bytes, _Passed_align);
; 247  :     } else
; 248  : #endif // defined(__cpp_aligned_new)
; 249  :     {
; 250  : #if defined(_M_IX86) || defined(_M_X64)
; 251  :         if (_Bytes >= _Big_allocation_threshold) {

  0007c	3d 00 10 00 00	 cmp	 eax, 4096		; 00001000H
  00081	72 08		 jb	 SHORT $LN24@Emplace_re

; 253  :             return _Allocate_manually_vector_aligned<_Traits>(_Bytes);

  00083	50		 push	 eax
  00084	e8 00 00 00 00	 call	 ??$_Allocate_manually_vector_aligned@U_Default_allocate_traits@std@@@std@@YAPAXI@Z ; std::_Allocate_manually_vector_aligned<std::_Default_allocate_traits>
  00089	eb 06		 jmp	 SHORT $LN117@Emplace_re
$LN24@Emplace_re:

; 136  :         return ::operator new(_Bytes);

  0008b	50		 push	 eax
  0008c	e8 00 00 00 00	 call	 ??2@YAPAXI@Z		; operator new
$LN117@Emplace_re:
; File C:\Program Files\Microsoft Visual Studio\2022\Professional\VC\Tools\MSVC\14.44.35207\include\vector

; 900  :         _Alty_traits::construct(_Al, _STD _Unfancy(_Newvec + _Whereoff), _STD forward<_Valty>(_Val)...);

  00091	8b f8		 mov	 edi, eax
  00093	83 c4 04	 add	 esp, 4
$LN22@Emplace_re:
; File C:\Program Files\Microsoft Visual Studio\2022\Professional\VC\Tools\MSVC\14.44.35207\include\xmemory

; 732  :         ::new (const_cast<void*>(static_cast<const volatile void*>(_Ptr))) _Objty(_STD forward<_Types>(_Args)...);

  00096	8b 45 0c	 mov	 eax, DWORD PTR _<_Val_0>$[ebp]
; File C:\Program Files\Microsoft Visual Studio\2022\Professional\VC\Tools\MSVC\14.44.35207\include\vector

; 900  :         _Alty_traits::construct(_Al, _STD _Unfancy(_Newvec + _Whereoff), _STD forward<_Valty>(_Val)...);

  00099	83 e3 f0	 and	 ebx, -16		; fffffff0H
  0009c	8d 0c 3b	 lea	 ecx, DWORD PTR [ebx+edi]

; 903  :         if (_Whereptr == _Mylast) { // at back, provide strong guarantee

  0009f	8b 5d 08	 mov	 ebx, DWORD PTR __Whereptr$[ebp]
  000a2	89 4d fc	 mov	 DWORD PTR tv710[ebp], ecx
; File C:\Program Files\Microsoft Visual Studio\2022\Professional\VC\Tools\MSVC\14.44.35207\include\xmemory

; 732  :         ::new (const_cast<void*>(static_cast<const volatile void*>(_Ptr))) _Objty(_STD forward<_Types>(_Args)...);

  000a5	0f 10 00	 movups	 xmm0, XMMWORD PTR [eax]
  000a8	0f 11 01	 movups	 XMMWORD PTR [ecx], xmm0
; File C:\Program Files\Microsoft Visual Studio\2022\Professional\VC\Tools\MSVC\14.44.35207\include\vector

; 903  :         if (_Whereptr == _Mylast) { // at back, provide strong guarantee

  000ab	8b 4e 04	 mov	 ecx, DWORD PTR [esi+4]
  000ae	8b 06		 mov	 eax, DWORD PTR [esi]
  000b0	3b d9		 cmp	 ebx, ecx
  000b2	75 07		 jne	 SHORT $LN3@Emplace_re

; 909  :         } else { // provide basic guarantee

  000b4	8b 5d fc	 mov	 ebx, DWORD PTR tv710[ebp]
; File C:\Program Files\Microsoft Visual Studio\2022\Professional\VC\Tools\MSVC\14.44.35207\include\xmemory

; 1992 :             _STD _Copy_memmove(_UFirst, _ULast, _STD _Unfancy(_Dest));

  000b7	8b d7		 mov	 edx, edi
; File C:\Program Files\Microsoft Visual Studio\2022\Professional\VC\Tools\MSVC\14.44.35207\include\vector

; 909  :         } else { // provide basic guarantee

  000b9	eb 16		 jmp	 SHORT $LN58@Emplace_re
$LN3@Emplace_re:
; File C:\Program Files\Microsoft Visual Studio\2022\Professional\VC\Tools\MSVC\14.44.35207\include\xmemory

; 1992 :             _STD _Copy_memmove(_UFirst, _ULast, _STD _Unfancy(_Dest));

  000bb	57		 push	 edi
  000bc	53		 push	 ebx
  000bd	50		 push	 eax
  000be	e8 00 00 00 00	 call	 ??$_Copy_memmove@PAU__SPAWNINFO@CEventLua@@PAU12@@std@@YAPAU__SPAWNINFO@CEventLua@@PAU12@00@Z ; std::_Copy_memmove<CEventLua::__SPAWNINFO *,CEventLua::__SPAWNINFO *>
  000c3	8b 4e 04	 mov	 ecx, DWORD PTR [esi+4]
  000c6	8b c3		 mov	 eax, ebx
; File C:\Program Files\Microsoft Visual Studio\2022\Professional\VC\Tools\MSVC\14.44.35207\include\vector

; 912  :             _STD _Uninitialized_move(_Whereptr, _Mylast, _Newvec + _Whereoff + 1, _Al);

  000c8	8b 5d fc	 mov	 ebx, DWORD PTR tv710[ebp]
; File C:\Program Files\Microsoft Visual Studio\2022\Professional\VC\Tools\MSVC\14.44.35207\include\xmemory

; 1992 :             _STD _Copy_memmove(_UFirst, _ULast, _STD _Unfancy(_Dest));

  000cb	83 c4 0c	 add	 esp, 12			; 0000000cH
; File C:\Program Files\Microsoft Visual Studio\2022\Professional\VC\Tools\MSVC\14.44.35207\include\vector

; 912  :             _STD _Uninitialized_move(_Whereptr, _Mylast, _Newvec + _Whereoff + 1, _Al);

  000ce	8d 53 10	 lea	 edx, DWORD PTR [ebx+16]
$LN58@Emplace_re:

; 913  :         }
; 914  : 
; 915  :         _Guard._New_begin = nullptr;

  000d1	52		 push	 edx
  000d2	51		 push	 ecx
  000d3	50		 push	 eax
  000d4	e8 00 00 00 00	 call	 ??$_Copy_memmove@PAU__SPAWNINFO@CEventLua@@PAU12@@std@@YAPAU__SPAWNINFO@CEventLua@@PAU12@00@Z ; std::_Copy_memmove<CEventLua::__SPAWNINFO *,CEventLua::__SPAWNINFO *>

; 2069 :         if (_Myfirst) { // destroy and deallocate old array

  000d9	8b 06		 mov	 eax, DWORD PTR [esi]

; 913  :         }
; 914  : 
; 915  :         _Guard._New_begin = nullptr;

  000db	83 c4 0c	 add	 esp, 12			; 0000000cH

; 2069 :         if (_Myfirst) { // destroy and deallocate old array

  000de	85 c0		 test	 eax, eax
  000e0	74 2c		 je	 SHORT $LN80@Emplace_re

; 2070 :             _STD _Destroy_range(_Myfirst, _Mylast, _Al);
; 2071 :             _ASAN_VECTOR_REMOVE;
; 2072 :             _Al.deallocate(_Myfirst, static_cast<size_type>(_Myend - _Myfirst));

  000e2	8b 4e 08	 mov	 ecx, DWORD PTR [esi+8]
  000e5	2b c8		 sub	 ecx, eax
; File C:\Program Files\Microsoft Visual Studio\2022\Professional\VC\Tools\MSVC\14.44.35207\include\xmemory

; 985  :         _STD _Deallocate<_New_alignof<_Ty>>(_Ptr, sizeof(_Ty) * _Count);

  000e7	83 e1 f0	 and	 ecx, -16		; fffffff0H

; 284  :         if (_Bytes >= _Big_allocation_threshold) {

  000ea	81 f9 00 10 00
	00		 cmp	 ecx, 4096		; 00001000H
  000f0	72 12		 jb	 SHORT $LN85@Emplace_re

; 205  :     const uintptr_t _Ptr_container   = _Ptr_user[-1];

  000f2	8b 50 fc	 mov	 edx, DWORD PTR [eax-4]
  000f5	83 c1 23	 add	 ecx, 35			; 00000023H

; 206  : 
; 207  :     // If the following asserts, it likely means that we are performing
; 208  :     // an aligned delete on memory coming from an unaligned allocation.
; 209  :     _STL_ASSERT(_Ptr_user[-2] == _Big_allocation_sentinel, "invalid argument");
; 210  : 
; 211  :     // Extra paranoia on aligned allocation/deallocation; ensure _Ptr_container is
; 212  :     // in range [_Min_back_shift, _Non_user_size]
; 213  : #ifdef _DEBUG
; 214  :     constexpr uintptr_t _Min_back_shift = 2 * sizeof(void*);
; 215  : #else // ^^^ defined(_DEBUG) / !defined(_DEBUG) vvv
; 216  :     constexpr uintptr_t _Min_back_shift = sizeof(void*);
; 217  : #endif // ^^^ !defined(_DEBUG) ^^^
; 218  :     const uintptr_t _Back_shift = reinterpret_cast<uintptr_t>(_Ptr) - _Ptr_container;

  000f8	2b c2		 sub	 eax, edx

; 219  :     _STL_VERIFY(_Back_shift >= _Min_back_shift && _Back_shift <= _Non_user_size, "invalid argument");

  000fa	83 c0 fc	 add	 eax, -4			; fffffffcH
  000fd	83 f8 1f	 cmp	 eax, 31			; 0000001fH
  00100	77 2c		 ja	 SHORT $LN84@Emplace_re

; 220  :     _Ptr = reinterpret_cast<void*>(_Ptr_container);

  00102	8b c2		 mov	 eax, edx
$LN85@Emplace_re:

; 289  :         ::operator delete(_Ptr, _Bytes);

  00104	51		 push	 ecx
  00105	50		 push	 eax
  00106	e8 00 00 00 00	 call	 ??3@YAXPAXI@Z		; operator delete
  0010b	83 c4 08	 add	 esp, 8
$LN80@Emplace_re:
; File C:\Program Files\Microsoft Visual Studio\2022\Professional\VC\Tools\MSVC\14.44.35207\include\vector

; 2076 :         _Mylast  = _Newvec + _Newsize;

  0010e	8b 45 f4	 mov	 eax, DWORD PTR __Newsize$1$[ebp]

; 2077 :         _Myend   = _Newvec + _Newcapacity;

  00111	8b 4d f8	 mov	 ecx, DWORD PTR $T1[ebp]
  00114	c1 e0 04	 shl	 eax, 4
  00117	03 c7		 add	 eax, edi
  00119	89 3e		 mov	 DWORD PTR [esi], edi
  0011b	89 46 04	 mov	 DWORD PTR [esi+4], eax
  0011e	03 cf		 add	 ecx, edi

; 918  :     }

  00120	5f		 pop	 edi

; 2077 :         _Myend   = _Newvec + _Newcapacity;

  00121	89 4e 08	 mov	 DWORD PTR [esi+8], ecx

; 916  :         _Change_array(_Newvec, _Newsize, _Newcapacity);
; 917  :         return _Newvec + _Whereoff;

  00124	8b c3		 mov	 eax, ebx

; 918  :     }

  00126	5e		 pop	 esi
  00127	5b		 pop	 ebx
  00128	8b e5		 mov	 esp, ebp
  0012a	5d		 pop	 ebp
  0012b	c2 08 00	 ret	 8
$LN84@Emplace_re:
; File C:\Program Files\Microsoft Visual Studio\2022\Professional\VC\Tools\MSVC\14.44.35207\include\xmemory

; 219  :     _STL_VERIFY(_Back_shift >= _Min_back_shift && _Back_shift <= _Non_user_size, "invalid argument");

  0012e	6a 00		 push	 0
  00130	6a 00		 push	 0
  00132	6a 00		 push	 0
  00134	6a 00		 push	 0
  00136	6a 00		 push	 0
  00138	e8 00 00 00 00	 call	 __invoke_watson
$LN119@Emplace_re:
; File C:\Program Files\Microsoft Visual Studio\2022\Professional\VC\Tools\MSVC\14.44.35207\include\vector

; 888  :             _Xlength();

  0013d	e8 00 00 00 00	 call	 ?_Xlength@?$vector@U__SPAWNINFO@CEventLua@@V?$allocator@U__SPAWNINFO@CEventLua@@@std@@@std@@CAXXZ ; std::vector<CEventLua::__SPAWNINFO,std::allocator<CEventLua::__SPAWNINFO> >::_Xlength
$LN120@Emplace_re:
; File C:\Program Files\Microsoft Visual Studio\2022\Professional\VC\Tools\MSVC\14.44.35207\include\xmemory

; 118  :             _Throw_bad_array_new_length(); // multiply overflow

  00142	e8 00 00 00 00	 call	 ?_Throw_bad_array_new_length@std@@YAXXZ ; std::_Throw_bad_array_new_length
$LN116@Emplace_re:
  00147	cc		 int	 3
??$_Emplace_reallocate@U__SPAWNINFO@CEventLua@@@?$vector@U__SPAWNINFO@CEventLua@@V?$allocator@U__SPAWNINFO@CEventLua@@@std@@@std@@AAEPAU__SPAWNINFO@CEventLua@@QAU23@$$QAU23@@Z ENDP ; std::vector<CEventLua::__SPAWNINFO,std::allocator<CEventLua::__SPAWNINFO> >::_Emplace_reallocate<CEventLua::__SPAWNINFO>
_TEXT	ENDS
; Function compile flags: /Ogtp
; File C:\Program Files\Microsoft Visual Studio\2022\Professional\VC\Tools\MSVC\14.44.35207\include\xtree
; File C:\Program Files\Microsoft Visual Studio\2022\Professional\VC\Tools\MSVC\14.44.35207\include\type_traits
; File C:\Program Files\Microsoft Visual Studio\2022\Professional\VC\Tools\MSVC\14.44.35207\include\xtree
; File C:\Program Files\Microsoft Visual Studio\2022\Professional\VC\Tools\MSVC\14.44.35207\include\type_traits
; File C:\Program Files\Microsoft Visual Studio\2022\Professional\VC\Tools\MSVC\14.44.35207\include\xtree
;	COMDAT ??$_Find_lower_bound@E@?$_Tree@V?$_Tmap_traits@EV?$vector@U__SPAWNINFO@CEventLua@@V?$allocator@U__SPAWNINFO@CEventLua@@@std@@@std@@U?$less@E@2@V?$allocator@U?$pair@$$CBEV?$vector@U__SPAWNINFO@CEventLua@@V?$allocator@U__SPAWNINFO@CEventLua@@@std@@@std@@@std@@@2@$0A@@std@@@std@@IBE?AU?$_Tree_find_result@PAU?$_Tree_node@U?$pair@$$CBEV?$vector@U__SPAWNINFO@CEventLua@@V?$allocator@U__SPAWNINFO@CEventLua@@@std@@@std@@@std@@PAX@std@@@1@ABE@Z
_TEXT	SEGMENT
___$ReturnUdt$ = 8					; size = 4
__Keyval$ = 12						; size = 4
??$_Find_lower_bound@E@?$_Tree@V?$_Tmap_traits@EV?$vector@U__SPAWNINFO@CEventLua@@V?$allocator@U__SPAWNINFO@CEventLua@@@std@@@std@@U?$less@E@2@V?$allocator@U?$pair@$$CBEV?$vector@U__SPAWNINFO@CEventLua@@V?$allocator@U__SPAWNINFO@CEventLua@@@std@@@std@@@std@@@2@$0A@@std@@@std@@IBE?AU?$_Tree_find_result@PAU?$_Tree_node@U?$pair@$$CBEV?$vector@U__SPAWNINFO@CEventLua@@V?$allocator@U__SPAWNINFO@CEventLua@@@std@@@std@@@std@@PAX@std@@@1@ABE@Z PROC ; std::_Tree<std::_Tmap_traits<unsigned char,std::vector<CEventLua::__SPAWNINFO,std::allocator<CEventLua::__SPAWNINFO> >,std::less<unsigned char>,std::allocator<std::pair<unsigned char const ,std::vector<CEventLua::__SPAWNINFO,std::allocator<CEventLua::__SPAWNINFO> > > >,0> >::_Find_lower_bound<unsigned char>, COMDAT
; _this$ = ecx

; 1628 :     _Tree_find_result<_Nodeptr> _Find_lower_bound(const _Keyty& _Keyval) const {

  00000	55		 push	 ebp
  00001	8b ec		 mov	 ebp, esp

; 1629 :         const auto _Scary = _Get_scary();
; 1630 :         _Tree_find_result<_Nodeptr> _Result{{_Scary->_Myhead->_Parent, _Tree_child::_Right}, _Scary->_Myhead};

  00003	8b 09		 mov	 ecx, DWORD PTR [ecx]
  00005	8b 55 08	 mov	 edx, DWORD PTR ___$ReturnUdt$[ebp]
  00008	8b 41 04	 mov	 eax, DWORD PTR [ecx+4]
  0000b	89 02		 mov	 DWORD PTR [edx], eax
  0000d	c7 42 04 00 00
	00 00		 mov	 DWORD PTR [edx+4], 0
  00014	89 4a 08	 mov	 DWORD PTR [edx+8], ecx

; 1631 :         _Nodeptr _Trynode = _Result._Location._Parent;
; 1632 :         while (!_Trynode->_Isnil) {

  00017	80 78 0d 00	 cmp	 BYTE PTR [eax+13], 0
  0001b	75 28		 jne	 SHORT $LN13@Find_lower
; File C:\Program Files\Microsoft Visual Studio\2022\Professional\VC\Tools\MSVC\14.44.35207\include\type_traits

; 2380 :         return _Left < _Right;

  0001d	8b 4d 0c	 mov	 ecx, DWORD PTR __Keyval$[ebp]
  00020	53		 push	 ebx
  00021	8a 19		 mov	 bl, BYTE PTR [ecx]
$LL2@Find_lower:
; File C:\Program Files\Microsoft Visual Studio\2022\Professional\VC\Tools\MSVC\14.44.35207\include\xtree

; 1633 :             _Result._Location._Parent = _Trynode;

  00023	89 02		 mov	 DWORD PTR [edx], eax
; File C:\Program Files\Microsoft Visual Studio\2022\Professional\VC\Tools\MSVC\14.44.35207\include\type_traits

; 2380 :         return _Left < _Right;

  00025	38 58 10	 cmp	 BYTE PTR [eax+16], bl
; File C:\Program Files\Microsoft Visual Studio\2022\Professional\VC\Tools\MSVC\14.44.35207\include\xtree

; 1634 :             if (_DEBUG_LT_PRED(_Getcomp(), _Traits::_Kfn(_Trynode->_Myval), _Keyval)) {

  00028	73 07		 jae	 SHORT $LN4@Find_lower

; 1635 :                 _Result._Location._Child = _Tree_child::_Right;
; 1636 :                 _Trynode                 = _Trynode->_Right;

  0002a	8b 40 08	 mov	 eax, DWORD PTR [eax+8]
  0002d	33 c9		 xor	 ecx, ecx

; 1637 :             } else {

  0002f	eb 0a		 jmp	 SHORT $LN5@Find_lower
$LN4@Find_lower:

; 1638 :                 _Result._Location._Child = _Tree_child::_Left;
; 1639 :                 _Result._Bound           = _Trynode;

  00031	89 42 08	 mov	 DWORD PTR [edx+8], eax

; 1640 :                 _Trynode                 = _Trynode->_Left;

  00034	b9 01 00 00 00	 mov	 ecx, 1
  00039	8b 00		 mov	 eax, DWORD PTR [eax]
$LN5@Find_lower:

; 1631 :         _Nodeptr _Trynode = _Result._Location._Parent;
; 1632 :         while (!_Trynode->_Isnil) {

  0003b	89 4a 04	 mov	 DWORD PTR [edx+4], ecx
  0003e	80 78 0d 00	 cmp	 BYTE PTR [eax+13], 0
  00042	74 df		 je	 SHORT $LL2@Find_lower
  00044	5b		 pop	 ebx
$LN13@Find_lower:

; 1641 :             }
; 1642 :         }
; 1643 : 
; 1644 :         return _Result;
; 1645 :     }

  00045	8b c2		 mov	 eax, edx
  00047	5d		 pop	 ebp
  00048	c2 08 00	 ret	 8
??$_Find_lower_bound@E@?$_Tree@V?$_Tmap_traits@EV?$vector@U__SPAWNINFO@CEventLua@@V?$allocator@U__SPAWNINFO@CEventLua@@@std@@@std@@U?$less@E@2@V?$allocator@U?$pair@$$CBEV?$vector@U__SPAWNINFO@CEventLua@@V?$allocator@U__SPAWNINFO@CEventLua@@@std@@@std@@@std@@@2@$0A@@std@@@std@@IBE?AU?$_Tree_find_result@PAU?$_Tree_node@U?$pair@$$CBEV?$vector@U__SPAWNINFO@CEventLua@@V?$allocator@U__SPAWNINFO@CEventLua@@@std@@@std@@@std@@PAX@std@@@1@ABE@Z ENDP ; std::_Tree<std::_Tmap_traits<unsigned char,std::vector<CEventLua::__SPAWNINFO,std::allocator<CEventLua::__SPAWNINFO> >,std::less<unsigned char>,std::allocator<std::pair<unsigned char const ,std::vector<CEventLua::__SPAWNINFO,std::allocator<CEventLua::__SPAWNINFO> > > >,0> >::_Find_lower_bound<unsigned char>
_TEXT	ENDS
; Function compile flags: /Ogtp
; File C:\Program Files\Microsoft Visual Studio\2022\Professional\VC\Tools\MSVC\14.44.35207\include\xutility
;	COMDAT ??$_Copy_memmove_n@PAU__SPAWNINFO@CEventLua@@PAU12@@std@@YAPAU__SPAWNINFO@CEventLua@@PAU12@I0@Z
_TEXT	SEGMENT
__First$ = 8						; size = 4
__Object_count$ = 12					; size = 4
__Dest$ = 16						; size = 4
??$_Copy_memmove_n@PAU__SPAWNINFO@CEventLua@@PAU12@@std@@YAPAU__SPAWNINFO@CEventLua@@PAU12@I0@Z PROC ; std::_Copy_memmove_n<CEventLua::__SPAWNINFO *,CEventLua::__SPAWNINFO *>, COMDAT

; 4774 : _OutCtgIt _Copy_memmove_n(_CtgIt _First, const size_t _Object_count, _OutCtgIt _Dest) {

  00000	55		 push	 ebp
  00001	8b ec		 mov	 ebp, esp

; 4775 :     const auto _First_ptr  = _STD _To_address(_First);
; 4776 :     const auto _First_ch   = const_cast<const char*>(reinterpret_cast<const volatile char*>(_First_ptr));
; 4777 :     const auto _Byte_count = _Object_count * sizeof(*_First_ptr);
; 4778 :     return _STD _Copy_memmove_tail(_First_ch, _STD move(_Dest), _Byte_count, _Object_count);

  00003	8b 45 0c	 mov	 eax, DWORD PTR __Object_count$[ebp]
  00006	50		 push	 eax
  00007	c1 e0 04	 shl	 eax, 4
  0000a	50		 push	 eax
  0000b	ff 75 10	 push	 DWORD PTR __Dest$[ebp]
  0000e	ff 75 08	 push	 DWORD PTR __First$[ebp]
  00011	e8 00 00 00 00	 call	 ??$_Copy_memmove_tail@PAU__SPAWNINFO@CEventLua@@@std@@YAPAU__SPAWNINFO@CEventLua@@QBDQAU12@II@Z ; std::_Copy_memmove_tail<CEventLua::__SPAWNINFO *>
  00016	83 c4 10	 add	 esp, 16			; 00000010H

; 4779 : }

  00019	5d		 pop	 ebp
  0001a	c3		 ret	 0
??$_Copy_memmove_n@PAU__SPAWNINFO@CEventLua@@PAU12@@std@@YAPAU__SPAWNINFO@CEventLua@@PAU12@I0@Z ENDP ; std::_Copy_memmove_n<CEventLua::__SPAWNINFO *,CEventLua::__SPAWNINFO *>
_TEXT	ENDS
; Function compile flags: /Ogtp
; File C:\Program Files\Microsoft Visual Studio\2022\Professional\VC\Tools\MSVC\14.44.35207\include\xmemory
;	COMDAT ??1?$_Alloc_construct_ptr@V?$allocator@U?$_Tree_node@U?$pair@$$CBKH@std@@PAX@std@@@std@@@std@@QAE@XZ
_TEXT	SEGMENT
??1?$_Alloc_construct_ptr@V?$allocator@U?$_Tree_node@U?$pair@$$CBKH@std@@PAX@std@@@std@@@std@@QAE@XZ PROC ; std::_Alloc_construct_ptr<std::allocator<std::_Tree_node<std::pair<unsigned long const ,int>,void *> > >::~_Alloc_construct_ptr<std::allocator<std::_Tree_node<std::pair<unsigned long const ,int>,void *> > >, COMDAT
; _this$ = ecx

; 1172 :         if (_Ptr) {

  00000	8b 41 04	 mov	 eax, DWORD PTR [ecx+4]
  00003	85 c0		 test	 eax, eax
  00005	74 0b		 je	 SHORT $LN10@Alloc_cons

; 289  :         ::operator delete(_Ptr, _Bytes);

  00007	6a 18		 push	 24			; 00000018H
  00009	50		 push	 eax
  0000a	e8 00 00 00 00	 call	 ??3@YAXPAXI@Z		; operator delete
  0000f	83 c4 08	 add	 esp, 8
$LN10@Alloc_cons:

; 1173 :             _Al.deallocate(_Ptr, 1);
; 1174 :         }
; 1175 :     }

  00012	c3		 ret	 0
??1?$_Alloc_construct_ptr@V?$allocator@U?$_Tree_node@U?$pair@$$CBKH@std@@PAX@std@@@std@@@std@@QAE@XZ ENDP ; std::_Alloc_construct_ptr<std::allocator<std::_Tree_node<std::pair<unsigned long const ,int>,void *> > >::~_Alloc_construct_ptr<std::allocator<std::_Tree_node<std::pair<unsigned long const ,int>,void *> > >
_TEXT	ENDS
; Function compile flags: /Ogtp
; File C:\Program Files\Microsoft Visual Studio\2022\Professional\VC\Tools\MSVC\14.44.35207\include\xtree
; File C:\Program Files\Microsoft Visual Studio\2022\Professional\VC\Tools\MSVC\14.44.35207\include\type_traits
; File C:\Program Files\Microsoft Visual Studio\2022\Professional\VC\Tools\MSVC\14.44.35207\include\xtree
; File C:\Program Files\Microsoft Visual Studio\2022\Professional\VC\Tools\MSVC\14.44.35207\include\type_traits
; File C:\Program Files\Microsoft Visual Studio\2022\Professional\VC\Tools\MSVC\14.44.35207\include\xtree
;	COMDAT ??$_Find_lower_bound@K@?$_Tree@V?$_Tmap_traits@KHU?$less@K@std@@V?$allocator@U?$pair@$$CBKH@std@@@2@$0A@@std@@@std@@IBE?AU?$_Tree_find_result@PAU?$_Tree_node@U?$pair@$$CBKH@std@@PAX@std@@@1@ABK@Z
_TEXT	SEGMENT
___$ReturnUdt$ = 8					; size = 4
__Keyval$ = 12						; size = 4
??$_Find_lower_bound@K@?$_Tree@V?$_Tmap_traits@KHU?$less@K@std@@V?$allocator@U?$pair@$$CBKH@std@@@2@$0A@@std@@@std@@IBE?AU?$_Tree_find_result@PAU?$_Tree_node@U?$pair@$$CBKH@std@@PAX@std@@@1@ABK@Z PROC ; std::_Tree<std::_Tmap_traits<unsigned long,int,std::less<unsigned long>,std::allocator<std::pair<unsigned long const ,int> >,0> >::_Find_lower_bound<unsigned long>, COMDAT
; _this$ = ecx

; 1628 :     _Tree_find_result<_Nodeptr> _Find_lower_bound(const _Keyty& _Keyval) const {

  00000	55		 push	 ebp
  00001	8b ec		 mov	 ebp, esp

; 1629 :         const auto _Scary = _Get_scary();
; 1630 :         _Tree_find_result<_Nodeptr> _Result{{_Scary->_Myhead->_Parent, _Tree_child::_Right}, _Scary->_Myhead};

  00003	8b 09		 mov	 ecx, DWORD PTR [ecx]
  00005	8b 55 08	 mov	 edx, DWORD PTR ___$ReturnUdt$[ebp]
  00008	8b 41 04	 mov	 eax, DWORD PTR [ecx+4]
  0000b	89 02		 mov	 DWORD PTR [edx], eax
  0000d	c7 42 04 00 00
	00 00		 mov	 DWORD PTR [edx+4], 0
  00014	89 4a 08	 mov	 DWORD PTR [edx+8], ecx

; 1631 :         _Nodeptr _Trynode = _Result._Location._Parent;
; 1632 :         while (!_Trynode->_Isnil) {

  00017	80 78 0d 00	 cmp	 BYTE PTR [eax+13], 0
  0001b	75 28		 jne	 SHORT $LN13@Find_lower
; File C:\Program Files\Microsoft Visual Studio\2022\Professional\VC\Tools\MSVC\14.44.35207\include\type_traits

; 2380 :         return _Left < _Right;

  0001d	8b 4d 0c	 mov	 ecx, DWORD PTR __Keyval$[ebp]
  00020	56		 push	 esi
  00021	8b 31		 mov	 esi, DWORD PTR [ecx]
$LL2@Find_lower:
; File C:\Program Files\Microsoft Visual Studio\2022\Professional\VC\Tools\MSVC\14.44.35207\include\xtree

; 1633 :             _Result._Location._Parent = _Trynode;

  00023	89 02		 mov	 DWORD PTR [edx], eax
; File C:\Program Files\Microsoft Visual Studio\2022\Professional\VC\Tools\MSVC\14.44.35207\include\type_traits

; 2380 :         return _Left < _Right;

  00025	39 70 10	 cmp	 DWORD PTR [eax+16], esi
; File C:\Program Files\Microsoft Visual Studio\2022\Professional\VC\Tools\MSVC\14.44.35207\include\xtree

; 1634 :             if (_DEBUG_LT_PRED(_Getcomp(), _Traits::_Kfn(_Trynode->_Myval), _Keyval)) {

  00028	73 07		 jae	 SHORT $LN4@Find_lower

; 1635 :                 _Result._Location._Child = _Tree_child::_Right;
; 1636 :                 _Trynode                 = _Trynode->_Right;

  0002a	8b 40 08	 mov	 eax, DWORD PTR [eax+8]
  0002d	33 c9		 xor	 ecx, ecx

; 1637 :             } else {

  0002f	eb 0a		 jmp	 SHORT $LN5@Find_lower
$LN4@Find_lower:

; 1638 :                 _Result._Location._Child = _Tree_child::_Left;
; 1639 :                 _Result._Bound           = _Trynode;

  00031	89 42 08	 mov	 DWORD PTR [edx+8], eax

; 1640 :                 _Trynode                 = _Trynode->_Left;

  00034	b9 01 00 00 00	 mov	 ecx, 1
  00039	8b 00		 mov	 eax, DWORD PTR [eax]
$LN5@Find_lower:

; 1631 :         _Nodeptr _Trynode = _Result._Location._Parent;
; 1632 :         while (!_Trynode->_Isnil) {

  0003b	89 4a 04	 mov	 DWORD PTR [edx+4], ecx
  0003e	80 78 0d 00	 cmp	 BYTE PTR [eax+13], 0
  00042	74 df		 je	 SHORT $LL2@Find_lower
  00044	5e		 pop	 esi
$LN13@Find_lower:

; 1641 :             }
; 1642 :         }
; 1643 : 
; 1644 :         return _Result;
; 1645 :     }

  00045	8b c2		 mov	 eax, edx
  00047	5d		 pop	 ebp
  00048	c2 08 00	 ret	 8
??$_Find_lower_bound@K@?$_Tree@V?$_Tmap_traits@KHU?$less@K@std@@V?$allocator@U?$pair@$$CBKH@std@@@2@$0A@@std@@@std@@IBE?AU?$_Tree_find_result@PAU?$_Tree_node@U?$pair@$$CBKH@std@@PAX@std@@@1@ABK@Z ENDP ; std::_Tree<std::_Tmap_traits<unsigned long,int,std::less<unsigned long>,std::allocator<std::pair<unsigned long const ,int> >,0> >::_Find_lower_bound<unsigned long>
_TEXT	ENDS
; Function compile flags: /Ogtp
; File C:\Program Files\Microsoft Visual Studio\2022\Professional\VC\Tools\MSVC\14.44.35207\include\xtree
; File C:\Program Files\Microsoft Visual Studio\2022\Professional\VC\Tools\MSVC\14.44.35207\include\utility
; File C:\Program Files\Microsoft Visual Studio\2022\Professional\VC\Tools\MSVC\14.44.35207\include\xtree
; File C:\Program Files\Microsoft Visual Studio\2022\Professional\VC\Tools\MSVC\14.44.35207\include\vector
; File C:\Program Files\Microsoft Visual Studio\2022\Professional\VC\Tools\MSVC\14.44.35207\include\xmemory
; File C:\Program Files\Microsoft Visual Studio\2022\Professional\VC\Tools\MSVC\14.44.35207\include\xtree
; File C:\Program Files\Microsoft Visual Studio\2022\Professional\VC\Tools\MSVC\14.44.35207\include\xmemory
; File C:\Program Files\Microsoft Visual Studio\2022\Professional\VC\Tools\MSVC\14.44.35207\include\xtree
;	COMDAT ??$_Erase_tree@V?$allocator@U?$_Tree_node@U?$pair@$$CBEV?$vector@U__SPAWNINFO@CEventLua@@V?$allocator@U__SPAWNINFO@CEventLua@@@std@@@std@@@std@@PAX@std@@@std@@@?$_Tree_val@U?$_Tree_simple_types@U?$pair@$$CBEV?$vector@U__SPAWNINFO@CEventLua@@V?$allocator@U__SPAWNINFO@CEventLua@@@std@@@std@@@std@@@std@@@std@@QAEXAAV?$allocator@U?$_Tree_node@U?$pair@$$CBEV?$vector@U__SPAWNINFO@CEventLua@@V?$allocator@U__SPAWNINFO@CEventLua@@@std@@@std@@@std@@PAX@std@@@1@PAU?$_Tree_node@U?$pair@$$CBEV?$vector@U__SPAWNINFO@CEventLua@@V?$allocator@U__SPAWNINFO@CEventLua@@@std@@@std@@@std@@PAX@1@@Z
_TEXT	SEGMENT
_this$1$ = -4						; size = 4
__Al$ = 8						; size = 4
__Rootnode$ = 12					; size = 4
??$_Erase_tree@V?$allocator@U?$_Tree_node@U?$pair@$$CBEV?$vector@U__SPAWNINFO@CEventLua@@V?$allocator@U__SPAWNINFO@CEventLua@@@std@@@std@@@std@@PAX@std@@@std@@@?$_Tree_val@U?$_Tree_simple_types@U?$pair@$$CBEV?$vector@U__SPAWNINFO@CEventLua@@V?$allocator@U__SPAWNINFO@CEventLua@@@std@@@std@@@std@@@std@@@std@@QAEXAAV?$allocator@U?$_Tree_node@U?$pair@$$CBEV?$vector@U__SPAWNINFO@CEventLua@@V?$allocator@U__SPAWNINFO@CEventLua@@@std@@@std@@@std@@PAX@std@@@1@PAU?$_Tree_node@U?$pair@$$CBEV?$vector@U__SPAWNINFO@CEventLua@@V?$allocator@U__SPAWNINFO@CEventLua@@@std@@@std@@@std@@PAX@1@@Z PROC ; std::_Tree_val<std::_Tree_simple_types<std::pair<unsigned char const ,std::vector<CEventLua::__SPAWNINFO,std::allocator<CEventLua::__SPAWNINFO> > > > >::_Erase_tree<std::allocator<std::_Tree_node<std::pair<unsigned char const ,std::vector<CEventLua::__SPAWNINFO,std::allocator<CEventLua::__SPAWNINFO> > >,void *> > >, COMDAT
; _this$ = ecx

; 767  :     void _Erase_tree(_Alnode& _Al, _Nodeptr _Rootnode) noexcept {

  00000	55		 push	 ebp
  00001	8b ec		 mov	 ebp, esp
  00003	51		 push	 ecx
  00004	56		 push	 esi

; 768  :         while (!_Rootnode->_Isnil) { // free subtrees, then node

  00005	8b 75 0c	 mov	 esi, DWORD PTR __Rootnode$[ebp]
  00008	8b c1		 mov	 eax, ecx
  0000a	89 45 fc	 mov	 DWORD PTR _this$1$[ebp], eax
  0000d	80 7e 0d 00	 cmp	 BYTE PTR [esi+13], 0
  00011	75 32		 jne	 SHORT $LN48@Erase_tree
  00013	53		 push	 ebx
  00014	8b 5d 08	 mov	 ebx, DWORD PTR __Al$[ebp]
  00017	57		 push	 edi
$LL2@Erase_tree:

; 769  :             _Erase_tree(_Al, _Rootnode->_Right);

  00018	ff 76 08	 push	 DWORD PTR [esi+8]
  0001b	8b c8		 mov	 ecx, eax
  0001d	53		 push	 ebx
  0001e	e8 00 00 00 00	 call	 ??$_Erase_tree@V?$allocator@U?$_Tree_node@U?$pair@$$CBEV?$vector@U__SPAWNINFO@CEventLua@@V?$allocator@U__SPAWNINFO@CEventLua@@@std@@@std@@@std@@PAX@std@@@std@@@?$_Tree_val@U?$_Tree_simple_types@U?$pair@$$CBEV?$vector@U__SPAWNINFO@CEventLua@@V?$allocator@U__SPAWNINFO@CEventLua@@@std@@@std@@@std@@@std@@@std@@QAEXAAV?$allocator@U?$_Tree_node@U?$pair@$$CBEV?$vector@U__SPAWNINFO@CEventLua@@V?$allocator@U__SPAWNINFO@CEventLua@@@std@@@std@@@std@@PAX@std@@@1@PAU?$_Tree_node@U?$pair@$$CBEV?$vector@U__SPAWNINFO@CEventLua@@V?$allocator@U__SPAWNINFO@CEventLua@@@std@@@std@@@std@@PAX@1@@Z ; std::_Tree_val<std::_Tree_simple_types<std::pair<unsigned char const ,std::vector<CEventLua::__SPAWNINFO,std::allocator<CEventLua::__SPAWNINFO> > > > >::_Erase_tree<std::allocator<std::_Tree_node<std::pair<unsigned char const ,std::vector<CEventLua::__SPAWNINFO,std::allocator<CEventLua::__SPAWNINFO> > >,void *> > >
; File C:\Program Files\Microsoft Visual Studio\2022\Professional\VC\Tools\MSVC\14.44.35207\include\utility

; 773  :     _Ty _Old_val = static_cast<_Ty&&>(_Val);

  00023	8b fe		 mov	 edi, esi

; 774  :     _Val         = static_cast<_Other&&>(_New_val);

  00025	8b 36		 mov	 esi, DWORD PTR [esi]
; File C:\Program Files\Microsoft Visual Studio\2022\Professional\VC\Tools\MSVC\14.44.35207\include\xtree

; 381  :         allocator_traits<_Alloc>::destroy(_Al, _STD addressof(_Ptr->_Myval));

  00027	8d 4f 14	 lea	 ecx, DWORD PTR [edi+20]
; File C:\Program Files\Microsoft Visual Studio\2022\Professional\VC\Tools\MSVC\14.44.35207\include\vector

; 830  :         _Tidy();

  0002a	e8 00 00 00 00	 call	 ?_Tidy@?$vector@U__SPAWNINFO@CEventLua@@V?$allocator@U__SPAWNINFO@CEventLua@@@std@@@std@@AAEXXZ ; std::vector<CEventLua::__SPAWNINFO,std::allocator<CEventLua::__SPAWNINFO> >::_Tidy
; File C:\Program Files\Microsoft Visual Studio\2022\Professional\VC\Tools\MSVC\14.44.35207\include\xmemory

; 289  :         ::operator delete(_Ptr, _Bytes);

  0002f	6a 20		 push	 32			; 00000020H
  00031	57		 push	 edi
  00032	e8 00 00 00 00	 call	 ??3@YAXPAXI@Z		; operator delete
; File C:\Program Files\Microsoft Visual Studio\2022\Professional\VC\Tools\MSVC\14.44.35207\include\xtree

; 768  :         while (!_Rootnode->_Isnil) { // free subtrees, then node

  00037	8b 45 fc	 mov	 eax, DWORD PTR _this$1$[ebp]
; File C:\Program Files\Microsoft Visual Studio\2022\Professional\VC\Tools\MSVC\14.44.35207\include\xmemory

; 289  :         ::operator delete(_Ptr, _Bytes);

  0003a	83 c4 08	 add	 esp, 8
; File C:\Program Files\Microsoft Visual Studio\2022\Professional\VC\Tools\MSVC\14.44.35207\include\xtree

; 768  :         while (!_Rootnode->_Isnil) { // free subtrees, then node

  0003d	80 7e 0d 00	 cmp	 BYTE PTR [esi+13], 0
  00041	74 d5		 je	 SHORT $LL2@Erase_tree
  00043	5f		 pop	 edi
  00044	5b		 pop	 ebx
$LN48@Erase_tree:
  00045	5e		 pop	 esi

; 770  :             _Alnode::value_type::_Freenode(_Al, _STD exchange(_Rootnode, _Rootnode->_Left));
; 771  :         }
; 772  :     }

  00046	8b e5		 mov	 esp, ebp
  00048	5d		 pop	 ebp
  00049	c2 08 00	 ret	 8
??$_Erase_tree@V?$allocator@U?$_Tree_node@U?$pair@$$CBEV?$vector@U__SPAWNINFO@CEventLua@@V?$allocator@U__SPAWNINFO@CEventLua@@@std@@@std@@@std@@PAX@std@@@std@@@?$_Tree_val@U?$_Tree_simple_types@U?$pair@$$CBEV?$vector@U__SPAWNINFO@CEventLua@@V?$allocator@U__SPAWNINFO@CEventLua@@@std@@@std@@@std@@@std@@@std@@QAEXAAV?$allocator@U?$_Tree_node@U?$pair@$$CBEV?$vector@U__SPAWNINFO@CEventLua@@V?$allocator@U__SPAWNINFO@CEventLua@@@std@@@std@@@std@@PAX@std@@@1@PAU?$_Tree_node@U?$pair@$$CBEV?$vector@U__SPAWNINFO@CEventLua@@V?$allocator@U__SPAWNINFO@CEventLua@@@std@@@std@@@std@@PAX@1@@Z ENDP ; std::_Tree_val<std::_Tree_simple_types<std::pair<unsigned char const ,std::vector<CEventLua::__SPAWNINFO,std::allocator<CEventLua::__SPAWNINFO> > > > >::_Erase_tree<std::allocator<std::_Tree_node<std::pair<unsigned char const ,std::vector<CEventLua::__SPAWNINFO,std::allocator<CEventLua::__SPAWNINFO> > >,void *> > >
_TEXT	ENDS
; Function compile flags: /Ogtp
; File C:\Program Files\Microsoft Visual Studio\2022\Professional\VC\Tools\MSVC\14.44.35207\include\vector
;	COMDAT ??1?$pair@EV?$vector@U__SPAWNINFO@CEventLua@@V?$allocator@U__SPAWNINFO@CEventLua@@@std@@@std@@@std@@QAE@XZ
_TEXT	SEGMENT
??1?$pair@EV?$vector@U__SPAWNINFO@CEventLua@@V?$allocator@U__SPAWNINFO@CEventLua@@@std@@@std@@@std@@QAE@XZ PROC ; std::pair<unsigned char,std::vector<CEventLua::__SPAWNINFO,std::allocator<CEventLua::__SPAWNINFO> > >::~pair<unsigned char,std::vector<CEventLua::__SPAWNINFO,std::allocator<CEventLua::__SPAWNINFO> > >, COMDAT
; _this$ = ecx
  00000	83 c1 04	 add	 ecx, 4

; 830  :         _Tidy();

  00003	e9 00 00 00 00	 jmp	 ?_Tidy@?$vector@U__SPAWNINFO@CEventLua@@V?$allocator@U__SPAWNINFO@CEventLua@@@std@@@std@@AAEXXZ ; std::vector<CEventLua::__SPAWNINFO,std::allocator<CEventLua::__SPAWNINFO> >::_Tidy
??1?$pair@EV?$vector@U__SPAWNINFO@CEventLua@@V?$allocator@U__SPAWNINFO@CEventLua@@@std@@@std@@@std@@QAE@XZ ENDP ; std::pair<unsigned char,std::vector<CEventLua::__SPAWNINFO,std::allocator<CEventLua::__SPAWNINFO> > >::~pair<unsigned char,std::vector<CEventLua::__SPAWNINFO,std::allocator<CEventLua::__SPAWNINFO> > >
_TEXT	ENDS
; Function compile flags: /Ogtp
; File C:\Program Files\Microsoft Visual Studio\2022\Professional\VC\Tools\MSVC\14.44.35207\include\map
; File C:\Program Files\Microsoft Visual Studio\2022\Professional\VC\Tools\MSVC\14.44.35207\include\xtree
; File C:\Program Files\Microsoft Visual Studio\2022\Professional\VC\Tools\MSVC\14.44.35207\include\type_traits
; File C:\Program Files\Microsoft Visual Studio\2022\Professional\VC\Tools\MSVC\14.44.35207\include\xtree
; File C:\Program Files\Microsoft Visual Studio\2022\Professional\VC\Tools\MSVC\14.44.35207\include\type_traits
; File C:\Program Files\Microsoft Visual Studio\2022\Professional\VC\Tools\MSVC\14.44.35207\include\xtree
; File C:\Program Files\Microsoft Visual Studio\2022\Professional\VC\Tools\MSVC\14.44.35207\include\type_traits
; File C:\Program Files\Microsoft Visual Studio\2022\Professional\VC\Tools\MSVC\14.44.35207\include\xtree
; File C:\Program Files\Microsoft Visual Studio\2022\Professional\VC\Tools\MSVC\14.44.35207\include\utility
; File C:\Program Files\Microsoft Visual Studio\2022\Professional\VC\Tools\MSVC\14.44.35207\include\xtree
; File C:\Program Files\Microsoft Visual Studio\2022\Professional\VC\Tools\MSVC\14.44.35207\include\xmemory
; File C:\Program Files\Microsoft Visual Studio\2022\Professional\VC\Tools\MSVC\14.44.35207\include\xtree
; File C:\Program Files\Microsoft Visual Studio\2022\Professional\VC\Tools\MSVC\14.44.35207\include\xmemory
; File C:\Program Files\Microsoft Visual Studio\2022\Professional\VC\Tools\MSVC\14.44.35207\include\utility
; File C:\Program Files\Microsoft Visual Studio\2022\Professional\VC\Tools\MSVC\14.44.35207\include\xmemory
; File C:\Program Files\Microsoft Visual Studio\2022\Professional\VC\Tools\MSVC\14.44.35207\include\utility
; File C:\Program Files\Microsoft Visual Studio\2022\Professional\VC\Tools\MSVC\14.44.35207\include\xtree
; File C:\Program Files\Microsoft Visual Studio\2022\Professional\VC\Tools\MSVC\14.44.35207\include\utility
; File C:\Program Files\Microsoft Visual Studio\2022\Professional\VC\Tools\MSVC\14.44.35207\include\map
; File C:\Program Files\Microsoft Visual Studio\2022\Professional\VC\Tools\MSVC\14.44.35207\include\xtree
; File C:\Program Files\Microsoft Visual Studio\2022\Professional\VC\Tools\MSVC\14.44.35207\include\map
;	COMDAT ??$insert@U?$pair@KE@std@@$0A@@?$map@KEU?$less@K@std@@V?$allocator@U?$pair@$$CBKE@std@@@2@@std@@QAE?AU?$pair@V?$_Tree_iterator@V?$_Tree_val@U?$_Tree_simple_types@U?$pair@$$CBKE@std@@@std@@@std@@@std@@_N@1@$$QAU?$pair@KE@1@@Z
_TEXT	SEGMENT
$T5 = -24						; size = 8
_this$1$ = -16						; size = 4
__$EHRec$ = -12						; size = 12
___$ReturnUdt$ = 8					; size = 4
__Val$ = 12						; size = 4
??$insert@U?$pair@KE@std@@$0A@@?$map@KEU?$less@K@std@@V?$allocator@U?$pair@$$CBKE@std@@@2@@std@@QAE?AU?$pair@V?$_Tree_iterator@V?$_Tree_val@U?$_Tree_simple_types@U?$pair@$$CBKE@std@@@std@@@std@@@std@@_N@1@$$QAU?$pair@KE@1@@Z PROC ; std::map<unsigned long,unsigned char,std::less<unsigned long>,std::allocator<std::pair<unsigned long const ,unsigned char> > >::insert<std::pair<unsigned long,unsigned char>,0>, COMDAT
; _this$ = ecx

; 185  :     pair<iterator, bool> insert(_Valty&& _Val) {

  00000	55		 push	 ebp
  00001	8b ec		 mov	 ebp, esp
  00003	6a ff		 push	 -1
  00005	68 00 00 00 00	 push	 __ehhandler$??$insert@U?$pair@KE@std@@$0A@@?$map@KEU?$less@K@std@@V?$allocator@U?$pair@$$CBKE@std@@@2@@std@@QAE?AU?$pair@V?$_Tree_iterator@V?$_Tree_val@U?$_Tree_simple_types@U?$pair@$$CBKE@std@@@std@@@std@@@std@@_N@1@$$QAU?$pair@KE@1@@Z
  0000a	64 a1 00 00 00
	00		 mov	 eax, DWORD PTR fs:0
  00010	50		 push	 eax
  00011	83 ec 0c	 sub	 esp, 12			; 0000000cH
  00014	53		 push	 ebx
  00015	56		 push	 esi
  00016	57		 push	 edi
  00017	a1 00 00 00 00	 mov	 eax, DWORD PTR ___security_cookie
  0001c	33 c5		 xor	 eax, ebp
  0001e	50		 push	 eax
  0001f	8d 45 f4	 lea	 eax, DWORD PTR __$EHRec$[ebp]
  00022	64 a3 00 00 00
	00		 mov	 DWORD PTR fs:0, eax
  00028	89 4d f0	 mov	 DWORD PTR _this$1$[ebp], ecx
; File C:\Program Files\Microsoft Visual Studio\2022\Professional\VC\Tools\MSVC\14.44.35207\include\xtree

; 1630 :         _Tree_find_result<_Nodeptr> _Result{{_Scary->_Myhead->_Parent, _Tree_child::_Right}, _Scary->_Myhead};

  0002b	8b 19		 mov	 ebx, DWORD PTR [ecx]
  0002d	33 f6		 xor	 esi, esi
  0002f	8b d3		 mov	 edx, ebx
  00031	8b 7b 04	 mov	 edi, DWORD PTR [ebx+4]

; 1631 :         _Nodeptr _Trynode = _Result._Location._Parent;
; 1632 :         while (!_Trynode->_Isnil) {

  00034	80 7f 0d 00	 cmp	 BYTE PTR [edi+13], 0
  00038	75 27		 jne	 SHORT $LN11@insert
; File C:\Program Files\Microsoft Visual Studio\2022\Professional\VC\Tools\MSVC\14.44.35207\include\type_traits

; 2380 :         return _Left < _Right;

  0003a	8b 4d 0c	 mov	 ecx, DWORD PTR __Val$[ebp]
  0003d	8b c7		 mov	 eax, edi
  0003f	8b 09		 mov	 ecx, DWORD PTR [ecx]
$LL10@insert:
; File C:\Program Files\Microsoft Visual Studio\2022\Professional\VC\Tools\MSVC\14.44.35207\include\xtree

; 1633 :             _Result._Location._Parent = _Trynode;

  00041	8b f8		 mov	 edi, eax
; File C:\Program Files\Microsoft Visual Studio\2022\Professional\VC\Tools\MSVC\14.44.35207\include\type_traits

; 2380 :         return _Left < _Right;

  00043	39 48 10	 cmp	 DWORD PTR [eax+16], ecx
; File C:\Program Files\Microsoft Visual Studio\2022\Professional\VC\Tools\MSVC\14.44.35207\include\xtree

; 1634 :             if (_DEBUG_LT_PRED(_Getcomp(), _Traits::_Kfn(_Trynode->_Myval), _Keyval)) {

  00046	73 07		 jae	 SHORT $LN12@insert

; 1635 :                 _Result._Location._Child = _Tree_child::_Right;
; 1636 :                 _Trynode                 = _Trynode->_Right;

  00048	8b 40 08	 mov	 eax, DWORD PTR [eax+8]
  0004b	33 f6		 xor	 esi, esi

; 1637 :             } else {

  0004d	eb 09		 jmp	 SHORT $LN13@insert
$LN12@insert:

; 1638 :                 _Result._Location._Child = _Tree_child::_Left;
; 1639 :                 _Result._Bound           = _Trynode;

  0004f	8b d0		 mov	 edx, eax
  00051	be 01 00 00 00	 mov	 esi, 1

; 1640 :                 _Trynode                 = _Trynode->_Left;

  00056	8b 00		 mov	 eax, DWORD PTR [eax]
$LN13@insert:

; 1631 :         _Nodeptr _Trynode = _Result._Location._Parent;
; 1632 :         while (!_Trynode->_Isnil) {

  00058	80 78 0d 00	 cmp	 BYTE PTR [eax+13], 0
  0005c	74 e3		 je	 SHORT $LL10@insert
  0005e	8b 4d f0	 mov	 ecx, DWORD PTR _this$1$[ebp]
$LN11@insert:

; 1624 :         return !_Bound->_Isnil && !_DEBUG_LT_PRED(_Getcomp(), _Keyval, _Traits::_Kfn(_Bound->_Myval));

  00061	80 7a 0d 00	 cmp	 BYTE PTR [edx+13], 0
  00065	75 0e		 jne	 SHORT $LN6@insert
; File C:\Program Files\Microsoft Visual Studio\2022\Professional\VC\Tools\MSVC\14.44.35207\include\type_traits

; 2380 :         return _Left < _Right;

  00067	8b 45 0c	 mov	 eax, DWORD PTR __Val$[ebp]
  0006a	8b 00		 mov	 eax, DWORD PTR [eax]
  0006c	3b 42 10	 cmp	 eax, DWORD PTR [edx+16]
; File C:\Program Files\Microsoft Visual Studio\2022\Professional\VC\Tools\MSVC\14.44.35207\include\xtree

; 1624 :         return !_Bound->_Isnil && !_DEBUG_LT_PRED(_Getcomp(), _Keyval, _Traits::_Kfn(_Bound->_Myval));

  0006f	72 04		 jb	 SHORT $LN6@insert
; File C:\Program Files\Microsoft Visual Studio\2022\Professional\VC\Tools\MSVC\14.44.35207\include\utility

; 274  :         : first(_STD forward<_Other1>(_Val1)), second(_STD forward<_Other2>(_Val2)) {

  00071	32 c9		 xor	 cl, cl
; File C:\Program Files\Microsoft Visual Studio\2022\Professional\VC\Tools\MSVC\14.44.35207\include\xtree

; 1019 :                 return {_Loc._Bound, false};

  00073	eb 51		 jmp	 SHORT $LN100@insert
$LN6@insert:

; 1648 :         if (max_size() == _Get_scary()->_Mysize) {

  00075	81 79 04 aa aa
	aa 0a		 cmp	 DWORD PTR [ecx+4], 178956970 ; 0aaaaaaaH
  0007c	74 64		 je	 SHORT $LN125@insert
; File C:\Program Files\Microsoft Visual Studio\2022\Professional\VC\Tools\MSVC\14.44.35207\include\xmemory

; 1160 :     _CONSTEXPR20 explicit _Alloc_construct_ptr(_Alloc& _Al_) : _Al(_Al_), _Ptr(nullptr) {}

  0007e	89 4d e8	 mov	 DWORD PTR $T5[ebp], ecx

; 136  :         return ::operator new(_Bytes);

  00081	6a 18		 push	 24			; 00000018H
; File C:\Program Files\Microsoft Visual Studio\2022\Professional\VC\Tools\MSVC\14.44.35207\include\xtree

; 808  :     explicit _Tree_temp_node_alloc(_Alnode& _Al_) : _Alloc_construct_ptr<_Alnode>(_Al_) {

  00083	c7 45 fc 00 00
	00 00		 mov	 DWORD PTR __$EHRec$[ebp+8], 0
; File C:\Program Files\Microsoft Visual Studio\2022\Professional\VC\Tools\MSVC\14.44.35207\include\xmemory

; 1167 :         _Ptr = nullptr; // if allocate throws, prevents double-free

  0008a	c7 45 ec 00 00
	00 00		 mov	 DWORD PTR $T5[ebp+4], 0

; 136  :         return ::operator new(_Bytes);

  00091	e8 00 00 00 00	 call	 ??2@YAPAXI@Z		; operator new
; File C:\Program Files\Microsoft Visual Studio\2022\Professional\VC\Tools\MSVC\14.44.35207\include\utility

; 303  :         : first(_STD forward<_Other1>(_Right.first)), second(_STD forward<_Other2>(_Right.second)) {}

  00096	8b 55 0c	 mov	 edx, DWORD PTR __Val$[ebp]
; File C:\Program Files\Microsoft Visual Studio\2022\Professional\VC\Tools\MSVC\14.44.35207\include\xmemory

; 256  :         return _Traits::_Allocate(_Bytes);

  00099	8b c8		 mov	 ecx, eax

; 136  :         return ::operator new(_Bytes);

  0009b	83 c4 04	 add	 esp, 4
; File C:\Program Files\Microsoft Visual Studio\2022\Professional\VC\Tools\MSVC\14.44.35207\include\utility

; 303  :         : first(_STD forward<_Other1>(_Right.first)), second(_STD forward<_Other2>(_Right.second)) {}

  0009e	8b 02		 mov	 eax, DWORD PTR [edx]
  000a0	89 41 10	 mov	 DWORD PTR [ecx+16], eax
  000a3	8a 42 04	 mov	 al, BYTE PTR [edx+4]
  000a6	88 41 14	 mov	 BYTE PTR [ecx+20], al
; File C:\Program Files\Microsoft Visual Studio\2022\Professional\VC\Tools\MSVC\14.44.35207\include\xtree

; 831  :         _Construct_in_place(this->_Ptr->_Left, _Myhead);

  000a9	89 19		 mov	 DWORD PTR [ecx], ebx

; 1042 :         return {_Scary->_Insert_node(_Loc._Location, _Inserted), true};

  000ab	51		 push	 ecx

; 832  :         _Construct_in_place(this->_Ptr->_Parent, _Myhead);

  000ac	89 59 04	 mov	 DWORD PTR [ecx+4], ebx

; 833  :         _Construct_in_place(this->_Ptr->_Right, _Myhead);

  000af	89 59 08	 mov	 DWORD PTR [ecx+8], ebx

; 1042 :         return {_Scary->_Insert_node(_Loc._Location, _Inserted), true};

  000b2	56		 push	 esi

; 834  :         this->_Ptr->_Color = _Red;

  000b3	66 c7 41 0c 00
	00		 mov	 WORD PTR [ecx+12], 0

; 1042 :         return {_Scary->_Insert_node(_Loc._Location, _Inserted), true};

  000b9	8b 4d f0	 mov	 ecx, DWORD PTR _this$1$[ebp]
  000bc	57		 push	 edi
  000bd	e8 00 00 00 00	 call	 ?_Insert_node@?$_Tree_val@U?$_Tree_simple_types@U?$pair@$$CBKE@std@@@std@@@std@@QAEPAU?$_Tree_node@U?$pair@$$CBKE@std@@PAX@2@U?$_Tree_id@PAU?$_Tree_node@U?$pair@$$CBKE@std@@PAX@std@@@2@QAU32@@Z ; std::_Tree_val<std::_Tree_simple_types<std::pair<unsigned long const ,unsigned char> > >::_Insert_node
; File C:\Program Files\Microsoft Visual Studio\2022\Professional\VC\Tools\MSVC\14.44.35207\include\utility

; 274  :         : first(_STD forward<_Other1>(_Val1)), second(_STD forward<_Other2>(_Val2)) {

  000c2	8b d0		 mov	 edx, eax
  000c4	b1 01		 mov	 cl, 1
$LN100@insert:
  000c6	8b 45 08	 mov	 eax, DWORD PTR ___$ReturnUdt$[ebp]
  000c9	89 10		 mov	 DWORD PTR [eax], edx
  000cb	88 48 04	 mov	 BYTE PTR [eax+4], cl
; File C:\Program Files\Microsoft Visual Studio\2022\Professional\VC\Tools\MSVC\14.44.35207\include\map

; 187  :     }

  000ce	8b 4d f4	 mov	 ecx, DWORD PTR __$EHRec$[ebp]
  000d1	64 89 0d 00 00
	00 00		 mov	 DWORD PTR fs:0, ecx
  000d8	59		 pop	 ecx
  000d9	5f		 pop	 edi
  000da	5e		 pop	 esi
  000db	5b		 pop	 ebx
  000dc	8b e5		 mov	 esp, ebp
  000de	5d		 pop	 ebp
  000df	c2 08 00	 ret	 8
$LN125@insert:
; File C:\Program Files\Microsoft Visual Studio\2022\Professional\VC\Tools\MSVC\14.44.35207\include\xtree

; 1649 :             _Throw_tree_length_error();

  000e2	e8 00 00 00 00	 call	 ?_Throw_tree_length_error@std@@YAXXZ ; std::_Throw_tree_length_error
$LN123@insert:
  000e7	cc		 int	 3
_TEXT	ENDS
;	COMDAT text$x
text$x	SEGMENT
__unwindfunclet$??$insert@U?$pair@KE@std@@$0A@@?$map@KEU?$less@K@std@@V?$allocator@U?$pair@$$CBKE@std@@@2@@std@@QAE?AU?$pair@V?$_Tree_iterator@V?$_Tree_val@U?$_Tree_simple_types@U?$pair@$$CBKE@std@@@std@@@std@@@std@@_N@1@$$QAU?$pair@KE@1@@Z$2:
  00000	8d 4d e8	 lea	 ecx, DWORD PTR $T5[ebp]
  00003	e9 00 00 00 00	 jmp	 ??1?$_Alloc_construct_ptr@V?$allocator@U?$_Tree_node@U?$pair@$$CBKE@std@@PAX@std@@@std@@@std@@QAE@XZ ; std::_Alloc_construct_ptr<std::allocator<std::_Tree_node<std::pair<unsigned long const ,unsigned char>,void *> > >::~_Alloc_construct_ptr<std::allocator<std::_Tree_node<std::pair<unsigned long const ,unsigned char>,void *> > >
  00008	cc		 int	 3
  00009	cc		 int	 3
  0000a	cc		 int	 3
  0000b	cc		 int	 3
  0000c	cc		 int	 3
__ehhandler$??$insert@U?$pair@KE@std@@$0A@@?$map@KEU?$less@K@std@@V?$allocator@U?$pair@$$CBKE@std@@@2@@std@@QAE?AU?$pair@V?$_Tree_iterator@V?$_Tree_val@U?$_Tree_simple_types@U?$pair@$$CBKE@std@@@std@@@std@@@std@@_N@1@$$QAU?$pair@KE@1@@Z:
  0000d	90		 npad	 1
  0000e	90		 npad	 1
  0000f	8b 54 24 08	 mov	 edx, DWORD PTR [esp+8]
  00013	8d 42 0c	 lea	 eax, DWORD PTR [edx+12]
  00016	8b 4a e4	 mov	 ecx, DWORD PTR [edx-28]
  00019	33 c8		 xor	 ecx, eax
  0001b	e8 00 00 00 00	 call	 @__security_check_cookie@4
  00020	b8 00 00 00 00	 mov	 eax, OFFSET __ehfuncinfo$??$insert@U?$pair@KE@std@@$0A@@?$map@KEU?$less@K@std@@V?$allocator@U?$pair@$$CBKE@std@@@2@@std@@QAE?AU?$pair@V?$_Tree_iterator@V?$_Tree_val@U?$_Tree_simple_types@U?$pair@$$CBKE@std@@@std@@@std@@@std@@_N@1@$$QAU?$pair@KE@1@@Z
  00025	e9 00 00 00 00	 jmp	 ___CxxFrameHandler3
text$x	ENDS
??$insert@U?$pair@KE@std@@$0A@@?$map@KEU?$less@K@std@@V?$allocator@U?$pair@$$CBKE@std@@@2@@std@@QAE?AU?$pair@V?$_Tree_iterator@V?$_Tree_val@U?$_Tree_simple_types@U?$pair@$$CBKE@std@@@std@@@std@@@std@@_N@1@$$QAU?$pair@KE@1@@Z ENDP ; std::map<unsigned long,unsigned char,std::less<unsigned long>,std::allocator<std::pair<unsigned long const ,unsigned char> > >::insert<std::pair<unsigned long,unsigned char>,0>
; Function compile flags: /Ogtp
; File C:\Program Files\Microsoft Visual Studio\2022\Professional\VC\Tools\MSVC\14.44.35207\include\vector
;	COMDAT ?_Xlength@?$vector@U__SPAWNINFO@CEventLua@@V?$allocator@U__SPAWNINFO@CEventLua@@@std@@@std@@CAXXZ
_TEXT	SEGMENT
?_Xlength@?$vector@U__SPAWNINFO@CEventLua@@V?$allocator@U__SPAWNINFO@CEventLua@@@std@@@std@@CAXXZ PROC ; std::vector<CEventLua::__SPAWNINFO,std::allocator<CEventLua::__SPAWNINFO> >::_Xlength, COMDAT

; 2184 :         _Xlength_error("vector too long");

  00000	68 00 00 00 00	 push	 OFFSET ??_C@_0BA@FOIKENOD@vector?5too?5long@
  00005	e8 00 00 00 00	 call	 ?_Xlength_error@std@@YAXPBD@Z ; std::_Xlength_error
$LN3@Xlength:
  0000a	cc		 int	 3
?_Xlength@?$vector@U__SPAWNINFO@CEventLua@@V?$allocator@U__SPAWNINFO@CEventLua@@@std@@@std@@CAXXZ ENDP ; std::vector<CEventLua::__SPAWNINFO,std::allocator<CEventLua::__SPAWNINFO> >::_Xlength
_TEXT	ENDS
; Function compile flags: /Ogtp
; File C:\Program Files\Microsoft Visual Studio\2022\Professional\VC\Tools\MSVC\14.44.35207\include\vector
; File C:\Program Files\Microsoft Visual Studio\2022\Professional\VC\Tools\MSVC\14.44.35207\include\xmemory
; File C:\Program Files\Microsoft Visual Studio\2022\Professional\VC\Tools\MSVC\14.44.35207\include\vector
; File C:\Program Files\Microsoft Visual Studio\2022\Professional\VC\Tools\MSVC\14.44.35207\include\xmemory
; File C:\Program Files\Microsoft Visual Studio\2022\Professional\VC\Tools\MSVC\14.44.35207\include\vector
; File C:\Program Files\Microsoft Visual Studio\2022\Professional\VC\Tools\MSVC\14.44.35207\include\xmemory
; File C:\Program Files\Microsoft Visual Studio\2022\Professional\VC\Tools\MSVC\14.44.35207\include\vector
;	COMDAT ?_Tidy@?$vector@U__SPAWNINFO@CEventLua@@V?$allocator@U__SPAWNINFO@CEventLua@@@std@@@std@@AAEXXZ
_TEXT	SEGMENT
?_Tidy@?$vector@U__SPAWNINFO@CEventLua@@V?$allocator@U__SPAWNINFO@CEventLua@@@std@@@std@@AAEXXZ PROC ; std::vector<CEventLua::__SPAWNINFO,std::allocator<CEventLua::__SPAWNINFO> >::_Tidy, COMDAT
; _this$ = ecx

; 2081 :     _CONSTEXPR20 void _Tidy() noexcept { // free all storage

  00000	56		 push	 esi
  00001	8b f1		 mov	 esi, ecx

; 2082 :         auto& _Al         = _Getal();
; 2083 :         auto& _My_data    = _Mypair._Myval2;
; 2084 :         pointer& _Myfirst = _My_data._Myfirst;
; 2085 :         pointer& _Mylast  = _My_data._Mylast;
; 2086 :         pointer& _Myend   = _My_data._Myend;
; 2087 : 
; 2088 :         _My_data._Orphan_all();
; 2089 : 
; 2090 :         if (_Myfirst) { // destroy and deallocate old array

  00003	8b 06		 mov	 eax, DWORD PTR [esi]
  00005	85 c0		 test	 eax, eax
  00007	74 40		 je	 SHORT $LN2@Tidy

; 2091 :             _STD _Destroy_range(_Myfirst, _Mylast, _Al);
; 2092 :             _ASAN_VECTOR_REMOVE;
; 2093 :             _Al.deallocate(_Myfirst, static_cast<size_type>(_Myend - _Myfirst));

  00009	8b 4e 08	 mov	 ecx, DWORD PTR [esi+8]
  0000c	2b c8		 sub	 ecx, eax
; File C:\Program Files\Microsoft Visual Studio\2022\Professional\VC\Tools\MSVC\14.44.35207\include\xmemory

; 985  :         _STD _Deallocate<_New_alignof<_Ty>>(_Ptr, sizeof(_Ty) * _Count);

  0000e	83 e1 f0	 and	 ecx, -16		; fffffff0H

; 284  :         if (_Bytes >= _Big_allocation_threshold) {

  00011	81 f9 00 10 00
	00		 cmp	 ecx, 4096		; 00001000H
  00017	72 12		 jb	 SHORT $LN15@Tidy

; 205  :     const uintptr_t _Ptr_container   = _Ptr_user[-1];

  00019	8b 50 fc	 mov	 edx, DWORD PTR [eax-4]
  0001c	83 c1 23	 add	 ecx, 35			; 00000023H

; 206  : 
; 207  :     // If the following asserts, it likely means that we are performing
; 208  :     // an aligned delete on memory coming from an unaligned allocation.
; 209  :     _STL_ASSERT(_Ptr_user[-2] == _Big_allocation_sentinel, "invalid argument");
; 210  : 
; 211  :     // Extra paranoia on aligned allocation/deallocation; ensure _Ptr_container is
; 212  :     // in range [_Min_back_shift, _Non_user_size]
; 213  : #ifdef _DEBUG
; 214  :     constexpr uintptr_t _Min_back_shift = 2 * sizeof(void*);
; 215  : #else // ^^^ defined(_DEBUG) / !defined(_DEBUG) vvv
; 216  :     constexpr uintptr_t _Min_back_shift = sizeof(void*);
; 217  : #endif // ^^^ !defined(_DEBUG) ^^^
; 218  :     const uintptr_t _Back_shift = reinterpret_cast<uintptr_t>(_Ptr) - _Ptr_container;

  0001f	2b c2		 sub	 eax, edx

; 219  :     _STL_VERIFY(_Back_shift >= _Min_back_shift && _Back_shift <= _Non_user_size, "invalid argument");

  00021	83 c0 fc	 add	 eax, -4			; fffffffcH
  00024	83 f8 1f	 cmp	 eax, 31			; 0000001fH
  00027	77 22		 ja	 SHORT $LN14@Tidy

; 220  :     _Ptr = reinterpret_cast<void*>(_Ptr_container);

  00029	8b c2		 mov	 eax, edx
$LN15@Tidy:

; 289  :         ::operator delete(_Ptr, _Bytes);

  0002b	51		 push	 ecx
  0002c	50		 push	 eax
  0002d	e8 00 00 00 00	 call	 ??3@YAXPAXI@Z		; operator delete
; File C:\Program Files\Microsoft Visual Studio\2022\Professional\VC\Tools\MSVC\14.44.35207\include\vector

; 2095 :             _Myfirst = nullptr;

  00032	c7 06 00 00 00
	00		 mov	 DWORD PTR [esi], 0
; File C:\Program Files\Microsoft Visual Studio\2022\Professional\VC\Tools\MSVC\14.44.35207\include\xmemory

; 289  :         ::operator delete(_Ptr, _Bytes);

  00038	83 c4 08	 add	 esp, 8
; File C:\Program Files\Microsoft Visual Studio\2022\Professional\VC\Tools\MSVC\14.44.35207\include\vector

; 2096 :             _Mylast  = nullptr;

  0003b	c7 46 04 00 00
	00 00		 mov	 DWORD PTR [esi+4], 0

; 2097 :             _Myend   = nullptr;

  00042	c7 46 08 00 00
	00 00		 mov	 DWORD PTR [esi+8], 0
$LN2@Tidy:

; 2099 :     }

  00049	5e		 pop	 esi
  0004a	c3		 ret	 0
$LN14@Tidy:
; File C:\Program Files\Microsoft Visual Studio\2022\Professional\VC\Tools\MSVC\14.44.35207\include\xmemory

; 219  :     _STL_VERIFY(_Back_shift >= _Min_back_shift && _Back_shift <= _Non_user_size, "invalid argument");

  0004b	6a 00		 push	 0
  0004d	6a 00		 push	 0
  0004f	6a 00		 push	 0
  00051	6a 00		 push	 0
  00053	6a 00		 push	 0
  00055	e8 00 00 00 00	 call	 __invoke_watson
$LN22@Tidy:
  0005a	cc		 int	 3
?_Tidy@?$vector@U__SPAWNINFO@CEventLua@@V?$allocator@U__SPAWNINFO@CEventLua@@@std@@@std@@AAEXXZ ENDP ; std::vector<CEventLua::__SPAWNINFO,std::allocator<CEventLua::__SPAWNINFO> >::_Tidy
_TEXT	ENDS
; Function compile flags: /Ogtp
; File C:\Program Files\Microsoft Visual Studio\2022\Professional\VC\Tools\MSVC\14.44.35207\include\vector
; File C:\Program Files\Microsoft Visual Studio\2022\Professional\VC\Tools\MSVC\14.44.35207\include\xmemory
; File C:\Program Files\Microsoft Visual Studio\2022\Professional\VC\Tools\MSVC\14.44.35207\include\vector
; File C:\Program Files\Microsoft Visual Studio\2022\Professional\VC\Tools\MSVC\14.44.35207\include\xmemory
; File C:\Program Files\Microsoft Visual Studio\2022\Professional\VC\Tools\MSVC\14.44.35207\include\vector
; File C:\Program Files\Microsoft Visual Studio\2022\Professional\VC\Tools\MSVC\14.44.35207\include\xmemory
; File C:\Program Files\Microsoft Visual Studio\2022\Professional\VC\Tools\MSVC\14.44.35207\include\vector
; File C:\Program Files\Microsoft Visual Studio\2022\Professional\VC\Tools\MSVC\14.44.35207\include\xmemory
; File C:\Program Files\Microsoft Visual Studio\2022\Professional\VC\Tools\MSVC\14.44.35207\include\vector
; File C:\Program Files\Microsoft Visual Studio\2022\Professional\VC\Tools\MSVC\14.44.35207\include\xmemory
; File C:\Program Files\Microsoft Visual Studio\2022\Professional\VC\Tools\MSVC\14.44.35207\include\vector
;	COMDAT ?_Buy_raw@?$vector@U__SPAWNINFO@CEventLua@@V?$allocator@U__SPAWNINFO@CEventLua@@@std@@@std@@AAEXI@Z
_TEXT	SEGMENT
__Newcapacity$ = 8					; size = 4
?_Buy_raw@?$vector@U__SPAWNINFO@CEventLua@@V?$allocator@U__SPAWNINFO@CEventLua@@@std@@@std@@AAEXI@Z PROC ; std::vector<CEventLua::__SPAWNINFO,std::allocator<CEventLua::__SPAWNINFO> >::_Buy_raw, COMDAT
; _this$ = ecx

; 2024 :     _CONSTEXPR20 void _Buy_raw(size_type _Newcapacity) {

  00000	55		 push	 ebp
  00001	8b ec		 mov	 ebp, esp
  00003	56		 push	 esi
; File C:\Program Files\Microsoft Visual Studio\2022\Professional\VC\Tools\MSVC\14.44.35207\include\xmemory

; 117  :         if (_Count > _Max_possible) {

  00004	8b 75 08	 mov	 esi, DWORD PTR __Newcapacity$[ebp]
; File C:\Program Files\Microsoft Visual Studio\2022\Professional\VC\Tools\MSVC\14.44.35207\include\vector

; 2024 :     _CONSTEXPR20 void _Buy_raw(size_type _Newcapacity) {

  00007	57		 push	 edi
  00008	8b f9		 mov	 edi, ecx
; File C:\Program Files\Microsoft Visual Studio\2022\Professional\VC\Tools\MSVC\14.44.35207\include\xmemory

; 117  :         if (_Count > _Max_possible) {

  0000a	81 fe ff ff ff
	0f		 cmp	 esi, 268435455		; 0fffffffH
  00010	77 52		 ja	 SHORT $LN25@Buy_raw

; 119  :         }
; 120  :     }
; 121  : 
; 122  :     return _Count * _Ty_size;

  00012	c1 e6 04	 shl	 esi, 4

; 227  :     if (_Bytes == 0) {

  00015	85 f6		 test	 esi, esi
  00017	75 12		 jne	 SHORT $LN12@Buy_raw

; 228  :         return nullptr;

  00019	33 c0		 xor	 eax, eax
; File C:\Program Files\Microsoft Visual Studio\2022\Professional\VC\Tools\MSVC\14.44.35207\include\vector

; 2035 :         _Myfirst              = _Newvec;

  0001b	89 07		 mov	 DWORD PTR [edi], eax

; 2036 :         _Mylast               = _Newvec;

  0001d	89 47 04	 mov	 DWORD PTR [edi+4], eax

; 2037 :         _Myend                = _Newvec + _Newcapacity;

  00020	8b c6		 mov	 eax, esi
  00022	89 47 08	 mov	 DWORD PTR [edi+8], eax

; 2038 :     }

  00025	5f		 pop	 edi
  00026	5e		 pop	 esi
  00027	5d		 pop	 ebp
  00028	c2 04 00	 ret	 4
$LN12@Buy_raw:
; File C:\Program Files\Microsoft Visual Studio\2022\Professional\VC\Tools\MSVC\14.44.35207\include\xmemory

; 251  :         if (_Bytes >= _Big_allocation_threshold) {

  0002b	56		 push	 esi
  0002c	81 fe 00 10 00
	00		 cmp	 esi, 4096		; 00001000H
  00032	72 18		 jb	 SHORT $LN13@Buy_raw

; 252  :             // boost the alignment of big allocations to help autovectorization
; 253  :             return _Allocate_manually_vector_aligned<_Traits>(_Bytes);

  00034	e8 00 00 00 00	 call	 ??$_Allocate_manually_vector_aligned@U_Default_allocate_traits@std@@@std@@YAPAXI@Z ; std::_Allocate_manually_vector_aligned<std::_Default_allocate_traits>
; File C:\Program Files\Microsoft Visual Studio\2022\Professional\VC\Tools\MSVC\14.44.35207\include\vector

; 2035 :         _Myfirst              = _Newvec;

  00039	89 07		 mov	 DWORD PTR [edi], eax
  0003b	83 c4 04	 add	 esp, 4

; 2036 :         _Mylast               = _Newvec;

  0003e	89 47 04	 mov	 DWORD PTR [edi+4], eax

; 2037 :         _Myend                = _Newvec + _Newcapacity;

  00041	03 c6		 add	 eax, esi
  00043	89 47 08	 mov	 DWORD PTR [edi+8], eax

; 2038 :     }

  00046	5f		 pop	 edi
  00047	5e		 pop	 esi
  00048	5d		 pop	 ebp
  00049	c2 04 00	 ret	 4
$LN13@Buy_raw:
; File C:\Program Files\Microsoft Visual Studio\2022\Professional\VC\Tools\MSVC\14.44.35207\include\xmemory

; 136  :         return ::operator new(_Bytes);

  0004c	e8 00 00 00 00	 call	 ??2@YAPAXI@Z		; operator new
; File C:\Program Files\Microsoft Visual Studio\2022\Professional\VC\Tools\MSVC\14.44.35207\include\vector

; 2035 :         _Myfirst              = _Newvec;

  00051	89 07		 mov	 DWORD PTR [edi], eax
  00053	83 c4 04	 add	 esp, 4

; 2036 :         _Mylast               = _Newvec;

  00056	89 47 04	 mov	 DWORD PTR [edi+4], eax

; 2037 :         _Myend                = _Newvec + _Newcapacity;

  00059	03 c6		 add	 eax, esi
  0005b	89 47 08	 mov	 DWORD PTR [edi+8], eax

; 2038 :     }

  0005e	5f		 pop	 edi
  0005f	5e		 pop	 esi
  00060	5d		 pop	 ebp
  00061	c2 04 00	 ret	 4
$LN25@Buy_raw:
; File C:\Program Files\Microsoft Visual Studio\2022\Professional\VC\Tools\MSVC\14.44.35207\include\xmemory

; 118  :             _Throw_bad_array_new_length(); // multiply overflow

  00064	e8 00 00 00 00	 call	 ?_Throw_bad_array_new_length@std@@YAXXZ ; std::_Throw_bad_array_new_length
$LN22@Buy_raw:
  00069	cc		 int	 3
?_Buy_raw@?$vector@U__SPAWNINFO@CEventLua@@V?$allocator@U__SPAWNINFO@CEventLua@@@std@@@std@@AAEXI@Z ENDP ; std::vector<CEventLua::__SPAWNINFO,std::allocator<CEventLua::__SPAWNINFO> >::_Buy_raw
_TEXT	ENDS
; Function compile flags: /Ogtp
; File C:\Program Files\Microsoft Visual Studio\2022\Professional\VC\Tools\MSVC\14.44.35207\include\vector
;	COMDAT ??1?$vector@U__SPAWNINFO@CEventLua@@V?$allocator@U__SPAWNINFO@CEventLua@@@std@@@std@@QAE@XZ
_TEXT	SEGMENT
??1?$vector@U__SPAWNINFO@CEventLua@@V?$allocator@U__SPAWNINFO@CEventLua@@@std@@@std@@QAE@XZ PROC ; std::vector<CEventLua::__SPAWNINFO,std::allocator<CEventLua::__SPAWNINFO> >::~vector<CEventLua::__SPAWNINFO,std::allocator<CEventLua::__SPAWNINFO> >, COMDAT
; _this$ = ecx

; 830  :         _Tidy();

  00000	e9 00 00 00 00	 jmp	 ?_Tidy@?$vector@U__SPAWNINFO@CEventLua@@V?$allocator@U__SPAWNINFO@CEventLua@@@std@@@std@@AAEXXZ ; std::vector<CEventLua::__SPAWNINFO,std::allocator<CEventLua::__SPAWNINFO> >::_Tidy
??1?$vector@U__SPAWNINFO@CEventLua@@V?$allocator@U__SPAWNINFO@CEventLua@@@std@@@std@@QAE@XZ ENDP ; std::vector<CEventLua::__SPAWNINFO,std::allocator<CEventLua::__SPAWNINFO> >::~vector<CEventLua::__SPAWNINFO,std::allocator<CEventLua::__SPAWNINFO> >
_TEXT	ENDS
; Function compile flags: /Ogtp
; File C:\Program Files\Microsoft Visual Studio\2022\Professional\VC\Tools\MSVC\14.44.35207\include\xmemory
;	COMDAT ?deallocate@?$allocator@U__SPAWNINFO@CEventLua@@@std@@QAEXQAU__SPAWNINFO@CEventLua@@I@Z
_TEXT	SEGMENT
__Ptr$ = 8						; size = 4
__Count$ = 12						; size = 4
?deallocate@?$allocator@U__SPAWNINFO@CEventLua@@@std@@QAEXQAU__SPAWNINFO@CEventLua@@I@Z PROC ; std::allocator<CEventLua::__SPAWNINFO>::deallocate, COMDAT
; _this$ = ecx

; 982  :     _CONSTEXPR20 void deallocate(_Ty* const _Ptr, const size_t _Count) noexcept /* strengthened */ {

  00000	55		 push	 ebp
  00001	8b ec		 mov	 ebp, esp

; 983  :         _STL_ASSERT(_Ptr != nullptr || _Count == 0, "null pointer cannot point to a block of non-zero size");
; 984  :         // no overflow check on the following multiply; we assume _Allocate did that check
; 985  :         _STD _Deallocate<_New_alignof<_Ty>>(_Ptr, sizeof(_Ty) * _Count);

  00003	8b 4d 0c	 mov	 ecx, DWORD PTR __Count$[ebp]
  00006	8b 45 08	 mov	 eax, DWORD PTR __Ptr$[ebp]
  00009	c1 e1 04	 shl	 ecx, 4

; 284  :         if (_Bytes >= _Big_allocation_threshold) {

  0000c	81 f9 00 10 00
	00		 cmp	 ecx, 4096		; 00001000H
  00012	72 12		 jb	 SHORT $LN11@deallocate

; 205  :     const uintptr_t _Ptr_container   = _Ptr_user[-1];

  00014	8b 50 fc	 mov	 edx, DWORD PTR [eax-4]
  00017	83 c1 23	 add	 ecx, 35			; 00000023H

; 206  : 
; 207  :     // If the following asserts, it likely means that we are performing
; 208  :     // an aligned delete on memory coming from an unaligned allocation.
; 209  :     _STL_ASSERT(_Ptr_user[-2] == _Big_allocation_sentinel, "invalid argument");
; 210  : 
; 211  :     // Extra paranoia on aligned allocation/deallocation; ensure _Ptr_container is
; 212  :     // in range [_Min_back_shift, _Non_user_size]
; 213  : #ifdef _DEBUG
; 214  :     constexpr uintptr_t _Min_back_shift = 2 * sizeof(void*);
; 215  : #else // ^^^ defined(_DEBUG) / !defined(_DEBUG) vvv
; 216  :     constexpr uintptr_t _Min_back_shift = sizeof(void*);
; 217  : #endif // ^^^ !defined(_DEBUG) ^^^
; 218  :     const uintptr_t _Back_shift = reinterpret_cast<uintptr_t>(_Ptr) - _Ptr_container;

  0001a	2b c2		 sub	 eax, edx

; 219  :     _STL_VERIFY(_Back_shift >= _Min_back_shift && _Back_shift <= _Non_user_size, "invalid argument");

  0001c	83 c0 fc	 add	 eax, -4			; fffffffcH
  0001f	83 f8 1f	 cmp	 eax, 31			; 0000001fH
  00022	77 10		 ja	 SHORT $LN10@deallocate

; 220  :     _Ptr = reinterpret_cast<void*>(_Ptr_container);

  00024	8b c2		 mov	 eax, edx
$LN11@deallocate:

; 289  :         ::operator delete(_Ptr, _Bytes);

  00026	51		 push	 ecx
  00027	50		 push	 eax
  00028	e8 00 00 00 00	 call	 ??3@YAXPAXI@Z		; operator delete
  0002d	83 c4 08	 add	 esp, 8

; 986  :     }

  00030	5d		 pop	 ebp
  00031	c2 08 00	 ret	 8
$LN10@deallocate:

; 219  :     _STL_VERIFY(_Back_shift >= _Min_back_shift && _Back_shift <= _Non_user_size, "invalid argument");

  00034	6a 00		 push	 0
  00036	6a 00		 push	 0
  00038	6a 00		 push	 0
  0003a	6a 00		 push	 0
  0003c	6a 00		 push	 0
  0003e	e8 00 00 00 00	 call	 __invoke_watson
$LN14@deallocate:
  00043	cc		 int	 3
?deallocate@?$allocator@U__SPAWNINFO@CEventLua@@@std@@QAEXQAU__SPAWNINFO@CEventLua@@I@Z ENDP ; std::allocator<CEventLua::__SPAWNINFO>::deallocate
_TEXT	ENDS
; Function compile flags: /Ogtp
; File C:\Program Files\Microsoft Visual Studio\2022\Professional\VC\Tools\MSVC\14.44.35207\include\xtree
;	COMDAT ??E?$_Tree_unchecked_const_iterator@V?$_Tree_val@U?$_Tree_simple_types@U?$pair@$$CBEV?$vector@U__SPAWNINFO@CEventLua@@V?$allocator@U__SPAWNINFO@CEventLua@@@std@@@std@@@std@@@std@@@std@@U_Iterator_base0@2@@std@@QAEAAV01@XZ
_TEXT	SEGMENT
??E?$_Tree_unchecked_const_iterator@V?$_Tree_val@U?$_Tree_simple_types@U?$pair@$$CBEV?$vector@U__SPAWNINFO@CEventLua@@V?$allocator@U__SPAWNINFO@CEventLua@@@std@@@std@@@std@@@std@@@std@@U_Iterator_base0@2@@std@@QAEAAV01@XZ PROC ; std::_Tree_unchecked_const_iterator<std::_Tree_val<std::_Tree_simple_types<std::pair<unsigned char const ,std::vector<CEventLua::__SPAWNINFO,std::allocator<CEventLua::__SPAWNINFO> > > > >,std::_Iterator_base0>::operator++, COMDAT
; _this$ = ecx

; 49   :     _Tree_unchecked_const_iterator& operator++() noexcept {

  00000	56		 push	 esi
  00001	8b f1		 mov	 esi, ecx
  00003	57		 push	 edi

; 50   :         if (_Ptr->_Right->_Isnil) { // climb looking for right subtree

  00004	8b 16		 mov	 edx, DWORD PTR [esi]
  00006	8b 7a 08	 mov	 edi, DWORD PTR [edx+8]
  00009	80 7f 0d 00	 cmp	 BYTE PTR [edi+13], 0
  0000d	74 22		 je	 SHORT $LN4@operator

; 51   :             _Nodeptr _Pnode;
; 52   :             while (!(_Pnode = _Ptr->_Parent)->_Isnil && _Ptr == _Pnode->_Right) {

  0000f	8b 42 04	 mov	 eax, DWORD PTR [edx+4]
  00012	80 78 0d 00	 cmp	 BYTE PTR [eax+13], 0
  00016	75 12		 jne	 SHORT $LN21@operator
$LL2@operator:
  00018	3b 50 08	 cmp	 edx, DWORD PTR [eax+8]
  0001b	75 0d		 jne	 SHORT $LN21@operator

; 53   :                 _Ptr = _Pnode; // ==> parent while right subtree

  0001d	89 06		 mov	 DWORD PTR [esi], eax
  0001f	8b d0		 mov	 edx, eax
  00021	8b 40 04	 mov	 eax, DWORD PTR [eax+4]
  00024	80 78 0d 00	 cmp	 BYTE PTR [eax+13], 0
  00028	74 ee		 je	 SHORT $LL2@operator
$LN21@operator:

; 54   :             }
; 55   : 
; 56   :             _Ptr = _Pnode; // ==> parent (head if end())
; 57   :         } else {
; 58   :             _Ptr = _Mytree::_Min(_Ptr->_Right); // ==> smallest of right subtree
; 59   :         }
; 60   : 
; 61   :         return *this;

  0002a	89 06		 mov	 DWORD PTR [esi], eax

; 62   :     }

  0002c	8b c6		 mov	 eax, esi
  0002e	5f		 pop	 edi
  0002f	5e		 pop	 esi
  00030	c3		 ret	 0
$LN4@operator:

; 476  :         while (!_Pnode->_Left->_Isnil) {

  00031	8b 0f		 mov	 ecx, DWORD PTR [edi]
  00033	80 79 0d 00	 cmp	 BYTE PTR [ecx+13], 0
  00037	75 13		 jne	 SHORT $LN10@operator
  00039	0f 1f 80 00 00
	00 00		 npad	 7
$LL9@operator:
  00040	8b 01		 mov	 eax, DWORD PTR [ecx]

; 477  :             _Pnode = _Pnode->_Left;

  00042	8b f9		 mov	 edi, ecx
  00044	8b c8		 mov	 ecx, eax
  00046	80 78 0d 00	 cmp	 BYTE PTR [eax+13], 0
  0004a	74 f4		 je	 SHORT $LL9@operator
$LN10@operator:

; 54   :             }
; 55   : 
; 56   :             _Ptr = _Pnode; // ==> parent (head if end())
; 57   :         } else {
; 58   :             _Ptr = _Mytree::_Min(_Ptr->_Right); // ==> smallest of right subtree
; 59   :         }
; 60   : 
; 61   :         return *this;

  0004c	89 3e		 mov	 DWORD PTR [esi], edi

; 62   :     }

  0004e	8b c6		 mov	 eax, esi
  00050	5f		 pop	 edi
  00051	5e		 pop	 esi
  00052	c3		 ret	 0
??E?$_Tree_unchecked_const_iterator@V?$_Tree_val@U?$_Tree_simple_types@U?$pair@$$CBEV?$vector@U__SPAWNINFO@CEventLua@@V?$allocator@U__SPAWNINFO@CEventLua@@@std@@@std@@@std@@@std@@@std@@U_Iterator_base0@2@@std@@QAEAAV01@XZ ENDP ; std::_Tree_unchecked_const_iterator<std::_Tree_val<std::_Tree_simple_types<std::pair<unsigned char const ,std::vector<CEventLua::__SPAWNINFO,std::allocator<CEventLua::__SPAWNINFO> > > > >,std::_Iterator_base0>::operator++
_TEXT	ENDS
; Function compile flags: /Ogtp
; File C:\Program Files\Microsoft Visual Studio\2022\Professional\VC\Tools\MSVC\14.44.35207\include\xmemory
;	COMDAT ??$_Allocate_manually_vector_aligned@U_Default_allocate_traits@std@@@std@@YAPAXI@Z
_TEXT	SEGMENT
__Bytes$ = 8						; size = 4
??$_Allocate_manually_vector_aligned@U_Default_allocate_traits@std@@@std@@YAPAXI@Z PROC ; std::_Allocate_manually_vector_aligned<std::_Default_allocate_traits>, COMDAT

; 182  : __declspec(allocator) void* _Allocate_manually_vector_aligned(const size_t _Bytes) {

  00000	55		 push	 ebp
  00001	8b ec		 mov	 ebp, esp

; 183  :     // allocate _Bytes manually aligned to at least _Big_allocation_alignment
; 184  :     const size_t _Block_size = _Non_user_size + _Bytes;

  00003	8b 45 08	 mov	 eax, DWORD PTR __Bytes$[ebp]
  00006	8d 48 23	 lea	 ecx, DWORD PTR [eax+35]

; 185  :     if (_Block_size <= _Bytes) {

  00009	3b c8		 cmp	 ecx, eax
  0000b	0f 86 00 00 00
	00		 jbe	 ?_Throw_bad_array_new_length@std@@YAXXZ ; std::_Throw_bad_array_new_length

; 136  :         return ::operator new(_Bytes);

  00011	51		 push	 ecx
  00012	e8 00 00 00 00	 call	 ??2@YAPAXI@Z		; operator new

; 186  :         _Throw_bad_array_new_length(); // add overflow
; 187  :     }
; 188  : 
; 189  :     const uintptr_t _Ptr_container = reinterpret_cast<uintptr_t>(_Traits::_Allocate(_Block_size));

  00017	8b c8		 mov	 ecx, eax

; 136  :         return ::operator new(_Bytes);

  00019	83 c4 04	 add	 esp, 4

; 190  :     _STL_VERIFY(_Ptr_container != 0, "invalid argument"); // validate even in release since we're doing p[-1]

  0001c	85 c9		 test	 ecx, ecx
  0001e	74 0b		 je	 SHORT $LN9@Allocate_m

; 191  :     void* const _Ptr = reinterpret_cast<void*>((_Ptr_container + _Non_user_size) & ~(_Big_allocation_alignment - 1));

  00020	8d 41 23	 lea	 eax, DWORD PTR [ecx+35]
  00023	83 e0 e0	 and	 eax, -32		; ffffffe0H

; 192  :     static_cast<uintptr_t*>(_Ptr)[-1] = _Ptr_container;

  00026	89 48 fc	 mov	 DWORD PTR [eax-4], ecx

; 193  : 
; 194  : #ifdef _DEBUG
; 195  :     static_cast<uintptr_t*>(_Ptr)[-2] = _Big_allocation_sentinel;
; 196  : #endif // defined(_DEBUG)
; 197  :     return _Ptr;
; 198  : }

  00029	5d		 pop	 ebp
  0002a	c3		 ret	 0
$LN9@Allocate_m:

; 190  :     _STL_VERIFY(_Ptr_container != 0, "invalid argument"); // validate even in release since we're doing p[-1]

  0002b	6a 00		 push	 0
  0002d	6a 00		 push	 0
  0002f	6a 00		 push	 0
  00031	6a 00		 push	 0
  00033	6a 00		 push	 0
  00035	e8 00 00 00 00	 call	 __invoke_watson
$LN7@Allocate_m:
  0003a	cc		 int	 3
??$_Allocate_manually_vector_aligned@U_Default_allocate_traits@std@@@std@@YAPAXI@Z ENDP ; std::_Allocate_manually_vector_aligned<std::_Default_allocate_traits>
_TEXT	ENDS
; Function compile flags: /Ogtp
; File C:\Program Files\Microsoft Visual Studio\2022\Professional\VC\Tools\MSVC\14.44.35207\include\xtree
; File C:\Program Files\Microsoft Visual Studio\2022\Professional\VC\Tools\MSVC\14.44.35207\include\utility
; File C:\Program Files\Microsoft Visual Studio\2022\Professional\VC\Tools\MSVC\14.44.35207\include\xmemory
; File C:\Program Files\Microsoft Visual Studio\2022\Professional\VC\Tools\MSVC\14.44.35207\include\xtree
;	COMDAT ??$_Erase_tree@V?$allocator@U?$_Tree_node@U?$pair@$$CBKE@std@@PAX@std@@@std@@@?$_Tree_val@U?$_Tree_simple_types@U?$pair@$$CBKE@std@@@std@@@std@@QAEXAAV?$allocator@U?$_Tree_node@U?$pair@$$CBKE@std@@PAX@std@@@1@PAU?$_Tree_node@U?$pair@$$CBKE@std@@PAX@1@@Z
_TEXT	SEGMENT
__Al$ = 8						; size = 4
__Rootnode$ = 12					; size = 4
??$_Erase_tree@V?$allocator@U?$_Tree_node@U?$pair@$$CBKE@std@@PAX@std@@@std@@@?$_Tree_val@U?$_Tree_simple_types@U?$pair@$$CBKE@std@@@std@@@std@@QAEXAAV?$allocator@U?$_Tree_node@U?$pair@$$CBKE@std@@PAX@std@@@1@PAU?$_Tree_node@U?$pair@$$CBKE@std@@PAX@1@@Z PROC ; std::_Tree_val<std::_Tree_simple_types<std::pair<unsigned long const ,unsigned char> > >::_Erase_tree<std::allocator<std::_Tree_node<std::pair<unsigned long const ,unsigned char>,void *> > >, COMDAT
; _this$ = ecx

; 767  :     void _Erase_tree(_Alnode& _Al, _Nodeptr _Rootnode) noexcept {

  00000	55		 push	 ebp
  00001	8b ec		 mov	 ebp, esp
  00003	53		 push	 ebx
  00004	56		 push	 esi

; 768  :         while (!_Rootnode->_Isnil) { // free subtrees, then node

  00005	8b 75 0c	 mov	 esi, DWORD PTR __Rootnode$[ebp]
  00008	8b d9		 mov	 ebx, ecx
  0000a	80 7e 0d 00	 cmp	 BYTE PTR [esi+13], 0
  0000e	75 25		 jne	 SHORT $LN34@Erase_tree
  00010	57		 push	 edi
  00011	8b 7d 08	 mov	 edi, DWORD PTR __Al$[ebp]
$LL2@Erase_tree:

; 769  :             _Erase_tree(_Al, _Rootnode->_Right);

  00014	ff 76 08	 push	 DWORD PTR [esi+8]
  00017	8b cb		 mov	 ecx, ebx
  00019	57		 push	 edi
  0001a	e8 00 00 00 00	 call	 ??$_Erase_tree@V?$allocator@U?$_Tree_node@U?$pair@$$CBKE@std@@PAX@std@@@std@@@?$_Tree_val@U?$_Tree_simple_types@U?$pair@$$CBKE@std@@@std@@@std@@QAEXAAV?$allocator@U?$_Tree_node@U?$pair@$$CBKE@std@@PAX@std@@@1@PAU?$_Tree_node@U?$pair@$$CBKE@std@@PAX@1@@Z ; std::_Tree_val<std::_Tree_simple_types<std::pair<unsigned long const ,unsigned char> > >::_Erase_tree<std::allocator<std::_Tree_node<std::pair<unsigned long const ,unsigned char>,void *> > >
; File C:\Program Files\Microsoft Visual Studio\2022\Professional\VC\Tools\MSVC\14.44.35207\include\utility

; 773  :     _Ty _Old_val = static_cast<_Ty&&>(_Val);

  0001f	8b c6		 mov	 eax, esi

; 774  :     _Val         = static_cast<_Other&&>(_New_val);

  00021	8b 36		 mov	 esi, DWORD PTR [esi]
; File C:\Program Files\Microsoft Visual Studio\2022\Professional\VC\Tools\MSVC\14.44.35207\include\xmemory

; 289  :         ::operator delete(_Ptr, _Bytes);

  00023	6a 18		 push	 24			; 00000018H
  00025	50		 push	 eax
  00026	e8 00 00 00 00	 call	 ??3@YAXPAXI@Z		; operator delete
  0002b	83 c4 08	 add	 esp, 8
; File C:\Program Files\Microsoft Visual Studio\2022\Professional\VC\Tools\MSVC\14.44.35207\include\xtree

; 768  :         while (!_Rootnode->_Isnil) { // free subtrees, then node

  0002e	80 7e 0d 00	 cmp	 BYTE PTR [esi+13], 0
  00032	74 e0		 je	 SHORT $LL2@Erase_tree
  00034	5f		 pop	 edi
$LN34@Erase_tree:
  00035	5e		 pop	 esi

; 770  :             _Alnode::value_type::_Freenode(_Al, _STD exchange(_Rootnode, _Rootnode->_Left));
; 771  :         }
; 772  :     }

  00036	5b		 pop	 ebx
  00037	5d		 pop	 ebp
  00038	c2 08 00	 ret	 8
??$_Erase_tree@V?$allocator@U?$_Tree_node@U?$pair@$$CBKE@std@@PAX@std@@@std@@@?$_Tree_val@U?$_Tree_simple_types@U?$pair@$$CBKE@std@@@std@@@std@@QAEXAAV?$allocator@U?$_Tree_node@U?$pair@$$CBKE@std@@PAX@std@@@1@PAU?$_Tree_node@U?$pair@$$CBKE@std@@PAX@1@@Z ENDP ; std::_Tree_val<std::_Tree_simple_types<std::pair<unsigned long const ,unsigned char> > >::_Erase_tree<std::allocator<std::_Tree_node<std::pair<unsigned long const ,unsigned char>,void *> > >
_TEXT	ENDS
; Function compile flags: /Ogtp
; File C:\Program Files\Microsoft Visual Studio\2022\Professional\VC\Tools\MSVC\14.44.35207\include\xutility
;	COMDAT ??$_Copy_memmove@PAEPAE@std@@YAPAEPAE00@Z
_TEXT	SEGMENT
__First$ = 8						; size = 4
__Last$ = 12						; size = 4
__Dest$ = 16						; size = 4
??$_Copy_memmove@PAEPAE@std@@YAPAEPAE00@Z PROC		; std::_Copy_memmove<unsigned char *,unsigned char *>, COMDAT

; 4762 : _OutCtgIt _Copy_memmove(_CtgIt _First, _CtgIt _Last, _OutCtgIt _Dest) {

  00000	55		 push	 ebp
  00001	8b ec		 mov	 ebp, esp

; 4763 :     _STL_INTERNAL_CHECK(_First <= _Last);
; 4764 :     const auto _First_ptr    = _STD _To_address(_First);
; 4765 :     const auto _Last_ptr     = _STD _To_address(_Last);
; 4766 :     const auto _Object_count = static_cast<size_t>(_Last_ptr - _First_ptr);

  00003	8b 4d 08	 mov	 ecx, DWORD PTR __First$[ebp]
  00006	8b 45 0c	 mov	 eax, DWORD PTR __Last$[ebp]
  00009	2b c1		 sub	 eax, ecx

; 4767 :     const auto _First_ch     = const_cast<const char*>(reinterpret_cast<const volatile char*>(_First_ptr));
; 4768 :     const auto _Last_ch      = const_cast<const char*>(reinterpret_cast<const volatile char*>(_Last_ptr));
; 4769 :     const auto _Byte_count   = static_cast<size_t>(_Last_ch - _First_ch);
; 4770 :     return _STD _Copy_memmove_tail(_First_ch, _STD move(_Dest), _Byte_count, _Object_count);

  0000b	50		 push	 eax
  0000c	50		 push	 eax
  0000d	ff 75 10	 push	 DWORD PTR __Dest$[ebp]
  00010	51		 push	 ecx
  00011	e8 00 00 00 00	 call	 ??$_Copy_memmove_tail@PAE@std@@YAPAEQBDQAEII@Z ; std::_Copy_memmove_tail<unsigned char *>
  00016	83 c4 10	 add	 esp, 16			; 00000010H

; 4771 : }

  00019	5d		 pop	 ebp
  0001a	c3		 ret	 0
??$_Copy_memmove@PAEPAE@std@@YAPAEPAE00@Z ENDP		; std::_Copy_memmove<unsigned char *,unsigned char *>
_TEXT	ENDS
; Function compile flags: /Ogtp
; File C:\Program Files\Microsoft Visual Studio\2022\Professional\VC\Tools\MSVC\14.44.35207\include\xutility
;	COMDAT ??$_Copy_memmove_tail@PAE@std@@YAPAEQBDQAEII@Z
_TEXT	SEGMENT
__First_ch$ = 8						; size = 4
__Dest$ = 12						; size = 4
__Byte_count$ = 16					; size = 4
__Object_count$ = 20					; size = 4
??$_Copy_memmove_tail@PAE@std@@YAPAEQBDQAEII@Z PROC	; std::_Copy_memmove_tail<unsigned char *>, COMDAT

; 4747 :     const char* const _First_ch, const _OutCtgIt _Dest, const size_t _Byte_count, const size_t _Object_count) {

  00000	55		 push	 ebp
  00001	8b ec		 mov	 ebp, esp
  00003	56		 push	 esi

; 4748 :     _STL_INTERNAL_CHECK(_Byte_count == _Object_count * sizeof(*_Dest));
; 4749 :     const auto _Dest_ptr = _STD _To_address(_Dest);
; 4750 :     const auto _Dest_ch  = const_cast<char*>(reinterpret_cast<const volatile char*>(_Dest_ptr));
; 4751 :     _CSTD memmove(_Dest_ch, _First_ch, _Byte_count);

  00004	8b 75 0c	 mov	 esi, DWORD PTR __Dest$[ebp]
  00007	57		 push	 edi
  00008	8b 7d 10	 mov	 edi, DWORD PTR __Byte_count$[ebp]
  0000b	57		 push	 edi
  0000c	ff 75 08	 push	 DWORD PTR __First_ch$[ebp]
  0000f	56		 push	 esi
  00010	e8 00 00 00 00	 call	 _memmove
  00015	83 c4 0c	 add	 esp, 12			; 0000000cH

; 4752 :     if constexpr (is_pointer_v<_OutCtgIt>) {
; 4753 :         (void) _Object_count;
; 4754 :         // CodeQL [SM02986] This cast is correct: we're bypassing pointer arithmetic for performance.
; 4755 :         return reinterpret_cast<_OutCtgIt>(_Dest_ch + _Byte_count);

  00018	8d 04 3e	 lea	 eax, DWORD PTR [esi+edi]
  0001b	5f		 pop	 edi
  0001c	5e		 pop	 esi

; 4756 :     } else {
; 4757 :         return _Dest + static_cast<_Iter_diff_t<_OutCtgIt>>(_Object_count);
; 4758 :     }
; 4759 : }

  0001d	5d		 pop	 ebp
  0001e	c3		 ret	 0
??$_Copy_memmove_tail@PAE@std@@YAPAEQBDQAEII@Z ENDP	; std::_Copy_memmove_tail<unsigned char *>
_TEXT	ENDS
; Function compile flags: /Ogtp
; File C:\Program Files\Microsoft Visual Studio\2022\Professional\VC\Tools\MSVC\14.44.35207\include\xtree
; File C:\Program Files\Microsoft Visual Studio\2022\Professional\VC\Tools\MSVC\14.44.35207\include\utility
; File C:\Program Files\Microsoft Visual Studio\2022\Professional\VC\Tools\MSVC\14.44.35207\include\xmemory
; File C:\Program Files\Microsoft Visual Studio\2022\Professional\VC\Tools\MSVC\14.44.35207\include\xtree
;	COMDAT ??$_Erase_tree@V?$allocator@U?$_Tree_node@U?$pair@$$CBKH@std@@PAX@std@@@std@@@?$_Tree_val@U?$_Tree_simple_types@U?$pair@$$CBKH@std@@@std@@@std@@QAEXAAV?$allocator@U?$_Tree_node@U?$pair@$$CBKH@std@@PAX@std@@@1@PAU?$_Tree_node@U?$pair@$$CBKH@std@@PAX@1@@Z
_TEXT	SEGMENT
__Al$ = 8						; size = 4
__Rootnode$ = 12					; size = 4
??$_Erase_tree@V?$allocator@U?$_Tree_node@U?$pair@$$CBKH@std@@PAX@std@@@std@@@?$_Tree_val@U?$_Tree_simple_types@U?$pair@$$CBKH@std@@@std@@@std@@QAEXAAV?$allocator@U?$_Tree_node@U?$pair@$$CBKH@std@@PAX@std@@@1@PAU?$_Tree_node@U?$pair@$$CBKH@std@@PAX@1@@Z PROC ; std::_Tree_val<std::_Tree_simple_types<std::pair<unsigned long const ,int> > >::_Erase_tree<std::allocator<std::_Tree_node<std::pair<unsigned long const ,int>,void *> > >, COMDAT
; _this$ = ecx

; 767  :     void _Erase_tree(_Alnode& _Al, _Nodeptr _Rootnode) noexcept {

  00000	55		 push	 ebp
  00001	8b ec		 mov	 ebp, esp
  00003	53		 push	 ebx
  00004	56		 push	 esi

; 768  :         while (!_Rootnode->_Isnil) { // free subtrees, then node

  00005	8b 75 0c	 mov	 esi, DWORD PTR __Rootnode$[ebp]
  00008	8b d9		 mov	 ebx, ecx
  0000a	80 7e 0d 00	 cmp	 BYTE PTR [esi+13], 0
  0000e	75 25		 jne	 SHORT $LN34@Erase_tree
  00010	57		 push	 edi
  00011	8b 7d 08	 mov	 edi, DWORD PTR __Al$[ebp]
$LL2@Erase_tree:

; 769  :             _Erase_tree(_Al, _Rootnode->_Right);

  00014	ff 76 08	 push	 DWORD PTR [esi+8]
  00017	8b cb		 mov	 ecx, ebx
  00019	57		 push	 edi
  0001a	e8 00 00 00 00	 call	 ??$_Erase_tree@V?$allocator@U?$_Tree_node@U?$pair@$$CBKH@std@@PAX@std@@@std@@@?$_Tree_val@U?$_Tree_simple_types@U?$pair@$$CBKH@std@@@std@@@std@@QAEXAAV?$allocator@U?$_Tree_node@U?$pair@$$CBKH@std@@PAX@std@@@1@PAU?$_Tree_node@U?$pair@$$CBKH@std@@PAX@1@@Z ; std::_Tree_val<std::_Tree_simple_types<std::pair<unsigned long const ,int> > >::_Erase_tree<std::allocator<std::_Tree_node<std::pair<unsigned long const ,int>,void *> > >
; File C:\Program Files\Microsoft Visual Studio\2022\Professional\VC\Tools\MSVC\14.44.35207\include\utility

; 773  :     _Ty _Old_val = static_cast<_Ty&&>(_Val);

  0001f	8b c6		 mov	 eax, esi

; 774  :     _Val         = static_cast<_Other&&>(_New_val);

  00021	8b 36		 mov	 esi, DWORD PTR [esi]
; File C:\Program Files\Microsoft Visual Studio\2022\Professional\VC\Tools\MSVC\14.44.35207\include\xmemory

; 289  :         ::operator delete(_Ptr, _Bytes);

  00023	6a 18		 push	 24			; 00000018H
  00025	50		 push	 eax
  00026	e8 00 00 00 00	 call	 ??3@YAXPAXI@Z		; operator delete
  0002b	83 c4 08	 add	 esp, 8
; File C:\Program Files\Microsoft Visual Studio\2022\Professional\VC\Tools\MSVC\14.44.35207\include\xtree

; 768  :         while (!_Rootnode->_Isnil) { // free subtrees, then node

  0002e	80 7e 0d 00	 cmp	 BYTE PTR [esi+13], 0
  00032	74 e0		 je	 SHORT $LL2@Erase_tree
  00034	5f		 pop	 edi
$LN34@Erase_tree:
  00035	5e		 pop	 esi

; 770  :             _Alnode::value_type::_Freenode(_Al, _STD exchange(_Rootnode, _Rootnode->_Left));
; 771  :         }
; 772  :     }

  00036	5b		 pop	 ebx
  00037	5d		 pop	 ebp
  00038	c2 08 00	 ret	 8
??$_Erase_tree@V?$allocator@U?$_Tree_node@U?$pair@$$CBKH@std@@PAX@std@@@std@@@?$_Tree_val@U?$_Tree_simple_types@U?$pair@$$CBKH@std@@@std@@@std@@QAEXAAV?$allocator@U?$_Tree_node@U?$pair@$$CBKH@std@@PAX@std@@@1@PAU?$_Tree_node@U?$pair@$$CBKH@std@@PAX@1@@Z ENDP ; std::_Tree_val<std::_Tree_simple_types<std::pair<unsigned long const ,int> > >::_Erase_tree<std::allocator<std::_Tree_node<std::pair<unsigned long const ,int>,void *> > >
_TEXT	ENDS
; Function compile flags: /Ogtp
; File C:\Program Files\Microsoft Visual Studio\2022\Professional\VC\Tools\MSVC\14.44.35207\include\xutility
;	COMDAT ??$_Copy_memmove_n@PBEPAE@std@@YAPAEPBEIPAE@Z
_TEXT	SEGMENT
__First$ = 8						; size = 4
__Object_count$ = 12					; size = 4
__Dest$ = 16						; size = 4
??$_Copy_memmove_n@PBEPAE@std@@YAPAEPBEIPAE@Z PROC	; std::_Copy_memmove_n<unsigned char const *,unsigned char *>, COMDAT

; 4774 : _OutCtgIt _Copy_memmove_n(_CtgIt _First, const size_t _Object_count, _OutCtgIt _Dest) {

  00000	55		 push	 ebp
  00001	8b ec		 mov	 ebp, esp

; 4775 :     const auto _First_ptr  = _STD _To_address(_First);
; 4776 :     const auto _First_ch   = const_cast<const char*>(reinterpret_cast<const volatile char*>(_First_ptr));
; 4777 :     const auto _Byte_count = _Object_count * sizeof(*_First_ptr);
; 4778 :     return _STD _Copy_memmove_tail(_First_ch, _STD move(_Dest), _Byte_count, _Object_count);

  00003	8b 45 0c	 mov	 eax, DWORD PTR __Object_count$[ebp]
  00006	50		 push	 eax
  00007	50		 push	 eax
  00008	ff 75 10	 push	 DWORD PTR __Dest$[ebp]
  0000b	ff 75 08	 push	 DWORD PTR __First$[ebp]
  0000e	e8 00 00 00 00	 call	 ??$_Copy_memmove_tail@PAE@std@@YAPAEQBDQAEII@Z ; std::_Copy_memmove_tail<unsigned char *>
  00013	83 c4 10	 add	 esp, 16			; 00000010H

; 4779 : }

  00016	5d		 pop	 ebp
  00017	c3		 ret	 0
??$_Copy_memmove_n@PBEPAE@std@@YAPAEPBEIPAE@Z ENDP	; std::_Copy_memmove_n<unsigned char const *,unsigned char *>
_TEXT	ENDS
; Function compile flags: /Ogtp
; File C:\Program Files\Microsoft Visual Studio\2022\Professional\VC\Tools\MSVC\14.44.35207\include\xtree
;	COMDAT ??E?$_Tree_unchecked_const_iterator@V?$_Tree_val@U?$_Tree_simple_types@U?$pair@$$CBKE@std@@@std@@@std@@U_Iterator_base0@2@@std@@QAEAAV01@XZ
_TEXT	SEGMENT
??E?$_Tree_unchecked_const_iterator@V?$_Tree_val@U?$_Tree_simple_types@U?$pair@$$CBKE@std@@@std@@@std@@U_Iterator_base0@2@@std@@QAEAAV01@XZ PROC ; std::_Tree_unchecked_const_iterator<std::_Tree_val<std::_Tree_simple_types<std::pair<unsigned long const ,unsigned char> > >,std::_Iterator_base0>::operator++, COMDAT
; _this$ = ecx

; 49   :     _Tree_unchecked_const_iterator& operator++() noexcept {

  00000	56		 push	 esi
  00001	8b f1		 mov	 esi, ecx
  00003	57		 push	 edi

; 50   :         if (_Ptr->_Right->_Isnil) { // climb looking for right subtree

  00004	8b 16		 mov	 edx, DWORD PTR [esi]
  00006	8b 7a 08	 mov	 edi, DWORD PTR [edx+8]
  00009	80 7f 0d 00	 cmp	 BYTE PTR [edi+13], 0
  0000d	74 22		 je	 SHORT $LN4@operator

; 51   :             _Nodeptr _Pnode;
; 52   :             while (!(_Pnode = _Ptr->_Parent)->_Isnil && _Ptr == _Pnode->_Right) {

  0000f	8b 42 04	 mov	 eax, DWORD PTR [edx+4]
  00012	80 78 0d 00	 cmp	 BYTE PTR [eax+13], 0
  00016	75 12		 jne	 SHORT $LN21@operator
$LL2@operator:
  00018	3b 50 08	 cmp	 edx, DWORD PTR [eax+8]
  0001b	75 0d		 jne	 SHORT $LN21@operator

; 53   :                 _Ptr = _Pnode; // ==> parent while right subtree

  0001d	89 06		 mov	 DWORD PTR [esi], eax
  0001f	8b d0		 mov	 edx, eax
  00021	8b 40 04	 mov	 eax, DWORD PTR [eax+4]
  00024	80 78 0d 00	 cmp	 BYTE PTR [eax+13], 0
  00028	74 ee		 je	 SHORT $LL2@operator
$LN21@operator:

; 54   :             }
; 55   : 
; 56   :             _Ptr = _Pnode; // ==> parent (head if end())
; 57   :         } else {
; 58   :             _Ptr = _Mytree::_Min(_Ptr->_Right); // ==> smallest of right subtree
; 59   :         }
; 60   : 
; 61   :         return *this;

  0002a	89 06		 mov	 DWORD PTR [esi], eax

; 62   :     }

  0002c	8b c6		 mov	 eax, esi
  0002e	5f		 pop	 edi
  0002f	5e		 pop	 esi
  00030	c3		 ret	 0
$LN4@operator:

; 476  :         while (!_Pnode->_Left->_Isnil) {

  00031	8b 0f		 mov	 ecx, DWORD PTR [edi]
  00033	80 79 0d 00	 cmp	 BYTE PTR [ecx+13], 0
  00037	75 13		 jne	 SHORT $LN10@operator
  00039	0f 1f 80 00 00
	00 00		 npad	 7
$LL9@operator:
  00040	8b 01		 mov	 eax, DWORD PTR [ecx]

; 477  :             _Pnode = _Pnode->_Left;

  00042	8b f9		 mov	 edi, ecx
  00044	8b c8		 mov	 ecx, eax
  00046	80 78 0d 00	 cmp	 BYTE PTR [eax+13], 0
  0004a	74 f4		 je	 SHORT $LL9@operator
$LN10@operator:

; 54   :             }
; 55   : 
; 56   :             _Ptr = _Pnode; // ==> parent (head if end())
; 57   :         } else {
; 58   :             _Ptr = _Mytree::_Min(_Ptr->_Right); // ==> smallest of right subtree
; 59   :         }
; 60   : 
; 61   :         return *this;

  0004c	89 3e		 mov	 DWORD PTR [esi], edi

; 62   :     }

  0004e	8b c6		 mov	 eax, esi
  00050	5f		 pop	 edi
  00051	5e		 pop	 esi
  00052	c3		 ret	 0
??E?$_Tree_unchecked_const_iterator@V?$_Tree_val@U?$_Tree_simple_types@U?$pair@$$CBKE@std@@@std@@@std@@U_Iterator_base0@2@@std@@QAEAAV01@XZ ENDP ; std::_Tree_unchecked_const_iterator<std::_Tree_val<std::_Tree_simple_types<std::pair<unsigned long const ,unsigned char> > >,std::_Iterator_base0>::operator++
_TEXT	ENDS
; Function compile flags: /Ogtp
;	COMDAT ??_GCEventLua@@UAEPAXI@Z
_TEXT	SEGMENT
___flags$ = 8						; size = 4
??_GCEventLua@@UAEPAXI@Z PROC				; CEventLua::`scalar deleting destructor', COMDAT
; _this$ = ecx
  00000	55		 push	 ebp
  00001	8b ec		 mov	 ebp, esp
  00003	56		 push	 esi
  00004	8b f1		 mov	 esi, ecx
  00006	e8 00 00 00 00	 call	 ??1CEventLua@@UAE@XZ	; CEventLua::~CEventLua
  0000b	f6 45 08 01	 test	 BYTE PTR ___flags$[ebp], 1
  0000f	74 0e		 je	 SHORT $LN5@scalar
  00011	68 94 00 00 00	 push	 148			; 00000094H
  00016	56		 push	 esi
  00017	e8 00 00 00 00	 call	 ??3@YAXPAXI@Z		; operator delete
  0001c	83 c4 08	 add	 esp, 8
$LN5@scalar:
  0001f	8b c6		 mov	 eax, esi
  00021	5e		 pop	 esi
  00022	5d		 pop	 ebp
  00023	c2 04 00	 ret	 4
??_GCEventLua@@UAEPAXI@Z ENDP				; CEventLua::`scalar deleting destructor'
_TEXT	ENDS
; Function compile flags: /Ogtp
; File C:\IAGOS\server\v18\Source\Source\_Common\EventLua.cpp
; File C:\Program Files\Microsoft Visual Studio\2022\Professional\VC\Tools\MSVC\14.44.35207\include\vector
; File C:\IAGOS\server\v18\Source\Source\_Common\EventLua.cpp
; File C:\Program Files\Microsoft Visual Studio\2022\Professional\VC\Tools\MSVC\14.44.35207\include\vector
; File C:\IAGOS\server\v18\Source\Source\_Common\EventLua.cpp
; File C:\Program Files\Microsoft Visual Studio\2022\Professional\VC\Tools\MSVC\14.44.35207\include\vector
; File C:\Program Files\Microsoft Visual Studio\2022\Professional\VC\Tools\MSVC\14.44.35207\include\xtree
; File C:\IAGOS\server\v18\Source\Source\_Common\EventLua.cpp
; File C:\Program Files\Microsoft Visual Studio\2022\Professional\VC\Tools\MSVC\14.44.35207\include\xtree
; File C:\IAGOS\server\v18\Source\Source\_Common\EventLua.cpp
;	COMDAT ?KeepConnectEventProcess@CEventLua@@QAEXXZ
_TEXT	SEGMENT
_nVecSize$1$ = -204					; size = 4
_nCount$1$ = -196					; size = 4
_itemElem$2 = -192					; size = 176
__$ArrayPad$ = -16					; size = 4
__$EHRec$ = -12						; size = 12
?KeepConnectEventProcess@CEventLua@@QAEXXZ PROC		; CEventLua::KeepConnectEventProcess, COMDAT
; _this$ = ecx

; 842  : {

  00000	55		 push	 ebp
  00001	8b ec		 mov	 ebp, esp
  00003	6a ff		 push	 -1
  00005	68 00 00 00 00	 push	 __ehhandler$?KeepConnectEventProcess@CEventLua@@QAEXXZ
  0000a	64 a1 00 00 00
	00		 mov	 eax, DWORD PTR fs:0
  00010	50		 push	 eax
  00011	81 ec c0 00 00
	00		 sub	 esp, 192		; 000000c0H
  00017	a1 00 00 00 00	 mov	 eax, DWORD PTR ___security_cookie
  0001c	33 c5		 xor	 eax, ebp
  0001e	89 45 f0	 mov	 DWORD PTR __$ArrayPad$[ebp], eax
  00021	53		 push	 ebx
  00022	56		 push	 esi
  00023	57		 push	 edi
  00024	50		 push	 eax
  00025	8d 45 f4	 lea	 eax, DWORD PTR __$EHRec$[ebp]
  00028	64 a3 00 00 00
	00		 mov	 DWORD PTR fs:0, eax
  0002e	8b f9		 mov	 edi, ecx

; 843  : 	if( !IsPossible() )

  00030	83 7f 04 00	 cmp	 DWORD PTR [edi+4], 0
  00034	0f 84 1a 01 00
	00		 je	 $LN92@KeepConnec
; File C:\Program Files\Microsoft Visual Studio\2022\Professional\VC\Tools\MSVC\14.44.35207\include\vector

; 1915 :         return static_cast<size_type>(_My_data._Mylast - _My_data._Myfirst);

  0003a	8b 87 84 00 00
	00		 mov	 eax, DWORD PTR [edi+132]
  00040	2b 87 80 00 00
	00		 sub	 eax, DWORD PTR [edi+128]
  00046	c1 f8 02	 sar	 eax, 2
  00049	89 85 34 ff ff
	ff		 mov	 DWORD PTR _nVecSize$1$[ebp], eax
; File C:\IAGOS\server\v18\Source\Source\_Common\EventLua.cpp

; 847  : 	if( !nVecSize )

  0004f	85 c0		 test	 eax, eax
  00051	0f 84 fd 00 00
	00		 je	 $LN92@KeepConnec

; 848  : 		return;
; 849  : 	
; 850  : 	u_long idPlayer;
; 851  : 	int nCount = 0;

  00057	33 db		 xor	 ebx, ebx
  00059	89 9d 3c ff ff
	ff		 mov	 DWORD PTR _nCount$1$[ebp], ebx

; 852  : 
; 853  : 	for( int i = 0; i < nVecSize; ++i )

  0005f	85 c0		 test	 eax, eax
  00061	0f 8e ed 00 00
	00		 jle	 $LN92@KeepConnec
$LL4@KeepConnec:

; 854  : 	{
; 855  : 		if( nCount >= 10 )

  00067	83 fb 0a	 cmp	 ebx, 10			; 0000000aH
  0006a	0f 83 e4 00 00
	00		 jae	 $LN92@KeepConnec
; File C:\Program Files\Microsoft Visual Studio\2022\Professional\VC\Tools\MSVC\14.44.35207\include\vector

; 1989 :         return _My_data._Mylast[-1];

  00070	8b 87 84 00 00
	00		 mov	 eax, DWORD PTR [edi+132]
  00076	83 c0 fc	 add	 eax, -4			; fffffffcH
; File C:\IAGOS\server\v18\Source\Source\_Common\EventLua.cpp

; 858  : 		idPlayer = m_vecKeepConnectUser.back();

  00079	8b 08		 mov	 ecx, DWORD PTR [eax]
; File C:\Program Files\Microsoft Visual Studio\2022\Professional\VC\Tools\MSVC\14.44.35207\include\vector

; 1759 :         --_Mylast;

  0007b	89 87 84 00 00
	00		 mov	 DWORD PTR [edi+132], eax
; File C:\Program Files\Microsoft Visual Studio\2022\Professional\VC\Tools\MSVC\14.44.35207\include\xtree

; 1142 :         return iterator(_Scary->_Myhead->_Left, _Scary);

  00081	8b 87 8c 00 00
	00		 mov	 eax, DWORD PTR [edi+140]

; 37   :     _Tree_unchecked_const_iterator(_Nodeptr _Pnode, const _Mytree* _Plist) noexcept : _Ptr(_Pnode) {

  00087	8b 30		 mov	 esi, DWORD PTR [eax]

; 237  :         return !(*this == _Right);

  00089	3b f0		 cmp	 esi, eax
; File C:\IAGOS\server\v18\Source\Source\_Common\EventLua.cpp

; 861  : 		for( map<DWORD, int>::iterator it = m_mapItemList.begin(); it != m_mapItemList.end(); ++it )

  0008b	0f 84 b0 00 00
	00		 je	 $LN6@KeepConnec
  00091	8b d9		 mov	 ebx, ecx
$LL7@KeepConnec:

; 862  : 		{
; 863  : 			CItemElem itemElem;

  00093	8d 8d 40 ff ff
	ff		 lea	 ecx, DWORD PTR _itemElem$2[ebp]
  00099	e8 00 00 00 00	 call	 ??0CItemElem@@QAE@XZ	; CItemElem::CItemElem

; 864  : 			itemElem.m_dwItemId = it->first;

  0009e	8b 46 10	 mov	 eax, DWORD PTR [esi+16]

; 865  : 			itemElem.m_nItemNum	= it->second;
; 866  : 			itemElem.SetSerialNumber();

  000a1	8d 8d 40 ff ff
	ff		 lea	 ecx, DWORD PTR _itemElem$2[ebp]
  000a7	89 85 4c ff ff
	ff		 mov	 DWORD PTR _itemElem$2[ebp+12], eax
  000ad	66 8b 46 14	 mov	 ax, WORD PTR [esi+20]
  000b1	c7 45 fc 00 00
	00 00		 mov	 DWORD PTR __$EHRec$[ebp+8], 0
  000b8	66 89 45 b4	 mov	 WORD PTR _itemElem$2[ebp+116], ax
  000bc	e8 00 00 00 00	 call	 ?SetSerialNumber@CItemBase@@QAEXXZ ; CItemBase::SetSerialNumber

; 867  : 			
; 868  : 			g_dpDBClient.SendQueryPostMail( idPlayer, 0, itemElem, 0, "", "" );

  000c1	68 00 00 00 00	 push	 OFFSET ??_C@_00CNPNBAHC@@
  000c6	68 00 00 00 00	 push	 OFFSET ??_C@_00CNPNBAHC@@
  000cb	6a 00		 push	 0
  000cd	8d 85 40 ff ff
	ff		 lea	 eax, DWORD PTR _itemElem$2[ebp]
  000d3	b9 00 00 00 00	 mov	 ecx, OFFSET ?g_dpDBClient@@3VCDPDatabaseClient@@A ; g_dpDBClient
  000d8	50		 push	 eax
  000d9	6a 00		 push	 0
  000db	53		 push	 ebx
  000dc	e8 00 00 00 00	 call	 ?SendQueryPostMail@CDPDatabaseClient@@QAEXKKAAVCItemElem@@HPAD1@Z ; CDPDatabaseClient::SendQueryPostMail

; 869  : 		}

  000e1	8d 8d 40 ff ff
	ff		 lea	 ecx, DWORD PTR _itemElem$2[ebp]
  000e7	c7 45 fc ff ff
	ff ff		 mov	 DWORD PTR __$EHRec$[ebp+8], -1
  000ee	e8 00 00 00 00	 call	 ??1CItemElem@@UAE@XZ	; CItemElem::~CItemElem
; File C:\Program Files\Microsoft Visual Studio\2022\Professional\VC\Tools\MSVC\14.44.35207\include\xtree

; 50   :         if (_Ptr->_Right->_Isnil) { // climb looking for right subtree

  000f3	8b 46 08	 mov	 eax, DWORD PTR [esi+8]
  000f6	80 78 0d 00	 cmp	 BYTE PTR [eax+13], 0
  000fa	74 1d		 je	 SHORT $LN43@KeepConnec

; 51   :             _Nodeptr _Pnode;
; 52   :             while (!(_Pnode = _Ptr->_Parent)->_Isnil && _Ptr == _Pnode->_Right) {

  000fc	8b 46 04	 mov	 eax, DWORD PTR [esi+4]
  000ff	80 78 0d 00	 cmp	 BYTE PTR [eax+13], 0
  00103	75 10		 jne	 SHORT $LN42@KeepConnec
$LL41@KeepConnec:
  00105	3b 70 08	 cmp	 esi, DWORD PTR [eax+8]
  00108	75 0b		 jne	 SHORT $LN42@KeepConnec

; 53   :                 _Ptr = _Pnode; // ==> parent while right subtree

  0010a	8b f0		 mov	 esi, eax
  0010c	8b 40 04	 mov	 eax, DWORD PTR [eax+4]
  0010f	80 78 0d 00	 cmp	 BYTE PTR [eax+13], 0
  00113	74 f0		 je	 SHORT $LL41@KeepConnec
$LN42@KeepConnec:

; 54   :             }
; 55   : 
; 56   :             _Ptr = _Pnode; // ==> parent (head if end())

  00115	8b f0		 mov	 esi, eax

; 57   :         } else {

  00117	eb 16		 jmp	 SHORT $LN95@KeepConnec
$LN43@KeepConnec:

; 58   :             _Ptr = _Mytree::_Min(_Ptr->_Right); // ==> smallest of right subtree

  00119	8b f0		 mov	 esi, eax

; 476  :         while (!_Pnode->_Left->_Isnil) {

  0011b	8b 0e		 mov	 ecx, DWORD PTR [esi]
  0011d	80 79 0d 00	 cmp	 BYTE PTR [ecx+13], 0
  00121	75 0c		 jne	 SHORT $LN95@KeepConnec
$LL48@KeepConnec:
  00123	8b 01		 mov	 eax, DWORD PTR [ecx]

; 477  :             _Pnode = _Pnode->_Left;

  00125	8b f1		 mov	 esi, ecx
  00127	8b c8		 mov	 ecx, eax
  00129	80 78 0d 00	 cmp	 BYTE PTR [eax+13], 0
  0012d	74 f4		 je	 SHORT $LL48@KeepConnec
$LN95@KeepConnec:

; 237  :         return !(*this == _Right);

  0012f	3b b7 8c 00 00
	00		 cmp	 esi, DWORD PTR [edi+140]
; File C:\IAGOS\server\v18\Source\Source\_Common\EventLua.cpp

; 861  : 		for( map<DWORD, int>::iterator it = m_mapItemList.begin(); it != m_mapItemList.end(); ++it )

  00135	0f 85 58 ff ff
	ff		 jne	 $LL7@KeepConnec
  0013b	8b 9d 3c ff ff
	ff		 mov	 ebx, DWORD PTR _nCount$1$[ebp]
$LN6@KeepConnec:

; 870  : 		++nCount;

  00141	43		 inc	 ebx
  00142	89 9d 3c ff ff
	ff		 mov	 DWORD PTR _nCount$1$[ebp], ebx
  00148	3b 9d 34 ff ff
	ff		 cmp	 ebx, DWORD PTR _nVecSize$1$[ebp]
  0014e	0f 8c 13 ff ff
	ff		 jl	 $LL4@KeepConnec
$LN92@KeepConnec:

; 871  : 	}
; 872  : }

  00154	8b 4d f4	 mov	 ecx, DWORD PTR __$EHRec$[ebp]
  00157	64 89 0d 00 00
	00 00		 mov	 DWORD PTR fs:0, ecx
  0015e	59		 pop	 ecx
  0015f	5f		 pop	 edi
  00160	5e		 pop	 esi
  00161	5b		 pop	 ebx
  00162	8b 4d f0	 mov	 ecx, DWORD PTR __$ArrayPad$[ebp]
  00165	33 cd		 xor	 ecx, ebp
  00167	e8 00 00 00 00	 call	 @__security_check_cookie@4
  0016c	8b e5		 mov	 esp, ebp
  0016e	5d		 pop	 ebp
  0016f	c3		 ret	 0
_TEXT	ENDS
;	COMDAT text$x
text$x	SEGMENT
__unwindfunclet$?KeepConnectEventProcess@CEventLua@@QAEXXZ$0:
  00000	8d 8d 40 ff ff
	ff		 lea	 ecx, DWORD PTR _itemElem$2[ebp]
  00006	e9 00 00 00 00	 jmp	 ??1CItemElem@@UAE@XZ	; CItemElem::~CItemElem
  0000b	cc		 int	 3
  0000c	cc		 int	 3
  0000d	cc		 int	 3
  0000e	cc		 int	 3
  0000f	cc		 int	 3
__ehhandler$?KeepConnectEventProcess@CEventLua@@QAEXXZ:
  00010	90		 npad	 1
  00011	90		 npad	 1
  00012	8b 54 24 08	 mov	 edx, DWORD PTR [esp+8]
  00016	8d 42 0c	 lea	 eax, DWORD PTR [edx+12]
  00019	8b 8a 30 ff ff
	ff		 mov	 ecx, DWORD PTR [edx-208]
  0001f	33 c8		 xor	 ecx, eax
  00021	e8 00 00 00 00	 call	 @__security_check_cookie@4
  00026	8b 4a fc	 mov	 ecx, DWORD PTR [edx-4]
  00029	33 c8		 xor	 ecx, eax
  0002b	e8 00 00 00 00	 call	 @__security_check_cookie@4
  00030	b8 00 00 00 00	 mov	 eax, OFFSET __ehfuncinfo$?KeepConnectEventProcess@CEventLua@@QAEXXZ
  00035	e9 00 00 00 00	 jmp	 ___CxxFrameHandler3
text$x	ENDS
?KeepConnectEventProcess@CEventLua@@QAEXXZ ENDP		; CEventLua::KeepConnectEventProcess
; Function compile flags: /Ogtp
; File C:\IAGOS\server\v18\Source\Source\_Common\EventLua.cpp
; File C:\IAGOS\server\v18\Source\Source\_Common\LuaBase.h
; File C:\IAGOS\server\v18\Source\Source\_Common\EventLua.cpp
; File C:\IAGOS\server\v18\Source\Source\_Common\LuaBase.h
; File C:\IAGOS\server\v18\Source\Source\_Common\EventLua.cpp
; File C:\Program Files\Microsoft Visual Studio\2022\Professional\VC\Tools\MSVC\14.44.35207\include\utility
; File C:\IAGOS\server\v18\Source\Source\_Common\EventLua.cpp
; File C:\Program Files\Microsoft Visual Studio\2022\Professional\VC\Tools\MSVC\14.44.35207\include\utility
; File C:\Program Files\Microsoft Visual Studio\2022\Professional\VC\Tools\MSVC\14.44.35207\include\xtree
; File C:\Program Files\Microsoft Visual Studio\2022\Professional\VC\Tools\MSVC\14.44.35207\include\utility
; File C:\Program Files\Microsoft Visual Studio\2022\Professional\VC\Tools\MSVC\14.44.35207\include\xtree
; File C:\Program Files\Microsoft Visual Studio\2022\Professional\VC\Tools\MSVC\14.44.35207\include\type_traits
; File C:\Program Files\Microsoft Visual Studio\2022\Professional\VC\Tools\MSVC\14.44.35207\include\xtree
; File C:\Program Files\Microsoft Visual Studio\2022\Professional\VC\Tools\MSVC\14.44.35207\include\xmemory
; File C:\Program Files\Microsoft Visual Studio\2022\Professional\VC\Tools\MSVC\14.44.35207\include\xtree
; File C:\Program Files\Microsoft Visual Studio\2022\Professional\VC\Tools\MSVC\14.44.35207\include\xmemory
; File C:\Program Files\Microsoft Visual Studio\2022\Professional\VC\Tools\MSVC\14.44.35207\include\xtree
; File C:\Program Files\Microsoft Visual Studio\2022\Professional\VC\Tools\MSVC\14.44.35207\include\xmemory
; File C:\Program Files\Microsoft Visual Studio\2022\Professional\VC\Tools\MSVC\14.44.35207\include\xtree
; File C:\Program Files\Microsoft Visual Studio\2022\Professional\VC\Tools\MSVC\14.44.35207\include\utility
; File C:\Program Files\Microsoft Visual Studio\2022\Professional\VC\Tools\MSVC\14.44.35207\include\xtree
; File C:\IAGOS\server\v18\Source\Source\_Common\EventLua.cpp
; File C:\IAGOS\server\v18\Source\Source\_Common\LuaBase.h
; File C:\IAGOS\server\v18\Source\Source\_Common\EventLua.cpp
; File C:\Program Files\Microsoft Visual Studio\2022\Professional\VC\Tools\MSVC\14.44.35207\include\xtree
; File C:\IAGOS\server\v18\Source\Source\_Common\EventLua.cpp
;	COMDAT ?GetKeepConnectItem@CEventLua@@QAEXXZ
_TEXT	SEGMENT
$T2 = -64						; size = 12
__Loc$3 = -52						; size = 12
$T4 = -40						; size = 8
tv670 = -32						; size = 8
$T5 = -24						; size = 8
$T6 = -16						; size = 4
__$EHRec$ = -12						; size = 12
?GetKeepConnectItem@CEventLua@@QAEXXZ PROC		; CEventLua::GetKeepConnectItem, COMDAT
; _this$ = ecx

; 816  : {

  00000	55		 push	 ebp
  00001	8b ec		 mov	 ebp, esp
  00003	6a ff		 push	 -1
  00005	68 00 00 00 00	 push	 __ehhandler$?GetKeepConnectItem@CEventLua@@QAEXXZ
  0000a	64 a1 00 00 00
	00		 mov	 eax, DWORD PTR fs:0
  00010	50		 push	 eax
  00011	83 ec 34	 sub	 esp, 52			; 00000034H
  00014	53		 push	 ebx
  00015	56		 push	 esi
  00016	57		 push	 edi
  00017	a1 00 00 00 00	 mov	 eax, DWORD PTR ___security_cookie
  0001c	33 c5		 xor	 eax, ebp
  0001e	50		 push	 eax
  0001f	8d 45 f4	 lea	 eax, DWORD PTR __$EHRec$[ebp]
  00022	64 a3 00 00 00
	00		 mov	 DWORD PTR fs:0, eax
  00028	8b d9		 mov	 ebx, ecx

; 817  : 	if( !IsPossible() )

  0002a	83 7b 04 00	 cmp	 DWORD PTR [ebx+4], 0
  0002e	0f 84 4f 01 00
	00		 je	 $LN1@GetKeepCon

; 818  : 		return;
; 819  : 	
; 820  : 	if( m_Lua.GetLuaFunction( "GetKeepConnectItem" ) )

  00034	8d 73 08	 lea	 esi, DWORD PTR [ebx+8]
  00037	68 00 00 00 00	 push	 OFFSET ??_C@_0BD@MDJDGFLO@GetKeepConnectItem@
  0003c	8b ce		 mov	 ecx, esi
  0003e	e8 00 00 00 00	 call	 ?GetLuaFunction@CLuaBase@@QAEHPAD@Z ; CLuaBase::GetLuaFunction
  00043	85 c0		 test	 eax, eax
  00045	0f 84 2f 01 00
	00		 je	 $LN3@GetKeepCon

; 821  : 	{
; 822  : 		m_Lua.CallLuaFunction( 0, 1 );

  0004b	6a 01		 push	 1
  0004d	6a 00		 push	 0
  0004f	8b ce		 mov	 ecx, esi
  00051	e8 00 00 00 00	 call	 ?CallLuaFunction@CLuaBase@@QAEXHH@Z ; CLuaBase::CallLuaFunction
; File C:\IAGOS\server\v18\Source\Source\_Common\LuaBase.h

; 33   : 	BOOL		IsNil( int nStackPos )						{  return lua_isnil( m_pLuaState, nStackPos );  }

  00056	6a ff		 push	 -1
  00058	ff 73 0c	 push	 DWORD PTR [ebx+12]
  0005b	e8 00 00 00 00	 call	 _lua_type
  00060	83 c4 08	 add	 esp, 8
  00063	85 c0		 test	 eax, eax
; File C:\IAGOS\server\v18\Source\Source\_Common\EventLua.cpp

; 823  : 		if( m_Lua.IsNil( -1 ) )

  00065	0f 84 0f 01 00
	00		 je	 $LN3@GetKeepCon

; 824  : 		{
; 825  : 			m_Lua.Pop(0);
; 826  : 			return;
; 827  : 		}
; 828  : 		m_mapItemList.clear();

  0006b	8d bb 8c 00 00
	00		 lea	 edi, DWORD PTR [ebx+140]
  00071	8b cf		 mov	 ecx, edi
  00073	e8 00 00 00 00	 call	 ?clear@?$_Tree@V?$_Tmap_traits@KHU?$less@K@std@@V?$allocator@U?$pair@$$CBKH@std@@@2@$0A@@std@@@std@@QAEXXZ ; std::_Tree<std::_Tmap_traits<unsigned long,int,std::less<unsigned long>,std::allocator<std::pair<unsigned long const ,int> >,0> >::clear
; File C:\IAGOS\server\v18\Source\Source\_Common\LuaBase.h

; 40   : 	void		PushNil()									{  lua_pushnil( m_pLuaState );  }

  00078	ff 73 0c	 push	 DWORD PTR [ebx+12]
  0007b	e8 00 00 00 00	 call	 _lua_pushnil

; 46   : 	int			TableLoop( int nStackPos )					{  return lua_next( m_pLuaState, nStackPos );  }	

  00080	6a fe		 push	 -2			; fffffffeH
  00082	ff 73 0c	 push	 DWORD PTR [ebx+12]
  00085	e8 00 00 00 00	 call	 _lua_next
  0008a	83 c4 0c	 add	 esp, 12			; 0000000cH
; File C:\IAGOS\server\v18\Source\Source\_Common\EventLua.cpp

; 830  : 		while( m_Lua.TableLoop(-2) )

  0008d	85 c0		 test	 eax, eax
  0008f	0f 84 e5 00 00
	00		 je	 $LN3@GetKeepCon
$LL2@GetKeepCon:

; 831  : 		{
; 832  : 			DWORD dwItemId = CScript::GetDefineNum( m_Lua.GetFieldToString( -1, "strItemId" ) );

  00095	68 00 00 00 00	 push	 OFFSET ??_C@_09OFFFBNFE@strItemId@
  0009a	6a ff		 push	 -1
  0009c	8b ce		 mov	 ecx, esi
  0009e	e8 00 00 00 00	 call	 ?GetFieldToString@CLuaBase@@QAEPBDHPAD@Z ; CLuaBase::GetFieldToString
  000a3	50		 push	 eax
  000a4	e8 00 00 00 00	 call	 ?GetDefineNum@CScript@@SAHPBD@Z ; CScript::GetDefineNum
  000a9	83 c4 04	 add	 esp, 4
  000ac	89 45 f0	 mov	 DWORD PTR $T6[ebp], eax

; 833  : 			int	nItemNum = (int)m_Lua.GetFieldToNumber( -1, "nItemNum" );

  000af	8b ce		 mov	 ecx, esi
  000b1	68 00 00 00 00	 push	 OFFSET ??_C@_08GDJLCBND@nItemNum@
  000b6	6a ff		 push	 -1
  000b8	e8 00 00 00 00	 call	 ?GetFieldToNumber@CLuaBase@@QAENHPAD@Z ; CLuaBase::GetFieldToNumber
; File C:\Program Files\Microsoft Visual Studio\2022\Professional\VC\Tools\MSVC\14.44.35207\include\utility

; 274  :         : first(_STD forward<_Other1>(_Val1)), second(_STD forward<_Other2>(_Val2)) {

  000bd	8b 45 f0	 mov	 eax, DWORD PTR $T6[ebp]
; File C:\IAGOS\server\v18\Source\Source\_Common\EventLua.cpp

; 833  : 			int	nItemNum = (int)m_Lua.GetFieldToNumber( -1, "nItemNum" );

  000c0	dd 5d e0	 fstp	 QWORD PTR tv670[ebp]
  000c3	f2 0f 2c 4d e0	 cvttsd2si ecx, QWORD PTR tv670[ebp]
; File C:\Program Files\Microsoft Visual Studio\2022\Professional\VC\Tools\MSVC\14.44.35207\include\utility

; 274  :         : first(_STD forward<_Other1>(_Val1)), second(_STD forward<_Other2>(_Val2)) {

  000c8	89 45 e8	 mov	 DWORD PTR $T5[ebp], eax
; File C:\Program Files\Microsoft Visual Studio\2022\Professional\VC\Tools\MSVC\14.44.35207\include\xtree

; 1017 :             _Loc                = _Find_lower_bound(_Keyval);

  000cb	8d 45 e8	 lea	 eax, DWORD PTR $T5[ebp]
  000ce	50		 push	 eax
  000cf	8d 45 c0	 lea	 eax, DWORD PTR $T2[ebp]
  000d2	50		 push	 eax
; File C:\Program Files\Microsoft Visual Studio\2022\Professional\VC\Tools\MSVC\14.44.35207\include\utility

; 274  :         : first(_STD forward<_Other1>(_Val1)), second(_STD forward<_Other2>(_Val2)) {

  000d3	89 4d ec	 mov	 DWORD PTR $T5[ebp+4], ecx
; File C:\Program Files\Microsoft Visual Studio\2022\Professional\VC\Tools\MSVC\14.44.35207\include\xtree

; 1017 :             _Loc                = _Find_lower_bound(_Keyval);

  000d6	8b cf		 mov	 ecx, edi
  000d8	e8 00 00 00 00	 call	 ??$_Find_lower_bound@K@?$_Tree@V?$_Tmap_traits@KHU?$less@K@std@@V?$allocator@U?$pair@$$CBKH@std@@@2@$0A@@std@@@std@@IBE?AU?$_Tree_find_result@PAU?$_Tree_node@U?$pair@$$CBKH@std@@PAX@std@@@1@ABK@Z ; std::_Tree<std::_Tmap_traits<unsigned long,int,std::less<unsigned long>,std::allocator<std::pair<unsigned long const ,int> >,0> >::_Find_lower_bound<unsigned long>
  000dd	8b 48 08	 mov	 ecx, DWORD PTR [eax+8]
  000e0	f3 0f 7e 00	 movq	 xmm0, QWORD PTR [eax]
  000e4	66 0f d6 45 cc	 movq	 QWORD PTR __Loc$3[ebp], xmm0

; 1624 :         return !_Bound->_Isnil && !_DEBUG_LT_PRED(_Getcomp(), _Keyval, _Traits::_Kfn(_Bound->_Myval));

  000e9	80 79 0d 00	 cmp	 BYTE PTR [ecx+13], 0
  000ed	75 08		 jne	 SHORT $LN25@GetKeepCon
; File C:\Program Files\Microsoft Visual Studio\2022\Professional\VC\Tools\MSVC\14.44.35207\include\type_traits

; 2380 :         return _Left < _Right;

  000ef	8b 45 f0	 mov	 eax, DWORD PTR $T6[ebp]
  000f2	3b 41 10	 cmp	 eax, DWORD PTR [ecx+16]
; File C:\Program Files\Microsoft Visual Studio\2022\Professional\VC\Tools\MSVC\14.44.35207\include\xtree

; 1624 :         return !_Bound->_Isnil && !_DEBUG_LT_PRED(_Getcomp(), _Keyval, _Traits::_Kfn(_Bound->_Myval));

  000f5	73 65		 jae	 SHORT $LN100@GetKeepCon
$LN25@GetKeepCon:

; 1648 :         if (max_size() == _Get_scary()->_Mysize) {

  000f7	81 7f 04 aa aa
	aa 0a		 cmp	 DWORD PTR [edi+4], 178956970 ; 0aaaaaaaH
  000fe	0f 84 91 00 00
	00		 je	 $LN117@GetKeepCon

; 1023 :             _Inserted = _Tree_temp_node<_Alnode>(_Getal(), _Scary->_Myhead, _STD forward<_Valtys>(_Vals)...)._Release();

  00104	8b 37		 mov	 esi, DWORD PTR [edi]
; File C:\Program Files\Microsoft Visual Studio\2022\Professional\VC\Tools\MSVC\14.44.35207\include\xmemory

; 1160 :     _CONSTEXPR20 explicit _Alloc_construct_ptr(_Alloc& _Al_) : _Al(_Al_), _Ptr(nullptr) {}

  00106	89 7d d8	 mov	 DWORD PTR $T4[ebp], edi

; 136  :         return ::operator new(_Bytes);

  00109	6a 18		 push	 24			; 00000018H
; File C:\Program Files\Microsoft Visual Studio\2022\Professional\VC\Tools\MSVC\14.44.35207\include\xtree

; 808  :     explicit _Tree_temp_node_alloc(_Alnode& _Al_) : _Alloc_construct_ptr<_Alnode>(_Al_) {

  0010b	c7 45 fc 00 00
	00 00		 mov	 DWORD PTR __$EHRec$[ebp+8], 0
; File C:\Program Files\Microsoft Visual Studio\2022\Professional\VC\Tools\MSVC\14.44.35207\include\xmemory

; 1167 :         _Ptr = nullptr; // if allocate throws, prevents double-free

  00112	c7 45 dc 00 00
	00 00		 mov	 DWORD PTR $T4[ebp+4], 0

; 136  :         return ::operator new(_Bytes);

  00119	e8 00 00 00 00	 call	 ??2@YAPAXI@Z		; operator new
; File C:\Program Files\Microsoft Visual Studio\2022\Professional\VC\Tools\MSVC\14.44.35207\include\xtree

; 830  :         _Alnode_traits::construct(this->_Al, _STD addressof(this->_Ptr->_Myval), _STD forward<_Valtys>(_Vals)...);

  0011e	8b 4d f0	 mov	 ecx, DWORD PTR $T6[ebp]
; File C:\Program Files\Microsoft Visual Studio\2022\Professional\VC\Tools\MSVC\14.44.35207\include\xmemory

; 136  :         return ::operator new(_Bytes);

  00121	83 c4 04	 add	 esp, 4
; File C:\Program Files\Microsoft Visual Studio\2022\Professional\VC\Tools\MSVC\14.44.35207\include\xtree

; 810  :     }

  00124	c7 45 fc ff ff
	ff ff		 mov	 DWORD PTR __$EHRec$[ebp+8], -1
; File C:\Program Files\Microsoft Visual Studio\2022\Professional\VC\Tools\MSVC\14.44.35207\include\utility

; 774  :     _Val         = static_cast<_Other&&>(_New_val);

  0012b	c7 45 dc 00 00
	00 00		 mov	 DWORD PTR $T4[ebp+4], 0
; File C:\Program Files\Microsoft Visual Studio\2022\Professional\VC\Tools\MSVC\14.44.35207\include\xtree

; 830  :         _Alnode_traits::construct(this->_Al, _STD addressof(this->_Ptr->_Myval), _STD forward<_Valtys>(_Vals)...);

  00132	89 48 10	 mov	 DWORD PTR [eax+16], ecx
  00135	f2 0f 2c 4d e0	 cvttsd2si ecx, QWORD PTR tv670[ebp]

; 1042 :         return {_Scary->_Insert_node(_Loc._Location, _Inserted), true};

  0013a	50		 push	 eax
  0013b	ff 75 d0	 push	 DWORD PTR __Loc$3[ebp+4]

; 830  :         _Alnode_traits::construct(this->_Al, _STD addressof(this->_Ptr->_Myval), _STD forward<_Valtys>(_Vals)...);

  0013e	89 48 14	 mov	 DWORD PTR [eax+20], ecx

; 1042 :         return {_Scary->_Insert_node(_Loc._Location, _Inserted), true};

  00141	8b cf		 mov	 ecx, edi
  00143	ff 75 cc	 push	 DWORD PTR __Loc$3[ebp]

; 831  :         _Construct_in_place(this->_Ptr->_Left, _Myhead);

  00146	89 30		 mov	 DWORD PTR [eax], esi

; 832  :         _Construct_in_place(this->_Ptr->_Parent, _Myhead);

  00148	89 70 04	 mov	 DWORD PTR [eax+4], esi

; 833  :         _Construct_in_place(this->_Ptr->_Right, _Myhead);

  0014b	89 70 08	 mov	 DWORD PTR [eax+8], esi

; 834  :         this->_Ptr->_Color = _Red;

  0014e	66 c7 40 0c 00
	00		 mov	 WORD PTR [eax+12], 0

; 1042 :         return {_Scary->_Insert_node(_Loc._Location, _Inserted), true};

  00154	e8 00 00 00 00	 call	 ?_Insert_node@?$_Tree_val@U?$_Tree_simple_types@U?$pair@$$CBKH@std@@@std@@@std@@QAEPAU?$_Tree_node@U?$pair@$$CBKH@std@@PAX@2@U?$_Tree_id@PAU?$_Tree_node@U?$pair@$$CBKH@std@@PAX@std@@@2@QAU32@@Z ; std::_Tree_val<std::_Tree_simple_types<std::pair<unsigned long const ,int> > >::_Insert_node
  00159	8d 73 08	 lea	 esi, DWORD PTR [ebx+8]
$LN100@GetKeepCon:
; File C:\IAGOS\server\v18\Source\Source\_Common\EventLua.cpp

; 835  : 			m_Lua.Pop(1);

  0015c	6a 01		 push	 1
  0015e	8b ce		 mov	 ecx, esi
  00160	e8 00 00 00 00	 call	 ?Pop@CLuaBase@@QAEXH@Z	; CLuaBase::Pop
; File C:\IAGOS\server\v18\Source\Source\_Common\LuaBase.h

; 46   : 	int			TableLoop( int nStackPos )					{  return lua_next( m_pLuaState, nStackPos );  }	

  00165	6a fe		 push	 -2			; fffffffeH
  00167	ff 73 0c	 push	 DWORD PTR [ebx+12]
  0016a	e8 00 00 00 00	 call	 _lua_next
  0016f	83 c4 08	 add	 esp, 8
; File C:\IAGOS\server\v18\Source\Source\_Common\EventLua.cpp

; 830  : 		while( m_Lua.TableLoop(-2) )

  00172	85 c0		 test	 eax, eax
  00174	0f 85 1b ff ff
	ff		 jne	 $LL2@GetKeepCon
$LN3@GetKeepCon:

; 836  : 		}
; 837  : 	}
; 838  : 	m_Lua.Pop(0);

  0017a	6a 00		 push	 0
  0017c	8b ce		 mov	 ecx, esi
  0017e	e8 00 00 00 00	 call	 ?Pop@CLuaBase@@QAEXH@Z	; CLuaBase::Pop
$LN1@GetKeepCon:

; 839  : }

  00183	8b 4d f4	 mov	 ecx, DWORD PTR __$EHRec$[ebp]
  00186	64 89 0d 00 00
	00 00		 mov	 DWORD PTR fs:0, ecx
  0018d	59		 pop	 ecx
  0018e	5f		 pop	 edi
  0018f	5e		 pop	 esi
  00190	5b		 pop	 ebx
  00191	8b e5		 mov	 esp, ebp
  00193	5d		 pop	 ebp
  00194	c3		 ret	 0
$LN117@GetKeepCon:
; File C:\Program Files\Microsoft Visual Studio\2022\Professional\VC\Tools\MSVC\14.44.35207\include\xtree

; 1649 :             _Throw_tree_length_error();

  00195	e8 00 00 00 00	 call	 ?_Throw_tree_length_error@std@@YAXXZ ; std::_Throw_tree_length_error
$LN126@GetKeepCon:
  0019a	cc		 int	 3
_TEXT	ENDS
;	COMDAT text$x
text$x	SEGMENT
__unwindfunclet$?GetKeepConnectItem@CEventLua@@QAEXXZ$2:
  00000	8d 4d d8	 lea	 ecx, DWORD PTR $T4[ebp]
  00003	e9 00 00 00 00	 jmp	 ??1?$_Alloc_construct_ptr@V?$allocator@U?$_Tree_node@U?$pair@$$CBKH@std@@PAX@std@@@std@@@std@@QAE@XZ ; std::_Alloc_construct_ptr<std::allocator<std::_Tree_node<std::pair<unsigned long const ,int>,void *> > >::~_Alloc_construct_ptr<std::allocator<std::_Tree_node<std::pair<unsigned long const ,int>,void *> > >
  00008	cc		 int	 3
  00009	cc		 int	 3
  0000a	cc		 int	 3
  0000b	cc		 int	 3
  0000c	cc		 int	 3
__ehhandler$?GetKeepConnectItem@CEventLua@@QAEXXZ:
  0000d	90		 npad	 1
  0000e	90		 npad	 1
  0000f	8b 54 24 08	 mov	 edx, DWORD PTR [esp+8]
  00013	8d 42 0c	 lea	 eax, DWORD PTR [edx+12]
  00016	8b 4a bc	 mov	 ecx, DWORD PTR [edx-68]
  00019	33 c8		 xor	 ecx, eax
  0001b	e8 00 00 00 00	 call	 @__security_check_cookie@4
  00020	b8 00 00 00 00	 mov	 eax, OFFSET __ehfuncinfo$?GetKeepConnectItem@CEventLua@@QAEXXZ
  00025	e9 00 00 00 00	 jmp	 ___CxxFrameHandler3
text$x	ENDS
?GetKeepConnectItem@CEventLua@@QAEXXZ ENDP		; CEventLua::GetKeepConnectItem
; Function compile flags: /Ogtp
; File C:\IAGOS\server\v18\Source\Source\_Common\EventLua.cpp
; File C:\IAGOS\server\v18\Source\Source\_Common\LuaBase.h
; File C:\IAGOS\server\v18\Source\Source\_Common\EventLua.cpp
;	COMDAT ?GetKeepConnectTime@CEventLua@@QAEKH@Z
_TEXT	SEGMENT
tv143 = -8						; size = 8
_bProxy$ = 8						; size = 4
?GetKeepConnectTime@CEventLua@@QAEKH@Z PROC		; CEventLua::GetKeepConnectTime, COMDAT
; _this$ = ecx

; 797  : {

  00000	55		 push	 ebp
  00001	8b ec		 mov	 ebp, esp
  00003	83 ec 08	 sub	 esp, 8
  00006	56		 push	 esi
  00007	8b f1		 mov	 esi, ecx

; 798  : 	if( !IsPossible() )

  00009	83 7e 04 00	 cmp	 DWORD PTR [esi+4], 0
  0000d	75 09		 jne	 SHORT $LN2@GetKeepCon

; 799  : 		return 0;

  0000f	33 c0		 xor	 eax, eax
  00011	5e		 pop	 esi

; 813  : }

  00012	8b e5		 mov	 esp, ebp
  00014	5d		 pop	 ebp
  00015	c2 04 00	 ret	 4
$LN2@GetKeepCon:

; 800  : 
; 801  : 	if( bProxy )

  00018	83 7d 08 00	 cmp	 DWORD PTR _bProxy$[ebp], 0
  0001c	74 0a		 je	 SHORT $LN3@GetKeepCon

; 802  : 		return m_proxy.GetKeepConnectTime();

  0001e	8b 46 40	 mov	 eax, DWORD PTR [esi+64]
  00021	5e		 pop	 esi

; 813  : }

  00022	8b e5		 mov	 esp, ebp
  00024	5d		 pop	 ebp
  00025	c2 04 00	 ret	 4
$LN3@GetKeepCon:
  00028	53		 push	 ebx
  00029	57		 push	 edi

; 803  : 
; 804  : 	DWORD dwKeepConnect	= 0;
; 805  : 	if( m_Lua.GetLuaFunction( "GetKeepConnectTime" ) )

  0002a	68 00 00 00 00	 push	 OFFSET ??_C@_0BD@DPFKGCHP@GetKeepConnectTime@
  0002f	8d 4e 08	 lea	 ecx, DWORD PTR [esi+8]
  00032	33 db		 xor	 ebx, ebx
  00034	e8 00 00 00 00	 call	 ?GetLuaFunction@CLuaBase@@QAEHPAD@Z ; CLuaBase::GetLuaFunction
  00039	85 c0		 test	 eax, eax
  0003b	74 28		 je	 SHORT $LN4@GetKeepCon

; 806  : 	{
; 807  : 		m_Lua.CallLuaFunction( 0, 1 );

  0003d	6a 01		 push	 1
  0003f	53		 push	 ebx
  00040	8d 4e 08	 lea	 ecx, DWORD PTR [esi+8]
  00043	e8 00 00 00 00	 call	 ?CallLuaFunction@CLuaBase@@QAEXHH@Z ; CLuaBase::CallLuaFunction
; File C:\IAGOS\server\v18\Source\Source\_Common\LuaBase.h

; 43   : 	double		ToNumber( int nStackPos )					{  return lua_tonumber( m_pLuaState, nStackPos );  }

  00048	53		 push	 ebx
  00049	6a ff		 push	 -1
  0004b	ff 76 0c	 push	 DWORD PTR [esi+12]
  0004e	e8 00 00 00 00	 call	 _lua_tonumberx
  00053	83 c4 0c	 add	 esp, 12			; 0000000cH
  00056	dd 5d f8	 fstp	 QWORD PTR tv143[ebp]
; File C:\IAGOS\server\v18\Source\Source\_Common\EventLua.cpp

; 808  : 		dwKeepConnect	= (DWORD)m_Lua.ToNumber( -1 );

  00059	f2 0f 10 45 f8	 movsd	 xmm0, QWORD PTR tv143[ebp]
  0005e	e8 00 00 00 00	 call	 __dtol3
  00063	8b d8		 mov	 ebx, eax
$LN4@GetKeepCon:

; 809  : 	}
; 810  : 	m_Lua.Pop(0);

  00065	6a 00		 push	 0
  00067	8d 4e 08	 lea	 ecx, DWORD PTR [esi+8]
  0006a	e8 00 00 00 00	 call	 ?Pop@CLuaBase@@QAEXH@Z	; CLuaBase::Pop

; 811  : 
; 812  : 	return dwKeepConnect;

  0006f	5f		 pop	 edi
  00070	8b c3		 mov	 eax, ebx
  00072	5b		 pop	 ebx
  00073	5e		 pop	 esi

; 813  : }

  00074	8b e5		 mov	 esp, ebp
  00076	5d		 pop	 ebp
  00077	c2 04 00	 ret	 4
?GetKeepConnectTime@CEventLua@@QAEKH@Z ENDP		; CEventLua::GetKeepConnectTime
_TEXT	ENDS
; Function compile flags: /Ogtp
; File C:\IAGOS\server\v18\Source\Source\_Common\EventLua.cpp
; File C:\IAGOS\server\v18\Source\Source\_Common\Obj.h
; File C:\IAGOS\server\v18\Source\Source\_Common\EventLua.cpp
; File C:\Program Files\Microsoft Visual Studio\2022\Professional\VC\Tools\MSVC\14.44.35207\include\vector
; File C:\IAGOS\server\v18\Source\Source\_Common\EventLua.cpp
; File C:\Program Files\Microsoft Visual Studio\2022\Professional\VC\Tools\MSVC\14.44.35207\include\vector
; File C:\IAGOS\server\v18\Source\Source\_Common\EventLua.cpp
; File C:\Program Files\Microsoft Visual Studio\2022\Professional\VC\Tools\MSVC\14.44.35207\include\vector
; File C:\IAGOS\server\v18\Source\Source\_Common\EventLua.cpp
;	COMDAT ?SetKeepConnectEvent@CEventLua@@QAEXPAVCUser@@K@Z
_TEXT	SEGMENT
_pUser$ = 8						; size = 4
_dwTick$ = 12						; size = 4
?SetKeepConnectEvent@CEventLua@@QAEXPAVCUser@@K@Z PROC	; CEventLua::SetKeepConnectEvent, COMDAT
; _this$ = ecx

; 775  : {

  00000	55		 push	 ebp
  00001	8b ec		 mov	 ebp, esp
  00003	57		 push	 edi
  00004	8b f9		 mov	 edi, ecx

; 776  : 	if( !IsPossible() )

  00006	83 7f 04 00	 cmp	 DWORD PTR [edi+4], 0
  0000a	74 67		 je	 SHORT $LN5@SetKeepCon
  0000c	56		 push	 esi
; File C:\IAGOS\server\v18\Source\Source\_Common\Obj.h

; 327  : 	return pObj && ( pObj->IsDelete() == FALSE ); 

  0000d	8b 75 08	 mov	 esi, DWORD PTR _pUser$[ebp]
  00010	85 f6		 test	 esi, esi
  00012	74 5e		 je	 SHORT $LN28@SetKeepCon

; 180  : 	BOOL			IsDelete()	{ return (m_dwFlags & OBJ_FLAG_DELETE);  }

  00014	f6 46 04 01	 test	 BYTE PTR [esi+4], 1

; 327  : 	return pObj && ( pObj->IsDelete() == FALSE ); 

  00018	75 58		 jne	 SHORT $LN28@SetKeepCon
; File C:\IAGOS\server\v18\Source\Source\_Common\EventLua.cpp

; 782  : 	DWORD dwKeepConnect	= GetKeepConnectTime();

  0001a	6a 01		 push	 1
  0001c	e8 00 00 00 00	 call	 ?GetKeepConnectTime@CEventLua@@QAEKH@Z ; CEventLua::GetKeepConnectTime

; 783  : 	
; 784  : 	if( dwKeepConnect )

  00021	85 c0		 test	 eax, eax
  00023	74 44		 je	 SHORT $LN4@SetKeepCon

; 785  : 	{
; 786  : 		if( dwTick > pUser->m_dwTickKeepConnect + dwKeepConnect )

  00025	8b 8e 24 8f 00
	00		 mov	 ecx, DWORD PTR [esi+36644]
  0002b	03 c8		 add	 ecx, eax
  0002d	8b 45 0c	 mov	 eax, DWORD PTR _dwTick$[ebp]
  00030	3b c1		 cmp	 eax, ecx
  00032	76 3e		 jbe	 SHORT $LN28@SetKeepCon

; 787  : 		{
; 788  : 			pUser->m_dwTickKeepConnect = dwTick;

  00034	89 86 24 8f 00
	00		 mov	 DWORD PTR [esi+36644], eax

; 789  : 			m_vecKeepConnectUser.push_back( pUser->m_idPlayer );

  0003a	8d 8f 80 00 00
	00		 lea	 ecx, DWORD PTR [edi+128]
; File C:\Program Files\Microsoft Visual Studio\2022\Professional\VC\Tools\MSVC\14.44.35207\include\vector

; 844  :         if (_Mylast != _My_data._Myend) {

  00040	8b 51 04	 mov	 edx, DWORD PTR [ecx+4]
; File C:\IAGOS\server\v18\Source\Source\_Common\EventLua.cpp

; 789  : 			m_vecKeepConnectUser.push_back( pUser->m_idPlayer );

  00043	81 c6 34 02 00
	00		 add	 esi, 564		; 00000234H
; File C:\Program Files\Microsoft Visual Studio\2022\Professional\VC\Tools\MSVC\14.44.35207\include\vector

; 844  :         if (_Mylast != _My_data._Myend) {

  00049	3b 51 08	 cmp	 edx, DWORD PTR [ecx+8]
  0004c	74 0e		 je	 SHORT $LN17@SetKeepCon

; 860  :             _STD _Construct_in_place(*_Mylast, _STD forward<_Valty>(_Val)...);

  0004e	8b 06		 mov	 eax, DWORD PTR [esi]
  00050	5e		 pop	 esi
  00051	89 02		 mov	 DWORD PTR [edx], eax

; 861  :         } else {
; 862  :             _ASAN_VECTOR_EXTEND_GUARD(static_cast<size_type>(_Mylast - _My_data._Myfirst) + 1);
; 863  :             _Alty_traits::construct(_Getal(), _Unfancy(_Mylast), _STD forward<_Valty>(_Val)...);
; 864  :             _ASAN_VECTOR_RELEASE_GUARD;
; 865  :         }
; 866  : 
; 867  :         _Orphan_range(_Mylast, _Mylast);
; 868  :         _Ty& _Result = *_Mylast;
; 869  :         ++_Mylast;

  00053	83 41 04 04	 add	 DWORD PTR [ecx+4], 4
  00057	5f		 pop	 edi
; File C:\IAGOS\server\v18\Source\Source\_Common\EventLua.cpp

; 794  : }

  00058	5d		 pop	 ebp
  00059	c2 08 00	 ret	 8
$LN17@SetKeepCon:
; File C:\Program Files\Microsoft Visual Studio\2022\Professional\VC\Tools\MSVC\14.44.35207\include\vector

; 848  :         return *_Emplace_reallocate(_Mylast, _STD forward<_Valty>(_Val)...);

  0005c	56		 push	 esi
  0005d	52		 push	 edx
  0005e	e8 00 00 00 00	 call	 ??$_Emplace_reallocate@ABK@?$vector@KV?$allocator@K@std@@@std@@AAEPAKQAKABK@Z ; std::vector<unsigned long,std::allocator<unsigned long> >::_Emplace_reallocate<unsigned long const &>
  00063	5e		 pop	 esi
  00064	5f		 pop	 edi
; File C:\IAGOS\server\v18\Source\Source\_Common\EventLua.cpp

; 794  : }

  00065	5d		 pop	 ebp
  00066	c2 08 00	 ret	 8
$LN4@SetKeepCon:

; 790  : 		}
; 791  : 	}
; 792  : 	else
; 793  : 		pUser->m_dwTickKeepConnect	= dwTick;

  00069	8b 45 0c	 mov	 eax, DWORD PTR _dwTick$[ebp]
  0006c	89 86 24 8f 00
	00		 mov	 DWORD PTR [esi+36644], eax
$LN28@SetKeepCon:
  00072	5e		 pop	 esi
$LN5@SetKeepCon:
  00073	5f		 pop	 edi

; 794  : }

  00074	5d		 pop	 ebp
  00075	c2 08 00	 ret	 8
?SetKeepConnectEvent@CEventLua@@QAEXPAVCUser@@K@Z ENDP	; CEventLua::SetKeepConnectEvent
_TEXT	ENDS
; Function compile flags: /Ogtp
;	COMDAT ??1?$map@KHU?$less@K@std@@V?$allocator@U?$pair@$$CBKH@std@@@2@@std@@QAE@XZ
_TEXT	SEGMENT
??1?$map@KHU?$less@K@std@@V?$allocator@U?$pair@$$CBKH@std@@@2@@std@@QAE@XZ PROC ; std::map<unsigned long,int,std::less<unsigned long>,std::allocator<std::pair<unsigned long const ,int> > >::~map<unsigned long,int,std::less<unsigned long>,std::allocator<std::pair<unsigned long const ,int> > >, COMDAT
; _this$ = ecx
  00000	e9 00 00 00 00	 jmp	 ??1?$_Tree@V?$_Tmap_traits@KHU?$less@K@std@@V?$allocator@U?$pair@$$CBKH@std@@@2@$0A@@std@@@std@@QAE@XZ ; std::_Tree<std::_Tmap_traits<unsigned long,int,std::less<unsigned long>,std::allocator<std::pair<unsigned long const ,int> >,0> >::~_Tree<std::_Tmap_traits<unsigned long,int,std::less<unsigned long>,std::allocator<std::pair<unsigned long const ,int> >,0> >
??1?$map@KHU?$less@K@std@@V?$allocator@U?$pair@$$CBKH@std@@@2@@std@@QAE@XZ ENDP ; std::map<unsigned long,int,std::less<unsigned long>,std::allocator<std::pair<unsigned long const ,int> > >::~map<unsigned long,int,std::less<unsigned long>,std::allocator<std::pair<unsigned long const ,int> > >
_TEXT	ENDS
; Function compile flags: /Ogtp
; File C:\Program Files\Microsoft Visual Studio\2022\Professional\VC\Tools\MSVC\14.44.35207\include\xtree
;	COMDAT ?_Insert_node@?$_Tree_val@U?$_Tree_simple_types@U?$pair@$$CBKH@std@@@std@@@std@@QAEPAU?$_Tree_node@U?$pair@$$CBKH@std@@PAX@2@U?$_Tree_id@PAU?$_Tree_node@U?$pair@$$CBKH@std@@PAX@std@@@2@QAU32@@Z
_TEXT	SEGMENT
__Head$1$ = -4						; size = 4
__Loc$ = 8						; size = 8
__Newnode$ = 16						; size = 4
?_Insert_node@?$_Tree_val@U?$_Tree_simple_types@U?$pair@$$CBKH@std@@@std@@@std@@QAEPAU?$_Tree_node@U?$pair@$$CBKH@std@@PAX@2@U?$_Tree_id@PAU?$_Tree_node@U?$pair@$$CBKH@std@@PAX@std@@@2@QAU32@@Z PROC ; std::_Tree_val<std::_Tree_simple_types<std::pair<unsigned long const ,int> > >::_Insert_node, COMDAT
; _this$ = ecx

; 669  :     _Nodeptr _Insert_node(const _Tree_id<_Nodeptr> _Loc, const _Nodeptr _Newnode) noexcept {

  00000	55		 push	 ebp
  00001	8b ec		 mov	 ebp, esp
  00003	51		 push	 ecx

; 670  :         ++_Mysize;
; 671  :         const auto _Head  = _Myhead;
; 672  :         _Newnode->_Parent = _Loc._Parent;

  00004	8b 55 08	 mov	 edx, DWORD PTR __Loc$[ebp]
  00007	53		 push	 ebx
  00008	8b d9		 mov	 ebx, ecx
  0000a	57		 push	 edi
  0000b	8b 7d 10	 mov	 edi, DWORD PTR __Newnode$[ebp]
  0000e	8b 03		 mov	 eax, DWORD PTR [ebx]
  00010	ff 43 04	 inc	 DWORD PTR [ebx+4]
  00013	89 45 fc	 mov	 DWORD PTR __Head$1$[ebp], eax
  00016	89 57 04	 mov	 DWORD PTR [edi+4], edx

; 673  :         if (_Loc._Parent == _Head) { // first node in tree, just set head values

  00019	3b d0		 cmp	 edx, eax
  0001b	75 16		 jne	 SHORT $LN5@Insert_nod

; 674  :             _Head->_Left     = _Newnode;

  0001d	89 38		 mov	 DWORD PTR [eax], edi

; 675  :             _Head->_Parent   = _Newnode;

  0001f	89 78 04	 mov	 DWORD PTR [eax+4], edi

; 676  :             _Head->_Right    = _Newnode;

  00022	89 78 08	 mov	 DWORD PTR [eax+8], edi

; 735  :         return _Newnode;
; 736  :     }

  00025	8b c7		 mov	 eax, edi
  00027	c6 47 0c 01	 mov	 BYTE PTR [edi+12], 1
  0002b	5f		 pop	 edi
  0002c	5b		 pop	 ebx
  0002d	8b e5		 mov	 esp, ebp
  0002f	5d		 pop	 ebp
  00030	c2 0c 00	 ret	 12			; 0000000cH
$LN5@Insert_nod:

; 677  :             _Newnode->_Color = _Black; // the root is black
; 678  :             return _Newnode;
; 679  :         }
; 680  : 
; 681  :         _STL_INTERNAL_CHECK(_Loc._Child != _Tree_child::_Unused);
; 682  :         if (_Loc._Child == _Tree_child::_Right) { // add to right of _Loc._Parent

  00033	83 7d 0c 00	 cmp	 DWORD PTR __Loc$[ebp+4], 0
  00037	75 0d		 jne	 SHORT $LN6@Insert_nod

; 683  :             _STL_INTERNAL_CHECK(_Loc._Parent->_Right->_Isnil);
; 684  :             _Loc._Parent->_Right = _Newnode;

  00039	89 7a 08	 mov	 DWORD PTR [edx+8], edi

; 685  :             if (_Loc._Parent == _Head->_Right) { // remember rightmost node

  0003c	3b 50 08	 cmp	 edx, DWORD PTR [eax+8]
  0003f	75 0d		 jne	 SHORT $LN9@Insert_nod

; 686  :                 _Head->_Right = _Newnode;

  00041	89 78 08	 mov	 DWORD PTR [eax+8], edi

; 687  :             }
; 688  :         } else { // add to left of _Loc._Parent

  00044	eb 08		 jmp	 SHORT $LN9@Insert_nod
$LN6@Insert_nod:

; 689  :             _STL_INTERNAL_CHECK(_Loc._Parent->_Left->_Isnil);
; 690  :             _Loc._Parent->_Left = _Newnode;

  00046	89 3a		 mov	 DWORD PTR [edx], edi

; 691  :             if (_Loc._Parent == _Head->_Left) { // remember leftmost node

  00048	3b 10		 cmp	 edx, DWORD PTR [eax]
  0004a	75 02		 jne	 SHORT $LN9@Insert_nod

; 692  :                 _Head->_Left = _Newnode;

  0004c	89 38		 mov	 DWORD PTR [eax], edi
$LN9@Insert_nod:

; 693  :             }
; 694  :         }
; 695  : 
; 696  :         for (_Nodeptr _Pnode = _Newnode; _Pnode->_Parent->_Color == _Red;) {

  0004e	8b 4f 04	 mov	 ecx, DWORD PTR [edi+4]
  00051	8b c7		 mov	 eax, edi
  00053	80 79 0c 00	 cmp	 BYTE PTR [ecx+12], 0
  00057	0f 85 7d 01 00
	00		 jne	 $LN3@Insert_nod
  0005d	56		 push	 esi
  0005e	66 90		 npad	 2
$LL4@Insert_nod:

; 697  :             if (_Pnode->_Parent == _Pnode->_Parent->_Parent->_Left) { // fixup red-red in left subtree

  00060	8b 50 04	 mov	 edx, DWORD PTR [eax+4]
  00063	8b 72 04	 mov	 esi, DWORD PTR [edx+4]
  00066	8b 0e		 mov	 ecx, DWORD PTR [esi]
  00068	3b d1		 cmp	 edx, ecx
  0006a	0f 85 aa 00 00
	00		 jne	 $LN10@Insert_nod

; 698  :                 const auto _Parent_sibling = _Pnode->_Parent->_Parent->_Right;

  00070	8b 4e 08	 mov	 ecx, DWORD PTR [esi+8]

; 699  :                 if (_Parent_sibling->_Color == _Red) { // parent's sibling has two red children, blacken both

  00073	80 79 0c 00	 cmp	 BYTE PTR [ecx+12], 0
  00077	0f 84 a3 00 00
	00		 je	 $LN82@Insert_nod

; 700  :                     _Pnode->_Parent->_Color          = _Black;
; 701  :                     _Parent_sibling->_Color          = _Black;
; 702  :                     _Pnode->_Parent->_Parent->_Color = _Red;
; 703  :                     _Pnode                           = _Pnode->_Parent->_Parent;
; 704  :                 } else { // parent's sibling has red and black children
; 705  :                     if (_Pnode == _Pnode->_Parent->_Right) { // rotate right child to left

  0007d	8b 72 08	 mov	 esi, DWORD PTR [edx+8]
  00080	3b c6		 cmp	 eax, esi
  00082	75 37		 jne	 SHORT $LN57@Insert_nod

; 485  :         _Wherenode->_Right = _Pnode->_Left;

  00084	8b 0e		 mov	 ecx, DWORD PTR [esi]

; 706  :                         _Pnode = _Pnode->_Parent;

  00086	8b c2		 mov	 eax, edx

; 485  :         _Wherenode->_Right = _Pnode->_Left;

  00088	89 4a 08	 mov	 DWORD PTR [edx+8], ecx

; 486  : 
; 487  :         if (!_Pnode->_Left->_Isnil) {

  0008b	8b 0e		 mov	 ecx, DWORD PTR [esi]
  0008d	80 79 0d 00	 cmp	 BYTE PTR [ecx+13], 0
  00091	75 03		 jne	 SHORT $LN21@Insert_nod

; 488  :             _Pnode->_Left->_Parent = _Wherenode;

  00093	89 41 04	 mov	 DWORD PTR [ecx+4], eax
$LN21@Insert_nod:

; 489  :         }
; 490  : 
; 491  :         _Pnode->_Parent = _Wherenode->_Parent;

  00096	8b 4a 04	 mov	 ecx, DWORD PTR [edx+4]
  00099	89 4e 04	 mov	 DWORD PTR [esi+4], ecx

; 492  : 
; 493  :         if (_Wherenode == _Myhead->_Parent) {

  0009c	8b 0b		 mov	 ecx, DWORD PTR [ebx]
  0009e	3b 41 04	 cmp	 eax, DWORD PTR [ecx+4]
  000a1	75 05		 jne	 SHORT $LN22@Insert_nod

; 494  :             _Myhead->_Parent = _Pnode;

  000a3	89 71 04	 mov	 DWORD PTR [ecx+4], esi
  000a6	eb 0e		 jmp	 SHORT $LN25@Insert_nod
$LN22@Insert_nod:

; 495  :         } else if (_Wherenode == _Wherenode->_Parent->_Left) {

  000a8	8b 4a 04	 mov	 ecx, DWORD PTR [edx+4]
  000ab	3b 01		 cmp	 eax, DWORD PTR [ecx]
  000ad	75 04		 jne	 SHORT $LN24@Insert_nod

; 496  :             _Wherenode->_Parent->_Left = _Pnode;

  000af	89 31		 mov	 DWORD PTR [ecx], esi

; 497  :         } else {

  000b1	eb 03		 jmp	 SHORT $LN25@Insert_nod
$LN24@Insert_nod:

; 498  :             _Wherenode->_Parent->_Right = _Pnode;

  000b3	89 71 08	 mov	 DWORD PTR [ecx+8], esi
$LN25@Insert_nod:

; 499  :         }
; 500  : 
; 501  :         _Pnode->_Left       = _Wherenode;

  000b6	89 06		 mov	 DWORD PTR [esi], eax

; 502  :         _Wherenode->_Parent = _Pnode;

  000b8	89 70 04	 mov	 DWORD PTR [eax+4], esi
$LN57@Insert_nod:

; 707  :                         _Lrotate(_Pnode);
; 708  :                     }
; 709  : 
; 710  :                     _Pnode->_Parent->_Color          = _Black; // propagate red up

  000bb	8b 48 04	 mov	 ecx, DWORD PTR [eax+4]
  000be	c6 41 0c 01	 mov	 BYTE PTR [ecx+12], 1

; 711  :                     _Pnode->_Parent->_Parent->_Color = _Red;

  000c2	8b 48 04	 mov	 ecx, DWORD PTR [eax+4]
  000c5	8b 49 04	 mov	 ecx, DWORD PTR [ecx+4]
  000c8	c6 41 0c 00	 mov	 BYTE PTR [ecx+12], 0

; 712  :                     _Rrotate(_Pnode->_Parent->_Parent);

  000cc	8b 48 04	 mov	 ecx, DWORD PTR [eax+4]
  000cf	8b 51 04	 mov	 edx, DWORD PTR [ecx+4]

; 506  :         _Nodeptr _Pnode   = _Wherenode->_Left;

  000d2	8b 32		 mov	 esi, DWORD PTR [edx]

; 507  :         _Wherenode->_Left = _Pnode->_Right;

  000d4	8b 4e 08	 mov	 ecx, DWORD PTR [esi+8]
  000d7	89 0a		 mov	 DWORD PTR [edx], ecx

; 508  : 
; 509  :         if (!_Pnode->_Right->_Isnil) {

  000d9	8b 4e 08	 mov	 ecx, DWORD PTR [esi+8]
  000dc	80 79 0d 00	 cmp	 BYTE PTR [ecx+13], 0
  000e0	75 03		 jne	 SHORT $LN29@Insert_nod

; 510  :             _Pnode->_Right->_Parent = _Wherenode;

  000e2	89 51 04	 mov	 DWORD PTR [ecx+4], edx
$LN29@Insert_nod:

; 511  :         }
; 512  : 
; 513  :         _Pnode->_Parent = _Wherenode->_Parent;

  000e5	8b 4a 04	 mov	 ecx, DWORD PTR [edx+4]
  000e8	89 4e 04	 mov	 DWORD PTR [esi+4], ecx

; 514  : 
; 515  :         if (_Wherenode == _Myhead->_Parent) {

  000eb	8b 0b		 mov	 ecx, DWORD PTR [ebx]
  000ed	3b 51 04	 cmp	 edx, DWORD PTR [ecx+4]
  000f0	75 0b		 jne	 SHORT $LN30@Insert_nod

; 516  :             _Myhead->_Parent = _Pnode;

  000f2	89 71 04	 mov	 DWORD PTR [ecx+4], esi

; 521  :         }
; 522  : 
; 523  :         _Pnode->_Right      = _Wherenode;

  000f5	89 56 08	 mov	 DWORD PTR [esi+8], edx

; 713  :                 }
; 714  :             } else { // fixup red-red in right subtree

  000f8	e9 cc 00 00 00	 jmp	 $LN81@Insert_nod
$LN30@Insert_nod:

; 517  :         } else if (_Wherenode == _Wherenode->_Parent->_Right) {

  000fd	8b 4a 04	 mov	 ecx, DWORD PTR [edx+4]
  00100	3b 51 08	 cmp	 edx, DWORD PTR [ecx+8]
  00103	75 0b		 jne	 SHORT $LN32@Insert_nod

; 518  :             _Wherenode->_Parent->_Right = _Pnode;

  00105	89 71 08	 mov	 DWORD PTR [ecx+8], esi

; 521  :         }
; 522  : 
; 523  :         _Pnode->_Right      = _Wherenode;

  00108	89 56 08	 mov	 DWORD PTR [esi+8], edx

; 713  :                 }
; 714  :             } else { // fixup red-red in right subtree

  0010b	e9 b9 00 00 00	 jmp	 $LN81@Insert_nod
$LN32@Insert_nod:

; 520  :             _Wherenode->_Parent->_Left = _Pnode;

  00110	89 31		 mov	 DWORD PTR [ecx], esi

; 521  :         }
; 522  : 
; 523  :         _Pnode->_Right      = _Wherenode;

  00112	89 56 08	 mov	 DWORD PTR [esi+8], edx

; 713  :                 }
; 714  :             } else { // fixup red-red in right subtree

  00115	e9 af 00 00 00	 jmp	 $LN81@Insert_nod
$LN10@Insert_nod:

; 715  :                 const auto _Parent_sibling = _Pnode->_Parent->_Parent->_Left;
; 716  :                 if (_Parent_sibling->_Color == _Red) { // parent's sibling has two red children, blacken both

  0011a	80 79 0c 00	 cmp	 BYTE PTR [ecx+12], 0
  0011e	75 1d		 jne	 SHORT $LN15@Insert_nod
$LN82@Insert_nod:

; 693  :             }
; 694  :         }
; 695  : 
; 696  :         for (_Nodeptr _Pnode = _Newnode; _Pnode->_Parent->_Color == _Red;) {

  00120	c6 42 0c 01	 mov	 BYTE PTR [edx+12], 1
  00124	c6 41 0c 01	 mov	 BYTE PTR [ecx+12], 1
  00128	8b 48 04	 mov	 ecx, DWORD PTR [eax+4]
  0012b	8b 49 04	 mov	 ecx, DWORD PTR [ecx+4]
  0012e	c6 41 0c 00	 mov	 BYTE PTR [ecx+12], 0
  00132	8b 48 04	 mov	 ecx, DWORD PTR [eax+4]
  00135	8b 41 04	 mov	 eax, DWORD PTR [ecx+4]
  00138	e9 8f 00 00 00	 jmp	 $LN2@Insert_nod
$LN15@Insert_nod:

; 717  :                     _Pnode->_Parent->_Color          = _Black;
; 718  :                     _Parent_sibling->_Color          = _Black;
; 719  :                     _Pnode->_Parent->_Parent->_Color = _Red;
; 720  :                     _Pnode                           = _Pnode->_Parent->_Parent;
; 721  :                 } else { // parent's sibling has red and black children
; 722  :                     if (_Pnode == _Pnode->_Parent->_Left) { // rotate left child to right

  0013d	8b 32		 mov	 esi, DWORD PTR [edx]
  0013f	3b c6		 cmp	 eax, esi
  00141	75 3a		 jne	 SHORT $LN42@Insert_nod

; 507  :         _Wherenode->_Left = _Pnode->_Right;

  00143	8b 4e 08	 mov	 ecx, DWORD PTR [esi+8]

; 723  :                         _Pnode = _Pnode->_Parent;

  00146	8b c2		 mov	 eax, edx

; 507  :         _Wherenode->_Left = _Pnode->_Right;

  00148	89 08		 mov	 DWORD PTR [eax], ecx

; 508  : 
; 509  :         if (!_Pnode->_Right->_Isnil) {

  0014a	8b 4e 08	 mov	 ecx, DWORD PTR [esi+8]
  0014d	80 79 0d 00	 cmp	 BYTE PTR [ecx+13], 0
  00151	75 03		 jne	 SHORT $LN37@Insert_nod

; 510  :             _Pnode->_Right->_Parent = _Wherenode;

  00153	89 41 04	 mov	 DWORD PTR [ecx+4], eax
$LN37@Insert_nod:

; 511  :         }
; 512  : 
; 513  :         _Pnode->_Parent = _Wherenode->_Parent;

  00156	8b 4a 04	 mov	 ecx, DWORD PTR [edx+4]
  00159	89 4e 04	 mov	 DWORD PTR [esi+4], ecx

; 514  : 
; 515  :         if (_Wherenode == _Myhead->_Parent) {

  0015c	8b 0b		 mov	 ecx, DWORD PTR [ebx]
  0015e	3b 41 04	 cmp	 eax, DWORD PTR [ecx+4]
  00161	75 05		 jne	 SHORT $LN38@Insert_nod

; 516  :             _Myhead->_Parent = _Pnode;

  00163	89 71 04	 mov	 DWORD PTR [ecx+4], esi
  00166	eb 0f		 jmp	 SHORT $LN41@Insert_nod
$LN38@Insert_nod:

; 517  :         } else if (_Wherenode == _Wherenode->_Parent->_Right) {

  00168	8b 4a 04	 mov	 ecx, DWORD PTR [edx+4]
  0016b	3b 41 08	 cmp	 eax, DWORD PTR [ecx+8]
  0016e	75 05		 jne	 SHORT $LN40@Insert_nod

; 518  :             _Wherenode->_Parent->_Right = _Pnode;

  00170	89 71 08	 mov	 DWORD PTR [ecx+8], esi

; 519  :         } else {

  00173	eb 02		 jmp	 SHORT $LN41@Insert_nod
$LN40@Insert_nod:

; 520  :             _Wherenode->_Parent->_Left = _Pnode;

  00175	89 31		 mov	 DWORD PTR [ecx], esi
$LN41@Insert_nod:

; 521  :         }
; 522  : 
; 523  :         _Pnode->_Right      = _Wherenode;

  00177	89 46 08	 mov	 DWORD PTR [esi+8], eax

; 524  :         _Wherenode->_Parent = _Pnode;

  0017a	89 70 04	 mov	 DWORD PTR [eax+4], esi
$LN42@Insert_nod:

; 724  :                         _Rrotate(_Pnode);
; 725  :                     }
; 726  : 
; 727  :                     _Pnode->_Parent->_Color          = _Black; // propagate red up

  0017d	8b 48 04	 mov	 ecx, DWORD PTR [eax+4]
  00180	c6 41 0c 01	 mov	 BYTE PTR [ecx+12], 1

; 728  :                     _Pnode->_Parent->_Parent->_Color = _Red;

  00184	8b 48 04	 mov	 ecx, DWORD PTR [eax+4]
  00187	8b 49 04	 mov	 ecx, DWORD PTR [ecx+4]
  0018a	c6 41 0c 00	 mov	 BYTE PTR [ecx+12], 0

; 729  :                     _Lrotate(_Pnode->_Parent->_Parent);

  0018e	8b 48 04	 mov	 ecx, DWORD PTR [eax+4]
  00191	8b 51 04	 mov	 edx, DWORD PTR [ecx+4]

; 484  :         _Nodeptr _Pnode    = _Wherenode->_Right;

  00194	8b 72 08	 mov	 esi, DWORD PTR [edx+8]

; 485  :         _Wherenode->_Right = _Pnode->_Left;

  00197	8b 0e		 mov	 ecx, DWORD PTR [esi]
  00199	89 4a 08	 mov	 DWORD PTR [edx+8], ecx

; 486  : 
; 487  :         if (!_Pnode->_Left->_Isnil) {

  0019c	8b 0e		 mov	 ecx, DWORD PTR [esi]
  0019e	80 79 0d 00	 cmp	 BYTE PTR [ecx+13], 0
  001a2	75 03		 jne	 SHORT $LN45@Insert_nod

; 488  :             _Pnode->_Left->_Parent = _Wherenode;

  001a4	89 51 04	 mov	 DWORD PTR [ecx+4], edx
$LN45@Insert_nod:

; 489  :         }
; 490  : 
; 491  :         _Pnode->_Parent = _Wherenode->_Parent;

  001a7	8b 4a 04	 mov	 ecx, DWORD PTR [edx+4]
  001aa	89 4e 04	 mov	 DWORD PTR [esi+4], ecx

; 492  : 
; 493  :         if (_Wherenode == _Myhead->_Parent) {

  001ad	8b 0b		 mov	 ecx, DWORD PTR [ebx]
  001af	3b 51 04	 cmp	 edx, DWORD PTR [ecx+4]
  001b2	75 05		 jne	 SHORT $LN46@Insert_nod

; 494  :             _Myhead->_Parent = _Pnode;

  001b4	89 71 04	 mov	 DWORD PTR [ecx+4], esi
  001b7	eb 0e		 jmp	 SHORT $LN49@Insert_nod
$LN46@Insert_nod:

; 495  :         } else if (_Wherenode == _Wherenode->_Parent->_Left) {

  001b9	8b 4a 04	 mov	 ecx, DWORD PTR [edx+4]
  001bc	3b 11		 cmp	 edx, DWORD PTR [ecx]
  001be	75 04		 jne	 SHORT $LN48@Insert_nod

; 496  :             _Wherenode->_Parent->_Left = _Pnode;

  001c0	89 31		 mov	 DWORD PTR [ecx], esi

; 497  :         } else {

  001c2	eb 03		 jmp	 SHORT $LN49@Insert_nod
$LN48@Insert_nod:

; 498  :             _Wherenode->_Parent->_Right = _Pnode;

  001c4	89 71 08	 mov	 DWORD PTR [ecx+8], esi
$LN49@Insert_nod:

; 499  :         }
; 500  : 
; 501  :         _Pnode->_Left       = _Wherenode;

  001c7	89 16		 mov	 DWORD PTR [esi], edx
$LN81@Insert_nod:

; 693  :             }
; 694  :         }
; 695  : 
; 696  :         for (_Nodeptr _Pnode = _Newnode; _Pnode->_Parent->_Color == _Red;) {

  001c9	89 72 04	 mov	 DWORD PTR [edx+4], esi
$LN2@Insert_nod:
  001cc	8b 48 04	 mov	 ecx, DWORD PTR [eax+4]
  001cf	80 79 0c 00	 cmp	 BYTE PTR [ecx+12], 0
  001d3	0f 84 87 fe ff
	ff		 je	 $LL4@Insert_nod
  001d9	5e		 pop	 esi
$LN3@Insert_nod:

; 730  :                 }
; 731  :             }
; 732  :         }
; 733  : 
; 734  :         _Head->_Parent->_Color = _Black; // root is always black

  001da	8b 45 fc	 mov	 eax, DWORD PTR __Head$1$[ebp]
  001dd	8b 40 04	 mov	 eax, DWORD PTR [eax+4]
  001e0	c6 40 0c 01	 mov	 BYTE PTR [eax+12], 1

; 735  :         return _Newnode;
; 736  :     }

  001e4	8b c7		 mov	 eax, edi
  001e6	5f		 pop	 edi
  001e7	5b		 pop	 ebx
  001e8	8b e5		 mov	 esp, ebp
  001ea	5d		 pop	 ebp
  001eb	c2 0c 00	 ret	 12			; 0000000cH
?_Insert_node@?$_Tree_val@U?$_Tree_simple_types@U?$pair@$$CBKH@std@@@std@@@std@@QAEPAU?$_Tree_node@U?$pair@$$CBKH@std@@PAX@2@U?$_Tree_id@PAU?$_Tree_node@U?$pair@$$CBKH@std@@PAX@std@@@2@QAU32@@Z ENDP ; std::_Tree_val<std::_Tree_simple_types<std::pair<unsigned long const ,int> > >::_Insert_node
_TEXT	ENDS
; Function compile flags: /Ogtp
; File C:\Program Files\Microsoft Visual Studio\2022\Professional\VC\Tools\MSVC\14.44.35207\include\xtree
; File C:\Program Files\Microsoft Visual Studio\2022\Professional\VC\Tools\MSVC\14.44.35207\include\utility
; File C:\Program Files\Microsoft Visual Studio\2022\Professional\VC\Tools\MSVC\14.44.35207\include\xmemory
; File C:\Program Files\Microsoft Visual Studio\2022\Professional\VC\Tools\MSVC\14.44.35207\include\xtree
;	COMDAT ?clear@?$_Tree@V?$_Tmap_traits@KHU?$less@K@std@@V?$allocator@U?$pair@$$CBKH@std@@@2@$0A@@std@@@std@@QAEXXZ
_TEXT	SEGMENT
?clear@?$_Tree@V?$_Tmap_traits@KHU?$less@K@std@@V?$allocator@U?$pair@$$CBKH@std@@@2@$0A@@std@@@std@@QAEXXZ PROC ; std::_Tree<std::_Tmap_traits<unsigned long,int,std::less<unsigned long>,std::allocator<std::pair<unsigned long const ,int> >,0> >::clear, COMDAT
; _this$ = ecx

; 1370 :     void clear() noexcept {

  00000	53		 push	 ebx
  00001	8b d9		 mov	 ebx, ecx
  00003	56		 push	 esi
  00004	57		 push	 edi

; 1371 :         const auto _Scary = _Get_scary();
; 1372 :         _Scary->_Orphan_ptr(nullptr);
; 1373 :         auto _Head = _Scary->_Myhead;

  00005	8b 3b		 mov	 edi, DWORD PTR [ebx]

; 1374 :         _Scary->_Erase_tree(_Getal(), _Head->_Parent);

  00007	8b 77 04	 mov	 esi, DWORD PTR [edi+4]

; 768  :         while (!_Rootnode->_Isnil) { // free subtrees, then node

  0000a	80 7e 0d 00	 cmp	 BYTE PTR [esi+13], 0
  0000e	75 20		 jne	 SHORT $LN38@clear
$LL5@clear:

; 769  :             _Erase_tree(_Al, _Rootnode->_Right);

  00010	ff 76 08	 push	 DWORD PTR [esi+8]
  00013	8b cb		 mov	 ecx, ebx
  00015	53		 push	 ebx
  00016	e8 00 00 00 00	 call	 ??$_Erase_tree@V?$allocator@U?$_Tree_node@U?$pair@$$CBKH@std@@PAX@std@@@std@@@?$_Tree_val@U?$_Tree_simple_types@U?$pair@$$CBKH@std@@@std@@@std@@QAEXAAV?$allocator@U?$_Tree_node@U?$pair@$$CBKH@std@@PAX@std@@@1@PAU?$_Tree_node@U?$pair@$$CBKH@std@@PAX@1@@Z ; std::_Tree_val<std::_Tree_simple_types<std::pair<unsigned long const ,int> > >::_Erase_tree<std::allocator<std::_Tree_node<std::pair<unsigned long const ,int>,void *> > >
; File C:\Program Files\Microsoft Visual Studio\2022\Professional\VC\Tools\MSVC\14.44.35207\include\utility

; 773  :     _Ty _Old_val = static_cast<_Ty&&>(_Val);

  0001b	8b c6		 mov	 eax, esi

; 774  :     _Val         = static_cast<_Other&&>(_New_val);

  0001d	8b 36		 mov	 esi, DWORD PTR [esi]
; File C:\Program Files\Microsoft Visual Studio\2022\Professional\VC\Tools\MSVC\14.44.35207\include\xmemory

; 289  :         ::operator delete(_Ptr, _Bytes);

  0001f	6a 18		 push	 24			; 00000018H
  00021	50		 push	 eax
  00022	e8 00 00 00 00	 call	 ??3@YAXPAXI@Z		; operator delete
  00027	83 c4 08	 add	 esp, 8
; File C:\Program Files\Microsoft Visual Studio\2022\Professional\VC\Tools\MSVC\14.44.35207\include\xtree

; 768  :         while (!_Rootnode->_Isnil) { // free subtrees, then node

  0002a	80 7e 0d 00	 cmp	 BYTE PTR [esi+13], 0
  0002e	74 e0		 je	 SHORT $LL5@clear
$LN38@clear:

; 1375 :         _Head->_Parent  = _Head;

  00030	89 7f 04	 mov	 DWORD PTR [edi+4], edi

; 1376 :         _Head->_Left    = _Head;

  00033	89 3f		 mov	 DWORD PTR [edi], edi

; 1377 :         _Head->_Right   = _Head;

  00035	89 7f 08	 mov	 DWORD PTR [edi+8], edi

; 1378 :         _Scary->_Mysize = 0;

  00038	5f		 pop	 edi
  00039	5e		 pop	 esi
  0003a	c7 43 04 00 00
	00 00		 mov	 DWORD PTR [ebx+4], 0
  00041	5b		 pop	 ebx

; 1379 :     }

  00042	c3		 ret	 0
?clear@?$_Tree@V?$_Tmap_traits@KHU?$less@K@std@@V?$allocator@U?$pair@$$CBKH@std@@@2@$0A@@std@@@std@@QAEXXZ ENDP ; std::_Tree<std::_Tmap_traits<unsigned long,int,std::less<unsigned long>,std::allocator<std::pair<unsigned long const ,int> >,0> >::clear
_TEXT	ENDS
; Function compile flags: /Ogtp
; File C:\Program Files\Microsoft Visual Studio\2022\Professional\VC\Tools\MSVC\14.44.35207\include\xtree
; File C:\Program Files\Microsoft Visual Studio\2022\Professional\VC\Tools\MSVC\14.44.35207\include\utility
; File C:\Program Files\Microsoft Visual Studio\2022\Professional\VC\Tools\MSVC\14.44.35207\include\xmemory
; File C:\Program Files\Microsoft Visual Studio\2022\Professional\VC\Tools\MSVC\14.44.35207\include\xtree
; File C:\Program Files\Microsoft Visual Studio\2022\Professional\VC\Tools\MSVC\14.44.35207\include\xmemory
; File C:\Program Files\Microsoft Visual Studio\2022\Professional\VC\Tools\MSVC\14.44.35207\include\xtree
;	COMDAT ??1?$_Tree@V?$_Tmap_traits@KHU?$less@K@std@@V?$allocator@U?$pair@$$CBKH@std@@@2@$0A@@std@@@std@@QAE@XZ
_TEXT	SEGMENT
??1?$_Tree@V?$_Tmap_traits@KHU?$less@K@std@@V?$allocator@U?$pair@$$CBKH@std@@@2@$0A@@std@@@std@@QAE@XZ PROC ; std::_Tree<std::_Tmap_traits<unsigned long,int,std::less<unsigned long>,std::allocator<std::pair<unsigned long const ,int> >,0> >::~_Tree<std::_Tmap_traits<unsigned long,int,std::less<unsigned long>,std::allocator<std::pair<unsigned long const ,int> >,0> >, COMDAT
; _this$ = ecx

; 1095 :     ~_Tree() noexcept {

  00000	56		 push	 esi
  00001	57		 push	 edi
  00002	8b f9		 mov	 edi, ecx

; 777  :         _Erase_tree(_Al, _Myhead->_Parent);

  00004	8b 37		 mov	 esi, DWORD PTR [edi]
  00006	8b 76 04	 mov	 esi, DWORD PTR [esi+4]

; 768  :         while (!_Rootnode->_Isnil) { // free subtrees, then node

  00009	80 7e 0d 00	 cmp	 BYTE PTR [esi+13], 0
  0000d	75 21		 jne	 SHORT $LN61@Tree
  0000f	90		 npad	 1
$LL8@Tree:

; 769  :             _Erase_tree(_Al, _Rootnode->_Right);

  00010	ff 76 08	 push	 DWORD PTR [esi+8]
  00013	8b cf		 mov	 ecx, edi
  00015	57		 push	 edi
  00016	e8 00 00 00 00	 call	 ??$_Erase_tree@V?$allocator@U?$_Tree_node@U?$pair@$$CBKH@std@@PAX@std@@@std@@@?$_Tree_val@U?$_Tree_simple_types@U?$pair@$$CBKH@std@@@std@@@std@@QAEXAAV?$allocator@U?$_Tree_node@U?$pair@$$CBKH@std@@PAX@std@@@1@PAU?$_Tree_node@U?$pair@$$CBKH@std@@PAX@1@@Z ; std::_Tree_val<std::_Tree_simple_types<std::pair<unsigned long const ,int> > >::_Erase_tree<std::allocator<std::_Tree_node<std::pair<unsigned long const ,int>,void *> > >
; File C:\Program Files\Microsoft Visual Studio\2022\Professional\VC\Tools\MSVC\14.44.35207\include\utility

; 773  :     _Ty _Old_val = static_cast<_Ty&&>(_Val);

  0001b	8b c6		 mov	 eax, esi

; 774  :     _Val         = static_cast<_Other&&>(_New_val);

  0001d	8b 36		 mov	 esi, DWORD PTR [esi]
; File C:\Program Files\Microsoft Visual Studio\2022\Professional\VC\Tools\MSVC\14.44.35207\include\xmemory

; 289  :         ::operator delete(_Ptr, _Bytes);

  0001f	6a 18		 push	 24			; 00000018H
  00021	50		 push	 eax
  00022	e8 00 00 00 00	 call	 ??3@YAXPAXI@Z		; operator delete
  00027	83 c4 08	 add	 esp, 8
; File C:\Program Files\Microsoft Visual Studio\2022\Professional\VC\Tools\MSVC\14.44.35207\include\xtree

; 768  :         while (!_Rootnode->_Isnil) { // free subtrees, then node

  0002a	80 7e 0d 00	 cmp	 BYTE PTR [esi+13], 0
  0002e	74 e0		 je	 SHORT $LL8@Tree
$LN61@Tree:
; File C:\Program Files\Microsoft Visual Studio\2022\Professional\VC\Tools\MSVC\14.44.35207\include\xmemory

; 289  :         ::operator delete(_Ptr, _Bytes);

  00030	6a 18		 push	 24			; 00000018H
  00032	ff 37		 push	 DWORD PTR [edi]
  00034	e8 00 00 00 00	 call	 ??3@YAXPAXI@Z		; operator delete
  00039	83 c4 08	 add	 esp, 8
  0003c	5f		 pop	 edi
  0003d	5e		 pop	 esi
; File C:\Program Files\Microsoft Visual Studio\2022\Professional\VC\Tools\MSVC\14.44.35207\include\xtree

; 1102 :     }

  0003e	c3		 ret	 0
??1?$_Tree@V?$_Tmap_traits@KHU?$less@K@std@@V?$allocator@U?$pair@$$CBKH@std@@@2@$0A@@std@@@std@@QAE@XZ ENDP ; std::_Tree<std::_Tmap_traits<unsigned long,int,std::less<unsigned long>,std::allocator<std::pair<unsigned long const ,int> >,0> >::~_Tree<std::_Tmap_traits<unsigned long,int,std::less<unsigned long>,std::allocator<std::pair<unsigned long const ,int> >,0> >
_TEXT	ENDS
; Function compile flags: /Ogtp
; File C:\IAGOS\server\v18\Source\Source\_Common\EventLua.cpp
; File C:\Program Files\Microsoft Visual Studio\2022\Professional\VC\Tools\MSVC\14.44.35207\include\vector
; File C:\IAGOS\server\v18\Source\Source\_Common\EventLua.cpp
; File C:\Program Files\Microsoft Visual Studio\2022\Professional\VC\Tools\MSVC\14.44.35207\include\xtree
; File C:\IAGOS\server\v18\Source\Source\_Common\EventLua.cpp
; File C:\Program Files\Microsoft Visual Studio\2022\Professional\VC\Tools\MSVC\14.44.35207\include\xtree
; File C:\IAGOS\server\v18\Source\Source\_Common\EventLua.cpp
; File C:\IAGOS\server\v18\Source\Source\_Common\Obj.h
; File C:\IAGOS\server\v18\Source\Source\_Common\EventLua.cpp
; File C:\Program Files\Microsoft Visual Studio\2022\Professional\VC\Tools\MSVC\14.44.35207\include\xtree
; File C:\IAGOS\server\v18\Source\Source\_Common\EventLua.cpp
; File C:\Program Files\Microsoft Visual Studio\2022\Professional\VC\Tools\MSVC\14.44.35207\include\xtree
; File C:\Program Files\Microsoft Visual Studio\2022\Professional\VC\Tools\MSVC\14.44.35207\include\xmemory
; File C:\Program Files\Microsoft Visual Studio\2022\Professional\VC\Tools\MSVC\14.44.35207\include\vector
; File C:\IAGOS\server\v18\Source\Source\_Common\EventLua.cpp
; File C:\Program Files\Microsoft Visual Studio\2022\Professional\VC\Tools\MSVC\14.44.35207\include\xmemory
; File C:\IAGOS\server\v18\Source\Source\_Common\EventLua.cpp
; File C:\Program Files\Microsoft Visual Studio\2022\Professional\VC\Tools\MSVC\14.44.35207\include\vector
; File C:\IAGOS\server\v18\Source\Source\_Common\EventLua.cpp
; File C:\Program Files\Microsoft Visual Studio\2022\Professional\VC\Tools\MSVC\14.44.35207\include\xtree
; File C:\IAGOS\server\v18\Source\Source\_Common\EventLua.cpp
; File C:\Program Files\Microsoft Visual Studio\2022\Professional\VC\Tools\MSVC\14.44.35207\include\vector
; File C:\Program Files\Microsoft Visual Studio\2022\Professional\VC\Tools\MSVC\14.44.35207\include\xtree
; File C:\IAGOS\server\v18\Source\Source\_Common\EventLua.cpp
; File C:\Program Files\Microsoft Visual Studio\2022\Professional\VC\Tools\MSVC\14.44.35207\include\xtree
; File C:\Program Files\Microsoft Visual Studio\2022\Professional\VC\Tools\MSVC\14.44.35207\include\xmemory
; File C:\IAGOS\server\v18\Source\Source\_Common\EventLua.cpp
; File C:\Program Files\Microsoft Visual Studio\2022\Professional\VC\Tools\MSVC\14.44.35207\include\xtree
; File C:\IAGOS\server\v18\Source\Source\_Common\EventLua.cpp
; File C:\Program Files\Microsoft Visual Studio\2022\Professional\VC\Tools\MSVC\14.44.35207\include\xutility
; File C:\Program Files\Microsoft Visual Studio\2022\Professional\VC\Tools\MSVC\14.44.35207\include\vector
; File C:\IAGOS\server\v18\Source\Source\_Common\EventLua.cpp
; File C:\Program Files\Microsoft Visual Studio\2022\Professional\VC\Tools\MSVC\14.44.35207\include\vector
; File C:\IAGOS\server\v18\Source\Source\_Common\EventLua.cpp
;	COMDAT ?DeleteEndEventProcess@CEventLua@@QAEXXZ
_TEXT	SEGMENT
tv1164 = -20						; size = 4
tv1170 = -16						; size = 4
_this$1$ = -12						; size = 4
_itMId$1 = -8						; size = 4
_nDelCount$1$ = -8					; size = 4
_itMSM$2 = -4						; size = 4
?DeleteEndEventProcess@CEventLua@@QAEXXZ PROC		; CEventLua::DeleteEndEventProcess, COMDAT
; _this$ = ecx

; 730  : {

  00000	55		 push	 ebp
  00001	8b ec		 mov	 ebp, esp
  00003	83 ec 14	 sub	 esp, 20			; 00000014H
  00006	53		 push	 ebx
  00007	8b d9		 mov	 ebx, ecx
  00009	57		 push	 edi
  0000a	89 5d f4	 mov	 DWORD PTR _this$1$[ebp], ebx
; File C:\Program Files\Microsoft Visual Studio\2022\Professional\VC\Tools\MSVC\14.44.35207\include\vector

; 46   :     _CONSTEXPR20 _Vector_const_iterator(_Tptr _Parg, const _Container_base* _Pvector) noexcept : _Ptr(_Parg) {

  0000d	8b 7b 74	 mov	 edi, DWORD PTR [ebx+116]

; 176  :         return !(*this == _Right);

  00010	3b 7b 78	 cmp	 edi, DWORD PTR [ebx+120]
; File C:\IAGOS\server\v18\Source\Source\_Common\EventLua.cpp

; 732  : 	for( vector<BYTE>::iterator itVec=m_vecEndSpawnEvent.begin(); itVec!=m_vecEndSpawnEvent.end(); )

  00013	0f 84 4e 01 00
	00		 je	 $LN294@DeleteEndE
  00019	8d 43 6c	 lea	 eax, DWORD PTR [ebx+108]
  0001c	89 45 ec	 mov	 DWORD PTR tv1164[ebp], eax
  0001f	56		 push	 esi
$LL4@DeleteEndE:
; File C:\Program Files\Microsoft Visual Studio\2022\Professional\VC\Tools\MSVC\14.44.35207\include\xtree

; 1142 :         return iterator(_Scary->_Myhead->_Left, _Scary);

  00020	8b 00		 mov	 eax, DWORD PTR [eax]
; File C:\IAGOS\server\v18\Source\Source\_Common\EventLua.cpp

; 734  : 		int nDelCount = 0;

  00022	c7 45 f8 00 00
	00 00		 mov	 DWORD PTR _nDelCount$1$[ebp], 0
; File C:\Program Files\Microsoft Visual Studio\2022\Professional\VC\Tools\MSVC\14.44.35207\include\xtree

; 37   :     _Tree_unchecked_const_iterator(_Nodeptr _Pnode, const _Mytree* _Plist) noexcept : _Ptr(_Pnode) {

  00029	8b 30		 mov	 esi, DWORD PTR [eax]
  0002b	89 75 fc	 mov	 DWORD PTR _itMSM$2[ebp], esi

; 237  :         return !(*this == _Right);

  0002e	3b f0		 cmp	 esi, eax
; File C:\IAGOS\server\v18\Source\Source\_Common\EventLua.cpp

; 735  : 		for( map<OBJID, BYTE>::iterator itMSM=m_mapSpawnedMonster.begin(); itMSM!=m_mapSpawnedMonster.end(); )

  00030	0f 84 c2 00 00
	00		 je	 $LN301@DeleteEndE
  00036	66 66 0f 1f 84
	00 00 00 00 00	 npad	 10
$LL7@DeleteEndE:

; 736  : 		{
; 737  : 			if( itMSM->second == (*itVec) )

  00040	8a 46 14	 mov	 al, BYTE PTR [esi+20]
  00043	3a 07		 cmp	 al, BYTE PTR [edi]
  00045	0f 85 8f 00 00
	00		 jne	 $LN11@DeleteEndE

; 738  : 			{
; 739  : 				CMover* pMover = prj.GetMover( itMSM->first );

  0004b	ff 76 10	 push	 DWORD PTR [esi+16]
  0004e	b9 00 00 00 00	 mov	 ecx, OFFSET ?prj@@3VCProject@@A ; prj
  00053	e8 00 00 00 00	 call	 ?GetMover@CProject@@QAEPAVCMover@@K@Z ; CProject::GetMover
  00058	8b d8		 mov	 ebx, eax
; File C:\IAGOS\server\v18\Source\Source\_Common\Obj.h

; 327  : 	return pObj && ( pObj->IsDelete() == FALSE ); 

  0005a	85 db		 test	 ebx, ebx
  0005c	74 41		 je	 SHORT $LN13@DeleteEndE

; 180  : 	BOOL			IsDelete()	{ return (m_dwFlags & OBJ_FLAG_DELETE);  }

  0005e	f6 43 04 01	 test	 BYTE PTR [ebx+4], 1

; 327  : 	return pObj && ( pObj->IsDelete() == FALSE ); 

  00062	75 3b		 jne	 SHORT $LN13@DeleteEndE
; File C:\IAGOS\server\v18\Source\Source\_Common\EventLua.cpp

; 742  : 					pMover->Delete();

  00064	8b cb		 mov	 ecx, ebx
  00066	e8 00 00 00 00	 call	 ?Delete@CObj@@QAEXXZ	; CObj::Delete
; File C:\Program Files\Microsoft Visual Studio\2022\Professional\VC\Tools\MSVC\14.44.35207\include\xtree

; 1209 :         return _Get_scary()->_Mysize;

  0006b	8b 4d f4	 mov	 ecx, DWORD PTR _this$1$[ebp]
  0006e	8b 41 70	 mov	 eax, DWORD PTR [ecx+112]
; File C:\IAGOS\server\v18\Source\Source\_Common\EventLua.cpp

; 743  : 					OUTPUTDEBUGSTRING( "\nCEventLua::DeleteEndEventProcess() - ID:%d, %s(%d):%d, Remain:%d", (*itVec), pMover->GetName(), pMover->GetIndex(), pMover->GetId(), m_mapSpawnedMonster.size() - 1 );

  00071	0f b6 0f	 movzx	 ecx, BYTE PTR [edi]
  00074	48		 dec	 eax
  00075	50		 push	 eax
  00076	ff b3 bc 01 00
	00		 push	 DWORD PTR [ebx+444]
  0007c	89 4d f0	 mov	 DWORD PTR tv1170[ebp], ecx
  0007f	8b cb		 mov	 ecx, ebx
  00081	ff b3 74 01 00
	00		 push	 DWORD PTR [ebx+372]
  00087	6a 00		 push	 0
  00089	e8 00 00 00 00	 call	 ?GetName@CMover@@QAEPBDH@Z ; CMover::GetName
  0008e	50		 push	 eax
  0008f	ff 75 f0	 push	 DWORD PTR tv1170[ebp]
  00092	68 00 00 00 00	 push	 OFFSET ??_C@_0EC@HDKLLJKN@?6CEventLua?3?3DeleteEndEventProce@
  00097	e8 00 00 00 00	 call	 ?OUTPUTDEBUGSTRING@@YAXPBDZZ ; OUTPUTDEBUGSTRING
  0009c	83 c4 18	 add	 esp, 24			; 00000018H
$LN13@DeleteEndE:
; File C:\Program Files\Microsoft Visual Studio\2022\Professional\VC\Tools\MSVC\14.44.35207\include\xtree

; 198  :         _Mybase::operator++();

  0009f	8d 4d fc	 lea	 ecx, DWORD PTR _itMSM$2[ebp]
  000a2	e8 00 00 00 00	 call	 ??E?$_Tree_unchecked_const_iterator@V?$_Tree_val@U?$_Tree_simple_types@U?$pair@$$CBKE@std@@@std@@@std@@U_Iterator_base0@2@@std@@QAEAAV01@XZ ; std::_Tree_unchecked_const_iterator<std::_Tree_val<std::_Tree_simple_types<std::pair<unsigned long const ,unsigned char> > >,std::_Iterator_base0>::operator++

; 1303 :         _Nodeptr _Erasednode = _Scary->_Extract(_Where); // node to erase

  000a7	8b 4d ec	 mov	 ecx, DWORD PTR tv1164[ebp]
  000aa	56		 push	 esi
  000ab	e8 00 00 00 00	 call	 ?_Extract@?$_Tree_val@U?$_Tree_simple_types@U?$pair@$$CBKE@std@@@std@@@std@@QAEPAU?$_Tree_node@U?$pair@$$CBKE@std@@PAX@2@V?$_Tree_unchecked_const_iterator@V?$_Tree_val@U?$_Tree_simple_types@U?$pair@$$CBKE@std@@@std@@@std@@U_Iterator_base0@2@@2@@Z ; std::_Tree_val<std::_Tree_simple_types<std::pair<unsigned long const ,unsigned char> > >::_Extract
; File C:\Program Files\Microsoft Visual Studio\2022\Professional\VC\Tools\MSVC\14.44.35207\include\xmemory

; 289  :         ::operator delete(_Ptr, _Bytes);

  000b0	6a 18		 push	 24			; 00000018H
  000b2	50		 push	 eax
  000b3	e8 00 00 00 00	 call	 ??3@YAXPAXI@Z		; operator delete
; File C:\Program Files\Microsoft Visual Studio\2022\Professional\VC\Tools\MSVC\14.44.35207\include\vector

; 1915 :         return static_cast<size_type>(_My_data._Mylast - _My_data._Myfirst);

  000b8	8b 5d f4	 mov	 ebx, DWORD PTR _this$1$[ebp]
; File C:\IAGOS\server\v18\Source\Source\_Common\EventLua.cpp

; 748  : 				if( nDelCount == (100/m_vecEndSpawnEvent.size()) )	// 100°ł°ˇ »čÁ¦µÇľúŔ¸¸é ´ŮŔ˝ ÇÁ·ÎĽĽ˝şżˇ »čÁ¦ÇŃ´Ů.

  000bb	33 d2		 xor	 edx, edx
  000bd	b8 64 00 00 00	 mov	 eax, 100		; 00000064H
  000c2	8b 75 f8	 mov	 esi, DWORD PTR _nDelCount$1$[ebp]
  000c5	46		 inc	 esi
; File C:\Program Files\Microsoft Visual Studio\2022\Professional\VC\Tools\MSVC\14.44.35207\include\xmemory

; 289  :         ::operator delete(_Ptr, _Bytes);

  000c6	83 c4 08	 add	 esp, 8
; File C:\IAGOS\server\v18\Source\Source\_Common\EventLua.cpp

; 747  : 				nDelCount++;

  000c9	89 75 f8	 mov	 DWORD PTR _nDelCount$1$[ebp], esi
; File C:\Program Files\Microsoft Visual Studio\2022\Professional\VC\Tools\MSVC\14.44.35207\include\vector

; 1915 :         return static_cast<size_type>(_My_data._Mylast - _My_data._Myfirst);

  000cc	8b 4b 78	 mov	 ecx, DWORD PTR [ebx+120]
  000cf	2b 4b 74	 sub	 ecx, DWORD PTR [ebx+116]
; File C:\IAGOS\server\v18\Source\Source\_Common\EventLua.cpp

; 748  : 				if( nDelCount == (100/m_vecEndSpawnEvent.size()) )	// 100°ł°ˇ »čÁ¦µÇľúŔ¸¸é ´ŮŔ˝ ÇÁ·ÎĽĽ˝şżˇ »čÁ¦ÇŃ´Ů.

  000d2	f7 f1		 div	 ecx
  000d4	3b f0		 cmp	 esi, eax
  000d6	74 19		 je	 SHORT $LN302@DeleteEndE

; 749  : 					break;
; 750  : 			}

  000d8	eb 08		 jmp	 SHORT $LN5@DeleteEndE
$LN11@DeleteEndE:
; File C:\Program Files\Microsoft Visual Studio\2022\Professional\VC\Tools\MSVC\14.44.35207\include\xtree

; 198  :         _Mybase::operator++();

  000da	8d 4d fc	 lea	 ecx, DWORD PTR _itMSM$2[ebp]
  000dd	e8 00 00 00 00	 call	 ??E?$_Tree_unchecked_const_iterator@V?$_Tree_val@U?$_Tree_simple_types@U?$pair@$$CBKE@std@@@std@@@std@@U_Iterator_base0@2@@std@@QAEAAV01@XZ ; std::_Tree_unchecked_const_iterator<std::_Tree_val<std::_Tree_simple_types<std::pair<unsigned long const ,unsigned char> > >,std::_Iterator_base0>::operator++
$LN5@DeleteEndE:

; 237  :         return !(*this == _Right);

  000e2	8b 75 fc	 mov	 esi, DWORD PTR _itMSM$2[ebp]
  000e5	3b 73 6c	 cmp	 esi, DWORD PTR [ebx+108]
; File C:\IAGOS\server\v18\Source\Source\_Common\EventLua.cpp

; 735  : 		for( map<OBJID, BYTE>::iterator itMSM=m_mapSpawnedMonster.begin(); itMSM!=m_mapSpawnedMonster.end(); )

  000e8	0f 85 52 ff ff
	ff		 jne	 $LL7@DeleteEndE
  000ee	8b 75 f8	 mov	 esi, DWORD PTR _nDelCount$1$[ebp]
$LN302@DeleteEndE:

; 751  : 			else
; 752  : 				itMSM++;
; 753  : 		}
; 754  : 		
; 755  : 		if( nDelCount == 0 )	// ´őŔĚ»ó »čÁ¦µÉ°ÍŔĚ ľřŔ¸¸é ŔĚşĄĆ® żĎ·á ¸ń·ĎżˇĽ­ ÇŘ´ç ID¸¦ Á¦°ĹÇŃ´Ů.

  000f1	85 f6		 test	 esi, esi
  000f3	74 03		 je	 SHORT $LN301@DeleteEndE
; File C:\Program Files\Microsoft Visual Studio\2022\Professional\VC\Tools\MSVC\14.44.35207\include\vector

; 82   :         ++_Ptr;

  000f5	47		 inc	 edi
  000f6	eb 62		 jmp	 SHORT $LN2@DeleteEndE
$LN301@DeleteEndE:
; File C:\Program Files\Microsoft Visual Studio\2022\Professional\VC\Tools\MSVC\14.44.35207\include\xtree

; 1142 :         return iterator(_Scary->_Myhead->_Left, _Scary);

  000f8	8b 43 64	 mov	 eax, DWORD PTR [ebx+100]

; 37   :     _Tree_unchecked_const_iterator(_Nodeptr _Pnode, const _Mytree* _Plist) noexcept : _Ptr(_Pnode) {

  000fb	8b 30		 mov	 esi, DWORD PTR [eax]
  000fd	89 75 f8	 mov	 DWORD PTR _itMId$1[ebp], esi

; 237  :         return !(*this == _Right);

  00100	3b f0		 cmp	 esi, eax
; File C:\IAGOS\server\v18\Source\Source\_Common\EventLua.cpp

; 757  : 			for( map<DWORD, BYTE>::iterator itMId=m_mapMonsterId.begin(); itMId!=m_mapMonsterId.end(); )

  00102	74 32		 je	 SHORT $LN9@DeleteEndE
$LL10@DeleteEndE:

; 758  : 			{
; 759  : 				if( itMId->second == (*itVec) )

  00104	8a 46 14	 mov	 al, BYTE PTR [esi+20]
  00107	8d 4d f8	 lea	 ecx, DWORD PTR _itMId$1[ebp]
  0010a	3a 07		 cmp	 al, BYTE PTR [edi]
  0010c	75 1b		 jne	 SHORT $LN17@DeleteEndE
; File C:\Program Files\Microsoft Visual Studio\2022\Professional\VC\Tools\MSVC\14.44.35207\include\xtree

; 198  :         _Mybase::operator++();

  0010e	e8 00 00 00 00	 call	 ??E?$_Tree_unchecked_const_iterator@V?$_Tree_val@U?$_Tree_simple_types@U?$pair@$$CBKE@std@@@std@@@std@@U_Iterator_base0@2@@std@@QAEAAV01@XZ ; std::_Tree_unchecked_const_iterator<std::_Tree_val<std::_Tree_simple_types<std::pair<unsigned long const ,unsigned char> > >,std::_Iterator_base0>::operator++

; 1303 :         _Nodeptr _Erasednode = _Scary->_Extract(_Where); // node to erase

  00113	56		 push	 esi
  00114	8d 4b 64	 lea	 ecx, DWORD PTR [ebx+100]
  00117	e8 00 00 00 00	 call	 ?_Extract@?$_Tree_val@U?$_Tree_simple_types@U?$pair@$$CBKE@std@@@std@@@std@@QAEPAU?$_Tree_node@U?$pair@$$CBKE@std@@PAX@2@V?$_Tree_unchecked_const_iterator@V?$_Tree_val@U?$_Tree_simple_types@U?$pair@$$CBKE@std@@@std@@@std@@U_Iterator_base0@2@@2@@Z ; std::_Tree_val<std::_Tree_simple_types<std::pair<unsigned long const ,unsigned char> > >::_Extract
; File C:\Program Files\Microsoft Visual Studio\2022\Professional\VC\Tools\MSVC\14.44.35207\include\xmemory

; 289  :         ::operator delete(_Ptr, _Bytes);

  0011c	6a 18		 push	 24			; 00000018H
  0011e	50		 push	 eax
  0011f	e8 00 00 00 00	 call	 ??3@YAXPAXI@Z		; operator delete
  00124	83 c4 08	 add	 esp, 8
; File C:\IAGOS\server\v18\Source\Source\_Common\EventLua.cpp

; 760  : 					m_mapMonsterId.erase( itMId++ );

  00127	eb 05		 jmp	 SHORT $LN8@DeleteEndE
$LN17@DeleteEndE:
; File C:\Program Files\Microsoft Visual Studio\2022\Professional\VC\Tools\MSVC\14.44.35207\include\xtree

; 198  :         _Mybase::operator++();

  00129	e8 00 00 00 00	 call	 ??E?$_Tree_unchecked_const_iterator@V?$_Tree_val@U?$_Tree_simple_types@U?$pair@$$CBKE@std@@@std@@@std@@U_Iterator_base0@2@@std@@QAEAAV01@XZ ; std::_Tree_unchecked_const_iterator<std::_Tree_val<std::_Tree_simple_types<std::pair<unsigned long const ,unsigned char> > >,std::_Iterator_base0>::operator++
$LN8@DeleteEndE:

; 237  :         return !(*this == _Right);

  0012e	8b 75 f8	 mov	 esi, DWORD PTR _itMId$1[ebp]
  00131	3b 73 64	 cmp	 esi, DWORD PTR [ebx+100]
; File C:\IAGOS\server\v18\Source\Source\_Common\EventLua.cpp

; 757  : 			for( map<DWORD, BYTE>::iterator itMId=m_mapMonsterId.begin(); itMId!=m_mapMonsterId.end(); )

  00134	75 ce		 jne	 SHORT $LL10@DeleteEndE
$LN9@DeleteEndE:

; 761  : 				else
; 762  : 					itMId++;
; 763  : 			}
; 764  : 			OUTPUTDEBUGSTRING( "\nCEventLua::DeleteEndEventProcess() - m_vecEndSpawnEvent : %d", (*itVec) );

  00136	0f b6 07	 movzx	 eax, BYTE PTR [edi]
  00139	50		 push	 eax
  0013a	68 00 00 00 00	 push	 OFFSET ??_C@_0DO@COLMFNCF@?6CEventLua?3?3DeleteEndEventProce@
  0013f	e8 00 00 00 00	 call	 ?OUTPUTDEBUGSTRING@@YAXPBDZZ ; OUTPUTDEBUGSTRING
; File C:\Program Files\Microsoft Visual Studio\2022\Professional\VC\Tools\MSVC\14.44.35207\include\xutility

; 5147 :                 return _STD _Copy_memmove(_First, _Last, _Dest);

  00144	8b 5d f4	 mov	 ebx, DWORD PTR _this$1$[ebp]
  00147	8d 47 01	 lea	 eax, DWORD PTR [edi+1]
  0014a	57		 push	 edi
  0014b	ff 73 78	 push	 DWORD PTR [ebx+120]
  0014e	50		 push	 eax
  0014f	e8 00 00 00 00	 call	 ??$_Copy_memmove@PAEPAE@std@@YAPAEPAE00@Z ; std::_Copy_memmove<unsigned char *,unsigned char *>
  00154	83 c4 14	 add	 esp, 20			; 00000014H
; File C:\Program Files\Microsoft Visual Studio\2022\Professional\VC\Tools\MSVC\14.44.35207\include\vector

; 1778 :         --_Mylast;

  00157	ff 4b 78	 dec	 DWORD PTR [ebx+120]
$LN2@DeleteEndE:
; File C:\IAGOS\server\v18\Source\Source\_Common\EventLua.cpp

; 732  : 	for( vector<BYTE>::iterator itVec=m_vecEndSpawnEvent.begin(); itVec!=m_vecEndSpawnEvent.end(); )

  0015a	8d 43 6c	 lea	 eax, DWORD PTR [ebx+108]
; File C:\Program Files\Microsoft Visual Studio\2022\Professional\VC\Tools\MSVC\14.44.35207\include\vector

; 176  :         return !(*this == _Right);

  0015d	3b 7b 78	 cmp	 edi, DWORD PTR [ebx+120]
; File C:\IAGOS\server\v18\Source\Source\_Common\EventLua.cpp

; 732  : 	for( vector<BYTE>::iterator itVec=m_vecEndSpawnEvent.begin(); itVec!=m_vecEndSpawnEvent.end(); )

  00160	0f 85 ba fe ff
	ff		 jne	 $LL4@DeleteEndE
  00166	5e		 pop	 esi
$LN294@DeleteEndE:
  00167	5f		 pop	 edi

; 765  : 			itVec = m_vecEndSpawnEvent.erase( itVec );
; 766  : 		}
; 767  : 		else
; 768  : 			itVec++;
; 769  : 	}
; 770  : }

  00168	5b		 pop	 ebx
  00169	8b e5		 mov	 esp, ebp
  0016b	5d		 pop	 ebp
  0016c	c3		 ret	 0
?DeleteEndEventProcess@CEventLua@@QAEXXZ ENDP		; CEventLua::DeleteEndEventProcess
_TEXT	ENDS
; Function compile flags: /Ogtp
; File C:\IAGOS\server\v18\Source\Source\_Common\EventLua.cpp
; File C:\Program Files\Microsoft Visual Studio\2022\Professional\VC\Tools\MSVC\14.44.35207\include\xtree
; File C:\IAGOS\server\v18\Source\Source\_Common\EventLua.cpp
; File C:\Program Files\Microsoft Visual Studio\2022\Professional\VC\Tools\MSVC\14.44.35207\include\vector
; File C:\IAGOS\server\v18\Source\Source\_Common\EventLua.cpp
; File C:\Program Files\Microsoft Visual Studio\2022\Professional\VC\Tools\MSVC\14.44.35207\include\vector
; File C:\IAGOS\server\v18\Source\Source\_Common\xUtil.h
; File C:\Program Files\Microsoft Visual Studio\2022\Professional\VC\Tools\MSVC\14.44.35207\include\vector
; File C:\IAGOS\server\v18\Source\Source\_Common\xUtil.h
; File C:\Program Files\Microsoft Visual Studio\2022\Professional\VC\Tools\MSVC\14.44.35207\include\vector
; File C:\IAGOS\server\v18\Source\Source\_Common\EventLua.h
; File C:\IAGOS\server\v18\Source\Source\_Common\EventLua.cpp
; File C:\IAGOS\server\v18\Source\Source\_Common\EventLua.h
; File C:\IAGOS\server\v18\Source\Source\_Common\EventLua.cpp
; File C:\IAGOS\server\v18\Source\Source\_Common\EventLua.h
; File C:\IAGOS\server\v18\Source\Source\_Common\EventLua.cpp
; File C:\IAGOS\server\v18\Source\Source\_Common\EventLua.h
; File C:\IAGOS\server\v18\Source\Source\_Common\EventLua.cpp
; File C:\IAGOS\server\v18\Source\Source\_Common\EventLua.h
; File C:\IAGOS\server\v18\Source\Source\_Common\EventLua.cpp
; File C:\IAGOS\server\v18\Source\Source\_Common\Project.h
; File C:\IAGOS\server\v18\Source\Source\_Common\EventLua.cpp
; File C:\IAGOS\server\v18\Source\Source\_Common\EventLua.h
; File C:\IAGOS\server\v18\Source\Source\DX_SDK\d3dx9math.inl
; File C:\IAGOS\server\v18\Source\Source\_Common\EventLua.cpp
; File C:\IAGOS\server\v18\Source\Source\DX_SDK\d3dx9math.inl
; File C:\IAGOS\server\v18\Source\Source\_Common\EventLua.h
; File C:\IAGOS\server\v18\Source\Source\DX_SDK\d3dx9math.inl
; File C:\IAGOS\server\v18\Source\Source\_Common\EventLua.h
; File C:\IAGOS\server\v18\Source\Source\_Common\EventLua.cpp
; File C:\IAGOS\server\v18\Source\Source\DX_SDK\d3dx9math.inl
; File C:\IAGOS\server\v18\Source\Source\_Common\EventLua.cpp
; File C:\Program Files\Microsoft Visual Studio\2022\Professional\VC\Tools\MSVC\14.44.35207\include\utility
; File C:\IAGOS\server\v18\Source\Source\_Common\EventLua.cpp
; File C:\Program Files\Microsoft Visual Studio\2022\Professional\VC\Tools\MSVC\14.44.35207\include\utility
; File C:\IAGOS\server\v18\Source\Source\_Common\EventLua.cpp
; File C:\IAGOS\server\v18\Source\Source\_Common\Obj.h
; File C:\IAGOS\server\v18\Source\Source\_Common\EventLua.cpp
; File C:\IAGOS\server\v18\Source\Source\_Common\Obj.h
; File C:\IAGOS\server\v18\Source\Source\_Common\EventLua.cpp
; File C:\IAGOS\server\v18\Source\Source\_Common\Project.h
; File C:\IAGOS\server\v18\Source\Source\_Common\data.h
; File C:\IAGOS\server\v18\Source\Source\_Common\EventLua.cpp
; File C:\IAGOS\server\v18\Source\Source\_Common\EventLua.h
; File C:\IAGOS\server\v18\Source\Source\DX_SDK\d3dx9math.inl
; File C:\IAGOS\server\v18\Source\Source\_Common\EventLua.cpp
; File C:\IAGOS\server\v18\Source\Source\DX_SDK\d3dx9math.inl
; File C:\IAGOS\server\v18\Source\Source\_Common\EventLua.h
; File C:\IAGOS\server\v18\Source\Source\DX_SDK\d3dx9math.inl
; File C:\IAGOS\server\v18\Source\Source\_Common\EventLua.h
; File C:\IAGOS\server\v18\Source\Source\_Common\EventLua.cpp
; File C:\IAGOS\server\v18\Source\Source\DX_SDK\d3dx9math.inl
; File C:\IAGOS\server\v18\Source\Source\_Common\EventLua.cpp
; File C:\IAGOS\server\v18\Source\Source\_Common\Obj.h
; File C:\IAGOS\server\v18\Source\Source\_Common\EventLua.cpp
; File C:\IAGOS\server\v18\Source\Source\_Common\Obj.h
; File C:\IAGOS\server\v18\Source\Source\_Common\EventLua.cpp
; File C:\IAGOS\server\v18\Source\Source\_Common\Project.h
; File C:\IAGOS\server\v18\Source\Source\_Common\EventLua.cpp
; File C:\Program Files\Microsoft Visual Studio\2022\Professional\VC\Tools\MSVC\14.44.35207\include\vector
; File C:\IAGOS\server\v18\Source\Source\_Common\EventLua.cpp
; File C:\Program Files\Microsoft Visual Studio\2022\Professional\VC\Tools\MSVC\14.44.35207\include\xtree
; File C:\IAGOS\server\v18\Source\Source\_Common\EventLua.cpp
;	COMDAT ?EventSpawnProcess@CEventLua@@QAEXXZ
_TEXT	SEGMENT
$T2 = -152						; size = 8
$T3 = -144						; size = 12
$T4 = -132						; size = 12
$T5 = -120						; size = 12
$T6 = -108						; size = 12
$T7 = -96						; size = 4
_sp$8 = -92						; size = 20
$T9 = -72						; size = 8
_itMap$10 = -64						; size = 4
_this$GSCopy$1$ = -60					; size = 4
$T11 = -56						; size = 4
_sp$2$ = -56						; size = 4
_pWorld$1$ = -52					; size = 4
_pObj$1$ = -48						; size = 4
_fx$1$ = -48						; size = 4
_fx$1$ = -48						; size = 4
_pMover$1$ = -44					; size = 4
$T12 = -44						; size = 4
_v$13 = -40						; size = 12
_v$14 = -28						; size = 12
__$ArrayPad$ = -16					; size = 4
__$EHRec$ = -12						; size = 12
?EventSpawnProcess@CEventLua@@QAEXXZ PROC		; CEventLua::EventSpawnProcess, COMDAT
; _this$ = ecx

; 657  : {

  00000	55		 push	 ebp
  00001	8b ec		 mov	 ebp, esp
  00003	6a ff		 push	 -1
  00005	68 00 00 00 00	 push	 __ehhandler$?EventSpawnProcess@CEventLua@@QAEXXZ
  0000a	64 a1 00 00 00
	00		 mov	 eax, DWORD PTR fs:0
  00010	50		 push	 eax
  00011	81 ec 8c 00 00
	00		 sub	 esp, 140		; 0000008cH
  00017	a1 00 00 00 00	 mov	 eax, DWORD PTR ___security_cookie
  0001c	33 c5		 xor	 eax, ebp
  0001e	89 45 f0	 mov	 DWORD PTR __$ArrayPad$[ebp], eax
  00021	56		 push	 esi
  00022	57		 push	 edi
  00023	50		 push	 eax
  00024	8d 45 f4	 lea	 eax, DWORD PTR __$EHRec$[ebp]
  00027	64 a3 00 00 00
	00		 mov	 DWORD PTR fs:0, eax
  0002d	8b d1		 mov	 edx, ecx
  0002f	89 55 c4	 mov	 DWORD PTR _this$GSCopy$1$[ebp], edx
; File C:\Program Files\Microsoft Visual Studio\2022\Professional\VC\Tools\MSVC\14.44.35207\include\xtree

; 1142 :         return iterator(_Scary->_Myhead->_Left, _Scary);

  00032	8b 42 5c	 mov	 eax, DWORD PTR [edx+92]

; 37   :     _Tree_unchecked_const_iterator(_Nodeptr _Pnode, const _Mytree* _Plist) noexcept : _Ptr(_Pnode) {

  00035	8b 38		 mov	 edi, DWORD PTR [eax]
  00037	89 7d c0	 mov	 DWORD PTR _itMap$10[ebp], edi

; 237  :         return !(*this == _Right);

  0003a	3b f8		 cmp	 edi, eax
; File C:\IAGOS\server\v18\Source\Source\_Common\EventLua.cpp

; 661  : 	for( map<BYTE, VECSPAWNINFO>::iterator itMap=m_mapSpawnList.begin(); itMap!=m_mapSpawnList.end(); itMap++ )

  0003c	0f 84 07 04 00
	00		 je	 $LN3@EventSpawn
$LL4@EventSpawn:
; File C:\Program Files\Microsoft Visual Studio\2022\Professional\VC\Tools\MSVC\14.44.35207\include\vector

; 46   :     _CONSTEXPR20 _Vector_const_iterator(_Tptr _Parg, const _Container_base* _Pvector) noexcept : _Ptr(_Parg) {

  00042	8b 77 14	 mov	 esi, DWORD PTR [edi+20]

; 176  :         return !(*this == _Right);

  00045	3b 77 18	 cmp	 esi, DWORD PTR [edi+24]
; File C:\IAGOS\server\v18\Source\Source\_Common\EventLua.cpp

; 664  : 		for( VECSPAWNINFO::iterator itVec=pVecSP->begin(); itVec!=pVecSP->end(); itVec++ )

  00048	0f 84 e4 03 00
	00		 je	 $LN2@EventSpawn
  0004e	66 90		 npad	 2
$LL7@EventSpawn:
; File C:\Program Files\Microsoft Visual Studio\2022\Professional\VC\Tools\MSVC\14.44.35207\include\vector

; 1915 :         return static_cast<size_type>(_My_data._Mylast - _My_data._Myfirst);

  00050	8b 4a 54	 mov	 ecx, DWORD PTR [edx+84]
  00053	b8 67 66 66 66	 mov	 eax, 1717986919		; 66666667H
  00058	2b 4a 50	 sub	 ecx, DWORD PTR [edx+80]
  0005b	f7 e9		 imul	 ecx
; File C:\IAGOS\server\v18\Source\Source\_Common\xUtil.h

; 16   : 	g_next = g_next * 1103515245 + 12345;// + nRandomSeed[ i++ ];

  0005d	69 05 00 00 00
	00 6d 4e c6 41	 imul	 eax, DWORD PTR ?g_next@@3KA, 1103515245 ; g_next
; File C:\Program Files\Microsoft Visual Studio\2022\Professional\VC\Tools\MSVC\14.44.35207\include\vector

; 1915 :         return static_cast<size_type>(_My_data._Mylast - _My_data._Myfirst);

  00067	c1 fa 03	 sar	 edx, 3
  0006a	8b ca		 mov	 ecx, edx
  0006c	c1 e9 1f	 shr	 ecx, 31			; 0000001fH
  0006f	03 ca		 add	 ecx, edx

; 1928 :         auto& _My_data = _Mypair._Myval2;

  00071	33 d2		 xor	 edx, edx
; File C:\IAGOS\server\v18\Source\Source\_Common\xUtil.h

; 16   : 	g_next = g_next * 1103515245 + 12345;// + nRandomSeed[ i++ ];

  00073	05 39 30 00 00	 add	 eax, 12345		; 00003039H
  00078	a3 00 00 00 00	 mov	 DWORD PTR ?g_next@@3KA, eax ; g_next
; File C:\Program Files\Microsoft Visual Studio\2022\Professional\VC\Tools\MSVC\14.44.35207\include\vector

; 1928 :         auto& _My_data = _Mypair._Myval2;

  0007d	f7 f1		 div	 ecx

; 1929 : #if _MSVC_STL_HARDENING_VECTOR || _ITERATOR_DEBUG_LEVEL != 0
; 1930 :         _STL_VERIFY(
; 1931 :             _Pos < static_cast<size_type>(_My_data._Mylast - _My_data._Myfirst), "vector subscript out of range");
; 1932 : #endif
; 1933 : 
; 1934 :         return _My_data._Myfirst[_Pos];

  0007f	8b 45 c4	 mov	 eax, DWORD PTR _this$GSCopy$1$[ebp]
  00082	8b 40 50	 mov	 eax, DWORD PTR [eax+80]
  00085	8d 0c 92	 lea	 ecx, DWORD PTR [edx+edx*4]
; File C:\IAGOS\server\v18\Source\Source\_Common\EventLua.h

; 233  : 	__SPAWNREGION GetSpawnRegion() { return m_vecSpawnRegion[xRandom( m_vecSpawnRegion.size() )]; }

  00088	0f 10 04 88	 movups	 xmm0, XMMWORD PTR [eax+ecx*4]
  0008c	8b 44 88 10	 mov	 eax, DWORD PTR [eax+ecx*4+16]
; File C:\IAGOS\server\v18\Source\Source\_Common\EventLua.cpp

; 667  : 				CWorld* pWorld	= g_WorldMng.GetWorld( sp.dwWorldId );

  00090	b9 00 00 00 00	 mov	 ecx, OFFSET ?g_WorldMng@@3VCWorldMng@@A ; g_WorldMng
; File C:\IAGOS\server\v18\Source\Source\_Common\EventLua.h

; 233  : 	__SPAWNREGION GetSpawnRegion() { return m_vecSpawnRegion[xRandom( m_vecSpawnRegion.size() )]; }

  00095	89 45 c8	 mov	 DWORD PTR _sp$2$[ebp], eax
; File C:\IAGOS\server\v18\Source\Source\_Common\EventLua.cpp

; 667  : 				CWorld* pWorld	= g_WorldMng.GetWorld( sp.dwWorldId );

  00098	66 0f 7e c0	 movd	 eax, xmm0
; File C:\IAGOS\server\v18\Source\Source\_Common\EventLua.h

; 233  : 	__SPAWNREGION GetSpawnRegion() { return m_vecSpawnRegion[xRandom( m_vecSpawnRegion.size() )]; }

  0009c	0f 11 45 a4	 movups	 XMMWORD PTR _sp$8[ebp], xmm0
; File C:\IAGOS\server\v18\Source\Source\_Common\EventLua.cpp

; 667  : 				CWorld* pWorld	= g_WorldMng.GetWorld( sp.dwWorldId );

  000a0	50		 push	 eax
  000a1	e8 00 00 00 00	 call	 ?GetWorld@CWorldMng@@QAEPAVCWorld@@K@Z ; CWorldMng::GetWorld
  000a6	89 45 cc	 mov	 DWORD PTR _pWorld$1$[ebp], eax

; 668  : 			if( !pWorld )

  000a9	85 c0		 test	 eax, eax
  000ab	0f 84 72 03 00
	00		 je	 $LN5@EventSpawn
; File C:\IAGOS\server\v18\Source\Source\_Common\EventLua.h

; 208  : 			DWORD dwCurrentTime = timeGetTime();

  000b1	ff 15 00 00 00
	00		 call	 DWORD PTR __imp__timeGetTime@0

; 209  : 			if( dwTimeOut > dwCurrentTime )

  000b7	39 46 0c	 cmp	 DWORD PTR [esi+12], eax
  000ba	0f 87 63 03 00
	00		 ja	 $LN5@EventSpawn

; 211  : 			dwTimeOut = dwCurrentTime + dwInterval;

  000c0	8b 4e 08	 mov	 ecx, DWORD PTR [esi+8]
  000c3	03 c8		 add	 ecx, eax
; File C:\IAGOS\server\v18\Source\Source\_Common\EventLua.cpp

; 675  : 			switch( pSI->nType )

  000c5	8b 06		 mov	 eax, DWORD PTR [esi]
; File C:\IAGOS\server\v18\Source\Source\_Common\EventLua.h

; 211  : 			dwTimeOut = dwCurrentTime + dwInterval;

  000c7	89 4e 0c	 mov	 DWORD PTR [esi+12], ecx
; File C:\IAGOS\server\v18\Source\Source\_Common\EventLua.cpp

; 675  : 			switch( pSI->nType )

  000ca	83 e8 04	 sub	 eax, 4
  000cd	0f 84 82 01 00
	00		 je	 $LN12@EventSpawn
  000d3	83 e8 01	 sub	 eax, 1
  000d6	0f 85 47 03 00
	00		 jne	 $LN5@EventSpawn

; 697  : 						}
; 698  : 					}
; 699  : 					break;
; 700  : 				}
; 701  : 				case OT_MOVER:
; 702  : 				{
; 703  : 					MoverProp* pMoverProp = prj.GetMoverPropEx( pSI->dwId );

  000dc	8b 46 04	 mov	 eax, DWORD PTR [esi+4]
; File C:\IAGOS\server\v18\Source\Source\_Common\Project.h

; 1412 : 	if( nIndex < 0 || nIndex >= m_nMoverPropSize )

  000df	85 c0		 test	 eax, eax
  000e1	0f 88 3c 03 00
	00		 js	 $LN5@EventSpawn
  000e7	3b 05 b4 01 00
	00		 cmp	 eax, DWORD PTR ?prj@@3VCProject@@A+436
  000ed	0f 8d 30 03 00
	00		 jge	 $LN5@EventSpawn

; 1407 : 	return m_pPropMover + nIndex;

  000f3	69 c0 90 06 00
	00		 imul	 eax, eax, 1680
  000f9	03 05 b8 01 00
	00		 add	 eax, DWORD PTR ?prj@@3VCProject@@A+440
; File C:\IAGOS\server\v18\Source\Source\_Common\EventLua.cpp

; 704  : 					if( pMoverProp )

  000ff	0f 84 1e 03 00
	00		 je	 $LN5@EventSpawn

; 705  : 					{
; 706  : 						CMover* pMover	= static_cast<CMover*>( CreateObj( D3DDEVICE, OT_MOVER, pMoverProp->dwID ) );

  00105	6a 01		 push	 1
  00107	ff 30		 push	 DWORD PTR [eax]
  00109	6a 05		 push	 5
  0010b	6a 00		 push	 0
  0010d	e8 00 00 00 00	 call	 ?CreateObj@@YAPAVCObj@@PAUIDirect3DDevice9@@KKH@Z ; CreateObj
  00112	83 c4 10	 add	 esp, 16			; 00000010H
  00115	89 45 d4	 mov	 DWORD PTR _pMover$1$[ebp], eax

; 707  : 						if( pMover )	

  00118	85 c0		 test	 eax, eax
  0011a	0f 84 03 03 00
	00		 je	 $LN5@EventSpawn
; File C:\IAGOS\server\v18\Source\Source\_Common\EventLua.h

; 222  : 		D3DXVECTOR3 GetPos() { return D3DXVECTOR3( (float)( xRandom( rect.left, rect.right ) ), 0.0f, (float)( xRandom( rect.top, rect.bottom ) ) ); }

  00120	ff 75 b0	 push	 DWORD PTR _sp$8[ebp+12]
  00123	ff 75 a8	 push	 DWORD PTR _sp$8[ebp+4]
  00126	e8 00 00 00 00	 call	 ?xRandom@@YAKKK@Z	; xRandom
  0012b	ff 75 c8	 push	 DWORD PTR _sp$2$[ebp]
  0012e	ff 75 ac	 push	 DWORD PTR _sp$8[ebp+8]
  00131	66 0f 6e c0	 movd	 xmm0, eax
  00135	f3 0f e6 c0	 cvtdq2pd xmm0, xmm0
  00139	c1 e8 1f	 shr	 eax, 31			; 0000001fH
  0013c	f2 0f 58 04 c5
	00 00 00 00	 addsd	 xmm0, QWORD PTR __xmm@41f00000000000000000000000000000[eax*8]
  00145	66 0f 5a c0	 cvtpd2ps xmm0, xmm0
  00149	f3 0f 11 45 d0	 movss	 DWORD PTR _fx$1$[ebp], xmm0
  0014e	e8 00 00 00 00	 call	 ?xRandom@@YAKKK@Z	; xRandom
; File C:\IAGOS\server\v18\Source\Source\DX_SDK\d3dx9math.inl

; 300  :     x = fx;

  00153	f3 0f 10 4d d0	 movss	 xmm1, DWORD PTR _fx$1$[ebp]
; File C:\IAGOS\server\v18\Source\Source\_Common\EventLua.cpp

; 710  : 							v.y = pWorld->GetLandHeight( v.x, v.z ) + 1.0f;

  00158	83 c4 08	 add	 esp, 8
  0015b	8b 4d cc	 mov	 ecx, DWORD PTR _pWorld$1$[ebp]
; File C:\IAGOS\server\v18\Source\Source\DX_SDK\d3dx9math.inl

; 300  :     x = fx;

  0015e	f3 0f 11 4d e4	 movss	 DWORD PTR _v$14[ebp], xmm1
  00163	66 0f 6e c0	 movd	 xmm0, eax
; File C:\IAGOS\server\v18\Source\Source\_Common\EventLua.h

; 222  : 		D3DXVECTOR3 GetPos() { return D3DXVECTOR3( (float)( xRandom( rect.left, rect.right ) ), 0.0f, (float)( xRandom( rect.top, rect.bottom ) ) ); }

  00167	f3 0f e6 c0	 cvtdq2pd xmm0, xmm0
  0016b	c1 e8 1f	 shr	 eax, 31			; 0000001fH
; File C:\IAGOS\server\v18\Source\Source\DX_SDK\d3dx9math.inl

; 301  :     y = fy;

  0016e	c7 45 e8 00 00
	00 00		 mov	 DWORD PTR _v$14[ebp+4], 0
; File C:\IAGOS\server\v18\Source\Source\_Common\EventLua.h

; 222  : 		D3DXVECTOR3 GetPos() { return D3DXVECTOR3( (float)( xRandom( rect.left, rect.right ) ), 0.0f, (float)( xRandom( rect.top, rect.bottom ) ) ); }

  00175	f2 0f 58 04 c5
	00 00 00 00	 addsd	 xmm0, QWORD PTR __xmm@41f00000000000000000000000000000[eax*8]
  0017e	66 0f 5a c0	 cvtpd2ps xmm0, xmm0
; File C:\IAGOS\server\v18\Source\Source\_Common\EventLua.cpp

; 710  : 							v.y = pWorld->GetLandHeight( v.x, v.z ) + 1.0f;

  00182	f3 0f 11 44 24
	04		 movss	 DWORD PTR [esp+4], xmm0
; File C:\IAGOS\server\v18\Source\Source\DX_SDK\d3dx9math.inl

; 302  :     z = fz;

  00188	f3 0f 11 45 ec	 movss	 DWORD PTR _v$14[ebp+8], xmm0
; File C:\IAGOS\server\v18\Source\Source\_Common\EventLua.cpp

; 710  : 							v.y = pWorld->GetLandHeight( v.x, v.z ) + 1.0f;

  0018d	f3 0f 11 0c 24	 movss	 DWORD PTR [esp], xmm1
  00192	e8 00 00 00 00	 call	 ?GetLandHeight@CWorld@@QAEMMM@Z ; CWorld::GetLandHeight
  00197	d9 e8		 fld1

; 711  : 							pMover->SetPos( v );

  00199	8d 45 e4	 lea	 eax, DWORD PTR _v$14[ebp]
  0019c	8b 4d d4	 mov	 ecx, DWORD PTR _pMover$1$[ebp]
  0019f	de c1		 faddp	 ST(1), ST(0)
  001a1	50		 push	 eax
  001a2	d9 5d e8	 fstp	 DWORD PTR _v$14[ebp+4]
  001a5	e8 00 00 00 00	 call	 ?SetPos@CObj@@QAEXABUD3DXVECTOR3@@@Z ; CObj::SetPos

; 712  : 							pMover->InitMotion( MTI_STAND );

  001aa	8b 4d d4	 mov	 ecx, DWORD PTR _pMover$1$[ebp]
  001ad	6a 00		 push	 0
  001af	8b 01		 mov	 eax, DWORD PTR [ecx]
  001b1	ff 50 08	 call	 DWORD PTR [eax+8]

; 713  : 							pMover->UpdateLocalMatrix();

  001b4	8b 4d d4	 mov	 ecx, DWORD PTR _pMover$1$[ebp]
  001b7	e8 00 00 00 00	 call	 ?UpdateLocalMatrix@CObj@@QAEXXZ ; CObj::UpdateLocalMatrix

; 714  : 							pMover->AddItToGlobalId();

  001bc	8b 4d d4	 mov	 ecx, DWORD PTR _pMover$1$[ebp]
  001bf	8b 01		 mov	 eax, DWORD PTR [ecx]
  001c1	ff 50 3c	 call	 DWORD PTR [eax+60]

; 715  : 							pWorld->ADDOBJ( pMover, FALSE, nDefaultLayer );

  001c4	8b 4d cc	 mov	 ecx, DWORD PTR _pWorld$1$[ebp]
  001c7	6a 00		 push	 0
  001c9	6a 00		 push	 0
  001cb	ff 75 d4	 push	 DWORD PTR _pMover$1$[ebp]
  001ce	e8 00 00 00 00	 call	 ?AddObj@CWorld@@QAEHPAVCObj@@HH@Z ; CWorld::AddObj
; File C:\Program Files\Microsoft Visual Studio\2022\Professional\VC\Tools\MSVC\14.44.35207\include\utility

; 274  :         : first(_STD forward<_Other1>(_Val1)), second(_STD forward<_Other2>(_Val2)) {

  001d3	8b 4d d4	 mov	 ecx, DWORD PTR _pMover$1$[ebp]
  001d6	8b 81 bc 01 00
	00		 mov	 eax, DWORD PTR [ecx+444]
; File C:\IAGOS\server\v18\Source\Source\_Common\EventLua.cpp

; 716  : 							m_mapSpawnedMonster.insert( make_pair( pMover->GetId(), itMap->first ) );

  001dc	8b 4d c4	 mov	 ecx, DWORD PTR _this$GSCopy$1$[ebp]
; File C:\Program Files\Microsoft Visual Studio\2022\Professional\VC\Tools\MSVC\14.44.35207\include\utility

; 274  :         : first(_STD forward<_Other1>(_Val1)), second(_STD forward<_Other2>(_Val2)) {

  001df	89 45 b8	 mov	 DWORD PTR $T9[ebp], eax
  001e2	8a 47 10	 mov	 al, BYTE PTR [edi+16]
  001e5	88 45 bc	 mov	 BYTE PTR $T9[ebp+4], al
; File C:\IAGOS\server\v18\Source\Source\_Common\EventLua.cpp

; 716  : 							m_mapSpawnedMonster.insert( make_pair( pMover->GetId(), itMap->first ) );

  001e8	8d 45 b8	 lea	 eax, DWORD PTR $T9[ebp]
  001eb	50		 push	 eax
  001ec	8d 85 68 ff ff
	ff		 lea	 eax, DWORD PTR $T2[ebp]
  001f2	50		 push	 eax
  001f3	8d 49 6c	 lea	 ecx, DWORD PTR [ecx+108]
  001f6	e8 00 00 00 00	 call	 ??$insert@U?$pair@KE@std@@$0A@@?$map@KEU?$less@K@std@@V?$allocator@U?$pair@$$CBKE@std@@@2@@std@@QAE?AU?$pair@V?$_Tree_iterator@V?$_Tree_val@U?$_Tree_simple_types@U?$pair@$$CBKE@std@@@std@@@std@@@std@@_N@1@$$QAU?$pair@KE@1@@Z ; std::map<unsigned long,unsigned char,std::less<unsigned long>,std::allocator<std::pair<unsigned long const ,unsigned char> > >::insert<std::pair<unsigned long,unsigned char>,0>
; File C:\IAGOS\server\v18\Source\Source\_Common\Obj.h

; 215  : 	D3DXVECTOR3		GetPos()	{ return m_vPos; }

  001fb	8b 4d d4	 mov	 ecx, DWORD PTR _pMover$1$[ebp]
; File C:\IAGOS\server\v18\Source\Source\_Common\EventLua.cpp

; 717  : 							OUTPUTDEBUGSTRING( "\nLua Spawn: type = MONSTER, index = %d, world = %d, x = %f, z = %f", pSI->dwId, pWorld->GetID(), pMover->GetPos().x, pMover->GetPos().z );

  001fe	83 ec 10	 sub	 esp, 16			; 00000010H
; File C:\IAGOS\server\v18\Source\Source\_Common\Obj.h

; 215  : 	D3DXVECTOR3		GetPos()	{ return m_vPos; }

  00201	f3 0f 7e 81 60
	01 00 00	 movq	 xmm0, QWORD PTR [ecx+352]
  00209	8b 81 68 01 00
	00		 mov	 eax, DWORD PTR [ecx+360]
  0020f	66 0f d6 45 94	 movq	 QWORD PTR $T6[ebp], xmm0
  00214	f3 0f 7e c0	 movq	 xmm0, xmm0
  00218	66 0f d6 45 88	 movq	 QWORD PTR $T5[ebp], xmm0
  0021d	89 45 9c	 mov	 DWORD PTR $T6[ebp+8], eax
  00220	f3 0f 10 45 9c	 movss	 xmm0, DWORD PTR $T6[ebp+8]
; File C:\IAGOS\server\v18\Source\Source\_Common\EventLua.cpp

; 717  : 							OUTPUTDEBUGSTRING( "\nLua Spawn: type = MONSTER, index = %d, world = %d, x = %f, z = %f", pSI->dwId, pWorld->GetID(), pMover->GetPos().x, pMover->GetPos().z );

  00225	8b 45 cc	 mov	 eax, DWORD PTR _pWorld$1$[ebp]
  00228	0f 5a c0	 cvtps2pd xmm0, xmm0
  0022b	f2 0f 11 44 24
	08		 movsd	 QWORD PTR [esp+8], xmm0
  00231	f3 0f 10 45 88	 movss	 xmm0, DWORD PTR $T5[ebp]
  00236	0f 5a c0	 cvtps2pd xmm0, xmm0
  00239	f2 0f 11 04 24	 movsd	 QWORD PTR [esp], xmm0
  0023e	ff 30		 push	 DWORD PTR [eax]
  00240	ff 76 04	 push	 DWORD PTR [esi+4]
  00243	68 00 00 00 00	 push	 OFFSET ??_C@_0ED@GONLAOPM@?6Lua?5Spawn?3?5type?5?$DN?5MONSTER?0?5ind@
  00248	e8 00 00 00 00	 call	 ?OUTPUTDEBUGSTRING@@YAXPBDZZ ; OUTPUTDEBUGSTRING
  0024d	83 c4 1c	 add	 esp, 28			; 0000001cH
  00250	e9 ce 01 00 00	 jmp	 $LN5@EventSpawn
$LN12@EventSpawn:

; 676  : 			{
; 677  : 				case OT_ITEM:
; 678  : 				{
; 679  : 					ItemProp* pProp = prj.GetItemProp( pSI->dwId );

  00255	8b 4e 04	 mov	 ecx, DWORD PTR [esi+4]
; File C:\IAGOS\server\v18\Source\Source\_Common\Project.h

; 1389 : 	VERIFY_RANGE_ASSERT( nIndex, 0, m_aPropItem.GetSize(), "GetItemProp range_error", NULL );

  00258	a1 40 02 00 00	 mov	 eax, DWORD PTR ?prj@@3VCProject@@A+576
  0025d	85 c9		 test	 ecx, ecx
  0025f	0f 88 a8 01 00
	00		 js	 $LN105@EventSpawn
  00265	3b c8		 cmp	 ecx, eax
  00267	0f 8d a0 01 00
	00		 jge	 $LN105@EventSpawn
; File C:\IAGOS\server\v18\Source\Source\_Common\data.h

; 270  : 	if( dwIndex >= (DWORD)m_nMaxIndex )

  0026d	72 04		 jb	 SHORT $LN110@EventSpawn

; 271  : 		return NULL;

  0026f	33 c0		 xor	 eax, eax
  00271	eb 08		 jmp	 SHORT $LN178@EventSpawn
$LN110@EventSpawn:

; 272  : 	return (T*) m_apOffset[ dwIndex ];

  00273	a1 30 02 00 00	 mov	 eax, DWORD PTR ?prj@@3VCProject@@A+560
  00278	8b 04 88	 mov	 eax, DWORD PTR [eax+ecx*4]
$LN178@EventSpawn:
; File C:\IAGOS\server\v18\Source\Source\_Common\EventLua.cpp

; 680  : 					if( pProp )

  0027b	89 45 d4	 mov	 DWORD PTR $T12[ebp], eax
  0027e	85 c0		 test	 eax, eax
  00280	0f 84 9d 01 00
	00		 je	 $LN5@EventSpawn
; File C:\IAGOS\server\v18\Source\Source\_Common\EventLua.h

; 222  : 		D3DXVECTOR3 GetPos() { return D3DXVECTOR3( (float)( xRandom( rect.left, rect.right ) ), 0.0f, (float)( xRandom( rect.top, rect.bottom ) ) ); }

  00286	ff 75 b0	 push	 DWORD PTR _sp$8[ebp+12]
  00289	ff 75 a8	 push	 DWORD PTR _sp$8[ebp+4]
  0028c	e8 00 00 00 00	 call	 ?xRandom@@YAKKK@Z	; xRandom
  00291	ff 75 c8	 push	 DWORD PTR _sp$2$[ebp]
  00294	ff 75 ac	 push	 DWORD PTR _sp$8[ebp+8]
  00297	66 0f 6e c0	 movd	 xmm0, eax
  0029b	f3 0f e6 c0	 cvtdq2pd xmm0, xmm0
  0029f	c1 e8 1f	 shr	 eax, 31			; 0000001fH
  002a2	f2 0f 58 04 c5
	00 00 00 00	 addsd	 xmm0, QWORD PTR __xmm@41f00000000000000000000000000000[eax*8]
  002ab	66 0f 5a c0	 cvtpd2ps xmm0, xmm0
  002af	f3 0f 11 45 d0	 movss	 DWORD PTR _fx$1$[ebp], xmm0
  002b4	e8 00 00 00 00	 call	 ?xRandom@@YAKKK@Z	; xRandom
; File C:\IAGOS\server\v18\Source\Source\DX_SDK\d3dx9math.inl

; 300  :     x = fx;

  002b9	f3 0f 10 4d d0	 movss	 xmm1, DWORD PTR _fx$1$[ebp]
; File C:\IAGOS\server\v18\Source\Source\_Common\EventLua.cpp

; 683  : 						v.y = pWorld->GetLandHeight( v.x, v.z ) + 1.0f;

  002be	83 c4 08	 add	 esp, 8
  002c1	8b 4d cc	 mov	 ecx, DWORD PTR _pWorld$1$[ebp]
; File C:\IAGOS\server\v18\Source\Source\DX_SDK\d3dx9math.inl

; 300  :     x = fx;

  002c4	f3 0f 11 4d d8	 movss	 DWORD PTR _v$13[ebp], xmm1
  002c9	66 0f 6e c0	 movd	 xmm0, eax
; File C:\IAGOS\server\v18\Source\Source\_Common\EventLua.h

; 222  : 		D3DXVECTOR3 GetPos() { return D3DXVECTOR3( (float)( xRandom( rect.left, rect.right ) ), 0.0f, (float)( xRandom( rect.top, rect.bottom ) ) ); }

  002cd	f3 0f e6 c0	 cvtdq2pd xmm0, xmm0
  002d1	c1 e8 1f	 shr	 eax, 31			; 0000001fH
; File C:\IAGOS\server\v18\Source\Source\DX_SDK\d3dx9math.inl

; 301  :     y = fy;

  002d4	c7 45 dc 00 00
	00 00		 mov	 DWORD PTR _v$13[ebp+4], 0
; File C:\IAGOS\server\v18\Source\Source\_Common\EventLua.h

; 222  : 		D3DXVECTOR3 GetPos() { return D3DXVECTOR3( (float)( xRandom( rect.left, rect.right ) ), 0.0f, (float)( xRandom( rect.top, rect.bottom ) ) ); }

  002db	f2 0f 58 04 c5
	00 00 00 00	 addsd	 xmm0, QWORD PTR __xmm@41f00000000000000000000000000000[eax*8]
  002e4	66 0f 5a c0	 cvtpd2ps xmm0, xmm0
; File C:\IAGOS\server\v18\Source\Source\_Common\EventLua.cpp

; 683  : 						v.y = pWorld->GetLandHeight( v.x, v.z ) + 1.0f;

  002e8	f3 0f 11 44 24
	04		 movss	 DWORD PTR [esp+4], xmm0
; File C:\IAGOS\server\v18\Source\Source\DX_SDK\d3dx9math.inl

; 302  :     z = fz;

  002ee	f3 0f 11 45 e0	 movss	 DWORD PTR _v$13[ebp+8], xmm0
; File C:\IAGOS\server\v18\Source\Source\_Common\EventLua.cpp

; 683  : 						v.y = pWorld->GetLandHeight( v.x, v.z ) + 1.0f;

  002f3	f3 0f 11 0c 24	 movss	 DWORD PTR [esp], xmm1
  002f8	e8 00 00 00 00	 call	 ?GetLandHeight@CWorld@@QAEMMM@Z ; CWorld::GetLandHeight

; 684  : 						CObj* pObj = CreateObj( D3DDEVICE, OT_ITEM, pProp->dwID );

  002fd	8b 45 d4	 mov	 eax, DWORD PTR $T12[ebp]
  00300	d9 e8		 fld1
  00302	6a 01		 push	 1
  00304	de c1		 faddp	 ST(1), ST(0)
  00306	ff 30		 push	 DWORD PTR [eax]
  00308	6a 04		 push	 4
  0030a	6a 00		 push	 0
  0030c	d9 5d dc	 fstp	 DWORD PTR _v$13[ebp+4]
  0030f	e8 00 00 00 00	 call	 ?CreateObj@@YAPAVCObj@@PAUIDirect3DDevice9@@KKH@Z ; CreateObj
  00314	83 c4 10	 add	 esp, 16			; 00000010H
  00317	89 45 d0	 mov	 DWORD PTR _pObj$1$[ebp], eax

; 685  : 						if( pObj )

  0031a	85 c0		 test	 eax, eax
  0031c	0f 84 01 01 00
	00		 je	 $LN5@EventSpawn

; 686  : 						{
; 687  : 							CItemElem* pItemElem	= new CItemElem;

  00322	68 b0 00 00 00	 push	 176			; 000000b0H
  00327	e8 00 00 00 00	 call	 ??2@YAPAXI@Z		; operator new
  0032c	83 c4 04	 add	 esp, 4
  0032f	89 45 a0	 mov	 DWORD PTR $T7[ebp], eax
  00332	c7 45 fc 00 00
	00 00		 mov	 DWORD PTR __$EHRec$[ebp+8], 0
  00339	85 c0		 test	 eax, eax
  0033b	74 0e		 je	 SHORT $LN19@EventSpawn
  0033d	8b c8		 mov	 ecx, eax
  0033f	e8 00 00 00 00	 call	 ??0CItemElem@@QAE@XZ	; CItemElem::CItemElem
  00344	8b c8		 mov	 ecx, eax
  00346	89 45 c8	 mov	 DWORD PTR $T11[ebp], eax
  00349	eb 05		 jmp	 SHORT $LN20@EventSpawn
$LN19@EventSpawn:
  0034b	33 c9		 xor	 ecx, ecx
  0034d	89 4d c8	 mov	 DWORD PTR $T11[ebp], ecx
$LN20@EventSpawn:

; 688  : 							pItemElem->m_dwItemId	= pProp->dwID;

  00350	8b 55 d4	 mov	 edx, DWORD PTR $T12[ebp]
  00353	c7 45 fc ff ff
	ff ff		 mov	 DWORD PTR __$EHRec$[ebp+8], -1
  0035a	8b 02		 mov	 eax, DWORD PTR [edx]
  0035c	89 41 0c	 mov	 DWORD PTR [ecx+12], eax

; 689  : 							pItemElem->m_nItemNum	= 1;

  0035f	b8 01 00 00 00	 mov	 eax, 1
  00364	66 89 41 74	 mov	 WORD PTR [ecx+116], ax

; 690  : 							pItemElem->m_nHitPoint	= pProp->dwEndurance;

  00368	8b 82 90 00 00
	00		 mov	 eax, DWORD PTR [edx+144]
  0036e	89 41 70	 mov	 DWORD PTR [ecx+112], eax

; 691  : 							pItemElem->SetSerialNumber();

  00371	e8 00 00 00 00	 call	 ?SetSerialNumber@CItemBase@@QAEXXZ ; CItemBase::SetSerialNumber

; 692  : 							( (CItem*)pObj )->m_dwDropTime	= g_tmCurrent + MIN( 1440 );	// 24˝Ă°Ł ŔŻÁö

  00376	a1 00 00 00 00	 mov	 eax, DWORD PTR ?g_tmCurrent@@3KA ; g_tmCurrent
  0037b	8b 4d d0	 mov	 ecx, DWORD PTR _pObj$1$[ebp]
  0037e	05 00 5c 26 05	 add	 eax, 86400000		; 05265c00H
  00383	89 81 3c 02 00
	00		 mov	 DWORD PTR [ecx+572], eax

; 693  : 							( (CItem*)pObj )->m_pItemBase	= pItemElem;

  00389	8b 45 c8	 mov	 eax, DWORD PTR $T11[ebp]
  0038c	89 81 30 02 00
	00		 mov	 DWORD PTR [ecx+560], eax

; 694  : 							pObj->SetPos( v );

  00392	8d 45 d8	 lea	 eax, DWORD PTR _v$13[ebp]
  00395	50		 push	 eax
  00396	e8 00 00 00 00	 call	 ?SetPos@CObj@@QAEXABUD3DXVECTOR3@@@Z ; CObj::SetPos

; 695  : 							pWorld->ADDOBJ( pObj, TRUE, nDefaultLayer );

  0039b	8b 4d cc	 mov	 ecx, DWORD PTR _pWorld$1$[ebp]
  0039e	6a 00		 push	 0
  003a0	6a 01		 push	 1
  003a2	ff 75 d0	 push	 DWORD PTR _pObj$1$[ebp]
  003a5	e8 00 00 00 00	 call	 ?AddObj@CWorld@@QAEHPAVCObj@@HH@Z ; CWorld::AddObj
; File C:\IAGOS\server\v18\Source\Source\_Common\Obj.h

; 215  : 	D3DXVECTOR3		GetPos()	{ return m_vPos; }

  003aa	8b 4d d0	 mov	 ecx, DWORD PTR _pObj$1$[ebp]
; File C:\IAGOS\server\v18\Source\Source\_Common\EventLua.cpp

; 696  : 							OUTPUTDEBUGSTRING( "\nLua Spawn: type = ITEM, index = %d, world = %d, x = %f, z = %f", pItemElem->m_dwItemId, pWorld->GetID(), pObj->GetPos().x, pObj->GetPos().z );

  003ad	83 ec 10	 sub	 esp, 16			; 00000010H
; File C:\IAGOS\server\v18\Source\Source\_Common\Obj.h

; 215  : 	D3DXVECTOR3		GetPos()	{ return m_vPos; }

  003b0	f3 0f 7e 81 60
	01 00 00	 movq	 xmm0, QWORD PTR [ecx+352]
  003b8	8b 81 68 01 00
	00		 mov	 eax, DWORD PTR [ecx+360]
  003be	66 0f d6 85 7c
	ff ff ff	 movq	 QWORD PTR $T4[ebp], xmm0
  003c6	f3 0f 7e c0	 movq	 xmm0, xmm0
  003ca	66 0f d6 85 70
	ff ff ff	 movq	 QWORD PTR $T3[ebp], xmm0
  003d2	89 45 84	 mov	 DWORD PTR $T4[ebp+8], eax
  003d5	f3 0f 10 45 84	 movss	 xmm0, DWORD PTR $T4[ebp+8]
; File C:\IAGOS\server\v18\Source\Source\_Common\EventLua.cpp

; 696  : 							OUTPUTDEBUGSTRING( "\nLua Spawn: type = ITEM, index = %d, world = %d, x = %f, z = %f", pItemElem->m_dwItemId, pWorld->GetID(), pObj->GetPos().x, pObj->GetPos().z );

  003da	8b 45 cc	 mov	 eax, DWORD PTR _pWorld$1$[ebp]
  003dd	0f 5a c0	 cvtps2pd xmm0, xmm0
  003e0	f2 0f 11 44 24
	08		 movsd	 QWORD PTR [esp+8], xmm0
  003e6	f3 0f 10 85 70
	ff ff ff	 movss	 xmm0, DWORD PTR $T3[ebp]
  003ee	0f 5a c0	 cvtps2pd xmm0, xmm0
  003f1	f2 0f 11 04 24	 movsd	 QWORD PTR [esp], xmm0
  003f6	ff 30		 push	 DWORD PTR [eax]
  003f8	8b 45 c8	 mov	 eax, DWORD PTR $T11[ebp]
  003fb	ff 70 0c	 push	 DWORD PTR [eax+12]
  003fe	68 00 00 00 00	 push	 OFFSET ??_C@_0EA@NGBNDEML@?6Lua?5Spawn?3?5type?5?$DN?5ITEM?0?5index?5@
  00403	e8 00 00 00 00	 call	 ?OUTPUTDEBUGSTRING@@YAXPBDZZ ; OUTPUTDEBUGSTRING
  00408	83 c4 1c	 add	 esp, 28			; 0000001cH
  0040b	eb 16		 jmp	 SHORT $LN5@EventSpawn
$LN105@EventSpawn:
; File C:\IAGOS\server\v18\Source\Source\_Common\Project.h

; 579  : 	LPCTSTR szErr = Error( _T( "%s min:%d, max:%d, index:%d" ), szMsg, nMin, nMax, nIndex ); 

  0040d	51		 push	 ecx
  0040e	50		 push	 eax
  0040f	6a 00		 push	 0
  00411	68 00 00 00 00	 push	 OFFSET ??_C@_0BI@BEIFNGEL@GetItemProp?5range_error@
  00416	68 00 00 00 00	 push	 OFFSET ??_C@_0BM@HMFGHCP@?$CFs?5min?3?$CFd?0?5max?3?$CFd?0?5index?3?$CFd@
  0041b	e8 00 00 00 00	 call	 ?Error@@YAPBDPBDZZ	; Error
  00420	83 c4 14	 add	 esp, 20			; 00000014H
$LN5@EventSpawn:
; File C:\IAGOS\server\v18\Source\Source\_Common\EventLua.cpp

; 664  : 		for( VECSPAWNINFO::iterator itVec=pVecSP->begin(); itVec!=pVecSP->end(); itVec++ )

  00423	8b 55 c4	 mov	 edx, DWORD PTR _this$GSCopy$1$[ebp]
; File C:\Program Files\Microsoft Visual Studio\2022\Professional\VC\Tools\MSVC\14.44.35207\include\vector

; 82   :         ++_Ptr;

  00426	83 c6 10	 add	 esi, 16			; 00000010H

; 176  :         return !(*this == _Right);

  00429	3b 77 18	 cmp	 esi, DWORD PTR [edi+24]
; File C:\IAGOS\server\v18\Source\Source\_Common\EventLua.cpp

; 664  : 		for( VECSPAWNINFO::iterator itVec=pVecSP->begin(); itVec!=pVecSP->end(); itVec++ )

  0042c	0f 85 1e fc ff
	ff		 jne	 $LL7@EventSpawn
$LN2@EventSpawn:
; File C:\Program Files\Microsoft Visual Studio\2022\Professional\VC\Tools\MSVC\14.44.35207\include\xtree

; 198  :         _Mybase::operator++();

  00432	8d 4d c0	 lea	 ecx, DWORD PTR _itMap$10[ebp]
  00435	e8 00 00 00 00	 call	 ??E?$_Tree_unchecked_const_iterator@V?$_Tree_val@U?$_Tree_simple_types@U?$pair@$$CBEV?$vector@U__SPAWNINFO@CEventLua@@V?$allocator@U__SPAWNINFO@CEventLua@@@std@@@std@@@std@@@std@@@std@@U_Iterator_base0@2@@std@@QAEAAV01@XZ ; std::_Tree_unchecked_const_iterator<std::_Tree_val<std::_Tree_simple_types<std::pair<unsigned char const ,std::vector<CEventLua::__SPAWNINFO,std::allocator<CEventLua::__SPAWNINFO> > > > >,std::_Iterator_base0>::operator++

; 237  :         return !(*this == _Right);

  0043a	8b 55 c4	 mov	 edx, DWORD PTR _this$GSCopy$1$[ebp]
  0043d	8b 7d c0	 mov	 edi, DWORD PTR _itMap$10[ebp]
  00440	3b 7a 5c	 cmp	 edi, DWORD PTR [edx+92]
; File C:\IAGOS\server\v18\Source\Source\_Common\EventLua.cpp

; 661  : 	for( map<BYTE, VECSPAWNINFO>::iterator itMap=m_mapSpawnList.begin(); itMap!=m_mapSpawnList.end(); itMap++ )

  00443	0f 85 f9 fb ff
	ff		 jne	 $LL4@EventSpawn
$LN3@EventSpawn:

; 718  : 						}
; 719  : 					}
; 720  : 					break;
; 721  : 				}
; 722  : 			}	// switch
; 723  : 		}	// for vector
; 724  : 	}	// for map
; 725  : 	
; 726  : 	DeleteEndEventProcess();

  00449	8b ca		 mov	 ecx, edx
  0044b	e8 00 00 00 00	 call	 ?DeleteEndEventProcess@CEventLua@@QAEXXZ ; CEventLua::DeleteEndEventProcess

; 727  : }

  00450	8b 4d f4	 mov	 ecx, DWORD PTR __$EHRec$[ebp]
  00453	64 89 0d 00 00
	00 00		 mov	 DWORD PTR fs:0, ecx
  0045a	59		 pop	 ecx
  0045b	5f		 pop	 edi
  0045c	5e		 pop	 esi
  0045d	8b 4d f0	 mov	 ecx, DWORD PTR __$ArrayPad$[ebp]
  00460	33 cd		 xor	 ecx, ebp
  00462	e8 00 00 00 00	 call	 @__security_check_cookie@4
  00467	8b e5		 mov	 esp, ebp
  00469	5d		 pop	 ebp
  0046a	c3		 ret	 0
_TEXT	ENDS
;	COMDAT text$x
text$x	SEGMENT
__unwindfunclet$?EventSpawnProcess@CEventLua@@QAEXXZ$0:
  00000	68 b0 00 00 00	 push	 176			; 000000b0H
  00005	8b 45 a0	 mov	 eax, DWORD PTR $T7[ebp]
  00008	50		 push	 eax
  00009	e8 00 00 00 00	 call	 ??3@YAXPAXI@Z		; operator delete
  0000e	83 c4 08	 add	 esp, 8
  00011	c3		 ret	 0
  00012	cc		 int	 3
  00013	cc		 int	 3
  00014	cc		 int	 3
  00015	cc		 int	 3
  00016	cc		 int	 3
__ehhandler$?EventSpawnProcess@CEventLua@@QAEXXZ:
  00017	90		 npad	 1
  00018	90		 npad	 1
  00019	8b 54 24 08	 mov	 edx, DWORD PTR [esp+8]
  0001d	8d 42 0c	 lea	 eax, DWORD PTR [edx+12]
  00020	8b 8a 68 ff ff
	ff		 mov	 ecx, DWORD PTR [edx-152]
  00026	33 c8		 xor	 ecx, eax
  00028	e8 00 00 00 00	 call	 @__security_check_cookie@4
  0002d	8b 4a fc	 mov	 ecx, DWORD PTR [edx-4]
  00030	33 c8		 xor	 ecx, eax
  00032	e8 00 00 00 00	 call	 @__security_check_cookie@4
  00037	b8 00 00 00 00	 mov	 eax, OFFSET __ehfuncinfo$?EventSpawnProcess@CEventLua@@QAEXXZ
  0003c	e9 00 00 00 00	 jmp	 ___CxxFrameHandler3
text$x	ENDS
?EventSpawnProcess@CEventLua@@QAEXXZ ENDP		; CEventLua::EventSpawnProcess
; Function compile flags: /Ogtp
; File C:\IAGOS\server\v18\Source\Source\_Common\EventLua.cpp
; File C:\IAGOS\server\v18\Source\Source\_Common\LuaBase.h
; File C:\IAGOS\server\v18\Source\Source\_Common\EventLua.cpp
; File C:\IAGOS\server\v18\Source\Source\_Common\LuaBase.h
; File C:\IAGOS\server\v18\Source\Source\_Common\EventLua.cpp
; File C:\IAGOS\server\v18\Source\Source\_Common\LuaBase.h
; File C:\IAGOS\server\v18\Source\Source\_Common\EventLua.cpp
; File C:\IAGOS\server\v18\Source\Source\_Common\LuaBase.h
; File C:\IAGOS\server\v18\Source\Source\_Common\EventLua.cpp
; File C:\Program Files\Microsoft Visual Studio\2022\Professional\VC\Tools\MSVC\14.44.35207\include\vector
; File C:\IAGOS\server\v18\Source\Source\_Common\LuaBase.h
; File C:\IAGOS\server\v18\Source\Source\_Common\EventLua.cpp
; File C:\IAGOS\server\v18\Source\Source\_Common\LuaBase.h
; File C:\IAGOS\server\v18\Source\Source\_Common\EventLua.cpp
; File C:\IAGOS\server\v18\Source\Source\_Common\EventLua.h
; File C:\IAGOS\server\v18\Source\Source\_Common\EventLua.cpp
; File C:\IAGOS\server\v18\Source\Source\_Common\EventLua.h
; File C:\IAGOS\server\v18\Source\Source\_Common\EventLua.cpp
; File C:\Program Files\Microsoft Visual Studio\2022\Professional\VC\Tools\MSVC\14.44.35207\include\vector
; File C:\IAGOS\server\v18\Source\Source\_Common\EventLua.cpp
; File C:\IAGOS\server\v18\Source\Source\_Common\EventLua.h
; File C:\Program Files\Microsoft Visual Studio\2022\Professional\VC\Tools\MSVC\14.44.35207\include\vector
; File C:\Program Files\Microsoft Visual Studio\2022\Professional\VC\Tools\MSVC\14.44.35207\include\xutility
; File C:\Program Files\Microsoft Visual Studio\2022\Professional\VC\Tools\MSVC\14.44.35207\include\vector
; File C:\IAGOS\server\v18\Source\Source\_Common\EventLua.cpp
; File C:\Program Files\Microsoft Visual Studio\2022\Professional\VC\Tools\MSVC\14.44.35207\include\utility
; File C:\IAGOS\server\v18\Source\Source\_Common\EventLua.cpp
; File C:\Program Files\Microsoft Visual Studio\2022\Professional\VC\Tools\MSVC\14.44.35207\include\utility
; File C:\IAGOS\server\v18\Source\Source\_Common\EventLua.cpp
; File C:\IAGOS\server\v18\Source\Source\_Common\LuaBase.h
; File C:\IAGOS\server\v18\Source\Source\_Common\EventLua.cpp
; File C:\Program Files\Microsoft Visual Studio\2022\Professional\VC\Tools\MSVC\14.44.35207\include\xtree
; File C:\IAGOS\server\v18\Source\Source\_Common\EventLua.cpp
; File C:\Program Files\Microsoft Visual Studio\2022\Professional\VC\Tools\MSVC\14.44.35207\include\xtree
; File C:\Program Files\Microsoft Visual Studio\2022\Professional\VC\Tools\MSVC\14.44.35207\include\type_traits
; File C:\Program Files\Microsoft Visual Studio\2022\Professional\VC\Tools\MSVC\14.44.35207\include\xtree
; File C:\IAGOS\server\v18\Source\Source\_Common\EventLua.cpp
; File C:\Program Files\Microsoft Visual Studio\2022\Professional\VC\Tools\MSVC\14.44.35207\include\xutility
; File C:\IAGOS\server\v18\Source\Source\_Common\EventLua.cpp
; File C:\Program Files\Microsoft Visual Studio\2022\Professional\VC\Tools\MSVC\14.44.35207\include\xutility
; File C:\Program Files\Microsoft Visual Studio\2022\Professional\VC\Tools\MSVC\14.44.35207\include\vector
; File C:\Program Files\Microsoft Visual Studio\2022\Professional\VC\Tools\MSVC\14.44.35207\include\xutility
; File C:\Program Files\Microsoft Visual Studio\2022\Professional\VC\Tools\MSVC\14.44.35207\include\vector
; File C:\Program Files\Microsoft Visual Studio\2022\Professional\VC\Tools\MSVC\14.44.35207\include\xutility
; File C:\Program Files\Microsoft Visual Studio\2022\Professional\VC\Tools\MSVC\14.44.35207\include\vector
; File C:\Program Files\Microsoft Visual Studio\2022\Professional\VC\Tools\MSVC\14.44.35207\include\xmemory
; File C:\Program Files\Microsoft Visual Studio\2022\Professional\VC\Tools\MSVC\14.44.35207\include\vector
; File C:\Program Files\Microsoft Visual Studio\2022\Professional\VC\Tools\MSVC\14.44.35207\include\xmemory
; File C:\Program Files\Microsoft Visual Studio\2022\Professional\VC\Tools\MSVC\14.44.35207\include\vector
; File C:\Program Files\Microsoft Visual Studio\2022\Professional\VC\Tools\MSVC\14.44.35207\include\xmemory
; File C:\Program Files\Microsoft Visual Studio\2022\Professional\VC\Tools\MSVC\14.44.35207\include\vector
; File C:\Program Files\Microsoft Visual Studio\2022\Professional\VC\Tools\MSVC\14.44.35207\include\xmemory
; File C:\Program Files\Microsoft Visual Studio\2022\Professional\VC\Tools\MSVC\14.44.35207\include\vector
; File C:\Program Files\Microsoft Visual Studio\2022\Professional\VC\Tools\MSVC\14.44.35207\include\xmemory
; File C:\Program Files\Microsoft Visual Studio\2022\Professional\VC\Tools\MSVC\14.44.35207\include\vector
; File C:\Program Files\Microsoft Visual Studio\2022\Professional\VC\Tools\MSVC\14.44.35207\include\xutility
; File C:\Program Files\Microsoft Visual Studio\2022\Professional\VC\Tools\MSVC\14.44.35207\include\vector
; File C:\Program Files\Microsoft Visual Studio\2022\Professional\VC\Tools\MSVC\14.44.35207\include\xutility
; File C:\Program Files\Microsoft Visual Studio\2022\Professional\VC\Tools\MSVC\14.44.35207\include\vector
; File C:\Program Files\Microsoft Visual Studio\2022\Professional\VC\Tools\MSVC\14.44.35207\include\xutility
; File C:\Program Files\Microsoft Visual Studio\2022\Professional\VC\Tools\MSVC\14.44.35207\include\vector
; File C:\Program Files\Microsoft Visual Studio\2022\Professional\VC\Tools\MSVC\14.44.35207\include\utility
; File C:\Program Files\Microsoft Visual Studio\2022\Professional\VC\Tools\MSVC\14.44.35207\include\vector
; File C:\Program Files\Microsoft Visual Studio\2022\Professional\VC\Tools\MSVC\14.44.35207\include\xmemory
; File C:\Program Files\Microsoft Visual Studio\2022\Professional\VC\Tools\MSVC\14.44.35207\include\vector
; File C:\Program Files\Microsoft Visual Studio\2022\Professional\VC\Tools\MSVC\14.44.35207\include\xmemory
; File C:\Program Files\Microsoft Visual Studio\2022\Professional\VC\Tools\MSVC\14.44.35207\include\vector
; File C:\Program Files\Microsoft Visual Studio\2022\Professional\VC\Tools\MSVC\14.44.35207\include\xmemory
; File C:\Program Files\Microsoft Visual Studio\2022\Professional\VC\Tools\MSVC\14.44.35207\include\vector
; File C:\Program Files\Microsoft Visual Studio\2022\Professional\VC\Tools\MSVC\14.44.35207\include\xtree
; File C:\IAGOS\server\v18\Source\Source\_Common\EventLua.cpp
; File C:\Program Files\Microsoft Visual Studio\2022\Professional\VC\Tools\MSVC\14.44.35207\include\xtree
; File C:\Program Files\Microsoft Visual Studio\2022\Professional\VC\Tools\MSVC\14.44.35207\include\type_traits
; File C:\Program Files\Microsoft Visual Studio\2022\Professional\VC\Tools\MSVC\14.44.35207\include\xtree
; File C:\Program Files\Microsoft Visual Studio\2022\Professional\VC\Tools\MSVC\14.44.35207\include\xmemory
; File C:\Program Files\Microsoft Visual Studio\2022\Professional\VC\Tools\MSVC\14.44.35207\include\xtree
; File C:\Program Files\Microsoft Visual Studio\2022\Professional\VC\Tools\MSVC\14.44.35207\include\xmemory
; File C:\Program Files\Microsoft Visual Studio\2022\Professional\VC\Tools\MSVC\14.44.35207\include\utility
; File C:\Program Files\Microsoft Visual Studio\2022\Professional\VC\Tools\MSVC\14.44.35207\include\xmemory
; File C:\Program Files\Microsoft Visual Studio\2022\Professional\VC\Tools\MSVC\14.44.35207\include\utility
; File C:\Program Files\Microsoft Visual Studio\2022\Professional\VC\Tools\MSVC\14.44.35207\include\vector
; File C:\Program Files\Microsoft Visual Studio\2022\Professional\VC\Tools\MSVC\14.44.35207\include\xtree
; File C:\Program Files\Microsoft Visual Studio\2022\Professional\VC\Tools\MSVC\14.44.35207\include\vector
; File C:\Program Files\Microsoft Visual Studio\2022\Professional\VC\Tools\MSVC\14.44.35207\include\xtree
; File C:\Program Files\Microsoft Visual Studio\2022\Professional\VC\Tools\MSVC\14.44.35207\include\utility
; File C:\Program Files\Microsoft Visual Studio\2022\Professional\VC\Tools\MSVC\14.44.35207\include\xtree
; File C:\Program Files\Microsoft Visual Studio\2022\Professional\VC\Tools\MSVC\14.44.35207\include\vector
; File C:\IAGOS\server\v18\Source\Source\_Common\EventLua.cpp
; File C:\Program Files\Microsoft Visual Studio\2022\Professional\VC\Tools\MSVC\14.44.35207\include\vector
; File C:\Program Files\Microsoft Visual Studio\2022\Professional\VC\Tools\MSVC\14.44.35207\include\xmemory
; File C:\Program Files\Microsoft Visual Studio\2022\Professional\VC\Tools\MSVC\14.44.35207\include\vector
; File C:\IAGOS\server\v18\Source\Source\_Common\EventLua.cpp
; File C:\Program Files\Microsoft Visual Studio\2022\Professional\VC\Tools\MSVC\14.44.35207\include\xutility
; File C:\Program Files\Microsoft Visual Studio\2022\Professional\VC\Tools\MSVC\14.44.35207\include\vector
; File C:\IAGOS\server\v18\Source\Source\_Common\EventLua.cpp
; File C:\Program Files\Microsoft Visual Studio\2022\Professional\VC\Tools\MSVC\14.44.35207\include\vector
; File C:\IAGOS\server\v18\Source\Source\_Common\EventLua.cpp
; File C:\Program Files\Microsoft Visual Studio\2022\Professional\VC\Tools\MSVC\14.44.35207\include\vector
; File C:\IAGOS\server\v18\Source\Source\_Common\EventLua.cpp
; File C:\Program Files\Microsoft Visual Studio\2022\Professional\VC\Tools\MSVC\14.44.35207\include\vector
; File C:\IAGOS\server\v18\Source\Source\_Common\EventLua.cpp
; File C:\Program Files\Microsoft Visual Studio\2022\Professional\VC\Tools\MSVC\14.44.35207\include\xtree
; File C:\Program Files\Microsoft Visual Studio\2022\Professional\VC\Tools\MSVC\14.44.35207\include\type_traits
; File C:\Program Files\Microsoft Visual Studio\2022\Professional\VC\Tools\MSVC\14.44.35207\include\xtree
; File C:\IAGOS\server\v18\Source\Source\_Common\EventLua.cpp
; File C:\Program Files\Microsoft Visual Studio\2022\Professional\VC\Tools\MSVC\14.44.35207\include\xtree
; File C:\IAGOS\server\v18\Source\Source\_Common\EventLua.cpp
; File C:\Program Files\Microsoft Visual Studio\2022\Professional\VC\Tools\MSVC\14.44.35207\include\xtree
; File C:\Program Files\Microsoft Visual Studio\2022\Professional\VC\Tools\MSVC\14.44.35207\include\vector
; File C:\Program Files\Microsoft Visual Studio\2022\Professional\VC\Tools\MSVC\14.44.35207\include\xmemory
; File C:\IAGOS\server\v18\Source\Source\_Common\EventLua.cpp
; File C:\Program Files\Microsoft Visual Studio\2022\Professional\VC\Tools\MSVC\14.44.35207\include\xtree
; File C:\Program Files\Microsoft Visual Studio\2022\Professional\VC\Tools\MSVC\14.44.35207\include\vector
; File C:\Program Files\Microsoft Visual Studio\2022\Professional\VC\Tools\MSVC\14.44.35207\include\xmemory
; File C:\IAGOS\server\v18\Source\Source\_Common\EventLua.cpp
;	COMDAT ?SetSpawnEvent@CEventLua@@AAEXEH@Z
_TEXT	SEGMENT
$T2 = -88						; size = 16
_vecTemp$3 = -72					; size = 12
__Loc$4 = -72						; size = 12
__Loc$5 = -60						; size = 12
__Loc$6 = -60						; size = 12
$T7 = -56						; size = 8
$T8 = -48						; size = 12
$T9 = -44						; size = 8
tv2483 = -44						; size = 8
tv2489 = -44						; size = 8
$T10 = -36						; size = 16
$T11 = -28						; size = 8
tv2496 = -28						; size = 8
tv2416 = -20						; size = 4
_nId$1$ = -13						; size = 1
__$EHRec$ = -12						; size = 12
_nId$ = 8						; size = 1
__First$1$ = 8						; size = 4
$T12 = 8						; size = 4
_bState$ = 12						; size = 4
_dwId$1$ = 12						; size = 4
tv2412 = 12						; size = 4
__Ptr$1$ = 12						; size = 4
__Oldsize$1$ = 12					; size = 4
$T13 = 12						; size = 4
?SetSpawnEvent@CEventLua@@AAEXEH@Z PROC			; CEventLua::SetSpawnEvent, COMDAT
; _this$ = ecx

; 603  : {

  00000	55		 push	 ebp
  00001	8b ec		 mov	 ebp, esp
  00003	6a ff		 push	 -1
  00005	68 00 00 00 00	 push	 __ehhandler$?SetSpawnEvent@CEventLua@@AAEXEH@Z
  0000a	64 a1 00 00 00
	00		 mov	 eax, DWORD PTR fs:0
  00010	50		 push	 eax
  00011	83 ec 4c	 sub	 esp, 76			; 0000004cH
  00014	53		 push	 ebx
  00015	56		 push	 esi
  00016	57		 push	 edi
  00017	a1 00 00 00 00	 mov	 eax, DWORD PTR ___security_cookie
  0001c	33 c5		 xor	 eax, ebp
  0001e	50		 push	 eax
  0001f	8d 45 f4	 lea	 eax, DWORD PTR __$EHRec$[ebp]
  00022	64 a3 00 00 00
	00		 mov	 DWORD PTR fs:0, eax
  00028	8b f9		 mov	 edi, ecx

; 604  : 	if( m_Lua.GetLuaFunction( "GetSpawn" ) )

  0002a	8d 77 08	 lea	 esi, DWORD PTR [edi+8]
  0002d	68 00 00 00 00	 push	 OFFSET ??_C@_08HJLLONHE@GetSpawn@
  00032	8b ce		 mov	 ecx, esi
  00034	89 75 ec	 mov	 DWORD PTR tv2416[ebp], esi
  00037	e8 00 00 00 00	 call	 ?GetLuaFunction@CLuaBase@@QAEHPAD@Z ; CLuaBase::GetLuaFunction
  0003c	85 c0		 test	 eax, eax
  0003e	0f 84 60 04 00
	00		 je	 $LN188@SetSpawnEv

; 606  : 		m_Lua.PushNumber( nId );

  00044	8a 5d 08	 mov	 bl, BYTE PTR _nId$[ebp]
; File C:\IAGOS\server\v18\Source\Source\_Common\LuaBase.h

; 36   : 	void		PushNumber( double nValue )					{  lua_pushnumber( m_pLuaState, nValue );  }

  00047	83 ec 08	 sub	 esp, 8
; File C:\IAGOS\server\v18\Source\Source\_Common\EventLua.cpp

; 606  : 		m_Lua.PushNumber( nId );

  0004a	0f b6 c3	 movzx	 eax, bl
  0004d	88 5d f3	 mov	 BYTE PTR _nId$1$[ebp], bl
  00050	66 0f 6e c0	 movd	 xmm0, eax
  00054	f3 0f e6 c0	 cvtdq2pd xmm0, xmm0
; File C:\IAGOS\server\v18\Source\Source\_Common\LuaBase.h

; 36   : 	void		PushNumber( double nValue )					{  lua_pushnumber( m_pLuaState, nValue );  }

  00058	f2 0f 11 04 24	 movsd	 QWORD PTR [esp], xmm0
  0005d	ff 77 0c	 push	 DWORD PTR [edi+12]
  00060	e8 00 00 00 00	 call	 _lua_pushnumber
  00065	83 c4 0c	 add	 esp, 12			; 0000000cH
; File C:\IAGOS\server\v18\Source\Source\_Common\EventLua.cpp

; 607  : 		m_Lua.CallLuaFunction( 1, 2 );

  00068	8b ce		 mov	 ecx, esi
  0006a	6a 02		 push	 2
  0006c	6a 01		 push	 1
  0006e	e8 00 00 00 00	 call	 ?CallLuaFunction@CLuaBase@@QAEXHH@Z ; CLuaBase::CallLuaFunction
; File C:\IAGOS\server\v18\Source\Source\_Common\LuaBase.h

; 43   : 	double		ToNumber( int nStackPos )					{  return lua_tonumber( m_pLuaState, nStackPos );  }

  00073	6a 00		 push	 0
  00075	6a ff		 push	 -1
  00077	ff 77 0c	 push	 DWORD PTR [edi+12]
  0007a	e8 00 00 00 00	 call	 _lua_tonumberx
  0007f	83 c4 0c	 add	 esp, 12			; 0000000cH
; File C:\IAGOS\server\v18\Source\Source\_Common\EventLua.cpp

; 608  : 		int nSize = static_cast<int>( m_Lua.ToNumber( -1 ) );	m_Lua.Pop( 1 );

  00082	8b ce		 mov	 ecx, esi
; File C:\IAGOS\server\v18\Source\Source\_Common\LuaBase.h

; 43   : 	double		ToNumber( int nStackPos )					{  return lua_tonumber( m_pLuaState, nStackPos );  }

  00084	dd 5d e4	 fstp	 QWORD PTR tv2496[ebp]
; File C:\IAGOS\server\v18\Source\Source\_Common\EventLua.cpp

; 608  : 		int nSize = static_cast<int>( m_Lua.ToNumber( -1 ) );	m_Lua.Pop( 1 );

  00087	6a 01		 push	 1
  00089	e8 00 00 00 00	 call	 ?Pop@CLuaBase@@QAEXH@Z	; CLuaBase::Pop

; 609  : 
; 610  : 		if( bState && nSize > 0 )

  0008e	83 7d 0c 00	 cmp	 DWORD PTR _bState$[ebp], 0
  00092	0f 84 ba 03 00
	00		 je	 $LN8@SetSpawnEv
  00098	f2 0f 2c 45 e4	 cvttsd2si eax, QWORD PTR tv2496[ebp]
  0009d	85 c0		 test	 eax, eax
  0009f	0f 8e ad 03 00
	00		 jle	 $LN8@SetSpawnEv
; File C:\Program Files\Microsoft Visual Studio\2022\Professional\VC\Tools\MSVC\14.44.35207\include\vector

; 400  :     _CONSTEXPR20 _Vector_val() noexcept : _Myfirst(), _Mylast(), _Myend() {}

  000a5	c7 45 b8 00 00
	00 00		 mov	 DWORD PTR _vecTemp$3[ebp], 0
  000ac	c7 45 bc 00 00
	00 00		 mov	 DWORD PTR _vecTemp$3[ebp+4], 0
  000b3	c7 45 c0 00 00
	00 00		 mov	 DWORD PTR _vecTemp$3[ebp+8], 0
; File C:\IAGOS\server\v18\Source\Source\_Common\LuaBase.h

; 40   : 	void		PushNil()									{  lua_pushnil( m_pLuaState );  }

  000ba	ff 77 0c	 push	 DWORD PTR [edi+12]
; File C:\IAGOS\server\v18\Source\Source\_Common\EventLua.cpp

; 612  : 			VECSPAWNINFO vecTemp;

  000bd	c7 45 fc 00 00
	00 00		 mov	 DWORD PTR __$EHRec$[ebp+8], 0
; File C:\IAGOS\server\v18\Source\Source\_Common\LuaBase.h

; 40   : 	void		PushNil()									{  lua_pushnil( m_pLuaState );  }

  000c4	e8 00 00 00 00	 call	 _lua_pushnil

; 46   : 	int			TableLoop( int nStackPos )					{  return lua_next( m_pLuaState, nStackPos );  }	

  000c9	6a fe		 push	 -2			; fffffffeH
  000cb	ff 77 0c	 push	 DWORD PTR [edi+12]
  000ce	e8 00 00 00 00	 call	 _lua_next
  000d3	83 c4 0c	 add	 esp, 12			; 0000000cH
; File C:\IAGOS\server\v18\Source\Source\_Common\EventLua.cpp

; 614  : 			while( m_Lua.TableLoop( -2 ) )

  000d6	85 c0		 test	 eax, eax
  000d8	0f 84 d8 00 00
	00		 je	 $LN3@SetSpawnEv
  000de	66 90		 npad	 2
$LL2@SetSpawnEv:

; 615  : 			{
; 616  : 				int nType = static_cast<int>( m_Lua.GetFieldToNumber( -1, "nType" ) );

  000e0	68 00 00 00 00	 push	 OFFSET ??_C@_05OLBMEBNJ@nType@
  000e5	6a ff		 push	 -1
  000e7	8b ce		 mov	 ecx, esi
  000e9	e8 00 00 00 00	 call	 ?GetFieldToNumber@CLuaBase@@QAENHPAD@Z ; CLuaBase::GetFieldToNumber

; 617  : 				DWORD dwId = CScript::GetDefineNum( m_Lua.GetFieldToString( -1, "strId" ) );

  000ee	68 00 00 00 00	 push	 OFFSET ??_C@_05HADFBHMH@strId@
  000f3	dd 5d d4	 fstp	 QWORD PTR tv2489[ebp]
  000f6	f2 0f 2c 75 d4	 cvttsd2si esi, QWORD PTR tv2489[ebp]
  000fb	6a ff		 push	 -1
  000fd	8d 4f 08	 lea	 ecx, DWORD PTR [edi+8]
  00100	e8 00 00 00 00	 call	 ?GetFieldToString@CLuaBase@@QAEPBDHPAD@Z ; CLuaBase::GetFieldToString
  00105	50		 push	 eax
  00106	e8 00 00 00 00	 call	 ?GetDefineNum@CScript@@SAHPBD@Z ; CScript::GetDefineNum
  0010b	83 c4 04	 add	 esp, 4
  0010e	89 45 0c	 mov	 DWORD PTR _dwId$1$[ebp], eax

; 618  : 				DWORD dwInterval = static_cast<DWORD>( m_Lua.GetFieldToNumber( -1, "nDayNum" ) );

  00111	8d 4f 08	 lea	 ecx, DWORD PTR [edi+8]
  00114	68 00 00 00 00	 push	 OFFSET ??_C@_07CBDAANGL@nDayNum@
  00119	6a ff		 push	 -1
  0011b	e8 00 00 00 00	 call	 ?GetFieldToNumber@CLuaBase@@QAENHPAD@Z ; CLuaBase::GetFieldToNumber
  00120	dd 5d d4	 fstp	 QWORD PTR tv2483[ebp]
  00123	f2 0f 10 45 d4	 movsd	 xmm0, QWORD PTR tv2483[ebp]
  00128	e8 00 00 00 00	 call	 __dtol3
  0012d	8b c8		 mov	 ecx, eax
; File C:\IAGOS\server\v18\Source\Source\_Common\EventLua.h

; 205  : 		__SPAWNINFO( int nT, DWORD dwI, DWORD dwIT ) : nType( nT ), dwId( dwI ), dwInterval( dwIT ), dwTimeOut( 0 ) {}

  0012f	89 75 a8	 mov	 DWORD PTR $T2[ebp], esi
; File C:\IAGOS\server\v18\Source\Source\_Common\EventLua.cpp

; 619  : 				dwInterval = 86400000 / dwInterval;

  00132	33 d2		 xor	 edx, edx
; File C:\IAGOS\server\v18\Source\Source\_Common\EventLua.h

; 205  : 		__SPAWNINFO( int nT, DWORD dwI, DWORD dwIT ) : nType( nT ), dwId( dwI ), dwInterval( dwIT ), dwTimeOut( 0 ) {}

  00134	c7 45 b4 00 00
	00 00		 mov	 DWORD PTR $T2[ebp+12], 0
; File C:\IAGOS\server\v18\Source\Source\_Common\EventLua.cpp

; 619  : 				dwInterval = 86400000 / dwInterval;

  0013b	b8 00 5c 26 05	 mov	 eax, 86400000		; 05265c00H
  00140	f7 f1		 div	 ecx
; File C:\Program Files\Microsoft Visual Studio\2022\Professional\VC\Tools\MSVC\14.44.35207\include\vector

; 844  :         if (_Mylast != _My_data._Myend) {

  00142	8b 4d bc	 mov	 ecx, DWORD PTR _vecTemp$3[ebp+4]
; File C:\IAGOS\server\v18\Source\Source\_Common\EventLua.cpp

; 619  : 				dwInterval = 86400000 / dwInterval;

  00145	8b d0		 mov	 edx, eax
; File C:\IAGOS\server\v18\Source\Source\_Common\EventLua.h

; 205  : 		__SPAWNINFO( int nT, DWORD dwI, DWORD dwIT ) : nType( nT ), dwId( dwI ), dwInterval( dwIT ), dwTimeOut( 0 ) {}

  00147	8b 45 0c	 mov	 eax, DWORD PTR _dwId$1$[ebp]
  0014a	89 45 ac	 mov	 DWORD PTR $T2[ebp+4], eax
  0014d	89 55 b0	 mov	 DWORD PTR $T2[ebp+8], edx
; File C:\Program Files\Microsoft Visual Studio\2022\Professional\VC\Tools\MSVC\14.44.35207\include\vector

; 844  :         if (_Mylast != _My_data._Myend) {

  00150	3b 4d c0	 cmp	 ecx, DWORD PTR _vecTemp$3[ebp+8]
  00153	74 15		 je	 SHORT $LN26@SetSpawnEv
; File C:\Program Files\Microsoft Visual Studio\2022\Professional\VC\Tools\MSVC\14.44.35207\include\xutility

; 476  :         ::new (static_cast<void*>(_STD addressof(_Obj))) _Ty(_STD forward<_Types>(_Args)...);

  00155	89 31		 mov	 DWORD PTR [ecx], esi
  00157	89 41 04	 mov	 DWORD PTR [ecx+4], eax
  0015a	89 51 08	 mov	 DWORD PTR [ecx+8], edx
  0015d	c7 41 0c 00 00
	00 00		 mov	 DWORD PTR [ecx+12], 0
; File C:\Program Files\Microsoft Visual Studio\2022\Professional\VC\Tools\MSVC\14.44.35207\include\vector

; 869  :         ++_Mylast;

  00164	83 45 bc 10	 add	 DWORD PTR _vecTemp$3[ebp+4], 16 ; 00000010H

; 845  :             return _Emplace_back_with_unused_capacity(_STD forward<_Valty>(_Val)...);

  00168	eb 10		 jmp	 SHORT $LN25@SetSpawnEv
$LN26@SetSpawnEv:

; 846  :         }
; 847  : 
; 848  :         return *_Emplace_reallocate(_Mylast, _STD forward<_Valty>(_Val)...);

  0016a	8d 45 a8	 lea	 eax, DWORD PTR $T2[ebp]
  0016d	50		 push	 eax
  0016e	51		 push	 ecx
  0016f	8d 4d b8	 lea	 ecx, DWORD PTR _vecTemp$3[ebp]
  00172	e8 00 00 00 00	 call	 ??$_Emplace_reallocate@U__SPAWNINFO@CEventLua@@@?$vector@U__SPAWNINFO@CEventLua@@V?$allocator@U__SPAWNINFO@CEventLua@@@std@@@std@@AAEPAU__SPAWNINFO@CEventLua@@QAU23@$$QAU23@@Z ; std::vector<CEventLua::__SPAWNINFO,std::allocator<CEventLua::__SPAWNINFO> >::_Emplace_reallocate<CEventLua::__SPAWNINFO>
  00177	8b 45 0c	 mov	 eax, DWORD PTR _dwId$1$[ebp]
$LN25@SetSpawnEv:
; File C:\IAGOS\server\v18\Source\Source\_Common\EventLua.cpp

; 621  : 				if( nType == OT_MOVER )

  0017a	83 fe 05	 cmp	 esi, 5
  0017d	75 16		 jne	 SHORT $LN10@SetSpawnEv
; File C:\Program Files\Microsoft Visual Studio\2022\Professional\VC\Tools\MSVC\14.44.35207\include\utility

; 274  :         : first(_STD forward<_Other1>(_Val1)), second(_STD forward<_Other2>(_Val2)) {

  0017f	89 45 e4	 mov	 DWORD PTR $T11[ebp], eax
; File C:\IAGOS\server\v18\Source\Source\_Common\EventLua.cpp

; 622  : 					m_mapMonsterId.insert( make_pair( dwId, nId ) );

  00182	8d 4f 64	 lea	 ecx, DWORD PTR [edi+100]
  00185	8d 45 e4	 lea	 eax, DWORD PTR $T11[ebp]
; File C:\Program Files\Microsoft Visual Studio\2022\Professional\VC\Tools\MSVC\14.44.35207\include\utility

; 274  :         : first(_STD forward<_Other1>(_Val1)), second(_STD forward<_Other2>(_Val2)) {

  00188	88 5d e8	 mov	 BYTE PTR $T11[ebp+4], bl
; File C:\IAGOS\server\v18\Source\Source\_Common\EventLua.cpp

; 622  : 					m_mapMonsterId.insert( make_pair( dwId, nId ) );

  0018b	50		 push	 eax
  0018c	8d 45 c8	 lea	 eax, DWORD PTR $T7[ebp]
  0018f	50		 push	 eax
  00190	e8 00 00 00 00	 call	 ??$insert@U?$pair@KE@std@@$0A@@?$map@KEU?$less@K@std@@V?$allocator@U?$pair@$$CBKE@std@@@2@@std@@QAE?AU?$pair@V?$_Tree_iterator@V?$_Tree_val@U?$_Tree_simple_types@U?$pair@$$CBKE@std@@@std@@@std@@@std@@_N@1@$$QAU?$pair@KE@1@@Z ; std::map<unsigned long,unsigned char,std::less<unsigned long>,std::allocator<std::pair<unsigned long const ,unsigned char> > >::insert<std::pair<unsigned long,unsigned char>,0>
$LN10@SetSpawnEv:

; 623  : 				
; 624  : 				m_Lua.Pop( 1 );

  00195	8d 77 08	 lea	 esi, DWORD PTR [edi+8]
  00198	6a 01		 push	 1
  0019a	8b ce		 mov	 ecx, esi
  0019c	e8 00 00 00 00	 call	 ?Pop@CLuaBase@@QAEXH@Z	; CLuaBase::Pop
; File C:\IAGOS\server\v18\Source\Source\_Common\LuaBase.h

; 46   : 	int			TableLoop( int nStackPos )					{  return lua_next( m_pLuaState, nStackPos );  }	

  001a1	6a fe		 push	 -2			; fffffffeH
  001a3	ff 77 0c	 push	 DWORD PTR [edi+12]
  001a6	e8 00 00 00 00	 call	 _lua_next
  001ab	83 c4 08	 add	 esp, 8
; File C:\IAGOS\server\v18\Source\Source\_Common\EventLua.cpp

; 614  : 			while( m_Lua.TableLoop( -2 ) )

  001ae	85 c0		 test	 eax, eax
  001b0	0f 85 2a ff ff
	ff		 jne	 $LL2@SetSpawnEv
$LN3@SetSpawnEv:
; File C:\Program Files\Microsoft Visual Studio\2022\Professional\VC\Tools\MSVC\14.44.35207\include\xtree

; 1384 :         const _Tree_find_result<_Nodeptr> _Loc = _Find_lower_bound(_Keyval);

  001b6	8d 45 08	 lea	 eax, DWORD PTR _nId$[ebp]
  001b9	50		 push	 eax
  001ba	8d 45 c4	 lea	 eax, DWORD PTR __Loc$5[ebp]
; File C:\IAGOS\server\v18\Source\Source\_Common\EventLua.cpp

; 627  : 			map<BYTE, VECSPAWNINFO>::iterator it = m_mapSpawnList.find( nId );

  001bd	8d 77 5c	 lea	 esi, DWORD PTR [edi+92]
; File C:\Program Files\Microsoft Visual Studio\2022\Professional\VC\Tools\MSVC\14.44.35207\include\xtree

; 1384 :         const _Tree_find_result<_Nodeptr> _Loc = _Find_lower_bound(_Keyval);

  001c0	50		 push	 eax
  001c1	8b ce		 mov	 ecx, esi
  001c3	e8 00 00 00 00	 call	 ??$_Find_lower_bound@E@?$_Tree@V?$_Tmap_traits@EV?$vector@U__SPAWNINFO@CEventLua@@V?$allocator@U__SPAWNINFO@CEventLua@@@std@@@std@@U?$less@E@2@V?$allocator@U?$pair@$$CBEV?$vector@U__SPAWNINFO@CEventLua@@V?$allocator@U__SPAWNINFO@CEventLua@@@std@@@std@@@std@@@2@$0A@@std@@@std@@IBE?AU?$_Tree_find_result@PAU?$_Tree_node@U?$pair@$$CBEV?$vector@U__SPAWNINFO@CEventLua@@V?$allocator@U__SPAWNINFO@CEventLua@@@std@@@std@@@std@@PAX@std@@@1@ABE@Z ; std::_Tree<std::_Tmap_traits<unsigned char,std::vector<CEventLua::__SPAWNINFO,std::allocator<CEventLua::__SPAWNINFO> >,std::less<unsigned char>,std::allocator<std::pair<unsigned char const ,std::vector<CEventLua::__SPAWNINFO,std::allocator<CEventLua::__SPAWNINFO> > > >,0> >::_Find_lower_bound<unsigned char>

; 1624 :         return !_Bound->_Isnil && !_DEBUG_LT_PRED(_Getcomp(), _Keyval, _Traits::_Kfn(_Bound->_Myval));

  001c8	8b 45 cc	 mov	 eax, DWORD PTR __Loc$5[ebp+8]
  001cb	80 78 0d 00	 cmp	 BYTE PTR [eax+13], 0
  001cf	0f 85 12 01 00
	00		 jne	 $LN557@SetSpawnEv
; File C:\Program Files\Microsoft Visual Studio\2022\Professional\VC\Tools\MSVC\14.44.35207\include\type_traits

; 2380 :         return _Left < _Right;

  001d5	3a 58 10	 cmp	 bl, BYTE PTR [eax+16]
; File C:\Program Files\Microsoft Visual Studio\2022\Professional\VC\Tools\MSVC\14.44.35207\include\xtree

; 1624 :         return !_Bound->_Isnil && !_DEBUG_LT_PRED(_Getcomp(), _Keyval, _Traits::_Kfn(_Bound->_Myval));

  001d8	0f 82 09 01 00
	00		 jb	 $LN557@SetSpawnEv

; 37   :     _Tree_unchecked_const_iterator(_Nodeptr _Pnode, const _Mytree* _Plist) noexcept : _Ptr(_Pnode) {

  001de	3b 06		 cmp	 eax, DWORD PTR [esi]
; File C:\IAGOS\server\v18\Source\Source\_Common\EventLua.cpp

; 628  : 			if( it == m_mapSpawnList.end() )

  001e0	0f 84 01 01 00
	00		 je	 $LN557@SetSpawnEv
; File C:\Program Files\Microsoft Visual Studio\2022\Professional\VC\Tools\MSVC\14.44.35207\include\xutility

; 1662 :         return _Last - _First; // assume the iterator will do debug checking

  001e6	8b 5d bc	 mov	 ebx, DWORD PTR _vecTemp$3[ebp+4]
; File C:\IAGOS\server\v18\Source\Source\_Common\EventLua.cpp

; 631  : 				it->second.assign( vecTemp.begin(), vecTemp.end() );

  001e9	8d 70 14	 lea	 esi, DWORD PTR [eax+20]
; File C:\Program Files\Microsoft Visual Studio\2022\Professional\VC\Tools\MSVC\14.44.35207\include\xutility

; 1662 :         return _Last - _First; // assume the iterator will do debug checking

  001ec	8b 45 b8	 mov	 eax, DWORD PTR _vecTemp$3[ebp]
  001ef	2b d8		 sub	 ebx, eax
; File C:\Program Files\Microsoft Visual Studio\2022\Professional\VC\Tools\MSVC\14.44.35207\include\vector

; 1432 :         const auto _Oldcapacity = static_cast<size_type>(_Myend - _Myfirst);

  001f1	8b 56 08	 mov	 edx, DWORD PTR [esi+8]
  001f4	8b 0e		 mov	 ecx, DWORD PTR [esi]
  001f6	2b d1		 sub	 edx, ecx
; File C:\Program Files\Microsoft Visual Studio\2022\Professional\VC\Tools\MSVC\14.44.35207\include\xutility

; 1662 :         return _Last - _First; // assume the iterator will do debug checking

  001f8	c1 fb 04	 sar	 ebx, 4
; File C:\Program Files\Microsoft Visual Studio\2022\Professional\VC\Tools\MSVC\14.44.35207\include\vector

; 1432 :         const auto _Oldcapacity = static_cast<size_type>(_Myend - _Myfirst);

  001fb	c1 fa 04	 sar	 edx, 4
; File C:\Program Files\Microsoft Visual Studio\2022\Professional\VC\Tools\MSVC\14.44.35207\include\xutility

; 1662 :         return _Last - _First; // assume the iterator will do debug checking

  001fe	89 45 08	 mov	 DWORD PTR __First$1$[ebp], eax
; File C:\Program Files\Microsoft Visual Studio\2022\Professional\VC\Tools\MSVC\14.44.35207\include\vector

; 1433 :         if (_Newsize > _Oldcapacity) {

  00201	3b da		 cmp	 ebx, edx
  00203	76 7f		 jbe	 SHORT $LN493@SetSpawnEv

; 1703 :         if (_Newsize > max_size()) {

  00205	81 fb ff ff ff
	0f		 cmp	 ebx, 268435455		; 0fffffffH
  0020b	0f 87 b5 02 00
	00		 ja	 $LN558@SetSpawnEv

; 2011 :         if (_Oldcapacity > _Max - _Oldcapacity / 2) {

  00211	8b c2		 mov	 eax, edx
  00213	d1 e8		 shr	 eax, 1
  00215	89 45 0c	 mov	 DWORD PTR tv2412[ebp], eax
  00218	b8 ff ff ff 0f	 mov	 eax, 268435455		; 0fffffffH
  0021d	2b 45 0c	 sub	 eax, DWORD PTR tv2412[ebp]
  00220	3b d0		 cmp	 edx, eax
  00222	76 09		 jbe	 SHORT $LN503@SetSpawnEv

; 2012 :             return _Max; // geometric growth would overflow

  00224	c7 45 0c ff ff
	ff 0f		 mov	 DWORD PTR $T13[ebp], 268435455 ; 0fffffffH
  0022b	eb 0d		 jmp	 SHORT $LN504@SetSpawnEv
$LN503@SetSpawnEv:

; 2013 :         }
; 2014 : 
; 2015 :         const size_type _Geometric = _Oldcapacity + _Oldcapacity / 2;

  0022d	8b 45 0c	 mov	 eax, DWORD PTR tv2412[ebp]
  00230	03 c2		 add	 eax, edx

; 2016 : 
; 2017 :         if (_Geometric < _Newsize) {

  00232	3b c3		 cmp	 eax, ebx
  00234	0f 42 c3	 cmovb	 eax, ebx
  00237	89 45 0c	 mov	 DWORD PTR $T13[ebp], eax
$LN504@SetSpawnEv:

; 1709 :         if (_Myfirst) { // destroy and deallocate old array

  0023a	85 c9		 test	 ecx, ecx
  0023c	74 1d		 je	 SHORT $LN500@SetSpawnEv

; 1710 :             _Destroy_range(_Myfirst, _Mylast, _Al);
; 1711 :             _ASAN_VECTOR_REMOVE;
; 1712 :             _Al.deallocate(_Myfirst, static_cast<size_type>(_Myend - _Myfirst));

  0023e	52		 push	 edx
  0023f	51		 push	 ecx
  00240	8b ce		 mov	 ecx, esi
  00242	e8 00 00 00 00	 call	 ?deallocate@?$allocator@U__SPAWNINFO@CEventLua@@@std@@QAEXQAU__SPAWNINFO@CEventLua@@I@Z ; std::allocator<CEventLua::__SPAWNINFO>::deallocate

; 1713 : 
; 1714 :             _Myfirst = nullptr;

  00247	c7 06 00 00 00
	00		 mov	 DWORD PTR [esi], 0

; 1715 :             _Mylast  = nullptr;

  0024d	c7 46 04 00 00
	00 00		 mov	 DWORD PTR [esi+4], 0

; 1716 :             _Myend   = nullptr;

  00254	c7 46 08 00 00
	00 00		 mov	 DWORD PTR [esi+8], 0
$LN500@SetSpawnEv:

; 1717 :         }
; 1718 : 
; 1719 :         _Buy_raw(_Newcapacity);

  0025b	ff 75 0c	 push	 DWORD PTR $T13[ebp]
  0025e	8b ce		 mov	 ecx, esi
  00260	e8 00 00 00 00	 call	 ?_Buy_raw@?$vector@U__SPAWNINFO@CEventLua@@V?$allocator@U__SPAWNINFO@CEventLua@@@std@@@std@@AAEXI@Z ; std::vector<CEventLua::__SPAWNINFO,std::allocator<CEventLua::__SPAWNINFO> >::_Buy_raw

; 1436 :                 _Mylast = _STD _Uninitialized_copy_n(_STD move(_First), _Newsize, _Myfirst, _Al);

  00265	8b 36		 mov	 esi, DWORD PTR [esi]
; File C:\Program Files\Microsoft Visual Studio\2022\Professional\VC\Tools\MSVC\14.44.35207\include\xmemory

; 1930 :             _STD _Copy_memmove_n(_UFirst, _Count, _STD _Unfancy(_Dest));

  00267	56		 push	 esi
  00268	53		 push	 ebx
  00269	ff 75 08	 push	 DWORD PTR __First$1$[ebp]
  0026c	e8 00 00 00 00	 call	 ??$_Copy_memmove_n@PAU__SPAWNINFO@CEventLua@@PAU12@@std@@YAPAU__SPAWNINFO@CEventLua@@PAU12@I0@Z ; std::_Copy_memmove_n<CEventLua::__SPAWNINFO *,CEventLua::__SPAWNINFO *>
; File C:\Program Files\Microsoft Visual Studio\2022\Professional\VC\Tools\MSVC\14.44.35207\include\vector

; 1436 :                 _Mylast = _STD _Uninitialized_copy_n(_STD move(_First), _Newsize, _Myfirst, _Al);

  00271	8b 45 cc	 mov	 eax, DWORD PTR __Loc$5[ebp+8]
; File C:\Program Files\Microsoft Visual Studio\2022\Professional\VC\Tools\MSVC\14.44.35207\include\xmemory

; 1930 :             _STD _Copy_memmove_n(_UFirst, _Count, _STD _Unfancy(_Dest));

  00274	83 c4 0c	 add	 esp, 12			; 0000000cH

; 1931 :             _Dest += _Count;

  00277	c1 e3 04	 shl	 ebx, 4
  0027a	03 de		 add	 ebx, esi
; File C:\Program Files\Microsoft Visual Studio\2022\Professional\VC\Tools\MSVC\14.44.35207\include\vector

; 1436 :                 _Mylast = _STD _Uninitialized_copy_n(_STD move(_First), _Newsize, _Myfirst, _Al);

  0027c	89 58 18	 mov	 DWORD PTR [eax+24], ebx

; 1437 :                 _ASAN_VECTOR_CREATE;
; 1438 :             } else {
; 1439 :                 _ASAN_VECTOR_CREATE_GUARD;
; 1440 :                 _Mylast = _STD _Uninitialized_copy_n(_STD move(_First), _Newsize, _Myfirst, _Al);
; 1441 :             }
; 1442 :             return;

  0027f	e9 90 01 00 00	 jmp	 $LN495@SetSpawnEv
$LN493@SetSpawnEv:

; 1443 :         }
; 1444 : 
; 1445 :         const auto _Oldsize = static_cast<size_type>(_Mylast - _Myfirst);

  00284	8b 46 04	 mov	 eax, DWORD PTR [esi+4]
  00287	2b c1		 sub	 eax, ecx
  00289	c1 f8 04	 sar	 eax, 4
  0028c	89 45 0c	 mov	 DWORD PTR __Oldsize$1$[ebp], eax

; 1446 :         if (_Newsize > _Oldsize) {

  0028f	51		 push	 ecx
  00290	3b d8		 cmp	 ebx, eax
  00292	76 35		 jbe	 SHORT $LN494@SetSpawnEv

; 1447 :             bool _Copied = false;
; 1448 :             if constexpr (_Iter_copy_cat<_Iter, pointer>::_Bitcopy_assignable) {
; 1449 : #if _HAS_CXX20
; 1450 :                 if (!_STD is_constant_evaluated())
; 1451 : #endif // _HAS_CXX20
; 1452 :                 {
; 1453 :                     _Copy_memmove_n(_First, static_cast<size_t>(_Oldsize), _Myfirst);

  00294	50		 push	 eax
  00295	ff 75 08	 push	 DWORD PTR __First$1$[ebp]
  00298	e8 00 00 00 00	 call	 ??$_Copy_memmove_n@PAU__SPAWNINFO@CEventLua@@PAU12@@std@@YAPAU__SPAWNINFO@CEventLua@@PAU12@I0@Z ; std::_Copy_memmove_n<CEventLua::__SPAWNINFO *,CEventLua::__SPAWNINFO *>

; 1454 :                     _First += _Oldsize;

  0029d	8b 45 0c	 mov	 eax, DWORD PTR __Oldsize$1$[ebp]

; 1467 :                 _Mylast = _STD _Uninitialized_copy_n(_STD move(_First), _Newsize - _Oldsize, _Mylast, _Al);

  002a0	8b 76 04	 mov	 esi, DWORD PTR [esi+4]
  002a3	8b 55 08	 mov	 edx, DWORD PTR __First$1$[ebp]
  002a6	2b 5d 0c	 sub	 ebx, DWORD PTR __Oldsize$1$[ebp]
  002a9	c1 e0 04	 shl	 eax, 4
; File C:\Program Files\Microsoft Visual Studio\2022\Professional\VC\Tools\MSVC\14.44.35207\include\xmemory

; 1930 :             _STD _Copy_memmove_n(_UFirst, _Count, _STD _Unfancy(_Dest));

  002ac	56		 push	 esi
; File C:\Program Files\Microsoft Visual Studio\2022\Professional\VC\Tools\MSVC\14.44.35207\include\vector

; 1454 :                     _First += _Oldsize;

  002ad	03 d0		 add	 edx, eax
; File C:\Program Files\Microsoft Visual Studio\2022\Professional\VC\Tools\MSVC\14.44.35207\include\xmemory

; 1930 :             _STD _Copy_memmove_n(_UFirst, _Count, _STD _Unfancy(_Dest));

  002af	53		 push	 ebx
  002b0	52		 push	 edx
  002b1	e8 00 00 00 00	 call	 ??$_Copy_memmove_n@PAU__SPAWNINFO@CEventLua@@PAU12@@std@@YAPAU__SPAWNINFO@CEventLua@@PAU12@I0@Z ; std::_Copy_memmove_n<CEventLua::__SPAWNINFO *,CEventLua::__SPAWNINFO *>
; File C:\Program Files\Microsoft Visual Studio\2022\Professional\VC\Tools\MSVC\14.44.35207\include\vector

; 1467 :                 _Mylast = _STD _Uninitialized_copy_n(_STD move(_First), _Newsize - _Oldsize, _Mylast, _Al);

  002b6	8b 45 cc	 mov	 eax, DWORD PTR __Loc$5[ebp+8]
; File C:\Program Files\Microsoft Visual Studio\2022\Professional\VC\Tools\MSVC\14.44.35207\include\xmemory

; 1930 :             _STD _Copy_memmove_n(_UFirst, _Count, _STD _Unfancy(_Dest));

  002b9	83 c4 18	 add	 esp, 24			; 00000018H

; 1931 :             _Dest += _Count;

  002bc	c1 e3 04	 shl	 ebx, 4
  002bf	03 de		 add	 ebx, esi
; File C:\Program Files\Microsoft Visual Studio\2022\Professional\VC\Tools\MSVC\14.44.35207\include\vector

; 1467 :                 _Mylast = _STD _Uninitialized_copy_n(_STD move(_First), _Newsize - _Oldsize, _Mylast, _Al);

  002c1	89 58 18	 mov	 DWORD PTR [eax+24], ebx

; 1468 :             } else {
; 1469 :                 _ASAN_VECTOR_EXTEND_GUARD(_Newsize);
; 1470 :                 _Mylast = _STD _Uninitialized_copy_n(_STD move(_First), _Newsize - _Oldsize, _Mylast, _Al);
; 1471 :                 _ASAN_VECTOR_RELEASE_GUARD;
; 1472 :             }
; 1473 :         } else {

  002c4	e9 4b 01 00 00	 jmp	 $LN495@SetSpawnEv
$LN494@SetSpawnEv:

; 1474 :             const pointer _Newlast = _Myfirst + _Newsize;

  002c9	8b f3		 mov	 esi, ebx
; File C:\Program Files\Microsoft Visual Studio\2022\Professional\VC\Tools\MSVC\14.44.35207\include\xutility

; 4808 :             return _Copy_memmove_n(_First, static_cast<size_t>(_Count), _Dest);

  002cb	53		 push	 ebx
  002cc	ff 75 08	 push	 DWORD PTR __First$1$[ebp]
; File C:\Program Files\Microsoft Visual Studio\2022\Professional\VC\Tools\MSVC\14.44.35207\include\vector

; 1474 :             const pointer _Newlast = _Myfirst + _Newsize;

  002cf	c1 e6 04	 shl	 esi, 4
  002d2	03 f1		 add	 esi, ecx
; File C:\Program Files\Microsoft Visual Studio\2022\Professional\VC\Tools\MSVC\14.44.35207\include\xutility

; 4808 :             return _Copy_memmove_n(_First, static_cast<size_t>(_Count), _Dest);

  002d4	e8 00 00 00 00	 call	 ??$_Copy_memmove_n@PAU__SPAWNINFO@CEventLua@@PAU12@@std@@YAPAU__SPAWNINFO@CEventLua@@PAU12@I0@Z ; std::_Copy_memmove_n<CEventLua::__SPAWNINFO *,CEventLua::__SPAWNINFO *>
; File C:\Program Files\Microsoft Visual Studio\2022\Professional\VC\Tools\MSVC\14.44.35207\include\vector

; 1478 :             _Mylast = _Newlast;

  002d9	8b 45 cc	 mov	 eax, DWORD PTR __Loc$5[ebp+8]
; File C:\Program Files\Microsoft Visual Studio\2022\Professional\VC\Tools\MSVC\14.44.35207\include\xutility

; 4808 :             return _Copy_memmove_n(_First, static_cast<size_t>(_Count), _Dest);

  002dc	83 c4 0c	 add	 esp, 12			; 0000000cH
; File C:\Program Files\Microsoft Visual Studio\2022\Professional\VC\Tools\MSVC\14.44.35207\include\vector

; 1478 :             _Mylast = _Newlast;

  002df	89 70 18	 mov	 DWORD PTR [eax+24], esi
  002e2	e9 2d 01 00 00	 jmp	 $LN495@SetSpawnEv
$LN557@SetSpawnEv:

; 400  :     _CONSTEXPR20 _Vector_val() noexcept : _Myfirst(), _Mylast(), _Myend() {}

  002e7	33 c0		 xor	 eax, eax
; File C:\Program Files\Microsoft Visual Studio\2022\Professional\VC\Tools\MSVC\14.44.35207\include\utility

; 274  :         : first(_STD forward<_Other1>(_Val1)), second(_STD forward<_Other2>(_Val2)) {

  002e9	88 5d dc	 mov	 BYTE PTR $T10[ebp], bl
; File C:\Program Files\Microsoft Visual Studio\2022\Professional\VC\Tools\MSVC\14.44.35207\include\vector

; 400  :     _CONSTEXPR20 _Vector_val() noexcept : _Myfirst(), _Mylast(), _Myend() {}

  002ec	89 45 0c	 mov	 DWORD PTR __Ptr$1$[ebp], eax
  002ef	33 db		 xor	 ebx, ebx
  002f1	89 45 e0	 mov	 DWORD PTR $T10[ebp+4], eax
  002f4	89 45 08	 mov	 DWORD PTR $T12[ebp], eax
  002f7	89 45 e4	 mov	 DWORD PTR $T10[ebp+8], eax

; 748  :         const auto _Count       = static_cast<size_type>(_Right_data._Mylast - _Right_data._Myfirst);

  002fa	8b 45 bc	 mov	 eax, DWORD PTR _vecTemp$3[ebp+4]
  002fd	2b 45 b8	 sub	 eax, DWORD PTR _vecTemp$3[ebp]
  00300	c1 f8 04	 sar	 eax, 4

; 400  :     _CONSTEXPR20 _Vector_val() noexcept : _Myfirst(), _Mylast(), _Myend() {}

  00303	89 5d e8	 mov	 DWORD PTR $T10[ebp+12], ebx

; 2111 :         if (_Count != 0) {

  00306	85 c0		 test	 eax, eax
  00308	74 44		 je	 SHORT $LN284@SetSpawnEv

; 2051 :         if (_Newcapacity > max_size()) {

  0030a	3d ff ff ff 0f	 cmp	 eax, 268435455		; 0fffffffH
  0030f	0f 87 b1 01 00
	00		 ja	 $LN558@SetSpawnEv

; 2052 :             _Xlength();
; 2053 :         }
; 2054 : 
; 2055 :         _Buy_raw(_Newcapacity);

  00315	50		 push	 eax
  00316	8d 4d e0	 lea	 ecx, DWORD PTR $T10[ebp+4]
  00319	e8 00 00 00 00	 call	 ?_Buy_raw@?$vector@U__SPAWNINFO@CEventLua@@V?$allocator@U__SPAWNINFO@CEventLua@@@std@@@std@@AAEXI@Z ; std::vector<CEventLua::__SPAWNINFO,std::allocator<CEventLua::__SPAWNINFO> >::_Buy_raw
; File C:\Program Files\Microsoft Visual Studio\2022\Professional\VC\Tools\MSVC\14.44.35207\include\xmemory

; 1889 :                 _STD _Copy_memmove(_STD _To_address(_UFirst), _STD _To_address(_ULast), _STD _Unfancy(_Dest));

  0031e	8b 5d e0	 mov	 ebx, DWORD PTR $T10[ebp+4]
  00321	8b 45 bc	 mov	 eax, DWORD PTR _vecTemp$3[ebp+4]
  00324	8b 75 b8	 mov	 esi, DWORD PTR _vecTemp$3[ebp]
  00327	53		 push	 ebx
  00328	50		 push	 eax
  00329	56		 push	 esi
  0032a	89 45 08	 mov	 DWORD PTR $T12[ebp], eax
  0032d	89 5d 0c	 mov	 DWORD PTR __Ptr$1$[ebp], ebx
  00330	e8 00 00 00 00	 call	 ??$_Copy_memmove@PAU__SPAWNINFO@CEventLua@@PAU12@@std@@YAPAU__SPAWNINFO@CEventLua@@PAU12@00@Z ; std::_Copy_memmove<CEventLua::__SPAWNINFO *,CEventLua::__SPAWNINFO *>

; 1890 :                 _Dest += _ULast - _UFirst;

  00335	8b 45 08	 mov	 eax, DWORD PTR $T12[ebp]
  00338	83 c4 0c	 add	 esp, 12			; 0000000cH
  0033b	2b c6		 sub	 eax, esi
; File C:\Program Files\Microsoft Visual Studio\2022\Professional\VC\Tools\MSVC\14.44.35207\include\vector

; 2120 :                 _My_data._Mylast = _STD _Uninitialized_copy(_STD forward<_Valty>(_Val)..., _My_data._Myfirst, _Al);

  0033d	8d 77 5c	 lea	 esi, DWORD PTR [edi+92]
; File C:\Program Files\Microsoft Visual Studio\2022\Professional\VC\Tools\MSVC\14.44.35207\include\xmemory

; 1890 :                 _Dest += _ULast - _UFirst;

  00340	83 e0 f0	 and	 eax, -16		; fffffff0H
  00343	03 c3		 add	 eax, ebx
; File C:\Program Files\Microsoft Visual Studio\2022\Professional\VC\Tools\MSVC\14.44.35207\include\vector

; 2120 :                 _My_data._Mylast = _STD _Uninitialized_copy(_STD forward<_Valty>(_Val)..., _My_data._Myfirst, _Al);

  00345	8b 5d e8	 mov	 ebx, DWORD PTR $T10[ebp+12]
; File C:\Program Files\Microsoft Visual Studio\2022\Professional\VC\Tools\MSVC\14.44.35207\include\xmemory

; 1890 :                 _Dest += _ULast - _UFirst;

  00348	89 45 08	 mov	 DWORD PTR $T12[ebp], eax
; File C:\Program Files\Microsoft Visual Studio\2022\Professional\VC\Tools\MSVC\14.44.35207\include\vector

; 2120 :                 _My_data._Mylast = _STD _Uninitialized_copy(_STD forward<_Valty>(_Val)..., _My_data._Myfirst, _Al);

  0034b	89 45 e4	 mov	 DWORD PTR $T10[ebp+8], eax
$LN284@SetSpawnEv:
; File C:\Program Files\Microsoft Visual Studio\2022\Professional\VC\Tools\MSVC\14.44.35207\include\xtree

; 1017 :             _Loc                = _Find_lower_bound(_Keyval);

  0034e	8d 45 dc	 lea	 eax, DWORD PTR $T10[ebp]
; File C:\IAGOS\server\v18\Source\Source\_Common\EventLua.cpp

; 629  : 				m_mapSpawnList.insert( make_pair( nId, vecTemp ) );

  00351	c6 45 fc 01	 mov	 BYTE PTR __$EHRec$[ebp+8], 1
; File C:\Program Files\Microsoft Visual Studio\2022\Professional\VC\Tools\MSVC\14.44.35207\include\xtree

; 1017 :             _Loc                = _Find_lower_bound(_Keyval);

  00355	50		 push	 eax
  00356	8d 45 d0	 lea	 eax, DWORD PTR $T8[ebp]
  00359	8b ce		 mov	 ecx, esi
  0035b	50		 push	 eax
  0035c	e8 00 00 00 00	 call	 ??$_Find_lower_bound@E@?$_Tree@V?$_Tmap_traits@EV?$vector@U__SPAWNINFO@CEventLua@@V?$allocator@U__SPAWNINFO@CEventLua@@@std@@@std@@U?$less@E@2@V?$allocator@U?$pair@$$CBEV?$vector@U__SPAWNINFO@CEventLua@@V?$allocator@U__SPAWNINFO@CEventLua@@@std@@@std@@@std@@@2@$0A@@std@@@std@@IBE?AU?$_Tree_find_result@PAU?$_Tree_node@U?$pair@$$CBEV?$vector@U__SPAWNINFO@CEventLua@@V?$allocator@U__SPAWNINFO@CEventLua@@@std@@@std@@@std@@PAX@std@@@1@ABE@Z ; std::_Tree<std::_Tmap_traits<unsigned char,std::vector<CEventLua::__SPAWNINFO,std::allocator<CEventLua::__SPAWNINFO> >,std::less<unsigned char>,std::allocator<std::pair<unsigned char const ,std::vector<CEventLua::__SPAWNINFO,std::allocator<CEventLua::__SPAWNINFO> > > >,0> >::_Find_lower_bound<unsigned char>
  00361	8b 48 08	 mov	 ecx, DWORD PTR [eax+8]
  00364	f3 0f 7e 00	 movq	 xmm0, QWORD PTR [eax]
  00368	66 0f d6 45 c4	 movq	 QWORD PTR __Loc$6[ebp], xmm0

; 1624 :         return !_Bound->_Isnil && !_DEBUG_LT_PRED(_Getcomp(), _Keyval, _Traits::_Kfn(_Bound->_Myval));

  0036d	80 79 0d 00	 cmp	 BYTE PTR [ecx+13], 0
  00371	75 08		 jne	 SHORT $LN300@SetSpawnEv
; File C:\Program Files\Microsoft Visual Studio\2022\Professional\VC\Tools\MSVC\14.44.35207\include\type_traits

; 2380 :         return _Left < _Right;

  00373	8a 45 dc	 mov	 al, BYTE PTR $T10[ebp]
  00376	3a 41 10	 cmp	 al, BYTE PTR [ecx+16]
; File C:\Program Files\Microsoft Visual Studio\2022\Professional\VC\Tools\MSVC\14.44.35207\include\xtree

; 1624 :         return !_Bound->_Isnil && !_DEBUG_LT_PRED(_Getcomp(), _Keyval, _Traits::_Kfn(_Bound->_Myval));

  00379	73 61		 jae	 SHORT $LN414@SetSpawnEv
$LN300@SetSpawnEv:

; 1648 :         if (max_size() == _Get_scary()->_Mysize) {

  0037b	81 7e 04 ff ff
	ff 07		 cmp	 DWORD PTR [esi+4], 134217727 ; 07ffffffH
  00382	0f 84 39 01 00
	00		 je	 $LN564@SetSpawnEv

; 1023 :             _Inserted = _Tree_temp_node<_Alnode>(_Getal(), _Scary->_Myhead, _STD forward<_Valtys>(_Vals)...)._Release();

  00388	8b 36		 mov	 esi, DWORD PTR [esi]
; File C:\Program Files\Microsoft Visual Studio\2022\Professional\VC\Tools\MSVC\14.44.35207\include\xmemory

; 1160 :     _CONSTEXPR20 explicit _Alloc_construct_ptr(_Alloc& _Al_) : _Al(_Al_), _Ptr(nullptr) {}

  0038a	8d 47 5c	 lea	 eax, DWORD PTR [edi+92]
  0038d	89 45 d4	 mov	 DWORD PTR $T9[ebp], eax

; 136  :         return ::operator new(_Bytes);

  00390	6a 20		 push	 32			; 00000020H
; File C:\Program Files\Microsoft Visual Studio\2022\Professional\VC\Tools\MSVC\14.44.35207\include\xtree

; 808  :     explicit _Tree_temp_node_alloc(_Alnode& _Al_) : _Alloc_construct_ptr<_Alnode>(_Al_) {

  00392	c6 45 fc 02	 mov	 BYTE PTR __$EHRec$[ebp+8], 2
; File C:\Program Files\Microsoft Visual Studio\2022\Professional\VC\Tools\MSVC\14.44.35207\include\xmemory

; 1167 :         _Ptr = nullptr; // if allocate throws, prevents double-free

  00396	c7 45 d8 00 00
	00 00		 mov	 DWORD PTR $T9[ebp+4], 0

; 136  :         return ::operator new(_Bytes);

  0039d	e8 00 00 00 00	 call	 ??2@YAPAXI@Z		; operator new
; File C:\Program Files\Microsoft Visual Studio\2022\Professional\VC\Tools\MSVC\14.44.35207\include\utility

; 303  :         : first(_STD forward<_Other1>(_Right.first)), second(_STD forward<_Other2>(_Right.second)) {}

  003a2	8a 4d dc	 mov	 cl, BYTE PTR $T10[ebp]
; File C:\Program Files\Microsoft Visual Studio\2022\Professional\VC\Tools\MSVC\14.44.35207\include\xmemory

; 136  :         return ::operator new(_Bytes);

  003a5	83 c4 04	 add	 esp, 4
; File C:\Program Files\Microsoft Visual Studio\2022\Professional\VC\Tools\MSVC\14.44.35207\include\utility

; 773  :     _Ty _Old_val = static_cast<_Ty&&>(_Val);

  003a8	8b d3		 mov	 edx, ebx

; 774  :     _Val         = static_cast<_Other&&>(_New_val);

  003aa	33 db		 xor	 ebx, ebx

; 303  :         : first(_STD forward<_Other1>(_Right.first)), second(_STD forward<_Other2>(_Right.second)) {}

  003ac	88 48 10	 mov	 BYTE PTR [eax+16], cl

; 773  :     _Ty _Old_val = static_cast<_Ty&&>(_Val);

  003af	8b 4d 0c	 mov	 ecx, DWORD PTR __Ptr$1$[ebp]
; File C:\Program Files\Microsoft Visual Studio\2022\Professional\VC\Tools\MSVC\14.44.35207\include\vector

; 403  :         : _Myfirst(_First), _Mylast(_Last), _Myend(_End) {}

  003b2	89 48 14	 mov	 DWORD PTR [eax+20], ecx
  003b5	8b 4d 08	 mov	 ecx, DWORD PTR $T12[ebp]
  003b8	89 48 18	 mov	 DWORD PTR [eax+24], ecx
; File C:\Program Files\Microsoft Visual Studio\2022\Professional\VC\Tools\MSVC\14.44.35207\include\xtree

; 1042 :         return {_Scary->_Insert_node(_Loc._Location, _Inserted), true};

  003bb	8d 4f 5c	 lea	 ecx, DWORD PTR [edi+92]
  003be	50		 push	 eax
  003bf	ff 75 c8	 push	 DWORD PTR __Loc$6[ebp+4]
; File C:\Program Files\Microsoft Visual Studio\2022\Professional\VC\Tools\MSVC\14.44.35207\include\vector

; 403  :         : _Myfirst(_First), _Mylast(_Last), _Myend(_End) {}

  003c2	89 50 1c	 mov	 DWORD PTR [eax+28], edx
; File C:\Program Files\Microsoft Visual Studio\2022\Professional\VC\Tools\MSVC\14.44.35207\include\xtree

; 1042 :         return {_Scary->_Insert_node(_Loc._Location, _Inserted), true};

  003c5	ff 75 c4	 push	 DWORD PTR __Loc$6[ebp]

; 831  :         _Construct_in_place(this->_Ptr->_Left, _Myhead);

  003c8	89 30		 mov	 DWORD PTR [eax], esi

; 832  :         _Construct_in_place(this->_Ptr->_Parent, _Myhead);

  003ca	89 70 04	 mov	 DWORD PTR [eax+4], esi

; 833  :         _Construct_in_place(this->_Ptr->_Right, _Myhead);

  003cd	89 70 08	 mov	 DWORD PTR [eax+8], esi
; File C:\Program Files\Microsoft Visual Studio\2022\Professional\VC\Tools\MSVC\14.44.35207\include\utility

; 774  :     _Val         = static_cast<_Other&&>(_New_val);

  003d0	89 5d 0c	 mov	 DWORD PTR __Ptr$1$[ebp], ebx
; File C:\Program Files\Microsoft Visual Studio\2022\Professional\VC\Tools\MSVC\14.44.35207\include\xtree

; 834  :         this->_Ptr->_Color = _Red;

  003d3	66 89 58 0c	 mov	 WORD PTR [eax+12], bx

; 1042 :         return {_Scary->_Insert_node(_Loc._Location, _Inserted), true};

  003d7	e8 00 00 00 00	 call	 ?_Insert_node@?$_Tree_val@U?$_Tree_simple_types@U?$pair@$$CBEV?$vector@U__SPAWNINFO@CEventLua@@V?$allocator@U__SPAWNINFO@CEventLua@@@std@@@std@@@std@@@std@@@std@@QAEPAU?$_Tree_node@U?$pair@$$CBEV?$vector@U__SPAWNINFO@CEventLua@@V?$allocator@U__SPAWNINFO@CEventLua@@@std@@@std@@@std@@PAX@2@U?$_Tree_id@PAU?$_Tree_node@U?$pair@$$CBEV?$vector@U__SPAWNINFO@CEventLua@@V?$allocator@U__SPAWNINFO@CEventLua@@@std@@@std@@@std@@PAX@std@@@2@QAU32@@Z ; std::_Tree_val<std::_Tree_simple_types<std::pair<unsigned char const ,std::vector<CEventLua::__SPAWNINFO,std::allocator<CEventLua::__SPAWNINFO> > > > >::_Insert_node
$LN414@SetSpawnEv:
; File C:\Program Files\Microsoft Visual Studio\2022\Professional\VC\Tools\MSVC\14.44.35207\include\vector

; 2090 :         if (_Myfirst) { // destroy and deallocate old array

  003dc	8b 4d 0c	 mov	 ecx, DWORD PTR __Ptr$1$[ebp]
; File C:\IAGOS\server\v18\Source\Source\_Common\EventLua.cpp

; 629  : 				m_mapSpawnList.insert( make_pair( nId, vecTemp ) );

  003df	c6 45 fc 00	 mov	 BYTE PTR __$EHRec$[ebp+8], 0
; File C:\Program Files\Microsoft Visual Studio\2022\Professional\VC\Tools\MSVC\14.44.35207\include\vector

; 2090 :         if (_Myfirst) { // destroy and deallocate old array

  003e3	85 c9		 test	 ecx, ecx
  003e5	74 2d		 je	 SHORT $LN495@SetSpawnEv

; 2091 :             _STD _Destroy_range(_Myfirst, _Mylast, _Al);
; 2092 :             _ASAN_VECTOR_REMOVE;
; 2093 :             _Al.deallocate(_Myfirst, static_cast<size_type>(_Myend - _Myfirst));

  003e7	2b d9		 sub	 ebx, ecx
; File C:\Program Files\Microsoft Visual Studio\2022\Professional\VC\Tools\MSVC\14.44.35207\include\xmemory

; 985  :         _STD _Deallocate<_New_alignof<_Ty>>(_Ptr, sizeof(_Ty) * _Count);

  003e9	8b c1		 mov	 eax, ecx
  003eb	83 e3 f0	 and	 ebx, -16		; fffffff0H

; 284  :         if (_Bytes >= _Big_allocation_threshold) {

  003ee	81 fb 00 10 00
	00		 cmp	 ebx, 4096		; 00001000H
  003f4	72 14		 jb	 SHORT $LN452@SetSpawnEv

; 205  :     const uintptr_t _Ptr_container   = _Ptr_user[-1];

  003f6	8b 48 fc	 mov	 ecx, DWORD PTR [eax-4]
  003f9	83 c3 23	 add	 ebx, 35			; 00000023H
  003fc	2b c1		 sub	 eax, ecx

; 219  :     _STL_VERIFY(_Back_shift >= _Min_back_shift && _Back_shift <= _Non_user_size, "invalid argument");

  003fe	83 c0 fc	 add	 eax, -4			; fffffffcH
  00401	83 f8 1f	 cmp	 eax, 31			; 0000001fH
  00404	0f 87 c1 00 00
	00		 ja	 $LN565@SetSpawnEv
$LN452@SetSpawnEv:

; 289  :         ::operator delete(_Ptr, _Bytes);

  0040a	53		 push	 ebx
  0040b	51		 push	 ecx
  0040c	e8 00 00 00 00	 call	 ??3@YAXPAXI@Z		; operator delete
  00411	83 c4 08	 add	 esp, 8
$LN495@SetSpawnEv:
; File C:\Program Files\Microsoft Visual Studio\2022\Professional\VC\Tools\MSVC\14.44.35207\include\vector

; 46   :     _CONSTEXPR20 _Vector_const_iterator(_Tptr _Parg, const _Container_base* _Pvector) noexcept : _Ptr(_Parg) {

  00414	8b 77 74	 mov	 esi, DWORD PTR [edi+116]
  00417	8b 47 78	 mov	 eax, DWORD PTR [edi+120]

; 176  :         return !(*this == _Right);

  0041a	3b f0		 cmp	 esi, eax
; File C:\IAGOS\server\v18\Source\Source\_Common\EventLua.cpp

; 634  : 			for( vector<BYTE>::iterator itVec=m_vecEndSpawnEvent.begin(); itVec!=m_vecEndSpawnEvent.end(); )

  0041c	74 23		 je	 SHORT $LN5@SetSpawnEv
  0041e	8a 5d f3	 mov	 bl, BYTE PTR _nId$1$[ebp]
$LL6@SetSpawnEv:

; 635  : 			{
; 636  : 				if( (*itVec) == nId )

  00421	8d 4e 01	 lea	 ecx, DWORD PTR [esi+1]
  00424	38 1e		 cmp	 BYTE PTR [esi], bl
  00426	75 13		 jne	 SHORT $LN13@SetSpawnEv
; File C:\Program Files\Microsoft Visual Studio\2022\Professional\VC\Tools\MSVC\14.44.35207\include\xutility

; 5147 :                 return _STD _Copy_memmove(_First, _Last, _Dest);

  00428	56		 push	 esi
  00429	50		 push	 eax
  0042a	51		 push	 ecx
  0042b	e8 00 00 00 00	 call	 ??$_Copy_memmove@PAEPAE@std@@YAPAEPAE00@Z ; std::_Copy_memmove<unsigned char *,unsigned char *>
  00430	83 c4 0c	 add	 esp, 12			; 0000000cH
; File C:\Program Files\Microsoft Visual Studio\2022\Professional\VC\Tools\MSVC\14.44.35207\include\vector

; 1778 :         --_Mylast;

  00433	ff 4f 78	 dec	 DWORD PTR [edi+120]
  00436	8b 47 78	 mov	 eax, DWORD PTR [edi+120]
; File C:\IAGOS\server\v18\Source\Source\_Common\EventLua.cpp

; 637  : 					itVec = m_vecEndSpawnEvent.erase( itVec );

  00439	eb 02		 jmp	 SHORT $LN4@SetSpawnEv
$LN13@SetSpawnEv:
; File C:\Program Files\Microsoft Visual Studio\2022\Professional\VC\Tools\MSVC\14.44.35207\include\vector

; 82   :         ++_Ptr;

  0043b	8b f1		 mov	 esi, ecx
$LN4@SetSpawnEv:

; 176  :         return !(*this == _Right);

  0043d	3b f0		 cmp	 esi, eax
; File C:\IAGOS\server\v18\Source\Source\_Common\EventLua.cpp

; 634  : 			for( vector<BYTE>::iterator itVec=m_vecEndSpawnEvent.begin(); itVec!=m_vecEndSpawnEvent.end(); )

  0043f	75 e0		 jne	 SHORT $LL6@SetSpawnEv
$LN5@SetSpawnEv:
; File C:\Program Files\Microsoft Visual Studio\2022\Professional\VC\Tools\MSVC\14.44.35207\include\vector

; 830  :         _Tidy();

  00441	8d 4d b8	 lea	 ecx, DWORD PTR _vecTemp$3[ebp]
; File C:\IAGOS\server\v18\Source\Source\_Common\EventLua.cpp

; 641  : 		}

  00444	c7 45 fc ff ff
	ff ff		 mov	 DWORD PTR __$EHRec$[ebp+8], -1
; File C:\Program Files\Microsoft Visual Studio\2022\Professional\VC\Tools\MSVC\14.44.35207\include\vector

; 830  :         _Tidy();

  0044b	e8 00 00 00 00	 call	 ?_Tidy@?$vector@U__SPAWNINFO@CEventLua@@V?$allocator@U__SPAWNINFO@CEventLua@@@std@@@std@@AAEXXZ ; std::vector<CEventLua::__SPAWNINFO,std::allocator<CEventLua::__SPAWNINFO> >::_Tidy
; File C:\IAGOS\server\v18\Source\Source\_Common\EventLua.cpp

; 641  : 		}

  00450	eb 4f		 jmp	 SHORT $LN562@SetSpawnEv
$LN8@SetSpawnEv:
; File C:\Program Files\Microsoft Visual Studio\2022\Professional\VC\Tools\MSVC\14.44.35207\include\xtree

; 1384 :         const _Tree_find_result<_Nodeptr> _Loc = _Find_lower_bound(_Keyval);

  00452	8d 4d 08	 lea	 ecx, DWORD PTR _nId$[ebp]
  00455	51		 push	 ecx
  00456	8d 4d b8	 lea	 ecx, DWORD PTR __Loc$4[ebp]
  00459	51		 push	 ecx
  0045a	8d 4f 5c	 lea	 ecx, DWORD PTR [edi+92]
  0045d	e8 00 00 00 00	 call	 ??$_Find_lower_bound@E@?$_Tree@V?$_Tmap_traits@EV?$vector@U__SPAWNINFO@CEventLua@@V?$allocator@U__SPAWNINFO@CEventLua@@@std@@@std@@U?$less@E@2@V?$allocator@U?$pair@$$CBEV?$vector@U__SPAWNINFO@CEventLua@@V?$allocator@U__SPAWNINFO@CEventLua@@@std@@@std@@@std@@@2@$0A@@std@@@std@@IBE?AU?$_Tree_find_result@PAU?$_Tree_node@U?$pair@$$CBEV?$vector@U__SPAWNINFO@CEventLua@@V?$allocator@U__SPAWNINFO@CEventLua@@@std@@@std@@@std@@PAX@std@@@1@ABE@Z ; std::_Tree<std::_Tmap_traits<unsigned char,std::vector<CEventLua::__SPAWNINFO,std::allocator<CEventLua::__SPAWNINFO> >,std::less<unsigned char>,std::allocator<std::pair<unsigned char const ,std::vector<CEventLua::__SPAWNINFO,std::allocator<CEventLua::__SPAWNINFO> > > >,0> >::_Find_lower_bound<unsigned char>

; 1624 :         return !_Bound->_Isnil && !_DEBUG_LT_PRED(_Getcomp(), _Keyval, _Traits::_Kfn(_Bound->_Myval));

  00462	8b 45 c0	 mov	 eax, DWORD PTR __Loc$4[ebp+8]
  00465	80 78 0d 00	 cmp	 BYTE PTR [eax+13], 0
  00469	75 39		 jne	 SHORT $LN188@SetSpawnEv
; File C:\Program Files\Microsoft Visual Studio\2022\Professional\VC\Tools\MSVC\14.44.35207\include\type_traits

; 2380 :         return _Left < _Right;

  0046b	3a 58 10	 cmp	 bl, BYTE PTR [eax+16]
; File C:\Program Files\Microsoft Visual Studio\2022\Professional\VC\Tools\MSVC\14.44.35207\include\xtree

; 1624 :         return !_Bound->_Isnil && !_DEBUG_LT_PRED(_Getcomp(), _Keyval, _Traits::_Kfn(_Bound->_Myval));

  0046e	72 34		 jb	 SHORT $LN188@SetSpawnEv

; 37   :     _Tree_unchecked_const_iterator(_Nodeptr _Pnode, const _Mytree* _Plist) noexcept : _Ptr(_Pnode) {

  00470	3b 47 5c	 cmp	 eax, DWORD PTR [edi+92]
; File C:\IAGOS\server\v18\Source\Source\_Common\EventLua.cpp

; 645  : 			if( it != m_mapSpawnList.end() )

  00473	74 2f		 je	 SHORT $LN188@SetSpawnEv
; File C:\Program Files\Microsoft Visual Studio\2022\Professional\VC\Tools\MSVC\14.44.35207\include\xtree

; 185  :         return this->_Ptr->_Myval;

  00475	83 c0 10	 add	 eax, 16			; 00000010H
; File C:\IAGOS\server\v18\Source\Source\_Common\EventLua.cpp

; 647  : 				m_vecEndSpawnEvent.push_back( it->first );	// żĎ·á ¸®˝şĆ®żˇ ÇŘ´ç ŔĚşĄĆ® ID¸¦ Ăß°ˇÇŃ´Ů. ˝şĆůµČ ¸ó˝şĹÍµéŔ» Á¦°ĹÇĎ±â Ŕ§ÇŘ ÇĘżä.

  00478	8d 4f 74	 lea	 ecx, DWORD PTR [edi+116]
  0047b	50		 push	 eax
  0047c	e8 00 00 00 00	 call	 ?push_back@?$vector@EV?$allocator@E@std@@@std@@QAEXABE@Z ; std::vector<unsigned char,std::allocator<unsigned char> >::push_back
; File C:\Program Files\Microsoft Visual Studio\2022\Professional\VC\Tools\MSVC\14.44.35207\include\xtree

; 1303 :         _Nodeptr _Erasednode = _Scary->_Extract(_Where); // node to erase

  00481	ff 75 c0	 push	 DWORD PTR __Loc$4[ebp+8]
  00484	8d 4f 5c	 lea	 ecx, DWORD PTR [edi+92]
  00487	e8 00 00 00 00	 call	 ?_Extract@?$_Tree_val@U?$_Tree_simple_types@U?$pair@$$CBEV?$vector@U__SPAWNINFO@CEventLua@@V?$allocator@U__SPAWNINFO@CEventLua@@@std@@@std@@@std@@@std@@@std@@QAEPAU?$_Tree_node@U?$pair@$$CBEV?$vector@U__SPAWNINFO@CEventLua@@V?$allocator@U__SPAWNINFO@CEventLua@@@std@@@std@@@std@@PAX@2@V?$_Tree_unchecked_const_iterator@V?$_Tree_val@U?$_Tree_simple_types@U?$pair@$$CBEV?$vector@U__SPAWNINFO@CEventLua@@V?$allocator@U__SPAWNINFO@CEventLua@@@std@@@std@@@std@@@std@@@std@@U_Iterator_base0@2@@2@@Z ; std::_Tree_val<std::_Tree_simple_types<std::pair<unsigned char const ,std::vector<CEventLua::__SPAWNINFO,std::allocator<CEventLua::__SPAWNINFO> > > > >::_Extract
  0048c	8b f0		 mov	 esi, eax

; 381  :         allocator_traits<_Alloc>::destroy(_Al, _STD addressof(_Ptr->_Myval));

  0048e	8d 4e 14	 lea	 ecx, DWORD PTR [esi+20]
; File C:\Program Files\Microsoft Visual Studio\2022\Professional\VC\Tools\MSVC\14.44.35207\include\vector

; 830  :         _Tidy();

  00491	e8 00 00 00 00	 call	 ?_Tidy@?$vector@U__SPAWNINFO@CEventLua@@V?$allocator@U__SPAWNINFO@CEventLua@@@std@@@std@@AAEXXZ ; std::vector<CEventLua::__SPAWNINFO,std::allocator<CEventLua::__SPAWNINFO> >::_Tidy
; File C:\Program Files\Microsoft Visual Studio\2022\Professional\VC\Tools\MSVC\14.44.35207\include\xmemory

; 289  :         ::operator delete(_Ptr, _Bytes);

  00496	6a 20		 push	 32			; 00000020H
  00498	56		 push	 esi
  00499	e8 00 00 00 00	 call	 ??3@YAXPAXI@Z		; operator delete
  0049e	83 c4 08	 add	 esp, 8
$LN562@SetSpawnEv:
; File C:\IAGOS\server\v18\Source\Source\_Common\EventLua.cpp

; 653  : 	m_Lua.Pop(0);

  004a1	8b 75 ec	 mov	 esi, DWORD PTR tv2416[ebp]
$LN188@SetSpawnEv:
  004a4	6a 00		 push	 0
  004a6	8b ce		 mov	 ecx, esi
  004a8	e8 00 00 00 00	 call	 ?Pop@CLuaBase@@QAEXH@Z	; CLuaBase::Pop

; 654  : }

  004ad	8b 4d f4	 mov	 ecx, DWORD PTR __$EHRec$[ebp]
  004b0	64 89 0d 00 00
	00 00		 mov	 DWORD PTR fs:0, ecx
  004b7	59		 pop	 ecx
  004b8	5f		 pop	 edi
  004b9	5e		 pop	 esi
  004ba	5b		 pop	 ebx
  004bb	8b e5		 mov	 esp, ebp
  004bd	5d		 pop	 ebp
  004be	c2 08 00	 ret	 8
$LN564@SetSpawnEv:
; File C:\Program Files\Microsoft Visual Studio\2022\Professional\VC\Tools\MSVC\14.44.35207\include\xtree

; 1649 :             _Throw_tree_length_error();

  004c1	e8 00 00 00 00	 call	 ?_Throw_tree_length_error@std@@YAXXZ ; std::_Throw_tree_length_error
$LN558@SetSpawnEv:
; File C:\Program Files\Microsoft Visual Studio\2022\Professional\VC\Tools\MSVC\14.44.35207\include\vector

; 1704 :             _Xlength();

  004c6	e8 00 00 00 00	 call	 ?_Xlength@?$vector@U__SPAWNINFO@CEventLua@@V?$allocator@U__SPAWNINFO@CEventLua@@@std@@@std@@CAXXZ ; std::vector<CEventLua::__SPAWNINFO,std::allocator<CEventLua::__SPAWNINFO> >::_Xlength
$LN565@SetSpawnEv:
; File C:\Program Files\Microsoft Visual Studio\2022\Professional\VC\Tools\MSVC\14.44.35207\include\xmemory

; 219  :     _STL_VERIFY(_Back_shift >= _Min_back_shift && _Back_shift <= _Non_user_size, "invalid argument");

  004cb	6a 00		 push	 0
  004cd	6a 00		 push	 0
  004cf	6a 00		 push	 0
  004d1	6a 00		 push	 0
  004d3	6a 00		 push	 0
  004d5	e8 00 00 00 00	 call	 __invoke_watson
$LN561@SetSpawnEv:
  004da	cc		 int	 3
_TEXT	ENDS
;	COMDAT text$x
text$x	SEGMENT
__unwindfunclet$?SetSpawnEvent@CEventLua@@AAEXEH@Z$0:
  00000	8d 4d b8	 lea	 ecx, DWORD PTR _vecTemp$3[ebp]
  00003	e9 00 00 00 00	 jmp	 ??1?$vector@U__SPAWNINFO@CEventLua@@V?$allocator@U__SPAWNINFO@CEventLua@@@std@@@std@@QAE@XZ ; std::vector<CEventLua::__SPAWNINFO,std::allocator<CEventLua::__SPAWNINFO> >::~vector<CEventLua::__SPAWNINFO,std::allocator<CEventLua::__SPAWNINFO> >
__unwindfunclet$?SetSpawnEvent@CEventLua@@AAEXEH@Z$1:
  00008	8d 4d dc	 lea	 ecx, DWORD PTR $T10[ebp]
  0000b	e9 00 00 00 00	 jmp	 ??1?$pair@EV?$vector@U__SPAWNINFO@CEventLua@@V?$allocator@U__SPAWNINFO@CEventLua@@@std@@@std@@@std@@QAE@XZ
__unwindfunclet$?SetSpawnEvent@CEventLua@@AAEXEH@Z$8:
  00010	8d 4d d4	 lea	 ecx, DWORD PTR $T9[ebp]
  00013	e9 00 00 00 00	 jmp	 ??1?$_Alloc_construct_ptr@V?$allocator@U?$_Tree_node@U?$pair@$$CBEV?$vector@U__SPAWNINFO@CEventLua@@V?$allocator@U__SPAWNINFO@CEventLua@@@std@@@std@@@std@@PAX@std@@@std@@@std@@QAE@XZ ; std::_Alloc_construct_ptr<std::allocator<std::_Tree_node<std::pair<unsigned char const ,std::vector<CEventLua::__SPAWNINFO,std::allocator<CEventLua::__SPAWNINFO> > >,void *> > >::~_Alloc_construct_ptr<std::allocator<std::_Tree_node<std::pair<unsigned char const ,std::vector<CEventLua::__SPAWNINFO,std::allocator<CEventLua::__SPAWNINFO> > >,void *> > >
  00018	cc		 int	 3
  00019	cc		 int	 3
  0001a	cc		 int	 3
  0001b	cc		 int	 3
  0001c	cc		 int	 3
__ehhandler$?SetSpawnEvent@CEventLua@@AAEXEH@Z:
  0001d	90		 npad	 1
  0001e	90		 npad	 1
  0001f	8b 54 24 08	 mov	 edx, DWORD PTR [esp+8]
  00023	8d 42 0c	 lea	 eax, DWORD PTR [edx+12]
  00026	8b 4a a4	 mov	 ecx, DWORD PTR [edx-92]
  00029	33 c8		 xor	 ecx, eax
  0002b	e8 00 00 00 00	 call	 @__security_check_cookie@4
  00030	b8 00 00 00 00	 mov	 eax, OFFSET __ehfuncinfo$?SetSpawnEvent@CEventLua@@AAEXEH@Z
  00035	e9 00 00 00 00	 jmp	 ___CxxFrameHandler3
text$x	ENDS
?SetSpawnEvent@CEventLua@@AAEXEH@Z ENDP			; CEventLua::SetSpawnEvent
; Function compile flags: /Ogtp
;	COMDAT ??1?$map@KEU?$less@K@std@@V?$allocator@U?$pair@$$CBKE@std@@@2@@std@@QAE@XZ
_TEXT	SEGMENT
??1?$map@KEU?$less@K@std@@V?$allocator@U?$pair@$$CBKE@std@@@2@@std@@QAE@XZ PROC ; std::map<unsigned long,unsigned char,std::less<unsigned long>,std::allocator<std::pair<unsigned long const ,unsigned char> > >::~map<unsigned long,unsigned char,std::less<unsigned long>,std::allocator<std::pair<unsigned long const ,unsigned char> > >, COMDAT
; _this$ = ecx
  00000	e9 00 00 00 00	 jmp	 ??1?$_Tree@V?$_Tmap_traits@KEU?$less@K@std@@V?$allocator@U?$pair@$$CBKE@std@@@2@$0A@@std@@@std@@QAE@XZ ; std::_Tree<std::_Tmap_traits<unsigned long,unsigned char,std::less<unsigned long>,std::allocator<std::pair<unsigned long const ,unsigned char> >,0> >::~_Tree<std::_Tmap_traits<unsigned long,unsigned char,std::less<unsigned long>,std::allocator<std::pair<unsigned long const ,unsigned char> >,0> >
??1?$map@KEU?$less@K@std@@V?$allocator@U?$pair@$$CBKE@std@@@2@@std@@QAE@XZ ENDP ; std::map<unsigned long,unsigned char,std::less<unsigned long>,std::allocator<std::pair<unsigned long const ,unsigned char> > >::~map<unsigned long,unsigned char,std::less<unsigned long>,std::allocator<std::pair<unsigned long const ,unsigned char> > >
_TEXT	ENDS
; Function compile flags: /Ogtp
; File C:\Program Files\Microsoft Visual Studio\2022\Professional\VC\Tools\MSVC\14.44.35207\include\xtree
;	COMDAT ?_Insert_node@?$_Tree_val@U?$_Tree_simple_types@U?$pair@$$CBKE@std@@@std@@@std@@QAEPAU?$_Tree_node@U?$pair@$$CBKE@std@@PAX@2@U?$_Tree_id@PAU?$_Tree_node@U?$pair@$$CBKE@std@@PAX@std@@@2@QAU32@@Z
_TEXT	SEGMENT
__Head$1$ = -4						; size = 4
__Loc$ = 8						; size = 8
__Newnode$ = 16						; size = 4
?_Insert_node@?$_Tree_val@U?$_Tree_simple_types@U?$pair@$$CBKE@std@@@std@@@std@@QAEPAU?$_Tree_node@U?$pair@$$CBKE@std@@PAX@2@U?$_Tree_id@PAU?$_Tree_node@U?$pair@$$CBKE@std@@PAX@std@@@2@QAU32@@Z PROC ; std::_Tree_val<std::_Tree_simple_types<std::pair<unsigned long const ,unsigned char> > >::_Insert_node, COMDAT
; _this$ = ecx

; 669  :     _Nodeptr _Insert_node(const _Tree_id<_Nodeptr> _Loc, const _Nodeptr _Newnode) noexcept {

  00000	55		 push	 ebp
  00001	8b ec		 mov	 ebp, esp
  00003	51		 push	 ecx

; 670  :         ++_Mysize;
; 671  :         const auto _Head  = _Myhead;
; 672  :         _Newnode->_Parent = _Loc._Parent;

  00004	8b 55 08	 mov	 edx, DWORD PTR __Loc$[ebp]
  00007	53		 push	 ebx
  00008	8b d9		 mov	 ebx, ecx
  0000a	57		 push	 edi
  0000b	8b 7d 10	 mov	 edi, DWORD PTR __Newnode$[ebp]
  0000e	8b 03		 mov	 eax, DWORD PTR [ebx]
  00010	ff 43 04	 inc	 DWORD PTR [ebx+4]
  00013	89 45 fc	 mov	 DWORD PTR __Head$1$[ebp], eax
  00016	89 57 04	 mov	 DWORD PTR [edi+4], edx

; 673  :         if (_Loc._Parent == _Head) { // first node in tree, just set head values

  00019	3b d0		 cmp	 edx, eax
  0001b	75 16		 jne	 SHORT $LN5@Insert_nod

; 674  :             _Head->_Left     = _Newnode;

  0001d	89 38		 mov	 DWORD PTR [eax], edi

; 675  :             _Head->_Parent   = _Newnode;

  0001f	89 78 04	 mov	 DWORD PTR [eax+4], edi

; 676  :             _Head->_Right    = _Newnode;

  00022	89 78 08	 mov	 DWORD PTR [eax+8], edi

; 735  :         return _Newnode;
; 736  :     }

  00025	8b c7		 mov	 eax, edi
  00027	c6 47 0c 01	 mov	 BYTE PTR [edi+12], 1
  0002b	5f		 pop	 edi
  0002c	5b		 pop	 ebx
  0002d	8b e5		 mov	 esp, ebp
  0002f	5d		 pop	 ebp
  00030	c2 0c 00	 ret	 12			; 0000000cH
$LN5@Insert_nod:

; 677  :             _Newnode->_Color = _Black; // the root is black
; 678  :             return _Newnode;
; 679  :         }
; 680  : 
; 681  :         _STL_INTERNAL_CHECK(_Loc._Child != _Tree_child::_Unused);
; 682  :         if (_Loc._Child == _Tree_child::_Right) { // add to right of _Loc._Parent

  00033	83 7d 0c 00	 cmp	 DWORD PTR __Loc$[ebp+4], 0
  00037	75 0d		 jne	 SHORT $LN6@Insert_nod

; 683  :             _STL_INTERNAL_CHECK(_Loc._Parent->_Right->_Isnil);
; 684  :             _Loc._Parent->_Right = _Newnode;

  00039	89 7a 08	 mov	 DWORD PTR [edx+8], edi

; 685  :             if (_Loc._Parent == _Head->_Right) { // remember rightmost node

  0003c	3b 50 08	 cmp	 edx, DWORD PTR [eax+8]
  0003f	75 0d		 jne	 SHORT $LN9@Insert_nod

; 686  :                 _Head->_Right = _Newnode;

  00041	89 78 08	 mov	 DWORD PTR [eax+8], edi

; 687  :             }
; 688  :         } else { // add to left of _Loc._Parent

  00044	eb 08		 jmp	 SHORT $LN9@Insert_nod
$LN6@Insert_nod:

; 689  :             _STL_INTERNAL_CHECK(_Loc._Parent->_Left->_Isnil);
; 690  :             _Loc._Parent->_Left = _Newnode;

  00046	89 3a		 mov	 DWORD PTR [edx], edi

; 691  :             if (_Loc._Parent == _Head->_Left) { // remember leftmost node

  00048	3b 10		 cmp	 edx, DWORD PTR [eax]
  0004a	75 02		 jne	 SHORT $LN9@Insert_nod

; 692  :                 _Head->_Left = _Newnode;

  0004c	89 38		 mov	 DWORD PTR [eax], edi
$LN9@Insert_nod:

; 693  :             }
; 694  :         }
; 695  : 
; 696  :         for (_Nodeptr _Pnode = _Newnode; _Pnode->_Parent->_Color == _Red;) {

  0004e	8b 4f 04	 mov	 ecx, DWORD PTR [edi+4]
  00051	8b c7		 mov	 eax, edi
  00053	80 79 0c 00	 cmp	 BYTE PTR [ecx+12], 0
  00057	0f 85 7d 01 00
	00		 jne	 $LN3@Insert_nod
  0005d	56		 push	 esi
  0005e	66 90		 npad	 2
$LL4@Insert_nod:

; 697  :             if (_Pnode->_Parent == _Pnode->_Parent->_Parent->_Left) { // fixup red-red in left subtree

  00060	8b 50 04	 mov	 edx, DWORD PTR [eax+4]
  00063	8b 72 04	 mov	 esi, DWORD PTR [edx+4]
  00066	8b 0e		 mov	 ecx, DWORD PTR [esi]
  00068	3b d1		 cmp	 edx, ecx
  0006a	0f 85 aa 00 00
	00		 jne	 $LN10@Insert_nod

; 698  :                 const auto _Parent_sibling = _Pnode->_Parent->_Parent->_Right;

  00070	8b 4e 08	 mov	 ecx, DWORD PTR [esi+8]

; 699  :                 if (_Parent_sibling->_Color == _Red) { // parent's sibling has two red children, blacken both

  00073	80 79 0c 00	 cmp	 BYTE PTR [ecx+12], 0
  00077	0f 84 a3 00 00
	00		 je	 $LN82@Insert_nod

; 700  :                     _Pnode->_Parent->_Color          = _Black;
; 701  :                     _Parent_sibling->_Color          = _Black;
; 702  :                     _Pnode->_Parent->_Parent->_Color = _Red;
; 703  :                     _Pnode                           = _Pnode->_Parent->_Parent;
; 704  :                 } else { // parent's sibling has red and black children
; 705  :                     if (_Pnode == _Pnode->_Parent->_Right) { // rotate right child to left

  0007d	8b 72 08	 mov	 esi, DWORD PTR [edx+8]
  00080	3b c6		 cmp	 eax, esi
  00082	75 37		 jne	 SHORT $LN57@Insert_nod

; 485  :         _Wherenode->_Right = _Pnode->_Left;

  00084	8b 0e		 mov	 ecx, DWORD PTR [esi]

; 706  :                         _Pnode = _Pnode->_Parent;

  00086	8b c2		 mov	 eax, edx

; 485  :         _Wherenode->_Right = _Pnode->_Left;

  00088	89 4a 08	 mov	 DWORD PTR [edx+8], ecx

; 486  : 
; 487  :         if (!_Pnode->_Left->_Isnil) {

  0008b	8b 0e		 mov	 ecx, DWORD PTR [esi]
  0008d	80 79 0d 00	 cmp	 BYTE PTR [ecx+13], 0
  00091	75 03		 jne	 SHORT $LN21@Insert_nod

; 488  :             _Pnode->_Left->_Parent = _Wherenode;

  00093	89 41 04	 mov	 DWORD PTR [ecx+4], eax
$LN21@Insert_nod:

; 489  :         }
; 490  : 
; 491  :         _Pnode->_Parent = _Wherenode->_Parent;

  00096	8b 4a 04	 mov	 ecx, DWORD PTR [edx+4]
  00099	89 4e 04	 mov	 DWORD PTR [esi+4], ecx

; 492  : 
; 493  :         if (_Wherenode == _Myhead->_Parent) {

  0009c	8b 0b		 mov	 ecx, DWORD PTR [ebx]
  0009e	3b 41 04	 cmp	 eax, DWORD PTR [ecx+4]
  000a1	75 05		 jne	 SHORT $LN22@Insert_nod

; 494  :             _Myhead->_Parent = _Pnode;

  000a3	89 71 04	 mov	 DWORD PTR [ecx+4], esi
  000a6	eb 0e		 jmp	 SHORT $LN25@Insert_nod
$LN22@Insert_nod:

; 495  :         } else if (_Wherenode == _Wherenode->_Parent->_Left) {

  000a8	8b 4a 04	 mov	 ecx, DWORD PTR [edx+4]
  000ab	3b 01		 cmp	 eax, DWORD PTR [ecx]
  000ad	75 04		 jne	 SHORT $LN24@Insert_nod

; 496  :             _Wherenode->_Parent->_Left = _Pnode;

  000af	89 31		 mov	 DWORD PTR [ecx], esi

; 497  :         } else {

  000b1	eb 03		 jmp	 SHORT $LN25@Insert_nod
$LN24@Insert_nod:

; 498  :             _Wherenode->_Parent->_Right = _Pnode;

  000b3	89 71 08	 mov	 DWORD PTR [ecx+8], esi
$LN25@Insert_nod:

; 499  :         }
; 500  : 
; 501  :         _Pnode->_Left       = _Wherenode;

  000b6	89 06		 mov	 DWORD PTR [esi], eax

; 502  :         _Wherenode->_Parent = _Pnode;

  000b8	89 70 04	 mov	 DWORD PTR [eax+4], esi
$LN57@Insert_nod:

; 707  :                         _Lrotate(_Pnode);
; 708  :                     }
; 709  : 
; 710  :                     _Pnode->_Parent->_Color          = _Black; // propagate red up

  000bb	8b 48 04	 mov	 ecx, DWORD PTR [eax+4]
  000be	c6 41 0c 01	 mov	 BYTE PTR [ecx+12], 1

; 711  :                     _Pnode->_Parent->_Parent->_Color = _Red;

  000c2	8b 48 04	 mov	 ecx, DWORD PTR [eax+4]
  000c5	8b 49 04	 mov	 ecx, DWORD PTR [ecx+4]
  000c8	c6 41 0c 00	 mov	 BYTE PTR [ecx+12], 0

; 712  :                     _Rrotate(_Pnode->_Parent->_Parent);

  000cc	8b 48 04	 mov	 ecx, DWORD PTR [eax+4]
  000cf	8b 51 04	 mov	 edx, DWORD PTR [ecx+4]

; 506  :         _Nodeptr _Pnode   = _Wherenode->_Left;

  000d2	8b 32		 mov	 esi, DWORD PTR [edx]

; 507  :         _Wherenode->_Left = _Pnode->_Right;

  000d4	8b 4e 08	 mov	 ecx, DWORD PTR [esi+8]
  000d7	89 0a		 mov	 DWORD PTR [edx], ecx

; 508  : 
; 509  :         if (!_Pnode->_Right->_Isnil) {

  000d9	8b 4e 08	 mov	 ecx, DWORD PTR [esi+8]
  000dc	80 79 0d 00	 cmp	 BYTE PTR [ecx+13], 0
  000e0	75 03		 jne	 SHORT $LN29@Insert_nod

; 510  :             _Pnode->_Right->_Parent = _Wherenode;

  000e2	89 51 04	 mov	 DWORD PTR [ecx+4], edx
$LN29@Insert_nod:

; 511  :         }
; 512  : 
; 513  :         _Pnode->_Parent = _Wherenode->_Parent;

  000e5	8b 4a 04	 mov	 ecx, DWORD PTR [edx+4]
  000e8	89 4e 04	 mov	 DWORD PTR [esi+4], ecx

; 514  : 
; 515  :         if (_Wherenode == _Myhead->_Parent) {

  000eb	8b 0b		 mov	 ecx, DWORD PTR [ebx]
  000ed	3b 51 04	 cmp	 edx, DWORD PTR [ecx+4]
  000f0	75 0b		 jne	 SHORT $LN30@Insert_nod

; 516  :             _Myhead->_Parent = _Pnode;

  000f2	89 71 04	 mov	 DWORD PTR [ecx+4], esi

; 521  :         }
; 522  : 
; 523  :         _Pnode->_Right      = _Wherenode;

  000f5	89 56 08	 mov	 DWORD PTR [esi+8], edx

; 713  :                 }
; 714  :             } else { // fixup red-red in right subtree

  000f8	e9 cc 00 00 00	 jmp	 $LN81@Insert_nod
$LN30@Insert_nod:

; 517  :         } else if (_Wherenode == _Wherenode->_Parent->_Right) {

  000fd	8b 4a 04	 mov	 ecx, DWORD PTR [edx+4]
  00100	3b 51 08	 cmp	 edx, DWORD PTR [ecx+8]
  00103	75 0b		 jne	 SHORT $LN32@Insert_nod

; 518  :             _Wherenode->_Parent->_Right = _Pnode;

  00105	89 71 08	 mov	 DWORD PTR [ecx+8], esi

; 521  :         }
; 522  : 
; 523  :         _Pnode->_Right      = _Wherenode;

  00108	89 56 08	 mov	 DWORD PTR [esi+8], edx

; 713  :                 }
; 714  :             } else { // fixup red-red in right subtree

  0010b	e9 b9 00 00 00	 jmp	 $LN81@Insert_nod
$LN32@Insert_nod:

; 520  :             _Wherenode->_Parent->_Left = _Pnode;

  00110	89 31		 mov	 DWORD PTR [ecx], esi

; 521  :         }
; 522  : 
; 523  :         _Pnode->_Right      = _Wherenode;

  00112	89 56 08	 mov	 DWORD PTR [esi+8], edx

; 713  :                 }
; 714  :             } else { // fixup red-red in right subtree

  00115	e9 af 00 00 00	 jmp	 $LN81@Insert_nod
$LN10@Insert_nod:

; 715  :                 const auto _Parent_sibling = _Pnode->_Parent->_Parent->_Left;
; 716  :                 if (_Parent_sibling->_Color == _Red) { // parent's sibling has two red children, blacken both

  0011a	80 79 0c 00	 cmp	 BYTE PTR [ecx+12], 0
  0011e	75 1d		 jne	 SHORT $LN15@Insert_nod
$LN82@Insert_nod:

; 693  :             }
; 694  :         }
; 695  : 
; 696  :         for (_Nodeptr _Pnode = _Newnode; _Pnode->_Parent->_Color == _Red;) {

  00120	c6 42 0c 01	 mov	 BYTE PTR [edx+12], 1
  00124	c6 41 0c 01	 mov	 BYTE PTR [ecx+12], 1
  00128	8b 48 04	 mov	 ecx, DWORD PTR [eax+4]
  0012b	8b 49 04	 mov	 ecx, DWORD PTR [ecx+4]
  0012e	c6 41 0c 00	 mov	 BYTE PTR [ecx+12], 0
  00132	8b 48 04	 mov	 ecx, DWORD PTR [eax+4]
  00135	8b 41 04	 mov	 eax, DWORD PTR [ecx+4]
  00138	e9 8f 00 00 00	 jmp	 $LN2@Insert_nod
$LN15@Insert_nod:

; 717  :                     _Pnode->_Parent->_Color          = _Black;
; 718  :                     _Parent_sibling->_Color          = _Black;
; 719  :                     _Pnode->_Parent->_Parent->_Color = _Red;
; 720  :                     _Pnode                           = _Pnode->_Parent->_Parent;
; 721  :                 } else { // parent's sibling has red and black children
; 722  :                     if (_Pnode == _Pnode->_Parent->_Left) { // rotate left child to right

  0013d	8b 32		 mov	 esi, DWORD PTR [edx]
  0013f	3b c6		 cmp	 eax, esi
  00141	75 3a		 jne	 SHORT $LN42@Insert_nod

; 507  :         _Wherenode->_Left = _Pnode->_Right;

  00143	8b 4e 08	 mov	 ecx, DWORD PTR [esi+8]

; 723  :                         _Pnode = _Pnode->_Parent;

  00146	8b c2		 mov	 eax, edx

; 507  :         _Wherenode->_Left = _Pnode->_Right;

  00148	89 08		 mov	 DWORD PTR [eax], ecx

; 508  : 
; 509  :         if (!_Pnode->_Right->_Isnil) {

  0014a	8b 4e 08	 mov	 ecx, DWORD PTR [esi+8]
  0014d	80 79 0d 00	 cmp	 BYTE PTR [ecx+13], 0
  00151	75 03		 jne	 SHORT $LN37@Insert_nod

; 510  :             _Pnode->_Right->_Parent = _Wherenode;

  00153	89 41 04	 mov	 DWORD PTR [ecx+4], eax
$LN37@Insert_nod:

; 511  :         }
; 512  : 
; 513  :         _Pnode->_Parent = _Wherenode->_Parent;

  00156	8b 4a 04	 mov	 ecx, DWORD PTR [edx+4]
  00159	89 4e 04	 mov	 DWORD PTR [esi+4], ecx

; 514  : 
; 515  :         if (_Wherenode == _Myhead->_Parent) {

  0015c	8b 0b		 mov	 ecx, DWORD PTR [ebx]
  0015e	3b 41 04	 cmp	 eax, DWORD PTR [ecx+4]
  00161	75 05		 jne	 SHORT $LN38@Insert_nod

; 516  :             _Myhead->_Parent = _Pnode;

  00163	89 71 04	 mov	 DWORD PTR [ecx+4], esi
  00166	eb 0f		 jmp	 SHORT $LN41@Insert_nod
$LN38@Insert_nod:

; 517  :         } else if (_Wherenode == _Wherenode->_Parent->_Right) {

  00168	8b 4a 04	 mov	 ecx, DWORD PTR [edx+4]
  0016b	3b 41 08	 cmp	 eax, DWORD PTR [ecx+8]
  0016e	75 05		 jne	 SHORT $LN40@Insert_nod

; 518  :             _Wherenode->_Parent->_Right = _Pnode;

  00170	89 71 08	 mov	 DWORD PTR [ecx+8], esi

; 519  :         } else {

  00173	eb 02		 jmp	 SHORT $LN41@Insert_nod
$LN40@Insert_nod:

; 520  :             _Wherenode->_Parent->_Left = _Pnode;

  00175	89 31		 mov	 DWORD PTR [ecx], esi
$LN41@Insert_nod:

; 521  :         }
; 522  : 
; 523  :         _Pnode->_Right      = _Wherenode;

  00177	89 46 08	 mov	 DWORD PTR [esi+8], eax

; 524  :         _Wherenode->_Parent = _Pnode;

  0017a	89 70 04	 mov	 DWORD PTR [eax+4], esi
$LN42@Insert_nod:

; 724  :                         _Rrotate(_Pnode);
; 725  :                     }
; 726  : 
; 727  :                     _Pnode->_Parent->_Color          = _Black; // propagate red up

  0017d	8b 48 04	 mov	 ecx, DWORD PTR [eax+4]
  00180	c6 41 0c 01	 mov	 BYTE PTR [ecx+12], 1

; 728  :                     _Pnode->_Parent->_Parent->_Color = _Red;

  00184	8b 48 04	 mov	 ecx, DWORD PTR [eax+4]
  00187	8b 49 04	 mov	 ecx, DWORD PTR [ecx+4]
  0018a	c6 41 0c 00	 mov	 BYTE PTR [ecx+12], 0

; 729  :                     _Lrotate(_Pnode->_Parent->_Parent);

  0018e	8b 48 04	 mov	 ecx, DWORD PTR [eax+4]
  00191	8b 51 04	 mov	 edx, DWORD PTR [ecx+4]

; 484  :         _Nodeptr _Pnode    = _Wherenode->_Right;

  00194	8b 72 08	 mov	 esi, DWORD PTR [edx+8]

; 485  :         _Wherenode->_Right = _Pnode->_Left;

  00197	8b 0e		 mov	 ecx, DWORD PTR [esi]
  00199	89 4a 08	 mov	 DWORD PTR [edx+8], ecx

; 486  : 
; 487  :         if (!_Pnode->_Left->_Isnil) {

  0019c	8b 0e		 mov	 ecx, DWORD PTR [esi]
  0019e	80 79 0d 00	 cmp	 BYTE PTR [ecx+13], 0
  001a2	75 03		 jne	 SHORT $LN45@Insert_nod

; 488  :             _Pnode->_Left->_Parent = _Wherenode;

  001a4	89 51 04	 mov	 DWORD PTR [ecx+4], edx
$LN45@Insert_nod:

; 489  :         }
; 490  : 
; 491  :         _Pnode->_Parent = _Wherenode->_Parent;

  001a7	8b 4a 04	 mov	 ecx, DWORD PTR [edx+4]
  001aa	89 4e 04	 mov	 DWORD PTR [esi+4], ecx

; 492  : 
; 493  :         if (_Wherenode == _Myhead->_Parent) {

  001ad	8b 0b		 mov	 ecx, DWORD PTR [ebx]
  001af	3b 51 04	 cmp	 edx, DWORD PTR [ecx+4]
  001b2	75 05		 jne	 SHORT $LN46@Insert_nod

; 494  :             _Myhead->_Parent = _Pnode;

  001b4	89 71 04	 mov	 DWORD PTR [ecx+4], esi
  001b7	eb 0e		 jmp	 SHORT $LN49@Insert_nod
$LN46@Insert_nod:

; 495  :         } else if (_Wherenode == _Wherenode->_Parent->_Left) {

  001b9	8b 4a 04	 mov	 ecx, DWORD PTR [edx+4]
  001bc	3b 11		 cmp	 edx, DWORD PTR [ecx]
  001be	75 04		 jne	 SHORT $LN48@Insert_nod

; 496  :             _Wherenode->_Parent->_Left = _Pnode;

  001c0	89 31		 mov	 DWORD PTR [ecx], esi

; 497  :         } else {

  001c2	eb 03		 jmp	 SHORT $LN49@Insert_nod
$LN48@Insert_nod:

; 498  :             _Wherenode->_Parent->_Right = _Pnode;

  001c4	89 71 08	 mov	 DWORD PTR [ecx+8], esi
$LN49@Insert_nod:

; 499  :         }
; 500  : 
; 501  :         _Pnode->_Left       = _Wherenode;

  001c7	89 16		 mov	 DWORD PTR [esi], edx
$LN81@Insert_nod:

; 693  :             }
; 694  :         }
; 695  : 
; 696  :         for (_Nodeptr _Pnode = _Newnode; _Pnode->_Parent->_Color == _Red;) {

  001c9	89 72 04	 mov	 DWORD PTR [edx+4], esi
$LN2@Insert_nod:
  001cc	8b 48 04	 mov	 ecx, DWORD PTR [eax+4]
  001cf	80 79 0c 00	 cmp	 BYTE PTR [ecx+12], 0
  001d3	0f 84 87 fe ff
	ff		 je	 $LL4@Insert_nod
  001d9	5e		 pop	 esi
$LN3@Insert_nod:

; 730  :                 }
; 731  :             }
; 732  :         }
; 733  : 
; 734  :         _Head->_Parent->_Color = _Black; // root is always black

  001da	8b 45 fc	 mov	 eax, DWORD PTR __Head$1$[ebp]
  001dd	8b 40 04	 mov	 eax, DWORD PTR [eax+4]
  001e0	c6 40 0c 01	 mov	 BYTE PTR [eax+12], 1

; 735  :         return _Newnode;
; 736  :     }

  001e4	8b c7		 mov	 eax, edi
  001e6	5f		 pop	 edi
  001e7	5b		 pop	 ebx
  001e8	8b e5		 mov	 esp, ebp
  001ea	5d		 pop	 ebp
  001eb	c2 0c 00	 ret	 12			; 0000000cH
?_Insert_node@?$_Tree_val@U?$_Tree_simple_types@U?$pair@$$CBKE@std@@@std@@@std@@QAEPAU?$_Tree_node@U?$pair@$$CBKE@std@@PAX@2@U?$_Tree_id@PAU?$_Tree_node@U?$pair@$$CBKE@std@@PAX@std@@@2@QAU32@@Z ENDP ; std::_Tree_val<std::_Tree_simple_types<std::pair<unsigned long const ,unsigned char> > >::_Insert_node
_TEXT	ENDS
; Function compile flags: /Ogtp
; File C:\Program Files\Microsoft Visual Studio\2022\Professional\VC\Tools\MSVC\14.44.35207\include\xtree
; File C:\Program Files\Microsoft Visual Studio\2022\Professional\VC\Tools\MSVC\14.44.35207\include\utility
; File C:\Program Files\Microsoft Visual Studio\2022\Professional\VC\Tools\MSVC\14.44.35207\include\xtree
;	COMDAT ?_Extract@?$_Tree_val@U?$_Tree_simple_types@U?$pair@$$CBKE@std@@@std@@@std@@QAEPAU?$_Tree_node@U?$pair@$$CBKE@std@@PAX@2@V?$_Tree_unchecked_const_iterator@V?$_Tree_val@U?$_Tree_simple_types@U?$pair@$$CBKE@std@@@std@@@std@@U_Iterator_base0@2@@2@@Z
_TEXT	SEGMENT
tv1039 = -16						; size = 4
tv1073 = -12						; size = 4
tv1093 = -12						; size = 4
$T1 = -12						; size = 4
__Erasednode$1$ = -8					; size = 4
_this$1$ = -4						; size = 4
__Where$ = 8						; size = 4
?_Extract@?$_Tree_val@U?$_Tree_simple_types@U?$pair@$$CBKE@std@@@std@@@std@@QAEPAU?$_Tree_node@U?$pair@$$CBKE@std@@PAX@2@V?$_Tree_unchecked_const_iterator@V?$_Tree_val@U?$_Tree_simple_types@U?$pair@$$CBKE@std@@@std@@@std@@U_Iterator_base0@2@@2@@Z PROC ; std::_Tree_val<std::_Tree_simple_types<std::pair<unsigned long const ,unsigned char> > >::_Extract, COMDAT
; _this$ = ecx

; 527  :     _Nodeptr _Extract(_Unchecked_const_iterator _Where) noexcept {

  00000	55		 push	 ebp
  00001	8b ec		 mov	 ebp, esp
  00003	83 ec 10	 sub	 esp, 16			; 00000010H

; 528  :         _Nodeptr _Erasednode = _Where._Ptr; // node to erase

  00006	8b 45 08	 mov	 eax, DWORD PTR __Where$[ebp]
  00009	53		 push	 ebx
  0000a	56		 push	 esi
  0000b	8b d9		 mov	 ebx, ecx
  0000d	89 45 f8	 mov	 DWORD PTR __Erasednode$1$[ebp], eax
  00010	57		 push	 edi

; 529  :         ++_Where; // save successor iterator for return

  00011	8d 4d 08	 lea	 ecx, DWORD PTR __Where$[ebp]
  00014	89 5d fc	 mov	 DWORD PTR _this$1$[ebp], ebx
  00017	e8 00 00 00 00	 call	 ??E?$_Tree_unchecked_const_iterator@V?$_Tree_val@U?$_Tree_simple_types@U?$pair@$$CBKE@std@@@std@@@std@@U_Iterator_base0@2@@std@@QAEAAV01@XZ ; std::_Tree_unchecked_const_iterator<std::_Tree_val<std::_Tree_simple_types<std::pair<unsigned long const ,unsigned char> > >,std::_Iterator_base0>::operator++

; 530  : 
; 531  :         _Nodeptr _Fixnode; // the node to recolor as needed
; 532  :         _Nodeptr _Fixnodeparent; // parent of _Fixnode (which may be nil)
; 533  :         _Nodeptr _Pnode = _Erasednode;
; 534  : 
; 535  :         if (_Pnode->_Left->_Isnil) {

  0001c	8b 4d f8	 mov	 ecx, DWORD PTR __Erasednode$1$[ebp]
  0001f	8b 01		 mov	 eax, DWORD PTR [ecx]
  00021	8b 79 08	 mov	 edi, DWORD PTR [ecx+8]
  00024	80 78 0d 00	 cmp	 BYTE PTR [eax+13], 0
  00028	75 18		 jne	 SHORT $LN94@Extract

; 536  :             _Fixnode = _Pnode->_Right; // stitch up right subtree
; 537  :         } else if (_Pnode->_Right->_Isnil) {

  0002a	80 7f 0d 00	 cmp	 BYTE PTR [edi+13], 0
  0002e	74 04		 je	 SHORT $LN7@Extract

; 538  :             _Fixnode = _Pnode->_Left; // stitch up left subtree

  00030	8b f8		 mov	 edi, eax

; 539  :         } else { // two subtrees, must lift successor node to replace erased

  00032	eb 0e		 jmp	 SHORT $LN94@Extract
$LN7@Extract:

; 540  :             _Pnode   = _Where._Ptr; // _Pnode is successor node

  00034	8b 55 08	 mov	 edx, DWORD PTR __Where$[ebp]

; 541  :             _Fixnode = _Pnode->_Right; // _Fixnode is only subtree

  00037	8b 7a 08	 mov	 edi, DWORD PTR [edx+8]
  0003a	3b d1		 cmp	 edx, ecx

; 542  :         }
; 543  : 
; 544  :         if (_Pnode == _Erasednode) { // at most one subtree, relink it

  0003c	0f 85 91 00 00
	00		 jne	 $LN9@Extract
$LN94@Extract:

; 545  :             _Fixnodeparent = _Erasednode->_Parent;
; 546  :             if (!_Fixnode->_Isnil) {

  00042	80 7f 0d 00	 cmp	 BYTE PTR [edi+13], 0
  00046	8b 71 04	 mov	 esi, DWORD PTR [ecx+4]
  00049	75 03		 jne	 SHORT $LN11@Extract

; 547  :                 _Fixnode->_Parent = _Fixnodeparent; // link up

  0004b	89 77 04	 mov	 DWORD PTR [edi+4], esi
$LN11@Extract:

; 548  :             }
; 549  : 
; 550  :             if (_Myhead->_Parent == _Erasednode) {

  0004e	8b 03		 mov	 eax, DWORD PTR [ebx]
  00050	39 48 04	 cmp	 DWORD PTR [eax+4], ecx
  00053	75 05		 jne	 SHORT $LN12@Extract

; 551  :                 _Myhead->_Parent = _Fixnode; // link down from root

  00055	89 78 04	 mov	 DWORD PTR [eax+4], edi
  00058	eb 0b		 jmp	 SHORT $LN15@Extract
$LN12@Extract:

; 552  :             } else if (_Fixnodeparent->_Left == _Erasednode) {

  0005a	39 0e		 cmp	 DWORD PTR [esi], ecx
  0005c	75 04		 jne	 SHORT $LN14@Extract

; 553  :                 _Fixnodeparent->_Left = _Fixnode; // link down to left

  0005e	89 3e		 mov	 DWORD PTR [esi], edi

; 554  :             } else {

  00060	eb 03		 jmp	 SHORT $LN15@Extract
$LN14@Extract:

; 555  :                 _Fixnodeparent->_Right = _Fixnode; // link down to right

  00062	89 7e 08	 mov	 DWORD PTR [esi+8], edi
$LN15@Extract:

; 556  :             }
; 557  : 
; 558  :             if (_Myhead->_Left == _Erasednode) {

  00065	8b 03		 mov	 eax, DWORD PTR [ebx]
  00067	39 08		 cmp	 DWORD PTR [eax], ecx
  00069	75 28		 jne	 SHORT $LN16@Extract

; 559  :                 _Myhead->_Left = _Fixnode->_Isnil ? _Fixnodeparent // smallest is parent of erased node

  0006b	80 7f 0d 00	 cmp	 BYTE PTR [edi+13], 0
  0006f	74 04		 je	 SHORT $LN42@Extract
  00071	8b d6		 mov	 edx, esi
  00073	eb 1c		 jmp	 SHORT $LN43@Extract
$LN42@Extract:

; 476  :         while (!_Pnode->_Left->_Isnil) {

  00075	8b 0f		 mov	 ecx, DWORD PTR [edi]

; 559  :                 _Myhead->_Left = _Fixnode->_Isnil ? _Fixnodeparent // smallest is parent of erased node

  00077	8b d7		 mov	 edx, edi

; 476  :         while (!_Pnode->_Left->_Isnil) {

  00079	80 79 0d 00	 cmp	 BYTE PTR [ecx+13], 0
  0007d	75 0f		 jne	 SHORT $LN49@Extract
  0007f	90		 npad	 1
$LL48@Extract:
  00080	8b 01		 mov	 eax, DWORD PTR [ecx]

; 477  :             _Pnode = _Pnode->_Left;

  00082	8b d1		 mov	 edx, ecx
  00084	8b c8		 mov	 ecx, eax
  00086	80 78 0d 00	 cmp	 BYTE PTR [eax+13], 0
  0008a	74 f4		 je	 SHORT $LL48@Extract
  0008c	8b 03		 mov	 eax, DWORD PTR [ebx]
$LN49@Extract:
  0008e	8b 4d f8	 mov	 ecx, DWORD PTR __Erasednode$1$[ebp]
$LN43@Extract:

; 559  :                 _Myhead->_Left = _Fixnode->_Isnil ? _Fixnodeparent // smallest is parent of erased node

  00091	89 10		 mov	 DWORD PTR [eax], edx
$LN16@Extract:

; 560  :                                                   : _Min(_Fixnode); // smallest in relinked subtree
; 561  :             }
; 562  : 
; 563  :             if (_Myhead->_Right == _Erasednode) {

  00093	8b 13		 mov	 edx, DWORD PTR [ebx]
  00095	39 4a 08	 cmp	 DWORD PTR [edx+8], ecx
  00098	75 34		 jne	 SHORT $LN17@Extract

; 564  :                 _Myhead->_Right = _Fixnode->_Isnil ? _Fixnodeparent // largest is parent of erased node

  0009a	80 7f 0d 00	 cmp	 BYTE PTR [edi+13], 0
  0009e	74 0d		 je	 SHORT $LN44@Extract

; 565  :                                                    : _Max(_Fixnode); // largest in relinked subtree
; 566  :             }
; 567  :         } else { // erased has two subtrees, _Pnode is successor to erased

  000a0	8b 45 f8	 mov	 eax, DWORD PTR __Erasednode$1$[ebp]
  000a3	8b ce		 mov	 ecx, esi
  000a5	89 4a 08	 mov	 DWORD PTR [edx+8], ecx
  000a8	e9 94 00 00 00	 jmp	 $LN58@Extract
$LN44@Extract:

; 468  :         while (!_Pnode->_Right->_Isnil) {

  000ad	8b 47 08	 mov	 eax, DWORD PTR [edi+8]

; 564  :                 _Myhead->_Right = _Fixnode->_Isnil ? _Fixnodeparent // largest is parent of erased node

  000b0	8b cf		 mov	 ecx, edi

; 468  :         while (!_Pnode->_Right->_Isnil) {

  000b2	80 78 0d 00	 cmp	 BYTE PTR [eax+13], 0
  000b6	75 13		 jne	 SHORT $LN54@Extract
  000b8	0f 1f 84 00 00
	00 00 00	 npad	 8
$LL53@Extract:

; 469  :             _Pnode = _Pnode->_Right;

  000c0	8b c8		 mov	 ecx, eax
  000c2	8b 41 08	 mov	 eax, DWORD PTR [ecx+8]
  000c5	80 78 0d 00	 cmp	 BYTE PTR [eax+13], 0
  000c9	74 f5		 je	 SHORT $LL53@Extract
$LN54@Extract:

; 564  :                 _Myhead->_Right = _Fixnode->_Isnil ? _Fixnodeparent // largest is parent of erased node

  000cb	89 4a 08	 mov	 DWORD PTR [edx+8], ecx
$LN17@Extract:

; 565  :                                                    : _Max(_Fixnode); // largest in relinked subtree
; 566  :             }
; 567  :         } else { // erased has two subtrees, _Pnode is successor to erased

  000ce	8b 45 f8	 mov	 eax, DWORD PTR __Erasednode$1$[ebp]
  000d1	eb 6e		 jmp	 SHORT $LN58@Extract
$LN9@Extract:

; 568  :             _Erasednode->_Left->_Parent = _Pnode; // link left up

  000d3	89 50 04	 mov	 DWORD PTR [eax+4], edx

; 569  :             _Pnode->_Left               = _Erasednode->_Left; // link successor down

  000d6	8b 01		 mov	 eax, DWORD PTR [ecx]
  000d8	89 02		 mov	 DWORD PTR [edx], eax

; 570  : 
; 571  :             if (_Pnode == _Erasednode->_Right) {

  000da	8d 42 04	 lea	 eax, DWORD PTR [edx+4]
  000dd	89 45 f4	 mov	 DWORD PTR $T1[ebp], eax
  000e0	3b 51 08	 cmp	 edx, DWORD PTR [ecx+8]
  000e3	75 04		 jne	 SHORT $LN18@Extract

; 572  :                 _Fixnodeparent = _Pnode; // successor is next to erased

  000e5	8b f2		 mov	 esi, edx

; 573  :             } else { // successor further down, link in place of erased

  000e7	eb 1f		 jmp	 SHORT $LN19@Extract
$LN18@Extract:

; 574  :                 _Fixnodeparent = _Pnode->_Parent; // parent is successor's
; 575  :                 if (!_Fixnode->_Isnil) {

  000e9	80 7f 0d 00	 cmp	 BYTE PTR [edi+13], 0
  000ed	8b 30		 mov	 esi, DWORD PTR [eax]
  000ef	75 03		 jne	 SHORT $LN20@Extract

; 576  :                     _Fixnode->_Parent = _Fixnodeparent; // link fix up

  000f1	89 77 04	 mov	 DWORD PTR [edi+4], esi
$LN20@Extract:

; 577  :                 }
; 578  : 
; 579  :                 _Fixnodeparent->_Left        = _Fixnode; // link fix down

  000f4	89 3e		 mov	 DWORD PTR [esi], edi

; 580  :                 _Pnode->_Right               = _Erasednode->_Right; // link next down

  000f6	8b 41 08	 mov	 eax, DWORD PTR [ecx+8]
  000f9	89 42 08	 mov	 DWORD PTR [edx+8], eax

; 581  :                 _Erasednode->_Right->_Parent = _Pnode; // right up

  000fc	8b 41 08	 mov	 eax, DWORD PTR [ecx+8]
  000ff	89 50 04	 mov	 DWORD PTR [eax+4], edx
  00102	8d 42 04	 lea	 eax, DWORD PTR [edx+4]
  00105	89 45 f4	 mov	 DWORD PTR $T1[ebp], eax
$LN19@Extract:

; 582  :             }
; 583  : 
; 584  :             if (_Myhead->_Parent == _Erasednode) {

  00108	8b 03		 mov	 eax, DWORD PTR [ebx]
  0010a	39 48 04	 cmp	 DWORD PTR [eax+4], ecx
  0010d	75 05		 jne	 SHORT $LN21@Extract

; 585  :                 _Myhead->_Parent = _Pnode; // link down from root

  0010f	89 50 04	 mov	 DWORD PTR [eax+4], edx
  00112	eb 0e		 jmp	 SHORT $LN141@Extract
$LN21@Extract:

; 586  :             } else if (_Erasednode->_Parent->_Left == _Erasednode) {

  00114	8b 41 04	 mov	 eax, DWORD PTR [ecx+4]
  00117	39 08		 cmp	 DWORD PTR [eax], ecx
  00119	75 04		 jne	 SHORT $LN23@Extract

; 587  :                 _Erasednode->_Parent->_Left = _Pnode; // link down to left

  0011b	89 10		 mov	 DWORD PTR [eax], edx

; 588  :             } else {

  0011d	eb 03		 jmp	 SHORT $LN141@Extract
$LN23@Extract:

; 589  :                 _Erasednode->_Parent->_Right = _Pnode; // link down to right

  0011f	89 50 08	 mov	 DWORD PTR [eax+8], edx
$LN141@Extract:

; 590  :             }
; 591  : 
; 592  :             _Pnode->_Parent = _Erasednode->_Parent; // link successor up

  00122	b8 04 00 00 00	 mov	 eax, 4
  00127	8b 04 08	 mov	 eax, DWORD PTR [eax+ecx]
  0012a	8b 4d f4	 mov	 ecx, DWORD PTR $T1[ebp]
  0012d	89 01		 mov	 DWORD PTR [ecx], eax
; File C:\Program Files\Microsoft Visual Studio\2022\Professional\VC\Tools\MSVC\14.44.35207\include\utility

; 140  :     _Left    = _STD move(_Right);

  0012f	8b 45 f8	 mov	 eax, DWORD PTR __Erasednode$1$[ebp]
  00132	8a 4a 0c	 mov	 cl, BYTE PTR [edx+12]
  00135	8a 40 0c	 mov	 al, BYTE PTR [eax+12]
  00138	88 42 0c	 mov	 BYTE PTR [edx+12], al

; 141  :     _Right   = _STD move(_Tmp);

  0013b	8b 45 f8	 mov	 eax, DWORD PTR __Erasednode$1$[ebp]
  0013e	88 48 0c	 mov	 BYTE PTR [eax+12], cl
$LN58@Extract:
; File C:\Program Files\Microsoft Visual Studio\2022\Professional\VC\Tools\MSVC\14.44.35207\include\xtree

; 596  :         if (_Erasednode->_Color == _Black) { // erasing black link, must recolor/rebalance tree

  00141	80 78 0c 01	 cmp	 BYTE PTR [eax+12], 1
  00145	0f 85 ba 01 00
	00		 jne	 $LN25@Extract

; 597  :             for (; _Fixnode != _Myhead->_Parent && _Fixnode->_Color == _Black; _Fixnodeparent = _Fixnode->_Parent) {

  0014b	8b 03		 mov	 eax, DWORD PTR [ebx]
  0014d	3b 78 04	 cmp	 edi, DWORD PTR [eax+4]
  00150	0f 84 a8 01 00
	00		 je	 $LN3@Extract
  00156	80 7f 0c 01	 cmp	 BYTE PTR [edi+12], 1
  0015a	89 75 f4	 mov	 DWORD PTR tv1093[ebp], esi
  0015d	0f 85 9b 01 00
	00		 jne	 $LN3@Extract
$LL4@Extract:

; 598  :                 if (_Fixnode == _Fixnodeparent->_Left) { // fixup left subtree

  00163	8b 0e		 mov	 ecx, DWORD PTR [esi]
  00165	3b f9		 cmp	 edi, ecx
  00167	0f 85 be 00 00
	00		 jne	 $LN26@Extract

; 599  :                     _Pnode = _Fixnodeparent->_Right;

  0016d	8b 4e 08	 mov	 ecx, DWORD PTR [esi+8]

; 600  :                     if (_Pnode->_Color == _Red) { // rotate red up from right subtree

  00170	80 79 0c 00	 cmp	 BYTE PTR [ecx+12], 0
  00174	75 54		 jne	 SHORT $LN95@Extract

; 601  :                         _Pnode->_Color         = _Black;

  00176	c6 41 0c 01	 mov	 BYTE PTR [ecx+12], 1

; 484  :         _Nodeptr _Pnode    = _Wherenode->_Right;

  0017a	8b 4e 08	 mov	 ecx, DWORD PTR [esi+8]

; 602  :                         _Fixnodeparent->_Color = _Red;

  0017d	c6 46 0c 00	 mov	 BYTE PTR [esi+12], 0

; 485  :         _Wherenode->_Right = _Pnode->_Left;

  00181	8b 01		 mov	 eax, DWORD PTR [ecx]
  00183	89 46 08	 mov	 DWORD PTR [esi+8], eax

; 486  : 
; 487  :         if (!_Pnode->_Left->_Isnil) {

  00186	8b 01		 mov	 eax, DWORD PTR [ecx]
  00188	80 78 0d 00	 cmp	 BYTE PTR [eax+13], 0
  0018c	75 03		 jne	 SHORT $LN61@Extract

; 488  :             _Pnode->_Left->_Parent = _Wherenode;

  0018e	89 70 04	 mov	 DWORD PTR [eax+4], esi
$LN61@Extract:

; 489  :         }
; 490  : 
; 491  :         _Pnode->_Parent = _Wherenode->_Parent;

  00191	8b 46 04	 mov	 eax, DWORD PTR [esi+4]
  00194	8d 56 04	 lea	 edx, DWORD PTR [esi+4]
  00197	89 41 04	 mov	 DWORD PTR [ecx+4], eax

; 492  : 
; 493  :         if (_Wherenode == _Myhead->_Parent) {

  0019a	8b 03		 mov	 eax, DWORD PTR [ebx]
  0019c	3b 70 04	 cmp	 esi, DWORD PTR [eax+4]
  0019f	75 0c		 jne	 SHORT $LN62@Extract

; 494  :             _Myhead->_Parent = _Pnode;

  001a1	89 48 04	 mov	 DWORD PTR [eax+4], ecx

; 499  :         }
; 500  : 
; 501  :         _Pnode->_Left       = _Wherenode;

  001a4	89 31		 mov	 DWORD PTR [ecx], esi

; 502  :         _Wherenode->_Parent = _Pnode;

  001a6	89 0a		 mov	 DWORD PTR [edx], ecx

; 603  :                         _Lrotate(_Fixnodeparent);
; 604  :                         _Pnode = _Fixnodeparent->_Right;

  001a8	8b 4e 08	 mov	 ecx, DWORD PTR [esi+8]
  001ab	eb 20		 jmp	 SHORT $LN87@Extract
$LN62@Extract:

; 495  :         } else if (_Wherenode == _Wherenode->_Parent->_Left) {

  001ad	8b 02		 mov	 eax, DWORD PTR [edx]
  001af	3b 30		 cmp	 esi, DWORD PTR [eax]
  001b1	75 0b		 jne	 SHORT $LN64@Extract

; 496  :             _Wherenode->_Parent->_Left = _Pnode;

  001b3	89 08		 mov	 DWORD PTR [eax], ecx

; 499  :         }
; 500  : 
; 501  :         _Pnode->_Left       = _Wherenode;

  001b5	89 31		 mov	 DWORD PTR [ecx], esi

; 502  :         _Wherenode->_Parent = _Pnode;

  001b7	89 0a		 mov	 DWORD PTR [edx], ecx

; 603  :                         _Lrotate(_Fixnodeparent);
; 604  :                         _Pnode = _Fixnodeparent->_Right;

  001b9	8b 4e 08	 mov	 ecx, DWORD PTR [esi+8]
  001bc	eb 0f		 jmp	 SHORT $LN87@Extract
$LN64@Extract:

; 498  :             _Wherenode->_Parent->_Right = _Pnode;

  001be	89 48 08	 mov	 DWORD PTR [eax+8], ecx

; 499  :         }
; 500  : 
; 501  :         _Pnode->_Left       = _Wherenode;

  001c1	89 31		 mov	 DWORD PTR [ecx], esi

; 502  :         _Wherenode->_Parent = _Pnode;

  001c3	89 0a		 mov	 DWORD PTR [edx], ecx

; 603  :                         _Lrotate(_Fixnodeparent);
; 604  :                         _Pnode = _Fixnodeparent->_Right;

  001c5	8b 4e 08	 mov	 ecx, DWORD PTR [esi+8]
  001c8	eb 03		 jmp	 SHORT $LN87@Extract
$LN95@Extract:
  001ca	8d 56 04	 lea	 edx, DWORD PTR [esi+4]
$LN87@Extract:

; 605  :                     }
; 606  : 
; 607  :                     if (_Pnode->_Isnil) {

  001cd	80 79 0d 00	 cmp	 BYTE PTR [ecx+13], 0
  001d1	0f 85 d0 00 00
	00		 jne	 $LN2@Extract

; 608  :                         _Fixnode = _Fixnodeparent; // shouldn't happen
; 609  :                     } else if (_Pnode->_Left->_Color == _Black
; 610  :                                && _Pnode->_Right->_Color == _Black) { // redden right subtree with black children

  001d7	8b 01		 mov	 eax, DWORD PTR [ecx]
  001d9	80 78 0c 01	 cmp	 BYTE PTR [eax+12], 1
  001dd	75 0d		 jne	 SHORT $LN97@Extract
  001df	8b 41 08	 mov	 eax, DWORD PTR [ecx+8]
  001e2	80 78 0c 01	 cmp	 BYTE PTR [eax+12], 1
  001e6	0f 84 b4 00 00
	00		 je	 $LN142@Extract
$LN97@Extract:

; 611  :                         _Pnode->_Color = _Red;
; 612  :                         _Fixnode       = _Fixnodeparent;
; 613  :                     } else { // must rearrange right subtree
; 614  :                         if (_Pnode->_Right->_Color == _Black) { // rotate red up from left sub-subtree

  001ec	8b 41 08	 mov	 eax, DWORD PTR [ecx+8]
  001ef	8b 5d fc	 mov	 ebx, DWORD PTR _this$1$[ebp]
  001f2	80 78 0c 01	 cmp	 BYTE PTR [eax+12], 1
  001f6	75 15		 jne	 SHORT $LN33@Extract

; 615  :                             _Pnode->_Left->_Color = _Black;

  001f8	8b 01		 mov	 eax, DWORD PTR [ecx]

; 616  :                             _Pnode->_Color        = _Red;
; 617  :                             _Rrotate(_Pnode);

  001fa	51		 push	 ecx
  001fb	c6 40 0c 01	 mov	 BYTE PTR [eax+12], 1
  001ff	c6 41 0c 00	 mov	 BYTE PTR [ecx+12], 0
  00203	8b cb		 mov	 ecx, ebx
  00205	e8 00 00 00 00	 call	 ?_Rrotate@?$_Tree_val@U?$_Tree_simple_types@U?$pair@$$CBKE@std@@@std@@@std@@QAEXPAU?$_Tree_node@U?$pair@$$CBKE@std@@PAX@2@@Z ; std::_Tree_val<std::_Tree_simple_types<std::pair<unsigned long const ,unsigned char> > >::_Rrotate

; 618  :                             _Pnode = _Fixnodeparent->_Right;

  0020a	8b 4e 08	 mov	 ecx, DWORD PTR [esi+8]
$LN33@Extract:

; 619  :                         }
; 620  : 
; 621  :                         _Pnode->_Color         = _Fixnodeparent->_Color;

  0020d	8a 46 0c	 mov	 al, BYTE PTR [esi+12]
  00210	88 41 0c	 mov	 BYTE PTR [ecx+12], al

; 622  :                         _Fixnodeparent->_Color = _Black;

  00213	c6 46 0c 01	 mov	 BYTE PTR [esi+12], 1

; 623  :                         _Pnode->_Right->_Color = _Black;

  00217	8b 41 08	 mov	 eax, DWORD PTR [ecx+8]

; 624  :                         _Lrotate(_Fixnodeparent);

  0021a	8b cb		 mov	 ecx, ebx
  0021c	56		 push	 esi
  0021d	c6 40 0c 01	 mov	 BYTE PTR [eax+12], 1
  00221	e8 00 00 00 00	 call	 ?_Lrotate@?$_Tree_val@U?$_Tree_simple_types@U?$pair@$$CBKE@std@@@std@@@std@@QAEXPAU?$_Tree_node@U?$pair@$$CBKE@std@@PAX@2@@Z ; std::_Tree_val<std::_Tree_simple_types<std::pair<unsigned long const ,unsigned char> > >::_Lrotate

; 625  :                         break; // tree now recolored/rebalanced

  00226	e9 d3 00 00 00	 jmp	 $LN3@Extract
$LN26@Extract:

; 626  :                     }
; 627  :                 } else { // fixup right subtree
; 628  :                     _Pnode = _Fixnodeparent->_Left;
; 629  :                     if (_Pnode->_Color == _Red) { // rotate red up from left subtree

  0022b	80 79 0c 00	 cmp	 BYTE PTR [ecx+12], 0
  0022f	75 55		 jne	 SHORT $LN96@Extract

; 630  :                         _Pnode->_Color         = _Black;

  00231	c6 41 0c 01	 mov	 BYTE PTR [ecx+12], 1

; 506  :         _Nodeptr _Pnode   = _Wherenode->_Left;

  00235	8b 0e		 mov	 ecx, DWORD PTR [esi]

; 631  :                         _Fixnodeparent->_Color = _Red;

  00237	c6 46 0c 00	 mov	 BYTE PTR [esi+12], 0

; 507  :         _Wherenode->_Left = _Pnode->_Right;

  0023b	8b 41 08	 mov	 eax, DWORD PTR [ecx+8]
  0023e	89 06		 mov	 DWORD PTR [esi], eax

; 508  : 
; 509  :         if (!_Pnode->_Right->_Isnil) {

  00240	8b 41 08	 mov	 eax, DWORD PTR [ecx+8]
  00243	80 78 0d 00	 cmp	 BYTE PTR [eax+13], 0
  00247	75 03		 jne	 SHORT $LN69@Extract

; 510  :             _Pnode->_Right->_Parent = _Wherenode;

  00249	89 70 04	 mov	 DWORD PTR [eax+4], esi
$LN69@Extract:

; 511  :         }
; 512  : 
; 513  :         _Pnode->_Parent = _Wherenode->_Parent;

  0024c	8b 46 04	 mov	 eax, DWORD PTR [esi+4]
  0024f	8d 56 04	 lea	 edx, DWORD PTR [esi+4]
  00252	89 41 04	 mov	 DWORD PTR [ecx+4], eax

; 514  : 
; 515  :         if (_Wherenode == _Myhead->_Parent) {

  00255	8b 03		 mov	 eax, DWORD PTR [ebx]
  00257	3b 70 04	 cmp	 esi, DWORD PTR [eax+4]
  0025a	75 0c		 jne	 SHORT $LN70@Extract

; 516  :             _Myhead->_Parent = _Pnode;

  0025c	89 48 04	 mov	 DWORD PTR [eax+4], ecx

; 521  :         }
; 522  : 
; 523  :         _Pnode->_Right      = _Wherenode;

  0025f	89 71 08	 mov	 DWORD PTR [ecx+8], esi

; 524  :         _Wherenode->_Parent = _Pnode;

  00262	89 0a		 mov	 DWORD PTR [edx], ecx

; 632  :                         _Rrotate(_Fixnodeparent);
; 633  :                         _Pnode = _Fixnodeparent->_Left;

  00264	8b 0e		 mov	 ecx, DWORD PTR [esi]
  00266	eb 21		 jmp	 SHORT $LN86@Extract
$LN70@Extract:

; 517  :         } else if (_Wherenode == _Wherenode->_Parent->_Right) {

  00268	8b 02		 mov	 eax, DWORD PTR [edx]
  0026a	3b 70 08	 cmp	 esi, DWORD PTR [eax+8]
  0026d	75 0c		 jne	 SHORT $LN72@Extract

; 518  :             _Wherenode->_Parent->_Right = _Pnode;

  0026f	89 48 08	 mov	 DWORD PTR [eax+8], ecx

; 521  :         }
; 522  : 
; 523  :         _Pnode->_Right      = _Wherenode;

  00272	89 71 08	 mov	 DWORD PTR [ecx+8], esi

; 524  :         _Wherenode->_Parent = _Pnode;

  00275	89 0a		 mov	 DWORD PTR [edx], ecx

; 632  :                         _Rrotate(_Fixnodeparent);
; 633  :                         _Pnode = _Fixnodeparent->_Left;

  00277	8b 0e		 mov	 ecx, DWORD PTR [esi]
  00279	eb 0e		 jmp	 SHORT $LN86@Extract
$LN72@Extract:

; 520  :             _Wherenode->_Parent->_Left = _Pnode;

  0027b	89 08		 mov	 DWORD PTR [eax], ecx

; 521  :         }
; 522  : 
; 523  :         _Pnode->_Right      = _Wherenode;

  0027d	89 71 08	 mov	 DWORD PTR [ecx+8], esi

; 524  :         _Wherenode->_Parent = _Pnode;

  00280	89 0a		 mov	 DWORD PTR [edx], ecx

; 632  :                         _Rrotate(_Fixnodeparent);
; 633  :                         _Pnode = _Fixnodeparent->_Left;

  00282	8b 0e		 mov	 ecx, DWORD PTR [esi]
  00284	eb 03		 jmp	 SHORT $LN86@Extract
$LN96@Extract:
  00286	8d 56 04	 lea	 edx, DWORD PTR [esi+4]
$LN86@Extract:

; 634  :                     }
; 635  : 
; 636  :                     if (_Pnode->_Isnil) {

  00289	80 79 0d 00	 cmp	 BYTE PTR [ecx+13], 0
  0028d	75 18		 jne	 SHORT $LN2@Extract

; 637  :                         _Fixnode = _Fixnodeparent; // shouldn't happen
; 638  :                     } else if (_Pnode->_Right->_Color == _Black
; 639  :                                && _Pnode->_Left->_Color == _Black) { // redden left subtree with black children

  0028f	8b 59 08	 mov	 ebx, DWORD PTR [ecx+8]
  00292	80 7b 0c 01	 cmp	 BYTE PTR [ebx+12], 1
  00296	75 2c		 jne	 SHORT $LN98@Extract
  00298	8b 01		 mov	 eax, DWORD PTR [ecx]
  0029a	80 78 0c 01	 cmp	 BYTE PTR [eax+12], 1
  0029e	75 24		 jne	 SHORT $LN98@Extract
$LN142@Extract:

; 597  :             for (; _Fixnode != _Myhead->_Parent && _Fixnode->_Color == _Black; _Fixnodeparent = _Fixnode->_Parent) {

  002a0	8b 5d fc	 mov	 ebx, DWORD PTR _this$1$[ebp]
  002a3	c6 41 0c 00	 mov	 BYTE PTR [ecx+12], 0
$LN2@Extract:
  002a7	8b 03		 mov	 eax, DWORD PTR [ebx]
  002a9	8b 4d f4	 mov	 ecx, DWORD PTR tv1093[ebp]
  002ac	8b f9		 mov	 edi, ecx
  002ae	8b 32		 mov	 esi, DWORD PTR [edx]
  002b0	3b 48 04	 cmp	 ecx, DWORD PTR [eax+4]
  002b3	74 49		 je	 SHORT $LN3@Extract
  002b5	80 7f 0c 01	 cmp	 BYTE PTR [edi+12], 1
  002b9	89 75 f4	 mov	 DWORD PTR tv1093[ebp], esi
  002bc	0f 84 a1 fe ff
	ff		 je	 $LL4@Extract
  002c2	eb 3a		 jmp	 SHORT $LN3@Extract
$LN98@Extract:

; 640  :                         _Pnode->_Color = _Red;
; 641  :                         _Fixnode       = _Fixnodeparent;
; 642  :                     } else { // must rearrange left subtree
; 643  :                         if (_Pnode->_Left->_Color == _Black) { // rotate red up from right sub-subtree

  002c4	8b 01		 mov	 eax, DWORD PTR [ecx]
  002c6	80 78 0c 01	 cmp	 BYTE PTR [eax+12], 1
  002ca	75 17		 jne	 SHORT $LN101@Extract

; 644  :                             _Pnode->_Right->_Color = _Black;

  002cc	c6 43 0c 01	 mov	 BYTE PTR [ebx+12], 1

; 645  :                             _Pnode->_Color         = _Red;
; 646  :                             _Lrotate(_Pnode);

  002d0	8b 5d fc	 mov	 ebx, DWORD PTR _this$1$[ebp]
  002d3	c6 41 0c 00	 mov	 BYTE PTR [ecx+12], 0
  002d7	51		 push	 ecx
  002d8	8b cb		 mov	 ecx, ebx
  002da	e8 00 00 00 00	 call	 ?_Lrotate@?$_Tree_val@U?$_Tree_simple_types@U?$pair@$$CBKE@std@@@std@@@std@@QAEXPAU?$_Tree_node@U?$pair@$$CBKE@std@@PAX@2@@Z ; std::_Tree_val<std::_Tree_simple_types<std::pair<unsigned long const ,unsigned char> > >::_Lrotate

; 647  :                             _Pnode = _Fixnodeparent->_Left;

  002df	8b 0e		 mov	 ecx, DWORD PTR [esi]
  002e1	eb 03		 jmp	 SHORT $LN39@Extract
$LN101@Extract:

; 640  :                         _Pnode->_Color = _Red;
; 641  :                         _Fixnode       = _Fixnodeparent;
; 642  :                     } else { // must rearrange left subtree
; 643  :                         if (_Pnode->_Left->_Color == _Black) { // rotate red up from right sub-subtree

  002e3	8b 5d fc	 mov	 ebx, DWORD PTR _this$1$[ebp]
$LN39@Extract:

; 648  :                         }
; 649  : 
; 650  :                         _Pnode->_Color         = _Fixnodeparent->_Color;

  002e6	8a 46 0c	 mov	 al, BYTE PTR [esi+12]
  002e9	88 41 0c	 mov	 BYTE PTR [ecx+12], al

; 651  :                         _Fixnodeparent->_Color = _Black;

  002ec	c6 46 0c 01	 mov	 BYTE PTR [esi+12], 1

; 652  :                         _Pnode->_Left->_Color  = _Black;

  002f0	8b 01		 mov	 eax, DWORD PTR [ecx]

; 653  :                         _Rrotate(_Fixnodeparent);

  002f2	8b cb		 mov	 ecx, ebx
  002f4	56		 push	 esi
  002f5	c6 40 0c 01	 mov	 BYTE PTR [eax+12], 1
  002f9	e8 00 00 00 00	 call	 ?_Rrotate@?$_Tree_val@U?$_Tree_simple_types@U?$pair@$$CBKE@std@@@std@@@std@@QAEXPAU?$_Tree_node@U?$pair@$$CBKE@std@@PAX@2@@Z ; std::_Tree_val<std::_Tree_simple_types<std::pair<unsigned long const ,unsigned char> > >::_Rrotate
$LN3@Extract:

; 654  :                         break; // tree now recolored/rebalanced
; 655  :                     }
; 656  :                 }
; 657  :             }
; 658  : 
; 659  :             _Fixnode->_Color = _Black; // stopping node is black

  002fe	8b 45 f8	 mov	 eax, DWORD PTR __Erasednode$1$[ebp]
  00301	c6 47 0c 01	 mov	 BYTE PTR [edi+12], 1
$LN25@Extract:

; 660  :         }
; 661  : 
; 662  :         if (0 < _Mysize) {

  00305	8b 4b 04	 mov	 ecx, DWORD PTR [ebx+4]
  00308	85 c9		 test	 ecx, ecx
  0030a	74 04		 je	 SHORT $LN40@Extract

; 663  :             --_Mysize;

  0030c	49		 dec	 ecx
  0030d	89 4b 04	 mov	 DWORD PTR [ebx+4], ecx
$LN40@Extract:

; 664  :         }
; 665  : 
; 666  :         return _Erasednode;
; 667  :     }

  00310	5f		 pop	 edi
  00311	5e		 pop	 esi
  00312	5b		 pop	 ebx
  00313	8b e5		 mov	 esp, ebp
  00315	5d		 pop	 ebp
  00316	c2 04 00	 ret	 4
?_Extract@?$_Tree_val@U?$_Tree_simple_types@U?$pair@$$CBKE@std@@@std@@@std@@QAEPAU?$_Tree_node@U?$pair@$$CBKE@std@@PAX@2@V?$_Tree_unchecked_const_iterator@V?$_Tree_val@U?$_Tree_simple_types@U?$pair@$$CBKE@std@@@std@@@std@@U_Iterator_base0@2@@2@@Z ENDP ; std::_Tree_val<std::_Tree_simple_types<std::pair<unsigned long const ,unsigned char> > >::_Extract
_TEXT	ENDS
; Function compile flags: /Ogtp
; File C:\Program Files\Microsoft Visual Studio\2022\Professional\VC\Tools\MSVC\14.44.35207\include\xtree
;	COMDAT ?_Rrotate@?$_Tree_val@U?$_Tree_simple_types@U?$pair@$$CBKE@std@@@std@@@std@@QAEXPAU?$_Tree_node@U?$pair@$$CBKE@std@@PAX@2@@Z
_TEXT	SEGMENT
__Wherenode$ = 8					; size = 4
?_Rrotate@?$_Tree_val@U?$_Tree_simple_types@U?$pair@$$CBKE@std@@@std@@@std@@QAEXPAU?$_Tree_node@U?$pair@$$CBKE@std@@PAX@2@@Z PROC ; std::_Tree_val<std::_Tree_simple_types<std::pair<unsigned long const ,unsigned char> > >::_Rrotate, COMDAT
; _this$ = ecx

; 505  :     void _Rrotate(_Nodeptr _Wherenode) noexcept { // promote left node to root of subtree

  00000	55		 push	 ebp
  00001	8b ec		 mov	 ebp, esp

; 506  :         _Nodeptr _Pnode   = _Wherenode->_Left;

  00003	8b 55 08	 mov	 edx, DWORD PTR __Wherenode$[ebp]
  00006	56		 push	 esi
  00007	8b 32		 mov	 esi, DWORD PTR [edx]

; 507  :         _Wherenode->_Left = _Pnode->_Right;

  00009	8b 46 08	 mov	 eax, DWORD PTR [esi+8]
  0000c	89 02		 mov	 DWORD PTR [edx], eax

; 508  : 
; 509  :         if (!_Pnode->_Right->_Isnil) {

  0000e	8b 46 08	 mov	 eax, DWORD PTR [esi+8]
  00011	80 78 0d 00	 cmp	 BYTE PTR [eax+13], 0
  00015	75 03		 jne	 SHORT $LN2@Rrotate

; 510  :             _Pnode->_Right->_Parent = _Wherenode;

  00017	89 50 04	 mov	 DWORD PTR [eax+4], edx
$LN2@Rrotate:

; 511  :         }
; 512  : 
; 513  :         _Pnode->_Parent = _Wherenode->_Parent;

  0001a	8b 42 04	 mov	 eax, DWORD PTR [edx+4]
  0001d	89 46 04	 mov	 DWORD PTR [esi+4], eax

; 514  : 
; 515  :         if (_Wherenode == _Myhead->_Parent) {

  00020	8b 01		 mov	 eax, DWORD PTR [ecx]
  00022	3b 50 04	 cmp	 edx, DWORD PTR [eax+4]
  00025	75 0e		 jne	 SHORT $LN3@Rrotate

; 516  :             _Myhead->_Parent = _Pnode;

  00027	89 70 04	 mov	 DWORD PTR [eax+4], esi

; 521  :         }
; 522  : 
; 523  :         _Pnode->_Right      = _Wherenode;
; 524  :         _Wherenode->_Parent = _Pnode;
; 525  :     }

  0002a	89 56 08	 mov	 DWORD PTR [esi+8], edx
  0002d	89 72 04	 mov	 DWORD PTR [edx+4], esi
  00030	5e		 pop	 esi
  00031	5d		 pop	 ebp
  00032	c2 04 00	 ret	 4
$LN3@Rrotate:

; 517  :         } else if (_Wherenode == _Wherenode->_Parent->_Right) {

  00035	8b 42 04	 mov	 eax, DWORD PTR [edx+4]
  00038	3b 50 08	 cmp	 edx, DWORD PTR [eax+8]
  0003b	75 0e		 jne	 SHORT $LN5@Rrotate

; 518  :             _Wherenode->_Parent->_Right = _Pnode;

  0003d	89 70 08	 mov	 DWORD PTR [eax+8], esi

; 521  :         }
; 522  : 
; 523  :         _Pnode->_Right      = _Wherenode;
; 524  :         _Wherenode->_Parent = _Pnode;
; 525  :     }

  00040	89 56 08	 mov	 DWORD PTR [esi+8], edx
  00043	89 72 04	 mov	 DWORD PTR [edx+4], esi
  00046	5e		 pop	 esi
  00047	5d		 pop	 ebp
  00048	c2 04 00	 ret	 4
$LN5@Rrotate:

; 519  :         } else {
; 520  :             _Wherenode->_Parent->_Left = _Pnode;

  0004b	89 30		 mov	 DWORD PTR [eax], esi

; 521  :         }
; 522  : 
; 523  :         _Pnode->_Right      = _Wherenode;
; 524  :         _Wherenode->_Parent = _Pnode;
; 525  :     }

  0004d	89 56 08	 mov	 DWORD PTR [esi+8], edx
  00050	89 72 04	 mov	 DWORD PTR [edx+4], esi
  00053	5e		 pop	 esi
  00054	5d		 pop	 ebp
  00055	c2 04 00	 ret	 4
?_Rrotate@?$_Tree_val@U?$_Tree_simple_types@U?$pair@$$CBKE@std@@@std@@@std@@QAEXPAU?$_Tree_node@U?$pair@$$CBKE@std@@PAX@2@@Z ENDP ; std::_Tree_val<std::_Tree_simple_types<std::pair<unsigned long const ,unsigned char> > >::_Rrotate
_TEXT	ENDS
; Function compile flags: /Ogtp
; File C:\Program Files\Microsoft Visual Studio\2022\Professional\VC\Tools\MSVC\14.44.35207\include\xtree
;	COMDAT ?_Lrotate@?$_Tree_val@U?$_Tree_simple_types@U?$pair@$$CBKE@std@@@std@@@std@@QAEXPAU?$_Tree_node@U?$pair@$$CBKE@std@@PAX@2@@Z
_TEXT	SEGMENT
__Wherenode$ = 8					; size = 4
?_Lrotate@?$_Tree_val@U?$_Tree_simple_types@U?$pair@$$CBKE@std@@@std@@@std@@QAEXPAU?$_Tree_node@U?$pair@$$CBKE@std@@PAX@2@@Z PROC ; std::_Tree_val<std::_Tree_simple_types<std::pair<unsigned long const ,unsigned char> > >::_Lrotate, COMDAT
; _this$ = ecx

; 483  :     void _Lrotate(_Nodeptr _Wherenode) noexcept { // promote right node to root of subtree

  00000	55		 push	 ebp
  00001	8b ec		 mov	 ebp, esp

; 484  :         _Nodeptr _Pnode    = _Wherenode->_Right;

  00003	8b 55 08	 mov	 edx, DWORD PTR __Wherenode$[ebp]
  00006	56		 push	 esi
  00007	8b 72 08	 mov	 esi, DWORD PTR [edx+8]

; 485  :         _Wherenode->_Right = _Pnode->_Left;

  0000a	8b 06		 mov	 eax, DWORD PTR [esi]
  0000c	89 42 08	 mov	 DWORD PTR [edx+8], eax

; 486  : 
; 487  :         if (!_Pnode->_Left->_Isnil) {

  0000f	8b 06		 mov	 eax, DWORD PTR [esi]
  00011	80 78 0d 00	 cmp	 BYTE PTR [eax+13], 0
  00015	75 03		 jne	 SHORT $LN2@Lrotate

; 488  :             _Pnode->_Left->_Parent = _Wherenode;

  00017	89 50 04	 mov	 DWORD PTR [eax+4], edx
$LN2@Lrotate:

; 489  :         }
; 490  : 
; 491  :         _Pnode->_Parent = _Wherenode->_Parent;

  0001a	8b 42 04	 mov	 eax, DWORD PTR [edx+4]
  0001d	89 46 04	 mov	 DWORD PTR [esi+4], eax

; 492  : 
; 493  :         if (_Wherenode == _Myhead->_Parent) {

  00020	8b 01		 mov	 eax, DWORD PTR [ecx]
  00022	3b 50 04	 cmp	 edx, DWORD PTR [eax+4]
  00025	75 0d		 jne	 SHORT $LN3@Lrotate

; 494  :             _Myhead->_Parent = _Pnode;

  00027	89 70 04	 mov	 DWORD PTR [eax+4], esi

; 499  :         }
; 500  : 
; 501  :         _Pnode->_Left       = _Wherenode;
; 502  :         _Wherenode->_Parent = _Pnode;
; 503  :     }

  0002a	89 16		 mov	 DWORD PTR [esi], edx
  0002c	89 72 04	 mov	 DWORD PTR [edx+4], esi
  0002f	5e		 pop	 esi
  00030	5d		 pop	 ebp
  00031	c2 04 00	 ret	 4
$LN3@Lrotate:

; 495  :         } else if (_Wherenode == _Wherenode->_Parent->_Left) {

  00034	8b 42 04	 mov	 eax, DWORD PTR [edx+4]
  00037	3b 10		 cmp	 edx, DWORD PTR [eax]
  00039	75 0c		 jne	 SHORT $LN5@Lrotate

; 496  :             _Wherenode->_Parent->_Left = _Pnode;

  0003b	89 30		 mov	 DWORD PTR [eax], esi

; 499  :         }
; 500  : 
; 501  :         _Pnode->_Left       = _Wherenode;
; 502  :         _Wherenode->_Parent = _Pnode;
; 503  :     }

  0003d	89 16		 mov	 DWORD PTR [esi], edx
  0003f	89 72 04	 mov	 DWORD PTR [edx+4], esi
  00042	5e		 pop	 esi
  00043	5d		 pop	 ebp
  00044	c2 04 00	 ret	 4
$LN5@Lrotate:

; 497  :         } else {
; 498  :             _Wherenode->_Parent->_Right = _Pnode;

  00047	89 70 08	 mov	 DWORD PTR [eax+8], esi

; 499  :         }
; 500  : 
; 501  :         _Pnode->_Left       = _Wherenode;
; 502  :         _Wherenode->_Parent = _Pnode;
; 503  :     }

  0004a	89 16		 mov	 DWORD PTR [esi], edx
  0004c	89 72 04	 mov	 DWORD PTR [edx+4], esi
  0004f	5e		 pop	 esi
  00050	5d		 pop	 ebp
  00051	c2 04 00	 ret	 4
?_Lrotate@?$_Tree_val@U?$_Tree_simple_types@U?$pair@$$CBKE@std@@@std@@@std@@QAEXPAU?$_Tree_node@U?$pair@$$CBKE@std@@PAX@2@@Z ENDP ; std::_Tree_val<std::_Tree_simple_types<std::pair<unsigned long const ,unsigned char> > >::_Lrotate
_TEXT	ENDS
; Function compile flags: /Ogtp
; File C:\Program Files\Microsoft Visual Studio\2022\Professional\VC\Tools\MSVC\14.44.35207\include\xtree
; File C:\Program Files\Microsoft Visual Studio\2022\Professional\VC\Tools\MSVC\14.44.35207\include\utility
; File C:\Program Files\Microsoft Visual Studio\2022\Professional\VC\Tools\MSVC\14.44.35207\include\xmemory
; File C:\Program Files\Microsoft Visual Studio\2022\Professional\VC\Tools\MSVC\14.44.35207\include\xtree
;	COMDAT ?clear@?$_Tree@V?$_Tmap_traits@KEU?$less@K@std@@V?$allocator@U?$pair@$$CBKE@std@@@2@$0A@@std@@@std@@QAEXXZ
_TEXT	SEGMENT
?clear@?$_Tree@V?$_Tmap_traits@KEU?$less@K@std@@V?$allocator@U?$pair@$$CBKE@std@@@2@$0A@@std@@@std@@QAEXXZ PROC ; std::_Tree<std::_Tmap_traits<unsigned long,unsigned char,std::less<unsigned long>,std::allocator<std::pair<unsigned long const ,unsigned char> >,0> >::clear, COMDAT
; _this$ = ecx

; 1370 :     void clear() noexcept {

  00000	53		 push	 ebx
  00001	8b d9		 mov	 ebx, ecx
  00003	56		 push	 esi
  00004	57		 push	 edi

; 1371 :         const auto _Scary = _Get_scary();
; 1372 :         _Scary->_Orphan_ptr(nullptr);
; 1373 :         auto _Head = _Scary->_Myhead;

  00005	8b 3b		 mov	 edi, DWORD PTR [ebx]

; 1374 :         _Scary->_Erase_tree(_Getal(), _Head->_Parent);

  00007	8b 77 04	 mov	 esi, DWORD PTR [edi+4]

; 768  :         while (!_Rootnode->_Isnil) { // free subtrees, then node

  0000a	80 7e 0d 00	 cmp	 BYTE PTR [esi+13], 0
  0000e	75 20		 jne	 SHORT $LN38@clear
$LL5@clear:

; 769  :             _Erase_tree(_Al, _Rootnode->_Right);

  00010	ff 76 08	 push	 DWORD PTR [esi+8]
  00013	8b cb		 mov	 ecx, ebx
  00015	53		 push	 ebx
  00016	e8 00 00 00 00	 call	 ??$_Erase_tree@V?$allocator@U?$_Tree_node@U?$pair@$$CBKE@std@@PAX@std@@@std@@@?$_Tree_val@U?$_Tree_simple_types@U?$pair@$$CBKE@std@@@std@@@std@@QAEXAAV?$allocator@U?$_Tree_node@U?$pair@$$CBKE@std@@PAX@std@@@1@PAU?$_Tree_node@U?$pair@$$CBKE@std@@PAX@1@@Z ; std::_Tree_val<std::_Tree_simple_types<std::pair<unsigned long const ,unsigned char> > >::_Erase_tree<std::allocator<std::_Tree_node<std::pair<unsigned long const ,unsigned char>,void *> > >
; File C:\Program Files\Microsoft Visual Studio\2022\Professional\VC\Tools\MSVC\14.44.35207\include\utility

; 773  :     _Ty _Old_val = static_cast<_Ty&&>(_Val);

  0001b	8b c6		 mov	 eax, esi

; 774  :     _Val         = static_cast<_Other&&>(_New_val);

  0001d	8b 36		 mov	 esi, DWORD PTR [esi]
; File C:\Program Files\Microsoft Visual Studio\2022\Professional\VC\Tools\MSVC\14.44.35207\include\xmemory

; 289  :         ::operator delete(_Ptr, _Bytes);

  0001f	6a 18		 push	 24			; 00000018H
  00021	50		 push	 eax
  00022	e8 00 00 00 00	 call	 ??3@YAXPAXI@Z		; operator delete
  00027	83 c4 08	 add	 esp, 8
; File C:\Program Files\Microsoft Visual Studio\2022\Professional\VC\Tools\MSVC\14.44.35207\include\xtree

; 768  :         while (!_Rootnode->_Isnil) { // free subtrees, then node

  0002a	80 7e 0d 00	 cmp	 BYTE PTR [esi+13], 0
  0002e	74 e0		 je	 SHORT $LL5@clear
$LN38@clear:

; 1375 :         _Head->_Parent  = _Head;

  00030	89 7f 04	 mov	 DWORD PTR [edi+4], edi

; 1376 :         _Head->_Left    = _Head;

  00033	89 3f		 mov	 DWORD PTR [edi], edi

; 1377 :         _Head->_Right   = _Head;

  00035	89 7f 08	 mov	 DWORD PTR [edi+8], edi

; 1378 :         _Scary->_Mysize = 0;

  00038	5f		 pop	 edi
  00039	5e		 pop	 esi
  0003a	c7 43 04 00 00
	00 00		 mov	 DWORD PTR [ebx+4], 0
  00041	5b		 pop	 ebx

; 1379 :     }

  00042	c3		 ret	 0
?clear@?$_Tree@V?$_Tmap_traits@KEU?$less@K@std@@V?$allocator@U?$pair@$$CBKE@std@@@2@$0A@@std@@@std@@QAEXXZ ENDP ; std::_Tree<std::_Tmap_traits<unsigned long,unsigned char,std::less<unsigned long>,std::allocator<std::pair<unsigned long const ,unsigned char> >,0> >::clear
_TEXT	ENDS
; Function compile flags: /Ogtp
; File C:\Program Files\Microsoft Visual Studio\2022\Professional\VC\Tools\MSVC\14.44.35207\include\xtree
; File C:\Program Files\Microsoft Visual Studio\2022\Professional\VC\Tools\MSVC\14.44.35207\include\utility
; File C:\Program Files\Microsoft Visual Studio\2022\Professional\VC\Tools\MSVC\14.44.35207\include\xmemory
; File C:\Program Files\Microsoft Visual Studio\2022\Professional\VC\Tools\MSVC\14.44.35207\include\xtree
; File C:\Program Files\Microsoft Visual Studio\2022\Professional\VC\Tools\MSVC\14.44.35207\include\xmemory
; File C:\Program Files\Microsoft Visual Studio\2022\Professional\VC\Tools\MSVC\14.44.35207\include\xtree
;	COMDAT ??1?$_Tree@V?$_Tmap_traits@KEU?$less@K@std@@V?$allocator@U?$pair@$$CBKE@std@@@2@$0A@@std@@@std@@QAE@XZ
_TEXT	SEGMENT
??1?$_Tree@V?$_Tmap_traits@KEU?$less@K@std@@V?$allocator@U?$pair@$$CBKE@std@@@2@$0A@@std@@@std@@QAE@XZ PROC ; std::_Tree<std::_Tmap_traits<unsigned long,unsigned char,std::less<unsigned long>,std::allocator<std::pair<unsigned long const ,unsigned char> >,0> >::~_Tree<std::_Tmap_traits<unsigned long,unsigned char,std::less<unsigned long>,std::allocator<std::pair<unsigned long const ,unsigned char> >,0> >, COMDAT
; _this$ = ecx

; 1095 :     ~_Tree() noexcept {

  00000	56		 push	 esi
  00001	57		 push	 edi
  00002	8b f9		 mov	 edi, ecx

; 777  :         _Erase_tree(_Al, _Myhead->_Parent);

  00004	8b 37		 mov	 esi, DWORD PTR [edi]
  00006	8b 76 04	 mov	 esi, DWORD PTR [esi+4]

; 768  :         while (!_Rootnode->_Isnil) { // free subtrees, then node

  00009	80 7e 0d 00	 cmp	 BYTE PTR [esi+13], 0
  0000d	75 21		 jne	 SHORT $LN61@Tree
  0000f	90		 npad	 1
$LL8@Tree:

; 769  :             _Erase_tree(_Al, _Rootnode->_Right);

  00010	ff 76 08	 push	 DWORD PTR [esi+8]
  00013	8b cf		 mov	 ecx, edi
  00015	57		 push	 edi
  00016	e8 00 00 00 00	 call	 ??$_Erase_tree@V?$allocator@U?$_Tree_node@U?$pair@$$CBKE@std@@PAX@std@@@std@@@?$_Tree_val@U?$_Tree_simple_types@U?$pair@$$CBKE@std@@@std@@@std@@QAEXAAV?$allocator@U?$_Tree_node@U?$pair@$$CBKE@std@@PAX@std@@@1@PAU?$_Tree_node@U?$pair@$$CBKE@std@@PAX@1@@Z ; std::_Tree_val<std::_Tree_simple_types<std::pair<unsigned long const ,unsigned char> > >::_Erase_tree<std::allocator<std::_Tree_node<std::pair<unsigned long const ,unsigned char>,void *> > >
; File C:\Program Files\Microsoft Visual Studio\2022\Professional\VC\Tools\MSVC\14.44.35207\include\utility

; 773  :     _Ty _Old_val = static_cast<_Ty&&>(_Val);

  0001b	8b c6		 mov	 eax, esi

; 774  :     _Val         = static_cast<_Other&&>(_New_val);

  0001d	8b 36		 mov	 esi, DWORD PTR [esi]
; File C:\Program Files\Microsoft Visual Studio\2022\Professional\VC\Tools\MSVC\14.44.35207\include\xmemory

; 289  :         ::operator delete(_Ptr, _Bytes);

  0001f	6a 18		 push	 24			; 00000018H
  00021	50		 push	 eax
  00022	e8 00 00 00 00	 call	 ??3@YAXPAXI@Z		; operator delete
  00027	83 c4 08	 add	 esp, 8
; File C:\Program Files\Microsoft Visual Studio\2022\Professional\VC\Tools\MSVC\14.44.35207\include\xtree

; 768  :         while (!_Rootnode->_Isnil) { // free subtrees, then node

  0002a	80 7e 0d 00	 cmp	 BYTE PTR [esi+13], 0
  0002e	74 e0		 je	 SHORT $LL8@Tree
$LN61@Tree:
; File C:\Program Files\Microsoft Visual Studio\2022\Professional\VC\Tools\MSVC\14.44.35207\include\xmemory

; 289  :         ::operator delete(_Ptr, _Bytes);

  00030	6a 18		 push	 24			; 00000018H
  00032	ff 37		 push	 DWORD PTR [edi]
  00034	e8 00 00 00 00	 call	 ??3@YAXPAXI@Z		; operator delete
  00039	83 c4 08	 add	 esp, 8
  0003c	5f		 pop	 edi
  0003d	5e		 pop	 esi
; File C:\Program Files\Microsoft Visual Studio\2022\Professional\VC\Tools\MSVC\14.44.35207\include\xtree

; 1102 :     }

  0003e	c3		 ret	 0
??1?$_Tree@V?$_Tmap_traits@KEU?$less@K@std@@V?$allocator@U?$pair@$$CBKE@std@@@2@$0A@@std@@@std@@QAE@XZ ENDP ; std::_Tree<std::_Tmap_traits<unsigned long,unsigned char,std::less<unsigned long>,std::allocator<std::pair<unsigned long const ,unsigned char> >,0> >::~_Tree<std::_Tmap_traits<unsigned long,unsigned char,std::less<unsigned long>,std::allocator<std::pair<unsigned long const ,unsigned char> >,0> >
_TEXT	ENDS
; Function compile flags: /Ogtp
; File C:\Program Files\Microsoft Visual Studio\2022\Professional\VC\Tools\MSVC\14.44.35207\include\xtree
; File C:\Program Files\Microsoft Visual Studio\2022\Professional\VC\Tools\MSVC\14.44.35207\include\xmemory
;	COMDAT ??1?$map@EV?$vector@U__SPAWNINFO@CEventLua@@V?$allocator@U__SPAWNINFO@CEventLua@@@std@@@std@@U?$less@E@2@V?$allocator@U?$pair@$$CBEV?$vector@U__SPAWNINFO@CEventLua@@V?$allocator@U__SPAWNINFO@CEventLua@@@std@@@std@@@std@@@2@@std@@QAE@XZ
_TEXT	SEGMENT
??1?$map@EV?$vector@U__SPAWNINFO@CEventLua@@V?$allocator@U__SPAWNINFO@CEventLua@@@std@@@std@@U?$less@E@2@V?$allocator@U?$pair@$$CBEV?$vector@U__SPAWNINFO@CEventLua@@V?$allocator@U__SPAWNINFO@CEventLua@@@std@@@std@@@std@@@2@@std@@QAE@XZ PROC ; std::map<unsigned char,std::vector<CEventLua::__SPAWNINFO,std::allocator<CEventLua::__SPAWNINFO> >,std::less<unsigned char>,std::allocator<std::pair<unsigned char const ,std::vector<CEventLua::__SPAWNINFO,std::allocator<CEventLua::__SPAWNINFO> > > > >::~map<unsigned char,std::vector<CEventLua::__SPAWNINFO,std::allocator<CEventLua::__SPAWNINFO> >,std::less<unsigned char>,std::allocator<std::pair<unsigned char const ,std::vector<CEventLua::__SPAWNINFO,std::allocator<CEventLua::__SPAWNINFO> > > > >, COMDAT
; _this$ = ecx
; File C:\Program Files\Microsoft Visual Studio\2022\Professional\VC\Tools\MSVC\14.44.35207\include\xtree

; 777  :         _Erase_tree(_Al, _Myhead->_Parent);

  00000	56		 push	 esi
  00001	8b f1		 mov	 esi, ecx
  00003	8b 06		 mov	 eax, DWORD PTR [esi]
  00005	ff 70 04	 push	 DWORD PTR [eax+4]
  00008	56		 push	 esi
  00009	e8 00 00 00 00	 call	 ??$_Erase_tree@V?$allocator@U?$_Tree_node@U?$pair@$$CBEV?$vector@U__SPAWNINFO@CEventLua@@V?$allocator@U__SPAWNINFO@CEventLua@@@std@@@std@@@std@@PAX@std@@@std@@@?$_Tree_val@U?$_Tree_simple_types@U?$pair@$$CBEV?$vector@U__SPAWNINFO@CEventLua@@V?$allocator@U__SPAWNINFO@CEventLua@@@std@@@std@@@std@@@std@@@std@@QAEXAAV?$allocator@U?$_Tree_node@U?$pair@$$CBEV?$vector@U__SPAWNINFO@CEventLua@@V?$allocator@U__SPAWNINFO@CEventLua@@@std@@@std@@@std@@PAX@std@@@1@PAU?$_Tree_node@U?$pair@$$CBEV?$vector@U__SPAWNINFO@CEventLua@@V?$allocator@U__SPAWNINFO@CEventLua@@@std@@@std@@@std@@PAX@1@@Z ; std::_Tree_val<std::_Tree_simple_types<std::pair<unsigned char const ,std::vector<CEventLua::__SPAWNINFO,std::allocator<CEventLua::__SPAWNINFO> > > > >::_Erase_tree<std::allocator<std::_Tree_node<std::pair<unsigned char const ,std::vector<CEventLua::__SPAWNINFO,std::allocator<CEventLua::__SPAWNINFO> > >,void *> > >
; File C:\Program Files\Microsoft Visual Studio\2022\Professional\VC\Tools\MSVC\14.44.35207\include\xmemory

; 289  :         ::operator delete(_Ptr, _Bytes);

  0000e	6a 20		 push	 32			; 00000020H
  00010	ff 36		 push	 DWORD PTR [esi]
  00012	e8 00 00 00 00	 call	 ??3@YAXPAXI@Z		; operator delete
  00017	83 c4 08	 add	 esp, 8
  0001a	5e		 pop	 esi
  0001b	c3		 ret	 0
??1?$map@EV?$vector@U__SPAWNINFO@CEventLua@@V?$allocator@U__SPAWNINFO@CEventLua@@@std@@@std@@U?$less@E@2@V?$allocator@U?$pair@$$CBEV?$vector@U__SPAWNINFO@CEventLua@@V?$allocator@U__SPAWNINFO@CEventLua@@@std@@@std@@@std@@@2@@std@@QAE@XZ ENDP ; std::map<unsigned char,std::vector<CEventLua::__SPAWNINFO,std::allocator<CEventLua::__SPAWNINFO> >,std::less<unsigned char>,std::allocator<std::pair<unsigned char const ,std::vector<CEventLua::__SPAWNINFO,std::allocator<CEventLua::__SPAWNINFO> > > > >::~map<unsigned char,std::vector<CEventLua::__SPAWNINFO,std::allocator<CEventLua::__SPAWNINFO> >,std::less<unsigned char>,std::allocator<std::pair<unsigned char const ,std::vector<CEventLua::__SPAWNINFO,std::allocator<CEventLua::__SPAWNINFO> > > > >
_TEXT	ENDS
; Function compile flags: /Ogtp
; File C:\Program Files\Microsoft Visual Studio\2022\Professional\VC\Tools\MSVC\14.44.35207\include\xtree
;	COMDAT ?_Insert_node@?$_Tree_val@U?$_Tree_simple_types@U?$pair@$$CBEV?$vector@U__SPAWNINFO@CEventLua@@V?$allocator@U__SPAWNINFO@CEventLua@@@std@@@std@@@std@@@std@@@std@@QAEPAU?$_Tree_node@U?$pair@$$CBEV?$vector@U__SPAWNINFO@CEventLua@@V?$allocator@U__SPAWNINFO@CEventLua@@@std@@@std@@@std@@PAX@2@U?$_Tree_id@PAU?$_Tree_node@U?$pair@$$CBEV?$vector@U__SPAWNINFO@CEventLua@@V?$allocator@U__SPAWNINFO@CEventLua@@@std@@@std@@@std@@PAX@std@@@2@QAU32@@Z
_TEXT	SEGMENT
__Head$1$ = -4						; size = 4
__Loc$ = 8						; size = 8
__Newnode$ = 16						; size = 4
?_Insert_node@?$_Tree_val@U?$_Tree_simple_types@U?$pair@$$CBEV?$vector@U__SPAWNINFO@CEventLua@@V?$allocator@U__SPAWNINFO@CEventLua@@@std@@@std@@@std@@@std@@@std@@QAEPAU?$_Tree_node@U?$pair@$$CBEV?$vector@U__SPAWNINFO@CEventLua@@V?$allocator@U__SPAWNINFO@CEventLua@@@std@@@std@@@std@@PAX@2@U?$_Tree_id@PAU?$_Tree_node@U?$pair@$$CBEV?$vector@U__SPAWNINFO@CEventLua@@V?$allocator@U__SPAWNINFO@CEventLua@@@std@@@std@@@std@@PAX@std@@@2@QAU32@@Z PROC ; std::_Tree_val<std::_Tree_simple_types<std::pair<unsigned char const ,std::vector<CEventLua::__SPAWNINFO,std::allocator<CEventLua::__SPAWNINFO> > > > >::_Insert_node, COMDAT
; _this$ = ecx

; 669  :     _Nodeptr _Insert_node(const _Tree_id<_Nodeptr> _Loc, const _Nodeptr _Newnode) noexcept {

  00000	55		 push	 ebp
  00001	8b ec		 mov	 ebp, esp
  00003	51		 push	 ecx

; 670  :         ++_Mysize;
; 671  :         const auto _Head  = _Myhead;
; 672  :         _Newnode->_Parent = _Loc._Parent;

  00004	8b 55 08	 mov	 edx, DWORD PTR __Loc$[ebp]
  00007	53		 push	 ebx
  00008	8b d9		 mov	 ebx, ecx
  0000a	57		 push	 edi
  0000b	8b 7d 10	 mov	 edi, DWORD PTR __Newnode$[ebp]
  0000e	8b 03		 mov	 eax, DWORD PTR [ebx]
  00010	ff 43 04	 inc	 DWORD PTR [ebx+4]
  00013	89 45 fc	 mov	 DWORD PTR __Head$1$[ebp], eax
  00016	89 57 04	 mov	 DWORD PTR [edi+4], edx

; 673  :         if (_Loc._Parent == _Head) { // first node in tree, just set head values

  00019	3b d0		 cmp	 edx, eax
  0001b	75 16		 jne	 SHORT $LN5@Insert_nod

; 674  :             _Head->_Left     = _Newnode;

  0001d	89 38		 mov	 DWORD PTR [eax], edi

; 675  :             _Head->_Parent   = _Newnode;

  0001f	89 78 04	 mov	 DWORD PTR [eax+4], edi

; 676  :             _Head->_Right    = _Newnode;

  00022	89 78 08	 mov	 DWORD PTR [eax+8], edi

; 735  :         return _Newnode;
; 736  :     }

  00025	8b c7		 mov	 eax, edi
  00027	c6 47 0c 01	 mov	 BYTE PTR [edi+12], 1
  0002b	5f		 pop	 edi
  0002c	5b		 pop	 ebx
  0002d	8b e5		 mov	 esp, ebp
  0002f	5d		 pop	 ebp
  00030	c2 0c 00	 ret	 12			; 0000000cH
$LN5@Insert_nod:

; 677  :             _Newnode->_Color = _Black; // the root is black
; 678  :             return _Newnode;
; 679  :         }
; 680  : 
; 681  :         _STL_INTERNAL_CHECK(_Loc._Child != _Tree_child::_Unused);
; 682  :         if (_Loc._Child == _Tree_child::_Right) { // add to right of _Loc._Parent

  00033	83 7d 0c 00	 cmp	 DWORD PTR __Loc$[ebp+4], 0
  00037	75 0d		 jne	 SHORT $LN6@Insert_nod

; 683  :             _STL_INTERNAL_CHECK(_Loc._Parent->_Right->_Isnil);
; 684  :             _Loc._Parent->_Right = _Newnode;

  00039	89 7a 08	 mov	 DWORD PTR [edx+8], edi

; 685  :             if (_Loc._Parent == _Head->_Right) { // remember rightmost node

  0003c	3b 50 08	 cmp	 edx, DWORD PTR [eax+8]
  0003f	75 0d		 jne	 SHORT $LN9@Insert_nod

; 686  :                 _Head->_Right = _Newnode;

  00041	89 78 08	 mov	 DWORD PTR [eax+8], edi

; 687  :             }
; 688  :         } else { // add to left of _Loc._Parent

  00044	eb 08		 jmp	 SHORT $LN9@Insert_nod
$LN6@Insert_nod:

; 689  :             _STL_INTERNAL_CHECK(_Loc._Parent->_Left->_Isnil);
; 690  :             _Loc._Parent->_Left = _Newnode;

  00046	89 3a		 mov	 DWORD PTR [edx], edi

; 691  :             if (_Loc._Parent == _Head->_Left) { // remember leftmost node

  00048	3b 10		 cmp	 edx, DWORD PTR [eax]
  0004a	75 02		 jne	 SHORT $LN9@Insert_nod

; 692  :                 _Head->_Left = _Newnode;

  0004c	89 38		 mov	 DWORD PTR [eax], edi
$LN9@Insert_nod:

; 693  :             }
; 694  :         }
; 695  : 
; 696  :         for (_Nodeptr _Pnode = _Newnode; _Pnode->_Parent->_Color == _Red;) {

  0004e	8b 4f 04	 mov	 ecx, DWORD PTR [edi+4]
  00051	8b c7		 mov	 eax, edi
  00053	80 79 0c 00	 cmp	 BYTE PTR [ecx+12], 0
  00057	0f 85 7d 01 00
	00		 jne	 $LN3@Insert_nod
  0005d	56		 push	 esi
  0005e	66 90		 npad	 2
$LL4@Insert_nod:

; 697  :             if (_Pnode->_Parent == _Pnode->_Parent->_Parent->_Left) { // fixup red-red in left subtree

  00060	8b 50 04	 mov	 edx, DWORD PTR [eax+4]
  00063	8b 72 04	 mov	 esi, DWORD PTR [edx+4]
  00066	8b 0e		 mov	 ecx, DWORD PTR [esi]
  00068	3b d1		 cmp	 edx, ecx
  0006a	0f 85 aa 00 00
	00		 jne	 $LN10@Insert_nod

; 698  :                 const auto _Parent_sibling = _Pnode->_Parent->_Parent->_Right;

  00070	8b 4e 08	 mov	 ecx, DWORD PTR [esi+8]

; 699  :                 if (_Parent_sibling->_Color == _Red) { // parent's sibling has two red children, blacken both

  00073	80 79 0c 00	 cmp	 BYTE PTR [ecx+12], 0
  00077	0f 84 a3 00 00
	00		 je	 $LN82@Insert_nod

; 700  :                     _Pnode->_Parent->_Color          = _Black;
; 701  :                     _Parent_sibling->_Color          = _Black;
; 702  :                     _Pnode->_Parent->_Parent->_Color = _Red;
; 703  :                     _Pnode                           = _Pnode->_Parent->_Parent;
; 704  :                 } else { // parent's sibling has red and black children
; 705  :                     if (_Pnode == _Pnode->_Parent->_Right) { // rotate right child to left

  0007d	8b 72 08	 mov	 esi, DWORD PTR [edx+8]
  00080	3b c6		 cmp	 eax, esi
  00082	75 37		 jne	 SHORT $LN57@Insert_nod

; 485  :         _Wherenode->_Right = _Pnode->_Left;

  00084	8b 0e		 mov	 ecx, DWORD PTR [esi]

; 706  :                         _Pnode = _Pnode->_Parent;

  00086	8b c2		 mov	 eax, edx

; 485  :         _Wherenode->_Right = _Pnode->_Left;

  00088	89 4a 08	 mov	 DWORD PTR [edx+8], ecx

; 486  : 
; 487  :         if (!_Pnode->_Left->_Isnil) {

  0008b	8b 0e		 mov	 ecx, DWORD PTR [esi]
  0008d	80 79 0d 00	 cmp	 BYTE PTR [ecx+13], 0
  00091	75 03		 jne	 SHORT $LN21@Insert_nod

; 488  :             _Pnode->_Left->_Parent = _Wherenode;

  00093	89 41 04	 mov	 DWORD PTR [ecx+4], eax
$LN21@Insert_nod:

; 489  :         }
; 490  : 
; 491  :         _Pnode->_Parent = _Wherenode->_Parent;

  00096	8b 4a 04	 mov	 ecx, DWORD PTR [edx+4]
  00099	89 4e 04	 mov	 DWORD PTR [esi+4], ecx

; 492  : 
; 493  :         if (_Wherenode == _Myhead->_Parent) {

  0009c	8b 0b		 mov	 ecx, DWORD PTR [ebx]
  0009e	3b 41 04	 cmp	 eax, DWORD PTR [ecx+4]
  000a1	75 05		 jne	 SHORT $LN22@Insert_nod

; 494  :             _Myhead->_Parent = _Pnode;

  000a3	89 71 04	 mov	 DWORD PTR [ecx+4], esi
  000a6	eb 0e		 jmp	 SHORT $LN25@Insert_nod
$LN22@Insert_nod:

; 495  :         } else if (_Wherenode == _Wherenode->_Parent->_Left) {

  000a8	8b 4a 04	 mov	 ecx, DWORD PTR [edx+4]
  000ab	3b 01		 cmp	 eax, DWORD PTR [ecx]
  000ad	75 04		 jne	 SHORT $LN24@Insert_nod

; 496  :             _Wherenode->_Parent->_Left = _Pnode;

  000af	89 31		 mov	 DWORD PTR [ecx], esi

; 497  :         } else {

  000b1	eb 03		 jmp	 SHORT $LN25@Insert_nod
$LN24@Insert_nod:

; 498  :             _Wherenode->_Parent->_Right = _Pnode;

  000b3	89 71 08	 mov	 DWORD PTR [ecx+8], esi
$LN25@Insert_nod:

; 499  :         }
; 500  : 
; 501  :         _Pnode->_Left       = _Wherenode;

  000b6	89 06		 mov	 DWORD PTR [esi], eax

; 502  :         _Wherenode->_Parent = _Pnode;

  000b8	89 70 04	 mov	 DWORD PTR [eax+4], esi
$LN57@Insert_nod:

; 707  :                         _Lrotate(_Pnode);
; 708  :                     }
; 709  : 
; 710  :                     _Pnode->_Parent->_Color          = _Black; // propagate red up

  000bb	8b 48 04	 mov	 ecx, DWORD PTR [eax+4]
  000be	c6 41 0c 01	 mov	 BYTE PTR [ecx+12], 1

; 711  :                     _Pnode->_Parent->_Parent->_Color = _Red;

  000c2	8b 48 04	 mov	 ecx, DWORD PTR [eax+4]
  000c5	8b 49 04	 mov	 ecx, DWORD PTR [ecx+4]
  000c8	c6 41 0c 00	 mov	 BYTE PTR [ecx+12], 0

; 712  :                     _Rrotate(_Pnode->_Parent->_Parent);

  000cc	8b 48 04	 mov	 ecx, DWORD PTR [eax+4]
  000cf	8b 51 04	 mov	 edx, DWORD PTR [ecx+4]

; 506  :         _Nodeptr _Pnode   = _Wherenode->_Left;

  000d2	8b 32		 mov	 esi, DWORD PTR [edx]

; 507  :         _Wherenode->_Left = _Pnode->_Right;

  000d4	8b 4e 08	 mov	 ecx, DWORD PTR [esi+8]
  000d7	89 0a		 mov	 DWORD PTR [edx], ecx

; 508  : 
; 509  :         if (!_Pnode->_Right->_Isnil) {

  000d9	8b 4e 08	 mov	 ecx, DWORD PTR [esi+8]
  000dc	80 79 0d 00	 cmp	 BYTE PTR [ecx+13], 0
  000e0	75 03		 jne	 SHORT $LN29@Insert_nod

; 510  :             _Pnode->_Right->_Parent = _Wherenode;

  000e2	89 51 04	 mov	 DWORD PTR [ecx+4], edx
$LN29@Insert_nod:

; 511  :         }
; 512  : 
; 513  :         _Pnode->_Parent = _Wherenode->_Parent;

  000e5	8b 4a 04	 mov	 ecx, DWORD PTR [edx+4]
  000e8	89 4e 04	 mov	 DWORD PTR [esi+4], ecx

; 514  : 
; 515  :         if (_Wherenode == _Myhead->_Parent) {

  000eb	8b 0b		 mov	 ecx, DWORD PTR [ebx]
  000ed	3b 51 04	 cmp	 edx, DWORD PTR [ecx+4]
  000f0	75 0b		 jne	 SHORT $LN30@Insert_nod

; 516  :             _Myhead->_Parent = _Pnode;

  000f2	89 71 04	 mov	 DWORD PTR [ecx+4], esi

; 521  :         }
; 522  : 
; 523  :         _Pnode->_Right      = _Wherenode;

  000f5	89 56 08	 mov	 DWORD PTR [esi+8], edx

; 713  :                 }
; 714  :             } else { // fixup red-red in right subtree

  000f8	e9 cc 00 00 00	 jmp	 $LN81@Insert_nod
$LN30@Insert_nod:

; 517  :         } else if (_Wherenode == _Wherenode->_Parent->_Right) {

  000fd	8b 4a 04	 mov	 ecx, DWORD PTR [edx+4]
  00100	3b 51 08	 cmp	 edx, DWORD PTR [ecx+8]
  00103	75 0b		 jne	 SHORT $LN32@Insert_nod

; 518  :             _Wherenode->_Parent->_Right = _Pnode;

  00105	89 71 08	 mov	 DWORD PTR [ecx+8], esi

; 521  :         }
; 522  : 
; 523  :         _Pnode->_Right      = _Wherenode;

  00108	89 56 08	 mov	 DWORD PTR [esi+8], edx

; 713  :                 }
; 714  :             } else { // fixup red-red in right subtree

  0010b	e9 b9 00 00 00	 jmp	 $LN81@Insert_nod
$LN32@Insert_nod:

; 520  :             _Wherenode->_Parent->_Left = _Pnode;

  00110	89 31		 mov	 DWORD PTR [ecx], esi

; 521  :         }
; 522  : 
; 523  :         _Pnode->_Right      = _Wherenode;

  00112	89 56 08	 mov	 DWORD PTR [esi+8], edx

; 713  :                 }
; 714  :             } else { // fixup red-red in right subtree

  00115	e9 af 00 00 00	 jmp	 $LN81@Insert_nod
$LN10@Insert_nod:

; 715  :                 const auto _Parent_sibling = _Pnode->_Parent->_Parent->_Left;
; 716  :                 if (_Parent_sibling->_Color == _Red) { // parent's sibling has two red children, blacken both

  0011a	80 79 0c 00	 cmp	 BYTE PTR [ecx+12], 0
  0011e	75 1d		 jne	 SHORT $LN15@Insert_nod
$LN82@Insert_nod:

; 693  :             }
; 694  :         }
; 695  : 
; 696  :         for (_Nodeptr _Pnode = _Newnode; _Pnode->_Parent->_Color == _Red;) {

  00120	c6 42 0c 01	 mov	 BYTE PTR [edx+12], 1
  00124	c6 41 0c 01	 mov	 BYTE PTR [ecx+12], 1
  00128	8b 48 04	 mov	 ecx, DWORD PTR [eax+4]
  0012b	8b 49 04	 mov	 ecx, DWORD PTR [ecx+4]
  0012e	c6 41 0c 00	 mov	 BYTE PTR [ecx+12], 0
  00132	8b 48 04	 mov	 ecx, DWORD PTR [eax+4]
  00135	8b 41 04	 mov	 eax, DWORD PTR [ecx+4]
  00138	e9 8f 00 00 00	 jmp	 $LN2@Insert_nod
$LN15@Insert_nod:

; 717  :                     _Pnode->_Parent->_Color          = _Black;
; 718  :                     _Parent_sibling->_Color          = _Black;
; 719  :                     _Pnode->_Parent->_Parent->_Color = _Red;
; 720  :                     _Pnode                           = _Pnode->_Parent->_Parent;
; 721  :                 } else { // parent's sibling has red and black children
; 722  :                     if (_Pnode == _Pnode->_Parent->_Left) { // rotate left child to right

  0013d	8b 32		 mov	 esi, DWORD PTR [edx]
  0013f	3b c6		 cmp	 eax, esi
  00141	75 3a		 jne	 SHORT $LN42@Insert_nod

; 507  :         _Wherenode->_Left = _Pnode->_Right;

  00143	8b 4e 08	 mov	 ecx, DWORD PTR [esi+8]

; 723  :                         _Pnode = _Pnode->_Parent;

  00146	8b c2		 mov	 eax, edx

; 507  :         _Wherenode->_Left = _Pnode->_Right;

  00148	89 08		 mov	 DWORD PTR [eax], ecx

; 508  : 
; 509  :         if (!_Pnode->_Right->_Isnil) {

  0014a	8b 4e 08	 mov	 ecx, DWORD PTR [esi+8]
  0014d	80 79 0d 00	 cmp	 BYTE PTR [ecx+13], 0
  00151	75 03		 jne	 SHORT $LN37@Insert_nod

; 510  :             _Pnode->_Right->_Parent = _Wherenode;

  00153	89 41 04	 mov	 DWORD PTR [ecx+4], eax
$LN37@Insert_nod:

; 511  :         }
; 512  : 
; 513  :         _Pnode->_Parent = _Wherenode->_Parent;

  00156	8b 4a 04	 mov	 ecx, DWORD PTR [edx+4]
  00159	89 4e 04	 mov	 DWORD PTR [esi+4], ecx

; 514  : 
; 515  :         if (_Wherenode == _Myhead->_Parent) {

  0015c	8b 0b		 mov	 ecx, DWORD PTR [ebx]
  0015e	3b 41 04	 cmp	 eax, DWORD PTR [ecx+4]
  00161	75 05		 jne	 SHORT $LN38@Insert_nod

; 516  :             _Myhead->_Parent = _Pnode;

  00163	89 71 04	 mov	 DWORD PTR [ecx+4], esi
  00166	eb 0f		 jmp	 SHORT $LN41@Insert_nod
$LN38@Insert_nod:

; 517  :         } else if (_Wherenode == _Wherenode->_Parent->_Right) {

  00168	8b 4a 04	 mov	 ecx, DWORD PTR [edx+4]
  0016b	3b 41 08	 cmp	 eax, DWORD PTR [ecx+8]
  0016e	75 05		 jne	 SHORT $LN40@Insert_nod

; 518  :             _Wherenode->_Parent->_Right = _Pnode;

  00170	89 71 08	 mov	 DWORD PTR [ecx+8], esi

; 519  :         } else {

  00173	eb 02		 jmp	 SHORT $LN41@Insert_nod
$LN40@Insert_nod:

; 520  :             _Wherenode->_Parent->_Left = _Pnode;

  00175	89 31		 mov	 DWORD PTR [ecx], esi
$LN41@Insert_nod:

; 521  :         }
; 522  : 
; 523  :         _Pnode->_Right      = _Wherenode;

  00177	89 46 08	 mov	 DWORD PTR [esi+8], eax

; 524  :         _Wherenode->_Parent = _Pnode;

  0017a	89 70 04	 mov	 DWORD PTR [eax+4], esi
$LN42@Insert_nod:

; 724  :                         _Rrotate(_Pnode);
; 725  :                     }
; 726  : 
; 727  :                     _Pnode->_Parent->_Color          = _Black; // propagate red up

  0017d	8b 48 04	 mov	 ecx, DWORD PTR [eax+4]
  00180	c6 41 0c 01	 mov	 BYTE PTR [ecx+12], 1

; 728  :                     _Pnode->_Parent->_Parent->_Color = _Red;

  00184	8b 48 04	 mov	 ecx, DWORD PTR [eax+4]
  00187	8b 49 04	 mov	 ecx, DWORD PTR [ecx+4]
  0018a	c6 41 0c 00	 mov	 BYTE PTR [ecx+12], 0

; 729  :                     _Lrotate(_Pnode->_Parent->_Parent);

  0018e	8b 48 04	 mov	 ecx, DWORD PTR [eax+4]
  00191	8b 51 04	 mov	 edx, DWORD PTR [ecx+4]

; 484  :         _Nodeptr _Pnode    = _Wherenode->_Right;

  00194	8b 72 08	 mov	 esi, DWORD PTR [edx+8]

; 485  :         _Wherenode->_Right = _Pnode->_Left;

  00197	8b 0e		 mov	 ecx, DWORD PTR [esi]
  00199	89 4a 08	 mov	 DWORD PTR [edx+8], ecx

; 486  : 
; 487  :         if (!_Pnode->_Left->_Isnil) {

  0019c	8b 0e		 mov	 ecx, DWORD PTR [esi]
  0019e	80 79 0d 00	 cmp	 BYTE PTR [ecx+13], 0
  001a2	75 03		 jne	 SHORT $LN45@Insert_nod

; 488  :             _Pnode->_Left->_Parent = _Wherenode;

  001a4	89 51 04	 mov	 DWORD PTR [ecx+4], edx
$LN45@Insert_nod:

; 489  :         }
; 490  : 
; 491  :         _Pnode->_Parent = _Wherenode->_Parent;

  001a7	8b 4a 04	 mov	 ecx, DWORD PTR [edx+4]
  001aa	89 4e 04	 mov	 DWORD PTR [esi+4], ecx

; 492  : 
; 493  :         if (_Wherenode == _Myhead->_Parent) {

  001ad	8b 0b		 mov	 ecx, DWORD PTR [ebx]
  001af	3b 51 04	 cmp	 edx, DWORD PTR [ecx+4]
  001b2	75 05		 jne	 SHORT $LN46@Insert_nod

; 494  :             _Myhead->_Parent = _Pnode;

  001b4	89 71 04	 mov	 DWORD PTR [ecx+4], esi
  001b7	eb 0e		 jmp	 SHORT $LN49@Insert_nod
$LN46@Insert_nod:

; 495  :         } else if (_Wherenode == _Wherenode->_Parent->_Left) {

  001b9	8b 4a 04	 mov	 ecx, DWORD PTR [edx+4]
  001bc	3b 11		 cmp	 edx, DWORD PTR [ecx]
  001be	75 04		 jne	 SHORT $LN48@Insert_nod

; 496  :             _Wherenode->_Parent->_Left = _Pnode;

  001c0	89 31		 mov	 DWORD PTR [ecx], esi

; 497  :         } else {

  001c2	eb 03		 jmp	 SHORT $LN49@Insert_nod
$LN48@Insert_nod:

; 498  :             _Wherenode->_Parent->_Right = _Pnode;

  001c4	89 71 08	 mov	 DWORD PTR [ecx+8], esi
$LN49@Insert_nod:

; 499  :         }
; 500  : 
; 501  :         _Pnode->_Left       = _Wherenode;

  001c7	89 16		 mov	 DWORD PTR [esi], edx
$LN81@Insert_nod:

; 693  :             }
; 694  :         }
; 695  : 
; 696  :         for (_Nodeptr _Pnode = _Newnode; _Pnode->_Parent->_Color == _Red;) {

  001c9	89 72 04	 mov	 DWORD PTR [edx+4], esi
$LN2@Insert_nod:
  001cc	8b 48 04	 mov	 ecx, DWORD PTR [eax+4]
  001cf	80 79 0c 00	 cmp	 BYTE PTR [ecx+12], 0
  001d3	0f 84 87 fe ff
	ff		 je	 $LL4@Insert_nod
  001d9	5e		 pop	 esi
$LN3@Insert_nod:

; 730  :                 }
; 731  :             }
; 732  :         }
; 733  : 
; 734  :         _Head->_Parent->_Color = _Black; // root is always black

  001da	8b 45 fc	 mov	 eax, DWORD PTR __Head$1$[ebp]
  001dd	8b 40 04	 mov	 eax, DWORD PTR [eax+4]
  001e0	c6 40 0c 01	 mov	 BYTE PTR [eax+12], 1

; 735  :         return _Newnode;
; 736  :     }

  001e4	8b c7		 mov	 eax, edi
  001e6	5f		 pop	 edi
  001e7	5b		 pop	 ebx
  001e8	8b e5		 mov	 esp, ebp
  001ea	5d		 pop	 ebp
  001eb	c2 0c 00	 ret	 12			; 0000000cH
?_Insert_node@?$_Tree_val@U?$_Tree_simple_types@U?$pair@$$CBEV?$vector@U__SPAWNINFO@CEventLua@@V?$allocator@U__SPAWNINFO@CEventLua@@@std@@@std@@@std@@@std@@@std@@QAEPAU?$_Tree_node@U?$pair@$$CBEV?$vector@U__SPAWNINFO@CEventLua@@V?$allocator@U__SPAWNINFO@CEventLua@@@std@@@std@@@std@@PAX@2@U?$_Tree_id@PAU?$_Tree_node@U?$pair@$$CBEV?$vector@U__SPAWNINFO@CEventLua@@V?$allocator@U__SPAWNINFO@CEventLua@@@std@@@std@@@std@@PAX@std@@@2@QAU32@@Z ENDP ; std::_Tree_val<std::_Tree_simple_types<std::pair<unsigned char const ,std::vector<CEventLua::__SPAWNINFO,std::allocator<CEventLua::__SPAWNINFO> > > > >::_Insert_node
_TEXT	ENDS
; Function compile flags: /Ogtp
; File C:\Program Files\Microsoft Visual Studio\2022\Professional\VC\Tools\MSVC\14.44.35207\include\xtree
; File C:\Program Files\Microsoft Visual Studio\2022\Professional\VC\Tools\MSVC\14.44.35207\include\utility
; File C:\Program Files\Microsoft Visual Studio\2022\Professional\VC\Tools\MSVC\14.44.35207\include\xtree
;	COMDAT ?_Extract@?$_Tree_val@U?$_Tree_simple_types@U?$pair@$$CBEV?$vector@U__SPAWNINFO@CEventLua@@V?$allocator@U__SPAWNINFO@CEventLua@@@std@@@std@@@std@@@std@@@std@@QAEPAU?$_Tree_node@U?$pair@$$CBEV?$vector@U__SPAWNINFO@CEventLua@@V?$allocator@U__SPAWNINFO@CEventLua@@@std@@@std@@@std@@PAX@2@V?$_Tree_unchecked_const_iterator@V?$_Tree_val@U?$_Tree_simple_types@U?$pair@$$CBEV?$vector@U__SPAWNINFO@CEventLua@@V?$allocator@U__SPAWNINFO@CEventLua@@@std@@@std@@@std@@@std@@@std@@U_Iterator_base0@2@@2@@Z
_TEXT	SEGMENT
tv1039 = -16						; size = 4
tv1073 = -12						; size = 4
tv1093 = -12						; size = 4
$T1 = -12						; size = 4
__Erasednode$1$ = -8					; size = 4
_this$1$ = -4						; size = 4
__Where$ = 8						; size = 4
?_Extract@?$_Tree_val@U?$_Tree_simple_types@U?$pair@$$CBEV?$vector@U__SPAWNINFO@CEventLua@@V?$allocator@U__SPAWNINFO@CEventLua@@@std@@@std@@@std@@@std@@@std@@QAEPAU?$_Tree_node@U?$pair@$$CBEV?$vector@U__SPAWNINFO@CEventLua@@V?$allocator@U__SPAWNINFO@CEventLua@@@std@@@std@@@std@@PAX@2@V?$_Tree_unchecked_const_iterator@V?$_Tree_val@U?$_Tree_simple_types@U?$pair@$$CBEV?$vector@U__SPAWNINFO@CEventLua@@V?$allocator@U__SPAWNINFO@CEventLua@@@std@@@std@@@std@@@std@@@std@@U_Iterator_base0@2@@2@@Z PROC ; std::_Tree_val<std::_Tree_simple_types<std::pair<unsigned char const ,std::vector<CEventLua::__SPAWNINFO,std::allocator<CEventLua::__SPAWNINFO> > > > >::_Extract, COMDAT
; _this$ = ecx

; 527  :     _Nodeptr _Extract(_Unchecked_const_iterator _Where) noexcept {

  00000	55		 push	 ebp
  00001	8b ec		 mov	 ebp, esp
  00003	83 ec 10	 sub	 esp, 16			; 00000010H

; 528  :         _Nodeptr _Erasednode = _Where._Ptr; // node to erase

  00006	8b 45 08	 mov	 eax, DWORD PTR __Where$[ebp]
  00009	53		 push	 ebx
  0000a	56		 push	 esi
  0000b	8b d9		 mov	 ebx, ecx
  0000d	89 45 f8	 mov	 DWORD PTR __Erasednode$1$[ebp], eax
  00010	57		 push	 edi

; 529  :         ++_Where; // save successor iterator for return

  00011	8d 4d 08	 lea	 ecx, DWORD PTR __Where$[ebp]
  00014	89 5d fc	 mov	 DWORD PTR _this$1$[ebp], ebx
  00017	e8 00 00 00 00	 call	 ??E?$_Tree_unchecked_const_iterator@V?$_Tree_val@U?$_Tree_simple_types@U?$pair@$$CBEV?$vector@U__SPAWNINFO@CEventLua@@V?$allocator@U__SPAWNINFO@CEventLua@@@std@@@std@@@std@@@std@@@std@@U_Iterator_base0@2@@std@@QAEAAV01@XZ ; std::_Tree_unchecked_const_iterator<std::_Tree_val<std::_Tree_simple_types<std::pair<unsigned char const ,std::vector<CEventLua::__SPAWNINFO,std::allocator<CEventLua::__SPAWNINFO> > > > >,std::_Iterator_base0>::operator++

; 530  : 
; 531  :         _Nodeptr _Fixnode; // the node to recolor as needed
; 532  :         _Nodeptr _Fixnodeparent; // parent of _Fixnode (which may be nil)
; 533  :         _Nodeptr _Pnode = _Erasednode;
; 534  : 
; 535  :         if (_Pnode->_Left->_Isnil) {

  0001c	8b 4d f8	 mov	 ecx, DWORD PTR __Erasednode$1$[ebp]
  0001f	8b 01		 mov	 eax, DWORD PTR [ecx]
  00021	8b 79 08	 mov	 edi, DWORD PTR [ecx+8]
  00024	80 78 0d 00	 cmp	 BYTE PTR [eax+13], 0
  00028	75 18		 jne	 SHORT $LN94@Extract

; 536  :             _Fixnode = _Pnode->_Right; // stitch up right subtree
; 537  :         } else if (_Pnode->_Right->_Isnil) {

  0002a	80 7f 0d 00	 cmp	 BYTE PTR [edi+13], 0
  0002e	74 04		 je	 SHORT $LN7@Extract

; 538  :             _Fixnode = _Pnode->_Left; // stitch up left subtree

  00030	8b f8		 mov	 edi, eax

; 539  :         } else { // two subtrees, must lift successor node to replace erased

  00032	eb 0e		 jmp	 SHORT $LN94@Extract
$LN7@Extract:

; 540  :             _Pnode   = _Where._Ptr; // _Pnode is successor node

  00034	8b 55 08	 mov	 edx, DWORD PTR __Where$[ebp]

; 541  :             _Fixnode = _Pnode->_Right; // _Fixnode is only subtree

  00037	8b 7a 08	 mov	 edi, DWORD PTR [edx+8]
  0003a	3b d1		 cmp	 edx, ecx

; 542  :         }
; 543  : 
; 544  :         if (_Pnode == _Erasednode) { // at most one subtree, relink it

  0003c	0f 85 91 00 00
	00		 jne	 $LN9@Extract
$LN94@Extract:

; 545  :             _Fixnodeparent = _Erasednode->_Parent;
; 546  :             if (!_Fixnode->_Isnil) {

  00042	80 7f 0d 00	 cmp	 BYTE PTR [edi+13], 0
  00046	8b 71 04	 mov	 esi, DWORD PTR [ecx+4]
  00049	75 03		 jne	 SHORT $LN11@Extract

; 547  :                 _Fixnode->_Parent = _Fixnodeparent; // link up

  0004b	89 77 04	 mov	 DWORD PTR [edi+4], esi
$LN11@Extract:

; 548  :             }
; 549  : 
; 550  :             if (_Myhead->_Parent == _Erasednode) {

  0004e	8b 03		 mov	 eax, DWORD PTR [ebx]
  00050	39 48 04	 cmp	 DWORD PTR [eax+4], ecx
  00053	75 05		 jne	 SHORT $LN12@Extract

; 551  :                 _Myhead->_Parent = _Fixnode; // link down from root

  00055	89 78 04	 mov	 DWORD PTR [eax+4], edi
  00058	eb 0b		 jmp	 SHORT $LN15@Extract
$LN12@Extract:

; 552  :             } else if (_Fixnodeparent->_Left == _Erasednode) {

  0005a	39 0e		 cmp	 DWORD PTR [esi], ecx
  0005c	75 04		 jne	 SHORT $LN14@Extract

; 553  :                 _Fixnodeparent->_Left = _Fixnode; // link down to left

  0005e	89 3e		 mov	 DWORD PTR [esi], edi

; 554  :             } else {

  00060	eb 03		 jmp	 SHORT $LN15@Extract
$LN14@Extract:

; 555  :                 _Fixnodeparent->_Right = _Fixnode; // link down to right

  00062	89 7e 08	 mov	 DWORD PTR [esi+8], edi
$LN15@Extract:

; 556  :             }
; 557  : 
; 558  :             if (_Myhead->_Left == _Erasednode) {

  00065	8b 03		 mov	 eax, DWORD PTR [ebx]
  00067	39 08		 cmp	 DWORD PTR [eax], ecx
  00069	75 28		 jne	 SHORT $LN16@Extract

; 559  :                 _Myhead->_Left = _Fixnode->_Isnil ? _Fixnodeparent // smallest is parent of erased node

  0006b	80 7f 0d 00	 cmp	 BYTE PTR [edi+13], 0
  0006f	74 04		 je	 SHORT $LN42@Extract
  00071	8b d6		 mov	 edx, esi
  00073	eb 1c		 jmp	 SHORT $LN43@Extract
$LN42@Extract:

; 476  :         while (!_Pnode->_Left->_Isnil) {

  00075	8b 0f		 mov	 ecx, DWORD PTR [edi]

; 559  :                 _Myhead->_Left = _Fixnode->_Isnil ? _Fixnodeparent // smallest is parent of erased node

  00077	8b d7		 mov	 edx, edi

; 476  :         while (!_Pnode->_Left->_Isnil) {

  00079	80 79 0d 00	 cmp	 BYTE PTR [ecx+13], 0
  0007d	75 0f		 jne	 SHORT $LN49@Extract
  0007f	90		 npad	 1
$LL48@Extract:
  00080	8b 01		 mov	 eax, DWORD PTR [ecx]

; 477  :             _Pnode = _Pnode->_Left;

  00082	8b d1		 mov	 edx, ecx
  00084	8b c8		 mov	 ecx, eax
  00086	80 78 0d 00	 cmp	 BYTE PTR [eax+13], 0
  0008a	74 f4		 je	 SHORT $LL48@Extract
  0008c	8b 03		 mov	 eax, DWORD PTR [ebx]
$LN49@Extract:
  0008e	8b 4d f8	 mov	 ecx, DWORD PTR __Erasednode$1$[ebp]
$LN43@Extract:

; 559  :                 _Myhead->_Left = _Fixnode->_Isnil ? _Fixnodeparent // smallest is parent of erased node

  00091	89 10		 mov	 DWORD PTR [eax], edx
$LN16@Extract:

; 560  :                                                   : _Min(_Fixnode); // smallest in relinked subtree
; 561  :             }
; 562  : 
; 563  :             if (_Myhead->_Right == _Erasednode) {

  00093	8b 13		 mov	 edx, DWORD PTR [ebx]
  00095	39 4a 08	 cmp	 DWORD PTR [edx+8], ecx
  00098	75 34		 jne	 SHORT $LN17@Extract

; 564  :                 _Myhead->_Right = _Fixnode->_Isnil ? _Fixnodeparent // largest is parent of erased node

  0009a	80 7f 0d 00	 cmp	 BYTE PTR [edi+13], 0
  0009e	74 0d		 je	 SHORT $LN44@Extract

; 565  :                                                    : _Max(_Fixnode); // largest in relinked subtree
; 566  :             }
; 567  :         } else { // erased has two subtrees, _Pnode is successor to erased

  000a0	8b 45 f8	 mov	 eax, DWORD PTR __Erasednode$1$[ebp]
  000a3	8b ce		 mov	 ecx, esi
  000a5	89 4a 08	 mov	 DWORD PTR [edx+8], ecx
  000a8	e9 94 00 00 00	 jmp	 $LN58@Extract
$LN44@Extract:

; 468  :         while (!_Pnode->_Right->_Isnil) {

  000ad	8b 47 08	 mov	 eax, DWORD PTR [edi+8]

; 564  :                 _Myhead->_Right = _Fixnode->_Isnil ? _Fixnodeparent // largest is parent of erased node

  000b0	8b cf		 mov	 ecx, edi

; 468  :         while (!_Pnode->_Right->_Isnil) {

  000b2	80 78 0d 00	 cmp	 BYTE PTR [eax+13], 0
  000b6	75 13		 jne	 SHORT $LN54@Extract
  000b8	0f 1f 84 00 00
	00 00 00	 npad	 8
$LL53@Extract:

; 469  :             _Pnode = _Pnode->_Right;

  000c0	8b c8		 mov	 ecx, eax
  000c2	8b 41 08	 mov	 eax, DWORD PTR [ecx+8]
  000c5	80 78 0d 00	 cmp	 BYTE PTR [eax+13], 0
  000c9	74 f5		 je	 SHORT $LL53@Extract
$LN54@Extract:

; 564  :                 _Myhead->_Right = _Fixnode->_Isnil ? _Fixnodeparent // largest is parent of erased node

  000cb	89 4a 08	 mov	 DWORD PTR [edx+8], ecx
$LN17@Extract:

; 565  :                                                    : _Max(_Fixnode); // largest in relinked subtree
; 566  :             }
; 567  :         } else { // erased has two subtrees, _Pnode is successor to erased

  000ce	8b 45 f8	 mov	 eax, DWORD PTR __Erasednode$1$[ebp]
  000d1	eb 6e		 jmp	 SHORT $LN58@Extract
$LN9@Extract:

; 568  :             _Erasednode->_Left->_Parent = _Pnode; // link left up

  000d3	89 50 04	 mov	 DWORD PTR [eax+4], edx

; 569  :             _Pnode->_Left               = _Erasednode->_Left; // link successor down

  000d6	8b 01		 mov	 eax, DWORD PTR [ecx]
  000d8	89 02		 mov	 DWORD PTR [edx], eax

; 570  : 
; 571  :             if (_Pnode == _Erasednode->_Right) {

  000da	8d 42 04	 lea	 eax, DWORD PTR [edx+4]
  000dd	89 45 f4	 mov	 DWORD PTR $T1[ebp], eax
  000e0	3b 51 08	 cmp	 edx, DWORD PTR [ecx+8]
  000e3	75 04		 jne	 SHORT $LN18@Extract

; 572  :                 _Fixnodeparent = _Pnode; // successor is next to erased

  000e5	8b f2		 mov	 esi, edx

; 573  :             } else { // successor further down, link in place of erased

  000e7	eb 1f		 jmp	 SHORT $LN19@Extract
$LN18@Extract:

; 574  :                 _Fixnodeparent = _Pnode->_Parent; // parent is successor's
; 575  :                 if (!_Fixnode->_Isnil) {

  000e9	80 7f 0d 00	 cmp	 BYTE PTR [edi+13], 0
  000ed	8b 30		 mov	 esi, DWORD PTR [eax]
  000ef	75 03		 jne	 SHORT $LN20@Extract

; 576  :                     _Fixnode->_Parent = _Fixnodeparent; // link fix up

  000f1	89 77 04	 mov	 DWORD PTR [edi+4], esi
$LN20@Extract:

; 577  :                 }
; 578  : 
; 579  :                 _Fixnodeparent->_Left        = _Fixnode; // link fix down

  000f4	89 3e		 mov	 DWORD PTR [esi], edi

; 580  :                 _Pnode->_Right               = _Erasednode->_Right; // link next down

  000f6	8b 41 08	 mov	 eax, DWORD PTR [ecx+8]
  000f9	89 42 08	 mov	 DWORD PTR [edx+8], eax

; 581  :                 _Erasednode->_Right->_Parent = _Pnode; // right up

  000fc	8b 41 08	 mov	 eax, DWORD PTR [ecx+8]
  000ff	89 50 04	 mov	 DWORD PTR [eax+4], edx
  00102	8d 42 04	 lea	 eax, DWORD PTR [edx+4]
  00105	89 45 f4	 mov	 DWORD PTR $T1[ebp], eax
$LN19@Extract:

; 582  :             }
; 583  : 
; 584  :             if (_Myhead->_Parent == _Erasednode) {

  00108	8b 03		 mov	 eax, DWORD PTR [ebx]
  0010a	39 48 04	 cmp	 DWORD PTR [eax+4], ecx
  0010d	75 05		 jne	 SHORT $LN21@Extract

; 585  :                 _Myhead->_Parent = _Pnode; // link down from root

  0010f	89 50 04	 mov	 DWORD PTR [eax+4], edx
  00112	eb 0e		 jmp	 SHORT $LN141@Extract
$LN21@Extract:

; 586  :             } else if (_Erasednode->_Parent->_Left == _Erasednode) {

  00114	8b 41 04	 mov	 eax, DWORD PTR [ecx+4]
  00117	39 08		 cmp	 DWORD PTR [eax], ecx
  00119	75 04		 jne	 SHORT $LN23@Extract

; 587  :                 _Erasednode->_Parent->_Left = _Pnode; // link down to left

  0011b	89 10		 mov	 DWORD PTR [eax], edx

; 588  :             } else {

  0011d	eb 03		 jmp	 SHORT $LN141@Extract
$LN23@Extract:

; 589  :                 _Erasednode->_Parent->_Right = _Pnode; // link down to right

  0011f	89 50 08	 mov	 DWORD PTR [eax+8], edx
$LN141@Extract:

; 590  :             }
; 591  : 
; 592  :             _Pnode->_Parent = _Erasednode->_Parent; // link successor up

  00122	b8 04 00 00 00	 mov	 eax, 4
  00127	8b 04 08	 mov	 eax, DWORD PTR [eax+ecx]
  0012a	8b 4d f4	 mov	 ecx, DWORD PTR $T1[ebp]
  0012d	89 01		 mov	 DWORD PTR [ecx], eax
; File C:\Program Files\Microsoft Visual Studio\2022\Professional\VC\Tools\MSVC\14.44.35207\include\utility

; 140  :     _Left    = _STD move(_Right);

  0012f	8b 45 f8	 mov	 eax, DWORD PTR __Erasednode$1$[ebp]
  00132	8a 4a 0c	 mov	 cl, BYTE PTR [edx+12]
  00135	8a 40 0c	 mov	 al, BYTE PTR [eax+12]
  00138	88 42 0c	 mov	 BYTE PTR [edx+12], al

; 141  :     _Right   = _STD move(_Tmp);

  0013b	8b 45 f8	 mov	 eax, DWORD PTR __Erasednode$1$[ebp]
  0013e	88 48 0c	 mov	 BYTE PTR [eax+12], cl
$LN58@Extract:
; File C:\Program Files\Microsoft Visual Studio\2022\Professional\VC\Tools\MSVC\14.44.35207\include\xtree

; 596  :         if (_Erasednode->_Color == _Black) { // erasing black link, must recolor/rebalance tree

  00141	80 78 0c 01	 cmp	 BYTE PTR [eax+12], 1
  00145	0f 85 ba 01 00
	00		 jne	 $LN25@Extract

; 597  :             for (; _Fixnode != _Myhead->_Parent && _Fixnode->_Color == _Black; _Fixnodeparent = _Fixnode->_Parent) {

  0014b	8b 03		 mov	 eax, DWORD PTR [ebx]
  0014d	3b 78 04	 cmp	 edi, DWORD PTR [eax+4]
  00150	0f 84 a8 01 00
	00		 je	 $LN3@Extract
  00156	80 7f 0c 01	 cmp	 BYTE PTR [edi+12], 1
  0015a	89 75 f4	 mov	 DWORD PTR tv1093[ebp], esi
  0015d	0f 85 9b 01 00
	00		 jne	 $LN3@Extract
$LL4@Extract:

; 598  :                 if (_Fixnode == _Fixnodeparent->_Left) { // fixup left subtree

  00163	8b 0e		 mov	 ecx, DWORD PTR [esi]
  00165	3b f9		 cmp	 edi, ecx
  00167	0f 85 be 00 00
	00		 jne	 $LN26@Extract

; 599  :                     _Pnode = _Fixnodeparent->_Right;

  0016d	8b 4e 08	 mov	 ecx, DWORD PTR [esi+8]

; 600  :                     if (_Pnode->_Color == _Red) { // rotate red up from right subtree

  00170	80 79 0c 00	 cmp	 BYTE PTR [ecx+12], 0
  00174	75 54		 jne	 SHORT $LN95@Extract

; 601  :                         _Pnode->_Color         = _Black;

  00176	c6 41 0c 01	 mov	 BYTE PTR [ecx+12], 1

; 484  :         _Nodeptr _Pnode    = _Wherenode->_Right;

  0017a	8b 4e 08	 mov	 ecx, DWORD PTR [esi+8]

; 602  :                         _Fixnodeparent->_Color = _Red;

  0017d	c6 46 0c 00	 mov	 BYTE PTR [esi+12], 0

; 485  :         _Wherenode->_Right = _Pnode->_Left;

  00181	8b 01		 mov	 eax, DWORD PTR [ecx]
  00183	89 46 08	 mov	 DWORD PTR [esi+8], eax

; 486  : 
; 487  :         if (!_Pnode->_Left->_Isnil) {

  00186	8b 01		 mov	 eax, DWORD PTR [ecx]
  00188	80 78 0d 00	 cmp	 BYTE PTR [eax+13], 0
  0018c	75 03		 jne	 SHORT $LN61@Extract

; 488  :             _Pnode->_Left->_Parent = _Wherenode;

  0018e	89 70 04	 mov	 DWORD PTR [eax+4], esi
$LN61@Extract:

; 489  :         }
; 490  : 
; 491  :         _Pnode->_Parent = _Wherenode->_Parent;

  00191	8b 46 04	 mov	 eax, DWORD PTR [esi+4]
  00194	8d 56 04	 lea	 edx, DWORD PTR [esi+4]
  00197	89 41 04	 mov	 DWORD PTR [ecx+4], eax

; 492  : 
; 493  :         if (_Wherenode == _Myhead->_Parent) {

  0019a	8b 03		 mov	 eax, DWORD PTR [ebx]
  0019c	3b 70 04	 cmp	 esi, DWORD PTR [eax+4]
  0019f	75 0c		 jne	 SHORT $LN62@Extract

; 494  :             _Myhead->_Parent = _Pnode;

  001a1	89 48 04	 mov	 DWORD PTR [eax+4], ecx

; 499  :         }
; 500  : 
; 501  :         _Pnode->_Left       = _Wherenode;

  001a4	89 31		 mov	 DWORD PTR [ecx], esi

; 502  :         _Wherenode->_Parent = _Pnode;

  001a6	89 0a		 mov	 DWORD PTR [edx], ecx

; 603  :                         _Lrotate(_Fixnodeparent);
; 604  :                         _Pnode = _Fixnodeparent->_Right;

  001a8	8b 4e 08	 mov	 ecx, DWORD PTR [esi+8]
  001ab	eb 20		 jmp	 SHORT $LN87@Extract
$LN62@Extract:

; 495  :         } else if (_Wherenode == _Wherenode->_Parent->_Left) {

  001ad	8b 02		 mov	 eax, DWORD PTR [edx]
  001af	3b 30		 cmp	 esi, DWORD PTR [eax]
  001b1	75 0b		 jne	 SHORT $LN64@Extract

; 496  :             _Wherenode->_Parent->_Left = _Pnode;

  001b3	89 08		 mov	 DWORD PTR [eax], ecx

; 499  :         }
; 500  : 
; 501  :         _Pnode->_Left       = _Wherenode;

  001b5	89 31		 mov	 DWORD PTR [ecx], esi

; 502  :         _Wherenode->_Parent = _Pnode;

  001b7	89 0a		 mov	 DWORD PTR [edx], ecx

; 603  :                         _Lrotate(_Fixnodeparent);
; 604  :                         _Pnode = _Fixnodeparent->_Right;

  001b9	8b 4e 08	 mov	 ecx, DWORD PTR [esi+8]
  001bc	eb 0f		 jmp	 SHORT $LN87@Extract
$LN64@Extract:

; 498  :             _Wherenode->_Parent->_Right = _Pnode;

  001be	89 48 08	 mov	 DWORD PTR [eax+8], ecx

; 499  :         }
; 500  : 
; 501  :         _Pnode->_Left       = _Wherenode;

  001c1	89 31		 mov	 DWORD PTR [ecx], esi

; 502  :         _Wherenode->_Parent = _Pnode;

  001c3	89 0a		 mov	 DWORD PTR [edx], ecx

; 603  :                         _Lrotate(_Fixnodeparent);
; 604  :                         _Pnode = _Fixnodeparent->_Right;

  001c5	8b 4e 08	 mov	 ecx, DWORD PTR [esi+8]
  001c8	eb 03		 jmp	 SHORT $LN87@Extract
$LN95@Extract:
  001ca	8d 56 04	 lea	 edx, DWORD PTR [esi+4]
$LN87@Extract:

; 605  :                     }
; 606  : 
; 607  :                     if (_Pnode->_Isnil) {

  001cd	80 79 0d 00	 cmp	 BYTE PTR [ecx+13], 0
  001d1	0f 85 d0 00 00
	00		 jne	 $LN2@Extract

; 608  :                         _Fixnode = _Fixnodeparent; // shouldn't happen
; 609  :                     } else if (_Pnode->_Left->_Color == _Black
; 610  :                                && _Pnode->_Right->_Color == _Black) { // redden right subtree with black children

  001d7	8b 01		 mov	 eax, DWORD PTR [ecx]
  001d9	80 78 0c 01	 cmp	 BYTE PTR [eax+12], 1
  001dd	75 0d		 jne	 SHORT $LN97@Extract
  001df	8b 41 08	 mov	 eax, DWORD PTR [ecx+8]
  001e2	80 78 0c 01	 cmp	 BYTE PTR [eax+12], 1
  001e6	0f 84 b4 00 00
	00		 je	 $LN142@Extract
$LN97@Extract:

; 611  :                         _Pnode->_Color = _Red;
; 612  :                         _Fixnode       = _Fixnodeparent;
; 613  :                     } else { // must rearrange right subtree
; 614  :                         if (_Pnode->_Right->_Color == _Black) { // rotate red up from left sub-subtree

  001ec	8b 41 08	 mov	 eax, DWORD PTR [ecx+8]
  001ef	8b 5d fc	 mov	 ebx, DWORD PTR _this$1$[ebp]
  001f2	80 78 0c 01	 cmp	 BYTE PTR [eax+12], 1
  001f6	75 15		 jne	 SHORT $LN33@Extract

; 615  :                             _Pnode->_Left->_Color = _Black;

  001f8	8b 01		 mov	 eax, DWORD PTR [ecx]

; 616  :                             _Pnode->_Color        = _Red;
; 617  :                             _Rrotate(_Pnode);

  001fa	51		 push	 ecx
  001fb	c6 40 0c 01	 mov	 BYTE PTR [eax+12], 1
  001ff	c6 41 0c 00	 mov	 BYTE PTR [ecx+12], 0
  00203	8b cb		 mov	 ecx, ebx
  00205	e8 00 00 00 00	 call	 ?_Rrotate@?$_Tree_val@U?$_Tree_simple_types@U?$pair@$$CBEV?$vector@U__SPAWNINFO@CEventLua@@V?$allocator@U__SPAWNINFO@CEventLua@@@std@@@std@@@std@@@std@@@std@@QAEXPAU?$_Tree_node@U?$pair@$$CBEV?$vector@U__SPAWNINFO@CEventLua@@V?$allocator@U__SPAWNINFO@CEventLua@@@std@@@std@@@std@@PAX@2@@Z ; std::_Tree_val<std::_Tree_simple_types<std::pair<unsigned char const ,std::vector<CEventLua::__SPAWNINFO,std::allocator<CEventLua::__SPAWNINFO> > > > >::_Rrotate

; 618  :                             _Pnode = _Fixnodeparent->_Right;

  0020a	8b 4e 08	 mov	 ecx, DWORD PTR [esi+8]
$LN33@Extract:

; 619  :                         }
; 620  : 
; 621  :                         _Pnode->_Color         = _Fixnodeparent->_Color;

  0020d	8a 46 0c	 mov	 al, BYTE PTR [esi+12]
  00210	88 41 0c	 mov	 BYTE PTR [ecx+12], al

; 622  :                         _Fixnodeparent->_Color = _Black;

  00213	c6 46 0c 01	 mov	 BYTE PTR [esi+12], 1

; 623  :                         _Pnode->_Right->_Color = _Black;

  00217	8b 41 08	 mov	 eax, DWORD PTR [ecx+8]

; 624  :                         _Lrotate(_Fixnodeparent);

  0021a	8b cb		 mov	 ecx, ebx
  0021c	56		 push	 esi
  0021d	c6 40 0c 01	 mov	 BYTE PTR [eax+12], 1
  00221	e8 00 00 00 00	 call	 ?_Lrotate@?$_Tree_val@U?$_Tree_simple_types@U?$pair@$$CBEV?$vector@U__SPAWNINFO@CEventLua@@V?$allocator@U__SPAWNINFO@CEventLua@@@std@@@std@@@std@@@std@@@std@@QAEXPAU?$_Tree_node@U?$pair@$$CBEV?$vector@U__SPAWNINFO@CEventLua@@V?$allocator@U__SPAWNINFO@CEventLua@@@std@@@std@@@std@@PAX@2@@Z ; std::_Tree_val<std::_Tree_simple_types<std::pair<unsigned char const ,std::vector<CEventLua::__SPAWNINFO,std::allocator<CEventLua::__SPAWNINFO> > > > >::_Lrotate

; 625  :                         break; // tree now recolored/rebalanced

  00226	e9 d3 00 00 00	 jmp	 $LN3@Extract
$LN26@Extract:

; 626  :                     }
; 627  :                 } else { // fixup right subtree
; 628  :                     _Pnode = _Fixnodeparent->_Left;
; 629  :                     if (_Pnode->_Color == _Red) { // rotate red up from left subtree

  0022b	80 79 0c 00	 cmp	 BYTE PTR [ecx+12], 0
  0022f	75 55		 jne	 SHORT $LN96@Extract

; 630  :                         _Pnode->_Color         = _Black;

  00231	c6 41 0c 01	 mov	 BYTE PTR [ecx+12], 1

; 506  :         _Nodeptr _Pnode   = _Wherenode->_Left;

  00235	8b 0e		 mov	 ecx, DWORD PTR [esi]

; 631  :                         _Fixnodeparent->_Color = _Red;

  00237	c6 46 0c 00	 mov	 BYTE PTR [esi+12], 0

; 507  :         _Wherenode->_Left = _Pnode->_Right;

  0023b	8b 41 08	 mov	 eax, DWORD PTR [ecx+8]
  0023e	89 06		 mov	 DWORD PTR [esi], eax

; 508  : 
; 509  :         if (!_Pnode->_Right->_Isnil) {

  00240	8b 41 08	 mov	 eax, DWORD PTR [ecx+8]
  00243	80 78 0d 00	 cmp	 BYTE PTR [eax+13], 0
  00247	75 03		 jne	 SHORT $LN69@Extract

; 510  :             _Pnode->_Right->_Parent = _Wherenode;

  00249	89 70 04	 mov	 DWORD PTR [eax+4], esi
$LN69@Extract:

; 511  :         }
; 512  : 
; 513  :         _Pnode->_Parent = _Wherenode->_Parent;

  0024c	8b 46 04	 mov	 eax, DWORD PTR [esi+4]
  0024f	8d 56 04	 lea	 edx, DWORD PTR [esi+4]
  00252	89 41 04	 mov	 DWORD PTR [ecx+4], eax

; 514  : 
; 515  :         if (_Wherenode == _Myhead->_Parent) {

  00255	8b 03		 mov	 eax, DWORD PTR [ebx]
  00257	3b 70 04	 cmp	 esi, DWORD PTR [eax+4]
  0025a	75 0c		 jne	 SHORT $LN70@Extract

; 516  :             _Myhead->_Parent = _Pnode;

  0025c	89 48 04	 mov	 DWORD PTR [eax+4], ecx

; 521  :         }
; 522  : 
; 523  :         _Pnode->_Right      = _Wherenode;

  0025f	89 71 08	 mov	 DWORD PTR [ecx+8], esi

; 524  :         _Wherenode->_Parent = _Pnode;

  00262	89 0a		 mov	 DWORD PTR [edx], ecx

; 632  :                         _Rrotate(_Fixnodeparent);
; 633  :                         _Pnode = _Fixnodeparent->_Left;

  00264	8b 0e		 mov	 ecx, DWORD PTR [esi]
  00266	eb 21		 jmp	 SHORT $LN86@Extract
$LN70@Extract:

; 517  :         } else if (_Wherenode == _Wherenode->_Parent->_Right) {

  00268	8b 02		 mov	 eax, DWORD PTR [edx]
  0026a	3b 70 08	 cmp	 esi, DWORD PTR [eax+8]
  0026d	75 0c		 jne	 SHORT $LN72@Extract

; 518  :             _Wherenode->_Parent->_Right = _Pnode;

  0026f	89 48 08	 mov	 DWORD PTR [eax+8], ecx

; 521  :         }
; 522  : 
; 523  :         _Pnode->_Right      = _Wherenode;

  00272	89 71 08	 mov	 DWORD PTR [ecx+8], esi

; 524  :         _Wherenode->_Parent = _Pnode;

  00275	89 0a		 mov	 DWORD PTR [edx], ecx

; 632  :                         _Rrotate(_Fixnodeparent);
; 633  :                         _Pnode = _Fixnodeparent->_Left;

  00277	8b 0e		 mov	 ecx, DWORD PTR [esi]
  00279	eb 0e		 jmp	 SHORT $LN86@Extract
$LN72@Extract:

; 520  :             _Wherenode->_Parent->_Left = _Pnode;

  0027b	89 08		 mov	 DWORD PTR [eax], ecx

; 521  :         }
; 522  : 
; 523  :         _Pnode->_Right      = _Wherenode;

  0027d	89 71 08	 mov	 DWORD PTR [ecx+8], esi

; 524  :         _Wherenode->_Parent = _Pnode;

  00280	89 0a		 mov	 DWORD PTR [edx], ecx

; 632  :                         _Rrotate(_Fixnodeparent);
; 633  :                         _Pnode = _Fixnodeparent->_Left;

  00282	8b 0e		 mov	 ecx, DWORD PTR [esi]
  00284	eb 03		 jmp	 SHORT $LN86@Extract
$LN96@Extract:
  00286	8d 56 04	 lea	 edx, DWORD PTR [esi+4]
$LN86@Extract:

; 634  :                     }
; 635  : 
; 636  :                     if (_Pnode->_Isnil) {

  00289	80 79 0d 00	 cmp	 BYTE PTR [ecx+13], 0
  0028d	75 18		 jne	 SHORT $LN2@Extract

; 637  :                         _Fixnode = _Fixnodeparent; // shouldn't happen
; 638  :                     } else if (_Pnode->_Right->_Color == _Black
; 639  :                                && _Pnode->_Left->_Color == _Black) { // redden left subtree with black children

  0028f	8b 59 08	 mov	 ebx, DWORD PTR [ecx+8]
  00292	80 7b 0c 01	 cmp	 BYTE PTR [ebx+12], 1
  00296	75 2c		 jne	 SHORT $LN98@Extract
  00298	8b 01		 mov	 eax, DWORD PTR [ecx]
  0029a	80 78 0c 01	 cmp	 BYTE PTR [eax+12], 1
  0029e	75 24		 jne	 SHORT $LN98@Extract
$LN142@Extract:

; 597  :             for (; _Fixnode != _Myhead->_Parent && _Fixnode->_Color == _Black; _Fixnodeparent = _Fixnode->_Parent) {

  002a0	8b 5d fc	 mov	 ebx, DWORD PTR _this$1$[ebp]
  002a3	c6 41 0c 00	 mov	 BYTE PTR [ecx+12], 0
$LN2@Extract:
  002a7	8b 03		 mov	 eax, DWORD PTR [ebx]
  002a9	8b 4d f4	 mov	 ecx, DWORD PTR tv1093[ebp]
  002ac	8b f9		 mov	 edi, ecx
  002ae	8b 32		 mov	 esi, DWORD PTR [edx]
  002b0	3b 48 04	 cmp	 ecx, DWORD PTR [eax+4]
  002b3	74 49		 je	 SHORT $LN3@Extract
  002b5	80 7f 0c 01	 cmp	 BYTE PTR [edi+12], 1
  002b9	89 75 f4	 mov	 DWORD PTR tv1093[ebp], esi
  002bc	0f 84 a1 fe ff
	ff		 je	 $LL4@Extract
  002c2	eb 3a		 jmp	 SHORT $LN3@Extract
$LN98@Extract:

; 640  :                         _Pnode->_Color = _Red;
; 641  :                         _Fixnode       = _Fixnodeparent;
; 642  :                     } else { // must rearrange left subtree
; 643  :                         if (_Pnode->_Left->_Color == _Black) { // rotate red up from right sub-subtree

  002c4	8b 01		 mov	 eax, DWORD PTR [ecx]
  002c6	80 78 0c 01	 cmp	 BYTE PTR [eax+12], 1
  002ca	75 17		 jne	 SHORT $LN101@Extract

; 644  :                             _Pnode->_Right->_Color = _Black;

  002cc	c6 43 0c 01	 mov	 BYTE PTR [ebx+12], 1

; 645  :                             _Pnode->_Color         = _Red;
; 646  :                             _Lrotate(_Pnode);

  002d0	8b 5d fc	 mov	 ebx, DWORD PTR _this$1$[ebp]
  002d3	c6 41 0c 00	 mov	 BYTE PTR [ecx+12], 0
  002d7	51		 push	 ecx
  002d8	8b cb		 mov	 ecx, ebx
  002da	e8 00 00 00 00	 call	 ?_Lrotate@?$_Tree_val@U?$_Tree_simple_types@U?$pair@$$CBEV?$vector@U__SPAWNINFO@CEventLua@@V?$allocator@U__SPAWNINFO@CEventLua@@@std@@@std@@@std@@@std@@@std@@QAEXPAU?$_Tree_node@U?$pair@$$CBEV?$vector@U__SPAWNINFO@CEventLua@@V?$allocator@U__SPAWNINFO@CEventLua@@@std@@@std@@@std@@PAX@2@@Z ; std::_Tree_val<std::_Tree_simple_types<std::pair<unsigned char const ,std::vector<CEventLua::__SPAWNINFO,std::allocator<CEventLua::__SPAWNINFO> > > > >::_Lrotate

; 647  :                             _Pnode = _Fixnodeparent->_Left;

  002df	8b 0e		 mov	 ecx, DWORD PTR [esi]
  002e1	eb 03		 jmp	 SHORT $LN39@Extract
$LN101@Extract:

; 640  :                         _Pnode->_Color = _Red;
; 641  :                         _Fixnode       = _Fixnodeparent;
; 642  :                     } else { // must rearrange left subtree
; 643  :                         if (_Pnode->_Left->_Color == _Black) { // rotate red up from right sub-subtree

  002e3	8b 5d fc	 mov	 ebx, DWORD PTR _this$1$[ebp]
$LN39@Extract:

; 648  :                         }
; 649  : 
; 650  :                         _Pnode->_Color         = _Fixnodeparent->_Color;

  002e6	8a 46 0c	 mov	 al, BYTE PTR [esi+12]
  002e9	88 41 0c	 mov	 BYTE PTR [ecx+12], al

; 651  :                         _Fixnodeparent->_Color = _Black;

  002ec	c6 46 0c 01	 mov	 BYTE PTR [esi+12], 1

; 652  :                         _Pnode->_Left->_Color  = _Black;

  002f0	8b 01		 mov	 eax, DWORD PTR [ecx]

; 653  :                         _Rrotate(_Fixnodeparent);

  002f2	8b cb		 mov	 ecx, ebx
  002f4	56		 push	 esi
  002f5	c6 40 0c 01	 mov	 BYTE PTR [eax+12], 1
  002f9	e8 00 00 00 00	 call	 ?_Rrotate@?$_Tree_val@U?$_Tree_simple_types@U?$pair@$$CBEV?$vector@U__SPAWNINFO@CEventLua@@V?$allocator@U__SPAWNINFO@CEventLua@@@std@@@std@@@std@@@std@@@std@@QAEXPAU?$_Tree_node@U?$pair@$$CBEV?$vector@U__SPAWNINFO@CEventLua@@V?$allocator@U__SPAWNINFO@CEventLua@@@std@@@std@@@std@@PAX@2@@Z ; std::_Tree_val<std::_Tree_simple_types<std::pair<unsigned char const ,std::vector<CEventLua::__SPAWNINFO,std::allocator<CEventLua::__SPAWNINFO> > > > >::_Rrotate
$LN3@Extract:

; 654  :                         break; // tree now recolored/rebalanced
; 655  :                     }
; 656  :                 }
; 657  :             }
; 658  : 
; 659  :             _Fixnode->_Color = _Black; // stopping node is black

  002fe	8b 45 f8	 mov	 eax, DWORD PTR __Erasednode$1$[ebp]
  00301	c6 47 0c 01	 mov	 BYTE PTR [edi+12], 1
$LN25@Extract:

; 660  :         }
; 661  : 
; 662  :         if (0 < _Mysize) {

  00305	8b 4b 04	 mov	 ecx, DWORD PTR [ebx+4]
  00308	85 c9		 test	 ecx, ecx
  0030a	74 04		 je	 SHORT $LN40@Extract

; 663  :             --_Mysize;

  0030c	49		 dec	 ecx
  0030d	89 4b 04	 mov	 DWORD PTR [ebx+4], ecx
$LN40@Extract:

; 664  :         }
; 665  : 
; 666  :         return _Erasednode;
; 667  :     }

  00310	5f		 pop	 edi
  00311	5e		 pop	 esi
  00312	5b		 pop	 ebx
  00313	8b e5		 mov	 esp, ebp
  00315	5d		 pop	 ebp
  00316	c2 04 00	 ret	 4
?_Extract@?$_Tree_val@U?$_Tree_simple_types@U?$pair@$$CBEV?$vector@U__SPAWNINFO@CEventLua@@V?$allocator@U__SPAWNINFO@CEventLua@@@std@@@std@@@std@@@std@@@std@@QAEPAU?$_Tree_node@U?$pair@$$CBEV?$vector@U__SPAWNINFO@CEventLua@@V?$allocator@U__SPAWNINFO@CEventLua@@@std@@@std@@@std@@PAX@2@V?$_Tree_unchecked_const_iterator@V?$_Tree_val@U?$_Tree_simple_types@U?$pair@$$CBEV?$vector@U__SPAWNINFO@CEventLua@@V?$allocator@U__SPAWNINFO@CEventLua@@@std@@@std@@@std@@@std@@@std@@U_Iterator_base0@2@@2@@Z ENDP ; std::_Tree_val<std::_Tree_simple_types<std::pair<unsigned char const ,std::vector<CEventLua::__SPAWNINFO,std::allocator<CEventLua::__SPAWNINFO> > > > >::_Extract
_TEXT	ENDS
; Function compile flags: /Ogtp
; File C:\Program Files\Microsoft Visual Studio\2022\Professional\VC\Tools\MSVC\14.44.35207\include\xtree
;	COMDAT ?_Rrotate@?$_Tree_val@U?$_Tree_simple_types@U?$pair@$$CBEV?$vector@U__SPAWNINFO@CEventLua@@V?$allocator@U__SPAWNINFO@CEventLua@@@std@@@std@@@std@@@std@@@std@@QAEXPAU?$_Tree_node@U?$pair@$$CBEV?$vector@U__SPAWNINFO@CEventLua@@V?$allocator@U__SPAWNINFO@CEventLua@@@std@@@std@@@std@@PAX@2@@Z
_TEXT	SEGMENT
__Wherenode$ = 8					; size = 4
?_Rrotate@?$_Tree_val@U?$_Tree_simple_types@U?$pair@$$CBEV?$vector@U__SPAWNINFO@CEventLua@@V?$allocator@U__SPAWNINFO@CEventLua@@@std@@@std@@@std@@@std@@@std@@QAEXPAU?$_Tree_node@U?$pair@$$CBEV?$vector@U__SPAWNINFO@CEventLua@@V?$allocator@U__SPAWNINFO@CEventLua@@@std@@@std@@@std@@PAX@2@@Z PROC ; std::_Tree_val<std::_Tree_simple_types<std::pair<unsigned char const ,std::vector<CEventLua::__SPAWNINFO,std::allocator<CEventLua::__SPAWNINFO> > > > >::_Rrotate, COMDAT
; _this$ = ecx

; 505  :     void _Rrotate(_Nodeptr _Wherenode) noexcept { // promote left node to root of subtree

  00000	55		 push	 ebp
  00001	8b ec		 mov	 ebp, esp

; 506  :         _Nodeptr _Pnode   = _Wherenode->_Left;

  00003	8b 55 08	 mov	 edx, DWORD PTR __Wherenode$[ebp]
  00006	56		 push	 esi
  00007	8b 32		 mov	 esi, DWORD PTR [edx]

; 507  :         _Wherenode->_Left = _Pnode->_Right;

  00009	8b 46 08	 mov	 eax, DWORD PTR [esi+8]
  0000c	89 02		 mov	 DWORD PTR [edx], eax

; 508  : 
; 509  :         if (!_Pnode->_Right->_Isnil) {

  0000e	8b 46 08	 mov	 eax, DWORD PTR [esi+8]
  00011	80 78 0d 00	 cmp	 BYTE PTR [eax+13], 0
  00015	75 03		 jne	 SHORT $LN2@Rrotate

; 510  :             _Pnode->_Right->_Parent = _Wherenode;

  00017	89 50 04	 mov	 DWORD PTR [eax+4], edx
$LN2@Rrotate:

; 511  :         }
; 512  : 
; 513  :         _Pnode->_Parent = _Wherenode->_Parent;

  0001a	8b 42 04	 mov	 eax, DWORD PTR [edx+4]
  0001d	89 46 04	 mov	 DWORD PTR [esi+4], eax

; 514  : 
; 515  :         if (_Wherenode == _Myhead->_Parent) {

  00020	8b 01		 mov	 eax, DWORD PTR [ecx]
  00022	3b 50 04	 cmp	 edx, DWORD PTR [eax+4]
  00025	75 0e		 jne	 SHORT $LN3@Rrotate

; 516  :             _Myhead->_Parent = _Pnode;

  00027	89 70 04	 mov	 DWORD PTR [eax+4], esi

; 521  :         }
; 522  : 
; 523  :         _Pnode->_Right      = _Wherenode;
; 524  :         _Wherenode->_Parent = _Pnode;
; 525  :     }

  0002a	89 56 08	 mov	 DWORD PTR [esi+8], edx
  0002d	89 72 04	 mov	 DWORD PTR [edx+4], esi
  00030	5e		 pop	 esi
  00031	5d		 pop	 ebp
  00032	c2 04 00	 ret	 4
$LN3@Rrotate:

; 517  :         } else if (_Wherenode == _Wherenode->_Parent->_Right) {

  00035	8b 42 04	 mov	 eax, DWORD PTR [edx+4]
  00038	3b 50 08	 cmp	 edx, DWORD PTR [eax+8]
  0003b	75 0e		 jne	 SHORT $LN5@Rrotate

; 518  :             _Wherenode->_Parent->_Right = _Pnode;

  0003d	89 70 08	 mov	 DWORD PTR [eax+8], esi

; 521  :         }
; 522  : 
; 523  :         _Pnode->_Right      = _Wherenode;
; 524  :         _Wherenode->_Parent = _Pnode;
; 525  :     }

  00040	89 56 08	 mov	 DWORD PTR [esi+8], edx
  00043	89 72 04	 mov	 DWORD PTR [edx+4], esi
  00046	5e		 pop	 esi
  00047	5d		 pop	 ebp
  00048	c2 04 00	 ret	 4
$LN5@Rrotate:

; 519  :         } else {
; 520  :             _Wherenode->_Parent->_Left = _Pnode;

  0004b	89 30		 mov	 DWORD PTR [eax], esi

; 521  :         }
; 522  : 
; 523  :         _Pnode->_Right      = _Wherenode;
; 524  :         _Wherenode->_Parent = _Pnode;
; 525  :     }

  0004d	89 56 08	 mov	 DWORD PTR [esi+8], edx
  00050	89 72 04	 mov	 DWORD PTR [edx+4], esi
  00053	5e		 pop	 esi
  00054	5d		 pop	 ebp
  00055	c2 04 00	 ret	 4
?_Rrotate@?$_Tree_val@U?$_Tree_simple_types@U?$pair@$$CBEV?$vector@U__SPAWNINFO@CEventLua@@V?$allocator@U__SPAWNINFO@CEventLua@@@std@@@std@@@std@@@std@@@std@@QAEXPAU?$_Tree_node@U?$pair@$$CBEV?$vector@U__SPAWNINFO@CEventLua@@V?$allocator@U__SPAWNINFO@CEventLua@@@std@@@std@@@std@@PAX@2@@Z ENDP ; std::_Tree_val<std::_Tree_simple_types<std::pair<unsigned char const ,std::vector<CEventLua::__SPAWNINFO,std::allocator<CEventLua::__SPAWNINFO> > > > >::_Rrotate
_TEXT	ENDS
; Function compile flags: /Ogtp
; File C:\Program Files\Microsoft Visual Studio\2022\Professional\VC\Tools\MSVC\14.44.35207\include\xtree
;	COMDAT ?_Lrotate@?$_Tree_val@U?$_Tree_simple_types@U?$pair@$$CBEV?$vector@U__SPAWNINFO@CEventLua@@V?$allocator@U__SPAWNINFO@CEventLua@@@std@@@std@@@std@@@std@@@std@@QAEXPAU?$_Tree_node@U?$pair@$$CBEV?$vector@U__SPAWNINFO@CEventLua@@V?$allocator@U__SPAWNINFO@CEventLua@@@std@@@std@@@std@@PAX@2@@Z
_TEXT	SEGMENT
__Wherenode$ = 8					; size = 4
?_Lrotate@?$_Tree_val@U?$_Tree_simple_types@U?$pair@$$CBEV?$vector@U__SPAWNINFO@CEventLua@@V?$allocator@U__SPAWNINFO@CEventLua@@@std@@@std@@@std@@@std@@@std@@QAEXPAU?$_Tree_node@U?$pair@$$CBEV?$vector@U__SPAWNINFO@CEventLua@@V?$allocator@U__SPAWNINFO@CEventLua@@@std@@@std@@@std@@PAX@2@@Z PROC ; std::_Tree_val<std::_Tree_simple_types<std::pair<unsigned char const ,std::vector<CEventLua::__SPAWNINFO,std::allocator<CEventLua::__SPAWNINFO> > > > >::_Lrotate, COMDAT
; _this$ = ecx

; 483  :     void _Lrotate(_Nodeptr _Wherenode) noexcept { // promote right node to root of subtree

  00000	55		 push	 ebp
  00001	8b ec		 mov	 ebp, esp

; 484  :         _Nodeptr _Pnode    = _Wherenode->_Right;

  00003	8b 55 08	 mov	 edx, DWORD PTR __Wherenode$[ebp]
  00006	56		 push	 esi
  00007	8b 72 08	 mov	 esi, DWORD PTR [edx+8]

; 485  :         _Wherenode->_Right = _Pnode->_Left;

  0000a	8b 06		 mov	 eax, DWORD PTR [esi]
  0000c	89 42 08	 mov	 DWORD PTR [edx+8], eax

; 486  : 
; 487  :         if (!_Pnode->_Left->_Isnil) {

  0000f	8b 06		 mov	 eax, DWORD PTR [esi]
  00011	80 78 0d 00	 cmp	 BYTE PTR [eax+13], 0
  00015	75 03		 jne	 SHORT $LN2@Lrotate

; 488  :             _Pnode->_Left->_Parent = _Wherenode;

  00017	89 50 04	 mov	 DWORD PTR [eax+4], edx
$LN2@Lrotate:

; 489  :         }
; 490  : 
; 491  :         _Pnode->_Parent = _Wherenode->_Parent;

  0001a	8b 42 04	 mov	 eax, DWORD PTR [edx+4]
  0001d	89 46 04	 mov	 DWORD PTR [esi+4], eax

; 492  : 
; 493  :         if (_Wherenode == _Myhead->_Parent) {

  00020	8b 01		 mov	 eax, DWORD PTR [ecx]
  00022	3b 50 04	 cmp	 edx, DWORD PTR [eax+4]
  00025	75 0d		 jne	 SHORT $LN3@Lrotate

; 494  :             _Myhead->_Parent = _Pnode;

  00027	89 70 04	 mov	 DWORD PTR [eax+4], esi

; 499  :         }
; 500  : 
; 501  :         _Pnode->_Left       = _Wherenode;
; 502  :         _Wherenode->_Parent = _Pnode;
; 503  :     }

  0002a	89 16		 mov	 DWORD PTR [esi], edx
  0002c	89 72 04	 mov	 DWORD PTR [edx+4], esi
  0002f	5e		 pop	 esi
  00030	5d		 pop	 ebp
  00031	c2 04 00	 ret	 4
$LN3@Lrotate:

; 495  :         } else if (_Wherenode == _Wherenode->_Parent->_Left) {

  00034	8b 42 04	 mov	 eax, DWORD PTR [edx+4]
  00037	3b 10		 cmp	 edx, DWORD PTR [eax]
  00039	75 0c		 jne	 SHORT $LN5@Lrotate

; 496  :             _Wherenode->_Parent->_Left = _Pnode;

  0003b	89 30		 mov	 DWORD PTR [eax], esi

; 499  :         }
; 500  : 
; 501  :         _Pnode->_Left       = _Wherenode;
; 502  :         _Wherenode->_Parent = _Pnode;
; 503  :     }

  0003d	89 16		 mov	 DWORD PTR [esi], edx
  0003f	89 72 04	 mov	 DWORD PTR [edx+4], esi
  00042	5e		 pop	 esi
  00043	5d		 pop	 ebp
  00044	c2 04 00	 ret	 4
$LN5@Lrotate:

; 497  :         } else {
; 498  :             _Wherenode->_Parent->_Right = _Pnode;

  00047	89 70 08	 mov	 DWORD PTR [eax+8], esi

; 499  :         }
; 500  : 
; 501  :         _Pnode->_Left       = _Wherenode;
; 502  :         _Wherenode->_Parent = _Pnode;
; 503  :     }

  0004a	89 16		 mov	 DWORD PTR [esi], edx
  0004c	89 72 04	 mov	 DWORD PTR [edx+4], esi
  0004f	5e		 pop	 esi
  00050	5d		 pop	 ebp
  00051	c2 04 00	 ret	 4
?_Lrotate@?$_Tree_val@U?$_Tree_simple_types@U?$pair@$$CBEV?$vector@U__SPAWNINFO@CEventLua@@V?$allocator@U__SPAWNINFO@CEventLua@@@std@@@std@@@std@@@std@@@std@@QAEXPAU?$_Tree_node@U?$pair@$$CBEV?$vector@U__SPAWNINFO@CEventLua@@V?$allocator@U__SPAWNINFO@CEventLua@@@std@@@std@@@std@@PAX@2@@Z ENDP ; std::_Tree_val<std::_Tree_simple_types<std::pair<unsigned char const ,std::vector<CEventLua::__SPAWNINFO,std::allocator<CEventLua::__SPAWNINFO> > > > >::_Lrotate
_TEXT	ENDS
; Function compile flags: /Ogtp
; File C:\Program Files\Microsoft Visual Studio\2022\Professional\VC\Tools\MSVC\14.44.35207\include\vector
; File C:\Program Files\Microsoft Visual Studio\2022\Professional\VC\Tools\MSVC\14.44.35207\include\xmemory
; File C:\Program Files\Microsoft Visual Studio\2022\Professional\VC\Tools\MSVC\14.44.35207\include\vector
; File C:\Program Files\Microsoft Visual Studio\2022\Professional\VC\Tools\MSVC\14.44.35207\include\xmemory
; File C:\Program Files\Microsoft Visual Studio\2022\Professional\VC\Tools\MSVC\14.44.35207\include\vector
; File C:\Program Files\Microsoft Visual Studio\2022\Professional\VC\Tools\MSVC\14.44.35207\include\xmemory
; File C:\Program Files\Microsoft Visual Studio\2022\Professional\VC\Tools\MSVC\14.44.35207\include\vector
;	COMDAT ??1?$vector@U__SPAWNREGION@CEventLua@@V?$allocator@U__SPAWNREGION@CEventLua@@@std@@@std@@QAE@XZ
_TEXT	SEGMENT
??1?$vector@U__SPAWNREGION@CEventLua@@V?$allocator@U__SPAWNREGION@CEventLua@@@std@@@std@@QAE@XZ PROC ; std::vector<CEventLua::__SPAWNREGION,std::allocator<CEventLua::__SPAWNREGION> >::~vector<CEventLua::__SPAWNREGION,std::allocator<CEventLua::__SPAWNREGION> >, COMDAT
; _this$ = ecx

; 829  :     _CONSTEXPR20 ~vector() noexcept {

  00000	56		 push	 esi
  00001	57		 push	 edi
  00002	8b f9		 mov	 edi, ecx

; 2090 :         if (_Myfirst) { // destroy and deallocate old array

  00004	8b 37		 mov	 esi, DWORD PTR [edi]
  00006	85 f6		 test	 esi, esi
  00008	74 54		 je	 SHORT $LN5@vector

; 2091 :             _STD _Destroy_range(_Myfirst, _Mylast, _Al);
; 2092 :             _ASAN_VECTOR_REMOVE;
; 2093 :             _Al.deallocate(_Myfirst, static_cast<size_type>(_Myend - _Myfirst));

  0000a	8b 4f 08	 mov	 ecx, DWORD PTR [edi+8]
  0000d	b8 67 66 66 66	 mov	 eax, 1717986919		; 66666667H
  00012	2b ce		 sub	 ecx, esi
  00014	f7 e9		 imul	 ecx
  00016	c1 fa 03	 sar	 edx, 3
  00019	8b c2		 mov	 eax, edx
  0001b	c1 e8 1f	 shr	 eax, 31			; 0000001fH
  0001e	03 c2		 add	 eax, edx
; File C:\Program Files\Microsoft Visual Studio\2022\Professional\VC\Tools\MSVC\14.44.35207\include\xmemory

; 985  :         _STD _Deallocate<_New_alignof<_Ty>>(_Ptr, sizeof(_Ty) * _Count);

  00020	8d 0c 80	 lea	 ecx, DWORD PTR [eax+eax*4]
  00023	c1 e1 02	 shl	 ecx, 2

; 284  :         if (_Bytes >= _Big_allocation_threshold) {

  00026	81 f9 00 10 00
	00		 cmp	 ecx, 4096		; 00001000H
  0002c	72 12		 jb	 SHORT $LN18@vector

; 205  :     const uintptr_t _Ptr_container   = _Ptr_user[-1];

  0002e	8b 56 fc	 mov	 edx, DWORD PTR [esi-4]
  00031	83 c1 23	 add	 ecx, 35			; 00000023H

; 206  : 
; 207  :     // If the following asserts, it likely means that we are performing
; 208  :     // an aligned delete on memory coming from an unaligned allocation.
; 209  :     _STL_ASSERT(_Ptr_user[-2] == _Big_allocation_sentinel, "invalid argument");
; 210  : 
; 211  :     // Extra paranoia on aligned allocation/deallocation; ensure _Ptr_container is
; 212  :     // in range [_Min_back_shift, _Non_user_size]
; 213  : #ifdef _DEBUG
; 214  :     constexpr uintptr_t _Min_back_shift = 2 * sizeof(void*);
; 215  : #else // ^^^ defined(_DEBUG) / !defined(_DEBUG) vvv
; 216  :     constexpr uintptr_t _Min_back_shift = sizeof(void*);
; 217  : #endif // ^^^ !defined(_DEBUG) ^^^
; 218  :     const uintptr_t _Back_shift = reinterpret_cast<uintptr_t>(_Ptr) - _Ptr_container;

  00034	2b f2		 sub	 esi, edx

; 219  :     _STL_VERIFY(_Back_shift >= _Min_back_shift && _Back_shift <= _Non_user_size, "invalid argument");

  00036	8d 46 fc	 lea	 eax, DWORD PTR [esi-4]
  00039	83 f8 1f	 cmp	 eax, 31			; 0000001fH
  0003c	77 23		 ja	 SHORT $LN17@vector

; 220  :     _Ptr = reinterpret_cast<void*>(_Ptr_container);

  0003e	8b f2		 mov	 esi, edx
$LN18@vector:

; 289  :         ::operator delete(_Ptr, _Bytes);

  00040	51		 push	 ecx
  00041	56		 push	 esi
  00042	e8 00 00 00 00	 call	 ??3@YAXPAXI@Z		; operator delete
; File C:\Program Files\Microsoft Visual Studio\2022\Professional\VC\Tools\MSVC\14.44.35207\include\vector

; 2095 :             _Myfirst = nullptr;

  00047	c7 07 00 00 00
	00		 mov	 DWORD PTR [edi], 0
; File C:\Program Files\Microsoft Visual Studio\2022\Professional\VC\Tools\MSVC\14.44.35207\include\xmemory

; 289  :         ::operator delete(_Ptr, _Bytes);

  0004d	83 c4 08	 add	 esp, 8
; File C:\Program Files\Microsoft Visual Studio\2022\Professional\VC\Tools\MSVC\14.44.35207\include\vector

; 2096 :             _Mylast  = nullptr;

  00050	c7 47 04 00 00
	00 00		 mov	 DWORD PTR [edi+4], 0

; 2097 :             _Myend   = nullptr;

  00057	c7 47 08 00 00
	00 00		 mov	 DWORD PTR [edi+8], 0
$LN5@vector:
  0005e	5f		 pop	 edi

; 835  :     }

  0005f	5e		 pop	 esi
  00060	c3		 ret	 0
$LN17@vector:
; File C:\Program Files\Microsoft Visual Studio\2022\Professional\VC\Tools\MSVC\14.44.35207\include\xmemory

; 219  :     _STL_VERIFY(_Back_shift >= _Min_back_shift && _Back_shift <= _Non_user_size, "invalid argument");

  00061	6a 00		 push	 0
  00063	6a 00		 push	 0
  00065	6a 00		 push	 0
  00067	6a 00		 push	 0
  00069	6a 00		 push	 0
  0006b	e8 00 00 00 00	 call	 __invoke_watson
$LN26@vector:
  00070	cc		 int	 3
??1?$vector@U__SPAWNREGION@CEventLua@@V?$allocator@U__SPAWNREGION@CEventLua@@@std@@@std@@QAE@XZ ENDP ; std::vector<CEventLua::__SPAWNREGION,std::allocator<CEventLua::__SPAWNREGION> >::~vector<CEventLua::__SPAWNREGION,std::allocator<CEventLua::__SPAWNREGION> >
_TEXT	ENDS
; Function compile flags: /Ogtp
; File C:\IAGOS\server\v18\Source\Source\_Common\EventLua.cpp
; File C:\IAGOS\server\v18\Source\Source\_Common\LuaBase.h
; File C:\IAGOS\server\v18\Source\Source\_Common\EventLua.cpp
;	COMDAT ?GetCouponEvent@CEventLua@@QAEKH@Z
_TEXT	SEGMENT
tv143 = -8						; size = 8
_bProxy$ = 8						; size = 4
?GetCouponEvent@CEventLua@@QAEKH@Z PROC			; CEventLua::GetCouponEvent, COMDAT
; _this$ = ecx

; 468  : {

  00000	55		 push	 ebp
  00001	8b ec		 mov	 ebp, esp
  00003	83 ec 08	 sub	 esp, 8
  00006	56		 push	 esi
  00007	8b f1		 mov	 esi, ecx

; 469  : 	if( !IsPossible() )

  00009	83 7e 04 00	 cmp	 DWORD PTR [esi+4], 0
  0000d	75 09		 jne	 SHORT $LN2@GetCouponE

; 470  : 		return 0;

  0000f	33 c0		 xor	 eax, eax
  00011	5e		 pop	 esi

; 485  : }

  00012	8b e5		 mov	 esp, ebp
  00014	5d		 pop	 ebp
  00015	c2 04 00	 ret	 4
$LN2@GetCouponE:

; 471  : 
; 472  : #if __VER >= 12 // __EVENTLUA_0826
; 473  : 	if( bProxy )

  00018	83 7d 08 00	 cmp	 DWORD PTR _bProxy$[ebp], 0
  0001c	74 0a		 je	 SHORT $LN3@GetCouponE

; 474  : 		return m_proxy.GetCouponEvent();

  0001e	8b 46 38	 mov	 eax, DWORD PTR [esi+56]
  00021	5e		 pop	 esi

; 485  : }

  00022	8b e5		 mov	 esp, ebp
  00024	5d		 pop	 ebp
  00025	c2 04 00	 ret	 4
$LN3@GetCouponE:
  00028	53		 push	 ebx
  00029	57		 push	 edi

; 475  : #endif	// __EVENTLUA_0826
; 476  : 
; 477  : 	DWORD dwCouponEvent	= 0;
; 478  : 	if( m_Lua.GetLuaFunction( "GetCouponEvent" ) )

  0002a	68 00 00 00 00	 push	 OFFSET ??_C@_0P@JBFAKDCI@GetCouponEvent@
  0002f	8d 4e 08	 lea	 ecx, DWORD PTR [esi+8]
  00032	33 db		 xor	 ebx, ebx
  00034	e8 00 00 00 00	 call	 ?GetLuaFunction@CLuaBase@@QAEHPAD@Z ; CLuaBase::GetLuaFunction
  00039	85 c0		 test	 eax, eax
  0003b	74 28		 je	 SHORT $LN4@GetCouponE

; 479  : 	{
; 480  : 		m_Lua.CallLuaFunction( 0, 1 );

  0003d	6a 01		 push	 1
  0003f	53		 push	 ebx
  00040	8d 4e 08	 lea	 ecx, DWORD PTR [esi+8]
  00043	e8 00 00 00 00	 call	 ?CallLuaFunction@CLuaBase@@QAEXHH@Z ; CLuaBase::CallLuaFunction
; File C:\IAGOS\server\v18\Source\Source\_Common\LuaBase.h

; 43   : 	double		ToNumber( int nStackPos )					{  return lua_tonumber( m_pLuaState, nStackPos );  }

  00048	53		 push	 ebx
  00049	6a ff		 push	 -1
  0004b	ff 76 0c	 push	 DWORD PTR [esi+12]
  0004e	e8 00 00 00 00	 call	 _lua_tonumberx
  00053	83 c4 0c	 add	 esp, 12			; 0000000cH
  00056	dd 5d f8	 fstp	 QWORD PTR tv143[ebp]
; File C:\IAGOS\server\v18\Source\Source\_Common\EventLua.cpp

; 481  : 		dwCouponEvent	= (DWORD)m_Lua.ToNumber( -1 );

  00059	f2 0f 10 45 f8	 movsd	 xmm0, QWORD PTR tv143[ebp]
  0005e	e8 00 00 00 00	 call	 __dtol3
  00063	8b d8		 mov	 ebx, eax
$LN4@GetCouponE:

; 482  : 	}
; 483  : 	m_Lua.Pop(0);

  00065	6a 00		 push	 0
  00067	8d 4e 08	 lea	 ecx, DWORD PTR [esi+8]
  0006a	e8 00 00 00 00	 call	 ?Pop@CLuaBase@@QAEXH@Z	; CLuaBase::Pop

; 484  : 	return dwCouponEvent;

  0006f	5f		 pop	 edi
  00070	8b c3		 mov	 eax, ebx
  00072	5b		 pop	 ebx
  00073	5e		 pop	 esi

; 485  : }

  00074	8b e5		 mov	 esp, ebp
  00076	5d		 pop	 ebp
  00077	c2 04 00	 ret	 4
?GetCouponEvent@CEventLua@@QAEKH@Z ENDP			; CEventLua::GetCouponEvent
_TEXT	ENDS
; Function compile flags: /Ogtp
; File C:\IAGOS\server\v18\Source\Source\_Common\EventLua.cpp
; File C:\IAGOS\server\v18\Source\Source\_Common\LuaBase.h
; File C:\IAGOS\server\v18\Source\Source\_Common\EventLua.cpp
; File C:\IAGOS\server\v18\Source\Source\_Common\LuaBase.h
; File C:\IAGOS\server\v18\Source\Source\_Common\EventLua.cpp
;	COMDAT ?GetShopSellFactor@CEventLua@@QAEMH@Z
_TEXT	SEGMENT
_fFactor$ = -4						; size = 4
_bProxy$ = 8						; size = 4
?GetShopSellFactor@CEventLua@@QAEMH@Z PROC		; CEventLua::GetShopSellFactor, COMDAT
; _this$ = ecx

; 1039 : {

  00000	55		 push	 ebp
  00001	8b ec		 mov	 ebp, esp
  00003	51		 push	 ecx
  00004	56		 push	 esi
  00005	8b f1		 mov	 esi, ecx

; 1040 : 	float fFactor = 1.0f;

  00007	c7 45 fc 00 00
	80 3f		 mov	 DWORD PTR _fFactor$[ebp], 1065353216 ; 3f800000H

; 1041 : 
; 1042 : 	if( !IsPossible() )

  0000e	83 7e 04 00	 cmp	 DWORD PTR [esi+4], 0
  00012	75 09		 jne	 SHORT $LN2@GetShopSel

; 1043 : 		return fFactor;

  00014	d9 e8		 fld1
  00016	5e		 pop	 esi

; 1059 : }

  00017	8b e5		 mov	 esp, ebp
  00019	5d		 pop	 ebp
  0001a	c2 04 00	 ret	 4
$LN2@GetShopSel:

; 1044 : 
; 1045 : #if __VER >= 12 // __EVENTLUA_0826
; 1046 : 	if( bProxy )

  0001d	83 7d 08 00	 cmp	 DWORD PTR _bProxy$[ebp], 0
  00021	74 0a		 je	 SHORT $LN3@GetShopSel

; 1047 : 		return m_proxy.GetShopSellFactor();

  00023	d9 46 4c	 fld	 DWORD PTR [esi+76]
  00026	5e		 pop	 esi

; 1059 : }

  00027	8b e5		 mov	 esp, ebp
  00029	5d		 pop	 ebp
  0002a	c2 04 00	 ret	 4
$LN3@GetShopSel:
  0002d	57		 push	 edi

; 1048 : #endif	// __EVENTLUA_0826
; 1049 : 
; 1050 : 	if( m_Lua.GetLuaFunction( "GetShopSellFactor" ) )

  0002e	68 00 00 00 00	 push	 OFFSET ??_C@_0BC@JENBNLH@GetShopSellFactor@
  00033	8d 4e 08	 lea	 ecx, DWORD PTR [esi+8]
  00036	e8 00 00 00 00	 call	 ?GetLuaFunction@CLuaBase@@QAEHPAD@Z ; CLuaBase::GetLuaFunction
  0003b	85 c0		 test	 eax, eax
  0003d	74 1e		 je	 SHORT $LN4@GetShopSel

; 1051 : 	{
; 1052 : 		m_Lua.CallLuaFunction( 0, 1 );

  0003f	6a 01		 push	 1
  00041	6a 00		 push	 0
  00043	8d 4e 08	 lea	 ecx, DWORD PTR [esi+8]
  00046	e8 00 00 00 00	 call	 ?CallLuaFunction@CLuaBase@@QAEXHH@Z ; CLuaBase::CallLuaFunction
; File C:\IAGOS\server\v18\Source\Source\_Common\LuaBase.h

; 43   : 	double		ToNumber( int nStackPos )					{  return lua_tonumber( m_pLuaState, nStackPos );  }

  0004b	6a 00		 push	 0
  0004d	6a ff		 push	 -1
  0004f	ff 76 0c	 push	 DWORD PTR [esi+12]
  00052	e8 00 00 00 00	 call	 _lua_tonumberx
; File C:\IAGOS\server\v18\Source\Source\_Common\EventLua.cpp

; 1054 : 		fFactor = (float)m_Lua.ToNumber( -1 );

  00057	d9 5d fc	 fstp	 DWORD PTR _fFactor$[ebp]
; File C:\IAGOS\server\v18\Source\Source\_Common\LuaBase.h

; 43   : 	double		ToNumber( int nStackPos )					{  return lua_tonumber( m_pLuaState, nStackPos );  }

  0005a	83 c4 0c	 add	 esp, 12			; 0000000cH
$LN4@GetShopSel:
; File C:\IAGOS\server\v18\Source\Source\_Common\EventLua.cpp

; 1056 : 	m_Lua.Pop(0);

  0005d	6a 00		 push	 0
  0005f	8d 4e 08	 lea	 ecx, DWORD PTR [esi+8]
  00062	e8 00 00 00 00	 call	 ?Pop@CLuaBase@@QAEXH@Z	; CLuaBase::Pop

; 1057 : 
; 1058 : 	return fFactor;

  00067	d9 45 fc	 fld	 DWORD PTR _fFactor$[ebp]
  0006a	5f		 pop	 edi
  0006b	5e		 pop	 esi

; 1059 : }

  0006c	8b e5		 mov	 esp, ebp
  0006e	5d		 pop	 ebp
  0006f	c2 04 00	 ret	 4
?GetShopSellFactor@CEventLua@@QAEMH@Z ENDP		; CEventLua::GetShopSellFactor
_TEXT	ENDS
; Function compile flags: /Ogtp
; File C:\IAGOS\server\v18\Source\Source\_Common\EventLua.cpp
; File C:\IAGOS\server\v18\Source\Source\_Common\LuaBase.h
; File C:\IAGOS\server\v18\Source\Source\_Common\EventLua.cpp
; File C:\IAGOS\server\v18\Source\Source\_Common\LuaBase.h
; File C:\IAGOS\server\v18\Source\Source\_Common\EventLua.cpp
;	COMDAT ?GetShopBuyFactor@CEventLua@@QAEMH@Z
_TEXT	SEGMENT
_fFactor$ = -4						; size = 4
_bProxy$ = 8						; size = 4
?GetShopBuyFactor@CEventLua@@QAEMH@Z PROC		; CEventLua::GetShopBuyFactor, COMDAT
; _this$ = ecx

; 1016 : {

  00000	55		 push	 ebp
  00001	8b ec		 mov	 ebp, esp
  00003	51		 push	 ecx
  00004	56		 push	 esi
  00005	8b f1		 mov	 esi, ecx

; 1017 : 	float fFactor = 1.0f;

  00007	c7 45 fc 00 00
	80 3f		 mov	 DWORD PTR _fFactor$[ebp], 1065353216 ; 3f800000H

; 1018 : 
; 1019 : 	if( !IsPossible() )

  0000e	83 7e 04 00	 cmp	 DWORD PTR [esi+4], 0
  00012	75 09		 jne	 SHORT $LN2@GetShopBuy

; 1020 : 		return fFactor;

  00014	d9 e8		 fld1
  00016	5e		 pop	 esi

; 1036 : }

  00017	8b e5		 mov	 esp, ebp
  00019	5d		 pop	 ebp
  0001a	c2 04 00	 ret	 4
$LN2@GetShopBuy:

; 1021 : 
; 1022 : #if __VER >= 12 // __EVENTLUA_0826
; 1023 : 	if( bProxy )

  0001d	83 7d 08 00	 cmp	 DWORD PTR _bProxy$[ebp], 0
  00021	74 0a		 je	 SHORT $LN3@GetShopBuy

; 1024 : 		return m_proxy.GetShopBuyFactor();

  00023	d9 46 48	 fld	 DWORD PTR [esi+72]
  00026	5e		 pop	 esi

; 1036 : }

  00027	8b e5		 mov	 esp, ebp
  00029	5d		 pop	 ebp
  0002a	c2 04 00	 ret	 4
$LN3@GetShopBuy:
  0002d	57		 push	 edi

; 1025 : #endif	// __EVENTLUA_0826
; 1026 : 
; 1027 : 	if( m_Lua.GetLuaFunction( "GetShopBuyFactor" ) )

  0002e	68 00 00 00 00	 push	 OFFSET ??_C@_0BB@DMNIFEGD@GetShopBuyFactor@
  00033	8d 4e 08	 lea	 ecx, DWORD PTR [esi+8]
  00036	e8 00 00 00 00	 call	 ?GetLuaFunction@CLuaBase@@QAEHPAD@Z ; CLuaBase::GetLuaFunction
  0003b	85 c0		 test	 eax, eax
  0003d	74 1e		 je	 SHORT $LN4@GetShopBuy

; 1028 : 	{
; 1029 : 		m_Lua.CallLuaFunction( 0, 1 );

  0003f	6a 01		 push	 1
  00041	6a 00		 push	 0
  00043	8d 4e 08	 lea	 ecx, DWORD PTR [esi+8]
  00046	e8 00 00 00 00	 call	 ?CallLuaFunction@CLuaBase@@QAEXHH@Z ; CLuaBase::CallLuaFunction
; File C:\IAGOS\server\v18\Source\Source\_Common\LuaBase.h

; 43   : 	double		ToNumber( int nStackPos )					{  return lua_tonumber( m_pLuaState, nStackPos );  }

  0004b	6a 00		 push	 0
  0004d	6a ff		 push	 -1
  0004f	ff 76 0c	 push	 DWORD PTR [esi+12]
  00052	e8 00 00 00 00	 call	 _lua_tonumberx
; File C:\IAGOS\server\v18\Source\Source\_Common\EventLua.cpp

; 1031 : 		fFactor = (float)m_Lua.ToNumber( -1 );

  00057	d9 5d fc	 fstp	 DWORD PTR _fFactor$[ebp]
; File C:\IAGOS\server\v18\Source\Source\_Common\LuaBase.h

; 43   : 	double		ToNumber( int nStackPos )					{  return lua_tonumber( m_pLuaState, nStackPos );  }

  0005a	83 c4 0c	 add	 esp, 12			; 0000000cH
$LN4@GetShopBuy:
; File C:\IAGOS\server\v18\Source\Source\_Common\EventLua.cpp

; 1033 : 	m_Lua.Pop(0);

  0005d	6a 00		 push	 0
  0005f	8d 4e 08	 lea	 ecx, DWORD PTR [esi+8]
  00062	e8 00 00 00 00	 call	 ?Pop@CLuaBase@@QAEXH@Z	; CLuaBase::Pop

; 1034 : 
; 1035 : 	return fFactor;

  00067	d9 45 fc	 fld	 DWORD PTR _fFactor$[ebp]
  0006a	5f		 pop	 edi
  0006b	5e		 pop	 esi

; 1036 : }

  0006c	8b e5		 mov	 esp, ebp
  0006e	5d		 pop	 ebp
  0006f	c2 04 00	 ret	 4
?GetShopBuyFactor@CEventLua@@QAEMH@Z ENDP		; CEventLua::GetShopBuyFactor
_TEXT	ENDS
; Function compile flags: /Ogtp
; File C:\IAGOS\server\v18\Source\Source\_Common\EventLua.cpp
; File C:\IAGOS\server\v18\Source\Source\_Common\LuaBase.h
; File C:\IAGOS\server\v18\Source\Source\_Common\EventLua.cpp
; File C:\IAGOS\server\v18\Source\Source\_Common\LuaBase.h
; File C:\IAGOS\server\v18\Source\Source\_Common\EventLua.cpp
;	COMDAT ?GetWeatherEventTitle@CEventLua@@QAE?AV?$basic_string@DU?$char_traits@D@std@@V?$allocator@D@2@@std@@XZ
_TEXT	SEGMENT
$T2 = -16						; size = 4
__$EHRec$ = -12						; size = 12
___$ReturnUdt$ = 8					; size = 4
?GetWeatherEventTitle@CEventLua@@QAE?AV?$basic_string@DU?$char_traits@D@std@@V?$allocator@D@2@@std@@XZ PROC ; CEventLua::GetWeatherEventTitle, COMDAT
; _this$ = ecx

; 901  : {

  00000	55		 push	 ebp
  00001	8b ec		 mov	 ebp, esp
  00003	6a ff		 push	 -1
  00005	68 00 00 00 00	 push	 __ehhandler$?GetWeatherEventTitle@CEventLua@@QAE?AV?$basic_string@DU?$char_traits@D@std@@V?$allocator@D@2@@std@@XZ
  0000a	64 a1 00 00 00
	00		 mov	 eax, DWORD PTR fs:0
  00010	50		 push	 eax
  00011	51		 push	 ecx
  00012	53		 push	 ebx
  00013	56		 push	 esi
  00014	57		 push	 edi
  00015	a1 00 00 00 00	 mov	 eax, DWORD PTR ___security_cookie
  0001a	33 c5		 xor	 eax, ebp
  0001c	50		 push	 eax
  0001d	8d 45 f4	 lea	 eax, DWORD PTR __$EHRec$[ebp]
  00020	64 a3 00 00 00
	00		 mov	 DWORD PTR fs:0, eax
  00026	8b f9		 mov	 edi, ecx
  00028	c7 45 f0 01 00
	00 00		 mov	 DWORD PTR $T2[ebp], 1

; 902  : 	string strTitle("");

  0002f	8b 75 08	 mov	 esi, DWORD PTR ___$ReturnUdt$[ebp]
  00032	8b ce		 mov	 ecx, esi
  00034	68 00 00 00 00	 push	 OFFSET ??_C@_00CNPNBAHC@@
  00039	e8 00 00 00 00	 call	 ??0?$basic_string@DU?$char_traits@D@std@@V?$allocator@D@2@@std@@QAE@QBD@Z ; std::basic_string<char,std::char_traits<char>,std::allocator<char> >::basic_string<char,std::char_traits<char>,std::allocator<char> >

; 903  : 
; 904  : 	if( !IsPossible() )

  0003e	83 7f 04 00	 cmp	 DWORD PTR [edi+4], 0
  00042	c7 45 fc 00 00
	00 00		 mov	 DWORD PTR __$EHRec$[ebp+8], 0
  00049	c7 45 f0 01 00
	00 00		 mov	 DWORD PTR $T2[ebp], 1
  00050	74 4f		 je	 SHORT $LN15@GetWeather

; 905  : 		return strTitle;
; 906  : 
; 907  : 	if( m_Lua.GetLuaFunction( "GetWeatherEventTitle" ) )

  00052	68 00 00 00 00	 push	 OFFSET ??_C@_0BF@BCGDKDON@GetWeatherEventTitle@
  00057	8d 4f 08	 lea	 ecx, DWORD PTR [edi+8]
  0005a	e8 00 00 00 00	 call	 ?GetLuaFunction@CLuaBase@@QAEHPAD@Z ; CLuaBase::GetLuaFunction
  0005f	85 c0		 test	 eax, eax
  00061	74 34		 je	 SHORT $LN3@GetWeather

; 908  : 	{
; 909  : 		m_Lua.CallLuaFunction( 0, 1 );

  00063	6a 01		 push	 1
  00065	6a 00		 push	 0
  00067	8d 4f 08	 lea	 ecx, DWORD PTR [edi+8]
  0006a	e8 00 00 00 00	 call	 ?CallLuaFunction@CLuaBase@@QAEXHH@Z ; CLuaBase::CallLuaFunction
; File C:\IAGOS\server\v18\Source\Source\_Common\LuaBase.h

; 33   : 	BOOL		IsNil( int nStackPos )						{  return lua_isnil( m_pLuaState, nStackPos );  }

  0006f	6a ff		 push	 -1
  00071	ff 77 0c	 push	 DWORD PTR [edi+12]
  00074	e8 00 00 00 00	 call	 _lua_type
  00079	83 c4 08	 add	 esp, 8
  0007c	85 c0		 test	 eax, eax
; File C:\IAGOS\server\v18\Source\Source\_Common\EventLua.cpp

; 911  : 		if( m_Lua.IsNil( -1 ) )

  0007e	74 21		 je	 SHORT $LN15@GetWeather
; File C:\IAGOS\server\v18\Source\Source\_Common\LuaBase.h

; 44   : 	const char*	ToString( int nStackPos )					{  return lua_tostring( m_pLuaState, nStackPos );  }

  00080	6a 00		 push	 0
  00082	6a ff		 push	 -1
  00084	ff 77 0c	 push	 DWORD PTR [edi+12]
  00087	e8 00 00 00 00	 call	 _lua_tolstring
  0008c	83 c4 0c	 add	 esp, 12			; 0000000cH
; File C:\IAGOS\server\v18\Source\Source\_Common\EventLua.cpp

; 913  : 		strTitle = m_Lua.ToString( -1 );

  0008f	8b ce		 mov	 ecx, esi
  00091	50		 push	 eax
  00092	e8 00 00 00 00	 call	 ??4?$basic_string@DU?$char_traits@D@std@@V?$allocator@D@2@@std@@QAEAAV01@QBD@Z ; std::basic_string<char,std::char_traits<char>,std::allocator<char> >::operator=
$LN3@GetWeather:

; 914  : 	}
; 915  : 	m_Lua.Pop( 0 );

  00097	6a 00		 push	 0
  00099	8d 4f 08	 lea	 ecx, DWORD PTR [edi+8]
  0009c	e8 00 00 00 00	 call	 ?Pop@CLuaBase@@QAEXH@Z	; CLuaBase::Pop
$LN15@GetWeather:

; 916  : 
; 917  : 	return strTitle;
; 918  : }

  000a1	8b c6		 mov	 eax, esi
  000a3	8b 4d f4	 mov	 ecx, DWORD PTR __$EHRec$[ebp]
  000a6	64 89 0d 00 00
	00 00		 mov	 DWORD PTR fs:0, ecx
  000ad	59		 pop	 ecx
  000ae	5f		 pop	 edi
  000af	5e		 pop	 esi
  000b0	5b		 pop	 ebx
  000b1	8b e5		 mov	 esp, ebp
  000b3	5d		 pop	 ebp
  000b4	c2 04 00	 ret	 4
_TEXT	ENDS
;	COMDAT text$x
text$x	SEGMENT
__unwindfunclet$?GetWeatherEventTitle@CEventLua@@QAE?AV?$basic_string@DU?$char_traits@D@std@@V?$allocator@D@2@@std@@XZ$0:
  00000	8b 45 f0	 mov	 eax, DWORD PTR $T2[ebp]
  00003	83 e0 01	 and	 eax, 1
  00006	0f 84 0c 00 00
	00		 je	 $LN7@GetWeather
  0000c	83 65 f0 fe	 and	 DWORD PTR $T2[ebp], -2	; fffffffeH
  00010	8b 4d 08	 mov	 ecx, DWORD PTR ___$ReturnUdt$[ebp]
  00013	e9 00 00 00 00	 jmp	 ??1?$basic_string@DU?$char_traits@D@std@@V?$allocator@D@2@@std@@QAE@XZ ; std::basic_string<char,std::char_traits<char>,std::allocator<char> >::~basic_string<char,std::char_traits<char>,std::allocator<char> >
$LN7@GetWeather:
  00018	c3		 ret	 0
  00019	cc		 int	 3
  0001a	cc		 int	 3
  0001b	cc		 int	 3
  0001c	cc		 int	 3
  0001d	cc		 int	 3
__ehhandler$?GetWeatherEventTitle@CEventLua@@QAE?AV?$basic_string@DU?$char_traits@D@std@@V?$allocator@D@2@@std@@XZ:
  0001e	90		 npad	 1
  0001f	90		 npad	 1
  00020	8b 54 24 08	 mov	 edx, DWORD PTR [esp+8]
  00024	8d 42 0c	 lea	 eax, DWORD PTR [edx+12]
  00027	8b 4a ec	 mov	 ecx, DWORD PTR [edx-20]
  0002a	33 c8		 xor	 ecx, eax
  0002c	e8 00 00 00 00	 call	 @__security_check_cookie@4
  00031	b8 00 00 00 00	 mov	 eax, OFFSET __ehfuncinfo$?GetWeatherEventTitle@CEventLua@@QAE?AV?$basic_string@DU?$char_traits@D@std@@V?$allocator@D@2@@std@@XZ
  00036	e9 00 00 00 00	 jmp	 ___CxxFrameHandler3
text$x	ENDS
?GetWeatherEventTitle@CEventLua@@QAE?AV?$basic_string@DU?$char_traits@D@std@@V?$allocator@D@2@@std@@XZ ENDP ; CEventLua::GetWeatherEventTitle
; Function compile flags: /Ogtp
; File C:\IAGOS\server\v18\Source\Source\_Common\EventLua.cpp
; File C:\IAGOS\server\v18\Source\Source\_Common\LuaBase.h
; File C:\IAGOS\server\v18\Source\Source\_Common\EventLua.cpp
; File C:\IAGOS\server\v18\Source\Source\_Common\LuaBase.h
; File C:\IAGOS\server\v18\Source\Source\_Common\EventLua.cpp
;	COMDAT ?GetWeatherEventExpFactor@CEventLua@@QAEMH@Z
_TEXT	SEGMENT
_fFactor$ = -4						; size = 4
_bProxy$ = 8						; size = 4
?GetWeatherEventExpFactor@CEventLua@@QAEMH@Z PROC	; CEventLua::GetWeatherEventExpFactor, COMDAT
; _this$ = ecx

; 878  : {

  00000	55		 push	 ebp
  00001	8b ec		 mov	 ebp, esp
  00003	51		 push	 ecx
  00004	56		 push	 esi
  00005	8b f1		 mov	 esi, ecx

; 879  : 	float fFactor = 1.0f;

  00007	c7 45 fc 00 00
	80 3f		 mov	 DWORD PTR _fFactor$[ebp], 1065353216 ; 3f800000H

; 880  : 
; 881  : 	if( !IsPossible() )

  0000e	83 7e 04 00	 cmp	 DWORD PTR [esi+4], 0
  00012	75 09		 jne	 SHORT $LN2@GetWeather

; 882  : 		return fFactor;

  00014	d9 e8		 fld1
  00016	5e		 pop	 esi

; 898  : }

  00017	8b e5		 mov	 esp, ebp
  00019	5d		 pop	 ebp
  0001a	c2 04 00	 ret	 4
$LN2@GetWeather:

; 883  : 
; 884  : #if __VER >= 12 // __EVENTLUA_0826
; 885  : 	if( bProxy )

  0001d	83 7d 08 00	 cmp	 DWORD PTR _bProxy$[ebp], 0
  00021	74 0a		 je	 SHORT $LN3@GetWeather

; 886  : 		return m_proxy.GetWeatherEventExpFactor();

  00023	d9 46 44	 fld	 DWORD PTR [esi+68]
  00026	5e		 pop	 esi

; 898  : }

  00027	8b e5		 mov	 esp, ebp
  00029	5d		 pop	 ebp
  0002a	c2 04 00	 ret	 4
$LN3@GetWeather:
  0002d	57		 push	 edi

; 887  : #endif	// __EVENTLUA_0826
; 888  : 
; 889  : 	if( m_Lua.GetLuaFunction( "GetWeatherEventExpFactor" ) )

  0002e	68 00 00 00 00	 push	 OFFSET ??_C@_0BJ@CBMOAIBF@GetWeatherEventExpFactor@
  00033	8d 4e 08	 lea	 ecx, DWORD PTR [esi+8]
  00036	e8 00 00 00 00	 call	 ?GetLuaFunction@CLuaBase@@QAEHPAD@Z ; CLuaBase::GetLuaFunction
  0003b	85 c0		 test	 eax, eax
  0003d	74 1e		 je	 SHORT $LN4@GetWeather

; 890  : 	{
; 891  : 		m_Lua.CallLuaFunction( 0, 1 );

  0003f	6a 01		 push	 1
  00041	6a 00		 push	 0
  00043	8d 4e 08	 lea	 ecx, DWORD PTR [esi+8]
  00046	e8 00 00 00 00	 call	 ?CallLuaFunction@CLuaBase@@QAEXHH@Z ; CLuaBase::CallLuaFunction
; File C:\IAGOS\server\v18\Source\Source\_Common\LuaBase.h

; 43   : 	double		ToNumber( int nStackPos )					{  return lua_tonumber( m_pLuaState, nStackPos );  }

  0004b	6a 00		 push	 0
  0004d	6a ff		 push	 -1
  0004f	ff 76 0c	 push	 DWORD PTR [esi+12]
  00052	e8 00 00 00 00	 call	 _lua_tonumberx
; File C:\IAGOS\server\v18\Source\Source\_Common\EventLua.cpp

; 893  : 		fFactor = (float)m_Lua.ToNumber( -1 );

  00057	d9 5d fc	 fstp	 DWORD PTR _fFactor$[ebp]
; File C:\IAGOS\server\v18\Source\Source\_Common\LuaBase.h

; 43   : 	double		ToNumber( int nStackPos )					{  return lua_tonumber( m_pLuaState, nStackPos );  }

  0005a	83 c4 0c	 add	 esp, 12			; 0000000cH
$LN4@GetWeather:
; File C:\IAGOS\server\v18\Source\Source\_Common\EventLua.cpp

; 895  : 	m_Lua.Pop(0);

  0005d	6a 00		 push	 0
  0005f	8d 4e 08	 lea	 ecx, DWORD PTR [esi+8]
  00062	e8 00 00 00 00	 call	 ?Pop@CLuaBase@@QAEXH@Z	; CLuaBase::Pop

; 896  : 
; 897  : 	return fFactor;

  00067	d9 45 fc	 fld	 DWORD PTR _fFactor$[ebp]
  0006a	5f		 pop	 edi
  0006b	5e		 pop	 esi

; 898  : }

  0006c	8b e5		 mov	 esp, ebp
  0006e	5d		 pop	 ebp
  0006f	c2 04 00	 ret	 4
?GetWeatherEventExpFactor@CEventLua@@QAEMH@Z ENDP	; CEventLua::GetWeatherEventExpFactor
_TEXT	ENDS
; Function compile flags: /Ogtp
; File C:\IAGOS\server\v18\Source\Source\_Common\EventLua.cpp
; File C:\IAGOS\server\v18\Source\Source\_Common\LuaBase.h
; File C:\IAGOS\server\v18\Source\Source\_Common\EventLua.cpp
; File C:\IAGOS\server\v18\Source\Source\_Common\LuaBase.h
; File C:\IAGOS\server\v18\Source\Source\_Common\EventLua.cpp
;	COMDAT ?GetCheerExpFactor@CEventLua@@QAEMH@Z
_TEXT	SEGMENT
_fFactor$ = -4						; size = 4
_bProxy$ = 8						; size = 4
?GetCheerExpFactor@CEventLua@@QAEMH@Z PROC		; CEventLua::GetCheerExpFactor, COMDAT
; _this$ = ecx

; 578  : {

  00000	55		 push	 ebp
  00001	8b ec		 mov	 ebp, esp
  00003	51		 push	 ecx
  00004	56		 push	 esi
  00005	8b f1		 mov	 esi, ecx

; 579  : 	float fFactor = 1;

  00007	c7 45 fc 00 00
	80 3f		 mov	 DWORD PTR _fFactor$[ebp], 1065353216 ; 3f800000H

; 580  : 
; 581  : 	if( !IsPossible() )

  0000e	83 7e 04 00	 cmp	 DWORD PTR [esi+4], 0
  00012	75 09		 jne	 SHORT $LN2@GetCheerEx

; 582  : 		return fFactor;

  00014	d9 e8		 fld1
  00016	5e		 pop	 esi

; 598  : }

  00017	8b e5		 mov	 esp, ebp
  00019	5d		 pop	 ebp
  0001a	c2 04 00	 ret	 4
$LN2@GetCheerEx:

; 583  : 
; 584  : #if __VER >= 12 // __EVENTLUA_0826
; 585  : 	if( bProxy )

  0001d	83 7d 08 00	 cmp	 DWORD PTR _bProxy$[ebp], 0
  00021	74 0a		 je	 SHORT $LN3@GetCheerEx

; 586  : 		return m_proxy.GetCheerExpFactor();

  00023	d9 46 3c	 fld	 DWORD PTR [esi+60]
  00026	5e		 pop	 esi

; 598  : }

  00027	8b e5		 mov	 esp, ebp
  00029	5d		 pop	 ebp
  0002a	c2 04 00	 ret	 4
$LN3@GetCheerEx:
  0002d	57		 push	 edi

; 587  : #endif	// __EVENTLUA_0826
; 588  : 
; 589  : 	if( m_Lua.GetLuaFunction( "GetCheerExpFactor" ) )

  0002e	68 00 00 00 00	 push	 OFFSET ??_C@_0BC@DBLMBKOM@GetCheerExpFactor@
  00033	8d 4e 08	 lea	 ecx, DWORD PTR [esi+8]
  00036	e8 00 00 00 00	 call	 ?GetLuaFunction@CLuaBase@@QAEHPAD@Z ; CLuaBase::GetLuaFunction
  0003b	85 c0		 test	 eax, eax
  0003d	74 1e		 je	 SHORT $LN4@GetCheerEx

; 590  : 	{
; 591  : 		m_Lua.CallLuaFunction( 0, 1 );

  0003f	6a 01		 push	 1
  00041	6a 00		 push	 0
  00043	8d 4e 08	 lea	 ecx, DWORD PTR [esi+8]
  00046	e8 00 00 00 00	 call	 ?CallLuaFunction@CLuaBase@@QAEXHH@Z ; CLuaBase::CallLuaFunction
; File C:\IAGOS\server\v18\Source\Source\_Common\LuaBase.h

; 43   : 	double		ToNumber( int nStackPos )					{  return lua_tonumber( m_pLuaState, nStackPos );  }

  0004b	6a 00		 push	 0
  0004d	6a ff		 push	 -1
  0004f	ff 76 0c	 push	 DWORD PTR [esi+12]
  00052	e8 00 00 00 00	 call	 _lua_tonumberx
; File C:\IAGOS\server\v18\Source\Source\_Common\EventLua.cpp

; 593  : 		fFactor = (float)m_Lua.ToNumber( -1 );

  00057	d9 5d fc	 fstp	 DWORD PTR _fFactor$[ebp]
; File C:\IAGOS\server\v18\Source\Source\_Common\LuaBase.h

; 43   : 	double		ToNumber( int nStackPos )					{  return lua_tonumber( m_pLuaState, nStackPos );  }

  0005a	83 c4 0c	 add	 esp, 12			; 0000000cH
$LN4@GetCheerEx:
; File C:\IAGOS\server\v18\Source\Source\_Common\EventLua.cpp

; 595  : 	m_Lua.Pop(0);

  0005d	6a 00		 push	 0
  0005f	8d 4e 08	 lea	 ecx, DWORD PTR [esi+8]
  00062	e8 00 00 00 00	 call	 ?Pop@CLuaBase@@QAEXH@Z	; CLuaBase::Pop

; 596  : 
; 597  : 	return fFactor;

  00067	d9 45 fc	 fld	 DWORD PTR _fFactor$[ebp]
  0006a	5f		 pop	 edi
  0006b	5e		 pop	 esi

; 598  : }

  0006c	8b e5		 mov	 esp, ebp
  0006e	5d		 pop	 ebp
  0006f	c2 04 00	 ret	 4
?GetCheerExpFactor@CEventLua@@QAEMH@Z ENDP		; CEventLua::GetCheerExpFactor
_TEXT	ENDS
; Function compile flags: /Ogtp
; File C:\IAGOS\server\v18\Source\Source\_Common\EventLua.cpp
; File C:\IAGOS\server\v18\Source\Source\_Common\LuaBase.h
; File C:\IAGOS\server\v18\Source\Source\_Common\EventLua.cpp
; File C:\IAGOS\server\v18\Source\Source\_Common\LuaBase.h
; File C:\IAGOS\server\v18\Source\Source\_Common\EventLua.cpp
; File C:\IAGOS\server\v18\Source\Source\_Common\LuaBase.h
; File C:\IAGOS\server\v18\Source\Source\_Common\EventLua.cpp
; File C:\IAGOS\server\v18\Source\Source\_Common\LuaBase.h
; File C:\IAGOS\server\v18\Source\Source\_Common\EventLua.cpp
; File C:\IAGOS\server\v18\Source\Source\_Common\LuaBase.h
; File C:\IAGOS\server\v18\Source\Source\_Common\EventLua.cpp
; File C:\Program Files\Microsoft Visual Studio\2022\Professional\VC\Tools\MSVC\14.44.35207\atlmfc\include\afxstr.h
; File C:\Program Files\Microsoft Visual Studio\2022\Professional\VC\Tools\MSVC\14.44.35207\atlmfc\include\atlsimpstr.h
; File C:\Program Files\Microsoft Visual Studio\2022\Professional\VC\Tools\MSVC\14.44.35207\atlmfc\include\cstringt.h
; File C:\Program Files\Microsoft Visual Studio\2022\Professional\VC\Tools\MSVC\14.44.35207\atlmfc\include\atlsimpstr.h
; File C:\IAGOS\server\v18\Source\Source\_Common\EventLua.cpp
; File C:\Program Files\Microsoft Visual Studio\2022\Professional\VC\Tools\MSVC\14.44.35207\atlmfc\include\atlsimpstr.h
; File C:\IAGOS\server\v18\Source\Source\_Common\LuaBase.h
; File C:\IAGOS\server\v18\Source\Source\_Common\EventLua.cpp
; File C:\Program Files\Microsoft Visual Studio\2022\Professional\VC\Tools\MSVC\14.44.35207\atlmfc\include\atlsimpstr.h
; File C:\IAGOS\server\v18\Source\Source\_Common\EventLua.cpp
;	COMDAT ?GetEventInfo@CEventLua@@QAEXPAVCUser@@H@Z
_TEXT	SEGMENT
__$EHRec$ = -12						; size = 12
_pUser$ = 8						; size = 4
_nId$ = 12						; size = 4
_strTemp$2 = 12						; size = 4
?GetEventInfo@CEventLua@@QAEXPAVCUser@@H@Z PROC		; CEventLua::GetEventInfo, COMDAT
; _this$ = ecx

; 398  : {

  00000	55		 push	 ebp
  00001	8b ec		 mov	 ebp, esp
  00003	6a ff		 push	 -1
  00005	68 00 00 00 00	 push	 __ehhandler$?GetEventInfo@CEventLua@@QAEXPAVCUser@@H@Z
  0000a	64 a1 00 00 00
	00		 mov	 eax, DWORD PTR fs:0
  00010	50		 push	 eax
  00011	53		 push	 ebx
  00012	56		 push	 esi
  00013	57		 push	 edi
  00014	a1 00 00 00 00	 mov	 eax, DWORD PTR ___security_cookie
  00019	33 c5		 xor	 eax, ebp
  0001b	50		 push	 eax
  0001c	8d 45 f4	 lea	 eax, DWORD PTR __$EHRec$[ebp]
  0001f	64 a3 00 00 00
	00		 mov	 DWORD PTR fs:0, eax
  00025	8b f9		 mov	 edi, ecx

; 399  : 	if( !IsPossible() )

  00027	83 7f 04 00	 cmp	 DWORD PTR [edi+4], 0
  0002b	0f 84 32 01 00
	00		 je	 $LN1@GetEventIn

; 400  : 		return;
; 401  : 
; 402  : 	if( m_Lua.GetLuaFunction( "GetEventInfo" ) )

  00031	68 00 00 00 00	 push	 OFFSET ??_C@_0N@MGEBMOBO@GetEventInfo@
  00036	8d 4f 08	 lea	 ecx, DWORD PTR [edi+8]
  00039	e8 00 00 00 00	 call	 ?GetLuaFunction@CLuaBase@@QAEHPAD@Z ; CLuaBase::GetLuaFunction
  0003e	85 c0		 test	 eax, eax
  00040	0f 84 13 01 00
	00		 je	 $LN3@GetEventIn
  00046	66 0f 6e 45 0c	 movd	 xmm0, DWORD PTR _nId$[ebp]
; File C:\IAGOS\server\v18\Source\Source\_Common\LuaBase.h

; 36   : 	void		PushNumber( double nValue )					{  lua_pushnumber( m_pLuaState, nValue );  }

  0004b	83 ec 08	 sub	 esp, 8
; File C:\IAGOS\server\v18\Source\Source\_Common\EventLua.cpp

; 404  : 		m_Lua.PushNumber( nId );

  0004e	f3 0f e6 c0	 cvtdq2pd xmm0, xmm0
; File C:\IAGOS\server\v18\Source\Source\_Common\LuaBase.h

; 36   : 	void		PushNumber( double nValue )					{  lua_pushnumber( m_pLuaState, nValue );  }

  00052	f2 0f 11 04 24	 movsd	 QWORD PTR [esp], xmm0
  00057	ff 77 0c	 push	 DWORD PTR [edi+12]
  0005a	e8 00 00 00 00	 call	 _lua_pushnumber
  0005f	83 c4 0c	 add	 esp, 12			; 0000000cH
; File C:\IAGOS\server\v18\Source\Source\_Common\EventLua.cpp

; 405  : 		m_Lua.CallLuaFunction( 1, 1 );

  00062	8d 4f 08	 lea	 ecx, DWORD PTR [edi+8]
  00065	6a 01		 push	 1
  00067	6a 01		 push	 1
  00069	e8 00 00 00 00	 call	 ?CallLuaFunction@CLuaBase@@QAEXHH@Z ; CLuaBase::CallLuaFunction
; File C:\IAGOS\server\v18\Source\Source\_Common\LuaBase.h

; 33   : 	BOOL		IsNil( int nStackPos )						{  return lua_isnil( m_pLuaState, nStackPos );  }

  0006e	6a ff		 push	 -1
  00070	ff 77 0c	 push	 DWORD PTR [edi+12]
  00073	e8 00 00 00 00	 call	 _lua_type
  00078	83 c4 08	 add	 esp, 8
  0007b	85 c0		 test	 eax, eax
; File C:\IAGOS\server\v18\Source\Source\_Common\EventLua.cpp

; 406  : 		if( m_Lua.IsNil( -1 ) )

  0007d	0f 84 d6 00 00
	00		 je	 $LN3@GetEventIn
; File C:\IAGOS\server\v18\Source\Source\_Common\LuaBase.h

; 40   : 	void		PushNil()									{  lua_pushnil( m_pLuaState );  }

  00083	ff 77 0c	 push	 DWORD PTR [edi+12]
  00086	e8 00 00 00 00	 call	 _lua_pushnil

; 46   : 	int			TableLoop( int nStackPos )					{  return lua_next( m_pLuaState, nStackPos );  }	

  0008b	6a fe		 push	 -2			; fffffffeH
  0008d	ff 77 0c	 push	 DWORD PTR [edi+12]
  00090	e8 00 00 00 00	 call	 _lua_next
  00095	83 c4 0c	 add	 esp, 12			; 0000000cH
; File C:\IAGOS\server\v18\Source\Source\_Common\EventLua.cpp

; 413  : 		while( m_Lua.TableLoop(-2) )

  00098	85 c0		 test	 eax, eax
  0009a	0f 84 b9 00 00
	00		 je	 $LN3@GetEventIn
$LL2@GetEventIn:
; File C:\IAGOS\server\v18\Source\Source\_Common\LuaBase.h

; 44   : 	const char*	ToString( int nStackPos )					{  return lua_tostring( m_pLuaState, nStackPos );  }

  000a0	6a 00		 push	 0
  000a2	6a ff		 push	 -1
  000a4	ff 77 0c	 push	 DWORD PTR [edi+12]
  000a7	e8 00 00 00 00	 call	 _lua_tolstring
  000ac	83 c4 0c	 add	 esp, 12			; 0000000cH
; File C:\IAGOS\server\v18\Source\Source\_Common\EventLua.cpp

; 415  : 			CString strTemp = m_Lua.ToString(-1);

  000af	8b f0		 mov	 esi, eax
; File C:\Program Files\Microsoft Visual Studio\2022\Professional\VC\Tools\MSVC\14.44.35207\atlmfc\include\afxstr.h

; 56   : 		return( AfxGetStringManager() );

  000b1	e8 00 00 00 00	 call	 ?AfxGetStringManager@@YGPAUIAtlStringMgr@ATL@@XZ ; AfxGetStringManager
; File C:\Program Files\Microsoft Visual Studio\2022\Professional\VC\Tools\MSVC\14.44.35207\atlmfc\include\atlsimpstr.h

; 209  : 		ATLENSURE( pStringMgr != NULL );

  000b6	85 c0		 test	 eax, eax
  000b8	0f 84 b9 00 00
	00		 je	 $LN59@GetEventIn

; 210  : 		CStringData* pData = pStringMgr->GetNilString();

  000be	8b 10		 mov	 edx, DWORD PTR [eax]
  000c0	8b c8		 mov	 ecx, eax
  000c2	ff 52 0c	 call	 DWORD PTR [edx+12]

; 211  : 		Attach( pData );

  000c5	83 c0 10	 add	 eax, 16			; 00000010H
  000c8	89 45 0c	 mov	 DWORD PTR _strTemp$2[ebp], eax
; File C:\Program Files\Microsoft Visual Studio\2022\Professional\VC\Tools\MSVC\14.44.35207\atlmfc\include\cstringt.h

; 1052 : 		CThisSimpleString( StringTraits::GetDefaultManager() )

  000cb	c7 45 fc 00 00
	00 00		 mov	 DWORD PTR __$EHRec$[ebp+8], 0

; 2712 : 		if( (pv != NULL) && IS_INTRESOURCE( pv ) )

  000d2	85 f6		 test	 esi, esi
  000d4	74 26		 je	 SHORT $LN63@GetEventIn
  000d6	f7 c6 00 00 ff
	ff		 test	 esi, -65536		; ffff0000H
  000dc	75 0e		 jne	 SHORT $LN46@GetEventIn

; 2713 : 		{
; 2714 : 			UINT nID = LOWORD( reinterpret_cast< DWORD_PTR >( pv ) );

  000de	0f b7 c6	 movzx	 eax, si

; 2715 : 			(nID);
; 2716 : #ifdef _ATL_USE_WINAPI_FAMILY_DESKTOP_APP
; 2717 : 			if( !LoadString( nID ) )

  000e1	8d 4d 0c	 lea	 ecx, DWORD PTR _strTemp$2[ebp]
  000e4	50		 push	 eax
  000e5	e8 00 00 00 00	 call	 ?LoadStringA@?$CStringT@DV?$StrTraitMFC@DV?$ChTraitsCRT@D@ATL@@@@@ATL@@QAEHI@Z ; ATL::CStringT<char,StrTraitMFC<char,ATL::ChTraitsCRT<char> > >::LoadStringA

; 1054 : 		if( !CheckImplicitLoad( pszSrc ) )

  000ea	eb 1c		 jmp	 SHORT $LN20@GetEventIn
$LN46@GetEventIn:
; File C:\Program Files\Microsoft Visual Studio\2022\Professional\VC\Tools\MSVC\14.44.35207\atlmfc\include\atlsimpstr.h

; 730  : 		return( int( strlen( psz ) ) );

  000ec	8b ce		 mov	 ecx, esi
  000ee	8d 51 01	 lea	 edx, DWORD PTR [ecx+1]
$LL65@GetEventIn:
  000f1	8a 01		 mov	 al, BYTE PTR [ecx]
  000f3	41		 inc	 ecx
  000f4	84 c0		 test	 al, al
  000f6	75 f9		 jne	 SHORT $LL65@GetEventIn
  000f8	2b ca		 sub	 ecx, edx
  000fa	eb 02		 jmp	 SHORT $LN45@GetEventIn
$LN63@GetEventIn:

; 607  : 	}
; 608  : 	void SetString(
; 609  : 		_In_reads_opt_(nLength) PCXSTR pszSrc,
; 610  : 		_In_ int nLength)
; 611  : 	{
; 612  : 		if( nLength == 0 )
; 613  : 		{
; 614  : 			Empty();
; 615  : 		}
; 616  : 		else
; 617  : 		{
; 618  : 			// It is possible that pszSrc points to a location inside of our
; 619  : 			// buffer.  GetBuffer() might change m_pszData if (1) the buffer
; 620  : 			// is shared or (2) the buffer is too small to hold the new
; 621  : 			// string.  We detect this aliasing, and modify pszSrc to point
; 622  : 			// into the newly allocated buffer instead.
; 623  : 
; 624  : 			if(pszSrc == NULL)
; 625  : 				AtlThrow(E_INVALIDARG);
; 626  : 
; 627  : 			UINT nOldLength = GetLength();
; 628  : 			UINT_PTR nOffset = pszSrc-GetString();
; 629  : 			// If 0 <= nOffset <= nOldLength, then pszSrc points into our
; 630  : 			// buffer
; 631  : 
; 632  : 			PXSTR pszBuffer = GetBuffer( nLength );
; 633  : 			if( nOffset <= nOldLength )
; 634  : 			{
; 635  : 				CopyCharsOverlapped( pszBuffer, GetAllocLength(),
; 636  : 					pszBuffer+nOffset, nLength );
; 637  : 			}
; 638  : 			else
; 639  : 			{
; 640  : 				memcpy_s( pszBuffer, GetAllocLength() * sizeof( XCHAR ), pszSrc, nLength * sizeof( XCHAR ));
; 641  : 			}
; 642  : 			ReleaseBufferSetLength( nLength );
; 643  : 		}
; 644  : 	}
; 645  : 
; 646  : public:
; 647  : 	friend CSimpleStringT operator+(
; 648  : 		_In_ const CSimpleStringT& str1,
; 649  : 		_In_ const CSimpleStringT& str2)
; 650  : 	{
; 651  : 		CSimpleStringT s( str1.GetManager() );
; 652  : 
; 653  : 		Concatenate( s, str1, str1.GetLength(), str2, str2.GetLength() );
; 654  : 
; 655  : 		return( s );
; 656  : 	}
; 657  : 
; 658  : 	friend CSimpleStringT operator+(
; 659  : 		_In_ const CSimpleStringT& str1,
; 660  : 		_In_z_ PCXSTR psz2)
; 661  : 	{
; 662  : 		CSimpleStringT s( str1.GetManager() );
; 663  : 
; 664  : 		Concatenate( s, str1, str1.GetLength(), psz2, StringLength( psz2 ) );
; 665  : 
; 666  : 		return( s );
; 667  : 	}
; 668  : 
; 669  : 	friend CSimpleStringT operator+(
; 670  : 		_In_z_ PCXSTR psz1,
; 671  : 		_In_ const CSimpleStringT& str2)
; 672  : 	{
; 673  : 		CSimpleStringT s( str2.GetManager() );
; 674  : 
; 675  : 		Concatenate( s, psz1, StringLength( psz1 ), str2, str2.GetLength() );
; 676  : 
; 677  : 		return( s );
; 678  : 	}
; 679  : 
; 680  : 	_ATL_INSECURE_DEPRECATE("CSimpleStringT::CopyChars must be passed a buffer size")
; 681  : 	static void __cdecl CopyChars(
; 682  : 		_Out_writes_(nChars) XCHAR* pchDest,
; 683  : 		_In_reads_opt_(nChars) const XCHAR* pchSrc,
; 684  : 		_In_ int nChars) throw()
; 685  : 	{
; 686  : 		if (pchSrc != NULL)
; 687  : 		{
; 688  : 			#pragma warning (push)
; 689  : 			#pragma warning(disable : 4996)
; 690  : 			memcpy( pchDest, pchSrc, nChars*sizeof( XCHAR ) );
; 691  : 			#pragma warning (pop)
; 692  : 		}
; 693  : 	}
; 694  : 	static void __cdecl CopyChars(
; 695  : 		_Out_writes_to_(nDestLen,nChars) XCHAR* pchDest,
; 696  : 		_In_ size_t nDestLen,
; 697  : 		_In_reads_opt_(nChars) const XCHAR* pchSrc,
; 698  : 		_In_ int nChars) throw()
; 699  : 	{
; 700  : 		memcpy_s( pchDest, nDestLen*sizeof( XCHAR ),
; 701  : 			pchSrc, nChars*sizeof( XCHAR ) );
; 702  : 	}
; 703  : 
; 704  : 	_ATL_INSECURE_DEPRECATE("CSimpleStringT::CopyCharsOverlapped must be passed a buffer size")
; 705  : 	static void __cdecl CopyCharsOverlapped(
; 706  : 		_Out_writes_(nChars) XCHAR* pchDest,
; 707  : 		_In_reads_(nChars) const XCHAR* pchSrc,
; 708  : 		_In_ int nChars) throw()
; 709  : 	{
; 710  : 		#pragma warning (push)
; 711  : 		#pragma warning(disable : 4996)
; 712  : 		memmove( pchDest, pchSrc, nChars*sizeof( XCHAR ) );
; 713  : 		#pragma warning (pop)
; 714  : 	}
; 715  : 	static void __cdecl CopyCharsOverlapped(
; 716  : 		_Out_writes_to_(nDestLen, nDestLen) XCHAR* pchDest,
; 717  : 		_In_ size_t nDestLen,
; 718  : 		_In_reads_(nChars) const XCHAR* pchSrc,
; 719  : 		_In_ int nChars) throw()
; 720  : 	{
; 721  : 		memmove_s( pchDest, nDestLen*sizeof( XCHAR ),
; 722  : 			pchSrc, nChars*sizeof( XCHAR ) );
; 723  : 	}
; 724  : 	static int __cdecl StringLength(_In_opt_z_ const char* psz) throw()
; 725  : 	{
; 726  : 		if( psz == NULL )
; 727  : 		{
; 728  : 			return( 0 );

  000fc	33 c9		 xor	 ecx, ecx
$LN45@GetEventIn:

; 606  : 		SetString( pszSrc, StringLength( pszSrc ) );

  000fe	51		 push	 ecx
  000ff	56		 push	 esi
  00100	8d 4d 0c	 lea	 ecx, DWORD PTR _strTemp$2[ebp]
  00103	e8 00 00 00 00	 call	 ?SetString@?$CSimpleStringT@D$0A@@ATL@@QAEXPBDH@Z ; ATL::CSimpleStringT<char,0>::SetString
$LN20@GetEventIn:
; File C:\IAGOS\server\v18\Source\Source\_Common\EventLua.cpp

; 416  : 			pUser->AddText( strTemp );

  00108	8b 75 0c	 mov	 esi, DWORD PTR _strTemp$2[ebp]
  0010b	8b 4d 08	 mov	 ecx, DWORD PTR _pUser$[ebp]
  0010e	56		 push	 esi
  0010f	c7 45 fc 01 00
	00 00		 mov	 DWORD PTR __$EHRec$[ebp+8], 1
  00116	e8 00 00 00 00	 call	 ?AddText@CUser@@QAEXPBD@Z ; CUser::AddText

; 417  : 
; 418  : 			m_Lua.Pop(1);

  0011b	6a 01		 push	 1
  0011d	8d 4f 08	 lea	 ecx, DWORD PTR [edi+8]
  00120	e8 00 00 00 00	 call	 ?Pop@CLuaBase@@QAEXH@Z	; CLuaBase::Pop

; 419  : 		}

  00125	c7 45 fc ff ff
	ff ff		 mov	 DWORD PTR __$EHRec$[ebp+8], -1
; File C:\Program Files\Microsoft Visual Studio\2022\Professional\VC\Tools\MSVC\14.44.35207\atlmfc\include\atlsimpstr.h

; 804  : 		return( reinterpret_cast< CStringData* >( m_pszData )-1 );

  0012c	83 c6 f0	 add	 esi, -16		; fffffff0H

; 92   : 		if( _InterlockedDecrement( &nRefs ) <= 0 )

  0012f	83 c8 ff	 or	 eax, -1
  00132	f0 0f c1 46 0c	 lock	  xadd	 DWORD PTR [esi+12], eax
  00137	48		 dec	 eax
  00138	85 c0		 test	 eax, eax
  0013a	7f 08		 jg	 SHORT $LN56@GetEventIn

; 93   : 		{
; 94   : 			pStringMgr->Free( this );

  0013c	8b 0e		 mov	 ecx, DWORD PTR [esi]
  0013e	56		 push	 esi
  0013f	8b 01		 mov	 eax, DWORD PTR [ecx]
  00141	ff 50 04	 call	 DWORD PTR [eax+4]
$LN56@GetEventIn:
; File C:\IAGOS\server\v18\Source\Source\_Common\LuaBase.h

; 46   : 	int			TableLoop( int nStackPos )					{  return lua_next( m_pLuaState, nStackPos );  }	

  00144	6a fe		 push	 -2			; fffffffeH
  00146	ff 77 0c	 push	 DWORD PTR [edi+12]
  00149	e8 00 00 00 00	 call	 _lua_next
  0014e	83 c4 08	 add	 esp, 8
; File C:\IAGOS\server\v18\Source\Source\_Common\EventLua.cpp

; 413  : 		while( m_Lua.TableLoop(-2) )

  00151	85 c0		 test	 eax, eax
  00153	0f 85 47 ff ff
	ff		 jne	 $LL2@GetEventIn
$LN3@GetEventIn:

; 420  : 	}
; 421  : 	m_Lua.Pop(0);

  00159	6a 00		 push	 0
  0015b	8d 4f 08	 lea	 ecx, DWORD PTR [edi+8]
  0015e	e8 00 00 00 00	 call	 ?Pop@CLuaBase@@QAEXH@Z	; CLuaBase::Pop
$LN1@GetEventIn:

; 422  : }

  00163	8b 4d f4	 mov	 ecx, DWORD PTR __$EHRec$[ebp]
  00166	64 89 0d 00 00
	00 00		 mov	 DWORD PTR fs:0, ecx
  0016d	59		 pop	 ecx
  0016e	5f		 pop	 edi
  0016f	5e		 pop	 esi
  00170	5b		 pop	 ebx
  00171	8b e5		 mov	 esp, ebp
  00173	5d		 pop	 ebp
  00174	c2 08 00	 ret	 8
$LN59@GetEventIn:
; File C:\Program Files\Microsoft Visual Studio\2022\Professional\VC\Tools\MSVC\14.44.35207\atlmfc\include\atlsimpstr.h

; 209  : 		ATLENSURE( pStringMgr != NULL );

  00177	68 05 40 00 80	 push	 -2147467259		; 80004005H
  0017c	e8 00 00 00 00	 call	 ?AtlThrowImpl@ATL@@YGXJ@Z ; ATL::AtlThrowImpl
$LN67@GetEventIn:
  00181	cc		 int	 3
_TEXT	ENDS
;	COMDAT text$x
text$x	SEGMENT
__unwindfunclet$?GetEventInfo@CEventLua@@QAEXPAVCUser@@H@Z$1:
  00000	8d 4d 0c	 lea	 ecx, DWORD PTR _strTemp$2[ebp]
  00003	e9 00 00 00 00	 jmp	 ??1?$CSimpleStringT@D$0A@@ATL@@QAE@XZ ; ATL::CSimpleStringT<char,0>::~CSimpleStringT<char,0>
__unwindfunclet$?GetEventInfo@CEventLua@@QAEXPAVCUser@@H@Z$0:
  00008	8d 4d 0c	 lea	 ecx, DWORD PTR _strTemp$2[ebp]
  0000b	e9 00 00 00 00	 jmp	 ??1?$CStringT@DV?$StrTraitMFC@DV?$ChTraitsCRT@D@ATL@@@@@ATL@@QAE@XZ ; ATL::CStringT<char,StrTraitMFC<char,ATL::ChTraitsCRT<char> > >::~CStringT<char,StrTraitMFC<char,ATL::ChTraitsCRT<char> > >
  00010	cc		 int	 3
  00011	cc		 int	 3
  00012	cc		 int	 3
  00013	cc		 int	 3
  00014	cc		 int	 3
__ehhandler$?GetEventInfo@CEventLua@@QAEXPAVCUser@@H@Z:
  00015	90		 npad	 1
  00016	90		 npad	 1
  00017	8b 54 24 08	 mov	 edx, DWORD PTR [esp+8]
  0001b	8d 42 0c	 lea	 eax, DWORD PTR [edx+12]
  0001e	8b 4a f0	 mov	 ecx, DWORD PTR [edx-16]
  00021	33 c8		 xor	 ecx, eax
  00023	e8 00 00 00 00	 call	 @__security_check_cookie@4
  00028	b8 00 00 00 00	 mov	 eax, OFFSET __ehfuncinfo$?GetEventInfo@CEventLua@@QAEXPAVCUser@@H@Z
  0002d	e9 00 00 00 00	 jmp	 ___CxxFrameHandler3
text$x	ENDS
?GetEventInfo@CEventLua@@QAEXPAVCUser@@H@Z ENDP		; CEventLua::GetEventInfo
; Function compile flags: /Ogtp
; File C:\IAGOS\server\v18\Source\Source\_Common\EventLua.cpp
; File C:\IAGOS\server\v18\Source\Source\_Common\LuaBase.h
; File C:\IAGOS\server\v18\Source\Source\_Common\EventLua.cpp
; File C:\IAGOS\server\v18\Source\Source\_Common\LuaBase.h
; File C:\IAGOS\server\v18\Source\Source\_Common\EventLua.cpp
; File C:\Program Files\Microsoft Visual Studio\2022\Professional\VC\Tools\MSVC\14.44.35207\include\xstring
; File C:\Program Files\Microsoft Visual Studio\2022\Professional\VC\Tools\MSVC\14.44.35207\include\__msvc_string_view.hpp
; File C:\IAGOS\server\v18\Source\Source\_Common\EventLua.cpp
; File C:\Program Files\Microsoft Visual Studio\2022\Professional\VC\Tools\MSVC\14.44.35207\include\xstring
; File C:\Program Files\Microsoft Visual Studio\2022\Professional\VC\Tools\MSVC\14.44.35207\include\__msvc_string_view.hpp
; File C:\Program Files\Microsoft Visual Studio\2022\Professional\VC\Tools\MSVC\14.44.35207\include\xstring
; File C:\Program Files\Microsoft Visual Studio\2022\Professional\VC\Tools\MSVC\14.44.35207\include\__msvc_string_view.hpp
; File C:\Program Files\Microsoft Visual Studio\2022\Professional\VC\Tools\MSVC\14.44.35207\include\xstring
; File C:\Program Files\Microsoft Visual Studio\2022\Professional\VC\Tools\MSVC\14.44.35207\include\__msvc_string_view.hpp
; File C:\Program Files\Microsoft Visual Studio\2022\Professional\VC\Tools\MSVC\14.44.35207\include\xstring
; File C:\Program Files\Microsoft Visual Studio\2022\Professional\VC\Tools\MSVC\14.44.35207\include\__msvc_string_view.hpp
; File C:\Program Files\Microsoft Visual Studio\2022\Professional\VC\Tools\MSVC\14.44.35207\include\xstring
; File C:\Program Files\Microsoft Visual Studio\2022\Professional\VC\Tools\MSVC\14.44.35207\include\xmemory
; File C:\Program Files\Microsoft Visual Studio\2022\Professional\VC\Tools\MSVC\14.44.35207\include\xstring
; File C:\Program Files\Microsoft Visual Studio\2022\Professional\VC\Tools\MSVC\14.44.35207\include\xmemory
; File C:\Program Files\Microsoft Visual Studio\2022\Professional\VC\Tools\MSVC\14.44.35207\include\xstring
; File C:\Program Files\Microsoft Visual Studio\2022\Professional\VC\Tools\MSVC\14.44.35207\include\__msvc_string_view.hpp
; File C:\Program Files\Microsoft Visual Studio\2022\Professional\VC\Tools\MSVC\14.44.35207\include\xstring
; File C:\Program Files\Microsoft Visual Studio\2022\Professional\VC\Tools\MSVC\14.44.35207\include\__msvc_string_view.hpp
; File C:\Program Files\Microsoft Visual Studio\2022\Professional\VC\Tools\MSVC\14.44.35207\include\xstring
; File C:\Program Files\Microsoft Visual Studio\2022\Professional\VC\Tools\MSVC\14.44.35207\include\__msvc_string_view.hpp
; File C:\Program Files\Microsoft Visual Studio\2022\Professional\VC\Tools\MSVC\14.44.35207\include\xstring
; File C:\IAGOS\server\v18\Source\Source\_Common\EventLua.cpp
; File C:\Program Files\Microsoft Visual Studio\2022\Professional\VC\Tools\MSVC\14.44.35207\atlmfc\include\afxstr.h
; File C:\Program Files\Microsoft Visual Studio\2022\Professional\VC\Tools\MSVC\14.44.35207\atlmfc\include\atlsimpstr.h
; File C:\Program Files\Microsoft Visual Studio\2022\Professional\VC\Tools\MSVC\14.44.35207\include\xstring
; File C:\IAGOS\server\v18\Source\Source\_Common\EventLua.cpp
; File C:\Program Files\Microsoft Visual Studio\2022\Professional\VC\Tools\MSVC\14.44.35207\include\xstring
; File C:\IAGOS\server\v18\Source\Source\_Common\EventLua.cpp
; File C:\Program Files\Microsoft Visual Studio\2022\Professional\VC\Tools\MSVC\14.44.35207\atlmfc\include\atlsimpstr.h
; File C:\Program Files\Microsoft Visual Studio\2022\Professional\VC\Tools\MSVC\14.44.35207\include\xstring
; File C:\IAGOS\server\v18\Source\Source\_Common\EventLua.cpp
; File C:\Program Files\Microsoft Visual Studio\2022\Professional\VC\Tools\MSVC\14.44.35207\include\xstring
; File C:\Program Files\Microsoft Visual Studio\2022\Professional\VC\Tools\MSVC\14.44.35207\include\xmemory
; File C:\Program Files\Microsoft Visual Studio\2022\Professional\VC\Tools\MSVC\14.44.35207\include\xstring
; File C:\Program Files\Microsoft Visual Studio\2022\Professional\VC\Tools\MSVC\14.44.35207\include\xmemory
; File C:\IAGOS\server\v18\Source\Source\_Common\LuaBase.h
; File C:\IAGOS\server\v18\Source\Source\_Common\EventLua.cpp
; File C:\Program Files\Microsoft Visual Studio\2022\Professional\VC\Tools\MSVC\14.44.35207\include\xstring
; File C:\Program Files\Microsoft Visual Studio\2022\Professional\VC\Tools\MSVC\14.44.35207\include\xmemory
; File C:\Program Files\Microsoft Visual Studio\2022\Professional\VC\Tools\MSVC\14.44.35207\atlmfc\include\atlsimpstr.h
; File C:\IAGOS\server\v18\Source\Source\_Common\EventLua.cpp
;	COMDAT ?GetAllEventList@CEventLua@@QAEXPAVCUser@@@Z
_TEXT	SEGMENT
tv638 = -68						; size = 8
_pUser$GSCopy$1$ = -60					; size = 4
tv612 = -56						; size = 8
__Ptr$1$ = -52						; size = 4
_this$GSCopy$1$ = -48					; size = 4
_strTemp$2 = -44					; size = 4
$T3 = -44						; size = 4
_strTitle$4 = -40					; size = 24
__$ArrayPad$ = -16					; size = 4
__$EHRec$ = -12						; size = 12
_pUser$ = 8						; size = 4
?GetAllEventList@CEventLua@@QAEXPAVCUser@@@Z PROC	; CEventLua::GetAllEventList, COMDAT
; _this$ = ecx

; 368  : {

  00000	55		 push	 ebp
  00001	8b ec		 mov	 ebp, esp
  00003	6a ff		 push	 -1
  00005	68 00 00 00 00	 push	 __ehhandler$?GetAllEventList@CEventLua@@QAEXPAVCUser@@@Z
  0000a	64 a1 00 00 00
	00		 mov	 eax, DWORD PTR fs:0
  00010	50		 push	 eax
  00011	83 ec 38	 sub	 esp, 56			; 00000038H
  00014	a1 00 00 00 00	 mov	 eax, DWORD PTR ___security_cookie
  00019	33 c5		 xor	 eax, ebp
  0001b	89 45 f0	 mov	 DWORD PTR __$ArrayPad$[ebp], eax
  0001e	56		 push	 esi
  0001f	57		 push	 edi
  00020	50		 push	 eax
  00021	8d 45 f4	 lea	 eax, DWORD PTR __$EHRec$[ebp]
  00024	64 a3 00 00 00
	00		 mov	 DWORD PTR fs:0, eax
  0002a	8b f1		 mov	 esi, ecx
  0002c	89 75 d0	 mov	 DWORD PTR _this$GSCopy$1$[ebp], esi

; 369  : 	if( !IsPossible() )

  0002f	83 7e 04 00	 cmp	 DWORD PTR [esi+4], 0
  00033	8b 45 08	 mov	 eax, DWORD PTR _pUser$[ebp]
  00036	89 45 c4	 mov	 DWORD PTR _pUser$GSCopy$1$[ebp], eax
  00039	0f 84 21 02 00
	00		 je	 $LN1@GetAllEven

; 370  : 		return;
; 371  : 
; 372  : 	if( m_Lua.GetLuaFunction( "GetAllEventList" ) )

  0003f	8d 7e 08	 lea	 edi, DWORD PTR [esi+8]
  00042	68 00 00 00 00	 push	 OFFSET ??_C@_0BA@LLOGNHHK@GetAllEventList@
  00047	8b cf		 mov	 ecx, edi
  00049	e8 00 00 00 00	 call	 ?GetLuaFunction@CLuaBase@@QAEHPAD@Z ; CLuaBase::GetLuaFunction
  0004e	85 c0		 test	 eax, eax
  00050	0f 84 01 02 00
	00		 je	 $LN3@GetAllEven

; 373  : 	{
; 374  : 		m_Lua.CallLuaFunction( 0, 1 );

  00056	6a 01		 push	 1
  00058	6a 00		 push	 0
  0005a	8b cf		 mov	 ecx, edi
  0005c	e8 00 00 00 00	 call	 ?CallLuaFunction@CLuaBase@@QAEXHH@Z ; CLuaBase::CallLuaFunction
; File C:\IAGOS\server\v18\Source\Source\_Common\LuaBase.h

; 33   : 	BOOL		IsNil( int nStackPos )						{  return lua_isnil( m_pLuaState, nStackPos );  }

  00061	6a ff		 push	 -1
  00063	ff 76 0c	 push	 DWORD PTR [esi+12]
  00066	e8 00 00 00 00	 call	 _lua_type
  0006b	83 c4 08	 add	 esp, 8
  0006e	85 c0		 test	 eax, eax
; File C:\IAGOS\server\v18\Source\Source\_Common\EventLua.cpp

; 375  : 		if( m_Lua.IsNil( -1 ) )

  00070	0f 84 e1 01 00
	00		 je	 $LN3@GetAllEven
; File C:\IAGOS\server\v18\Source\Source\_Common\LuaBase.h

; 40   : 	void		PushNil()									{  lua_pushnil( m_pLuaState );  }

  00076	ff 76 0c	 push	 DWORD PTR [esi+12]
  00079	e8 00 00 00 00	 call	 _lua_pushnil

; 46   : 	int			TableLoop( int nStackPos )					{  return lua_next( m_pLuaState, nStackPos );  }	

  0007e	6a fe		 push	 -2			; fffffffeH
  00080	ff 76 0c	 push	 DWORD PTR [esi+12]
  00083	e8 00 00 00 00	 call	 _lua_next
  00088	83 c4 0c	 add	 esp, 12			; 0000000cH
; File C:\IAGOS\server\v18\Source\Source\_Common\EventLua.cpp

; 382  : 		while( m_Lua.TableLoop(-2) )

  0008b	85 c0		 test	 eax, eax
  0008d	0f 84 c4 01 00
	00		 je	 $LN3@GetAllEven
$LL2@GetAllEven:

; 383  : 		{
; 384  : 			int nId = (int)m_Lua.GetFieldToNumber( -1, "nId" );

  00093	68 00 00 00 00	 push	 OFFSET ??_C@_03HLJILIDP@nId@
  00098	6a ff		 push	 -1
  0009a	8b cf		 mov	 ecx, edi
  0009c	e8 00 00 00 00	 call	 ?GetFieldToNumber@CLuaBase@@QAENHPAD@Z ; CLuaBase::GetFieldToNumber

; 385  : 			string strTitle = m_Lua.GetFieldToString( -1, "strTitle" );

  000a1	68 00 00 00 00	 push	 OFFSET ??_C@_08DNBCIPJJ@strTitle@
  000a6	6a ff		 push	 -1
  000a8	8b cf		 mov	 ecx, edi
  000aa	dd 5d bc	 fstp	 QWORD PTR tv638[ebp]
  000ad	e8 00 00 00 00	 call	 ?GetFieldToString@CLuaBase@@QAEPBDHPAD@Z ; CLuaBase::GetFieldToString
  000b2	8b f8		 mov	 edi, eax
; File C:\Program Files\Microsoft Visual Studio\2022\Professional\VC\Tools\MSVC\14.44.35207\include\xstring

; 517  :     size_type _Mysize = 0; // current length of string (size)

  000b4	c7 45 e8 00 00
	00 00		 mov	 DWORD PTR _strTitle$4[ebp+16], 0
; File C:\Program Files\Microsoft Visual Studio\2022\Professional\VC\Tools\MSVC\14.44.35207\include\__msvc_string_view.hpp

; 459  :         return _CSTD strlen(reinterpret_cast<const char*>(_First));

  000bb	8b f7		 mov	 esi, edi
; File C:\IAGOS\server\v18\Source\Source\_Common\EventLua.cpp

; 385  : 			string strTitle = m_Lua.GetFieldToString( -1, "strTitle" );

  000bd	89 7d cc	 mov	 DWORD PTR __Ptr$1$[ebp], edi
  000c0	0f 57 c0	 xorps	 xmm0, xmm0
; File C:\Program Files\Microsoft Visual Studio\2022\Professional\VC\Tools\MSVC\14.44.35207\include\xstring

; 518  :     size_type _Myres  = 0; // current storage reserved for string (capacity)

  000c3	c7 45 ec 00 00
	00 00		 mov	 DWORD PTR _strTitle$4[ebp+20], 0

; 493  :         _CONSTEXPR20 _Bxty() noexcept : _Buf() {} // user-provided, for fancy pointers

  000ca	0f 11 45 d8	 movups	 XMMWORD PTR _strTitle$4[ebp], xmm0
; File C:\Program Files\Microsoft Visual Studio\2022\Professional\VC\Tools\MSVC\14.44.35207\include\__msvc_string_view.hpp

; 459  :         return _CSTD strlen(reinterpret_cast<const char*>(_First));

  000ce	8d 4e 01	 lea	 ecx, DWORD PTR [esi+1]
$LL141@GetAllEven:
  000d1	8a 06		 mov	 al, BYTE PTR [esi]
  000d3	46		 inc	 esi
  000d4	84 c0		 test	 al, al
  000d6	75 f9		 jne	 SHORT $LL141@GetAllEven
  000d8	2b f1		 sub	 esi, ecx
; File C:\Program Files\Microsoft Visual Studio\2022\Professional\VC\Tools\MSVC\14.44.35207\include\xstring

; 881  :         if (_Count > max_size()) {

  000da	81 fe ff ff ff
	7f		 cmp	 esi, 2147483647		; 7fffffffH
  000e0	0f 87 97 01 00
	00		 ja	 $LN133@GetAllEven

; 883  :         }
; 884  : 
; 885  :         auto& _Al       = _Getal();
; 886  :         auto&& _Alproxy = _GET_PROXY_ALLOCATOR(_Alty, _Al);
; 887  :         _Container_proxy_ptr<_Alty> _Proxy(_Alproxy, _My_data);
; 888  : 
; 889  :         if (_Count <= _Small_string_capacity) {

  000e6	83 fe 0f	 cmp	 esi, 15			; 0000000fH
  000e9	77 1c		 ja	 SHORT $LN36@GetAllEven
; File C:\Program Files\Microsoft Visual Studio\2022\Professional\VC\Tools\MSVC\14.44.35207\include\__msvc_string_view.hpp

; 121  :         _CSTD memcpy(_First1, _First2, _Count * sizeof(_Elem));

  000eb	56		 push	 esi
  000ec	8d 45 d8	 lea	 eax, DWORD PTR _strTitle$4[ebp]
; File C:\Program Files\Microsoft Visual Studio\2022\Professional\VC\Tools\MSVC\14.44.35207\include\xstring

; 890  :             _My_data._Mysize = _Count;

  000ef	89 75 e8	 mov	 DWORD PTR _strTitle$4[ebp+16], esi
; File C:\Program Files\Microsoft Visual Studio\2022\Professional\VC\Tools\MSVC\14.44.35207\include\__msvc_string_view.hpp

; 121  :         _CSTD memcpy(_First1, _First2, _Count * sizeof(_Elem));

  000f2	57		 push	 edi
  000f3	50		 push	 eax
; File C:\Program Files\Microsoft Visual Studio\2022\Professional\VC\Tools\MSVC\14.44.35207\include\xstring

; 891  :             _My_data._Myres  = _Small_string_capacity;

  000f4	c7 45 ec 0f 00
	00 00		 mov	 DWORD PTR _strTitle$4[ebp+20], 15 ; 0000000fH
; File C:\Program Files\Microsoft Visual Studio\2022\Professional\VC\Tools\MSVC\14.44.35207\include\__msvc_string_view.hpp

; 121  :         _CSTD memcpy(_First1, _First2, _Count * sizeof(_Elem));

  000fb	e8 00 00 00 00	 call	 _memcpy
; File C:\Program Files\Microsoft Visual Studio\2022\Professional\VC\Tools\MSVC\14.44.35207\include\xstring

; 898  :                 _Traits::assign(_My_data._Bx._Buf[_Count], _Elem());

  00100	c6 44 35 d8 00	 mov	 BYTE PTR _strTitle$4[ebp+esi], 0

; 899  :             } else { // _Strat == _Construct_strategy::_From_string
; 900  : #ifdef _INSERT_STRING_ANNOTATION
; 901  :                 _Traits::copy(_My_data._Bx._Buf, _Arg, _Count + 1);
; 902  : #else // ^^^ _INSERT_STRING_ANNOTATION / !_INSERT_STRING_ANNOTATION vvv
; 903  :                 _Traits::copy(_My_data._Bx._Buf, _Arg, _BUF_SIZE);
; 904  : #endif // ^^^ !_INSERT_STRING_ANNOTATION ^^^
; 905  :             }
; 906  : 
; 907  :             _Proxy._Release();
; 908  :             return;

  00105	eb 66		 jmp	 SHORT $LN144@GetAllEven
$LN36@GetAllEven:

; 2978 :         const size_type _Masked = _Requested | _Alloc_mask;

  00107	8b fe		 mov	 edi, esi
  00109	83 cf 0f	 or	 edi, 15			; 0000000fH
  0010c	81 ff ff ff ff
	7f		 cmp	 edi, 2147483647		; 7fffffffH

; 2979 :         if (_Masked > _Max) { // the mask overflows, settle for max_size()

  00112	76 12		 jbe	 SHORT $LN42@GetAllEven

; 2980 :             return _Max;

  00114	b8 00 00 00 80	 mov	 eax, -2147483648	; 80000000H
  00119	bf ff ff ff 7f	 mov	 edi, 2147483647		; 7fffffffH
; File C:\Program Files\Microsoft Visual Studio\2022\Professional\VC\Tools\MSVC\14.44.35207\include\xmemory

; 253  :             return _Allocate_manually_vector_aligned<_Traits>(_Bytes);

  0011e	50		 push	 eax
  0011f	e8 00 00 00 00	 call	 ??$_Allocate_manually_vector_aligned@U_Default_allocate_traits@std@@@std@@YAPAXI@Z ; std::_Allocate_manually_vector_aligned<std::_Default_allocate_traits>
  00124	eb 27		 jmp	 SHORT $LN146@GetAllEven
$LN42@GetAllEven:
; File C:\Program Files\Microsoft Visual Studio\2022\Professional\VC\Tools\MSVC\14.44.35207\include\xstring

; 2987 :         return (_STD max)(_Masked, _Old + _Old / 2);

  00126	83 ff 16	 cmp	 edi, 22			; 00000016H
  00129	b8 16 00 00 00	 mov	 eax, 22			; 00000016H
  0012e	0f 42 f8	 cmovb	 edi, eax

; 825  :         ++_Capacity; // Take null terminator into consideration

  00131	8d 47 01	 lea	 eax, DWORD PTR [edi+1]
; File C:\Program Files\Microsoft Visual Studio\2022\Professional\VC\Tools\MSVC\14.44.35207\include\xmemory

; 227  :     if (_Bytes == 0) {

  00134	85 c0		 test	 eax, eax
  00136	74 18		 je	 SHORT $LN145@GetAllEven
$LN56@GetAllEven:

; 228  :         return nullptr;
; 229  :     }
; 230  : 
; 231  : #if _HAS_CXX20 // TRANSITION, GH-1532
; 232  :     if (_STD is_constant_evaluated()) {
; 233  :         return _Traits::_Allocate(_Bytes);
; 234  :     }
; 235  : #endif // _HAS_CXX20
; 236  : 
; 237  : #ifdef __cpp_aligned_new
; 238  :     if constexpr (_Align > __STDCPP_DEFAULT_NEW_ALIGNMENT__) {
; 239  :         size_t _Passed_align = _Align;
; 240  : #if defined(_M_IX86) || defined(_M_X64)
; 241  :         if (_Bytes >= _Big_allocation_threshold) {
; 242  :             // boost the alignment of big allocations to help autovectorization
; 243  :             _Passed_align = (_STD max)(_Align, _Big_allocation_alignment);
; 244  :         }
; 245  : #endif // defined(_M_IX86) || defined(_M_X64)
; 246  :         return _Traits::_Allocate_aligned(_Bytes, _Passed_align);
; 247  :     } else
; 248  : #endif // defined(__cpp_aligned_new)
; 249  :     {
; 250  : #if defined(_M_IX86) || defined(_M_X64)
; 251  :         if (_Bytes >= _Big_allocation_threshold) {

  00138	3d 00 10 00 00	 cmp	 eax, 4096		; 00001000H
  0013d	72 08		 jb	 SHORT $LN57@GetAllEven

; 253  :             return _Allocate_manually_vector_aligned<_Traits>(_Bytes);

  0013f	50		 push	 eax
  00140	e8 00 00 00 00	 call	 ??$_Allocate_manually_vector_aligned@U_Default_allocate_traits@std@@@std@@YAPAXI@Z ; std::_Allocate_manually_vector_aligned<std::_Default_allocate_traits>
  00145	eb 06		 jmp	 SHORT $LN146@GetAllEven
$LN57@GetAllEven:

; 136  :         return ::operator new(_Bytes);

  00147	50		 push	 eax
  00148	e8 00 00 00 00	 call	 ??2@YAPAXI@Z		; operator new
$LN146@GetAllEven:
; File C:\Program Files\Microsoft Visual Studio\2022\Professional\VC\Tools\MSVC\14.44.35207\include\xstring

; 913  :         _Construct_in_place(_My_data._Bx._Ptr, _New_ptr);

  0014d	83 c4 04	 add	 esp, 4
$LN145@GetAllEven:
; File C:\Program Files\Microsoft Visual Studio\2022\Professional\VC\Tools\MSVC\14.44.35207\include\__msvc_string_view.hpp

; 121  :         _CSTD memcpy(_First1, _First2, _Count * sizeof(_Elem));

  00150	56		 push	 esi
  00151	ff 75 cc	 push	 DWORD PTR __Ptr$1$[ebp]
; File C:\Program Files\Microsoft Visual Studio\2022\Professional\VC\Tools\MSVC\14.44.35207\include\xstring

; 913  :         _Construct_in_place(_My_data._Bx._Ptr, _New_ptr);

  00154	89 45 d4	 mov	 DWORD PTR $T3[ebp], eax
; File C:\Program Files\Microsoft Visual Studio\2022\Professional\VC\Tools\MSVC\14.44.35207\include\__msvc_string_view.hpp

; 121  :         _CSTD memcpy(_First1, _First2, _Count * sizeof(_Elem));

  00157	50		 push	 eax
; File C:\Program Files\Microsoft Visual Studio\2022\Professional\VC\Tools\MSVC\14.44.35207\include\xstring

; 913  :         _Construct_in_place(_My_data._Bx._Ptr, _New_ptr);

  00158	89 45 d8	 mov	 DWORD PTR _strTitle$4[ebp], eax

; 914  : 
; 915  :         _My_data._Mysize = _Count;

  0015b	89 75 e8	 mov	 DWORD PTR _strTitle$4[ebp+16], esi

; 916  :         _My_data._Myres  = _New_capacity;

  0015e	89 7d ec	 mov	 DWORD PTR _strTitle$4[ebp+20], edi
; File C:\Program Files\Microsoft Visual Studio\2022\Professional\VC\Tools\MSVC\14.44.35207\include\__msvc_string_view.hpp

; 121  :         _CSTD memcpy(_First1, _First2, _Count * sizeof(_Elem));

  00161	e8 00 00 00 00	 call	 _memcpy
; File C:\Program Files\Microsoft Visual Studio\2022\Professional\VC\Tools\MSVC\14.44.35207\include\xstring

; 922  :             _Traits::assign(_Unfancy(_New_ptr)[_Count], _Elem());

  00166	8b 45 d4	 mov	 eax, DWORD PTR $T3[ebp]
  00169	c6 04 30 00	 mov	 BYTE PTR [eax+esi], 0
$LN144@GetAllEven:
; File C:\IAGOS\server\v18\Source\Source\_Common\EventLua.cpp

; 385  : 			string strTitle = m_Lua.GetFieldToString( -1, "strTitle" );

  0016d	83 c4 0c	 add	 esp, 12			; 0000000cH

; 386  : 			int nState = (int)m_Lua.GetFieldToNumber( -1, "nState" );

  00170	8b 7d d0	 mov	 edi, DWORD PTR _this$GSCopy$1$[ebp]
  00173	68 00 00 00 00	 push	 OFFSET ??_C@_06PHLKOEGH@nState@
  00178	83 c7 08	 add	 edi, 8
  0017b	c7 45 fc 00 00
	00 00		 mov	 DWORD PTR __$EHRec$[ebp+8], 0
  00182	6a ff		 push	 -1
  00184	8b cf		 mov	 ecx, edi
  00186	e8 00 00 00 00	 call	 ?GetFieldToNumber@CLuaBase@@QAENHPAD@Z ; CLuaBase::GetFieldToNumber
  0018b	dd 5d c8	 fstp	 QWORD PTR tv612[ebp]
  0018e	f2 0f 2c 75 c8	 cvttsd2si esi, QWORD PTR tv612[ebp]
; File C:\Program Files\Microsoft Visual Studio\2022\Professional\VC\Tools\MSVC\14.44.35207\atlmfc\include\afxstr.h

; 56   : 		return( AfxGetStringManager() );

  00193	e8 00 00 00 00	 call	 ?AfxGetStringManager@@YGPAUIAtlStringMgr@ATL@@XZ ; AfxGetStringManager
  00198	8b c8		 mov	 ecx, eax
; File C:\Program Files\Microsoft Visual Studio\2022\Professional\VC\Tools\MSVC\14.44.35207\atlmfc\include\atlsimpstr.h

; 209  : 		ATLENSURE( pStringMgr != NULL );

  0019a	85 c9		 test	 ecx, ecx
  0019c	0f 84 ef 00 00
	00		 je	 $LN134@GetAllEven

; 210  : 		CStringData* pData = pStringMgr->GetNilString();

  001a2	8b 01		 mov	 eax, DWORD PTR [ecx]
  001a4	8b 40 0c	 mov	 eax, DWORD PTR [eax+12]
  001a7	ff d0		 call	 eax

; 211  : 		Attach( pData );

  001a9	83 c0 10	 add	 eax, 16			; 00000010H
  001ac	89 45 d4	 mov	 DWORD PTR _strTemp$2[ebp], eax
; File C:\Program Files\Microsoft Visual Studio\2022\Professional\VC\Tools\MSVC\14.44.35207\include\xstring

; 453  :         return _Myres > _Small_string_capacity;

  001af	83 7d ec 0f	 cmp	 DWORD PTR _strTitle$4[ebp+20], 15 ; 0000000fH

; 444  :         const value_type* _Result = _Bx._Buf;

  001b3	8d 45 d8	 lea	 eax, DWORD PTR _strTitle$4[ebp]
; File C:\IAGOS\server\v18\Source\Source\_Common\EventLua.cpp

; 389  : 			strTemp.Format("ID : %d,  Title : %s,  State : %d", nId, strTitle.c_str(), nState );

  001b6	56		 push	 esi
; File C:\Program Files\Microsoft Visual Studio\2022\Professional\VC\Tools\MSVC\14.44.35207\include\xstring

; 445  :         if (_Large_mode_engaged()) {

  001b7	0f 47 45 d8	 cmova	 eax, DWORD PTR _strTitle$4[ebp]
; File C:\IAGOS\server\v18\Source\Source\_Common\EventLua.cpp

; 389  : 			strTemp.Format("ID : %d,  Title : %s,  State : %d", nId, strTitle.c_str(), nState );

  001bb	50		 push	 eax
  001bc	f2 0f 2c 45 bc	 cvttsd2si eax, QWORD PTR tv638[ebp]
  001c1	c6 45 fc 01	 mov	 BYTE PTR __$EHRec$[ebp+8], 1
  001c5	50		 push	 eax
  001c6	8d 45 d4	 lea	 eax, DWORD PTR _strTemp$2[ebp]
  001c9	68 00 00 00 00	 push	 OFFSET ??_C@_0CC@PNFPDMBJ@ID?5?3?5?$CFd?0?5?5Title?5?3?5?$CFs?0?5?5State?5?3?5@
  001ce	50		 push	 eax
  001cf	e8 00 00 00 00	 call	 ?Format@?$CStringT@DV?$StrTraitMFC@DV?$ChTraitsCRT@D@ATL@@@@@ATL@@QAAXPBDZZ ; ATL::CStringT<char,StrTraitMFC<char,ATL::ChTraitsCRT<char> > >::Format

; 390  : 			pUser->AddText( strTemp );

  001d4	8b 75 d4	 mov	 esi, DWORD PTR _strTemp$2[ebp]
  001d7	83 c4 14	 add	 esp, 20			; 00000014H
  001da	8b 4d c4	 mov	 ecx, DWORD PTR _pUser$GSCopy$1$[ebp]
  001dd	56		 push	 esi
  001de	e8 00 00 00 00	 call	 ?AddText@CUser@@QAEXPBD@Z ; CUser::AddText

; 391  : 			
; 392  : 			m_Lua.Pop(1);

  001e3	6a 01		 push	 1
  001e5	8b cf		 mov	 ecx, edi
  001e7	e8 00 00 00 00	 call	 ?Pop@CLuaBase@@QAEXH@Z	; CLuaBase::Pop

; 393  : 		}

  001ec	c6 45 fc 00	 mov	 BYTE PTR __$EHRec$[ebp+8], 0
; File C:\Program Files\Microsoft Visual Studio\2022\Professional\VC\Tools\MSVC\14.44.35207\atlmfc\include\atlsimpstr.h

; 804  : 		return( reinterpret_cast< CStringData* >( m_pszData )-1 );

  001f0	83 c6 f0	 add	 esi, -16		; fffffff0H

; 92   : 		if( _InterlockedDecrement( &nRefs ) <= 0 )

  001f3	83 c8 ff	 or	 eax, -1
  001f6	f0 0f c1 46 0c	 lock	  xadd	 DWORD PTR [esi+12], eax
  001fb	48		 dec	 eax
  001fc	85 c0		 test	 eax, eax
  001fe	7f 08		 jg	 SHORT $LN99@GetAllEven

; 93   : 		{
; 94   : 			pStringMgr->Free( this );

  00200	8b 0e		 mov	 ecx, DWORD PTR [esi]
  00202	56		 push	 esi
  00203	8b 01		 mov	 eax, DWORD PTR [ecx]
  00205	ff 50 04	 call	 DWORD PTR [eax+4]
$LN99@GetAllEven:
; File C:\Program Files\Microsoft Visual Studio\2022\Professional\VC\Tools\MSVC\14.44.35207\include\xstring

; 453  :         return _Myres > _Small_string_capacity;

  00208	8b 4d ec	 mov	 ecx, DWORD PTR _strTitle$4[ebp+20]
; File C:\IAGOS\server\v18\Source\Source\_Common\EventLua.cpp

; 393  : 		}

  0020b	c7 45 fc ff ff
	ff ff		 mov	 DWORD PTR __$EHRec$[ebp+8], -1
; File C:\Program Files\Microsoft Visual Studio\2022\Professional\VC\Tools\MSVC\14.44.35207\include\xstring

; 453  :         return _Myres > _Small_string_capacity;

  00212	83 f9 0f	 cmp	 ecx, 15			; 0000000fH

; 3083 :         if (_My_data._Large_mode_engaged()) {

  00215	76 28		 jbe	 SHORT $LN121@GetAllEven
; File C:\Program Files\Microsoft Visual Studio\2022\Professional\VC\Tools\MSVC\14.44.35207\include\xmemory

; 985  :         _STD _Deallocate<_New_alignof<_Ty>>(_Ptr, sizeof(_Ty) * _Count);

  00217	8b 55 d8	 mov	 edx, DWORD PTR _strTitle$4[ebp]
; File C:\Program Files\Microsoft Visual Studio\2022\Professional\VC\Tools\MSVC\14.44.35207\include\xstring

; 852  :         _Al.deallocate(_Old_ptr, _Capacity + 1); // +1 for null terminator

  0021a	41		 inc	 ecx
; File C:\Program Files\Microsoft Visual Studio\2022\Professional\VC\Tools\MSVC\14.44.35207\include\xmemory

; 985  :         _STD _Deallocate<_New_alignof<_Ty>>(_Ptr, sizeof(_Ty) * _Count);

  0021b	8b c2		 mov	 eax, edx

; 284  :         if (_Bytes >= _Big_allocation_threshold) {

  0021d	81 f9 00 10 00
	00		 cmp	 ecx, 4096		; 00001000H
  00223	72 10		 jb	 SHORT $LN126@GetAllEven

; 205  :     const uintptr_t _Ptr_container   = _Ptr_user[-1];

  00225	8b 50 fc	 mov	 edx, DWORD PTR [eax-4]
  00228	83 c1 23	 add	 ecx, 35			; 00000023H
  0022b	2b c2		 sub	 eax, edx

; 219  :     _STL_VERIFY(_Back_shift >= _Min_back_shift && _Back_shift <= _Non_user_size, "invalid argument");

  0022d	83 c0 fc	 add	 eax, -4			; fffffffcH
  00230	83 f8 1f	 cmp	 eax, 31			; 0000001fH
  00233	77 4d		 ja	 SHORT $LN135@GetAllEven
$LN126@GetAllEven:

; 289  :         ::operator delete(_Ptr, _Bytes);

  00235	51		 push	 ecx
  00236	52		 push	 edx
  00237	e8 00 00 00 00	 call	 ??3@YAXPAXI@Z		; operator delete
  0023c	83 c4 08	 add	 esp, 8
$LN121@GetAllEven:
; File C:\IAGOS\server\v18\Source\Source\_Common\LuaBase.h

; 46   : 	int			TableLoop( int nStackPos )					{  return lua_next( m_pLuaState, nStackPos );  }	

  0023f	8b 45 d0	 mov	 eax, DWORD PTR _this$GSCopy$1$[ebp]
  00242	6a fe		 push	 -2			; fffffffeH
  00244	ff 70 0c	 push	 DWORD PTR [eax+12]
  00247	e8 00 00 00 00	 call	 _lua_next
  0024c	83 c4 08	 add	 esp, 8
; File C:\IAGOS\server\v18\Source\Source\_Common\EventLua.cpp

; 382  : 		while( m_Lua.TableLoop(-2) )

  0024f	85 c0		 test	 eax, eax
  00251	0f 85 3c fe ff
	ff		 jne	 $LL2@GetAllEven
$LN3@GetAllEven:

; 396  : }

  00257	6a 00		 push	 0
  00259	8b cf		 mov	 ecx, edi
  0025b	e8 00 00 00 00	 call	 ?Pop@CLuaBase@@QAEXH@Z	; CLuaBase::Pop
$LN1@GetAllEven:
  00260	8b 4d f4	 mov	 ecx, DWORD PTR __$EHRec$[ebp]
  00263	64 89 0d 00 00
	00 00		 mov	 DWORD PTR fs:0, ecx
  0026a	59		 pop	 ecx
  0026b	5f		 pop	 edi
  0026c	5e		 pop	 esi
  0026d	8b 4d f0	 mov	 ecx, DWORD PTR __$ArrayPad$[ebp]
  00270	33 cd		 xor	 ecx, ebp
  00272	e8 00 00 00 00	 call	 @__security_check_cookie@4
  00277	8b e5		 mov	 esp, ebp
  00279	5d		 pop	 ebp
  0027a	c2 04 00	 ret	 4
$LN133@GetAllEven:
; File C:\Program Files\Microsoft Visual Studio\2022\Professional\VC\Tools\MSVC\14.44.35207\include\xstring

; 882  :             _Xlen_string(); // result too long

  0027d	e8 00 00 00 00	 call	 ?_Xlen_string@std@@YAXXZ ; std::_Xlen_string
$LN135@GetAllEven:
; File C:\Program Files\Microsoft Visual Studio\2022\Professional\VC\Tools\MSVC\14.44.35207\include\xmemory

; 219  :     _STL_VERIFY(_Back_shift >= _Min_back_shift && _Back_shift <= _Non_user_size, "invalid argument");

  00282	6a 00		 push	 0
  00284	6a 00		 push	 0
  00286	6a 00		 push	 0
  00288	6a 00		 push	 0
  0028a	6a 00		 push	 0
  0028c	e8 00 00 00 00	 call	 __invoke_watson
$LN134@GetAllEven:
; File C:\Program Files\Microsoft Visual Studio\2022\Professional\VC\Tools\MSVC\14.44.35207\atlmfc\include\atlsimpstr.h

; 209  : 		ATLENSURE( pStringMgr != NULL );

  00291	68 05 40 00 80	 push	 -2147467259		; 80004005H
  00296	e8 00 00 00 00	 call	 ?AtlThrowImpl@ATL@@YGXJ@Z ; ATL::AtlThrowImpl
$LN143@GetAllEven:
  0029b	cc		 int	 3
_TEXT	ENDS
;	COMDAT text$x
text$x	SEGMENT
__unwindfunclet$?GetAllEventList@CEventLua@@QAEXPAVCUser@@@Z$0:
  00000	8d 4d d8	 lea	 ecx, DWORD PTR _strTitle$4[ebp]
  00003	e9 00 00 00 00	 jmp	 ??1?$basic_string@DU?$char_traits@D@std@@V?$allocator@D@2@@std@@QAE@XZ ; std::basic_string<char,std::char_traits<char>,std::allocator<char> >::~basic_string<char,std::char_traits<char>,std::allocator<char> >
__unwindfunclet$?GetAllEventList@CEventLua@@QAEXPAVCUser@@@Z$1:
  00008	8d 4d d4	 lea	 ecx, DWORD PTR _strTemp$2[ebp]
  0000b	e9 00 00 00 00	 jmp	 ??1?$CStringT@DV?$StrTraitMFC@DV?$ChTraitsCRT@D@ATL@@@@@ATL@@QAE@XZ ; ATL::CStringT<char,StrTraitMFC<char,ATL::ChTraitsCRT<char> > >::~CStringT<char,StrTraitMFC<char,ATL::ChTraitsCRT<char> > >
  00010	cc		 int	 3
  00011	cc		 int	 3
  00012	cc		 int	 3
  00013	cc		 int	 3
  00014	cc		 int	 3
__ehhandler$?GetAllEventList@CEventLua@@QAEXPAVCUser@@@Z:
  00015	90		 npad	 1
  00016	90		 npad	 1
  00017	8b 54 24 08	 mov	 edx, DWORD PTR [esp+8]
  0001b	8d 42 0c	 lea	 eax, DWORD PTR [edx+12]
  0001e	8b 4a bc	 mov	 ecx, DWORD PTR [edx-68]
  00021	33 c8		 xor	 ecx, eax
  00023	e8 00 00 00 00	 call	 @__security_check_cookie@4
  00028	8b 4a fc	 mov	 ecx, DWORD PTR [edx-4]
  0002b	33 c8		 xor	 ecx, eax
  0002d	e8 00 00 00 00	 call	 @__security_check_cookie@4
  00032	b8 00 00 00 00	 mov	 eax, OFFSET __ehfuncinfo$?GetAllEventList@CEventLua@@QAEXPAVCUser@@@Z
  00037	e9 00 00 00 00	 jmp	 ___CxxFrameHandler3
text$x	ENDS
?GetAllEventList@CEventLua@@QAEXPAVCUser@@@Z ENDP	; CEventLua::GetAllEventList
; Function compile flags: /Ogtp
; File C:\IAGOS\server\v18\Source\Source\_Common\EventLua.cpp
; File C:\Program Files\Microsoft Visual Studio\2022\Professional\VC\Tools\MSVC\14.44.35207\include\xtree
; File C:\Program Files\Microsoft Visual Studio\2022\Professional\VC\Tools\MSVC\14.44.35207\include\xmemory
; File C:\Program Files\Microsoft Visual Studio\2022\Professional\VC\Tools\MSVC\14.44.35207\include\xtree
; File C:\Program Files\Microsoft Visual Studio\2022\Professional\VC\Tools\MSVC\14.44.35207\include\xmemory
; File C:\Program Files\Microsoft Visual Studio\2022\Professional\VC\Tools\MSVC\14.44.35207\include\xtree
; File C:\IAGOS\server\v18\Source\Source\_Common\EventLua.cpp
; File C:\IAGOS\server\v18\Source\Source\_Common\LuaBase.h
; File C:\IAGOS\server\v18\Source\Source\_Common\EventLua.cpp
; File C:\IAGOS\server\v18\Source\Source\_Common\LuaBase.h
; File C:\IAGOS\server\v18\Source\Source\_Common\EventLua.cpp
; File C:\IAGOS\server\v18\Source\Source\_Common\LuaBase.h
; File C:\IAGOS\server\v18\Source\Source\_Common\EventLua.cpp
; File C:\IAGOS\server\v18\Source\Source\_Common\LuaBase.h
; File C:\IAGOS\server\v18\Source\Source\_Common\EventLua.cpp
; File C:\IAGOS\server\v18\Source\Source\_Common\LuaBase.h
; File C:\IAGOS\server\v18\Source\Source\_Common\EventLua.cpp
; File C:\IAGOS\server\v18\Source\Source\_Common\LuaBase.h
; File C:\IAGOS\server\v18\Source\Source\_Common\EventLua.cpp
; File C:\Program Files\Microsoft Visual Studio\2022\Professional\VC\Tools\MSVC\14.44.35207\include\xtree
; File C:\Program Files\Microsoft Visual Studio\2022\Professional\VC\Tools\MSVC\14.44.35207\include\utility
; File C:\Program Files\Microsoft Visual Studio\2022\Professional\VC\Tools\MSVC\14.44.35207\include\xtree
; File C:\Program Files\Microsoft Visual Studio\2022\Professional\VC\Tools\MSVC\14.44.35207\include\type_traits
; File C:\Program Files\Microsoft Visual Studio\2022\Professional\VC\Tools\MSVC\14.44.35207\include\xtree
; File C:\Program Files\Microsoft Visual Studio\2022\Professional\VC\Tools\MSVC\14.44.35207\include\xmemory
; File C:\Program Files\Microsoft Visual Studio\2022\Professional\VC\Tools\MSVC\14.44.35207\include\xtree
; File C:\Program Files\Microsoft Visual Studio\2022\Professional\VC\Tools\MSVC\14.44.35207\include\xmemory
; File C:\Program Files\Microsoft Visual Studio\2022\Professional\VC\Tools\MSVC\14.44.35207\include\utility
; File C:\Program Files\Microsoft Visual Studio\2022\Professional\VC\Tools\MSVC\14.44.35207\include\xmemory
; File C:\Program Files\Microsoft Visual Studio\2022\Professional\VC\Tools\MSVC\14.44.35207\include\xtree
; File C:\Program Files\Microsoft Visual Studio\2022\Professional\VC\Tools\MSVC\14.44.35207\include\utility
; File C:\Program Files\Microsoft Visual Studio\2022\Professional\VC\Tools\MSVC\14.44.35207\include\xtree
; File C:\Program Files\Microsoft Visual Studio\2022\Professional\VC\Tools\MSVC\14.44.35207\include\utility
; File C:\Program Files\Microsoft Visual Studio\2022\Professional\VC\Tools\MSVC\14.44.35207\include\xtree
; File C:\IAGOS\server\v18\Source\Source\_Common\EventLua.cpp
; File C:\IAGOS\server\v18\Source\Source\_Common\LuaBase.h
; File C:\IAGOS\server\v18\Source\Source\_Common\EventLua.cpp
; File C:\Program Files\Microsoft Visual Studio\2022\Professional\VC\Tools\MSVC\14.44.35207\include\xtree
; File C:\IAGOS\server\v18\Source\Source\_Common\EventLua.cpp
;	COMDAT ?GetItem@CEventLua@@QAE?AV?$map@KHU?$less@K@std@@V?$allocator@U?$pair@$$CBKH@std@@@2@@std@@K@Z
_TEXT	SEGMENT
$T2 = -64						; size = 12
__Loc$3 = -52						; size = 12
$T4 = -40						; size = 8
tv895 = -32						; size = 8
$T5 = -24						; size = 8
_dwTickCount$1$ = -20					; size = 4
$T6 = -16						; size = 4
__$EHRec$ = -12						; size = 12
___$ReturnUdt$ = 8					; size = 4
_dwLevel$ = 12						; size = 4
_dwItem$1$ = 12						; size = 4
?GetItem@CEventLua@@QAE?AV?$map@KHU?$less@K@std@@V?$allocator@U?$pair@$$CBKH@std@@@2@@std@@K@Z PROC ; CEventLua::GetItem, COMDAT
; _this$ = ecx

; 243  : {

  00000	55		 push	 ebp
  00001	8b ec		 mov	 ebp, esp
  00003	6a ff		 push	 -1
  00005	68 00 00 00 00	 push	 __ehhandler$?GetItem@CEventLua@@QAE?AV?$map@KHU?$less@K@std@@V?$allocator@U?$pair@$$CBKH@std@@@2@@std@@K@Z
  0000a	64 a1 00 00 00
	00		 mov	 eax, DWORD PTR fs:0
  00010	50		 push	 eax
  00011	83 ec 34	 sub	 esp, 52			; 00000034H
  00014	53		 push	 ebx
  00015	56		 push	 esi
  00016	57		 push	 edi
  00017	a1 00 00 00 00	 mov	 eax, DWORD PTR ___security_cookie
  0001c	33 c5		 xor	 eax, ebp
  0001e	50		 push	 eax
  0001f	8d 45 f4	 lea	 eax, DWORD PTR __$EHRec$[ebp]
  00022	64 a3 00 00 00
	00		 mov	 DWORD PTR fs:0, eax
  00028	8b d9		 mov	 ebx, ecx
  0002a	c7 45 f0 01 00
	00 00		 mov	 DWORD PTR $T6[ebp], 1
; File C:\Program Files\Microsoft Visual Studio\2022\Professional\VC\Tools\MSVC\14.44.35207\include\xtree

; 450  :     _Tree_val() noexcept : _Myhead(), _Mysize(0) {}

  00031	8b 7d 08	 mov	 edi, DWORD PTR ___$ReturnUdt$[ebp]
; File C:\Program Files\Microsoft Visual Studio\2022\Professional\VC\Tools\MSVC\14.44.35207\include\xmemory

; 136  :         return ::operator new(_Bytes);

  00034	6a 18		 push	 24			; 00000018H
; File C:\Program Files\Microsoft Visual Studio\2022\Professional\VC\Tools\MSVC\14.44.35207\include\xtree

; 450  :     _Tree_val() noexcept : _Myhead(), _Mysize(0) {}

  00036	c7 07 00 00 00
	00		 mov	 DWORD PTR [edi], 0
  0003c	c7 47 04 00 00
	00 00		 mov	 DWORD PTR [edi+4], 0
; File C:\Program Files\Microsoft Visual Studio\2022\Professional\VC\Tools\MSVC\14.44.35207\include\xmemory

; 136  :         return ::operator new(_Bytes);

  00043	e8 00 00 00 00	 call	 ??2@YAPAXI@Z		; operator new
  00048	83 c4 04	 add	 esp, 4
; File C:\Program Files\Microsoft Visual Studio\2022\Professional\VC\Tools\MSVC\14.44.35207\include\xtree

; 346  :         _Construct_in_place(_Pnode->_Left, _Pnode);

  0004b	89 00		 mov	 DWORD PTR [eax], eax

; 347  :         _Construct_in_place(_Pnode->_Parent, _Pnode);

  0004d	89 40 04	 mov	 DWORD PTR [eax+4], eax

; 348  :         _Construct_in_place(_Pnode->_Right, _Pnode);

  00050	89 40 08	 mov	 DWORD PTR [eax+8], eax

; 349  :         _Pnode->_Color = _Black;

  00053	66 c7 40 0c 01
	01		 mov	 WORD PTR [eax+12], 257	; 00000101H

; 1957 :         _Scary->_Myhead = _Node::_Buyheadnode(_Getal());

  00059	89 07		 mov	 DWORD PTR [edi], eax
; File C:\IAGOS\server\v18\Source\Source\_Common\EventLua.cpp

; 246  : 	if( !IsPossible() )

  0005b	83 7b 04 00	 cmp	 DWORD PTR [ebx+4], 0
  0005f	c7 45 fc 00 00
	00 00		 mov	 DWORD PTR __$EHRec$[ebp+8], 0
  00066	c7 45 f0 01 00
	00 00		 mov	 DWORD PTR $T6[ebp], 1
  0006d	0f 84 96 01 00
	00		 je	 $LN196@GetItem

; 247  : 		return mapItem;
; 248  : 
; 249  : 	DWORD dwTickCount	= GetTickCount();

  00073	ff 15 00 00 00
	00		 call	 DWORD PTR __imp__GetTickCount@0

; 250  : 	if( m_Lua.GetLuaFunction( "GetItem" ) )

  00079	8d 73 08	 lea	 esi, DWORD PTR [ebx+8]
  0007c	89 45 ec	 mov	 DWORD PTR _dwTickCount$1$[ebp], eax
  0007f	68 00 00 00 00	 push	 OFFSET ??_C@_07NPEJNGCF@GetItem@
  00084	8b ce		 mov	 ecx, esi
  00086	e8 00 00 00 00	 call	 ?GetLuaFunction@CLuaBase@@QAEHPAD@Z ; CLuaBase::GetLuaFunction
  0008b	85 c0		 test	 eax, eax
  0008d	0f 84 6d 01 00
	00		 je	 $LN3@GetItem

; 252  : 		m_Lua.PushNumber( dwTickCount );

  00093	8b 45 ec	 mov	 eax, DWORD PTR _dwTickCount$1$[ebp]
; File C:\IAGOS\server\v18\Source\Source\_Common\LuaBase.h

; 36   : 	void		PushNumber( double nValue )					{  lua_pushnumber( m_pLuaState, nValue );  }

  00096	83 ec 08	 sub	 esp, 8
  00099	66 0f 6e c0	 movd	 xmm0, eax
; File C:\IAGOS\server\v18\Source\Source\_Common\EventLua.cpp

; 252  : 		m_Lua.PushNumber( dwTickCount );

  0009d	f3 0f e6 c0	 cvtdq2pd xmm0, xmm0
  000a1	c1 e8 1f	 shr	 eax, 31			; 0000001fH
  000a4	f2 0f 58 04 c5
	00 00 00 00	 addsd	 xmm0, QWORD PTR __xmm@41f00000000000000000000000000000[eax*8]
; File C:\IAGOS\server\v18\Source\Source\_Common\LuaBase.h

; 36   : 	void		PushNumber( double nValue )					{  lua_pushnumber( m_pLuaState, nValue );  }

  000ad	f2 0f 11 04 24	 movsd	 QWORD PTR [esp], xmm0
  000b2	ff 73 0c	 push	 DWORD PTR [ebx+12]
  000b5	e8 00 00 00 00	 call	 _lua_pushnumber
; File C:\IAGOS\server\v18\Source\Source\_Common\EventLua.cpp

; 253  : 		m_Lua.PushNumber( dwLevel );

  000ba	8b 45 0c	 mov	 eax, DWORD PTR _dwLevel$[ebp]
; File C:\IAGOS\server\v18\Source\Source\_Common\LuaBase.h

; 36   : 	void		PushNumber( double nValue )					{  lua_pushnumber( m_pLuaState, nValue );  }

  000bd	83 c4 04	 add	 esp, 4
  000c0	66 0f 6e c0	 movd	 xmm0, eax
; File C:\IAGOS\server\v18\Source\Source\_Common\EventLua.cpp

; 253  : 		m_Lua.PushNumber( dwLevel );

  000c4	f3 0f e6 c0	 cvtdq2pd xmm0, xmm0
  000c8	c1 e8 1f	 shr	 eax, 31			; 0000001fH
  000cb	f2 0f 58 04 c5
	00 00 00 00	 addsd	 xmm0, QWORD PTR __xmm@41f00000000000000000000000000000[eax*8]
; File C:\IAGOS\server\v18\Source\Source\_Common\LuaBase.h

; 36   : 	void		PushNumber( double nValue )					{  lua_pushnumber( m_pLuaState, nValue );  }

  000d4	f2 0f 11 04 24	 movsd	 QWORD PTR [esp], xmm0
  000d9	ff 73 0c	 push	 DWORD PTR [ebx+12]
  000dc	e8 00 00 00 00	 call	 _lua_pushnumber
  000e1	83 c4 0c	 add	 esp, 12			; 0000000cH
; File C:\IAGOS\server\v18\Source\Source\_Common\EventLua.cpp

; 254  : 		m_Lua.CallLuaFunction( 2, 1 );

  000e4	8b ce		 mov	 ecx, esi
  000e6	6a 01		 push	 1
  000e8	6a 02		 push	 2
  000ea	e8 00 00 00 00	 call	 ?CallLuaFunction@CLuaBase@@QAEXHH@Z ; CLuaBase::CallLuaFunction
; File C:\IAGOS\server\v18\Source\Source\_Common\LuaBase.h

; 33   : 	BOOL		IsNil( int nStackPos )						{  return lua_isnil( m_pLuaState, nStackPos );  }

  000ef	6a ff		 push	 -1
  000f1	ff 73 0c	 push	 DWORD PTR [ebx+12]
  000f4	e8 00 00 00 00	 call	 _lua_type
  000f9	83 c4 08	 add	 esp, 8
  000fc	85 c0		 test	 eax, eax
; File C:\IAGOS\server\v18\Source\Source\_Common\EventLua.cpp

; 255  : 		if( m_Lua.IsNil( -1 ) )

  000fe	0f 84 fc 00 00
	00		 je	 $LN3@GetItem
; File C:\IAGOS\server\v18\Source\Source\_Common\LuaBase.h

; 40   : 	void		PushNil()									{  lua_pushnil( m_pLuaState );  }

  00104	ff 73 0c	 push	 DWORD PTR [ebx+12]
  00107	e8 00 00 00 00	 call	 _lua_pushnil

; 46   : 	int			TableLoop( int nStackPos )					{  return lua_next( m_pLuaState, nStackPos );  }	

  0010c	6a fe		 push	 -2			; fffffffeH
  0010e	ff 73 0c	 push	 DWORD PTR [ebx+12]
  00111	e8 00 00 00 00	 call	 _lua_next
  00116	83 c4 0c	 add	 esp, 12			; 0000000cH
; File C:\IAGOS\server\v18\Source\Source\_Common\EventLua.cpp

; 262  : 		while( m_Lua.TableLoop(-2) )

  00119	85 c0		 test	 eax, eax
  0011b	0f 84 df 00 00
	00		 je	 $LN3@GetItem
$LL2@GetItem:

; 263  : 		{
; 264  : 			DWORD dwItem = CScript::GetDefineNum( m_Lua.GetFieldToString( -1, "ItemId" ) );

  00121	68 00 00 00 00	 push	 OFFSET ??_C@_06MFPHJAPD@ItemId@
  00126	6a ff		 push	 -1
  00128	8b ce		 mov	 ecx, esi
  0012a	e8 00 00 00 00	 call	 ?GetFieldToString@CLuaBase@@QAEPBDHPAD@Z ; CLuaBase::GetFieldToString
  0012f	50		 push	 eax
  00130	e8 00 00 00 00	 call	 ?GetDefineNum@CScript@@SAHPBD@Z ; CScript::GetDefineNum
  00135	83 c4 04	 add	 esp, 4

; 265  : 			int	nNum = (int)m_Lua.GetFieldToNumber( -1, "ItemNum" );

  00138	8d 4b 08	 lea	 ecx, DWORD PTR [ebx+8]
  0013b	8b f0		 mov	 esi, eax
  0013d	89 75 0c	 mov	 DWORD PTR _dwItem$1$[ebp], esi
  00140	68 00 00 00 00	 push	 OFFSET ??_C@_07HEBBLACC@ItemNum@
  00145	6a ff		 push	 -1
  00147	e8 00 00 00 00	 call	 ?GetFieldToNumber@CLuaBase@@QAENHPAD@Z ; CLuaBase::GetFieldToNumber
  0014c	dd 5d e0	 fstp	 QWORD PTR tv895[ebp]
  0014f	f2 0f 2c 45 e0	 cvttsd2si eax, QWORD PTR tv895[ebp]
; File C:\Program Files\Microsoft Visual Studio\2022\Professional\VC\Tools\MSVC\14.44.35207\include\xtree

; 1017 :             _Loc                = _Find_lower_bound(_Keyval);

  00154	8b cf		 mov	 ecx, edi
; File C:\Program Files\Microsoft Visual Studio\2022\Professional\VC\Tools\MSVC\14.44.35207\include\utility

; 274  :         : first(_STD forward<_Other1>(_Val1)), second(_STD forward<_Other2>(_Val2)) {

  00156	89 75 e8	 mov	 DWORD PTR $T5[ebp], esi
  00159	89 45 ec	 mov	 DWORD PTR $T5[ebp+4], eax
; File C:\Program Files\Microsoft Visual Studio\2022\Professional\VC\Tools\MSVC\14.44.35207\include\xtree

; 1017 :             _Loc                = _Find_lower_bound(_Keyval);

  0015c	8d 45 e8	 lea	 eax, DWORD PTR $T5[ebp]
  0015f	50		 push	 eax
  00160	8d 45 c0	 lea	 eax, DWORD PTR $T2[ebp]
  00163	50		 push	 eax
  00164	e8 00 00 00 00	 call	 ??$_Find_lower_bound@K@?$_Tree@V?$_Tmap_traits@KHU?$less@K@std@@V?$allocator@U?$pair@$$CBKH@std@@@2@$0A@@std@@@std@@IBE?AU?$_Tree_find_result@PAU?$_Tree_node@U?$pair@$$CBKH@std@@PAX@std@@@1@ABK@Z ; std::_Tree<std::_Tmap_traits<unsigned long,int,std::less<unsigned long>,std::allocator<std::pair<unsigned long const ,int> >,0> >::_Find_lower_bound<unsigned long>
  00169	f3 0f 7e 00	 movq	 xmm0, QWORD PTR [eax]
  0016d	8b 40 08	 mov	 eax, DWORD PTR [eax+8]
  00170	66 0f d6 45 cc	 movq	 QWORD PTR __Loc$3[ebp], xmm0

; 1624 :         return !_Bound->_Isnil && !_DEBUG_LT_PRED(_Getcomp(), _Keyval, _Traits::_Kfn(_Bound->_Myval));

  00175	80 78 0d 00	 cmp	 BYTE PTR [eax+13], 0
  00179	75 05		 jne	 SHORT $LN84@GetItem
; File C:\Program Files\Microsoft Visual Studio\2022\Professional\VC\Tools\MSVC\14.44.35207\include\type_traits

; 2380 :         return _Left < _Right;

  0017b	3b 70 10	 cmp	 esi, DWORD PTR [eax+16]
; File C:\Program Files\Microsoft Visual Studio\2022\Professional\VC\Tools\MSVC\14.44.35207\include\xtree

; 1624 :         return !_Bound->_Isnil && !_DEBUG_LT_PRED(_Getcomp(), _Keyval, _Traits::_Kfn(_Bound->_Myval));

  0017e	73 5f		 jae	 SHORT $LN164@GetItem
$LN84@GetItem:

; 1648 :         if (max_size() == _Get_scary()->_Mysize) {

  00180	81 7f 04 aa aa
	aa 0a		 cmp	 DWORD PTR [edi+4], 178956970 ; 0aaaaaaaH
  00187	0f 84 92 00 00
	00		 je	 $LN186@GetItem

; 1023 :             _Inserted = _Tree_temp_node<_Alnode>(_Getal(), _Scary->_Myhead, _STD forward<_Valtys>(_Vals)...)._Release();

  0018d	8b 37		 mov	 esi, DWORD PTR [edi]
; File C:\Program Files\Microsoft Visual Studio\2022\Professional\VC\Tools\MSVC\14.44.35207\include\xmemory

; 1160 :     _CONSTEXPR20 explicit _Alloc_construct_ptr(_Alloc& _Al_) : _Al(_Al_), _Ptr(nullptr) {}

  0018f	89 7d d8	 mov	 DWORD PTR $T4[ebp], edi

; 136  :         return ::operator new(_Bytes);

  00192	6a 18		 push	 24			; 00000018H
; File C:\Program Files\Microsoft Visual Studio\2022\Professional\VC\Tools\MSVC\14.44.35207\include\xtree

; 808  :     explicit _Tree_temp_node_alloc(_Alnode& _Al_) : _Alloc_construct_ptr<_Alnode>(_Al_) {

  00194	c7 45 fc 01 00
	00 00		 mov	 DWORD PTR __$EHRec$[ebp+8], 1
; File C:\Program Files\Microsoft Visual Studio\2022\Professional\VC\Tools\MSVC\14.44.35207\include\xmemory

; 1167 :         _Ptr = nullptr; // if allocate throws, prevents double-free

  0019b	c7 45 dc 00 00
	00 00		 mov	 DWORD PTR $T4[ebp+4], 0

; 136  :         return ::operator new(_Bytes);

  001a2	e8 00 00 00 00	 call	 ??2@YAPAXI@Z		; operator new
; File C:\Program Files\Microsoft Visual Studio\2022\Professional\VC\Tools\MSVC\14.44.35207\include\utility

; 303  :         : first(_STD forward<_Other1>(_Right.first)), second(_STD forward<_Other2>(_Right.second)) {}

  001a7	8b 4d 0c	 mov	 ecx, DWORD PTR _dwItem$1$[ebp]
; File C:\Program Files\Microsoft Visual Studio\2022\Professional\VC\Tools\MSVC\14.44.35207\include\xmemory

; 136  :         return ::operator new(_Bytes);

  001aa	83 c4 04	 add	 esp, 4
; File C:\Program Files\Microsoft Visual Studio\2022\Professional\VC\Tools\MSVC\14.44.35207\include\xtree

; 810  :     }

  001ad	c6 45 fc 00	 mov	 BYTE PTR __$EHRec$[ebp+8], 0
; File C:\Program Files\Microsoft Visual Studio\2022\Professional\VC\Tools\MSVC\14.44.35207\include\utility

; 774  :     _Val         = static_cast<_Other&&>(_New_val);

  001b1	c7 45 dc 00 00
	00 00		 mov	 DWORD PTR $T4[ebp+4], 0

; 303  :         : first(_STD forward<_Other1>(_Right.first)), second(_STD forward<_Other2>(_Right.second)) {}

  001b8	89 48 10	 mov	 DWORD PTR [eax+16], ecx
  001bb	f2 0f 2c 4d e0	 cvttsd2si ecx, QWORD PTR tv895[ebp]
; File C:\Program Files\Microsoft Visual Studio\2022\Professional\VC\Tools\MSVC\14.44.35207\include\xtree

; 1042 :         return {_Scary->_Insert_node(_Loc._Location, _Inserted), true};

  001c0	50		 push	 eax
  001c1	ff 75 d0	 push	 DWORD PTR __Loc$3[ebp+4]
; File C:\Program Files\Microsoft Visual Studio\2022\Professional\VC\Tools\MSVC\14.44.35207\include\utility

; 303  :         : first(_STD forward<_Other1>(_Right.first)), second(_STD forward<_Other2>(_Right.second)) {}

  001c4	89 48 14	 mov	 DWORD PTR [eax+20], ecx
; File C:\Program Files\Microsoft Visual Studio\2022\Professional\VC\Tools\MSVC\14.44.35207\include\xtree

; 1042 :         return {_Scary->_Insert_node(_Loc._Location, _Inserted), true};

  001c7	8b cf		 mov	 ecx, edi
  001c9	ff 75 cc	 push	 DWORD PTR __Loc$3[ebp]

; 831  :         _Construct_in_place(this->_Ptr->_Left, _Myhead);

  001cc	89 30		 mov	 DWORD PTR [eax], esi

; 832  :         _Construct_in_place(this->_Ptr->_Parent, _Myhead);

  001ce	89 70 04	 mov	 DWORD PTR [eax+4], esi

; 833  :         _Construct_in_place(this->_Ptr->_Right, _Myhead);

  001d1	89 70 08	 mov	 DWORD PTR [eax+8], esi

; 834  :         this->_Ptr->_Color = _Red;

  001d4	66 c7 40 0c 00
	00		 mov	 WORD PTR [eax+12], 0

; 1042 :         return {_Scary->_Insert_node(_Loc._Location, _Inserted), true};

  001da	e8 00 00 00 00	 call	 ?_Insert_node@?$_Tree_val@U?$_Tree_simple_types@U?$pair@$$CBKH@std@@@std@@@std@@QAEPAU?$_Tree_node@U?$pair@$$CBKH@std@@PAX@2@U?$_Tree_id@PAU?$_Tree_node@U?$pair@$$CBKH@std@@PAX@std@@@2@QAU32@@Z ; std::_Tree_val<std::_Tree_simple_types<std::pair<unsigned long const ,int> > >::_Insert_node
$LN164@GetItem:
; File C:\IAGOS\server\v18\Source\Source\_Common\EventLua.cpp

; 267  : 			m_Lua.Pop(1);

  001df	8d 73 08	 lea	 esi, DWORD PTR [ebx+8]
  001e2	6a 01		 push	 1
  001e4	8b ce		 mov	 ecx, esi
  001e6	e8 00 00 00 00	 call	 ?Pop@CLuaBase@@QAEXH@Z	; CLuaBase::Pop
; File C:\IAGOS\server\v18\Source\Source\_Common\LuaBase.h

; 46   : 	int			TableLoop( int nStackPos )					{  return lua_next( m_pLuaState, nStackPos );  }	

  001eb	6a fe		 push	 -2			; fffffffeH
  001ed	ff 73 0c	 push	 DWORD PTR [ebx+12]
  001f0	e8 00 00 00 00	 call	 _lua_next
  001f5	83 c4 08	 add	 esp, 8
; File C:\IAGOS\server\v18\Source\Source\_Common\EventLua.cpp

; 262  : 		while( m_Lua.TableLoop(-2) )

  001f8	85 c0		 test	 eax, eax
  001fa	0f 85 21 ff ff
	ff		 jne	 $LL2@GetItem
$LN3@GetItem:

; 268  : 		}
; 269  : 	}
; 270  : 	m_Lua.Pop(0);

  00200	6a 00		 push	 0
  00202	8b ce		 mov	 ecx, esi
  00204	e8 00 00 00 00	 call	 ?Pop@CLuaBase@@QAEXH@Z	; CLuaBase::Pop
$LN196@GetItem:

; 273  : }

  00209	8b c7		 mov	 eax, edi
  0020b	8b 4d f4	 mov	 ecx, DWORD PTR __$EHRec$[ebp]
  0020e	64 89 0d 00 00
	00 00		 mov	 DWORD PTR fs:0, ecx
  00215	59		 pop	 ecx
  00216	5f		 pop	 edi
  00217	5e		 pop	 esi
  00218	5b		 pop	 ebx
  00219	8b e5		 mov	 esp, ebp
  0021b	5d		 pop	 ebp
  0021c	c2 08 00	 ret	 8
$LN186@GetItem:
; File C:\Program Files\Microsoft Visual Studio\2022\Professional\VC\Tools\MSVC\14.44.35207\include\xtree

; 1649 :             _Throw_tree_length_error();

  0021f	e8 00 00 00 00	 call	 ?_Throw_tree_length_error@std@@YAXXZ ; std::_Throw_tree_length_error
$LN195@GetItem:
  00224	cc		 int	 3
_TEXT	ENDS
;	COMDAT text$x
text$x	SEGMENT
__unwindfunclet$?GetItem@CEventLua@@QAE?AV?$map@KHU?$less@K@std@@V?$allocator@U?$pair@$$CBKH@std@@@2@@std@@K@Z$0:
  00000	8b 45 f0	 mov	 eax, DWORD PTR $T6[ebp]
  00003	83 e0 01	 and	 eax, 1
  00006	0f 84 0c 00 00
	00		 je	 $LN9@GetItem
  0000c	83 65 f0 fe	 and	 DWORD PTR $T6[ebp], -2	; fffffffeH
  00010	8b 4d 08	 mov	 ecx, DWORD PTR ___$ReturnUdt$[ebp]
  00013	e9 00 00 00 00	 jmp	 ??1?$map@KHU?$less@K@std@@V?$allocator@U?$pair@$$CBKH@std@@@2@@std@@QAE@XZ
$LN9@GetItem:
  00018	c3		 ret	 0
__unwindfunclet$?GetItem@CEventLua@@QAE?AV?$map@KHU?$less@K@std@@V?$allocator@U?$pair@$$CBKH@std@@@2@@std@@K@Z$6:
  00019	8d 4d d8	 lea	 ecx, DWORD PTR $T4[ebp]
  0001c	e9 00 00 00 00	 jmp	 ??1?$_Alloc_construct_ptr@V?$allocator@U?$_Tree_node@U?$pair@$$CBKH@std@@PAX@std@@@std@@@std@@QAE@XZ ; std::_Alloc_construct_ptr<std::allocator<std::_Tree_node<std::pair<unsigned long const ,int>,void *> > >::~_Alloc_construct_ptr<std::allocator<std::_Tree_node<std::pair<unsigned long const ,int>,void *> > >
  00021	cc		 int	 3
  00022	cc		 int	 3
  00023	cc		 int	 3
  00024	cc		 int	 3
  00025	cc		 int	 3
__ehhandler$?GetItem@CEventLua@@QAE?AV?$map@KHU?$less@K@std@@V?$allocator@U?$pair@$$CBKH@std@@@2@@std@@K@Z:
  00026	90		 npad	 1
  00027	90		 npad	 1
  00028	8b 54 24 08	 mov	 edx, DWORD PTR [esp+8]
  0002c	8d 42 0c	 lea	 eax, DWORD PTR [edx+12]
  0002f	8b 4a bc	 mov	 ecx, DWORD PTR [edx-68]
  00032	33 c8		 xor	 ecx, eax
  00034	e8 00 00 00 00	 call	 @__security_check_cookie@4
  00039	b8 00 00 00 00	 mov	 eax, OFFSET __ehfuncinfo$?GetItem@CEventLua@@QAE?AV?$map@KHU?$less@K@std@@V?$allocator@U?$pair@$$CBKH@std@@@2@@std@@K@Z
  0003e	e9 00 00 00 00	 jmp	 ___CxxFrameHandler3
text$x	ENDS
?GetItem@CEventLua@@QAE?AV?$map@KHU?$less@K@std@@V?$allocator@U?$pair@$$CBKH@std@@@2@@std@@K@Z ENDP ; CEventLua::GetItem
; Function compile flags: /Ogtp
; File C:\IAGOS\server\v18\Source\Source\_Common\EventLua.cpp
; File C:\IAGOS\server\v18\Source\Source\_Common\LuaBase.h
; File C:\IAGOS\server\v18\Source\Source\_Common\EventLua.cpp
; File C:\IAGOS\server\v18\Source\Source\_Common\LuaBase.h
; File C:\IAGOS\server\v18\Source\Source\_Common\EventLua.cpp
; File C:\IAGOS\server\v18\Source\Source\_Common\LuaBase.h
; File C:\IAGOS\server\v18\Source\Source\_Common\EventLua.cpp
; File C:\IAGOS\server\v18\Source\Source\_Common\LuaBase.h
; File C:\IAGOS\server\v18\Source\Source\_Common\EventLua.cpp
; File C:\IAGOS\server\v18\Source\Source\_Common\LuaBase.h
; File C:\IAGOS\server\v18\Source\Source\_Common\EventLua.cpp
; File C:\IAGOS\server\v18\Source\Source\_Common\Project.h
; File C:\IAGOS\server\v18\Source\Source\_Common\EventLua.cpp
; File C:\IAGOS\server\v18\Source\Source\_Common\Project.h
; File C:\IAGOS\server\v18\Source\Source\_Common\data.h
; File C:\IAGOS\server\v18\Source\Source\_Common\EventLua.cpp
; File C:\IAGOS\server\v18\Source\Source\_Common\Item.h
; File C:\IAGOS\server\v18\Source\Source\_Common\EventLua.cpp
; File C:\IAGOS\server\v18\Source\Source\_network\CmnHdr.h
; File C:\IAGOS\server\v18\Source\Source\_Common\EventLua.cpp
; File C:\IAGOS\server\v18\Source\Source\_network\CmnHdr.h
; File C:\IAGOS\server\v18\Source\Source\_Common\EventLua.cpp
; File C:\IAGOS\server\v18\Source\Source\_network\CmnHdr.h
; File C:\IAGOS\server\v18\Source\Source\_Common\EventLua.cpp
; File C:\Program Files\Microsoft Visual Studio\2022\Professional\VC\Tools\MSVC\14.44.35207\atlmfc\include\atlsimpstr.h
; File C:\IAGOS\server\v18\Source\Source\_Common\EventLua.cpp
; File C:\Program Files\Microsoft Visual Studio\2022\Professional\VC\Tools\MSVC\14.44.35207\atlmfc\include\atlsimpstr.h
; File C:\IAGOS\server\v18\Source\Source\_Common\EventLua.cpp
; File C:\IAGOS\server\v18\Source\Source\_Common\Project.h
; File C:\IAGOS\server\v18\Source\Source\_Common\EventLua.cpp
; File C:\IAGOS\server\v18\Source\Source\_Common\LuaBase.h
; File C:\IAGOS\server\v18\Source\Source\_Common\EventLua.cpp
;	COMDAT ?SetLevelUpGift@CEventLua@@QAEXPAVCUser@@H@Z
_TEXT	SEGMENT
tv550 = -420						; size = 8
tv556 = -412						; size = 8
_this$GSCopy$1$ = -404					; size = 4
$T2 = -400						; size = 4
_pUser$GSCopy$1$ = -396					; size = 4
_aLogItem$3 = -392					; size = 200
_itemElem$4 = -192					; size = 176
__$ArrayPad$ = -16					; size = 4
__$EHRec$ = -12						; size = 12
_pUser$ = 8						; size = 4
_nLevel$ = 12						; size = 4
?SetLevelUpGift@CEventLua@@QAEXPAVCUser@@H@Z PROC	; CEventLua::SetLevelUpGift, COMDAT
; _this$ = ecx

; 514  : {

  00000	55		 push	 ebp
  00001	8b ec		 mov	 ebp, esp
  00003	6a ff		 push	 -1
  00005	68 00 00 00 00	 push	 __ehhandler$?SetLevelUpGift@CEventLua@@QAEXPAVCUser@@H@Z
  0000a	64 a1 00 00 00
	00		 mov	 eax, DWORD PTR fs:0
  00010	50		 push	 eax
  00011	81 ec 98 01 00
	00		 sub	 esp, 408		; 00000198H
  00017	a1 00 00 00 00	 mov	 eax, DWORD PTR ___security_cookie
  0001c	33 c5		 xor	 eax, ebp
  0001e	89 45 f0	 mov	 DWORD PTR __$ArrayPad$[ebp], eax
  00021	56		 push	 esi
  00022	57		 push	 edi
  00023	50		 push	 eax
  00024	8d 45 f4	 lea	 eax, DWORD PTR __$EHRec$[ebp]
  00027	64 a3 00 00 00
	00		 mov	 DWORD PTR fs:0, eax
  0002d	8b f9		 mov	 edi, ecx
  0002f	89 bd 6c fe ff
	ff		 mov	 DWORD PTR _this$GSCopy$1$[ebp], edi

; 515  : 	if( !IsPossible() )

  00035	83 7f 04 00	 cmp	 DWORD PTR [edi+4], 0
  00039	8b 45 08	 mov	 eax, DWORD PTR _pUser$[ebp]
  0003c	89 85 74 fe ff
	ff		 mov	 DWORD PTR _pUser$GSCopy$1$[ebp], eax
  00042	0f 84 b7 03 00
	00		 je	 $LN1@SetLevelUp

; 516  : 		return;
; 517  : 
; 518  : 	if( m_Lua.GetLuaFunction( "GetLevelUpGift" ) )

  00048	8d 77 08	 lea	 esi, DWORD PTR [edi+8]
  0004b	68 00 00 00 00	 push	 OFFSET ??_C@_0P@KENDMHID@GetLevelUpGift@
  00050	8b ce		 mov	 ecx, esi
  00052	e8 00 00 00 00	 call	 ?GetLuaFunction@CLuaBase@@QAEHPAD@Z ; CLuaBase::GetLuaFunction
  00057	85 c0		 test	 eax, eax
  00059	0f 84 97 03 00
	00		 je	 $LN3@SetLevelUp
  0005f	66 0f 6e 45 0c	 movd	 xmm0, DWORD PTR _nLevel$[ebp]
; File C:\IAGOS\server\v18\Source\Source\_Common\LuaBase.h

; 36   : 	void		PushNumber( double nValue )					{  lua_pushnumber( m_pLuaState, nValue );  }

  00064	83 ec 08	 sub	 esp, 8
; File C:\IAGOS\server\v18\Source\Source\_Common\EventLua.cpp

; 520  : 		m_Lua.PushNumber( nLevel );

  00067	f3 0f e6 c0	 cvtdq2pd xmm0, xmm0
; File C:\IAGOS\server\v18\Source\Source\_Common\LuaBase.h

; 36   : 	void		PushNumber( double nValue )					{  lua_pushnumber( m_pLuaState, nValue );  }

  0006b	f2 0f 11 04 24	 movsd	 QWORD PTR [esp], xmm0
  00070	ff 77 0c	 push	 DWORD PTR [edi+12]
  00073	e8 00 00 00 00	 call	 _lua_pushnumber
; File C:\IAGOS\server\v18\Source\Source\_Common\EventLua.cpp

; 521  : 		m_Lua.PushString( pUser->m_playAccount.lpszAccount );

  00078	8b 85 74 fe ff
	ff		 mov	 eax, DWORD PTR _pUser$GSCopy$1$[ebp]
  0007e	05 88 55 00 00	 add	 eax, 21896		; 00005588H
; File C:\IAGOS\server\v18\Source\Source\_Common\LuaBase.h

; 37   : 	void		PushString( const char* szValue )			{  lua_pushstring( m_pLuaState, szValue );  }

  00083	50		 push	 eax
  00084	ff 77 0c	 push	 DWORD PTR [edi+12]
  00087	e8 00 00 00 00	 call	 _lua_pushstring
  0008c	83 c4 14	 add	 esp, 20			; 00000014H
; File C:\IAGOS\server\v18\Source\Source\_Common\EventLua.cpp

; 522  : 		m_Lua.CallLuaFunction( 2, 1 );

  0008f	8b ce		 mov	 ecx, esi
  00091	6a 01		 push	 1
  00093	6a 02		 push	 2
  00095	e8 00 00 00 00	 call	 ?CallLuaFunction@CLuaBase@@QAEXHH@Z ; CLuaBase::CallLuaFunction
; File C:\IAGOS\server\v18\Source\Source\_Common\LuaBase.h

; 33   : 	BOOL		IsNil( int nStackPos )						{  return lua_isnil( m_pLuaState, nStackPos );  }

  0009a	6a ff		 push	 -1
  0009c	ff 77 0c	 push	 DWORD PTR [edi+12]
  0009f	e8 00 00 00 00	 call	 _lua_type
  000a4	83 c4 08	 add	 esp, 8
  000a7	85 c0		 test	 eax, eax
; File C:\IAGOS\server\v18\Source\Source\_Common\EventLua.cpp

; 523  : 		if( m_Lua.IsNil( -1 ) )

  000a9	0f 84 47 03 00
	00		 je	 $LN3@SetLevelUp
; File C:\IAGOS\server\v18\Source\Source\_Common\LuaBase.h

; 40   : 	void		PushNil()									{  lua_pushnil( m_pLuaState );  }

  000af	ff 77 0c	 push	 DWORD PTR [edi+12]
  000b2	e8 00 00 00 00	 call	 _lua_pushnil

; 46   : 	int			TableLoop( int nStackPos )					{  return lua_next( m_pLuaState, nStackPos );  }	

  000b7	6a fe		 push	 -2			; fffffffeH
  000b9	ff 77 0c	 push	 DWORD PTR [edi+12]
  000bc	e8 00 00 00 00	 call	 _lua_next
  000c1	83 c4 0c	 add	 esp, 12			; 0000000cH
; File C:\IAGOS\server\v18\Source\Source\_Common\EventLua.cpp

; 530  : 		while( m_Lua.TableLoop(-2) )

  000c4	85 c0		 test	 eax, eax
  000c6	0f 84 2a 03 00
	00		 je	 $LN3@SetLevelUp
  000cc	0f 1f 40 00	 npad	 4
$LL2@SetLevelUp:

; 531  : 		{
; 532  : 			DWORD dwItemId = CScript::GetDefineNum( m_Lua.GetFieldToString( -1, "strItemId" ) );

  000d0	68 00 00 00 00	 push	 OFFSET ??_C@_09OFFFBNFE@strItemId@
  000d5	6a ff		 push	 -1
  000d7	8b ce		 mov	 ecx, esi
  000d9	e8 00 00 00 00	 call	 ?GetFieldToString@CLuaBase@@QAEPBDHPAD@Z ; CLuaBase::GetFieldToString
  000de	50		 push	 eax
  000df	e8 00 00 00 00	 call	 ?GetDefineNum@CScript@@SAHPBD@Z ; CScript::GetDefineNum
  000e4	83 c4 04	 add	 esp, 4

; 533  : 			int	nItemNum = (int)m_Lua.GetFieldToNumber( -1, "nItemNum" );

  000e7	8b ce		 mov	 ecx, esi
  000e9	8b f8		 mov	 edi, eax
  000eb	68 00 00 00 00	 push	 OFFSET ??_C@_08GDJLCBND@nItemNum@
  000f0	6a ff		 push	 -1
  000f2	e8 00 00 00 00	 call	 ?GetFieldToNumber@CLuaBase@@QAENHPAD@Z ; CLuaBase::GetFieldToNumber
; File C:\IAGOS\server\v18\Source\Source\_Common\Project.h

; 1389 : 	VERIFY_RANGE_ASSERT( nIndex, 0, m_aPropItem.GetSize(), "GetItemProp range_error", NULL );

  000f7	a1 40 02 00 00	 mov	 eax, DWORD PTR ?prj@@3VCProject@@A+576
; File C:\IAGOS\server\v18\Source\Source\_Common\EventLua.cpp

; 533  : 			int	nItemNum = (int)m_Lua.GetFieldToNumber( -1, "nItemNum" );

  000fc	dd 9d 64 fe ff
	ff		 fstp	 QWORD PTR tv556[ebp]
; File C:\IAGOS\server\v18\Source\Source\_Common\Project.h

; 1389 : 	VERIFY_RANGE_ASSERT( nIndex, 0, m_aPropItem.GetSize(), "GetItemProp range_error", NULL );

  00102	85 ff		 test	 edi, edi
  00104	0f 88 96 02 00
	00		 js	 $LN28@SetLevelUp
  0010a	3b f8		 cmp	 edi, eax
  0010c	0f 8d 8e 02 00
	00		 jge	 $LN28@SetLevelUp
; File C:\IAGOS\server\v18\Source\Source\_Common\data.h

; 270  : 	if( dwIndex >= (DWORD)m_nMaxIndex )

  00112	72 04		 jb	 SHORT $LN33@SetLevelUp

; 271  : 		return NULL;

  00114	33 c0		 xor	 eax, eax
  00116	eb 08		 jmp	 SHORT $LN32@SetLevelUp
$LN33@SetLevelUp:

; 272  : 	return (T*) m_apOffset[ dwIndex ];

  00118	a1 30 02 00 00	 mov	 eax, DWORD PTR ?prj@@3VCProject@@A+560
  0011d	8b 04 b8	 mov	 eax, DWORD PTR [eax+edi*4]
$LN32@SetLevelUp:
; File C:\IAGOS\server\v18\Source\Source\_Common\EventLua.cpp

; 535  : 			if( !prj.GetItemProp( dwItemId ) )

  00120	85 c0		 test	 eax, eax
  00122	0f 84 8e 02 00
	00		 je	 $LN53@SetLevelUp

; 539  : 				continue;
; 540  : 			}
; 541  : 
; 542  : 			CItemElem itemElem;

  00128	8d 8d 40 ff ff
	ff		 lea	 ecx, DWORD PTR _itemElem$4[ebp]
  0012e	e8 00 00 00 00	 call	 ??0CItemElem@@QAE@XZ	; CItemElem::CItemElem

; 543  : 			itemElem.m_dwItemId = dwItemId;
; 544  : 			itemElem.m_nItemNum	= nItemNum;

  00133	f2 0f 2c 85 64
	fe ff ff	 cvttsd2si eax, QWORD PTR tv556[ebp]

; 545  : 			itemElem.SetFlag( static_cast<BYTE>( m_Lua.GetFieldToNumber( -1, "byFlag" ) ) );

  0013b	68 00 00 00 00	 push	 OFFSET ??_C@_06JHHNJIGB@byFlag@
  00140	6a ff		 push	 -1
  00142	8b ce		 mov	 ecx, esi
  00144	c7 45 fc 00 00
	00 00		 mov	 DWORD PTR __$EHRec$[ebp+8], 0
  0014b	89 bd 4c ff ff
	ff		 mov	 DWORD PTR _itemElem$4[ebp+12], edi
  00151	66 89 45 b4	 mov	 WORD PTR _itemElem$4[ebp+116], ax
  00155	e8 00 00 00 00	 call	 ?GetFieldToNumber@CLuaBase@@QAENHPAD@Z ; CLuaBase::GetFieldToNumber
  0015a	dd 9d 5c fe ff
	ff		 fstp	 QWORD PTR tv550[ebp]
  00160	f2 0f 2c 85 5c
	fe ff ff	 cvttsd2si eax, QWORD PTR tv550[ebp]

; 546  : 			itemElem.SetSerialNumber();

  00168	8d 8d 40 ff ff
	ff		 lea	 ecx, DWORD PTR _itemElem$4[ebp]
; File C:\IAGOS\server\v18\Source\Source\_Common\Item.h

; 256  : 	void	SetFlag( BYTE byFlag )		{	m_byFlag	|= byFlag;		}

  0016e	08 45 b6	 or	 BYTE PTR _itemElem$4[ebp+118], al
; File C:\IAGOS\server\v18\Source\Source\_Common\EventLua.cpp

; 546  : 			itemElem.SetSerialNumber();

  00171	e8 00 00 00 00	 call	 ?SetSerialNumber@CItemBase@@QAEXXZ ; CItemBase::SetSerialNumber

; 550  : 			aLogItem.SendName = pUser->GetName();

  00176	8b bd 74 fe ff
	ff		 mov	 edi, DWORD PTR _pUser$GSCopy$1$[ebp]
  0017c	0f 57 c0	 xorps	 xmm0, xmm0
; File C:\IAGOS\server\v18\Source\Source\_network\CmnHdr.h

; 645  : 		::memset( szItemName, 0, sizeof(szItemName) );

  0017f	0f 11 85 9c fe
	ff ff		 movups	 XMMWORD PTR _aLogItem$3[ebp+36], xmm0

; 683  : 		wPetEnergy = 0;

  00186	33 c0		 xor	 eax, eax
; File C:\IAGOS\server\v18\Source\Source\_Common\EventLua.cpp

; 550  : 			aLogItem.SendName = pUser->GetName();

  00188	8b cf		 mov	 ecx, edi
; File C:\IAGOS\server\v18\Source\Source\_network\CmnHdr.h

; 645  : 		::memset( szItemName, 0, sizeof(szItemName) );

  0018a	0f 11 85 ac fe
	ff ff		 movups	 XMMWORD PTR _aLogItem$3[ebp+52], xmm0
; File C:\IAGOS\server\v18\Source\Source\_Common\EventLua.cpp

; 550  : 			aLogItem.SendName = pUser->GetName();

  00191	50		 push	 eax
; File C:\IAGOS\server\v18\Source\Source\_network\CmnHdr.h

; 649  : 		nSlot = 100;

  00192	0f 28 05 00 00
	00 00		 movaps	 xmm0, XMMWORD PTR __xmm@00000000000000000000006400000064
  00199	0f 11 85 c8 fe
	ff ff		 movups	 XMMWORD PTR _aLogItem$3[ebp+80], xmm0
  001a0	c7 85 7c fe ff
	ff 00 00 00 00	 mov	 DWORD PTR _aLogItem$3[ebp+4], OFFSET ??_C@_00CNPNBAHC@@
  001aa	0f 57 c0	 xorps	 xmm0, xmm0

; 639  : 		RecvName = _T("");

  001ad	c7 85 80 fe ff
	ff 00 00 00 00	 mov	 DWORD PTR _aLogItem$3[ebp+8], OFFSET ??_C@_00CNPNBAHC@@

; 640  : 		WorldId = Gold = Gold2 = 0;

  001b7	c7 85 8c fe ff
	ff 00 00 00 00	 mov	 DWORD PTR _aLogItem$3[ebp+20], 0
  001c1	c7 85 88 fe ff
	ff 00 00 00 00	 mov	 DWORD PTR _aLogItem$3[ebp+16], 0
  001cb	c7 85 84 fe ff
	ff 00 00 00 00	 mov	 DWORD PTR _aLogItem$3[ebp+12], 0

; 641  : 		Negudo = 0;

  001d5	c7 85 94 fe ff
	ff 00 00 00 00	 mov	 DWORD PTR _aLogItem$3[ebp+28], 0

; 642  : 		MaxNegudo = 0;

  001df	c7 85 98 fe ff
	ff 00 00 00 00	 mov	 DWORD PTR _aLogItem$3[ebp+32], 0

; 643  : 		ItemNo = 0;

  001e9	c7 85 90 fe ff
	ff 00 00 00 00	 mov	 DWORD PTR _aLogItem$3[ebp+24], 0

; 646  : 		itemNumber = 0;

  001f3	c7 85 bc fe ff
	ff 00 00 00 00	 mov	 DWORD PTR _aLogItem$3[ebp+68], 0

; 647  : 		nAbilityOption = 0;

  001fd	c7 85 c0 fe ff
	ff 00 00 00 00	 mov	 DWORD PTR _aLogItem$3[ebp+72], 0

; 648  : 		Gold_1 = 0;

  00207	c7 85 c4 fe ff
	ff 00 00 00 00	 mov	 DWORD PTR _aLogItem$3[ebp+76], 0

; 650  : 		nSlot1 = 100;
; 651  : 		nItemResist = 0;
; 652  : 		nResistAbilityOption = 0;
; 653  : 		m_bCharged = FALSE;

  00211	c7 85 d8 fe ff
	ff 00 00 00 00	 mov	 DWORD PTR _aLogItem$3[ebp+96], 0

; 654  : 		m_dwKeepTime = 0;

  0021b	c7 85 dc fe ff
	ff 00 00 00 00	 mov	 DWORD PTR _aLogItem$3[ebp+100], 0

; 655  : #if __VER >= 11 // __SYS_IDENTIFY
; 656  : 		m_iRandomOptItemId = 0;

  00225	66 0f 13 85 e0
	fe ff ff	 movlpd	 QWORD PTR _aLogItem$3[ebp+104], xmm0

; 657  : #else	//__SYS_IDENTIFY
; 658  : 		m_nRandomOptItemId = 0;
; 659  : #endif	// __SYS_IDENTIFY
; 660  : #if __VER >= 12 // __EXT_PIERCING
; 661  : 		nPiercedSize = 0;

  0022d	c7 85 e8 fe ff
	ff 00 00 00 00	 mov	 DWORD PTR _aLogItem$3[ebp+112], 0

; 662  : //		for( int i=0; i<MAX_PIERCING_WEAPON; i++ )
; 663  : //			adwItemId[i] = 0;
; 664  : 		memset( adwItemId, 0, sizeof(adwItemId) );

  00237	0f 11 85 ec fe
	ff ff		 movups	 XMMWORD PTR _aLogItem$3[ebp+116], xmm0

; 665  : 		nUMPiercedSize = 0;

  0023e	c7 85 14 ff ff
	ff 00 00 00 00	 mov	 DWORD PTR _aLogItem$3[ebp+156], 0
  00248	0f 11 85 fc fe
	ff ff		 movups	 XMMWORD PTR _aLogItem$3[ebp+132], xmm0

; 666  : //		for( i=0; i<MAX_PIERCING_ULTIMATE; i++ )
; 667  : //	adwUMItemId[i] = 0;
; 668  : 		memset( adwUMItemId, 0, sizeof(adwUMItemId) );

  0024f	c7 85 28 ff ff
	ff 00 00 00 00	 mov	 DWORD PTR _aLogItem$3[ebp+176], 0
  00259	66 0f d6 85 0c
	ff ff ff	 movq	 QWORD PTR _aLogItem$3[ebp+148], xmm0
  00261	0f 11 85 18 ff
	ff ff		 movups	 XMMWORD PTR _aLogItem$3[ebp+160], xmm0

; 669  : #else // __EXT_PIERCING
; 670  : 		nPiercedSize = 0;
; 671  : 		adwItemId0 = 0;
; 672  : 		adwItemId1 = 0;
; 673  : 		adwItemId2 = 0;
; 674  : 		adwItemId3 = 0;
; 675  : #if __VER >= 9 // __ULTIMATE
; 676  : 		adwItemId4 = 0;
; 677  : #endif // __ULTIMATE
; 678  : #endif // __EXT_PIERCING
; 679  : #if __VER >= 9 // __PET_0410
; 680  : 		nPetKind = 0;

  00268	66 c7 85 2c ff
	ff ff 00 00	 mov	 WORD PTR _aLogItem$3[ebp+180], 0

; 681  : 		nPetLevel = 0;
; 682  : 		dwPetExp = 0;

  00271	c7 85 30 ff ff
	ff 00 00 00 00	 mov	 DWORD PTR _aLogItem$3[ebp+184], 0

; 683  : 		wPetEnergy = 0;

  0027b	89 85 34 ff ff
	ff		 mov	 DWORD PTR _aLogItem$3[ebp+188], eax

; 684  : 		wPetLife = 0;
; 685  : 		nPetAL_D = 0;

  00281	89 85 38 ff ff
	ff		 mov	 DWORD PTR _aLogItem$3[ebp+192], eax

; 686  : 		nPetAL_C = 0;
; 687  : 		nPetAL_B = 0;
; 688  : 		nPetAL_A = 0;
; 689  : 		nPetAL_S = 0;

  00287	88 85 3c ff ff
	ff		 mov	 BYTE PTR _aLogItem$3[ebp+196], al
; File C:\IAGOS\server\v18\Source\Source\_Common\EventLua.cpp

; 549  : 			aLogItem.Action = "E";

  0028d	c7 85 78 fe ff
	ff 00 00 00 00	 mov	 DWORD PTR _aLogItem$3[ebp], OFFSET ??_C@_01DDCIFGEA@E@

; 550  : 			aLogItem.SendName = pUser->GetName();

  00297	e8 00 00 00 00	 call	 ?GetName@CMover@@QAEPBDH@Z ; CMover::GetName
  0029c	89 85 7c fe ff
	ff		 mov	 DWORD PTR _aLogItem$3[ebp+4], eax

; 551  : 			aLogItem.WorldId = pUser->GetWorld()->GetID();
; 552  : 			aLogItem.Gold = aLogItem.Gold2 = pUser->GetGold();
; 553  : 
; 554  : 			
; 555  : 			if( pUser->CreateItem( &itemElem ) )

  002a2	8b cf		 mov	 ecx, edi
  002a4	8b 87 6c 01 00
	00		 mov	 eax, DWORD PTR [edi+364]
  002aa	6a 00		 push	 0
  002ac	6a 00		 push	 0
  002ae	6a 00		 push	 0
  002b0	8b 00		 mov	 eax, DWORD PTR [eax]
  002b2	89 85 84 fe ff
	ff		 mov	 DWORD PTR _aLogItem$3[ebp+12], eax
  002b8	8b 87 e0 14 00
	00		 mov	 eax, DWORD PTR [edi+5344]
  002be	89 85 8c fe ff
	ff		 mov	 DWORD PTR _aLogItem$3[ebp+20], eax
  002c4	89 85 88 fe ff
	ff		 mov	 DWORD PTR _aLogItem$3[ebp+16], eax
  002ca	8d 85 40 ff ff
	ff		 lea	 eax, DWORD PTR _itemElem$4[ebp]
  002d0	50		 push	 eax
  002d1	e8 00 00 00 00	 call	 ?CreateItem@CMover@@QAEHPAVCItemBase@@PAEPAFE@Z ; CMover::CreateItem
  002d6	85 c0		 test	 eax, eax
  002d8	74 0c		 je	 SHORT $LN8@SetLevelUp

; 556  : 			{	// ·Î±× ł˛±č
; 557  : 				aLogItem.RecvName = "EVENT_LEVELUP_GIFT";

  002da	c7 85 80 fe ff
	ff 00 00 00 00	 mov	 DWORD PTR _aLogItem$3[ebp+8], OFFSET ??_C@_0BD@CEEECHDH@EVENT_LEVELUP_GIFT@

; 558  : 				g_DPSrvr.OnLogItem( aLogItem, &itemElem, nItemNum );
; 559  : 			}

  002e4	eb 2f		 jmp	 SHORT $LN9@SetLevelUp
$LN8@SetLevelUp:

; 560  : 			else
; 561  : 			{	// żěĆí Áö±Ţ
; 562  : 				g_dpDBClient.SendQueryPostMail( pUser->m_idPlayer, 0, itemElem, 0, "", "" );

  002e6	68 00 00 00 00	 push	 OFFSET ??_C@_00CNPNBAHC@@
  002eb	68 00 00 00 00	 push	 OFFSET ??_C@_00CNPNBAHC@@
  002f0	6a 00		 push	 0
  002f2	8d 85 40 ff ff
	ff		 lea	 eax, DWORD PTR _itemElem$4[ebp]
  002f8	b9 00 00 00 00	 mov	 ecx, OFFSET ?g_dpDBClient@@3VCDPDatabaseClient@@A ; g_dpDBClient
  002fd	50		 push	 eax
  002fe	6a 00		 push	 0
  00300	ff b7 34 02 00
	00		 push	 DWORD PTR [edi+564]
  00306	e8 00 00 00 00	 call	 ?SendQueryPostMail@CDPDatabaseClient@@QAEXKKAAVCItemElem@@HPAD1@Z ; CDPDatabaseClient::SendQueryPostMail

; 563  : 				aLogItem.RecvName = "EVENT_LEVELUP_GIFT_POST";

  0030b	c7 85 80 fe ff
	ff 00 00 00 00	 mov	 DWORD PTR _aLogItem$3[ebp+8], OFFSET ??_C@_0BI@BOAOACJA@EVENT_LEVELUP_GIFT_POST@
$LN9@SetLevelUp:

; 567  : 			pUser->AddDefinedText( TID_GAME_EVENT_LEVELUP_GIFT, "\"%s\"", itemElem.GetName() );

  00315	f2 0f 2c 85 64
	fe ff ff	 cvttsd2si eax, QWORD PTR tv556[ebp]
  0031d	b9 00 00 00 00	 mov	 ecx, OFFSET ?g_DPSrvr@@3VCDPSrvr@@A ; g_DPSrvr
  00322	50		 push	 eax
  00323	8d 85 40 ff ff
	ff		 lea	 eax, DWORD PTR _itemElem$4[ebp]
  00329	50		 push	 eax
  0032a	8d 85 78 fe ff
	ff		 lea	 eax, DWORD PTR _aLogItem$3[ebp]
  00330	50		 push	 eax
  00331	e8 00 00 00 00	 call	 ?OnLogItem@CDPSrvr@@QAEXAAU_LogItemInfo@@PAVCItemElem@@H@Z ; CDPSrvr::OnLogItem
  00336	8d 85 70 fe ff
	ff		 lea	 eax, DWORD PTR $T2[ebp]
  0033c	50		 push	 eax
  0033d	8d 8d 40 ff ff
	ff		 lea	 ecx, DWORD PTR _itemElem$4[ebp]
  00343	e8 00 00 00 00	 call	 ?GetName@CItemElem@@QAE?AV?$CStringT@DV?$StrTraitMFC@DV?$ChTraitsCRT@D@ATL@@@@@ATL@@XZ ; CItemElem::GetName
  00348	ff 30		 push	 DWORD PTR [eax]
  0034a	c6 45 fc 01	 mov	 BYTE PTR __$EHRec$[ebp+8], 1
  0034e	68 00 00 00 00	 push	 OFFSET ??_C@_04OEDFLLKD@?$CC?$CFs?$CC@
  00353	68 2a 0e 00 00	 push	 3626			; 00000e2aH
  00358	57		 push	 edi
  00359	e8 00 00 00 00	 call	 ?AddDefinedText@CUser@@QAAXHPBDZZ ; CUser::AddDefinedText
; File C:\Program Files\Microsoft Visual Studio\2022\Professional\VC\Tools\MSVC\14.44.35207\atlmfc\include\atlsimpstr.h

; 804  : 		return( reinterpret_cast< CStringData* >( m_pszData )-1 );

  0035e	8b 95 70 fe ff
	ff		 mov	 edx, DWORD PTR $T2[ebp]
; File C:\IAGOS\server\v18\Source\Source\_Common\EventLua.cpp

; 567  : 			pUser->AddDefinedText( TID_GAME_EVENT_LEVELUP_GIFT, "\"%s\"", itemElem.GetName() );

  00364	83 c4 10	 add	 esp, 16			; 00000010H
  00367	c6 45 fc 00	 mov	 BYTE PTR __$EHRec$[ebp+8], 0
; File C:\Program Files\Microsoft Visual Studio\2022\Professional\VC\Tools\MSVC\14.44.35207\atlmfc\include\atlsimpstr.h

; 804  : 		return( reinterpret_cast< CStringData* >( m_pszData )-1 );

  0036b	83 c2 f0	 add	 edx, -16		; fffffff0H

; 92   : 		if( _InterlockedDecrement( &nRefs ) <= 0 )

  0036e	83 c8 ff	 or	 eax, -1
  00371	f0 0f c1 42 0c	 lock	  xadd	 DWORD PTR [edx+12], eax
  00376	48		 dec	 eax
  00377	85 c0		 test	 eax, eax
  00379	7f 08		 jg	 SHORT $LN46@SetLevelUp

; 93   : 		{
; 94   : 			pStringMgr->Free( this );

  0037b	8b 0a		 mov	 ecx, DWORD PTR [edx]
  0037d	52		 push	 edx
  0037e	8b 01		 mov	 eax, DWORD PTR [ecx]
  00380	ff 50 04	 call	 DWORD PTR [eax+4]
$LN46@SetLevelUp:
; File C:\IAGOS\server\v18\Source\Source\_Common\EventLua.cpp

; 569  : 			m_Lua.Pop(1);

  00383	6a 01		 push	 1
  00385	8b ce		 mov	 ecx, esi
  00387	e8 00 00 00 00	 call	 ?Pop@CLuaBase@@QAEXH@Z	; CLuaBase::Pop

; 570  : 		}

  0038c	8d 8d 40 ff ff
	ff		 lea	 ecx, DWORD PTR _itemElem$4[ebp]
  00392	c7 45 fc ff ff
	ff ff		 mov	 DWORD PTR __$EHRec$[ebp+8], -1
  00399	e8 00 00 00 00	 call	 ??1CItemElem@@UAE@XZ	; CItemElem::~CItemElem
  0039e	eb 3b		 jmp	 SHORT $LN50@SetLevelUp
$LN28@SetLevelUp:
; File C:\IAGOS\server\v18\Source\Source\_Common\Project.h

; 579  : 	LPCTSTR szErr = Error( _T( "%s min:%d, max:%d, index:%d" ), szMsg, nMin, nMax, nIndex ); 

  003a0	57		 push	 edi
  003a1	50		 push	 eax
  003a2	6a 00		 push	 0
  003a4	68 00 00 00 00	 push	 OFFSET ??_C@_0BI@BEIFNGEL@GetItemProp?5range_error@
  003a9	68 00 00 00 00	 push	 OFFSET ??_C@_0BM@HMFGHCP@?$CFs?5min?3?$CFd?0?5max?3?$CFd?0?5index?3?$CFd@
  003ae	e8 00 00 00 00	 call	 ?Error@@YAPBDPBDZZ	; Error
  003b3	83 c4 14	 add	 esp, 20			; 00000014H
$LN53@SetLevelUp:
; File C:\IAGOS\server\v18\Source\Source\_Common\EventLua.cpp

; 537  : 				Error( "CEventLua::SetLevelUpGift() - ItemProp is NULL. ItemId = \"%s\"", m_Lua.GetFieldToString( -1, "strItemId" ) );

  003b6	68 00 00 00 00	 push	 OFFSET ??_C@_09OFFFBNFE@strItemId@
  003bb	6a ff		 push	 -1
  003bd	8b ce		 mov	 ecx, esi
  003bf	e8 00 00 00 00	 call	 ?GetFieldToString@CLuaBase@@QAEPBDHPAD@Z ; CLuaBase::GetFieldToString
  003c4	50		 push	 eax
  003c5	68 00 00 00 00	 push	 OFFSET ??_C@_0DO@JOCEGGGB@CEventLua?3?3SetLevelUpGift?$CI?$CJ?5?9?5I@
  003ca	e8 00 00 00 00	 call	 ?Error@@YAPBDPBDZZ	; Error
  003cf	83 c4 08	 add	 esp, 8

; 538  : 				m_Lua.Pop( 1 );

  003d2	8b ce		 mov	 ecx, esi
  003d4	6a 01		 push	 1
  003d6	e8 00 00 00 00	 call	 ?Pop@CLuaBase@@QAEXH@Z	; CLuaBase::Pop
$LN50@SetLevelUp:
; File C:\IAGOS\server\v18\Source\Source\_Common\LuaBase.h

; 46   : 	int			TableLoop( int nStackPos )					{  return lua_next( m_pLuaState, nStackPos );  }	

  003db	8b 85 6c fe ff
	ff		 mov	 eax, DWORD PTR _this$GSCopy$1$[ebp]
  003e1	6a fe		 push	 -2			; fffffffeH
  003e3	ff 70 0c	 push	 DWORD PTR [eax+12]
  003e6	e8 00 00 00 00	 call	 _lua_next
  003eb	83 c4 08	 add	 esp, 8
; File C:\IAGOS\server\v18\Source\Source\_Common\EventLua.cpp

; 530  : 		while( m_Lua.TableLoop(-2) )

  003ee	85 c0		 test	 eax, eax
  003f0	0f 85 da fc ff
	ff		 jne	 $LL2@SetLevelUp
$LN3@SetLevelUp:

; 571  : 	}
; 572  : 	m_Lua.Pop(0);
; 573  : }

  003f6	6a 00		 push	 0
  003f8	8b ce		 mov	 ecx, esi
  003fa	e8 00 00 00 00	 call	 ?Pop@CLuaBase@@QAEXH@Z	; CLuaBase::Pop
$LN1@SetLevelUp:
  003ff	8b 4d f4	 mov	 ecx, DWORD PTR __$EHRec$[ebp]
  00402	64 89 0d 00 00
	00 00		 mov	 DWORD PTR fs:0, ecx
  00409	59		 pop	 ecx
  0040a	5f		 pop	 edi
  0040b	5e		 pop	 esi
  0040c	8b 4d f0	 mov	 ecx, DWORD PTR __$ArrayPad$[ebp]
  0040f	33 cd		 xor	 ecx, ebp
  00411	e8 00 00 00 00	 call	 @__security_check_cookie@4
  00416	8b e5		 mov	 esp, ebp
  00418	5d		 pop	 ebp
  00419	c2 08 00	 ret	 8
_TEXT	ENDS
;	COMDAT text$x
text$x	SEGMENT
__unwindfunclet$?SetLevelUpGift@CEventLua@@QAEXPAVCUser@@H@Z$0:
  00000	8d 8d 40 ff ff
	ff		 lea	 ecx, DWORD PTR _itemElem$4[ebp]
  00006	e9 00 00 00 00	 jmp	 ??1CItemElem@@UAE@XZ	; CItemElem::~CItemElem
__unwindfunclet$?SetLevelUpGift@CEventLua@@QAEXPAVCUser@@H@Z$1:
  0000b	8d 8d 70 fe ff
	ff		 lea	 ecx, DWORD PTR $T2[ebp]
  00011	e9 00 00 00 00	 jmp	 ??1?$CStringT@DV?$StrTraitMFC@DV?$ChTraitsCRT@D@ATL@@@@@ATL@@QAE@XZ ; ATL::CStringT<char,StrTraitMFC<char,ATL::ChTraitsCRT<char> > >::~CStringT<char,StrTraitMFC<char,ATL::ChTraitsCRT<char> > >
  00016	cc		 int	 3
  00017	cc		 int	 3
  00018	cc		 int	 3
  00019	cc		 int	 3
  0001a	cc		 int	 3
__ehhandler$?SetLevelUpGift@CEventLua@@QAEXPAVCUser@@H@Z:
  0001b	90		 npad	 1
  0001c	90		 npad	 1
  0001d	8b 54 24 08	 mov	 edx, DWORD PTR [esp+8]
  00021	8d 42 0c	 lea	 eax, DWORD PTR [edx+12]
  00024	8b 8a 5c fe ff
	ff		 mov	 ecx, DWORD PTR [edx-420]
  0002a	33 c8		 xor	 ecx, eax
  0002c	e8 00 00 00 00	 call	 @__security_check_cookie@4
  00031	8b 4a fc	 mov	 ecx, DWORD PTR [edx-4]
  00034	33 c8		 xor	 ecx, eax
  00036	e8 00 00 00 00	 call	 @__security_check_cookie@4
  0003b	b8 00 00 00 00	 mov	 eax, OFFSET __ehfuncinfo$?SetLevelUpGift@CEventLua@@QAEXPAVCUser@@H@Z
  00040	e9 00 00 00 00	 jmp	 ___CxxFrameHandler3
text$x	ENDS
?SetLevelUpGift@CEventLua@@QAEXPAVCUser@@H@Z ENDP	; CEventLua::SetLevelUpGift
; Function compile flags: /Ogtp
; File C:\IAGOS\server\v18\Source\Source\_Common\EventLua.cpp
; File C:\Program Files\Microsoft Visual Studio\2022\Professional\VC\Tools\MSVC\14.44.35207\include\xstring
; File C:\IAGOS\server\v18\Source\Source\_Common\EventLua.cpp
; File C:\IAGOS\server\v18\Source\Source\_Common\LuaBase.h
; File C:\IAGOS\server\v18\Source\Source\_Common\EventLua.cpp
; File C:\IAGOS\server\v18\Source\Source\_Common\LuaBase.h
; File C:\IAGOS\server\v18\Source\Source\_Common\EventLua.cpp
; File C:\IAGOS\server\v18\Source\Source\_Common\LuaBase.h
; File C:\IAGOS\server\v18\Source\Source\_Common\EventLua.cpp
;	COMDAT ?GetDesc@CEventLua@@QAE?AV?$basic_string@DU?$char_traits@D@std@@V?$allocator@D@2@@std@@E@Z
_TEXT	SEGMENT
$T2 = -16						; size = 4
__$EHRec$ = -12						; size = 12
___$ReturnUdt$ = 8					; size = 4
_nId$ = 12						; size = 1
?GetDesc@CEventLua@@QAE?AV?$basic_string@DU?$char_traits@D@std@@V?$allocator@D@2@@std@@E@Z PROC ; CEventLua::GetDesc, COMDAT
; _this$ = ecx

; 224  : {

  00000	55		 push	 ebp
  00001	8b ec		 mov	 ebp, esp
  00003	6a ff		 push	 -1
  00005	68 00 00 00 00	 push	 __ehhandler$?GetDesc@CEventLua@@QAE?AV?$basic_string@DU?$char_traits@D@std@@V?$allocator@D@2@@std@@E@Z
  0000a	64 a1 00 00 00
	00		 mov	 eax, DWORD PTR fs:0
  00010	50		 push	 eax
  00011	51		 push	 ecx
  00012	56		 push	 esi
  00013	57		 push	 edi
  00014	a1 00 00 00 00	 mov	 eax, DWORD PTR ___security_cookie
  00019	33 c5		 xor	 eax, ebp
  0001b	50		 push	 eax
  0001c	8d 45 f4	 lea	 eax, DWORD PTR __$EHRec$[ebp]
  0001f	64 a3 00 00 00
	00		 mov	 DWORD PTR fs:0, eax
  00025	8b f9		 mov	 edi, ecx
  00027	c7 45 f0 01 00
	00 00		 mov	 DWORD PTR $T2[ebp], 1
  0002e	0f 57 c0	 xorps	 xmm0, xmm0
; File C:\Program Files\Microsoft Visual Studio\2022\Professional\VC\Tools\MSVC\14.44.35207\include\xstring

; 493  :         _CONSTEXPR20 _Bxty() noexcept : _Buf() {} // user-provided, for fancy pointers

  00031	8b 75 08	 mov	 esi, DWORD PTR ___$ReturnUdt$[ebp]
  00034	0f 11 06	 movups	 XMMWORD PTR [esi], xmm0

; 860  :         _My_data._Mysize = 0;

  00037	c7 46 10 00 00
	00 00		 mov	 DWORD PTR [esi+16], 0

; 861  :         _My_data._Myres  = _Small_string_capacity;

  0003e	c7 46 14 0f 00
	00 00		 mov	 DWORD PTR [esi+20], 15	; 0000000fH

; 862  :         _My_data._Activate_SSO_buffer();
; 863  : 
; 864  :         // the _Traits::assign is last so the codegen doesn't think the char write can alias this
; 865  :         _Traits::assign(_My_data._Bx._Buf[0], _Elem());

  00045	c6 06 00	 mov	 BYTE PTR [esi], 0
; File C:\IAGOS\server\v18\Source\Source\_Common\EventLua.cpp

; 227  : 	if( !IsPossible() )

  00048	83 7f 04 00	 cmp	 DWORD PTR [edi+4], 0
  0004c	c7 45 fc 00 00
	00 00		 mov	 DWORD PTR __$EHRec$[ebp+8], 0
  00053	c7 45 f0 01 00
	00 00		 mov	 DWORD PTR $T2[ebp], 1
  0005a	74 5d		 je	 SHORT $LN97@GetDesc

; 228  : 		return strDesc;
; 229  : 
; 230  : 	if( m_Lua.GetLuaFunction( "GetDesc" ) )

  0005c	8d 4f 08	 lea	 ecx, DWORD PTR [edi+8]
  0005f	68 00 00 00 00	 push	 OFFSET ??_C@_07EJFENACC@GetDesc@
  00064	e8 00 00 00 00	 call	 ?GetLuaFunction@CLuaBase@@QAEHPAD@Z ; CLuaBase::GetLuaFunction
  00069	85 c0		 test	 eax, eax
  0006b	74 42		 je	 SHORT $LN3@GetDesc

; 232  : 		m_Lua.PushNumber( nId );

  0006d	0f b6 45 0c	 movzx	 eax, BYTE PTR _nId$[ebp]
; File C:\IAGOS\server\v18\Source\Source\_Common\LuaBase.h

; 36   : 	void		PushNumber( double nValue )					{  lua_pushnumber( m_pLuaState, nValue );  }

  00071	83 ec 08	 sub	 esp, 8
  00074	66 0f 6e c0	 movd	 xmm0, eax
; File C:\IAGOS\server\v18\Source\Source\_Common\EventLua.cpp

; 232  : 		m_Lua.PushNumber( nId );

  00078	f3 0f e6 c0	 cvtdq2pd xmm0, xmm0
; File C:\IAGOS\server\v18\Source\Source\_Common\LuaBase.h

; 36   : 	void		PushNumber( double nValue )					{  lua_pushnumber( m_pLuaState, nValue );  }

  0007c	f2 0f 11 04 24	 movsd	 QWORD PTR [esp], xmm0
  00081	ff 77 0c	 push	 DWORD PTR [edi+12]
  00084	e8 00 00 00 00	 call	 _lua_pushnumber
  00089	83 c4 0c	 add	 esp, 12			; 0000000cH
; File C:\IAGOS\server\v18\Source\Source\_Common\EventLua.cpp

; 233  : 		m_Lua.CallLuaFunction( 1, 1 );

  0008c	8d 4f 08	 lea	 ecx, DWORD PTR [edi+8]
  0008f	6a 01		 push	 1
  00091	6a 01		 push	 1
  00093	e8 00 00 00 00	 call	 ?CallLuaFunction@CLuaBase@@QAEXHH@Z ; CLuaBase::CallLuaFunction
; File C:\IAGOS\server\v18\Source\Source\_Common\LuaBase.h

; 44   : 	const char*	ToString( int nStackPos )					{  return lua_tostring( m_pLuaState, nStackPos );  }

  00098	6a 00		 push	 0
  0009a	6a ff		 push	 -1
  0009c	ff 77 0c	 push	 DWORD PTR [edi+12]
  0009f	e8 00 00 00 00	 call	 _lua_tolstring
  000a4	83 c4 0c	 add	 esp, 12			; 0000000cH
; File C:\IAGOS\server\v18\Source\Source\_Common\EventLua.cpp

; 235  : 		strDesc = m_Lua.ToString( -1 );

  000a7	8b ce		 mov	 ecx, esi
  000a9	50		 push	 eax
  000aa	e8 00 00 00 00	 call	 ??4?$basic_string@DU?$char_traits@D@std@@V?$allocator@D@2@@std@@QAEAAV01@QBD@Z ; std::basic_string<char,std::char_traits<char>,std::allocator<char> >::operator=
$LN3@GetDesc:

; 236  : 	}
; 237  : 	m_Lua.Pop( 0 );

  000af	6a 00		 push	 0
  000b1	8d 4f 08	 lea	 ecx, DWORD PTR [edi+8]
  000b4	e8 00 00 00 00	 call	 ?Pop@CLuaBase@@QAEXH@Z	; CLuaBase::Pop
$LN97@GetDesc:

; 238  : 
; 239  : 	return strDesc;
; 240  : }

  000b9	8b c6		 mov	 eax, esi
  000bb	8b 4d f4	 mov	 ecx, DWORD PTR __$EHRec$[ebp]
  000be	64 89 0d 00 00
	00 00		 mov	 DWORD PTR fs:0, ecx
  000c5	59		 pop	 ecx
  000c6	5f		 pop	 edi
  000c7	5e		 pop	 esi
  000c8	8b e5		 mov	 esp, ebp
  000ca	5d		 pop	 ebp
  000cb	c2 08 00	 ret	 8
_TEXT	ENDS
;	COMDAT text$x
text$x	SEGMENT
__unwindfunclet$?GetDesc@CEventLua@@QAE?AV?$basic_string@DU?$char_traits@D@std@@V?$allocator@D@2@@std@@E@Z$0:
  00000	8b 45 f0	 mov	 eax, DWORD PTR $T2[ebp]
  00003	83 e0 01	 and	 eax, 1
  00006	0f 84 0c 00 00
	00		 je	 $LN6@GetDesc
  0000c	83 65 f0 fe	 and	 DWORD PTR $T2[ebp], -2	; fffffffeH
  00010	8b 4d 08	 mov	 ecx, DWORD PTR ___$ReturnUdt$[ebp]
  00013	e9 00 00 00 00	 jmp	 ??1?$basic_string@DU?$char_traits@D@std@@V?$allocator@D@2@@std@@QAE@XZ ; std::basic_string<char,std::char_traits<char>,std::allocator<char> >::~basic_string<char,std::char_traits<char>,std::allocator<char> >
$LN6@GetDesc:
  00018	c3		 ret	 0
  00019	cc		 int	 3
  0001a	cc		 int	 3
  0001b	cc		 int	 3
  0001c	cc		 int	 3
  0001d	cc		 int	 3
__ehhandler$?GetDesc@CEventLua@@QAE?AV?$basic_string@DU?$char_traits@D@std@@V?$allocator@D@2@@std@@E@Z:
  0001e	90		 npad	 1
  0001f	90		 npad	 1
  00020	8b 54 24 08	 mov	 edx, DWORD PTR [esp+8]
  00024	8d 42 0c	 lea	 eax, DWORD PTR [edx+12]
  00027	8b 4a f0	 mov	 ecx, DWORD PTR [edx-16]
  0002a	33 c8		 xor	 ecx, eax
  0002c	e8 00 00 00 00	 call	 @__security_check_cookie@4
  00031	b8 00 00 00 00	 mov	 eax, OFFSET __ehfuncinfo$?GetDesc@CEventLua@@QAE?AV?$basic_string@DU?$char_traits@D@std@@V?$allocator@D@2@@std@@E@Z
  00036	e9 00 00 00 00	 jmp	 ___CxxFrameHandler3
text$x	ENDS
?GetDesc@CEventLua@@QAE?AV?$basic_string@DU?$char_traits@D@std@@V?$allocator@D@2@@std@@E@Z ENDP ; CEventLua::GetDesc
; Function compile flags: /Ogtp
; File C:\IAGOS\server\v18\Source\Source\_Common\EventLua.cpp
; File C:\IAGOS\server\v18\Source\Source\_Common\Obj.h
; File C:\IAGOS\server\v18\Source\Source\_Common\EventLua.cpp
;	COMDAT ?SetCoupon@CEventLua@@QAEXPAVCUser@@K@Z
_TEXT	SEGMENT
_pUser$ = 8						; size = 4
_dwTick$ = 12						; size = 4
?SetCoupon@CEventLua@@QAEXPAVCUser@@K@Z PROC		; CEventLua::SetCoupon, COMDAT
; _this$ = ecx

; 489  : {

  00000	55		 push	 ebp
  00001	8b ec		 mov	 ebp, esp

; 490  : 	if( !IsPossible() )

  00003	83 79 04 00	 cmp	 DWORD PTR [ecx+4], 0
  00007	74 50		 je	 SHORT $LN5@SetCoupon
  00009	56		 push	 esi
; File C:\IAGOS\server\v18\Source\Source\_Common\Obj.h

; 327  : 	return pObj && ( pObj->IsDelete() == FALSE ); 

  0000a	8b 75 08	 mov	 esi, DWORD PTR _pUser$[ebp]
  0000d	85 f6		 test	 esi, esi
  0000f	74 47		 je	 SHORT $LN20@SetCoupon

; 180  : 	BOOL			IsDelete()	{ return (m_dwFlags & OBJ_FLAG_DELETE);  }

  00011	f6 46 04 01	 test	 BYTE PTR [esi+4], 1

; 327  : 	return pObj && ( pObj->IsDelete() == FALSE ); 

  00015	75 41		 jne	 SHORT $LN20@SetCoupon
; File C:\IAGOS\server\v18\Source\Source\_Common\EventLua.cpp

; 496  : 	DWORD dwCouponEvent	= GetCouponEvent();

  00017	6a 01		 push	 1
  00019	e8 00 00 00 00	 call	 ?GetCouponEvent@CEventLua@@QAEKH@Z ; CEventLua::GetCouponEvent

; 497  : 	
; 498  : 	if( dwCouponEvent )

  0001e	85 c0		 test	 eax, eax
  00020	74 2d		 je	 SHORT $LN4@SetCoupon

; 499  : 	{
; 500  : 		if( dwTick > pUser->m_dwTickCoupon + dwCouponEvent )

  00022	8b 96 20 8f 00
	00		 mov	 edx, DWORD PTR [esi+36640]
  00028	03 d0		 add	 edx, eax
  0002a	8b 45 0c	 mov	 eax, DWORD PTR _dwTick$[ebp]
  0002d	3b c2		 cmp	 eax, edx
  0002f	76 27		 jbe	 SHORT $LN20@SetCoupon

; 501  : 		{
; 502  : 			pUser->m_nCoupon++;

  00031	ff 86 1c 8f 00
	00		 inc	 DWORD PTR [esi+36636]

; 503  : 			pUser->m_dwTickCoupon = dwTick;
; 504  : 			pUser->AddCoupon( pUser->m_nCoupon );

  00037	8b ce		 mov	 ecx, esi
  00039	ff b6 1c 8f 00
	00		 push	 DWORD PTR [esi+36636]
  0003f	89 86 20 8f 00
	00		 mov	 DWORD PTR [esi+36640], eax
  00045	e8 00 00 00 00	 call	 ?AddCoupon@CUser@@QAEXH@Z ; CUser::AddCoupon
  0004a	5e		 pop	 esi

; 509  : }

  0004b	5d		 pop	 ebp
  0004c	c2 08 00	 ret	 8
$LN4@SetCoupon:

; 505  : 		}
; 506  : 	}
; 507  : 	else
; 508  : 		pUser->m_dwTickCoupon	= dwTick;

  0004f	8b 45 0c	 mov	 eax, DWORD PTR _dwTick$[ebp]
  00052	89 86 20 8f 00
	00		 mov	 DWORD PTR [esi+36640], eax
$LN20@SetCoupon:
  00058	5e		 pop	 esi
$LN5@SetCoupon:

; 509  : }

  00059	5d		 pop	 ebp
  0005a	c2 08 00	 ret	 8
?SetCoupon@CEventLua@@QAEXPAVCUser@@K@Z ENDP		; CEventLua::SetCoupon
_TEXT	ENDS
; Function compile flags: /Ogtp
; File C:\IAGOS\server\v18\Source\Source\_Common\EventLua.cpp
; File C:\IAGOS\server\v18\Source\Source\_Common\LuaBase.h
; File C:\IAGOS\server\v18\Source\Source\_Common\EventLua.cpp
; File C:\IAGOS\server\v18\Source\Source\_Common\LuaBase.h
; File C:\IAGOS\server\v18\Source\Source\_Common\EventLua.cpp
;	COMDAT ?GetDefensePower@CEventLua@@QAEHH@Z
_TEXT	SEGMENT
tv143 = -8						; size = 8
_bProxy$ = 8						; size = 4
?GetDefensePower@CEventLua@@QAEHH@Z PROC		; CEventLua::GetDefensePower, COMDAT
; _this$ = ecx

; 446  : {

  00000	55		 push	 ebp
  00001	8b ec		 mov	 ebp, esp
  00003	83 ec 08	 sub	 esp, 8
  00006	53		 push	 ebx
  00007	56		 push	 esi
  00008	8b f1		 mov	 esi, ecx

; 447  : 	int nDefensePower = 0;

  0000a	33 db		 xor	 ebx, ebx

; 448  : 	
; 449  : 	if( !IsPossible() )

  0000c	39 5e 04	 cmp	 DWORD PTR [esi+4], ebx
  0000f	75 0a		 jne	 SHORT $LN2@GetDefense

; 450  : 		return nDefensePower;

  00011	5e		 pop	 esi
  00012	33 c0		 xor	 eax, eax

; 465  : }

  00014	5b		 pop	 ebx
  00015	8b e5		 mov	 esp, ebp
  00017	5d		 pop	 ebp
  00018	c2 04 00	 ret	 4
$LN2@GetDefense:

; 451  : 
; 452  : #if __VER >= 12 // __EVENTLUA_0826
; 453  : 	if( bProxy )

  0001b	39 5d 08	 cmp	 DWORD PTR _bProxy$[ebp], ebx
  0001e	74 0b		 je	 SHORT $LN3@GetDefense

; 454  : 		return m_proxy.GetDefensePower();

  00020	8b 46 34	 mov	 eax, DWORD PTR [esi+52]
  00023	5e		 pop	 esi

; 465  : }

  00024	5b		 pop	 ebx
  00025	8b e5		 mov	 esp, ebp
  00027	5d		 pop	 ebp
  00028	c2 04 00	 ret	 4
$LN3@GetDefense:
  0002b	57		 push	 edi

; 455  : #endif	// __EVENTLUA_0826
; 456  : 
; 457  : 	if( m_Lua.GetLuaFunction( "GetDefensePower" ) )

  0002c	68 00 00 00 00	 push	 OFFSET ??_C@_0BA@NNDCMDIP@GetDefensePower@
  00031	8d 4e 08	 lea	 ecx, DWORD PTR [esi+8]
  00034	e8 00 00 00 00	 call	 ?GetLuaFunction@CLuaBase@@QAEHPAD@Z ; CLuaBase::GetLuaFunction
  00039	85 c0		 test	 eax, eax
  0003b	74 23		 je	 SHORT $LN4@GetDefense

; 458  : 	{
; 459  : 		m_Lua.CallLuaFunction( 0, 1 );

  0003d	6a 01		 push	 1
  0003f	6a 00		 push	 0
  00041	8d 4e 08	 lea	 ecx, DWORD PTR [esi+8]
  00044	e8 00 00 00 00	 call	 ?CallLuaFunction@CLuaBase@@QAEXHH@Z ; CLuaBase::CallLuaFunction
; File C:\IAGOS\server\v18\Source\Source\_Common\LuaBase.h

; 43   : 	double		ToNumber( int nStackPos )					{  return lua_tonumber( m_pLuaState, nStackPos );  }

  00049	6a 00		 push	 0
  0004b	6a ff		 push	 -1
  0004d	ff 76 0c	 push	 DWORD PTR [esi+12]
  00050	e8 00 00 00 00	 call	 _lua_tonumberx
  00055	dd 5d f8	 fstp	 QWORD PTR tv143[ebp]
; File C:\IAGOS\server\v18\Source\Source\_Common\EventLua.cpp

; 460  : 		nDefensePower = (int)m_Lua.ToNumber( -1 );

  00058	f2 0f 2c 5d f8	 cvttsd2si ebx, QWORD PTR tv143[ebp]
; File C:\IAGOS\server\v18\Source\Source\_Common\LuaBase.h

; 43   : 	double		ToNumber( int nStackPos )					{  return lua_tonumber( m_pLuaState, nStackPos );  }

  0005d	83 c4 0c	 add	 esp, 12			; 0000000cH
$LN4@GetDefense:
; File C:\IAGOS\server\v18\Source\Source\_Common\EventLua.cpp

; 462  : 	m_Lua.Pop(0);

  00060	6a 00		 push	 0
  00062	8d 4e 08	 lea	 ecx, DWORD PTR [esi+8]
  00065	e8 00 00 00 00	 call	 ?Pop@CLuaBase@@QAEXH@Z	; CLuaBase::Pop

; 463  : 
; 464  : 	return nDefensePower;

  0006a	5f		 pop	 edi
  0006b	5e		 pop	 esi
  0006c	8b c3		 mov	 eax, ebx

; 465  : }

  0006e	5b		 pop	 ebx
  0006f	8b e5		 mov	 esp, ebp
  00071	5d		 pop	 ebp
  00072	c2 04 00	 ret	 4
?GetDefensePower@CEventLua@@QAEHH@Z ENDP		; CEventLua::GetDefensePower
_TEXT	ENDS
; Function compile flags: /Ogtp
; File C:\IAGOS\server\v18\Source\Source\_Common\EventLua.cpp
; File C:\IAGOS\server\v18\Source\Source\_Common\LuaBase.h
; File C:\IAGOS\server\v18\Source\Source\_Common\EventLua.cpp
; File C:\IAGOS\server\v18\Source\Source\_Common\LuaBase.h
; File C:\IAGOS\server\v18\Source\Source\_Common\EventLua.cpp
;	COMDAT ?GetAttackPower@CEventLua@@QAEHH@Z
_TEXT	SEGMENT
tv143 = -8						; size = 8
_bProxy$ = 8						; size = 4
?GetAttackPower@CEventLua@@QAEHH@Z PROC			; CEventLua::GetAttackPower, COMDAT
; _this$ = ecx

; 425  : {

  00000	55		 push	 ebp
  00001	8b ec		 mov	 ebp, esp
  00003	83 ec 08	 sub	 esp, 8
  00006	53		 push	 ebx
  00007	56		 push	 esi
  00008	8b f1		 mov	 esi, ecx

; 426  : 	int nAttackPower = 0;

  0000a	33 db		 xor	 ebx, ebx

; 427  : 	if( !IsPossible() )

  0000c	39 5e 04	 cmp	 DWORD PTR [esi+4], ebx
  0000f	75 0a		 jne	 SHORT $LN2@GetAttackP

; 428  : 		return nAttackPower;

  00011	5e		 pop	 esi
  00012	33 c0		 xor	 eax, eax

; 443  : }

  00014	5b		 pop	 ebx
  00015	8b e5		 mov	 esp, ebp
  00017	5d		 pop	 ebp
  00018	c2 04 00	 ret	 4
$LN2@GetAttackP:

; 429  : 
; 430  : #if __VER >= 12 // __EVENTLUA_0826
; 431  : 	if( bProxy )

  0001b	39 5d 08	 cmp	 DWORD PTR _bProxy$[ebp], ebx
  0001e	74 0b		 je	 SHORT $LN3@GetAttackP

; 432  : 		return m_proxy.GetAttackPower();

  00020	8b 46 30	 mov	 eax, DWORD PTR [esi+48]
  00023	5e		 pop	 esi

; 443  : }

  00024	5b		 pop	 ebx
  00025	8b e5		 mov	 esp, ebp
  00027	5d		 pop	 ebp
  00028	c2 04 00	 ret	 4
$LN3@GetAttackP:
  0002b	57		 push	 edi

; 433  : #endif	// __EVENTLUA_0826
; 434  : 
; 435  : 	if( m_Lua.GetLuaFunction( "GetAttackPower" ) )

  0002c	68 00 00 00 00	 push	 OFFSET ??_C@_0P@DPKGMIHE@GetAttackPower@
  00031	8d 4e 08	 lea	 ecx, DWORD PTR [esi+8]
  00034	e8 00 00 00 00	 call	 ?GetLuaFunction@CLuaBase@@QAEHPAD@Z ; CLuaBase::GetLuaFunction
  00039	85 c0		 test	 eax, eax
  0003b	74 23		 je	 SHORT $LN4@GetAttackP

; 436  : 	{
; 437  : 		m_Lua.CallLuaFunction( 0, 1 );

  0003d	6a 01		 push	 1
  0003f	6a 00		 push	 0
  00041	8d 4e 08	 lea	 ecx, DWORD PTR [esi+8]
  00044	e8 00 00 00 00	 call	 ?CallLuaFunction@CLuaBase@@QAEXHH@Z ; CLuaBase::CallLuaFunction
; File C:\IAGOS\server\v18\Source\Source\_Common\LuaBase.h

; 43   : 	double		ToNumber( int nStackPos )					{  return lua_tonumber( m_pLuaState, nStackPos );  }

  00049	6a 00		 push	 0
  0004b	6a ff		 push	 -1
  0004d	ff 76 0c	 push	 DWORD PTR [esi+12]
  00050	e8 00 00 00 00	 call	 _lua_tonumberx
  00055	dd 5d f8	 fstp	 QWORD PTR tv143[ebp]
; File C:\IAGOS\server\v18\Source\Source\_Common\EventLua.cpp

; 438  : 		nAttackPower = (int)m_Lua.ToNumber( -1 );

  00058	f2 0f 2c 5d f8	 cvttsd2si ebx, QWORD PTR tv143[ebp]
; File C:\IAGOS\server\v18\Source\Source\_Common\LuaBase.h

; 43   : 	double		ToNumber( int nStackPos )					{  return lua_tonumber( m_pLuaState, nStackPos );  }

  0005d	83 c4 0c	 add	 esp, 12			; 0000000cH
$LN4@GetAttackP:
; File C:\IAGOS\server\v18\Source\Source\_Common\EventLua.cpp

; 440  : 	m_Lua.Pop(0);

  00060	6a 00		 push	 0
  00062	8d 4e 08	 lea	 ecx, DWORD PTR [esi+8]
  00065	e8 00 00 00 00	 call	 ?Pop@CLuaBase@@QAEXH@Z	; CLuaBase::Pop

; 441  : 
; 442  : 	return nAttackPower;

  0006a	5f		 pop	 edi
  0006b	5e		 pop	 esi
  0006c	8b c3		 mov	 eax, ebx

; 443  : }

  0006e	5b		 pop	 ebx
  0006f	8b e5		 mov	 esp, ebp
  00071	5d		 pop	 ebp
  00072	c2 04 00	 ret	 4
?GetAttackPower@CEventLua@@QAEHH@Z ENDP			; CEventLua::GetAttackPower
_TEXT	ENDS
; Function compile flags: /Ogtp
; File C:\IAGOS\server\v18\Source\Source\_Common\EventLua.cpp
; File C:\IAGOS\server\v18\Source\Source\_Common\LuaBase.h
; File C:\IAGOS\server\v18\Source\Source\_Common\EventLua.cpp
; File C:\IAGOS\server\v18\Source\Source\_Common\LuaBase.h
; File C:\IAGOS\server\v18\Source\Source\_Common\EventLua.cpp
;	COMDAT ?GetGoldDropFactor@CEventLua@@QAEMH@Z
_TEXT	SEGMENT
_fFactor$ = -4						; size = 4
_bProxy$ = 8						; size = 4
?GetGoldDropFactor@CEventLua@@QAEMH@Z PROC		; CEventLua::GetGoldDropFactor, COMDAT
; _this$ = ecx

; 345  : {

  00000	55		 push	 ebp
  00001	8b ec		 mov	 ebp, esp
  00003	51		 push	 ecx
  00004	56		 push	 esi
  00005	8b f1		 mov	 esi, ecx

; 346  : 	float fFactor = 1;

  00007	c7 45 fc 00 00
	80 3f		 mov	 DWORD PTR _fFactor$[ebp], 1065353216 ; 3f800000H

; 347  : 
; 348  : 	if( !IsPossible() )

  0000e	83 7e 04 00	 cmp	 DWORD PTR [esi+4], 0
  00012	75 09		 jne	 SHORT $LN2@GetGoldDro

; 349  : 		return fFactor;

  00014	d9 e8		 fld1
  00016	5e		 pop	 esi

; 365  : }

  00017	8b e5		 mov	 esp, ebp
  00019	5d		 pop	 ebp
  0001a	c2 04 00	 ret	 4
$LN2@GetGoldDro:

; 350  : 
; 351  : #if __VER >= 12 // __EVENTLUA_0826
; 352  : 	if( bProxy )

  0001d	83 7d 08 00	 cmp	 DWORD PTR _bProxy$[ebp], 0
  00021	74 0a		 je	 SHORT $LN3@GetGoldDro

; 353  : 		return m_proxy.GetGoldDropFactor();

  00023	d9 46 2c	 fld	 DWORD PTR [esi+44]
  00026	5e		 pop	 esi

; 365  : }

  00027	8b e5		 mov	 esp, ebp
  00029	5d		 pop	 ebp
  0002a	c2 04 00	 ret	 4
$LN3@GetGoldDro:
  0002d	57		 push	 edi

; 354  : #endif	// __EVENTLUA_0826
; 355  : 
; 356  : 	if( m_Lua.GetLuaFunction( "GetGoldDropFactor" ) )

  0002e	68 00 00 00 00	 push	 OFFSET ??_C@_0BC@EAGMKEGO@GetGoldDropFactor@
  00033	8d 4e 08	 lea	 ecx, DWORD PTR [esi+8]
  00036	e8 00 00 00 00	 call	 ?GetLuaFunction@CLuaBase@@QAEHPAD@Z ; CLuaBase::GetLuaFunction
  0003b	85 c0		 test	 eax, eax
  0003d	74 1e		 je	 SHORT $LN4@GetGoldDro

; 357  : 	{
; 358  : 		m_Lua.CallLuaFunction( 0, 1 );

  0003f	6a 01		 push	 1
  00041	6a 00		 push	 0
  00043	8d 4e 08	 lea	 ecx, DWORD PTR [esi+8]
  00046	e8 00 00 00 00	 call	 ?CallLuaFunction@CLuaBase@@QAEXHH@Z ; CLuaBase::CallLuaFunction
; File C:\IAGOS\server\v18\Source\Source\_Common\LuaBase.h

; 43   : 	double		ToNumber( int nStackPos )					{  return lua_tonumber( m_pLuaState, nStackPos );  }

  0004b	6a 00		 push	 0
  0004d	6a ff		 push	 -1
  0004f	ff 76 0c	 push	 DWORD PTR [esi+12]
  00052	e8 00 00 00 00	 call	 _lua_tonumberx
; File C:\IAGOS\server\v18\Source\Source\_Common\EventLua.cpp

; 360  : 		fFactor = (float)m_Lua.ToNumber( -1 );

  00057	d9 5d fc	 fstp	 DWORD PTR _fFactor$[ebp]
; File C:\IAGOS\server\v18\Source\Source\_Common\LuaBase.h

; 43   : 	double		ToNumber( int nStackPos )					{  return lua_tonumber( m_pLuaState, nStackPos );  }

  0005a	83 c4 0c	 add	 esp, 12			; 0000000cH
$LN4@GetGoldDro:
; File C:\IAGOS\server\v18\Source\Source\_Common\EventLua.cpp

; 362  : 	m_Lua.Pop(0);

  0005d	6a 00		 push	 0
  0005f	8d 4e 08	 lea	 ecx, DWORD PTR [esi+8]
  00062	e8 00 00 00 00	 call	 ?Pop@CLuaBase@@QAEXH@Z	; CLuaBase::Pop

; 363  : 	
; 364  : 	return fFactor;

  00067	d9 45 fc	 fld	 DWORD PTR _fFactor$[ebp]
  0006a	5f		 pop	 edi
  0006b	5e		 pop	 esi

; 365  : }

  0006c	8b e5		 mov	 esp, ebp
  0006e	5d		 pop	 ebp
  0006f	c2 04 00	 ret	 4
?GetGoldDropFactor@CEventLua@@QAEMH@Z ENDP		; CEventLua::GetGoldDropFactor
_TEXT	ENDS
; Function compile flags: /Ogtp
; File C:\IAGOS\server\v18\Source\Source\_Common\EventLua.cpp
; File C:\IAGOS\server\v18\Source\Source\_Common\LuaBase.h
; File C:\IAGOS\server\v18\Source\Source\_Common\EventLua.cpp
; File C:\IAGOS\server\v18\Source\Source\_Common\LuaBase.h
; File C:\IAGOS\server\v18\Source\Source\_Common\EventLua.cpp
;	COMDAT ?GetPieceItemDropRate@CEventLua@@QAEMH@Z
_TEXT	SEGMENT
_fFactor$ = -4						; size = 4
_bProxy$ = 8						; size = 4
?GetPieceItemDropRate@CEventLua@@QAEMH@Z PROC		; CEventLua::GetPieceItemDropRate, COMDAT
; _this$ = ecx

; 322  : {

  00000	55		 push	 ebp
  00001	8b ec		 mov	 ebp, esp
  00003	51		 push	 ecx
  00004	56		 push	 esi
  00005	8b f1		 mov	 esi, ecx

; 323  : 	float fFactor = 1;

  00007	c7 45 fc 00 00
	80 3f		 mov	 DWORD PTR _fFactor$[ebp], 1065353216 ; 3f800000H

; 324  : 
; 325  : 	if( !IsPossible() )

  0000e	83 7e 04 00	 cmp	 DWORD PTR [esi+4], 0
  00012	75 09		 jne	 SHORT $LN2@GetPieceIt

; 326  : 		return fFactor;

  00014	d9 e8		 fld1
  00016	5e		 pop	 esi

; 342  : }

  00017	8b e5		 mov	 esp, ebp
  00019	5d		 pop	 ebp
  0001a	c2 04 00	 ret	 4
$LN2@GetPieceIt:

; 327  : 
; 328  : #if __VER >= 12 // __EVENTLUA_0826
; 329  : 	if( bProxy )

  0001d	83 7d 08 00	 cmp	 DWORD PTR _bProxy$[ebp], 0
  00021	74 0a		 je	 SHORT $LN3@GetPieceIt

; 330  : 		return m_proxy.GetPieceItemDropRate();

  00023	d9 46 28	 fld	 DWORD PTR [esi+40]
  00026	5e		 pop	 esi

; 342  : }

  00027	8b e5		 mov	 esp, ebp
  00029	5d		 pop	 ebp
  0002a	c2 04 00	 ret	 4
$LN3@GetPieceIt:
  0002d	57		 push	 edi

; 331  : #endif	// __EVENTLUA_0826
; 332  : 
; 333  : 	if( m_Lua.GetLuaFunction( "GetPieceItemDropRate" ) )

  0002e	68 00 00 00 00	 push	 OFFSET ??_C@_0BF@KBKPCOBF@GetPieceItemDropRate@
  00033	8d 4e 08	 lea	 ecx, DWORD PTR [esi+8]
  00036	e8 00 00 00 00	 call	 ?GetLuaFunction@CLuaBase@@QAEHPAD@Z ; CLuaBase::GetLuaFunction
  0003b	85 c0		 test	 eax, eax
  0003d	74 1e		 je	 SHORT $LN4@GetPieceIt

; 334  : 	{
; 335  : 		m_Lua.CallLuaFunction( 0, 1 );

  0003f	6a 01		 push	 1
  00041	6a 00		 push	 0
  00043	8d 4e 08	 lea	 ecx, DWORD PTR [esi+8]
  00046	e8 00 00 00 00	 call	 ?CallLuaFunction@CLuaBase@@QAEXHH@Z ; CLuaBase::CallLuaFunction
; File C:\IAGOS\server\v18\Source\Source\_Common\LuaBase.h

; 43   : 	double		ToNumber( int nStackPos )					{  return lua_tonumber( m_pLuaState, nStackPos );  }

  0004b	6a 00		 push	 0
  0004d	6a ff		 push	 -1
  0004f	ff 76 0c	 push	 DWORD PTR [esi+12]
  00052	e8 00 00 00 00	 call	 _lua_tonumberx
; File C:\IAGOS\server\v18\Source\Source\_Common\EventLua.cpp

; 337  : 		fFactor = (float)m_Lua.ToNumber( -1 );

  00057	d9 5d fc	 fstp	 DWORD PTR _fFactor$[ebp]
; File C:\IAGOS\server\v18\Source\Source\_Common\LuaBase.h

; 43   : 	double		ToNumber( int nStackPos )					{  return lua_tonumber( m_pLuaState, nStackPos );  }

  0005a	83 c4 0c	 add	 esp, 12			; 0000000cH
$LN4@GetPieceIt:
; File C:\IAGOS\server\v18\Source\Source\_Common\EventLua.cpp

; 339  : 	m_Lua.Pop(0);

  0005d	6a 00		 push	 0
  0005f	8d 4e 08	 lea	 ecx, DWORD PTR [esi+8]
  00062	e8 00 00 00 00	 call	 ?Pop@CLuaBase@@QAEXH@Z	; CLuaBase::Pop

; 340  : 	
; 341  : 	return fFactor;

  00067	d9 45 fc	 fld	 DWORD PTR _fFactor$[ebp]
  0006a	5f		 pop	 edi
  0006b	5e		 pop	 esi

; 342  : }

  0006c	8b e5		 mov	 esp, ebp
  0006e	5d		 pop	 ebp
  0006f	c2 04 00	 ret	 4
?GetPieceItemDropRate@CEventLua@@QAEMH@Z ENDP		; CEventLua::GetPieceItemDropRate
_TEXT	ENDS
; Function compile flags: /Ogtp
; File C:\IAGOS\server\v18\Source\Source\_Common\EventLua.cpp
; File C:\IAGOS\server\v18\Source\Source\_Common\LuaBase.h
; File C:\IAGOS\server\v18\Source\Source\_Common\EventLua.cpp
; File C:\IAGOS\server\v18\Source\Source\_Common\LuaBase.h
; File C:\IAGOS\server\v18\Source\Source\_Common\EventLua.cpp
;	COMDAT ?GetItemDropRate@CEventLua@@QAEMH@Z
_TEXT	SEGMENT
_fFactor$ = -4						; size = 4
_bProxy$ = 8						; size = 4
?GetItemDropRate@CEventLua@@QAEMH@Z PROC		; CEventLua::GetItemDropRate, COMDAT
; _this$ = ecx

; 299  : {

  00000	55		 push	 ebp
  00001	8b ec		 mov	 ebp, esp
  00003	51		 push	 ecx
  00004	56		 push	 esi
  00005	8b f1		 mov	 esi, ecx

; 300  : 	float fFactor = 1;

  00007	c7 45 fc 00 00
	80 3f		 mov	 DWORD PTR _fFactor$[ebp], 1065353216 ; 3f800000H

; 301  : 
; 302  : 	if( !IsPossible() )

  0000e	83 7e 04 00	 cmp	 DWORD PTR [esi+4], 0
  00012	75 09		 jne	 SHORT $LN2@GetItemDro

; 303  : 		return fFactor;

  00014	d9 e8		 fld1
  00016	5e		 pop	 esi

; 319  : }

  00017	8b e5		 mov	 esp, ebp
  00019	5d		 pop	 ebp
  0001a	c2 04 00	 ret	 4
$LN2@GetItemDro:

; 304  : 
; 305  : #if __VER >= 12 // __EVENTLUA_0826
; 306  : 	if( bProxy )

  0001d	83 7d 08 00	 cmp	 DWORD PTR _bProxy$[ebp], 0
  00021	74 0a		 je	 SHORT $LN3@GetItemDro

; 307  : 		return m_proxy.GetItemDropRate();

  00023	d9 46 24	 fld	 DWORD PTR [esi+36]
  00026	5e		 pop	 esi

; 319  : }

  00027	8b e5		 mov	 esp, ebp
  00029	5d		 pop	 ebp
  0002a	c2 04 00	 ret	 4
$LN3@GetItemDro:
  0002d	57		 push	 edi

; 308  : #endif	// __EVENTLUA_0826
; 309  : 
; 310  : 	if( m_Lua.GetLuaFunction( "GetItemDropRate" ) )

  0002e	68 00 00 00 00	 push	 OFFSET ??_C@_0BA@MLJLEPOJ@GetItemDropRate@
  00033	8d 4e 08	 lea	 ecx, DWORD PTR [esi+8]
  00036	e8 00 00 00 00	 call	 ?GetLuaFunction@CLuaBase@@QAEHPAD@Z ; CLuaBase::GetLuaFunction
  0003b	85 c0		 test	 eax, eax
  0003d	74 1e		 je	 SHORT $LN4@GetItemDro

; 311  : 	{
; 312  : 		m_Lua.CallLuaFunction( 0, 1 );

  0003f	6a 01		 push	 1
  00041	6a 00		 push	 0
  00043	8d 4e 08	 lea	 ecx, DWORD PTR [esi+8]
  00046	e8 00 00 00 00	 call	 ?CallLuaFunction@CLuaBase@@QAEXHH@Z ; CLuaBase::CallLuaFunction
; File C:\IAGOS\server\v18\Source\Source\_Common\LuaBase.h

; 43   : 	double		ToNumber( int nStackPos )					{  return lua_tonumber( m_pLuaState, nStackPos );  }

  0004b	6a 00		 push	 0
  0004d	6a ff		 push	 -1
  0004f	ff 76 0c	 push	 DWORD PTR [esi+12]
  00052	e8 00 00 00 00	 call	 _lua_tonumberx
; File C:\IAGOS\server\v18\Source\Source\_Common\EventLua.cpp

; 314  : 		fFactor = (float)m_Lua.ToNumber( -1 );

  00057	d9 5d fc	 fstp	 DWORD PTR _fFactor$[ebp]
; File C:\IAGOS\server\v18\Source\Source\_Common\LuaBase.h

; 43   : 	double		ToNumber( int nStackPos )					{  return lua_tonumber( m_pLuaState, nStackPos );  }

  0005a	83 c4 0c	 add	 esp, 12			; 0000000cH
$LN4@GetItemDro:
; File C:\IAGOS\server\v18\Source\Source\_Common\EventLua.cpp

; 316  : 	m_Lua.Pop(0);

  0005d	6a 00		 push	 0
  0005f	8d 4e 08	 lea	 ecx, DWORD PTR [esi+8]
  00062	e8 00 00 00 00	 call	 ?Pop@CLuaBase@@QAEXH@Z	; CLuaBase::Pop

; 317  : 	
; 318  : 	return fFactor;

  00067	d9 45 fc	 fld	 DWORD PTR _fFactor$[ebp]
  0006a	5f		 pop	 edi
  0006b	5e		 pop	 esi

; 319  : }

  0006c	8b e5		 mov	 esp, ebp
  0006e	5d		 pop	 ebp
  0006f	c2 04 00	 ret	 4
?GetItemDropRate@CEventLua@@QAEMH@Z ENDP		; CEventLua::GetItemDropRate
_TEXT	ENDS
; Function compile flags: /Ogtp
; File C:\IAGOS\server\v18\Source\Source\_Common\EventLua.cpp
; File C:\IAGOS\server\v18\Source\Source\_Common\LuaBase.h
; File C:\IAGOS\server\v18\Source\Source\_Common\EventLua.cpp
; File C:\IAGOS\server\v18\Source\Source\_Common\LuaBase.h
; File C:\IAGOS\server\v18\Source\Source\_Common\EventLua.cpp
;	COMDAT ?GetExpFactor@CEventLua@@QAEMH@Z
_TEXT	SEGMENT
_fFactor$ = -4						; size = 4
_bProxy$ = 8						; size = 4
?GetExpFactor@CEventLua@@QAEMH@Z PROC			; CEventLua::GetExpFactor, COMDAT
; _this$ = ecx

; 276  : {

  00000	55		 push	 ebp
  00001	8b ec		 mov	 ebp, esp
  00003	51		 push	 ecx
  00004	56		 push	 esi
  00005	8b f1		 mov	 esi, ecx

; 277  : 	float fFactor = 1;

  00007	c7 45 fc 00 00
	80 3f		 mov	 DWORD PTR _fFactor$[ebp], 1065353216 ; 3f800000H

; 278  : 
; 279  : 	if( !IsPossible() )

  0000e	83 7e 04 00	 cmp	 DWORD PTR [esi+4], 0
  00012	75 09		 jne	 SHORT $LN2@GetExpFact

; 280  : 		return fFactor;

  00014	d9 e8		 fld1
  00016	5e		 pop	 esi

; 296  : }

  00017	8b e5		 mov	 esp, ebp
  00019	5d		 pop	 ebp
  0001a	c2 04 00	 ret	 4
$LN2@GetExpFact:

; 281  : 
; 282  : #if __VER >= 12 // __EVENTLUA_0826
; 283  : 	if( bProxy )

  0001d	83 7d 08 00	 cmp	 DWORD PTR _bProxy$[ebp], 0
  00021	74 0a		 je	 SHORT $LN3@GetExpFact

; 284  : 		return m_proxy.GetExpFactor();

  00023	d9 46 20	 fld	 DWORD PTR [esi+32]
  00026	5e		 pop	 esi

; 296  : }

  00027	8b e5		 mov	 esp, ebp
  00029	5d		 pop	 ebp
  0002a	c2 04 00	 ret	 4
$LN3@GetExpFact:
  0002d	57		 push	 edi

; 285  : #endif	// __EVENTLUA_0826
; 286  : 
; 287  : 	if( m_Lua.GetLuaFunction( "GetExpFactor" ) )

  0002e	68 00 00 00 00	 push	 OFFSET ??_C@_0N@NBPJBJNN@GetExpFactor@
  00033	8d 4e 08	 lea	 ecx, DWORD PTR [esi+8]
  00036	e8 00 00 00 00	 call	 ?GetLuaFunction@CLuaBase@@QAEHPAD@Z ; CLuaBase::GetLuaFunction
  0003b	85 c0		 test	 eax, eax
  0003d	74 1e		 je	 SHORT $LN4@GetExpFact

; 288  : 	{
; 289  : 		m_Lua.CallLuaFunction( 0, 1 );

  0003f	6a 01		 push	 1
  00041	6a 00		 push	 0
  00043	8d 4e 08	 lea	 ecx, DWORD PTR [esi+8]
  00046	e8 00 00 00 00	 call	 ?CallLuaFunction@CLuaBase@@QAEXHH@Z ; CLuaBase::CallLuaFunction
; File C:\IAGOS\server\v18\Source\Source\_Common\LuaBase.h

; 43   : 	double		ToNumber( int nStackPos )					{  return lua_tonumber( m_pLuaState, nStackPos );  }

  0004b	6a 00		 push	 0
  0004d	6a ff		 push	 -1
  0004f	ff 76 0c	 push	 DWORD PTR [esi+12]
  00052	e8 00 00 00 00	 call	 _lua_tonumberx
; File C:\IAGOS\server\v18\Source\Source\_Common\EventLua.cpp

; 291  : 		fFactor = (float)m_Lua.ToNumber( -1 );

  00057	d9 5d fc	 fstp	 DWORD PTR _fFactor$[ebp]
; File C:\IAGOS\server\v18\Source\Source\_Common\LuaBase.h

; 43   : 	double		ToNumber( int nStackPos )					{  return lua_tonumber( m_pLuaState, nStackPos );  }

  0005a	83 c4 0c	 add	 esp, 12			; 0000000cH
$LN4@GetExpFact:
; File C:\IAGOS\server\v18\Source\Source\_Common\EventLua.cpp

; 293  : 	m_Lua.Pop(0);

  0005d	6a 00		 push	 0
  0005f	8d 4e 08	 lea	 ecx, DWORD PTR [esi+8]
  00062	e8 00 00 00 00	 call	 ?Pop@CLuaBase@@QAEXH@Z	; CLuaBase::Pop

; 294  : 
; 295  : 	return fFactor;

  00067	d9 45 fc	 fld	 DWORD PTR _fFactor$[ebp]
  0006a	5f		 pop	 edi
  0006b	5e		 pop	 esi

; 296  : }

  0006c	8b e5		 mov	 esp, ebp
  0006e	5d		 pop	 ebp
  0006f	c2 04 00	 ret	 4
?GetExpFactor@CEventLua@@QAEMH@Z ENDP			; CEventLua::GetExpFactor
_TEXT	ENDS
; Function compile flags: /Ogtp
; File C:\IAGOS\server\v18\Source\Source\_Common\EventLua.cpp
; File C:\IAGOS\server\v18\Source\Source\_Common\LuaBase.h
; File C:\IAGOS\server\v18\Source\Source\_Common\EventLua.cpp
; File C:\IAGOS\server\v18\Source\Source\_Common\LuaBase.h
; File C:\IAGOS\server\v18\Source\Source\_Common\EventLua.cpp
; File C:\IAGOS\server\v18\Source\Source\_Common\LuaBase.h
; File C:\IAGOS\server\v18\Source\Source\_Common\EventLua.cpp
; File C:\IAGOS\server\v18\Source\Source\_Common\LuaBase.h
; File C:\IAGOS\server\v18\Source\Source\_Common\EventLua.cpp
; File C:\IAGOS\server\v18\Source\Source\_Common\LuaBase.h
; File C:\IAGOS\server\v18\Source\Source\_Common\EventLua.cpp
;	COMDAT ?SetState@CEventLua@@QAEXEH@Z
_TEXT	SEGMENT
_nId$ = 8						; size = 1
_bState$ = 12						; size = 4
?SetState@CEventLua@@QAEXEH@Z PROC			; CEventLua::SetState, COMDAT
; _this$ = ecx

; 205  : {

  00000	55		 push	 ebp
  00001	8b ec		 mov	 ebp, esp
  00003	56		 push	 esi
  00004	8b f1		 mov	 esi, ecx

; 206  : 	if( !IsPossible() )

  00006	83 7e 04 00	 cmp	 DWORD PTR [esi+4], 0
  0000a	0f 84 87 00 00
	00		 je	 $LN1@SetState

; 207  : 		return;
; 208  : 
; 209  : 	if( m_Lua.GetLuaFunction( "SetState" ) )

  00010	57		 push	 edi
  00011	68 00 00 00 00	 push	 OFFSET ??_C@_08JMKFDPFL@SetState@
  00016	8d 4e 08	 lea	 ecx, DWORD PTR [esi+8]
  00019	e8 00 00 00 00	 call	 ?GetLuaFunction@CLuaBase@@QAEHPAD@Z ; CLuaBase::GetLuaFunction
  0001e	85 c0		 test	 eax, eax
  00020	74 5d		 je	 SHORT $LN3@SetState

; 211  : 		m_Lua.PushNumber( nId );

  00022	8b 45 08	 mov	 eax, DWORD PTR _nId$[ebp]
; File C:\IAGOS\server\v18\Source\Source\_Common\LuaBase.h

; 36   : 	void		PushNumber( double nValue )					{  lua_pushnumber( m_pLuaState, nValue );  }

  00025	83 ec 08	 sub	 esp, 8
; File C:\IAGOS\server\v18\Source\Source\_Common\EventLua.cpp

; 211  : 		m_Lua.PushNumber( nId );

  00028	0f b6 c0	 movzx	 eax, al
  0002b	66 0f 6e c0	 movd	 xmm0, eax
  0002f	f3 0f e6 c0	 cvtdq2pd xmm0, xmm0
; File C:\IAGOS\server\v18\Source\Source\_Common\LuaBase.h

; 36   : 	void		PushNumber( double nValue )					{  lua_pushnumber( m_pLuaState, nValue );  }

  00033	f2 0f 11 04 24	 movsd	 QWORD PTR [esp], xmm0
  00038	ff 76 0c	 push	 DWORD PTR [esi+12]
  0003b	e8 00 00 00 00	 call	 _lua_pushnumber
; File C:\IAGOS\server\v18\Source\Source\_Common\EventLua.cpp

; 212  : 		m_Lua.PushNumber( bState ? 1 : 0 );

  00040	33 c0		 xor	 eax, eax
  00042	39 45 0c	 cmp	 DWORD PTR _bState$[ebp], eax
  00045	0f 95 c0	 setne	 al
; File C:\IAGOS\server\v18\Source\Source\_Common\LuaBase.h

; 36   : 	void		PushNumber( double nValue )					{  lua_pushnumber( m_pLuaState, nValue );  }

  00048	83 c4 04	 add	 esp, 4
  0004b	66 0f 6e c0	 movd	 xmm0, eax
; File C:\IAGOS\server\v18\Source\Source\_Common\EventLua.cpp

; 212  : 		m_Lua.PushNumber( bState ? 1 : 0 );

  0004f	f3 0f e6 c0	 cvtdq2pd xmm0, xmm0
; File C:\IAGOS\server\v18\Source\Source\_Common\LuaBase.h

; 36   : 	void		PushNumber( double nValue )					{  lua_pushnumber( m_pLuaState, nValue );  }

  00053	f2 0f 11 04 24	 movsd	 QWORD PTR [esp], xmm0
  00058	ff 76 0c	 push	 DWORD PTR [esi+12]
  0005b	e8 00 00 00 00	 call	 _lua_pushnumber
  00060	83 c4 0c	 add	 esp, 12			; 0000000cH
; File C:\IAGOS\server\v18\Source\Source\_Common\EventLua.cpp

; 213  : 		m_Lua.CallLuaFunction( 2, 1 );

  00063	8d 4e 08	 lea	 ecx, DWORD PTR [esi+8]
  00066	6a 01		 push	 1
  00068	6a 02		 push	 2
  0006a	e8 00 00 00 00	 call	 ?CallLuaFunction@CLuaBase@@QAEXHH@Z ; CLuaBase::CallLuaFunction
; File C:\IAGOS\server\v18\Source\Source\_Common\LuaBase.h

; 45   : 	BOOL		ToBool( int nStackPos )						{  return static_cast<BOOL>( lua_toboolean( m_pLuaState, nStackPos ) );  }

  0006f	6a ff		 push	 -1
  00071	ff 76 0c	 push	 DWORD PTR [esi+12]
  00074	e8 00 00 00 00	 call	 _lua_toboolean
  00079	83 c4 08	 add	 esp, 8
; File C:\IAGOS\server\v18\Source\Source\_Common\EventLua.cpp

; 214  : 		m_bRun = m_Lua.ToBool( -1 );

  0007c	89 46 04	 mov	 DWORD PTR [esi+4], eax
$LN3@SetState:

; 215  : 	}
; 216  : 
; 217  : 	m_Lua.Pop(0);

  0007f	6a 00		 push	 0
  00081	8d 4e 08	 lea	 ecx, DWORD PTR [esi+8]
  00084	e8 00 00 00 00	 call	 ?Pop@CLuaBase@@QAEXH@Z	; CLuaBase::Pop

; 218  : #ifdef __EVENTLUA_SPAWN
; 219  : 	SetSpawnEvent( nId, bState );

  00089	ff 75 0c	 push	 DWORD PTR _bState$[ebp]
  0008c	8b ce		 mov	 ecx, esi
  0008e	ff 75 08	 push	 DWORD PTR _nId$[ebp]
  00091	e8 00 00 00 00	 call	 ?SetSpawnEvent@CEventLua@@AAEXEH@Z ; CEventLua::SetSpawnEvent
  00096	5f		 pop	 edi
$LN1@SetState:
  00097	5e		 pop	 esi

; 220  : #endif // __EVENTLUA_SPAWN
; 221  : }

  00098	5d		 pop	 ebp
  00099	c2 08 00	 ret	 8
?SetState@CEventLua@@QAEXEH@Z ENDP			; CEventLua::SetState
_TEXT	ENDS
; Function compile flags: /Ogtp
; File C:\IAGOS\server\v18\Source\Source\_Common\EventLua.cpp
; File C:\IAGOS\server\v18\Source\Source\_Common\EventLua.h
; File C:\IAGOS\server\v18\Source\Source\_Common\EventLua.cpp
; File C:\IAGOS\server\v18\Source\Source\_Common\EventLua.h
; File C:\Program Files\Microsoft Visual Studio\2022\Professional\VC\Tools\MSVC\14.44.35207\include\xtree
; File C:\IAGOS\server\v18\Source\Source\_Common\EventLua.cpp
; File C:\Program Files\Microsoft Visual Studio\2022\Professional\VC\Tools\MSVC\14.44.35207\include\vector
; File C:\Program Files\Microsoft Visual Studio\2022\Professional\VC\Tools\MSVC\14.44.35207\include\xmemory
; File C:\Program Files\Microsoft Visual Studio\2022\Professional\VC\Tools\MSVC\14.44.35207\include\vector
; File C:\Program Files\Microsoft Visual Studio\2022\Professional\VC\Tools\MSVC\14.44.35207\include\xmemory
; File C:\Program Files\Microsoft Visual Studio\2022\Professional\VC\Tools\MSVC\14.44.35207\include\vector
; File C:\Program Files\Microsoft Visual Studio\2022\Professional\VC\Tools\MSVC\14.44.35207\include\xmemory
; File C:\Program Files\Microsoft Visual Studio\2022\Professional\VC\Tools\MSVC\14.44.35207\include\vector
; File C:\Program Files\Microsoft Visual Studio\2022\Professional\VC\Tools\MSVC\14.44.35207\include\xmemory
; File C:\Program Files\Microsoft Visual Studio\2022\Professional\VC\Tools\MSVC\14.44.35207\include\vector
; File C:\Program Files\Microsoft Visual Studio\2022\Professional\VC\Tools\MSVC\14.44.35207\include\xmemory
; File C:\Program Files\Microsoft Visual Studio\2022\Professional\VC\Tools\MSVC\14.44.35207\include\vector
; File C:\Program Files\Microsoft Visual Studio\2022\Professional\VC\Tools\MSVC\14.44.35207\include\xmemory
; File C:\Program Files\Microsoft Visual Studio\2022\Professional\VC\Tools\MSVC\14.44.35207\include\vector
; File C:\Program Files\Microsoft Visual Studio\2022\Professional\VC\Tools\MSVC\14.44.35207\include\xtree
; File C:\IAGOS\server\v18\Source\Source\_Common\EventLua.cpp
; File C:\Program Files\Microsoft Visual Studio\2022\Professional\VC\Tools\MSVC\14.44.35207\include\xtree
; File C:\IAGOS\server\v18\Source\Source\_Common\EventLua.cpp
; File C:\Program Files\Microsoft Visual Studio\2022\Professional\VC\Tools\MSVC\14.44.35207\include\vector
; File C:\IAGOS\server\v18\Source\Source\_Common\EventLua.cpp
;	COMDAT ?LoadScript@CEventLua@@QAEXXZ
_TEXT	SEGMENT
__Whereptr$1$ = -28					; size = 4
__Oldsize$1$ = -24					; size = 4
tv857 = -24						; size = 4
tv880 = -20						; size = 4
_this$1$ = -16						; size = 4
_it$1 = -12						; size = 4
__Newsize$1$ = -8					; size = 4
$T2 = -4						; size = 4
?LoadScript@CEventLua@@QAEXXZ PROC			; CEventLua::LoadScript, COMDAT
; _this$ = ecx

; 174  : {

  00000	55		 push	 ebp
  00001	8b ec		 mov	 ebp, esp
  00003	83 ec 1c	 sub	 esp, 28			; 0000001cH
  00006	57		 push	 edi
  00007	8b f9		 mov	 edi, ecx

; 175  : 	m_bRun = FALSE;
; 176  : 	if( m_Lua.RunScript( "Event.lua" ) == 0 )

  00009	68 00 00 00 00	 push	 OFFSET ??_C@_09BFLDBOAB@Event?4lua@
  0000e	8d 4f 08	 lea	 ecx, DWORD PTR [edi+8]
  00011	c7 47 04 00 00
	00 00		 mov	 DWORD PTR [edi+4], 0
  00018	e8 00 00 00 00	 call	 ?RunScript@CLuaBase@@QAEHPBD@Z ; CLuaBase::RunScript
  0001d	85 c0		 test	 eax, eax
  0001f	0f 85 4c 01 00
	00		 jne	 $LN5@LoadScript
  00025	53		 push	 ebx
  00026	56		 push	 esi
; File C:\IAGOS\server\v18\Source\Source\_Common\EventLua.h

; 194  : 	void	PrepareProxy()	{	m_proxy.Initialize( this );	}

  00027	57		 push	 edi
  00028	8d 4f 10	 lea	 ecx, DWORD PTR [edi+16]
; File C:\IAGOS\server\v18\Source\Source\_Common\EventLua.cpp

; 178  : 		m_bRun = TRUE;

  0002b	c7 47 04 01 00
	00 00		 mov	 DWORD PTR [edi+4], 1
; File C:\IAGOS\server\v18\Source\Source\_Common\EventLua.h

; 194  : 	void	PrepareProxy()	{	m_proxy.Initialize( this );	}

  00032	e8 00 00 00 00	 call	 ?Initialize@CEventLuaProxy@@QAEXPAVCEventLua@@@Z ; CEventLuaProxy::Initialize
; File C:\Program Files\Microsoft Visual Studio\2022\Professional\VC\Tools\MSVC\14.44.35207\include\xtree

; 1142 :         return iterator(_Scary->_Myhead->_Left, _Scary);

  00037	8b 5f 5c	 mov	 ebx, DWORD PTR [edi+92]
  0003a	8d 47 5c	 lea	 eax, DWORD PTR [edi+92]
  0003d	89 45 f0	 mov	 DWORD PTR _this$1$[ebp], eax

; 37   :     _Tree_unchecked_const_iterator(_Nodeptr _Pnode, const _Mytree* _Plist) noexcept : _Ptr(_Pnode) {

  00040	8b 33		 mov	 esi, DWORD PTR [ebx]
  00042	89 75 f4	 mov	 DWORD PTR _it$1[ebp], esi

; 237  :         return !(*this == _Right);

  00045	3b f3		 cmp	 esi, ebx
; File C:\IAGOS\server\v18\Source\Source\_Common\EventLua.cpp

; 184  : 		for( map<BYTE, VECSPAWNINFO>::iterator it=m_mapSpawnList.begin(); it!=m_mapSpawnList.end(); it++ )

  00047	0f 84 00 01 00
	00		 je	 $LN3@LoadScript
  0004d	0f 1f 00	 npad	 3
$LL4@LoadScript:
; File C:\Program Files\Microsoft Visual Studio\2022\Professional\VC\Tools\MSVC\14.44.35207\include\vector

; 844  :         if (_Mylast != _My_data._Myend) {

  00050	8b 4f 78	 mov	 ecx, DWORD PTR [edi+120]
  00053	8b 57 7c	 mov	 edx, DWORD PTR [edi+124]
  00056	89 4d e4	 mov	 DWORD PTR __Whereptr$1$[ebp], ecx
  00059	3b ca		 cmp	 ecx, edx
  0005b	74 0d		 je	 SHORT $LN58@LoadScript

; 860  :             _STD _Construct_in_place(*_Mylast, _STD forward<_Valty>(_Val)...);

  0005d	8a 46 10	 mov	 al, BYTE PTR [esi+16]
  00060	88 01		 mov	 BYTE PTR [ecx], al

; 861  :         } else {
; 862  :             _ASAN_VECTOR_EXTEND_GUARD(static_cast<size_type>(_Mylast - _My_data._Myfirst) + 1);
; 863  :             _Alty_traits::construct(_Getal(), _Unfancy(_Mylast), _STD forward<_Valty>(_Val)...);
; 864  :             _ASAN_VECTOR_RELEASE_GUARD;
; 865  :         }
; 866  : 
; 867  :         _Orphan_range(_Mylast, _Mylast);
; 868  :         _Ty& _Result = *_Mylast;
; 869  :         ++_Mylast;

  00062	ff 47 78	 inc	 DWORD PTR [edi+120]

; 845  :             return _Emplace_back_with_unused_capacity(_STD forward<_Valty>(_Val)...);

  00065	e9 cb 00 00 00	 jmp	 $LN2@LoadScript
$LN58@LoadScript:

; 884  :         const auto _Whereoff = static_cast<size_type>(_Whereptr - _Myfirst);

  0006a	8b 5f 74	 mov	 ebx, DWORD PTR [edi+116]
  0006d	8b c1		 mov	 eax, ecx
  0006f	2b c3		 sub	 eax, ebx
  00071	89 45 e8	 mov	 DWORD PTR __Oldsize$1$[ebp], eax

; 885  :         const auto _Oldsize  = static_cast<size_type>(_Mylast - _Myfirst);
; 886  : 
; 887  :         if (_Oldsize == max_size()) {

  00074	3d ff ff ff 7f	 cmp	 eax, 2147483647		; 7fffffffH
  00079	0f 84 04 01 00
	00		 je	 $LN144@LoadScript

; 889  :         }
; 890  : 
; 891  :         const size_type _Newsize = _Oldsize + 1;

  0007f	40		 inc	 eax

; 1924 :         return static_cast<size_type>(_My_data._Myend - _My_data._Myfirst);

  00080	2b d3		 sub	 edx, ebx

; 891  :         const size_type _Newsize = _Oldsize + 1;

  00082	89 45 f8	 mov	 DWORD PTR __Newsize$1$[ebp], eax

; 2011 :         if (_Oldcapacity > _Max - _Oldcapacity / 2) {

  00085	8b ca		 mov	 ecx, edx
  00087	d1 e9		 shr	 ecx, 1
  00089	b8 ff ff ff 7f	 mov	 eax, 2147483647		; 7fffffffH
  0008e	2b c1		 sub	 eax, ecx
  00090	3b d0		 cmp	 edx, eax
  00092	76 12		 jbe	 SHORT $LN69@LoadScript

; 2012 :             return _Max; // geometric growth would overflow

  00094	b8 ff ff ff 7f	 mov	 eax, 2147483647		; 7fffffffH
; File C:\Program Files\Microsoft Visual Studio\2022\Professional\VC\Tools\MSVC\14.44.35207\include\xmemory

; 253  :             return _Allocate_manually_vector_aligned<_Traits>(_Bytes);

  00099	50		 push	 eax
; File C:\Program Files\Microsoft Visual Studio\2022\Professional\VC\Tools\MSVC\14.44.35207\include\vector

; 2012 :             return _Max; // geometric growth would overflow

  0009a	89 45 fc	 mov	 DWORD PTR $T2[ebp], eax
; File C:\Program Files\Microsoft Visual Studio\2022\Professional\VC\Tools\MSVC\14.44.35207\include\xmemory

; 253  :             return _Allocate_manually_vector_aligned<_Traits>(_Bytes);

  0009d	e8 00 00 00 00	 call	 ??$_Allocate_manually_vector_aligned@U_Default_allocate_traits@std@@@std@@YAPAXI@Z ; std::_Allocate_manually_vector_aligned<std::_Default_allocate_traits>
  000a2	8b d8		 mov	 ebx, eax
  000a4	eb 40		 jmp	 SHORT $LN159@LoadScript
$LN69@LoadScript:
; File C:\Program Files\Microsoft Visual Studio\2022\Professional\VC\Tools\MSVC\14.44.35207\include\vector

; 2015 :         const size_type _Geometric = _Oldcapacity + _Oldcapacity / 2;

  000a6	8d 04 11	 lea	 eax, DWORD PTR [ecx+edx]
; File C:\Program Files\Microsoft Visual Studio\2022\Professional\VC\Tools\MSVC\14.44.35207\include\xmemory

; 227  :     if (_Bytes == 0) {

  000a9	8b 4d f8	 mov	 ecx, DWORD PTR __Newsize$1$[ebp]
  000ac	3b c1		 cmp	 eax, ecx
  000ae	0f 43 c8	 cmovae	 ecx, eax
  000b1	89 4d fc	 mov	 DWORD PTR $T2[ebp], ecx
  000b4	8b d1		 mov	 edx, ecx
  000b6	89 55 ec	 mov	 DWORD PTR tv880[ebp], edx
  000b9	85 c9		 test	 ecx, ecx
  000bb	75 04		 jne	 SHORT $LN80@LoadScript

; 228  :         return nullptr;

  000bd	33 db		 xor	 ebx, ebx
  000bf	eb 28		 jmp	 SHORT $LN79@LoadScript
$LN80@LoadScript:

; 229  :     }
; 230  : 
; 231  : #if _HAS_CXX20 // TRANSITION, GH-1532
; 232  :     if (_STD is_constant_evaluated()) {
; 233  :         return _Traits::_Allocate(_Bytes);
; 234  :     }
; 235  : #endif // _HAS_CXX20
; 236  : 
; 237  : #ifdef __cpp_aligned_new
; 238  :     if constexpr (_Align > __STDCPP_DEFAULT_NEW_ALIGNMENT__) {
; 239  :         size_t _Passed_align = _Align;
; 240  : #if defined(_M_IX86) || defined(_M_X64)
; 241  :         if (_Bytes >= _Big_allocation_threshold) {
; 242  :             // boost the alignment of big allocations to help autovectorization
; 243  :             _Passed_align = (_STD max)(_Align, _Big_allocation_alignment);
; 244  :         }
; 245  : #endif // defined(_M_IX86) || defined(_M_X64)
; 246  :         return _Traits::_Allocate_aligned(_Bytes, _Passed_align);
; 247  :     } else
; 248  : #endif // defined(__cpp_aligned_new)
; 249  :     {
; 250  : #if defined(_M_IX86) || defined(_M_X64)
; 251  :         if (_Bytes >= _Big_allocation_threshold) {

  000c1	8b c2		 mov	 eax, edx
  000c3	89 45 fc	 mov	 DWORD PTR $T2[ebp], eax
  000c6	81 fa 00 10 00
	00		 cmp	 edx, 4096		; 00001000H
  000cc	72 0a		 jb	 SHORT $LN81@LoadScript

; 253  :             return _Allocate_manually_vector_aligned<_Traits>(_Bytes);

  000ce	50		 push	 eax
  000cf	e8 00 00 00 00	 call	 ??$_Allocate_manually_vector_aligned@U_Default_allocate_traits@std@@@std@@YAPAXI@Z ; std::_Allocate_manually_vector_aligned<std::_Default_allocate_traits>
  000d4	8b d8		 mov	 ebx, eax
  000d6	eb 0e		 jmp	 SHORT $LN159@LoadScript
$LN81@LoadScript:

; 136  :         return ::operator new(_Bytes);

  000d8	52		 push	 edx
  000d9	e8 00 00 00 00	 call	 ??2@YAPAXI@Z		; operator new

; 256  :         return _Traits::_Allocate(_Bytes);

  000de	8b d8		 mov	 ebx, eax
  000e0	8b 45 ec	 mov	 eax, DWORD PTR tv880[ebp]
  000e3	89 45 fc	 mov	 DWORD PTR $T2[ebp], eax
$LN159@LoadScript:
; File C:\Program Files\Microsoft Visual Studio\2022\Professional\VC\Tools\MSVC\14.44.35207\include\vector

; 900  :         _Alty_traits::construct(_Al, _STD _Unfancy(_Newvec + _Whereoff), _STD forward<_Valty>(_Val)...);

  000e6	83 c4 04	 add	 esp, 4
$LN79@LoadScript:
  000e9	8b 4d e8	 mov	 ecx, DWORD PTR __Oldsize$1$[ebp]
  000ec	8a 46 10	 mov	 al, BYTE PTR [esi+16]
  000ef	03 cb		 add	 ecx, ebx

; 901  :         _Constructed_first = _Newvec + _Whereoff;
; 902  : 
; 903  :         if (_Whereptr == _Mylast) { // at back, provide strong guarantee

  000f1	8b 75 e4	 mov	 esi, DWORD PTR __Whereptr$1$[ebp]
  000f4	89 4d e8	 mov	 DWORD PTR tv857[ebp], ecx
  000f7	88 01		 mov	 BYTE PTR [ecx], al
  000f9	8b 47 78	 mov	 eax, DWORD PTR [edi+120]
  000fc	8b 4f 74	 mov	 ecx, DWORD PTR [edi+116]
  000ff	3b f0		 cmp	 esi, eax
  00101	75 04		 jne	 SHORT $LN64@LoadScript
; File C:\Program Files\Microsoft Visual Studio\2022\Professional\VC\Tools\MSVC\14.44.35207\include\xmemory

; 1992 :             _STD _Copy_memmove(_UFirst, _ULast, _STD _Unfancy(_Dest));

  00103	8b d3		 mov	 edx, ebx
; File C:\Program Files\Microsoft Visual Studio\2022\Professional\VC\Tools\MSVC\14.44.35207\include\vector

; 909  :         } else { // provide basic guarantee

  00105	eb 14		 jmp	 SHORT $LN107@LoadScript
$LN64@LoadScript:
; File C:\Program Files\Microsoft Visual Studio\2022\Professional\VC\Tools\MSVC\14.44.35207\include\xmemory

; 1992 :             _STD _Copy_memmove(_UFirst, _ULast, _STD _Unfancy(_Dest));

  00107	53		 push	 ebx
  00108	56		 push	 esi
  00109	51		 push	 ecx
  0010a	e8 00 00 00 00	 call	 ??$_Copy_memmove@PAEPAE@std@@YAPAEPAE00@Z ; std::_Copy_memmove<unsigned char *,unsigned char *>
; File C:\Program Files\Microsoft Visual Studio\2022\Professional\VC\Tools\MSVC\14.44.35207\include\vector

; 912  :             _STD _Uninitialized_move(_Whereptr, _Mylast, _Newvec + _Whereoff + 1, _Al);

  0010f	8b 55 e8	 mov	 edx, DWORD PTR tv857[ebp]
; File C:\Program Files\Microsoft Visual Studio\2022\Professional\VC\Tools\MSVC\14.44.35207\include\xmemory

; 1992 :             _STD _Copy_memmove(_UFirst, _ULast, _STD _Unfancy(_Dest));

  00112	83 c4 0c	 add	 esp, 12			; 0000000cH
  00115	8b 47 78	 mov	 eax, DWORD PTR [edi+120]
  00118	8b ce		 mov	 ecx, esi
; File C:\Program Files\Microsoft Visual Studio\2022\Professional\VC\Tools\MSVC\14.44.35207\include\vector

; 912  :             _STD _Uninitialized_move(_Whereptr, _Mylast, _Newvec + _Whereoff + 1, _Al);

  0011a	42		 inc	 edx
$LN107@LoadScript:

; 913  :         }
; 914  : 
; 915  :         _Guard._New_begin = nullptr;

  0011b	52		 push	 edx
  0011c	50		 push	 eax
  0011d	51		 push	 ecx
  0011e	e8 00 00 00 00	 call	 ??$_Copy_memmove@PAEPAE@std@@YAPAEPAE00@Z ; std::_Copy_memmove<unsigned char *,unsigned char *>
  00123	83 c4 0c	 add	 esp, 12			; 0000000cH

; 916  :         _Change_array(_Newvec, _Newsize, _Newcapacity);

  00126	8d 4f 74	 lea	 ecx, DWORD PTR [edi+116]
  00129	ff 75 fc	 push	 DWORD PTR $T2[ebp]
  0012c	ff 75 f8	 push	 DWORD PTR __Newsize$1$[ebp]
  0012f	53		 push	 ebx
  00130	e8 00 00 00 00	 call	 ?_Change_array@?$vector@EV?$allocator@E@std@@@std@@AAEXQAEII@Z ; std::vector<unsigned char,std::allocator<unsigned char> >::_Change_array
$LN2@LoadScript:
; File C:\Program Files\Microsoft Visual Studio\2022\Professional\VC\Tools\MSVC\14.44.35207\include\xtree

; 198  :         _Mybase::operator++();

  00135	8d 4d f4	 lea	 ecx, DWORD PTR _it$1[ebp]
  00138	e8 00 00 00 00	 call	 ??E?$_Tree_unchecked_const_iterator@V?$_Tree_val@U?$_Tree_simple_types@U?$pair@$$CBEV?$vector@U__SPAWNINFO@CEventLua@@V?$allocator@U__SPAWNINFO@CEventLua@@@std@@@std@@@std@@@std@@@std@@U_Iterator_base0@2@@std@@QAEAAV01@XZ ; std::_Tree_unchecked_const_iterator<std::_Tree_val<std::_Tree_simple_types<std::pair<unsigned char const ,std::vector<CEventLua::__SPAWNINFO,std::allocator<CEventLua::__SPAWNINFO> > > > >,std::_Iterator_base0>::operator++

; 37   :     _Tree_unchecked_const_iterator(_Nodeptr _Pnode, const _Mytree* _Plist) noexcept : _Ptr(_Pnode) {

  0013d	8b 45 f0	 mov	 eax, DWORD PTR _this$1$[ebp]

; 237  :         return !(*this == _Right);

  00140	8b 75 f4	 mov	 esi, DWORD PTR _it$1[ebp]

; 37   :     _Tree_unchecked_const_iterator(_Nodeptr _Pnode, const _Mytree* _Plist) noexcept : _Ptr(_Pnode) {

  00143	8b 18		 mov	 ebx, DWORD PTR [eax]

; 237  :         return !(*this == _Right);

  00145	3b f3		 cmp	 esi, ebx
; File C:\IAGOS\server\v18\Source\Source\_Common\EventLua.cpp

; 184  : 		for( map<BYTE, VECSPAWNINFO>::iterator it=m_mapSpawnList.begin(); it!=m_mapSpawnList.end(); it++ )

  00147	0f 85 03 ff ff
	ff		 jne	 $LL4@LoadScript
$LN3@LoadScript:
; File C:\Program Files\Microsoft Visual Studio\2022\Professional\VC\Tools\MSVC\14.44.35207\include\xtree

; 1374 :         _Scary->_Erase_tree(_Getal(), _Head->_Parent);

  0014d	ff 73 04	 push	 DWORD PTR [ebx+4]
  00150	8b c8		 mov	 ecx, eax
  00152	50		 push	 eax
  00153	e8 00 00 00 00	 call	 ??$_Erase_tree@V?$allocator@U?$_Tree_node@U?$pair@$$CBEV?$vector@U__SPAWNINFO@CEventLua@@V?$allocator@U__SPAWNINFO@CEventLua@@@std@@@std@@@std@@PAX@std@@@std@@@?$_Tree_val@U?$_Tree_simple_types@U?$pair@$$CBEV?$vector@U__SPAWNINFO@CEventLua@@V?$allocator@U__SPAWNINFO@CEventLua@@@std@@@std@@@std@@@std@@@std@@QAEXAAV?$allocator@U?$_Tree_node@U?$pair@$$CBEV?$vector@U__SPAWNINFO@CEventLua@@V?$allocator@U__SPAWNINFO@CEventLua@@@std@@@std@@@std@@PAX@std@@@1@PAU?$_Tree_node@U?$pair@$$CBEV?$vector@U__SPAWNINFO@CEventLua@@V?$allocator@U__SPAWNINFO@CEventLua@@@std@@@std@@@std@@PAX@1@@Z ; std::_Tree_val<std::_Tree_simple_types<std::pair<unsigned char const ,std::vector<CEventLua::__SPAWNINFO,std::allocator<CEventLua::__SPAWNINFO> > > > >::_Erase_tree<std::allocator<std::_Tree_node<std::pair<unsigned char const ,std::vector<CEventLua::__SPAWNINFO,std::allocator<CEventLua::__SPAWNINFO> > >,void *> > >

; 1375 :         _Head->_Parent  = _Head;
; 1376 :         _Head->_Left    = _Head;
; 1377 :         _Head->_Right   = _Head;
; 1378 :         _Scary->_Mysize = 0;

  00158	8b 45 f0	 mov	 eax, DWORD PTR _this$1$[ebp]
  0015b	5e		 pop	 esi
  0015c	89 5b 04	 mov	 DWORD PTR [ebx+4], ebx
  0015f	89 1b		 mov	 DWORD PTR [ebx], ebx
  00161	89 5b 08	 mov	 DWORD PTR [ebx+8], ebx
  00164	5b		 pop	 ebx
  00165	c7 40 04 00 00
	00 00		 mov	 DWORD PTR [eax+4], 0
  0016c	5f		 pop	 edi
; File C:\IAGOS\server\v18\Source\Source\_Common\EventLua.cpp

; 200  : }

  0016d	8b e5		 mov	 esp, ebp
  0016f	5d		 pop	 ebp
  00170	c3		 ret	 0
$LN5@LoadScript:

; 185  : 			m_vecEndSpawnEvent.push_back( it->first );
; 186  : 		m_mapSpawnList.clear();
; 187  : #endif // __EVENTLUA_SPAWN
; 188  : #endif // __WORLDSERVER
; 189  : #ifdef __DBSERVER
; 190  : #ifdef __VTN_TIMELIMIT
; 191  : 		if( ::GetLanguage() == LANG_VTN )
; 192  : 			m_bTimeLimit = m_Lua.GetGlobalBool( "bTimeLimit" );
; 193  : #endif // __VTN_TIMELIMIT
; 194  : #endif // __DBSERVER
; 195  : 	}
; 196  : 	else
; 197  : 	{
; 198  : 		Error( "Event.lua ˝ÇÇŕ ˝ÇĆĐ!!!" );

  00171	68 00 00 00 00	 push	 OFFSET ??_C@_0BH@KMCEPDIF@Event?4lua?5?$LN?G?G?$OA?5?$LN?G?F?P?$CB?$CB?$CB@
  00176	e8 00 00 00 00	 call	 ?Error@@YAPBDPBDZZ	; Error
  0017b	83 c4 04	 add	 esp, 4
  0017e	5f		 pop	 edi

; 200  : }

  0017f	8b e5		 mov	 esp, ebp
  00181	5d		 pop	 ebp
  00182	c3		 ret	 0
$LN144@LoadScript:
; File C:\Program Files\Microsoft Visual Studio\2022\Professional\VC\Tools\MSVC\14.44.35207\include\vector

; 888  :             _Xlength();

  00183	e8 00 00 00 00	 call	 ?_Xlength@?$vector@EV?$allocator@E@std@@@std@@CAXXZ ; std::vector<unsigned char,std::allocator<unsigned char> >::_Xlength
$LN158@LoadScript:
  00188	cc		 int	 3
?LoadScript@CEventLua@@QAEXXZ ENDP			; CEventLua::LoadScript
_TEXT	ENDS
; Function compile flags: /Ogtp
; File C:\IAGOS\server\v18\Source\Source\_Common\EventLua.cpp
; File C:\Program Files\Microsoft Visual Studio\2022\Professional\VC\Tools\MSVC\14.44.35207\include\vector
; File C:\IAGOS\server\v18\Source\Source\_Common\EventLua.cpp
; File C:\Program Files\Microsoft Visual Studio\2022\Professional\VC\Tools\MSVC\14.44.35207\include\vector
; File C:\IAGOS\server\v18\Source\Source\_Common\EventLua.cpp
; File C:\Program Files\Microsoft Visual Studio\2022\Professional\VC\Tools\MSVC\14.44.35207\include\vector
; File C:\Program Files\Microsoft Visual Studio\2022\Professional\VC\Tools\MSVC\14.44.35207\include\xmemory
; File C:\Program Files\Microsoft Visual Studio\2022\Professional\VC\Tools\MSVC\14.44.35207\include\vector
; File C:\Program Files\Microsoft Visual Studio\2022\Professional\VC\Tools\MSVC\14.44.35207\include\xmemory
; File C:\Program Files\Microsoft Visual Studio\2022\Professional\VC\Tools\MSVC\14.44.35207\include\vector
; File C:\Program Files\Microsoft Visual Studio\2022\Professional\VC\Tools\MSVC\14.44.35207\include\xmemory
; File C:\IAGOS\server\v18\Source\Source\_Common\EventLua.cpp
; File C:\IAGOS\server\v18\Source\Source\_Common\LuaBase.h
; File C:\IAGOS\server\v18\Source\Source\_Common\EventLua.cpp
; File C:\IAGOS\server\v18\Source\Source\_Common\LuaBase.h
; File C:\IAGOS\server\v18\Source\Source\_Common\EventLua.cpp
; File C:\Program Files\Microsoft Visual Studio\2022\Professional\VC\Tools\MSVC\14.44.35207\include\vector
; File C:\IAGOS\server\v18\Source\Source\_Common\EventLua.cpp
; File C:\Program Files\Microsoft Visual Studio\2022\Professional\VC\Tools\MSVC\14.44.35207\include\vector
; File C:\Program Files\Microsoft Visual Studio\2022\Professional\VC\Tools\MSVC\14.44.35207\include\xmemory
; File C:\Program Files\Microsoft Visual Studio\2022\Professional\VC\Tools\MSVC\14.44.35207\include\vector
; File C:\Program Files\Microsoft Visual Studio\2022\Professional\VC\Tools\MSVC\14.44.35207\include\xmemory
; File C:\Program Files\Microsoft Visual Studio\2022\Professional\VC\Tools\MSVC\14.44.35207\include\vector
; File C:\Program Files\Microsoft Visual Studio\2022\Professional\VC\Tools\MSVC\14.44.35207\include\xmemory
; File C:\Program Files\Microsoft Visual Studio\2022\Professional\VC\Tools\MSVC\14.44.35207\include\vector
; File C:\Program Files\Microsoft Visual Studio\2022\Professional\VC\Tools\MSVC\14.44.35207\include\xmemory
; File C:\Program Files\Microsoft Visual Studio\2022\Professional\VC\Tools\MSVC\14.44.35207\include\vector
; File C:\Program Files\Microsoft Visual Studio\2022\Professional\VC\Tools\MSVC\14.44.35207\include\xmemory
; File C:\Program Files\Microsoft Visual Studio\2022\Professional\VC\Tools\MSVC\14.44.35207\include\vector
; File C:\Program Files\Microsoft Visual Studio\2022\Professional\VC\Tools\MSVC\14.44.35207\include\xmemory
; File C:\Program Files\Microsoft Visual Studio\2022\Professional\VC\Tools\MSVC\14.44.35207\include\vector
; File C:\Program Files\Microsoft Visual Studio\2022\Professional\VC\Tools\MSVC\14.44.35207\include\xmemory
; File C:\Program Files\Microsoft Visual Studio\2022\Professional\VC\Tools\MSVC\14.44.35207\include\vector
; File C:\IAGOS\server\v18\Source\Source\_Common\EventLua.cpp
; File C:\IAGOS\server\v18\Source\Source\_Common\LuaBase.h
; File C:\IAGOS\server\v18\Source\Source\_Common\EventLua.cpp
; File C:\Program Files\Microsoft Visual Studio\2022\Professional\VC\Tools\MSVC\14.44.35207\include\vector
; File C:\Program Files\Microsoft Visual Studio\2022\Professional\VC\Tools\MSVC\14.44.35207\include\xmemory
; File C:\IAGOS\server\v18\Source\Source\_Common\EventLua.cpp
;	COMDAT ?GetEventList@CEventLua@@QAE?AV?$vector@EV?$allocator@E@std@@@std@@H@Z
_TEXT	SEGMENT
_vecList$ = -48						; size = 12
_this$1$ = -32						; size = 4
tv1556 = -28						; size = 4
__Newsize$1$ = -24					; size = 4
tv1569 = -20						; size = 4
__Oldsize$1$ = -16					; size = 4
__$EHRec$ = -12						; size = 12
___$ReturnUdt$ = 8					; size = 4
_bProxy$ = 12						; size = 4
tv1554 = 15						; size = 1
?GetEventList@CEventLua@@QAE?AV?$vector@EV?$allocator@E@std@@@std@@H@Z PROC ; CEventLua::GetEventList, COMDAT
; _this$ = ecx

; 139  : {

  00000	55		 push	 ebp
  00001	8b ec		 mov	 ebp, esp
  00003	6a ff		 push	 -1
  00005	68 00 00 00 00	 push	 __ehhandler$?GetEventList@CEventLua@@QAE?AV?$vector@EV?$allocator@E@std@@@std@@H@Z
  0000a	64 a1 00 00 00
	00		 mov	 eax, DWORD PTR fs:0
  00010	50		 push	 eax
  00011	83 ec 24	 sub	 esp, 36			; 00000024H
  00014	53		 push	 ebx
  00015	56		 push	 esi
  00016	57		 push	 edi
  00017	a1 00 00 00 00	 mov	 eax, DWORD PTR ___security_cookie
  0001c	33 c5		 xor	 eax, ebp
  0001e	50		 push	 eax
  0001f	8d 45 f4	 lea	 eax, DWORD PTR __$EHRec$[ebp]
  00022	64 a3 00 00 00
	00		 mov	 DWORD PTR fs:0, eax
  00028	8b f9		 mov	 edi, ecx
  0002a	89 7d e0	 mov	 DWORD PTR _this$1$[ebp], edi
; File C:\Program Files\Microsoft Visual Studio\2022\Professional\VC\Tools\MSVC\14.44.35207\include\vector

; 400  :     _CONSTEXPR20 _Vector_val() noexcept : _Myfirst(), _Mylast(), _Myend() {}

  0002d	33 d2		 xor	 edx, edx
  0002f	33 c9		 xor	 ecx, ecx
  00031	89 55 d0	 mov	 DWORD PTR _vecList$[ebp], edx
  00034	89 55 d4	 mov	 DWORD PTR _vecList$[ebp+4], edx
  00037	89 4d d8	 mov	 DWORD PTR _vecList$[ebp+8], ecx
; File C:\IAGOS\server\v18\Source\Source\_Common\EventLua.cpp

; 140  : 	vector<BYTE> vecList;

  0003a	89 4d fc	 mov	 DWORD PTR __$EHRec$[ebp+8], ecx

; 141  : 
; 142  : 	if( !IsPossible() )

  0003d	39 4f 04	 cmp	 DWORD PTR [edi+4], ecx
  00040	75 1f		 jne	 SHORT $LN4@GetEventLi
; File C:\Program Files\Microsoft Visual Studio\2022\Professional\VC\Tools\MSVC\14.44.35207\include\vector

; 403  :         : _Myfirst(_First), _Mylast(_Last), _Myend(_End) {}

  00042	8b 45 08	 mov	 eax, DWORD PTR ___$ReturnUdt$[ebp]
  00045	89 08		 mov	 DWORD PTR [eax], ecx
  00047	89 48 04	 mov	 DWORD PTR [eax+4], ecx
  0004a	89 48 08	 mov	 DWORD PTR [eax+8], ecx
; File C:\IAGOS\server\v18\Source\Source\_Common\EventLua.cpp

; 171  : }

  0004d	8b 4d f4	 mov	 ecx, DWORD PTR __$EHRec$[ebp]
  00050	64 89 0d 00 00
	00 00		 mov	 DWORD PTR fs:0, ecx
  00057	59		 pop	 ecx
  00058	5f		 pop	 edi
  00059	5e		 pop	 esi
  0005a	5b		 pop	 ebx
  0005b	8b e5		 mov	 esp, ebp
  0005d	5d		 pop	 ebp
  0005e	c2 08 00	 ret	 8
$LN4@GetEventLi:

; 143  : 		return vecList;
; 144  : 
; 145  : #ifdef __WORLDSERVER
; 146  : #if __VER >= 12 // __EVENTLUA_0826
; 147  : 		if( bProxy )

  00061	83 7d 0c 00	 cmp	 DWORD PTR _bProxy$[ebp], 0
  00065	0f 84 99 00 00
	00		 je	 $LN5@GetEventLi
; File C:\Program Files\Microsoft Visual Studio\2022\Professional\VC\Tools\MSVC\14.44.35207\include\vector

; 400  :     _CONSTEXPR20 _Vector_val() noexcept : _Myfirst(), _Mylast(), _Myend() {}

  0006b	8b 5d 08	 mov	 ebx, DWORD PTR ___$ReturnUdt$[ebp]
  0006e	c7 03 00 00 00
	00		 mov	 DWORD PTR [ebx], 0
  00074	c7 43 04 00 00
	00 00		 mov	 DWORD PTR [ebx+4], 0
  0007b	c7 43 08 00 00
	00 00		 mov	 DWORD PTR [ebx+8], 0

; 748  :         const auto _Count       = static_cast<size_type>(_Right_data._Mylast - _Right_data._Myfirst);

  00082	8b 47 18	 mov	 eax, DWORD PTR [edi+24]
  00085	2b 47 14	 sub	 eax, DWORD PTR [edi+20]

; 2111 :         if (_Count != 0) {

  00088	74 36		 je	 SHORT $LN200@GetEventLi

; 2051 :         if (_Newcapacity > max_size()) {

  0008a	3d ff ff ff 7f	 cmp	 eax, 2147483647		; 7fffffffH
  0008f	0f 87 2b 02 00
	00		 ja	 $LN310@GetEventLi

; 2052 :             _Xlength();
; 2053 :         }
; 2054 : 
; 2055 :         _Buy_raw(_Newcapacity);

  00095	50		 push	 eax
  00096	8b cb		 mov	 ecx, ebx
  00098	e8 00 00 00 00	 call	 ?_Buy_raw@?$vector@EV?$allocator@E@std@@@std@@AAEXI@Z ; std::vector<unsigned char,std::allocator<unsigned char> >::_Buy_raw

; 2120 :                 _My_data._Mylast = _STD _Uninitialized_copy(_STD forward<_Valty>(_Val)..., _My_data._Myfirst, _Al);

  0009d	8b 1b		 mov	 ebx, DWORD PTR [ebx]
; File C:\Program Files\Microsoft Visual Studio\2022\Professional\VC\Tools\MSVC\14.44.35207\include\xmemory

; 1876 :     auto _UFirst = _STD _Get_unwrapped(_STD move(_First));

  0009f	8b 77 14	 mov	 esi, DWORD PTR [edi+20]

; 1877 :     auto _ULast  = _STD _Get_unwrapped(_STD move(_Last));

  000a2	8b 7f 18	 mov	 edi, DWORD PTR [edi+24]

; 1889 :                 _STD _Copy_memmove(_STD _To_address(_UFirst), _STD _To_address(_ULast), _STD _Unfancy(_Dest));

  000a5	53		 push	 ebx
  000a6	57		 push	 edi
  000a7	56		 push	 esi
  000a8	e8 00 00 00 00	 call	 ??$_Copy_memmove@PAEPAE@std@@YAPAEPAE00@Z ; std::_Copy_memmove<unsigned char *,unsigned char *>
; File C:\Program Files\Microsoft Visual Studio\2022\Professional\VC\Tools\MSVC\14.44.35207\include\vector

; 2120 :                 _My_data._Mylast = _STD _Uninitialized_copy(_STD forward<_Valty>(_Val)..., _My_data._Myfirst, _Al);

  000ad	8b 4d d8	 mov	 ecx, DWORD PTR _vecList$[ebp+8]
  000b0	2b fe		 sub	 edi, esi
  000b2	8b 55 d0	 mov	 edx, DWORD PTR _vecList$[ebp]
; File C:\Program Files\Microsoft Visual Studio\2022\Professional\VC\Tools\MSVC\14.44.35207\include\xmemory

; 1889 :                 _STD _Copy_memmove(_STD _To_address(_UFirst), _STD _To_address(_ULast), _STD _Unfancy(_Dest));

  000b5	83 c4 0c	 add	 esp, 12			; 0000000cH

; 1890 :                 _Dest += _ULast - _UFirst;

  000b8	03 fb		 add	 edi, ebx
; File C:\Program Files\Microsoft Visual Studio\2022\Professional\VC\Tools\MSVC\14.44.35207\include\vector

; 2120 :                 _My_data._Mylast = _STD _Uninitialized_copy(_STD forward<_Valty>(_Val)..., _My_data._Myfirst, _Al);

  000ba	8b 5d 08	 mov	 ebx, DWORD PTR ___$ReturnUdt$[ebp]
  000bd	89 7b 04	 mov	 DWORD PTR [ebx+4], edi
$LN200@GetEventLi:

; 2090 :         if (_Myfirst) { // destroy and deallocate old array

  000c0	85 d2		 test	 edx, edx
  000c2	74 2a		 je	 SHORT $LN209@GetEventLi

; 2091 :             _STD _Destroy_range(_Myfirst, _Mylast, _Al);
; 2092 :             _ASAN_VECTOR_REMOVE;
; 2093 :             _Al.deallocate(_Myfirst, static_cast<size_type>(_Myend - _Myfirst));

  000c4	2b ca		 sub	 ecx, edx
; File C:\Program Files\Microsoft Visual Studio\2022\Professional\VC\Tools\MSVC\14.44.35207\include\xmemory

; 985  :         _STD _Deallocate<_New_alignof<_Ty>>(_Ptr, sizeof(_Ty) * _Count);

  000c6	8b c2		 mov	 eax, edx

; 284  :         if (_Bytes >= _Big_allocation_threshold) {

  000c8	81 f9 00 10 00
	00		 cmp	 ecx, 4096		; 00001000H
  000ce	72 14		 jb	 SHORT $LN222@GetEventLi

; 205  :     const uintptr_t _Ptr_container   = _Ptr_user[-1];

  000d0	8b 50 fc	 mov	 edx, DWORD PTR [eax-4]
  000d3	83 c1 23	 add	 ecx, 35			; 00000023H
  000d6	2b c2		 sub	 eax, edx

; 219  :     _STL_VERIFY(_Back_shift >= _Min_back_shift && _Back_shift <= _Non_user_size, "invalid argument");

  000d8	83 c0 fc	 add	 eax, -4			; fffffffcH
  000db	83 f8 1f	 cmp	 eax, 31			; 0000001fH
  000de	0f 87 e1 01 00
	00		 ja	 $LN311@GetEventLi
$LN222@GetEventLi:

; 289  :         ::operator delete(_Ptr, _Bytes);

  000e4	51		 push	 ecx
  000e5	52		 push	 edx
  000e6	e8 00 00 00 00	 call	 ??3@YAXPAXI@Z		; operator delete
  000eb	83 c4 08	 add	 esp, 8
$LN209@GetEventLi:
; File C:\IAGOS\server\v18\Source\Source\_Common\EventLua.cpp

; 148  : 			return m_proxy.GetEventList();

  000ee	8b c3		 mov	 eax, ebx

; 171  : }

  000f0	8b 4d f4	 mov	 ecx, DWORD PTR __$EHRec$[ebp]
  000f3	64 89 0d 00 00
	00 00		 mov	 DWORD PTR fs:0, ecx
  000fa	59		 pop	 ecx
  000fb	5f		 pop	 edi
  000fc	5e		 pop	 esi
  000fd	5b		 pop	 ebx
  000fe	8b e5		 mov	 esp, ebp
  00100	5d		 pop	 ebp
  00101	c2 08 00	 ret	 8
$LN5@GetEventLi:

; 149  : #endif	// __EVENTLUA_0826
; 150  : #endif // __WORLDSERVER
; 151  : 
; 152  : 	if( m_Lua.GetLuaFunction( "GetEventList" ) )

  00104	8d 5f 08	 lea	 ebx, DWORD PTR [edi+8]
  00107	68 00 00 00 00	 push	 OFFSET ??_C@_0N@CAKNNDNG@GetEventList@
  0010c	8b cb		 mov	 ecx, ebx
  0010e	89 5d e4	 mov	 DWORD PTR tv1556[ebp], ebx
  00111	e8 00 00 00 00	 call	 ?GetLuaFunction@CLuaBase@@QAEHPAD@Z ; CLuaBase::GetLuaFunction
  00116	85 c0		 test	 eax, eax
  00118	0f 84 71 01 00
	00		 je	 $LN3@GetEventLi

; 153  : 	{
; 154  : 		m_Lua.CallLuaFunction( 0, 1 );

  0011e	6a 01		 push	 1
  00120	6a 00		 push	 0
  00122	8b cb		 mov	 ecx, ebx
  00124	e8 00 00 00 00	 call	 ?CallLuaFunction@CLuaBase@@QAEXHH@Z ; CLuaBase::CallLuaFunction

; 155  : 		if( lua_isnil( m_Lua.GetLuaState(), -1 ) )

  00129	6a ff		 push	 -1
  0012b	ff 77 0c	 push	 DWORD PTR [edi+12]
  0012e	e8 00 00 00 00	 call	 _lua_type
  00133	83 c4 08	 add	 esp, 8
  00136	85 c0		 test	 eax, eax
  00138	0f 84 51 01 00
	00		 je	 $LN3@GetEventLi
; File C:\IAGOS\server\v18\Source\Source\_Common\LuaBase.h

; 40   : 	void		PushNil()									{  lua_pushnil( m_pLuaState );  }

  0013e	ff 77 0c	 push	 DWORD PTR [edi+12]
  00141	e8 00 00 00 00	 call	 _lua_pushnil

; 46   : 	int			TableLoop( int nStackPos )					{  return lua_next( m_pLuaState, nStackPos );  }	

  00146	6a fe		 push	 -2			; fffffffeH
  00148	ff 77 0c	 push	 DWORD PTR [edi+12]
  0014b	e8 00 00 00 00	 call	 _lua_next
  00150	83 c4 0c	 add	 esp, 12			; 0000000cH
; File C:\IAGOS\server\v18\Source\Source\_Common\EventLua.cpp

; 162  : 		while( m_Lua.TableLoop(-2) )

  00153	85 c0		 test	 eax, eax
  00155	0f 84 34 01 00
	00		 je	 $LN3@GetEventLi
  0015b	0f 1f 44 00 00	 npad	 5
$LL2@GetEventLi:
; File C:\IAGOS\server\v18\Source\Source\_Common\LuaBase.h

; 43   : 	double		ToNumber( int nStackPos )					{  return lua_tonumber( m_pLuaState, nStackPos );  }

  00160	6a 00		 push	 0
  00162	6a ff		 push	 -1
  00164	ff 77 0c	 push	 DWORD PTR [edi+12]
  00167	e8 00 00 00 00	 call	 _lua_tonumberx
  0016c	83 c4 0c	 add	 esp, 12			; 0000000cH
; File C:\IAGOS\server\v18\Source\Source\_Common\EventLua.cpp

; 164  : 			vecList.push_back( (BYTE)m_Lua.ToNumber(-1) );

  0016f	e8 00 00 00 00	 call	 __ftol2
; File C:\Program Files\Microsoft Visual Studio\2022\Professional\VC\Tools\MSVC\14.44.35207\include\vector

; 844  :         if (_Mylast != _My_data._Myend) {

  00174	8b 7d d4	 mov	 edi, DWORD PTR _vecList$[ebp+4]
  00177	8b 4d d8	 mov	 ecx, DWORD PTR _vecList$[ebp+8]
; File C:\IAGOS\server\v18\Source\Source\_Common\EventLua.cpp

; 164  : 			vecList.push_back( (BYTE)m_Lua.ToNumber(-1) );

  0017a	88 45 0f	 mov	 BYTE PTR tv1554[ebp], al
; File C:\Program Files\Microsoft Visual Studio\2022\Professional\VC\Tools\MSVC\14.44.35207\include\vector

; 844  :         if (_Mylast != _My_data._Myend) {

  0017d	3b f9		 cmp	 edi, ecx
  0017f	74 0a		 je	 SHORT $LN28@GetEventLi

; 860  :             _STD _Construct_in_place(*_Mylast, _STD forward<_Valty>(_Val)...);

  00181	88 07		 mov	 BYTE PTR [edi], al

; 861  :         } else {
; 862  :             _ASAN_VECTOR_EXTEND_GUARD(static_cast<size_type>(_Mylast - _My_data._Myfirst) + 1);
; 863  :             _Alty_traits::construct(_Getal(), _Unfancy(_Mylast), _STD forward<_Valty>(_Val)...);
; 864  :             _ASAN_VECTOR_RELEASE_GUARD;
; 865  :         }
; 866  : 
; 867  :         _Orphan_range(_Mylast, _Mylast);
; 868  :         _Ty& _Result = *_Mylast;
; 869  :         ++_Mylast;

  00183	ff 45 d4	 inc	 DWORD PTR _vecList$[ebp+4]

; 845  :             return _Emplace_back_with_unused_capacity(_STD forward<_Valty>(_Val)...);

  00186	e9 e3 00 00 00	 jmp	 $LN116@GetEventLi
$LN28@GetEventLi:

; 875  :     _CONSTEXPR20 pointer _Emplace_reallocate(const pointer _Whereptr, _Valty&&... _Val) {

  0018b	8b 55 d0	 mov	 edx, DWORD PTR _vecList$[ebp]
  0018e	8b c7		 mov	 eax, edi
  00190	2b c2		 sub	 eax, edx
  00192	89 45 f0	 mov	 DWORD PTR __Oldsize$1$[ebp], eax

; 876  :         // reallocate and insert by perfectly forwarding _Val at _Whereptr
; 877  :         _Alty& _Al        = _Getal();
; 878  :         auto& _My_data    = _Mypair._Myval2;
; 879  :         pointer& _Myfirst = _My_data._Myfirst;
; 880  :         pointer& _Mylast  = _My_data._Mylast;
; 881  : 
; 882  :         _STL_INTERNAL_CHECK(_Mylast == _My_data._Myend); // check that we have no unused capacity
; 883  : 
; 884  :         const auto _Whereoff = static_cast<size_type>(_Whereptr - _Myfirst);
; 885  :         const auto _Oldsize  = static_cast<size_type>(_Mylast - _Myfirst);
; 886  : 
; 887  :         if (_Oldsize == max_size()) {

  00195	3d ff ff ff 7f	 cmp	 eax, 2147483647		; 7fffffffH
  0019a	0f 84 20 01 00
	00		 je	 $LN310@GetEventLi

; 889  :         }
; 890  : 
; 891  :         const size_type _Newsize = _Oldsize + 1;

  001a0	2b ca		 sub	 ecx, edx
  001a2	8d 70 01	 lea	 esi, DWORD PTR [eax+1]

; 2011 :         if (_Oldcapacity > _Max - _Oldcapacity / 2) {

  001a5	8b d1		 mov	 edx, ecx

; 891  :         const size_type _Newsize = _Oldsize + 1;

  001a7	89 75 e8	 mov	 DWORD PTR __Newsize$1$[ebp], esi

; 2011 :         if (_Oldcapacity > _Max - _Oldcapacity / 2) {

  001aa	d1 ea		 shr	 edx, 1
  001ac	b8 ff ff ff 7f	 mov	 eax, 2147483647		; 7fffffffH
  001b1	2b c2		 sub	 eax, edx
  001b3	3b c8		 cmp	 ecx, eax
  001b5	76 0d		 jbe	 SHORT $LN39@GetEventLi

; 2012 :             return _Max; // geometric growth would overflow

  001b7	bb ff ff ff 7f	 mov	 ebx, 2147483647		; 7fffffffH
; File C:\Program Files\Microsoft Visual Studio\2022\Professional\VC\Tools\MSVC\14.44.35207\include\xmemory

; 253  :             return _Allocate_manually_vector_aligned<_Traits>(_Bytes);

  001bc	53		 push	 ebx
  001bd	e8 00 00 00 00	 call	 ??$_Allocate_manually_vector_aligned@U_Default_allocate_traits@std@@@std@@YAPAXI@Z ; std::_Allocate_manually_vector_aligned<std::_Default_allocate_traits>
  001c2	eb 29		 jmp	 SHORT $LN321@GetEventLi
$LN39@GetEventLi:
; File C:\Program Files\Microsoft Visual Studio\2022\Professional\VC\Tools\MSVC\14.44.35207\include\vector

; 2015 :         const size_type _Geometric = _Oldcapacity + _Oldcapacity / 2;

  001c4	8d 04 0a	 lea	 eax, DWORD PTR [edx+ecx]
; File C:\Program Files\Microsoft Visual Studio\2022\Professional\VC\Tools\MSVC\14.44.35207\include\xmemory

; 227  :     if (_Bytes == 0) {

  001c7	8b de		 mov	 ebx, esi
  001c9	3b c6		 cmp	 eax, esi
  001cb	0f 43 d8	 cmovae	 ebx, eax
  001ce	8b c3		 mov	 eax, ebx
  001d0	85 db		 test	 ebx, ebx
  001d2	75 04		 jne	 SHORT $LN50@GetEventLi

; 228  :         return nullptr;

  001d4	33 f6		 xor	 esi, esi
  001d6	eb 1a		 jmp	 SHORT $LN49@GetEventLi
$LN50@GetEventLi:

; 229  :     }
; 230  : 
; 231  : #if _HAS_CXX20 // TRANSITION, GH-1532
; 232  :     if (_STD is_constant_evaluated()) {
; 233  :         return _Traits::_Allocate(_Bytes);
; 234  :     }
; 235  : #endif // _HAS_CXX20
; 236  : 
; 237  : #ifdef __cpp_aligned_new
; 238  :     if constexpr (_Align > __STDCPP_DEFAULT_NEW_ALIGNMENT__) {
; 239  :         size_t _Passed_align = _Align;
; 240  : #if defined(_M_IX86) || defined(_M_X64)
; 241  :         if (_Bytes >= _Big_allocation_threshold) {
; 242  :             // boost the alignment of big allocations to help autovectorization
; 243  :             _Passed_align = (_STD max)(_Align, _Big_allocation_alignment);
; 244  :         }
; 245  : #endif // defined(_M_IX86) || defined(_M_X64)
; 246  :         return _Traits::_Allocate_aligned(_Bytes, _Passed_align);
; 247  :     } else
; 248  : #endif // defined(__cpp_aligned_new)
; 249  :     {
; 250  : #if defined(_M_IX86) || defined(_M_X64)
; 251  :         if (_Bytes >= _Big_allocation_threshold) {

  001d8	3d 00 10 00 00	 cmp	 eax, 4096		; 00001000H
  001dd	72 08		 jb	 SHORT $LN51@GetEventLi

; 253  :             return _Allocate_manually_vector_aligned<_Traits>(_Bytes);

  001df	53		 push	 ebx
  001e0	e8 00 00 00 00	 call	 ??$_Allocate_manually_vector_aligned@U_Default_allocate_traits@std@@@std@@YAPAXI@Z ; std::_Allocate_manually_vector_aligned<std::_Default_allocate_traits>
  001e5	eb 06		 jmp	 SHORT $LN321@GetEventLi
$LN51@GetEventLi:

; 136  :         return ::operator new(_Bytes);

  001e7	50		 push	 eax
  001e8	e8 00 00 00 00	 call	 ??2@YAPAXI@Z		; operator new
$LN321@GetEventLi:
; File C:\Program Files\Microsoft Visual Studio\2022\Professional\VC\Tools\MSVC\14.44.35207\include\vector

; 900  :         _Alty_traits::construct(_Al, _STD _Unfancy(_Newvec + _Whereoff), _STD forward<_Valty>(_Val)...);

  001ed	8b f0		 mov	 esi, eax
  001ef	83 c4 04	 add	 esp, 4
$LN49@GetEventLi:
  001f2	8b 45 f0	 mov	 eax, DWORD PTR __Oldsize$1$[ebp]
  001f5	8a 4d 0f	 mov	 cl, BYTE PTR tv1554[ebp]
  001f8	88 0c 06	 mov	 BYTE PTR [esi+eax], cl

; 901  :         _Constructed_first = _Newvec + _Whereoff;
; 902  : 
; 903  :         if (_Whereptr == _Mylast) { // at back, provide strong guarantee

  001fb	8b 45 d4	 mov	 eax, DWORD PTR _vecList$[ebp+4]
  001fe	3b f8		 cmp	 edi, eax
  00200	75 07		 jne	 SHORT $LN34@GetEventLi
; File C:\Program Files\Microsoft Visual Studio\2022\Professional\VC\Tools\MSVC\14.44.35207\include\xmemory

; 1992 :             _STD _Copy_memmove(_UFirst, _ULast, _STD _Unfancy(_Dest));

  00202	8b 7d d0	 mov	 edi, DWORD PTR _vecList$[ebp]
  00205	8b ce		 mov	 ecx, esi
; File C:\Program Files\Microsoft Visual Studio\2022\Professional\VC\Tools\MSVC\14.44.35207\include\vector

; 909  :         } else { // provide basic guarantee

  00207	eb 16		 jmp	 SHORT $LN77@GetEventLi
$LN34@GetEventLi:
; File C:\Program Files\Microsoft Visual Studio\2022\Professional\VC\Tools\MSVC\14.44.35207\include\xmemory

; 1992 :             _STD _Copy_memmove(_UFirst, _ULast, _STD _Unfancy(_Dest));

  00209	56		 push	 esi
  0020a	57		 push	 edi
  0020b	ff 75 d0	 push	 DWORD PTR _vecList$[ebp]
  0020e	e8 00 00 00 00	 call	 ??$_Copy_memmove@PAEPAE@std@@YAPAEPAE00@Z ; std::_Copy_memmove<unsigned char *,unsigned char *>
; File C:\Program Files\Microsoft Visual Studio\2022\Professional\VC\Tools\MSVC\14.44.35207\include\vector

; 912  :             _STD _Uninitialized_move(_Whereptr, _Mylast, _Newvec + _Whereoff + 1, _Al);

  00213	8b 4d f0	 mov	 ecx, DWORD PTR __Oldsize$1$[ebp]
; File C:\Program Files\Microsoft Visual Studio\2022\Professional\VC\Tools\MSVC\14.44.35207\include\xmemory

; 1992 :             _STD _Copy_memmove(_UFirst, _ULast, _STD _Unfancy(_Dest));

  00216	83 c4 0c	 add	 esp, 12			; 0000000cH
  00219	8b 45 d4	 mov	 eax, DWORD PTR _vecList$[ebp+4]
; File C:\Program Files\Microsoft Visual Studio\2022\Professional\VC\Tools\MSVC\14.44.35207\include\vector

; 912  :             _STD _Uninitialized_move(_Whereptr, _Mylast, _Newvec + _Whereoff + 1, _Al);

  0021c	41		 inc	 ecx
  0021d	03 ce		 add	 ecx, esi
$LN77@GetEventLi:

; 913  :         }
; 914  : 
; 915  :         _Guard._New_begin = nullptr;

  0021f	51		 push	 ecx
  00220	50		 push	 eax
  00221	57		 push	 edi
  00222	e8 00 00 00 00	 call	 ??$_Copy_memmove@PAEPAE@std@@YAPAEPAE00@Z ; std::_Copy_memmove<unsigned char *,unsigned char *>

; 2069 :         if (_Myfirst) { // destroy and deallocate old array

  00227	8b 4d d0	 mov	 ecx, DWORD PTR _vecList$[ebp]

; 915  :         _Guard._New_begin = nullptr;

  0022a	83 c4 0c	 add	 esp, 12			; 0000000cH

; 2069 :         if (_Myfirst) { // destroy and deallocate old array

  0022d	85 c9		 test	 ecx, ecx
  0022f	74 29		 je	 SHORT $LN97@GetEventLi

; 2072 :             _Al.deallocate(_Myfirst, static_cast<size_type>(_Myend - _Myfirst));

  00231	8b 55 d8	 mov	 edx, DWORD PTR _vecList$[ebp+8]
; File C:\Program Files\Microsoft Visual Studio\2022\Professional\VC\Tools\MSVC\14.44.35207\include\xmemory

; 985  :         _STD _Deallocate<_New_alignof<_Ty>>(_Ptr, sizeof(_Ty) * _Count);

  00234	8b c1		 mov	 eax, ecx
; File C:\Program Files\Microsoft Visual Studio\2022\Professional\VC\Tools\MSVC\14.44.35207\include\vector

; 2072 :             _Al.deallocate(_Myfirst, static_cast<size_type>(_Myend - _Myfirst));

  00236	2b d1		 sub	 edx, ecx
; File C:\Program Files\Microsoft Visual Studio\2022\Professional\VC\Tools\MSVC\14.44.35207\include\xmemory

; 284  :         if (_Bytes >= _Big_allocation_threshold) {

  00238	81 fa 00 10 00
	00		 cmp	 edx, 4096		; 00001000H
  0023e	72 10		 jb	 SHORT $LN102@GetEventLi

; 205  :     const uintptr_t _Ptr_container   = _Ptr_user[-1];

  00240	8b 48 fc	 mov	 ecx, DWORD PTR [eax-4]
  00243	83 c2 23	 add	 edx, 35			; 00000023H
  00246	2b c1		 sub	 eax, ecx

; 219  :     _STL_VERIFY(_Back_shift >= _Min_back_shift && _Back_shift <= _Non_user_size, "invalid argument");

  00248	83 c0 fc	 add	 eax, -4			; fffffffcH
  0024b	83 f8 1f	 cmp	 eax, 31			; 0000001fH
  0024e	77 75		 ja	 SHORT $LN311@GetEventLi
$LN102@GetEventLi:

; 289  :         ::operator delete(_Ptr, _Bytes);

  00250	52		 push	 edx
  00251	51		 push	 ecx
  00252	e8 00 00 00 00	 call	 ??3@YAXPAXI@Z		; operator delete
  00257	83 c4 08	 add	 esp, 8
$LN97@GetEventLi:
; File C:\Program Files\Microsoft Visual Studio\2022\Professional\VC\Tools\MSVC\14.44.35207\include\vector

; 2076 :         _Mylast  = _Newvec + _Newsize;

  0025a	8b 45 e8	 mov	 eax, DWORD PTR __Newsize$1$[ebp]
  0025d	03 c6		 add	 eax, esi
  0025f	89 75 d0	 mov	 DWORD PTR _vecList$[ebp], esi
  00262	89 45 d4	 mov	 DWORD PTR _vecList$[ebp+4], eax

; 2077 :         _Myend   = _Newvec + _Newcapacity;

  00265	8d 04 1e	 lea	 eax, DWORD PTR [esi+ebx]
  00268	8b 5d e4	 mov	 ebx, DWORD PTR tv1556[ebp]
  0026b	89 45 d8	 mov	 DWORD PTR _vecList$[ebp+8], eax
$LN116@GetEventLi:
; File C:\IAGOS\server\v18\Source\Source\_Common\EventLua.cpp

; 165  : 			m_Lua.Pop(1);

  0026e	6a 01		 push	 1
  00270	8b cb		 mov	 ecx, ebx
  00272	e8 00 00 00 00	 call	 ?Pop@CLuaBase@@QAEXH@Z	; CLuaBase::Pop
; File C:\IAGOS\server\v18\Source\Source\_Common\LuaBase.h

; 46   : 	int			TableLoop( int nStackPos )					{  return lua_next( m_pLuaState, nStackPos );  }	

  00277	8b 7d e0	 mov	 edi, DWORD PTR _this$1$[ebp]
  0027a	6a fe		 push	 -2			; fffffffeH
  0027c	ff 77 0c	 push	 DWORD PTR [edi+12]
  0027f	e8 00 00 00 00	 call	 _lua_next
  00284	83 c4 08	 add	 esp, 8
; File C:\IAGOS\server\v18\Source\Source\_Common\EventLua.cpp

; 162  : 		while( m_Lua.TableLoop(-2) )

  00287	85 c0		 test	 eax, eax
  00289	0f 85 d1 fe ff
	ff		 jne	 $LL2@GetEventLi
$LN3@GetEventLi:

; 171  : }

  0028f	6a 00		 push	 0
  00291	8b cb		 mov	 ecx, ebx
  00293	e8 00 00 00 00	 call	 ?Pop@CLuaBase@@QAEXH@Z	; CLuaBase::Pop
  00298	8b 45 08	 mov	 eax, DWORD PTR ___$ReturnUdt$[ebp]
  0029b	8b 75 d8	 mov	 esi, DWORD PTR _vecList$[ebp+8]
  0029e	8b 55 d4	 mov	 edx, DWORD PTR _vecList$[ebp+4]
  002a1	8b 4d d0	 mov	 ecx, DWORD PTR _vecList$[ebp]
  002a4	89 70 08	 mov	 DWORD PTR [eax+8], esi
  002a7	89 50 04	 mov	 DWORD PTR [eax+4], edx
  002aa	89 08		 mov	 DWORD PTR [eax], ecx
  002ac	8b 4d f4	 mov	 ecx, DWORD PTR __$EHRec$[ebp]
  002af	64 89 0d 00 00
	00 00		 mov	 DWORD PTR fs:0, ecx
  002b6	59		 pop	 ecx
  002b7	5f		 pop	 edi
  002b8	5e		 pop	 esi
  002b9	5b		 pop	 ebx
  002ba	8b e5		 mov	 esp, ebp
  002bc	5d		 pop	 ebp
  002bd	c2 08 00	 ret	 8
$LN310@GetEventLi:
; File C:\Program Files\Microsoft Visual Studio\2022\Professional\VC\Tools\MSVC\14.44.35207\include\vector

; 888  :             _Xlength();

  002c0	e8 00 00 00 00	 call	 ?_Xlength@?$vector@EV?$allocator@E@std@@@std@@CAXXZ ; std::vector<unsigned char,std::allocator<unsigned char> >::_Xlength
$LN311@GetEventLi:
; File C:\Program Files\Microsoft Visual Studio\2022\Professional\VC\Tools\MSVC\14.44.35207\include\xmemory

; 219  :     _STL_VERIFY(_Back_shift >= _Min_back_shift && _Back_shift <= _Non_user_size, "invalid argument");

  002c5	6a 00		 push	 0
  002c7	6a 00		 push	 0
  002c9	6a 00		 push	 0
  002cb	6a 00		 push	 0
  002cd	6a 00		 push	 0
  002cf	e8 00 00 00 00	 call	 __invoke_watson
$LN320@GetEventLi:
  002d4	cc		 int	 3
_TEXT	ENDS
;	COMDAT text$x
text$x	SEGMENT
__unwindfunclet$?GetEventList@CEventLua@@QAE?AV?$vector@EV?$allocator@E@std@@@std@@H@Z$0:
  00000	8d 4d d0	 lea	 ecx, DWORD PTR _vecList$[ebp]
  00003	e9 00 00 00 00	 jmp	 ??1?$vector@EV?$allocator@E@std@@@std@@QAE@XZ ; std::vector<unsigned char,std::allocator<unsigned char> >::~vector<unsigned char,std::allocator<unsigned char> >
  00008	cc		 int	 3
  00009	cc		 int	 3
  0000a	cc		 int	 3
  0000b	cc		 int	 3
  0000c	cc		 int	 3
__ehhandler$?GetEventList@CEventLua@@QAE?AV?$vector@EV?$allocator@E@std@@@std@@H@Z:
  0000d	90		 npad	 1
  0000e	90		 npad	 1
  0000f	8b 54 24 08	 mov	 edx, DWORD PTR [esp+8]
  00013	8d 42 0c	 lea	 eax, DWORD PTR [edx+12]
  00016	8b 4a cc	 mov	 ecx, DWORD PTR [edx-52]
  00019	33 c8		 xor	 ecx, eax
  0001b	e8 00 00 00 00	 call	 @__security_check_cookie@4
  00020	b8 00 00 00 00	 mov	 eax, OFFSET __ehfuncinfo$?GetEventList@CEventLua@@QAE?AV?$vector@EV?$allocator@E@std@@@std@@H@Z
  00025	e9 00 00 00 00	 jmp	 ___CxxFrameHandler3
text$x	ENDS
?GetEventList@CEventLua@@QAE?AV?$vector@EV?$allocator@E@std@@@std@@H@Z ENDP ; CEventLua::GetEventList
; Function compile flags: /Ogtp
; File C:\IAGOS\server\v18\Source\Source\_Common\EventLua.cpp
; File C:\Program Files\Microsoft Visual Studio\2022\Professional\VC\Tools\MSVC\14.44.35207\include\xtree
; File C:\IAGOS\server\v18\Source\Source\_Common\EventLua.cpp
; File C:\Program Files\Microsoft Visual Studio\2022\Professional\VC\Tools\MSVC\14.44.35207\include\xtree
; File C:\IAGOS\server\v18\Source\Source\_Common\EventLua.cpp
; File C:\Program Files\Microsoft Visual Studio\2022\Professional\VC\Tools\MSVC\14.44.35207\include\xtree
; File C:\IAGOS\server\v18\Source\Source\_Common\EventLua.cpp
; File C:\Program Files\Microsoft Visual Studio\2022\Professional\VC\Tools\MSVC\14.44.35207\include\vector
; File C:\IAGOS\server\v18\Source\Source\_Common\EventLua.cpp
; File C:\Program Files\Microsoft Visual Studio\2022\Professional\VC\Tools\MSVC\14.44.35207\include\vector
; File C:\IAGOS\server\v18\Source\Source\_Common\EventLua.cpp
; File C:\Program Files\Microsoft Visual Studio\2022\Professional\VC\Tools\MSVC\14.44.35207\include\vector
; File C:\Program Files\Microsoft Visual Studio\2022\Professional\VC\Tools\MSVC\14.44.35207\include\xtree
; File C:\Program Files\Microsoft Visual Studio\2022\Professional\VC\Tools\MSVC\14.44.35207\include\xmemory
; File C:\IAGOS\server\v18\Source\Source\_Common\EventLua.cpp
;	COMDAT ??1CEventLua@@UAE@XZ
_TEXT	SEGMENT
??1CEventLua@@UAE@XZ PROC				; CEventLua::~CEventLua, COMDAT
; _this$ = ecx

; 40   : {

  00000	53		 push	 ebx
  00001	56		 push	 esi
  00002	57		 push	 edi
  00003	8b f9		 mov	 edi, ecx

; 41   : #ifdef __WORLDSERVER
; 42   : #ifdef __EVENTLUA_SPAWN
; 43   : 	m_mapSpawnList.clear();			// spawn ŔĚşĄĆ® ÁřÇŕ˝Ă »ýĽşµÉ ľĆŔĚĹŰ ą× ¸ó˝şĹÍ Á¤ş¸

  00005	8d 5f 5c	 lea	 ebx, DWORD PTR [edi+92]
; File C:\Program Files\Microsoft Visual Studio\2022\Professional\VC\Tools\MSVC\14.44.35207\include\xtree

; 1374 :         _Scary->_Erase_tree(_Getal(), _Head->_Parent);

  00008	8b cb		 mov	 ecx, ebx
; File C:\IAGOS\server\v18\Source\Source\_Common\EventLua.cpp

; 40   : {

  0000a	c7 07 00 00 00
	00		 mov	 DWORD PTR [edi], OFFSET ??_7CEventLua@@6B@
; File C:\Program Files\Microsoft Visual Studio\2022\Professional\VC\Tools\MSVC\14.44.35207\include\xtree

; 1373 :         auto _Head = _Scary->_Myhead;

  00010	8b 33		 mov	 esi, DWORD PTR [ebx]

; 1374 :         _Scary->_Erase_tree(_Getal(), _Head->_Parent);

  00012	ff 76 04	 push	 DWORD PTR [esi+4]
  00015	53		 push	 ebx
  00016	e8 00 00 00 00	 call	 ??$_Erase_tree@V?$allocator@U?$_Tree_node@U?$pair@$$CBEV?$vector@U__SPAWNINFO@CEventLua@@V?$allocator@U__SPAWNINFO@CEventLua@@@std@@@std@@@std@@PAX@std@@@std@@@?$_Tree_val@U?$_Tree_simple_types@U?$pair@$$CBEV?$vector@U__SPAWNINFO@CEventLua@@V?$allocator@U__SPAWNINFO@CEventLua@@@std@@@std@@@std@@@std@@@std@@QAEXAAV?$allocator@U?$_Tree_node@U?$pair@$$CBEV?$vector@U__SPAWNINFO@CEventLua@@V?$allocator@U__SPAWNINFO@CEventLua@@@std@@@std@@@std@@PAX@std@@@1@PAU?$_Tree_node@U?$pair@$$CBEV?$vector@U__SPAWNINFO@CEventLua@@V?$allocator@U__SPAWNINFO@CEventLua@@@std@@@std@@@std@@PAX@1@@Z ; std::_Tree_val<std::_Tree_simple_types<std::pair<unsigned char const ,std::vector<CEventLua::__SPAWNINFO,std::allocator<CEventLua::__SPAWNINFO> > > > >::_Erase_tree<std::allocator<std::_Tree_node<std::pair<unsigned char const ,std::vector<CEventLua::__SPAWNINFO,std::allocator<CEventLua::__SPAWNINFO> > >,void *> > >

; 1375 :         _Head->_Parent  = _Head;

  0001b	89 76 04	 mov	 DWORD PTR [esi+4], esi
; File C:\IAGOS\server\v18\Source\Source\_Common\EventLua.cpp

; 44   : 	m_mapMonsterId.clear();			// spawn ŔĚşĄĆ® ÁřÇŕ˝Ă »ýĽşµČ ¸ó˝şĹÍ°ˇ ŔĚşĄĆ®żë ŔÎÁö °Ë»çÇĎ±â Ŕ§ÇŘ ÇĘżä

  0001e	8d 4f 64	 lea	 ecx, DWORD PTR [edi+100]
; File C:\Program Files\Microsoft Visual Studio\2022\Professional\VC\Tools\MSVC\14.44.35207\include\xtree

; 1376 :         _Head->_Left    = _Head;

  00021	89 36		 mov	 DWORD PTR [esi], esi

; 1377 :         _Head->_Right   = _Head;

  00023	89 76 08	 mov	 DWORD PTR [esi+8], esi

; 1378 :         _Scary->_Mysize = 0;

  00026	c7 43 04 00 00
	00 00		 mov	 DWORD PTR [ebx+4], 0
; File C:\IAGOS\server\v18\Source\Source\_Common\EventLua.cpp

; 44   : 	m_mapMonsterId.clear();			// spawn ŔĚşĄĆ® ÁřÇŕ˝Ă »ýĽşµČ ¸ó˝şĹÍ°ˇ ŔĚşĄĆ®żë ŔÎÁö °Ë»çÇĎ±â Ŕ§ÇŘ ÇĘżä

  0002d	e8 00 00 00 00	 call	 ?clear@?$_Tree@V?$_Tmap_traits@KEU?$less@K@std@@V?$allocator@U?$pair@$$CBKE@std@@@2@$0A@@std@@@std@@QAEXXZ ; std::_Tree<std::_Tmap_traits<unsigned long,unsigned char,std::less<unsigned long>,std::allocator<std::pair<unsigned long const ,unsigned char> >,0> >::clear
; File C:\Program Files\Microsoft Visual Studio\2022\Professional\VC\Tools\MSVC\14.44.35207\include\vector

; 1812 :         if (_Myfirst == _Mylast) { // already empty, nothing to do

  00032	8b 4f 50	 mov	 ecx, DWORD PTR [edi+80]
  00035	3b 4f 54	 cmp	 ecx, DWORD PTR [edi+84]
  00038	74 03		 je	 SHORT $LN7@CEventLua

; 1813 :             // This is an optimization for debug mode: we can avoid taking the debug lock to invalidate iterators.
; 1814 :             // Note that when clearing an empty vector, this will preserve past-the-end iterators, which is allowed by
; 1815 :             // N4950 [sequence.reqmts]/54 "a.clear() [...] may invalidate the past-the-end iterator".
; 1816 :             return;
; 1817 :         }
; 1818 : 
; 1819 :         _My_data._Orphan_all();
; 1820 :         _Destroy_range(_Myfirst, _Mylast, _Getal());
; 1821 :         _ASAN_VECTOR_MODIFY(static_cast<difference_type>(_Myfirst - _Mylast)); // negative when destroying elements
; 1822 :         _Mylast = _Myfirst;

  0003a	89 4f 54	 mov	 DWORD PTR [edi+84], ecx
$LN7@CEventLua:
; File C:\IAGOS\server\v18\Source\Source\_Common\EventLua.cpp

; 46   : 	m_mapSpawnedMonster.clear();	// spawn ŔĚşĄĆ® ÁřÇŕ˝Ă ˝ÇÁ¦·Î »ýĽşµČ ¸ó˝şĹÍµéŔÇ ¸ń·Ď ŔúŔĺ(ŔĚşĄĆ® Áľ·á˝Ă »čÁ¦ÇĎ±â Ŕ§ÇŘ ÇĘżä)

  0003d	8d 4f 6c	 lea	 ecx, DWORD PTR [edi+108]
  00040	e8 00 00 00 00	 call	 ?clear@?$_Tree@V?$_Tmap_traits@KEU?$less@K@std@@V?$allocator@U?$pair@$$CBKE@std@@@2@$0A@@std@@@std@@QAEXXZ ; std::_Tree<std::_Tmap_traits<unsigned long,unsigned char,std::less<unsigned long>,std::allocator<std::pair<unsigned long const ,unsigned char> >,0> >::clear
; File C:\Program Files\Microsoft Visual Studio\2022\Professional\VC\Tools\MSVC\14.44.35207\include\vector

; 1812 :         if (_Myfirst == _Mylast) { // already empty, nothing to do

  00045	8b 4f 74	 mov	 ecx, DWORD PTR [edi+116]
  00048	3b 4f 78	 cmp	 ecx, DWORD PTR [edi+120]
  0004b	74 03		 je	 SHORT $LN11@CEventLua

; 1813 :             // This is an optimization for debug mode: we can avoid taking the debug lock to invalidate iterators.
; 1814 :             // Note that when clearing an empty vector, this will preserve past-the-end iterators, which is allowed by
; 1815 :             // N4950 [sequence.reqmts]/54 "a.clear() [...] may invalidate the past-the-end iterator".
; 1816 :             return;
; 1817 :         }
; 1818 : 
; 1819 :         _My_data._Orphan_all();
; 1820 :         _Destroy_range(_Myfirst, _Mylast, _Getal());
; 1821 :         _ASAN_VECTOR_MODIFY(static_cast<difference_type>(_Myfirst - _Mylast)); // negative when destroying elements
; 1822 :         _Mylast = _Myfirst;

  0004d	89 4f 78	 mov	 DWORD PTR [edi+120], ecx
$LN11@CEventLua:

; 1812 :         if (_Myfirst == _Mylast) { // already empty, nothing to do

  00050	8b 87 80 00 00
	00		 mov	 eax, DWORD PTR [edi+128]
  00056	3b 87 84 00 00
	00		 cmp	 eax, DWORD PTR [edi+132]
  0005c	74 06		 je	 SHORT $LN15@CEventLua

; 1813 :             // This is an optimization for debug mode: we can avoid taking the debug lock to invalidate iterators.
; 1814 :             // Note that when clearing an empty vector, this will preserve past-the-end iterators, which is allowed by
; 1815 :             // N4950 [sequence.reqmts]/54 "a.clear() [...] may invalidate the past-the-end iterator".
; 1816 :             return;
; 1817 :         }
; 1818 : 
; 1819 :         _My_data._Orphan_all();
; 1820 :         _Destroy_range(_Myfirst, _Mylast, _Getal());
; 1821 :         _ASAN_VECTOR_MODIFY(static_cast<difference_type>(_Myfirst - _Mylast)); // negative when destroying elements
; 1822 :         _Mylast = _Myfirst;

  0005e	89 87 84 00 00
	00		 mov	 DWORD PTR [edi+132], eax
$LN15@CEventLua:
; File C:\IAGOS\server\v18\Source\Source\_Common\EventLua.cpp

; 51   : 	m_mapItemList.clear();

  00064	8d 8f 8c 00 00
	00		 lea	 ecx, DWORD PTR [edi+140]
  0006a	e8 00 00 00 00	 call	 ?clear@?$_Tree@V?$_Tmap_traits@KHU?$less@K@std@@V?$allocator@U?$pair@$$CBKH@std@@@2@$0A@@std@@@std@@QAEXXZ ; std::_Tree<std::_Tmap_traits<unsigned long,int,std::less<unsigned long>,std::allocator<std::pair<unsigned long const ,int> >,0> >::clear
  0006f	8d 8f 8c 00 00
	00		 lea	 ecx, DWORD PTR [edi+140]
  00075	e8 00 00 00 00	 call	 ??1?$_Tree@V?$_Tmap_traits@KHU?$less@K@std@@V?$allocator@U?$pair@$$CBKH@std@@@2@$0A@@std@@@std@@QAE@XZ ; std::_Tree<std::_Tmap_traits<unsigned long,int,std::less<unsigned long>,std::allocator<std::pair<unsigned long const ,int> >,0> >::~_Tree<std::_Tmap_traits<unsigned long,int,std::less<unsigned long>,std::allocator<std::pair<unsigned long const ,int> >,0> >

; 54   : }

  0007a	8d 8f 80 00 00
	00		 lea	 ecx, DWORD PTR [edi+128]
  00080	e8 00 00 00 00	 call	 ??1?$vector@KV?$allocator@K@std@@@std@@QAE@XZ ; std::vector<unsigned long,std::allocator<unsigned long> >::~vector<unsigned long,std::allocator<unsigned long> >
; File C:\Program Files\Microsoft Visual Studio\2022\Professional\VC\Tools\MSVC\14.44.35207\include\vector

; 830  :         _Tidy();

  00085	8d 4f 74	 lea	 ecx, DWORD PTR [edi+116]
  00088	e8 00 00 00 00	 call	 ?_Tidy@?$vector@EV?$allocator@E@std@@@std@@AAEXXZ ; std::vector<unsigned char,std::allocator<unsigned char> >::_Tidy
  0008d	8d 4f 6c	 lea	 ecx, DWORD PTR [edi+108]
  00090	e8 00 00 00 00	 call	 ??1?$_Tree@V?$_Tmap_traits@KEU?$less@K@std@@V?$allocator@U?$pair@$$CBKE@std@@@2@$0A@@std@@@std@@QAE@XZ ; std::_Tree<std::_Tmap_traits<unsigned long,unsigned char,std::less<unsigned long>,std::allocator<std::pair<unsigned long const ,unsigned char> >,0> >::~_Tree<std::_Tmap_traits<unsigned long,unsigned char,std::less<unsigned long>,std::allocator<std::pair<unsigned long const ,unsigned char> >,0> >
  00095	8d 4f 64	 lea	 ecx, DWORD PTR [edi+100]
  00098	e8 00 00 00 00	 call	 ??1?$_Tree@V?$_Tmap_traits@KEU?$less@K@std@@V?$allocator@U?$pair@$$CBKE@std@@@2@$0A@@std@@@std@@QAE@XZ ; std::_Tree<std::_Tmap_traits<unsigned long,unsigned char,std::less<unsigned long>,std::allocator<std::pair<unsigned long const ,unsigned char> >,0> >::~_Tree<std::_Tmap_traits<unsigned long,unsigned char,std::less<unsigned long>,std::allocator<std::pair<unsigned long const ,unsigned char> >,0> >
; File C:\Program Files\Microsoft Visual Studio\2022\Professional\VC\Tools\MSVC\14.44.35207\include\xtree

; 777  :         _Erase_tree(_Al, _Myhead->_Parent);

  0009d	8b 47 5c	 mov	 eax, DWORD PTR [edi+92]
  000a0	8d 77 5c	 lea	 esi, DWORD PTR [edi+92]
  000a3	8b ce		 mov	 ecx, esi
  000a5	ff 70 04	 push	 DWORD PTR [eax+4]
  000a8	56		 push	 esi
  000a9	e8 00 00 00 00	 call	 ??$_Erase_tree@V?$allocator@U?$_Tree_node@U?$pair@$$CBEV?$vector@U__SPAWNINFO@CEventLua@@V?$allocator@U__SPAWNINFO@CEventLua@@@std@@@std@@@std@@PAX@std@@@std@@@?$_Tree_val@U?$_Tree_simple_types@U?$pair@$$CBEV?$vector@U__SPAWNINFO@CEventLua@@V?$allocator@U__SPAWNINFO@CEventLua@@@std@@@std@@@std@@@std@@@std@@QAEXAAV?$allocator@U?$_Tree_node@U?$pair@$$CBEV?$vector@U__SPAWNINFO@CEventLua@@V?$allocator@U__SPAWNINFO@CEventLua@@@std@@@std@@@std@@PAX@std@@@1@PAU?$_Tree_node@U?$pair@$$CBEV?$vector@U__SPAWNINFO@CEventLua@@V?$allocator@U__SPAWNINFO@CEventLua@@@std@@@std@@@std@@PAX@1@@Z ; std::_Tree_val<std::_Tree_simple_types<std::pair<unsigned char const ,std::vector<CEventLua::__SPAWNINFO,std::allocator<CEventLua::__SPAWNINFO> > > > >::_Erase_tree<std::allocator<std::_Tree_node<std::pair<unsigned char const ,std::vector<CEventLua::__SPAWNINFO,std::allocator<CEventLua::__SPAWNINFO> > >,void *> > >
; File C:\Program Files\Microsoft Visual Studio\2022\Professional\VC\Tools\MSVC\14.44.35207\include\xmemory

; 289  :         ::operator delete(_Ptr, _Bytes);

  000ae	6a 20		 push	 32			; 00000020H
  000b0	ff 36		 push	 DWORD PTR [esi]
  000b2	e8 00 00 00 00	 call	 ??3@YAXPAXI@Z		; operator delete
  000b7	83 c4 08	 add	 esp, 8
; File C:\IAGOS\server\v18\Source\Source\_Common\EventLua.cpp

; 54   : }

  000ba	8d 4f 50	 lea	 ecx, DWORD PTR [edi+80]
  000bd	e8 00 00 00 00	 call	 ??1?$vector@U__SPAWNREGION@CEventLua@@V?$allocator@U__SPAWNREGION@CEventLua@@@std@@@std@@QAE@XZ ; std::vector<CEventLua::__SPAWNREGION,std::allocator<CEventLua::__SPAWNREGION> >::~vector<CEventLua::__SPAWNREGION,std::allocator<CEventLua::__SPAWNREGION> >
  000c2	8d 4f 10	 lea	 ecx, DWORD PTR [edi+16]
  000c5	e8 00 00 00 00	 call	 ??1CEventLuaProxy@@UAE@XZ ; CEventLuaProxy::~CEventLuaProxy
  000ca	8d 4f 08	 lea	 ecx, DWORD PTR [edi+8]
  000cd	5f		 pop	 edi
  000ce	5e		 pop	 esi
  000cf	5b		 pop	 ebx
  000d0	e9 00 00 00 00	 jmp	 ??1CLuaBase@@UAE@XZ	; CLuaBase::~CLuaBase
??1CEventLua@@UAE@XZ ENDP				; CEventLua::~CEventLua
_TEXT	ENDS
; Function compile flags: /Ogtp
; File C:\IAGOS\server\v18\Source\Source\_Common\EventLua.cpp
; File C:\Program Files\Microsoft Visual Studio\2022\Professional\VC\Tools\MSVC\14.44.35207\include\vector
; File C:\IAGOS\server\v18\Source\Source\_Common\EventLua.cpp
; File C:\Program Files\Microsoft Visual Studio\2022\Professional\VC\Tools\MSVC\14.44.35207\include\xmemory
; File C:\IAGOS\server\v18\Source\Source\_Common\EventLua.cpp
; File C:\Program Files\Microsoft Visual Studio\2022\Professional\VC\Tools\MSVC\14.44.35207\include\xtree
; File C:\Program Files\Microsoft Visual Studio\2022\Professional\VC\Tools\MSVC\14.44.35207\include\xmemory
; File C:\Program Files\Microsoft Visual Studio\2022\Professional\VC\Tools\MSVC\14.44.35207\include\xtree
; File C:\IAGOS\server\v18\Source\Source\_Common\EventLua.cpp
; File C:\Program Files\Microsoft Visual Studio\2022\Professional\VC\Tools\MSVC\14.44.35207\include\xmemory
; File C:\IAGOS\server\v18\Source\Source\_Common\EventLua.cpp
; File C:\Program Files\Microsoft Visual Studio\2022\Professional\VC\Tools\MSVC\14.44.35207\include\xtree
; File C:\Program Files\Microsoft Visual Studio\2022\Professional\VC\Tools\MSVC\14.44.35207\include\xmemory
; File C:\Program Files\Microsoft Visual Studio\2022\Professional\VC\Tools\MSVC\14.44.35207\include\xtree
; File C:\IAGOS\server\v18\Source\Source\_Common\EventLua.cpp
; File C:\Program Files\Microsoft Visual Studio\2022\Professional\VC\Tools\MSVC\14.44.35207\include\xmemory
; File C:\IAGOS\server\v18\Source\Source\_Common\EventLua.cpp
; File C:\Program Files\Microsoft Visual Studio\2022\Professional\VC\Tools\MSVC\14.44.35207\include\xtree
; File C:\Program Files\Microsoft Visual Studio\2022\Professional\VC\Tools\MSVC\14.44.35207\include\xmemory
; File C:\Program Files\Microsoft Visual Studio\2022\Professional\VC\Tools\MSVC\14.44.35207\include\xtree
; File C:\Program Files\Microsoft Visual Studio\2022\Professional\VC\Tools\MSVC\14.44.35207\include\vector
; File C:\IAGOS\server\v18\Source\Source\_Common\EventLua.cpp
; File C:\Program Files\Microsoft Visual Studio\2022\Professional\VC\Tools\MSVC\14.44.35207\include\xmemory
; File C:\IAGOS\server\v18\Source\Source\_Common\EventLua.cpp
; File C:\Program Files\Microsoft Visual Studio\2022\Professional\VC\Tools\MSVC\14.44.35207\include\xtree
; File C:\Program Files\Microsoft Visual Studio\2022\Professional\VC\Tools\MSVC\14.44.35207\include\xmemory
; File C:\Program Files\Microsoft Visual Studio\2022\Professional\VC\Tools\MSVC\14.44.35207\include\xtree
; File C:\IAGOS\server\v18\Source\Source\_Common\EventLua.cpp
;	COMDAT ??0CEventLua@@QAE@XZ
_TEXT	SEGMENT
_this$ = -20						; size = 4
_this$ = -20						; size = 4
_this$ = -20						; size = 4
_this$ = -20						; size = 4
_this$ = -16						; size = 4
__$EHRec$ = -12						; size = 12
??0CEventLua@@QAE@XZ PROC				; CEventLua::CEventLua, COMDAT
; _this$ = ecx

; 30   : {

  00000	55		 push	 ebp
  00001	8b ec		 mov	 ebp, esp
  00003	6a ff		 push	 -1
  00005	68 00 00 00 00	 push	 __ehhandler$??0CEventLua@@QAE@XZ
  0000a	64 a1 00 00 00
	00		 mov	 eax, DWORD PTR fs:0
  00010	50		 push	 eax
  00011	83 ec 08	 sub	 esp, 8
  00014	56		 push	 esi
  00015	57		 push	 edi
  00016	a1 00 00 00 00	 mov	 eax, DWORD PTR ___security_cookie
  0001b	33 c5		 xor	 eax, ebp
  0001d	50		 push	 eax
  0001e	8d 45 f4	 lea	 eax, DWORD PTR __$EHRec$[ebp]
  00021	64 a3 00 00 00
	00		 mov	 DWORD PTR fs:0, eax
  00027	8b f9		 mov	 edi, ecx
  00029	89 7d f0	 mov	 DWORD PTR _this$[ebp], edi
  0002c	8d 4f 08	 lea	 ecx, DWORD PTR [edi+8]
  0002f	c7 07 00 00 00
	00		 mov	 DWORD PTR [edi], OFFSET ??_7CEventLua@@6B@
  00035	e8 00 00 00 00	 call	 ??0CLuaBase@@QAE@XZ	; CLuaBase::CLuaBase
  0003a	8d 4f 10	 lea	 ecx, DWORD PTR [edi+16]
  0003d	c7 45 fc 00 00
	00 00		 mov	 DWORD PTR __$EHRec$[ebp+8], 0
  00044	e8 00 00 00 00	 call	 ??0CEventLuaProxy@@QAE@XZ ; CEventLuaProxy::CEventLuaProxy
; File C:\Program Files\Microsoft Visual Studio\2022\Professional\VC\Tools\MSVC\14.44.35207\include\vector

; 400  :     _CONSTEXPR20 _Vector_val() noexcept : _Myfirst(), _Mylast(), _Myend() {}

  00049	c7 47 50 00 00
	00 00		 mov	 DWORD PTR [edi+80], 0
  00050	c7 47 54 00 00
	00 00		 mov	 DWORD PTR [edi+84], 0
  00057	c7 47 58 00 00
	00 00		 mov	 DWORD PTR [edi+88], 0
; File C:\IAGOS\server\v18\Source\Source\_Common\EventLua.cpp

; 30   : {

  0005e	8d 77 5c	 lea	 esi, DWORD PTR [edi+92]
  00061	c6 45 fc 02	 mov	 BYTE PTR __$EHRec$[ebp+8], 2
; File C:\Program Files\Microsoft Visual Studio\2022\Professional\VC\Tools\MSVC\14.44.35207\include\xmemory

; 136  :         return ::operator new(_Bytes);

  00065	6a 20		 push	 32			; 00000020H
; File C:\IAGOS\server\v18\Source\Source\_Common\EventLua.cpp

; 30   : {

  00067	89 75 ec	 mov	 DWORD PTR _this$[ebp], esi
; File C:\Program Files\Microsoft Visual Studio\2022\Professional\VC\Tools\MSVC\14.44.35207\include\xtree

; 450  :     _Tree_val() noexcept : _Myhead(), _Mysize(0) {}

  0006a	c7 06 00 00 00
	00		 mov	 DWORD PTR [esi], 0
  00070	c7 46 04 00 00
	00 00		 mov	 DWORD PTR [esi+4], 0
; File C:\Program Files\Microsoft Visual Studio\2022\Professional\VC\Tools\MSVC\14.44.35207\include\xmemory

; 136  :         return ::operator new(_Bytes);

  00077	e8 00 00 00 00	 call	 ??2@YAPAXI@Z		; operator new
; File C:\Program Files\Microsoft Visual Studio\2022\Professional\VC\Tools\MSVC\14.44.35207\include\xtree

; 346  :         _Construct_in_place(_Pnode->_Left, _Pnode);

  0007c	89 00		 mov	 DWORD PTR [eax], eax

; 347  :         _Construct_in_place(_Pnode->_Parent, _Pnode);

  0007e	89 40 04	 mov	 DWORD PTR [eax+4], eax

; 348  :         _Construct_in_place(_Pnode->_Right, _Pnode);

  00081	89 40 08	 mov	 DWORD PTR [eax+8], eax

; 349  :         _Pnode->_Color = _Black;

  00084	66 c7 40 0c 01
	01		 mov	 WORD PTR [eax+12], 257	; 00000101H

; 1957 :         _Scary->_Myhead = _Node::_Buyheadnode(_Getal());

  0008a	89 06		 mov	 DWORD PTR [esi], eax
; File C:\IAGOS\server\v18\Source\Source\_Common\EventLua.cpp

; 30   : {

  0008c	8d 77 64	 lea	 esi, DWORD PTR [edi+100]
  0008f	c6 45 fc 03	 mov	 BYTE PTR __$EHRec$[ebp+8], 3
; File C:\Program Files\Microsoft Visual Studio\2022\Professional\VC\Tools\MSVC\14.44.35207\include\xmemory

; 136  :         return ::operator new(_Bytes);

  00093	6a 18		 push	 24			; 00000018H
; File C:\IAGOS\server\v18\Source\Source\_Common\EventLua.cpp

; 30   : {

  00095	89 75 ec	 mov	 DWORD PTR _this$[ebp], esi
; File C:\Program Files\Microsoft Visual Studio\2022\Professional\VC\Tools\MSVC\14.44.35207\include\xtree

; 450  :     _Tree_val() noexcept : _Myhead(), _Mysize(0) {}

  00098	c7 06 00 00 00
	00		 mov	 DWORD PTR [esi], 0
  0009e	c7 46 04 00 00
	00 00		 mov	 DWORD PTR [esi+4], 0
; File C:\Program Files\Microsoft Visual Studio\2022\Professional\VC\Tools\MSVC\14.44.35207\include\xmemory

; 136  :         return ::operator new(_Bytes);

  000a5	e8 00 00 00 00	 call	 ??2@YAPAXI@Z		; operator new
; File C:\Program Files\Microsoft Visual Studio\2022\Professional\VC\Tools\MSVC\14.44.35207\include\xtree

; 346  :         _Construct_in_place(_Pnode->_Left, _Pnode);

  000aa	89 00		 mov	 DWORD PTR [eax], eax

; 347  :         _Construct_in_place(_Pnode->_Parent, _Pnode);

  000ac	89 40 04	 mov	 DWORD PTR [eax+4], eax

; 348  :         _Construct_in_place(_Pnode->_Right, _Pnode);

  000af	89 40 08	 mov	 DWORD PTR [eax+8], eax

; 349  :         _Pnode->_Color = _Black;

  000b2	66 c7 40 0c 01
	01		 mov	 WORD PTR [eax+12], 257	; 00000101H

; 1957 :         _Scary->_Myhead = _Node::_Buyheadnode(_Getal());

  000b8	89 06		 mov	 DWORD PTR [esi], eax
; File C:\IAGOS\server\v18\Source\Source\_Common\EventLua.cpp

; 30   : {

  000ba	8d 77 6c	 lea	 esi, DWORD PTR [edi+108]
  000bd	c6 45 fc 04	 mov	 BYTE PTR __$EHRec$[ebp+8], 4
; File C:\Program Files\Microsoft Visual Studio\2022\Professional\VC\Tools\MSVC\14.44.35207\include\xmemory

; 136  :         return ::operator new(_Bytes);

  000c1	6a 18		 push	 24			; 00000018H
; File C:\IAGOS\server\v18\Source\Source\_Common\EventLua.cpp

; 30   : {

  000c3	89 75 ec	 mov	 DWORD PTR _this$[ebp], esi
; File C:\Program Files\Microsoft Visual Studio\2022\Professional\VC\Tools\MSVC\14.44.35207\include\xtree

; 450  :     _Tree_val() noexcept : _Myhead(), _Mysize(0) {}

  000c6	c7 06 00 00 00
	00		 mov	 DWORD PTR [esi], 0
  000cc	c7 46 04 00 00
	00 00		 mov	 DWORD PTR [esi+4], 0
; File C:\Program Files\Microsoft Visual Studio\2022\Professional\VC\Tools\MSVC\14.44.35207\include\xmemory

; 136  :         return ::operator new(_Bytes);

  000d3	e8 00 00 00 00	 call	 ??2@YAPAXI@Z		; operator new
; File C:\Program Files\Microsoft Visual Studio\2022\Professional\VC\Tools\MSVC\14.44.35207\include\xtree

; 346  :         _Construct_in_place(_Pnode->_Left, _Pnode);

  000d8	89 00		 mov	 DWORD PTR [eax], eax

; 347  :         _Construct_in_place(_Pnode->_Parent, _Pnode);

  000da	89 40 04	 mov	 DWORD PTR [eax+4], eax

; 348  :         _Construct_in_place(_Pnode->_Right, _Pnode);

  000dd	89 40 08	 mov	 DWORD PTR [eax+8], eax

; 349  :         _Pnode->_Color = _Black;

  000e0	66 c7 40 0c 01
	01		 mov	 WORD PTR [eax+12], 257	; 00000101H

; 1957 :         _Scary->_Myhead = _Node::_Buyheadnode(_Getal());

  000e6	89 06		 mov	 DWORD PTR [esi], eax
; File C:\Program Files\Microsoft Visual Studio\2022\Professional\VC\Tools\MSVC\14.44.35207\include\vector

; 400  :     _CONSTEXPR20 _Vector_val() noexcept : _Myfirst(), _Mylast(), _Myend() {}

  000e8	c7 47 74 00 00
	00 00		 mov	 DWORD PTR [edi+116], 0
  000ef	c7 47 78 00 00
	00 00		 mov	 DWORD PTR [edi+120], 0
  000f6	c7 47 7c 00 00
	00 00		 mov	 DWORD PTR [edi+124], 0
  000fd	c7 87 80 00 00
	00 00 00 00 00	 mov	 DWORD PTR [edi+128], 0
  00107	c7 87 84 00 00
	00 00 00 00 00	 mov	 DWORD PTR [edi+132], 0
  00111	c7 87 88 00 00
	00 00 00 00 00	 mov	 DWORD PTR [edi+136], 0
; File C:\IAGOS\server\v18\Source\Source\_Common\EventLua.cpp

; 30   : {

  0011b	8d b7 8c 00 00
	00		 lea	 esi, DWORD PTR [edi+140]
  00121	c6 45 fc 07	 mov	 BYTE PTR __$EHRec$[ebp+8], 7
; File C:\Program Files\Microsoft Visual Studio\2022\Professional\VC\Tools\MSVC\14.44.35207\include\xmemory

; 136  :         return ::operator new(_Bytes);

  00125	6a 18		 push	 24			; 00000018H
; File C:\IAGOS\server\v18\Source\Source\_Common\EventLua.cpp

; 30   : {

  00127	89 75 ec	 mov	 DWORD PTR _this$[ebp], esi
; File C:\Program Files\Microsoft Visual Studio\2022\Professional\VC\Tools\MSVC\14.44.35207\include\xtree

; 450  :     _Tree_val() noexcept : _Myhead(), _Mysize(0) {}

  0012a	c7 06 00 00 00
	00		 mov	 DWORD PTR [esi], 0
  00130	c7 46 04 00 00
	00 00		 mov	 DWORD PTR [esi+4], 0
; File C:\Program Files\Microsoft Visual Studio\2022\Professional\VC\Tools\MSVC\14.44.35207\include\xmemory

; 136  :         return ::operator new(_Bytes);

  00137	e8 00 00 00 00	 call	 ??2@YAPAXI@Z		; operator new
  0013c	83 c4 10	 add	 esp, 16			; 00000010H
; File C:\Program Files\Microsoft Visual Studio\2022\Professional\VC\Tools\MSVC\14.44.35207\include\xtree

; 346  :         _Construct_in_place(_Pnode->_Left, _Pnode);

  0013f	89 00		 mov	 DWORD PTR [eax], eax

; 347  :         _Construct_in_place(_Pnode->_Parent, _Pnode);

  00141	89 40 04	 mov	 DWORD PTR [eax+4], eax

; 348  :         _Construct_in_place(_Pnode->_Right, _Pnode);

  00144	89 40 08	 mov	 DWORD PTR [eax+8], eax

; 349  :         _Pnode->_Color = _Black;

  00147	66 c7 40 0c 01
	01		 mov	 WORD PTR [eax+12], 257	; 00000101H

; 1957 :         _Scary->_Myhead = _Node::_Buyheadnode(_Getal());

  0014d	89 06		 mov	 DWORD PTR [esi], eax
; File C:\IAGOS\server\v18\Source\Source\_Common\EventLua.cpp

; 37   : }

  0014f	8b c7		 mov	 eax, edi
  00151	c7 47 04 00 00
	00 00		 mov	 DWORD PTR [edi+4], 0
  00158	8b 4d f4	 mov	 ecx, DWORD PTR __$EHRec$[ebp]
  0015b	64 89 0d 00 00
	00 00		 mov	 DWORD PTR fs:0, ecx
  00162	59		 pop	 ecx
  00163	5f		 pop	 edi
  00164	5e		 pop	 esi
  00165	8b e5		 mov	 esp, ebp
  00167	5d		 pop	 ebp
  00168	c3		 ret	 0
_TEXT	ENDS
;	COMDAT text$x
text$x	SEGMENT
__unwindfunclet$??0CEventLua@@QAE@XZ$0:
  00000	8b 4d f0	 mov	 ecx, DWORD PTR _this$[ebp]
  00003	83 c1 08	 add	 ecx, 8
  00006	e9 00 00 00 00	 jmp	 ??1CLuaBase@@UAE@XZ	; CLuaBase::~CLuaBase
__unwindfunclet$??0CEventLua@@QAE@XZ$1:
  0000b	8b 4d f0	 mov	 ecx, DWORD PTR _this$[ebp]
  0000e	83 c1 10	 add	 ecx, 16			; 00000010H
  00011	e9 00 00 00 00	 jmp	 ??1CEventLuaProxy@@UAE@XZ ; CEventLuaProxy::~CEventLuaProxy
__unwindfunclet$??0CEventLua@@QAE@XZ$2:
  00016	8b 4d f0	 mov	 ecx, DWORD PTR _this$[ebp]
  00019	83 c1 50	 add	 ecx, 80			; 00000050H
  0001c	e9 00 00 00 00	 jmp	 ??1?$vector@U__SPAWNREGION@CEventLua@@V?$allocator@U__SPAWNREGION@CEventLua@@@std@@@std@@QAE@XZ ; std::vector<CEventLua::__SPAWNREGION,std::allocator<CEventLua::__SPAWNREGION> >::~vector<CEventLua::__SPAWNREGION,std::allocator<CEventLua::__SPAWNREGION> >
__unwindfunclet$??0CEventLua@@QAE@XZ$3:
  00021	8b 4d f0	 mov	 ecx, DWORD PTR _this$[ebp]
  00024	83 c1 5c	 add	 ecx, 92			; 0000005cH
  00027	e9 00 00 00 00	 jmp	 ??1?$map@EV?$vector@U__SPAWNINFO@CEventLua@@V?$allocator@U__SPAWNINFO@CEventLua@@@std@@@std@@U?$less@E@2@V?$allocator@U?$pair@$$CBEV?$vector@U__SPAWNINFO@CEventLua@@V?$allocator@U__SPAWNINFO@CEventLua@@@std@@@std@@@std@@@2@@std@@QAE@XZ
__unwindfunclet$??0CEventLua@@QAE@XZ$4:
  0002c	8b 4d f0	 mov	 ecx, DWORD PTR _this$[ebp]
  0002f	83 c1 64	 add	 ecx, 100		; 00000064H
  00032	e9 00 00 00 00	 jmp	 ??1?$map@KEU?$less@K@std@@V?$allocator@U?$pair@$$CBKE@std@@@2@@std@@QAE@XZ
__unwindfunclet$??0CEventLua@@QAE@XZ$5:
  00037	8b 4d f0	 mov	 ecx, DWORD PTR _this$[ebp]
  0003a	83 c1 6c	 add	 ecx, 108		; 0000006cH
  0003d	e9 00 00 00 00	 jmp	 ??1?$map@KEU?$less@K@std@@V?$allocator@U?$pair@$$CBKE@std@@@2@@std@@QAE@XZ
__unwindfunclet$??0CEventLua@@QAE@XZ$6:
  00042	8b 4d f0	 mov	 ecx, DWORD PTR _this$[ebp]
  00045	83 c1 74	 add	 ecx, 116		; 00000074H
  00048	e9 00 00 00 00	 jmp	 ??1?$vector@EV?$allocator@E@std@@@std@@QAE@XZ ; std::vector<unsigned char,std::allocator<unsigned char> >::~vector<unsigned char,std::allocator<unsigned char> >
__unwindfunclet$??0CEventLua@@QAE@XZ$7:
  0004d	8b 4d f0	 mov	 ecx, DWORD PTR _this$[ebp]
  00050	81 c1 80 00 00
	00		 add	 ecx, 128		; 00000080H
  00056	e9 00 00 00 00	 jmp	 ??1?$vector@KV?$allocator@K@std@@@std@@QAE@XZ ; std::vector<unsigned long,std::allocator<unsigned long> >::~vector<unsigned long,std::allocator<unsigned long> >
  0005b	cc		 int	 3
  0005c	cc		 int	 3
  0005d	cc		 int	 3
  0005e	cc		 int	 3
  0005f	cc		 int	 3
__ehhandler$??0CEventLua@@QAE@XZ:
  00060	90		 npad	 1
  00061	90		 npad	 1
  00062	8b 54 24 08	 mov	 edx, DWORD PTR [esp+8]
  00066	8d 42 0c	 lea	 eax, DWORD PTR [edx+12]
  00069	8b 4a ec	 mov	 ecx, DWORD PTR [edx-20]
  0006c	33 c8		 xor	 ecx, eax
  0006e	e8 00 00 00 00	 call	 @__security_check_cookie@4
  00073	b8 00 00 00 00	 mov	 eax, OFFSET __ehfuncinfo$??0CEventLua@@QAE@XZ
  00078	e9 00 00 00 00	 jmp	 ___CxxFrameHandler3
text$x	ENDS
??0CEventLua@@QAE@XZ ENDP				; CEventLua::CEventLua
; Function compile flags: /Ogtp
;	COMDAT ??_GCEventLuaProxy@@UAEPAXI@Z
_TEXT	SEGMENT
___flags$ = 8						; size = 4
??_GCEventLuaProxy@@UAEPAXI@Z PROC			; CEventLuaProxy::`scalar deleting destructor', COMDAT
; _this$ = ecx
  00000	55		 push	 ebp
  00001	8b ec		 mov	 ebp, esp
  00003	56		 push	 esi
  00004	8b f1		 mov	 esi, ecx
  00006	e8 00 00 00 00	 call	 ??1CEventLuaProxy@@UAE@XZ ; CEventLuaProxy::~CEventLuaProxy
  0000b	f6 45 08 01	 test	 BYTE PTR ___flags$[ebp], 1
  0000f	74 0b		 je	 SHORT $LN5@scalar
  00011	6a 40		 push	 64			; 00000040H
  00013	56		 push	 esi
  00014	e8 00 00 00 00	 call	 ??3@YAXPAXI@Z		; operator delete
  00019	83 c4 08	 add	 esp, 8
$LN5@scalar:
  0001c	8b c6		 mov	 eax, esi
  0001e	5e		 pop	 esi
  0001f	5d		 pop	 ebp
  00020	c2 04 00	 ret	 4
??_GCEventLuaProxy@@UAEPAXI@Z ENDP			; CEventLuaProxy::`scalar deleting destructor'
_TEXT	ENDS
; Function compile flags: /Ogtp
; File C:\Program Files\Microsoft Visual Studio\2022\Professional\VC\Tools\MSVC\14.44.35207\include\vector
;	COMDAT ?_Xlength@?$vector@EV?$allocator@E@std@@@std@@CAXXZ
_TEXT	SEGMENT
?_Xlength@?$vector@EV?$allocator@E@std@@@std@@CAXXZ PROC ; std::vector<unsigned char,std::allocator<unsigned char> >::_Xlength, COMDAT

; 2184 :         _Xlength_error("vector too long");

  00000	68 00 00 00 00	 push	 OFFSET ??_C@_0BA@FOIKENOD@vector?5too?5long@
  00005	e8 00 00 00 00	 call	 ?_Xlength_error@std@@YAXPBD@Z ; std::_Xlength_error
$LN3@Xlength:
  0000a	cc		 int	 3
?_Xlength@?$vector@EV?$allocator@E@std@@@std@@CAXXZ ENDP ; std::vector<unsigned char,std::allocator<unsigned char> >::_Xlength
_TEXT	ENDS
; Function compile flags: /Ogtp
; File C:\Program Files\Microsoft Visual Studio\2022\Professional\VC\Tools\MSVC\14.44.35207\include\vector
; File C:\Program Files\Microsoft Visual Studio\2022\Professional\VC\Tools\MSVC\14.44.35207\include\xmemory
; File C:\Program Files\Microsoft Visual Studio\2022\Professional\VC\Tools\MSVC\14.44.35207\include\vector
; File C:\Program Files\Microsoft Visual Studio\2022\Professional\VC\Tools\MSVC\14.44.35207\include\xmemory
; File C:\Program Files\Microsoft Visual Studio\2022\Professional\VC\Tools\MSVC\14.44.35207\include\vector
; File C:\Program Files\Microsoft Visual Studio\2022\Professional\VC\Tools\MSVC\14.44.35207\include\xmemory
; File C:\Program Files\Microsoft Visual Studio\2022\Professional\VC\Tools\MSVC\14.44.35207\include\vector
;	COMDAT ?_Tidy@?$vector@EV?$allocator@E@std@@@std@@AAEXXZ
_TEXT	SEGMENT
?_Tidy@?$vector@EV?$allocator@E@std@@@std@@AAEXXZ PROC	; std::vector<unsigned char,std::allocator<unsigned char> >::_Tidy, COMDAT
; _this$ = ecx

; 2081 :     _CONSTEXPR20 void _Tidy() noexcept { // free all storage

  00000	56		 push	 esi
  00001	8b f1		 mov	 esi, ecx

; 2082 :         auto& _Al         = _Getal();
; 2083 :         auto& _My_data    = _Mypair._Myval2;
; 2084 :         pointer& _Myfirst = _My_data._Myfirst;
; 2085 :         pointer& _Mylast  = _My_data._Mylast;
; 2086 :         pointer& _Myend   = _My_data._Myend;
; 2087 : 
; 2088 :         _My_data._Orphan_all();
; 2089 : 
; 2090 :         if (_Myfirst) { // destroy and deallocate old array

  00003	8b 06		 mov	 eax, DWORD PTR [esi]
  00005	85 c0		 test	 eax, eax
  00007	74 3d		 je	 SHORT $LN2@Tidy

; 2091 :             _STD _Destroy_range(_Myfirst, _Mylast, _Al);
; 2092 :             _ASAN_VECTOR_REMOVE;
; 2093 :             _Al.deallocate(_Myfirst, static_cast<size_type>(_Myend - _Myfirst));

  00009	8b 4e 08	 mov	 ecx, DWORD PTR [esi+8]
  0000c	2b c8		 sub	 ecx, eax
; File C:\Program Files\Microsoft Visual Studio\2022\Professional\VC\Tools\MSVC\14.44.35207\include\xmemory

; 284  :         if (_Bytes >= _Big_allocation_threshold) {

  0000e	81 f9 00 10 00
	00		 cmp	 ecx, 4096		; 00001000H
  00014	72 12		 jb	 SHORT $LN15@Tidy

; 205  :     const uintptr_t _Ptr_container   = _Ptr_user[-1];

  00016	8b 50 fc	 mov	 edx, DWORD PTR [eax-4]
  00019	83 c1 23	 add	 ecx, 35			; 00000023H

; 206  : 
; 207  :     // If the following asserts, it likely means that we are performing
; 208  :     // an aligned delete on memory coming from an unaligned allocation.
; 209  :     _STL_ASSERT(_Ptr_user[-2] == _Big_allocation_sentinel, "invalid argument");
; 210  : 
; 211  :     // Extra paranoia on aligned allocation/deallocation; ensure _Ptr_container is
; 212  :     // in range [_Min_back_shift, _Non_user_size]
; 213  : #ifdef _DEBUG
; 214  :     constexpr uintptr_t _Min_back_shift = 2 * sizeof(void*);
; 215  : #else // ^^^ defined(_DEBUG) / !defined(_DEBUG) vvv
; 216  :     constexpr uintptr_t _Min_back_shift = sizeof(void*);
; 217  : #endif // ^^^ !defined(_DEBUG) ^^^
; 218  :     const uintptr_t _Back_shift = reinterpret_cast<uintptr_t>(_Ptr) - _Ptr_container;

  0001c	2b c2		 sub	 eax, edx

; 219  :     _STL_VERIFY(_Back_shift >= _Min_back_shift && _Back_shift <= _Non_user_size, "invalid argument");

  0001e	83 c0 fc	 add	 eax, -4			; fffffffcH
  00021	83 f8 1f	 cmp	 eax, 31			; 0000001fH
  00024	77 22		 ja	 SHORT $LN14@Tidy

; 220  :     _Ptr = reinterpret_cast<void*>(_Ptr_container);

  00026	8b c2		 mov	 eax, edx
$LN15@Tidy:

; 289  :         ::operator delete(_Ptr, _Bytes);

  00028	51		 push	 ecx
  00029	50		 push	 eax
  0002a	e8 00 00 00 00	 call	 ??3@YAXPAXI@Z		; operator delete
; File C:\Program Files\Microsoft Visual Studio\2022\Professional\VC\Tools\MSVC\14.44.35207\include\vector

; 2095 :             _Myfirst = nullptr;

  0002f	c7 06 00 00 00
	00		 mov	 DWORD PTR [esi], 0
; File C:\Program Files\Microsoft Visual Studio\2022\Professional\VC\Tools\MSVC\14.44.35207\include\xmemory

; 289  :         ::operator delete(_Ptr, _Bytes);

  00035	83 c4 08	 add	 esp, 8
; File C:\Program Files\Microsoft Visual Studio\2022\Professional\VC\Tools\MSVC\14.44.35207\include\vector

; 2096 :             _Mylast  = nullptr;

  00038	c7 46 04 00 00
	00 00		 mov	 DWORD PTR [esi+4], 0

; 2097 :             _Myend   = nullptr;

  0003f	c7 46 08 00 00
	00 00		 mov	 DWORD PTR [esi+8], 0
$LN2@Tidy:

; 2099 :     }

  00046	5e		 pop	 esi
  00047	c3		 ret	 0
$LN14@Tidy:
; File C:\Program Files\Microsoft Visual Studio\2022\Professional\VC\Tools\MSVC\14.44.35207\include\xmemory

; 219  :     _STL_VERIFY(_Back_shift >= _Min_back_shift && _Back_shift <= _Non_user_size, "invalid argument");

  00048	6a 00		 push	 0
  0004a	6a 00		 push	 0
  0004c	6a 00		 push	 0
  0004e	6a 00		 push	 0
  00050	6a 00		 push	 0
  00052	e8 00 00 00 00	 call	 __invoke_watson
$LN22@Tidy:
  00057	cc		 int	 3
?_Tidy@?$vector@EV?$allocator@E@std@@@std@@AAEXXZ ENDP	; std::vector<unsigned char,std::allocator<unsigned char> >::_Tidy
_TEXT	ENDS
; Function compile flags: /Ogtp
; File C:\Program Files\Microsoft Visual Studio\2022\Professional\VC\Tools\MSVC\14.44.35207\include\vector
; File C:\Program Files\Microsoft Visual Studio\2022\Professional\VC\Tools\MSVC\14.44.35207\include\xmemory
; File C:\Program Files\Microsoft Visual Studio\2022\Professional\VC\Tools\MSVC\14.44.35207\include\vector
; File C:\Program Files\Microsoft Visual Studio\2022\Professional\VC\Tools\MSVC\14.44.35207\include\xmemory
; File C:\Program Files\Microsoft Visual Studio\2022\Professional\VC\Tools\MSVC\14.44.35207\include\vector
;	COMDAT ?_Change_array@?$vector@EV?$allocator@E@std@@@std@@AAEXQAEII@Z
_TEXT	SEGMENT
__Newvec$ = 8						; size = 4
__Newsize$ = 12						; size = 4
__Newcapacity$ = 16					; size = 4
?_Change_array@?$vector@EV?$allocator@E@std@@@std@@AAEXQAEII@Z PROC ; std::vector<unsigned char,std::allocator<unsigned char> >::_Change_array, COMDAT
; _this$ = ecx

; 2059 :         const pointer _Newvec, const size_type _Newsize, const size_type _Newcapacity) noexcept {

  00000	55		 push	 ebp
  00001	8b ec		 mov	 ebp, esp
  00003	56		 push	 esi
  00004	8b f1		 mov	 esi, ecx

; 2060 :         // orphan all iterators, discard old array, acquire new array
; 2061 :         auto& _Al         = _Getal();
; 2062 :         auto& _My_data    = _Mypair._Myval2;
; 2063 :         pointer& _Myfirst = _My_data._Myfirst;
; 2064 :         pointer& _Mylast  = _My_data._Mylast;
; 2065 :         pointer& _Myend   = _My_data._Myend;
; 2066 : 
; 2067 :         _My_data._Orphan_all();
; 2068 : 
; 2069 :         if (_Myfirst) { // destroy and deallocate old array

  00006	8b 06		 mov	 eax, DWORD PTR [esi]
  00008	85 c0		 test	 eax, eax
  0000a	74 29		 je	 SHORT $LN10@Change_arr

; 2070 :             _STD _Destroy_range(_Myfirst, _Mylast, _Al);
; 2071 :             _ASAN_VECTOR_REMOVE;
; 2072 :             _Al.deallocate(_Myfirst, static_cast<size_type>(_Myend - _Myfirst));

  0000c	8b 4e 08	 mov	 ecx, DWORD PTR [esi+8]
  0000f	2b c8		 sub	 ecx, eax
; File C:\Program Files\Microsoft Visual Studio\2022\Professional\VC\Tools\MSVC\14.44.35207\include\xmemory

; 284  :         if (_Bytes >= _Big_allocation_threshold) {

  00011	81 f9 00 10 00
	00		 cmp	 ecx, 4096		; 00001000H
  00017	72 12		 jb	 SHORT $LN15@Change_arr

; 205  :     const uintptr_t _Ptr_container   = _Ptr_user[-1];

  00019	8b 50 fc	 mov	 edx, DWORD PTR [eax-4]
  0001c	83 c1 23	 add	 ecx, 35			; 00000023H

; 206  : 
; 207  :     // If the following asserts, it likely means that we are performing
; 208  :     // an aligned delete on memory coming from an unaligned allocation.
; 209  :     _STL_ASSERT(_Ptr_user[-2] == _Big_allocation_sentinel, "invalid argument");
; 210  : 
; 211  :     // Extra paranoia on aligned allocation/deallocation; ensure _Ptr_container is
; 212  :     // in range [_Min_back_shift, _Non_user_size]
; 213  : #ifdef _DEBUG
; 214  :     constexpr uintptr_t _Min_back_shift = 2 * sizeof(void*);
; 215  : #else // ^^^ defined(_DEBUG) / !defined(_DEBUG) vvv
; 216  :     constexpr uintptr_t _Min_back_shift = sizeof(void*);
; 217  : #endif // ^^^ !defined(_DEBUG) ^^^
; 218  :     const uintptr_t _Back_shift = reinterpret_cast<uintptr_t>(_Ptr) - _Ptr_container;

  0001f	2b c2		 sub	 eax, edx

; 219  :     _STL_VERIFY(_Back_shift >= _Min_back_shift && _Back_shift <= _Non_user_size, "invalid argument");

  00021	83 c0 fc	 add	 eax, -4			; fffffffcH
  00024	83 f8 1f	 cmp	 eax, 31			; 0000001fH
  00027	77 26		 ja	 SHORT $LN14@Change_arr

; 220  :     _Ptr = reinterpret_cast<void*>(_Ptr_container);

  00029	8b c2		 mov	 eax, edx
$LN15@Change_arr:

; 289  :         ::operator delete(_Ptr, _Bytes);

  0002b	51		 push	 ecx
  0002c	50		 push	 eax
  0002d	e8 00 00 00 00	 call	 ??3@YAXPAXI@Z		; operator delete
  00032	83 c4 08	 add	 esp, 8
$LN10@Change_arr:
; File C:\Program Files\Microsoft Visual Studio\2022\Professional\VC\Tools\MSVC\14.44.35207\include\vector

; 2075 :         _Myfirst = _Newvec;

  00035	8b 4d 08	 mov	 ecx, DWORD PTR __Newvec$[ebp]

; 2076 :         _Mylast  = _Newvec + _Newsize;

  00038	8b 45 0c	 mov	 eax, DWORD PTR __Newsize$[ebp]
  0003b	03 c1		 add	 eax, ecx
  0003d	89 0e		 mov	 DWORD PTR [esi], ecx
  0003f	89 46 04	 mov	 DWORD PTR [esi+4], eax

; 2077 :         _Myend   = _Newvec + _Newcapacity;

  00042	8b 45 10	 mov	 eax, DWORD PTR __Newcapacity$[ebp]
  00045	03 c1		 add	 eax, ecx
  00047	89 46 08	 mov	 DWORD PTR [esi+8], eax
  0004a	5e		 pop	 esi

; 2079 :     }

  0004b	5d		 pop	 ebp
  0004c	c2 0c 00	 ret	 12			; 0000000cH
$LN14@Change_arr:
; File C:\Program Files\Microsoft Visual Studio\2022\Professional\VC\Tools\MSVC\14.44.35207\include\xmemory

; 219  :     _STL_VERIFY(_Back_shift >= _Min_back_shift && _Back_shift <= _Non_user_size, "invalid argument");

  0004f	6a 00		 push	 0
  00051	6a 00		 push	 0
  00053	6a 00		 push	 0
  00055	6a 00		 push	 0
  00057	6a 00		 push	 0
  00059	e8 00 00 00 00	 call	 __invoke_watson
$LN22@Change_arr:
  0005e	cc		 int	 3
?_Change_array@?$vector@EV?$allocator@E@std@@@std@@AAEXQAEII@Z ENDP ; std::vector<unsigned char,std::allocator<unsigned char> >::_Change_array
_TEXT	ENDS
; Function compile flags: /Ogtp
; File C:\Program Files\Microsoft Visual Studio\2022\Professional\VC\Tools\MSVC\14.44.35207\include\vector
; File C:\Program Files\Microsoft Visual Studio\2022\Professional\VC\Tools\MSVC\14.44.35207\include\xmemory
; File C:\Program Files\Microsoft Visual Studio\2022\Professional\VC\Tools\MSVC\14.44.35207\include\vector
; File C:\Program Files\Microsoft Visual Studio\2022\Professional\VC\Tools\MSVC\14.44.35207\include\xmemory
; File C:\Program Files\Microsoft Visual Studio\2022\Professional\VC\Tools\MSVC\14.44.35207\include\vector
; File C:\Program Files\Microsoft Visual Studio\2022\Professional\VC\Tools\MSVC\14.44.35207\include\xmemory
; File C:\Program Files\Microsoft Visual Studio\2022\Professional\VC\Tools\MSVC\14.44.35207\include\vector
; File C:\Program Files\Microsoft Visual Studio\2022\Professional\VC\Tools\MSVC\14.44.35207\include\xmemory
; File C:\Program Files\Microsoft Visual Studio\2022\Professional\VC\Tools\MSVC\14.44.35207\include\vector
;	COMDAT ?_Buy_raw@?$vector@EV?$allocator@E@std@@@std@@AAEXI@Z
_TEXT	SEGMENT
__Newcapacity$ = 8					; size = 4
?_Buy_raw@?$vector@EV?$allocator@E@std@@@std@@AAEXI@Z PROC ; std::vector<unsigned char,std::allocator<unsigned char> >::_Buy_raw, COMDAT
; _this$ = ecx

; 2024 :     _CONSTEXPR20 void _Buy_raw(size_type _Newcapacity) {

  00000	55		 push	 ebp
  00001	8b ec		 mov	 ebp, esp
  00003	56		 push	 esi
; File C:\Program Files\Microsoft Visual Studio\2022\Professional\VC\Tools\MSVC\14.44.35207\include\xmemory

; 227  :     if (_Bytes == 0) {

  00004	8b 75 08	 mov	 esi, DWORD PTR __Newcapacity$[ebp]
; File C:\Program Files\Microsoft Visual Studio\2022\Professional\VC\Tools\MSVC\14.44.35207\include\vector

; 2024 :     _CONSTEXPR20 void _Buy_raw(size_type _Newcapacity) {

  00007	57		 push	 edi
  00008	8b f9		 mov	 edi, ecx
; File C:\Program Files\Microsoft Visual Studio\2022\Professional\VC\Tools\MSVC\14.44.35207\include\xmemory

; 227  :     if (_Bytes == 0) {

  0000a	85 f6		 test	 esi, esi
  0000c	75 12		 jne	 SHORT $LN8@Buy_raw

; 228  :         return nullptr;

  0000e	33 c0		 xor	 eax, eax
; File C:\Program Files\Microsoft Visual Studio\2022\Professional\VC\Tools\MSVC\14.44.35207\include\vector

; 2035 :         _Myfirst              = _Newvec;

  00010	89 07		 mov	 DWORD PTR [edi], eax

; 2036 :         _Mylast               = _Newvec;

  00012	89 47 04	 mov	 DWORD PTR [edi+4], eax

; 2037 :         _Myend                = _Newvec + _Newcapacity;

  00015	8b c6		 mov	 eax, esi
  00017	89 47 08	 mov	 DWORD PTR [edi+8], eax
  0001a	5f		 pop	 edi
  0001b	5e		 pop	 esi

; 2038 :     }

  0001c	5d		 pop	 ebp
  0001d	c2 04 00	 ret	 4
$LN8@Buy_raw:
; File C:\Program Files\Microsoft Visual Studio\2022\Professional\VC\Tools\MSVC\14.44.35207\include\xmemory

; 251  :         if (_Bytes >= _Big_allocation_threshold) {

  00020	56		 push	 esi
  00021	81 fe 00 10 00
	00		 cmp	 esi, 4096		; 00001000H
  00027	72 18		 jb	 SHORT $LN9@Buy_raw

; 252  :             // boost the alignment of big allocations to help autovectorization
; 253  :             return _Allocate_manually_vector_aligned<_Traits>(_Bytes);

  00029	e8 00 00 00 00	 call	 ??$_Allocate_manually_vector_aligned@U_Default_allocate_traits@std@@@std@@YAPAXI@Z ; std::_Allocate_manually_vector_aligned<std::_Default_allocate_traits>
; File C:\Program Files\Microsoft Visual Studio\2022\Professional\VC\Tools\MSVC\14.44.35207\include\vector

; 2035 :         _Myfirst              = _Newvec;

  0002e	89 07		 mov	 DWORD PTR [edi], eax
  00030	83 c4 04	 add	 esp, 4

; 2036 :         _Mylast               = _Newvec;

  00033	89 47 04	 mov	 DWORD PTR [edi+4], eax

; 2037 :         _Myend                = _Newvec + _Newcapacity;

  00036	03 c6		 add	 eax, esi
  00038	89 47 08	 mov	 DWORD PTR [edi+8], eax
  0003b	5f		 pop	 edi
  0003c	5e		 pop	 esi

; 2038 :     }

  0003d	5d		 pop	 ebp
  0003e	c2 04 00	 ret	 4
$LN9@Buy_raw:
; File C:\Program Files\Microsoft Visual Studio\2022\Professional\VC\Tools\MSVC\14.44.35207\include\xmemory

; 136  :         return ::operator new(_Bytes);

  00041	e8 00 00 00 00	 call	 ??2@YAPAXI@Z		; operator new
; File C:\Program Files\Microsoft Visual Studio\2022\Professional\VC\Tools\MSVC\14.44.35207\include\vector

; 2035 :         _Myfirst              = _Newvec;

  00046	89 07		 mov	 DWORD PTR [edi], eax
  00048	83 c4 04	 add	 esp, 4

; 2036 :         _Mylast               = _Newvec;

  0004b	89 47 04	 mov	 DWORD PTR [edi+4], eax

; 2037 :         _Myend                = _Newvec + _Newcapacity;

  0004e	03 c6		 add	 eax, esi
  00050	89 47 08	 mov	 DWORD PTR [edi+8], eax
  00053	5f		 pop	 edi
  00054	5e		 pop	 esi

; 2038 :     }

  00055	5d		 pop	 ebp
  00056	c2 04 00	 ret	 4
?_Buy_raw@?$vector@EV?$allocator@E@std@@@std@@AAEXI@Z ENDP ; std::vector<unsigned char,std::allocator<unsigned char> >::_Buy_raw
_TEXT	ENDS
; Function compile flags: /Ogtp
; File C:\Program Files\Microsoft Visual Studio\2022\Professional\VC\Tools\MSVC\14.44.35207\include\vector
; File C:\Program Files\Microsoft Visual Studio\2022\Professional\VC\Tools\MSVC\14.44.35207\include\xmemory
; File C:\Program Files\Microsoft Visual Studio\2022\Professional\VC\Tools\MSVC\14.44.35207\include\vector
; File C:\Program Files\Microsoft Visual Studio\2022\Professional\VC\Tools\MSVC\14.44.35207\include\xmemory
; File C:\Program Files\Microsoft Visual Studio\2022\Professional\VC\Tools\MSVC\14.44.35207\include\vector
; File C:\Program Files\Microsoft Visual Studio\2022\Professional\VC\Tools\MSVC\14.44.35207\include\xmemory
; File C:\Program Files\Microsoft Visual Studio\2022\Professional\VC\Tools\MSVC\14.44.35207\include\vector
; File C:\Program Files\Microsoft Visual Studio\2022\Professional\VC\Tools\MSVC\14.44.35207\include\xmemory
; File C:\Program Files\Microsoft Visual Studio\2022\Professional\VC\Tools\MSVC\14.44.35207\include\vector
; File C:\Program Files\Microsoft Visual Studio\2022\Professional\VC\Tools\MSVC\14.44.35207\include\xmemory
; File C:\Program Files\Microsoft Visual Studio\2022\Professional\VC\Tools\MSVC\14.44.35207\include\vector
; File C:\Program Files\Microsoft Visual Studio\2022\Professional\VC\Tools\MSVC\14.44.35207\include\xmemory
; File C:\Program Files\Microsoft Visual Studio\2022\Professional\VC\Tools\MSVC\14.44.35207\include\vector
;	COMDAT ?push_back@?$vector@EV?$allocator@E@std@@@std@@QAEXABE@Z
_TEXT	SEGMENT
__Newsize$1$ = -16					; size = 4
__Oldsize$1$ = -12					; size = 4
tv580 = -12						; size = 4
tv597 = -8						; size = 4
__Whereptr$1$ = -4					; size = 4
__Val$ = 8						; size = 4
?push_back@?$vector@EV?$allocator@E@std@@@std@@QAEXABE@Z PROC ; std::vector<unsigned char,std::allocator<unsigned char> >::push_back, COMDAT
; _this$ = ecx

; 932  :     _CONSTEXPR20 void push_back(const _Ty& _Val) { // insert element at end, provide strong guarantee

  00000	55		 push	 ebp
  00001	8b ec		 mov	 ebp, esp
  00003	83 ec 10	 sub	 esp, 16			; 00000010H
  00006	56		 push	 esi
  00007	8b f1		 mov	 esi, ecx
  00009	57		 push	 edi

; 844  :         if (_Mylast != _My_data._Myend) {

  0000a	8b 4e 04	 mov	 ecx, DWORD PTR [esi+4]
  0000d	8b 56 08	 mov	 edx, DWORD PTR [esi+8]
  00010	89 4d fc	 mov	 DWORD PTR __Whereptr$1$[ebp], ecx
  00013	3b ca		 cmp	 ecx, edx
  00015	74 12		 je	 SHORT $LN4@push_back

; 860  :             _STD _Construct_in_place(*_Mylast, _STD forward<_Valty>(_Val)...);

  00017	8b 45 08	 mov	 eax, DWORD PTR __Val$[ebp]
  0001a	8a 00		 mov	 al, BYTE PTR [eax]
  0001c	88 01		 mov	 BYTE PTR [ecx], al

; 861  :         } else {
; 862  :             _ASAN_VECTOR_EXTEND_GUARD(static_cast<size_type>(_Mylast - _My_data._Myfirst) + 1);
; 863  :             _Alty_traits::construct(_Getal(), _Unfancy(_Mylast), _STD forward<_Valty>(_Val)...);
; 864  :             _ASAN_VECTOR_RELEASE_GUARD;
; 865  :         }
; 866  : 
; 867  :         _Orphan_range(_Mylast, _Mylast);
; 868  :         _Ty& _Result = *_Mylast;
; 869  :         ++_Mylast;

  0001e	ff 46 04	 inc	 DWORD PTR [esi+4]

; 933  :         _Emplace_one_at_back(_Val);
; 934  :     }

  00021	5f		 pop	 edi
  00022	5e		 pop	 esi
  00023	8b e5		 mov	 esp, ebp
  00025	5d		 pop	 ebp
  00026	c2 04 00	 ret	 4
$LN4@push_back:

; 884  :         const auto _Whereoff = static_cast<size_type>(_Whereptr - _Myfirst);

  00029	8b 3e		 mov	 edi, DWORD PTR [esi]
  0002b	8b c1		 mov	 eax, ecx
  0002d	2b c7		 sub	 eax, edi
  0002f	89 45 f4	 mov	 DWORD PTR __Oldsize$1$[ebp], eax

; 885  :         const auto _Oldsize  = static_cast<size_type>(_Mylast - _Myfirst);
; 886  : 
; 887  :         if (_Oldsize == max_size()) {

  00032	3d ff ff ff 7f	 cmp	 eax, 2147483647		; 7fffffffH
  00037	0f 84 a7 00 00
	00		 je	 $LN94@push_back

; 1924 :         return static_cast<size_type>(_My_data._Myend - _My_data._Myfirst);

  0003d	2b d7		 sub	 edx, edi
  0003f	53		 push	 ebx

; 891  :         const size_type _Newsize = _Oldsize + 1;

  00040	8d 58 01	 lea	 ebx, DWORD PTR [eax+1]

; 2011 :         if (_Oldcapacity > _Max - _Oldcapacity / 2) {

  00043	8b fa		 mov	 edi, edx
  00045	d1 ef		 shr	 edi, 1
  00047	b8 ff ff ff 7f	 mov	 eax, 2147483647		; 7fffffffH
  0004c	2b c7		 sub	 eax, edi

; 891  :         const size_type _Newsize = _Oldsize + 1;

  0004e	89 5d f0	 mov	 DWORD PTR __Newsize$1$[ebp], ebx

; 2011 :         if (_Oldcapacity > _Max - _Oldcapacity / 2) {

  00051	3b d0		 cmp	 edx, eax
  00053	76 0d		 jbe	 SHORT $LN15@push_back

; 2012 :             return _Max; // geometric growth would overflow

  00055	bf ff ff ff 7f	 mov	 edi, 2147483647		; 7fffffffH
; File C:\Program Files\Microsoft Visual Studio\2022\Professional\VC\Tools\MSVC\14.44.35207\include\xmemory

; 253  :             return _Allocate_manually_vector_aligned<_Traits>(_Bytes);

  0005a	57		 push	 edi
  0005b	e8 00 00 00 00	 call	 ??$_Allocate_manually_vector_aligned@U_Default_allocate_traits@std@@@std@@YAPAXI@Z ; std::_Allocate_manually_vector_aligned<std::_Default_allocate_traits>
  00060	eb 29		 jmp	 SHORT $LN92@push_back
$LN15@push_back:
; File C:\Program Files\Microsoft Visual Studio\2022\Professional\VC\Tools\MSVC\14.44.35207\include\vector

; 2015 :         const size_type _Geometric = _Oldcapacity + _Oldcapacity / 2;

  00062	8d 04 17	 lea	 eax, DWORD PTR [edi+edx]
; File C:\Program Files\Microsoft Visual Studio\2022\Professional\VC\Tools\MSVC\14.44.35207\include\xmemory

; 227  :     if (_Bytes == 0) {

  00065	8b fb		 mov	 edi, ebx
  00067	3b c3		 cmp	 eax, ebx
  00069	0f 43 f8	 cmovae	 edi, eax
  0006c	8b c7		 mov	 eax, edi
  0006e	85 ff		 test	 edi, edi
  00070	75 04		 jne	 SHORT $LN26@push_back

; 228  :         return nullptr;

  00072	33 db		 xor	 ebx, ebx
  00074	eb 1d		 jmp	 SHORT $LN25@push_back
$LN26@push_back:

; 229  :     }
; 230  : 
; 231  : #if _HAS_CXX20 // TRANSITION, GH-1532
; 232  :     if (_STD is_constant_evaluated()) {
; 233  :         return _Traits::_Allocate(_Bytes);
; 234  :     }
; 235  : #endif // _HAS_CXX20
; 236  : 
; 237  : #ifdef __cpp_aligned_new
; 238  :     if constexpr (_Align > __STDCPP_DEFAULT_NEW_ALIGNMENT__) {
; 239  :         size_t _Passed_align = _Align;
; 240  : #if defined(_M_IX86) || defined(_M_X64)
; 241  :         if (_Bytes >= _Big_allocation_threshold) {
; 242  :             // boost the alignment of big allocations to help autovectorization
; 243  :             _Passed_align = (_STD max)(_Align, _Big_allocation_alignment);
; 244  :         }
; 245  : #endif // defined(_M_IX86) || defined(_M_X64)
; 246  :         return _Traits::_Allocate_aligned(_Bytes, _Passed_align);
; 247  :     } else
; 248  : #endif // defined(__cpp_aligned_new)
; 249  :     {
; 250  : #if defined(_M_IX86) || defined(_M_X64)
; 251  :         if (_Bytes >= _Big_allocation_threshold) {

  00076	3d 00 10 00 00	 cmp	 eax, 4096		; 00001000H
  0007b	72 08		 jb	 SHORT $LN27@push_back

; 253  :             return _Allocate_manually_vector_aligned<_Traits>(_Bytes);

  0007d	57		 push	 edi
  0007e	e8 00 00 00 00	 call	 ??$_Allocate_manually_vector_aligned@U_Default_allocate_traits@std@@@std@@YAPAXI@Z ; std::_Allocate_manually_vector_aligned<std::_Default_allocate_traits>
  00083	eb 06		 jmp	 SHORT $LN92@push_back
$LN27@push_back:

; 136  :         return ::operator new(_Bytes);

  00085	50		 push	 eax
  00086	e8 00 00 00 00	 call	 ??2@YAPAXI@Z		; operator new
$LN92@push_back:
; File C:\Program Files\Microsoft Visual Studio\2022\Professional\VC\Tools\MSVC\14.44.35207\include\vector

; 900  :         _Alty_traits::construct(_Al, _STD _Unfancy(_Newvec + _Whereoff), _STD forward<_Valty>(_Val)...);

  0008b	8b 4d fc	 mov	 ecx, DWORD PTR __Whereptr$1$[ebp]
  0008e	8b d8		 mov	 ebx, eax
  00090	83 c4 04	 add	 esp, 4
$LN25@push_back:
  00093	8b 55 f4	 mov	 edx, DWORD PTR __Oldsize$1$[ebp]
  00096	8b 45 08	 mov	 eax, DWORD PTR __Val$[ebp]
  00099	03 d3		 add	 edx, ebx
  0009b	89 55 f4	 mov	 DWORD PTR tv580[ebp], edx
  0009e	8a 00		 mov	 al, BYTE PTR [eax]
  000a0	88 02		 mov	 BYTE PTR [edx], al

; 901  :         _Constructed_first = _Newvec + _Whereoff;
; 902  : 
; 903  :         if (_Whereptr == _Mylast) { // at back, provide strong guarantee

  000a2	8b 46 04	 mov	 eax, DWORD PTR [esi+4]
  000a5	8b 16		 mov	 edx, DWORD PTR [esi]
  000a7	3b c8		 cmp	 ecx, eax
  000a9	75 04		 jne	 SHORT $LN10@push_back
; File C:\Program Files\Microsoft Visual Studio\2022\Professional\VC\Tools\MSVC\14.44.35207\include\xmemory

; 1992 :             _STD _Copy_memmove(_UFirst, _ULast, _STD _Unfancy(_Dest));

  000ab	8b cb		 mov	 ecx, ebx
; File C:\Program Files\Microsoft Visual Studio\2022\Professional\VC\Tools\MSVC\14.44.35207\include\vector

; 909  :         } else { // provide basic guarantee

  000ad	eb 15		 jmp	 SHORT $LN53@push_back
$LN10@push_back:
; File C:\Program Files\Microsoft Visual Studio\2022\Professional\VC\Tools\MSVC\14.44.35207\include\xmemory

; 1992 :             _STD _Copy_memmove(_UFirst, _ULast, _STD _Unfancy(_Dest));

  000af	53		 push	 ebx
  000b0	51		 push	 ecx
  000b1	52		 push	 edx
  000b2	e8 00 00 00 00	 call	 ??$_Copy_memmove@PAEPAE@std@@YAPAEPAE00@Z ; std::_Copy_memmove<unsigned char *,unsigned char *>
; File C:\Program Files\Microsoft Visual Studio\2022\Professional\VC\Tools\MSVC\14.44.35207\include\vector

; 912  :             _STD _Uninitialized_move(_Whereptr, _Mylast, _Newvec + _Whereoff + 1, _Al);

  000b7	8b 4d f4	 mov	 ecx, DWORD PTR tv580[ebp]
; File C:\Program Files\Microsoft Visual Studio\2022\Professional\VC\Tools\MSVC\14.44.35207\include\xmemory

; 1992 :             _STD _Copy_memmove(_UFirst, _ULast, _STD _Unfancy(_Dest));

  000ba	83 c4 0c	 add	 esp, 12			; 0000000cH
  000bd	8b 55 fc	 mov	 edx, DWORD PTR __Whereptr$1$[ebp]
; File C:\Program Files\Microsoft Visual Studio\2022\Professional\VC\Tools\MSVC\14.44.35207\include\vector

; 912  :             _STD _Uninitialized_move(_Whereptr, _Mylast, _Newvec + _Whereoff + 1, _Al);

  000c0	41		 inc	 ecx
; File C:\Program Files\Microsoft Visual Studio\2022\Professional\VC\Tools\MSVC\14.44.35207\include\xmemory

; 1992 :             _STD _Copy_memmove(_UFirst, _ULast, _STD _Unfancy(_Dest));

  000c1	8b 46 04	 mov	 eax, DWORD PTR [esi+4]
$LN53@push_back:
; File C:\Program Files\Microsoft Visual Studio\2022\Professional\VC\Tools\MSVC\14.44.35207\include\vector

; 915  :         _Guard._New_begin = nullptr;

  000c4	51		 push	 ecx
  000c5	50		 push	 eax
  000c6	52		 push	 edx
  000c7	e8 00 00 00 00	 call	 ??$_Copy_memmove@PAEPAE@std@@YAPAEPAE00@Z ; std::_Copy_memmove<unsigned char *,unsigned char *>
  000cc	83 c4 0c	 add	 esp, 12			; 0000000cH

; 916  :         _Change_array(_Newvec, _Newsize, _Newcapacity);

  000cf	8b ce		 mov	 ecx, esi
  000d1	57		 push	 edi
  000d2	ff 75 f0	 push	 DWORD PTR __Newsize$1$[ebp]
  000d5	53		 push	 ebx
  000d6	e8 00 00 00 00	 call	 ?_Change_array@?$vector@EV?$allocator@E@std@@@std@@AAEXQAEII@Z ; std::vector<unsigned char,std::allocator<unsigned char> >::_Change_array
  000db	5b		 pop	 ebx

; 933  :         _Emplace_one_at_back(_Val);
; 934  :     }

  000dc	5f		 pop	 edi
  000dd	5e		 pop	 esi
  000de	8b e5		 mov	 esp, ebp
  000e0	5d		 pop	 ebp
  000e1	c2 04 00	 ret	 4
$LN94@push_back:

; 888  :             _Xlength();

  000e4	e8 00 00 00 00	 call	 ?_Xlength@?$vector@EV?$allocator@E@std@@@std@@CAXXZ ; std::vector<unsigned char,std::allocator<unsigned char> >::_Xlength
$LN91@push_back:
  000e9	cc		 int	 3
?push_back@?$vector@EV?$allocator@E@std@@@std@@QAEXABE@Z ENDP ; std::vector<unsigned char,std::allocator<unsigned char> >::push_back
_TEXT	ENDS
; Function compile flags: /Ogtp
; File C:\Program Files\Microsoft Visual Studio\2022\Professional\VC\Tools\MSVC\14.44.35207\include\vector
;	COMDAT ??1?$vector@EV?$allocator@E@std@@@std@@QAE@XZ
_TEXT	SEGMENT
??1?$vector@EV?$allocator@E@std@@@std@@QAE@XZ PROC	; std::vector<unsigned char,std::allocator<unsigned char> >::~vector<unsigned char,std::allocator<unsigned char> >, COMDAT
; _this$ = ecx

; 830  :         _Tidy();

  00000	e9 00 00 00 00	 jmp	 ?_Tidy@?$vector@EV?$allocator@E@std@@@std@@AAEXXZ ; std::vector<unsigned char,std::allocator<unsigned char> >::_Tidy
??1?$vector@EV?$allocator@E@std@@@std@@QAE@XZ ENDP	; std::vector<unsigned char,std::allocator<unsigned char> >::~vector<unsigned char,std::allocator<unsigned char> >
_TEXT	ENDS
; Function compile flags: /Ogtp
; File C:\Program Files\Microsoft Visual Studio\2022\Professional\VC\Tools\MSVC\14.44.35207\include\xmemory
;	COMDAT ?deallocate@?$allocator@E@std@@QAEXQAEI@Z
_TEXT	SEGMENT
__Ptr$ = 8						; size = 4
__Count$ = 12						; size = 4
?deallocate@?$allocator@E@std@@QAEXQAEI@Z PROC		; std::allocator<unsigned char>::deallocate, COMDAT
; _this$ = ecx

; 982  :     _CONSTEXPR20 void deallocate(_Ty* const _Ptr, const size_t _Count) noexcept /* strengthened */ {

  00000	55		 push	 ebp
  00001	8b ec		 mov	 ebp, esp

; 983  :         _STL_ASSERT(_Ptr != nullptr || _Count == 0, "null pointer cannot point to a block of non-zero size");
; 984  :         // no overflow check on the following multiply; we assume _Allocate did that check
; 985  :         _STD _Deallocate<_New_alignof<_Ty>>(_Ptr, sizeof(_Ty) * _Count);

  00003	8b 4d 0c	 mov	 ecx, DWORD PTR __Count$[ebp]
  00006	8b 45 08	 mov	 eax, DWORD PTR __Ptr$[ebp]

; 284  :         if (_Bytes >= _Big_allocation_threshold) {

  00009	81 f9 00 10 00
	00		 cmp	 ecx, 4096		; 00001000H
  0000f	72 12		 jb	 SHORT $LN11@deallocate

; 205  :     const uintptr_t _Ptr_container   = _Ptr_user[-1];

  00011	8b 50 fc	 mov	 edx, DWORD PTR [eax-4]
  00014	83 c1 23	 add	 ecx, 35			; 00000023H

; 206  : 
; 207  :     // If the following asserts, it likely means that we are performing
; 208  :     // an aligned delete on memory coming from an unaligned allocation.
; 209  :     _STL_ASSERT(_Ptr_user[-2] == _Big_allocation_sentinel, "invalid argument");
; 210  : 
; 211  :     // Extra paranoia on aligned allocation/deallocation; ensure _Ptr_container is
; 212  :     // in range [_Min_back_shift, _Non_user_size]
; 213  : #ifdef _DEBUG
; 214  :     constexpr uintptr_t _Min_back_shift = 2 * sizeof(void*);
; 215  : #else // ^^^ defined(_DEBUG) / !defined(_DEBUG) vvv
; 216  :     constexpr uintptr_t _Min_back_shift = sizeof(void*);
; 217  : #endif // ^^^ !defined(_DEBUG) ^^^
; 218  :     const uintptr_t _Back_shift = reinterpret_cast<uintptr_t>(_Ptr) - _Ptr_container;

  00017	2b c2		 sub	 eax, edx

; 219  :     _STL_VERIFY(_Back_shift >= _Min_back_shift && _Back_shift <= _Non_user_size, "invalid argument");

  00019	83 c0 fc	 add	 eax, -4			; fffffffcH
  0001c	83 f8 1f	 cmp	 eax, 31			; 0000001fH
  0001f	77 10		 ja	 SHORT $LN10@deallocate

; 220  :     _Ptr = reinterpret_cast<void*>(_Ptr_container);

  00021	8b c2		 mov	 eax, edx
$LN11@deallocate:

; 289  :         ::operator delete(_Ptr, _Bytes);

  00023	51		 push	 ecx
  00024	50		 push	 eax
  00025	e8 00 00 00 00	 call	 ??3@YAXPAXI@Z		; operator delete
  0002a	83 c4 08	 add	 esp, 8

; 986  :     }

  0002d	5d		 pop	 ebp
  0002e	c2 08 00	 ret	 8
$LN10@deallocate:

; 219  :     _STL_VERIFY(_Back_shift >= _Min_back_shift && _Back_shift <= _Non_user_size, "invalid argument");

  00031	6a 00		 push	 0
  00033	6a 00		 push	 0
  00035	6a 00		 push	 0
  00037	6a 00		 push	 0
  00039	6a 00		 push	 0
  0003b	e8 00 00 00 00	 call	 __invoke_watson
$LN14@deallocate:
  00040	cc		 int	 3
?deallocate@?$allocator@E@std@@QAEXQAEI@Z ENDP		; std::allocator<unsigned char>::deallocate
_TEXT	ENDS
; Function compile flags: /Ogtp
; File C:\IAGOS\server\v18\Source\Source\_Common\EventLua.cpp
; File C:\Program Files\Microsoft Visual Studio\2022\Professional\VC\Tools\MSVC\14.44.35207\include\vector
; File C:\Program Files\Microsoft Visual Studio\2022\Professional\VC\Tools\MSVC\14.44.35207\include\xutility
; File C:\Program Files\Microsoft Visual Studio\2022\Professional\VC\Tools\MSVC\14.44.35207\include\vector
; File C:\Program Files\Microsoft Visual Studio\2022\Professional\VC\Tools\MSVC\14.44.35207\include\xutility
; File C:\Program Files\Microsoft Visual Studio\2022\Professional\VC\Tools\MSVC\14.44.35207\include\vector
; File C:\IAGOS\server\v18\Source\Source\_Common\EventLua.cpp
; File C:\Program Files\Microsoft Visual Studio\2022\Professional\VC\Tools\MSVC\14.44.35207\include\vector
; File C:\Program Files\Microsoft Visual Studio\2022\Professional\VC\Tools\MSVC\14.44.35207\include\xmemory
; File C:\Program Files\Microsoft Visual Studio\2022\Professional\VC\Tools\MSVC\14.44.35207\include\vector
; File C:\Program Files\Microsoft Visual Studio\2022\Professional\VC\Tools\MSVC\14.44.35207\include\xmemory
; File C:\Program Files\Microsoft Visual Studio\2022\Professional\VC\Tools\MSVC\14.44.35207\include\vector
; File C:\Program Files\Microsoft Visual Studio\2022\Professional\VC\Tools\MSVC\14.44.35207\include\xutility
; File C:\Program Files\Microsoft Visual Studio\2022\Professional\VC\Tools\MSVC\14.44.35207\include\vector
; File C:\Program Files\Microsoft Visual Studio\2022\Professional\VC\Tools\MSVC\14.44.35207\include\xutility
; File C:\Program Files\Microsoft Visual Studio\2022\Professional\VC\Tools\MSVC\14.44.35207\include\vector
; File C:\IAGOS\server\v18\Source\Source\_Common\EventLua.cpp
; File C:\Program Files\Microsoft Visual Studio\2022\Professional\VC\Tools\MSVC\14.44.35207\include\vector
; File C:\IAGOS\server\v18\Source\Source\_Common\EventLua.cpp
; File C:\Program Files\Microsoft Visual Studio\2022\Professional\VC\Tools\MSVC\14.44.35207\include\vector
; File C:\IAGOS\server\v18\Source\Source\_Common\EventLua.cpp
; File C:\IAGOS\server\v18\Source\Source\_Common\EventLua.h
; File C:\IAGOS\server\v18\Source\Source\_Common\EventLua.cpp
; File C:\IAGOS\server\v18\Source\Source\_Common\EventLua.h
; File C:\IAGOS\server\v18\Source\Source\_Common\EventLua.cpp
; File C:\IAGOS\server\v18\Source\Source\_Common\EventLua.h
; File C:\IAGOS\server\v18\Source\Source\_Common\EventLua.cpp
; File C:\IAGOS\server\v18\Source\Source\_Common\EventLua.h
; File C:\IAGOS\server\v18\Source\Source\_Common\EventLua.cpp
; File C:\IAGOS\server\v18\Source\Source\_Common\EventLua.h
; File C:\IAGOS\server\v18\Source\Source\_Common\EventLua.cpp
; File C:\IAGOS\server\v18\Source\Source\_Common\EventLua.h
; File C:\IAGOS\server\v18\Source\Source\_Common\EventLua.cpp
; File C:\IAGOS\server\v18\Source\Source\_Common\EventLua.h
; File C:\IAGOS\server\v18\Source\Source\_Common\EventLua.cpp
; File C:\IAGOS\server\v18\Source\Source\_Common\EventLua.h
; File C:\IAGOS\server\v18\Source\Source\_Common\EventLua.cpp
; File C:\IAGOS\server\v18\Source\Source\_Common\EventLua.h
; File C:\IAGOS\server\v18\Source\Source\_Common\EventLua.cpp
; File C:\IAGOS\server\v18\Source\Source\_Common\EventLua.h
; File C:\IAGOS\server\v18\Source\Source\_Common\EventLua.cpp
; File C:\IAGOS\server\v18\Source\Source\_Common\EventLua.h
; File C:\IAGOS\server\v18\Source\Source\_Common\EventLua.cpp
; File C:\IAGOS\server\v18\Source\Source\_Common\EventLua.h
; File C:\IAGOS\server\v18\Source\Source\_Common\EventLua.cpp
; File C:\IAGOS\server\v18\Source\Source\_Common\EventLua.h
; File C:\IAGOS\server\v18\Source\Source\_Common\EventLua.cpp
; File C:\Program Files\Microsoft Visual Studio\2022\Professional\VC\Tools\MSVC\14.44.35207\include\vector
; File C:\IAGOS\server\v18\Source\Source\_Common\EventLua.cpp
;	COMDAT ?Initialize@CEventLuaProxy@@QAEXPAVCEventLua@@@Z
_TEXT	SEGMENT
$T2 = -36						; size = 12
_this$1$ = -24						; size = 4
__First$1$ = -20					; size = 4
__Oldsize$1$ = -16					; size = 4
$T3 = -16						; size = 4
__$EHRec$ = -12						; size = 12
_pEventLua$ = 8						; size = 4
?Initialize@CEventLuaProxy@@QAEXPAVCEventLua@@@Z PROC	; CEventLuaProxy::Initialize, COMDAT
; _this$ = ecx

; 1108 : {

  00000	55		 push	 ebp
  00001	8b ec		 mov	 ebp, esp
  00003	6a ff		 push	 -1
  00005	68 00 00 00 00	 push	 __ehhandler$?Initialize@CEventLuaProxy@@QAEXPAVCEventLua@@@Z
  0000a	64 a1 00 00 00
	00		 mov	 eax, DWORD PTR fs:0
  00010	50		 push	 eax
  00011	83 ec 18	 sub	 esp, 24			; 00000018H
  00014	53		 push	 ebx
  00015	56		 push	 esi
  00016	57		 push	 edi
  00017	a1 00 00 00 00	 mov	 eax, DWORD PTR ___security_cookie
  0001c	33 c5		 xor	 eax, ebp
  0001e	50		 push	 eax
  0001f	8d 45 f4	 lea	 eax, DWORD PTR __$EHRec$[ebp]
  00022	64 a3 00 00 00
	00		 mov	 DWORD PTR fs:0, eax
  00028	8b d9		 mov	 ebx, ecx
  0002a	89 5d e8	 mov	 DWORD PTR _this$1$[ebp], ebx

; 1109 : 	OutputDebugString( "\nCEventLuaProxy::Initialize\n" );

  0002d	68 00 00 00 00	 push	 OFFSET ??_C@_0BN@IAMDMCDM@?6CEventLuaProxy?3?3Initialize?6@
  00032	ff 15 00 00 00
	00		 call	 DWORD PTR __imp__OutputDebugStringA@4

; 1110 : 	SetEventList( pEventLua->GetEventList( FALSE ) );

  00038	8b 4d 08	 mov	 ecx, DWORD PTR _pEventLua$[ebp]
  0003b	8d 45 dc	 lea	 eax, DWORD PTR $T2[ebp]
  0003e	6a 00		 push	 0
  00040	50		 push	 eax
  00041	e8 00 00 00 00	 call	 ?GetEventList@CEventLua@@QAE?AV?$vector@EV?$allocator@E@std@@@std@@H@Z ; CEventLua::GetEventList
; File C:\Program Files\Microsoft Visual Studio\2022\Professional\VC\Tools\MSVC\14.44.35207\include\vector

; 46   :     _CONSTEXPR20 _Vector_const_iterator(_Tptr _Parg, const _Container_base* _Pvector) noexcept : _Ptr(_Parg) {

  00046	8b 10		 mov	 edx, DWORD PTR [eax]
; File C:\Program Files\Microsoft Visual Studio\2022\Professional\VC\Tools\MSVC\14.44.35207\include\xutility

; 1662 :         return _Last - _First; // assume the iterator will do debug checking

  00048	8b 78 04	 mov	 edi, DWORD PTR [eax+4]
; File C:\Program Files\Microsoft Visual Studio\2022\Professional\VC\Tools\MSVC\14.44.35207\include\vector

; 1432 :         const auto _Oldcapacity = static_cast<size_type>(_Myend - _Myfirst);

  0004b	8b 73 0c	 mov	 esi, DWORD PTR [ebx+12]
; File C:\Program Files\Microsoft Visual Studio\2022\Professional\VC\Tools\MSVC\14.44.35207\include\xutility

; 1662 :         return _Last - _First; // assume the iterator will do debug checking

  0004e	2b fa		 sub	 edi, edx
; File C:\Program Files\Microsoft Visual Studio\2022\Professional\VC\Tools\MSVC\14.44.35207\include\vector

; 1432 :         const auto _Oldcapacity = static_cast<size_type>(_Myend - _Myfirst);

  00050	8b 4b 04	 mov	 ecx, DWORD PTR [ebx+4]
  00053	2b f1		 sub	 esi, ecx
; File C:\IAGOS\server\v18\Source\Source\_Common\EventLua.cpp

; 1110 : 	SetEventList( pEventLua->GetEventList( FALSE ) );

  00055	c7 45 fc 00 00
	00 00		 mov	 DWORD PTR __$EHRec$[ebp+8], 0
; File C:\Program Files\Microsoft Visual Studio\2022\Professional\VC\Tools\MSVC\14.44.35207\include\vector

; 46   :     _CONSTEXPR20 _Vector_const_iterator(_Tptr _Parg, const _Container_base* _Pvector) noexcept : _Ptr(_Parg) {

  0005c	89 55 ec	 mov	 DWORD PTR __First$1$[ebp], edx

; 1433 :         if (_Newsize > _Oldcapacity) {

  0005f	3b fe		 cmp	 edi, esi
  00061	76 73		 jbe	 SHORT $LN26@Initialize

; 1703 :         if (_Newsize > max_size()) {

  00063	81 ff ff ff ff
	7f		 cmp	 edi, 2147483647		; 7fffffffH
  00069	0f 87 69 01 00
	00		 ja	 $LN108@Initialize

; 2011 :         if (_Oldcapacity > _Max - _Oldcapacity / 2) {

  0006f	8b d6		 mov	 edx, esi
  00071	b8 ff ff ff 7f	 mov	 eax, 2147483647		; 7fffffffH
  00076	d1 ea		 shr	 edx, 1
  00078	2b c2		 sub	 eax, edx
  0007a	3b f0		 cmp	 esi, eax
  0007c	76 09		 jbe	 SHORT $LN36@Initialize

; 2012 :             return _Max; // geometric growth would overflow

  0007e	c7 45 f0 ff ff
	ff 7f		 mov	 DWORD PTR $T3[ebp], 2147483647 ; 7fffffffH
  00085	eb 0b		 jmp	 SHORT $LN37@Initialize
$LN36@Initialize:

; 2013 :         }
; 2014 : 
; 2015 :         const size_type _Geometric = _Oldcapacity + _Oldcapacity / 2;

  00087	8d 04 32	 lea	 eax, DWORD PTR [edx+esi]

; 2016 : 
; 2017 :         if (_Geometric < _Newsize) {

  0008a	3b c7		 cmp	 eax, edi
  0008c	0f 42 c7	 cmovb	 eax, edi
  0008f	89 45 f0	 mov	 DWORD PTR $T3[ebp], eax
$LN37@Initialize:

; 1709 :         if (_Myfirst) { // destroy and deallocate old array

  00092	85 c9		 test	 ecx, ecx
  00094	74 1f		 je	 SHORT $LN33@Initialize

; 1710 :             _Destroy_range(_Myfirst, _Mylast, _Al);
; 1711 :             _ASAN_VECTOR_REMOVE;
; 1712 :             _Al.deallocate(_Myfirst, static_cast<size_type>(_Myend - _Myfirst));

  00096	56		 push	 esi
  00097	51		 push	 ecx
  00098	8d 4b 04	 lea	 ecx, DWORD PTR [ebx+4]
  0009b	e8 00 00 00 00	 call	 ?deallocate@?$allocator@E@std@@QAEXQAEI@Z ; std::allocator<unsigned char>::deallocate

; 1713 : 
; 1714 :             _Myfirst = nullptr;

  000a0	c7 43 04 00 00
	00 00		 mov	 DWORD PTR [ebx+4], 0

; 1715 :             _Mylast  = nullptr;

  000a7	c7 43 08 00 00
	00 00		 mov	 DWORD PTR [ebx+8], 0

; 1716 :             _Myend   = nullptr;

  000ae	c7 43 0c 00 00
	00 00		 mov	 DWORD PTR [ebx+12], 0
$LN33@Initialize:

; 1717 :         }
; 1718 : 
; 1719 :         _Buy_raw(_Newcapacity);

  000b5	ff 75 f0	 push	 DWORD PTR $T3[ebp]
  000b8	8d 4b 04	 lea	 ecx, DWORD PTR [ebx+4]
  000bb	e8 00 00 00 00	 call	 ?_Buy_raw@?$vector@EV?$allocator@E@std@@@std@@AAEXI@Z ; std::vector<unsigned char,std::allocator<unsigned char> >::_Buy_raw

; 1436 :                 _Mylast = _STD _Uninitialized_copy_n(_STD move(_First), _Newsize, _Myfirst, _Al);

  000c0	8b 73 04	 mov	 esi, DWORD PTR [ebx+4]
; File C:\Program Files\Microsoft Visual Studio\2022\Professional\VC\Tools\MSVC\14.44.35207\include\xmemory

; 1930 :             _STD _Copy_memmove_n(_UFirst, _Count, _STD _Unfancy(_Dest));

  000c3	8b 45 ec	 mov	 eax, DWORD PTR __First$1$[ebp]
  000c6	56		 push	 esi
  000c7	57		 push	 edi
  000c8	50		 push	 eax
  000c9	e8 00 00 00 00	 call	 ??$_Copy_memmove_n@PBEPAE@std@@YAPAEPBEIPAE@Z ; std::_Copy_memmove_n<unsigned char const *,unsigned char *>

; 1931 :             _Dest += _Count;

  000ce	8d 04 3e	 lea	 eax, DWORD PTR [esi+edi]
; File C:\Program Files\Microsoft Visual Studio\2022\Professional\VC\Tools\MSVC\14.44.35207\include\vector

; 1436 :                 _Mylast = _STD _Uninitialized_copy_n(_STD move(_First), _Newsize, _Myfirst, _Al);

  000d1	89 43 08	 mov	 DWORD PTR [ebx+8], eax

; 1437 :                 _ASAN_VECTOR_CREATE;
; 1438 :             } else {
; 1439 :                 _ASAN_VECTOR_CREATE_GUARD;
; 1440 :                 _Mylast = _STD _Uninitialized_copy_n(_STD move(_First), _Newsize, _Myfirst, _Al);
; 1441 :             }
; 1442 :             return;

  000d4	eb 3f		 jmp	 SHORT $LN106@Initialize
$LN26@Initialize:

; 1443 :         }
; 1444 : 
; 1445 :         const auto _Oldsize = static_cast<size_type>(_Mylast - _Myfirst);

  000d6	8b 73 08	 mov	 esi, DWORD PTR [ebx+8]
  000d9	2b f1		 sub	 esi, ecx
  000db	89 75 f0	 mov	 DWORD PTR __Oldsize$1$[ebp], esi

; 1446 :         if (_Newsize > _Oldsize) {

  000de	51		 push	 ecx
  000df	3b fe		 cmp	 edi, esi
  000e1	76 25		 jbe	 SHORT $LN27@Initialize

; 1447 :             bool _Copied = false;
; 1448 :             if constexpr (_Iter_copy_cat<_Iter, pointer>::_Bitcopy_assignable) {
; 1449 : #if _HAS_CXX20
; 1450 :                 if (!_STD is_constant_evaluated())
; 1451 : #endif // _HAS_CXX20
; 1452 :                 {
; 1453 :                     _Copy_memmove_n(_First, static_cast<size_t>(_Oldsize), _Myfirst);

  000e3	56		 push	 esi
  000e4	52		 push	 edx
  000e5	e8 00 00 00 00	 call	 ??$_Copy_memmove_n@PBEPAE@std@@YAPAEPBEIPAE@Z ; std::_Copy_memmove_n<unsigned char const *,unsigned char *>

; 1454 :                     _First += _Oldsize;

  000ea	8b 45 ec	 mov	 eax, DWORD PTR __First$1$[ebp]

; 1467 :                 _Mylast = _STD _Uninitialized_copy_n(_STD move(_First), _Newsize - _Oldsize, _Mylast, _Al);

  000ed	2b 7d f0	 sub	 edi, DWORD PTR __Oldsize$1$[ebp]
  000f0	03 c6		 add	 eax, esi
  000f2	8b 73 08	 mov	 esi, DWORD PTR [ebx+8]
; File C:\Program Files\Microsoft Visual Studio\2022\Professional\VC\Tools\MSVC\14.44.35207\include\xmemory

; 1930 :             _STD _Copy_memmove_n(_UFirst, _Count, _STD _Unfancy(_Dest));

  000f5	56		 push	 esi
  000f6	57		 push	 edi
  000f7	50		 push	 eax
  000f8	e8 00 00 00 00	 call	 ??$_Copy_memmove_n@PBEPAE@std@@YAPAEPBEIPAE@Z ; std::_Copy_memmove_n<unsigned char const *,unsigned char *>

; 1931 :             _Dest += _Count;

  000fd	8d 04 37	 lea	 eax, DWORD PTR [edi+esi]
  00100	83 c4 18	 add	 esp, 24			; 00000018H
; File C:\Program Files\Microsoft Visual Studio\2022\Professional\VC\Tools\MSVC\14.44.35207\include\vector

; 1467 :                 _Mylast = _STD _Uninitialized_copy_n(_STD move(_First), _Newsize - _Oldsize, _Mylast, _Al);

  00103	89 43 08	 mov	 DWORD PTR [ebx+8], eax

; 1468 :             } else {
; 1469 :                 _ASAN_VECTOR_EXTEND_GUARD(_Newsize);
; 1470 :                 _Mylast = _STD _Uninitialized_copy_n(_STD move(_First), _Newsize - _Oldsize, _Mylast, _Al);
; 1471 :                 _ASAN_VECTOR_RELEASE_GUARD;
; 1472 :             }
; 1473 :         } else {

  00106	eb 10		 jmp	 SHORT $LN28@Initialize
$LN27@Initialize:
; File C:\Program Files\Microsoft Visual Studio\2022\Professional\VC\Tools\MSVC\14.44.35207\include\xutility

; 4808 :             return _Copy_memmove_n(_First, static_cast<size_t>(_Count), _Dest);

  00108	57		 push	 edi
  00109	52		 push	 edx
; File C:\Program Files\Microsoft Visual Studio\2022\Professional\VC\Tools\MSVC\14.44.35207\include\vector

; 1474 :             const pointer _Newlast = _Myfirst + _Newsize;

  0010a	8d 34 39	 lea	 esi, DWORD PTR [ecx+edi]
; File C:\Program Files\Microsoft Visual Studio\2022\Professional\VC\Tools\MSVC\14.44.35207\include\xutility

; 4808 :             return _Copy_memmove_n(_First, static_cast<size_t>(_Count), _Dest);

  0010d	e8 00 00 00 00	 call	 ??$_Copy_memmove_n@PBEPAE@std@@YAPAEPBEIPAE@Z ; std::_Copy_memmove_n<unsigned char const *,unsigned char *>
; File C:\Program Files\Microsoft Visual Studio\2022\Professional\VC\Tools\MSVC\14.44.35207\include\vector

; 1478 :             _Mylast = _Newlast;

  00112	89 73 08	 mov	 DWORD PTR [ebx+8], esi
$LN106@Initialize:
; File C:\IAGOS\server\v18\Source\Source\_Common\EventLua.cpp

; 1110 : 	SetEventList( pEventLua->GetEventList( FALSE ) );

  00115	83 c4 0c	 add	 esp, 12			; 0000000cH
$LN28@Initialize:
; File C:\Program Files\Microsoft Visual Studio\2022\Professional\VC\Tools\MSVC\14.44.35207\include\vector

; 830  :         _Tidy();

  00118	8d 4d dc	 lea	 ecx, DWORD PTR $T2[ebp]
; File C:\IAGOS\server\v18\Source\Source\_Common\EventLua.cpp

; 1110 : 	SetEventList( pEventLua->GetEventList( FALSE ) );

  0011b	c7 45 fc ff ff
	ff ff		 mov	 DWORD PTR __$EHRec$[ebp+8], -1
; File C:\Program Files\Microsoft Visual Studio\2022\Professional\VC\Tools\MSVC\14.44.35207\include\vector

; 830  :         _Tidy();

  00122	e8 00 00 00 00	 call	 ?_Tidy@?$vector@EV?$allocator@E@std@@@std@@AAEXXZ ; std::vector<unsigned char,std::allocator<unsigned char> >::_Tidy
; File C:\IAGOS\server\v18\Source\Source\_Common\EventLua.cpp

; 1111 : 	SetExpFactor( pEventLua->GetExpFactor( FALSE ) );

  00127	8b 5d 08	 mov	 ebx, DWORD PTR _pEventLua$[ebp]
  0012a	8b cb		 mov	 ecx, ebx
  0012c	6a 00		 push	 0
  0012e	e8 00 00 00 00	 call	 ?GetExpFactor@CEventLua@@QAEMH@Z ; CEventLua::GetExpFactor
; File C:\IAGOS\server\v18\Source\Source\_Common\EventLua.h

; 28   : 	void	SetExpFactor( float fExpFactor )	{	m_fExpFactor	= fExpFactor;	}

  00133	8b 75 e8	 mov	 esi, DWORD PTR _this$1$[ebp]
; File C:\IAGOS\server\v18\Source\Source\_Common\EventLua.cpp

; 1112 : 	SetItemDropRate( pEventLua->GetItemDropRate( FALSE ) );

  00136	8b cb		 mov	 ecx, ebx
  00138	6a 00		 push	 0
; File C:\IAGOS\server\v18\Source\Source\_Common\EventLua.h

; 28   : 	void	SetExpFactor( float fExpFactor )	{	m_fExpFactor	= fExpFactor;	}

  0013a	d9 5e 10	 fstp	 DWORD PTR [esi+16]
; File C:\IAGOS\server\v18\Source\Source\_Common\EventLua.cpp

; 1112 : 	SetItemDropRate( pEventLua->GetItemDropRate( FALSE ) );

  0013d	e8 00 00 00 00	 call	 ?GetItemDropRate@CEventLua@@QAEMH@Z ; CEventLua::GetItemDropRate
; File C:\IAGOS\server\v18\Source\Source\_Common\EventLua.h

; 30   : 	void	SetItemDropRate( float fItemDropRate )	{	m_fItemDropRate	= fItemDropRate;	}

  00142	d9 5e 14	 fstp	 DWORD PTR [esi+20]
; File C:\IAGOS\server\v18\Source\Source\_Common\EventLua.cpp

; 1113 : 	SetPieceItemDropRate( pEventLua->GetPieceItemDropRate( FALSE ) );

  00145	6a 00		 push	 0
  00147	8b cb		 mov	 ecx, ebx
  00149	e8 00 00 00 00	 call	 ?GetPieceItemDropRate@CEventLua@@QAEMH@Z ; CEventLua::GetPieceItemDropRate
; File C:\IAGOS\server\v18\Source\Source\_Common\EventLua.h

; 32   : 	void	SetPieceItemDropRate( float fPieceItemDropRate )	{	m_fPieceItemDropRate	= fPieceItemDropRate;	}

  0014e	d9 5e 18	 fstp	 DWORD PTR [esi+24]
; File C:\IAGOS\server\v18\Source\Source\_Common\EventLua.cpp

; 1114 : 	SetGoldDropFactor( pEventLua->GetGoldDropFactor( FALSE ) );

  00151	6a 00		 push	 0
  00153	8b cb		 mov	 ecx, ebx
  00155	e8 00 00 00 00	 call	 ?GetGoldDropFactor@CEventLua@@QAEMH@Z ; CEventLua::GetGoldDropFactor

; 1115 : 	SetAttackPower( pEventLua->GetAttackPower( FALSE ) );

  0015a	6a 00		 push	 0
  0015c	8b cb		 mov	 ecx, ebx
; File C:\IAGOS\server\v18\Source\Source\_Common\EventLua.h

; 34   : 	void	SetGoldDropFactor( float GoldDropFactor )	{	m_fGoldDropFactor	= GoldDropFactor;	}

  0015e	d9 5e 1c	 fstp	 DWORD PTR [esi+28]
; File C:\IAGOS\server\v18\Source\Source\_Common\EventLua.cpp

; 1115 : 	SetAttackPower( pEventLua->GetAttackPower( FALSE ) );

  00161	e8 00 00 00 00	 call	 ?GetAttackPower@CEventLua@@QAEHH@Z ; CEventLua::GetAttackPower

; 1116 : 	SetDefensePower( pEventLua->GetDefensePower( FALSE ) );

  00166	6a 00		 push	 0
  00168	8b cb		 mov	 ecx, ebx
; File C:\IAGOS\server\v18\Source\Source\_Common\EventLua.h

; 36   : 	void	SetAttackPower( int nAttackPower )	{	m_nAttackPower	= nAttackPower;		}

  0016a	89 46 20	 mov	 DWORD PTR [esi+32], eax
; File C:\IAGOS\server\v18\Source\Source\_Common\EventLua.cpp

; 1116 : 	SetDefensePower( pEventLua->GetDefensePower( FALSE ) );

  0016d	e8 00 00 00 00	 call	 ?GetDefensePower@CEventLua@@QAEHH@Z ; CEventLua::GetDefensePower

; 1117 : 	SetCouponEvent( pEventLua->GetCouponEvent( FALSE ) );

  00172	6a 00		 push	 0
  00174	8b cb		 mov	 ecx, ebx
; File C:\IAGOS\server\v18\Source\Source\_Common\EventLua.h

; 38   : 	void	SetDefensePower( int fDefensePower )	{	m_fDefensePower	= fDefensePower;	}

  00176	89 46 24	 mov	 DWORD PTR [esi+36], eax
; File C:\IAGOS\server\v18\Source\Source\_Common\EventLua.cpp

; 1117 : 	SetCouponEvent( pEventLua->GetCouponEvent( FALSE ) );

  00179	e8 00 00 00 00	 call	 ?GetCouponEvent@CEventLua@@QAEKH@Z ; CEventLua::GetCouponEvent

; 1119 : 	SetCheerExpFactor( pEventLua->GetCheerExpFactor( FALSE ) );

  0017e	6a 00		 push	 0
  00180	8b cb		 mov	 ecx, ebx
; File C:\IAGOS\server\v18\Source\Source\_Common\EventLua.h

; 40   : 	void	SetCouponEvent( DWORD dwCouponEvent )	{	m_dwCouponEvent	= dwCouponEvent;	}

  00182	89 46 28	 mov	 DWORD PTR [esi+40], eax
; File C:\IAGOS\server\v18\Source\Source\_Common\EventLua.cpp

; 1119 : 	SetCheerExpFactor( pEventLua->GetCheerExpFactor( FALSE ) );

  00185	e8 00 00 00 00	 call	 ?GetCheerExpFactor@CEventLua@@QAEMH@Z ; CEventLua::GetCheerExpFactor

; 1122 : 	SetKeepConnectTime( pEventLua->GetKeepConnectTime( FALSE ) );

  0018a	6a 00		 push	 0
  0018c	8b cb		 mov	 ecx, ebx
; File C:\IAGOS\server\v18\Source\Source\_Common\EventLua.h

; 42   : 	void	SetCheerExpFactor( float fCheerExpFactor ) { m_fCheerExpFactor = fCheerExpFactor; }

  0018e	d9 5e 2c	 fstp	 DWORD PTR [esi+44]
; File C:\IAGOS\server\v18\Source\Source\_Common\EventLua.cpp

; 1122 : 	SetKeepConnectTime( pEventLua->GetKeepConnectTime( FALSE ) );

  00191	e8 00 00 00 00	 call	 ?GetKeepConnectTime@CEventLua@@QAEKH@Z ; CEventLua::GetKeepConnectTime

; 1123 : 	pEventLua->GetKeepConnectItem();

  00196	8b cb		 mov	 ecx, ebx
; File C:\IAGOS\server\v18\Source\Source\_Common\EventLua.h

; 47   : 	void	SetKeepConnectTime( DWORD dwKeepConnect )	{	m_dwKeepConnect	= dwKeepConnect;	}

  00198	89 46 30	 mov	 DWORD PTR [esi+48], eax
; File C:\IAGOS\server\v18\Source\Source\_Common\EventLua.cpp

; 1123 : 	pEventLua->GetKeepConnectItem();

  0019b	e8 00 00 00 00	 call	 ?GetKeepConnectItem@CEventLua@@QAEXXZ ; CEventLua::GetKeepConnectItem

; 1124 : #endif // __EVENTLUA_KEEPCONNECT
; 1125 : 
; 1126 : #ifdef __ENVIRONMENT_EFFECT
; 1127 : 
; 1128 : 	SetWeatherEventExpFactor( pEventLua->GetWeatherEventExpFactor( FALSE ) );

  001a0	6a 00		 push	 0
  001a2	8b cb		 mov	 ecx, ebx
  001a4	e8 00 00 00 00	 call	 ?GetWeatherEventExpFactor@CEventLua@@QAEMH@Z ; CEventLua::GetWeatherEventExpFactor
; File C:\IAGOS\server\v18\Source\Source\_Common\EventLua.h

; 52   : 	void	SetWeatherEventExpFactor( float fWeatherEventExpFactor )	{ m_fWeatherEventExpFactor = fWeatherEventExpFactor; }

  001a9	d9 5e 34	 fstp	 DWORD PTR [esi+52]
; File C:\IAGOS\server\v18\Source\Source\_Common\EventLua.cpp

; 1141 : 	SetShopBuyFactor( pEventLua->GetShopBuyFactor( FALSE ) );

  001ac	6a 00		 push	 0
  001ae	8b cb		 mov	 ecx, ebx
  001b0	e8 00 00 00 00	 call	 ?GetShopBuyFactor@CEventLua@@QAEMH@Z ; CEventLua::GetShopBuyFactor
; File C:\IAGOS\server\v18\Source\Source\_Common\EventLua.h

; 69   : 	void	SetShopBuyFactor( float fShopBuyFactor )	{	m_fShopBuyFactor = fShopBuyFactor;	}

  001b5	d9 5e 38	 fstp	 DWORD PTR [esi+56]
; File C:\IAGOS\server\v18\Source\Source\_Common\EventLua.cpp

; 1142 : 	SetShopSellFactor( pEventLua->GetShopSellFactor( FALSE ) );

  001b8	6a 00		 push	 0
  001ba	8b cb		 mov	 ecx, ebx
  001bc	e8 00 00 00 00	 call	 ?GetShopSellFactor@CEventLua@@QAEMH@Z ; CEventLua::GetShopSellFactor
; File C:\IAGOS\server\v18\Source\Source\_Common\EventLua.h

; 71   : 	void	SetShopSellFactor( float fShopSellFactor )	{	m_fShopSellFactor = fShopSellFactor;	}

  001c1	d9 5e 3c	 fstp	 DWORD PTR [esi+60]
; File C:\IAGOS\server\v18\Source\Source\_Common\EventLua.cpp

; 1144 : }

  001c4	8b 4d f4	 mov	 ecx, DWORD PTR __$EHRec$[ebp]
  001c7	64 89 0d 00 00
	00 00		 mov	 DWORD PTR fs:0, ecx
  001ce	59		 pop	 ecx
  001cf	5f		 pop	 edi
  001d0	5e		 pop	 esi
  001d1	5b		 pop	 ebx
  001d2	8b e5		 mov	 esp, ebp
  001d4	5d		 pop	 ebp
  001d5	c2 04 00	 ret	 4
$LN108@Initialize:
; File C:\Program Files\Microsoft Visual Studio\2022\Professional\VC\Tools\MSVC\14.44.35207\include\vector

; 1704 :             _Xlength();

  001d8	e8 00 00 00 00	 call	 ?_Xlength@?$vector@EV?$allocator@E@std@@@std@@CAXXZ ; std::vector<unsigned char,std::allocator<unsigned char> >::_Xlength
$LN105@Initialize:
  001dd	cc		 int	 3
_TEXT	ENDS
;	COMDAT text$x
text$x	SEGMENT
__unwindfunclet$?Initialize@CEventLuaProxy@@QAEXPAVCEventLua@@@Z$0:
  00000	8d 4d dc	 lea	 ecx, DWORD PTR $T2[ebp]
  00003	e9 00 00 00 00	 jmp	 ??1?$vector@EV?$allocator@E@std@@@std@@QAE@XZ ; std::vector<unsigned char,std::allocator<unsigned char> >::~vector<unsigned char,std::allocator<unsigned char> >
  00008	cc		 int	 3
  00009	cc		 int	 3
  0000a	cc		 int	 3
  0000b	cc		 int	 3
  0000c	cc		 int	 3
__ehhandler$?Initialize@CEventLuaProxy@@QAEXPAVCEventLua@@@Z:
  0000d	90		 npad	 1
  0000e	90		 npad	 1
  0000f	8b 54 24 08	 mov	 edx, DWORD PTR [esp+8]
  00013	8d 42 0c	 lea	 eax, DWORD PTR [edx+12]
  00016	8b 4a d8	 mov	 ecx, DWORD PTR [edx-40]
  00019	33 c8		 xor	 ecx, eax
  0001b	e8 00 00 00 00	 call	 @__security_check_cookie@4
  00020	b8 00 00 00 00	 mov	 eax, OFFSET __ehfuncinfo$?Initialize@CEventLuaProxy@@QAEXPAVCEventLua@@@Z
  00025	e9 00 00 00 00	 jmp	 ___CxxFrameHandler3
text$x	ENDS
?Initialize@CEventLuaProxy@@QAEXPAVCEventLua@@@Z ENDP	; CEventLuaProxy::Initialize
; Function compile flags: /Ogtp
; File C:\IAGOS\server\v18\Source\Source\_Common\EventLua.cpp
; File C:\Program Files\Microsoft Visual Studio\2022\Professional\VC\Tools\MSVC\14.44.35207\include\vector
; File C:\IAGOS\server\v18\Source\Source\_Common\EventLua.cpp
;	COMDAT ??1CEventLuaProxy@@UAE@XZ
_TEXT	SEGMENT
??1CEventLuaProxy@@UAE@XZ PROC				; CEventLuaProxy::~CEventLuaProxy, COMDAT
; _this$ = ecx

; 1104 : {

  00000	c7 01 00 00 00
	00		 mov	 DWORD PTR [ecx], OFFSET ??_7CEventLuaProxy@@6B@

; 1105 : }

  00006	83 c1 04	 add	 ecx, 4
; File C:\Program Files\Microsoft Visual Studio\2022\Professional\VC\Tools\MSVC\14.44.35207\include\vector

; 830  :         _Tidy();

  00009	e9 00 00 00 00	 jmp	 ?_Tidy@?$vector@EV?$allocator@E@std@@@std@@AAEXXZ ; std::vector<unsigned char,std::allocator<unsigned char> >::_Tidy
??1CEventLuaProxy@@UAE@XZ ENDP				; CEventLuaProxy::~CEventLuaProxy
_TEXT	ENDS
; Function compile flags: /Ogtp
; File C:\IAGOS\server\v18\Source\Source\_Common\EventLua.cpp
; File C:\Program Files\Microsoft Visual Studio\2022\Professional\VC\Tools\MSVC\14.44.35207\include\vector
; File C:\IAGOS\server\v18\Source\Source\_Common\EventLua.cpp
;	COMDAT ??0CEventLuaProxy@@QAE@XZ
_TEXT	SEGMENT
_this$ = -4						; size = 4
??0CEventLuaProxy@@QAE@XZ PROC				; CEventLuaProxy::CEventLuaProxy, COMDAT
; _this$ = ecx

; 1100 : {

  00000	55		 push	 ebp
  00001	8b ec		 mov	 ebp, esp
  00003	51		 push	 ecx
  00004	c7 01 00 00 00
	00		 mov	 DWORD PTR [ecx], OFFSET ??_7CEventLuaProxy@@6B@

; 1101 : }

  0000a	8b c1		 mov	 eax, ecx
; File C:\Program Files\Microsoft Visual Studio\2022\Professional\VC\Tools\MSVC\14.44.35207\include\vector

; 400  :     _CONSTEXPR20 _Vector_val() noexcept : _Myfirst(), _Mylast(), _Myend() {}

  0000c	c7 41 04 00 00
	00 00		 mov	 DWORD PTR [ecx+4], 0
  00013	c7 41 08 00 00
	00 00		 mov	 DWORD PTR [ecx+8], 0
  0001a	c7 41 0c 00 00
	00 00		 mov	 DWORD PTR [ecx+12], 0
; File C:\IAGOS\server\v18\Source\Source\_Common\EventLua.cpp

; 1100 : {

  00021	89 4d fc	 mov	 DWORD PTR _this$[ebp], ecx

; 1068 : m_fExpFactor( 1.0f ),

  00024	c7 41 10 00 00
	80 3f		 mov	 DWORD PTR [ecx+16], 1065353216 ; 3f800000H

; 1069 : m_fItemDropRate( 1.0f ),

  0002b	c7 41 14 00 00
	80 3f		 mov	 DWORD PTR [ecx+20], 1065353216 ; 3f800000H

; 1070 : m_fPieceItemDropRate( 1.0f ),

  00032	c7 41 18 00 00
	80 3f		 mov	 DWORD PTR [ecx+24], 1065353216 ; 3f800000H

; 1071 : m_fGoldDropFactor( 1.0f ),

  00039	c7 41 1c 00 00
	80 3f		 mov	 DWORD PTR [ecx+28], 1065353216 ; 3f800000H

; 1072 : m_nAttackPower( 0 ),

  00040	c7 41 20 00 00
	00 00		 mov	 DWORD PTR [ecx+32], 0

; 1073 : m_fDefensePower( 0 ),

  00047	c7 41 24 00 00
	00 00		 mov	 DWORD PTR [ecx+36], 0

; 1074 : m_dwCouponEvent( 0 )

  0004e	c7 41 28 00 00
	00 00		 mov	 DWORD PTR [ecx+40], 0

; 1075 : #ifdef __EVENTLUA_CHEEREXP
; 1076 : ,m_fCheerExpFactor( 1.0f )

  00055	c7 41 2c 00 00
	80 3f		 mov	 DWORD PTR [ecx+44], 1065353216 ; 3f800000H

; 1077 : #endif // __EVENTLUA_CHEEREXP
; 1078 : #ifdef __EVENTLUA_KEEPCONNECT
; 1079 : , m_dwKeepConnect( 0 )

  0005c	c7 41 30 00 00
	00 00		 mov	 DWORD PTR [ecx+48], 0

; 1080 : #endif // __EVENTLUA_KEEPCONNECT
; 1081 : 
; 1082 : #ifdef __ENVIRONMENT_EFFECT
; 1083 : 
; 1084 : , m_fWeatherEventExpFactor( 1.0f )

  00063	c7 41 34 00 00
	80 3f		 mov	 DWORD PTR [ecx+52], 1065353216 ; 3f800000H

; 1085 : 
; 1086 : #else // __ENVIRONMENT_EFFECT
; 1087 : 
; 1088 : #ifdef __EVENTLUA_RAIN
; 1089 : , m_fRainEventExpFactor( 1.0f )
; 1090 : #endif // __EVENTLUA_RAIN
; 1091 : #ifdef __EVENTLUA_SNOW
; 1092 : , m_fSnowEventExpFactor( 1.0f )
; 1093 : #endif // __EVENTLUA_SNOW
; 1094 : 
; 1095 : #endif // __ENVIRONMENT_EFFECT
; 1096 : #ifdef __SHOP_COST_RATE
; 1097 : , m_fShopBuyFactor( 1.0f )

  0006a	c7 41 38 00 00
	80 3f		 mov	 DWORD PTR [ecx+56], 1065353216 ; 3f800000H

; 1098 : , m_fShopSellFactor( 1.0f )

  00071	c7 41 3c 00 00
	80 3f		 mov	 DWORD PTR [ecx+60], 1065353216 ; 3f800000H

; 1101 : }

  00078	8b e5		 mov	 esp, ebp
  0007a	5d		 pop	 ebp
  0007b	c3		 ret	 0
??0CEventLuaProxy@@QAE@XZ ENDP				; CEventLuaProxy::CEventLuaProxy
_TEXT	ENDS
; Function compile flags: /Ogtp
; File C:\Program Files\Microsoft Visual Studio\2022\Professional\VC\Tools\MSVC\14.44.35207\include\vector
;	COMDAT ?_Xlength@?$vector@KV?$allocator@K@std@@@std@@CAXXZ
_TEXT	SEGMENT
?_Xlength@?$vector@KV?$allocator@K@std@@@std@@CAXXZ PROC ; std::vector<unsigned long,std::allocator<unsigned long> >::_Xlength, COMDAT

; 2184 :         _Xlength_error("vector too long");

  00000	68 00 00 00 00	 push	 OFFSET ??_C@_0BA@FOIKENOD@vector?5too?5long@
  00005	e8 00 00 00 00	 call	 ?_Xlength_error@std@@YAXPBD@Z ; std::_Xlength_error
$LN3@Xlength:
  0000a	cc		 int	 3
?_Xlength@?$vector@KV?$allocator@K@std@@@std@@CAXXZ ENDP ; std::vector<unsigned long,std::allocator<unsigned long> >::_Xlength
_TEXT	ENDS
; Function compile flags: /Ogtp
; File C:\Program Files\Microsoft Visual Studio\2022\Professional\VC\Tools\MSVC\14.44.35207\include\vector
; File C:\Program Files\Microsoft Visual Studio\2022\Professional\VC\Tools\MSVC\14.44.35207\include\xmemory
; File C:\Program Files\Microsoft Visual Studio\2022\Professional\VC\Tools\MSVC\14.44.35207\include\vector
; File C:\Program Files\Microsoft Visual Studio\2022\Professional\VC\Tools\MSVC\14.44.35207\include\xmemory
; File C:\Program Files\Microsoft Visual Studio\2022\Professional\VC\Tools\MSVC\14.44.35207\include\vector
; File C:\Program Files\Microsoft Visual Studio\2022\Professional\VC\Tools\MSVC\14.44.35207\include\xmemory
; File C:\Program Files\Microsoft Visual Studio\2022\Professional\VC\Tools\MSVC\14.44.35207\include\vector
;	COMDAT ??1?$vector@KV?$allocator@K@std@@@std@@QAE@XZ
_TEXT	SEGMENT
??1?$vector@KV?$allocator@K@std@@@std@@QAE@XZ PROC	; std::vector<unsigned long,std::allocator<unsigned long> >::~vector<unsigned long,std::allocator<unsigned long> >, COMDAT
; _this$ = ecx

; 829  :     _CONSTEXPR20 ~vector() noexcept {

  00000	56		 push	 esi
  00001	8b f1		 mov	 esi, ecx

; 2090 :         if (_Myfirst) { // destroy and deallocate old array

  00003	8b 06		 mov	 eax, DWORD PTR [esi]
  00005	85 c0		 test	 eax, eax
  00007	74 40		 je	 SHORT $LN5@vector

; 2091 :             _STD _Destroy_range(_Myfirst, _Mylast, _Al);
; 2092 :             _ASAN_VECTOR_REMOVE;
; 2093 :             _Al.deallocate(_Myfirst, static_cast<size_type>(_Myend - _Myfirst));

  00009	8b 4e 08	 mov	 ecx, DWORD PTR [esi+8]
  0000c	2b c8		 sub	 ecx, eax
; File C:\Program Files\Microsoft Visual Studio\2022\Professional\VC\Tools\MSVC\14.44.35207\include\xmemory

; 985  :         _STD _Deallocate<_New_alignof<_Ty>>(_Ptr, sizeof(_Ty) * _Count);

  0000e	83 e1 fc	 and	 ecx, -4			; fffffffcH

; 284  :         if (_Bytes >= _Big_allocation_threshold) {

  00011	81 f9 00 10 00
	00		 cmp	 ecx, 4096		; 00001000H
  00017	72 12		 jb	 SHORT $LN18@vector

; 205  :     const uintptr_t _Ptr_container   = _Ptr_user[-1];

  00019	8b 50 fc	 mov	 edx, DWORD PTR [eax-4]
  0001c	83 c1 23	 add	 ecx, 35			; 00000023H

; 206  : 
; 207  :     // If the following asserts, it likely means that we are performing
; 208  :     // an aligned delete on memory coming from an unaligned allocation.
; 209  :     _STL_ASSERT(_Ptr_user[-2] == _Big_allocation_sentinel, "invalid argument");
; 210  : 
; 211  :     // Extra paranoia on aligned allocation/deallocation; ensure _Ptr_container is
; 212  :     // in range [_Min_back_shift, _Non_user_size]
; 213  : #ifdef _DEBUG
; 214  :     constexpr uintptr_t _Min_back_shift = 2 * sizeof(void*);
; 215  : #else // ^^^ defined(_DEBUG) / !defined(_DEBUG) vvv
; 216  :     constexpr uintptr_t _Min_back_shift = sizeof(void*);
; 217  : #endif // ^^^ !defined(_DEBUG) ^^^
; 218  :     const uintptr_t _Back_shift = reinterpret_cast<uintptr_t>(_Ptr) - _Ptr_container;

  0001f	2b c2		 sub	 eax, edx

; 219  :     _STL_VERIFY(_Back_shift >= _Min_back_shift && _Back_shift <= _Non_user_size, "invalid argument");

  00021	83 c0 fc	 add	 eax, -4			; fffffffcH
  00024	83 f8 1f	 cmp	 eax, 31			; 0000001fH
  00027	77 22		 ja	 SHORT $LN17@vector

; 220  :     _Ptr = reinterpret_cast<void*>(_Ptr_container);

  00029	8b c2		 mov	 eax, edx
$LN18@vector:

; 289  :         ::operator delete(_Ptr, _Bytes);

  0002b	51		 push	 ecx
  0002c	50		 push	 eax
  0002d	e8 00 00 00 00	 call	 ??3@YAXPAXI@Z		; operator delete
; File C:\Program Files\Microsoft Visual Studio\2022\Professional\VC\Tools\MSVC\14.44.35207\include\vector

; 2095 :             _Myfirst = nullptr;

  00032	c7 06 00 00 00
	00		 mov	 DWORD PTR [esi], 0
; File C:\Program Files\Microsoft Visual Studio\2022\Professional\VC\Tools\MSVC\14.44.35207\include\xmemory

; 289  :         ::operator delete(_Ptr, _Bytes);

  00038	83 c4 08	 add	 esp, 8
; File C:\Program Files\Microsoft Visual Studio\2022\Professional\VC\Tools\MSVC\14.44.35207\include\vector

; 2096 :             _Mylast  = nullptr;

  0003b	c7 46 04 00 00
	00 00		 mov	 DWORD PTR [esi+4], 0

; 2097 :             _Myend   = nullptr;

  00042	c7 46 08 00 00
	00 00		 mov	 DWORD PTR [esi+8], 0
$LN5@vector:
  00049	5e		 pop	 esi

; 835  :     }

  0004a	c3		 ret	 0
$LN17@vector:
; File C:\Program Files\Microsoft Visual Studio\2022\Professional\VC\Tools\MSVC\14.44.35207\include\xmemory

; 219  :     _STL_VERIFY(_Back_shift >= _Min_back_shift && _Back_shift <= _Non_user_size, "invalid argument");

  0004b	6a 00		 push	 0
  0004d	6a 00		 push	 0
  0004f	6a 00		 push	 0
  00051	6a 00		 push	 0
  00053	6a 00		 push	 0
  00055	e8 00 00 00 00	 call	 __invoke_watson
$LN26@vector:
  0005a	cc		 int	 3
??1?$vector@KV?$allocator@K@std@@@std@@QAE@XZ ENDP	; std::vector<unsigned long,std::allocator<unsigned long> >::~vector<unsigned long,std::allocator<unsigned long> >
_TEXT	ENDS
; Function compile flags: /Ogtp
; File C:\Program Files\Microsoft Visual Studio\2022\Professional\VC\Tools\MSVC\14.44.35207\include\xtree
;	COMDAT ?_Throw_tree_length_error@std@@YAXXZ
_TEXT	SEGMENT
?_Throw_tree_length_error@std@@YAXXZ PROC		; std::_Throw_tree_length_error, COMDAT

; 417  :     _Xlength_error("map/set too long");

  00000	68 00 00 00 00	 push	 OFFSET ??_C@_0BB@GCADKGJO@map?1set?5too?5long@
  00005	e8 00 00 00 00	 call	 ?_Xlength_error@std@@YAXPBD@Z ; std::_Xlength_error
$LN3@Throw_tree:
  0000a	cc		 int	 3
?_Throw_tree_length_error@std@@YAXXZ ENDP		; std::_Throw_tree_length_error
_TEXT	ENDS
; Function compile flags: /Ogtp
; File C:\Program Files\Microsoft Visual Studio\2022\Professional\VC\Tools\MSVC\14.44.35207\include\xstring
; File C:\Program Files\Microsoft Visual Studio\2022\Professional\VC\Tools\MSVC\14.44.35207\include\__msvc_string_view.hpp
; File C:\Program Files\Microsoft Visual Studio\2022\Professional\VC\Tools\MSVC\14.44.35207\include\xstring
; File C:\Program Files\Microsoft Visual Studio\2022\Professional\VC\Tools\MSVC\14.44.35207\include\__msvc_string_view.hpp
; File C:\Program Files\Microsoft Visual Studio\2022\Professional\VC\Tools\MSVC\14.44.35207\include\xstring
; File C:\Program Files\Microsoft Visual Studio\2022\Professional\VC\Tools\MSVC\14.44.35207\include\__msvc_string_view.hpp
; File C:\Program Files\Microsoft Visual Studio\2022\Professional\VC\Tools\MSVC\14.44.35207\include\xstring
; File C:\Program Files\Microsoft Visual Studio\2022\Professional\VC\Tools\MSVC\14.44.35207\include\__msvc_string_view.hpp
; File C:\Program Files\Microsoft Visual Studio\2022\Professional\VC\Tools\MSVC\14.44.35207\include\xstring
; File C:\Program Files\Microsoft Visual Studio\2022\Professional\VC\Tools\MSVC\14.44.35207\include\__msvc_string_view.hpp
; File C:\Program Files\Microsoft Visual Studio\2022\Professional\VC\Tools\MSVC\14.44.35207\include\xstring
; File C:\Program Files\Microsoft Visual Studio\2022\Professional\VC\Tools\MSVC\14.44.35207\include\xmemory
; File C:\Program Files\Microsoft Visual Studio\2022\Professional\VC\Tools\MSVC\14.44.35207\include\xstring
; File C:\Program Files\Microsoft Visual Studio\2022\Professional\VC\Tools\MSVC\14.44.35207\include\xmemory
; File C:\Program Files\Microsoft Visual Studio\2022\Professional\VC\Tools\MSVC\14.44.35207\include\xstring
; File C:\Program Files\Microsoft Visual Studio\2022\Professional\VC\Tools\MSVC\14.44.35207\include\xmemory
; File C:\Program Files\Microsoft Visual Studio\2022\Professional\VC\Tools\MSVC\14.44.35207\include\xstring
; File C:\Program Files\Microsoft Visual Studio\2022\Professional\VC\Tools\MSVC\14.44.35207\include\__msvc_string_view.hpp
; File C:\Program Files\Microsoft Visual Studio\2022\Professional\VC\Tools\MSVC\14.44.35207\include\xstring
; File C:\Program Files\Microsoft Visual Studio\2022\Professional\VC\Tools\MSVC\14.44.35207\include\__msvc_string_view.hpp
; File C:\Program Files\Microsoft Visual Studio\2022\Professional\VC\Tools\MSVC\14.44.35207\include\xstring
; File C:\Program Files\Microsoft Visual Studio\2022\Professional\VC\Tools\MSVC\14.44.35207\include\__msvc_string_view.hpp
; File C:\Program Files\Microsoft Visual Studio\2022\Professional\VC\Tools\MSVC\14.44.35207\include\xstring
; File C:\Program Files\Microsoft Visual Studio\2022\Professional\VC\Tools\MSVC\14.44.35207\include\__msvc_string_view.hpp
; File C:\Program Files\Microsoft Visual Studio\2022\Professional\VC\Tools\MSVC\14.44.35207\include\xstring
; File C:\Program Files\Microsoft Visual Studio\2022\Professional\VC\Tools\MSVC\14.44.35207\include\xmemory
; File C:\Program Files\Microsoft Visual Studio\2022\Professional\VC\Tools\MSVC\14.44.35207\include\xstring
; File C:\Program Files\Microsoft Visual Studio\2022\Professional\VC\Tools\MSVC\14.44.35207\include\xmemory
; File C:\Program Files\Microsoft Visual Studio\2022\Professional\VC\Tools\MSVC\14.44.35207\include\xstring
;	COMDAT ??4?$basic_string@DU?$char_traits@D@std@@V?$allocator@D@2@@std@@QAEAAV01@QBD@Z
_TEXT	SEGMENT
__Old$1$ = -8						; size = 4
$T1 = -4						; size = 4
__Ptr$ = 8						; size = 4
??4?$basic_string@DU?$char_traits@D@std@@V?$allocator@D@2@@std@@QAEAAV01@QBD@Z PROC ; std::basic_string<char,std::char_traits<char>,std::allocator<char> >::operator=, COMDAT
; _this$ = ecx

; 1445 :     _CONSTEXPR20 basic_string& operator=(_In_z_ const _Elem* const _Ptr) {

  00000	55		 push	 ebp
  00001	8b ec		 mov	 ebp, esp
; File C:\Program Files\Microsoft Visual Studio\2022\Professional\VC\Tools\MSVC\14.44.35207\include\__msvc_string_view.hpp

; 459  :         return _CSTD strlen(reinterpret_cast<const char*>(_First));

  00003	8b 55 08	 mov	 edx, DWORD PTR __Ptr$[ebp]
; File C:\Program Files\Microsoft Visual Studio\2022\Professional\VC\Tools\MSVC\14.44.35207\include\xstring

; 1445 :     _CONSTEXPR20 basic_string& operator=(_In_z_ const _Elem* const _Ptr) {

  00006	83 ec 08	 sub	 esp, 8
  00009	53		 push	 ebx
  0000a	56		 push	 esi
; File C:\Program Files\Microsoft Visual Studio\2022\Professional\VC\Tools\MSVC\14.44.35207\include\__msvc_string_view.hpp

; 459  :         return _CSTD strlen(reinterpret_cast<const char*>(_First));

  0000b	8b f2		 mov	 esi, edx
; File C:\Program Files\Microsoft Visual Studio\2022\Professional\VC\Tools\MSVC\14.44.35207\include\xstring

; 1445 :     _CONSTEXPR20 basic_string& operator=(_In_z_ const _Elem* const _Ptr) {

  0000d	57		 push	 edi
  0000e	8b f9		 mov	 edi, ecx
; File C:\Program Files\Microsoft Visual Studio\2022\Professional\VC\Tools\MSVC\14.44.35207\include\__msvc_string_view.hpp

; 459  :         return _CSTD strlen(reinterpret_cast<const char*>(_First));

  00010	8d 4e 01	 lea	 ecx, DWORD PTR [esi+1]
$LL76@operator:
  00013	8a 06		 mov	 al, BYTE PTR [esi]
  00015	46		 inc	 esi
  00016	84 c0		 test	 al, al
  00018	75 f9		 jne	 SHORT $LL76@operator
  0001a	2b f1		 sub	 esi, ecx
; File C:\Program Files\Microsoft Visual Studio\2022\Professional\VC\Tools\MSVC\14.44.35207\include\xstring

; 1618 :         if (_Count <= _Mypair._Myval2._Myres) {

  0001c	8b 4f 14	 mov	 ecx, DWORD PTR [edi+20]
  0001f	89 4d f8	 mov	 DWORD PTR __Old$1$[ebp], ecx
  00022	3b f1		 cmp	 esi, ecx
  00024	77 26		 ja	 SHORT $LN9@operator

; 435  :         value_type* _Result = _Bx._Buf;

  00026	8b df		 mov	 ebx, edi

; 453  :         return _Myres > _Small_string_capacity;

  00028	83 f9 0f	 cmp	 ecx, 15			; 0000000fH

; 436  :         if (_Large_mode_engaged()) {

  0002b	76 02		 jbe	 SHORT $LN12@operator

; 437  :             _Result = _Unfancy(_Bx._Ptr);

  0002d	8b 1f		 mov	 ebx, DWORD PTR [edi]
$LN12@operator:
; File C:\Program Files\Microsoft Visual Studio\2022\Professional\VC\Tools\MSVC\14.44.35207\include\__msvc_string_view.hpp

; 174  :         _CSTD memmove(_First1, _First2, _Count * sizeof(_Elem));

  0002f	56		 push	 esi
  00030	52		 push	 edx
  00031	53		 push	 ebx
; File C:\Program Files\Microsoft Visual Studio\2022\Professional\VC\Tools\MSVC\14.44.35207\include\xstring

; 1621 :             _Mypair._Myval2._Mysize = _Count;

  00032	89 77 10	 mov	 DWORD PTR [edi+16], esi
; File C:\Program Files\Microsoft Visual Studio\2022\Professional\VC\Tools\MSVC\14.44.35207\include\__msvc_string_view.hpp

; 174  :         _CSTD memmove(_First1, _First2, _Count * sizeof(_Elem));

  00035	e8 00 00 00 00	 call	 _memmove
  0003a	83 c4 0c	 add	 esp, 12			; 0000000cH
; File C:\Program Files\Microsoft Visual Studio\2022\Professional\VC\Tools\MSVC\14.44.35207\include\xstring

; 1623 :             _Traits::assign(_Old_ptr[_Count], _Elem());

  0003d	c6 04 33 00	 mov	 BYTE PTR [ebx+esi], 0

; 1446 :         return assign(_Ptr);

  00041	8b c7		 mov	 eax, edi

; 1447 :     }

  00043	5f		 pop	 edi
  00044	5e		 pop	 esi
  00045	5b		 pop	 ebx
  00046	8b e5		 mov	 esp, ebp
  00048	5d		 pop	 ebp
  00049	c2 04 00	 ret	 4
$LN9@operator:

; 2998 :         if (_New_size > max_size()) {

  0004c	81 fe ff ff ff
	7f		 cmp	 esi, 2147483647		; 7fffffffH
  00052	0f 87 d1 00 00
	00		 ja	 $LN91@operator

; 2978 :         const size_type _Masked = _Requested | _Alloc_mask;

  00058	8b de		 mov	 ebx, esi
  0005a	83 cb 0f	 or	 ebx, 15			; 0000000fH
  0005d	81 fb ff ff ff
	7f		 cmp	 ebx, 2147483647		; 7fffffffH

; 2979 :         if (_Masked > _Max) { // the mask overflows, settle for max_size()

  00063	76 12		 jbe	 SHORT $LN30@operator

; 2980 :             return _Max;

  00065	b8 00 00 00 80	 mov	 eax, -2147483648	; 80000000H
  0006a	bb ff ff ff 7f	 mov	 ebx, 2147483647		; 7fffffffH
; File C:\Program Files\Microsoft Visual Studio\2022\Professional\VC\Tools\MSVC\14.44.35207\include\xmemory

; 253  :             return _Allocate_manually_vector_aligned<_Traits>(_Bytes);

  0006f	50		 push	 eax
  00070	e8 00 00 00 00	 call	 ??$_Allocate_manually_vector_aligned@U_Default_allocate_traits@std@@@std@@YAPAXI@Z ; std::_Allocate_manually_vector_aligned<std::_Default_allocate_traits>
  00075	eb 45		 jmp	 SHORT $LN89@operator
$LN30@operator:
; File C:\Program Files\Microsoft Visual Studio\2022\Professional\VC\Tools\MSVC\14.44.35207\include\xstring

; 2983 :         if (_Old > _Max - _Old / 2) { // similarly, geometric overflows

  00077	8b d1		 mov	 edx, ecx
  00079	b8 ff ff ff 7f	 mov	 eax, 2147483647		; 7fffffffH
  0007e	d1 ea		 shr	 edx, 1
  00080	2b c2		 sub	 eax, edx
  00082	3b c8		 cmp	 ecx, eax
  00084	76 12		 jbe	 SHORT $LN31@operator

; 2984 :             return _Max;

  00086	b8 00 00 00 80	 mov	 eax, -2147483648	; 80000000H
  0008b	bb ff ff ff 7f	 mov	 ebx, 2147483647		; 7fffffffH
; File C:\Program Files\Microsoft Visual Studio\2022\Professional\VC\Tools\MSVC\14.44.35207\include\xmemory

; 253  :             return _Allocate_manually_vector_aligned<_Traits>(_Bytes);

  00090	50		 push	 eax
  00091	e8 00 00 00 00	 call	 ??$_Allocate_manually_vector_aligned@U_Default_allocate_traits@std@@@std@@YAPAXI@Z ; std::_Allocate_manually_vector_aligned<std::_Default_allocate_traits>
  00096	eb 24		 jmp	 SHORT $LN89@operator
$LN31@operator:
; File C:\Program Files\Microsoft Visual Studio\2022\Professional\VC\Tools\MSVC\14.44.35207\include\xstring

; 2987 :         return (_STD max)(_Masked, _Old + _Old / 2);

  00098	8d 04 0a	 lea	 eax, DWORD PTR [edx+ecx]
  0009b	3b d8		 cmp	 ebx, eax
  0009d	0f 42 d8	 cmovb	 ebx, eax

; 825  :         ++_Capacity; // Take null terminator into consideration

  000a0	8d 43 01	 lea	 eax, DWORD PTR [ebx+1]
; File C:\Program Files\Microsoft Visual Studio\2022\Professional\VC\Tools\MSVC\14.44.35207\include\xmemory

; 227  :     if (_Bytes == 0) {

  000a3	85 c0		 test	 eax, eax
  000a5	74 18		 je	 SHORT $LN88@operator
$LN44@operator:

; 228  :         return nullptr;
; 229  :     }
; 230  : 
; 231  : #if _HAS_CXX20 // TRANSITION, GH-1532
; 232  :     if (_STD is_constant_evaluated()) {
; 233  :         return _Traits::_Allocate(_Bytes);
; 234  :     }
; 235  : #endif // _HAS_CXX20
; 236  : 
; 237  : #ifdef __cpp_aligned_new
; 238  :     if constexpr (_Align > __STDCPP_DEFAULT_NEW_ALIGNMENT__) {
; 239  :         size_t _Passed_align = _Align;
; 240  : #if defined(_M_IX86) || defined(_M_X64)
; 241  :         if (_Bytes >= _Big_allocation_threshold) {
; 242  :             // boost the alignment of big allocations to help autovectorization
; 243  :             _Passed_align = (_STD max)(_Align, _Big_allocation_alignment);
; 244  :         }
; 245  : #endif // defined(_M_IX86) || defined(_M_X64)
; 246  :         return _Traits::_Allocate_aligned(_Bytes, _Passed_align);
; 247  :     } else
; 248  : #endif // defined(__cpp_aligned_new)
; 249  :     {
; 250  : #if defined(_M_IX86) || defined(_M_X64)
; 251  :         if (_Bytes >= _Big_allocation_threshold) {

  000a7	3d 00 10 00 00	 cmp	 eax, 4096		; 00001000H
  000ac	72 08		 jb	 SHORT $LN45@operator

; 253  :             return _Allocate_manually_vector_aligned<_Traits>(_Bytes);

  000ae	50		 push	 eax
  000af	e8 00 00 00 00	 call	 ??$_Allocate_manually_vector_aligned@U_Default_allocate_traits@std@@@std@@YAPAXI@Z ; std::_Allocate_manually_vector_aligned<std::_Default_allocate_traits>
  000b4	eb 06		 jmp	 SHORT $LN89@operator
$LN45@operator:

; 136  :         return ::operator new(_Bytes);

  000b6	50		 push	 eax
  000b7	e8 00 00 00 00	 call	 ??2@YAPAXI@Z		; operator new
$LN89@operator:
; File C:\Program Files\Microsoft Visual Studio\2022\Professional\VC\Tools\MSVC\14.44.35207\include\xstring

; 3009 :         _Mypair._Myval2._Mysize = _New_size;

  000bc	83 c4 04	 add	 esp, 4
$LN88@operator:
; File C:\Program Files\Microsoft Visual Studio\2022\Professional\VC\Tools\MSVC\14.44.35207\include\__msvc_string_view.hpp

; 121  :         _CSTD memcpy(_First1, _First2, _Count * sizeof(_Elem));

  000bf	56		 push	 esi
  000c0	ff 75 08	 push	 DWORD PTR __Ptr$[ebp]
; File C:\Program Files\Microsoft Visual Studio\2022\Professional\VC\Tools\MSVC\14.44.35207\include\xstring

; 3009 :         _Mypair._Myval2._Mysize = _New_size;

  000c3	89 45 fc	 mov	 DWORD PTR $T1[ebp], eax
; File C:\Program Files\Microsoft Visual Studio\2022\Professional\VC\Tools\MSVC\14.44.35207\include\__msvc_string_view.hpp

; 121  :         _CSTD memcpy(_First1, _First2, _Count * sizeof(_Elem));

  000c6	50		 push	 eax
; File C:\Program Files\Microsoft Visual Studio\2022\Professional\VC\Tools\MSVC\14.44.35207\include\xstring

; 3009 :         _Mypair._Myval2._Mysize = _New_size;

  000c7	89 77 10	 mov	 DWORD PTR [edi+16], esi

; 3010 :         _Mypair._Myval2._Myres  = _New_capacity;

  000ca	89 5f 14	 mov	 DWORD PTR [edi+20], ebx
; File C:\Program Files\Microsoft Visual Studio\2022\Professional\VC\Tools\MSVC\14.44.35207\include\__msvc_string_view.hpp

; 121  :         _CSTD memcpy(_First1, _First2, _Count * sizeof(_Elem));

  000cd	e8 00 00 00 00	 call	 _memcpy
; File C:\Program Files\Microsoft Visual Studio\2022\Professional\VC\Tools\MSVC\14.44.35207\include\xstring

; 1632 :                 _Traits::assign(_New_ptr[_Count], _Elem());

  000d2	8b 5d fc	 mov	 ebx, DWORD PTR $T1[ebp]
; File C:\Program Files\Microsoft Visual Studio\2022\Professional\VC\Tools\MSVC\14.44.35207\include\__msvc_string_view.hpp

; 121  :         _CSTD memcpy(_First1, _First2, _Count * sizeof(_Elem));

  000d5	83 c4 0c	 add	 esp, 12			; 0000000cH
; File C:\Program Files\Microsoft Visual Studio\2022\Professional\VC\Tools\MSVC\14.44.35207\include\xstring

; 3012 :         if (_Old_capacity > _Small_string_capacity) {

  000d8	8b 45 f8	 mov	 eax, DWORD PTR __Old$1$[ebp]

; 1632 :                 _Traits::assign(_New_ptr[_Count], _Elem());

  000db	c6 04 33 00	 mov	 BYTE PTR [ebx+esi], 0

; 3012 :         if (_Old_capacity > _Small_string_capacity) {

  000df	83 f8 0f	 cmp	 eax, 15			; 0000000fH
  000e2	76 29		 jbe	 SHORT $LN23@operator

; 852  :         _Al.deallocate(_Old_ptr, _Capacity + 1); // +1 for null terminator

  000e4	8d 48 01	 lea	 ecx, DWORD PTR [eax+1]
; File C:\Program Files\Microsoft Visual Studio\2022\Professional\VC\Tools\MSVC\14.44.35207\include\xmemory

; 985  :         _STD _Deallocate<_New_alignof<_Ty>>(_Ptr, sizeof(_Ty) * _Count);

  000e7	8b 07		 mov	 eax, DWORD PTR [edi]

; 284  :         if (_Bytes >= _Big_allocation_threshold) {

  000e9	81 f9 00 10 00
	00		 cmp	 ecx, 4096		; 00001000H
  000ef	72 12		 jb	 SHORT $LN67@operator

; 205  :     const uintptr_t _Ptr_container   = _Ptr_user[-1];

  000f1	8b 50 fc	 mov	 edx, DWORD PTR [eax-4]
  000f4	83 c1 23	 add	 ecx, 35			; 00000023H

; 206  : 
; 207  :     // If the following asserts, it likely means that we are performing
; 208  :     // an aligned delete on memory coming from an unaligned allocation.
; 209  :     _STL_ASSERT(_Ptr_user[-2] == _Big_allocation_sentinel, "invalid argument");
; 210  : 
; 211  :     // Extra paranoia on aligned allocation/deallocation; ensure _Ptr_container is
; 212  :     // in range [_Min_back_shift, _Non_user_size]
; 213  : #ifdef _DEBUG
; 214  :     constexpr uintptr_t _Min_back_shift = 2 * sizeof(void*);
; 215  : #else // ^^^ defined(_DEBUG) / !defined(_DEBUG) vvv
; 216  :     constexpr uintptr_t _Min_back_shift = sizeof(void*);
; 217  : #endif // ^^^ !defined(_DEBUG) ^^^
; 218  :     const uintptr_t _Back_shift = reinterpret_cast<uintptr_t>(_Ptr) - _Ptr_container;

  000f7	2b c2		 sub	 eax, edx

; 219  :     _STL_VERIFY(_Back_shift >= _Min_back_shift && _Back_shift <= _Non_user_size, "invalid argument");

  000f9	83 c0 fc	 add	 eax, -4			; fffffffcH
  000fc	83 f8 1f	 cmp	 eax, 31			; 0000001fH
  000ff	77 19		 ja	 SHORT $LN66@operator

; 220  :     _Ptr = reinterpret_cast<void*>(_Ptr_container);

  00101	8b c2		 mov	 eax, edx
$LN67@operator:

; 289  :         ::operator delete(_Ptr, _Bytes);

  00103	51		 push	 ecx
  00104	50		 push	 eax
  00105	e8 00 00 00 00	 call	 ??3@YAXPAXI@Z		; operator delete
  0010a	83 c4 08	 add	 esp, 8
$LN23@operator:
; File C:\Program Files\Microsoft Visual Studio\2022\Professional\VC\Tools\MSVC\14.44.35207\include\xstring

; 1628 :         return _Reallocate_for(

  0010d	89 1f		 mov	 DWORD PTR [edi], ebx

; 1446 :         return assign(_Ptr);

  0010f	8b c7		 mov	 eax, edi

; 1447 :     }

  00111	5f		 pop	 edi
  00112	5e		 pop	 esi
  00113	5b		 pop	 ebx
  00114	8b e5		 mov	 esp, ebp
  00116	5d		 pop	 ebp
  00117	c2 04 00	 ret	 4
$LN66@operator:
; File C:\Program Files\Microsoft Visual Studio\2022\Professional\VC\Tools\MSVC\14.44.35207\include\xmemory

; 219  :     _STL_VERIFY(_Back_shift >= _Min_back_shift && _Back_shift <= _Non_user_size, "invalid argument");

  0011a	6a 00		 push	 0
  0011c	6a 00		 push	 0
  0011e	6a 00		 push	 0
  00120	6a 00		 push	 0
  00122	6a 00		 push	 0
  00124	e8 00 00 00 00	 call	 __invoke_watson
$LN91@operator:
; File C:\Program Files\Microsoft Visual Studio\2022\Professional\VC\Tools\MSVC\14.44.35207\include\xstring

; 2999 :             _Xlen_string(); // result too long

  00129	e8 00 00 00 00	 call	 ?_Xlen_string@std@@YAXXZ ; std::_Xlen_string
$LN87@operator:
  0012e	cc		 int	 3
??4?$basic_string@DU?$char_traits@D@std@@V?$allocator@D@2@@std@@QAEAAV01@QBD@Z ENDP ; std::basic_string<char,std::char_traits<char>,std::allocator<char> >::operator=
_TEXT	ENDS
; Function compile flags: /Ogtp
; File C:\Program Files\Microsoft Visual Studio\2022\Professional\VC\Tools\MSVC\14.44.35207\include\xstring
; File C:\Program Files\Microsoft Visual Studio\2022\Professional\VC\Tools\MSVC\14.44.35207\include\xmemory
; File C:\Program Files\Microsoft Visual Studio\2022\Professional\VC\Tools\MSVC\14.44.35207\include\xstring
; File C:\Program Files\Microsoft Visual Studio\2022\Professional\VC\Tools\MSVC\14.44.35207\include\xmemory
; File C:\Program Files\Microsoft Visual Studio\2022\Professional\VC\Tools\MSVC\14.44.35207\include\xstring
; File C:\Program Files\Microsoft Visual Studio\2022\Professional\VC\Tools\MSVC\14.44.35207\include\xmemory
; File C:\Program Files\Microsoft Visual Studio\2022\Professional\VC\Tools\MSVC\14.44.35207\include\xstring
;	COMDAT ??1?$basic_string@DU?$char_traits@D@std@@V?$allocator@D@2@@std@@QAE@XZ
_TEXT	SEGMENT
??1?$basic_string@DU?$char_traits@D@std@@V?$allocator@D@2@@std@@QAE@XZ PROC ; std::basic_string<char,std::char_traits<char>,std::allocator<char> >::~basic_string<char,std::char_traits<char>,std::allocator<char> >, COMDAT
; _this$ = ecx

; 1382 :     _CONSTEXPR20 ~basic_string() noexcept {

  00000	56		 push	 esi
  00001	8b f1		 mov	 esi, ecx

; 453  :         return _Myres > _Small_string_capacity;

  00003	8b 4e 14	 mov	 ecx, DWORD PTR [esi+20]
  00006	83 f9 0f	 cmp	 ecx, 15			; 0000000fH

; 3083 :         if (_My_data._Large_mode_engaged()) {

  00009	76 27		 jbe	 SHORT $LN19@basic_stri
; File C:\Program Files\Microsoft Visual Studio\2022\Professional\VC\Tools\MSVC\14.44.35207\include\xmemory

; 985  :         _STD _Deallocate<_New_alignof<_Ty>>(_Ptr, sizeof(_Ty) * _Count);

  0000b	8b 06		 mov	 eax, DWORD PTR [esi]
; File C:\Program Files\Microsoft Visual Studio\2022\Professional\VC\Tools\MSVC\14.44.35207\include\xstring

; 852  :         _Al.deallocate(_Old_ptr, _Capacity + 1); // +1 for null terminator

  0000d	41		 inc	 ecx
; File C:\Program Files\Microsoft Visual Studio\2022\Professional\VC\Tools\MSVC\14.44.35207\include\xmemory

; 284  :         if (_Bytes >= _Big_allocation_threshold) {

  0000e	81 f9 00 10 00
	00		 cmp	 ecx, 4096		; 00001000H
  00014	72 12		 jb	 SHORT $LN24@basic_stri

; 205  :     const uintptr_t _Ptr_container   = _Ptr_user[-1];

  00016	8b 50 fc	 mov	 edx, DWORD PTR [eax-4]
  00019	83 c1 23	 add	 ecx, 35			; 00000023H

; 206  : 
; 207  :     // If the following asserts, it likely means that we are performing
; 208  :     // an aligned delete on memory coming from an unaligned allocation.
; 209  :     _STL_ASSERT(_Ptr_user[-2] == _Big_allocation_sentinel, "invalid argument");
; 210  : 
; 211  :     // Extra paranoia on aligned allocation/deallocation; ensure _Ptr_container is
; 212  :     // in range [_Min_back_shift, _Non_user_size]
; 213  : #ifdef _DEBUG
; 214  :     constexpr uintptr_t _Min_back_shift = 2 * sizeof(void*);
; 215  : #else // ^^^ defined(_DEBUG) / !defined(_DEBUG) vvv
; 216  :     constexpr uintptr_t _Min_back_shift = sizeof(void*);
; 217  : #endif // ^^^ !defined(_DEBUG) ^^^
; 218  :     const uintptr_t _Back_shift = reinterpret_cast<uintptr_t>(_Ptr) - _Ptr_container;

  0001c	2b c2		 sub	 eax, edx

; 219  :     _STL_VERIFY(_Back_shift >= _Min_back_shift && _Back_shift <= _Non_user_size, "invalid argument");

  0001e	83 c0 fc	 add	 eax, -4			; fffffffcH
  00021	83 f8 1f	 cmp	 eax, 31			; 0000001fH
  00024	77 1f		 ja	 SHORT $LN23@basic_stri

; 220  :     _Ptr = reinterpret_cast<void*>(_Ptr_container);

  00026	8b c2		 mov	 eax, edx
$LN24@basic_stri:

; 289  :         ::operator delete(_Ptr, _Bytes);

  00028	51		 push	 ecx
  00029	50		 push	 eax
  0002a	e8 00 00 00 00	 call	 ??3@YAXPAXI@Z		; operator delete
  0002f	83 c4 08	 add	 esp, 8
$LN19@basic_stri:
; File C:\Program Files\Microsoft Visual Studio\2022\Professional\VC\Tools\MSVC\14.44.35207\include\xstring

; 3090 :         _My_data._Mysize = 0;

  00032	c7 46 10 00 00
	00 00		 mov	 DWORD PTR [esi+16], 0

; 3091 :         _My_data._Myres  = _Small_string_capacity;

  00039	c7 46 14 0f 00
	00 00		 mov	 DWORD PTR [esi+20], 15	; 0000000fH

; 3092 :         // the _Traits::assign is last so the codegen doesn't think the char write can alias this
; 3093 :         _Traits::assign(_My_data._Bx._Buf[0], _Elem());

  00040	c6 06 00	 mov	 BYTE PTR [esi], 0
  00043	5e		 pop	 esi

; 1390 :     }

  00044	c3		 ret	 0
$LN23@basic_stri:
; File C:\Program Files\Microsoft Visual Studio\2022\Professional\VC\Tools\MSVC\14.44.35207\include\xmemory

; 219  :     _STL_VERIFY(_Back_shift >= _Min_back_shift && _Back_shift <= _Non_user_size, "invalid argument");

  00045	6a 00		 push	 0
  00047	6a 00		 push	 0
  00049	6a 00		 push	 0
  0004b	6a 00		 push	 0
  0004d	6a 00		 push	 0
  0004f	e8 00 00 00 00	 call	 __invoke_watson
$LN33@basic_stri:
  00054	cc		 int	 3
??1?$basic_string@DU?$char_traits@D@std@@V?$allocator@D@2@@std@@QAE@XZ ENDP ; std::basic_string<char,std::char_traits<char>,std::allocator<char> >::~basic_string<char,std::char_traits<char>,std::allocator<char> >
_TEXT	ENDS
; Function compile flags: /Ogtp
; File C:\Program Files\Microsoft Visual Studio\2022\Professional\VC\Tools\MSVC\14.44.35207\include\xstring
; File C:\Program Files\Microsoft Visual Studio\2022\Professional\VC\Tools\MSVC\14.44.35207\include\__msvc_string_view.hpp
; File C:\Program Files\Microsoft Visual Studio\2022\Professional\VC\Tools\MSVC\14.44.35207\include\xstring
; File C:\Program Files\Microsoft Visual Studio\2022\Professional\VC\Tools\MSVC\14.44.35207\include\__msvc_string_view.hpp
; File C:\Program Files\Microsoft Visual Studio\2022\Professional\VC\Tools\MSVC\14.44.35207\include\xstring
; File C:\Program Files\Microsoft Visual Studio\2022\Professional\VC\Tools\MSVC\14.44.35207\include\__msvc_string_view.hpp
; File C:\Program Files\Microsoft Visual Studio\2022\Professional\VC\Tools\MSVC\14.44.35207\include\xstring
; File C:\Program Files\Microsoft Visual Studio\2022\Professional\VC\Tools\MSVC\14.44.35207\include\__msvc_string_view.hpp
; File C:\Program Files\Microsoft Visual Studio\2022\Professional\VC\Tools\MSVC\14.44.35207\include\xstring
; File C:\Program Files\Microsoft Visual Studio\2022\Professional\VC\Tools\MSVC\14.44.35207\include\xmemory
; File C:\Program Files\Microsoft Visual Studio\2022\Professional\VC\Tools\MSVC\14.44.35207\include\xstring
; File C:\Program Files\Microsoft Visual Studio\2022\Professional\VC\Tools\MSVC\14.44.35207\include\xmemory
; File C:\Program Files\Microsoft Visual Studio\2022\Professional\VC\Tools\MSVC\14.44.35207\include\xstring
; File C:\Program Files\Microsoft Visual Studio\2022\Professional\VC\Tools\MSVC\14.44.35207\include\__msvc_string_view.hpp
; File C:\Program Files\Microsoft Visual Studio\2022\Professional\VC\Tools\MSVC\14.44.35207\include\xstring
; File C:\Program Files\Microsoft Visual Studio\2022\Professional\VC\Tools\MSVC\14.44.35207\include\__msvc_string_view.hpp
; File C:\Program Files\Microsoft Visual Studio\2022\Professional\VC\Tools\MSVC\14.44.35207\include\xstring
; File C:\Program Files\Microsoft Visual Studio\2022\Professional\VC\Tools\MSVC\14.44.35207\include\__msvc_string_view.hpp
; File C:\Program Files\Microsoft Visual Studio\2022\Professional\VC\Tools\MSVC\14.44.35207\include\xstring
;	COMDAT ??0?$basic_string@DU?$char_traits@D@std@@V?$allocator@D@2@@std@@QAE@QBD@Z
_TEXT	SEGMENT
$T1 = -4						; size = 4
__Ptr$ = 8						; size = 4
??0?$basic_string@DU?$char_traits@D@std@@V?$allocator@D@2@@std@@QAE@QBD@Z PROC ; std::basic_string<char,std::char_traits<char>,std::allocator<char> >::basic_string<char,std::char_traits<char>,std::allocator<char> >, COMDAT
; _this$ = ecx

; 768  :     _CONSTEXPR20 basic_string(_In_z_ const _Elem* const _Ptr) : _Mypair(_Zero_then_variadic_args_t{}) {

  00000	55		 push	 ebp
  00001	8b ec		 mov	 ebp, esp
  00003	51		 push	 ecx
  00004	53		 push	 ebx
  00005	56		 push	 esi
  00006	8b d9		 mov	 ebx, ecx
  00008	0f 57 c0	 xorps	 xmm0, xmm0
  0000b	57		 push	 edi
; File C:\Program Files\Microsoft Visual Studio\2022\Professional\VC\Tools\MSVC\14.44.35207\include\__msvc_string_view.hpp

; 459  :         return _CSTD strlen(reinterpret_cast<const char*>(_First));

  0000c	8b 7d 08	 mov	 edi, DWORD PTR __Ptr$[ebp]
  0000f	8b f7		 mov	 esi, edi
; File C:\Program Files\Microsoft Visual Studio\2022\Professional\VC\Tools\MSVC\14.44.35207\include\xstring

; 493  :         _CONSTEXPR20 _Bxty() noexcept : _Buf() {} // user-provided, for fancy pointers

  00011	0f 11 03	 movups	 XMMWORD PTR [ebx], xmm0

; 517  :     size_type _Mysize = 0; // current length of string (size)

  00014	c7 43 10 00 00
	00 00		 mov	 DWORD PTR [ebx+16], 0

; 518  :     size_type _Myres  = 0; // current storage reserved for string (capacity)

  0001b	c7 43 14 00 00
	00 00		 mov	 DWORD PTR [ebx+20], 0
; File C:\Program Files\Microsoft Visual Studio\2022\Professional\VC\Tools\MSVC\14.44.35207\include\__msvc_string_view.hpp

; 459  :         return _CSTD strlen(reinterpret_cast<const char*>(_First));

  00022	8d 4e 01	 lea	 ecx, DWORD PTR [esi+1]
$LL51@basic_stri:
  00025	8a 06		 mov	 al, BYTE PTR [esi]
  00027	46		 inc	 esi
  00028	84 c0		 test	 al, al
  0002a	75 f9		 jne	 SHORT $LL51@basic_stri
  0002c	2b f1		 sub	 esi, ecx
; File C:\Program Files\Microsoft Visual Studio\2022\Professional\VC\Tools\MSVC\14.44.35207\include\xstring

; 881  :         if (_Count > max_size()) {

  0002e	81 fe ff ff ff
	7f		 cmp	 esi, 2147483647		; 7fffffffH
  00034	0f 87 9b 00 00
	00		 ja	 $LN62@basic_stri

; 883  :         }
; 884  : 
; 885  :         auto& _Al       = _Getal();
; 886  :         auto&& _Alproxy = _GET_PROXY_ALLOCATOR(_Alty, _Al);
; 887  :         _Container_proxy_ptr<_Alty> _Proxy(_Alproxy, _My_data);
; 888  : 
; 889  :         if (_Count <= _Small_string_capacity) {

  0003a	83 fe 0f	 cmp	 esi, 15			; 0000000fH
  0003d	77 24		 ja	 SHORT $LN21@basic_stri
; File C:\Program Files\Microsoft Visual Studio\2022\Professional\VC\Tools\MSVC\14.44.35207\include\__msvc_string_view.hpp

; 121  :         _CSTD memcpy(_First1, _First2, _Count * sizeof(_Elem));

  0003f	56		 push	 esi
  00040	57		 push	 edi
  00041	53		 push	 ebx
; File C:\Program Files\Microsoft Visual Studio\2022\Professional\VC\Tools\MSVC\14.44.35207\include\xstring

; 890  :             _My_data._Mysize = _Count;

  00042	89 73 10	 mov	 DWORD PTR [ebx+16], esi

; 891  :             _My_data._Myres  = _Small_string_capacity;

  00045	c7 43 14 0f 00
	00 00		 mov	 DWORD PTR [ebx+20], 15	; 0000000fH
; File C:\Program Files\Microsoft Visual Studio\2022\Professional\VC\Tools\MSVC\14.44.35207\include\__msvc_string_view.hpp

; 121  :         _CSTD memcpy(_First1, _First2, _Count * sizeof(_Elem));

  0004c	e8 00 00 00 00	 call	 _memcpy
; File C:\Program Files\Microsoft Visual Studio\2022\Professional\VC\Tools\MSVC\14.44.35207\include\xstring

; 898  :                 _Traits::assign(_My_data._Bx._Buf[_Count], _Elem());

  00051	c6 04 1e 00	 mov	 BYTE PTR [esi+ebx], 0

; 769  :         _Construct<_Construct_strategy::_From_ptr>(_Ptr, _Convert_size<size_type>(_Traits::length(_Ptr)));
; 770  :     }

  00055	83 c4 0c	 add	 esp, 12			; 0000000cH
  00058	8b c3		 mov	 eax, ebx
  0005a	5f		 pop	 edi
  0005b	5e		 pop	 esi
  0005c	5b		 pop	 ebx
  0005d	8b e5		 mov	 esp, ebp
  0005f	5d		 pop	 ebp
  00060	c2 04 00	 ret	 4
$LN21@basic_stri:

; 2978 :         const size_type _Masked = _Requested | _Alloc_mask;

  00063	8b fe		 mov	 edi, esi
  00065	83 cf 0f	 or	 edi, 15			; 0000000fH
  00068	81 ff ff ff ff
	7f		 cmp	 edi, 2147483647		; 7fffffffH

; 2979 :         if (_Masked > _Max) { // the mask overflows, settle for max_size()

  0006e	76 12		 jbe	 SHORT $LN27@basic_stri

; 2980 :             return _Max;

  00070	b8 00 00 00 80	 mov	 eax, -2147483648	; 80000000H
  00075	bf ff ff ff 7f	 mov	 edi, 2147483647		; 7fffffffH
; File C:\Program Files\Microsoft Visual Studio\2022\Professional\VC\Tools\MSVC\14.44.35207\include\xmemory

; 253  :             return _Allocate_manually_vector_aligned<_Traits>(_Bytes);

  0007a	50		 push	 eax
  0007b	e8 00 00 00 00	 call	 ??$_Allocate_manually_vector_aligned@U_Default_allocate_traits@std@@@std@@YAPAXI@Z ; std::_Allocate_manually_vector_aligned<std::_Default_allocate_traits>
  00080	eb 26		 jmp	 SHORT $LN60@basic_stri
$LN27@basic_stri:
; File C:\Program Files\Microsoft Visual Studio\2022\Professional\VC\Tools\MSVC\14.44.35207\include\xstring

; 2987 :         return (_STD max)(_Masked, _Old + _Old / 2);

  00082	b8 16 00 00 00	 mov	 eax, 22			; 00000016H
  00087	3b f8		 cmp	 edi, eax
  00089	0f 42 f8	 cmovb	 edi, eax

; 825  :         ++_Capacity; // Take null terminator into consideration

  0008c	8d 47 01	 lea	 eax, DWORD PTR [edi+1]
; File C:\Program Files\Microsoft Visual Studio\2022\Professional\VC\Tools\MSVC\14.44.35207\include\xmemory

; 227  :     if (_Bytes == 0) {

  0008f	85 c0		 test	 eax, eax
  00091	74 18		 je	 SHORT $LN59@basic_stri
$LN41@basic_stri:

; 228  :         return nullptr;
; 229  :     }
; 230  : 
; 231  : #if _HAS_CXX20 // TRANSITION, GH-1532
; 232  :     if (_STD is_constant_evaluated()) {
; 233  :         return _Traits::_Allocate(_Bytes);
; 234  :     }
; 235  : #endif // _HAS_CXX20
; 236  : 
; 237  : #ifdef __cpp_aligned_new
; 238  :     if constexpr (_Align > __STDCPP_DEFAULT_NEW_ALIGNMENT__) {
; 239  :         size_t _Passed_align = _Align;
; 240  : #if defined(_M_IX86) || defined(_M_X64)
; 241  :         if (_Bytes >= _Big_allocation_threshold) {
; 242  :             // boost the alignment of big allocations to help autovectorization
; 243  :             _Passed_align = (_STD max)(_Align, _Big_allocation_alignment);
; 244  :         }
; 245  : #endif // defined(_M_IX86) || defined(_M_X64)
; 246  :         return _Traits::_Allocate_aligned(_Bytes, _Passed_align);
; 247  :     } else
; 248  : #endif // defined(__cpp_aligned_new)
; 249  :     {
; 250  : #if defined(_M_IX86) || defined(_M_X64)
; 251  :         if (_Bytes >= _Big_allocation_threshold) {

  00093	3d 00 10 00 00	 cmp	 eax, 4096		; 00001000H
  00098	72 08		 jb	 SHORT $LN42@basic_stri

; 253  :             return _Allocate_manually_vector_aligned<_Traits>(_Bytes);

  0009a	50		 push	 eax
  0009b	e8 00 00 00 00	 call	 ??$_Allocate_manually_vector_aligned@U_Default_allocate_traits@std@@@std@@YAPAXI@Z ; std::_Allocate_manually_vector_aligned<std::_Default_allocate_traits>
  000a0	eb 06		 jmp	 SHORT $LN60@basic_stri
$LN42@basic_stri:

; 136  :         return ::operator new(_Bytes);

  000a2	50		 push	 eax
  000a3	e8 00 00 00 00	 call	 ??2@YAPAXI@Z		; operator new
$LN60@basic_stri:
; File C:\Program Files\Microsoft Visual Studio\2022\Professional\VC\Tools\MSVC\14.44.35207\include\xstring

; 913  :         _Construct_in_place(_My_data._Bx._Ptr, _New_ptr);

  000a8	83 c4 04	 add	 esp, 4
$LN59@basic_stri:
; File C:\Program Files\Microsoft Visual Studio\2022\Professional\VC\Tools\MSVC\14.44.35207\include\__msvc_string_view.hpp

; 121  :         _CSTD memcpy(_First1, _First2, _Count * sizeof(_Elem));

  000ab	56		 push	 esi
  000ac	ff 75 08	 push	 DWORD PTR __Ptr$[ebp]
; File C:\Program Files\Microsoft Visual Studio\2022\Professional\VC\Tools\MSVC\14.44.35207\include\xstring

; 913  :         _Construct_in_place(_My_data._Bx._Ptr, _New_ptr);

  000af	89 45 fc	 mov	 DWORD PTR $T1[ebp], eax
; File C:\Program Files\Microsoft Visual Studio\2022\Professional\VC\Tools\MSVC\14.44.35207\include\__msvc_string_view.hpp

; 121  :         _CSTD memcpy(_First1, _First2, _Count * sizeof(_Elem));

  000b2	50		 push	 eax
; File C:\Program Files\Microsoft Visual Studio\2022\Professional\VC\Tools\MSVC\14.44.35207\include\xstring

; 913  :         _Construct_in_place(_My_data._Bx._Ptr, _New_ptr);

  000b3	89 03		 mov	 DWORD PTR [ebx], eax

; 914  : 
; 915  :         _My_data._Mysize = _Count;

  000b5	89 73 10	 mov	 DWORD PTR [ebx+16], esi

; 916  :         _My_data._Myres  = _New_capacity;

  000b8	89 7b 14	 mov	 DWORD PTR [ebx+20], edi
; File C:\Program Files\Microsoft Visual Studio\2022\Professional\VC\Tools\MSVC\14.44.35207\include\__msvc_string_view.hpp

; 121  :         _CSTD memcpy(_First1, _First2, _Count * sizeof(_Elem));

  000bb	e8 00 00 00 00	 call	 _memcpy
; File C:\Program Files\Microsoft Visual Studio\2022\Professional\VC\Tools\MSVC\14.44.35207\include\xstring

; 922  :             _Traits::assign(_Unfancy(_New_ptr)[_Count], _Elem());

  000c0	8b 45 fc	 mov	 eax, DWORD PTR $T1[ebp]

; 769  :         _Construct<_Construct_strategy::_From_ptr>(_Ptr, _Convert_size<size_type>(_Traits::length(_Ptr)));
; 770  :     }

  000c3	83 c4 0c	 add	 esp, 12			; 0000000cH
  000c6	5f		 pop	 edi

; 922  :             _Traits::assign(_Unfancy(_New_ptr)[_Count], _Elem());

  000c7	c6 04 30 00	 mov	 BYTE PTR [eax+esi], 0

; 769  :         _Construct<_Construct_strategy::_From_ptr>(_Ptr, _Convert_size<size_type>(_Traits::length(_Ptr)));
; 770  :     }

  000cb	8b c3		 mov	 eax, ebx
  000cd	5e		 pop	 esi
  000ce	5b		 pop	 ebx
  000cf	8b e5		 mov	 esp, ebp
  000d1	5d		 pop	 ebp
  000d2	c2 04 00	 ret	 4
$LN62@basic_stri:

; 882  :             _Xlen_string(); // result too long

  000d5	e8 00 00 00 00	 call	 ?_Xlen_string@std@@YAXXZ ; std::_Xlen_string
$LN57@basic_stri:
  000da	cc		 int	 3
??0?$basic_string@DU?$char_traits@D@std@@V?$allocator@D@2@@std@@QAE@QBD@Z ENDP ; std::basic_string<char,std::char_traits<char>,std::allocator<char> >::basic_string<char,std::char_traits<char>,std::allocator<char> >
_TEXT	ENDS
; Function compile flags: /Ogtp
; File C:\Program Files\Microsoft Visual Studio\2022\Professional\VC\Tools\MSVC\14.44.35207\include\xstring
;	COMDAT ?_Xlen_string@std@@YAXXZ
_TEXT	SEGMENT
?_Xlen_string@std@@YAXXZ PROC				; std::_Xlen_string, COMDAT

; 531  :     _Xlength_error("string too long");

  00000	68 00 00 00 00	 push	 OFFSET ??_C@_0BA@JFNIOLAK@string?5too?5long@
  00005	e8 00 00 00 00	 call	 ?_Xlength_error@std@@YAXPBD@Z ; std::_Xlength_error
$LN3@Xlen_strin:
  0000a	cc		 int	 3
?_Xlen_string@std@@YAXXZ ENDP				; std::_Xlen_string
_TEXT	ENDS
; Function compile flags: /Ogtp
; File C:\Program Files\Microsoft Visual Studio\2022\Professional\VC\Tools\MSVC\14.44.35207\include\xmemory
;	COMDAT ?_Throw_bad_array_new_length@std@@YAXXZ
_TEXT	SEGMENT
$T1 = -12						; size = 12
?_Throw_bad_array_new_length@std@@YAXXZ PROC		; std::_Throw_bad_array_new_length, COMDAT

; 107  : [[noreturn]] inline void _Throw_bad_array_new_length() {

  00000	55		 push	 ebp
  00001	8b ec		 mov	 ebp, esp
  00003	83 ec 0c	 sub	 esp, 12			; 0000000cH

; 108  :     _THROW(bad_array_new_length{});

  00006	8d 4d f4	 lea	 ecx, DWORD PTR $T1[ebp]
  00009	e8 00 00 00 00	 call	 ??0bad_array_new_length@std@@QAE@XZ ; std::bad_array_new_length::bad_array_new_length
  0000e	68 00 00 00 00	 push	 OFFSET __TI3?AVbad_array_new_length@std@@
  00013	8d 45 f4	 lea	 eax, DWORD PTR $T1[ebp]
  00016	50		 push	 eax
  00017	e8 00 00 00 00	 call	 __CxxThrowException@8
$LN3@Throw_bad_:
  0001c	cc		 int	 3
?_Throw_bad_array_new_length@std@@YAXXZ ENDP		; std::_Throw_bad_array_new_length
_TEXT	ENDS
; Function compile flags: /Ogtp
; File C:\Program Files\Microsoft Visual Studio\2022\Professional\VC\Tools\MSVC\14.44.35207\include\vcruntime_exception.h
;	COMDAT ??_Gbad_array_new_length@std@@UAEPAXI@Z
_TEXT	SEGMENT
___flags$ = 8						; size = 4
??_Gbad_array_new_length@std@@UAEPAXI@Z PROC		; std::bad_array_new_length::`scalar deleting destructor', COMDAT
; _this$ = ecx
  00000	55		 push	 ebp
  00001	8b ec		 mov	 ebp, esp

; 90   :     {

  00003	56		 push	 esi
  00004	8b f1		 mov	 esi, ecx

; 91   :         __std_exception_destroy(&_Data);

  00006	8d 46 04	 lea	 eax, DWORD PTR [esi+4]
  00009	c7 06 00 00 00
	00		 mov	 DWORD PTR [esi], OFFSET ??_7exception@std@@6B@
  0000f	50		 push	 eax
  00010	e8 00 00 00 00	 call	 ___std_exception_destroy
  00015	83 c4 04	 add	 esp, 4
  00018	f6 45 08 01	 test	 BYTE PTR ___flags$[ebp], 1
  0001c	74 0b		 je	 SHORT $LN18@scalar
  0001e	6a 0c		 push	 12			; 0000000cH
  00020	56		 push	 esi
  00021	e8 00 00 00 00	 call	 ??3@YAXPAXI@Z		; operator delete
  00026	83 c4 08	 add	 esp, 8
$LN18@scalar:
  00029	8b c6		 mov	 eax, esi
  0002b	5e		 pop	 esi
  0002c	5d		 pop	 ebp
  0002d	c2 04 00	 ret	 4
??_Gbad_array_new_length@std@@UAEPAXI@Z ENDP		; std::bad_array_new_length::`scalar deleting destructor'
_TEXT	ENDS
; Function compile flags: /Ogtp
; File C:\Program Files\Microsoft Visual Studio\2022\Professional\VC\Tools\MSVC\14.44.35207\include\vcruntime_exception.h
;	COMDAT ??0bad_array_new_length@std@@QAE@ABV01@@Z
_TEXT	SEGMENT
___that$ = 8						; size = 4
??0bad_array_new_length@std@@QAE@ABV01@@Z PROC		; std::bad_array_new_length::bad_array_new_length, COMDAT
; _this$ = ecx
  00000	55		 push	 ebp
  00001	8b ec		 mov	 ebp, esp

; 73   :     {

  00003	56		 push	 esi
  00004	8b f1		 mov	 esi, ecx
  00006	0f 57 c0	 xorps	 xmm0, xmm0

; 72   :         : _Data()

  00009	8d 46 04	 lea	 eax, DWORD PTR [esi+4]

; 74   :         __std_exception_copy(&_Other._Data, &_Data);

  0000c	50		 push	 eax
  0000d	c7 06 00 00 00
	00		 mov	 DWORD PTR [esi], OFFSET ??_7exception@std@@6B@
  00013	66 0f d6 00	 movq	 QWORD PTR [eax], xmm0
  00017	8b 45 08	 mov	 eax, DWORD PTR ___that$[ebp]
  0001a	83 c0 04	 add	 eax, 4
  0001d	50		 push	 eax
  0001e	e8 00 00 00 00	 call	 ___std_exception_copy
  00023	83 c4 08	 add	 esp, 8
  00026	c7 06 00 00 00
	00		 mov	 DWORD PTR [esi], OFFSET ??_7bad_array_new_length@std@@6B@
  0002c	8b c6		 mov	 eax, esi
  0002e	5e		 pop	 esi
  0002f	5d		 pop	 ebp
  00030	c2 04 00	 ret	 4
??0bad_array_new_length@std@@QAE@ABV01@@Z ENDP		; std::bad_array_new_length::bad_array_new_length
_TEXT	ENDS
; Function compile flags: /Ogtp
; File C:\Program Files\Microsoft Visual Studio\2022\Professional\VC\Tools\MSVC\14.44.35207\include\vcruntime_exception.h
;	COMDAT ??1bad_array_new_length@std@@UAE@XZ
_TEXT	SEGMENT
??1bad_array_new_length@std@@UAE@XZ PROC		; std::bad_array_new_length::~bad_array_new_length, COMDAT
; _this$ = ecx

; 91   :         __std_exception_destroy(&_Data);

  00000	8d 41 04	 lea	 eax, DWORD PTR [ecx+4]
  00003	c7 01 00 00 00
	00		 mov	 DWORD PTR [ecx], OFFSET ??_7exception@std@@6B@
  00009	50		 push	 eax
  0000a	e8 00 00 00 00	 call	 ___std_exception_destroy
  0000f	59		 pop	 ecx
  00010	c3		 ret	 0
??1bad_array_new_length@std@@UAE@XZ ENDP		; std::bad_array_new_length::~bad_array_new_length
_TEXT	ENDS
; Function compile flags: /Ogtp
; File C:\Program Files\Microsoft Visual Studio\2022\Professional\VC\Tools\MSVC\14.44.35207\include\vcruntime_exception.h
;	COMDAT ??0bad_array_new_length@std@@QAE@XZ
_TEXT	SEGMENT
??0bad_array_new_length@std@@QAE@XZ PROC		; std::bad_array_new_length::bad_array_new_length, COMDAT
; _this$ = ecx

; 144  :     {

  00000	0f 57 c0	 xorps	 xmm0, xmm0

; 145  :     }

  00003	8b c1		 mov	 eax, ecx

; 66   :         : _Data()

  00005	66 0f d6 41 04	 movq	 QWORD PTR [ecx+4], xmm0

; 67   :     {
; 68   :         _Data._What = _Message;

  0000a	c7 41 04 00 00
	00 00		 mov	 DWORD PTR [ecx+4], OFFSET ??_C@_0BF@KINCDENJ@bad?5array?5new?5length@

; 144  :     {

  00011	c7 01 00 00 00
	00		 mov	 DWORD PTR [ecx], OFFSET ??_7bad_array_new_length@std@@6B@

; 145  :     }

  00017	c3		 ret	 0
??0bad_array_new_length@std@@QAE@XZ ENDP		; std::bad_array_new_length::bad_array_new_length
_TEXT	ENDS
; Function compile flags: /Ogtp
; File C:\Program Files\Microsoft Visual Studio\2022\Professional\VC\Tools\MSVC\14.44.35207\include\vcruntime_exception.h
;	COMDAT ??_Gbad_alloc@std@@UAEPAXI@Z
_TEXT	SEGMENT
___flags$ = 8						; size = 4
??_Gbad_alloc@std@@UAEPAXI@Z PROC			; std::bad_alloc::`scalar deleting destructor', COMDAT
; _this$ = ecx
  00000	55		 push	 ebp
  00001	8b ec		 mov	 ebp, esp

; 90   :     {

  00003	56		 push	 esi
  00004	8b f1		 mov	 esi, ecx

; 91   :         __std_exception_destroy(&_Data);

  00006	8d 46 04	 lea	 eax, DWORD PTR [esi+4]
  00009	c7 06 00 00 00
	00		 mov	 DWORD PTR [esi], OFFSET ??_7exception@std@@6B@
  0000f	50		 push	 eax
  00010	e8 00 00 00 00	 call	 ___std_exception_destroy
  00015	83 c4 04	 add	 esp, 4
  00018	f6 45 08 01	 test	 BYTE PTR ___flags$[ebp], 1
  0001c	74 0b		 je	 SHORT $LN13@scalar
  0001e	6a 0c		 push	 12			; 0000000cH
  00020	56		 push	 esi
  00021	e8 00 00 00 00	 call	 ??3@YAXPAXI@Z		; operator delete
  00026	83 c4 08	 add	 esp, 8
$LN13@scalar:
  00029	8b c6		 mov	 eax, esi
  0002b	5e		 pop	 esi
  0002c	5d		 pop	 ebp
  0002d	c2 04 00	 ret	 4
??_Gbad_alloc@std@@UAEPAXI@Z ENDP			; std::bad_alloc::`scalar deleting destructor'
_TEXT	ENDS
; Function compile flags: /Ogtp
; File C:\Program Files\Microsoft Visual Studio\2022\Professional\VC\Tools\MSVC\14.44.35207\include\vcruntime_exception.h
;	COMDAT ??0bad_alloc@std@@QAE@ABV01@@Z
_TEXT	SEGMENT
___that$ = 8						; size = 4
??0bad_alloc@std@@QAE@ABV01@@Z PROC			; std::bad_alloc::bad_alloc, COMDAT
; _this$ = ecx
  00000	55		 push	 ebp
  00001	8b ec		 mov	 ebp, esp

; 73   :     {

  00003	56		 push	 esi
  00004	8b f1		 mov	 esi, ecx
  00006	0f 57 c0	 xorps	 xmm0, xmm0

; 72   :         : _Data()

  00009	8d 46 04	 lea	 eax, DWORD PTR [esi+4]

; 74   :         __std_exception_copy(&_Other._Data, &_Data);

  0000c	50		 push	 eax
  0000d	c7 06 00 00 00
	00		 mov	 DWORD PTR [esi], OFFSET ??_7exception@std@@6B@
  00013	66 0f d6 00	 movq	 QWORD PTR [eax], xmm0
  00017	8b 45 08	 mov	 eax, DWORD PTR ___that$[ebp]
  0001a	83 c0 04	 add	 eax, 4
  0001d	50		 push	 eax
  0001e	e8 00 00 00 00	 call	 ___std_exception_copy
  00023	83 c4 08	 add	 esp, 8
  00026	c7 06 00 00 00
	00		 mov	 DWORD PTR [esi], OFFSET ??_7bad_alloc@std@@6B@
  0002c	8b c6		 mov	 eax, esi
  0002e	5e		 pop	 esi
  0002f	5d		 pop	 ebp
  00030	c2 04 00	 ret	 4
??0bad_alloc@std@@QAE@ABV01@@Z ENDP			; std::bad_alloc::bad_alloc
_TEXT	ENDS
; Function compile flags: /Ogtp
; File C:\Program Files\Microsoft Visual Studio\2022\Professional\VC\Tools\MSVC\14.44.35207\include\vcruntime_exception.h
;	COMDAT ??_Gexception@std@@UAEPAXI@Z
_TEXT	SEGMENT
___flags$ = 8						; size = 4
??_Gexception@std@@UAEPAXI@Z PROC			; std::exception::`scalar deleting destructor', COMDAT
; _this$ = ecx
  00000	55		 push	 ebp
  00001	8b ec		 mov	 ebp, esp

; 90   :     {

  00003	56		 push	 esi
  00004	8b f1		 mov	 esi, ecx

; 91   :         __std_exception_destroy(&_Data);

  00006	8d 46 04	 lea	 eax, DWORD PTR [esi+4]
  00009	c7 06 00 00 00
	00		 mov	 DWORD PTR [esi], OFFSET ??_7exception@std@@6B@
  0000f	50		 push	 eax
  00010	e8 00 00 00 00	 call	 ___std_exception_destroy
  00015	83 c4 04	 add	 esp, 4
  00018	f6 45 08 01	 test	 BYTE PTR ___flags$[ebp], 1
  0001c	74 0b		 je	 SHORT $LN8@scalar
  0001e	6a 0c		 push	 12			; 0000000cH
  00020	56		 push	 esi
  00021	e8 00 00 00 00	 call	 ??3@YAXPAXI@Z		; operator delete
  00026	83 c4 08	 add	 esp, 8
$LN8@scalar:
  00029	8b c6		 mov	 eax, esi
  0002b	5e		 pop	 esi
  0002c	5d		 pop	 ebp
  0002d	c2 04 00	 ret	 4
??_Gexception@std@@UAEPAXI@Z ENDP			; std::exception::`scalar deleting destructor'
_TEXT	ENDS
; Function compile flags: /Ogtp
; File C:\Program Files\Microsoft Visual Studio\2022\Professional\VC\Tools\MSVC\14.44.35207\include\vcruntime_exception.h
;	COMDAT ?what@exception@std@@UBEPBDXZ
_TEXT	SEGMENT
?what@exception@std@@UBEPBDXZ PROC			; std::exception::what, COMDAT
; _this$ = ecx

; 96   :         return _Data._What ? _Data._What : "Unknown exception";

  00000	8b 49 04	 mov	 ecx, DWORD PTR [ecx+4]
  00003	b8 00 00 00 00	 mov	 eax, OFFSET ??_C@_0BC@EOODALEL@Unknown?5exception@
  00008	85 c9		 test	 ecx, ecx
  0000a	0f 45 c1	 cmovne	 eax, ecx

; 97   :     }

  0000d	c3		 ret	 0
?what@exception@std@@UBEPBDXZ ENDP			; std::exception::what
_TEXT	ENDS
; Function compile flags: /Ogtp
; File C:\Program Files\Microsoft Visual Studio\2022\Professional\VC\Tools\MSVC\14.44.35207\include\vcruntime_exception.h
;	COMDAT ??1exception@std@@UAE@XZ
_TEXT	SEGMENT
??1exception@std@@UAE@XZ PROC				; std::exception::~exception, COMDAT
; _this$ = ecx

; 91   :         __std_exception_destroy(&_Data);

  00000	8d 41 04	 lea	 eax, DWORD PTR [ecx+4]
  00003	c7 01 00 00 00
	00		 mov	 DWORD PTR [ecx], OFFSET ??_7exception@std@@6B@
  00009	50		 push	 eax
  0000a	e8 00 00 00 00	 call	 ___std_exception_destroy
  0000f	59		 pop	 ecx

; 92   :     }

  00010	c3		 ret	 0
??1exception@std@@UAE@XZ ENDP				; std::exception::~exception
_TEXT	ENDS
; Function compile flags: /Ogtp
; File C:\Program Files\Microsoft Visual Studio\2022\Professional\VC\Tools\MSVC\14.44.35207\include\vcruntime_exception.h
;	COMDAT ??0exception@std@@QAE@ABV01@@Z
_TEXT	SEGMENT
__Other$ = 8						; size = 4
??0exception@std@@QAE@ABV01@@Z PROC			; std::exception::exception, COMDAT
; _this$ = ecx

; 73   :     {

  00000	55		 push	 ebp
  00001	8b ec		 mov	 ebp, esp
  00003	56		 push	 esi
  00004	8b f1		 mov	 esi, ecx
  00006	0f 57 c0	 xorps	 xmm0, xmm0
  00009	8d 46 04	 lea	 eax, DWORD PTR [esi+4]

; 74   :         __std_exception_copy(&_Other._Data, &_Data);

  0000c	50		 push	 eax
  0000d	c7 06 00 00 00
	00		 mov	 DWORD PTR [esi], OFFSET ??_7exception@std@@6B@
  00013	66 0f d6 00	 movq	 QWORD PTR [eax], xmm0
  00017	8b 45 08	 mov	 eax, DWORD PTR __Other$[ebp]
  0001a	83 c0 04	 add	 eax, 4
  0001d	50		 push	 eax
  0001e	e8 00 00 00 00	 call	 ___std_exception_copy
  00023	83 c4 08	 add	 esp, 8

; 75   :     }

  00026	8b c6		 mov	 eax, esi
  00028	5e		 pop	 esi
  00029	5d		 pop	 ebp
  0002a	c2 04 00	 ret	 4
??0exception@std@@QAE@ABV01@@Z ENDP			; std::exception::exception
_TEXT	ENDS
; Function compile flags: /Ogtp
; File C:\Program Files\Microsoft Visual Studio\2022\Professional\VC\Tools\MSVC\14.44.35207\atlmfc\include\cstringt.h
; File C:\Program Files\Microsoft Visual Studio\2022\Professional\VC\Tools\MSVC\14.44.35207\atlmfc\include\afxstr.h
; File C:\Program Files\Microsoft Visual Studio\2022\Professional\VC\Tools\MSVC\14.44.35207\atlmfc\include\cstringt.h
; File C:\Program Files\Microsoft Visual Studio\2022\Professional\VC\Tools\MSVC\14.44.35207\atlmfc\include\afxstr.h
; File C:\Program Files\Microsoft Visual Studio\2022\Professional\VC\Tools\MSVC\14.44.35207\atlmfc\include\cstringt.h
; File C:\Program Files\Microsoft Visual Studio\2022\Professional\VC\Tools\MSVC\14.44.35207\atlmfc\include\atlcore.h
; File C:\Program Files\Microsoft Visual Studio\2022\Professional\VC\Tools\MSVC\14.44.35207\atlmfc\include\cstringt.h
; File C:\Program Files\Microsoft Visual Studio\2022\Professional\VC\Tools\MSVC\14.44.35207\atlmfc\include\atlsimpstr.h
; File C:\Program Files\Microsoft Visual Studio\2022\Professional\VC\Tools\MSVC\14.44.35207\atlmfc\include\cstringt.h
; File C:\Program Files\Microsoft Visual Studio\2022\Professional\VC\Tools\MSVC\14.44.35207\atlmfc\include\atlsimpstr.h
; File C:\Program Files\Microsoft Visual Studio\2022\Professional\VC\Tools\MSVC\14.44.35207\atlmfc\include\cstringt.h
; File C:\Program Files\Microsoft Visual Studio\2022\Professional\VC\Tools\MSVC\14.44.35207\atlmfc\include\atlsimpstr.h
; File C:\Program Files\Microsoft Visual Studio\2022\Professional\VC\Tools\MSVC\14.44.35207\atlmfc\include\cstringt.h
; File C:\Program Files\Microsoft Visual Studio\2022\Professional\VC\Tools\MSVC\14.44.35207\atlmfc\include\atlsimpstr.h
; File C:\Program Files\Microsoft Visual Studio\2022\Professional\VC\Tools\MSVC\14.44.35207\atlmfc\include\cstringt.h
;	COMDAT ?LoadStringA@?$CStringT@DV?$StrTraitMFC@DV?$ChTraitsCRT@D@ATL@@@@@ATL@@QAEHI@Z
_TEXT	SEGMENT
_this$1$ = -4						; size = 4
_nID$ = 8						; size = 4
_hResource$1$ = 8					; size = 4
?LoadStringA@?$CStringT@DV?$StrTraitMFC@DV?$ChTraitsCRT@D@ATL@@@@@ATL@@QAEHI@Z PROC ; ATL::CStringT<char,StrTraitMFC<char,ATL::ChTraitsCRT<char> > >::LoadStringA, COMDAT
; _this$ = ecx

; 2340 : 	{

  00000	55		 push	 ebp
  00001	8b ec		 mov	 ebp, esp
  00003	51		 push	 ecx
  00004	53		 push	 ebx
  00005	57		 push	 edi
; File C:\Program Files\Microsoft Visual Studio\2022\Professional\VC\Tools\MSVC\14.44.35207\atlmfc\include\afxstr.h

; 51   : 		return( AfxFindStringResourceHandle( nID ) );

  00006	8b 7d 08	 mov	 edi, DWORD PTR _nID$[ebp]
  00009	57		 push	 edi
; File C:\Program Files\Microsoft Visual Studio\2022\Professional\VC\Tools\MSVC\14.44.35207\atlmfc\include\cstringt.h

; 2340 : 	{

  0000a	89 4d fc	 mov	 DWORD PTR _this$1$[ebp], ecx
; File C:\Program Files\Microsoft Visual Studio\2022\Professional\VC\Tools\MSVC\14.44.35207\atlmfc\include\afxstr.h

; 51   : 		return( AfxFindStringResourceHandle( nID ) );

  0000d	e8 00 00 00 00	 call	 ?AfxFindStringResourceHandle@@YGPAUHINSTANCE__@@I@Z ; AfxFindStringResourceHandle
; File C:\Program Files\Microsoft Visual Studio\2022\Professional\VC\Tools\MSVC\14.44.35207\atlmfc\include\cstringt.h

; 2341 : 		HINSTANCE hInstance = StringTraits::FindStringResourceInstance( nID );

  00012	8b d8		 mov	 ebx, eax

; 2342 : 		if( hInstance == NULL )

  00014	85 db		 test	 ebx, ebx
  00016	75 08		 jne	 SHORT $LN2@LoadString

; 2348 : 	}

  00018	5f		 pop	 edi
  00019	5b		 pop	 ebx
  0001a	8b e5		 mov	 esp, ebp
  0001c	5d		 pop	 ebp
  0001d	c2 04 00	 ret	 4
$LN2@LoadString:
; File C:\Program Files\Microsoft Visual Studio\2022\Professional\VC\Tools\MSVC\14.44.35207\atlmfc\include\atlcore.h

; 380  : 	hResource = ::FindResourceW(hInstance, MAKEINTRESOURCEW( (((id>>4)+1) & static_cast<WORD>(~0)) ), (LPWSTR) RT_STRING);

  00020	8b c7		 mov	 eax, edi
  00022	c1 e8 04	 shr	 eax, 4
  00025	56		 push	 esi
  00026	40		 inc	 eax
  00027	6a 06		 push	 6
  00029	0f b7 c0	 movzx	 eax, ax
  0002c	50		 push	 eax
  0002d	53		 push	 ebx
  0002e	ff 15 00 00 00
	00		 call	 DWORD PTR __imp__FindResourceW@12
  00034	89 45 08	 mov	 DWORD PTR _hResource$1$[ebp], eax

; 381  : 	if( hResource == NULL )

  00037	85 c0		 test	 eax, eax
  00039	0f 84 cc 00 00
	00		 je	 $LN51@LoadString

; 338  : 	hGlobal = ::LoadResource( hInstance, hResource );

  0003f	50		 push	 eax
  00040	53		 push	 ebx
  00041	ff 15 00 00 00
	00		 call	 DWORD PTR __imp__LoadResource@8

; 339  : 	if( hGlobal == NULL )

  00047	85 c0		 test	 eax, eax
  00049	75 04		 jne	 SHORT $LN15@LoadString

; 340  : 	{
; 341  : 		return( NULL );

  0004b	33 f6		 xor	 esi, esi
  0004d	eb 43		 jmp	 SHORT $LN18@LoadString
$LN15@LoadString:

; 342  : 	}
; 343  : 
; 344  : 	pImage = (const ATLSTRINGRESOURCEIMAGE*)::LockResource( hGlobal );

  0004f	50		 push	 eax
  00050	ff 15 00 00 00
	00		 call	 DWORD PTR __imp__LockResource@4
  00056	8b f0		 mov	 esi, eax

; 345  : 	if( pImage == NULL )

  00058	85 f6		 test	 esi, esi
  0005a	74 36		 je	 SHORT $LN18@LoadString
$LN16@LoadString:

; 346  : 	{
; 347  : 		return( NULL );
; 348  : 	}
; 349  : 
; 350  : 	nResourceSize = ::SizeofResource( hInstance, hResource );

  0005c	ff 75 08	 push	 DWORD PTR _hResource$1$[ebp]
  0005f	53		 push	 ebx
  00060	ff 15 00 00 00
	00		 call	 DWORD PTR __imp__SizeofResource@8

; 351  : 	pImageEnd = (const ATLSTRINGRESOURCEIMAGE*)(LPBYTE( pImage )+nResourceSize);

  00066	8d 0c 06	 lea	 ecx, DWORD PTR [esi+eax]

; 352  : 	iIndex = id&0x000f;

  00069	83 e7 0f	 and	 edi, 15			; 0000000fH

; 353  : 
; 354  : 	while( (iIndex > 0) && (pImage < pImageEnd) )

  0006c	76 14		 jbe	 SHORT $LN14@LoadString
  0006e	66 90		 npad	 2
$LL13@LoadString:
  00070	3b f1		 cmp	 esi, ecx
  00072	73 12		 jae	 SHORT $LN50@LoadString

; 355  : 	{
; 356  : 		pImage = (const ATLSTRINGRESOURCEIMAGE*)(LPBYTE( pImage )+(sizeof( ATLSTRINGRESOURCEIMAGE )+(pImage->nLength*sizeof( WCHAR ))));

  00074	0f b7 06	 movzx	 eax, WORD PTR [esi]
  00077	8d 34 46	 lea	 esi, DWORD PTR [esi+eax*2]
  0007a	83 c6 02	 add	 esi, 2

; 357  : 		iIndex--;

  0007d	83 ef 01	 sub	 edi, 1
  00080	75 ee		 jne	 SHORT $LL13@LoadString
$LN14@LoadString:

; 358  : 	}
; 359  : 	if( pImage >= pImageEnd )

  00082	3b f1		 cmp	 esi, ecx
  00084	72 04		 jb	 SHORT $LN17@LoadString
$LN50@LoadString:

; 360  : 	{
; 361  : 		return( NULL );

  00086	33 f6		 xor	 esi, esi
  00088	eb 08		 jmp	 SHORT $LN18@LoadString
$LN17@LoadString:

; 362  : 	}
; 363  : 	if( pImage->nLength == 0 )

  0008a	33 c0		 xor	 eax, eax
  0008c	66 39 06	 cmp	 WORD PTR [esi], ax
  0008f	0f 44 f0	 cmove	 esi, eax
$LN18@LoadString:
; File C:\Program Files\Microsoft Visual Studio\2022\Professional\VC\Tools\MSVC\14.44.35207\atlmfc\include\cstringt.h

; 2356 : 		if( pImage == NULL )

  00092	85 f6		 test	 esi, esi
  00094	74 75		 je	 SHORT $LN51@LoadString

; 2359 : 		}
; 2360 : 
; 2361 : 		int nLength = StringTraits::GetBaseTypeLength( pImage->achString, pImage->nLength );

  00096	0f b7 06	 movzx	 eax, WORD PTR [esi]
  00099	8d 4e 02	 lea	 ecx, DWORD PTR [esi+2]

; 350  : 		return ::WideCharToMultiByte( _AtlGetConversionACP(), 0, pszSource, nLength, NULL, 0, NULL, NULL );

  0009c	6a 00		 push	 0
  0009e	6a 00		 push	 0
  000a0	6a 00		 push	 0
  000a2	6a 00		 push	 0
  000a4	50		 push	 eax
  000a5	51		 push	 ecx
  000a6	6a 00		 push	 0
  000a8	6a 03		 push	 3
  000aa	ff 15 00 00 00
	00		 call	 DWORD PTR __imp__WideCharToMultiByte@32

; 2361 : 		int nLength = StringTraits::GetBaseTypeLength( pImage->achString, pImage->nLength );

  000b0	8b f8		 mov	 edi, eax
; File C:\Program Files\Microsoft Visual Studio\2022\Professional\VC\Tools\MSVC\14.44.35207\atlmfc\include\atlsimpstr.h

; 808  : 		if (nLength < 0)

  000b2	85 ff		 test	 edi, edi
  000b4	78 60		 js	 SHORT $LN38@LoadString

; 804  : 		return( reinterpret_cast< CStringData* >( m_pszData )-1 );

  000b6	8b 5d fc	 mov	 ebx, DWORD PTR _this$1$[ebp]

; 812  : 		int nShared = 1-pOldData->nRefs;  // nShared < 0 means true, >= 0 means false

  000b9	ba 01 00 00 00	 mov	 edx, 1

; 804  : 		return( reinterpret_cast< CStringData* >( m_pszData )-1 );

  000be	8b 0b		 mov	 ecx, DWORD PTR [ebx]

; 812  : 		int nShared = 1-pOldData->nRefs;  // nShared < 0 means true, >= 0 means false

  000c0	2b 51 fc	 sub	 edx, DWORD PTR [ecx-4]

; 813  : 		int nTooShort = pOldData->nAllocLength-nLength;  // nTooShort < 0 means true, >= 0 means false

  000c3	8b 49 f8	 mov	 ecx, DWORD PTR [ecx-8]
  000c6	2b cf		 sub	 ecx, edi

; 814  : 		if( (nShared|nTooShort) < 0 )  // If either sign bit is set (i.e. either is less than zero), we need to copy data

  000c8	0b d1		 or	 edx, ecx
  000ca	7d 08		 jge	 SHORT $LN26@LoadString

; 815  : 		{
; 816  : 			PrepareWrite2( nLength );

  000cc	57		 push	 edi
  000cd	8b cb		 mov	 ecx, ebx
  000cf	e8 00 00 00 00	 call	 ?PrepareWrite2@?$CSimpleStringT@D$0A@@ATL@@AAEXH@Z ; ATL::CSimpleStringT<char,0>::PrepareWrite2
$LN26@LoadString:
; File C:\Program Files\Microsoft Visual Studio\2022\Professional\VC\Tools\MSVC\14.44.35207\atlmfc\include\cstringt.h

; 2363 : 		StringTraits::ConvertToBaseType( pszBuffer, nLength, pImage->achString, pImage->nLength );

  000d4	0f b7 06	 movzx	 eax, WORD PTR [esi]

; 372  : 		::WideCharToMultiByte( _AtlGetConversionACP(), 0, pszSrc, nSrcLength, pszDest, nDestLength, NULL, NULL );

  000d7	6a 00		 push	 0
  000d9	6a 00		 push	 0
  000db	57		 push	 edi
  000dc	ff 33		 push	 DWORD PTR [ebx]
  000de	50		 push	 eax
  000df	8d 46 02	 lea	 eax, DWORD PTR [esi+2]
  000e2	50		 push	 eax
  000e3	6a 00		 push	 0
  000e5	6a 03		 push	 3
  000e7	ff 15 00 00 00
	00		 call	 DWORD PTR __imp__WideCharToMultiByte@32
; File C:\Program Files\Microsoft Visual Studio\2022\Professional\VC\Tools\MSVC\14.44.35207\atlmfc\include\atlsimpstr.h

; 875  : 		if( nLength < 0 || nLength > GetData()->nAllocLength)

  000ed	8b 03		 mov	 eax, DWORD PTR [ebx]
  000ef	3b 78 f8	 cmp	 edi, DWORD PTR [eax-8]
  000f2	7f 22		 jg	 SHORT $LN38@LoadString

; 877  : 
; 878  : 		GetData()->nDataLength = nLength;

  000f4	89 78 f4	 mov	 DWORD PTR [eax-12], edi

; 879  : 		m_pszData[nLength] = 0;

  000f7	8b 03		 mov	 eax, DWORD PTR [ebx]
; File C:\Program Files\Microsoft Visual Studio\2022\Professional\VC\Tools\MSVC\14.44.35207\atlmfc\include\cstringt.h

; 2347 : 		return( LoadString( hInstance, nID ) );

  000f9	5e		 pop	 esi
; File C:\Program Files\Microsoft Visual Studio\2022\Professional\VC\Tools\MSVC\14.44.35207\atlmfc\include\atlsimpstr.h

; 879  : 		m_pszData[nLength] = 0;

  000fa	c6 04 07 00	 mov	 BYTE PTR [edi+eax], 0
; File C:\Program Files\Microsoft Visual Studio\2022\Professional\VC\Tools\MSVC\14.44.35207\atlmfc\include\cstringt.h

; 2366 : 		return( TRUE );

  000fe	b8 01 00 00 00	 mov	 eax, 1
  00103	5f		 pop	 edi

; 2348 : 	}

  00104	5b		 pop	 ebx
  00105	8b e5		 mov	 esp, ebp
  00107	5d		 pop	 ebp
  00108	c2 04 00	 ret	 4
$LN51@LoadString:

; 2347 : 		return( LoadString( hInstance, nID ) );

  0010b	5e		 pop	 esi
  0010c	5f		 pop	 edi

; 2358 : 			return( FALSE );

  0010d	33 c0		 xor	 eax, eax

; 2348 : 	}

  0010f	5b		 pop	 ebx
  00110	8b e5		 mov	 esp, ebp
  00112	5d		 pop	 ebp
  00113	c2 04 00	 ret	 4
$LN38@LoadString:
; File C:\Program Files\Microsoft Visual Studio\2022\Professional\VC\Tools\MSVC\14.44.35207\atlmfc\include\atlsimpstr.h

; 876  : 			AtlThrow(E_INVALIDARG);

  00116	68 57 00 07 80	 push	 -2147024809		; 80070057H
  0011b	e8 00 00 00 00	 call	 ?AtlThrowImpl@ATL@@YGXJ@Z ; ATL::AtlThrowImpl
$LN63@LoadString:
  00120	cc		 int	 3
?LoadStringA@?$CStringT@DV?$StrTraitMFC@DV?$ChTraitsCRT@D@ATL@@@@@ATL@@QAEHI@Z ENDP ; ATL::CStringT<char,StrTraitMFC<char,ATL::ChTraitsCRT<char> > >::LoadStringA
_TEXT	ENDS
; Function compile flags: /Ogtp
; File C:\Program Files\Microsoft Visual Studio\2022\Professional\VC\Tools\MSVC\14.44.35207\atlmfc\include\cstringt.h
; File C:\Program Files (x86)\Windows Kits\10\Include\10.0.26100.0\ucrt\stdio.h
; File C:\Program Files\Microsoft Visual Studio\2022\Professional\VC\Tools\MSVC\14.44.35207\atlmfc\include\cstringt.h
; File C:\Program Files\Microsoft Visual Studio\2022\Professional\VC\Tools\MSVC\14.44.35207\atlmfc\include\atlsimpstr.h
; File C:\Program Files\Microsoft Visual Studio\2022\Professional\VC\Tools\MSVC\14.44.35207\atlmfc\include\cstringt.h
; File C:\Program Files\Microsoft Visual Studio\2022\Professional\VC\Tools\MSVC\14.44.35207\atlmfc\include\afxstr.h
; File C:\Program Files\Microsoft Visual Studio\2022\Professional\VC\Tools\MSVC\14.44.35207\atlmfc\include\cstringt.h
; File C:\Program Files\Microsoft Visual Studio\2022\Professional\VC\Tools\MSVC\14.44.35207\atlmfc\include\atlsimpstr.h
; File C:\Program Files\Microsoft Visual Studio\2022\Professional\VC\Tools\MSVC\14.44.35207\atlmfc\include\cstringt.h
; File C:\Program Files\Microsoft Visual Studio\2022\Professional\VC\Tools\MSVC\14.44.35207\atlmfc\include\atlsimpstr.h
; File C:\Program Files\Microsoft Visual Studio\2022\Professional\VC\Tools\MSVC\14.44.35207\atlmfc\include\cstringt.h
; File C:\Program Files\Microsoft Visual Studio\2022\Professional\VC\Tools\MSVC\14.44.35207\atlmfc\include\atlsimpstr.h
; File C:\Program Files (x86)\Windows Kits\10\Include\10.0.26100.0\ucrt\stdio.h
; File C:\Program Files\Microsoft Visual Studio\2022\Professional\VC\Tools\MSVC\14.44.35207\atlmfc\include\cstringt.h
; File C:\Program Files (x86)\Windows Kits\10\Include\10.0.26100.0\ucrt\stdio.h
; File C:\Program Files\Microsoft Visual Studio\2022\Professional\VC\Tools\MSVC\14.44.35207\atlmfc\include\atlsimpstr.h
; File C:\Program Files (x86)\Windows Kits\10\Include\10.0.26100.0\ucrt\stdio.h
; File C:\Program Files\Microsoft Visual Studio\2022\Professional\VC\Tools\MSVC\14.44.35207\atlmfc\include\atlsimpstr.h
; File C:\Program Files\Microsoft Visual Studio\2022\Professional\VC\Tools\MSVC\14.44.35207\atlmfc\include\cstringt.h
; File C:\Program Files\Microsoft Visual Studio\2022\Professional\VC\Tools\MSVC\14.44.35207\atlmfc\include\atlsimpstr.h
; File C:\Program Files\Microsoft Visual Studio\2022\Professional\VC\Tools\MSVC\14.44.35207\atlmfc\include\cstringt.h
; File C:\Program Files\Microsoft Visual Studio\2022\Professional\VC\Tools\MSVC\14.44.35207\atlmfc\include\atlsimpstr.h
; File C:\Program Files\Microsoft Visual Studio\2022\Professional\VC\Tools\MSVC\14.44.35207\atlmfc\include\cstringt.h
;	COMDAT ?FormatV@?$CStringT@DV?$StrTraitMFC@DV?$ChTraitsCRT@D@ATL@@@@@ATL@@QAEXPBDPAD@Z
_TEXT	SEGMENT
tv456 = -16						; size = 4
__$EHRec$ = -12						; size = 12
_pszFormat$ = 8						; size = 4
_temp$ = 8						; size = 4
_args$ = 12						; size = 4
?FormatV@?$CStringT@DV?$StrTraitMFC@DV?$ChTraitsCRT@D@ATL@@@@@ATL@@QAEXPBDPAD@Z PROC ; ATL::CStringT<char,StrTraitMFC<char,ATL::ChTraitsCRT<char> > >::FormatV, COMDAT
; _this$ = ecx

; 2225 : 	{

  00000	55		 push	 ebp
  00001	8b ec		 mov	 ebp, esp
  00003	6a ff		 push	 -1
  00005	68 00 00 00 00	 push	 __ehhandler$?FormatV@?$CStringT@DV?$StrTraitMFC@DV?$ChTraitsCRT@D@ATL@@@@@ATL@@QAEXPBDPAD@Z
  0000a	64 a1 00 00 00
	00		 mov	 eax, DWORD PTR fs:0
  00010	50		 push	 eax
  00011	51		 push	 ecx
  00012	53		 push	 ebx
  00013	56		 push	 esi
  00014	57		 push	 edi
  00015	a1 00 00 00 00	 mov	 eax, DWORD PTR ___security_cookie
  0001a	33 c5		 xor	 eax, ebp
  0001c	50		 push	 eax
  0001d	8d 45 f4	 lea	 eax, DWORD PTR __$EHRec$[ebp]
  00020	64 a3 00 00 00
	00		 mov	 DWORD PTR fs:0, eax
  00026	8b d9		 mov	 ebx, ecx

; 2226 : 		ATLASSERT( AtlIsValidString( pszFormat ) );
; 2227 : 		if(pszFormat == NULL)

  00028	8b 75 08	 mov	 esi, DWORD PTR _pszFormat$[ebp]
  0002b	85 f6		 test	 esi, esi
  0002d	0f 84 2e 01 00
	00		 je	 $LN70@FormatV
; File C:\Program Files (x86)\Windows Kits\10\Include\10.0.26100.0\ucrt\stdio.h

; 1652 :         int const _Result = __stdio_common_vsprintf(

  00033	e8 00 00 00 00	 call	 ___local_stdio_printf_options
  00038	ff 75 0c	 push	 DWORD PTR _args$[ebp]
  0003b	89 45 f0	 mov	 DWORD PTR tv456[ebp], eax
  0003e	6a 00		 push	 0
  00040	8b 08		 mov	 ecx, DWORD PTR [eax]
  00042	56		 push	 esi
  00043	6a 00		 push	 0
  00045	6a 00		 push	 0
  00047	ff 70 04	 push	 DWORD PTR [eax+4]
  0004a	83 c9 02	 or	 ecx, 2
  0004d	51		 push	 ecx
  0004e	e8 00 00 00 00	 call	 ___stdio_common_vsprintf
  00053	8b f8		 mov	 edi, eax
  00055	83 c4 1c	 add	 esp, 28			; 0000001cH

; 1653 :             _CRT_INTERNAL_LOCAL_PRINTF_OPTIONS | _CRT_INTERNAL_PRINTF_STANDARD_SNPRINTF_BEHAVIOR,
; 1654 :             NULL, 0, _Format, _Locale, _ArgList);
; 1655 : 
; 1656 :         return _Result < 0 ? -1 : _Result;

  00058	83 c8 ff	 or	 eax, -1
  0005b	85 ff		 test	 edi, edi
  0005d	0f 48 f8	 cmovs	 edi, eax
; File C:\Program Files\Microsoft Visual Studio\2022\Professional\VC\Tools\MSVC\14.44.35207\atlmfc\include\cstringt.h

; 2232 : 		if (nLength < 0)

  00060	85 ff		 test	 edi, edi
  00062	0f 88 ef 00 00
	00		 js	 $LN87@FormatV
; File C:\Program Files\Microsoft Visual Studio\2022\Professional\VC\Tools\MSVC\14.44.35207\atlmfc\include\atlsimpstr.h

; 527  : 		IAtlStringMgr* pStringMgr = GetData()->pStringMgr;

  00068	8b 03		 mov	 eax, DWORD PTR [ebx]
  0006a	8b 48 f0	 mov	 ecx, DWORD PTR [eax-16]

; 528  : 		return pStringMgr ? pStringMgr->Clone() : NULL;

  0006d	85 c9		 test	 ecx, ecx
  0006f	74 0b		 je	 SHORT $LN13@FormatV
  00071	8b 01		 mov	 eax, DWORD PTR [ecx]
  00073	ff 50 10	 call	 DWORD PTR [eax+16]
  00076	8b c8		 mov	 ecx, eax
; File C:\Program Files\Microsoft Visual Studio\2022\Professional\VC\Tools\MSVC\14.44.35207\atlmfc\include\cstringt.h

; 1442 : 		if(pStringMgr) { return pStringMgr; }

  00078	85 c9		 test	 ecx, ecx
  0007a	75 16		 jne	 SHORT $LN28@FormatV
$LN13@FormatV:
; File C:\Program Files\Microsoft Visual Studio\2022\Professional\VC\Tools\MSVC\14.44.35207\atlmfc\include\afxstr.h

; 56   : 		return( AfxGetStringManager() );

  0007c	e8 00 00 00 00	 call	 ?AfxGetStringManager@@YGPAUIAtlStringMgr@ATL@@XZ ; AfxGetStringManager
; File C:\Program Files\Microsoft Visual Studio\2022\Professional\VC\Tools\MSVC\14.44.35207\atlmfc\include\cstringt.h

; 1445 : 		return pStringMgr->Clone();

  00081	8b c8		 mov	 ecx, eax
  00083	8b 10		 mov	 edx, DWORD PTR [eax]
  00085	ff 52 10	 call	 DWORD PTR [edx+16]
  00088	8b c8		 mov	 ecx, eax
; File C:\Program Files\Microsoft Visual Studio\2022\Professional\VC\Tools\MSVC\14.44.35207\atlmfc\include\atlsimpstr.h

; 209  : 		ATLENSURE( pStringMgr != NULL );

  0008a	85 c9		 test	 ecx, ecx
  0008c	0f 84 c5 00 00
	00		 je	 $LN87@FormatV
$LN28@FormatV:

; 210  : 		CStringData* pData = pStringMgr->GetNilString();

  00092	8b 01		 mov	 eax, DWORD PTR [ecx]
  00094	ff 50 0c	 call	 DWORD PTR [eax+12]

; 211  : 		Attach( pData );

  00097	83 c0 10	 add	 eax, 16			; 00000010H
  0009a	89 45 08	 mov	 DWORD PTR _temp$[ebp], eax
; File C:\Program Files\Microsoft Visual Studio\2022\Professional\VC\Tools\MSVC\14.44.35207\atlmfc\include\cstringt.h

; 1063 : 		CThisSimpleString( pStringMgr )

  0009d	c7 45 fc 00 00
	00 00		 mov	 DWORD PTR __$EHRec$[ebp+8], 0

; 2712 : 		if( (pv != NULL) && IS_INTRESOURCE( pv ) )

  000a4	f7 c6 00 00 ff
	ff		 test	 esi, -65536		; ffff0000H
  000aa	75 0e		 jne	 SHORT $LN86@FormatV

; 2713 : 		{
; 2714 : 			UINT nID = LOWORD( reinterpret_cast< DWORD_PTR >( pv ) );

  000ac	0f b7 c6	 movzx	 eax, si

; 2715 : 			(nID);
; 2716 : #ifdef _ATL_USE_WINAPI_FAMILY_DESKTOP_APP
; 2717 : 			if( !LoadString( nID ) )

  000af	8d 4d 08	 lea	 ecx, DWORD PTR _temp$[ebp]
  000b2	50		 push	 eax
  000b3	e8 00 00 00 00	 call	 ?LoadStringA@?$CStringT@DV?$StrTraitMFC@DV?$ChTraitsCRT@D@ATL@@@@@ATL@@QAEHI@Z ; ATL::CStringT<char,StrTraitMFC<char,ATL::ChTraitsCRT<char> > >::LoadStringA

; 1065 : 		if( !CheckImplicitLoad( pszSrc ) )

  000b8	eb 19		 jmp	 SHORT $LN24@FormatV
$LN86@FormatV:
; File C:\Program Files\Microsoft Visual Studio\2022\Professional\VC\Tools\MSVC\14.44.35207\atlmfc\include\atlsimpstr.h

; 730  : 		return( int( strlen( psz ) ) );

  000ba	8b ce		 mov	 ecx, esi
  000bc	8d 51 01	 lea	 edx, DWORD PTR [ecx+1]
  000bf	90		 npad	 1
$LL89@FormatV:
  000c0	8a 01		 mov	 al, BYTE PTR [ecx]
  000c2	41		 inc	 ecx
  000c3	84 c0		 test	 al, al
  000c5	75 f9		 jne	 SHORT $LL89@FormatV
  000c7	2b ca		 sub	 ecx, edx

; 606  : 		SetString( pszSrc, StringLength( pszSrc ) );

  000c9	51		 push	 ecx
  000ca	56		 push	 esi
  000cb	8d 4d 08	 lea	 ecx, DWORD PTR _temp$[ebp]
  000ce	e8 00 00 00 00	 call	 ?SetString@?$CSimpleStringT@D$0A@@ATL@@QAEXPBDH@Z ; ATL::CSimpleStringT<char,0>::SetString
$LN24@FormatV:

; 804  : 		return( reinterpret_cast< CStringData* >( m_pszData )-1 );

  000d3	8b 03		 mov	 eax, DWORD PTR [ebx]

; 812  : 		int nShared = 1-pOldData->nRefs;  // nShared < 0 means true, >= 0 means false

  000d5	b9 01 00 00 00	 mov	 ecx, 1
; File C:\Program Files\Microsoft Visual Studio\2022\Professional\VC\Tools\MSVC\14.44.35207\atlmfc\include\cstringt.h

; 2235 : 		CStringT temp(pszFormat, this->GetManager());

  000da	c7 45 fc 01 00
	00 00		 mov	 DWORD PTR __$EHRec$[ebp+8], 1
; File C:\Program Files\Microsoft Visual Studio\2022\Professional\VC\Tools\MSVC\14.44.35207\atlmfc\include\atlsimpstr.h

; 812  : 		int nShared = 1-pOldData->nRefs;  // nShared < 0 means true, >= 0 means false

  000e1	2b 48 fc	 sub	 ecx, DWORD PTR [eax-4]

; 813  : 		int nTooShort = pOldData->nAllocLength-nLength;  // nTooShort < 0 means true, >= 0 means false

  000e4	8b 40 f8	 mov	 eax, DWORD PTR [eax-8]
  000e7	2b c7		 sub	 eax, edi

; 814  : 		if( (nShared|nTooShort) < 0 )  // If either sign bit is set (i.e. either is less than zero), we need to copy data

  000e9	0b c8		 or	 ecx, eax
  000eb	7d 08		 jge	 SHORT $LN55@FormatV

; 815  : 		{
; 816  : 			PrepareWrite2( nLength );

  000ed	57		 push	 edi
  000ee	8b cb		 mov	 ecx, ebx
  000f0	e8 00 00 00 00	 call	 ?PrepareWrite2@?$CSimpleStringT@D$0A@@ATL@@AAEXH@Z ; ATL::CSimpleStringT<char,0>::PrepareWrite2
$LN55@FormatV:
; File C:\Program Files (x86)\Windows Kits\10\Include\10.0.26100.0\ucrt\stdio.h

; 1491 :         int const _Result = __stdio_common_vsprintf_s(

  000f5	ff 75 0c	 push	 DWORD PTR _args$[ebp]
  000f8	8b 75 08	 mov	 esi, DWORD PTR _temp$[ebp]
; File C:\Program Files\Microsoft Visual Studio\2022\Professional\VC\Tools\MSVC\14.44.35207\atlmfc\include\cstringt.h

; 2237 : 		StringTraits::Format( pszBuffer, nLength+1, temp, args );

  000fb	8d 47 01	 lea	 eax, DWORD PTR [edi+1]
; File C:\Program Files (x86)\Windows Kits\10\Include\10.0.26100.0\ucrt\stdio.h

; 1491 :         int const _Result = __stdio_common_vsprintf_s(

  000fe	6a 00		 push	 0
  00100	56		 push	 esi
  00101	50		 push	 eax
  00102	8b 45 f0	 mov	 eax, DWORD PTR tv456[ebp]
  00105	ff 33		 push	 DWORD PTR [ebx]
  00107	ff 70 04	 push	 DWORD PTR [eax+4]
  0010a	ff 30		 push	 DWORD PTR [eax]
  0010c	e8 00 00 00 00	 call	 ___stdio_common_vsprintf_s
; File C:\Program Files\Microsoft Visual Studio\2022\Professional\VC\Tools\MSVC\14.44.35207\atlmfc\include\atlsimpstr.h

; 875  : 		if( nLength < 0 || nLength > GetData()->nAllocLength)

  00111	8b 03		 mov	 eax, DWORD PTR [ebx]
; File C:\Program Files (x86)\Windows Kits\10\Include\10.0.26100.0\ucrt\stdio.h

; 1491 :         int const _Result = __stdio_common_vsprintf_s(

  00113	83 c4 1c	 add	 esp, 28			; 0000001cH
; File C:\Program Files\Microsoft Visual Studio\2022\Professional\VC\Tools\MSVC\14.44.35207\atlmfc\include\atlsimpstr.h

; 875  : 		if( nLength < 0 || nLength > GetData()->nAllocLength)

  00116	3b 78 f8	 cmp	 edi, DWORD PTR [eax-8]
  00119	7f 46		 jg	 SHORT $LN70@FormatV

; 876  : 			AtlThrow(E_INVALIDARG);
; 877  : 
; 878  : 		GetData()->nDataLength = nLength;

  0011b	89 78 f4	 mov	 DWORD PTR [eax-12], edi

; 804  : 		return( reinterpret_cast< CStringData* >( m_pszData )-1 );

  0011e	83 c6 f0	 add	 esi, -16		; fffffff0H

; 879  : 		m_pszData[nLength] = 0;

  00121	8b 03		 mov	 eax, DWORD PTR [ebx]
; File C:\Program Files\Microsoft Visual Studio\2022\Professional\VC\Tools\MSVC\14.44.35207\atlmfc\include\cstringt.h

; 2239 : 	}

  00123	c7 45 fc ff ff
	ff ff		 mov	 DWORD PTR __$EHRec$[ebp+8], -1
; File C:\Program Files\Microsoft Visual Studio\2022\Professional\VC\Tools\MSVC\14.44.35207\atlmfc\include\atlsimpstr.h

; 879  : 		m_pszData[nLength] = 0;

  0012a	c6 04 07 00	 mov	 BYTE PTR [edi+eax], 0

; 92   : 		if( _InterlockedDecrement( &nRefs ) <= 0 )

  0012e	83 c8 ff	 or	 eax, -1
  00131	f0 0f c1 46 0c	 lock	  xadd	 DWORD PTR [esi+12], eax
  00136	48		 dec	 eax
  00137	85 c0		 test	 eax, eax
  00139	7f 08		 jg	 SHORT $LN84@FormatV

; 93   : 		{
; 94   : 			pStringMgr->Free( this );

  0013b	8b 0e		 mov	 ecx, DWORD PTR [esi]
  0013d	56		 push	 esi
  0013e	8b 01		 mov	 eax, DWORD PTR [ecx]
  00140	ff 50 04	 call	 DWORD PTR [eax+4]
$LN84@FormatV:
; File C:\Program Files\Microsoft Visual Studio\2022\Professional\VC\Tools\MSVC\14.44.35207\atlmfc\include\cstringt.h

; 2239 : 	}

  00143	8b 4d f4	 mov	 ecx, DWORD PTR __$EHRec$[ebp]
  00146	64 89 0d 00 00
	00 00		 mov	 DWORD PTR fs:0, ecx
  0014d	59		 pop	 ecx
  0014e	5f		 pop	 edi
  0014f	5e		 pop	 esi
  00150	5b		 pop	 ebx
  00151	8b e5		 mov	 esp, ebp
  00153	5d		 pop	 ebp
  00154	c2 08 00	 ret	 8
$LN87@FormatV:
; File C:\Program Files\Microsoft Visual Studio\2022\Professional\VC\Tools\MSVC\14.44.35207\atlmfc\include\atlsimpstr.h

; 209  : 		ATLENSURE( pStringMgr != NULL );

  00157	68 05 40 00 80	 push	 -2147467259		; 80004005H
  0015c	e8 00 00 00 00	 call	 ?AtlThrowImpl@ATL@@YGXJ@Z ; ATL::AtlThrowImpl
$LN70@FormatV:
; File C:\Program Files\Microsoft Visual Studio\2022\Professional\VC\Tools\MSVC\14.44.35207\atlmfc\include\cstringt.h

; 2239 : 	}

  00161	68 57 00 07 80	 push	 -2147024809		; 80070057H
  00166	e8 00 00 00 00	 call	 ?AtlThrowImpl@ATL@@YGXJ@Z ; ATL::AtlThrowImpl
$LN91@FormatV:
  0016b	cc		 int	 3
_TEXT	ENDS
;	COMDAT text$x
text$x	SEGMENT
__unwindfunclet$?FormatV@?$CStringT@DV?$StrTraitMFC@DV?$ChTraitsCRT@D@ATL@@@@@ATL@@QAEXPBDPAD@Z$1:
  00000	8d 4d 08	 lea	 ecx, DWORD PTR _temp$[ebp]
  00003	e9 00 00 00 00	 jmp	 ??1?$CSimpleStringT@D$0A@@ATL@@QAE@XZ ; ATL::CSimpleStringT<char,0>::~CSimpleStringT<char,0>
__unwindfunclet$?FormatV@?$CStringT@DV?$StrTraitMFC@DV?$ChTraitsCRT@D@ATL@@@@@ATL@@QAEXPBDPAD@Z$0:
  00008	8d 4d 08	 lea	 ecx, DWORD PTR _temp$[ebp]
  0000b	e9 00 00 00 00	 jmp	 ??1?$CStringT@DV?$StrTraitMFC@DV?$ChTraitsCRT@D@ATL@@@@@ATL@@QAE@XZ ; ATL::CStringT<char,StrTraitMFC<char,ATL::ChTraitsCRT<char> > >::~CStringT<char,StrTraitMFC<char,ATL::ChTraitsCRT<char> > >
  00010	cc		 int	 3
  00011	cc		 int	 3
  00012	cc		 int	 3
  00013	cc		 int	 3
  00014	cc		 int	 3
__ehhandler$?FormatV@?$CStringT@DV?$StrTraitMFC@DV?$ChTraitsCRT@D@ATL@@@@@ATL@@QAEXPBDPAD@Z:
  00015	90		 npad	 1
  00016	90		 npad	 1
  00017	8b 54 24 08	 mov	 edx, DWORD PTR [esp+8]
  0001b	8d 42 0c	 lea	 eax, DWORD PTR [edx+12]
  0001e	8b 4a ec	 mov	 ecx, DWORD PTR [edx-20]
  00021	33 c8		 xor	 ecx, eax
  00023	e8 00 00 00 00	 call	 @__security_check_cookie@4
  00028	b8 00 00 00 00	 mov	 eax, OFFSET __ehfuncinfo$?FormatV@?$CStringT@DV?$StrTraitMFC@DV?$ChTraitsCRT@D@ATL@@@@@ATL@@QAEXPBDPAD@Z
  0002d	e9 00 00 00 00	 jmp	 ___CxxFrameHandler3
text$x	ENDS
?FormatV@?$CStringT@DV?$StrTraitMFC@DV?$ChTraitsCRT@D@ATL@@@@@ATL@@QAEXPBDPAD@Z ENDP ; ATL::CStringT<char,StrTraitMFC<char,ATL::ChTraitsCRT<char> > >::FormatV
; Function compile flags: /Ogtp
; File C:\Program Files\Microsoft Visual Studio\2022\Professional\VC\Tools\MSVC\14.44.35207\atlmfc\include\cstringt.h
;	COMDAT ?Format@?$CStringT@DV?$StrTraitMFC@DV?$ChTraitsCRT@D@ATL@@@@@ATL@@QAAXPBDZZ
_TEXT	SEGMENT
_this$ = 8						; size = 4
_pszFormat$ = 12					; size = 4
?Format@?$CStringT@DV?$StrTraitMFC@DV?$ChTraitsCRT@D@ATL@@@@@ATL@@QAAXPBDZZ PROC ; ATL::CStringT<char,StrTraitMFC<char,ATL::ChTraitsCRT<char> > >::Format, COMDAT

; 2745 : {

  00000	55		 push	 ebp
  00001	8b ec		 mov	 ebp, esp

; 2746 : 	ATLASSERT( AtlIsValidString( pszFormat ) );
; 2747 : 
; 2748 : 	va_list argList;
; 2749 : 	va_start( argList, pszFormat );
; 2750 : 	FormatV( pszFormat, argList );

  00003	8b 4d 08	 mov	 ecx, DWORD PTR _this$[ebp]
  00006	8d 45 10	 lea	 eax, DWORD PTR _pszFormat$[ebp+4]
  00009	50		 push	 eax
  0000a	ff 75 0c	 push	 DWORD PTR _pszFormat$[ebp]
  0000d	e8 00 00 00 00	 call	 ?FormatV@?$CStringT@DV?$StrTraitMFC@DV?$ChTraitsCRT@D@ATL@@@@@ATL@@QAEXPBDPAD@Z ; ATL::CStringT<char,StrTraitMFC<char,ATL::ChTraitsCRT<char> > >::FormatV

; 2751 : 	va_end( argList );
; 2752 : }

  00012	5d		 pop	 ebp
  00013	c3		 ret	 0
?Format@?$CStringT@DV?$StrTraitMFC@DV?$ChTraitsCRT@D@ATL@@@@@ATL@@QAAXPBDZZ ENDP ; ATL::CStringT<char,StrTraitMFC<char,ATL::ChTraitsCRT<char> > >::Format
_TEXT	ENDS
; Function compile flags: /Ogtp
; File C:\Program Files\Microsoft Visual Studio\2022\Professional\VC\Tools\MSVC\14.44.35207\atlmfc\include\cstringt.h
; File C:\Program Files\Microsoft Visual Studio\2022\Professional\VC\Tools\MSVC\14.44.35207\atlmfc\include\atlsimpstr.h
; File C:\Program Files\Microsoft Visual Studio\2022\Professional\VC\Tools\MSVC\14.44.35207\atlmfc\include\cstringt.h
;	COMDAT ??1?$CStringT@DV?$StrTraitMFC@DV?$ChTraitsCRT@D@ATL@@@@@ATL@@QAE@XZ
_TEXT	SEGMENT
??1?$CStringT@DV?$StrTraitMFC@DV?$ChTraitsCRT@D@ATL@@@@@ATL@@QAE@XZ PROC ; ATL::CStringT<char,StrTraitMFC<char,ATL::ChTraitsCRT<char> > >::~CStringT<char,StrTraitMFC<char,ATL::ChTraitsCRT<char> > >, COMDAT
; _this$ = ecx
; File C:\Program Files\Microsoft Visual Studio\2022\Professional\VC\Tools\MSVC\14.44.35207\atlmfc\include\atlsimpstr.h

; 804  : 		return( reinterpret_cast< CStringData* >( m_pszData )-1 );

  00000	8b 11		 mov	 edx, DWORD PTR [ecx]

; 92   : 		if( _InterlockedDecrement( &nRefs ) <= 0 )

  00002	83 c8 ff	 or	 eax, -1

; 804  : 		return( reinterpret_cast< CStringData* >( m_pszData )-1 );

  00005	83 ea 10	 sub	 edx, 16			; 00000010H

; 92   : 		if( _InterlockedDecrement( &nRefs ) <= 0 )

  00008	f0 0f c1 42 0c	 lock	  xadd	 DWORD PTR [edx+12], eax
  0000d	48		 dec	 eax
  0000e	85 c0		 test	 eax, eax
  00010	7f 08		 jg	 SHORT $LN8@CStringT

; 93   : 		{
; 94   : 			pStringMgr->Free( this );

  00012	8b 0a		 mov	 ecx, DWORD PTR [edx]
  00014	52		 push	 edx
  00015	8b 01		 mov	 eax, DWORD PTR [ecx]
  00017	ff 50 04	 call	 DWORD PTR [eax+4]
$LN8@CStringT:
; File C:\Program Files\Microsoft Visual Studio\2022\Professional\VC\Tools\MSVC\14.44.35207\atlmfc\include\cstringt.h

; 1303 : 	}

  0001a	c3		 ret	 0
??1?$CStringT@DV?$StrTraitMFC@DV?$ChTraitsCRT@D@ATL@@@@@ATL@@QAE@XZ ENDP ; ATL::CStringT<char,StrTraitMFC<char,ATL::ChTraitsCRT<char> > >::~CStringT<char,StrTraitMFC<char,ATL::ChTraitsCRT<char> > >
_TEXT	ENDS
; Function compile flags: /Ogtp
; File C:\Program Files\Microsoft Visual Studio\2022\Professional\VC\Tools\MSVC\14.44.35207\atlmfc\include\atlsimpstr.h
;	COMDAT ?Reallocate@?$CSimpleStringT@D$0A@@ATL@@AAEXH@Z
_TEXT	SEGMENT
_nLength$ = 8						; size = 4
?Reallocate@?$CSimpleStringT@D$0A@@ATL@@AAEXH@Z PROC	; ATL::CSimpleStringT<char,0>::Reallocate, COMDAT
; _this$ = ecx

; 853  : 	{

  00000	55		 push	 ebp
  00001	8b ec		 mov	 ebp, esp
  00003	56		 push	 esi

; 854  : 		CStringData* pOldData = GetData();
; 855  : 		ATLASSERT( pOldData->nAllocLength < nLength );
; 856  : 		IAtlStringMgr* pStringMgr = pOldData->pStringMgr;
; 857  : 		if ( pOldData->nAllocLength >= nLength || nLength <= 0)

  00004	8b 75 08	 mov	 esi, DWORD PTR _nLength$[ebp]
  00007	57		 push	 edi
  00008	8b f9		 mov	 edi, ecx

; 804  : 		return( reinterpret_cast< CStringData* >( m_pszData )-1 );

  0000a	8b 17		 mov	 edx, DWORD PTR [edi]
  0000c	83 ea 10	 sub	 edx, 16			; 00000010H

; 854  : 		CStringData* pOldData = GetData();
; 855  : 		ATLASSERT( pOldData->nAllocLength < nLength );
; 856  : 		IAtlStringMgr* pStringMgr = pOldData->pStringMgr;
; 857  : 		if ( pOldData->nAllocLength >= nLength || nLength <= 0)

  0000f	39 72 08	 cmp	 DWORD PTR [edx+8], esi
  00012	7d 1e		 jge	 SHORT $LN3@Reallocate
  00014	85 f6		 test	 esi, esi
  00016	7e 1a		 jle	 SHORT $LN3@Reallocate

; 860  : 			return;
; 861  : 		}
; 862  : 		CStringData* pNewData = pStringMgr->Reallocate( pOldData, nLength, sizeof( XCHAR ) );

  00018	8b 0a		 mov	 ecx, DWORD PTR [edx]
  0001a	6a 01		 push	 1
  0001c	56		 push	 esi
  0001d	52		 push	 edx
  0001e	8b 01		 mov	 eax, DWORD PTR [ecx]
  00020	ff 50 08	 call	 DWORD PTR [eax+8]

; 863  : 		if( pNewData == NULL )

  00023	85 c0		 test	 eax, eax
  00025	74 0b		 je	 SHORT $LN3@Reallocate

; 864  : 		{
; 865  : 			ThrowMemoryException();
; 866  : 		}
; 867  : 		Attach( pNewData );

  00027	83 c0 10	 add	 eax, 16			; 00000010H
  0002a	89 07		 mov	 DWORD PTR [edi], eax
  0002c	5f		 pop	 edi
  0002d	5e		 pop	 esi

; 868  : 	}

  0002e	5d		 pop	 ebp
  0002f	c2 04 00	 ret	 4
$LN3@Reallocate:

; 858  : 		{
; 859  : 			ThrowMemoryException();

  00032	e8 00 00 00 00	 call	 ?ThrowMemoryException@?$CSimpleStringT@D$0A@@ATL@@KAXXZ ; ATL::CSimpleStringT<char,0>::ThrowMemoryException
$LN12@Reallocate:
  00037	cc		 int	 3
?Reallocate@?$CSimpleStringT@D$0A@@ATL@@AAEXH@Z ENDP	; ATL::CSimpleStringT<char,0>::Reallocate
_TEXT	ENDS
; Function compile flags: /Ogtp
; File C:\Program Files\Microsoft Visual Studio\2022\Professional\VC\Tools\MSVC\14.44.35207\atlmfc\include\atlsimpstr.h
;	COMDAT ?PrepareWrite2@?$CSimpleStringT@D$0A@@ATL@@AAEXH@Z
_TEXT	SEGMENT
_nLength$ = 8						; size = 4
?PrepareWrite2@?$CSimpleStringT@D$0A@@ATL@@AAEXH@Z PROC	; ATL::CSimpleStringT<char,0>::PrepareWrite2, COMDAT
; _this$ = ecx

; 822  : 	{

  00000	55		 push	 ebp
  00001	8b ec		 mov	 ebp, esp
  00003	56		 push	 esi

; 823  : 		CStringData* pOldData = GetData();
; 824  : 		if( pOldData->nDataLength > nLength )

  00004	8b 75 08	 mov	 esi, DWORD PTR _nLength$[ebp]
  00007	57		 push	 edi
  00008	8b f9		 mov	 edi, ecx

; 804  : 		return( reinterpret_cast< CStringData* >( m_pszData )-1 );

  0000a	8b 0f		 mov	 ecx, DWORD PTR [edi]

; 823  : 		CStringData* pOldData = GetData();
; 824  : 		if( pOldData->nDataLength > nLength )

  0000c	39 71 f4	 cmp	 DWORD PTR [ecx-12], esi
  0000f	0f 4f 71 f4	 cmovg	 esi, DWORD PTR [ecx-12]

; 77   : 		return( nRefs > 1 );

  00013	83 79 fc 01	 cmp	 DWORD PTR [ecx-4], 1

; 825  : 		{
; 826  : 			nLength = pOldData->nDataLength;
; 827  : 		}
; 828  : 		if( pOldData->IsShared() )

  00017	7e 0e		 jle	 SHORT $LN3@PrepareWri

; 829  : 		{
; 830  : 			Fork( nLength );

  00019	56		 push	 esi
  0001a	8b cf		 mov	 ecx, edi
  0001c	e8 00 00 00 00	 call	 ?Fork@?$CSimpleStringT@D$0A@@ATL@@AAEXH@Z ; ATL::CSimpleStringT<char,0>::Fork
  00021	5f		 pop	 edi

; 850  : 		}
; 851  : 	}

  00022	5e		 pop	 esi
  00023	5d		 pop	 ebp
  00024	c2 04 00	 ret	 4
$LN3@PrepareWri:

; 831  : 		}
; 832  : 		else if( pOldData->nAllocLength < nLength )

  00027	8b 49 f8	 mov	 ecx, DWORD PTR [ecx-8]
  0002a	3b ce		 cmp	 ecx, esi
  0002c	7d 25		 jge	 SHORT $LN5@PrepareWri

; 833  : 		{
; 834  : 			// Grow exponentially, until we hit 1G, then by 1M thereafter.
; 835  : 			int nNewLength = pOldData->nAllocLength;
; 836  : 			if( nNewLength > 1024 * 1024 * 1024 )

  0002e	81 f9 00 00 00
	40		 cmp	 ecx, 1073741824		; 40000000H
  00034	7e 07		 jle	 SHORT $LN6@PrepareWri

; 837  : 			{
; 838  : 				nNewLength += 1024 * 1024;

  00036	b8 00 00 10 00	 mov	 eax, 1048576		; 00100000H

; 839  : 			}

  0003b	eb 07		 jmp	 SHORT $LN7@PrepareWri
$LN6@PrepareWri:

; 840  : 			else
; 841  : 			{
; 842  : 				// Exponential growth factor is 1.5.
; 843  : 				nNewLength = nNewLength + nNewLength / 2;

  0003d	8b c1		 mov	 eax, ecx
  0003f	99		 cdq
  00040	2b c2		 sub	 eax, edx
  00042	d1 f8		 sar	 eax, 1
$LN7@PrepareWri:

; 844  : 			}
; 845  : 			if( nNewLength < nLength )

  00044	03 c1		 add	 eax, ecx

; 846  : 			{
; 847  : 				nNewLength = nLength;
; 848  : 			}
; 849  : 			Reallocate( nNewLength );

  00046	8b cf		 mov	 ecx, edi
  00048	3b c6		 cmp	 eax, esi
  0004a	0f 4d f0	 cmovge	 esi, eax
  0004d	56		 push	 esi
  0004e	e8 00 00 00 00	 call	 ?Reallocate@?$CSimpleStringT@D$0A@@ATL@@AAEXH@Z ; ATL::CSimpleStringT<char,0>::Reallocate
$LN5@PrepareWri:

; 850  : 		}
; 851  : 	}

  00053	5f		 pop	 edi
  00054	5e		 pop	 esi
  00055	5d		 pop	 ebp
  00056	c2 04 00	 ret	 4
?PrepareWrite2@?$CSimpleStringT@D$0A@@ATL@@AAEXH@Z ENDP	; ATL::CSimpleStringT<char,0>::PrepareWrite2
_TEXT	ENDS
; Function compile flags: /Ogtp
; File C:\Program Files\Microsoft Visual Studio\2022\Professional\VC\Tools\MSVC\14.44.35207\atlmfc\include\atlsimpstr.h
; File C:\Program Files (x86)\Windows Kits\10\Include\10.0.26100.0\ucrt\corecrt_memcpy_s.h
; File C:\Program Files\Microsoft Visual Studio\2022\Professional\VC\Tools\MSVC\14.44.35207\atlmfc\include\atlsimpstr.h
;	COMDAT ?Fork@?$CSimpleStringT@D$0A@@ATL@@AAEXH@Z
_TEXT	SEGMENT
_this$1$ = -12						; size = 4
_nOldLength$1$ = -8					; size = 4
__Source$1$ = -4					; size = 4
_nLength$ = 8						; size = 4
_pNewData$1$ = 8					; size = 4
?Fork@?$CSimpleStringT@D$0A@@ATL@@AAEXH@Z PROC		; ATL::CSimpleStringT<char,0>::Fork, COMDAT
; _this$ = ecx

; 787  : 	{

  00000	55		 push	 ebp
  00001	8b ec		 mov	 ebp, esp
  00003	83 ec 0c	 sub	 esp, 12			; 0000000cH
  00006	8b c1		 mov	 eax, ecx
  00008	89 45 f4	 mov	 DWORD PTR _this$1$[ebp], eax
  0000b	53		 push	 ebx
  0000c	56		 push	 esi

; 804  : 		return( reinterpret_cast< CStringData* >( m_pszData )-1 );

  0000d	8b 00		 mov	 eax, DWORD PTR [eax]

; 790  : 		CStringData* pNewData = pOldData->pStringMgr->Clone()->Allocate( nLength, sizeof( XCHAR ) );

  0000f	8b 48 f0	 mov	 ecx, DWORD PTR [eax-16]

; 804  : 		return( reinterpret_cast< CStringData* >( m_pszData )-1 );

  00012	8d 58 f0	 lea	 ebx, DWORD PTR [eax-16]
  00015	89 45 fc	 mov	 DWORD PTR __Source$1$[ebp], eax

; 787  : 	{

  00018	57		 push	 edi

; 788  : 		CStringData* pOldData = GetData();
; 789  : 		int nOldLength = pOldData->nDataLength;

  00019	8b 7b 04	 mov	 edi, DWORD PTR [ebx+4]

; 790  : 		CStringData* pNewData = pOldData->pStringMgr->Clone()->Allocate( nLength, sizeof( XCHAR ) );

  0001c	8b 01		 mov	 eax, DWORD PTR [ecx]
  0001e	89 7d f8	 mov	 DWORD PTR _nOldLength$1$[ebp], edi
  00021	ff 50 10	 call	 DWORD PTR [eax+16]
  00024	8b 75 08	 mov	 esi, DWORD PTR _nLength$[ebp]
  00027	8b c8		 mov	 ecx, eax
  00029	6a 01		 push	 1
  0002b	56		 push	 esi
  0002c	8b 10		 mov	 edx, DWORD PTR [eax]
  0002e	ff 12		 call	 DWORD PTR [edx]
  00030	89 45 08	 mov	 DWORD PTR _pNewData$1$[ebp], eax

; 791  : 		if( pNewData == NULL )

  00033	85 c0		 test	 eax, eax
  00035	74 6c		 je	 SHORT $LN25@Fork

; 794  : 		}
; 795  : 		int nCharsToCopy = ((nOldLength < nLength) ? nOldLength : nLength)+1;  // Copy '\0'

  00037	3b fe		 cmp	 edi, esi
  00039	0f 4c f7	 cmovl	 esi, edi

; 796  : 		memcpy_s( PXSTR( pNewData->data() ), nCharsToCopy * sizeof( XCHAR ),

  0003c	8d 78 10	 lea	 edi, DWORD PTR [eax+16]
  0003f	83 c6 01	 add	 esi, 1
; File C:\Program Files (x86)\Windows Kits\10\Include\10.0.26100.0\ucrt\corecrt_memcpy_s.h

; 47   :         if (_SourceSize == 0)

  00042	74 33		 je	 SHORT $LN11@Fork

; 48   :         {
; 49   :             return 0;
; 50   :         }
; 51   : 
; 52   :         _CRT_MEMCPY_S_VALIDATE_RETURN_ERRCODE(_Destination != NULL, EINVAL);

  00044	85 ff		 test	 edi, edi
  00046	74 1f		 je	 SHORT $LN23@Fork

; 53   :         if (_Source == NULL || _DestinationSize < _SourceSize)

  00048	8b 45 fc	 mov	 eax, DWORD PTR __Source$1$[ebp]
  0004b	56		 push	 esi
  0004c	85 c0		 test	 eax, eax
  0004e	74 0c		 je	 SHORT $LN10@Fork

; 56   : 
; 57   :             _CRT_MEMCPY_S_VALIDATE_RETURN_ERRCODE(_Source != NULL,                 EINVAL);
; 58   :             _CRT_MEMCPY_S_VALIDATE_RETURN_ERRCODE(_DestinationSize >= _SourceSize, ERANGE);
; 59   : 
; 60   :             // Unreachable, but required to suppress /analyze warnings:
; 61   :             return EINVAL;
; 62   :         }
; 63   :         memcpy(_Destination, _Source, _SourceSize);

  00050	50		 push	 eax
  00051	57		 push	 edi
  00052	e8 00 00 00 00	 call	 _memcpy
  00057	83 c4 0c	 add	 esp, 12			; 0000000cH
  0005a	eb 1b		 jmp	 SHORT $LN11@Fork
$LN10@Fork:

; 54   :         {
; 55   :             memset(_Destination, 0, _DestinationSize);

  0005c	6a 00		 push	 0
  0005e	57		 push	 edi
  0005f	e8 00 00 00 00	 call	 _memset
  00064	83 c4 0c	 add	 esp, 12			; 0000000cH
$LN23@Fork:
; File C:\Program Files\Microsoft Visual Studio\2022\Professional\VC\Tools\MSVC\14.44.35207\atlmfc\include\atlsimpstr.h

; 798  : 		pNewData->nDataLength = nOldLength;

  00067	e8 00 00 00 00	 call	 __errno
  0006c	c7 00 16 00 00
	00		 mov	 DWORD PTR [eax], 22	; 00000016H
  00072	e8 00 00 00 00	 call	 __invalid_parameter_noinfo
$LN11@Fork:
  00077	8b 4d 08	 mov	 ecx, DWORD PTR _pNewData$1$[ebp]
  0007a	8b 45 f8	 mov	 eax, DWORD PTR _nOldLength$1$[ebp]
  0007d	89 41 04	 mov	 DWORD PTR [ecx+4], eax

; 92   : 		if( _InterlockedDecrement( &nRefs ) <= 0 )

  00080	83 c8 ff	 or	 eax, -1
  00083	f0 0f c1 43 0c	 lock	  xadd	 DWORD PTR [ebx+12], eax
  00088	48		 dec	 eax
  00089	85 c0		 test	 eax, eax
  0008b	7f 08		 jg	 SHORT $LN15@Fork

; 93   : 		{
; 94   : 			pStringMgr->Free( this );

  0008d	8b 0b		 mov	 ecx, DWORD PTR [ebx]
  0008f	53		 push	 ebx
  00090	8b 01		 mov	 eax, DWORD PTR [ecx]
  00092	ff 50 04	 call	 DWORD PTR [eax+4]
$LN15@Fork:

; 799  : 		pOldData->Release();
; 800  : 		Attach( pNewData );

  00095	8b 45 f4	 mov	 eax, DWORD PTR _this$1$[ebp]
  00098	89 38		 mov	 DWORD PTR [eax], edi

; 801  : 	}

  0009a	5f		 pop	 edi
  0009b	5e		 pop	 esi
  0009c	5b		 pop	 ebx
  0009d	8b e5		 mov	 esp, ebp
  0009f	5d		 pop	 ebp
  000a0	c2 04 00	 ret	 4
$LN25@Fork:

; 792  : 		{
; 793  : 			ThrowMemoryException();

  000a3	e8 00 00 00 00	 call	 ?ThrowMemoryException@?$CSimpleStringT@D$0A@@ATL@@KAXXZ ; ATL::CSimpleStringT<char,0>::ThrowMemoryException
$LN22@Fork:
  000a8	cc		 int	 3
?Fork@?$CSimpleStringT@D$0A@@ATL@@AAEXH@Z ENDP		; ATL::CSimpleStringT<char,0>::Fork
_TEXT	ENDS
; Function compile flags: /Ogtp
; File C:\Program Files\Microsoft Visual Studio\2022\Professional\VC\Tools\MSVC\14.44.35207\atlmfc\include\atlsimpstr.h
;	COMDAT ?ThrowMemoryException@?$CSimpleStringT@D$0A@@ATL@@KAXXZ
_TEXT	SEGMENT
?ThrowMemoryException@?$CSimpleStringT@D$0A@@ATL@@KAXXZ PROC ; ATL::CSimpleStringT<char,0>::ThrowMemoryException, COMDAT

; 777  : 		AtlThrow( E_OUTOFMEMORY );

  00000	68 0e 00 07 80	 push	 -2147024882		; 8007000eH
  00005	e8 00 00 00 00	 call	 ?AtlThrowImpl@ATL@@YGXJ@Z ; ATL::AtlThrowImpl
$LN3@ThrowMemor:
  0000a	cc		 int	 3
?ThrowMemoryException@?$CSimpleStringT@D$0A@@ATL@@KAXXZ ENDP ; ATL::CSimpleStringT<char,0>::ThrowMemoryException
_TEXT	ENDS
; Function compile flags: /Ogtp
; File C:\Program Files\Microsoft Visual Studio\2022\Professional\VC\Tools\MSVC\14.44.35207\atlmfc\include\atlsimpstr.h
; File C:\Program Files (x86)\Windows Kits\10\Include\10.0.26100.0\ucrt\corecrt_memcpy_s.h
; File C:\Program Files\Microsoft Visual Studio\2022\Professional\VC\Tools\MSVC\14.44.35207\atlmfc\include\atlsimpstr.h
; File C:\Program Files (x86)\Windows Kits\10\Include\10.0.26100.0\ucrt\corecrt_memcpy_s.h
; File C:\Program Files\Microsoft Visual Studio\2022\Professional\VC\Tools\MSVC\14.44.35207\atlmfc\include\atlsimpstr.h
;	COMDAT ?SetString@?$CSimpleStringT@D$0A@@ATL@@QAEXPBDH@Z
_TEXT	SEGMENT
_pszSrc$ = 8						; size = 4
_nOldLength$1$ = 8					; size = 4
_nLength$ = 12						; size = 4
_nOffset$1$ = 12					; size = 4
?SetString@?$CSimpleStringT@D$0A@@ATL@@QAEXPBDH@Z PROC	; ATL::CSimpleStringT<char,0>::SetString, COMDAT
; _this$ = ecx

; 611  : 	{

  00000	55		 push	 ebp
  00001	8b ec		 mov	 ebp, esp
  00003	56		 push	 esi

; 612  : 		if( nLength == 0 )

  00004	8b 75 0c	 mov	 esi, DWORD PTR _nLength$[ebp]
  00007	57		 push	 edi
  00008	8b f9		 mov	 edi, ecx
  0000a	85 f6		 test	 esi, esi
  0000c	75 58		 jne	 SHORT $LN2@SetString

; 804  : 		return( reinterpret_cast< CStringData* >( m_pszData )-1 );

  0000e	8b 07		 mov	 eax, DWORD PTR [edi]

; 443  : 		if( pOldData->nDataLength == 0 )

  00010	83 78 f4 00	 cmp	 DWORD PTR [eax-12], 0

; 804  : 		return( reinterpret_cast< CStringData* >( m_pszData )-1 );

  00014	8d 50 f0	 lea	 edx, DWORD PTR [eax-16]

; 442  : 		IAtlStringMgr* pStringMgr = pOldData->pStringMgr;

  00017	8b 32		 mov	 esi, DWORD PTR [edx]

; 443  : 		if( pOldData->nDataLength == 0 )

  00019	74 1f		 je	 SHORT $LN72@SetString

; 73   : 		return nRefs < 0;

  0001b	83 7a 0c 00	 cmp	 DWORD PTR [edx+12], 0
  0001f	8d 4a 0c	 lea	 ecx, DWORD PTR [edx+12]

; 448  : 		if( pOldData->IsLocked() )

  00022	7d 1c		 jge	 SHORT $LN10@SetString

; 875  : 		if( nLength < 0 || nLength > GetData()->nAllocLength)

  00024	83 78 f8 00	 cmp	 DWORD PTR [eax-8], 0
  00028	0f 8c 0b 01 00
	00		 jl	 $LN71@SetString

; 877  : 
; 878  : 		GetData()->nDataLength = nLength;

  0002e	c7 40 f4 00 00
	00 00		 mov	 DWORD PTR [eax-12], 0

; 879  : 		m_pszData[nLength] = 0;

  00035	8b 07		 mov	 eax, DWORD PTR [edi]
  00037	c6 00 00	 mov	 BYTE PTR [eax], 0
$LN72@SetString:
  0003a	5f		 pop	 edi

; 638  : 			else
; 639  : 			{
; 640  : 				memcpy_s( pszBuffer, GetAllocLength() * sizeof( XCHAR ), pszSrc, nLength * sizeof( XCHAR ));
; 641  : 			}
; 642  : 			ReleaseBufferSetLength( nLength );
; 643  : 		}
; 644  : 	}

  0003b	5e		 pop	 esi
  0003c	5d		 pop	 ebp
  0003d	c2 08 00	 ret	 8
$LN10@SetString:

; 92   : 		if( _InterlockedDecrement( &nRefs ) <= 0 )

  00040	83 c8 ff	 or	 eax, -1
  00043	f0 0f c1 01	 lock	  xadd	 DWORD PTR [ecx], eax
  00047	48		 dec	 eax
  00048	85 c0		 test	 eax, eax
  0004a	7f 08		 jg	 SHORT $LN27@SetString

; 93   : 		{
; 94   : 			pStringMgr->Free( this );

  0004c	8b 0a		 mov	 ecx, DWORD PTR [edx]
  0004e	52		 push	 edx
  0004f	8b 01		 mov	 eax, DWORD PTR [ecx]
  00051	ff 50 04	 call	 DWORD PTR [eax+4]
$LN27@SetString:

; 456  : 			CStringData* pNewData = pStringMgr->GetNilString();

  00054	8b 06		 mov	 eax, DWORD PTR [esi]
  00056	8b ce		 mov	 ecx, esi
  00058	ff 50 0c	 call	 DWORD PTR [eax+12]

; 457  : 			Attach( pNewData );

  0005b	83 c0 10	 add	 eax, 16			; 00000010H
  0005e	89 07		 mov	 DWORD PTR [edi], eax
  00060	5f		 pop	 edi

; 638  : 			else
; 639  : 			{
; 640  : 				memcpy_s( pszBuffer, GetAllocLength() * sizeof( XCHAR ), pszSrc, nLength * sizeof( XCHAR ));
; 641  : 			}
; 642  : 			ReleaseBufferSetLength( nLength );
; 643  : 		}
; 644  : 	}

  00061	5e		 pop	 esi
  00062	5d		 pop	 ebp
  00063	c2 08 00	 ret	 8
$LN2@SetString:
  00066	53		 push	 ebx

; 613  : 		{
; 614  : 			Empty();
; 615  : 		}
; 616  : 		else
; 617  : 		{
; 618  : 			// It is possible that pszSrc points to a location inside of our
; 619  : 			// buffer.  GetBuffer() might change m_pszData if (1) the buffer
; 620  : 			// is shared or (2) the buffer is too small to hold the new
; 621  : 			// string.  We detect this aliasing, and modify pszSrc to point
; 622  : 			// into the newly allocated buffer instead.
; 623  : 
; 624  : 			if(pszSrc == NULL)

  00067	8b 5d 08	 mov	 ebx, DWORD PTR _pszSrc$[ebp]
  0006a	85 db		 test	 ebx, ebx
  0006c	0f 84 c7 00 00
	00		 je	 $LN71@SetString

; 523  : 		return( GetData()->nDataLength );

  00072	8b 07		 mov	 eax, DWORD PTR [edi]

; 625  : 				AtlThrow(E_INVALIDARG);
; 626  : 
; 627  : 			UINT nOldLength = GetLength();
; 628  : 			UINT_PTR nOffset = pszSrc-GetString();

  00074	8b d3		 mov	 edx, ebx
  00076	2b d0		 sub	 edx, eax
  00078	89 55 0c	 mov	 DWORD PTR _nOffset$1$[ebp], edx
  0007b	8b 48 f4	 mov	 ecx, DWORD PTR [eax-12]
  0007e	89 4d 08	 mov	 DWORD PTR _nOldLength$1$[ebp], ecx

; 808  : 		if (nLength < 0)

  00081	85 f6		 test	 esi, esi
  00083	0f 88 b0 00 00
	00		 js	 $LN71@SetString

; 809  : 			AtlThrow(E_INVALIDARG);
; 810  : 
; 811  : 		CStringData* pOldData = GetData();
; 812  : 		int nShared = 1-pOldData->nRefs;  // nShared < 0 means true, >= 0 means false

  00089	b9 01 00 00 00	 mov	 ecx, 1
  0008e	2b 48 fc	 sub	 ecx, DWORD PTR [eax-4]

; 813  : 		int nTooShort = pOldData->nAllocLength-nLength;  // nTooShort < 0 means true, >= 0 means false

  00091	8b 40 f8	 mov	 eax, DWORD PTR [eax-8]
  00094	2b c6		 sub	 eax, esi

; 814  : 		if( (nShared|nTooShort) < 0 )  // If either sign bit is set (i.e. either is less than zero), we need to copy data

  00096	0b c8		 or	 ecx, eax
  00098	7d 0b		 jge	 SHORT $LN38@SetString

; 815  : 		{
; 816  : 			PrepareWrite2( nLength );

  0009a	56		 push	 esi
  0009b	8b cf		 mov	 ecx, edi
  0009d	e8 00 00 00 00	 call	 ?PrepareWrite2@?$CSimpleStringT@D$0A@@ATL@@AAEXH@Z ; ATL::CSimpleStringT<char,0>::PrepareWrite2
  000a2	8b 55 0c	 mov	 edx, DWORD PTR _nOffset$1$[ebp]
$LN38@SetString:

; 629  : 			// If 0 <= nOffset <= nOldLength, then pszSrc points into our
; 630  : 			// buffer
; 631  : 
; 632  : 			PXSTR pszBuffer = GetBuffer( nLength );

  000a5	8b 07		 mov	 eax, DWORD PTR [edi]
  000a7	8b 48 f8	 mov	 ecx, DWORD PTR [eax-8]

; 633  : 			if( nOffset <= nOldLength )

  000aa	3b 55 08	 cmp	 edx, DWORD PTR _nOldLength$1$[ebp]
  000ad	77 35		 ja	 SHORT $LN5@SetString

; 634  : 			{
; 635  : 				CopyCharsOverlapped( pszBuffer, GetAllocLength(),

  000af	03 d0		 add	 edx, eax
; File C:\Program Files (x86)\Windows Kits\10\Include\10.0.26100.0\ucrt\corecrt_memcpy_s.h

; 81   :         _CRT_MEMCPY_S_VALIDATE_RETURN_ERRCODE(_Destination != NULL,            EINVAL);

  000b1	85 c0		 test	 eax, eax
  000b3	75 0d		 jne	 SHORT $LN51@SetString
  000b5	e8 00 00 00 00	 call	 __errno
  000ba	c7 00 16 00 00
	00		 mov	 DWORD PTR [eax], 22	; 00000016H
  000c0	eb 5b		 jmp	 SHORT $LN97@SetString
$LN51@SetString:

; 82   :         _CRT_MEMCPY_S_VALIDATE_RETURN_ERRCODE(_Source != NULL,                 EINVAL);

  000c2	85 d2		 test	 edx, edx
  000c4	75 0d		 jne	 SHORT $LN52@SetString
  000c6	e8 00 00 00 00	 call	 __errno
  000cb	c7 00 16 00 00
	00		 mov	 DWORD PTR [eax], 22	; 00000016H
  000d1	eb 4a		 jmp	 SHORT $LN97@SetString
$LN52@SetString:

; 83   :         _CRT_MEMCPY_S_VALIDATE_RETURN_ERRCODE(_DestinationSize >= _SourceSize, ERANGE);

  000d3	3b ce		 cmp	 ecx, esi
  000d5	72 3b		 jb	 SHORT $LN98@SetString

; 84   : 
; 85   :         memmove(_Destination, _Source, _SourceSize);

  000d7	56		 push	 esi
  000d8	52		 push	 edx
  000d9	50		 push	 eax
  000da	e8 00 00 00 00	 call	 _memmove
  000df	83 c4 0c	 add	 esp, 12			; 0000000cH
; File C:\Program Files\Microsoft Visual Studio\2022\Professional\VC\Tools\MSVC\14.44.35207\atlmfc\include\atlsimpstr.h

; 637  : 			}

  000e2	eb 3e		 jmp	 SHORT $LN65@SetString
$LN5@SetString:
; File C:\Program Files (x86)\Windows Kits\10\Include\10.0.26100.0\ucrt\corecrt_memcpy_s.h

; 52   :         _CRT_MEMCPY_S_VALIDATE_RETURN_ERRCODE(_Destination != NULL, EINVAL);

  000e4	85 c0		 test	 eax, eax
  000e6	75 0d		 jne	 SHORT $LN61@SetString
  000e8	e8 00 00 00 00	 call	 __errno
  000ed	c7 00 16 00 00
	00		 mov	 DWORD PTR [eax], 22	; 00000016H
  000f3	eb 28		 jmp	 SHORT $LN97@SetString
$LN61@SetString:

; 53   :         if (_Source == NULL || _DestinationSize < _SourceSize)

  000f5	3b ce		 cmp	 ecx, esi
  000f7	72 0d		 jb	 SHORT $LN63@SetString

; 56   : 
; 57   :             _CRT_MEMCPY_S_VALIDATE_RETURN_ERRCODE(_Source != NULL,                 EINVAL);
; 58   :             _CRT_MEMCPY_S_VALIDATE_RETURN_ERRCODE(_DestinationSize >= _SourceSize, ERANGE);
; 59   : 
; 60   :             // Unreachable, but required to suppress /analyze warnings:
; 61   :             return EINVAL;
; 62   :         }
; 63   :         memcpy(_Destination, _Source, _SourceSize);

  000f9	56		 push	 esi
  000fa	53		 push	 ebx
  000fb	50		 push	 eax
  000fc	e8 00 00 00 00	 call	 _memcpy
  00101	83 c4 0c	 add	 esp, 12			; 0000000cH
  00104	eb 1c		 jmp	 SHORT $LN65@SetString
$LN63@SetString:

; 54   :         {
; 55   :             memset(_Destination, 0, _DestinationSize);

  00106	51		 push	 ecx
  00107	6a 00		 push	 0
  00109	50		 push	 eax
  0010a	e8 00 00 00 00	 call	 _memset
  0010f	83 c4 0c	 add	 esp, 12			; 0000000cH
$LN98@SetString:
; File C:\Program Files\Microsoft Visual Studio\2022\Professional\VC\Tools\MSVC\14.44.35207\atlmfc\include\atlsimpstr.h

; 875  : 		if( nLength < 0 || nLength > GetData()->nAllocLength)

  00112	e8 00 00 00 00	 call	 __errno
  00117	c7 00 22 00 00
	00		 mov	 DWORD PTR [eax], 34	; 00000022H
$LN97@SetString:
  0011d	e8 00 00 00 00	 call	 __invalid_parameter_noinfo
$LN65@SetString:
  00122	8b 07		 mov	 eax, DWORD PTR [edi]
  00124	5b		 pop	 ebx
  00125	3b 70 f8	 cmp	 esi, DWORD PTR [eax-8]
  00128	7f 0f		 jg	 SHORT $LN71@SetString

; 877  : 
; 878  : 		GetData()->nDataLength = nLength;

  0012a	89 70 f4	 mov	 DWORD PTR [eax-12], esi

; 879  : 		m_pszData[nLength] = 0;

  0012d	8b 07		 mov	 eax, DWORD PTR [edi]
  0012f	5f		 pop	 edi
  00130	c6 04 06 00	 mov	 BYTE PTR [esi+eax], 0

; 638  : 			else
; 639  : 			{
; 640  : 				memcpy_s( pszBuffer, GetAllocLength() * sizeof( XCHAR ), pszSrc, nLength * sizeof( XCHAR ));
; 641  : 			}
; 642  : 			ReleaseBufferSetLength( nLength );
; 643  : 		}
; 644  : 	}

  00134	5e		 pop	 esi
  00135	5d		 pop	 ebp
  00136	c2 08 00	 ret	 8
$LN71@SetString:

; 876  : 			AtlThrow(E_INVALIDARG);

  00139	68 57 00 07 80	 push	 -2147024809		; 80070057H
  0013e	e8 00 00 00 00	 call	 ?AtlThrowImpl@ATL@@YGXJ@Z ; ATL::AtlThrowImpl
$LN96@SetString:
  00143	cc		 int	 3
?SetString@?$CSimpleStringT@D$0A@@ATL@@QAEXPBDH@Z ENDP	; ATL::CSimpleStringT<char,0>::SetString
_TEXT	ENDS
; Function compile flags: /Ogtp
; File C:\Program Files\Microsoft Visual Studio\2022\Professional\VC\Tools\MSVC\14.44.35207\atlmfc\include\atlsimpstr.h
;	COMDAT ??1?$CSimpleStringT@D$0A@@ATL@@QAE@XZ
_TEXT	SEGMENT
??1?$CSimpleStringT@D$0A@@ATL@@QAE@XZ PROC		; ATL::CSimpleStringT<char,0>::~CSimpleStringT<char,0>, COMDAT
; _this$ = ecx

; 804  : 		return( reinterpret_cast< CStringData* >( m_pszData )-1 );

  00000	8b 11		 mov	 edx, DWORD PTR [ecx]

; 92   : 		if( _InterlockedDecrement( &nRefs ) <= 0 )

  00002	83 c8 ff	 or	 eax, -1

; 804  : 		return( reinterpret_cast< CStringData* >( m_pszData )-1 );

  00005	83 ea 10	 sub	 edx, 16			; 00000010H

; 92   : 		if( _InterlockedDecrement( &nRefs ) <= 0 )

  00008	f0 0f c1 42 0c	 lock	  xadd	 DWORD PTR [edx+12], eax
  0000d	48		 dec	 eax
  0000e	85 c0		 test	 eax, eax
  00010	7f 08		 jg	 SHORT $LN6@CSimpleStr

; 93   : 		{
; 94   : 			pStringMgr->Free( this );

  00012	8b 0a		 mov	 ecx, DWORD PTR [edx]
  00014	52		 push	 edx
  00015	8b 01		 mov	 eax, DWORD PTR [ecx]
  00017	ff 50 04	 call	 DWORD PTR [eax+4]
$LN6@CSimpleStr:

; 265  : 		CStringData* pData = GetData();
; 266  : 		pData->Release();
; 267  : 	}

  0001a	c3		 ret	 0
??1?$CSimpleStringT@D$0A@@ATL@@QAE@XZ ENDP		; ATL::CSimpleStringT<char,0>::~CSimpleStringT<char,0>
_TEXT	ENDS
; Function compile flags: /Ogtp
; File C:\Program Files\Microsoft Visual Studio\2022\Professional\VC\Tools\MSVC\14.44.35207\atlmfc\include\atlexcept.h
;	COMDAT ?AtlThrowImpl@ATL@@YGXJ@Z
_TEXT	SEGMENT
_hr$ = 8						; size = 4
?AtlThrowImpl@ATL@@YGXJ@Z PROC				; ATL::AtlThrowImpl, COMDAT

; 69   : {

  00000	55		 push	 ebp
  00001	8b ec		 mov	 ebp, esp

; 70   : 	ATLTRACE(atlTraceException, 0, _T("AtlThrow: hr = 0x%x\n"), hr );
; 71   : #ifdef _AFX
; 72   : 	if( hr == E_OUTOFMEMORY )

  00003	8b 45 08	 mov	 eax, DWORD PTR _hr$[ebp]
  00006	3d 0e 00 07 80	 cmp	 eax, -2147024882	; 8007000eH
  0000b	75 05		 jne	 SHORT $LN2@AtlThrowIm

; 73   : 	{
; 74   : 		AfxThrowMemoryException();

  0000d	e8 00 00 00 00	 call	 ?AfxThrowMemoryException@@YGXXZ ; AfxThrowMemoryException
$LN2@AtlThrowIm:

; 75   : 	}
; 76   : 	else
; 77   : 	{
; 78   : 		AfxThrowOleException( hr );

  00012	50		 push	 eax
  00013	e8 00 00 00 00	 call	 ?AfxThrowOleException@@YGXJ@Z ; AfxThrowOleException
$LN5@AtlThrowIm:
  00018	cc		 int	 3
?AtlThrowImpl@ATL@@YGXJ@Z ENDP				; ATL::AtlThrowImpl
_TEXT	ENDS
; Function compile flags: /Ogtp
; File C:\Program Files (x86)\Windows Kits\10\Include\10.0.26100.0\ucrt\corecrt_stdio_config.h
;	COMDAT ___local_stdio_printf_options
_TEXT	SEGMENT
___local_stdio_printf_options PROC			; COMDAT

; 91   :         static unsigned __int64 _OptionsStorage;
; 92   :         return &_OptionsStorage;

  00000	b8 00 00 00 00	 mov	 eax, OFFSET ?_OptionsStorage@?1??__local_stdio_printf_options@@9@4_KA ; `__local_stdio_printf_options'::`2'::_OptionsStorage

; 93   :     }

  00005	c3		 ret	 0
___local_stdio_printf_options ENDP
_TEXT	ENDS
; Function compile flags: /Ogtp
; File C:\IAGOS\server\v18\Source\Source\_Common\EventLua.cpp
;	COMDAT ?__empty_global_delete@@YAXPAXI@Z
_TEXT	SEGMENT
___formal$ = 8						; size = 4
___formal$ = 12						; size = 4
?__empty_global_delete@@YAXPAXI@Z PROC			; __empty_global_delete, COMDAT

  00000	c2 00 00	 ret	 0
?__empty_global_delete@@YAXPAXI@Z ENDP			; __empty_global_delete
_TEXT	ENDS
; Function compile flags: /Ogtp
; File C:\IAGOS\server\v18\Source\Source\_Common\EventLua.cpp
;	COMDAT ?__empty_global_delete@@YAXPAX@Z
_TEXT	SEGMENT
___formal$ = 8						; size = 4
?__empty_global_delete@@YAXPAX@Z PROC			; __empty_global_delete, COMDAT

  00000	c2 00 00	 ret	 0
?__empty_global_delete@@YAXPAX@Z ENDP			; __empty_global_delete
_TEXT	ENDS
END
