; Listing generated by Microsoft (R) Optimizing Compiler Version 19.44.35225.0 

	TITLE	C:\IAGOS\server\v18\Source\Output\WorldServer\Release\EventLua.obj
	.686P
	.XMM
	include listing.inc
	.model	flat

INCLUDELIB LIBCMT
INCLUDELIB OLDNAMES

CONST	SEGMENT
?piecewise_construct@std@@3Upiecewise_construct_t@1@B	ORG $+1 ; std::piecewise_construct
CONST	ENDS
PUBLIC	?__empty_global_delete@@YAXPAX@Z		; __empty_global_delete
PUBLIC	?__empty_global_delete@@YAXPAXI@Z		; __empty_global_delete
PUBLIC	___local_stdio_printf_options
PUBLIC	?AtlThrowImpl@ATL@@YGXJ@Z			; ATL::AtlThrowImpl
PUBLIC	??1?$CSimpleStringT@D$0A@@ATL@@QAE@XZ		; ATL::CSimpleStringT<char,0>::~CSimpleStringT<char,0>
PUBLIC	?SetString@?$CSimpleStringT@D$0A@@ATL@@QAEXPBDH@Z ; ATL::CSimpleStringT<char,0>::SetString
PUBLIC	?ThrowMemoryException@?$CSimpleStringT@D$0A@@ATL@@KAXXZ ; ATL::CSimpleStringT<char,0>::ThrowMemoryException
PUBLIC	?Fork@?$CSimpleStringT@D$0A@@ATL@@AAEXH@Z	; ATL::CSimpleStringT<char,0>::Fork
PUBLIC	?PrepareWrite2@?$CSimpleStringT@D$0A@@ATL@@AAEXH@Z ; ATL::CSimpleStringT<char,0>::PrepareWrite2
PUBLIC	?Reallocate@?$CSimpleStringT@D$0A@@ATL@@AAEXH@Z	; ATL::CSimpleStringT<char,0>::Reallocate
PUBLIC	??1?$CStringT@DV?$StrTraitMFC@DV?$ChTraitsCRT@D@ATL@@@@@ATL@@QAE@XZ ; ATL::CStringT<char,StrTraitMFC<char,ATL::ChTraitsCRT<char> > >::~CStringT<char,StrTraitMFC<char,ATL::ChTraitsCRT<char> > >
PUBLIC	?Format@?$CStringT@DV?$StrTraitMFC@DV?$ChTraitsCRT@D@ATL@@@@@ATL@@QAAXPBDZZ ; ATL::CStringT<char,StrTraitMFC<char,ATL::ChTraitsCRT<char> > >::Format
PUBLIC	?FormatV@?$CStringT@DV?$StrTraitMFC@DV?$ChTraitsCRT@D@ATL@@@@@ATL@@QAEXPBDPAD@Z ; ATL::CStringT<char,StrTraitMFC<char,ATL::ChTraitsCRT<char> > >::FormatV
PUBLIC	?LoadStringA@?$CStringT@DV?$StrTraitMFC@DV?$ChTraitsCRT@D@ATL@@@@@ATL@@QAEHI@Z ; ATL::CStringT<char,StrTraitMFC<char,ATL::ChTraitsCRT<char> > >::LoadStringA
PUBLIC	??0exception@std@@QAE@ABV01@@Z			; std::exception::exception
PUBLIC	??1exception@std@@UAE@XZ			; std::exception::~exception
PUBLIC	?what@exception@std@@UBEPBDXZ			; std::exception::what
PUBLIC	??_Gexception@std@@UAEPAXI@Z			; std::exception::`scalar deleting destructor'
PUBLIC	??0bad_alloc@std@@QAE@ABV01@@Z			; std::bad_alloc::bad_alloc
PUBLIC	??_Gbad_alloc@std@@UAEPAXI@Z			; std::bad_alloc::`scalar deleting destructor'
PUBLIC	??0bad_array_new_length@std@@QAE@XZ		; std::bad_array_new_length::bad_array_new_length
PUBLIC	??1bad_array_new_length@std@@UAE@XZ		; std::bad_array_new_length::~bad_array_new_length
PUBLIC	??0bad_array_new_length@std@@QAE@ABV01@@Z	; std::bad_array_new_length::bad_array_new_length
PUBLIC	??_Gbad_array_new_length@std@@UAEPAXI@Z		; std::bad_array_new_length::`scalar deleting destructor'
PUBLIC	?_Throw_bad_array_new_length@std@@YAXXZ		; std::_Throw_bad_array_new_length
PUBLIC	?_Xlen_string@std@@YAXXZ			; std::_Xlen_string
PUBLIC	??0?$basic_string@DU?$char_traits@D@std@@V?$allocator@D@2@@std@@QAE@QBD@Z ; std::basic_string<char,std::char_traits<char>,std::allocator<char> >::basic_string<char,std::char_traits<char>,std::allocator<char> >
PUBLIC	??1?$basic_string@DU?$char_traits@D@std@@V?$allocator@D@2@@std@@QAE@XZ ; std::basic_string<char,std::char_traits<char>,std::allocator<char> >::~basic_string<char,std::char_traits<char>,std::allocator<char> >
PUBLIC	??4?$basic_string@DU?$char_traits@D@std@@V?$allocator@D@2@@std@@QAEAAV01@QBD@Z ; std::basic_string<char,std::char_traits<char>,std::allocator<char> >::operator=
PUBLIC	?_Throw_tree_length_error@std@@YAXXZ		; std::_Throw_tree_length_error
PUBLIC	??1?$vector@KV?$allocator@K@std@@@std@@QAE@XZ	; std::vector<unsigned long,std::allocator<unsigned long> >::~vector<unsigned long,std::allocator<unsigned long> >
PUBLIC	?_Xlength@?$vector@KV?$allocator@K@std@@@std@@CAXXZ ; std::vector<unsigned long,std::allocator<unsigned long> >::_Xlength
PUBLIC	??0CEventLuaProxy@@QAE@XZ			; CEventLuaProxy::CEventLuaProxy
PUBLIC	??1CEventLuaProxy@@UAE@XZ			; CEventLuaProxy::~CEventLuaProxy
PUBLIC	?Initialize@CEventLuaProxy@@QAEXPAVCEventLua@@@Z ; CEventLuaProxy::Initialize
PUBLIC	?deallocate@?$allocator@E@std@@QAEXQAEI@Z	; std::allocator<unsigned char>::deallocate
PUBLIC	??1?$vector@EV?$allocator@E@std@@@std@@QAE@XZ	; std::vector<unsigned char,std::allocator<unsigned char> >::~vector<unsigned char,std::allocator<unsigned char> >
PUBLIC	?push_back@?$vector@EV?$allocator@E@std@@@std@@QAEXABE@Z ; std::vector<unsigned char,std::allocator<unsigned char> >::push_back
PUBLIC	?_Buy_raw@?$vector@EV?$allocator@E@std@@@std@@AAEXI@Z ; std::vector<unsigned char,std::allocator<unsigned char> >::_Buy_raw
PUBLIC	?_Change_array@?$vector@EV?$allocator@E@std@@@std@@AAEXQAEII@Z ; std::vector<unsigned char,std::allocator<unsigned char> >::_Change_array
PUBLIC	?_Tidy@?$vector@EV?$allocator@E@std@@@std@@AAEXXZ ; std::vector<unsigned char,std::allocator<unsigned char> >::_Tidy
PUBLIC	?_Xlength@?$vector@EV?$allocator@E@std@@@std@@CAXXZ ; std::vector<unsigned char,std::allocator<unsigned char> >::_Xlength
PUBLIC	??_GCEventLuaProxy@@UAEPAXI@Z			; CEventLuaProxy::`scalar deleting destructor'
PUBLIC	??0CEventLua@@QAE@XZ				; CEventLua::CEventLua
PUBLIC	??1CEventLua@@UAE@XZ				; CEventLua::~CEventLua
PUBLIC	?GetEventList@CEventLua@@QAE?AV?$vector@EV?$allocator@E@std@@@std@@H@Z ; CEventLua::GetEventList
PUBLIC	?LoadScript@CEventLua@@QAEXXZ			; CEventLua::LoadScript
PUBLIC	?SetState@CEventLua@@QAEXEH@Z			; CEventLua::SetState
PUBLIC	?GetExpFactor@CEventLua@@QAEMH@Z		; CEventLua::GetExpFactor
PUBLIC	?GetItemDropRate@CEventLua@@QAEMH@Z		; CEventLua::GetItemDropRate
PUBLIC	?GetPieceItemDropRate@CEventLua@@QAEMH@Z	; CEventLua::GetPieceItemDropRate
PUBLIC	?GetGoldDropFactor@CEventLua@@QAEMH@Z		; CEventLua::GetGoldDropFactor
PUBLIC	?GetAttackPower@CEventLua@@QAEHH@Z		; CEventLua::GetAttackPower
PUBLIC	?GetDefensePower@CEventLua@@QAEHH@Z		; CEventLua::GetDefensePower
PUBLIC	?SetCoupon@CEventLua@@QAEXPAVCUser@@K@Z		; CEventLua::SetCoupon
PUBLIC	?GetDesc@CEventLua@@QAE?AV?$basic_string@DU?$char_traits@D@std@@V?$allocator@D@2@@std@@E@Z ; CEventLua::GetDesc
PUBLIC	?SetLevelUpGift@CEventLua@@QAEXPAVCUser@@H@Z	; CEventLua::SetLevelUpGift
PUBLIC	?GetItem@CEventLua@@QAE?AV?$map@KHU?$less@K@std@@V?$allocator@U?$pair@$$CBKH@std@@@2@@std@@K@Z ; CEventLua::GetItem
PUBLIC	?GetAllEventList@CEventLua@@QAEXPAVCUser@@@Z	; CEventLua::GetAllEventList
PUBLIC	?GetEventInfo@CEventLua@@QAEXPAVCUser@@H@Z	; CEventLua::GetEventInfo
PUBLIC	?GetCheerExpFactor@CEventLua@@QAEMH@Z		; CEventLua::GetCheerExpFactor
PUBLIC	?GetWeatherEventExpFactor@CEventLua@@QAEMH@Z	; CEventLua::GetWeatherEventExpFactor
PUBLIC	?GetWeatherEventTitle@CEventLua@@QAE?AV?$basic_string@DU?$char_traits@D@std@@V?$allocator@D@2@@std@@XZ ; CEventLua::GetWeatherEventTitle
PUBLIC	?GetShopBuyFactor@CEventLua@@QAEMH@Z		; CEventLua::GetShopBuyFactor
PUBLIC	?GetShopSellFactor@CEventLua@@QAEMH@Z		; CEventLua::GetShopSellFactor
PUBLIC	?GetCouponEvent@CEventLua@@QAEKH@Z		; CEventLua::GetCouponEvent
PUBLIC	??1?$vector@U__SPAWNREGION@CEventLua@@V?$allocator@U__SPAWNREGION@CEventLua@@@std@@@std@@QAE@XZ ; std::vector<CEventLua::__SPAWNREGION,std::allocator<CEventLua::__SPAWNREGION> >::~vector<CEventLua::__SPAWNREGION,std::allocator<CEventLua::__SPAWNREGION> >
PUBLIC	?_Lrotate@?$_Tree_val@U?$_Tree_simple_types@U?$pair@$$CBEV?$vector@U__SPAWNINFO@CEventLua@@V?$allocator@U__SPAWNINFO@CEventLua@@@std@@@std@@@std@@@std@@@std@@QAEXPAU?$_Tree_node@U?$pair@$$CBEV?$vector@U__SPAWNINFO@CEventLua@@V?$allocator@U__SPAWNINFO@CEventLua@@@std@@@std@@@std@@PAX@2@@Z ; std::_Tree_val<std::_Tree_simple_types<std::pair<unsigned char const ,std::vector<CEventLua::__SPAWNINFO,std::allocator<CEventLua::__SPAWNINFO> > > > >::_Lrotate
PUBLIC	?_Rrotate@?$_Tree_val@U?$_Tree_simple_types@U?$pair@$$CBEV?$vector@U__SPAWNINFO@CEventLua@@V?$allocator@U__SPAWNINFO@CEventLua@@@std@@@std@@@std@@@std@@@std@@QAEXPAU?$_Tree_node@U?$pair@$$CBEV?$vector@U__SPAWNINFO@CEventLua@@V?$allocator@U__SPAWNINFO@CEventLua@@@std@@@std@@@std@@PAX@2@@Z ; std::_Tree_val<std::_Tree_simple_types<std::pair<unsigned char const ,std::vector<CEventLua::__SPAWNINFO,std::allocator<CEventLua::__SPAWNINFO> > > > >::_Rrotate
PUBLIC	?_Extract@?$_Tree_val@U?$_Tree_simple_types@U?$pair@$$CBEV?$vector@U__SPAWNINFO@CEventLua@@V?$allocator@U__SPAWNINFO@CEventLua@@@std@@@std@@@std@@@std@@@std@@QAEPAU?$_Tree_node@U?$pair@$$CBEV?$vector@U__SPAWNINFO@CEventLua@@V?$allocator@U__SPAWNINFO@CEventLua@@@std@@@std@@@std@@PAX@2@V?$_Tree_unchecked_const_iterator@V?$_Tree_val@U?$_Tree_simple_types@U?$pair@$$CBEV?$vector@U__SPAWNINFO@CEventLua@@V?$allocator@U__SPAWNINFO@CEventLua@@@std@@@std@@@std@@@std@@@std@@U_Iterator_base0@2@@2@@Z ; std::_Tree_val<std::_Tree_simple_types<std::pair<unsigned char const ,std::vector<CEventLua::__SPAWNINFO,std::allocator<CEventLua::__SPAWNINFO> > > > >::_Extract
PUBLIC	?_Insert_node@?$_Tree_val@U?$_Tree_simple_types@U?$pair@$$CBEV?$vector@U__SPAWNINFO@CEventLua@@V?$allocator@U__SPAWNINFO@CEventLua@@@std@@@std@@@std@@@std@@@std@@QAEPAU?$_Tree_node@U?$pair@$$CBEV?$vector@U__SPAWNINFO@CEventLua@@V?$allocator@U__SPAWNINFO@CEventLua@@@std@@@std@@@std@@PAX@2@U?$_Tree_id@PAU?$_Tree_node@U?$pair@$$CBEV?$vector@U__SPAWNINFO@CEventLua@@V?$allocator@U__SPAWNINFO@CEventLua@@@std@@@std@@@std@@PAX@std@@@2@QAU32@@Z ; std::_Tree_val<std::_Tree_simple_types<std::pair<unsigned char const ,std::vector<CEventLua::__SPAWNINFO,std::allocator<CEventLua::__SPAWNINFO> > > > >::_Insert_node
PUBLIC	??1?$map@EV?$vector@U__SPAWNINFO@CEventLua@@V?$allocator@U__SPAWNINFO@CEventLua@@@std@@@std@@U?$less@E@2@V?$allocator@U?$pair@$$CBEV?$vector@U__SPAWNINFO@CEventLua@@V?$allocator@U__SPAWNINFO@CEventLua@@@std@@@std@@@std@@@2@@std@@QAE@XZ ; std::map<unsigned char,std::vector<CEventLua::__SPAWNINFO,std::allocator<CEventLua::__SPAWNINFO> >,std::less<unsigned char>,std::allocator<std::pair<unsigned char const ,std::vector<CEventLua::__SPAWNINFO,std::allocator<CEventLua::__SPAWNINFO> > > > >::~map<unsigned char,std::vector<CEventLua::__SPAWNINFO,std::allocator<CEventLua::__SPAWNINFO> >,std::less<unsigned char>,std::allocator<std::pair<unsigned char const ,std::vector<CEventLua::__SPAWNINFO,std::allocator<CEventLua::__SPAWNINFO> > > > >
PUBLIC	??1?$_Tree@V?$_Tmap_traits@KEU?$less@K@std@@V?$allocator@U?$pair@$$CBKE@std@@@2@$0A@@std@@@std@@QAE@XZ ; std::_Tree<std::_Tmap_traits<unsigned long,unsigned char,std::less<unsigned long>,std::allocator<std::pair<unsigned long const ,unsigned char> >,0> >::~_Tree<std::_Tmap_traits<unsigned long,unsigned char,std::less<unsigned long>,std::allocator<std::pair<unsigned long const ,unsigned char> >,0> >
PUBLIC	?clear@?$_Tree@V?$_Tmap_traits@KEU?$less@K@std@@V?$allocator@U?$pair@$$CBKE@std@@@2@$0A@@std@@@std@@QAEXXZ ; std::_Tree<std::_Tmap_traits<unsigned long,unsigned char,std::less<unsigned long>,std::allocator<std::pair<unsigned long const ,unsigned char> >,0> >::clear
PUBLIC	?_Lrotate@?$_Tree_val@U?$_Tree_simple_types@U?$pair@$$CBKE@std@@@std@@@std@@QAEXPAU?$_Tree_node@U?$pair@$$CBKE@std@@PAX@2@@Z ; std::_Tree_val<std::_Tree_simple_types<std::pair<unsigned long const ,unsigned char> > >::_Lrotate
PUBLIC	?_Rrotate@?$_Tree_val@U?$_Tree_simple_types@U?$pair@$$CBKE@std@@@std@@@std@@QAEXPAU?$_Tree_node@U?$pair@$$CBKE@std@@PAX@2@@Z ; std::_Tree_val<std::_Tree_simple_types<std::pair<unsigned long const ,unsigned char> > >::_Rrotate
PUBLIC	?_Extract@?$_Tree_val@U?$_Tree_simple_types@U?$pair@$$CBKE@std@@@std@@@std@@QAEPAU?$_Tree_node@U?$pair@$$CBKE@std@@PAX@2@V?$_Tree_unchecked_const_iterator@V?$_Tree_val@U?$_Tree_simple_types@U?$pair@$$CBKE@std@@@std@@@std@@U_Iterator_base0@2@@2@@Z ; std::_Tree_val<std::_Tree_simple_types<std::pair<unsigned long const ,unsigned char> > >::_Extract
PUBLIC	?_Insert_node@?$_Tree_val@U?$_Tree_simple_types@U?$pair@$$CBKE@std@@@std@@@std@@QAEPAU?$_Tree_node@U?$pair@$$CBKE@std@@PAX@2@U?$_Tree_id@PAU?$_Tree_node@U?$pair@$$CBKE@std@@PAX@std@@@2@QAU32@@Z ; std::_Tree_val<std::_Tree_simple_types<std::pair<unsigned long const ,unsigned char> > >::_Insert_node
PUBLIC	??1?$map@KEU?$less@K@std@@V?$allocator@U?$pair@$$CBKE@std@@@2@@std@@QAE@XZ ; std::map<unsigned long,unsigned char,std::less<unsigned long>,std::allocator<std::pair<unsigned long const ,unsigned char> > >::~map<unsigned long,unsigned char,std::less<unsigned long>,std::allocator<std::pair<unsigned long const ,unsigned char> > >
PUBLIC	?SetSpawnEvent@CEventLua@@AAEXEH@Z		; CEventLua::SetSpawnEvent
PUBLIC	?EventSpawnProcess@CEventLua@@QAEXXZ		; CEventLua::EventSpawnProcess
PUBLIC	?DeleteEndEventProcess@CEventLua@@QAEXXZ	; CEventLua::DeleteEndEventProcess
PUBLIC	??1?$_Tree@V?$_Tmap_traits@KHU?$less@K@std@@V?$allocator@U?$pair@$$CBKH@std@@@2@$0A@@std@@@std@@QAE@XZ ; std::_Tree<std::_Tmap_traits<unsigned long,int,std::less<unsigned long>,std::allocator<std::pair<unsigned long const ,int> >,0> >::~_Tree<std::_Tmap_traits<unsigned long,int,std::less<unsigned long>,std::allocator<std::pair<unsigned long const ,int> >,0> >
PUBLIC	?clear@?$_Tree@V?$_Tmap_traits@KHU?$less@K@std@@V?$allocator@U?$pair@$$CBKH@std@@@2@$0A@@std@@@std@@QAEXXZ ; std::_Tree<std::_Tmap_traits<unsigned long,int,std::less<unsigned long>,std::allocator<std::pair<unsigned long const ,int> >,0> >::clear
PUBLIC	?_Insert_node@?$_Tree_val@U?$_Tree_simple_types@U?$pair@$$CBKH@std@@@std@@@std@@QAEPAU?$_Tree_node@U?$pair@$$CBKH@std@@PAX@2@U?$_Tree_id@PAU?$_Tree_node@U?$pair@$$CBKH@std@@PAX@std@@@2@QAU32@@Z ; std::_Tree_val<std::_Tree_simple_types<std::pair<unsigned long const ,int> > >::_Insert_node
PUBLIC	??1?$map@KHU?$less@K@std@@V?$allocator@U?$pair@$$CBKH@std@@@2@@std@@QAE@XZ ; std::map<unsigned long,int,std::less<unsigned long>,std::allocator<std::pair<unsigned long const ,int> > >::~map<unsigned long,int,std::less<unsigned long>,std::allocator<std::pair<unsigned long const ,int> > >
PUBLIC	?SetKeepConnectEvent@CEventLua@@QAEXPAVCUser@@K@Z ; CEventLua::SetKeepConnectEvent
PUBLIC	?GetKeepConnectTime@CEventLua@@QAEKH@Z		; CEventLua::GetKeepConnectTime
PUBLIC	?GetKeepConnectItem@CEventLua@@QAEXXZ		; CEventLua::GetKeepConnectItem
PUBLIC	?KeepConnectEventProcess@CEventLua@@QAEXXZ	; CEventLua::KeepConnectEventProcess
PUBLIC	??_GCEventLua@@UAEPAXI@Z			; CEventLua::`scalar deleting destructor'
PUBLIC	??E?$_Tree_unchecked_const_iterator@V?$_Tree_val@U?$_Tree_simple_types@U?$pair@$$CBKE@std@@@std@@@std@@U_Iterator_base0@2@@std@@QAEAAV01@XZ ; std::_Tree_unchecked_const_iterator<std::_Tree_val<std::_Tree_simple_types<std::pair<unsigned long const ,unsigned char> > >,std::_Iterator_base0>::operator++
PUBLIC	??$_Copy_memmove_n@PBEPAE@std@@YAPAEPBEIPAE@Z	; std::_Copy_memmove_n<unsigned char const *,unsigned char *>
PUBLIC	??$_Erase_tree@V?$allocator@U?$_Tree_node@U?$pair@$$CBKH@std@@PAX@std@@@std@@@?$_Tree_val@U?$_Tree_simple_types@U?$pair@$$CBKH@std@@@std@@@std@@QAEXAAV?$allocator@U?$_Tree_node@U?$pair@$$CBKH@std@@PAX@std@@@1@PAU?$_Tree_node@U?$pair@$$CBKH@std@@PAX@1@@Z ; std::_Tree_val<std::_Tree_simple_types<std::pair<unsigned long const ,int> > >::_Erase_tree<std::allocator<std::_Tree_node<std::pair<unsigned long const ,int>,void *> > >
PUBLIC	??$_Copy_memmove_tail@PAE@std@@YAPAEQBDQAEII@Z	; std::_Copy_memmove_tail<unsigned char *>
PUBLIC	??$_Copy_memmove@PAEPAE@std@@YAPAEPAE00@Z	; std::_Copy_memmove<unsigned char *,unsigned char *>
PUBLIC	??$_Erase_tree@V?$allocator@U?$_Tree_node@U?$pair@$$CBKE@std@@PAX@std@@@std@@@?$_Tree_val@U?$_Tree_simple_types@U?$pair@$$CBKE@std@@@std@@@std@@QAEXAAV?$allocator@U?$_Tree_node@U?$pair@$$CBKE@std@@PAX@std@@@1@PAU?$_Tree_node@U?$pair@$$CBKE@std@@PAX@1@@Z ; std::_Tree_val<std::_Tree_simple_types<std::pair<unsigned long const ,unsigned char> > >::_Erase_tree<std::allocator<std::_Tree_node<std::pair<unsigned long const ,unsigned char>,void *> > >
PUBLIC	??$_Allocate_manually_vector_aligned@U_Default_allocate_traits@std@@@std@@YAPAXI@Z ; std::_Allocate_manually_vector_aligned<std::_Default_allocate_traits>
PUBLIC	??E?$_Tree_unchecked_const_iterator@V?$_Tree_val@U?$_Tree_simple_types@U?$pair@$$CBEV?$vector@U__SPAWNINFO@CEventLua@@V?$allocator@U__SPAWNINFO@CEventLua@@@std@@@std@@@std@@@std@@@std@@U_Iterator_base0@2@@std@@QAEAAV01@XZ ; std::_Tree_unchecked_const_iterator<std::_Tree_val<std::_Tree_simple_types<std::pair<unsigned char const ,std::vector<CEventLua::__SPAWNINFO,std::allocator<CEventLua::__SPAWNINFO> > > > >,std::_Iterator_base0>::operator++
PUBLIC	?deallocate@?$allocator@U__SPAWNINFO@CEventLua@@@std@@QAEXQAU__SPAWNINFO@CEventLua@@I@Z ; std::allocator<CEventLua::__SPAWNINFO>::deallocate
PUBLIC	??1?$vector@U__SPAWNINFO@CEventLua@@V?$allocator@U__SPAWNINFO@CEventLua@@@std@@@std@@QAE@XZ ; std::vector<CEventLua::__SPAWNINFO,std::allocator<CEventLua::__SPAWNINFO> >::~vector<CEventLua::__SPAWNINFO,std::allocator<CEventLua::__SPAWNINFO> >
PUBLIC	?_Buy_raw@?$vector@U__SPAWNINFO@CEventLua@@V?$allocator@U__SPAWNINFO@CEventLua@@@std@@@std@@AAEXI@Z ; std::vector<CEventLua::__SPAWNINFO,std::allocator<CEventLua::__SPAWNINFO> >::_Buy_raw
PUBLIC	?_Tidy@?$vector@U__SPAWNINFO@CEventLua@@V?$allocator@U__SPAWNINFO@CEventLua@@@std@@@std@@AAEXXZ ; std::vector<CEventLua::__SPAWNINFO,std::allocator<CEventLua::__SPAWNINFO> >::_Tidy
PUBLIC	?_Xlength@?$vector@U__SPAWNINFO@CEventLua@@V?$allocator@U__SPAWNINFO@CEventLua@@@std@@@std@@CAXXZ ; std::vector<CEventLua::__SPAWNINFO,std::allocator<CEventLua::__SPAWNINFO> >::_Xlength
PUBLIC	??$insert@U?$pair@KE@std@@$0A@@?$map@KEU?$less@K@std@@V?$allocator@U?$pair@$$CBKE@std@@@2@@std@@QAE?AU?$pair@V?$_Tree_iterator@V?$_Tree_val@U?$_Tree_simple_types@U?$pair@$$CBKE@std@@@std@@@std@@@std@@_N@1@$$QAU?$pair@KE@1@@Z ; std::map<unsigned long,unsigned char,std::less<unsigned long>,std::allocator<std::pair<unsigned long const ,unsigned char> > >::insert<std::pair<unsigned long,unsigned char>,0>
PUBLIC	??1?$pair@EV?$vector@U__SPAWNINFO@CEventLua@@V?$allocator@U__SPAWNINFO@CEventLua@@@std@@@std@@@std@@QAE@XZ ; std::pair<unsigned char,std::vector<CEventLua::__SPAWNINFO,std::allocator<CEventLua::__SPAWNINFO> > >::~pair<unsigned char,std::vector<CEventLua::__SPAWNINFO,std::allocator<CEventLua::__SPAWNINFO> > >
PUBLIC	??$_Erase_tree@V?$allocator@U?$_Tree_node@U?$pair@$$CBEV?$vector@U__SPAWNINFO@CEventLua@@V?$allocator@U__SPAWNINFO@CEventLua@@@std@@@std@@@std@@PAX@std@@@std@@@?$_Tree_val@U?$_Tree_simple_types@U?$pair@$$CBEV?$vector@U__SPAWNINFO@CEventLua@@V?$allocator@U__SPAWNINFO@CEventLua@@@std@@@std@@@std@@@std@@@std@@QAEXAAV?$allocator@U?$_Tree_node@U?$pair@$$CBEV?$vector@U__SPAWNINFO@CEventLua@@V?$allocator@U__SPAWNINFO@CEventLua@@@std@@@std@@@std@@PAX@std@@@1@PAU?$_Tree_node@U?$pair@$$CBEV?$vector@U__SPAWNINFO@CEventLua@@V?$allocator@U__SPAWNINFO@CEventLua@@@std@@@std@@@std@@PAX@1@@Z ; std::_Tree_val<std::_Tree_simple_types<std::pair<unsigned char const ,std::vector<CEventLua::__SPAWNINFO,std::allocator<CEventLua::__SPAWNINFO> > > > >::_Erase_tree<std::allocator<std::_Tree_node<std::pair<unsigned char const ,std::vector<CEventLua::__SPAWNINFO,std::allocator<CEventLua::__SPAWNINFO> > >,void *> > >
PUBLIC	??$_Find_lower_bound@K@?$_Tree@V?$_Tmap_traits@KHU?$less@K@std@@V?$allocator@U?$pair@$$CBKH@std@@@2@$0A@@std@@@std@@IBE?AU?$_Tree_find_result@PAU?$_Tree_node@U?$pair@$$CBKH@std@@PAX@std@@@1@ABK@Z ; std::_Tree<std::_Tmap_traits<unsigned long,int,std::less<unsigned long>,std::allocator<std::pair<unsigned long const ,int> >,0> >::_Find_lower_bound<unsigned long>
PUBLIC	??1?$_Alloc_construct_ptr@V?$allocator@U?$_Tree_node@U?$pair@$$CBKH@std@@PAX@std@@@std@@@std@@QAE@XZ ; std::_Alloc_construct_ptr<std::allocator<std::_Tree_node<std::pair<unsigned long const ,int>,void *> > >::~_Alloc_construct_ptr<std::allocator<std::_Tree_node<std::pair<unsigned long const ,int>,void *> > >
PUBLIC	??$_Copy_memmove_n@PAU__SPAWNINFO@CEventLua@@PAU12@@std@@YAPAU__SPAWNINFO@CEventLua@@PAU12@I0@Z ; std::_Copy_memmove_n<CEventLua::__SPAWNINFO *,CEventLua::__SPAWNINFO *>
PUBLIC	??$_Find_lower_bound@E@?$_Tree@V?$_Tmap_traits@EV?$vector@U__SPAWNINFO@CEventLua@@V?$allocator@U__SPAWNINFO@CEventLua@@@std@@@std@@U?$less@E@2@V?$allocator@U?$pair@$$CBEV?$vector@U__SPAWNINFO@CEventLua@@V?$allocator@U__SPAWNINFO@CEventLua@@@std@@@std@@@std@@@2@$0A@@std@@@std@@IBE?AU?$_Tree_find_result@PAU?$_Tree_node@U?$pair@$$CBEV?$vector@U__SPAWNINFO@CEventLua@@V?$allocator@U__SPAWNINFO@CEventLua@@@std@@@std@@@std@@PAX@std@@@1@ABE@Z ; std::_Tree<std::_Tmap_traits<unsigned char,std::vector<CEventLua::__SPAWNINFO,std::allocator<CEventLua::__SPAWNINFO> >,std::less<unsigned char>,std::allocator<std::pair<unsigned char const ,std::vector<CEventLua::__SPAWNINFO,std::allocator<CEventLua::__SPAWNINFO> > > >,0> >::_Find_lower_bound<unsigned char>
PUBLIC	??$_Emplace_reallocate@U__SPAWNINFO@CEventLua@@@?$vector@U__SPAWNINFO@CEventLua@@V?$allocator@U__SPAWNINFO@CEventLua@@@std@@@std@@AAEPAU__SPAWNINFO@CEventLua@@QAU23@$$QAU23@@Z ; std::vector<CEventLua::__SPAWNINFO,std::allocator<CEventLua::__SPAWNINFO> >::_Emplace_reallocate<CEventLua::__SPAWNINFO>
PUBLIC	??$_Emplace_reallocate@ABK@?$vector@KV?$allocator@K@std@@@std@@AAEPAKQAKABK@Z ; std::vector<unsigned long,std::allocator<unsigned long> >::_Emplace_reallocate<unsigned long const &>
PUBLIC	??1?$_Alloc_construct_ptr@V?$allocator@U?$_Tree_node@U?$pair@$$CBKE@std@@PAX@std@@@std@@@std@@QAE@XZ ; std::_Alloc_construct_ptr<std::allocator<std::_Tree_node<std::pair<unsigned long const ,unsigned char>,void *> > >::~_Alloc_construct_ptr<std::allocator<std::_Tree_node<std::pair<unsigned long const ,unsigned char>,void *> > >
PUBLIC	??1?$_Alloc_construct_ptr@V?$allocator@U?$_Tree_node@U?$pair@$$CBEV?$vector@U__SPAWNINFO@CEventLua@@V?$allocator@U__SPAWNINFO@CEventLua@@@std@@@std@@@std@@PAX@std@@@std@@@std@@QAE@XZ ; std::_Alloc_construct_ptr<std::allocator<std::_Tree_node<std::pair<unsigned char const ,std::vector<CEventLua::__SPAWNINFO,std::allocator<CEventLua::__SPAWNINFO> > >,void *> > >::~_Alloc_construct_ptr<std::allocator<std::_Tree_node<std::pair<unsigned char const ,std::vector<CEventLua::__SPAWNINFO,std::allocator<CEventLua::__SPAWNINFO> > >,void *> > >
PUBLIC	??$_Copy_memmove_tail@PAU__SPAWNINFO@CEventLua@@@std@@YAPAU__SPAWNINFO@CEventLua@@QBDQAU12@II@Z ; std::_Copy_memmove_tail<CEventLua::__SPAWNINFO *>
PUBLIC	??$_Copy_memmove@PAU__SPAWNINFO@CEventLua@@PAU12@@std@@YAPAU__SPAWNINFO@CEventLua@@PAU12@00@Z ; std::_Copy_memmove<CEventLua::__SPAWNINFO *,CEventLua::__SPAWNINFO *>
PUBLIC	??$_Copy_memmove@PAKPAK@std@@YAPAKPAK00@Z	; std::_Copy_memmove<unsigned long *,unsigned long *>
PUBLIC	??$_Copy_memmove_tail@PAK@std@@YAPAKQBDQAKII@Z	; std::_Copy_memmove_tail<unsigned long *>
PUBLIC	?_OptionsStorage@?1??__local_stdio_printf_options@@9@4_KA ; `__local_stdio_printf_options'::`2'::_OptionsStorage
PUBLIC	??_C@_00CNPNBAHC@@				; `string'
PUBLIC	??_7exception@std@@6B@				; std::exception::`vftable'
PUBLIC	??_C@_0BC@EOODALEL@Unknown?5exception@		; `string'
PUBLIC	??_7bad_alloc@std@@6B@				; std::bad_alloc::`vftable'
PUBLIC	??_7bad_array_new_length@std@@6B@		; std::bad_array_new_length::`vftable'
PUBLIC	??_C@_0BF@KINCDENJ@bad?5array?5new?5length@	; `string'
PUBLIC	??_R0?AVexception@std@@@8			; std::exception `RTTI Type Descriptor'
PUBLIC	__CT??_R0?AVexception@std@@@8??0exception@std@@QAE@ABV01@@Z12
PUBLIC	__TI3?AVbad_array_new_length@std@@
PUBLIC	__CTA3?AVbad_array_new_length@std@@
PUBLIC	??_R0?AVbad_array_new_length@std@@@8		; std::bad_array_new_length `RTTI Type Descriptor'
PUBLIC	__CT??_R0?AVbad_array_new_length@std@@@8??0bad_array_new_length@std@@QAE@ABV01@@Z12
PUBLIC	??_R0?AVbad_alloc@std@@@8			; std::bad_alloc `RTTI Type Descriptor'
PUBLIC	__CT??_R0?AVbad_alloc@std@@@8??0bad_alloc@std@@QAE@ABV01@@Z12
PUBLIC	??_C@_0BA@JFNIOLAK@string?5too?5long@		; `string'
PUBLIC	??_C@_0BB@GCADKGJO@map?1set?5too?5long@		; `string'
PUBLIC	??_7CEventLuaProxy@@6B@				; CEventLuaProxy::`vftable'
PUBLIC	??_7CEventLua@@6B@				; CEventLua::`vftable'
PUBLIC	??_C@_0BM@HMFGHCP@?$CFs?5min?3?$CFd?0?5max?3?$CFd?0?5index?3?$CFd@ ; `string'
PUBLIC	??_C@_0BI@BEIFNGEL@GetItemProp?5range_error@	; `string'
PUBLIC	??_C@_0BJ@GKPOBPPI@GetMoverProp?5range_error@	; `string'
PUBLIC	??_C@_0BA@FOIKENOD@vector?5too?5long@		; `string'
PUBLIC	??_R4exception@std@@6B@				; std::exception::`RTTI Complete Object Locator'
PUBLIC	??_R3exception@std@@8				; std::exception::`RTTI Class Hierarchy Descriptor'
PUBLIC	??_R2exception@std@@8				; std::exception::`RTTI Base Class Array'
PUBLIC	??_R1A@?0A@EA@exception@std@@8			; std::exception::`RTTI Base Class Descriptor at (0,-1,0,64)'
PUBLIC	??_R4bad_array_new_length@std@@6B@		; std::bad_array_new_length::`RTTI Complete Object Locator'
PUBLIC	??_R3bad_array_new_length@std@@8		; std::bad_array_new_length::`RTTI Class Hierarchy Descriptor'
PUBLIC	??_R2bad_array_new_length@std@@8		; std::bad_array_new_length::`RTTI Base Class Array'
PUBLIC	??_R1A@?0A@EA@bad_array_new_length@std@@8	; std::bad_array_new_length::`RTTI Base Class Descriptor at (0,-1,0,64)'
PUBLIC	??_R1A@?0A@EA@bad_alloc@std@@8			; std::bad_alloc::`RTTI Base Class Descriptor at (0,-1,0,64)'
PUBLIC	??_R3bad_alloc@std@@8				; std::bad_alloc::`RTTI Class Hierarchy Descriptor'
PUBLIC	??_R2bad_alloc@std@@8				; std::bad_alloc::`RTTI Base Class Array'
PUBLIC	??_R4bad_alloc@std@@6B@				; std::bad_alloc::`RTTI Complete Object Locator'
PUBLIC	??_C@_0N@CAKNNDNG@GetEventList@			; `string'
PUBLIC	??_C@_09BFLDBOAB@Event?4lua@			; `string'
PUBLIC	??_C@_0BH@KMCEPDIF@Event?4lua?5?$LN?G?G?$OA?5?$LN?G?F?P?$CB?$CB?$CB@ ; `string'
PUBLIC	??_C@_08JMKFDPFL@SetState@			; `string'
PUBLIC	??_C@_07EJFENACC@GetDesc@			; `string'
PUBLIC	??_C@_07NPEJNGCF@GetItem@			; `string'
PUBLIC	??_C@_06MFPHJAPD@ItemId@			; `string'
PUBLIC	??_C@_07HEBBLACC@ItemNum@			; `string'
PUBLIC	??_C@_0N@NBPJBJNN@GetExpFactor@			; `string'
PUBLIC	??_C@_0BA@MLJLEPOJ@GetItemDropRate@		; `string'
PUBLIC	??_C@_0BF@KBKPCOBF@GetPieceItemDropRate@	; `string'
PUBLIC	??_C@_0BC@EAGMKEGO@GetGoldDropFactor@		; `string'
PUBLIC	??_C@_0BA@LLOGNHHK@GetAllEventList@		; `string'
PUBLIC	??_C@_03HLJILIDP@nId@				; `string'
PUBLIC	??_C@_08DNBCIPJJ@strTitle@			; `string'
PUBLIC	??_C@_06PHLKOEGH@nState@			; `string'
PUBLIC	??_C@_0CC@PNFPDMBJ@ID?5?3?5?$CFd?0?5?5Title?5?3?5?$CFs?0?5?5State?5?3?5@ ; `string'
PUBLIC	??_C@_0N@MGEBMOBO@GetEventInfo@			; `string'
PUBLIC	??_C@_0P@DPKGMIHE@GetAttackPower@		; `string'
PUBLIC	??_C@_0BA@NNDCMDIP@GetDefensePower@		; `string'
PUBLIC	??_C@_0P@JBFAKDCI@GetCouponEvent@		; `string'
PUBLIC	??_C@_0P@KENDMHID@GetLevelUpGift@		; `string'
PUBLIC	??_C@_09OFFFBNFE@strItemId@			; `string'
PUBLIC	??_C@_08GDJLCBND@nItemNum@			; `string'
PUBLIC	??_C@_0DO@JOCEGGGB@CEventLua?3?3SetLevelUpGift?$CI?$CJ?5?9?5I@ ; `string'
PUBLIC	??_C@_06JHHNJIGB@byFlag@			; `string'
PUBLIC	??_C@_01DDCIFGEA@E@				; `string'
PUBLIC	??_C@_0BD@CEEECHDH@EVENT_LEVELUP_GIFT@		; `string'
PUBLIC	??_C@_0BI@BOAOACJA@EVENT_LEVELUP_GIFT_POST@	; `string'
PUBLIC	??_C@_04OEDFLLKD@?$CC?$CFs?$CC@			; `string'
PUBLIC	??_C@_0BC@DBLMBKOM@GetCheerExpFactor@		; `string'
PUBLIC	??_C@_08HJLLONHE@GetSpawn@			; `string'
PUBLIC	??_C@_05OLBMEBNJ@nType@				; `string'
PUBLIC	??_C@_05HADFBHMH@strId@				; `string'
PUBLIC	??_C@_07CBDAANGL@nDayNum@			; `string'
PUBLIC	??_C@_0EA@NGBNDEML@?6Lua?5Spawn?3?5type?5?$DN?5ITEM?0?5index?5@ ; `string'
PUBLIC	??_C@_0ED@GONLAOPM@?6Lua?5Spawn?3?5type?5?$DN?5MONSTER?0?5ind@ ; `string'
PUBLIC	??_C@_0EC@HDKLLJKN@?6CEventLua?3?3DeleteEndEventProce@ ; `string'
PUBLIC	??_C@_0DO@COLMFNCF@?6CEventLua?3?3DeleteEndEventProce@ ; `string'
PUBLIC	??_C@_0BD@DPFKGCHP@GetKeepConnectTime@		; `string'
PUBLIC	??_C@_0BD@MDJDGFLO@GetKeepConnectItem@		; `string'
PUBLIC	??_C@_0BJ@CBMOAIBF@GetWeatherEventExpFactor@	; `string'
PUBLIC	??_C@_0BF@BCGDKDON@GetWeatherEventTitle@	; `string'
PUBLIC	??_C@_0BB@DMNIFEGD@GetShopBuyFactor@		; `string'
PUBLIC	??_C@_0BC@JENBNLH@GetShopSellFactor@		; `string'
PUBLIC	??_C@_0BN@IAMDMCDM@?6CEventLuaProxy?3?3Initialize?6@ ; `string'
PUBLIC	??_R4CEventLua@@6B@				; CEventLua::`RTTI Complete Object Locator'
PUBLIC	??_R0?AVCEventLua@@@8				; CEventLua `RTTI Type Descriptor'
PUBLIC	??_R3CEventLua@@8				; CEventLua::`RTTI Class Hierarchy Descriptor'
PUBLIC	??_R2CEventLua@@8				; CEventLua::`RTTI Base Class Array'
PUBLIC	??_R1A@?0A@EA@CEventLua@@8			; CEventLua::`RTTI Base Class Descriptor at (0,-1,0,64)'
PUBLIC	??_R4CEventLuaProxy@@6B@			; CEventLuaProxy::`RTTI Complete Object Locator'
PUBLIC	??_R0?AVCEventLuaProxy@@@8			; CEventLuaProxy `RTTI Type Descriptor'
PUBLIC	??_R3CEventLuaProxy@@8				; CEventLuaProxy::`RTTI Class Hierarchy Descriptor'
PUBLIC	??_R2CEventLuaProxy@@8				; CEventLuaProxy::`RTTI Base Class Array'
PUBLIC	??_R1A@?0A@EA@CEventLuaProxy@@8			; CEventLuaProxy::`RTTI Base Class Descriptor at (0,-1,0,64)'
PUBLIC	__real@3f800000
PUBLIC	__xmm@00000000000000000000006400000064
PUBLIC	__xmm@41f00000000000000000000000000000
EXTRN	??2@YAPAXI@Z:PROC				; operator new
EXTRN	??3@YAXPAXI@Z:PROC				; operator delete
EXTRN	__invalid_parameter_noinfo:PROC
EXTRN	__invoke_watson:PROC
EXTRN	__errno:PROC
EXTRN	__imp__OutputDebugStringA@4:PROC
EXTRN	__imp__GetTickCount@0:PROC
EXTRN	__imp__LoadResource@8:PROC
EXTRN	__imp__LockResource@4:PROC
EXTRN	__imp__SizeofResource@8:PROC
EXTRN	__imp__FindResourceW@12:PROC
EXTRN	__imp__WideCharToMultiByte@32:PROC
EXTRN	___stdio_common_vsprintf:PROC
EXTRN	___stdio_common_vsprintf_s:PROC
EXTRN	?AfxThrowMemoryException@@YGXXZ:PROC		; AfxThrowMemoryException
EXTRN	?AfxThrowOleException@@YGXJ@Z:PROC		; AfxThrowOleException
EXTRN	?AfxFindStringResourceHandle@@YGPAUHINSTANCE__@@I@Z:PROC ; AfxFindStringResourceHandle
EXTRN	?AfxGetStringManager@@YGPAUIAtlStringMgr@ATL@@XZ:PROC ; AfxGetStringManager
EXTRN	___std_exception_copy:PROC
EXTRN	___std_exception_destroy:PROC
EXTRN	??_Eexception@std@@UAEPAXI@Z:PROC		; std::exception::`vector deleting destructor'
EXTRN	??_Ebad_alloc@std@@UAEPAXI@Z:PROC		; std::bad_alloc::`vector deleting destructor'
EXTRN	??_Ebad_array_new_length@std@@UAEPAXI@Z:PROC	; std::bad_array_new_length::`vector deleting destructor'
EXTRN	?_Xlength_error@std@@YAXPBD@Z:PROC		; std::_Xlength_error
EXTRN	__imp__timeGetTime@0:PROC
EXTRN	?OUTPUTDEBUGSTRING@@YAXPBDZZ:PROC		; OUTPUTDEBUGSTRING
EXTRN	?GetDefineNum@CScript@@SAHPBD@Z:PROC		; CScript::GetDefineNum
EXTRN	?xRandom@@YAKKK@Z:PROC				; xRandom
EXTRN	?Error@@YAPBDPBDZZ:PROC				; Error
EXTRN	?UpdateLocalMatrix@CObj@@QAEXXZ:PROC		; CObj::UpdateLocalMatrix
EXTRN	?Delete@CObj@@QAEXXZ:PROC			; CObj::Delete
EXTRN	?SetPos@CObj@@QAEXABUD3DXVECTOR3@@@Z:PROC	; CObj::SetPos
EXTRN	_lua_type:PROC
EXTRN	_lua_tonumberx:PROC
EXTRN	_lua_toboolean:PROC
EXTRN	_lua_tolstring:PROC
EXTRN	_lua_pushnil:PROC
EXTRN	_lua_pushnumber:PROC
EXTRN	_lua_pushstring:PROC
EXTRN	_lua_next:PROC
EXTRN	??0CLuaBase@@QAE@XZ:PROC			; CLuaBase::CLuaBase
EXTRN	??1CLuaBase@@UAE@XZ:PROC			; CLuaBase::~CLuaBase
EXTRN	?RunScript@CLuaBase@@QAEHPBD@Z:PROC		; CLuaBase::RunScript
EXTRN	?Pop@CLuaBase@@QAEXH@Z:PROC			; CLuaBase::Pop
EXTRN	?GetFieldToNumber@CLuaBase@@QAENHPAD@Z:PROC	; CLuaBase::GetFieldToNumber
EXTRN	?GetFieldToString@CLuaBase@@QAEPBDHPAD@Z:PROC	; CLuaBase::GetFieldToString
EXTRN	?GetLuaFunction@CLuaBase@@QAEHPAD@Z:PROC	; CLuaBase::GetLuaFunction
EXTRN	?CallLuaFunction@CLuaBase@@QAEXHH@Z:PROC	; CLuaBase::CallLuaFunction
EXTRN	??_ECEventLuaProxy@@UAEPAXI@Z:PROC		; CEventLuaProxy::`vector deleting destructor'
EXTRN	??_ECEventLua@@UAEPAXI@Z:PROC			; CEventLua::`vector deleting destructor'
EXTRN	?GetMover@CProject@@QAEPAVCMover@@K@Z:PROC	; CProject::GetMover
EXTRN	?SetSerialNumber@CItemBase@@QAEXXZ:PROC		; CItemBase::SetSerialNumber
EXTRN	?GetName@CItemElem@@QAE?AV?$CStringT@DV?$StrTraitMFC@DV?$ChTraitsCRT@D@ATL@@@@@ATL@@XZ:PROC ; CItemElem::GetName
EXTRN	??0CItemElem@@QAE@XZ:PROC			; CItemElem::CItemElem
EXTRN	??1CItemElem@@UAE@XZ:PROC			; CItemElem::~CItemElem
EXTRN	?GetName@CMover@@QAEPBDH@Z:PROC			; CMover::GetName
EXTRN	?CreateItem@CMover@@QAEHPAVCItemBase@@PAEPAFE@Z:PROC ; CMover::CreateItem
EXTRN	?AddObj@CWorld@@QAEHPAVCObj@@HH@Z:PROC		; CWorld::AddObj
EXTRN	?GetLandHeight@CWorld@@QAEMMM@Z:PROC		; CWorld::GetLandHeight
EXTRN	?CreateObj@@YAPAVCObj@@PAUIDirect3DDevice9@@KKH@Z:PROC ; CreateObj
EXTRN	?AddText@CUser@@QAEXPBD@Z:PROC			; CUser::AddText
EXTRN	?AddDefinedText@CUser@@QAAXHPBDZZ:PROC		; CUser::AddDefinedText
EXTRN	?AddCoupon@CUser@@QAEXH@Z:PROC			; CUser::AddCoupon
EXTRN	?OnLogItem@CDPSrvr@@QAEXAAU_LogItemInfo@@PAVCItemElem@@H@Z:PROC ; CDPSrvr::OnLogItem
EXTRN	?SendQueryPostMail@CDPDatabaseClient@@QAEXKKAAVCItemElem@@HPAD1@Z:PROC ; CDPDatabaseClient::SendQueryPostMail
EXTRN	?GetWorld@CWorldMng@@QAEPAVCWorld@@K@Z:PROC	; CWorldMng::GetWorld
EXTRN	@__security_check_cookie@4:PROC
EXTRN	__CxxThrowException@8:PROC
EXTRN	___CxxFrameHandler3:PROC
EXTRN	__dtol3:PROC
EXTRN	__ftol2:PROC
EXTRN	_memcpy:PROC
EXTRN	_memmove:PROC
EXTRN	_memset:PROC
EXTRN	??_7type_info@@6B@:QWORD			; type_info::`vftable'
EXTRN	?g_next@@3KA:DWORD				; g_next
EXTRN	?prj@@3VCProject@@A:BYTE			; prj
EXTRN	?g_tmCurrent@@3KA:DWORD				; g_tmCurrent
EXTRN	?g_DPSrvr@@3VCDPSrvr@@A:BYTE			; g_DPSrvr
EXTRN	?g_dpDBClient@@3VCDPDatabaseClient@@A:BYTE	; g_dpDBClient
EXTRN	?g_WorldMng@@3VCWorldMng@@A:BYTE		; g_WorldMng
EXTRN	___security_cookie:DWORD
EXTRN	__fltused:DWORD
;	COMDAT ?_OptionsStorage@?1??__local_stdio_printf_options@@9@4_KA
_BSS	SEGMENT
?_OptionsStorage@?1??__local_stdio_printf_options@@9@4_KA DQ 01H DUP (?) ; `__local_stdio_printf_options'::`2'::_OptionsStorage
_BSS	ENDS
;	COMDAT __xmm@41f00000000000000000000000000000
CONST	SEGMENT
__xmm@41f00000000000000000000000000000 DB 00H, 00H, 00H, 00H, 00H, 00H, 00H
	DB	00H, 00H, 00H, 00H, 00H, 00H, 00H, 0f0H, 'A'
CONST	ENDS
;	COMDAT __xmm@00000000000000000000006400000064
CONST	SEGMENT
__xmm@00000000000000000000006400000064 DB 'd', 00H, 00H, 00H, 'd', 00H, 00H
	DB	00H, 00H, 00H, 00H, 00H, 00H, 00H, 00H, 00H
CONST	ENDS
;	COMDAT __real@3f800000
CONST	SEGMENT
__real@3f800000 DD 03f800000r			; 1
CONST	ENDS
;	COMDAT ??_R1A@?0A@EA@CEventLuaProxy@@8
rdata$r	SEGMENT
??_R1A@?0A@EA@CEventLuaProxy@@8 DD FLAT:??_R0?AVCEventLuaProxy@@@8 ; CEventLuaProxy::`RTTI Base Class Descriptor at (0,-1,0,64)'
	DD	00H
	DD	00H
	DD	0ffffffffH
	DD	00H
	DD	040H
	DD	FLAT:??_R3CEventLuaProxy@@8
rdata$r	ENDS
;	COMDAT ??_R2CEventLuaProxy@@8
rdata$r	SEGMENT
??_R2CEventLuaProxy@@8 DD FLAT:??_R1A@?0A@EA@CEventLuaProxy@@8 ; CEventLuaProxy::`RTTI Base Class Array'
rdata$r	ENDS
;	COMDAT ??_R3CEventLuaProxy@@8
rdata$r	SEGMENT
??_R3CEventLuaProxy@@8 DD 00H				; CEventLuaProxy::`RTTI Class Hierarchy Descriptor'
	DD	00H
	DD	01H
	DD	FLAT:??_R2CEventLuaProxy@@8
rdata$r	ENDS
;	COMDAT ??_R0?AVCEventLuaProxy@@@8
data$rs	SEGMENT
??_R0?AVCEventLuaProxy@@@8 DD FLAT:??_7type_info@@6B@	; CEventLuaProxy `RTTI Type Descriptor'
	DD	00H
	DB	'.?AVCEventLuaProxy@@', 00H
data$rs	ENDS
;	COMDAT ??_R4CEventLuaProxy@@6B@
rdata$r	SEGMENT
??_R4CEventLuaProxy@@6B@ DD 00H				; CEventLuaProxy::`RTTI Complete Object Locator'
	DD	00H
	DD	00H
	DD	FLAT:??_R0?AVCEventLuaProxy@@@8
	DD	FLAT:??_R3CEventLuaProxy@@8
rdata$r	ENDS
;	COMDAT ??_R1A@?0A@EA@CEventLua@@8
rdata$r	SEGMENT
??_R1A@?0A@EA@CEventLua@@8 DD FLAT:??_R0?AVCEventLua@@@8 ; CEventLua::`RTTI Base Class Descriptor at (0,-1,0,64)'
	DD	00H
	DD	00H
	DD	0ffffffffH
	DD	00H
	DD	040H
	DD	FLAT:??_R3CEventLua@@8
rdata$r	ENDS
;	COMDAT ??_R2CEventLua@@8
rdata$r	SEGMENT
??_R2CEventLua@@8 DD FLAT:??_R1A@?0A@EA@CEventLua@@8	; CEventLua::`RTTI Base Class Array'
rdata$r	ENDS
;	COMDAT ??_R3CEventLua@@8
rdata$r	SEGMENT
??_R3CEventLua@@8 DD 00H				; CEventLua::`RTTI Class Hierarchy Descriptor'
	DD	00H
	DD	01H
	DD	FLAT:??_R2CEventLua@@8
rdata$r	ENDS
;	COMDAT ??_R0?AVCEventLua@@@8
data$rs	SEGMENT
??_R0?AVCEventLua@@@8 DD FLAT:??_7type_info@@6B@	; CEventLua `RTTI Type Descriptor'
	DD	00H
	DB	'.?AVCEventLua@@', 00H
data$rs	ENDS
;	COMDAT ??_R4CEventLua@@6B@
rdata$r	SEGMENT
??_R4CEventLua@@6B@ DD 00H				; CEventLua::`RTTI Complete Object Locator'
	DD	00H
	DD	00H
	DD	FLAT:??_R0?AVCEventLua@@@8
	DD	FLAT:??_R3CEventLua@@8
rdata$r	ENDS
;	COMDAT ??_C@_0BN@IAMDMCDM@?6CEventLuaProxy?3?3Initialize?6@
CONST	SEGMENT
??_C@_0BN@IAMDMCDM@?6CEventLuaProxy?3?3Initialize?6@ DB 0aH, 'CEventLuaPr'
	DB	'oxy::Initialize', 0aH, 00H			; `string'
CONST	ENDS
;	COMDAT ??_C@_0BC@JENBNLH@GetShopSellFactor@
CONST	SEGMENT
??_C@_0BC@JENBNLH@GetShopSellFactor@ DB 'GetShopSellFactor', 00H ; `string'
CONST	ENDS
;	COMDAT ??_C@_0BB@DMNIFEGD@GetShopBuyFactor@
CONST	SEGMENT
??_C@_0BB@DMNIFEGD@GetShopBuyFactor@ DB 'GetShopBuyFactor', 00H ; `string'
CONST	ENDS
;	COMDAT ??_C@_0BF@BCGDKDON@GetWeatherEventTitle@
CONST	SEGMENT
??_C@_0BF@BCGDKDON@GetWeatherEventTitle@ DB 'GetWeatherEventTitle', 00H ; `string'
CONST	ENDS
;	COMDAT ??_C@_0BJ@CBMOAIBF@GetWeatherEventExpFactor@
CONST	SEGMENT
??_C@_0BJ@CBMOAIBF@GetWeatherEventExpFactor@ DB 'GetWeatherEventExpFactor'
	DB	00H						; `string'
CONST	ENDS
;	COMDAT ??_C@_0BD@MDJDGFLO@GetKeepConnectItem@
CONST	SEGMENT
??_C@_0BD@MDJDGFLO@GetKeepConnectItem@ DB 'GetKeepConnectItem', 00H ; `string'
CONST	ENDS
;	COMDAT ??_C@_0BD@DPFKGCHP@GetKeepConnectTime@
CONST	SEGMENT
??_C@_0BD@DPFKGCHP@GetKeepConnectTime@ DB 'GetKeepConnectTime', 00H ; `string'
CONST	ENDS
;	COMDAT ??_C@_0DO@COLMFNCF@?6CEventLua?3?3DeleteEndEventProce@
CONST	SEGMENT
??_C@_0DO@COLMFNCF@?6CEventLua?3?3DeleteEndEventProce@ DB 0aH, 'CEventLua'
	DB	'::DeleteEndEventProcess() - m_vecEndSpawnEvent : %d', 00H ; `string'
CONST	ENDS
;	COMDAT ??_C@_0EC@HDKLLJKN@?6CEventLua?3?3DeleteEndEventProce@
CONST	SEGMENT
??_C@_0EC@HDKLLJKN@?6CEventLua?3?3DeleteEndEventProce@ DB 0aH, 'CEventLua'
	DB	'::DeleteEndEventProcess() - ID:%d, %s(%d):%d, Remain:%d', 00H ; `string'
CONST	ENDS
;	COMDAT ??_C@_0ED@GONLAOPM@?6Lua?5Spawn?3?5type?5?$DN?5MONSTER?0?5ind@
CONST	SEGMENT
??_C@_0ED@GONLAOPM@?6Lua?5Spawn?3?5type?5?$DN?5MONSTER?0?5ind@ DB 0aH, 'L'
	DB	'ua Spawn: type = MONSTER, index = %d, world = %d, x = %f, z ='
	DB	' %f', 00H					; `string'
CONST	ENDS
;	COMDAT ??_C@_0EA@NGBNDEML@?6Lua?5Spawn?3?5type?5?$DN?5ITEM?0?5index?5@
CONST	SEGMENT
??_C@_0EA@NGBNDEML@?6Lua?5Spawn?3?5type?5?$DN?5ITEM?0?5index?5@ DB 0aH, 'L'
	DB	'ua Spawn: type = ITEM, index = %d, world = %d, x = %f, z = %f'
	DB	00H						; `string'
CONST	ENDS
;	COMDAT ??_C@_07CBDAANGL@nDayNum@
CONST	SEGMENT
??_C@_07CBDAANGL@nDayNum@ DB 'nDayNum', 00H		; `string'
CONST	ENDS
;	COMDAT ??_C@_05HADFBHMH@strId@
CONST	SEGMENT
??_C@_05HADFBHMH@strId@ DB 'strId', 00H			; `string'
CONST	ENDS
;	COMDAT ??_C@_05OLBMEBNJ@nType@
CONST	SEGMENT
??_C@_05OLBMEBNJ@nType@ DB 'nType', 00H			; `string'
CONST	ENDS
;	COMDAT ??_C@_08HJLLONHE@GetSpawn@
CONST	SEGMENT
??_C@_08HJLLONHE@GetSpawn@ DB 'GetSpawn', 00H		; `string'
CONST	ENDS
;	COMDAT ??_C@_0BC@DBLMBKOM@GetCheerExpFactor@
CONST	SEGMENT
??_C@_0BC@DBLMBKOM@GetCheerExpFactor@ DB 'GetCheerExpFactor', 00H ; `string'
CONST	ENDS
;	COMDAT ??_C@_04OEDFLLKD@?$CC?$CFs?$CC@
CONST	SEGMENT
??_C@_04OEDFLLKD@?$CC?$CFs?$CC@ DB '"%s"', 00H		; `string'
CONST	ENDS
;	COMDAT ??_C@_0BI@BOAOACJA@EVENT_LEVELUP_GIFT_POST@
CONST	SEGMENT
??_C@_0BI@BOAOACJA@EVENT_LEVELUP_GIFT_POST@ DB 'EVENT_LEVELUP_GIFT_POST', 00H ; `string'
CONST	ENDS
;	COMDAT ??_C@_0BD@CEEECHDH@EVENT_LEVELUP_GIFT@
CONST	SEGMENT
??_C@_0BD@CEEECHDH@EVENT_LEVELUP_GIFT@ DB 'EVENT_LEVELUP_GIFT', 00H ; `string'
CONST	ENDS
;	COMDAT ??_C@_01DDCIFGEA@E@
CONST	SEGMENT
??_C@_01DDCIFGEA@E@ DB 'E', 00H				; `string'
CONST	ENDS
;	COMDAT ??_C@_06JHHNJIGB@byFlag@
CONST	SEGMENT
??_C@_06JHHNJIGB@byFlag@ DB 'byFlag', 00H		; `string'
CONST	ENDS
;	COMDAT ??_C@_0DO@JOCEGGGB@CEventLua?3?3SetLevelUpGift?$CI?$CJ?5?9?5I@
CONST	SEGMENT
??_C@_0DO@JOCEGGGB@CEventLua?3?3SetLevelUpGift?$CI?$CJ?5?9?5I@ DB 'CEvent'
	DB	'Lua::SetLevelUpGift() - ItemProp is NULL. ItemId = "%s"', 00H ; `string'
CONST	ENDS
;	COMDAT ??_C@_08GDJLCBND@nItemNum@
CONST	SEGMENT
??_C@_08GDJLCBND@nItemNum@ DB 'nItemNum', 00H		; `string'
CONST	ENDS
;	COMDAT ??_C@_09OFFFBNFE@strItemId@
CONST	SEGMENT
??_C@_09OFFFBNFE@strItemId@ DB 'strItemId', 00H		; `string'
CONST	ENDS
;	COMDAT ??_C@_0P@KENDMHID@GetLevelUpGift@
CONST	SEGMENT
??_C@_0P@KENDMHID@GetLevelUpGift@ DB 'GetLevelUpGift', 00H ; `string'
CONST	ENDS
;	COMDAT ??_C@_0P@JBFAKDCI@GetCouponEvent@
CONST	SEGMENT
??_C@_0P@JBFAKDCI@GetCouponEvent@ DB 'GetCouponEvent', 00H ; `string'
CONST	ENDS
;	COMDAT ??_C@_0BA@NNDCMDIP@GetDefensePower@
CONST	SEGMENT
??_C@_0BA@NNDCMDIP@GetDefensePower@ DB 'GetDefensePower', 00H ; `string'
CONST	ENDS
;	COMDAT ??_C@_0P@DPKGMIHE@GetAttackPower@
CONST	SEGMENT
??_C@_0P@DPKGMIHE@GetAttackPower@ DB 'GetAttackPower', 00H ; `string'
CONST	ENDS
;	COMDAT ??_C@_0N@MGEBMOBO@GetEventInfo@
CONST	SEGMENT
??_C@_0N@MGEBMOBO@GetEventInfo@ DB 'GetEventInfo', 00H	; `string'
CONST	ENDS
;	COMDAT ??_C@_0CC@PNFPDMBJ@ID?5?3?5?$CFd?0?5?5Title?5?3?5?$CFs?0?5?5State?5?3?5@
CONST	SEGMENT
??_C@_0CC@PNFPDMBJ@ID?5?3?5?$CFd?0?5?5Title?5?3?5?$CFs?0?5?5State?5?3?5@ DB 'I'
	DB	'D : %d,  Title : %s,  State : %d', 00H	; `string'
CONST	ENDS
;	COMDAT ??_C@_06PHLKOEGH@nState@
CONST	SEGMENT
??_C@_06PHLKOEGH@nState@ DB 'nState', 00H		; `string'
CONST	ENDS
;	COMDAT ??_C@_08DNBCIPJJ@strTitle@
CONST	SEGMENT
??_C@_08DNBCIPJJ@strTitle@ DB 'strTitle', 00H		; `string'
CONST	ENDS
;	COMDAT ??_C@_03HLJILIDP@nId@
CONST	SEGMENT
??_C@_03HLJILIDP@nId@ DB 'nId', 00H			; `string'
CONST	ENDS
;	COMDAT ??_C@_0BA@LLOGNHHK@GetAllEventList@
CONST	SEGMENT
??_C@_0BA@LLOGNHHK@GetAllEventList@ DB 'GetAllEventList', 00H ; `string'
CONST	ENDS
;	COMDAT ??_C@_0BC@EAGMKEGO@GetGoldDropFactor@
CONST	SEGMENT
??_C@_0BC@EAGMKEGO@GetGoldDropFactor@ DB 'GetGoldDropFactor', 00H ; `string'
CONST	ENDS
;	COMDAT ??_C@_0BF@KBKPCOBF@GetPieceItemDropRate@
CONST	SEGMENT
??_C@_0BF@KBKPCOBF@GetPieceItemDropRate@ DB 'GetPieceItemDropRate', 00H ; `string'
CONST	ENDS
;	COMDAT ??_C@_0BA@MLJLEPOJ@GetItemDropRate@
CONST	SEGMENT
??_C@_0BA@MLJLEPOJ@GetItemDropRate@ DB 'GetItemDropRate', 00H ; `string'
CONST	ENDS
;	COMDAT ??_C@_0N@NBPJBJNN@GetExpFactor@
CONST	SEGMENT
??_C@_0N@NBPJBJNN@GetExpFactor@ DB 'GetExpFactor', 00H	; `string'
CONST	ENDS
;	COMDAT ??_C@_07HEBBLACC@ItemNum@
CONST	SEGMENT
??_C@_07HEBBLACC@ItemNum@ DB 'ItemNum', 00H		; `string'
CONST	ENDS
;	COMDAT ??_C@_06MFPHJAPD@ItemId@
CONST	SEGMENT
??_C@_06MFPHJAPD@ItemId@ DB 'ItemId', 00H		; `string'
CONST	ENDS
;	COMDAT ??_C@_07NPEJNGCF@GetItem@
CONST	SEGMENT
??_C@_07NPEJNGCF@GetItem@ DB 'GetItem', 00H		; `string'
CONST	ENDS
;	COMDAT ??_C@_07EJFENACC@GetDesc@
CONST	SEGMENT
??_C@_07EJFENACC@GetDesc@ DB 'GetDesc', 00H		; `string'
CONST	ENDS
;	COMDAT ??_C@_08JMKFDPFL@SetState@
CONST	SEGMENT
??_C@_08JMKFDPFL@SetState@ DB 'SetState', 00H		; `string'
CONST	ENDS
;	COMDAT ??_C@_0BH@KMCEPDIF@Event?4lua?5?$LN?G?G?$OA?5?$LN?G?F?P?$CB?$CB?$CB@
CONST	SEGMENT
??_C@_0BH@KMCEPDIF@Event?4lua?5?$LN?G?G?$OA?5?$LN?G?F?P?$CB?$CB?$CB@ DB 'E'
	DB	'vent.lua ', 0bdH, 0c7H, 0c7H, 0e0H, ' ', 0bdH, 0c7H, 0c6H, 0d0H
	DB	'!!!', 00H					; `string'
CONST	ENDS
;	COMDAT ??_C@_09BFLDBOAB@Event?4lua@
CONST	SEGMENT
??_C@_09BFLDBOAB@Event?4lua@ DB 'Event.lua', 00H	; `string'
CONST	ENDS
;	COMDAT ??_C@_0N@CAKNNDNG@GetEventList@
CONST	SEGMENT
??_C@_0N@CAKNNDNG@GetEventList@ DB 'GetEventList', 00H	; `string'
CONST	ENDS
;	COMDAT ??_R4bad_alloc@std@@6B@
rdata$r	SEGMENT
??_R4bad_alloc@std@@6B@ DD 00H				; std::bad_alloc::`RTTI Complete Object Locator'
	DD	00H
	DD	00H
	DD	FLAT:??_R0?AVbad_alloc@std@@@8
	DD	FLAT:??_R3bad_alloc@std@@8
rdata$r	ENDS
;	COMDAT ??_R2bad_alloc@std@@8
rdata$r	SEGMENT
??_R2bad_alloc@std@@8 DD FLAT:??_R1A@?0A@EA@bad_alloc@std@@8 ; std::bad_alloc::`RTTI Base Class Array'
	DD	FLAT:??_R1A@?0A@EA@exception@std@@8
rdata$r	ENDS
;	COMDAT ??_R3bad_alloc@std@@8
rdata$r	SEGMENT
??_R3bad_alloc@std@@8 DD 00H				; std::bad_alloc::`RTTI Class Hierarchy Descriptor'
	DD	00H
	DD	02H
	DD	FLAT:??_R2bad_alloc@std@@8
rdata$r	ENDS
;	COMDAT ??_R1A@?0A@EA@bad_alloc@std@@8
rdata$r	SEGMENT
??_R1A@?0A@EA@bad_alloc@std@@8 DD FLAT:??_R0?AVbad_alloc@std@@@8 ; std::bad_alloc::`RTTI Base Class Descriptor at (0,-1,0,64)'
	DD	01H
	DD	00H
	DD	0ffffffffH
	DD	00H
	DD	040H
	DD	FLAT:??_R3bad_alloc@std@@8
rdata$r	ENDS
;	COMDAT ??_R1A@?0A@EA@bad_array_new_length@std@@8
rdata$r	SEGMENT
??_R1A@?0A@EA@bad_array_new_length@std@@8 DD FLAT:??_R0?AVbad_array_new_length@std@@@8 ; std::bad_array_new_length::`RTTI Base Class Descriptor at (0,-1,0,64)'
	DD	02H
	DD	00H
	DD	0ffffffffH
	DD	00H
	DD	040H
	DD	FLAT:??_R3bad_array_new_length@std@@8
rdata$r	ENDS
;	COMDAT ??_R2bad_array_new_length@std@@8
rdata$r	SEGMENT
??_R2bad_array_new_length@std@@8 DD FLAT:??_R1A@?0A@EA@bad_array_new_length@std@@8 ; std::bad_array_new_length::`RTTI Base Class Array'
	DD	FLAT:??_R1A@?0A@EA@bad_alloc@std@@8
	DD	FLAT:??_R1A@?0A@EA@exception@std@@8
rdata$r	ENDS
;	COMDAT ??_R3bad_array_new_length@std@@8
rdata$r	SEGMENT
??_R3bad_array_new_length@std@@8 DD 00H			; std::bad_array_new_length::`RTTI Class Hierarchy Descriptor'
	DD	00H
	DD	03H
	DD	FLAT:??_R2bad_array_new_length@std@@8
rdata$r	ENDS
;	COMDAT ??_R4bad_array_new_length@std@@6B@
rdata$r	SEGMENT
??_R4bad_array_new_length@std@@6B@ DD 00H		; std::bad_array_new_length::`RTTI Complete Object Locator'
	DD	00H
	DD	00H
	DD	FLAT:??_R0?AVbad_array_new_length@std@@@8
	DD	FLAT:??_R3bad_array_new_length@std@@8
rdata$r	ENDS
;	COMDAT ??_R1A@?0A@EA@exception@std@@8
rdata$r	SEGMENT
??_R1A@?0A@EA@exception@std@@8 DD FLAT:??_R0?AVexception@std@@@8 ; std::exception::`RTTI Base Class Descriptor at (0,-1,0,64)'
	DD	00H
	DD	00H
	DD	0ffffffffH
	DD	00H
	DD	040H
	DD	FLAT:??_R3exception@std@@8
rdata$r	ENDS
;	COMDAT ??_R2exception@std@@8
rdata$r	SEGMENT
??_R2exception@std@@8 DD FLAT:??_R1A@?0A@EA@exception@std@@8 ; std::exception::`RTTI Base Class Array'
rdata$r	ENDS
;	COMDAT ??_R3exception@std@@8
rdata$r	SEGMENT
??_R3exception@std@@8 DD 00H				; std::exception::`RTTI Class Hierarchy Descriptor'
	DD	00H
	DD	01H
	DD	FLAT:??_R2exception@std@@8
rdata$r	ENDS
;	COMDAT ??_R4exception@std@@6B@
rdata$r	SEGMENT
??_R4exception@std@@6B@ DD 00H				; std::exception::`RTTI Complete Object Locator'
	DD	00H
	DD	00H
	DD	FLAT:??_R0?AVexception@std@@@8
	DD	FLAT:??_R3exception@std@@8
rdata$r	ENDS
;	COMDAT ??_C@_0BA@FOIKENOD@vector?5too?5long@
CONST	SEGMENT
??_C@_0BA@FOIKENOD@vector?5too?5long@ DB 'vector too long', 00H ; `string'
CONST	ENDS
;	COMDAT ??_C@_0BJ@GKPOBPPI@GetMoverProp?5range_error@
CONST	SEGMENT
??_C@_0BJ@GKPOBPPI@GetMoverProp?5range_error@ DB 'GetMoverProp range_erro'
	DB	'r', 00H					; `string'
CONST	ENDS
;	COMDAT ??_C@_0BI@BEIFNGEL@GetItemProp?5range_error@
CONST	SEGMENT
??_C@_0BI@BEIFNGEL@GetItemProp?5range_error@ DB 'GetItemProp range_error', 00H ; `string'
CONST	ENDS
;	COMDAT ??_C@_0BM@HMFGHCP@?$CFs?5min?3?$CFd?0?5max?3?$CFd?0?5index?3?$CFd@
CONST	SEGMENT
??_C@_0BM@HMFGHCP@?$CFs?5min?3?$CFd?0?5max?3?$CFd?0?5index?3?$CFd@ DB '%s'
	DB	' min:%d, max:%d, index:%d', 00H		; `string'
CONST	ENDS
;	COMDAT ??_7CEventLua@@6B@
CONST	SEGMENT
??_7CEventLua@@6B@ DD FLAT:??_R4CEventLua@@6B@		; CEventLua::`vftable'
	DD	FLAT:??_ECEventLua@@UAEPAXI@Z
CONST	ENDS
;	COMDAT ??_7CEventLuaProxy@@6B@
CONST	SEGMENT
??_7CEventLuaProxy@@6B@ DD FLAT:??_R4CEventLuaProxy@@6B@ ; CEventLuaProxy::`vftable'
	DD	FLAT:??_ECEventLuaProxy@@UAEPAXI@Z
CONST	ENDS
;	COMDAT ??_C@_0BB@GCADKGJO@map?1set?5too?5long@
CONST	SEGMENT
??_C@_0BB@GCADKGJO@map?1set?5too?5long@ DB 'map/set too long', 00H ; `string'
CONST	ENDS
;	COMDAT ??_C@_0BA@JFNIOLAK@string?5too?5long@
CONST	SEGMENT
??_C@_0BA@JFNIOLAK@string?5too?5long@ DB 'string too long', 00H ; `string'
CONST	ENDS
;	COMDAT __CT??_R0?AVbad_alloc@std@@@8??0bad_alloc@std@@QAE@ABV01@@Z12
xdata$x	SEGMENT
__CT??_R0?AVbad_alloc@std@@@8??0bad_alloc@std@@QAE@ABV01@@Z12 DD 010H
	DD	FLAT:??_R0?AVbad_alloc@std@@@8
	DD	00H
	DD	0ffffffffH
	ORG $+4
	DD	0cH
	DD	FLAT:??0bad_alloc@std@@QAE@ABV01@@Z
xdata$x	ENDS
;	COMDAT ??_R0?AVbad_alloc@std@@@8
data$r	SEGMENT
??_R0?AVbad_alloc@std@@@8 DD FLAT:??_7type_info@@6B@	; std::bad_alloc `RTTI Type Descriptor'
	DD	00H
	DB	'.?AVbad_alloc@std@@', 00H
data$r	ENDS
;	COMDAT __CT??_R0?AVbad_array_new_length@std@@@8??0bad_array_new_length@std@@QAE@ABV01@@Z12
xdata$x	SEGMENT
__CT??_R0?AVbad_array_new_length@std@@@8??0bad_array_new_length@std@@QAE@ABV01@@Z12 DD 00H
	DD	FLAT:??_R0?AVbad_array_new_length@std@@@8
	DD	00H
	DD	0ffffffffH
	ORG $+4
	DD	0cH
	DD	FLAT:??0bad_array_new_length@std@@QAE@ABV01@@Z
xdata$x	ENDS
;	COMDAT ??_R0?AVbad_array_new_length@std@@@8
data$r	SEGMENT
??_R0?AVbad_array_new_length@std@@@8 DD FLAT:??_7type_info@@6B@ ; std::bad_array_new_length `RTTI Type Descriptor'
	DD	00H
	DB	'.?AVbad_array_new_length@std@@', 00H
data$r	ENDS
;	COMDAT __CTA3?AVbad_array_new_length@std@@
xdata$x	SEGMENT
__CTA3?AVbad_array_new_length@std@@ DD 03H
	DD	FLAT:__CT??_R0?AVbad_array_new_length@std@@@8??0bad_array_new_length@std@@QAE@ABV01@@Z12
	DD	FLAT:__CT??_R0?AVbad_alloc@std@@@8??0bad_alloc@std@@QAE@ABV01@@Z12
	DD	FLAT:__CT??_R0?AVexception@std@@@8??0exception@std@@QAE@ABV01@@Z12
xdata$x	ENDS
;	COMDAT __TI3?AVbad_array_new_length@std@@
xdata$x	SEGMENT
__TI3?AVbad_array_new_length@std@@ DD 00H
	DD	FLAT:??1bad_array_new_length@std@@UAE@XZ
	DD	00H
	DD	FLAT:__CTA3?AVbad_array_new_length@std@@
xdata$x	ENDS
;	COMDAT __CT??_R0?AVexception@std@@@8??0exception@std@@QAE@ABV01@@Z12
xdata$x	SEGMENT
__CT??_R0?AVexception@std@@@8??0exception@std@@QAE@ABV01@@Z12 DD 00H
	DD	FLAT:??_R0?AVexception@std@@@8
	DD	00H
	DD	0ffffffffH
	ORG $+4
	DD	0cH
	DD	FLAT:??0exception@std@@QAE@ABV01@@Z
xdata$x	ENDS
;	COMDAT ??_R0?AVexception@std@@@8
data$r	SEGMENT
??_R0?AVexception@std@@@8 DD FLAT:??_7type_info@@6B@	; std::exception `RTTI Type Descriptor'
	DD	00H
	DB	'.?AVexception@std@@', 00H
data$r	ENDS
;	COMDAT ??_C@_0BF@KINCDENJ@bad?5array?5new?5length@
CONST	SEGMENT
??_C@_0BF@KINCDENJ@bad?5array?5new?5length@ DB 'bad array new length', 00H ; `string'
CONST	ENDS
;	COMDAT ??_7bad_array_new_length@std@@6B@
CONST	SEGMENT
??_7bad_array_new_length@std@@6B@ DD FLAT:??_R4bad_array_new_length@std@@6B@ ; std::bad_array_new_length::`vftable'
	DD	FLAT:??_Ebad_array_new_length@std@@UAEPAXI@Z
	DD	FLAT:?what@exception@std@@UBEPBDXZ
CONST	ENDS
;	COMDAT ??_7bad_alloc@std@@6B@
CONST	SEGMENT
??_7bad_alloc@std@@6B@ DD FLAT:??_R4bad_alloc@std@@6B@	; std::bad_alloc::`vftable'
	DD	FLAT:??_Ebad_alloc@std@@UAEPAXI@Z
	DD	FLAT:?what@exception@std@@UBEPBDXZ
CONST	ENDS
;	COMDAT ??_C@_0BC@EOODALEL@Unknown?5exception@
CONST	SEGMENT
??_C@_0BC@EOODALEL@Unknown?5exception@ DB 'Unknown exception', 00H ; `string'
CONST	ENDS
;	COMDAT ??_7exception@std@@6B@
CONST	SEGMENT
??_7exception@std@@6B@ DD FLAT:??_R4exception@std@@6B@	; std::exception::`vftable'
	DD	FLAT:??_Eexception@std@@UAEPAXI@Z
	DD	FLAT:?what@exception@std@@UBEPBDXZ
CONST	ENDS
;	COMDAT ??_C@_00CNPNBAHC@@
CONST	SEGMENT
??_C@_00CNPNBAHC@@ DB 00H				; `string'
CONST	ENDS
;	COMDAT xdata$x
xdata$x	SEGMENT
__unwindtable$??$?0U?$pair@EV?$vector@U__SPAWNINFO@CEventLua@@V?$allocator@U__SPAWNINFO@CEventLua@@@std@@@std@@@std@@@?$_Tree_temp_node@V?$allocator@U?$_Tree_node@U?$pair@$$CBEV?$vector@U__SPAWNINFO@CEventLua@@V?$allocator@U__SPAWNINFO@CEventLua@@@std@@@std@@@std@@PAX@std@@@std@@@std@@QAE@AAV?$allocator@U?$_Tree_node@U?$pair@$$CBEV?$vector@U__SPAWNINFO@CEventLua@@V?$allocator@U__SPAWNINFO@CEventLua@@@std@@@std@@@std@@PAX@std@@@1@PAU?$_Tree_node@U?$pair@$$CBEV?$vector@U__SPAWNINFO@CEventLua@@V?$allocator@U__SPAWNINFO@CEventLua@@@std@@@std@@@std@@PAX@1@$$QAU?$pair@EV?$vector@U__SPAWNINFO@CEventLua@@V?$allocator@U__SPAWNINFO@CEventLua@@@std@@@std@@@1@@Z DD 0ffffffffH
	DD	FLAT:__unwindfunclet$??$?0U?$pair@EV?$vector@U__SPAWNINFO@CEventLua@@V?$allocator@U__SPAWNINFO@CEventLua@@@std@@@std@@@std@@@?$_Tree_temp_node@V?$allocator@U?$_Tree_node@U?$pair@$$CBEV?$vector@U__SPAWNINFO@CEventLua@@V?$allocator@U__SPAWNINFO@CEventLua@@@std@@@std@@@std@@PAX@std@@@std@@@std@@QAE@AAV?$allocator@U?$_Tree_node@U?$pair@$$CBEV?$vector@U__SPAWNINFO@CEventLua@@V?$allocator@U__SPAWNINFO@CEventLua@@@std@@@std@@@std@@PAX@std@@@1@PAU?$_Tree_node@U?$pair@$$CBEV?$vector@U__SPAWNINFO@CEventLua@@V?$allocator@U__SPAWNINFO@CEventLua@@@std@@@std@@@std@@PAX@1@$$QAU?$pair@EV?$vector@U__SPAWNINFO@CEventLua@@V?$allocator@U__SPAWNINFO@CEventLua@@@std@@@std@@@1@@Z$1
__ehfuncinfo$??$?0U?$pair@EV?$vector@U__SPAWNINFO@CEventLua@@V?$allocator@U__SPAWNINFO@CEventLua@@@std@@@std@@@std@@@?$_Tree_temp_node@V?$allocator@U?$_Tree_node@U?$pair@$$CBEV?$vector@U__SPAWNINFO@CEventLua@@V?$allocator@U__SPAWNINFO@CEventLua@@@std@@@std@@@std@@PAX@std@@@std@@@std@@QAE@AAV?$allocator@U?$_Tree_node@U?$pair@$$CBEV?$vector@U__SPAWNINFO@CEventLua@@V?$allocator@U__SPAWNINFO@CEventLua@@@std@@@std@@@std@@PAX@std@@@1@PAU?$_Tree_node@U?$pair@$$CBEV?$vector@U__SPAWNINFO@CEventLua@@V?$allocator@U__SPAWNINFO@CEventLua@@@std@@@std@@@std@@PAX@1@$$QAU?$pair@EV?$vector@U__SPAWNINFO@CEventLua@@V?$allocator@U__SPAWNINFO@CEventLua@@@std@@@std@@@1@@Z DD 019930522H
	DD	01H
	DD	FLAT:__unwindtable$??$?0U?$pair@EV?$vector@U__SPAWNINFO@CEventLua@@V?$allocator@U__SPAWNINFO@CEventLua@@@std@@@std@@@std@@@?$_Tree_temp_node@V?$allocator@U?$_Tree_node@U?$pair@$$CBEV?$vector@U__SPAWNINFO@CEventLua@@V?$allocator@U__SPAWNINFO@CEventLua@@@std@@@std@@@std@@PAX@std@@@std@@@std@@QAE@AAV?$allocator@U?$_Tree_node@U?$pair@$$CBEV?$vector@U__SPAWNINFO@CEventLua@@V?$allocator@U__SPAWNINFO@CEventLua@@@std@@@std@@@std@@PAX@std@@@1@PAU?$_Tree_node@U?$pair@$$CBEV?$vector@U__SPAWNINFO@CEventLua@@V?$allocator@U__SPAWNINFO@CEventLua@@@std@@@std@@@std@@PAX@1@$$QAU?$pair@EV?$vector@U__SPAWNINFO@CEventLua@@V?$allocator@U__SPAWNINFO@CEventLua@@@std@@@std@@@1@@Z
	DD	2 DUP(00H)
	DD	2 DUP(00H)
	DD	00H
	DD	01H
xdata$x	ENDS
;	COMDAT xdata$x
xdata$x	SEGMENT
__unwindtable$??0?$_Tree_temp_node_alloc@V?$allocator@U?$_Tree_node@U?$pair@$$CBEV?$vector@U__SPAWNINFO@CEventLua@@V?$allocator@U__SPAWNINFO@CEventLua@@@std@@@std@@@std@@PAX@std@@@std@@@std@@QAE@AAV?$allocator@U?$_Tree_node@U?$pair@$$CBEV?$vector@U__SPAWNINFO@CEventLua@@V?$allocator@U__SPAWNINFO@CEventLua@@@std@@@std@@@std@@PAX@std@@@1@@Z DD 0ffffffffH
	DD	FLAT:__unwindfunclet$??0?$_Tree_temp_node_alloc@V?$allocator@U?$_Tree_node@U?$pair@$$CBEV?$vector@U__SPAWNINFO@CEventLua@@V?$allocator@U__SPAWNINFO@CEventLua@@@std@@@std@@@std@@PAX@std@@@std@@@std@@QAE@AAV?$allocator@U?$_Tree_node@U?$pair@$$CBEV?$vector@U__SPAWNINFO@CEventLua@@V?$allocator@U__SPAWNINFO@CEventLua@@@std@@@std@@@std@@PAX@std@@@1@@Z$0
__ehfuncinfo$??0?$_Tree_temp_node_alloc@V?$allocator@U?$_Tree_node@U?$pair@$$CBEV?$vector@U__SPAWNINFO@CEventLua@@V?$allocator@U__SPAWNINFO@CEventLua@@@std@@@std@@@std@@PAX@std@@@std@@@std@@QAE@AAV?$allocator@U?$_Tree_node@U?$pair@$$CBEV?$vector@U__SPAWNINFO@CEventLua@@V?$allocator@U__SPAWNINFO@CEventLua@@@std@@@std@@@std@@PAX@std@@@1@@Z DD 019930522H
	DD	01H
	DD	FLAT:__unwindtable$??0?$_Tree_temp_node_alloc@V?$allocator@U?$_Tree_node@U?$pair@$$CBEV?$vector@U__SPAWNINFO@CEventLua@@V?$allocator@U__SPAWNINFO@CEventLua@@@std@@@std@@@std@@PAX@std@@@std@@@std@@QAE@AAV?$allocator@U?$_Tree_node@U?$pair@$$CBEV?$vector@U__SPAWNINFO@CEventLua@@V?$allocator@U__SPAWNINFO@CEventLua@@@std@@@std@@@std@@PAX@std@@@1@@Z
	DD	2 DUP(00H)
	DD	2 DUP(00H)
	DD	00H
	DD	01H
xdata$x	ENDS
;	COMDAT xdata$x
xdata$x	SEGMENT
__unwindtable$??$?0U?$pair@KE@std@@@?$_Tree_temp_node@V?$allocator@U?$_Tree_node@U?$pair@$$CBKE@std@@PAX@std@@@std@@@std@@QAE@AAV?$allocator@U?$_Tree_node@U?$pair@$$CBKE@std@@PAX@std@@@1@PAU?$_Tree_node@U?$pair@$$CBKE@std@@PAX@1@$$QAU?$pair@KE@1@@Z DD 0ffffffffH
	DD	FLAT:__unwindfunclet$??$?0U?$pair@KE@std@@@?$_Tree_temp_node@V?$allocator@U?$_Tree_node@U?$pair@$$CBKE@std@@PAX@std@@@std@@@std@@QAE@AAV?$allocator@U?$_Tree_node@U?$pair@$$CBKE@std@@PAX@std@@@1@PAU?$_Tree_node@U?$pair@$$CBKE@std@@PAX@1@$$QAU?$pair@KE@1@@Z$1
__ehfuncinfo$??$?0U?$pair@KE@std@@@?$_Tree_temp_node@V?$allocator@U?$_Tree_node@U?$pair@$$CBKE@std@@PAX@std@@@std@@@std@@QAE@AAV?$allocator@U?$_Tree_node@U?$pair@$$CBKE@std@@PAX@std@@@1@PAU?$_Tree_node@U?$pair@$$CBKE@std@@PAX@1@$$QAU?$pair@KE@1@@Z DD 019930522H
	DD	01H
	DD	FLAT:__unwindtable$??$?0U?$pair@KE@std@@@?$_Tree_temp_node@V?$allocator@U?$_Tree_node@U?$pair@$$CBKE@std@@PAX@std@@@std@@@std@@QAE@AAV?$allocator@U?$_Tree_node@U?$pair@$$CBKE@std@@PAX@std@@@1@PAU?$_Tree_node@U?$pair@$$CBKE@std@@PAX@1@$$QAU?$pair@KE@1@@Z
	DD	2 DUP(00H)
	DD	2 DUP(00H)
	DD	00H
	DD	01H
xdata$x	ENDS
;	COMDAT xdata$x
xdata$x	SEGMENT
__unwindtable$??0?$_Tree_temp_node_alloc@V?$allocator@U?$_Tree_node@U?$pair@$$CBKE@std@@PAX@std@@@std@@@std@@QAE@AAV?$allocator@U?$_Tree_node@U?$pair@$$CBKE@std@@PAX@std@@@1@@Z DD 0ffffffffH
	DD	FLAT:__unwindfunclet$??0?$_Tree_temp_node_alloc@V?$allocator@U?$_Tree_node@U?$pair@$$CBKE@std@@PAX@std@@@std@@@std@@QAE@AAV?$allocator@U?$_Tree_node@U?$pair@$$CBKE@std@@PAX@std@@@1@@Z$0
__ehfuncinfo$??0?$_Tree_temp_node_alloc@V?$allocator@U?$_Tree_node@U?$pair@$$CBKE@std@@PAX@std@@@std@@@std@@QAE@AAV?$allocator@U?$_Tree_node@U?$pair@$$CBKE@std@@PAX@std@@@1@@Z DD 019930522H
	DD	01H
	DD	FLAT:__unwindtable$??0?$_Tree_temp_node_alloc@V?$allocator@U?$_Tree_node@U?$pair@$$CBKE@std@@PAX@std@@@std@@@std@@QAE@AAV?$allocator@U?$_Tree_node@U?$pair@$$CBKE@std@@PAX@std@@@1@@Z
	DD	2 DUP(00H)
	DD	2 DUP(00H)
	DD	00H
	DD	01H
xdata$x	ENDS
;	COMDAT xdata$x
xdata$x	SEGMENT
__unwindtable$??$?0U?$pair@KH@std@@@?$_Tree_temp_node@V?$allocator@U?$_Tree_node@U?$pair@$$CBKH@std@@PAX@std@@@std@@@std@@QAE@AAV?$allocator@U?$_Tree_node@U?$pair@$$CBKH@std@@PAX@std@@@1@PAU?$_Tree_node@U?$pair@$$CBKH@std@@PAX@1@$$QAU?$pair@KH@1@@Z DD 0ffffffffH
	DD	FLAT:__unwindfunclet$??$?0U?$pair@KH@std@@@?$_Tree_temp_node@V?$allocator@U?$_Tree_node@U?$pair@$$CBKH@std@@PAX@std@@@std@@@std@@QAE@AAV?$allocator@U?$_Tree_node@U?$pair@$$CBKH@std@@PAX@std@@@1@PAU?$_Tree_node@U?$pair@$$CBKH@std@@PAX@1@$$QAU?$pair@KH@1@@Z$1
__ehfuncinfo$??$?0U?$pair@KH@std@@@?$_Tree_temp_node@V?$allocator@U?$_Tree_node@U?$pair@$$CBKH@std@@PAX@std@@@std@@@std@@QAE@AAV?$allocator@U?$_Tree_node@U?$pair@$$CBKH@std@@PAX@std@@@1@PAU?$_Tree_node@U?$pair@$$CBKH@std@@PAX@1@$$QAU?$pair@KH@1@@Z DD 019930522H
	DD	01H
	DD	FLAT:__unwindtable$??$?0U?$pair@KH@std@@@?$_Tree_temp_node@V?$allocator@U?$_Tree_node@U?$pair@$$CBKH@std@@PAX@std@@@std@@@std@@QAE@AAV?$allocator@U?$_Tree_node@U?$pair@$$CBKH@std@@PAX@std@@@1@PAU?$_Tree_node@U?$pair@$$CBKH@std@@PAX@1@$$QAU?$pair@KH@1@@Z
	DD	2 DUP(00H)
	DD	2 DUP(00H)
	DD	00H
	DD	01H
xdata$x	ENDS
;	COMDAT xdata$x
xdata$x	SEGMENT
__unwindtable$??$_Emplace@U?$pair@EV?$vector@U__SPAWNINFO@CEventLua@@V?$allocator@U__SPAWNINFO@CEventLua@@@std@@@std@@@std@@@?$_Tree@V?$_Tmap_traits@EV?$vector@U__SPAWNINFO@CEventLua@@V?$allocator@U__SPAWNINFO@CEventLua@@@std@@@std@@U?$less@E@2@V?$allocator@U?$pair@$$CBEV?$vector@U__SPAWNINFO@CEventLua@@V?$allocator@U__SPAWNINFO@CEventLua@@@std@@@std@@@std@@@2@$0A@@std@@@std@@IAE?AU?$pair@PAU?$_Tree_node@U?$pair@$$CBEV?$vector@U__SPAWNINFO@CEventLua@@V?$allocator@U__SPAWNINFO@CEventLua@@@std@@@std@@@std@@PAX@std@@_N@1@$$QAU?$pair@EV?$vector@U__SPAWNINFO@CEventLua@@V?$allocator@U__SPAWNINFO@CEventLua@@@std@@@std@@@1@@Z DD 0ffffffffH
	DD	FLAT:__unwindfunclet$??$_Emplace@U?$pair@EV?$vector@U__SPAWNINFO@CEventLua@@V?$allocator@U__SPAWNINFO@CEventLua@@@std@@@std@@@std@@@?$_Tree@V?$_Tmap_traits@EV?$vector@U__SPAWNINFO@CEventLua@@V?$allocator@U__SPAWNINFO@CEventLua@@@std@@@std@@U?$less@E@2@V?$allocator@U?$pair@$$CBEV?$vector@U__SPAWNINFO@CEventLua@@V?$allocator@U__SPAWNINFO@CEventLua@@@std@@@std@@@std@@@2@$0A@@std@@@std@@IAE?AU?$pair@PAU?$_Tree_node@U?$pair@$$CBEV?$vector@U__SPAWNINFO@CEventLua@@V?$allocator@U__SPAWNINFO@CEventLua@@@std@@@std@@@std@@PAX@std@@_N@1@$$QAU?$pair@EV?$vector@U__SPAWNINFO@CEventLua@@V?$allocator@U__SPAWNINFO@CEventLua@@@std@@@std@@@1@@Z$2
__ehfuncinfo$??$_Emplace@U?$pair@EV?$vector@U__SPAWNINFO@CEventLua@@V?$allocator@U__SPAWNINFO@CEventLua@@@std@@@std@@@std@@@?$_Tree@V?$_Tmap_traits@EV?$vector@U__SPAWNINFO@CEventLua@@V?$allocator@U__SPAWNINFO@CEventLua@@@std@@@std@@U?$less@E@2@V?$allocator@U?$pair@$$CBEV?$vector@U__SPAWNINFO@CEventLua@@V?$allocator@U__SPAWNINFO@CEventLua@@@std@@@std@@@std@@@2@$0A@@std@@@std@@IAE?AU?$pair@PAU?$_Tree_node@U?$pair@$$CBEV?$vector@U__SPAWNINFO@CEventLua@@V?$allocator@U__SPAWNINFO@CEventLua@@@std@@@std@@@std@@PAX@std@@_N@1@$$QAU?$pair@EV?$vector@U__SPAWNINFO@CEventLua@@V?$allocator@U__SPAWNINFO@CEventLua@@@std@@@std@@@1@@Z DD 019930522H
	DD	01H
	DD	FLAT:__unwindtable$??$_Emplace@U?$pair@EV?$vector@U__SPAWNINFO@CEventLua@@V?$allocator@U__SPAWNINFO@CEventLua@@@std@@@std@@@std@@@?$_Tree@V?$_Tmap_traits@EV?$vector@U__SPAWNINFO@CEventLua@@V?$allocator@U__SPAWNINFO@CEventLua@@@std@@@std@@U?$less@E@2@V?$allocator@U?$pair@$$CBEV?$vector@U__SPAWNINFO@CEventLua@@V?$allocator@U__SPAWNINFO@CEventLua@@@std@@@std@@@std@@@2@$0A@@std@@@std@@IAE?AU?$pair@PAU?$_Tree_node@U?$pair@$$CBEV?$vector@U__SPAWNINFO@CEventLua@@V?$allocator@U__SPAWNINFO@CEventLua@@@std@@@std@@@std@@PAX@std@@_N@1@$$QAU?$pair@EV?$vector@U__SPAWNINFO@CEventLua@@V?$allocator@U__SPAWNINFO@CEventLua@@@std@@@std@@@1@@Z
	DD	2 DUP(00H)
	DD	2 DUP(00H)
	DD	00H
	DD	01H
xdata$x	ENDS
;	COMDAT xdata$x
xdata$x	SEGMENT
__unwindtable$??$_Emplace@U?$pair@KE@std@@@?$_Tree@V?$_Tmap_traits@KEU?$less@K@std@@V?$allocator@U?$pair@$$CBKE@std@@@2@$0A@@std@@@std@@IAE?AU?$pair@PAU?$_Tree_node@U?$pair@$$CBKE@std@@PAX@std@@_N@1@$$QAU?$pair@KE@1@@Z DD 0ffffffffH
	DD	FLAT:__unwindfunclet$??$_Emplace@U?$pair@KE@std@@@?$_Tree@V?$_Tmap_traits@KEU?$less@K@std@@V?$allocator@U?$pair@$$CBKE@std@@@2@$0A@@std@@@std@@IAE?AU?$pair@PAU?$_Tree_node@U?$pair@$$CBKE@std@@PAX@std@@_N@1@$$QAU?$pair@KE@1@@Z$2
__ehfuncinfo$??$_Emplace@U?$pair@KE@std@@@?$_Tree@V?$_Tmap_traits@KEU?$less@K@std@@V?$allocator@U?$pair@$$CBKE@std@@@2@$0A@@std@@@std@@IAE?AU?$pair@PAU?$_Tree_node@U?$pair@$$CBKE@std@@PAX@std@@_N@1@$$QAU?$pair@KE@1@@Z DD 019930522H
	DD	01H
	DD	FLAT:__unwindtable$??$_Emplace@U?$pair@KE@std@@@?$_Tree@V?$_Tmap_traits@KEU?$less@K@std@@V?$allocator@U?$pair@$$CBKE@std@@@2@$0A@@std@@@std@@IAE?AU?$pair@PAU?$_Tree_node@U?$pair@$$CBKE@std@@PAX@std@@_N@1@$$QAU?$pair@KE@1@@Z
	DD	2 DUP(00H)
	DD	2 DUP(00H)
	DD	00H
	DD	01H
xdata$x	ENDS
;	COMDAT xdata$x
xdata$x	SEGMENT
__unwindtable$??$?0U?$pair@$$CBKH@std@@@?$_Tree_temp_node@V?$allocator@U?$_Tree_node@U?$pair@$$CBKH@std@@PAX@std@@@std@@@std@@QAE@AAV?$allocator@U?$_Tree_node@U?$pair@$$CBKH@std@@PAX@std@@@1@PAU?$_Tree_node@U?$pair@$$CBKH@std@@PAX@1@$$QAU?$pair@$$CBKH@1@@Z DD 0ffffffffH
	DD	FLAT:__unwindfunclet$??$?0U?$pair@$$CBKH@std@@@?$_Tree_temp_node@V?$allocator@U?$_Tree_node@U?$pair@$$CBKH@std@@PAX@std@@@std@@@std@@QAE@AAV?$allocator@U?$_Tree_node@U?$pair@$$CBKH@std@@PAX@std@@@1@PAU?$_Tree_node@U?$pair@$$CBKH@std@@PAX@1@$$QAU?$pair@$$CBKH@1@@Z$1
__ehfuncinfo$??$?0U?$pair@$$CBKH@std@@@?$_Tree_temp_node@V?$allocator@U?$_Tree_node@U?$pair@$$CBKH@std@@PAX@std@@@std@@@std@@QAE@AAV?$allocator@U?$_Tree_node@U?$pair@$$CBKH@std@@PAX@std@@@1@PAU?$_Tree_node@U?$pair@$$CBKH@std@@PAX@1@$$QAU?$pair@$$CBKH@1@@Z DD 019930522H
	DD	01H
	DD	FLAT:__unwindtable$??$?0U?$pair@$$CBKH@std@@@?$_Tree_temp_node@V?$allocator@U?$_Tree_node@U?$pair@$$CBKH@std@@PAX@std@@@std@@@std@@QAE@AAV?$allocator@U?$_Tree_node@U?$pair@$$CBKH@std@@PAX@std@@@1@PAU?$_Tree_node@U?$pair@$$CBKH@std@@PAX@1@$$QAU?$pair@$$CBKH@1@@Z
	DD	2 DUP(00H)
	DD	2 DUP(00H)
	DD	00H
	DD	01H
xdata$x	ENDS
;	COMDAT xdata$x
xdata$x	SEGMENT
__unwindtable$??0?$_Tree_temp_node_alloc@V?$allocator@U?$_Tree_node@U?$pair@$$CBKH@std@@PAX@std@@@std@@@std@@QAE@AAV?$allocator@U?$_Tree_node@U?$pair@$$CBKH@std@@PAX@std@@@1@@Z DD 0ffffffffH
	DD	FLAT:__unwindfunclet$??0?$_Tree_temp_node_alloc@V?$allocator@U?$_Tree_node@U?$pair@$$CBKH@std@@PAX@std@@@std@@@std@@QAE@AAV?$allocator@U?$_Tree_node@U?$pair@$$CBKH@std@@PAX@std@@@1@@Z$0
__ehfuncinfo$??0?$_Tree_temp_node_alloc@V?$allocator@U?$_Tree_node@U?$pair@$$CBKH@std@@PAX@std@@@std@@@std@@QAE@AAV?$allocator@U?$_Tree_node@U?$pair@$$CBKH@std@@PAX@std@@@1@@Z DD 019930522H
	DD	01H
	DD	FLAT:__unwindtable$??0?$_Tree_temp_node_alloc@V?$allocator@U?$_Tree_node@U?$pair@$$CBKH@std@@PAX@std@@@std@@@std@@QAE@AAV?$allocator@U?$_Tree_node@U?$pair@$$CBKH@std@@PAX@std@@@1@@Z
	DD	2 DUP(00H)
	DD	2 DUP(00H)
	DD	00H
	DD	01H
xdata$x	ENDS
;	COMDAT xdata$x
xdata$x	SEGMENT
__unwindtable$??$_Emplace@U?$pair@KH@std@@@?$_Tree@V?$_Tmap_traits@KHU?$less@K@std@@V?$allocator@U?$pair@$$CBKH@std@@@2@$0A@@std@@@std@@IAE?AU?$pair@PAU?$_Tree_node@U?$pair@$$CBKH@std@@PAX@std@@_N@1@$$QAU?$pair@KH@1@@Z DD 0ffffffffH
	DD	FLAT:__unwindfunclet$??$_Emplace@U?$pair@KH@std@@@?$_Tree@V?$_Tmap_traits@KHU?$less@K@std@@V?$allocator@U?$pair@$$CBKH@std@@@2@$0A@@std@@@std@@IAE?AU?$pair@PAU?$_Tree_node@U?$pair@$$CBKH@std@@PAX@std@@_N@1@$$QAU?$pair@KH@1@@Z$2
__ehfuncinfo$??$_Emplace@U?$pair@KH@std@@@?$_Tree@V?$_Tmap_traits@KHU?$less@K@std@@V?$allocator@U?$pair@$$CBKH@std@@@2@$0A@@std@@@std@@IAE?AU?$pair@PAU?$_Tree_node@U?$pair@$$CBKH@std@@PAX@std@@_N@1@$$QAU?$pair@KH@1@@Z DD 019930522H
	DD	01H
	DD	FLAT:__unwindtable$??$_Emplace@U?$pair@KH@std@@@?$_Tree@V?$_Tmap_traits@KHU?$less@K@std@@V?$allocator@U?$pair@$$CBKH@std@@@2@$0A@@std@@@std@@IAE?AU?$pair@PAU?$_Tree_node@U?$pair@$$CBKH@std@@PAX@std@@_N@1@$$QAU?$pair@KH@1@@Z
	DD	2 DUP(00H)
	DD	2 DUP(00H)
	DD	00H
	DD	01H
xdata$x	ENDS
;	COMDAT xdata$x
xdata$x	SEGMENT
__unwindtable$??$emplace@U?$pair@EV?$vector@U__SPAWNINFO@CEventLua@@V?$allocator@U__SPAWNINFO@CEventLua@@@std@@@std@@@std@@@?$_Tree@V?$_Tmap_traits@EV?$vector@U__SPAWNINFO@CEventLua@@V?$allocator@U__SPAWNINFO@CEventLua@@@std@@@std@@U?$less@E@2@V?$allocator@U?$pair@$$CBEV?$vector@U__SPAWNINFO@CEventLua@@V?$allocator@U__SPAWNINFO@CEventLua@@@std@@@std@@@std@@@2@$0A@@std@@@std@@QAE?AU?$pair@V?$_Tree_iterator@V?$_Tree_val@U?$_Tree_simple_types@U?$pair@$$CBEV?$vector@U__SPAWNINFO@CEventLua@@V?$allocator@U__SPAWNINFO@CEventLua@@@std@@@std@@@std@@@std@@@std@@@std@@_N@1@$$QAU?$pair@EV?$vector@U__SPAWNINFO@CEventLua@@V?$allocator@U__SPAWNINFO@CEventLua@@@std@@@std@@@1@@Z DD 0ffffffffH
	DD	FLAT:__unwindfunclet$??$emplace@U?$pair@EV?$vector@U__SPAWNINFO@CEventLua@@V?$allocator@U__SPAWNINFO@CEventLua@@@std@@@std@@@std@@@?$_Tree@V?$_Tmap_traits@EV?$vector@U__SPAWNINFO@CEventLua@@V?$allocator@U__SPAWNINFO@CEventLua@@@std@@@std@@U?$less@E@2@V?$allocator@U?$pair@$$CBEV?$vector@U__SPAWNINFO@CEventLua@@V?$allocator@U__SPAWNINFO@CEventLua@@@std@@@std@@@std@@@2@$0A@@std@@@std@@QAE?AU?$pair@V?$_Tree_iterator@V?$_Tree_val@U?$_Tree_simple_types@U?$pair@$$CBEV?$vector@U__SPAWNINFO@CEventLua@@V?$allocator@U__SPAWNINFO@CEventLua@@@std@@@std@@@std@@@std@@@std@@@std@@_N@1@$$QAU?$pair@EV?$vector@U__SPAWNINFO@CEventLua@@V?$allocator@U__SPAWNINFO@CEventLua@@@std@@@std@@@1@@Z$2
__ehfuncinfo$??$emplace@U?$pair@EV?$vector@U__SPAWNINFO@CEventLua@@V?$allocator@U__SPAWNINFO@CEventLua@@@std@@@std@@@std@@@?$_Tree@V?$_Tmap_traits@EV?$vector@U__SPAWNINFO@CEventLua@@V?$allocator@U__SPAWNINFO@CEventLua@@@std@@@std@@U?$less@E@2@V?$allocator@U?$pair@$$CBEV?$vector@U__SPAWNINFO@CEventLua@@V?$allocator@U__SPAWNINFO@CEventLua@@@std@@@std@@@std@@@2@$0A@@std@@@std@@QAE?AU?$pair@V?$_Tree_iterator@V?$_Tree_val@U?$_Tree_simple_types@U?$pair@$$CBEV?$vector@U__SPAWNINFO@CEventLua@@V?$allocator@U__SPAWNINFO@CEventLua@@@std@@@std@@@std@@@std@@@std@@@std@@_N@1@$$QAU?$pair@EV?$vector@U__SPAWNINFO@CEventLua@@V?$allocator@U__SPAWNINFO@CEventLua@@@std@@@std@@@1@@Z DD 019930522H
	DD	01H
	DD	FLAT:__unwindtable$??$emplace@U?$pair@EV?$vector@U__SPAWNINFO@CEventLua@@V?$allocator@U__SPAWNINFO@CEventLua@@@std@@@std@@@std@@@?$_Tree@V?$_Tmap_traits@EV?$vector@U__SPAWNINFO@CEventLua@@V?$allocator@U__SPAWNINFO@CEventLua@@@std@@@std@@U?$less@E@2@V?$allocator@U?$pair@$$CBEV?$vector@U__SPAWNINFO@CEventLua@@V?$allocator@U__SPAWNINFO@CEventLua@@@std@@@std@@@std@@@2@$0A@@std@@@std@@QAE?AU?$pair@V?$_Tree_iterator@V?$_Tree_val@U?$_Tree_simple_types@U?$pair@$$CBEV?$vector@U__SPAWNINFO@CEventLua@@V?$allocator@U__SPAWNINFO@CEventLua@@@std@@@std@@@std@@@std@@@std@@@std@@_N@1@$$QAU?$pair@EV?$vector@U__SPAWNINFO@CEventLua@@V?$allocator@U__SPAWNINFO@CEventLua@@@std@@@std@@@1@@Z
	DD	2 DUP(00H)
	DD	2 DUP(00H)
	DD	00H
	DD	01H
xdata$x	ENDS
;	COMDAT xdata$x
xdata$x	SEGMENT
__unwindtable$??$emplace@U?$pair@KE@std@@@?$_Tree@V?$_Tmap_traits@KEU?$less@K@std@@V?$allocator@U?$pair@$$CBKE@std@@@2@$0A@@std@@@std@@QAE?AU?$pair@V?$_Tree_iterator@V?$_Tree_val@U?$_Tree_simple_types@U?$pair@$$CBKE@std@@@std@@@std@@@std@@_N@1@$$QAU?$pair@KE@1@@Z DD 0ffffffffH
	DD	FLAT:__unwindfunclet$??$emplace@U?$pair@KE@std@@@?$_Tree@V?$_Tmap_traits@KEU?$less@K@std@@V?$allocator@U?$pair@$$CBKE@std@@@2@$0A@@std@@@std@@QAE?AU?$pair@V?$_Tree_iterator@V?$_Tree_val@U?$_Tree_simple_types@U?$pair@$$CBKE@std@@@std@@@std@@@std@@_N@1@$$QAU?$pair@KE@1@@Z$2
__ehfuncinfo$??$emplace@U?$pair@KE@std@@@?$_Tree@V?$_Tmap_traits@KEU?$less@K@std@@V?$allocator@U?$pair@$$CBKE@std@@@2@$0A@@std@@@std@@QAE?AU?$pair@V?$_Tree_iterator@V?$_Tree_val@U?$_Tree_simple_types@U?$pair@$$CBKE@std@@@std@@@std@@@std@@_N@1@$$QAU?$pair@KE@1@@Z DD 019930522H
	DD	01H
	DD	FLAT:__unwindtable$??$emplace@U?$pair@KE@std@@@?$_Tree@V?$_Tmap_traits@KEU?$less@K@std@@V?$allocator@U?$pair@$$CBKE@std@@@2@$0A@@std@@@std@@QAE?AU?$pair@V?$_Tree_iterator@V?$_Tree_val@U?$_Tree_simple_types@U?$pair@$$CBKE@std@@@std@@@std@@@std@@_N@1@$$QAU?$pair@KE@1@@Z
	DD	2 DUP(00H)
	DD	2 DUP(00H)
	DD	00H
	DD	01H
xdata$x	ENDS
;	COMDAT xdata$x
xdata$x	SEGMENT
__unwindtable$??$_Emplace@U?$pair@$$CBKH@std@@@?$_Tree@V?$_Tmap_traits@KHU?$less@K@std@@V?$allocator@U?$pair@$$CBKH@std@@@2@$0A@@std@@@std@@IAE?AU?$pair@PAU?$_Tree_node@U?$pair@$$CBKH@std@@PAX@std@@_N@1@$$QAU?$pair@$$CBKH@1@@Z DD 0ffffffffH
	DD	FLAT:__unwindfunclet$??$_Emplace@U?$pair@$$CBKH@std@@@?$_Tree@V?$_Tmap_traits@KHU?$less@K@std@@V?$allocator@U?$pair@$$CBKH@std@@@2@$0A@@std@@@std@@IAE?AU?$pair@PAU?$_Tree_node@U?$pair@$$CBKH@std@@PAX@std@@_N@1@$$QAU?$pair@$$CBKH@1@@Z$2
__ehfuncinfo$??$_Emplace@U?$pair@$$CBKH@std@@@?$_Tree@V?$_Tmap_traits@KHU?$less@K@std@@V?$allocator@U?$pair@$$CBKH@std@@@2@$0A@@std@@@std@@IAE?AU?$pair@PAU?$_Tree_node@U?$pair@$$CBKH@std@@PAX@std@@_N@1@$$QAU?$pair@$$CBKH@1@@Z DD 019930522H
	DD	01H
	DD	FLAT:__unwindtable$??$_Emplace@U?$pair@$$CBKH@std@@@?$_Tree@V?$_Tmap_traits@KHU?$less@K@std@@V?$allocator@U?$pair@$$CBKH@std@@@2@$0A@@std@@@std@@IAE?AU?$pair@PAU?$_Tree_node@U?$pair@$$CBKH@std@@PAX@std@@_N@1@$$QAU?$pair@$$CBKH@1@@Z
	DD	2 DUP(00H)
	DD	2 DUP(00H)
	DD	00H
	DD	01H
xdata$x	ENDS
;	COMDAT xdata$x
xdata$x	SEGMENT
__unwindtable$??$emplace@U?$pair@KH@std@@@?$_Tree@V?$_Tmap_traits@KHU?$less@K@std@@V?$allocator@U?$pair@$$CBKH@std@@@2@$0A@@std@@@std@@QAE?AU?$pair@V?$_Tree_iterator@V?$_Tree_val@U?$_Tree_simple_types@U?$pair@$$CBKH@std@@@std@@@std@@@std@@_N@1@$$QAU?$pair@KH@1@@Z DD 0ffffffffH
	DD	FLAT:__unwindfunclet$??$emplace@U?$pair@KH@std@@@?$_Tree@V?$_Tmap_traits@KHU?$less@K@std@@V?$allocator@U?$pair@$$CBKH@std@@@2@$0A@@std@@@std@@QAE?AU?$pair@V?$_Tree_iterator@V?$_Tree_val@U?$_Tree_simple_types@U?$pair@$$CBKH@std@@@std@@@std@@@std@@_N@1@$$QAU?$pair@KH@1@@Z$2
__ehfuncinfo$??$emplace@U?$pair@KH@std@@@?$_Tree@V?$_Tmap_traits@KHU?$less@K@std@@V?$allocator@U?$pair@$$CBKH@std@@@2@$0A@@std@@@std@@QAE?AU?$pair@V?$_Tree_iterator@V?$_Tree_val@U?$_Tree_simple_types@U?$pair@$$CBKH@std@@@std@@@std@@@std@@_N@1@$$QAU?$pair@KH@1@@Z DD 019930522H
	DD	01H
	DD	FLAT:__unwindtable$??$emplace@U?$pair@KH@std@@@?$_Tree@V?$_Tmap_traits@KHU?$less@K@std@@V?$allocator@U?$pair@$$CBKH@std@@@2@$0A@@std@@@std@@QAE?AU?$pair@V?$_Tree_iterator@V?$_Tree_val@U?$_Tree_simple_types@U?$pair@$$CBKH@std@@@std@@@std@@@std@@_N@1@$$QAU?$pair@KH@1@@Z
	DD	2 DUP(00H)
	DD	2 DUP(00H)
	DD	00H
	DD	01H
xdata$x	ENDS
;	COMDAT xdata$x
xdata$x	SEGMENT
__unwindtable$??$insert@U?$pair@EV?$vector@U__SPAWNINFO@CEventLua@@V?$allocator@U__SPAWNINFO@CEventLua@@@std@@@std@@@std@@$0A@@?$map@EV?$vector@U__SPAWNINFO@CEventLua@@V?$allocator@U__SPAWNINFO@CEventLua@@@std@@@std@@U?$less@E@2@V?$allocator@U?$pair@$$CBEV?$vector@U__SPAWNINFO@CEventLua@@V?$allocator@U__SPAWNINFO@CEventLua@@@std@@@std@@@std@@@2@@std@@QAE?AU?$pair@V?$_Tree_iterator@V?$_Tree_val@U?$_Tree_simple_types@U?$pair@$$CBEV?$vector@U__SPAWNINFO@CEventLua@@V?$allocator@U__SPAWNINFO@CEventLua@@@std@@@std@@@std@@@std@@@std@@@std@@_N@1@$$QAU?$pair@EV?$vector@U__SPAWNINFO@CEventLua@@V?$allocator@U__SPAWNINFO@CEventLua@@@std@@@std@@@1@@Z DD 0ffffffffH
	DD	FLAT:__unwindfunclet$??$insert@U?$pair@EV?$vector@U__SPAWNINFO@CEventLua@@V?$allocator@U__SPAWNINFO@CEventLua@@@std@@@std@@@std@@$0A@@?$map@EV?$vector@U__SPAWNINFO@CEventLua@@V?$allocator@U__SPAWNINFO@CEventLua@@@std@@@std@@U?$less@E@2@V?$allocator@U?$pair@$$CBEV?$vector@U__SPAWNINFO@CEventLua@@V?$allocator@U__SPAWNINFO@CEventLua@@@std@@@std@@@std@@@2@@std@@QAE?AU?$pair@V?$_Tree_iterator@V?$_Tree_val@U?$_Tree_simple_types@U?$pair@$$CBEV?$vector@U__SPAWNINFO@CEventLua@@V?$allocator@U__SPAWNINFO@CEventLua@@@std@@@std@@@std@@@std@@@std@@@std@@_N@1@$$QAU?$pair@EV?$vector@U__SPAWNINFO@CEventLua@@V?$allocator@U__SPAWNINFO@CEventLua@@@std@@@std@@@1@@Z$2
__ehfuncinfo$??$insert@U?$pair@EV?$vector@U__SPAWNINFO@CEventLua@@V?$allocator@U__SPAWNINFO@CEventLua@@@std@@@std@@@std@@$0A@@?$map@EV?$vector@U__SPAWNINFO@CEventLua@@V?$allocator@U__SPAWNINFO@CEventLua@@@std@@@std@@U?$less@E@2@V?$allocator@U?$pair@$$CBEV?$vector@U__SPAWNINFO@CEventLua@@V?$allocator@U__SPAWNINFO@CEventLua@@@std@@@std@@@std@@@2@@std@@QAE?AU?$pair@V?$_Tree_iterator@V?$_Tree_val@U?$_Tree_simple_types@U?$pair@$$CBEV?$vector@U__SPAWNINFO@CEventLua@@V?$allocator@U__SPAWNINFO@CEventLua@@@std@@@std@@@std@@@std@@@std@@@std@@_N@1@$$QAU?$pair@EV?$vector@U__SPAWNINFO@CEventLua@@V?$allocator@U__SPAWNINFO@CEventLua@@@std@@@std@@@1@@Z DD 019930522H
	DD	01H
	DD	FLAT:__unwindtable$??$insert@U?$pair@EV?$vector@U__SPAWNINFO@CEventLua@@V?$allocator@U__SPAWNINFO@CEventLua@@@std@@@std@@@std@@$0A@@?$map@EV?$vector@U__SPAWNINFO@CEventLua@@V?$allocator@U__SPAWNINFO@CEventLua@@@std@@@std@@U?$less@E@2@V?$allocator@U?$pair@$$CBEV?$vector@U__SPAWNINFO@CEventLua@@V?$allocator@U__SPAWNINFO@CEventLua@@@std@@@std@@@std@@@2@@std@@QAE?AU?$pair@V?$_Tree_iterator@V?$_Tree_val@U?$_Tree_simple_types@U?$pair@$$CBEV?$vector@U__SPAWNINFO@CEventLua@@V?$allocator@U__SPAWNINFO@CEventLua@@@std@@@std@@@std@@@std@@@std@@@std@@_N@1@$$QAU?$pair@EV?$vector@U__SPAWNINFO@CEventLua@@V?$allocator@U__SPAWNINFO@CEventLua@@@std@@@std@@@1@@Z
	DD	2 DUP(00H)
	DD	2 DUP(00H)
	DD	00H
	DD	01H
xdata$x	ENDS
;	COMDAT xdata$x
xdata$x	SEGMENT
__unwindtable$??$insert@U?$pair@KE@std@@$0A@@?$map@KEU?$less@K@std@@V?$allocator@U?$pair@$$CBKE@std@@@2@@std@@QAE?AU?$pair@V?$_Tree_iterator@V?$_Tree_val@U?$_Tree_simple_types@U?$pair@$$CBKE@std@@@std@@@std@@@std@@_N@1@$$QAU?$pair@KE@1@@Z DD 0ffffffffH
	DD	FLAT:__unwindfunclet$??$insert@U?$pair@KE@std@@$0A@@?$map@KEU?$less@K@std@@V?$allocator@U?$pair@$$CBKE@std@@@2@@std@@QAE?AU?$pair@V?$_Tree_iterator@V?$_Tree_val@U?$_Tree_simple_types@U?$pair@$$CBKE@std@@@std@@@std@@@std@@_N@1@$$QAU?$pair@KE@1@@Z$2
__ehfuncinfo$??$insert@U?$pair@KE@std@@$0A@@?$map@KEU?$less@K@std@@V?$allocator@U?$pair@$$CBKE@std@@@2@@std@@QAE?AU?$pair@V?$_Tree_iterator@V?$_Tree_val@U?$_Tree_simple_types@U?$pair@$$CBKE@std@@@std@@@std@@@std@@_N@1@$$QAU?$pair@KE@1@@Z DD 019930522H
	DD	01H
	DD	FLAT:__unwindtable$??$insert@U?$pair@KE@std@@$0A@@?$map@KEU?$less@K@std@@V?$allocator@U?$pair@$$CBKE@std@@@2@@std@@QAE?AU?$pair@V?$_Tree_iterator@V?$_Tree_val@U?$_Tree_simple_types@U?$pair@$$CBKE@std@@@std@@@std@@@std@@_N@1@$$QAU?$pair@KE@1@@Z
	DD	2 DUP(00H)
	DD	2 DUP(00H)
	DD	00H
	DD	01H
xdata$x	ENDS
;	COMDAT xdata$x
xdata$x	SEGMENT
__unwindtable$??$insert@$0A@$0A@@?$_Tree@V?$_Tmap_traits@KHU?$less@K@std@@V?$allocator@U?$pair@$$CBKH@std@@@2@$0A@@std@@@std@@QAE?AU?$pair@V?$_Tree_iterator@V?$_Tree_val@U?$_Tree_simple_types@U?$pair@$$CBKH@std@@@std@@@std@@@std@@_N@1@$$QAU?$pair@$$CBKH@1@@Z DD 0ffffffffH
	DD	FLAT:__unwindfunclet$??$insert@$0A@$0A@@?$_Tree@V?$_Tmap_traits@KHU?$less@K@std@@V?$allocator@U?$pair@$$CBKH@std@@@2@$0A@@std@@@std@@QAE?AU?$pair@V?$_Tree_iterator@V?$_Tree_val@U?$_Tree_simple_types@U?$pair@$$CBKH@std@@@std@@@std@@@std@@_N@1@$$QAU?$pair@$$CBKH@1@@Z$2
__ehfuncinfo$??$insert@$0A@$0A@@?$_Tree@V?$_Tmap_traits@KHU?$less@K@std@@V?$allocator@U?$pair@$$CBKH@std@@@2@$0A@@std@@@std@@QAE?AU?$pair@V?$_Tree_iterator@V?$_Tree_val@U?$_Tree_simple_types@U?$pair@$$CBKH@std@@@std@@@std@@@std@@_N@1@$$QAU?$pair@$$CBKH@1@@Z DD 019930522H
	DD	01H
	DD	FLAT:__unwindtable$??$insert@$0A@$0A@@?$_Tree@V?$_Tmap_traits@KHU?$less@K@std@@V?$allocator@U?$pair@$$CBKH@std@@@2@$0A@@std@@@std@@QAE?AU?$pair@V?$_Tree_iterator@V?$_Tree_val@U?$_Tree_simple_types@U?$pair@$$CBKH@std@@@std@@@std@@@std@@_N@1@$$QAU?$pair@$$CBKH@1@@Z
	DD	2 DUP(00H)
	DD	2 DUP(00H)
	DD	00H
	DD	01H
xdata$x	ENDS
;	COMDAT xdata$x
xdata$x	SEGMENT
__unwindtable$??$insert@U?$pair@KH@std@@$0A@@?$map@KHU?$less@K@std@@V?$allocator@U?$pair@$$CBKH@std@@@2@@std@@QAE?AU?$pair@V?$_Tree_iterator@V?$_Tree_val@U?$_Tree_simple_types@U?$pair@$$CBKH@std@@@std@@@std@@@std@@_N@1@$$QAU?$pair@KH@1@@Z DD 0ffffffffH
	DD	FLAT:__unwindfunclet$??$insert@U?$pair@KH@std@@$0A@@?$map@KHU?$less@K@std@@V?$allocator@U?$pair@$$CBKH@std@@@2@@std@@QAE?AU?$pair@V?$_Tree_iterator@V?$_Tree_val@U?$_Tree_simple_types@U?$pair@$$CBKH@std@@@std@@@std@@@std@@_N@1@$$QAU?$pair@KH@1@@Z$2
__ehfuncinfo$??$insert@U?$pair@KH@std@@$0A@@?$map@KHU?$less@K@std@@V?$allocator@U?$pair@$$CBKH@std@@@2@@std@@QAE?AU?$pair@V?$_Tree_iterator@V?$_Tree_val@U?$_Tree_simple_types@U?$pair@$$CBKH@std@@@std@@@std@@@std@@_N@1@$$QAU?$pair@KH@1@@Z DD 019930522H
	DD	01H
	DD	FLAT:__unwindtable$??$insert@U?$pair@KH@std@@$0A@@?$map@KHU?$less@K@std@@V?$allocator@U?$pair@$$CBKH@std@@@2@@std@@QAE?AU?$pair@V?$_Tree_iterator@V?$_Tree_val@U?$_Tree_simple_types@U?$pair@$$CBKH@std@@@std@@@std@@@std@@_N@1@$$QAU?$pair@KH@1@@Z
	DD	2 DUP(00H)
	DD	2 DUP(00H)
	DD	00H
	DD	01H
xdata$x	ENDS
;	COMDAT xdata$x
xdata$x	SEGMENT
__unwindtable$?KeepConnectEventProcess@CEventLua@@QAEXXZ DD 0ffffffffH
	DD	FLAT:__unwindfunclet$?KeepConnectEventProcess@CEventLua@@QAEXXZ$0
__ehfuncinfo$?KeepConnectEventProcess@CEventLua@@QAEXXZ DD 019930522H
	DD	01H
	DD	FLAT:__unwindtable$?KeepConnectEventProcess@CEventLua@@QAEXXZ
	DD	2 DUP(00H)
	DD	2 DUP(00H)
	DD	00H
	DD	01H
xdata$x	ENDS
;	COMDAT xdata$x
xdata$x	SEGMENT
__unwindtable$?GetKeepConnectItem@CEventLua@@QAEXXZ DD 0ffffffffH
	DD	FLAT:__unwindfunclet$?GetKeepConnectItem@CEventLua@@QAEXXZ$2
__ehfuncinfo$?GetKeepConnectItem@CEventLua@@QAEXXZ DD 019930522H
	DD	01H
	DD	FLAT:__unwindtable$?GetKeepConnectItem@CEventLua@@QAEXXZ
	DD	2 DUP(00H)
	DD	2 DUP(00H)
	DD	00H
	DD	01H
xdata$x	ENDS
;	COMDAT xdata$x
xdata$x	SEGMENT
__unwindtable$?EventSpawnProcess@CEventLua@@QAEXXZ DD 0ffffffffH
	DD	FLAT:__unwindfunclet$?EventSpawnProcess@CEventLua@@QAEXXZ$0
__ehfuncinfo$?EventSpawnProcess@CEventLua@@QAEXXZ DD 019930522H
	DD	01H
	DD	FLAT:__unwindtable$?EventSpawnProcess@CEventLua@@QAEXXZ
	DD	2 DUP(00H)
	DD	2 DUP(00H)
	DD	00H
	DD	01H
xdata$x	ENDS
;	COMDAT xdata$x
xdata$x	SEGMENT
__unwindtable$?SetSpawnEvent@CEventLua@@AAEXEH@Z DD 0ffffffffH
	DD	FLAT:__unwindfunclet$?SetSpawnEvent@CEventLua@@AAEXEH@Z$0
	DD	00H
	DD	FLAT:__unwindfunclet$?SetSpawnEvent@CEventLua@@AAEXEH@Z$1
	DD	01H
	DD	FLAT:__unwindfunclet$?SetSpawnEvent@CEventLua@@AAEXEH@Z$8
__ehfuncinfo$?SetSpawnEvent@CEventLua@@AAEXEH@Z DD 019930522H
	DD	03H
	DD	FLAT:__unwindtable$?SetSpawnEvent@CEventLua@@AAEXEH@Z
	DD	2 DUP(00H)
	DD	2 DUP(00H)
	DD	00H
	DD	01H
xdata$x	ENDS
;	COMDAT xdata$x
xdata$x	SEGMENT
__unwindtable$?GetWeatherEventTitle@CEventLua@@QAE?AV?$basic_string@DU?$char_traits@D@std@@V?$allocator@D@2@@std@@XZ DD 0ffffffffH
	DD	FLAT:__unwindfunclet$?GetWeatherEventTitle@CEventLua@@QAE?AV?$basic_string@DU?$char_traits@D@std@@V?$allocator@D@2@@std@@XZ$0
__ehfuncinfo$?GetWeatherEventTitle@CEventLua@@QAE?AV?$basic_string@DU?$char_traits@D@std@@V?$allocator@D@2@@std@@XZ DD 019930522H
	DD	01H
	DD	FLAT:__unwindtable$?GetWeatherEventTitle@CEventLua@@QAE?AV?$basic_string@DU?$char_traits@D@std@@V?$allocator@D@2@@std@@XZ
	DD	2 DUP(00H)
	DD	2 DUP(00H)
	DD	00H
	DD	01H
xdata$x	ENDS
;	COMDAT xdata$x
xdata$x	SEGMENT
__unwindtable$?GetEventInfo@CEventLua@@QAEXPAVCUser@@H@Z DD 0ffffffffH
	DD	FLAT:__unwindfunclet$?GetEventInfo@CEventLua@@QAEXPAVCUser@@H@Z$1
	DD	0ffffffffH
	DD	FLAT:__unwindfunclet$?GetEventInfo@CEventLua@@QAEXPAVCUser@@H@Z$0
__ehfuncinfo$?GetEventInfo@CEventLua@@QAEXPAVCUser@@H@Z DD 019930522H
	DD	02H
	DD	FLAT:__unwindtable$?GetEventInfo@CEventLua@@QAEXPAVCUser@@H@Z
	DD	2 DUP(00H)
	DD	2 DUP(00H)
	DD	00H
	DD	01H
xdata$x	ENDS
;	COMDAT xdata$x
xdata$x	SEGMENT
__unwindtable$?GetAllEventList@CEventLua@@QAEXPAVCUser@@@Z DD 0ffffffffH
	DD	FLAT:__unwindfunclet$?GetAllEventList@CEventLua@@QAEXPAVCUser@@@Z$0
	DD	00H
	DD	FLAT:__unwindfunclet$?GetAllEventList@CEventLua@@QAEXPAVCUser@@@Z$1
__ehfuncinfo$?GetAllEventList@CEventLua@@QAEXPAVCUser@@@Z DD 019930522H
	DD	02H
	DD	FLAT:__unwindtable$?GetAllEventList@CEventLua@@QAEXPAVCUser@@@Z
	DD	2 DUP(00H)
	DD	2 DUP(00H)
	DD	00H
	DD	01H
xdata$x	ENDS
;	COMDAT xdata$x
xdata$x	SEGMENT
__unwindtable$?GetItem@CEventLua@@QAE?AV?$map@KHU?$less@K@std@@V?$allocator@U?$pair@$$CBKH@std@@@2@@std@@K@Z DD 0ffffffffH
	DD	FLAT:__unwindfunclet$?GetItem@CEventLua@@QAE?AV?$map@KHU?$less@K@std@@V?$allocator@U?$pair@$$CBKH@std@@@2@@std@@K@Z$0
	DD	00H
	DD	FLAT:__unwindfunclet$?GetItem@CEventLua@@QAE?AV?$map@KHU?$less@K@std@@V?$allocator@U?$pair@$$CBKH@std@@@2@@std@@K@Z$6
__ehfuncinfo$?GetItem@CEventLua@@QAE?AV?$map@KHU?$less@K@std@@V?$allocator@U?$pair@$$CBKH@std@@@2@@std@@K@Z DD 019930522H
	DD	02H
	DD	FLAT:__unwindtable$?GetItem@CEventLua@@QAE?AV?$map@KHU?$less@K@std@@V?$allocator@U?$pair@$$CBKH@std@@@2@@std@@K@Z
	DD	2 DUP(00H)
	DD	2 DUP(00H)
	DD	00H
	DD	01H
xdata$x	ENDS
;	COMDAT xdata$x
xdata$x	SEGMENT
__unwindtable$?SetLevelUpGift@CEventLua@@QAEXPAVCUser@@H@Z DD 0ffffffffH
	DD	FLAT:__unwindfunclet$?SetLevelUpGift@CEventLua@@QAEXPAVCUser@@H@Z$0
	DD	00H
	DD	FLAT:__unwindfunclet$?SetLevelUpGift@CEventLua@@QAEXPAVCUser@@H@Z$1
__ehfuncinfo$?SetLevelUpGift@CEventLua@@QAEXPAVCUser@@H@Z DD 019930522H
	DD	02H
	DD	FLAT:__unwindtable$?SetLevelUpGift@CEventLua@@QAEXPAVCUser@@H@Z
	DD	2 DUP(00H)
	DD	2 DUP(00H)
	DD	00H
	DD	01H
xdata$x	ENDS
;	COMDAT xdata$x
xdata$x	SEGMENT
__unwindtable$?GetDesc@CEventLua@@QAE?AV?$basic_string@DU?$char_traits@D@std@@V?$allocator@D@2@@std@@E@Z DD 0ffffffffH
	DD	FLAT:__unwindfunclet$?GetDesc@CEventLua@@QAE?AV?$basic_string@DU?$char_traits@D@std@@V?$allocator@D@2@@std@@E@Z$0
__ehfuncinfo$?GetDesc@CEventLua@@QAE?AV?$basic_string@DU?$char_traits@D@std@@V?$allocator@D@2@@std@@E@Z DD 019930522H
	DD	01H
	DD	FLAT:__unwindtable$?GetDesc@CEventLua@@QAE?AV?$basic_string@DU?$char_traits@D@std@@V?$allocator@D@2@@std@@E@Z
	DD	2 DUP(00H)
	DD	2 DUP(00H)
	DD	00H
	DD	01H
xdata$x	ENDS
;	COMDAT xdata$x
xdata$x	SEGMENT
__unwindtable$?GetEventList@CEventLua@@QAE?AV?$vector@EV?$allocator@E@std@@@std@@H@Z DD 0ffffffffH
	DD	FLAT:__unwindfunclet$?GetEventList@CEventLua@@QAE?AV?$vector@EV?$allocator@E@std@@@std@@H@Z$0
__ehfuncinfo$?GetEventList@CEventLua@@QAE?AV?$vector@EV?$allocator@E@std@@@std@@H@Z DD 019930522H
	DD	01H
	DD	FLAT:__unwindtable$?GetEventList@CEventLua@@QAE?AV?$vector@EV?$allocator@E@std@@@std@@H@Z
	DD	2 DUP(00H)
	DD	2 DUP(00H)
	DD	00H
	DD	01H
xdata$x	ENDS
;	COMDAT xdata$x
xdata$x	SEGMENT
__ehfuncinfo$??0CEventLua@@QAE@XZ DD 019930522H
	DD	08H
	DD	FLAT:__unwindtable$??0CEventLua@@QAE@XZ
	DD	2 DUP(00H)
	DD	2 DUP(00H)
	DD	00H
	DD	01H
__unwindtable$??0CEventLua@@QAE@XZ DD 0ffffffffH
	DD	FLAT:__unwindfunclet$??0CEventLua@@QAE@XZ$0
	DD	00H
	DD	FLAT:__unwindfunclet$??0CEventLua@@QAE@XZ$1
	DD	01H
	DD	FLAT:__unwindfunclet$??0CEventLua@@QAE@XZ$2
	DD	02H
	DD	FLAT:__unwindfunclet$??0CEventLua@@QAE@XZ$3
	DD	03H
	DD	FLAT:__unwindfunclet$??0CEventLua@@QAE@XZ$4
	DD	04H
	DD	FLAT:__unwindfunclet$??0CEventLua@@QAE@XZ$5
	DD	05H
	DD	FLAT:__unwindfunclet$??0CEventLua@@QAE@XZ$6
	DD	06H
	DD	FLAT:__unwindfunclet$??0CEventLua@@QAE@XZ$7
xdata$x	ENDS
;	COMDAT xdata$x
xdata$x	SEGMENT
__unwindtable$?Initialize@CEventLuaProxy@@QAEXPAVCEventLua@@@Z DD 0ffffffffH
	DD	FLAT:__unwindfunclet$?Initialize@CEventLuaProxy@@QAEXPAVCEventLua@@@Z$0
__ehfuncinfo$?Initialize@CEventLuaProxy@@QAEXPAVCEventLua@@@Z DD 019930522H
	DD	01H
	DD	FLAT:__unwindtable$?Initialize@CEventLuaProxy@@QAEXPAVCEventLua@@@Z
	DD	2 DUP(00H)
	DD	2 DUP(00H)
	DD	00H
	DD	01H
xdata$x	ENDS
;	COMDAT xdata$x
xdata$x	SEGMENT
__unwindtable$?FormatV@?$CStringT@DV?$StrTraitMFC@DV?$ChTraitsCRT@D@ATL@@@@@ATL@@QAEXPBDPAD@Z DD 0ffffffffH
	DD	FLAT:__unwindfunclet$?FormatV@?$CStringT@DV?$StrTraitMFC@DV?$ChTraitsCRT@D@ATL@@@@@ATL@@QAEXPBDPAD@Z$1
	DD	0ffffffffH
	DD	FLAT:__unwindfunclet$?FormatV@?$CStringT@DV?$StrTraitMFC@DV?$ChTraitsCRT@D@ATL@@@@@ATL@@QAEXPBDPAD@Z$0
__ehfuncinfo$?FormatV@?$CStringT@DV?$StrTraitMFC@DV?$ChTraitsCRT@D@ATL@@@@@ATL@@QAEXPBDPAD@Z DD 019930522H
	DD	02H
	DD	FLAT:__unwindtable$?FormatV@?$CStringT@DV?$StrTraitMFC@DV?$ChTraitsCRT@D@ATL@@@@@ATL@@QAEXPBDPAD@Z
	DD	2 DUP(00H)
	DD	2 DUP(00H)
	DD	00H
	DD	01H
xdata$x	ENDS
;	COMDAT xdata$x
xdata$x	SEGMENT
__unwindtable$??0?$CStringT@DV?$StrTraitMFC@DV?$ChTraitsCRT@D@ATL@@@@@ATL@@QAE@PBDPAUIAtlStringMgr@1@@Z DD 0ffffffffH
	DD	FLAT:__unwindfunclet$??0?$CStringT@DV?$StrTraitMFC@DV?$ChTraitsCRT@D@ATL@@@@@ATL@@QAE@PBDPAUIAtlStringMgr@1@@Z$0
__ehfuncinfo$??0?$CStringT@DV?$StrTraitMFC@DV?$ChTraitsCRT@D@ATL@@@@@ATL@@QAE@PBDPAUIAtlStringMgr@1@@Z DD 019930522H
	DD	01H
	DD	FLAT:__unwindtable$??0?$CStringT@DV?$StrTraitMFC@DV?$ChTraitsCRT@D@ATL@@@@@ATL@@QAE@PBDPAUIAtlStringMgr@1@@Z
	DD	2 DUP(00H)
	DD	2 DUP(00H)
	DD	00H
	DD	01H
xdata$x	ENDS
;	COMDAT xdata$x
xdata$x	SEGMENT
__unwindtable$??0?$CStringT@DV?$StrTraitMFC@DV?$ChTraitsCRT@D@ATL@@@@@ATL@@QAE@PBD@Z DD 0ffffffffH
	DD	FLAT:__unwindfunclet$??0?$CStringT@DV?$StrTraitMFC@DV?$ChTraitsCRT@D@ATL@@@@@ATL@@QAE@PBD@Z$0
__ehfuncinfo$??0?$CStringT@DV?$StrTraitMFC@DV?$ChTraitsCRT@D@ATL@@@@@ATL@@QAE@PBD@Z DD 019930522H
	DD	01H
	DD	FLAT:__unwindtable$??0?$CStringT@DV?$StrTraitMFC@DV?$ChTraitsCRT@D@ATL@@@@@ATL@@QAE@PBD@Z
	DD	2 DUP(00H)
	DD	2 DUP(00H)
	DD	00H
	DD	01H
xdata$x	ENDS
; Function compile flags: /Ogtp
; File C:\Program Files\Microsoft Visual Studio\2022\Professional\VC\Tools\MSVC\14.44.35207\include\xutility
;	COMDAT ??$_Copy_memmove_tail@PAK@std@@YAPAKQBDQAKII@Z
_TEXT	SEGMENT
__First_ch$ = 8						; size = 4
__Dest$ = 12						; size = 4
__Byte_count$ = 16					; size = 4
__Object_count$ = 20					; size = 4
??$_Copy_memmove_tail@PAK@std@@YAPAKQBDQAKII@Z PROC	; std::_Copy_memmove_tail<unsigned long *>, COMDAT

; 4747 :     const char* const _First_ch, const _OutCtgIt _Dest, const size_t _Byte_count, const size_t _Object_count) {

  00000	55		 push	 ebp
  00001	8b ec		 mov	 ebp, esp
  00003	56		 push	 esi

; 4748 :     _STL_INTERNAL_CHECK(_Byte_count == _Object_count * sizeof(*_Dest));
; 4749 :     const auto _Dest_ptr = _STD _To_address(_Dest);
; 4750 :     const auto _Dest_ch  = const_cast<char*>(reinterpret_cast<const volatile char*>(_Dest_ptr));
; 4751 :     _CSTD memmove(_Dest_ch, _First_ch, _Byte_count);

  00004	8b 75 0c	 mov	 esi, DWORD PTR __Dest$[ebp]
  00007	57		 push	 edi
  00008	8b 7d 10	 mov	 edi, DWORD PTR __Byte_count$[ebp]
  0000b	57		 push	 edi
  0000c	ff 75 08	 push	 DWORD PTR __First_ch$[ebp]
  0000f	56		 push	 esi
  00010	e8 00 00 00 00	 call	 _memmove
  00015	83 c4 0c	 add	 esp, 12			; 0000000cH

; 4752 :     if constexpr (is_pointer_v<_OutCtgIt>) {
; 4753 :         (void) _Object_count;
; 4754 :         // CodeQL [SM02986] This cast is correct: we're bypassing pointer arithmetic for performance.
; 4755 :         return reinterpret_cast<_OutCtgIt>(_Dest_ch + _Byte_count);

  00018	8d 04 3e	 lea	 eax, DWORD PTR [esi+edi]
  0001b	5f		 pop	 edi
  0001c	5e		 pop	 esi

; 4756 :     } else {
; 4757 :         return _Dest + static_cast<_Iter_diff_t<_OutCtgIt>>(_Object_count);
; 4758 :     }
; 4759 : }

  0001d	5d		 pop	 ebp
  0001e	c3		 ret	 0
??$_Copy_memmove_tail@PAK@std@@YAPAKQBDQAKII@Z ENDP	; std::_Copy_memmove_tail<unsigned long *>
_TEXT	ENDS
; Function compile flags: /Ogtp
; File C:\Program Files\Microsoft Visual Studio\2022\Professional\VC\Tools\MSVC\14.44.35207\include\xutility
;	COMDAT ??$_Copy_memmove@PAKPAK@std@@YAPAKPAK00@Z
_TEXT	SEGMENT
__First$ = 8						; size = 4
__Last$ = 12						; size = 4
__Dest$ = 16						; size = 4
??$_Copy_memmove@PAKPAK@std@@YAPAKPAK00@Z PROC		; std::_Copy_memmove<unsigned long *,unsigned long *>, COMDAT

; 4762 : _OutCtgIt _Copy_memmove(_CtgIt _First, _CtgIt _Last, _OutCtgIt _Dest) {

  00000	55		 push	 ebp
  00001	8b ec		 mov	 ebp, esp

; 4763 :     _STL_INTERNAL_CHECK(_First <= _Last);
; 4764 :     const auto _First_ptr    = _STD _To_address(_First);
; 4765 :     const auto _Last_ptr     = _STD _To_address(_Last);
; 4766 :     const auto _Object_count = static_cast<size_t>(_Last_ptr - _First_ptr);

  00003	8b 55 08	 mov	 edx, DWORD PTR __First$[ebp]
  00006	8b 4d 0c	 mov	 ecx, DWORD PTR __Last$[ebp]
  00009	2b ca		 sub	 ecx, edx
  0000b	8b c1		 mov	 eax, ecx
  0000d	c1 f8 02	 sar	 eax, 2

; 4767 :     const auto _First_ch     = const_cast<const char*>(reinterpret_cast<const volatile char*>(_First_ptr));
; 4768 :     const auto _Last_ch      = const_cast<const char*>(reinterpret_cast<const volatile char*>(_Last_ptr));
; 4769 :     const auto _Byte_count   = static_cast<size_t>(_Last_ch - _First_ch);
; 4770 :     return _STD _Copy_memmove_tail(_First_ch, _STD move(_Dest), _Byte_count, _Object_count);

  00010	50		 push	 eax
  00011	51		 push	 ecx
  00012	ff 75 10	 push	 DWORD PTR __Dest$[ebp]
  00015	52		 push	 edx
  00016	e8 00 00 00 00	 call	 ??$_Copy_memmove_tail@PAK@std@@YAPAKQBDQAKII@Z ; std::_Copy_memmove_tail<unsigned long *>
  0001b	83 c4 10	 add	 esp, 16			; 00000010H

; 4771 : }

  0001e	5d		 pop	 ebp
  0001f	c3		 ret	 0
??$_Copy_memmove@PAKPAK@std@@YAPAKPAK00@Z ENDP		; std::_Copy_memmove<unsigned long *,unsigned long *>
_TEXT	ENDS
; Function compile flags: /Ogtp
; File C:\Program Files\Microsoft Visual Studio\2022\Professional\VC\Tools\MSVC\14.44.35207\include\xutility
;	COMDAT ??$_Copy_memmove@PAU__SPAWNINFO@CEventLua@@PAU12@@std@@YAPAU__SPAWNINFO@CEventLua@@PAU12@00@Z
_TEXT	SEGMENT
__First$ = 8						; size = 4
__Last$ = 12						; size = 4
__Dest$ = 16						; size = 4
??$_Copy_memmove@PAU__SPAWNINFO@CEventLua@@PAU12@@std@@YAPAU__SPAWNINFO@CEventLua@@PAU12@00@Z PROC ; std::_Copy_memmove<CEventLua::__SPAWNINFO *,CEventLua::__SPAWNINFO *>, COMDAT

; 4762 : _OutCtgIt _Copy_memmove(_CtgIt _First, _CtgIt _Last, _OutCtgIt _Dest) {

  00000	55		 push	 ebp
  00001	8b ec		 mov	 ebp, esp

; 4763 :     _STL_INTERNAL_CHECK(_First <= _Last);
; 4764 :     const auto _First_ptr    = _STD _To_address(_First);
; 4765 :     const auto _Last_ptr     = _STD _To_address(_Last);
; 4766 :     const auto _Object_count = static_cast<size_t>(_Last_ptr - _First_ptr);

  00003	8b 55 08	 mov	 edx, DWORD PTR __First$[ebp]
  00006	8b 4d 0c	 mov	 ecx, DWORD PTR __Last$[ebp]
  00009	2b ca		 sub	 ecx, edx
  0000b	8b c1		 mov	 eax, ecx
  0000d	c1 f8 04	 sar	 eax, 4

; 4767 :     const auto _First_ch     = const_cast<const char*>(reinterpret_cast<const volatile char*>(_First_ptr));
; 4768 :     const auto _Last_ch      = const_cast<const char*>(reinterpret_cast<const volatile char*>(_Last_ptr));
; 4769 :     const auto _Byte_count   = static_cast<size_t>(_Last_ch - _First_ch);
; 4770 :     return _STD _Copy_memmove_tail(_First_ch, _STD move(_Dest), _Byte_count, _Object_count);

  00010	50		 push	 eax
  00011	51		 push	 ecx
  00012	ff 75 10	 push	 DWORD PTR __Dest$[ebp]
  00015	52		 push	 edx
  00016	e8 00 00 00 00	 call	 ??$_Copy_memmove_tail@PAU__SPAWNINFO@CEventLua@@@std@@YAPAU__SPAWNINFO@CEventLua@@QBDQAU12@II@Z ; std::_Copy_memmove_tail<CEventLua::__SPAWNINFO *>
  0001b	83 c4 10	 add	 esp, 16			; 00000010H

; 4771 : }

  0001e	5d		 pop	 ebp
  0001f	c3		 ret	 0
??$_Copy_memmove@PAU__SPAWNINFO@CEventLua@@PAU12@@std@@YAPAU__SPAWNINFO@CEventLua@@PAU12@00@Z ENDP ; std::_Copy_memmove<CEventLua::__SPAWNINFO *,CEventLua::__SPAWNINFO *>
_TEXT	ENDS
; Function compile flags: /Ogtp
; File C:\Program Files\Microsoft Visual Studio\2022\Professional\VC\Tools\MSVC\14.44.35207\include\xutility
;	COMDAT ??$_Copy_memmove_tail@PAU__SPAWNINFO@CEventLua@@@std@@YAPAU__SPAWNINFO@CEventLua@@QBDQAU12@II@Z
_TEXT	SEGMENT
__First_ch$ = 8						; size = 4
__Dest$ = 12						; size = 4
__Byte_count$ = 16					; size = 4
__Object_count$ = 20					; size = 4
??$_Copy_memmove_tail@PAU__SPAWNINFO@CEventLua@@@std@@YAPAU__SPAWNINFO@CEventLua@@QBDQAU12@II@Z PROC ; std::_Copy_memmove_tail<CEventLua::__SPAWNINFO *>, COMDAT

; 4747 :     const char* const _First_ch, const _OutCtgIt _Dest, const size_t _Byte_count, const size_t _Object_count) {

  00000	55		 push	 ebp
  00001	8b ec		 mov	 ebp, esp
  00003	56		 push	 esi

; 4748 :     _STL_INTERNAL_CHECK(_Byte_count == _Object_count * sizeof(*_Dest));
; 4749 :     const auto _Dest_ptr = _STD _To_address(_Dest);
; 4750 :     const auto _Dest_ch  = const_cast<char*>(reinterpret_cast<const volatile char*>(_Dest_ptr));
; 4751 :     _CSTD memmove(_Dest_ch, _First_ch, _Byte_count);

  00004	8b 75 0c	 mov	 esi, DWORD PTR __Dest$[ebp]
  00007	57		 push	 edi
  00008	8b 7d 10	 mov	 edi, DWORD PTR __Byte_count$[ebp]
  0000b	57		 push	 edi
  0000c	ff 75 08	 push	 DWORD PTR __First_ch$[ebp]
  0000f	56		 push	 esi
  00010	e8 00 00 00 00	 call	 _memmove
  00015	83 c4 0c	 add	 esp, 12			; 0000000cH

; 4752 :     if constexpr (is_pointer_v<_OutCtgIt>) {
; 4753 :         (void) _Object_count;
; 4754 :         // CodeQL [SM02986] This cast is correct: we're bypassing pointer arithmetic for performance.
; 4755 :         return reinterpret_cast<_OutCtgIt>(_Dest_ch + _Byte_count);

  00018	8d 04 3e	 lea	 eax, DWORD PTR [esi+edi]
  0001b	5f		 pop	 edi
  0001c	5e		 pop	 esi

; 4756 :     } else {
; 4757 :         return _Dest + static_cast<_Iter_diff_t<_OutCtgIt>>(_Object_count);
; 4758 :     }
; 4759 : }

  0001d	5d		 pop	 ebp
  0001e	c3		 ret	 0
??$_Copy_memmove_tail@PAU__SPAWNINFO@CEventLua@@@std@@YAPAU__SPAWNINFO@CEventLua@@QBDQAU12@II@Z ENDP ; std::_Copy_memmove_tail<CEventLua::__SPAWNINFO *>
_TEXT	ENDS
; Function compile flags: /Ogtp
; File C:\Program Files\Microsoft Visual Studio\2022\Professional\VC\Tools\MSVC\14.44.35207\include\xmemory
;	COMDAT ??1?$_Alloc_construct_ptr@V?$allocator@U?$_Tree_node@U?$pair@$$CBEV?$vector@U__SPAWNINFO@CEventLua@@V?$allocator@U__SPAWNINFO@CEventLua@@@std@@@std@@@std@@PAX@std@@@std@@@std@@QAE@XZ
_TEXT	SEGMENT
??1?$_Alloc_construct_ptr@V?$allocator@U?$_Tree_node@U?$pair@$$CBEV?$vector@U__SPAWNINFO@CEventLua@@V?$allocator@U__SPAWNINFO@CEventLua@@@std@@@std@@@std@@PAX@std@@@std@@@std@@QAE@XZ PROC ; std::_Alloc_construct_ptr<std::allocator<std::_Tree_node<std::pair<unsigned char const ,std::vector<CEventLua::__SPAWNINFO,std::allocator<CEventLua::__SPAWNINFO> > >,void *> > >::~_Alloc_construct_ptr<std::allocator<std::_Tree_node<std::pair<unsigned char const ,std::vector<CEventLua::__SPAWNINFO,std::allocator<CEventLua::__SPAWNINFO> > >,void *> > >, COMDAT
; _this$ = ecx

; 1172 :         if (_Ptr) {

  00000	8b 41 04	 mov	 eax, DWORD PTR [ecx+4]
  00003	85 c0		 test	 eax, eax
  00005	74 0b		 je	 SHORT $LN10@Alloc_cons

; 289  :         ::operator delete(_Ptr, _Bytes);

  00007	6a 20		 push	 32			; 00000020H
  00009	50		 push	 eax
  0000a	e8 00 00 00 00	 call	 ??3@YAXPAXI@Z		; operator delete
  0000f	83 c4 08	 add	 esp, 8
$LN10@Alloc_cons:

; 1173 :             _Al.deallocate(_Ptr, 1);
; 1174 :         }
; 1175 :     }

  00012	c3		 ret	 0
??1?$_Alloc_construct_ptr@V?$allocator@U?$_Tree_node@U?$pair@$$CBEV?$vector@U__SPAWNINFO@CEventLua@@V?$allocator@U__SPAWNINFO@CEventLua@@@std@@@std@@@std@@PAX@std@@@std@@@std@@QAE@XZ ENDP ; std::_Alloc_construct_ptr<std::allocator<std::_Tree_node<std::pair<unsigned char const ,std::vector<CEventLua::__SPAWNINFO,std::allocator<CEventLua::__SPAWNINFO> > >,void *> > >::~_Alloc_construct_ptr<std::allocator<std::_Tree_node<std::pair<unsigned char const ,std::vector<CEventLua::__SPAWNINFO,std::allocator<CEventLua::__SPAWNINFO> > >,void *> > >
_TEXT	ENDS
; Function compile flags: /Ogtp
; File C:\Program Files\Microsoft Visual Studio\2022\Professional\VC\Tools\MSVC\14.44.35207\include\xmemory
;	COMDAT ??1?$_Alloc_construct_ptr@V?$allocator@U?$_Tree_node@U?$pair@$$CBKE@std@@PAX@std@@@std@@@std@@QAE@XZ
_TEXT	SEGMENT
??1?$_Alloc_construct_ptr@V?$allocator@U?$_Tree_node@U?$pair@$$CBKE@std@@PAX@std@@@std@@@std@@QAE@XZ PROC ; std::_Alloc_construct_ptr<std::allocator<std::_Tree_node<std::pair<unsigned long const ,unsigned char>,void *> > >::~_Alloc_construct_ptr<std::allocator<std::_Tree_node<std::pair<unsigned long const ,unsigned char>,void *> > >, COMDAT
; _this$ = ecx

; 1172 :         if (_Ptr) {

  00000	8b 41 04	 mov	 eax, DWORD PTR [ecx+4]
  00003	85 c0		 test	 eax, eax
  00005	74 0b		 je	 SHORT $LN10@Alloc_cons

; 289  :         ::operator delete(_Ptr, _Bytes);

  00007	6a 18		 push	 24			; 00000018H
  00009	50		 push	 eax
  0000a	e8 00 00 00 00	 call	 ??3@YAXPAXI@Z		; operator delete
  0000f	83 c4 08	 add	 esp, 8
$LN10@Alloc_cons:

; 1173 :             _Al.deallocate(_Ptr, 1);
; 1174 :         }
; 1175 :     }

  00012	c3		 ret	 0
??1?$_Alloc_construct_ptr@V?$allocator@U?$_Tree_node@U?$pair@$$CBKE@std@@PAX@std@@@std@@@std@@QAE@XZ ENDP ; std::_Alloc_construct_ptr<std::allocator<std::_Tree_node<std::pair<unsigned long const ,unsigned char>,void *> > >::~_Alloc_construct_ptr<std::allocator<std::_Tree_node<std::pair<unsigned long const ,unsigned char>,void *> > >
_TEXT	ENDS
; Function compile flags: /Ogtp
; File C:\Program Files\Microsoft Visual Studio\2022\Professional\VC\Tools\MSVC\14.44.35207\include\vector
; File C:\Program Files\Microsoft Visual Studio\2022\Professional\VC\Tools\MSVC\14.44.35207\include\xmemory
; File C:\Program Files\Microsoft Visual Studio\2022\Professional\VC\Tools\MSVC\14.44.35207\include\vector
; File C:\Program Files\Microsoft Visual Studio\2022\Professional\VC\Tools\MSVC\14.44.35207\include\xmemory
; File C:\Program Files\Microsoft Visual Studio\2022\Professional\VC\Tools\MSVC\14.44.35207\include\vector
; File C:\Program Files\Microsoft Visual Studio\2022\Professional\VC\Tools\MSVC\14.44.35207\include\xmemory
; File C:\Program Files\Microsoft Visual Studio\2022\Professional\VC\Tools\MSVC\14.44.35207\include\vector
; File C:\Program Files\Microsoft Visual Studio\2022\Professional\VC\Tools\MSVC\14.44.35207\include\xmemory
; File C:\Program Files\Microsoft Visual Studio\2022\Professional\VC\Tools\MSVC\14.44.35207\include\vector
; File C:\Program Files\Microsoft Visual Studio\2022\Professional\VC\Tools\MSVC\14.44.35207\include\xmemory
; File C:\Program Files\Microsoft Visual Studio\2022\Professional\VC\Tools\MSVC\14.44.35207\include\vector
; File C:\Program Files\Microsoft Visual Studio\2022\Professional\VC\Tools\MSVC\14.44.35207\include\xmemory
; File C:\Program Files\Microsoft Visual Studio\2022\Professional\VC\Tools\MSVC\14.44.35207\include\vector
; File C:\Program Files\Microsoft Visual Studio\2022\Professional\VC\Tools\MSVC\14.44.35207\include\xmemory
; File C:\Program Files\Microsoft Visual Studio\2022\Professional\VC\Tools\MSVC\14.44.35207\include\vector
; File C:\Program Files\Microsoft Visual Studio\2022\Professional\VC\Tools\MSVC\14.44.35207\include\xmemory
; File C:\Program Files\Microsoft Visual Studio\2022\Professional\VC\Tools\MSVC\14.44.35207\include\vector
;	COMDAT ??$_Emplace_reallocate@ABK@?$vector@KV?$allocator@K@std@@@std@@AAEPAKQAKABK@Z
_TEXT	SEGMENT
__Newsize$1$ = -12					; size = 4
tv652 = -8						; size = 4
tv650 = -4						; size = 4
__Whereptr$ = 8						; size = 4
_<_Val_0>$ = 12						; size = 4
??$_Emplace_reallocate@ABK@?$vector@KV?$allocator@K@std@@@std@@AAEPAKQAKABK@Z PROC ; std::vector<unsigned long,std::allocator<unsigned long> >::_Emplace_reallocate<unsigned long const &>, COMDAT
; _this$ = ecx

; 875  :     _CONSTEXPR20 pointer _Emplace_reallocate(const pointer _Whereptr, _Valty&&... _Val) {

  00000	55		 push	 ebp
  00001	8b ec		 mov	 ebp, esp
  00003	83 ec 0c	 sub	 esp, 12			; 0000000cH
  00006	53		 push	 ebx

; 876  :         // reallocate and insert by perfectly forwarding _Val at _Whereptr
; 877  :         _Alty& _Al        = _Getal();
; 878  :         auto& _My_data    = _Mypair._Myval2;
; 879  :         pointer& _Myfirst = _My_data._Myfirst;
; 880  :         pointer& _Mylast  = _My_data._Mylast;
; 881  : 
; 882  :         _STL_INTERNAL_CHECK(_Mylast == _My_data._Myend); // check that we have no unused capacity
; 883  : 
; 884  :         const auto _Whereoff = static_cast<size_type>(_Whereptr - _Myfirst);

  00007	8b 5d 08	 mov	 ebx, DWORD PTR __Whereptr$[ebp]
  0000a	56		 push	 esi
  0000b	8b f1		 mov	 esi, ecx
  0000d	57		 push	 edi
  0000e	8b 0e		 mov	 ecx, DWORD PTR [esi]
  00010	2b d9		 sub	 ebx, ecx

; 885  :         const auto _Oldsize  = static_cast<size_type>(_Mylast - _Myfirst);

  00012	8b 46 04	 mov	 eax, DWORD PTR [esi+4]
  00015	2b c1		 sub	 eax, ecx
  00017	c1 fb 02	 sar	 ebx, 2
  0001a	c1 f8 02	 sar	 eax, 2

; 886  : 
; 887  :         if (_Oldsize == max_size()) {

  0001d	3d ff ff ff 3f	 cmp	 eax, 1073741823		; 3fffffffH
  00022	0f 84 13 01 00
	00		 je	 $LN111@Emplace_re

; 1924 :         return static_cast<size_type>(_My_data._Myend - _My_data._Myfirst);

  00028	8b 56 08	 mov	 edx, DWORD PTR [esi+8]

; 889  :         }
; 890  : 
; 891  :         const size_type _Newsize = _Oldsize + 1;

  0002b	8d 78 01	 lea	 edi, DWORD PTR [eax+1]

; 1924 :         return static_cast<size_type>(_My_data._Myend - _My_data._Myfirst);

  0002e	2b d1		 sub	 edx, ecx

; 889  :         }
; 890  : 
; 891  :         const size_type _Newsize = _Oldsize + 1;

  00030	89 7d f4	 mov	 DWORD PTR __Newsize$1$[ebp], edi

; 1924 :         return static_cast<size_type>(_My_data._Myend - _My_data._Myfirst);

  00033	c1 fa 02	 sar	 edx, 2

; 2011 :         if (_Oldcapacity > _Max - _Oldcapacity / 2) {

  00036	b8 ff ff ff 3f	 mov	 eax, 1073741823		; 3fffffffH
  0003b	8b ca		 mov	 ecx, edx
  0003d	d1 e9		 shr	 ecx, 1
  0003f	2b c1		 sub	 eax, ecx
  00041	3b d0		 cmp	 edx, eax
  00043	76 14		 jbe	 SHORT $LN8@Emplace_re

; 2012 :             return _Max; // geometric growth would overflow

  00045	b8 fc ff ff ff	 mov	 eax, -4			; fffffffcH
  0004a	c7 45 f8 fc ff
	ff ff		 mov	 DWORD PTR tv652[ebp], -4 ; fffffffcH
; File C:\Program Files\Microsoft Visual Studio\2022\Professional\VC\Tools\MSVC\14.44.35207\include\xmemory

; 253  :             return _Allocate_manually_vector_aligned<_Traits>(_Bytes);

  00051	50		 push	 eax
  00052	e8 00 00 00 00	 call	 ??$_Allocate_manually_vector_aligned@U_Default_allocate_traits@std@@@std@@YAPAXI@Z ; std::_Allocate_manually_vector_aligned<std::_Default_allocate_traits>
  00057	eb 3d		 jmp	 SHORT $LN109@Emplace_re
$LN8@Emplace_re:
; File C:\Program Files\Microsoft Visual Studio\2022\Professional\VC\Tools\MSVC\14.44.35207\include\vector

; 2015 :         const size_type _Geometric = _Oldcapacity + _Oldcapacity / 2;

  00059	8d 04 11	 lea	 eax, DWORD PTR [ecx+edx]
; File C:\Program Files\Microsoft Visual Studio\2022\Professional\VC\Tools\MSVC\14.44.35207\include\xmemory

; 117  :         if (_Count > _Max_possible) {

  0005c	8b cf		 mov	 ecx, edi
  0005e	3b c7		 cmp	 eax, edi
  00060	0f 43 c8	 cmovae	 ecx, eax
  00063	81 f9 ff ff ff
	3f		 cmp	 ecx, 1073741823		; 3fffffffH
  00069	0f 87 d1 00 00
	00		 ja	 $LN112@Emplace_re

; 119  :         }
; 120  :     }
; 121  : 
; 122  :     return _Count * _Ty_size;

  0006f	8d 04 8d 00 00
	00 00		 lea	 eax, DWORD PTR [ecx*4]
  00076	89 45 f8	 mov	 DWORD PTR tv652[ebp], eax

; 227  :     if (_Bytes == 0) {

  00079	85 c0		 test	 eax, eax
  0007b	75 04		 jne	 SHORT $LN23@Emplace_re

; 228  :         return nullptr;

  0007d	33 ff		 xor	 edi, edi
  0007f	eb 1a		 jmp	 SHORT $LN22@Emplace_re
$LN23@Emplace_re:

; 229  :     }
; 230  : 
; 231  : #if _HAS_CXX20 // TRANSITION, GH-1532
; 232  :     if (_STD is_constant_evaluated()) {
; 233  :         return _Traits::_Allocate(_Bytes);
; 234  :     }
; 235  : #endif // _HAS_CXX20
; 236  : 
; 237  : #ifdef __cpp_aligned_new
; 238  :     if constexpr (_Align > __STDCPP_DEFAULT_NEW_ALIGNMENT__) {
; 239  :         size_t _Passed_align = _Align;
; 240  : #if defined(_M_IX86) || defined(_M_X64)
; 241  :         if (_Bytes >= _Big_allocation_threshold) {
; 242  :             // boost the alignment of big allocations to help autovectorization
; 243  :             _Passed_align = (_STD max)(_Align, _Big_allocation_alignment);
; 244  :         }
; 245  : #endif // defined(_M_IX86) || defined(_M_X64)
; 246  :         return _Traits::_Allocate_aligned(_Bytes, _Passed_align);
; 247  :     } else
; 248  : #endif // defined(__cpp_aligned_new)
; 249  :     {
; 250  : #if defined(_M_IX86) || defined(_M_X64)
; 251  :         if (_Bytes >= _Big_allocation_threshold) {

  00081	3d 00 10 00 00	 cmp	 eax, 4096		; 00001000H
  00086	72 08		 jb	 SHORT $LN24@Emplace_re

; 253  :             return _Allocate_manually_vector_aligned<_Traits>(_Bytes);

  00088	50		 push	 eax
  00089	e8 00 00 00 00	 call	 ??$_Allocate_manually_vector_aligned@U_Default_allocate_traits@std@@@std@@YAPAXI@Z ; std::_Allocate_manually_vector_aligned<std::_Default_allocate_traits>
  0008e	eb 06		 jmp	 SHORT $LN109@Emplace_re
$LN24@Emplace_re:

; 136  :         return ::operator new(_Bytes);

  00090	50		 push	 eax
  00091	e8 00 00 00 00	 call	 ??2@YAPAXI@Z		; operator new
$LN109@Emplace_re:
; File C:\Program Files\Microsoft Visual Studio\2022\Professional\VC\Tools\MSVC\14.44.35207\include\vector

; 900  :         _Alty_traits::construct(_Al, _STD _Unfancy(_Newvec + _Whereoff), _STD forward<_Valty>(_Val)...);

  00096	8b f8		 mov	 edi, eax
  00098	83 c4 04	 add	 esp, 4
$LN22@Emplace_re:
  0009b	8b 45 0c	 mov	 eax, DWORD PTR _<_Val_0>$[ebp]
  0009e	8d 0c 9f	 lea	 ecx, DWORD PTR [edi+ebx*4]

; 901  :         _Constructed_first = _Newvec + _Whereoff;
; 902  : 
; 903  :         if (_Whereptr == _Mylast) { // at back, provide strong guarantee

  000a1	8b 5d 08	 mov	 ebx, DWORD PTR __Whereptr$[ebp]
  000a4	89 4d fc	 mov	 DWORD PTR tv650[ebp], ecx
  000a7	8b 00		 mov	 eax, DWORD PTR [eax]
  000a9	89 01		 mov	 DWORD PTR [ecx], eax
  000ab	8b 46 04	 mov	 eax, DWORD PTR [esi+4]
  000ae	8b 0e		 mov	 ecx, DWORD PTR [esi]
  000b0	3b d8		 cmp	 ebx, eax
  000b2	75 07		 jne	 SHORT $LN3@Emplace_re

; 909  :         } else { // provide basic guarantee

  000b4	8b 5d fc	 mov	 ebx, DWORD PTR tv650[ebp]
; File C:\Program Files\Microsoft Visual Studio\2022\Professional\VC\Tools\MSVC\14.44.35207\include\xmemory

; 1992 :             _STD _Copy_memmove(_UFirst, _ULast, _STD _Unfancy(_Dest));

  000b7	8b d7		 mov	 edx, edi
; File C:\Program Files\Microsoft Visual Studio\2022\Professional\VC\Tools\MSVC\14.44.35207\include\vector

; 909  :         } else { // provide basic guarantee

  000b9	eb 16		 jmp	 SHORT $LN52@Emplace_re
$LN3@Emplace_re:
; File C:\Program Files\Microsoft Visual Studio\2022\Professional\VC\Tools\MSVC\14.44.35207\include\xmemory

; 1992 :             _STD _Copy_memmove(_UFirst, _ULast, _STD _Unfancy(_Dest));

  000bb	57		 push	 edi
  000bc	53		 push	 ebx
  000bd	51		 push	 ecx
  000be	e8 00 00 00 00	 call	 ??$_Copy_memmove@PAKPAK@std@@YAPAKPAK00@Z ; std::_Copy_memmove<unsigned long *,unsigned long *>
  000c3	8b 46 04	 mov	 eax, DWORD PTR [esi+4]
  000c6	8b cb		 mov	 ecx, ebx
; File C:\Program Files\Microsoft Visual Studio\2022\Professional\VC\Tools\MSVC\14.44.35207\include\vector

; 912  :             _STD _Uninitialized_move(_Whereptr, _Mylast, _Newvec + _Whereoff + 1, _Al);

  000c8	8b 5d fc	 mov	 ebx, DWORD PTR tv650[ebp]
; File C:\Program Files\Microsoft Visual Studio\2022\Professional\VC\Tools\MSVC\14.44.35207\include\xmemory

; 1992 :             _STD _Copy_memmove(_UFirst, _ULast, _STD _Unfancy(_Dest));

  000cb	83 c4 0c	 add	 esp, 12			; 0000000cH
; File C:\Program Files\Microsoft Visual Studio\2022\Professional\VC\Tools\MSVC\14.44.35207\include\vector

; 912  :             _STD _Uninitialized_move(_Whereptr, _Mylast, _Newvec + _Whereoff + 1, _Al);

  000ce	8d 53 04	 lea	 edx, DWORD PTR [ebx+4]
$LN52@Emplace_re:

; 913  :         }
; 914  : 
; 915  :         _Guard._New_begin = nullptr;

  000d1	52		 push	 edx
  000d2	50		 push	 eax
  000d3	51		 push	 ecx
  000d4	e8 00 00 00 00	 call	 ??$_Copy_memmove@PAKPAK@std@@YAPAKPAK00@Z ; std::_Copy_memmove<unsigned long *,unsigned long *>

; 2069 :         if (_Myfirst) { // destroy and deallocate old array

  000d9	8b 06		 mov	 eax, DWORD PTR [esi]

; 913  :         }
; 914  : 
; 915  :         _Guard._New_begin = nullptr;

  000db	83 c4 0c	 add	 esp, 12			; 0000000cH

; 2069 :         if (_Myfirst) { // destroy and deallocate old array

  000de	85 c0		 test	 eax, eax
  000e0	74 2c		 je	 SHORT $LN72@Emplace_re

; 2070 :             _STD _Destroy_range(_Myfirst, _Mylast, _Al);
; 2071 :             _ASAN_VECTOR_REMOVE;
; 2072 :             _Al.deallocate(_Myfirst, static_cast<size_type>(_Myend - _Myfirst));

  000e2	8b 4e 08	 mov	 ecx, DWORD PTR [esi+8]
  000e5	2b c8		 sub	 ecx, eax
; File C:\Program Files\Microsoft Visual Studio\2022\Professional\VC\Tools\MSVC\14.44.35207\include\xmemory

; 985  :         _STD _Deallocate<_New_alignof<_Ty>>(_Ptr, sizeof(_Ty) * _Count);

  000e7	83 e1 fc	 and	 ecx, -4			; fffffffcH

; 284  :         if (_Bytes >= _Big_allocation_threshold) {

  000ea	81 f9 00 10 00
	00		 cmp	 ecx, 4096		; 00001000H
  000f0	72 12		 jb	 SHORT $LN77@Emplace_re

; 205  :     const uintptr_t _Ptr_container   = _Ptr_user[-1];

  000f2	8b 50 fc	 mov	 edx, DWORD PTR [eax-4]
  000f5	83 c1 23	 add	 ecx, 35			; 00000023H

; 206  : 
; 207  :     // If the following asserts, it likely means that we are performing
; 208  :     // an aligned delete on memory coming from an unaligned allocation.
; 209  :     _STL_ASSERT(_Ptr_user[-2] == _Big_allocation_sentinel, "invalid argument");
; 210  : 
; 211  :     // Extra paranoia on aligned allocation/deallocation; ensure _Ptr_container is
; 212  :     // in range [_Min_back_shift, _Non_user_size]
; 213  : #ifdef _DEBUG
; 214  :     constexpr uintptr_t _Min_back_shift = 2 * sizeof(void*);
; 215  : #else // ^^^ defined(_DEBUG) / !defined(_DEBUG) vvv
; 216  :     constexpr uintptr_t _Min_back_shift = sizeof(void*);
; 217  : #endif // ^^^ !defined(_DEBUG) ^^^
; 218  :     const uintptr_t _Back_shift = reinterpret_cast<uintptr_t>(_Ptr) - _Ptr_container;

  000f8	2b c2		 sub	 eax, edx

; 219  :     _STL_VERIFY(_Back_shift >= _Min_back_shift && _Back_shift <= _Non_user_size, "invalid argument");

  000fa	83 c0 fc	 add	 eax, -4			; fffffffcH
  000fd	83 f8 1f	 cmp	 eax, 31			; 0000001fH
  00100	77 2a		 ja	 SHORT $LN76@Emplace_re

; 220  :     _Ptr = reinterpret_cast<void*>(_Ptr_container);

  00102	8b c2		 mov	 eax, edx
$LN77@Emplace_re:

; 289  :         ::operator delete(_Ptr, _Bytes);

  00104	51		 push	 ecx
  00105	50		 push	 eax
  00106	e8 00 00 00 00	 call	 ??3@YAXPAXI@Z		; operator delete
  0010b	83 c4 08	 add	 esp, 8
$LN72@Emplace_re:
; File C:\Program Files\Microsoft Visual Studio\2022\Professional\VC\Tools\MSVC\14.44.35207\include\vector

; 2076 :         _Mylast  = _Newvec + _Newsize;

  0010e	8b 45 f4	 mov	 eax, DWORD PTR __Newsize$1$[ebp]
  00111	89 3e		 mov	 DWORD PTR [esi], edi
  00113	8d 0c 87	 lea	 ecx, DWORD PTR [edi+eax*4]

; 916  :         _Change_array(_Newvec, _Newsize, _Newcapacity);
; 917  :         return _Newvec + _Whereoff;

  00116	8b c3		 mov	 eax, ebx

; 2076 :         _Mylast  = _Newvec + _Newsize;

  00118	89 4e 04	 mov	 DWORD PTR [esi+4], ecx

; 2077 :         _Myend   = _Newvec + _Newcapacity;

  0011b	8b 4d f8	 mov	 ecx, DWORD PTR tv652[ebp]
  0011e	03 cf		 add	 ecx, edi

; 918  :     }

  00120	5f		 pop	 edi

; 2077 :         _Myend   = _Newvec + _Newcapacity;

  00121	89 4e 08	 mov	 DWORD PTR [esi+8], ecx

; 918  :     }

  00124	5e		 pop	 esi
  00125	5b		 pop	 ebx
  00126	8b e5		 mov	 esp, ebp
  00128	5d		 pop	 ebp
  00129	c2 08 00	 ret	 8
$LN76@Emplace_re:
; File C:\Program Files\Microsoft Visual Studio\2022\Professional\VC\Tools\MSVC\14.44.35207\include\xmemory

; 219  :     _STL_VERIFY(_Back_shift >= _Min_back_shift && _Back_shift <= _Non_user_size, "invalid argument");

  0012c	6a 00		 push	 0
  0012e	6a 00		 push	 0
  00130	6a 00		 push	 0
  00132	6a 00		 push	 0
  00134	6a 00		 push	 0
  00136	e8 00 00 00 00	 call	 __invoke_watson
$LN111@Emplace_re:
; File C:\Program Files\Microsoft Visual Studio\2022\Professional\VC\Tools\MSVC\14.44.35207\include\vector

; 888  :             _Xlength();

  0013b	e8 00 00 00 00	 call	 ?_Xlength@?$vector@KV?$allocator@K@std@@@std@@CAXXZ ; std::vector<unsigned long,std::allocator<unsigned long> >::_Xlength
$LN112@Emplace_re:
; File C:\Program Files\Microsoft Visual Studio\2022\Professional\VC\Tools\MSVC\14.44.35207\include\xmemory

; 118  :             _Throw_bad_array_new_length(); // multiply overflow

  00140	e8 00 00 00 00	 call	 ?_Throw_bad_array_new_length@std@@YAXXZ ; std::_Throw_bad_array_new_length
$LN108@Emplace_re:
  00145	cc		 int	 3
??$_Emplace_reallocate@ABK@?$vector@KV?$allocator@K@std@@@std@@AAEPAKQAKABK@Z ENDP ; std::vector<unsigned long,std::allocator<unsigned long> >::_Emplace_reallocate<unsigned long const &>
_TEXT	ENDS
; Function compile flags: /Ogtp
; File C:\Program Files\Microsoft Visual Studio\2022\Professional\VC\Tools\MSVC\14.44.35207\include\vector
; File C:\Program Files\Microsoft Visual Studio\2022\Professional\VC\Tools\MSVC\14.44.35207\include\xmemory
; File C:\Program Files\Microsoft Visual Studio\2022\Professional\VC\Tools\MSVC\14.44.35207\include\vector
; File C:\Program Files\Microsoft Visual Studio\2022\Professional\VC\Tools\MSVC\14.44.35207\include\xmemory
; File C:\Program Files\Microsoft Visual Studio\2022\Professional\VC\Tools\MSVC\14.44.35207\include\vector
; File C:\Program Files\Microsoft Visual Studio\2022\Professional\VC\Tools\MSVC\14.44.35207\include\xmemory
; File C:\Program Files\Microsoft Visual Studio\2022\Professional\VC\Tools\MSVC\14.44.35207\include\vector
; File C:\Program Files\Microsoft Visual Studio\2022\Professional\VC\Tools\MSVC\14.44.35207\include\xmemory
; File C:\Program Files\Microsoft Visual Studio\2022\Professional\VC\Tools\MSVC\14.44.35207\include\vector
; File C:\Program Files\Microsoft Visual Studio\2022\Professional\VC\Tools\MSVC\14.44.35207\include\xmemory
; File C:\Program Files\Microsoft Visual Studio\2022\Professional\VC\Tools\MSVC\14.44.35207\include\vector
; File C:\Program Files\Microsoft Visual Studio\2022\Professional\VC\Tools\MSVC\14.44.35207\include\xmemory
; File C:\Program Files\Microsoft Visual Studio\2022\Professional\VC\Tools\MSVC\14.44.35207\include\vector
; File C:\Program Files\Microsoft Visual Studio\2022\Professional\VC\Tools\MSVC\14.44.35207\include\xmemory
; File C:\Program Files\Microsoft Visual Studio\2022\Professional\VC\Tools\MSVC\14.44.35207\include\vector
; File C:\Program Files\Microsoft Visual Studio\2022\Professional\VC\Tools\MSVC\14.44.35207\include\xmemory
; File C:\Program Files\Microsoft Visual Studio\2022\Professional\VC\Tools\MSVC\14.44.35207\include\vector
; File C:\Program Files\Microsoft Visual Studio\2022\Professional\VC\Tools\MSVC\14.44.35207\include\xmemory
; File C:\Program Files\Microsoft Visual Studio\2022\Professional\VC\Tools\MSVC\14.44.35207\include\vector
; File C:\Program Files\Microsoft Visual Studio\2022\Professional\VC\Tools\MSVC\14.44.35207\include\xmemory
; File C:\Program Files\Microsoft Visual Studio\2022\Professional\VC\Tools\MSVC\14.44.35207\include\vector
;	COMDAT ??$_Emplace_reallocate@U__SPAWNINFO@CEventLua@@@?$vector@U__SPAWNINFO@CEventLua@@V?$allocator@U__SPAWNINFO@CEventLua@@@std@@@std@@AAEPAU__SPAWNINFO@CEventLua@@QAU23@$$QAU23@@Z
_TEXT	SEGMENT
__Newsize$1$ = -12					; size = 4
$T1 = -8						; size = 4
tv710 = -4						; size = 4
__Whereptr$ = 8						; size = 4
_<_Val_0>$ = 12						; size = 4
??$_Emplace_reallocate@U__SPAWNINFO@CEventLua@@@?$vector@U__SPAWNINFO@CEventLua@@V?$allocator@U__SPAWNINFO@CEventLua@@@std@@@std@@AAEPAU__SPAWNINFO@CEventLua@@QAU23@$$QAU23@@Z PROC ; std::vector<CEventLua::__SPAWNINFO,std::allocator<CEventLua::__SPAWNINFO> >::_Emplace_reallocate<CEventLua::__SPAWNINFO>, COMDAT
; _this$ = ecx

; 875  :     _CONSTEXPR20 pointer _Emplace_reallocate(const pointer _Whereptr, _Valty&&... _Val) {

  00000	55		 push	 ebp
  00001	8b ec		 mov	 ebp, esp
  00003	83 ec 0c	 sub	 esp, 12			; 0000000cH
  00006	53		 push	 ebx

; 876  :         // reallocate and insert by perfectly forwarding _Val at _Whereptr
; 877  :         _Alty& _Al        = _Getal();
; 878  :         auto& _My_data    = _Mypair._Myval2;
; 879  :         pointer& _Myfirst = _My_data._Myfirst;
; 880  :         pointer& _Mylast  = _My_data._Mylast;
; 881  : 
; 882  :         _STL_INTERNAL_CHECK(_Mylast == _My_data._Myend); // check that we have no unused capacity
; 883  : 
; 884  :         const auto _Whereoff = static_cast<size_type>(_Whereptr - _Myfirst);

  00007	8b 5d 08	 mov	 ebx, DWORD PTR __Whereptr$[ebp]
  0000a	56		 push	 esi
  0000b	8b f1		 mov	 esi, ecx
  0000d	57		 push	 edi
  0000e	8b 0e		 mov	 ecx, DWORD PTR [esi]
  00010	2b d9		 sub	 ebx, ecx

; 885  :         const auto _Oldsize  = static_cast<size_type>(_Mylast - _Myfirst);

  00012	8b 46 04	 mov	 eax, DWORD PTR [esi+4]
  00015	2b c1		 sub	 eax, ecx
  00017	c1 f8 04	 sar	 eax, 4

; 886  : 
; 887  :         if (_Oldsize == max_size()) {

  0001a	3d ff ff ff 0f	 cmp	 eax, 268435455		; 0fffffffH
  0001f	0f 84 18 01 00
	00		 je	 $LN119@Emplace_re

; 1924 :         return static_cast<size_type>(_My_data._Myend - _My_data._Myfirst);

  00025	8b 7e 08	 mov	 edi, DWORD PTR [esi+8]

; 889  :         }
; 890  : 
; 891  :         const size_type _Newsize = _Oldsize + 1;

  00028	8d 50 01	 lea	 edx, DWORD PTR [eax+1]

; 1924 :         return static_cast<size_type>(_My_data._Myend - _My_data._Myfirst);

  0002b	2b f9		 sub	 edi, ecx

; 889  :         }
; 890  : 
; 891  :         const size_type _Newsize = _Oldsize + 1;

  0002d	89 55 f4	 mov	 DWORD PTR __Newsize$1$[ebp], edx

; 1924 :         return static_cast<size_type>(_My_data._Myend - _My_data._Myfirst);

  00030	c1 ff 04	 sar	 edi, 4

; 2011 :         if (_Oldcapacity > _Max - _Oldcapacity / 2) {

  00033	b8 ff ff ff 0f	 mov	 eax, 268435455		; 0fffffffH
  00038	8b cf		 mov	 ecx, edi
  0003a	d1 e9		 shr	 ecx, 1
  0003c	2b c1		 sub	 eax, ecx
  0003e	3b f8		 cmp	 edi, eax
  00040	76 14		 jbe	 SHORT $LN8@Emplace_re

; 2012 :             return _Max; // geometric growth would overflow

  00042	b8 f0 ff ff ff	 mov	 eax, -16		; fffffff0H
  00047	c7 45 f8 f0 ff
	ff ff		 mov	 DWORD PTR $T1[ebp], -16	; fffffff0H
; File C:\Program Files\Microsoft Visual Studio\2022\Professional\VC\Tools\MSVC\14.44.35207\include\xmemory

; 253  :             return _Allocate_manually_vector_aligned<_Traits>(_Bytes);

  0004e	50		 push	 eax
  0004f	e8 00 00 00 00	 call	 ??$_Allocate_manually_vector_aligned@U_Default_allocate_traits@std@@@std@@YAPAXI@Z ; std::_Allocate_manually_vector_aligned<std::_Default_allocate_traits>
  00054	eb 3b		 jmp	 SHORT $LN117@Emplace_re
$LN8@Emplace_re:
; File C:\Program Files\Microsoft Visual Studio\2022\Professional\VC\Tools\MSVC\14.44.35207\include\vector

; 2015 :         const size_type _Geometric = _Oldcapacity + _Oldcapacity / 2;

  00056	8d 04 39	 lea	 eax, DWORD PTR [ecx+edi]
; File C:\Program Files\Microsoft Visual Studio\2022\Professional\VC\Tools\MSVC\14.44.35207\include\xmemory

; 117  :         if (_Count > _Max_possible) {

  00059	8b ca		 mov	 ecx, edx
  0005b	3b c2		 cmp	 eax, edx
  0005d	0f 43 c8	 cmovae	 ecx, eax
  00060	81 f9 ff ff ff
	0f		 cmp	 ecx, 268435455		; 0fffffffH
  00066	0f 87 d6 00 00
	00		 ja	 $LN120@Emplace_re

; 119  :         }
; 120  :     }
; 121  : 
; 122  :     return _Count * _Ty_size;

  0006c	c1 e1 04	 shl	 ecx, 4

; 990  :         return static_cast<_Ty*>(_STD _Allocate<_New_alignof<_Ty>>(_Get_size_of_n<sizeof(_Ty)>(_Count)));

  0006f	8b c1		 mov	 eax, ecx

; 122  :     return _Count * _Ty_size;

  00071	89 4d f8	 mov	 DWORD PTR $T1[ebp], ecx

; 227  :     if (_Bytes == 0) {

  00074	85 c0		 test	 eax, eax
  00076	75 04		 jne	 SHORT $LN23@Emplace_re

; 228  :         return nullptr;

  00078	33 ff		 xor	 edi, edi
  0007a	eb 1a		 jmp	 SHORT $LN22@Emplace_re
$LN23@Emplace_re:

; 229  :     }
; 230  : 
; 231  : #if _HAS_CXX20 // TRANSITION, GH-1532
; 232  :     if (_STD is_constant_evaluated()) {
; 233  :         return _Traits::_Allocate(_Bytes);
; 234  :     }
; 235  : #endif // _HAS_CXX20
; 236  : 
; 237  : #ifdef __cpp_aligned_new
; 238  :     if constexpr (_Align > __STDCPP_DEFAULT_NEW_ALIGNMENT__) {
; 239  :         size_t _Passed_align = _Align;
; 240  : #if defined(_M_IX86) || defined(_M_X64)
; 241  :         if (_Bytes >= _Big_allocation_threshold) {
; 242  :             // boost the alignment of big allocations to help autovectorization
; 243  :             _Passed_align = (_STD max)(_Align, _Big_allocation_alignment);
; 244  :         }
; 245  : #endif // defined(_M_IX86) || defined(_M_X64)
; 246  :         return _Traits::_Allocate_aligned(_Bytes, _Passed_align);
; 247  :     } else
; 248  : #endif // defined(__cpp_aligned_new)
; 249  :     {
; 250  : #if defined(_M_IX86) || defined(_M_X64)
; 251  :         if (_Bytes >= _Big_allocation_threshold) {

  0007c	3d 00 10 00 00	 cmp	 eax, 4096		; 00001000H
  00081	72 08		 jb	 SHORT $LN24@Emplace_re

; 253  :             return _Allocate_manually_vector_aligned<_Traits>(_Bytes);

  00083	50		 push	 eax
  00084	e8 00 00 00 00	 call	 ??$_Allocate_manually_vector_aligned@U_Default_allocate_traits@std@@@std@@YAPAXI@Z ; std::_Allocate_manually_vector_aligned<std::_Default_allocate_traits>
  00089	eb 06		 jmp	 SHORT $LN117@Emplace_re
$LN24@Emplace_re:

; 136  :         return ::operator new(_Bytes);

  0008b	50		 push	 eax
  0008c	e8 00 00 00 00	 call	 ??2@YAPAXI@Z		; operator new
$LN117@Emplace_re:
; File C:\Program Files\Microsoft Visual Studio\2022\Professional\VC\Tools\MSVC\14.44.35207\include\vector

; 900  :         _Alty_traits::construct(_Al, _STD _Unfancy(_Newvec + _Whereoff), _STD forward<_Valty>(_Val)...);

  00091	8b f8		 mov	 edi, eax
  00093	83 c4 04	 add	 esp, 4
$LN22@Emplace_re:
; File C:\Program Files\Microsoft Visual Studio\2022\Professional\VC\Tools\MSVC\14.44.35207\include\xmemory

; 732  :         ::new (const_cast<void*>(static_cast<const volatile void*>(_Ptr))) _Objty(_STD forward<_Types>(_Args)...);

  00096	8b 45 0c	 mov	 eax, DWORD PTR _<_Val_0>$[ebp]
; File C:\Program Files\Microsoft Visual Studio\2022\Professional\VC\Tools\MSVC\14.44.35207\include\vector

; 900  :         _Alty_traits::construct(_Al, _STD _Unfancy(_Newvec + _Whereoff), _STD forward<_Valty>(_Val)...);

  00099	83 e3 f0	 and	 ebx, -16		; fffffff0H
  0009c	8d 0c 3b	 lea	 ecx, DWORD PTR [ebx+edi]

; 903  :         if (_Whereptr == _Mylast) { // at back, provide strong guarantee

  0009f	8b 5d 08	 mov	 ebx, DWORD PTR __Whereptr$[ebp]
  000a2	89 4d fc	 mov	 DWORD PTR tv710[ebp], ecx
; File C:\Program Files\Microsoft Visual Studio\2022\Professional\VC\Tools\MSVC\14.44.35207\include\xmemory

; 732  :         ::new (const_cast<void*>(static_cast<const volatile void*>(_Ptr))) _Objty(_STD forward<_Types>(_Args)...);

  000a5	0f 10 00	 movups	 xmm0, XMMWORD PTR [eax]
  000a8	0f 11 01	 movups	 XMMWORD PTR [ecx], xmm0
; File C:\Program Files\Microsoft Visual Studio\2022\Professional\VC\Tools\MSVC\14.44.35207\include\vector

; 903  :         if (_Whereptr == _Mylast) { // at back, provide strong guarantee

  000ab	8b 4e 04	 mov	 ecx, DWORD PTR [esi+4]
  000ae	8b 06		 mov	 eax, DWORD PTR [esi]
  000b0	3b d9		 cmp	 ebx, ecx
  000b2	75 07		 jne	 SHORT $LN3@Emplace_re

; 909  :         } else { // provide basic guarantee

  000b4	8b 5d fc	 mov	 ebx, DWORD PTR tv710[ebp]
; File C:\Program Files\Microsoft Visual Studio\2022\Professional\VC\Tools\MSVC\14.44.35207\include\xmemory

; 1992 :             _STD _Copy_memmove(_UFirst, _ULast, _STD _Unfancy(_Dest));

  000b7	8b d7		 mov	 edx, edi
; File C:\Program Files\Microsoft Visual Studio\2022\Professional\VC\Tools\MSVC\14.44.35207\include\vector

; 909  :         } else { // provide basic guarantee

  000b9	eb 16		 jmp	 SHORT $LN58@Emplace_re
$LN3@Emplace_re:
; File C:\Program Files\Microsoft Visual Studio\2022\Professional\VC\Tools\MSVC\14.44.35207\include\xmemory

; 1992 :             _STD _Copy_memmove(_UFirst, _ULast, _STD _Unfancy(_Dest));

  000bb	57		 push	 edi
  000bc	53		 push	 ebx
  000bd	50		 push	 eax
  000be	e8 00 00 00 00	 call	 ??$_Copy_memmove@PAU__SPAWNINFO@CEventLua@@PAU12@@std@@YAPAU__SPAWNINFO@CEventLua@@PAU12@00@Z ; std::_Copy_memmove<CEventLua::__SPAWNINFO *,CEventLua::__SPAWNINFO *>
  000c3	8b 4e 04	 mov	 ecx, DWORD PTR [esi+4]
  000c6	8b c3		 mov	 eax, ebx
; File C:\Program Files\Microsoft Visual Studio\2022\Professional\VC\Tools\MSVC\14.44.35207\include\vector

; 912  :             _STD _Uninitialized_move(_Whereptr, _Mylast, _Newvec + _Whereoff + 1, _Al);

  000c8	8b 5d fc	 mov	 ebx, DWORD PTR tv710[ebp]
; File C:\Program Files\Microsoft Visual Studio\2022\Professional\VC\Tools\MSVC\14.44.35207\include\xmemory

; 1992 :             _STD _Copy_memmove(_UFirst, _ULast, _STD _Unfancy(_Dest));

  000cb	83 c4 0c	 add	 esp, 12			; 0000000cH
; File C:\Program Files\Microsoft Visual Studio\2022\Professional\VC\Tools\MSVC\14.44.35207\include\vector

; 912  :             _STD _Uninitialized_move(_Whereptr, _Mylast, _Newvec + _Whereoff + 1, _Al);

  000ce	8d 53 10	 lea	 edx, DWORD PTR [ebx+16]
$LN58@Emplace_re:

; 913  :         }
; 914  : 
; 915  :         _Guard._New_begin = nullptr;

  000d1	52		 push	 edx
  000d2	51		 push	 ecx
  000d3	50		 push	 eax
  000d4	e8 00 00 00 00	 call	 ??$_Copy_memmove@PAU__SPAWNINFO@CEventLua@@PAU12@@std@@YAPAU__SPAWNINFO@CEventLua@@PAU12@00@Z ; std::_Copy_memmove<CEventLua::__SPAWNINFO *,CEventLua::__SPAWNINFO *>

; 2069 :         if (_Myfirst) { // destroy and deallocate old array

  000d9	8b 06		 mov	 eax, DWORD PTR [esi]

; 913  :         }
; 914  : 
; 915  :         _Guard._New_begin = nullptr;

  000db	83 c4 0c	 add	 esp, 12			; 0000000cH

; 2069 :         if (_Myfirst) { // destroy and deallocate old array

  000de	85 c0		 test	 eax, eax
  000e0	74 2c		 je	 SHORT $LN80@Emplace_re

; 2070 :             _STD _Destroy_range(_Myfirst, _Mylast, _Al);
; 2071 :             _ASAN_VECTOR_REMOVE;
; 2072 :             _Al.deallocate(_Myfirst, static_cast<size_type>(_Myend - _Myfirst));

  000e2	8b 4e 08	 mov	 ecx, DWORD PTR [esi+8]
  000e5	2b c8		 sub	 ecx, eax
; File C:\Program Files\Microsoft Visual Studio\2022\Professional\VC\Tools\MSVC\14.44.35207\include\xmemory

; 985  :         _STD _Deallocate<_New_alignof<_Ty>>(_Ptr, sizeof(_Ty) * _Count);

  000e7	83 e1 f0	 and	 ecx, -16		; fffffff0H

; 284  :         if (_Bytes >= _Big_allocation_threshold) {

  000ea	81 f9 00 10 00
	00		 cmp	 ecx, 4096		; 00001000H
  000f0	72 12		 jb	 SHORT $LN85@Emplace_re

; 205  :     const uintptr_t _Ptr_container   = _Ptr_user[-1];

  000f2	8b 50 fc	 mov	 edx, DWORD PTR [eax-4]
  000f5	83 c1 23	 add	 ecx, 35			; 00000023H

; 206  : 
; 207  :     // If the following asserts, it likely means that we are performing
; 208  :     // an aligned delete on memory coming from an unaligned allocation.
; 209  :     _STL_ASSERT(_Ptr_user[-2] == _Big_allocation_sentinel, "invalid argument");
; 210  : 
; 211  :     // Extra paranoia on aligned allocation/deallocation; ensure _Ptr_container is
; 212  :     // in range [_Min_back_shift, _Non_user_size]
; 213  : #ifdef _DEBUG
; 214  :     constexpr uintptr_t _Min_back_shift = 2 * sizeof(void*);
; 215  : #else // ^^^ defined(_DEBUG) / !defined(_DEBUG) vvv
; 216  :     constexpr uintptr_t _Min_back_shift = sizeof(void*);
; 217  : #endif // ^^^ !defined(_DEBUG) ^^^
; 218  :     const uintptr_t _Back_shift = reinterpret_cast<uintptr_t>(_Ptr) - _Ptr_container;

  000f8	2b c2		 sub	 eax, edx

; 219  :     _STL_VERIFY(_Back_shift >= _Min_back_shift && _Back_shift <= _Non_user_size, "invalid argument");

  000fa	83 c0 fc	 add	 eax, -4			; fffffffcH
  000fd	83 f8 1f	 cmp	 eax, 31			; 0000001fH
  00100	77 2c		 ja	 SHORT $LN84@Emplace_re

; 220  :     _Ptr = reinterpret_cast<void*>(_Ptr_container);

  00102	8b c2		 mov	 eax, edx
$LN85@Emplace_re:

; 289  :         ::operator delete(_Ptr, _Bytes);

  00104	51		 push	 ecx
  00105	50		 push	 eax
  00106	e8 00 00 00 00	 call	 ??3@YAXPAXI@Z		; operator delete
  0010b	83 c4 08	 add	 esp, 8
$LN80@Emplace_re:
; File C:\Program Files\Microsoft Visual Studio\2022\Professional\VC\Tools\MSVC\14.44.35207\include\vector

; 2076 :         _Mylast  = _Newvec + _Newsize;

  0010e	8b 45 f4	 mov	 eax, DWORD PTR __Newsize$1$[ebp]

; 2077 :         _Myend   = _Newvec + _Newcapacity;

  00111	8b 4d f8	 mov	 ecx, DWORD PTR $T1[ebp]
  00114	c1 e0 04	 shl	 eax, 4
  00117	03 c7		 add	 eax, edi
  00119	89 3e		 mov	 DWORD PTR [esi], edi
  0011b	89 46 04	 mov	 DWORD PTR [esi+4], eax
  0011e	03 cf		 add	 ecx, edi

; 918  :     }

  00120	5f		 pop	 edi

; 2077 :         _Myend   = _Newvec + _Newcapacity;

  00121	89 4e 08	 mov	 DWORD PTR [esi+8], ecx

; 916  :         _Change_array(_Newvec, _Newsize, _Newcapacity);
; 917  :         return _Newvec + _Whereoff;

  00124	8b c3		 mov	 eax, ebx

; 918  :     }

  00126	5e		 pop	 esi
  00127	5b		 pop	 ebx
  00128	8b e5		 mov	 esp, ebp
  0012a	5d		 pop	 ebp
  0012b	c2 08 00	 ret	 8
$LN84@Emplace_re:
; File C:\Program Files\Microsoft Visual Studio\2022\Professional\VC\Tools\MSVC\14.44.35207\include\xmemory

; 219  :     _STL_VERIFY(_Back_shift >= _Min_back_shift && _Back_shift <= _Non_user_size, "invalid argument");

  0012e	6a 00		 push	 0
  00130	6a 00		 push	 0
  00132	6a 00		 push	 0
  00134	6a 00		 push	 0
  00136	6a 00		 push	 0
  00138	e8 00 00 00 00	 call	 __invoke_watson
$LN119@Emplace_re:
; File C:\Program Files\Microsoft Visual Studio\2022\Professional\VC\Tools\MSVC\14.44.35207\include\vector

; 888  :             _Xlength();

  0013d	e8 00 00 00 00	 call	 ?_Xlength@?$vector@U__SPAWNINFO@CEventLua@@V?$allocator@U__SPAWNINFO@CEventLua@@@std@@@std@@CAXXZ ; std::vector<CEventLua::__SPAWNINFO,std::allocator<CEventLua::__SPAWNINFO> >::_Xlength
$LN120@Emplace_re:
; File C:\Program Files\Microsoft Visual Studio\2022\Professional\VC\Tools\MSVC\14.44.35207\include\xmemory

; 118  :             _Throw_bad_array_new_length(); // multiply overflow

  00142	e8 00 00 00 00	 call	 ?_Throw_bad_array_new_length@std@@YAXXZ ; std::_Throw_bad_array_new_length
$LN116@Emplace_re:
  00147	cc		 int	 3
??$_Emplace_reallocate@U__SPAWNINFO@CEventLua@@@?$vector@U__SPAWNINFO@CEventLua@@V?$allocator@U__SPAWNINFO@CEventLua@@@std@@@std@@AAEPAU__SPAWNINFO@CEventLua@@QAU23@$$QAU23@@Z ENDP ; std::vector<CEventLua::__SPAWNINFO,std::allocator<CEventLua::__SPAWNINFO> >::_Emplace_reallocate<CEventLua::__SPAWNINFO>
_TEXT	ENDS
; Function compile flags: /Ogtp
; File C:\Program Files\Microsoft Visual Studio\2022\Professional\VC\Tools\MSVC\14.44.35207\include\xtree
; File C:\Program Files\Microsoft Visual Studio\2022\Professional\VC\Tools\MSVC\14.44.35207\include\type_traits
; File C:\Program Files\Microsoft Visual Studio\2022\Professional\VC\Tools\MSVC\14.44.35207\include\xtree
; File C:\Program Files\Microsoft Visual Studio\2022\Professional\VC\Tools\MSVC\14.44.35207\include\type_traits
; File C:\Program Files\Microsoft Visual Studio\2022\Professional\VC\Tools\MSVC\14.44.35207\include\xtree
;	COMDAT ??$_Find_lower_bound@E@?$_Tree@V?$_Tmap_traits@EV?$vector@U__SPAWNINFO@CEventLua@@V?$allocator@U__SPAWNINFO@CEventLua@@@std@@@std@@U?$less@E@2@V?$allocator@U?$pair@$$CBEV?$vector@U__SPAWNINFO@CEventLua@@V?$allocator@U__SPAWNINFO@CEventLua@@@std@@@std@@@std@@@2@$0A@@std@@@std@@IBE?AU?$_Tree_find_result@PAU?$_Tree_node@U?$pair@$$CBEV?$vector@U__SPAWNINFO@CEventLua@@V?$allocator@U__SPAWNINFO@CEventLua@@@std@@@std@@@std@@PAX@std@@@1@ABE@Z
_TEXT	SEGMENT
___$ReturnUdt$ = 8					; size = 4
__Keyval$ = 12						; size = 4
??$_Find_lower_bound@E@?$_Tree@V?$_Tmap_traits@EV?$vector@U__SPAWNINFO@CEventLua@@V?$allocator@U__SPAWNINFO@CEventLua@@@std@@@std@@U?$less@E@2@V?$allocator@U?$pair@$$CBEV?$vector@U__SPAWNINFO@CEventLua@@V?$allocator@U__SPAWNINFO@CEventLua@@@std@@@std@@@std@@@2@$0A@@std@@@std@@IBE?AU?$_Tree_find_result@PAU?$_Tree_node@U?$pair@$$CBEV?$vector@U__SPAWNINFO@CEventLua@@V?$allocator@U__SPAWNINFO@CEventLua@@@std@@@std@@@std@@PAX@std@@@1@ABE@Z PROC ; std::_Tree<std::_Tmap_traits<unsigned char,std::vector<CEventLua::__SPAWNINFO,std::allocator<CEventLua::__SPAWNINFO> >,std::less<unsigned char>,std::allocator<std::pair<unsigned char const ,std::vector<CEventLua::__SPAWNINFO,std::allocator<CEventLua::__SPAWNINFO> > > >,0> >::_Find_lower_bound<unsigned char>, COMDAT
; _this$ = ecx

; 1628 :     _Tree_find_result<_Nodeptr> _Find_lower_bound(const _Keyty& _Keyval) const {

  00000	55		 push	 ebp
  00001	8b ec		 mov	 ebp, esp

; 1629 :         const auto _Scary = _Get_scary();
; 1630 :         _Tree_find_result<_Nodeptr> _Result{{_Scary->_Myhead->_Parent, _Tree_child::_Right}, _Scary->_Myhead};

  00003	8b 09		 mov	 ecx, DWORD PTR [ecx]
  00005	8b 55 08	 mov	 edx, DWORD PTR ___$ReturnUdt$[ebp]
  00008	8b 41 04	 mov	 eax, DWORD PTR [ecx+4]
  0000b	89 02		 mov	 DWORD PTR [edx], eax
  0000d	c7 42 04 00 00
	00 00		 mov	 DWORD PTR [edx+4], 0
  00014	89 4a 08	 mov	 DWORD PTR [edx+8], ecx

; 1631 :         _Nodeptr _Trynode = _Result._Location._Parent;
; 1632 :         while (!_Trynode->_Isnil) {

  00017	80 78 0d 00	 cmp	 BYTE PTR [eax+13], 0
  0001b	75 28		 jne	 SHORT $LN13@Find_lower
; File C:\Program Files\Microsoft Visual Studio\2022\Professional\VC\Tools\MSVC\14.44.35207\include\type_traits

; 2380 :         return _Left < _Right;

  0001d	8b 4d 0c	 mov	 ecx, DWORD PTR __Keyval$[ebp]
  00020	53		 push	 ebx
  00021	8a 19		 mov	 bl, BYTE PTR [ecx]
$LL2@Find_lower:
; File C:\Program Files\Microsoft Visual Studio\2022\Professional\VC\Tools\MSVC\14.44.35207\include\xtree

; 1633 :             _Result._Location._Parent = _Trynode;

  00023	89 02		 mov	 DWORD PTR [edx], eax
; File C:\Program Files\Microsoft Visual Studio\2022\Professional\VC\Tools\MSVC\14.44.35207\include\type_traits

; 2380 :         return _Left < _Right;

  00025	38 58 10	 cmp	 BYTE PTR [eax+16], bl
; File C:\Program Files\Microsoft Visual Studio\2022\Professional\VC\Tools\MSVC\14.44.35207\include\xtree

; 1634 :             if (_DEBUG_LT_PRED(_Getcomp(), _Traits::_Kfn(_Trynode->_Myval), _Keyval)) {

  00028	73 07		 jae	 SHORT $LN4@Find_lower

; 1635 :                 _Result._Location._Child = _Tree_child::_Right;
; 1636 :                 _Trynode                 = _Trynode->_Right;

  0002a	8b 40 08	 mov	 eax, DWORD PTR [eax+8]
  0002d	33 c9		 xor	 ecx, ecx

; 1637 :             } else {

  0002f	eb 0a		 jmp	 SHORT $LN5@Find_lower
$LN4@Find_lower:

; 1638 :                 _Result._Location._Child = _Tree_child::_Left;
; 1639 :                 _Result._Bound           = _Trynode;

  00031	89 42 08	 mov	 DWORD PTR [edx+8], eax

; 1640 :                 _Trynode                 = _Trynode->_Left;

  00034	b9 01 00 00 00	 mov	 ecx, 1
  00039	8b 00		 mov	 eax, DWORD PTR [eax]
$LN5@Find_lower:

; 1631 :         _Nodeptr _Trynode = _Result._Location._Parent;
; 1632 :         while (!_Trynode->_Isnil) {

  0003b	89 4a 04	 mov	 DWORD PTR [edx+4], ecx
  0003e	80 78 0d 00	 cmp	 BYTE PTR [eax+13], 0
  00042	74 df		 je	 SHORT $LL2@Find_lower
  00044	5b		 pop	 ebx
$LN13@Find_lower:

; 1641 :             }
; 1642 :         }
; 1643 : 
; 1644 :         return _Result;
; 1645 :     }

  00045	8b c2		 mov	 eax, edx
  00047	5d		 pop	 ebp
  00048	c2 08 00	 ret	 8
??$_Find_lower_bound@E@?$_Tree@V?$_Tmap_traits@EV?$vector@U__SPAWNINFO@CEventLua@@V?$allocator@U__SPAWNINFO@CEventLua@@@std@@@std@@U?$less@E@2@V?$allocator@U?$pair@$$CBEV?$vector@U__SPAWNINFO@CEventLua@@V?$allocator@U__SPAWNINFO@CEventLua@@@std@@@std@@@std@@@2@$0A@@std@@@std@@IBE?AU?$_Tree_find_result@PAU?$_Tree_node@U?$pair@$$CBEV?$vector@U__SPAWNINFO@CEventLua@@V?$allocator@U__SPAWNINFO@CEventLua@@@std@@@std@@@std@@PAX@std@@@1@ABE@Z ENDP ; std::_Tree<std::_Tmap_traits<unsigned char,std::vector<CEventLua::__SPAWNINFO,std::allocator<CEventLua::__SPAWNINFO> >,std::less<unsigned char>,std::allocator<std::pair<unsigned char const ,std::vector<CEventLua::__SPAWNINFO,std::allocator<CEventLua::__SPAWNINFO> > > >,0> >::_Find_lower_bound<unsigned char>
_TEXT	ENDS
; Function compile flags: /Ogtp
; File C:\Program Files\Microsoft Visual Studio\2022\Professional\VC\Tools\MSVC\14.44.35207\include\xutility
;	COMDAT ??$_Copy_memmove_n@PAU__SPAWNINFO@CEventLua@@PAU12@@std@@YAPAU__SPAWNINFO@CEventLua@@PAU12@I0@Z
_TEXT	SEGMENT
__First$ = 8						; size = 4
__Object_count$ = 12					; size = 4
__Dest$ = 16						; size = 4
??$_Copy_memmove_n@PAU__SPAWNINFO@CEventLua@@PAU12@@std@@YAPAU__SPAWNINFO@CEventLua@@PAU12@I0@Z PROC ; std::_Copy_memmove_n<CEventLua::__SPAWNINFO *,CEventLua::__SPAWNINFO *>, COMDAT

; 4774 : _OutCtgIt _Copy_memmove_n(_CtgIt _First, const size_t _Object_count, _OutCtgIt _Dest) {

  00000	55		 push	 ebp
  00001	8b ec		 mov	 ebp, esp

; 4775 :     const auto _First_ptr  = _STD _To_address(_First);
; 4776 :     const auto _First_ch   = const_cast<const char*>(reinterpret_cast<const volatile char*>(_First_ptr));
; 4777 :     const auto _Byte_count = _Object_count * sizeof(*_First_ptr);
; 4778 :     return _STD _Copy_memmove_tail(_First_ch, _STD move(_Dest), _Byte_count, _Object_count);

  00003	8b 45 0c	 mov	 eax, DWORD PTR __Object_count$[ebp]
  00006	50		 push	 eax
  00007	c1 e0 04	 shl	 eax, 4
  0000a	50		 push	 eax
  0000b	ff 75 10	 push	 DWORD PTR __Dest$[ebp]
  0000e	ff 75 08	 push	 DWORD PTR __First$[ebp]
  00011	e8 00 00 00 00	 call	 ??$_Copy_memmove_tail@PAU__SPAWNINFO@CEventLua@@@std@@YAPAU__SPAWNINFO@CEventLua@@QBDQAU12@II@Z ; std::_Copy_memmove_tail<CEventLua::__SPAWNINFO *>
  00016	83 c4 10	 add	 esp, 16			; 00000010H

; 4779 : }

  00019	5d		 pop	 ebp
  0001a	c3		 ret	 0
??$_Copy_memmove_n@PAU__SPAWNINFO@CEventLua@@PAU12@@std@@YAPAU__SPAWNINFO@CEventLua@@PAU12@I0@Z ENDP ; std::_Copy_memmove_n<CEventLua::__SPAWNINFO *,CEventLua::__SPAWNINFO *>
_TEXT	ENDS
; Function compile flags: /Ogtp
; File C:\Program Files\Microsoft Visual Studio\2022\Professional\VC\Tools\MSVC\14.44.35207\include\xmemory
;	COMDAT ??1?$_Alloc_construct_ptr@V?$allocator@U?$_Tree_node@U?$pair@$$CBKH@std@@PAX@std@@@std@@@std@@QAE@XZ
_TEXT	SEGMENT
??1?$_Alloc_construct_ptr@V?$allocator@U?$_Tree_node@U?$pair@$$CBKH@std@@PAX@std@@@std@@@std@@QAE@XZ PROC ; std::_Alloc_construct_ptr<std::allocator<std::_Tree_node<std::pair<unsigned long const ,int>,void *> > >::~_Alloc_construct_ptr<std::allocator<std::_Tree_node<std::pair<unsigned long const ,int>,void *> > >, COMDAT
; _this$ = ecx

; 1172 :         if (_Ptr) {

  00000	8b 41 04	 mov	 eax, DWORD PTR [ecx+4]
  00003	85 c0		 test	 eax, eax
  00005	74 0b		 je	 SHORT $LN10@Alloc_cons

; 289  :         ::operator delete(_Ptr, _Bytes);

  00007	6a 18		 push	 24			; 00000018H
  00009	50		 push	 eax
  0000a	e8 00 00 00 00	 call	 ??3@YAXPAXI@Z		; operator delete
  0000f	83 c4 08	 add	 esp, 8
$LN10@Alloc_cons:

; 1173 :             _Al.deallocate(_Ptr, 1);
; 1174 :         }
; 1175 :     }

  00012	c3		 ret	 0
??1?$_Alloc_construct_ptr@V?$allocator@U?$_Tree_node@U?$pair@$$CBKH@std@@PAX@std@@@std@@@std@@QAE@XZ ENDP ; std::_Alloc_construct_ptr<std::allocator<std::_Tree_node<std::pair<unsigned long const ,int>,void *> > >::~_Alloc_construct_ptr<std::allocator<std::_Tree_node<std::pair<unsigned long const ,int>,void *> > >
_TEXT	ENDS
; Function compile flags: /Ogtp
; File C:\Program Files\Microsoft Visual Studio\2022\Professional\VC\Tools\MSVC\14.44.35207\include\xtree
; File C:\Program Files\Microsoft Visual Studio\2022\Professional\VC\Tools\MSVC\14.44.35207\include\type_traits
; File C:\Program Files\Microsoft Visual Studio\2022\Professional\VC\Tools\MSVC\14.44.35207\include\xtree
; File C:\Program Files\Microsoft Visual Studio\2022\Professional\VC\Tools\MSVC\14.44.35207\include\type_traits
; File C:\Program Files\Microsoft Visual Studio\2022\Professional\VC\Tools\MSVC\14.44.35207\include\xtree
;	COMDAT ??$_Find_lower_bound@K@?$_Tree@V?$_Tmap_traits@KHU?$less@K@std@@V?$allocator@U?$pair@$$CBKH@std@@@2@$0A@@std@@@std@@IBE?AU?$_Tree_find_result@PAU?$_Tree_node@U?$pair@$$CBKH@std@@PAX@std@@@1@ABK@Z
_TEXT	SEGMENT
___$ReturnUdt$ = 8					; size = 4
__Keyval$ = 12						; size = 4
??$_Find_lower_bound@K@?$_Tree@V?$_Tmap_traits@KHU?$less@K@std@@V?$allocator@U?$pair@$$CBKH@std@@@2@$0A@@std@@@std@@IBE?AU?$_Tree_find_result@PAU?$_Tree_node@U?$pair@$$CBKH@std@@PAX@std@@@1@ABK@Z PROC ; std::_Tree<std::_Tmap_traits<unsigned long,int,std::less<unsigned long>,std::allocator<std::pair<unsigned long const ,int> >,0> >::_Find_lower_bound<unsigned long>, COMDAT
; _this$ = ecx

; 1628 :     _Tree_find_result<_Nodeptr> _Find_lower_bound(const _Keyty& _Keyval) const {

  00000	55		 push	 ebp
  00001	8b ec		 mov	 ebp, esp

; 1629 :         const auto _Scary = _Get_scary();
; 1630 :         _Tree_find_result<_Nodeptr> _Result{{_Scary->_Myhead->_Parent, _Tree_child::_Right}, _Scary->_Myhead};

  00003	8b 09		 mov	 ecx, DWORD PTR [ecx]
  00005	8b 55 08	 mov	 edx, DWORD PTR ___$ReturnUdt$[ebp]
  00008	8b 41 04	 mov	 eax, DWORD PTR [ecx+4]
  0000b	89 02		 mov	 DWORD PTR [edx], eax
  0000d	c7 42 04 00 00
	00 00		 mov	 DWORD PTR [edx+4], 0
  00014	89 4a 08	 mov	 DWORD PTR [edx+8], ecx

; 1631 :         _Nodeptr _Trynode = _Result._Location._Parent;
; 1632 :         while (!_Trynode->_Isnil) {

  00017	80 78 0d 00	 cmp	 BYTE PTR [eax+13], 0
  0001b	75 28		 jne	 SHORT $LN13@Find_lower
; File C:\Program Files\Microsoft Visual Studio\2022\Professional\VC\Tools\MSVC\14.44.35207\include\type_traits

; 2380 :         return _Left < _Right;

  0001d	8b 4d 0c	 mov	 ecx, DWORD PTR __Keyval$[ebp]
  00020	56		 push	 esi
  00021	8b 31		 mov	 esi, DWORD PTR [ecx]
$LL2@Find_lower:
; File C:\Program Files\Microsoft Visual Studio\2022\Professional\VC\Tools\MSVC\14.44.35207\include\xtree

; 1633 :             _Result._Location._Parent = _Trynode;

  00023	89 02		 mov	 DWORD PTR [edx], eax
; File C:\Program Files\Microsoft Visual Studio\2022\Professional\VC\Tools\MSVC\14.44.35207\include\type_traits

; 2380 :         return _Left < _Right;

  00025	39 70 10	 cmp	 DWORD PTR [eax+16], esi
; File C:\Program Files\Microsoft Visual Studio\2022\Professional\VC\Tools\MSVC\14.44.35207\include\xtree

; 1634 :             if (_DEBUG_LT_PRED(_Getcomp(), _Traits::_Kfn(_Trynode->_Myval), _Keyval)) {

  00028	73 07		 jae	 SHORT $LN4@Find_lower

; 1635 :                 _Result._Location._Child = _Tree_child::_Right;
; 1636 :                 _Trynode                 = _Trynode->_Right;

  0002a	8b 40 08	 mov	 eax, DWORD PTR [eax+8]
  0002d	33 c9		 xor	 ecx, ecx

; 1637 :             } else {

  0002f	eb 0a		 jmp	 SHORT $LN5@Find_lower
$LN4@Find_lower:

; 1638 :                 _Result._Location._Child = _Tree_child::_Left;
; 1639 :                 _Result._Bound           = _Trynode;

  00031	89 42 08	 mov	 DWORD PTR [edx+8], eax

; 1640 :                 _Trynode                 = _Trynode->_Left;

  00034	b9 01 00 00 00	 mov	 ecx, 1
  00039	8b 00		 mov	 eax, DWORD PTR [eax]
$LN5@Find_lower:

; 1631 :         _Nodeptr _Trynode = _Result._Location._Parent;
; 1632 :         while (!_Trynode->_Isnil) {

  0003b	89 4a 04	 mov	 DWORD PTR [edx+4], ecx
  0003e	80 78 0d 00	 cmp	 BYTE PTR [eax+13], 0
  00042	74 df		 je	 SHORT $LL2@Find_lower
  00044	5e		 pop	 esi
$LN13@Find_lower:

; 1641 :             }
; 1642 :         }
; 1643 : 
; 1644 :         return _Result;
; 1645 :     }

  00045	8b c2		 mov	 eax, edx
  00047	5d		 pop	 ebp
  00048	c2 08 00	 ret	 8
??$_Find_lower_bound@K@?$_Tree@V?$_Tmap_traits@KHU?$less@K@std@@V?$allocator@U?$pair@$$CBKH@std@@@2@$0A@@std@@@std@@IBE?AU?$_Tree_find_result@PAU?$_Tree_node@U?$pair@$$CBKH@std@@PAX@std@@@1@ABK@Z ENDP ; std::_Tree<std::_Tmap_traits<unsigned long,int,std::less<unsigned long>,std::allocator<std::pair<unsigned long const ,int> >,0> >::_Find_lower_bound<unsigned long>
_TEXT	ENDS
; Function compile flags: /Ogtp
; File C:\Program Files\Microsoft Visual Studio\2022\Professional\VC\Tools\MSVC\14.44.35207\include\xtree
; File C:\Program Files\Microsoft Visual Studio\2022\Professional\VC\Tools\MSVC\14.44.35207\include\utility
; File C:\Program Files\Microsoft Visual Studio\2022\Professional\VC\Tools\MSVC\14.44.35207\include\xtree
; File C:\Program Files\Microsoft Visual Studio\2022\Professional\VC\Tools\MSVC\14.44.35207\include\vector
; File C:\Program Files\Microsoft Visual Studio\2022\Professional\VC\Tools\MSVC\14.44.35207\include\xmemory
; File C:\Program Files\Microsoft Visual Studio\2022\Professional\VC\Tools\MSVC\14.44.35207\include\xtree
; File C:\Program Files\Microsoft Visual Studio\2022\Professional\VC\Tools\MSVC\14.44.35207\include\xmemory
; File C:\Program Files\Microsoft Visual Studio\2022\Professional\VC\Tools\MSVC\14.44.35207\include\xtree
;	COMDAT ??$_Erase_tree@V?$allocator@U?$_Tree_node@U?$pair@$$CBEV?$vector@U__SPAWNINFO@CEventLua@@V?$allocator@U__SPAWNINFO@CEventLua@@@std@@@std@@@std@@PAX@std@@@std@@@?$_Tree_val@U?$_Tree_simple_types@U?$pair@$$CBEV?$vector@U__SPAWNINFO@CEventLua@@V?$allocator@U__SPAWNINFO@CEventLua@@@std@@@std@@@std@@@std@@@std@@QAEXAAV?$allocator@U?$_Tree_node@U?$pair@$$CBEV?$vector@U__SPAWNINFO@CEventLua@@V?$allocator@U__SPAWNINFO@CEventLua@@@std@@@std@@@std@@PAX@std@@@1@PAU?$_Tree_node@U?$pair@$$CBEV?$vector@U__SPAWNINFO@CEventLua@@V?$allocator@U__SPAWNINFO@CEventLua@@@std@@@std@@@std@@PAX@1@@Z
_TEXT	SEGMENT
_this$1$ = -4						; size = 4
__Al$ = 8						; size = 4
__Rootnode$ = 12					; size = 4
??$_Erase_tree@V?$allocator@U?$_Tree_node@U?$pair@$$CBEV?$vector@U__SPAWNINFO@CEventLua@@V?$allocator@U__SPAWNINFO@CEventLua@@@std@@@std@@@std@@PAX@std@@@std@@@?$_Tree_val@U?$_Tree_simple_types@U?$pair@$$CBEV?$vector@U__SPAWNINFO@CEventLua@@V?$allocator@U__SPAWNINFO@CEventLua@@@std@@@std@@@std@@@std@@@std@@QAEXAAV?$allocator@U?$_Tree_node@U?$pair@$$CBEV?$vector@U__SPAWNINFO@CEventLua@@V?$allocator@U__SPAWNINFO@CEventLua@@@std@@@std@@@std@@PAX@std@@@1@PAU?$_Tree_node@U?$pair@$$CBEV?$vector@U__SPAWNINFO@CEventLua@@V?$allocator@U__SPAWNINFO@CEventLua@@@std@@@std@@@std@@PAX@1@@Z PROC ; std::_Tree_val<std::_Tree_simple_types<std::pair<unsigned char const ,std::vector<CEventLua::__SPAWNINFO,std::allocator<CEventLua::__SPAWNINFO> > > > >::_Erase_tree<std::allocator<std::_Tree_node<std::pair<unsigned char const ,std::vector<CEventLua::__SPAWNINFO,std::allocator<CEventLua::__SPAWNINFO> > >,void *> > >, COMDAT
; _this$ = ecx

; 767  :     void _Erase_tree(_Alnode& _Al, _Nodeptr _Rootnode) noexcept {

  00000	55		 push	 ebp
  00001	8b ec		 mov	 ebp, esp
  00003	51		 push	 ecx
  00004	56		 push	 esi

; 768  :         while (!_Rootnode->_Isnil) { // free subtrees, then node

  00005	8b 75 0c	 mov	 esi, DWORD PTR __Rootnode$[ebp]
  00008	8b c1		 mov	 eax, ecx
  0000a	89 45 fc	 mov	 DWORD PTR _this$1$[ebp], eax
  0000d	80 7e 0d 00	 cmp	 BYTE PTR [esi+13], 0
  00011	75 32		 jne	 SHORT $LN48@Erase_tree
  00013	53		 push	 ebx
  00014	8b 5d 08	 mov	 ebx, DWORD PTR __Al$[ebp]
  00017	57		 push	 edi
$LL2@Erase_tree:

; 769  :             _Erase_tree(_Al, _Rootnode->_Right);

  00018	ff 76 08	 push	 DWORD PTR [esi+8]
  0001b	8b c8		 mov	 ecx, eax
  0001d	53		 push	 ebx
  0001e	e8 00 00 00 00	 call	 ??$_Erase_tree@V?$allocator@U?$_Tree_node@U?$pair@$$CBEV?$vector@U__SPAWNINFO@CEventLua@@V?$allocator@U__SPAWNINFO@CEventLua@@@std@@@std@@@std@@PAX@std@@@std@@@?$_Tree_val@U?$_Tree_simple_types@U?$pair@$$CBEV?$vector@U__SPAWNINFO@CEventLua@@V?$allocator@U__SPAWNINFO@CEventLua@@@std@@@std@@@std@@@std@@@std@@QAEXAAV?$allocator@U?$_Tree_node@U?$pair@$$CBEV?$vector@U__SPAWNINFO@CEventLua@@V?$allocator@U__SPAWNINFO@CEventLua@@@std@@@std@@@std@@PAX@std@@@1@PAU?$_Tree_node@U?$pair@$$CBEV?$vector@U__SPAWNINFO@CEventLua@@V?$allocator@U__SPAWNINFO@CEventLua@@@std@@@std@@@std@@PAX@1@@Z ; std::_Tree_val<std::_Tree_simple_types<std::pair<unsigned char const ,std::vector<CEventLua::__SPAWNINFO,std::allocator<CEventLua::__SPAWNINFO> > > > >::_Erase_tree<std::allocator<std::_Tree_node<std::pair<unsigned char const ,std::vector<CEventLua::__SPAWNINFO,std::allocator<CEventLua::__SPAWNINFO> > >,void *> > >
; File C:\Program Files\Microsoft Visual Studio\2022\Professional\VC\Tools\MSVC\14.44.35207\include\utility

; 773  :     _Ty _Old_val = static_cast<_Ty&&>(_Val);

  00023	8b fe		 mov	 edi, esi

; 774  :     _Val         = static_cast<_Other&&>(_New_val);

  00025	8b 36		 mov	 esi, DWORD PTR [esi]
; File C:\Program Files\Microsoft Visual Studio\2022\Professional\VC\Tools\MSVC\14.44.35207\include\xtree

; 381  :         allocator_traits<_Alloc>::destroy(_Al, _STD addressof(_Ptr->_Myval));

  00027	8d 4f 14	 lea	 ecx, DWORD PTR [edi+20]
; File C:\Program Files\Microsoft Visual Studio\2022\Professional\VC\Tools\MSVC\14.44.35207\include\vector

; 830  :         _Tidy();

  0002a	e8 00 00 00 00	 call	 ?_Tidy@?$vector@U__SPAWNINFO@CEventLua@@V?$allocator@U__SPAWNINFO@CEventLua@@@std@@@std@@AAEXXZ ; std::vector<CEventLua::__SPAWNINFO,std::allocator<CEventLua::__SPAWNINFO> >::_Tidy
; File C:\Program Files\Microsoft Visual Studio\2022\Professional\VC\Tools\MSVC\14.44.35207\include\xmemory

; 289  :         ::operator delete(_Ptr, _Bytes);

  0002f	6a 20		 push	 32			; 00000020H
  00031	57		 push	 edi
  00032	e8 00 00 00 00	 call	 ??3@YAXPAXI@Z		; operator delete
; File C:\Program Files\Microsoft Visual Studio\2022\Professional\VC\Tools\MSVC\14.44.35207\include\xtree

; 768  :         while (!_Rootnode->_Isnil) { // free subtrees, then node

  00037	8b 45 fc	 mov	 eax, DWORD PTR _this$1$[ebp]
; File C:\Program Files\Microsoft Visual Studio\2022\Professional\VC\Tools\MSVC\14.44.35207\include\xmemory

; 289  :         ::operator delete(_Ptr, _Bytes);

  0003a	83 c4 08	 add	 esp, 8
; File C:\Program Files\Microsoft Visual Studio\2022\Professional\VC\Tools\MSVC\14.44.35207\include\xtree

; 768  :         while (!_Rootnode->_Isnil) { // free subtrees, then node

  0003d	80 7e 0d 00	 cmp	 BYTE PTR [esi+13], 0
  00041	74 d5		 je	 SHORT $LL2@Erase_tree
  00043	5f		 pop	 edi
  00044	5b		 pop	 ebx
$LN48@Erase_tree:
  00045	5e		 pop	 esi

; 770  :             _Alnode::value_type::_Freenode(_Al, _STD exchange(_Rootnode, _Rootnode->_Left));
; 771  :         }
; 772  :     }

  00046	8b e5		 mov	 esp, ebp
  00048	5d		 pop	 ebp
  00049	c2 08 00	 ret	 8
??$_Erase_tree@V?$allocator@U?$_Tree_node@U?$pair@$$CBEV?$vector@U__SPAWNINFO@CEventLua@@V?$allocator@U__SPAWNINFO@CEventLua@@@std@@@std@@@std@@PAX@std@@@std@@@?$_Tree_val@U?$_Tree_simple_types@U?$pair@$$CBEV?$vector@U__SPAWNINFO@CEventLua@@V?$allocator@U__SPAWNINFO@CEventLua@@@std@@@std@@@std@@@std@@@std@@QAEXAAV?$allocator@U?$_Tree_node@U?$pair@$$CBEV?$vector@U__SPAWNINFO@CEventLua@@V?$allocator@U__SPAWNINFO@CEventLua@@@std@@@std@@@std@@PAX@std@@@1@PAU?$_Tree_node@U?$pair@$$CBEV?$vector@U__SPAWNINFO@CEventLua@@V?$allocator@U__SPAWNINFO@CEventLua@@@std@@@std@@@std@@PAX@1@@Z ENDP ; std::_Tree_val<std::_Tree_simple_types<std::pair<unsigned char const ,std::vector<CEventLua::__SPAWNINFO,std::allocator<CEventLua::__SPAWNINFO> > > > >::_Erase_tree<std::allocator<std::_Tree_node<std::pair<unsigned char const ,std::vector<CEventLua::__SPAWNINFO,std::allocator<CEventLua::__SPAWNINFO> > >,void *> > >
_TEXT	ENDS
; Function compile flags: /Ogtp
; File C:\Program Files\Microsoft Visual Studio\2022\Professional\VC\Tools\MSVC\14.44.35207\include\vector
;	COMDAT ??1?$pair@EV?$vector@U__SPAWNINFO@CEventLua@@V?$allocator@U__SPAWNINFO@CEventLua@@@std@@@std@@@std@@QAE@XZ
_TEXT	SEGMENT
??1?$pair@EV?$vector@U__SPAWNINFO@CEventLua@@V?$allocator@U__SPAWNINFO@CEventLua@@@std@@@std@@@std@@QAE@XZ PROC ; std::pair<unsigned char,std::vector<CEventLua::__SPAWNINFO,std::allocator<CEventLua::__SPAWNINFO> > >::~pair<unsigned char,std::vector<CEventLua::__SPAWNINFO,std::allocator<CEventLua::__SPAWNINFO> > >, COMDAT
; _this$ = ecx
  00000	83 c1 04	 add	 ecx, 4

; 830  :         _Tidy();

  00003	e9 00 00 00 00	 jmp	 ?_Tidy@?$vector@U__SPAWNINFO@CEventLua@@V?$allocator@U__SPAWNINFO@CEventLua@@@std@@@std@@AAEXXZ ; std::vector<CEventLua::__SPAWNINFO,std::allocator<CEventLua::__SPAWNINFO> >::_Tidy
??1?$pair@EV?$vector@U__SPAWNINFO@CEventLua@@V?$allocator@U__SPAWNINFO@CEventLua@@@std@@@std@@@std@@QAE@XZ ENDP ; std::pair<unsigned char,std::vector<CEventLua::__SPAWNINFO,std::allocator<CEventLua::__SPAWNINFO> > >::~pair<unsigned char,std::vector<CEventLua::__SPAWNINFO,std::allocator<CEventLua::__SPAWNINFO> > >
_TEXT	ENDS
; Function compile flags: /Ogtp
; File C:\Program Files\Microsoft Visual Studio\2022\Professional\VC\Tools\MSVC\14.44.35207\include\map
; File C:\Program Files\Microsoft Visual Studio\2022\Professional\VC\Tools\MSVC\14.44.35207\include\xtree
; File C:\Program Files\Microsoft Visual Studio\2022\Professional\VC\Tools\MSVC\14.44.35207\include\type_traits
; File C:\Program Files\Microsoft Visual Studio\2022\Professional\VC\Tools\MSVC\14.44.35207\include\xtree
; File C:\Program Files\Microsoft Visual Studio\2022\Professional\VC\Tools\MSVC\14.44.35207\include\type_traits
; File C:\Program Files\Microsoft Visual Studio\2022\Professional\VC\Tools\MSVC\14.44.35207\include\xtree
; File C:\Program Files\Microsoft Visual Studio\2022\Professional\VC\Tools\MSVC\14.44.35207\include\type_traits
; File C:\Program Files\Microsoft Visual Studio\2022\Professional\VC\Tools\MSVC\14.44.35207\include\xtree
; File C:\Program Files\Microsoft Visual Studio\2022\Professional\VC\Tools\MSVC\14.44.35207\include\utility
; File C:\Program Files\Microsoft Visual Studio\2022\Professional\VC\Tools\MSVC\14.44.35207\include\xtree
; File C:\Program Files\Microsoft Visual Studio\2022\Professional\VC\Tools\MSVC\14.44.35207\include\xmemory
; File C:\Program Files\Microsoft Visual Studio\2022\Professional\VC\Tools\MSVC\14.44.35207\include\xtree
; File C:\Program Files\Microsoft Visual Studio\2022\Professional\VC\Tools\MSVC\14.44.35207\include\xmemory
; File C:\Program Files\Microsoft Visual Studio\2022\Professional\VC\Tools\MSVC\14.44.35207\include\utility
; File C:\Program Files\Microsoft Visual Studio\2022\Professional\VC\Tools\MSVC\14.44.35207\include\xmemory
; File C:\Program Files\Microsoft Visual Studio\2022\Professional\VC\Tools\MSVC\14.44.35207\include\utility
; File C:\Program Files\Microsoft Visual Studio\2022\Professional\VC\Tools\MSVC\14.44.35207\include\xtree
; File C:\Program Files\Microsoft Visual Studio\2022\Professional\VC\Tools\MSVC\14.44.35207\include\utility
; File C:\Program Files\Microsoft Visual Studio\2022\Professional\VC\Tools\MSVC\14.44.35207\include\map
; File C:\Program Files\Microsoft Visual Studio\2022\Professional\VC\Tools\MSVC\14.44.35207\include\xtree
; File C:\Program Files\Microsoft Visual Studio\2022\Professional\VC\Tools\MSVC\14.44.35207\include\map
;	COMDAT ??$insert@U?$pair@KE@std@@$0A@@?$map@KEU?$less@K@std@@V?$allocator@U?$pair@$$CBKE@std@@@2@@std@@QAE?AU?$pair@V?$_Tree_iterator@V?$_Tree_val@U?$_Tree_simple_types@U?$pair@$$CBKE@std@@@std@@@std@@@std@@_N@1@$$QAU?$pair@KE@1@@Z
_TEXT	SEGMENT
$T5 = -24						; size = 8
_this$1$ = -16						; size = 4
__$EHRec$ = -12						; size = 12
___$ReturnUdt$ = 8					; size = 4
__Val$ = 12						; size = 4
??$insert@U?$pair@KE@std@@$0A@@?$map@KEU?$less@K@std@@V?$allocator@U?$pair@$$CBKE@std@@@2@@std@@QAE?AU?$pair@V?$_Tree_iterator@V?$_Tree_val@U?$_Tree_simple_types@U?$pair@$$CBKE@std@@@std@@@std@@@std@@_N@1@$$QAU?$pair@KE@1@@Z PROC ; std::map<unsigned long,unsigned char,std::less<unsigned long>,std::allocator<std::pair<unsigned long const ,unsigned char> > >::insert<std::pair<unsigned long,unsigned char>,0>, COMDAT
; _this$ = ecx

; 185  :     pair<iterator, bool> insert(_Valty&& _Val) {

  00000	55		 push	 ebp
  00001	8b ec		 mov	 ebp, esp
  00003	6a ff		 push	 -1
  00005	68 00 00 00 00	 push	 __ehhandler$??$insert@U?$pair@KE@std@@$0A@@?$map@KEU?$less@K@std@@V?$allocator@U?$pair@$$CBKE@std@@@2@@std@@QAE?AU?$pair@V?$_Tree_iterator@V?$_Tree_val@U?$_Tree_simple_types@U?$pair@$$CBKE@std@@@std@@@std@@@std@@_N@1@$$QAU?$pair@KE@1@@Z
  0000a	64 a1 00 00 00
	00		 mov	 eax, DWORD PTR fs:0
  00010	50		 push	 eax
  00011	83 ec 0c	 sub	 esp, 12			; 0000000cH
  00014	53		 push	 ebx
  00015	56		 push	 esi
  00016	57		 push	 edi
  00017	a1 00 00 00 00	 mov	 eax, DWORD PTR ___security_cookie
  0001c	33 c5		 xor	 eax, ebp
  0001e	50		 push	 eax
  0001f	8d 45 f4	 lea	 eax, DWORD PTR __$EHRec$[ebp]
  00022	64 a3 00 00 00
	00		 mov	 DWORD PTR fs:0, eax
  00028	89 4d f0	 mov	 DWORD PTR _this$1$[ebp], ecx
; File C:\Program Files\Microsoft Visual Studio\2022\Professional\VC\Tools\MSVC\14.44.35207\include\xtree

; 1630 :         _Tree_find_result<_Nodeptr> _Result{{_Scary->_Myhead->_Parent, _Tree_child::_Right}, _Scary->_Myhead};

  0002b	8b 19		 mov	 ebx, DWORD PTR [ecx]
  0002d	33 f6		 xor	 esi, esi
  0002f	8b d3		 mov	 edx, ebx
  00031	8b 7b 04	 mov	 edi, DWORD PTR [ebx+4]

; 1631 :         _Nodeptr _Trynode = _Result._Location._Parent;
; 1632 :         while (!_Trynode->_Isnil) {

  00034	80 7f 0d 00	 cmp	 BYTE PTR [edi+13], 0
  00038	75 27		 jne	 SHORT $LN11@insert
; File C:\Program Files\Microsoft Visual Studio\2022\Professional\VC\Tools\MSVC\14.44.35207\include\type_traits

; 2380 :         return _Left < _Right;

  0003a	8b 4d 0c	 mov	 ecx, DWORD PTR __Val$[ebp]
  0003d	8b c7		 mov	 eax, edi
  0003f	8b 09		 mov	 ecx, DWORD PTR [ecx]
$LL10@insert:
; File C:\Program Files\Microsoft Visual Studio\2022\Professional\VC\Tools\MSVC\14.44.35207\include\xtree

; 1633 :             _Result._Location._Parent = _Trynode;

  00041	8b f8		 mov	 edi, eax
; File C:\Program Files\Microsoft Visual Studio\2022\Professional\VC\Tools\MSVC\14.44.35207\include\type_traits

; 2380 :         return _Left < _Right;

  00043	39 48 10	 cmp	 DWORD PTR [eax+16], ecx
; File C:\Program Files\Microsoft Visual Studio\2022\Professional\VC\Tools\MSVC\14.44.35207\include\xtree

; 1634 :             if (_DEBUG_LT_PRED(_Getcomp(), _Traits::_Kfn(_Trynode->_Myval), _Keyval)) {

  00046	73 07		 jae	 SHORT $LN12@insert

; 1635 :                 _Result._Location._Child = _Tree_child::_Right;
; 1636 :                 _Trynode                 = _Trynode->_Right;

  00048	8b 40 08	 mov	 eax, DWORD PTR [eax+8]
  0004b	33 f6		 xor	 esi, esi

; 1637 :             } else {

  0004d	eb 09		 jmp	 SHORT $LN13@insert
$LN12@insert:

; 1638 :                 _Result._Location._Child = _Tree_child::_Left;
; 1639 :                 _Result._Bound           = _Trynode;

  0004f	8b d0		 mov	 edx, eax
  00051	be 01 00 00 00	 mov	 esi, 1

; 1640 :                 _Trynode                 = _Trynode->_Left;

  00056	8b 00		 mov	 eax, DWORD PTR [eax]
$LN13@insert:

; 1631 :         _Nodeptr _Trynode = _Result._Location._Parent;
; 1632 :         while (!_Trynode->_Isnil) {

  00058	80 78 0d 00	 cmp	 BYTE PTR [eax+13], 0
  0005c	74 e3		 je	 SHORT $LL10@insert
  0005e	8b 4d f0	 mov	 ecx, DWORD PTR _this$1$[ebp]
$LN11@insert:

; 1624 :         return !_Bound->_Isnil && !_DEBUG_LT_PRED(_Getcomp(), _Keyval, _Traits::_Kfn(_Bound->_Myval));

  00061	80 7a 0d 00	 cmp	 BYTE PTR [edx+13], 0
  00065	75 0e		 jne	 SHORT $LN6@insert
; File C:\Program Files\Microsoft Visual Studio\2022\Professional\VC\Tools\MSVC\14.44.35207\include\type_traits

; 2380 :         return _Left < _Right;

  00067	8b 45 0c	 mov	 eax, DWORD PTR __Val$[ebp]
  0006a	8b 00		 mov	 eax, DWORD PTR [eax]
  0006c	3b 42 10	 cmp	 eax, DWORD PTR [edx+16]
; File C:\Program Files\Microsoft Visual Studio\2022\Professional\VC\Tools\MSVC\14.44.35207\include\xtree

; 1624 :         return !_Bound->_Isnil && !_DEBUG_LT_PRED(_Getcomp(), _Keyval, _Traits::_Kfn(_Bound->_Myval));

  0006f	72 04		 jb	 SHORT $LN6@insert
; File C:\Program Files\Microsoft Visual Studio\2022\Professional\VC\Tools\MSVC\14.44.35207\include\utility

; 274  :         : first(_STD forward<_Other1>(_Val1)), second(_STD forward<_Other2>(_Val2)) {

  00071	32 c9		 xor	 cl, cl
; File C:\Program Files\Microsoft Visual Studio\2022\Professional\VC\Tools\MSVC\14.44.35207\include\xtree

; 1019 :                 return {_Loc._Bound, false};

  00073	eb 51		 jmp	 SHORT $LN100@insert
$LN6@insert:

; 1648 :         if (max_size() == _Get_scary()->_Mysize) {

  00075	81 79 04 aa aa
	aa 0a		 cmp	 DWORD PTR [ecx+4], 178956970 ; 0aaaaaaaH
  0007c	74 64		 je	 SHORT $LN125@insert
; File C:\Program Files\Microsoft Visual Studio\2022\Professional\VC\Tools\MSVC\14.44.35207\include\xmemory

; 1160 :     _CONSTEXPR20 explicit _Alloc_construct_ptr(_Alloc& _Al_) : _Al(_Al_), _Ptr(nullptr) {}

  0007e	89 4d e8	 mov	 DWORD PTR $T5[ebp], ecx

; 136  :         return ::operator new(_Bytes);

  00081	6a 18		 push	 24			; 00000018H
; File C:\Program Files\Microsoft Visual Studio\2022\Professional\VC\Tools\MSVC\14.44.35207\include\xtree

; 808  :     explicit _Tree_temp_node_alloc(_Alnode& _Al_) : _Alloc_construct_ptr<_Alnode>(_Al_) {

  00083	c7 45 fc 00 00
	00 00		 mov	 DWORD PTR __$EHRec$[ebp+8], 0
; File C:\Program Files\Microsoft Visual Studio\2022\Professional\VC\Tools\MSVC\14.44.35207\include\xmemory

; 1167 :         _Ptr = nullptr; // if allocate throws, prevents double-free

  0008a	c7 45 ec 00 00
	00 00		 mov	 DWORD PTR $T5[ebp+4], 0

; 136  :         return ::operator new(_Bytes);

  00091	e8 00 00 00 00	 call	 ??2@YAPAXI@Z		; operator new
; File C:\Program Files\Microsoft Visual Studio\2022\Professional\VC\Tools\MSVC\14.44.35207\include\utility

; 303  :         : first(_STD forward<_Other1>(_Right.first)), second(_STD forward<_Other2>(_Right.second)) {}

  00096	8b 55 0c	 mov	 edx, DWORD PTR __Val$[ebp]
; File C:\Program Files\Microsoft Visual Studio\2022\Professional\VC\Tools\MSVC\14.44.35207\include\xmemory

; 256  :         return _Traits::_Allocate(_Bytes);

  00099	8b c8		 mov	 ecx, eax

; 136  :         return ::operator new(_Bytes);

  0009b	83 c4 04	 add	 esp, 4
; File C:\Program Files\Microsoft Visual Studio\2022\Professional\VC\Tools\MSVC\14.44.35207\include\utility

; 303  :         : first(_STD forward<_Other1>(_Right.first)), second(_STD forward<_Other2>(_Right.second)) {}

  0009e	8b 02		 mov	 eax, DWORD PTR [edx]
  000a0	89 41 10	 mov	 DWORD PTR [ecx+16], eax
  000a3	8a 42 04	 mov	 al, BYTE PTR [edx+4]
  000a6	88 41 14	 mov	 BYTE PTR [ecx+20], al
; File C:\Program Files\Microsoft Visual Studio\2022\Professional\VC\Tools\MSVC\14.44.35207\include\xtree

; 831  :         _Construct_in_place(this->_Ptr->_Left, _Myhead);

  000a9	89 19		 mov	 DWORD PTR [ecx], ebx

; 1042 :         return {_Scary->_Insert_node(_Loc._Location, _Inserted), true};

  000ab	51		 push	 ecx

; 832  :         _Construct_in_place(this->_Ptr->_Parent, _Myhead);

  000ac	89 59 04	 mov	 DWORD PTR [ecx+4], ebx

; 833  :         _Construct_in_place(this->_Ptr->_Right, _Myhead);

  000af	89 59 08	 mov	 DWORD PTR [ecx+8], ebx

; 1042 :         return {_Scary->_Insert_node(_Loc._Location, _Inserted), true};

  000b2	56		 push	 esi

; 834  :         this->_Ptr->_Color = _Red;

  000b3	66 c7 41 0c 00
	00		 mov	 WORD PTR [ecx+12], 0

; 1042 :         return {_Scary->_Insert_node(_Loc._Location, _Inserted), true};

  000b9	8b 4d f0	 mov	 ecx, DWORD PTR _this$1$[ebp]
  000bc	57		 push	 edi
  000bd	e8 00 00 00 00	 call	 ?_Insert_node@?$_Tree_val@U?$_Tree_simple_types@U?$pair@$$CBKE@std@@@std@@@std@@QAEPAU?$_Tree_node@U?$pair@$$CBKE@std@@PAX@2@U?$_Tree_id@PAU?$_Tree_node@U?$pair@$$CBKE@std@@PAX@std@@@2@QAU32@@Z ; std::_Tree_val<std::_Tree_simple_types<std::pair<unsigned long const ,unsigned char> > >::_Insert_node
; File C:\Program Files\Microsoft Visual Studio\2022\Professional\VC\Tools\MSVC\14.44.35207\include\utility

; 274  :         : first(_STD forward<_Other1>(_Val1)), second(_STD forward<_Other2>(_Val2)) {

  000c2	8b d0		 mov	 edx, eax
  000c4	b1 01		 mov	 cl, 1
$LN100@insert:
  000c6	8b 45 08	 mov	 eax, DWORD PTR ___$ReturnUdt$[ebp]
  000c9	89 10		 mov	 DWORD PTR [eax], edx
  000cb	88 48 04	 mov	 BYTE PTR [eax+4], cl
; File C:\Program Files\Microsoft Visual Studio\2022\Professional\VC\Tools\MSVC\14.44.35207\include\map

; 187  :     }

  000ce	8b 4d f4	 mov	 ecx, DWORD PTR __$EHRec$[ebp]
  000d1	64 89 0d 00 00
	00 00		 mov	 DWORD PTR fs:0, ecx
  000d8	59		 pop	 ecx
  000d9	5f		 pop	 edi
  000da	5e		 pop	 esi
  000db	5b		 pop	 ebx
  000dc	8b e5		 mov	 esp, ebp
  000de	5d		 pop	 ebp
  000df	c2 08 00	 ret	 8
$LN125@insert:
; File C:\Program Files\Microsoft Visual Studio\2022\Professional\VC\Tools\MSVC\14.44.35207\include\xtree

; 1649 :             _Throw_tree_length_error();

  000e2	e8 00 00 00 00	 call	 ?_Throw_tree_length_error@std@@YAXXZ ; std::_Throw_tree_length_error
$LN123@insert:
  000e7	cc		 int	 3
_TEXT	ENDS
;	COMDAT text$x
text$x	SEGMENT
__unwindfunclet$??$insert@U?$pair@KE@std@@$0A@@?$map@KEU?$less@K@std@@V?$allocator@U?$pair@$$CBKE@std@@@2@@std@@QAE?AU?$pair@V?$_Tree_iterator@V?$_Tree_val@U?$_Tree_simple_types@U?$pair@$$CBKE@std@@@std@@@std@@@std@@_N@1@$$QAU?$pair@KE@1@@Z$2:
  00000	8d 4d e8	 lea	 ecx, DWORD PTR $T5[ebp]
  00003	e9 00 00 00 00	 jmp	 ??1?$_Alloc_construct_ptr@V?$allocator@U?$_Tree_node@U?$pair@$$CBKE@std@@PAX@std@@@std@@@std@@QAE@XZ ; std::_Alloc_construct_ptr<std::allocator<std::_Tree_node<std::pair<unsigned long const ,unsigned char>,void *> > >::~_Alloc_construct_ptr<std::allocator<std::_Tree_node<std::pair<unsigned long const ,unsigned char>,void *> > >
  00008	cc		 int	 3
  00009	cc		 int	 3
  0000a	cc		 int	 3
  0000b	cc		 int	 3
  0000c	cc		 int	 3
__ehhandler$??$insert@U?$pair@KE@std@@$0A@@?$map@KEU?$less@K@std@@V?$allocator@U?$pair@$$CBKE@std@@@2@@std@@QAE?AU?$pair@V?$_Tree_iterator@V?$_Tree_val@U?$_Tree_simple_types@U?$pair@$$CBKE@std@@@std@@@std@@@std@@_N@1@$$QAU?$pair@KE@1@@Z:
  0000d	90		 npad	 1
  0000e	90		 npad	 1
  0000f	8b 54 24 08	 mov	 edx, DWORD PTR [esp+8]
  00013	8d 42 0c	 lea	 eax, DWORD PTR [edx+12]
  00016	8b 4a e4	 mov	 ecx, DWORD PTR [edx-28]
  00019	33 c8		 xor	 ecx, eax
  0001b	e8 00 00 00 00	 call	 @__security_check_cookie@4
  00020	b8 00 00 00 00	 mov	 eax, OFFSET __ehfuncinfo$??$insert@U?$pair@KE@std@@$0A@@?$map@KEU?$less@K@std@@V?$allocator@U?$pair@$$CBKE@std@@@2@@std@@QAE?AU?$pair@V?$_Tree_iterator@V?$_Tree_val@U?$_Tree_simple_types@U?$pair@$$CBKE@std@@@std@@@std@@@std@@_N@1@$$QAU?$pair@KE@1@@Z
  00025	e9 00 00 00 00	 jmp	 ___CxxFrameHandler3
text$x	ENDS
??$insert@U?$pair@KE@std@@$0A@@?$map@KEU?$less@K@std@@V?$allocator@U?$pair@$$CBKE@std@@@2@@std@@QAE?AU?$pair@V?$_Tree_iterator@V?$_Tree_val@U?$_Tree_simple_types@U?$pair@$$CBKE@std@@@std@@@std@@@std@@_N@1@$$QAU?$pair@KE@1@@Z ENDP ; std::map<unsigned long,unsigned char,std::less<unsigned long>,std::allocator<std::pair<unsigned long const ,unsigned char> > >::insert<std::pair<unsigned long,unsigned char>,0>
; Function compile flags: /Ogtp
; File C:\Program Files\Microsoft Visual Studio\2022\Professional\VC\Tools\MSVC\14.44.35207\include\vector
;	COMDAT ?_Xlength@?$vector@U__SPAWNINFO@CEventLua@@V?$allocator@U__SPAWNINFO@CEventLua@@@std@@@std@@CAXXZ
_TEXT	SEGMENT
?_Xlength@?$vector@U__SPAWNINFO@CEventLua@@V?$allocator@U__SPAWNINFO@CEventLua@@@std@@@std@@CAXXZ PROC ; std::vector<CEventLua::__SPAWNINFO,std::allocator<CEventLua::__SPAWNINFO> >::_Xlength, COMDAT

; 2184 :         _Xlength_error("vector too long");

  00000	68 00 00 00 00	 push	 OFFSET ??_C@_0BA@FOIKENOD@vector?5too?5long@
  00005	e8 00 00 00 00	 call	 ?_Xlength_error@std@@YAXPBD@Z ; std::_Xlength_error
$LN3@Xlength:
  0000a	cc		 int	 3
?_Xlength@?$vector@U__SPAWNINFO@CEventLua@@V?$allocator@U__SPAWNINFO@CEventLua@@@std@@@std@@CAXXZ ENDP ; std::vector<CEventLua::__SPAWNINFO,std::allocator<CEventLua::__SPAWNINFO> >::_Xlength
_TEXT	ENDS
; Function compile flags: /Ogtp
; File C:\Program Files\Microsoft Visual Studio\2022\Professional\VC\Tools\MSVC\14.44.35207\include\vector
; File C:\Program Files\Microsoft Visual Studio\2022\Professional\VC\Tools\MSVC\14.44.35207\include\xmemory
; File C:\Program Files\Microsoft Visual Studio\2022\Professional\VC\Tools\MSVC\14.44.35207\include\vector
; File C:\Program Files\Microsoft Visual Studio\2022\Professional\VC\Tools\MSVC\14.44.35207\include\xmemory
; File C:\Program Files\Microsoft Visual Studio\2022\Professional\VC\Tools\MSVC\14.44.35207\include\vector
; File C:\Program Files\Microsoft Visual Studio\2022\Professional\VC\Tools\MSVC\14.44.35207\include\xmemory
; File C:\Program Files\Microsoft Visual Studio\2022\Professional\VC\Tools\MSVC\14.44.35207\include\vector
;	COMDAT ?_Tidy@?$vector@U__SPAWNINFO@CEventLua@@V?$allocator@U__SPAWNINFO@CEventLua@@@std@@@std@@AAEXXZ
_TEXT	SEGMENT
?_Tidy@?$vector@U__SPAWNINFO@CEventLua@@V?$allocator@U__SPAWNINFO@CEventLua@@@std@@@std@@AAEXXZ PROC ; std::vector<CEventLua::__SPAWNINFO,std::allocator<CEventLua::__SPAWNINFO> >::_Tidy, COMDAT
; _this$ = ecx

; 2081 :     _CONSTEXPR20 void _Tidy() noexcept { // free all storage

  00000	56		 push	 esi
  00001	8b f1		 mov	 esi, ecx

; 2082 :         auto& _Al         = _Getal();
; 2083 :         auto& _My_data    = _Mypair._Myval2;
; 2084 :         pointer& _Myfirst = _My_data._Myfirst;
; 2085 :         pointer& _Mylast  = _My_data._Mylast;
; 2086 :         pointer& _Myend   = _My_data._Myend;
; 2087 : 
; 2088 :         _My_data._Orphan_all();
; 2089 : 
; 2090 :         if (_Myfirst) { // destroy and deallocate old array

  00003	8b 06		 mov	 eax, DWORD PTR [esi]
  00005	85 c0		 test	 eax, eax
  00007	74 40		 je	 SHORT $LN2@Tidy

; 2091 :             _STD _Destroy_range(_Myfirst, _Mylast, _Al);
; 2092 :             _ASAN_VECTOR_REMOVE;
; 2093 :             _Al.deallocate(_Myfirst, static_cast<size_type>(_Myend - _Myfirst));

  00009	8b 4e 08	 mov	 ecx, DWORD PTR [esi+8]
  0000c	2b c8		 sub	 ecx, eax
; File C:\Program Files\Microsoft Visual Studio\2022\Professional\VC\Tools\MSVC\14.44.35207\include\xmemory

; 985  :         _STD _Deallocate<_New_alignof<_Ty>>(_Ptr, sizeof(_Ty) * _Count);

  0000e	83 e1 f0	 and	 ecx, -16		; fffffff0H

; 284  :         if (_Bytes >= _Big_allocation_threshold) {

  00011	81 f9 00 10 00
	00		 cmp	 ecx, 4096		; 00001000H
  00017	72 12		 jb	 SHORT $LN15@Tidy

; 205  :     const uintptr_t _Ptr_container   = _Ptr_user[-1];

  00019	8b 50 fc	 mov	 edx, DWORD PTR [eax-4]
  0001c	83 c1 23	 add	 ecx, 35			; 00000023H

; 206  : 
; 207  :     // If the following asserts, it likely means that we are performing
; 208  :     // an aligned delete on memory coming from an unaligned allocation.
; 209  :     _STL_ASSERT(_Ptr_user[-2] == _Big_allocation_sentinel, "invalid argument");
; 210  : 
; 211  :     // Extra paranoia on aligned allocation/deallocation; ensure _Ptr_container is
; 212  :     // in range [_Min_back_shift, _Non_user_size]
; 213  : #ifdef _DEBUG
; 214  :     constexpr uintptr_t _Min_back_shift = 2 * sizeof(void*);
; 215  : #else // ^^^ defined(_DEBUG) / !defined(_DEBUG) vvv
; 216  :     constexpr uintptr_t _Min_back_shift = sizeof(void*);
; 217  : #endif // ^^^ !defined(_DEBUG) ^^^
; 218  :     const uintptr_t _Back_shift = reinterpret_cast<uintptr_t>(_Ptr) - _Ptr_container;

  0001f	2b c2		 sub	 eax, edx

; 219  :     _STL_VERIFY(_Back_shift >= _Min_back_shift && _Back_shift <= _Non_user_size, "invalid argument");

  00021	83 c0 fc	 add	 eax, -4			; fffffffcH
  00024	83 f8 1f	 cmp	 eax, 31			; 0000001fH
  00027	77 22		 ja	 SHORT $LN14@Tidy

; 220  :     _Ptr = reinterpret_cast<void*>(_Ptr_container);

  00029	8b c2		 mov	 eax, edx
$LN15@Tidy:

; 289  :         ::operator delete(_Ptr, _Bytes);

  0002b	51		 push	 ecx
  0002c	50		 push	 eax
  0002d	e8 00 00 00 00	 call	 ??3@YAXPAXI@Z		; operator delete
; File C:\Program Files\Microsoft Visual Studio\2022\Professional\VC\Tools\MSVC\14.44.35207\include\vector

; 2095 :             _Myfirst = nullptr;

  00032	c7 06 00 00 00
	00		 mov	 DWORD PTR [esi], 0
; File C:\Program Files\Microsoft Visual Studio\2022\Professional\VC\Tools\MSVC\14.44.35207\include\xmemory

; 289  :         ::operator delete(_Ptr, _Bytes);

  00038	83 c4 08	 add	 esp, 8
; File C:\Program Files\Microsoft Visual Studio\2022\Professional\VC\Tools\MSVC\14.44.35207\include\vector

; 2096 :             _Mylast  = nullptr;

  0003b	c7 46 04 00 00
	00 00		 mov	 DWORD PTR [esi+4], 0

; 2097 :             _Myend   = nullptr;

  00042	c7 46 08 00 00
	00 00		 mov	 DWORD PTR [esi+8], 0
$LN2@Tidy:

; 2099 :     }

  00049	5e		 pop	 esi
  0004a	c3		 ret	 0
$LN14@Tidy:
; File C:\Program Files\Microsoft Visual Studio\2022\Professional\VC\Tools\MSVC\14.44.35207\include\xmemory

; 219  :     _STL_VERIFY(_Back_shift >= _Min_back_shift && _Back_shift <= _Non_user_size, "invalid argument");

  0004b	6a 00		 push	 0
  0004d	6a 00		 push	 0
  0004f	6a 00		 push	 0
  00051	6a 00		 push	 0
  00053	6a 00		 push	 0
  00055	e8 00 00 00 00	 call	 __invoke_watson
$LN22@Tidy:
  0005a	cc		 int	 3
?_Tidy@?$vector@U__SPAWNINFO@CEventLua@@V?$allocator@U__SPAWNINFO@CEventLua@@@std@@@std@@AAEXXZ ENDP ; std::vector<CEventLua::__SPAWNINFO,std::allocator<CEventLua::__SPAWNINFO> >::_Tidy
_TEXT	ENDS
; Function compile flags: /Ogtp
; File C:\Program Files\Microsoft Visual Studio\2022\Professional\VC\Tools\MSVC\14.44.35207\include\vector
; File C:\Program Files\Microsoft Visual Studio\2022\Professional\VC\Tools\MSVC\14.44.35207\include\xmemory
; File C:\Program Files\Microsoft Visual Studio\2022\Professional\VC\Tools\MSVC\14.44.35207\include\vector
; File C:\Program Files\Microsoft Visual Studio\2022\Professional\VC\Tools\MSVC\14.44.35207\include\xmemory
; File C:\Program Files\Microsoft Visual Studio\2022\Professional\VC\Tools\MSVC\14.44.35207\include\vector
; File C:\Program Files\Microsoft Visual Studio\2022\Professional\VC\Tools\MSVC\14.44.35207\include\xmemory
; File C:\Program Files\Microsoft Visual Studio\2022\Professional\VC\Tools\MSVC\14.44.35207\include\vector
; File C:\Program Files\Microsoft Visual Studio\2022\Professional\VC\Tools\MSVC\14.44.35207\include\xmemory
; File C:\Program Files\Microsoft Visual Studio\2022\Professional\VC\Tools\MSVC\14.44.35207\include\vector
; File C:\Program Files\Microsoft Visual Studio\2022\Professional\VC\Tools\MSVC\14.44.35207\include\xmemory
; File C:\Program Files\Microsoft Visual Studio\2022\Professional\VC\Tools\MSVC\14.44.35207\include\vector
;	COMDAT ?_Buy_raw@?$vector@U__SPAWNINFO@CEventLua@@V?$allocator@U__SPAWNINFO@CEventLua@@@std@@@std@@AAEXI@Z
_TEXT	SEGMENT
__Newcapacity$ = 8					; size = 4
?_Buy_raw@?$vector@U__SPAWNINFO@CEventLua@@V?$allocator@U__SPAWNINFO@CEventLua@@@std@@@std@@AAEXI@Z PROC ; std::vector<CEventLua::__SPAWNINFO,std::allocator<CEventLua::__SPAWNINFO> >::_Buy_raw, COMDAT
; _this$ = ecx

; 2024 :     _CONSTEXPR20 void _Buy_raw(size_type _Newcapacity) {

  00000	55		 push	 ebp
  00001	8b ec		 mov	 ebp, esp
  00003	56		 push	 esi
; File C:\Program Files\Microsoft Visual Studio\2022\Professional\VC\Tools\MSVC\14.44.35207\include\xmemory

; 117  :         if (_Count > _Max_possible) {

  00004	8b 75 08	 mov	 esi, DWORD PTR __Newcapacity$[ebp]
; File C:\Program Files\Microsoft Visual Studio\2022\Professional\VC\Tools\MSVC\14.44.35207\include\vector

; 2024 :     _CONSTEXPR20 void _Buy_raw(size_type _Newcapacity) {

  00007	57		 push	 edi
  00008	8b f9		 mov	 edi, ecx
; File C:\Program Files\Microsoft Visual Studio\2022\Professional\VC\Tools\MSVC\14.44.35207\include\xmemory

; 117  :         if (_Count > _Max_possible) {

  0000a	81 fe ff ff ff
	0f		 cmp	 esi, 268435455		; 0fffffffH
  00010	77 52		 ja	 SHORT $LN25@Buy_raw

; 119  :         }
; 120  :     }
; 121  : 
; 122  :     return _Count * _Ty_size;

  00012	c1 e6 04	 shl	 esi, 4

; 227  :     if (_Bytes == 0) {

  00015	85 f6		 test	 esi, esi
  00017	75 12		 jne	 SHORT $LN12@Buy_raw

; 228  :         return nullptr;

  00019	33 c0		 xor	 eax, eax
; File C:\Program Files\Microsoft Visual Studio\2022\Professional\VC\Tools\MSVC\14.44.35207\include\vector

; 2035 :         _Myfirst              = _Newvec;

  0001b	89 07		 mov	 DWORD PTR [edi], eax

; 2036 :         _Mylast               = _Newvec;

  0001d	89 47 04	 mov	 DWORD PTR [edi+4], eax

; 2037 :         _Myend                = _Newvec + _Newcapacity;

  00020	8b c6		 mov	 eax, esi
  00022	89 47 08	 mov	 DWORD PTR [edi+8], eax

; 2038 :     }

  00025	5f		 pop	 edi
  00026	5e		 pop	 esi
  00027	5d		 pop	 ebp
  00028	c2 04 00	 ret	 4
$LN12@Buy_raw:
; File C:\Program Files\Microsoft Visual Studio\2022\Professional\VC\Tools\MSVC\14.44.35207\include\xmemory

; 251  :         if (_Bytes >= _Big_allocation_threshold) {

  0002b	56		 push	 esi
  0002c	81 fe 00 10 00
	00		 cmp	 esi, 4096		; 00001000H
  00032	72 18		 jb	 SHORT $LN13@Buy_raw

; 252  :             // boost the alignment of big allocations to help autovectorization
; 253  :             return _Allocate_manually_vector_aligned<_Traits>(_Bytes);

  00034	e8 00 00 00 00	 call	 ??$_Allocate_manually_vector_aligned@U_Default_allocate_traits@std@@@std@@YAPAXI@Z ; std::_Allocate_manually_vector_aligned<std::_Default_allocate_traits>
; File C:\Program Files\Microsoft Visual Studio\2022\Professional\VC\Tools\MSVC\14.44.35207\include\vector

; 2035 :         _Myfirst              = _Newvec;

  00039	89 07		 mov	 DWORD PTR [edi], eax
  0003b	83 c4 04	 add	 esp, 4

; 2036 :         _Mylast               = _Newvec;

  0003e	89 47 04	 mov	 DWORD PTR [edi+4], eax

; 2037 :         _Myend                = _Newvec + _Newcapacity;

  00041	03 c6		 add	 eax, esi
  00043	89 47 08	 mov	 DWORD PTR [edi+8], eax

; 2038 :     }

  00046	5f		 pop	 edi
  00047	5e		 pop	 esi
  00048	5d		 pop	 ebp
  00049	c2 04 00	 ret	 4
$LN13@Buy_raw:
; File C:\Program Files\Microsoft Visual Studio\2022\Professional\VC\Tools\MSVC\14.44.35207\include\xmemory

; 136  :         return ::operator new(_Bytes);

  0004c	e8 00 00 00 00	 call	 ??2@YAPAXI@Z		; operator new
; File C:\Program Files\Microsoft Visual Studio\2022\Professional\VC\Tools\MSVC\14.44.35207\include\vector

; 2035 :         _Myfirst              = _Newvec;

  00051	89 07		 mov	 DWORD PTR [edi], eax
  00053	83 c4 04	 add	 esp, 4

; 2036 :         _Mylast               = _Newvec;

  00056	89 47 04	 mov	 DWORD PTR [edi+4], eax

; 2037 :         _Myend                = _Newvec + _Newcapacity;

  00059	03 c6		 add	 eax, esi
  0005b	89 47 08	 mov	 DWORD PTR [edi+8], eax

; 2038 :     }

  0005e	5f		 pop	 edi
  0005f	5e		 pop	 esi
  00060	5d		 pop	 ebp
  00061	c2 04 00	 ret	 4
$LN25@Buy_raw:
; File C:\Program Files\Microsoft Visual Studio\2022\Professional\VC\Tools\MSVC\14.44.35207\include\xmemory

; 118  :             _Throw_bad_array_new_length(); // multiply overflow

  00064	e8 00 00 00 00	 call	 ?_Throw_bad_array_new_length@std@@YAXXZ ; std::_Throw_bad_array_new_length
$LN22@Buy_raw:
  00069	cc		 int	 3
?_Buy_raw@?$vector@U__SPAWNINFO@CEventLua@@V?$allocator@U__SPAWNINFO@CEventLua@@@std@@@std@@AAEXI@Z ENDP ; std::vector<CEventLua::__SPAWNINFO,std::allocator<CEventLua::__SPAWNINFO> >::_Buy_raw
_TEXT	ENDS
; Function compile flags: /Ogtp
; File C:\Program Files\Microsoft Visual Studio\2022\Professional\VC\Tools\MSVC\14.44.35207\include\vector
;	COMDAT ??1?$vector@U__SPAWNINFO@CEventLua@@V?$allocator@U__SPAWNINFO@CEventLua@@@std@@@std@@QAE@XZ
_TEXT	SEGMENT
??1?$vector@U__SPAWNINFO@CEventLua@@V?$allocator@U__SPAWNINFO@CEventLua@@@std@@@std@@QAE@XZ PROC ; std::vector<CEventLua::__SPAWNINFO,std::allocator<CEventLua::__SPAWNINFO> >::~vector<CEventLua::__SPAWNINFO,std::allocator<CEventLua::__SPAWNINFO> >, COMDAT
; _this$ = ecx

; 830  :         _Tidy();

  00000	e9 00 00 00 00	 jmp	 ?_Tidy@?$vector@U__SPAWNINFO@CEventLua@@V?$allocator@U__SPAWNINFO@CEventLua@@@std@@@std@@AAEXXZ ; std::vector<CEventLua::__SPAWNINFO,std::allocator<CEventLua::__SPAWNINFO> >::_Tidy
??1?$vector@U__SPAWNINFO@CEventLua@@V?$allocator@U__SPAWNINFO@CEventLua@@@std@@@std@@QAE@XZ ENDP ; std::vector<CEventLua::__SPAWNINFO,std::allocator<CEventLua::__SPAWNINFO> >::~vector<CEventLua::__SPAWNINFO,std::allocator<CEventLua::__SPAWNINFO> >
_TEXT	ENDS
; Function compile flags: /Ogtp
; File C:\Program Files\Microsoft Visual Studio\2022\Professional\VC\Tools\MSVC\14.44.35207\include\xmemory
;	COMDAT ?deallocate@?$allocator@U__SPAWNINFO@CEventLua@@@std@@QAEXQAU__SPAWNINFO@CEventLua@@I@Z
_TEXT	SEGMENT
__Ptr$ = 8						; size = 4
__Count$ = 12						; size = 4
?deallocate@?$allocator@U__SPAWNINFO@CEventLua@@@std@@QAEXQAU__SPAWNINFO@CEventLua@@I@Z PROC ; std::allocator<CEventLua::__SPAWNINFO>::deallocate, COMDAT
; _this$ = ecx

; 982  :     _CONSTEXPR20 void deallocate(_Ty* const _Ptr, const size_t _Count) noexcept /* strengthened */ {

  00000	55		 push	 ebp
  00001	8b ec		 mov	 ebp, esp

; 983  :         _STL_ASSERT(_Ptr != nullptr || _Count == 0, "null pointer cannot point to a block of non-zero size");
; 984  :         // no overflow check on the following multiply; we assume _Allocate did that check
; 985  :         _STD _Deallocate<_New_alignof<_Ty>>(_Ptr, sizeof(_Ty) * _Count);

  00003	8b 4d 0c	 mov	 ecx, DWORD PTR __Count$[ebp]
  00006	8b 45 08	 mov	 eax, DWORD PTR __Ptr$[ebp]
  00009	c1 e1 04	 shl	 ecx, 4

; 284  :         if (_Bytes >= _Big_allocation_threshold) {

  0000c	81 f9 00 10 00
	00		 cmp	 ecx, 4096		; 00001000H
  00012	72 12		 jb	 SHORT $LN11@deallocate

; 205  :     const uintptr_t _Ptr_container   = _Ptr_user[-1];

  00014	8b 50 fc	 mov	 edx, DWORD PTR [eax-4]
  00017	83 c1 23	 add	 ecx, 35			; 00000023H

; 206  : 
; 207  :     // If the following asserts, it likely means that we are performing
; 208  :     // an aligned delete on memory coming from an unaligned allocation.
; 209  :     _STL_ASSERT(_Ptr_user[-2] == _Big_allocation_sentinel, "invalid argument");
; 210  : 
; 211  :     // Extra paranoia on aligned allocation/deallocation; ensure _Ptr_container is
; 212  :     // in range [_Min_back_shift, _Non_user_size]
; 213  : #ifdef _DEBUG
; 214  :     constexpr uintptr_t _Min_back_shift = 2 * sizeof(void*);
; 215  : #else // ^^^ defined(_DEBUG) / !defined(_DEBUG) vvv
; 216  :     constexpr uintptr_t _Min_back_shift = sizeof(void*);
; 217  : #endif // ^^^ !defined(_DEBUG) ^^^
; 218  :     const uintptr_t _Back_shift = reinterpret_cast<uintptr_t>(_Ptr) - _Ptr_container;

  0001a	2b c2		 sub	 eax, edx

; 219  :     _STL_VERIFY(_Back_shift >= _Min_back_shift && _Back_shift <= _Non_user_size, "invalid argument");

  0001c	83 c0 fc	 add	 eax, -4			; fffffffcH
  0001f	83 f8 1f	 cmp	 eax, 31			; 0000001fH
  00022	77 10		 ja	 SHORT $LN10@deallocate

; 220  :     _Ptr = reinterpret_cast<void*>(_Ptr_container);

  00024	8b c2		 mov	 eax, edx
$LN11@deallocate:

; 289  :         ::operator delete(_Ptr, _Bytes);

  00026	51		 push	 ecx
  00027	50		 push	 eax
  00028	e8 00 00 00 00	 call	 ??3@YAXPAXI@Z		; operator delete
  0002d	83 c4 08	 add	 esp, 8

; 986  :     }

  00030	5d		 pop	 ebp
  00031	c2 08 00	 ret	 8
$LN10@deallocate:

; 219  :     _STL_VERIFY(_Back_shift >= _Min_back_shift && _Back_shift <= _Non_user_size, "invalid argument");

  00034	6a 00		 push	 0
  00036	6a 00		 push	 0
  00038	6a 00		 push	 0
  0003a	6a 00		 push	 0
  0003c	6a 00		 push	 0
  0003e	e8 00 00 00 00	 call	 __invoke_watson
$LN14@deallocate:
  00043	cc		 int	 3
?deallocate@?$allocator@U__SPAWNINFO@CEventLua@@@std@@QAEXQAU__SPAWNINFO@CEventLua@@I@Z ENDP ; std::allocator<CEventLua::__SPAWNINFO>::deallocate
_TEXT	ENDS
; Function compile flags: /Ogtp
; File C:\Program Files\Microsoft Visual Studio\2022\Professional\VC\Tools\MSVC\14.44.35207\include\xtree
;	COMDAT ??E?$_Tree_unchecked_const_iterator@V?$_Tree_val@U?$_Tree_simple_types@U?$pair@$$CBEV?$vector@U__SPAWNINFO@CEventLua@@V?$allocator@U__SPAWNINFO@CEventLua@@@std@@@std@@@std@@@std@@@std@@U_Iterator_base0@2@@std@@QAEAAV01@XZ
_TEXT	SEGMENT
??E?$_Tree_unchecked_const_iterator@V?$_Tree_val@U?$_Tree_simple_types@U?$pair@$$CBEV?$vector@U__SPAWNINFO@CEventLua@@V?$allocator@U__SPAWNINFO@CEventLua@@@std@@@std@@@std@@@std@@@std@@U_Iterator_base0@2@@std@@QAEAAV01@XZ PROC ; std::_Tree_unchecked_const_iterator<std::_Tree_val<std::_Tree_simple_types<std::pair<unsigned char const ,std::vector<CEventLua::__SPAWNINFO,std::allocator<CEventLua::__SPAWNINFO> > > > >,std::_Iterator_base0>::operator++, COMDAT
; _this$ = ecx

; 49   :     _Tree_unchecked_const_iterator& operator++() noexcept {

  00000	56		 push	 esi
  00001	8b f1		 mov	 esi, ecx
  00003	57		 push	 edi

; 50   :         if (_Ptr->_Right->_Isnil) { // climb looking for right subtree

  00004	8b 16		 mov	 edx, DWORD PTR [esi]
  00006	8b 7a 08	 mov	 edi, DWORD PTR [edx+8]
  00009	80 7f 0d 00	 cmp	 BYTE PTR [edi+13], 0
  0000d	74 22		 je	 SHORT $LN4@operator

; 51   :             _Nodeptr _Pnode;
; 52   :             while (!(_Pnode = _Ptr->_Parent)->_Isnil && _Ptr == _Pnode->_Right) {

  0000f	8b 42 04	 mov	 eax, DWORD PTR [edx+4]
  00012	80 78 0d 00	 cmp	 BYTE PTR [eax+13], 0
  00016	75 12		 jne	 SHORT $LN21@operator
$LL2@operator:
  00018	3b 50 08	 cmp	 edx, DWORD PTR [eax+8]
  0001b	75 0d		 jne	 SHORT $LN21@operator

; 53   :                 _Ptr = _Pnode; // ==> parent while right subtree

  0001d	89 06		 mov	 DWORD PTR [esi], eax
  0001f	8b d0		 mov	 edx, eax
  00021	8b 40 04	 mov	 eax, DWORD PTR [eax+4]
  00024	80 78 0d 00	 cmp	 BYTE PTR [eax+13], 0
  00028	74 ee		 je	 SHORT $LL2@operator
$LN21@operator:

; 54   :             }
; 55   : 
; 56   :             _Ptr = _Pnode; // ==> parent (head if end())
; 57   :         } else {
; 58   :             _Ptr = _Mytree::_Min(_Ptr->_Right); // ==> smallest of right subtree
; 59   :         }
; 60   : 
; 61   :         return *this;

  0002a	89 06		 mov	 DWORD PTR [esi], eax

; 62   :     }

  0002c	8b c6		 mov	 eax, esi
  0002e	5f		 pop	 edi
  0002f	5e		 pop	 esi
  00030	c3		 ret	 0
$LN4@operator:

; 476  :         while (!_Pnode->_Left->_Isnil) {

  00031	8b 0f		 mov	 ecx, DWORD PTR [edi]
  00033	80 79 0d 00	 cmp	 BYTE PTR [ecx+13], 0
  00037	75 13		 jne	 SHORT $LN10@operator
  00039	0f 1f 80 00 00
	00 00		 npad	 7
$LL9@operator:
  00040	8b 01		 mov	 eax, DWORD PTR [ecx]

; 477  :             _Pnode = _Pnode->_Left;

  00042	8b f9		 mov	 edi, ecx
  00044	8b c8		 mov	 ecx, eax
  00046	80 78 0d 00	 cmp	 BYTE PTR [eax+13], 0
  0004a	74 f4		 je	 SHORT $LL9@operator
$LN10@operator:

; 54   :             }
; 55   : 
; 56   :             _Ptr = _Pnode; // ==> parent (head if end())
; 57   :         } else {
; 58   :             _Ptr = _Mytree::_Min(_Ptr->_Right); // ==> smallest of right subtree
; 59   :         }
; 60   : 
; 61   :         return *this;

  0004c	89 3e		 mov	 DWORD PTR [esi], edi

; 62   :     }

  0004e	8b c6		 mov	 eax, esi
  00050	5f		 pop	 edi
  00051	5e		 pop	 esi
  00052	c3		 ret	 0
??E?$_Tree_unchecked_const_iterator@V?$_Tree_val@U?$_Tree_simple_types@U?$pair@$$CBEV?$vector@U__SPAWNINFO@CEventLua@@V?$allocator@U__SPAWNINFO@CEventLua@@@std@@@std@@@std@@@std@@@std@@U_Iterator_base0@2@@std@@QAEAAV01@XZ ENDP ; std::_Tree_unchecked_const_iterator<std::_Tree_val<std::_Tree_simple_types<std::pair<unsigned char const ,std::vector<CEventLua::__SPAWNINFO,std::allocator<CEventLua::__SPAWNINFO> > > > >,std::_Iterator_base0>::operator++
_TEXT	ENDS
; Function compile flags: /Ogtp
; File C:\Program Files\Microsoft Visual Studio\2022\Professional\VC\Tools\MSVC\14.44.35207\include\xmemory
;	COMDAT ??$_Allocate_manually_vector_aligned@U_Default_allocate_traits@std@@@std@@YAPAXI@Z
_TEXT	SEGMENT
__Bytes$ = 8						; size = 4
??$_Allocate_manually_vector_aligned@U_Default_allocate_traits@std@@@std@@YAPAXI@Z PROC ; std::_Allocate_manually_vector_aligned<std::_Default_allocate_traits>, COMDAT

; 182  : __declspec(allocator) void* _Allocate_manually_vector_aligned(const size_t _Bytes) {

  00000	55		 push	 ebp
  00001	8b ec		 mov	 ebp, esp

; 183  :     // allocate _Bytes manually aligned to at least _Big_allocation_alignment
; 184  :     const size_t _Block_size = _Non_user_size + _Bytes;

  00003	8b 45 08	 mov	 eax, DWORD PTR __Bytes$[ebp]
  00006	8d 48 23	 lea	 ecx, DWORD PTR [eax+35]

; 185  :     if (_Block_size <= _Bytes) {

  00009	3b c8		 cmp	 ecx, eax
  0000b	0f 86 00 00 00
	00		 jbe	 ?_Throw_bad_array_new_length@std@@YAXXZ ; std::_Throw_bad_array_new_length

; 136  :         return ::operator new(_Bytes);

  00011	51		 push	 ecx
  00012	e8 00 00 00 00	 call	 ??2@YAPAXI@Z		; operator new

; 186  :         _Throw_bad_array_new_length(); // add overflow
; 187  :     }
; 188  : 
; 189  :     const uintptr_t _Ptr_container = reinterpret_cast<uintptr_t>(_Traits::_Allocate(_Block_size));

  00017	8b c8		 mov	 ecx, eax

; 136  :         return ::operator new(_Bytes);

  00019	83 c4 04	 add	 esp, 4

; 190  :     _STL_VERIFY(_Ptr_container != 0, "invalid argument"); // validate even in release since we're doing p[-1]

  0001c	85 c9		 test	 ecx, ecx
  0001e	74 0b		 je	 SHORT $LN9@Allocate_m

; 191  :     void* const _Ptr = reinterpret_cast<void*>((_Ptr_container + _Non_user_size) & ~(_Big_allocation_alignment - 1));

  00020	8d 41 23	 lea	 eax, DWORD PTR [ecx+35]
  00023	83 e0 e0	 and	 eax, -32		; ffffffe0H

; 192  :     static_cast<uintptr_t*>(_Ptr)[-1] = _Ptr_container;

  00026	89 48 fc	 mov	 DWORD PTR [eax-4], ecx

; 193  : 
; 194  : #ifdef _DEBUG
; 195  :     static_cast<uintptr_t*>(_Ptr)[-2] = _Big_allocation_sentinel;
; 196  : #endif // defined(_DEBUG)
; 197  :     return _Ptr;
; 198  : }

  00029	5d		 pop	 ebp
  0002a	c3		 ret	 0
$LN9@Allocate_m:

; 190  :     _STL_VERIFY(_Ptr_container != 0, "invalid argument"); // validate even in release since we're doing p[-1]

  0002b	6a 00		 push	 0
  0002d	6a 00		 push	 0
  0002f	6a 00		 push	 0
  00031	6a 00		 push	 0
  00033	6a 00		 push	 0
  00035	e8 00 00 00 00	 call	 __invoke_watson
$LN7@Allocate_m:
  0003a	cc		 int	 3
??$_Allocate_manually_vector_aligned@U_Default_allocate_traits@std@@@std@@YAPAXI@Z ENDP ; std::_Allocate_manually_vector_aligned<std::_Default_allocate_traits>
_TEXT	ENDS
; Function compile flags: /Ogtp
; File C:\Program Files\Microsoft Visual Studio\2022\Professional\VC\Tools\MSVC\14.44.35207\include\xtree
; File C:\Program Files\Microsoft Visual Studio\2022\Professional\VC\Tools\MSVC\14.44.35207\include\utility
; File C:\Program Files\Microsoft Visual Studio\2022\Professional\VC\Tools\MSVC\14.44.35207\include\xmemory
; File C:\Program Files\Microsoft Visual Studio\2022\Professional\VC\Tools\MSVC\14.44.35207\include\xtree
;	COMDAT ??$_Erase_tree@V?$allocator@U?$_Tree_node@U?$pair@$$CBKE@std@@PAX@std@@@std@@@?$_Tree_val@U?$_Tree_simple_types@U?$pair@$$CBKE@std@@@std@@@std@@QAEXAAV?$allocator@U?$_Tree_node@U?$pair@$$CBKE@std@@PAX@std@@@1@PAU?$_Tree_node@U?$pair@$$CBKE@std@@PAX@1@@Z
_TEXT	SEGMENT
__Al$ = 8						; size = 4
__Rootnode$ = 12					; size = 4
??$_Erase_tree@V?$allocator@U?$_Tree_node@U?$pair@$$CBKE@std@@PAX@std@@@std@@@?$_Tree_val@U?$_Tree_simple_types@U?$pair@$$CBKE@std@@@std@@@std@@QAEXAAV?$allocator@U?$_Tree_node@U?$pair@$$CBKE@std@@PAX@std@@@1@PAU?$_Tree_node@U?$pair@$$CBKE@std@@PAX@1@@Z PROC ; std::_Tree_val<std::_Tree_simple_types<std::pair<unsigned long const ,unsigned char> > >::_Erase_tree<std::allocator<std::_Tree_node<std::pair<unsigned long const ,unsigned char>,void *> > >, COMDAT
; _this$ = ecx

; 767  :     void _Erase_tree(_Alnode& _Al, _Nodeptr _Rootnode) noexcept {

  00000	55		 push	 ebp
  00001	8b ec		 mov	 ebp, esp
  00003	53		 push	 ebx
  00004	56		 push	 esi

; 768  :         while (!_Rootnode->_Isnil) { // free subtrees, then node

  00005	8b 75 0c	 mov	 esi, DWORD PTR __Rootnode$[ebp]
  00008	8b d9		 mov	 ebx, ecx
  0000a	80 7e 0d 00	 cmp	 BYTE PTR [esi+13], 0
  0000e	75 25		 jne	 SHORT $LN34@Erase_tree
  00010	57		 push	 edi
  00011	8b 7d 08	 mov	 edi, DWORD PTR __Al$[ebp]
$LL2@Erase_tree:

; 769  :             _Erase_tree(_Al, _Rootnode->_Right);

  00014	ff 76 08	 push	 DWORD PTR [esi+8]
  00017	8b cb		 mov	 ecx, ebx
  00019	57		 push	 edi
  0001a	e8 00 00 00 00	 call	 ??$_Erase_tree@V?$allocator@U?$_Tree_node@U?$pair@$$CBKE@std@@PAX@std@@@std@@@?$_Tree_val@U?$_Tree_simple_types@U?$pair@$$CBKE@std@@@std@@@std@@QAEXAAV?$allocator@U?$_Tree_node@U?$pair@$$CBKE@std@@PAX@std@@@1@PAU?$_Tree_node@U?$pair@$$CBKE@std@@PAX@1@@Z ; std::_Tree_val<std::_Tree_simple_types<std::pair<unsigned long const ,unsigned char> > >::_Erase_tree<std::allocator<std::_Tree_node<std::pair<unsigned long const ,unsigned char>,void *> > >
; File C:\Program Files\Microsoft Visual Studio\2022\Professional\VC\Tools\MSVC\14.44.35207\include\utility

; 773  :     _Ty _Old_val = static_cast<_Ty&&>(_Val);

  0001f	8b c6		 mov	 eax, esi

; 774  :     _Val         = static_cast<_Other&&>(_New_val);

  00021	8b 36		 mov	 esi, DWORD PTR [esi]
; File C:\Program Files\Microsoft Visual Studio\2022\Professional\VC\Tools\MSVC\14.44.35207\include\xmemory

; 289  :         ::operator delete(_Ptr, _Bytes);

  00023	6a 18		 push	 24			; 00000018H
  00025	50		 push	 eax
  00026	e8 00 00 00 00	 call	 ??3@YAXPAXI@Z		; operator delete
  0002b	83 c4 08	 add	 esp, 8
; File C:\Program Files\Microsoft Visual Studio\2022\Professional\VC\Tools\MSVC\14.44.35207\include\xtree

; 768  :         while (!_Rootnode->_Isnil) { // free subtrees, then node

  0002e	80 7e 0d 00	 cmp	 BYTE PTR [esi+13], 0
  00032	74 e0		 je	 SHORT $LL2@Erase_tree
  00034	5f		 pop	 edi
$LN34@Erase_tree:
  00035	5e		 pop	 esi

; 770  :             _Alnode::value_type::_Freenode(_Al, _STD exchange(_Rootnode, _Rootnode->_Left));
; 771  :         }
; 772  :     }

  00036	5b		 pop	 ebx
  00037	5d		 pop	 ebp
  00038	c2 08 00	 ret	 8
??$_Erase_tree@V?$allocator@U?$_Tree_node@U?$pair@$$CBKE@std@@PAX@std@@@std@@@?$_Tree_val@U?$_Tree_simple_types@U?$pair@$$CBKE@std@@@std@@@std@@QAEXAAV?$allocator@U?$_Tree_node@U?$pair@$$CBKE@std@@PAX@std@@@1@PAU?$_Tree_node@U?$pair@$$CBKE@std@@PAX@1@@Z ENDP ; std::_Tree_val<std::_Tree_simple_types<std::pair<unsigned long const ,unsigned char> > >::_Erase_tree<std::allocator<std::_Tree_node<std::pair<unsigned long const ,unsigned char>,void *> > >
_TEXT	ENDS
; Function compile flags: /Ogtp
; File C:\Program Files\Microsoft Visual Studio\2022\Professional\VC\Tools\MSVC\14.44.35207\include\xutility
;	COMDAT ??$_Copy_memmove@PAEPAE@std@@YAPAEPAE00@Z
_TEXT	SEGMENT
__First$ = 8						; size = 4
__Last$ = 12						; size = 4
__Dest$ = 16						; size = 4
??$_Copy_memmove@PAEPAE@std@@YAPAEPAE00@Z PROC		; std::_Copy_memmove<unsigned char *,unsigned char *>, COMDAT

; 4762 : _OutCtgIt _Copy_memmove(_CtgIt _First, _CtgIt _Last, _OutCtgIt _Dest) {

  00000	55		 push	 ebp
  00001	8b ec		 mov	 ebp, esp

; 4763 :     _STL_INTERNAL_CHECK(_First <= _Last);
; 4764 :     const auto _First_ptr    = _STD _To_address(_First);
; 4765 :     const auto _Last_ptr     = _STD _To_address(_Last);
; 4766 :     const auto _Object_count = static_cast<size_t>(_Last_ptr - _First_ptr);

  00003	8b 4d 08	 mov	 ecx, DWORD PTR __First$[ebp]
  00006	8b 45 0c	 mov	 eax, DWORD PTR __Last$[ebp]
  00009	2b c1		 sub	 eax, ecx

; 4767 :     const auto _First_ch     = const_cast<const char*>(reinterpret_cast<const volatile char*>(_First_ptr));
; 4768 :     const auto _Last_ch      = const_cast<const char*>(reinterpret_cast<const volatile char*>(_Last_ptr));
; 4769 :     const auto _Byte_count   = static_cast<size_t>(_Last_ch - _First_ch);
; 4770 :     return _STD _Copy_memmove_tail(_First_ch, _STD move(_Dest), _Byte_count, _Object_count);

  0000b	50		 push	 eax
  0000c	50		 push	 eax
  0000d	ff 75 10	 push	 DWORD PTR __Dest$[ebp]
  00010	51		 push	 ecx
  00011	e8 00 00 00 00	 call	 ??$_Copy_memmove_tail@PAE@std@@YAPAEQBDQAEII@Z ; std::_Copy_memmove_tail<unsigned char *>
  00016	83 c4 10	 add	 esp, 16			; 00000010H

; 4771 : }

  00019	5d		 pop	 ebp
  0001a	c3		 ret	 0
??$_Copy_memmove@PAEPAE@std@@YAPAEPAE00@Z ENDP		; std::_Copy_memmove<unsigned char *,unsigned char *>
_TEXT	ENDS
; Function compile flags: /Ogtp
; File C:\Program Files\Microsoft Visual Studio\2022\Professional\VC\Tools\MSVC\14.44.35207\include\xutility
;	COMDAT ??$_Copy_memmove_tail@PAE@std@@YAPAEQBDQAEII@Z
_TEXT	SEGMENT
__First_ch$ = 8						; size = 4
__Dest$ = 12						; size = 4
__Byte_count$ = 16					; size = 4
__Object_count$ = 20					; size = 4
??$_Copy_memmove_tail@PAE@std@@YAPAEQBDQAEII@Z PROC	; std::_Copy_memmove_tail<unsigned char *>, COMDAT

; 4747 :     const char* const _First_ch, const _OutCtgIt _Dest, const size_t _Byte_count, const size_t _Object_count) {

  00000	55		 push	 ebp
  00001	8b ec		 mov	 ebp, esp
  00003	56		 push	 esi

; 4748 :     _STL_INTERNAL_CHECK(_Byte_count == _Object_count * sizeof(*_Dest));
; 4749 :     const auto _Dest_ptr = _STD _To_address(_Dest);
; 4750 :     const auto _Dest_ch  = const_cast<char*>(reinterpret_cast<const volatile char*>(_Dest_ptr));
; 4751 :     _CSTD memmove(_Dest_ch, _First_ch, _Byte_count);

  00004	8b 75 0c	 mov	 esi, DWORD PTR __Dest$[ebp]
  00007	57		 push	 edi
  00008	8b 7d 10	 mov	 edi, DWORD PTR __Byte_count$[ebp]
  0000b	57		 push	 edi
  0000c	ff 75 08	 push	 DWORD PTR __First_ch$[ebp]
  0000f	56		 push	 esi
  00010	e8 00 00 00 00	 call	 _memmove
  00015	83 c4 0c	 add	 esp, 12			; 0000000cH

; 4752 :     if constexpr (is_pointer_v<_OutCtgIt>) {
; 4753 :         (void) _Object_count;
; 4754 :         // CodeQL [SM02986] This cast is correct: we're bypassing pointer arithmetic for performance.
; 4755 :         return reinterpret_cast<_OutCtgIt>(_Dest_ch + _Byte_count);

  00018	8d 04 3e	 lea	 eax, DWORD PTR [esi+edi]
  0001b	5f		 pop	 edi
  0001c	5e		 pop	 esi

; 4756 :     } else {
; 4757 :         return _Dest + static_cast<_Iter_diff_t<_OutCtgIt>>(_Object_count);
; 4758 :     }
; 4759 : }

  0001d	5d		 pop	 ebp
  0001e	c3		 ret	 0
??$_Copy_memmove_tail@PAE@std@@YAPAEQBDQAEII@Z ENDP	; std::_Copy_memmove_tail<unsigned char *>
_TEXT	ENDS
; Function compile flags: /Ogtp
; File C:\Program Files\Microsoft Visual Studio\2022\Professional\VC\Tools\MSVC\14.44.35207\include\xtree
; File C:\Program Files\Microsoft Visual Studio\2022\Professional\VC\Tools\MSVC\14.44.35207\include\utility
; File C:\Program Files\Microsoft Visual Studio\2022\Professional\VC\Tools\MSVC\14.44.35207\include\xmemory
; File C:\Program Files\Microsoft Visual Studio\2022\Professional\VC\Tools\MSVC\14.44.35207\include\xtree
;	COMDAT ??$_Erase_tree@V?$allocator@U?$_Tree_node@U?$pair@$$CBKH@std@@PAX@std@@@std@@@?$_Tree_val@U?$_Tree_simple_types@U?$pair@$$CBKH@std@@@std@@@std@@QAEXAAV?$allocator@U?$_Tree_node@U?$pair@$$CBKH@std@@PAX@std@@@1@PAU?$_Tree_node@U?$pair@$$CBKH@std@@PAX@1@@Z
_TEXT	SEGMENT
__Al$ = 8						; size = 4
__Rootnode$ = 12					; size = 4
??$_Erase_tree@V?$allocator@U?$_Tree_node@U?$pair@$$CBKH@std@@PAX@std@@@std@@@?$_Tree_val@U?$_Tree_simple_types@U?$pair@$$CBKH@std@@@std@@@std@@QAEXAAV?$allocator@U?$_Tree_node@U?$pair@$$CBKH@std@@PAX@std@@@1@PAU?$_Tree_node@U?$pair@$$CBKH@std@@PAX@1@@Z PROC ; std::_Tree_val<std::_Tree_simple_types<std::pair<unsigned long const ,int> > >::_Erase_tree<std::allocator<std::_Tree_node<std::pair<unsigned long const ,int>,void *> > >, COMDAT
; _this$ = ecx

; 767  :     void _Erase_tree(_Alnode& _Al, _Nodeptr _Rootnode) noexcept {

  00000	55		 push	 ebp
  00001	8b ec		 mov	 ebp, esp
  00003	53		 push	 ebx
  00004	56		 push	 esi

; 768  :         while (!_Rootnode->_Isnil) { // free subtrees, then node

  00005	8b 75 0c	 mov	 esi, DWORD PTR __Rootnode$[ebp]
  00008	8b d9		 mov	 ebx, ecx
  0000a	80 7e 0d 00	 cmp	 BYTE PTR [esi+13], 0
  0000e	75 25		 jne	 SHORT $LN34@Erase_tree
  00010	57		 push	 edi
  00011	8b 7d 08	 mov	 edi, DWORD PTR __Al$[ebp]
$LL2@Erase_tree:

; 769  :             _Erase_tree(_Al, _Rootnode->_Right);

  00014	ff 76 08	 push	 DWORD PTR [esi+8]
  00017	8b cb		 mov	 ecx, ebx
  00019	57		 push	 edi
  0001a	e8 00 00 00 00	 call	 ??$_Erase_tree@V?$allocator@U?$_Tree_node@U?$pair@$$CBKH@std@@PAX@std@@@std@@@?$_Tree_val@U?$_Tree_simple_types@U?$pair@$$CBKH@std@@@std@@@std@@QAEXAAV?$allocator@U?$_Tree_node@U?$pair@$$CBKH@std@@PAX@std@@@1@PAU?$_Tree_node@U?$pair@$$CBKH@std@@PAX@1@@Z ; std::_Tree_val<std::_Tree_simple_types<std::pair<unsigned long const ,int> > >::_Erase_tree<std::allocator<std::_Tree_node<std::pair<unsigned long const ,int>,void *> > >
; File C:\Program Files\Microsoft Visual Studio\2022\Professional\VC\Tools\MSVC\14.44.35207\include\utility

; 773  :     _Ty _Old_val = static_cast<_Ty&&>(_Val);

  0001f	8b c6		 mov	 eax, esi

; 774  :     _Val         = static_cast<_Other&&>(_New_val);

  00021	8b 36		 mov	 esi, DWORD PTR [esi]
; File C:\Program Files\Microsoft Visual Studio\2022\Professional\VC\Tools\MSVC\14.44.35207\include\xmemory

; 289  :         ::operator delete(_Ptr, _Bytes);

  00023	6a 18		 push	 24			; 00000018H
  00025	50		 push	 eax
  00026	e8 00 00 00 00	 call	 ??3@YAXPAXI@Z		; operator delete
  0002b	83 c4 08	 add	 esp, 8
; File C:\Program Files\Microsoft Visual Studio\2022\Professional\VC\Tools\MSVC\14.44.35207\include\xtree

; 768  :         while (!_Rootnode->_Isnil) { // free subtrees, then node

  0002e	80 7e 0d 00	 cmp	 BYTE PTR [esi+13], 0
  00032	74 e0		 je	 SHORT $LL2@Erase_tree
  00034	5f		 pop	 edi
$LN34@Erase_tree:
  00035	5e		 pop	 esi

; 770  :             _Alnode::value_type::_Freenode(_Al, _STD exchange(_Rootnode, _Rootnode->_Left));
; 771  :         }
; 772  :     }

  00036	5b		 pop	 ebx
  00037	5d		 pop	 ebp
  00038	c2 08 00	 ret	 8
??$_Erase_tree@V?$allocator@U?$_Tree_node@U?$pair@$$CBKH@std@@PAX@std@@@std@@@?$_Tree_val@U?$_Tree_simple_types@U?$pair@$$CBKH@std@@@std@@@std@@QAEXAAV?$allocator@U?$_Tree_node@U?$pair@$$CBKH@std@@PAX@std@@@1@PAU?$_Tree_node@U?$pair@$$CBKH@std@@PAX@1@@Z ENDP ; std::_Tree_val<std::_Tree_simple_types<std::pair<unsigned long const ,int> > >::_Erase_tree<std::allocator<std::_Tree_node<std::pair<unsigned long const ,int>,void *> > >
_TEXT	ENDS
; Function compile flags: /Ogtp
; File C:\Program Files\Microsoft Visual Studio\2022\Professional\VC\Tools\MSVC\14.44.35207\include\xutility
;	COMDAT ??$_Copy_memmove_n@PBEPAE@std@@YAPAEPBEIPAE@Z
_TEXT	SEGMENT
__First$ = 8						; size = 4
__Object_count$ = 12					; size = 4
__Dest$ = 16						; size = 4
??$_Copy_memmove_n@PBEPAE@std@@YAPAEPBEIPAE@Z PROC	; std::_Copy_memmove_n<unsigned char const *,unsigned char *>, COMDAT

; 4774 : _OutCtgIt _Copy_memmove_n(_CtgIt _First, const size_t _Object_count, _OutCtgIt _Dest) {

  00000	55		 push	 ebp
  00001	8b ec		 mov	 ebp, esp

; 4775 :     const auto _First_ptr  = _STD _To_address(_First);
; 4776 :     const auto _First_ch   = const_cast<const char*>(reinterpret_cast<const volatile char*>(_First_ptr));
; 4777 :     const auto _Byte_count = _Object_count * sizeof(*_First_ptr);
; 4778 :     return _STD _Copy_memmove_tail(_First_ch, _STD move(_Dest), _Byte_count, _Object_count);

  00003	8b 45 0c	 mov	 eax, DWORD PTR __Object_count$[ebp]
  00006	50		 push	 eax
  00007	50		 push	 eax
  00008	ff 75 10	 push	 DWORD PTR __Dest$[ebp]
  0000b	ff 75 08	 push	 DWORD PTR __First$[ebp]
  0000e	e8 00 00 00 00	 call	 ??$_Copy_memmove_tail@PAE@std@@YAPAEQBDQAEII@Z ; std::_Copy_memmove_tail<unsigned char *>
  00013	83 c4 10	 add	 esp, 16			; 00000010H

; 4779 : }

  00016	5d		 pop	 ebp
  00017	c3		 ret	 0
??$_Copy_memmove_n@PBEPAE@std@@YAPAEPBEIPAE@Z ENDP	; std::_Copy_memmove_n<unsigned char const *,unsigned char *>
_TEXT	ENDS
; Function compile flags: /Ogtp
; File C:\Program Files\Microsoft Visual Studio\2022\Professional\VC\Tools\MSVC\14.44.35207\include\xtree
;	COMDAT ??E?$_Tree_unchecked_const_iterator@V?$_Tree_val@U?$_Tree_simple_types@U?$pair@$$CBKE@std@@@std@@@std@@U_Iterator_base0@2@@std@@QAEAAV01@XZ
_TEXT	SEGMENT
??E?$_Tree_unchecked_const_iterator@V?$_Tree_val@U?$_Tree_simple_types@U?$pair@$$CBKE@std@@@std@@@std@@U_Iterator_base0@2@@std@@QAEAAV01@XZ PROC ; std::_Tree_unchecked_const_iterator<std::_Tree_val<std::_Tree_simple_types<std::pair<unsigned long const ,unsigned char> > >,std::_Iterator_base0>::operator++, COMDAT
; _this$ = ecx

; 49   :     _Tree_unchecked_const_iterator& operator++() noexcept {

  00000	56		 push	 esi
  00001	8b f1		 mov	 esi, ecx
  00003	57		 push	 edi

; 50   :         if (_Ptr->_Right->_Isnil) { // climb looking for right subtree

  00004	8b 16		 mov	 edx, DWORD PTR [esi]
  00006	8b 7a 08	 mov	 edi, DWORD PTR [edx+8]
  00009	80 7f 0d 00	 cmp	 BYTE PTR [edi+13], 0
  0000d	74 22		 je	 SHORT $LN4@operator

; 51   :             _Nodeptr _Pnode;
; 52   :             while (!(_Pnode = _Ptr->_Parent)->_Isnil && _Ptr == _Pnode->_Right) {

  0000f	8b 42 04	 mov	 eax, DWORD PTR [edx+4]
  00012	80 78 0d 00	 cmp	 BYTE PTR [eax+13], 0
  00016	75 12		 jne	 SHORT $LN21@operator
$LL2@operator:
  00018	3b 50 08	 cmp	 edx, DWORD PTR [eax+8]
  0001b	75 0d		 jne	 SHORT $LN21@operator

; 53   :                 _Ptr = _Pnode; // ==> parent while right subtree

  0001d	89 06		 mov	 DWORD PTR [esi], eax
  0001f	8b d0		 mov	 edx, eax
  00021	8b 40 04	 mov	 eax, DWORD PTR [eax+4]
  00024	80 78 0d 00	 cmp	 BYTE PTR [eax+13], 0
  00028	74 ee		 je	 SHORT $LL2@operator
$LN21@operator:

; 54   :             }
; 55   : 
; 56   :             _Ptr = _Pnode; // ==> parent (head if end())
; 57   :         } else {
; 58   :             _Ptr = _Mytree::_Min(_Ptr->_Right); // ==> smallest of right subtree
; 59   :         }
; 60   : 
; 61   :         return *this;

  0002a	89 06		 mov	 DWORD PTR [esi], eax

; 62   :     }

  0002c	8b c6		 mov	 eax, esi
  0002e	5f		 pop	 edi
  0002f	5e		 pop	 esi
  00030	c3		 ret	 0
$LN4@operator:

; 476  :         while (!_Pnode->_Left->_Isnil) {

  00031	8b 0f		 mov	 ecx, DWORD PTR [edi]
  00033	80 79 0d 00	 cmp	 BYTE PTR [ecx+13], 0
  00037	75 13		 jne	 SHORT $LN10@operator
  00039	0f 1f 80 00 00
	00 00		 npad	 7
$LL9@operator:
  00040	8b 01		 mov	 eax, DWORD PTR [ecx]

; 477  :             _Pnode = _Pnode->_Left;

  00042	8b f9		 mov	 edi, ecx
  00044	8b c8		 mov	 ecx, eax
  00046	80 78 0d 00	 cmp	 BYTE PTR [eax+13], 0
  0004a	74 f4		 je	 SHORT $LL9@operator
$LN10@operator:

; 54   :             }
; 55   : 
; 56   :             _Ptr = _Pnode; // ==> parent (head if end())
; 57   :         } else {
; 58   :             _Ptr = _Mytree::_Min(_Ptr->_Right); // ==> smallest of right subtree
; 59   :         }
; 60   : 
; 61   :         return *this;

  0004c	89 3e		 mov	 DWORD PTR [esi], edi

; 62   :     }

  0004e	8b c6		 mov	 eax, esi
  00050	5f		 pop	 edi
  00051	5e		 pop	 esi
  00052	c3		 ret	 0
??E?$_Tree_unchecked_const_iterator@V?$_Tree_val@U?$_Tree_simple_types@U?$pair@$$CBKE@std@@@std@@@std@@U_Iterator_base0@2@@std@@QAEAAV01@XZ ENDP ; std::_Tree_unchecked_const_iterator<std::_Tree_val<std::_Tree_simple_types<std::pair<unsigned long const ,unsigned char> > >,std::_Iterator_base0>::operator++
_TEXT	ENDS
; Function compile flags: /Ogtp
;	COMDAT ??_GCEventLua@@UAEPAXI@Z
_TEXT	SEGMENT
___flags$ = 8						; size = 4
??_GCEventLua@@UAEPAXI@Z PROC				; CEventLua::`scalar deleting destructor', COMDAT
; _this$ = ecx
  00000	55		 push	 ebp
  00001	8b ec		 mov	 ebp, esp
  00003	56		 push	 esi
  00004	8b f1		 mov	 esi, ecx
  00006	e8 00 00 00 00	 call	 ??1CEventLua@@UAE@XZ	; CEventLua::~CEventLua
  0000b	f6 45 08 01	 test	 BYTE PTR ___flags$[ebp], 1
  0000f	74 0e		 je	 SHORT $LN5@scalar
  00011	68 94 00 00 00	 push	 148			; 00000094H
  00016	56		 push	 esi
  00017	e8 00 00 00 00	 call	 ??3@YAXPAXI@Z		; operator delete
  0001c	83 c4 08	 add	 esp, 8
$LN5@scalar:
  0001f	8b c6		 mov	 eax, esi
  00021	5e		 pop	 esi
  00022	5d		 pop	 ebp
  00023	c2 04 00	 ret	 4
??_GCEventLua@@UAEPAXI@Z ENDP				; CEventLua::`scalar deleting destructor'
_TEXT	ENDS
; Function compile flags: /Ogtp
; File C:\IAGOS\server\v18\Source\Source\_Common\EventLua.cpp
; File C:\Program Files\Microsoft Visual Studio\2022\Professional\VC\Tools\MSVC\14.44.35207\include\vector
; File C:\IAGOS\server\v18\Source\Source\_Common\EventLua.cpp
; File C:\Program Files\Microsoft Visual Studio\2022\Professional\VC\Tools\MSVC\14.44.35207\include\vector
; File C:\IAGOS\server\v18\Source\Source\_Common\EventLua.cpp
; File C:\Program Files\Microsoft Visual Studio\2022\Professional\VC\Tools\MSVC\14.44.35207\include\vector
; File C:\Program Files\Microsoft Visual Studio\2022\Professional\VC\Tools\MSVC\14.44.35207\include\xtree
; File C:\IAGOS\server\v18\Source\Source\_Common\EventLua.cpp
; File C:\Program Files\Microsoft Visual Studio\2022\Professional\VC\Tools\MSVC\14.44.35207\include\xtree
; File C:\IAGOS\server\v18\Source\Source\_Common\EventLua.cpp
;	COMDAT ?KeepConnectEventProcess@CEventLua@@QAEXXZ
_TEXT	SEGMENT
_nVecSize$1$ = -204					; size = 4
_nCount$1$ = -196					; size = 4
_itemElem$2 = -192					; size = 176
__$ArrayPad$ = -16					; size = 4
__$EHRec$ = -12						; size = 12
?KeepConnectEventProcess@CEventLua@@QAEXXZ PROC		; CEventLua::KeepConnectEventProcess, COMDAT
; _this$ = ecx

; 842  : {

  00000	55		 push	 ebp
  00001	8b ec		 mov	 ebp, esp
  00003	6a ff		 push	 -1
  00005	68 00 00 00 00	 push	 __ehhandler$?KeepConnectEventProcess@CEventLua@@QAEXXZ
  0000a	64 a1 00 00 00
	00		 mov	 eax, DWORD PTR fs:0
  00010	50		 push	 eax
  00011	81 ec c0 00 00
	00		 sub	 esp, 192		; 000000c0H
  00017	a1 00 00 00 00	 mov	 eax, DWORD PTR ___security_cookie
  0001c	33 c5		 xor	 eax, ebp
  0001e	89 45 f0	 mov	 DWORD PTR __$ArrayPad$[ebp], eax
  00021	53		 push	 ebx
  00022	56		 push	 esi
  00023	57		 push	 edi
  00024	50		 push	 eax
  00025	8d 45 f4	 lea	 eax, DWORD PTR __$EHRec$[ebp]
  00028	64 a3 00 00 00
	00		 mov	 DWORD PTR fs:0, eax
  0002e	8b f9		 mov	 edi, ecx

; 843  : 	if( !IsPossible() )

  00030	83 7f 04 00	 cmp	 DWORD PTR [edi+4], 0
  00034	0f 84 1a 01 00
	00		 je	 $LN92@KeepConnec
; File C:\Program Files\Microsoft Visual Studio\2022\Professional\VC\Tools\MSVC\14.44.35207\include\vector

; 1915 :         return static_cast<size_type>(_My_data._Mylast - _My_data._Myfirst);

  0003a	8b 87 84 00 00
	00		 mov	 eax, DWORD PTR [edi+132]
  00040	2b 87 80 00 00
	00		 sub	 eax, DWORD PTR [edi+128]
  00046	c1 f8 02	 sar	 eax, 2
  00049	89 85 34 ff ff
	ff		 mov	 DWORD PTR _nVecSize$1$[ebp], eax
; File C:\IAGOS\server\v18\Source\Source\_Common\EventLua.cpp

; 847  : 	if( !nVecSize )

  0004f	85 c0		 test	 eax, eax
  00051	0f 84 fd 00 00
	00		 je	 $LN92@KeepConnec

; 848  : 		return;
; 849  : 	
; 850  : 	u_long idPlayer;
; 851  : 	int nCount = 0;

  00057	33 db		 xor	 ebx, ebx
  00059	89 9d 3c ff ff
	ff		 mov	 DWORD PTR _nCount$1$[ebp], ebx

; 852  : 
; 853  : 	for( int i = 0; i < nVecSize; ++i )

  0005f	85 c0		 test	 eax, eax
  00061	0f 8e ed 00 00
	00		 jle	 $LN92@KeepConnec
$LL4@KeepConnec:

; 854  : 	{
; 855  : 		if( nCount >= 10 )

  00067	83 fb 0a	 cmp	 ebx, 10			; 0000000aH
  0006a	0f 83 e4 00 00
	00		 jae	 $LN92@KeepConnec
; File C:\Program Files\Microsoft Visual Studio\2022\Professional\VC\Tools\MSVC\14.44.35207\include\vector

; 1989 :         return _My_data._Mylast[-1];

  00070	8b 87 84 00 00
	00		 mov	 eax, DWORD PTR [edi+132]
  00076	83 c0 fc	 add	 eax, -4			; fffffffcH
; File C:\IAGOS\server\v18\Source\Source\_Common\EventLua.cpp

; 858  : 		idPlayer = m_vecKeepConnectUser.back();

  00079	8b 08		 mov	 ecx, DWORD PTR [eax]
; File C:\Program Files\Microsoft Visual Studio\2022\Professional\VC\Tools\MSVC\14.44.35207\include\vector

; 1759 :         --_Mylast;

  0007b	89 87 84 00 00
	00		 mov	 DWORD PTR [edi+132], eax
; File C:\Program Files\Microsoft Visual Studio\2022\Professional\VC\Tools\MSVC\14.44.35207\include\xtree

; 1142 :         return iterator(_Scary->_Myhead->_Left, _Scary);

  00081	8b 87 8c 00 00
	00		 mov	 eax, DWORD PTR [edi+140]

; 37   :     _Tree_unchecked_const_iterator(_Nodeptr _Pnode, const _Mytree* _Plist) noexcept : _Ptr(_Pnode) {

  00087	8b 30		 mov	 esi, DWORD PTR [eax]

; 237  :         return !(*this == _Right);

  00089	3b f0		 cmp	 esi, eax
; File C:\IAGOS\server\v18\Source\Source\_Common\EventLua.cpp

; 861  : 		for( map<DWORD, int>::iterator it = m_mapItemList.begin(); it != m_mapItemList.end(); ++it )

  0008b	0f 84 b0 00 00
	00		 je	 $LN6@KeepConnec
  00091	8b d9		 mov	 ebx, ecx
$LL7@KeepConnec:

; 862  : 		{
; 863  : 			CItemElem itemElem;

  00093	8d 8d 40 ff ff
	ff		 lea	 ecx, DWORD PTR _itemElem$2[ebp]
  00099	e8 00 00 00 00	 call	 ??0CItemElem@@QAE@XZ	; CItemElem::CItemElem

; 864  : 			itemElem.m_dwItemId = it->first;

  0009e	8b 46 10	 mov	 eax, DWORD PTR [esi+16]

; 865  : 			itemElem.m_nItemNum	= it->second;
; 866  : 			itemElem.SetSerialNumber();

  000a1	8d 8d 40 ff ff
	ff		 lea	 ecx, DWORD PTR _itemElem$2[ebp]
  000a7	89 85 4c ff ff
	ff		 mov	 DWORD PTR _itemElem$2[ebp+12], eax
  000ad	66 8b 46 14	 mov	 ax, WORD PTR [esi+20]
  000b1	c7 45 fc 00 00
	00 00		 mov	 DWORD PTR __$EHRec$[ebp+8], 0
  000b8	66 89 45 b4	 mov	 WORD PTR _itemElem$2[ebp+116], ax
  000bc	e8 00 00 00 00	 call	 ?SetSerialNumber@CItemBase@@QAEXXZ ; CItemBase::SetSerialNumber

; 867  : 			
; 868  : 			g_dpDBClient.SendQueryPostMail( idPlayer, 0, itemElem, 0, "", "" );

  000c1	68 00 00 00 00	 push	 OFFSET ??_C@_00CNPNBAHC@@
  000c6	68 00 00 00 00	 push	 OFFSET ??_C@_00CNPNBAHC@@
  000cb	6a 00		 push	 0
  000cd	8d 85 40 ff ff
	ff		 lea	 eax, DWORD PTR _itemElem$2[ebp]
  000d3	b9 00 00 00 00	 mov	 ecx, OFFSET ?g_dpDBClient@@3VCDPDatabaseClient@@A ; g_dpDBClient
  000d8	50		 push	 eax
  000d9	6a 00		 push	 0
  000db	53		 push	 ebx
  000dc	e8 00 00 00 00	 call	 ?SendQueryPostMail@CDPDatabaseClient@@QAEXKKAAVCItemElem@@HPAD1@Z ; CDPDatabaseClient::SendQueryPostMail

; 869  : 		}

  000e1	8d 8d 40 ff ff
	ff		 lea	 ecx, DWORD PTR _itemElem$2[ebp]
  000e7	c7 45 fc ff ff
	ff ff		 mov	 DWORD PTR __$EHRec$[ebp+8], -1
  000ee	e8 00 00 00 00	 call	 ??1CItemElem@@UAE@XZ	; CItemElem::~CItemElem
; File C:\Program Files\Microsoft Visual Studio\2022\Professional\VC\Tools\MSVC\14.44.35207\include\xtree

; 50   :         if (_Ptr->_Right->_Isnil) { // climb looking for right subtree

  000f3	8b 46 08	 mov	 eax, DWORD PTR [esi+8]
  000f6	80 78 0d 00	 cmp	 BYTE PTR [eax+13], 0
  000fa	74 1d		 je	 SHORT $LN43@KeepConnec

; 51   :             _Nodeptr _Pnode;
; 52   :             while (!(_Pnode = _Ptr->_Parent)->_Isnil && _Ptr == _Pnode->_Right) {

  000fc	8b 46 04	 mov	 eax, DWORD PTR [esi+4]
  000ff	80 78 0d 00	 cmp	 BYTE PTR [eax+13], 0
  00103	75 10		 jne	 SHORT $LN42@KeepConnec
$LL41@KeepConnec:
  00105	3b 70 08	 cmp	 esi, DWORD PTR [eax+8]
  00108	75 0b		 jne	 SHORT $LN42@KeepConnec

; 53   :                 _Ptr = _Pnode; // ==> parent while right subtree

  0010a	8b f0		 mov	 esi, eax
  0010c	8b 40 04	 mov	 eax, DWORD PTR [eax+4]
  0010f	80 78 0d 00	 cmp	 BYTE PTR [eax+13], 0
  00113	74 f0		 je	 SHORT $LL41@KeepConnec
$LN42@KeepConnec:

; 54   :             }
; 55   : 
; 56   :             _Ptr = _Pnode; // ==> parent (head if end())

  00115	8b f0		 mov	 esi, eax

; 57   :         } else {

  00117	eb 16		 jmp	 SHORT $LN95@KeepConnec
$LN43@KeepConnec:

; 58   :             _Ptr = _Mytree::_Min(_Ptr->_Right); // ==> smallest of right subtree

  00119	8b f0		 mov	 esi, eax

; 476  :         while (!_Pnode->_Left->_Isnil) {

  0011b	8b 0e		 mov	 ecx, DWORD PTR [esi]
  0011d	80 79 0d 00	 cmp	 BYTE PTR [ecx+13], 0
  00121	75 0c		 jne	 SHORT $LN95@KeepConnec
$LL48@KeepConnec:
  00123	8b 01		 mov	 eax, DWORD PTR [ecx]

; 477  :             _Pnode = _Pnode->_Left;

  00125	8b f1		 mov	 esi, ecx
  00127	8b c8		 mov	 ecx, eax
  00129	80 78 0d 00	 cmp	 BYTE PTR [eax+13], 0
  0012d	74 f4		 je	 SHORT $LL48@KeepConnec
$LN95@KeepConnec:

; 237  :         return !(*this == _Right);

  0012f	3b b7 8c 00 00
	00		 cmp	 esi, DWORD PTR [edi+140]
; File C:\IAGOS\server\v18\Source\Source\_Common\EventLua.cpp

; 861  : 		for( map<DWORD, int>::iterator it = m_mapItemList.begin(); it != m_mapItemList.end(); ++it )

  00135	0f 85 58 ff ff
	ff		 jne	 $LL7@KeepConnec
  0013b	8b 9d 3c ff ff
	ff		 mov	 ebx, DWORD PTR _nCount$1$[ebp]
$LN6@KeepConnec:

; 870  : 		++nCount;

  00141	43		 inc	 ebx
  00142	89 9d 3c ff ff
	ff		 mov	 DWORD PTR _nCount$1$[ebp], ebx
  00148	3b 9d 34 ff ff
	ff		 cmp	 ebx, DWORD PTR _nVecSize$1$[ebp]
  0014e	0f 8c 13 ff ff
	ff		 jl	 $LL4@KeepConnec
$LN92@KeepConnec:

; 871  : 	}
; 872  : }

  00154	8b 4d f4	 mov	 ecx, DWORD PTR __$EHRec$[ebp]
  00157	64 89 0d 00 00
	00 00		 mov	 DWORD PTR fs:0, ecx
  0015e	59		 pop	 ecx
  0015f	5f		 pop	 edi
  00160	5e		 pop	 esi
  00161	5b		 pop	 ebx
  00162	8b 4d f0	 mov	 ecx, DWORD PTR __$ArrayPad$[ebp]
  00165	33 cd		 xor	 ecx, ebp
  00167	e8 00 00 00 00	 call	 @__security_check_cookie@4
  0016c	8b e5		 mov	 esp, ebp
  0016e	5d		 pop	 ebp
  0016f	c3		 ret	 0
_TEXT	ENDS
;	COMDAT text$x
text$x	SEGMENT
__unwindfunclet$?KeepConnectEventProcess@CEventLua@@QAEXXZ$0:
  00000	8d 8d 40 ff ff
	ff		 lea	 ecx, DWORD PTR _itemElem$2[ebp]
  00006	e9 00 00 00 00	 jmp	 ??1CItemElem@@UAE@XZ	; CItemElem::~CItemElem
  0000b	cc		 int	 3
  0000c	cc		 int	 3
  0000d	cc		 int	 3
  0000e	cc		 int	 3
  0000f	cc		 int	 3
__ehhandler$?KeepConnectEventProcess@CEventLua@@QAEXXZ:
  00010	90		 npad	 1
  00011	90		 npad	 1
  00012	8b 54 24 08	 mov	 edx, DWORD PTR [esp+8]
  00016	8d 42 0c	 lea	 eax, DWORD PTR [edx+12]
  00019	8b 8a 30 ff ff
	ff		 mov	 ecx, DWORD PTR [edx-208]
  0001f	33 c8		 xor	 ecx, eax
  00021	e8 00 00 00 00	 call	 @__security_check_cookie@4
  00026	8b 4a fc	 mov	 ecx, DWORD PTR [edx-4]
  00029	33 c8		 xor	 ecx, eax
  0002b	e8 00 00 00 00	 call	 @__security_check_cookie@4
  00030	b8 00 00 00 00	 mov	 eax, OFFSET __ehfuncinfo$?KeepConnectEventProcess@CEventLua@@QAEXXZ
  00035	e9 00 00 00 00	 jmp	 ___CxxFrameHandler3
text$x	ENDS
?KeepConnectEventProcess@CEventLua@@QAEXXZ ENDP		; CEventLua::KeepConnectEventProcess
; Function compile flags: /Ogtp
; File C:\IAGOS\server\v18\Source\Source\_Common\EventLua.cpp
; File C:\IAGOS\server\v18\Source\Source\_Common\LuaBase.h
; File C:\IAGOS\server\v18\Source\Source\_Common\EventLua.cpp
; File C:\IAGOS\server\v18\Source\Source\_Common\LuaBase.h
; File C:\IAGOS\server\v18\Source\Source\_Common\EventLua.cpp
; File C:\Program Files\Microsoft Visual Studio\2022\Professional\VC\Tools\MSVC\14.44.35207\include\utility
; File C:\IAGOS\server\v18\Source\Source\_Common\EventLua.cpp
; File C:\Program Files\Microsoft Visual Studio\2022\Professional\VC\Tools\MSVC\14.44.35207\include\utility
; File C:\Program Files\Microsoft Visual Studio\2022\Professional\VC\Tools\MSVC\14.44.35207\include\xtree
; File C:\Program Files\Microsoft Visual Studio\2022\Professional\VC\Tools\MSVC\14.44.35207\include\utility
; File C:\Program Files\Microsoft Visual Studio\2022\Professional\VC\Tools\MSVC\14.44.35207\include\xtree
; File C:\Program Files\Microsoft Visual Studio\2022\Professional\VC\Tools\MSVC\14.44.35207\include\type_traits
; File C:\Program Files\Microsoft Visual Studio\2022\Professional\VC\Tools\MSVC\14.44.35207\include\xtree
; File C:\Program Files\Microsoft Visual Studio\2022\Professional\VC\Tools\MSVC\14.44.35207\include\xmemory
; File C:\Program Files\Microsoft Visual Studio\2022\Professional\VC\Tools\MSVC\14.44.35207\include\xtree
; File C:\Program Files\Microsoft Visual Studio\2022\Professional\VC\Tools\MSVC\14.44.35207\include\xmemory
; File C:\Program Files\Microsoft Visual Studio\2022\Professional\VC\Tools\MSVC\14.44.35207\include\xtree
; File C:\Program Files\Microsoft Visual Studio\2022\Professional\VC\Tools\MSVC\14.44.35207\include\xmemory
; File C:\Program Files\Microsoft Visual Studio\2022\Professional\VC\Tools\MSVC\14.44.35207\include\xtree
; File C:\Program Files\Microsoft Visual Studio\2022\Professional\VC\Tools\MSVC\14.44.35207\include\utility
; File C:\Program Files\Microsoft Visual Studio\2022\Professional\VC\Tools\MSVC\14.44.35207\include\xtree
; File C:\IAGOS\server\v18\Source\Source\_Common\EventLua.cpp
; File C:\IAGOS\server\v18\Source\Source\_Common\LuaBase.h
; File C:\IAGOS\server\v18\Source\Source\_Common\EventLua.cpp
; File C:\Program Files\Microsoft Visual Studio\2022\Professional\VC\Tools\MSVC\14.44.35207\include\xtree
; File C:\IAGOS\server\v18\Source\Source\_Common\EventLua.cpp
;	COMDAT ?GetKeepConnectItem@CEventLua@@QAEXXZ
_TEXT	SEGMENT
$T2 = -64						; size = 12
__Loc$3 = -52						; size = 12
$T4 = -40						; size = 8
tv670 = -32						; size = 8
$T5 = -24						; size = 8
$T6 = -16						; size = 4
__$EHRec$ = -12						; size = 12
?GetKeepConnectItem@CEventLua@@QAEXXZ PROC		; CEventLua::GetKeepConnectItem, COMDAT
; _this$ = ecx

; 816  : {

  00000	55		 push	 ebp
  00001	8b ec		 mov	 ebp, esp
  00003	6a ff		 push	 -1
  00005	68 00 00 00 00	 push	 __ehhandler$?GetKeepConnectItem@CEventLua@@QAEXXZ
  0000a	64 a1 00 00 00
	00		 mov	 eax, DWORD PTR fs:0
  00010	50		 push	 eax
  00011	83 ec 34	 sub	 esp, 52			; 00000034H
  00014	53		 push	 ebx
  00015	56		 push	 esi
  00016	57		 push	 edi
  00017	a1 00 00 00 00	 mov	 eax, DWORD PTR ___security_cookie
  0001c	33 c5		 xor	 eax, ebp
  0001e	50		 push	 eax
  0001f	8d 45 f4	 lea	 eax, DWORD PTR __$EHRec$[ebp]
  00022	64 a3 00 00 00
	00		 mov	 DWORD PTR fs:0, eax
  00028	8b d9		 mov	 ebx, ecx

; 817  : 	if( !IsPossible() )

  0002a	83 7b 04 00	 cmp	 DWORD PTR [ebx+4], 0
  0002e	0f 84 4f 01 00
	00		 je	 $LN1@GetKeepCon

; 818  : 		return;
; 819  : 	
; 820  : 	if( m_Lua.GetLuaFunction( "GetKeepConnectItem" ) )

  00034	8d 73 08	 lea	 esi, DWORD PTR [ebx+8]
  00037	68 00 00 00 00	 push	 OFFSET ??_C@_0BD@MDJDGFLO@GetKeepConnectItem@
  0003c	8b ce		 mov	 ecx, esi
  0003e	e8 00 00 00 00	 call	 ?GetLuaFunction@CLuaBase@@QAEHPAD@Z ; CLuaBase::GetLuaFunction
  00043	85 c0		 test	 eax, eax
  00045	0f 84 2f 01 00
	00		 je	 $LN3@GetKeepCon

; 821  : 	{
; 822  : 		m_Lua.CallLuaFunction( 0, 1 );

  0004b	6a 01		 push	 1
  0004d	6a 00		 push	 0
  0004f	8b ce		 mov	 ecx, esi
  00051	e8 00 00 00 00	 call	 ?CallLuaFunction@CLuaBase@@QAEXHH@Z ; CLuaBase::CallLuaFunction
; File C:\IAGOS\server\v18\Source\Source\_Common\LuaBase.h

; 33   : 	BOOL		IsNil( int nStackPos )						{  return lua_isnil( m_pLuaState, nStackPos );  }

  00056	6a ff		 push	 -1
  00058	ff 73 0c	 push	 DWORD PTR [ebx+12]
  0005b	e8 00 00 00 00	 call	 _lua_type
  00060	83 c4 08	 add	 esp, 8
  00063	85 c0		 test	 eax, eax
; File C:\IAGOS\server\v18\Source\Source\_Common\EventLua.cpp

; 823  : 		if( m_Lua.IsNil( -1 ) )

  00065	0f 84 0f 01 00
	00		 je	 $LN3@GetKeepCon

; 824  : 		{
; 825  : 			m_Lua.Pop(0);
; 826  : 			return;
; 827  : 		}
; 828  : 		m_mapItemList.clear();

  0006b	8d bb 8c 00 00
	00		 lea	 edi, DWORD PTR [ebx+140]
  00071	8b cf		 mov	 ecx, edi
  00073	e8 00 00 00 00	 call	 ?clear@?$_Tree@V?$_Tmap_traits@KHU?$less@K@std@@V?$allocator@U?$pair@$$CBKH@std@@@2@$0A@@std@@@std@@QAEXXZ ; std::_Tree<std::_Tmap_traits<unsigned long,int,std::less<unsigned long>,std::allocator<std::pair<unsigned long const ,int> >,0> >::clear
; File C:\IAGOS\server\v18\Source\Source\_Common\LuaBase.h

; 40   : 	void		PushNil()									{  lua_pushnil( m_pLuaState );  }

  00078	ff 73 0c	 push	 DWORD PTR [ebx+12]
  0007b	e8 00 00 00 00	 call	 _lua_pushnil

; 46   : 	int			TableLoop( int nStackPos )					{  return lua_next( m_pLuaState, nStackPos );  }	

  00080	6a fe		 push	 -2			; fffffffeH
  00082	ff 73 0c	 push	 DWORD PTR [ebx+12]
  00085	e8 00 00 00 00	 call	 _lua_next
  0008a	83 c4 0c	 add	 esp, 12			; 0000000cH
; File C:\IAGOS\server\v18\Source\Source\_Common\EventLua.cpp

; 830  : 		while( m_Lua.TableLoop(-2) )

  0008d	85 c0		 test	 eax, eax
  0008f	0f 84 e5 00 00
	00		 je	 $LN3@GetKeepCon
$LL2@GetKeepCon:

; 831  : 		{
; 832  : 			DWORD dwItemId = CScript::GetDefineNum( m_Lua.GetFieldToString( -1, "strItemId" ) );

  00095	68 00 00 00 00	 push	 OFFSET ??_C@_09OFFFBNFE@strItemId@
  0009a	6a ff		 push	 -1
  0009c	8b ce		 mov	 ecx, esi
  0009e	e8 00 00 00 00	 call	 ?GetFieldToString@CLuaBase@@QAEPBDHPAD@Z ; CLuaBase::GetFieldToString
  000a3	50		 push	 eax
  000a4	e8 00 00 00 00	 call	 ?GetDefineNum@CScript@@SAHPBD@Z ; CScript::GetDefineNum
  000a9	83 c4 04	 add	 esp, 4
  000ac	89 45 f0	 mov	 DWORD PTR $T6[ebp], eax

; 833  : 			int	nItemNum = (int)m_Lua.GetFieldToNumber( -1, "nItemNum" );

  000af	8b ce		 mov	 ecx, esi
  000b1	68 00 00 00 00	 push	 OFFSET ??_C@_08GDJLCBND@nItemNum@
  000b6	6a ff		 push	 -1
  000b8	e8 00 00 00 00	 call	 ?GetFieldToNumber@CLuaBase@@QAENHPAD@Z ; CLuaBase::GetFieldToNumber
; File C:\Program Files\Microsoft Visual Studio\2022\Professional\VC\Tools\MSVC\14.44.35207\include\utility

; 274  :         : first(_STD forward<_Other1>(_Val1)), second(_STD forward<_Other2>(_Val2)) {

  000bd	8b 45 f0	 mov	 eax, DWORD PTR $T6[ebp]
; File C:\IAGOS\server\v18\Source\Source\_Common\EventLua.cpp

; 833  : 			int	nItemNum = (int)m_Lua.GetFieldToNumber( -1, "nItemNum" );

  000c0	dd 5d e0	 fstp	 QWORD PTR tv670[ebp]
  000c3	f2 0f 2c 4d e0	 cvttsd2si ecx, QWORD PTR tv670[ebp]
; File C:\Program Files\Microsoft Visual Studio\2022\Professional\VC\Tools\MSVC\14.44.35207\include\utility

; 274  :         : first(_STD forward<_Other1>(_Val1)), second(_STD forward<_Other2>(_Val2)) {

  000c8	89 45 e8	 mov	 DWORD PTR $T5[ebp], eax
; File C:\Program Files\Microsoft Visual Studio\2022\Professional\VC\Tools\MSVC\14.44.35207\include\xtree

; 1017 :             _Loc                = _Find_lower_bound(_Keyval);

  000cb	8d 45 e8	 lea	 eax, DWORD PTR $T5[ebp]
  000ce	50		 push	 eax
  000cf	8d 45 c0	 lea	 eax, DWORD PTR $T2[ebp]
  000d2	50		 push	 eax
; File C:\Program Files\Microsoft Visual Studio\2022\Professional\VC\Tools\MSVC\14.44.35207\include\utility

; 274  :         : first(_STD forward<_Other1>(_Val1)), second(_STD forward<_Other2>(_Val2)) {

  000d3	89 4d ec	 mov	 DWORD PTR $T5[ebp+4], ecx
; File C:\Program Files\Microsoft Visual Studio\2022\Professional\VC\Tools\MSVC\14.44.35207\include\xtree

; 1017 :             _Loc                = _Find_lower_bound(_Keyval);

  000d6	8b cf		 mov	 ecx, edi
  000d8	e8 00 00 00 00	 call	 ??$_Find_lower_bound@K@?$_Tree@V?$_Tmap_traits@KHU?$less@K@std@@V?$allocator@U?$pair@$$CBKH@std@@@2@$0A@@std@@@std@@IBE?AU?$_Tree_find_result@PAU?$_Tree_node@U?$pair@$$CBKH@std@@PAX@std@@@1@ABK@Z ; std::_Tree<std::_Tmap_traits<unsigned long,int,std::less<unsigned long>,std::allocator<std::pair<unsigned long const ,int> >,0> >::_Find_lower_bound<unsigned long>
  000dd	8b 48 08	 mov	 ecx, DWORD PTR [eax+8]
  000e0	f3 0f 7e 00	 movq	 xmm0, QWORD PTR [eax]
  000e4	66 0f d6 45 cc	 movq	 QWORD PTR __Loc$3[ebp], xmm0

; 1624 :         return !_Bound->_Isnil && !_DEBUG_LT_PRED(_Getcomp(), _Keyval, _Traits::_Kfn(_Bound->_Myval));

  000e9	80 79 0d 00	 cmp	 BYTE PTR [ecx+13], 0
  000ed	75 08		 jne	 SHORT $LN25@GetKeepCon
; File C:\Program Files\Microsoft Visual Studio\2022\Professional\VC\Tools\MSVC\14.44.35207\include\type_traits

; 2380 :         return _Left < _Right;

  000ef	8b 45 f0	 mov	 eax, DWORD PTR $T6[ebp]
  000f2	3b 41 10	 cmp	 eax, DWORD PTR [ecx+16]
; File C:\Program Files\Microsoft Visual Studio\2022\Professional\VC\Tools\MSVC\14.44.35207\include\xtree

; 1624 :         return !_Bound->_Isnil && !_DEBUG_LT_PRED(_Getcomp(), _Keyval, _Traits::_Kfn(_Bound->_Myval));

  000f5	73 65		 jae	 SHORT $LN100@GetKeepCon
$LN25@GetKeepCon:

; 1648 :         if (max_size() == _Get_scary()->_Mysize) {

  000f7	81 7f 04 aa aa
	aa 0a		 cmp	 DWORD PTR [edi+4], 178956970 ; 0aaaaaaaH
  000fe	0f 84 91 00 00
	00		 je	 $LN117@GetKeepCon

; 1023 :             _Inserted = _Tree_temp_node<_Alnode>(_Getal(), _Scary->_Myhead, _STD forward<_Valtys>(_Vals)...)._Release();

  00104	8b 37		 mov	 esi, DWORD PTR [edi]
; File C:\Program Files\Microsoft Visual Studio\2022\Professional\VC\Tools\MSVC\14.44.35207\include\xmemory

; 1160 :     _CONSTEXPR20 explicit _Alloc_construct_ptr(_Alloc& _Al_) : _Al(_Al_), _Ptr(nullptr) {}

  00106	89 7d d8	 mov	 DWORD PTR $T4[ebp], edi

; 136  :         return ::operator new(_Bytes);

  00109	6a 18		 push	 24			; 00000018H
; File C:\Program Files\Microsoft Visual Studio\2022\Professional\VC\Tools\MSVC\14.44.35207\include\xtree

; 808  :     explicit _Tree_temp_node_alloc(_Alnode& _Al_) : _Alloc_construct_ptr<_Alnode>(_Al_) {

  0010b	c7 45 fc 00 00
	00 00		 mov	 DWORD PTR __$EHRec$[ebp+8], 0
; File C:\Program Files\Microsoft Visual Studio\2022\Professional\VC\Tools\MSVC\14.44.35207\include\xmemory

; 1167 :         _Ptr = nullptr; // if allocate throws, prevents double-free

  00112	c7 45 dc 00 00
	00 00		 mov	 DWORD PTR $T4[ebp+4], 0

; 136  :         return ::operator new(_Bytes);

  00119	e8 00 00 00 00	 call	 ??2@YAPAXI@Z		; operator new
; File C:\Program Files\Microsoft Visual Studio\2022\Professional\VC\Tools\MSVC\14.44.35207\include\xtree

; 830  :         _Alnode_traits::construct(this->_Al, _STD addressof(this->_Ptr->_Myval), _STD forward<_Valtys>(_Vals)...);

  0011e	8b 4d f0	 mov	 ecx, DWORD PTR $T6[ebp]
; File C:\Program Files\Microsoft Visual Studio\2022\Professional\VC\Tools\MSVC\14.44.35207\include\xmemory

; 136  :         return ::operator new(_Bytes);

  00121	83 c4 04	 add	 esp, 4
; File C:\Program Files\Microsoft Visual Studio\2022\Professional\VC\Tools\MSVC\14.44.35207\include\xtree

; 810  :     }

  00124	c7 45 fc ff ff
	ff ff		 mov	 DWORD PTR __$EHRec$[ebp+8], -1
; File C:\Program Files\Microsoft Visual Studio\2022\Professional\VC\Tools\MSVC\14.44.35207\include\utility

; 774  :     _Val         = static_cast<_Other&&>(_New_val);

  0012b	c7 45 dc 00 00
	00 00		 mov	 DWORD PTR $T4[ebp+4], 0
; File C:\Program Files\Microsoft Visual Studio\2022\Professional\VC\Tools\MSVC\14.44.35207\include\xtree

; 830  :         _Alnode_traits::construct(this->_Al, _STD addressof(this->_Ptr->_Myval), _STD forward<_Valtys>(_Vals)...);

  00132	89 48 10	 mov	 DWORD PTR [eax+16], ecx
  00135	f2 0f 2c 4d e0	 cvttsd2si ecx, QWORD PTR tv670[ebp]

; 1042 :         return {_Scary->_Insert_node(_Loc._Location, _Inserted), true};

  0013a	50		 push	 eax
  0013b	ff 75 d0	 push	 DWORD PTR __Loc$3[ebp+4]

; 830  :         _Alnode_traits::construct(this->_Al, _STD addressof(this->_Ptr->_Myval), _STD forward<_Valtys>(_Vals)...);

  0013e	89 48 14	 mov	 DWORD PTR [eax+20], ecx

; 1042 :         return {_Scary->_Insert_node(_Loc._Location, _Inserted), true};

  00141	8b cf		 mov	 ecx, edi
  00143	ff 75 cc	 push	 DWORD PTR __Loc$3[ebp]

; 831  :         _Construct_in_place(this->_Ptr->_Left, _Myhead);

  00146	89 30		 mov	 DWORD PTR [eax], esi

; 832  :         _Construct_in_place(this->_Ptr->_Parent, _Myhead);

  00148	89 70 04	 mov	 DWORD PTR [eax+4], esi

; 833  :         _Construct_in_place(this->_Ptr->_Right, _Myhead);

  0014b	89 70 08	 mov	 DWORD PTR [eax+8], esi

; 834  :         this->_Ptr->_Color = _Red;

  0014e	66 c7 40 0c 00
	00		 mov	 WORD PTR [eax+12], 0

; 1042 :         return {_Scary->_Insert_node(_Loc._Location, _Inserted), true};

  00154	e8 00 00 00 00	 call	 ?_Insert_node@?$_Tree_val@U?$_Tree_simple_types@U?$pair@$$CBKH@std@@@std@@@std@@QAEPAU?$_Tree_node@U?$pair@$$CBKH@std@@PAX@2@U?$_Tree_id@PAU?$_Tree_node@U?$pair@$$CBKH@std@@PAX@std@@@2@QAU32@@Z ; std::_Tree_val<std::_Tree_simple_types<std::pair<unsigned long const ,int> > >::_Insert_node
  00159	8d 73 08	 lea	 esi, DWORD PTR [ebx+8]
$LN100@GetKeepCon:
; File C:\IAGOS\server\v18\Source\Source\_Common\EventLua.cpp

; 835  : 			m_Lua.Pop(1);

  0015c	6a 01		 push	 1
  0015e	8b ce		 mov	 ecx, esi
  00160	e8 00 00 00 00	 call	 ?Pop@CLuaBase@@QAEXH@Z	; CLuaBase::Pop
; File C:\IAGOS\server\v18\Source\Source\_Common\LuaBase.h

; 46   : 	int			TableLoop( int nStackPos )					{  return lua_next( m_pLuaState, nStackPos );  }	

  00165	6a fe		 push	 -2			; fffffffeH
  00167	ff 73 0c	 push	 DWORD PTR [ebx+12]
  0016a	e8 00 00 00 00	 call	 _lua_next
  0016f	83 c4 08	 add	 esp, 8
; File C:\IAGOS\server\v18\Source\Source\_Common\EventLua.cpp

; 830  : 		while( m_Lua.TableLoop(-2) )

  00172	85 c0		 test	 eax, eax
  00174	0f 85 1b ff ff
	ff		 jne	 $LL2@GetKeepCon
$LN3@GetKeepCon:

; 836  : 		}
; 837  : 	}
; 838  : 	m_Lua.Pop(0);

  0017a	6a 00		 push	 0
  0017c	8b ce		 mov	 ecx, esi
  0017e	e8 00 00 00 00	 call	 ?Pop@CLuaBase@@QAEXH@Z	; CLuaBase::Pop
$LN1@GetKeepCon:

; 839  : }

  00183	8b 4d f4	 mov	 ecx, DWORD PTR __$EHRec$[ebp]
  00186	64 89 0d 00 00
	00 00		 mov	 DWORD PTR fs:0, ecx
  0018d	59		 pop	 ecx
  0018e	5f		 pop	 edi
  0018f	5e		 pop	 esi
  00190	5b		 pop	 ebx
  00191	8b e5		 mov	 esp, ebp
  00193	5d		 pop	 ebp
  00194	c3		 ret	 0
$LN117@GetKeepCon:
; File C:\Program Files\Microsoft Visual Studio\2022\Professional\VC\Tools\MSVC\14.44.35207\include\xtree

; 1649 :             _Throw_tree_length_error();

  00195	e8 00 00 00 00	 call	 ?_Throw_tree_length_error@std@@YAXXZ ; std::_Throw_tree_length_error
$LN126@GetKeepCon:
  0019a	cc		 int	 3
_TEXT	ENDS
;	COMDAT text$x
text$x	SEGMENT
__unwindfunclet$?GetKeepConnectItem@CEventLua@@QAEXXZ$2:
  00000	8d 4d d8	 lea	 ecx, DWORD PTR $T4[ebp]
  00003	e9 00 00 00 00	 jmp	 ??1?$_Alloc_construct_ptr@V?$allocator@U?$_Tree_node@U?$pair@$$CBKH@std@@PAX@std@@@std@@@std@@QAE@XZ ; std::_Alloc_construct_ptr<std::allocator<std::_Tree_node<std::pair<unsigned long const ,int>,void *> > >::~_Alloc_construct_ptr<std::allocator<std::_Tree_node<std::pair<unsigned long const ,int>,void *> > >
  00008	cc		 int	 3
  00009	cc		 int	 3
  0000a	cc		 int	 3
  0000b	cc		 int	 3
  0000c	cc		 int	 3
__ehhandler$?GetKeepConnectItem@CEventLua@@QAEXXZ:
  0000d	90		 npad	 1
  0000e	90		 npad	 1
  0000f	8b 54 24 08	 mov	 edx, DWORD PTR [esp+8]
  00013	8d 42 0c	 lea	 eax, DWORD PTR [edx+12]
  00016	8b 4a bc	 mov	 ecx, DWORD PTR [edx-68]
  00019	33 c8		 xor	 ecx, eax
  0001b	e8 00 00 00 00	 call	 @__security_check_cookie@4
  00020	b8 00 00 00 00	 mov	 eax, OFFSET __ehfuncinfo$?GetKeepConnectItem@CEventLua@@QAEXXZ
  00025	e9 00 00 00 00	 jmp	 ___CxxFrameHandler3
text$x	ENDS
?GetKeepConnectItem@CEventLua@@QAEXXZ ENDP		; CEventLua::GetKeepConnectItem
; Function compile flags: /Ogtp
; File C:\IAGOS\server\v18\Source\Source\_Common\EventLua.cpp
; File C:\IAGOS\server\v18\Source\Source\_Common\LuaBase.h
; File C:\IAGOS\server\v18\Source\Source\_Common\EventLua.cpp
;	COMDAT ?GetKeepConnectTime@CEventLua@@QAEKH@Z
_TEXT	SEGMENT
tv143 = -8						; size = 8
_bProxy$ = 8						; size = 4
?GetKeepConnectTime@CEventLua@@QAEKH@Z PROC		; CEventLua::GetKeepConnectTime, COMDAT
; _this$ = ecx

; 797  : {

  00000	55		 push	 ebp
  00001	8b ec		 mov	 ebp, esp
  00003	83 ec 08	 sub	 esp, 8
  00006	56		 push	 esi
  00007	8b f1		 mov	 esi, ecx

; 798  : 	if( !IsPossible() )

  00009	83 7e 04 00	 cmp	 DWORD PTR [esi+4], 0
  0000d	75 09		 jne	 SHORT $LN2@GetKeepCon

; 799  : 		return 0;

  0000f	33 c0		 xor	 eax, eax
  00011	5e		 pop	 esi

; 813  : }

  00012	8b e5		 mov	 esp, ebp
  00014	5d		 pop	 ebp
  00015	c2 04 00	 ret	 4
$LN2@GetKeepCon:

; 800  : 
; 801  : 	if( bProxy )

  00018	83 7d 08 00	 cmp	 DWORD PTR _bProxy$[ebp], 0
  0001c	74 0a		 je	 SHORT $LN3@GetKeepCon

; 802  : 		return m_proxy.GetKeepConnectTime();

  0001e	8b 46 40	 mov	 eax, DWORD PTR [esi+64]
  00021	5e		 pop	 esi

; 813  : }

  00022	8b e5		 mov	 esp, ebp
  00024	5d		 pop	 ebp
  00025	c2 04 00	 ret	 4
$LN3@GetKeepCon:
  00028	53		 push	 ebx
  00029	57		 push	 edi

; 803  : 
; 804  : 	DWORD dwKeepConnect	= 0;
; 805  : 	if( m_Lua.GetLuaFunction( "GetKeepConnectTime" ) )

  0002a	68 00 00 00 00	 push	 OFFSET ??_C@_0BD@DPFKGCHP@GetKeepConnectTime@
  0002f	8d 4e 08	 lea	 ecx, DWORD PTR [esi+8]
  00032	33 db		 xor	 ebx, ebx
  00034	e8 00 00 00 00	 call	 ?GetLuaFunction@CLuaBase@@QAEHPAD@Z ; CLuaBase::GetLuaFunction
  00039	85 c0		 test	 eax, eax
  0003b	74 28		 je	 SHORT $LN4@GetKeepCon

; 806  : 	{
; 807  : 		m_Lua.CallLuaFunction( 0, 1 );

  0003d	6a 01		 push	 1
  0003f	53		 push	 ebx
  00040	8d 4e 08	 lea	 ecx, DWORD PTR [esi+8]
  00043	e8 00 00 00 00	 call	 ?CallLuaFunction@CLuaBase@@QAEXHH@Z ; CLuaBase::CallLuaFunction
; File C:\IAGOS\server\v18\Source\Source\_Common\LuaBase.h

; 43   : 	double		ToNumber( int nStackPos )					{  return lua_tonumber( m_pLuaState, nStackPos );  }

  00048	53		 push	 ebx
  00049	6a ff		 push	 -1
  0004b	ff 76 0c	 push	 DWORD PTR [esi+12]
  0004e	e8 00 00 00 00	 call	 _lua_tonumberx
  00053	83 c4 0c	 add	 esp, 12			; 0000000cH
  00056	dd 5d f8	 fstp	 QWORD PTR tv143[ebp]
; File C:\IAGOS\server\v18\Source\Source\_Common\EventLua.cpp

; 808  : 		dwKeepConnect	= (DWORD)m_Lua.ToNumber( -1 );

  00059	f2 0f 10 45 f8	 movsd	 xmm0, QWORD PTR tv143[ebp]
  0005e	e8 00 00 00 00	 call	 __dtol3
  00063	8b d8		 mov	 ebx, eax
$LN4@GetKeepCon:

; 809  : 	}
; 810  : 	m_Lua.Pop(0);

  00065	6a 00		 push	 0
  00067	8d 4e 08	 lea	 ecx, DWORD PTR [esi+8]
  0006a	e8 00 00 00 00	 call	 ?Pop@CLuaBase@@QAEXH@Z	; CLuaBase::Pop

; 811  : 
; 812  : 	return dwKeepConnect;

  0006f	5f		 pop	 edi
  00070	8b c3		 mov	 eax, ebx
  00072	5b		 pop	 ebx
  00073	5e		 pop	 esi

; 813  : }

  00074	8b e5		 mov	 esp, ebp
  00076	5d		 pop	 ebp
  00077	c2 04 00	 ret	 4
?GetKeepConnectTime@CEventLua@@QAEKH@Z ENDP		; CEventLua::GetKeepConnectTime
_TEXT	ENDS
; Function compile flags: /Ogtp
; File C:\IAGOS\server\v18\Source\Source\_Common\EventLua.cpp
; File C:\IAGOS\server\v18\Source\Source\_Common\Obj.h
; File C:\IAGOS\server\v18\Source\Source\_Common\EventLua.cpp
; File C:\Program Files\Microsoft Visual Studio\2022\Professional\VC\Tools\MSVC\14.44.35207\include\vector
; File C:\IAGOS\server\v18\Source\Source\_Common\EventLua.cpp
; File C:\Program Files\Microsoft Visual Studio\2022\Professional\VC\Tools\MSVC\14.44.35207\include\vector
; File C:\IAGOS\server\v18\Source\Source\_Common\EventLua.cpp
; File C:\Program Files\Microsoft Visual Studio\2022\Professional\VC\Tools\MSVC\14.44.35207\include\vector
; File C:\IAGOS\server\v18\Source\Source\_Common\EventLua.cpp
;	COMDAT ?SetKeepConnectEvent@CEventLua@@QAEXPAVCUser@@K@Z
_TEXT	SEGMENT
_pUser$ = 8						; size = 4
_dwTick$ = 12						; size = 4
?SetKeepConnectEvent@CEventLua@@QAEXPAVCUser@@K@Z PROC	; CEventLua::SetKeepConnectEvent, COMDAT
; _this$ = ecx

; 775  : {

  00000	55		 push	 ebp
  00001	8b ec		 mov	 ebp, esp
  00003	57		 push	 edi
  00004	8b f9		 mov	 edi, ecx

; 776  : 	if( !IsPossible() )

  00006	83 7f 04 00	 cmp	 DWORD PTR [edi+4], 0
  0000a	74 67		 je	 SHORT $LN5@SetKeepCon
  0000c	56		 push	 esi
; File C:\IAGOS\server\v18\Source\Source\_Common\Obj.h

; 327  : 	return pObj && ( pObj->IsDelete() == FALSE ); 

  0000d	8b 75 08	 mov	 esi, DWORD PTR _pUser$[ebp]
  00010	85 f6		 test	 esi, esi
  00012	74 5e		 je	 SHORT $LN28@SetKeepCon

; 180  : 	BOOL			IsDelete()	{ return (m_dwFlags & OBJ_FLAG_DELETE);  }

  00014	f6 46 04 01	 test	 BYTE PTR [esi+4], 1

; 327  : 	return pObj && ( pObj->IsDelete() == FALSE ); 

  00018	75 58		 jne	 SHORT $LN28@SetKeepCon
; File C:\IAGOS\server\v18\Source\Source\_Common\EventLua.cpp

; 782  : 	DWORD dwKeepConnect	= GetKeepConnectTime();

  0001a	6a 01		 push	 1
  0001c	e8 00 00 00 00	 call	 ?GetKeepConnectTime@CEventLua@@QAEKH@Z ; CEventLua::GetKeepConnectTime

; 783  : 	
; 784  : 	if( dwKeepConnect )

  00021	85 c0		 test	 eax, eax
  00023	74 44		 je	 SHORT $LN4@SetKeepCon

; 785  : 	{
; 786  : 		if( dwTick > pUser->m_dwTickKeepConnect + dwKeepConnect )

  00025	8b 8e 24 8f 00
	00		 mov	 ecx, DWORD PTR [esi+36644]
  0002b	03 c8		 add	 ecx, eax
  0002d	8b 45 0c	 mov	 eax, DWORD PTR _dwTick$[ebp]
  00030	3b c1		 cmp	 eax, ecx
  00032	76 3e		 jbe	 SHORT $LN28@SetKeepCon

; 787  : 		{
; 788  : 			pUser->m_dwTickKeepConnect = dwTick;

  00034	89 86 24 8f 00
	00		 mov	 DWORD PTR [esi+36644], eax

; 789  : 			m_vecKeepConnectUser.push_back( pUser->m_idPlayer );

  0003a	8d 8f 80 00 00
	00		 lea	 ecx, DWORD PTR [edi+128]
; File C:\Program Files\Microsoft Visual Studio\2022\Professional\VC\Tools\MSVC\14.44.35207\include\vector

; 844  :         if (_Mylast != _My_data._Myend) {

  00040	8b 51 04	 mov	 edx, DWORD PTR [ecx+4]
; File C:\IAGOS\server\v18\Source\Source\_Common\EventLua.cpp

; 789  : 			m_vecKeepConnectUser.push_back( pUser->m_idPlayer );

  00043	81 c6 34 02 00
	00		 add	 esi, 564		; 00000234H
; File C:\Program Files\Microsoft Visual Studio\2022\Professional\VC\Tools\MSVC\14.44.35207\include\vector

; 844  :         if (_Mylast != _My_data._Myend) {

  00049	3b 51 08	 cmp	 edx, DWORD PTR [ecx+8]
  0004c	74 0e		 je	 SHORT $LN17@SetKeepCon

; 860  :             _STD _Construct_in_place(*_Mylast, _STD forward<_Valty>(_Val)...);

  0004e	8b 06		 mov	 eax, DWORD PTR [esi]
  00050	5e		 pop	 esi
  00051	89 02		 mov	 DWORD PTR [edx], eax

; 861  :         } else {
; 862  :             _ASAN_VECTOR_EXTEND_GUARD(static_cast<size_type>(_Mylast - _My_data._Myfirst) + 1);
; 863  :             _Alty_traits::construct(_Getal(), _Unfancy(_Mylast), _STD forward<_Valty>(_Val)...);
; 864  :             _ASAN_VECTOR_RELEASE_GUARD;
; 865  :         }
; 866  : 
; 867  :         _Orphan_range(_Mylast, _Mylast);
; 868  :         _Ty& _Result = *_Mylast;
; 869  :         ++_Mylast;

  00053	83 41 04 04	 add	 DWORD PTR [ecx+4], 4
  00057	5f		 pop	 edi
; File C:\IAGOS\server\v18\Source\Source\_Common\EventLua.cpp

; 794  : }

  00058	5d		 pop	 ebp
  00059	c2 08 00	 ret	 8
$LN17@SetKeepCon:
; File C:\Program Files\Microsoft Visual Studio\2022\Professional\VC\Tools\MSVC\14.44.35207\include\vector

; 848  :         return *_Emplace_reallocate(_Mylast, _STD forward<_Valty>(_Val)...);

  0005c	56		 push	 esi
  0005d	52		 push	 edx
  0005e	e8 00 00 00 00	 call	 ??$_Emplace_reallocate@ABK@?$vector@KV?$allocator@K@std@@@std@@AAEPAKQAKABK@Z ; std::vector<unsigned long,std::allocator<unsigned long> >::_Emplace_reallocate<unsigned long const &>
  00063	5e		 pop	 esi
  00064	5f		 pop	 edi
; File C:\IAGOS\server\v18\Source\Source\_Common\EventLua.cpp

; 794  : }

  00065	5d		 pop	 ebp
  00066	c2 08 00	 ret	 8
$LN4@SetKeepCon:

; 790  : 		}
; 791  : 	}
; 792  : 	else
; 793  : 		pUser->m_dwTickKeepConnect	= dwTick;

  00069	8b 45 0c	 mov	 eax, DWORD PTR _dwTick$[ebp]
  0006c	89 86 24 8f 00
	00		 mov	 DWORD PTR [esi+36644], eax
$LN28@SetKeepCon:
  00072	5e		 pop	 esi
$LN5@SetKeepCon:
  00073	5f		 pop	 edi

; 794  : }

  00074	5d		 pop	 ebp
  00075	c2 08 00	 ret	 8
?SetKeepConnectEvent@CEventLua@@QAEXPAVCUser@@K@Z ENDP	; CEventLua::SetKeepConnectEvent
_TEXT	ENDS
; Function compile flags: /Ogtp
;	COMDAT ??1?$map@KHU?$less@K@std@@V?$allocator@U?$pair@$$CBKH@std@@@2@@std@@QAE@XZ
_TEXT	SEGMENT
??1?$map@KHU?$less@K@std@@V?$allocator@U?$pair@$$CBKH@std@@@2@@std@@QAE@XZ PROC ; std::map<unsigned long,int,std::less<unsigned long>,std::allocator<std::pair<unsigned long const ,int> > >::~map<unsigned long,int,std::less<unsigned long>,std::allocator<std::pair<unsigned long const ,int> > >, COMDAT
; _this$ = ecx
  00000	e9 00 00 00 00	 jmp	 ??1?$_Tree@V?$_Tmap_traits@KHU?$less@K@std@@V?$allocator@U?$pair@$$CBKH@std@@@2@$0A@@std@@@std@@QAE@XZ ; std::_Tree<std::_Tmap_traits<unsigned long,int,std::less<unsigned long>,std::allocator<std::pair<unsigned long const ,int> >,0> >::~_Tree<std::_Tmap_traits<unsigned long,int,std::less<unsigned long>,std::allocator<std::pair<unsigned long const ,int> >,0> >
??1?$map@KHU?$less@K@std@@V?$allocator@U?$pair@$$CBKH@std@@@2@@std@@QAE@XZ ENDP ; std::map<unsigned long,int,std::less<unsigned long>,std::allocator<std::pair<unsigned long const ,int> > >::~map<unsigned long,int,std::less<unsigned long>,std::allocator<std::pair<unsigned long const ,int> > >
_TEXT	ENDS
; Function compile flags: /Ogtp
; File C:\Program Files\Microsoft Visual Studio\2022\Professional\VC\Tools\MSVC\14.44.35207\include\xtree
;	COMDAT ?_Insert_node@?$_Tree_val@U?$_Tree_simple_types@U?$pair@$$CBKH@std@@@std@@@std@@QAEPAU?$_Tree_node@U?$pair@$$CBKH@std@@PAX@2@U?$_Tree_id@PAU?$_Tree_node@U?$pair@$$CBKH@std@@PAX@std@@@2@QAU32@@Z
_TEXT	SEGMENT
__Head$1$ = -4						; size = 4
__Loc$ = 8						; size = 8
__Newnode$ = 16						; size = 4
?_Insert_node@?$_Tree_val@U?$_Tree_simple_types@U?$pair@$$CBKH@std@@@std@@@std@@QAEPAU?$_Tree_node@U?$pair@$$CBKH@std@@PAX@2@U?$_Tree_id@PAU?$_Tree_node@U?$pair@$$CBKH@std@@PAX@std@@@2@QAU32@@Z PROC ; std::_Tree_val<std::_Tree_simple_types<std::pair<unsigned long const ,int> > >::_Insert_node, COMDAT
; _this$ = ecx

; 669  :     _Nodeptr _Insert_node(const _Tree_id<_Nodeptr> _Loc, const _Nodeptr _Newnode) noexcept {

  00000	55		 push	 ebp
  00001	8b ec		 mov	 ebp, esp
  00003	51		 push	 ecx

; 670  :         ++_Mysize;
; 671  :         const auto _Head  = _Myhead;
; 672  :         _Newnode->_Parent = _Loc._Parent;

  00004	8b 55 08	 mov	 edx, DWORD PTR __Loc$[ebp]
  00007	53		 push	 ebx
  00008	8b d9		 mov	 ebx, ecx
  0000a	57		 push	 edi
  0000b	8b 7d 10	 mov	 edi, DWORD PTR __Newnode$[ebp]
  0000e	8b 03		 mov	 eax, DWORD PTR [ebx]
  00010	ff 43 04	 inc	 DWORD PTR [ebx+4]
  00013	89 45 fc	 mov	 DWORD PTR __Head$1$[ebp], eax
  00016	89 57 04	 mov	 DWORD PTR [edi+4], edx

; 673  :         if (_Loc._Parent == _Head) { // first node in tree, just set head values

  00019	3b d0		 cmp	 edx, eax
  0001b	75 16		 jne	 SHORT $LN5@Insert_nod

; 674  :             _Head->_Left     = _Newnode;

  0001d	89 38		 mov	 DWORD PTR [eax], edi

; 675  :             _Head->_Parent   = _Newnode;

  0001f	89 78 04	 mov	 DWORD PTR [eax+4], edi

; 676  :             _Head->_Right    = _Newnode;

  00022	89 78 08	 mov	 DWORD PTR [eax+8], edi

; 735  :         return _Newnode;
; 736  :     }

  00025	8b c7		 mov	 eax, edi
  00027	c6 47 0c 01	 mov	 BYTE PTR [edi+12], 1
  0002b	5f		 pop	 edi
  0002c	5b		 pop	 ebx
  0002d	8b e5		 mov	 esp, ebp
  0002f	5d		 pop	 ebp
  00030	c2 0c 00	 ret	 12			; 0000000cH
$LN5@Insert_nod:

; 677  :             _Newnode->_Color = _Black; // the root is black
; 678  :             return _Newnode;
; 679  :         }
; 680  : 
; 681  :         _STL_INTERNAL_CHECK(_Loc._Child != _Tree_child::_Unused);
; 682  :         if (_Loc._Child == _Tree_child::_Right) { // add to right of _Loc._Parent

  00033	83 7d 0c 00	 cmp	 DWORD PTR __Loc$[ebp+4], 0
  00037	75 0d		 jne	 SHORT $LN6@Insert_nod

; 683  :             _STL_INTERNAL_CHECK(_Loc._Parent->_Right->_Isnil);
; 684  :             _Loc._Parent->_Right = _Newnode;

  00039	89 7a 08	 mov	 DWORD PTR [edx+8], edi

; 685  :             if (_Loc._Parent == _Head->_Right) { // remember rightmost node

  0003c	3b 50 08	 cmp	 edx, DWORD PTR [eax+8]
  0003f	75 0d		 jne	 SHORT $LN9@Insert_nod

; 686  :                 _Head->_Right = _Newnode;

  00041	89 78 08	 mov	 DWORD PTR [eax+8], edi

; 687  :             }
; 688  :         } else { // add to left of _Loc._Parent

  00044	eb 08		 jmp	 SHORT $LN9@Insert_nod
$LN6@Insert_nod:

; 689  :             _STL_INTERNAL_CHECK(_Loc._Parent->_Left->_Isnil);
; 690  :             _Loc._Parent->_Left = _Newnode;

  00046	89 3a		 mov	 DWORD PTR [edx], edi

; 691  :             if (_Loc._Parent == _Head->_Left) { // remember leftmost node

  00048	3b 10		 cmp	 edx, DWORD PTR [eax]
  0004a	75 02		 jne	 SHORT $LN9@Insert_nod

; 692  :                 _Head->_Left = _Newnode;

  0004c	89 38		 mov	 DWORD PTR [eax], edi
$LN9@Insert_nod:

; 693  :             }
; 694  :         }
; 695  : 
; 696  :         for (_Nodeptr _Pnode = _Newnode; _Pnode->_Parent->_Color == _Red;) {

  0004e	8b 4f 04	 mov	 ecx, DWORD PTR [edi+4]
  00051	8b c7		 mov	 eax, edi
  00053	80 79 0c 00	 cmp	 BYTE PTR [ecx+12], 0
  00057	0f 85 7d 01 00
	00		 jne	 $LN3@Insert_nod
  0005d	56		 push	 esi
  0005e	66 90		 npad	 2
$LL4@Insert_nod:

; 697  :             if (_Pnode->_Parent == _Pnode->_Parent->_Parent->_Left) { // fixup red-red in left subtree

  00060	8b 50 04	 mov	 edx, DWORD PTR [eax+4]
  00063	8b 72 04	 mov	 esi, DWORD PTR [edx+4]
  00066	8b 0e		 mov	 ecx, DWORD PTR [esi]
  00068	3b d1		 cmp	 edx, ecx
  0006a	0f 85 aa 00 00
	00		 jne	 $LN10@Insert_nod

; 698  :                 const auto _Parent_sibling = _Pnode->_Parent->_Parent->_Right;

  00070	8b 4e 08	 mov	 ecx, DWORD PTR [esi+8]

; 699  :                 if (_Parent_sibling->_Color == _Red) { // parent's sibling has two red children, blacken both

  00073	80 79 0c 00	 cmp	 BYTE PTR [ecx+12], 0
  00077	0f 84 a3 00 00
	00		 je	 $LN82@Insert_nod

; 700  :                     _Pnode->_Parent->_Color          = _Black;
; 701  :                     _Parent_sibling->_Color          = _Black;
; 702  :                     _Pnode->_Parent->_Parent->_Color = _Red;
; 703  :                     _Pnode                           = _Pnode->_Parent->_Parent;
; 704  :                 } else { // parent's sibling has red and black children
; 705  :                     if (_Pnode == _Pnode->_Parent->_Right) { // rotate right child to left

  0007d	8b 72 08	 mov	 esi, DWORD PTR [edx+8]
  00080	3b c6		 cmp	 eax, esi
  00082	75 37		 jne	 SHORT $LN57@Insert_nod

; 485  :         _Wherenode->_Right = _Pnode->_Left;

  00084	8b 0e		 mov	 ecx, DWORD PTR [esi]

; 706  :                         _Pnode = _Pnode->_Parent;

  00086	8b c2		 mov	 eax, edx

; 485  :         _Wherenode->_Right = _Pnode->_Left;

  00088	89 4a 08	 mov	 DWORD PTR [edx+8], ecx

; 486  : 
; 487  :         if (!_Pnode->_Left->_Isnil) {

  0008b	8b 0e		 mov	 ecx, DWORD PTR [esi]
  0008d	80 79 0d 00	 cmp	 BYTE PTR [ecx+13], 0
  00091	75 03		 jne	 SHORT $LN21@Insert_nod

; 488  :             _Pnode->_Left->_Parent = _Wherenode;

  00093	89 41 04	 mov	 DWORD PTR [ecx+4], eax
$LN21@Insert_nod:

; 489  :         }
; 490  : 
; 491  :         _Pnode->_Parent = _Wherenode->_Parent;

  00096	8b 4a 04	 mov	 ecx, DWORD PTR [edx+4]
  00099	89 4e 04	 mov	 DWORD PTR [esi+4], ecx

; 492  : 
; 493  :         if (_Wherenode == _Myhead->_Parent) {

  0009c	8b 0b		 mov	 ecx, DWORD PTR [ebx]
  0009e	3b 41 04	 cmp	 eax, DWORD PTR [ecx+4]
  000a1	75 05		 jne	 SHORT $LN22@Insert_nod

; 494  :             _Myhead->_Parent = _Pnode;

  000a3	89 71 04	 mov	 DWORD PTR [ecx+4], esi
  000a6	eb 0e		 jmp	 SHORT $LN25@Insert_nod
$LN22@Insert_nod:

; 495  :         } else if (_Wherenode == _Wherenode->_Parent->_Left) {

  000a8	8b 4a 04	 mov	 ecx, DWORD PTR [edx+4]
  000ab	3b 01		 cmp	 eax, DWORD PTR [ecx]
  000ad	75 04		 jne	 SHORT $LN24@Insert_nod

; 496  :             _Wherenode->_Parent->_Left = _Pnode;

  000af	89 31		 mov	 DWORD PTR [ecx], esi

; 497  :         } else {

  000b1	eb 03		 jmp	 SHORT $LN25@Insert_nod
$LN24@Insert_nod:

; 498  :             _Wherenode->_Parent->_Right = _Pnode;

  000b3	89 71 08	 mov	 DWORD PTR [ecx+8], esi
$LN25@Insert_nod:

; 499  :         }
; 500  : 
; 501  :         _Pnode->_Left       = _Wherenode;

  000b6	89 06		 mov	 DWORD PTR [esi], eax

; 502  :         _Wherenode->_Parent = _Pnode;

  000b8	89 70 04	 mov	 DWORD PTR [eax+4], esi
$LN57@Insert_nod:

; 707  :                         _Lrotate(_Pnode);
; 708  :                     }
; 709  : 
; 710  :                     _Pnode->_Parent->_Color          = _Black; // propagate red up

  000bb	8b 48 04	 mov	 ecx, DWORD PTR [eax+4]
  000be	c6 41 0c 01	 mov	 BYTE PTR [ecx+12], 1

; 711  :                     _Pnode->_Parent->_Parent->_Color = _Red;

  000c2	8b 48 04	 mov	 ecx, DWORD PTR [eax+4]
  000c5	8b 49 04	 mov	 ecx, DWORD PTR [ecx+4]
  000c8	c6 41 0c 00	 mov	 BYTE PTR [ecx+12], 0

; 712  :                     _Rrotate(_Pnode->_Parent->_Parent);

  000cc	8b 48 04	 mov	 ecx, DWORD PTR [eax+4]
  000cf	8b 51 04	 mov	 edx, DWORD PTR [ecx+4]

; 506  :         _Nodeptr _Pnode   = _Wherenode->_Left;

  000d2	8b 32		 mov	 esi, DWORD PTR [edx]

; 507  :         _Wherenode->_Left = _Pnode->_Right;

  000d4	8b 4e 08	 mov	 ecx, DWORD PTR [esi+8]
  000d7	89 0a		 mov	 DWORD PTR [edx], ecx

; 508  : 
; 509  :         if (!_Pnode->_Right->_Isnil) {

  000d9	8b 4e 08	 mov	 ecx, DWORD PTR [esi+8]
  000dc	80 79 0d 00	 cmp	 BYTE PTR [ecx+13], 0
  000e0	75 03		 jne	 SHORT $LN29@Insert_nod

; 510  :             _Pnode->_Right->_Parent = _Wherenode;

  000e2	89 51 04	 mov	 DWORD PTR [ecx+4], edx
$LN29@Insert_nod:

; 511  :         }
; 512  : 
; 513  :         _Pnode->_Parent = _Wherenode->_Parent;

  000e5	8b 4a 04	 mov	 ecx, DWORD PTR [edx+4]
  000e8	89 4e 04	 mov	 DWORD PTR [esi+4], ecx

; 514  : 
; 515  :         if (_Wherenode == _Myhead->_Parent) {

  000eb	8b 0b		 mov	 ecx, DWORD PTR [ebx]
  000ed	3b 51 04	 cmp	 edx, DWORD PTR [ecx+4]
  000f0	75 0b		 jne	 SHORT $LN30@Insert_nod

; 516  :             _Myhead->_Parent = _Pnode;

  000f2	89 71 04	 mov	 DWORD PTR [ecx+4], esi

; 521  :         }
; 522  : 
; 523  :         _Pnode->_Right      = _Wherenode;

  000f5	89 56 08	 mov	 DWORD PTR [esi+8], edx

; 713  :                 }
; 714  :             } else { // fixup red-red in right subtree

  000f8	e9 cc 00 00 00	 jmp	 $LN81@Insert_nod
$LN30@Insert_nod:

; 517  :         } else if (_Wherenode == _Wherenode->_Parent->_Right) {

