; Listing generated by Microsoft (R) Optimizing Compiler Version 19.44.35225.0 

	TITLE	C:\IAGOS\server\v18\Source\Output\WorldServer\Release\Exchange.obj
	.686P
	.XMM
	include listing.inc
	.model	flat

INCLUDELIB LIBCMT
INCLUDELIB OLDNAMES

CONST	SEGMENT
?piecewise_construct@std@@3Upiecewise_construct_t@1@B	ORG $+1 ; std::piecewise_construct
CONST	ENDS
PUBLIC	?__empty_global_delete@@YAXPAX@Z		; __empty_global_delete
PUBLIC	?__empty_global_delete@@YAXPAXI@Z		; __empty_global_delete
PUBLIC	?AtlThrowImpl@ATL@@YGXJ@Z			; ATL::AtlThrowImpl
PUBLIC	?SetString@?$CSimpleStringT@D$0A@@ATL@@QAEXPBDH@Z ; ATL::CSimpleStringT<char,0>::SetString
PUBLIC	?ThrowMemoryException@?$CSimpleStringT@D$0A@@ATL@@KAXXZ ; ATL::CSimpleStringT<char,0>::ThrowMemoryException
PUBLIC	?Fork@?$CSimpleStringT@D$0A@@ATL@@AAEXH@Z	; ATL::CSimpleStringT<char,0>::Fork
PUBLIC	?PrepareWrite2@?$CSimpleStringT@D$0A@@ATL@@AAEXH@Z ; ATL::CSimpleStringT<char,0>::PrepareWrite2
PUBLIC	?Reallocate@?$CSimpleStringT@D$0A@@ATL@@AAEXH@Z	; ATL::CSimpleStringT<char,0>::Reallocate
PUBLIC	??1?$CStringT@DV?$StrTraitMFC@DV?$ChTraitsCRT@D@ATL@@@@@ATL@@QAE@XZ ; ATL::CStringT<char,StrTraitMFC<char,ATL::ChTraitsCRT<char> > >::~CStringT<char,StrTraitMFC<char,ATL::ChTraitsCRT<char> > >
PUBLIC	??0exception@std@@QAE@ABV01@@Z			; std::exception::exception
PUBLIC	??1exception@std@@UAE@XZ			; std::exception::~exception
PUBLIC	?what@exception@std@@UBEPBDXZ			; std::exception::what
PUBLIC	??_Gexception@std@@UAEPAXI@Z			; std::exception::`scalar deleting destructor'
PUBLIC	??0bad_alloc@std@@QAE@ABV01@@Z			; std::bad_alloc::bad_alloc
PUBLIC	??_Gbad_alloc@std@@UAEPAXI@Z			; std::bad_alloc::`scalar deleting destructor'
PUBLIC	??0bad_array_new_length@std@@QAE@XZ		; std::bad_array_new_length::bad_array_new_length
PUBLIC	??1bad_array_new_length@std@@UAE@XZ		; std::bad_array_new_length::~bad_array_new_length
PUBLIC	??0bad_array_new_length@std@@QAE@ABV01@@Z	; std::bad_array_new_length::bad_array_new_length
PUBLIC	??_Gbad_array_new_length@std@@UAEPAXI@Z		; std::bad_array_new_length::`scalar deleting destructor'
PUBLIC	?_Throw_bad_array_new_length@std@@YAXXZ		; std::_Throw_bad_array_new_length
PUBLIC	?_Throw_tree_length_error@std@@YAXXZ		; std::_Throw_tree_length_error
PUBLIC	??0_LogItemInfo@@QAE@XZ				; _LogItemInfo::_LogItemInfo
PUBLIC	?SetMark@CScanner@@UAEXXZ			; CScanner::SetMark
PUBLIC	?GoMark@CScanner@@UAEXXZ			; CScanner::GoMark
PUBLIC	??0?$vector@HV?$allocator@H@std@@@std@@QAE@ABV01@@Z ; std::vector<int,std::allocator<int> >::vector<int,std::allocator<int> >
PUBLIC	??1?$vector@HV?$allocator@H@std@@@std@@QAE@XZ	; std::vector<int,std::allocator<int> >::~vector<int,std::allocator<int> >
PUBLIC	?_Tidy@?$vector@HV?$allocator@H@std@@@std@@AAEXXZ ; std::vector<int,std::allocator<int> >::_Tidy
PUBLIC	?_Xlength@?$vector@HV?$allocator@H@std@@@std@@CAXXZ ; std::vector<int,std::allocator<int> >::_Xlength
PUBLIC	??0?$vector@U__ITEM@CExchange@@V?$allocator@U__ITEM@CExchange@@@std@@@std@@QAE@ABV01@@Z ; std::vector<CExchange::__ITEM,std::allocator<CExchange::__ITEM> >::vector<CExchange::__ITEM,std::allocator<CExchange::__ITEM> >
PUBLIC	??1?$vector@U__ITEM@CExchange@@V?$allocator@U__ITEM@CExchange@@@std@@@std@@QAE@XZ ; std::vector<CExchange::__ITEM,std::allocator<CExchange::__ITEM> >::~vector<CExchange::__ITEM,std::allocator<CExchange::__ITEM> >
PUBLIC	?_Buy_raw@?$vector@U__ITEM@CExchange@@V?$allocator@U__ITEM@CExchange@@@std@@@std@@AAEXI@Z ; std::vector<CExchange::__ITEM,std::allocator<CExchange::__ITEM> >::_Buy_raw
PUBLIC	?_Tidy@?$vector@U__ITEM@CExchange@@V?$allocator@U__ITEM@CExchange@@@std@@@std@@AAEXXZ ; std::vector<CExchange::__ITEM,std::allocator<CExchange::__ITEM> >::_Tidy
PUBLIC	?_Xlength@?$vector@U__ITEM@CExchange@@V?$allocator@U__ITEM@CExchange@@@std@@@std@@CAXXZ ; std::vector<CExchange::__ITEM,std::allocator<CExchange::__ITEM> >::_Xlength
PUBLIC	??0?$vector@U__POINT@CExchange@@V?$allocator@U__POINT@CExchange@@@std@@@std@@QAE@ABV01@@Z ; std::vector<CExchange::__POINT,std::allocator<CExchange::__POINT> >::vector<CExchange::__POINT,std::allocator<CExchange::__POINT> >
PUBLIC	??1?$vector@U__POINT@CExchange@@V?$allocator@U__POINT@CExchange@@@std@@@std@@QAE@XZ ; std::vector<CExchange::__POINT,std::allocator<CExchange::__POINT> >::~vector<CExchange::__POINT,std::allocator<CExchange::__POINT> >
PUBLIC	?_Buy_raw@?$vector@U__POINT@CExchange@@V?$allocator@U__POINT@CExchange@@@std@@@std@@AAEXI@Z ; std::vector<CExchange::__POINT,std::allocator<CExchange::__POINT> >::_Buy_raw
PUBLIC	?_Tidy@?$vector@U__POINT@CExchange@@V?$allocator@U__POINT@CExchange@@@std@@@std@@AAEXXZ ; std::vector<CExchange::__POINT,std::allocator<CExchange::__POINT> >::_Tidy
PUBLIC	?_Xlength@?$vector@U__POINT@CExchange@@V?$allocator@U__POINT@CExchange@@@std@@@std@@CAXXZ ; std::vector<CExchange::__POINT,std::allocator<CExchange::__POINT> >::_Xlength
PUBLIC	??1__SET@CExchange@@QAE@XZ			; CExchange::__SET::~__SET
PUBLIC	??0__SET@CExchange@@QAE@ABU01@@Z		; CExchange::__SET::__SET
PUBLIC	??0__SET@CExchange@@QAE@$$QAU01@@Z		; CExchange::__SET::__SET
PUBLIC	?_Tidy@?$vector@U__SET@CExchange@@V?$allocator@U__SET@CExchange@@@std@@@std@@AAEXXZ ; std::vector<CExchange::__SET,std::allocator<CExchange::__SET> >::_Tidy
PUBLIC	?_Xlength@?$vector@U__SET@CExchange@@V?$allocator@U__SET@CExchange@@@std@@@std@@CAXXZ ; std::vector<CExchange::__SET,std::allocator<CExchange::__SET> >::_Xlength
PUBLIC	??1__SETLIST@CExchange@@QAE@XZ			; CExchange::__SETLIST::~__SETLIST
PUBLIC	??0CExchange@@QAE@XZ				; CExchange::CExchange
PUBLIC	??1CExchange@@UAE@XZ				; CExchange::~CExchange
PUBLIC	?Load_Script@CExchange@@QAEHXZ			; CExchange::Load_Script
PUBLIC	?GetListTextId@CExchange@@QAE?AV?$vector@HV?$allocator@H@std@@@std@@H@Z ; CExchange::GetListTextId
PUBLIC	?GetDescId@CExchange@@QAE?AV?$vector@HV?$allocator@H@std@@@std@@H@Z ; CExchange::GetDescId
PUBLIC	?GetResultMsg@CExchange@@QAE?AV?$vector@HV?$allocator@H@std@@@std@@HH@Z ; CExchange::GetResultMsg
PUBLIC	?FindExchange@CExchange@@QAEPAU__SETLIST@1@H@Z	; CExchange::FindExchange
PUBLIC	?ResultExchange@CExchange@@QAEHPAVCUser@@HH@Z	; CExchange::ResultExchange
PUBLIC	?CheckCondition@CExchange@@QAEHPAVCUser@@HH@Z	; CExchange::CheckCondition
PUBLIC	?IsFull@CExchange@@QAEHPAVCUser@@V?$vector@U__ITEM@CExchange@@V?$allocator@U__ITEM@CExchange@@@std@@@std@@1@Z ; CExchange::IsFull
PUBLIC	?GetRemoveItemList@CExchange@@QAE?AV?$vector@U__ITEM@CExchange@@V?$allocator@U__ITEM@CExchange@@@std@@@std@@HH@Z ; CExchange::GetRemoveItemList
PUBLIC	?GetPayItemList@CExchange@@QAE?AV?$vector@U__ITEM@CExchange@@V?$allocator@U__ITEM@CExchange@@@std@@@std@@HH@Z ; CExchange::GetPayItemList
PUBLIC	?GetRemovePointList@CExchange@@QAE?AV?$vector@U__POINT@CExchange@@V?$allocator@U__POINT@CExchange@@@std@@@std@@HH@Z ; CExchange::GetRemovePointList
PUBLIC	?_Insert_node@?$_Tree_val@U?$_Tree_simple_types@U?$pair@$$CBHU__SETLIST@CExchange@@@std@@@std@@@std@@QAEPAU?$_Tree_node@U?$pair@$$CBHU__SETLIST@CExchange@@@std@@PAX@2@U?$_Tree_id@PAU?$_Tree_node@U?$pair@$$CBHU__SETLIST@CExchange@@@std@@PAX@std@@@2@QAU32@@Z ; std::_Tree_val<std::_Tree_simple_types<std::pair<int const ,CExchange::__SETLIST> > >::_Insert_node
PUBLIC	??_GCExchange@@UAEPAXI@Z			; CExchange::`scalar deleting destructor'
PUBLIC	?GetAtId@?$CItemContainer@VCItemElem@@@@QAEPAVCItemElem@@K@Z ; CItemContainer<CItemElem>::GetAtId
PUBLIC	??$_Allocate_manually_vector_aligned@U_Default_allocate_traits@std@@@std@@YAPAXI@Z ; std::_Allocate_manually_vector_aligned<std::_Default_allocate_traits>
PUBLIC	??1?$pair@$$CBHU__SETLIST@CExchange@@@std@@QAE@XZ ; std::pair<int const ,CExchange::__SETLIST>::~pair<int const ,CExchange::__SETLIST>
PUBLIC	??$_Find_lower_bound@H@?$_Tree@V?$_Tmap_traits@HU__SETLIST@CExchange@@U?$less@H@std@@V?$allocator@U?$pair@$$CBHU__SETLIST@CExchange@@@std@@@4@$0A@@std@@@std@@IBE?AU?$_Tree_find_result@PAU?$_Tree_node@U?$pair@$$CBHU__SETLIST@CExchange@@@std@@PAX@std@@@1@ABH@Z ; std::_Tree<std::_Tmap_traits<int,CExchange::__SETLIST,std::less<int>,std::allocator<std::pair<int const ,CExchange::__SETLIST> >,0> >::_Find_lower_bound<int>
PUBLIC	??1?$_Alloc_construct_ptr@V?$allocator@U?$_Tree_node@U?$pair@$$CBHU__SETLIST@CExchange@@@std@@PAX@std@@@std@@@std@@QAE@XZ ; std::_Alloc_construct_ptr<std::allocator<std::_Tree_node<std::pair<int const ,CExchange::__SETLIST>,void *> > >::~_Alloc_construct_ptr<std::allocator<std::_Tree_node<std::pair<int const ,CExchange::__SETLIST>,void *> > >
PUBLIC	??$_Erase_tree@V?$allocator@U?$_Tree_node@U?$pair@$$CBHU__SETLIST@CExchange@@@std@@PAX@std@@@std@@@?$_Tree_val@U?$_Tree_simple_types@U?$pair@$$CBHU__SETLIST@CExchange@@@std@@@std@@@std@@QAEXAAV?$allocator@U?$_Tree_node@U?$pair@$$CBHU__SETLIST@CExchange@@@std@@PAX@std@@@1@PAU?$_Tree_node@U?$pair@$$CBHU__SETLIST@CExchange@@@std@@PAX@1@@Z ; std::_Tree_val<std::_Tree_simple_types<std::pair<int const ,CExchange::__SETLIST> > >::_Erase_tree<std::allocator<std::_Tree_node<std::pair<int const ,CExchange::__SETLIST>,void *> > >
PUBLIC	??$_Emplace_reallocate@ABU__SET@CExchange@@@?$vector@U__SET@CExchange@@V?$allocator@U__SET@CExchange@@@std@@@std@@AAEPAU__SET@CExchange@@QAU23@ABU23@@Z ; std::vector<CExchange::__SET,std::allocator<CExchange::__SET> >::_Emplace_reallocate<CExchange::__SET const &>
PUBLIC	??$_Copy_memmove_n@PAU__POINT@CExchange@@PAU12@@std@@YAPAU__POINT@CExchange@@PAU12@I0@Z ; std::_Copy_memmove_n<CExchange::__POINT *,CExchange::__POINT *>
PUBLIC	??$_Emplace_reallocate@ABU__POINT@CExchange@@@?$vector@U__POINT@CExchange@@V?$allocator@U__POINT@CExchange@@@std@@@std@@AAEPAU__POINT@CExchange@@QAU23@ABU23@@Z ; std::vector<CExchange::__POINT,std::allocator<CExchange::__POINT> >::_Emplace_reallocate<CExchange::__POINT const &>
PUBLIC	??$_Copy_memmove@PAU__ITEM@CExchange@@PAU12@@std@@YAPAU__ITEM@CExchange@@PAU12@00@Z ; std::_Copy_memmove<CExchange::__ITEM *,CExchange::__ITEM *>
PUBLIC	??$_Copy_memmove_n@PAU__ITEM@CExchange@@PAU12@@std@@YAPAU__ITEM@CExchange@@PAU12@I0@Z ; std::_Copy_memmove_n<CExchange::__ITEM *,CExchange::__ITEM *>
PUBLIC	??$_Emplace_reallocate@ABU__ITEM@CExchange@@@?$vector@U__ITEM@CExchange@@V?$allocator@U__ITEM@CExchange@@@std@@@std@@AAEPAU__ITEM@CExchange@@QAU23@ABU23@@Z ; std::vector<CExchange::__ITEM,std::allocator<CExchange::__ITEM> >::_Emplace_reallocate<CExchange::__ITEM const &>
PUBLIC	??$_Emplace_reallocate@H@?$vector@HV?$allocator@H@std@@@std@@AAEPAHQAH$$QAH@Z ; std::vector<int,std::allocator<int> >::_Emplace_reallocate<int>
PUBLIC	??$_Destroy_range@V?$allocator@U__SET@CExchange@@@std@@@std@@YAXPAU__SET@CExchange@@QAU12@AAV?$allocator@U__SET@CExchange@@@0@@Z ; std::_Destroy_range<std::allocator<CExchange::__SET> >
PUBLIC	??1_Reallocation_guard@?$vector@U__SET@CExchange@@V?$allocator@U__SET@CExchange@@@std@@@std@@QAE@XZ ; std::vector<CExchange::__SET,std::allocator<CExchange::__SET> >::_Reallocation_guard::~_Reallocation_guard
PUBLIC	??$_Copy_memmove_tail@PAU__POINT@CExchange@@@std@@YAPAU__POINT@CExchange@@QBDQAU12@II@Z ; std::_Copy_memmove_tail<CExchange::__POINT *>
PUBLIC	??$_Copy_memmove@PAU__POINT@CExchange@@PAU12@@std@@YAPAU__POINT@CExchange@@PAU12@00@Z ; std::_Copy_memmove<CExchange::__POINT *,CExchange::__POINT *>
PUBLIC	??$_Copy_memmove_tail@PAU__ITEM@CExchange@@@std@@YAPAU__ITEM@CExchange@@QBDQAU12@II@Z ; std::_Copy_memmove_tail<CExchange::__ITEM *>
PUBLIC	??$_Copy_memmove@PAHPAH@std@@YAPAHPAH00@Z	; std::_Copy_memmove<int *,int *>
PUBLIC	??1?$_Tidy_guard@V?$vector@U__SET@CExchange@@V?$allocator@U__SET@CExchange@@@std@@@std@@@std@@QAE@XZ ; std::_Tidy_guard<std::vector<CExchange::__SET,std::allocator<CExchange::__SET> > >::~_Tidy_guard<std::vector<CExchange::__SET,std::allocator<CExchange::__SET> > >
PUBLIC	??1?$_Uninitialized_backout_al@V?$allocator@U__SET@CExchange@@@std@@@std@@QAE@XZ ; std::_Uninitialized_backout_al<std::allocator<CExchange::__SET> >::~_Uninitialized_backout_al<std::allocator<CExchange::__SET> >
PUBLIC	??$_Copy_memmove_tail@PAH@std@@YAPAHQBDQAHII@Z	; std::_Copy_memmove_tail<int *>
PUBLIC	??_C@_02DPKJAMEF@?$CFd@				; `string'
PUBLIC	??_C@_00CNPNBAHC@@				; `string'
PUBLIC	??_7exception@std@@6B@				; std::exception::`vftable'
PUBLIC	??_C@_0BC@EOODALEL@Unknown?5exception@		; `string'
PUBLIC	??_7bad_alloc@std@@6B@				; std::bad_alloc::`vftable'
PUBLIC	??_7bad_array_new_length@std@@6B@		; std::bad_array_new_length::`vftable'
PUBLIC	??_C@_0BF@KINCDENJ@bad?5array?5new?5length@	; `string'
PUBLIC	??_R0?AVexception@std@@@8			; std::exception `RTTI Type Descriptor'
PUBLIC	__CT??_R0?AVexception@std@@@8??0exception@std@@QAE@ABV01@@Z12
PUBLIC	__TI3?AVbad_array_new_length@std@@
PUBLIC	__CTA3?AVbad_array_new_length@std@@
PUBLIC	??_R0?AVbad_array_new_length@std@@@8		; std::bad_array_new_length `RTTI Type Descriptor'
PUBLIC	__CT??_R0?AVbad_array_new_length@std@@@8??0bad_array_new_length@std@@QAE@ABV01@@Z12
PUBLIC	??_R0?AVbad_alloc@std@@@8			; std::bad_alloc `RTTI Type Descriptor'
PUBLIC	__CT??_R0?AVbad_alloc@std@@@8??0bad_alloc@std@@QAE@ABV01@@Z12
PUBLIC	??_C@_0BB@GCADKGJO@map?1set?5too?5long@		; `string'
PUBLIC	??_7CExchange@@6B@				; CExchange::`vftable'
PUBLIC	??_C@_0BM@HMFGHCP@?$CFs?5min?3?$CFd?0?5max?3?$CFd?0?5index?3?$CFd@ ; `string'
PUBLIC	??_C@_0BI@BEIFNGEL@GetItemProp?5range_error@	; `string'
PUBLIC	??_C@_0BA@FOIKENOD@vector?5too?5long@		; `string'
PUBLIC	??_R4exception@std@@6B@				; std::exception::`RTTI Complete Object Locator'
PUBLIC	??_R3exception@std@@8				; std::exception::`RTTI Class Hierarchy Descriptor'
PUBLIC	??_R2exception@std@@8				; std::exception::`RTTI Base Class Array'
PUBLIC	??_R1A@?0A@EA@exception@std@@8			; std::exception::`RTTI Base Class Descriptor at (0,-1,0,64)'
PUBLIC	??_R4bad_array_new_length@std@@6B@		; std::bad_array_new_length::`RTTI Complete Object Locator'
PUBLIC	??_R3bad_array_new_length@std@@8		; std::bad_array_new_length::`RTTI Class Hierarchy Descriptor'
PUBLIC	??_R2bad_array_new_length@std@@8		; std::bad_array_new_length::`RTTI Base Class Array'
PUBLIC	??_R1A@?0A@EA@bad_array_new_length@std@@8	; std::bad_array_new_length::`RTTI Base Class Descriptor at (0,-1,0,64)'
PUBLIC	??_R1A@?0A@EA@bad_alloc@std@@8			; std::bad_alloc::`RTTI Base Class Descriptor at (0,-1,0,64)'
PUBLIC	??_R3bad_alloc@std@@8				; std::bad_alloc::`RTTI Class Hierarchy Descriptor'
PUBLIC	??_R2bad_alloc@std@@8				; std::bad_alloc::`RTTI Base Class Array'
PUBLIC	??_R4bad_alloc@std@@6B@				; std::bad_alloc::`RTTI Complete Object Locator'
PUBLIC	??_C@_0BE@LGHDIFOO@Exchange_Script?4txt@	; `string'
PUBLIC	??_C@_0M@FBMBBIBH@DESCRIPTION@			; `string'
PUBLIC	??_C@_03KPIFFHNE@SET@				; `string'
PUBLIC	??_C@_09JCGANPFG@RESULTMSG@			; `string'
PUBLIC	??_C@_09PCGEOLCH@CONDITION@			; `string'
PUBLIC	??_C@_05CDGEMFOH@PENYA@				; `string'
PUBLIC	??_C@_06PGHHOBB@REMOVE@				; `string'
PUBLIC	??_C@_0BA@GNGHFLG@CONDITION_POINT@		; `string'
PUBLIC	??_C@_0DI@FGEBBCAC@CExchange?3?3Load_Script?$CI?$CJ?5?9?5Inva@ ; `string'
PUBLIC	??_C@_0N@GCLKHGAL@REMOVE_POINT@			; `string'
PUBLIC	??_C@_0DF@EBIDFENE@CExchange?3?3Load_Script?$CI?$CJ?5?9?5Inva@ ; `string'
PUBLIC	??_C@_03PJHCOKL@PAY@				; `string'
PUBLIC	??_C@_0DJ@PHNEEKBK@Exchange_Script?4txt?5?9?$DO?5PAY?5?H?$KO?$LH?$PM@ ; `string'
PUBLIC	??_C@_0DJ@GFNEFJCE@Exchange_Script?4txt?5?9?$DO?5PAY?5?H?$KO?$LH?$PM@ ; `string'
PUBLIC	??_C@_0DK@IFDDKIHH@Exchange_Script?4txt?5?9?$DO?5PAY?5?$CI?$LI?$KO?$LN@ ; `string'
PUBLIC	??_C@_07BFJJNFBL@?$CC?$CFs?$CC?5?$CFd@		; `string'
PUBLIC	??_C@_0BA@PKEMALAC@EXCHANGE_REMOVE@		; `string'
PUBLIC	??_C@_01NEMOKFLO@?$DN@				; `string'
PUBLIC	??_C@_0BA@PGBNEGMH@EXCHANGE_CREATE@		; `string'
PUBLIC	??_C@_0DO@FILECCLL@CExchange?3?3ResultExchange?$CI?$CJ?5?$LO?F?$MA@ ; `string'
PUBLIC	??_R4CExchange@@6B@				; CExchange::`RTTI Complete Object Locator'
PUBLIC	??_R0?AVCExchange@@@8				; CExchange `RTTI Type Descriptor'
PUBLIC	??_R3CExchange@@8				; CExchange::`RTTI Class Hierarchy Descriptor'
PUBLIC	??_R2CExchange@@8				; CExchange::`RTTI Base Class Array'
PUBLIC	??_R1A@?0A@EA@CExchange@@8			; CExchange::`RTTI Base Class Descriptor at (0,-1,0,64)'
PUBLIC	__xmm@00000000000000000000006400000064
EXTRN	??2@YAPAXI@Z:PROC				; operator new
EXTRN	??3@YAXPAXI@Z:PROC				; operator delete
EXTRN	__invalid_parameter_noinfo:PROC
EXTRN	__invoke_watson:PROC
EXTRN	__errno:PROC
EXTRN	__mbscmp:PROC
EXTRN	?AfxThrowMemoryException@@YGXXZ:PROC		; AfxThrowMemoryException
EXTRN	?AfxThrowOleException@@YGXJ@Z:PROC		; AfxThrowOleException
EXTRN	?AfxGetStringManager@@YGPAUIAtlStringMgr@ATL@@XZ:PROC ; AfxGetStringManager
EXTRN	___std_exception_copy:PROC
EXTRN	___std_exception_destroy:PROC
EXTRN	??_Eexception@std@@UAEPAXI@Z:PROC		; std::exception::`vector deleting destructor'
EXTRN	??_Ebad_alloc@std@@UAEPAXI@Z:PROC		; std::bad_alloc::`vector deleting destructor'
EXTRN	??_Ebad_array_new_length@std@@UAEPAXI@Z:PROC	; std::bad_array_new_length::`vector deleting destructor'
EXTRN	?_Xlength_error@std@@YAXPBD@Z:PROC		; std::_Xlength_error
EXTRN	??0CScanner@@QAE@H@Z:PROC			; CScanner::CScanner
EXTRN	??1CScanner@@UAE@XZ:PROC			; CScanner::~CScanner
EXTRN	?GetToken@CScanner@@UAEHH@Z:PROC		; CScanner::GetToken
EXTRN	?Load@CScanner@@QAEHPBDH@Z:PROC			; CScanner::Load
EXTRN	?GetNumber@CScanner@@QAEHH@Z:PROC		; CScanner::GetNumber
EXTRN	?GetDefineNum@CScript@@SAHPBD@Z:PROC		; CScript::GetDefineNum
EXTRN	?Error@@YAPBDPBDZZ:PROC				; Error
EXTRN	??_ECExchange@@UAEPAXI@Z:PROC			; CExchange::`vector deleting destructor'
EXTRN	?SetSerialNumber@CItemBase@@QAEXXZ:PROC		; CItemBase::SetSerialNumber
EXTRN	?GetName@CItemElem@@QAE?AV?$CStringT@DV?$StrTraitMFC@DV?$ChTraitsCRT@D@ATL@@@@@ATL@@XZ:PROC ; CItemElem::GetName
EXTRN	??0CItemElem@@QAE@XZ:PROC			; CItemElem::CItemElem
EXTRN	??1CItemElem@@UAE@XZ:PROC			; CItemElem::~CItemElem
EXTRN	?IsUsableItem@@YAHPAVCItemBase@@@Z:PROC		; IsUsableItem
EXTRN	?GetName@CMover@@QAEPBDH@Z:PROC			; CMover::GetName
EXTRN	?AddGold@CMover@@QAEHHH@Z:PROC			; CMover::AddGold
EXTRN	?GetItemNum@CMover@@QAEHK@Z:PROC		; CMover::GetItemNum
EXTRN	?CreateItem@CMover@@QAEHPAVCItemBase@@PAEPAFE@Z:PROC ; CMover::CreateItem
EXTRN	?RemoveItemA@CMover@@QAEHKF@Z:PROC		; CMover::RemoveItemA
EXTRN	?AddDefinedText@CUser@@QAAXHPBDZZ:PROC		; CUser::AddDefinedText
EXTRN	?GetPointByType@CUser@@QAEHH@Z:PROC		; CUser::GetPointByType
EXTRN	?OnLogItem@CDPSrvr@@QAEXAAU_LogItemInfo@@PAVCItemElem@@H@Z:PROC ; CDPSrvr::OnLogItem
EXTRN	?PutPenyaLog@CDPSrvr@@QAEXPAVCUser@@PBD1H@Z:PROC ; CDPSrvr::PutPenyaLog
EXTRN	?SendUpdateCampusPoint@CDPDatabaseClient@@QAEXKHHD@Z:PROC ; CDPDatabaseClient::SendUpdateCampusPoint
EXTRN	@__security_check_cookie@4:PROC
EXTRN	__CxxThrowException@8:PROC
EXTRN	___CxxFrameHandler3:PROC
EXTRN	_memcpy:PROC
EXTRN	_memmove:PROC
EXTRN	_memset:PROC
EXTRN	??_7type_info@@6B@:QWORD			; type_info::`vftable'
EXTRN	?g_next@@3KA:DWORD				; g_next
EXTRN	?prj@@3VCProject@@A:BYTE			; prj
EXTRN	?g_DPSrvr@@3VCDPSrvr@@A:BYTE			; g_DPSrvr
EXTRN	?g_dpDBClient@@3VCDPDatabaseClient@@A:BYTE	; g_dpDBClient
EXTRN	___security_cookie:DWORD
;	COMDAT __xmm@00000000000000000000006400000064
CONST	SEGMENT
__xmm@00000000000000000000006400000064 DB 'd', 00H, 00H, 00H, 'd', 00H, 00H
	DB	00H, 00H, 00H, 00H, 00H, 00H, 00H, 00H, 00H
CONST	ENDS
;	COMDAT ??_R1A@?0A@EA@CExchange@@8
rdata$r	SEGMENT
??_R1A@?0A@EA@CExchange@@8 DD FLAT:??_R0?AVCExchange@@@8 ; CExchange::`RTTI Base Class Descriptor at (0,-1,0,64)'
	DD	00H
	DD	00H
	DD	0ffffffffH
	DD	00H
	DD	040H
	DD	FLAT:??_R3CExchange@@8
rdata$r	ENDS
;	COMDAT ??_R2CExchange@@8
rdata$r	SEGMENT
??_R2CExchange@@8 DD FLAT:??_R1A@?0A@EA@CExchange@@8	; CExchange::`RTTI Base Class Array'
rdata$r	ENDS
;	COMDAT ??_R3CExchange@@8
rdata$r	SEGMENT
??_R3CExchange@@8 DD 00H				; CExchange::`RTTI Class Hierarchy Descriptor'
	DD	00H
	DD	01H
	DD	FLAT:??_R2CExchange@@8
rdata$r	ENDS
;	COMDAT ??_R0?AVCExchange@@@8
data$rs	SEGMENT
??_R0?AVCExchange@@@8 DD FLAT:??_7type_info@@6B@	; CExchange `RTTI Type Descriptor'
	DD	00H
	DB	'.?AVCExchange@@', 00H
data$rs	ENDS
;	COMDAT ??_R4CExchange@@6B@
rdata$r	SEGMENT
??_R4CExchange@@6B@ DD 00H				; CExchange::`RTTI Complete Object Locator'
	DD	00H
	DD	00H
	DD	FLAT:??_R0?AVCExchange@@@8
	DD	FLAT:??_R3CExchange@@8
rdata$r	ENDS
;	COMDAT ??_C@_0DO@FILECCLL@CExchange?3?3ResultExchange?$CI?$CJ?5?$LO?F?$MA@
CONST	SEGMENT
??_C@_0DO@FILECCLL@CExchange?3?3ResultExchange?$CI?$CJ?5?$LO?F?$MA@ DB 'C'
	DB	'Exchange::ResultExchange() ', 0beH, 0c6H, 0c0H, 0ccH, 0c5H, 0dbH
	DB	' ', 0c1H, 0f6H, 0b1H, 0deH, ' ', 0bdH, 0c7H, 0c6H, 0d0H, ' - '
	DB	'%s, %s, %d, %d', 00H			; `string'
CONST	ENDS
;	COMDAT ??_C@_0BA@PGBNEGMH@EXCHANGE_CREATE@
CONST	SEGMENT
??_C@_0BA@PGBNEGMH@EXCHANGE_CREATE@ DB 'EXCHANGE_CREATE', 00H ; `string'
CONST	ENDS
;	COMDAT ??_C@_01NEMOKFLO@?$DN@
CONST	SEGMENT
??_C@_01NEMOKFLO@?$DN@ DB '=', 00H			; `string'
CONST	ENDS
;	COMDAT ??_C@_0BA@PKEMALAC@EXCHANGE_REMOVE@
CONST	SEGMENT
??_C@_0BA@PKEMALAC@EXCHANGE_REMOVE@ DB 'EXCHANGE_REMOVE', 00H ; `string'
CONST	ENDS
;	COMDAT ??_C@_07BFJJNFBL@?$CC?$CFs?$CC?5?$CFd@
CONST	SEGMENT
??_C@_07BFJJNFBL@?$CC?$CFs?$CC?5?$CFd@ DB '"%s" %d', 00H ; `string'
CONST	ENDS
;	COMDAT ??_C@_0DK@IFDDKIHH@Exchange_Script?4txt?5?9?$DO?5PAY?5?$CI?$LI?$KO?$LN@
CONST	SEGMENT
??_C@_0DK@IFDDKIHH@Exchange_Script?4txt?5?9?$DO?5PAY?5?$CI?$LI?$KO?$LN@ DB 'E'
	DB	'xchange_Script.txt -> PAY (', 0b8H, 0aeH, 0bdH, 0baH, 0c6H, 0aeH
	DB	' ', 0b0H, 0b9H, 0bcH, 0f6H, ' < ', 0c1H, 0f6H, 0b1H, 0deH, ' '
	DB	0b0H, 0b9H, 0bcH, 0f6H, ') : %s', 00H	; `string'
CONST	ENDS
;	COMDAT ??_C@_0DJ@GFNEFJCE@Exchange_Script?4txt?5?9?$DO?5PAY?5?H?$KO?$LH?$PM@
CONST	SEGMENT
??_C@_0DJ@GFNEFJCE@Exchange_Script?4txt?5?9?$DO?5PAY?5?H?$KO?$LH?$PM@ DB 'E'
	DB	'xchange_Script.txt -> PAY ', 0c8H, 0aeH, 0b7H, 0fcH, ' ', 0c7H
	DB	0d5H, 0b0H, 0e8H, 0b0H, 0a1H, ' 1000000 ', 0b9H, 0ccH, 0b8H, 0b8H
	DB	' : %s', 00H					; `string'
CONST	ENDS
;	COMDAT ??_C@_0DJ@PHNEEKBK@Exchange_Script?4txt?5?9?$DO?5PAY?5?H?$KO?$LH?$PM@
CONST	SEGMENT
??_C@_0DJ@PHNEEKBK@Exchange_Script?4txt?5?9?$DO?5PAY?5?H?$KO?$LH?$PM@ DB 'E'
	DB	'xchange_Script.txt -> PAY ', 0c8H, 0aeH, 0b7H, 0fcH, ' ', 0c7H
	DB	0d5H, 0b0H, 0e8H, 0b0H, 0a1H, ' 1000000 ', 0c3H, 0caH, 0b0H, 0faH
	DB	' : %s', 00H					; `string'
CONST	ENDS
;	COMDAT ??_C@_03PJHCOKL@PAY@
CONST	SEGMENT
??_C@_03PJHCOKL@PAY@ DB 'PAY', 00H			; `string'
CONST	ENDS
;	COMDAT ??_C@_0DF@EBIDFENE@CExchange?3?3Load_Script?$CI?$CJ?5?9?5Inva@
CONST	SEGMENT
??_C@_0DF@EBIDFENE@CExchange?3?3Load_Script?$CI?$CJ?5?9?5Inva@ DB 'CExcha'
	DB	'nge::Load_Script() - Invalid REMOVE_POINT Type', 00H ; `string'
CONST	ENDS
;	COMDAT ??_C@_0N@GCLKHGAL@REMOVE_POINT@
CONST	SEGMENT
??_C@_0N@GCLKHGAL@REMOVE_POINT@ DB 'REMOVE_POINT', 00H	; `string'
CONST	ENDS
;	COMDAT ??_C@_0DI@FGEBBCAC@CExchange?3?3Load_Script?$CI?$CJ?5?9?5Inva@
CONST	SEGMENT
??_C@_0DI@FGEBBCAC@CExchange?3?3Load_Script?$CI?$CJ?5?9?5Inva@ DB 'CExcha'
	DB	'nge::Load_Script() - Invalid CONDITION_POINT Type', 00H ; `string'
CONST	ENDS
;	COMDAT ??_C@_0BA@GNGHFLG@CONDITION_POINT@
CONST	SEGMENT
??_C@_0BA@GNGHFLG@CONDITION_POINT@ DB 'CONDITION_POINT', 00H ; `string'
CONST	ENDS
;	COMDAT ??_C@_06PGHHOBB@REMOVE@
CONST	SEGMENT
??_C@_06PGHHOBB@REMOVE@ DB 'REMOVE', 00H		; `string'
CONST	ENDS
;	COMDAT ??_C@_05CDGEMFOH@PENYA@
CONST	SEGMENT
??_C@_05CDGEMFOH@PENYA@ DB 'PENYA', 00H			; `string'
CONST	ENDS
;	COMDAT ??_C@_09PCGEOLCH@CONDITION@
CONST	SEGMENT
??_C@_09PCGEOLCH@CONDITION@ DB 'CONDITION', 00H		; `string'
CONST	ENDS
;	COMDAT ??_C@_09JCGANPFG@RESULTMSG@
CONST	SEGMENT
??_C@_09JCGANPFG@RESULTMSG@ DB 'RESULTMSG', 00H		; `string'
CONST	ENDS
;	COMDAT ??_C@_03KPIFFHNE@SET@
CONST	SEGMENT
??_C@_03KPIFFHNE@SET@ DB 'SET', 00H			; `string'
CONST	ENDS
;	COMDAT ??_C@_0M@FBMBBIBH@DESCRIPTION@
CONST	SEGMENT
??_C@_0M@FBMBBIBH@DESCRIPTION@ DB 'DESCRIPTION', 00H	; `string'
CONST	ENDS
;	COMDAT ??_C@_0BE@LGHDIFOO@Exchange_Script?4txt@
CONST	SEGMENT
??_C@_0BE@LGHDIFOO@Exchange_Script?4txt@ DB 'Exchange_Script.txt', 00H ; `string'
CONST	ENDS
;	COMDAT ??_R4bad_alloc@std@@6B@
rdata$r	SEGMENT
??_R4bad_alloc@std@@6B@ DD 00H				; std::bad_alloc::`RTTI Complete Object Locator'
	DD	00H
	DD	00H
	DD	FLAT:??_R0?AVbad_alloc@std@@@8
	DD	FLAT:??_R3bad_alloc@std@@8
rdata$r	ENDS
;	COMDAT ??_R2bad_alloc@std@@8
rdata$r	SEGMENT
??_R2bad_alloc@std@@8 DD FLAT:??_R1A@?0A@EA@bad_alloc@std@@8 ; std::bad_alloc::`RTTI Base Class Array'
	DD	FLAT:??_R1A@?0A@EA@exception@std@@8
rdata$r	ENDS
;	COMDAT ??_R3bad_alloc@std@@8
rdata$r	SEGMENT
??_R3bad_alloc@std@@8 DD 00H				; std::bad_alloc::`RTTI Class Hierarchy Descriptor'
	DD	00H
	DD	02H
	DD	FLAT:??_R2bad_alloc@std@@8
rdata$r	ENDS
;	COMDAT ??_R1A@?0A@EA@bad_alloc@std@@8
rdata$r	SEGMENT
??_R1A@?0A@EA@bad_alloc@std@@8 DD FLAT:??_R0?AVbad_alloc@std@@@8 ; std::bad_alloc::`RTTI Base Class Descriptor at (0,-1,0,64)'
	DD	01H
	DD	00H
	DD	0ffffffffH
	DD	00H
	DD	040H
	DD	FLAT:??_R3bad_alloc@std@@8
rdata$r	ENDS
;	COMDAT ??_R1A@?0A@EA@bad_array_new_length@std@@8
rdata$r	SEGMENT
??_R1A@?0A@EA@bad_array_new_length@std@@8 DD FLAT:??_R0?AVbad_array_new_length@std@@@8 ; std::bad_array_new_length::`RTTI Base Class Descriptor at (0,-1,0,64)'
	DD	02H
	DD	00H
	DD	0ffffffffH
	DD	00H
	DD	040H
	DD	FLAT:??_R3bad_array_new_length@std@@8
rdata$r	ENDS
;	COMDAT ??_R2bad_array_new_length@std@@8
rdata$r	SEGMENT
??_R2bad_array_new_length@std@@8 DD FLAT:??_R1A@?0A@EA@bad_array_new_length@std@@8 ; std::bad_array_new_length::`RTTI Base Class Array'
	DD	FLAT:??_R1A@?0A@EA@bad_alloc@std@@8
	DD	FLAT:??_R1A@?0A@EA@exception@std@@8
rdata$r	ENDS
;	COMDAT ??_R3bad_array_new_length@std@@8
rdata$r	SEGMENT
??_R3bad_array_new_length@std@@8 DD 00H			; std::bad_array_new_length::`RTTI Class Hierarchy Descriptor'
	DD	00H
	DD	03H
	DD	FLAT:??_R2bad_array_new_length@std@@8
rdata$r	ENDS
;	COMDAT ??_R4bad_array_new_length@std@@6B@
rdata$r	SEGMENT
??_R4bad_array_new_length@std@@6B@ DD 00H		; std::bad_array_new_length::`RTTI Complete Object Locator'
	DD	00H
	DD	00H
	DD	FLAT:??_R0?AVbad_array_new_length@std@@@8
	DD	FLAT:??_R3bad_array_new_length@std@@8
rdata$r	ENDS
;	COMDAT ??_R1A@?0A@EA@exception@std@@8
rdata$r	SEGMENT
??_R1A@?0A@EA@exception@std@@8 DD FLAT:??_R0?AVexception@std@@@8 ; std::exception::`RTTI Base Class Descriptor at (0,-1,0,64)'
	DD	00H
	DD	00H
	DD	0ffffffffH
	DD	00H
	DD	040H
	DD	FLAT:??_R3exception@std@@8
rdata$r	ENDS
;	COMDAT ??_R2exception@std@@8
rdata$r	SEGMENT
??_R2exception@std@@8 DD FLAT:??_R1A@?0A@EA@exception@std@@8 ; std::exception::`RTTI Base Class Array'
rdata$r	ENDS
;	COMDAT ??_R3exception@std@@8
rdata$r	SEGMENT
??_R3exception@std@@8 DD 00H				; std::exception::`RTTI Class Hierarchy Descriptor'
	DD	00H
	DD	01H
	DD	FLAT:??_R2exception@std@@8
rdata$r	ENDS
;	COMDAT ??_R4exception@std@@6B@
rdata$r	SEGMENT
??_R4exception@std@@6B@ DD 00H				; std::exception::`RTTI Complete Object Locator'
	DD	00H
	DD	00H
	DD	FLAT:??_R0?AVexception@std@@@8
	DD	FLAT:??_R3exception@std@@8
rdata$r	ENDS
;	COMDAT ??_C@_0BA@FOIKENOD@vector?5too?5long@
CONST	SEGMENT
??_C@_0BA@FOIKENOD@vector?5too?5long@ DB 'vector too long', 00H ; `string'
CONST	ENDS
;	COMDAT ??_C@_0BI@BEIFNGEL@GetItemProp?5range_error@
CONST	SEGMENT
??_C@_0BI@BEIFNGEL@GetItemProp?5range_error@ DB 'GetItemProp range_error', 00H ; `string'
CONST	ENDS
;	COMDAT ??_C@_0BM@HMFGHCP@?$CFs?5min?3?$CFd?0?5max?3?$CFd?0?5index?3?$CFd@
CONST	SEGMENT
??_C@_0BM@HMFGHCP@?$CFs?5min?3?$CFd?0?5max?3?$CFd?0?5index?3?$CFd@ DB '%s'
	DB	' min:%d, max:%d, index:%d', 00H		; `string'
CONST	ENDS
;	COMDAT ??_7CExchange@@6B@
CONST	SEGMENT
??_7CExchange@@6B@ DD FLAT:??_R4CExchange@@6B@		; CExchange::`vftable'
	DD	FLAT:??_ECExchange@@UAEPAXI@Z
CONST	ENDS
;	COMDAT ??_C@_0BB@GCADKGJO@map?1set?5too?5long@
CONST	SEGMENT
??_C@_0BB@GCADKGJO@map?1set?5too?5long@ DB 'map/set too long', 00H ; `string'
CONST	ENDS
;	COMDAT __CT??_R0?AVbad_alloc@std@@@8??0bad_alloc@std@@QAE@ABV01@@Z12
xdata$x	SEGMENT
__CT??_R0?AVbad_alloc@std@@@8??0bad_alloc@std@@QAE@ABV01@@Z12 DD 010H
	DD	FLAT:??_R0?AVbad_alloc@std@@@8
	DD	00H
	DD	0ffffffffH
	ORG $+4
	DD	0cH
	DD	FLAT:??0bad_alloc@std@@QAE@ABV01@@Z
xdata$x	ENDS
;	COMDAT ??_R0?AVbad_alloc@std@@@8
data$r	SEGMENT
??_R0?AVbad_alloc@std@@@8 DD FLAT:??_7type_info@@6B@	; std::bad_alloc `RTTI Type Descriptor'
	DD	00H
	DB	'.?AVbad_alloc@std@@', 00H
data$r	ENDS
;	COMDAT __CT??_R0?AVbad_array_new_length@std@@@8??0bad_array_new_length@std@@QAE@ABV01@@Z12
xdata$x	SEGMENT
__CT??_R0?AVbad_array_new_length@std@@@8??0bad_array_new_length@std@@QAE@ABV01@@Z12 DD 00H
	DD	FLAT:??_R0?AVbad_array_new_length@std@@@8
	DD	00H
	DD	0ffffffffH
	ORG $+4
	DD	0cH
	DD	FLAT:??0bad_array_new_length@std@@QAE@ABV01@@Z
xdata$x	ENDS
;	COMDAT ??_R0?AVbad_array_new_length@std@@@8
data$r	SEGMENT
??_R0?AVbad_array_new_length@std@@@8 DD FLAT:??_7type_info@@6B@ ; std::bad_array_new_length `RTTI Type Descriptor'
	DD	00H
	DB	'.?AVbad_array_new_length@std@@', 00H
data$r	ENDS
;	COMDAT __CTA3?AVbad_array_new_length@std@@
xdata$x	SEGMENT
__CTA3?AVbad_array_new_length@std@@ DD 03H
	DD	FLAT:__CT??_R0?AVbad_array_new_length@std@@@8??0bad_array_new_length@std@@QAE@ABV01@@Z12
	DD	FLAT:__CT??_R0?AVbad_alloc@std@@@8??0bad_alloc@std@@QAE@ABV01@@Z12
	DD	FLAT:__CT??_R0?AVexception@std@@@8??0exception@std@@QAE@ABV01@@Z12
xdata$x	ENDS
;	COMDAT __TI3?AVbad_array_new_length@std@@
xdata$x	SEGMENT
__TI3?AVbad_array_new_length@std@@ DD 00H
	DD	FLAT:??1bad_array_new_length@std@@UAE@XZ
	DD	00H
	DD	FLAT:__CTA3?AVbad_array_new_length@std@@
xdata$x	ENDS
;	COMDAT __CT??_R0?AVexception@std@@@8??0exception@std@@QAE@ABV01@@Z12
xdata$x	SEGMENT
__CT??_R0?AVexception@std@@@8??0exception@std@@QAE@ABV01@@Z12 DD 00H
	DD	FLAT:??_R0?AVexception@std@@@8
	DD	00H
	DD	0ffffffffH
	ORG $+4
	DD	0cH
	DD	FLAT:??0exception@std@@QAE@ABV01@@Z
xdata$x	ENDS
;	COMDAT ??_R0?AVexception@std@@@8
data$r	SEGMENT
??_R0?AVexception@std@@@8 DD FLAT:??_7type_info@@6B@	; std::exception `RTTI Type Descriptor'
	DD	00H
	DB	'.?AVexception@std@@', 00H
data$r	ENDS
;	COMDAT ??_C@_0BF@KINCDENJ@bad?5array?5new?5length@
CONST	SEGMENT
??_C@_0BF@KINCDENJ@bad?5array?5new?5length@ DB 'bad array new length', 00H ; `string'
CONST	ENDS
;	COMDAT ??_7bad_array_new_length@std@@6B@
CONST	SEGMENT
??_7bad_array_new_length@std@@6B@ DD FLAT:??_R4bad_array_new_length@std@@6B@ ; std::bad_array_new_length::`vftable'
	DD	FLAT:??_Ebad_array_new_length@std@@UAEPAXI@Z
	DD	FLAT:?what@exception@std@@UBEPBDXZ
CONST	ENDS
;	COMDAT ??_7bad_alloc@std@@6B@
CONST	SEGMENT
??_7bad_alloc@std@@6B@ DD FLAT:??_R4bad_alloc@std@@6B@	; std::bad_alloc::`vftable'
	DD	FLAT:??_Ebad_alloc@std@@UAEPAXI@Z
	DD	FLAT:?what@exception@std@@UBEPBDXZ
CONST	ENDS
;	COMDAT ??_C@_0BC@EOODALEL@Unknown?5exception@
CONST	SEGMENT
??_C@_0BC@EOODALEL@Unknown?5exception@ DB 'Unknown exception', 00H ; `string'
CONST	ENDS
;	COMDAT ??_7exception@std@@6B@
CONST	SEGMENT
??_7exception@std@@6B@ DD FLAT:??_R4exception@std@@6B@	; std::exception::`vftable'
	DD	FLAT:??_Eexception@std@@UAEPAXI@Z
	DD	FLAT:?what@exception@std@@UBEPBDXZ
CONST	ENDS
;	COMDAT ??_C@_00CNPNBAHC@@
CONST	SEGMENT
??_C@_00CNPNBAHC@@ DB 00H				; `string'
CONST	ENDS
;	COMDAT ??_C@_02DPKJAMEF@?$CFd@
CONST	SEGMENT
??_C@_02DPKJAMEF@?$CFd@ DB '%d', 00H			; `string'
CONST	ENDS
;	COMDAT xdata$x
xdata$x	SEGMENT
__unwindtable$??$_Uninitialized_copy@PAU__SET@CExchange@@PAU12@V?$allocator@U__SET@CExchange@@@std@@@std@@YAPAU__SET@CExchange@@PAU12@00AAV?$allocator@U__SET@CExchange@@@0@@Z DD 0ffffffffH
	DD	FLAT:__unwindfunclet$??$_Uninitialized_copy@PAU__SET@CExchange@@PAU12@V?$allocator@U__SET@CExchange@@@std@@@std@@YAPAU__SET@CExchange@@PAU12@00AAV?$allocator@U__SET@CExchange@@@0@@Z$0
__ehfuncinfo$??$_Uninitialized_copy@PAU__SET@CExchange@@PAU12@V?$allocator@U__SET@CExchange@@@std@@@std@@YAPAU__SET@CExchange@@PAU12@00AAV?$allocator@U__SET@CExchange@@@0@@Z DD 019930522H
	DD	01H
	DD	FLAT:__unwindtable$??$_Uninitialized_copy@PAU__SET@CExchange@@PAU12@V?$allocator@U__SET@CExchange@@@std@@@std@@YAPAU__SET@CExchange@@PAU12@00AAV?$allocator@U__SET@CExchange@@@0@@Z
	DD	2 DUP(00H)
	DD	2 DUP(00H)
	DD	00H
	DD	01H
xdata$x	ENDS
;	COMDAT xdata$x
xdata$x	SEGMENT
__unwindtable$??$_Construct_n@ABQAU__SET@CExchange@@ABQAU12@@?$vector@U__SET@CExchange@@V?$allocator@U__SET@CExchange@@@std@@@std@@AAEXIABQAU__SET@CExchange@@0@Z DD 0ffffffffH
	DD	FLAT:__unwindfunclet$??$_Construct_n@ABQAU__SET@CExchange@@ABQAU12@@?$vector@U__SET@CExchange@@V?$allocator@U__SET@CExchange@@@std@@@std@@AAEXIABQAU__SET@CExchange@@0@Z$0
	DD	00H
	DD	FLAT:__unwindfunclet$??$_Construct_n@ABQAU__SET@CExchange@@ABQAU12@@?$vector@U__SET@CExchange@@V?$allocator@U__SET@CExchange@@@std@@@std@@AAEXIABQAU__SET@CExchange@@0@Z$1
__ehfuncinfo$??$_Construct_n@ABQAU__SET@CExchange@@ABQAU12@@?$vector@U__SET@CExchange@@V?$allocator@U__SET@CExchange@@@std@@@std@@AAEXIABQAU__SET@CExchange@@0@Z DD 019930522H
	DD	02H
	DD	FLAT:__unwindtable$??$_Construct_n@ABQAU__SET@CExchange@@ABQAU12@@?$vector@U__SET@CExchange@@V?$allocator@U__SET@CExchange@@@std@@@std@@AAEXIABQAU__SET@CExchange@@0@Z
	DD	2 DUP(00H)
	DD	2 DUP(00H)
	DD	00H
	DD	01H
xdata$x	ENDS
;	COMDAT xdata$x
xdata$x	SEGMENT
__unwindtable$??$_Emplace_reallocate@ABU__SET@CExchange@@@?$vector@U__SET@CExchange@@V?$allocator@U__SET@CExchange@@@std@@@std@@AAEPAU__SET@CExchange@@QAU23@ABU23@@Z DD 0ffffffffH
	DD	FLAT:__unwindfunclet$??$_Emplace_reallocate@ABU__SET@CExchange@@@?$vector@U__SET@CExchange@@V?$allocator@U__SET@CExchange@@@std@@@std@@AAEPAU__SET@CExchange@@QAU23@ABU23@@Z$0
__ehfuncinfo$??$_Emplace_reallocate@ABU__SET@CExchange@@@?$vector@U__SET@CExchange@@V?$allocator@U__SET@CExchange@@@std@@@std@@AAEPAU__SET@CExchange@@QAU23@ABU23@@Z DD 019930522H
	DD	01H
	DD	FLAT:__unwindtable$??$_Emplace_reallocate@ABU__SET@CExchange@@@?$vector@U__SET@CExchange@@V?$allocator@U__SET@CExchange@@@std@@@std@@AAEPAU__SET@CExchange@@QAU23@ABU23@@Z
	DD	2 DUP(00H)
	DD	2 DUP(00H)
	DD	00H
	DD	01H
xdata$x	ENDS
;	COMDAT xdata$x
xdata$x	SEGMENT
__unwindtable$??$?0U?$pair@$$CBHU__SETLIST@CExchange@@@std@@@?$_Tree_temp_node@V?$allocator@U?$_Tree_node@U?$pair@$$CBHU__SETLIST@CExchange@@@std@@PAX@std@@@std@@@std@@QAE@AAV?$allocator@U?$_Tree_node@U?$pair@$$CBHU__SETLIST@CExchange@@@std@@PAX@std@@@1@PAU?$_Tree_node@U?$pair@$$CBHU__SETLIST@CExchange@@@std@@PAX@1@$$QAU?$pair@$$CBHU__SETLIST@CExchange@@@1@@Z DD 0ffffffffH
	DD	FLAT:__unwindfunclet$??$?0U?$pair@$$CBHU__SETLIST@CExchange@@@std@@@?$_Tree_temp_node@V?$allocator@U?$_Tree_node@U?$pair@$$CBHU__SETLIST@CExchange@@@std@@PAX@std@@@std@@@std@@QAE@AAV?$allocator@U?$_Tree_node@U?$pair@$$CBHU__SETLIST@CExchange@@@std@@PAX@std@@@1@PAU?$_Tree_node@U?$pair@$$CBHU__SETLIST@CExchange@@@std@@PAX@1@$$QAU?$pair@$$CBHU__SETLIST@CExchange@@@1@@Z$1
__ehfuncinfo$??$?0U?$pair@$$CBHU__SETLIST@CExchange@@@std@@@?$_Tree_temp_node@V?$allocator@U?$_Tree_node@U?$pair@$$CBHU__SETLIST@CExchange@@@std@@PAX@std@@@std@@@std@@QAE@AAV?$allocator@U?$_Tree_node@U?$pair@$$CBHU__SETLIST@CExchange@@@std@@PAX@std@@@1@PAU?$_Tree_node@U?$pair@$$CBHU__SETLIST@CExchange@@@std@@PAX@1@$$QAU?$pair@$$CBHU__SETLIST@CExchange@@@1@@Z DD 019930522H
	DD	01H
	DD	FLAT:__unwindtable$??$?0U?$pair@$$CBHU__SETLIST@CExchange@@@std@@@?$_Tree_temp_node@V?$allocator@U?$_Tree_node@U?$pair@$$CBHU__SETLIST@CExchange@@@std@@PAX@std@@@std@@@std@@QAE@AAV?$allocator@U?$_Tree_node@U?$pair@$$CBHU__SETLIST@CExchange@@@std@@PAX@std@@@1@PAU?$_Tree_node@U?$pair@$$CBHU__SETLIST@CExchange@@@std@@PAX@1@$$QAU?$pair@$$CBHU__SETLIST@CExchange@@@1@@Z
	DD	2 DUP(00H)
	DD	2 DUP(00H)
	DD	00H
	DD	01H
xdata$x	ENDS
;	COMDAT xdata$x
xdata$x	SEGMENT
__unwindtable$??0?$_Tree_temp_node_alloc@V?$allocator@U?$_Tree_node@U?$pair@$$CBHU__SETLIST@CExchange@@@std@@PAX@std@@@std@@@std@@QAE@AAV?$allocator@U?$_Tree_node@U?$pair@$$CBHU__SETLIST@CExchange@@@std@@PAX@std@@@1@@Z DD 0ffffffffH
	DD	FLAT:__unwindfunclet$??0?$_Tree_temp_node_alloc@V?$allocator@U?$_Tree_node@U?$pair@$$CBHU__SETLIST@CExchange@@@std@@PAX@std@@@std@@@std@@QAE@AAV?$allocator@U?$_Tree_node@U?$pair@$$CBHU__SETLIST@CExchange@@@std@@PAX@std@@@1@@Z$0
__ehfuncinfo$??0?$_Tree_temp_node_alloc@V?$allocator@U?$_Tree_node@U?$pair@$$CBHU__SETLIST@CExchange@@@std@@PAX@std@@@std@@@std@@QAE@AAV?$allocator@U?$_Tree_node@U?$pair@$$CBHU__SETLIST@CExchange@@@std@@PAX@std@@@1@@Z DD 019930522H
	DD	01H
	DD	FLAT:__unwindtable$??0?$_Tree_temp_node_alloc@V?$allocator@U?$_Tree_node@U?$pair@$$CBHU__SETLIST@CExchange@@@std@@PAX@std@@@std@@@std@@QAE@AAV?$allocator@U?$_Tree_node@U?$pair@$$CBHU__SETLIST@CExchange@@@std@@PAX@std@@@1@@Z
	DD	2 DUP(00H)
	DD	2 DUP(00H)
	DD	00H
	DD	01H
xdata$x	ENDS
;	COMDAT xdata$x
xdata$x	SEGMENT
__unwindtable$??$_Emplace@U?$pair@$$CBHU__SETLIST@CExchange@@@std@@@?$_Tree@V?$_Tmap_traits@HU__SETLIST@CExchange@@U?$less@H@std@@V?$allocator@U?$pair@$$CBHU__SETLIST@CExchange@@@std@@@4@$0A@@std@@@std@@IAE?AU?$pair@PAU?$_Tree_node@U?$pair@$$CBHU__SETLIST@CExchange@@@std@@PAX@std@@_N@1@$$QAU?$pair@$$CBHU__SETLIST@CExchange@@@1@@Z DD 0ffffffffH
	DD	FLAT:__unwindfunclet$??$_Emplace@U?$pair@$$CBHU__SETLIST@CExchange@@@std@@@?$_Tree@V?$_Tmap_traits@HU__SETLIST@CExchange@@U?$less@H@std@@V?$allocator@U?$pair@$$CBHU__SETLIST@CExchange@@@std@@@4@$0A@@std@@@std@@IAE?AU?$pair@PAU?$_Tree_node@U?$pair@$$CBHU__SETLIST@CExchange@@@std@@PAX@std@@_N@1@$$QAU?$pair@$$CBHU__SETLIST@CExchange@@@1@@Z$2
__ehfuncinfo$??$_Emplace@U?$pair@$$CBHU__SETLIST@CExchange@@@std@@@?$_Tree@V?$_Tmap_traits@HU__SETLIST@CExchange@@U?$less@H@std@@V?$allocator@U?$pair@$$CBHU__SETLIST@CExchange@@@std@@@4@$0A@@std@@@std@@IAE?AU?$pair@PAU?$_Tree_node@U?$pair@$$CBHU__SETLIST@CExchange@@@std@@PAX@std@@_N@1@$$QAU?$pair@$$CBHU__SETLIST@CExchange@@@1@@Z DD 019930522H
	DD	01H
	DD	FLAT:__unwindtable$??$_Emplace@U?$pair@$$CBHU__SETLIST@CExchange@@@std@@@?$_Tree@V?$_Tmap_traits@HU__SETLIST@CExchange@@U?$less@H@std@@V?$allocator@U?$pair@$$CBHU__SETLIST@CExchange@@@std@@@4@$0A@@std@@@std@@IAE?AU?$pair@PAU?$_Tree_node@U?$pair@$$CBHU__SETLIST@CExchange@@@std@@PAX@std@@_N@1@$$QAU?$pair@$$CBHU__SETLIST@CExchange@@@1@@Z
	DD	2 DUP(00H)
	DD	2 DUP(00H)
	DD	00H
	DD	01H
xdata$x	ENDS
;	COMDAT xdata$x
xdata$x	SEGMENT
__unwindtable$??$insert@$0A@$0A@@?$_Tree@V?$_Tmap_traits@HU__SETLIST@CExchange@@U?$less@H@std@@V?$allocator@U?$pair@$$CBHU__SETLIST@CExchange@@@std@@@4@$0A@@std@@@std@@QAE?AU?$pair@V?$_Tree_iterator@V?$_Tree_val@U?$_Tree_simple_types@U?$pair@$$CBHU__SETLIST@CExchange@@@std@@@std@@@std@@@std@@_N@1@$$QAU?$pair@$$CBHU__SETLIST@CExchange@@@1@@Z DD 0ffffffffH
	DD	FLAT:__unwindfunclet$??$insert@$0A@$0A@@?$_Tree@V?$_Tmap_traits@HU__SETLIST@CExchange@@U?$less@H@std@@V?$allocator@U?$pair@$$CBHU__SETLIST@CExchange@@@std@@@4@$0A@@std@@@std@@QAE?AU?$pair@V?$_Tree_iterator@V?$_Tree_val@U?$_Tree_simple_types@U?$pair@$$CBHU__SETLIST@CExchange@@@std@@@std@@@std@@@std@@_N@1@$$QAU?$pair@$$CBHU__SETLIST@CExchange@@@1@@Z$2
__ehfuncinfo$??$insert@$0A@$0A@@?$_Tree@V?$_Tmap_traits@HU__SETLIST@CExchange@@U?$less@H@std@@V?$allocator@U?$pair@$$CBHU__SETLIST@CExchange@@@std@@@4@$0A@@std@@@std@@QAE?AU?$pair@V?$_Tree_iterator@V?$_Tree_val@U?$_Tree_simple_types@U?$pair@$$CBHU__SETLIST@CExchange@@@std@@@std@@@std@@@std@@_N@1@$$QAU?$pair@$$CBHU__SETLIST@CExchange@@@1@@Z DD 019930522H
	DD	01H
	DD	FLAT:__unwindtable$??$insert@$0A@$0A@@?$_Tree@V?$_Tmap_traits@HU__SETLIST@CExchange@@U?$less@H@std@@V?$allocator@U?$pair@$$CBHU__SETLIST@CExchange@@@std@@@4@$0A@@std@@@std@@QAE?AU?$pair@V?$_Tree_iterator@V?$_Tree_val@U?$_Tree_simple_types@U?$pair@$$CBHU__SETLIST@CExchange@@@std@@@std@@@std@@@std@@_N@1@$$QAU?$pair@$$CBHU__SETLIST@CExchange@@@1@@Z
	DD	2 DUP(00H)
	DD	2 DUP(00H)
	DD	00H
	DD	01H
xdata$x	ENDS
;	COMDAT xdata$x
xdata$x	SEGMENT
__unwindtable$??$?0AAHAAU__SETLIST@CExchange@@$0A@@?$pair@$$CBHU__SETLIST@CExchange@@@std@@QAE@AAHAAU__SETLIST@CExchange@@@Z DD 0ffffffffH
	DD	FLAT:__unwindfunclet$??$?0AAHAAU__SETLIST@CExchange@@$0A@@?$pair@$$CBHU__SETLIST@CExchange@@@std@@QAE@AAHAAU__SETLIST@CExchange@@@Z$1
	DD	00H
	DD	FLAT:__unwindfunclet$??$?0AAHAAU__SETLIST@CExchange@@$0A@@?$pair@$$CBHU__SETLIST@CExchange@@@std@@QAE@AAHAAU__SETLIST@CExchange@@@Z$3
	DD	01H
	DD	FLAT:__unwindfunclet$??$?0AAHAAU__SETLIST@CExchange@@$0A@@?$pair@$$CBHU__SETLIST@CExchange@@@std@@QAE@AAHAAU__SETLIST@CExchange@@@Z$4
__ehfuncinfo$??$?0AAHAAU__SETLIST@CExchange@@$0A@@?$pair@$$CBHU__SETLIST@CExchange@@@std@@QAE@AAHAAU__SETLIST@CExchange@@@Z DD 019930522H
	DD	03H
	DD	FLAT:__unwindtable$??$?0AAHAAU__SETLIST@CExchange@@$0A@@?$pair@$$CBHU__SETLIST@CExchange@@@std@@QAE@AAHAAU__SETLIST@CExchange@@@Z
	DD	2 DUP(00H)
	DD	2 DUP(00H)
	DD	00H
	DD	01H
xdata$x	ENDS
;	COMDAT xdata$x
xdata$x	SEGMENT
__unwindtable$?GetRemovePointList@CExchange@@QAE?AV?$vector@U__POINT@CExchange@@V?$allocator@U__POINT@CExchange@@@std@@@std@@HH@Z DD 0ffffffffH
	DD	FLAT:__unwindfunclet$?GetRemovePointList@CExchange@@QAE?AV?$vector@U__POINT@CExchange@@V?$allocator@U__POINT@CExchange@@@std@@@std@@HH@Z$0
__ehfuncinfo$?GetRemovePointList@CExchange@@QAE?AV?$vector@U__POINT@CExchange@@V?$allocator@U__POINT@CExchange@@@std@@@std@@HH@Z DD 019930522H
	DD	01H
	DD	FLAT:__unwindtable$?GetRemovePointList@CExchange@@QAE?AV?$vector@U__POINT@CExchange@@V?$allocator@U__POINT@CExchange@@@std@@@std@@HH@Z
	DD	2 DUP(00H)
	DD	2 DUP(00H)
	DD	00H
	DD	01H
xdata$x	ENDS
;	COMDAT xdata$x
xdata$x	SEGMENT
__unwindtable$?GetPayItemList@CExchange@@QAE?AV?$vector@U__ITEM@CExchange@@V?$allocator@U__ITEM@CExchange@@@std@@@std@@HH@Z DD 0ffffffffH
	DD	FLAT:__unwindfunclet$?GetPayItemList@CExchange@@QAE?AV?$vector@U__ITEM@CExchange@@V?$allocator@U__ITEM@CExchange@@@std@@@std@@HH@Z$0
	DD	00H
	DD	FLAT:__unwindfunclet$?GetPayItemList@CExchange@@QAE?AV?$vector@U__ITEM@CExchange@@V?$allocator@U__ITEM@CExchange@@@std@@@std@@HH@Z$1
__ehfuncinfo$?GetPayItemList@CExchange@@QAE?AV?$vector@U__ITEM@CExchange@@V?$allocator@U__ITEM@CExchange@@@std@@@std@@HH@Z DD 019930522H
	DD	02H
	DD	FLAT:__unwindtable$?GetPayItemList@CExchange@@QAE?AV?$vector@U__ITEM@CExchange@@V?$allocator@U__ITEM@CExchange@@@std@@@std@@HH@Z
	DD	2 DUP(00H)
	DD	2 DUP(00H)
	DD	00H
	DD	01H
xdata$x	ENDS
;	COMDAT xdata$x
xdata$x	SEGMENT
__unwindtable$?GetRemoveItemList@CExchange@@QAE?AV?$vector@U__ITEM@CExchange@@V?$allocator@U__ITEM@CExchange@@@std@@@std@@HH@Z DD 0ffffffffH
	DD	FLAT:__unwindfunclet$?GetRemoveItemList@CExchange@@QAE?AV?$vector@U__ITEM@CExchange@@V?$allocator@U__ITEM@CExchange@@@std@@@std@@HH@Z$0
__ehfuncinfo$?GetRemoveItemList@CExchange@@QAE?AV?$vector@U__ITEM@CExchange@@V?$allocator@U__ITEM@CExchange@@@std@@@std@@HH@Z DD 019930522H
	DD	01H
	DD	FLAT:__unwindtable$?GetRemoveItemList@CExchange@@QAE?AV?$vector@U__ITEM@CExchange@@V?$allocator@U__ITEM@CExchange@@@std@@@std@@HH@Z
	DD	2 DUP(00H)
	DD	2 DUP(00H)
	DD	00H
	DD	01H
xdata$x	ENDS
;	COMDAT xdata$x
xdata$x	SEGMENT
__unwindtable$?IsFull@CExchange@@QAEHPAVCUser@@V?$vector@U__ITEM@CExchange@@V?$allocator@U__ITEM@CExchange@@@std@@@std@@1@Z DD 0ffffffffH
	DD	FLAT:__unwindfunclet$?IsFull@CExchange@@QAEHPAVCUser@@V?$vector@U__ITEM@CExchange@@V?$allocator@U__ITEM@CExchange@@@std@@@std@@1@Z$0
	DD	00H
	DD	FLAT:__unwindfunclet$?IsFull@CExchange@@QAEHPAVCUser@@V?$vector@U__ITEM@CExchange@@V?$allocator@U__ITEM@CExchange@@@std@@@std@@1@Z$1
__ehfuncinfo$?IsFull@CExchange@@QAEHPAVCUser@@V?$vector@U__ITEM@CExchange@@V?$allocator@U__ITEM@CExchange@@@std@@@std@@1@Z DD 019930522H
	DD	02H
	DD	FLAT:__unwindtable$?IsFull@CExchange@@QAEHPAVCUser@@V?$vector@U__ITEM@CExchange@@V?$allocator@U__ITEM@CExchange@@@std@@@std@@1@Z
	DD	2 DUP(00H)
	DD	2 DUP(00H)
	DD	00H
	DD	01H
xdata$x	ENDS
;	COMDAT xdata$x
xdata$x	SEGMENT
__unwindtable$?CheckCondition@CExchange@@QAEHPAVCUser@@HH@Z DD 0ffffffffH
	DD	FLAT:__unwindfunclet$?CheckCondition@CExchange@@QAEHPAVCUser@@HH@Z$0
	DD	00H
	DD	FLAT:__unwindfunclet$?CheckCondition@CExchange@@QAEHPAVCUser@@HH@Z$2
__ehfuncinfo$?CheckCondition@CExchange@@QAEHPAVCUser@@HH@Z DD 019930522H
	DD	02H
	DD	FLAT:__unwindtable$?CheckCondition@CExchange@@QAEHPAVCUser@@HH@Z
	DD	2 DUP(00H)
	DD	2 DUP(00H)
	DD	00H
	DD	01H
xdata$x	ENDS
;	COMDAT xdata$x
xdata$x	SEGMENT
__ehfuncinfo$?ResultExchange@CExchange@@QAEHPAVCUser@@HH@Z DD 019930522H
	DD	08H
	DD	FLAT:__unwindtable$?ResultExchange@CExchange@@QAEHPAVCUser@@HH@Z
	DD	2 DUP(00H)
	DD	2 DUP(00H)
	DD	00H
	DD	01H
__unwindtable$?ResultExchange@CExchange@@QAEHPAVCUser@@HH@Z DD 0ffffffffH
	DD	FLAT:__unwindfunclet$?ResultExchange@CExchange@@QAEHPAVCUser@@HH@Z$0
	DD	00H
	DD	FLAT:__unwindfunclet$?ResultExchange@CExchange@@QAEHPAVCUser@@HH@Z$1
	DD	01H
	DD	FLAT:__unwindfunclet$?ResultExchange@CExchange@@QAEHPAVCUser@@HH@Z$2
	DD	02H
	DD	FLAT:__unwindfunclet$?ResultExchange@CExchange@@QAEHPAVCUser@@HH@Z$3
	DD	02H
	DD	FLAT:__unwindfunclet$?ResultExchange@CExchange@@QAEHPAVCUser@@HH@Z$5
	DD	02H
	DD	FLAT:__unwindfunclet$?ResultExchange@CExchange@@QAEHPAVCUser@@HH@Z$6
	DD	05H
	DD	FLAT:__unwindfunclet$?ResultExchange@CExchange@@QAEHPAVCUser@@HH@Z$8
	DD	05H
	DD	FLAT:__unwindfunclet$?ResultExchange@CExchange@@QAEHPAVCUser@@HH@Z$9
xdata$x	ENDS
;	COMDAT xdata$x
xdata$x	SEGMENT
__unwindtable$?GetListTextId@CExchange@@QAE?AV?$vector@HV?$allocator@H@std@@@std@@H@Z DD 0ffffffffH
	DD	FLAT:__unwindfunclet$?GetListTextId@CExchange@@QAE?AV?$vector@HV?$allocator@H@std@@@std@@H@Z$0
__ehfuncinfo$?GetListTextId@CExchange@@QAE?AV?$vector@HV?$allocator@H@std@@@std@@H@Z DD 019930522H
	DD	01H
	DD	FLAT:__unwindtable$?GetListTextId@CExchange@@QAE?AV?$vector@HV?$allocator@H@std@@@std@@H@Z
	DD	2 DUP(00H)
	DD	2 DUP(00H)
	DD	00H
	DD	01H
xdata$x	ENDS
;	COMDAT xdata$x
xdata$x	SEGMENT
__ehfuncinfo$?Load_Script@CExchange@@QAEHXZ DD 019930522H
	DD	09H
	DD	FLAT:__unwindtable$?Load_Script@CExchange@@QAEHXZ
	DD	2 DUP(00H)
	DD	2 DUP(00H)
	DD	00H
	DD	01H
__unwindtable$?Load_Script@CExchange@@QAEHXZ DD 0ffffffffH
	DD	FLAT:__unwindfunclet$?Load_Script@CExchange@@QAEHXZ$0
	DD	00H
	DD	FLAT:__unwindfunclet$?Load_Script@CExchange@@QAEHXZ$1
	DD	01H
	DD	FLAT:__unwindfunclet$?Load_Script@CExchange@@QAEHXZ$2
	DD	02H
	DD	FLAT:__unwindfunclet$?Load_Script@CExchange@@QAEHXZ$3
	DD	02H
	DD	FLAT:__unwindfunclet$?Load_Script@CExchange@@QAEHXZ$8
	DD	04H
	DD	FLAT:__unwindfunclet$?Load_Script@CExchange@@QAEHXZ$10
	DD	05H
	DD	FLAT:__unwindfunclet$?Load_Script@CExchange@@QAEHXZ$11
	DD	02H
	DD	FLAT:__unwindfunclet$?Load_Script@CExchange@@QAEHXZ$4
	DD	07H
	DD	FLAT:__unwindfunclet$?Load_Script@CExchange@@QAEHXZ$15
xdata$x	ENDS
;	COMDAT xdata$x
xdata$x	SEGMENT
__unwindtable$??0__SETLIST@CExchange@@QAE@ABU01@@Z DD 0ffffffffH
	DD	FLAT:__unwindfunclet$??0__SETLIST@CExchange@@QAE@ABU01@@Z$0
	DD	00H
	DD	FLAT:__unwindfunclet$??0__SETLIST@CExchange@@QAE@ABU01@@Z$2
	DD	01H
	DD	FLAT:__unwindfunclet$??0__SETLIST@CExchange@@QAE@ABU01@@Z$3
__ehfuncinfo$??0__SETLIST@CExchange@@QAE@ABU01@@Z DD 019930522H
	DD	03H
	DD	FLAT:__unwindtable$??0__SETLIST@CExchange@@QAE@ABU01@@Z
	DD	2 DUP(00H)
	DD	2 DUP(00H)
	DD	00H
	DD	01H
xdata$x	ENDS
;	COMDAT xdata$x
xdata$x	SEGMENT
__unwindtable$??0?$vector@U__SET@CExchange@@V?$allocator@U__SET@CExchange@@@std@@@std@@QAE@ABV01@@Z DD 0ffffffffH
	DD	FLAT:__unwindfunclet$??0?$vector@U__SET@CExchange@@V?$allocator@U__SET@CExchange@@@std@@@std@@QAE@ABV01@@Z$0
	DD	00H
	DD	FLAT:__unwindfunclet$??0?$vector@U__SET@CExchange@@V?$allocator@U__SET@CExchange@@@std@@@std@@QAE@ABV01@@Z$1
__ehfuncinfo$??0?$vector@U__SET@CExchange@@V?$allocator@U__SET@CExchange@@@std@@@std@@QAE@ABV01@@Z DD 019930522H
	DD	02H
	DD	FLAT:__unwindtable$??0?$vector@U__SET@CExchange@@V?$allocator@U__SET@CExchange@@@std@@@std@@QAE@ABV01@@Z
	DD	2 DUP(00H)
	DD	2 DUP(00H)
	DD	00H
	DD	01H
xdata$x	ENDS
;	COMDAT xdata$x
xdata$x	SEGMENT
__ehfuncinfo$??0__SET@CExchange@@QAE@ABU01@@Z DD 019930522H
	DD	05H
	DD	FLAT:__unwindtable$??0__SET@CExchange@@QAE@ABU01@@Z
	DD	2 DUP(00H)
	DD	2 DUP(00H)
	DD	00H
	DD	01H
__unwindtable$??0__SET@CExchange@@QAE@ABU01@@Z DD 0ffffffffH
	DD	FLAT:__unwindfunclet$??0__SET@CExchange@@QAE@ABU01@@Z$0
	DD	00H
	DD	FLAT:__unwindfunclet$??0__SET@CExchange@@QAE@ABU01@@Z$1
	DD	01H
	DD	FLAT:__unwindfunclet$??0__SET@CExchange@@QAE@ABU01@@Z$2
	DD	02H
	DD	FLAT:__unwindfunclet$??0__SET@CExchange@@QAE@ABU01@@Z$3
	DD	03H
	DD	FLAT:__unwindfunclet$??0__SET@CExchange@@QAE@ABU01@@Z$4
xdata$x	ENDS
; Function compile flags: /Ogtp
; File C:\Program Files\Microsoft Visual Studio\2022\Professional\VC\Tools\MSVC\14.44.35207\include\xutility
;	COMDAT ??$_Copy_memmove_tail@PAH@std@@YAPAHQBDQAHII@Z
_TEXT	SEGMENT
__First_ch$ = 8						; size = 4
__Dest$ = 12						; size = 4
__Byte_count$ = 16					; size = 4
__Object_count$ = 20					; size = 4
??$_Copy_memmove_tail@PAH@std@@YAPAHQBDQAHII@Z PROC	; std::_Copy_memmove_tail<int *>, COMDAT

; 4747 :     const char* const _First_ch, const _OutCtgIt _Dest, const size_t _Byte_count, const size_t _Object_count) {

  00000	55		 push	 ebp
  00001	8b ec		 mov	 ebp, esp
  00003	56		 push	 esi

; 4748 :     _STL_INTERNAL_CHECK(_Byte_count == _Object_count * sizeof(*_Dest));
; 4749 :     const auto _Dest_ptr = _STD _To_address(_Dest);
; 4750 :     const auto _Dest_ch  = const_cast<char*>(reinterpret_cast<const volatile char*>(_Dest_ptr));
; 4751 :     _CSTD memmove(_Dest_ch, _First_ch, _Byte_count);

  00004	8b 75 0c	 mov	 esi, DWORD PTR __Dest$[ebp]
  00007	57		 push	 edi
  00008	8b 7d 10	 mov	 edi, DWORD PTR __Byte_count$[ebp]
  0000b	57		 push	 edi
  0000c	ff 75 08	 push	 DWORD PTR __First_ch$[ebp]
  0000f	56		 push	 esi
  00010	e8 00 00 00 00	 call	 _memmove
  00015	83 c4 0c	 add	 esp, 12			; 0000000cH

; 4752 :     if constexpr (is_pointer_v<_OutCtgIt>) {
; 4753 :         (void) _Object_count;
; 4754 :         // CodeQL [SM02986] This cast is correct: we're bypassing pointer arithmetic for performance.
; 4755 :         return reinterpret_cast<_OutCtgIt>(_Dest_ch + _Byte_count);

  00018	8d 04 3e	 lea	 eax, DWORD PTR [esi+edi]
  0001b	5f		 pop	 edi
  0001c	5e		 pop	 esi

; 4756 :     } else {
; 4757 :         return _Dest + static_cast<_Iter_diff_t<_OutCtgIt>>(_Object_count);
; 4758 :     }
; 4759 : }

  0001d	5d		 pop	 ebp
  0001e	c3		 ret	 0
??$_Copy_memmove_tail@PAH@std@@YAPAHQBDQAHII@Z ENDP	; std::_Copy_memmove_tail<int *>
_TEXT	ENDS
; Function compile flags: /Ogtp
; File C:\Program Files\Microsoft Visual Studio\2022\Professional\VC\Tools\MSVC\14.44.35207\include\xmemory
;	COMDAT ??1?$_Uninitialized_backout_al@V?$allocator@U__SET@CExchange@@@std@@@std@@QAE@XZ
_TEXT	SEGMENT
??1?$_Uninitialized_backout_al@V?$allocator@U__SET@CExchange@@@std@@@std@@QAE@XZ PROC ; std::_Uninitialized_backout_al<std::allocator<CExchange::__SET> >::~_Uninitialized_backout_al<std::allocator<CExchange::__SET> >, COMDAT
; _this$ = ecx

; 1839 :         _STD _Destroy_range(_First, _Last, _Al);

  00000	ff 71 08	 push	 DWORD PTR [ecx+8]
  00003	ff 71 04	 push	 DWORD PTR [ecx+4]
  00006	ff 31		 push	 DWORD PTR [ecx]
  00008	e8 00 00 00 00	 call	 ??$_Destroy_range@V?$allocator@U__SET@CExchange@@@std@@@std@@YAXPAU__SET@CExchange@@QAU12@AAV?$allocator@U__SET@CExchange@@@0@@Z ; std::_Destroy_range<std::allocator<CExchange::__SET> >
  0000d	83 c4 0c	 add	 esp, 12			; 0000000cH

; 1840 :     }

  00010	c3		 ret	 0
??1?$_Uninitialized_backout_al@V?$allocator@U__SET@CExchange@@@std@@@std@@QAE@XZ ENDP ; std::_Uninitialized_backout_al<std::allocator<CExchange::__SET> >::~_Uninitialized_backout_al<std::allocator<CExchange::__SET> >
_TEXT	ENDS
; Function compile flags: /Ogtp
; File C:\Program Files\Microsoft Visual Studio\2022\Professional\VC\Tools\MSVC\14.44.35207\include\xmemory
;	COMDAT ??1?$_Tidy_guard@V?$vector@U__SET@CExchange@@V?$allocator@U__SET@CExchange@@@std@@@std@@@std@@QAE@XZ
_TEXT	SEGMENT
??1?$_Tidy_guard@V?$vector@U__SET@CExchange@@V?$allocator@U__SET@CExchange@@@std@@@std@@@std@@QAE@XZ PROC ; std::_Tidy_guard<std::vector<CExchange::__SET,std::allocator<CExchange::__SET> > >::~_Tidy_guard<std::vector<CExchange::__SET,std::allocator<CExchange::__SET> > >, COMDAT
; _this$ = ecx

; 87   :         if (_Target) {

  00000	8b 09		 mov	 ecx, DWORD PTR [ecx]
  00002	85 c9		 test	 ecx, ecx
  00004	0f 85 00 00 00
	00		 jne	 ?_Tidy@?$vector@U__SET@CExchange@@V?$allocator@U__SET@CExchange@@@std@@@std@@AAEXXZ ; std::vector<CExchange::__SET,std::allocator<CExchange::__SET> >::_Tidy

; 88   :             _Target->_Tidy();
; 89   :         }
; 90   :     }

  0000a	c3		 ret	 0
??1?$_Tidy_guard@V?$vector@U__SET@CExchange@@V?$allocator@U__SET@CExchange@@@std@@@std@@@std@@QAE@XZ ENDP ; std::_Tidy_guard<std::vector<CExchange::__SET,std::allocator<CExchange::__SET> > >::~_Tidy_guard<std::vector<CExchange::__SET,std::allocator<CExchange::__SET> > >
_TEXT	ENDS
; Function compile flags: /Ogtp
; File C:\Program Files\Microsoft Visual Studio\2022\Professional\VC\Tools\MSVC\14.44.35207\include\xutility
;	COMDAT ??$_Copy_memmove@PAHPAH@std@@YAPAHPAH00@Z
_TEXT	SEGMENT
__First$ = 8						; size = 4
__Last$ = 12						; size = 4
__Dest$ = 16						; size = 4
??$_Copy_memmove@PAHPAH@std@@YAPAHPAH00@Z PROC		; std::_Copy_memmove<int *,int *>, COMDAT

; 4762 : _OutCtgIt _Copy_memmove(_CtgIt _First, _CtgIt _Last, _OutCtgIt _Dest) {

  00000	55		 push	 ebp
  00001	8b ec		 mov	 ebp, esp

; 4763 :     _STL_INTERNAL_CHECK(_First <= _Last);
; 4764 :     const auto _First_ptr    = _STD _To_address(_First);
; 4765 :     const auto _Last_ptr     = _STD _To_address(_Last);
; 4766 :     const auto _Object_count = static_cast<size_t>(_Last_ptr - _First_ptr);

  00003	8b 55 08	 mov	 edx, DWORD PTR __First$[ebp]
  00006	8b 4d 0c	 mov	 ecx, DWORD PTR __Last$[ebp]
  00009	2b ca		 sub	 ecx, edx
  0000b	8b c1		 mov	 eax, ecx
  0000d	c1 f8 02	 sar	 eax, 2

; 4767 :     const auto _First_ch     = const_cast<const char*>(reinterpret_cast<const volatile char*>(_First_ptr));
; 4768 :     const auto _Last_ch      = const_cast<const char*>(reinterpret_cast<const volatile char*>(_Last_ptr));
; 4769 :     const auto _Byte_count   = static_cast<size_t>(_Last_ch - _First_ch);
; 4770 :     return _STD _Copy_memmove_tail(_First_ch, _STD move(_Dest), _Byte_count, _Object_count);

  00010	50		 push	 eax
  00011	51		 push	 ecx
  00012	ff 75 10	 push	 DWORD PTR __Dest$[ebp]
  00015	52		 push	 edx
  00016	e8 00 00 00 00	 call	 ??$_Copy_memmove_tail@PAH@std@@YAPAHQBDQAHII@Z ; std::_Copy_memmove_tail<int *>
  0001b	83 c4 10	 add	 esp, 16			; 00000010H

; 4771 : }

  0001e	5d		 pop	 ebp
  0001f	c3		 ret	 0
??$_Copy_memmove@PAHPAH@std@@YAPAHPAH00@Z ENDP		; std::_Copy_memmove<int *,int *>
_TEXT	ENDS
; Function compile flags: /Ogtp
; File C:\Program Files\Microsoft Visual Studio\2022\Professional\VC\Tools\MSVC\14.44.35207\include\xutility
;	COMDAT ??$_Copy_memmove_tail@PAU__ITEM@CExchange@@@std@@YAPAU__ITEM@CExchange@@QBDQAU12@II@Z
_TEXT	SEGMENT
__First_ch$ = 8						; size = 4
__Dest$ = 12						; size = 4
__Byte_count$ = 16					; size = 4
__Object_count$ = 20					; size = 4
??$_Copy_memmove_tail@PAU__ITEM@CExchange@@@std@@YAPAU__ITEM@CExchange@@QBDQAU12@II@Z PROC ; std::_Copy_memmove_tail<CExchange::__ITEM *>, COMDAT

; 4747 :     const char* const _First_ch, const _OutCtgIt _Dest, const size_t _Byte_count, const size_t _Object_count) {

  00000	55		 push	 ebp
  00001	8b ec		 mov	 ebp, esp
  00003	56		 push	 esi

; 4748 :     _STL_INTERNAL_CHECK(_Byte_count == _Object_count * sizeof(*_Dest));
; 4749 :     const auto _Dest_ptr = _STD _To_address(_Dest);
; 4750 :     const auto _Dest_ch  = const_cast<char*>(reinterpret_cast<const volatile char*>(_Dest_ptr));
; 4751 :     _CSTD memmove(_Dest_ch, _First_ch, _Byte_count);

  00004	8b 75 0c	 mov	 esi, DWORD PTR __Dest$[ebp]
  00007	57		 push	 edi
  00008	8b 7d 10	 mov	 edi, DWORD PTR __Byte_count$[ebp]
  0000b	57		 push	 edi
  0000c	ff 75 08	 push	 DWORD PTR __First_ch$[ebp]
  0000f	56		 push	 esi
  00010	e8 00 00 00 00	 call	 _memmove
  00015	83 c4 0c	 add	 esp, 12			; 0000000cH

; 4752 :     if constexpr (is_pointer_v<_OutCtgIt>) {
; 4753 :         (void) _Object_count;
; 4754 :         // CodeQL [SM02986] This cast is correct: we're bypassing pointer arithmetic for performance.
; 4755 :         return reinterpret_cast<_OutCtgIt>(_Dest_ch + _Byte_count);

  00018	8d 04 3e	 lea	 eax, DWORD PTR [esi+edi]
  0001b	5f		 pop	 edi
  0001c	5e		 pop	 esi

; 4756 :     } else {
; 4757 :         return _Dest + static_cast<_Iter_diff_t<_OutCtgIt>>(_Object_count);
; 4758 :     }
; 4759 : }

  0001d	5d		 pop	 ebp
  0001e	c3		 ret	 0
??$_Copy_memmove_tail@PAU__ITEM@CExchange@@@std@@YAPAU__ITEM@CExchange@@QBDQAU12@II@Z ENDP ; std::_Copy_memmove_tail<CExchange::__ITEM *>
_TEXT	ENDS
; Function compile flags: /Ogtp
; File C:\Program Files\Microsoft Visual Studio\2022\Professional\VC\Tools\MSVC\14.44.35207\include\xutility
;	COMDAT ??$_Copy_memmove@PAU__POINT@CExchange@@PAU12@@std@@YAPAU__POINT@CExchange@@PAU12@00@Z
_TEXT	SEGMENT
__First$ = 8						; size = 4
__Last$ = 12						; size = 4
__Dest$ = 16						; size = 4
??$_Copy_memmove@PAU__POINT@CExchange@@PAU12@@std@@YAPAU__POINT@CExchange@@PAU12@00@Z PROC ; std::_Copy_memmove<CExchange::__POINT *,CExchange::__POINT *>, COMDAT

; 4762 : _OutCtgIt _Copy_memmove(_CtgIt _First, _CtgIt _Last, _OutCtgIt _Dest) {

  00000	55		 push	 ebp
  00001	8b ec		 mov	 ebp, esp

; 4763 :     _STL_INTERNAL_CHECK(_First <= _Last);
; 4764 :     const auto _First_ptr    = _STD _To_address(_First);
; 4765 :     const auto _Last_ptr     = _STD _To_address(_Last);
; 4766 :     const auto _Object_count = static_cast<size_t>(_Last_ptr - _First_ptr);

  00003	8b 55 08	 mov	 edx, DWORD PTR __First$[ebp]
  00006	8b 4d 0c	 mov	 ecx, DWORD PTR __Last$[ebp]
  00009	2b ca		 sub	 ecx, edx
  0000b	8b c1		 mov	 eax, ecx
  0000d	c1 f8 03	 sar	 eax, 3

; 4767 :     const auto _First_ch     = const_cast<const char*>(reinterpret_cast<const volatile char*>(_First_ptr));
; 4768 :     const auto _Last_ch      = const_cast<const char*>(reinterpret_cast<const volatile char*>(_Last_ptr));
; 4769 :     const auto _Byte_count   = static_cast<size_t>(_Last_ch - _First_ch);
; 4770 :     return _STD _Copy_memmove_tail(_First_ch, _STD move(_Dest), _Byte_count, _Object_count);

  00010	50		 push	 eax
  00011	51		 push	 ecx
  00012	ff 75 10	 push	 DWORD PTR __Dest$[ebp]
  00015	52		 push	 edx
  00016	e8 00 00 00 00	 call	 ??$_Copy_memmove_tail@PAU__POINT@CExchange@@@std@@YAPAU__POINT@CExchange@@QBDQAU12@II@Z ; std::_Copy_memmove_tail<CExchange::__POINT *>
  0001b	83 c4 10	 add	 esp, 16			; 00000010H

; 4771 : }

  0001e	5d		 pop	 ebp
  0001f	c3		 ret	 0
??$_Copy_memmove@PAU__POINT@CExchange@@PAU12@@std@@YAPAU__POINT@CExchange@@PAU12@00@Z ENDP ; std::_Copy_memmove<CExchange::__POINT *,CExchange::__POINT *>
_TEXT	ENDS
; Function compile flags: /Ogtp
; File C:\Program Files\Microsoft Visual Studio\2022\Professional\VC\Tools\MSVC\14.44.35207\include\xutility
;	COMDAT ??$_Copy_memmove_tail@PAU__POINT@CExchange@@@std@@YAPAU__POINT@CExchange@@QBDQAU12@II@Z
_TEXT	SEGMENT
__First_ch$ = 8						; size = 4
__Dest$ = 12						; size = 4
__Byte_count$ = 16					; size = 4
__Object_count$ = 20					; size = 4
??$_Copy_memmove_tail@PAU__POINT@CExchange@@@std@@YAPAU__POINT@CExchange@@QBDQAU12@II@Z PROC ; std::_Copy_memmove_tail<CExchange::__POINT *>, COMDAT

; 4747 :     const char* const _First_ch, const _OutCtgIt _Dest, const size_t _Byte_count, const size_t _Object_count) {

  00000	55		 push	 ebp
  00001	8b ec		 mov	 ebp, esp
  00003	56		 push	 esi

; 4748 :     _STL_INTERNAL_CHECK(_Byte_count == _Object_count * sizeof(*_Dest));
; 4749 :     const auto _Dest_ptr = _STD _To_address(_Dest);
; 4750 :     const auto _Dest_ch  = const_cast<char*>(reinterpret_cast<const volatile char*>(_Dest_ptr));
; 4751 :     _CSTD memmove(_Dest_ch, _First_ch, _Byte_count);

  00004	8b 75 0c	 mov	 esi, DWORD PTR __Dest$[ebp]
  00007	57		 push	 edi
  00008	8b 7d 10	 mov	 edi, DWORD PTR __Byte_count$[ebp]
  0000b	57		 push	 edi
  0000c	ff 75 08	 push	 DWORD PTR __First_ch$[ebp]
  0000f	56		 push	 esi
  00010	e8 00 00 00 00	 call	 _memmove
  00015	83 c4 0c	 add	 esp, 12			; 0000000cH

; 4752 :     if constexpr (is_pointer_v<_OutCtgIt>) {
; 4753 :         (void) _Object_count;
; 4754 :         // CodeQL [SM02986] This cast is correct: we're bypassing pointer arithmetic for performance.
; 4755 :         return reinterpret_cast<_OutCtgIt>(_Dest_ch + _Byte_count);

  00018	8d 04 3e	 lea	 eax, DWORD PTR [esi+edi]
  0001b	5f		 pop	 edi
  0001c	5e		 pop	 esi

; 4756 :     } else {
; 4757 :         return _Dest + static_cast<_Iter_diff_t<_OutCtgIt>>(_Object_count);
; 4758 :     }
; 4759 : }

  0001d	5d		 pop	 ebp
  0001e	c3		 ret	 0
??$_Copy_memmove_tail@PAU__POINT@CExchange@@@std@@YAPAU__POINT@CExchange@@QBDQAU12@II@Z ENDP ; std::_Copy_memmove_tail<CExchange::__POINT *>
_TEXT	ENDS
; Function compile flags: /Ogtp
; File C:\Program Files\Microsoft Visual Studio\2022\Professional\VC\Tools\MSVC\14.44.35207\include\vector
; File C:\Program Files\Microsoft Visual Studio\2022\Professional\VC\Tools\MSVC\14.44.35207\include\xmemory
; File C:\Program Files\Microsoft Visual Studio\2022\Professional\VC\Tools\MSVC\14.44.35207\include\vector
; File C:\Program Files\Microsoft Visual Studio\2022\Professional\VC\Tools\MSVC\14.44.35207\include\xmemory
; File C:\Program Files\Microsoft Visual Studio\2022\Professional\VC\Tools\MSVC\14.44.35207\include\vector
; File C:\Program Files\Microsoft Visual Studio\2022\Professional\VC\Tools\MSVC\14.44.35207\include\xmemory
; File C:\Program Files\Microsoft Visual Studio\2022\Professional\VC\Tools\MSVC\14.44.35207\include\vector
;	COMDAT ??1_Reallocation_guard@?$vector@U__SET@CExchange@@V?$allocator@U__SET@CExchange@@@std@@@std@@QAE@XZ
_TEXT	SEGMENT
??1_Reallocation_guard@?$vector@U__SET@CExchange@@V?$allocator@U__SET@CExchange@@@std@@@std@@QAE@XZ PROC ; std::vector<CExchange::__SET,std::allocator<CExchange::__SET> >::_Reallocation_guard::~_Reallocation_guard, COMDAT
; _this$ = ecx

; 620  :         _CONSTEXPR20 ~_Reallocation_guard() noexcept {

  00000	56		 push	 esi
  00001	8b f1		 mov	 esi, ecx

; 621  :             if (_New_begin != nullptr) {

  00003	83 7e 04 00	 cmp	 DWORD PTR [esi+4], 0
  00007	74 40		 je	 SHORT $LN10@Reallocati

; 622  :                 _STD _Destroy_range(_Constructed_first, _Constructed_last, _Al);

  00009	ff 36		 push	 DWORD PTR [esi]
  0000b	ff 76 10	 push	 DWORD PTR [esi+16]
  0000e	ff 76 0c	 push	 DWORD PTR [esi+12]
  00011	e8 00 00 00 00	 call	 ??$_Destroy_range@V?$allocator@U__SET@CExchange@@@std@@@std@@YAXPAU__SET@CExchange@@QAU12@AAV?$allocator@U__SET@CExchange@@@0@@Z ; std::_Destroy_range<std::allocator<CExchange::__SET> >
; File C:\Program Files\Microsoft Visual Studio\2022\Professional\VC\Tools\MSVC\14.44.35207\include\xmemory

; 985  :         _STD _Deallocate<_New_alignof<_Ty>>(_Ptr, sizeof(_Ty) * _Count);

  00016	8b 46 08	 mov	 eax, DWORD PTR [esi+8]
; File C:\Program Files\Microsoft Visual Studio\2022\Professional\VC\Tools\MSVC\14.44.35207\include\vector

; 622  :                 _STD _Destroy_range(_Constructed_first, _Constructed_last, _Al);

  00019	83 c4 0c	 add	 esp, 12			; 0000000cH
; File C:\Program Files\Microsoft Visual Studio\2022\Professional\VC\Tools\MSVC\14.44.35207\include\xmemory

; 985  :         _STD _Deallocate<_New_alignof<_Ty>>(_Ptr, sizeof(_Ty) * _Count);

  0001c	8d 0c 80	 lea	 ecx, DWORD PTR [eax+eax*4]
  0001f	8b 46 04	 mov	 eax, DWORD PTR [esi+4]
  00022	c1 e1 04	 shl	 ecx, 4

; 284  :         if (_Bytes >= _Big_allocation_threshold) {

  00025	81 f9 00 10 00
	00		 cmp	 ecx, 4096		; 00001000H
  0002b	72 12		 jb	 SHORT $LN15@Reallocati

; 205  :     const uintptr_t _Ptr_container   = _Ptr_user[-1];

  0002d	8b 50 fc	 mov	 edx, DWORD PTR [eax-4]
  00030	83 c1 23	 add	 ecx, 35			; 00000023H

; 206  : 
; 207  :     // If the following asserts, it likely means that we are performing
; 208  :     // an aligned delete on memory coming from an unaligned allocation.
; 209  :     _STL_ASSERT(_Ptr_user[-2] == _Big_allocation_sentinel, "invalid argument");
; 210  : 
; 211  :     // Extra paranoia on aligned allocation/deallocation; ensure _Ptr_container is
; 212  :     // in range [_Min_back_shift, _Non_user_size]
; 213  : #ifdef _DEBUG
; 214  :     constexpr uintptr_t _Min_back_shift = 2 * sizeof(void*);
; 215  : #else // ^^^ defined(_DEBUG) / !defined(_DEBUG) vvv
; 216  :     constexpr uintptr_t _Min_back_shift = sizeof(void*);
; 217  : #endif // ^^^ !defined(_DEBUG) ^^^
; 218  :     const uintptr_t _Back_shift = reinterpret_cast<uintptr_t>(_Ptr) - _Ptr_container;

  00033	2b c2		 sub	 eax, edx

; 219  :     _STL_VERIFY(_Back_shift >= _Min_back_shift && _Back_shift <= _Non_user_size, "invalid argument");

  00035	83 c0 fc	 add	 eax, -4			; fffffffcH
  00038	83 f8 1f	 cmp	 eax, 31			; 0000001fH
  0003b	77 0e		 ja	 SHORT $LN14@Reallocati

; 220  :     _Ptr = reinterpret_cast<void*>(_Ptr_container);

  0003d	8b c2		 mov	 eax, edx
$LN15@Reallocati:

; 289  :         ::operator delete(_Ptr, _Bytes);

  0003f	51		 push	 ecx
  00040	50		 push	 eax
  00041	e8 00 00 00 00	 call	 ??3@YAXPAXI@Z		; operator delete
  00046	83 c4 08	 add	 esp, 8
$LN10@Reallocati:
  00049	5e		 pop	 esi
; File C:\Program Files\Microsoft Visual Studio\2022\Professional\VC\Tools\MSVC\14.44.35207\include\vector

; 625  :         }

  0004a	c3		 ret	 0
$LN14@Reallocati:
; File C:\Program Files\Microsoft Visual Studio\2022\Professional\VC\Tools\MSVC\14.44.35207\include\xmemory

; 219  :     _STL_VERIFY(_Back_shift >= _Min_back_shift && _Back_shift <= _Non_user_size, "invalid argument");

  0004b	6a 00		 push	 0
  0004d	6a 00		 push	 0
  0004f	6a 00		 push	 0
  00051	6a 00		 push	 0
  00053	6a 00		 push	 0
  00055	e8 00 00 00 00	 call	 __invoke_watson
$LN22@Reallocati:
  0005a	cc		 int	 3
??1_Reallocation_guard@?$vector@U__SET@CExchange@@V?$allocator@U__SET@CExchange@@@std@@@std@@QAE@XZ ENDP ; std::vector<CExchange::__SET,std::allocator<CExchange::__SET> >::_Reallocation_guard::~_Reallocation_guard
_TEXT	ENDS
; Function compile flags: /Ogtp
; File C:\Program Files\Microsoft Visual Studio\2022\Professional\VC\Tools\MSVC\14.44.35207\include\xmemory
; File C:\Program Files\Microsoft Visual Studio\2022\Professional\VC\Tools\MSVC\14.44.35207\include\vector
; File C:\Program Files\Microsoft Visual Studio\2022\Professional\VC\Tools\MSVC\14.44.35207\include\xmemory
;	COMDAT ??$_Destroy_range@V?$allocator@U__SET@CExchange@@@std@@@std@@YAXPAU__SET@CExchange@@QAU12@AAV?$allocator@U__SET@CExchange@@@0@@Z
_TEXT	SEGMENT
__First$ = 8						; size = 4
__Last$ = 12						; size = 4
__Al$ = 16						; size = 4
??$_Destroy_range@V?$allocator@U__SET@CExchange@@@std@@@std@@YAXPAU__SET@CExchange@@QAU12@AAV?$allocator@U__SET@CExchange@@@0@@Z PROC ; std::_Destroy_range<std::allocator<CExchange::__SET> >, COMDAT

; 1098 : _CONSTEXPR20 void _Destroy_range(_Alloc_ptr_t<_Alloc> _First, const _Alloc_ptr_t<_Alloc> _Last, _Alloc& _Al) noexcept {

  00000	55		 push	 ebp
  00001	8b ec		 mov	 ebp, esp
  00003	56		 push	 esi

; 1102 :         for (; _First != _Last; ++_First) {

  00004	8b 75 08	 mov	 esi, DWORD PTR __First$[ebp]
  00007	57		 push	 edi
  00008	8b 7d 0c	 mov	 edi, DWORD PTR __Last$[ebp]
  0000b	3b f7		 cmp	 esi, edi
  0000d	74 3c		 je	 SHORT $LN3@Destroy_ra
  0000f	83 c6 34	 add	 esi, 52			; 00000034H
$LL4@Destroy_ra:
; File C:\Program Files\Microsoft Visual Studio\2022\Professional\VC\Tools\MSVC\14.44.35207\include\vector

; 830  :         _Tidy();

  00012	8d 4e 0c	 lea	 ecx, DWORD PTR [esi+12]
  00015	e8 00 00 00 00	 call	 ?_Tidy@?$vector@U__ITEM@CExchange@@V?$allocator@U__ITEM@CExchange@@@std@@@std@@AAEXXZ ; std::vector<CExchange::__ITEM,std::allocator<CExchange::__ITEM> >::_Tidy
  0001a	8b ce		 mov	 ecx, esi
  0001c	e8 00 00 00 00	 call	 ?_Tidy@?$vector@U__POINT@CExchange@@V?$allocator@U__POINT@CExchange@@@std@@@std@@AAEXXZ ; std::vector<CExchange::__POINT,std::allocator<CExchange::__POINT> >::_Tidy
  00021	8d 4e f4	 lea	 ecx, DWORD PTR [esi-12]
  00024	e8 00 00 00 00	 call	 ?_Tidy@?$vector@U__POINT@CExchange@@V?$allocator@U__POINT@CExchange@@@std@@@std@@AAEXXZ ; std::vector<CExchange::__POINT,std::allocator<CExchange::__POINT> >::_Tidy
  00029	8d 4e e8	 lea	 ecx, DWORD PTR [esi-24]
  0002c	e8 00 00 00 00	 call	 ?_Tidy@?$vector@U__ITEM@CExchange@@V?$allocator@U__ITEM@CExchange@@@std@@@std@@AAEXXZ ; std::vector<CExchange::__ITEM,std::allocator<CExchange::__ITEM> >::_Tidy
  00031	8d 4e dc	 lea	 ecx, DWORD PTR [esi-36]
  00034	e8 00 00 00 00	 call	 ?_Tidy@?$vector@U__ITEM@CExchange@@V?$allocator@U__ITEM@CExchange@@@std@@@std@@AAEXXZ ; std::vector<CExchange::__ITEM,std::allocator<CExchange::__ITEM> >::_Tidy
  00039	8d 4e d0	 lea	 ecx, DWORD PTR [esi-48]
  0003c	e8 00 00 00 00	 call	 ?_Tidy@?$vector@HV?$allocator@H@std@@@std@@AAEXXZ ; std::vector<int,std::allocator<int> >::_Tidy
; File C:\Program Files\Microsoft Visual Studio\2022\Professional\VC\Tools\MSVC\14.44.35207\include\xmemory

; 1102 :         for (; _First != _Last; ++_First) {

  00041	83 c6 50	 add	 esi, 80			; 00000050H
  00044	8d 46 cc	 lea	 eax, DWORD PTR [esi-52]
  00047	3b c7		 cmp	 eax, edi
  00049	75 c7		 jne	 SHORT $LL4@Destroy_ra
$LN3@Destroy_ra:
  0004b	5f		 pop	 edi

; 1103 :             allocator_traits<_Alloc>::destroy(_Al, _STD _Unfancy(_First));
; 1104 :         }
; 1105 :     }
; 1106 : }

  0004c	5e		 pop	 esi
  0004d	5d		 pop	 ebp
  0004e	c3		 ret	 0
??$_Destroy_range@V?$allocator@U__SET@CExchange@@@std@@@std@@YAXPAU__SET@CExchange@@QAU12@AAV?$allocator@U__SET@CExchange@@@0@@Z ENDP ; std::_Destroy_range<std::allocator<CExchange::__SET> >
_TEXT	ENDS
; Function compile flags: /Ogtp
; File C:\Program Files\Microsoft Visual Studio\2022\Professional\VC\Tools\MSVC\14.44.35207\include\vector
; File C:\Program Files\Microsoft Visual Studio\2022\Professional\VC\Tools\MSVC\14.44.35207\include\xmemory
; File C:\Program Files\Microsoft Visual Studio\2022\Professional\VC\Tools\MSVC\14.44.35207\include\vector
; File C:\Program Files\Microsoft Visual Studio\2022\Professional\VC\Tools\MSVC\14.44.35207\include\xmemory
; File C:\Program Files\Microsoft Visual Studio\2022\Professional\VC\Tools\MSVC\14.44.35207\include\vector
; File C:\Program Files\Microsoft Visual Studio\2022\Professional\VC\Tools\MSVC\14.44.35207\include\xmemory
; File C:\Program Files\Microsoft Visual Studio\2022\Professional\VC\Tools\MSVC\14.44.35207\include\vector
; File C:\Program Files\Microsoft Visual Studio\2022\Professional\VC\Tools\MSVC\14.44.35207\include\xmemory
; File C:\Program Files\Microsoft Visual Studio\2022\Professional\VC\Tools\MSVC\14.44.35207\include\vector
; File C:\Program Files\Microsoft Visual Studio\2022\Professional\VC\Tools\MSVC\14.44.35207\include\xmemory
; File C:\Program Files\Microsoft Visual Studio\2022\Professional\VC\Tools\MSVC\14.44.35207\include\vector
; File C:\Program Files\Microsoft Visual Studio\2022\Professional\VC\Tools\MSVC\14.44.35207\include\xmemory
; File C:\Program Files\Microsoft Visual Studio\2022\Professional\VC\Tools\MSVC\14.44.35207\include\vector
; File C:\Program Files\Microsoft Visual Studio\2022\Professional\VC\Tools\MSVC\14.44.35207\include\xmemory
; File C:\Program Files\Microsoft Visual Studio\2022\Professional\VC\Tools\MSVC\14.44.35207\include\vector
; File C:\Program Files\Microsoft Visual Studio\2022\Professional\VC\Tools\MSVC\14.44.35207\include\xmemory
; File C:\Program Files\Microsoft Visual Studio\2022\Professional\VC\Tools\MSVC\14.44.35207\include\vector
;	COMDAT ??$_Emplace_reallocate@H@?$vector@HV?$allocator@H@std@@@std@@AAEPAHQAH$$QAH@Z
_TEXT	SEGMENT
__Newsize$1$ = -12					; size = 4
tv652 = -8						; size = 4
tv650 = -4						; size = 4
__Whereptr$ = 8						; size = 4
_<_Val_0>$ = 12						; size = 4
??$_Emplace_reallocate@H@?$vector@HV?$allocator@H@std@@@std@@AAEPAHQAH$$QAH@Z PROC ; std::vector<int,std::allocator<int> >::_Emplace_reallocate<int>, COMDAT
; _this$ = ecx

; 875  :     _CONSTEXPR20 pointer _Emplace_reallocate(const pointer _Whereptr, _Valty&&... _Val) {

  00000	55		 push	 ebp
  00001	8b ec		 mov	 ebp, esp
  00003	83 ec 0c	 sub	 esp, 12			; 0000000cH
  00006	53		 push	 ebx

; 876  :         // reallocate and insert by perfectly forwarding _Val at _Whereptr
; 877  :         _Alty& _Al        = _Getal();
; 878  :         auto& _My_data    = _Mypair._Myval2;
; 879  :         pointer& _Myfirst = _My_data._Myfirst;
; 880  :         pointer& _Mylast  = _My_data._Mylast;
; 881  : 
; 882  :         _STL_INTERNAL_CHECK(_Mylast == _My_data._Myend); // check that we have no unused capacity
; 883  : 
; 884  :         const auto _Whereoff = static_cast<size_type>(_Whereptr - _Myfirst);

  00007	8b 5d 08	 mov	 ebx, DWORD PTR __Whereptr$[ebp]
  0000a	56		 push	 esi
  0000b	8b f1		 mov	 esi, ecx
  0000d	57		 push	 edi
  0000e	8b 0e		 mov	 ecx, DWORD PTR [esi]
  00010	2b d9		 sub	 ebx, ecx

; 885  :         const auto _Oldsize  = static_cast<size_type>(_Mylast - _Myfirst);

  00012	8b 46 04	 mov	 eax, DWORD PTR [esi+4]
  00015	2b c1		 sub	 eax, ecx
  00017	c1 fb 02	 sar	 ebx, 2
  0001a	c1 f8 02	 sar	 eax, 2

; 886  : 
; 887  :         if (_Oldsize == max_size()) {

  0001d	3d ff ff ff 3f	 cmp	 eax, 1073741823		; 3fffffffH
  00022	0f 84 13 01 00
	00		 je	 $LN111@Emplace_re

; 1924 :         return static_cast<size_type>(_My_data._Myend - _My_data._Myfirst);

  00028	8b 56 08	 mov	 edx, DWORD PTR [esi+8]

; 889  :         }
; 890  : 
; 891  :         const size_type _Newsize = _Oldsize + 1;

  0002b	8d 78 01	 lea	 edi, DWORD PTR [eax+1]

; 1924 :         return static_cast<size_type>(_My_data._Myend - _My_data._Myfirst);

  0002e	2b d1		 sub	 edx, ecx

; 889  :         }
; 890  : 
; 891  :         const size_type _Newsize = _Oldsize + 1;

  00030	89 7d f4	 mov	 DWORD PTR __Newsize$1$[ebp], edi

; 1924 :         return static_cast<size_type>(_My_data._Myend - _My_data._Myfirst);

  00033	c1 fa 02	 sar	 edx, 2

; 2011 :         if (_Oldcapacity > _Max - _Oldcapacity / 2) {

  00036	b8 ff ff ff 3f	 mov	 eax, 1073741823		; 3fffffffH
  0003b	8b ca		 mov	 ecx, edx
  0003d	d1 e9		 shr	 ecx, 1
  0003f	2b c1		 sub	 eax, ecx
  00041	3b d0		 cmp	 edx, eax
  00043	76 14		 jbe	 SHORT $LN8@Emplace_re

; 2012 :             return _Max; // geometric growth would overflow

  00045	b8 fc ff ff ff	 mov	 eax, -4			; fffffffcH
  0004a	c7 45 f8 fc ff
	ff ff		 mov	 DWORD PTR tv652[ebp], -4 ; fffffffcH
; File C:\Program Files\Microsoft Visual Studio\2022\Professional\VC\Tools\MSVC\14.44.35207\include\xmemory

; 253  :             return _Allocate_manually_vector_aligned<_Traits>(_Bytes);

  00051	50		 push	 eax
  00052	e8 00 00 00 00	 call	 ??$_Allocate_manually_vector_aligned@U_Default_allocate_traits@std@@@std@@YAPAXI@Z ; std::_Allocate_manually_vector_aligned<std::_Default_allocate_traits>
  00057	eb 3d		 jmp	 SHORT $LN109@Emplace_re
$LN8@Emplace_re:
; File C:\Program Files\Microsoft Visual Studio\2022\Professional\VC\Tools\MSVC\14.44.35207\include\vector

; 2015 :         const size_type _Geometric = _Oldcapacity + _Oldcapacity / 2;

  00059	8d 04 11	 lea	 eax, DWORD PTR [ecx+edx]
; File C:\Program Files\Microsoft Visual Studio\2022\Professional\VC\Tools\MSVC\14.44.35207\include\xmemory

; 117  :         if (_Count > _Max_possible) {

  0005c	8b cf		 mov	 ecx, edi
  0005e	3b c7		 cmp	 eax, edi
  00060	0f 43 c8	 cmovae	 ecx, eax
  00063	81 f9 ff ff ff
	3f		 cmp	 ecx, 1073741823		; 3fffffffH
  00069	0f 87 d1 00 00
	00		 ja	 $LN112@Emplace_re

; 119  :         }
; 120  :     }
; 121  : 
; 122  :     return _Count * _Ty_size;

  0006f	8d 04 8d 00 00
	00 00		 lea	 eax, DWORD PTR [ecx*4]
  00076	89 45 f8	 mov	 DWORD PTR tv652[ebp], eax

; 227  :     if (_Bytes == 0) {

  00079	85 c0		 test	 eax, eax
  0007b	75 04		 jne	 SHORT $LN23@Emplace_re

; 228  :         return nullptr;

  0007d	33 ff		 xor	 edi, edi
  0007f	eb 1a		 jmp	 SHORT $LN22@Emplace_re
$LN23@Emplace_re:

; 229  :     }
; 230  : 
; 231  : #if _HAS_CXX20 // TRANSITION, GH-1532
; 232  :     if (_STD is_constant_evaluated()) {
; 233  :         return _Traits::_Allocate(_Bytes);
; 234  :     }
; 235  : #endif // _HAS_CXX20
; 236  : 
; 237  : #ifdef __cpp_aligned_new
; 238  :     if constexpr (_Align > __STDCPP_DEFAULT_NEW_ALIGNMENT__) {
; 239  :         size_t _Passed_align = _Align;
; 240  : #if defined(_M_IX86) || defined(_M_X64)
; 241  :         if (_Bytes >= _Big_allocation_threshold) {
; 242  :             // boost the alignment of big allocations to help autovectorization
; 243  :             _Passed_align = (_STD max)(_Align, _Big_allocation_alignment);
; 244  :         }
; 245  : #endif // defined(_M_IX86) || defined(_M_X64)
; 246  :         return _Traits::_Allocate_aligned(_Bytes, _Passed_align);
; 247  :     } else
; 248  : #endif // defined(__cpp_aligned_new)
; 249  :     {
; 250  : #if defined(_M_IX86) || defined(_M_X64)
; 251  :         if (_Bytes >= _Big_allocation_threshold) {

  00081	3d 00 10 00 00	 cmp	 eax, 4096		; 00001000H
  00086	72 08		 jb	 SHORT $LN24@Emplace_re

; 253  :             return _Allocate_manually_vector_aligned<_Traits>(_Bytes);

  00088	50		 push	 eax
  00089	e8 00 00 00 00	 call	 ??$_Allocate_manually_vector_aligned@U_Default_allocate_traits@std@@@std@@YAPAXI@Z ; std::_Allocate_manually_vector_aligned<std::_Default_allocate_traits>
  0008e	eb 06		 jmp	 SHORT $LN109@Emplace_re
$LN24@Emplace_re:

; 136  :         return ::operator new(_Bytes);

  00090	50		 push	 eax
  00091	e8 00 00 00 00	 call	 ??2@YAPAXI@Z		; operator new
$LN109@Emplace_re:
; File C:\Program Files\Microsoft Visual Studio\2022\Professional\VC\Tools\MSVC\14.44.35207\include\vector

; 900  :         _Alty_traits::construct(_Al, _STD _Unfancy(_Newvec + _Whereoff), _STD forward<_Valty>(_Val)...);

  00096	8b f8		 mov	 edi, eax
  00098	83 c4 04	 add	 esp, 4
$LN22@Emplace_re:
  0009b	8b 45 0c	 mov	 eax, DWORD PTR _<_Val_0>$[ebp]
  0009e	8d 0c 9f	 lea	 ecx, DWORD PTR [edi+ebx*4]

; 901  :         _Constructed_first = _Newvec + _Whereoff;
; 902  : 
; 903  :         if (_Whereptr == _Mylast) { // at back, provide strong guarantee

  000a1	8b 5d 08	 mov	 ebx, DWORD PTR __Whereptr$[ebp]
  000a4	89 4d fc	 mov	 DWORD PTR tv650[ebp], ecx
  000a7	8b 00		 mov	 eax, DWORD PTR [eax]
  000a9	89 01		 mov	 DWORD PTR [ecx], eax
  000ab	8b 46 04	 mov	 eax, DWORD PTR [esi+4]
  000ae	8b 0e		 mov	 ecx, DWORD PTR [esi]
  000b0	3b d8		 cmp	 ebx, eax
  000b2	75 07		 jne	 SHORT $LN3@Emplace_re

; 909  :         } else { // provide basic guarantee

  000b4	8b 5d fc	 mov	 ebx, DWORD PTR tv650[ebp]
; File C:\Program Files\Microsoft Visual Studio\2022\Professional\VC\Tools\MSVC\14.44.35207\include\xmemory

; 1992 :             _STD _Copy_memmove(_UFirst, _ULast, _STD _Unfancy(_Dest));

  000b7	8b d7		 mov	 edx, edi
; File C:\Program Files\Microsoft Visual Studio\2022\Professional\VC\Tools\MSVC\14.44.35207\include\vector

; 909  :         } else { // provide basic guarantee

  000b9	eb 16		 jmp	 SHORT $LN52@Emplace_re
$LN3@Emplace_re:
; File C:\Program Files\Microsoft Visual Studio\2022\Professional\VC\Tools\MSVC\14.44.35207\include\xmemory

; 1992 :             _STD _Copy_memmove(_UFirst, _ULast, _STD _Unfancy(_Dest));

  000bb	57		 push	 edi
  000bc	53		 push	 ebx
  000bd	51		 push	 ecx
  000be	e8 00 00 00 00	 call	 ??$_Copy_memmove@PAHPAH@std@@YAPAHPAH00@Z ; std::_Copy_memmove<int *,int *>
  000c3	8b 46 04	 mov	 eax, DWORD PTR [esi+4]
  000c6	8b cb		 mov	 ecx, ebx
; File C:\Program Files\Microsoft Visual Studio\2022\Professional\VC\Tools\MSVC\14.44.35207\include\vector

; 912  :             _STD _Uninitialized_move(_Whereptr, _Mylast, _Newvec + _Whereoff + 1, _Al);

  000c8	8b 5d fc	 mov	 ebx, DWORD PTR tv650[ebp]
; File C:\Program Files\Microsoft Visual Studio\2022\Professional\VC\Tools\MSVC\14.44.35207\include\xmemory

; 1992 :             _STD _Copy_memmove(_UFirst, _ULast, _STD _Unfancy(_Dest));

  000cb	83 c4 0c	 add	 esp, 12			; 0000000cH
; File C:\Program Files\Microsoft Visual Studio\2022\Professional\VC\Tools\MSVC\14.44.35207\include\vector

; 912  :             _STD _Uninitialized_move(_Whereptr, _Mylast, _Newvec + _Whereoff + 1, _Al);

  000ce	8d 53 04	 lea	 edx, DWORD PTR [ebx+4]
$LN52@Emplace_re:

; 913  :         }
; 914  : 
; 915  :         _Guard._New_begin = nullptr;

  000d1	52		 push	 edx
  000d2	50		 push	 eax
  000d3	51		 push	 ecx
  000d4	e8 00 00 00 00	 call	 ??$_Copy_memmove@PAHPAH@std@@YAPAHPAH00@Z ; std::_Copy_memmove<int *,int *>

; 2069 :         if (_Myfirst) { // destroy and deallocate old array

  000d9	8b 06		 mov	 eax, DWORD PTR [esi]

; 913  :         }
; 914  : 
; 915  :         _Guard._New_begin = nullptr;

  000db	83 c4 0c	 add	 esp, 12			; 0000000cH

; 2069 :         if (_Myfirst) { // destroy and deallocate old array

  000de	85 c0		 test	 eax, eax
  000e0	74 2c		 je	 SHORT $LN72@Emplace_re

; 2070 :             _STD _Destroy_range(_Myfirst, _Mylast, _Al);
; 2071 :             _ASAN_VECTOR_REMOVE;
; 2072 :             _Al.deallocate(_Myfirst, static_cast<size_type>(_Myend - _Myfirst));

  000e2	8b 4e 08	 mov	 ecx, DWORD PTR [esi+8]
  000e5	2b c8		 sub	 ecx, eax
; File C:\Program Files\Microsoft Visual Studio\2022\Professional\VC\Tools\MSVC\14.44.35207\include\xmemory

; 985  :         _STD _Deallocate<_New_alignof<_Ty>>(_Ptr, sizeof(_Ty) * _Count);

  000e7	83 e1 fc	 and	 ecx, -4			; fffffffcH

; 284  :         if (_Bytes >= _Big_allocation_threshold) {

  000ea	81 f9 00 10 00
	00		 cmp	 ecx, 4096		; 00001000H
  000f0	72 12		 jb	 SHORT $LN77@Emplace_re

; 205  :     const uintptr_t _Ptr_container   = _Ptr_user[-1];

  000f2	8b 50 fc	 mov	 edx, DWORD PTR [eax-4]
  000f5	83 c1 23	 add	 ecx, 35			; 00000023H

; 206  : 
; 207  :     // If the following asserts, it likely means that we are performing
; 208  :     // an aligned delete on memory coming from an unaligned allocation.
; 209  :     _STL_ASSERT(_Ptr_user[-2] == _Big_allocation_sentinel, "invalid argument");
; 210  : 
; 211  :     // Extra paranoia on aligned allocation/deallocation; ensure _Ptr_container is
; 212  :     // in range [_Min_back_shift, _Non_user_size]
; 213  : #ifdef _DEBUG
; 214  :     constexpr uintptr_t _Min_back_shift = 2 * sizeof(void*);
; 215  : #else // ^^^ defined(_DEBUG) / !defined(_DEBUG) vvv
; 216  :     constexpr uintptr_t _Min_back_shift = sizeof(void*);
; 217  : #endif // ^^^ !defined(_DEBUG) ^^^
; 218  :     const uintptr_t _Back_shift = reinterpret_cast<uintptr_t>(_Ptr) - _Ptr_container;

  000f8	2b c2		 sub	 eax, edx

; 219  :     _STL_VERIFY(_Back_shift >= _Min_back_shift && _Back_shift <= _Non_user_size, "invalid argument");

  000fa	83 c0 fc	 add	 eax, -4			; fffffffcH
  000fd	83 f8 1f	 cmp	 eax, 31			; 0000001fH
  00100	77 2a		 ja	 SHORT $LN76@Emplace_re

; 220  :     _Ptr = reinterpret_cast<void*>(_Ptr_container);

  00102	8b c2		 mov	 eax, edx
$LN77@Emplace_re:

; 289  :         ::operator delete(_Ptr, _Bytes);

  00104	51		 push	 ecx
  00105	50		 push	 eax
  00106	e8 00 00 00 00	 call	 ??3@YAXPAXI@Z		; operator delete
  0010b	83 c4 08	 add	 esp, 8
$LN72@Emplace_re:
; File C:\Program Files\Microsoft Visual Studio\2022\Professional\VC\Tools\MSVC\14.44.35207\include\vector

; 2076 :         _Mylast  = _Newvec + _Newsize;

  0010e	8b 45 f4	 mov	 eax, DWORD PTR __Newsize$1$[ebp]
  00111	89 3e		 mov	 DWORD PTR [esi], edi
  00113	8d 0c 87	 lea	 ecx, DWORD PTR [edi+eax*4]

; 916  :         _Change_array(_Newvec, _Newsize, _Newcapacity);
; 917  :         return _Newvec + _Whereoff;

  00116	8b c3		 mov	 eax, ebx

; 2076 :         _Mylast  = _Newvec + _Newsize;

  00118	89 4e 04	 mov	 DWORD PTR [esi+4], ecx

; 2077 :         _Myend   = _Newvec + _Newcapacity;

  0011b	8b 4d f8	 mov	 ecx, DWORD PTR tv652[ebp]
  0011e	03 cf		 add	 ecx, edi

; 918  :     }

  00120	5f		 pop	 edi

; 2077 :         _Myend   = _Newvec + _Newcapacity;

  00121	89 4e 08	 mov	 DWORD PTR [esi+8], ecx

; 918  :     }

  00124	5e		 pop	 esi
  00125	5b		 pop	 ebx
  00126	8b e5		 mov	 esp, ebp
  00128	5d		 pop	 ebp
  00129	c2 08 00	 ret	 8
$LN76@Emplace_re:
; File C:\Program Files\Microsoft Visual Studio\2022\Professional\VC\Tools\MSVC\14.44.35207\include\xmemory

; 219  :     _STL_VERIFY(_Back_shift >= _Min_back_shift && _Back_shift <= _Non_user_size, "invalid argument");

  0012c	6a 00		 push	 0
  0012e	6a 00		 push	 0
  00130	6a 00		 push	 0
  00132	6a 00		 push	 0
  00134	6a 00		 push	 0
  00136	e8 00 00 00 00	 call	 __invoke_watson
$LN111@Emplace_re:
; File C:\Program Files\Microsoft Visual Studio\2022\Professional\VC\Tools\MSVC\14.44.35207\include\vector

; 888  :             _Xlength();

  0013b	e8 00 00 00 00	 call	 ?_Xlength@?$vector@HV?$allocator@H@std@@@std@@CAXXZ ; std::vector<int,std::allocator<int> >::_Xlength
$LN112@Emplace_re:
; File C:\Program Files\Microsoft Visual Studio\2022\Professional\VC\Tools\MSVC\14.44.35207\include\xmemory

; 118  :             _Throw_bad_array_new_length(); // multiply overflow

  00140	e8 00 00 00 00	 call	 ?_Throw_bad_array_new_length@std@@YAXXZ ; std::_Throw_bad_array_new_length
$LN108@Emplace_re:
  00145	cc		 int	 3
??$_Emplace_reallocate@H@?$vector@HV?$allocator@H@std@@@std@@AAEPAHQAH$$QAH@Z ENDP ; std::vector<int,std::allocator<int> >::_Emplace_reallocate<int>
_TEXT	ENDS
; Function compile flags: /Ogtp
; File C:\Program Files\Microsoft Visual Studio\2022\Professional\VC\Tools\MSVC\14.44.35207\include\vector
; File C:\Program Files\Microsoft Visual Studio\2022\Professional\VC\Tools\MSVC\14.44.35207\include\xmemory
; File C:\Program Files\Microsoft Visual Studio\2022\Professional\VC\Tools\MSVC\14.44.35207\include\vector
; File C:\Program Files\Microsoft Visual Studio\2022\Professional\VC\Tools\MSVC\14.44.35207\include\xmemory
; File C:\Program Files\Microsoft Visual Studio\2022\Professional\VC\Tools\MSVC\14.44.35207\include\vector
; File C:\Program Files\Microsoft Visual Studio\2022\Professional\VC\Tools\MSVC\14.44.35207\include\xmemory
; File C:\Program Files\Microsoft Visual Studio\2022\Professional\VC\Tools\MSVC\14.44.35207\include\vector
; File C:\Program Files\Microsoft Visual Studio\2022\Professional\VC\Tools\MSVC\14.44.35207\include\xmemory
; File C:\Program Files\Microsoft Visual Studio\2022\Professional\VC\Tools\MSVC\14.44.35207\include\vector
; File C:\Program Files\Microsoft Visual Studio\2022\Professional\VC\Tools\MSVC\14.44.35207\include\xmemory
; File C:\Program Files\Microsoft Visual Studio\2022\Professional\VC\Tools\MSVC\14.44.35207\include\vector
; File C:\Program Files\Microsoft Visual Studio\2022\Professional\VC\Tools\MSVC\14.44.35207\include\xmemory
; File C:\Program Files\Microsoft Visual Studio\2022\Professional\VC\Tools\MSVC\14.44.35207\include\vector
; File C:\Program Files\Microsoft Visual Studio\2022\Professional\VC\Tools\MSVC\14.44.35207\include\xmemory
; File C:\Program Files\Microsoft Visual Studio\2022\Professional\VC\Tools\MSVC\14.44.35207\include\vector
; File C:\Program Files\Microsoft Visual Studio\2022\Professional\VC\Tools\MSVC\14.44.35207\include\xmemory
; File C:\Program Files\Microsoft Visual Studio\2022\Professional\VC\Tools\MSVC\14.44.35207\include\vector
; File C:\Program Files\Microsoft Visual Studio\2022\Professional\VC\Tools\MSVC\14.44.35207\include\xmemory
; File C:\Program Files\Microsoft Visual Studio\2022\Professional\VC\Tools\MSVC\14.44.35207\include\vector
; File C:\Program Files\Microsoft Visual Studio\2022\Professional\VC\Tools\MSVC\14.44.35207\include\xmemory
; File C:\Program Files\Microsoft Visual Studio\2022\Professional\VC\Tools\MSVC\14.44.35207\include\vector
;	COMDAT ??$_Emplace_reallocate@ABU__ITEM@CExchange@@@?$vector@U__ITEM@CExchange@@V?$allocator@U__ITEM@CExchange@@@std@@@std@@AAEPAU__ITEM@CExchange@@QAU23@ABU23@@Z
_TEXT	SEGMENT
__Newsize$1$ = -12					; size = 4
$T1 = -8						; size = 4
tv710 = -4						; size = 4
__Whereptr$ = 8						; size = 4
_<_Val_0>$ = 12						; size = 4
??$_Emplace_reallocate@ABU__ITEM@CExchange@@@?$vector@U__ITEM@CExchange@@V?$allocator@U__ITEM@CExchange@@@std@@@std@@AAEPAU__ITEM@CExchange@@QAU23@ABU23@@Z PROC ; std::vector<CExchange::__ITEM,std::allocator<CExchange::__ITEM> >::_Emplace_reallocate<CExchange::__ITEM const &>, COMDAT
; _this$ = ecx

; 875  :     _CONSTEXPR20 pointer _Emplace_reallocate(const pointer _Whereptr, _Valty&&... _Val) {

  00000	55		 push	 ebp
  00001	8b ec		 mov	 ebp, esp
  00003	83 ec 0c	 sub	 esp, 12			; 0000000cH
  00006	53		 push	 ebx

; 876  :         // reallocate and insert by perfectly forwarding _Val at _Whereptr
; 877  :         _Alty& _Al        = _Getal();
; 878  :         auto& _My_data    = _Mypair._Myval2;
; 879  :         pointer& _Myfirst = _My_data._Myfirst;
; 880  :         pointer& _Mylast  = _My_data._Mylast;
; 881  : 
; 882  :         _STL_INTERNAL_CHECK(_Mylast == _My_data._Myend); // check that we have no unused capacity
; 883  : 
; 884  :         const auto _Whereoff = static_cast<size_type>(_Whereptr - _Myfirst);

  00007	8b 5d 08	 mov	 ebx, DWORD PTR __Whereptr$[ebp]
  0000a	56		 push	 esi
  0000b	8b f1		 mov	 esi, ecx
  0000d	57		 push	 edi
  0000e	8b 0e		 mov	 ecx, DWORD PTR [esi]
  00010	2b d9		 sub	 ebx, ecx

; 885  :         const auto _Oldsize  = static_cast<size_type>(_Mylast - _Myfirst);

  00012	8b 46 04	 mov	 eax, DWORD PTR [esi+4]
  00015	2b c1		 sub	 eax, ecx
  00017	c1 f8 04	 sar	 eax, 4

; 886  : 
; 887  :         if (_Oldsize == max_size()) {

  0001a	3d ff ff ff 0f	 cmp	 eax, 268435455		; 0fffffffH
  0001f	0f 84 18 01 00
	00		 je	 $LN119@Emplace_re

; 1924 :         return static_cast<size_type>(_My_data._Myend - _My_data._Myfirst);

  00025	8b 7e 08	 mov	 edi, DWORD PTR [esi+8]

; 889  :         }
; 890  : 
; 891  :         const size_type _Newsize = _Oldsize + 1;

  00028	8d 50 01	 lea	 edx, DWORD PTR [eax+1]

; 1924 :         return static_cast<size_type>(_My_data._Myend - _My_data._Myfirst);

  0002b	2b f9		 sub	 edi, ecx

; 889  :         }
; 890  : 
; 891  :         const size_type _Newsize = _Oldsize + 1;

  0002d	89 55 f4	 mov	 DWORD PTR __Newsize$1$[ebp], edx

; 1924 :         return static_cast<size_type>(_My_data._Myend - _My_data._Myfirst);

  00030	c1 ff 04	 sar	 edi, 4

; 2011 :         if (_Oldcapacity > _Max - _Oldcapacity / 2) {

  00033	b8 ff ff ff 0f	 mov	 eax, 268435455		; 0fffffffH
  00038	8b cf		 mov	 ecx, edi
  0003a	d1 e9		 shr	 ecx, 1
  0003c	2b c1		 sub	 eax, ecx
  0003e	3b f8		 cmp	 edi, eax
  00040	76 14		 jbe	 SHORT $LN8@Emplace_re

; 2012 :             return _Max; // geometric growth would overflow

  00042	b8 f0 ff ff ff	 mov	 eax, -16		; fffffff0H
  00047	c7 45 f8 f0 ff
	ff ff		 mov	 DWORD PTR $T1[ebp], -16	; fffffff0H
; File C:\Program Files\Microsoft Visual Studio\2022\Professional\VC\Tools\MSVC\14.44.35207\include\xmemory

; 253  :             return _Allocate_manually_vector_aligned<_Traits>(_Bytes);

  0004e	50		 push	 eax
  0004f	e8 00 00 00 00	 call	 ??$_Allocate_manually_vector_aligned@U_Default_allocate_traits@std@@@std@@YAPAXI@Z ; std::_Allocate_manually_vector_aligned<std::_Default_allocate_traits>
  00054	eb 3b		 jmp	 SHORT $LN117@Emplace_re
$LN8@Emplace_re:
; File C:\Program Files\Microsoft Visual Studio\2022\Professional\VC\Tools\MSVC\14.44.35207\include\vector

; 2015 :         const size_type _Geometric = _Oldcapacity + _Oldcapacity / 2;

  00056	8d 04 39	 lea	 eax, DWORD PTR [ecx+edi]
; File C:\Program Files\Microsoft Visual Studio\2022\Professional\VC\Tools\MSVC\14.44.35207\include\xmemory

; 117  :         if (_Count > _Max_possible) {

  00059	8b ca		 mov	 ecx, edx
  0005b	3b c2		 cmp	 eax, edx
  0005d	0f 43 c8	 cmovae	 ecx, eax
  00060	81 f9 ff ff ff
	0f		 cmp	 ecx, 268435455		; 0fffffffH
  00066	0f 87 d6 00 00
	00		 ja	 $LN120@Emplace_re

; 119  :         }
; 120  :     }
; 121  : 
; 122  :     return _Count * _Ty_size;

  0006c	c1 e1 04	 shl	 ecx, 4

; 990  :         return static_cast<_Ty*>(_STD _Allocate<_New_alignof<_Ty>>(_Get_size_of_n<sizeof(_Ty)>(_Count)));

  0006f	8b c1		 mov	 eax, ecx

; 122  :     return _Count * _Ty_size;

  00071	89 4d f8	 mov	 DWORD PTR $T1[ebp], ecx

; 227  :     if (_Bytes == 0) {

  00074	85 c0		 test	 eax, eax
  00076	75 04		 jne	 SHORT $LN23@Emplace_re

; 228  :         return nullptr;

  00078	33 ff		 xor	 edi, edi
  0007a	eb 1a		 jmp	 SHORT $LN22@Emplace_re
$LN23@Emplace_re:

; 229  :     }
; 230  : 
; 231  : #if _HAS_CXX20 // TRANSITION, GH-1532
; 232  :     if (_STD is_constant_evaluated()) {
; 233  :         return _Traits::_Allocate(_Bytes);
; 234  :     }
; 235  : #endif // _HAS_CXX20
; 236  : 
; 237  : #ifdef __cpp_aligned_new
; 238  :     if constexpr (_Align > __STDCPP_DEFAULT_NEW_ALIGNMENT__) {
; 239  :         size_t _Passed_align = _Align;
; 240  : #if defined(_M_IX86) || defined(_M_X64)
; 241  :         if (_Bytes >= _Big_allocation_threshold) {
; 242  :             // boost the alignment of big allocations to help autovectorization
; 243  :             _Passed_align = (_STD max)(_Align, _Big_allocation_alignment);
; 244  :         }
; 245  : #endif // defined(_M_IX86) || defined(_M_X64)
; 246  :         return _Traits::_Allocate_aligned(_Bytes, _Passed_align);
; 247  :     } else
; 248  : #endif // defined(__cpp_aligned_new)
; 249  :     {
; 250  : #if defined(_M_IX86) || defined(_M_X64)
; 251  :         if (_Bytes >= _Big_allocation_threshold) {

  0007c	3d 00 10 00 00	 cmp	 eax, 4096		; 00001000H
  00081	72 08		 jb	 SHORT $LN24@Emplace_re

; 253  :             return _Allocate_manually_vector_aligned<_Traits>(_Bytes);

  00083	50		 push	 eax
  00084	e8 00 00 00 00	 call	 ??$_Allocate_manually_vector_aligned@U_Default_allocate_traits@std@@@std@@YAPAXI@Z ; std::_Allocate_manually_vector_aligned<std::_Default_allocate_traits>
  00089	eb 06		 jmp	 SHORT $LN117@Emplace_re
$LN24@Emplace_re:

; 136  :         return ::operator new(_Bytes);

  0008b	50		 push	 eax
  0008c	e8 00 00 00 00	 call	 ??2@YAPAXI@Z		; operator new
$LN117@Emplace_re:
; File C:\Program Files\Microsoft Visual Studio\2022\Professional\VC\Tools\MSVC\14.44.35207\include\vector

; 900  :         _Alty_traits::construct(_Al, _STD _Unfancy(_Newvec + _Whereoff), _STD forward<_Valty>(_Val)...);

  00091	8b f8		 mov	 edi, eax
  00093	83 c4 04	 add	 esp, 4
$LN22@Emplace_re:
; File C:\Program Files\Microsoft Visual Studio\2022\Professional\VC\Tools\MSVC\14.44.35207\include\xmemory

; 732  :         ::new (const_cast<void*>(static_cast<const volatile void*>(_Ptr))) _Objty(_STD forward<_Types>(_Args)...);

  00096	8b 45 0c	 mov	 eax, DWORD PTR _<_Val_0>$[ebp]
; File C:\Program Files\Microsoft Visual Studio\2022\Professional\VC\Tools\MSVC\14.44.35207\include\vector

; 900  :         _Alty_traits::construct(_Al, _STD _Unfancy(_Newvec + _Whereoff), _STD forward<_Valty>(_Val)...);

  00099	83 e3 f0	 and	 ebx, -16		; fffffff0H
  0009c	8d 0c 3b	 lea	 ecx, DWORD PTR [ebx+edi]

; 903  :         if (_Whereptr == _Mylast) { // at back, provide strong guarantee

  0009f	8b 5d 08	 mov	 ebx, DWORD PTR __Whereptr$[ebp]
  000a2	89 4d fc	 mov	 DWORD PTR tv710[ebp], ecx
; File C:\Program Files\Microsoft Visual Studio\2022\Professional\VC\Tools\MSVC\14.44.35207\include\xmemory

; 732  :         ::new (const_cast<void*>(static_cast<const volatile void*>(_Ptr))) _Objty(_STD forward<_Types>(_Args)...);

  000a5	0f 10 00	 movups	 xmm0, XMMWORD PTR [eax]
  000a8	0f 11 01	 movups	 XMMWORD PTR [ecx], xmm0
; File C:\Program Files\Microsoft Visual Studio\2022\Professional\VC\Tools\MSVC\14.44.35207\include\vector

; 903  :         if (_Whereptr == _Mylast) { // at back, provide strong guarantee

  000ab	8b 4e 04	 mov	 ecx, DWORD PTR [esi+4]
  000ae	8b 06		 mov	 eax, DWORD PTR [esi]
  000b0	3b d9		 cmp	 ebx, ecx
  000b2	75 07		 jne	 SHORT $LN3@Emplace_re

; 909  :         } else { // provide basic guarantee

  000b4	8b 5d fc	 mov	 ebx, DWORD PTR tv710[ebp]
; File C:\Program Files\Microsoft Visual Studio\2022\Professional\VC\Tools\MSVC\14.44.35207\include\xmemory

; 1992 :             _STD _Copy_memmove(_UFirst, _ULast, _STD _Unfancy(_Dest));

  000b7	8b d7		 mov	 edx, edi
; File C:\Program Files\Microsoft Visual Studio\2022\Professional\VC\Tools\MSVC\14.44.35207\include\vector

; 909  :         } else { // provide basic guarantee

  000b9	eb 16		 jmp	 SHORT $LN58@Emplace_re
$LN3@Emplace_re:
; File C:\Program Files\Microsoft Visual Studio\2022\Professional\VC\Tools\MSVC\14.44.35207\include\xmemory

; 1992 :             _STD _Copy_memmove(_UFirst, _ULast, _STD _Unfancy(_Dest));

  000bb	57		 push	 edi
  000bc	53		 push	 ebx
  000bd	50		 push	 eax
  000be	e8 00 00 00 00	 call	 ??$_Copy_memmove@PAU__ITEM@CExchange@@PAU12@@std@@YAPAU__ITEM@CExchange@@PAU12@00@Z ; std::_Copy_memmove<CExchange::__ITEM *,CExchange::__ITEM *>
  000c3	8b 4e 04	 mov	 ecx, DWORD PTR [esi+4]
  000c6	8b c3		 mov	 eax, ebx
; File C:\Program Files\Microsoft Visual Studio\2022\Professional\VC\Tools\MSVC\14.44.35207\include\vector

; 912  :             _STD _Uninitialized_move(_Whereptr, _Mylast, _Newvec + _Whereoff + 1, _Al);

  000c8	8b 5d fc	 mov	 ebx, DWORD PTR tv710[ebp]
; File C:\Program Files\Microsoft Visual Studio\2022\Professional\VC\Tools\MSVC\14.44.35207\include\xmemory

; 1992 :             _STD _Copy_memmove(_UFirst, _ULast, _STD _Unfancy(_Dest));

  000cb	83 c4 0c	 add	 esp, 12			; 0000000cH
; File C:\Program Files\Microsoft Visual Studio\2022\Professional\VC\Tools\MSVC\14.44.35207\include\vector

; 912  :             _STD _Uninitialized_move(_Whereptr, _Mylast, _Newvec + _Whereoff + 1, _Al);

  000ce	8d 53 10	 lea	 edx, DWORD PTR [ebx+16]
$LN58@Emplace_re:

; 913  :         }
; 914  : 
; 915  :         _Guard._New_begin = nullptr;

  000d1	52		 push	 edx
  000d2	51		 push	 ecx
  000d3	50		 push	 eax
  000d4	e8 00 00 00 00	 call	 ??$_Copy_memmove@PAU__ITEM@CExchange@@PAU12@@std@@YAPAU__ITEM@CExchange@@PAU12@00@Z ; std::_Copy_memmove<CExchange::__ITEM *,CExchange::__ITEM *>

; 2069 :         if (_Myfirst) { // destroy and deallocate old array

  000d9	8b 06		 mov	 eax, DWORD PTR [esi]

; 913  :         }
; 914  : 
; 915  :         _Guard._New_begin = nullptr;

  000db	83 c4 0c	 add	 esp, 12			; 0000000cH

; 2069 :         if (_Myfirst) { // destroy and deallocate old array

  000de	85 c0		 test	 eax, eax
  000e0	74 2c		 je	 SHORT $LN80@Emplace_re

; 2070 :             _STD _Destroy_range(_Myfirst, _Mylast, _Al);
; 2071 :             _ASAN_VECTOR_REMOVE;
; 2072 :             _Al.deallocate(_Myfirst, static_cast<size_type>(_Myend - _Myfirst));

  000e2	8b 4e 08	 mov	 ecx, DWORD PTR [esi+8]
  000e5	2b c8		 sub	 ecx, eax
; File C:\Program Files\Microsoft Visual Studio\2022\Professional\VC\Tools\MSVC\14.44.35207\include\xmemory

; 985  :         _STD _Deallocate<_New_alignof<_Ty>>(_Ptr, sizeof(_Ty) * _Count);

  000e7	83 e1 f0	 and	 ecx, -16		; fffffff0H

; 284  :         if (_Bytes >= _Big_allocation_threshold) {

  000ea	81 f9 00 10 00
	00		 cmp	 ecx, 4096		; 00001000H
  000f0	72 12		 jb	 SHORT $LN85@Emplace_re

; 205  :     const uintptr_t _Ptr_container   = _Ptr_user[-1];

  000f2	8b 50 fc	 mov	 edx, DWORD PTR [eax-4]
  000f5	83 c1 23	 add	 ecx, 35			; 00000023H

; 206  : 
; 207  :     // If the following asserts, it likely means that we are performing
; 208  :     // an aligned delete on memory coming from an unaligned allocation.
; 209  :     _STL_ASSERT(_Ptr_user[-2] == _Big_allocation_sentinel, "invalid argument");
; 210  : 
; 211  :     // Extra paranoia on aligned allocation/deallocation; ensure _Ptr_container is
; 212  :     // in range [_Min_back_shift, _Non_user_size]
; 213  : #ifdef _DEBUG
; 214  :     constexpr uintptr_t _Min_back_shift = 2 * sizeof(void*);
; 215  : #else // ^^^ defined(_DEBUG) / !defined(_DEBUG) vvv
; 216  :     constexpr uintptr_t _Min_back_shift = sizeof(void*);
; 217  : #endif // ^^^ !defined(_DEBUG) ^^^
; 218  :     const uintptr_t _Back_shift = reinterpret_cast<uintptr_t>(_Ptr) - _Ptr_container;

  000f8	2b c2		 sub	 eax, edx

; 219  :     _STL_VERIFY(_Back_shift >= _Min_back_shift && _Back_shift <= _Non_user_size, "invalid argument");

  000fa	83 c0 fc	 add	 eax, -4			; fffffffcH
  000fd	83 f8 1f	 cmp	 eax, 31			; 0000001fH
  00100	77 2c		 ja	 SHORT $LN84@Emplace_re

; 220  :     _Ptr = reinterpret_cast<void*>(_Ptr_container);

  00102	8b c2		 mov	 eax, edx
$LN85@Emplace_re:

; 289  :         ::operator delete(_Ptr, _Bytes);

  00104	51		 push	 ecx
  00105	50		 push	 eax
  00106	e8 00 00 00 00	 call	 ??3@YAXPAXI@Z		; operator delete
  0010b	83 c4 08	 add	 esp, 8
$LN80@Emplace_re:
; File C:\Program Files\Microsoft Visual Studio\2022\Professional\VC\Tools\MSVC\14.44.35207\include\vector

; 2076 :         _Mylast  = _Newvec + _Newsize;

  0010e	8b 45 f4	 mov	 eax, DWORD PTR __Newsize$1$[ebp]

; 2077 :         _Myend   = _Newvec + _Newcapacity;

  00111	8b 4d f8	 mov	 ecx, DWORD PTR $T1[ebp]
  00114	c1 e0 04	 shl	 eax, 4
  00117	03 c7		 add	 eax, edi
  00119	89 3e		 mov	 DWORD PTR [esi], edi
  0011b	89 46 04	 mov	 DWORD PTR [esi+4], eax
  0011e	03 cf		 add	 ecx, edi

; 918  :     }

  00120	5f		 pop	 edi

; 2077 :         _Myend   = _Newvec + _Newcapacity;

  00121	89 4e 08	 mov	 DWORD PTR [esi+8], ecx

; 916  :         _Change_array(_Newvec, _Newsize, _Newcapacity);
; 917  :         return _Newvec + _Whereoff;

  00124	8b c3		 mov	 eax, ebx

; 918  :     }

  00126	5e		 pop	 esi
  00127	5b		 pop	 ebx
  00128	8b e5		 mov	 esp, ebp
  0012a	5d		 pop	 ebp
  0012b	c2 08 00	 ret	 8
$LN84@Emplace_re:
; File C:\Program Files\Microsoft Visual Studio\2022\Professional\VC\Tools\MSVC\14.44.35207\include\xmemory

; 219  :     _STL_VERIFY(_Back_shift >= _Min_back_shift && _Back_shift <= _Non_user_size, "invalid argument");

  0012e	6a 00		 push	 0
  00130	6a 00		 push	 0
  00132	6a 00		 push	 0
  00134	6a 00		 push	 0
  00136	6a 00		 push	 0
  00138	e8 00 00 00 00	 call	 __invoke_watson
$LN119@Emplace_re:
; File C:\Program Files\Microsoft Visual Studio\2022\Professional\VC\Tools\MSVC\14.44.35207\include\vector

; 888  :             _Xlength();

  0013d	e8 00 00 00 00	 call	 ?_Xlength@?$vector@U__ITEM@CExchange@@V?$allocator@U__ITEM@CExchange@@@std@@@std@@CAXXZ ; std::vector<CExchange::__ITEM,std::allocator<CExchange::__ITEM> >::_Xlength
$LN120@Emplace_re:
; File C:\Program Files\Microsoft Visual Studio\2022\Professional\VC\Tools\MSVC\14.44.35207\include\xmemory

; 118  :             _Throw_bad_array_new_length(); // multiply overflow

  00142	e8 00 00 00 00	 call	 ?_Throw_bad_array_new_length@std@@YAXXZ ; std::_Throw_bad_array_new_length
$LN116@Emplace_re:
  00147	cc		 int	 3
??$_Emplace_reallocate@ABU__ITEM@CExchange@@@?$vector@U__ITEM@CExchange@@V?$allocator@U__ITEM@CExchange@@@std@@@std@@AAEPAU__ITEM@CExchange@@QAU23@ABU23@@Z ENDP ; std::vector<CExchange::__ITEM,std::allocator<CExchange::__ITEM> >::_Emplace_reallocate<CExchange::__ITEM const &>
_TEXT	ENDS
; Function compile flags: /Ogtp
; File C:\Program Files\Microsoft Visual Studio\2022\Professional\VC\Tools\MSVC\14.44.35207\include\xutility
;	COMDAT ??$_Copy_memmove_n@PAU__ITEM@CExchange@@PAU12@@std@@YAPAU__ITEM@CExchange@@PAU12@I0@Z
_TEXT	SEGMENT
__First$ = 8						; size = 4
__Object_count$ = 12					; size = 4
__Dest$ = 16						; size = 4
??$_Copy_memmove_n@PAU__ITEM@CExchange@@PAU12@@std@@YAPAU__ITEM@CExchange@@PAU12@I0@Z PROC ; std::_Copy_memmove_n<CExchange::__ITEM *,CExchange::__ITEM *>, COMDAT

; 4774 : _OutCtgIt _Copy_memmove_n(_CtgIt _First, const size_t _Object_count, _OutCtgIt _Dest) {

  00000	55		 push	 ebp
  00001	8b ec		 mov	 ebp, esp

; 4775 :     const auto _First_ptr  = _STD _To_address(_First);
; 4776 :     const auto _First_ch   = const_cast<const char*>(reinterpret_cast<const volatile char*>(_First_ptr));
; 4777 :     const auto _Byte_count = _Object_count * sizeof(*_First_ptr);
; 4778 :     return _STD _Copy_memmove_tail(_First_ch, _STD move(_Dest), _Byte_count, _Object_count);

  00003	8b 45 0c	 mov	 eax, DWORD PTR __Object_count$[ebp]
  00006	50		 push	 eax
  00007	c1 e0 04	 shl	 eax, 4
  0000a	50		 push	 eax
  0000b	ff 75 10	 push	 DWORD PTR __Dest$[ebp]
  0000e	ff 75 08	 push	 DWORD PTR __First$[ebp]
  00011	e8 00 00 00 00	 call	 ??$_Copy_memmove_tail@PAU__ITEM@CExchange@@@std@@YAPAU__ITEM@CExchange@@QBDQAU12@II@Z ; std::_Copy_memmove_tail<CExchange::__ITEM *>
  00016	83 c4 10	 add	 esp, 16			; 00000010H

; 4779 : }

  00019	5d		 pop	 ebp
  0001a	c3		 ret	 0
??$_Copy_memmove_n@PAU__ITEM@CExchange@@PAU12@@std@@YAPAU__ITEM@CExchange@@PAU12@I0@Z ENDP ; std::_Copy_memmove_n<CExchange::__ITEM *,CExchange::__ITEM *>
_TEXT	ENDS
; Function compile flags: /Ogtp
; File C:\Program Files\Microsoft Visual Studio\2022\Professional\VC\Tools\MSVC\14.44.35207\include\xutility
;	COMDAT ??$_Copy_memmove@PAU__ITEM@CExchange@@PAU12@@std@@YAPAU__ITEM@CExchange@@PAU12@00@Z
_TEXT	SEGMENT
__First$ = 8						; size = 4
__Last$ = 12						; size = 4
__Dest$ = 16						; size = 4
??$_Copy_memmove@PAU__ITEM@CExchange@@PAU12@@std@@YAPAU__ITEM@CExchange@@PAU12@00@Z PROC ; std::_Copy_memmove<CExchange::__ITEM *,CExchange::__ITEM *>, COMDAT

; 4762 : _OutCtgIt _Copy_memmove(_CtgIt _First, _CtgIt _Last, _OutCtgIt _Dest) {

  00000	55		 push	 ebp
  00001	8b ec		 mov	 ebp, esp

; 4763 :     _STL_INTERNAL_CHECK(_First <= _Last);
; 4764 :     const auto _First_ptr    = _STD _To_address(_First);
; 4765 :     const auto _Last_ptr     = _STD _To_address(_Last);
; 4766 :     const auto _Object_count = static_cast<size_t>(_Last_ptr - _First_ptr);

  00003	8b 55 08	 mov	 edx, DWORD PTR __First$[ebp]
  00006	8b 4d 0c	 mov	 ecx, DWORD PTR __Last$[ebp]
  00009	2b ca		 sub	 ecx, edx
  0000b	8b c1		 mov	 eax, ecx
  0000d	c1 f8 04	 sar	 eax, 4

; 4767 :     const auto _First_ch     = const_cast<const char*>(reinterpret_cast<const volatile char*>(_First_ptr));
; 4768 :     const auto _Last_ch      = const_cast<const char*>(reinterpret_cast<const volatile char*>(_Last_ptr));
; 4769 :     const auto _Byte_count   = static_cast<size_t>(_Last_ch - _First_ch);
; 4770 :     return _STD _Copy_memmove_tail(_First_ch, _STD move(_Dest), _Byte_count, _Object_count);

  00010	50		 push	 eax
  00011	51		 push	 ecx
  00012	ff 75 10	 push	 DWORD PTR __Dest$[ebp]
  00015	52		 push	 edx
  00016	e8 00 00 00 00	 call	 ??$_Copy_memmove_tail@PAU__ITEM@CExchange@@@std@@YAPAU__ITEM@CExchange@@QBDQAU12@II@Z ; std::_Copy_memmove_tail<CExchange::__ITEM *>
  0001b	83 c4 10	 add	 esp, 16			; 00000010H

; 4771 : }

  0001e	5d		 pop	 ebp
  0001f	c3		 ret	 0
??$_Copy_memmove@PAU__ITEM@CExchange@@PAU12@@std@@YAPAU__ITEM@CExchange@@PAU12@00@Z ENDP ; std::_Copy_memmove<CExchange::__ITEM *,CExchange::__ITEM *>
_TEXT	ENDS
; Function compile flags: /Ogtp
; File C:\Program Files\Microsoft Visual Studio\2022\Professional\VC\Tools\MSVC\14.44.35207\include\vector
; File C:\Program Files\Microsoft Visual Studio\2022\Professional\VC\Tools\MSVC\14.44.35207\include\xmemory
; File C:\Program Files\Microsoft Visual Studio\2022\Professional\VC\Tools\MSVC\14.44.35207\include\vector
; File C:\Program Files\Microsoft Visual Studio\2022\Professional\VC\Tools\MSVC\14.44.35207\include\xmemory
; File C:\Program Files\Microsoft Visual Studio\2022\Professional\VC\Tools\MSVC\14.44.35207\include\vector
; File C:\Program Files\Microsoft Visual Studio\2022\Professional\VC\Tools\MSVC\14.44.35207\include\xmemory
; File C:\Program Files\Microsoft Visual Studio\2022\Professional\VC\Tools\MSVC\14.44.35207\include\vector
; File C:\Program Files\Microsoft Visual Studio\2022\Professional\VC\Tools\MSVC\14.44.35207\include\xmemory
; File C:\Program Files\Microsoft Visual Studio\2022\Professional\VC\Tools\MSVC\14.44.35207\include\vector
; File C:\Program Files\Microsoft Visual Studio\2022\Professional\VC\Tools\MSVC\14.44.35207\include\xmemory
; File C:\Program Files\Microsoft Visual Studio\2022\Professional\VC\Tools\MSVC\14.44.35207\include\vector
; File C:\Program Files\Microsoft Visual Studio\2022\Professional\VC\Tools\MSVC\14.44.35207\include\xmemory
; File C:\Program Files\Microsoft Visual Studio\2022\Professional\VC\Tools\MSVC\14.44.35207\include\vector
; File C:\Program Files\Microsoft Visual Studio\2022\Professional\VC\Tools\MSVC\14.44.35207\include\xmemory
; File C:\Program Files\Microsoft Visual Studio\2022\Professional\VC\Tools\MSVC\14.44.35207\include\vector
; File C:\Program Files\Microsoft Visual Studio\2022\Professional\VC\Tools\MSVC\14.44.35207\include\xmemory
; File C:\Program Files\Microsoft Visual Studio\2022\Professional\VC\Tools\MSVC\14.44.35207\include\vector
;	COMDAT ??$_Emplace_reallocate@ABU__POINT@CExchange@@@?$vector@U__POINT@CExchange@@V?$allocator@U__POINT@CExchange@@@std@@@std@@AAEPAU__POINT@CExchange@@QAU23@ABU23@@Z
_TEXT	SEGMENT
__Newsize$1$ = -8					; size = 4
tv650 = -4						; size = 4
__Whereptr$ = 8						; size = 4
_<_Val_0>$ = 12						; size = 4
??$_Emplace_reallocate@ABU__POINT@CExchange@@@?$vector@U__POINT@CExchange@@V?$allocator@U__POINT@CExchange@@@std@@@std@@AAEPAU__POINT@CExchange@@QAU23@ABU23@@Z PROC ; std::vector<CExchange::__POINT,std::allocator<CExchange::__POINT> >::_Emplace_reallocate<CExchange::__POINT const &>, COMDAT
; _this$ = ecx

; 875  :     _CONSTEXPR20 pointer _Emplace_reallocate(const pointer _Whereptr, _Valty&&... _Val) {

  00000	55		 push	 ebp
  00001	8b ec		 mov	 ebp, esp
  00003	83 ec 08	 sub	 esp, 8
  00006	53		 push	 ebx

; 876  :         // reallocate and insert by perfectly forwarding _Val at _Whereptr
; 877  :         _Alty& _Al        = _Getal();
; 878  :         auto& _My_data    = _Mypair._Myval2;
; 879  :         pointer& _Myfirst = _My_data._Myfirst;
; 880  :         pointer& _Mylast  = _My_data._Mylast;
; 881  : 
; 882  :         _STL_INTERNAL_CHECK(_Mylast == _My_data._Myend); // check that we have no unused capacity
; 883  : 
; 884  :         const auto _Whereoff = static_cast<size_type>(_Whereptr - _Myfirst);

  00007	8b 5d 08	 mov	 ebx, DWORD PTR __Whereptr$[ebp]
  0000a	56		 push	 esi
  0000b	8b f1		 mov	 esi, ecx
  0000d	57		 push	 edi
  0000e	8b 0e		 mov	 ecx, DWORD PTR [esi]
  00010	2b d9		 sub	 ebx, ecx

; 885  :         const auto _Oldsize  = static_cast<size_type>(_Mylast - _Myfirst);

  00012	8b 46 04	 mov	 eax, DWORD PTR [esi+4]
  00015	2b c1		 sub	 eax, ecx
  00017	c1 fb 03	 sar	 ebx, 3
  0001a	c1 f8 03	 sar	 eax, 3

; 886  : 
; 887  :         if (_Oldsize == max_size()) {

  0001d	3d ff ff ff 1f	 cmp	 eax, 536870911		; 1fffffffH
  00022	0f 84 11 01 00
	00		 je	 $LN111@Emplace_re

; 1924 :         return static_cast<size_type>(_My_data._Myend - _My_data._Myfirst);

  00028	8b 56 08	 mov	 edx, DWORD PTR [esi+8]

; 889  :         }
; 890  : 
; 891  :         const size_type _Newsize = _Oldsize + 1;

  0002b	8d 78 01	 lea	 edi, DWORD PTR [eax+1]

; 1924 :         return static_cast<size_type>(_My_data._Myend - _My_data._Myfirst);

  0002e	2b d1		 sub	 edx, ecx

; 889  :         }
; 890  : 
; 891  :         const size_type _Newsize = _Oldsize + 1;

  00030	89 7d f8	 mov	 DWORD PTR __Newsize$1$[ebp], edi

; 1924 :         return static_cast<size_type>(_My_data._Myend - _My_data._Myfirst);

  00033	c1 fa 03	 sar	 edx, 3

; 2011 :         if (_Oldcapacity > _Max - _Oldcapacity / 2) {

  00036	b8 ff ff ff 1f	 mov	 eax, 536870911		; 1fffffffH
  0003b	8b ca		 mov	 ecx, edx
  0003d	d1 e9		 shr	 ecx, 1
  0003f	2b c1		 sub	 eax, ecx
  00041	3b d0		 cmp	 edx, eax
  00043	76 14		 jbe	 SHORT $LN8@Emplace_re

; 2012 :             return _Max; // geometric growth would overflow

  00045	b8 f8 ff ff ff	 mov	 eax, -8			; fffffff8H
  0004a	c7 45 fc f8 ff
	ff ff		 mov	 DWORD PTR tv650[ebp], -8 ; fffffff8H
; File C:\Program Files\Microsoft Visual Studio\2022\Professional\VC\Tools\MSVC\14.44.35207\include\xmemory

; 253  :             return _Allocate_manually_vector_aligned<_Traits>(_Bytes);

  00051	50		 push	 eax
  00052	e8 00 00 00 00	 call	 ??$_Allocate_manually_vector_aligned@U_Default_allocate_traits@std@@@std@@YAPAXI@Z ; std::_Allocate_manually_vector_aligned<std::_Default_allocate_traits>
  00057	eb 3d		 jmp	 SHORT $LN109@Emplace_re
$LN8@Emplace_re:
; File C:\Program Files\Microsoft Visual Studio\2022\Professional\VC\Tools\MSVC\14.44.35207\include\vector

; 2015 :         const size_type _Geometric = _Oldcapacity + _Oldcapacity / 2;

  00059	8d 04 11	 lea	 eax, DWORD PTR [ecx+edx]
; File C:\Program Files\Microsoft Visual Studio\2022\Professional\VC\Tools\MSVC\14.44.35207\include\xmemory

; 117  :         if (_Count > _Max_possible) {

  0005c	8b cf		 mov	 ecx, edi
  0005e	3b c7		 cmp	 eax, edi
  00060	0f 43 c8	 cmovae	 ecx, eax
  00063	81 f9 ff ff ff
	1f		 cmp	 ecx, 536870911		; 1fffffffH
  00069	0f 87 cf 00 00
	00		 ja	 $LN112@Emplace_re

; 119  :         }
; 120  :     }
; 121  : 
; 122  :     return _Count * _Ty_size;

  0006f	8d 04 cd 00 00
	00 00		 lea	 eax, DWORD PTR [ecx*8]
  00076	89 45 fc	 mov	 DWORD PTR tv650[ebp], eax

; 227  :     if (_Bytes == 0) {

  00079	85 c0		 test	 eax, eax
  0007b	75 04		 jne	 SHORT $LN23@Emplace_re

; 228  :         return nullptr;

  0007d	33 ff		 xor	 edi, edi
  0007f	eb 1a		 jmp	 SHORT $LN22@Emplace_re
$LN23@Emplace_re:

; 229  :     }
; 230  : 
; 231  : #if _HAS_CXX20 // TRANSITION, GH-1532
; 232  :     if (_STD is_constant_evaluated()) {
; 233  :         return _Traits::_Allocate(_Bytes);
; 234  :     }
; 235  : #endif // _HAS_CXX20
; 236  : 
; 237  : #ifdef __cpp_aligned_new
; 238  :     if constexpr (_Align > __STDCPP_DEFAULT_NEW_ALIGNMENT__) {
; 239  :         size_t _Passed_align = _Align;
; 240  : #if defined(_M_IX86) || defined(_M_X64)
; 241  :         if (_Bytes >= _Big_allocation_threshold) {
; 242  :             // boost the alignment of big allocations to help autovectorization
; 243  :             _Passed_align = (_STD max)(_Align, _Big_allocation_alignment);
; 244  :         }
; 245  : #endif // defined(_M_IX86) || defined(_M_X64)
; 246  :         return _Traits::_Allocate_aligned(_Bytes, _Passed_align);
; 247  :     } else
; 248  : #endif // defined(__cpp_aligned_new)
; 249  :     {
; 250  : #if defined(_M_IX86) || defined(_M_X64)
; 251  :         if (_Bytes >= _Big_allocation_threshold) {

  00081	3d 00 10 00 00	 cmp	 eax, 4096		; 00001000H
  00086	72 08		 jb	 SHORT $LN24@Emplace_re

; 253  :             return _Allocate_manually_vector_aligned<_Traits>(_Bytes);

  00088	50		 push	 eax
  00089	e8 00 00 00 00	 call	 ??$_Allocate_manually_vector_aligned@U_Default_allocate_traits@std@@@std@@YAPAXI@Z ; std::_Allocate_manually_vector_aligned<std::_Default_allocate_traits>
  0008e	eb 06		 jmp	 SHORT $LN109@Emplace_re
$LN24@Emplace_re:

; 136  :         return ::operator new(_Bytes);

  00090	50		 push	 eax
  00091	e8 00 00 00 00	 call	 ??2@YAPAXI@Z		; operator new
$LN109@Emplace_re:
; File C:\Program Files\Microsoft Visual Studio\2022\Professional\VC\Tools\MSVC\14.44.35207\include\vector

; 900  :         _Alty_traits::construct(_Al, _STD _Unfancy(_Newvec + _Whereoff), _STD forward<_Valty>(_Val)...);

  00096	8b f8		 mov	 edi, eax
  00098	83 c4 04	 add	 esp, 4
$LN22@Emplace_re:
  0009b	8b 45 0c	 mov	 eax, DWORD PTR _<_Val_0>$[ebp]
  0009e	8d 1c df	 lea	 ebx, DWORD PTR [edi+ebx*8]
  000a1	8b 08		 mov	 ecx, DWORD PTR [eax]
  000a3	8b 40 04	 mov	 eax, DWORD PTR [eax+4]
  000a6	89 43 04	 mov	 DWORD PTR [ebx+4], eax

; 901  :         _Constructed_first = _Newvec + _Whereoff;
; 902  : 
; 903  :         if (_Whereptr == _Mylast) { // at back, provide strong guarantee

  000a9	8b 45 08	 mov	 eax, DWORD PTR __Whereptr$[ebp]
  000ac	89 0b		 mov	 DWORD PTR [ebx], ecx
  000ae	8b 56 04	 mov	 edx, DWORD PTR [esi+4]
  000b1	8b 0e		 mov	 ecx, DWORD PTR [esi]
  000b3	3b c2		 cmp	 eax, edx
  000b5	75 04		 jne	 SHORT $LN3@Emplace_re
; File C:\Program Files\Microsoft Visual Studio\2022\Professional\VC\Tools\MSVC\14.44.35207\include\xmemory

; 1992 :             _STD _Copy_memmove(_UFirst, _ULast, _STD _Unfancy(_Dest));

  000b7	8b c7		 mov	 eax, edi
; File C:\Program Files\Microsoft Visual Studio\2022\Professional\VC\Tools\MSVC\14.44.35207\include\vector

; 909  :         } else { // provide basic guarantee

  000b9	eb 14		 jmp	 SHORT $LN52@Emplace_re
$LN3@Emplace_re:
; File C:\Program Files\Microsoft Visual Studio\2022\Professional\VC\Tools\MSVC\14.44.35207\include\xmemory

; 1992 :             _STD _Copy_memmove(_UFirst, _ULast, _STD _Unfancy(_Dest));

  000bb	57		 push	 edi
  000bc	50		 push	 eax
  000bd	51		 push	 ecx
  000be	e8 00 00 00 00	 call	 ??$_Copy_memmove@PAU__POINT@CExchange@@PAU12@@std@@YAPAU__POINT@CExchange@@PAU12@00@Z ; std::_Copy_memmove<CExchange::__POINT *,CExchange::__POINT *>
  000c3	8b 4d 08	 mov	 ecx, DWORD PTR __Whereptr$[ebp]
; File C:\Program Files\Microsoft Visual Studio\2022\Professional\VC\Tools\MSVC\14.44.35207\include\vector

; 912  :             _STD _Uninitialized_move(_Whereptr, _Mylast, _Newvec + _Whereoff + 1, _Al);

  000c6	8d 43 08	 lea	 eax, DWORD PTR [ebx+8]
; File C:\Program Files\Microsoft Visual Studio\2022\Professional\VC\Tools\MSVC\14.44.35207\include\xmemory

; 1992 :             _STD _Copy_memmove(_UFirst, _ULast, _STD _Unfancy(_Dest));

  000c9	8b 56 04	 mov	 edx, DWORD PTR [esi+4]
  000cc	83 c4 0c	 add	 esp, 12			; 0000000cH
$LN52@Emplace_re:
; File C:\Program Files\Microsoft Visual Studio\2022\Professional\VC\Tools\MSVC\14.44.35207\include\vector

; 915  :         _Guard._New_begin = nullptr;

  000cf	50		 push	 eax
  000d0	52		 push	 edx
  000d1	51		 push	 ecx
  000d2	e8 00 00 00 00	 call	 ??$_Copy_memmove@PAU__POINT@CExchange@@PAU12@@std@@YAPAU__POINT@CExchange@@PAU12@00@Z ; std::_Copy_memmove<CExchange::__POINT *,CExchange::__POINT *>

; 2069 :         if (_Myfirst) { // destroy and deallocate old array

  000d7	8b 06		 mov	 eax, DWORD PTR [esi]

; 915  :         _Guard._New_begin = nullptr;

  000d9	83 c4 0c	 add	 esp, 12			; 0000000cH

; 2069 :         if (_Myfirst) { // destroy and deallocate old array

  000dc	85 c0		 test	 eax, eax
  000de	74 2c		 je	 SHORT $LN72@Emplace_re

; 2070 :             _STD _Destroy_range(_Myfirst, _Mylast, _Al);
; 2071 :             _ASAN_VECTOR_REMOVE;
; 2072 :             _Al.deallocate(_Myfirst, static_cast<size_type>(_Myend - _Myfirst));

  000e0	8b 4e 08	 mov	 ecx, DWORD PTR [esi+8]
  000e3	2b c8		 sub	 ecx, eax
; File C:\Program Files\Microsoft Visual Studio\2022\Professional\VC\Tools\MSVC\14.44.35207\include\xmemory

; 985  :         _STD _Deallocate<_New_alignof<_Ty>>(_Ptr, sizeof(_Ty) * _Count);

  000e5	83 e1 f8	 and	 ecx, -8			; fffffff8H

; 284  :         if (_Bytes >= _Big_allocation_threshold) {

  000e8	81 f9 00 10 00
	00		 cmp	 ecx, 4096		; 00001000H
  000ee	72 12		 jb	 SHORT $LN77@Emplace_re

; 205  :     const uintptr_t _Ptr_container   = _Ptr_user[-1];

  000f0	8b 50 fc	 mov	 edx, DWORD PTR [eax-4]
  000f3	83 c1 23	 add	 ecx, 35			; 00000023H

; 206  : 
; 207  :     // If the following asserts, it likely means that we are performing
; 208  :     // an aligned delete on memory coming from an unaligned allocation.
; 209  :     _STL_ASSERT(_Ptr_user[-2] == _Big_allocation_sentinel, "invalid argument");
; 210  : 
; 211  :     // Extra paranoia on aligned allocation/deallocation; ensure _Ptr_container is
; 212  :     // in range [_Min_back_shift, _Non_user_size]
; 213  : #ifdef _DEBUG
; 214  :     constexpr uintptr_t _Min_back_shift = 2 * sizeof(void*);
; 215  : #else // ^^^ defined(_DEBUG) / !defined(_DEBUG) vvv
; 216  :     constexpr uintptr_t _Min_back_shift = sizeof(void*);
; 217  : #endif // ^^^ !defined(_DEBUG) ^^^
; 218  :     const uintptr_t _Back_shift = reinterpret_cast<uintptr_t>(_Ptr) - _Ptr_container;

  000f6	2b c2		 sub	 eax, edx

; 219  :     _STL_VERIFY(_Back_shift >= _Min_back_shift && _Back_shift <= _Non_user_size, "invalid argument");

  000f8	83 c0 fc	 add	 eax, -4			; fffffffcH
  000fb	83 f8 1f	 cmp	 eax, 31			; 0000001fH
  000fe	77 2a		 ja	 SHORT $LN76@Emplace_re

; 220  :     _Ptr = reinterpret_cast<void*>(_Ptr_container);

  00100	8b c2		 mov	 eax, edx
$LN77@Emplace_re:

; 289  :         ::operator delete(_Ptr, _Bytes);

  00102	51		 push	 ecx
  00103	50		 push	 eax
  00104	e8 00 00 00 00	 call	 ??3@YAXPAXI@Z		; operator delete
  00109	83 c4 08	 add	 esp, 8
$LN72@Emplace_re:
; File C:\Program Files\Microsoft Visual Studio\2022\Professional\VC\Tools\MSVC\14.44.35207\include\vector

; 2076 :         _Mylast  = _Newvec + _Newsize;

  0010c	8b 45 f8	 mov	 eax, DWORD PTR __Newsize$1$[ebp]
  0010f	89 3e		 mov	 DWORD PTR [esi], edi
  00111	8d 0c c7	 lea	 ecx, DWORD PTR [edi+eax*8]

; 916  :         _Change_array(_Newvec, _Newsize, _Newcapacity);
; 917  :         return _Newvec + _Whereoff;

  00114	8b c3		 mov	 eax, ebx

; 2076 :         _Mylast  = _Newvec + _Newsize;

  00116	89 4e 04	 mov	 DWORD PTR [esi+4], ecx

; 2077 :         _Myend   = _Newvec + _Newcapacity;

  00119	8b 4d fc	 mov	 ecx, DWORD PTR tv650[ebp]
  0011c	03 cf		 add	 ecx, edi

; 918  :     }

  0011e	5f		 pop	 edi

; 2077 :         _Myend   = _Newvec + _Newcapacity;

  0011f	89 4e 08	 mov	 DWORD PTR [esi+8], ecx

; 918  :     }

  00122	5e		 pop	 esi
  00123	5b		 pop	 ebx
  00124	8b e5		 mov	 esp, ebp
  00126	5d		 pop	 ebp
  00127	c2 08 00	 ret	 8
$LN76@Emplace_re:
; File C:\Program Files\Microsoft Visual Studio\2022\Professional\VC\Tools\MSVC\14.44.35207\include\xmemory

; 219  :     _STL_VERIFY(_Back_shift >= _Min_back_shift && _Back_shift <= _Non_user_size, "invalid argument");

  0012a	6a 00		 push	 0
  0012c	6a 00		 push	 0
  0012e	6a 00		 push	 0
  00130	6a 00		 push	 0
  00132	6a 00		 push	 0
  00134	e8 00 00 00 00	 call	 __invoke_watson
$LN111@Emplace_re:
; File C:\Program Files\Microsoft Visual Studio\2022\Professional\VC\Tools\MSVC\14.44.35207\include\vector

; 888  :             _Xlength();

  00139	e8 00 00 00 00	 call	 ?_Xlength@?$vector@U__POINT@CExchange@@V?$allocator@U__POINT@CExchange@@@std@@@std@@CAXXZ ; std::vector<CExchange::__POINT,std::allocator<CExchange::__POINT> >::_Xlength
$LN112@Emplace_re:
; File C:\Program Files\Microsoft Visual Studio\2022\Professional\VC\Tools\MSVC\14.44.35207\include\xmemory

; 118  :             _Throw_bad_array_new_length(); // multiply overflow

  0013e	e8 00 00 00 00	 call	 ?_Throw_bad_array_new_length@std@@YAXXZ ; std::_Throw_bad_array_new_length
$LN108@Emplace_re:
  00143	cc		 int	 3
??$_Emplace_reallocate@ABU__POINT@CExchange@@@?$vector@U__POINT@CExchange@@V?$allocator@U__POINT@CExchange@@@std@@@std@@AAEPAU__POINT@CExchange@@QAU23@ABU23@@Z ENDP ; std::vector<CExchange::__POINT,std::allocator<CExchange::__POINT> >::_Emplace_reallocate<CExchange::__POINT const &>
_TEXT	ENDS
; Function compile flags: /Ogtp
; File C:\Program Files\Microsoft Visual Studio\2022\Professional\VC\Tools\MSVC\14.44.35207\include\xutility
;	COMDAT ??$_Copy_memmove_n@PAU__POINT@CExchange@@PAU12@@std@@YAPAU__POINT@CExchange@@PAU12@I0@Z
_TEXT	SEGMENT
__First$ = 8						; size = 4
__Object_count$ = 12					; size = 4
__Dest$ = 16						; size = 4
??$_Copy_memmove_n@PAU__POINT@CExchange@@PAU12@@std@@YAPAU__POINT@CExchange@@PAU12@I0@Z PROC ; std::_Copy_memmove_n<CExchange::__POINT *,CExchange::__POINT *>, COMDAT

; 4774 : _OutCtgIt _Copy_memmove_n(_CtgIt _First, const size_t _Object_count, _OutCtgIt _Dest) {

  00000	55		 push	 ebp
  00001	8b ec		 mov	 ebp, esp

; 4775 :     const auto _First_ptr  = _STD _To_address(_First);
; 4776 :     const auto _First_ch   = const_cast<const char*>(reinterpret_cast<const volatile char*>(_First_ptr));
; 4777 :     const auto _Byte_count = _Object_count * sizeof(*_First_ptr);
; 4778 :     return _STD _Copy_memmove_tail(_First_ch, _STD move(_Dest), _Byte_count, _Object_count);

  00003	8b 45 0c	 mov	 eax, DWORD PTR __Object_count$[ebp]
  00006	50		 push	 eax
  00007	c1 e0 03	 shl	 eax, 3
  0000a	50		 push	 eax
  0000b	ff 75 10	 push	 DWORD PTR __Dest$[ebp]
  0000e	ff 75 08	 push	 DWORD PTR __First$[ebp]
  00011	e8 00 00 00 00	 call	 ??$_Copy_memmove_tail@PAU__POINT@CExchange@@@std@@YAPAU__POINT@CExchange@@QBDQAU12@II@Z ; std::_Copy_memmove_tail<CExchange::__POINT *>
  00016	83 c4 10	 add	 esp, 16			; 00000010H

; 4779 : }

  00019	5d		 pop	 ebp
  0001a	c3		 ret	 0
??$_Copy_memmove_n@PAU__POINT@CExchange@@PAU12@@std@@YAPAU__POINT@CExchange@@PAU12@I0@Z ENDP ; std::_Copy_memmove_n<CExchange::__POINT *,CExchange::__POINT *>
_TEXT	ENDS
; Function compile flags: /Ogtp
; File C:\Program Files\Microsoft Visual Studio\2022\Professional\VC\Tools\MSVC\14.44.35207\include\vector
; File C:\Program Files\Microsoft Visual Studio\2022\Professional\VC\Tools\MSVC\14.44.35207\include\xmemory
; File C:\Program Files\Microsoft Visual Studio\2022\Professional\VC\Tools\MSVC\14.44.35207\include\vector
; File C:\Program Files\Microsoft Visual Studio\2022\Professional\VC\Tools\MSVC\14.44.35207\include\xmemory
; File C:\Program Files\Microsoft Visual Studio\2022\Professional\VC\Tools\MSVC\14.44.35207\include\vector
; File C:\Program Files\Microsoft Visual Studio\2022\Professional\VC\Tools\MSVC\14.44.35207\include\xmemory
; File C:\Program Files\Microsoft Visual Studio\2022\Professional\VC\Tools\MSVC\14.44.35207\include\vector
; File C:\Program Files\Microsoft Visual Studio\2022\Professional\VC\Tools\MSVC\14.44.35207\include\xmemory
; File C:\Program Files\Microsoft Visual Studio\2022\Professional\VC\Tools\MSVC\14.44.35207\include\vector
; File C:\Program Files\Microsoft Visual Studio\2022\Professional\VC\Tools\MSVC\14.44.35207\include\xmemory
; File C:\Program Files\Microsoft Visual Studio\2022\Professional\VC\Tools\MSVC\14.44.35207\include\vector
; File C:\Program Files\Microsoft Visual Studio\2022\Professional\VC\Tools\MSVC\14.44.35207\include\xmemory
; File C:\Program Files\Microsoft Visual Studio\2022\Professional\VC\Tools\MSVC\14.44.35207\include\vector
; File C:\Program Files\Microsoft Visual Studio\2022\Professional\VC\Tools\MSVC\14.44.35207\include\xmemory
; File C:\Program Files\Microsoft Visual Studio\2022\Professional\VC\Tools\MSVC\14.44.35207\include\vector
; File C:\Program Files\Microsoft Visual Studio\2022\Professional\VC\Tools\MSVC\14.44.35207\include\xmemory
; File C:\Program Files\Microsoft Visual Studio\2022\Professional\VC\Tools\MSVC\14.44.35207\include\vector
; File C:\Program Files\Microsoft Visual Studio\2022\Professional\VC\Tools\MSVC\14.44.35207\include\xmemory
; File C:\Program Files\Microsoft Visual Studio\2022\Professional\VC\Tools\MSVC\14.44.35207\include\vector
; File C:\Program Files\Microsoft Visual Studio\2022\Professional\VC\Tools\MSVC\14.44.35207\include\xmemory
; File C:\Program Files\Microsoft Visual Studio\2022\Professional\VC\Tools\MSVC\14.44.35207\include\vector
;	COMDAT ??$_Emplace_reallocate@ABU__SET@CExchange@@@?$vector@U__SET@CExchange@@V?$allocator@U__SET@CExchange@@@std@@@std@@AAEPAU__SET@CExchange@@QAU23@ABU23@@Z
_TEXT	SEGMENT
__Guard$ = -56						; size = 20
tv718 = -36						; size = 4
__Whereoff$1$ = -32					; size = 4
$T5 = -32						; size = 4
tv719 = -28						; size = 4
__Newsize$1$ = -24					; size = 4
_this$1$ = -20						; size = 4
$T6 = -16						; size = 4
__$EHRec$ = -12						; size = 12
__Whereptr$ = 8						; size = 4
$T7 = 8							; size = 4
_<_Val_0>$ = 12						; size = 4
__Backout$2$sroa$288$1$ = 12				; size = 4
??$_Emplace_reallocate@ABU__SET@CExchange@@@?$vector@U__SET@CExchange@@V?$allocator@U__SET@CExchange@@@std@@@std@@AAEPAU__SET@CExchange@@QAU23@ABU23@@Z PROC ; std::vector<CExchange::__SET,std::allocator<CExchange::__SET> >::_Emplace_reallocate<CExchange::__SET const &>, COMDAT
; _this$ = ecx

; 875  :     _CONSTEXPR20 pointer _Emplace_reallocate(const pointer _Whereptr, _Valty&&... _Val) {

  00000	55		 push	 ebp
  00001	8b ec		 mov	 ebp, esp
  00003	6a ff		 push	 -1
  00005	68 00 00 00 00	 push	 __ehhandler$??$_Emplace_reallocate@ABU__SET@CExchange@@@?$vector@U__SET@CExchange@@V?$allocator@U__SET@CExchange@@@std@@@std@@AAEPAU__SET@CExchange@@QAU23@ABU23@@Z
  0000a	64 a1 00 00 00
	00		 mov	 eax, DWORD PTR fs:0
  00010	50		 push	 eax
  00011	83 ec 2c	 sub	 esp, 44			; 0000002cH
  00014	53		 push	 ebx
  00015	56		 push	 esi
  00016	57		 push	 edi
  00017	a1 00 00 00 00	 mov	 eax, DWORD PTR ___security_cookie
  0001c	33 c5		 xor	 eax, ebp
  0001e	50		 push	 eax
  0001f	8d 45 f4	 lea	 eax, DWORD PTR __$EHRec$[ebp]
  00022	64 a3 00 00 00
	00		 mov	 DWORD PTR fs:0, eax
  00028	8b f1		 mov	 esi, ecx
  0002a	89 75 ec	 mov	 DWORD PTR _this$1$[ebp], esi

; 876  :         // reallocate and insert by perfectly forwarding _Val at _Whereptr
; 877  :         _Alty& _Al        = _Getal();
; 878  :         auto& _My_data    = _Mypair._Myval2;
; 879  :         pointer& _Myfirst = _My_data._Myfirst;
; 880  :         pointer& _Mylast  = _My_data._Mylast;
; 881  : 
; 882  :         _STL_INTERNAL_CHECK(_Mylast == _My_data._Myend); // check that we have no unused capacity
; 883  : 
; 884  :         const auto _Whereoff = static_cast<size_type>(_Whereptr - _Myfirst);

  0002d	8b 5d 08	 mov	 ebx, DWORD PTR __Whereptr$[ebp]
  00030	b8 67 66 66 66	 mov	 eax, 1717986919		; 66666667H
  00035	8b 3e		 mov	 edi, DWORD PTR [esi]
  00037	8b d3		 mov	 edx, ebx

; 885  :         const auto _Oldsize  = static_cast<size_type>(_Mylast - _Myfirst);

  00039	8b 4e 04	 mov	 ecx, DWORD PTR [esi+4]
  0003c	2b d7		 sub	 edx, edi
  0003e	f7 ea		 imul	 edx
  00040	2b cf		 sub	 ecx, edi
  00042	c1 fa 05	 sar	 edx, 5
  00045	8b c2		 mov	 eax, edx
  00047	c1 e8 1f	 shr	 eax, 31			; 0000001fH
  0004a	03 c2		 add	 eax, edx
  0004c	89 45 e0	 mov	 DWORD PTR __Whereoff$1$[ebp], eax
  0004f	b8 67 66 66 66	 mov	 eax, 1717986919		; 66666667H
  00054	f7 e9		 imul	 ecx
  00056	c1 fa 05	 sar	 edx, 5
  00059	8b c2		 mov	 eax, edx
  0005b	c1 e8 1f	 shr	 eax, 31			; 0000001fH
  0005e	03 c2		 add	 eax, edx

; 886  : 
; 887  :         if (_Oldsize == max_size()) {

  00060	3d 33 33 33 03	 cmp	 eax, 53687091		; 03333333H
  00065	0f 84 fd 01 00
	00		 je	 $LN134@Emplace_re

; 1924 :         return static_cast<size_type>(_My_data._Myend - _My_data._Myfirst);

  0006b	8b 4e 08	 mov	 ecx, DWORD PTR [esi+8]

; 889  :         }
; 890  : 
; 891  :         const size_type _Newsize = _Oldsize + 1;

  0006e	40		 inc	 eax
  0006f	89 45 e8	 mov	 DWORD PTR __Newsize$1$[ebp], eax

; 1924 :         return static_cast<size_type>(_My_data._Myend - _My_data._Myfirst);

  00072	2b cf		 sub	 ecx, edi
  00074	b8 67 66 66 66	 mov	 eax, 1717986919		; 66666667H
  00079	f7 e9		 imul	 ecx

; 2011 :         if (_Oldcapacity > _Max - _Oldcapacity / 2) {

  0007b	b8 33 33 33 03	 mov	 eax, 53687091		; 03333333H

; 1924 :         return static_cast<size_type>(_My_data._Myend - _My_data._Myfirst);

  00080	c1 fa 05	 sar	 edx, 5
  00083	8b ca		 mov	 ecx, edx
  00085	c1 e9 1f	 shr	 ecx, 31			; 0000001fH
  00088	03 ca		 add	 ecx, edx

; 2011 :         if (_Oldcapacity > _Max - _Oldcapacity / 2) {

  0008a	8b d1		 mov	 edx, ecx
  0008c	d1 ea		 shr	 edx, 1
  0008e	2b c2		 sub	 eax, edx
  00090	3b c8		 cmp	 ecx, eax
  00092	76 20		 jbe	 SHORT $LN8@Emplace_re

; 2012 :             return _Max; // geometric growth would overflow

  00094	b8 f0 ff ff ff	 mov	 eax, -16		; fffffff0H
  00099	c7 45 f0 33 33
	33 03		 mov	 DWORD PTR $T6[ebp], 53687091 ; 03333333H
; File C:\Program Files\Microsoft Visual Studio\2022\Professional\VC\Tools\MSVC\14.44.35207\include\xmemory

; 253  :             return _Allocate_manually_vector_aligned<_Traits>(_Bytes);

  000a0	50		 push	 eax
; File C:\Program Files\Microsoft Visual Studio\2022\Professional\VC\Tools\MSVC\14.44.35207\include\vector

; 2012 :             return _Max; // geometric growth would overflow

  000a1	c7 45 e4 f0 ff
	ff ff		 mov	 DWORD PTR tv719[ebp], -16 ; fffffff0H
; File C:\Program Files\Microsoft Visual Studio\2022\Professional\VC\Tools\MSVC\14.44.35207\include\xmemory

; 253  :             return _Allocate_manually_vector_aligned<_Traits>(_Bytes);

  000a8	e8 00 00 00 00	 call	 ??$_Allocate_manually_vector_aligned@U_Default_allocate_traits@std@@@std@@YAPAXI@Z ; std::_Allocate_manually_vector_aligned<std::_Default_allocate_traits>
  000ad	8b c8		 mov	 ecx, eax
  000af	89 4d 08	 mov	 DWORD PTR $T7[ebp], ecx
  000b2	eb 50		 jmp	 SHORT $LN131@Emplace_re
$LN8@Emplace_re:

; 117  :         if (_Count > _Max_possible) {

  000b4	8b 7d e8	 mov	 edi, DWORD PTR __Newsize$1$[ebp]
; File C:\Program Files\Microsoft Visual Studio\2022\Professional\VC\Tools\MSVC\14.44.35207\include\vector

; 2015 :         const size_type _Geometric = _Oldcapacity + _Oldcapacity / 2;

  000b7	8d 04 0a	 lea	 eax, DWORD PTR [edx+ecx]
; File C:\Program Files\Microsoft Visual Studio\2022\Professional\VC\Tools\MSVC\14.44.35207\include\xmemory

; 117  :         if (_Count > _Max_possible) {

  000ba	3b c7		 cmp	 eax, edi
  000bc	0f 43 f8	 cmovae	 edi, eax
  000bf	89 7d f0	 mov	 DWORD PTR $T6[ebp], edi
  000c2	81 ff 33 33 33
	03		 cmp	 edi, 53687091		; 03333333H
  000c8	0f 87 9f 01 00
	00		 ja	 $LN135@Emplace_re

; 119  :         }
; 120  :     }
; 121  : 
; 122  :     return _Count * _Ty_size;

  000ce	8d 04 bf	 lea	 eax, DWORD PTR [edi+edi*4]
  000d1	c1 e0 04	 shl	 eax, 4
  000d4	89 45 e4	 mov	 DWORD PTR tv719[ebp], eax

; 227  :     if (_Bytes == 0) {

  000d7	85 c0		 test	 eax, eax
  000d9	75 0a		 jne	 SHORT $LN23@Emplace_re

; 228  :         return nullptr;

  000db	33 c9		 xor	 ecx, ecx
  000dd	89 7d f0	 mov	 DWORD PTR $T6[ebp], edi
  000e0	89 4d 08	 mov	 DWORD PTR $T7[ebp], ecx
  000e3	eb 22		 jmp	 SHORT $LN22@Emplace_re
$LN23@Emplace_re:

; 229  :     }
; 230  : 
; 231  : #if _HAS_CXX20 // TRANSITION, GH-1532
; 232  :     if (_STD is_constant_evaluated()) {
; 233  :         return _Traits::_Allocate(_Bytes);
; 234  :     }
; 235  : #endif // _HAS_CXX20
; 236  : 
; 237  : #ifdef __cpp_aligned_new
; 238  :     if constexpr (_Align > __STDCPP_DEFAULT_NEW_ALIGNMENT__) {
; 239  :         size_t _Passed_align = _Align;
; 240  : #if defined(_M_IX86) || defined(_M_X64)
; 241  :         if (_Bytes >= _Big_allocation_threshold) {
; 242  :             // boost the alignment of big allocations to help autovectorization
; 243  :             _Passed_align = (_STD max)(_Align, _Big_allocation_alignment);
; 244  :         }
; 245  : #endif // defined(_M_IX86) || defined(_M_X64)
; 246  :         return _Traits::_Allocate_aligned(_Bytes, _Passed_align);
; 247  :     } else
; 248  : #endif // defined(__cpp_aligned_new)
; 249  :     {
; 250  : #if defined(_M_IX86) || defined(_M_X64)
; 251  :         if (_Bytes >= _Big_allocation_threshold) {

  000e5	3d 00 10 00 00	 cmp	 eax, 4096		; 00001000H
  000ea	72 0d		 jb	 SHORT $LN24@Emplace_re

; 253  :             return _Allocate_manually_vector_aligned<_Traits>(_Bytes);

  000ec	50		 push	 eax
  000ed	e8 00 00 00 00	 call	 ??$_Allocate_manually_vector_aligned@U_Default_allocate_traits@std@@@std@@YAPAXI@Z ; std::_Allocate_manually_vector_aligned<std::_Default_allocate_traits>
  000f2	8b c8		 mov	 ecx, eax
  000f4	89 4d 08	 mov	 DWORD PTR $T7[ebp], ecx
  000f7	eb 0b		 jmp	 SHORT $LN131@Emplace_re
$LN24@Emplace_re:

; 136  :         return ::operator new(_Bytes);

  000f9	50		 push	 eax
  000fa	e8 00 00 00 00	 call	 ??2@YAPAXI@Z		; operator new

; 256  :         return _Traits::_Allocate(_Bytes);

  000ff	8b c8		 mov	 ecx, eax
  00101	89 45 08	 mov	 DWORD PTR $T7[ebp], eax
$LN131@Emplace_re:
; File C:\Program Files\Microsoft Visual Studio\2022\Professional\VC\Tools\MSVC\14.44.35207\include\vector

; 895  :         const pointer _Constructed_last = _Newvec + _Whereoff + 1;

  00104	83 c4 04	 add	 esp, 4
$LN22@Emplace_re:
  00107	8b 45 e0	 mov	 eax, DWORD PTR __Whereoff$1$[ebp]

; 897  :         _Reallocation_guard _Guard{_Al, _Newvec, _Newcapacity, _Constructed_last, _Constructed_last};

  0010a	89 75 c8	 mov	 DWORD PTR __Guard$[ebp], esi
  0010d	89 4d cc	 mov	 DWORD PTR __Guard$[ebp+4], ecx
  00110	8d 14 80	 lea	 edx, DWORD PTR [eax+eax*4]
  00113	8b 45 f0	 mov	 eax, DWORD PTR $T6[ebp]
  00116	c1 e2 04	 shl	 edx, 4
  00119	03 d1		 add	 edx, ecx
  0011b	89 45 d0	 mov	 DWORD PTR __Guard$[ebp+8], eax
  0011e	89 55 dc	 mov	 DWORD PTR tv718[ebp], edx
  00121	8d 7a 50	 lea	 edi, DWORD PTR [edx+80]
  00124	89 7d e0	 mov	 DWORD PTR $T5[ebp], edi
  00127	89 7d d4	 mov	 DWORD PTR __Guard$[ebp+12], edi
  0012a	89 7d d8	 mov	 DWORD PTR __Guard$[ebp+16], edi
; File C:\Program Files\Microsoft Visual Studio\2022\Professional\VC\Tools\MSVC\14.44.35207\include\xmemory

; 732  :         ::new (const_cast<void*>(static_cast<const volatile void*>(_Ptr))) _Objty(_STD forward<_Types>(_Args)...);

  0012d	ff 75 0c	 push	 DWORD PTR _<_Val_0>$[ebp]
  00130	8b ca		 mov	 ecx, edx
; File C:\Program Files\Microsoft Visual Studio\2022\Professional\VC\Tools\MSVC\14.44.35207\include\vector

; 897  :         _Reallocation_guard _Guard{_Al, _Newvec, _Newcapacity, _Constructed_last, _Constructed_last};

  00132	c7 45 fc 00 00
	00 00		 mov	 DWORD PTR __$EHRec$[ebp+8], 0
; File C:\Program Files\Microsoft Visual Studio\2022\Professional\VC\Tools\MSVC\14.44.35207\include\xmemory

; 732  :         ::new (const_cast<void*>(static_cast<const volatile void*>(_Ptr))) _Objty(_STD forward<_Types>(_Args)...);

  00139	e8 00 00 00 00	 call	 ??0__SET@CExchange@@QAE@ABU01@@Z
; File C:\Program Files\Microsoft Visual Studio\2022\Professional\VC\Tools\MSVC\14.44.35207\include\vector

; 903  :         if (_Whereptr == _Mylast) { // at back, provide strong guarantee

  0013e	8b 46 04	 mov	 eax, DWORD PTR [esi+4]
  00141	8b 36		 mov	 esi, DWORD PTR [esi]
  00143	3b d8		 cmp	 ebx, eax
  00145	75 25		 jne	 SHORT $LN3@Emplace_re
; File C:\Program Files\Microsoft Visual Studio\2022\Professional\VC\Tools\MSVC\14.44.35207\include\xmemory

; 1833 :     _CONSTEXPR20 _Uninitialized_backout_al(pointer _Dest, _Alloc& _Al_) : _First(_Dest), _Last(_Dest), _Al(_Al_) {}

  00147	8b 5d 08	 mov	 ebx, DWORD PTR $T7[ebp]
  0014a	8b fb		 mov	 edi, ebx

; 1998 :     for (; _UFirst != _ULast; ++_UFirst) {

  0014c	3b f0		 cmp	 esi, eax
  0014e	74 17		 je	 SHORT $LN34@Emplace_re
  00150	8b d8		 mov	 ebx, eax
$LL35@Emplace_re:

; 732  :         ::new (const_cast<void*>(static_cast<const volatile void*>(_Ptr))) _Objty(_STD forward<_Types>(_Args)...);

  00152	56		 push	 esi
  00153	8b cf		 mov	 ecx, edi
  00155	e8 00 00 00 00	 call	 ??0__SET@CExchange@@QAE@$$QAU01@@Z

; 1998 :     for (; _UFirst != _ULast; ++_UFirst) {

  0015a	83 c6 50	 add	 esi, 80			; 00000050H

; 1845 :         ++_Last;

  0015d	83 c7 50	 add	 edi, 80			; 00000050H

; 1998 :     for (; _UFirst != _ULast; ++_UFirst) {

  00160	3b f3		 cmp	 esi, ebx
  00162	75 ee		 jne	 SHORT $LL35@Emplace_re
  00164	8b 5d 08	 mov	 ebx, DWORD PTR $T7[ebp]
$LN34@Emplace_re:

; 1839 :         _STD _Destroy_range(_First, _Last, _Al);

  00167	8b 75 ec	 mov	 esi, DWORD PTR _this$1$[ebp]
; File C:\Program Files\Microsoft Visual Studio\2022\Professional\VC\Tools\MSVC\14.44.35207\include\vector

; 909  :         } else { // provide basic guarantee

  0016a	eb 5c		 jmp	 SHORT $LN132@Emplace_re
$LN3@Emplace_re:
; File C:\Program Files\Microsoft Visual Studio\2022\Professional\VC\Tools\MSVC\14.44.35207\include\xmemory

; 1833 :     _CONSTEXPR20 _Uninitialized_backout_al(pointer _Dest, _Alloc& _Al_) : _First(_Dest), _Last(_Dest), _Al(_Al_) {}

  0016c	8b 45 08	 mov	 eax, DWORD PTR $T7[ebp]
  0016f	89 45 0c	 mov	 DWORD PTR __Backout$2$sroa$288$1$[ebp], eax

; 1998 :     for (; _UFirst != _ULast; ++_UFirst) {

  00172	3b f3		 cmp	 esi, ebx
  00174	74 1d		 je	 SHORT $LN50@Emplace_re
  00176	8b f8		 mov	 edi, eax
$LL51@Emplace_re:

; 732  :         ::new (const_cast<void*>(static_cast<const volatile void*>(_Ptr))) _Objty(_STD forward<_Types>(_Args)...);

  00178	56		 push	 esi
  00179	8b cf		 mov	 ecx, edi
  0017b	e8 00 00 00 00	 call	 ??0__SET@CExchange@@QAE@$$QAU01@@Z

; 1998 :     for (; _UFirst != _ULast; ++_UFirst) {

  00180	83 c6 50	 add	 esi, 80			; 00000050H

; 1845 :         ++_Last;

  00183	83 c7 50	 add	 edi, 80			; 00000050H

; 1998 :     for (; _UFirst != _ULast; ++_UFirst) {

  00186	3b f3		 cmp	 esi, ebx
  00188	75 ee		 jne	 SHORT $LL51@Emplace_re
  0018a	89 7d 0c	 mov	 DWORD PTR __Backout$2$sroa$288$1$[ebp], edi
  0018d	8b 7d e0	 mov	 edi, DWORD PTR $T5[ebp]
  00190	8b 45 0c	 mov	 eax, DWORD PTR __Backout$2$sroa$288$1$[ebp]
$LN50@Emplace_re:

; 1839 :         _STD _Destroy_range(_First, _Last, _Al);

  00193	8b 75 ec	 mov	 esi, DWORD PTR _this$1$[ebp]
  00196	56		 push	 esi
  00197	50		 push	 eax
  00198	50		 push	 eax
  00199	e8 00 00 00 00	 call	 ??$_Destroy_range@V?$allocator@U__SET@CExchange@@@std@@@std@@YAXPAU__SET@CExchange@@QAU12@AAV?$allocator@U__SET@CExchange@@@0@@Z ; std::_Destroy_range<std::allocator<CExchange::__SET> >

; 1985 :     const auto _ULast = _STD _Get_unwrapped(_Last);

  0019e	8b 46 04	 mov	 eax, DWORD PTR [esi+4]

; 1839 :         _STD _Destroy_range(_First, _Last, _Al);

  001a1	83 c4 0c	 add	 esp, 12			; 0000000cH

; 1998 :     for (; _UFirst != _ULast; ++_UFirst) {

  001a4	3b d8		 cmp	 ebx, eax
  001a6	74 1d		 je	 SHORT $LN66@Emplace_re
  001a8	8b f0		 mov	 esi, eax
  001aa	66 0f 1f 44 00
	00		 npad	 6
$LL67@Emplace_re:

; 732  :         ::new (const_cast<void*>(static_cast<const volatile void*>(_Ptr))) _Objty(_STD forward<_Types>(_Args)...);

  001b0	53		 push	 ebx
  001b1	8b cf		 mov	 ecx, edi
  001b3	e8 00 00 00 00	 call	 ??0__SET@CExchange@@QAE@$$QAU01@@Z

; 1998 :     for (; _UFirst != _ULast; ++_UFirst) {

  001b8	83 c3 50	 add	 ebx, 80			; 00000050H

; 1845 :         ++_Last;

  001bb	83 c7 50	 add	 edi, 80			; 00000050H

; 1998 :     for (; _UFirst != _ULast; ++_UFirst) {

  001be	3b de		 cmp	 ebx, esi
  001c0	75 ee		 jne	 SHORT $LL67@Emplace_re
  001c2	8b 75 ec	 mov	 esi, DWORD PTR _this$1$[ebp]
$LN66@Emplace_re:
  001c5	8b 5d 08	 mov	 ebx, DWORD PTR $T7[ebp]
$LN132@Emplace_re:
; File C:\Program Files\Microsoft Visual Studio\2022\Professional\VC\Tools\MSVC\14.44.35207\include\vector

; 2064 :         pointer& _Mylast  = _My_data._Mylast;

  001c8	8b c6		 mov	 eax, esi
  001ca	50		 push	 eax
  001cb	57		 push	 edi
  001cc	57		 push	 edi
  001cd	e8 00 00 00 00	 call	 ??$_Destroy_range@V?$allocator@U__SET@CExchange@@@std@@@std@@YAXPAU__SET@CExchange@@QAU12@AAV?$allocator@U__SET@CExchange@@@0@@Z ; std::_Destroy_range<std::allocator<CExchange::__SET> >

; 2065 :         pointer& _Myend   = _My_data._Myend;
; 2066 : 
; 2067 :         _My_data._Orphan_all();
; 2068 : 
; 2069 :         if (_Myfirst) { // destroy and deallocate old array

  001d2	8b 0e		 mov	 ecx, DWORD PTR [esi]
  001d4	83 c4 0c	 add	 esp, 12			; 0000000cH
  001d7	85 c9		 test	 ecx, ecx
  001d9	74 4f		 je	 SHORT $LN89@Emplace_re

; 2070 :             _STD _Destroy_range(_Myfirst, _Mylast, _Al);

  001db	56		 push	 esi
  001dc	ff 76 04	 push	 DWORD PTR [esi+4]
  001df	51		 push	 ecx
  001e0	e8 00 00 00 00	 call	 ??$_Destroy_range@V?$allocator@U__SET@CExchange@@@std@@@std@@YAXPAU__SET@CExchange@@QAU12@AAV?$allocator@U__SET@CExchange@@@0@@Z ; std::_Destroy_range<std::allocator<CExchange::__SET> >

; 2071 :             _ASAN_VECTOR_REMOVE;
; 2072 :             _Al.deallocate(_Myfirst, static_cast<size_type>(_Myend - _Myfirst));

  001e5	8b 4e 08	 mov	 ecx, DWORD PTR [esi+8]
  001e8	b8 67 66 66 66	 mov	 eax, 1717986919		; 66666667H
  001ed	8b 3e		 mov	 edi, DWORD PTR [esi]
  001ef	83 c4 0c	 add	 esp, 12			; 0000000cH
  001f2	2b cf		 sub	 ecx, edi
  001f4	f7 e9		 imul	 ecx
  001f6	c1 fa 05	 sar	 edx, 5
  001f9	8b c2		 mov	 eax, edx
  001fb	c1 e8 1f	 shr	 eax, 31			; 0000001fH
  001fe	03 c2		 add	 eax, edx
; File C:\Program Files\Microsoft Visual Studio\2022\Professional\VC\Tools\MSVC\14.44.35207\include\xmemory

; 985  :         _STD _Deallocate<_New_alignof<_Ty>>(_Ptr, sizeof(_Ty) * _Count);

  00200	8d 0c 80	 lea	 ecx, DWORD PTR [eax+eax*4]
  00203	c1 e1 04	 shl	 ecx, 4

; 284  :         if (_Bytes >= _Big_allocation_threshold) {

  00206	81 f9 00 10 00
	00		 cmp	 ecx, 4096		; 00001000H
  0020c	72 12		 jb	 SHORT $LN94@Emplace_re

; 205  :     const uintptr_t _Ptr_container   = _Ptr_user[-1];

  0020e	8b 57 fc	 mov	 edx, DWORD PTR [edi-4]
  00211	83 c1 23	 add	 ecx, 35			; 00000023H

; 206  : 
; 207  :     // If the following asserts, it likely means that we are performing
; 208  :     // an aligned delete on memory coming from an unaligned allocation.
; 209  :     _STL_ASSERT(_Ptr_user[-2] == _Big_allocation_sentinel, "invalid argument");
; 210  : 
; 211  :     // Extra paranoia on aligned allocation/deallocation; ensure _Ptr_container is
; 212  :     // in range [_Min_back_shift, _Non_user_size]
; 213  : #ifdef _DEBUG
; 214  :     constexpr uintptr_t _Min_back_shift = 2 * sizeof(void*);
; 215  : #else // ^^^ defined(_DEBUG) / !defined(_DEBUG) vvv
; 216  :     constexpr uintptr_t _Min_back_shift = sizeof(void*);
; 217  : #endif // ^^^ !defined(_DEBUG) ^^^
; 218  :     const uintptr_t _Back_shift = reinterpret_cast<uintptr_t>(_Ptr) - _Ptr_container;

  00214	2b fa		 sub	 edi, edx

; 219  :     _STL_VERIFY(_Back_shift >= _Min_back_shift && _Back_shift <= _Non_user_size, "invalid argument");

  00216	8d 47 fc	 lea	 eax, DWORD PTR [edi-4]
  00219	83 f8 1f	 cmp	 eax, 31			; 0000001fH
  0021c	77 3b		 ja	 SHORT $LN93@Emplace_re

; 220  :     _Ptr = reinterpret_cast<void*>(_Ptr_container);

  0021e	8b fa		 mov	 edi, edx
$LN94@Emplace_re:

; 289  :         ::operator delete(_Ptr, _Bytes);

  00220	51		 push	 ecx
  00221	57		 push	 edi
  00222	e8 00 00 00 00	 call	 ??3@YAXPAXI@Z		; operator delete
  00227	83 c4 08	 add	 esp, 8
$LN89@Emplace_re:
; File C:\Program Files\Microsoft Visual Studio\2022\Professional\VC\Tools\MSVC\14.44.35207\include\vector

; 2076 :         _Mylast  = _Newvec + _Newsize;

  0022a	8b 45 e8	 mov	 eax, DWORD PTR __Newsize$1$[ebp]
  0022d	89 1e		 mov	 DWORD PTR [esi], ebx
  0022f	8d 0c 80	 lea	 ecx, DWORD PTR [eax+eax*4]

; 910  :             _STD _Uninitialized_move(_Myfirst, _Whereptr, _Newvec, _Al);
; 911  :             _Constructed_first = _Newvec;
; 912  :             _STD _Uninitialized_move(_Whereptr, _Mylast, _Newvec + _Whereoff + 1, _Al);
; 913  :         }
; 914  : 
; 915  :         _Guard._New_begin = nullptr;
; 916  :         _Change_array(_Newvec, _Newsize, _Newcapacity);
; 917  :         return _Newvec + _Whereoff;

  00232	8b 45 dc	 mov	 eax, DWORD PTR tv718[ebp]

; 2076 :         _Mylast  = _Newvec + _Newsize;

  00235	c1 e1 04	 shl	 ecx, 4
  00238	03 cb		 add	 ecx, ebx
  0023a	89 4e 04	 mov	 DWORD PTR [esi+4], ecx

; 2077 :         _Myend   = _Newvec + _Newcapacity;

  0023d	8b 4d e4	 mov	 ecx, DWORD PTR tv719[ebp]
  00240	03 cb		 add	 ecx, ebx
  00242	89 4e 08	 mov	 DWORD PTR [esi+8], ecx

; 918  :     }

  00245	8b 4d f4	 mov	 ecx, DWORD PTR __$EHRec$[ebp]
  00248	64 89 0d 00 00
	00 00		 mov	 DWORD PTR fs:0, ecx
  0024f	59		 pop	 ecx
  00250	5f		 pop	 edi
  00251	5e		 pop	 esi
  00252	5b		 pop	 ebx
  00253	8b e5		 mov	 esp, ebp
  00255	5d		 pop	 ebp
  00256	c2 08 00	 ret	 8
$LN93@Emplace_re:
; File C:\Program Files\Microsoft Visual Studio\2022\Professional\VC\Tools\MSVC\14.44.35207\include\xmemory

; 219  :     _STL_VERIFY(_Back_shift >= _Min_back_shift && _Back_shift <= _Non_user_size, "invalid argument");

  00259	6a 00		 push	 0
  0025b	6a 00		 push	 0
  0025d	6a 00		 push	 0
  0025f	6a 00		 push	 0
  00261	6a 00		 push	 0
  00263	e8 00 00 00 00	 call	 __invoke_watson
$LN134@Emplace_re:
; File C:\Program Files\Microsoft Visual Studio\2022\Professional\VC\Tools\MSVC\14.44.35207\include\vector

; 888  :             _Xlength();

  00268	e8 00 00 00 00	 call	 ?_Xlength@?$vector@U__SET@CExchange@@V?$allocator@U__SET@CExchange@@@std@@@std@@CAXXZ ; std::vector<CExchange::__SET,std::allocator<CExchange::__SET> >::_Xlength
$LN135@Emplace_re:
; File C:\Program Files\Microsoft Visual Studio\2022\Professional\VC\Tools\MSVC\14.44.35207\include\xmemory

; 118  :             _Throw_bad_array_new_length(); // multiply overflow

  0026d	e8 00 00 00 00	 call	 ?_Throw_bad_array_new_length@std@@YAXXZ ; std::_Throw_bad_array_new_length
$LN130@Emplace_re:
  00272	cc		 int	 3
_TEXT	ENDS
;	COMDAT text$x
text$x	SEGMENT
__unwindfunclet$??$_Emplace_reallocate@ABU__SET@CExchange@@@?$vector@U__SET@CExchange@@V?$allocator@U__SET@CExchange@@@std@@@std@@AAEPAU__SET@CExchange@@QAU23@ABU23@@Z$0:
  00000	8d 4d c8	 lea	 ecx, DWORD PTR __Guard$[ebp]
  00003	e9 00 00 00 00	 jmp	 ??1_Reallocation_guard@?$vector@U__SET@CExchange@@V?$allocator@U__SET@CExchange@@@std@@@std@@QAE@XZ ; std::vector<CExchange::__SET,std::allocator<CExchange::__SET> >::_Reallocation_guard::~_Reallocation_guard
  00008	cc		 int	 3
  00009	cc		 int	 3
  0000a	cc		 int	 3
  0000b	cc		 int	 3
  0000c	cc		 int	 3
__ehhandler$??$_Emplace_reallocate@ABU__SET@CExchange@@@?$vector@U__SET@CExchange@@V?$allocator@U__SET@CExchange@@@std@@@std@@AAEPAU__SET@CExchange@@QAU23@ABU23@@Z:
  0000d	90		 npad	 1
  0000e	90		 npad	 1
  0000f	8b 54 24 08	 mov	 edx, DWORD PTR [esp+8]
  00013	8d 42 0c	 lea	 eax, DWORD PTR [edx+12]
  00016	8b 4a c4	 mov	 ecx, DWORD PTR [edx-60]
  00019	33 c8		 xor	 ecx, eax
  0001b	e8 00 00 00 00	 call	 @__security_check_cookie@4
  00020	b8 00 00 00 00	 mov	 eax, OFFSET __ehfuncinfo$??$_Emplace_reallocate@ABU__SET@CExchange@@@?$vector@U__SET@CExchange@@V?$allocator@U__SET@CExchange@@@std@@@std@@AAEPAU__SET@CExchange@@QAU23@ABU23@@Z
  00025	e9 00 00 00 00	 jmp	 ___CxxFrameHandler3
text$x	ENDS
??$_Emplace_reallocate@ABU__SET@CExchange@@@?$vector@U__SET@CExchange@@V?$allocator@U__SET@CExchange@@@std@@@std@@AAEPAU__SET@CExchange@@QAU23@ABU23@@Z ENDP ; std::vector<CExchange::__SET,std::allocator<CExchange::__SET> >::_Emplace_reallocate<CExchange::__SET const &>
; Function compile flags: /Ogtp
; File C:\Program Files\Microsoft Visual Studio\2022\Professional\VC\Tools\MSVC\14.44.35207\include\xtree
; File C:\Program Files\Microsoft Visual Studio\2022\Professional\VC\Tools\MSVC\14.44.35207\include\utility
; File C:\Program Files\Microsoft Visual Studio\2022\Professional\VC\Tools\MSVC\14.44.35207\include\vector
; File C:\Program Files\Microsoft Visual Studio\2022\Professional\VC\Tools\MSVC\14.44.35207\include\xmemory
; File C:\Program Files\Microsoft Visual Studio\2022\Professional\VC\Tools\MSVC\14.44.35207\include\xtree
; File C:\Program Files\Microsoft Visual Studio\2022\Professional\VC\Tools\MSVC\14.44.35207\include\xmemory
; File C:\Program Files\Microsoft Visual Studio\2022\Professional\VC\Tools\MSVC\14.44.35207\include\xtree
;	COMDAT ??$_Erase_tree@V?$allocator@U?$_Tree_node@U?$pair@$$CBHU__SETLIST@CExchange@@@std@@PAX@std@@@std@@@?$_Tree_val@U?$_Tree_simple_types@U?$pair@$$CBHU__SETLIST@CExchange@@@std@@@std@@@std@@QAEXAAV?$allocator@U?$_Tree_node@U?$pair@$$CBHU__SETLIST@CExchange@@@std@@PAX@std@@@1@PAU?$_Tree_node@U?$pair@$$CBHU__SETLIST@CExchange@@@std@@PAX@1@@Z
_TEXT	SEGMENT
_this$1$ = -4						; size = 4
__Al$ = 8						; size = 4
__Rootnode$ = 12					; size = 4
??$_Erase_tree@V?$allocator@U?$_Tree_node@U?$pair@$$CBHU__SETLIST@CExchange@@@std@@PAX@std@@@std@@@?$_Tree_val@U?$_Tree_simple_types@U?$pair@$$CBHU__SETLIST@CExchange@@@std@@@std@@@std@@QAEXAAV?$allocator@U?$_Tree_node@U?$pair@$$CBHU__SETLIST@CExchange@@@std@@PAX@std@@@1@PAU?$_Tree_node@U?$pair@$$CBHU__SETLIST@CExchange@@@std@@PAX@1@@Z PROC ; std::_Tree_val<std::_Tree_simple_types<std::pair<int const ,CExchange::__SETLIST> > >::_Erase_tree<std::allocator<std::_Tree_node<std::pair<int const ,CExchange::__SETLIST>,void *> > >, COMDAT
; _this$ = ecx

; 767  :     void _Erase_tree(_Alnode& _Al, _Nodeptr _Rootnode) noexcept {

  00000	55		 push	 ebp
  00001	8b ec		 mov	 ebp, esp
  00003	51		 push	 ecx
  00004	56		 push	 esi

; 768  :         while (!_Rootnode->_Isnil) { // free subtrees, then node

  00005	8b 75 0c	 mov	 esi, DWORD PTR __Rootnode$[ebp]
  00008	8b c1		 mov	 eax, ecx
  0000a	89 45 fc	 mov	 DWORD PTR _this$1$[ebp], eax
  0000d	80 7e 0d 00	 cmp	 BYTE PTR [esi+13], 0
  00011	75 39		 jne	 SHORT $LN56@Erase_tree
  00013	53		 push	 ebx
  00014	57		 push	 edi
$LL2@Erase_tree:

; 769  :             _Erase_tree(_Al, _Rootnode->_Right);

  00015	ff 76 08	 push	 DWORD PTR [esi+8]
  00018	8b c8		 mov	 ecx, eax
  0001a	ff 75 08	 push	 DWORD PTR __Al$[ebp]
  0001d	e8 00 00 00 00	 call	 ??$_Erase_tree@V?$allocator@U?$_Tree_node@U?$pair@$$CBHU__SETLIST@CExchange@@@std@@PAX@std@@@std@@@?$_Tree_val@U?$_Tree_simple_types@U?$pair@$$CBHU__SETLIST@CExchange@@@std@@@std@@@std@@QAEXAAV?$allocator@U?$_Tree_node@U?$pair@$$CBHU__SETLIST@CExchange@@@std@@PAX@std@@@1@PAU?$_Tree_node@U?$pair@$$CBHU__SETLIST@CExchange@@@std@@PAX@1@@Z ; std::_Tree_val<std::_Tree_simple_types<std::pair<int const ,CExchange::__SETLIST> > >::_Erase_tree<std::allocator<std::_Tree_node<std::pair<int const ,CExchange::__SETLIST>,void *> > >
; File C:\Program Files\Microsoft Visual Studio\2022\Professional\VC\Tools\MSVC\14.44.35207\include\utility

; 773  :     _Ty _Old_val = static_cast<_Ty&&>(_Val);

  00022	8b de		 mov	 ebx, esi

; 774  :     _Val         = static_cast<_Other&&>(_New_val);

  00024	8b 36		 mov	 esi, DWORD PTR [esi]
  00026	8d 4b 20	 lea	 ecx, DWORD PTR [ebx+32]
; File C:\Program Files\Microsoft Visual Studio\2022\Professional\VC\Tools\MSVC\14.44.35207\include\vector

; 830  :         _Tidy();

  00029	e8 00 00 00 00	 call	 ?_Tidy@?$vector@U__SET@CExchange@@V?$allocator@U__SET@CExchange@@@std@@@std@@AAEXXZ ; std::vector<CExchange::__SET,std::allocator<CExchange::__SET> >::_Tidy
  0002e	8d 4b 14	 lea	 ecx, DWORD PTR [ebx+20]
  00031	e8 00 00 00 00	 call	 ?_Tidy@?$vector@HV?$allocator@H@std@@@std@@AAEXXZ ; std::vector<int,std::allocator<int> >::_Tidy
; File C:\Program Files\Microsoft Visual Studio\2022\Professional\VC\Tools\MSVC\14.44.35207\include\xmemory

; 289  :         ::operator delete(_Ptr, _Bytes);

  00036	6a 2c		 push	 44			; 0000002cH
  00038	53		 push	 ebx
  00039	e8 00 00 00 00	 call	 ??3@YAXPAXI@Z		; operator delete
; File C:\Program Files\Microsoft Visual Studio\2022\Professional\VC\Tools\MSVC\14.44.35207\include\xtree

; 768  :         while (!_Rootnode->_Isnil) { // free subtrees, then node

  0003e	8b 45 fc	 mov	 eax, DWORD PTR _this$1$[ebp]
; File C:\Program Files\Microsoft Visual Studio\2022\Professional\VC\Tools\MSVC\14.44.35207\include\xmemory

; 289  :         ::operator delete(_Ptr, _Bytes);

  00041	83 c4 08	 add	 esp, 8
; File C:\Program Files\Microsoft Visual Studio\2022\Professional\VC\Tools\MSVC\14.44.35207\include\xtree

; 768  :         while (!_Rootnode->_Isnil) { // free subtrees, then node

  00044	80 7e 0d 00	 cmp	 BYTE PTR [esi+13], 0
  00048	74 cb		 je	 SHORT $LL2@Erase_tree
  0004a	5f		 pop	 edi
  0004b	5b		 pop	 ebx
$LN56@Erase_tree:
  0004c	5e		 pop	 esi

; 770  :             _Alnode::value_type::_Freenode(_Al, _STD exchange(_Rootnode, _Rootnode->_Left));
; 771  :         }
; 772  :     }

  0004d	8b e5		 mov	 esp, ebp
  0004f	5d		 pop	 ebp
  00050	c2 08 00	 ret	 8
??$_Erase_tree@V?$allocator@U?$_Tree_node@U?$pair@$$CBHU__SETLIST@CExchange@@@std@@PAX@std@@@std@@@?$_Tree_val@U?$_Tree_simple_types@U?$pair@$$CBHU__SETLIST@CExchange@@@std@@@std@@@std@@QAEXAAV?$allocator@U?$_Tree_node@U?$pair@$$CBHU__SETLIST@CExchange@@@std@@PAX@std@@@1@PAU?$_Tree_node@U?$pair@$$CBHU__SETLIST@CExchange@@@std@@PAX@1@@Z ENDP ; std::_Tree_val<std::_Tree_simple_types<std::pair<int const ,CExchange::__SETLIST> > >::_Erase_tree<std::allocator<std::_Tree_node<std::pair<int const ,CExchange::__SETLIST>,void *> > >
_TEXT	ENDS
; Function compile flags: /Ogtp
; File C:\Program Files\Microsoft Visual Studio\2022\Professional\VC\Tools\MSVC\14.44.35207\include\xmemory
;	COMDAT ??1?$_Alloc_construct_ptr@V?$allocator@U?$_Tree_node@U?$pair@$$CBHU__SETLIST@CExchange@@@std@@PAX@std@@@std@@@std@@QAE@XZ
_TEXT	SEGMENT
??1?$_Alloc_construct_ptr@V?$allocator@U?$_Tree_node@U?$pair@$$CBHU__SETLIST@CExchange@@@std@@PAX@std@@@std@@@std@@QAE@XZ PROC ; std::_Alloc_construct_ptr<std::allocator<std::_Tree_node<std::pair<int const ,CExchange::__SETLIST>,void *> > >::~_Alloc_construct_ptr<std::allocator<std::_Tree_node<std::pair<int const ,CExchange::__SETLIST>,void *> > >, COMDAT
; _this$ = ecx

; 1172 :         if (_Ptr) {

  00000	8b 41 04	 mov	 eax, DWORD PTR [ecx+4]
  00003	85 c0		 test	 eax, eax
  00005	74 0b		 je	 SHORT $LN10@Alloc_cons

; 289  :         ::operator delete(_Ptr, _Bytes);

  00007	6a 2c		 push	 44			; 0000002cH
  00009	50		 push	 eax
  0000a	e8 00 00 00 00	 call	 ??3@YAXPAXI@Z		; operator delete
  0000f	83 c4 08	 add	 esp, 8
$LN10@Alloc_cons:

; 1173 :             _Al.deallocate(_Ptr, 1);
; 1174 :         }
; 1175 :     }

  00012	c3		 ret	 0
??1?$_Alloc_construct_ptr@V?$allocator@U?$_Tree_node@U?$pair@$$CBHU__SETLIST@CExchange@@@std@@PAX@std@@@std@@@std@@QAE@XZ ENDP ; std::_Alloc_construct_ptr<std::allocator<std::_Tree_node<std::pair<int const ,CExchange::__SETLIST>,void *> > >::~_Alloc_construct_ptr<std::allocator<std::_Tree_node<std::pair<int const ,CExchange::__SETLIST>,void *> > >
_TEXT	ENDS
; Function compile flags: /Ogtp
; File C:\Program Files\Microsoft Visual Studio\2022\Professional\VC\Tools\MSVC\14.44.35207\include\xtree
; File C:\Program Files\Microsoft Visual Studio\2022\Professional\VC\Tools\MSVC\14.44.35207\include\type_traits
; File C:\Program Files\Microsoft Visual Studio\2022\Professional\VC\Tools\MSVC\14.44.35207\include\xtree
; File C:\Program Files\Microsoft Visual Studio\2022\Professional\VC\Tools\MSVC\14.44.35207\include\type_traits
; File C:\Program Files\Microsoft Visual Studio\2022\Professional\VC\Tools\MSVC\14.44.35207\include\xtree
;	COMDAT ??$_Find_lower_bound@H@?$_Tree@V?$_Tmap_traits@HU__SETLIST@CExchange@@U?$less@H@std@@V?$allocator@U?$pair@$$CBHU__SETLIST@CExchange@@@std@@@4@$0A@@std@@@std@@IBE?AU?$_Tree_find_result@PAU?$_Tree_node@U?$pair@$$CBHU__SETLIST@CExchange@@@std@@PAX@std@@@1@ABH@Z
_TEXT	SEGMENT
___$ReturnUdt$ = 8					; size = 4
__Keyval$ = 12						; size = 4
??$_Find_lower_bound@H@?$_Tree@V?$_Tmap_traits@HU__SETLIST@CExchange@@U?$less@H@std@@V?$allocator@U?$pair@$$CBHU__SETLIST@CExchange@@@std@@@4@$0A@@std@@@std@@IBE?AU?$_Tree_find_result@PAU?$_Tree_node@U?$pair@$$CBHU__SETLIST@CExchange@@@std@@PAX@std@@@1@ABH@Z PROC ; std::_Tree<std::_Tmap_traits<int,CExchange::__SETLIST,std::less<int>,std::allocator<std::pair<int const ,CExchange::__SETLIST> >,0> >::_Find_lower_bound<int>, COMDAT
; _this$ = ecx

; 1628 :     _Tree_find_result<_Nodeptr> _Find_lower_bound(const _Keyty& _Keyval) const {

  00000	55		 push	 ebp
  00001	8b ec		 mov	 ebp, esp

; 1629 :         const auto _Scary = _Get_scary();
; 1630 :         _Tree_find_result<_Nodeptr> _Result{{_Scary->_Myhead->_Parent, _Tree_child::_Right}, _Scary->_Myhead};

  00003	8b 09		 mov	 ecx, DWORD PTR [ecx]
  00005	8b 55 08	 mov	 edx, DWORD PTR ___$ReturnUdt$[ebp]
  00008	8b 41 04	 mov	 eax, DWORD PTR [ecx+4]
  0000b	89 02		 mov	 DWORD PTR [edx], eax
  0000d	c7 42 04 00 00
	00 00		 mov	 DWORD PTR [edx+4], 0
  00014	89 4a 08	 mov	 DWORD PTR [edx+8], ecx

; 1631 :         _Nodeptr _Trynode = _Result._Location._Parent;
; 1632 :         while (!_Trynode->_Isnil) {

  00017	80 78 0d 00	 cmp	 BYTE PTR [eax+13], 0
  0001b	75 28		 jne	 SHORT $LN13@Find_lower
; File C:\Program Files\Microsoft Visual Studio\2022\Professional\VC\Tools\MSVC\14.44.35207\include\type_traits

; 2380 :         return _Left < _Right;

  0001d	8b 4d 0c	 mov	 ecx, DWORD PTR __Keyval$[ebp]
  00020	56		 push	 esi
  00021	8b 31		 mov	 esi, DWORD PTR [ecx]
$LL2@Find_lower:
; File C:\Program Files\Microsoft Visual Studio\2022\Professional\VC\Tools\MSVC\14.44.35207\include\xtree

; 1633 :             _Result._Location._Parent = _Trynode;

  00023	89 02		 mov	 DWORD PTR [edx], eax
; File C:\Program Files\Microsoft Visual Studio\2022\Professional\VC\Tools\MSVC\14.44.35207\include\type_traits

; 2380 :         return _Left < _Right;

  00025	39 70 10	 cmp	 DWORD PTR [eax+16], esi
; File C:\Program Files\Microsoft Visual Studio\2022\Professional\VC\Tools\MSVC\14.44.35207\include\xtree

; 1634 :             if (_DEBUG_LT_PRED(_Getcomp(), _Traits::_Kfn(_Trynode->_Myval), _Keyval)) {

  00028	7d 07		 jge	 SHORT $LN4@Find_lower

; 1635 :                 _Result._Location._Child = _Tree_child::_Right;
; 1636 :                 _Trynode                 = _Trynode->_Right;

  0002a	8b 40 08	 mov	 eax, DWORD PTR [eax+8]
  0002d	33 c9		 xor	 ecx, ecx

; 1637 :             } else {

  0002f	eb 0a		 jmp	 SHORT $LN5@Find_lower
$LN4@Find_lower:

; 1638 :                 _Result._Location._Child = _Tree_child::_Left;
; 1639 :                 _Result._Bound           = _Trynode;

  00031	89 42 08	 mov	 DWORD PTR [edx+8], eax

; 1640 :                 _Trynode                 = _Trynode->_Left;

  00034	b9 01 00 00 00	 mov	 ecx, 1
  00039	8b 00		 mov	 eax, DWORD PTR [eax]
$LN5@Find_lower:

; 1631 :         _Nodeptr _Trynode = _Result._Location._Parent;
; 1632 :         while (!_Trynode->_Isnil) {

  0003b	89 4a 04	 mov	 DWORD PTR [edx+4], ecx
  0003e	80 78 0d 00	 cmp	 BYTE PTR [eax+13], 0
  00042	74 df		 je	 SHORT $LL2@Find_lower
  00044	5e		 pop	 esi
$LN13@Find_lower:

; 1641 :             }
; 1642 :         }
; 1643 : 
; 1644 :         return _Result;
; 1645 :     }

  00045	8b c2		 mov	 eax, edx
  00047	5d		 pop	 ebp
  00048	c2 08 00	 ret	 8
??$_Find_lower_bound@H@?$_Tree@V?$_Tmap_traits@HU__SETLIST@CExchange@@U?$less@H@std@@V?$allocator@U?$pair@$$CBHU__SETLIST@CExchange@@@std@@@4@$0A@@std@@@std@@IBE?AU?$_Tree_find_result@PAU?$_Tree_node@U?$pair@$$CBHU__SETLIST@CExchange@@@std@@PAX@std@@@1@ABH@Z ENDP ; std::_Tree<std::_Tmap_traits<int,CExchange::__SETLIST,std::less<int>,std::allocator<std::pair<int const ,CExchange::__SETLIST> >,0> >::_Find_lower_bound<int>
_TEXT	ENDS
; Function compile flags: /Ogtp
; File C:\Program Files\Microsoft Visual Studio\2022\Professional\VC\Tools\MSVC\14.44.35207\include\vector
;	COMDAT ??1?$pair@$$CBHU__SETLIST@CExchange@@@std@@QAE@XZ
_TEXT	SEGMENT
??1?$pair@$$CBHU__SETLIST@CExchange@@@std@@QAE@XZ PROC	; std::pair<int const ,CExchange::__SETLIST>::~pair<int const ,CExchange::__SETLIST>, COMDAT
; _this$ = ecx

; 830  :         _Tidy();

  00000	56		 push	 esi
  00001	8d 71 04	 lea	 esi, DWORD PTR [ecx+4]
  00004	8d 4e 0c	 lea	 ecx, DWORD PTR [esi+12]
  00007	e8 00 00 00 00	 call	 ?_Tidy@?$vector@U__SET@CExchange@@V?$allocator@U__SET@CExchange@@@std@@@std@@AAEXXZ ; std::vector<CExchange::__SET,std::allocator<CExchange::__SET> >::_Tidy
  0000c	8b ce		 mov	 ecx, esi
  0000e	5e		 pop	 esi
  0000f	e9 00 00 00 00	 jmp	 ?_Tidy@?$vector@HV?$allocator@H@std@@@std@@AAEXXZ ; std::vector<int,std::allocator<int> >::_Tidy
??1?$pair@$$CBHU__SETLIST@CExchange@@@std@@QAE@XZ ENDP	; std::pair<int const ,CExchange::__SETLIST>::~pair<int const ,CExchange::__SETLIST>
_TEXT	ENDS
; Function compile flags: /Ogtp
; File C:\Program Files\Microsoft Visual Studio\2022\Professional\VC\Tools\MSVC\14.44.35207\include\xmemory
;	COMDAT ??$_Allocate_manually_vector_aligned@U_Default_allocate_traits@std@@@std@@YAPAXI@Z
_TEXT	SEGMENT
__Bytes$ = 8						; size = 4
??$_Allocate_manually_vector_aligned@U_Default_allocate_traits@std@@@std@@YAPAXI@Z PROC ; std::_Allocate_manually_vector_aligned<std::_Default_allocate_traits>, COMDAT

; 182  : __declspec(allocator) void* _Allocate_manually_vector_aligned(const size_t _Bytes) {

  00000	55		 push	 ebp
  00001	8b ec		 mov	 ebp, esp

; 183  :     // allocate _Bytes manually aligned to at least _Big_allocation_alignment
; 184  :     const size_t _Block_size = _Non_user_size + _Bytes;

  00003	8b 45 08	 mov	 eax, DWORD PTR __Bytes$[ebp]
  00006	8d 48 23	 lea	 ecx, DWORD PTR [eax+35]

; 185  :     if (_Block_size <= _Bytes) {

  00009	3b c8		 cmp	 ecx, eax
  0000b	0f 86 00 00 00
	00		 jbe	 ?_Throw_bad_array_new_length@std@@YAXXZ ; std::_Throw_bad_array_new_length

; 136  :         return ::operator new(_Bytes);

  00011	51		 push	 ecx
  00012	e8 00 00 00 00	 call	 ??2@YAPAXI@Z		; operator new

; 186  :         _Throw_bad_array_new_length(); // add overflow
; 187  :     }
; 188  : 
; 189  :     const uintptr_t _Ptr_container = reinterpret_cast<uintptr_t>(_Traits::_Allocate(_Block_size));

  00017	8b c8		 mov	 ecx, eax

; 136  :         return ::operator new(_Bytes);

  00019	83 c4 04	 add	 esp, 4

; 190  :     _STL_VERIFY(_Ptr_container != 0, "invalid argument"); // validate even in release since we're doing p[-1]

  0001c	85 c9		 test	 ecx, ecx
  0001e	74 0b		 je	 SHORT $LN9@Allocate_m

; 191  :     void* const _Ptr = reinterpret_cast<void*>((_Ptr_container + _Non_user_size) & ~(_Big_allocation_alignment - 1));

  00020	8d 41 23	 lea	 eax, DWORD PTR [ecx+35]
  00023	83 e0 e0	 and	 eax, -32		; ffffffe0H

; 192  :     static_cast<uintptr_t*>(_Ptr)[-1] = _Ptr_container;

  00026	89 48 fc	 mov	 DWORD PTR [eax-4], ecx

; 193  : 
; 194  : #ifdef _DEBUG
; 195  :     static_cast<uintptr_t*>(_Ptr)[-2] = _Big_allocation_sentinel;
; 196  : #endif // defined(_DEBUG)
; 197  :     return _Ptr;
; 198  : }

  00029	5d		 pop	 ebp
  0002a	c3		 ret	 0
$LN9@Allocate_m:

; 190  :     _STL_VERIFY(_Ptr_container != 0, "invalid argument"); // validate even in release since we're doing p[-1]

  0002b	6a 00		 push	 0
  0002d	6a 00		 push	 0
  0002f	6a 00		 push	 0
  00031	6a 00		 push	 0
  00033	6a 00		 push	 0
  00035	e8 00 00 00 00	 call	 __invoke_watson
$LN7@Allocate_m:
  0003a	cc		 int	 3
??$_Allocate_manually_vector_aligned@U_Default_allocate_traits@std@@@std@@YAPAXI@Z ENDP ; std::_Allocate_manually_vector_aligned<std::_Default_allocate_traits>
_TEXT	ENDS
; Function compile flags: /Ogtp
; File C:\IAGOS\server\v18\Source\Source\_Common\Item.h
;	COMDAT ?GetAtId@?$CItemContainer@VCItemElem@@@@QAEPAVCItemElem@@K@Z
_TEXT	SEGMENT
_dwId$ = 8						; size = 4
?GetAtId@?$CItemContainer@VCItemElem@@@@QAEPAVCItemElem@@K@Z PROC ; CItemContainer<CItemElem>::GetAtId, COMDAT
; _this$ = ecx

; 518  : {

  00000	55		 push	 ebp
  00001	8b ec		 mov	 ebp, esp

; 519  : 	if( dwId >= (DWORD)( GetMax() ) ) return NULL;

  00003	8b 45 08	 mov	 eax, DWORD PTR _dwId$[ebp]
  00006	3b 41 0c	 cmp	 eax, DWORD PTR [ecx+12]
  00009	73 15		 jae	 SHORT $LN7@GetAtId

; 520  : 	T* pItemElem = &m_apItem[ dwId ];

  0000b	69 c0 b0 00 00
	00		 imul	 eax, eax, 176
  00011	03 41 10	 add	 eax, DWORD PTR [ecx+16]

; 50   : 	BOOL			IsEmpty() { return m_dwItemId ? FALSE : TRUE; }

  00014	33 c9		 xor	 ecx, ecx
  00016	39 48 0c	 cmp	 DWORD PTR [eax+12], ecx
  00019	0f 44 c1	 cmove	 eax, ecx

; 523  : 	return pItemElem;
; 524  : }

  0001c	5d		 pop	 ebp
  0001d	c2 04 00	 ret	 4
$LN7@GetAtId:

; 521  : 	if( pItemElem->IsEmpty() ) 
; 522  : 		return NULL;

  00020	33 c0		 xor	 eax, eax

; 523  : 	return pItemElem;
; 524  : }

  00022	5d		 pop	 ebp
  00023	c2 04 00	 ret	 4
?GetAtId@?$CItemContainer@VCItemElem@@@@QAEPAVCItemElem@@K@Z ENDP ; CItemContainer<CItemElem>::GetAtId
_TEXT	ENDS
; Function compile flags: /Ogtp
;	COMDAT ??_GCExchange@@UAEPAXI@Z
_TEXT	SEGMENT
___flags$ = 8						; size = 4
??_GCExchange@@UAEPAXI@Z PROC				; CExchange::`scalar deleting destructor', COMDAT
; _this$ = ecx
  00000	55		 push	 ebp
  00001	8b ec		 mov	 ebp, esp
  00003	56		 push	 esi
  00004	8b f1		 mov	 esi, ecx
  00006	e8 00 00 00 00	 call	 ??1CExchange@@UAE@XZ	; CExchange::~CExchange
  0000b	f6 45 08 01	 test	 BYTE PTR ___flags$[ebp], 1
  0000f	74 0b		 je	 SHORT $LN5@scalar
  00011	6a 0c		 push	 12			; 0000000cH
  00013	56		 push	 esi
  00014	e8 00 00 00 00	 call	 ??3@YAXPAXI@Z		; operator delete
  00019	83 c4 08	 add	 esp, 8
$LN5@scalar:
  0001c	8b c6		 mov	 eax, esi
  0001e	5e		 pop	 esi
  0001f	5d		 pop	 ebp
  00020	c2 04 00	 ret	 4
??_GCExchange@@UAEPAXI@Z ENDP				; CExchange::`scalar deleting destructor'
_TEXT	ENDS
; Function compile flags: /Ogtp
; File C:\Program Files\Microsoft Visual Studio\2022\Professional\VC\Tools\MSVC\14.44.35207\include\xtree
;	COMDAT ?_Insert_node@?$_Tree_val@U?$_Tree_simple_types@U?$pair@$$CBHU__SETLIST@CExchange@@@std@@@std@@@std@@QAEPAU?$_Tree_node@U?$pair@$$CBHU__SETLIST@CExchange@@@std@@PAX@2@U?$_Tree_id@PAU?$_Tree_node@U?$pair@$$CBHU__SETLIST@CExchange@@@std@@PAX@std@@@2@QAU32@@Z
_TEXT	SEGMENT
__Head$1$ = -4						; size = 4
__Loc$ = 8						; size = 8
__Newnode$ = 16						; size = 4
?_Insert_node@?$_Tree_val@U?$_Tree_simple_types@U?$pair@$$CBHU__SETLIST@CExchange@@@std@@@std@@@std@@QAEPAU?$_Tree_node@U?$pair@$$CBHU__SETLIST@CExchange@@@std@@PAX@2@U?$_Tree_id@PAU?$_Tree_node@U?$pair@$$CBHU__SETLIST@CExchange@@@std@@PAX@std@@@2@QAU32@@Z PROC ; std::_Tree_val<std::_Tree_simple_types<std::pair<int const ,CExchange::__SETLIST> > >::_Insert_node, COMDAT
; _this$ = ecx

; 669  :     _Nodeptr _Insert_node(const _Tree_id<_Nodeptr> _Loc, const _Nodeptr _Newnode) noexcept {

  00000	55		 push	 ebp
  00001	8b ec		 mov	 ebp, esp
  00003	51		 push	 ecx

; 670  :         ++_Mysize;
; 671  :         const auto _Head  = _Myhead;
; 672  :         _Newnode->_Parent = _Loc._Parent;

  00004	8b 55 08	 mov	 edx, DWORD PTR __Loc$[ebp]
  00007	53		 push	 ebx
  00008	8b d9		 mov	 ebx, ecx
  0000a	57		 push	 edi
  0000b	8b 7d 10	 mov	 edi, DWORD PTR __Newnode$[ebp]
  0000e	8b 03		 mov	 eax, DWORD PTR [ebx]
  00010	ff 43 04	 inc	 DWORD PTR [ebx+4]
  00013	89 45 fc	 mov	 DWORD PTR __Head$1$[ebp], eax
  00016	89 57 04	 mov	 DWORD PTR [edi+4], edx

; 673  :         if (_Loc._Parent == _Head) { // first node in tree, just set head values

  00019	3b d0		 cmp	 edx, eax
  0001b	75 16		 jne	 SHORT $LN5@Insert_nod

; 674  :             _Head->_Left     = _Newnode;

  0001d	89 38		 mov	 DWORD PTR [eax], edi

; 675  :             _Head->_Parent   = _Newnode;

  0001f	89 78 04	 mov	 DWORD PTR [eax+4], edi

; 676  :             _Head->_Right    = _Newnode;

  00022	89 78 08	 mov	 DWORD PTR [eax+8], edi

; 735  :         return _Newnode;
; 736  :     }

  00025	8b c7		 mov	 eax, edi
  00027	c6 47 0c 01	 mov	 BYTE PTR [edi+12], 1
  0002b	5f		 pop	 edi
  0002c	5b		 pop	 ebx
  0002d	8b e5		 mov	 esp, ebp
  0002f	5d		 pop	 ebp
  00030	c2 0c 00	 ret	 12			; 0000000cH
$LN5@Insert_nod:

; 677  :             _Newnode->_Color = _Black; // the root is black
; 678  :             return _Newnode;
; 679  :         }
; 680  : 
; 681  :         _STL_INTERNAL_CHECK(_Loc._Child != _Tree_child::_Unused);
; 682  :         if (_Loc._Child == _Tree_child::_Right) { // add to right of _Loc._Parent

  00033	83 7d 0c 00	 cmp	 DWORD PTR __Loc$[ebp+4], 0
  00037	75 0d		 jne	 SHORT $LN6@Insert_nod

; 683  :             _STL_INTERNAL_CHECK(_Loc._Parent->_Right->_Isnil);
; 684  :             _Loc._Parent->_Right = _Newnode;

  00039	89 7a 08	 mov	 DWORD PTR [edx+8], edi

; 685  :             if (_Loc._Parent == _Head->_Right) { // remember rightmost node

  0003c	3b 50 08	 cmp	 edx, DWORD PTR [eax+8]
  0003f	75 0d		 jne	 SHORT $LN9@Insert_nod

; 686  :                 _Head->_Right = _Newnode;

  00041	89 78 08	 mov	 DWORD PTR [eax+8], edi

; 687  :             }
; 688  :         } else { // add to left of _Loc._Parent

  00044	eb 08		 jmp	 SHORT $LN9@Insert_nod
$LN6@Insert_nod:

; 689  :             _STL_INTERNAL_CHECK(_Loc._Parent->_Left->_Isnil);
; 690  :             _Loc._Parent->_Left = _Newnode;

  00046	89 3a		 mov	 DWORD PTR [edx], edi

; 691  :             if (_Loc._Parent == _Head->_Left) { // remember leftmost node

  00048	3b 10		 cmp	 edx, DWORD PTR [eax]
  0004a	75 02		 jne	 SHORT $LN9@Insert_nod

; 692  :                 _Head->_Left = _Newnode;

  0004c	89 38		 mov	 DWORD PTR [eax], edi
$LN9@Insert_nod:

; 693  :             }
; 694  :         }
; 695  : 
; 696  :         for (_Nodeptr _Pnode = _Newnode; _Pnode->_Parent->_Color == _Red;) {

  0004e	8b 4f 04	 mov	 ecx, DWORD PTR [edi+4]
  00051	8b c7		 mov	 eax, edi
  00053	80 79 0c 00	 cmp	 BYTE PTR [ecx+12], 0
  00057	0f 85 7d 01 00
	00		 jne	 $LN3@Insert_nod
  0005d	56		 push	 esi
  0005e	66 90		 npad	 2
$LL4@Insert_nod:

; 697  :             if (_Pnode->_Parent == _Pnode->_Parent->_Parent->_Left) { // fixup red-red in left subtree

  00060	8b 50 04	 mov	 edx, DWORD PTR [eax+4]
  00063	8b 72 04	 mov	 esi, DWORD PTR [edx+4]
  00066	8b 0e		 mov	 ecx, DWORD PTR [esi]
  00068	3b d1		 cmp	 edx, ecx
  0006a	0f 85 aa 00 00
	00		 jne	 $LN10@Insert_nod

; 698  :                 const auto _Parent_sibling = _Pnode->_Parent->_Parent->_Right;

  00070	8b 4e 08	 mov	 ecx, DWORD PTR [esi+8]

; 699  :                 if (_Parent_sibling->_Color == _Red) { // parent's sibling has two red children, blacken both

  00073	80 79 0c 00	 cmp	 BYTE PTR [ecx+12], 0
  00077	0f 84 a3 00 00
	00		 je	 $LN82@Insert_nod

; 700  :                     _Pnode->_Parent->_Color          = _Black;
; 701  :                     _Parent_sibling->_Color          = _Black;
; 702  :                     _Pnode->_Parent->_Parent->_Color = _Red;
; 703  :                     _Pnode                           = _Pnode->_Parent->_Parent;
; 704  :                 } else { // parent's sibling has red and black children
; 705  :                     if (_Pnode == _Pnode->_Parent->_Right) { // rotate right child to left

  0007d	8b 72 08	 mov	 esi, DWORD PTR [edx+8]
  00080	3b c6		 cmp	 eax, esi
  00082	75 37		 jne	 SHORT $LN57@Insert_nod

; 485  :         _Wherenode->_Right = _Pnode->_Left;

  00084	8b 0e		 mov	 ecx, DWORD PTR [esi]

; 706  :                         _Pnode = _Pnode->_Parent;

  00086	8b c2		 mov	 eax, edx

; 485  :         _Wherenode->_Right = _Pnode->_Left;

  00088	89 4a 08	 mov	 DWORD PTR [edx+8], ecx

; 486  : 
; 487  :         if (!_Pnode->_Left->_Isnil) {

  0008b	8b 0e		 mov	 ecx, DWORD PTR [esi]
  0008d	80 79 0d 00	 cmp	 BYTE PTR [ecx+13], 0
  00091	75 03		 jne	 SHORT $LN21@Insert_nod

; 488  :             _Pnode->_Left->_Parent = _Wherenode;

  00093	89 41 04	 mov	 DWORD PTR [ecx+4], eax
$LN21@Insert_nod:

; 489  :         }
; 490  : 
; 491  :         _Pnode->_Parent = _Wherenode->_Parent;

  00096	8b 4a 04	 mov	 ecx, DWORD PTR [edx+4]
  00099	89 4e 04	 mov	 DWORD PTR [esi+4], ecx

; 492  : 
; 493  :         if (_Wherenode == _Myhead->_Parent) {

  0009c	8b 0b		 mov	 ecx, DWORD PTR [ebx]
  0009e	3b 41 04	 cmp	 eax, DWORD PTR [ecx+4]
  000a1	75 05		 jne	 SHORT $LN22@Insert_nod

; 494  :             _Myhead->_Parent = _Pnode;

  000a3	89 71 04	 mov	 DWORD PTR [ecx+4], esi
  000a6	eb 0e		 jmp	 SHORT $LN25@Insert_nod
$LN22@Insert_nod:

; 495  :         } else if (_Wherenode == _Wherenode->_Parent->_Left) {

  000a8	8b 4a 04	 mov	 ecx, DWORD PTR [edx+4]
  000ab	3b 01		 cmp	 eax, DWORD PTR [ecx]
  000ad	75 04		 jne	 SHORT $LN24@Insert_nod

; 496  :             _Wherenode->_Parent->_Left = _Pnode;

  000af	89 31		 mov	 DWORD PTR [ecx], esi

; 497  :         } else {

  000b1	eb 03		 jmp	 SHORT $LN25@Insert_nod
$LN24@Insert_nod:

; 498  :             _Wherenode->_Parent->_Right = _Pnode;

  000b3	89 71 08	 mov	 DWORD PTR [ecx+8], esi
$LN25@Insert_nod:

; 499  :         }
; 500  : 
; 501  :         _Pnode->_Left       = _Wherenode;

  000b6	89 06		 mov	 DWORD PTR [esi], eax

; 502  :         _Wherenode->_Parent = _Pnode;

  000b8	89 70 04	 mov	 DWORD PTR [eax+4], esi
$LN57@Insert_nod:

; 707  :                         _Lrotate(_Pnode);
; 708  :                     }
; 709  : 
; 710  :                     _Pnode->_Parent->_Color          = _Black; // propagate red up

  000bb	8b 48 04	 mov	 ecx, DWORD PTR [eax+4]
  000be	c6 41 0c 01	 mov	 BYTE PTR [ecx+12], 1

; 711  :                     _Pnode->_Parent->_Parent->_Color = _Red;

  000c2	8b 48 04	 mov	 ecx, DWORD PTR [eax+4]
  000c5	8b 49 04	 mov	 ecx, DWORD PTR [ecx+4]
  000c8	c6 41 0c 00	 mov	 BYTE PTR [ecx+12], 0

; 712  :                     _Rrotate(_Pnode->_Parent->_Parent);

  000cc	8b 48 04	 mov	 ecx, DWORD PTR [eax+4]
  000cf	8b 51 04	 mov	 edx, DWORD PTR [ecx+4]

; 506  :         _Nodeptr _Pnode   = _Wherenode->_Left;

  000d2	8b 32		 mov	 esi, DWORD PTR [edx]

; 507  :         _Wherenode->_Left = _Pnode->_Right;

  000d4	8b 4e 08	 mov	 ecx, DWORD PTR [esi+8]
  000d7	89 0a		 mov	 DWORD PTR [edx], ecx

; 508  : 
; 509  :         if (!_Pnode->_Right->_Isnil) {

  000d9	8b 4e 08	 mov	 ecx, DWORD PTR [esi+8]
  000dc	80 79 0d 00	 cmp	 BYTE PTR [ecx+13], 0
  000e0	75 03		 jne	 SHORT $LN29@Insert_nod

; 510  :             _Pnode->_Right->_Parent = _Wherenode;

  000e2	89 51 04	 mov	 DWORD PTR [ecx+4], edx
$LN29@Insert_nod:

; 511  :         }
; 512  : 
; 513  :         _Pnode->_Parent = _Wherenode->_Parent;

  000e5	8b 4a 04	 mov	 ecx, DWORD PTR [edx+4]
  000e8	89 4e 04	 mov	 DWORD PTR [esi+4], ecx

; 514  : 
; 515  :         if (_Wherenode == _Myhead->_Parent) {

  000eb	8b 0b		 mov	 ecx, DWORD PTR [ebx]
  000ed	3b 51 04	 cmp	 edx, DWORD PTR [ecx+4]
  000f0	75 0b		 jne	 SHORT $LN30@Insert_nod

; 516  :             _Myhead->_Parent = _Pnode;

  000f2	89 71 04	 mov	 DWORD PTR [ecx+4], esi

; 521  :         }
; 522  : 
; 523  :         _Pnode->_Right      = _Wherenode;

  000f5	89 56 08	 mov	 DWORD PTR [esi+8], edx

; 713  :                 }
; 714  :             } else { // fixup red-red in right subtree

  000f8	e9 cc 00 00 00	 jmp	 $LN81@Insert_nod
$LN30@Insert_nod:

; 517  :         } else if (_Wherenode == _Wherenode->_Parent->_Right) {

  000fd	8b 4a 04	 mov	 ecx, DWORD PTR [edx+4]
  00100	3b 51 08	 cmp	 edx, DWORD PTR [ecx+8]
  00103	75 0b		 jne	 SHORT $LN32@Insert_nod

; 518  :             _Wherenode->_Parent->_Right = _Pnode;

  00105	89 71 08	 mov	 DWORD PTR [ecx+8], esi

; 521  :         }
; 522  : 
; 523  :         _Pnode->_Right      = _Wherenode;

  00108	89 56 08	 mov	 DWORD PTR [esi+8], edx

; 713  :                 }
; 714  :             } else { // fixup red-red in right subtree

  0010b	e9 b9 00 00 00	 jmp	 $LN81@Insert_nod
$LN32@Insert_nod:

; 520  :             _Wherenode->_Parent->_Left = _Pnode;

  00110	89 31		 mov	 DWORD PTR [ecx], esi

; 521  :         }
; 522  : 
; 523  :         _Pnode->_Right      = _Wherenode;

  00112	89 56 08	 mov	 DWORD PTR [esi+8], edx

; 713  :                 }
; 714  :             } else { // fixup red-red in right subtree

  00115	e9 af 00 00 00	 jmp	 $LN81@Insert_nod
$LN10@Insert_nod:

; 715  :                 const auto _Parent_sibling = _Pnode->_Parent->_Parent->_Left;
; 716  :                 if (_Parent_sibling->_Color == _Red) { // parent's sibling has two red children, blacken both

  0011a	80 79 0c 00	 cmp	 BYTE PTR [ecx+12], 0
  0011e	75 1d		 jne	 SHORT $LN15@Insert_nod
$LN82@Insert_nod:

; 693  :             }
; 694  :         }
; 695  : 
; 696  :         for (_Nodeptr _Pnode = _Newnode; _Pnode->_Parent->_Color == _Red;) {

  00120	c6 42 0c 01	 mov	 BYTE PTR [edx+12], 1
  00124	c6 41 0c 01	 mov	 BYTE PTR [ecx+12], 1
  00128	8b 48 04	 mov	 ecx, DWORD PTR [eax+4]
  0012b	8b 49 04	 mov	 ecx, DWORD PTR [ecx+4]
  0012e	c6 41 0c 00	 mov	 BYTE PTR [ecx+12], 0
  00132	8b 48 04	 mov	 ecx, DWORD PTR [eax+4]
  00135	8b 41 04	 mov	 eax, DWORD PTR [ecx+4]
  00138	e9 8f 00 00 00	 jmp	 $LN2@Insert_nod
$LN15@Insert_nod:

; 717  :                     _Pnode->_Parent->_Color          = _Black;
; 718  :                     _Parent_sibling->_Color          = _Black;
; 719  :                     _Pnode->_Parent->_Parent->_Color = _Red;
; 720  :                     _Pnode                           = _Pnode->_Parent->_Parent;
; 721  :                 } else { // parent's sibling has red and black children
; 722  :                     if (_Pnode == _Pnode->_Parent->_Left) { // rotate left child to right

  0013d	8b 32		 mov	 esi, DWORD PTR [edx]
  0013f	3b c6		 cmp	 eax, esi
  00141	75 3a		 jne	 SHORT $LN42@Insert_nod

; 507  :         _Wherenode->_Left = _Pnode->_Right;

  00143	8b 4e 08	 mov	 ecx, DWORD PTR [esi+8]

; 723  :                         _Pnode = _Pnode->_Parent;

  00146	8b c2		 mov	 eax, edx

; 507  :         _Wherenode->_Left = _Pnode->_Right;

  00148	89 08		 mov	 DWORD PTR [eax], ecx

; 508  : 
; 509  :         if (!_Pnode->_Right->_Isnil) {

  0014a	8b 4e 08	 mov	 ecx, DWORD PTR [esi+8]
  0014d	80 79 0d 00	 cmp	 BYTE PTR [ecx+13], 0
  00151	75 03		 jne	 SHORT $LN37@Insert_nod

; 510  :             _Pnode->_Right->_Parent = _Wherenode;

  00153	89 41 04	 mov	 DWORD PTR [ecx+4], eax
$LN37@Insert_nod:

; 511  :         }
; 512  : 
; 513  :         _Pnode->_Parent = _Wherenode->_Parent;

  00156	8b 4a 04	 mov	 ecx, DWORD PTR [edx+4]
  00159	89 4e 04	 mov	 DWORD PTR [esi+4], ecx

; 514  : 
; 515  :         if (_Wherenode == _Myhead->_Parent) {

  0015c	8b 0b		 mov	 ecx, DWORD PTR [ebx]
  0015e	3b 41 04	 cmp	 eax, DWORD PTR [ecx+4]
  00161	75 05		 jne	 SHORT $LN38@Insert_nod

; 516  :             _Myhead->_Parent = _Pnode;

  00163	89 71 04	 mov	 DWORD PTR [ecx+4], esi
  00166	eb 0f		 jmp	 SHORT $LN41@Insert_nod
$LN38@Insert_nod:

; 517  :         } else if (_Wherenode == _Wherenode->_Parent->_Right) {

  00168	8b 4a 04	 mov	 ecx, DWORD PTR [edx+4]
  0016b	3b 41 08	 cmp	 eax, DWORD PTR [ecx+8]
  0016e	75 05		 jne	 SHORT $LN40@Insert_nod

; 518  :             _Wherenode->_Parent->_Right = _Pnode;

  00170	89 71 08	 mov	 DWORD PTR [ecx+8], esi

; 519  :         } else {

  00173	eb 02		 jmp	 SHORT $LN41@Insert_nod
$LN40@Insert_nod:

; 520  :             _Wherenode->_Parent->_Left = _Pnode;

  00175	89 31		 mov	 DWORD PTR [ecx], esi
$LN41@Insert_nod:

; 521  :         }
; 522  : 
; 523  :         _Pnode->_Right      = _Wherenode;

  00177	89 46 08	 mov	 DWORD PTR [esi+8], eax

; 524  :         _Wherenode->_Parent = _Pnode;

  0017a	89 70 04	 mov	 DWORD PTR [eax+4], esi
$LN42@Insert_nod:

; 724  :                         _Rrotate(_Pnode);
; 725  :                     }
; 726  : 
; 727  :                     _Pnode->_Parent->_Color          = _Black; // propagate red up

  0017d	8b 48 04	 mov	 ecx, DWORD PTR [eax+4]
  00180	c6 41 0c 01	 mov	 BYTE PTR [ecx+12], 1

; 728  :                     _Pnode->_Parent->_Parent->_Color = _Red;

  00184	8b 48 04	 mov	 ecx, DWORD PTR [eax+4]
  00187	8b 49 04	 mov	 ecx, DWORD PTR [ecx+4]
  0018a	c6 41 0c 00	 mov	 BYTE PTR [ecx+12], 0

; 729  :                     _Lrotate(_Pnode->_Parent->_Parent);

  0018e	8b 48 04	 mov	 ecx, DWORD PTR [eax+4]
  00191	8b 51 04	 mov	 edx, DWORD PTR [ecx+4]

; 484  :         _Nodeptr _Pnode    = _Wherenode->_Right;

  00194	8b 72 08	 mov	 esi, DWORD PTR [edx+8]

; 485  :         _Wherenode->_Right = _Pnode->_Left;

  00197	8b 0e		 mov	 ecx, DWORD PTR [esi]
  00199	89 4a 08	 mov	 DWORD PTR [edx+8], ecx

; 486  : 
; 487  :         if (!_Pnode->_Left->_Isnil) {

  0019c	8b 0e		 mov	 ecx, DWORD PTR [esi]
  0019e	80 79 0d 00	 cmp	 BYTE PTR [ecx+13], 0
  001a2	75 03		 jne	 SHORT $LN45@Insert_nod

; 488  :             _Pnode->_Left->_Parent = _Wherenode;

  001a4	89 51 04	 mov	 DWORD PTR [ecx+4], edx
$LN45@Insert_nod:

; 489  :         }
; 490  : 
; 491  :         _Pnode->_Parent = _Wherenode->_Parent;

  001a7	8b 4a 04	 mov	 ecx, DWORD PTR [edx+4]
  001aa	89 4e 04	 mov	 DWORD PTR [esi+4], ecx

; 492  : 
; 493  :         if (_Wherenode == _Myhead->_Parent) {

  001ad	8b 0b		 mov	 ecx, DWORD PTR [ebx]
  001af	3b 51 04	 cmp	 edx, DWORD PTR [ecx+4]
  001b2	75 05		 jne	 SHORT $LN46@Insert_nod

; 494  :             _Myhead->_Parent = _Pnode;

  001b4	89 71 04	 mov	 DWORD PTR [ecx+4], esi
  001b7	eb 0e		 jmp	 SHORT $LN49@Insert_nod
$LN46@Insert_nod:

; 495  :         } else if (_Wherenode == _Wherenode->_Parent->_Left) {

  001b9	8b 4a 04	 mov	 ecx, DWORD PTR [edx+4]
  001bc	3b 11		 cmp	 edx, DWORD PTR [ecx]
  001be	75 04		 jne	 SHORT $LN48@Insert_nod

; 496  :             _Wherenode->_Parent->_Left = _Pnode;

  001c0	89 31		 mov	 DWORD PTR [ecx], esi

; 497  :         } else {

  001c2	eb 03		 jmp	 SHORT $LN49@Insert_nod
$LN48@Insert_nod:

; 498  :             _Wherenode->_Parent->_Right = _Pnode;

  001c4	89 71 08	 mov	 DWORD PTR [ecx+8], esi
$LN49@Insert_nod:

; 499  :         }
; 500  : 
; 501  :         _Pnode->_Left       = _Wherenode;

  001c7	89 16		 mov	 DWORD PTR [esi], edx
$LN81@Insert_nod:

; 693  :             }
; 694  :         }
; 695  : 
; 696  :         for (_Nodeptr _Pnode = _Newnode; _Pnode->_Parent->_Color == _Red;) {

  001c9	89 72 04	 mov	 DWORD PTR [edx+4], esi
$LN2@Insert_nod:
  001cc	8b 48 04	 mov	 ecx, DWORD PTR [eax+4]
  001cf	80 79 0c 00	 cmp	 BYTE PTR [ecx+12], 0
  001d3	0f 84 87 fe ff
	ff		 je	 $LL4@Insert_nod
  001d9	5e		 pop	 esi
$LN3@Insert_nod:

; 730  :                 }
; 731  :             }
; 732  :         }
; 733  : 
; 734  :         _Head->_Parent->_Color = _Black; // root is always black

  001da	8b 45 fc	 mov	 eax, DWORD PTR __Head$1$[ebp]
  001dd	8b 40 04	 mov	 eax, DWORD PTR [eax+4]
  001e0	c6 40 0c 01	 mov	 BYTE PTR [eax+12], 1

; 735  :         return _Newnode;
; 736  :     }

  001e4	8b c7		 mov	 eax, edi
  001e6	5f		 pop	 edi
  001e7	5b		 pop	 ebx
  001e8	8b e5		 mov	 esp, ebp
  001ea	5d		 pop	 ebp
  001eb	c2 0c 00	 ret	 12			; 0000000cH
?_Insert_node@?$_Tree_val@U?$_Tree_simple_types@U?$pair@$$CBHU__SETLIST@CExchange@@@std@@@std@@@std@@QAEPAU?$_Tree_node@U?$pair@$$CBHU__SETLIST@CExchange@@@std@@PAX@2@U?$_Tree_id@PAU?$_Tree_node@U?$pair@$$CBHU__SETLIST@CExchange@@@std@@PAX@std@@@2@QAU32@@Z ENDP ; std::_Tree_val<std::_Tree_simple_types<std::pair<int const ,CExchange::__SETLIST> > >::_Insert_node
_TEXT	ENDS
; Function compile flags: /Ogtp
; File C:\IAGOS\server\v18\Source\Source\_Common\Exchange.cpp
; File C:\Program Files\Microsoft Visual Studio\2022\Professional\VC\Tools\MSVC\14.44.35207\include\vector
; File C:\IAGOS\server\v18\Source\Source\_Common\Exchange.cpp
; File C:\Program Files\Microsoft Visual Studio\2022\Professional\VC\Tools\MSVC\14.44.35207\include\vector
; File C:\IAGOS\server\v18\Source\Source\_Common\Exchange.cpp
; File C:\Program Files\Microsoft Visual Studio\2022\Professional\VC\Tools\MSVC\14.44.35207\include\vector
; File C:\IAGOS\server\v18\Source\Source\_Common\Exchange.cpp
; File C:\Program Files\Microsoft Visual Studio\2022\Professional\VC\Tools\MSVC\14.44.35207\include\vector
; File C:\IAGOS\server\v18\Source\Source\_Common\Exchange.cpp
; File C:\Program Files\Microsoft Visual Studio\2022\Professional\VC\Tools\MSVC\14.44.35207\include\vector
; File C:\Program Files\Microsoft Visual Studio\2022\Professional\VC\Tools\MSVC\14.44.35207\include\xmemory
; File C:\Program Files\Microsoft Visual Studio\2022\Professional\VC\Tools\MSVC\14.44.35207\include\vector
; File C:\Program Files\Microsoft Visual Studio\2022\Professional\VC\Tools\MSVC\14.44.35207\include\xutility
; File C:\Program Files\Microsoft Visual Studio\2022\Professional\VC\Tools\MSVC\14.44.35207\include\vector
; File C:\IAGOS\server\v18\Source\Source\_Common\Exchange.cpp
; File C:\Program Files\Microsoft Visual Studio\2022\Professional\VC\Tools\MSVC\14.44.35207\include\vector
; File C:\IAGOS\server\v18\Source\Source\_Common\Exchange.cpp
;	COMDAT ?GetRemovePointList@CExchange@@QAE?AV?$vector@U__POINT@CExchange@@V?$allocator@U__POINT@CExchange@@@std@@@std@@HH@Z
_TEXT	SEGMENT
$T2 = -16						; size = 4
__$EHRec$ = -12						; size = 12
___$ReturnUdt$ = 8					; size = 4
_nMMIId$ = 12						; size = 4
__First$1$ = 12						; size = 4
_nListNum$ = 16						; size = 4
?GetRemovePointList@CExchange@@QAE?AV?$vector@U__POINT@CExchange@@V?$allocator@U__POINT@CExchange@@@std@@@std@@HH@Z PROC ; CExchange::GetRemovePointList, COMDAT
; _this$ = ecx

; 374  : {

  00000	55		 push	 ebp
  00001	8b ec		 mov	 ebp, esp
  00003	6a ff		 push	 -1
  00005	68 00 00 00 00	 push	 __ehhandler$?GetRemovePointList@CExchange@@QAE?AV?$vector@U__POINT@CExchange@@V?$allocator@U__POINT@CExchange@@@std@@@std@@HH@Z
  0000a	64 a1 00 00 00
	00		 mov	 eax, DWORD PTR fs:0
  00010	50		 push	 eax
  00011	51		 push	 ecx
  00012	53		 push	 ebx
  00013	56		 push	 esi
  00014	57		 push	 edi
  00015	a1 00 00 00 00	 mov	 eax, DWORD PTR ___security_cookie
  0001a	33 c5		 xor	 eax, ebp
  0001c	50		 push	 eax
  0001d	8d 45 f4	 lea	 eax, DWORD PTR __$EHRec$[ebp]
  00020	64 a3 00 00 00
	00		 mov	 DWORD PTR fs:0, eax
  00026	c7 45 f0 01 00
	00 00		 mov	 DWORD PTR $T2[ebp], 1
; File C:\Program Files\Microsoft Visual Studio\2022\Professional\VC\Tools\MSVC\14.44.35207\include\vector

; 400  :     _CONSTEXPR20 _Vector_val() noexcept : _Myfirst(), _Mylast(), _Myend() {}

  0002d	8b 5d 08	 mov	 ebx, DWORD PTR ___$ReturnUdt$[ebp]
  00030	c7 03 00 00 00
	00		 mov	 DWORD PTR [ebx], 0
  00036	c7 43 04 00 00
	00 00		 mov	 DWORD PTR [ebx+4], 0
  0003d	c7 43 08 00 00
	00 00		 mov	 DWORD PTR [ebx+8], 0
; File C:\IAGOS\server\v18\Source\Source\_Common\Exchange.cpp

; 376  : 	PSETLIST pSetList = FindExchange( nMMIId );

  00044	ff 75 0c	 push	 DWORD PTR _nMMIId$[ebp]
  00047	c7 45 fc 00 00
	00 00		 mov	 DWORD PTR __$EHRec$[ebp+8], 0
  0004e	c7 45 f0 01 00
	00 00		 mov	 DWORD PTR $T2[ebp], 1
  00055	e8 00 00 00 00	 call	 ?FindExchange@CExchange@@QAEPAU__SETLIST@1@H@Z ; CExchange::FindExchange

; 377  : 	if( !pSetList )

  0005a	85 c0		 test	 eax, eax
  0005c	74 7b		 je	 SHORT $LN79@GetRemoveP
; File C:\Program Files\Microsoft Visual Studio\2022\Professional\VC\Tools\MSVC\14.44.35207\include\vector

; 1915 :         return static_cast<size_type>(_My_data._Mylast - _My_data._Myfirst);

  0005e	8b 48 10	 mov	 ecx, DWORD PTR [eax+16]
  00061	8b 70 0c	 mov	 esi, DWORD PTR [eax+12]
  00064	2b ce		 sub	 ecx, esi
  00066	b8 67 66 66 66	 mov	 eax, 1717986919		; 66666667H
  0006b	f7 e9		 imul	 ecx
; File C:\IAGOS\server\v18\Source\Source\_Common\Exchange.cpp

; 380  : 	if( nListNum > (int)( pSetList->vecSet.size()-1 ) )

  0006d	8b 4d 10	 mov	 ecx, DWORD PTR _nListNum$[ebp]
; File C:\Program Files\Microsoft Visual Studio\2022\Professional\VC\Tools\MSVC\14.44.35207\include\vector

; 1915 :         return static_cast<size_type>(_My_data._Mylast - _My_data._Myfirst);

  00070	c1 fa 05	 sar	 edx, 5
  00073	8b c2		 mov	 eax, edx
  00075	c1 e8 1f	 shr	 eax, 31			; 0000001fH
; File C:\IAGOS\server\v18\Source\Source\_Common\Exchange.cpp

; 380  : 	if( nListNum > (int)( pSetList->vecSet.size()-1 ) )

  00078	48		 dec	 eax
  00079	03 c2		 add	 eax, edx
  0007b	3b c8		 cmp	 ecx, eax
  0007d	7f 5a		 jg	 SHORT $LN79@GetRemoveP
; File C:\Program Files\Microsoft Visual Studio\2022\Professional\VC\Tools\MSVC\14.44.35207\include\vector

; 1934 :         return _My_data._Myfirst[_Pos];

  0007f	8d 3c 89	 lea	 edi, DWORD PTR [ecx+ecx*4]
  00082	c1 e7 04	 shl	 edi, 4
; File C:\IAGOS\server\v18\Source\Source\_Common\Exchange.cpp

; 383  : 	vecList = pSetList->vecSet[nListNum].vecRemovePoint;

  00085	83 c7 34	 add	 edi, 52			; 00000034H
  00088	03 fe		 add	 edi, esi
; File C:\Program Files\Microsoft Visual Studio\2022\Professional\VC\Tools\MSVC\14.44.35207\include\vector

; 1524 :         if (this == _STD addressof(_Right)) {

  0008a	3b df		 cmp	 ebx, edi
  0008c	74 4b		 je	 SHORT $LN79@GetRemoveP

; 1525 :             return *this;
; 1526 :         }
; 1527 : 
; 1528 :         auto& _Al       = _Getal();
; 1529 :         auto& _Right_al = _Right._Getal();
; 1530 :         if constexpr (_Choose_pocca_v<_Alty>) {
; 1531 :             if (_Al != _Right_al) {
; 1532 :                 _Tidy();
; 1533 :                 _Mypair._Myval2._Reload_proxy(_GET_PROXY_ALLOCATOR(_Alty, _Al), _GET_PROXY_ALLOCATOR(_Alty, _Right_al));
; 1534 :             }
; 1535 :         }
; 1536 : 
; 1537 :         _Pocca(_Al, _Right_al);
; 1538 :         auto& _Right_data = _Right._Mypair._Myval2;
; 1539 :         _Assign_counted_range(_Right_data._Myfirst, static_cast<size_type>(_Right_data._Mylast - _Right_data._Myfirst));

  0008e	8b 07		 mov	 eax, DWORD PTR [edi]
  00090	8b 7f 04	 mov	 edi, DWORD PTR [edi+4]
  00093	2b f8		 sub	 edi, eax
  00095	89 45 0c	 mov	 DWORD PTR __First$1$[ebp], eax
  00098	c1 ff 03	 sar	 edi, 3

; 1433 :         if (_Newsize > _Oldcapacity) {

  0009b	85 ff		 test	 edi, edi
  0009d	74 24		 je	 SHORT $LN78@GetRemoveP

; 1703 :         if (_Newsize > max_size()) {

  0009f	81 ff ff ff ff
	1f		 cmp	 edi, 536870911		; 1fffffffH
  000a5	77 48		 ja	 SHORT $LN155@GetRemoveP

; 1705 :         }
; 1706 : 
; 1707 :         const size_type _Newcapacity = _Calculate_growth(_Newsize);
; 1708 : 
; 1709 :         if (_Myfirst) { // destroy and deallocate old array
; 1710 :             _Destroy_range(_Myfirst, _Mylast, _Al);
; 1711 :             _ASAN_VECTOR_REMOVE;
; 1712 :             _Al.deallocate(_Myfirst, static_cast<size_type>(_Myend - _Myfirst));
; 1713 : 
; 1714 :             _Myfirst = nullptr;
; 1715 :             _Mylast  = nullptr;
; 1716 :             _Myend   = nullptr;
; 1717 :         }
; 1718 : 
; 1719 :         _Buy_raw(_Newcapacity);

  000a7	57		 push	 edi
  000a8	8b cb		 mov	 ecx, ebx
  000aa	e8 00 00 00 00	 call	 ?_Buy_raw@?$vector@U__POINT@CExchange@@V?$allocator@U__POINT@CExchange@@@std@@@std@@AAEXI@Z ; std::vector<CExchange::__POINT,std::allocator<CExchange::__POINT> >::_Buy_raw

; 1436 :                 _Mylast = _STD _Uninitialized_copy_n(_STD move(_First), _Newsize, _Myfirst, _Al);

  000af	8b 33		 mov	 esi, DWORD PTR [ebx]
; File C:\Program Files\Microsoft Visual Studio\2022\Professional\VC\Tools\MSVC\14.44.35207\include\xmemory

; 1930 :             _STD _Copy_memmove_n(_UFirst, _Count, _STD _Unfancy(_Dest));

  000b1	56		 push	 esi
  000b2	57		 push	 edi
  000b3	ff 75 0c	 push	 DWORD PTR __First$1$[ebp]
  000b6	e8 00 00 00 00	 call	 ??$_Copy_memmove_n@PAU__POINT@CExchange@@PAU12@@std@@YAPAU__POINT@CExchange@@PAU12@I0@Z ; std::_Copy_memmove_n<CExchange::__POINT *,CExchange::__POINT *>

; 1931 :             _Dest += _Count;

  000bb	8d 04 fe	 lea	 eax, DWORD PTR [esi+edi*8]
; File C:\Program Files\Microsoft Visual Studio\2022\Professional\VC\Tools\MSVC\14.44.35207\include\vector

; 1436 :                 _Mylast = _STD _Uninitialized_copy_n(_STD move(_First), _Newsize, _Myfirst, _Al);

  000be	89 43 04	 mov	 DWORD PTR [ebx+4], eax

; 1437 :                 _ASAN_VECTOR_CREATE;
; 1438 :             } else {
; 1439 :                 _ASAN_VECTOR_CREATE_GUARD;
; 1440 :                 _Mylast = _STD _Uninitialized_copy_n(_STD move(_First), _Newsize, _Myfirst, _Al);
; 1441 :             }
; 1442 :             return;

  000c1	eb 13		 jmp	 SHORT $LN153@GetRemoveP
$LN78@GetRemoveP:
; File C:\Program Files\Microsoft Visual Studio\2022\Professional\VC\Tools\MSVC\14.44.35207\include\xutility

; 4808 :             return _Copy_memmove_n(_First, static_cast<size_t>(_Count), _Dest);

  000c3	6a 00		 push	 0
  000c5	57		 push	 edi
  000c6	50		 push	 eax
  000c7	e8 00 00 00 00	 call	 ??$_Copy_memmove_n@PAU__POINT@CExchange@@PAU12@@std@@YAPAU__POINT@CExchange@@PAU12@I0@Z ; std::_Copy_memmove_n<CExchange::__POINT *,CExchange::__POINT *>
; File C:\Program Files\Microsoft Visual Studio\2022\Professional\VC\Tools\MSVC\14.44.35207\include\vector

; 1474 :             const pointer _Newlast = _Myfirst + _Newsize;

  000cc	8d 0c fd 00 00
	00 00		 lea	 ecx, DWORD PTR [edi*8]

; 1475 :             _STD _Copy_n_unchecked4(_STD move(_First), _Newsize, _Myfirst);
; 1476 :             _STD _Destroy_range(_Newlast, _Mylast, _Al);
; 1477 :             _ASAN_VECTOR_MODIFY(static_cast<difference_type>(_Newsize - _Oldsize));
; 1478 :             _Mylast = _Newlast;

  000d3	89 4b 04	 mov	 DWORD PTR [ebx+4], ecx
$LN153@GetRemoveP:
; File C:\IAGOS\server\v18\Source\Source\_Common\Exchange.cpp

; 384  : 	return vecList;

  000d6	83 c4 0c	 add	 esp, 12			; 0000000cH
$LN79@GetRemoveP:
  000d9	8b c3		 mov	 eax, ebx

; 385  : }

  000db	8b 4d f4	 mov	 ecx, DWORD PTR __$EHRec$[ebp]
  000de	64 89 0d 00 00
	00 00		 mov	 DWORD PTR fs:0, ecx
  000e5	59		 pop	 ecx
  000e6	5f		 pop	 edi
  000e7	5e		 pop	 esi
  000e8	5b		 pop	 ebx
  000e9	8b e5		 mov	 esp, ebp
  000eb	5d		 pop	 ebp
  000ec	c2 0c 00	 ret	 12			; 0000000cH
$LN155@GetRemoveP:
; File C:\Program Files\Microsoft Visual Studio\2022\Professional\VC\Tools\MSVC\14.44.35207\include\vector

; 1704 :             _Xlength();

  000ef	e8 00 00 00 00	 call	 ?_Xlength@?$vector@U__POINT@CExchange@@V?$allocator@U__POINT@CExchange@@@std@@@std@@CAXXZ ; std::vector<CExchange::__POINT,std::allocator<CExchange::__POINT> >::_Xlength
$LN152@GetRemoveP:
  000f4	cc		 int	 3
_TEXT	ENDS
;	COMDAT text$x
text$x	SEGMENT
__unwindfunclet$?GetRemovePointList@CExchange@@QAE?AV?$vector@U__POINT@CExchange@@V?$allocator@U__POINT@CExchange@@@std@@@std@@HH@Z$0:
  00000	8b 45 f0	 mov	 eax, DWORD PTR $T2[ebp]
  00003	83 e0 01	 and	 eax, 1
  00006	0f 84 0c 00 00
	00		 je	 $LN6@GetRemoveP
  0000c	83 65 f0 fe	 and	 DWORD PTR $T2[ebp], -2	; fffffffeH
  00010	8b 4d 08	 mov	 ecx, DWORD PTR ___$ReturnUdt$[ebp]
  00013	e9 00 00 00 00	 jmp	 ??1?$vector@U__POINT@CExchange@@V?$allocator@U__POINT@CExchange@@@std@@@std@@QAE@XZ ; std::vector<CExchange::__POINT,std::allocator<CExchange::__POINT> >::~vector<CExchange::__POINT,std::allocator<CExchange::__POINT> >
$LN6@GetRemoveP:
  00018	c3		 ret	 0
  00019	cc		 int	 3
  0001a	cc		 int	 3
  0001b	cc		 int	 3
  0001c	cc		 int	 3
  0001d	cc		 int	 3
__ehhandler$?GetRemovePointList@CExchange@@QAE?AV?$vector@U__POINT@CExchange@@V?$allocator@U__POINT@CExchange@@@std@@@std@@HH@Z:
  0001e	90		 npad	 1
  0001f	90		 npad	 1
  00020	8b 54 24 08	 mov	 edx, DWORD PTR [esp+8]
  00024	8d 42 0c	 lea	 eax, DWORD PTR [edx+12]
  00027	8b 4a ec	 mov	 ecx, DWORD PTR [edx-20]
  0002a	33 c8		 xor	 ecx, eax
  0002c	e8 00 00 00 00	 call	 @__security_check_cookie@4
  00031	b8 00 00 00 00	 mov	 eax, OFFSET __ehfuncinfo$?GetRemovePointList@CExchange@@QAE?AV?$vector@U__POINT@CExchange@@V?$allocator@U__POINT@CExchange@@@std@@@std@@HH@Z
  00036	e9 00 00 00 00	 jmp	 ___CxxFrameHandler3
text$x	ENDS
?GetRemovePointList@CExchange@@QAE?AV?$vector@U__POINT@CExchange@@V?$allocator@U__POINT@CExchange@@@std@@@std@@HH@Z ENDP ; CExchange::GetRemovePointList
; Function compile flags: /Ogtp
; File C:\IAGOS\server\v18\Source\Source\_Common\Exchange.cpp
; File C:\Program Files\Microsoft Visual Studio\2022\Professional\VC\Tools\MSVC\14.44.35207\include\vector
; File C:\IAGOS\server\v18\Source\Source\_Common\Exchange.cpp
; File C:\Program Files\Microsoft Visual Studio\2022\Professional\VC\Tools\MSVC\14.44.35207\include\vector
; File C:\IAGOS\server\v18\Source\Source\_Common\Exchange.cpp
; File C:\Program Files\Microsoft Visual Studio\2022\Professional\VC\Tools\MSVC\14.44.35207\include\vector
; File C:\IAGOS\server\v18\Source\Source\_Common\Exchange.cpp
; File C:\Program Files\Microsoft Visual Studio\2022\Professional\VC\Tools\MSVC\14.44.35207\include\vector
; File C:\IAGOS\server\v18\Source\Source\_Common\Exchange.cpp
; File C:\Program Files\Microsoft Visual Studio\2022\Professional\VC\Tools\MSVC\14.44.35207\include\vector
; File C:\IAGOS\server\v18\Source\Source\_Common\Exchange.cpp
; File C:\IAGOS\server\v18\Source\Source\_Common\xUtil.h
; File C:\IAGOS\server\v18\Source\Source\_Common\Exchange.cpp
; File C:\IAGOS\server\v18\Source\Source\_Common\xUtil.h
; File C:\Program Files\Microsoft Visual Studio\2022\Professional\VC\Tools\MSVC\14.44.35207\include\vector
; File C:\IAGOS\server\v18\Source\Source\_Common\xUtil.h
; File C:\IAGOS\server\v18\Source\Source\_Common\Exchange.cpp
; File C:\IAGOS\server\v18\Source\Source\_Common\xUtil.h
; File C:\Program Files\Microsoft Visual Studio\2022\Professional\VC\Tools\MSVC\14.44.35207\include\vector
; File C:\IAGOS\server\v18\Source\Source\_Common\Exchange.cpp
; File C:\Program Files\Microsoft Visual Studio\2022\Professional\VC\Tools\MSVC\14.44.35207\include\vector
; File C:\IAGOS\server\v18\Source\Source\_Common\Exchange.cpp
; File C:\Program Files\Microsoft Visual Studio\2022\Professional\VC\Tools\MSVC\14.44.35207\include\vector
; File C:\Program Files\Microsoft Visual Studio\2022\Professional\VC\Tools\MSVC\14.44.35207\include\xutility
; File C:\Program Files\Microsoft Visual Studio\2022\Professional\VC\Tools\MSVC\14.44.35207\include\vector
; File C:\IAGOS\server\v18\Source\Source\_Common\Exchange.cpp
; File C:\IAGOS\server\v18\Source\Source\_Common\xUtil.h
; File C:\Program Files\Microsoft Visual Studio\2022\Professional\VC\Tools\MSVC\14.44.35207\include\xutility
; File C:\Program Files\Microsoft Visual Studio\2022\Professional\VC\Tools\MSVC\14.44.35207\include\vector
; File C:\Program Files\Microsoft Visual Studio\2022\Professional\VC\Tools\MSVC\14.44.35207\include\xutility
; File C:\IAGOS\server\v18\Source\Source\_Common\xUtil.h
; File C:\IAGOS\server\v18\Source\Source\_Common\Exchange.cpp
; File C:\Program Files\Microsoft Visual Studio\2022\Professional\VC\Tools\MSVC\14.44.35207\include\xutility
; File C:\Program Files\Microsoft Visual Studio\2022\Professional\VC\Tools\MSVC\14.44.35207\include\vector
; File C:\Program Files\Microsoft Visual Studio\2022\Professional\VC\Tools\MSVC\14.44.35207\include\xutility
; File C:\IAGOS\server\v18\Source\Source\_Common\Exchange.cpp
; File C:\Program Files\Microsoft Visual Studio\2022\Professional\VC\Tools\MSVC\14.44.35207\include\vector
; File C:\IAGOS\server\v18\Source\Source\_Common\Exchange.cpp
; File C:\Program Files\Microsoft Visual Studio\2022\Professional\VC\Tools\MSVC\14.44.35207\include\vector
; File C:\IAGOS\server\v18\Source\Source\_Common\Exchange.cpp
;	COMDAT ?GetPayItemList@CExchange@@QAE?AV?$vector@U__ITEM@CExchange@@V?$allocator@U__ITEM@CExchange@@@std@@@std@@HH@Z
_TEXT	SEGMENT
_payItem$ = -40						; size = 12
tv887 = -28						; size = 4
_pSetList$1$ = -24					; size = 4
$T2 = -20						; size = 4
_nRandom$1$ = -16					; size = 4
__$EHRec$ = -12						; size = 12
___$ReturnUdt$ = 8					; size = 4
_nMMIId$ = 12						; size = 4
_nProb$1$ = 12						; size = 4
_nListNum$ = 16						; size = 4
_nCount$1$ = 16						; size = 4
?GetPayItemList@CExchange@@QAE?AV?$vector@U__ITEM@CExchange@@V?$allocator@U__ITEM@CExchange@@@std@@@std@@HH@Z PROC ; CExchange::GetPayItemList, COMDAT
; _this$ = ecx

; 319  : {

  00000	55		 push	 ebp
  00001	8b ec		 mov	 ebp, esp
  00003	6a ff		 push	 -1
  00005	68 00 00 00 00	 push	 __ehhandler$?GetPayItemList@CExchange@@QAE?AV?$vector@U__ITEM@CExchange@@V?$allocator@U__ITEM@CExchange@@@std@@@std@@HH@Z
  0000a	64 a1 00 00 00
	00		 mov	 eax, DWORD PTR fs:0
  00010	50		 push	 eax
  00011	83 ec 1c	 sub	 esp, 28			; 0000001cH
  00014	56		 push	 esi
  00015	57		 push	 edi
  00016	a1 00 00 00 00	 mov	 eax, DWORD PTR ___security_cookie
  0001b	33 c5		 xor	 eax, ebp
  0001d	50		 push	 eax
  0001e	8d 45 f4	 lea	 eax, DWORD PTR __$EHRec$[ebp]
  00021	64 a3 00 00 00
	00		 mov	 DWORD PTR fs:0, eax
  00027	c7 45 ec 01 00
	00 00		 mov	 DWORD PTR $T2[ebp], 1
; File C:\Program Files\Microsoft Visual Studio\2022\Professional\VC\Tools\MSVC\14.44.35207\include\vector

; 400  :     _CONSTEXPR20 _Vector_val() noexcept : _Myfirst(), _Mylast(), _Myend() {}

  0002e	8b 7d 08	 mov	 edi, DWORD PTR ___$ReturnUdt$[ebp]
  00031	c7 07 00 00 00
	00		 mov	 DWORD PTR [edi], 0
  00037	c7 47 04 00 00
	00 00		 mov	 DWORD PTR [edi+4], 0
  0003e	c7 47 08 00 00
	00 00		 mov	 DWORD PTR [edi+8], 0
; File C:\IAGOS\server\v18\Source\Source\_Common\Exchange.cpp

; 321  : 	PSETLIST pSetList = FindExchange( nMMIId );

  00045	ff 75 0c	 push	 DWORD PTR _nMMIId$[ebp]
  00048	c7 45 fc 00 00
	00 00		 mov	 DWORD PTR __$EHRec$[ebp+8], 0
  0004f	c7 45 ec 01 00
	00 00		 mov	 DWORD PTR $T2[ebp], 1
  00056	e8 00 00 00 00	 call	 ?FindExchange@CExchange@@QAEPAU__SETLIST@1@H@Z ; CExchange::FindExchange
  0005b	89 45 e8	 mov	 DWORD PTR _pSetList$1$[ebp], eax

; 322  : 	if( !pSetList )

  0005e	85 c0		 test	 eax, eax
  00060	0f 84 24 01 00
	00		 je	 $LN183@GetPayItem
; File C:\Program Files\Microsoft Visual Studio\2022\Professional\VC\Tools\MSVC\14.44.35207\include\vector

; 1915 :         return static_cast<size_type>(_My_data._Mylast - _My_data._Myfirst);

  00066	8b 48 10	 mov	 ecx, DWORD PTR [eax+16]
  00069	8b 70 0c	 mov	 esi, DWORD PTR [eax+12]
  0006c	2b ce		 sub	 ecx, esi
  0006e	b8 67 66 66 66	 mov	 eax, 1717986919		; 66666667H
  00073	f7 e9		 imul	 ecx
; File C:\IAGOS\server\v18\Source\Source\_Common\Exchange.cpp

; 325  : 	if( nListNum > (int)( pSetList->vecSet.size()-1 ) )

  00075	8b 4d 10	 mov	 ecx, DWORD PTR _nListNum$[ebp]
; File C:\Program Files\Microsoft Visual Studio\2022\Professional\VC\Tools\MSVC\14.44.35207\include\vector

; 1915 :         return static_cast<size_type>(_My_data._Mylast - _My_data._Myfirst);

  00078	c1 fa 05	 sar	 edx, 5
  0007b	8b c2		 mov	 eax, edx
  0007d	c1 e8 1f	 shr	 eax, 31			; 0000001fH
; File C:\IAGOS\server\v18\Source\Source\_Common\Exchange.cpp

; 325  : 	if( nListNum > (int)( pSetList->vecSet.size()-1 ) )

  00080	48		 dec	 eax
  00081	03 c2		 add	 eax, edx
  00083	3b c8		 cmp	 ecx, eax
  00085	0f 8f ff 00 00
	00		 jg	 $LN183@GetPayItem
; File C:\Program Files\Microsoft Visual Studio\2022\Professional\VC\Tools\MSVC\14.44.35207\include\vector

; 1934 :         return _My_data._Myfirst[_Pos];

  0008b	8d 04 89	 lea	 eax, DWORD PTR [ecx+ecx*4]
  0008e	c1 e0 04	 shl	 eax, 4
; File C:\IAGOS\server\v18\Source\Source\_Common\Exchange.cpp

; 328  : 	vector<__ITEM> payItem = pSetList->vecSet[nListNum].vecPayItem;

  00091	8d 4d d8	 lea	 ecx, DWORD PTR _payItem$[ebp]
; File C:\Program Files\Microsoft Visual Studio\2022\Professional\VC\Tools\MSVC\14.44.35207\include\vector

; 1934 :         return _My_data._Myfirst[_Pos];

  00094	89 45 e4	 mov	 DWORD PTR tv887[ebp], eax
; File C:\IAGOS\server\v18\Source\Source\_Common\Exchange.cpp

; 328  : 	vector<__ITEM> payItem = pSetList->vecSet[nListNum].vecPayItem;

  00097	83 c0 40	 add	 eax, 64			; 00000040H
  0009a	03 c6		 add	 eax, esi
  0009c	50		 push	 eax
  0009d	e8 00 00 00 00	 call	 ??0?$vector@U__ITEM@CExchange@@V?$allocator@U__ITEM@CExchange@@@std@@@std@@QAE@ABV01@@Z ; std::vector<CExchange::__ITEM,std::allocator<CExchange::__ITEM> >::vector<CExchange::__ITEM,std::allocator<CExchange::__ITEM> >
; File C:\IAGOS\server\v18\Source\Source\_Common\xUtil.h

; 16   : 	g_next = g_next * 1103515245 + 12345;// + nRandomSeed[ i++ ];

  000a2	69 35 00 00 00
	00 6d 4e c6 41	 imul	 esi, DWORD PTR ?g_next@@3KA, 1103515245 ; g_next

; 22   : 	return  xRand() % num;

  000ac	b8 83 de 1b 43	 mov	 eax, 1125899907		; 431bde83H
; File C:\IAGOS\server\v18\Source\Source\_Common\Exchange.cpp

; 329  : 	int nProb = 1000000;

  000b1	b9 40 42 0f 00	 mov	 ecx, 1000000		; 000f4240H
  000b6	c7 45 fc 01 00
	00 00		 mov	 DWORD PTR __$EHRec$[ebp+8], 1
  000bd	89 4d 0c	 mov	 DWORD PTR _nProb$1$[ebp], ecx
; File C:\IAGOS\server\v18\Source\Source\_Common\xUtil.h

; 16   : 	g_next = g_next * 1103515245 + 12345;// + nRandomSeed[ i++ ];

  000c0	81 c6 39 30 00
	00		 add	 esi, 12345		; 00003039H

; 22   : 	return  xRand() % num;

  000c6	f7 e6		 mul	 esi

; 16   : 	g_next = g_next * 1103515245 + 12345;// + nRandomSeed[ i++ ];

  000c8	89 35 00 00 00
	00		 mov	 DWORD PTR ?g_next@@3KA, esi ; g_next

; 22   : 	return  xRand() % num;

  000ce	c1 ea 12	 shr	 edx, 18			; 00000012H
  000d1	69 c2 40 42 0f
	00		 imul	 eax, edx, 1000000
; File C:\Program Files\Microsoft Visual Studio\2022\Professional\VC\Tools\MSVC\14.44.35207\include\vector

; 46   :     _CONSTEXPR20 _Vector_const_iterator(_Tptr _Parg, const _Container_base* _Pvector) noexcept : _Ptr(_Parg) {

  000d7	8b 55 dc	 mov	 edx, DWORD PTR _payItem$[ebp+4]
; File C:\IAGOS\server\v18\Source\Source\_Common\xUtil.h

; 22   : 	return  xRand() % num;

  000da	2b f0		 sub	 esi, eax
; File C:\IAGOS\server\v18\Source\Source\_Common\Exchange.cpp

; 331  : 	int nSumProb = 0;

  000dc	33 c0		 xor	 eax, eax
; File C:\IAGOS\server\v18\Source\Source\_Common\xUtil.h

; 22   : 	return  xRand() % num;

  000de	89 75 f0	 mov	 DWORD PTR _nRandom$1$[ebp], esi
; File C:\Program Files\Microsoft Visual Studio\2022\Professional\VC\Tools\MSVC\14.44.35207\include\vector

; 46   :     _CONSTEXPR20 _Vector_const_iterator(_Tptr _Parg, const _Container_base* _Pvector) noexcept : _Ptr(_Parg) {

  000e1	8b 75 d8	 mov	 esi, DWORD PTR _payItem$[ebp]
; File C:\IAGOS\server\v18\Source\Source\_Common\Exchange.cpp

; 332  : 	int nCount = 0;

  000e4	89 45 10	 mov	 DWORD PTR _nCount$1$[ebp], eax
; File C:\Program Files\Microsoft Visual Studio\2022\Professional\VC\Tools\MSVC\14.44.35207\include\vector

; 46   :     _CONSTEXPR20 _Vector_const_iterator(_Tptr _Parg, const _Container_base* _Pvector) noexcept : _Ptr(_Parg) {

  000e7	3b f2		 cmp	 esi, edx
; File C:\IAGOS\server\v18\Source\Source\_Common\Exchange.cpp

; 334  : 	for( vector<__ITEM>::iterator i = payItem.begin(); i!=payItem.end(); )

  000e9	0f 84 93 00 00
	00		 je	 $LN178@GetPayItem
  000ef	90		 npad	 1
$LL4@GetPayItem:

; 335  : 	{
; 336  : 		nSumProb += i->nPayProb;

  000f0	03 46 08	 add	 eax, DWORD PTR [esi+8]

; 337  : 		if( nRandom < nSumProb )

  000f3	39 45 f0	 cmp	 DWORD PTR _nRandom$1$[ebp], eax
  000f6	7d 7f		 jge	 SHORT $LN7@GetPayItem
; File C:\Program Files\Microsoft Visual Studio\2022\Professional\VC\Tools\MSVC\14.44.35207\include\vector

; 844  :         if (_Mylast != _My_data._Myend) {

  000f8	8b 47 04	 mov	 eax, DWORD PTR [edi+4]
  000fb	3b 47 08	 cmp	 eax, DWORD PTR [edi+8]
  000fe	74 0c		 je	 SHORT $LN71@GetPayItem
; File C:\Program Files\Microsoft Visual Studio\2022\Professional\VC\Tools\MSVC\14.44.35207\include\xutility

; 476  :         ::new (static_cast<void*>(_STD addressof(_Obj))) _Ty(_STD forward<_Types>(_Args)...);

  00100	0f 10 06	 movups	 xmm0, XMMWORD PTR [esi]
  00103	0f 11 00	 movups	 XMMWORD PTR [eax], xmm0
; File C:\Program Files\Microsoft Visual Studio\2022\Professional\VC\Tools\MSVC\14.44.35207\include\vector

; 869  :         ++_Mylast;

  00106	83 47 04 10	 add	 DWORD PTR [edi+4], 16	; 00000010H

; 845  :             return _Emplace_back_with_unused_capacity(_STD forward<_Valty>(_Val)...);

  0010a	eb 0c		 jmp	 SHORT $LN70@GetPayItem
$LN71@GetPayItem:

; 846  :         }
; 847  : 
; 848  :         return *_Emplace_reallocate(_Mylast, _STD forward<_Valty>(_Val)...);

  0010c	56		 push	 esi
  0010d	50		 push	 eax
  0010e	8b cf		 mov	 ecx, edi
  00110	e8 00 00 00 00	 call	 ??$_Emplace_reallocate@ABU__ITEM@CExchange@@@?$vector@U__ITEM@CExchange@@V?$allocator@U__ITEM@CExchange@@@std@@@std@@AAEPAU__ITEM@CExchange@@QAU23@ABU23@@Z ; std::vector<CExchange::__ITEM,std::allocator<CExchange::__ITEM> >::_Emplace_reallocate<CExchange::__ITEM const &>
  00115	8b 4d 0c	 mov	 ecx, DWORD PTR _nProb$1$[ebp]
$LN70@GetPayItem:
; File C:\IAGOS\server\v18\Source\Source\_Common\Exchange.cpp

; 341  : 			if( nCount == pSetList->vecSet[nListNum].nPayNum )

  00118	8b 45 e8	 mov	 eax, DWORD PTR _pSetList$1$[ebp]
  0011b	8b 7d e4	 mov	 edi, DWORD PTR tv887[ebp]
  0011e	8b 55 10	 mov	 edx, DWORD PTR _nCount$1$[ebp]
  00121	42		 inc	 edx
  00122	8b 40 0c	 mov	 eax, DWORD PTR [eax+12]
  00125	89 55 10	 mov	 DWORD PTR _nCount$1$[ebp], edx
  00128	3b 54 38 4c	 cmp	 edx, DWORD PTR [eax+edi+76]
  0012c	8b 7d 08	 mov	 edi, DWORD PTR ___$ReturnUdt$[ebp]
  0012f	74 51		 je	 SHORT $LN178@GetPayItem

; 342  : 				break;
; 343  : 			nProb -= i->nPayProb;

  00131	2b 4e 08	 sub	 ecx, DWORD PTR [esi+8]
  00134	89 4d 0c	 mov	 DWORD PTR _nProb$1$[ebp], ecx

; 344  : 			if( nProb <= 0 ) // Áö±Ţ °ąĽö°ˇ ¸®˝şĆ® Ľöş¸´Ů ¸ąŔş °ćżě

  00137	85 c9		 test	 ecx, ecx
  00139	7e 47		 jle	 SHORT $LN178@GetPayItem
; File C:\IAGOS\server\v18\Source\Source\_Common\xUtil.h

; 16   : 	g_next = g_next * 1103515245 + 12345;// + nRandomSeed[ i++ ];

  0013b	69 05 00 00 00
	00 6d 4e c6 41	 imul	 eax, DWORD PTR ?g_next@@3KA, 1103515245 ; g_next
  00145	33 d2		 xor	 edx, edx
; File C:\Program Files\Microsoft Visual Studio\2022\Professional\VC\Tools\MSVC\14.44.35207\include\xutility

; 5147 :                 return _STD _Copy_memmove(_First, _Last, _Dest);

  00147	56		 push	 esi
  00148	ff 75 dc	 push	 DWORD PTR _payItem$[ebp+4]
; File C:\Program Files\Microsoft Visual Studio\2022\Professional\VC\Tools\MSVC\14.44.35207\include\vector

; 1775 :         _STD _Move_unchecked(_Whereptr + 1, _Mylast, _Whereptr);

  0014b	83 c6 10	 add	 esi, 16			; 00000010H
; File C:\Program Files\Microsoft Visual Studio\2022\Professional\VC\Tools\MSVC\14.44.35207\include\xutility

; 5147 :                 return _STD _Copy_memmove(_First, _Last, _Dest);

  0014e	56		 push	 esi
; File C:\IAGOS\server\v18\Source\Source\_Common\xUtil.h

; 16   : 	g_next = g_next * 1103515245 + 12345;// + nRandomSeed[ i++ ];

  0014f	05 39 30 00 00	 add	 eax, 12345		; 00003039H
  00154	a3 00 00 00 00	 mov	 DWORD PTR ?g_next@@3KA, eax ; g_next
  00159	f7 f1		 div	 ecx
; File C:\IAGOS\server\v18\Source\Source\_Common\Exchange.cpp

; 346  : 			nRandom = xRandom( nProb ); // Áö±ŢµČ ľĆŔĚĹŰŔ» Á¦żÜÇŃ łŞ¸ÓÁö·Î ąÝşą

  0015b	89 55 f0	 mov	 DWORD PTR _nRandom$1$[ebp], edx
; File C:\Program Files\Microsoft Visual Studio\2022\Professional\VC\Tools\MSVC\14.44.35207\include\xutility

; 5147 :                 return _STD _Copy_memmove(_First, _Last, _Dest);

  0015e	e8 00 00 00 00	 call	 ??$_Copy_memmove@PAU__ITEM@CExchange@@PAU12@@std@@YAPAU__ITEM@CExchange@@PAU12@00@Z ; std::_Copy_memmove<CExchange::__ITEM *,CExchange::__ITEM *>
; File C:\Program Files\Microsoft Visual Studio\2022\Professional\VC\Tools\MSVC\14.44.35207\include\vector

; 1778 :         --_Mylast;

  00163	83 6d dc 10	 sub	 DWORD PTR _payItem$[ebp+4], 16 ; 00000010H
; File C:\Program Files\Microsoft Visual Studio\2022\Professional\VC\Tools\MSVC\14.44.35207\include\xutility

; 5147 :                 return _STD _Copy_memmove(_First, _Last, _Dest);

  00167	83 c4 0c	 add	 esp, 12			; 0000000cH
; File C:\IAGOS\server\v18\Source\Source\_Common\Exchange.cpp

; 349  : 			i = payItem.begin();

  0016a	8b 75 d8	 mov	 esi, DWORD PTR _payItem$[ebp]

; 350  : 		}

  0016d	33 c0		 xor	 eax, eax
  0016f	8b 4d 0c	 mov	 ecx, DWORD PTR _nProb$1$[ebp]
  00172	8b 55 dc	 mov	 edx, DWORD PTR _payItem$[ebp+4]
  00175	eb 03		 jmp	 SHORT $LN2@GetPayItem
$LN7@GetPayItem:
; File C:\Program Files\Microsoft Visual Studio\2022\Professional\VC\Tools\MSVC\14.44.35207\include\vector

; 82   :         ++_Ptr;

  00177	83 c6 10	 add	 esi, 16			; 00000010H
$LN2@GetPayItem:

; 176  :         return !(*this == _Right);

  0017a	3b f2		 cmp	 esi, edx
; File C:\IAGOS\server\v18\Source\Source\_Common\Exchange.cpp

; 334  : 	for( vector<__ITEM>::iterator i = payItem.begin(); i!=payItem.end(); )

  0017c	0f 85 6e ff ff
	ff		 jne	 $LL4@GetPayItem
$LN178@GetPayItem:
; File C:\Program Files\Microsoft Visual Studio\2022\Professional\VC\Tools\MSVC\14.44.35207\include\vector

; 830  :         _Tidy();

  00182	8d 4d d8	 lea	 ecx, DWORD PTR _payItem$[ebp]
  00185	e8 00 00 00 00	 call	 ?_Tidy@?$vector@U__ITEM@CExchange@@V?$allocator@U__ITEM@CExchange@@@std@@@std@@AAEXXZ ; std::vector<CExchange::__ITEM,std::allocator<CExchange::__ITEM> >::_Tidy
$LN183@GetPayItem:
; File C:\IAGOS\server\v18\Source\Source\_Common\Exchange.cpp

; 355  : }

  0018a	8b c7		 mov	 eax, edi
  0018c	8b 4d f4	 mov	 ecx, DWORD PTR __$EHRec$[ebp]
  0018f	64 89 0d 00 00
	00 00		 mov	 DWORD PTR fs:0, ecx
  00196	59		 pop	 ecx
  00197	5f		 pop	 edi
  00198	5e		 pop	 esi
  00199	8b e5		 mov	 esp, ebp
  0019b	5d		 pop	 ebp
  0019c	c2 0c 00	 ret	 12			; 0000000cH
_TEXT	ENDS
;	COMDAT text$x
text$x	SEGMENT
__unwindfunclet$?GetPayItemList@CExchange@@QAE?AV?$vector@U__ITEM@CExchange@@V?$allocator@U__ITEM@CExchange@@@std@@@std@@HH@Z$0:
  00000	8b 45 ec	 mov	 eax, DWORD PTR $T2[ebp]
  00003	83 e0 01	 and	 eax, 1
  00006	0f 84 0c 00 00
	00		 je	 $LN13@GetPayItem
  0000c	83 65 ec fe	 and	 DWORD PTR $T2[ebp], -2	; fffffffeH
  00010	8b 4d 08	 mov	 ecx, DWORD PTR ___$ReturnUdt$[ebp]
  00013	e9 00 00 00 00	 jmp	 ??1?$vector@U__ITEM@CExchange@@V?$allocator@U__ITEM@CExchange@@@std@@@std@@QAE@XZ ; std::vector<CExchange::__ITEM,std::allocator<CExchange::__ITEM> >::~vector<CExchange::__ITEM,std::allocator<CExchange::__ITEM> >
$LN13@GetPayItem:
  00018	c3		 ret	 0
__unwindfunclet$?GetPayItemList@CExchange@@QAE?AV?$vector@U__ITEM@CExchange@@V?$allocator@U__ITEM@CExchange@@@std@@@std@@HH@Z$1:
  00019	8d 4d d8	 lea	 ecx, DWORD PTR _payItem$[ebp]
  0001c	e9 00 00 00 00	 jmp	 ??1?$vector@U__ITEM@CExchange@@V?$allocator@U__ITEM@CExchange@@@std@@@std@@QAE@XZ ; std::vector<CExchange::__ITEM,std::allocator<CExchange::__ITEM> >::~vector<CExchange::__ITEM,std::allocator<CExchange::__ITEM> >
  00021	cc		 int	 3
  00022	cc		 int	 3
  00023	cc		 int	 3
  00024	cc		 int	 3
  00025	cc		 int	 3
__ehhandler$?GetPayItemList@CExchange@@QAE?AV?$vector@U__ITEM@CExchange@@V?$allocator@U__ITEM@CExchange@@@std@@@std@@HH@Z:
  00026	90		 npad	 1
  00027	90		 npad	 1
  00028	8b 54 24 08	 mov	 edx, DWORD PTR [esp+8]
  0002c	8d 42 0c	 lea	 eax, DWORD PTR [edx+12]
  0002f	8b 4a d8	 mov	 ecx, DWORD PTR [edx-40]
  00032	33 c8		 xor	 ecx, eax
  00034	e8 00 00 00 00	 call	 @__security_check_cookie@4
  00039	b8 00 00 00 00	 mov	 eax, OFFSET __ehfuncinfo$?GetPayItemList@CExchange@@QAE?AV?$vector@U__ITEM@CExchange@@V?$allocator@U__ITEM@CExchange@@@std@@@std@@HH@Z
  0003e	e9 00 00 00 00	 jmp	 ___CxxFrameHandler3
text$x	ENDS
?GetPayItemList@CExchange@@QAE?AV?$vector@U__ITEM@CExchange@@V?$allocator@U__ITEM@CExchange@@@std@@@std@@HH@Z ENDP ; CExchange::GetPayItemList
; Function compile flags: /Ogtp
; File C:\IAGOS\server\v18\Source\Source\_Common\Exchange.cpp
; File C:\Program Files\Microsoft Visual Studio\2022\Professional\VC\Tools\MSVC\14.44.35207\include\vector
; File C:\IAGOS\server\v18\Source\Source\_Common\Exchange.cpp
; File C:\Program Files\Microsoft Visual Studio\2022\Professional\VC\Tools\MSVC\14.44.35207\include\vector
; File C:\IAGOS\server\v18\Source\Source\_Common\Exchange.cpp
; File C:\Program Files\Microsoft Visual Studio\2022\Professional\VC\Tools\MSVC\14.44.35207\include\vector
; File C:\IAGOS\server\v18\Source\Source\_Common\Exchange.cpp
; File C:\Program Files\Microsoft Visual Studio\2022\Professional\VC\Tools\MSVC\14.44.35207\include\vector
; File C:\IAGOS\server\v18\Source\Source\_Common\Exchange.cpp
; File C:\Program Files\Microsoft Visual Studio\2022\Professional\VC\Tools\MSVC\14.44.35207\include\vector
; File C:\Program Files\Microsoft Visual Studio\2022\Professional\VC\Tools\MSVC\14.44.35207\include\xmemory
; File C:\Program Files\Microsoft Visual Studio\2022\Professional\VC\Tools\MSVC\14.44.35207\include\vector
; File C:\Program Files\Microsoft Visual Studio\2022\Professional\VC\Tools\MSVC\14.44.35207\include\xutility
; File C:\Program Files\Microsoft Visual Studio\2022\Professional\VC\Tools\MSVC\14.44.35207\include\vector
; File C:\IAGOS\server\v18\Source\Source\_Common\Exchange.cpp
; File C:\Program Files\Microsoft Visual Studio\2022\Professional\VC\Tools\MSVC\14.44.35207\include\vector
; File C:\IAGOS\server\v18\Source\Source\_Common\Exchange.cpp
;	COMDAT ?GetRemoveItemList@CExchange@@QAE?AV?$vector@U__ITEM@CExchange@@V?$allocator@U__ITEM@CExchange@@@std@@@std@@HH@Z
_TEXT	SEGMENT
$T2 = -16						; size = 4
__$EHRec$ = -12						; size = 12
___$ReturnUdt$ = 8					; size = 4
_nMMIId$ = 12						; size = 4
__First$1$ = 12						; size = 4
_nListNum$ = 16						; size = 4
?GetRemoveItemList@CExchange@@QAE?AV?$vector@U__ITEM@CExchange@@V?$allocator@U__ITEM@CExchange@@@std@@@std@@HH@Z PROC ; CExchange::GetRemoveItemList, COMDAT
; _this$ = ecx

; 359  : {

  00000	55		 push	 ebp
  00001	8b ec		 mov	 ebp, esp
  00003	6a ff		 push	 -1
  00005	68 00 00 00 00	 push	 __ehhandler$?GetRemoveItemList@CExchange@@QAE?AV?$vector@U__ITEM@CExchange@@V?$allocator@U__ITEM@CExchange@@@std@@@std@@HH@Z
  0000a	64 a1 00 00 00
	00		 mov	 eax, DWORD PTR fs:0
  00010	50		 push	 eax
  00011	51		 push	 ecx
  00012	53		 push	 ebx
  00013	56		 push	 esi
  00014	57		 push	 edi
  00015	a1 00 00 00 00	 mov	 eax, DWORD PTR ___security_cookie
  0001a	33 c5		 xor	 eax, ebp
  0001c	50		 push	 eax
  0001d	8d 45 f4	 lea	 eax, DWORD PTR __$EHRec$[ebp]
  00020	64 a3 00 00 00
	00		 mov	 DWORD PTR fs:0, eax
  00026	c7 45 f0 01 00
	00 00		 mov	 DWORD PTR $T2[ebp], 1
; File C:\Program Files\Microsoft Visual Studio\2022\Professional\VC\Tools\MSVC\14.44.35207\include\vector

; 400  :     _CONSTEXPR20 _Vector_val() noexcept : _Myfirst(), _Mylast(), _Myend() {}

  0002d	8b 5d 08	 mov	 ebx, DWORD PTR ___$ReturnUdt$[ebp]
  00030	c7 03 00 00 00
	00		 mov	 DWORD PTR [ebx], 0
  00036	c7 43 04 00 00
	00 00		 mov	 DWORD PTR [ebx+4], 0
  0003d	c7 43 08 00 00
	00 00		 mov	 DWORD PTR [ebx+8], 0
; File C:\IAGOS\server\v18\Source\Source\_Common\Exchange.cpp

; 361  : 	PSETLIST pSetList = FindExchange( nMMIId );

  00044	ff 75 0c	 push	 DWORD PTR _nMMIId$[ebp]
  00047	c7 45 fc 00 00
	00 00		 mov	 DWORD PTR __$EHRec$[ebp+8], 0
  0004e	c7 45 f0 01 00
	00 00		 mov	 DWORD PTR $T2[ebp], 1
  00055	e8 00 00 00 00	 call	 ?FindExchange@CExchange@@QAEPAU__SETLIST@1@H@Z ; CExchange::FindExchange

; 362  : 	if( !pSetList )

  0005a	85 c0		 test	 eax, eax
  0005c	74 79		 je	 SHORT $LN79@GetRemoveI
; File C:\Program Files\Microsoft Visual Studio\2022\Professional\VC\Tools\MSVC\14.44.35207\include\vector

; 1915 :         return static_cast<size_type>(_My_data._Mylast - _My_data._Myfirst);

  0005e	8b 48 10	 mov	 ecx, DWORD PTR [eax+16]
  00061	8b 70 0c	 mov	 esi, DWORD PTR [eax+12]
  00064	2b ce		 sub	 ecx, esi
  00066	b8 67 66 66 66	 mov	 eax, 1717986919		; 66666667H
  0006b	f7 e9		 imul	 ecx
; File C:\IAGOS\server\v18\Source\Source\_Common\Exchange.cpp

; 365  : 	if( nListNum > (int)( pSetList->vecSet.size()-1 ) )

  0006d	8b 4d 10	 mov	 ecx, DWORD PTR _nListNum$[ebp]
; File C:\Program Files\Microsoft Visual Studio\2022\Professional\VC\Tools\MSVC\14.44.35207\include\vector

; 1915 :         return static_cast<size_type>(_My_data._Mylast - _My_data._Myfirst);

  00070	c1 fa 05	 sar	 edx, 5
  00073	8b c2		 mov	 eax, edx
  00075	c1 e8 1f	 shr	 eax, 31			; 0000001fH
; File C:\IAGOS\server\v18\Source\Source\_Common\Exchange.cpp

; 365  : 	if( nListNum > (int)( pSetList->vecSet.size()-1 ) )

  00078	48		 dec	 eax
  00079	03 c2		 add	 eax, edx
  0007b	3b c8		 cmp	 ecx, eax
  0007d	7f 58		 jg	 SHORT $LN79@GetRemoveI
; File C:\Program Files\Microsoft Visual Studio\2022\Professional\VC\Tools\MSVC\14.44.35207\include\vector

; 1934 :         return _My_data._Myfirst[_Pos];

  0007f	8d 3c 89	 lea	 edi, DWORD PTR [ecx+ecx*4]
  00082	c1 e7 04	 shl	 edi, 4
; File C:\IAGOS\server\v18\Source\Source\_Common\Exchange.cpp

; 368  : 	vecList = pSetList->vecSet[nListNum].vecRemoveItem;

  00085	83 c7 1c	 add	 edi, 28			; 0000001cH
  00088	03 fe		 add	 edi, esi
; File C:\Program Files\Microsoft Visual Studio\2022\Professional\VC\Tools\MSVC\14.44.35207\include\vector

; 1524 :         if (this == _STD addressof(_Right)) {

  0008a	3b df		 cmp	 ebx, edi
  0008c	74 49		 je	 SHORT $LN79@GetRemoveI

; 1525 :             return *this;
; 1526 :         }
; 1527 : 
; 1528 :         auto& _Al       = _Getal();
; 1529 :         auto& _Right_al = _Right._Getal();
; 1530 :         if constexpr (_Choose_pocca_v<_Alty>) {
; 1531 :             if (_Al != _Right_al) {
; 1532 :                 _Tidy();
; 1533 :                 _Mypair._Myval2._Reload_proxy(_GET_PROXY_ALLOCATOR(_Alty, _Al), _GET_PROXY_ALLOCATOR(_Alty, _Right_al));
; 1534 :             }
; 1535 :         }
; 1536 : 
; 1537 :         _Pocca(_Al, _Right_al);
; 1538 :         auto& _Right_data = _Right._Mypair._Myval2;
; 1539 :         _Assign_counted_range(_Right_data._Myfirst, static_cast<size_type>(_Right_data._Mylast - _Right_data._Myfirst));

  0008e	8b 07		 mov	 eax, DWORD PTR [edi]
  00090	8b 7f 04	 mov	 edi, DWORD PTR [edi+4]
  00093	2b f8		 sub	 edi, eax
  00095	89 45 0c	 mov	 DWORD PTR __First$1$[ebp], eax
  00098	c1 ff 04	 sar	 edi, 4

; 1433 :         if (_Newsize > _Oldcapacity) {

  0009b	85 ff		 test	 edi, edi
  0009d	74 26		 je	 SHORT $LN78@GetRemoveI

; 1703 :         if (_Newsize > max_size()) {

  0009f	81 ff ff ff ff
	0f		 cmp	 edi, 268435455		; 0fffffffH
  000a5	77 46		 ja	 SHORT $LN159@GetRemoveI

; 1705 :         }
; 1706 : 
; 1707 :         const size_type _Newcapacity = _Calculate_growth(_Newsize);
; 1708 : 
; 1709 :         if (_Myfirst) { // destroy and deallocate old array
; 1710 :             _Destroy_range(_Myfirst, _Mylast, _Al);
; 1711 :             _ASAN_VECTOR_REMOVE;
; 1712 :             _Al.deallocate(_Myfirst, static_cast<size_type>(_Myend - _Myfirst));
; 1713 : 
; 1714 :             _Myfirst = nullptr;
; 1715 :             _Mylast  = nullptr;
; 1716 :             _Myend   = nullptr;
; 1717 :         }
; 1718 : 
; 1719 :         _Buy_raw(_Newcapacity);

  000a7	57		 push	 edi
  000a8	8b cb		 mov	 ecx, ebx
  000aa	e8 00 00 00 00	 call	 ?_Buy_raw@?$vector@U__ITEM@CExchange@@V?$allocator@U__ITEM@CExchange@@@std@@@std@@AAEXI@Z ; std::vector<CExchange::__ITEM,std::allocator<CExchange::__ITEM> >::_Buy_raw

; 1436 :                 _Mylast = _STD _Uninitialized_copy_n(_STD move(_First), _Newsize, _Myfirst, _Al);

  000af	8b 33		 mov	 esi, DWORD PTR [ebx]
; File C:\Program Files\Microsoft Visual Studio\2022\Professional\VC\Tools\MSVC\14.44.35207\include\xmemory

; 1930 :             _STD _Copy_memmove_n(_UFirst, _Count, _STD _Unfancy(_Dest));

  000b1	56		 push	 esi
  000b2	57		 push	 edi
  000b3	ff 75 0c	 push	 DWORD PTR __First$1$[ebp]
  000b6	e8 00 00 00 00	 call	 ??$_Copy_memmove_n@PAU__ITEM@CExchange@@PAU12@@std@@YAPAU__ITEM@CExchange@@PAU12@I0@Z ; std::_Copy_memmove_n<CExchange::__ITEM *,CExchange::__ITEM *>

; 1931 :             _Dest += _Count;

  000bb	c1 e7 04	 shl	 edi, 4
  000be	83 c4 0c	 add	 esp, 12			; 0000000cH
  000c1	03 fe		 add	 edi, esi
; File C:\Program Files\Microsoft Visual Studio\2022\Professional\VC\Tools\MSVC\14.44.35207\include\vector

; 1442 :             return;

  000c3	eb 0f		 jmp	 SHORT $LN157@GetRemoveI
$LN78@GetRemoveI:
; File C:\Program Files\Microsoft Visual Studio\2022\Professional\VC\Tools\MSVC\14.44.35207\include\xutility

; 4808 :             return _Copy_memmove_n(_First, static_cast<size_t>(_Count), _Dest);

  000c5	6a 00		 push	 0
  000c7	57		 push	 edi
  000c8	50		 push	 eax
  000c9	e8 00 00 00 00	 call	 ??$_Copy_memmove_n@PAU__ITEM@CExchange@@PAU12@@std@@YAPAU__ITEM@CExchange@@PAU12@I0@Z ; std::_Copy_memmove_n<CExchange::__ITEM *,CExchange::__ITEM *>
  000ce	83 c4 0c	 add	 esp, 12			; 0000000cH
; File C:\Program Files\Microsoft Visual Studio\2022\Professional\VC\Tools\MSVC\14.44.35207\include\vector

; 1474 :             const pointer _Newlast = _Myfirst + _Newsize;

  000d1	c1 e7 04	 shl	 edi, 4
$LN157@GetRemoveI:
; File C:\IAGOS\server\v18\Source\Source\_Common\Exchange.cpp

; 369  : 	return vecList;

  000d4	89 7b 04	 mov	 DWORD PTR [ebx+4], edi
$LN79@GetRemoveI:
  000d7	8b c3		 mov	 eax, ebx

; 370  : }

  000d9	8b 4d f4	 mov	 ecx, DWORD PTR __$EHRec$[ebp]
  000dc	64 89 0d 00 00
	00 00		 mov	 DWORD PTR fs:0, ecx
  000e3	59		 pop	 ecx
  000e4	5f		 pop	 edi
  000e5	5e		 pop	 esi
  000e6	5b		 pop	 ebx
  000e7	8b e5		 mov	 esp, ebp
  000e9	5d		 pop	 ebp
  000ea	c2 0c 00	 ret	 12			; 0000000cH
$LN159@GetRemoveI:
; File C:\Program Files\Microsoft Visual Studio\2022\Professional\VC\Tools\MSVC\14.44.35207\include\vector

; 1704 :             _Xlength();

  000ed	e8 00 00 00 00	 call	 ?_Xlength@?$vector@U__ITEM@CExchange@@V?$allocator@U__ITEM@CExchange@@@std@@@std@@CAXXZ ; std::vector<CExchange::__ITEM,std::allocator<CExchange::__ITEM> >::_Xlength
$LN156@GetRemoveI:
  000f2	cc		 int	 3
_TEXT	ENDS
;	COMDAT text$x
text$x	SEGMENT
__unwindfunclet$?GetRemoveItemList@CExchange@@QAE?AV?$vector@U__ITEM@CExchange@@V?$allocator@U__ITEM@CExchange@@@std@@@std@@HH@Z$0:
  00000	8b 45 f0	 mov	 eax, DWORD PTR $T2[ebp]
  00003	83 e0 01	 and	 eax, 1
  00006	0f 84 0c 00 00
	00		 je	 $LN6@GetRemoveI
  0000c	83 65 f0 fe	 and	 DWORD PTR $T2[ebp], -2	; fffffffeH
  00010	8b 4d 08	 mov	 ecx, DWORD PTR ___$ReturnUdt$[ebp]
  00013	e9 00 00 00 00	 jmp	 ??1?$vector@U__ITEM@CExchange@@V?$allocator@U__ITEM@CExchange@@@std@@@std@@QAE@XZ ; std::vector<CExchange::__ITEM,std::allocator<CExchange::__ITEM> >::~vector<CExchange::__ITEM,std::allocator<CExchange::__ITEM> >
$LN6@GetRemoveI:
  00018	c3		 ret	 0
  00019	cc		 int	 3
  0001a	cc		 int	 3
  0001b	cc		 int	 3
  0001c	cc		 int	 3
  0001d	cc		 int	 3
__ehhandler$?GetRemoveItemList@CExchange@@QAE?AV?$vector@U__ITEM@CExchange@@V?$allocator@U__ITEM@CExchange@@@std@@@std@@HH@Z:
  0001e	90		 npad	 1
  0001f	90		 npad	 1
  00020	8b 54 24 08	 mov	 edx, DWORD PTR [esp+8]
  00024	8d 42 0c	 lea	 eax, DWORD PTR [edx+12]
  00027	8b 4a ec	 mov	 ecx, DWORD PTR [edx-20]
  0002a	33 c8		 xor	 ecx, eax
  0002c	e8 00 00 00 00	 call	 @__security_check_cookie@4
  00031	b8 00 00 00 00	 mov	 eax, OFFSET __ehfuncinfo$?GetRemoveItemList@CExchange@@QAE?AV?$vector@U__ITEM@CExchange@@V?$allocator@U__ITEM@CExchange@@@std@@@std@@HH@Z
  00036	e9 00 00 00 00	 jmp	 ___CxxFrameHandler3
text$x	ENDS
?GetRemoveItemList@CExchange@@QAE?AV?$vector@U__ITEM@CExchange@@V?$allocator@U__ITEM@CExchange@@@std@@@std@@HH@Z ENDP ; CExchange::GetRemoveItemList
; Function compile flags: /Ogtp
; File C:\IAGOS\server\v18\Source\Source\_Common\Exchange.cpp
; File C:\IAGOS\server\v18\Source\Source\_Common\Item.h
; File C:\IAGOS\server\v18\Source\Source\_Common\Exchange.cpp
; File C:\IAGOS\server\v18\Source\Source\_Common\Item.h
; File C:\Program Files\Microsoft Visual Studio\2022\Professional\VC\Tools\MSVC\14.44.35207\include\vector
; File C:\IAGOS\server\v18\Source\Source\_Common\Exchange.cpp
; File C:\Program Files\Microsoft Visual Studio\2022\Professional\VC\Tools\MSVC\14.44.35207\include\vector
; File C:\IAGOS\server\v18\Source\Source\_Common\Exchange.cpp
; File C:\Program Files\Microsoft Visual Studio\2022\Professional\VC\Tools\MSVC\14.44.35207\include\vector
; File C:\IAGOS\server\v18\Source\Source\_Common\Exchange.cpp
; File C:\Program Files\Microsoft Visual Studio\2022\Professional\VC\Tools\MSVC\14.44.35207\include\vector
; File C:\IAGOS\server\v18\Source\Source\_Common\Exchange.cpp
; File C:\Program Files\Microsoft Visual Studio\2022\Professional\VC\Tools\MSVC\14.44.35207\include\vector
; File C:\IAGOS\server\v18\Source\Source\_Common\Exchange.cpp
; File C:\IAGOS\server\v18\Source\Source\_Common\Project.h
; File C:\IAGOS\server\v18\Source\Source\_Common\data.h
; File C:\IAGOS\server\v18\Source\Source\_Common\Exchange.cpp
; File C:\IAGOS\server\v18\Source\Source\_Common\Project.h
; File C:\Program Files\Microsoft Visual Studio\2022\Professional\VC\Tools\MSVC\14.44.35207\include\vector
; File C:\IAGOS\server\v18\Source\Source\_Common\Exchange.cpp
; File C:\Program Files\Microsoft Visual Studio\2022\Professional\VC\Tools\MSVC\14.44.35207\include\vector
; File C:\IAGOS\server\v18\Source\Source\_Common\Exchange.cpp
; File C:\Program Files\Microsoft Visual Studio\2022\Professional\VC\Tools\MSVC\14.44.35207\include\vector
; File C:\IAGOS\server\v18\Source\Source\_Common\Exchange.cpp
; File C:\Program Files\Microsoft Visual Studio\2022\Professional\VC\Tools\MSVC\14.44.35207\include\vector
; File C:\IAGOS\server\v18\Source\Source\_Common\Exchange.cpp
;	COMDAT ?IsFull@CExchange@@QAEHPAVCUser@@V?$vector@U__ITEM@CExchange@@V?$allocator@U__ITEM@CExchange@@@std@@@std@@1@Z
_TEXT	SEGMENT
_i$1$ = -32						; size = 4
_nRemainRemoveItemNum$1$ = -28				; size = 4
tv595 = -24						; size = 4
$T2 = -20						; size = 4
_nEmptyCount$1$ = -16					; size = 4
tv598 = -16						; size = 4
__$EHRec$ = -12						; size = 12
_pUser$ = 8						; size = 4
_i$1$ = 8						; size = 4
_vecRemoveItem$ = 12					; size = 12
_vecPayItem$ = 24					; size = 12
?IsFull@CExchange@@QAEHPAVCUser@@V?$vector@U__ITEM@CExchange@@V?$allocator@U__ITEM@CExchange@@@std@@@std@@1@Z PROC ; CExchange::IsFull, COMDAT
; _this$ = ecx

; 390  : {

  00000	55		 push	 ebp
  00001	8b ec		 mov	 ebp, esp
  00003	6a ff		 push	 -1
  00005	68 00 00 00 00	 push	 __ehhandler$?IsFull@CExchange@@QAEHPAVCUser@@V?$vector@U__ITEM@CExchange@@V?$allocator@U__ITEM@CExchange@@@std@@@std@@1@Z
  0000a	64 a1 00 00 00
	00		 mov	 eax, DWORD PTR fs:0
  00010	50		 push	 eax
  00011	83 ec 14	 sub	 esp, 20			; 00000014H
  00014	53		 push	 ebx
  00015	56		 push	 esi
  00016	57		 push	 edi
  00017	a1 00 00 00 00	 mov	 eax, DWORD PTR ___security_cookie
  0001c	33 c5		 xor	 eax, ebp
  0001e	50		 push	 eax
  0001f	8d 45 f4	 lea	 eax, DWORD PTR __$EHRec$[ebp]
  00022	64 a3 00 00 00
	00		 mov	 DWORD PTR fs:0, eax
; File C:\IAGOS\server\v18\Source\Source\_Common\Item.h

; 420  : 			for( DWORD i = 0; i < m_dwItemMax; i++ )

  00028	8b 45 08	 mov	 eax, DWORD PTR _pUser$[ebp]
  0002b	33 db		 xor	 ebx, ebx
; File C:\IAGOS\server\v18\Source\Source\_Common\Exchange.cpp

; 389  : BOOL CExchange::IsFull( CUser* pUser, vector<__ITEM> vecRemoveItem, vector<__ITEM> vecPayItem )

  0002d	c7 45 fc 01 00
	00 00		 mov	 DWORD PTR __$EHRec$[ebp+8], 1
; File C:\IAGOS\server\v18\Source\Source\_Common\Item.h

; 419  : 			int nCount	= 0;

  00034	89 5d f0	 mov	 DWORD PTR _nEmptyCount$1$[ebp], ebx

; 420  : 			for( DWORD i = 0; i < m_dwItemMax; i++ )

  00037	8b 90 08 0b 00
	00		 mov	 edx, DWORD PTR [eax+2824]
  0003d	8d b8 04 0b 00
	00		 lea	 edi, DWORD PTR [eax+2820]
  00043	89 7d ec	 mov	 DWORD PTR $T2[ebp], edi
  00046	85 d2		 test	 edx, edx
  00048	74 26		 je	 SHORT $LN87@IsFull

; 421  : 			{
; 422  : 				if( m_apItem[i].IsEmpty() && m_apItem[i].m_dwObjIndex < m_dwIndexNum )

  0004a	8b 88 0c 0b 00
	00		 mov	 ecx, DWORD PTR [eax+2828]
  00050	83 c1 08	 add	 ecx, 8
$LL23@IsFull:

; 50   : 	BOOL			IsEmpty() { return m_dwItemId ? FALSE : TRUE; }

  00053	83 79 04 00	 cmp	 DWORD PTR [ecx+4], 0

; 422  : 				if( m_apItem[i].IsEmpty() && m_apItem[i].m_dwObjIndex < m_dwIndexNum )

  00057	75 07		 jne	 SHORT $LN21@IsFull
  00059	8b 01		 mov	 eax, DWORD PTR [ecx]
  0005b	3b 07		 cmp	 eax, DWORD PTR [edi]
  0005d	73 01		 jae	 SHORT $LN21@IsFull

; 423  : 					nCount++;

  0005f	43		 inc	 ebx
$LN21@IsFull:

; 420  : 			for( DWORD i = 0; i < m_dwItemMax; i++ )

  00060	81 c1 b0 00 00
	00		 add	 ecx, 176		; 000000b0H
  00066	83 ea 01	 sub	 edx, 1
  00069	75 e8		 jne	 SHORT $LL23@IsFull
  0006b	89 5d f0	 mov	 DWORD PTR _nEmptyCount$1$[ebp], ebx
  0006e	eb 03		 jmp	 SHORT $LN22@IsFull
$LN87@IsFull:
  00070	89 7d ec	 mov	 DWORD PTR $T2[ebp], edi
$LN22@IsFull:
; File C:\Program Files\Microsoft Visual Studio\2022\Professional\VC\Tools\MSVC\14.44.35207\include\vector

; 1915 :         return static_cast<size_type>(_My_data._Mylast - _My_data._Myfirst);

  00073	8b 45 10	 mov	 eax, DWORD PTR _vecRemoveItem$[ebp+4]
  00076	8b 55 0c	 mov	 edx, DWORD PTR _vecRemoveItem$[ebp]
  00079	2b c2		 sub	 eax, edx
; File C:\IAGOS\server\v18\Source\Source\_Common\Exchange.cpp

; 393  : 	for( int i=0; i<(int)( vecRemoveItem.size() ); i++ )

  0007b	c7 45 e0 00 00
	00 00		 mov	 DWORD PTR _i$1$[ebp], 0
  00082	a9 f0 ff ff ff	 test	 eax, -16		; fffffff0H
  00087	0f 8e 95 00 00
	00		 jle	 $LN3@IsFull

; 391  : 	int nEmptyCount = pUser->m_Inventory.GetEmptyCount();

  0008d	33 c9		 xor	 ecx, ecx
  0008f	89 4d e8	 mov	 DWORD PTR tv595[ebp], ecx
$LL4@IsFull:

; 394  : 	{
; 395  : 		int nRemainRemoveItemNum = vecRemoveItem[i].nItemNum;

  00092	8b 44 11 04	 mov	 eax, DWORD PTR [ecx+edx+4]

; 396  : 		for( int j=0; j<pUser->m_Inventory.GetSize(); j++ )

  00096	33 f6		 xor	 esi, esi
  00098	89 45 e4	 mov	 DWORD PTR _nRemainRemoveItemNum$1$[ebp], eax
  0009b	39 37		 cmp	 DWORD PTR [edi], esi
  0009d	7e 66		 jle	 SHORT $LN2@IsFull
  0009f	8b 45 08	 mov	 eax, DWORD PTR _pUser$[ebp]
  000a2	05 fc 0a 00 00	 add	 eax, 2812		; 00000afcH
  000a7	89 45 f0	 mov	 DWORD PTR tv598[ebp], eax
  000aa	66 0f 1f 44 00
	00		 npad	 6
$LL7@IsFull:

; 397  : 		{
; 398  : 			CItemElem* pItemElem = pUser->m_Inventory.GetAtId( j );

  000b0	56		 push	 esi
  000b1	8b c8		 mov	 ecx, eax
  000b3	e8 00 00 00 00	 call	 ?GetAtId@?$CItemContainer@VCItemElem@@@@QAEPAVCItemElem@@K@Z ; CItemContainer<CItemElem>::GetAtId
  000b8	8b f8		 mov	 edi, eax

; 399  : 			if( IsUsableItem( pItemElem ) && vecRemoveItem[i].dwItemId == pItemElem->m_dwItemId )

  000ba	57		 push	 edi
  000bb	e8 00 00 00 00	 call	 ?IsUsableItem@@YAHPAVCItemBase@@@Z ; IsUsableItem
  000c0	8b 55 0c	 mov	 edx, DWORD PTR _vecRemoveItem$[ebp]
  000c3	83 c4 04	 add	 esp, 4
  000c6	85 c0		 test	 eax, eax
  000c8	74 25		 je	 SHORT $LN5@IsFull
  000ca	8b 45 e8	 mov	 eax, DWORD PTR tv595[ebp]
  000cd	8b 0c 10	 mov	 ecx, DWORD PTR [eax+edx]
  000d0	3b 4f 0c	 cmp	 ecx, DWORD PTR [edi+12]
  000d3	75 1a		 jne	 SHORT $LN5@IsFull

; 400  : 			{
; 401  : 				if( pItemElem->m_nItemNum <= nRemainRemoveItemNum )

  000d5	0f bf 4f 74	 movsx	 ecx, WORD PTR [edi+116]

; 402  : 					nEmptyCount++;
; 403  : 				nRemainRemoveItemNum -= pItemElem->m_nItemNum;

  000d9	8d 43 01	 lea	 eax, DWORD PTR [ebx+1]
  000dc	8b 7d e4	 mov	 edi, DWORD PTR _nRemainRemoveItemNum$1$[ebp]
  000df	3b cf		 cmp	 ecx, edi
  000e1	0f 4f c3	 cmovg	 eax, ebx
  000e4	2b f9		 sub	 edi, ecx
  000e6	89 7d e4	 mov	 DWORD PTR _nRemainRemoveItemNum$1$[ebp], edi
  000e9	8b d8		 mov	 ebx, eax

; 404  : 				if( nRemainRemoveItemNum <= 0 )

  000eb	85 ff		 test	 edi, edi
  000ed	7e 0d		 jle	 SHORT $LN89@IsFull
$LN5@IsFull:

; 396  : 		for( int j=0; j<pUser->m_Inventory.GetSize(); j++ )

  000ef	8b 7d ec	 mov	 edi, DWORD PTR $T2[ebp]
  000f2	46		 inc	 esi
  000f3	8b 45 f0	 mov	 eax, DWORD PTR tv598[ebp]
  000f6	3b 37		 cmp	 esi, DWORD PTR [edi]
  000f8	7c b6		 jl	 SHORT $LL7@IsFull

; 404  : 				if( nRemainRemoveItemNum <= 0 )

  000fa	eb 03		 jmp	 SHORT $LN88@IsFull
$LN89@IsFull:
  000fc	8b 7d ec	 mov	 edi, DWORD PTR $T2[ebp]
$LN88@IsFull:
  000ff	8b 4d e8	 mov	 ecx, DWORD PTR tv595[ebp]
  00102	89 5d f0	 mov	 DWORD PTR _nEmptyCount$1$[ebp], ebx
$LN2@IsFull:
; File C:\Program Files\Microsoft Visual Studio\2022\Professional\VC\Tools\MSVC\14.44.35207\include\vector

; 1915 :         return static_cast<size_type>(_My_data._Mylast - _My_data._Myfirst);

  00105	8b 45 10	 mov	 eax, DWORD PTR _vecRemoveItem$[ebp+4]
; File C:\IAGOS\server\v18\Source\Source\_Common\Exchange.cpp

; 393  : 	for( int i=0; i<(int)( vecRemoveItem.size() ); i++ )

  00108	83 c1 10	 add	 ecx, 16			; 00000010H
  0010b	8b 75 e0	 mov	 esi, DWORD PTR _i$1$[ebp]
; File C:\Program Files\Microsoft Visual Studio\2022\Professional\VC\Tools\MSVC\14.44.35207\include\vector

; 1915 :         return static_cast<size_type>(_My_data._Mylast - _My_data._Myfirst);

  0010e	2b c2		 sub	 eax, edx
; File C:\IAGOS\server\v18\Source\Source\_Common\Exchange.cpp

; 393  : 	for( int i=0; i<(int)( vecRemoveItem.size() ); i++ )

  00110	46		 inc	 esi
; File C:\Program Files\Microsoft Visual Studio\2022\Professional\VC\Tools\MSVC\14.44.35207\include\vector

; 1915 :         return static_cast<size_type>(_My_data._Mylast - _My_data._Myfirst);

  00111	c1 f8 04	 sar	 eax, 4
; File C:\IAGOS\server\v18\Source\Source\_Common\Exchange.cpp

; 393  : 	for( int i=0; i<(int)( vecRemoveItem.size() ); i++ )

  00114	89 75 e0	 mov	 DWORD PTR _i$1$[ebp], esi
  00117	89 4d e8	 mov	 DWORD PTR tv595[ebp], ecx
  0011a	3b f0		 cmp	 esi, eax
  0011c	0f 8c 70 ff ff
	ff		 jl	 $LL4@IsFull
$LN3@IsFull:
; File C:\Program Files\Microsoft Visual Studio\2022\Professional\VC\Tools\MSVC\14.44.35207\include\vector

; 1915 :         return static_cast<size_type>(_My_data._Mylast - _My_data._Myfirst);

  00122	8b 45 1c	 mov	 eax, DWORD PTR _vecPayItem$[ebp+4]
  00125	8b 75 18	 mov	 esi, DWORD PTR _vecPayItem$[ebp]
  00128	2b c6		 sub	 eax, esi
; File C:\IAGOS\server\v18\Source\Source\_Common\Exchange.cpp

; 410  : 	for( int i=0; i<(int)( vecPayItem.size() ); i++ )

  0012a	c7 45 08 00 00
	00 00		 mov	 DWORD PTR _i$1$[ebp], 0
  00131	a9 f0 ff ff ff	 test	 eax, -16		; fffffff0H
  00136	7e 69		 jle	 SHORT $LN9@IsFull
  00138	33 ff		 xor	 edi, edi
  0013a	66 0f 1f 44 00
	00		 npad	 6
$LL10@IsFull:

; 411  : 	{
; 412  : 		ItemProp* pItemProp = prj.GetItemProp( vecPayItem[i].dwItemId );

  00140	8b 0c 37	 mov	 ecx, DWORD PTR [edi+esi]
; File C:\IAGOS\server\v18\Source\Source\_Common\Project.h

; 1389 : 	VERIFY_RANGE_ASSERT( nIndex, 0, m_aPropItem.GetSize(), "GetItemProp range_error", NULL );

  00143	a1 40 02 00 00	 mov	 eax, DWORD PTR ?prj@@3VCProject@@A+576
  00148	85 c9		 test	 ecx, ecx
  0014a	78 23		 js	 SHORT $LN48@IsFull
  0014c	3b c8		 cmp	 ecx, eax
  0014e	7d 1f		 jge	 SHORT $LN48@IsFull
; File C:\IAGOS\server\v18\Source\Source\_Common\data.h

; 270  : 	if( dwIndex >= (DWORD)m_nMaxIndex )

  00150	72 04		 jb	 SHORT $LN53@IsFull

; 271  : 		return NULL;

  00152	33 c9		 xor	 ecx, ecx
  00154	eb 08		 jmp	 SHORT $LN52@IsFull
$LN53@IsFull:

; 272  : 	return (T*) m_apOffset[ dwIndex ];

  00156	a1 30 02 00 00	 mov	 eax, DWORD PTR ?prj@@3VCProject@@A+560
  0015b	8b 0c 88	 mov	 ecx, DWORD PTR [eax+ecx*4]
$LN52@IsFull:
; File C:\IAGOS\server\v18\Source\Source\_Common\Exchange.cpp

; 413  : 		if( pItemProp )

  0015e	85 c9		 test	 ecx, ecx
  00160	74 26		 je	 SHORT $LN8@IsFull

; 414  : 			nEmptyCount -= (int)(vecPayItem[i].nItemNum / pItemProp->dwPackMax);

  00162	8b 44 37 04	 mov	 eax, DWORD PTR [edi+esi+4]
  00166	33 d2		 xor	 edx, edx
  00168	f7 71 6c	 div	 DWORD PTR [ecx+108]
  0016b	2b d8		 sub	 ebx, eax
  0016d	eb 19		 jmp	 SHORT $LN8@IsFull
$LN48@IsFull:
; File C:\IAGOS\server\v18\Source\Source\_Common\Project.h

; 579  : 	LPCTSTR szErr = Error( _T( "%s min:%d, max:%d, index:%d" ), szMsg, nMin, nMax, nIndex ); 

  0016f	51		 push	 ecx
  00170	50		 push	 eax
  00171	6a 00		 push	 0
  00173	68 00 00 00 00	 push	 OFFSET ??_C@_0BI@BEIFNGEL@GetItemProp?5range_error@
  00178	68 00 00 00 00	 push	 OFFSET ??_C@_0BM@HMFGHCP@?$CFs?5min?3?$CFd?0?5max?3?$CFd?0?5index?3?$CFd@
  0017d	e8 00 00 00 00	 call	 ?Error@@YAPBDPBDZZ	; Error
  00182	8b 75 18	 mov	 esi, DWORD PTR _vecPayItem$[ebp]
  00185	83 c4 14	 add	 esp, 20			; 00000014H
$LN8@IsFull:
; File C:\Program Files\Microsoft Visual Studio\2022\Professional\VC\Tools\MSVC\14.44.35207\include\vector

; 1915 :         return static_cast<size_type>(_My_data._Mylast - _My_data._Myfirst);

  00188	8b 45 1c	 mov	 eax, DWORD PTR _vecPayItem$[ebp+4]
; File C:\IAGOS\server\v18\Source\Source\_Common\Exchange.cpp

; 410  : 	for( int i=0; i<(int)( vecPayItem.size() ); i++ )

  0018b	83 c7 10	 add	 edi, 16			; 00000010H
  0018e	8b 4d 08	 mov	 ecx, DWORD PTR _i$1$[ebp]
; File C:\Program Files\Microsoft Visual Studio\2022\Professional\VC\Tools\MSVC\14.44.35207\include\vector

; 1915 :         return static_cast<size_type>(_My_data._Mylast - _My_data._Myfirst);

  00191	2b c6		 sub	 eax, esi
; File C:\IAGOS\server\v18\Source\Source\_Common\Exchange.cpp

; 410  : 	for( int i=0; i<(int)( vecPayItem.size() ); i++ )

  00193	41		 inc	 ecx
; File C:\Program Files\Microsoft Visual Studio\2022\Professional\VC\Tools\MSVC\14.44.35207\include\vector

; 1915 :         return static_cast<size_type>(_My_data._Mylast - _My_data._Myfirst);

  00194	c1 f8 04	 sar	 eax, 4
; File C:\IAGOS\server\v18\Source\Source\_Common\Exchange.cpp

; 410  : 	for( int i=0; i<(int)( vecPayItem.size() ); i++ )

  00197	89 4d 08	 mov	 DWORD PTR _i$1$[ebp], ecx
  0019a	3b c8		 cmp	 ecx, eax
  0019c	7c a2		 jl	 SHORT $LL10@IsFull
  0019e	89 5d f0	 mov	 DWORD PTR _nEmptyCount$1$[ebp], ebx
$LN9@IsFull:
; File C:\Program Files\Microsoft Visual Studio\2022\Professional\VC\Tools\MSVC\14.44.35207\include\vector

; 830  :         _Tidy();

  001a1	33 db		 xor	 ebx, ebx
  001a3	8d 4d 0c	 lea	 ecx, DWORD PTR _vecRemoveItem$[ebp]
  001a6	39 5d f0	 cmp	 DWORD PTR _nEmptyCount$1$[ebp], ebx
  001a9	0f 9e c3	 setle	 bl
  001ac	e8 00 00 00 00	 call	 ?_Tidy@?$vector@U__ITEM@CExchange@@V?$allocator@U__ITEM@CExchange@@@std@@@std@@AAEXXZ ; std::vector<CExchange::__ITEM,std::allocator<CExchange::__ITEM> >::_Tidy
  001b1	8d 4d 18	 lea	 ecx, DWORD PTR _vecPayItem$[ebp]
  001b4	e8 00 00 00 00	 call	 ?_Tidy@?$vector@U__ITEM@CExchange@@V?$allocator@U__ITEM@CExchange@@@std@@@std@@AAEXXZ ; std::vector<CExchange::__ITEM,std::allocator<CExchange::__ITEM> >::_Tidy
; File C:\IAGOS\server\v18\Source\Source\_Common\Exchange.cpp

; 420  : 	return FALSE;

  001b9	8b c3		 mov	 eax, ebx

; 421  : }

  001bb	8b 4d f4	 mov	 ecx, DWORD PTR __$EHRec$[ebp]
  001be	64 89 0d 00 00
	00 00		 mov	 DWORD PTR fs:0, ecx
  001c5	59		 pop	 ecx
  001c6	5f		 pop	 edi
  001c7	5e		 pop	 esi
  001c8	5b		 pop	 ebx
  001c9	8b e5		 mov	 esp, ebp
  001cb	5d		 pop	 ebp
  001cc	c2 1c 00	 ret	 28			; 0000001cH
_TEXT	ENDS
;	COMDAT text$x
text$x	SEGMENT
__unwindfunclet$?IsFull@CExchange@@QAEHPAVCUser@@V?$vector@U__ITEM@CExchange@@V?$allocator@U__ITEM@CExchange@@@std@@@std@@1@Z$0:
  00000	8d 4d 18	 lea	 ecx, DWORD PTR _vecPayItem$[ebp]
  00003	e9 00 00 00 00	 jmp	 ??1?$vector@U__ITEM@CExchange@@V?$allocator@U__ITEM@CExchange@@@std@@@std@@QAE@XZ ; std::vector<CExchange::__ITEM,std::allocator<CExchange::__ITEM> >::~vector<CExchange::__ITEM,std::allocator<CExchange::__ITEM> >
__unwindfunclet$?IsFull@CExchange@@QAEHPAVCUser@@V?$vector@U__ITEM@CExchange@@V?$allocator@U__ITEM@CExchange@@@std@@@std@@1@Z$1:
  00008	8d 4d 0c	 lea	 ecx, DWORD PTR _vecRemoveItem$[ebp]
  0000b	e9 00 00 00 00	 jmp	 ??1?$vector@U__ITEM@CExchange@@V?$allocator@U__ITEM@CExchange@@@std@@@std@@QAE@XZ ; std::vector<CExchange::__ITEM,std::allocator<CExchange::__ITEM> >::~vector<CExchange::__ITEM,std::allocator<CExchange::__ITEM> >
  00010	cc		 int	 3
  00011	cc		 int	 3
  00012	cc		 int	 3
  00013	cc		 int	 3
  00014	cc		 int	 3
__ehhandler$?IsFull@CExchange@@QAEHPAVCUser@@V?$vector@U__ITEM@CExchange@@V?$allocator@U__ITEM@CExchange@@@std@@@std@@1@Z:
  00015	90		 npad	 1
  00016	90		 npad	 1
  00017	8b 54 24 08	 mov	 edx, DWORD PTR [esp+8]
  0001b	8d 42 0c	 lea	 eax, DWORD PTR [edx+12]
  0001e	8b 4a dc	 mov	 ecx, DWORD PTR [edx-36]
  00021	33 c8		 xor	 ecx, eax
  00023	e8 00 00 00 00	 call	 @__security_check_cookie@4
  00028	b8 00 00 00 00	 mov	 eax, OFFSET __ehfuncinfo$?IsFull@CExchange@@QAEHPAVCUser@@V?$vector@U__ITEM@CExchange@@V?$allocator@U__ITEM@CExchange@@@std@@@std@@1@Z
  0002d	e9 00 00 00 00	 jmp	 ___CxxFrameHandler3
text$x	ENDS
?IsFull@CExchange@@QAEHPAVCUser@@V?$vector@U__ITEM@CExchange@@V?$allocator@U__ITEM@CExchange@@@std@@@std@@1@Z ENDP ; CExchange::IsFull
; Function compile flags: /Ogtp
; File C:\IAGOS\server\v18\Source\Source\_Common\Exchange.cpp
; File C:\Program Files\Microsoft Visual Studio\2022\Professional\VC\Tools\MSVC\14.44.35207\include\vector
; File C:\IAGOS\server\v18\Source\Source\_Common\Exchange.cpp
; File C:\Program Files\Microsoft Visual Studio\2022\Professional\VC\Tools\MSVC\14.44.35207\include\vector
; File C:\IAGOS\server\v18\Source\Source\_Common\Exchange.cpp
; File C:\Program Files\Microsoft Visual Studio\2022\Professional\VC\Tools\MSVC\14.44.35207\include\vector
; File C:\IAGOS\server\v18\Source\Source\_Common\Exchange.cpp
; File C:\Program Files\Microsoft Visual Studio\2022\Professional\VC\Tools\MSVC\14.44.35207\include\vector
; File C:\IAGOS\server\v18\Source\Source\_Common\Exchange.cpp
; File C:\Program Files\Microsoft Visual Studio\2022\Professional\VC\Tools\MSVC\14.44.35207\include\vector
; File C:\IAGOS\server\v18\Source\Source\_Common\Exchange.cpp
; File C:\Program Files\Microsoft Visual Studio\2022\Professional\VC\Tools\MSVC\14.44.35207\include\vector
; File C:\IAGOS\server\v18\Source\Source\_Common\Exchange.cpp
; File C:\Program Files\Microsoft Visual Studio\2022\Professional\VC\Tools\MSVC\14.44.35207\include\vector
; File C:\IAGOS\server\v18\Source\Source\_Common\Exchange.cpp
; File C:\Program Files\Microsoft Visual Studio\2022\Professional\VC\Tools\MSVC\14.44.35207\include\vector
; File C:\IAGOS\server\v18\Source\Source\_Common\Exchange.cpp
; File C:\Program Files\Microsoft Visual Studio\2022\Professional\VC\Tools\MSVC\14.44.35207\include\vector
; File C:\IAGOS\server\v18\Source\Source\_Common\Exchange.cpp
; File C:\IAGOS\server\v18\Source\Source\_Common\Project.h
; File C:\IAGOS\server\v18\Source\Source\_Common\data.h
; File C:\IAGOS\server\v18\Source\Source\_Common\Exchange.cpp
; File C:\IAGOS\server\v18\Source\Source\_Common\Project.h
; File C:\IAGOS\server\v18\Source\Source\_Common\Exchange.cpp
; File C:\Program Files\Microsoft Visual Studio\2022\Professional\VC\Tools\MSVC\14.44.35207\include\vector
; File C:\IAGOS\server\v18\Source\Source\_Common\Exchange.cpp
; File C:\Program Files\Microsoft Visual Studio\2022\Professional\VC\Tools\MSVC\14.44.35207\include\vector
; File C:\IAGOS\server\v18\Source\Source\_Common\Exchange.cpp
; File C:\Program Files\Microsoft Visual Studio\2022\Professional\VC\Tools\MSVC\14.44.35207\include\vector
; File C:\IAGOS\server\v18\Source\Source\_Common\Exchange.cpp
; File C:\Program Files\Microsoft Visual Studio\2022\Professional\VC\Tools\MSVC\14.44.35207\include\vector
; File C:\IAGOS\server\v18\Source\Source\_Common\Exchange.cpp
; File C:\Program Files\Microsoft Visual Studio\2022\Professional\VC\Tools\MSVC\14.44.35207\include\vector
; File C:\IAGOS\server\v18\Source\Source\_Common\Exchange.cpp
;	COMDAT ?CheckCondition@CExchange@@QAEHPAVCUser@@HH@Z
_TEXT	SEGMENT
$T2 = -64						; size = 12
_vecItem$ = -52						; size = 12
$T3 = -40						; size = 12
_vecPoint$ = -40					; size = 12
tv714 = -28						; size = 4
_pSetList$1$ = -24					; size = 4
_this$1$ = -20						; size = 4
tv728 = -16						; size = 4
__$EHRec$ = -12						; size = 12
_pUser$ = 8						; size = 4
tv724 = 8						; size = 4
_nMMIId$ = 12						; size = 4
_nListNum$ = 16						; size = 4
?CheckCondition@CExchange@@QAEHPAVCUser@@HH@Z PROC	; CExchange::CheckCondition, COMDAT
; _this$ = ecx

; 260  : {

  00000	55		 push	 ebp
  00001	8b ec		 mov	 ebp, esp
  00003	6a ff		 push	 -1
  00005	68 00 00 00 00	 push	 __ehhandler$?CheckCondition@CExchange@@QAEHPAVCUser@@HH@Z
  0000a	64 a1 00 00 00
	00		 mov	 eax, DWORD PTR fs:0
  00010	50		 push	 eax
  00011	83 ec 34	 sub	 esp, 52			; 00000034H
  00014	53		 push	 ebx
  00015	56		 push	 esi
  00016	57		 push	 edi
  00017	a1 00 00 00 00	 mov	 eax, DWORD PTR ___security_cookie
  0001c	33 c5		 xor	 eax, ebp
  0001e	50		 push	 eax
  0001f	8d 45 f4	 lea	 eax, DWORD PTR __$EHRec$[ebp]
  00022	64 a3 00 00 00
	00		 mov	 DWORD PTR fs:0, eax
  00028	8b c1		 mov	 eax, ecx
  0002a	89 45 ec	 mov	 DWORD PTR _this$1$[ebp], eax

; 261  : 	PSETLIST pSetList = FindExchange( nMMIId );

  0002d	ff 75 0c	 push	 DWORD PTR _nMMIId$[ebp]
  00030	e8 00 00 00 00	 call	 ?FindExchange@CExchange@@QAEPAU__SETLIST@1@H@Z ; CExchange::FindExchange
  00035	89 45 e8	 mov	 DWORD PTR _pSetList$1$[ebp], eax

; 262  : 	if( !pSetList )

  00038	85 c0		 test	 eax, eax
  0003a	0f 84 d0 01 00
	00		 je	 $LN106@CheckCondi
; File C:\Program Files\Microsoft Visual Studio\2022\Professional\VC\Tools\MSVC\14.44.35207\include\vector

; 1915 :         return static_cast<size_type>(_My_data._Mylast - _My_data._Myfirst);

  00040	8b 48 10	 mov	 ecx, DWORD PTR [eax+16]
  00043	8b 78 0c	 mov	 edi, DWORD PTR [eax+12]
  00046	2b cf		 sub	 ecx, edi
  00048	b8 67 66 66 66	 mov	 eax, 1717986919		; 66666667H
  0004d	f7 e9		 imul	 ecx
; File C:\IAGOS\server\v18\Source\Source\_Common\Exchange.cpp

; 265  : 	if( nListNum > (int)( pSetList->vecSet.size()-1 ) )

  0004f	8b 4d 10	 mov	 ecx, DWORD PTR _nListNum$[ebp]
; File C:\Program Files\Microsoft Visual Studio\2022\Professional\VC\Tools\MSVC\14.44.35207\include\vector

; 1915 :         return static_cast<size_type>(_My_data._Mylast - _My_data._Myfirst);

  00052	c1 fa 05	 sar	 edx, 5
  00055	8b c2		 mov	 eax, edx
  00057	c1 e8 1f	 shr	 eax, 31			; 0000001fH
; File C:\IAGOS\server\v18\Source\Source\_Common\Exchange.cpp

; 265  : 	if( nListNum > (int)( pSetList->vecSet.size()-1 ) )

  0005a	48		 dec	 eax
  0005b	03 c2		 add	 eax, edx
  0005d	3b c8		 cmp	 ecx, eax
  0005f	0f 8f ab 01 00
	00		 jg	 $LN106@CheckCondi
; File C:\Program Files\Microsoft Visual Studio\2022\Professional\VC\Tools\MSVC\14.44.35207\include\vector

; 1934 :         return _My_data._Myfirst[_Pos];

  00065	8d 04 89	 lea	 eax, DWORD PTR [ecx+ecx*4]
; File C:\IAGOS\server\v18\Source\Source\_Common\Exchange.cpp

; 268  : 	BOOL bReturn = TRUE;

  00068	be 01 00 00 00	 mov	 esi, 1
; File C:\Program Files\Microsoft Visual Studio\2022\Professional\VC\Tools\MSVC\14.44.35207\include\vector

; 1934 :         return _My_data._Myfirst[_Pos];

  0006d	c1 e0 04	 shl	 eax, 4
; File C:\IAGOS\server\v18\Source\Source\_Common\Exchange.cpp

; 269  : 	vector<__ITEM> vecItem = pSetList->vecSet[nListNum].vecCondItem;

  00070	8d 4d cc	 lea	 ecx, DWORD PTR _vecItem$[ebp]
; File C:\Program Files\Microsoft Visual Studio\2022\Professional\VC\Tools\MSVC\14.44.35207\include\vector

; 1934 :         return _My_data._Myfirst[_Pos];

  00073	89 45 e4	 mov	 DWORD PTR tv714[ebp], eax
; File C:\IAGOS\server\v18\Source\Source\_Common\Exchange.cpp

; 269  : 	vector<__ITEM> vecItem = pSetList->vecSet[nListNum].vecCondItem;

  00076	83 c0 10	 add	 eax, 16			; 00000010H
  00079	03 c7		 add	 eax, edi
  0007b	50		 push	 eax
  0007c	e8 00 00 00 00	 call	 ??0?$vector@U__ITEM@CExchange@@V?$allocator@U__ITEM@CExchange@@@std@@@std@@QAE@ABV01@@Z ; std::vector<CExchange::__ITEM,std::allocator<CExchange::__ITEM> >::vector<CExchange::__ITEM,std::allocator<CExchange::__ITEM> >
; File C:\Program Files\Microsoft Visual Studio\2022\Professional\VC\Tools\MSVC\14.44.35207\include\vector

; 1915 :         return static_cast<size_type>(_My_data._Mylast - _My_data._Myfirst);

  00081	8b 4d d0	 mov	 ecx, DWORD PTR _vecItem$[ebp+4]
  00084	8b 7d cc	 mov	 edi, DWORD PTR _vecItem$[ebp]
  00087	2b cf		 sub	 ecx, edi
; File C:\IAGOS\server\v18\Source\Source\_Common\Exchange.cpp

