; Listing generated by Microsoft (R) Optimizing Compiler Version 19.44.35225.0 

	TITLE	C:\IAGOS\server\v18\Source\Output\WorldServer\Release\Exchange.obj
	.686P
	.XMM
	include listing.inc
	.model	flat

INCLUDELIB LIBCMT
INCLUDELIB OLDNAMES

CONST	SEGMENT
?piecewise_construct@std@@3Upiecewise_construct_t@1@B	ORG $+1 ; std::piecewise_construct
CONST	ENDS
PUBLIC	?__empty_global_delete@@YAXPAX@Z		; __empty_global_delete
PUBLIC	?__empty_global_delete@@YAXPAXI@Z		; __empty_global_delete
PUBLIC	?AtlThrowImpl@ATL@@YGXJ@Z			; ATL::AtlThrowImpl
PUBLIC	?SetString@?$CSimpleStringT@D$0A@@ATL@@QAEXPBDH@Z ; ATL::CSimpleStringT<char,0>::SetString
PUBLIC	?ThrowMemoryException@?$CSimpleStringT@D$0A@@ATL@@KAXXZ ; ATL::CSimpleStringT<char,0>::ThrowMemoryException
PUBLIC	?Fork@?$CSimpleStringT@D$0A@@ATL@@AAEXH@Z	; ATL::CSimpleStringT<char,0>::Fork
PUBLIC	?PrepareWrite2@?$CSimpleStringT@D$0A@@ATL@@AAEXH@Z ; ATL::CSimpleStringT<char,0>::PrepareWrite2
PUBLIC	?Reallocate@?$CSimpleStringT@D$0A@@ATL@@AAEXH@Z	; ATL::CSimpleStringT<char,0>::Reallocate
PUBLIC	??1?$CStringT@DV?$StrTraitMFC@DV?$ChTraitsCRT@D@ATL@@@@@ATL@@QAE@XZ ; ATL::CStringT<char,StrTraitMFC<char,ATL::ChTraitsCRT<char> > >::~CStringT<char,StrTraitMFC<char,ATL::ChTraitsCRT<char> > >
PUBLIC	??0exception@std@@QAE@ABV01@@Z			; std::exception::exception
PUBLIC	??1exception@std@@UAE@XZ			; std::exception::~exception
PUBLIC	?what@exception@std@@UBEPBDXZ			; std::exception::what
PUBLIC	??_Gexception@std@@UAEPAXI@Z			; std::exception::`scalar deleting destructor'
PUBLIC	??0bad_alloc@std@@QAE@ABV01@@Z			; std::bad_alloc::bad_alloc
PUBLIC	??_Gbad_alloc@std@@UAEPAXI@Z			; std::bad_alloc::`scalar deleting destructor'
PUBLIC	??0bad_array_new_length@std@@QAE@XZ		; std::bad_array_new_length::bad_array_new_length
PUBLIC	??1bad_array_new_length@std@@UAE@XZ		; std::bad_array_new_length::~bad_array_new_length
PUBLIC	??0bad_array_new_length@std@@QAE@ABV01@@Z	; std::bad_array_new_length::bad_array_new_length
PUBLIC	??_Gbad_array_new_length@std@@UAEPAXI@Z		; std::bad_array_new_length::`scalar deleting destructor'
PUBLIC	?_Throw_bad_array_new_length@std@@YAXXZ		; std::_Throw_bad_array_new_length
PUBLIC	?_Throw_tree_length_error@std@@YAXXZ		; std::_Throw_tree_length_error
PUBLIC	??0_LogItemInfo@@QAE@XZ				; _LogItemInfo::_LogItemInfo
PUBLIC	?SetMark@CScanner@@UAEXXZ			; CScanner::SetMark
PUBLIC	?GoMark@CScanner@@UAEXXZ			; CScanner::GoMark
PUBLIC	??0?$vector@HV?$allocator@H@std@@@std@@QAE@ABV01@@Z ; std::vector<int,std::allocator<int> >::vector<int,std::allocator<int> >
PUBLIC	??1?$vector@HV?$allocator@H@std@@@std@@QAE@XZ	; std::vector<int,std::allocator<int> >::~vector<int,std::allocator<int> >
PUBLIC	?_Tidy@?$vector@HV?$allocator@H@std@@@std@@AAEXXZ ; std::vector<int,std::allocator<int> >::_Tidy
PUBLIC	?_Xlength@?$vector@HV?$allocator@H@std@@@std@@CAXXZ ; std::vector<int,std::allocator<int> >::_Xlength
PUBLIC	??0?$vector@U__ITEM@CExchange@@V?$allocator@U__ITEM@CExchange@@@std@@@std@@QAE@ABV01@@Z ; std::vector<CExchange::__ITEM,std::allocator<CExchange::__ITEM> >::vector<CExchange::__ITEM,std::allocator<CExchange::__ITEM> >
PUBLIC	??1?$vector@U__ITEM@CExchange@@V?$allocator@U__ITEM@CExchange@@@std@@@std@@QAE@XZ ; std::vector<CExchange::__ITEM,std::allocator<CExchange::__ITEM> >::~vector<CExchange::__ITEM,std::allocator<CExchange::__ITEM> >
PUBLIC	?_Buy_raw@?$vector@U__ITEM@CExchange@@V?$allocator@U__ITEM@CExchange@@@std@@@std@@AAEXI@Z ; std::vector<CExchange::__ITEM,std::allocator<CExchange::__ITEM> >::_Buy_raw
PUBLIC	?_Tidy@?$vector@U__ITEM@CExchange@@V?$allocator@U__ITEM@CExchange@@@std@@@std@@AAEXXZ ; std::vector<CExchange::__ITEM,std::allocator<CExchange::__ITEM> >::_Tidy
PUBLIC	?_Xlength@?$vector@U__ITEM@CExchange@@V?$allocator@U__ITEM@CExchange@@@std@@@std@@CAXXZ ; std::vector<CExchange::__ITEM,std::allocator<CExchange::__ITEM> >::_Xlength
PUBLIC	??0?$vector@U__POINT@CExchange@@V?$allocator@U__POINT@CExchange@@@std@@@std@@QAE@ABV01@@Z ; std::vector<CExchange::__POINT,std::allocator<CExchange::__POINT> >::vector<CExchange::__POINT,std::allocator<CExchange::__POINT> >
PUBLIC	??1?$vector@U__POINT@CExchange@@V?$allocator@U__POINT@CExchange@@@std@@@std@@QAE@XZ ; std::vector<CExchange::__POINT,std::allocator<CExchange::__POINT> >::~vector<CExchange::__POINT,std::allocator<CExchange::__POINT> >
PUBLIC	?_Buy_raw@?$vector@U__POINT@CExchange@@V?$allocator@U__POINT@CExchange@@@std@@@std@@AAEXI@Z ; std::vector<CExchange::__POINT,std::allocator<CExchange::__POINT> >::_Buy_raw
PUBLIC	?_Tidy@?$vector@U__POINT@CExchange@@V?$allocator@U__POINT@CExchange@@@std@@@std@@AAEXXZ ; std::vector<CExchange::__POINT,std::allocator<CExchange::__POINT> >::_Tidy
PUBLIC	?_Xlength@?$vector@U__POINT@CExchange@@V?$allocator@U__POINT@CExchange@@@std@@@std@@CAXXZ ; std::vector<CExchange::__POINT,std::allocator<CExchange::__POINT> >::_Xlength
PUBLIC	??1__SET@CExchange@@QAE@XZ			; CExchange::__SET::~__SET
PUBLIC	??0__SET@CExchange@@QAE@ABU01@@Z		; CExchange::__SET::__SET
PUBLIC	??0__SET@CExchange@@QAE@$$QAU01@@Z		; CExchange::__SET::__SET
PUBLIC	?_Tidy@?$vector@U__SET@CExchange@@V?$allocator@U__SET@CExchange@@@std@@@std@@AAEXXZ ; std::vector<CExchange::__SET,std::allocator<CExchange::__SET> >::_Tidy
PUBLIC	?_Xlength@?$vector@U__SET@CExchange@@V?$allocator@U__SET@CExchange@@@std@@@std@@CAXXZ ; std::vector<CExchange::__SET,std::allocator<CExchange::__SET> >::_Xlength
PUBLIC	??1__SETLIST@CExchange@@QAE@XZ			; CExchange::__SETLIST::~__SETLIST
PUBLIC	??0CExchange@@QAE@XZ				; CExchange::CExchange
PUBLIC	??1CExchange@@UAE@XZ				; CExchange::~CExchange
PUBLIC	?Load_Script@CExchange@@QAEHXZ			; CExchange::Load_Script
PUBLIC	?GetListTextId@CExchange@@QAE?AV?$vector@HV?$allocator@H@std@@@std@@H@Z ; CExchange::GetListTextId
PUBLIC	?GetDescId@CExchange@@QAE?AV?$vector@HV?$allocator@H@std@@@std@@H@Z ; CExchange::GetDescId
PUBLIC	?GetResultMsg@CExchange@@QAE?AV?$vector@HV?$allocator@H@std@@@std@@HH@Z ; CExchange::GetResultMsg
PUBLIC	?FindExchange@CExchange@@QAEPAU__SETLIST@1@H@Z	; CExchange::FindExchange
PUBLIC	?ResultExchange@CExchange@@QAEHPAVCUser@@HH@Z	; CExchange::ResultExchange
PUBLIC	?CheckCondition@CExchange@@QAEHPAVCUser@@HH@Z	; CExchange::CheckCondition
PUBLIC	?IsFull@CExchange@@QAEHPAVCUser@@V?$vector@U__ITEM@CExchange@@V?$allocator@U__ITEM@CExchange@@@std@@@std@@1@Z ; CExchange::IsFull
PUBLIC	?GetRemoveItemList@CExchange@@QAE?AV?$vector@U__ITEM@CExchange@@V?$allocator@U__ITEM@CExchange@@@std@@@std@@HH@Z ; CExchange::GetRemoveItemList
PUBLIC	?GetPayItemList@CExchange@@QAE?AV?$vector@U__ITEM@CExchange@@V?$allocator@U__ITEM@CExchange@@@std@@@std@@HH@Z ; CExchange::GetPayItemList
PUBLIC	?GetRemovePointList@CExchange@@QAE?AV?$vector@U__POINT@CExchange@@V?$allocator@U__POINT@CExchange@@@std@@@std@@HH@Z ; CExchange::GetRemovePointList
PUBLIC	?_Insert_node@?$_Tree_val@U?$_Tree_simple_types@U?$pair@$$CBHU__SETLIST@CExchange@@@std@@@std@@@std@@QAEPAU?$_Tree_node@U?$pair@$$CBHU__SETLIST@CExchange@@@std@@PAX@2@U?$_Tree_id@PAU?$_Tree_node@U?$pair@$$CBHU__SETLIST@CExchange@@@std@@PAX@std@@@2@QAU32@@Z ; std::_Tree_val<std::_Tree_simple_types<std::pair<int const ,CExchange::__SETLIST> > >::_Insert_node
PUBLIC	??_GCExchange@@UAEPAXI@Z			; CExchange::`scalar deleting destructor'
PUBLIC	?GetAtId@?$CItemContainer@VCItemElem@@@@QAEPAVCItemElem@@K@Z ; CItemContainer<CItemElem>::GetAtId
PUBLIC	??$_Allocate_manually_vector_aligned@U_Default_allocate_traits@std@@@std@@YAPAXI@Z ; std::_Allocate_manually_vector_aligned<std::_Default_allocate_traits>
PUBLIC	??1?$pair@$$CBHU__SETLIST@CExchange@@@std@@QAE@XZ ; std::pair<int const ,CExchange::__SETLIST>::~pair<int const ,CExchange::__SETLIST>
PUBLIC	??$_Find_lower_bound@H@?$_Tree@V?$_Tmap_traits@HU__SETLIST@CExchange@@U?$less@H@std@@V?$allocator@U?$pair@$$CBHU__SETLIST@CExchange@@@std@@@4@$0A@@std@@@std@@IBE?AU?$_Tree_find_result@PAU?$_Tree_node@U?$pair@$$CBHU__SETLIST@CExchange@@@std@@PAX@std@@@1@ABH@Z ; std::_Tree<std::_Tmap_traits<int,CExchange::__SETLIST,std::less<int>,std::allocator<std::pair<int const ,CExchange::__SETLIST> >,0> >::_Find_lower_bound<int>
PUBLIC	??1?$_Alloc_construct_ptr@V?$allocator@U?$_Tree_node@U?$pair@$$CBHU__SETLIST@CExchange@@@std@@PAX@std@@@std@@@std@@QAE@XZ ; std::_Alloc_construct_ptr<std::allocator<std::_Tree_node<std::pair<int const ,CExchange::__SETLIST>,void *> > >::~_Alloc_construct_ptr<std::allocator<std::_Tree_node<std::pair<int const ,CExchange::__SETLIST>,void *> > >
PUBLIC	??$_Erase_tree@V?$allocator@U?$_Tree_node@U?$pair@$$CBHU__SETLIST@CExchange@@@std@@PAX@std@@@std@@@?$_Tree_val@U?$_Tree_simple_types@U?$pair@$$CBHU__SETLIST@CExchange@@@std@@@std@@@std@@QAEXAAV?$allocator@U?$_Tree_node@U?$pair@$$CBHU__SETLIST@CExchange@@@std@@PAX@std@@@1@PAU?$_Tree_node@U?$pair@$$CBHU__SETLIST@CExchange@@@std@@PAX@1@@Z ; std::_Tree_val<std::_Tree_simple_types<std::pair<int const ,CExchange::__SETLIST> > >::_Erase_tree<std::allocator<std::_Tree_node<std::pair<int const ,CExchange::__SETLIST>,void *> > >
PUBLIC	??$_Emplace_reallocate@ABU__SET@CExchange@@@?$vector@U__SET@CExchange@@V?$allocator@U__SET@CExchange@@@std@@@std@@AAEPAU__SET@CExchange@@QAU23@ABU23@@Z ; std::vector<CExchange::__SET,std::allocator<CExchange::__SET> >::_Emplace_reallocate<CExchange::__SET const &>
PUBLIC	??$_Copy_memmove_n@PAU__POINT@CExchange@@PAU12@@std@@YAPAU__POINT@CExchange@@PAU12@I0@Z ; std::_Copy_memmove_n<CExchange::__POINT *,CExchange::__POINT *>
PUBLIC	??$_Emplace_reallocate@ABU__POINT@CExchange@@@?$vector@U__POINT@CExchange@@V?$allocator@U__POINT@CExchange@@@std@@@std@@AAEPAU__POINT@CExchange@@QAU23@ABU23@@Z ; std::vector<CExchange::__POINT,std::allocator<CExchange::__POINT> >::_Emplace_reallocate<CExchange::__POINT const &>
PUBLIC	??$_Copy_memmove@PAU__ITEM@CExchange@@PAU12@@std@@YAPAU__ITEM@CExchange@@PAU12@00@Z ; std::_Copy_memmove<CExchange::__ITEM *,CExchange::__ITEM *>
PUBLIC	??$_Copy_memmove_n@PAU__ITEM@CExchange@@PAU12@@std@@YAPAU__ITEM@CExchange@@PAU12@I0@Z ; std::_Copy_memmove_n<CExchange::__ITEM *,CExchange::__ITEM *>
PUBLIC	??$_Emplace_reallocate@ABU__ITEM@CExchange@@@?$vector@U__ITEM@CExchange@@V?$allocator@U__ITEM@CExchange@@@std@@@std@@AAEPAU__ITEM@CExchange@@QAU23@ABU23@@Z ; std::vector<CExchange::__ITEM,std::allocator<CExchange::__ITEM> >::_Emplace_reallocate<CExchange::__ITEM const &>
PUBLIC	??$_Emplace_reallocate@H@?$vector@HV?$allocator@H@std@@@std@@AAEPAHQAH$$QAH@Z ; std::vector<int,std::allocator<int> >::_Emplace_reallocate<int>
PUBLIC	??$_Destroy_range@V?$allocator@U__SET@CExchange@@@std@@@std@@YAXPAU__SET@CExchange@@QAU12@AAV?$allocator@U__SET@CExchange@@@0@@Z ; std::_Destroy_range<std::allocator<CExchange::__SET> >
PUBLIC	??1_Reallocation_guard@?$vector@U__SET@CExchange@@V?$allocator@U__SET@CExchange@@@std@@@std@@QAE@XZ ; std::vector<CExchange::__SET,std::allocator<CExchange::__SET> >::_Reallocation_guard::~_Reallocation_guard
PUBLIC	??$_Copy_memmove_tail@PAU__POINT@CExchange@@@std@@YAPAU__POINT@CExchange@@QBDQAU12@II@Z ; std::_Copy_memmove_tail<CExchange::__POINT *>
PUBLIC	??$_Copy_memmove@PAU__POINT@CExchange@@PAU12@@std@@YAPAU__POINT@CExchange@@PAU12@00@Z ; std::_Copy_memmove<CExchange::__POINT *,CExchange::__POINT *>
PUBLIC	??$_Copy_memmove_tail@PAU__ITEM@CExchange@@@std@@YAPAU__ITEM@CExchange@@QBDQAU12@II@Z ; std::_Copy_memmove_tail<CExchange::__ITEM *>
PUBLIC	??$_Copy_memmove@PAHPAH@std@@YAPAHPAH00@Z	; std::_Copy_memmove<int *,int *>
PUBLIC	??1?$_Tidy_guard@V?$vector@U__SET@CExchange@@V?$allocator@U__SET@CExchange@@@std@@@std@@@std@@QAE@XZ ; std::_Tidy_guard<std::vector<CExchange::__SET,std::allocator<CExchange::__SET> > >::~_Tidy_guard<std::vector<CExchange::__SET,std::allocator<CExchange::__SET> > >
PUBLIC	??1?$_Uninitialized_backout_al@V?$allocator@U__SET@CExchange@@@std@@@std@@QAE@XZ ; std::_Uninitialized_backout_al<std::allocator<CExchange::__SET> >::~_Uninitialized_backout_al<std::allocator<CExchange::__SET> >
PUBLIC	??$_Copy_memmove_tail@PAH@std@@YAPAHQBDQAHII@Z	; std::_Copy_memmove_tail<int *>
PUBLIC	??_C@_02DPKJAMEF@?$CFd@				; `string'
PUBLIC	??_C@_00CNPNBAHC@@				; `string'
PUBLIC	??_7exception@std@@6B@				; std::exception::`vftable'
PUBLIC	??_C@_0BC@EOODALEL@Unknown?5exception@		; `string'
PUBLIC	??_7bad_alloc@std@@6B@				; std::bad_alloc::`vftable'
PUBLIC	??_7bad_array_new_length@std@@6B@		; std::bad_array_new_length::`vftable'
PUBLIC	??_C@_0BF@KINCDENJ@bad?5array?5new?5length@	; `string'
PUBLIC	??_R0?AVexception@std@@@8			; std::exception `RTTI Type Descriptor'
PUBLIC	__CT??_R0?AVexception@std@@@8??0exception@std@@QAE@ABV01@@Z12
PUBLIC	__TI3?AVbad_array_new_length@std@@
PUBLIC	__CTA3?AVbad_array_new_length@std@@
PUBLIC	??_R0?AVbad_array_new_length@std@@@8		; std::bad_array_new_length `RTTI Type Descriptor'
PUBLIC	__CT??_R0?AVbad_array_new_length@std@@@8??0bad_array_new_length@std@@QAE@ABV01@@Z12
PUBLIC	??_R0?AVbad_alloc@std@@@8			; std::bad_alloc `RTTI Type Descriptor'
PUBLIC	__CT??_R0?AVbad_alloc@std@@@8??0bad_alloc@std@@QAE@ABV01@@Z12
PUBLIC	??_C@_0BB@GCADKGJO@map?1set?5too?5long@		; `string'
PUBLIC	??_7CExchange@@6B@				; CExchange::`vftable'
PUBLIC	??_C@_0BM@HMFGHCP@?$CFs?5min?3?$CFd?0?5max?3?$CFd?0?5index?3?$CFd@ ; `string'
PUBLIC	??_C@_0BI@BEIFNGEL@GetItemProp?5range_error@	; `string'
PUBLIC	??_C@_0BA@FOIKENOD@vector?5too?5long@		; `string'
PUBLIC	??_R4exception@std@@6B@				; std::exception::`RTTI Complete Object Locator'
PUBLIC	??_R3exception@std@@8				; std::exception::`RTTI Class Hierarchy Descriptor'
PUBLIC	??_R2exception@std@@8				; std::exception::`RTTI Base Class Array'
PUBLIC	??_R1A@?0A@EA@exception@std@@8			; std::exception::`RTTI Base Class Descriptor at (0,-1,0,64)'
PUBLIC	??_R4bad_array_new_length@std@@6B@		; std::bad_array_new_length::`RTTI Complete Object Locator'
PUBLIC	??_R3bad_array_new_length@std@@8		; std::bad_array_new_length::`RTTI Class Hierarchy Descriptor'
PUBLIC	??_R2bad_array_new_length@std@@8		; std::bad_array_new_length::`RTTI Base Class Array'
PUBLIC	??_R1A@?0A@EA@bad_array_new_length@std@@8	; std::bad_array_new_length::`RTTI Base Class Descriptor at (0,-1,0,64)'
PUBLIC	??_R1A@?0A@EA@bad_alloc@std@@8			; std::bad_alloc::`RTTI Base Class Descriptor at (0,-1,0,64)'
PUBLIC	??_R3bad_alloc@std@@8				; std::bad_alloc::`RTTI Class Hierarchy Descriptor'
PUBLIC	??_R2bad_alloc@std@@8				; std::bad_alloc::`RTTI Base Class Array'
PUBLIC	??_R4bad_alloc@std@@6B@				; std::bad_alloc::`RTTI Complete Object Locator'
PUBLIC	??_C@_0BE@LGHDIFOO@Exchange_Script?4txt@	; `string'
PUBLIC	??_C@_0M@FBMBBIBH@DESCRIPTION@			; `string'
PUBLIC	??_C@_03KPIFFHNE@SET@				; `string'
PUBLIC	??_C@_09JCGANPFG@RESULTMSG@			; `string'
PUBLIC	??_C@_09PCGEOLCH@CONDITION@			; `string'
PUBLIC	??_C@_05CDGEMFOH@PENYA@				; `string'
PUBLIC	??_C@_06PGHHOBB@REMOVE@				; `string'
PUBLIC	??_C@_0BA@GNGHFLG@CONDITION_POINT@		; `string'
PUBLIC	??_C@_0DI@FGEBBCAC@CExchange?3?3Load_Script?$CI?$CJ?5?9?5Inva@ ; `string'
PUBLIC	??_C@_0N@GCLKHGAL@REMOVE_POINT@			; `string'
PUBLIC	??_C@_0DF@EBIDFENE@CExchange?3?3Load_Script?$CI?$CJ?5?9?5Inva@ ; `string'
PUBLIC	??_C@_03PJHCOKL@PAY@				; `string'
PUBLIC	??_C@_0DJ@PHNEEKBK@Exchange_Script?4txt?5?9?$DO?5PAY?5?H?$KO?$LH?$PM@ ; `string'
PUBLIC	??_C@_0DJ@GFNEFJCE@Exchange_Script?4txt?5?9?$DO?5PAY?5?H?$KO?$LH?$PM@ ; `string'
PUBLIC	??_C@_0DK@IFDDKIHH@Exchange_Script?4txt?5?9?$DO?5PAY?5?$CI?$LI?$KO?$LN@ ; `string'
PUBLIC	??_C@_07BFJJNFBL@?$CC?$CFs?$CC?5?$CFd@		; `string'
PUBLIC	??_C@_0BA@PKEMALAC@EXCHANGE_REMOVE@		; `string'
PUBLIC	??_C@_01NEMOKFLO@?$DN@				; `string'
PUBLIC	??_C@_0BA@PGBNEGMH@EXCHANGE_CREATE@		; `string'
PUBLIC	??_C@_0DO@FILECCLL@CExchange?3?3ResultExchange?$CI?$CJ?5?$LO?F?$MA@ ; `string'
PUBLIC	??_R4CExchange@@6B@				; CExchange::`RTTI Complete Object Locator'
PUBLIC	??_R0?AVCExchange@@@8				; CExchange `RTTI Type Descriptor'
PUBLIC	??_R3CExchange@@8				; CExchange::`RTTI Class Hierarchy Descriptor'
PUBLIC	??_R2CExchange@@8				; CExchange::`RTTI Base Class Array'
PUBLIC	??_R1A@?0A@EA@CExchange@@8			; CExchange::`RTTI Base Class Descriptor at (0,-1,0,64)'
PUBLIC	__xmm@00000000000000000000006400000064
EXTRN	??2@YAPAXI@Z:PROC				; operator new
EXTRN	??3@YAXPAXI@Z:PROC				; operator delete
EXTRN	__invalid_parameter_noinfo:PROC
EXTRN	__invoke_watson:PROC
EXTRN	__errno:PROC
EXTRN	__mbscmp:PROC
EXTRN	?AfxThrowMemoryException@@YGXXZ:PROC		; AfxThrowMemoryException
EXTRN	?AfxThrowOleException@@YGXJ@Z:PROC		; AfxThrowOleException
EXTRN	?AfxGetStringManager@@YGPAUIAtlStringMgr@ATL@@XZ:PROC ; AfxGetStringManager
EXTRN	___std_exception_copy:PROC
EXTRN	___std_exception_destroy:PROC
EXTRN	??_Eexception@std@@UAEPAXI@Z:PROC		; std::exception::`vector deleting destructor'
EXTRN	??_Ebad_alloc@std@@UAEPAXI@Z:PROC		; std::bad_alloc::`vector deleting destructor'
EXTRN	??_Ebad_array_new_length@std@@UAEPAXI@Z:PROC	; std::bad_array_new_length::`vector deleting destructor'
EXTRN	?_Xlength_error@std@@YAXPBD@Z:PROC		; std::_Xlength_error
EXTRN	??0CScanner@@QAE@H@Z:PROC			; CScanner::CScanner
EXTRN	??1CScanner@@UAE@XZ:PROC			; CScanner::~CScanner
EXTRN	?GetToken@CScanner@@UAEHH@Z:PROC		; CScanner::GetToken
EXTRN	?Load@CScanner@@QAEHPBDH@Z:PROC			; CScanner::Load
EXTRN	?GetNumber@CScanner@@QAEHH@Z:PROC		; CScanner::GetNumber
EXTRN	?GetDefineNum@CScript@@SAHPBD@Z:PROC		; CScript::GetDefineNum
EXTRN	?Error@@YAPBDPBDZZ:PROC				; Error
EXTRN	??_ECExchange@@UAEPAXI@Z:PROC			; CExchange::`vector deleting destructor'
EXTRN	?SetSerialNumber@CItemBase@@QAEXXZ:PROC		; CItemBase::SetSerialNumber
EXTRN	?GetName@CItemElem@@QAE?AV?$CStringT@DV?$StrTraitMFC@DV?$ChTraitsCRT@D@ATL@@@@@ATL@@XZ:PROC ; CItemElem::GetName
EXTRN	??0CItemElem@@QAE@XZ:PROC			; CItemElem::CItemElem
EXTRN	??1CItemElem@@UAE@XZ:PROC			; CItemElem::~CItemElem
EXTRN	?IsUsableItem@@YAHPAVCItemBase@@@Z:PROC		; IsUsableItem
EXTRN	?GetName@CMover@@QAEPBDH@Z:PROC			; CMover::GetName
EXTRN	?AddGold@CMover@@QAEHHH@Z:PROC			; CMover::AddGold
EXTRN	?GetItemNum@CMover@@QAEHK@Z:PROC		; CMover::GetItemNum
EXTRN	?CreateItem@CMover@@QAEHPAVCItemBase@@PAEPAFE@Z:PROC ; CMover::CreateItem
EXTRN	?RemoveItemA@CMover@@QAEHKF@Z:PROC		; CMover::RemoveItemA
EXTRN	?AddDefinedText@CUser@@QAAXHPBDZZ:PROC		; CUser::AddDefinedText
EXTRN	?GetPointByType@CUser@@QAEHH@Z:PROC		; CUser::GetPointByType
EXTRN	?OnLogItem@CDPSrvr@@QAEXAAU_LogItemInfo@@PAVCItemElem@@H@Z:PROC ; CDPSrvr::OnLogItem
EXTRN	?PutPenyaLog@CDPSrvr@@QAEXPAVCUser@@PBD1H@Z:PROC ; CDPSrvr::PutPenyaLog
EXTRN	?SendUpdateCampusPoint@CDPDatabaseClient@@QAEXKHHD@Z:PROC ; CDPDatabaseClient::SendUpdateCampusPoint
EXTRN	@__security_check_cookie@4:PROC
EXTRN	__CxxThrowException@8:PROC
EXTRN	___CxxFrameHandler3:PROC
EXTRN	_memcpy:PROC
EXTRN	_memmove:PROC
EXTRN	_memset:PROC
EXTRN	??_7type_info@@6B@:QWORD			; type_info::`vftable'
EXTRN	?g_next@@3KA:DWORD				; g_next
EXTRN	?prj@@3VCProject@@A:BYTE			; prj
EXTRN	?g_DPSrvr@@3VCDPSrvr@@A:BYTE			; g_DPSrvr
EXTRN	?g_dpDBClient@@3VCDPDatabaseClient@@A:BYTE	; g_dpDBClient
EXTRN	___security_cookie:DWORD
;	COMDAT __xmm@00000000000000000000006400000064
CONST	SEGMENT
__xmm@00000000000000000000006400000064 DB 'd', 00H, 00H, 00H, 'd', 00H, 00H
	DB	00H, 00H, 00H, 00H, 00H, 00H, 00H, 00H, 00H
CONST	ENDS
;	COMDAT ??_R1A@?0A@EA@CExchange@@8
rdata$r	SEGMENT
??_R1A@?0A@EA@CExchange@@8 DD FLAT:??_R0?AVCExchange@@@8 ; CExchange::`RTTI Base Class Descriptor at (0,-1,0,64)'
	DD	00H
	DD	00H
	DD	0ffffffffH
	DD	00H
	DD	040H
	DD	FLAT:??_R3CExchange@@8
rdata$r	ENDS
;	COMDAT ??_R2CExchange@@8
rdata$r	SEGMENT
??_R2CExchange@@8 DD FLAT:??_R1A@?0A@EA@CExchange@@8	; CExchange::`RTTI Base Class Array'
rdata$r	ENDS
;	COMDAT ??_R3CExchange@@8
rdata$r	SEGMENT
??_R3CExchange@@8 DD 00H				; CExchange::`RTTI Class Hierarchy Descriptor'
	DD	00H
	DD	01H
	DD	FLAT:??_R2CExchange@@8
rdata$r	ENDS
;	COMDAT ??_R0?AVCExchange@@@8
data$rs	SEGMENT
??_R0?AVCExchange@@@8 DD FLAT:??_7type_info@@6B@	; CExchange `RTTI Type Descriptor'
	DD	00H
	DB	'.?AVCExchange@@', 00H
data$rs	ENDS
;	COMDAT ??_R4CExchange@@6B@
rdata$r	SEGMENT
??_R4CExchange@@6B@ DD 00H				; CExchange::`RTTI Complete Object Locator'
	DD	00H
	DD	00H
	DD	FLAT:??_R0?AVCExchange@@@8
	DD	FLAT:??_R3CExchange@@8
rdata$r	ENDS
;	COMDAT ??_C@_0DO@FILECCLL@CExchange?3?3ResultExchange?$CI?$CJ?5?$LO?F?$MA@
CONST	SEGMENT
??_C@_0DO@FILECCLL@CExchange?3?3ResultExchange?$CI?$CJ?5?$LO?F?$MA@ DB 'C'
	DB	'Exchange::ResultExchange() ', 0beH, 0c6H, 0c0H, 0ccH, 0c5H, 0dbH
	DB	' ', 0c1H, 0f6H, 0b1H, 0deH, ' ', 0bdH, 0c7H, 0c6H, 0d0H, ' - '
	DB	'%s, %s, %d, %d', 00H			; `string'
CONST	ENDS
;	COMDAT ??_C@_0BA@PGBNEGMH@EXCHANGE_CREATE@
CONST	SEGMENT
??_C@_0BA@PGBNEGMH@EXCHANGE_CREATE@ DB 'EXCHANGE_CREATE', 00H ; `string'
CONST	ENDS
;	COMDAT ??_C@_01NEMOKFLO@?$DN@
CONST	SEGMENT
??_C@_01NEMOKFLO@?$DN@ DB '=', 00H			; `string'
CONST	ENDS
;	COMDAT ??_C@_0BA@PKEMALAC@EXCHANGE_REMOVE@
CONST	SEGMENT
??_C@_0BA@PKEMALAC@EXCHANGE_REMOVE@ DB 'EXCHANGE_REMOVE', 00H ; `string'
CONST	ENDS
;	COMDAT ??_C@_07BFJJNFBL@?$CC?$CFs?$CC?5?$CFd@
CONST	SEGMENT
??_C@_07BFJJNFBL@?$CC?$CFs?$CC?5?$CFd@ DB '"%s" %d', 00H ; `string'
CONST	ENDS
;	COMDAT ??_C@_0DK@IFDDKIHH@Exchange_Script?4txt?5?9?$DO?5PAY?5?$CI?$LI?$KO?$LN@
CONST	SEGMENT
??_C@_0DK@IFDDKIHH@Exchange_Script?4txt?5?9?$DO?5PAY?5?$CI?$LI?$KO?$LN@ DB 'E'
	DB	'xchange_Script.txt -> PAY (', 0b8H, 0aeH, 0bdH, 0baH, 0c6H, 0aeH
	DB	' ', 0b0H, 0b9H, 0bcH, 0f6H, ' < ', 0c1H, 0f6H, 0b1H, 0deH, ' '
	DB	0b0H, 0b9H, 0bcH, 0f6H, ') : %s', 00H	; `string'
CONST	ENDS
;	COMDAT ??_C@_0DJ@GFNEFJCE@Exchange_Script?4txt?5?9?$DO?5PAY?5?H?$KO?$LH?$PM@
CONST	SEGMENT
??_C@_0DJ@GFNEFJCE@Exchange_Script?4txt?5?9?$DO?5PAY?5?H?$KO?$LH?$PM@ DB 'E'
	DB	'xchange_Script.txt -> PAY ', 0c8H, 0aeH, 0b7H, 0fcH, ' ', 0c7H
	DB	0d5H, 0b0H, 0e8H, 0b0H, 0a1H, ' 1000000 ', 0b9H, 0ccH, 0b8H, 0b8H
	DB	' : %s', 00H					; `string'
CONST	ENDS
;	COMDAT ??_C@_0DJ@PHNEEKBK@Exchange_Script?4txt?5?9?$DO?5PAY?5?H?$KO?$LH?$PM@
CONST	SEGMENT
??_C@_0DJ@PHNEEKBK@Exchange_Script?4txt?5?9?$DO?5PAY?5?H?$KO?$LH?$PM@ DB 'E'
	DB	'xchange_Script.txt -> PAY ', 0c8H, 0aeH, 0b7H, 0fcH, ' ', 0c7H
	DB	0d5H, 0b0H, 0e8H, 0b0H, 0a1H, ' 1000000 ', 0c3H, 0caH, 0b0H, 0faH
	DB	' : %s', 00H					; `string'
CONST	ENDS
;	COMDAT ??_C@_03PJHCOKL@PAY@
CONST	SEGMENT
??_C@_03PJHCOKL@PAY@ DB 'PAY', 00H			; `string'
CONST	ENDS
;	COMDAT ??_C@_0DF@EBIDFENE@CExchange?3?3Load_Script?$CI?$CJ?5?9?5Inva@
CONST	SEGMENT
??_C@_0DF@EBIDFENE@CExchange?3?3Load_Script?$CI?$CJ?5?9?5Inva@ DB 'CExcha'
	DB	'nge::Load_Script() - Invalid REMOVE_POINT Type', 00H ; `string'
CONST	ENDS
;	COMDAT ??_C@_0N@GCLKHGAL@REMOVE_POINT@
CONST	SEGMENT
??_C@_0N@GCLKHGAL@REMOVE_POINT@ DB 'REMOVE_POINT', 00H	; `string'
CONST	ENDS
;	COMDAT ??_C@_0DI@FGEBBCAC@CExchange?3?3Load_Script?$CI?$CJ?5?9?5Inva@
CONST	SEGMENT
??_C@_0DI@FGEBBCAC@CExchange?3?3Load_Script?$CI?$CJ?5?9?5Inva@ DB 'CExcha'
	DB	'nge::Load_Script() - Invalid CONDITION_POINT Type', 00H ; `string'
CONST	ENDS
;	COMDAT ??_C@_0BA@GNGHFLG@CONDITION_POINT@
CONST	SEGMENT
??_C@_0BA@GNGHFLG@CONDITION_POINT@ DB 'CONDITION_POINT', 00H ; `string'
CONST	ENDS
;	COMDAT ??_C@_06PGHHOBB@REMOVE@
CONST	SEGMENT
??_C@_06PGHHOBB@REMOVE@ DB 'REMOVE', 00H		; `string'
CONST	ENDS
;	COMDAT ??_C@_05CDGEMFOH@PENYA@
CONST	SEGMENT
??_C@_05CDGEMFOH@PENYA@ DB 'PENYA', 00H			; `string'
CONST	ENDS
;	COMDAT ??_C@_09PCGEOLCH@CONDITION@
CONST	SEGMENT
??_C@_09PCGEOLCH@CONDITION@ DB 'CONDITION', 00H		; `string'
CONST	ENDS
;	COMDAT ??_C@_09JCGANPFG@RESULTMSG@
CONST	SEGMENT
??_C@_09JCGANPFG@RESULTMSG@ DB 'RESULTMSG', 00H		; `string'
CONST	ENDS
;	COMDAT ??_C@_03KPIFFHNE@SET@
CONST	SEGMENT
??_C@_03KPIFFHNE@SET@ DB 'SET', 00H			; `string'
CONST	ENDS
;	COMDAT ??_C@_0M@FBMBBIBH@DESCRIPTION@
CONST	SEGMENT
??_C@_0M@FBMBBIBH@DESCRIPTION@ DB 'DESCRIPTION', 00H	; `string'
CONST	ENDS
;	COMDAT ??_C@_0BE@LGHDIFOO@Exchange_Script?4txt@
CONST	SEGMENT
??_C@_0BE@LGHDIFOO@Exchange_Script?4txt@ DB 'Exchange_Script.txt', 00H ; `string'
CONST	ENDS
;	COMDAT ??_R4bad_alloc@std@@6B@
rdata$r	SEGMENT
??_R4bad_alloc@std@@6B@ DD 00H				; std::bad_alloc::`RTTI Complete Object Locator'
	DD	00H
	DD	00H
	DD	FLAT:??_R0?AVbad_alloc@std@@@8
	DD	FLAT:??_R3bad_alloc@std@@8
rdata$r	ENDS
;	COMDAT ??_R2bad_alloc@std@@8
rdata$r	SEGMENT
??_R2bad_alloc@std@@8 DD FLAT:??_R1A@?0A@EA@bad_alloc@std@@8 ; std::bad_alloc::`RTTI Base Class Array'
	DD	FLAT:??_R1A@?0A@EA@exception@std@@8
rdata$r	ENDS
;	COMDAT ??_R3bad_alloc@std@@8
rdata$r	SEGMENT
??_R3bad_alloc@std@@8 DD 00H				; std::bad_alloc::`RTTI Class Hierarchy Descriptor'
	DD	00H
	DD	02H
	DD	FLAT:??_R2bad_alloc@std@@8
rdata$r	ENDS
;	COMDAT ??_R1A@?0A@EA@bad_alloc@std@@8
rdata$r	SEGMENT
??_R1A@?0A@EA@bad_alloc@std@@8 DD FLAT:??_R0?AVbad_alloc@std@@@8 ; std::bad_alloc::`RTTI Base Class Descriptor at (0,-1,0,64)'
	DD	01H
	DD	00H
	DD	0ffffffffH
	DD	00H
	DD	040H
	DD	FLAT:??_R3bad_alloc@std@@8
rdata$r	ENDS
;	COMDAT ??_R1A@?0A@EA@bad_array_new_length@std@@8
rdata$r	SEGMENT
??_R1A@?0A@EA@bad_array_new_length@std@@8 DD FLAT:??_R0?AVbad_array_new_length@std@@@8 ; std::bad_array_new_length::`RTTI Base Class Descriptor at (0,-1,0,64)'
	DD	02H
	DD	00H
	DD	0ffffffffH
	DD	00H
	DD	040H
	DD	FLAT:??_R3bad_array_new_length@std@@8
rdata$r	ENDS
;	COMDAT ??_R2bad_array_new_length@std@@8
rdata$r	SEGMENT
??_R2bad_array_new_length@std@@8 DD FLAT:??_R1A@?0A@EA@bad_array_new_length@std@@8 ; std::bad_array_new_length::`RTTI Base Class Array'
	DD	FLAT:??_R1A@?0A@EA@bad_alloc@std@@8
	DD	FLAT:??_R1A@?0A@EA@exception@std@@8
rdata$r	ENDS
;	COMDAT ??_R3bad_array_new_length@std@@8
rdata$r	SEGMENT
??_R3bad_array_new_length@std@@8 DD 00H			; std::bad_array_new_length::`RTTI Class Hierarchy Descriptor'
	DD	00H
	DD	03H
	DD	FLAT:??_R2bad_array_new_length@std@@8
rdata$r	ENDS
;	COMDAT ??_R4bad_array_new_length@std@@6B@
rdata$r	SEGMENT
??_R4bad_array_new_length@std@@6B@ DD 00H		; std::bad_array_new_length::`RTTI Complete Object Locator'
	DD	00H
	DD	00H
	DD	FLAT:??_R0?AVbad_array_new_length@std@@@8
	DD	FLAT:??_R3bad_array_new_length@std@@8
rdata$r	ENDS
;	COMDAT ??_R1A@?0A@EA@exception@std@@8
rdata$r	SEGMENT
??_R1A@?0A@EA@exception@std@@8 DD FLAT:??_R0?AVexception@std@@@8 ; std::exception::`RTTI Base Class Descriptor at (0,-1,0,64)'
	DD	00H
	DD	00H
	DD	0ffffffffH
	DD	00H
	DD	040H
	DD	FLAT:??_R3exception@std@@8
rdata$r	ENDS
;	COMDAT ??_R2exception@std@@8
rdata$r	SEGMENT
??_R2exception@std@@8 DD FLAT:??_R1A@?0A@EA@exception@std@@8 ; std::exception::`RTTI Base Class Array'
rdata$r	ENDS
;	COMDAT ??_R3exception@std@@8
rdata$r	SEGMENT
??_R3exception@std@@8 DD 00H				; std::exception::`RTTI Class Hierarchy Descriptor'
	DD	00H
	DD	01H
	DD	FLAT:??_R2exception@std@@8
rdata$r	ENDS
;	COMDAT ??_R4exception@std@@6B@
rdata$r	SEGMENT
??_R4exception@std@@6B@ DD 00H				; std::exception::`RTTI Complete Object Locator'
	DD	00H
	DD	00H
	DD	FLAT:??_R0?AVexception@std@@@8
	DD	FLAT:??_R3exception@std@@8
rdata$r	ENDS
;	COMDAT ??_C@_0BA@FOIKENOD@vector?5too?5long@
CONST	SEGMENT
??_C@_0BA@FOIKENOD@vector?5too?5long@ DB 'vector too long', 00H ; `string'
CONST	ENDS
;	COMDAT ??_C@_0BI@BEIFNGEL@GetItemProp?5range_error@
CONST	SEGMENT
??_C@_0BI@BEIFNGEL@GetItemProp?5range_error@ DB 'GetItemProp range_error', 00H ; `string'
CONST	ENDS
;	COMDAT ??_C@_0BM@HMFGHCP@?$CFs?5min?3?$CFd?0?5max?3?$CFd?0?5index?3?$CFd@
CONST	SEGMENT
??_C@_0BM@HMFGHCP@?$CFs?5min?3?$CFd?0?5max?3?$CFd?0?5index?3?$CFd@ DB '%s'
	DB	' min:%d, max:%d, index:%d', 00H		; `string'
CONST	ENDS
;	COMDAT ??_7CExchange@@6B@
CONST	SEGMENT
??_7CExchange@@6B@ DD FLAT:??_R4CExchange@@6B@		; CExchange::`vftable'
	DD	FLAT:??_ECExchange@@UAEPAXI@Z
CONST	ENDS
;	COMDAT ??_C@_0BB@GCADKGJO@map?1set?5too?5long@
CONST	SEGMENT
??_C@_0BB@GCADKGJO@map?1set?5too?5long@ DB 'map/set too long', 00H ; `string'
CONST	ENDS
;	COMDAT __CT??_R0?AVbad_alloc@std@@@8??0bad_alloc@std@@QAE@ABV01@@Z12
xdata$x	SEGMENT
__CT??_R0?AVbad_alloc@std@@@8??0bad_alloc@std@@QAE@ABV01@@Z12 DD 010H
	DD	FLAT:??_R0?AVbad_alloc@std@@@8
	DD	00H
	DD	0ffffffffH
	ORG $+4
	DD	0cH
	DD	FLAT:??0bad_alloc@std@@QAE@ABV01@@Z
xdata$x	ENDS
;	COMDAT ??_R0?AVbad_alloc@std@@@8
data$r	SEGMENT
??_R0?AVbad_alloc@std@@@8 DD FLAT:??_7type_info@@6B@	; std::bad_alloc `RTTI Type Descriptor'
	DD	00H
	DB	'.?AVbad_alloc@std@@', 00H
data$r	ENDS
;	COMDAT __CT??_R0?AVbad_array_new_length@std@@@8??0bad_array_new_length@std@@QAE@ABV01@@Z12
xdata$x	SEGMENT
__CT??_R0?AVbad_array_new_length@std@@@8??0bad_array_new_length@std@@QAE@ABV01@@Z12 DD 00H
	DD	FLAT:??_R0?AVbad_array_new_length@std@@@8
	DD	00H
	DD	0ffffffffH
	ORG $+4
	DD	0cH
	DD	FLAT:??0bad_array_new_length@std@@QAE@ABV01@@Z
xdata$x	ENDS
;	COMDAT ??_R0?AVbad_array_new_length@std@@@8
data$r	SEGMENT
??_R0?AVbad_array_new_length@std@@@8 DD FLAT:??_7type_info@@6B@ ; std::bad_array_new_length `RTTI Type Descriptor'
	DD	00H
	DB	'.?AVbad_array_new_length@std@@', 00H
data$r	ENDS
;	COMDAT __CTA3?AVbad_array_new_length@std@@
xdata$x	SEGMENT
__CTA3?AVbad_array_new_length@std@@ DD 03H
	DD	FLAT:__CT??_R0?AVbad_array_new_length@std@@@8??0bad_array_new_length@std@@QAE@ABV01@@Z12
	DD	FLAT:__CT??_R0?AVbad_alloc@std@@@8??0bad_alloc@std@@QAE@ABV01@@Z12
	DD	FLAT:__CT??_R0?AVexception@std@@@8??0exception@std@@QAE@ABV01@@Z12
xdata$x	ENDS
;	COMDAT __TI3?AVbad_array_new_length@std@@
xdata$x	SEGMENT
__TI3?AVbad_array_new_length@std@@ DD 00H
	DD	FLAT:??1bad_array_new_length@std@@UAE@XZ
	DD	00H
	DD	FLAT:__CTA3?AVbad_array_new_length@std@@
xdata$x	ENDS
;	COMDAT __CT??_R0?AVexception@std@@@8??0exception@std@@QAE@ABV01@@Z12
xdata$x	SEGMENT
__CT??_R0?AVexception@std@@@8??0exception@std@@QAE@ABV01@@Z12 DD 00H
	DD	FLAT:??_R0?AVexception@std@@@8
	DD	00H
	DD	0ffffffffH
	ORG $+4
	DD	0cH
	DD	FLAT:??0exception@std@@QAE@ABV01@@Z
xdata$x	ENDS
;	COMDAT ??_R0?AVexception@std@@@8
data$r	SEGMENT
??_R0?AVexception@std@@@8 DD FLAT:??_7type_info@@6B@	; std::exception `RTTI Type Descriptor'
	DD	00H
	DB	'.?AVexception@std@@', 00H
data$r	ENDS
;	COMDAT ??_C@_0BF@KINCDENJ@bad?5array?5new?5length@
CONST	SEGMENT
??_C@_0BF@KINCDENJ@bad?5array?5new?5length@ DB 'bad array new length', 00H ; `string'
CONST	ENDS
;	COMDAT ??_7bad_array_new_length@std@@6B@
CONST	SEGMENT
??_7bad_array_new_length@std@@6B@ DD FLAT:??_R4bad_array_new_length@std@@6B@ ; std::bad_array_new_length::`vftable'
	DD	FLAT:??_Ebad_array_new_length@std@@UAEPAXI@Z
	DD	FLAT:?what@exception@std@@UBEPBDXZ
CONST	ENDS
;	COMDAT ??_7bad_alloc@std@@6B@
CONST	SEGMENT
??_7bad_alloc@std@@6B@ DD FLAT:??_R4bad_alloc@std@@6B@	; std::bad_alloc::`vftable'
	DD	FLAT:??_Ebad_alloc@std@@UAEPAXI@Z
	DD	FLAT:?what@exception@std@@UBEPBDXZ
CONST	ENDS
;	COMDAT ??_C@_0BC@EOODALEL@Unknown?5exception@
CONST	SEGMENT
??_C@_0BC@EOODALEL@Unknown?5exception@ DB 'Unknown exception', 00H ; `string'
CONST	ENDS
;	COMDAT ??_7exception@std@@6B@
CONST	SEGMENT
??_7exception@std@@6B@ DD FLAT:??_R4exception@std@@6B@	; std::exception::`vftable'
	DD	FLAT:??_Eexception@std@@UAEPAXI@Z
	DD	FLAT:?what@exception@std@@UBEPBDXZ
CONST	ENDS
;	COMDAT ??_C@_00CNPNBAHC@@
CONST	SEGMENT
??_C@_00CNPNBAHC@@ DB 00H				; `string'
CONST	ENDS
;	COMDAT ??_C@_02DPKJAMEF@?$CFd@
CONST	SEGMENT
??_C@_02DPKJAMEF@?$CFd@ DB '%d', 00H			; `string'
CONST	ENDS
;	COMDAT xdata$x
xdata$x	SEGMENT
__unwindtable$??$_Uninitialized_copy@PAU__SET@CExchange@@PAU12@V?$allocator@U__SET@CExchange@@@std@@@std@@YAPAU__SET@CExchange@@PAU12@00AAV?$allocator@U__SET@CExchange@@@0@@Z DD 0ffffffffH
	DD	FLAT:__unwindfunclet$??$_Uninitialized_copy@PAU__SET@CExchange@@PAU12@V?$allocator@U__SET@CExchange@@@std@@@std@@YAPAU__SET@CExchange@@PAU12@00AAV?$allocator@U__SET@CExchange@@@0@@Z$0
__ehfuncinfo$??$_Uninitialized_copy@PAU__SET@CExchange@@PAU12@V?$allocator@U__SET@CExchange@@@std@@@std@@YAPAU__SET@CExchange@@PAU12@00AAV?$allocator@U__SET@CExchange@@@0@@Z DD 019930522H
	DD	01H
	DD	FLAT:__unwindtable$??$_Uninitialized_copy@PAU__SET@CExchange@@PAU12@V?$allocator@U__SET@CExchange@@@std@@@std@@YAPAU__SET@CExchange@@PAU12@00AAV?$allocator@U__SET@CExchange@@@0@@Z
	DD	2 DUP(00H)
	DD	2 DUP(00H)
	DD	00H
	DD	01H
xdata$x	ENDS
;	COMDAT xdata$x
xdata$x	SEGMENT
__unwindtable$??$_Construct_n@ABQAU__SET@CExchange@@ABQAU12@@?$vector@U__SET@CExchange@@V?$allocator@U__SET@CExchange@@@std@@@std@@AAEXIABQAU__SET@CExchange@@0@Z DD 0ffffffffH
	DD	FLAT:__unwindfunclet$??$_Construct_n@ABQAU__SET@CExchange@@ABQAU12@@?$vector@U__SET@CExchange@@V?$allocator@U__SET@CExchange@@@std@@@std@@AAEXIABQAU__SET@CExchange@@0@Z$0
	DD	00H
	DD	FLAT:__unwindfunclet$??$_Construct_n@ABQAU__SET@CExchange@@ABQAU12@@?$vector@U__SET@CExchange@@V?$allocator@U__SET@CExchange@@@std@@@std@@AAEXIABQAU__SET@CExchange@@0@Z$1
__ehfuncinfo$??$_Construct_n@ABQAU__SET@CExchange@@ABQAU12@@?$vector@U__SET@CExchange@@V?$allocator@U__SET@CExchange@@@std@@@std@@AAEXIABQAU__SET@CExchange@@0@Z DD 019930522H
	DD	02H
	DD	FLAT:__unwindtable$??$_Construct_n@ABQAU__SET@CExchange@@ABQAU12@@?$vector@U__SET@CExchange@@V?$allocator@U__SET@CExchange@@@std@@@std@@AAEXIABQAU__SET@CExchange@@0@Z
	DD	2 DUP(00H)
	DD	2 DUP(00H)
	DD	00H
	DD	01H
xdata$x	ENDS
;	COMDAT xdata$x
xdata$x	SEGMENT
__unwindtable$??$_Emplace_reallocate@ABU__SET@CExchange@@@?$vector@U__SET@CExchange@@V?$allocator@U__SET@CExchange@@@std@@@std@@AAEPAU__SET@CExchange@@QAU23@ABU23@@Z DD 0ffffffffH
	DD	FLAT:__unwindfunclet$??$_Emplace_reallocate@ABU__SET@CExchange@@@?$vector@U__SET@CExchange@@V?$allocator@U__SET@CExchange@@@std@@@std@@AAEPAU__SET@CExchange@@QAU23@ABU23@@Z$0
__ehfuncinfo$??$_Emplace_reallocate@ABU__SET@CExchange@@@?$vector@U__SET@CExchange@@V?$allocator@U__SET@CExchange@@@std@@@std@@AAEPAU__SET@CExchange@@QAU23@ABU23@@Z DD 019930522H
	DD	01H
	DD	FLAT:__unwindtable$??$_Emplace_reallocate@ABU__SET@CExchange@@@?$vector@U__SET@CExchange@@V?$allocator@U__SET@CExchange@@@std@@@std@@AAEPAU__SET@CExchange@@QAU23@ABU23@@Z
	DD	2 DUP(00H)
	DD	2 DUP(00H)
	DD	00H
	DD	01H
xdata$x	ENDS
;	COMDAT xdata$x
xdata$x	SEGMENT
__unwindtable$??$?0U?$pair@$$CBHU__SETLIST@CExchange@@@std@@@?$_Tree_temp_node@V?$allocator@U?$_Tree_node@U?$pair@$$CBHU__SETLIST@CExchange@@@std@@PAX@std@@@std@@@std@@QAE@AAV?$allocator@U?$_Tree_node@U?$pair@$$CBHU__SETLIST@CExchange@@@std@@PAX@std@@@1@PAU?$_Tree_node@U?$pair@$$CBHU__SETLIST@CExchange@@@std@@PAX@1@$$QAU?$pair@$$CBHU__SETLIST@CExchange@@@1@@Z DD 0ffffffffH
	DD	FLAT:__unwindfunclet$??$?0U?$pair@$$CBHU__SETLIST@CExchange@@@std@@@?$_Tree_temp_node@V?$allocator@U?$_Tree_node@U?$pair@$$CBHU__SETLIST@CExchange@@@std@@PAX@std@@@std@@@std@@QAE@AAV?$allocator@U?$_Tree_node@U?$pair@$$CBHU__SETLIST@CExchange@@@std@@PAX@std@@@1@PAU?$_Tree_node@U?$pair@$$CBHU__SETLIST@CExchange@@@std@@PAX@1@$$QAU?$pair@$$CBHU__SETLIST@CExchange@@@1@@Z$1
__ehfuncinfo$??$?0U?$pair@$$CBHU__SETLIST@CExchange@@@std@@@?$_Tree_temp_node@V?$allocator@U?$_Tree_node@U?$pair@$$CBHU__SETLIST@CExchange@@@std@@PAX@std@@@std@@@std@@QAE@AAV?$allocator@U?$_Tree_node@U?$pair@$$CBHU__SETLIST@CExchange@@@std@@PAX@std@@@1@PAU?$_Tree_node@U?$pair@$$CBHU__SETLIST@CExchange@@@std@@PAX@1@$$QAU?$pair@$$CBHU__SETLIST@CExchange@@@1@@Z DD 019930522H
	DD	01H
	DD	FLAT:__unwindtable$??$?0U?$pair@$$CBHU__SETLIST@CExchange@@@std@@@?$_Tree_temp_node@V?$allocator@U?$_Tree_node@U?$pair@$$CBHU__SETLIST@CExchange@@@std@@PAX@std@@@std@@@std@@QAE@AAV?$allocator@U?$_Tree_node@U?$pair@$$CBHU__SETLIST@CExchange@@@std@@PAX@std@@@1@PAU?$_Tree_node@U?$pair@$$CBHU__SETLIST@CExchange@@@std@@PAX@1@$$QAU?$pair@$$CBHU__SETLIST@CExchange@@@1@@Z
	DD	2 DUP(00H)
	DD	2 DUP(00H)
	DD	00H
	DD	01H
xdata$x	ENDS
;	COMDAT xdata$x
xdata$x	SEGMENT
__unwindtable$??0?$_Tree_temp_node_alloc@V?$allocator@U?$_Tree_node@U?$pair@$$CBHU__SETLIST@CExchange@@@std@@PAX@std@@@std@@@std@@QAE@AAV?$allocator@U?$_Tree_node@U?$pair@$$CBHU__SETLIST@CExchange@@@std@@PAX@std@@@1@@Z DD 0ffffffffH
	DD	FLAT:__unwindfunclet$??0?$_Tree_temp_node_alloc@V?$allocator@U?$_Tree_node@U?$pair@$$CBHU__SETLIST@CExchange@@@std@@PAX@std@@@std@@@std@@QAE@AAV?$allocator@U?$_Tree_node@U?$pair@$$CBHU__SETLIST@CExchange@@@std@@PAX@std@@@1@@Z$0
__ehfuncinfo$??0?$_Tree_temp_node_alloc@V?$allocator@U?$_Tree_node@U?$pair@$$CBHU__SETLIST@CExchange@@@std@@PAX@std@@@std@@@std@@QAE@AAV?$allocator@U?$_Tree_node@U?$pair@$$CBHU__SETLIST@CExchange@@@std@@PAX@std@@@1@@Z DD 019930522H
	DD	01H
	DD	FLAT:__unwindtable$??0?$_Tree_temp_node_alloc@V?$allocator@U?$_Tree_node@U?$pair@$$CBHU__SETLIST@CExchange@@@std@@PAX@std@@@std@@@std@@QAE@AAV?$allocator@U?$_Tree_node@U?$pair@$$CBHU__SETLIST@CExchange@@@std@@PAX@std@@@1@@Z
	DD	2 DUP(00H)
	DD	2 DUP(00H)
	DD	00H
	DD	01H
xdata$x	ENDS
;	COMDAT xdata$x
xdata$x	SEGMENT
__unwindtable$??$_Emplace@U?$pair@$$CBHU__SETLIST@CExchange@@@std@@@?$_Tree@V?$_Tmap_traits@HU__SETLIST@CExchange@@U?$less@H@std@@V?$allocator@U?$pair@$$CBHU__SETLIST@CExchange@@@std@@@4@$0A@@std@@@std@@IAE?AU?$pair@PAU?$_Tree_node@U?$pair@$$CBHU__SETLIST@CExchange@@@std@@PAX@std@@_N@1@$$QAU?$pair@$$CBHU__SETLIST@CExchange@@@1@@Z DD 0ffffffffH
	DD	FLAT:__unwindfunclet$??$_Emplace@U?$pair@$$CBHU__SETLIST@CExchange@@@std@@@?$_Tree@V?$_Tmap_traits@HU__SETLIST@CExchange@@U?$less@H@std@@V?$allocator@U?$pair@$$CBHU__SETLIST@CExchange@@@std@@@4@$0A@@std@@@std@@IAE?AU?$pair@PAU?$_Tree_node@U?$pair@$$CBHU__SETLIST@CExchange@@@std@@PAX@std@@_N@1@$$QAU?$pair@$$CBHU__SETLIST@CExchange@@@1@@Z$2
__ehfuncinfo$??$_Emplace@U?$pair@$$CBHU__SETLIST@CExchange@@@std@@@?$_Tree@V?$_Tmap_traits@HU__SETLIST@CExchange@@U?$less@H@std@@V?$allocator@U?$pair@$$CBHU__SETLIST@CExchange@@@std@@@4@$0A@@std@@@std@@IAE?AU?$pair@PAU?$_Tree_node@U?$pair@$$CBHU__SETLIST@CExchange@@@std@@PAX@std@@_N@1@$$QAU?$pair@$$CBHU__SETLIST@CExchange@@@1@@Z DD 019930522H
	DD	01H
	DD	FLAT:__unwindtable$??$_Emplace@U?$pair@$$CBHU__SETLIST@CExchange@@@std@@@?$_Tree@V?$_Tmap_traits@HU__SETLIST@CExchange@@U?$less@H@std@@V?$allocator@U?$pair@$$CBHU__SETLIST@CExchange@@@std@@@4@$0A@@std@@@std@@IAE?AU?$pair@PAU?$_Tree_node@U?$pair@$$CBHU__SETLIST@CExchange@@@std@@PAX@std@@_N@1@$$QAU?$pair@$$CBHU__SETLIST@CExchange@@@1@@Z
	DD	2 DUP(00H)
	DD	2 DUP(00H)
	DD	00H
	DD	01H
xdata$x	ENDS
;	COMDAT xdata$x
xdata$x	SEGMENT
__unwindtable$??$insert@$0A@$0A@@?$_Tree@V?$_Tmap_traits@HU__SETLIST@CExchange@@U?$less@H@std@@V?$allocator@U?$pair@$$CBHU__SETLIST@CExchange@@@std@@@4@$0A@@std@@@std@@QAE?AU?$pair@V?$_Tree_iterator@V?$_Tree_val@U?$_Tree_simple_types@U?$pair@$$CBHU__SETLIST@CExchange@@@std@@@std@@@std@@@std@@_N@1@$$QAU?$pair@$$CBHU__SETLIST@CExchange@@@1@@Z DD 0ffffffffH
	DD	FLAT:__unwindfunclet$??$insert@$0A@$0A@@?$_Tree@V?$_Tmap_traits@HU__SETLIST@CExchange@@U?$less@H@std@@V?$allocator@U?$pair@$$CBHU__SETLIST@CExchange@@@std@@@4@$0A@@std@@@std@@QAE?AU?$pair@V?$_Tree_iterator@V?$_Tree_val@U?$_Tree_simple_types@U?$pair@$$CBHU__SETLIST@CExchange@@@std@@@std@@@std@@@std@@_N@1@$$QAU?$pair@$$CBHU__SETLIST@CExchange@@@1@@Z$2
__ehfuncinfo$??$insert@$0A@$0A@@?$_Tree@V?$_Tmap_traits@HU__SETLIST@CExchange@@U?$less@H@std@@V?$allocator@U?$pair@$$CBHU__SETLIST@CExchange@@@std@@@4@$0A@@std@@@std@@QAE?AU?$pair@V?$_Tree_iterator@V?$_Tree_val@U?$_Tree_simple_types@U?$pair@$$CBHU__SETLIST@CExchange@@@std@@@std@@@std@@@std@@_N@1@$$QAU?$pair@$$CBHU__SETLIST@CExchange@@@1@@Z DD 019930522H
	DD	01H
	DD	FLAT:__unwindtable$??$insert@$0A@$0A@@?$_Tree@V?$_Tmap_traits@HU__SETLIST@CExchange@@U?$less@H@std@@V?$allocator@U?$pair@$$CBHU__SETLIST@CExchange@@@std@@@4@$0A@@std@@@std@@QAE?AU?$pair@V?$_Tree_iterator@V?$_Tree_val@U?$_Tree_simple_types@U?$pair@$$CBHU__SETLIST@CExchange@@@std@@@std@@@std@@@std@@_N@1@$$QAU?$pair@$$CBHU__SETLIST@CExchange@@@1@@Z
	DD	2 DUP(00H)
	DD	2 DUP(00H)
	DD	00H
	DD	01H
xdata$x	ENDS
;	COMDAT xdata$x
xdata$x	SEGMENT
__unwindtable$??$?0AAHAAU__SETLIST@CExchange@@$0A@@?$pair@$$CBHU__SETLIST@CExchange@@@std@@QAE@AAHAAU__SETLIST@CExchange@@@Z DD 0ffffffffH
	DD	FLAT:__unwindfunclet$??$?0AAHAAU__SETLIST@CExchange@@$0A@@?$pair@$$CBHU__SETLIST@CExchange@@@std@@QAE@AAHAAU__SETLIST@CExchange@@@Z$1
	DD	00H
	DD	FLAT:__unwindfunclet$??$?0AAHAAU__SETLIST@CExchange@@$0A@@?$pair@$$CBHU__SETLIST@CExchange@@@std@@QAE@AAHAAU__SETLIST@CExchange@@@Z$3
	DD	01H
	DD	FLAT:__unwindfunclet$??$?0AAHAAU__SETLIST@CExchange@@$0A@@?$pair@$$CBHU__SETLIST@CExchange@@@std@@QAE@AAHAAU__SETLIST@CExchange@@@Z$4
__ehfuncinfo$??$?0AAHAAU__SETLIST@CExchange@@$0A@@?$pair@$$CBHU__SETLIST@CExchange@@@std@@QAE@AAHAAU__SETLIST@CExchange@@@Z DD 019930522H
	DD	03H
	DD	FLAT:__unwindtable$??$?0AAHAAU__SETLIST@CExchange@@$0A@@?$pair@$$CBHU__SETLIST@CExchange@@@std@@QAE@AAHAAU__SETLIST@CExchange@@@Z
	DD	2 DUP(00H)
	DD	2 DUP(00H)
	DD	00H
	DD	01H
xdata$x	ENDS
;	COMDAT xdata$x
xdata$x	SEGMENT
__unwindtable$?GetRemovePointList@CExchange@@QAE?AV?$vector@U__POINT@CExchange@@V?$allocator@U__POINT@CExchange@@@std@@@std@@HH@Z DD 0ffffffffH
	DD	FLAT:__unwindfunclet$?GetRemovePointList@CExchange@@QAE?AV?$vector@U__POINT@CExchange@@V?$allocator@U__POINT@CExchange@@@std@@@std@@HH@Z$0
__ehfuncinfo$?GetRemovePointList@CExchange@@QAE?AV?$vector@U__POINT@CExchange@@V?$allocator@U__POINT@CExchange@@@std@@@std@@HH@Z DD 019930522H
	DD	01H
	DD	FLAT:__unwindtable$?GetRemovePointList@CExchange@@QAE?AV?$vector@U__POINT@CExchange@@V?$allocator@U__POINT@CExchange@@@std@@@std@@HH@Z
	DD	2 DUP(00H)
	DD	2 DUP(00H)
	DD	00H
	DD	01H
xdata$x	ENDS
;	COMDAT xdata$x
xdata$x	SEGMENT
__unwindtable$?GetPayItemList@CExchange@@QAE?AV?$vector@U__ITEM@CExchange@@V?$allocator@U__ITEM@CExchange@@@std@@@std@@HH@Z DD 0ffffffffH
	DD	FLAT:__unwindfunclet$?GetPayItemList@CExchange@@QAE?AV?$vector@U__ITEM@CExchange@@V?$allocator@U__ITEM@CExchange@@@std@@@std@@HH@Z$0
	DD	00H
	DD	FLAT:__unwindfunclet$?GetPayItemList@CExchange@@QAE?AV?$vector@U__ITEM@CExchange@@V?$allocator@U__ITEM@CExchange@@@std@@@std@@HH@Z$1
__ehfuncinfo$?GetPayItemList@CExchange@@QAE?AV?$vector@U__ITEM@CExchange@@V?$allocator@U__ITEM@CExchange@@@std@@@std@@HH@Z DD 019930522H
	DD	02H
	DD	FLAT:__unwindtable$?GetPayItemList@CExchange@@QAE?AV?$vector@U__ITEM@CExchange@@V?$allocator@U__ITEM@CExchange@@@std@@@std@@HH@Z
	DD	2 DUP(00H)
	DD	2 DUP(00H)
	DD	00H
	DD	01H
xdata$x	ENDS
;	COMDAT xdata$x
xdata$x	SEGMENT
__unwindtable$?GetRemoveItemList@CExchange@@QAE?AV?$vector@U__ITEM@CExchange@@V?$allocator@U__ITEM@CExchange@@@std@@@std@@HH@Z DD 0ffffffffH
	DD	FLAT:__unwindfunclet$?GetRemoveItemList@CExchange@@QAE?AV?$vector@U__ITEM@CExchange@@V?$allocator@U__ITEM@CExchange@@@std@@@std@@HH@Z$0
__ehfuncinfo$?GetRemoveItemList@CExchange@@QAE?AV?$vector@U__ITEM@CExchange@@V?$allocator@U__ITEM@CExchange@@@std@@@std@@HH@Z DD 019930522H
	DD	01H
	DD	FLAT:__unwindtable$?GetRemoveItemList@CExchange@@QAE?AV?$vector@U__ITEM@CExchange@@V?$allocator@U__ITEM@CExchange@@@std@@@std@@HH@Z
	DD	2 DUP(00H)
	DD	2 DUP(00H)
	DD	00H
	DD	01H
xdata$x	ENDS
;	COMDAT xdata$x
xdata$x	SEGMENT
__unwindtable$?IsFull@CExchange@@QAEHPAVCUser@@V?$vector@U__ITEM@CExchange@@V?$allocator@U__ITEM@CExchange@@@std@@@std@@1@Z DD 0ffffffffH
	DD	FLAT:__unwindfunclet$?IsFull@CExchange@@QAEHPAVCUser@@V?$vector@U__ITEM@CExchange@@V?$allocator@U__ITEM@CExchange@@@std@@@std@@1@Z$0
	DD	00H
	DD	FLAT:__unwindfunclet$?IsFull@CExchange@@QAEHPAVCUser@@V?$vector@U__ITEM@CExchange@@V?$allocator@U__ITEM@CExchange@@@std@@@std@@1@Z$1
__ehfuncinfo$?IsFull@CExchange@@QAEHPAVCUser@@V?$vector@U__ITEM@CExchange@@V?$allocator@U__ITEM@CExchange@@@std@@@std@@1@Z DD 019930522H
	DD	02H
	DD	FLAT:__unwindtable$?IsFull@CExchange@@QAEHPAVCUser@@V?$vector@U__ITEM@CExchange@@V?$allocator@U__ITEM@CExchange@@@std@@@std@@1@Z
	DD	2 DUP(00H)
	DD	2 DUP(00H)
	DD	00H
	DD	01H
xdata$x	ENDS
;	COMDAT xdata$x
xdata$x	SEGMENT
__unwindtable$?CheckCondition@CExchange@@QAEHPAVCUser@@HH@Z DD 0ffffffffH
	DD	FLAT:__unwindfunclet$?CheckCondition@CExchange@@QAEHPAVCUser@@HH@Z$0
	DD	00H
	DD	FLAT:__unwindfunclet$?CheckCondition@CExchange@@QAEHPAVCUser@@HH@Z$2
__ehfuncinfo$?CheckCondition@CExchange@@QAEHPAVCUser@@HH@Z DD 019930522H
	DD	02H
	DD	FLAT:__unwindtable$?CheckCondition@CExchange@@QAEHPAVCUser@@HH@Z
	DD	2 DUP(00H)
	DD	2 DUP(00H)
	DD	00H
	DD	01H
xdata$x	ENDS
;	COMDAT xdata$x
xdata$x	SEGMENT
__ehfuncinfo$?ResultExchange@CExchange@@QAEHPAVCUser@@HH@Z DD 019930522H
	DD	08H
	DD	FLAT:__unwindtable$?ResultExchange@CExchange@@QAEHPAVCUser@@HH@Z
	DD	2 DUP(00H)
	DD	2 DUP(00H)
	DD	00H
	DD	01H
__unwindtable$?ResultExchange@CExchange@@QAEHPAVCUser@@HH@Z DD 0ffffffffH
	DD	FLAT:__unwindfunclet$?ResultExchange@CExchange@@QAEHPAVCUser@@HH@Z$0
	DD	00H
	DD	FLAT:__unwindfunclet$?ResultExchange@CExchange@@QAEHPAVCUser@@HH@Z$1
	DD	01H
	DD	FLAT:__unwindfunclet$?ResultExchange@CExchange@@QAEHPAVCUser@@HH@Z$2
	DD	02H
	DD	FLAT:__unwindfunclet$?ResultExchange@CExchange@@QAEHPAVCUser@@HH@Z$3
	DD	02H
	DD	FLAT:__unwindfunclet$?ResultExchange@CExchange@@QAEHPAVCUser@@HH@Z$5
	DD	02H
	DD	FLAT:__unwindfunclet$?ResultExchange@CExchange@@QAEHPAVCUser@@HH@Z$6
	DD	05H
	DD	FLAT:__unwindfunclet$?ResultExchange@CExchange@@QAEHPAVCUser@@HH@Z$8
	DD	05H
	DD	FLAT:__unwindfunclet$?ResultExchange@CExchange@@QAEHPAVCUser@@HH@Z$9
xdata$x	ENDS
;	COMDAT xdata$x
xdata$x	SEGMENT
__unwindtable$?GetListTextId@CExchange@@QAE?AV?$vector@HV?$allocator@H@std@@@std@@H@Z DD 0ffffffffH
	DD	FLAT:__unwindfunclet$?GetListTextId@CExchange@@QAE?AV?$vector@HV?$allocator@H@std@@@std@@H@Z$0
__ehfuncinfo$?GetListTextId@CExchange@@QAE?AV?$vector@HV?$allocator@H@std@@@std@@H@Z DD 019930522H
	DD	01H
	DD	FLAT:__unwindtable$?GetListTextId@CExchange@@QAE?AV?$vector@HV?$allocator@H@std@@@std@@H@Z
	DD	2 DUP(00H)
	DD	2 DUP(00H)
	DD	00H
	DD	01H
xdata$x	ENDS
;	COMDAT xdata$x
xdata$x	SEGMENT
__ehfuncinfo$?Load_Script@CExchange@@QAEHXZ DD 019930522H
	DD	09H
	DD	FLAT:__unwindtable$?Load_Script@CExchange@@QAEHXZ
	DD	2 DUP(00H)
	DD	2 DUP(00H)
	DD	00H
	DD	01H
__unwindtable$?Load_Script@CExchange@@QAEHXZ DD 0ffffffffH
	DD	FLAT:__unwindfunclet$?Load_Script@CExchange@@QAEHXZ$0
	DD	00H
	DD	FLAT:__unwindfunclet$?Load_Script@CExchange@@QAEHXZ$1
	DD	01H
	DD	FLAT:__unwindfunclet$?Load_Script@CExchange@@QAEHXZ$2
	DD	02H
	DD	FLAT:__unwindfunclet$?Load_Script@CExchange@@QAEHXZ$3
	DD	02H
	DD	FLAT:__unwindfunclet$?Load_Script@CExchange@@QAEHXZ$8
	DD	04H
	DD	FLAT:__unwindfunclet$?Load_Script@CExchange@@QAEHXZ$10
	DD	05H
	DD	FLAT:__unwindfunclet$?Load_Script@CExchange@@QAEHXZ$11
	DD	02H
	DD	FLAT:__unwindfunclet$?Load_Script@CExchange@@QAEHXZ$4
	DD	07H
	DD	FLAT:__unwindfunclet$?Load_Script@CExchange@@QAEHXZ$15
xdata$x	ENDS
;	COMDAT xdata$x
xdata$x	SEGMENT
__unwindtable$??0__SETLIST@CExchange@@QAE@ABU01@@Z DD 0ffffffffH
	DD	FLAT:__unwindfunclet$??0__SETLIST@CExchange@@QAE@ABU01@@Z$0
	DD	00H
	DD	FLAT:__unwindfunclet$??0__SETLIST@CExchange@@QAE@ABU01@@Z$2
	DD	01H
	DD	FLAT:__unwindfunclet$??0__SETLIST@CExchange@@QAE@ABU01@@Z$3
__ehfuncinfo$??0__SETLIST@CExchange@@QAE@ABU01@@Z DD 019930522H
	DD	03H
	DD	FLAT:__unwindtable$??0__SETLIST@CExchange@@QAE@ABU01@@Z
	DD	2 DUP(00H)
	DD	2 DUP(00H)
	DD	00H
	DD	01H
xdata$x	ENDS
;	COMDAT xdata$x
xdata$x	SEGMENT
__unwindtable$??0?$vector@U__SET@CExchange@@V?$allocator@U__SET@CExchange@@@std@@@std@@QAE@ABV01@@Z DD 0ffffffffH
	DD	FLAT:__unwindfunclet$??0?$vector@U__SET@CExchange@@V?$allocator@U__SET@CExchange@@@std@@@std@@QAE@ABV01@@Z$0
	DD	00H
	DD	FLAT:__unwindfunclet$??0?$vector@U__SET@CExchange@@V?$allocator@U__SET@CExchange@@@std@@@std@@QAE@ABV01@@Z$1
__ehfuncinfo$??0?$vector@U__SET@CExchange@@V?$allocator@U__SET@CExchange@@@std@@@std@@QAE@ABV01@@Z DD 019930522H
	DD	02H
	DD	FLAT:__unwindtable$??0?$vector@U__SET@CExchange@@V?$allocator@U__SET@CExchange@@@std@@@std@@QAE@ABV01@@Z
	DD	2 DUP(00H)
	DD	2 DUP(00H)
	DD	00H
	DD	01H
xdata$x	ENDS
;	COMDAT xdata$x
xdata$x	SEGMENT
__ehfuncinfo$??0__SET@CExchange@@QAE@ABU01@@Z DD 019930522H
	DD	05H
	DD	FLAT:__unwindtable$??0__SET@CExchange@@QAE@ABU01@@Z
	DD	2 DUP(00H)
	DD	2 DUP(00H)
	DD	00H
	DD	01H
__unwindtable$??0__SET@CExchange@@QAE@ABU01@@Z DD 0ffffffffH
	DD	FLAT:__unwindfunclet$??0__SET@CExchange@@QAE@ABU01@@Z$0
	DD	00H
	DD	FLAT:__unwindfunclet$??0__SET@CExchange@@QAE@ABU01@@Z$1
	DD	01H
	DD	FLAT:__unwindfunclet$??0__SET@CExchange@@QAE@ABU01@@Z$2
	DD	02H
	DD	FLAT:__unwindfunclet$??0__SET@CExchange@@QAE@ABU01@@Z$3
	DD	03H
	DD	FLAT:__unwindfunclet$??0__SET@CExchange@@QAE@ABU01@@Z$4
xdata$x	ENDS
; Function compile flags: /Ogtp
; File C:\Program Files\Microsoft Visual Studio\2022\Professional\VC\Tools\MSVC\14.44.35207\include\xutility
;	COMDAT ??$_Copy_memmove_tail@PAH@std@@YAPAHQBDQAHII@Z
_TEXT	SEGMENT
__First_ch$ = 8						; size = 4
__Dest$ = 12						; size = 4
__Byte_count$ = 16					; size = 4
__Object_count$ = 20					; size = 4
??$_Copy_memmove_tail@PAH@std@@YAPAHQBDQAHII@Z PROC	; std::_Copy_memmove_tail<int *>, COMDAT

; 4747 :     const char* const _First_ch, const _OutCtgIt _Dest, const size_t _Byte_count, const size_t _Object_count) {

  00000	55		 push	 ebp
  00001	8b ec		 mov	 ebp, esp
  00003	56		 push	 esi

; 4748 :     _STL_INTERNAL_CHECK(_Byte_count == _Object_count * sizeof(*_Dest));
; 4749 :     const auto _Dest_ptr = _STD _To_address(_Dest);
; 4750 :     const auto _Dest_ch  = const_cast<char*>(reinterpret_cast<const volatile char*>(_Dest_ptr));
; 4751 :     _CSTD memmove(_Dest_ch, _First_ch, _Byte_count);

  00004	8b 75 0c	 mov	 esi, DWORD PTR __Dest$[ebp]
  00007	57		 push	 edi
  00008	8b 7d 10	 mov	 edi, DWORD PTR __Byte_count$[ebp]
  0000b	57		 push	 edi
  0000c	ff 75 08	 push	 DWORD PTR __First_ch$[ebp]
  0000f	56		 push	 esi
  00010	e8 00 00 00 00	 call	 _memmove
  00015	83 c4 0c	 add	 esp, 12			; 0000000cH

; 4752 :     if constexpr (is_pointer_v<_OutCtgIt>) {
; 4753 :         (void) _Object_count;
; 4754 :         // CodeQL [SM02986] This cast is correct: we're bypassing pointer arithmetic for performance.
; 4755 :         return reinterpret_cast<_OutCtgIt>(_Dest_ch + _Byte_count);

  00018	8d 04 3e	 lea	 eax, DWORD PTR [esi+edi]
  0001b	5f		 pop	 edi
  0001c	5e		 pop	 esi

; 4756 :     } else {
; 4757 :         return _Dest + static_cast<_Iter_diff_t<_OutCtgIt>>(_Object_count);
; 4758 :     }
; 4759 : }

  0001d	5d		 pop	 ebp
  0001e	c3		 ret	 0
??$_Copy_memmove_tail@PAH@std@@YAPAHQBDQAHII@Z ENDP	; std::_Copy_memmove_tail<int *>
_TEXT	ENDS
; Function compile flags: /Ogtp
; File C:\Program Files\Microsoft Visual Studio\2022\Professional\VC\Tools\MSVC\14.44.35207\include\xmemory
;	COMDAT ??1?$_Uninitialized_backout_al@V?$allocator@U__SET@CExchange@@@std@@@std@@QAE@XZ
_TEXT	SEGMENT
??1?$_Uninitialized_backout_al@V?$allocator@U__SET@CExchange@@@std@@@std@@QAE@XZ PROC ; std::_Uninitialized_backout_al<std::allocator<CExchange::__SET> >::~_Uninitialized_backout_al<std::allocator<CExchange::__SET> >, COMDAT
; _this$ = ecx

; 1839 :         _STD _Destroy_range(_First, _Last, _Al);

  00000	ff 71 08	 push	 DWORD PTR [ecx+8]
  00003	ff 71 04	 push	 DWORD PTR [ecx+4]
  00006	ff 31		 push	 DWORD PTR [ecx]
  00008	e8 00 00 00 00	 call	 ??$_Destroy_range@V?$allocator@U__SET@CExchange@@@std@@@std@@YAXPAU__SET@CExchange@@QAU12@AAV?$allocator@U__SET@CExchange@@@0@@Z ; std::_Destroy_range<std::allocator<CExchange::__SET> >
  0000d	83 c4 0c	 add	 esp, 12			; 0000000cH

; 1840 :     }

  00010	c3		 ret	 0
??1?$_Uninitialized_backout_al@V?$allocator@U__SET@CExchange@@@std@@@std@@QAE@XZ ENDP ; std::_Uninitialized_backout_al<std::allocator<CExchange::__SET> >::~_Uninitialized_backout_al<std::allocator<CExchange::__SET> >
_TEXT	ENDS
; Function compile flags: /Ogtp
; File C:\Program Files\Microsoft Visual Studio\2022\Professional\VC\Tools\MSVC\14.44.35207\include\xmemory
;	COMDAT ??1?$_Tidy_guard@V?$vector@U__SET@CExchange@@V?$allocator@U__SET@CExchange@@@std@@@std@@@std@@QAE@XZ
_TEXT	SEGMENT
??1?$_Tidy_guard@V?$vector@U__SET@CExchange@@V?$allocator@U__SET@CExchange@@@std@@@std@@@std@@QAE@XZ PROC ; std::_Tidy_guard<std::vector<CExchange::__SET,std::allocator<CExchange::__SET> > >::~_Tidy_guard<std::vector<CExchange::__SET,std::allocator<CExchange::__SET> > >, COMDAT
; _this$ = ecx

; 87   :         if (_Target) {

  00000	8b 09		 mov	 ecx, DWORD PTR [ecx]
  00002	85 c9		 test	 ecx, ecx
  00004	0f 85 00 00 00
	00		 jne	 ?_Tidy@?$vector@U__SET@CExchange@@V?$allocator@U__SET@CExchange@@@std@@@std@@AAEXXZ ; std::vector<CExchange::__SET,std::allocator<CExchange::__SET> >::_Tidy

; 88   :             _Target->_Tidy();
; 89   :         }
; 90   :     }

  0000a	c3		 ret	 0
??1?$_Tidy_guard@V?$vector@U__SET@CExchange@@V?$allocator@U__SET@CExchange@@@std@@@std@@@std@@QAE@XZ ENDP ; std::_Tidy_guard<std::vector<CExchange::__SET,std::allocator<CExchange::__SET> > >::~_Tidy_guard<std::vector<CExchange::__SET,std::allocator<CExchange::__SET> > >
_TEXT	ENDS
; Function compile flags: /Ogtp
; File C:\Program Files\Microsoft Visual Studio\2022\Professional\VC\Tools\MSVC\14.44.35207\include\xutility
;	COMDAT ??$_Copy_memmove@PAHPAH@std@@YAPAHPAH00@Z
_TEXT	SEGMENT
__First$ = 8						; size = 4
__Last$ = 12						; size = 4
__Dest$ = 16						; size = 4
??$_Copy_memmove@PAHPAH@std@@YAPAHPAH00@Z PROC		; std::_Copy_memmove<int *,int *>, COMDAT

; 4762 : _OutCtgIt _Copy_memmove(_CtgIt _First, _CtgIt _Last, _OutCtgIt _Dest) {

  00000	55		 push	 ebp
  00001	8b ec		 mov	 ebp, esp

; 4763 :     _STL_INTERNAL_CHECK(_First <= _Last);
; 4764 :     const auto _First_ptr    = _STD _To_address(_First);
; 4765 :     const auto _Last_ptr     = _STD _To_address(_Last);
; 4766 :     const auto _Object_count = static_cast<size_t>(_Last_ptr - _First_ptr);

  00003	8b 55 08	 mov	 edx, DWORD PTR __First$[ebp]
  00006	8b 4d 0c	 mov	 ecx, DWORD PTR __Last$[ebp]
  00009	2b ca		 sub	 ecx, edx
  0000b	8b c1		 mov	 eax, ecx
  0000d	c1 f8 02	 sar	 eax, 2

; 4767 :     const auto _First_ch     = const_cast<const char*>(reinterpret_cast<const volatile char*>(_First_ptr));
; 4768 :     const auto _Last_ch      = const_cast<const char*>(reinterpret_cast<const volatile char*>(_Last_ptr));
; 4769 :     const auto _Byte_count   = static_cast<size_t>(_Last_ch - _First_ch);
; 4770 :     return _STD _Copy_memmove_tail(_First_ch, _STD move(_Dest), _Byte_count, _Object_count);

  00010	50		 push	 eax
  00011	51		 push	 ecx
  00012	ff 75 10	 push	 DWORD PTR __Dest$[ebp]
  00015	52		 push	 edx
  00016	e8 00 00 00 00	 call	 ??$_Copy_memmove_tail@PAH@std@@YAPAHQBDQAHII@Z ; std::_Copy_memmove_tail<int *>
  0001b	83 c4 10	 add	 esp, 16			; 00000010H

; 4771 : }

  0001e	5d		 pop	 ebp
  0001f	c3		 ret	 0
??$_Copy_memmove@PAHPAH@std@@YAPAHPAH00@Z ENDP		; std::_Copy_memmove<int *,int *>
_TEXT	ENDS
; Function compile flags: /Ogtp
; File C:\Program Files\Microsoft Visual Studio\2022\Professional\VC\Tools\MSVC\14.44.35207\include\xutility
;	COMDAT ??$_Copy_memmove_tail@PAU__ITEM@CExchange@@@std@@YAPAU__ITEM@CExchange@@QBDQAU12@II@Z
_TEXT	SEGMENT
__First_ch$ = 8						; size = 4
__Dest$ = 12						; size = 4
__Byte_count$ = 16					; size = 4
__Object_count$ = 20					; size = 4
??$_Copy_memmove_tail@PAU__ITEM@CExchange@@@std@@YAPAU__ITEM@CExchange@@QBDQAU12@II@Z PROC ; std::_Copy_memmove_tail<CExchange::__ITEM *>, COMDAT

; 4747 :     const char* const _First_ch, const _OutCtgIt _Dest, const size_t _Byte_count, const size_t _Object_count) {

  00000	55		 push	 ebp
  00001	8b ec		 mov	 ebp, esp
  00003	56		 push	 esi

; 4748 :     _STL_INTERNAL_CHECK(_Byte_count == _Object_count * sizeof(*_Dest));
; 4749 :     const auto _Dest_ptr = _STD _To_address(_Dest);
; 4750 :     const auto _Dest_ch  = const_cast<char*>(reinterpret_cast<const volatile char*>(_Dest_ptr));
; 4751 :     _CSTD memmove(_Dest_ch, _First_ch, _Byte_count);

  00004	8b 75 0c	 mov	 esi, DWORD PTR __Dest$[ebp]
  00007	57		 push	 edi
  00008	8b 7d 10	 mov	 edi, DWORD PTR __Byte_count$[ebp]
  0000b	57		 push	 edi
  0000c	ff 75 08	 push	 DWORD PTR __First_ch$[ebp]
  0000f	56		 push	 esi
  00010	e8 00 00 00 00	 call	 _memmove
  00015	83 c4 0c	 add	 esp, 12			; 0000000cH

; 4752 :     if constexpr (is_pointer_v<_OutCtgIt>) {
; 4753 :         (void) _Object_count;
; 4754 :         // CodeQL [SM02986] This cast is correct: we're bypassing pointer arithmetic for performance.
; 4755 :         return reinterpret_cast<_OutCtgIt>(_Dest_ch + _Byte_count);

  00018	8d 04 3e	 lea	 eax, DWORD PTR [esi+edi]
  0001b	5f		 pop	 edi
  0001c	5e		 pop	 esi

; 4756 :     } else {
; 4757 :         return _Dest + static_cast<_Iter_diff_t<_OutCtgIt>>(_Object_count);
; 4758 :     }
; 4759 : }

  0001d	5d		 pop	 ebp
  0001e	c3		 ret	 0
??$_Copy_memmove_tail@PAU__ITEM@CExchange@@@std@@YAPAU__ITEM@CExchange@@QBDQAU12@II@Z ENDP ; std::_Copy_memmove_tail<CExchange::__ITEM *>
_TEXT	ENDS
; Function compile flags: /Ogtp
; File C:\Program Files\Microsoft Visual Studio\2022\Professional\VC\Tools\MSVC\14.44.35207\include\xutility
;	COMDAT ??$_Copy_memmove@PAU__POINT@CExchange@@PAU12@@std@@YAPAU__POINT@CExchange@@PAU12@00@Z
_TEXT	SEGMENT
__First$ = 8						; size = 4
__Last$ = 12						; size = 4
__Dest$ = 16						; size = 4
??$_Copy_memmove@PAU__POINT@CExchange@@PAU12@@std@@YAPAU__POINT@CExchange@@PAU12@00@Z PROC ; std::_Copy_memmove<CExchange::__POINT *,CExchange::__POINT *>, COMDAT

; 4762 : _OutCtgIt _Copy_memmove(_CtgIt _First, _CtgIt _Last, _OutCtgIt _Dest) {

  00000	55		 push	 ebp
  00001	8b ec		 mov	 ebp, esp

; 4763 :     _STL_INTERNAL_CHECK(_First <= _Last);
; 4764 :     const auto _First_ptr    = _STD _To_address(_First);
; 4765 :     const auto _Last_ptr     = _STD _To_address(_Last);
; 4766 :     const auto _Object_count = static_cast<size_t>(_Last_ptr - _First_ptr);

  00003	8b 55 08	 mov	 edx, DWORD PTR __First$[ebp]
  00006	8b 4d 0c	 mov	 ecx, DWORD PTR __Last$[ebp]
  00009	2b ca		 sub	 ecx, edx
  0000b	8b c1		 mov	 eax, ecx
  0000d	c1 f8 03	 sar	 eax, 3

; 4767 :     const auto _First_ch     = const_cast<const char*>(reinterpret_cast<const volatile char*>(_First_ptr));
; 4768 :     const auto _Last_ch      = const_cast<const char*>(reinterpret_cast<const volatile char*>(_Last_ptr));
; 4769 :     const auto _Byte_count   = static_cast<size_t>(_Last_ch - _First_ch);
; 4770 :     return _STD _Copy_memmove_tail(_First_ch, _STD move(_Dest), _Byte_count, _Object_count);

  00010	50		 push	 eax
  00011	51		 push	 ecx
  00012	ff 75 10	 push	 DWORD PTR __Dest$[ebp]
  00015	52		 push	 edx
  00016	e8 00 00 00 00	 call	 ??$_Copy_memmove_tail@PAU__POINT@CExchange@@@std@@YAPAU__POINT@CExchange@@QBDQAU12@II@Z ; std::_Copy_memmove_tail<CExchange::__POINT *>
  0001b	83 c4 10	 add	 esp, 16			; 00000010H

; 4771 : }

  0001e	5d		 pop	 ebp
  0001f	c3		 ret	 0
??$_Copy_memmove@PAU__POINT@CExchange@@PAU12@@std@@YAPAU__POINT@CExchange@@PAU12@00@Z ENDP ; std::_Copy_memmove<CExchange::__POINT *,CExchange::__POINT *>
_TEXT	ENDS
; Function compile flags: /Ogtp
; File C:\Program Files\Microsoft Visual Studio\2022\Professional\VC\Tools\MSVC\14.44.35207\include\xutility
;	COMDAT ??$_Copy_memmove_tail@PAU__POINT@CExchange@@@std@@YAPAU__POINT@CExchange@@QBDQAU12@II@Z
_TEXT	SEGMENT
__First_ch$ = 8						; size = 4
__Dest$ = 12						; size = 4
__Byte_count$ = 16					; size = 4
__Object_count$ = 20					; size = 4
??$_Copy_memmove_tail@PAU__POINT@CExchange@@@std@@YAPAU__POINT@CExchange@@QBDQAU12@II@Z PROC ; std::_Copy_memmove_tail<CExchange::__POINT *>, COMDAT

; 4747 :     const char* const _First_ch, const _OutCtgIt _Dest, const size_t _Byte_count, const size_t _Object_count) {

  00000	55		 push	 ebp
  00001	8b ec		 mov	 ebp, esp
  00003	56		 push	 esi

; 4748 :     _STL_INTERNAL_CHECK(_Byte_count == _Object_count * sizeof(*_Dest));
; 4749 :     const auto _Dest_ptr = _STD _To_address(_Dest);
; 4750 :     const auto _Dest_ch  = const_cast<char*>(reinterpret_cast<const volatile char*>(_Dest_ptr));
; 4751 :     _CSTD memmove(_Dest_ch, _First_ch, _Byte_count);

  00004	8b 75 0c	 mov	 esi, DWORD PTR __Dest$[ebp]
  00007	57		 push	 edi
  00008	8b 7d 10	 mov	 edi, DWORD PTR __Byte_count$[ebp]
  0000b	57		 push	 edi
  0000c	ff 75 08	 push	 DWORD PTR __First_ch$[ebp]
  0000f	56		 push	 esi
  00010	e8 00 00 00 00	 call	 _memmove
  00015	83 c4 0c	 add	 esp, 12			; 0000000cH

; 4752 :     if constexpr (is_pointer_v<_OutCtgIt>) {
; 4753 :         (void) _Object_count;
; 4754 :         // CodeQL [SM02986] This cast is correct: we're bypassing pointer arithmetic for performance.
; 4755 :         return reinterpret_cast<_OutCtgIt>(_Dest_ch + _Byte_count);

  00018	8d 04 3e	 lea	 eax, DWORD PTR [esi+edi]
  0001b	5f		 pop	 edi
  0001c	5e		 pop	 esi

; 4756 :     } else {
; 4757 :         return _Dest + static_cast<_Iter_diff_t<_OutCtgIt>>(_Object_count);
; 4758 :     }
; 4759 : }

  0001d	5d		 pop	 ebp
  0001e	c3		 ret	 0
??$_Copy_memmove_tail@PAU__POINT@CExchange@@@std@@YAPAU__POINT@CExchange@@QBDQAU12@II@Z ENDP ; std::_Copy_memmove_tail<CExchange::__POINT *>
_TEXT	ENDS
; Function compile flags: /Ogtp
; File C:\Program Files\Microsoft Visual Studio\2022\Professional\VC\Tools\MSVC\14.44.35207\include\vector
; File C:\Program Files\Microsoft Visual Studio\2022\Professional\VC\Tools\MSVC\14.44.35207\include\xmemory
; File C:\Program Files\Microsoft Visual Studio\2022\Professional\VC\Tools\MSVC\14.44.35207\include\vector
; File C:\Program Files\Microsoft Visual Studio\2022\Professional\VC\Tools\MSVC\14.44.35207\include\xmemory
; File C:\Program Files\Microsoft Visual Studio\2022\Professional\VC\Tools\MSVC\14.44.35207\include\vector
; File C:\Program Files\Microsoft Visual Studio\2022\Professional\VC\Tools\MSVC\14.44.35207\include\xmemory
; File C:\Program Files\Microsoft Visual Studio\2022\Professional\VC\Tools\MSVC\14.44.35207\include\vector
;	COMDAT ??1_Reallocation_guard@?$vector@U__SET@CExchange@@V?$allocator@U__SET@CExchange@@@std@@@std@@QAE@XZ
_TEXT	SEGMENT
??1_Reallocation_guard@?$vector@U__SET@CExchange@@V?$allocator@U__SET@CExchange@@@std@@@std@@QAE@XZ PROC ; std::vector<CExchange::__SET,std::allocator<CExchange::__SET> >::_Reallocation_guard::~_Reallocation_guard, COMDAT
; _this$ = ecx

; 620  :         _CONSTEXPR20 ~_Reallocation_guard() noexcept {

  00000	56		 push	 esi
  00001	8b f1		 mov	 esi, ecx

; 621  :             if (_New_begin != nullptr) {

  00003	83 7e 04 00	 cmp	 DWORD PTR [esi+4], 0
  00007	74 40		 je	 SHORT $LN10@Reallocati

; 622  :                 _STD _Destroy_range(_Constructed_first, _Constructed_last, _Al);

  00009	ff 36		 push	 DWORD PTR [esi]
  0000b	ff 76 10	 push	 DWORD PTR [esi+16]
  0000e	ff 76 0c	 push	 DWORD PTR [esi+12]
  00011	e8 00 00 00 00	 call	 ??$_Destroy_range@V?$allocator@U__SET@CExchange@@@std@@@std@@YAXPAU__SET@CExchange@@QAU12@AAV?$allocator@U__SET@CExchange@@@0@@Z ; std::_Destroy_range<std::allocator<CExchange::__SET> >
; File C:\Program Files\Microsoft Visual Studio\2022\Professional\VC\Tools\MSVC\14.44.35207\include\xmemory

; 985  :         _STD _Deallocate<_New_alignof<_Ty>>(_Ptr, sizeof(_Ty) * _Count);

  00016	8b 46 08	 mov	 eax, DWORD PTR [esi+8]
; File C:\Program Files\Microsoft Visual Studio\2022\Professional\VC\Tools\MSVC\14.44.35207\include\vector

; 622  :                 _STD _Destroy_range(_Constructed_first, _Constructed_last, _Al);

  00019	83 c4 0c	 add	 esp, 12			; 0000000cH
; File C:\Program Files\Microsoft Visual Studio\2022\Professional\VC\Tools\MSVC\14.44.35207\include\xmemory

; 985  :         _STD _Deallocate<_New_alignof<_Ty>>(_Ptr, sizeof(_Ty) * _Count);

  0001c	8d 0c 80	 lea	 ecx, DWORD PTR [eax+eax*4]
  0001f	8b 46 04	 mov	 eax, DWORD PTR [esi+4]
  00022	c1 e1 04	 shl	 ecx, 4

; 284  :         if (_Bytes >= _Big_allocation_threshold) {

  00025	81 f9 00 10 00
	00		 cmp	 ecx, 4096		; 00001000H
  0002b	72 12		 jb	 SHORT $LN15@Reallocati

; 205  :     const uintptr_t _Ptr_container   = _Ptr_user[-1];

  0002d	8b 50 fc	 mov	 edx, DWORD PTR [eax-4]
  00030	83 c1 23	 add	 ecx, 35			; 00000023H

; 206  : 
; 207  :     // If the following asserts, it likely means that we are performing
; 208  :     // an aligned delete on memory coming from an unaligned allocation.
; 209  :     _STL_ASSERT(_Ptr_user[-2] == _Big_allocation_sentinel, "invalid argument");
; 210  : 
; 211  :     // Extra paranoia on aligned allocation/deallocation; ensure _Ptr_container is
; 212  :     // in range [_Min_back_shift, _Non_user_size]
; 213  : #ifdef _DEBUG
; 214  :     constexpr uintptr_t _Min_back_shift = 2 * sizeof(void*);
; 215  : #else // ^^^ defined(_DEBUG) / !defined(_DEBUG) vvv
; 216  :     constexpr uintptr_t _Min_back_shift = sizeof(void*);
; 217  : #endif // ^^^ !defined(_DEBUG) ^^^
; 218  :     const uintptr_t _Back_shift = reinterpret_cast<uintptr_t>(_Ptr) - _Ptr_container;

  00033	2b c2		 sub	 eax, edx

; 219  :     _STL_VERIFY(_Back_shift >= _Min_back_shift && _Back_shift <= _Non_user_size, "invalid argument");

  00035	83 c0 fc	 add	 eax, -4			; fffffffcH
  00038	83 f8 1f	 cmp	 eax, 31			; 0000001fH
  0003b	77 0e		 ja	 SHORT $LN14@Reallocati

; 220  :     _Ptr = reinterpret_cast<void*>(_Ptr_container);

  0003d	8b c2		 mov	 eax, edx
$LN15@Reallocati:

; 289  :         ::operator delete(_Ptr, _Bytes);

  0003f	51		 push	 ecx
  00040	50		 push	 eax
  00041	e8 00 00 00 00	 call	 ??3@YAXPAXI@Z		; operator delete
  00046	83 c4 08	 add	 esp, 8
$LN10@Reallocati:
  00049	5e		 pop	 esi
; File C:\Program Files\Microsoft Visual Studio\2022\Professional\VC\Tools\MSVC\14.44.35207\include\vector

; 625  :         }

  0004a	c3		 ret	 0
$LN14@Reallocati:
; File C:\Program Files\Microsoft Visual Studio\2022\Professional\VC\Tools\MSVC\14.44.35207\include\xmemory

; 219  :     _STL_VERIFY(_Back_shift >= _Min_back_shift && _Back_shift <= _Non_user_size, "invalid argument");

  0004b	6a 00		 push	 0
  0004d	6a 00		 push	 0
  0004f	6a 00		 push	 0
  00051	6a 00		 push	 0
  00053	6a 00		 push	 0
  00055	e8 00 00 00 00	 call	 __invoke_watson
$LN22@Reallocati:
  0005a	cc		 int	 3
??1_Reallocation_guard@?$vector@U__SET@CExchange@@V?$allocator@U__SET@CExchange@@@std@@@std@@QAE@XZ ENDP ; std::vector<CExchange::__SET,std::allocator<CExchange::__SET> >::_Reallocation_guard::~_Reallocation_guard
_TEXT	ENDS
; Function compile flags: /Ogtp
; File C:\Program Files\Microsoft Visual Studio\2022\Professional\VC\Tools\MSVC\14.44.35207\include\xmemory
; File C:\Program Files\Microsoft Visual Studio\2022\Professional\VC\Tools\MSVC\14.44.35207\include\vector
; File C:\Program Files\Microsoft Visual Studio\2022\Professional\VC\Tools\MSVC\14.44.35207\include\xmemory
;	COMDAT ??$_Destroy_range@V?$allocator@U__SET@CExchange@@@std@@@std@@YAXPAU__SET@CExchange@@QAU12@AAV?$allocator@U__SET@CExchange@@@0@@Z
_TEXT	SEGMENT
__First$ = 8						; size = 4
__Last$ = 12						; size = 4
__Al$ = 16						; size = 4
??$_Destroy_range@V?$allocator@U__SET@CExchange@@@std@@@std@@YAXPAU__SET@CExchange@@QAU12@AAV?$allocator@U__SET@CExchange@@@0@@Z PROC ; std::_Destroy_range<std::allocator<CExchange::__SET> >, COMDAT

; 1098 : _CONSTEXPR20 void _Destroy_range(_Alloc_ptr_t<_Alloc> _First, const _Alloc_ptr_t<_Alloc> _Last, _Alloc& _Al) noexcept {

  00000	55		 push	 ebp
  00001	8b ec		 mov	 ebp, esp
  00003	56		 push	 esi

; 1102 :         for (; _First != _Last; ++_First) {

  00004	8b 75 08	 mov	 esi, DWORD PTR __First$[ebp]
  00007	57		 push	 edi
  00008	8b 7d 0c	 mov	 edi, DWORD PTR __Last$[ebp]
  0000b	3b f7		 cmp	 esi, edi
  0000d	74 3c		 je	 SHORT $LN3@Destroy_ra
  0000f	83 c6 34	 add	 esi, 52			; 00000034H
$LL4@Destroy_ra:
; File C:\Program Files\Microsoft Visual Studio\2022\Professional\VC\Tools\MSVC\14.44.35207\include\vector

; 830  :         _Tidy();

  00012	8d 4e 0c	 lea	 ecx, DWORD PTR [esi+12]
  00015	e8 00 00 00 00	 call	 ?_Tidy@?$vector@U__ITEM@CExchange@@V?$allocator@U__ITEM@CExchange@@@std@@@std@@AAEXXZ ; std::vector<CExchange::__ITEM,std::allocator<CExchange::__ITEM> >::_Tidy
  0001a	8b ce		 mov	 ecx, esi
  0001c	e8 00 00 00 00	 call	 ?_Tidy@?$vector@U__POINT@CExchange@@V?$allocator@U__POINT@CExchange@@@std@@@std@@AAEXXZ ; std::vector<CExchange::__POINT,std::allocator<CExchange::__POINT> >::_Tidy
  00021	8d 4e f4	 lea	 ecx, DWORD PTR [esi-12]
  00024	e8 00 00 00 00	 call	 ?_Tidy@?$vector@U__POINT@CExchange@@V?$allocator@U__POINT@CExchange@@@std@@@std@@AAEXXZ ; std::vector<CExchange::__POINT,std::allocator<CExchange::__POINT> >::_Tidy
  00029	8d 4e e8	 lea	 ecx, DWORD PTR [esi-24]
  0002c	e8 00 00 00 00	 call	 ?_Tidy@?$vector@U__ITEM@CExchange@@V?$allocator@U__ITEM@CExchange@@@std@@@std@@AAEXXZ ; std::vector<CExchange::__ITEM,std::allocator<CExchange::__ITEM> >::_Tidy
  00031	8d 4e dc	 lea	 ecx, DWORD PTR [esi-36]
  00034	e8 00 00 00 00	 call	 ?_Tidy@?$vector@U__ITEM@CExchange@@V?$allocator@U__ITEM@CExchange@@@std@@@std@@AAEXXZ ; std::vector<CExchange::__ITEM,std::allocator<CExchange::__ITEM> >::_Tidy
  00039	8d 4e d0	 lea	 ecx, DWORD PTR [esi-48]
  0003c	e8 00 00 00 00	 call	 ?_Tidy@?$vector@HV?$allocator@H@std@@@std@@AAEXXZ ; std::vector<int,std::allocator<int> >::_Tidy
; File C:\Program Files\Microsoft Visual Studio\2022\Professional\VC\Tools\MSVC\14.44.35207\include\xmemory

; 1102 :         for (; _First != _Last; ++_First) {

  00041	83 c6 50	 add	 esi, 80			; 00000050H
  00044	8d 46 cc	 lea	 eax, DWORD PTR [esi-52]
  00047	3b c7		 cmp	 eax, edi
  00049	75 c7		 jne	 SHORT $LL4@Destroy_ra
$LN3@Destroy_ra:
  0004b	5f		 pop	 edi

; 1103 :             allocator_traits<_Alloc>::destroy(_Al, _STD _Unfancy(_First));
; 1104 :         }
; 1105 :     }
; 1106 : }

  0004c	5e		 pop	 esi
  0004d	5d		 pop	 ebp
  0004e	c3		 ret	 0
??$_Destroy_range@V?$allocator@U__SET@CExchange@@@std@@@std@@YAXPAU__SET@CExchange@@QAU12@AAV?$allocator@U__SET@CExchange@@@0@@Z ENDP ; std::_Destroy_range<std::allocator<CExchange::__SET> >
_TEXT	ENDS
; Function compile flags: /Ogtp
; File C:\Program Files\Microsoft Visual Studio\2022\Professional\VC\Tools\MSVC\14.44.35207\include\vector
; File C:\Program Files\Microsoft Visual Studio\2022\Professional\VC\Tools\MSVC\14.44.35207\include\xmemory
; File C:\Program Files\Microsoft Visual Studio\2022\Professional\VC\Tools\MSVC\14.44.35207\include\vector
; File C:\Program Files\Microsoft Visual Studio\2022\Professional\VC\Tools\MSVC\14.44.35207\include\xmemory
; File C:\Program Files\Microsoft Visual Studio\2022\Professional\VC\Tools\MSVC\14.44.35207\include\vector
; File C:\Program Files\Microsoft Visual Studio\2022\Professional\VC\Tools\MSVC\14.44.35207\include\xmemory
; File C:\Program Files\Microsoft Visual Studio\2022\Professional\VC\Tools\MSVC\14.44.35207\include\vector
; File C:\Program Files\Microsoft Visual Studio\2022\Professional\VC\Tools\MSVC\14.44.35207\include\xmemory
; File C:\Program Files\Microsoft Visual Studio\2022\Professional\VC\Tools\MSVC\14.44.35207\include\vector
; File C:\Program Files\Microsoft Visual Studio\2022\Professional\VC\Tools\MSVC\14.44.35207\include\xmemory
; File C:\Program Files\Microsoft Visual Studio\2022\Professional\VC\Tools\MSVC\14.44.35207\include\vector
; File C:\Program Files\Microsoft Visual Studio\2022\Professional\VC\Tools\MSVC\14.44.35207\include\xmemory
; File C:\Program Files\Microsoft Visual Studio\2022\Professional\VC\Tools\MSVC\14.44.35207\include\vector
; File C:\Program Files\Microsoft Visual Studio\2022\Professional\VC\Tools\MSVC\14.44.35207\include\xmemory
; File C:\Program Files\Microsoft Visual Studio\2022\Professional\VC\Tools\MSVC\14.44.35207\include\vector
; File C:\Program Files\Microsoft Visual Studio\2022\Professional\VC\Tools\MSVC\14.44.35207\include\xmemory
; File C:\Program Files\Microsoft Visual Studio\2022\Professional\VC\Tools\MSVC\14.44.35207\include\vector
;	COMDAT ??$_Emplace_reallocate@H@?$vector@HV?$allocator@H@std@@@std@@AAEPAHQAH$$QAH@Z
_TEXT	SEGMENT
__Newsize$1$ = -12					; size = 4
tv652 = -8						; size = 4
tv650 = -4						; size = 4
__Whereptr$ = 8						; size = 4
_<_Val_0>$ = 12						; size = 4
??$_Emplace_reallocate@H@?$vector@HV?$allocator@H@std@@@std@@AAEPAHQAH$$QAH@Z PROC ; std::vector<int,std::allocator<int> >::_Emplace_reallocate<int>, COMDAT
; _this$ = ecx

; 875  :     _CONSTEXPR20 pointer _Emplace_reallocate(const pointer _Whereptr, _Valty&&... _Val) {

  00000	55		 push	 ebp
  00001	8b ec		 mov	 ebp, esp
  00003	83 ec 0c	 sub	 esp, 12			; 0000000cH
  00006	53		 push	 ebx

; 876  :         // reallocate and insert by perfectly forwarding _Val at _Whereptr
; 877  :         _Alty& _Al        = _Getal();
; 878  :         auto& _My_data    = _Mypair._Myval2;
; 879  :         pointer& _Myfirst = _My_data._Myfirst;
; 880  :         pointer& _Mylast  = _My_data._Mylast;
; 881  : 
; 882  :         _STL_INTERNAL_CHECK(_Mylast == _My_data._Myend); // check that we have no unused capacity
; 883  : 
; 884  :         const auto _Whereoff = static_cast<size_type>(_Whereptr - _Myfirst);

  00007	8b 5d 08	 mov	 ebx, DWORD PTR __Whereptr$[ebp]
  0000a	56		 push	 esi
  0000b	8b f1		 mov	 esi, ecx
  0000d	57		 push	 edi
  0000e	8b 0e		 mov	 ecx, DWORD PTR [esi]
  00010	2b d9		 sub	 ebx, ecx

; 885  :         const auto _Oldsize  = static_cast<size_type>(_Mylast - _Myfirst);

  00012	8b 46 04	 mov	 eax, DWORD PTR [esi+4]
  00015	2b c1		 sub	 eax, ecx
  00017	c1 fb 02	 sar	 ebx, 2
  0001a	c1 f8 02	 sar	 eax, 2

; 886  : 
; 887  :         if (_Oldsize == max_size()) {

  0001d	3d ff ff ff 3f	 cmp	 eax, 1073741823		; 3fffffffH
  00022	0f 84 13 01 00
	00		 je	 $LN111@Emplace_re

; 1924 :         return static_cast<size_type>(_My_data._Myend - _My_data._Myfirst);

  00028	8b 56 08	 mov	 edx, DWORD PTR [esi+8]

; 889  :         }
; 890  : 
; 891  :         const size_type _Newsize = _Oldsize + 1;

  0002b	8d 78 01	 lea	 edi, DWORD PTR [eax+1]

; 1924 :         return static_cast<size_type>(_My_data._Myend - _My_data._Myfirst);

  0002e	2b d1		 sub	 edx, ecx

; 889  :         }
; 890  : 
; 891  :         const size_type _Newsize = _Oldsize + 1;

  00030	89 7d f4	 mov	 DWORD PTR __Newsize$1$[ebp], edi

; 1924 :         return static_cast<size_type>(_My_data._Myend - _My_data._Myfirst);

  00033	c1 fa 02	 sar	 edx, 2

; 2011 :         if (_Oldcapacity > _Max - _Oldcapacity / 2) {

  00036	b8 ff ff ff 3f	 mov	 eax, 1073741823		; 3fffffffH
  0003b	8b ca		 mov	 ecx, edx
  0003d	d1 e9		 shr	 ecx, 1
  0003f	2b c1		 sub	 eax, ecx
  00041	3b d0		 cmp	 edx, eax
  00043	76 14		 jbe	 SHORT $LN8@Emplace_re

; 2012 :             return _Max; // geometric growth would overflow

  00045	b8 fc ff ff ff	 mov	 eax, -4			; fffffffcH
  0004a	c7 45 f8 fc ff
	ff ff		 mov	 DWORD PTR tv652[ebp], -4 ; fffffffcH
; File C:\Program Files\Microsoft Visual Studio\2022\Professional\VC\Tools\MSVC\14.44.35207\include\xmemory

; 253  :             return _Allocate_manually_vector_aligned<_Traits>(_Bytes);

  00051	50		 push	 eax
  00052	e8 00 00 00 00	 call	 ??$_Allocate_manually_vector_aligned@U_Default_allocate_traits@std@@@std@@YAPAXI@Z ; std::_Allocate_manually_vector_aligned<std::_Default_allocate_traits>
  00057	eb 3d		 jmp	 SHORT $LN109@Emplace_re
$LN8@Emplace_re:
; File C:\Program Files\Microsoft Visual Studio\2022\Professional\VC\Tools\MSVC\14.44.35207\include\vector

; 2015 :         const size_type _Geometric = _Oldcapacity + _Oldcapacity / 2;

  00059	8d 04 11	 lea	 eax, DWORD PTR [ecx+edx]
; File C:\Program Files\Microsoft Visual Studio\2022\Professional\VC\Tools\MSVC\14.44.35207\include\xmemory

; 117  :         if (_Count > _Max_possible) {

  0005c	8b cf		 mov	 ecx, edi
  0005e	3b c7		 cmp	 eax, edi
  00060	0f 43 c8	 cmovae	 ecx, eax
  00063	81 f9 ff ff ff
	3f		 cmp	 ecx, 1073741823		; 3fffffffH
  00069	0f 87 d1 00 00
	00		 ja	 $LN112@Emplace_re

; 119  :         }
; 120  :     }
; 121  : 
; 122  :     return _Count * _Ty_size;

  0006f	8d 04 8d 00 00
	00 00		 lea	 eax, DWORD PTR [ecx*4]
  00076	89 45 f8	 mov	 DWORD PTR tv652[ebp], eax

; 227  :     if (_Bytes == 0) {

  00079	85 c0		 test	 eax, eax
  0007b	75 04		 jne	 SHORT $LN23@Emplace_re

; 228  :         return nullptr;

  0007d	33 ff		 xor	 edi, edi
  0007f	eb 1a		 jmp	 SHORT $LN22@Emplace_re
$LN23@Emplace_re:

; 229  :     }
; 230  : 
; 231  : #if _HAS_CXX20 // TRANSITION, GH-1532
; 232  :     if (_STD is_constant_evaluated()) {
; 233  :         return _Traits::_Allocate(_Bytes);
; 234  :     }
; 235  : #endif // _HAS_CXX20
; 236  : 
; 237  : #ifdef __cpp_aligned_new
; 238  :     if constexpr (_Align > __STDCPP_DEFAULT_NEW_ALIGNMENT__) {
; 239  :         size_t _Passed_align = _Align;
; 240  : #if defined(_M_IX86) || defined(_M_X64)
; 241  :         if (_Bytes >= _Big_allocation_threshold) {
; 242  :             // boost the alignment of big allocations to help autovectorization
; 243  :             _Passed_align = (_STD max)(_Align, _Big_allocation_alignment);
; 244  :         }
; 245  : #endif // defined(_M_IX86) || defined(_M_X64)
; 246  :         return _Traits::_Allocate_aligned(_Bytes, _Passed_align);
; 247  :     } else
; 248  : #endif // defined(__cpp_aligned_new)
; 249  :     {
; 250  : #if defined(_M_IX86) || defined(_M_X64)
; 251  :         if (_Bytes >= _Big_allocation_threshold) {

  00081	3d 00 10 00 00	 cmp	 eax, 4096		; 00001000H
  00086	72 08		 jb	 SHORT $LN24@Emplace_re

; 253  :             return _Allocate_manually_vector_aligned<_Traits>(_Bytes);

  00088	50		 push	 eax
  00089	e8 00 00 00 00	 call	 ??$_Allocate_manually_vector_aligned@U_Default_allocate_traits@std@@@std@@YAPAXI@Z ; std::_Allocate_manually_vector_aligned<std::_Default_allocate_traits>
  0008e	eb 06		 jmp	 SHORT $LN109@Emplace_re
$LN24@Emplace_re:

; 136  :         return ::operator new(_Bytes);

  00090	50		 push	 eax
  00091	e8 00 00 00 00	 call	 ??2@YAPAXI@Z		; operator new
$LN109@Emplace_re:
; File C:\Program Files\Microsoft Visual Studio\2022\Professional\VC\Tools\MSVC\14.44.35207\include\vector

; 900  :         _Alty_traits::construct(_Al, _STD _Unfancy(_Newvec + _Whereoff), _STD forward<_Valty>(_Val)...);

  00096	8b f8		 mov	 edi, eax
  00098	83 c4 04	 add	 esp, 4
$LN22@Emplace_re:
  0009b	8b 45 0c	 mov	 eax, DWORD PTR _<_Val_0>$[ebp]
  0009e	8d 0c 9f	 lea	 ecx, DWORD PTR [edi+ebx*4]

; 901  :         _Constructed_first = _Newvec + _Whereoff;
; 902  : 
; 903  :         if (_Whereptr == _Mylast) { // at back, provide strong guarantee

  000a1	8b 5d 08	 mov	 ebx, DWORD PTR __Whereptr$[ebp]
  000a4	89 4d fc	 mov	 DWORD PTR tv650[ebp], ecx
  000a7	8b 00		 mov	 eax, DWORD PTR [eax]
  000a9	89 01		 mov	 DWORD PTR [ecx], eax
  000ab	8b 46 04	 mov	 eax, DWORD PTR [esi+4]
  000ae	8b 0e		 mov	 ecx, DWORD PTR [esi]
  000b0	3b d8		 cmp	 ebx, eax
  000b2	75 07		 jne	 SHORT $LN3@Emplace_re

; 909  :         } else { // provide basic guarantee

  000b4	8b 5d fc	 mov	 ebx, DWORD PTR tv650[ebp]
; File C:\Program Files\Microsoft Visual Studio\2022\Professional\VC\Tools\MSVC\14.44.35207\include\xmemory

; 1992 :             _STD _Copy_memmove(_UFirst, _ULast, _STD _Unfancy(_Dest));

  000b7	8b d7		 mov	 edx, edi
; File C:\Program Files\Microsoft Visual Studio\2022\Professional\VC\Tools\MSVC\14.44.35207\include\vector

; 909  :         } else { // provide basic guarantee

  000b9	eb 16		 jmp	 SHORT $LN52@Emplace_re
$LN3@Emplace_re:
; File C:\Program Files\Microsoft Visual Studio\2022\Professional\VC\Tools\MSVC\14.44.35207\include\xmemory

; 1992 :             _STD _Copy_memmove(_UFirst, _ULast, _STD _Unfancy(_Dest));

  000bb	57		 push	 edi
  000bc	53		 push	 ebx
  000bd	51		 push	 ecx
  000be	e8 00 00 00 00	 call	 ??$_Copy_memmove@PAHPAH@std@@YAPAHPAH00@Z ; std::_Copy_memmove<int *,int *>
  000c3	8b 46 04	 mov	 eax, DWORD PTR [esi+4]
  000c6	8b cb		 mov	 ecx, ebx
; File C:\Program Files\Microsoft Visual Studio\2022\Professional\VC\Tools\MSVC\14.44.35207\include\vector

; 912  :             _STD _Uninitialized_move(_Whereptr, _Mylast, _Newvec + _Whereoff + 1, _Al);

  000c8	8b 5d fc	 mov	 ebx, DWORD PTR tv650[ebp]
; File C:\Program Files\Microsoft Visual Studio\2022\Professional\VC\Tools\MSVC\14.44.35207\include\xmemory

; 1992 :             _STD _Copy_memmove(_UFirst, _ULast, _STD _Unfancy(_Dest));

  000cb	83 c4 0c	 add	 esp, 12			; 0000000cH
; File C:\Program Files\Microsoft Visual Studio\2022\Professional\VC\Tools\MSVC\14.44.35207\include\vector

; 912  :             _STD _Uninitialized_move(_Whereptr, _Mylast, _Newvec + _Whereoff + 1, _Al);

  000ce	8d 53 04	 lea	 edx, DWORD PTR [ebx+4]
$LN52@Emplace_re:

; 913  :         }
; 914  : 
; 915  :         _Guard._New_begin = nullptr;

  000d1	52		 push	 edx
  000d2	50		 push	 eax
  000d3	51		 push	 ecx
  000d4	e8 00 00 00 00	 call	 ??$_Copy_memmove@PAHPAH@std@@YAPAHPAH00@Z ; std::_Copy_memmove<int *,int *>

; 2069 :         if (_Myfirst) { // destroy and deallocate old array

  000d9	8b 06		 mov	 eax, DWORD PTR [esi]

; 913  :         }
; 914  : 
; 915  :         _Guard._New_begin = nullptr;

  000db	83 c4 0c	 add	 esp, 12			; 0000000cH

; 2069 :         if (_Myfirst) { // destroy and deallocate old array

  000de	85 c0		 test	 eax, eax
  000e0	74 2c		 je	 SHORT $LN72@Emplace_re

; 2070 :             _STD _Destroy_range(_Myfirst, _Mylast, _Al);
; 2071 :             _ASAN_VECTOR_REMOVE;
; 2072 :             _Al.deallocate(_Myfirst, static_cast<size_type>(_Myend - _Myfirst));

  000e2	8b 4e 08	 mov	 ecx, DWORD PTR [esi+8]
  000e5	2b c8		 sub	 ecx, eax
; File C:\Program Files\Microsoft Visual Studio\2022\Professional\VC\Tools\MSVC\14.44.35207\include\xmemory

; 985  :         _STD _Deallocate<_New_alignof<_Ty>>(_Ptr, sizeof(_Ty) * _Count);

  000e7	83 e1 fc	 and	 ecx, -4			; fffffffcH

; 284  :         if (_Bytes >= _Big_allocation_threshold) {

  000ea	81 f9 00 10 00
	00		 cmp	 ecx, 4096		; 00001000H
  000f0	72 12		 jb	 SHORT $LN77@Emplace_re

; 205  :     const uintptr_t _Ptr_container   = _Ptr_user[-1];

  000f2	8b 50 fc	 mov	 edx, DWORD PTR [eax-4]
  000f5	83 c1 23	 add	 ecx, 35			; 00000023H

; 206  : 
; 207  :     // If the following asserts, it likely means that we are performing
; 208  :     // an aligned delete on memory coming from an unaligned allocation.
; 209  :     _STL_ASSERT(_Ptr_user[-2] == _Big_allocation_sentinel, "invalid argument");
; 210  : 
; 211  :     // Extra paranoia on aligned allocation/deallocation; ensure _Ptr_container is
; 212  :     // in range [_Min_back_shift, _Non_user_size]
; 213  : #ifdef _DEBUG
; 214  :     constexpr uintptr_t _Min_back_shift = 2 * sizeof(void*);
; 215  : #else // ^^^ defined(_DEBUG) / !defined(_DEBUG) vvv
; 216  :     constexpr uintptr_t _Min_back_shift = sizeof(void*);
; 217  : #endif // ^^^ !defined(_DEBUG) ^^^
; 218  :     const uintptr_t _Back_shift = reinterpret_cast<uintptr_t>(_Ptr) - _Ptr_container;

  000f8	2b c2		 sub	 eax, edx

; 219  :     _STL_VERIFY(_Back_shift >= _Min_back_shift && _Back_shift <= _Non_user_size, "invalid argument");

  000fa	83 c0 fc	 add	 eax, -4			; fffffffcH
  000fd	83 f8 1f	 cmp	 eax, 31			; 0000001fH
  00100	77 2a		 ja	 SHORT $LN76@Emplace_re

; 220  :     _Ptr = reinterpret_cast<void*>(_Ptr_container);

  00102	8b c2		 mov	 eax, edx
$LN77@Emplace_re:

; 289  :         ::operator delete(_Ptr, _Bytes);

  00104	51		 push	 ecx
  00105	50		 push	 eax
  00106	e8 00 00 00 00	 call	 ??3@YAXPAXI@Z		; operator delete
  0010b	83 c4 08	 add	 esp, 8
$LN72@Emplace_re:
; File C:\Program Files\Microsoft Visual Studio\2022\Professional\VC\Tools\MSVC\14.44.35207\include\vector

; 2076 :         _Mylast  = _Newvec + _Newsize;

  0010e	8b 45 f4	 mov	 eax, DWORD PTR __Newsize$1$[ebp]
  00111	89 3e		 mov	 DWORD PTR [esi], edi
  00113	8d 0c 87	 lea	 ecx, DWORD PTR [edi+eax*4]

; 916  :         _Change_array(_Newvec, _Newsize, _Newcapacity);
; 917  :         return _Newvec + _Whereoff;

  00116	8b c3		 mov	 eax, ebx

; 2076 :         _Mylast  = _Newvec + _Newsize;

  00118	89 4e 04	 mov	 DWORD PTR [esi+4], ecx

; 2077 :         _Myend   = _Newvec + _Newcapacity;

  0011b	8b 4d f8	 mov	 ecx, DWORD PTR tv652[ebp]
  0011e	03 cf		 add	 ecx, edi

; 918  :     }

  00120	5f		 pop	 edi

; 2077 :         _Myend   = _Newvec + _Newcapacity;

  00121	89 4e 08	 mov	 DWORD PTR [esi+8], ecx

; 918  :     }

  00124	5e		 pop	 esi
  00125	5b		 pop	 ebx
  00126	8b e5		 mov	 esp, ebp
  00128	5d		 pop	 ebp
  00129	c2 08 00	 ret	 8
$LN76@Emplace_re:
; File C:\Program Files\Microsoft Visual Studio\2022\Professional\VC\Tools\MSVC\14.44.35207\include\xmemory

; 219  :     _STL_VERIFY(_Back_shift >= _Min_back_shift && _Back_shift <= _Non_user_size, "invalid argument");

  0012c	6a 00		 push	 0
  0012e	6a 00		 push	 0
  00130	6a 00		 push	 0
  00132	6a 00		 push	 0
  00134	6a 00		 push	 0
  00136	e8 00 00 00 00	 call	 __invoke_watson
$LN111@Emplace_re:
; File C:\Program Files\Microsoft Visual Studio\2022\Professional\VC\Tools\MSVC\14.44.35207\include\vector

; 888  :             _Xlength();

  0013b	e8 00 00 00 00	 call	 ?_Xlength@?$vector@HV?$allocator@H@std@@@std@@CAXXZ ; std::vector<int,std::allocator<int> >::_Xlength
$LN112@Emplace_re:
; File C:\Program Files\Microsoft Visual Studio\2022\Professional\VC\Tools\MSVC\14.44.35207\include\xmemory

; 118  :             _Throw_bad_array_new_length(); // multiply overflow

  00140	e8 00 00 00 00	 call	 ?_Throw_bad_array_new_length@std@@YAXXZ ; std::_Throw_bad_array_new_length
$LN108@Emplace_re:
  00145	cc		 int	 3
??$_Emplace_reallocate@H@?$vector@HV?$allocator@H@std@@@std@@AAEPAHQAH$$QAH@Z ENDP ; std::vector<int,std::allocator<int> >::_Emplace_reallocate<int>
_TEXT	ENDS
; Function compile flags: /Ogtp
; File C:\Program Files\Microsoft Visual Studio\2022\Professional\VC\Tools\MSVC\14.44.35207\include\vector
; File C:\Program Files\Microsoft Visual Studio\2022\Professional\VC\Tools\MSVC\14.44.35207\include\xmemory
; File C:\Program Files\Microsoft Visual Studio\2022\Professional\VC\Tools\MSVC\14.44.35207\include\vector
; File C:\Program Files\Microsoft Visual Studio\2022\Professional\VC\Tools\MSVC\14.44.35207\include\xmemory
; File C:\Program Files\Microsoft Visual Studio\2022\Professional\VC\Tools\MSVC\14.44.35207\include\vector
; File C:\Program Files\Microsoft Visual Studio\2022\Professional\VC\Tools\MSVC\14.44.35207\include\xmemory
; File C:\Program Files\Microsoft Visual Studio\2022\Professional\VC\Tools\MSVC\14.44.35207\include\vector
; File C:\Program Files\Microsoft Visual Studio\2022\Professional\VC\Tools\MSVC\14.44.35207\include\xmemory
; File C:\Program Files\Microsoft Visual Studio\2022\Professional\VC\Tools\MSVC\14.44.35207\include\vector
; File C:\Program Files\Microsoft Visual Studio\2022\Professional\VC\Tools\MSVC\14.44.35207\include\xmemory
; File C:\Program Files\Microsoft Visual Studio\2022\Professional\VC\Tools\MSVC\14.44.35207\include\vector
; File C:\Program Files\Microsoft Visual Studio\2022\Professional\VC\Tools\MSVC\14.44.35207\include\xmemory
; File C:\Program Files\Microsoft Visual Studio\2022\Professional\VC\Tools\MSVC\14.44.35207\include\vector
; File C:\Program Files\Microsoft Visual Studio\2022\Professional\VC\Tools\MSVC\14.44.35207\include\xmemory
; File C:\Program Files\Microsoft Visual Studio\2022\Professional\VC\Tools\MSVC\14.44.35207\include\vector
; File C:\Program Files\Microsoft Visual Studio\2022\Professional\VC\Tools\MSVC\14.44.35207\include\xmemory
; File C:\Program Files\Microsoft Visual Studio\2022\Professional\VC\Tools\MSVC\14.44.35207\include\vector
; File C:\Program Files\Microsoft Visual Studio\2022\Professional\VC\Tools\MSVC\14.44.35207\include\xmemory
; File C:\Program Files\Microsoft Visual Studio\2022\Professional\VC\Tools\MSVC\14.44.35207\include\vector
; File C:\Program Files\Microsoft Visual Studio\2022\Professional\VC\Tools\MSVC\14.44.35207\include\xmemory
; File C:\Program Files\Microsoft Visual Studio\2022\Professional\VC\Tools\MSVC\14.44.35207\include\vector
;	COMDAT ??$_Emplace_reallocate@ABU__ITEM@CExchange@@@?$vector@U__ITEM@CExchange@@V?$allocator@U__ITEM@CExchange@@@std@@@std@@AAEPAU__ITEM@CExchange@@QAU23@ABU23@@Z
_TEXT	SEGMENT
__Newsize$1$ = -12					; size = 4
$T1 = -8						; size = 4
tv710 = -4						; size = 4
__Whereptr$ = 8						; size = 4
_<_Val_0>$ = 12						; size = 4
??$_Emplace_reallocate@ABU__ITEM@CExchange@@@?$vector@U__ITEM@CExchange@@V?$allocator@U__ITEM@CExchange@@@std@@@std@@AAEPAU__ITEM@CExchange@@QAU23@ABU23@@Z PROC ; std::vector<CExchange::__ITEM,std::allocator<CExchange::__ITEM> >::_Emplace_reallocate<CExchange::__ITEM const &>, COMDAT
; _this$ = ecx

; 875  :     _CONSTEXPR20 pointer _Emplace_reallocate(const pointer _Whereptr, _Valty&&... _Val) {

  00000	55		 push	 ebp
  00001	8b ec		 mov	 ebp, esp
  00003	83 ec 0c	 sub	 esp, 12			; 0000000cH
  00006	53		 push	 ebx

; 876  :         // reallocate and insert by perfectly forwarding _Val at _Whereptr
; 877  :         _Alty& _Al        = _Getal();
; 878  :         auto& _My_data    = _Mypair._Myval2;
; 879  :         pointer& _Myfirst = _My_data._Myfirst;
; 880  :         pointer& _Mylast  = _My_data._Mylast;
; 881  : 
; 882  :         _STL_INTERNAL_CHECK(_Mylast == _My_data._Myend); // check that we have no unused capacity
; 883  : 
; 884  :         const auto _Whereoff = static_cast<size_type>(_Whereptr - _Myfirst);

  00007	8b 5d 08	 mov	 ebx, DWORD PTR __Whereptr$[ebp]
  0000a	56		 push	 esi
  0000b	8b f1		 mov	 esi, ecx
  0000d	57		 push	 edi
  0000e	8b 0e		 mov	 ecx, DWORD PTR [esi]
  00010	2b d9		 sub	 ebx, ecx

; 885  :         const auto _Oldsize  = static_cast<size_type>(_Mylast - _Myfirst);

  00012	8b 46 04	 mov	 eax, DWORD PTR [esi+4]
  00015	2b c1		 sub	 eax, ecx
  00017	c1 f8 04	 sar	 eax, 4

; 886  : 
; 887  :         if (_Oldsize == max_size()) {

  0001a	3d ff ff ff 0f	 cmp	 eax, 268435455		; 0fffffffH
  0001f	0f 84 18 01 00
	00		 je	 $LN119@Emplace_re

; 1924 :         return static_cast<size_type>(_My_data._Myend - _My_data._Myfirst);

  00025	8b 7e 08	 mov	 edi, DWORD PTR [esi+8]

; 889  :         }
; 890  : 
; 891  :         const size_type _Newsize = _Oldsize + 1;

  00028	8d 50 01	 lea	 edx, DWORD PTR [eax+1]

; 1924 :         return static_cast<size_type>(_My_data._Myend - _My_data._Myfirst);

  0002b	2b f9		 sub	 edi, ecx

; 889  :         }
; 890  : 
; 891  :         const size_type _Newsize = _Oldsize + 1;

  0002d	89 55 f4	 mov	 DWORD PTR __Newsize$1$[ebp], edx

; 1924 :         return static_cast<size_type>(_My_data._Myend - _My_data._Myfirst);

  00030	c1 ff 04	 sar	 edi, 4

; 2011 :         if (_Oldcapacity > _Max - _Oldcapacity / 2) {

  00033	b8 ff ff ff 0f	 mov	 eax, 268435455		; 0fffffffH
  00038	8b cf		 mov	 ecx, edi
  0003a	d1 e9		 shr	 ecx, 1
  0003c	2b c1		 sub	 eax, ecx
  0003e	3b f8		 cmp	 edi, eax
  00040	76 14		 jbe	 SHORT $LN8@Emplace_re

; 2012 :             return _Max; // geometric growth would overflow

  00042	b8 f0 ff ff ff	 mov	 eax, -16		; fffffff0H
  00047	c7 45 f8 f0 ff
	ff ff		 mov	 DWORD PTR $T1[ebp], -16	; fffffff0H
; File C:\Program Files\Microsoft Visual Studio\2022\Professional\VC\Tools\MSVC\14.44.35207\include\xmemory

; 253  :             return _Allocate_manually_vector_aligned<_Traits>(_Bytes);

  0004e	50		 push	 eax
  0004f	e8 00 00 00 00	 call	 ??$_Allocate_manually_vector_aligned@U_Default_allocate_traits@std@@@std@@YAPAXI@Z ; std::_Allocate_manually_vector_aligned<std::_Default_allocate_traits>
  00054	eb 3b		 jmp	 SHORT $LN117@Emplace_re
$LN8@Emplace_re:
; File C:\Program Files\Microsoft Visual Studio\2022\Professional\VC\Tools\MSVC\14.44.35207\include\vector

; 2015 :         const size_type _Geometric = _Oldcapacity + _Oldcapacity / 2;

  00056	8d 04 39	 lea	 eax, DWORD PTR [ecx+edi]
; File C:\Program Files\Microsoft Visual Studio\2022\Professional\VC\Tools\MSVC\14.44.35207\include\xmemory

; 117  :         if (_Count > _Max_possible) {

  00059	8b ca		 mov	 ecx, edx
  0005b	3b c2		 cmp	 eax, edx
  0005d	0f 43 c8	 cmovae	 ecx, eax
  00060	81 f9 ff ff ff
	0f		 cmp	 ecx, 268435455		; 0fffffffH
  00066	0f 87 d6 00 00
	00		 ja	 $LN120@Emplace_re

; 119  :         }
; 120  :     }
; 121  : 
; 122  :     return _Count * _Ty_size;

  0006c	c1 e1 04	 shl	 ecx, 4

; 990  :         return static_cast<_Ty*>(_STD _Allocate<_New_alignof<_Ty>>(_Get_size_of_n<sizeof(_Ty)>(_Count)));

  0006f	8b c1		 mov	 eax, ecx

; 122  :     return _Count * _Ty_size;

  00071	89 4d f8	 mov	 DWORD PTR $T1[ebp], ecx

; 227  :     if (_Bytes == 0) {

  00074	85 c0		 test	 eax, eax
  00076	75 04		 jne	 SHORT $LN23@Emplace_re

; 228  :         return nullptr;

  00078	33 ff		 xor	 edi, edi
  0007a	eb 1a		 jmp	 SHORT $LN22@Emplace_re
$LN23@Emplace_re:

; 229  :     }
; 230  : 
; 231  : #if _HAS_CXX20 // TRANSITION, GH-1532
; 232  :     if (_STD is_constant_evaluated()) {
; 233  :         return _Traits::_Allocate(_Bytes);
; 234  :     }
; 235  : #endif // _HAS_CXX20
; 236  : 
; 237  : #ifdef __cpp_aligned_new
; 238  :     if constexpr (_Align > __STDCPP_DEFAULT_NEW_ALIGNMENT__) {
; 239  :         size_t _Passed_align = _Align;
; 240  : #if defined(_M_IX86) || defined(_M_X64)
; 241  :         if (_Bytes >= _Big_allocation_threshold) {
; 242  :             // boost the alignment of big allocations to help autovectorization
; 243  :             _Passed_align = (_STD max)(_Align, _Big_allocation_alignment);
; 244  :         }
; 245  : #endif // defined(_M_IX86) || defined(_M_X64)
; 246  :         return _Traits::_Allocate_aligned(_Bytes, _Passed_align);
; 247  :     } else
; 248  : #endif // defined(__cpp_aligned_new)
; 249  :     {
; 250  : #if defined(_M_IX86) || defined(_M_X64)
; 251  :         if (_Bytes >= _Big_allocation_threshold) {

  0007c	3d 00 10 00 00	 cmp	 eax, 4096		; 00001000H
  00081	72 08		 jb	 SHORT $LN24@Emplace_re

; 253  :             return _Allocate_manually_vector_aligned<_Traits>(_Bytes);

  00083	50		 push	 eax
  00084	e8 00 00 00 00	 call	 ??$_Allocate_manually_vector_aligned@U_Default_allocate_traits@std@@@std@@YAPAXI@Z ; std::_Allocate_manually_vector_aligned<std::_Default_allocate_traits>
  00089	eb 06		 jmp	 SHORT $LN117@Emplace_re
$LN24@Emplace_re:

; 136  :         return ::operator new(_Bytes);

  0008b	50		 push	 eax
  0008c	e8 00 00 00 00	 call	 ??2@YAPAXI@Z		; operator new
$LN117@Emplace_re:
; File C:\Program Files\Microsoft Visual Studio\2022\Professional\VC\Tools\MSVC\14.44.35207\include\vector

; 900  :         _Alty_traits::construct(_Al, _STD _Unfancy(_Newvec + _Whereoff), _STD forward<_Valty>(_Val)...);

  00091	8b f8		 mov	 edi, eax
  00093	83 c4 04	 add	 esp, 4
$LN22@Emplace_re:
; File C:\Program Files\Microsoft Visual Studio\2022\Professional\VC\Tools\MSVC\14.44.35207\include\xmemory

; 732  :         ::new (const_cast<void*>(static_cast<const volatile void*>(_Ptr))) _Objty(_STD forward<_Types>(_Args)...);

  00096	8b 45 0c	 mov	 eax, DWORD PTR _<_Val_0>$[ebp]
; File C:\Program Files\Microsoft Visual Studio\2022\Professional\VC\Tools\MSVC\14.44.35207\include\vector

; 900  :         _Alty_traits::construct(_Al, _STD _Unfancy(_Newvec + _Whereoff), _STD forward<_Valty>(_Val)...);

  00099	83 e3 f0	 and	 ebx, -16		; fffffff0H
  0009c	8d 0c 3b	 lea	 ecx, DWORD PTR [ebx+edi]

; 903  :         if (_Whereptr == _Mylast) { // at back, provide strong guarantee

  0009f	8b 5d 08	 mov	 ebx, DWORD PTR __Whereptr$[ebp]
  000a2	89 4d fc	 mov	 DWORD PTR tv710[ebp], ecx
; File C:\Program Files\Microsoft Visual Studio\2022\Professional\VC\Tools\MSVC\14.44.35207\include\xmemory

; 732  :         ::new (const_cast<void*>(static_cast<const volatile void*>(_Ptr))) _Objty(_STD forward<_Types>(_Args)...);

  000a5	0f 10 00	 movups	 xmm0, XMMWORD PTR [eax]
  000a8	0f 11 01	 movups	 XMMWORD PTR [ecx], xmm0
; File C:\Program Files\Microsoft Visual Studio\2022\Professional\VC\Tools\MSVC\14.44.35207\include\vector

; 903  :         if (_Whereptr == _Mylast) { // at back, provide strong guarantee

  000ab	8b 4e 04	 mov	 ecx, DWORD PTR [esi+4]
  000ae	8b 06		 mov	 eax, DWORD PTR [esi]
  000b0	3b d9		 cmp	 ebx, ecx
  000b2	75 07		 jne	 SHORT $LN3@Emplace_re

; 909  :         } else { // provide basic guarantee

  000b4	8b 5d fc	 mov	 ebx, DWORD PTR tv710[ebp]
; File C:\Program Files\Microsoft Visual Studio\2022\Professional\VC\Tools\MSVC\14.44.35207\include\xmemory

; 1992 :             _STD _Copy_memmove(_UFirst, _ULast, _STD _Unfancy(_Dest));

  000b7	8b d7		 mov	 edx, edi
; File C:\Program Files\Microsoft Visual Studio\2022\Professional\VC\Tools\MSVC\14.44.35207\include\vector

; 909  :         } else { // provide basic guarantee

  000b9	eb 16		 jmp	 SHORT $LN58@Emplace_re
$LN3@Emplace_re:
; File C:\Program Files\Microsoft Visual Studio\2022\Professional\VC\Tools\MSVC\14.44.35207\include\xmemory

; 1992 :             _STD _Copy_memmove(_UFirst, _ULast, _STD _Unfancy(_Dest));

  000bb	57		 push	 edi
  000bc	53		 push	 ebx
  000bd	50		 push	 eax
  000be	e8 00 00 00 00	 call	 ??$_Copy_memmove@PAU__ITEM@CExchange@@PAU12@@std@@YAPAU__ITEM@CExchange@@PAU12@00@Z ; std::_Copy_memmove<CExchange::__ITEM *,CExchange::__ITEM *>
  000c3	8b 4e 04	 mov	 ecx, DWORD PTR [esi+4]
  000c6	8b c3		 mov	 eax, ebx
; File C:\Program Files\Microsoft Visual Studio\2022\Professional\VC\Tools\MSVC\14.44.35207\include\vector

; 912  :             _STD _Uninitialized_move(_Whereptr, _Mylast, _Newvec + _Whereoff + 1, _Al);

  000c8	8b 5d fc	 mov	 ebx, DWORD PTR tv710[ebp]
; File C:\Program Files\Microsoft Visual Studio\2022\Professional\VC\Tools\MSVC\14.44.35207\include\xmemory

; 1992 :             _STD _Copy_memmove(_UFirst, _ULast, _STD _Unfancy(_Dest));

  000cb	83 c4 0c	 add	 esp, 12			; 0000000cH
; File C:\Program Files\Microsoft Visual Studio\2022\Professional\VC\Tools\MSVC\14.44.35207\include\vector

; 912  :             _STD _Uninitialized_move(_Whereptr, _Mylast, _Newvec + _Whereoff + 1, _Al);

  000ce	8d 53 10	 lea	 edx, DWORD PTR [ebx+16]
$LN58@Emplace_re:

; 913  :         }
; 914  : 
; 915  :         _Guard._New_begin = nullptr;

  000d1	52		 push	 edx
  000d2	51		 push	 ecx
  000d3	50		 push	 eax
  000d4	e8 00 00 00 00	 call	 ??$_Copy_memmove@PAU__ITEM@CExchange@@PAU12@@std@@YAPAU__ITEM@CExchange@@PAU12@00@Z ; std::_Copy_memmove<CExchange::__ITEM *,CExchange::__ITEM *>

; 2069 :         if (_Myfirst) { // destroy and deallocate old array

  000d9	8b 06		 mov	 eax, DWORD PTR [esi]

; 913  :         }
; 914  : 
; 915  :         _Guard._New_begin = nullptr;

  000db	83 c4 0c	 add	 esp, 12			; 0000000cH

; 2069 :         if (_Myfirst) { // destroy and deallocate old array

  000de	85 c0		 test	 eax, eax
  000e0	74 2c		 je	 SHORT $LN80@Emplace_re

; 2070 :             _STD _Destroy_range(_Myfirst, _Mylast, _Al);
; 2071 :             _ASAN_VECTOR_REMOVE;
; 2072 :             _Al.deallocate(_Myfirst, static_cast<size_type>(_Myend - _Myfirst));

  000e2	8b 4e 08	 mov	 ecx, DWORD PTR [esi+8]
  000e5	2b c8		 sub	 ecx, eax
; File C:\Program Files\Microsoft Visual Studio\2022\Professional\VC\Tools\MSVC\14.44.35207\include\xmemory

; 985  :         _STD _Deallocate<_New_alignof<_Ty>>(_Ptr, sizeof(_Ty) * _Count);

  000e7	83 e1 f0	 and	 ecx, -16		; fffffff0H

; 284  :         if (_Bytes >= _Big_allocation_threshold) {

  000ea	81 f9 00 10 00
	00		 cmp	 ecx, 4096		; 00001000H
  000f0	72 12		 jb	 SHORT $LN85@Emplace_re

; 205  :     const uintptr_t _Ptr_container   = _Ptr_user[-1];

  000f2	8b 50 fc	 mov	 edx, DWORD PTR [eax-4]
  000f5	83 c1 23	 add	 ecx, 35			; 00000023H

; 206  : 
; 207  :     // If the following asserts, it likely means that we are performing
; 208  :     // an aligned delete on memory coming from an unaligned allocation.
; 209  :     _STL_ASSERT(_Ptr_user[-2] == _Big_allocation_sentinel, "invalid argument");
; 210  : 
; 211  :     // Extra paranoia on aligned allocation/deallocation; ensure _Ptr_container is
; 212  :     // in range [_Min_back_shift, _Non_user_size]
; 213  : #ifdef _DEBUG
; 214  :     constexpr uintptr_t _Min_back_shift = 2 * sizeof(void*);
; 215  : #else // ^^^ defined(_DEBUG) / !defined(_DEBUG) vvv
; 216  :     constexpr uintptr_t _Min_back_shift = sizeof(void*);
; 217  : #endif // ^^^ !defined(_DEBUG) ^^^
; 218  :     const uintptr_t _Back_shift = reinterpret_cast<uintptr_t>(_Ptr) - _Ptr_container;

  000f8	2b c2		 sub	 eax, edx

; 219  :     _STL_VERIFY(_Back_shift >= _Min_back_shift && _Back_shift <= _Non_user_size, "invalid argument");

  000fa	83 c0 fc	 add	 eax, -4			; fffffffcH
  000fd	83 f8 1f	 cmp	 eax, 31			; 0000001fH
  00100	77 2c		 ja	 SHORT $LN84@Emplace_re

; 220  :     _Ptr = reinterpret_cast<void*>(_Ptr_container);

  00102	8b c2		 mov	 eax, edx
$LN85@Emplace_re:

; 289  :         ::operator delete(_Ptr, _Bytes);

  00104	51		 push	 ecx
  00105	50		 push	 eax
  00106	e8 00 00 00 00	 call	 ??3@YAXPAXI@Z		; operator delete
  0010b	83 c4 08	 add	 esp, 8
$LN80@Emplace_re:
; File C:\Program Files\Microsoft Visual Studio\2022\Professional\VC\Tools\MSVC\14.44.35207\include\vector

; 2076 :         _Mylast  = _Newvec + _Newsize;

  0010e	8b 45 f4	 mov	 eax, DWORD PTR __Newsize$1$[ebp]

; 2077 :         _Myend   = _Newvec + _Newcapacity;

  00111	8b 4d f8	 mov	 ecx, DWORD PTR $T1[ebp]
  00114	c1 e0 04	 shl	 eax, 4
  00117	03 c7		 add	 eax, edi
  00119	89 3e		 mov	 DWORD PTR [esi], edi
  0011b	89 46 04	 mov	 DWORD PTR [esi+4], eax
  0011e	03 cf		 add	 ecx, edi

; 918  :     }

  00120	5f		 pop	 edi

; 2077 :         _Myend   = _Newvec + _Newcapacity;

  00121	89 4e 08	 mov	 DWORD PTR [esi+8], ecx

; 916  :         _Change_array(_Newvec, _Newsize, _Newcapacity);
; 917  :         return _Newvec + _Whereoff;

  00124	8b c3		 mov	 eax, ebx

; 918  :     }

  00126	5e		 pop	 esi
  00127	5b		 pop	 ebx
  00128	8b e5		 mov	 esp, ebp
  0012a	5d		 pop	 ebp
  0012b	c2 08 00	 ret	 8
$LN84@Emplace_re:
; File C:\Program Files\Microsoft Visual Studio\2022\Professional\VC\Tools\MSVC\14.44.35207\include\xmemory

; 219  :     _STL_VERIFY(_Back_shift >= _Min_back_shift && _Back_shift <= _Non_user_size, "invalid argument");

  0012e	6a 00		 push	 0
  00130	6a 00		 push	 0
  00132	6a 00		 push	 0
  00134	6a 00		 push	 0
  00136	6a 00		 push	 0
  00138	e8 00 00 00 00	 call	 __invoke_watson
$LN119@Emplace_re:
; File C:\Program Files\Microsoft Visual Studio\2022\Professional\VC\Tools\MSVC\14.44.35207\include\vector

; 888  :             _Xlength();

  0013d	e8 00 00 00 00	 call	 ?_Xlength@?$vector@U__ITEM@CExchange@@V?$allocator@U__ITEM@CExchange@@@std@@@std@@CAXXZ ; std::vector<CExchange::__ITEM,std::allocator<CExchange::__ITEM> >::_Xlength
$LN120@Emplace_re:
; File C:\Program Files\Microsoft Visual Studio\2022\Professional\VC\Tools\MSVC\14.44.35207\include\xmemory

; 118  :             _Throw_bad_array_new_length(); // multiply overflow

  00142	e8 00 00 00 00	 call	 ?_Throw_bad_array_new_length@std@@YAXXZ ; std::_Throw_bad_array_new_length
$LN116@Emplace_re:
  00147	cc		 int	 3
??$_Emplace_reallocate@ABU__ITEM@CExchange@@@?$vector@U__ITEM@CExchange@@V?$allocator@U__ITEM@CExchange@@@std@@@std@@AAEPAU__ITEM@CExchange@@QAU23@ABU23@@Z ENDP ; std::vector<CExchange::__ITEM,std::allocator<CExchange::__ITEM> >::_Emplace_reallocate<CExchange::__ITEM const &>
_TEXT	ENDS
; Function compile flags: /Ogtp
; File C:\Program Files\Microsoft Visual Studio\2022\Professional\VC\Tools\MSVC\14.44.35207\include\xutility
;	COMDAT ??$_Copy_memmove_n@PAU__ITEM@CExchange@@PAU12@@std@@YAPAU__ITEM@CExchange@@PAU12@I0@Z
_TEXT	SEGMENT
__First$ = 8						; size = 4
__Object_count$ = 12					; size = 4
__Dest$ = 16						; size = 4
??$_Copy_memmove_n@PAU__ITEM@CExchange@@PAU12@@std@@YAPAU__ITEM@CExchange@@PAU12@I0@Z PROC ; std::_Copy_memmove_n<CExchange::__ITEM *,CExchange::__ITEM *>, COMDAT

; 4774 : _OutCtgIt _Copy_memmove_n(_CtgIt _First, const size_t _Object_count, _OutCtgIt _Dest) {

  00000	55		 push	 ebp
  00001	8b ec		 mov	 ebp, esp

; 4775 :     const auto _First_ptr  = _STD _To_address(_First);
; 4776 :     const auto _First_ch   = const_cast<const char*>(reinterpret_cast<const volatile char*>(_First_ptr));
; 4777 :     const auto _Byte_count = _Object_count * sizeof(*_First_ptr);
; 4778 :     return _STD _Copy_memmove_tail(_First_ch, _STD move(_Dest), _Byte_count, _Object_count);

  00003	8b 45 0c	 mov	 eax, DWORD PTR __Object_count$[ebp]
  00006	50		 push	 eax
  00007	c1 e0 04	 shl	 eax, 4
  0000a	50		 push	 eax
  0000b	ff 75 10	 push	 DWORD PTR __Dest$[ebp]
  0000e	ff 75 08	 push	 DWORD PTR __First$[ebp]
  00011	e8 00 00 00 00	 call	 ??$_Copy_memmove_tail@PAU__ITEM@CExchange@@@std@@YAPAU__ITEM@CExchange@@QBDQAU12@II@Z ; std::_Copy_memmove_tail<CExchange::__ITEM *>
  00016	83 c4 10	 add	 esp, 16			; 00000010H

; 4779 : }

  00019	5d		 pop	 ebp
  0001a	c3		 ret	 0
??$_Copy_memmove_n@PAU__ITEM@CExchange@@PAU12@@std@@YAPAU__ITEM@CExchange@@PAU12@I0@Z ENDP ; std::_Copy_memmove_n<CExchange::__ITEM *,CExchange::__ITEM *>
_TEXT	ENDS
; Function compile flags: /Ogtp
; File C:\Program Files\Microsoft Visual Studio\2022\Professional\VC\Tools\MSVC\14.44.35207\include\xutility
;	COMDAT ??$_Copy_memmove@PAU__ITEM@CExchange@@PAU12@@std@@YAPAU__ITEM@CExchange@@PAU12@00@Z
_TEXT	SEGMENT
__First$ = 8						; size = 4
__Last$ = 12						; size = 4
__Dest$ = 16						; size = 4
??$_Copy_memmove@PAU__ITEM@CExchange@@PAU12@@std@@YAPAU__ITEM@CExchange@@PAU12@00@Z PROC ; std::_Copy_memmove<CExchange::__ITEM *,CExchange::__ITEM *>, COMDAT

; 4762 : _OutCtgIt _Copy_memmove(_CtgIt _First, _CtgIt _Last, _OutCtgIt _Dest) {

  00000	55		 push	 ebp
  00001	8b ec		 mov	 ebp, esp

; 4763 :     _STL_INTERNAL_CHECK(_First <= _Last);
; 4764 :     const auto _First_ptr    = _STD _To_address(_First);
; 4765 :     const auto _Last_ptr     = _STD _To_address(_Last);
; 4766 :     const auto _Object_count = static_cast<size_t>(_Last_ptr - _First_ptr);

  00003	8b 55 08	 mov	 edx, DWORD PTR __First$[ebp]
  00006	8b 4d 0c	 mov	 ecx, DWORD PTR __Last$[ebp]
  00009	2b ca		 sub	 ecx, edx
  0000b	8b c1		 mov	 eax, ecx
  0000d	c1 f8 04	 sar	 eax, 4

; 4767 :     const auto _First_ch     = const_cast<const char*>(reinterpret_cast<const volatile char*>(_First_ptr));
; 4768 :     const auto _Last_ch      = const_cast<const char*>(reinterpret_cast<const volatile char*>(_Last_ptr));
; 4769 :     const auto _Byte_count   = static_cast<size_t>(_Last_ch - _First_ch);
; 4770 :     return _STD _Copy_memmove_tail(_First_ch, _STD move(_Dest), _Byte_count, _Object_count);

  00010	50		 push	 eax
  00011	51		 push	 ecx
  00012	ff 75 10	 push	 DWORD PTR __Dest$[ebp]
  00015	52		 push	 edx
  00016	e8 00 00 00 00	 call	 ??$_Copy_memmove_tail@PAU__ITEM@CExchange@@@std@@YAPAU__ITEM@CExchange@@QBDQAU12@II@Z ; std::_Copy_memmove_tail<CExchange::__ITEM *>
  0001b	83 c4 10	 add	 esp, 16			; 00000010H

; 4771 : }

  0001e	5d		 pop	 ebp
  0001f	c3		 ret	 0
??$_Copy_memmove@PAU__ITEM@CExchange@@PAU12@@std@@YAPAU__ITEM@CExchange@@PAU12@00@Z ENDP ; std::_Copy_memmove<CExchange::__ITEM *,CExchange::__ITEM *>
_TEXT	ENDS
; Function compile flags: /Ogtp
; File C:\Program Files\Microsoft Visual Studio\2022\Professional\VC\Tools\MSVC\14.44.35207\include\vector
; File C:\Program Files\Microsoft Visual Studio\2022\Professional\VC\Tools\MSVC\14.44.35207\include\xmemory
; File C:\Program Files\Microsoft Visual Studio\2022\Professional\VC\Tools\MSVC\14.44.35207\include\vector
; File C:\Program Files\Microsoft Visual Studio\2022\Professional\VC\Tools\MSVC\14.44.35207\include\xmemory
; File C:\Program Files\Microsoft Visual Studio\2022\Professional\VC\Tools\MSVC\14.44.35207\include\vector
; File C:\Program Files\Microsoft Visual Studio\2022\Professional\VC\Tools\MSVC\14.44.35207\include\xmemory
; File C:\Program Files\Microsoft Visual Studio\2022\Professional\VC\Tools\MSVC\14.44.35207\include\vector
; File C:\Program Files\Microsoft Visual Studio\2022\Professional\VC\Tools\MSVC\14.44.35207\include\xmemory
; File C:\Program Files\Microsoft Visual Studio\2022\Professional\VC\Tools\MSVC\14.44.35207\include\vector
; File C:\Program Files\Microsoft Visual Studio\2022\Professional\VC\Tools\MSVC\14.44.35207\include\xmemory
; File C:\Program Files\Microsoft Visual Studio\2022\Professional\VC\Tools\MSVC\14.44.35207\include\vector
; File C:\Program Files\Microsoft Visual Studio\2022\Professional\VC\Tools\MSVC\14.44.35207\include\xmemory
; File C:\Program Files\Microsoft Visual Studio\2022\Professional\VC\Tools\MSVC\14.44.35207\include\vector
; File C:\Program Files\Microsoft Visual Studio\2022\Professional\VC\Tools\MSVC\14.44.35207\include\xmemory
; File C:\Program Files\Microsoft Visual Studio\2022\Professional\VC\Tools\MSVC\14.44.35207\include\vector
; File C:\Program Files\Microsoft Visual Studio\2022\Professional\VC\Tools\MSVC\14.44.35207\include\xmemory
; File C:\Program Files\Microsoft Visual Studio\2022\Professional\VC\Tools\MSVC\14.44.35207\include\vector
;	COMDAT ??$_Emplace_reallocate@ABU__POINT@CExchange@@@?$vector@U__POINT@CExchange@@V?$allocator@U__POINT@CExchange@@@std@@@std@@AAEPAU__POINT@CExchange@@QAU23@ABU23@@Z
_TEXT	SEGMENT
__Newsize$1$ = -8					; size = 4
tv650 = -4						; size = 4
__Whereptr$ = 8						; size = 4
_<_Val_0>$ = 12						; size = 4
??$_Emplace_reallocate@ABU__POINT@CExchange@@@?$vector@U__POINT@CExchange@@V?$allocator@U__POINT@CExchange@@@std@@@std@@AAEPAU__POINT@CExchange@@QAU23@ABU23@@Z PROC ; std::vector<CExchange::__POINT,std::allocator<CExchange::__POINT> >::_Emplace_reallocate<CExchange::__POINT const &>, COMDAT
; _this$ = ecx

; 875  :     _CONSTEXPR20 pointer _Emplace_reallocate(const pointer _Whereptr, _Valty&&... _Val) {

  00000	55		 push	 ebp
  00001	8b ec		 mov	 ebp, esp
  00003	83 ec 08	 sub	 esp, 8
  00006	53		 push	 ebx

; 876  :         // reallocate and insert by perfectly forwarding _Val at _Whereptr
; 877  :         _Alty& _Al        = _Getal();
; 878  :         auto& _My_data    = _Mypair._Myval2;
; 879  :         pointer& _Myfirst = _My_data._Myfirst;
; 880  :         pointer& _Mylast  = _My_data._Mylast;
; 881  : 
; 882  :         _STL_INTERNAL_CHECK(_Mylast == _My_data._Myend); // check that we have no unused capacity
; 883  : 
; 884  :         const auto _Whereoff = static_cast<size_type>(_Whereptr - _Myfirst);

  00007	8b 5d 08	 mov	 ebx, DWORD PTR __Whereptr$[ebp]
  0000a	56		 push	 esi
  0000b	8b f1		 mov	 esi, ecx
  0000d	57		 push	 edi
  0000e	8b 0e		 mov	 ecx, DWORD PTR [esi]
  00010	2b d9		 sub	 ebx, ecx

; 885  :         const auto _Oldsize  = static_cast<size_type>(_Mylast - _Myfirst);

  00012	8b 46 04	 mov	 eax, DWORD PTR [esi+4]
  00015	2b c1		 sub	 eax, ecx
  00017	c1 fb 03	 sar	 ebx, 3
  0001a	c1 f8 03	 sar	 eax, 3

; 886  : 
; 887  :         if (_Oldsize == max_size()) {

  0001d	3d ff ff ff 1f	 cmp	 eax, 536870911		; 1fffffffH
  00022	0f 84 11 01 00
	00		 je	 $LN111@Emplace_re

; 1924 :         return static_cast<size_type>(_My_data._Myend - _My_data._Myfirst);

  00028	8b 56 08	 mov	 edx, DWORD PTR [esi+8]

; 889  :         }
; 890  : 
; 891  :         const size_type _Newsize = _Oldsize + 1;

  0002b	8d 78 01	 lea	 edi, DWORD PTR [eax+1]

; 1924 :         return static_cast<size_type>(_My_data._Myend - _My_data._Myfirst);

  0002e	2b d1		 sub	 edx, ecx

; 889  :         }
; 890  : 
; 891  :         const size_type _Newsize = _Oldsize + 1;

  00030	89 7d f8	 mov	 DWORD PTR __Newsize$1$[ebp], edi

; 1924 :         return static_cast<size_type>(_My_data._Myend - _My_data._Myfirst);

  00033	c1 fa 03	 sar	 edx, 3

; 2011 :         if (_Oldcapacity > _Max - _Oldcapacity / 2) {

  00036	b8 ff ff ff 1f	 mov	 eax, 536870911		; 1fffffffH
  0003b	8b ca		 mov	 ecx, edx
  0003d	d1 e9		 shr	 ecx, 1
  0003f	2b c1		 sub	 eax, ecx
  00041	3b d0		 cmp	 edx, eax
  00043	76 14		 jbe	 SHORT $LN8@Emplace_re

; 2012 :             return _Max; // geometric growth would overflow

  00045	b8 f8 ff ff ff	 mov	 eax, -8			; fffffff8H
  0004a	c7 45 fc f8 ff
	ff ff		 mov	 DWORD PTR tv650[ebp], -8 ; fffffff8H
; File C:\Program Files\Microsoft Visual Studio\2022\Professional\VC\Tools\MSVC\14.44.35207\include\xmemory

; 253  :             return _Allocate_manually_vector_aligned<_Traits>(_Bytes);

  00051	50		 push	 eax
  00052	e8 00 00 00 00	 call	 ??$_Allocate_manually_vector_aligned@U_Default_allocate_traits@std@@@std@@YAPAXI@Z ; std::_Allocate_manually_vector_aligned<std::_Default_allocate_traits>
  00057	eb 3d		 jmp	 SHORT $LN109@Emplace_re
$LN8@Emplace_re:
; File C:\Program Files\Microsoft Visual Studio\2022\Professional\VC\Tools\MSVC\14.44.35207\include\vector

; 2015 :         const size_type _Geometric = _Oldcapacity + _Oldcapacity / 2;

  00059	8d 04 11	 lea	 eax, DWORD PTR [ecx+edx]
; File C:\Program Files\Microsoft Visual Studio\2022\Professional\VC\Tools\MSVC\14.44.35207\include\xmemory

; 117  :         if (_Count > _Max_possible) {

  0005c	8b cf		 mov	 ecx, edi
  0005e	3b c7		 cmp	 eax, edi
  00060	0f 43 c8	 cmovae	 ecx, eax
  00063	81 f9 ff ff ff
	1f		 cmp	 ecx, 536870911		; 1fffffffH
  00069	0f 87 cf 00 00
	00		 ja	 $LN112@Emplace_re

; 119  :         }
; 120  :     }
; 121  : 
; 122  :     return _Count * _Ty_size;

  0006f	8d 04 cd 00 00
	00 00		 lea	 eax, DWORD PTR [ecx*8]
  00076	89 45 fc	 mov	 DWORD PTR tv650[ebp], eax

; 227  :     if (_Bytes == 0) {

  00079	85 c0		 test	 eax, eax
  0007b	75 04		 jne	 SHORT $LN23@Emplace_re

; 228  :         return nullptr;

  0007d	33 ff		 xor	 edi, edi
  0007f	eb 1a		 jmp	 SHORT $LN22@Emplace_re
$LN23@Emplace_re:

; 229  :     }
; 230  : 
; 231  : #if _HAS_CXX20 // TRANSITION, GH-1532
; 232  :     if (_STD is_constant_evaluated()) {
; 233  :         return _Traits::_Allocate(_Bytes);
; 234  :     }
; 235  : #endif // _HAS_CXX20
; 236  : 
; 237  : #ifdef __cpp_aligned_new
; 238  :     if constexpr (_Align > __STDCPP_DEFAULT_NEW_ALIGNMENT__) {
; 239  :         size_t _Passed_align = _Align;
; 240  : #if defined(_M_IX86) || defined(_M_X64)
; 241  :         if (_Bytes >= _Big_allocation_threshold) {
; 242  :             // boost the alignment of big allocations to help autovectorization
; 243  :             _Passed_align = (_STD max)(_Align, _Big_allocation_alignment);
; 244  :         }
; 245  : #endif // defined(_M_IX86) || defined(_M_X64)
; 246  :         return _Traits::_Allocate_aligned(_Bytes, _Passed_align);
; 247  :     } else
; 248  : #endif // defined(__cpp_aligned_new)
; 249  :     {
; 250  : #if defined(_M_IX86) || defined(_M_X64)
; 251  :         if (_Bytes >= _Big_allocation_threshold) {

  00081	3d 00 10 00 00	 cmp	 eax, 4096		; 00001000H
  00086	72 08		 jb	 SHORT $LN24@Emplace_re

; 253  :             return _Allocate_manually_vector_aligned<_Traits>(_Bytes);

  00088	50		 push	 eax
  00089	e8 00 00 00 00	 call	 ??$_Allocate_manually_vector_aligned@U_Default_allocate_traits@std@@@std@@YAPAXI@Z ; std::_Allocate_manually_vector_aligned<std::_Default_allocate_traits>
  0008e	eb 06		 jmp	 SHORT $LN109@Emplace_re
$LN24@Emplace_re:

; 136  :         return ::operator new(_Bytes);

  00090	50		 push	 eax
  00091	e8 00 00 00 00	 call	 ??2@YAPAXI@Z		; operator new
$LN109@Emplace_re:
; File C:\Program Files\Microsoft Visual Studio\2022\Professional\VC\Tools\MSVC\14.44.35207\include\vector

; 900  :         _Alty_traits::construct(_Al, _STD _Unfancy(_Newvec + _Whereoff), _STD forward<_Valty>(_Val)...);

  00096	8b f8		 mov	 edi, eax
  00098	83 c4 04	 add	 esp, 4
$LN22@Emplace_re:
  0009b	8b 45 0c	 mov	 eax, DWORD PTR _<_Val_0>$[ebp]
  0009e	8d 1c df	 lea	 ebx, DWORD PTR [edi+ebx*8]
  000a1	8b 08		 mov	 ecx, DWORD PTR [eax]
  000a3	8b 40 04	 mov	 eax, DWORD PTR [eax+4]
  000a6	89 43 04	 mov	 DWORD PTR [ebx+4], eax

; 901  :         _Constructed_first = _Newvec + _Whereoff;
; 902  : 
; 903  :         if (_Whereptr == _Mylast) { // at back, provide strong guarantee

  000a9	8b 45 08	 mov	 eax, DWORD PTR __Whereptr$[ebp]
  000ac	89 0b		 mov	 DWORD PTR [ebx], ecx
  000ae	8b 56 04	 mov	 edx, DWORD PTR [esi+4]
  000b1	8b 0e		 mov	 ecx, DWORD PTR [esi]
  000b3	3b c2		 cmp	 eax, edx
  000b5	75 04		 jne	 SHORT $LN3@Emplace_re
; File C:\Program Files\Microsoft Visual Studio\2022\Professional\VC\Tools\MSVC\14.44.35207\include\xmemory

; 1992 :             _STD _Copy_memmove(_UFirst, _ULast, _STD _Unfancy(_Dest));

  000b7	8b c7		 mov	 eax, edi
; File C:\Program Files\Microsoft Visual Studio\2022\Professional\VC\Tools\MSVC\14.44.35207\include\vector

; 909  :         } else { // provide basic guarantee

  000b9	eb 14		 jmp	 SHORT $LN52@Emplace_re
$LN3@Emplace_re:
; File C:\Program Files\Microsoft Visual Studio\2022\Professional\VC\Tools\MSVC\14.44.35207\include\xmemory

; 1992 :             _STD _Copy_memmove(_UFirst, _ULast, _STD _Unfancy(_Dest));

  000bb	57		 push	 edi
  000bc	50		 push	 eax
  000bd	51		 push	 ecx
  000be	e8 00 00 00 00	 call	 ??$_Copy_memmove@PAU__POINT@CExchange@@PAU12@@std@@YAPAU__POINT@CExchange@@PAU12@00@Z ; std::_Copy_memmove<CExchange::__POINT *,CExchange::__POINT *>
  000c3	8b 4d 08	 mov	 ecx, DWORD PTR __Whereptr$[ebp]
; File C:\Program Files\Microsoft Visual Studio\2022\Professional\VC\Tools\MSVC\14.44.35207\include\vector

; 912  :             _STD _Uninitialized_move(_Whereptr, _Mylast, _Newvec + _Whereoff + 1, _Al);

  000c6	8d 43 08	 lea	 eax, DWORD PTR [ebx+8]
; File C:\Program Files\Microsoft Visual Studio\2022\Professional\VC\Tools\MSVC\14.44.35207\include\xmemory

; 1992 :             _STD _Copy_memmove(_UFirst, _ULast, _STD _Unfancy(_Dest));

  000c9	8b 56 04	 mov	 edx, DWORD PTR [esi+4]
  000cc	83 c4 0c	 add	 esp, 12			; 0000000cH
$LN52@Emplace_re:
; File C:\Program Files\Microsoft Visual Studio\2022\Professional\VC\Tools\MSVC\14.44.35207\include\vector

; 915  :         _Guard._New_begin = nullptr;

  000cf	50		 push	 eax
  000d0	52		 push	 edx
  000d1	51		 push	 ecx
  000d2	e8 00 00 00 00	 call	 ??$_Copy_memmove@PAU__POINT@CExchange@@PAU12@@std@@YAPAU__POINT@CExchange@@PAU12@00@Z ; std::_Copy_memmove<CExchange::__POINT *,CExchange::__POINT *>

; 2069 :         if (_Myfirst) { // destroy and deallocate old array

  000d7	8b 06		 mov	 eax, DWORD PTR [esi]

; 915  :         _Guard._New_begin = nullptr;

  000d9	83 c4 0c	 add	 esp, 12			; 0000000cH

; 2069 :         if (_Myfirst) { // destroy and deallocate old array

  000dc	85 c0		 test	 eax, eax
  000de	74 2c		 je	 SHORT $LN72@Emplace_re

; 2070 :             _STD _Destroy_range(_Myfirst, _Mylast, _Al);
; 2071 :             _ASAN_VECTOR_REMOVE;
; 2072 :             _Al.deallocate(_Myfirst, static_cast<size_type>(_Myend - _Myfirst));

  000e0	8b 4e 08	 mov	 ecx, DWORD PTR [esi+8]
  000e3	2b c8		 sub	 ecx, eax
; File C:\Program Files\Microsoft Visual Studio\2022\Professional\VC\Tools\MSVC\14.44.35207\include\xmemory

; 985  :         _STD _Deallocate<_New_alignof<_Ty>>(_Ptr, sizeof(_Ty) * _Count);

  000e5	83 e1 f8	 and	 ecx, -8			; fffffff8H

; 284  :         if (_Bytes >= _Big_allocation_threshold) {

  000e8	81 f9 00 10 00
	00		 cmp	 ecx, 4096		; 00001000H
  000ee	72 12		 jb	 SHORT $LN77@Emplace_re

; 205  :     const uintptr_t _Ptr_container   = _Ptr_user[-1];

  000f0	8b 50 fc	 mov	 edx, DWORD PTR [eax-4]
  000f3	83 c1 23	 add	 ecx, 35			; 00000023H

; 206  : 
; 207  :     // If the following asserts, it likely means that we are performing
; 208  :     // an aligned delete on memory coming from an unaligned allocation.
; 209  :     _STL_ASSERT(_Ptr_user[-2] == _Big_allocation_sentinel, "invalid argument");
; 210  : 
; 211  :     // Extra paranoia on aligned allocation/deallocation; ensure _Ptr_container is
; 212  :     // in range [_Min_back_shift, _Non_user_size]
; 213  : #ifdef _DEBUG
; 214  :     constexpr uintptr_t _Min_back_shift = 2 * sizeof(void*);
; 215  : #else // ^^^ defined(_DEBUG) / !defined(_DEBUG) vvv
; 216  :     constexpr uintptr_t _Min_back_shift = sizeof(void*);
; 217  : #endif // ^^^ !defined(_DEBUG) ^^^
; 218  :     const uintptr_t _Back_shift = reinterpret_cast<uintptr_t>(_Ptr) - _Ptr_container;

  000f6	2b c2		 sub	 eax, edx

; 219  :     _STL_VERIFY(_Back_shift >= _Min_back_shift && _Back_shift <= _Non_user_size, "invalid argument");

  000f8	83 c0 fc	 add	 eax, -4			; fffffffcH
  000fb	83 f8 1f	 cmp	 eax, 31			; 0000001fH
  000fe	77 2a		 ja	 SHORT $LN76@Emplace_re

; 220  :     _Ptr = reinterpret_cast<void*>(_Ptr_container);

  00100	8b c2		 mov	 eax, edx
$LN77@Emplace_re:

; 289  :         ::operator delete(_Ptr, _Bytes);

  00102	51		 push	 ecx
  00103	50		 push	 eax
  00104	e8 00 00 00 00	 call	 ??3@YAXPAXI@Z		; operator delete
  00109	83 c4 08	 add	 esp, 8
$LN72@Emplace_re:
; File C:\Program Files\Microsoft Visual Studio\2022\Professional\VC\Tools\MSVC\14.44.35207\include\vector

; 2076 :         _Mylast  = _Newvec + _Newsize;

  0010c	8b 45 f8	 mov	 eax, DWORD PTR __Newsize$1$[ebp]
  0010f	89 3e		 mov	 DWORD PTR [esi], edi
  00111	8d 0c c7	 lea	 ecx, DWORD PTR [edi+eax*8]

; 916  :         _Change_array(_Newvec, _Newsize, _Newcapacity);
; 917  :         return _Newvec + _Whereoff;

  00114	8b c3		 mov	 eax, ebx

; 2076 :         _Mylast  = _Newvec + _Newsize;

  00116	89 4e 04	 mov	 DWORD PTR [esi+4], ecx

; 2077 :         _Myend   = _Newvec + _Newcapacity;

  00119	8b 4d fc	 mov	 ecx, DWORD PTR tv650[ebp]
  0011c	03 cf		 add	 ecx, edi

; 918  :     }

  0011e	5f		 pop	 edi

; 2077 :         _Myend   = _Newvec + _Newcapacity;

  0011f	89 4e 08	 mov	 DWORD PTR [esi+8], ecx

; 918  :     }

  00122	5e		 pop	 esi
  00123	5b		 pop	 ebx
  00124	8b e5		 mov	 esp, ebp
  00126	5d		 pop	 ebp
  00127	c2 08 00	 ret	 8
$LN76@Emplace_re:
; File C:\Program Files\Microsoft Visual Studio\2022\Professional\VC\Tools\MSVC\14.44.35207\include\xmemory

; 219  :     _STL_VERIFY(_Back_shift >= _Min_back_shift && _Back_shift <= _Non_user_size, "invalid argument");

  0012a	6a 00		 push	 0
  0012c	6a 00		 push	 0
  0012e	6a 00		 push	 0
  00130	6a 00		 push	 0
  00132	6a 00		 push	 0
  00134	e8 00 00 00 00	 call	 __invoke_watson
$LN111@Emplace_re:
; File C:\Program Files\Microsoft Visual Studio\2022\Professional\VC\Tools\MSVC\14.44.35207\include\vector

; 888  :             _Xlength();

  00139	e8 00 00 00 00	 call	 ?_Xlength@?$vector@U__POINT@CExchange@@V?$allocator@U__POINT@CExchange@@@std@@@std@@CAXXZ ; std::vector<CExchange::__POINT,std::allocator<CExchange::__POINT> >::_Xlength
$LN112@Emplace_re:
; File C:\Program Files\Microsoft Visual Studio\2022\Professional\VC\Tools\MSVC\14.44.35207\include\xmemory

; 118  :             _Throw_bad_array_new_length(); // multiply overflow

  0013e	e8 00 00 00 00	 call	 ?_Throw_bad_array_new_length@std@@YAXXZ ; std::_Throw_bad_array_new_length
$LN108@Emplace_re:
  00143	cc		 int	 3
??$_Emplace_reallocate@ABU__POINT@CExchange@@@?$vector@U__POINT@CExchange@@V?$allocator@U__POINT@CExchange@@@std@@@std@@AAEPAU__POINT@CExchange@@QAU23@ABU23@@Z ENDP ; std::vector<CExchange::__POINT,std::allocator<CExchange::__POINT> >::_Emplace_reallocate<CExchange::__POINT const &>
_TEXT	ENDS
; Function compile flags: /Ogtp
; File C:\Program Files\Microsoft Visual Studio\2022\Professional\VC\Tools\MSVC\14.44.35207\include\xutility
;	COMDAT ??$_Copy_memmove_n@PAU__POINT@CExchange@@PAU12@@std@@YAPAU__POINT@CExchange@@PAU12@I0@Z
_TEXT	SEGMENT
__First$ = 8						; size = 4
__Object_count$ = 12					; size = 4
__Dest$ = 16						; size = 4
??$_Copy_memmove_n@PAU__POINT@CExchange@@PAU12@@std@@YAPAU__POINT@CExchange@@PAU12@I0@Z PROC ; std::_Copy_memmove_n<CExchange::__POINT *,CExchange::__POINT *>, COMDAT

; 4774 : _OutCtgIt _Copy_memmove_n(_CtgIt _First, const size_t _Object_count, _OutCtgIt _Dest) {

  00000	55		 push	 ebp
  00001	8b ec		 mov	 ebp, esp

; 4775 :     const auto _First_ptr  = _STD _To_address(_First);
; 4776 :     const auto _First_ch   = const_cast<const char*>(reinterpret_cast<const volatile char*>(_First_ptr));
; 4777 :     const auto _Byte_count = _Object_count * sizeof(*_First_ptr);
; 4778 :     return _STD _Copy_memmove_tail(_First_ch, _STD move(_Dest), _Byte_count, _Object_count);

  00003	8b 45 0c	 mov	 eax, DWORD PTR __Object_count$[ebp]
  00006	50		 push	 eax
  00007	c1 e0 03	 shl	 eax, 3
  0000a	50		 push	 eax
  0000b	ff 75 10	 push	 DWORD PTR __Dest$[ebp]
  0000e	ff 75 08	 push	 DWORD PTR __First$[ebp]
  00011	e8 00 00 00 00	 call	 ??$_Copy_memmove_tail@PAU__POINT@CExchange@@@std@@YAPAU__POINT@CExchange@@QBDQAU12@II@Z ; std::_Copy_memmove_tail<CExchange::__POINT *>
  00016	83 c4 10	 add	 esp, 16			; 00000010H

; 4779 : }

  00019	5d		 pop	 ebp
  0001a	c3		 ret	 0
??$_Copy_memmove_n@PAU__POINT@CExchange@@PAU12@@std@@YAPAU__POINT@CExchange@@PAU12@I0@Z ENDP ; std::_Copy_memmove_n<CExchange::__POINT *,CExchange::__POINT *>
_TEXT	ENDS
; Function compile flags: /Ogtp
; File C:\Program Files\Microsoft Visual Studio\2022\Professional\VC\Tools\MSVC\14.44.35207\include\vector
; File C:\Program Files\Microsoft Visual Studio\2022\Professional\VC\Tools\MSVC\14.44.35207\include\xmemory
; File C:\Program Files\Microsoft Visual Studio\2022\Professional\VC\Tools\MSVC\14.44.35207\include\vector
; File C:\Program Files\Microsoft Visual Studio\2022\Professional\VC\Tools\MSVC\14.44.35207\include\xmemory
; File C:\Program Files\Microsoft Visual Studio\2022\Professional\VC\Tools\MSVC\14.44.35207\include\vector
; File C:\Program Files\Microsoft Visual Studio\2022\Professional\VC\Tools\MSVC\14.44.35207\include\xmemory
; File C:\Program Files\Microsoft Visual Studio\2022\Professional\VC\Tools\MSVC\14.44.35207\include\vector
; File C:\Program Files\Microsoft Visual Studio\2022\Professional\VC\Tools\MSVC\14.44.35207\include\xmemory
; File C:\Program Files\Microsoft Visual Studio\2022\Professional\VC\Tools\MSVC\14.44.35207\include\vector
; File C:\Program Files\Microsoft Visual Studio\2022\Professional\VC\Tools\MSVC\14.44.35207\include\xmemory
; File C:\Program Files\Microsoft Visual Studio\2022\Professional\VC\Tools\MSVC\14.44.35207\include\vector
; File C:\Program Files\Microsoft Visual Studio\2022\Professional\VC\Tools\MSVC\14.44.35207\include\xmemory
; File C:\Program Files\Microsoft Visual Studio\2022\Professional\VC\Tools\MSVC\14.44.35207\include\vector
; File C:\Program Files\Microsoft Visual Studio\2022\Professional\VC\Tools\MSVC\14.44.35207\include\xmemory
; File C:\Program Files\Microsoft Visual Studio\2022\Professional\VC\Tools\MSVC\14.44.35207\include\vector
; File C:\Program Files\Microsoft Visual Studio\2022\Professional\VC\Tools\MSVC\14.44.35207\include\xmemory
; File C:\Program Files\Microsoft Visual Studio\2022\Professional\VC\Tools\MSVC\14.44.35207\include\vector
; File C:\Program Files\Microsoft Visual Studio\2022\Professional\VC\Tools\MSVC\14.44.35207\include\xmemory
; File C:\Program Files\Microsoft Visual Studio\2022\Professional\VC\Tools\MSVC\14.44.35207\include\vector
; File C:\Program Files\Microsoft Visual Studio\2022\Professional\VC\Tools\MSVC\14.44.35207\include\xmemory
; File C:\Program Files\Microsoft Visual Studio\2022\Professional\VC\Tools\MSVC\14.44.35207\include\vector
;	COMDAT ??$_Emplace_reallocate@ABU__SET@CExchange@@@?$vector@U__SET@CExchange@@V?$allocator@U__SET@CExchange@@@std@@@std@@AAEPAU__SET@CExchange@@QAU23@ABU23@@Z
_TEXT	SEGMENT
__Guard$ = -56						; size = 20
tv718 = -36						; size = 4
__Whereoff$1$ = -32					; size = 4
$T5 = -32						; size = 4
tv719 = -28						; size = 4
__Newsize$1$ = -24					; size = 4
_this$1$ = -20						; size = 4
$T6 = -16						; size = 4
__$EHRec$ = -12						; size = 12
__Whereptr$ = 8						; size = 4
$T7 = 8							; size = 4
_<_Val_0>$ = 12						; size = 4
__Backout$2$sroa$288$1$ = 12				; size = 4
??$_Emplace_reallocate@ABU__SET@CExchange@@@?$vector@U__SET@CExchange@@V?$allocator@U__SET@CExchange@@@std@@@std@@AAEPAU__SET@CExchange@@QAU23@ABU23@@Z PROC ; std::vector<CExchange::__SET,std::allocator<CExchange::__SET> >::_Emplace_reallocate<CExchange::__SET const &>, COMDAT
; _this$ = ecx

; 875  :     _CONSTEXPR20 pointer _Emplace_reallocate(const pointer _Whereptr, _Valty&&... _Val) {

  00000	55		 push	 ebp
  00001	8b ec		 mov	 ebp, esp
  00003	6a ff		 push	 -1
  00005	68 00 00 00 00	 push	 __ehhandler$??$_Emplace_reallocate@ABU__SET@CExchange@@@?$vector@U__SET@CExchange@@V?$allocator@U__SET@CExchange@@@std@@@std@@AAEPAU__SET@CExchange@@QAU23@ABU23@@Z
  0000a	64 a1 00 00 00
	00		 mov	 eax, DWORD PTR fs:0
  00010	50		 push	 eax
  00011	83 ec 2c	 sub	 esp, 44			; 0000002cH
  00014	53		 push	 ebx
  00015	56		 push	 esi
  00016	57		 push	 edi
  00017	a1 00 00 00 00	 mov	 eax, DWORD PTR ___security_cookie
  0001c	33 c5		 xor	 eax, ebp
  0001e	50		 push	 eax
  0001f	8d 45 f4	 lea	 eax, DWORD PTR __$EHRec$[ebp]
  00022	64 a3 00 00 00
	00		 mov	 DWORD PTR fs:0, eax
  00028	8b f1		 mov	 esi, ecx
  0002a	89 75 ec	 mov	 DWORD PTR _this$1$[ebp], esi

; 876  :         // reallocate and insert by perfectly forwarding _Val at _Whereptr
; 877  :         _Alty& _Al        = _Getal();
; 878  :         auto& _My_data    = _Mypair._Myval2;
; 879  :         pointer& _Myfirst = _My_data._Myfirst;
; 880  :         pointer& _Mylast  = _My_data._Mylast;
; 881  : 
; 882  :         _STL_INTERNAL_CHECK(_Mylast == _My_data._Myend); // check that we have no unused capacity
; 883  : 
; 884  :         const auto _Whereoff = static_cast<size_type>(_Whereptr - _Myfirst);

  0002d	8b 5d 08	 mov	 ebx, DWORD PTR __Whereptr$[ebp]
  00030	b8 67 66 66 66	 mov	 eax, 1717986919		; 66666667H
  00035	8b 3e		 mov	 edi, DWORD PTR [esi]
  00037	8b d3		 mov	 edx, ebx

; 885  :         const auto _Oldsize  = static_cast<size_type>(_Mylast - _Myfirst);

  00039	8b 4e 04	 mov	 ecx, DWORD PTR [esi+4]
  0003c	2b d7		 sub	 edx, edi
  0003e	f7 ea		 imul	 edx
  00040	2b cf		 sub	 ecx, edi
  00042	c1 fa 05	 sar	 edx, 5
  00045	8b c2		 mov	 eax, edx
  00047	c1 e8 1f	 shr	 eax, 31			; 0000001fH
  0004a	03 c2		 add	 eax, edx
  0004c	89 45 e0	 mov	 DWORD PTR __Whereoff$1$[ebp], eax
  0004f	b8 67 66 66 66	 mov	 eax, 1717986919		; 66666667H
  00054	f7 e9		 imul	 ecx
  00056	c1 fa 05	 sar	 edx, 5
  00059	8b c2		 mov	 eax, edx
  0005b	c1 e8 1f	 shr	 eax, 31			; 0000001fH
  0005e	03 c2		 add	 eax, edx

; 886  : 
; 887  :         if (_Oldsize == max_size()) {

  00060	3d 33 33 33 03	 cmp	 eax, 53687091		; 03333333H
  00065	0f 84 fd 01 00
	00		 je	 $LN134@Emplace_re

; 1924 :         return static_cast<size_type>(_My_data._Myend - _My_data._Myfirst);

  0006b	8b 4e 08	 mov	 ecx, DWORD PTR [esi+8]

; 889  :         }
; 890  : 
; 891  :         const size_type _Newsize = _Oldsize + 1;

  0006e	40		 inc	 eax
  0006f	89 45 e8	 mov	 DWORD PTR __Newsize$1$[ebp], eax

; 1924 :         return static_cast<size_type>(_My_data._Myend - _My_data._Myfirst);

  00072	2b cf		 sub	 ecx, edi
  00074	b8 67 66 66 66	 mov	 eax, 1717986919		; 66666667H
  00079	f7 e9		 imul	 ecx

; 2011 :         if (_Oldcapacity > _Max - _Oldcapacity / 2) {

  0007b	b8 33 33 33 03	 mov	 eax, 53687091		; 03333333H

; 1924 :         return static_cast<size_type>(_My_data._Myend - _My_data._Myfirst);

  00080	c1 fa 05	 sar	 edx, 5
  00083	8b ca		 mov	 ecx, edx
  00085	c1 e9 1f	 shr	 ecx, 31			; 0000001fH
  00088	03 ca		 add	 ecx, edx

; 2011 :         if (_Oldcapacity > _Max - _Oldcapacity / 2) {

  0008a	8b d1		 mov	 edx, ecx
  0008c	d1 ea		 shr	 edx, 1
  0008e	2b c2		 sub	 eax, edx
  00090	3b c8		 cmp	 ecx, eax
  00092	76 20		 jbe	 SHORT $LN8@Emplace_re

; 2012 :             return _Max; // geometric growth would overflow

  00094	b8 f0 ff ff ff	 mov	 eax, -16		; fffffff0H
  00099	c7 45 f0 33 33
	33 03		 mov	 DWORD PTR $T6[ebp], 53687091 ; 03333333H
; File C:\Program Files\Microsoft Visual Studio\2022\Professional\VC\Tools\MSVC\14.44.35207\include\xmemory

; 253  :             return _Allocate_manually_vector_aligned<_Traits>(_Bytes);

  000a0	50		 push	 eax
; File C:\Program Files\Microsoft Visual Studio\2022\Professional\VC\Tools\MSVC\14.44.35207\include\vector

; 2012 :             return _Max; // geometric growth would overflow

  000a1	c7 45 e4 f0 ff
	ff ff		 mov	 DWORD PTR tv719[ebp], -16 ; fffffff0H
; File C:\Program Files\Microsoft Visual Studio\2022\Professional\VC\Tools\MSVC\14.44.35207\include\xmemory

; 253  :             return _Allocate_manually_vector_aligned<_Traits>(_Bytes);

  000a8	e8 00 00 00 00	 call	 ??$_Allocate_manually_vector_aligned@U_Default_allocate_traits@std@@@std@@YAPAXI@Z ; std::_Allocate_manually_vector_aligned<std::_Default_allocate_traits>
  000ad	8b c8		 mov	 ecx, eax
  000af	89 4d 08	 mov	 DWORD PTR $T7[ebp], ecx
  000b2	eb 50		 jmp	 SHORT $LN131@Emplace_re
$LN8@Emplace_re:

; 117  :         if (_Count > _Max_possible) {

  000b4	8b 7d e8	 mov	 edi, DWORD PTR __Newsize$1$[ebp]
; File C:\Program Files\Microsoft Visual Studio\2022\Professional\VC\Tools\MSVC\14.44.35207\include\vector

; 2015 :         const size_type _Geometric = _Oldcapacity + _Oldcapacity / 2;

  000b7	8d 04 0a	 lea	 eax, DWORD PTR [edx+ecx]
; File C:\Program Files\Microsoft Visual Studio\2022\Professional\VC\Tools\MSVC\14.44.35207\include\xmemory

; 117  :         if (_Count > _Max_possible) {

  000ba	3b c7		 cmp	 eax, edi
  000bc	0f 43 f8	 cmovae	 edi, eax
  000bf	89 7d f0	 mov	 DWORD PTR $T6[ebp], edi
  000c2	81 ff 33 33 33
	03		 cmp	 edi, 53687091		; 03333333H
  000c8	0f 87 9f 01 00
	00		 ja	 $LN135@Emplace_re

; 119  :         }
; 120  :     }
; 121  : 
; 122  :     return _Count * _Ty_size;

  000ce	8d 04 bf	 lea	 eax, DWORD PTR [edi+edi*4]
  000d1	c1 e0 04	 shl	 eax, 4
  000d4	89 45 e4	 mov	 DWORD PTR tv719[ebp], eax

; 227  :     if (_Bytes == 0) {

  000d7	85 c0		 test	 eax, eax
  000d9	75 0a		 jne	 SHORT $LN23@Emplace_re

; 228  :         return nullptr;

  000db	33 c9		 xor	 ecx, ecx
  000dd	89 7d f0	 mov	 DWORD PTR $T6[ebp], edi
  000e0	89 4d 08	 mov	 DWORD PTR $T7[ebp], ecx
  000e3	eb 22		 jmp	 SHORT $LN22@Emplace_re
$LN23@Emplace_re:

; 229  :     }
; 230  : 
; 231  : #if _HAS_CXX20 // TRANSITION, GH-1532
; 232  :     if (_STD is_constant_evaluated()) {
; 233  :         return _Traits::_Allocate(_Bytes);
; 234  :     }
; 235  : #endif // _HAS_CXX20
; 236  : 
; 237  : #ifdef __cpp_aligned_new
; 238  :     if constexpr (_Align > __STDCPP_DEFAULT_NEW_ALIGNMENT__) {
; 239  :         size_t _Passed_align = _Align;
; 240  : #if defined(_M_IX86) || defined(_M_X64)
; 241  :         if (_Bytes >= _Big_allocation_threshold) {
; 242  :             // boost the alignment of big allocations to help autovectorization
; 243  :             _Passed_align = (_STD max)(_Align, _Big_allocation_alignment);
; 244  :         }
; 245  : #endif // defined(_M_IX86) || defined(_M_X64)
; 246  :         return _Traits::_Allocate_aligned(_Bytes, _Passed_align);
; 247  :     } else
; 248  : #endif // defined(__cpp_aligned_new)
; 249  :     {
; 250  : #if defined(_M_IX86) || defined(_M_X64)
; 251  :         if (_Bytes >= _Big_allocation_threshold) {

  000e5	3d 00 10 00 00	 cmp	 eax, 4096		; 00001000H
  000ea	72 0d		 jb	 SHORT $LN24@Emplace_re

; 253  :             return _Allocate_manually_vector_aligned<_Traits>(_Bytes);

  000ec	50		 push	 eax
  000ed	e8 00 00 00 00	 call	 ??$_Allocate_manually_vector_aligned@U_Default_allocate_traits@std@@@std@@YAPAXI@Z ; std::_Allocate_manually_vector_aligned<std::_Default_allocate_traits>
  000f2	8b c8		 mov	 ecx, eax
  000f4	89 4d 08	 mov	 DWORD PTR $T7[ebp], ecx
  000f7	eb 0b		 jmp	 SHORT $LN131@Emplace_re
$LN24@Emplace_re:

; 136  :         return ::operator new(_Bytes);

  000f9	50		 push	 eax
  000fa	e8 00 00 00 00	 call	 ??2@YAPAXI@Z		; operator new

; 256  :         return _Traits::_Allocate(_Bytes);

  000ff	8b c8		 mov	 ecx, eax
  00101	89 45 08	 mov	 DWORD PTR $T7[ebp], eax
$LN131@Emplace_re:
; File C:\Program Files\Microsoft Visual Studio\2022\Professional\VC\Tools\MSVC\14.44.35207\include\vector

; 895  :         const pointer _Constructed_last = _Newvec + _Whereoff + 1;

  00104	83 c4 04	 add	 esp, 4
$LN22@Emplace_re:
  00107	8b 45 e0	 mov	 eax, DWORD PTR __Whereoff$1$[ebp]

; 897  :         _Reallocation_guard _Guard{_Al, _Newvec, _Newcapacity, _Constructed_last, _Constructed_last};

  0010a	89 75 c8	 mov	 DWORD PTR __Guard$[ebp], esi
  0010d	89 4d cc	 mov	 DWORD PTR __Guard$[ebp+4], ecx
  00110	8d 14 80	 lea	 edx, DWORD PTR [eax+eax*4]
  00113	8b 45 f0	 mov	 eax, DWORD PTR $T6[ebp]
  00116	c1 e2 04	 shl	 edx, 4
  00119	03 d1		 add	 edx, ecx
  0011b	89 45 d0	 mov	 DWORD PTR __Guard$[ebp+8], eax
  0011e	89 55 dc	 mov	 DWORD PTR tv718[ebp], edx
  00121	8d 7a 50	 lea	 edi, DWORD PTR [edx+80]
  00124	89 7d e0	 mov	 DWORD PTR $T5[ebp], edi
  00127	89 7d d4	 mov	 DWORD PTR __Guard$[ebp+12], edi
  0012a	89 7d d8	 mov	 DWORD PTR __Guard$[ebp+16], edi
; File C:\Program Files\Microsoft Visual Studio\2022\Professional\VC\Tools\MSVC\14.44.35207\include\xmemory

; 732  :         ::new (const_cast<void*>(static_cast<const volatile void*>(_Ptr))) _Objty(_STD forward<_Types>(_Args)...);

  0012d	ff 75 0c	 push	 DWORD PTR _<_Val_0>$[ebp]
  00130	8b ca		 mov	 ecx, edx
; File C:\Program Files\Microsoft Visual Studio\2022\Professional\VC\Tools\MSVC\14.44.35207\include\vector

; 897  :         _Reallocation_guard _Guard{_Al, _Newvec, _Newcapacity, _Constructed_last, _Constructed_last};

  00132	c7 45 fc 00 00
	00 00		 mov	 DWORD PTR __$EHRec$[ebp+8], 0
; File C:\Program Files\Microsoft Visual Studio\2022\Professional\VC\Tools\MSVC\14.44.35207\include\xmemory

; 732  :         ::new (const_cast<void*>(static_cast<const volatile void*>(_Ptr))) _Objty(_STD forward<_Types>(_Args)...);

  00139	e8 00 00 00 00	 call	 ??0__SET@CExchange@@QAE@ABU01@@Z
; File C:\Program Files\Microsoft Visual Studio\2022\Professional\VC\Tools\MSVC\14.44.35207\include\vector

; 903  :         if (_Whereptr == _Mylast) { // at back, provide strong guarantee

  0013e	8b 46 04	 mov	 eax, DWORD PTR [esi+4]
  00141	8b 36		 mov	 esi, DWORD PTR [esi]
  00143	3b d8		 cmp	 ebx, eax
  00145	75 25		 jne	 SHORT $LN3@Emplace_re
; File C:\Program Files\Microsoft Visual Studio\2022\Professional\VC\Tools\MSVC\14.44.35207\include\xmemory

; 1833 :     _CONSTEXPR20 _Uninitialized_backout_al(pointer _Dest, _Alloc& _Al_) : _First(_Dest), _Last(_Dest), _Al(_Al_) {}

  00147	8b 5d 08	 mov	 ebx, DWORD PTR $T7[ebp]
  0014a	8b fb		 mov	 edi, ebx

; 1998 :     for (; _UFirst != _ULast; ++_UFirst) {

  0014c	3b f0		 cmp	 esi, eax
  0014e	74 17		 je	 SHORT $LN34@Emplace_re
  00150	8b d8		 mov	 ebx, eax
$LL35@Emplace_re:

; 732  :         ::new (const_cast<void*>(static_cast<const volatile void*>(_Ptr))) _Objty(_STD forward<_Types>(_Args)...);

  00152	56		 push	 esi
  00153	8b cf		 mov	 ecx, edi
  00155	e8 00 00 00 00	 call	 ??0__SET@CExchange@@QAE@$$QAU01@@Z

; 1998 :     for (; _UFirst != _ULast; ++_UFirst) {

  0015a	83 c6 50	 add	 esi, 80			; 00000050H

; 1845 :         ++_Last;

  0015d	83 c7 50	 add	 edi, 80			; 00000050H

; 1998 :     for (; _UFirst != _ULast; ++_UFirst) {

  00160	3b f3		 cmp	 esi, ebx
  00162	75 ee		 jne	 SHORT $LL35@Emplace_re
  00164	8b 5d 08	 mov	 ebx, DWORD PTR $T7[ebp]
$LN34@Emplace_re:

; 1839 :         _STD _Destroy_range(_First, _Last, _Al);

  00167	8b 75 ec	 mov	 esi, DWORD PTR _this$1$[ebp]
; File C:\Program Files\Microsoft Visual Studio\2022\Professional\VC\Tools\MSVC\14.44.35207\include\vector

; 909  :         } else { // provide basic guarantee

  0016a	eb 5c		 jmp	 SHORT $LN132@Emplace_re
$LN3@Emplace_re:
; File C:\Program Files\Microsoft Visual Studio\2022\Professional\VC\Tools\MSVC\14.44.35207\include\xmemory

; 1833 :     _CONSTEXPR20 _Uninitialized_backout_al(pointer _Dest, _Alloc& _Al_) : _First(_Dest), _Last(_Dest), _Al(_Al_) {}

  0016c	8b 45 08	 mov	 eax, DWORD PTR $T7[ebp]
  0016f	89 45 0c	 mov	 DWORD PTR __Backout$2$sroa$288$1$[ebp], eax

; 1998 :     for (; _UFirst != _ULast; ++_UFirst) {

  00172	3b f3		 cmp	 esi, ebx
  00174	74 1d		 je	 SHORT $LN50@Emplace_re
  00176	8b f8		 mov	 edi, eax
$LL51@Emplace_re:

; 732  :         ::new (const_cast<void*>(static_cast<const volatile void*>(_Ptr))) _Objty(_STD forward<_Types>(_Args)...);

  00178	56		 push	 esi
  00179	8b cf		 mov	 ecx, edi
  0017b	e8 00 00 00 00	 call	 ??0__SET@CExchange@@QAE@$$QAU01@@Z

; 1998 :     for (; _UFirst != _ULast; ++_UFirst) {

  00180	83 c6 50	 add	 esi, 80			; 00000050H

; 1845 :         ++_Last;

  00183	83 c7 50	 add	 edi, 80			; 00000050H

; 1998 :     for (; _UFirst != _ULast; ++_UFirst) {

  00186	3b f3		 cmp	 esi, ebx
  00188	75 ee		 jne	 SHORT $LL51@Emplace_re
  0018a	89 7d 0c	 mov	 DWORD PTR __Backout$2$sroa$288$1$[ebp], edi
  0018d	8b 7d e0	 mov	 edi, DWORD PTR $T5[ebp]
  00190	8b 45 0c	 mov	 eax, DWORD PTR __Backout$2$sroa$288$1$[ebp]
$LN50@Emplace_re:

; 1839 :         _STD _Destroy_range(_First, _Last, _Al);

  00193	8b 75 ec	 mov	 esi, DWORD PTR _this$1$[ebp]
  00196	56		 push	 esi
  00197	50		 push	 eax
  00198	50		 push	 eax
  00199	e8 00 00 00 00	 call	 ??$_Destroy_range@V?$allocator@U__SET@CExchange@@@std@@@std@@YAXPAU__SET@CExchange@@QAU12@AAV?$allocator@U__SET@CExchange@@@0@@Z ; std::_Destroy_range<std::allocator<CExchange::__SET> >

; 1985 :     const auto _ULast = _STD _Get_unwrapped(_Last);

  0019e	8b 46 04	 mov	 eax, DWORD PTR [esi+4]

; 1839 :         _STD _Destroy_range(_First, _Last, _Al);

  001a1	83 c4 0c	 add	 esp, 12			; 0000000cH

; 1998 :     for (; _UFirst != _ULast; ++_UFirst) {

  001a4	3b d8		 cmp	 ebx, eax
  001a6	74 1d		 je	 SHORT $LN66@Emplace_re
  001a8	8b f0		 mov	 esi, eax
  001aa	66 0f 1f 44 00
	00		 npad	 6
$LL67@Emplace_re:

; 732  :         ::new (const_cast<void*>(static_cast<const volatile void*>(_Ptr))) _Objty(_STD forward<_Types>(_Args)...);

  001b0	53		 push	 ebx
  001b1	8b cf		 mov	 ecx, edi
  001b3	e8 00 00 00 00	 call	 ??0__SET@CExchange@@QAE@$$QAU01@@Z

; 1998 :     for (; _UFirst != _ULast; ++_UFirst) {

  001b8	83 c3 50	 add	 ebx, 80			; 00000050H

; 1845 :         ++_Last;

  001bb	83 c7 50	 add	 edi, 80			; 00000050H

; 1998 :     for (; _UFirst != _ULast; ++_UFirst) {

  001be	3b de		 cmp	 ebx, esi
  001c0	75 ee		 jne	 SHORT $LL67@Emplace_re
  001c2	8b 75 ec	 mov	 esi, DWORD PTR _this$1$[ebp]
$LN66@Emplace_re:
  001c5	8b 5d 08	 mov	 ebx, DWORD PTR $T7[ebp]
$LN132@Emplace_re:
; File C:\Program Files\Microsoft Visual Studio\2022\Professional\VC\Tools\MSVC\14.44.35207\include\vector

; 2064 :         pointer& _Mylast  = _My_data._Mylast;

  001c8	8b c6		 mov	 eax, esi
  001ca	50		 push	 eax
  001cb	57		 push	 edi
  001cc	57		 push	 edi
  001cd	e8 00 00 00 00	 call	 ??$_Destroy_range@V?$allocator@U__SET@CExchange@@@std@@@std@@YAXPAU__SET@CExchange@@QAU12@AAV?$allocator@U__SET@CExchange@@@0@@Z ; std::_Destroy_range<std::allocator<CExchange::__SET> >

; 2065 :         pointer& _Myend   = _My_data._Myend;
; 2066 : 
; 2067 :         _My_data._Orphan_all();
; 2068 : 
; 2069 :         if (_Myfirst) { // destroy and deallocate old array

  001d2	8b 0e		 mov	 ecx, DWORD PTR [esi]
  001d4	83 c4 0c	 add	 esp, 12			; 0000000cH
  001d7	85 c9		 test	 ecx, ecx
  001d9	74 4f		 je	 SHORT $LN89@Emplace_re

; 2070 :             _STD _Destroy_range(_Myfirst, _Mylast, _Al);

  001db	56		 push	 esi
  001dc	ff 76 04	 push	 DWORD PTR [esi+4]
  001df	51		 push	 ecx
  001e0	e8 00 00 00 00	 call	 ??$_Destroy_range@V?$allocator@U__SET@CExchange@@@std@@@std@@YAXPAU__SET@CExchange@@QAU12@AAV?$allocator@U__SET@CExchange@@@0@@Z ; std::_Destroy_range<std::allocator<CExchange::__SET> >

; 2071 :             _ASAN_VECTOR_REMOVE;
; 2072 :             _Al.deallocate(_Myfirst, static_cast<size_type>(_Myend - _Myfirst));

  001e5	8b 4e 08	 mov	 ecx, DWORD PTR [esi+8]
  001e8	b8 67 66 66 66	 mov	 eax, 1717986919		; 66666667H
  001ed	8b 3e		 mov	 edi, DWORD PTR [esi]
  001ef	83 c4 0c	 add	 esp, 12			; 0000000cH
  001f2	2b cf		 sub	 ecx, edi
  001f4	f7 e9		 imul	 ecx
  001f6	c1 fa 05	 sar	 edx, 5
  001f9	8b c2		 mov	 eax, edx
  001fb	c1 e8 1f	 shr	 eax, 31			; 0000001fH
  001fe	03 c2		 add	 eax, edx
; File C:\Program Files\Microsoft Visual Studio\2022\Professional\VC\Tools\MSVC\14.44.35207\include\xmemory

; 985  :         _STD _Deallocate<_New_alignof<_Ty>>(_Ptr, sizeof(_Ty) * _Count);

  00200	8d 0c 80	 lea	 ecx, DWORD PTR [eax+eax*4]
  00203	c1 e1 04	 shl	 ecx, 4

; 284  :         if (_Bytes >= _Big_allocation_threshold) {

  00206	81 f9 00 10 00
	00		 cmp	 ecx, 4096		; 00001000H
  0020c	72 12		 jb	 SHORT $LN94@Emplace_re

; 205  :     const uintptr_t _Ptr_container   = _Ptr_user[-1];

  0020e	8b 57 fc	 mov	 edx, DWORD PTR [edi-4]
  00211	83 c1 23	 add	 ecx, 35			; 00000023H

; 206  : 
; 207  :     // If the following asserts, it likely means that we are performing
; 208  :     // an aligned delete on memory coming from an unaligned allocation.
; 209  :     _STL_ASSERT(_Ptr_user[-2] == _Big_allocation_sentinel, "invalid argument");
; 210  : 
; 211  :     // Extra paranoia on aligned allocation/deallocation; ensure _Ptr_container is
; 212  :     // in range [_Min_back_shift, _Non_user_size]
; 213  : #ifdef _DEBUG
; 214  :     constexpr uintptr_t _Min_back_shift = 2 * sizeof(void*);
; 215  : #else // ^^^ defined(_DEBUG) / !defined(_DEBUG) vvv
; 216  :     constexpr uintptr_t _Min_back_shift = sizeof(void*);
; 217  : #endif // ^^^ !defined(_DEBUG) ^^^
; 218  :     const uintptr_t _Back_shift = reinterpret_cast<uintptr_t>(_Ptr) - _Ptr_container;

  00214	2b fa		 sub	 edi, edx

; 219  :     _STL_VERIFY(_Back_shift >= _Min_back_shift && _Back_shift <= _Non_user_size, "invalid argument");

  00216	8d 47 fc	 lea	 eax, DWORD PTR [edi-4]
  00219	83 f8 1f	 cmp	 eax, 31			; 0000001fH
  0021c	77 3b		 ja	 SHORT $LN93@Emplace_re

; 220  :     _Ptr = reinterpret_cast<void*>(_Ptr_container);

  0021e	8b fa		 mov	 edi, edx
$LN94@Emplace_re:

; 289  :         ::operator delete(_Ptr, _Bytes);

  00220	51		 push	 ecx
  00221	57		 push	 edi
  00222	e8 00 00 00 00	 call	 ??3@YAXPAXI@Z		; operator delete
  00227	83 c4 08	 add	 esp, 8
$LN89@Emplace_re:
; File C:\Program Files\Microsoft Visual Studio\2022\Professional\VC\Tools\MSVC\14.44.35207\include\vector

; 2076 :         _Mylast  = _Newvec + _Newsize;

  0022a	8b 45 e8	 mov	 eax, DWORD PTR __Newsize$1$[ebp]
  0022d	89 1e		 mov	 DWORD PTR [esi], ebx
  0022f	8d 0c 80	 lea	 ecx, DWORD PTR [eax+eax*4]

; 910  :             _STD _Uninitialized_move(_Myfirst, _Whereptr, _Newvec, _Al);
; 911  :             _Constructed_first = _Newvec;
; 912  :             _STD _Uninitialized_move(_Whereptr, _Mylast, _Newvec + _Whereoff + 1, _Al);
; 913  :         }
; 914  : 
; 915  :         _Guard._New_begin = nullptr;
; 916  :         _Change_array(_Newvec, _Newsize, _Newcapacity);
; 917  :         return _Newvec + _Whereoff;

  00232	8b 45 dc	 mov	 eax, DWORD PTR tv718[ebp]

; 2076 :         _Mylast  = _Newvec + _Newsize;

  00235	c1 e1 04	 shl	 ecx, 4
  00238	03 cb		 add	 ecx, ebx
  0023a	89 4e 04	 mov	 DWORD PTR [esi+4], ecx

; 2077 :         _Myend   = _Newvec + _Newcapacity;

  0023d	8b 4d e4	 mov	 ecx, DWORD PTR tv719[ebp]
  00240	03 cb		 add	 ecx, ebx
  00242	89 4e 08	 mov	 DWORD PTR [esi+8], ecx

; 918  :     }

  00245	8b 4d f4	 mov	 ecx, DWORD PTR __$EHRec$[ebp]
  00248	64 89 0d 00 00
	00 00		 mov	 DWORD PTR fs:0, ecx
  0024f	59		 pop	 ecx
  00250	5f		 pop	 edi
  00251	5e		 pop	 esi
  00252	5b		 pop	 ebx
  00253	8b e5		 mov	 esp, ebp
  00255	5d		 pop	 ebp
  00256	c2 08 00	 ret	 8
$LN93@Emplace_re:
; File C:\Program Files\Microsoft Visual Studio\2022\Professional\VC\Tools\MSVC\14.44.35207\include\xmemory

; 219  :     _STL_VERIFY(_Back_shift >= _Min_back_shift && _Back_shift <= _Non_user_size, "invalid argument");

  00259	6a 00		 push	 0
  0025b	6a 00		 push	 0
  0025d	6a 00		 push	 0
  0025f	6a 00		 push	 0
  00261	6a 00		 push	 0
  00263	e8 00 00 00 00	 call	 __invoke_watson
$LN134@Emplace_re:
; File C:\Program Files\Microsoft Visual Studio\2022\Professional\VC\Tools\MSVC\14.44.35207\include\vector

; 888  :             _Xlength();

  00268	e8 00 00 00 00	 call	 ?_Xlength@?$vector@U__SET@CExchange@@V?$allocator@U__SET@CExchange@@@std@@@std@@CAXXZ ; std::vector<CExchange::__SET,std::allocator<CExchange::__SET> >::_Xlength
$LN135@Emplace_re:
; File C:\Program Files\Microsoft Visual Studio\2022\Professional\VC\Tools\MSVC\14.44.35207\include\xmemory

; 118  :             _Throw_bad_array_new_length(); // multiply overflow

  0026d	e8 00 00 00 00	 call	 ?_Throw_bad_array_new_length@std@@YAXXZ ; std::_Throw_bad_array_new_length
$LN130@Emplace_re:
  00272	cc		 int	 3
_TEXT	ENDS
;	COMDAT text$x
text$x	SEGMENT
__unwindfunclet$??$_Emplace_reallocate@ABU__SET@CExchange@@@?$vector@U__SET@CExchange@@V?$allocator@U__SET@CExchange@@@std@@@std@@AAEPAU__SET@CExchange@@QAU23@ABU23@@Z$0:
  00000	8d 4d c8	 lea	 ecx, DWORD PTR __Guard$[ebp]
  00003	e9 00 00 00 00	 jmp	 ??1_Reallocation_guard@?$vector@U__SET@CExchange@@V?$allocator@U__SET@CExchange@@@std@@@std@@QAE@XZ ; std::vector<CExchange::__SET,std::allocator<CExchange::__SET> >::_Reallocation_guard::~_Reallocation_guard
  00008	cc		 int	 3
  00009	cc		 int	 3
  0000a	cc		 int	 3
  0000b	cc		 int	 3
  0000c	cc		 int	 3
__ehhandler$??$_Emplace_reallocate@ABU__SET@CExchange@@@?$vector@U__SET@CExchange@@V?$allocator@U__SET@CExchange@@@std@@@std@@AAEPAU__SET@CExchange@@QAU23@ABU23@@Z:
  0000d	90		 npad	 1
  0000e	90		 npad	 1
  0000f	8b 54 24 08	 mov	 edx, DWORD PTR [esp+8]
  00013	8d 42 0c	 lea	 eax, DWORD PTR [edx+12]
  00016	8b 4a c4	 mov	 ecx, DWORD PTR [edx-60]
  00019	33 c8		 xor	 ecx, eax
  0001b	e8 00 00 00 00	 call	 @__security_check_cookie@4
  00020	b8 00 00 00 00	 mov	 eax, OFFSET __ehfuncinfo$??$_Emplace_reallocate@ABU__SET@CExchange@@@?$vector@U__SET@CExchange@@V?$allocator@U__SET@CExchange@@@std@@@std@@AAEPAU__SET@CExchange@@QAU23@ABU23@@Z
  00025	e9 00 00 00 00	 jmp	 ___CxxFrameHandler3
text$x	ENDS
??$_Emplace_reallocate@ABU__SET@CExchange@@@?$vector@U__SET@CExchange@@V?$allocator@U__SET@CExchange@@@std@@@std@@AAEPAU__SET@CExchange@@QAU23@ABU23@@Z ENDP ; std::vector<CExchange::__SET,std::allocator<CExchange::__SET> >::_Emplace_reallocate<CExchange::__SET const &>
; Function compile flags: /Ogtp
; File C:\Program Files\Microsoft Visual Studio\2022\Professional\VC\Tools\MSVC\14.44.35207\include\xtree
; File C:\Program Files\Microsoft Visual Studio\2022\Professional\VC\Tools\MSVC\14.44.35207\include\utility
; File C:\Program Files\Microsoft Visual Studio\2022\Professional\VC\Tools\MSVC\14.44.35207\include\vector
; File C:\Program Files\Microsoft Visual Studio\2022\Professional\VC\Tools\MSVC\14.44.35207\include\xmemory
; File C:\Program Files\Microsoft Visual Studio\2022\Professional\VC\Tools\MSVC\14.44.35207\include\xtree
; File C:\Program Files\Microsoft Visual Studio\2022\Professional\VC\Tools\MSVC\14.44.35207\include\xmemory
; File C:\Program Files\Microsoft Visual Studio\2022\Professional\VC\Tools\MSVC\14.44.35207\include\xtree
;	COMDAT ??$_Erase_tree@V?$allocator@U?$_Tree_node@U?$pair@$$CBHU__SETLIST@CExchange@@@std@@PAX@std@@@std@@@?$_Tree_val@U?$_Tree_simple_types@U?$pair@$$CBHU__SETLIST@CExchange@@@std@@@std@@@std@@QAEXAAV?$allocator@U?$_Tree_node@U?$pair@$$CBHU__SETLIST@CExchange@@@std@@PAX@std@@@1@PAU?$_Tree_node@U?$pair@$$CBHU__SETLIST@CExchange@@@std@@PAX@1@@Z
_TEXT	SEGMENT
_this$1$ = -4						; size = 4
__Al$ = 8						; size = 4
__Rootnode$ = 12					; size = 4
??$_Erase_tree@V?$allocator@U?$_Tree_node@U?$pair@$$CBHU__SETLIST@CExchange@@@std@@PAX@std@@@std@@@?$_Tree_val@U?$_Tree_simple_types@U?$pair@$$CBHU__SETLIST@CExchange@@@std@@@std@@@std@@QAEXAAV?$allocator@U?$_Tree_node@U?$pair@$$CBHU__SETLIST@CExchange@@@std@@PAX@std@@@1@PAU?$_Tree_node@U?$pair@$$CBHU__SETLIST@CExchange@@@std@@PAX@1@@Z PROC ; std::_Tree_val<std::_Tree_simple_types<std::pair<int const ,CExchange::__SETLIST> > >::_Erase_tree<std::allocator<std::_Tree_node<std::pair<int const ,CExchange::__SETLIST>,void *> > >, COMDAT
; _this$ = ecx

; 767  :     void _Erase_tree(_Alnode& _Al, _Nodeptr _Rootnode) noexcept {

  00000	55		 push	 ebp
  00001	8b ec		 mov	 ebp, esp
  00003	51		 push	 ecx
  00004	56		 push	 esi

; 768  :         while (!_Rootnode->_Isnil) { // free subtrees, then node

  00005	8b 75 0c	 mov	 esi, DWORD PTR __Rootnode$[ebp]
  00008	8b c1		 mov	 eax, ecx
  0000a	89 45 fc	 mov	 DWORD PTR _this$1$[ebp], eax
  0000d	80 7e 0d 00	 cmp	 BYTE PTR [esi+13], 0
  00011	75 39		 jne	 SHORT $LN56@Erase_tree
  00013	53		 push	 ebx
  00014	57		 push	 edi
$LL2@Erase_tree:

; 769  :             _Erase_tree(_Al, _Rootnode->_Right);

  00015	ff 76 08	 push	 DWORD PTR [esi+8]
  00018	8b c8		 mov	 ecx, eax
  0001a	ff 75 08	 push	 DWORD PTR __Al$[ebp]
  0001d	e8 00 00 00 00	 call	 ??$_Erase_tree@V?$allocator@U?$_Tree_node@U?$pair@$$CBHU__SETLIST@CExchange@@@std@@PAX@std@@@std@@@?$_Tree_val@U?$_Tree_simple_types@U?$pair@$$CBHU__SETLIST@CExchange@@@std@@@std@@@std@@QAEXAAV?$allocator@U?$_Tree_node@U?$pair@$$CBHU__SETLIST@CExchange@@@std@@PAX@std@@@1@PAU?$_Tree_node@U?$pair@$$CBHU__SETLIST@CExchange@@@std@@PAX@1@@Z ; std::_Tree_val<std::_Tree_simple_types<std::pair<int const ,CExchange::__SETLIST> > >::_Erase_tree<std::allocator<std::_Tree_node<std::pair<int const ,CExchange::__SETLIST>,void *> > >
; File C:\Program Files\Microsoft Visual Studio\2022\Professional\VC\Tools\MSVC\14.44.35207\include\utility

; 773  :     _Ty _Old_val = static_cast<_Ty&&>(_Val);

  00022	8b de		 mov	 ebx, esi

; 774  :     _Val         = static_cast<_Other&&>(_New_val);

  00024	8b 36		 mov	 esi, DWORD PTR [esi]
  00026	8d 4b 20	 lea	 ecx, DWORD PTR [ebx+32]
; File C:\Program Files\Microsoft Visual Studio\2022\Professional\VC\Tools\MSVC\14.44.35207\include\vector

; 830  :         _Tidy();

  00029	e8 00 00 00 00	 call	 ?_Tidy@?$vector@U__SET@CExchange@@V?$allocator@U__SET@CExchange@@@std@@@std@@AAEXXZ ; std::vector<CExchange::__SET,std::allocator<CExchange::__SET> >::_Tidy
  0002e	8d 4b 14	 lea	 ecx, DWORD PTR [ebx+20]
  00031	e8 00 00 00 00	 call	 ?_Tidy@?$vector@HV?$allocator@H@std@@@std@@AAEXXZ ; std::vector<int,std::allocator<int> >::_Tidy
; File C:\Program Files\Microsoft Visual Studio\2022\Professional\VC\Tools\MSVC\14.44.35207\include\xmemory

; 289  :         ::operator delete(_Ptr, _Bytes);

  00036	6a 2c		 push	 44			; 0000002cH
  00038	53		 push	 ebx
  00039	e8 00 00 00 00	 call	 ??3@YAXPAXI@Z		; operator delete
; File C:\Program Files\Microsoft Visual Studio\2022\Professional\VC\Tools\MSVC\14.44.35207\include\xtree

; 768  :         while (!_Rootnode->_Isnil) { // free subtrees, then node

  0003e	8b 45 fc	 mov	 eax, DWORD PTR _this$1$[ebp]
; File C:\Program Files\Microsoft Visual Studio\2022\Professional\VC\Tools\MSVC\14.44.35207\include\xmemory

; 289  :         ::operator delete(_Ptr, _Bytes);

  00041	83 c4 08	 add	 esp, 8
; File C:\Program Files\Microsoft Visual Studio\2022\Professional\VC\Tools\MSVC\14.44.35207\include\xtree

; 768  :         while (!_Rootnode->_Isnil) { // free subtrees, then node

  00044	80 7e 0d 00	 cmp	 BYTE PTR [esi+13], 0
  00048	74 cb		 je	 SHORT $LL2@Erase_tree
  0004a	5f		 pop	 edi
  0004b	5b		 pop	 ebx
$LN56@Erase_tree:
  0004c	5e		 pop	 esi

; 770  :             _Alnode::value_type::_Freenode(_Al, _STD exchange(_Rootnode, _Rootnode->_Left));
; 771  :         }
; 772  :     }

  0004d	8b e5		 mov	 esp, ebp
  0004f	5d		 pop	 ebp
  00050	c2 08 00	 ret	 8
??$_Erase_tree@V?$allocator@U?$_Tree_node@U?$pair@$$CBHU__SETLIST@CExchange@@@std@@PAX@std@@@std@@@?$_Tree_val@U?$_Tree_simple_types@U?$pair@$$CBHU__SETLIST@CExchange@@@std@@@std@@@std@@QAEXAAV?$allocator@U?$_Tree_node@U?$pair@$$CBHU__SETLIST@CExchange@@@std@@PAX@std@@@1@PAU?$_Tree_node@U?$pair@$$CBHU__SETLIST@CExchange@@@std@@PAX@1@@Z ENDP ; std::_Tree_val<std::_Tree_simple_types<std::pair<int const ,CExchange::__SETLIST> > >::_Erase_tree<std::allocator<std::_Tree_node<std::pair<int const ,CExchange::__SETLIST>,void *> > >
_TEXT	ENDS
; Function compile flags: /Ogtp
; File C:\Program Files\Microsoft Visual Studio\2022\Professional\VC\Tools\MSVC\14.44.35207\include\xmemory
;	COMDAT ??1?$_Alloc_construct_ptr@V?$allocator@U?$_Tree_node@U?$pair@$$CBHU__SETLIST@CExchange@@@std@@PAX@std@@@std@@@std@@QAE@XZ
_TEXT	SEGMENT
??1?$_Alloc_construct_ptr@V?$allocator@U?$_Tree_node@U?$pair@$$CBHU__SETLIST@CExchange@@@std@@PAX@std@@@std@@@std@@QAE@XZ PROC ; std::_Alloc_construct_ptr<std::allocator<std::_Tree_node<std::pair<int const ,CExchange::__SETLIST>,void *> > >::~_Alloc_construct_ptr<std::allocator<std::_Tree_node<std::pair<int const ,CExchange::__SETLIST>,void *> > >, COMDAT
; _this$ = ecx

; 1172 :         if (_Ptr) {

  00000	8b 41 04	 mov	 eax, DWORD PTR [ecx+4]
  00003	85 c0		 test	 eax, eax
  00005	74 0b		 je	 SHORT $LN10@Alloc_cons

; 289  :         ::operator delete(_Ptr, _Bytes);

  00007	6a 2c		 push	 44			; 0000002cH
  00009	50		 push	 eax
  0000a	e8 00 00 00 00	 call	 ??3@YAXPAXI@Z		; operator delete
  0000f	83 c4 08	 add	 esp, 8
$LN10@Alloc_cons:

; 1173 :             _Al.deallocate(_Ptr, 1);
; 1174 :         }
; 1175 :     }

  00012	c3		 ret	 0
??1?$_Alloc_construct_ptr@V?$allocator@U?$_Tree_node@U?$pair@$$CBHU__SETLIST@CExchange@@@std@@PAX@std@@@std@@@std@@QAE@XZ ENDP ; std::_Alloc_construct_ptr<std::allocator<std::_Tree_node<std::pair<int const ,CExchange::__SETLIST>,void *> > >::~_Alloc_construct_ptr<std::allocator<std::_Tree_node<std::pair<int const ,CExchange::__SETLIST>,void *> > >
_TEXT	ENDS
; Function compile flags: /Ogtp
; File C:\Program Files\Microsoft Visual Studio\2022\Professional\VC\Tools\MSVC\14.44.35207\include\xtree
; File C:\Program Files\Microsoft Visual Studio\2022\Professional\VC\Tools\MSVC\14.44.35207\include\type_traits
; File C:\Program Files\Microsoft Visual Studio\2022\Professional\VC\Tools\MSVC\14.44.35207\include\xtree
; File C:\Program Files\Microsoft Visual Studio\2022\Professional\VC\Tools\MSVC\14.44.35207\include\type_traits
; File C:\Program Files\Microsoft Visual Studio\2022\Professional\VC\Tools\MSVC\14.44.35207\include\xtree
;	COMDAT ??$_Find_lower_bound@H@?$_Tree@V?$_Tmap_traits@HU__SETLIST@CExchange@@U?$less@H@std@@V?$allocator@U?$pair@$$CBHU__SETLIST@CExchange@@@std@@@4@$0A@@std@@@std@@IBE?AU?$_Tree_find_result@PAU?$_Tree_node@U?$pair@$$CBHU__SETLIST@CExchange@@@std@@PAX@std@@@1@ABH@Z
_TEXT	SEGMENT
___$ReturnUdt$ = 8					; size = 4
__Keyval$ = 12						; size = 4
??$_Find_lower_bound@H@?$_Tree@V?$_Tmap_traits@HU__SETLIST@CExchange@@U?$less@H@std@@V?$allocator@U?$pair@$$CBHU__SETLIST@CExchange@@@std@@@4@$0A@@std@@@std@@IBE?AU?$_Tree_find_result@PAU?$_Tree_node@U?$pair@$$CBHU__SETLIST@CExchange@@@std@@PAX@std@@@1@ABH@Z PROC ; std::_Tree<std::_Tmap_traits<int,CExchange::__SETLIST,std::less<int>,std::allocator<std::pair<int const ,CExchange::__SETLIST> >,0> >::_Find_lower_bound<int>, COMDAT
; _this$ = ecx

; 1628 :     _Tree_find_result<_Nodeptr> _Find_lower_bound(const _Keyty& _Keyval) const {

  00000	55		 push	 ebp
  00001	8b ec		 mov	 ebp, esp

; 1629 :         const auto _Scary = _Get_scary();
; 1630 :         _Tree_find_result<_Nodeptr> _Result{{_Scary->_Myhead->_Parent, _Tree_child::_Right}, _Scary->_Myhead};

  00003	8b 09		 mov	 ecx, DWORD PTR [ecx]
  00005	8b 55 08	 mov	 edx, DWORD PTR ___$ReturnUdt$[ebp]
  00008	8b 41 04	 mov	 eax, DWORD PTR [ecx+4]
  0000b	89 02		 mov	 DWORD PTR [edx], eax
  0000d	c7 42 04 00 00
	00 00		 mov	 DWORD PTR [edx+4], 0
  00014	89 4a 08	 mov	 DWORD PTR [edx+8], ecx

; 1631 :         _Nodeptr _Trynode = _Result._Location._Parent;
; 1632 :         while (!_Trynode->_Isnil) {

  00017	80 78 0d 00	 cmp	 BYTE PTR [eax+13], 0
  0001b	75 28		 jne	 SHORT $LN13@Find_lower
; File C:\Program Files\Microsoft Visual Studio\2022\Professional\VC\Tools\MSVC\14.44.35207\include\type_traits

; 2380 :         return _Left < _Right;

  0001d	8b 4d 0c	 mov	 ecx, DWORD PTR __Keyval$[ebp]
  00020	56		 push	 esi
  00021	8b 31		 mov	 esi, DWORD PTR [ecx]
$LL2@Find_lower:
; File C:\Program Files\Microsoft Visual Studio\2022\Professional\VC\Tools\MSVC\14.44.35207\include\xtree

; 1633 :             _Result._Location._Parent = _Trynode;

  00023	89 02		 mov	 DWORD PTR [edx], eax
; File C:\Program Files\Microsoft Visual Studio\2022\Professional\VC\Tools\MSVC\14.44.35207\include\type_traits

; 2380 :         return _Left < _Right;

  00025	39 70 10	 cmp	 DWORD PTR [eax+16], esi
; File C:\Program Files\Microsoft Visual Studio\2022\Professional\VC\Tools\MSVC\14.44.35207\include\xtree

; 1634 :             if (_DEBUG_LT_PRED(_Getcomp(), _Traits::_Kfn(_Trynode->_Myval), _Keyval)) {

  00028	7d 07		 jge	 SHORT $LN4@Find_lower

; 1635 :                 _Result._Location._Child = _Tree_child::_Right;
; 1636 :                 _Trynode                 = _Trynode->_Right;

  0002a	8b 40 08	 mov	 eax, DWORD PTR [eax+8]
  0002d	33 c9		 xor	 ecx, ecx

; 1637 :             } else {

  0002f	eb 0a		 jmp	 SHORT $LN5@Find_lower
$LN4@Find_lower:

; 1638 :                 _Result._Location._Child = _Tree_child::_Left;
; 1639 :                 _Result._Bound           = _Trynode;

  00031	89 42 08	 mov	 DWORD PTR [edx+8], eax

; 1640 :                 _Trynode                 = _Trynode->_Left;

  00034	b9 01 00 00 00	 mov	 ecx, 1
  00039	8b 00		 mov	 eax, DWORD PTR [eax]
$LN5@Find_lower:

; 1631 :         _Nodeptr _Trynode = _Result._Location._Parent;
; 1632 :         while (!_Trynode->_Isnil) {

  0003b	89 4a 04	 mov	 DWORD PTR [edx+4], ecx
  0003e	80 78 0d 00	 cmp	 BYTE PTR [eax+13], 0
  00042	74 df		 je	 SHORT $LL2@Find_lower
  00044	5e		 pop	 esi
$LN13@Find_lower:

; 1641 :             }
; 1642 :         }
; 1643 : 
; 1644 :         return _Result;
; 1645 :     }

  00045	8b c2		 mov	 eax, edx
  00047	5d		 pop	 ebp
  00048	c2 08 00	 ret	 8
??$_Find_lower_bound@H@?$_Tree@V?$_Tmap_traits@HU__SETLIST@CExchange@@U?$less@H@std@@V?$allocator@U?$pair@$$CBHU__SETLIST@CExchange@@@std@@@4@$0A@@std@@@std@@IBE?AU?$_Tree_find_result@PAU?$_Tree_node@U?$pair@$$CBHU__SETLIST@CExchange@@@std@@PAX@std@@@1@ABH@Z ENDP ; std::_Tree<std::_Tmap_traits<int,CExchange::__SETLIST,std::less<int>,std::allocator<std::pair<int const ,CExchange::__SETLIST> >,0> >::_Find_lower_bound<int>
_TEXT	ENDS
; Function compile flags: /Ogtp
; File C:\Program Files\Microsoft Visual Studio\2022\Professional\VC\Tools\MSVC\14.44.35207\include\vector
;	COMDAT ??1?$pair@$$CBHU__SETLIST@CExchange@@@std@@QAE@XZ
_TEXT	SEGMENT
??1?$pair@$$CBHU__SETLIST@CExchange@@@std@@QAE@XZ PROC	; std::pair<int const ,CExchange::__SETLIST>::~pair<int const ,CExchange::__SETLIST>, COMDAT
; _this$ = ecx

; 830  :         _Tidy();

  00000	56		 push	 esi
  00001	8d 71 04	 lea	 esi, DWORD PTR [ecx+4]
  00004	8d 4e 0c	 lea	 ecx, DWORD PTR [esi+12]
  00007	e8 00 00 00 00	 call	 ?_Tidy@?$vector@U__SET@CExchange@@V?$allocator@U__SET@CExchange@@@std@@@std@@AAEXXZ ; std::vector<CExchange::__SET,std::allocator<CExchange::__SET> >::_Tidy
  0000c	8b ce		 mov	 ecx, esi
  0000e	5e		 pop	 esi
  0000f	e9 00 00 00 00	 jmp	 ?_Tidy@?$vector@HV?$allocator@H@std@@@std@@AAEXXZ ; std::vector<int,std::allocator<int> >::_Tidy
??1?$pair@$$CBHU__SETLIST@CExchange@@@std@@QAE@XZ ENDP	; std::pair<int const ,CExchange::__SETLIST>::~pair<int const ,CExchange::__SETLIST>
_TEXT	ENDS
; Function compile flags: /Ogtp
; File C:\Program Files\Microsoft Visual Studio\2022\Professional\VC\Tools\MSVC\14.44.35207\include\xmemory
;	COMDAT ??$_Allocate_manually_vector_aligned@U_Default_allocate_traits@std@@@std@@YAPAXI@Z
_TEXT	SEGMENT
__Bytes$ = 8						; size = 4
??$_Allocate_manually_vector_aligned@U_Default_allocate_traits@std@@@std@@YAPAXI@Z PROC ; std::_Allocate_manually_vector_aligned<std::_Default_allocate_traits>, COMDAT

; 182  : __declspec(allocator) void* _Allocate_manually_vector_aligned(const size_t _Bytes) {

  00000	55		 push	 ebp
  00001	8b ec		 mov	 ebp, esp

; 183  :     // allocate _Bytes manually aligned to at least _Big_allocation_alignment
; 184  :     const size_t _Block_size = _Non_user_size + _Bytes;

  00003	8b 45 08	 mov	 eax, DWORD PTR __Bytes$[ebp]
  00006	8d 48 23	 lea	 ecx, DWORD PTR [eax+35]

; 185  :     if (_Block_size <= _Bytes) {

  00009	3b c8		 cmp	 ecx, eax
  0000b	0f 86 00 00 00
	00		 jbe	 ?_Throw_bad_array_new_length@std@@YAXXZ ; std::_Throw_bad_array_new_length

; 136  :         return ::operator new(_Bytes);

  00011	51		 push	 ecx
  00012	e8 00 00 00 00	 call	 ??2@YAPAXI@Z		; operator new

; 186  :         _Throw_bad_array_new_length(); // add overflow
; 187  :     }
; 188  : 
; 189  :     const uintptr_t _Ptr_container = reinterpret_cast<uintptr_t>(_Traits::_Allocate(_Block_size));

  00017	8b c8		 mov	 ecx, eax

; 136  :         return ::operator new(_Bytes);

  00019	83 c4 04	 add	 esp, 4

; 190  :     _STL_VERIFY(_Ptr_container != 0, "invalid argument"); // validate even in release since we're doing p[-1]

  0001c	85 c9		 test	 ecx, ecx
  0001e	74 0b		 je	 SHORT $LN9@Allocate_m

; 191  :     void* const _Ptr = reinterpret_cast<void*>((_Ptr_container + _Non_user_size) & ~(_Big_allocation_alignment - 1));

  00020	8d 41 23	 lea	 eax, DWORD PTR [ecx+35]
  00023	83 e0 e0	 and	 eax, -32		; ffffffe0H

; 192  :     static_cast<uintptr_t*>(_Ptr)[-1] = _Ptr_container;

  00026	89 48 fc	 mov	 DWORD PTR [eax-4], ecx

; 193  : 
; 194  : #ifdef _DEBUG
; 195  :     static_cast<uintptr_t*>(_Ptr)[-2] = _Big_allocation_sentinel;
; 196  : #endif // defined(_DEBUG)
; 197  :     return _Ptr;
; 198  : }

  00029	5d		 pop	 ebp
  0002a	c3		 ret	 0
$LN9@Allocate_m:

; 190  :     _STL_VERIFY(_Ptr_container != 0, "invalid argument"); // validate even in release since we're doing p[-1]

  0002b	6a 00		 push	 0
  0002d	6a 00		 push	 0
  0002f	6a 00		 push	 0
  00031	6a 00		 push	 0
  00033	6a 00		 push	 0
  00035	e8 00 00 00 00	 call	 __invoke_watson
$LN7@Allocate_m:
  0003a	cc		 int	 3
??$_Allocate_manually_vector_aligned@U_Default_allocate_traits@std@@@std@@YAPAXI@Z ENDP ; std::_Allocate_manually_vector_aligned<std::_Default_allocate_traits>
_TEXT	ENDS
; Function compile flags: /Ogtp
; File C:\IAGOS\server\v18\Source\Source\_Common\Item.h
;	COMDAT ?GetAtId@?$CItemContainer@VCItemElem@@@@QAEPAVCItemElem@@K@Z
_TEXT	SEGMENT
_dwId$ = 8						; size = 4
?GetAtId@?$CItemContainer@VCItemElem@@@@QAEPAVCItemElem@@K@Z PROC ; CItemContainer<CItemElem>::GetAtId, COMDAT
; _this$ = ecx

; 518  : {

  00000	55		 push	 ebp
  00001	8b ec		 mov	 ebp, esp

; 519  : 	if( dwId >= (DWORD)( GetMax() ) ) return NULL;

  00003	8b 45 08	 mov	 eax, DWORD PTR _dwId$[ebp]
  00006	3b 41 0c	 cmp	 eax, DWORD PTR [ecx+12]
  00009	73 15		 jae	 SHORT $LN7@GetAtId

; 520  : 	T* pItemElem = &m_apItem[ dwId ];

  0000b	69 c0 b0 00 00
	00		 imul	 eax, eax, 176
  00011	03 41 10	 add	 eax, DWORD PTR [ecx+16]

; 50   : 	BOOL			IsEmpty() { return m_dwItemId ? FALSE : TRUE; }

  00014	33 c9		 xor	 ecx, ecx
  00016	39 48 0c	 cmp	 DWORD PTR [eax+12], ecx
  00019	0f 44 c1	 cmove	 eax, ecx

; 523  : 	return pItemElem;
; 524  : }

  0001c	5d		 pop	 ebp
  0001d	c2 04 00	 ret	 4
$LN7@GetAtId:

; 521  : 	if( pItemElem->IsEmpty() ) 
; 522  : 		return NULL;

  00020	33 c0		 xor	 eax, eax

; 523  : 	return pItemElem;
; 524  : }

  00022	5d		 pop	 ebp
  00023	c2 04 00	 ret	 4
?GetAtId@?$CItemContainer@VCItemElem@@@@QAEPAVCItemElem@@K@Z ENDP ; CItemContainer<CItemElem>::GetAtId
_TEXT	ENDS
; Function compile flags: /Ogtp
;	COMDAT ??_GCExchange@@UAEPAXI@Z
_TEXT	SEGMENT
___flags$ = 8						; size = 4
??_GCExchange@@UAEPAXI@Z PROC				; CExchange::`scalar deleting destructor', COMDAT
; _this$ = ecx
  00000	55		 push	 ebp
  00001	8b ec		 mov	 ebp, esp
  00003	56		 push	 esi
  00004	8b f1		 mov	 esi, ecx
  00006	e8 00 00 00 00	 call	 ??1CExchange@@UAE@XZ	; CExchange::~CExchange
  0000b	f6 45 08 01	 test	 BYTE PTR ___flags$[ebp], 1
  0000f	74 0b		 je	 SHORT $LN5@scalar
  00011	6a 0c		 push	 12			; 0000000cH
  00013	56		 push	 esi
  00014	e8 00 00 00 00	 call	 ??3@YAXPAXI@Z		; operator delete
  00019	83 c4 08	 add	 esp, 8
$LN5@scalar:
  0001c	8b c6		 mov	 eax, esi
  0001e	5e		 pop	 esi
  0001f	5d		 pop	 ebp
  00020	c2 04 00	 ret	 4
??_GCExchange@@UAEPAXI@Z ENDP				; CExchange::`scalar deleting destructor'
_TEXT	ENDS
; Function compile flags: /Ogtp
; File C:\Program Files\Microsoft Visual Studio\2022\Professional\VC\Tools\MSVC\14.44.35207\include\xtree
;	COMDAT ?_Insert_node@?$_Tree_val@U?$_Tree_simple_types@U?$pair@$$CBHU__SETLIST@CExchange@@@std@@@std@@@std@@QAEPAU?$_Tree_node@U?$pair@$$CBHU__SETLIST@CExchange@@@std@@PAX@2@U?$_Tree_id@PAU?$_Tree_node@U?$pair@$$CBHU__SETLIST@CExchange@@@std@@PAX@std@@@2@QAU32@@Z
_TEXT	SEGMENT
__Head$1$ = -4						; size = 4
__Loc$ = 8						; size = 8
__Newnode$ = 16						; size = 4
?_Insert_node@?$_Tree_val@U?$_Tree_simple_types@U?$pair@$$CBHU__SETLIST@CExchange@@@std@@@std@@@std@@QAEPAU?$_Tree_node@U?$pair@$$CBHU__SETLIST@CExchange@@@std@@PAX@2@U?$_Tree_id@PAU?$_Tree_node@U?$pair@$$CBHU__SETLIST@CExchange@@@std@@PAX@std@@@2@QAU32@@Z PROC ; std::_Tree_val<std::_Tree_simple_types<std::pair<int const ,CExchange::__SETLIST> > >::_Insert_node, COMDAT
; _this$ = ecx

; 669  :     _Nodeptr _Insert_node(const _Tree_id<_Nodeptr> _Loc, const _Nodeptr _Newnode) noexcept {

  00000	55		 push	 ebp
  00001	8b ec		 mov	 ebp, esp
  00003	51		 push	 ecx

; 670  :         ++_Mysize;
; 671  :         const auto _Head  = _Myhead;
; 672  :         _Newnode->_Parent = _Loc._Parent;

  00004	8b 55 08	 mov	 edx, DWORD PTR __Loc$[ebp]
  00007	53		 push	 ebx
  00008	8b d9		 mov	 ebx, ecx
  0000a	57		 push	 edi
  0000b	8b 7d 10	 mov	 edi, DWORD PTR __Newnode$[ebp]
  0000e	8b 03		 mov	 eax, DWORD PTR [ebx]
  00010	ff 43 04	 inc	 DWORD PTR [ebx+4]
  00013	89 45 fc	 mov	 DWORD PTR __Head$1$[ebp], eax
  00016	89 57 04	 mov	 DWORD PTR [edi+4], edx

; 673  :         if (_Loc._Parent == _Head) { // first node in tree, just set head values

  00019	3b d0		 cmp	 edx, eax
  0001b	75 16		 jne	 SHORT $LN5@Insert_nod

; 674  :             _Head->_Left     = _Newnode;

  0001d	89 38		 mov	 DWORD PTR [eax], edi

; 675  :             _Head->_Parent   = _Newnode;

  0001f	89 78 04	 mov	 DWORD PTR [eax+4], edi

; 676  :             _Head->_Right    = _Newnode;

  00022	89 78 08	 mov	 DWORD PTR [eax+8], edi

; 735  :         return _Newnode;
; 736  :     }

  00025	8b c7		 mov	 eax, edi
  00027	c6 47 0c 01	 mov	 BYTE PTR [edi+12], 1
  0002b	5f		 pop	 edi
  0002c	5b		 pop	 ebx
  0002d	8b e5		 mov	 esp, ebp
  0002f	5d		 pop	 ebp
  00030	c2 0c 00	 ret	 12			; 0000000cH
$LN5@Insert_nod:

; 677  :             _Newnode->_Color = _Black; // the root is black
; 678  :             return _Newnode;
; 679  :         }
; 680  : 
; 681  :         _STL_INTERNAL_CHECK(_Loc._Child != _Tree_child::_Unused);
; 682  :         if (_Loc._Child == _Tree_child::_Right) { // add to right of _Loc._Parent

  00033	83 7d 0c 00	 cmp	 DWORD PTR __Loc$[ebp+4], 0
  00037	75 0d		 jne	 SHORT $LN6@Insert_nod

; 683  :             _STL_INTERNAL_CHECK(_Loc._Parent->_Right->_Isnil);
; 684  :             _Loc._Parent->_Right = _Newnode;

  00039	89 7a 08	 mov	 DWORD PTR [edx+8], edi

; 685  :             if (_Loc._Parent == _Head->_Right) { // remember rightmost node

  0003c	3b 50 08	 cmp	 edx, DWORD PTR [eax+8]
  0003f	75 0d		 jne	 SHORT $LN9@Insert_nod

; 686  :                 _Head->_Right = _Newnode;

  00041	89 78 08	 mov	 DWORD PTR [eax+8], edi

; 687  :             }
; 688  :         } else { // add to left of _Loc._Parent

  00044	eb 08		 jmp	 SHORT $LN9@Insert_nod
$LN6@Insert_nod:

; 689  :             _STL_INTERNAL_CHECK(_Loc._Parent->_Left->_Isnil);
; 690  :             _Loc._Parent->_Left = _Newnode;

  00046	89 3a		 mov	 DWORD PTR [edx], edi

; 691  :             if (_Loc._Parent == _Head->_Left) { // remember leftmost node

  00048	3b 10		 cmp	 edx, DWORD PTR [eax]
  0004a	75 02		 jne	 SHORT $LN9@Insert_nod

; 692  :                 _Head->_Left = _Newnode;

  0004c	89 38		 mov	 DWORD PTR [eax], edi
$LN9@Insert_nod:

; 693  :             }
; 694  :         }
; 695  : 
; 696  :         for (_Nodeptr _Pnode = _Newnode; _Pnode->_Parent->_Color == _Red;) {

  0004e	8b 4f 04	 mov	 ecx, DWORD PTR [edi+4]
  00051	8b c7		 mov	 eax, edi
  00053	80 79 0c 00	 cmp	 BYTE PTR [ecx+12], 0
  00057	0f 85 7d 01 00
	00		 jne	 $LN3@Insert_nod
  0005d	56		 push	 esi
  0005e	66 90		 npad	 2
$LL4@Insert_nod:

; 697  :             if (_Pnode->_Parent == _Pnode->_Parent->_Parent->_Left) { // fixup red-red in left subtree

  00060	8b 50 04	 mov	 edx, DWORD PTR [eax+4]
  00063	8b 72 04	 mov	 esi, DWORD PTR [edx+4]
  00066	8b 0e		 mov	 ecx, DWORD PTR [esi]
  00068	3b d1		 cmp	 edx, ecx
  0006a	0f 85 aa 00 00
	00		 jne	 $LN10@Insert_nod

; 698  :                 const auto _Parent_sibling = _Pnode->_Parent->_Parent->_Right;

  00070	8b 4e 08	 mov	 ecx, DWORD PTR [esi+8]

; 699  :                 if (_Parent_sibling->_Color == _Red) { // parent's sibling has two red children, blacken both

  00073	80 79 0c 00	 cmp	 BYTE PTR [ecx+12], 0
  00077	0f 84 a3 00 00
	00		 je	 $LN82@Insert_nod

; 700  :                     _Pnode->_Parent->_Color          = _Black;
; 701  :                     _Parent_sibling->_Color          = _Black;
; 702  :                     _Pnode->_Parent->_Parent->_Color = _Red;
; 703  :                     _Pnode                           = _Pnode->_Parent->_Parent;
; 704  :                 } else { // parent's sibling has red and black children
; 705  :                     if (_Pnode == _Pnode->_Parent->_Right) { // rotate right child to left

  0007d	8b 72 08	 mov	 esi, DWORD PTR [edx+8]
  00080	3b c6		 cmp	 eax, esi
  00082	75 37		 jne	 SHORT $LN57@Insert_nod

; 485  :         _Wherenode->_Right = _Pnode->_Left;

  00084	8b 0e		 mov	 ecx, DWORD PTR [esi]

; 706  :                         _Pnode = _Pnode->_Parent;

  00086	8b c2		 mov	 eax, edx

; 485  :         _Wherenode->_Right = _Pnode->_Left;

  00088	89 4a 08	 mov	 DWORD PTR [edx+8], ecx

; 486  : 
; 487  :         if (!_Pnode->_Left->_Isnil) {

  0008b	8b 0e		 mov	 ecx, DWORD PTR [esi]
  0008d	80 79 0d 00	 cmp	 BYTE PTR [ecx+13], 0
  00091	75 03		 jne	 SHORT $LN21@Insert_nod

; 488  :             _Pnode->_Left->_Parent = _Wherenode;

  00093	89 41 04	 mov	 DWORD PTR [ecx+4], eax
$LN21@Insert_nod:

; 489  :         }
; 490  : 
; 491  :         _Pnode->_Parent = _Wherenode->_Parent;

  00096	8b 4a 04	 mov	 ecx, DWORD PTR [edx+4]
  00099	89 4e 04	 mov	 DWORD PTR [esi+4], ecx

; 492  : 
; 493  :         if (_Wherenode == _Myhead->_Parent) {

  0009c	8b 0b		 mov	 ecx, DWORD PTR [ebx]
  0009e	3b 41 04	 cmp	 eax, DWORD PTR [ecx+4]
  000a1	75 05		 jne	 SHORT $LN22@Insert_nod

; 494  :             _Myhead->_Parent = _Pnode;

  000a3	89 71 04	 mov	 DWORD PTR [ecx+4], esi
  000a6	eb 0e		 jmp	 SHORT $LN25@Insert_nod
$LN22@Insert_nod:

; 495  :         } else if (_Wherenode == _Wherenode->_Parent->_Left) {

  000a8	8b 4a 04	 mov	 ecx, DWORD PTR [edx+4]
  000ab	3b 01		 cmp	 eax, DWORD PTR [ecx]
  000ad	75 04		 jne	 SHORT $LN24@Insert_nod

; 496  :             _Wherenode->_Parent->_Left = _Pnode;

  000af	89 31		 mov	 DWORD PTR [ecx], esi

; 497  :         } else {

  000b1	eb 03		 jmp	 SHORT $LN25@Insert_nod
$LN24@Insert_nod:

; 498  :             _Wherenode->_Parent->_Right = _Pnode;

  000b3	89 71 08	 mov	 DWORD PTR [ecx+8], esi
$LN25@Insert_nod:

; 499  :         }
; 500  : 
; 501  :         _Pnode->_Left       = _Wherenode;

  000b6	89 06		 mov	 DWORD PTR [esi], eax

; 502  :         _Wherenode->_Parent = _Pnode;

  000b8	89 70 04	 mov	 DWORD PTR [eax+4], esi
$LN57@Insert_nod:

; 707  :                         _Lrotate(_Pnode);
; 708  :                     }
; 709  : 
; 710  :                     _Pnode->_Parent->_Color          = _Black; // propagate red up

  000bb	8b 48 04	 mov	 ecx, DWORD PTR [eax+4]
  000be	c6 41 0c 01	 mov	 BYTE PTR [ecx+12], 1

; 711  :                     _Pnode->_Parent->_Parent->_Color = _Red;

  000c2	8b 48 04	 mov	 ecx, DWORD PTR [eax+4]
  000c5	8b 49 04	 mov	 ecx, DWORD PTR [ecx+4]
  000c8	c6 41 0c 00	 mov	 BYTE PTR [ecx+12], 0

; 712  :                     _Rrotate(_Pnode->_Parent->_Parent);

  000cc	8b 48 04	 mov	 ecx, DWORD PTR [eax+4]
  000cf	8b 51 04	 mov	 edx, DWORD PTR [ecx+4]

; 506  :         _Nodeptr _Pnode   = _Wherenode->_Left;

  000d2	8b 32		 mov	 esi, DWORD PTR [edx]

; 507  :         _Wherenode->_Left = _Pnode->_Right;

  000d4	8b 4e 08	 mov	 ecx, DWORD PTR [esi+8]
  000d7	89 0a		 mov	 DWORD PTR [edx], ecx

; 508  : 
; 509  :         if (!_Pnode->_Right->_Isnil) {

  000d9	8b 4e 08	 mov	 ecx, DWORD PTR [esi+8]
  000dc	80 79 0d 00	 cmp	 BYTE PTR [ecx+13], 0
  000e0	75 03		 jne	 SHORT $LN29@Insert_nod

; 510  :             _Pnode->_Right->_Parent = _Wherenode;

  000e2	89 51 04	 mov	 DWORD PTR [ecx+4], edx
$LN29@Insert_nod:

; 511  :         }
; 512  : 
; 513  :         _Pnode->_Parent = _Wherenode->_Parent;

  000e5	8b 4a 04	 mov	 ecx, DWORD PTR [edx+4]
  000e8	89 4e 04	 mov	 DWORD PTR [esi+4], ecx

; 514  : 
; 515  :         if (_Wherenode == _Myhead->_Parent) {

  000eb	8b 0b		 mov	 ecx, DWORD PTR [ebx]
  000ed	3b 51 04	 cmp	 edx, DWORD PTR [ecx+4]
  000f0	75 0b		 jne	 SHORT $LN30@Insert_nod

; 516  :             _Myhead->_Parent = _Pnode;

  000f2	89 71 04	 mov	 DWORD PTR [ecx+4], esi

; 521  :         }
; 522  : 
; 523  :         _Pnode->_Right      = _Wherenode;

  000f5	89 56 08	 mov	 DWORD PTR [esi+8], edx

; 713  :                 }
; 714  :             } else { // fixup red-red in right subtree

  000f8	e9 cc 00 00 00	 jmp	 $LN81@Insert_nod
$LN30@Insert_nod:

; 517  :         } else if (_Wherenode == _Wherenode->_Parent->_Right) {

  000fd	8b 4a 04	 mov	 ecx, DWORD PTR [edx+4]
  00100	3b 51 08	 cmp	 edx, DWORD PTR [ecx+8]
  00103	75 0b		 jne	 SHORT $LN32@Insert_nod

; 518  :             _Wherenode->_Parent->_Right = _Pnode;

  00105	89 71 08	 mov	 DWORD PTR [ecx+8], esi

; 521  :         }
; 522  : 
; 523  :         _Pnode->_Right      = _Wherenode;

  00108	89 56 08	 mov	 DWORD PTR [esi+8], edx

; 713  :                 }
; 714  :             } else { // fixup red-red in right subtree

  0010b	e9 b9 00 00 00	 jmp	 $LN81@Insert_nod
$LN32@Insert_nod:

; 520  :             _Wherenode->_Parent->_Left = _Pnode;

  00110	89 31		 mov	 DWORD PTR [ecx], esi

; 521  :         }
; 522  : 
; 523  :         _Pnode->_Right      = _Wherenode;

  00112	89 56 08	 mov	 DWORD PTR [esi+8], edx

; 713  :                 }
; 714  :             } else { // fixup red-red in right subtree

  00115	e9 af 00 00 00	 jmp	 $LN81@Insert_nod
$LN10@Insert_nod:

; 715  :                 const auto _Parent_sibling = _Pnode->_Parent->_Parent->_Left;
; 716  :                 if (_Parent_sibling->_Color == _Red) { // parent's sibling has two red children, blacken both

  0011a	80 79 0c 00	 cmp	 BYTE PTR [ecx+12], 0
  0011e	75 1d		 jne	 SHORT $LN15@Insert_nod
$LN82@Insert_nod:

; 693  :             }
; 694  :         }
; 695  : 
; 696  :         for (_Nodeptr _Pnode = _Newnode; _Pnode->_Parent->_Color == _Red;) {

  00120	c6 42 0c 01	 mov	 BYTE PTR [edx+12], 1
  00124	c6 41 0c 01	 mov	 BYTE PTR [ecx+12], 1
  00128	8b 48 04	 mov	 ecx, DWORD PTR [eax+4]
  0012b	8b 49 04	 mov	 ecx, DWORD PTR [ecx+4]
  0012e	c6 41 0c 00	 mov	 BYTE PTR [ecx+12], 0
  00132	8b 48 04	 mov	 ecx, DWORD PTR [eax+4]
  00135	8b 41 04	 mov	 eax, DWORD PTR [ecx+4]
  00138	e9 8f 00 00 00	 jmp	 $LN2@Insert_nod
$LN15@Insert_nod:

; 717  :                     _Pnode->_Parent->_Color          = _Black;
; 718  :                     _Parent_sibling->_Color          = _Black;
; 719  :                     _Pnode->_Parent->_Parent->_Color = _Red;
; 720  :                     _Pnode                           = _Pnode->_Parent->_Parent;
; 721  :                 } else { // parent's sibling has red and black children
; 722  :                     if (_Pnode == _Pnode->_Parent->_Left) { // rotate left child to right

  0013d	8b 32		 mov	 esi, DWORD PTR [edx]
  0013f	3b c6		 cmp	 eax, esi
  00141	75 3a		 jne	 SHORT $LN42@Insert_nod

; 507  :         _Wherenode->_Left = _Pnode->_Right;

  00143	8b 4e 08	 mov	 ecx, DWORD PTR [esi+8]

; 723  :                         _Pnode = _Pnode->_Parent;

  00146	8b c2		 mov	 eax, edx

; 507  :         _Wherenode->_Left = _Pnode->_Right;

  00148	89 08		 mov	 DWORD PTR [eax], ecx

; 508  : 
; 509  :         if (!_Pnode->_Right->_Isnil) {

  0014a	8b 4e 08	 mov	 ecx, DWORD PTR [esi+8]
  0014d	80 79 0d 00	 cmp	 BYTE PTR [ecx+13], 0
  00151	75 03		 jne	 SHORT $LN37@Insert_nod

; 510  :             _Pnode->_Right->_Parent = _Wherenode;

  00153	89 41 04	 mov	 DWORD PTR [ecx+4], eax
$LN37@Insert_nod:

; 511  :         }
; 512  : 
; 513  :         _Pnode->_Parent = _Wherenode->_Parent;

  00156	8b 4a 04	 mov	 ecx, DWORD PTR [edx+4]
  00159	89 4e 04	 mov	 DWORD PTR [esi+4], ecx

; 514  : 
; 515  :         if (_Wherenode == _Myhead->_Parent) {

  0015c	8b 0b		 mov	 ecx, DWORD PTR [ebx]
  0015e	3b 41 04	 cmp	 eax, DWORD PTR [ecx+4]
  00161	75 05		 jne	 SHORT $LN38@Insert_nod

; 516  :             _Myhead->_Parent = _Pnode;

  00163	89 71 04	 mov	 DWORD PTR [ecx+4], esi
  00166	eb 0f		 jmp	 SHORT $LN41@Insert_nod
$LN38@Insert_nod:

; 517  :         } else if (_Wherenode == _Wherenode->_Parent->_Right) {

  00168	8b 4a 04	 mov	 ecx, DWORD PTR [edx+4]
  0016b	3b 41 08	 cmp	 eax, DWORD PTR [ecx+8]
  0016e	75 05		 jne	 SHORT $LN40@Insert_nod

; 518  :             _Wherenode->_Parent->_Right = _Pnode;

  00170	89 71 08	 mov	 DWORD PTR [ecx+8], esi

; 519  :         } else {

  00173	eb 02		 jmp	 SHORT $LN41@Insert_nod
$LN40@Insert_nod:

; 520  :             _Wherenode->_Parent->_Left = _Pnode;

  00175	89 31		 mov	 DWORD PTR [ecx], esi
$LN41@Insert_nod:

; 521  :         }
; 522  : 
; 523  :         _Pnode->_Right      = _Wherenode;

  00177	89 46 08	 mov	 DWORD PTR [esi+8], eax

; 524  :         _Wherenode->_Parent = _Pnode;

  0017a	89 70 04	 mov	 DWORD PTR [eax+4], esi
$LN42@Insert_nod:

; 724  :                         _Rrotate(_Pnode);
; 725  :                     }
; 726  : 
; 727  :                     _Pnode->_Parent->_Color          = _Black; // propagate red up

  0017d	8b 48 04	 mov	 ecx, DWORD PTR [eax+4]
  00180	c6 41 0c 01	 mov	 BYTE PTR [ecx+12], 1

; 728  :                     _Pnode->_Parent->_Parent->_Color = _Red;

  00184	8b 48 04	 mov	 ecx, DWORD PTR [eax+4]
  00187	8b 49 04	 mov	 ecx, DWORD PTR [ecx+4]
  0018a	c6 41 0c 00	 mov	 BYTE PTR [ecx+12], 0

; 729  :                     _Lrotate(_Pnode->_Parent->_Parent);

  0018e	8b 48 04	 mov	 ecx, DWORD PTR [eax+4]
  00191	8b 51 04	 mov	 edx, DWORD PTR [ecx+4]

; 484  :         _Nodeptr _Pnode    = _Wherenode->_Right;

  00194	8b 72 08	 mov	 esi, DWORD PTR [edx+8]

; 485  :         _Wherenode->_Right = _Pnode->_Left;

  00197	8b 0e		 mov	 ecx, DWORD PTR [esi]
  00199	89 4a 08	 mov	 DWORD PTR [edx+8], ecx

; 486  : 
; 487  :         if (!_Pnode->_Left->_Isnil) {

  0019c	8b 0e		 mov	 ecx, DWORD PTR [esi]
  0019e	80 79 0d 00	 cmp	 BYTE PTR [ecx+13], 0
  001a2	75 03		 jne	 SHORT $LN45@Insert_nod

; 488  :             _Pnode->_Left->_Parent = _Wherenode;

  001a4	89 51 04	 mov	 DWORD PTR [ecx+4], edx
$LN45@Insert_nod:

; 489  :         }
; 490  : 
; 491  :         _Pnode->_Parent = _Wherenode->_Parent;

  001a7	8b 4a 04	 mov	 ecx, DWORD PTR [edx+4]
  001aa	89 4e 04	 mov	 DWORD PTR [esi+4], ecx

; 492  : 
; 493  :         if (_Wherenode == _Myhead->_Parent) {

  001ad	8b 0b		 mov	 ecx, DWORD PTR [ebx]
  001af	3b 51 04	 cmp	 edx, DWORD PTR [ecx+4]
  001b2	75 05		 jne	 SHORT $LN46@Insert_nod

; 494  :             _Myhead->_Parent = _Pnode;

  001b4	89 71 04	 mov	 DWORD PTR [ecx+4], esi
  001b7	eb 0e		 jmp	 SHORT $LN49@Insert_nod
$LN46@Insert_nod:

; 495  :         } else if (_Wherenode == _Wherenode->_Parent->_Left) {

  001b9	8b 4a 04	 mov	 ecx, DWORD PTR [edx+4]
  001bc	3b 11		 cmp	 edx, DWORD PTR [ecx]
  001be	75 04		 jne	 SHORT $LN48@Insert_nod

; 496  :             _Wherenode->_Parent->_Left = _Pnode;

  001c0	89 31		 mov	 DWORD PTR [ecx], esi

; 497  :         } else {

  001c2	eb 03		 jmp	 SHORT $LN49@Insert_nod
$LN48@Insert_nod:

; 498  :             _Wherenode->_Parent->_Right = _Pnode;

  001c4	89 71 08	 mov	 DWORD PTR [ecx+8], esi
$LN49@Insert_nod:

; 499  :         }
; 500  : 
; 501  :         _Pnode->_Left       = _Wherenode;

  001c7	89 16		 mov	 DWORD PTR [esi], edx
$LN81@Insert_nod:

; 693  :             }
; 694  :         }
; 695  : 
; 696  :         for (_Nodeptr _Pnode = _Newnode; _Pnode->_Parent->_Color == _Red;) {

  001c9	89 72 04	 mov	 DWORD PTR [edx+4], esi
$LN2@Insert_nod:
  001cc	8b 48 04	 mov	 ecx, DWORD PTR [eax+4]
  001cf	80 79 0c 00	 cmp	 BYTE PTR [ecx+12], 0
  001d3	0f 84 87 fe ff
	ff		 je	 $LL4@Insert_nod
  001d9	5e		 pop	 esi
$LN3@Insert_nod:

; 730  :                 }
; 731  :             }
; 732  :         }
; 733  : 
; 734  :         _Head->_Parent->_Color = _Black; // root is always black

  001da	8b 45 fc	 mov	 eax, DWORD PTR __Head$1$[ebp]
  001dd	8b 40 04	 mov	 eax, DWORD PTR [eax+4]
  001e0	c6 40 0c 01	 mov	 BYTE PTR [eax+12], 1

; 735  :         return _Newnode;
; 736  :     }

  001e4	8b c7		 mov	 eax, edi
  001e6	5f		 pop	 edi
  001e7	5b		 pop	 ebx
  001e8	8b e5		 mov	 esp, ebp
  001ea	5d		 pop	 ebp
  001eb	c2 0c 00	 ret	 12			; 0000000cH
?_Insert_node@?$_Tree_val@U?$_Tree_simple_types@U?$pair@$$CBHU__SETLIST@CExchange@@@std@@@std@@@std@@QAEPAU?$_Tree_node@U?$pair@$$CBHU__SETLIST@CExchange@@@std@@PAX@2@U?$_Tree_id@PAU?$_Tree_node@U?$pair@$$CBHU__SETLIST@CExchange@@@std@@PAX@std@@@2@QAU32@@Z ENDP ; std::_Tree_val<std::_Tree_simple_types<std::pair<int const ,CExchange::__SETLIST> > >::_Insert_node
_TEXT	ENDS
; Function compile flags: /Ogtp
; File C:\IAGOS\server\v18\Source\Source\_Common\Exchange.cpp
; File C:\Program Files\Microsoft Visual Studio\2022\Professional\VC\Tools\MSVC\14.44.35207\include\vector
; File C:\IAGOS\server\v18\Source\Source\_Common\Exchange.cpp
; File C:\Program Files\Microsoft Visual Studio\2022\Professional\VC\Tools\MSVC\14.44.35207\include\vector
; File C:\IAGOS\server\v18\Source\Source\_Common\Exchange.cpp
; File C:\Program Files\Microsoft Visual Studio\2022\Professional\VC\Tools\MSVC\14.44.35207\include\vector
; File C:\IAGOS\server\v18\Source\Source\_Common\Exchange.cpp
; File C:\Program Files\Microsoft Visual Studio\2022\Professional\VC\Tools\MSVC\14.44.35207\include\vector
; File C:\IAGOS\server\v18\Source\Source\_Common\Exchange.cpp
; File C:\Program Files\Microsoft Visual Studio\2022\Professional\VC\Tools\MSVC\14.44.35207\include\vector
; File C:\Program Files\Microsoft Visual Studio\2022\Professional\VC\Tools\MSVC\14.44.35207\include\xmemory
; File C:\Program Files\Microsoft Visual Studio\2022\Professional\VC\Tools\MSVC\14.44.35207\include\vector
; File C:\Program Files\Microsoft Visual Studio\2022\Professional\VC\Tools\MSVC\14.44.35207\include\xutility
; File C:\Program Files\Microsoft Visual Studio\2022\Professional\VC\Tools\MSVC\14.44.35207\include\vector
; File C:\IAGOS\server\v18\Source\Source\_Common\Exchange.cpp
; File C:\Program Files\Microsoft Visual Studio\2022\Professional\VC\Tools\MSVC\14.44.35207\include\vector
; File C:\IAGOS\server\v18\Source\Source\_Common\Exchange.cpp
;	COMDAT ?GetRemovePointList@CExchange@@QAE?AV?$vector@U__POINT@CExchange@@V?$allocator@U__POINT@CExchange@@@std@@@std@@HH@Z
_TEXT	SEGMENT
$T2 = -16						; size = 4
__$EHRec$ = -12						; size = 12
___$ReturnUdt$ = 8					; size = 4
_nMMIId$ = 12						; size = 4
__First$1$ = 12						; size = 4
_nListNum$ = 16						; size = 4
?GetRemovePointList@CExchange@@QAE?AV?$vector@U__POINT@CExchange@@V?$allocator@U__POINT@CExchange@@@std@@@std@@HH@Z PROC ; CExchange::GetRemovePointList, COMDAT
; _this$ = ecx

; 374  : {

  00000	55		 push	 ebp
  00001	8b ec		 mov	 ebp, esp
  00003	6a ff		 push	 -1
  00005	68 00 00 00 00	 push	 __ehhandler$?GetRemovePointList@CExchange@@QAE?AV?$vector@U__POINT@CExchange@@V?$allocator@U__POINT@CExchange@@@std@@@std@@HH@Z
  0000a	64 a1 00 00 00
	00		 mov	 eax, DWORD PTR fs:0
  00010	50		 push	 eax
  00011	51		 push	 ecx
  00012	53		 push	 ebx
  00013	56		 push	 esi
  00014	57		 push	 edi
  00015	a1 00 00 00 00	 mov	 eax, DWORD PTR ___security_cookie
  0001a	33 c5		 xor	 eax, ebp
  0001c	50		 push	 eax
  0001d	8d 45 f4	 lea	 eax, DWORD PTR __$EHRec$[ebp]
  00020	64 a3 00 00 00
	00		 mov	 DWORD PTR fs:0, eax
  00026	c7 45 f0 01 00
	00 00		 mov	 DWORD PTR $T2[ebp], 1
; File C:\Program Files\Microsoft Visual Studio\2022\Professional\VC\Tools\MSVC\14.44.35207\include\vector

; 400  :     _CONSTEXPR20 _Vector_val() noexcept : _Myfirst(), _Mylast(), _Myend() {}

  0002d	8b 5d 08	 mov	 ebx, DWORD PTR ___$ReturnUdt$[ebp]
  00030	c7 03 00 00 00
	00		 mov	 DWORD PTR [ebx], 0
  00036	c7 43 04 00 00
	00 00		 mov	 DWORD PTR [ebx+4], 0
  0003d	c7 43 08 00 00
	00 00		 mov	 DWORD PTR [ebx+8], 0
; File C:\IAGOS\server\v18\Source\Source\_Common\Exchange.cpp

; 376  : 	PSETLIST pSetList = FindExchange( nMMIId );

  00044	ff 75 0c	 push	 DWORD PTR _nMMIId$[ebp]
  00047	c7 45 fc 00 00
	00 00		 mov	 DWORD PTR __$EHRec$[ebp+8], 0
  0004e	c7 45 f0 01 00
	00 00		 mov	 DWORD PTR $T2[ebp], 1
  00055	e8 00 00 00 00	 call	 ?FindExchange@CExchange@@QAEPAU__SETLIST@1@H@Z ; CExchange::FindExchange

; 377  : 	if( !pSetList )

  0005a	85 c0		 test	 eax, eax
  0005c	74 7b		 je	 SHORT $LN79@GetRemoveP
; File C:\Program Files\Microsoft Visual Studio\2022\Professional\VC\Tools\MSVC\14.44.35207\include\vector

; 1915 :         return static_cast<size_type>(_My_data._Mylast - _My_data._Myfirst);

  0005e	8b 48 10	 mov	 ecx, DWORD PTR [eax+16]
  00061	8b 70 0c	 mov	 esi, DWORD PTR [eax+12]
  00064	2b ce		 sub	 ecx, esi
  00066	b8 67 66 66 66	 mov	 eax, 1717986919		; 66666667H
  0006b	f7 e9		 imul	 ecx
; File C:\IAGOS\server\v18\Source\Source\_Common\Exchange.cpp

; 380  : 	if( nListNum > (int)( pSetList->vecSet.size()-1 ) )

  0006d	8b 4d 10	 mov	 ecx, DWORD PTR _nListNum$[ebp]
; File C:\Program Files\Microsoft Visual Studio\2022\Professional\VC\Tools\MSVC\14.44.35207\include\vector

; 1915 :         return static_cast<size_type>(_My_data._Mylast - _My_data._Myfirst);

  00070	c1 fa 05	 sar	 edx, 5
  00073	8b c2		 mov	 eax, edx
  00075	c1 e8 1f	 shr	 eax, 31			; 0000001fH
; File C:\IAGOS\server\v18\Source\Source\_Common\Exchange.cpp

; 380  : 	if( nListNum > (int)( pSetList->vecSet.size()-1 ) )

  00078	48		 dec	 eax
  00079	03 c2		 add	 eax, edx
  0007b	3b c8		 cmp	 ecx, eax
  0007d	7f 5a		 jg	 SHORT $LN79@GetRemoveP
; File C:\Program Files\Microsoft Visual Studio\2022\Professional\VC\Tools\MSVC\14.44.35207\include\vector

; 1934 :         return _My_data._Myfirst[_Pos];

  0007f	8d 3c 89	 lea	 edi, DWORD PTR [ecx+ecx*4]
  00082	c1 e7 04	 shl	 edi, 4
; File C:\IAGOS\server\v18\Source\Source\_Common\Exchange.cpp

; 383  : 	vecList = pSetList->vecSet[nListNum].vecRemovePoint;

  00085	83 c7 34	 add	 edi, 52			; 00000034H
  00088	03 fe		 add	 edi, esi
; File C:\Program Files\Microsoft Visual Studio\2022\Professional\VC\Tools\MSVC\14.44.35207\include\vector

; 1524 :         if (this == _STD addressof(_Right)) {

  0008a	3b df		 cmp	 ebx, edi
  0008c	74 4b		 je	 SHORT $LN79@GetRemoveP

; 1525 :             return *this;
; 1526 :         }
; 1527 : 
; 1528 :         auto& _Al       = _Getal();
; 1529 :         auto& _Right_al = _Right._Getal();
; 1530 :         if constexpr (_Choose_pocca_v<_Alty>) {
; 1531 :             if (_Al != _Right_al) {
; 1532 :                 _Tidy();
; 1533 :                 _Mypair._Myval2._Reload_proxy(_GET_PROXY_ALLOCATOR(_Alty, _Al), _GET_PROXY_ALLOCATOR(_Alty, _Right_al));
; 1534 :             }
; 1535 :         }
; 1536 : 
; 1537 :         _Pocca(_Al, _Right_al);
; 1538 :         auto& _Right_data = _Right._Mypair._Myval2;
; 1539 :         _Assign_counted_range(_Right_data._Myfirst, static_cast<size_type>(_Right_data._Mylast - _Right_data._Myfirst));

  0008e	8b 07		 mov	 eax, DWORD PTR [edi]
  00090	8b 7f 04	 mov	 edi, DWORD PTR [edi+4]
  00093	2b f8		 sub	 edi, eax
  00095	89 45 0c	 mov	 DWORD PTR __First$1$[ebp], eax
  00098	c1 ff 03	 sar	 edi, 3

; 1433 :         if (_Newsize > _Oldcapacity) {

  0009b	85 ff		 test	 edi, edi
  0009d	74 24		 je	 SHORT $LN78@GetRemoveP

; 1703 :         if (_Newsize > max_size()) {

  0009f	81 ff ff ff ff
	1f		 cmp	 edi, 536870911		; 1fffffffH
  000a5	77 48		 ja	 SHORT $LN155@GetRemoveP

; 1705 :         }
; 1706 : 
; 1707 :         const size_type _Newcapacity = _Calculate_growth(_Newsize);
; 1708 : 
; 1709 :         if (_Myfirst) { // destroy and deallocate old array
; 1710 :             _Destroy_range(_Myfirst, _Mylast, _Al);
; 1711 :             _ASAN_VECTOR_REMOVE;
; 1712 :             _Al.deallocate(_Myfirst, static_cast<size_type>(_Myend - _Myfirst));
; 1713 : 
; 1714 :             _Myfirst = nullptr;
; 1715 :             _Mylast  = nullptr;
; 1716 :             _Myend   = nullptr;
; 1717 :         }
; 1718 : 
; 1719 :         _Buy_raw(_Newcapacity);

  000a7	57		 push	 edi
  000a8	8b cb		 mov	 ecx, ebx
  000aa	e8 00 00 00 00	 call	 ?_Buy_raw@?$vector@U__POINT@CExchange@@V?$allocator@U__POINT@CExchange@@@std@@@std@@AAEXI@Z ; std::vector<CExchange::__POINT,std::allocator<CExchange::__POINT> >::_Buy_raw

; 1436 :                 _Mylast = _STD _Uninitialized_copy_n(_STD move(_First), _Newsize, _Myfirst, _Al);

  000af	8b 33		 mov	 esi, DWORD PTR [ebx]
; File C:\Program Files\Microsoft Visual Studio\2022\Professional\VC\Tools\MSVC\14.44.35207\include\xmemory

; 1930 :             _STD _Copy_memmove_n(_UFirst, _Count, _STD _Unfancy(_Dest));

  000b1	56		 push	 esi
  000b2	57		 push	 edi
  000b3	ff 75 0c	 push	 DWORD PTR __First$1$[ebp]
  000b6	e8 00 00 00 00	 call	 ??$_Copy_memmove_n@PAU__POINT@CExchange@@PAU12@@std@@YAPAU__POINT@CExchange@@PAU12@I0@Z ; std::_Copy_memmove_n<CExchange::__POINT *,CExchange::__POINT *>

; 1931 :             _Dest += _Count;

  000bb	8d 04 fe	 lea	 eax, DWORD PTR [esi+edi*8]
; File C:\Program Files\Microsoft Visual Studio\2022\Professional\VC\Tools\MSVC\14.44.35207\include\vector

; 1436 :                 _Mylast = _STD _Uninitialized_copy_n(_STD move(_First), _Newsize, _Myfirst, _Al);

  000be	89 43 04	 mov	 DWORD PTR [ebx+4], eax

; 1437 :                 _ASAN_VECTOR_CREATE;
; 1438 :             } else {
; 1439 :                 _ASAN_VECTOR_CREATE_GUARD;
; 1440 :                 _Mylast = _STD _Uninitialized_copy_n(_STD move(_First), _Newsize, _Myfirst, _Al);
; 1441 :             }
; 1442 :             return;

  000c1	eb 13		 jmp	 SHORT $LN153@GetRemoveP
$LN78@GetRemoveP:
; File C:\Program Files\Microsoft Visual Studio\2022\Professional\VC\Tools\MSVC\14.44.35207\include\xutility

; 4808 :             return _Copy_memmove_n(_First, static_cast<size_t>(_Count), _Dest);

  000c3	6a 00		 push	 0
  000c5	57		 push	 edi
  000c6	50		 push	 eax
  000c7	e8 00 00 00 00	 call	 ??$_Copy_memmove_n@PAU__POINT@CExchange@@PAU12@@std@@YAPAU__POINT@CExchange@@PAU12@I0@Z ; std::_Copy_memmove_n<CExchange::__POINT *,CExchange::__POINT *>
; File C:\Program Files\Microsoft Visual Studio\2022\Professional\VC\Tools\MSVC\14.44.35207\include\vector

; 1474 :             const pointer _Newlast = _Myfirst + _Newsize;

  000cc	8d 0c fd 00 00
	00 00		 lea	 ecx, DWORD PTR [edi*8]

; 1475 :             _STD _Copy_n_unchecked4(_STD move(_First), _Newsize, _Myfirst);
; 1476 :             _STD _Destroy_range(_Newlast, _Mylast, _Al);
; 1477 :             _ASAN_VECTOR_MODIFY(static_cast<difference_type>(_Newsize - _Oldsize));
; 1478 :             _Mylast = _Newlast;

  000d3	89 4b 04	 mov	 DWORD PTR [ebx+4], ecx
$LN153@GetRemoveP:
; File C:\IAGOS\server\v18\Source\Source\_Common\Exchange.cpp

; 384  : 	return vecList;

  000d6	83 c4 0c	 add	 esp, 12			; 0000000cH
$LN79@GetRemoveP:
  000d9	8b c3		 mov	 eax, ebx

; 385  : }

  000db	8b 4d f4	 mov	 ecx, DWORD PTR __$EHRec$[ebp]
  000de	64 89 0d 00 00
	00 00		 mov	 DWORD PTR fs:0, ecx
  000e5	59		 pop	 ecx
  000e6	5f		 pop	 edi
  000e7	5e		 pop	 esi
  000e8	5b		 pop	 ebx
  000e9	8b e5		 mov	 esp, ebp
  000eb	5d		 pop	 ebp
  000ec	c2 0c 00	 ret	 12			; 0000000cH
$LN155@GetRemoveP:
; File C:\Program Files\Microsoft Visual Studio\2022\Professional\VC\Tools\MSVC\14.44.35207\include\vector

; 1704 :             _Xlength();

  000ef	e8 00 00 00 00	 call	 ?_Xlength@?$vector@U__POINT@CExchange@@V?$allocator@U__POINT@CExchange@@@std@@@std@@CAXXZ ; std::vector<CExchange::__POINT,std::allocator<CExchange::__POINT> >::_Xlength
$LN152@GetRemoveP:
  000f4	cc		 int	 3
_TEXT	ENDS
;	COMDAT text$x
text$x	SEGMENT
__unwindfunclet$?GetRemovePointList@CExchange@@QAE?AV?$vector@U__POINT@CExchange@@V?$allocator@U__POINT@CExchange@@@std@@@std@@HH@Z$0:
  00000	8b 45 f0	 mov	 eax, DWORD PTR $T2[ebp]
  00003	83 e0 01	 and	 eax, 1
  00006	0f 84 0c 00 00
	00		 je	 $LN6@GetRemoveP
  0000c	83 65 f0 fe	 and	 DWORD PTR $T2[ebp], -2	; fffffffeH
  00010	8b 4d 08	 mov	 ecx, DWORD PTR ___$ReturnUdt$[ebp]
  00013	e9 00 00 00 00	 jmp	 ??1?$vector@U__POINT@CExchange@@V?$allocator@U__POINT@CExchange@@@std@@@std@@QAE@XZ ; std::vector<CExchange::__POINT,std::allocator<CExchange::__POINT> >::~vector<CExchange::__POINT,std::allocator<CExchange::__POINT> >
$LN6@GetRemoveP:
  00018	c3		 ret	 0
  00019	cc		 int	 3
  0001a	cc		 int	 3
  0001b	cc		 int	 3
  0001c	cc		 int	 3
  0001d	cc		 int	 3
__ehhandler$?GetRemovePointList@CExchange@@QAE?AV?$vector@U__POINT@CExchange@@V?$allocator@U__POINT@CExchange@@@std@@@std@@HH@Z:
  0001e	90		 npad	 1
  0001f	90		 npad	 1
  00020	8b 54 24 08	 mov	 edx, DWORD PTR [esp+8]
  00024	8d 42 0c	 lea	 eax, DWORD PTR [edx+12]
  00027	8b 4a ec	 mov	 ecx, DWORD PTR [edx-20]
  0002a	33 c8		 xor	 ecx, eax
  0002c	e8 00 00 00 00	 call	 @__security_check_cookie@4
  00031	b8 00 00 00 00	 mov	 eax, OFFSET __ehfuncinfo$?GetRemovePointList@CExchange@@QAE?AV?$vector@U__POINT@CExchange@@V?$allocator@U__POINT@CExchange@@@std@@@std@@HH@Z
  00036	e9 00 00 00 00	 jmp	 ___CxxFrameHandler3
text$x	ENDS
?GetRemovePointList@CExchange@@QAE?AV?$vector@U__POINT@CExchange@@V?$allocator@U__POINT@CExchange@@@std@@@std@@HH@Z ENDP ; CExchange::GetRemovePointList
; Function compile flags: /Ogtp
; File C:\IAGOS\server\v18\Source\Source\_Common\Exchange.cpp
; File C:\Program Files\Microsoft Visual Studio\2022\Professional\VC\Tools\MSVC\14.44.35207\include\vector
; File C:\IAGOS\server\v18\Source\Source\_Common\Exchange.cpp
; File C:\Program Files\Microsoft Visual Studio\2022\Professional\VC\Tools\MSVC\14.44.35207\include\vector
; File C:\IAGOS\server\v18\Source\Source\_Common\Exchange.cpp
; File C:\Program Files\Microsoft Visual Studio\2022\Professional\VC\Tools\MSVC\14.44.35207\include\vector
; File C:\IAGOS\server\v18\Source\Source\_Common\Exchange.cpp
; File C:\Program Files\Microsoft Visual Studio\2022\Professional\VC\Tools\MSVC\14.44.35207\include\vector
; File C:\IAGOS\server\v18\Source\Source\_Common\Exchange.cpp
; File C:\Program Files\Microsoft Visual Studio\2022\Professional\VC\Tools\MSVC\14.44.35207\include\vector
; File C:\IAGOS\server\v18\Source\Source\_Common\Exchange.cpp
; File C:\IAGOS\server\v18\Source\Source\_Common\xUtil.h
; File C:\IAGOS\server\v18\Source\Source\_Common\Exchange.cpp
; File C:\IAGOS\server\v18\Source\Source\_Common\xUtil.h
; File C:\Program Files\Microsoft Visual Studio\2022\Professional\VC\Tools\MSVC\14.44.35207\include\vector
; File C:\IAGOS\server\v18\Source\Source\_Common\xUtil.h
; File C:\IAGOS\server\v18\Source\Source\_Common\Exchange.cpp
; File C:\IAGOS\server\v18\Source\Source\_Common\xUtil.h
; File C:\Program Files\Microsoft Visual Studio\2022\Professional\VC\Tools\MSVC\14.44.35207\include\vector
; File C:\IAGOS\server\v18\Source\Source\_Common\Exchange.cpp
; File C:\Program Files\Microsoft Visual Studio\2022\Professional\VC\Tools\MSVC\14.44.35207\include\vector
; File C:\IAGOS\server\v18\Source\Source\_Common\Exchange.cpp
; File C:\Program Files\Microsoft Visual Studio\2022\Professional\VC\Tools\MSVC\14.44.35207\include\vector
; File C:\Program Files\Microsoft Visual Studio\2022\Professional\VC\Tools\MSVC\14.44.35207\include\xutility
; File C:\Program Files\Microsoft Visual Studio\2022\Professional\VC\Tools\MSVC\14.44.35207\include\vector
; File C:\IAGOS\server\v18\Source\Source\_Common\Exchange.cpp
; File C:\IAGOS\server\v18\Source\Source\_Common\xUtil.h
; File C:\Program Files\Microsoft Visual Studio\2022\Professional\VC\Tools\MSVC\14.44.35207\include\xutility
; File C:\Program Files\Microsoft Visual Studio\2022\Professional\VC\Tools\MSVC\14.44.35207\include\vector
; File C:\Program Files\Microsoft Visual Studio\2022\Professional\VC\Tools\MSVC\14.44.35207\include\xutility
; File C:\IAGOS\server\v18\Source\Source\_Common\xUtil.h
; File C:\IAGOS\server\v18\Source\Source\_Common\Exchange.cpp
; File C:\Program Files\Microsoft Visual Studio\2022\Professional\VC\Tools\MSVC\14.44.35207\include\xutility
; File C:\Program Files\Microsoft Visual Studio\2022\Professional\VC\Tools\MSVC\14.44.35207\include\vector
; File C:\Program Files\Microsoft Visual Studio\2022\Professional\VC\Tools\MSVC\14.44.35207\include\xutility
; File C:\IAGOS\server\v18\Source\Source\_Common\Exchange.cpp
; File C:\Program Files\Microsoft Visual Studio\2022\Professional\VC\Tools\MSVC\14.44.35207\include\vector
; File C:\IAGOS\server\v18\Source\Source\_Common\Exchange.cpp
; File C:\Program Files\Microsoft Visual Studio\2022\Professional\VC\Tools\MSVC\14.44.35207\include\vector
; File C:\IAGOS\server\v18\Source\Source\_Common\Exchange.cpp
;	COMDAT ?GetPayItemList@CExchange@@QAE?AV?$vector@U__ITEM@CExchange@@V?$allocator@U__ITEM@CExchange@@@std@@@std@@HH@Z
_TEXT	SEGMENT
_payItem$ = -40						; size = 12
tv887 = -28						; size = 4
_pSetList$1$ = -24					; size = 4
$T2 = -20						; size = 4
_nRandom$1$ = -16					; size = 4
__$EHRec$ = -12						; size = 12
___$ReturnUdt$ = 8					; size = 4
_nMMIId$ = 12						; size = 4
_nProb$1$ = 12						; size = 4
_nListNum$ = 16						; size = 4
_nCount$1$ = 16						; size = 4
?GetPayItemList@CExchange@@QAE?AV?$vector@U__ITEM@CExchange@@V?$allocator@U__ITEM@CExchange@@@std@@@std@@HH@Z PROC ; CExchange::GetPayItemList, COMDAT
; _this$ = ecx

; 319  : {

  00000	55		 push	 ebp
  00001	8b ec		 mov	 ebp, esp
  00003	6a ff		 push	 -1
  00005	68 00 00 00 00	 push	 __ehhandler$?GetPayItemList@CExchange@@QAE?AV?$vector@U__ITEM@CExchange@@V?$allocator@U__ITEM@CExchange@@@std@@@std@@HH@Z
  0000a	64 a1 00 00 00
	00		 mov	 eax, DWORD PTR fs:0
  00010	50		 push	 eax
  00011	83 ec 1c	 sub	 esp, 28			; 0000001cH
  00014	56		 push	 esi
  00015	57		 push	 edi
  00016	a1 00 00 00 00	 mov	 eax, DWORD PTR ___security_cookie
  0001b	33 c5		 xor	 eax, ebp
  0001d	50		 push	 eax
  0001e	8d 45 f4	 lea	 eax, DWORD PTR __$EHRec$[ebp]
  00021	64 a3 00 00 00
	00		 mov	 DWORD PTR fs:0, eax
  00027	c7 45 ec 01 00
	00 00		 mov	 DWORD PTR $T2[ebp], 1
; File C:\Program Files\Microsoft Visual Studio\2022\Professional\VC\Tools\MSVC\14.44.35207\include\vector

; 400  :     _CONSTEXPR20 _Vector_val() noexcept : _Myfirst(), _Mylast(), _Myend() {}

  0002e	8b 7d 08	 mov	 edi, DWORD PTR ___$ReturnUdt$[ebp]
  00031	c7 07 00 00 00
	00		 mov	 DWORD PTR [edi], 0
  00037	c7 47 04 00 00
	00 00		 mov	 DWORD PTR [edi+4], 0
  0003e	c7 47 08 00 00
	00 00		 mov	 DWORD PTR [edi+8], 0
; File C:\IAGOS\server\v18\Source\Source\_Common\Exchange.cpp

; 321  : 	PSETLIST pSetList = FindExchange( nMMIId );

  00045	ff 75 0c	 push	 DWORD PTR _nMMIId$[ebp]
  00048	c7 45 fc 00 00
	00 00		 mov	 DWORD PTR __$EHRec$[ebp+8], 0
  0004f	c7 45 ec 01 00
	00 00		 mov	 DWORD PTR $T2[ebp], 1
  00056	e8 00 00 00 00	 call	 ?FindExchange@CExchange@@QAEPAU__SETLIST@1@H@Z ; CExchange::FindExchange
  0005b	89 45 e8	 mov	 DWORD PTR _pSetList$1$[ebp], eax

; 322  : 	if( !pSetList )

  0005e	85 c0		 test	 eax, eax
  00060	0f 84 24 01 00
	00		 je	 $LN183@GetPayItem
; File C:\Program Files\Microsoft Visual Studio\2022\Professional\VC\Tools\MSVC\14.44.35207\include\vector

; 1915 :         return static_cast<size_type>(_My_data._Mylast - _My_data._Myfirst);

  00066	8b 48 10	 mov	 ecx, DWORD PTR [eax+16]
  00069	8b 70 0c	 mov	 esi, DWORD PTR [eax+12]
  0006c	2b ce		 sub	 ecx, esi
  0006e	b8 67 66 66 66	 mov	 eax, 1717986919		; 66666667H
  00073	f7 e9		 imul	 ecx
; File C:\IAGOS\server\v18\Source\Source\_Common\Exchange.cpp

; 325  : 	if( nListNum > (int)( pSetList->vecSet.size()-1 ) )

  00075	8b 4d 10	 mov	 ecx, DWORD PTR _nListNum$[ebp]
; File C:\Program Files\Microsoft Visual Studio\2022\Professional\VC\Tools\MSVC\14.44.35207\include\vector

; 1915 :         return static_cast<size_type>(_My_data._Mylast - _My_data._Myfirst);

  00078	c1 fa 05	 sar	 edx, 5
  0007b	8b c2		 mov	 eax, edx
  0007d	c1 e8 1f	 shr	 eax, 31			; 0000001fH
; File C:\IAGOS\server\v18\Source\Source\_Common\Exchange.cpp

; 325  : 	if( nListNum > (int)( pSetList->vecSet.size()-1 ) )

  00080	48		 dec	 eax
  00081	03 c2		 add	 eax, edx
  00083	3b c8		 cmp	 ecx, eax
  00085	0f 8f ff 00 00
	00		 jg	 $LN183@GetPayItem
; File C:\Program Files\Microsoft Visual Studio\2022\Professional\VC\Tools\MSVC\14.44.35207\include\vector

; 1934 :         return _My_data._Myfirst[_Pos];

  0008b	8d 04 89	 lea	 eax, DWORD PTR [ecx+ecx*4]
  0008e	c1 e0 04	 shl	 eax, 4
; File C:\IAGOS\server\v18\Source\Source\_Common\Exchange.cpp

; 328  : 	vector<__ITEM> payItem = pSetList->vecSet[nListNum].vecPayItem;

  00091	8d 4d d8	 lea	 ecx, DWORD PTR _payItem$[ebp]
; File C:\Program Files\Microsoft Visual Studio\2022\Professional\VC\Tools\MSVC\14.44.35207\include\vector

; 1934 :         return _My_data._Myfirst[_Pos];

  00094	89 45 e4	 mov	 DWORD PTR tv887[ebp], eax
; File C:\IAGOS\server\v18\Source\Source\_Common\Exchange.cpp

; 328  : 	vector<__ITEM> payItem = pSetList->vecSet[nListNum].vecPayItem;

  00097	83 c0 40	 add	 eax, 64			; 00000040H
  0009a	03 c6		 add	 eax, esi
  0009c	50		 push	 eax
  0009d	e8 00 00 00 00	 call	 ??0?$vector@U__ITEM@CExchange@@V?$allocator@U__ITEM@CExchange@@@std@@@std@@QAE@ABV01@@Z ; std::vector<CExchange::__ITEM,std::allocator<CExchange::__ITEM> >::vector<CExchange::__ITEM,std::allocator<CExchange::__ITEM> >
; File C:\IAGOS\server\v18\Source\Source\_Common\xUtil.h

; 16   : 	g_next = g_next * 1103515245 + 12345;// + nRandomSeed[ i++ ];

  000a2	69 35 00 00 00
	00 6d 4e c6 41	 imul	 esi, DWORD PTR ?g_next@@3KA, 1103515245 ; g_next

; 22   : 	return  xRand() % num;

  000ac	b8 83 de 1b 43	 mov	 eax, 1125899907		; 431bde83H
; File C:\IAGOS\server\v18\Source\Source\_Common\Exchange.cpp

; 329  : 	int nProb = 1000000;

  000b1	b9 40 42 0f 00	 mov	 ecx, 1000000		; 000f4240H
  000b6	c7 45 fc 01 00
	00 00		 mov	 DWORD PTR __$EHRec$[ebp+8], 1
  000bd	89 4d 0c	 mov	 DWORD PTR _nProb$1$[ebp], ecx
; File C:\IAGOS\server\v18\Source\Source\_Common\xUtil.h

; 16   : 	g_next = g_next * 1103515245 + 12345;// + nRandomSeed[ i++ ];

  000c0	81 c6 39 30 00
	00		 add	 esi, 12345		; 00003039H

; 22   : 	return  xRand() % num;

  000c6	f7 e6		 mul	 esi

; 16   : 	g_next = g_next * 1103515245 + 12345;// + nRandomSeed[ i++ ];

  000c8	89 35 00 00 00
	00		 mov	 DWORD PTR ?g_next@@3KA, esi ; g_next

; 22   : 	return  xRand() % num;

  000ce	c1 ea 12	 shr	 edx, 18			; 00000012H
  000d1	69 c2 40 42 0f
	00		 imul	 eax, edx, 1000000
; File C:\Program Files\Microsoft Visual Studio\2022\Professional\VC\Tools\MSVC\14.44.35207\include\vector

; 46   :     _CONSTEXPR20 _Vector_const_iterator(_Tptr _Parg, const _Container_base* _Pvector) noexcept : _Ptr(_Parg) {

  000d7	8b 55 dc	 mov	 edx, DWORD PTR _payItem$[ebp+4]
; File C:\IAGOS\server\v18\Source\Source\_Common\xUtil.h

; 22   : 	return  xRand() % num;

  000da	2b f0		 sub	 esi, eax
; File C:\IAGOS\server\v18\Source\Source\_Common\Exchange.cpp

; 331  : 	int nSumProb = 0;

  000dc	33 c0		 xor	 eax, eax
; File C:\IAGOS\server\v18\Source\Source\_Common\xUtil.h

; 22   : 	return  xRand() % num;

  000de	89 75 f0	 mov	 DWORD PTR _nRandom$1$[ebp], esi
; File C:\Program Files\Microsoft Visual Studio\2022\Professional\VC\Tools\MSVC\14.44.35207\include\vector

; 46   :     _CONSTEXPR20 _Vector_const_iterator(_Tptr _Parg, const _Container_base* _Pvector) noexcept : _Ptr(_Parg) {

  000e1	8b 75 d8	 mov	 esi, DWORD PTR _payItem$[ebp]
; File C:\IAGOS\server\v18\Source\Source\_Common\Exchange.cpp

; 332  : 	int nCount = 0;

  000e4	89 45 10	 mov	 DWORD PTR _nCount$1$[ebp], eax
; File C:\Program Files\Microsoft Visual Studio\2022\Professional\VC\Tools\MSVC\14.44.35207\include\vector

; 46   :     _CONSTEXPR20 _Vector_const_iterator(_Tptr _Parg, const _Container_base* _Pvector) noexcept : _Ptr(_Parg) {

  000e7	3b f2		 cmp	 esi, edx
; File C:\IAGOS\server\v18\Source\Source\_Common\Exchange.cpp

; 334  : 	for( vector<__ITEM>::iterator i = payItem.begin(); i!=payItem.end(); )

  000e9	0f 84 93 00 00
	00		 je	 $LN178@GetPayItem
  000ef	90		 npad	 1
$LL4@GetPayItem:

; 335  : 	{
; 336  : 		nSumProb += i->nPayProb;

  000f0	03 46 08	 add	 eax, DWORD PTR [esi+8]

; 337  : 		if( nRandom < nSumProb )

  000f3	39 45 f0	 cmp	 DWORD PTR _nRandom$1$[ebp], eax
  000f6	7d 7f		 jge	 SHORT $LN7@GetPayItem
; File C:\Program Files\Microsoft Visual Studio\2022\Professional\VC\Tools\MSVC\14.44.35207\include\vector

; 844  :         if (_Mylast != _My_data._Myend) {

  000f8	8b 47 04	 mov	 eax, DWORD PTR [edi+4]
  000fb	3b 47 08	 cmp	 eax, DWORD PTR [edi+8]
  000fe	74 0c		 je	 SHORT $LN71@GetPayItem
; File C:\Program Files\Microsoft Visual Studio\2022\Professional\VC\Tools\MSVC\14.44.35207\include\xutility

; 476  :         ::new (static_cast<void*>(_STD addressof(_Obj))) _Ty(_STD forward<_Types>(_Args)...);

  00100	0f 10 06	 movups	 xmm0, XMMWORD PTR [esi]
  00103	0f 11 00	 movups	 XMMWORD PTR [eax], xmm0
; File C:\Program Files\Microsoft Visual Studio\2022\Professional\VC\Tools\MSVC\14.44.35207\include\vector

; 869  :         ++_Mylast;

  00106	83 47 04 10	 add	 DWORD PTR [edi+4], 16	; 00000010H

; 845  :             return _Emplace_back_with_unused_capacity(_STD forward<_Valty>(_Val)...);

  0010a	eb 0c		 jmp	 SHORT $LN70@GetPayItem
$LN71@GetPayItem:

; 846  :         }
; 847  : 
; 848  :         return *_Emplace_reallocate(_Mylast, _STD forward<_Valty>(_Val)...);

  0010c	56		 push	 esi
  0010d	50		 push	 eax
  0010e	8b cf		 mov	 ecx, edi
  00110	e8 00 00 00 00	 call	 ??$_Emplace_reallocate@ABU__ITEM@CExchange@@@?$vector@U__ITEM@CExchange@@V?$allocator@U__ITEM@CExchange@@@std@@@std@@AAEPAU__ITEM@CExchange@@QAU23@ABU23@@Z ; std::vector<CExchange::__ITEM,std::allocator<CExchange::__ITEM> >::_Emplace_reallocate<CExchange::__ITEM const &>
  00115	8b 4d 0c	 mov	 ecx, DWORD PTR _nProb$1$[ebp]
$LN70@GetPayItem:
; File C:\IAGOS\server\v18\Source\Source\_Common\Exchange.cpp

; 341  : 			if( nCount == pSetList->vecSet[nListNum].nPayNum )

  00118	8b 45 e8	 mov	 eax, DWORD PTR _pSetList$1$[ebp]
  0011b	8b 7d e4	 mov	 edi, DWORD PTR tv887[ebp]
  0011e	8b 55 10	 mov	 edx, DWORD PTR _nCount$1$[ebp]
  00121	42		 inc	 edx
  00122	8b 40 0c	 mov	 eax, DWORD PTR [eax+12]
  00125	89 55 10	 mov	 DWORD PTR _nCount$1$[ebp], edx
  00128	3b 54 38 4c	 cmp	 edx, DWORD PTR [eax+edi+76]
  0012c	8b 7d 08	 mov	 edi, DWORD PTR ___$ReturnUdt$[ebp]
  0012f	74 51		 je	 SHORT $LN178@GetPayItem

; 342  : 				break;
; 343  : 			nProb -= i->nPayProb;

  00131	2b 4e 08	 sub	 ecx, DWORD PTR [esi+8]
  00134	89 4d 0c	 mov	 DWORD PTR _nProb$1$[ebp], ecx

; 344  : 			if( nProb <= 0 ) // Áö±Ţ °ąĽö°ˇ ¸®˝şĆ® Ľöş¸´Ů ¸ąŔş °ćżě

  00137	85 c9		 test	 ecx, ecx
  00139	7e 47		 jle	 SHORT $LN178@GetPayItem
; File C:\IAGOS\server\v18\Source\Source\_Common\xUtil.h

; 16   : 	g_next = g_next * 1103515245 + 12345;// + nRandomSeed[ i++ ];

  0013b	69 05 00 00 00
	00 6d 4e c6 41	 imul	 eax, DWORD PTR ?g_next@@3KA, 1103515245 ; g_next
  00145	33 d2		 xor	 edx, edx
; File C:\Program Files\Microsoft Visual Studio\2022\Professional\VC\Tools\MSVC\14.44.35207\include\xutility

; 5147 :                 return _STD _Copy_memmove(_First, _Last, _Dest);

  00147	56		 push	 esi
  00148	ff 75 dc	 push	 DWORD PTR _payItem$[ebp+4]
; File C:\Program Files\Microsoft Visual Studio\2022\Professional\VC\Tools\MSVC\14.44.35207\include\vector

; 1775 :         _STD _Move_unchecked(_Whereptr + 1, _Mylast, _Whereptr);

  0014b	83 c6 10	 add	 esi, 16			; 00000010H
; File C:\Program Files\Microsoft Visual Studio\2022\Professional\VC\Tools\MSVC\14.44.35207\include\xutility

; 5147 :                 return _STD _Copy_memmove(_First, _Last, _Dest);

  0014e	56		 push	 esi
; File C:\IAGOS\server\v18\Source\Source\_Common\xUtil.h

; 16   : 	g_next = g_next * 1103515245 + 12345;// + nRandomSeed[ i++ ];

  0014f	05 39 30 00 00	 add	 eax, 12345		; 00003039H
  00154	a3 00 00 00 00	 mov	 DWORD PTR ?g_next@@3KA, eax ; g_next
  00159	f7 f1		 div	 ecx
; File C:\IAGOS\server\v18\Source\Source\_Common\Exchange.cpp

; 346  : 			nRandom = xRandom( nProb ); // Áö±ŢµČ ľĆŔĚĹŰŔ» Á¦żÜÇŃ łŞ¸ÓÁö·Î ąÝşą

  0015b	89 55 f0	 mov	 DWORD PTR _nRandom$1$[ebp], edx
; File C:\Program Files\Microsoft Visual Studio\2022\Professional\VC\Tools\MSVC\14.44.35207\include\xutility

; 5147 :                 return _STD _Copy_memmove(_First, _Last, _Dest);

  0015e	e8 00 00 00 00	 call	 ??$_Copy_memmove@PAU__ITEM@CExchange@@PAU12@@std@@YAPAU__ITEM@CExchange@@PAU12@00@Z ; std::_Copy_memmove<CExchange::__ITEM *,CExchange::__ITEM *>
; File C:\Program Files\Microsoft Visual Studio\2022\Professional\VC\Tools\MSVC\14.44.35207\include\vector

; 1778 :         --_Mylast;

  00163	83 6d dc 10	 sub	 DWORD PTR _payItem$[ebp+4], 16 ; 00000010H
; File C:\Program Files\Microsoft Visual Studio\2022\Professional\VC\Tools\MSVC\14.44.35207\include\xutility

; 5147 :                 return _STD _Copy_memmove(_First, _Last, _Dest);

  00167	83 c4 0c	 add	 esp, 12			; 0000000cH
; File C:\IAGOS\server\v18\Source\Source\_Common\Exchange.cpp

; 349  : 			i = payItem.begin();

  0016a	8b 75 d8	 mov	 esi, DWORD PTR _payItem$[ebp]

; 350  : 		}

  0016d	33 c0		 xor	 eax, eax
  0016f	8b 4d 0c	 mov	 ecx, DWORD PTR _nProb$1$[ebp]
  00172	8b 55 dc	 mov	 edx, DWORD PTR _payItem$[ebp+4]
  00175	eb 03		 jmp	 SHORT $LN2@GetPayItem
$LN7@GetPayItem:
; File C:\Program Files\Microsoft Visual Studio\2022\Professional\VC\Tools\MSVC\14.44.35207\include\vector

; 82   :         ++_Ptr;

  00177	83 c6 10	 add	 esi, 16			; 00000010H
$LN2@GetPayItem:

; 176  :         return !(*this == _Right);

  0017a	3b f2		 cmp	 esi, edx
; File C:\IAGOS\server\v18\Source\Source\_Common\Exchange.cpp

; 334  : 	for( vector<__ITEM>::iterator i = payItem.begin(); i!=payItem.end(); )

  0017c	0f 85 6e ff ff
	ff		 jne	 $LL4@GetPayItem
$LN178@GetPayItem:
; File C:\Program Files\Microsoft Visual Studio\2022\Professional\VC\Tools\MSVC\14.44.35207\include\vector

; 830  :         _Tidy();

  00182	8d 4d d8	 lea	 ecx, DWORD PTR _payItem$[ebp]
  00185	e8 00 00 00 00	 call	 ?_Tidy@?$vector@U__ITEM@CExchange@@V?$allocator@U__ITEM@CExchange@@@std@@@std@@AAEXXZ ; std::vector<CExchange::__ITEM,std::allocator<CExchange::__ITEM> >::_Tidy
$LN183@GetPayItem:
; File C:\IAGOS\server\v18\Source\Source\_Common\Exchange.cpp

; 355  : }

  0018a	8b c7		 mov	 eax, edi
  0018c	8b 4d f4	 mov	 ecx, DWORD PTR __$EHRec$[ebp]
  0018f	64 89 0d 00 00
	00 00		 mov	 DWORD PTR fs:0, ecx
  00196	59		 pop	 ecx
  00197	5f		 pop	 edi
  00198	5e		 pop	 esi
  00199	8b e5		 mov	 esp, ebp
  0019b	5d		 pop	 ebp
  0019c	c2 0c 00	 ret	 12			; 0000000cH
_TEXT	ENDS
;	COMDAT text$x
text$x	SEGMENT
__unwindfunclet$?GetPayItemList@CExchange@@QAE?AV?$vector@U__ITEM@CExchange@@V?$allocator@U__ITEM@CExchange@@@std@@@std@@HH@Z$0:
  00000	8b 45 ec	 mov	 eax, DWORD PTR $T2[ebp]
  00003	83 e0 01	 and	 eax, 1
  00006	0f 84 0c 00 00
	00		 je	 $LN13@GetPayItem
  0000c	83 65 ec fe	 and	 DWORD PTR $T2[ebp], -2	; fffffffeH
  00010	8b 4d 08	 mov	 ecx, DWORD PTR ___$ReturnUdt$[ebp]
  00013	e9 00 00 00 00	 jmp	 ??1?$vector@U__ITEM@CExchange@@V?$allocator@U__ITEM@CExchange@@@std@@@std@@QAE@XZ ; std::vector<CExchange::__ITEM,std::allocator<CExchange::__ITEM> >::~vector<CExchange::__ITEM,std::allocator<CExchange::__ITEM> >
$LN13@GetPayItem:
  00018	c3		 ret	 0
__unwindfunclet$?GetPayItemList@CExchange@@QAE?AV?$vector@U__ITEM@CExchange@@V?$allocator@U__ITEM@CExchange@@@std@@@std@@HH@Z$1:
  00019	8d 4d d8	 lea	 ecx, DWORD PTR _payItem$[ebp]
  0001c	e9 00 00 00 00	 jmp	 ??1?$vector@U__ITEM@CExchange@@V?$allocator@U__ITEM@CExchange@@@std@@@std@@QAE@XZ ; std::vector<CExchange::__ITEM,std::allocator<CExchange::__ITEM> >::~vector<CExchange::__ITEM,std::allocator<CExchange::__ITEM> >
  00021	cc		 int	 3
  00022	cc		 int	 3
  00023	cc		 int	 3
  00024	cc		 int	 3
  00025	cc		 int	 3
__ehhandler$?GetPayItemList@CExchange@@QAE?AV?$vector@U__ITEM@CExchange@@V?$allocator@U__ITEM@CExchange@@@std@@@std@@HH@Z:
  00026	90		 npad	 1
  00027	90		 npad	 1
  00028	8b 54 24 08	 mov	 edx, DWORD PTR [esp+8]
  0002c	8d 42 0c	 lea	 eax, DWORD PTR [edx+12]
  0002f	8b 4a d8	 mov	 ecx, DWORD PTR [edx-40]
  00032	33 c8		 xor	 ecx, eax
  00034	e8 00 00 00 00	 call	 @__security_check_cookie@4
  00039	b8 00 00 00 00	 mov	 eax, OFFSET __ehfuncinfo$?GetPayItemList@CExchange@@QAE?AV?$vector@U__ITEM@CExchange@@V?$allocator@U__ITEM@CExchange@@@std@@@std@@HH@Z
  0003e	e9 00 00 00 00	 jmp	 ___CxxFrameHandler3
text$x	ENDS
?GetPayItemList@CExchange@@QAE?AV?$vector@U__ITEM@CExchange@@V?$allocator@U__ITEM@CExchange@@@std@@@std@@HH@Z ENDP ; CExchange::GetPayItemList
; Function compile flags: /Ogtp
; File C:\IAGOS\server\v18\Source\Source\_Common\Exchange.cpp
; File C:\Program Files\Microsoft Visual Studio\2022\Professional\VC\Tools\MSVC\14.44.35207\include\vector
; File C:\IAGOS\server\v18\Source\Source\_Common\Exchange.cpp
; File C:\Program Files\Microsoft Visual Studio\2022\Professional\VC\Tools\MSVC\14.44.35207\include\vector
; File C:\IAGOS\server\v18\Source\Source\_Common\Exchange.cpp
; File C:\Program Files\Microsoft Visual Studio\2022\Professional\VC\Tools\MSVC\14.44.35207\include\vector
; File C:\IAGOS\server\v18\Source\Source\_Common\Exchange.cpp
; File C:\Program Files\Microsoft Visual Studio\2022\Professional\VC\Tools\MSVC\14.44.35207\include\vector
; File C:\IAGOS\server\v18\Source\Source\_Common\Exchange.cpp
; File C:\Program Files\Microsoft Visual Studio\2022\Professional\VC\Tools\MSVC\14.44.35207\include\vector
; File C:\Program Files\Microsoft Visual Studio\2022\Professional\VC\Tools\MSVC\14.44.35207\include\xmemory
; File C:\Program Files\Microsoft Visual Studio\2022\Professional\VC\Tools\MSVC\14.44.35207\include\vector
; File C:\Program Files\Microsoft Visual Studio\2022\Professional\VC\Tools\MSVC\14.44.35207\include\xutility
; File C:\Program Files\Microsoft Visual Studio\2022\Professional\VC\Tools\MSVC\14.44.35207\include\vector
; File C:\IAGOS\server\v18\Source\Source\_Common\Exchange.cpp
; File C:\Program Files\Microsoft Visual Studio\2022\Professional\VC\Tools\MSVC\14.44.35207\include\vector
; File C:\IAGOS\server\v18\Source\Source\_Common\Exchange.cpp
;	COMDAT ?GetRemoveItemList@CExchange@@QAE?AV?$vector@U__ITEM@CExchange@@V?$allocator@U__ITEM@CExchange@@@std@@@std@@HH@Z
_TEXT	SEGMENT
$T2 = -16						; size = 4
__$EHRec$ = -12						; size = 12
___$ReturnUdt$ = 8					; size = 4
_nMMIId$ = 12						; size = 4
__First$1$ = 12						; size = 4
_nListNum$ = 16						; size = 4
?GetRemoveItemList@CExchange@@QAE?AV?$vector@U__ITEM@CExchange@@V?$allocator@U__ITEM@CExchange@@@std@@@std@@HH@Z PROC ; CExchange::GetRemoveItemList, COMDAT
; _this$ = ecx

; 359  : {

  00000	55		 push	 ebp
  00001	8b ec		 mov	 ebp, esp
  00003	6a ff		 push	 -1
  00005	68 00 00 00 00	 push	 __ehhandler$?GetRemoveItemList@CExchange@@QAE?AV?$vector@U__ITEM@CExchange@@V?$allocator@U__ITEM@CExchange@@@std@@@std@@HH@Z
  0000a	64 a1 00 00 00
	00		 mov	 eax, DWORD PTR fs:0
  00010	50		 push	 eax
  00011	51		 push	 ecx
  00012	53		 push	 ebx
  00013	56		 push	 esi
  00014	57		 push	 edi
  00015	a1 00 00 00 00	 mov	 eax, DWORD PTR ___security_cookie
  0001a	33 c5		 xor	 eax, ebp
  0001c	50		 push	 eax
  0001d	8d 45 f4	 lea	 eax, DWORD PTR __$EHRec$[ebp]
  00020	64 a3 00 00 00
	00		 mov	 DWORD PTR fs:0, eax
  00026	c7 45 f0 01 00
	00 00		 mov	 DWORD PTR $T2[ebp], 1
; File C:\Program Files\Microsoft Visual Studio\2022\Professional\VC\Tools\MSVC\14.44.35207\include\vector

; 400  :     _CONSTEXPR20 _Vector_val() noexcept : _Myfirst(), _Mylast(), _Myend() {}

  0002d	8b 5d 08	 mov	 ebx, DWORD PTR ___$ReturnUdt$[ebp]
  00030	c7 03 00 00 00
	00		 mov	 DWORD PTR [ebx], 0
  00036	c7 43 04 00 00
	00 00		 mov	 DWORD PTR [ebx+4], 0
  0003d	c7 43 08 00 00
	00 00		 mov	 DWORD PTR [ebx+8], 0
; File C:\IAGOS\server\v18\Source\Source\_Common\Exchange.cpp

; 361  : 	PSETLIST pSetList = FindExchange( nMMIId );

  00044	ff 75 0c	 push	 DWORD PTR _nMMIId$[ebp]
  00047	c7 45 fc 00 00
	00 00		 mov	 DWORD PTR __$EHRec$[ebp+8], 0
  0004e	c7 45 f0 01 00
	00 00		 mov	 DWORD PTR $T2[ebp], 1
  00055	e8 00 00 00 00	 call	 ?FindExchange@CExchange@@QAEPAU__SETLIST@1@H@Z ; CExchange::FindExchange

; 362  : 	if( !pSetList )

  0005a	85 c0		 test	 eax, eax
  0005c	74 79		 je	 SHORT $LN79@GetRemoveI
; File C:\Program Files\Microsoft Visual Studio\2022\Professional\VC\Tools\MSVC\14.44.35207\include\vector

; 1915 :         return static_cast<size_type>(_My_data._Mylast - _My_data._Myfirst);

  0005e	8b 48 10	 mov	 ecx, DWORD PTR [eax+16]
  00061	8b 70 0c	 mov	 esi, DWORD PTR [eax+12]
  00064	2b ce		 sub	 ecx, esi
  00066	b8 67 66 66 66	 mov	 eax, 1717986919		; 66666667H
  0006b	f7 e9		 imul	 ecx
; File C:\IAGOS\server\v18\Source\Source\_Common\Exchange.cpp

; 365  : 	if( nListNum > (int)( pSetList->vecSet.size()-1 ) )

  0006d	8b 4d 10	 mov	 ecx, DWORD PTR _nListNum$[ebp]
; File C:\Program Files\Microsoft Visual Studio\2022\Professional\VC\Tools\MSVC\14.44.35207\include\vector

; 1915 :         return static_cast<size_type>(_My_data._Mylast - _My_data._Myfirst);

  00070	c1 fa 05	 sar	 edx, 5
  00073	8b c2		 mov	 eax, edx
  00075	c1 e8 1f	 shr	 eax, 31			; 0000001fH
; File C:\IAGOS\server\v18\Source\Source\_Common\Exchange.cpp

; 365  : 	if( nListNum > (int)( pSetList->vecSet.size()-1 ) )

  00078	48		 dec	 eax
  00079	03 c2		 add	 eax, edx
  0007b	3b c8		 cmp	 ecx, eax
  0007d	7f 58		 jg	 SHORT $LN79@GetRemoveI
; File C:\Program Files\Microsoft Visual Studio\2022\Professional\VC\Tools\MSVC\14.44.35207\include\vector

; 1934 :         return _My_data._Myfirst[_Pos];

  0007f	8d 3c 89	 lea	 edi, DWORD PTR [ecx+ecx*4]
  00082	c1 e7 04	 shl	 edi, 4
; File C:\IAGOS\server\v18\Source\Source\_Common\Exchange.cpp

; 368  : 	vecList = pSetList->vecSet[nListNum].vecRemoveItem;

  00085	83 c7 1c	 add	 edi, 28			; 0000001cH
  00088	03 fe		 add	 edi, esi
; File C:\Program Files\Microsoft Visual Studio\2022\Professional\VC\Tools\MSVC\14.44.35207\include\vector

; 1524 :         if (this == _STD addressof(_Right)) {

  0008a	3b df		 cmp	 ebx, edi
  0008c	74 49		 je	 SHORT $LN79@GetRemoveI

; 1525 :             return *this;
; 1526 :         }
; 1527 : 
; 1528 :         auto& _Al       = _Getal();
; 1529 :         auto& _Right_al = _Right._Getal();
; 1530 :         if constexpr (_Choose_pocca_v<_Alty>) {
; 1531 :             if (_Al != _Right_al) {
; 1532 :                 _Tidy();
; 1533 :                 _Mypair._Myval2._Reload_proxy(_GET_PROXY_ALLOCATOR(_Alty, _Al), _GET_PROXY_ALLOCATOR(_Alty, _Right_al));
; 1534 :             }
; 1535 :         }
; 1536 : 
; 1537 :         _Pocca(_Al, _Right_al);
; 1538 :         auto& _Right_data = _Right._Mypair._Myval2;
; 1539 :         _Assign_counted_range(_Right_data._Myfirst, static_cast<size_type>(_Right_data._Mylast - _Right_data._Myfirst));

  0008e	8b 07		 mov	 eax, DWORD PTR [edi]
  00090	8b 7f 04	 mov	 edi, DWORD PTR [edi+4]
  00093	2b f8		 sub	 edi, eax
  00095	89 45 0c	 mov	 DWORD PTR __First$1$[ebp], eax
  00098	c1 ff 04	 sar	 edi, 4

; 1433 :         if (_Newsize > _Oldcapacity) {

  0009b	85 ff		 test	 edi, edi
  0009d	74 26		 je	 SHORT $LN78@GetRemoveI

; 1703 :         if (_Newsize > max_size()) {

  0009f	81 ff ff ff ff
	0f		 cmp	 edi, 268435455		; 0fffffffH
  000a5	77 46		 ja	 SHORT $LN159@GetRemoveI

; 1705 :         }
; 1706 : 
; 1707 :         const size_type _Newcapacity = _Calculate_growth(_Newsize);
; 1708 : 
; 1709 :         if (_Myfirst) { // destroy and deallocate old array
; 1710 :             _Destroy_range(_Myfirst, _Mylast, _Al);
; 1711 :             _ASAN_VECTOR_REMOVE;
; 1712 :             _Al.deallocate(_Myfirst, static_cast<size_type>(_Myend - _Myfirst));
; 1713 : 
; 1714 :             _Myfirst = nullptr;
; 1715 :             _Mylast  = nullptr;
; 1716 :             _Myend   = nullptr;
; 1717 :         }
; 1718 : 
; 1719 :         _Buy_raw(_Newcapacity);

  000a7	57		 push	 edi
  000a8	8b cb		 mov	 ecx, ebx
  000aa	e8 00 00 00 00	 call	 ?_Buy_raw@?$vector@U__ITEM@CExchange@@V?$allocator@U__ITEM@CExchange@@@std@@@std@@AAEXI@Z ; std::vector<CExchange::__ITEM,std::allocator<CExchange::__ITEM> >::_Buy_raw

; 1436 :                 _Mylast = _STD _Uninitialized_copy_n(_STD move(_First), _Newsize, _Myfirst, _Al);

  000af	8b 33		 mov	 esi, DWORD PTR [ebx]
; File C:\Program Files\Microsoft Visual Studio\2022\Professional\VC\Tools\MSVC\14.44.35207\include\xmemory

; 1930 :             _STD _Copy_memmove_n(_UFirst, _Count, _STD _Unfancy(_Dest));

  000b1	56		 push	 esi
  000b2	57		 push	 edi
  000b3	ff 75 0c	 push	 DWORD PTR __First$1$[ebp]
  000b6	e8 00 00 00 00	 call	 ??$_Copy_memmove_n@PAU__ITEM@CExchange@@PAU12@@std@@YAPAU__ITEM@CExchange@@PAU12@I0@Z ; std::_Copy_memmove_n<CExchange::__ITEM *,CExchange::__ITEM *>

; 1931 :             _Dest += _Count;

  000bb	c1 e7 04	 shl	 edi, 4
  000be	83 c4 0c	 add	 esp, 12			; 0000000cH
  000c1	03 fe		 add	 edi, esi
; File C:\Program Files\Microsoft Visual Studio\2022\Professional\VC\Tools\MSVC\14.44.35207\include\vector

; 1442 :             return;

  000c3	eb 0f		 jmp	 SHORT $LN157@GetRemoveI
$LN78@GetRemoveI:
; File C:\Program Files\Microsoft Visual Studio\2022\Professional\VC\Tools\MSVC\14.44.35207\include\xutility

; 4808 :             return _Copy_memmove_n(_First, static_cast<size_t>(_Count), _Dest);

  000c5	6a 00		 push	 0
  000c7	57		 push	 edi
  000c8	50		 push	 eax
  000c9	e8 00 00 00 00	 call	 ??$_Copy_memmove_n@PAU__ITEM@CExchange@@PAU12@@std@@YAPAU__ITEM@CExchange@@PAU12@I0@Z ; std::_Copy_memmove_n<CExchange::__ITEM *,CExchange::__ITEM *>
  000ce	83 c4 0c	 add	 esp, 12			; 0000000cH
; File C:\Program Files\Microsoft Visual Studio\2022\Professional\VC\Tools\MSVC\14.44.35207\include\vector

; 1474 :             const pointer _Newlast = _Myfirst + _Newsize;

  000d1	c1 e7 04	 shl	 edi, 4
$LN157@GetRemoveI:
; File C:\IAGOS\server\v18\Source\Source\_Common\Exchange.cpp

; 369  : 	return vecList;

  000d4	89 7b 04	 mov	 DWORD PTR [ebx+4], edi
$LN79@GetRemoveI:
  000d7	8b c3		 mov	 eax, ebx

; 370  : }

  000d9	8b 4d f4	 mov	 ecx, DWORD PTR __$EHRec$[ebp]
  000dc	64 89 0d 00 00
	00 00		 mov	 DWORD PTR fs:0, ecx
  000e3	59		 pop	 ecx
  000e4	5f		 pop	 edi
  000e5	5e		 pop	 esi
  000e6	5b		 pop	 ebx
  000e7	8b e5		 mov	 esp, ebp
  000e9	5d		 pop	 ebp
  000ea	c2 0c 00	 ret	 12			; 0000000cH
$LN159@GetRemoveI:
; File C:\Program Files\Microsoft Visual Studio\2022\Professional\VC\Tools\MSVC\14.44.35207\include\vector

; 1704 :             _Xlength();

  000ed	e8 00 00 00 00	 call	 ?_Xlength@?$vector@U__ITEM@CExchange@@V?$allocator@U__ITEM@CExchange@@@std@@@std@@CAXXZ ; std::vector<CExchange::__ITEM,std::allocator<CExchange::__ITEM> >::_Xlength
$LN156@GetRemoveI:
  000f2	cc		 int	 3
_TEXT	ENDS
;	COMDAT text$x
text$x	SEGMENT
__unwindfunclet$?GetRemoveItemList@CExchange@@QAE?AV?$vector@U__ITEM@CExchange@@V?$allocator@U__ITEM@CExchange@@@std@@@std@@HH@Z$0:
  00000	8b 45 f0	 mov	 eax, DWORD PTR $T2[ebp]
  00003	83 e0 01	 and	 eax, 1
  00006	0f 84 0c 00 00
	00		 je	 $LN6@GetRemoveI
  0000c	83 65 f0 fe	 and	 DWORD PTR $T2[ebp], -2	; fffffffeH
  00010	8b 4d 08	 mov	 ecx, DWORD PTR ___$ReturnUdt$[ebp]
  00013	e9 00 00 00 00	 jmp	 ??1?$vector@U__ITEM@CExchange@@V?$allocator@U__ITEM@CExchange@@@std@@@std@@QAE@XZ ; std::vector<CExchange::__ITEM,std::allocator<CExchange::__ITEM> >::~vector<CExchange::__ITEM,std::allocator<CExchange::__ITEM> >
$LN6@GetRemoveI:
  00018	c3		 ret	 0
  00019	cc		 int	 3
  0001a	cc		 int	 3
  0001b	cc		 int	 3
  0001c	cc		 int	 3
  0001d	cc		 int	 3
__ehhandler$?GetRemoveItemList@CExchange@@QAE?AV?$vector@U__ITEM@CExchange@@V?$allocator@U__ITEM@CExchange@@@std@@@std@@HH@Z:
  0001e	90		 npad	 1
  0001f	90		 npad	 1
  00020	8b 54 24 08	 mov	 edx, DWORD PTR [esp+8]
  00024	8d 42 0c	 lea	 eax, DWORD PTR [edx+12]
  00027	8b 4a ec	 mov	 ecx, DWORD PTR [edx-20]
  0002a	33 c8		 xor	 ecx, eax
  0002c	e8 00 00 00 00	 call	 @__security_check_cookie@4
  00031	b8 00 00 00 00	 mov	 eax, OFFSET __ehfuncinfo$?GetRemoveItemList@CExchange@@QAE?AV?$vector@U__ITEM@CExchange@@V?$allocator@U__ITEM@CExchange@@@std@@@std@@HH@Z
  00036	e9 00 00 00 00	 jmp	 ___CxxFrameHandler3
text$x	ENDS
?GetRemoveItemList@CExchange@@QAE?AV?$vector@U__ITEM@CExchange@@V?$allocator@U__ITEM@CExchange@@@std@@@std@@HH@Z ENDP ; CExchange::GetRemoveItemList
; Function compile flags: /Ogtp
; File C:\IAGOS\server\v18\Source\Source\_Common\Exchange.cpp
; File C:\IAGOS\server\v18\Source\Source\_Common\Item.h
; File C:\IAGOS\server\v18\Source\Source\_Common\Exchange.cpp
; File C:\IAGOS\server\v18\Source\Source\_Common\Item.h
; File C:\Program Files\Microsoft Visual Studio\2022\Professional\VC\Tools\MSVC\14.44.35207\include\vector
; File C:\IAGOS\server\v18\Source\Source\_Common\Exchange.cpp
; File C:\Program Files\Microsoft Visual Studio\2022\Professional\VC\Tools\MSVC\14.44.35207\include\vector
; File C:\IAGOS\server\v18\Source\Source\_Common\Exchange.cpp
; File C:\Program Files\Microsoft Visual Studio\2022\Professional\VC\Tools\MSVC\14.44.35207\include\vector
; File C:\IAGOS\server\v18\Source\Source\_Common\Exchange.cpp
; File C:\Program Files\Microsoft Visual Studio\2022\Professional\VC\Tools\MSVC\14.44.35207\include\vector
; File C:\IAGOS\server\v18\Source\Source\_Common\Exchange.cpp
; File C:\Program Files\Microsoft Visual Studio\2022\Professional\VC\Tools\MSVC\14.44.35207\include\vector
; File C:\IAGOS\server\v18\Source\Source\_Common\Exchange.cpp
; File C:\IAGOS\server\v18\Source\Source\_Common\Project.h
; File C:\IAGOS\server\v18\Source\Source\_Common\data.h
; File C:\IAGOS\server\v18\Source\Source\_Common\Exchange.cpp
; File C:\IAGOS\server\v18\Source\Source\_Common\Project.h
; File C:\Program Files\Microsoft Visual Studio\2022\Professional\VC\Tools\MSVC\14.44.35207\include\vector
; File C:\IAGOS\server\v18\Source\Source\_Common\Exchange.cpp
; File C:\Program Files\Microsoft Visual Studio\2022\Professional\VC\Tools\MSVC\14.44.35207\include\vector
; File C:\IAGOS\server\v18\Source\Source\_Common\Exchange.cpp
; File C:\Program Files\Microsoft Visual Studio\2022\Professional\VC\Tools\MSVC\14.44.35207\include\vector
; File C:\IAGOS\server\v18\Source\Source\_Common\Exchange.cpp
; File C:\Program Files\Microsoft Visual Studio\2022\Professional\VC\Tools\MSVC\14.44.35207\include\vector
; File C:\IAGOS\server\v18\Source\Source\_Common\Exchange.cpp
;	COMDAT ?IsFull@CExchange@@QAEHPAVCUser@@V?$vector@U__ITEM@CExchange@@V?$allocator@U__ITEM@CExchange@@@std@@@std@@1@Z
_TEXT	SEGMENT
_i$1$ = -32						; size = 4
_nRemainRemoveItemNum$1$ = -28				; size = 4
tv595 = -24						; size = 4
$T2 = -20						; size = 4
_nEmptyCount$1$ = -16					; size = 4
tv598 = -16						; size = 4
__$EHRec$ = -12						; size = 12
_pUser$ = 8						; size = 4
_i$1$ = 8						; size = 4
_vecRemoveItem$ = 12					; size = 12
_vecPayItem$ = 24					; size = 12
?IsFull@CExchange@@QAEHPAVCUser@@V?$vector@U__ITEM@CExchange@@V?$allocator@U__ITEM@CExchange@@@std@@@std@@1@Z PROC ; CExchange::IsFull, COMDAT
; _this$ = ecx

; 390  : {

  00000	55		 push	 ebp
  00001	8b ec		 mov	 ebp, esp
  00003	6a ff		 push	 -1
  00005	68 00 00 00 00	 push	 __ehhandler$?IsFull@CExchange@@QAEHPAVCUser@@V?$vector@U__ITEM@CExchange@@V?$allocator@U__ITEM@CExchange@@@std@@@std@@1@Z
  0000a	64 a1 00 00 00
	00		 mov	 eax, DWORD PTR fs:0
  00010	50		 push	 eax
  00011	83 ec 14	 sub	 esp, 20			; 00000014H
  00014	53		 push	 ebx
  00015	56		 push	 esi
  00016	57		 push	 edi
  00017	a1 00 00 00 00	 mov	 eax, DWORD PTR ___security_cookie
  0001c	33 c5		 xor	 eax, ebp
  0001e	50		 push	 eax
  0001f	8d 45 f4	 lea	 eax, DWORD PTR __$EHRec$[ebp]
  00022	64 a3 00 00 00
	00		 mov	 DWORD PTR fs:0, eax
; File C:\IAGOS\server\v18\Source\Source\_Common\Item.h

; 420  : 			for( DWORD i = 0; i < m_dwItemMax; i++ )

  00028	8b 45 08	 mov	 eax, DWORD PTR _pUser$[ebp]
  0002b	33 db		 xor	 ebx, ebx
; File C:\IAGOS\server\v18\Source\Source\_Common\Exchange.cpp

; 389  : BOOL CExchange::IsFull( CUser* pUser, vector<__ITEM> vecRemoveItem, vector<__ITEM> vecPayItem )

  0002d	c7 45 fc 01 00
	00 00		 mov	 DWORD PTR __$EHRec$[ebp+8], 1
; File C:\IAGOS\server\v18\Source\Source\_Common\Item.h

; 419  : 			int nCount	= 0;

  00034	89 5d f0	 mov	 DWORD PTR _nEmptyCount$1$[ebp], ebx

; 420  : 			for( DWORD i = 0; i < m_dwItemMax; i++ )

  00037	8b 90 08 0b 00
	00		 mov	 edx, DWORD PTR [eax+2824]
  0003d	8d b8 04 0b 00
	00		 lea	 edi, DWORD PTR [eax+2820]
  00043	89 7d ec	 mov	 DWORD PTR $T2[ebp], edi
  00046	85 d2		 test	 edx, edx
  00048	74 26		 je	 SHORT $LN87@IsFull

; 421  : 			{
; 422  : 				if( m_apItem[i].IsEmpty() && m_apItem[i].m_dwObjIndex < m_dwIndexNum )

  0004a	8b 88 0c 0b 00
	00		 mov	 ecx, DWORD PTR [eax+2828]
  00050	83 c1 08	 add	 ecx, 8
$LL23@IsFull:

; 50   : 	BOOL			IsEmpty() { return m_dwItemId ? FALSE : TRUE; }

  00053	83 79 04 00	 cmp	 DWORD PTR [ecx+4], 0

; 422  : 				if( m_apItem[i].IsEmpty() && m_apItem[i].m_dwObjIndex < m_dwIndexNum )

  00057	75 07		 jne	 SHORT $LN21@IsFull
  00059	8b 01		 mov	 eax, DWORD PTR [ecx]
  0005b	3b 07		 cmp	 eax, DWORD PTR [edi]
  0005d	73 01		 jae	 SHORT $LN21@IsFull

; 423  : 					nCount++;

  0005f	43		 inc	 ebx
$LN21@IsFull:

; 420  : 			for( DWORD i = 0; i < m_dwItemMax; i++ )

  00060	81 c1 b0 00 00
	00		 add	 ecx, 176		; 000000b0H
  00066	83 ea 01	 sub	 edx, 1
  00069	75 e8		 jne	 SHORT $LL23@IsFull
  0006b	89 5d f0	 mov	 DWORD PTR _nEmptyCount$1$[ebp], ebx
  0006e	eb 03		 jmp	 SHORT $LN22@IsFull
$LN87@IsFull:
  00070	89 7d ec	 mov	 DWORD PTR $T2[ebp], edi
$LN22@IsFull:
; File C:\Program Files\Microsoft Visual Studio\2022\Professional\VC\Tools\MSVC\14.44.35207\include\vector

; 1915 :         return static_cast<size_type>(_My_data._Mylast - _My_data._Myfirst);

  00073	8b 45 10	 mov	 eax, DWORD PTR _vecRemoveItem$[ebp+4]
  00076	8b 55 0c	 mov	 edx, DWORD PTR _vecRemoveItem$[ebp]
  00079	2b c2		 sub	 eax, edx
; File C:\IAGOS\server\v18\Source\Source\_Common\Exchange.cpp

; 393  : 	for( int i=0; i<(int)( vecRemoveItem.size() ); i++ )

  0007b	c7 45 e0 00 00
	00 00		 mov	 DWORD PTR _i$1$[ebp], 0
  00082	a9 f0 ff ff ff	 test	 eax, -16		; fffffff0H
  00087	0f 8e 95 00 00
	00		 jle	 $LN3@IsFull

; 391  : 	int nEmptyCount = pUser->m_Inventory.GetEmptyCount();

  0008d	33 c9		 xor	 ecx, ecx
  0008f	89 4d e8	 mov	 DWORD PTR tv595[ebp], ecx
$LL4@IsFull:

; 394  : 	{
; 395  : 		int nRemainRemoveItemNum = vecRemoveItem[i].nItemNum;

  00092	8b 44 11 04	 mov	 eax, DWORD PTR [ecx+edx+4]

; 396  : 		for( int j=0; j<pUser->m_Inventory.GetSize(); j++ )

  00096	33 f6		 xor	 esi, esi
  00098	89 45 e4	 mov	 DWORD PTR _nRemainRemoveItemNum$1$[ebp], eax
  0009b	39 37		 cmp	 DWORD PTR [edi], esi
  0009d	7e 66		 jle	 SHORT $LN2@IsFull
  0009f	8b 45 08	 mov	 eax, DWORD PTR _pUser$[ebp]
  000a2	05 fc 0a 00 00	 add	 eax, 2812		; 00000afcH
  000a7	89 45 f0	 mov	 DWORD PTR tv598[ebp], eax
  000aa	66 0f 1f 44 00
	00		 npad	 6
$LL7@IsFull:

; 397  : 		{
; 398  : 			CItemElem* pItemElem = pUser->m_Inventory.GetAtId( j );

  000b0	56		 push	 esi
  000b1	8b c8		 mov	 ecx, eax
  000b3	e8 00 00 00 00	 call	 ?GetAtId@?$CItemContainer@VCItemElem@@@@QAEPAVCItemElem@@K@Z ; CItemContainer<CItemElem>::GetAtId
  000b8	8b f8		 mov	 edi, eax

; 399  : 			if( IsUsableItem( pItemElem ) && vecRemoveItem[i].dwItemId == pItemElem->m_dwItemId )

  000ba	57		 push	 edi
  000bb	e8 00 00 00 00	 call	 ?IsUsableItem@@YAHPAVCItemBase@@@Z ; IsUsableItem
  000c0	8b 55 0c	 mov	 edx, DWORD PTR _vecRemoveItem$[ebp]
  000c3	83 c4 04	 add	 esp, 4
  000c6	85 c0		 test	 eax, eax
  000c8	74 25		 je	 SHORT $LN5@IsFull
  000ca	8b 45 e8	 mov	 eax, DWORD PTR tv595[ebp]
  000cd	8b 0c 10	 mov	 ecx, DWORD PTR [eax+edx]
  000d0	3b 4f 0c	 cmp	 ecx, DWORD PTR [edi+12]
  000d3	75 1a		 jne	 SHORT $LN5@IsFull

; 400  : 			{
; 401  : 				if( pItemElem->m_nItemNum <= nRemainRemoveItemNum )

  000d5	0f bf 4f 74	 movsx	 ecx, WORD PTR [edi+116]

; 402  : 					nEmptyCount++;
; 403  : 				nRemainRemoveItemNum -= pItemElem->m_nItemNum;

  000d9	8d 43 01	 lea	 eax, DWORD PTR [ebx+1]
  000dc	8b 7d e4	 mov	 edi, DWORD PTR _nRemainRemoveItemNum$1$[ebp]
  000df	3b cf		 cmp	 ecx, edi
  000e1	0f 4f c3	 cmovg	 eax, ebx
  000e4	2b f9		 sub	 edi, ecx
  000e6	89 7d e4	 mov	 DWORD PTR _nRemainRemoveItemNum$1$[ebp], edi
  000e9	8b d8		 mov	 ebx, eax

; 404  : 				if( nRemainRemoveItemNum <= 0 )

  000eb	85 ff		 test	 edi, edi
  000ed	7e 0d		 jle	 SHORT $LN89@IsFull
$LN5@IsFull:

; 396  : 		for( int j=0; j<pUser->m_Inventory.GetSize(); j++ )

  000ef	8b 7d ec	 mov	 edi, DWORD PTR $T2[ebp]
  000f2	46		 inc	 esi
  000f3	8b 45 f0	 mov	 eax, DWORD PTR tv598[ebp]
  000f6	3b 37		 cmp	 esi, DWORD PTR [edi]
  000f8	7c b6		 jl	 SHORT $LL7@IsFull

; 404  : 				if( nRemainRemoveItemNum <= 0 )

  000fa	eb 03		 jmp	 SHORT $LN88@IsFull
$LN89@IsFull:
  000fc	8b 7d ec	 mov	 edi, DWORD PTR $T2[ebp]
$LN88@IsFull:
  000ff	8b 4d e8	 mov	 ecx, DWORD PTR tv595[ebp]
  00102	89 5d f0	 mov	 DWORD PTR _nEmptyCount$1$[ebp], ebx
$LN2@IsFull:
; File C:\Program Files\Microsoft Visual Studio\2022\Professional\VC\Tools\MSVC\14.44.35207\include\vector

; 1915 :         return static_cast<size_type>(_My_data._Mylast - _My_data._Myfirst);

  00105	8b 45 10	 mov	 eax, DWORD PTR _vecRemoveItem$[ebp+4]
; File C:\IAGOS\server\v18\Source\Source\_Common\Exchange.cpp

; 393  : 	for( int i=0; i<(int)( vecRemoveItem.size() ); i++ )

  00108	83 c1 10	 add	 ecx, 16			; 00000010H
  0010b	8b 75 e0	 mov	 esi, DWORD PTR _i$1$[ebp]
; File C:\Program Files\Microsoft Visual Studio\2022\Professional\VC\Tools\MSVC\14.44.35207\include\vector

; 1915 :         return static_cast<size_type>(_My_data._Mylast - _My_data._Myfirst);

  0010e	2b c2		 sub	 eax, edx
; File C:\IAGOS\server\v18\Source\Source\_Common\Exchange.cpp

; 393  : 	for( int i=0; i<(int)( vecRemoveItem.size() ); i++ )

  00110	46		 inc	 esi
; File C:\Program Files\Microsoft Visual Studio\2022\Professional\VC\Tools\MSVC\14.44.35207\include\vector

; 1915 :         return static_cast<size_type>(_My_data._Mylast - _My_data._Myfirst);

  00111	c1 f8 04	 sar	 eax, 4
; File C:\IAGOS\server\v18\Source\Source\_Common\Exchange.cpp

; 393  : 	for( int i=0; i<(int)( vecRemoveItem.size() ); i++ )

  00114	89 75 e0	 mov	 DWORD PTR _i$1$[ebp], esi
  00117	89 4d e8	 mov	 DWORD PTR tv595[ebp], ecx
  0011a	3b f0		 cmp	 esi, eax
  0011c	0f 8c 70 ff ff
	ff		 jl	 $LL4@IsFull
$LN3@IsFull:
; File C:\Program Files\Microsoft Visual Studio\2022\Professional\VC\Tools\MSVC\14.44.35207\include\vector

; 1915 :         return static_cast<size_type>(_My_data._Mylast - _My_data._Myfirst);

  00122	8b 45 1c	 mov	 eax, DWORD PTR _vecPayItem$[ebp+4]
  00125	8b 75 18	 mov	 esi, DWORD PTR _vecPayItem$[ebp]
  00128	2b c6		 sub	 eax, esi
; File C:\IAGOS\server\v18\Source\Source\_Common\Exchange.cpp

; 410  : 	for( int i=0; i<(int)( vecPayItem.size() ); i++ )

  0012a	c7 45 08 00 00
	00 00		 mov	 DWORD PTR _i$1$[ebp], 0
  00131	a9 f0 ff ff ff	 test	 eax, -16		; fffffff0H
  00136	7e 69		 jle	 SHORT $LN9@IsFull
  00138	33 ff		 xor	 edi, edi
  0013a	66 0f 1f 44 00
	00		 npad	 6
$LL10@IsFull:

; 411  : 	{
; 412  : 		ItemProp* pItemProp = prj.GetItemProp( vecPayItem[i].dwItemId );

  00140	8b 0c 37	 mov	 ecx, DWORD PTR [edi+esi]
; File C:\IAGOS\server\v18\Source\Source\_Common\Project.h

; 1389 : 	VERIFY_RANGE_ASSERT( nIndex, 0, m_aPropItem.GetSize(), "GetItemProp range_error", NULL );

  00143	a1 40 02 00 00	 mov	 eax, DWORD PTR ?prj@@3VCProject@@A+576
  00148	85 c9		 test	 ecx, ecx
  0014a	78 23		 js	 SHORT $LN48@IsFull
  0014c	3b c8		 cmp	 ecx, eax
  0014e	7d 1f		 jge	 SHORT $LN48@IsFull
; File C:\IAGOS\server\v18\Source\Source\_Common\data.h

; 270  : 	if( dwIndex >= (DWORD)m_nMaxIndex )

  00150	72 04		 jb	 SHORT $LN53@IsFull

; 271  : 		return NULL;

  00152	33 c9		 xor	 ecx, ecx
  00154	eb 08		 jmp	 SHORT $LN52@IsFull
$LN53@IsFull:

; 272  : 	return (T*) m_apOffset[ dwIndex ];

  00156	a1 30 02 00 00	 mov	 eax, DWORD PTR ?prj@@3VCProject@@A+560
  0015b	8b 0c 88	 mov	 ecx, DWORD PTR [eax+ecx*4]
$LN52@IsFull:
; File C:\IAGOS\server\v18\Source\Source\_Common\Exchange.cpp

; 413  : 		if( pItemProp )

  0015e	85 c9		 test	 ecx, ecx
  00160	74 26		 je	 SHORT $LN8@IsFull

; 414  : 			nEmptyCount -= (int)(vecPayItem[i].nItemNum / pItemProp->dwPackMax);

  00162	8b 44 37 04	 mov	 eax, DWORD PTR [edi+esi+4]
  00166	33 d2		 xor	 edx, edx
  00168	f7 71 6c	 div	 DWORD PTR [ecx+108]
  0016b	2b d8		 sub	 ebx, eax
  0016d	eb 19		 jmp	 SHORT $LN8@IsFull
$LN48@IsFull:
; File C:\IAGOS\server\v18\Source\Source\_Common\Project.h

; 579  : 	LPCTSTR szErr = Error( _T( "%s min:%d, max:%d, index:%d" ), szMsg, nMin, nMax, nIndex ); 

  0016f	51		 push	 ecx
  00170	50		 push	 eax
  00171	6a 00		 push	 0
  00173	68 00 00 00 00	 push	 OFFSET ??_C@_0BI@BEIFNGEL@GetItemProp?5range_error@
  00178	68 00 00 00 00	 push	 OFFSET ??_C@_0BM@HMFGHCP@?$CFs?5min?3?$CFd?0?5max?3?$CFd?0?5index?3?$CFd@
  0017d	e8 00 00 00 00	 call	 ?Error@@YAPBDPBDZZ	; Error
  00182	8b 75 18	 mov	 esi, DWORD PTR _vecPayItem$[ebp]
  00185	83 c4 14	 add	 esp, 20			; 00000014H
$LN8@IsFull:
; File C:\Program Files\Microsoft Visual Studio\2022\Professional\VC\Tools\MSVC\14.44.35207\include\vector

; 1915 :         return static_cast<size_type>(_My_data._Mylast - _My_data._Myfirst);

  00188	8b 45 1c	 mov	 eax, DWORD PTR _vecPayItem$[ebp+4]
; File C:\IAGOS\server\v18\Source\Source\_Common\Exchange.cpp

; 410  : 	for( int i=0; i<(int)( vecPayItem.size() ); i++ )

  0018b	83 c7 10	 add	 edi, 16			; 00000010H
  0018e	8b 4d 08	 mov	 ecx, DWORD PTR _i$1$[ebp]
; File C:\Program Files\Microsoft Visual Studio\2022\Professional\VC\Tools\MSVC\14.44.35207\include\vector

; 1915 :         return static_cast<size_type>(_My_data._Mylast - _My_data._Myfirst);

  00191	2b c6		 sub	 eax, esi
; File C:\IAGOS\server\v18\Source\Source\_Common\Exchange.cpp

; 410  : 	for( int i=0; i<(int)( vecPayItem.size() ); i++ )

  00193	41		 inc	 ecx
; File C:\Program Files\Microsoft Visual Studio\2022\Professional\VC\Tools\MSVC\14.44.35207\include\vector

; 1915 :         return static_cast<size_type>(_My_data._Mylast - _My_data._Myfirst);

  00194	c1 f8 04	 sar	 eax, 4
; File C:\IAGOS\server\v18\Source\Source\_Common\Exchange.cpp

; 410  : 	for( int i=0; i<(int)( vecPayItem.size() ); i++ )

  00197	89 4d 08	 mov	 DWORD PTR _i$1$[ebp], ecx
  0019a	3b c8		 cmp	 ecx, eax
  0019c	7c a2		 jl	 SHORT $LL10@IsFull
  0019e	89 5d f0	 mov	 DWORD PTR _nEmptyCount$1$[ebp], ebx
$LN9@IsFull:
; File C:\Program Files\Microsoft Visual Studio\2022\Professional\VC\Tools\MSVC\14.44.35207\include\vector

; 830  :         _Tidy();

  001a1	33 db		 xor	 ebx, ebx
  001a3	8d 4d 0c	 lea	 ecx, DWORD PTR _vecRemoveItem$[ebp]
  001a6	39 5d f0	 cmp	 DWORD PTR _nEmptyCount$1$[ebp], ebx
  001a9	0f 9e c3	 setle	 bl
  001ac	e8 00 00 00 00	 call	 ?_Tidy@?$vector@U__ITEM@CExchange@@V?$allocator@U__ITEM@CExchange@@@std@@@std@@AAEXXZ ; std::vector<CExchange::__ITEM,std::allocator<CExchange::__ITEM> >::_Tidy
  001b1	8d 4d 18	 lea	 ecx, DWORD PTR _vecPayItem$[ebp]
  001b4	e8 00 00 00 00	 call	 ?_Tidy@?$vector@U__ITEM@CExchange@@V?$allocator@U__ITEM@CExchange@@@std@@@std@@AAEXXZ ; std::vector<CExchange::__ITEM,std::allocator<CExchange::__ITEM> >::_Tidy
; File C:\IAGOS\server\v18\Source\Source\_Common\Exchange.cpp

; 420  : 	return FALSE;

  001b9	8b c3		 mov	 eax, ebx

; 421  : }

  001bb	8b 4d f4	 mov	 ecx, DWORD PTR __$EHRec$[ebp]
  001be	64 89 0d 00 00
	00 00		 mov	 DWORD PTR fs:0, ecx
  001c5	59		 pop	 ecx
  001c6	5f		 pop	 edi
  001c7	5e		 pop	 esi
  001c8	5b		 pop	 ebx
  001c9	8b e5		 mov	 esp, ebp
  001cb	5d		 pop	 ebp
  001cc	c2 1c 00	 ret	 28			; 0000001cH
_TEXT	ENDS
;	COMDAT text$x
text$x	SEGMENT
__unwindfunclet$?IsFull@CExchange@@QAEHPAVCUser@@V?$vector@U__ITEM@CExchange@@V?$allocator@U__ITEM@CExchange@@@std@@@std@@1@Z$0:
  00000	8d 4d 18	 lea	 ecx, DWORD PTR _vecPayItem$[ebp]
  00003	e9 00 00 00 00	 jmp	 ??1?$vector@U__ITEM@CExchange@@V?$allocator@U__ITEM@CExchange@@@std@@@std@@QAE@XZ ; std::vector<CExchange::__ITEM,std::allocator<CExchange::__ITEM> >::~vector<CExchange::__ITEM,std::allocator<CExchange::__ITEM> >
__unwindfunclet$?IsFull@CExchange@@QAEHPAVCUser@@V?$vector@U__ITEM@CExchange@@V?$allocator@U__ITEM@CExchange@@@std@@@std@@1@Z$1:
  00008	8d 4d 0c	 lea	 ecx, DWORD PTR _vecRemoveItem$[ebp]
  0000b	e9 00 00 00 00	 jmp	 ??1?$vector@U__ITEM@CExchange@@V?$allocator@U__ITEM@CExchange@@@std@@@std@@QAE@XZ ; std::vector<CExchange::__ITEM,std::allocator<CExchange::__ITEM> >::~vector<CExchange::__ITEM,std::allocator<CExchange::__ITEM> >
  00010	cc		 int	 3
  00011	cc		 int	 3
  00012	cc		 int	 3
  00013	cc		 int	 3
  00014	cc		 int	 3
__ehhandler$?IsFull@CExchange@@QAEHPAVCUser@@V?$vector@U__ITEM@CExchange@@V?$allocator@U__ITEM@CExchange@@@std@@@std@@1@Z:
  00015	90		 npad	 1
  00016	90		 npad	 1
  00017	8b 54 24 08	 mov	 edx, DWORD PTR [esp+8]
  0001b	8d 42 0c	 lea	 eax, DWORD PTR [edx+12]
  0001e	8b 4a dc	 mov	 ecx, DWORD PTR [edx-36]
  00021	33 c8		 xor	 ecx, eax
  00023	e8 00 00 00 00	 call	 @__security_check_cookie@4
  00028	b8 00 00 00 00	 mov	 eax, OFFSET __ehfuncinfo$?IsFull@CExchange@@QAEHPAVCUser@@V?$vector@U__ITEM@CExchange@@V?$allocator@U__ITEM@CExchange@@@std@@@std@@1@Z
  0002d	e9 00 00 00 00	 jmp	 ___CxxFrameHandler3
text$x	ENDS
?IsFull@CExchange@@QAEHPAVCUser@@V?$vector@U__ITEM@CExchange@@V?$allocator@U__ITEM@CExchange@@@std@@@std@@1@Z ENDP ; CExchange::IsFull
; Function compile flags: /Ogtp
; File C:\IAGOS\server\v18\Source\Source\_Common\Exchange.cpp
; File C:\Program Files\Microsoft Visual Studio\2022\Professional\VC\Tools\MSVC\14.44.35207\include\vector
; File C:\IAGOS\server\v18\Source\Source\_Common\Exchange.cpp
; File C:\Program Files\Microsoft Visual Studio\2022\Professional\VC\Tools\MSVC\14.44.35207\include\vector
; File C:\IAGOS\server\v18\Source\Source\_Common\Exchange.cpp
; File C:\Program Files\Microsoft Visual Studio\2022\Professional\VC\Tools\MSVC\14.44.35207\include\vector
; File C:\IAGOS\server\v18\Source\Source\_Common\Exchange.cpp
; File C:\Program Files\Microsoft Visual Studio\2022\Professional\VC\Tools\MSVC\14.44.35207\include\vector
; File C:\IAGOS\server\v18\Source\Source\_Common\Exchange.cpp
; File C:\Program Files\Microsoft Visual Studio\2022\Professional\VC\Tools\MSVC\14.44.35207\include\vector
; File C:\IAGOS\server\v18\Source\Source\_Common\Exchange.cpp
; File C:\Program Files\Microsoft Visual Studio\2022\Professional\VC\Tools\MSVC\14.44.35207\include\vector
; File C:\IAGOS\server\v18\Source\Source\_Common\Exchange.cpp
; File C:\Program Files\Microsoft Visual Studio\2022\Professional\VC\Tools\MSVC\14.44.35207\include\vector
; File C:\IAGOS\server\v18\Source\Source\_Common\Exchange.cpp
; File C:\Program Files\Microsoft Visual Studio\2022\Professional\VC\Tools\MSVC\14.44.35207\include\vector
; File C:\IAGOS\server\v18\Source\Source\_Common\Exchange.cpp
; File C:\Program Files\Microsoft Visual Studio\2022\Professional\VC\Tools\MSVC\14.44.35207\include\vector
; File C:\IAGOS\server\v18\Source\Source\_Common\Exchange.cpp
; File C:\IAGOS\server\v18\Source\Source\_Common\Project.h
; File C:\IAGOS\server\v18\Source\Source\_Common\data.h
; File C:\IAGOS\server\v18\Source\Source\_Common\Exchange.cpp
; File C:\IAGOS\server\v18\Source\Source\_Common\Project.h
; File C:\IAGOS\server\v18\Source\Source\_Common\Exchange.cpp
; File C:\Program Files\Microsoft Visual Studio\2022\Professional\VC\Tools\MSVC\14.44.35207\include\vector
; File C:\IAGOS\server\v18\Source\Source\_Common\Exchange.cpp
; File C:\Program Files\Microsoft Visual Studio\2022\Professional\VC\Tools\MSVC\14.44.35207\include\vector
; File C:\IAGOS\server\v18\Source\Source\_Common\Exchange.cpp
; File C:\Program Files\Microsoft Visual Studio\2022\Professional\VC\Tools\MSVC\14.44.35207\include\vector
; File C:\IAGOS\server\v18\Source\Source\_Common\Exchange.cpp
; File C:\Program Files\Microsoft Visual Studio\2022\Professional\VC\Tools\MSVC\14.44.35207\include\vector
; File C:\IAGOS\server\v18\Source\Source\_Common\Exchange.cpp
; File C:\Program Files\Microsoft Visual Studio\2022\Professional\VC\Tools\MSVC\14.44.35207\include\vector
; File C:\IAGOS\server\v18\Source\Source\_Common\Exchange.cpp
;	COMDAT ?CheckCondition@CExchange@@QAEHPAVCUser@@HH@Z
_TEXT	SEGMENT
$T2 = -64						; size = 12
_vecItem$ = -52						; size = 12
$T3 = -40						; size = 12
_vecPoint$ = -40					; size = 12
tv714 = -28						; size = 4
_pSetList$1$ = -24					; size = 4
_this$1$ = -20						; size = 4
tv728 = -16						; size = 4
__$EHRec$ = -12						; size = 12
_pUser$ = 8						; size = 4
tv724 = 8						; size = 4
_nMMIId$ = 12						; size = 4
_nListNum$ = 16						; size = 4
?CheckCondition@CExchange@@QAEHPAVCUser@@HH@Z PROC	; CExchange::CheckCondition, COMDAT
; _this$ = ecx

; 260  : {

  00000	55		 push	 ebp
  00001	8b ec		 mov	 ebp, esp
  00003	6a ff		 push	 -1
  00005	68 00 00 00 00	 push	 __ehhandler$?CheckCondition@CExchange@@QAEHPAVCUser@@HH@Z
  0000a	64 a1 00 00 00
	00		 mov	 eax, DWORD PTR fs:0
  00010	50		 push	 eax
  00011	83 ec 34	 sub	 esp, 52			; 00000034H
  00014	53		 push	 ebx
  00015	56		 push	 esi
  00016	57		 push	 edi
  00017	a1 00 00 00 00	 mov	 eax, DWORD PTR ___security_cookie
  0001c	33 c5		 xor	 eax, ebp
  0001e	50		 push	 eax
  0001f	8d 45 f4	 lea	 eax, DWORD PTR __$EHRec$[ebp]
  00022	64 a3 00 00 00
	00		 mov	 DWORD PTR fs:0, eax
  00028	8b c1		 mov	 eax, ecx
  0002a	89 45 ec	 mov	 DWORD PTR _this$1$[ebp], eax

; 261  : 	PSETLIST pSetList = FindExchange( nMMIId );

  0002d	ff 75 0c	 push	 DWORD PTR _nMMIId$[ebp]
  00030	e8 00 00 00 00	 call	 ?FindExchange@CExchange@@QAEPAU__SETLIST@1@H@Z ; CExchange::FindExchange
  00035	89 45 e8	 mov	 DWORD PTR _pSetList$1$[ebp], eax

; 262  : 	if( !pSetList )

  00038	85 c0		 test	 eax, eax
  0003a	0f 84 d0 01 00
	00		 je	 $LN106@CheckCondi
; File C:\Program Files\Microsoft Visual Studio\2022\Professional\VC\Tools\MSVC\14.44.35207\include\vector

; 1915 :         return static_cast<size_type>(_My_data._Mylast - _My_data._Myfirst);

  00040	8b 48 10	 mov	 ecx, DWORD PTR [eax+16]
  00043	8b 78 0c	 mov	 edi, DWORD PTR [eax+12]
  00046	2b cf		 sub	 ecx, edi
  00048	b8 67 66 66 66	 mov	 eax, 1717986919		; 66666667H
  0004d	f7 e9		 imul	 ecx
; File C:\IAGOS\server\v18\Source\Source\_Common\Exchange.cpp

; 265  : 	if( nListNum > (int)( pSetList->vecSet.size()-1 ) )

  0004f	8b 4d 10	 mov	 ecx, DWORD PTR _nListNum$[ebp]
; File C:\Program Files\Microsoft Visual Studio\2022\Professional\VC\Tools\MSVC\14.44.35207\include\vector

; 1915 :         return static_cast<size_type>(_My_data._Mylast - _My_data._Myfirst);

  00052	c1 fa 05	 sar	 edx, 5
  00055	8b c2		 mov	 eax, edx
  00057	c1 e8 1f	 shr	 eax, 31			; 0000001fH
; File C:\IAGOS\server\v18\Source\Source\_Common\Exchange.cpp

; 265  : 	if( nListNum > (int)( pSetList->vecSet.size()-1 ) )

  0005a	48		 dec	 eax
  0005b	03 c2		 add	 eax, edx
  0005d	3b c8		 cmp	 ecx, eax
  0005f	0f 8f ab 01 00
	00		 jg	 $LN106@CheckCondi
; File C:\Program Files\Microsoft Visual Studio\2022\Professional\VC\Tools\MSVC\14.44.35207\include\vector

; 1934 :         return _My_data._Myfirst[_Pos];

  00065	8d 04 89	 lea	 eax, DWORD PTR [ecx+ecx*4]
; File C:\IAGOS\server\v18\Source\Source\_Common\Exchange.cpp

; 268  : 	BOOL bReturn = TRUE;

  00068	be 01 00 00 00	 mov	 esi, 1
; File C:\Program Files\Microsoft Visual Studio\2022\Professional\VC\Tools\MSVC\14.44.35207\include\vector

; 1934 :         return _My_data._Myfirst[_Pos];

  0006d	c1 e0 04	 shl	 eax, 4
; File C:\IAGOS\server\v18\Source\Source\_Common\Exchange.cpp

; 269  : 	vector<__ITEM> vecItem = pSetList->vecSet[nListNum].vecCondItem;

  00070	8d 4d cc	 lea	 ecx, DWORD PTR _vecItem$[ebp]
; File C:\Program Files\Microsoft Visual Studio\2022\Professional\VC\Tools\MSVC\14.44.35207\include\vector

; 1934 :         return _My_data._Myfirst[_Pos];

  00073	89 45 e4	 mov	 DWORD PTR tv714[ebp], eax
; File C:\IAGOS\server\v18\Source\Source\_Common\Exchange.cpp

; 269  : 	vector<__ITEM> vecItem = pSetList->vecSet[nListNum].vecCondItem;

  00076	83 c0 10	 add	 eax, 16			; 00000010H
  00079	03 c7		 add	 eax, edi
  0007b	50		 push	 eax
  0007c	e8 00 00 00 00	 call	 ??0?$vector@U__ITEM@CExchange@@V?$allocator@U__ITEM@CExchange@@@std@@@std@@QAE@ABV01@@Z ; std::vector<CExchange::__ITEM,std::allocator<CExchange::__ITEM> >::vector<CExchange::__ITEM,std::allocator<CExchange::__ITEM> >
; File C:\Program Files\Microsoft Visual Studio\2022\Professional\VC\Tools\MSVC\14.44.35207\include\vector

; 1915 :         return static_cast<size_type>(_My_data._Mylast - _My_data._Myfirst);

  00081	8b 4d d0	 mov	 ecx, DWORD PTR _vecItem$[ebp+4]
  00084	8b 7d cc	 mov	 edi, DWORD PTR _vecItem$[ebp]
  00087	2b cf		 sub	 ecx, edi
; File C:\IAGOS\server\v18\Source\Source\_Common\Exchange.cpp

; 270  : 	for( int i=0; i<(int)( vecItem.size() ); i++ )

  00089	8b 5d 08	 mov	 ebx, DWORD PTR _pUser$[ebp]
; File C:\Program Files\Microsoft Visual Studio\2022\Professional\VC\Tools\MSVC\14.44.35207\include\vector

; 1915 :         return static_cast<size_type>(_My_data._Mylast - _My_data._Myfirst);

  0008c	c1 f9 04	 sar	 ecx, 4
; File C:\IAGOS\server\v18\Source\Source\_Common\Exchange.cpp

; 269  : 	vector<__ITEM> vecItem = pSetList->vecSet[nListNum].vecCondItem;

  0008f	c7 45 fc 00 00
	00 00		 mov	 DWORD PTR __$EHRec$[ebp+8], 0
; File C:\Program Files\Microsoft Visual Studio\2022\Professional\VC\Tools\MSVC\14.44.35207\include\vector

; 1915 :         return static_cast<size_type>(_My_data._Mylast - _My_data._Myfirst);

  00096	89 4d f0	 mov	 DWORD PTR tv728[ebp], ecx
; File C:\IAGOS\server\v18\Source\Source\_Common\Exchange.cpp

; 270  : 	for( int i=0; i<(int)( vecItem.size() ); i++ )

  00099	85 c9		 test	 ecx, ecx
  0009b	0f 8e aa 00 00
	00		 jle	 $LN3@CheckCondi
$LL4@CheckCondi:

; 271  : 	{
; 272  : 		int nItemCount = 0;
; 273  : 		if( vecItem[i].dwItemId == II_GOLD_SEED1 )

  000a1	8b 07		 mov	 eax, DWORD PTR [edi]
  000a3	83 f8 0c	 cmp	 eax, 12			; 0000000cH
  000a6	75 08		 jne	 SHORT $LN12@CheckCondi

; 274  : 			nItemCount = pUser->GetGold();

  000a8	8b 83 e0 14 00
	00		 mov	 eax, DWORD PTR [ebx+5344]
  000ae	eb 0b		 jmp	 SHORT $LN13@CheckCondi
$LN12@CheckCondi:

; 275  : 		else
; 276  : 			nItemCount = pUser->GetItemNum( vecItem[i].dwItemId );

  000b0	50		 push	 eax
  000b1	8b cb		 mov	 ecx, ebx
  000b3	e8 00 00 00 00	 call	 ?GetItemNum@CMover@@QAEHK@Z ; CMover::GetItemNum
  000b8	8b 4d f0	 mov	 ecx, DWORD PTR tv728[ebp]
$LN13@CheckCondi:

; 277  : 		
; 278  : 		if( nItemCount < vecItem[i].nItemNum )

  000bb	3b 47 04	 cmp	 eax, DWORD PTR [edi+4]
  000be	7d 7c		 jge	 SHORT $LN2@CheckCondi

; 280  : 			if( GetResultMsg( nMMIId, nListNum ).size() < 2 )

  000c0	ff 75 10	 push	 DWORD PTR _nListNum$[ebp]
  000c3	8b 4d ec	 mov	 ecx, DWORD PTR _this$1$[ebp]
  000c6	8d 45 d8	 lea	 eax, DWORD PTR $T3[ebp]
  000c9	ff 75 0c	 push	 DWORD PTR _nMMIId$[ebp]
  000cc	50		 push	 eax
  000cd	e8 00 00 00 00	 call	 ?GetResultMsg@CExchange@@QAE?AV?$vector@HV?$allocator@H@std@@@std@@HH@Z ; CExchange::GetResultMsg
; File C:\Program Files\Microsoft Visual Studio\2022\Professional\VC\Tools\MSVC\14.44.35207\include\vector

; 830  :         _Tidy();

  000d2	8d 4d d8	 lea	 ecx, DWORD PTR $T3[ebp]

; 1915 :         return static_cast<size_type>(_My_data._Mylast - _My_data._Myfirst);

  000d5	8b 70 04	 mov	 esi, DWORD PTR [eax+4]
  000d8	2b 30		 sub	 esi, DWORD PTR [eax]
  000da	c1 fe 02	 sar	 esi, 2

; 830  :         _Tidy();

  000dd	e8 00 00 00 00	 call	 ?_Tidy@?$vector@HV?$allocator@H@std@@@std@@AAEXXZ ; std::vector<int,std::allocator<int> >::_Tidy
; File C:\IAGOS\server\v18\Source\Source\_Common\Exchange.cpp

; 280  : 			if( GetResultMsg( nMMIId, nListNum ).size() < 2 )

  000e2	83 fe 02	 cmp	 esi, 2
  000e5	73 50		 jae	 SHORT $LN16@CheckCondi

; 281  : 			{
; 282  : 				ItemProp* pItemProp = prj.GetItemProp( vecItem[i].dwItemId );

  000e7	8b 0f		 mov	 ecx, DWORD PTR [edi]
; File C:\IAGOS\server\v18\Source\Source\_Common\Project.h

; 1389 : 	VERIFY_RANGE_ASSERT( nIndex, 0, m_aPropItem.GetSize(), "GetItemProp range_error", NULL );

  000e9	a1 40 02 00 00	 mov	 eax, DWORD PTR ?prj@@3VCProject@@A+576
  000ee	85 c9		 test	 ecx, ecx
  000f0	78 2f		 js	 SHORT $LN85@CheckCondi
  000f2	3b c8		 cmp	 ecx, eax
  000f4	7d 2b		 jge	 SHORT $LN85@CheckCondi
; File C:\IAGOS\server\v18\Source\Source\_Common\data.h

; 270  : 	if( dwIndex >= (DWORD)m_nMaxIndex )

  000f6	72 04		 jb	 SHORT $LN90@CheckCondi

; 271  : 		return NULL;

  000f8	33 c0		 xor	 eax, eax
  000fa	eb 08		 jmp	 SHORT $LN89@CheckCondi
$LN90@CheckCondi:

; 272  : 	return (T*) m_apOffset[ dwIndex ];

  000fc	a1 30 02 00 00	 mov	 eax, DWORD PTR ?prj@@3VCProject@@A+560
  00101	8b 04 88	 mov	 eax, DWORD PTR [eax+ecx*4]
$LN89@CheckCondi:
; File C:\IAGOS\server\v18\Source\Source\_Common\Exchange.cpp

; 283  : 				if( pItemProp )

  00104	85 c0		 test	 eax, eax
  00106	74 2f		 je	 SHORT $LN16@CheckCondi

; 284  : 					pUser->AddDefinedText( TID_EXCHANGE_FAIL, "\"%s\" %d", pItemProp->szName, vecItem[i].nItemNum );

  00108	ff 77 04	 push	 DWORD PTR [edi+4]
  0010b	83 c0 04	 add	 eax, 4
  0010e	50		 push	 eax
  0010f	68 00 00 00 00	 push	 OFFSET ??_C@_07BFJJNFBL@?$CC?$CFs?$CC?5?$CFd@
  00114	68 9d 0f 00 00	 push	 3997			; 00000f9dH
  00119	53		 push	 ebx
  0011a	e8 00 00 00 00	 call	 ?AddDefinedText@CUser@@QAAXHPBDZZ ; CUser::AddDefinedText
  0011f	eb 13		 jmp	 SHORT $LN110@CheckCondi
$LN85@CheckCondi:
; File C:\IAGOS\server\v18\Source\Source\_Common\Project.h

; 579  : 	LPCTSTR szErr = Error( _T( "%s min:%d, max:%d, index:%d" ), szMsg, nMin, nMax, nIndex ); 

  00121	51		 push	 ecx
  00122	50		 push	 eax
  00123	6a 00		 push	 0
  00125	68 00 00 00 00	 push	 OFFSET ??_C@_0BI@BEIFNGEL@GetItemProp?5range_error@
  0012a	68 00 00 00 00	 push	 OFFSET ??_C@_0BM@HMFGHCP@?$CFs?5min?3?$CFd?0?5max?3?$CFd?0?5index?3?$CFd@
  0012f	e8 00 00 00 00	 call	 ?Error@@YAPBDPBDZZ	; Error
$LN110@CheckCondi:
; File C:\IAGOS\server\v18\Source\Source\_Common\Exchange.cpp

; 287  : 			bReturn = FALSE;

  00134	83 c4 14	 add	 esp, 20			; 00000014H
$LN16@CheckCondi:
  00137	8b 4d f0	 mov	 ecx, DWORD PTR tv728[ebp]
  0013a	33 f6		 xor	 esi, esi
$LN2@CheckCondi:

; 270  : 	for( int i=0; i<(int)( vecItem.size() ); i++ )

  0013c	83 c7 10	 add	 edi, 16			; 00000010H
  0013f	83 e9 01	 sub	 ecx, 1
  00142	89 4d f0	 mov	 DWORD PTR tv728[ebp], ecx
  00145	0f 85 56 ff ff
	ff		 jne	 $LL4@CheckCondi
$LN3@CheckCondi:

; 291  : 	vector<__POINT> vecPoint = pSetList->vecSet[nListNum].vecCondPoint;

  0014b	8b 45 e8	 mov	 eax, DWORD PTR _pSetList$1$[ebp]
  0014e	8b 4d e4	 mov	 ecx, DWORD PTR tv714[ebp]
  00151	83 c1 28	 add	 ecx, 40			; 00000028H
  00154	8b 40 0c	 mov	 eax, DWORD PTR [eax+12]
  00157	03 c1		 add	 eax, ecx
  00159	8d 4d d8	 lea	 ecx, DWORD PTR _vecPoint$[ebp]
  0015c	50		 push	 eax
  0015d	e8 00 00 00 00	 call	 ??0?$vector@U__POINT@CExchange@@V?$allocator@U__POINT@CExchange@@@std@@@std@@QAE@ABV01@@Z ; std::vector<CExchange::__POINT,std::allocator<CExchange::__POINT> >::vector<CExchange::__POINT,std::allocator<CExchange::__POINT> >
; File C:\Program Files\Microsoft Visual Studio\2022\Professional\VC\Tools\MSVC\14.44.35207\include\vector

; 1915 :         return static_cast<size_type>(_My_data._Mylast - _My_data._Myfirst);

  00162	8b 45 dc	 mov	 eax, DWORD PTR _vecPoint$[ebp+4]
; File C:\IAGOS\server\v18\Source\Source\_Common\Exchange.cpp

; 293  : 	for( int i = 0; i < (int)( vecPoint.size() ); ++i )

  00165	33 ff		 xor	 edi, edi
; File C:\Program Files\Microsoft Visual Studio\2022\Professional\VC\Tools\MSVC\14.44.35207\include\vector

; 1915 :         return static_cast<size_type>(_My_data._Mylast - _My_data._Myfirst);

  00167	8b 4d d8	 mov	 ecx, DWORD PTR _vecPoint$[ebp]
  0016a	2b c1		 sub	 eax, ecx
  0016c	c1 f8 03	 sar	 eax, 3
; File C:\IAGOS\server\v18\Source\Source\_Common\Exchange.cpp

; 291  : 	vector<__POINT> vecPoint = pSetList->vecSet[nListNum].vecCondPoint;

  0016f	c6 45 fc 01	 mov	 BYTE PTR __$EHRec$[ebp+8], 1
; File C:\Program Files\Microsoft Visual Studio\2022\Professional\VC\Tools\MSVC\14.44.35207\include\vector

; 1915 :         return static_cast<size_type>(_My_data._Mylast - _My_data._Myfirst);

  00173	89 45 08	 mov	 DWORD PTR tv724[ebp], eax
; File C:\IAGOS\server\v18\Source\Source\_Common\Exchange.cpp

; 293  : 	for( int i = 0; i < (int)( vecPoint.size() ); ++i )

  00176	85 c0		 test	 eax, eax
  00178	7e 70		 jle	 SHORT $LN6@CheckCondi
  0017a	66 0f 1f 44 00
	00		 npad	 6
$LL7@CheckCondi:

; 294  : 	{
; 295  : 		nPoint = pUser->GetPointByType( vecPoint[i].nType );

  00180	0f b6 04 f9	 movzx	 eax, BYTE PTR [ecx+edi*8]
  00184	8b cb		 mov	 ecx, ebx
  00186	50		 push	 eax
  00187	e8 00 00 00 00	 call	 ?GetPointByType@CUser@@QAEHH@Z ; CUser::GetPointByType

; 296  : 		if( nPoint < vecPoint[i].nPoint )

  0018c	8b 4d d8	 mov	 ecx, DWORD PTR _vecPoint$[ebp]
  0018f	3b 44 f9 04	 cmp	 eax, DWORD PTR [ecx+edi*8+4]
  00193	7d 4f		 jge	 SHORT $LN5@CheckCondi

; 298  : 			if( GetResultMsg( nMMIId, nListNum ).size() < 2 )

  00195	ff 75 10	 push	 DWORD PTR _nListNum$[ebp]
  00198	8b 4d ec	 mov	 ecx, DWORD PTR _this$1$[ebp]
  0019b	8d 45 c0	 lea	 eax, DWORD PTR $T2[ebp]
  0019e	ff 75 0c	 push	 DWORD PTR _nMMIId$[ebp]
  001a1	50		 push	 eax
  001a2	e8 00 00 00 00	 call	 ?GetResultMsg@CExchange@@QAE?AV?$vector@HV?$allocator@H@std@@@std@@HH@Z ; CExchange::GetResultMsg
; File C:\Program Files\Microsoft Visual Studio\2022\Professional\VC\Tools\MSVC\14.44.35207\include\vector

; 830  :         _Tidy();

  001a7	8d 4d c0	 lea	 ecx, DWORD PTR $T2[ebp]

; 1915 :         return static_cast<size_type>(_My_data._Mylast - _My_data._Myfirst);

  001aa	8b 70 04	 mov	 esi, DWORD PTR [eax+4]
  001ad	2b 30		 sub	 esi, DWORD PTR [eax]
  001af	c1 fe 02	 sar	 esi, 2

; 830  :         _Tidy();

  001b2	e8 00 00 00 00	 call	 ?_Tidy@?$vector@HV?$allocator@H@std@@@std@@AAEXXZ ; std::vector<int,std::allocator<int> >::_Tidy
; File C:\IAGOS\server\v18\Source\Source\_Common\Exchange.cpp

; 298  : 			if( GetResultMsg( nMMIId, nListNum ).size() < 2 )

  001b7	8b 4d d8	 mov	 ecx, DWORD PTR _vecPoint$[ebp]
  001ba	83 fe 02	 cmp	 esi, 2
  001bd	73 23		 jae	 SHORT $LN20@CheckCondi

; 299  : 			{
; 300  : 				switch( vecPoint[i].nType )

  001bf	0f b6 04 f9	 movzx	 eax, BYTE PTR [ecx+edi*8]
  001c3	83 e8 01	 sub	 eax, 1
  001c6	75 1a		 jne	 SHORT $LN20@CheckCondi

; 301  : 				{
; 302  : 				case POINTTYPE_CAMPUS:
; 303  : 					pUser->AddDefinedText( TID_GAME_EXCHANGE_CAMPUSPOINT_FAIL, "%d", vecPoint[i].nPoint );

  001c8	ff 74 f9 04	 push	 DWORD PTR [ecx+edi*8+4]
  001cc	68 00 00 00 00	 push	 OFFSET ??_C@_02DPKJAMEF@?$CFd@
  001d1	68 06 11 00 00	 push	 4358			; 00001106H
  001d6	53		 push	 ebx
  001d7	e8 00 00 00 00	 call	 ?AddDefinedText@CUser@@QAAXHPBDZZ ; CUser::AddDefinedText
  001dc	8b 4d d8	 mov	 ecx, DWORD PTR _vecPoint$[ebp]
  001df	83 c4 10	 add	 esp, 16			; 00000010H
$LN20@CheckCondi:

; 304  : 					break;
; 305  : 
; 306  : 				default:
; 307  : 					break;
; 308  : 				}
; 309  : 			}
; 310  : 			bReturn = FALSE;

  001e2	33 f6		 xor	 esi, esi
$LN5@CheckCondi:

; 293  : 	for( int i = 0; i < (int)( vecPoint.size() ); ++i )

  001e4	47		 inc	 edi
  001e5	3b 7d 08	 cmp	 edi, DWORD PTR tv724[ebp]
  001e8	7c 96		 jl	 SHORT $LL7@CheckCondi
$LN6@CheckCondi:
; File C:\Program Files\Microsoft Visual Studio\2022\Professional\VC\Tools\MSVC\14.44.35207\include\vector

; 830  :         _Tidy();

  001ea	8d 4d d8	 lea	 ecx, DWORD PTR _vecPoint$[ebp]
  001ed	e8 00 00 00 00	 call	 ?_Tidy@?$vector@U__POINT@CExchange@@V?$allocator@U__POINT@CExchange@@@std@@@std@@AAEXXZ ; std::vector<CExchange::__POINT,std::allocator<CExchange::__POINT> >::_Tidy
  001f2	8d 4d cc	 lea	 ecx, DWORD PTR _vecItem$[ebp]
  001f5	e8 00 00 00 00	 call	 ?_Tidy@?$vector@U__ITEM@CExchange@@V?$allocator@U__ITEM@CExchange@@@std@@@std@@AAEXXZ ; std::vector<CExchange::__ITEM,std::allocator<CExchange::__ITEM> >::_Tidy
; File C:\IAGOS\server\v18\Source\Source\_Common\Exchange.cpp

; 314  : 	return bReturn;

  001fa	8b c6		 mov	 eax, esi

; 315  : }

  001fc	8b 4d f4	 mov	 ecx, DWORD PTR __$EHRec$[ebp]
  001ff	64 89 0d 00 00
	00 00		 mov	 DWORD PTR fs:0, ecx
  00206	59		 pop	 ecx
  00207	5f		 pop	 edi
  00208	5e		 pop	 esi
  00209	5b		 pop	 ebx
  0020a	8b e5		 mov	 esp, ebp
  0020c	5d		 pop	 ebp
  0020d	c2 0c 00	 ret	 12			; 0000000cH
$LN106@CheckCondi:

; 266  : 		return FALSE;

  00210	33 c0		 xor	 eax, eax

; 315  : }

  00212	8b 4d f4	 mov	 ecx, DWORD PTR __$EHRec$[ebp]
  00215	64 89 0d 00 00
	00 00		 mov	 DWORD PTR fs:0, ecx
  0021c	59		 pop	 ecx
  0021d	5f		 pop	 edi
  0021e	5e		 pop	 esi
  0021f	5b		 pop	 ebx
  00220	8b e5		 mov	 esp, ebp
  00222	5d		 pop	 ebp
  00223	c2 0c 00	 ret	 12			; 0000000cH
_TEXT	ENDS
;	COMDAT text$x
text$x	SEGMENT
__unwindfunclet$?CheckCondition@CExchange@@QAEHPAVCUser@@HH@Z$0:
  00000	8d 4d cc	 lea	 ecx, DWORD PTR _vecItem$[ebp]
  00003	e9 00 00 00 00	 jmp	 ??1?$vector@U__ITEM@CExchange@@V?$allocator@U__ITEM@CExchange@@@std@@@std@@QAE@XZ ; std::vector<CExchange::__ITEM,std::allocator<CExchange::__ITEM> >::~vector<CExchange::__ITEM,std::allocator<CExchange::__ITEM> >
__unwindfunclet$?CheckCondition@CExchange@@QAEHPAVCUser@@HH@Z$2:
  00008	8d 4d d8	 lea	 ecx, DWORD PTR _vecPoint$[ebp]
  0000b	e9 00 00 00 00	 jmp	 ??1?$vector@U__POINT@CExchange@@V?$allocator@U__POINT@CExchange@@@std@@@std@@QAE@XZ ; std::vector<CExchange::__POINT,std::allocator<CExchange::__POINT> >::~vector<CExchange::__POINT,std::allocator<CExchange::__POINT> >
  00010	cc		 int	 3
  00011	cc		 int	 3
  00012	cc		 int	 3
  00013	cc		 int	 3
  00014	cc		 int	 3
__ehhandler$?CheckCondition@CExchange@@QAEHPAVCUser@@HH@Z:
  00015	90		 npad	 1
  00016	90		 npad	 1
  00017	8b 54 24 08	 mov	 edx, DWORD PTR [esp+8]
  0001b	8d 42 0c	 lea	 eax, DWORD PTR [edx+12]
  0001e	8b 4a bc	 mov	 ecx, DWORD PTR [edx-68]
  00021	33 c8		 xor	 ecx, eax
  00023	e8 00 00 00 00	 call	 @__security_check_cookie@4
  00028	b8 00 00 00 00	 mov	 eax, OFFSET __ehfuncinfo$?CheckCondition@CExchange@@QAEHPAVCUser@@HH@Z
  0002d	e9 00 00 00 00	 jmp	 ___CxxFrameHandler3
text$x	ENDS
?CheckCondition@CExchange@@QAEHPAVCUser@@HH@Z ENDP	; CExchange::CheckCondition
; Function compile flags: /Ogtp
; File C:\IAGOS\server\v18\Source\Source\_Common\Exchange.cpp
; File C:\Program Files\Microsoft Visual Studio\2022\Professional\VC\Tools\MSVC\14.44.35207\include\vector
; File C:\IAGOS\server\v18\Source\Source\_Common\Exchange.cpp
; File C:\Program Files\Microsoft Visual Studio\2022\Professional\VC\Tools\MSVC\14.44.35207\include\vector
; File C:\IAGOS\server\v18\Source\Source\_Common\Exchange.cpp
; File C:\Program Files\Microsoft Visual Studio\2022\Professional\VC\Tools\MSVC\14.44.35207\include\vector
; File C:\IAGOS\server\v18\Source\Source\_Common\Exchange.cpp
; File C:\Program Files\Microsoft Visual Studio\2022\Professional\VC\Tools\MSVC\14.44.35207\include\vector
; File C:\IAGOS\server\v18\Source\Source\_Common\Exchange.cpp
; File C:\Program Files\Microsoft Visual Studio\2022\Professional\VC\Tools\MSVC\14.44.35207\include\vector
; File C:\IAGOS\server\v18\Source\Source\_Common\Exchange.cpp
; File C:\Program Files\Microsoft Visual Studio\2022\Professional\VC\Tools\MSVC\14.44.35207\include\vector
; File C:\IAGOS\server\v18\Source\Source\_Common\Exchange.cpp
; File C:\Program Files\Microsoft Visual Studio\2022\Professional\VC\Tools\MSVC\14.44.35207\include\vector
; File C:\IAGOS\server\v18\Source\Source\_Common\Exchange.cpp
; File C:\Program Files\Microsoft Visual Studio\2022\Professional\VC\Tools\MSVC\14.44.35207\include\vector
; File C:\IAGOS\server\v18\Source\Source\_Common\Exchange.cpp
; File C:\Program Files\Microsoft Visual Studio\2022\Professional\VC\Tools\MSVC\14.44.35207\include\vector
; File C:\IAGOS\server\v18\Source\Source\_Common\Exchange.cpp
; File C:\Program Files\Microsoft Visual Studio\2022\Professional\VC\Tools\MSVC\14.44.35207\include\vector
; File C:\IAGOS\server\v18\Source\Source\_Common\Exchange.cpp
; File C:\Program Files\Microsoft Visual Studio\2022\Professional\VC\Tools\MSVC\14.44.35207\include\vector
; File C:\IAGOS\server\v18\Source\Source\_Common\Exchange.cpp
; File C:\IAGOS\server\v18\Source\Source\_Common\Project.h
; File C:\IAGOS\server\v18\Source\Source\_Common\data.h
; File C:\IAGOS\server\v18\Source\Source\_Common\Project.h
; File C:\IAGOS\server\v18\Source\Source\_Common\Exchange.cpp
; File C:\IAGOS\server\v18\Source\Source\_network\CmnHdr.h
; File C:\IAGOS\server\v18\Source\Source\_Common\Exchange.cpp
; File C:\IAGOS\server\v18\Source\Source\_network\CmnHdr.h
; File C:\IAGOS\server\v18\Source\Source\_Common\Exchange.cpp
; File C:\IAGOS\server\v18\Source\Source\_network\CmnHdr.h
; File C:\IAGOS\server\v18\Source\Source\_Common\Exchange.cpp
; File C:\Program Files\Microsoft Visual Studio\2022\Professional\VC\Tools\MSVC\14.44.35207\include\vector
; File C:\IAGOS\server\v18\Source\Source\_Common\Exchange.cpp
; File C:\Program Files\Microsoft Visual Studio\2022\Professional\VC\Tools\MSVC\14.44.35207\atlmfc\include\atlsimpstr.h
; File C:\IAGOS\server\v18\Source\Source\_Common\Exchange.cpp
; File C:\Program Files\Microsoft Visual Studio\2022\Professional\VC\Tools\MSVC\14.44.35207\atlmfc\include\atlsimpstr.h
; File C:\IAGOS\server\v18\Source\Source\_Common\Exchange.cpp
; File C:\Program Files\Microsoft Visual Studio\2022\Professional\VC\Tools\MSVC\14.44.35207\include\vector
; File C:\IAGOS\server\v18\Source\Source\_Common\Exchange.cpp
; File C:\Program Files\Microsoft Visual Studio\2022\Professional\VC\Tools\MSVC\14.44.35207\include\vector
; File C:\IAGOS\server\v18\Source\Source\_Common\Exchange.cpp
; File C:\Program Files\Microsoft Visual Studio\2022\Professional\VC\Tools\MSVC\14.44.35207\include\vector
; File C:\IAGOS\server\v18\Source\Source\_Common\Exchange.cpp
; File C:\Program Files\Microsoft Visual Studio\2022\Professional\VC\Tools\MSVC\14.44.35207\include\vector
; File C:\IAGOS\server\v18\Source\Source\_Common\Exchange.cpp
;	COMDAT ?ResultExchange@CExchange@@QAEHPAVCUser@@HH@Z
_TEXT	SEGMENT
$T2 = -468						; size = 12
_vecRemovePoint$ = -456					; size = 12
_nListNum$GSCopy$1$ = -444				; size = 4
_vecPayItem$ = -440					; size = 12
$T3 = -428						; size = 4
$T4 = -428						; size = 4
_vecRemoveItem$ = -424					; size = 12
$T5 = -412						; size = 4
_nItemNum$1$ = -412					; size = 4
_this$GSCopy$1$ = -408					; size = 4
_nMMIId$GSCopy$1$ = -404				; size = 4
_i$1$ = -400						; size = 4
_i$1$ = -400						; size = 4
tv1141 = -396						; size = 4
tv1146 = -396						; size = 4
_aLogItem$6 = -392					; size = 200
_aLogItem$7 = -392					; size = 200
_itemElem$8 = -192					; size = 176
_itemElem$9 = -192					; size = 176
__$ArrayPad$ = -16					; size = 4
__$EHRec$ = -12						; size = 12
_pUser$ = 8						; size = 4
_nMMIId$ = 12						; size = 4
_nListNum$ = 16						; size = 4
?ResultExchange@CExchange@@QAEHPAVCUser@@HH@Z PROC	; CExchange::ResultExchange, COMDAT
; _this$ = ecx

; 425  : {

  00000	55		 push	 ebp
  00001	8b ec		 mov	 ebp, esp
  00003	6a ff		 push	 -1
  00005	68 00 00 00 00	 push	 __ehhandler$?ResultExchange@CExchange@@QAEHPAVCUser@@HH@Z
  0000a	64 a1 00 00 00
	00		 mov	 eax, DWORD PTR fs:0
  00010	50		 push	 eax
  00011	81 ec c8 01 00
	00		 sub	 esp, 456		; 000001c8H
  00017	a1 00 00 00 00	 mov	 eax, DWORD PTR ___security_cookie
  0001c	33 c5		 xor	 eax, ebp
  0001e	89 45 f0	 mov	 DWORD PTR __$ArrayPad$[ebp], eax
  00021	56		 push	 esi
  00022	57		 push	 edi
  00023	50		 push	 eax
  00024	8d 45 f4	 lea	 eax, DWORD PTR __$EHRec$[ebp]
  00027	64 a3 00 00 00
	00		 mov	 DWORD PTR fs:0, eax
  0002d	8b c1		 mov	 eax, ecx
  0002f	89 85 68 fe ff
	ff		 mov	 DWORD PTR _this$GSCopy$1$[ebp], eax
  00035	8b 4d 0c	 mov	 ecx, DWORD PTR _nMMIId$[ebp]
  00038	8b 75 10	 mov	 esi, DWORD PTR _nListNum$[ebp]
  0003b	8b 7d 08	 mov	 edi, DWORD PTR _pUser$[ebp]
  0003e	89 8d 6c fe ff
	ff		 mov	 DWORD PTR _nMMIId$GSCopy$1$[ebp], ecx

; 426  : 	PSETLIST pSetList = FindExchange( nMMIId );

  00044	51		 push	 ecx
  00045	8b c8		 mov	 ecx, eax
  00047	89 b5 44 fe ff
	ff		 mov	 DWORD PTR _nListNum$GSCopy$1$[ebp], esi
  0004d	e8 00 00 00 00	 call	 ?FindExchange@CExchange@@QAEPAU__SETLIST@1@H@Z ; CExchange::FindExchange

; 427  : 	if( !pSetList )

  00052	85 c0		 test	 eax, eax
  00054	0f 84 4b 06 00
	00		 je	 $LN16@ResultExch
; File C:\Program Files\Microsoft Visual Studio\2022\Professional\VC\Tools\MSVC\14.44.35207\include\vector

; 1915 :         return static_cast<size_type>(_My_data._Mylast - _My_data._Myfirst);

  0005a	8b 48 10	 mov	 ecx, DWORD PTR [eax+16]
  0005d	2b 48 0c	 sub	 ecx, DWORD PTR [eax+12]
  00060	b8 67 66 66 66	 mov	 eax, 1717986919		; 66666667H
  00065	f7 e9		 imul	 ecx
  00067	c1 fa 05	 sar	 edx, 5
  0006a	8b c2		 mov	 eax, edx
  0006c	c1 e8 1f	 shr	 eax, 31			; 0000001fH
; File C:\IAGOS\server\v18\Source\Source\_Common\Exchange.cpp

; 430  : 	if( nListNum > (int)( pSetList->vecSet.size()-1 ) || nListNum < 0 )

  0006f	48		 dec	 eax
  00070	03 c2		 add	 eax, edx
  00072	3b f0		 cmp	 esi, eax
  00074	0f 8f 2b 06 00
	00		 jg	 $LN16@ResultExch
  0007a	85 f6		 test	 esi, esi
  0007c	0f 88 23 06 00
	00		 js	 $LN16@ResultExch

; 432  : 	
; 433  : 	// Á¶°Ç şń±ł
; 434  : 	if( !CheckCondition( pUser, nMMIId, nListNum ) )

  00082	8b 8d 68 fe ff
	ff		 mov	 ecx, DWORD PTR _this$GSCopy$1$[ebp]
  00088	56		 push	 esi
  00089	ff b5 6c fe ff
	ff		 push	 DWORD PTR _nMMIId$GSCopy$1$[ebp]
  0008f	57		 push	 edi
  00090	e8 00 00 00 00	 call	 ?CheckCondition@CExchange@@QAEHPAVCUser@@HH@Z ; CExchange::CheckCondition
  00095	85 c0		 test	 eax, eax
  00097	75 0a		 jne	 SHORT $LN17@ResultExch

; 435  : 		return EXCHANGE_CONDITION_FAILED;

  00099	b8 03 00 00 00	 mov	 eax, 3
  0009e	e9 07 06 00 00	 jmp	 $LN1@ResultExch
$LN17@ResultExch:

; 436  : 	
; 437  : 	vector<__ITEM> vecRemoveItem = GetRemoveItemList( nMMIId, nListNum );

  000a3	8b 8d 68 fe ff
	ff		 mov	 ecx, DWORD PTR _this$GSCopy$1$[ebp]
  000a9	8d 85 58 fe ff
	ff		 lea	 eax, DWORD PTR _vecRemoveItem$[ebp]
  000af	56		 push	 esi
  000b0	ff b5 6c fe ff
	ff		 push	 DWORD PTR _nMMIId$GSCopy$1$[ebp]
  000b6	50		 push	 eax
  000b7	e8 00 00 00 00	 call	 ?GetRemoveItemList@CExchange@@QAE?AV?$vector@U__ITEM@CExchange@@V?$allocator@U__ITEM@CExchange@@@std@@@std@@HH@Z ; CExchange::GetRemoveItemList

; 438  : #if __VER >= 15 // __CAMPUS
; 439  : 	vector<__POINT> vecRemovePoint = GetRemovePointList( nMMIId, nListNum );

  000bc	8b 8d 68 fe ff
	ff		 mov	 ecx, DWORD PTR _this$GSCopy$1$[ebp]
  000c2	8d 85 38 fe ff
	ff		 lea	 eax, DWORD PTR _vecRemovePoint$[ebp]
  000c8	56		 push	 esi
  000c9	ff b5 6c fe ff
	ff		 push	 DWORD PTR _nMMIId$GSCopy$1$[ebp]
  000cf	c7 45 fc 00 00
	00 00		 mov	 DWORD PTR __$EHRec$[ebp+8], 0
  000d6	50		 push	 eax
  000d7	e8 00 00 00 00	 call	 ?GetRemovePointList@CExchange@@QAE?AV?$vector@U__POINT@CExchange@@V?$allocator@U__POINT@CExchange@@@std@@@std@@HH@Z ; CExchange::GetRemovePointList

; 440  : #endif // __CAMPUS
; 441  : 	vector<__ITEM> vecPayItem = GetPayItemList( nMMIId, nListNum );

  000dc	8b 8d 68 fe ff
	ff		 mov	 ecx, DWORD PTR _this$GSCopy$1$[ebp]
  000e2	8d 85 48 fe ff
	ff		 lea	 eax, DWORD PTR _vecPayItem$[ebp]
  000e8	56		 push	 esi
  000e9	ff b5 6c fe ff
	ff		 push	 DWORD PTR _nMMIId$GSCopy$1$[ebp]
  000ef	c6 45 fc 01	 mov	 BYTE PTR __$EHRec$[ebp+8], 1
  000f3	50		 push	 eax
  000f4	e8 00 00 00 00	 call	 ?GetPayItemList@CExchange@@QAE?AV?$vector@U__ITEM@CExchange@@V?$allocator@U__ITEM@CExchange@@@std@@@std@@HH@Z ; CExchange::GetPayItemList

; 442  : 	
; 443  : 	// ŔÎşĄĹä¸® °ř°Ł °Ë»ç
; 444  : 	if( IsFull( pUser, vecRemoveItem, vecPayItem ) )

  000f9	83 ec 0c	 sub	 esp, 12			; 0000000cH
  000fc	c6 45 fc 02	 mov	 BYTE PTR __$EHRec$[ebp+8], 2
  00100	8d 85 48 fe ff
	ff		 lea	 eax, DWORD PTR _vecPayItem$[ebp]
  00106	89 a5 54 fe ff
	ff		 mov	 DWORD PTR $T3[ebp], esp
  0010c	8b cc		 mov	 ecx, esp
  0010e	50		 push	 eax
  0010f	e8 00 00 00 00	 call	 ??0?$vector@U__ITEM@CExchange@@V?$allocator@U__ITEM@CExchange@@@std@@@std@@QAE@ABV01@@Z ; std::vector<CExchange::__ITEM,std::allocator<CExchange::__ITEM> >::vector<CExchange::__ITEM,std::allocator<CExchange::__ITEM> >
  00114	83 ec 0c	 sub	 esp, 12			; 0000000cH
  00117	c6 45 fc 03	 mov	 BYTE PTR __$EHRec$[ebp+8], 3
  0011b	8d 85 58 fe ff
	ff		 lea	 eax, DWORD PTR _vecRemoveItem$[ebp]
  00121	8b cc		 mov	 ecx, esp
  00123	50		 push	 eax
  00124	e8 00 00 00 00	 call	 ??0?$vector@U__ITEM@CExchange@@V?$allocator@U__ITEM@CExchange@@@std@@@std@@QAE@ABV01@@Z ; std::vector<CExchange::__ITEM,std::allocator<CExchange::__ITEM> >::vector<CExchange::__ITEM,std::allocator<CExchange::__ITEM> >
  00129	8b 8d 68 fe ff
	ff		 mov	 ecx, DWORD PTR _this$GSCopy$1$[ebp]
  0012f	57		 push	 edi
  00130	c6 45 fc 02	 mov	 BYTE PTR __$EHRec$[ebp+8], 2
  00134	e8 00 00 00 00	 call	 ?IsFull@CExchange@@QAEHPAVCUser@@V?$vector@U__ITEM@CExchange@@V?$allocator@U__ITEM@CExchange@@@std@@@std@@1@Z ; CExchange::IsFull
  00139	85 c0		 test	 eax, eax
  0013b	74 0a		 je	 SHORT $LN18@ResultExch
  0013d	be 02 00 00 00	 mov	 esi, 2
  00142	e9 39 05 00 00	 jmp	 $LN38@ResultExch
$LN18@ResultExch:
; File C:\Program Files\Microsoft Visual Studio\2022\Professional\VC\Tools\MSVC\14.44.35207\include\vector

; 1915 :         return static_cast<size_type>(_My_data._Mylast - _My_data._Myfirst);

  00147	8b 85 5c fe ff
	ff		 mov	 eax, DWORD PTR _vecRemoveItem$[ebp+4]
  0014d	8b 8d 58 fe ff
	ff		 mov	 ecx, DWORD PTR _vecRemoveItem$[ebp]
  00153	2b c1		 sub	 eax, ecx
; File C:\IAGOS\server\v18\Source\Source\_Common\Exchange.cpp

; 448  : 	for( int i=0; i<(int)( vecRemoveItem.size() ); i++ )

  00155	c7 85 70 fe ff
	ff 00 00 00 00	 mov	 DWORD PTR _i$1$[ebp], 0
  0015f	a9 f0 ff ff ff	 test	 eax, -16		; fffffff0H
  00164	0f 8e 85 01 00
	00		 jle	 $LN3@ResultExch
  0016a	33 f6		 xor	 esi, esi
  0016c	89 b5 74 fe ff
	ff		 mov	 DWORD PTR tv1146[ebp], esi
$LL4@ResultExch:

; 449  : 	{
; 450  : 		if( vecRemoveItem[i].dwItemId == II_GOLD_SEED1 )

  00172	83 3c 0e 0c	 cmp	 DWORD PTR [esi+ecx], 12	; 0000000cH
  00176	8d 04 0e	 lea	 eax, DWORD PTR [esi+ecx]
  00179	8b 40 04	 mov	 eax, DWORD PTR [eax+4]
  0017c	75 30		 jne	 SHORT $LN19@ResultExch

; 451  : 		{
; 452  : 			pUser->AddGold( -vecRemoveItem[i].nItemNum );

  0017e	6a 01		 push	 1
  00180	f7 d8		 neg	 eax
  00182	8b cf		 mov	 ecx, edi
  00184	50		 push	 eax
  00185	e8 00 00 00 00	 call	 ?AddGold@CMover@@QAEHHH@Z ; CMover::AddGold

; 453  : 			g_DPSrvr.PutPenyaLog( pUser, "=", "EXCHANGE_REMOVE", vecRemoveItem[i].nItemNum );

  0018a	8b 85 58 fe ff
	ff		 mov	 eax, DWORD PTR _vecRemoveItem$[ebp]
  00190	b9 00 00 00 00	 mov	 ecx, OFFSET ?g_DPSrvr@@3VCDPSrvr@@A ; g_DPSrvr
  00195	ff 74 06 04	 push	 DWORD PTR [esi+eax+4]
  00199	68 00 00 00 00	 push	 OFFSET ??_C@_0BA@PKEMALAC@EXCHANGE_REMOVE@
  0019e	68 00 00 00 00	 push	 OFFSET ??_C@_01NEMOKFLO@?$DN@
  001a3	57		 push	 edi
  001a4	e8 00 00 00 00	 call	 ?PutPenyaLog@CDPSrvr@@QAEXPAVCUser@@PBD1H@Z ; CDPSrvr::PutPenyaLog

; 454  : 		}

  001a9	e9 12 01 00 00	 jmp	 $LN2@ResultExch
$LN19@ResultExch:

; 455  : 		else
; 456  : 		{
; 457  : 			int nItemNum = vecRemoveItem[i].nItemNum;

  001ae	89 85 64 fe ff
	ff		 mov	 DWORD PTR _nItemNum$1$[ebp], eax

; 458  : 			if( nItemNum > 0x7fff )

  001b4	3d ff 7f 00 00	 cmp	 eax, 32767		; 00007fffH
  001b9	7e 51		 jle	 SHORT $LN6@ResultExch

; 455  : 		else
; 456  : 		{
; 457  : 			int nItemNum = vecRemoveItem[i].nItemNum;

  001bb	8d b0 00 80 ff
	ff		 lea	 esi, DWORD PTR [eax-32768]
  001c1	b8 05 00 02 00	 mov	 eax, 131077		; 00020005H
  001c6	f7 e6		 mul	 esi
  001c8	2b f2		 sub	 esi, edx
  001ca	d1 ee		 shr	 esi, 1
  001cc	03 f2		 add	 esi, edx
  001ce	c1 ee 0e	 shr	 esi, 14			; 0000000eH
  001d1	46		 inc	 esi
  001d2	69 c6 01 80 ff
	ff		 imul	 eax, esi, -32767
  001d8	01 85 64 fe ff
	ff		 add	 DWORD PTR _nItemNum$1$[ebp], eax
  001de	66 90		 npad	 2
$LL7@ResultExch:

; 459  : 			{
; 460  : 				for( ; nItemNum > 0x7fff; )
; 461  : 				{
; 462  : 					pUser->RemoveItemA( vecRemoveItem[i].dwItemId, 0x7fff );

  001e0	8b 85 74 fe ff
	ff		 mov	 eax, DWORD PTR tv1146[ebp]
  001e6	68 ff 7f 00 00	 push	 32767			; 00007fffH
  001eb	ff 34 08	 push	 DWORD PTR [eax+ecx]
  001ee	8b cf		 mov	 ecx, edi
  001f0	e8 00 00 00 00	 call	 ?RemoveItemA@CMover@@QAEHKF@Z ; CMover::RemoveItemA
  001f5	8b 8d 58 fe ff
	ff		 mov	 ecx, DWORD PTR _vecRemoveItem$[ebp]
  001fb	83 ee 01	 sub	 esi, 1
  001fe	75 e0		 jne	 SHORT $LL7@ResultExch
  00200	8b b5 74 fe ff
	ff		 mov	 esi, DWORD PTR tv1146[ebp]
  00206	8b 85 64 fe ff
	ff		 mov	 eax, DWORD PTR _nItemNum$1$[ebp]
$LN6@ResultExch:

; 463  : 					nItemNum -= 0x7fff;
; 464  : 				}
; 465  : 			}
; 466  : 			int nRemove = pUser->RemoveItemA( vecRemoveItem[i].dwItemId, nItemNum );

  0020c	50		 push	 eax
  0020d	ff 34 0e	 push	 DWORD PTR [esi+ecx]
  00210	8b cf		 mov	 ecx, edi
  00212	e8 00 00 00 00	 call	 ?RemoveItemA@CMover@@QAEHKF@Z ; CMover::RemoveItemA

; 467  : 		
; 468  : 			if( nRemove != 0 )

  00217	85 c0		 test	 eax, eax
  00219	0f 84 a1 00 00
	00		 je	 $LN2@ResultExch

; 469  : 			{
; 470  : 				CItemElem itemElem;

  0021f	8d 8d 40 ff ff
	ff		 lea	 ecx, DWORD PTR _itemElem$8[ebp]
  00225	e8 00 00 00 00	 call	 ??0CItemElem@@QAE@XZ	; CItemElem::CItemElem

; 471  : 				itemElem.m_dwItemId = vecRemoveItem[i].dwItemId;

  0022a	8b 8d 58 fe ff
	ff		 mov	 ecx, DWORD PTR _vecRemoveItem$[ebp]
  00230	c6 45 fc 04	 mov	 BYTE PTR __$EHRec$[ebp+8], 4
  00234	8b 04 31	 mov	 eax, DWORD PTR [ecx+esi]
  00237	89 85 4c ff ff
	ff		 mov	 DWORD PTR _itemElem$8[ebp+12], eax

; 472  : 				itemElem.m_nItemNum	= vecRemoveItem[i].nItemNum;

  0023d	66 8b 44 31 04	 mov	 ax, WORD PTR [ecx+esi+4]

; 473  : 				
; 474  : 				LogItemInfo aLogItem;

  00242	8d 8d 78 fe ff
	ff		 lea	 ecx, DWORD PTR _aLogItem$6[ebp]
  00248	66 89 45 b4	 mov	 WORD PTR _itemElem$8[ebp+116], ax
  0024c	e8 00 00 00 00	 call	 ??0_LogItemInfo@@QAE@XZ	; _LogItemInfo::_LogItemInfo

; 475  : 				aLogItem.Action = "=";
; 476  : 				aLogItem.SendName = pUser->GetName();

  00251	6a 00		 push	 0
  00253	8b cf		 mov	 ecx, edi
  00255	c7 85 78 fe ff
	ff 00 00 00 00	 mov	 DWORD PTR _aLogItem$6[ebp], OFFSET ??_C@_01NEMOKFLO@?$DN@
  0025f	e8 00 00 00 00	 call	 ?GetName@CMover@@QAEPBDH@Z ; CMover::GetName
  00264	89 85 7c fe ff
	ff		 mov	 DWORD PTR _aLogItem$6[ebp+4], eax

; 477  : 				aLogItem.RecvName = "EXCHANGE_REMOVE";
; 478  : 				aLogItem.WorldId = pUser->GetWorld()->GetID();
; 479  : 				aLogItem.Gold = aLogItem.Gold2 = pUser->GetGold();
; 480  : 				g_DPSrvr.OnLogItem( aLogItem, &itemElem, itemElem.m_nItemNum );	

  0026a	b9 00 00 00 00	 mov	 ecx, OFFSET ?g_DPSrvr@@3VCDPSrvr@@A ; g_DPSrvr
  0026f	8b 87 6c 01 00
	00		 mov	 eax, DWORD PTR [edi+364]
  00275	c7 85 80 fe ff
	ff 00 00 00 00	 mov	 DWORD PTR _aLogItem$6[ebp+8], OFFSET ??_C@_0BA@PKEMALAC@EXCHANGE_REMOVE@
  0027f	8b 00		 mov	 eax, DWORD PTR [eax]
  00281	89 85 84 fe ff
	ff		 mov	 DWORD PTR _aLogItem$6[ebp+12], eax
  00287	8b 87 e0 14 00
	00		 mov	 eax, DWORD PTR [edi+5344]
  0028d	89 85 8c fe ff
	ff		 mov	 DWORD PTR _aLogItem$6[ebp+20], eax
  00293	89 85 88 fe ff
	ff		 mov	 DWORD PTR _aLogItem$6[ebp+16], eax
  00299	0f bf 45 b4	 movsx	 eax, WORD PTR _itemElem$8[ebp+116]
  0029d	50		 push	 eax
  0029e	8d 85 40 ff ff
	ff		 lea	 eax, DWORD PTR _itemElem$8[ebp]
  002a4	50		 push	 eax
  002a5	8d 85 78 fe ff
	ff		 lea	 eax, DWORD PTR _aLogItem$6[ebp]
  002ab	50		 push	 eax
  002ac	e8 00 00 00 00	 call	 ?OnLogItem@CDPSrvr@@QAEXAAU_LogItemInfo@@PAVCItemElem@@H@Z ; CDPSrvr::OnLogItem

; 481  : 			}

  002b1	8d 8d 40 ff ff
	ff		 lea	 ecx, DWORD PTR _itemElem$8[ebp]
  002b7	c6 45 fc 02	 mov	 BYTE PTR __$EHRec$[ebp+8], 2
  002bb	e8 00 00 00 00	 call	 ??1CItemElem@@UAE@XZ	; CItemElem::~CItemElem
$LN2@ResultExch:
; File C:\Program Files\Microsoft Visual Studio\2022\Professional\VC\Tools\MSVC\14.44.35207\include\vector

; 1915 :         return static_cast<size_type>(_My_data._Mylast - _My_data._Myfirst);

  002c0	8b 85 5c fe ff
	ff		 mov	 eax, DWORD PTR _vecRemoveItem$[ebp+4]
; File C:\IAGOS\server\v18\Source\Source\_Common\Exchange.cpp

; 448  : 	for( int i=0; i<(int)( vecRemoveItem.size() ); i++ )

  002c6	83 c6 10	 add	 esi, 16			; 00000010H
  002c9	8b 95 70 fe ff
	ff		 mov	 edx, DWORD PTR _i$1$[ebp]
; File C:\Program Files\Microsoft Visual Studio\2022\Professional\VC\Tools\MSVC\14.44.35207\include\vector

; 1915 :         return static_cast<size_type>(_My_data._Mylast - _My_data._Myfirst);

  002cf	8b 8d 58 fe ff
	ff		 mov	 ecx, DWORD PTR _vecRemoveItem$[ebp]
; File C:\IAGOS\server\v18\Source\Source\_Common\Exchange.cpp

; 448  : 	for( int i=0; i<(int)( vecRemoveItem.size() ); i++ )

  002d5	42		 inc	 edx
; File C:\Program Files\Microsoft Visual Studio\2022\Professional\VC\Tools\MSVC\14.44.35207\include\vector

; 1915 :         return static_cast<size_type>(_My_data._Mylast - _My_data._Myfirst);

  002d6	2b c1		 sub	 eax, ecx
; File C:\IAGOS\server\v18\Source\Source\_Common\Exchange.cpp

; 448  : 	for( int i=0; i<(int)( vecRemoveItem.size() ); i++ )

  002d8	89 95 70 fe ff
	ff		 mov	 DWORD PTR _i$1$[ebp], edx
; File C:\Program Files\Microsoft Visual Studio\2022\Professional\VC\Tools\MSVC\14.44.35207\include\vector

; 1915 :         return static_cast<size_type>(_My_data._Mylast - _My_data._Myfirst);

  002de	c1 f8 04	 sar	 eax, 4
; File C:\IAGOS\server\v18\Source\Source\_Common\Exchange.cpp

; 448  : 	for( int i=0; i<(int)( vecRemoveItem.size() ); i++ )

  002e1	89 b5 74 fe ff
	ff		 mov	 DWORD PTR tv1146[ebp], esi
  002e7	3b d0		 cmp	 edx, eax
  002e9	0f 8c 83 fe ff
	ff		 jl	 $LL4@ResultExch
$LN3@ResultExch:
; File C:\Program Files\Microsoft Visual Studio\2022\Professional\VC\Tools\MSVC\14.44.35207\include\vector

; 1915 :         return static_cast<size_type>(_My_data._Mylast - _My_data._Myfirst);

  002ef	8b 95 3c fe ff
	ff		 mov	 edx, DWORD PTR _vecRemovePoint$[ebp+4]
; File C:\IAGOS\server\v18\Source\Source\_Common\Exchange.cpp

; 486  : 	for( int i = 0; i < (int)( vecRemovePoint.size() ); ++i )

  002f5	33 f6		 xor	 esi, esi
; File C:\Program Files\Microsoft Visual Studio\2022\Professional\VC\Tools\MSVC\14.44.35207\include\vector

; 1915 :         return static_cast<size_type>(_My_data._Mylast - _My_data._Myfirst);

  002f7	8b 8d 38 fe ff
	ff		 mov	 ecx, DWORD PTR _vecRemovePoint$[ebp]
  002fd	8b c2		 mov	 eax, edx
  002ff	2b c1		 sub	 eax, ecx
; File C:\IAGOS\server\v18\Source\Source\_Common\Exchange.cpp

; 486  : 	for( int i = 0; i < (int)( vecRemovePoint.size() ); ++i )

  00301	a9 f8 ff ff ff	 test	 eax, -8			; fffffff8H
  00306	7e 40		 jle	 SHORT $LN9@ResultExch
  00308	0f 1f 84 00 00
	00 00 00	 npad	 8
$LL10@ResultExch:

; 487  : 	{
; 488  : 		if( vecRemovePoint[i].nType == POINTTYPE_CAMPUS )

  00310	80 3c f1 01	 cmp	 BYTE PTR [ecx+esi*8], 1
  00314	8d 04 f1	 lea	 eax, DWORD PTR [ecx+esi*8]
  00317	75 23		 jne	 SHORT $LN8@ResultExch

; 489  : 			g_dpDBClient.SendUpdateCampusPoint( pUser->m_idPlayer, vecRemovePoint[i].nPoint, FALSE, 'E' );

  00319	6a 45		 push	 69			; 00000045H
  0031b	6a 00		 push	 0
  0031d	ff 70 04	 push	 DWORD PTR [eax+4]
  00320	b9 00 00 00 00	 mov	 ecx, OFFSET ?g_dpDBClient@@3VCDPDatabaseClient@@A ; g_dpDBClient
  00325	ff b7 34 02 00
	00		 push	 DWORD PTR [edi+564]
  0032b	e8 00 00 00 00	 call	 ?SendUpdateCampusPoint@CDPDatabaseClient@@QAEXKHHD@Z ; CDPDatabaseClient::SendUpdateCampusPoint
  00330	8b 95 3c fe ff
	ff		 mov	 edx, DWORD PTR _vecRemovePoint$[ebp+4]
  00336	8b 8d 38 fe ff
	ff		 mov	 ecx, DWORD PTR _vecRemovePoint$[ebp]
$LN8@ResultExch:
; File C:\Program Files\Microsoft Visual Studio\2022\Professional\VC\Tools\MSVC\14.44.35207\include\vector

; 1915 :         return static_cast<size_type>(_My_data._Mylast - _My_data._Myfirst);

  0033c	8b c2		 mov	 eax, edx
; File C:\IAGOS\server\v18\Source\Source\_Common\Exchange.cpp

; 486  : 	for( int i = 0; i < (int)( vecRemovePoint.size() ); ++i )

  0033e	46		 inc	 esi
; File C:\Program Files\Microsoft Visual Studio\2022\Professional\VC\Tools\MSVC\14.44.35207\include\vector

; 1915 :         return static_cast<size_type>(_My_data._Mylast - _My_data._Myfirst);

  0033f	2b c1		 sub	 eax, ecx
  00341	c1 f8 03	 sar	 eax, 3
; File C:\IAGOS\server\v18\Source\Source\_Common\Exchange.cpp

; 486  : 	for( int i = 0; i < (int)( vecRemovePoint.size() ); ++i )

  00344	3b f0		 cmp	 esi, eax
  00346	7c c8		 jl	 SHORT $LL10@ResultExch
$LN9@ResultExch:
; File C:\Program Files\Microsoft Visual Studio\2022\Professional\VC\Tools\MSVC\14.44.35207\include\vector

; 1915 :         return static_cast<size_type>(_My_data._Mylast - _My_data._Myfirst);

  00348	8b 85 4c fe ff
	ff		 mov	 eax, DWORD PTR _vecPayItem$[ebp+4]
  0034e	2b 85 48 fe ff
	ff		 sub	 eax, DWORD PTR _vecPayItem$[ebp]
; File C:\IAGOS\server\v18\Source\Source\_Common\Exchange.cpp

; 494  : 	for( int i=0; i<(int)( vecPayItem.size() ); i++ )

  00354	c7 85 70 fe ff
	ff 00 00 00 00	 mov	 DWORD PTR _i$1$[ebp], 0
  0035e	a9 f0 ff ff ff	 test	 eax, -16		; fffffff0H
  00363	0f 8e 15 03 00
	00		 jle	 $LN12@ResultExch
  00369	33 f6		 xor	 esi, esi
  0036b	89 b5 74 fe ff
	ff		 mov	 DWORD PTR tv1141[ebp], esi
$LL13@ResultExch:

; 495  : 	{
; 496  : 		CItemElem itemElem;

  00371	8d 8d 40 ff ff
	ff		 lea	 ecx, DWORD PTR _itemElem$9[ebp]
  00377	e8 00 00 00 00	 call	 ??0CItemElem@@QAE@XZ	; CItemElem::CItemElem

; 497  : 		itemElem.m_dwItemId = vecPayItem[i].dwItemId;

  0037c	8b 8d 48 fe ff
	ff		 mov	 ecx, DWORD PTR _vecPayItem$[ebp]
  00382	c6 45 fc 05	 mov	 BYTE PTR __$EHRec$[ebp+8], 5
  00386	8b 04 31	 mov	 eax, DWORD PTR [ecx+esi]
  00389	89 85 4c ff ff
	ff		 mov	 DWORD PTR _itemElem$9[ebp+12], eax

; 498  : 		itemElem.m_nItemNum	= vecPayItem[i].nItemNum;

  0038f	66 8b 44 31 04	 mov	 ax, WORD PTR [ecx+esi+4]
  00394	66 89 45 b4	 mov	 WORD PTR _itemElem$9[ebp+116], ax

; 499  : 		itemElem.m_byFlag = vecPayItem[i].byFalg;

  00398	8a 44 31 0c	 mov	 al, BYTE PTR [ecx+esi+12]

; 500  : 		itemElem.SetSerialNumber();

  0039c	8d 8d 40 ff ff
	ff		 lea	 ecx, DWORD PTR _itemElem$9[ebp]
  003a2	88 45 b6	 mov	 BYTE PTR _itemElem$9[ebp+118], al
  003a5	e8 00 00 00 00	 call	 ?SetSerialNumber@CItemBase@@QAEXXZ ; CItemBase::SetSerialNumber
; File C:\IAGOS\server\v18\Source\Source\_Common\Project.h

; 1389 : 	VERIFY_RANGE_ASSERT( nIndex, 0, m_aPropItem.GetSize(), "GetItemProp range_error", NULL );

  003aa	8b 8d 4c ff ff
	ff		 mov	 ecx, DWORD PTR _itemElem$9[ebp+12]
  003b0	a1 40 02 00 00	 mov	 eax, DWORD PTR ?prj@@3VCProject@@A+576
  003b5	85 c9		 test	 ecx, ecx
  003b7	78 10		 js	 SHORT $LN64@ResultExch
  003b9	3b c8		 cmp	 ecx, eax
  003bb	7d 0c		 jge	 SHORT $LN64@ResultExch
; File C:\IAGOS\server\v18\Source\Source\_Common\data.h

; 270  : 	if( dwIndex >= (DWORD)m_nMaxIndex )

  003bd	73 20		 jae	 SHORT $LN176@ResultExch

; 271  : 		return NULL;
; 272  : 	return (T*) m_apOffset[ dwIndex ];

  003bf	a1 30 02 00 00	 mov	 eax, DWORD PTR ?prj@@3VCProject@@A+560
  003c4	8b 04 88	 mov	 eax, DWORD PTR [eax+ecx*4]
; File C:\IAGOS\server\v18\Source\Source\_Common\Project.h

; 1390 : 	return m_aPropItem.GetAt( nIndex ); 

  003c7	eb 18		 jmp	 SHORT $LN59@ResultExch
$LN64@ResultExch:

; 579  : 	LPCTSTR szErr = Error( _T( "%s min:%d, max:%d, index:%d" ), szMsg, nMin, nMax, nIndex ); 

  003c9	51		 push	 ecx
  003ca	50		 push	 eax
  003cb	6a 00		 push	 0
  003cd	68 00 00 00 00	 push	 OFFSET ??_C@_0BI@BEIFNGEL@GetItemProp?5range_error@
  003d2	68 00 00 00 00	 push	 OFFSET ??_C@_0BM@HMFGHCP@?$CFs?5min?3?$CFd?0?5max?3?$CFd?0?5index?3?$CFd@
  003d7	e8 00 00 00 00	 call	 ?Error@@YAPBDPBDZZ	; Error
  003dc	83 c4 14	 add	 esp, 20			; 00000014H
$LN176@ResultExch:
; File C:\IAGOS\server\v18\Source\Source\_Common\Exchange.cpp

; 501  : 		itemElem.m_bCharged = itemElem.GetProp()->bCharged;

  003df	33 c0		 xor	 eax, eax
$LN59@ResultExch:
  003e1	8b 80 ec 00 00
	00		 mov	 eax, DWORD PTR [eax+236]

; 502  : 		if( pUser->CreateItem( &itemElem ) )

  003e7	8b cf		 mov	 ecx, edi
  003e9	6a 00		 push	 0
  003eb	6a 00		 push	 0
  003ed	89 45 e4	 mov	 DWORD PTR _itemElem$9[ebp+164], eax
  003f0	8d 85 40 ff ff
	ff		 lea	 eax, DWORD PTR _itemElem$9[ebp]
  003f6	6a 00		 push	 0
  003f8	50		 push	 eax
  003f9	e8 00 00 00 00	 call	 ?CreateItem@CMover@@QAEHPAVCItemBase@@PAEPAFE@Z ; CMover::CreateItem
  003fe	85 c0		 test	 eax, eax
  00400	0f 84 dc 01 00
	00		 je	 $LN24@ResultExch
  00406	0f 57 c0	 xorps	 xmm0, xmm0
; File C:\IAGOS\server\v18\Source\Source\_network\CmnHdr.h

; 638  : 		SendName = _T("");

  00409	c7 85 7c fe ff
	ff 00 00 00 00	 mov	 DWORD PTR _aLogItem$7[ebp+4], OFFSET ??_C@_00CNPNBAHC@@

; 645  : 		::memset( szItemName, 0, sizeof(szItemName) );

  00413	0f 11 85 9c fe
	ff ff		 movups	 XMMWORD PTR _aLogItem$7[ebp+36], xmm0

; 683  : 		wPetEnergy = 0;

  0041a	33 c0		 xor	 eax, eax
; File C:\IAGOS\server\v18\Source\Source\_Common\Exchange.cpp

; 506  : 			aLogItem.SendName = pUser->GetName();

  0041c	8b cf		 mov	 ecx, edi
; File C:\IAGOS\server\v18\Source\Source\_network\CmnHdr.h

; 645  : 		::memset( szItemName, 0, sizeof(szItemName) );

  0041e	0f 11 85 ac fe
	ff ff		 movups	 XMMWORD PTR _aLogItem$7[ebp+52], xmm0
; File C:\IAGOS\server\v18\Source\Source\_Common\Exchange.cpp

; 506  : 			aLogItem.SendName = pUser->GetName();

  00425	50		 push	 eax
; File C:\IAGOS\server\v18\Source\Source\_network\CmnHdr.h

; 649  : 		nSlot = 100;

  00426	0f 28 05 00 00
	00 00		 movaps	 xmm0, XMMWORD PTR __xmm@00000000000000000000006400000064
  0042d	0f 11 85 c8 fe
	ff ff		 movups	 XMMWORD PTR _aLogItem$7[ebp+80], xmm0
  00434	c7 85 80 fe ff
	ff 00 00 00 00	 mov	 DWORD PTR _aLogItem$7[ebp+8], OFFSET ??_C@_00CNPNBAHC@@
  0043e	0f 57 c0	 xorps	 xmm0, xmm0

; 639  : 		RecvName = _T("");
; 640  : 		WorldId = Gold = Gold2 = 0;

  00441	c7 85 8c fe ff
	ff 00 00 00 00	 mov	 DWORD PTR _aLogItem$7[ebp+20], 0
  0044b	c7 85 88 fe ff
	ff 00 00 00 00	 mov	 DWORD PTR _aLogItem$7[ebp+16], 0
  00455	c7 85 84 fe ff
	ff 00 00 00 00	 mov	 DWORD PTR _aLogItem$7[ebp+12], 0

; 641  : 		Negudo = 0;

  0045f	c7 85 94 fe ff
	ff 00 00 00 00	 mov	 DWORD PTR _aLogItem$7[ebp+28], 0

; 642  : 		MaxNegudo = 0;

  00469	c7 85 98 fe ff
	ff 00 00 00 00	 mov	 DWORD PTR _aLogItem$7[ebp+32], 0

; 643  : 		ItemNo = 0;

  00473	c7 85 90 fe ff
	ff 00 00 00 00	 mov	 DWORD PTR _aLogItem$7[ebp+24], 0

; 646  : 		itemNumber = 0;

  0047d	c7 85 bc fe ff
	ff 00 00 00 00	 mov	 DWORD PTR _aLogItem$7[ebp+68], 0

; 647  : 		nAbilityOption = 0;

  00487	c7 85 c0 fe ff
	ff 00 00 00 00	 mov	 DWORD PTR _aLogItem$7[ebp+72], 0

; 648  : 		Gold_1 = 0;

  00491	c7 85 c4 fe ff
	ff 00 00 00 00	 mov	 DWORD PTR _aLogItem$7[ebp+76], 0

; 650  : 		nSlot1 = 100;
; 651  : 		nItemResist = 0;
; 652  : 		nResistAbilityOption = 0;
; 653  : 		m_bCharged = FALSE;

  0049b	c7 85 d8 fe ff
	ff 00 00 00 00	 mov	 DWORD PTR _aLogItem$7[ebp+96], 0

; 654  : 		m_dwKeepTime = 0;

  004a5	c7 85 dc fe ff
	ff 00 00 00 00	 mov	 DWORD PTR _aLogItem$7[ebp+100], 0

; 655  : #if __VER >= 11 // __SYS_IDENTIFY
; 656  : 		m_iRandomOptItemId = 0;

  004af	66 0f 13 85 e0
	fe ff ff	 movlpd	 QWORD PTR _aLogItem$7[ebp+104], xmm0

; 657  : #else	//__SYS_IDENTIFY
; 658  : 		m_nRandomOptItemId = 0;
; 659  : #endif	// __SYS_IDENTIFY
; 660  : #if __VER >= 12 // __EXT_PIERCING
; 661  : 		nPiercedSize = 0;

  004b7	c7 85 e8 fe ff
	ff 00 00 00 00	 mov	 DWORD PTR _aLogItem$7[ebp+112], 0

; 662  : //		for( int i=0; i<MAX_PIERCING_WEAPON; i++ )
; 663  : //			adwItemId[i] = 0;
; 664  : 		memset( adwItemId, 0, sizeof(adwItemId) );

  004c1	0f 11 85 ec fe
	ff ff		 movups	 XMMWORD PTR _aLogItem$7[ebp+116], xmm0

; 665  : 		nUMPiercedSize = 0;

  004c8	c7 85 14 ff ff
	ff 00 00 00 00	 mov	 DWORD PTR _aLogItem$7[ebp+156], 0
  004d2	0f 11 85 fc fe
	ff ff		 movups	 XMMWORD PTR _aLogItem$7[ebp+132], xmm0

; 666  : //		for( i=0; i<MAX_PIERCING_ULTIMATE; i++ )
; 667  : //	adwUMItemId[i] = 0;
; 668  : 		memset( adwUMItemId, 0, sizeof(adwUMItemId) );

  004d9	c7 85 28 ff ff
	ff 00 00 00 00	 mov	 DWORD PTR _aLogItem$7[ebp+176], 0
  004e3	66 0f d6 85 0c
	ff ff ff	 movq	 QWORD PTR _aLogItem$7[ebp+148], xmm0
  004eb	0f 11 85 18 ff
	ff ff		 movups	 XMMWORD PTR _aLogItem$7[ebp+160], xmm0

; 669  : #else // __EXT_PIERCING
; 670  : 		nPiercedSize = 0;
; 671  : 		adwItemId0 = 0;
; 672  : 		adwItemId1 = 0;
; 673  : 		adwItemId2 = 0;
; 674  : 		adwItemId3 = 0;
; 675  : #if __VER >= 9 // __ULTIMATE
; 676  : 		adwItemId4 = 0;
; 677  : #endif // __ULTIMATE
; 678  : #endif // __EXT_PIERCING
; 679  : #if __VER >= 9 // __PET_0410
; 680  : 		nPetKind = 0;

  004f2	66 c7 85 2c ff
	ff ff 00 00	 mov	 WORD PTR _aLogItem$7[ebp+180], 0

; 681  : 		nPetLevel = 0;
; 682  : 		dwPetExp = 0;

  004fb	c7 85 30 ff ff
	ff 00 00 00 00	 mov	 DWORD PTR _aLogItem$7[ebp+184], 0

; 683  : 		wPetEnergy = 0;

  00505	89 85 34 ff ff
	ff		 mov	 DWORD PTR _aLogItem$7[ebp+188], eax

; 684  : 		wPetLife = 0;
; 685  : 		nPetAL_D = 0;

  0050b	89 85 38 ff ff
	ff		 mov	 DWORD PTR _aLogItem$7[ebp+192], eax

; 686  : 		nPetAL_C = 0;
; 687  : 		nPetAL_B = 0;
; 688  : 		nPetAL_A = 0;
; 689  : 		nPetAL_S = 0;

  00511	88 85 3c ff ff
	ff		 mov	 BYTE PTR _aLogItem$7[ebp+196], al
; File C:\IAGOS\server\v18\Source\Source\_Common\Exchange.cpp

; 505  : 			aLogItem.Action = "=";

  00517	c7 85 78 fe ff
	ff 00 00 00 00	 mov	 DWORD PTR _aLogItem$7[ebp], OFFSET ??_C@_01NEMOKFLO@?$DN@

; 506  : 			aLogItem.SendName = pUser->GetName();

  00521	e8 00 00 00 00	 call	 ?GetName@CMover@@QAEPBDH@Z ; CMover::GetName
  00526	89 85 7c fe ff
	ff		 mov	 DWORD PTR _aLogItem$7[ebp+4], eax

; 507  : 			aLogItem.RecvName = "EXCHANGE_CREATE";
; 508  : 			aLogItem.WorldId = pUser->GetWorld()->GetID();
; 509  : 			aLogItem.Gold = aLogItem.Gold2 = pUser->GetGold();
; 510  : 			g_DPSrvr.OnLogItem( aLogItem, &itemElem, itemElem.m_nItemNum );

  0052c	b9 00 00 00 00	 mov	 ecx, OFFSET ?g_DPSrvr@@3VCDPSrvr@@A ; g_DPSrvr
  00531	8b 87 6c 01 00
	00		 mov	 eax, DWORD PTR [edi+364]
  00537	c7 85 80 fe ff
	ff 00 00 00 00	 mov	 DWORD PTR _aLogItem$7[ebp+8], OFFSET ??_C@_0BA@PGBNEGMH@EXCHANGE_CREATE@
  00541	8b 00		 mov	 eax, DWORD PTR [eax]
  00543	89 85 84 fe ff
	ff		 mov	 DWORD PTR _aLogItem$7[ebp+12], eax
  00549	8b 87 e0 14 00
	00		 mov	 eax, DWORD PTR [edi+5344]
  0054f	89 85 8c fe ff
	ff		 mov	 DWORD PTR _aLogItem$7[ebp+20], eax
  00555	89 85 88 fe ff
	ff		 mov	 DWORD PTR _aLogItem$7[ebp+16], eax
  0055b	0f bf 45 b4	 movsx	 eax, WORD PTR _itemElem$9[ebp+116]
  0055f	50		 push	 eax
  00560	8d 85 40 ff ff
	ff		 lea	 eax, DWORD PTR _itemElem$9[ebp]
  00566	50		 push	 eax
  00567	8d 85 78 fe ff
	ff		 lea	 eax, DWORD PTR _aLogItem$7[ebp]
  0056d	50		 push	 eax
  0056e	e8 00 00 00 00	 call	 ?OnLogItem@CDPSrvr@@QAEXAAU_LogItemInfo@@PAVCItemElem@@H@Z ; CDPSrvr::OnLogItem

; 512  : 			if( GetResultMsg( nMMIId, nListNum ).size() < 2 )

  00573	ff b5 44 fe ff
	ff		 push	 DWORD PTR _nListNum$GSCopy$1$[ebp]
  00579	8b 8d 68 fe ff
	ff		 mov	 ecx, DWORD PTR _this$GSCopy$1$[ebp]
  0057f	8d 85 2c fe ff
	ff		 lea	 eax, DWORD PTR $T2[ebp]
  00585	ff b5 6c fe ff
	ff		 push	 DWORD PTR _nMMIId$GSCopy$1$[ebp]
  0058b	50		 push	 eax
  0058c	e8 00 00 00 00	 call	 ?GetResultMsg@CExchange@@QAE?AV?$vector@HV?$allocator@H@std@@@std@@HH@Z ; CExchange::GetResultMsg
; File C:\Program Files\Microsoft Visual Studio\2022\Professional\VC\Tools\MSVC\14.44.35207\include\vector

; 830  :         _Tidy();

  00591	8d 8d 2c fe ff
	ff		 lea	 ecx, DWORD PTR $T2[ebp]

; 1915 :         return static_cast<size_type>(_My_data._Mylast - _My_data._Myfirst);

  00597	8b 70 04	 mov	 esi, DWORD PTR [eax+4]
  0059a	2b 30		 sub	 esi, DWORD PTR [eax]
  0059c	c1 fe 02	 sar	 esi, 2

; 830  :         _Tidy();

  0059f	e8 00 00 00 00	 call	 ?_Tidy@?$vector@HV?$allocator@H@std@@@std@@AAEXXZ ; std::vector<int,std::allocator<int> >::_Tidy
; File C:\IAGOS\server\v18\Source\Source\_Common\Exchange.cpp

; 512  : 			if( GetResultMsg( nMMIId, nListNum ).size() < 2 )

  005a4	83 fe 02	 cmp	 esi, 2
  005a7	0f 83 91 00 00
	00		 jae	 $LN81@ResultExch

; 513  : 				pUser->AddDefinedText( TID_EXCHANGE_SUCCESS, "\"%s\" %d", itemElem.GetName(), itemElem.m_nItemNum );

  005ad	8d 85 64 fe ff
	ff		 lea	 eax, DWORD PTR $T5[ebp]
  005b3	50		 push	 eax
  005b4	8d 8d 40 ff ff
	ff		 lea	 ecx, DWORD PTR _itemElem$9[ebp]
  005ba	e8 00 00 00 00	 call	 ?GetName@CItemElem@@QAE?AV?$CStringT@DV?$StrTraitMFC@DV?$ChTraitsCRT@D@ATL@@@@@ATL@@XZ ; CItemElem::GetName
  005bf	0f bf 4d b4	 movsx	 ecx, WORD PTR _itemElem$9[ebp+116]
  005c3	51		 push	 ecx
  005c4	ff 30		 push	 DWORD PTR [eax]
  005c6	c6 45 fc 06	 mov	 BYTE PTR __$EHRec$[ebp+8], 6
  005ca	68 00 00 00 00	 push	 OFFSET ??_C@_07BFJJNFBL@?$CC?$CFs?$CC?5?$CFd@
  005cf	68 9c 0f 00 00	 push	 3996			; 00000f9cH
  005d4	57		 push	 edi
  005d5	e8 00 00 00 00	 call	 ?AddDefinedText@CUser@@QAAXHPBDZZ ; CUser::AddDefinedText
; File C:\Program Files\Microsoft Visual Studio\2022\Professional\VC\Tools\MSVC\14.44.35207\atlmfc\include\atlsimpstr.h

; 804  : 		return( reinterpret_cast< CStringData* >( m_pszData )-1 );

  005da	8b 95 64 fe ff
	ff		 mov	 edx, DWORD PTR $T5[ebp]
; File C:\IAGOS\server\v18\Source\Source\_Common\Exchange.cpp

; 514  : 		}

  005e0	eb 3d		 jmp	 SHORT $LN178@ResultExch
$LN24@ResultExch:

; 515  : 		else
; 516  : 			Error( "CExchange::ResultExchange() ľĆŔĚĹŰ Áö±Ţ ˝ÇĆĐ - %s, %s, %d, %d", pUser->GetName(), itemElem.GetName(), itemElem.m_dwItemId, itemElem.m_nItemNum );

  005e2	8d 85 54 fe ff
	ff		 lea	 eax, DWORD PTR $T4[ebp]
  005e8	50		 push	 eax
  005e9	8d 8d 40 ff ff
	ff		 lea	 ecx, DWORD PTR _itemElem$9[ebp]
  005ef	e8 00 00 00 00	 call	 ?GetName@CItemElem@@QAE?AV?$CStringT@DV?$StrTraitMFC@DV?$ChTraitsCRT@D@ATL@@@@@ATL@@XZ ; CItemElem::GetName
  005f4	0f bf 4d b4	 movsx	 ecx, WORD PTR _itemElem$9[ebp+116]
  005f8	51		 push	 ecx
  005f9	ff b5 4c ff ff
	ff		 push	 DWORD PTR _itemElem$9[ebp+12]
  005ff	8b cf		 mov	 ecx, edi
  00601	c6 45 fc 07	 mov	 BYTE PTR __$EHRec$[ebp+8], 7
  00605	ff 30		 push	 DWORD PTR [eax]
  00607	6a 00		 push	 0
  00609	e8 00 00 00 00	 call	 ?GetName@CMover@@QAEPBDH@Z ; CMover::GetName
  0060e	50		 push	 eax
  0060f	68 00 00 00 00	 push	 OFFSET ??_C@_0DO@FILECCLL@CExchange?3?3ResultExchange?$CI?$CJ?5?$LO?F?$MA@
  00614	e8 00 00 00 00	 call	 ?Error@@YAPBDPBDZZ	; Error
; File C:\Program Files\Microsoft Visual Studio\2022\Professional\VC\Tools\MSVC\14.44.35207\atlmfc\include\atlsimpstr.h

; 804  : 		return( reinterpret_cast< CStringData* >( m_pszData )-1 );

  00619	8b 95 54 fe ff
	ff		 mov	 edx, DWORD PTR $T4[ebp]
$LN178@ResultExch:
; File C:\IAGOS\server\v18\Source\Source\_Common\Exchange.cpp

; 517  : 	}

  0061f	83 c8 ff	 or	 eax, -1
  00622	c6 45 fc 05	 mov	 BYTE PTR __$EHRec$[ebp+8], 5
  00626	83 c2 f0	 add	 edx, -16		; fffffff0H
  00629	83 c4 14	 add	 esp, 20			; 00000014H
  0062c	f0 0f c1 42 0c	 lock	  xadd	 DWORD PTR [edx+12], eax
  00631	48		 dec	 eax
  00632	85 c0		 test	 eax, eax
  00634	7f 08		 jg	 SHORT $LN81@ResultExch
  00636	8b 0a		 mov	 ecx, DWORD PTR [edx]
  00638	52		 push	 edx
  00639	8b 01		 mov	 eax, DWORD PTR [ecx]
  0063b	ff 50 04	 call	 DWORD PTR [eax+4]
$LN81@ResultExch:
  0063e	8d 8d 40 ff ff
	ff		 lea	 ecx, DWORD PTR _itemElem$9[ebp]
  00644	c6 45 fc 02	 mov	 BYTE PTR __$EHRec$[ebp+8], 2
  00648	e8 00 00 00 00	 call	 ??1CItemElem@@UAE@XZ	; CItemElem::~CItemElem
; File C:\Program Files\Microsoft Visual Studio\2022\Professional\VC\Tools\MSVC\14.44.35207\include\vector

; 1915 :         return static_cast<size_type>(_My_data._Mylast - _My_data._Myfirst);

  0064d	8b 85 4c fe ff
	ff		 mov	 eax, DWORD PTR _vecPayItem$[ebp+4]
; File C:\IAGOS\server\v18\Source\Source\_Common\Exchange.cpp

; 494  : 	for( int i=0; i<(int)( vecPayItem.size() ); i++ )

  00653	8b 8d 70 fe ff
	ff		 mov	 ecx, DWORD PTR _i$1$[ebp]
; File C:\Program Files\Microsoft Visual Studio\2022\Professional\VC\Tools\MSVC\14.44.35207\include\vector

; 1915 :         return static_cast<size_type>(_My_data._Mylast - _My_data._Myfirst);

  00659	2b 85 48 fe ff
	ff		 sub	 eax, DWORD PTR _vecPayItem$[ebp]
; File C:\IAGOS\server\v18\Source\Source\_Common\Exchange.cpp

; 494  : 	for( int i=0; i<(int)( vecPayItem.size() ); i++ )

  0065f	41		 inc	 ecx
  00660	83 85 74 fe ff
	ff 10		 add	 DWORD PTR tv1141[ebp], 16 ; 00000010H
  00667	8b b5 74 fe ff
	ff		 mov	 esi, DWORD PTR tv1141[ebp]
; File C:\Program Files\Microsoft Visual Studio\2022\Professional\VC\Tools\MSVC\14.44.35207\include\vector

; 1915 :         return static_cast<size_type>(_My_data._Mylast - _My_data._Myfirst);

  0066d	c1 f8 04	 sar	 eax, 4
; File C:\IAGOS\server\v18\Source\Source\_Common\Exchange.cpp

; 494  : 	for( int i=0; i<(int)( vecPayItem.size() ); i++ )

  00670	89 8d 70 fe ff
	ff		 mov	 DWORD PTR _i$1$[ebp], ecx
  00676	3b c8		 cmp	 ecx, eax
  00678	0f 8c f3 fc ff
	ff		 jl	 $LL13@ResultExch
$LN12@ResultExch:

; 518  : 	return EXCHANGE_SUCCESS;

  0067e	33 f6		 xor	 esi, esi
$LN38@ResultExch:
; File C:\Program Files\Microsoft Visual Studio\2022\Professional\VC\Tools\MSVC\14.44.35207\include\vector

; 830  :         _Tidy();

  00680	8d 8d 48 fe ff
	ff		 lea	 ecx, DWORD PTR _vecPayItem$[ebp]
  00686	e8 00 00 00 00	 call	 ?_Tidy@?$vector@U__ITEM@CExchange@@V?$allocator@U__ITEM@CExchange@@@std@@@std@@AAEXXZ ; std::vector<CExchange::__ITEM,std::allocator<CExchange::__ITEM> >::_Tidy
  0068b	8d 8d 38 fe ff
	ff		 lea	 ecx, DWORD PTR _vecRemovePoint$[ebp]
  00691	e8 00 00 00 00	 call	 ?_Tidy@?$vector@U__POINT@CExchange@@V?$allocator@U__POINT@CExchange@@@std@@@std@@AAEXXZ ; std::vector<CExchange::__POINT,std::allocator<CExchange::__POINT> >::_Tidy
  00696	8d 8d 58 fe ff
	ff		 lea	 ecx, DWORD PTR _vecRemoveItem$[ebp]
  0069c	e8 00 00 00 00	 call	 ?_Tidy@?$vector@U__ITEM@CExchange@@V?$allocator@U__ITEM@CExchange@@@std@@@std@@AAEXXZ ; std::vector<CExchange::__ITEM,std::allocator<CExchange::__ITEM> >::_Tidy
; File C:\IAGOS\server\v18\Source\Source\_Common\Exchange.cpp

; 518  : 	return EXCHANGE_SUCCESS;

  006a1	8b c6		 mov	 eax, esi
  006a3	eb 05		 jmp	 SHORT $LN1@ResultExch
$LN16@ResultExch:

; 431  : 		return EXCHANGE_FAILED;

  006a5	b8 01 00 00 00	 mov	 eax, 1
$LN1@ResultExch:

; 519  : }

  006aa	8b 4d f4	 mov	 ecx, DWORD PTR __$EHRec$[ebp]
  006ad	64 89 0d 00 00
	00 00		 mov	 DWORD PTR fs:0, ecx
  006b4	59		 pop	 ecx
  006b5	5f		 pop	 edi
  006b6	5e		 pop	 esi
  006b7	8b 4d f0	 mov	 ecx, DWORD PTR __$ArrayPad$[ebp]
  006ba	33 cd		 xor	 ecx, ebp
  006bc	e8 00 00 00 00	 call	 @__security_check_cookie@4
  006c1	8b e5		 mov	 esp, ebp
  006c3	5d		 pop	 ebp
  006c4	c2 0c 00	 ret	 12			; 0000000cH
_TEXT	ENDS
;	COMDAT text$x
text$x	SEGMENT
__unwindfunclet$?ResultExchange@CExchange@@QAEHPAVCUser@@HH@Z$0:
  00000	8d 8d 58 fe ff
	ff		 lea	 ecx, DWORD PTR _vecRemoveItem$[ebp]
  00006	e9 00 00 00 00	 jmp	 ??1?$vector@U__ITEM@CExchange@@V?$allocator@U__ITEM@CExchange@@@std@@@std@@QAE@XZ ; std::vector<CExchange::__ITEM,std::allocator<CExchange::__ITEM> >::~vector<CExchange::__ITEM,std::allocator<CExchange::__ITEM> >
__unwindfunclet$?ResultExchange@CExchange@@QAEHPAVCUser@@HH@Z$1:
  0000b	8d 8d 38 fe ff
	ff		 lea	 ecx, DWORD PTR _vecRemovePoint$[ebp]
  00011	e9 00 00 00 00	 jmp	 ??1?$vector@U__POINT@CExchange@@V?$allocator@U__POINT@CExchange@@@std@@@std@@QAE@XZ ; std::vector<CExchange::__POINT,std::allocator<CExchange::__POINT> >::~vector<CExchange::__POINT,std::allocator<CExchange::__POINT> >
__unwindfunclet$?ResultExchange@CExchange@@QAEHPAVCUser@@HH@Z$2:
  00016	8d 8d 48 fe ff
	ff		 lea	 ecx, DWORD PTR _vecPayItem$[ebp]
  0001c	e9 00 00 00 00	 jmp	 ??1?$vector@U__ITEM@CExchange@@V?$allocator@U__ITEM@CExchange@@@std@@@std@@QAE@XZ ; std::vector<CExchange::__ITEM,std::allocator<CExchange::__ITEM> >::~vector<CExchange::__ITEM,std::allocator<CExchange::__ITEM> >
__unwindfunclet$?ResultExchange@CExchange@@QAEHPAVCUser@@HH@Z$3:
  00021	8b 8d 54 fe ff
	ff		 mov	 ecx, DWORD PTR $T3[ebp]
  00027	e9 00 00 00 00	 jmp	 ??1?$vector@U__ITEM@CExchange@@V?$allocator@U__ITEM@CExchange@@@std@@@std@@QAE@XZ ; std::vector<CExchange::__ITEM,std::allocator<CExchange::__ITEM> >::~vector<CExchange::__ITEM,std::allocator<CExchange::__ITEM> >
__unwindfunclet$?ResultExchange@CExchange@@QAEHPAVCUser@@HH@Z$5:
  0002c	8d 8d 40 ff ff
	ff		 lea	 ecx, DWORD PTR _itemElem$8[ebp]
  00032	e9 00 00 00 00	 jmp	 ??1CItemElem@@UAE@XZ	; CItemElem::~CItemElem
__unwindfunclet$?ResultExchange@CExchange@@QAEHPAVCUser@@HH@Z$6:
  00037	8d 8d 40 ff ff
	ff		 lea	 ecx, DWORD PTR _itemElem$9[ebp]
  0003d	e9 00 00 00 00	 jmp	 ??1CItemElem@@UAE@XZ	; CItemElem::~CItemElem
__unwindfunclet$?ResultExchange@CExchange@@QAEHPAVCUser@@HH@Z$8:
  00042	8d 8d 64 fe ff
	ff		 lea	 ecx, DWORD PTR $T5[ebp]
  00048	e9 00 00 00 00	 jmp	 ??1?$CStringT@DV?$StrTraitMFC@DV?$ChTraitsCRT@D@ATL@@@@@ATL@@QAE@XZ ; ATL::CStringT<char,StrTraitMFC<char,ATL::ChTraitsCRT<char> > >::~CStringT<char,StrTraitMFC<char,ATL::ChTraitsCRT<char> > >
__unwindfunclet$?ResultExchange@CExchange@@QAEHPAVCUser@@HH@Z$9:
  0004d	8d 8d 54 fe ff
	ff		 lea	 ecx, DWORD PTR $T4[ebp]
  00053	e9 00 00 00 00	 jmp	 ??1?$CStringT@DV?$StrTraitMFC@DV?$ChTraitsCRT@D@ATL@@@@@ATL@@QAE@XZ ; ATL::CStringT<char,StrTraitMFC<char,ATL::ChTraitsCRT<char> > >::~CStringT<char,StrTraitMFC<char,ATL::ChTraitsCRT<char> > >
  00058	cc		 int	 3
  00059	cc		 int	 3
  0005a	cc		 int	 3
  0005b	cc		 int	 3
  0005c	cc		 int	 3
__ehhandler$?ResultExchange@CExchange@@QAEHPAVCUser@@HH@Z:
  0005d	90		 npad	 1
  0005e	90		 npad	 1
  0005f	8b 54 24 08	 mov	 edx, DWORD PTR [esp+8]
  00063	8d 42 0c	 lea	 eax, DWORD PTR [edx+12]
  00066	8b 8a 2c fe ff
	ff		 mov	 ecx, DWORD PTR [edx-468]
  0006c	33 c8		 xor	 ecx, eax
  0006e	e8 00 00 00 00	 call	 @__security_check_cookie@4
  00073	8b 4a fc	 mov	 ecx, DWORD PTR [edx-4]
  00076	33 c8		 xor	 ecx, eax
  00078	e8 00 00 00 00	 call	 @__security_check_cookie@4
  0007d	b8 00 00 00 00	 mov	 eax, OFFSET __ehfuncinfo$?ResultExchange@CExchange@@QAEHPAVCUser@@HH@Z
  00082	e9 00 00 00 00	 jmp	 ___CxxFrameHandler3
text$x	ENDS
?ResultExchange@CExchange@@QAEHPAVCUser@@HH@Z ENDP	; CExchange::ResultExchange
; Function compile flags: /Ogtp
; File C:\IAGOS\server\v18\Source\Source\_Common\Exchange.cpp
; File C:\Program Files\Microsoft Visual Studio\2022\Professional\VC\Tools\MSVC\14.44.35207\include\xtree
; File C:\IAGOS\server\v18\Source\Source\_Common\Exchange.cpp
; File C:\Program Files\Microsoft Visual Studio\2022\Professional\VC\Tools\MSVC\14.44.35207\include\xtree
; File C:\Program Files\Microsoft Visual Studio\2022\Professional\VC\Tools\MSVC\14.44.35207\include\type_traits
; File C:\Program Files\Microsoft Visual Studio\2022\Professional\VC\Tools\MSVC\14.44.35207\include\xtree
; File C:\IAGOS\server\v18\Source\Source\_Common\Exchange.cpp
;	COMDAT ?FindExchange@CExchange@@QAEPAU__SETLIST@1@H@Z
_TEXT	SEGMENT
__Loc$1 = -12						; size = 12
_nMMIId$ = 8						; size = 4
?FindExchange@CExchange@@QAEPAU__SETLIST@1@H@Z PROC	; CExchange::FindExchange, COMDAT
; _this$ = ecx

; 216  : {

  00000	55		 push	 ebp
  00001	8b ec		 mov	 ebp, esp
  00003	83 ec 0c	 sub	 esp, 12			; 0000000cH
  00006	56		 push	 esi
; File C:\Program Files\Microsoft Visual Studio\2022\Professional\VC\Tools\MSVC\14.44.35207\include\xtree

; 1384 :         const _Tree_find_result<_Nodeptr> _Loc = _Find_lower_bound(_Keyval);

  00007	8d 45 08	 lea	 eax, DWORD PTR _nMMIId$[ebp]
  0000a	50		 push	 eax
; File C:\IAGOS\server\v18\Source\Source\_Common\Exchange.cpp

; 217  : 	map<int, __SETLIST>::iterator it = m_mapExchange.find( nMMIId );

  0000b	8d 71 04	 lea	 esi, DWORD PTR [ecx+4]
; File C:\Program Files\Microsoft Visual Studio\2022\Professional\VC\Tools\MSVC\14.44.35207\include\xtree

; 1384 :         const _Tree_find_result<_Nodeptr> _Loc = _Find_lower_bound(_Keyval);

  0000e	8d 45 f4	 lea	 eax, DWORD PTR __Loc$1[ebp]
  00011	8b ce		 mov	 ecx, esi
  00013	50		 push	 eax
  00014	e8 00 00 00 00	 call	 ??$_Find_lower_bound@H@?$_Tree@V?$_Tmap_traits@HU__SETLIST@CExchange@@U?$less@H@std@@V?$allocator@U?$pair@$$CBHU__SETLIST@CExchange@@@std@@@4@$0A@@std@@@std@@IBE?AU?$_Tree_find_result@PAU?$_Tree_node@U?$pair@$$CBHU__SETLIST@CExchange@@@std@@PAX@std@@@1@ABH@Z ; std::_Tree<std::_Tmap_traits<int,CExchange::__SETLIST,std::less<int>,std::allocator<std::pair<int const ,CExchange::__SETLIST> >,0> >::_Find_lower_bound<int>

; 1624 :         return !_Bound->_Isnil && !_DEBUG_LT_PRED(_Getcomp(), _Keyval, _Traits::_Kfn(_Bound->_Myval));

  00019	8b 55 fc	 mov	 edx, DWORD PTR __Loc$1[ebp+8]
  0001c	80 7a 0d 00	 cmp	 BYTE PTR [edx+13], 0
  00020	75 19		 jne	 SHORT $LN2@FindExchan
; File C:\Program Files\Microsoft Visual Studio\2022\Professional\VC\Tools\MSVC\14.44.35207\include\type_traits

; 2380 :         return _Left < _Right;

  00022	8b 45 08	 mov	 eax, DWORD PTR _nMMIId$[ebp]
  00025	3b 42 10	 cmp	 eax, DWORD PTR [edx+16]
; File C:\Program Files\Microsoft Visual Studio\2022\Professional\VC\Tools\MSVC\14.44.35207\include\xtree

; 1624 :         return !_Bound->_Isnil && !_DEBUG_LT_PRED(_Getcomp(), _Keyval, _Traits::_Kfn(_Bound->_Myval));

  00028	7c 11		 jl	 SHORT $LN2@FindExchan

; 37   :     _Tree_unchecked_const_iterator(_Nodeptr _Pnode, const _Mytree* _Plist) noexcept : _Ptr(_Pnode) {

  0002a	33 c0		 xor	 eax, eax
  0002c	8d 4a 14	 lea	 ecx, DWORD PTR [edx+20]
  0002f	3b 16		 cmp	 edx, DWORD PTR [esi]
  00031	5e		 pop	 esi
  00032	0f 45 c1	 cmovne	 eax, ecx
; File C:\IAGOS\server\v18\Source\Source\_Common\Exchange.cpp

; 221  : }

  00035	8b e5		 mov	 esp, ebp
  00037	5d		 pop	 ebp
  00038	c2 04 00	 ret	 4
$LN2@FindExchan:

; 218  : 	if( it != m_mapExchange.end() )
; 219  : 		return &it->second;
; 220  : 	return NULL;

  0003b	33 c0		 xor	 eax, eax
  0003d	5e		 pop	 esi

; 221  : }

  0003e	8b e5		 mov	 esp, ebp
  00040	5d		 pop	 ebp
  00041	c2 04 00	 ret	 4
?FindExchange@CExchange@@QAEPAU__SETLIST@1@H@Z ENDP	; CExchange::FindExchange
_TEXT	ENDS
; Function compile flags: /Ogtp
; File C:\IAGOS\server\v18\Source\Source\_Common\Exchange.cpp
; File C:\Program Files\Microsoft Visual Studio\2022\Professional\VC\Tools\MSVC\14.44.35207\include\vector
; File C:\IAGOS\server\v18\Source\Source\_Common\Exchange.cpp
; File C:\Program Files\Microsoft Visual Studio\2022\Professional\VC\Tools\MSVC\14.44.35207\include\vector
; File C:\IAGOS\server\v18\Source\Source\_Common\Exchange.cpp
; File C:\Program Files\Microsoft Visual Studio\2022\Professional\VC\Tools\MSVC\14.44.35207\include\vector
; File C:\IAGOS\server\v18\Source\Source\_Common\Exchange.cpp
;	COMDAT ?GetResultMsg@CExchange@@QAE?AV?$vector@HV?$allocator@H@std@@@std@@HH@Z
_TEXT	SEGMENT
___$ReturnUdt$ = 8					; size = 4
_nMMIId$ = 12						; size = 4
_nListNum$ = 16						; size = 4
?GetResultMsg@CExchange@@QAE?AV?$vector@HV?$allocator@H@std@@@std@@HH@Z PROC ; CExchange::GetResultMsg, COMDAT
; _this$ = ecx

; 248  : {

  00000	55		 push	 ebp
  00001	8b ec		 mov	 ebp, esp
  00003	51		 push	 ecx

; 249  : 	PSETLIST pSetList = FindExchange( nMMIId );

  00004	ff 75 0c	 push	 DWORD PTR _nMMIId$[ebp]
  00007	e8 00 00 00 00	 call	 ?FindExchange@CExchange@@QAEPAU__SETLIST@1@H@Z ; CExchange::FindExchange

; 250  : 	if( pSetList )

  0000c	85 c0		 test	 eax, eax
  0000e	74 23		 je	 SHORT $LN2@GetResultM
; File C:\Program Files\Microsoft Visual Studio\2022\Professional\VC\Tools\MSVC\14.44.35207\include\vector

; 1934 :         return _My_data._Myfirst[_Pos];

  00010	8b 4d 10	 mov	 ecx, DWORD PTR _nListNum$[ebp]
; File C:\IAGOS\server\v18\Source\Source\_Common\Exchange.cpp

; 251  : 		return pSetList->vecSet[nListNum].vecResultMsg;

  00013	8b 40 0c	 mov	 eax, DWORD PTR [eax+12]
; File C:\Program Files\Microsoft Visual Studio\2022\Professional\VC\Tools\MSVC\14.44.35207\include\vector

; 1934 :         return _My_data._Myfirst[_Pos];

  00016	8d 0c 89	 lea	 ecx, DWORD PTR [ecx+ecx*4]
  00019	c1 e1 04	 shl	 ecx, 4
; File C:\IAGOS\server\v18\Source\Source\_Common\Exchange.cpp

; 251  : 		return pSetList->vecSet[nListNum].vecResultMsg;

  0001c	83 c1 04	 add	 ecx, 4
  0001f	03 c1		 add	 eax, ecx
  00021	8b 4d 08	 mov	 ecx, DWORD PTR ___$ReturnUdt$[ebp]
  00024	50		 push	 eax
  00025	e8 00 00 00 00	 call	 ??0?$vector@HV?$allocator@H@std@@@std@@QAE@ABV01@@Z ; std::vector<int,std::allocator<int> >::vector<int,std::allocator<int> >
  0002a	8b 45 08	 mov	 eax, DWORD PTR ___$ReturnUdt$[ebp]

; 255  : }

  0002d	8b e5		 mov	 esp, ebp
  0002f	5d		 pop	 ebp
  00030	c2 0c 00	 ret	 12			; 0000000cH
$LN2@GetResultM:
; File C:\Program Files\Microsoft Visual Studio\2022\Professional\VC\Tools\MSVC\14.44.35207\include\vector

; 403  :         : _Myfirst(_First), _Mylast(_Last), _Myend(_End) {}

  00033	8b 45 08	 mov	 eax, DWORD PTR ___$ReturnUdt$[ebp]
  00036	c7 00 00 00 00
	00		 mov	 DWORD PTR [eax], 0
  0003c	c7 40 04 00 00
	00 00		 mov	 DWORD PTR [eax+4], 0
  00043	c7 40 08 00 00
	00 00		 mov	 DWORD PTR [eax+8], 0
; File C:\IAGOS\server\v18\Source\Source\_Common\Exchange.cpp

; 255  : }

  0004a	8b e5		 mov	 esp, ebp
  0004c	5d		 pop	 ebp
  0004d	c2 0c 00	 ret	 12			; 0000000cH
?GetResultMsg@CExchange@@QAE?AV?$vector@HV?$allocator@H@std@@@std@@HH@Z ENDP ; CExchange::GetResultMsg
_TEXT	ENDS
; Function compile flags: /Ogtp
; File C:\IAGOS\server\v18\Source\Source\_Common\Exchange.cpp
; File C:\Program Files\Microsoft Visual Studio\2022\Professional\VC\Tools\MSVC\14.44.35207\include\vector
; File C:\IAGOS\server\v18\Source\Source\_Common\Exchange.cpp
;	COMDAT ?GetDescId@CExchange@@QAE?AV?$vector@HV?$allocator@H@std@@@std@@H@Z
_TEXT	SEGMENT
___$ReturnUdt$ = 8					; size = 4
_nMMIId$ = 12						; size = 4
?GetDescId@CExchange@@QAE?AV?$vector@HV?$allocator@H@std@@@std@@H@Z PROC ; CExchange::GetDescId, COMDAT
; _this$ = ecx

; 238  : {

  00000	55		 push	 ebp
  00001	8b ec		 mov	 ebp, esp
  00003	51		 push	 ecx

; 239  : 	PSETLIST pSetList = FindExchange( nMMIId );

  00004	ff 75 0c	 push	 DWORD PTR _nMMIId$[ebp]
  00007	e8 00 00 00 00	 call	 ?FindExchange@CExchange@@QAEPAU__SETLIST@1@H@Z ; CExchange::FindExchange

; 240  : 	if( pSetList )

  0000c	85 c0		 test	 eax, eax
  0000e	74 12		 je	 SHORT $LN2@GetDescId

; 241  : 		return pSetList->vecDesciprtionId;

  00010	8b 4d 08	 mov	 ecx, DWORD PTR ___$ReturnUdt$[ebp]
  00013	50		 push	 eax
  00014	e8 00 00 00 00	 call	 ??0?$vector@HV?$allocator@H@std@@@std@@QAE@ABV01@@Z ; std::vector<int,std::allocator<int> >::vector<int,std::allocator<int> >
  00019	8b 45 08	 mov	 eax, DWORD PTR ___$ReturnUdt$[ebp]

; 245  : }

  0001c	8b e5		 mov	 esp, ebp
  0001e	5d		 pop	 ebp
  0001f	c2 08 00	 ret	 8
$LN2@GetDescId:
; File C:\Program Files\Microsoft Visual Studio\2022\Professional\VC\Tools\MSVC\14.44.35207\include\vector

; 403  :         : _Myfirst(_First), _Mylast(_Last), _Myend(_End) {}

  00022	8b 45 08	 mov	 eax, DWORD PTR ___$ReturnUdt$[ebp]
  00025	c7 00 00 00 00
	00		 mov	 DWORD PTR [eax], 0
  0002b	c7 40 04 00 00
	00 00		 mov	 DWORD PTR [eax+4], 0
  00032	c7 40 08 00 00
	00 00		 mov	 DWORD PTR [eax+8], 0
; File C:\IAGOS\server\v18\Source\Source\_Common\Exchange.cpp

; 245  : }

  00039	8b e5		 mov	 esp, ebp
  0003b	5d		 pop	 ebp
  0003c	c2 08 00	 ret	 8
?GetDescId@CExchange@@QAE?AV?$vector@HV?$allocator@H@std@@@std@@H@Z ENDP ; CExchange::GetDescId
_TEXT	ENDS
; Function compile flags: /Ogtp
; File C:\IAGOS\server\v18\Source\Source\_Common\Exchange.cpp
; File C:\Program Files\Microsoft Visual Studio\2022\Professional\VC\Tools\MSVC\14.44.35207\include\vector
; File C:\IAGOS\server\v18\Source\Source\_Common\Exchange.cpp
; File C:\Program Files\Microsoft Visual Studio\2022\Professional\VC\Tools\MSVC\14.44.35207\include\vector
; File C:\IAGOS\server\v18\Source\Source\_Common\Exchange.cpp
; File C:\Program Files\Microsoft Visual Studio\2022\Professional\VC\Tools\MSVC\14.44.35207\include\vector
; File C:\IAGOS\server\v18\Source\Source\_Common\Exchange.cpp
; File C:\Program Files\Microsoft Visual Studio\2022\Professional\VC\Tools\MSVC\14.44.35207\include\vector
; File C:\IAGOS\server\v18\Source\Source\_Common\Exchange.cpp
; File C:\Program Files\Microsoft Visual Studio\2022\Professional\VC\Tools\MSVC\14.44.35207\include\vector
; File C:\IAGOS\server\v18\Source\Source\_Common\Exchange.cpp
; File C:\Program Files\Microsoft Visual Studio\2022\Professional\VC\Tools\MSVC\14.44.35207\include\vector
; File C:\IAGOS\server\v18\Source\Source\_Common\Exchange.cpp
; File C:\Program Files\Microsoft Visual Studio\2022\Professional\VC\Tools\MSVC\14.44.35207\include\vector
; File C:\IAGOS\server\v18\Source\Source\_Common\Exchange.cpp
;	COMDAT ?GetListTextId@CExchange@@QAE?AV?$vector@HV?$allocator@H@std@@@std@@H@Z
_TEXT	SEGMENT
_pSetList$1$ = -24					; size = 4
$T2 = -20						; size = 4
$T3 = -16						; size = 4
__$EHRec$ = -12						; size = 12
___$ReturnUdt$ = 8					; size = 4
_nMMIId$ = 12						; size = 4
_i$1$ = 12						; size = 4
?GetListTextId@CExchange@@QAE?AV?$vector@HV?$allocator@H@std@@@std@@H@Z PROC ; CExchange::GetListTextId, COMDAT
; _this$ = ecx

; 225  : {

  00000	55		 push	 ebp
  00001	8b ec		 mov	 ebp, esp
  00003	6a ff		 push	 -1
  00005	68 00 00 00 00	 push	 __ehhandler$?GetListTextId@CExchange@@QAE?AV?$vector@HV?$allocator@H@std@@@std@@H@Z
  0000a	64 a1 00 00 00
	00		 mov	 eax, DWORD PTR fs:0
  00010	50		 push	 eax
  00011	83 ec 0c	 sub	 esp, 12			; 0000000cH
  00014	53		 push	 ebx
  00015	56		 push	 esi
  00016	57		 push	 edi
  00017	a1 00 00 00 00	 mov	 eax, DWORD PTR ___security_cookie
  0001c	33 c5		 xor	 eax, ebp
  0001e	50		 push	 eax
  0001f	8d 45 f4	 lea	 eax, DWORD PTR __$EHRec$[ebp]
  00022	64 a3 00 00 00
	00		 mov	 DWORD PTR fs:0, eax
  00028	c7 45 f0 00 00
	00 00		 mov	 DWORD PTR $T3[ebp], 0
; File C:\Program Files\Microsoft Visual Studio\2022\Professional\VC\Tools\MSVC\14.44.35207\include\vector

; 400  :     _CONSTEXPR20 _Vector_val() noexcept : _Myfirst(), _Mylast(), _Myend() {}

  0002f	8b 75 08	 mov	 esi, DWORD PTR ___$ReturnUdt$[ebp]
  00032	c7 06 00 00 00
	00		 mov	 DWORD PTR [esi], 0
  00038	c7 46 04 00 00
	00 00		 mov	 DWORD PTR [esi+4], 0
  0003f	c7 46 08 00 00
	00 00		 mov	 DWORD PTR [esi+8], 0
; File C:\IAGOS\server\v18\Source\Source\_Common\Exchange.cpp

; 233  : 	return list;

  00046	ff 75 0c	 push	 DWORD PTR _nMMIId$[ebp]
  00049	c7 45 fc 00 00
	00 00		 mov	 DWORD PTR __$EHRec$[ebp+8], 0
  00050	c7 45 f0 01 00
	00 00		 mov	 DWORD PTR $T3[ebp], 1
  00057	e8 00 00 00 00	 call	 ?FindExchange@CExchange@@QAEPAU__SETLIST@1@H@Z ; CExchange::FindExchange
  0005c	89 45 e8	 mov	 DWORD PTR _pSetList$1$[ebp], eax
  0005f	85 c0		 test	 eax, eax
  00061	74 6d		 je	 SHORT $LN36@GetListTex
; File C:\Program Files\Microsoft Visual Studio\2022\Professional\VC\Tools\MSVC\14.44.35207\include\vector

; 1915 :         return static_cast<size_type>(_My_data._Mylast - _My_data._Myfirst);

  00063	8b 48 10	 mov	 ecx, DWORD PTR [eax+16]
; File C:\IAGOS\server\v18\Source\Source\_Common\Exchange.cpp

; 230  : 		for( int i=0;i<(int)( pSetList->vecSet.size() ); i++ )

  00066	33 d2		 xor	 edx, edx
; File C:\Program Files\Microsoft Visual Studio\2022\Professional\VC\Tools\MSVC\14.44.35207\include\vector

; 1915 :         return static_cast<size_type>(_My_data._Mylast - _My_data._Myfirst);

  00068	8b 78 0c	 mov	 edi, DWORD PTR [eax+12]
  0006b	2b cf		 sub	 ecx, edi
; File C:\IAGOS\server\v18\Source\Source\_Common\Exchange.cpp

; 230  : 		for( int i=0;i<(int)( pSetList->vecSet.size() ); i++ )

  0006d	89 55 0c	 mov	 DWORD PTR _i$1$[ebp], edx
; File C:\Program Files\Microsoft Visual Studio\2022\Professional\VC\Tools\MSVC\14.44.35207\include\vector

; 1915 :         return static_cast<size_type>(_My_data._Mylast - _My_data._Myfirst);

  00070	b8 67 66 66 66	 mov	 eax, 1717986919		; 66666667H
  00075	f7 e9		 imul	 ecx
  00077	c1 fa 05	 sar	 edx, 5
  0007a	8b c2		 mov	 eax, edx
  0007c	c1 e8 1f	 shr	 eax, 31			; 0000001fH
  0007f	03 c2		 add	 eax, edx
; File C:\IAGOS\server\v18\Source\Source\_Common\Exchange.cpp

; 230  : 		for( int i=0;i<(int)( pSetList->vecSet.size() ); i++ )

  00081	85 c0		 test	 eax, eax
  00083	7e 4b		 jle	 SHORT $LN36@GetListTex
; File C:\Program Files\Microsoft Visual Studio\2022\Professional\VC\Tools\MSVC\14.44.35207\include\vector

; 841  :         auto& _My_data   = _Mypair._Myval2;

  00085	33 db		 xor	 ebx, ebx
$LL4@GetListTex:

; 844  :         if (_Mylast != _My_data._Myend) {

  00087	8b 46 04	 mov	 eax, DWORD PTR [esi+4]
; File C:\IAGOS\server\v18\Source\Source\_Common\Exchange.cpp

; 231  : 			list.push_back( pSetList->vecSet[i].nSetTextId );

  0008a	8b 0c 3b	 mov	 ecx, DWORD PTR [ebx+edi]
  0008d	89 4d ec	 mov	 DWORD PTR $T2[ebp], ecx
; File C:\Program Files\Microsoft Visual Studio\2022\Professional\VC\Tools\MSVC\14.44.35207\include\vector

; 844  :         if (_Mylast != _My_data._Myend) {

  00090	3b 46 08	 cmp	 eax, DWORD PTR [esi+8]
  00093	74 08		 je	 SHORT $LN27@GetListTex

; 860  :             _STD _Construct_in_place(*_Mylast, _STD forward<_Valty>(_Val)...);

  00095	89 08		 mov	 DWORD PTR [eax], ecx

; 861  :         } else {
; 862  :             _ASAN_VECTOR_EXTEND_GUARD(static_cast<size_type>(_Mylast - _My_data._Myfirst) + 1);
; 863  :             _Alty_traits::construct(_Getal(), _Unfancy(_Mylast), _STD forward<_Valty>(_Val)...);
; 864  :             _ASAN_VECTOR_RELEASE_GUARD;
; 865  :         }
; 866  : 
; 867  :         _Orphan_range(_Mylast, _Mylast);
; 868  :         _Ty& _Result = *_Mylast;
; 869  :         ++_Mylast;

  00097	83 46 04 04	 add	 DWORD PTR [esi+4], 4

; 845  :             return _Emplace_back_with_unused_capacity(_STD forward<_Valty>(_Val)...);

  0009b	eb 0c		 jmp	 SHORT $LN2@GetListTex
$LN27@GetListTex:

; 846  :         }
; 847  : 
; 848  :         return *_Emplace_reallocate(_Mylast, _STD forward<_Valty>(_Val)...);

  0009d	8d 4d ec	 lea	 ecx, DWORD PTR $T2[ebp]
  000a0	51		 push	 ecx
  000a1	50		 push	 eax
  000a2	8b ce		 mov	 ecx, esi
  000a4	e8 00 00 00 00	 call	 ??$_Emplace_reallocate@H@?$vector@HV?$allocator@H@std@@@std@@AAEPAHQAH$$QAH@Z ; std::vector<int,std::allocator<int> >::_Emplace_reallocate<int>
$LN2@GetListTex:

; 1915 :         return static_cast<size_type>(_My_data._Mylast - _My_data._Myfirst);

  000a9	8b 45 e8	 mov	 eax, DWORD PTR _pSetList$1$[ebp]
; File C:\IAGOS\server\v18\Source\Source\_Common\Exchange.cpp

; 230  : 		for( int i=0;i<(int)( pSetList->vecSet.size() ); i++ )

  000ac	83 c3 50	 add	 ebx, 80			; 00000050H
  000af	ff 45 0c	 inc	 DWORD PTR _i$1$[ebp]
; File C:\Program Files\Microsoft Visual Studio\2022\Professional\VC\Tools\MSVC\14.44.35207\include\vector

; 1915 :         return static_cast<size_type>(_My_data._Mylast - _My_data._Myfirst);

  000b2	8b 48 10	 mov	 ecx, DWORD PTR [eax+16]
  000b5	8b 78 0c	 mov	 edi, DWORD PTR [eax+12]
  000b8	2b cf		 sub	 ecx, edi
  000ba	b8 67 66 66 66	 mov	 eax, 1717986919		; 66666667H
  000bf	f7 e9		 imul	 ecx
  000c1	c1 fa 05	 sar	 edx, 5
  000c4	8b ca		 mov	 ecx, edx
  000c6	c1 e9 1f	 shr	 ecx, 31			; 0000001fH
  000c9	03 ca		 add	 ecx, edx
; File C:\IAGOS\server\v18\Source\Source\_Common\Exchange.cpp

; 230  : 		for( int i=0;i<(int)( pSetList->vecSet.size() ); i++ )

  000cb	39 4d 0c	 cmp	 DWORD PTR _i$1$[ebp], ecx
  000ce	7c b7		 jl	 SHORT $LL4@GetListTex
$LN36@GetListTex:

; 234  : }

  000d0	8b c6		 mov	 eax, esi
  000d2	8b 4d f4	 mov	 ecx, DWORD PTR __$EHRec$[ebp]
  000d5	64 89 0d 00 00
	00 00		 mov	 DWORD PTR fs:0, ecx
  000dc	59		 pop	 ecx
  000dd	5f		 pop	 edi
  000de	5e		 pop	 esi
  000df	5b		 pop	 ebx
  000e0	8b e5		 mov	 esp, ebp
  000e2	5d		 pop	 ebp
  000e3	c2 08 00	 ret	 8
_TEXT	ENDS
;	COMDAT text$x
text$x	SEGMENT
__unwindfunclet$?GetListTextId@CExchange@@QAE?AV?$vector@HV?$allocator@H@std@@@std@@H@Z$0:
  00000	8b 45 f0	 mov	 eax, DWORD PTR $T3[ebp]
  00003	83 e0 01	 and	 eax, 1
  00006	0f 84 0c 00 00
	00		 je	 $LN8@GetListTex
  0000c	83 65 f0 fe	 and	 DWORD PTR $T3[ebp], -2	; fffffffeH
  00010	8b 4d 08	 mov	 ecx, DWORD PTR ___$ReturnUdt$[ebp]
  00013	e9 00 00 00 00	 jmp	 ??1?$vector@HV?$allocator@H@std@@@std@@QAE@XZ ; std::vector<int,std::allocator<int> >::~vector<int,std::allocator<int> >
$LN8@GetListTex:
  00018	c3		 ret	 0
  00019	cc		 int	 3
  0001a	cc		 int	 3
  0001b	cc		 int	 3
  0001c	cc		 int	 3
  0001d	cc		 int	 3
__ehhandler$?GetListTextId@CExchange@@QAE?AV?$vector@HV?$allocator@H@std@@@std@@H@Z:
  0001e	90		 npad	 1
  0001f	90		 npad	 1
  00020	8b 54 24 08	 mov	 edx, DWORD PTR [esp+8]
  00024	8d 42 0c	 lea	 eax, DWORD PTR [edx+12]
  00027	8b 4a e4	 mov	 ecx, DWORD PTR [edx-28]
  0002a	33 c8		 xor	 ecx, eax
  0002c	e8 00 00 00 00	 call	 @__security_check_cookie@4
  00031	b8 00 00 00 00	 mov	 eax, OFFSET __ehfuncinfo$?GetListTextId@CExchange@@QAE?AV?$vector@HV?$allocator@H@std@@@std@@H@Z
  00036	e9 00 00 00 00	 jmp	 ___CxxFrameHandler3
text$x	ENDS
?GetListTextId@CExchange@@QAE?AV?$vector@HV?$allocator@H@std@@@std@@H@Z ENDP ; CExchange::GetListTextId
; Function compile flags: /Ogtp
; File C:\IAGOS\server\v18\Source\Source\_Common\Exchange.cpp
; File C:\Program Files\Microsoft Visual Studio\2022\Professional\VC\Tools\MSVC\14.44.35207\atlmfc\include\afxstr.h
; File C:\Program Files\Microsoft Visual Studio\2022\Professional\VC\Tools\MSVC\14.44.35207\atlmfc\include\atlsimpstr.h
; File C:\IAGOS\server\v18\Source\Source\_Common\Exchange.cpp
; File C:\Program Files\Microsoft Visual Studio\2022\Professional\VC\Tools\MSVC\14.44.35207\atlmfc\include\atlsimpstr.h
; File C:\Program Files (x86)\Windows Kits\10\Include\10.0.26100.0\ucrt\corecrt_memcpy_s.h
; File C:\Program Files\Microsoft Visual Studio\2022\Professional\VC\Tools\MSVC\14.44.35207\atlmfc\include\atlsimpstr.h
; File C:\IAGOS\server\v18\Source\Source\_Common\Exchange.cpp
; File C:\Program Files\Microsoft Visual Studio\2022\Professional\VC\Tools\MSVC\14.44.35207\include\vector
; File C:\IAGOS\server\v18\Source\Source\_Common\Exchange.cpp
; File C:\Program Files\Microsoft Visual Studio\2022\Professional\VC\Tools\MSVC\14.44.35207\atlmfc\include\cstringt.h
; File C:\IAGOS\server\v18\Source\Source\_Common\Exchange.cpp
; File C:\Program Files\Microsoft Visual Studio\2022\Professional\VC\Tools\MSVC\14.44.35207\include\vector
; File C:\IAGOS\server\v18\Source\Source\_Common\Exchange.cpp
; File C:\Program Files\Microsoft Visual Studio\2022\Professional\VC\Tools\MSVC\14.44.35207\include\vector
; File C:\IAGOS\server\v18\Source\Source\_Common\Exchange.cpp
; File C:\Program Files\Microsoft Visual Studio\2022\Professional\VC\Tools\MSVC\14.44.35207\atlmfc\include\cstringt.h
; File C:\IAGOS\server\v18\Source\Source\_Common\Exchange.cpp
; File C:\Program Files\Microsoft Visual Studio\2022\Professional\VC\Tools\MSVC\14.44.35207\include\vector
; File C:\IAGOS\server\v18\Source\Source\_Common\Exchange.cpp
; File C:\Program Files\Microsoft Visual Studio\2022\Professional\VC\Tools\MSVC\14.44.35207\include\vector
; File C:\IAGOS\server\v18\Source\Source\_Common\Exchange.cpp
; File C:\Program Files\Microsoft Visual Studio\2022\Professional\VC\Tools\MSVC\14.44.35207\include\vector
; File C:\IAGOS\server\v18\Source\Source\_Common\Exchange.h
; File C:\Program Files\Microsoft Visual Studio\2022\Professional\VC\Tools\MSVC\14.44.35207\include\vector
; File C:\IAGOS\server\v18\Source\Source\_Common\Exchange.h
; File C:\Program Files\Microsoft Visual Studio\2022\Professional\VC\Tools\MSVC\14.44.35207\include\vector
; File C:\IAGOS\server\v18\Source\Source\_Common\Exchange.cpp
; File C:\Program Files\Microsoft Visual Studio\2022\Professional\VC\Tools\MSVC\14.44.35207\atlmfc\include\cstringt.h
; File C:\IAGOS\server\v18\Source\Source\_Common\Exchange.cpp
; File C:\Program Files\Microsoft Visual Studio\2022\Professional\VC\Tools\MSVC\14.44.35207\include\vector
; File C:\IAGOS\server\v18\Source\Source\_Common\Exchange.cpp
; File C:\Program Files\Microsoft Visual Studio\2022\Professional\VC\Tools\MSVC\14.44.35207\include\vector
; File C:\IAGOS\server\v18\Source\Source\_Common\Exchange.cpp
; File C:\Program Files\Microsoft Visual Studio\2022\Professional\VC\Tools\MSVC\14.44.35207\atlmfc\include\cstringt.h
; File C:\IAGOS\server\v18\Source\Source\_Common\Exchange.cpp
; File C:\Program Files\Microsoft Visual Studio\2022\Professional\VC\Tools\MSVC\14.44.35207\atlmfc\include\cstringt.h
; File C:\IAGOS\server\v18\Source\Source\_Common\Exchange.h
; File C:\Program Files\Microsoft Visual Studio\2022\Professional\VC\Tools\MSVC\14.44.35207\atlmfc\include\cstringt.h
; File C:\IAGOS\server\v18\Source\Source\_Common\Exchange.cpp
; File C:\Program Files\Microsoft Visual Studio\2022\Professional\VC\Tools\MSVC\14.44.35207\include\vector
; File C:\Program Files\Microsoft Visual Studio\2022\Professional\VC\Tools\MSVC\14.44.35207\include\xutility
; File C:\Program Files\Microsoft Visual Studio\2022\Professional\VC\Tools\MSVC\14.44.35207\include\vector
; File C:\IAGOS\server\v18\Source\Source\_Common\Exchange.cpp
; File C:\Program Files\Microsoft Visual Studio\2022\Professional\VC\Tools\MSVC\14.44.35207\atlmfc\include\cstringt.h
; File C:\IAGOS\server\v18\Source\Source\_Common\Exchange.cpp
; File C:\Program Files\Microsoft Visual Studio\2022\Professional\VC\Tools\MSVC\14.44.35207\atlmfc\include\cstringt.h
; File C:\IAGOS\server\v18\Source\Source\_Common\Exchange.h
; File C:\Program Files\Microsoft Visual Studio\2022\Professional\VC\Tools\MSVC\14.44.35207\atlmfc\include\cstringt.h
; File C:\IAGOS\server\v18\Source\Source\_Common\Exchange.cpp
; File C:\Program Files\Microsoft Visual Studio\2022\Professional\VC\Tools\MSVC\14.44.35207\include\vector
; File C:\Program Files\Microsoft Visual Studio\2022\Professional\VC\Tools\MSVC\14.44.35207\include\xutility
; File C:\Program Files\Microsoft Visual Studio\2022\Professional\VC\Tools\MSVC\14.44.35207\include\vector
; File C:\IAGOS\server\v18\Source\Source\_Common\Exchange.cpp
; File C:\Program Files\Microsoft Visual Studio\2022\Professional\VC\Tools\MSVC\14.44.35207\atlmfc\include\cstringt.h
; File C:\IAGOS\server\v18\Source\Source\_Common\Exchange.cpp
; File C:\Program Files\Microsoft Visual Studio\2022\Professional\VC\Tools\MSVC\14.44.35207\include\vector
; File C:\IAGOS\server\v18\Source\Source\_Common\Exchange.cpp
; File C:\Program Files\Microsoft Visual Studio\2022\Professional\VC\Tools\MSVC\14.44.35207\atlmfc\include\cstringt.h
; File C:\IAGOS\server\v18\Source\Source\_Common\Exchange.cpp
; File C:\Program Files\Microsoft Visual Studio\2022\Professional\VC\Tools\MSVC\14.44.35207\include\vector
; File C:\IAGOS\server\v18\Source\Source\_Common\Exchange.cpp
; File C:\Program Files\Microsoft Visual Studio\2022\Professional\VC\Tools\MSVC\14.44.35207\atlmfc\include\cstringt.h
; File C:\IAGOS\server\v18\Source\Source\_Common\Exchange.cpp
; File C:\IAGOS\server\v18\Source\Source\_Common\Exchange.h
; File C:\IAGOS\server\v18\Source\Source\_Common\Exchange.cpp
; File C:\IAGOS\server\v18\Source\Source\_Common\Scanner.h
; File C:\IAGOS\server\v18\Source\Source\_Common\Exchange.cpp
; File C:\IAGOS\server\v18\Source\Source\_Common\Scanner.h
; File C:\IAGOS\server\v18\Source\Source\_Common\Exchange.cpp
; File C:\Program Files\Microsoft Visual Studio\2022\Professional\VC\Tools\MSVC\14.44.35207\include\vector
; File C:\IAGOS\server\v18\Source\Source\_Common\Exchange.cpp
; File C:\Program Files\Microsoft Visual Studio\2022\Professional\VC\Tools\MSVC\14.44.35207\include\vector
; File C:\Program Files\Microsoft Visual Studio\2022\Professional\VC\Tools\MSVC\14.44.35207\include\xutility
; File C:\Program Files\Microsoft Visual Studio\2022\Professional\VC\Tools\MSVC\14.44.35207\include\vector
; File C:\IAGOS\server\v18\Source\Source\_Common\Exchange.cpp
; File C:\Program Files\Microsoft Visual Studio\2022\Professional\VC\Tools\MSVC\14.44.35207\include\vector
; File C:\Program Files\Microsoft Visual Studio\2022\Professional\VC\Tools\MSVC\14.44.35207\include\xutility
; File C:\Program Files\Microsoft Visual Studio\2022\Professional\VC\Tools\MSVC\14.44.35207\include\vector
; File C:\IAGOS\server\v18\Source\Source\_Common\Exchange.cpp
; File C:\Program Files\Microsoft Visual Studio\2022\Professional\VC\Tools\MSVC\14.44.35207\include\vector
; File C:\IAGOS\server\v18\Source\Source\_Common\Exchange.cpp
; File C:\Program Files\Microsoft Visual Studio\2022\Professional\VC\Tools\MSVC\14.44.35207\include\vector
; File C:\IAGOS\server\v18\Source\Source\_Common\Exchange.cpp
; File C:\Program Files\Microsoft Visual Studio\2022\Professional\VC\Tools\MSVC\14.44.35207\include\vector
; File C:\IAGOS\server\v18\Source\Source\_Common\Exchange.cpp
; File C:\Program Files\Microsoft Visual Studio\2022\Professional\VC\Tools\MSVC\14.44.35207\include\vector
; File C:\IAGOS\server\v18\Source\Source\_Common\Exchange.cpp
; File C:\Program Files\Microsoft Visual Studio\2022\Professional\VC\Tools\MSVC\14.44.35207\include\vector
; File C:\Program Files\Microsoft Visual Studio\2022\Professional\VC\Tools\MSVC\14.44.35207\include\xmemory
; File C:\Program Files\Microsoft Visual Studio\2022\Professional\VC\Tools\MSVC\14.44.35207\include\vector
; File C:\IAGOS\server\v18\Source\Source\_Common\Exchange.cpp
; File C:\Program Files\Microsoft Visual Studio\2022\Professional\VC\Tools\MSVC\14.44.35207\include\vector
; File C:\Program Files\Microsoft Visual Studio\2022\Professional\VC\Tools\MSVC\14.44.35207\include\xmemory
; File C:\Program Files\Microsoft Visual Studio\2022\Professional\VC\Tools\MSVC\14.44.35207\include\vector
; File C:\Program Files\Microsoft Visual Studio\2022\Professional\VC\Tools\MSVC\14.44.35207\include\xmemory
; File C:\Program Files\Microsoft Visual Studio\2022\Professional\VC\Tools\MSVC\14.44.35207\include\vector
; File C:\Program Files\Microsoft Visual Studio\2022\Professional\VC\Tools\MSVC\14.44.35207\include\xmemory
; File C:\Program Files\Microsoft Visual Studio\2022\Professional\VC\Tools\MSVC\14.44.35207\include\vector
; File C:\Program Files\Microsoft Visual Studio\2022\Professional\VC\Tools\MSVC\14.44.35207\include\xmemory
; File C:\Program Files\Microsoft Visual Studio\2022\Professional\VC\Tools\MSVC\14.44.35207\include\vector
; File C:\Program Files\Microsoft Visual Studio\2022\Professional\VC\Tools\MSVC\14.44.35207\include\xmemory
; File C:\Program Files\Microsoft Visual Studio\2022\Professional\VC\Tools\MSVC\14.44.35207\include\vector
; File C:\Program Files\Microsoft Visual Studio\2022\Professional\VC\Tools\MSVC\14.44.35207\include\xmemory
; File C:\Program Files\Microsoft Visual Studio\2022\Professional\VC\Tools\MSVC\14.44.35207\include\vector
; File C:\Program Files\Microsoft Visual Studio\2022\Professional\VC\Tools\MSVC\14.44.35207\include\xmemory
; File C:\Program Files\Microsoft Visual Studio\2022\Professional\VC\Tools\MSVC\14.44.35207\include\vector
; File C:\Program Files\Microsoft Visual Studio\2022\Professional\VC\Tools\MSVC\14.44.35207\include\xmemory
; File C:\Program Files\Microsoft Visual Studio\2022\Professional\VC\Tools\MSVC\14.44.35207\include\vector
; File C:\Program Files\Microsoft Visual Studio\2022\Professional\VC\Tools\MSVC\14.44.35207\include\xmemory
; File C:\IAGOS\server\v18\Source\Source\_Common\Exchange.cpp
; File C:\Program Files\Microsoft Visual Studio\2022\Professional\VC\Tools\MSVC\14.44.35207\include\utility
; File C:\Program Files\Microsoft Visual Studio\2022\Professional\VC\Tools\MSVC\14.44.35207\include\vector
; File C:\Program Files\Microsoft Visual Studio\2022\Professional\VC\Tools\MSVC\14.44.35207\include\xmemory
; File C:\Program Files\Microsoft Visual Studio\2022\Professional\VC\Tools\MSVC\14.44.35207\include\vector
; File C:\Program Files\Microsoft Visual Studio\2022\Professional\VC\Tools\MSVC\14.44.35207\include\xmemory
; File C:\Program Files\Microsoft Visual Studio\2022\Professional\VC\Tools\MSVC\14.44.35207\include\vector
; File C:\Program Files\Microsoft Visual Studio\2022\Professional\VC\Tools\MSVC\14.44.35207\include\xmemory
; File C:\Program Files\Microsoft Visual Studio\2022\Professional\VC\Tools\MSVC\14.44.35207\include\vector
; File C:\Program Files\Microsoft Visual Studio\2022\Professional\VC\Tools\MSVC\14.44.35207\include\xmemory
; File C:\Program Files\Microsoft Visual Studio\2022\Professional\VC\Tools\MSVC\14.44.35207\include\vector
; File C:\IAGOS\server\v18\Source\Source\_Common\Exchange.cpp
; File C:\Program Files\Microsoft Visual Studio\2022\Professional\VC\Tools\MSVC\14.44.35207\include\xtree
; File C:\IAGOS\server\v18\Source\Source\_Common\Exchange.cpp
; File C:\Program Files\Microsoft Visual Studio\2022\Professional\VC\Tools\MSVC\14.44.35207\include\xtree
; File C:\Program Files\Microsoft Visual Studio\2022\Professional\VC\Tools\MSVC\14.44.35207\include\type_traits
; File C:\Program Files\Microsoft Visual Studio\2022\Professional\VC\Tools\MSVC\14.44.35207\include\xtree
; File C:\Program Files\Microsoft Visual Studio\2022\Professional\VC\Tools\MSVC\14.44.35207\include\xmemory
; File C:\Program Files\Microsoft Visual Studio\2022\Professional\VC\Tools\MSVC\14.44.35207\include\xtree
; File C:\Program Files\Microsoft Visual Studio\2022\Professional\VC\Tools\MSVC\14.44.35207\include\xmemory
; File C:\Program Files\Microsoft Visual Studio\2022\Professional\VC\Tools\MSVC\14.44.35207\include\utility
; File C:\Program Files\Microsoft Visual Studio\2022\Professional\VC\Tools\MSVC\14.44.35207\include\xmemory
; File C:\Program Files\Microsoft Visual Studio\2022\Professional\VC\Tools\MSVC\14.44.35207\include\utility
; File C:\Program Files\Microsoft Visual Studio\2022\Professional\VC\Tools\MSVC\14.44.35207\include\vector
; File C:\Program Files\Microsoft Visual Studio\2022\Professional\VC\Tools\MSVC\14.44.35207\include\utility
; File C:\Program Files\Microsoft Visual Studio\2022\Professional\VC\Tools\MSVC\14.44.35207\include\vector
; File C:\Program Files\Microsoft Visual Studio\2022\Professional\VC\Tools\MSVC\14.44.35207\include\xtree
; File C:\Program Files\Microsoft Visual Studio\2022\Professional\VC\Tools\MSVC\14.44.35207\include\vector
; File C:\Program Files\Microsoft Visual Studio\2022\Professional\VC\Tools\MSVC\14.44.35207\include\xtree
; File C:\Program Files\Microsoft Visual Studio\2022\Professional\VC\Tools\MSVC\14.44.35207\include\vector
; File C:\Program Files\Microsoft Visual Studio\2022\Professional\VC\Tools\MSVC\14.44.35207\include\xtree
; File C:\IAGOS\server\v18\Source\Source\_Common\Exchange.cpp
; File C:\Program Files\Microsoft Visual Studio\2022\Professional\VC\Tools\MSVC\14.44.35207\include\vector
; File C:\Program Files\Microsoft Visual Studio\2022\Professional\VC\Tools\MSVC\14.44.35207\include\xmemory
; File C:\Program Files\Microsoft Visual Studio\2022\Professional\VC\Tools\MSVC\14.44.35207\include\vector
; File C:\IAGOS\server\v18\Source\Source\_Common\Exchange.cpp
; File C:\Program Files\Microsoft Visual Studio\2022\Professional\VC\Tools\MSVC\14.44.35207\include\vector
; File C:\IAGOS\server\v18\Source\Source\_Common\Exchange.cpp
; File C:\Program Files\Microsoft Visual Studio\2022\Professional\VC\Tools\MSVC\14.44.35207\include\vector
; File C:\Program Files\Microsoft Visual Studio\2022\Professional\VC\Tools\MSVC\14.44.35207\include\xmemory
; File C:\Program Files\Microsoft Visual Studio\2022\Professional\VC\Tools\MSVC\14.44.35207\include\vector
; File C:\Program Files\Microsoft Visual Studio\2022\Professional\VC\Tools\MSVC\14.44.35207\include\xmemory
; File C:\Program Files\Microsoft Visual Studio\2022\Professional\VC\Tools\MSVC\14.44.35207\include\vector
; File C:\Program Files\Microsoft Visual Studio\2022\Professional\VC\Tools\MSVC\14.44.35207\include\xmemory
; File C:\Program Files\Microsoft Visual Studio\2022\Professional\VC\Tools\MSVC\14.44.35207\include\vector
; File C:\Program Files\Microsoft Visual Studio\2022\Professional\VC\Tools\MSVC\14.44.35207\include\xmemory
; File C:\IAGOS\server\v18\Source\Source\_Common\Exchange.cpp
; File C:\Program Files\Microsoft Visual Studio\2022\Professional\VC\Tools\MSVC\14.44.35207\atlmfc\include\atlsimpstr.h
; File C:\IAGOS\server\v18\Source\Source\_Common\Exchange.cpp
; File C:\Program Files\Microsoft Visual Studio\2022\Professional\VC\Tools\MSVC\14.44.35207\include\xtree
; File C:\Program Files\Microsoft Visual Studio\2022\Professional\VC\Tools\MSVC\14.44.35207\atlmfc\include\atlsimpstr.h
; File C:\IAGOS\server\v18\Source\Source\_Common\Exchange.cpp
; File C:\Program Files\Microsoft Visual Studio\2022\Professional\VC\Tools\MSVC\14.44.35207\include\vector
; File C:\IAGOS\server\v18\Source\Source\_Common\Exchange.cpp
;	COMDAT ?Load_Script@CExchange@@QAEHXZ
_TEXT	SEGMENT
$T2 = -2420						; size = 12
__Loc$3 = -2408						; size = 12
__Guard$4 = -2396					; size = 4
$T5 = -2392						; size = 8
__Backout$6 = -2384					; size = 12
_item$7 = -2372						; size = 16
_item$8 = -2356						; size = 16
_point$9 = -2340					; size = 8
_point$10 = -2332					; size = 8
_item$11 = -2324					; size = 16
_Set$12 = -2308						; size = 80
_this$GSCopy$1$ = -2228					; size = 4
_create$13 = -2224					; size = 24
_this$ = -2200						; size = 4
_nMMIId$1$ = -2200					; size = 4
__SourceSize$1$ = -2200					; size = 4
$T14 = -2196						; size = 28
_nCount$1$ = -2168					; size = 4
tv3896 = -2168						; size = 4
__ULast$1$ = -2168					; size = 4
_strErrorMMIId$ = -2164					; size = 4
$T15 = -2160						; size = 4
$T16 = -2160						; size = 4
_pOldData$1$ = -2160					; size = 4
__Myhead$1$ = -2160					; size = 4
_nSumProb$1$ = -2156					; size = 4
__Source$1$ = -2156					; size = 4
$T17 = -2156						; size = 4
_s$ = -2152						; size = 2136
__$ArrayPad$ = -16					; size = 4
__$EHRec$ = -12						; size = 12
?Load_Script@CExchange@@QAEHXZ PROC			; CExchange::Load_Script, COMDAT
; _this$ = ecx

; 35   : {

  00000	55		 push	 ebp
  00001	8b ec		 mov	 ebp, esp
  00003	6a ff		 push	 -1
  00005	68 00 00 00 00	 push	 __ehhandler$?Load_Script@CExchange@@QAEHXZ
  0000a	64 a1 00 00 00
	00		 mov	 eax, DWORD PTR fs:0
  00010	50		 push	 eax
  00011	81 ec 68 09 00
	00		 sub	 esp, 2408		; 00000968H
  00017	a1 00 00 00 00	 mov	 eax, DWORD PTR ___security_cookie
  0001c	33 c5		 xor	 eax, ebp
  0001e	89 45 f0	 mov	 DWORD PTR __$ArrayPad$[ebp], eax
  00021	56		 push	 esi
  00022	57		 push	 edi
  00023	50		 push	 eax
  00024	8d 45 f4	 lea	 eax, DWORD PTR __$EHRec$[ebp]
  00027	64 a3 00 00 00
	00		 mov	 DWORD PTR fs:0, eax
  0002d	89 8d 4c f7 ff
	ff		 mov	 DWORD PTR _this$GSCopy$1$[ebp], ecx

; 36   : 	CScanner s;

  00033	6a 00		 push	 0
  00035	8d 8d 98 f7 ff
	ff		 lea	 ecx, DWORD PTR _s$[ebp]
  0003b	e8 00 00 00 00	 call	 ??0CScanner@@QAE@H@Z	; CScanner::CScanner

; 37   : 	
; 38   : 	if( !s.Load( "Exchange_Script.txt" ) )

  00040	6a 01		 push	 1
  00042	68 00 00 00 00	 push	 OFFSET ??_C@_0BE@LGHDIFOO@Exchange_Script?4txt@
  00047	8d 8d 98 f7 ff
	ff		 lea	 ecx, DWORD PTR _s$[ebp]
  0004d	c7 45 fc 00 00
	00 00		 mov	 DWORD PTR __$EHRec$[ebp+8], 0
  00054	e8 00 00 00 00	 call	 ?Load@CScanner@@QAEHPBDH@Z ; CScanner::Load
  00059	85 c0		 test	 eax, eax
  0005b	75 07		 jne	 SHORT $LN22@Load_Scrip
  0005d	33 ff		 xor	 edi, edi
  0005f	e9 82 10 00 00	 jmp	 $LN995@Load_Scrip
$LN22@Load_Scrip:
; File C:\Program Files\Microsoft Visual Studio\2022\Professional\VC\Tools\MSVC\14.44.35207\atlmfc\include\afxstr.h

; 56   : 		return( AfxGetStringManager() );

  00064	e8 00 00 00 00	 call	 ?AfxGetStringManager@@YGPAUIAtlStringMgr@ATL@@XZ ; AfxGetStringManager
  00069	8b c8		 mov	 ecx, eax
; File C:\Program Files\Microsoft Visual Studio\2022\Professional\VC\Tools\MSVC\14.44.35207\atlmfc\include\atlsimpstr.h

; 209  : 		ATLENSURE( pStringMgr != NULL );

  0006b	85 c9		 test	 ecx, ecx
  0006d	0f 84 a0 10 00
	00		 je	 $LN1087@Load_Scrip

; 210  : 		CStringData* pData = pStringMgr->GetNilString();

  00073	8b 01		 mov	 eax, DWORD PTR [ecx]
  00075	8b 40 0c	 mov	 eax, DWORD PTR [eax+12]
  00078	ff d0		 call	 eax

; 211  : 		Attach( pData );

  0007a	8d 70 10	 lea	 esi, DWORD PTR [eax+16]
  0007d	89 b5 8c f7 ff
	ff		 mov	 DWORD PTR _strErrorMMIId$[ebp], esi
; File C:\IAGOS\server\v18\Source\Source\_Common\Exchange.cpp

; 42   : 	s.GetToken(); 

  00083	6a 00		 push	 0
  00085	8d 8d 98 f7 ff
	ff		 lea	 ecx, DWORD PTR _s$[ebp]
  0008b	c6 45 fc 01	 mov	 BYTE PTR __$EHRec$[ebp+8], 1
  0008f	e8 00 00 00 00	 call	 ?GetToken@CScanner@@UAEHH@Z ; CScanner::GetToken

; 43   : 	while( s.tok != FINISHED )

  00094	83 c8 ff	 or	 eax, -1
  00097	83 7d dc 15	 cmp	 DWORD PTR _s$[ebp+2116], 21 ; 00000015H
  0009b	0f 84 27 10 00
	00		 je	 $LN3@Load_Scrip
$LL2@Load_Scrip:
; File C:\Program Files\Microsoft Visual Studio\2022\Professional\VC\Tools\MSVC\14.44.35207\atlmfc\include\atlsimpstr.h

; 804  : 		return( reinterpret_cast< CStringData* >( m_pszData )-1 );

  000a1	8b 85 b8 f7 ff
	ff		 mov	 eax, DWORD PTR _s$[ebp+32]
  000a7	8d 4e f0	 lea	 ecx, DWORD PTR [esi-16]
  000aa	89 8d 90 f7 ff
	ff		 mov	 DWORD PTR _pOldData$1$[ebp], ecx
  000b0	8d 78 f0	 lea	 edi, DWORD PTR [eax-16]

; 278  : 		if( pSrcData != pOldData)

  000b3	3b f9		 cmp	 edi, ecx
  000b5	0f 84 1d 01 00
	00		 je	 $LN490@Load_Scrip

; 73   : 		return nRefs < 0;

  000bb	83 79 0c 00	 cmp	 DWORD PTR [ecx+12], 0
  000bf	8d 51 0c	 lea	 edx, DWORD PTR [ecx+12]
  000c2	89 95 88 f7 ff
	ff		 mov	 DWORD PTR tv3896[ebp], edx

; 280  : 			if( pOldData->IsLocked() || pSrcData->pStringMgr != pOldData->pStringMgr )

  000c8	0f 8c ef 00 00
	00		 jl	 $LN491@Load_Scrip
  000ce	8b 17		 mov	 edx, DWORD PTR [edi]
  000d0	3b 11		 cmp	 edx, DWORD PTR [ecx]
  000d2	0f 85 e5 00 00
	00		 jne	 $LN491@Load_Scrip

; 886  : 		IAtlStringMgr* pNewStringMgr = pData->pStringMgr->Clone();

  000d8	8b 02		 mov	 eax, DWORD PTR [edx]
  000da	8b ca		 mov	 ecx, edx
  000dc	8b 40 10	 mov	 eax, DWORD PTR [eax+16]
  000df	ff d0		 call	 eax

; 73   : 		return nRefs < 0;

  000e1	83 7f 0c 00	 cmp	 DWORD PTR [edi+12], 0

; 886  : 		IAtlStringMgr* pNewStringMgr = pData->pStringMgr->Clone();

  000e5	8b c8		 mov	 ecx, eax

; 73   : 		return nRefs < 0;

  000e7	8d 47 0c	 lea	 eax, DWORD PTR [edi+12]

; 887  : 		if( !pData->IsLocked() && (pNewStringMgr == pData->pStringMgr) )

  000ea	7c 0e		 jl	 SHORT $LN504@Load_Scrip
  000ec	3b 0f		 cmp	 ecx, DWORD PTR [edi]
  000ee	75 0a		 jne	 SHORT $LN504@Load_Scrip

; 888  : 		{
; 889  : 			pNewData = pData;

  000f0	8b f7		 mov	 esi, edi

; 69   : 		_InterlockedIncrement(&nRefs);

  000f2	f0 ff 00	 lock	  inc	 DWORD PTR [eax]

; 891  : 		}

  000f5	e9 98 00 00 00	 jmp	 $LN518@Load_Scrip
$LN504@Load_Scrip:

; 892  : 		else
; 893  : 		{
; 894  : 			pNewData = pNewStringMgr->Allocate( pData->nDataLength, sizeof( XCHAR ) );

  000fa	8b 01		 mov	 eax, DWORD PTR [ecx]
  000fc	6a 01		 push	 1
  000fe	ff 77 04	 push	 DWORD PTR [edi+4]
  00101	8b 00		 mov	 eax, DWORD PTR [eax]
  00103	ff d0		 call	 eax
  00105	8b f0		 mov	 esi, eax

; 895  : 			if( pNewData == NULL )

  00107	85 f6		 test	 esi, esi
  00109	0f 84 0e 10 00
	00		 je	 $LN1026@Load_Scrip

; 898  : 			}
; 899  : 			pNewData->nDataLength = pData->nDataLength;

  0010f	8b 57 04	 mov	 edx, DWORD PTR [edi+4]

; 900  : 			memcpy_s( PXSTR( pNewData->data() ), (pNewData->nDataLength+1) * sizeof( XCHAR ),

  00112	8d 4f 10	 lea	 ecx, DWORD PTR [edi+16]
  00115	89 56 04	 mov	 DWORD PTR [esi+4], edx
  00118	8b 47 04	 mov	 eax, DWORD PTR [edi+4]
  0011b	83 c0 01	 add	 eax, 1
  0011e	89 8d 94 f7 ff
	ff		 mov	 DWORD PTR __Source$1$[ebp], ecx
  00124	8d 7a 01	 lea	 edi, DWORD PTR [edx+1]
  00127	89 85 68 f7 ff
	ff		 mov	 DWORD PTR __SourceSize$1$[ebp], eax
  0012d	8d 56 10	 lea	 edx, DWORD PTR [esi+16]
; File C:\Program Files (x86)\Windows Kits\10\Include\10.0.26100.0\ucrt\corecrt_memcpy_s.h

; 47   :         if (_SourceSize == 0)

  00130	74 60		 je	 SHORT $LN518@Load_Scrip

; 48   :         {
; 49   :             return 0;
; 50   :         }
; 51   : 
; 52   :         _CRT_MEMCPY_S_VALIDATE_RETURN_ERRCODE(_Destination != NULL, EINVAL);

  00132	85 d2		 test	 edx, edx
  00134	75 0d		 jne	 SHORT $LN514@Load_Scrip
  00136	e8 00 00 00 00	 call	 __errno
  0013b	c7 00 16 00 00
	00		 mov	 DWORD PTR [eax], 22	; 00000016H
  00141	eb 4a		 jmp	 SHORT $LN1082@Load_Scrip
$LN514@Load_Scrip:

; 53   :         if (_Source == NULL || _DestinationSize < _SourceSize)

  00143	85 c9		 test	 ecx, ecx
  00145	74 11		 je	 SHORT $LN516@Load_Scrip
  00147	3b f8		 cmp	 edi, eax
  00149	72 0d		 jb	 SHORT $LN516@Load_Scrip

; 59   : 
; 60   :             // Unreachable, but required to suppress /analyze warnings:
; 61   :             return EINVAL;
; 62   :         }
; 63   :         memcpy(_Destination, _Source, _SourceSize);

  0014b	50		 push	 eax
  0014c	51		 push	 ecx
  0014d	52		 push	 edx
  0014e	e8 00 00 00 00	 call	 _memcpy
  00153	83 c4 0c	 add	 esp, 12			; 0000000cH
  00156	eb 3a		 jmp	 SHORT $LN518@Load_Scrip
$LN516@Load_Scrip:

; 54   :         {
; 55   :             memset(_Destination, 0, _DestinationSize);

  00158	57		 push	 edi
  00159	6a 00		 push	 0
  0015b	52		 push	 edx
  0015c	e8 00 00 00 00	 call	 _memset
  00161	83 c4 0c	 add	 esp, 12			; 0000000cH

; 56   : 
; 57   :             _CRT_MEMCPY_S_VALIDATE_RETURN_ERRCODE(_Source != NULL,                 EINVAL);

  00164	83 bd 94 f7 ff
	ff 00		 cmp	 DWORD PTR __Source$1$[ebp], 0
  0016b	75 0d		 jne	 SHORT $LN517@Load_Scrip
  0016d	e8 00 00 00 00	 call	 __errno
  00172	c7 00 16 00 00
	00		 mov	 DWORD PTR [eax], 22	; 00000016H
  00178	eb 13		 jmp	 SHORT $LN1082@Load_Scrip
$LN517@Load_Scrip:

; 58   :             _CRT_MEMCPY_S_VALIDATE_RETURN_ERRCODE(_DestinationSize >= _SourceSize, ERANGE);

  0017a	3b bd 68 f7 ff
	ff		 cmp	 edi, DWORD PTR __SourceSize$1$[ebp]
  00180	73 10		 jae	 SHORT $LN518@Load_Scrip
  00182	e8 00 00 00 00	 call	 __errno
  00187	c7 00 22 00 00
	00		 mov	 DWORD PTR [eax], 34	; 00000022H
$LN1082@Load_Scrip:
; File C:\Program Files\Microsoft Visual Studio\2022\Professional\VC\Tools\MSVC\14.44.35207\atlmfc\include\atlsimpstr.h

; 92   : 		if( _InterlockedDecrement( &nRefs ) <= 0 )

  0018d	e8 00 00 00 00	 call	 __invalid_parameter_noinfo
$LN518@Load_Scrip:
  00192	8b 8d 88 f7 ff
	ff		 mov	 ecx, DWORD PTR tv3896[ebp]
  00198	83 c8 ff	 or	 eax, -1
  0019b	f0 0f c1 01	 lock	  xadd	 DWORD PTR [ecx], eax
  0019f	48		 dec	 eax
  001a0	85 c0		 test	 eax, eax
  001a2	7f 0e		 jg	 SHORT $LN522@Load_Scrip

; 93   : 		{
; 94   : 			pStringMgr->Free( this );

  001a4	8b 95 90 f7 ff
	ff		 mov	 edx, DWORD PTR _pOldData$1$[ebp]
  001aa	52		 push	 edx
  001ab	8b 0a		 mov	 ecx, DWORD PTR [edx]
  001ad	8b 01		 mov	 eax, DWORD PTR [ecx]
  001af	ff 50 04	 call	 DWORD PTR [eax+4]
$LN522@Load_Scrip:

; 288  : 				Attach( pNewData );

  001b2	83 c6 10	 add	 esi, 16			; 00000010H
  001b5	89 b5 8c f7 ff
	ff		 mov	 DWORD PTR _strErrorMMIId$[ebp], esi
  001bb	eb 15		 jmp	 SHORT $LN1083@Load_Scrip
$LN491@Load_Scrip:

; 281  : 			{
; 282  : 				SetString( strSrc.GetString(), strSrc.GetLength() );

  001bd	ff 70 f4	 push	 DWORD PTR [eax-12]
  001c0	8d 8d 8c f7 ff
	ff		 lea	 ecx, DWORD PTR _strErrorMMIId$[ebp]
  001c6	50		 push	 eax
  001c7	e8 00 00 00 00	 call	 ?SetString@?$CSimpleStringT@D$0A@@ATL@@QAEXPBDH@Z ; ATL::CSimpleStringT<char,0>::SetString
  001cc	8b b5 8c f7 ff
	ff		 mov	 esi, DWORD PTR _strErrorMMIId$[ebp]
$LN1083@Load_Scrip:
; File C:\IAGOS\server\v18\Source\Source\_Common\Exchange.cpp

; 46   : 		int nMMIId = CScript::GetDefineNum( s.Token ); //MMI ID

  001d2	8b 85 b8 f7 ff
	ff		 mov	 eax, DWORD PTR _s$[ebp+32]
$LN490@Load_Scrip:
  001d8	50		 push	 eax
  001d9	e8 00 00 00 00	 call	 ?GetDefineNum@CScript@@SAHPBD@Z ; CScript::GetDefineNum
  001de	83 c4 04	 add	 esp, 4
  001e1	89 85 68 f7 ff
	ff		 mov	 DWORD PTR _nMMIId$1$[ebp], eax

; 47   : 		s.GetToken(); // {

  001e7	8d 8d 98 f7 ff
	ff		 lea	 ecx, DWORD PTR _s$[ebp]
  001ed	6a 00		 push	 0
  001ef	e8 00 00 00 00	 call	 ?GetToken@CScanner@@UAEHH@Z ; CScanner::GetToken

; 48   : 		s.GetToken();

  001f4	6a 00		 push	 0
  001f6	8d 8d 98 f7 ff
	ff		 lea	 ecx, DWORD PTR _s$[ebp]
  001fc	e8 00 00 00 00	 call	 ?GetToken@CScanner@@UAEHH@Z ; CScanner::GetToken
  00201	0f 57 c0	 xorps	 xmm0, xmm0
; File C:\Program Files\Microsoft Visual Studio\2022\Professional\VC\Tools\MSVC\14.44.35207\include\vector

; 400  :     _CONSTEXPR20 _Vector_val() noexcept : _Myfirst(), _Mylast(), _Myend() {}

  00204	c7 85 60 f7 ff
	ff 00 00 00 00	 mov	 DWORD PTR _create$13[ebp+16], 0
  0020e	0f 11 85 50 f7
	ff ff		 movups	 XMMWORD PTR _create$13[ebp], xmm0
  00215	c7 85 64 f7 ff
	ff 00 00 00 00	 mov	 DWORD PTR _create$13[ebp+20], 0
; File C:\IAGOS\server\v18\Source\Source\_Common\Exchange.cpp

; 51   : 		while( *s.token != '}' )

  0021f	8b 85 d4 f7 ff
	ff		 mov	 eax, DWORD PTR _s$[ebp+60]
  00225	33 ff		 xor	 edi, edi
  00227	c6 45 fc 02	 mov	 BYTE PTR __$EHRec$[ebp+8], 2
  0022b	80 38 7d	 cmp	 BYTE PTR [eax], 125	; 0000007dH
  0022e	0f 84 62 0a 00
	00		 je	 $LN1047@Load_Scrip
  00234	0f 1f 40 00 0f
	1f 84 00 00 00
	00 00		 npad	 12
$LL4@Load_Scrip:
; File C:\Program Files\Microsoft Visual Studio\2022\Professional\VC\Tools\MSVC\14.44.35207\atlmfc\include\cstringt.h

; 184  : 		return _mbscmp( reinterpret_cast< const unsigned char* >( pszA ), reinterpret_cast< const unsigned char* >( pszB ) );

  00240	68 00 00 00 00	 push	 OFFSET ??_C@_0M@FBMBBIBH@DESCRIPTION@
  00245	ff b5 b8 f7 ff
	ff		 push	 DWORD PTR _s$[ebp+32]
  0024b	e8 00 00 00 00	 call	 __mbscmp
  00250	83 c4 08	 add	 esp, 8

; 2490 : 		return(str1.Compare(psz2) == 0);

  00253	85 c0		 test	 eax, eax
; File C:\IAGOS\server\v18\Source\Source\_Common\Exchange.cpp

; 53   : 			if( s.Token == _T( "DESCRIPTION" ) )

  00255	0f 85 85 00 00
	00		 jne	 $LN215@Load_Scrip

; 54   : 			{
; 55   : 				s.GetToken(); // {

  0025b	50		 push	 eax
  0025c	8d 8d 98 f7 ff
	ff		 lea	 ecx, DWORD PTR _s$[ebp]
  00262	e8 00 00 00 00	 call	 ?GetToken@CScanner@@UAEHH@Z ; CScanner::GetToken

; 56   : 				s.GetToken(); // Ľł¸í TEXT ID

  00267	6a 00		 push	 0
  00269	8d 8d 98 f7 ff
	ff		 lea	 ecx, DWORD PTR _s$[ebp]
  0026f	e8 00 00 00 00	 call	 ?GetToken@CScanner@@UAEHH@Z ; CScanner::GetToken

; 57   : 				while( *s.token != '}' )

  00274	8b 85 d4 f7 ff
	ff		 mov	 eax, DWORD PTR _s$[ebp+60]
  0027a	80 38 7d	 cmp	 BYTE PTR [eax], 125	; 0000007dH
  0027d	0f 84 f7 09 00
	00		 je	 $LN432@Load_Scrip
$LL6@Load_Scrip:

; 59   : 					create.vecDesciprtionId.push_back( CScript::GetDefineNum( s.Token ) );

  00283	ff b5 b8 f7 ff
	ff		 push	 DWORD PTR _s$[ebp+32]
  00289	e8 00 00 00 00	 call	 ?GetDefineNum@CScript@@SAHPBD@Z ; CScript::GetDefineNum
; File C:\Program Files\Microsoft Visual Studio\2022\Professional\VC\Tools\MSVC\14.44.35207\include\vector

; 844  :         if (_Mylast != _My_data._Myend) {

  0028e	8b 8d 54 f7 ff
	ff		 mov	 ecx, DWORD PTR _create$13[ebp+4]
; File C:\IAGOS\server\v18\Source\Source\_Common\Exchange.cpp

; 59   : 					create.vecDesciprtionId.push_back( CScript::GetDefineNum( s.Token ) );

  00294	83 c4 04	 add	 esp, 4
  00297	89 85 90 f7 ff
	ff		 mov	 DWORD PTR $T15[ebp], eax
; File C:\Program Files\Microsoft Visual Studio\2022\Professional\VC\Tools\MSVC\14.44.35207\include\vector

; 844  :         if (_Mylast != _My_data._Myend) {

  0029d	3b 8d 58 f7 ff
	ff		 cmp	 ecx, DWORD PTR _create$13[ebp+8]
  002a3	74 0b		 je	 SHORT $LN99@Load_Scrip

; 860  :             _STD _Construct_in_place(*_Mylast, _STD forward<_Valty>(_Val)...);

  002a5	89 01		 mov	 DWORD PTR [ecx], eax

; 869  :         ++_Mylast;

  002a7	83 85 54 f7 ff
	ff 04		 add	 DWORD PTR _create$13[ebp+4], 4

; 845  :             return _Emplace_back_with_unused_capacity(_STD forward<_Valty>(_Val)...);

  002ae	eb 13		 jmp	 SHORT $LN98@Load_Scrip
$LN99@Load_Scrip:

; 846  :         }
; 847  : 
; 848  :         return *_Emplace_reallocate(_Mylast, _STD forward<_Valty>(_Val)...);

  002b0	8d 85 90 f7 ff
	ff		 lea	 eax, DWORD PTR $T15[ebp]
  002b6	50		 push	 eax
  002b7	51		 push	 ecx
  002b8	8d 8d 50 f7 ff
	ff		 lea	 ecx, DWORD PTR _create$13[ebp]
  002be	e8 00 00 00 00	 call	 ??$_Emplace_reallocate@H@?$vector@HV?$allocator@H@std@@@std@@AAEPAHQAH$$QAH@Z ; std::vector<int,std::allocator<int> >::_Emplace_reallocate<int>
$LN98@Load_Scrip:
; File C:\IAGOS\server\v18\Source\Source\_Common\Exchange.cpp

; 60   : 					s.GetToken();

  002c3	6a 00		 push	 0
  002c5	8d 8d 98 f7 ff
	ff		 lea	 ecx, DWORD PTR _s$[ebp]
  002cb	e8 00 00 00 00	 call	 ?GetToken@CScanner@@UAEHH@Z ; CScanner::GetToken
  002d0	8b 85 d4 f7 ff
	ff		 mov	 eax, DWORD PTR _s$[ebp+60]
  002d6	80 38 7d	 cmp	 BYTE PTR [eax], 125	; 0000007dH
  002d9	75 a8		 jne	 SHORT $LL6@Load_Scrip

; 61   : 				}
; 62   : 			}

  002db	e9 9a 09 00 00	 jmp	 $LN432@Load_Scrip
$LN215@Load_Scrip:
; File C:\Program Files\Microsoft Visual Studio\2022\Professional\VC\Tools\MSVC\14.44.35207\atlmfc\include\cstringt.h

; 184  : 		return _mbscmp( reinterpret_cast< const unsigned char* >( pszA ), reinterpret_cast< const unsigned char* >( pszB ) );

  002e0	68 00 00 00 00	 push	 OFFSET ??_C@_03KPIFFHNE@SET@
  002e5	ff b5 b8 f7 ff
	ff		 push	 DWORD PTR _s$[ebp+32]
  002eb	e8 00 00 00 00	 call	 __mbscmp
  002f0	83 c4 08	 add	 esp, 8

; 2490 : 		return(str1.Compare(psz2) == 0);

  002f3	85 c0		 test	 eax, eax
; File C:\IAGOS\server\v18\Source\Source\_Common\Exchange.cpp

; 63   : 			else if( s.Token == _T( "SET" ) )

  002f5	0f 85 7f 09 00
	00		 jne	 $LN432@Load_Scrip
  002fb	0f 57 c0	 xorps	 xmm0, xmm0
; File C:\Program Files\Microsoft Visual Studio\2022\Professional\VC\Tools\MSVC\14.44.35207\include\vector

; 400  :     _CONSTEXPR20 _Vector_val() noexcept : _Myfirst(), _Mylast(), _Myend() {}

  002fe	89 85 40 f7 ff
	ff		 mov	 DWORD PTR _Set$12[ebp+68], eax
; File C:\IAGOS\server\v18\Source\Source\_Common\Exchange.cpp

; 65   : 				nCount++;

  00304	47		 inc	 edi
; File C:\Program Files\Microsoft Visual Studio\2022\Professional\VC\Tools\MSVC\14.44.35207\include\vector

; 400  :     _CONSTEXPR20 _Vector_val() noexcept : _Myfirst(), _Mylast(), _Myend() {}

  00305	89 85 44 f7 ff
	ff		 mov	 DWORD PTR _Set$12[ebp+72], eax
; File C:\IAGOS\server\v18\Source\Source\_Common\Exchange.cpp

; 65   : 				nCount++;

  0030b	89 bd 88 f7 ff
	ff		 mov	 DWORD PTR _nCount$1$[ebp], edi
; File C:\Program Files\Microsoft Visual Studio\2022\Professional\VC\Tools\MSVC\14.44.35207\include\vector

; 400  :     _CONSTEXPR20 _Vector_val() noexcept : _Myfirst(), _Mylast(), _Myend() {}

  00311	0f 11 85 00 f7
	ff ff		 movups	 XMMWORD PTR _Set$12[ebp+4], xmm0
; File C:\IAGOS\server\v18\Source\Source\_Common\Exchange.h

; 56   : 			nSetTextId = NULL_ID;

  00318	c7 85 fc f6 ff
	ff ff ff ff ff	 mov	 DWORD PTR _Set$12[ebp], -1
; File C:\Program Files\Microsoft Visual Studio\2022\Professional\VC\Tools\MSVC\14.44.35207\include\vector

; 400  :     _CONSTEXPR20 _Vector_val() noexcept : _Myfirst(), _Mylast(), _Myend() {}

  00322	0f 11 85 10 f7
	ff ff		 movups	 XMMWORD PTR _Set$12[ebp+20], xmm0
; File C:\IAGOS\server\v18\Source\Source\_Common\Exchange.h

; 57   : 			nPayNum = 0;

  00329	89 85 48 f7 ff
	ff		 mov	 DWORD PTR _Set$12[ebp+76], eax
; File C:\Program Files\Microsoft Visual Studio\2022\Professional\VC\Tools\MSVC\14.44.35207\include\vector

; 400  :     _CONSTEXPR20 _Vector_val() noexcept : _Myfirst(), _Mylast(), _Myend() {}

  0032f	0f 11 85 20 f7
	ff ff		 movups	 XMMWORD PTR _Set$12[ebp+36], xmm0
  00336	0f 11 85 30 f7
	ff ff		 movups	 XMMWORD PTR _Set$12[ebp+52], xmm0
; File C:\IAGOS\server\v18\Source\Source\_Common\Exchange.cpp

; 67   : 				s.GetToken();	// List Text ID;

  0033d	50		 push	 eax
  0033e	8d 8d 98 f7 ff
	ff		 lea	 ecx, DWORD PTR _s$[ebp]
  00344	c6 45 fc 03	 mov	 BYTE PTR __$EHRec$[ebp+8], 3
  00348	e8 00 00 00 00	 call	 ?GetToken@CScanner@@UAEHH@Z ; CScanner::GetToken

; 68   : 				Set.nSetTextId = CScript::GetDefineNum( s.Token );

  0034d	ff b5 b8 f7 ff
	ff		 push	 DWORD PTR _s$[ebp+32]
  00353	e8 00 00 00 00	 call	 ?GetDefineNum@CScript@@SAHPBD@Z ; CScript::GetDefineNum
  00358	83 c4 04	 add	 esp, 4
  0035b	89 85 fc f6 ff
	ff		 mov	 DWORD PTR _Set$12[ebp], eax

; 69   : 				s.GetToken(); // {

  00361	8d 8d 98 f7 ff
	ff		 lea	 ecx, DWORD PTR _s$[ebp]
  00367	6a 00		 push	 0
  00369	e8 00 00 00 00	 call	 ?GetToken@CScanner@@UAEHH@Z ; CScanner::GetToken

; 70   : 				s.GetToken();

  0036e	6a 00		 push	 0
  00370	8d 8d 98 f7 ff
	ff		 lea	 ecx, DWORD PTR _s$[ebp]
  00376	e8 00 00 00 00	 call	 ?GetToken@CScanner@@UAEHH@Z ; CScanner::GetToken

; 71   : 				while( *s.token != '}' )

  0037b	8b 85 d4 f7 ff
	ff		 mov	 eax, DWORD PTR _s$[ebp+60]
  00381	80 38 7d	 cmp	 BYTE PTR [eax], 125	; 0000007dH
  00384	0f 84 9d 06 00
	00		 je	 $LN1046@Load_Scrip
  0038a	66 0f 1f 44 00
	00		 npad	 6
$LL8@Load_Scrip:
; File C:\Program Files\Microsoft Visual Studio\2022\Professional\VC\Tools\MSVC\14.44.35207\atlmfc\include\cstringt.h

; 184  : 		return _mbscmp( reinterpret_cast< const unsigned char* >( pszA ), reinterpret_cast< const unsigned char* >( pszB ) );

  00390	68 00 00 00 00	 push	 OFFSET ??_C@_09JCGANPFG@RESULTMSG@
  00395	ff b5 b8 f7 ff
	ff		 push	 DWORD PTR _s$[ebp+32]
  0039b	e8 00 00 00 00	 call	 __mbscmp
  003a0	83 c4 08	 add	 esp, 8

; 2490 : 		return(str1.Compare(psz2) == 0);

  003a3	85 c0		 test	 eax, eax
; File C:\IAGOS\server\v18\Source\Source\_Common\Exchange.cpp

; 73   : 					if( s.Token == _T( "RESULTMSG" ) )

  003a5	0f 85 85 00 00
	00		 jne	 $LN156@Load_Scrip

; 74   : 					{
; 75   : 						s.GetToken(); // {

  003ab	50		 push	 eax
  003ac	8d 8d 98 f7 ff
	ff		 lea	 ecx, DWORD PTR _s$[ebp]
  003b2	e8 00 00 00 00	 call	 ?GetToken@CScanner@@UAEHH@Z ; CScanner::GetToken

; 76   : 						s.GetToken();

  003b7	6a 00		 push	 0
  003b9	8d 8d 98 f7 ff
	ff		 lea	 ecx, DWORD PTR _s$[ebp]
  003bf	e8 00 00 00 00	 call	 ?GetToken@CScanner@@UAEHH@Z ; CScanner::GetToken

; 77   : 						while( *s.token != '}' )

  003c4	8b 85 d4 f7 ff
	ff		 mov	 eax, DWORD PTR _s$[ebp+60]
  003ca	80 38 7d	 cmp	 BYTE PTR [eax], 125	; 0000007dH
  003cd	0f 84 32 06 00
	00		 je	 $LN51@Load_Scrip
$LL10@Load_Scrip:

; 79   : 							Set.vecResultMsg.push_back( CScript::GetDefineNum( s.Token ) ); // Á¶°Ç ľĆŔĚĹŰ

  003d3	ff b5 b8 f7 ff
	ff		 push	 DWORD PTR _s$[ebp+32]
  003d9	e8 00 00 00 00	 call	 ?GetDefineNum@CScript@@SAHPBD@Z ; CScript::GetDefineNum
; File C:\Program Files\Microsoft Visual Studio\2022\Professional\VC\Tools\MSVC\14.44.35207\include\vector

; 844  :         if (_Mylast != _My_data._Myend) {

  003de	8b 8d 04 f7 ff
	ff		 mov	 ecx, DWORD PTR _Set$12[ebp+8]
; File C:\IAGOS\server\v18\Source\Source\_Common\Exchange.cpp

; 79   : 							Set.vecResultMsg.push_back( CScript::GetDefineNum( s.Token ) ); // Á¶°Ç ľĆŔĚĹŰ

  003e4	83 c4 04	 add	 esp, 4
  003e7	89 85 90 f7 ff
	ff		 mov	 DWORD PTR $T16[ebp], eax
; File C:\Program Files\Microsoft Visual Studio\2022\Professional\VC\Tools\MSVC\14.44.35207\include\vector

; 844  :         if (_Mylast != _My_data._Myend) {

  003ed	3b 8d 08 f7 ff
	ff		 cmp	 ecx, DWORD PTR _Set$12[ebp+12]
  003f3	74 0b		 je	 SHORT $LN63@Load_Scrip

; 860  :             _STD _Construct_in_place(*_Mylast, _STD forward<_Valty>(_Val)...);

  003f5	89 01		 mov	 DWORD PTR [ecx], eax

; 869  :         ++_Mylast;

  003f7	83 85 04 f7 ff
	ff 04		 add	 DWORD PTR _Set$12[ebp+8], 4

; 845  :             return _Emplace_back_with_unused_capacity(_STD forward<_Valty>(_Val)...);

  003fe	eb 13		 jmp	 SHORT $LN62@Load_Scrip
$LN63@Load_Scrip:

; 846  :         }
; 847  : 
; 848  :         return *_Emplace_reallocate(_Mylast, _STD forward<_Valty>(_Val)...);

  00400	8d 85 90 f7 ff
	ff		 lea	 eax, DWORD PTR $T16[ebp]
  00406	50		 push	 eax
  00407	51		 push	 ecx
  00408	8d 8d 00 f7 ff
	ff		 lea	 ecx, DWORD PTR _Set$12[ebp+4]
  0040e	e8 00 00 00 00	 call	 ??$_Emplace_reallocate@H@?$vector@HV?$allocator@H@std@@@std@@AAEPAHQAH$$QAH@Z ; std::vector<int,std::allocator<int> >::_Emplace_reallocate<int>
$LN62@Load_Scrip:
; File C:\IAGOS\server\v18\Source\Source\_Common\Exchange.cpp

; 80   : 							s.GetToken();

  00413	6a 00		 push	 0
  00415	8d 8d 98 f7 ff
	ff		 lea	 ecx, DWORD PTR _s$[ebp]
  0041b	e8 00 00 00 00	 call	 ?GetToken@CScanner@@UAEHH@Z ; CScanner::GetToken
  00420	8b 85 d4 f7 ff
	ff		 mov	 eax, DWORD PTR _s$[ebp+60]
  00426	80 38 7d	 cmp	 BYTE PTR [eax], 125	; 0000007dH
  00429	75 a8		 jne	 SHORT $LL10@Load_Scrip

; 81   : 						} // while - RESULTMSG
; 82   : 					}

  0042b	e9 d5 05 00 00	 jmp	 $LN51@Load_Scrip
$LN156@Load_Scrip:
; File C:\Program Files\Microsoft Visual Studio\2022\Professional\VC\Tools\MSVC\14.44.35207\atlmfc\include\cstringt.h

; 184  : 		return _mbscmp( reinterpret_cast< const unsigned char* >( pszA ), reinterpret_cast< const unsigned char* >( pszB ) );

  00430	68 00 00 00 00	 push	 OFFSET ??_C@_09PCGEOLCH@CONDITION@
  00435	ff b5 b8 f7 ff
	ff		 push	 DWORD PTR _s$[ebp+32]
  0043b	e8 00 00 00 00	 call	 __mbscmp
  00440	83 c4 08	 add	 esp, 8

; 2490 : 		return(str1.Compare(psz2) == 0);

  00443	85 c0		 test	 eax, eax
; File C:\IAGOS\server\v18\Source\Source\_Common\Exchange.cpp

; 83   : 					else if( s.Token == _T( "CONDITION" ) )

  00445	0f 85 d8 00 00
	00		 jne	 $LN199@Load_Scrip

; 84   : 					{
; 85   : 						s.GetToken(); // {

  0044b	50		 push	 eax
  0044c	8d 8d 98 f7 ff
	ff		 lea	 ecx, DWORD PTR _s$[ebp]
  00452	e8 00 00 00 00	 call	 ?GetToken@CScanner@@UAEHH@Z ; CScanner::GetToken

; 86   : 						s.GetToken();

  00457	6a 00		 push	 0
  00459	8d 8d 98 f7 ff
	ff		 lea	 ecx, DWORD PTR _s$[ebp]
  0045f	e8 00 00 00 00	 call	 ?GetToken@CScanner@@UAEHH@Z ; CScanner::GetToken

; 87   : 						while( *s.token != '}' )

  00464	8b 85 d4 f7 ff
	ff		 mov	 eax, DWORD PTR _s$[ebp+60]
  0046a	80 38 7d	 cmp	 BYTE PTR [eax], 125	; 0000007dH
  0046d	0f 84 92 05 00
	00		 je	 $LN51@Load_Scrip
$LL12@Load_Scrip:
; File C:\Program Files\Microsoft Visual Studio\2022\Professional\VC\Tools\MSVC\14.44.35207\atlmfc\include\cstringt.h

; 184  : 		return _mbscmp( reinterpret_cast< const unsigned char* >( pszA ), reinterpret_cast< const unsigned char* >( pszB ) );

  00473	68 00 00 00 00	 push	 OFFSET ??_C@_05CDGEMFOH@PENYA@
  00478	ff b5 b8 f7 ff
	ff		 push	 DWORD PTR _s$[ebp+32]
; File C:\IAGOS\server\v18\Source\Source\_Common\Exchange.h

; 28   : 			nPayProb = 0;

  0047e	c7 85 d4 f6 ff
	ff 00 00 00 00	 mov	 DWORD PTR _item$8[ebp+8], 0

; 29   : 			byFalg = 0;

  00488	c6 85 d8 f6 ff
	ff 00		 mov	 BYTE PTR _item$8[ebp+12], 0
; File C:\Program Files\Microsoft Visual Studio\2022\Professional\VC\Tools\MSVC\14.44.35207\atlmfc\include\cstringt.h

; 184  : 		return _mbscmp( reinterpret_cast< const unsigned char* >( pszA ), reinterpret_cast< const unsigned char* >( pszB ) );

  0048f	e8 00 00 00 00	 call	 __mbscmp
  00494	83 c4 08	 add	 esp, 8

; 2490 : 		return(str1.Compare(psz2) == 0);

  00497	85 c0		 test	 eax, eax
; File C:\IAGOS\server\v18\Source\Source\_Common\Exchange.cpp

; 90   : 							if( s.Token == "PENYA" )

  00499	75 0c		 jne	 SHORT $LN30@Load_Scrip

; 91   : 								item.dwItemId = II_GOLD_SEED1;

  0049b	c7 85 cc f6 ff
	ff 0c 00 00 00	 mov	 DWORD PTR _item$8[ebp], 12 ; 0000000cH
  004a5	eb 14		 jmp	 SHORT $LN31@Load_Scrip
$LN30@Load_Scrip:

; 92   : 							else
; 93   : 								item.dwItemId = CScript::GetDefineNum( s.Token ); // Á¶°Ç ľĆŔĚĹŰ

  004a7	ff b5 b8 f7 ff
	ff		 push	 DWORD PTR _s$[ebp+32]
  004ad	e8 00 00 00 00	 call	 ?GetDefineNum@CScript@@SAHPBD@Z ; CScript::GetDefineNum
  004b2	83 c4 04	 add	 esp, 4
  004b5	89 85 cc f6 ff
	ff		 mov	 DWORD PTR _item$8[ebp], eax
$LN31@Load_Scrip:

; 94   : 							item.nItemNum = s.GetNumber(); // Á¶°Ç °ąĽö

  004bb	6a 00		 push	 0
  004bd	8d 8d 98 f7 ff
	ff		 lea	 ecx, DWORD PTR _s$[ebp]
  004c3	e8 00 00 00 00	 call	 ?GetNumber@CScanner@@QAEHH@Z ; CScanner::GetNumber
  004c8	89 85 d0 f6 ff
	ff		 mov	 DWORD PTR _item$8[ebp+4], eax
; File C:\Program Files\Microsoft Visual Studio\2022\Professional\VC\Tools\MSVC\14.44.35207\include\vector

; 844  :         if (_Mylast != _My_data._Myend) {

  004ce	8b 85 10 f7 ff
	ff		 mov	 eax, DWORD PTR _Set$12[ebp+20]
  004d4	3b 85 14 f7 ff
	ff		 cmp	 eax, DWORD PTR _Set$12[ebp+24]
  004da	74 13		 je	 SHORT $LN89@Load_Scrip
; File C:\Program Files\Microsoft Visual Studio\2022\Professional\VC\Tools\MSVC\14.44.35207\include\xutility

; 476  :         ::new (static_cast<void*>(_STD addressof(_Obj))) _Ty(_STD forward<_Types>(_Args)...);

  004dc	0f 10 85 cc f6
	ff ff		 movups	 xmm0, XMMWORD PTR _item$8[ebp]
  004e3	0f 11 00	 movups	 XMMWORD PTR [eax], xmm0
; File C:\Program Files\Microsoft Visual Studio\2022\Professional\VC\Tools\MSVC\14.44.35207\include\vector

; 869  :         ++_Mylast;

  004e6	83 85 10 f7 ff
	ff 10		 add	 DWORD PTR _Set$12[ebp+20], 16 ; 00000010H

; 845  :             return _Emplace_back_with_unused_capacity(_STD forward<_Valty>(_Val)...);

  004ed	eb 13		 jmp	 SHORT $LN88@Load_Scrip
$LN89@Load_Scrip:

; 846  :         }
; 847  : 
; 848  :         return *_Emplace_reallocate(_Mylast, _STD forward<_Valty>(_Val)...);

  004ef	8d 8d cc f6 ff
	ff		 lea	 ecx, DWORD PTR _item$8[ebp]
  004f5	51		 push	 ecx
  004f6	50		 push	 eax
  004f7	8d 8d 0c f7 ff
	ff		 lea	 ecx, DWORD PTR _Set$12[ebp+16]
  004fd	e8 00 00 00 00	 call	 ??$_Emplace_reallocate@ABU__ITEM@CExchange@@@?$vector@U__ITEM@CExchange@@V?$allocator@U__ITEM@CExchange@@@std@@@std@@AAEPAU__ITEM@CExchange@@QAU23@ABU23@@Z ; std::vector<CExchange::__ITEM,std::allocator<CExchange::__ITEM> >::_Emplace_reallocate<CExchange::__ITEM const &>
$LN88@Load_Scrip:
; File C:\IAGOS\server\v18\Source\Source\_Common\Exchange.cpp

; 96   : 							s.GetToken();

  00502	6a 00		 push	 0
  00504	8d 8d 98 f7 ff
	ff		 lea	 ecx, DWORD PTR _s$[ebp]
  0050a	e8 00 00 00 00	 call	 ?GetToken@CScanner@@UAEHH@Z ; CScanner::GetToken
  0050f	8b 85 d4 f7 ff
	ff		 mov	 eax, DWORD PTR _s$[ebp+60]
  00515	80 38 7d	 cmp	 BYTE PTR [eax], 125	; 0000007dH
  00518	0f 85 55 ff ff
	ff		 jne	 $LL12@Load_Scrip

; 97   : 						} // while - CONDITION
; 98   : 					}

  0051e	e9 e2 04 00 00	 jmp	 $LN51@Load_Scrip
$LN199@Load_Scrip:
; File C:\Program Files\Microsoft Visual Studio\2022\Professional\VC\Tools\MSVC\14.44.35207\atlmfc\include\cstringt.h

; 184  : 		return _mbscmp( reinterpret_cast< const unsigned char* >( pszA ), reinterpret_cast< const unsigned char* >( pszB ) );

  00523	68 00 00 00 00	 push	 OFFSET ??_C@_06PGHHOBB@REMOVE@
  00528	ff b5 b8 f7 ff
	ff		 push	 DWORD PTR _s$[ebp+32]
  0052e	e8 00 00 00 00	 call	 __mbscmp
  00533	83 c4 08	 add	 esp, 8

; 2490 : 		return(str1.Compare(psz2) == 0);

  00536	85 c0		 test	 eax, eax
; File C:\IAGOS\server\v18\Source\Source\_Common\Exchange.cpp

; 99   : 					else if( s.Token == _T( "REMOVE" ) )

  00538	0f 85 e2 00 00
	00		 jne	 $LN243@Load_Scrip

; 100  : 					{
; 101  : 						s.GetToken(); // {

  0053e	50		 push	 eax
  0053f	8d 8d 98 f7 ff
	ff		 lea	 ecx, DWORD PTR _s$[ebp]
  00545	e8 00 00 00 00	 call	 ?GetToken@CScanner@@UAEHH@Z ; CScanner::GetToken

; 102  : 						s.GetToken();

  0054a	6a 00		 push	 0
  0054c	8d 8d 98 f7 ff
	ff		 lea	 ecx, DWORD PTR _s$[ebp]
  00552	e8 00 00 00 00	 call	 ?GetToken@CScanner@@UAEHH@Z ; CScanner::GetToken

; 103  : 						while( *s.token != '}' )

  00557	8b 85 d4 f7 ff
	ff		 mov	 eax, DWORD PTR _s$[ebp+60]
  0055d	80 38 7d	 cmp	 BYTE PTR [eax], 125	; 0000007dH
  00560	0f 84 9f 04 00
	00		 je	 $LN51@Load_Scrip
  00566	66 66 0f 1f 84
	00 00 00 00 00	 npad	 10
$LL14@Load_Scrip:
; File C:\Program Files\Microsoft Visual Studio\2022\Professional\VC\Tools\MSVC\14.44.35207\atlmfc\include\cstringt.h

; 184  : 		return _mbscmp( reinterpret_cast< const unsigned char* >( pszA ), reinterpret_cast< const unsigned char* >( pszB ) );

  00570	68 00 00 00 00	 push	 OFFSET ??_C@_05CDGEMFOH@PENYA@
  00575	ff b5 b8 f7 ff
	ff		 push	 DWORD PTR _s$[ebp+32]
; File C:\IAGOS\server\v18\Source\Source\_Common\Exchange.h

; 28   : 			nPayProb = 0;

  0057b	c7 85 c4 f6 ff
	ff 00 00 00 00	 mov	 DWORD PTR _item$7[ebp+8], 0

; 29   : 			byFalg = 0;

  00585	c6 85 c8 f6 ff
	ff 00		 mov	 BYTE PTR _item$7[ebp+12], 0
; File C:\Program Files\Microsoft Visual Studio\2022\Professional\VC\Tools\MSVC\14.44.35207\atlmfc\include\cstringt.h

; 184  : 		return _mbscmp( reinterpret_cast< const unsigned char* >( pszA ), reinterpret_cast< const unsigned char* >( pszB ) );

  0058c	e8 00 00 00 00	 call	 __mbscmp
  00591	83 c4 08	 add	 esp, 8

; 2490 : 		return(str1.Compare(psz2) == 0);

  00594	85 c0		 test	 eax, eax
; File C:\IAGOS\server\v18\Source\Source\_Common\Exchange.cpp

; 106  : 							if( s.Token == "PENYA" )

  00596	75 0c		 jne	 SHORT $LN34@Load_Scrip

; 107  : 								item.dwItemId = II_GOLD_SEED1;

  00598	c7 85 bc f6 ff
	ff 0c 00 00 00	 mov	 DWORD PTR _item$7[ebp], 12 ; 0000000cH
  005a2	eb 14		 jmp	 SHORT $LN35@Load_Scrip
$LN34@Load_Scrip:

; 108  : 							else
; 109  : 								item.dwItemId = CScript::GetDefineNum( s.Token ); // Á¶°Ç ľĆŔĚĹŰ

  005a4	ff b5 b8 f7 ff
	ff		 push	 DWORD PTR _s$[ebp+32]
  005aa	e8 00 00 00 00	 call	 ?GetDefineNum@CScript@@SAHPBD@Z ; CScript::GetDefineNum
  005af	83 c4 04	 add	 esp, 4
  005b2	89 85 bc f6 ff
	ff		 mov	 DWORD PTR _item$7[ebp], eax
$LN35@Load_Scrip:

; 110  : 							item.nItemNum = s.GetNumber(); // »čÁ¦ °ąĽö

  005b8	6a 00		 push	 0
  005ba	8d 8d 98 f7 ff
	ff		 lea	 ecx, DWORD PTR _s$[ebp]
  005c0	e8 00 00 00 00	 call	 ?GetNumber@CScanner@@QAEHH@Z ; CScanner::GetNumber
  005c5	89 85 c0 f6 ff
	ff		 mov	 DWORD PTR _item$7[ebp+4], eax
; File C:\Program Files\Microsoft Visual Studio\2022\Professional\VC\Tools\MSVC\14.44.35207\include\vector

; 844  :         if (_Mylast != _My_data._Myend) {

  005cb	8b 85 1c f7 ff
	ff		 mov	 eax, DWORD PTR _Set$12[ebp+32]
  005d1	3b 85 20 f7 ff
	ff		 cmp	 eax, DWORD PTR _Set$12[ebp+36]
  005d7	74 13		 je	 SHORT $LN122@Load_Scrip
; File C:\Program Files\Microsoft Visual Studio\2022\Professional\VC\Tools\MSVC\14.44.35207\include\xutility

; 476  :         ::new (static_cast<void*>(_STD addressof(_Obj))) _Ty(_STD forward<_Types>(_Args)...);

  005d9	0f 10 85 bc f6
	ff ff		 movups	 xmm0, XMMWORD PTR _item$7[ebp]
  005e0	0f 11 00	 movups	 XMMWORD PTR [eax], xmm0
; File C:\Program Files\Microsoft Visual Studio\2022\Professional\VC\Tools\MSVC\14.44.35207\include\vector

; 869  :         ++_Mylast;

  005e3	83 85 1c f7 ff
	ff 10		 add	 DWORD PTR _Set$12[ebp+32], 16 ; 00000010H

; 845  :             return _Emplace_back_with_unused_capacity(_STD forward<_Valty>(_Val)...);

  005ea	eb 13		 jmp	 SHORT $LN121@Load_Scrip
$LN122@Load_Scrip:

; 846  :         }
; 847  : 
; 848  :         return *_Emplace_reallocate(_Mylast, _STD forward<_Valty>(_Val)...);

  005ec	8d 8d bc f6 ff
	ff		 lea	 ecx, DWORD PTR _item$7[ebp]
  005f2	51		 push	 ecx
  005f3	50		 push	 eax
  005f4	8d 8d 18 f7 ff
	ff		 lea	 ecx, DWORD PTR _Set$12[ebp+28]
  005fa	e8 00 00 00 00	 call	 ??$_Emplace_reallocate@ABU__ITEM@CExchange@@@?$vector@U__ITEM@CExchange@@V?$allocator@U__ITEM@CExchange@@@std@@@std@@AAEPAU__ITEM@CExchange@@QAU23@ABU23@@Z ; std::vector<CExchange::__ITEM,std::allocator<CExchange::__ITEM> >::_Emplace_reallocate<CExchange::__ITEM const &>
$LN121@Load_Scrip:
; File C:\IAGOS\server\v18\Source\Source\_Common\Exchange.cpp

; 112  : 							s.GetToken();

  005ff	6a 00		 push	 0
  00601	8d 8d 98 f7 ff
	ff		 lea	 ecx, DWORD PTR _s$[ebp]
  00607	e8 00 00 00 00	 call	 ?GetToken@CScanner@@UAEHH@Z ; CScanner::GetToken
  0060c	8b 85 d4 f7 ff
	ff		 mov	 eax, DWORD PTR _s$[ebp+60]
  00612	80 38 7d	 cmp	 BYTE PTR [eax], 125	; 0000007dH
  00615	0f 85 55 ff ff
	ff		 jne	 $LL14@Load_Scrip

; 113  : 						} // while - REMOVE
; 114  : 					}

  0061b	e9 e5 03 00 00	 jmp	 $LN51@Load_Scrip
$LN243@Load_Scrip:
; File C:\Program Files\Microsoft Visual Studio\2022\Professional\VC\Tools\MSVC\14.44.35207\atlmfc\include\cstringt.h

; 184  : 		return _mbscmp( reinterpret_cast< const unsigned char* >( pszA ), reinterpret_cast< const unsigned char* >( pszB ) );

  00620	68 00 00 00 00	 push	 OFFSET ??_C@_0BA@GNGHFLG@CONDITION_POINT@
  00625	ff b5 b8 f7 ff
	ff		 push	 DWORD PTR _s$[ebp+32]
  0062b	e8 00 00 00 00	 call	 __mbscmp
  00630	83 c4 08	 add	 esp, 8

; 2490 : 		return(str1.Compare(psz2) == 0);

  00633	85 c0		 test	 eax, eax
; File C:\IAGOS\server\v18\Source\Source\_Common\Exchange.cpp

; 116  : 					else if( s.Token == _T( "CONDITION_POINT" ) )

  00635	0f 85 bd 00 00
	00		 jne	 $LN465@Load_Scrip

; 117  : 					{
; 118  : 						s.GetToken(); // {

  0063b	50		 push	 eax
  0063c	8d 8d 98 f7 ff
	ff		 lea	 ecx, DWORD PTR _s$[ebp]
  00642	e8 00 00 00 00	 call	 ?GetToken@CScanner@@UAEHH@Z ; CScanner::GetToken

; 119  : 						s.GetToken();

  00647	6a 00		 push	 0
  00649	8d 8d 98 f7 ff
	ff		 lea	 ecx, DWORD PTR _s$[ebp]
  0064f	e8 00 00 00 00	 call	 ?GetToken@CScanner@@UAEHH@Z ; CScanner::GetToken

; 120  : 						while( *s.token != '}' )

  00654	8b 85 d4 f7 ff
	ff		 mov	 eax, DWORD PTR _s$[ebp+60]
  0065a	80 38 7d	 cmp	 BYTE PTR [eax], 125	; 0000007dH
  0065d	0f 84 a2 03 00
	00		 je	 $LN51@Load_Scrip
$LL16@Load_Scrip:

; 121  : 						{
; 122  : 							__POINT point;
; 123  : 							point.nType = CScript::GetDefineNum( s.Token );

  00663	ff b5 b8 f7 ff
	ff		 push	 DWORD PTR _s$[ebp+32]
  00669	e8 00 00 00 00	 call	 ?GetDefineNum@CScript@@SAHPBD@Z ; CScript::GetDefineNum
  0066e	83 c4 04	 add	 esp, 4
  00671	88 85 e4 f6 ff
	ff		 mov	 BYTE PTR _point$10[ebp], al

; 124  : 							point.nPoint = s.GetNumber();	// Á¶°Ç Ć÷ŔÎĆ®

  00677	8d 8d 98 f7 ff
	ff		 lea	 ecx, DWORD PTR _s$[ebp]
  0067d	6a 00		 push	 0
  0067f	e8 00 00 00 00	 call	 ?GetNumber@CScanner@@QAEHH@Z ; CScanner::GetNumber
  00684	80 bd e4 f6 ff
	ff 00		 cmp	 BYTE PTR _point$10[ebp], 0
  0068b	89 85 e8 f6 ff
	ff		 mov	 DWORD PTR _point$10[ebp+4], eax

; 125  : 							if( point.nType > 0 )

  00691	76 37		 jbe	 SHORT $LN38@Load_Scrip
; File C:\Program Files\Microsoft Visual Studio\2022\Professional\VC\Tools\MSVC\14.44.35207\include\vector

; 844  :         if (_Mylast != _My_data._Myend) {

  00693	8b 95 28 f7 ff
	ff		 mov	 edx, DWORD PTR _Set$12[ebp+44]
  00699	3b 95 2c f7 ff
	ff		 cmp	 edx, DWORD PTR _Set$12[ebp+48]
  0069f	74 14		 je	 SHORT $LN190@Load_Scrip

; 860  :             _STD _Construct_in_place(*_Mylast, _STD forward<_Valty>(_Val)...);

  006a1	8b 8d e4 f6 ff
	ff		 mov	 ecx, DWORD PTR _point$10[ebp]
  006a7	89 0a		 mov	 DWORD PTR [edx], ecx
  006a9	89 42 04	 mov	 DWORD PTR [edx+4], eax

; 869  :         ++_Mylast;

  006ac	83 85 28 f7 ff
	ff 08		 add	 DWORD PTR _Set$12[ebp+44], 8

; 845  :             return _Emplace_back_with_unused_capacity(_STD forward<_Valty>(_Val)...);

  006b3	eb 22		 jmp	 SHORT $LN39@Load_Scrip
$LN190@Load_Scrip:

; 846  :         }
; 847  : 
; 848  :         return *_Emplace_reallocate(_Mylast, _STD forward<_Valty>(_Val)...);

  006b5	8d 85 e4 f6 ff
	ff		 lea	 eax, DWORD PTR _point$10[ebp]
  006bb	50		 push	 eax
  006bc	52		 push	 edx
  006bd	8d 8d 24 f7 ff
	ff		 lea	 ecx, DWORD PTR _Set$12[ebp+40]
  006c3	e8 00 00 00 00	 call	 ??$_Emplace_reallocate@ABU__POINT@CExchange@@@?$vector@U__POINT@CExchange@@V?$allocator@U__POINT@CExchange@@@std@@@std@@AAEPAU__POINT@CExchange@@QAU23@ABU23@@Z ; std::vector<CExchange::__POINT,std::allocator<CExchange::__POINT> >::_Emplace_reallocate<CExchange::__POINT const &>
; File C:\IAGOS\server\v18\Source\Source\_Common\Exchange.cpp

; 126  : 								Set.vecCondPoint.push_back( point );

  006c8	eb 0d		 jmp	 SHORT $LN39@Load_Scrip
$LN38@Load_Scrip:

; 127  : 							else
; 128  : 								Error( "CExchange::Load_Script() - Invalid CONDITION_POINT Type" );

  006ca	68 00 00 00 00	 push	 OFFSET ??_C@_0DI@FGEBBCAC@CExchange?3?3Load_Script?$CI?$CJ?5?9?5Inva@
  006cf	e8 00 00 00 00	 call	 ?Error@@YAPBDPBDZZ	; Error
  006d4	83 c4 04	 add	 esp, 4
$LN39@Load_Scrip:

; 129  : 							s.GetToken();

  006d7	6a 00		 push	 0
  006d9	8d 8d 98 f7 ff
	ff		 lea	 ecx, DWORD PTR _s$[ebp]
  006df	e8 00 00 00 00	 call	 ?GetToken@CScanner@@UAEHH@Z ; CScanner::GetToken
  006e4	8b 85 d4 f7 ff
	ff		 mov	 eax, DWORD PTR _s$[ebp+60]
  006ea	80 38 7d	 cmp	 BYTE PTR [eax], 125	; 0000007dH
  006ed	0f 85 70 ff ff
	ff		 jne	 $LL16@Load_Scrip

; 130  : 						} // while - CONDITION_POINT
; 131  : 					}

  006f3	e9 0d 03 00 00	 jmp	 $LN51@Load_Scrip
$LN465@Load_Scrip:
; File C:\Program Files\Microsoft Visual Studio\2022\Professional\VC\Tools\MSVC\14.44.35207\atlmfc\include\cstringt.h

; 184  : 		return _mbscmp( reinterpret_cast< const unsigned char* >( pszA ), reinterpret_cast< const unsigned char* >( pszB ) );

  006f8	68 00 00 00 00	 push	 OFFSET ??_C@_0N@GCLKHGAL@REMOVE_POINT@
  006fd	ff b5 b8 f7 ff
	ff		 push	 DWORD PTR _s$[ebp+32]
  00703	e8 00 00 00 00	 call	 __mbscmp
  00708	83 c4 08	 add	 esp, 8

; 2490 : 		return(str1.Compare(psz2) == 0);

  0070b	85 c0		 test	 eax, eax
; File C:\IAGOS\server\v18\Source\Source\_Common\Exchange.cpp

; 132  : 					else if( s.Token == _T( "REMOVE_POINT" ) )

  0070d	0f 85 c2 00 00
	00		 jne	 $LN954@Load_Scrip

; 133  : 					{
; 134  : 						s.GetToken(); // {

  00713	50		 push	 eax
  00714	8d 8d 98 f7 ff
	ff		 lea	 ecx, DWORD PTR _s$[ebp]
  0071a	e8 00 00 00 00	 call	 ?GetToken@CScanner@@UAEHH@Z ; CScanner::GetToken

; 135  : 						s.GetToken();

  0071f	6a 00		 push	 0
  00721	8d 8d 98 f7 ff
	ff		 lea	 ecx, DWORD PTR _s$[ebp]
  00727	e8 00 00 00 00	 call	 ?GetToken@CScanner@@UAEHH@Z ; CScanner::GetToken

; 136  : 						while( *s.token != '}' )

  0072c	8b 85 d4 f7 ff
	ff		 mov	 eax, DWORD PTR _s$[ebp+60]
  00732	80 38 7d	 cmp	 BYTE PTR [eax], 125	; 0000007dH
  00735	0f 84 ca 02 00
	00		 je	 $LN51@Load_Scrip
  0073b	0f 1f 44 00 00	 npad	 5
$LL18@Load_Scrip:

; 137  : 						{
; 138  : 							__POINT point;
; 139  : 							point.nType = CScript::GetDefineNum( s.Token );

  00740	ff b5 b8 f7 ff
	ff		 push	 DWORD PTR _s$[ebp+32]
  00746	e8 00 00 00 00	 call	 ?GetDefineNum@CScript@@SAHPBD@Z ; CScript::GetDefineNum
  0074b	83 c4 04	 add	 esp, 4
  0074e	88 85 dc f6 ff
	ff		 mov	 BYTE PTR _point$9[ebp], al

; 140  : 							point.nPoint = s.GetNumber();	// Â÷°¨ Ć÷ŔÎĆ®

  00754	8d 8d 98 f7 ff
	ff		 lea	 ecx, DWORD PTR _s$[ebp]
  0075a	6a 00		 push	 0
  0075c	e8 00 00 00 00	 call	 ?GetNumber@CScanner@@QAEHH@Z ; CScanner::GetNumber
  00761	80 bd dc f6 ff
	ff 00		 cmp	 BYTE PTR _point$9[ebp], 0
  00768	89 85 e0 f6 ff
	ff		 mov	 DWORD PTR _point$9[ebp+4], eax

; 141  : 							if( point.nType > 0 )

  0076e	76 37		 jbe	 SHORT $LN42@Load_Scrip
; File C:\Program Files\Microsoft Visual Studio\2022\Professional\VC\Tools\MSVC\14.44.35207\include\vector

; 844  :         if (_Mylast != _My_data._Myend) {

  00770	8b 95 34 f7 ff
	ff		 mov	 edx, DWORD PTR _Set$12[ebp+56]
  00776	3b 95 38 f7 ff
	ff		 cmp	 edx, DWORD PTR _Set$12[ebp+60]
  0077c	74 14		 je	 SHORT $LN234@Load_Scrip

; 860  :             _STD _Construct_in_place(*_Mylast, _STD forward<_Valty>(_Val)...);

  0077e	8b 8d dc f6 ff
	ff		 mov	 ecx, DWORD PTR _point$9[ebp]
  00784	89 0a		 mov	 DWORD PTR [edx], ecx
  00786	89 42 04	 mov	 DWORD PTR [edx+4], eax

; 869  :         ++_Mylast;

  00789	83 85 34 f7 ff
	ff 08		 add	 DWORD PTR _Set$12[ebp+56], 8

; 845  :             return _Emplace_back_with_unused_capacity(_STD forward<_Valty>(_Val)...);

  00790	eb 22		 jmp	 SHORT $LN43@Load_Scrip
$LN234@Load_Scrip:

; 846  :         }
; 847  : 
; 848  :         return *_Emplace_reallocate(_Mylast, _STD forward<_Valty>(_Val)...);

  00792	8d 85 dc f6 ff
	ff		 lea	 eax, DWORD PTR _point$9[ebp]
  00798	50		 push	 eax
  00799	52		 push	 edx
  0079a	8d 8d 30 f7 ff
	ff		 lea	 ecx, DWORD PTR _Set$12[ebp+52]
  007a0	e8 00 00 00 00	 call	 ??$_Emplace_reallocate@ABU__POINT@CExchange@@@?$vector@U__POINT@CExchange@@V?$allocator@U__POINT@CExchange@@@std@@@std@@AAEPAU__POINT@CExchange@@QAU23@ABU23@@Z ; std::vector<CExchange::__POINT,std::allocator<CExchange::__POINT> >::_Emplace_reallocate<CExchange::__POINT const &>
; File C:\IAGOS\server\v18\Source\Source\_Common\Exchange.cpp

; 142  : 								Set.vecRemovePoint.push_back( point );

  007a5	eb 0d		 jmp	 SHORT $LN43@Load_Scrip
$LN42@Load_Scrip:

; 143  : 							else
; 144  : 								Error( "CExchange::Load_Script() - Invalid REMOVE_POINT Type" );

  007a7	68 00 00 00 00	 push	 OFFSET ??_C@_0DF@EBIDFENE@CExchange?3?3Load_Script?$CI?$CJ?5?9?5Inva@
  007ac	e8 00 00 00 00	 call	 ?Error@@YAPBDPBDZZ	; Error
  007b1	83 c4 04	 add	 esp, 4
$LN43@Load_Scrip:

; 145  : 							s.GetToken();

  007b4	6a 00		 push	 0
  007b6	8d 8d 98 f7 ff
	ff		 lea	 ecx, DWORD PTR _s$[ebp]
  007bc	e8 00 00 00 00	 call	 ?GetToken@CScanner@@UAEHH@Z ; CScanner::GetToken
  007c1	8b 85 d4 f7 ff
	ff		 mov	 eax, DWORD PTR _s$[ebp+60]
  007c7	80 38 7d	 cmp	 BYTE PTR [eax], 125	; 0000007dH
  007ca	0f 85 70 ff ff
	ff		 jne	 $LL18@Load_Scrip

; 146  : 						} // while - REMOVE_POINT
; 147  : 					}

  007d0	e9 30 02 00 00	 jmp	 $LN51@Load_Scrip
$LN954@Load_Scrip:
; File C:\Program Files\Microsoft Visual Studio\2022\Professional\VC\Tools\MSVC\14.44.35207\atlmfc\include\cstringt.h

; 184  : 		return _mbscmp( reinterpret_cast< const unsigned char* >( pszA ), reinterpret_cast< const unsigned char* >( pszB ) );

  007d5	68 00 00 00 00	 push	 OFFSET ??_C@_03PJHCOKL@PAY@
  007da	ff b5 b8 f7 ff
	ff		 push	 DWORD PTR _s$[ebp+32]
  007e0	e8 00 00 00 00	 call	 __mbscmp
  007e5	83 c4 08	 add	 esp, 8

; 2490 : 		return(str1.Compare(psz2) == 0);

  007e8	85 c0		 test	 eax, eax
; File C:\IAGOS\server\v18\Source\Source\_Common\Exchange.cpp

; 149  : 					else if( s.Token == _T( "PAY" ) )

  007ea	0f 85 15 02 00
	00		 jne	 $LN51@Load_Scrip

; 150  : 					{
; 151  : 						int nSumProb = 0;	// Áö±Ţ Č®·üŔÇ ÇŐŔĚ 1000000ŔÎÁö Č®ŔÎÇĎ±â Ŕ§ÇŘ
; 152  : 						BOOL bProb = TRUE;	// Áö±Ţ ¸®˝şĆ®¸¦ Ăß°ˇ ÇŇ°ÍŔÎÁö °Ë»ç(1000000ŔĚ łŃ°í ¸®˝şĆ®°ˇ ´ő ŔÖŔ» °ćżě)
; 153  : 						
; 154  : 						Set.nPayNum = s.GetNumber(); // Áö±ŢµÉ ľĆŔĚĹŰ Áľ·ů Ľö

  007f0	50		 push	 eax
  007f1	8d 8d 98 f7 ff
	ff		 lea	 ecx, DWORD PTR _s$[ebp]
  007f7	89 85 94 f7 ff
	ff		 mov	 DWORD PTR _nSumProb$1$[ebp], eax
  007fd	8d 78 01	 lea	 edi, DWORD PTR [eax+1]
  00800	e8 00 00 00 00	 call	 ?GetNumber@CScanner@@QAEHH@Z ; CScanner::GetNumber

; 155  : 						s.GetToken(); // {

  00805	6a 00		 push	 0
  00807	8d 8d 98 f7 ff
	ff		 lea	 ecx, DWORD PTR _s$[ebp]
  0080d	89 85 48 f7 ff
	ff		 mov	 DWORD PTR _Set$12[ebp+76], eax
  00813	e8 00 00 00 00	 call	 ?GetToken@CScanner@@UAEHH@Z ; CScanner::GetToken

; 156  : 						s.GetToken();

  00818	6a 00		 push	 0
  0081a	8d 8d 98 f7 ff
	ff		 lea	 ecx, DWORD PTR _s$[ebp]
  00820	e8 00 00 00 00	 call	 ?GetToken@CScanner@@UAEHH@Z ; CScanner::GetToken

; 157  : 						while( *s.token != '}' )

  00825	8b 85 d4 f7 ff
	ff		 mov	 eax, DWORD PTR _s$[ebp+60]
  0082b	80 38 7d	 cmp	 BYTE PTR [eax], 125	; 0000007dH
  0082e	0f 84 80 01 00
	00		 je	 $LN1077@Load_Scrip
  00834	0f 1f 40 00 0f
	1f 84 00 00 00
	00 00		 npad	 12
$LL20@Load_Scrip:

; 160  : 							item.dwItemId = CScript::GetDefineNum( s.Token ); // Áö±Ţ ľĆŔĚĹŰ

  00840	ff b5 b8 f7 ff
	ff		 push	 DWORD PTR _s$[ebp+32]
; File C:\IAGOS\server\v18\Source\Source\_Common\Exchange.h

; 29   : 			byFalg = 0;

  00846	c6 85 f8 f6 ff
	ff 00		 mov	 BYTE PTR _item$11[ebp+12], 0
; File C:\IAGOS\server\v18\Source\Source\_Common\Exchange.cpp

; 160  : 							item.dwItemId = CScript::GetDefineNum( s.Token ); // Áö±Ţ ľĆŔĚĹŰ

  0084d	e8 00 00 00 00	 call	 ?GetDefineNum@CScript@@SAHPBD@Z ; CScript::GetDefineNum
  00852	83 c4 04	 add	 esp, 4
  00855	89 85 ec f6 ff
	ff		 mov	 DWORD PTR _item$11[ebp], eax

; 161  : 							item.nItemNum = s.GetNumber(); // Áö±Ţ °ąĽö

  0085b	8d 8d 98 f7 ff
	ff		 lea	 ecx, DWORD PTR _s$[ebp]
  00861	6a 00		 push	 0
  00863	e8 00 00 00 00	 call	 ?GetNumber@CScanner@@QAEHH@Z ; CScanner::GetNumber

; 162  : 							item.nPayProb = s.GetNumber(); // Áö±Ţ Č®·ü

  00868	6a 00		 push	 0
  0086a	8d 8d 98 f7 ff
	ff		 lea	 ecx, DWORD PTR _s$[ebp]
  00870	89 85 f0 f6 ff
	ff		 mov	 DWORD PTR _item$11[ebp+4], eax
  00876	e8 00 00 00 00	 call	 ?GetNumber@CScanner@@QAEHH@Z ; CScanner::GetNumber

; 163  : 							s.SetMark();

  0087b	8b 8d b0 f7 ff
	ff		 mov	 ecx, DWORD PTR _s$[ebp+24]
  00881	89 8d ac f7 ff
	ff		 mov	 DWORD PTR _s$[ebp+20], ecx

; 164  : 							s.GetToken();

  00887	8d 8d 98 f7 ff
	ff		 lea	 ecx, DWORD PTR _s$[ebp]
  0088d	6a 00		 push	 0
  0088f	89 85 f4 f6 ff
	ff		 mov	 DWORD PTR _item$11[ebp+8], eax
  00895	e8 00 00 00 00	 call	 ?GetToken@CScanner@@UAEHH@Z ; CScanner::GetToken
; File C:\IAGOS\server\v18\Source\Source\_Common\Scanner.h

; 69   : 	virtual void	GoMark() { if( m_lpMark ) m_pProg = m_lpMark; }

  0089a	8b 8d ac f7 ff
	ff		 mov	 ecx, DWORD PTR _s$[ebp+20]
  008a0	85 c9		 test	 ecx, ecx
  008a2	8b 95 b0 f7 ff
	ff		 mov	 edx, DWORD PTR _s$[ebp+24]
  008a8	0f 45 d1	 cmovne	 edx, ecx
; File C:\IAGOS\server\v18\Source\Source\_Common\Exchange.cpp

; 166  : 							if( s.tokenType == NUMBER )

  008ab	83 7d d8 03	 cmp	 DWORD PTR _s$[ebp+2112], 3
; File C:\IAGOS\server\v18\Source\Source\_Common\Scanner.h

; 69   : 	virtual void	GoMark() { if( m_lpMark ) m_pProg = m_lpMark; }

  008af	89 95 b0 f7 ff
	ff		 mov	 DWORD PTR _s$[ebp+24], edx
; File C:\IAGOS\server\v18\Source\Source\_Common\Exchange.cpp

; 166  : 							if( s.tokenType == NUMBER )

  008b5	75 13		 jne	 SHORT $LN45@Load_Scrip

; 167  : 								item.byFalg = static_cast<BYTE>( s.GetNumber() );

  008b7	6a 00		 push	 0
  008b9	8d 8d 98 f7 ff
	ff		 lea	 ecx, DWORD PTR _s$[ebp]
  008bf	e8 00 00 00 00	 call	 ?GetNumber@CScanner@@QAEHH@Z ; CScanner::GetNumber
  008c4	88 85 f8 f6 ff
	ff		 mov	 BYTE PTR _item$11[ebp+12], al
$LN45@Load_Scrip:

; 168  : 															
; 169  : 							nSumProb += item.nPayProb;

  008ca	8b 8d 94 f7 ff
	ff		 mov	 ecx, DWORD PTR _nSumProb$1$[ebp]
  008d0	8b 95 f4 f6 ff
	ff		 mov	 edx, DWORD PTR _item$11[ebp+8]
  008d6	03 ca		 add	 ecx, edx
  008d8	89 8d 94 f7 ff
	ff		 mov	 DWORD PTR _nSumProb$1$[ebp], ecx

; 170  : 							if( nSumProb > 1000000 ) // ĂŃ Č®·üŔÇ ÇŐŔĚ 1000000(100%)°ˇ łŃŔ» °ćżě

  008de	81 f9 40 42 0f
	00		 cmp	 ecx, 1000000		; 000f4240H
  008e4	7e 5d		 jle	 SHORT $LN46@Load_Scrip

; 171  : 							{
; 172  : 								if( bProb )

  008e6	85 ff		 test	 edi, edi
  008e8	0f 84 9a 00 00
	00		 je	 $LN49@Load_Scrip

; 174  : 									item.nPayProb -= nSumProb - 1000000; // ¸¶Áö¸· ¸®˝şĆ®żˇ łŃ´Â ¸¸Ĺ­ »«´Ů.

  008ee	b8 40 42 0f 00	 mov	 eax, 1000000		; 000f4240H
  008f3	2b c1		 sub	 eax, ecx
  008f5	03 d0		 add	 edx, eax
; File C:\Program Files\Microsoft Visual Studio\2022\Professional\VC\Tools\MSVC\14.44.35207\include\vector

; 844  :         if (_Mylast != _My_data._Myend) {

  008f7	8b 85 40 f7 ff
	ff		 mov	 eax, DWORD PTR _Set$12[ebp+68]
; File C:\IAGOS\server\v18\Source\Source\_Common\Exchange.cpp

; 174  : 									item.nPayProb -= nSumProb - 1000000; // ¸¶Áö¸· ¸®˝şĆ®żˇ łŃ´Â ¸¸Ĺ­ »«´Ů.

  008fd	89 95 f4 f6 ff
	ff		 mov	 DWORD PTR _item$11[ebp+8], edx
; File C:\Program Files\Microsoft Visual Studio\2022\Professional\VC\Tools\MSVC\14.44.35207\include\vector

; 844  :         if (_Mylast != _My_data._Myend) {

  00903	3b 85 44 f7 ff
	ff		 cmp	 eax, DWORD PTR _Set$12[ebp+72]
  00909	74 13		 je	 SHORT $LN942@Load_Scrip
; File C:\Program Files\Microsoft Visual Studio\2022\Professional\VC\Tools\MSVC\14.44.35207\include\xutility

; 476  :         ::new (static_cast<void*>(_STD addressof(_Obj))) _Ty(_STD forward<_Types>(_Args)...);

  0090b	0f 10 85 ec f6
	ff ff		 movups	 xmm0, XMMWORD PTR _item$11[ebp]
  00912	0f 11 00	 movups	 XMMWORD PTR [eax], xmm0
; File C:\Program Files\Microsoft Visual Studio\2022\Professional\VC\Tools\MSVC\14.44.35207\include\vector

; 869  :         ++_Mylast;

  00915	83 85 40 f7 ff
	ff 10		 add	 DWORD PTR _Set$12[ebp+68], 16 ; 00000010H

; 845  :             return _Emplace_back_with_unused_capacity(_STD forward<_Valty>(_Val)...);

  0091c	eb 13		 jmp	 SHORT $LN941@Load_Scrip
$LN942@Load_Scrip:

; 846  :         }
; 847  : 
; 848  :         return *_Emplace_reallocate(_Mylast, _STD forward<_Valty>(_Val)...);

  0091e	8d 8d ec f6 ff
	ff		 lea	 ecx, DWORD PTR _item$11[ebp]
  00924	51		 push	 ecx
  00925	50		 push	 eax
  00926	8d 8d 3c f7 ff
	ff		 lea	 ecx, DWORD PTR _Set$12[ebp+64]
  0092c	e8 00 00 00 00	 call	 ??$_Emplace_reallocate@ABU__ITEM@CExchange@@@?$vector@U__ITEM@CExchange@@V?$allocator@U__ITEM@CExchange@@@std@@@std@@AAEPAU__ITEM@CExchange@@QAU23@ABU23@@Z ; std::vector<CExchange::__ITEM,std::allocator<CExchange::__ITEM> >::_Emplace_reallocate<CExchange::__ITEM const &>
$LN941@Load_Scrip:
; File C:\IAGOS\server\v18\Source\Source\_Common\Exchange.cpp

; 178  : 									Error( "Exchange_Script.txt -> PAY Č®·ü ÇŐ°č°ˇ 1000000 ĂĘ°ú : %s", strErrorMMIId );

  00931	56		 push	 esi
  00932	68 00 00 00 00	 push	 OFFSET ??_C@_0DJ@PHNEEKBK@Exchange_Script?4txt?5?9?$DO?5PAY?5?H?$KO?$LH?$PM@
  00937	33 ff		 xor	 edi, edi
  00939	e8 00 00 00 00	 call	 ?Error@@YAPBDPBDZZ	; Error
  0093e	83 c4 08	 add	 esp, 8

; 179  : 								#endif // __WORLDSERVER
; 180  : 								}
; 181  : 							}

  00941	eb 45		 jmp	 SHORT $LN49@Load_Scrip
$LN46@Load_Scrip:
; File C:\Program Files\Microsoft Visual Studio\2022\Professional\VC\Tools\MSVC\14.44.35207\include\vector

; 844  :         if (_Mylast != _My_data._Myend) {

  00943	8b 85 40 f7 ff
	ff		 mov	 eax, DWORD PTR _Set$12[ebp+68]
  00949	3b 85 44 f7 ff
	ff		 cmp	 eax, DWORD PTR _Set$12[ebp+72]
  0094f	74 13		 je	 SHORT $LN453@Load_Scrip
; File C:\Program Files\Microsoft Visual Studio\2022\Professional\VC\Tools\MSVC\14.44.35207\include\xutility

; 476  :         ::new (static_cast<void*>(_STD addressof(_Obj))) _Ty(_STD forward<_Types>(_Args)...);

  00951	0f 10 85 ec f6
	ff ff		 movups	 xmm0, XMMWORD PTR _item$11[ebp]
  00958	0f 11 00	 movups	 XMMWORD PTR [eax], xmm0
; File C:\Program Files\Microsoft Visual Studio\2022\Professional\VC\Tools\MSVC\14.44.35207\include\vector

; 869  :         ++_Mylast;

  0095b	83 85 40 f7 ff
	ff 10		 add	 DWORD PTR _Set$12[ebp+68], 16 ; 00000010H

; 845  :             return _Emplace_back_with_unused_capacity(_STD forward<_Valty>(_Val)...);

  00962	eb 19		 jmp	 SHORT $LN452@Load_Scrip
$LN453@Load_Scrip:

; 846  :         }
; 847  : 
; 848  :         return *_Emplace_reallocate(_Mylast, _STD forward<_Valty>(_Val)...);

  00964	8d 8d ec f6 ff
	ff		 lea	 ecx, DWORD PTR _item$11[ebp]
  0096a	51		 push	 ecx
  0096b	50		 push	 eax
  0096c	8d 8d 3c f7 ff
	ff		 lea	 ecx, DWORD PTR _Set$12[ebp+64]
  00972	e8 00 00 00 00	 call	 ??$_Emplace_reallocate@ABU__ITEM@CExchange@@@?$vector@U__ITEM@CExchange@@V?$allocator@U__ITEM@CExchange@@@std@@@std@@AAEPAU__ITEM@CExchange@@QAU23@ABU23@@Z ; std::vector<CExchange::__ITEM,std::allocator<CExchange::__ITEM> >::_Emplace_reallocate<CExchange::__ITEM const &>
  00977	8b 8d 94 f7 ff
	ff		 mov	 ecx, DWORD PTR _nSumProb$1$[ebp]
$LN452@Load_Scrip:
; File C:\IAGOS\server\v18\Source\Source\_Common\Exchange.cpp

; 185  : 								if( nSumProb == 1000000 )

  0097d	33 c0		 xor	 eax, eax
  0097f	81 f9 40 42 0f
	00		 cmp	 ecx, 1000000		; 000f4240H
  00985	0f 44 f8	 cmove	 edi, eax
$LN49@Load_Scrip:

; 186  : 									bProb = FALSE;
; 187  : 							}
; 188  : 							s.GetToken();

  00988	6a 00		 push	 0
  0098a	8d 8d 98 f7 ff
	ff		 lea	 ecx, DWORD PTR _s$[ebp]
  00990	e8 00 00 00 00	 call	 ?GetToken@CScanner@@UAEHH@Z ; CScanner::GetToken
  00995	8b 85 d4 f7 ff
	ff		 mov	 eax, DWORD PTR _s$[ebp+60]
  0099b	80 38 7d	 cmp	 BYTE PTR [eax], 125	; 0000007dH
  0099e	0f 85 9c fe ff
	ff		 jne	 $LL20@Load_Scrip

; 189  : 						} // while - PAY
; 190  : 						if( nSumProb < 1000000 ) // ĂŃ Č®·üŔÇ ÇŐŔĚ 1000000 ş¸´Ů ŔűŔ» °ćżě

  009a4	8b bd 94 f7 ff
	ff		 mov	 edi, DWORD PTR _nSumProb$1$[ebp]
  009aa	81 ff 40 42 0f
	00		 cmp	 edi, 1000000		; 000f4240H
  009b0	7d 2e		 jge	 SHORT $LN50@Load_Scrip

; 157  : 						while( *s.token != '}' )

  009b2	eb 02		 jmp	 SHORT $LN1075@Load_Scrip
$LN1077@Load_Scrip:
  009b4	33 ff		 xor	 edi, edi
$LN1075@Load_Scrip:
; File C:\Program Files\Microsoft Visual Studio\2022\Professional\VC\Tools\MSVC\14.44.35207\include\vector

; 1915 :         return static_cast<size_type>(_My_data._Mylast - _My_data._Myfirst);

  009b6	8b 95 40 f7 ff
	ff		 mov	 edx, DWORD PTR _Set$12[ebp+68]
; File C:\IAGOS\server\v18\Source\Source\_Common\Exchange.cpp

; 192  : 							Set.vecPayItem[Set.vecPayItem.size()-1].nPayProb += 1000000 - nSumProb; // ¸đŔÚ¶ó´Â ¸¸Ĺ­ ´őÇŃ´Ů.

  009bc	b8 40 42 0f 00	 mov	 eax, 1000000		; 000f4240H
; File C:\Program Files\Microsoft Visual Studio\2022\Professional\VC\Tools\MSVC\14.44.35207\include\vector

; 1915 :         return static_cast<size_type>(_My_data._Mylast - _My_data._Myfirst);

  009c1	8b 8d 3c f7 ff
	ff		 mov	 ecx, DWORD PTR _Set$12[ebp+64]
; File C:\IAGOS\server\v18\Source\Source\_Common\Exchange.cpp

; 192  : 							Set.vecPayItem[Set.vecPayItem.size()-1].nPayProb += 1000000 - nSumProb; // ¸đŔÚ¶ó´Â ¸¸Ĺ­ ´őÇŃ´Ů.

  009c7	2b c7		 sub	 eax, edi
; File C:\Program Files\Microsoft Visual Studio\2022\Professional\VC\Tools\MSVC\14.44.35207\include\vector

; 1915 :         return static_cast<size_type>(_My_data._Mylast - _My_data._Myfirst);

  009c9	2b d1		 sub	 edx, ecx
  009cb	83 e2 f0	 and	 edx, -16		; fffffff0H
; File C:\IAGOS\server\v18\Source\Source\_Common\Exchange.cpp

; 194  : 							Error( "Exchange_Script.txt -> PAY Č®·ü ÇŐ°č°ˇ 1000000 ąĚ¸¸ : %s", strErrorMMIId );

  009ce	56		 push	 esi
  009cf	68 00 00 00 00	 push	 OFFSET ??_C@_0DJ@GFNEFJCE@Exchange_Script?4txt?5?9?$DO?5PAY?5?H?$KO?$LH?$PM@
  009d4	01 44 0a f8	 add	 DWORD PTR [edx+ecx-8], eax
  009d8	e8 00 00 00 00	 call	 ?Error@@YAPBDPBDZZ	; Error
  009dd	83 c4 08	 add	 esp, 8
$LN50@Load_Scrip:
; File C:\Program Files\Microsoft Visual Studio\2022\Professional\VC\Tools\MSVC\14.44.35207\include\vector

; 1915 :         return static_cast<size_type>(_My_data._Mylast - _My_data._Myfirst);

  009e0	8b 85 40 f7 ff
	ff		 mov	 eax, DWORD PTR _Set$12[ebp+68]
  009e6	2b 85 3c f7 ff
	ff		 sub	 eax, DWORD PTR _Set$12[ebp+64]
  009ec	c1 f8 04	 sar	 eax, 4
; File C:\IAGOS\server\v18\Source\Source\_Common\Exchange.cpp

; 198  : 						if( Set.nPayNum > (int)( Set.vecPayItem.size() ) ) // GetPayItemList()żˇĽ­ Ăł¸®

  009ef	39 85 48 f7 ff
	ff		 cmp	 DWORD PTR _Set$12[ebp+76], eax
  009f5	7e 0e		 jle	 SHORT $LN51@Load_Scrip

; 199  : 							Error( "Exchange_Script.txt -> PAY (¸®˝şĆ® °ąĽö < Áö±Ţ °ąĽö) : %s", strErrorMMIId );

  009f7	56		 push	 esi
  009f8	68 00 00 00 00	 push	 OFFSET ??_C@_0DK@IFDDKIHH@Exchange_Script?4txt?5?9?$DO?5PAY?5?$CI?$LI?$KO?$LN@
  009fd	e8 00 00 00 00	 call	 ?Error@@YAPBDPBDZZ	; Error
  00a02	83 c4 08	 add	 esp, 8
$LN51@Load_Scrip:

; 200  : 					#endif // __WORLDSERVER
; 201  : 					}
; 202  : 					s.GetToken();

  00a05	6a 00		 push	 0
  00a07	8d 8d 98 f7 ff
	ff		 lea	 ecx, DWORD PTR _s$[ebp]
  00a0d	e8 00 00 00 00	 call	 ?GetToken@CScanner@@UAEHH@Z ; CScanner::GetToken
  00a12	8b 85 d4 f7 ff
	ff		 mov	 eax, DWORD PTR _s$[ebp+60]
  00a18	80 38 7d	 cmp	 BYTE PTR [eax], 125	; 0000007dH
  00a1b	0f 85 6f f9 ff
	ff		 jne	 $LL8@Load_Scrip
  00a21	8b bd 88 f7 ff
	ff		 mov	 edi, DWORD PTR _nCount$1$[ebp]
$LN1046@Load_Scrip:

; 203  : 				} // while - SET
; 204  : 				if( nCount <= 15 )

  00a27	83 ff 0f	 cmp	 edi, 15			; 0000000fH
  00a2a	7f 31		 jg	 SHORT $LN478@Load_Scrip
; File C:\Program Files\Microsoft Visual Studio\2022\Professional\VC\Tools\MSVC\14.44.35207\include\vector

; 844  :         if (_Mylast != _My_data._Myend) {

  00a2c	8b 85 60 f7 ff
	ff		 mov	 eax, DWORD PTR _create$13[ebp+16]
  00a32	8d 8d fc f6 ff
	ff		 lea	 ecx, DWORD PTR _Set$12[ebp]
  00a38	51		 push	 ecx
  00a39	3b 85 64 f7 ff
	ff		 cmp	 eax, DWORD PTR _create$13[ebp+20]
  00a3f	74 10		 je	 SHORT $LN479@Load_Scrip
; File C:\Program Files\Microsoft Visual Studio\2022\Professional\VC\Tools\MSVC\14.44.35207\include\xmemory

; 732  :         ::new (const_cast<void*>(static_cast<const volatile void*>(_Ptr))) _Objty(_STD forward<_Types>(_Args)...);

  00a41	8b c8		 mov	 ecx, eax
  00a43	e8 00 00 00 00	 call	 ??0__SET@CExchange@@QAE@ABU01@@Z
; File C:\Program Files\Microsoft Visual Studio\2022\Professional\VC\Tools\MSVC\14.44.35207\include\vector

; 869  :         ++_Mylast;

  00a48	83 85 60 f7 ff
	ff 50		 add	 DWORD PTR _create$13[ebp+16], 80 ; 00000050H

; 845  :             return _Emplace_back_with_unused_capacity(_STD forward<_Valty>(_Val)...);

  00a4f	eb 0c		 jmp	 SHORT $LN478@Load_Scrip
$LN479@Load_Scrip:

; 846  :         }
; 847  : 
; 848  :         return *_Emplace_reallocate(_Mylast, _STD forward<_Valty>(_Val)...);

  00a51	50		 push	 eax
  00a52	8d 8d 5c f7 ff
	ff		 lea	 ecx, DWORD PTR _create$13[ebp+12]
  00a58	e8 00 00 00 00	 call	 ??$_Emplace_reallocate@ABU__SET@CExchange@@@?$vector@U__SET@CExchange@@V?$allocator@U__SET@CExchange@@@std@@@std@@AAEPAU__SET@CExchange@@QAU23@ABU23@@Z ; std::vector<CExchange::__SET,std::allocator<CExchange::__SET> >::_Emplace_reallocate<CExchange::__SET const &>
$LN478@Load_Scrip:

; 2090 :         if (_Myfirst) { // destroy and deallocate old array

  00a5d	8b 95 3c f7 ff
	ff		 mov	 edx, DWORD PTR _Set$12[ebp+64]
; File C:\IAGOS\server\v18\Source\Source\_Common\Exchange.cpp

; 206  : 			}

  00a63	c6 45 fc 02	 mov	 BYTE PTR __$EHRec$[ebp+8], 2
; File C:\Program Files\Microsoft Visual Studio\2022\Professional\VC\Tools\MSVC\14.44.35207\include\vector

; 2090 :         if (_Myfirst) { // destroy and deallocate old array

  00a67	85 d2		 test	 edx, edx
  00a69	74 51		 je	 SHORT $LN321@Load_Scrip

; 2093 :             _Al.deallocate(_Myfirst, static_cast<size_type>(_Myend - _Myfirst));

  00a6b	8b 8d 44 f7 ff
	ff		 mov	 ecx, DWORD PTR _Set$12[ebp+72]
; File C:\Program Files\Microsoft Visual Studio\2022\Professional\VC\Tools\MSVC\14.44.35207\include\xmemory

; 985  :         _STD _Deallocate<_New_alignof<_Ty>>(_Ptr, sizeof(_Ty) * _Count);

  00a71	8b c2		 mov	 eax, edx
; File C:\Program Files\Microsoft Visual Studio\2022\Professional\VC\Tools\MSVC\14.44.35207\include\vector

; 2093 :             _Al.deallocate(_Myfirst, static_cast<size_type>(_Myend - _Myfirst));

  00a73	2b ca		 sub	 ecx, edx
; File C:\Program Files\Microsoft Visual Studio\2022\Professional\VC\Tools\MSVC\14.44.35207\include\xmemory

; 985  :         _STD _Deallocate<_New_alignof<_Ty>>(_Ptr, sizeof(_Ty) * _Count);

  00a75	83 e1 f0	 and	 ecx, -16		; fffffff0H

; 284  :         if (_Bytes >= _Big_allocation_threshold) {

  00a78	81 f9 00 10 00
	00		 cmp	 ecx, 4096		; 00001000H
  00a7e	72 14		 jb	 SHORT $LN334@Load_Scrip

; 205  :     const uintptr_t _Ptr_container   = _Ptr_user[-1];

  00a80	8b 50 fc	 mov	 edx, DWORD PTR [eax-4]
  00a83	83 c1 23	 add	 ecx, 35			; 00000023H
  00a86	2b c2		 sub	 eax, edx

; 206  : 
; 207  :     // If the following asserts, it likely means that we are performing
; 208  :     // an aligned delete on memory coming from an unaligned allocation.
; 209  :     _STL_ASSERT(_Ptr_user[-2] == _Big_allocation_sentinel, "invalid argument");
; 210  : 
; 211  :     // Extra paranoia on aligned allocation/deallocation; ensure _Ptr_container is
; 212  :     // in range [_Min_back_shift, _Non_user_size]
; 213  : #ifdef _DEBUG
; 214  :     constexpr uintptr_t _Min_back_shift = 2 * sizeof(void*);
; 215  : #else // ^^^ defined(_DEBUG) / !defined(_DEBUG) vvv
; 216  :     constexpr uintptr_t _Min_back_shift = sizeof(void*);
; 217  : #endif // ^^^ !defined(_DEBUG) ^^^
; 218  :     const uintptr_t _Back_shift = reinterpret_cast<uintptr_t>(_Ptr) - _Ptr_container;
; 219  :     _STL_VERIFY(_Back_shift >= _Min_back_shift && _Back_shift <= _Non_user_size, "invalid argument");

  00a88	83 c0 fc	 add	 eax, -4			; fffffffcH
  00a8b	83 f8 1f	 cmp	 eax, 31			; 0000001fH
  00a8e	0f 87 8e 06 00
	00		 ja	 $LN1025@Load_Scrip
$LN334@Load_Scrip:

; 289  :         ::operator delete(_Ptr, _Bytes);

  00a94	51		 push	 ecx
  00a95	52		 push	 edx
  00a96	e8 00 00 00 00	 call	 ??3@YAXPAXI@Z		; operator delete
  00a9b	83 c4 08	 add	 esp, 8
; File C:\Program Files\Microsoft Visual Studio\2022\Professional\VC\Tools\MSVC\14.44.35207\include\vector

; 2095 :             _Myfirst = nullptr;

  00a9e	c7 85 3c f7 ff
	ff 00 00 00 00	 mov	 DWORD PTR _Set$12[ebp+64], 0

; 2096 :             _Mylast  = nullptr;

  00aa8	c7 85 40 f7 ff
	ff 00 00 00 00	 mov	 DWORD PTR _Set$12[ebp+68], 0

; 2097 :             _Myend   = nullptr;

  00ab2	c7 85 44 f7 ff
	ff 00 00 00 00	 mov	 DWORD PTR _Set$12[ebp+72], 0
$LN321@Load_Scrip:

; 2090 :         if (_Myfirst) { // destroy and deallocate old array

  00abc	8b 8d 30 f7 ff
	ff		 mov	 ecx, DWORD PTR _Set$12[ebp+52]
  00ac2	85 c9		 test	 ecx, ecx
  00ac4	74 58		 je	 SHORT $LN344@Load_Scrip

; 2093 :             _Al.deallocate(_Myfirst, static_cast<size_type>(_Myend - _Myfirst));

  00ac6	8b 85 38 f7 ff
	ff		 mov	 eax, DWORD PTR _Set$12[ebp+60]
  00acc	2b c1		 sub	 eax, ecx
  00ace	c1 f8 03	 sar	 eax, 3
; File C:\Program Files\Microsoft Visual Studio\2022\Professional\VC\Tools\MSVC\14.44.35207\include\xmemory

; 985  :         _STD _Deallocate<_New_alignof<_Ty>>(_Ptr, sizeof(_Ty) * _Count);

  00ad1	8d 14 c5 00 00
	00 00		 lea	 edx, DWORD PTR [eax*8]
  00ad8	8b c1		 mov	 eax, ecx

; 284  :         if (_Bytes >= _Big_allocation_threshold) {

  00ada	81 fa 00 10 00
	00		 cmp	 edx, 4096		; 00001000H
  00ae0	72 14		 jb	 SHORT $LN357@Load_Scrip

; 205  :     const uintptr_t _Ptr_container   = _Ptr_user[-1];

  00ae2	8b 48 fc	 mov	 ecx, DWORD PTR [eax-4]
  00ae5	83 c2 23	 add	 edx, 35			; 00000023H
  00ae8	2b c1		 sub	 eax, ecx

; 206  : 
; 207  :     // If the following asserts, it likely means that we are performing
; 208  :     // an aligned delete on memory coming from an unaligned allocation.
; 209  :     _STL_ASSERT(_Ptr_user[-2] == _Big_allocation_sentinel, "invalid argument");
; 210  : 
; 211  :     // Extra paranoia on aligned allocation/deallocation; ensure _Ptr_container is
; 212  :     // in range [_Min_back_shift, _Non_user_size]
; 213  : #ifdef _DEBUG
; 214  :     constexpr uintptr_t _Min_back_shift = 2 * sizeof(void*);
; 215  : #else // ^^^ defined(_DEBUG) / !defined(_DEBUG) vvv
; 216  :     constexpr uintptr_t _Min_back_shift = sizeof(void*);
; 217  : #endif // ^^^ !defined(_DEBUG) ^^^
; 218  :     const uintptr_t _Back_shift = reinterpret_cast<uintptr_t>(_Ptr) - _Ptr_container;
; 219  :     _STL_VERIFY(_Back_shift >= _Min_back_shift && _Back_shift <= _Non_user_size, "invalid argument");

  00aea	83 c0 fc	 add	 eax, -4			; fffffffcH
  00aed	83 f8 1f	 cmp	 eax, 31			; 0000001fH
  00af0	0f 87 2c 06 00
	00		 ja	 $LN1025@Load_Scrip
$LN357@Load_Scrip:

; 289  :         ::operator delete(_Ptr, _Bytes);

  00af6	52		 push	 edx
  00af7	51		 push	 ecx
  00af8	e8 00 00 00 00	 call	 ??3@YAXPAXI@Z		; operator delete
  00afd	83 c4 08	 add	 esp, 8
; File C:\Program Files\Microsoft Visual Studio\2022\Professional\VC\Tools\MSVC\14.44.35207\include\vector

; 2095 :             _Myfirst = nullptr;

  00b00	c7 85 30 f7 ff
	ff 00 00 00 00	 mov	 DWORD PTR _Set$12[ebp+52], 0

; 2096 :             _Mylast  = nullptr;

  00b0a	c7 85 34 f7 ff
	ff 00 00 00 00	 mov	 DWORD PTR _Set$12[ebp+56], 0

; 2097 :             _Myend   = nullptr;

  00b14	c7 85 38 f7 ff
	ff 00 00 00 00	 mov	 DWORD PTR _Set$12[ebp+60], 0
$LN344@Load_Scrip:

; 2090 :         if (_Myfirst) { // destroy and deallocate old array

  00b1e	8b 8d 24 f7 ff
	ff		 mov	 ecx, DWORD PTR _Set$12[ebp+40]
  00b24	85 c9		 test	 ecx, ecx
  00b26	74 58		 je	 SHORT $LN366@Load_Scrip

; 2093 :             _Al.deallocate(_Myfirst, static_cast<size_type>(_Myend - _Myfirst));

  00b28	8b 85 2c f7 ff
	ff		 mov	 eax, DWORD PTR _Set$12[ebp+48]
  00b2e	2b c1		 sub	 eax, ecx
  00b30	c1 f8 03	 sar	 eax, 3
; File C:\Program Files\Microsoft Visual Studio\2022\Professional\VC\Tools\MSVC\14.44.35207\include\xmemory

; 985  :         _STD _Deallocate<_New_alignof<_Ty>>(_Ptr, sizeof(_Ty) * _Count);

  00b33	8d 14 c5 00 00
	00 00		 lea	 edx, DWORD PTR [eax*8]
  00b3a	8b c1		 mov	 eax, ecx

; 284  :         if (_Bytes >= _Big_allocation_threshold) {

  00b3c	81 fa 00 10 00
	00		 cmp	 edx, 4096		; 00001000H
  00b42	72 14		 jb	 SHORT $LN379@Load_Scrip

; 205  :     const uintptr_t _Ptr_container   = _Ptr_user[-1];

  00b44	8b 48 fc	 mov	 ecx, DWORD PTR [eax-4]
  00b47	83 c2 23	 add	 edx, 35			; 00000023H
  00b4a	2b c1		 sub	 eax, ecx

; 206  : 
; 207  :     // If the following asserts, it likely means that we are performing
; 208  :     // an aligned delete on memory coming from an unaligned allocation.
; 209  :     _STL_ASSERT(_Ptr_user[-2] == _Big_allocation_sentinel, "invalid argument");
; 210  : 
; 211  :     // Extra paranoia on aligned allocation/deallocation; ensure _Ptr_container is
; 212  :     // in range [_Min_back_shift, _Non_user_size]
; 213  : #ifdef _DEBUG
; 214  :     constexpr uintptr_t _Min_back_shift = 2 * sizeof(void*);
; 215  : #else // ^^^ defined(_DEBUG) / !defined(_DEBUG) vvv
; 216  :     constexpr uintptr_t _Min_back_shift = sizeof(void*);
; 217  : #endif // ^^^ !defined(_DEBUG) ^^^
; 218  :     const uintptr_t _Back_shift = reinterpret_cast<uintptr_t>(_Ptr) - _Ptr_container;
; 219  :     _STL_VERIFY(_Back_shift >= _Min_back_shift && _Back_shift <= _Non_user_size, "invalid argument");

  00b4c	83 c0 fc	 add	 eax, -4			; fffffffcH
  00b4f	83 f8 1f	 cmp	 eax, 31			; 0000001fH
  00b52	0f 87 ca 05 00
	00		 ja	 $LN1025@Load_Scrip
$LN379@Load_Scrip:

; 289  :         ::operator delete(_Ptr, _Bytes);

  00b58	52		 push	 edx
  00b59	51		 push	 ecx
  00b5a	e8 00 00 00 00	 call	 ??3@YAXPAXI@Z		; operator delete
  00b5f	83 c4 08	 add	 esp, 8
; File C:\Program Files\Microsoft Visual Studio\2022\Professional\VC\Tools\MSVC\14.44.35207\include\vector

; 2095 :             _Myfirst = nullptr;

  00b62	c7 85 24 f7 ff
	ff 00 00 00 00	 mov	 DWORD PTR _Set$12[ebp+40], 0

; 2096 :             _Mylast  = nullptr;

  00b6c	c7 85 28 f7 ff
	ff 00 00 00 00	 mov	 DWORD PTR _Set$12[ebp+44], 0

; 2097 :             _Myend   = nullptr;

  00b76	c7 85 2c f7 ff
	ff 00 00 00 00	 mov	 DWORD PTR _Set$12[ebp+48], 0
$LN366@Load_Scrip:

; 2090 :         if (_Myfirst) { // destroy and deallocate old array

  00b80	8b 95 18 f7 ff
	ff		 mov	 edx, DWORD PTR _Set$12[ebp+28]
  00b86	85 d2		 test	 edx, edx
  00b88	74 51		 je	 SHORT $LN388@Load_Scrip

; 2093 :             _Al.deallocate(_Myfirst, static_cast<size_type>(_Myend - _Myfirst));

  00b8a	8b 8d 20 f7 ff
	ff		 mov	 ecx, DWORD PTR _Set$12[ebp+36]
; File C:\Program Files\Microsoft Visual Studio\2022\Professional\VC\Tools\MSVC\14.44.35207\include\xmemory

; 985  :         _STD _Deallocate<_New_alignof<_Ty>>(_Ptr, sizeof(_Ty) * _Count);

  00b90	8b c2		 mov	 eax, edx
; File C:\Program Files\Microsoft Visual Studio\2022\Professional\VC\Tools\MSVC\14.44.35207\include\vector

; 2093 :             _Al.deallocate(_Myfirst, static_cast<size_type>(_Myend - _Myfirst));

  00b92	2b ca		 sub	 ecx, edx
; File C:\Program Files\Microsoft Visual Studio\2022\Professional\VC\Tools\MSVC\14.44.35207\include\xmemory

; 985  :         _STD _Deallocate<_New_alignof<_Ty>>(_Ptr, sizeof(_Ty) * _Count);

  00b94	83 e1 f0	 and	 ecx, -16		; fffffff0H

; 284  :         if (_Bytes >= _Big_allocation_threshold) {

  00b97	81 f9 00 10 00
	00		 cmp	 ecx, 4096		; 00001000H
  00b9d	72 14		 jb	 SHORT $LN401@Load_Scrip

; 205  :     const uintptr_t _Ptr_container   = _Ptr_user[-1];

  00b9f	8b 50 fc	 mov	 edx, DWORD PTR [eax-4]
  00ba2	83 c1 23	 add	 ecx, 35			; 00000023H
  00ba5	2b c2		 sub	 eax, edx

; 206  : 
; 207  :     // If the following asserts, it likely means that we are performing
; 208  :     // an aligned delete on memory coming from an unaligned allocation.
; 209  :     _STL_ASSERT(_Ptr_user[-2] == _Big_allocation_sentinel, "invalid argument");
; 210  : 
; 211  :     // Extra paranoia on aligned allocation/deallocation; ensure _Ptr_container is
; 212  :     // in range [_Min_back_shift, _Non_user_size]
; 213  : #ifdef _DEBUG
; 214  :     constexpr uintptr_t _Min_back_shift = 2 * sizeof(void*);
; 215  : #else // ^^^ defined(_DEBUG) / !defined(_DEBUG) vvv
; 216  :     constexpr uintptr_t _Min_back_shift = sizeof(void*);
; 217  : #endif // ^^^ !defined(_DEBUG) ^^^
; 218  :     const uintptr_t _Back_shift = reinterpret_cast<uintptr_t>(_Ptr) - _Ptr_container;
; 219  :     _STL_VERIFY(_Back_shift >= _Min_back_shift && _Back_shift <= _Non_user_size, "invalid argument");

  00ba7	83 c0 fc	 add	 eax, -4			; fffffffcH
  00baa	83 f8 1f	 cmp	 eax, 31			; 0000001fH
  00bad	0f 87 6f 05 00
	00		 ja	 $LN1025@Load_Scrip
$LN401@Load_Scrip:

; 289  :         ::operator delete(_Ptr, _Bytes);

  00bb3	51		 push	 ecx
  00bb4	52		 push	 edx
  00bb5	e8 00 00 00 00	 call	 ??3@YAXPAXI@Z		; operator delete
  00bba	83 c4 08	 add	 esp, 8
; File C:\Program Files\Microsoft Visual Studio\2022\Professional\VC\Tools\MSVC\14.44.35207\include\vector

; 2095 :             _Myfirst = nullptr;

  00bbd	c7 85 18 f7 ff
	ff 00 00 00 00	 mov	 DWORD PTR _Set$12[ebp+28], 0

; 2096 :             _Mylast  = nullptr;

  00bc7	c7 85 1c f7 ff
	ff 00 00 00 00	 mov	 DWORD PTR _Set$12[ebp+32], 0

; 2097 :             _Myend   = nullptr;

  00bd1	c7 85 20 f7 ff
	ff 00 00 00 00	 mov	 DWORD PTR _Set$12[ebp+36], 0
$LN388@Load_Scrip:

; 2090 :         if (_Myfirst) { // destroy and deallocate old array

  00bdb	8b 95 0c f7 ff
	ff		 mov	 edx, DWORD PTR _Set$12[ebp+16]
  00be1	85 d2		 test	 edx, edx
  00be3	74 51		 je	 SHORT $LN410@Load_Scrip

; 2093 :             _Al.deallocate(_Myfirst, static_cast<size_type>(_Myend - _Myfirst));

  00be5	8b 8d 14 f7 ff
	ff		 mov	 ecx, DWORD PTR _Set$12[ebp+24]
; File C:\Program Files\Microsoft Visual Studio\2022\Professional\VC\Tools\MSVC\14.44.35207\include\xmemory

; 985  :         _STD _Deallocate<_New_alignof<_Ty>>(_Ptr, sizeof(_Ty) * _Count);

  00beb	8b c2		 mov	 eax, edx
; File C:\Program Files\Microsoft Visual Studio\2022\Professional\VC\Tools\MSVC\14.44.35207\include\vector

; 2093 :             _Al.deallocate(_Myfirst, static_cast<size_type>(_Myend - _Myfirst));

  00bed	2b ca		 sub	 ecx, edx
; File C:\Program Files\Microsoft Visual Studio\2022\Professional\VC\Tools\MSVC\14.44.35207\include\xmemory

; 985  :         _STD _Deallocate<_New_alignof<_Ty>>(_Ptr, sizeof(_Ty) * _Count);

  00bef	83 e1 f0	 and	 ecx, -16		; fffffff0H

; 284  :         if (_Bytes >= _Big_allocation_threshold) {

  00bf2	81 f9 00 10 00
	00		 cmp	 ecx, 4096		; 00001000H
  00bf8	72 14		 jb	 SHORT $LN423@Load_Scrip

; 205  :     const uintptr_t _Ptr_container   = _Ptr_user[-1];

  00bfa	8b 50 fc	 mov	 edx, DWORD PTR [eax-4]
  00bfd	83 c1 23	 add	 ecx, 35			; 00000023H
  00c00	2b c2		 sub	 eax, edx

; 206  : 
; 207  :     // If the following asserts, it likely means that we are performing
; 208  :     // an aligned delete on memory coming from an unaligned allocation.
; 209  :     _STL_ASSERT(_Ptr_user[-2] == _Big_allocation_sentinel, "invalid argument");
; 210  : 
; 211  :     // Extra paranoia on aligned allocation/deallocation; ensure _Ptr_container is
; 212  :     // in range [_Min_back_shift, _Non_user_size]
; 213  : #ifdef _DEBUG
; 214  :     constexpr uintptr_t _Min_back_shift = 2 * sizeof(void*);
; 215  : #else // ^^^ defined(_DEBUG) / !defined(_DEBUG) vvv
; 216  :     constexpr uintptr_t _Min_back_shift = sizeof(void*);
; 217  : #endif // ^^^ !defined(_DEBUG) ^^^
; 218  :     const uintptr_t _Back_shift = reinterpret_cast<uintptr_t>(_Ptr) - _Ptr_container;
; 219  :     _STL_VERIFY(_Back_shift >= _Min_back_shift && _Back_shift <= _Non_user_size, "invalid argument");

  00c02	83 c0 fc	 add	 eax, -4			; fffffffcH
  00c05	83 f8 1f	 cmp	 eax, 31			; 0000001fH
  00c08	0f 87 14 05 00
	00		 ja	 $LN1025@Load_Scrip
$LN423@Load_Scrip:

; 289  :         ::operator delete(_Ptr, _Bytes);

  00c0e	51		 push	 ecx
  00c0f	52		 push	 edx
  00c10	e8 00 00 00 00	 call	 ??3@YAXPAXI@Z		; operator delete
  00c15	83 c4 08	 add	 esp, 8
; File C:\Program Files\Microsoft Visual Studio\2022\Professional\VC\Tools\MSVC\14.44.35207\include\vector

; 2095 :             _Myfirst = nullptr;

  00c18	c7 85 0c f7 ff
	ff 00 00 00 00	 mov	 DWORD PTR _Set$12[ebp+16], 0

; 2096 :             _Mylast  = nullptr;

  00c22	c7 85 10 f7 ff
	ff 00 00 00 00	 mov	 DWORD PTR _Set$12[ebp+20], 0

; 2097 :             _Myend   = nullptr;

  00c2c	c7 85 14 f7 ff
	ff 00 00 00 00	 mov	 DWORD PTR _Set$12[ebp+24], 0
$LN410@Load_Scrip:

; 2090 :         if (_Myfirst) { // destroy and deallocate old array

  00c36	8b 8d 00 f7 ff
	ff		 mov	 ecx, DWORD PTR _Set$12[ebp+4]
  00c3c	85 c9		 test	 ecx, ecx
  00c3e	74 3a		 je	 SHORT $LN432@Load_Scrip

; 2093 :             _Al.deallocate(_Myfirst, static_cast<size_type>(_Myend - _Myfirst));

  00c40	8b 85 08 f7 ff
	ff		 mov	 eax, DWORD PTR _Set$12[ebp+12]
  00c46	2b c1		 sub	 eax, ecx
  00c48	c1 f8 02	 sar	 eax, 2
; File C:\Program Files\Microsoft Visual Studio\2022\Professional\VC\Tools\MSVC\14.44.35207\include\xmemory

; 985  :         _STD _Deallocate<_New_alignof<_Ty>>(_Ptr, sizeof(_Ty) * _Count);

  00c4b	8d 14 85 00 00
	00 00		 lea	 edx, DWORD PTR [eax*4]
  00c52	8b c1		 mov	 eax, ecx

; 284  :         if (_Bytes >= _Big_allocation_threshold) {

  00c54	81 fa 00 10 00
	00		 cmp	 edx, 4096		; 00001000H
  00c5a	72 14		 jb	 SHORT $LN445@Load_Scrip

; 205  :     const uintptr_t _Ptr_container   = _Ptr_user[-1];

  00c5c	8b 48 fc	 mov	 ecx, DWORD PTR [eax-4]
  00c5f	83 c2 23	 add	 edx, 35			; 00000023H
  00c62	2b c1		 sub	 eax, ecx

; 206  : 
; 207  :     // If the following asserts, it likely means that we are performing
; 208  :     // an aligned delete on memory coming from an unaligned allocation.
; 209  :     _STL_ASSERT(_Ptr_user[-2] == _Big_allocation_sentinel, "invalid argument");
; 210  : 
; 211  :     // Extra paranoia on aligned allocation/deallocation; ensure _Ptr_container is
; 212  :     // in range [_Min_back_shift, _Non_user_size]
; 213  : #ifdef _DEBUG
; 214  :     constexpr uintptr_t _Min_back_shift = 2 * sizeof(void*);
; 215  : #else // ^^^ defined(_DEBUG) / !defined(_DEBUG) vvv
; 216  :     constexpr uintptr_t _Min_back_shift = sizeof(void*);
; 217  : #endif // ^^^ !defined(_DEBUG) ^^^
; 218  :     const uintptr_t _Back_shift = reinterpret_cast<uintptr_t>(_Ptr) - _Ptr_container;
; 219  :     _STL_VERIFY(_Back_shift >= _Min_back_shift && _Back_shift <= _Non_user_size, "invalid argument");

  00c64	83 c0 fc	 add	 eax, -4			; fffffffcH
  00c67	83 f8 1f	 cmp	 eax, 31			; 0000001fH
  00c6a	0f 87 b2 04 00
	00		 ja	 $LN1025@Load_Scrip
$LN445@Load_Scrip:

; 289  :         ::operator delete(_Ptr, _Bytes);

  00c70	52		 push	 edx
  00c71	51		 push	 ecx
  00c72	e8 00 00 00 00	 call	 ??3@YAXPAXI@Z		; operator delete
  00c77	83 c4 08	 add	 esp, 8
$LN432@Load_Scrip:
; File C:\IAGOS\server\v18\Source\Source\_Common\Exchange.cpp

; 207  : 			s.GetToken();

  00c7a	6a 00		 push	 0
  00c7c	8d 8d 98 f7 ff
	ff		 lea	 ecx, DWORD PTR _s$[ebp]
  00c82	e8 00 00 00 00	 call	 ?GetToken@CScanner@@UAEHH@Z ; CScanner::GetToken
  00c87	8b 85 d4 f7 ff
	ff		 mov	 eax, DWORD PTR _s$[ebp+60]
  00c8d	80 38 7d	 cmp	 BYTE PTR [eax], 125	; 0000007dH
  00c90	0f 85 aa f5 ff
	ff		 jne	 $LL4@Load_Scrip
$LN1047@Load_Scrip:
; File C:\Program Files\Microsoft Visual Studio\2022\Professional\VC\Tools\MSVC\14.44.35207\include\utility

; 274  :         : first(_STD forward<_Other1>(_Val1)), second(_STD forward<_Other2>(_Val2)) {

  00c96	8b 85 68 f7 ff
	ff		 mov	 eax, DWORD PTR _nMMIId$1$[ebp]
  00c9c	8d 8d 70 f7 ff
	ff		 lea	 ecx, DWORD PTR $T14[ebp+4]
  00ca2	89 85 6c f7 ff
	ff		 mov	 DWORD PTR $T14[ebp], eax
  00ca8	8d 85 70 f7 ff
	ff		 lea	 eax, DWORD PTR $T14[ebp+4]
  00cae	89 85 68 f7 ff
	ff		 mov	 DWORD PTR _this$[ebp], eax
  00cb4	8d 85 50 f7 ff
	ff		 lea	 eax, DWORD PTR _create$13[ebp]
  00cba	50		 push	 eax
  00cbb	e8 00 00 00 00	 call	 ??0?$vector@HV?$allocator@H@std@@@std@@QAE@ABV01@@Z ; std::vector<int,std::allocator<int> >::vector<int,std::allocator<int> >
; File C:\Program Files\Microsoft Visual Studio\2022\Professional\VC\Tools\MSVC\14.44.35207\include\vector

; 748  :         const auto _Count       = static_cast<size_type>(_Right_data._Mylast - _Right_data._Myfirst);

  00cc0	8b 8d 60 f7 ff
	ff		 mov	 ecx, DWORD PTR _create$13[ebp+16]

; 400  :     _CONSTEXPR20 _Vector_val() noexcept : _Myfirst(), _Mylast(), _Myend() {}

  00cc6	33 c0		 xor	 eax, eax

; 748  :         const auto _Count       = static_cast<size_type>(_Right_data._Mylast - _Right_data._Myfirst);

  00cc8	2b 8d 5c f7 ff
	ff		 sub	 ecx, DWORD PTR _create$13[ebp+12]

; 400  :     _CONSTEXPR20 _Vector_val() noexcept : _Myfirst(), _Mylast(), _Myend() {}

  00cce	33 ff		 xor	 edi, edi
  00cd0	89 85 94 f7 ff
	ff		 mov	 DWORD PTR $T17[ebp], eax
  00cd6	89 85 7c f7 ff
	ff		 mov	 DWORD PTR $T14[ebp+16], eax
  00cdc	89 85 84 f7 ff
	ff		 mov	 DWORD PTR $T14[ebp+24], eax

; 748  :         const auto _Count       = static_cast<size_type>(_Right_data._Mylast - _Right_data._Myfirst);

  00ce2	b8 67 66 66 66	 mov	 eax, 1717986919		; 66666667H
  00ce7	f7 e9		 imul	 ecx
  00ce9	c6 45 fc 04	 mov	 BYTE PTR __$EHRec$[ebp+8], 4
  00ced	c1 fa 05	 sar	 edx, 5
  00cf0	8b c2		 mov	 eax, edx

; 400  :     _CONSTEXPR20 _Vector_val() noexcept : _Myfirst(), _Mylast(), _Myend() {}

  00cf2	89 bd 80 f7 ff
	ff		 mov	 DWORD PTR $T14[ebp+20], edi

; 748  :         const auto _Count       = static_cast<size_type>(_Right_data._Mylast - _Right_data._Myfirst);

  00cf8	c1 e8 1f	 shr	 eax, 31			; 0000001fH
  00cfb	03 c2		 add	 eax, edx

; 2111 :         if (_Count != 0) {

  00cfd	0f 84 c7 00 00
	00		 je	 $LN643@Load_Scrip

; 2051 :         if (_Newcapacity > max_size()) {

  00d03	3d 33 33 33 03	 cmp	 eax, 53687091		; 03333333H
  00d08	0f 87 23 04 00
	00		 ja	 $LN1027@Load_Scrip
; File C:\Program Files\Microsoft Visual Studio\2022\Professional\VC\Tools\MSVC\14.44.35207\include\xmemory

; 122  :     return _Count * _Ty_size;

  00d0e	8d 3c 80	 lea	 edi, DWORD PTR [eax+eax*4]
  00d11	c1 e7 04	 shl	 edi, 4

; 227  :     if (_Bytes == 0) {

  00d14	85 ff		 test	 edi, edi
  00d16	75 04		 jne	 SHORT $LN581@Load_Scrip

; 228  :         return nullptr;

  00d18	33 c9		 xor	 ecx, ecx
  00d1a	eb 1a		 jmp	 SHORT $LN1084@Load_Scrip
$LN581@Load_Scrip:

; 229  :     }
; 230  : 
; 231  : #if _HAS_CXX20 // TRANSITION, GH-1532
; 232  :     if (_STD is_constant_evaluated()) {
; 233  :         return _Traits::_Allocate(_Bytes);
; 234  :     }
; 235  : #endif // _HAS_CXX20
; 236  : 
; 237  : #ifdef __cpp_aligned_new
; 238  :     if constexpr (_Align > __STDCPP_DEFAULT_NEW_ALIGNMENT__) {
; 239  :         size_t _Passed_align = _Align;
; 240  : #if defined(_M_IX86) || defined(_M_X64)
; 241  :         if (_Bytes >= _Big_allocation_threshold) {
; 242  :             // boost the alignment of big allocations to help autovectorization
; 243  :             _Passed_align = (_STD max)(_Align, _Big_allocation_alignment);
; 244  :         }
; 245  : #endif // defined(_M_IX86) || defined(_M_X64)
; 246  :         return _Traits::_Allocate_aligned(_Bytes, _Passed_align);
; 247  :     } else
; 248  : #endif // defined(__cpp_aligned_new)
; 249  :     {
; 250  : #if defined(_M_IX86) || defined(_M_X64)
; 251  :         if (_Bytes >= _Big_allocation_threshold) {

  00d1c	57		 push	 edi
  00d1d	81 ff 00 10 00
	00		 cmp	 edi, 4096		; 00001000H
  00d23	72 07		 jb	 SHORT $LN582@Load_Scrip

; 252  :             // boost the alignment of big allocations to help autovectorization
; 253  :             return _Allocate_manually_vector_aligned<_Traits>(_Bytes);

  00d25	e8 00 00 00 00	 call	 ??$_Allocate_manually_vector_aligned@U_Default_allocate_traits@std@@@std@@YAPAXI@Z ; std::_Allocate_manually_vector_aligned<std::_Default_allocate_traits>
  00d2a	eb 05		 jmp	 SHORT $LN1085@Load_Scrip
$LN582@Load_Scrip:

; 136  :         return ::operator new(_Bytes);

  00d2c	e8 00 00 00 00	 call	 ??2@YAPAXI@Z		; operator new
$LN1085@Load_Scrip:
; File C:\Program Files\Microsoft Visual Studio\2022\Professional\VC\Tools\MSVC\14.44.35207\include\vector

; 2035 :         _Myfirst              = _Newvec;

  00d31	8b c8		 mov	 ecx, eax
  00d33	83 c4 04	 add	 esp, 4
$LN1084@Load_Scrip:

; 2037 :         _Myend                = _Newvec + _Newcapacity;

  00d36	8d 04 0f	 lea	 eax, DWORD PTR [edi+ecx]
  00d39	89 8d 94 f7 ff
	ff		 mov	 DWORD PTR $T17[ebp], ecx
  00d3f	89 85 84 f7 ff
	ff		 mov	 DWORD PTR $T14[ebp+24], eax

; 2113 :             _Tidy_guard<vector> _Guard{this};

  00d45	8d 85 7c f7 ff
	ff		 lea	 eax, DWORD PTR $T14[ebp+16]

; 2035 :         _Myfirst              = _Newvec;

  00d4b	89 8d 7c f7 ff
	ff		 mov	 DWORD PTR $T14[ebp+16], ecx

; 2036 :         _Mylast               = _Newvec;

  00d51	89 8d 80 f7 ff
	ff		 mov	 DWORD PTR $T14[ebp+20], ecx

; 2113 :             _Tidy_guard<vector> _Guard{this};

  00d57	89 85 a4 f6 ff
	ff		 mov	 DWORD PTR __Guard$4[ebp], eax
; File C:\Program Files\Microsoft Visual Studio\2022\Professional\VC\Tools\MSVC\14.44.35207\include\xmemory

; 1877 :     auto _ULast  = _STD _Get_unwrapped(_STD move(_Last));

  00d5d	8b 95 60 f7 ff
	ff		 mov	 edx, DWORD PTR _create$13[ebp+16]

; 1833 :     _CONSTEXPR20 _Uninitialized_backout_al(pointer _Dest, _Alloc& _Al_) : _First(_Dest), _Last(_Dest), _Al(_Al_) {}

  00d63	8b f9		 mov	 edi, ecx

; 1877 :     auto _ULast  = _STD _Get_unwrapped(_STD move(_Last));

  00d65	89 95 88 f7 ff
	ff		 mov	 DWORD PTR __ULast$1$[ebp], edx

; 1833 :     _CONSTEXPR20 _Uninitialized_backout_al(pointer _Dest, _Alloc& _Al_) : _First(_Dest), _Last(_Dest), _Al(_Al_) {}

  00d6b	89 8d b0 f6 ff
	ff		 mov	 DWORD PTR __Backout$6[ebp], ecx
  00d71	89 bd b4 f6 ff
	ff		 mov	 DWORD PTR __Backout$6[ebp+4], edi
  00d77	89 85 b8 f6 ff
	ff		 mov	 DWORD PTR __Backout$6[ebp+8], eax
; File C:\Program Files\Microsoft Visual Studio\2022\Professional\VC\Tools\MSVC\14.44.35207\include\vector

; 2034 :         const pointer _Newvec = _STD _Allocate_at_least_helper(_Getal(), _Newcapacity);

  00d7d	8b 85 5c f7 ff
	ff		 mov	 eax, DWORD PTR _create$13[ebp+12]
; File C:\Program Files\Microsoft Visual Studio\2022\Professional\VC\Tools\MSVC\14.44.35207\include\xmemory

; 1900 :     _Uninitialized_backout_al<_Alloc> _Backout{_Dest, _Al};

  00d83	c6 45 fc 06	 mov	 BYTE PTR __$EHRec$[ebp+8], 6
; File C:\Program Files\Microsoft Visual Studio\2022\Professional\VC\Tools\MSVC\14.44.35207\include\vector

; 2034 :         const pointer _Newvec = _STD _Allocate_at_least_helper(_Getal(), _Newcapacity);

  00d87	3b c2		 cmp	 eax, edx
; File C:\Program Files\Microsoft Visual Studio\2022\Professional\VC\Tools\MSVC\14.44.35207\include\xmemory

; 1901 :     for (; _UFirst != _ULast; ++_UFirst) {

  00d89	74 33		 je	 SHORT $LN592@Load_Scrip
  00d8b	8b f0		 mov	 esi, eax
  00d8d	0f 1f 00	 npad	 3
$LL593@Load_Scrip:

; 732  :         ::new (const_cast<void*>(static_cast<const volatile void*>(_Ptr))) _Objty(_STD forward<_Types>(_Args)...);

  00d90	56		 push	 esi
  00d91	8b cf		 mov	 ecx, edi
  00d93	e8 00 00 00 00	 call	 ??0__SET@CExchange@@QAE@ABU01@@Z

; 1845 :         ++_Last;

  00d98	83 c7 50	 add	 edi, 80			; 00000050H

; 1901 :     for (; _UFirst != _ULast; ++_UFirst) {

  00d9b	83 c6 50	 add	 esi, 80			; 00000050H

; 1845 :         ++_Last;

  00d9e	89 bd b4 f6 ff
	ff		 mov	 DWORD PTR __Backout$6[ebp+4], edi

; 1901 :     for (; _UFirst != _ULast; ++_UFirst) {

  00da4	3b b5 88 f7 ff
	ff		 cmp	 esi, DWORD PTR __ULast$1$[ebp]
  00daa	75 e4		 jne	 SHORT $LL593@Load_Scrip
  00dac	8b 85 7c f7 ff
	ff		 mov	 eax, DWORD PTR $T14[ebp+16]
  00db2	8b b5 8c f7 ff
	ff		 mov	 esi, DWORD PTR _strErrorMMIId$[ebp]
  00db8	89 85 94 f7 ff
	ff		 mov	 DWORD PTR $T17[ebp], eax
$LN592@Load_Scrip:

; 1849 :         _First = _Last;

  00dbe	89 bd b0 f6 ff
	ff		 mov	 DWORD PTR __Backout$6[ebp], edi
; File C:\Program Files\Microsoft Visual Studio\2022\Professional\VC\Tools\MSVC\14.44.35207\include\vector

; 2120 :                 _My_data._Mylast = _STD _Uninitialized_copy(_STD forward<_Valty>(_Val)..., _My_data._Myfirst, _Al);

  00dc4	89 bd 80 f7 ff
	ff		 mov	 DWORD PTR $T14[ebp+20], edi
$LN643@Load_Scrip:
; File C:\IAGOS\server\v18\Source\Source\_Common\Exchange.cpp

; 209  : 		m_mapExchange.insert( map<int, __SETLIST>::value_type(nMMIId, create) );

  00dca	8b 85 4c f7 ff
	ff		 mov	 eax, DWORD PTR _this$GSCopy$1$[ebp]
; File C:\Program Files\Microsoft Visual Studio\2022\Professional\VC\Tools\MSVC\14.44.35207\include\xtree

; 1017 :             _Loc                = _Find_lower_bound(_Keyval);

  00dd0	8d 8d 6c f7 ff
	ff		 lea	 ecx, DWORD PTR $T14[ebp]
  00dd6	51		 push	 ecx
  00dd7	8d 8d 8c f6 ff
	ff		 lea	 ecx, DWORD PTR $T2[ebp]
; File C:\IAGOS\server\v18\Source\Source\_Common\Exchange.cpp

; 209  : 		m_mapExchange.insert( map<int, __SETLIST>::value_type(nMMIId, create) );

  00ddd	c6 45 fc 07	 mov	 BYTE PTR __$EHRec$[ebp+8], 7
; File C:\Program Files\Microsoft Visual Studio\2022\Professional\VC\Tools\MSVC\14.44.35207\include\xtree

; 1017 :             _Loc                = _Find_lower_bound(_Keyval);

  00de1	51		 push	 ecx
  00de2	8d 48 04	 lea	 ecx, DWORD PTR [eax+4]
  00de5	e8 00 00 00 00	 call	 ??$_Find_lower_bound@H@?$_Tree@V?$_Tmap_traits@HU__SETLIST@CExchange@@U?$less@H@std@@V?$allocator@U?$pair@$$CBHU__SETLIST@CExchange@@@std@@@4@$0A@@std@@@std@@IBE?AU?$_Tree_find_result@PAU?$_Tree_node@U?$pair@$$CBHU__SETLIST@CExchange@@@std@@PAX@std@@@1@ABH@Z ; std::_Tree<std::_Tmap_traits<int,CExchange::__SETLIST,std::less<int>,std::allocator<std::pair<int const ,CExchange::__SETLIST> >,0> >::_Find_lower_bound<int>
  00dea	8b 48 08	 mov	 ecx, DWORD PTR [eax+8]
  00ded	f3 0f 7e 00	 movq	 xmm0, QWORD PTR [eax]
  00df1	66 0f d6 85 98
	f6 ff ff	 movq	 QWORD PTR __Loc$3[ebp], xmm0

; 1624 :         return !_Bound->_Isnil && !_DEBUG_LT_PRED(_Getcomp(), _Keyval, _Traits::_Kfn(_Bound->_Myval));

  00df9	80 79 0d 00	 cmp	 BYTE PTR [ecx+13], 0
  00dfd	75 0f		 jne	 SHORT $LN657@Load_Scrip
; File C:\Program Files\Microsoft Visual Studio\2022\Professional\VC\Tools\MSVC\14.44.35207\include\type_traits

; 2380 :         return _Left < _Right;

  00dff	8b 85 6c f7 ff
	ff		 mov	 eax, DWORD PTR $T14[ebp]
  00e05	3b 41 10	 cmp	 eax, DWORD PTR [ecx+16]
; File C:\Program Files\Microsoft Visual Studio\2022\Professional\VC\Tools\MSVC\14.44.35207\include\xtree

; 1624 :         return !_Bound->_Isnil && !_DEBUG_LT_PRED(_Getcomp(), _Keyval, _Traits::_Kfn(_Bound->_Myval));

  00e08	0f 8d 00 01 00
	00		 jge	 $LN1078@Load_Scrip
$LN657@Load_Scrip:

; 1648 :         if (max_size() == _Get_scary()->_Mysize) {

  00e0e	8b 8d 4c f7 ff
	ff		 mov	 ecx, DWORD PTR _this$GSCopy$1$[ebp]
  00e14	83 c1 04	 add	 ecx, 4
  00e17	81 79 04 5d 74
	d1 05		 cmp	 DWORD PTR [ecx+4], 97612893 ; 05d1745dH
  00e1e	0f 84 ea 02 00
	00		 je	 $LN1029@Load_Scrip

; 1023 :             _Inserted = _Tree_temp_node<_Alnode>(_Getal(), _Scary->_Myhead, _STD forward<_Valtys>(_Vals)...)._Release();

  00e24	8b 01		 mov	 eax, DWORD PTR [ecx]
  00e26	89 85 90 f7 ff
	ff		 mov	 DWORD PTR __Myhead$1$[ebp], eax
; File C:\Program Files\Microsoft Visual Studio\2022\Professional\VC\Tools\MSVC\14.44.35207\include\xmemory

; 1160 :     _CONSTEXPR20 explicit _Alloc_construct_ptr(_Alloc& _Al_) : _Al(_Al_), _Ptr(nullptr) {}

  00e2c	89 8d a8 f6 ff
	ff		 mov	 DWORD PTR $T5[ebp], ecx

; 136  :         return ::operator new(_Bytes);

  00e32	6a 2c		 push	 44			; 0000002cH
; File C:\Program Files\Microsoft Visual Studio\2022\Professional\VC\Tools\MSVC\14.44.35207\include\xtree

; 808  :     explicit _Tree_temp_node_alloc(_Alnode& _Al_) : _Alloc_construct_ptr<_Alnode>(_Al_) {

  00e34	c6 45 fc 08	 mov	 BYTE PTR __$EHRec$[ebp+8], 8
; File C:\Program Files\Microsoft Visual Studio\2022\Professional\VC\Tools\MSVC\14.44.35207\include\xmemory

; 1167 :         _Ptr = nullptr; // if allocate throws, prevents double-free

  00e38	c7 85 ac f6 ff
	ff 00 00 00 00	 mov	 DWORD PTR $T5[ebp+4], 0

; 136  :         return ::operator new(_Bytes);

  00e42	e8 00 00 00 00	 call	 ??2@YAPAXI@Z		; operator new
; File C:\Program Files\Microsoft Visual Studio\2022\Professional\VC\Tools\MSVC\14.44.35207\include\utility

; 278  :     pair(pair&&)      = default;

  00e47	8b 8d 6c f7 ff
	ff		 mov	 ecx, DWORD PTR $T14[ebp]
; File C:\Program Files\Microsoft Visual Studio\2022\Professional\VC\Tools\MSVC\14.44.35207\include\xmemory

; 256  :         return _Traits::_Allocate(_Bytes);

  00e4d	8b f8		 mov	 edi, eax

; 136  :         return ::operator new(_Bytes);

  00e4f	83 c4 04	 add	 esp, 4
; File C:\Program Files\Microsoft Visual Studio\2022\Professional\VC\Tools\MSVC\14.44.35207\include\utility

; 774  :     _Val         = static_cast<_Other&&>(_New_val);

  00e52	c7 85 ac f6 ff
	ff 00 00 00 00	 mov	 DWORD PTR $T5[ebp+4], 0

; 278  :     pair(pair&&)      = default;

  00e5c	89 4f 10	 mov	 DWORD PTR [edi+16], ecx

; 773  :     _Ty _Old_val = static_cast<_Ty&&>(_Val);

  00e5f	8b 95 78 f7 ff
	ff		 mov	 edx, DWORD PTR $T14[ebp+12]
  00e65	8b 8d 74 f7 ff
	ff		 mov	 ecx, DWORD PTR $T14[ebp+8]
  00e6b	8b 85 70 f7 ff
	ff		 mov	 eax, DWORD PTR $T14[ebp+4]

; 774  :     _Val         = static_cast<_Other&&>(_New_val);

  00e71	c7 85 78 f7 ff
	ff 00 00 00 00	 mov	 DWORD PTR $T14[ebp+12], 0
  00e7b	c7 85 74 f7 ff
	ff 00 00 00 00	 mov	 DWORD PTR $T14[ebp+8], 0
  00e85	c7 85 70 f7 ff
	ff 00 00 00 00	 mov	 DWORD PTR $T14[ebp+4], 0
; File C:\Program Files\Microsoft Visual Studio\2022\Professional\VC\Tools\MSVC\14.44.35207\include\vector

; 403  :         : _Myfirst(_First), _Mylast(_Last), _Myend(_End) {}

  00e8f	89 4f 18	 mov	 DWORD PTR [edi+24], ecx
  00e92	89 47 14	 mov	 DWORD PTR [edi+20], eax
  00e95	89 57 1c	 mov	 DWORD PTR [edi+28], edx
; File C:\Program Files\Microsoft Visual Studio\2022\Professional\VC\Tools\MSVC\14.44.35207\include\utility

; 773  :     _Ty _Old_val = static_cast<_Ty&&>(_Val);

  00e98	8b 8d 80 f7 ff
	ff		 mov	 ecx, DWORD PTR $T14[ebp+20]
  00e9e	8b 85 7c f7 ff
	ff		 mov	 eax, DWORD PTR $T14[ebp+16]
  00ea4	8b 95 84 f7 ff
	ff		 mov	 edx, DWORD PTR $T14[ebp+24]

; 774  :     _Val         = static_cast<_Other&&>(_New_val);

  00eaa	c7 85 84 f7 ff
	ff 00 00 00 00	 mov	 DWORD PTR $T14[ebp+24], 0
  00eb4	c7 85 80 f7 ff
	ff 00 00 00 00	 mov	 DWORD PTR $T14[ebp+20], 0
  00ebe	c7 85 7c f7 ff
	ff 00 00 00 00	 mov	 DWORD PTR $T14[ebp+16], 0
; File C:\Program Files\Microsoft Visual Studio\2022\Professional\VC\Tools\MSVC\14.44.35207\include\vector

; 403  :         : _Myfirst(_First), _Mylast(_Last), _Myend(_End) {}

  00ec8	89 4f 24	 mov	 DWORD PTR [edi+36], ecx
; File C:\Program Files\Microsoft Visual Studio\2022\Professional\VC\Tools\MSVC\14.44.35207\include\xtree

; 1042 :         return {_Scary->_Insert_node(_Loc._Location, _Inserted), true};

  00ecb	8b 8d 4c f7 ff
	ff		 mov	 ecx, DWORD PTR _this$GSCopy$1$[ebp]
; File C:\Program Files\Microsoft Visual Studio\2022\Professional\VC\Tools\MSVC\14.44.35207\include\vector

; 403  :         : _Myfirst(_First), _Mylast(_Last), _Myend(_End) {}

  00ed1	89 47 20	 mov	 DWORD PTR [edi+32], eax
; File C:\Program Files\Microsoft Visual Studio\2022\Professional\VC\Tools\MSVC\14.44.35207\include\xtree

; 831  :         _Construct_in_place(this->_Ptr->_Left, _Myhead);

  00ed4	8b 85 90 f7 ff
	ff		 mov	 eax, DWORD PTR __Myhead$1$[ebp]

; 1042 :         return {_Scary->_Insert_node(_Loc._Location, _Inserted), true};

  00eda	57		 push	 edi
  00edb	ff b5 9c f6 ff
	ff		 push	 DWORD PTR __Loc$3[ebp+4]
; File C:\Program Files\Microsoft Visual Studio\2022\Professional\VC\Tools\MSVC\14.44.35207\include\vector

; 403  :         : _Myfirst(_First), _Mylast(_Last), _Myend(_End) {}

  00ee1	89 57 28	 mov	 DWORD PTR [edi+40], edx
; File C:\Program Files\Microsoft Visual Studio\2022\Professional\VC\Tools\MSVC\14.44.35207\include\xtree

; 1042 :         return {_Scary->_Insert_node(_Loc._Location, _Inserted), true};

  00ee4	8d 49 04	 lea	 ecx, DWORD PTR [ecx+4]
  00ee7	ff b5 98 f6 ff
	ff		 push	 DWORD PTR __Loc$3[ebp]

; 831  :         _Construct_in_place(this->_Ptr->_Left, _Myhead);

  00eed	89 07		 mov	 DWORD PTR [edi], eax

; 832  :         _Construct_in_place(this->_Ptr->_Parent, _Myhead);

  00eef	89 47 04	 mov	 DWORD PTR [edi+4], eax

; 833  :         _Construct_in_place(this->_Ptr->_Right, _Myhead);

  00ef2	89 47 08	 mov	 DWORD PTR [edi+8], eax

; 834  :         this->_Ptr->_Color = _Red;

  00ef5	66 c7 47 0c 00
	00		 mov	 WORD PTR [edi+12], 0

; 1042 :         return {_Scary->_Insert_node(_Loc._Location, _Inserted), true};

  00efb	e8 00 00 00 00	 call	 ?_Insert_node@?$_Tree_val@U?$_Tree_simple_types@U?$pair@$$CBHU__SETLIST@CExchange@@@std@@@std@@@std@@QAEPAU?$_Tree_node@U?$pair@$$CBHU__SETLIST@CExchange@@@std@@PAX@2@U?$_Tree_id@PAU?$_Tree_node@U?$pair@$$CBHU__SETLIST@CExchange@@@std@@PAX@std@@@2@QAU32@@Z ; std::_Tree_val<std::_Tree_simple_types<std::pair<int const ,CExchange::__SETLIST> > >::_Insert_node
  00f00	8b bd 80 f7 ff
	ff		 mov	 edi, DWORD PTR $T14[ebp+20]
  00f06	8b 85 7c f7 ff
	ff		 mov	 eax, DWORD PTR $T14[ebp+16]

; 1624 :         return !_Bound->_Isnil && !_DEBUG_LT_PRED(_Getcomp(), _Keyval, _Traits::_Kfn(_Bound->_Myval));

  00f0c	eb 06		 jmp	 SHORT $LN802@Load_Scrip
$LN1078@Load_Scrip:
  00f0e	8b 85 94 f7 ff
	ff		 mov	 eax, DWORD PTR $T17[ebp]
$LN802@Load_Scrip:
; File C:\IAGOS\server\v18\Source\Source\_Common\Exchange.cpp

; 209  : 		m_mapExchange.insert( map<int, __SETLIST>::value_type(nMMIId, create) );

  00f14	c6 45 fc 02	 mov	 BYTE PTR __$EHRec$[ebp+8], 2
; File C:\Program Files\Microsoft Visual Studio\2022\Professional\VC\Tools\MSVC\14.44.35207\include\vector

; 2090 :         if (_Myfirst) { // destroy and deallocate old array

  00f18	85 c0		 test	 eax, eax
  00f1a	74 7c		 je	 SHORT $LN831@Load_Scrip

; 2091 :             _STD _Destroy_range(_Myfirst, _Mylast, _Al);

  00f1c	8d 8d 7c f7 ff
	ff		 lea	 ecx, DWORD PTR $T14[ebp+16]
  00f22	51		 push	 ecx
  00f23	57		 push	 edi
  00f24	50		 push	 eax
  00f25	e8 00 00 00 00	 call	 ??$_Destroy_range@V?$allocator@U__SET@CExchange@@@std@@@std@@YAXPAU__SET@CExchange@@QAU12@AAV?$allocator@U__SET@CExchange@@@0@@Z ; std::_Destroy_range<std::allocator<CExchange::__SET> >

; 2093 :             _Al.deallocate(_Myfirst, static_cast<size_type>(_Myend - _Myfirst));

  00f2a	8b 8d 84 f7 ff
	ff		 mov	 ecx, DWORD PTR $T14[ebp+24]
  00f30	b8 67 66 66 66	 mov	 eax, 1717986919		; 66666667H
  00f35	8b bd 7c f7 ff
	ff		 mov	 edi, DWORD PTR $T14[ebp+16]
  00f3b	83 c4 0c	 add	 esp, 12			; 0000000cH
  00f3e	2b cf		 sub	 ecx, edi
  00f40	f7 e9		 imul	 ecx
  00f42	c1 fa 05	 sar	 edx, 5
  00f45	8b c2		 mov	 eax, edx
  00f47	c1 e8 1f	 shr	 eax, 31			; 0000001fH
  00f4a	03 c2		 add	 eax, edx
; File C:\Program Files\Microsoft Visual Studio\2022\Professional\VC\Tools\MSVC\14.44.35207\include\xmemory

; 985  :         _STD _Deallocate<_New_alignof<_Ty>>(_Ptr, sizeof(_Ty) * _Count);

  00f4c	8d 0c 80	 lea	 ecx, DWORD PTR [eax+eax*4]
  00f4f	8b c7		 mov	 eax, edi
  00f51	c1 e1 04	 shl	 ecx, 4

; 284  :         if (_Bytes >= _Big_allocation_threshold) {

  00f54	81 f9 00 10 00
	00		 cmp	 ecx, 4096		; 00001000H
  00f5a	72 14		 jb	 SHORT $LN844@Load_Scrip

; 205  :     const uintptr_t _Ptr_container   = _Ptr_user[-1];

  00f5c	8b 78 fc	 mov	 edi, DWORD PTR [eax-4]
  00f5f	83 c1 23	 add	 ecx, 35			; 00000023H
  00f62	2b c7		 sub	 eax, edi

; 206  : 
; 207  :     // If the following asserts, it likely means that we are performing
; 208  :     // an aligned delete on memory coming from an unaligned allocation.
; 209  :     _STL_ASSERT(_Ptr_user[-2] == _Big_allocation_sentinel, "invalid argument");
; 210  : 
; 211  :     // Extra paranoia on aligned allocation/deallocation; ensure _Ptr_container is
; 212  :     // in range [_Min_back_shift, _Non_user_size]
; 213  : #ifdef _DEBUG
; 214  :     constexpr uintptr_t _Min_back_shift = 2 * sizeof(void*);
; 215  : #else // ^^^ defined(_DEBUG) / !defined(_DEBUG) vvv
; 216  :     constexpr uintptr_t _Min_back_shift = sizeof(void*);
; 217  : #endif // ^^^ !defined(_DEBUG) ^^^
; 218  :     const uintptr_t _Back_shift = reinterpret_cast<uintptr_t>(_Ptr) - _Ptr_container;
; 219  :     _STL_VERIFY(_Back_shift >= _Min_back_shift && _Back_shift <= _Non_user_size, "invalid argument");

  00f64	83 c0 fc	 add	 eax, -4			; fffffffcH
  00f67	83 f8 1f	 cmp	 eax, 31			; 0000001fH
  00f6a	0f 87 b2 01 00
	00		 ja	 $LN1025@Load_Scrip
$LN844@Load_Scrip:

; 289  :         ::operator delete(_Ptr, _Bytes);

  00f70	51		 push	 ecx
  00f71	57		 push	 edi
  00f72	e8 00 00 00 00	 call	 ??3@YAXPAXI@Z		; operator delete
  00f77	83 c4 08	 add	 esp, 8
; File C:\Program Files\Microsoft Visual Studio\2022\Professional\VC\Tools\MSVC\14.44.35207\include\vector

; 2095 :             _Myfirst = nullptr;

  00f7a	c7 85 7c f7 ff
	ff 00 00 00 00	 mov	 DWORD PTR $T14[ebp+16], 0

; 2096 :             _Mylast  = nullptr;

  00f84	c7 85 80 f7 ff
	ff 00 00 00 00	 mov	 DWORD PTR $T14[ebp+20], 0

; 2097 :             _Myend   = nullptr;

  00f8e	c7 85 84 f7 ff
	ff 00 00 00 00	 mov	 DWORD PTR $T14[ebp+24], 0
$LN831@Load_Scrip:

; 830  :         _Tidy();

  00f98	8d 8d 70 f7 ff
	ff		 lea	 ecx, DWORD PTR $T14[ebp+4]
  00f9e	e8 00 00 00 00	 call	 ?_Tidy@?$vector@HV?$allocator@H@std@@@std@@AAEXXZ ; std::vector<int,std::allocator<int> >::_Tidy
; File C:\IAGOS\server\v18\Source\Source\_Common\Exchange.cpp

; 210  : 		s.GetToken(); //get MMI ID

  00fa3	6a 00		 push	 0
  00fa5	8d 8d 98 f7 ff
	ff		 lea	 ecx, DWORD PTR _s$[ebp]
  00fab	e8 00 00 00 00	 call	 ?GetToken@CScanner@@UAEHH@Z ; CScanner::GetToken
; File C:\Program Files\Microsoft Visual Studio\2022\Professional\VC\Tools\MSVC\14.44.35207\include\vector

; 2090 :         if (_Myfirst) { // destroy and deallocate old array

  00fb0	8b bd 5c f7 ff
	ff		 mov	 edi, DWORD PTR _create$13[ebp+12]
; File C:\IAGOS\server\v18\Source\Source\_Common\Exchange.cpp

; 211  : 	}

  00fb6	c6 45 fc 01	 mov	 BYTE PTR __$EHRec$[ebp+8], 1
; File C:\Program Files\Microsoft Visual Studio\2022\Professional\VC\Tools\MSVC\14.44.35207\include\vector

; 2090 :         if (_Myfirst) { // destroy and deallocate old array

  00fba	85 ff		 test	 edi, edi
  00fbc	0f 84 b9 00 00
	00		 je	 $LN863@Load_Scrip

; 2091 :             _STD _Destroy_range(_Myfirst, _Mylast, _Al);

  00fc2	8b 85 60 f7 ff
	ff		 mov	 eax, DWORD PTR _create$13[ebp+16]
  00fc8	3b f8		 cmp	 edi, eax
; File C:\Program Files\Microsoft Visual Studio\2022\Professional\VC\Tools\MSVC\14.44.35207\include\xmemory

; 1102 :         for (; _First != _Last; ++_First) {

  00fca	74 4a		 je	 SHORT $LN868@Load_Scrip
; File C:\Program Files\Microsoft Visual Studio\2022\Professional\VC\Tools\MSVC\14.44.35207\include\vector

; 2091 :             _STD _Destroy_range(_Myfirst, _Mylast, _Al);

  00fcc	83 c7 34	 add	 edi, 52			; 00000034H
  00fcf	8b f0		 mov	 esi, eax
$LL869@Load_Scrip:

; 830  :         _Tidy();

  00fd1	8d 4f 0c	 lea	 ecx, DWORD PTR [edi+12]
  00fd4	e8 00 00 00 00	 call	 ?_Tidy@?$vector@U__ITEM@CExchange@@V?$allocator@U__ITEM@CExchange@@@std@@@std@@AAEXXZ ; std::vector<CExchange::__ITEM,std::allocator<CExchange::__ITEM> >::_Tidy
  00fd9	8b cf		 mov	 ecx, edi
  00fdb	e8 00 00 00 00	 call	 ?_Tidy@?$vector@U__POINT@CExchange@@V?$allocator@U__POINT@CExchange@@@std@@@std@@AAEXXZ ; std::vector<CExchange::__POINT,std::allocator<CExchange::__POINT> >::_Tidy
  00fe0	8d 4f f4	 lea	 ecx, DWORD PTR [edi-12]
  00fe3	e8 00 00 00 00	 call	 ?_Tidy@?$vector@U__POINT@CExchange@@V?$allocator@U__POINT@CExchange@@@std@@@std@@AAEXXZ ; std::vector<CExchange::__POINT,std::allocator<CExchange::__POINT> >::_Tidy
  00fe8	8d 4f e8	 lea	 ecx, DWORD PTR [edi-24]
  00feb	e8 00 00 00 00	 call	 ?_Tidy@?$vector@U__ITEM@CExchange@@V?$allocator@U__ITEM@CExchange@@@std@@@std@@AAEXXZ ; std::vector<CExchange::__ITEM,std::allocator<CExchange::__ITEM> >::_Tidy
  00ff0	8d 4f dc	 lea	 ecx, DWORD PTR [edi-36]
  00ff3	e8 00 00 00 00	 call	 ?_Tidy@?$vector@U__ITEM@CExchange@@V?$allocator@U__ITEM@CExchange@@@std@@@std@@AAEXXZ ; std::vector<CExchange::__ITEM,std::allocator<CExchange::__ITEM> >::_Tidy
  00ff8	8d 4f d0	 lea	 ecx, DWORD PTR [edi-48]
  00ffb	e8 00 00 00 00	 call	 ?_Tidy@?$vector@HV?$allocator@H@std@@@std@@AAEXXZ ; std::vector<int,std::allocator<int> >::_Tidy
; File C:\Program Files\Microsoft Visual Studio\2022\Professional\VC\Tools\MSVC\14.44.35207\include\xmemory

; 1102 :         for (; _First != _Last; ++_First) {

  01000	83 c7 50	 add	 edi, 80			; 00000050H
  01003	8d 47 cc	 lea	 eax, DWORD PTR [edi-52]
  01006	3b c6		 cmp	 eax, esi
  01008	75 c7		 jne	 SHORT $LL869@Load_Scrip
  0100a	8b b5 8c f7 ff
	ff		 mov	 esi, DWORD PTR _strErrorMMIId$[ebp]
  01010	8b bd 5c f7 ff
	ff		 mov	 edi, DWORD PTR _create$13[ebp+12]
$LN868@Load_Scrip:
; File C:\Program Files\Microsoft Visual Studio\2022\Professional\VC\Tools\MSVC\14.44.35207\include\vector

; 2093 :             _Al.deallocate(_Myfirst, static_cast<size_type>(_Myend - _Myfirst));

  01016	8b 8d 64 f7 ff
	ff		 mov	 ecx, DWORD PTR _create$13[ebp+20]
  0101c	b8 67 66 66 66	 mov	 eax, 1717986919		; 66666667H
  01021	2b cf		 sub	 ecx, edi
  01023	f7 e9		 imul	 ecx
  01025	c1 fa 05	 sar	 edx, 5
  01028	8b c2		 mov	 eax, edx
  0102a	c1 e8 1f	 shr	 eax, 31			; 0000001fH
  0102d	03 c2		 add	 eax, edx
; File C:\Program Files\Microsoft Visual Studio\2022\Professional\VC\Tools\MSVC\14.44.35207\include\xmemory

; 985  :         _STD _Deallocate<_New_alignof<_Ty>>(_Ptr, sizeof(_Ty) * _Count);

  0102f	8d 0c 80	 lea	 ecx, DWORD PTR [eax+eax*4]
  01032	8b c7		 mov	 eax, edi
  01034	c1 e1 04	 shl	 ecx, 4

; 284  :         if (_Bytes >= _Big_allocation_threshold) {

  01037	81 f9 00 10 00
	00		 cmp	 ecx, 4096		; 00001000H
  0103d	72 14		 jb	 SHORT $LN911@Load_Scrip

; 205  :     const uintptr_t _Ptr_container   = _Ptr_user[-1];

  0103f	8b 78 fc	 mov	 edi, DWORD PTR [eax-4]
  01042	83 c1 23	 add	 ecx, 35			; 00000023H
  01045	2b c7		 sub	 eax, edi

; 206  : 
; 207  :     // If the following asserts, it likely means that we are performing
; 208  :     // an aligned delete on memory coming from an unaligned allocation.
; 209  :     _STL_ASSERT(_Ptr_user[-2] == _Big_allocation_sentinel, "invalid argument");
; 210  : 
; 211  :     // Extra paranoia on aligned allocation/deallocation; ensure _Ptr_container is
; 212  :     // in range [_Min_back_shift, _Non_user_size]
; 213  : #ifdef _DEBUG
; 214  :     constexpr uintptr_t _Min_back_shift = 2 * sizeof(void*);
; 215  : #else // ^^^ defined(_DEBUG) / !defined(_DEBUG) vvv
; 216  :     constexpr uintptr_t _Min_back_shift = sizeof(void*);
; 217  : #endif // ^^^ !defined(_DEBUG) ^^^
; 218  :     const uintptr_t _Back_shift = reinterpret_cast<uintptr_t>(_Ptr) - _Ptr_container;
; 219  :     _STL_VERIFY(_Back_shift >= _Min_back_shift && _Back_shift <= _Non_user_size, "invalid argument");

  01047	83 c0 fc	 add	 eax, -4			; fffffffcH
  0104a	83 f8 1f	 cmp	 eax, 31			; 0000001fH
  0104d	0f 87 cf 00 00
	00		 ja	 $LN1025@Load_Scrip
$LN911@Load_Scrip:

; 289  :         ::operator delete(_Ptr, _Bytes);

  01053	51		 push	 ecx
  01054	57		 push	 edi
  01055	e8 00 00 00 00	 call	 ??3@YAXPAXI@Z		; operator delete
  0105a	83 c4 08	 add	 esp, 8
; File C:\Program Files\Microsoft Visual Studio\2022\Professional\VC\Tools\MSVC\14.44.35207\include\vector

; 2095 :             _Myfirst = nullptr;

  0105d	c7 85 5c f7 ff
	ff 00 00 00 00	 mov	 DWORD PTR _create$13[ebp+12], 0

; 2096 :             _Mylast  = nullptr;

  01067	c7 85 60 f7 ff
	ff 00 00 00 00	 mov	 DWORD PTR _create$13[ebp+16], 0

; 2097 :             _Myend   = nullptr;

  01071	c7 85 64 f7 ff
	ff 00 00 00 00	 mov	 DWORD PTR _create$13[ebp+20], 0
$LN863@Load_Scrip:

; 2090 :         if (_Myfirst) { // destroy and deallocate old array

  0107b	8b 8d 50 f7 ff
	ff		 mov	 ecx, DWORD PTR _create$13[ebp]
  01081	85 c9		 test	 ecx, ecx
  01083	74 36		 je	 SHORT $LN921@Load_Scrip

; 2093 :             _Al.deallocate(_Myfirst, static_cast<size_type>(_Myend - _Myfirst));

  01085	8b 85 58 f7 ff
	ff		 mov	 eax, DWORD PTR _create$13[ebp+8]
  0108b	2b c1		 sub	 eax, ecx
  0108d	c1 f8 02	 sar	 eax, 2
; File C:\Program Files\Microsoft Visual Studio\2022\Professional\VC\Tools\MSVC\14.44.35207\include\xmemory

; 985  :         _STD _Deallocate<_New_alignof<_Ty>>(_Ptr, sizeof(_Ty) * _Count);

  01090	8d 14 85 00 00
	00 00		 lea	 edx, DWORD PTR [eax*4]
  01097	8b c1		 mov	 eax, ecx

; 284  :         if (_Bytes >= _Big_allocation_threshold) {

  01099	81 fa 00 10 00
	00		 cmp	 edx, 4096		; 00001000H
  0109f	72 10		 jb	 SHORT $LN934@Load_Scrip

; 205  :     const uintptr_t _Ptr_container   = _Ptr_user[-1];

  010a1	8b 48 fc	 mov	 ecx, DWORD PTR [eax-4]
  010a4	83 c2 23	 add	 edx, 35			; 00000023H
  010a7	2b c1		 sub	 eax, ecx

; 206  : 
; 207  :     // If the following asserts, it likely means that we are performing
; 208  :     // an aligned delete on memory coming from an unaligned allocation.
; 209  :     _STL_ASSERT(_Ptr_user[-2] == _Big_allocation_sentinel, "invalid argument");
; 210  : 
; 211  :     // Extra paranoia on aligned allocation/deallocation; ensure _Ptr_container is
; 212  :     // in range [_Min_back_shift, _Non_user_size]
; 213  : #ifdef _DEBUG
; 214  :     constexpr uintptr_t _Min_back_shift = 2 * sizeof(void*);
; 215  : #else // ^^^ defined(_DEBUG) / !defined(_DEBUG) vvv
; 216  :     constexpr uintptr_t _Min_back_shift = sizeof(void*);
; 217  : #endif // ^^^ !defined(_DEBUG) ^^^
; 218  :     const uintptr_t _Back_shift = reinterpret_cast<uintptr_t>(_Ptr) - _Ptr_container;
; 219  :     _STL_VERIFY(_Back_shift >= _Min_back_shift && _Back_shift <= _Non_user_size, "invalid argument");

  010a9	83 c0 fc	 add	 eax, -4			; fffffffcH
  010ac	83 f8 1f	 cmp	 eax, 31			; 0000001fH
  010af	77 71		 ja	 SHORT $LN1025@Load_Scrip
$LN934@Load_Scrip:

; 289  :         ::operator delete(_Ptr, _Bytes);

  010b1	52		 push	 edx
  010b2	51		 push	 ecx
  010b3	e8 00 00 00 00	 call	 ??3@YAXPAXI@Z		; operator delete
  010b8	83 c4 08	 add	 esp, 8
$LN921@Load_Scrip:
; File C:\IAGOS\server\v18\Source\Source\_Common\Exchange.cpp

; 43   : 	while( s.tok != FINISHED )

  010bb	83 7d dc 15	 cmp	 DWORD PTR _s$[ebp+2116], 21 ; 00000015H
  010bf	0f 85 dc ef ff
	ff		 jne	 $LL2@Load_Scrip
  010c5	83 c8 ff	 or	 eax, -1
$LN3@Load_Scrip:

; 212  : 	return TRUE;

  010c8	bf 01 00 00 00	 mov	 edi, 1
  010cd	c6 45 fc 00	 mov	 BYTE PTR __$EHRec$[ebp+8], 0
; File C:\Program Files\Microsoft Visual Studio\2022\Professional\VC\Tools\MSVC\14.44.35207\atlmfc\include\atlsimpstr.h

; 804  : 		return( reinterpret_cast< CStringData* >( m_pszData )-1 );

  010d1	83 c6 f0	 add	 esi, -16		; fffffff0H

; 92   : 		if( _InterlockedDecrement( &nRefs ) <= 0 )

  010d4	f0 0f c1 46 0c	 lock	  xadd	 DWORD PTR [esi+12], eax
  010d9	48		 dec	 eax
  010da	85 c0		 test	 eax, eax
  010dc	7f 08		 jg	 SHORT $LN995@Load_Scrip

; 93   : 		{
; 94   : 			pStringMgr->Free( this );

  010de	8b 0e		 mov	 ecx, DWORD PTR [esi]
  010e0	56		 push	 esi
  010e1	8b 11		 mov	 edx, DWORD PTR [ecx]
  010e3	ff 52 04	 call	 DWORD PTR [edx+4]
$LN995@Load_Scrip:
; File C:\IAGOS\server\v18\Source\Source\_Common\Exchange.cpp

; 212  : 	return TRUE;

  010e6	8d 8d 98 f7 ff
	ff		 lea	 ecx, DWORD PTR _s$[ebp]
  010ec	e8 00 00 00 00	 call	 ??1CScanner@@UAE@XZ	; CScanner::~CScanner
  010f1	8b c7		 mov	 eax, edi

; 213  : }

  010f3	8b 4d f4	 mov	 ecx, DWORD PTR __$EHRec$[ebp]
  010f6	64 89 0d 00 00
	00 00		 mov	 DWORD PTR fs:0, ecx
  010fd	59		 pop	 ecx
  010fe	5f		 pop	 edi
  010ff	5e		 pop	 esi
  01100	8b 4d f0	 mov	 ecx, DWORD PTR __$ArrayPad$[ebp]
  01103	33 cd		 xor	 ecx, ebp
  01105	e8 00 00 00 00	 call	 @__security_check_cookie@4
  0110a	8b e5		 mov	 esp, ebp
  0110c	5d		 pop	 ebp
  0110d	c3		 ret	 0
$LN1029@Load_Scrip:
; File C:\Program Files\Microsoft Visual Studio\2022\Professional\VC\Tools\MSVC\14.44.35207\include\xtree

; 1649 :             _Throw_tree_length_error();

  0110e	e8 00 00 00 00	 call	 ?_Throw_tree_length_error@std@@YAXXZ ; std::_Throw_tree_length_error
$LN1087@Load_Scrip:
; File C:\Program Files\Microsoft Visual Studio\2022\Professional\VC\Tools\MSVC\14.44.35207\atlmfc\include\atlsimpstr.h

; 209  : 		ATLENSURE( pStringMgr != NULL );

  01113	68 05 40 00 80	 push	 -2147467259		; 80004005H
  01118	e8 00 00 00 00	 call	 ?AtlThrowImpl@ATL@@YGXJ@Z ; ATL::AtlThrowImpl
$LN1026@Load_Scrip:

; 897  : 				ThrowMemoryException();

  0111d	e8 00 00 00 00	 call	 ?ThrowMemoryException@?$CSimpleStringT@D$0A@@ATL@@KAXXZ ; ATL::CSimpleStringT<char,0>::ThrowMemoryException
$LN1025@Load_Scrip:
; File C:\IAGOS\server\v18\Source\Source\_Common\Exchange.cpp

; 213  : }

  01122	6a 00		 push	 0
  01124	6a 00		 push	 0
  01126	6a 00		 push	 0
  01128	6a 00		 push	 0
  0112a	6a 00		 push	 0
  0112c	e8 00 00 00 00	 call	 __invoke_watson
$LN1027@Load_Scrip:
; File C:\Program Files\Microsoft Visual Studio\2022\Professional\VC\Tools\MSVC\14.44.35207\include\vector

; 2052 :             _Xlength();

  01131	e8 00 00 00 00	 call	 ?_Xlength@?$vector@U__SET@CExchange@@V?$allocator@U__SET@CExchange@@@std@@@std@@CAXXZ ; std::vector<CExchange::__SET,std::allocator<CExchange::__SET> >::_Xlength
$LN1081@Load_Scrip:
  01136	cc		 int	 3
_TEXT	ENDS
;	COMDAT text$x
text$x	SEGMENT
__unwindfunclet$?Load_Script@CExchange@@QAEHXZ$0:
  00000	8d 8d 98 f7 ff
	ff		 lea	 ecx, DWORD PTR _s$[ebp]
  00006	e9 00 00 00 00	 jmp	 ??1CScanner@@UAE@XZ	; CScanner::~CScanner
__unwindfunclet$?Load_Script@CExchange@@QAEHXZ$1:
  0000b	8d 8d 8c f7 ff
	ff		 lea	 ecx, DWORD PTR _strErrorMMIId$[ebp]
  00011	e9 00 00 00 00	 jmp	 ??1?$CStringT@DV?$StrTraitMFC@DV?$ChTraitsCRT@D@ATL@@@@@ATL@@QAE@XZ ; ATL::CStringT<char,StrTraitMFC<char,ATL::ChTraitsCRT<char> > >::~CStringT<char,StrTraitMFC<char,ATL::ChTraitsCRT<char> > >
__unwindfunclet$?Load_Script@CExchange@@QAEHXZ$2:
  00016	8d 8d 50 f7 ff
	ff		 lea	 ecx, DWORD PTR _create$13[ebp]
  0001c	e9 00 00 00 00	 jmp	 ??1__SETLIST@CExchange@@QAE@XZ
__unwindfunclet$?Load_Script@CExchange@@QAEHXZ$3:
  00021	8d 8d fc f6 ff
	ff		 lea	 ecx, DWORD PTR _Set$12[ebp]
  00027	e9 00 00 00 00	 jmp	 ??1__SET@CExchange@@QAE@XZ
__unwindfunclet$?Load_Script@CExchange@@QAEHXZ$8:
  0002c	8b 8d 68 f7 ff
	ff		 mov	 ecx, DWORD PTR _this$[ebp]
  00032	e9 00 00 00 00	 jmp	 ??1?$vector@HV?$allocator@H@std@@@std@@QAE@XZ ; std::vector<int,std::allocator<int> >::~vector<int,std::allocator<int> >
__unwindfunclet$?Load_Script@CExchange@@QAEHXZ$10:
  00037	8d 8d a4 f6 ff
	ff		 lea	 ecx, DWORD PTR __Guard$4[ebp]
  0003d	e9 00 00 00 00	 jmp	 ??1?$_Tidy_guard@V?$vector@U__SET@CExchange@@V?$allocator@U__SET@CExchange@@@std@@@std@@@std@@QAE@XZ ; std::_Tidy_guard<std::vector<CExchange::__SET,std::allocator<CExchange::__SET> > >::~_Tidy_guard<std::vector<CExchange::__SET,std::allocator<CExchange::__SET> > >
__unwindfunclet$?Load_Script@CExchange@@QAEHXZ$11:
  00042	8d 8d b0 f6 ff
	ff		 lea	 ecx, DWORD PTR __Backout$6[ebp]
  00048	e9 00 00 00 00	 jmp	 ??1?$_Uninitialized_backout_al@V?$allocator@U__SET@CExchange@@@std@@@std@@QAE@XZ ; std::_Uninitialized_backout_al<std::allocator<CExchange::__SET> >::~_Uninitialized_backout_al<std::allocator<CExchange::__SET> >
__unwindfunclet$?Load_Script@CExchange@@QAEHXZ$4:
  0004d	8d 8d 6c f7 ff
	ff		 lea	 ecx, DWORD PTR $T14[ebp]
  00053	e9 00 00 00 00	 jmp	 ??1?$pair@$$CBHU__SETLIST@CExchange@@@std@@QAE@XZ
__unwindfunclet$?Load_Script@CExchange@@QAEHXZ$15:
  00058	8d 8d a8 f6 ff
	ff		 lea	 ecx, DWORD PTR $T5[ebp]
  0005e	e9 00 00 00 00	 jmp	 ??1?$_Alloc_construct_ptr@V?$allocator@U?$_Tree_node@U?$pair@$$CBHU__SETLIST@CExchange@@@std@@PAX@std@@@std@@@std@@QAE@XZ ; std::_Alloc_construct_ptr<std::allocator<std::_Tree_node<std::pair<int const ,CExchange::__SETLIST>,void *> > >::~_Alloc_construct_ptr<std::allocator<std::_Tree_node<std::pair<int const ,CExchange::__SETLIST>,void *> > >
  00063	cc		 int	 3
  00064	cc		 int	 3
  00065	cc		 int	 3
  00066	cc		 int	 3
  00067	cc		 int	 3
__ehhandler$?Load_Script@CExchange@@QAEHXZ:
  00068	90		 npad	 1
  00069	90		 npad	 1
  0006a	8b 54 24 08	 mov	 edx, DWORD PTR [esp+8]
  0006e	8d 42 0c	 lea	 eax, DWORD PTR [edx+12]
  00071	8b 8a 8c f6 ff
	ff		 mov	 ecx, DWORD PTR [edx-2420]
  00077	33 c8		 xor	 ecx, eax
  00079	e8 00 00 00 00	 call	 @__security_check_cookie@4
  0007e	8b 4a fc	 mov	 ecx, DWORD PTR [edx-4]
  00081	33 c8		 xor	 ecx, eax
  00083	e8 00 00 00 00	 call	 @__security_check_cookie@4
  00088	b8 00 00 00 00	 mov	 eax, OFFSET __ehfuncinfo$?Load_Script@CExchange@@QAEHXZ
  0008d	e9 00 00 00 00	 jmp	 ___CxxFrameHandler3
text$x	ENDS
?Load_Script@CExchange@@QAEHXZ ENDP			; CExchange::Load_Script
; Function compile flags: /Ogtp
; File C:\IAGOS\server\v18\Source\Source\_Common\Exchange.cpp
; File C:\Program Files\Microsoft Visual Studio\2022\Professional\VC\Tools\MSVC\14.44.35207\include\xtree
; File C:\Program Files\Microsoft Visual Studio\2022\Professional\VC\Tools\MSVC\14.44.35207\include\xmemory
; File C:\IAGOS\server\v18\Source\Source\_Common\Exchange.cpp
;	COMDAT ??1CExchange@@UAE@XZ
_TEXT	SEGMENT
??1CExchange@@UAE@XZ PROC				; CExchange::~CExchange, COMDAT
; _this$ = ecx

; 30   : {

  00000	56		 push	 esi

; 32   : }

  00001	8d 71 04	 lea	 esi, DWORD PTR [ecx+4]
  00004	c7 01 00 00 00
	00		 mov	 DWORD PTR [ecx], OFFSET ??_7CExchange@@6B@
; File C:\Program Files\Microsoft Visual Studio\2022\Professional\VC\Tools\MSVC\14.44.35207\include\xtree

; 777  :         _Erase_tree(_Al, _Myhead->_Parent);

  0000a	8b 06		 mov	 eax, DWORD PTR [esi]
  0000c	8b ce		 mov	 ecx, esi
  0000e	ff 70 04	 push	 DWORD PTR [eax+4]
  00011	56		 push	 esi
  00012	e8 00 00 00 00	 call	 ??$_Erase_tree@V?$allocator@U?$_Tree_node@U?$pair@$$CBHU__SETLIST@CExchange@@@std@@PAX@std@@@std@@@?$_Tree_val@U?$_Tree_simple_types@U?$pair@$$CBHU__SETLIST@CExchange@@@std@@@std@@@std@@QAEXAAV?$allocator@U?$_Tree_node@U?$pair@$$CBHU__SETLIST@CExchange@@@std@@PAX@std@@@1@PAU?$_Tree_node@U?$pair@$$CBHU__SETLIST@CExchange@@@std@@PAX@1@@Z ; std::_Tree_val<std::_Tree_simple_types<std::pair<int const ,CExchange::__SETLIST> > >::_Erase_tree<std::allocator<std::_Tree_node<std::pair<int const ,CExchange::__SETLIST>,void *> > >
; File C:\Program Files\Microsoft Visual Studio\2022\Professional\VC\Tools\MSVC\14.44.35207\include\xmemory

; 289  :         ::operator delete(_Ptr, _Bytes);

  00017	6a 2c		 push	 44			; 0000002cH
  00019	ff 36		 push	 DWORD PTR [esi]
  0001b	e8 00 00 00 00	 call	 ??3@YAXPAXI@Z		; operator delete
  00020	83 c4 08	 add	 esp, 8
  00023	5e		 pop	 esi
; File C:\IAGOS\server\v18\Source\Source\_Common\Exchange.cpp

; 32   : }

  00024	c3		 ret	 0
??1CExchange@@UAE@XZ ENDP				; CExchange::~CExchange
_TEXT	ENDS
; Function compile flags: /Ogtp
; File C:\IAGOS\server\v18\Source\Source\_Common\Exchange.cpp
; File C:\Program Files\Microsoft Visual Studio\2022\Professional\VC\Tools\MSVC\14.44.35207\include\xmemory
; File C:\IAGOS\server\v18\Source\Source\_Common\Exchange.cpp
; File C:\Program Files\Microsoft Visual Studio\2022\Professional\VC\Tools\MSVC\14.44.35207\include\xtree
; File C:\Program Files\Microsoft Visual Studio\2022\Professional\VC\Tools\MSVC\14.44.35207\include\xmemory
; File C:\Program Files\Microsoft Visual Studio\2022\Professional\VC\Tools\MSVC\14.44.35207\include\xtree
; File C:\IAGOS\server\v18\Source\Source\_Common\Exchange.cpp
;	COMDAT ??0CExchange@@QAE@XZ
_TEXT	SEGMENT
_this$ = -4						; size = 4
_this$ = -4						; size = 4
??0CExchange@@QAE@XZ PROC				; CExchange::CExchange, COMDAT
; _this$ = ecx

; 25   : {

  00000	55		 push	 ebp
  00001	8b ec		 mov	 ebp, esp
  00003	51		 push	 ecx
  00004	56		 push	 esi
  00005	57		 push	 edi
  00006	8b f9		 mov	 edi, ecx
  00008	8d 77 04	 lea	 esi, DWORD PTR [edi+4]
  0000b	89 7d fc	 mov	 DWORD PTR _this$[ebp], edi
; File C:\Program Files\Microsoft Visual Studio\2022\Professional\VC\Tools\MSVC\14.44.35207\include\xmemory

; 136  :         return ::operator new(_Bytes);

  0000e	6a 2c		 push	 44			; 0000002cH
; File C:\IAGOS\server\v18\Source\Source\_Common\Exchange.cpp

; 25   : {

  00010	89 75 fc	 mov	 DWORD PTR _this$[ebp], esi
  00013	c7 07 00 00 00
	00		 mov	 DWORD PTR [edi], OFFSET ??_7CExchange@@6B@
; File C:\Program Files\Microsoft Visual Studio\2022\Professional\VC\Tools\MSVC\14.44.35207\include\xtree

; 450  :     _Tree_val() noexcept : _Myhead(), _Mysize(0) {}

  00019	c7 06 00 00 00
	00		 mov	 DWORD PTR [esi], 0
  0001f	c7 46 04 00 00
	00 00		 mov	 DWORD PTR [esi+4], 0
; File C:\Program Files\Microsoft Visual Studio\2022\Professional\VC\Tools\MSVC\14.44.35207\include\xmemory

; 136  :         return ::operator new(_Bytes);

  00026	e8 00 00 00 00	 call	 ??2@YAPAXI@Z		; operator new
  0002b	83 c4 04	 add	 esp, 4
; File C:\Program Files\Microsoft Visual Studio\2022\Professional\VC\Tools\MSVC\14.44.35207\include\xtree

; 346  :         _Construct_in_place(_Pnode->_Left, _Pnode);

  0002e	89 00		 mov	 DWORD PTR [eax], eax

; 347  :         _Construct_in_place(_Pnode->_Parent, _Pnode);

  00030	89 40 04	 mov	 DWORD PTR [eax+4], eax

; 348  :         _Construct_in_place(_Pnode->_Right, _Pnode);

  00033	89 40 08	 mov	 DWORD PTR [eax+8], eax

; 349  :         _Pnode->_Color = _Black;

  00036	66 c7 40 0c 01
	01		 mov	 WORD PTR [eax+12], 257	; 00000101H

; 1957 :         _Scary->_Myhead = _Node::_Buyheadnode(_Getal());

  0003c	89 06		 mov	 DWORD PTR [esi], eax
; File C:\IAGOS\server\v18\Source\Source\_Common\Exchange.cpp

; 27   : }

  0003e	8b c7		 mov	 eax, edi
  00040	5f		 pop	 edi
  00041	5e		 pop	 esi
  00042	8b e5		 mov	 esp, ebp
  00044	5d		 pop	 ebp
  00045	c3		 ret	 0
??0CExchange@@QAE@XZ ENDP				; CExchange::CExchange
_TEXT	ENDS
; Function compile flags: /Ogtp
; File C:\Program Files\Microsoft Visual Studio\2022\Professional\VC\Tools\MSVC\14.44.35207\include\vector
;	COMDAT ??1__SETLIST@CExchange@@QAE@XZ
_TEXT	SEGMENT
??1__SETLIST@CExchange@@QAE@XZ PROC			; CExchange::__SETLIST::~__SETLIST, COMDAT
; _this$ = ecx

; 830  :         _Tidy();

  00000	56		 push	 esi
  00001	8b f1		 mov	 esi, ecx
  00003	8d 4e 0c	 lea	 ecx, DWORD PTR [esi+12]
  00006	e8 00 00 00 00	 call	 ?_Tidy@?$vector@U__SET@CExchange@@V?$allocator@U__SET@CExchange@@@std@@@std@@AAEXXZ ; std::vector<CExchange::__SET,std::allocator<CExchange::__SET> >::_Tidy
  0000b	8b ce		 mov	 ecx, esi
  0000d	5e		 pop	 esi
  0000e	e9 00 00 00 00	 jmp	 ?_Tidy@?$vector@HV?$allocator@H@std@@@std@@AAEXXZ ; std::vector<int,std::allocator<int> >::_Tidy
??1__SETLIST@CExchange@@QAE@XZ ENDP			; CExchange::__SETLIST::~__SETLIST
_TEXT	ENDS
; Function compile flags: /Ogtp
; File C:\Program Files\Microsoft Visual Studio\2022\Professional\VC\Tools\MSVC\14.44.35207\include\vector
;	COMDAT ?_Xlength@?$vector@U__SET@CExchange@@V?$allocator@U__SET@CExchange@@@std@@@std@@CAXXZ
_TEXT	SEGMENT
?_Xlength@?$vector@U__SET@CExchange@@V?$allocator@U__SET@CExchange@@@std@@@std@@CAXXZ PROC ; std::vector<CExchange::__SET,std::allocator<CExchange::__SET> >::_Xlength, COMDAT

; 2184 :         _Xlength_error("vector too long");

  00000	68 00 00 00 00	 push	 OFFSET ??_C@_0BA@FOIKENOD@vector?5too?5long@
  00005	e8 00 00 00 00	 call	 ?_Xlength_error@std@@YAXPBD@Z ; std::_Xlength_error
$LN3@Xlength:
  0000a	cc		 int	 3
?_Xlength@?$vector@U__SET@CExchange@@V?$allocator@U__SET@CExchange@@@std@@@std@@CAXXZ ENDP ; std::vector<CExchange::__SET,std::allocator<CExchange::__SET> >::_Xlength
_TEXT	ENDS
; Function compile flags: /Ogtp
; File C:\Program Files\Microsoft Visual Studio\2022\Professional\VC\Tools\MSVC\14.44.35207\include\vector
; File C:\Program Files\Microsoft Visual Studio\2022\Professional\VC\Tools\MSVC\14.44.35207\include\xmemory
; File C:\Program Files\Microsoft Visual Studio\2022\Professional\VC\Tools\MSVC\14.44.35207\include\vector
; File C:\Program Files\Microsoft Visual Studio\2022\Professional\VC\Tools\MSVC\14.44.35207\include\xmemory
; File C:\Program Files\Microsoft Visual Studio\2022\Professional\VC\Tools\MSVC\14.44.35207\include\vector
;	COMDAT ?_Tidy@?$vector@U__SET@CExchange@@V?$allocator@U__SET@CExchange@@@std@@@std@@AAEXXZ
_TEXT	SEGMENT
?_Tidy@?$vector@U__SET@CExchange@@V?$allocator@U__SET@CExchange@@@std@@@std@@AAEXXZ PROC ; std::vector<CExchange::__SET,std::allocator<CExchange::__SET> >::_Tidy, COMDAT
; _this$ = ecx

; 2081 :     _CONSTEXPR20 void _Tidy() noexcept { // free all storage

  00000	56		 push	 esi
  00001	8b f1		 mov	 esi, ecx

; 2082 :         auto& _Al         = _Getal();
; 2083 :         auto& _My_data    = _Mypair._Myval2;
; 2084 :         pointer& _Myfirst = _My_data._Myfirst;
; 2085 :         pointer& _Mylast  = _My_data._Mylast;
; 2086 :         pointer& _Myend   = _My_data._Myend;
; 2087 : 
; 2088 :         _My_data._Orphan_all();
; 2089 : 
; 2090 :         if (_Myfirst) { // destroy and deallocate old array

  00003	8b 06		 mov	 eax, DWORD PTR [esi]
  00005	85 c0		 test	 eax, eax
  00007	74 65		 je	 SHORT $LN2@Tidy

; 2091 :             _STD _Destroy_range(_Myfirst, _Mylast, _Al);

  00009	57		 push	 edi
  0000a	56		 push	 esi
  0000b	ff 76 04	 push	 DWORD PTR [esi+4]
  0000e	50		 push	 eax
  0000f	e8 00 00 00 00	 call	 ??$_Destroy_range@V?$allocator@U__SET@CExchange@@@std@@@std@@YAXPAU__SET@CExchange@@QAU12@AAV?$allocator@U__SET@CExchange@@@0@@Z ; std::_Destroy_range<std::allocator<CExchange::__SET> >

; 2092 :             _ASAN_VECTOR_REMOVE;
; 2093 :             _Al.deallocate(_Myfirst, static_cast<size_type>(_Myend - _Myfirst));

  00014	8b 4e 08	 mov	 ecx, DWORD PTR [esi+8]
  00017	b8 67 66 66 66	 mov	 eax, 1717986919		; 66666667H
  0001c	8b 3e		 mov	 edi, DWORD PTR [esi]
  0001e	83 c4 0c	 add	 esp, 12			; 0000000cH
  00021	2b cf		 sub	 ecx, edi
  00023	f7 e9		 imul	 ecx
  00025	c1 fa 05	 sar	 edx, 5
  00028	8b c2		 mov	 eax, edx
  0002a	c1 e8 1f	 shr	 eax, 31			; 0000001fH
  0002d	03 c2		 add	 eax, edx
; File C:\Program Files\Microsoft Visual Studio\2022\Professional\VC\Tools\MSVC\14.44.35207\include\xmemory

; 985  :         _STD _Deallocate<_New_alignof<_Ty>>(_Ptr, sizeof(_Ty) * _Count);

  0002f	8d 0c 80	 lea	 ecx, DWORD PTR [eax+eax*4]
  00032	c1 e1 04	 shl	 ecx, 4

; 284  :         if (_Bytes >= _Big_allocation_threshold) {

  00035	81 f9 00 10 00
	00		 cmp	 ecx, 4096		; 00001000H
  0003b	72 12		 jb	 SHORT $LN15@Tidy

; 205  :     const uintptr_t _Ptr_container   = _Ptr_user[-1];

  0003d	8b 57 fc	 mov	 edx, DWORD PTR [edi-4]
  00040	83 c1 23	 add	 ecx, 35			; 00000023H

; 206  : 
; 207  :     // If the following asserts, it likely means that we are performing
; 208  :     // an aligned delete on memory coming from an unaligned allocation.
; 209  :     _STL_ASSERT(_Ptr_user[-2] == _Big_allocation_sentinel, "invalid argument");
; 210  : 
; 211  :     // Extra paranoia on aligned allocation/deallocation; ensure _Ptr_container is
; 212  :     // in range [_Min_back_shift, _Non_user_size]
; 213  : #ifdef _DEBUG
; 214  :     constexpr uintptr_t _Min_back_shift = 2 * sizeof(void*);
; 215  : #else // ^^^ defined(_DEBUG) / !defined(_DEBUG) vvv
; 216  :     constexpr uintptr_t _Min_back_shift = sizeof(void*);
; 217  : #endif // ^^^ !defined(_DEBUG) ^^^
; 218  :     const uintptr_t _Back_shift = reinterpret_cast<uintptr_t>(_Ptr) - _Ptr_container;

  00043	2b fa		 sub	 edi, edx

; 219  :     _STL_VERIFY(_Back_shift >= _Min_back_shift && _Back_shift <= _Non_user_size, "invalid argument");

  00045	8d 47 fc	 lea	 eax, DWORD PTR [edi-4]
  00048	83 f8 1f	 cmp	 eax, 31			; 0000001fH
  0004b	77 23		 ja	 SHORT $LN14@Tidy

; 220  :     _Ptr = reinterpret_cast<void*>(_Ptr_container);

  0004d	8b fa		 mov	 edi, edx
$LN15@Tidy:

; 289  :         ::operator delete(_Ptr, _Bytes);

  0004f	51		 push	 ecx
  00050	57		 push	 edi
  00051	e8 00 00 00 00	 call	 ??3@YAXPAXI@Z		; operator delete
  00056	83 c4 08	 add	 esp, 8
; File C:\Program Files\Microsoft Visual Studio\2022\Professional\VC\Tools\MSVC\14.44.35207\include\vector

; 2095 :             _Myfirst = nullptr;

  00059	c7 06 00 00 00
	00		 mov	 DWORD PTR [esi], 0

; 2096 :             _Mylast  = nullptr;

  0005f	c7 46 04 00 00
	00 00		 mov	 DWORD PTR [esi+4], 0

; 2097 :             _Myend   = nullptr;

  00066	c7 46 08 00 00
	00 00		 mov	 DWORD PTR [esi+8], 0
  0006d	5f		 pop	 edi
$LN2@Tidy:

; 2099 :     }

  0006e	5e		 pop	 esi
  0006f	c3		 ret	 0
$LN14@Tidy:
; File C:\Program Files\Microsoft Visual Studio\2022\Professional\VC\Tools\MSVC\14.44.35207\include\xmemory

; 219  :     _STL_VERIFY(_Back_shift >= _Min_back_shift && _Back_shift <= _Non_user_size, "invalid argument");

  00070	6a 00		 push	 0
  00072	6a 00		 push	 0
  00074	6a 00		 push	 0
  00076	6a 00		 push	 0
  00078	6a 00		 push	 0
  0007a	e8 00 00 00 00	 call	 __invoke_watson
$LN22@Tidy:
  0007f	cc		 int	 3
?_Tidy@?$vector@U__SET@CExchange@@V?$allocator@U__SET@CExchange@@@std@@@std@@AAEXXZ ENDP ; std::vector<CExchange::__SET,std::allocator<CExchange::__SET> >::_Tidy
_TEXT	ENDS
; Function compile flags: /Ogtp
; File C:\Program Files\Microsoft Visual Studio\2022\Professional\VC\Tools\MSVC\14.44.35207\include\vector
; File C:\Program Files\Microsoft Visual Studio\2022\Professional\VC\Tools\MSVC\14.44.35207\include\utility
; File C:\Program Files\Microsoft Visual Studio\2022\Professional\VC\Tools\MSVC\14.44.35207\include\vector
; File C:\Program Files\Microsoft Visual Studio\2022\Professional\VC\Tools\MSVC\14.44.35207\include\utility
; File C:\Program Files\Microsoft Visual Studio\2022\Professional\VC\Tools\MSVC\14.44.35207\include\vector
; File C:\Program Files\Microsoft Visual Studio\2022\Professional\VC\Tools\MSVC\14.44.35207\include\utility
; File C:\Program Files\Microsoft Visual Studio\2022\Professional\VC\Tools\MSVC\14.44.35207\include\vector
; File C:\Program Files\Microsoft Visual Studio\2022\Professional\VC\Tools\MSVC\14.44.35207\include\utility
; File C:\Program Files\Microsoft Visual Studio\2022\Professional\VC\Tools\MSVC\14.44.35207\include\vector
; File C:\Program Files\Microsoft Visual Studio\2022\Professional\VC\Tools\MSVC\14.44.35207\include\utility
; File C:\Program Files\Microsoft Visual Studio\2022\Professional\VC\Tools\MSVC\14.44.35207\include\vector
; File C:\Program Files\Microsoft Visual Studio\2022\Professional\VC\Tools\MSVC\14.44.35207\include\utility
; File C:\Program Files\Microsoft Visual Studio\2022\Professional\VC\Tools\MSVC\14.44.35207\include\vector
;	COMDAT ??0__SET@CExchange@@QAE@$$QAU01@@Z
_TEXT	SEGMENT
___that$ = 8						; size = 4
??0__SET@CExchange@@QAE@$$QAU01@@Z PROC			; CExchange::__SET::__SET, COMDAT
; _this$ = ecx
  00000	55		 push	 ebp
  00001	8b ec		 mov	 ebp, esp

; 760  :         : _Mypair(_One_then_variadic_args_t{}, _STD move(_Right._Getal()),

  00003	56		 push	 esi
  00004	8b 75 08	 mov	 esi, DWORD PTR ___that$[ebp]
  00007	57		 push	 edi
  00008	8b f9		 mov	 edi, ecx
  0000a	8b 06		 mov	 eax, DWORD PTR [esi]
  0000c	89 07		 mov	 DWORD PTR [edi], eax
; File C:\Program Files\Microsoft Visual Studio\2022\Professional\VC\Tools\MSVC\14.44.35207\include\utility

; 773  :     _Ty _Old_val = static_cast<_Ty&&>(_Val);

  0000e	8b 56 0c	 mov	 edx, DWORD PTR [esi+12]
  00011	8b 4e 08	 mov	 ecx, DWORD PTR [esi+8]
  00014	8b 46 04	 mov	 eax, DWORD PTR [esi+4]

; 774  :     _Val         = static_cast<_Other&&>(_New_val);

  00017	c7 46 0c 00 00
	00 00		 mov	 DWORD PTR [esi+12], 0
  0001e	c7 46 08 00 00
	00 00		 mov	 DWORD PTR [esi+8], 0
  00025	c7 46 04 00 00
	00 00		 mov	 DWORD PTR [esi+4], 0
; File C:\Program Files\Microsoft Visual Studio\2022\Professional\VC\Tools\MSVC\14.44.35207\include\vector

; 403  :         : _Myfirst(_First), _Mylast(_Last), _Myend(_End) {}

  0002c	89 47 04	 mov	 DWORD PTR [edi+4], eax
  0002f	89 4f 08	 mov	 DWORD PTR [edi+8], ecx
  00032	89 57 0c	 mov	 DWORD PTR [edi+12], edx
; File C:\Program Files\Microsoft Visual Studio\2022\Professional\VC\Tools\MSVC\14.44.35207\include\utility

; 773  :     _Ty _Old_val = static_cast<_Ty&&>(_Val);

  00035	8b 56 18	 mov	 edx, DWORD PTR [esi+24]
  00038	8b 4e 14	 mov	 ecx, DWORD PTR [esi+20]
  0003b	8b 46 10	 mov	 eax, DWORD PTR [esi+16]

; 774  :     _Val         = static_cast<_Other&&>(_New_val);

  0003e	c7 46 18 00 00
	00 00		 mov	 DWORD PTR [esi+24], 0
  00045	c7 46 14 00 00
	00 00		 mov	 DWORD PTR [esi+20], 0
  0004c	c7 46 10 00 00
	00 00		 mov	 DWORD PTR [esi+16], 0
; File C:\Program Files\Microsoft Visual Studio\2022\Professional\VC\Tools\MSVC\14.44.35207\include\vector

; 403  :         : _Myfirst(_First), _Mylast(_Last), _Myend(_End) {}

  00053	89 47 10	 mov	 DWORD PTR [edi+16], eax
  00056	89 4f 14	 mov	 DWORD PTR [edi+20], ecx
  00059	89 57 18	 mov	 DWORD PTR [edi+24], edx
; File C:\Program Files\Microsoft Visual Studio\2022\Professional\VC\Tools\MSVC\14.44.35207\include\utility

; 773  :     _Ty _Old_val = static_cast<_Ty&&>(_Val);

  0005c	8b 56 24	 mov	 edx, DWORD PTR [esi+36]
  0005f	8b 4e 20	 mov	 ecx, DWORD PTR [esi+32]
  00062	8b 46 1c	 mov	 eax, DWORD PTR [esi+28]

; 774  :     _Val         = static_cast<_Other&&>(_New_val);

  00065	c7 46 24 00 00
	00 00		 mov	 DWORD PTR [esi+36], 0
  0006c	c7 46 20 00 00
	00 00		 mov	 DWORD PTR [esi+32], 0
  00073	c7 46 1c 00 00
	00 00		 mov	 DWORD PTR [esi+28], 0
; File C:\Program Files\Microsoft Visual Studio\2022\Professional\VC\Tools\MSVC\14.44.35207\include\vector

; 403  :         : _Myfirst(_First), _Mylast(_Last), _Myend(_End) {}

  0007a	89 47 1c	 mov	 DWORD PTR [edi+28], eax
  0007d	89 4f 20	 mov	 DWORD PTR [edi+32], ecx
  00080	89 57 24	 mov	 DWORD PTR [edi+36], edx
; File C:\Program Files\Microsoft Visual Studio\2022\Professional\VC\Tools\MSVC\14.44.35207\include\utility

; 773  :     _Ty _Old_val = static_cast<_Ty&&>(_Val);

  00083	8b 56 30	 mov	 edx, DWORD PTR [esi+48]
  00086	8b 4e 2c	 mov	 ecx, DWORD PTR [esi+44]
  00089	8b 46 28	 mov	 eax, DWORD PTR [esi+40]

; 774  :     _Val         = static_cast<_Other&&>(_New_val);

  0008c	c7 46 30 00 00
	00 00		 mov	 DWORD PTR [esi+48], 0
  00093	c7 46 2c 00 00
	00 00		 mov	 DWORD PTR [esi+44], 0
  0009a	c7 46 28 00 00
	00 00		 mov	 DWORD PTR [esi+40], 0
; File C:\Program Files\Microsoft Visual Studio\2022\Professional\VC\Tools\MSVC\14.44.35207\include\vector

; 403  :         : _Myfirst(_First), _Mylast(_Last), _Myend(_End) {}

  000a1	89 47 28	 mov	 DWORD PTR [edi+40], eax
  000a4	89 4f 2c	 mov	 DWORD PTR [edi+44], ecx
  000a7	89 57 30	 mov	 DWORD PTR [edi+48], edx
; File C:\Program Files\Microsoft Visual Studio\2022\Professional\VC\Tools\MSVC\14.44.35207\include\utility

; 773  :     _Ty _Old_val = static_cast<_Ty&&>(_Val);

  000aa	8b 56 3c	 mov	 edx, DWORD PTR [esi+60]
  000ad	8b 4e 38	 mov	 ecx, DWORD PTR [esi+56]
  000b0	8b 46 34	 mov	 eax, DWORD PTR [esi+52]

; 774  :     _Val         = static_cast<_Other&&>(_New_val);

  000b3	c7 46 3c 00 00
	00 00		 mov	 DWORD PTR [esi+60], 0
  000ba	c7 46 38 00 00
	00 00		 mov	 DWORD PTR [esi+56], 0
  000c1	c7 46 34 00 00
	00 00		 mov	 DWORD PTR [esi+52], 0
; File C:\Program Files\Microsoft Visual Studio\2022\Professional\VC\Tools\MSVC\14.44.35207\include\vector

; 403  :         : _Myfirst(_First), _Mylast(_Last), _Myend(_End) {}

  000c8	89 47 34	 mov	 DWORD PTR [edi+52], eax
  000cb	89 4f 38	 mov	 DWORD PTR [edi+56], ecx
  000ce	89 57 3c	 mov	 DWORD PTR [edi+60], edx
; File C:\Program Files\Microsoft Visual Studio\2022\Professional\VC\Tools\MSVC\14.44.35207\include\utility

; 773  :     _Ty _Old_val = static_cast<_Ty&&>(_Val);

  000d1	8b 46 40	 mov	 eax, DWORD PTR [esi+64]
  000d4	8b 56 48	 mov	 edx, DWORD PTR [esi+72]
  000d7	8b 4e 44	 mov	 ecx, DWORD PTR [esi+68]

; 774  :     _Val         = static_cast<_Other&&>(_New_val);

  000da	c7 46 48 00 00
	00 00		 mov	 DWORD PTR [esi+72], 0
  000e1	c7 46 44 00 00
	00 00		 mov	 DWORD PTR [esi+68], 0
  000e8	c7 46 40 00 00
	00 00		 mov	 DWORD PTR [esi+64], 0
; File C:\Program Files\Microsoft Visual Studio\2022\Professional\VC\Tools\MSVC\14.44.35207\include\vector

; 403  :         : _Myfirst(_First), _Mylast(_Last), _Myend(_End) {}

  000ef	89 47 40	 mov	 DWORD PTR [edi+64], eax
  000f2	89 4f 44	 mov	 DWORD PTR [edi+68], ecx
  000f5	89 57 48	 mov	 DWORD PTR [edi+72], edx
  000f8	8b 46 4c	 mov	 eax, DWORD PTR [esi+76]
  000fb	89 47 4c	 mov	 DWORD PTR [edi+76], eax
  000fe	8b c7		 mov	 eax, edi
  00100	5f		 pop	 edi
  00101	5e		 pop	 esi
  00102	5d		 pop	 ebp
  00103	c2 04 00	 ret	 4
??0__SET@CExchange@@QAE@$$QAU01@@Z ENDP			; CExchange::__SET::__SET
_TEXT	ENDS
; Function compile flags: /Ogtp
;	COMDAT ??0__SET@CExchange@@QAE@ABU01@@Z
_TEXT	SEGMENT
_this$ = -16						; size = 4
__$EHRec$ = -12						; size = 12
___that$ = 8						; size = 4
??0__SET@CExchange@@QAE@ABU01@@Z PROC			; CExchange::__SET::__SET, COMDAT
; _this$ = ecx
  00000	55		 push	 ebp
  00001	8b ec		 mov	 ebp, esp
  00003	6a ff		 push	 -1
  00005	68 00 00 00 00	 push	 __ehhandler$??0__SET@CExchange@@QAE@ABU01@@Z
  0000a	64 a1 00 00 00
	00		 mov	 eax, DWORD PTR fs:0
  00010	50		 push	 eax
  00011	51		 push	 ecx
  00012	56		 push	 esi
  00013	57		 push	 edi
  00014	a1 00 00 00 00	 mov	 eax, DWORD PTR ___security_cookie
  00019	33 c5		 xor	 eax, ebp
  0001b	50		 push	 eax
  0001c	8d 45 f4	 lea	 eax, DWORD PTR __$EHRec$[ebp]
  0001f	64 a3 00 00 00
	00		 mov	 DWORD PTR fs:0, eax
  00025	8b f9		 mov	 edi, ecx
  00027	89 7d f0	 mov	 DWORD PTR _this$[ebp], edi
  0002a	8b 75 08	 mov	 esi, DWORD PTR ___that$[ebp]
  0002d	8d 4f 04	 lea	 ecx, DWORD PTR [edi+4]
  00030	8b 06		 mov	 eax, DWORD PTR [esi]
  00032	89 07		 mov	 DWORD PTR [edi], eax
  00034	8d 46 04	 lea	 eax, DWORD PTR [esi+4]
  00037	50		 push	 eax
  00038	e8 00 00 00 00	 call	 ??0?$vector@HV?$allocator@H@std@@@std@@QAE@ABV01@@Z ; std::vector<int,std::allocator<int> >::vector<int,std::allocator<int> >
  0003d	8d 46 10	 lea	 eax, DWORD PTR [esi+16]
  00040	c7 45 fc 00 00
	00 00		 mov	 DWORD PTR __$EHRec$[ebp+8], 0
  00047	50		 push	 eax
  00048	8d 4f 10	 lea	 ecx, DWORD PTR [edi+16]
  0004b	e8 00 00 00 00	 call	 ??0?$vector@U__ITEM@CExchange@@V?$allocator@U__ITEM@CExchange@@@std@@@std@@QAE@ABV01@@Z ; std::vector<CExchange::__ITEM,std::allocator<CExchange::__ITEM> >::vector<CExchange::__ITEM,std::allocator<CExchange::__ITEM> >
  00050	8d 46 1c	 lea	 eax, DWORD PTR [esi+28]
  00053	c6 45 fc 01	 mov	 BYTE PTR __$EHRec$[ebp+8], 1
  00057	50		 push	 eax
  00058	8d 4f 1c	 lea	 ecx, DWORD PTR [edi+28]
  0005b	e8 00 00 00 00	 call	 ??0?$vector@U__ITEM@CExchange@@V?$allocator@U__ITEM@CExchange@@@std@@@std@@QAE@ABV01@@Z ; std::vector<CExchange::__ITEM,std::allocator<CExchange::__ITEM> >::vector<CExchange::__ITEM,std::allocator<CExchange::__ITEM> >
  00060	8d 46 28	 lea	 eax, DWORD PTR [esi+40]
  00063	c6 45 fc 02	 mov	 BYTE PTR __$EHRec$[ebp+8], 2
  00067	50		 push	 eax
  00068	8d 4f 28	 lea	 ecx, DWORD PTR [edi+40]
  0006b	e8 00 00 00 00	 call	 ??0?$vector@U__POINT@CExchange@@V?$allocator@U__POINT@CExchange@@@std@@@std@@QAE@ABV01@@Z ; std::vector<CExchange::__POINT,std::allocator<CExchange::__POINT> >::vector<CExchange::__POINT,std::allocator<CExchange::__POINT> >
  00070	8d 46 34	 lea	 eax, DWORD PTR [esi+52]
  00073	c6 45 fc 03	 mov	 BYTE PTR __$EHRec$[ebp+8], 3
  00077	50		 push	 eax
  00078	8d 4f 34	 lea	 ecx, DWORD PTR [edi+52]
  0007b	e8 00 00 00 00	 call	 ??0?$vector@U__POINT@CExchange@@V?$allocator@U__POINT@CExchange@@@std@@@std@@QAE@ABV01@@Z ; std::vector<CExchange::__POINT,std::allocator<CExchange::__POINT> >::vector<CExchange::__POINT,std::allocator<CExchange::__POINT> >
  00080	8d 46 40	 lea	 eax, DWORD PTR [esi+64]
  00083	c6 45 fc 04	 mov	 BYTE PTR __$EHRec$[ebp+8], 4
  00087	50		 push	 eax
  00088	8d 4f 40	 lea	 ecx, DWORD PTR [edi+64]
  0008b	e8 00 00 00 00	 call	 ??0?$vector@U__ITEM@CExchange@@V?$allocator@U__ITEM@CExchange@@@std@@@std@@QAE@ABV01@@Z ; std::vector<CExchange::__ITEM,std::allocator<CExchange::__ITEM> >::vector<CExchange::__ITEM,std::allocator<CExchange::__ITEM> >
  00090	8b 46 4c	 mov	 eax, DWORD PTR [esi+76]
  00093	89 47 4c	 mov	 DWORD PTR [edi+76], eax
  00096	8b c7		 mov	 eax, edi
  00098	8b 4d f4	 mov	 ecx, DWORD PTR __$EHRec$[ebp]
  0009b	64 89 0d 00 00
	00 00		 mov	 DWORD PTR fs:0, ecx
  000a2	59		 pop	 ecx
  000a3	5f		 pop	 edi
  000a4	5e		 pop	 esi
  000a5	8b e5		 mov	 esp, ebp
  000a7	5d		 pop	 ebp
  000a8	c2 04 00	 ret	 4
_TEXT	ENDS
;	COMDAT text$x
text$x	SEGMENT
__unwindfunclet$??0__SET@CExchange@@QAE@ABU01@@Z$0:
  00000	8b 4d f0	 mov	 ecx, DWORD PTR _this$[ebp]
  00003	83 c1 04	 add	 ecx, 4
  00006	e9 00 00 00 00	 jmp	 ??1?$vector@HV?$allocator@H@std@@@std@@QAE@XZ ; std::vector<int,std::allocator<int> >::~vector<int,std::allocator<int> >
__unwindfunclet$??0__SET@CExchange@@QAE@ABU01@@Z$1:
  0000b	8b 4d f0	 mov	 ecx, DWORD PTR _this$[ebp]
  0000e	83 c1 10	 add	 ecx, 16			; 00000010H
  00011	e9 00 00 00 00	 jmp	 ??1?$vector@U__ITEM@CExchange@@V?$allocator@U__ITEM@CExchange@@@std@@@std@@QAE@XZ ; std::vector<CExchange::__ITEM,std::allocator<CExchange::__ITEM> >::~vector<CExchange::__ITEM,std::allocator<CExchange::__ITEM> >
__unwindfunclet$??0__SET@CExchange@@QAE@ABU01@@Z$2:
  00016	8b 4d f0	 mov	 ecx, DWORD PTR _this$[ebp]
  00019	83 c1 1c	 add	 ecx, 28			; 0000001cH
  0001c	e9 00 00 00 00	 jmp	 ??1?$vector@U__ITEM@CExchange@@V?$allocator@U__ITEM@CExchange@@@std@@@std@@QAE@XZ ; std::vector<CExchange::__ITEM,std::allocator<CExchange::__ITEM> >::~vector<CExchange::__ITEM,std::allocator<CExchange::__ITEM> >
__unwindfunclet$??0__SET@CExchange@@QAE@ABU01@@Z$3:
  00021	8b 4d f0	 mov	 ecx, DWORD PTR _this$[ebp]
  00024	83 c1 28	 add	 ecx, 40			; 00000028H
  00027	e9 00 00 00 00	 jmp	 ??1?$vector@U__POINT@CExchange@@V?$allocator@U__POINT@CExchange@@@std@@@std@@QAE@XZ ; std::vector<CExchange::__POINT,std::allocator<CExchange::__POINT> >::~vector<CExchange::__POINT,std::allocator<CExchange::__POINT> >
__unwindfunclet$??0__SET@CExchange@@QAE@ABU01@@Z$4:
  0002c	8b 4d f0	 mov	 ecx, DWORD PTR _this$[ebp]
  0002f	83 c1 34	 add	 ecx, 52			; 00000034H
  00032	e9 00 00 00 00	 jmp	 ??1?$vector@U__POINT@CExchange@@V?$allocator@U__POINT@CExchange@@@std@@@std@@QAE@XZ ; std::vector<CExchange::__POINT,std::allocator<CExchange::__POINT> >::~vector<CExchange::__POINT,std::allocator<CExchange::__POINT> >
  00037	cc		 int	 3
  00038	cc		 int	 3
  00039	cc		 int	 3
  0003a	cc		 int	 3
  0003b	cc		 int	 3
__ehhandler$??0__SET@CExchange@@QAE@ABU01@@Z:
  0003c	90		 npad	 1
  0003d	90		 npad	 1
  0003e	8b 54 24 08	 mov	 edx, DWORD PTR [esp+8]
  00042	8d 42 0c	 lea	 eax, DWORD PTR [edx+12]
  00045	8b 4a f0	 mov	 ecx, DWORD PTR [edx-16]
  00048	33 c8		 xor	 ecx, eax
  0004a	e8 00 00 00 00	 call	 @__security_check_cookie@4
  0004f	b8 00 00 00 00	 mov	 eax, OFFSET __ehfuncinfo$??0__SET@CExchange@@QAE@ABU01@@Z
  00054	e9 00 00 00 00	 jmp	 ___CxxFrameHandler3
text$x	ENDS
??0__SET@CExchange@@QAE@ABU01@@Z ENDP			; CExchange::__SET::__SET
; Function compile flags: /Ogtp
; File C:\Program Files\Microsoft Visual Studio\2022\Professional\VC\Tools\MSVC\14.44.35207\include\vector
;	COMDAT ??1__SET@CExchange@@QAE@XZ
_TEXT	SEGMENT
??1__SET@CExchange@@QAE@XZ PROC				; CExchange::__SET::~__SET, COMDAT
; _this$ = ecx

; 830  :         _Tidy();

  00000	56		 push	 esi
  00001	8b f1		 mov	 esi, ecx
  00003	8d 4e 40	 lea	 ecx, DWORD PTR [esi+64]
  00006	e8 00 00 00 00	 call	 ?_Tidy@?$vector@U__ITEM@CExchange@@V?$allocator@U__ITEM@CExchange@@@std@@@std@@AAEXXZ ; std::vector<CExchange::__ITEM,std::allocator<CExchange::__ITEM> >::_Tidy
  0000b	8d 4e 34	 lea	 ecx, DWORD PTR [esi+52]
  0000e	e8 00 00 00 00	 call	 ?_Tidy@?$vector@U__POINT@CExchange@@V?$allocator@U__POINT@CExchange@@@std@@@std@@AAEXXZ ; std::vector<CExchange::__POINT,std::allocator<CExchange::__POINT> >::_Tidy
  00013	8d 4e 28	 lea	 ecx, DWORD PTR [esi+40]
  00016	e8 00 00 00 00	 call	 ?_Tidy@?$vector@U__POINT@CExchange@@V?$allocator@U__POINT@CExchange@@@std@@@std@@AAEXXZ ; std::vector<CExchange::__POINT,std::allocator<CExchange::__POINT> >::_Tidy
  0001b	8d 4e 1c	 lea	 ecx, DWORD PTR [esi+28]
  0001e	e8 00 00 00 00	 call	 ?_Tidy@?$vector@U__ITEM@CExchange@@V?$allocator@U__ITEM@CExchange@@@std@@@std@@AAEXXZ ; std::vector<CExchange::__ITEM,std::allocator<CExchange::__ITEM> >::_Tidy
  00023	8d 4e 10	 lea	 ecx, DWORD PTR [esi+16]
  00026	e8 00 00 00 00	 call	 ?_Tidy@?$vector@U__ITEM@CExchange@@V?$allocator@U__ITEM@CExchange@@@std@@@std@@AAEXXZ ; std::vector<CExchange::__ITEM,std::allocator<CExchange::__ITEM> >::_Tidy
  0002b	8d 4e 04	 lea	 ecx, DWORD PTR [esi+4]
  0002e	5e		 pop	 esi
  0002f	e9 00 00 00 00	 jmp	 ?_Tidy@?$vector@HV?$allocator@H@std@@@std@@AAEXXZ ; std::vector<int,std::allocator<int> >::_Tidy
??1__SET@CExchange@@QAE@XZ ENDP				; CExchange::__SET::~__SET
_TEXT	ENDS
; Function compile flags: /Ogtp
; File C:\Program Files\Microsoft Visual Studio\2022\Professional\VC\Tools\MSVC\14.44.35207\include\vector
;	COMDAT ?_Xlength@?$vector@U__POINT@CExchange@@V?$allocator@U__POINT@CExchange@@@std@@@std@@CAXXZ
_TEXT	SEGMENT
?_Xlength@?$vector@U__POINT@CExchange@@V?$allocator@U__POINT@CExchange@@@std@@@std@@CAXXZ PROC ; std::vector<CExchange::__POINT,std::allocator<CExchange::__POINT> >::_Xlength, COMDAT

; 2184 :         _Xlength_error("vector too long");

  00000	68 00 00 00 00	 push	 OFFSET ??_C@_0BA@FOIKENOD@vector?5too?5long@
  00005	e8 00 00 00 00	 call	 ?_Xlength_error@std@@YAXPBD@Z ; std::_Xlength_error
$LN3@Xlength:
  0000a	cc		 int	 3
?_Xlength@?$vector@U__POINT@CExchange@@V?$allocator@U__POINT@CExchange@@@std@@@std@@CAXXZ ENDP ; std::vector<CExchange::__POINT,std::allocator<CExchange::__POINT> >::_Xlength
_TEXT	ENDS
; Function compile flags: /Ogtp
; File C:\Program Files\Microsoft Visual Studio\2022\Professional\VC\Tools\MSVC\14.44.35207\include\vector
; File C:\Program Files\Microsoft Visual Studio\2022\Professional\VC\Tools\MSVC\14.44.35207\include\xmemory
; File C:\Program Files\Microsoft Visual Studio\2022\Professional\VC\Tools\MSVC\14.44.35207\include\vector
; File C:\Program Files\Microsoft Visual Studio\2022\Professional\VC\Tools\MSVC\14.44.35207\include\xmemory
; File C:\Program Files\Microsoft Visual Studio\2022\Professional\VC\Tools\MSVC\14.44.35207\include\vector
; File C:\Program Files\Microsoft Visual Studio\2022\Professional\VC\Tools\MSVC\14.44.35207\include\xmemory
; File C:\Program Files\Microsoft Visual Studio\2022\Professional\VC\Tools\MSVC\14.44.35207\include\vector
;	COMDAT ?_Tidy@?$vector@U__POINT@CExchange@@V?$allocator@U__POINT@CExchange@@@std@@@std@@AAEXXZ
_TEXT	SEGMENT
?_Tidy@?$vector@U__POINT@CExchange@@V?$allocator@U__POINT@CExchange@@@std@@@std@@AAEXXZ PROC ; std::vector<CExchange::__POINT,std::allocator<CExchange::__POINT> >::_Tidy, COMDAT
; _this$ = ecx

; 2081 :     _CONSTEXPR20 void _Tidy() noexcept { // free all storage

  00000	56		 push	 esi
  00001	8b f1		 mov	 esi, ecx

; 2082 :         auto& _Al         = _Getal();
; 2083 :         auto& _My_data    = _Mypair._Myval2;
; 2084 :         pointer& _Myfirst = _My_data._Myfirst;
; 2085 :         pointer& _Mylast  = _My_data._Mylast;
; 2086 :         pointer& _Myend   = _My_data._Myend;
; 2087 : 
; 2088 :         _My_data._Orphan_all();
; 2089 : 
; 2090 :         if (_Myfirst) { // destroy and deallocate old array

  00003	8b 06		 mov	 eax, DWORD PTR [esi]
  00005	85 c0		 test	 eax, eax
  00007	74 40		 je	 SHORT $LN2@Tidy

; 2091 :             _STD _Destroy_range(_Myfirst, _Mylast, _Al);
; 2092 :             _ASAN_VECTOR_REMOVE;
; 2093 :             _Al.deallocate(_Myfirst, static_cast<size_type>(_Myend - _Myfirst));

  00009	8b 4e 08	 mov	 ecx, DWORD PTR [esi+8]
  0000c	2b c8		 sub	 ecx, eax
; File C:\Program Files\Microsoft Visual Studio\2022\Professional\VC\Tools\MSVC\14.44.35207\include\xmemory

; 985  :         _STD _Deallocate<_New_alignof<_Ty>>(_Ptr, sizeof(_Ty) * _Count);

  0000e	83 e1 f8	 and	 ecx, -8			; fffffff8H

; 284  :         if (_Bytes >= _Big_allocation_threshold) {

  00011	81 f9 00 10 00
	00		 cmp	 ecx, 4096		; 00001000H
  00017	72 12		 jb	 SHORT $LN15@Tidy

; 205  :     const uintptr_t _Ptr_container   = _Ptr_user[-1];

  00019	8b 50 fc	 mov	 edx, DWORD PTR [eax-4]
  0001c	83 c1 23	 add	 ecx, 35			; 00000023H

; 206  : 
; 207  :     // If the following asserts, it likely means that we are performing
; 208  :     // an aligned delete on memory coming from an unaligned allocation.
; 209  :     _STL_ASSERT(_Ptr_user[-2] == _Big_allocation_sentinel, "invalid argument");
; 210  : 
; 211  :     // Extra paranoia on aligned allocation/deallocation; ensure _Ptr_container is
; 212  :     // in range [_Min_back_shift, _Non_user_size]
; 213  : #ifdef _DEBUG
; 214  :     constexpr uintptr_t _Min_back_shift = 2 * sizeof(void*);
; 215  : #else // ^^^ defined(_DEBUG) / !defined(_DEBUG) vvv
; 216  :     constexpr uintptr_t _Min_back_shift = sizeof(void*);
; 217  : #endif // ^^^ !defined(_DEBUG) ^^^
; 218  :     const uintptr_t _Back_shift = reinterpret_cast<uintptr_t>(_Ptr) - _Ptr_container;

  0001f	2b c2		 sub	 eax, edx

; 219  :     _STL_VERIFY(_Back_shift >= _Min_back_shift && _Back_shift <= _Non_user_size, "invalid argument");

  00021	83 c0 fc	 add	 eax, -4			; fffffffcH
  00024	83 f8 1f	 cmp	 eax, 31			; 0000001fH
  00027	77 22		 ja	 SHORT $LN14@Tidy

; 220  :     _Ptr = reinterpret_cast<void*>(_Ptr_container);

  00029	8b c2		 mov	 eax, edx
$LN15@Tidy:

; 289  :         ::operator delete(_Ptr, _Bytes);

  0002b	51		 push	 ecx
  0002c	50		 push	 eax
  0002d	e8 00 00 00 00	 call	 ??3@YAXPAXI@Z		; operator delete
; File C:\Program Files\Microsoft Visual Studio\2022\Professional\VC\Tools\MSVC\14.44.35207\include\vector

; 2095 :             _Myfirst = nullptr;

  00032	c7 06 00 00 00
	00		 mov	 DWORD PTR [esi], 0
; File C:\Program Files\Microsoft Visual Studio\2022\Professional\VC\Tools\MSVC\14.44.35207\include\xmemory

; 289  :         ::operator delete(_Ptr, _Bytes);

  00038	83 c4 08	 add	 esp, 8
; File C:\Program Files\Microsoft Visual Studio\2022\Professional\VC\Tools\MSVC\14.44.35207\include\vector

; 2096 :             _Mylast  = nullptr;

  0003b	c7 46 04 00 00
	00 00		 mov	 DWORD PTR [esi+4], 0

; 2097 :             _Myend   = nullptr;

  00042	c7 46 08 00 00
	00 00		 mov	 DWORD PTR [esi+8], 0
$LN2@Tidy:

; 2099 :     }

  00049	5e		 pop	 esi
  0004a	c3		 ret	 0
$LN14@Tidy:
; File C:\Program Files\Microsoft Visual Studio\2022\Professional\VC\Tools\MSVC\14.44.35207\include\xmemory

; 219  :     _STL_VERIFY(_Back_shift >= _Min_back_shift && _Back_shift <= _Non_user_size, "invalid argument");

  0004b	6a 00		 push	 0
  0004d	6a 00		 push	 0
  0004f	6a 00		 push	 0
  00051	6a 00		 push	 0
  00053	6a 00		 push	 0
  00055	e8 00 00 00 00	 call	 __invoke_watson
$LN22@Tidy:
  0005a	cc		 int	 3
?_Tidy@?$vector@U__POINT@CExchange@@V?$allocator@U__POINT@CExchange@@@std@@@std@@AAEXXZ ENDP ; std::vector<CExchange::__POINT,std::allocator<CExchange::__POINT> >::_Tidy
_TEXT	ENDS
; Function compile flags: /Ogtp
; File C:\Program Files\Microsoft Visual Studio\2022\Professional\VC\Tools\MSVC\14.44.35207\include\vector
; File C:\Program Files\Microsoft Visual Studio\2022\Professional\VC\Tools\MSVC\14.44.35207\include\xmemory
; File C:\Program Files\Microsoft Visual Studio\2022\Professional\VC\Tools\MSVC\14.44.35207\include\vector
; File C:\Program Files\Microsoft Visual Studio\2022\Professional\VC\Tools\MSVC\14.44.35207\include\xmemory
; File C:\Program Files\Microsoft Visual Studio\2022\Professional\VC\Tools\MSVC\14.44.35207\include\vector
; File C:\Program Files\Microsoft Visual Studio\2022\Professional\VC\Tools\MSVC\14.44.35207\include\xmemory
; File C:\Program Files\Microsoft Visual Studio\2022\Professional\VC\Tools\MSVC\14.44.35207\include\vector
; File C:\Program Files\Microsoft Visual Studio\2022\Professional\VC\Tools\MSVC\14.44.35207\include\xmemory
; File C:\Program Files\Microsoft Visual Studio\2022\Professional\VC\Tools\MSVC\14.44.35207\include\vector
; File C:\Program Files\Microsoft Visual Studio\2022\Professional\VC\Tools\MSVC\14.44.35207\include\xmemory
; File C:\Program Files\Microsoft Visual Studio\2022\Professional\VC\Tools\MSVC\14.44.35207\include\vector
;	COMDAT ?_Buy_raw@?$vector@U__POINT@CExchange@@V?$allocator@U__POINT@CExchange@@@std@@@std@@AAEXI@Z
_TEXT	SEGMENT
__Newcapacity$ = 8					; size = 4
?_Buy_raw@?$vector@U__POINT@CExchange@@V?$allocator@U__POINT@CExchange@@@std@@@std@@AAEXI@Z PROC ; std::vector<CExchange::__POINT,std::allocator<CExchange::__POINT> >::_Buy_raw, COMDAT
; _this$ = ecx

; 2024 :     _CONSTEXPR20 void _Buy_raw(size_type _Newcapacity) {

  00000	55		 push	 ebp
  00001	8b ec		 mov	 ebp, esp
  00003	56		 push	 esi
; File C:\Program Files\Microsoft Visual Studio\2022\Professional\VC\Tools\MSVC\14.44.35207\include\xmemory

; 117  :         if (_Count > _Max_possible) {

  00004	8b 75 08	 mov	 esi, DWORD PTR __Newcapacity$[ebp]
; File C:\Program Files\Microsoft Visual Studio\2022\Professional\VC\Tools\MSVC\14.44.35207\include\vector

; 2024 :     _CONSTEXPR20 void _Buy_raw(size_type _Newcapacity) {

  00007	57		 push	 edi
  00008	8b f9		 mov	 edi, ecx
; File C:\Program Files\Microsoft Visual Studio\2022\Professional\VC\Tools\MSVC\14.44.35207\include\xmemory

; 117  :         if (_Count > _Max_possible) {

  0000a	81 fe ff ff ff
	1f		 cmp	 esi, 536870911		; 1fffffffH
  00010	77 52		 ja	 SHORT $LN25@Buy_raw

; 119  :         }
; 120  :     }
; 121  : 
; 122  :     return _Count * _Ty_size;

  00012	c1 e6 03	 shl	 esi, 3

; 227  :     if (_Bytes == 0) {

  00015	85 f6		 test	 esi, esi
  00017	75 12		 jne	 SHORT $LN12@Buy_raw

; 228  :         return nullptr;

  00019	33 c0		 xor	 eax, eax
; File C:\Program Files\Microsoft Visual Studio\2022\Professional\VC\Tools\MSVC\14.44.35207\include\vector

; 2035 :         _Myfirst              = _Newvec;

  0001b	89 07		 mov	 DWORD PTR [edi], eax

; 2036 :         _Mylast               = _Newvec;

  0001d	89 47 04	 mov	 DWORD PTR [edi+4], eax

; 2037 :         _Myend                = _Newvec + _Newcapacity;

  00020	8b c6		 mov	 eax, esi
  00022	89 47 08	 mov	 DWORD PTR [edi+8], eax

; 2038 :     }

  00025	5f		 pop	 edi
  00026	5e		 pop	 esi
  00027	5d		 pop	 ebp
  00028	c2 04 00	 ret	 4
$LN12@Buy_raw:
; File C:\Program Files\Microsoft Visual Studio\2022\Professional\VC\Tools\MSVC\14.44.35207\include\xmemory

; 251  :         if (_Bytes >= _Big_allocation_threshold) {

  0002b	56		 push	 esi
  0002c	81 fe 00 10 00
	00		 cmp	 esi, 4096		; 00001000H
  00032	72 18		 jb	 SHORT $LN13@Buy_raw

; 252  :             // boost the alignment of big allocations to help autovectorization
; 253  :             return _Allocate_manually_vector_aligned<_Traits>(_Bytes);

  00034	e8 00 00 00 00	 call	 ??$_Allocate_manually_vector_aligned@U_Default_allocate_traits@std@@@std@@YAPAXI@Z ; std::_Allocate_manually_vector_aligned<std::_Default_allocate_traits>
; File C:\Program Files\Microsoft Visual Studio\2022\Professional\VC\Tools\MSVC\14.44.35207\include\vector

; 2035 :         _Myfirst              = _Newvec;

  00039	89 07		 mov	 DWORD PTR [edi], eax
  0003b	83 c4 04	 add	 esp, 4

; 2036 :         _Mylast               = _Newvec;

  0003e	89 47 04	 mov	 DWORD PTR [edi+4], eax

; 2037 :         _Myend                = _Newvec + _Newcapacity;

  00041	03 c6		 add	 eax, esi
  00043	89 47 08	 mov	 DWORD PTR [edi+8], eax

; 2038 :     }

  00046	5f		 pop	 edi
  00047	5e		 pop	 esi
  00048	5d		 pop	 ebp
  00049	c2 04 00	 ret	 4
$LN13@Buy_raw:
; File C:\Program Files\Microsoft Visual Studio\2022\Professional\VC\Tools\MSVC\14.44.35207\include\xmemory

; 136  :         return ::operator new(_Bytes);

  0004c	e8 00 00 00 00	 call	 ??2@YAPAXI@Z		; operator new
; File C:\Program Files\Microsoft Visual Studio\2022\Professional\VC\Tools\MSVC\14.44.35207\include\vector

; 2035 :         _Myfirst              = _Newvec;

  00051	89 07		 mov	 DWORD PTR [edi], eax
  00053	83 c4 04	 add	 esp, 4

; 2036 :         _Mylast               = _Newvec;

  00056	89 47 04	 mov	 DWORD PTR [edi+4], eax

; 2037 :         _Myend                = _Newvec + _Newcapacity;

  00059	03 c6		 add	 eax, esi
  0005b	89 47 08	 mov	 DWORD PTR [edi+8], eax

; 2038 :     }

  0005e	5f		 pop	 edi
  0005f	5e		 pop	 esi
  00060	5d		 pop	 ebp
  00061	c2 04 00	 ret	 4
$LN25@Buy_raw:
; File C:\Program Files\Microsoft Visual Studio\2022\Professional\VC\Tools\MSVC\14.44.35207\include\xmemory

; 118  :             _Throw_bad_array_new_length(); // multiply overflow

  00064	e8 00 00 00 00	 call	 ?_Throw_bad_array_new_length@std@@YAXXZ ; std::_Throw_bad_array_new_length
$LN22@Buy_raw:
  00069	cc		 int	 3
?_Buy_raw@?$vector@U__POINT@CExchange@@V?$allocator@U__POINT@CExchange@@@std@@@std@@AAEXI@Z ENDP ; std::vector<CExchange::__POINT,std::allocator<CExchange::__POINT> >::_Buy_raw
_TEXT	ENDS
; Function compile flags: /Ogtp
; File C:\Program Files\Microsoft Visual Studio\2022\Professional\VC\Tools\MSVC\14.44.35207\include\vector
;	COMDAT ??1?$vector@U__POINT@CExchange@@V?$allocator@U__POINT@CExchange@@@std@@@std@@QAE@XZ
_TEXT	SEGMENT
??1?$vector@U__POINT@CExchange@@V?$allocator@U__POINT@CExchange@@@std@@@std@@QAE@XZ PROC ; std::vector<CExchange::__POINT,std::allocator<CExchange::__POINT> >::~vector<CExchange::__POINT,std::allocator<CExchange::__POINT> >, COMDAT
; _this$ = ecx

; 830  :         _Tidy();

  00000	e9 00 00 00 00	 jmp	 ?_Tidy@?$vector@U__POINT@CExchange@@V?$allocator@U__POINT@CExchange@@@std@@@std@@AAEXXZ ; std::vector<CExchange::__POINT,std::allocator<CExchange::__POINT> >::_Tidy
??1?$vector@U__POINT@CExchange@@V?$allocator@U__POINT@CExchange@@@std@@@std@@QAE@XZ ENDP ; std::vector<CExchange::__POINT,std::allocator<CExchange::__POINT> >::~vector<CExchange::__POINT,std::allocator<CExchange::__POINT> >
_TEXT	ENDS
; Function compile flags: /Ogtp
; File C:\Program Files\Microsoft Visual Studio\2022\Professional\VC\Tools\MSVC\14.44.35207\include\vector
; File C:\Program Files\Microsoft Visual Studio\2022\Professional\VC\Tools\MSVC\14.44.35207\include\xmemory
; File C:\Program Files\Microsoft Visual Studio\2022\Professional\VC\Tools\MSVC\14.44.35207\include\vector
; File C:\Program Files\Microsoft Visual Studio\2022\Professional\VC\Tools\MSVC\14.44.35207\include\xmemory
; File C:\Program Files\Microsoft Visual Studio\2022\Professional\VC\Tools\MSVC\14.44.35207\include\vector
;	COMDAT ??0?$vector@U__POINT@CExchange@@V?$allocator@U__POINT@CExchange@@@std@@@std@@QAE@ABV01@@Z
_TEXT	SEGMENT
_this$1$ = -4						; size = 4
__Right$ = 8						; size = 4
??0?$vector@U__POINT@CExchange@@V?$allocator@U__POINT@CExchange@@@std@@@std@@QAE@ABV01@@Z PROC ; std::vector<CExchange::__POINT,std::allocator<CExchange::__POINT> >::vector<CExchange::__POINT,std::allocator<CExchange::__POINT> >, COMDAT
; _this$ = ecx

; 746  :         : _Mypair(_One_then_variadic_args_t{}, _Alty_traits::select_on_container_copy_construction(_Right._Getal())) {

  00000	55		 push	 ebp
  00001	8b ec		 mov	 ebp, esp
  00003	51		 push	 ecx
  00004	53		 push	 ebx
  00005	8b d9		 mov	 ebx, ecx
  00007	57		 push	 edi

; 747  :         const auto& _Right_data = _Right._Mypair._Myval2;
; 748  :         const auto _Count       = static_cast<size_type>(_Right_data._Mylast - _Right_data._Myfirst);

  00008	8b 7d 08	 mov	 edi, DWORD PTR __Right$[ebp]
  0000b	89 5d fc	 mov	 DWORD PTR _this$1$[ebp], ebx

; 400  :     _CONSTEXPR20 _Vector_val() noexcept : _Myfirst(), _Mylast(), _Myend() {}

  0000e	c7 03 00 00 00
	00		 mov	 DWORD PTR [ebx], 0
  00014	c7 43 04 00 00
	00 00		 mov	 DWORD PTR [ebx+4], 0
  0001b	c7 43 08 00 00
	00 00		 mov	 DWORD PTR [ebx+8], 0

; 747  :         const auto& _Right_data = _Right._Mypair._Myval2;
; 748  :         const auto _Count       = static_cast<size_type>(_Right_data._Mylast - _Right_data._Myfirst);

  00022	8b 47 04	 mov	 eax, DWORD PTR [edi+4]
  00025	2b 07		 sub	 eax, DWORD PTR [edi]
  00027	c1 f8 03	 sar	 eax, 3

; 2111 :         if (_Count != 0) {

  0002a	85 c0		 test	 eax, eax
  0002c	74 2f		 je	 SHORT $LN29@vector

; 2051 :         if (_Newcapacity > max_size()) {

  0002e	3d ff ff ff 1f	 cmp	 eax, 536870911		; 1fffffffH
  00033	77 32		 ja	 SHORT $LN37@vector
  00035	56		 push	 esi

; 2053 :         }
; 2054 : 
; 2055 :         _Buy_raw(_Newcapacity);

  00036	50		 push	 eax
  00037	e8 00 00 00 00	 call	 ?_Buy_raw@?$vector@U__POINT@CExchange@@V?$allocator@U__POINT@CExchange@@@std@@@std@@AAEXI@Z ; std::vector<CExchange::__POINT,std::allocator<CExchange::__POINT> >::_Buy_raw

; 2120 :                 _My_data._Mylast = _STD _Uninitialized_copy(_STD forward<_Valty>(_Val)..., _My_data._Myfirst, _Al);

  0003c	8b 1b		 mov	 ebx, DWORD PTR [ebx]
; File C:\Program Files\Microsoft Visual Studio\2022\Professional\VC\Tools\MSVC\14.44.35207\include\xmemory

; 1876 :     auto _UFirst = _STD _Get_unwrapped(_STD move(_First));

  0003e	8b 37		 mov	 esi, DWORD PTR [edi]

; 1877 :     auto _ULast  = _STD _Get_unwrapped(_STD move(_Last));

  00040	8b 7f 04	 mov	 edi, DWORD PTR [edi+4]

; 1878 : #endif // ^^^ !_HAS_CXX20 ^^^
; 1879 : 
; 1880 :     constexpr bool _Can_memmove = _Sent_copy_cat<decltype(_UFirst), decltype(_ULast), _Ptrval>::_Bitcopy_constructible
; 1881 :                                && _Uses_default_construct<_Alloc, _Ptrval, decltype(*_UFirst)>::value;
; 1882 : 
; 1883 :     if constexpr (_Can_memmove) {
; 1884 : #if _HAS_CXX20
; 1885 :         if (!_STD is_constant_evaluated())
; 1886 : #endif // _HAS_CXX20
; 1887 :         {
; 1888 :             if constexpr (is_same_v<decltype(_UFirst), decltype(_ULast)>) {
; 1889 :                 _STD _Copy_memmove(_STD _To_address(_UFirst), _STD _To_address(_ULast), _STD _Unfancy(_Dest));

  00043	53		 push	 ebx
  00044	57		 push	 edi
  00045	56		 push	 esi
  00046	e8 00 00 00 00	 call	 ??$_Copy_memmove@PAU__POINT@CExchange@@PAU12@@std@@YAPAU__POINT@CExchange@@PAU12@00@Z ; std::_Copy_memmove<CExchange::__POINT *,CExchange::__POINT *>

; 1890 :                 _Dest += _ULast - _UFirst;

  0004b	2b fe		 sub	 edi, esi
  0004d	83 c4 0c	 add	 esp, 12			; 0000000cH
  00050	c1 ff 03	 sar	 edi, 3
; File C:\Program Files\Microsoft Visual Studio\2022\Professional\VC\Tools\MSVC\14.44.35207\include\vector

; 2120 :                 _My_data._Mylast = _STD _Uninitialized_copy(_STD forward<_Valty>(_Val)..., _My_data._Myfirst, _Al);

  00053	5e		 pop	 esi
; File C:\Program Files\Microsoft Visual Studio\2022\Professional\VC\Tools\MSVC\14.44.35207\include\xmemory

; 1890 :                 _Dest += _ULast - _UFirst;

  00054	8d 04 fb	 lea	 eax, DWORD PTR [ebx+edi*8]
; File C:\Program Files\Microsoft Visual Studio\2022\Professional\VC\Tools\MSVC\14.44.35207\include\vector

; 2120 :                 _My_data._Mylast = _STD _Uninitialized_copy(_STD forward<_Valty>(_Val)..., _My_data._Myfirst, _Al);

  00057	8b 5d fc	 mov	 ebx, DWORD PTR _this$1$[ebp]
  0005a	89 43 04	 mov	 DWORD PTR [ebx+4], eax
$LN29@vector:

; 749  :         _Construct_n(_Count, _Right_data._Myfirst, _Right_data._Mylast);
; 750  :     }

  0005d	5f		 pop	 edi
  0005e	8b c3		 mov	 eax, ebx
  00060	5b		 pop	 ebx
  00061	8b e5		 mov	 esp, ebp
  00063	5d		 pop	 ebp
  00064	c2 04 00	 ret	 4
$LN37@vector:

; 2052 :             _Xlength();

  00067	e8 00 00 00 00	 call	 ?_Xlength@?$vector@U__POINT@CExchange@@V?$allocator@U__POINT@CExchange@@@std@@@std@@CAXXZ ; std::vector<CExchange::__POINT,std::allocator<CExchange::__POINT> >::_Xlength
$LN35@vector:
  0006c	cc		 int	 3
??0?$vector@U__POINT@CExchange@@V?$allocator@U__POINT@CExchange@@@std@@@std@@QAE@ABV01@@Z ENDP ; std::vector<CExchange::__POINT,std::allocator<CExchange::__POINT> >::vector<CExchange::__POINT,std::allocator<CExchange::__POINT> >
_TEXT	ENDS
; Function compile flags: /Ogtp
; File C:\Program Files\Microsoft Visual Studio\2022\Professional\VC\Tools\MSVC\14.44.35207\include\vector
;	COMDAT ?_Xlength@?$vector@U__ITEM@CExchange@@V?$allocator@U__ITEM@CExchange@@@std@@@std@@CAXXZ
_TEXT	SEGMENT
?_Xlength@?$vector@U__ITEM@CExchange@@V?$allocator@U__ITEM@CExchange@@@std@@@std@@CAXXZ PROC ; std::vector<CExchange::__ITEM,std::allocator<CExchange::__ITEM> >::_Xlength, COMDAT

; 2184 :         _Xlength_error("vector too long");

  00000	68 00 00 00 00	 push	 OFFSET ??_C@_0BA@FOIKENOD@vector?5too?5long@
  00005	e8 00 00 00 00	 call	 ?_Xlength_error@std@@YAXPBD@Z ; std::_Xlength_error
$LN3@Xlength:
  0000a	cc		 int	 3
?_Xlength@?$vector@U__ITEM@CExchange@@V?$allocator@U__ITEM@CExchange@@@std@@@std@@CAXXZ ENDP ; std::vector<CExchange::__ITEM,std::allocator<CExchange::__ITEM> >::_Xlength
_TEXT	ENDS
; Function compile flags: /Ogtp
; File C:\Program Files\Microsoft Visual Studio\2022\Professional\VC\Tools\MSVC\14.44.35207\include\vector
; File C:\Program Files\Microsoft Visual Studio\2022\Professional\VC\Tools\MSVC\14.44.35207\include\xmemory
; File C:\Program Files\Microsoft Visual Studio\2022\Professional\VC\Tools\MSVC\14.44.35207\include\vector
; File C:\Program Files\Microsoft Visual Studio\2022\Professional\VC\Tools\MSVC\14.44.35207\include\xmemory
; File C:\Program Files\Microsoft Visual Studio\2022\Professional\VC\Tools\MSVC\14.44.35207\include\vector
; File C:\Program Files\Microsoft Visual Studio\2022\Professional\VC\Tools\MSVC\14.44.35207\include\xmemory
; File C:\Program Files\Microsoft Visual Studio\2022\Professional\VC\Tools\MSVC\14.44.35207\include\vector
;	COMDAT ?_Tidy@?$vector@U__ITEM@CExchange@@V?$allocator@U__ITEM@CExchange@@@std@@@std@@AAEXXZ
_TEXT	SEGMENT
?_Tidy@?$vector@U__ITEM@CExchange@@V?$allocator@U__ITEM@CExchange@@@std@@@std@@AAEXXZ PROC ; std::vector<CExchange::__ITEM,std::allocator<CExchange::__ITEM> >::_Tidy, COMDAT
; _this$ = ecx

; 2081 :     _CONSTEXPR20 void _Tidy() noexcept { // free all storage

  00000	56		 push	 esi
  00001	8b f1		 mov	 esi, ecx

; 2082 :         auto& _Al         = _Getal();
; 2083 :         auto& _My_data    = _Mypair._Myval2;
; 2084 :         pointer& _Myfirst = _My_data._Myfirst;
; 2085 :         pointer& _Mylast  = _My_data._Mylast;
; 2086 :         pointer& _Myend   = _My_data._Myend;
; 2087 : 
; 2088 :         _My_data._Orphan_all();
; 2089 : 
; 2090 :         if (_Myfirst) { // destroy and deallocate old array

  00003	8b 06		 mov	 eax, DWORD PTR [esi]
  00005	85 c0		 test	 eax, eax
  00007	74 40		 je	 SHORT $LN2@Tidy

; 2091 :             _STD _Destroy_range(_Myfirst, _Mylast, _Al);
; 2092 :             _ASAN_VECTOR_REMOVE;
; 2093 :             _Al.deallocate(_Myfirst, static_cast<size_type>(_Myend - _Myfirst));

  00009	8b 4e 08	 mov	 ecx, DWORD PTR [esi+8]
  0000c	2b c8		 sub	 ecx, eax
; File C:\Program Files\Microsoft Visual Studio\2022\Professional\VC\Tools\MSVC\14.44.35207\include\xmemory

; 985  :         _STD _Deallocate<_New_alignof<_Ty>>(_Ptr, sizeof(_Ty) * _Count);

  0000e	83 e1 f0	 and	 ecx, -16		; fffffff0H

; 284  :         if (_Bytes >= _Big_allocation_threshold) {

  00011	81 f9 00 10 00
	00		 cmp	 ecx, 4096		; 00001000H
  00017	72 12		 jb	 SHORT $LN15@Tidy

; 205  :     const uintptr_t _Ptr_container   = _Ptr_user[-1];

  00019	8b 50 fc	 mov	 edx, DWORD PTR [eax-4]
  0001c	83 c1 23	 add	 ecx, 35			; 00000023H

; 206  : 
; 207  :     // If the following asserts, it likely means that we are performing
; 208  :     // an aligned delete on memory coming from an unaligned allocation.
; 209  :     _STL_ASSERT(_Ptr_user[-2] == _Big_allocation_sentinel, "invalid argument");
; 210  : 
; 211  :     // Extra paranoia on aligned allocation/deallocation; ensure _Ptr_container is
; 212  :     // in range [_Min_back_shift, _Non_user_size]
; 213  : #ifdef _DEBUG
; 214  :     constexpr uintptr_t _Min_back_shift = 2 * sizeof(void*);
; 215  : #else // ^^^ defined(_DEBUG) / !defined(_DEBUG) vvv
; 216  :     constexpr uintptr_t _Min_back_shift = sizeof(void*);
; 217  : #endif // ^^^ !defined(_DEBUG) ^^^
; 218  :     const uintptr_t _Back_shift = reinterpret_cast<uintptr_t>(_Ptr) - _Ptr_container;

  0001f	2b c2		 sub	 eax, edx

; 219  :     _STL_VERIFY(_Back_shift >= _Min_back_shift && _Back_shift <= _Non_user_size, "invalid argument");

  00021	83 c0 fc	 add	 eax, -4			; fffffffcH
  00024	83 f8 1f	 cmp	 eax, 31			; 0000001fH
  00027	77 22		 ja	 SHORT $LN14@Tidy

; 220  :     _Ptr = reinterpret_cast<void*>(_Ptr_container);

  00029	8b c2		 mov	 eax, edx
$LN15@Tidy:

; 289  :         ::operator delete(_Ptr, _Bytes);

  0002b	51		 push	 ecx
  0002c	50		 push	 eax
  0002d	e8 00 00 00 00	 call	 ??3@YAXPAXI@Z		; operator delete
; File C:\Program Files\Microsoft Visual Studio\2022\Professional\VC\Tools\MSVC\14.44.35207\include\vector

; 2095 :             _Myfirst = nullptr;

  00032	c7 06 00 00 00
	00		 mov	 DWORD PTR [esi], 0
; File C:\Program Files\Microsoft Visual Studio\2022\Professional\VC\Tools\MSVC\14.44.35207\include\xmemory

; 289  :         ::operator delete(_Ptr, _Bytes);

  00038	83 c4 08	 add	 esp, 8
; File C:\Program Files\Microsoft Visual Studio\2022\Professional\VC\Tools\MSVC\14.44.35207\include\vector

; 2096 :             _Mylast  = nullptr;

  0003b	c7 46 04 00 00
	00 00		 mov	 DWORD PTR [esi+4], 0

; 2097 :             _Myend   = nullptr;

  00042	c7 46 08 00 00
	00 00		 mov	 DWORD PTR [esi+8], 0
$LN2@Tidy:

; 2099 :     }

  00049	5e		 pop	 esi
  0004a	c3		 ret	 0
$LN14@Tidy:
; File C:\Program Files\Microsoft Visual Studio\2022\Professional\VC\Tools\MSVC\14.44.35207\include\xmemory

; 219  :     _STL_VERIFY(_Back_shift >= _Min_back_shift && _Back_shift <= _Non_user_size, "invalid argument");

  0004b	6a 00		 push	 0
  0004d	6a 00		 push	 0
  0004f	6a 00		 push	 0
  00051	6a 00		 push	 0
  00053	6a 00		 push	 0
  00055	e8 00 00 00 00	 call	 __invoke_watson
$LN22@Tidy:
  0005a	cc		 int	 3
?_Tidy@?$vector@U__ITEM@CExchange@@V?$allocator@U__ITEM@CExchange@@@std@@@std@@AAEXXZ ENDP ; std::vector<CExchange::__ITEM,std::allocator<CExchange::__ITEM> >::_Tidy
_TEXT	ENDS
; Function compile flags: /Ogtp
; File C:\Program Files\Microsoft Visual Studio\2022\Professional\VC\Tools\MSVC\14.44.35207\include\vector
; File C:\Program Files\Microsoft Visual Studio\2022\Professional\VC\Tools\MSVC\14.44.35207\include\xmemory
; File C:\Program Files\Microsoft Visual Studio\2022\Professional\VC\Tools\MSVC\14.44.35207\include\vector
; File C:\Program Files\Microsoft Visual Studio\2022\Professional\VC\Tools\MSVC\14.44.35207\include\xmemory
; File C:\Program Files\Microsoft Visual Studio\2022\Professional\VC\Tools\MSVC\14.44.35207\include\vector
; File C:\Program Files\Microsoft Visual Studio\2022\Professional\VC\Tools\MSVC\14.44.35207\include\xmemory
; File C:\Program Files\Microsoft Visual Studio\2022\Professional\VC\Tools\MSVC\14.44.35207\include\vector
; File C:\Program Files\Microsoft Visual Studio\2022\Professional\VC\Tools\MSVC\14.44.35207\include\xmemory
; File C:\Program Files\Microsoft Visual Studio\2022\Professional\VC\Tools\MSVC\14.44.35207\include\vector
; File C:\Program Files\Microsoft Visual Studio\2022\Professional\VC\Tools\MSVC\14.44.35207\include\xmemory
; File C:\Program Files\Microsoft Visual Studio\2022\Professional\VC\Tools\MSVC\14.44.35207\include\vector
;	COMDAT ?_Buy_raw@?$vector@U__ITEM@CExchange@@V?$allocator@U__ITEM@CExchange@@@std@@@std@@AAEXI@Z
_TEXT	SEGMENT
__Newcapacity$ = 8					; size = 4
?_Buy_raw@?$vector@U__ITEM@CExchange@@V?$allocator@U__ITEM@CExchange@@@std@@@std@@AAEXI@Z PROC ; std::vector<CExchange::__ITEM,std::allocator<CExchange::__ITEM> >::_Buy_raw, COMDAT
; _this$ = ecx

; 2024 :     _CONSTEXPR20 void _Buy_raw(size_type _Newcapacity) {

  00000	55		 push	 ebp
  00001	8b ec		 mov	 ebp, esp
  00003	56		 push	 esi
; File C:\Program Files\Microsoft Visual Studio\2022\Professional\VC\Tools\MSVC\14.44.35207\include\xmemory

; 117  :         if (_Count > _Max_possible) {

  00004	8b 75 08	 mov	 esi, DWORD PTR __Newcapacity$[ebp]
; File C:\Program Files\Microsoft Visual Studio\2022\Professional\VC\Tools\MSVC\14.44.35207\include\vector

; 2024 :     _CONSTEXPR20 void _Buy_raw(size_type _Newcapacity) {

  00007	57		 push	 edi
  00008	8b f9		 mov	 edi, ecx
; File C:\Program Files\Microsoft Visual Studio\2022\Professional\VC\Tools\MSVC\14.44.35207\include\xmemory

; 117  :         if (_Count > _Max_possible) {

  0000a	81 fe ff ff ff
	0f		 cmp	 esi, 268435455		; 0fffffffH
  00010	77 52		 ja	 SHORT $LN25@Buy_raw

; 119  :         }
; 120  :     }
; 121  : 
; 122  :     return _Count * _Ty_size;

  00012	c1 e6 04	 shl	 esi, 4

; 227  :     if (_Bytes == 0) {

  00015	85 f6		 test	 esi, esi
  00017	75 12		 jne	 SHORT $LN12@Buy_raw

; 228  :         return nullptr;

  00019	33 c0		 xor	 eax, eax
; File C:\Program Files\Microsoft Visual Studio\2022\Professional\VC\Tools\MSVC\14.44.35207\include\vector

; 2035 :         _Myfirst              = _Newvec;

  0001b	89 07		 mov	 DWORD PTR [edi], eax

; 2036 :         _Mylast               = _Newvec;

  0001d	89 47 04	 mov	 DWORD PTR [edi+4], eax

; 2037 :         _Myend                = _Newvec + _Newcapacity;

  00020	8b c6		 mov	 eax, esi
  00022	89 47 08	 mov	 DWORD PTR [edi+8], eax

; 2038 :     }

  00025	5f		 pop	 edi
  00026	5e		 pop	 esi
  00027	5d		 pop	 ebp
  00028	c2 04 00	 ret	 4
$LN12@Buy_raw:
; File C:\Program Files\Microsoft Visual Studio\2022\Professional\VC\Tools\MSVC\14.44.35207\include\xmemory

; 251  :         if (_Bytes >= _Big_allocation_threshold) {

  0002b	56		 push	 esi
  0002c	81 fe 00 10 00
	00		 cmp	 esi, 4096		; 00001000H
  00032	72 18		 jb	 SHORT $LN13@Buy_raw

; 252  :             // boost the alignment of big allocations to help autovectorization
; 253  :             return _Allocate_manually_vector_aligned<_Traits>(_Bytes);

  00034	e8 00 00 00 00	 call	 ??$_Allocate_manually_vector_aligned@U_Default_allocate_traits@std@@@std@@YAPAXI@Z ; std::_Allocate_manually_vector_aligned<std::_Default_allocate_traits>
; File C:\Program Files\Microsoft Visual Studio\2022\Professional\VC\Tools\MSVC\14.44.35207\include\vector

; 2035 :         _Myfirst              = _Newvec;

  00039	89 07		 mov	 DWORD PTR [edi], eax
  0003b	83 c4 04	 add	 esp, 4

; 2036 :         _Mylast               = _Newvec;

  0003e	89 47 04	 mov	 DWORD PTR [edi+4], eax

; 2037 :         _Myend                = _Newvec + _Newcapacity;

  00041	03 c6		 add	 eax, esi
  00043	89 47 08	 mov	 DWORD PTR [edi+8], eax

; 2038 :     }

  00046	5f		 pop	 edi
  00047	5e		 pop	 esi
  00048	5d		 pop	 ebp
  00049	c2 04 00	 ret	 4
$LN13@Buy_raw:
; File C:\Program Files\Microsoft Visual Studio\2022\Professional\VC\Tools\MSVC\14.44.35207\include\xmemory

; 136  :         return ::operator new(_Bytes);

  0004c	e8 00 00 00 00	 call	 ??2@YAPAXI@Z		; operator new
; File C:\Program Files\Microsoft Visual Studio\2022\Professional\VC\Tools\MSVC\14.44.35207\include\vector

; 2035 :         _Myfirst              = _Newvec;

  00051	89 07		 mov	 DWORD PTR [edi], eax
  00053	83 c4 04	 add	 esp, 4

; 2036 :         _Mylast               = _Newvec;

  00056	89 47 04	 mov	 DWORD PTR [edi+4], eax

; 2037 :         _Myend                = _Newvec + _Newcapacity;

  00059	03 c6		 add	 eax, esi
  0005b	89 47 08	 mov	 DWORD PTR [edi+8], eax

; 2038 :     }

  0005e	5f		 pop	 edi
  0005f	5e		 pop	 esi
  00060	5d		 pop	 ebp
  00061	c2 04 00	 ret	 4
$LN25@Buy_raw:
; File C:\Program Files\Microsoft Visual Studio\2022\Professional\VC\Tools\MSVC\14.44.35207\include\xmemory

; 118  :             _Throw_bad_array_new_length(); // multiply overflow

  00064	e8 00 00 00 00	 call	 ?_Throw_bad_array_new_length@std@@YAXXZ ; std::_Throw_bad_array_new_length
$LN22@Buy_raw:
  00069	cc		 int	 3
?_Buy_raw@?$vector@U__ITEM@CExchange@@V?$allocator@U__ITEM@CExchange@@@std@@@std@@AAEXI@Z ENDP ; std::vector<CExchange::__ITEM,std::allocator<CExchange::__ITEM> >::_Buy_raw
_TEXT	ENDS
; Function compile flags: /Ogtp
; File C:\Program Files\Microsoft Visual Studio\2022\Professional\VC\Tools\MSVC\14.44.35207\include\vector
;	COMDAT ??1?$vector@U__ITEM@CExchange@@V?$allocator@U__ITEM@CExchange@@@std@@@std@@QAE@XZ
_TEXT	SEGMENT
??1?$vector@U__ITEM@CExchange@@V?$allocator@U__ITEM@CExchange@@@std@@@std@@QAE@XZ PROC ; std::vector<CExchange::__ITEM,std::allocator<CExchange::__ITEM> >::~vector<CExchange::__ITEM,std::allocator<CExchange::__ITEM> >, COMDAT
; _this$ = ecx

; 830  :         _Tidy();

  00000	e9 00 00 00 00	 jmp	 ?_Tidy@?$vector@U__ITEM@CExchange@@V?$allocator@U__ITEM@CExchange@@@std@@@std@@AAEXXZ ; std::vector<CExchange::__ITEM,std::allocator<CExchange::__ITEM> >::_Tidy
??1?$vector@U__ITEM@CExchange@@V?$allocator@U__ITEM@CExchange@@@std@@@std@@QAE@XZ ENDP ; std::vector<CExchange::__ITEM,std::allocator<CExchange::__ITEM> >::~vector<CExchange::__ITEM,std::allocator<CExchange::__ITEM> >
_TEXT	ENDS
; Function compile flags: /Ogtp
; File C:\Program Files\Microsoft Visual Studio\2022\Professional\VC\Tools\MSVC\14.44.35207\include\vector
; File C:\Program Files\Microsoft Visual Studio\2022\Professional\VC\Tools\MSVC\14.44.35207\include\xmemory
; File C:\Program Files\Microsoft Visual Studio\2022\Professional\VC\Tools\MSVC\14.44.35207\include\vector
;	COMDAT ??0?$vector@U__ITEM@CExchange@@V?$allocator@U__ITEM@CExchange@@@std@@@std@@QAE@ABV01@@Z
_TEXT	SEGMENT
_this$1$ = -4						; size = 4
__Right$ = 8						; size = 4
??0?$vector@U__ITEM@CExchange@@V?$allocator@U__ITEM@CExchange@@@std@@@std@@QAE@ABV01@@Z PROC ; std::vector<CExchange::__ITEM,std::allocator<CExchange::__ITEM> >::vector<CExchange::__ITEM,std::allocator<CExchange::__ITEM> >, COMDAT
; _this$ = ecx

; 746  :         : _Mypair(_One_then_variadic_args_t{}, _Alty_traits::select_on_container_copy_construction(_Right._Getal())) {

  00000	55		 push	 ebp
  00001	8b ec		 mov	 ebp, esp
  00003	51		 push	 ecx
  00004	53		 push	 ebx
  00005	8b d9		 mov	 ebx, ecx
  00007	57		 push	 edi

; 747  :         const auto& _Right_data = _Right._Mypair._Myval2;
; 748  :         const auto _Count       = static_cast<size_type>(_Right_data._Mylast - _Right_data._Myfirst);

  00008	8b 7d 08	 mov	 edi, DWORD PTR __Right$[ebp]
  0000b	89 5d fc	 mov	 DWORD PTR _this$1$[ebp], ebx

; 400  :     _CONSTEXPR20 _Vector_val() noexcept : _Myfirst(), _Mylast(), _Myend() {}

  0000e	c7 03 00 00 00
	00		 mov	 DWORD PTR [ebx], 0
  00014	c7 43 04 00 00
	00 00		 mov	 DWORD PTR [ebx+4], 0
  0001b	c7 43 08 00 00
	00 00		 mov	 DWORD PTR [ebx+8], 0

; 747  :         const auto& _Right_data = _Right._Mypair._Myval2;
; 748  :         const auto _Count       = static_cast<size_type>(_Right_data._Mylast - _Right_data._Myfirst);

  00022	8b 47 04	 mov	 eax, DWORD PTR [edi+4]
  00025	2b 07		 sub	 eax, DWORD PTR [edi]
  00027	c1 f8 04	 sar	 eax, 4

; 2111 :         if (_Count != 0) {

  0002a	85 c0		 test	 eax, eax
  0002c	74 2e		 je	 SHORT $LN31@vector

; 2051 :         if (_Newcapacity > max_size()) {

  0002e	3d ff ff ff 0f	 cmp	 eax, 268435455		; 0fffffffH
  00033	77 31		 ja	 SHORT $LN39@vector
  00035	56		 push	 esi

; 2053 :         }
; 2054 : 
; 2055 :         _Buy_raw(_Newcapacity);

  00036	50		 push	 eax
  00037	e8 00 00 00 00	 call	 ?_Buy_raw@?$vector@U__ITEM@CExchange@@V?$allocator@U__ITEM@CExchange@@@std@@@std@@AAEXI@Z ; std::vector<CExchange::__ITEM,std::allocator<CExchange::__ITEM> >::_Buy_raw

; 2120 :                 _My_data._Mylast = _STD _Uninitialized_copy(_STD forward<_Valty>(_Val)..., _My_data._Myfirst, _Al);

  0003c	8b 1b		 mov	 ebx, DWORD PTR [ebx]
; File C:\Program Files\Microsoft Visual Studio\2022\Professional\VC\Tools\MSVC\14.44.35207\include\xmemory

; 1876 :     auto _UFirst = _STD _Get_unwrapped(_STD move(_First));

  0003e	8b 37		 mov	 esi, DWORD PTR [edi]

; 1877 :     auto _ULast  = _STD _Get_unwrapped(_STD move(_Last));

  00040	8b 7f 04	 mov	 edi, DWORD PTR [edi+4]

; 1878 : #endif // ^^^ !_HAS_CXX20 ^^^
; 1879 : 
; 1880 :     constexpr bool _Can_memmove = _Sent_copy_cat<decltype(_UFirst), decltype(_ULast), _Ptrval>::_Bitcopy_constructible
; 1881 :                                && _Uses_default_construct<_Alloc, _Ptrval, decltype(*_UFirst)>::value;
; 1882 : 
; 1883 :     if constexpr (_Can_memmove) {
; 1884 : #if _HAS_CXX20
; 1885 :         if (!_STD is_constant_evaluated())
; 1886 : #endif // _HAS_CXX20
; 1887 :         {
; 1888 :             if constexpr (is_same_v<decltype(_UFirst), decltype(_ULast)>) {
; 1889 :                 _STD _Copy_memmove(_STD _To_address(_UFirst), _STD _To_address(_ULast), _STD _Unfancy(_Dest));

  00043	53		 push	 ebx
  00044	57		 push	 edi
  00045	56		 push	 esi
  00046	e8 00 00 00 00	 call	 ??$_Copy_memmove@PAU__ITEM@CExchange@@PAU12@@std@@YAPAU__ITEM@CExchange@@PAU12@00@Z ; std::_Copy_memmove<CExchange::__ITEM *,CExchange::__ITEM *>

; 1890 :                 _Dest += _ULast - _UFirst;

  0004b	2b fe		 sub	 edi, esi
  0004d	83 c4 0c	 add	 esp, 12			; 0000000cH
  00050	83 e7 f0	 and	 edi, -16		; fffffff0H
  00053	03 fb		 add	 edi, ebx
; File C:\Program Files\Microsoft Visual Studio\2022\Professional\VC\Tools\MSVC\14.44.35207\include\vector

; 2120 :                 _My_data._Mylast = _STD _Uninitialized_copy(_STD forward<_Valty>(_Val)..., _My_data._Myfirst, _Al);

  00055	8b 5d fc	 mov	 ebx, DWORD PTR _this$1$[ebp]
  00058	5e		 pop	 esi
  00059	89 7b 04	 mov	 DWORD PTR [ebx+4], edi
$LN31@vector:

; 749  :         _Construct_n(_Count, _Right_data._Myfirst, _Right_data._Mylast);
; 750  :     }

  0005c	5f		 pop	 edi
  0005d	8b c3		 mov	 eax, ebx
  0005f	5b		 pop	 ebx
  00060	8b e5		 mov	 esp, ebp
  00062	5d		 pop	 ebp
  00063	c2 04 00	 ret	 4
$LN39@vector:

; 2052 :             _Xlength();

  00066	e8 00 00 00 00	 call	 ?_Xlength@?$vector@U__ITEM@CExchange@@V?$allocator@U__ITEM@CExchange@@@std@@@std@@CAXXZ ; std::vector<CExchange::__ITEM,std::allocator<CExchange::__ITEM> >::_Xlength
$LN37@vector:
  0006b	cc		 int	 3
??0?$vector@U__ITEM@CExchange@@V?$allocator@U__ITEM@CExchange@@@std@@@std@@QAE@ABV01@@Z ENDP ; std::vector<CExchange::__ITEM,std::allocator<CExchange::__ITEM> >::vector<CExchange::__ITEM,std::allocator<CExchange::__ITEM> >
_TEXT	ENDS
; Function compile flags: /Ogtp
; File C:\Program Files\Microsoft Visual Studio\2022\Professional\VC\Tools\MSVC\14.44.35207\include\vector
;	COMDAT ?_Xlength@?$vector@HV?$allocator@H@std@@@std@@CAXXZ
_TEXT	SEGMENT
?_Xlength@?$vector@HV?$allocator@H@std@@@std@@CAXXZ PROC ; std::vector<int,std::allocator<int> >::_Xlength, COMDAT

; 2184 :         _Xlength_error("vector too long");

  00000	68 00 00 00 00	 push	 OFFSET ??_C@_0BA@FOIKENOD@vector?5too?5long@
  00005	e8 00 00 00 00	 call	 ?_Xlength_error@std@@YAXPBD@Z ; std::_Xlength_error
$LN3@Xlength:
  0000a	cc		 int	 3
?_Xlength@?$vector@HV?$allocator@H@std@@@std@@CAXXZ ENDP ; std::vector<int,std::allocator<int> >::_Xlength
_TEXT	ENDS
; Function compile flags: /Ogtp
; File C:\Program Files\Microsoft Visual Studio\2022\Professional\VC\Tools\MSVC\14.44.35207\include\vector
; File C:\Program Files\Microsoft Visual Studio\2022\Professional\VC\Tools\MSVC\14.44.35207\include\xmemory
; File C:\Program Files\Microsoft Visual Studio\2022\Professional\VC\Tools\MSVC\14.44.35207\include\vector
; File C:\Program Files\Microsoft Visual Studio\2022\Professional\VC\Tools\MSVC\14.44.35207\include\xmemory
; File C:\Program Files\Microsoft Visual Studio\2022\Professional\VC\Tools\MSVC\14.44.35207\include\vector
; File C:\Program Files\Microsoft Visual Studio\2022\Professional\VC\Tools\MSVC\14.44.35207\include\xmemory
; File C:\Program Files\Microsoft Visual Studio\2022\Professional\VC\Tools\MSVC\14.44.35207\include\vector
;	COMDAT ?_Tidy@?$vector@HV?$allocator@H@std@@@std@@AAEXXZ
_TEXT	SEGMENT
?_Tidy@?$vector@HV?$allocator@H@std@@@std@@AAEXXZ PROC	; std::vector<int,std::allocator<int> >::_Tidy, COMDAT
; _this$ = ecx

; 2081 :     _CONSTEXPR20 void _Tidy() noexcept { // free all storage

  00000	56		 push	 esi
  00001	8b f1		 mov	 esi, ecx

; 2082 :         auto& _Al         = _Getal();
; 2083 :         auto& _My_data    = _Mypair._Myval2;
; 2084 :         pointer& _Myfirst = _My_data._Myfirst;
; 2085 :         pointer& _Mylast  = _My_data._Mylast;
; 2086 :         pointer& _Myend   = _My_data._Myend;
; 2087 : 
; 2088 :         _My_data._Orphan_all();
; 2089 : 
; 2090 :         if (_Myfirst) { // destroy and deallocate old array

  00003	8b 06		 mov	 eax, DWORD PTR [esi]
  00005	85 c0		 test	 eax, eax
  00007	74 40		 je	 SHORT $LN2@Tidy

; 2091 :             _STD _Destroy_range(_Myfirst, _Mylast, _Al);
; 2092 :             _ASAN_VECTOR_REMOVE;
; 2093 :             _Al.deallocate(_Myfirst, static_cast<size_type>(_Myend - _Myfirst));

  00009	8b 4e 08	 mov	 ecx, DWORD PTR [esi+8]
  0000c	2b c8		 sub	 ecx, eax
; File C:\Program Files\Microsoft Visual Studio\2022\Professional\VC\Tools\MSVC\14.44.35207\include\xmemory

; 985  :         _STD _Deallocate<_New_alignof<_Ty>>(_Ptr, sizeof(_Ty) * _Count);

  0000e	83 e1 fc	 and	 ecx, -4			; fffffffcH

; 284  :         if (_Bytes >= _Big_allocation_threshold) {

  00011	81 f9 00 10 00
	00		 cmp	 ecx, 4096		; 00001000H
  00017	72 12		 jb	 SHORT $LN15@Tidy

; 205  :     const uintptr_t _Ptr_container   = _Ptr_user[-1];

  00019	8b 50 fc	 mov	 edx, DWORD PTR [eax-4]
  0001c	83 c1 23	 add	 ecx, 35			; 00000023H

; 206  : 
; 207  :     // If the following asserts, it likely means that we are performing
; 208  :     // an aligned delete on memory coming from an unaligned allocation.
; 209  :     _STL_ASSERT(_Ptr_user[-2] == _Big_allocation_sentinel, "invalid argument");
; 210  : 
; 211  :     // Extra paranoia on aligned allocation/deallocation; ensure _Ptr_container is
; 212  :     // in range [_Min_back_shift, _Non_user_size]
; 213  : #ifdef _DEBUG
; 214  :     constexpr uintptr_t _Min_back_shift = 2 * sizeof(void*);
; 215  : #else // ^^^ defined(_DEBUG) / !defined(_DEBUG) vvv
; 216  :     constexpr uintptr_t _Min_back_shift = sizeof(void*);
; 217  : #endif // ^^^ !defined(_DEBUG) ^^^
; 218  :     const uintptr_t _Back_shift = reinterpret_cast<uintptr_t>(_Ptr) - _Ptr_container;

  0001f	2b c2		 sub	 eax, edx

; 219  :     _STL_VERIFY(_Back_shift >= _Min_back_shift && _Back_shift <= _Non_user_size, "invalid argument");

  00021	83 c0 fc	 add	 eax, -4			; fffffffcH
  00024	83 f8 1f	 cmp	 eax, 31			; 0000001fH
  00027	77 22		 ja	 SHORT $LN14@Tidy

; 220  :     _Ptr = reinterpret_cast<void*>(_Ptr_container);

  00029	8b c2		 mov	 eax, edx
$LN15@Tidy:

; 289  :         ::operator delete(_Ptr, _Bytes);

  0002b	51		 push	 ecx
  0002c	50		 push	 eax
  0002d	e8 00 00 00 00	 call	 ??3@YAXPAXI@Z		; operator delete
; File C:\Program Files\Microsoft Visual Studio\2022\Professional\VC\Tools\MSVC\14.44.35207\include\vector

; 2095 :             _Myfirst = nullptr;

  00032	c7 06 00 00 00
	00		 mov	 DWORD PTR [esi], 0
; File C:\Program Files\Microsoft Visual Studio\2022\Professional\VC\Tools\MSVC\14.44.35207\include\xmemory

; 289  :         ::operator delete(_Ptr, _Bytes);

  00038	83 c4 08	 add	 esp, 8
; File C:\Program Files\Microsoft Visual Studio\2022\Professional\VC\Tools\MSVC\14.44.35207\include\vector

; 2096 :             _Mylast  = nullptr;

  0003b	c7 46 04 00 00
	00 00		 mov	 DWORD PTR [esi+4], 0

; 2097 :             _Myend   = nullptr;

  00042	c7 46 08 00 00
	00 00		 mov	 DWORD PTR [esi+8], 0
$LN2@Tidy:

; 2099 :     }

  00049	5e		 pop	 esi
  0004a	c3		 ret	 0
$LN14@Tidy:
; File C:\Program Files\Microsoft Visual Studio\2022\Professional\VC\Tools\MSVC\14.44.35207\include\xmemory

; 219  :     _STL_VERIFY(_Back_shift >= _Min_back_shift && _Back_shift <= _Non_user_size, "invalid argument");

  0004b	6a 00		 push	 0
  0004d	6a 00		 push	 0
  0004f	6a 00		 push	 0
  00051	6a 00		 push	 0
  00053	6a 00		 push	 0
  00055	e8 00 00 00 00	 call	 __invoke_watson
$LN22@Tidy:
  0005a	cc		 int	 3
?_Tidy@?$vector@HV?$allocator@H@std@@@std@@AAEXXZ ENDP	; std::vector<int,std::allocator<int> >::_Tidy
_TEXT	ENDS
; Function compile flags: /Ogtp
; File C:\Program Files\Microsoft Visual Studio\2022\Professional\VC\Tools\MSVC\14.44.35207\include\vector
;	COMDAT ??1?$vector@HV?$allocator@H@std@@@std@@QAE@XZ
_TEXT	SEGMENT
??1?$vector@HV?$allocator@H@std@@@std@@QAE@XZ PROC	; std::vector<int,std::allocator<int> >::~vector<int,std::allocator<int> >, COMDAT
; _this$ = ecx

; 830  :         _Tidy();

  00000	e9 00 00 00 00	 jmp	 ?_Tidy@?$vector@HV?$allocator@H@std@@@std@@AAEXXZ ; std::vector<int,std::allocator<int> >::_Tidy
??1?$vector@HV?$allocator@H@std@@@std@@QAE@XZ ENDP	; std::vector<int,std::allocator<int> >::~vector<int,std::allocator<int> >
_TEXT	ENDS
; Function compile flags: /Ogtp
; File C:\Program Files\Microsoft Visual Studio\2022\Professional\VC\Tools\MSVC\14.44.35207\include\vector
; File C:\Program Files\Microsoft Visual Studio\2022\Professional\VC\Tools\MSVC\14.44.35207\include\xmemory
; File C:\Program Files\Microsoft Visual Studio\2022\Professional\VC\Tools\MSVC\14.44.35207\include\vector
; File C:\Program Files\Microsoft Visual Studio\2022\Professional\VC\Tools\MSVC\14.44.35207\include\xmemory
; File C:\Program Files\Microsoft Visual Studio\2022\Professional\VC\Tools\MSVC\14.44.35207\include\vector
;	COMDAT ??0?$vector@HV?$allocator@H@std@@@std@@QAE@ABV01@@Z
_TEXT	SEGMENT
__Right$ = 8						; size = 4
__Dest$1$ = 8						; size = 4
??0?$vector@HV?$allocator@H@std@@@std@@QAE@ABV01@@Z PROC ; std::vector<int,std::allocator<int> >::vector<int,std::allocator<int> >, COMDAT
; _this$ = ecx

; 746  :         : _Mypair(_One_then_variadic_args_t{}, _Alty_traits::select_on_container_copy_construction(_Right._Getal())) {

  00000	55		 push	 ebp
  00001	8b ec		 mov	 ebp, esp
  00003	53		 push	 ebx
  00004	8b d9		 mov	 ebx, ecx
  00006	57		 push	 edi

; 747  :         const auto& _Right_data = _Right._Mypair._Myval2;
; 748  :         const auto _Count       = static_cast<size_type>(_Right_data._Mylast - _Right_data._Myfirst);

  00007	8b 7d 08	 mov	 edi, DWORD PTR __Right$[ebp]

; 400  :     _CONSTEXPR20 _Vector_val() noexcept : _Myfirst(), _Mylast(), _Myend() {}

  0000a	c7 03 00 00 00
	00		 mov	 DWORD PTR [ebx], 0
  00010	c7 43 04 00 00
	00 00		 mov	 DWORD PTR [ebx+4], 0
  00017	c7 43 08 00 00
	00 00		 mov	 DWORD PTR [ebx+8], 0

; 747  :         const auto& _Right_data = _Right._Mypair._Myval2;
; 748  :         const auto _Count       = static_cast<size_type>(_Right_data._Mylast - _Right_data._Myfirst);

  0001e	8b 47 04	 mov	 eax, DWORD PTR [edi+4]
  00021	2b 07		 sub	 eax, DWORD PTR [edi]
  00023	c1 f8 02	 sar	 eax, 2

; 2111 :         if (_Count != 0) {

  00026	85 c0		 test	 eax, eax
  00028	74 66		 je	 SHORT $LN48@vector

; 2051 :         if (_Newcapacity > max_size()) {

  0002a	3d ff ff ff 3f	 cmp	 eax, 1073741823		; 3fffffffH
  0002f	77 67		 ja	 SHORT $LN59@vector
  00031	56		 push	 esi
; File C:\Program Files\Microsoft Visual Studio\2022\Professional\VC\Tools\MSVC\14.44.35207\include\xmemory

; 122  :     return _Count * _Ty_size;

  00032	8d 34 85 00 00
	00 00		 lea	 esi, DWORD PTR [eax*4]

; 227  :     if (_Bytes == 0) {

  00039	85 f6		 test	 esi, esi
  0003b	75 07		 jne	 SHORT $LN27@vector

; 228  :         return nullptr;

  0003d	33 c9		 xor	 ecx, ecx
  0003f	89 4d 08	 mov	 DWORD PTR __Dest$1$[ebp], ecx
  00042	eb 22		 jmp	 SHORT $LN26@vector
$LN27@vector:

; 229  :     }
; 230  : 
; 231  : #if _HAS_CXX20 // TRANSITION, GH-1532
; 232  :     if (_STD is_constant_evaluated()) {
; 233  :         return _Traits::_Allocate(_Bytes);
; 234  :     }
; 235  : #endif // _HAS_CXX20
; 236  : 
; 237  : #ifdef __cpp_aligned_new
; 238  :     if constexpr (_Align > __STDCPP_DEFAULT_NEW_ALIGNMENT__) {
; 239  :         size_t _Passed_align = _Align;
; 240  : #if defined(_M_IX86) || defined(_M_X64)
; 241  :         if (_Bytes >= _Big_allocation_threshold) {
; 242  :             // boost the alignment of big allocations to help autovectorization
; 243  :             _Passed_align = (_STD max)(_Align, _Big_allocation_alignment);
; 244  :         }
; 245  : #endif // defined(_M_IX86) || defined(_M_X64)
; 246  :         return _Traits::_Allocate_aligned(_Bytes, _Passed_align);
; 247  :     } else
; 248  : #endif // defined(__cpp_aligned_new)
; 249  :     {
; 250  : #if defined(_M_IX86) || defined(_M_X64)
; 251  :         if (_Bytes >= _Big_allocation_threshold) {

  00044	56		 push	 esi
  00045	81 fe 00 10 00
	00		 cmp	 esi, 4096		; 00001000H
  0004b	72 0c		 jb	 SHORT $LN28@vector

; 252  :             // boost the alignment of big allocations to help autovectorization
; 253  :             return _Allocate_manually_vector_aligned<_Traits>(_Bytes);

  0004d	e8 00 00 00 00	 call	 ??$_Allocate_manually_vector_aligned@U_Default_allocate_traits@std@@@std@@YAPAXI@Z ; std::_Allocate_manually_vector_aligned<std::_Default_allocate_traits>
  00052	8b c8		 mov	 ecx, eax
  00054	89 4d 08	 mov	 DWORD PTR __Dest$1$[ebp], ecx
  00057	eb 0a		 jmp	 SHORT $LN57@vector
$LN28@vector:

; 136  :         return ::operator new(_Bytes);

  00059	e8 00 00 00 00	 call	 ??2@YAPAXI@Z		; operator new

; 256  :         return _Traits::_Allocate(_Bytes);

  0005e	8b c8		 mov	 ecx, eax
  00060	89 45 08	 mov	 DWORD PTR __Dest$1$[ebp], eax
$LN57@vector:
; File C:\Program Files\Microsoft Visual Studio\2022\Professional\VC\Tools\MSVC\14.44.35207\include\vector

; 2035 :         _Myfirst              = _Newvec;

  00063	83 c4 04	 add	 esp, 4
$LN26@vector:
  00066	89 0b		 mov	 DWORD PTR [ebx], ecx

; 2036 :         _Mylast               = _Newvec;
; 2037 :         _Myend                = _Newvec + _Newcapacity;

  00068	8d 04 0e	 lea	 eax, DWORD PTR [esi+ecx]
  0006b	89 4b 04	 mov	 DWORD PTR [ebx+4], ecx
  0006e	89 43 08	 mov	 DWORD PTR [ebx+8], eax
; File C:\Program Files\Microsoft Visual Studio\2022\Professional\VC\Tools\MSVC\14.44.35207\include\xmemory

; 1876 :     auto _UFirst = _STD _Get_unwrapped(_STD move(_First));

  00071	8b 37		 mov	 esi, DWORD PTR [edi]

; 1877 :     auto _ULast  = _STD _Get_unwrapped(_STD move(_Last));

  00073	8b 7f 04	 mov	 edi, DWORD PTR [edi+4]

; 1878 : #endif // ^^^ !_HAS_CXX20 ^^^
; 1879 : 
; 1880 :     constexpr bool _Can_memmove = _Sent_copy_cat<decltype(_UFirst), decltype(_ULast), _Ptrval>::_Bitcopy_constructible
; 1881 :                                && _Uses_default_construct<_Alloc, _Ptrval, decltype(*_UFirst)>::value;
; 1882 : 
; 1883 :     if constexpr (_Can_memmove) {
; 1884 : #if _HAS_CXX20
; 1885 :         if (!_STD is_constant_evaluated())
; 1886 : #endif // _HAS_CXX20
; 1887 :         {
; 1888 :             if constexpr (is_same_v<decltype(_UFirst), decltype(_ULast)>) {
; 1889 :                 _STD _Copy_memmove(_STD _To_address(_UFirst), _STD _To_address(_ULast), _STD _Unfancy(_Dest));

  00076	51		 push	 ecx
  00077	57		 push	 edi
  00078	56		 push	 esi
  00079	e8 00 00 00 00	 call	 ??$_Copy_memmove@PAHPAH@std@@YAPAHPAH00@Z ; std::_Copy_memmove<int *,int *>

; 1890 :                 _Dest += _ULast - _UFirst;

  0007e	8b 45 08	 mov	 eax, DWORD PTR __Dest$1$[ebp]
  00081	2b fe		 sub	 edi, esi
  00083	83 c4 0c	 add	 esp, 12			; 0000000cH
  00086	c1 ff 02	 sar	 edi, 2
  00089	8d 04 b8	 lea	 eax, DWORD PTR [eax+edi*4]
; File C:\Program Files\Microsoft Visual Studio\2022\Professional\VC\Tools\MSVC\14.44.35207\include\vector

; 2120 :                 _My_data._Mylast = _STD _Uninitialized_copy(_STD forward<_Valty>(_Val)..., _My_data._Myfirst, _Al);

  0008c	89 43 04	 mov	 DWORD PTR [ebx+4], eax
  0008f	5e		 pop	 esi
$LN48@vector:

; 749  :         _Construct_n(_Count, _Right_data._Myfirst, _Right_data._Mylast);
; 750  :     }

  00090	5f		 pop	 edi
  00091	8b c3		 mov	 eax, ebx
  00093	5b		 pop	 ebx
  00094	5d		 pop	 ebp
  00095	c2 04 00	 ret	 4
$LN59@vector:

; 2052 :             _Xlength();

  00098	e8 00 00 00 00	 call	 ?_Xlength@?$vector@HV?$allocator@H@std@@@std@@CAXXZ ; std::vector<int,std::allocator<int> >::_Xlength
$LN56@vector:
  0009d	cc		 int	 3
??0?$vector@HV?$allocator@H@std@@@std@@QAE@ABV01@@Z ENDP ; std::vector<int,std::allocator<int> >::vector<int,std::allocator<int> >
_TEXT	ENDS
; Function compile flags: /Ogtp
; File C:\IAGOS\server\v18\Source\Source\_Common\Scanner.h
;	COMDAT ?GoMark@CScanner@@UAEXXZ
_TEXT	SEGMENT
?GoMark@CScanner@@UAEXXZ PROC				; CScanner::GoMark, COMDAT
; _this$ = ecx

; 69   : 	virtual void	GoMark() { if( m_lpMark ) m_pProg = m_lpMark; }

  00000	8b 41 14	 mov	 eax, DWORD PTR [ecx+20]
  00003	85 c0		 test	 eax, eax
  00005	74 03		 je	 SHORT $LN2@GoMark
  00007	89 41 18	 mov	 DWORD PTR [ecx+24], eax
$LN2@GoMark:
  0000a	c3		 ret	 0
?GoMark@CScanner@@UAEXXZ ENDP				; CScanner::GoMark
_TEXT	ENDS
; Function compile flags: /Ogtp
; File C:\IAGOS\server\v18\Source\Source\_Common\Scanner.h
;	COMDAT ?SetMark@CScanner@@UAEXXZ
_TEXT	SEGMENT
?SetMark@CScanner@@UAEXXZ PROC				; CScanner::SetMark, COMDAT
; _this$ = ecx

; 68   : 	virtual void	SetMark() { m_lpMark = m_pProg; }

  00000	8b 41 18	 mov	 eax, DWORD PTR [ecx+24]
  00003	89 41 14	 mov	 DWORD PTR [ecx+20], eax
  00006	c3		 ret	 0
?SetMark@CScanner@@UAEXXZ ENDP				; CScanner::SetMark
_TEXT	ENDS
; Function compile flags: /Ogtp
; File C:\IAGOS\server\v18\Source\Source\_network\CmnHdr.h
;	COMDAT ??0_LogItemInfo@@QAE@XZ
_TEXT	SEGMENT
??0_LogItemInfo@@QAE@XZ PROC				; _LogItemInfo::_LogItemInfo, COMDAT
; _this$ = ecx

; 636  : 	{
; 637  : 		Action = _T("");

  00000	c7 01 00 00 00
	00		 mov	 DWORD PTR [ecx], OFFSET ??_C@_00CNPNBAHC@@
  00006	0f 57 c0	 xorps	 xmm0, xmm0

; 638  : 		SendName = _T("");

  00009	c7 41 04 00 00
	00 00		 mov	 DWORD PTR [ecx+4], OFFSET ??_C@_00CNPNBAHC@@

; 639  : 		RecvName = _T("");
; 640  : 		WorldId = Gold = Gold2 = 0;
; 641  : 		Negudo = 0;
; 642  : 		MaxNegudo = 0;
; 643  : 		ItemNo = 0;
; 644  : 		//ItemName = _T("");
; 645  : 		::memset( szItemName, 0, sizeof(szItemName) );
; 646  : 		itemNumber = 0;
; 647  : 		nAbilityOption = 0;
; 648  : 		Gold_1 = 0;
; 649  : 		nSlot = 100;
; 650  : 		nSlot1 = 100;
; 651  : 		nItemResist = 0;
; 652  : 		nResistAbilityOption = 0;
; 653  : 		m_bCharged = FALSE;
; 654  : 		m_dwKeepTime = 0;
; 655  : #if __VER >= 11 // __SYS_IDENTIFY
; 656  : 		m_iRandomOptItemId = 0;
; 657  : #else	//__SYS_IDENTIFY
; 658  : 		m_nRandomOptItemId = 0;
; 659  : #endif	// __SYS_IDENTIFY
; 660  : #if __VER >= 12 // __EXT_PIERCING
; 661  : 		nPiercedSize = 0;
; 662  : //		for( int i=0; i<MAX_PIERCING_WEAPON; i++ )
; 663  : //			adwItemId[i] = 0;
; 664  : 		memset( adwItemId, 0, sizeof(adwItemId) );
; 665  : 		nUMPiercedSize = 0;
; 666  : //		for( i=0; i<MAX_PIERCING_ULTIMATE; i++ )
; 667  : //	adwUMItemId[i] = 0;
; 668  : 		memset( adwUMItemId, 0, sizeof(adwUMItemId) );
; 669  : #else // __EXT_PIERCING
; 670  : 		nPiercedSize = 0;
; 671  : 		adwItemId0 = 0;
; 672  : 		adwItemId1 = 0;
; 673  : 		adwItemId2 = 0;
; 674  : 		adwItemId3 = 0;
; 675  : #if __VER >= 9 // __ULTIMATE
; 676  : 		adwItemId4 = 0;
; 677  : #endif // __ULTIMATE
; 678  : #endif // __EXT_PIERCING
; 679  : #if __VER >= 9 // __PET_0410
; 680  : 		nPetKind = 0;
; 681  : 		nPetLevel = 0;
; 682  : 		dwPetExp = 0;
; 683  : 		wPetEnergy = 0;

  00010	33 c0		 xor	 eax, eax
  00012	c7 41 08 00 00
	00 00		 mov	 DWORD PTR [ecx+8], OFFSET ??_C@_00CNPNBAHC@@
  00019	c7 41 14 00 00
	00 00		 mov	 DWORD PTR [ecx+20], 0
  00020	c7 41 10 00 00
	00 00		 mov	 DWORD PTR [ecx+16], 0
  00027	c7 41 0c 00 00
	00 00		 mov	 DWORD PTR [ecx+12], 0
  0002e	c7 41 1c 00 00
	00 00		 mov	 DWORD PTR [ecx+28], 0
  00035	c7 41 20 00 00
	00 00		 mov	 DWORD PTR [ecx+32], 0
  0003c	c7 41 18 00 00
	00 00		 mov	 DWORD PTR [ecx+24], 0
  00043	0f 11 41 24	 movups	 XMMWORD PTR [ecx+36], xmm0
  00047	0f 11 41 34	 movups	 XMMWORD PTR [ecx+52], xmm0
  0004b	c7 41 44 00 00
	00 00		 mov	 DWORD PTR [ecx+68], 0
  00052	c7 41 48 00 00
	00 00		 mov	 DWORD PTR [ecx+72], 0
  00059	c7 41 4c 00 00
	00 00		 mov	 DWORD PTR [ecx+76], 0
  00060	c7 41 50 64 00
	00 00		 mov	 DWORD PTR [ecx+80], 100	; 00000064H
  00067	c7 41 54 64 00
	00 00		 mov	 DWORD PTR [ecx+84], 100	; 00000064H
  0006e	c7 41 58 00 00
	00 00		 mov	 DWORD PTR [ecx+88], 0
  00075	c7 41 5c 00 00
	00 00		 mov	 DWORD PTR [ecx+92], 0
  0007c	c7 41 60 00 00
	00 00		 mov	 DWORD PTR [ecx+96], 0
  00083	c7 41 64 00 00
	00 00		 mov	 DWORD PTR [ecx+100], 0
  0008a	c7 41 68 00 00
	00 00		 mov	 DWORD PTR [ecx+104], 0
  00091	c7 41 6c 00 00
	00 00		 mov	 DWORD PTR [ecx+108], 0
  00098	c7 41 70 00 00
	00 00		 mov	 DWORD PTR [ecx+112], 0
  0009f	0f 11 41 74	 movups	 XMMWORD PTR [ecx+116], xmm0
  000a3	0f 11 81 84 00
	00 00		 movups	 XMMWORD PTR [ecx+132], xmm0
  000aa	66 0f d6 81 94
	00 00 00	 movq	 QWORD PTR [ecx+148], xmm0
  000b2	c7 81 9c 00 00
	00 00 00 00 00	 mov	 DWORD PTR [ecx+156], 0
  000bc	0f 11 81 a0 00
	00 00		 movups	 XMMWORD PTR [ecx+160], xmm0
  000c3	c7 81 b0 00 00
	00 00 00 00 00	 mov	 DWORD PTR [ecx+176], 0
  000cd	89 81 bc 00 00
	00		 mov	 DWORD PTR [ecx+188], eax

; 684  : 		wPetLife = 0;
; 685  : 		nPetAL_D = 0;

  000d3	89 81 c0 00 00
	00		 mov	 DWORD PTR [ecx+192], eax

; 686  : 		nPetAL_C = 0;
; 687  : 		nPetAL_B = 0;
; 688  : 		nPetAL_A = 0;
; 689  : 		nPetAL_S = 0;

  000d9	88 81 c4 00 00
	00		 mov	 BYTE PTR [ecx+196], al

; 690  : #endif // __PET_0410
; 691  : 	}

  000df	8b c1		 mov	 eax, ecx
  000e1	66 c7 81 b4 00
	00 00 00 00	 mov	 WORD PTR [ecx+180], 0
  000ea	c7 81 b8 00 00
	00 00 00 00 00	 mov	 DWORD PTR [ecx+184], 0
  000f4	c3		 ret	 0
??0_LogItemInfo@@QAE@XZ ENDP				; _LogItemInfo::_LogItemInfo
_TEXT	ENDS
; Function compile flags: /Ogtp
; File C:\Program Files\Microsoft Visual Studio\2022\Professional\VC\Tools\MSVC\14.44.35207\include\xtree
;	COMDAT ?_Throw_tree_length_error@std@@YAXXZ
_TEXT	SEGMENT
?_Throw_tree_length_error@std@@YAXXZ PROC		; std::_Throw_tree_length_error, COMDAT

; 417  :     _Xlength_error("map/set too long");

  00000	68 00 00 00 00	 push	 OFFSET ??_C@_0BB@GCADKGJO@map?1set?5too?5long@
  00005	e8 00 00 00 00	 call	 ?_Xlength_error@std@@YAXPBD@Z ; std::_Xlength_error
$LN3@Throw_tree:
  0000a	cc		 int	 3
?_Throw_tree_length_error@std@@YAXXZ ENDP		; std::_Throw_tree_length_error
_TEXT	ENDS
; Function compile flags: /Ogtp
; File C:\Program Files\Microsoft Visual Studio\2022\Professional\VC\Tools\MSVC\14.44.35207\include\xmemory
;	COMDAT ?_Throw_bad_array_new_length@std@@YAXXZ
_TEXT	SEGMENT
$T1 = -12						; size = 12
?_Throw_bad_array_new_length@std@@YAXXZ PROC		; std::_Throw_bad_array_new_length, COMDAT

; 107  : [[noreturn]] inline void _Throw_bad_array_new_length() {

  00000	55		 push	 ebp
  00001	8b ec		 mov	 ebp, esp
  00003	83 ec 0c	 sub	 esp, 12			; 0000000cH

; 108  :     _THROW(bad_array_new_length{});

  00006	8d 4d f4	 lea	 ecx, DWORD PTR $T1[ebp]
  00009	e8 00 00 00 00	 call	 ??0bad_array_new_length@std@@QAE@XZ ; std::bad_array_new_length::bad_array_new_length
  0000e	68 00 00 00 00	 push	 OFFSET __TI3?AVbad_array_new_length@std@@
  00013	8d 45 f4	 lea	 eax, DWORD PTR $T1[ebp]
  00016	50		 push	 eax
  00017	e8 00 00 00 00	 call	 __CxxThrowException@8
$LN3@Throw_bad_:
  0001c	cc		 int	 3
?_Throw_bad_array_new_length@std@@YAXXZ ENDP		; std::_Throw_bad_array_new_length
_TEXT	ENDS
; Function compile flags: /Ogtp
; File C:\Program Files\Microsoft Visual Studio\2022\Professional\VC\Tools\MSVC\14.44.35207\include\vcruntime_exception.h
;	COMDAT ??_Gbad_array_new_length@std@@UAEPAXI@Z
_TEXT	SEGMENT
___flags$ = 8						; size = 4
??_Gbad_array_new_length@std@@UAEPAXI@Z PROC		; std::bad_array_new_length::`scalar deleting destructor', COMDAT
; _this$ = ecx
  00000	55		 push	 ebp
  00001	8b ec		 mov	 ebp, esp

; 90   :     {

  00003	56		 push	 esi
  00004	8b f1		 mov	 esi, ecx

; 91   :         __std_exception_destroy(&_Data);

  00006	8d 46 04	 lea	 eax, DWORD PTR [esi+4]
  00009	c7 06 00 00 00
	00		 mov	 DWORD PTR [esi], OFFSET ??_7exception@std@@6B@
  0000f	50		 push	 eax
  00010	e8 00 00 00 00	 call	 ___std_exception_destroy
  00015	83 c4 04	 add	 esp, 4
  00018	f6 45 08 01	 test	 BYTE PTR ___flags$[ebp], 1
  0001c	74 0b		 je	 SHORT $LN18@scalar
  0001e	6a 0c		 push	 12			; 0000000cH
  00020	56		 push	 esi
  00021	e8 00 00 00 00	 call	 ??3@YAXPAXI@Z		; operator delete
  00026	83 c4 08	 add	 esp, 8
$LN18@scalar:
  00029	8b c6		 mov	 eax, esi
  0002b	5e		 pop	 esi
  0002c	5d		 pop	 ebp
  0002d	c2 04 00	 ret	 4
??_Gbad_array_new_length@std@@UAEPAXI@Z ENDP		; std::bad_array_new_length::`scalar deleting destructor'
_TEXT	ENDS
; Function compile flags: /Ogtp
; File C:\Program Files\Microsoft Visual Studio\2022\Professional\VC\Tools\MSVC\14.44.35207\include\vcruntime_exception.h
;	COMDAT ??0bad_array_new_length@std@@QAE@ABV01@@Z
_TEXT	SEGMENT
___that$ = 8						; size = 4
??0bad_array_new_length@std@@QAE@ABV01@@Z PROC		; std::bad_array_new_length::bad_array_new_length, COMDAT
; _this$ = ecx
  00000	55		 push	 ebp
  00001	8b ec		 mov	 ebp, esp

; 73   :     {

  00003	56		 push	 esi
  00004	8b f1		 mov	 esi, ecx
  00006	0f 57 c0	 xorps	 xmm0, xmm0

; 72   :         : _Data()

  00009	8d 46 04	 lea	 eax, DWORD PTR [esi+4]

; 74   :         __std_exception_copy(&_Other._Data, &_Data);

  0000c	50		 push	 eax
  0000d	c7 06 00 00 00
	00		 mov	 DWORD PTR [esi], OFFSET ??_7exception@std@@6B@
  00013	66 0f d6 00	 movq	 QWORD PTR [eax], xmm0
  00017	8b 45 08	 mov	 eax, DWORD PTR ___that$[ebp]
  0001a	83 c0 04	 add	 eax, 4
  0001d	50		 push	 eax
  0001e	e8 00 00 00 00	 call	 ___std_exception_copy
  00023	83 c4 08	 add	 esp, 8
  00026	c7 06 00 00 00
	00		 mov	 DWORD PTR [esi], OFFSET ??_7bad_array_new_length@std@@6B@
  0002c	8b c6		 mov	 eax, esi
  0002e	5e		 pop	 esi
  0002f	5d		 pop	 ebp
  00030	c2 04 00	 ret	 4
??0bad_array_new_length@std@@QAE@ABV01@@Z ENDP		; std::bad_array_new_length::bad_array_new_length
_TEXT	ENDS
; Function compile flags: /Ogtp
; File C:\Program Files\Microsoft Visual Studio\2022\Professional\VC\Tools\MSVC\14.44.35207\include\vcruntime_exception.h
;	COMDAT ??1bad_array_new_length@std@@UAE@XZ
_TEXT	SEGMENT
??1bad_array_new_length@std@@UAE@XZ PROC		; std::bad_array_new_length::~bad_array_new_length, COMDAT
; _this$ = ecx

; 91   :         __std_exception_destroy(&_Data);

  00000	8d 41 04	 lea	 eax, DWORD PTR [ecx+4]
  00003	c7 01 00 00 00
	00		 mov	 DWORD PTR [ecx], OFFSET ??_7exception@std@@6B@
  00009	50		 push	 eax
  0000a	e8 00 00 00 00	 call	 ___std_exception_destroy
  0000f	59		 pop	 ecx
  00010	c3		 ret	 0
??1bad_array_new_length@std@@UAE@XZ ENDP		; std::bad_array_new_length::~bad_array_new_length
_TEXT	ENDS
; Function compile flags: /Ogtp
; File C:\Program Files\Microsoft Visual Studio\2022\Professional\VC\Tools\MSVC\14.44.35207\include\vcruntime_exception.h
;	COMDAT ??0bad_array_new_length@std@@QAE@XZ
_TEXT	SEGMENT
??0bad_array_new_length@std@@QAE@XZ PROC		; std::bad_array_new_length::bad_array_new_length, COMDAT
; _this$ = ecx

; 144  :     {

  00000	0f 57 c0	 xorps	 xmm0, xmm0

; 145  :     }

  00003	8b c1		 mov	 eax, ecx

; 66   :         : _Data()

  00005	66 0f d6 41 04	 movq	 QWORD PTR [ecx+4], xmm0

; 67   :     {
; 68   :         _Data._What = _Message;

  0000a	c7 41 04 00 00
	00 00		 mov	 DWORD PTR [ecx+4], OFFSET ??_C@_0BF@KINCDENJ@bad?5array?5new?5length@

; 144  :     {

  00011	c7 01 00 00 00
	00		 mov	 DWORD PTR [ecx], OFFSET ??_7bad_array_new_length@std@@6B@

; 145  :     }

  00017	c3		 ret	 0
??0bad_array_new_length@std@@QAE@XZ ENDP		; std::bad_array_new_length::bad_array_new_length
_TEXT	ENDS
; Function compile flags: /Ogtp
; File C:\Program Files\Microsoft Visual Studio\2022\Professional\VC\Tools\MSVC\14.44.35207\include\vcruntime_exception.h
;	COMDAT ??_Gbad_alloc@std@@UAEPAXI@Z
_TEXT	SEGMENT
___flags$ = 8						; size = 4
??_Gbad_alloc@std@@UAEPAXI@Z PROC			; std::bad_alloc::`scalar deleting destructor', COMDAT
; _this$ = ecx
  00000	55		 push	 ebp
  00001	8b ec		 mov	 ebp, esp

; 90   :     {

  00003	56		 push	 esi
  00004	8b f1		 mov	 esi, ecx

; 91   :         __std_exception_destroy(&_Data);

  00006	8d 46 04	 lea	 eax, DWORD PTR [esi+4]
  00009	c7 06 00 00 00
	00		 mov	 DWORD PTR [esi], OFFSET ??_7exception@std@@6B@
  0000f	50		 push	 eax
  00010	e8 00 00 00 00	 call	 ___std_exception_destroy
  00015	83 c4 04	 add	 esp, 4
  00018	f6 45 08 01	 test	 BYTE PTR ___flags$[ebp], 1
  0001c	74 0b		 je	 SHORT $LN13@scalar
  0001e	6a 0c		 push	 12			; 0000000cH
  00020	56		 push	 esi
  00021	e8 00 00 00 00	 call	 ??3@YAXPAXI@Z		; operator delete
  00026	83 c4 08	 add	 esp, 8
$LN13@scalar:
  00029	8b c6		 mov	 eax, esi
  0002b	5e		 pop	 esi
  0002c	5d		 pop	 ebp
  0002d	c2 04 00	 ret	 4
??_Gbad_alloc@std@@UAEPAXI@Z ENDP			; std::bad_alloc::`scalar deleting destructor'
_TEXT	ENDS
; Function compile flags: /Ogtp
; File C:\Program Files\Microsoft Visual Studio\2022\Professional\VC\Tools\MSVC\14.44.35207\include\vcruntime_exception.h
;	COMDAT ??0bad_alloc@std@@QAE@ABV01@@Z
_TEXT	SEGMENT
___that$ = 8						; size = 4
??0bad_alloc@std@@QAE@ABV01@@Z PROC			; std::bad_alloc::bad_alloc, COMDAT
; _this$ = ecx
  00000	55		 push	 ebp
  00001	8b ec		 mov	 ebp, esp

; 73   :     {

  00003	56		 push	 esi
  00004	8b f1		 mov	 esi, ecx
  00006	0f 57 c0	 xorps	 xmm0, xmm0

; 72   :         : _Data()

  00009	8d 46 04	 lea	 eax, DWORD PTR [esi+4]

; 74   :         __std_exception_copy(&_Other._Data, &_Data);

  0000c	50		 push	 eax
  0000d	c7 06 00 00 00
	00		 mov	 DWORD PTR [esi], OFFSET ??_7exception@std@@6B@
  00013	66 0f d6 00	 movq	 QWORD PTR [eax], xmm0
  00017	8b 45 08	 mov	 eax, DWORD PTR ___that$[ebp]
  0001a	83 c0 04	 add	 eax, 4
  0001d	50		 push	 eax
  0001e	e8 00 00 00 00	 call	 ___std_exception_copy
  00023	83 c4 08	 add	 esp, 8
  00026	c7 06 00 00 00
	00		 mov	 DWORD PTR [esi], OFFSET ??_7bad_alloc@std@@6B@
  0002c	8b c6		 mov	 eax, esi
  0002e	5e		 pop	 esi
  0002f	5d		 pop	 ebp
  00030	c2 04 00	 ret	 4
??0bad_alloc@std@@QAE@ABV01@@Z ENDP			; std::bad_alloc::bad_alloc
_TEXT	ENDS
; Function compile flags: /Ogtp
; File C:\Program Files\Microsoft Visual Studio\2022\Professional\VC\Tools\MSVC\14.44.35207\include\vcruntime_exception.h
;	COMDAT ??_Gexception@std@@UAEPAXI@Z
_TEXT	SEGMENT
___flags$ = 8						; size = 4
??_Gexception@std@@UAEPAXI@Z PROC			; std::exception::`scalar deleting destructor', COMDAT
; _this$ = ecx
  00000	55		 push	 ebp
  00001	8b ec		 mov	 ebp, esp

; 90   :     {

  00003	56		 push	 esi
  00004	8b f1		 mov	 esi, ecx

; 91   :         __std_exception_destroy(&_Data);

  00006	8d 46 04	 lea	 eax, DWORD PTR [esi+4]
  00009	c7 06 00 00 00
	00		 mov	 DWORD PTR [esi], OFFSET ??_7exception@std@@6B@
  0000f	50		 push	 eax
  00010	e8 00 00 00 00	 call	 ___std_exception_destroy
  00015	83 c4 04	 add	 esp, 4
  00018	f6 45 08 01	 test	 BYTE PTR ___flags$[ebp], 1
  0001c	74 0b		 je	 SHORT $LN8@scalar
  0001e	6a 0c		 push	 12			; 0000000cH
  00020	56		 push	 esi
  00021	e8 00 00 00 00	 call	 ??3@YAXPAXI@Z		; operator delete
  00026	83 c4 08	 add	 esp, 8
$LN8@scalar:
  00029	8b c6		 mov	 eax, esi
  0002b	5e		 pop	 esi
  0002c	5d		 pop	 ebp
  0002d	c2 04 00	 ret	 4
??_Gexception@std@@UAEPAXI@Z ENDP			; std::exception::`scalar deleting destructor'
_TEXT	ENDS
; Function compile flags: /Ogtp
; File C:\Program Files\Microsoft Visual Studio\2022\Professional\VC\Tools\MSVC\14.44.35207\include\vcruntime_exception.h
;	COMDAT ?what@exception@std@@UBEPBDXZ
_TEXT	SEGMENT
?what@exception@std@@UBEPBDXZ PROC			; std::exception::what, COMDAT
; _this$ = ecx

; 96   :         return _Data._What ? _Data._What : "Unknown exception";

  00000	8b 49 04	 mov	 ecx, DWORD PTR [ecx+4]
  00003	b8 00 00 00 00	 mov	 eax, OFFSET ??_C@_0BC@EOODALEL@Unknown?5exception@
  00008	85 c9		 test	 ecx, ecx
  0000a	0f 45 c1	 cmovne	 eax, ecx

; 97   :     }

  0000d	c3		 ret	 0
?what@exception@std@@UBEPBDXZ ENDP			; std::exception::what
_TEXT	ENDS
; Function compile flags: /Ogtp
; File C:\Program Files\Microsoft Visual Studio\2022\Professional\VC\Tools\MSVC\14.44.35207\include\vcruntime_exception.h
;	COMDAT ??1exception@std@@UAE@XZ
_TEXT	SEGMENT
??1exception@std@@UAE@XZ PROC				; std::exception::~exception, COMDAT
; _this$ = ecx

; 91   :         __std_exception_destroy(&_Data);

  00000	8d 41 04	 lea	 eax, DWORD PTR [ecx+4]
  00003	c7 01 00 00 00
	00		 mov	 DWORD PTR [ecx], OFFSET ??_7exception@std@@6B@
  00009	50		 push	 eax
  0000a	e8 00 00 00 00	 call	 ___std_exception_destroy
  0000f	59		 pop	 ecx

; 92   :     }

  00010	c3		 ret	 0
??1exception@std@@UAE@XZ ENDP				; std::exception::~exception
_TEXT	ENDS
; Function compile flags: /Ogtp
; File C:\Program Files\Microsoft Visual Studio\2022\Professional\VC\Tools\MSVC\14.44.35207\include\vcruntime_exception.h
;	COMDAT ??0exception@std@@QAE@ABV01@@Z
_TEXT	SEGMENT
__Other$ = 8						; size = 4
??0exception@std@@QAE@ABV01@@Z PROC			; std::exception::exception, COMDAT
; _this$ = ecx

; 73   :     {

  00000	55		 push	 ebp
  00001	8b ec		 mov	 ebp, esp
  00003	56		 push	 esi
  00004	8b f1		 mov	 esi, ecx
  00006	0f 57 c0	 xorps	 xmm0, xmm0
  00009	8d 46 04	 lea	 eax, DWORD PTR [esi+4]

; 74   :         __std_exception_copy(&_Other._Data, &_Data);

  0000c	50		 push	 eax
  0000d	c7 06 00 00 00
	00		 mov	 DWORD PTR [esi], OFFSET ??_7exception@std@@6B@
  00013	66 0f d6 00	 movq	 QWORD PTR [eax], xmm0
  00017	8b 45 08	 mov	 eax, DWORD PTR __Other$[ebp]
  0001a	83 c0 04	 add	 eax, 4
  0001d	50		 push	 eax
  0001e	e8 00 00 00 00	 call	 ___std_exception_copy
  00023	83 c4 08	 add	 esp, 8

; 75   :     }

  00026	8b c6		 mov	 eax, esi
  00028	5e		 pop	 esi
  00029	5d		 pop	 ebp
  0002a	c2 04 00	 ret	 4
??0exception@std@@QAE@ABV01@@Z ENDP			; std::exception::exception
_TEXT	ENDS
; Function compile flags: /Ogtp
; File C:\Program Files\Microsoft Visual Studio\2022\Professional\VC\Tools\MSVC\14.44.35207\atlmfc\include\cstringt.h
; File C:\Program Files\Microsoft Visual Studio\2022\Professional\VC\Tools\MSVC\14.44.35207\atlmfc\include\atlsimpstr.h
; File C:\Program Files\Microsoft Visual Studio\2022\Professional\VC\Tools\MSVC\14.44.35207\atlmfc\include\cstringt.h
;	COMDAT ??1?$CStringT@DV?$StrTraitMFC@DV?$ChTraitsCRT@D@ATL@@@@@ATL@@QAE@XZ
_TEXT	SEGMENT
??1?$CStringT@DV?$StrTraitMFC@DV?$ChTraitsCRT@D@ATL@@@@@ATL@@QAE@XZ PROC ; ATL::CStringT<char,StrTraitMFC<char,ATL::ChTraitsCRT<char> > >::~CStringT<char,StrTraitMFC<char,ATL::ChTraitsCRT<char> > >, COMDAT
; _this$ = ecx
; File C:\Program Files\Microsoft Visual Studio\2022\Professional\VC\Tools\MSVC\14.44.35207\atlmfc\include\atlsimpstr.h

; 804  : 		return( reinterpret_cast< CStringData* >( m_pszData )-1 );

  00000	8b 11		 mov	 edx, DWORD PTR [ecx]

; 92   : 		if( _InterlockedDecrement( &nRefs ) <= 0 )

  00002	83 c8 ff	 or	 eax, -1

; 804  : 		return( reinterpret_cast< CStringData* >( m_pszData )-1 );

  00005	83 ea 10	 sub	 edx, 16			; 00000010H

; 92   : 		if( _InterlockedDecrement( &nRefs ) <= 0 )

  00008	f0 0f c1 42 0c	 lock	  xadd	 DWORD PTR [edx+12], eax
  0000d	48		 dec	 eax
  0000e	85 c0		 test	 eax, eax
  00010	7f 08		 jg	 SHORT $LN8@CStringT

; 93   : 		{
; 94   : 			pStringMgr->Free( this );

  00012	8b 0a		 mov	 ecx, DWORD PTR [edx]
  00014	52		 push	 edx
  00015	8b 01		 mov	 eax, DWORD PTR [ecx]
  00017	ff 50 04	 call	 DWORD PTR [eax+4]
$LN8@CStringT:
; File C:\Program Files\Microsoft Visual Studio\2022\Professional\VC\Tools\MSVC\14.44.35207\atlmfc\include\cstringt.h

; 1303 : 	}

  0001a	c3		 ret	 0
??1?$CStringT@DV?$StrTraitMFC@DV?$ChTraitsCRT@D@ATL@@@@@ATL@@QAE@XZ ENDP ; ATL::CStringT<char,StrTraitMFC<char,ATL::ChTraitsCRT<char> > >::~CStringT<char,StrTraitMFC<char,ATL::ChTraitsCRT<char> > >
_TEXT	ENDS
; Function compile flags: /Ogtp
; File C:\Program Files\Microsoft Visual Studio\2022\Professional\VC\Tools\MSVC\14.44.35207\atlmfc\include\atlsimpstr.h
;	COMDAT ?Reallocate@?$CSimpleStringT@D$0A@@ATL@@AAEXH@Z
_TEXT	SEGMENT
_nLength$ = 8						; size = 4
?Reallocate@?$CSimpleStringT@D$0A@@ATL@@AAEXH@Z PROC	; ATL::CSimpleStringT<char,0>::Reallocate, COMDAT
; _this$ = ecx

; 853  : 	{

  00000	55		 push	 ebp
  00001	8b ec		 mov	 ebp, esp
  00003	56		 push	 esi

; 854  : 		CStringData* pOldData = GetData();
; 855  : 		ATLASSERT( pOldData->nAllocLength < nLength );
; 856  : 		IAtlStringMgr* pStringMgr = pOldData->pStringMgr;
; 857  : 		if ( pOldData->nAllocLength >= nLength || nLength <= 0)

  00004	8b 75 08	 mov	 esi, DWORD PTR _nLength$[ebp]
  00007	57		 push	 edi
  00008	8b f9		 mov	 edi, ecx

; 804  : 		return( reinterpret_cast< CStringData* >( m_pszData )-1 );

  0000a	8b 17		 mov	 edx, DWORD PTR [edi]
  0000c	83 ea 10	 sub	 edx, 16			; 00000010H

; 854  : 		CStringData* pOldData = GetData();
; 855  : 		ATLASSERT( pOldData->nAllocLength < nLength );
; 856  : 		IAtlStringMgr* pStringMgr = pOldData->pStringMgr;
; 857  : 		if ( pOldData->nAllocLength >= nLength || nLength <= 0)

  0000f	39 72 08	 cmp	 DWORD PTR [edx+8], esi
  00012	7d 1e		 jge	 SHORT $LN3@Reallocate
  00014	85 f6		 test	 esi, esi
  00016	7e 1a		 jle	 SHORT $LN3@Reallocate

; 860  : 			return;
; 861  : 		}
; 862  : 		CStringData* pNewData = pStringMgr->Reallocate( pOldData, nLength, sizeof( XCHAR ) );

  00018	8b 0a		 mov	 ecx, DWORD PTR [edx]
  0001a	6a 01		 push	 1
  0001c	56		 push	 esi
  0001d	52		 push	 edx
  0001e	8b 01		 mov	 eax, DWORD PTR [ecx]
  00020	ff 50 08	 call	 DWORD PTR [eax+8]

; 863  : 		if( pNewData == NULL )

  00023	85 c0		 test	 eax, eax
  00025	74 0b		 je	 SHORT $LN3@Reallocate

; 864  : 		{
; 865  : 			ThrowMemoryException();
; 866  : 		}
; 867  : 		Attach( pNewData );

  00027	83 c0 10	 add	 eax, 16			; 00000010H
  0002a	89 07		 mov	 DWORD PTR [edi], eax
  0002c	5f		 pop	 edi
  0002d	5e		 pop	 esi

; 868  : 	}

  0002e	5d		 pop	 ebp
  0002f	c2 04 00	 ret	 4
$LN3@Reallocate:

; 858  : 		{
; 859  : 			ThrowMemoryException();

  00032	e8 00 00 00 00	 call	 ?ThrowMemoryException@?$CSimpleStringT@D$0A@@ATL@@KAXXZ ; ATL::CSimpleStringT<char,0>::ThrowMemoryException
$LN12@Reallocate:
  00037	cc		 int	 3
?Reallocate@?$CSimpleStringT@D$0A@@ATL@@AAEXH@Z ENDP	; ATL::CSimpleStringT<char,0>::Reallocate
_TEXT	ENDS
; Function compile flags: /Ogtp
; File C:\Program Files\Microsoft Visual Studio\2022\Professional\VC\Tools\MSVC\14.44.35207\atlmfc\include\atlsimpstr.h
;	COMDAT ?PrepareWrite2@?$CSimpleStringT@D$0A@@ATL@@AAEXH@Z
_TEXT	SEGMENT
_nLength$ = 8						; size = 4
?PrepareWrite2@?$CSimpleStringT@D$0A@@ATL@@AAEXH@Z PROC	; ATL::CSimpleStringT<char,0>::PrepareWrite2, COMDAT
; _this$ = ecx

; 822  : 	{

  00000	55		 push	 ebp
  00001	8b ec		 mov	 ebp, esp
  00003	56		 push	 esi

; 823  : 		CStringData* pOldData = GetData();
; 824  : 		if( pOldData->nDataLength > nLength )

  00004	8b 75 08	 mov	 esi, DWORD PTR _nLength$[ebp]
  00007	57		 push	 edi
  00008	8b f9		 mov	 edi, ecx

; 804  : 		return( reinterpret_cast< CStringData* >( m_pszData )-1 );

  0000a	8b 0f		 mov	 ecx, DWORD PTR [edi]

; 823  : 		CStringData* pOldData = GetData();
; 824  : 		if( pOldData->nDataLength > nLength )

  0000c	39 71 f4	 cmp	 DWORD PTR [ecx-12], esi
  0000f	0f 4f 71 f4	 cmovg	 esi, DWORD PTR [ecx-12]

; 77   : 		return( nRefs > 1 );

  00013	83 79 fc 01	 cmp	 DWORD PTR [ecx-4], 1

; 825  : 		{
; 826  : 			nLength = pOldData->nDataLength;
; 827  : 		}
; 828  : 		if( pOldData->IsShared() )

  00017	7e 0e		 jle	 SHORT $LN3@PrepareWri

; 829  : 		{
; 830  : 			Fork( nLength );

  00019	56		 push	 esi
  0001a	8b cf		 mov	 ecx, edi
  0001c	e8 00 00 00 00	 call	 ?Fork@?$CSimpleStringT@D$0A@@ATL@@AAEXH@Z ; ATL::CSimpleStringT<char,0>::Fork
  00021	5f		 pop	 edi

; 850  : 		}
; 851  : 	}

  00022	5e		 pop	 esi
  00023	5d		 pop	 ebp
  00024	c2 04 00	 ret	 4
$LN3@PrepareWri:

; 831  : 		}
; 832  : 		else if( pOldData->nAllocLength < nLength )

  00027	8b 49 f8	 mov	 ecx, DWORD PTR [ecx-8]
  0002a	3b ce		 cmp	 ecx, esi
  0002c	7d 25		 jge	 SHORT $LN5@PrepareWri

; 833  : 		{
; 834  : 			// Grow exponentially, until we hit 1G, then by 1M thereafter.
; 835  : 			int nNewLength = pOldData->nAllocLength;
; 836  : 			if( nNewLength > 1024 * 1024 * 1024 )

  0002e	81 f9 00 00 00
	40		 cmp	 ecx, 1073741824		; 40000000H
  00034	7e 07		 jle	 SHORT $LN6@PrepareWri

; 837  : 			{
; 838  : 				nNewLength += 1024 * 1024;

  00036	b8 00 00 10 00	 mov	 eax, 1048576		; 00100000H

; 839  : 			}

  0003b	eb 07		 jmp	 SHORT $LN7@PrepareWri
$LN6@PrepareWri:

; 840  : 			else
; 841  : 			{
; 842  : 				// Exponential growth factor is 1.5.
; 843  : 				nNewLength = nNewLength + nNewLength / 2;

  0003d	8b c1		 mov	 eax, ecx
  0003f	99		 cdq
  00040	2b c2		 sub	 eax, edx
  00042	d1 f8		 sar	 eax, 1
$LN7@PrepareWri:

; 844  : 			}
; 845  : 			if( nNewLength < nLength )

  00044	03 c1		 add	 eax, ecx

; 846  : 			{
; 847  : 				nNewLength = nLength;
; 848  : 			}
; 849  : 			Reallocate( nNewLength );

  00046	8b cf		 mov	 ecx, edi
  00048	3b c6		 cmp	 eax, esi
  0004a	0f 4d f0	 cmovge	 esi, eax
  0004d	56		 push	 esi
  0004e	e8 00 00 00 00	 call	 ?Reallocate@?$CSimpleStringT@D$0A@@ATL@@AAEXH@Z ; ATL::CSimpleStringT<char,0>::Reallocate
$LN5@PrepareWri:

; 850  : 		}
; 851  : 	}

  00053	5f		 pop	 edi
  00054	5e		 pop	 esi
  00055	5d		 pop	 ebp
  00056	c2 04 00	 ret	 4
?PrepareWrite2@?$CSimpleStringT@D$0A@@ATL@@AAEXH@Z ENDP	; ATL::CSimpleStringT<char,0>::PrepareWrite2
_TEXT	ENDS
; Function compile flags: /Ogtp
; File C:\Program Files\Microsoft Visual Studio\2022\Professional\VC\Tools\MSVC\14.44.35207\atlmfc\include\atlsimpstr.h
; File C:\Program Files (x86)\Windows Kits\10\Include\10.0.26100.0\ucrt\corecrt_memcpy_s.h
; File C:\Program Files\Microsoft Visual Studio\2022\Professional\VC\Tools\MSVC\14.44.35207\atlmfc\include\atlsimpstr.h
;	COMDAT ?Fork@?$CSimpleStringT@D$0A@@ATL@@AAEXH@Z
_TEXT	SEGMENT
_this$1$ = -12						; size = 4
_nOldLength$1$ = -8					; size = 4
__Source$1$ = -4					; size = 4
_nLength$ = 8						; size = 4
_pNewData$1$ = 8					; size = 4
?Fork@?$CSimpleStringT@D$0A@@ATL@@AAEXH@Z PROC		; ATL::CSimpleStringT<char,0>::Fork, COMDAT
; _this$ = ecx

; 787  : 	{

  00000	55		 push	 ebp
  00001	8b ec		 mov	 ebp, esp
  00003	83 ec 0c	 sub	 esp, 12			; 0000000cH
  00006	8b c1		 mov	 eax, ecx
  00008	89 45 f4	 mov	 DWORD PTR _this$1$[ebp], eax
  0000b	53		 push	 ebx
  0000c	56		 push	 esi

; 804  : 		return( reinterpret_cast< CStringData* >( m_pszData )-1 );

  0000d	8b 00		 mov	 eax, DWORD PTR [eax]

; 790  : 		CStringData* pNewData = pOldData->pStringMgr->Clone()->Allocate( nLength, sizeof( XCHAR ) );

  0000f	8b 48 f0	 mov	 ecx, DWORD PTR [eax-16]

; 804  : 		return( reinterpret_cast< CStringData* >( m_pszData )-1 );

  00012	8d 58 f0	 lea	 ebx, DWORD PTR [eax-16]
  00015	89 45 fc	 mov	 DWORD PTR __Source$1$[ebp], eax

; 787  : 	{

  00018	57		 push	 edi

; 788  : 		CStringData* pOldData = GetData();
; 789  : 		int nOldLength = pOldData->nDataLength;

  00019	8b 7b 04	 mov	 edi, DWORD PTR [ebx+4]

; 790  : 		CStringData* pNewData = pOldData->pStringMgr->Clone()->Allocate( nLength, sizeof( XCHAR ) );

  0001c	8b 01		 mov	 eax, DWORD PTR [ecx]
  0001e	89 7d f8	 mov	 DWORD PTR _nOldLength$1$[ebp], edi
  00021	ff 50 10	 call	 DWORD PTR [eax+16]
  00024	8b 75 08	 mov	 esi, DWORD PTR _nLength$[ebp]
  00027	8b c8		 mov	 ecx, eax
  00029	6a 01		 push	 1
  0002b	56		 push	 esi
  0002c	8b 10		 mov	 edx, DWORD PTR [eax]
  0002e	ff 12		 call	 DWORD PTR [edx]
  00030	89 45 08	 mov	 DWORD PTR _pNewData$1$[ebp], eax

; 791  : 		if( pNewData == NULL )

  00033	85 c0		 test	 eax, eax
  00035	74 6c		 je	 SHORT $LN25@Fork

; 794  : 		}
; 795  : 		int nCharsToCopy = ((nOldLength < nLength) ? nOldLength : nLength)+1;  // Copy '\0'

  00037	3b fe		 cmp	 edi, esi
  00039	0f 4c f7	 cmovl	 esi, edi

; 796  : 		memcpy_s( PXSTR( pNewData->data() ), nCharsToCopy * sizeof( XCHAR ),

  0003c	8d 78 10	 lea	 edi, DWORD PTR [eax+16]
  0003f	83 c6 01	 add	 esi, 1
; File C:\Program Files (x86)\Windows Kits\10\Include\10.0.26100.0\ucrt\corecrt_memcpy_s.h

; 47   :         if (_SourceSize == 0)

  00042	74 33		 je	 SHORT $LN11@Fork

; 48   :         {
; 49   :             return 0;
; 50   :         }
; 51   : 
; 52   :         _CRT_MEMCPY_S_VALIDATE_RETURN_ERRCODE(_Destination != NULL, EINVAL);

  00044	85 ff		 test	 edi, edi
  00046	74 1f		 je	 SHORT $LN23@Fork

; 53   :         if (_Source == NULL || _DestinationSize < _SourceSize)

  00048	8b 45 fc	 mov	 eax, DWORD PTR __Source$1$[ebp]
  0004b	56		 push	 esi
  0004c	85 c0		 test	 eax, eax
  0004e	74 0c		 je	 SHORT $LN10@Fork

; 56   : 
; 57   :             _CRT_MEMCPY_S_VALIDATE_RETURN_ERRCODE(_Source != NULL,                 EINVAL);
; 58   :             _CRT_MEMCPY_S_VALIDATE_RETURN_ERRCODE(_DestinationSize >= _SourceSize, ERANGE);
; 59   : 
; 60   :             // Unreachable, but required to suppress /analyze warnings:
; 61   :             return EINVAL;
; 62   :         }
; 63   :         memcpy(_Destination, _Source, _SourceSize);

  00050	50		 push	 eax
  00051	57		 push	 edi
  00052	e8 00 00 00 00	 call	 _memcpy
  00057	83 c4 0c	 add	 esp, 12			; 0000000cH
  0005a	eb 1b		 jmp	 SHORT $LN11@Fork
$LN10@Fork:

; 54   :         {
; 55   :             memset(_Destination, 0, _DestinationSize);

  0005c	6a 00		 push	 0
  0005e	57		 push	 edi
  0005f	e8 00 00 00 00	 call	 _memset
  00064	83 c4 0c	 add	 esp, 12			; 0000000cH
$LN23@Fork:
; File C:\Program Files\Microsoft Visual Studio\2022\Professional\VC\Tools\MSVC\14.44.35207\atlmfc\include\atlsimpstr.h

; 798  : 		pNewData->nDataLength = nOldLength;

  00067	e8 00 00 00 00	 call	 __errno
  0006c	c7 00 16 00 00
	00		 mov	 DWORD PTR [eax], 22	; 00000016H
  00072	e8 00 00 00 00	 call	 __invalid_parameter_noinfo
$LN11@Fork:
  00077	8b 4d 08	 mov	 ecx, DWORD PTR _pNewData$1$[ebp]
  0007a	8b 45 f8	 mov	 eax, DWORD PTR _nOldLength$1$[ebp]
  0007d	89 41 04	 mov	 DWORD PTR [ecx+4], eax

; 92   : 		if( _InterlockedDecrement( &nRefs ) <= 0 )

  00080	83 c8 ff	 or	 eax, -1
  00083	f0 0f c1 43 0c	 lock	  xadd	 DWORD PTR [ebx+12], eax
  00088	48		 dec	 eax
  00089	85 c0		 test	 eax, eax
  0008b	7f 08		 jg	 SHORT $LN15@Fork

; 93   : 		{
; 94   : 			pStringMgr->Free( this );

  0008d	8b 0b		 mov	 ecx, DWORD PTR [ebx]
  0008f	53		 push	 ebx
  00090	8b 01		 mov	 eax, DWORD PTR [ecx]
  00092	ff 50 04	 call	 DWORD PTR [eax+4]
$LN15@Fork:

; 799  : 		pOldData->Release();
; 800  : 		Attach( pNewData );

  00095	8b 45 f4	 mov	 eax, DWORD PTR _this$1$[ebp]
  00098	89 38		 mov	 DWORD PTR [eax], edi

; 801  : 	}

  0009a	5f		 pop	 edi
  0009b	5e		 pop	 esi
  0009c	5b		 pop	 ebx
  0009d	8b e5		 mov	 esp, ebp
  0009f	5d		 pop	 ebp
  000a0	c2 04 00	 ret	 4
$LN25@Fork:

; 792  : 		{
; 793  : 			ThrowMemoryException();

  000a3	e8 00 00 00 00	 call	 ?ThrowMemoryException@?$CSimpleStringT@D$0A@@ATL@@KAXXZ ; ATL::CSimpleStringT<char,0>::ThrowMemoryException
$LN22@Fork:
  000a8	cc		 int	 3
?Fork@?$CSimpleStringT@D$0A@@ATL@@AAEXH@Z ENDP		; ATL::CSimpleStringT<char,0>::Fork
_TEXT	ENDS
; Function compile flags: /Ogtp
; File C:\Program Files\Microsoft Visual Studio\2022\Professional\VC\Tools\MSVC\14.44.35207\atlmfc\include\atlsimpstr.h
;	COMDAT ?ThrowMemoryException@?$CSimpleStringT@D$0A@@ATL@@KAXXZ
_TEXT	SEGMENT
?ThrowMemoryException@?$CSimpleStringT@D$0A@@ATL@@KAXXZ PROC ; ATL::CSimpleStringT<char,0>::ThrowMemoryException, COMDAT

; 777  : 		AtlThrow( E_OUTOFMEMORY );

  00000	68 0e 00 07 80	 push	 -2147024882		; 8007000eH
  00005	e8 00 00 00 00	 call	 ?AtlThrowImpl@ATL@@YGXJ@Z ; ATL::AtlThrowImpl
$LN3@ThrowMemor:
  0000a	cc		 int	 3
?ThrowMemoryException@?$CSimpleStringT@D$0A@@ATL@@KAXXZ ENDP ; ATL::CSimpleStringT<char,0>::ThrowMemoryException
_TEXT	ENDS
; Function compile flags: /Ogtp
; File C:\Program Files\Microsoft Visual Studio\2022\Professional\VC\Tools\MSVC\14.44.35207\atlmfc\include\atlsimpstr.h
; File C:\Program Files (x86)\Windows Kits\10\Include\10.0.26100.0\ucrt\corecrt_memcpy_s.h
; File C:\Program Files\Microsoft Visual Studio\2022\Professional\VC\Tools\MSVC\14.44.35207\atlmfc\include\atlsimpstr.h
; File C:\Program Files (x86)\Windows Kits\10\Include\10.0.26100.0\ucrt\corecrt_memcpy_s.h
; File C:\Program Files\Microsoft Visual Studio\2022\Professional\VC\Tools\MSVC\14.44.35207\atlmfc\include\atlsimpstr.h
;	COMDAT ?SetString@?$CSimpleStringT@D$0A@@ATL@@QAEXPBDH@Z
_TEXT	SEGMENT
_pszSrc$ = 8						; size = 4
_nOldLength$1$ = 8					; size = 4
_nLength$ = 12						; size = 4
_nOffset$1$ = 12					; size = 4
?SetString@?$CSimpleStringT@D$0A@@ATL@@QAEXPBDH@Z PROC	; ATL::CSimpleStringT<char,0>::SetString, COMDAT
; _this$ = ecx

; 611  : 	{

  00000	55		 push	 ebp
  00001	8b ec		 mov	 ebp, esp
  00003	56		 push	 esi

; 612  : 		if( nLength == 0 )

  00004	8b 75 0c	 mov	 esi, DWORD PTR _nLength$[ebp]
  00007	57		 push	 edi
  00008	8b f9		 mov	 edi, ecx
  0000a	85 f6		 test	 esi, esi
  0000c	75 58		 jne	 SHORT $LN2@SetString

; 804  : 		return( reinterpret_cast< CStringData* >( m_pszData )-1 );

  0000e	8b 07		 mov	 eax, DWORD PTR [edi]

; 443  : 		if( pOldData->nDataLength == 0 )

  00010	83 78 f4 00	 cmp	 DWORD PTR [eax-12], 0

; 804  : 		return( reinterpret_cast< CStringData* >( m_pszData )-1 );

  00014	8d 50 f0	 lea	 edx, DWORD PTR [eax-16]

; 442  : 		IAtlStringMgr* pStringMgr = pOldData->pStringMgr;

  00017	8b 32		 mov	 esi, DWORD PTR [edx]

; 443  : 		if( pOldData->nDataLength == 0 )

  00019	74 1f		 je	 SHORT $LN72@SetString

; 73   : 		return nRefs < 0;

  0001b	83 7a 0c 00	 cmp	 DWORD PTR [edx+12], 0
  0001f	8d 4a 0c	 lea	 ecx, DWORD PTR [edx+12]

; 448  : 		if( pOldData->IsLocked() )

  00022	7d 1c		 jge	 SHORT $LN10@SetString

; 875  : 		if( nLength < 0 || nLength > GetData()->nAllocLength)

  00024	83 78 f8 00	 cmp	 DWORD PTR [eax-8], 0
  00028	0f 8c 0b 01 00
	00		 jl	 $LN71@SetString

; 877  : 
; 878  : 		GetData()->nDataLength = nLength;

  0002e	c7 40 f4 00 00
	00 00		 mov	 DWORD PTR [eax-12], 0

; 879  : 		m_pszData[nLength] = 0;

  00035	8b 07		 mov	 eax, DWORD PTR [edi]
  00037	c6 00 00	 mov	 BYTE PTR [eax], 0
$LN72@SetString:
  0003a	5f		 pop	 edi

; 638  : 			else
; 639  : 			{
; 640  : 				memcpy_s( pszBuffer, GetAllocLength() * sizeof( XCHAR ), pszSrc, nLength * sizeof( XCHAR ));
; 641  : 			}
; 642  : 			ReleaseBufferSetLength( nLength );
; 643  : 		}
; 644  : 	}

  0003b	5e		 pop	 esi
  0003c	5d		 pop	 ebp
  0003d	c2 08 00	 ret	 8
$LN10@SetString:

; 92   : 		if( _InterlockedDecrement( &nRefs ) <= 0 )

  00040	83 c8 ff	 or	 eax, -1
  00043	f0 0f c1 01	 lock	  xadd	 DWORD PTR [ecx], eax
  00047	48		 dec	 eax
  00048	85 c0		 test	 eax, eax
  0004a	7f 08		 jg	 SHORT $LN27@SetString

; 93   : 		{
; 94   : 			pStringMgr->Free( this );

  0004c	8b 0a		 mov	 ecx, DWORD PTR [edx]
  0004e	52		 push	 edx
  0004f	8b 01		 mov	 eax, DWORD PTR [ecx]
  00051	ff 50 04	 call	 DWORD PTR [eax+4]
$LN27@SetString:

; 456  : 			CStringData* pNewData = pStringMgr->GetNilString();

  00054	8b 06		 mov	 eax, DWORD PTR [esi]
  00056	8b ce		 mov	 ecx, esi
  00058	ff 50 0c	 call	 DWORD PTR [eax+12]

; 457  : 			Attach( pNewData );

  0005b	83 c0 10	 add	 eax, 16			; 00000010H
  0005e	89 07		 mov	 DWORD PTR [edi], eax
  00060	5f		 pop	 edi

; 638  : 			else
; 639  : 			{
; 640  : 				memcpy_s( pszBuffer, GetAllocLength() * sizeof( XCHAR ), pszSrc, nLength * sizeof( XCHAR ));
; 641  : 			}
; 642  : 			ReleaseBufferSetLength( nLength );
; 643  : 		}
; 644  : 	}

  00061	5e		 pop	 esi
  00062	5d		 pop	 ebp
  00063	c2 08 00	 ret	 8
$LN2@SetString:
  00066	53		 push	 ebx

; 613  : 		{
; 614  : 			Empty();
; 615  : 		}
; 616  : 		else
; 617  : 		{
; 618  : 			// It is possible that pszSrc points to a location inside of our
; 619  : 			// buffer.  GetBuffer() might change m_pszData if (1) the buffer
; 620  : 			// is shared or (2) the buffer is too small to hold the new
; 621  : 			// string.  We detect this aliasing, and modify pszSrc to point
; 622  : 			// into the newly allocated buffer instead.
; 623  : 
; 624  : 			if(pszSrc == NULL)

  00067	8b 5d 08	 mov	 ebx, DWORD PTR _pszSrc$[ebp]
  0006a	85 db		 test	 ebx, ebx
  0006c	0f 84 c7 00 00
	00		 je	 $LN71@SetString

; 523  : 		return( GetData()->nDataLength );

  00072	8b 07		 mov	 eax, DWORD PTR [edi]

; 625  : 				AtlThrow(E_INVALIDARG);
; 626  : 
; 627  : 			UINT nOldLength = GetLength();
; 628  : 			UINT_PTR nOffset = pszSrc-GetString();

  00074	8b d3		 mov	 edx, ebx
  00076	2b d0		 sub	 edx, eax
  00078	89 55 0c	 mov	 DWORD PTR _nOffset$1$[ebp], edx
  0007b	8b 48 f4	 mov	 ecx, DWORD PTR [eax-12]
  0007e	89 4d 08	 mov	 DWORD PTR _nOldLength$1$[ebp], ecx

; 808  : 		if (nLength < 0)

  00081	85 f6		 test	 esi, esi
  00083	0f 88 b0 00 00
	00		 js	 $LN71@SetString

; 809  : 			AtlThrow(E_INVALIDARG);
; 810  : 
; 811  : 		CStringData* pOldData = GetData();
; 812  : 		int nShared = 1-pOldData->nRefs;  // nShared < 0 means true, >= 0 means false

  00089	b9 01 00 00 00	 mov	 ecx, 1
  0008e	2b 48 fc	 sub	 ecx, DWORD PTR [eax-4]

; 813  : 		int nTooShort = pOldData->nAllocLength-nLength;  // nTooShort < 0 means true, >= 0 means false

  00091	8b 40 f8	 mov	 eax, DWORD PTR [eax-8]
  00094	2b c6		 sub	 eax, esi

; 814  : 		if( (nShared|nTooShort) < 0 )  // If either sign bit is set (i.e. either is less than zero), we need to copy data

  00096	0b c8		 or	 ecx, eax
  00098	7d 0b		 jge	 SHORT $LN38@SetString

; 815  : 		{
; 816  : 			PrepareWrite2( nLength );

  0009a	56		 push	 esi
  0009b	8b cf		 mov	 ecx, edi
  0009d	e8 00 00 00 00	 call	 ?PrepareWrite2@?$CSimpleStringT@D$0A@@ATL@@AAEXH@Z ; ATL::CSimpleStringT<char,0>::PrepareWrite2
  000a2	8b 55 0c	 mov	 edx, DWORD PTR _nOffset$1$[ebp]
$LN38@SetString:

; 629  : 			// If 0 <= nOffset <= nOldLength, then pszSrc points into our
; 630  : 			// buffer
; 631  : 
; 632  : 			PXSTR pszBuffer = GetBuffer( nLength );

  000a5	8b 07		 mov	 eax, DWORD PTR [edi]
  000a7	8b 48 f8	 mov	 ecx, DWORD PTR [eax-8]

; 633  : 			if( nOffset <= nOldLength )

  000aa	3b 55 08	 cmp	 edx, DWORD PTR _nOldLength$1$[ebp]
  000ad	77 35		 ja	 SHORT $LN5@SetString

; 634  : 			{
; 635  : 				CopyCharsOverlapped( pszBuffer, GetAllocLength(),

  000af	03 d0		 add	 edx, eax
; File C:\Program Files (x86)\Windows Kits\10\Include\10.0.26100.0\ucrt\corecrt_memcpy_s.h

; 81   :         _CRT_MEMCPY_S_VALIDATE_RETURN_ERRCODE(_Destination != NULL,            EINVAL);

  000b1	85 c0		 test	 eax, eax
  000b3	75 0d		 jne	 SHORT $LN51@SetString
  000b5	e8 00 00 00 00	 call	 __errno
  000ba	c7 00 16 00 00
	00		 mov	 DWORD PTR [eax], 22	; 00000016H
  000c0	eb 5b		 jmp	 SHORT $LN97@SetString
$LN51@SetString:

; 82   :         _CRT_MEMCPY_S_VALIDATE_RETURN_ERRCODE(_Source != NULL,                 EINVAL);

  000c2	85 d2		 test	 edx, edx
  000c4	75 0d		 jne	 SHORT $LN52@SetString
  000c6	e8 00 00 00 00	 call	 __errno
  000cb	c7 00 16 00 00
	00		 mov	 DWORD PTR [eax], 22	; 00000016H
  000d1	eb 4a		 jmp	 SHORT $LN97@SetString
$LN52@SetString:

; 83   :         _CRT_MEMCPY_S_VALIDATE_RETURN_ERRCODE(_DestinationSize >= _SourceSize, ERANGE);

  000d3	3b ce		 cmp	 ecx, esi
  000d5	72 3b		 jb	 SHORT $LN98@SetString

; 84   : 
; 85   :         memmove(_Destination, _Source, _SourceSize);

  000d7	56		 push	 esi
  000d8	52		 push	 edx
  000d9	50		 push	 eax
  000da	e8 00 00 00 00	 call	 _memmove
  000df	83 c4 0c	 add	 esp, 12			; 0000000cH
; File C:\Program Files\Microsoft Visual Studio\2022\Professional\VC\Tools\MSVC\14.44.35207\atlmfc\include\atlsimpstr.h

; 637  : 			}

  000e2	eb 3e		 jmp	 SHORT $LN65@SetString
$LN5@SetString:
; File C:\Program Files (x86)\Windows Kits\10\Include\10.0.26100.0\ucrt\corecrt_memcpy_s.h

; 52   :         _CRT_MEMCPY_S_VALIDATE_RETURN_ERRCODE(_Destination != NULL, EINVAL);

  000e4	85 c0		 test	 eax, eax
  000e6	75 0d		 jne	 SHORT $LN61@SetString
  000e8	e8 00 00 00 00	 call	 __errno
  000ed	c7 00 16 00 00
	00		 mov	 DWORD PTR [eax], 22	; 00000016H
  000f3	eb 28		 jmp	 SHORT $LN97@SetString
$LN61@SetString:

; 53   :         if (_Source == NULL || _DestinationSize < _SourceSize)

  000f5	3b ce		 cmp	 ecx, esi
  000f7	72 0d		 jb	 SHORT $LN63@SetString

; 56   : 
; 57   :             _CRT_MEMCPY_S_VALIDATE_RETURN_ERRCODE(_Source != NULL,                 EINVAL);
; 58   :             _CRT_MEMCPY_S_VALIDATE_RETURN_ERRCODE(_DestinationSize >= _SourceSize, ERANGE);
; 59   : 
; 60   :             // Unreachable, but required to suppress /analyze warnings:
; 61   :             return EINVAL;
; 62   :         }
; 63   :         memcpy(_Destination, _Source, _SourceSize);

  000f9	56		 push	 esi
  000fa	53		 push	 ebx
  000fb	50		 push	 eax
  000fc	e8 00 00 00 00	 call	 _memcpy
  00101	83 c4 0c	 add	 esp, 12			; 0000000cH
  00104	eb 1c		 jmp	 SHORT $LN65@SetString
$LN63@SetString:

; 54   :         {
; 55   :             memset(_Destination, 0, _DestinationSize);

  00106	51		 push	 ecx
  00107	6a 00		 push	 0
  00109	50		 push	 eax
  0010a	e8 00 00 00 00	 call	 _memset
  0010f	83 c4 0c	 add	 esp, 12			; 0000000cH
$LN98@SetString:
; File C:\Program Files\Microsoft Visual Studio\2022\Professional\VC\Tools\MSVC\14.44.35207\atlmfc\include\atlsimpstr.h

; 875  : 		if( nLength < 0 || nLength > GetData()->nAllocLength)

  00112	e8 00 00 00 00	 call	 __errno
  00117	c7 00 22 00 00
	00		 mov	 DWORD PTR [eax], 34	; 00000022H
$LN97@SetString:
  0011d	e8 00 00 00 00	 call	 __invalid_parameter_noinfo
$LN65@SetString:
  00122	8b 07		 mov	 eax, DWORD PTR [edi]
  00124	5b		 pop	 ebx
  00125	3b 70 f8	 cmp	 esi, DWORD PTR [eax-8]
  00128	7f 0f		 jg	 SHORT $LN71@SetString

; 877  : 
; 878  : 		GetData()->nDataLength = nLength;

  0012a	89 70 f4	 mov	 DWORD PTR [eax-12], esi

; 879  : 		m_pszData[nLength] = 0;

  0012d	8b 07		 mov	 eax, DWORD PTR [edi]
  0012f	5f		 pop	 edi
  00130	c6 04 06 00	 mov	 BYTE PTR [esi+eax], 0

; 638  : 			else
; 639  : 			{
; 640  : 				memcpy_s( pszBuffer, GetAllocLength() * sizeof( XCHAR ), pszSrc, nLength * sizeof( XCHAR ));
; 641  : 			}
; 642  : 			ReleaseBufferSetLength( nLength );
; 643  : 		}
; 644  : 	}

  00134	5e		 pop	 esi
  00135	5d		 pop	 ebp
  00136	c2 08 00	 ret	 8
$LN71@SetString:

; 876  : 			AtlThrow(E_INVALIDARG);

  00139	68 57 00 07 80	 push	 -2147024809		; 80070057H
  0013e	e8 00 00 00 00	 call	 ?AtlThrowImpl@ATL@@YGXJ@Z ; ATL::AtlThrowImpl
$LN96@SetString:
  00143	cc		 int	 3
?SetString@?$CSimpleStringT@D$0A@@ATL@@QAEXPBDH@Z ENDP	; ATL::CSimpleStringT<char,0>::SetString
_TEXT	ENDS
; Function compile flags: /Ogtp
; File C:\Program Files\Microsoft Visual Studio\2022\Professional\VC\Tools\MSVC\14.44.35207\atlmfc\include\atlexcept.h
;	COMDAT ?AtlThrowImpl@ATL@@YGXJ@Z
_TEXT	SEGMENT
_hr$ = 8						; size = 4
?AtlThrowImpl@ATL@@YGXJ@Z PROC				; ATL::AtlThrowImpl, COMDAT

; 69   : {

  00000	55		 push	 ebp
  00001	8b ec		 mov	 ebp, esp

; 70   : 	ATLTRACE(atlTraceException, 0, _T("AtlThrow: hr = 0x%x\n"), hr );
; 71   : #ifdef _AFX
; 72   : 	if( hr == E_OUTOFMEMORY )

  00003	8b 45 08	 mov	 eax, DWORD PTR _hr$[ebp]
  00006	3d 0e 00 07 80	 cmp	 eax, -2147024882	; 8007000eH
  0000b	75 05		 jne	 SHORT $LN2@AtlThrowIm

; 73   : 	{
; 74   : 		AfxThrowMemoryException();

  0000d	e8 00 00 00 00	 call	 ?AfxThrowMemoryException@@YGXXZ ; AfxThrowMemoryException
$LN2@AtlThrowIm:

; 75   : 	}
; 76   : 	else
; 77   : 	{
; 78   : 		AfxThrowOleException( hr );

  00012	50		 push	 eax
  00013	e8 00 00 00 00	 call	 ?AfxThrowOleException@@YGXJ@Z ; AfxThrowOleException
$LN5@AtlThrowIm:
  00018	cc		 int	 3
?AtlThrowImpl@ATL@@YGXJ@Z ENDP				; ATL::AtlThrowImpl
_TEXT	ENDS
; Function compile flags: /Ogtp
; File C:\IAGOS\server\v18\Source\Source\_Common\Exchange.cpp
;	COMDAT ?__empty_global_delete@@YAXPAXI@Z
_TEXT	SEGMENT
___formal$ = 8						; size = 4
___formal$ = 12						; size = 4
?__empty_global_delete@@YAXPAXI@Z PROC			; __empty_global_delete, COMDAT

  00000	c2 00 00	 ret	 0
?__empty_global_delete@@YAXPAXI@Z ENDP			; __empty_global_delete
_TEXT	ENDS
; Function compile flags: /Ogtp
; File C:\IAGOS\server\v18\Source\Source\_Common\Exchange.cpp
;	COMDAT ?__empty_global_delete@@YAXPAX@Z
_TEXT	SEGMENT
___formal$ = 8						; size = 4
?__empty_global_delete@@YAXPAX@Z PROC			; __empty_global_delete, COMDAT

  00000	c2 00 00	 ret	 0
?__empty_global_delete@@YAXPAX@Z ENDP			; __empty_global_delete
_TEXT	ENDS
END
